; Listing generated by Microsoft (R) Optimizing Compiler Version 15.00.30729.01 

	TITLE	c:\Users\EnormousApplePie\Documents\GitHub\Lekmod\LEKMOD_DLL\CvGameCoreDLL_Expansion2\CvAIOperation.cpp
	.686P
	.XMM
	include listing.inc
	.model	flat

INCLUDELIB MSVCRT
INCLUDELIB OLDNAMES

PUBLIC	?NO_QUEST_DATA@CvMinorCivQuest@@2HB		; CvMinorCivQuest::NO_QUEST_DATA
PUBLIC	?NO_TURN@CvMinorCivQuest@@2HB			; CvMinorCivQuest::NO_TURN
CONST	SEGMENT
$SG224723 DB	'%03d, ', 00H
$SG224791 DB	00H
$SG224728 DB	', ', 00H
$SG224824 DB	00H
$SG224729 DB	', ', 00H
$SG224840 DB	00H
$SG224735 DB	'Started, Army: %d, Units Recruited: %d, Max Formation Si'
	DB	'ze: %d, ', 00H
	ORG $+3
$SG224742 DB	'Aborted', 00H
$SG224744 DB	'Recruiting Units', 00H
	ORG $+3
$SG224746 DB	'Gathering Forces', 00H
	ORG $+3
$SG224748 DB	'Moving To Target', 00H
	ORG $+3
$SG224750 DB	'At Target', 00H
	ORG $+2
$SG224752 DB	'Completed', 00H
	ORG $+2
$SG224760 DB	', ', 00H
	ORG $+1
$SG224764 DB	', vs. ', 00H
	ORG $+1
$SG224777 DB	'%03d, ', 00H
	ORG $+1
$SG224782 DB	', ', 00H
	ORG $+1
$SG224783 DB	', ', 00H
	ORG $+1
$SG224789 DB	'Aborted', 00H
$SG224797 DB	'Recruiting Units, Army: %d, Muster Turn: %d, SLOT DETAIL'
	DB	':, ', 00H
$SG224804 DB	'No Info, ', 00H
	ORG $+2
$SG224807 DB	'Skipping, ', 00H
	ORG $+1
$SG224810 DB	'Turn %d, ', 00H
	ORG $+2
$SG224812 DB	'Training - ', 00H
$SG224817 DB	'Gathering at (%d-%d), ', 00H
	ORG $+1
$SG224822 DB	'%s - Turn %d, ', 00H
	ORG $+1
$SG224830 DB	'Gathering Forces, Army: %d, Gather X: %d, Gather Y: %d, '
	DB	00H
	ORG $+3
$SG224838 DB	'%s at (%d-%d),', 00H
	ORG $+5
$SG224846 DB	'Moving To Target, Army: %d, At X: %d, At Y: %d, To X: %d'
	DB	', To Y: %d, ', 00H
	ORG $+3
$SG224854 DB	'%s at (%d-%d),', 00H
	ORG $+1
$SG224856 DB	'At Target', 00H
	ORG $+2
$SG224858 DB	'Completed', 00H
	ORG $+2
$SG224870 DB	'%03d, ', 00H
	ORG $+1
$SG224875 DB	', ', 00H
	ORG $+1
$SG224876 DB	', ', 00H
	ORG $+1
$SG224888 DB	'%03d, ', 00H
	ORG $+1
$SG224893 DB	', ', 00H
	ORG $+1
$SG224894 DB	', ', 00H
	ORG $+1
$SG224895 DB	'Ended, ', 00H
$SG224901 DB	'Success', 00H
$SG224903 DB	'No target', 00H
	ORG $+2
$SG224905 DB	'Repeat target', 00H
	ORG $+2
$SG224907 DB	'Lost target', 00H
$SG224909 DB	'Target already captured', 00H
$SG224911 DB	'No room to deploy', 00H
	ORG $+2
$SG224913 DB	'Half strength', 00H
	ORG $+2
$SG224915 DB	'No muster point', 00H
$SG224917 DB	'Lost civilian', 00H
	ORG $+2
$SG224919 DB	'Escort died', 00H
$SG224921 DB	'No nukes', 00H
	ORG $+3
$SG224923 DB	'Killed', 00H
	ORG $+1
$SG224925 DB	'War State Change', 00H
	ORG $+3
$SG224927 DB	'Diplo Opinion Change', 00H
	ORG $+3
$SG224929 DB	'Lost Path to Target', 00H
$SG224938 DB	', ', 00H
	ORG $+1
$SG224948 DB	'.csv', 00H
	ORG $+3
$SG224949 DB	'OperationalAILog_', 00H
	ORG $+2
$SG224951 DB	'OperationalAILog.csv', 00H
	ORG $+7
$SG225224 DB	'Could not recruit from primary units for muster at x=%d '
	DB	'y=%d, target of x=%d y=%d', 00H
	ORG $+6
$SG225255 DB	'Could not recruit from secondary units for muster at x=%'
	DB	'd y=%d, target of x=%d y=%d', 00H
	ORG $+4
$SG225341 DB	'No muster point found, Operation aborting, Target was, X'
	DB	': %d, Y: %d', 00H
$SG225508 DB	'Barbarian camp at (x=%d y=%d) no longer exists. Aborting'
	DB	00H
	ORG $+3
$SG225517 DB	'Civilian can no longer be rescued from barbarians. Abort'
	DB	'ing', 00H
$SG225523 DB	'Civilian can no longer be rescued from barbarians. Abort'
	DB	'ing', 00H
$SG225533 DB	'Barbarian camp stronger (%d) than our units (%d). Aborti'
	DB	'ng', 00H
	ORG $+5
$SG225785 DB	'Now at target but can no longer settle here. Target was '
	DB	'(X=%d Y=%d)', 00H
$SG225796 DB	'City founded, At X=%d, At Y=%d, %s, %d, %d', 00H
	ORG $+1
$SG225800 DB	'At target but can no longer settle here. Target was (X=%'
	DB	'd Y=%d)', 00H
$SG225921 DB	'Great Merchant buying city-state, At X=%d, At Y=%d', 00H
	ORG $+1
$SG225924 DB	'Great Merchant finishing trade mission, At X=%d, At Y=%d'
	DB	00H
	ORG $+3
$SG225929 DB	'At target but can no longer trade here. Target was (X=%d'
	DB	' Y=%d)', 00H
	ORG $+1
$SG225982 DB	'Great Musician performing concert tour, At X=%d, At Y=%d'
	DB	00H
	ORG $+7
$SG225987 DB	'At target but can no longer hold concert here. Target wa'
	DB	's (X=%d Y=%d)', 00H
	ORG $+2
$SG226060 DB	'No muster point found, Naval operation aborting, Target '
	DB	'was, X: %d, Y: %d', 00H
	ORG $+6
$SG226832 DB	'Not at target but can no longer settle here. Target was '
	DB	'(X=%d Y=%d)', 00H
$SG226837 DB	'City founded, At X=%d, At Y=%d', 00H
	ORG $+5
$SG226841 DB	'At target but can no longer settle here. Target was (X=%'
	DB	'd Y=%d)', 00H
$SG226995 DB	'City nuked, At X=%d, At Y=%d', 00H
CONST	ENDS
;	COMDAT ?NO_TURN@CvMinorCivQuest@@2HB
CONST	SEGMENT
?NO_TURN@CvMinorCivQuest@@2HB DD 0ffffffffH		; CvMinorCivQuest::NO_TURN
CONST	ENDS
;	COMDAT ?NO_QUEST_DATA@CvMinorCivQuest@@2HB
CONST	SEGMENT
?NO_QUEST_DATA@CvMinorCivQuest@@2HB DD 0ffffffffH	; CvMinorCivQuest::NO_QUEST_DATA
CONST	ENDS
PUBLIC	?wrapCoordDifference@@YAHHI_N@Z			; wrapCoordDifference
; Function compile flags: /Ogtpy
; File c:\users\enormousapplepie\documents\github\lekmod\lekmod_dll\cvgamecoredll_expansion2\cvgamecoreutils.h
;	COMDAT ?wrapCoordDifference@@YAHHI_N@Z
_TEXT	SEGMENT
_iDiff$ = 8						; size = 4
_uiRange$ = 12						; size = 4
_bWrap$ = 16						; size = 1
?wrapCoordDifference@@YAHHI_N@Z PROC			; wrapCoordDifference, COMDAT

; 57   : 	if(bWrap)

	cmp	BYTE PTR _bWrap$[esp-4], 0
	mov	eax, DWORD PTR _iDiff$[esp-4]
	je	SHORT $LN5@wrapCoordD

; 58   : 	{
; 59   : 		if(iDiff > (int)(uiRange >> 1))		// Using an unsigned int so we can safely assume that value >> 1 == value / 2

	mov	edx, DWORD PTR _uiRange$[esp-4]
	mov	ecx, edx
	shr	ecx, 1
	cmp	eax, ecx
	jle	SHORT $LN3@wrapCoordD

; 60   : 		{
; 61   : 			return (iDiff - (int)uiRange);

	sub	eax, edx

; 66   : 		}
; 67   : 	}
; 68   : 
; 69   : 	return iDiff;
; 70   : }

	ret	0
$LN3@wrapCoordD:

; 62   : 		}
; 63   : 		else if(iDiff < -(int)(uiRange >> 1))

	neg	ecx
	cmp	eax, ecx
	jge	SHORT $LN5@wrapCoordD

; 64   : 		{
; 65   : 			return (iDiff + (int)uiRange);

	add	eax, edx
$LN5@wrapCoordD:

; 66   : 		}
; 67   : 	}
; 68   : 
; 69   : 	return iDiff;
; 70   : }

	ret	0
?wrapCoordDifference@@YAHHI_N@Z ENDP			; wrapCoordDifference
_TEXT	ENDS
PUBLIC	?xToHexspaceX@@YAHHH@Z				; xToHexspaceX
; Function compile flags: /Ogtpy
;	COMDAT ?xToHexspaceX@@YAHHH@Z
_TEXT	SEGMENT
_iX$ = 8						; size = 4
_iY$ = 12						; size = 4
?xToHexspaceX@@YAHHH@Z PROC				; xToHexspaceX, COMDAT

; 86   : 	return iX - ((iY >= 0) ? (iY>>1) : ((iY - 1)/2));

	mov	ecx, DWORD PTR _iY$[esp-4]
	test	ecx, ecx
	jge	SHORT $LN5@xToHexspac
	lea	eax, DWORD PTR [ecx-1]
	cdq
	sub	eax, edx
	mov	ecx, eax
$LN5@xToHexspac:
	mov	eax, DWORD PTR _iX$[esp-4]
	sar	ecx, 1
	sub	eax, ecx

; 87   : }

	ret	0
?xToHexspaceX@@YAHHH@Z ENDP				; xToHexspaceX
_TEXT	ENDS
PUBLIC	?hexspaceXToX@@YAHHH@Z				; hexspaceXToX
; Function compile flags: /Ogtpy
;	COMDAT ?hexspaceXToX@@YAHHH@Z
_TEXT	SEGMENT
_iHexspaceX$ = 8					; size = 4
_iHexspaceY$ = 12					; size = 4
?hexspaceXToX@@YAHHH@Z PROC				; hexspaceXToX, COMDAT

; 91   : 	return iHexspaceX + ((iHexspaceY >= 0) ? (iHexspaceY>>1) : ((iHexspaceY - 1)/2));

	mov	eax, DWORD PTR _iHexspaceY$[esp-4]
	test	eax, eax
	jl	SHORT $LN3@hexspaceXT
	mov	ecx, DWORD PTR _iHexspaceX$[esp-4]
	sar	eax, 1
	add	eax, ecx

; 92   : }

	ret	0
$LN3@hexspaceXT:

; 91   : 	return iHexspaceX + ((iHexspaceY >= 0) ? (iHexspaceY>>1) : ((iHexspaceY - 1)/2));

	dec	eax
	cdq
	sub	eax, edx
	mov	edx, DWORD PTR _iHexspaceX$[esp-4]
	sar	eax, 1
	add	eax, edx

; 92   : }

	ret	0
?hexspaceXToX@@YAHHH@Z ENDP				; hexspaceXToX
_TEXT	ENDS
PUBLIC	?GetID@CvAIOperation@@QBEHXZ			; CvAIOperation::GetID
; Function compile flags: /Ogtpy
; File c:\users\enormousapplepie\documents\github\lekmod\lekmod_dll\cvgamecoredll_expansion2\cvaioperation.cpp
;	COMDAT ?GetID@CvAIOperation@@QBEHXZ
_TEXT	SEGMENT
?GetID@CvAIOperation@@QBEHXZ PROC			; CvAIOperation::GetID, COMDAT
; _this$ = ecx

; 125  : 	return m_iID;

	mov	eax, DWORD PTR [ecx+52]

; 126  : }

	ret	0
?GetID@CvAIOperation@@QBEHXZ ENDP			; CvAIOperation::GetID
_TEXT	ENDS
PUBLIC	?SetID@CvAIOperation@@QAEXH@Z			; CvAIOperation::SetID
; Function compile flags: /Ogtpy
;	COMDAT ?SetID@CvAIOperation@@QAEXH@Z
_TEXT	SEGMENT
_iID$ = 8						; size = 4
?SetID@CvAIOperation@@QAEXH@Z PROC			; CvAIOperation::SetID, COMDAT
; _this$ = ecx

; 131  : 	m_iID = iID;

	mov	eax, DWORD PTR _iID$[esp-4]
	mov	DWORD PTR [ecx+52], eax

; 132  : }

	ret	4
?SetID@CvAIOperation@@QAEXH@Z ENDP			; CvAIOperation::SetID
_TEXT	ENDS
PUBLIC	?SetOwner@CvAIOperation@@QAEXW4PlayerTypes@@@Z	; CvAIOperation::SetOwner
; Function compile flags: /Ogtpy
;	COMDAT ?SetOwner@CvAIOperation@@QAEXW4PlayerTypes@@@Z
_TEXT	SEGMENT
_ePlayer$ = 8						; size = 4
?SetOwner@CvAIOperation@@QAEXW4PlayerTypes@@@Z PROC	; CvAIOperation::SetOwner, COMDAT
; _this$ = ecx

; 137  : 	m_eOwner = ePlayer;

	mov	eax, DWORD PTR _ePlayer$[esp-4]
	mov	DWORD PTR [ecx+72], eax

; 138  : }

	ret	4
?SetOwner@CvAIOperation@@QAEXW4PlayerTypes@@@Z ENDP	; CvAIOperation::SetOwner
_TEXT	ENDS
PUBLIC	?GetEnemy@CvAIOperation@@QBE?AW4PlayerTypes@@XZ	; CvAIOperation::GetEnemy
; Function compile flags: /Ogtpy
;	COMDAT ?GetEnemy@CvAIOperation@@QBE?AW4PlayerTypes@@XZ
_TEXT	SEGMENT
?GetEnemy@CvAIOperation@@QBE?AW4PlayerTypes@@XZ PROC	; CvAIOperation::GetEnemy, COMDAT
; _this$ = ecx

; 143  : 	return m_eEnemy;

	mov	eax, DWORD PTR [ecx+76]

; 144  : }

	ret	0
?GetEnemy@CvAIOperation@@QBE?AW4PlayerTypes@@XZ ENDP	; CvAIOperation::GetEnemy
_TEXT	ENDS
PUBLIC	?SetEnemy@CvAIOperation@@QAEXW4PlayerTypes@@@Z	; CvAIOperation::SetEnemy
; Function compile flags: /Ogtpy
;	COMDAT ?SetEnemy@CvAIOperation@@QAEXW4PlayerTypes@@@Z
_TEXT	SEGMENT
_eEnemy$ = 8						; size = 4
?SetEnemy@CvAIOperation@@QAEXW4PlayerTypes@@@Z PROC	; CvAIOperation::SetEnemy, COMDAT
; _this$ = ecx

; 149  : 	m_eEnemy = eEnemy;

	mov	eax, DWORD PTR _eEnemy$[esp-4]
	mov	DWORD PTR [ecx+76], eax

; 150  : }

	ret	4
?SetEnemy@CvAIOperation@@QAEXW4PlayerTypes@@@Z ENDP	; CvAIOperation::SetEnemy
_TEXT	ENDS
PUBLIC	?GetDefaultArea@CvAIOperation@@QBEHXZ		; CvAIOperation::GetDefaultArea
; Function compile flags: /Ogtpy
;	COMDAT ?GetDefaultArea@CvAIOperation@@QBEHXZ
_TEXT	SEGMENT
?GetDefaultArea@CvAIOperation@@QBEHXZ PROC		; CvAIOperation::GetDefaultArea, COMDAT
; _this$ = ecx

; 155  : 	return m_iDefaultArea;

	mov	eax, DWORD PTR [ecx+64]

; 156  : }

	ret	0
?GetDefaultArea@CvAIOperation@@QBEHXZ ENDP		; CvAIOperation::GetDefaultArea
_TEXT	ENDS
PUBLIC	?SetDefaultArea@CvAIOperation@@QAEXH@Z		; CvAIOperation::SetDefaultArea
; Function compile flags: /Ogtpy
;	COMDAT ?SetDefaultArea@CvAIOperation@@QAEXH@Z
_TEXT	SEGMENT
_iDefaultArea$ = 8					; size = 4
?SetDefaultArea@CvAIOperation@@QAEXH@Z PROC		; CvAIOperation::SetDefaultArea, COMDAT
; _this$ = ecx

; 161  : 	m_iDefaultArea = iDefaultArea;

	mov	eax, DWORD PTR _iDefaultArea$[esp-4]
	mov	DWORD PTR [ecx+64], eax

; 162  : }

	ret	4
?SetDefaultArea@CvAIOperation@@QAEXH@Z ENDP		; CvAIOperation::SetDefaultArea
_TEXT	ENDS
PUBLIC	??_7bad_alloc@std@@6B@				; std::bad_alloc::`vftable'
PUBLIC	??0bad_alloc@std@@QAE@PBD@Z			; std::bad_alloc::bad_alloc
PUBLIC	??_R4bad_alloc@std@@6B@				; std::bad_alloc::`RTTI Complete Object Locator'
PUBLIC	??_R0?AVbad_alloc@std@@@8			; std::bad_alloc `RTTI Type Descriptor'
PUBLIC	??_R3bad_alloc@std@@8				; std::bad_alloc::`RTTI Class Hierarchy Descriptor'
PUBLIC	??_R2bad_alloc@std@@8				; std::bad_alloc::`RTTI Base Class Array'
PUBLIC	??_R1A@?0A@EA@bad_alloc@std@@8			; std::bad_alloc::`RTTI Base Class Descriptor at (0,-1,0,64)'
PUBLIC	??_R1A@?0A@EA@exception@std@@8			; std::exception::`RTTI Base Class Descriptor at (0,-1,0,64)'
PUBLIC	??_R0?AVexception@std@@@8			; std::exception `RTTI Type Descriptor'
PUBLIC	??_R3exception@std@@8				; std::exception::`RTTI Class Hierarchy Descriptor'
PUBLIC	??_R2exception@std@@8				; std::exception::`RTTI Base Class Array'
EXTRN	__imp_??0exception@std@@QAE@ABQBD@Z:PROC
EXTRN	??_7type_info@@6B@:QWORD			; type_info::`vftable'
EXTRN	??_Ebad_alloc@std@@UAEPAXI@Z:PROC		; std::bad_alloc::`vector deleting destructor'
EXTRN	?what@exception@std@@UBEPBDXZ:PROC		; std::exception::what
;	COMDAT ??_R2exception@std@@8
; File c:\program files (x86)\microsoft visual studio 9.0\vc\include\exception
rdata$r	SEGMENT
??_R2exception@std@@8 DD FLAT:??_R1A@?0A@EA@exception@std@@8 ; std::exception::`RTTI Base Class Array'
rdata$r	ENDS
;	COMDAT ??_R3exception@std@@8
rdata$r	SEGMENT
??_R3exception@std@@8 DD 00H				; std::exception::`RTTI Class Hierarchy Descriptor'
	DD	00H
	DD	01H
	DD	FLAT:??_R2exception@std@@8
rdata$r	ENDS
;	COMDAT ??_R0?AVexception@std@@@8
_DATA	SEGMENT
??_R0?AVexception@std@@@8 DD FLAT:??_7type_info@@6B@	; std::exception `RTTI Type Descriptor'
	DD	00H
	DB	'.?AVexception@std@@', 00H
_DATA	ENDS
;	COMDAT ??_R1A@?0A@EA@exception@std@@8
rdata$r	SEGMENT
??_R1A@?0A@EA@exception@std@@8 DD FLAT:??_R0?AVexception@std@@@8 ; std::exception::`RTTI Base Class Descriptor at (0,-1,0,64)'
	DD	00H
	DD	00H
	DD	0ffffffffH
	DD	00H
	DD	040H
	DD	FLAT:??_R3exception@std@@8
rdata$r	ENDS
;	COMDAT ??_R1A@?0A@EA@bad_alloc@std@@8
rdata$r	SEGMENT
??_R1A@?0A@EA@bad_alloc@std@@8 DD FLAT:??_R0?AVbad_alloc@std@@@8 ; std::bad_alloc::`RTTI Base Class Descriptor at (0,-1,0,64)'
	DD	01H
	DD	00H
	DD	0ffffffffH
	DD	00H
	DD	040H
	DD	FLAT:??_R3bad_alloc@std@@8
rdata$r	ENDS
;	COMDAT ??_R2bad_alloc@std@@8
rdata$r	SEGMENT
??_R2bad_alloc@std@@8 DD FLAT:??_R1A@?0A@EA@bad_alloc@std@@8 ; std::bad_alloc::`RTTI Base Class Array'
	DD	FLAT:??_R1A@?0A@EA@exception@std@@8
rdata$r	ENDS
;	COMDAT ??_R3bad_alloc@std@@8
rdata$r	SEGMENT
??_R3bad_alloc@std@@8 DD 00H				; std::bad_alloc::`RTTI Class Hierarchy Descriptor'
	DD	00H
	DD	02H
	DD	FLAT:??_R2bad_alloc@std@@8
rdata$r	ENDS
;	COMDAT ??_R0?AVbad_alloc@std@@@8
_DATA	SEGMENT
??_R0?AVbad_alloc@std@@@8 DD FLAT:??_7type_info@@6B@	; std::bad_alloc `RTTI Type Descriptor'
	DD	00H
	DB	'.?AVbad_alloc@std@@', 00H
_DATA	ENDS
;	COMDAT ??_R4bad_alloc@std@@6B@
rdata$r	SEGMENT
??_R4bad_alloc@std@@6B@ DD 00H				; std::bad_alloc::`RTTI Complete Object Locator'
	DD	00H
	DD	00H
	DD	FLAT:??_R0?AVbad_alloc@std@@@8
	DD	FLAT:??_R3bad_alloc@std@@8
rdata$r	ENDS
;	COMDAT ??_7bad_alloc@std@@6B@
CONST	SEGMENT
??_7bad_alloc@std@@6B@ DD FLAT:??_R4bad_alloc@std@@6B@	; std::bad_alloc::`vftable'
	DD	FLAT:??_Ebad_alloc@std@@UAEPAXI@Z
	DD	FLAT:?what@exception@std@@UBEPBDXZ
; Function compile flags: /Ogtpy
CONST	ENDS
;	COMDAT ??0bad_alloc@std@@QAE@PBD@Z
_TEXT	SEGMENT
__Message$ = 8						; size = 4
??0bad_alloc@std@@QAE@PBD@Z PROC			; std::bad_alloc::bad_alloc, COMDAT
; _this$ = ecx

; 371  : 		{	// construct from message string

	push	esi
	lea	eax, DWORD PTR __Message$[esp]
	push	eax
	mov	esi, ecx
	call	DWORD PTR __imp_??0exception@std@@QAE@ABQBD@Z
	mov	DWORD PTR [esi], OFFSET ??_7bad_alloc@std@@6B@

; 372  : 		}

	mov	eax, esi
	pop	esi
	ret	4
??0bad_alloc@std@@QAE@PBD@Z ENDP			; std::bad_alloc::bad_alloc
_TEXT	ENDS
PUBLIC	??1bad_alloc@std@@UAE@XZ			; std::bad_alloc::~bad_alloc
EXTRN	__imp_??1exception@std@@UAE@XZ:PROC
; Function compile flags: /Ogtpy
;	COMDAT ??1bad_alloc@std@@UAE@XZ
_TEXT	SEGMENT
??1bad_alloc@std@@UAE@XZ PROC				; std::bad_alloc::~bad_alloc, COMDAT
; _this$ = ecx

; 380  : 		{	// destroy the object

	mov	DWORD PTR [ecx], OFFSET ??_7bad_alloc@std@@6B@

; 381  : 		}

	jmp	DWORD PTR __imp_??1exception@std@@UAE@XZ
??1bad_alloc@std@@UAE@XZ ENDP				; std::bad_alloc::~bad_alloc
_TEXT	ENDS
EXTRN	??3@YAXPAX@Z:PROC				; operator delete
; Function compile flags: /Ogtpy
;	COMDAT ??_Gbad_alloc@std@@UAEPAXI@Z
_TEXT	SEGMENT
___flags$ = 8						; size = 4
??_Gbad_alloc@std@@UAEPAXI@Z PROC			; std::bad_alloc::`scalar deleting destructor', COMDAT
; _this$ = ecx
	push	esi
	mov	esi, ecx
	mov	DWORD PTR [esi], OFFSET ??_7bad_alloc@std@@6B@
	call	DWORD PTR __imp_??1exception@std@@UAE@XZ
	test	BYTE PTR ___flags$[esp], 1
	je	SHORT $LN6@scalar
	push	esi
	call	??3@YAXPAX@Z				; operator delete
	add	esp, 4
$LN6@scalar:
	mov	eax, esi
	pop	esi
	ret	4
??_Gbad_alloc@std@@UAEPAXI@Z ENDP			; std::bad_alloc::`scalar deleting destructor'
_TEXT	ENDS
PUBLIC	??2@YAPAXIPAX@Z					; operator new
; Function compile flags: /Ogtpy
; File c:\program files (x86)\microsoft visual studio 9.0\vc\include\new
;	COMDAT ??2@YAPAXIPAX@Z
_TEXT	SEGMENT
___formal$ = 8						; size = 4
__Where$ = 12						; size = 4
??2@YAPAXIPAX@Z PROC					; operator new, COMDAT

; 59   : 	return (_Where);

	mov	eax, DWORD PTR __Where$[esp-4]

; 60   : 	}

	ret	0
??2@YAPAXIPAX@Z ENDP					; operator new
_TEXT	ENDS
PUBLIC	??3@YAXPAX0@Z					; operator delete
; Function compile flags: /Ogtpy
;	COMDAT ??3@YAXPAX0@Z
_TEXT	SEGMENT
___formal$ = 8						; size = 4
___formal$ = 12						; size = 4
??3@YAXPAX0@Z PROC					; operator delete, COMDAT

; 64   : 	}

	ret	0
??3@YAXPAX0@Z ENDP					; operator delete
_TEXT	ENDS
PUBLIC	??_7logic_error@std@@6B@			; std::logic_error::`vftable'
PUBLIC	??0logic_error@std@@QAE@ABV?$basic_string@DU?$char_traits@D@std@@V?$allocator@D@2@@1@@Z ; std::logic_error::logic_error
PUBLIC	??_R4logic_error@std@@6B@			; std::logic_error::`RTTI Complete Object Locator'
PUBLIC	??_R0?AVlogic_error@std@@@8			; std::logic_error `RTTI Type Descriptor'
PUBLIC	??_R3logic_error@std@@8				; std::logic_error::`RTTI Class Hierarchy Descriptor'
PUBLIC	??_R2logic_error@std@@8				; std::logic_error::`RTTI Base Class Array'
PUBLIC	??_R1A@?0A@EA@logic_error@std@@8		; std::logic_error::`RTTI Base Class Descriptor at (0,-1,0,64)'
PUBLIC	?what@logic_error@std@@UBEPBDXZ			; std::logic_error::what
EXTRN	__imp_??0?$basic_string@DU?$char_traits@D@std@@V?$allocator@D@2@@std@@QAE@ABV01@@Z:PROC
EXTRN	__imp_??0exception@std@@QAE@XZ:PROC
EXTRN	___CxxFrameHandler3:PROC
EXTRN	??_Elogic_error@std@@UAEPAXI@Z:PROC		; std::logic_error::`vector deleting destructor'
;	COMDAT ??_R1A@?0A@EA@logic_error@std@@8
; File c:\program files (x86)\microsoft visual studio 9.0\vc\include\stdexcept
rdata$r	SEGMENT
??_R1A@?0A@EA@logic_error@std@@8 DD FLAT:??_R0?AVlogic_error@std@@@8 ; std::logic_error::`RTTI Base Class Descriptor at (0,-1,0,64)'
	DD	01H
	DD	00H
	DD	0ffffffffH
	DD	00H
	DD	040H
	DD	FLAT:??_R3logic_error@std@@8
rdata$r	ENDS
;	COMDAT ??_R2logic_error@std@@8
rdata$r	SEGMENT
??_R2logic_error@std@@8 DD FLAT:??_R1A@?0A@EA@logic_error@std@@8 ; std::logic_error::`RTTI Base Class Array'
	DD	FLAT:??_R1A@?0A@EA@exception@std@@8
rdata$r	ENDS
;	COMDAT ??_R3logic_error@std@@8
rdata$r	SEGMENT
??_R3logic_error@std@@8 DD 00H				; std::logic_error::`RTTI Class Hierarchy Descriptor'
	DD	00H
	DD	02H
	DD	FLAT:??_R2logic_error@std@@8
rdata$r	ENDS
;	COMDAT ??_R0?AVlogic_error@std@@@8
_DATA	SEGMENT
??_R0?AVlogic_error@std@@@8 DD FLAT:??_7type_info@@6B@	; std::logic_error `RTTI Type Descriptor'
	DD	00H
	DB	'.?AVlogic_error@std@@', 00H
_DATA	ENDS
;	COMDAT ??_R4logic_error@std@@6B@
rdata$r	SEGMENT
??_R4logic_error@std@@6B@ DD 00H			; std::logic_error::`RTTI Complete Object Locator'
	DD	00H
	DD	00H
	DD	FLAT:??_R0?AVlogic_error@std@@@8
	DD	FLAT:??_R3logic_error@std@@8
rdata$r	ENDS
;	COMDAT ??_7logic_error@std@@6B@
CONST	SEGMENT
??_7logic_error@std@@6B@ DD FLAT:??_R4logic_error@std@@6B@ ; std::logic_error::`vftable'
	DD	FLAT:??_Elogic_error@std@@UAEPAXI@Z
	DD	FLAT:?what@logic_error@std@@UBEPBDXZ
CONST	ENDS
;	COMDAT xdata$x
xdata$x	SEGMENT
__unwindtable$??0logic_error@std@@QAE@ABV?$basic_string@DU?$char_traits@D@std@@V?$allocator@D@2@@1@@Z DD 0ffffffffH
	DD	FLAT:__unwindfunclet$??0logic_error@std@@QAE@ABV?$basic_string@DU?$char_traits@D@std@@V?$allocator@D@2@@1@@Z$0
__ehfuncinfo$??0logic_error@std@@QAE@ABV?$basic_string@DU?$char_traits@D@std@@V?$allocator@D@2@@1@@Z DD 019930522H
	DD	01H
	DD	FLAT:__unwindtable$??0logic_error@std@@QAE@ABV?$basic_string@DU?$char_traits@D@std@@V?$allocator@D@2@@1@@Z
	DD	2 DUP(00H)
	DD	2 DUP(00H)
	DD	00H
	DD	01H
; Function compile flags: /Ogtpy
xdata$x	ENDS
;	COMDAT ??0logic_error@std@@QAE@ABV?$basic_string@DU?$char_traits@D@std@@V?$allocator@D@2@@1@@Z
_TEXT	SEGMENT
_this$ = -16						; size = 4
__$EHRec$ = -12						; size = 12
__Message$ = 8						; size = 4
??0logic_error@std@@QAE@ABV?$basic_string@DU?$char_traits@D@std@@V?$allocator@D@2@@1@@Z PROC ; std::logic_error::logic_error, COMDAT
; _this$ = ecx

; 26   : 		{	// construct from message string

	push	-1
	push	__ehhandler$??0logic_error@std@@QAE@ABV?$basic_string@DU?$char_traits@D@std@@V?$allocator@D@2@@1@@Z
	mov	eax, DWORD PTR fs:0
	push	eax
	mov	DWORD PTR fs:0, esp
	push	ecx
	push	esi
	mov	esi, ecx
	mov	DWORD PTR _this$[esp+20], esi
	call	DWORD PTR __imp_??0exception@std@@QAE@XZ
	mov	eax, DWORD PTR __Message$[esp+16]
	push	eax
	lea	ecx, DWORD PTR [esi+12]
	mov	DWORD PTR __$EHRec$[esp+32], 0
	mov	DWORD PTR [esi], OFFSET ??_7logic_error@std@@6B@
	call	DWORD PTR __imp_??0?$basic_string@DU?$char_traits@D@std@@V?$allocator@D@2@@std@@QAE@ABV01@@Z

; 27   : 		}

	mov	ecx, DWORD PTR __$EHRec$[esp+20]
	mov	eax, esi
	pop	esi
	mov	DWORD PTR fs:0, ecx
	add	esp, 16					; 00000010H
	ret	4
_TEXT	ENDS
;	COMDAT text$x
text$x	SEGMENT
__unwindfunclet$??0logic_error@std@@QAE@ABV?$basic_string@DU?$char_traits@D@std@@V?$allocator@D@2@@1@@Z$0:
	mov	ecx, DWORD PTR _this$[ebp]
	jmp	DWORD PTR __imp_??1exception@std@@UAE@XZ
__ehhandler$??0logic_error@std@@QAE@ABV?$basic_string@DU?$char_traits@D@std@@V?$allocator@D@2@@1@@Z:
	mov	eax, OFFSET __ehfuncinfo$??0logic_error@std@@QAE@ABV?$basic_string@DU?$char_traits@D@std@@V?$allocator@D@2@@1@@Z
	jmp	___CxxFrameHandler3
text$x	ENDS
??0logic_error@std@@QAE@ABV?$basic_string@DU?$char_traits@D@std@@V?$allocator@D@2@@1@@Z ENDP ; std::logic_error::logic_error
PUBLIC	??1logic_error@std@@UAE@XZ			; std::logic_error::~logic_error
EXTRN	__imp_??1?$basic_string@DU?$char_traits@D@std@@V?$allocator@D@2@@std@@QAE@XZ:PROC
; Function compile flags: /Ogtpy
;	COMDAT ??1logic_error@std@@UAE@XZ
_TEXT	SEGMENT
??1logic_error@std@@UAE@XZ PROC				; std::logic_error::~logic_error, COMDAT
; _this$ = ecx

; 30   : 		{	// destroy the object

	push	esi
	mov	esi, ecx

; 31   : 		}

	lea	ecx, DWORD PTR [esi+12]
	mov	DWORD PTR [esi], OFFSET ??_7logic_error@std@@6B@
	call	DWORD PTR __imp_??1?$basic_string@DU?$char_traits@D@std@@V?$allocator@D@2@@std@@QAE@XZ
	mov	ecx, esi
	pop	esi
	jmp	DWORD PTR __imp_??1exception@std@@UAE@XZ
??1logic_error@std@@UAE@XZ ENDP				; std::logic_error::~logic_error
_TEXT	ENDS
EXTRN	__imp_?c_str@?$basic_string@DU?$char_traits@D@std@@V?$allocator@D@2@@std@@QBEPBDXZ:PROC
; Function compile flags: /Ogtpy
;	COMDAT ?what@logic_error@std@@UBEPBDXZ
_TEXT	SEGMENT
?what@logic_error@std@@UBEPBDXZ PROC			; std::logic_error::what, COMDAT
; _this$ = ecx

; 35   : 		return (_Str.c_str());

	add	ecx, 12					; 0000000cH
	jmp	DWORD PTR __imp_?c_str@?$basic_string@DU?$char_traits@D@std@@V?$allocator@D@2@@std@@QBEPBDXZ
?what@logic_error@std@@UBEPBDXZ ENDP			; std::logic_error::what
; Function compile flags: /Ogtpy
_TEXT	ENDS
;	COMDAT ??_Glogic_error@std@@UAEPAXI@Z
_TEXT	SEGMENT
___flags$ = 8						; size = 4
??_Glogic_error@std@@UAEPAXI@Z PROC			; std::logic_error::`scalar deleting destructor', COMDAT
; _this$ = ecx
	push	esi
	mov	esi, ecx
	lea	ecx, DWORD PTR [esi+12]
	mov	DWORD PTR [esi], OFFSET ??_7logic_error@std@@6B@
	call	DWORD PTR __imp_??1?$basic_string@DU?$char_traits@D@std@@V?$allocator@D@2@@std@@QAE@XZ
	mov	ecx, esi
	call	DWORD PTR __imp_??1exception@std@@UAE@XZ
	test	BYTE PTR ___flags$[esp], 1
	je	SHORT $LN6@scalar@2
	push	esi
	call	??3@YAXPAX@Z				; operator delete
	add	esp, 4
$LN6@scalar@2:
	mov	eax, esi
	pop	esi
	ret	4
??_Glogic_error@std@@UAEPAXI@Z ENDP			; std::logic_error::`scalar deleting destructor'
_TEXT	ENDS
PUBLIC	??_7length_error@std@@6B@			; std::length_error::`vftable'
PUBLIC	??0length_error@std@@QAE@ABV?$basic_string@DU?$char_traits@D@std@@V?$allocator@D@2@@1@@Z ; std::length_error::length_error
PUBLIC	??_R4length_error@std@@6B@			; std::length_error::`RTTI Complete Object Locator'
PUBLIC	??_R0?AVlength_error@std@@@8			; std::length_error `RTTI Type Descriptor'
PUBLIC	??_R3length_error@std@@8			; std::length_error::`RTTI Class Hierarchy Descriptor'
PUBLIC	??_R2length_error@std@@8			; std::length_error::`RTTI Base Class Array'
PUBLIC	??_R1A@?0A@EA@length_error@std@@8		; std::length_error::`RTTI Base Class Descriptor at (0,-1,0,64)'
EXTRN	??_Elength_error@std@@UAEPAXI@Z:PROC		; std::length_error::`vector deleting destructor'
;	COMDAT ??_R1A@?0A@EA@length_error@std@@8
rdata$r	SEGMENT
??_R1A@?0A@EA@length_error@std@@8 DD FLAT:??_R0?AVlength_error@std@@@8 ; std::length_error::`RTTI Base Class Descriptor at (0,-1,0,64)'
	DD	02H
	DD	00H
	DD	0ffffffffH
	DD	00H
	DD	040H
	DD	FLAT:??_R3length_error@std@@8
rdata$r	ENDS
;	COMDAT ??_R2length_error@std@@8
rdata$r	SEGMENT
??_R2length_error@std@@8 DD FLAT:??_R1A@?0A@EA@length_error@std@@8 ; std::length_error::`RTTI Base Class Array'
	DD	FLAT:??_R1A@?0A@EA@logic_error@std@@8
	DD	FLAT:??_R1A@?0A@EA@exception@std@@8
rdata$r	ENDS
;	COMDAT ??_R3length_error@std@@8
rdata$r	SEGMENT
??_R3length_error@std@@8 DD 00H				; std::length_error::`RTTI Class Hierarchy Descriptor'
	DD	00H
	DD	03H
	DD	FLAT:??_R2length_error@std@@8
rdata$r	ENDS
;	COMDAT ??_R0?AVlength_error@std@@@8
_DATA	SEGMENT
??_R0?AVlength_error@std@@@8 DD FLAT:??_7type_info@@6B@	; std::length_error `RTTI Type Descriptor'
	DD	00H
	DB	'.?AVlength_error@std@@', 00H
_DATA	ENDS
;	COMDAT ??_R4length_error@std@@6B@
rdata$r	SEGMENT
??_R4length_error@std@@6B@ DD 00H			; std::length_error::`RTTI Complete Object Locator'
	DD	00H
	DD	00H
	DD	FLAT:??_R0?AVlength_error@std@@@8
	DD	FLAT:??_R3length_error@std@@8
rdata$r	ENDS
;	COMDAT ??_7length_error@std@@6B@
CONST	SEGMENT
??_7length_error@std@@6B@ DD FLAT:??_R4length_error@std@@6B@ ; std::length_error::`vftable'
	DD	FLAT:??_Elength_error@std@@UAEPAXI@Z
	DD	FLAT:?what@logic_error@std@@UBEPBDXZ
; Function compile flags: /Ogtpy
CONST	ENDS
;	COMDAT ??0length_error@std@@QAE@ABV?$basic_string@DU?$char_traits@D@std@@V?$allocator@D@2@@1@@Z
_TEXT	SEGMENT
__Message$ = 8						; size = 4
??0length_error@std@@QAE@ABV?$basic_string@DU?$char_traits@D@std@@V?$allocator@D@2@@1@@Z PROC ; std::length_error::length_error, COMDAT
; _this$ = ecx

; 105  : 		{	// construct from message string

	mov	eax, DWORD PTR __Message$[esp-4]
	push	esi
	push	eax
	mov	esi, ecx
	call	??0logic_error@std@@QAE@ABV?$basic_string@DU?$char_traits@D@std@@V?$allocator@D@2@@1@@Z ; std::logic_error::logic_error
	mov	DWORD PTR [esi], OFFSET ??_7length_error@std@@6B@

; 106  : 		}

	mov	eax, esi
	pop	esi
	ret	4
??0length_error@std@@QAE@ABV?$basic_string@DU?$char_traits@D@std@@V?$allocator@D@2@@1@@Z ENDP ; std::length_error::length_error
_TEXT	ENDS
PUBLIC	??1length_error@std@@UAE@XZ			; std::length_error::~length_error
; Function compile flags: /Ogtpy
;	COMDAT ??1length_error@std@@UAE@XZ
_TEXT	SEGMENT
??1length_error@std@@UAE@XZ PROC			; std::length_error::~length_error, COMDAT
; _this$ = ecx

; 109  : 		{	// destroy the object

	push	esi
	mov	esi, ecx

; 110  : 		}

	lea	ecx, DWORD PTR [esi+12]
	mov	DWORD PTR [esi], OFFSET ??_7logic_error@std@@6B@
	call	DWORD PTR __imp_??1?$basic_string@DU?$char_traits@D@std@@V?$allocator@D@2@@std@@QAE@XZ
	mov	ecx, esi
	pop	esi
	jmp	DWORD PTR __imp_??1exception@std@@UAE@XZ
??1length_error@std@@UAE@XZ ENDP			; std::length_error::~length_error
; Function compile flags: /Ogtpy
_TEXT	ENDS
;	COMDAT ??_Glength_error@std@@UAEPAXI@Z
_TEXT	SEGMENT
___flags$ = 8						; size = 4
??_Glength_error@std@@UAEPAXI@Z PROC			; std::length_error::`scalar deleting destructor', COMDAT
; _this$ = ecx
	push	esi
	mov	esi, ecx
	lea	ecx, DWORD PTR [esi+12]
	mov	DWORD PTR [esi], OFFSET ??_7logic_error@std@@6B@
	call	DWORD PTR __imp_??1?$basic_string@DU?$char_traits@D@std@@V?$allocator@D@2@@std@@QAE@XZ
	mov	ecx, esi
	call	DWORD PTR __imp_??1exception@std@@UAE@XZ
	test	BYTE PTR ___flags$[esp], 1
	je	SHORT $LN8@scalar@3
	push	esi
	call	??3@YAXPAX@Z				; operator delete
	add	esp, 4
$LN8@scalar@3:
	mov	eax, esi
	pop	esi
	ret	4
??_Glength_error@std@@UAEPAXI@Z ENDP			; std::length_error::`scalar deleting destructor'
_TEXT	ENDS
PUBLIC	?SetToAbort@CvAIOperation@@UAEXW4AIOperationAbortReason@@@Z ; CvAIOperation::SetToAbort
; Function compile flags: /Ogtpy
; File c:\users\enormousapplepie\documents\github\lekmod\lekmod_dll\cvgamecoredll_expansion2\cvaioperation.cpp
;	COMDAT ?SetToAbort@CvAIOperation@@UAEXW4AIOperationAbortReason@@@Z
_TEXT	SEGMENT
_eReason$ = 8						; size = 4
?SetToAbort@CvAIOperation@@UAEXW4AIOperationAbortReason@@@Z PROC ; CvAIOperation::SetToAbort, COMDAT
; _this$ = ecx

; 836  : 	m_eCurrentState = AI_OPERATION_STATE_ABORTED;
; 837  : 	m_eAbortReason = eReason;

	mov	eax, DWORD PTR _eReason$[esp-4]
	mov	DWORD PTR [ecx+56], 0
	mov	DWORD PTR [ecx+60], eax

; 838  : }

	ret	4
?SetToAbort@CvAIOperation@@UAEXW4AIOperationAbortReason@@@Z ENDP ; CvAIOperation::SetToAbort
_TEXT	ENDS
PUBLIC	?DoDelayedDeath@CvAIOperation@@UAE_NXZ		; CvAIOperation::DoDelayedDeath
; Function compile flags: /Ogtpy
;	COMDAT ?DoDelayedDeath@CvAIOperation@@UAE_NXZ
_TEXT	SEGMENT
?DoDelayedDeath@CvAIOperation@@UAE_NXZ PROC		; CvAIOperation::DoDelayedDeath, COMDAT
; _this$ = ecx

; 864  : {

	push	esi
	mov	esi, ecx

; 865  : 	if(ShouldAbort())

	mov	eax, DWORD PTR [esi]
	mov	edx, DWORD PTR [eax+72]
	call	edx
	test	al, al
	je	SHORT $LN3@DoDelayedD

; 866  : 	{
; 867  : 		if (m_eCurrentState == AI_OPERATION_STATE_SUCCESSFUL_FINISH)

	cmp	DWORD PTR [esi+56], 5

; 868  : 		{
; 869  : 			Kill(AI_ABORT_SUCCESS);

	mov	eax, DWORD PTR [esi]
	mov	edx, DWORD PTR [eax+80]
	mov	ecx, esi
	jne	SHORT $LN2@DoDelayedD
	push	0

; 870  : 		}
; 871  : 		else
; 872  : 		{
; 873  : 			Kill(AI_ABORT_KILLED);

	call	edx

; 874  : 		}
; 875  : 		return true;

	mov	al, 1
	pop	esi

; 879  : }

	ret	0
$LN2@DoDelayedD:

; 870  : 		}
; 871  : 		else
; 872  : 		{
; 873  : 			Kill(AI_ABORT_KILLED);

	push	11					; 0000000bH
	call	edx

; 874  : 		}
; 875  : 		return true;

	mov	al, 1
	pop	esi

; 879  : }

	ret	0
$LN3@DoDelayedD:

; 876  : 	}
; 877  : 
; 878  : 	return false;

	xor	al, al
	pop	esi

; 879  : }

	ret	0
?DoDelayedDeath@CvAIOperation@@UAE_NXZ ENDP		; CvAIOperation::DoDelayedDeath
_TEXT	ENDS
PUBLIC	??0CvOperationSearchUnit@@QAE@PAVCvUnit@@H@Z	; CvOperationSearchUnit::CvOperationSearchUnit
; Function compile flags: /Ogtpy
;	COMDAT ??0CvOperationSearchUnit@@QAE@PAVCvUnit@@H@Z
_TEXT	SEGMENT
_pkUnit$ = 8						; size = 4
_iDistance$ = 12					; size = 4
??0CvOperationSearchUnit@@QAE@PAVCvUnit@@H@Z PROC	; CvOperationSearchUnit::CvOperationSearchUnit, COMDAT
; _this$ = ecx

; 1590 : 	CvOperationSearchUnit(CvUnit* pkUnit, int iDistance) { m_pkUnit = pkUnit; m_iDistance = iDistance; };

	mov	edx, DWORD PTR _iDistance$[esp-4]
	mov	eax, ecx
	mov	ecx, DWORD PTR _pkUnit$[esp-4]
	mov	DWORD PTR [eax+4], ecx
	mov	DWORD PTR [eax], edx
	ret	8
??0CvOperationSearchUnit@@QAE@PAVCvUnit@@H@Z ENDP	; CvOperationSearchUnit::CvOperationSearchUnit
_TEXT	ENDS
PUBLIC	?GetUnit@CvOperationSearchUnit@@QBEPAVCvUnit@@XZ ; CvOperationSearchUnit::GetUnit
; Function compile flags: /Ogtpy
;	COMDAT ?GetUnit@CvOperationSearchUnit@@QBEPAVCvUnit@@XZ
_TEXT	SEGMENT
?GetUnit@CvOperationSearchUnit@@QBEPAVCvUnit@@XZ PROC	; CvOperationSearchUnit::GetUnit, COMDAT
; _this$ = ecx

; 1604 : 		return m_pkUnit;

	mov	eax, DWORD PTR [ecx+4]

; 1605 : 	};

	ret	0
?GetUnit@CvOperationSearchUnit@@QBEPAVCvUnit@@XZ ENDP	; CvOperationSearchUnit::GetUnit
_TEXT	ENDS
PUBLIC	?GetDistance@CvOperationSearchUnit@@QBEHXZ	; CvOperationSearchUnit::GetDistance
; Function compile flags: /Ogtpy
;	COMDAT ?GetDistance@CvOperationSearchUnit@@QBEHXZ
_TEXT	SEGMENT
?GetDistance@CvOperationSearchUnit@@QBEHXZ PROC		; CvOperationSearchUnit::GetDistance, COMDAT
; _this$ = ecx

; 1612 : 		return m_iDistance;

	mov	eax, DWORD PTR [ecx]

; 1613 : 	};

	ret	0
?GetDistance@CvOperationSearchUnit@@QBEHXZ ENDP		; CvOperationSearchUnit::GetDistance
_TEXT	ENDS
PUBLIC	?FindBestTarget@CvAIOperationBasicCityAttack@@MAEPAVCvPlot@@XZ ; CvAIOperationBasicCityAttack::FindBestTarget
; Function compile flags: /Ogtpy
;	COMDAT ?FindBestTarget@CvAIOperationBasicCityAttack@@MAEPAVCvPlot@@XZ
_TEXT	SEGMENT
?FindBestTarget@CvAIOperationBasicCityAttack@@MAEPAVCvPlot@@XZ PROC ; CvAIOperationBasicCityAttack::FindBestTarget, COMDAT
; _this$ = ecx

; 2293 : 	CvAssertMsg(false, "Obsolete function called CvAIOperationBasicCityAttack::FindBestTarget()");
; 2294 : 
; 2295 : 	return NULL;

	xor	eax, eax

; 2296 : }

	ret	0
?FindBestTarget@CvAIOperationBasicCityAttack@@MAEPAVCvPlot@@XZ ENDP ; CvAIOperationBasicCityAttack::FindBestTarget
_TEXT	ENDS
PUBLIC	?UnitWasRemoved@CvAIEscortedOperation@@UAEXHH@Z	; CvAIEscortedOperation::UnitWasRemoved
; Function compile flags: /Ogtpy
;	COMDAT ?UnitWasRemoved@CvAIEscortedOperation@@UAEXHH@Z
_TEXT	SEGMENT
___formal$ = 8						; size = 4
_iSlotID$ = 12						; size = 4
?UnitWasRemoved@CvAIEscortedOperation@@UAEXHH@Z PROC	; CvAIEscortedOperation::UnitWasRemoved, COMDAT
; _this$ = ecx

; 2953 : 	// Assumes civilian is in the first slot of the formation
; 2954 : 	if(iSlotID == 0)

	xor	eax, eax
	cmp	DWORD PTR _iSlotID$[esp-4], eax
	jne	SHORT $LN2@UnitWasRem

; 2955 : 	{
; 2956 : 		m_eCurrentState = AI_OPERATION_STATE_ABORTED;

	mov	DWORD PTR [ecx+56], eax

; 2957 : 		m_eAbortReason = AI_ABORT_LOST_CIVILIAN;

	mov	DWORD PTR [ecx+60], 8

; 2962 : 	}
; 2963 : }

	ret	8
$LN2@UnitWasRem:

; 2958 : 	}
; 2959 : 	else
; 2960 : 	{
; 2961 : 		m_bEscorted = false;

	mov	BYTE PTR [ecx+112], al

; 2962 : 	}
; 2963 : }

	ret	8
?UnitWasRemoved@CvAIEscortedOperation@@UAEXHH@Z ENDP	; CvAIEscortedOperation::UnitWasRemoved
_TEXT	ENDS
PUBLIC	?FindBestTarget@CvAIOperationPureNavalCityAttack@@MAEPAVCvPlot@@XZ ; CvAIOperationPureNavalCityAttack::FindBestTarget
; Function compile flags: /Ogtpy
;	COMDAT ?FindBestTarget@CvAIOperationPureNavalCityAttack@@MAEPAVCvPlot@@XZ
_TEXT	SEGMENT
?FindBestTarget@CvAIOperationPureNavalCityAttack@@MAEPAVCvPlot@@XZ PROC ; CvAIOperationPureNavalCityAttack::FindBestTarget, COMDAT
; _this$ = ecx

; 4756 : 	CvAssertMsg(false, "Obsolete function called CvAIOperationPureNavalCityAttack::FindBestTarget()");
; 4757 : 
; 4758 : 	return NULL;

	xor	eax, eax

; 4759 : }

	ret	0
?FindBestTarget@CvAIOperationPureNavalCityAttack@@MAEPAVCvPlot@@XZ ENDP ; CvAIOperationPureNavalCityAttack::FindBestTarget
_TEXT	ENDS
PUBLIC	?UnitWasRemoved@CvAINavalEscortedOperation@@UAEXHH@Z ; CvAINavalEscortedOperation::UnitWasRemoved
; Function compile flags: /Ogtpy
;	COMDAT ?UnitWasRemoved@CvAINavalEscortedOperation@@UAEXHH@Z
_TEXT	SEGMENT
___formal$ = 8						; size = 4
_iSlotID$ = 12						; size = 4
?UnitWasRemoved@CvAINavalEscortedOperation@@UAEXHH@Z PROC ; CvAINavalEscortedOperation::UnitWasRemoved, COMDAT
; _this$ = ecx

; 5185 : 	// Assumes civilian is in the first slot of the formation
; 5186 : 	if(iSlotID == 0)

	cmp	DWORD PTR _iSlotID$[esp-4], 0
	jne	SHORT $LN1@UnitWasRem@2

; 5187 : 	{
; 5188 : 		m_eCurrentState = AI_OPERATION_STATE_ABORTED;

	mov	DWORD PTR [ecx+56], 0

; 5189 : 		m_eAbortReason = AI_ABORT_LOST_CIVILIAN;

	mov	DWORD PTR [ecx+60], 8
$LN1@UnitWasRem@2:

; 5190 : 	}
; 5191 : }

	ret	8
?UnitWasRemoved@CvAINavalEscortedOperation@@UAEXHH@Z ENDP ; CvAINavalEscortedOperation::UnitWasRemoved
_TEXT	ENDS
PUBLIC	?FindBestTarget@CvAIOperationNavalAttack@@MAEPAVCvPlot@@XZ ; CvAIOperationNavalAttack::FindBestTarget
; Function compile flags: /Ogtpy
;	COMDAT ?FindBestTarget@CvAIOperationNavalAttack@@MAEPAVCvPlot@@XZ
_TEXT	SEGMENT
?FindBestTarget@CvAIOperationNavalAttack@@MAEPAVCvPlot@@XZ PROC ; CvAIOperationNavalAttack::FindBestTarget, COMDAT
; _this$ = ecx

; 5522 : 	CvAssertMsg(false, "Obsolete function called CvAIOperationNavalAttack::FindBestTarget()");
; 5523 : 
; 5524 : 	return NULL;

	xor	eax, eax

; 5525 : }

	ret	0
?FindBestTarget@CvAIOperationNavalAttack@@MAEPAVCvPlot@@XZ ENDP ; CvAIOperationNavalAttack::FindBestTarget
_TEXT	ENDS
PUBLIC	?GetGatherRangeForXUnits@OperationalAIHelpers@@YAHH@Z ; OperationalAIHelpers::GetGatherRangeForXUnits
; Function compile flags: /Ogtpy
;	COMDAT ?GetGatherRangeForXUnits@OperationalAIHelpers@@YAHH@Z
_TEXT	SEGMENT
_iTotalUnits$ = 8					; size = 4
?GetGatherRangeForXUnits@OperationalAIHelpers@@YAHH@Z PROC ; OperationalAIHelpers::GetGatherRangeForXUnits, COMDAT

; 5881 : 	int iRange = 0;
; 5882 : 
; 5883 : 	if(iTotalUnits <= 2)

	mov	eax, DWORD PTR _iTotalUnits$[esp-4]
	cmp	eax, 2
	jg	SHORT $LN6@GetGatherR

; 5884 : 	{
; 5885 : 		iRange = 1;

	mov	eax, 1

; 5892 : 	{
; 5893 : 		iRange = 3;
; 5894 : 	}
; 5895 : 	else
; 5896 : 	{
; 5897 : 		iRange = 4;
; 5898 : 	}
; 5899 : 
; 5900 : 	return iRange;
; 5901 : }

	ret	0
$LN6@GetGatherR:

; 5886 : 	}
; 5887 : 	else if(iTotalUnits <= 6)

	cmp	eax, 6
	jg	SHORT $LN4@GetGatherR

; 5888 : 	{
; 5889 : 		iRange = 2;

	mov	eax, 2

; 5892 : 	{
; 5893 : 		iRange = 3;
; 5894 : 	}
; 5895 : 	else
; 5896 : 	{
; 5897 : 		iRange = 4;
; 5898 : 	}
; 5899 : 
; 5900 : 	return iRange;
; 5901 : }

	ret	0
$LN4@GetGatherR:

; 5890 : 	}
; 5891 : 	else if(iTotalUnits <= 10)

	xor	ecx, ecx
	cmp	eax, 10					; 0000000aH
	setg	cl
	add	ecx, 3
	mov	eax, ecx

; 5892 : 	{
; 5893 : 		iRange = 3;
; 5894 : 	}
; 5895 : 	else
; 5896 : 	{
; 5897 : 		iRange = 4;
; 5898 : 	}
; 5899 : 
; 5900 : 	return iRange;
; 5901 : }

	ret	0
?GetGatherRangeForXUnits@OperationalAIHelpers@@YAHH@Z ENDP ; OperationalAIHelpers::GetGatherRangeForXUnits
_TEXT	ENDS
PUBLIC	??A?$vector@HV?$allocator@H@std@@@std@@QAEAAHI@Z ; std::vector<int,std::allocator<int> >::operator[]
; Function compile flags: /Ogtpy
; File c:\program files (x86)\microsoft visual studio 9.0\vc\include\vector
;	COMDAT ??A?$vector@HV?$allocator@H@std@@@std@@QAEAAHI@Z
_TEXT	SEGMENT
__Pos$ = 8						; size = 4
??A?$vector@HV?$allocator@H@std@@@std@@QAEAAHI@Z PROC	; std::vector<int,std::allocator<int> >::operator[], COMDAT
; _this$ = ecx

; 775  : 
; 776  :  #if _HAS_ITERATOR_DEBUGGING
; 777  : 		if (size() <= _Pos)
; 778  : 			{
; 779  : 			_DEBUG_ERROR("vector subscript out of range");
; 780  : 			_SCL_SECURE_OUT_OF_RANGE;
; 781  : 			}
; 782  :  #endif /* _HAS_ITERATOR_DEBUGGING */
; 783  : 		_SCL_SECURE_VALIDATE_RANGE(_Pos < size());
; 784  : 
; 785  : 		return (*(_Myfirst + _Pos));

	mov	eax, DWORD PTR [ecx+4]
	mov	ecx, DWORD PTR __Pos$[esp-4]
	lea	eax, DWORD PTR [eax+ecx*4]

; 786  : 		}

	ret	4
??A?$vector@HV?$allocator@H@std@@@std@@QAEAAHI@Z ENDP	; std::vector<int,std::allocator<int> >::operator[]
_TEXT	ENDS
PUBLIC	??A?$BaseVector@PAVCvAStarNode@@$00@@QAEAAPAVCvAStarNode@@I@Z ; BaseVector<CvAStarNode *,1>::operator[]
; Function compile flags: /Ogtpy
; File c:\users\enormousapplepie\documents\github\lekmod\lekmod_dll\fireplace\include\fireworks\ffastvector.h
;	COMDAT ??A?$BaseVector@PAVCvAStarNode@@$00@@QAEAAPAVCvAStarNode@@I@Z
_TEXT	SEGMENT
_ui$ = 8						; size = 4
??A?$BaseVector@PAVCvAStarNode@@$00@@QAEAAPAVCvAStarNode@@I@Z PROC ; BaseVector<CvAStarNode *,1>::operator[], COMDAT
; _this$ = ecx

; 129  : 		FAssert(ui < m_uiCurrSize);
; 130  : 		return m_pData[ui];

	mov	eax, DWORD PTR [ecx]
	mov	ecx, DWORD PTR _ui$[esp-4]
	lea	eax, DWORD PTR [eax+ecx*4]

; 131  : 	};

	ret	4
??A?$BaseVector@PAVCvAStarNode@@$00@@QAEAAPAVCvAStarNode@@I@Z ENDP ; BaseVector<CvAStarNode *,1>::operator[]
_TEXT	ENDS
PUBLIC	?size@?$BaseVector@PAVCvAStarNode@@$00@@QBEIXZ	; BaseVector<CvAStarNode *,1>::size
; Function compile flags: /Ogtpy
;	COMDAT ?size@?$BaseVector@PAVCvAStarNode@@$00@@QBEIXZ
_TEXT	SEGMENT
?size@?$BaseVector@PAVCvAStarNode@@$00@@QBEIXZ PROC	; BaseVector<CvAStarNode *,1>::size, COMDAT
; _this$ = ecx

; 169  : 		return m_uiCurrSize;

	mov	eax, DWORD PTR [ecx+4]

; 170  : 	};

	ret	0
?size@?$BaseVector@PAVCvAStarNode@@$00@@QBEIXZ ENDP	; BaseVector<CvAStarNode *,1>::size
_TEXT	ENDS
PUBLIC	??C?$FObjectHandle@VCvUnit@@@@QAEPAVCvUnit@@XZ	; FObjectHandle<CvUnit>::operator->
; Function compile flags: /Ogtpy
; File c:\users\enormousapplepie\documents\github\lekmod\lekmod_dll\fireplace\include\fireworks\fobjecthandle.h
;	COMDAT ??C?$FObjectHandle@VCvUnit@@@@QAEPAVCvUnit@@XZ
_TEXT	SEGMENT
??C?$FObjectHandle@VCvUnit@@@@QAEPAVCvUnit@@XZ PROC	; FObjectHandle<CvUnit>::operator->, COMDAT
; _this$ = ecx

; 88   : 		return m_target;

	mov	eax, DWORD PTR [ecx]

; 89   : 	}

	ret	0
??C?$FObjectHandle@VCvUnit@@@@QAEPAVCvUnit@@XZ ENDP	; FObjectHandle<CvUnit>::operator->
_TEXT	ENDS
PUBLIC	??B?$FObjectHandle@VCvUnit@@@@QBE_NXZ		; FObjectHandle<CvUnit>::operator bool
; Function compile flags: /Ogtpy
;	COMDAT ??B?$FObjectHandle@VCvUnit@@@@QBE_NXZ
_TEXT	SEGMENT
??B?$FObjectHandle@VCvUnit@@@@QBE_NXZ PROC		; FObjectHandle<CvUnit>::operator bool, COMDAT
; _this$ = ecx

; 108  : 		return m_target != 0;

	xor	eax, eax
	cmp	DWORD PTR [ecx], eax
	setne	al

; 109  : 	}

	ret	0
??B?$FObjectHandle@VCvUnit@@@@QBE_NXZ ENDP		; FObjectHandle<CvUnit>::operator bool
_TEXT	ENDS
PUBLIC	??0?$FObjectHandle@VCvUnit@@@@QAE@XZ		; FObjectHandle<CvUnit>::FObjectHandle<CvUnit>
; Function compile flags: /Ogtpy
;	COMDAT ??0?$FObjectHandle@VCvUnit@@@@QAE@XZ
_TEXT	SEGMENT
??0?$FObjectHandle@VCvUnit@@@@QAE@XZ PROC		; FObjectHandle<CvUnit>::FObjectHandle<CvUnit>, COMDAT
; _this$ = ecx

; 215  : 	{

	mov	eax, ecx
	mov	DWORD PTR [eax], 0
	mov	BYTE PTR [eax+4], 0

; 216  : 		OBJECT_HANDLE_STACK;
; 217  : 	}

	ret	0
??0?$FObjectHandle@VCvUnit@@@@QAE@XZ ENDP		; FObjectHandle<CvUnit>::FObjectHandle<CvUnit>
_TEXT	ENDS
PUBLIC	?size@?$BaseVector@VCvOperationSearchUnit@@$00@@QBEIXZ ; BaseVector<CvOperationSearchUnit,1>::size
; Function compile flags: /Ogtpy
; File c:\users\enormousapplepie\documents\github\lekmod\lekmod_dll\fireplace\include\fireworks\ffastvector.h
;	COMDAT ?size@?$BaseVector@VCvOperationSearchUnit@@$00@@QBEIXZ
_TEXT	SEGMENT
?size@?$BaseVector@VCvOperationSearchUnit@@$00@@QBEIXZ PROC ; BaseVector<CvOperationSearchUnit,1>::size, COMDAT
; _this$ = ecx

; 169  : 		return m_uiCurrSize;

	mov	eax, DWORD PTR [ecx+4]

; 170  : 	};

	ret	0
?size@?$BaseVector@VCvOperationSearchUnit@@$00@@QBEIXZ ENDP ; BaseVector<CvOperationSearchUnit,1>::size
_TEXT	ENDS
PUBLIC	?begin@?$BaseVector@VCvOperationSearchUnit@@$00@@QAEPAVCvOperationSearchUnit@@XZ ; BaseVector<CvOperationSearchUnit,1>::begin
; Function compile flags: /Ogtpy
;	COMDAT ?begin@?$BaseVector@VCvOperationSearchUnit@@$00@@QAEPAVCvOperationSearchUnit@@XZ
_TEXT	SEGMENT
?begin@?$BaseVector@VCvOperationSearchUnit@@$00@@QAEPAVCvOperationSearchUnit@@XZ PROC ; BaseVector<CvOperationSearchUnit,1>::begin, COMDAT
; _this$ = ecx

; 194  :         return m_pData; 

	mov	eax, DWORD PTR [ecx]

; 195  :     };

	ret	0
?begin@?$BaseVector@VCvOperationSearchUnit@@$00@@QAEPAVCvOperationSearchUnit@@XZ ENDP ; BaseVector<CvOperationSearchUnit,1>::begin
_TEXT	ENDS
PUBLIC	?end@?$BaseVector@VCvOperationSearchUnit@@$00@@QAEPAVCvOperationSearchUnit@@XZ ; BaseVector<CvOperationSearchUnit,1>::end
; Function compile flags: /Ogtpy
;	COMDAT ?end@?$BaseVector@VCvOperationSearchUnit@@$00@@QAEPAVCvOperationSearchUnit@@XZ
_TEXT	SEGMENT
?end@?$BaseVector@VCvOperationSearchUnit@@$00@@QAEPAVCvOperationSearchUnit@@XZ PROC ; BaseVector<CvOperationSearchUnit,1>::end, COMDAT
; _this$ = ecx

; 197  :         return m_pData+m_uiCurrSize; 

	mov	eax, DWORD PTR [ecx+4]
	mov	ecx, DWORD PTR [ecx]
	lea	eax, DWORD PTR [ecx+eax*8]

; 198  :     };

	ret	0
?end@?$BaseVector@VCvOperationSearchUnit@@$00@@QAEPAVCvOperationSearchUnit@@XZ ENDP ; BaseVector<CvOperationSearchUnit,1>::end
_TEXT	ENDS
PUBLIC	?addTarget@?$DestructionNotification@V?$FObjectHandle@VCvUnit@@@@@@QAEXABV?$FObjectHandle@VCvUnit@@@@@Z ; DestructionNotification<FObjectHandle<CvUnit> >::addTarget
; Function compile flags: /Ogtpy
; File c:\users\enormousapplepie\documents\github\lekmod\lekmod_dll\fireplace\include\fireworks\fobjecthandle.h
;	COMDAT ?addTarget@?$DestructionNotification@V?$FObjectHandle@VCvUnit@@@@@@QAEXABV?$FObjectHandle@VCvUnit@@@@@Z
_TEXT	SEGMENT
_target$ = 8						; size = 4
?addTarget@?$DestructionNotification@V?$FObjectHandle@VCvUnit@@@@@@QAEXABV?$FObjectHandle@VCvUnit@@@@@Z PROC ; DestructionNotification<FObjectHandle<CvUnit> >::addTarget, COMDAT
; _this$ = ecx

; 52   : #ifdef TRACK_DESTRUCTION_NOTIFICATION
; 53   : 		m_targets.insert(&target);
; 54   : #endif
; 55   : 	}

	ret	4
?addTarget@?$DestructionNotification@V?$FObjectHandle@VCvUnit@@@@@@QAEXABV?$FObjectHandle@VCvUnit@@@@@Z ENDP ; DestructionNotification<FObjectHandle<CvUnit> >::addTarget
_TEXT	ENDS
PUBLIC	?removeTarget@?$DestructionNotification@V?$FObjectHandle@VCvUnit@@@@@@QAEXABV?$FObjectHandle@VCvUnit@@@@@Z ; DestructionNotification<FObjectHandle<CvUnit> >::removeTarget
; Function compile flags: /Ogtpy
;	COMDAT ?removeTarget@?$DestructionNotification@V?$FObjectHandle@VCvUnit@@@@@@QAEXABV?$FObjectHandle@VCvUnit@@@@@Z
_TEXT	SEGMENT
_target$ = 8						; size = 4
?removeTarget@?$DestructionNotification@V?$FObjectHandle@VCvUnit@@@@@@QAEXABV?$FObjectHandle@VCvUnit@@@@@Z PROC ; DestructionNotification<FObjectHandle<CvUnit> >::removeTarget, COMDAT
; _this$ = ecx

; 63   : #ifdef TRACK_DESTRUCTION_NOTIFICATION
; 64   : 		m_targets.erase(&target);
; 65   : #endif
; 66   : 	}

	ret	4
?removeTarget@?$DestructionNotification@V?$FObjectHandle@VCvUnit@@@@@@QAEXABV?$FObjectHandle@VCvUnit@@@@@Z ENDP ; DestructionNotification<FObjectHandle<CvUnit> >::removeTarget
_TEXT	ENDS
PUBLIC	?capacity@?$vector@UOperationSlot@@V?$allocator@UOperationSlot@@@std@@@std@@QBEIXZ ; std::vector<OperationSlot,std::allocator<OperationSlot> >::capacity
; Function compile flags: /Ogtpy
; File c:\program files (x86)\microsoft visual studio 9.0\vc\include\vector
;	COMDAT ?capacity@?$vector@UOperationSlot@@V?$allocator@UOperationSlot@@@std@@@std@@QBEIXZ
_TEXT	SEGMENT
?capacity@?$vector@UOperationSlot@@V?$allocator@UOperationSlot@@@std@@@std@@QBEIXZ PROC ; std::vector<OperationSlot,std::allocator<OperationSlot> >::capacity, COMDAT
; _this$ = ecx

; 635  : 		return (_Myfirst == 0 ? 0 : _Myend - _Myfirst);

	mov	eax, DWORD PTR [ecx+4]
	test	eax, eax
	jne	SHORT $LN3@capacity

; 636  : 		}

	ret	0
$LN3@capacity:

; 635  : 		return (_Myfirst == 0 ? 0 : _Myend - _Myfirst);

	mov	ecx, DWORD PTR [ecx+12]
	sub	ecx, eax
	mov	eax, 715827883				; 2aaaaaabH
	imul	ecx
	sar	edx, 1
	mov	eax, edx
	shr	eax, 31					; 0000001fH
	add	eax, edx

; 636  : 		}

	ret	0
?capacity@?$vector@UOperationSlot@@V?$allocator@UOperationSlot@@@std@@@std@@QBEIXZ ENDP ; std::vector<OperationSlot,std::allocator<OperationSlot> >::capacity
_TEXT	ENDS
PUBLIC	??1?$_Container_base_aux_alloc_empty@V?$allocator@UOperationSlot@@@std@@@std@@IAE@XZ ; std::_Container_base_aux_alloc_empty<std::allocator<OperationSlot> >::~_Container_base_aux_alloc_empty<std::allocator<OperationSlot> >
; Function compile flags: /Ogtpy
; File c:\program files (x86)\microsoft visual studio 9.0\vc\include\xutility
;	COMDAT ??1?$_Container_base_aux_alloc_empty@V?$allocator@UOperationSlot@@@std@@@std@@IAE@XZ
_TEXT	SEGMENT
??1?$_Container_base_aux_alloc_empty@V?$allocator@UOperationSlot@@@std@@@std@@IAE@XZ PROC ; std::_Container_base_aux_alloc_empty<std::allocator<OperationSlot> >::~_Container_base_aux_alloc_empty<std::allocator<OperationSlot> >, COMDAT
; _this$ = ecx

; 627  : 	~_Container_base_aux_alloc_empty() { }

	ret	0
??1?$_Container_base_aux_alloc_empty@V?$allocator@UOperationSlot@@@std@@@std@@IAE@XZ ENDP ; std::_Container_base_aux_alloc_empty<std::allocator<OperationSlot> >::~_Container_base_aux_alloc_empty<std::allocator<OperationSlot> >
_TEXT	ENDS
PUBLIC	??0?$allocator@UOperationSlot@@@std@@QAE@XZ	; std::allocator<OperationSlot>::allocator<OperationSlot>
; Function compile flags: /Ogtpy
; File c:\program files (x86)\microsoft visual studio 9.0\vc\include\xmemory
;	COMDAT ??0?$allocator@UOperationSlot@@@std@@QAE@XZ
_TEXT	SEGMENT
??0?$allocator@UOperationSlot@@@std@@QAE@XZ PROC	; std::allocator<OperationSlot>::allocator<OperationSlot>, COMDAT
; _this$ = ecx

; 119  : 	allocator() _THROW0()

	mov	eax, ecx

; 120  : 		{	// construct default allocator (do nothing)
; 121  : 		}

	ret	0
??0?$allocator@UOperationSlot@@@std@@QAE@XZ ENDP	; std::allocator<OperationSlot>::allocator<OperationSlot>
_TEXT	ENDS
PUBLIC	??0?$_Vector_const_iterator@UOperationSlot@@V?$allocator@UOperationSlot@@@std@@@std@@QAE@XZ ; std::_Vector_const_iterator<OperationSlot,std::allocator<OperationSlot> >::_Vector_const_iterator<OperationSlot,std::allocator<OperationSlot> >
; Function compile flags: /Ogtpy
; File c:\program files (x86)\microsoft visual studio 9.0\vc\include\vector
;	COMDAT ??0?$_Vector_const_iterator@UOperationSlot@@V?$allocator@UOperationSlot@@@std@@@std@@QAE@XZ
_TEXT	SEGMENT
??0?$_Vector_const_iterator@UOperationSlot@@V?$allocator@UOperationSlot@@@std@@@std@@QAE@XZ PROC ; std::_Vector_const_iterator<OperationSlot,std::allocator<OperationSlot> >::_Vector_const_iterator<OperationSlot,std::allocator<OperationSlot> >, COMDAT
; _this$ = ecx

; 62   : 	_Vector_const_iterator()

	mov	eax, ecx

; 63   : 		{	// construct with null pointer
; 64   : 		_Myptr = 0;

	mov	DWORD PTR [eax], 0

; 65   : 		}

	ret	0
??0?$_Vector_const_iterator@UOperationSlot@@V?$allocator@UOperationSlot@@@std@@@std@@QAE@XZ ENDP ; std::_Vector_const_iterator<OperationSlot,std::allocator<OperationSlot> >::_Vector_const_iterator<OperationSlot,std::allocator<OperationSlot> >
_TEXT	ENDS
PUBLIC	??D?$_Vector_const_iterator@UOperationSlot@@V?$allocator@UOperationSlot@@@std@@@std@@QBEABUOperationSlot@@XZ ; std::_Vector_const_iterator<OperationSlot,std::allocator<OperationSlot> >::operator*
; Function compile flags: /Ogtpy
;	COMDAT ??D?$_Vector_const_iterator@UOperationSlot@@V?$allocator@UOperationSlot@@@std@@@std@@QBEABUOperationSlot@@XZ
_TEXT	SEGMENT
??D?$_Vector_const_iterator@UOperationSlot@@V?$allocator@UOperationSlot@@@std@@@std@@QBEABUOperationSlot@@XZ PROC ; std::_Vector_const_iterator<OperationSlot,std::allocator<OperationSlot> >::operator*, COMDAT
; _this$ = ecx

; 92   : 
; 93   :  #if _HAS_ITERATOR_DEBUGGING
; 94   : 		if (this->_Mycont == 0
; 95   : 			|| _Myptr < ((_Myvec *)this->_Mycont)->_Myfirst
; 96   : 			|| ((_Myvec *)this->_Mycont)->_Mylast <= _Myptr)
; 97   : 			{
; 98   : 			_DEBUG_ERROR("vector iterator not dereferencable");
; 99   : 			_SCL_SECURE_OUT_OF_RANGE;
; 100  : 			}
; 101  :  #else
; 102  :  		_SCL_SECURE_VALIDATE(this->_Has_container());
; 103  : 		_SCL_SECURE_VALIDATE_RANGE(_Myptr < ((_Myvec *)(this->_Getmycont()))->_Mylast);
; 104  :  #endif /* _HAS_ITERATOR_DEBUGGING */
; 105  : 
; 106  : 		return (*_Myptr);

	mov	eax, DWORD PTR [ecx]

; 107  : 		}

	ret	0
??D?$_Vector_const_iterator@UOperationSlot@@V?$allocator@UOperationSlot@@@std@@@std@@QBEABUOperationSlot@@XZ ENDP ; std::_Vector_const_iterator<OperationSlot,std::allocator<OperationSlot> >::operator*
_TEXT	ENDS
PUBLIC	??E?$_Vector_const_iterator@UOperationSlot@@V?$allocator@UOperationSlot@@@std@@@std@@QAEAAV01@XZ ; std::_Vector_const_iterator<OperationSlot,std::allocator<OperationSlot> >::operator++
; Function compile flags: /Ogtpy
;	COMDAT ??E?$_Vector_const_iterator@UOperationSlot@@V?$allocator@UOperationSlot@@@std@@@std@@QAEAAV01@XZ
_TEXT	SEGMENT
??E?$_Vector_const_iterator@UOperationSlot@@V?$allocator@UOperationSlot@@@std@@@std@@QAEAAV01@XZ PROC ; std::_Vector_const_iterator<OperationSlot,std::allocator<OperationSlot> >::operator++, COMDAT
; _this$ = ecx

; 115  : 		{	// preincrement

	mov	eax, ecx

; 116  : 		_SCL_SECURE_VALIDATE(this->_Has_container());
; 117  : 		_SCL_SECURE_VALIDATE_RANGE(_Myptr < ((_Myvec *)(this->_Getmycont()))->_Mylast);
; 118  : 
; 119  :  #if _HAS_ITERATOR_DEBUGGING
; 120  : 		if (this->_Mycont == 0
; 121  : 			|| ((_Myvec *)this->_Mycont)->_Mylast <= _Myptr)
; 122  : 			_DEBUG_ERROR("vector iterator not incrementable");
; 123  :  #endif /* _HAS_ITERATOR_DEBUGGING */
; 124  : 
; 125  : 		++_Myptr;

	add	DWORD PTR [eax], 12			; 0000000cH

; 126  : 		return (*this);
; 127  : 		}

	ret	0
??E?$_Vector_const_iterator@UOperationSlot@@V?$allocator@UOperationSlot@@@std@@@std@@QAEAAV01@XZ ENDP ; std::_Vector_const_iterator<OperationSlot,std::allocator<OperationSlot> >::operator++
_TEXT	ENDS
PUBLIC	??8?$_Vector_const_iterator@UOperationSlot@@V?$allocator@UOperationSlot@@@std@@@std@@QBE_NABV01@@Z ; std::_Vector_const_iterator<OperationSlot,std::allocator<OperationSlot> >::operator==
; Function compile flags: /Ogtpy
;	COMDAT ??8?$_Vector_const_iterator@UOperationSlot@@V?$allocator@UOperationSlot@@@std@@@std@@QBE_NABV01@@Z
_TEXT	SEGMENT
__Right$ = 8						; size = 4
??8?$_Vector_const_iterator@UOperationSlot@@V?$allocator@UOperationSlot@@@std@@@std@@QBE_NABV01@@Z PROC ; std::_Vector_const_iterator<OperationSlot,std::allocator<OperationSlot> >::operator==, COMDAT
; _this$ = ecx

; 204  : 
; 205  :  #if _HAS_ITERATOR_DEBUGGING
; 206  : 		_Compat(_Right);
; 207  :  #else
; 208  : 		_SCL_SECURE_VALIDATE(this->_Has_container() && this->_Same_container(_Right));
; 209  :  #endif /* _HAS_ITERATOR_DEBUGGING */
; 210  : 
; 211  : 		return (_Myptr == _Right._Myptr);

	mov	eax, DWORD PTR [ecx]
	mov	edx, DWORD PTR __Right$[esp-4]
	xor	ecx, ecx
	cmp	eax, DWORD PTR [edx]
	sete	cl
	mov	al, cl

; 212  : 		}

	ret	4
??8?$_Vector_const_iterator@UOperationSlot@@V?$allocator@UOperationSlot@@@std@@@std@@QBE_NABV01@@Z ENDP ; std::_Vector_const_iterator<OperationSlot,std::allocator<OperationSlot> >::operator==
_TEXT	ENDS
PUBLIC	??_C@_0GH@ECFAPJEJ@c?3?2users?2enormousapplepie?2docume@ ; `string'
PUBLIC	?Alloc@?$FStaticVector@PAVCvAStarNode@@$0MI@$00$0BCJ@$0A@@@IAEPAPAVCvAStarNode@@I@Z ; FStaticVector<CvAStarNode *,200,1,297,0>::Alloc
EXTRN	?FireMallocAlignedNoTracking@@YAPAXIIPBDH@Z:PROC ; FireMallocAlignedNoTracking
;	COMDAT ??_C@_0GH@ECFAPJEJ@c?3?2users?2enormousapplepie?2docume@
; File c:\users\enormousapplepie\documents\github\lekmod\lekmod_dll\fireplace\include\fireworks\ffastvector.h
CONST	SEGMENT
??_C@_0GH@ECFAPJEJ@c?3?2users?2enormousapplepie?2docume@ DB 'c:\users\eno'
	DB	'rmousapplepie\documents\github\lekmod\lekmod_dll\fireplace\in'
	DB	'clude\fireworks\FFastVector.h', 00H		; `string'
; Function compile flags: /Ogtpy
CONST	ENDS
;	COMDAT ?Alloc@?$FStaticVector@PAVCvAStarNode@@$0MI@$00$0BCJ@$0A@@@IAEPAPAVCvAStarNode@@I@Z
_TEXT	SEGMENT
_uiSize$ = 8						; size = 4
?Alloc@?$FStaticVector@PAVCvAStarNode@@$0MI@$00$0BCJ@$0A@@@IAEPAPAVCvAStarNode@@I@Z PROC ; FStaticVector<CvAStarNode *,200,1,297,0>::Alloc, COMDAT
; _this$ = ecx

; 795  : 	T* Alloc(unsigned int uiSize){

	push	esi
	push	edi

; 796  : 		T* pRet;
; 797  : 		if( uiSize > L ){

	mov	edi, DWORD PTR _uiSize$[esp+4]
	mov	esi, ecx
	cmp	edi, 200				; 000000c8H
	jbe	SHORT $LN2@Alloc

; 798  : 			pRet = (T*)FMALLOCALIGNED( uiSize*sizeof(T), __alignof(T), AllocPool, nSubID );

	push	798					; 0000031eH
	push	OFFSET ??_C@_0GH@ECFAPJEJ@c?3?2users?2enormousapplepie?2docume@
	lea	eax, DWORD PTR [edi*4]
	push	4
	push	eax
	call	?FireMallocAlignedNoTracking@@YAPAXIIPBDH@Z ; FireMallocAlignedNoTracking
	add	esp, 16					; 00000010H

; 799  : 			m_uiCurrMaxSize = uiSize;

	mov	DWORD PTR [esi+8], edi
	pop	edi
	pop	esi

; 803  : 		}
; 804  : 		return pRet;
; 805  : 	};

	ret	4
$LN2@Alloc:
	pop	edi

; 800  : 		}else{
; 801  : 			pRet = (T*)m_aData;

	lea	eax, DWORD PTR [esi+12]

; 802  : 			m_uiCurrMaxSize = L;

	mov	DWORD PTR [esi+8], 200			; 000000c8H
	pop	esi

; 803  : 		}
; 804  : 		return pRet;
; 805  : 	};

	ret	4
?Alloc@?$FStaticVector@PAVCvAStarNode@@$0MI@$00$0BCJ@$0A@@@IAEPAPAVCvAStarNode@@I@Z ENDP ; FStaticVector<CvAStarNode *,200,1,297,0>::Alloc
_TEXT	ENDS
PUBLIC	?Alloc@?$FStaticVector@VCvOperationSearchUnit@@$0IA@$00$0BCJ@$0A@@@IAEPAVCvOperationSearchUnit@@I@Z ; FStaticVector<CvOperationSearchUnit,128,1,297,0>::Alloc
; Function compile flags: /Ogtpy
;	COMDAT ?Alloc@?$FStaticVector@VCvOperationSearchUnit@@$0IA@$00$0BCJ@$0A@@@IAEPAVCvOperationSearchUnit@@I@Z
_TEXT	SEGMENT
_uiSize$ = 8						; size = 4
?Alloc@?$FStaticVector@VCvOperationSearchUnit@@$0IA@$00$0BCJ@$0A@@@IAEPAVCvOperationSearchUnit@@I@Z PROC ; FStaticVector<CvOperationSearchUnit,128,1,297,0>::Alloc, COMDAT
; _this$ = ecx

; 795  : 	T* Alloc(unsigned int uiSize){

	push	esi
	push	edi

; 796  : 		T* pRet;
; 797  : 		if( uiSize > L ){

	mov	edi, DWORD PTR _uiSize$[esp+4]
	mov	esi, ecx
	cmp	edi, 128				; 00000080H
	jbe	SHORT $LN2@Alloc@2

; 798  : 			pRet = (T*)FMALLOCALIGNED( uiSize*sizeof(T), __alignof(T), AllocPool, nSubID );

	push	798					; 0000031eH
	push	OFFSET ??_C@_0GH@ECFAPJEJ@c?3?2users?2enormousapplepie?2docume@
	lea	eax, DWORD PTR [edi*8]
	push	4
	push	eax
	call	?FireMallocAlignedNoTracking@@YAPAXIIPBDH@Z ; FireMallocAlignedNoTracking
	add	esp, 16					; 00000010H

; 799  : 			m_uiCurrMaxSize = uiSize;

	mov	DWORD PTR [esi+8], edi
	pop	edi
	pop	esi

; 803  : 		}
; 804  : 		return pRet;
; 805  : 	};

	ret	4
$LN2@Alloc@2:
	pop	edi

; 800  : 		}else{
; 801  : 			pRet = (T*)m_aData;

	lea	eax, DWORD PTR [esi+12]

; 802  : 			m_uiCurrMaxSize = L;

	mov	DWORD PTR [esi+8], 128			; 00000080H
	pop	esi

; 803  : 		}
; 804  : 		return pRet;
; 805  : 	};

	ret	4
?Alloc@?$FStaticVector@VCvOperationSearchUnit@@$0IA@$00$0BCJ@$0A@@@IAEPAVCvOperationSearchUnit@@I@Z ENDP ; FStaticVector<CvOperationSearchUnit,128,1,297,0>::Alloc
_TEXT	ENDS
PUBLIC	??1?$BaseVector@VCvOperationSearchUnit@@$00@@QAE@XZ ; BaseVector<CvOperationSearchUnit,1>::~BaseVector<CvOperationSearchUnit,1>
; Function compile flags: /Ogtpy
;	COMDAT ??1?$BaseVector@VCvOperationSearchUnit@@$00@@QAE@XZ
_TEXT	SEGMENT
??1?$BaseVector@VCvOperationSearchUnit@@$00@@QAE@XZ PROC ; BaseVector<CvOperationSearchUnit,1>::~BaseVector<CvOperationSearchUnit,1>, COMDAT
; _this$ = ecx

; 111  : 	~BaseVector(){};

	ret	0
??1?$BaseVector@VCvOperationSearchUnit@@$00@@QAE@XZ ENDP ; BaseVector<CvOperationSearchUnit,1>::~BaseVector<CvOperationSearchUnit,1>
_TEXT	ENDS
PUBLIC	??0?$BaseVector@VCvOperationSearchUnit@@$00@@IAE@XZ ; BaseVector<CvOperationSearchUnit,1>::BaseVector<CvOperationSearchUnit,1>
; Function compile flags: /Ogtpy
;	COMDAT ??0?$BaseVector@VCvOperationSearchUnit@@$00@@IAE@XZ
_TEXT	SEGMENT
??0?$BaseVector@VCvOperationSearchUnit@@$00@@IAE@XZ PROC ; BaseVector<CvOperationSearchUnit,1>::BaseVector<CvOperationSearchUnit,1>, COMDAT
; _this$ = ecx

; 216  : 	BaseVector() : m_uiCurrSize(0), m_uiCurrMaxSize(0), m_pData(NULL) {};

	mov	eax, ecx
	xor	ecx, ecx
	mov	DWORD PTR [eax], ecx
	mov	DWORD PTR [eax+4], ecx
	mov	DWORD PTR [eax+8], ecx
	ret	0
??0?$BaseVector@VCvOperationSearchUnit@@$00@@IAE@XZ ENDP ; BaseVector<CvOperationSearchUnit,1>::BaseVector<CvOperationSearchUnit,1>
_TEXT	ENDS
PUBLIC	?Destroy@?$BaseVector@VCvOperationSearchUnit@@$00@@IAEXPAVCvOperationSearchUnit@@I@Z ; BaseVector<CvOperationSearchUnit,1>::Destroy
; Function compile flags: /Ogtpy
;	COMDAT ?Destroy@?$BaseVector@VCvOperationSearchUnit@@$00@@IAEXPAVCvOperationSearchUnit@@I@Z
_TEXT	SEGMENT
_pVal$ = 8						; size = 4
_uiNumElements$ = 12					; size = 4
?Destroy@?$BaseVector@VCvOperationSearchUnit@@$00@@IAEXPAVCvOperationSearchUnit@@I@Z PROC ; BaseVector<CvOperationSearchUnit,1>::Destroy, COMDAT
; _this$ = ecx

; 221  : 		if( !bPODType){
; 222  : 			for(unsigned int i = 0; i < uiNumElements; ++i){
; 223  : 				pVal[i].~T();
; 224  : 			}
; 225  : 		}
; 226  : 	};

	ret	8
?Destroy@?$BaseVector@VCvOperationSearchUnit@@$00@@IAEXPAVCvOperationSearchUnit@@I@Z ENDP ; BaseVector<CvOperationSearchUnit,1>::Destroy
_TEXT	ENDS
PUBLIC	??A?$BaseVector@UWeightedElement@?$CvWeightedVector@PAVCvPlot@@$00$00@@$00@@QBEABUWeightedElement@?$CvWeightedVector@PAVCvPlot@@$00$00@@I@Z ; BaseVector<CvWeightedVector<CvPlot *,1,1>::WeightedElement,1>::operator[]
; Function compile flags: /Ogtpy
;	COMDAT ??A?$BaseVector@UWeightedElement@?$CvWeightedVector@PAVCvPlot@@$00$00@@$00@@QBEABUWeightedElement@?$CvWeightedVector@PAVCvPlot@@$00$00@@I@Z
_TEXT	SEGMENT
_ui$ = 8						; size = 4
??A?$BaseVector@UWeightedElement@?$CvWeightedVector@PAVCvPlot@@$00$00@@$00@@QBEABUWeightedElement@?$CvWeightedVector@PAVCvPlot@@$00$00@@I@Z PROC ; BaseVector<CvWeightedVector<CvPlot *,1,1>::WeightedElement,1>::operator[], COMDAT
; _this$ = ecx

; 135  : 		FAssert(ui < m_uiCurrSize);
; 136  : 		return m_pData[ui];

	mov	eax, DWORD PTR [ecx]
	mov	ecx, DWORD PTR _ui$[esp-4]
	lea	eax, DWORD PTR [eax+ecx*8]

; 137  : 	};

	ret	4
??A?$BaseVector@UWeightedElement@?$CvWeightedVector@PAVCvPlot@@$00$00@@$00@@QBEABUWeightedElement@?$CvWeightedVector@PAVCvPlot@@$00$00@@I@Z ENDP ; BaseVector<CvWeightedVector<CvPlot *,1,1>::WeightedElement,1>::operator[]
_TEXT	ENDS
PUBLIC	?size@?$BaseVector@UWeightedElement@?$CvWeightedVector@PAVCvPlot@@$00$00@@$00@@QBEIXZ ; BaseVector<CvWeightedVector<CvPlot *,1,1>::WeightedElement,1>::size
; Function compile flags: /Ogtpy
;	COMDAT ?size@?$BaseVector@UWeightedElement@?$CvWeightedVector@PAVCvPlot@@$00$00@@$00@@QBEIXZ
_TEXT	SEGMENT
?size@?$BaseVector@UWeightedElement@?$CvWeightedVector@PAVCvPlot@@$00$00@@$00@@QBEIXZ PROC ; BaseVector<CvWeightedVector<CvPlot *,1,1>::WeightedElement,1>::size, COMDAT
; _this$ = ecx

; 169  : 		return m_uiCurrSize;

	mov	eax, DWORD PTR [ecx+4]

; 170  : 	};

	ret	0
?size@?$BaseVector@UWeightedElement@?$CvWeightedVector@PAVCvPlot@@$00$00@@$00@@QBEIXZ ENDP ; BaseVector<CvWeightedVector<CvPlot *,1,1>::WeightedElement,1>::size
_TEXT	ENDS
PUBLIC	?begin@?$BaseVector@UWeightedElement@?$CvWeightedVector@PAVCvPlot@@$00$00@@$00@@QAEPAUWeightedElement@?$CvWeightedVector@PAVCvPlot@@$00$00@@XZ ; BaseVector<CvWeightedVector<CvPlot *,1,1>::WeightedElement,1>::begin
; Function compile flags: /Ogtpy
;	COMDAT ?begin@?$BaseVector@UWeightedElement@?$CvWeightedVector@PAVCvPlot@@$00$00@@$00@@QAEPAUWeightedElement@?$CvWeightedVector@PAVCvPlot@@$00$00@@XZ
_TEXT	SEGMENT
?begin@?$BaseVector@UWeightedElement@?$CvWeightedVector@PAVCvPlot@@$00$00@@$00@@QAEPAUWeightedElement@?$CvWeightedVector@PAVCvPlot@@$00$00@@XZ PROC ; BaseVector<CvWeightedVector<CvPlot *,1,1>::WeightedElement,1>::begin, COMDAT
; _this$ = ecx

; 194  :         return m_pData; 

	mov	eax, DWORD PTR [ecx]

; 195  :     };

	ret	0
?begin@?$BaseVector@UWeightedElement@?$CvWeightedVector@PAVCvPlot@@$00$00@@$00@@QAEPAUWeightedElement@?$CvWeightedVector@PAVCvPlot@@$00$00@@XZ ENDP ; BaseVector<CvWeightedVector<CvPlot *,1,1>::WeightedElement,1>::begin
_TEXT	ENDS
PUBLIC	?end@?$BaseVector@UWeightedElement@?$CvWeightedVector@PAVCvPlot@@$00$00@@$00@@QAEPAUWeightedElement@?$CvWeightedVector@PAVCvPlot@@$00$00@@XZ ; BaseVector<CvWeightedVector<CvPlot *,1,1>::WeightedElement,1>::end
; Function compile flags: /Ogtpy
;	COMDAT ?end@?$BaseVector@UWeightedElement@?$CvWeightedVector@PAVCvPlot@@$00$00@@$00@@QAEPAUWeightedElement@?$CvWeightedVector@PAVCvPlot@@$00$00@@XZ
_TEXT	SEGMENT
?end@?$BaseVector@UWeightedElement@?$CvWeightedVector@PAVCvPlot@@$00$00@@$00@@QAEPAUWeightedElement@?$CvWeightedVector@PAVCvPlot@@$00$00@@XZ PROC ; BaseVector<CvWeightedVector<CvPlot *,1,1>::WeightedElement,1>::end, COMDAT
; _this$ = ecx

; 197  :         return m_pData+m_uiCurrSize; 

	mov	eax, DWORD PTR [ecx+4]
	mov	ecx, DWORD PTR [ecx]
	lea	eax, DWORD PTR [ecx+eax*8]

; 198  :     };

	ret	0
?end@?$BaseVector@UWeightedElement@?$CvWeightedVector@PAVCvPlot@@$00$00@@$00@@QAEPAUWeightedElement@?$CvWeightedVector@PAVCvPlot@@$00$00@@XZ ENDP ; BaseVector<CvWeightedVector<CvPlot *,1,1>::WeightedElement,1>::end
_TEXT	ENDS
PUBLIC	??0WeightedElement@?$CvWeightedVector@PAVCvPlot@@$00$00@@QAE@XZ ; CvWeightedVector<CvPlot *,1,1>::WeightedElement::WeightedElement
; Function compile flags: /Ogtpy
; File c:\users\enormousapplepie\documents\github\lekmod\lekmod_dll\cvgamecoredllutil\include\cvweightedvector.h
;	COMDAT ??0WeightedElement@?$CvWeightedVector@PAVCvPlot@@$00$00@@QAE@XZ
_TEXT	SEGMENT
??0WeightedElement@?$CvWeightedVector@PAVCvPlot@@$00$00@@QAE@XZ PROC ; CvWeightedVector<CvPlot *,1,1>::WeightedElement::WeightedElement, COMDAT
; _this$ = ecx

; 31   : 		{

	mov	eax, ecx
	mov	DWORD PTR [eax], 0
	mov	DWORD PTR [eax+4], 0

; 32   : 		}

	ret	0
??0WeightedElement@?$CvWeightedVector@PAVCvPlot@@$00$00@@QAE@XZ ENDP ; CvWeightedVector<CvPlot *,1,1>::WeightedElement::WeightedElement
_TEXT	ENDS
PUBLIC	__TI3?AVlength_error@std@@
PUBLIC	??_C@_0BD@OLBABOEK@vector?$DMT?$DO?5too?5long?$AA@ ; `string'
PUBLIC	?_Xlen@?$vector@UOperationSlot@@V?$allocator@UOperationSlot@@@std@@@std@@KAXXZ ; std::vector<OperationSlot,std::allocator<OperationSlot> >::_Xlen
PUBLIC	__CTA3?AVlength_error@std@@
PUBLIC	__CT??_R0?AVlength_error@std@@@8??0length_error@std@@QAE@ABV01@@Z40
PUBLIC	??0length_error@std@@QAE@ABV01@@Z		; std::length_error::length_error
PUBLIC	__CT??_R0?AVlogic_error@std@@@8??0logic_error@std@@QAE@ABV01@@Z40
PUBLIC	??0logic_error@std@@QAE@ABV01@@Z		; std::logic_error::logic_error
PUBLIC	__CT??_R0?AVexception@std@@@8??0exception@std@@QAE@ABV01@@Z12
EXTRN	__imp_??0?$basic_string@DU?$char_traits@D@std@@V?$allocator@D@2@@std@@QAE@PBD@Z:PROC
EXTRN	__CxxThrowException@8:PROC
EXTRN	??0exception@std@@QAE@ABV01@@Z:PROC		; std::exception::exception
;	COMDAT __CT??_R0?AVexception@std@@@8??0exception@std@@QAE@ABV01@@Z12
; File c:\program files (x86)\microsoft visual studio 9.0\vc\include\stdexcept
xdata$x	SEGMENT
__CT??_R0?AVexception@std@@@8??0exception@std@@QAE@ABV01@@Z12 DD 00H
	DD	FLAT:??_R0?AVexception@std@@@8
	DD	00H
	DD	0ffffffffH
	ORG $+4
	DD	0cH
	DD	FLAT:??0exception@std@@QAE@ABV01@@Z
xdata$x	ENDS
;	COMDAT __CT??_R0?AVlogic_error@std@@@8??0logic_error@std@@QAE@ABV01@@Z40
xdata$x	SEGMENT
__CT??_R0?AVlogic_error@std@@@8??0logic_error@std@@QAE@ABV01@@Z40 DD 00H
	DD	FLAT:??_R0?AVlogic_error@std@@@8
	DD	00H
	DD	0ffffffffH
	ORG $+4
	DD	028H
	DD	FLAT:??0logic_error@std@@QAE@ABV01@@Z
xdata$x	ENDS
;	COMDAT __CT??_R0?AVlength_error@std@@@8??0length_error@std@@QAE@ABV01@@Z40
xdata$x	SEGMENT
__CT??_R0?AVlength_error@std@@@8??0length_error@std@@QAE@ABV01@@Z40 DD 00H
	DD	FLAT:??_R0?AVlength_error@std@@@8
	DD	00H
	DD	0ffffffffH
	ORG $+4
	DD	028H
	DD	FLAT:??0length_error@std@@QAE@ABV01@@Z
xdata$x	ENDS
;	COMDAT __CTA3?AVlength_error@std@@
xdata$x	SEGMENT
__CTA3?AVlength_error@std@@ DD 03H
	DD	FLAT:__CT??_R0?AVlength_error@std@@@8??0length_error@std@@QAE@ABV01@@Z40
	DD	FLAT:__CT??_R0?AVlogic_error@std@@@8??0logic_error@std@@QAE@ABV01@@Z40
	DD	FLAT:__CT??_R0?AVexception@std@@@8??0exception@std@@QAE@ABV01@@Z12
xdata$x	ENDS
;	COMDAT __TI3?AVlength_error@std@@
xdata$x	SEGMENT
__TI3?AVlength_error@std@@ DD 00H
	DD	FLAT:??1length_error@std@@UAE@XZ
	DD	00H
	DD	FLAT:__CTA3?AVlength_error@std@@
xdata$x	ENDS
;	COMDAT ??_C@_0BD@OLBABOEK@vector?$DMT?$DO?5too?5long?$AA@
CONST	SEGMENT
??_C@_0BD@OLBABOEK@vector?$DMT?$DO?5too?5long?$AA@ DB 'vector<T> too long'
	DB	00H						; `string'
CONST	ENDS
;	COMDAT xdata$x
xdata$x	SEGMENT
__unwindtable$?_Xlen@?$vector@UOperationSlot@@V?$allocator@UOperationSlot@@@std@@@std@@KAXXZ DD 0ffffffffH
	DD	FLAT:__unwindfunclet$?_Xlen@?$vector@UOperationSlot@@V?$allocator@UOperationSlot@@@std@@@std@@KAXXZ$0
	DD	00H
	DD	FLAT:__unwindfunclet$?_Xlen@?$vector@UOperationSlot@@V?$allocator@UOperationSlot@@@std@@@std@@KAXXZ$2
__ehfuncinfo$?_Xlen@?$vector@UOperationSlot@@V?$allocator@UOperationSlot@@@std@@@std@@KAXXZ DD 019930522H
	DD	02H
	DD	FLAT:__unwindtable$?_Xlen@?$vector@UOperationSlot@@V?$allocator@UOperationSlot@@@std@@@std@@KAXXZ
	DD	2 DUP(00H)
	DD	2 DUP(00H)
	DD	00H
	DD	01H
; Function compile flags: /Ogtpy
; File c:\program files (x86)\microsoft visual studio 9.0\vc\include\vector
xdata$x	ENDS
;	COMDAT ?_Xlen@?$vector@UOperationSlot@@V?$allocator@UOperationSlot@@@std@@@std@@KAXXZ
_TEXT	SEGMENT
$T231072 = -80						; size = 28
$T231071 = -52						; size = 40
__$EHRec$ = -12						; size = 12
?_Xlen@?$vector@UOperationSlot@@V?$allocator@UOperationSlot@@@std@@@std@@KAXXZ PROC ; std::vector<OperationSlot,std::allocator<OperationSlot> >::_Xlen, COMDAT

; 1259 : 		{	// report a length_error

	push	-1
	push	__ehhandler$?_Xlen@?$vector@UOperationSlot@@V?$allocator@UOperationSlot@@@std@@@std@@KAXXZ
	mov	eax, DWORD PTR fs:0
	push	eax
	mov	DWORD PTR fs:0, esp
	sub	esp, 68					; 00000044H

; 1260 : 		_THROW(length_error, "vector<T> too long");

	push	OFFSET ??_C@_0BD@OLBABOEK@vector?$DMT?$DO?5too?5long?$AA@
	lea	ecx, DWORD PTR $T231072[esp+84]
	call	DWORD PTR __imp_??0?$basic_string@DU?$char_traits@D@std@@V?$allocator@D@2@@std@@QAE@PBD@Z
	lea	ecx, DWORD PTR $T231071[esp+80]
	mov	DWORD PTR __$EHRec$[esp+88], 0
	call	DWORD PTR __imp_??0exception@std@@QAE@XZ
	lea	eax, DWORD PTR $T231072[esp+80]
	push	eax
	lea	ecx, DWORD PTR $T231071[esp+96]
	mov	BYTE PTR __$EHRec$[esp+92], 1
	mov	DWORD PTR $T231071[esp+84], OFFSET ??_7logic_error@std@@6B@
	call	DWORD PTR __imp_??0?$basic_string@DU?$char_traits@D@std@@V?$allocator@D@2@@std@@QAE@ABV01@@Z
	push	OFFSET __TI3?AVlength_error@std@@
	lea	ecx, DWORD PTR $T231071[esp+84]
	push	ecx
	mov	BYTE PTR __$EHRec$[esp+96], 0
	mov	DWORD PTR $T231071[esp+88], OFFSET ??_7length_error@std@@6B@
	call	__CxxThrowException@8
$LN13@Xlen:
$LN12@Xlen:
	int	3
_TEXT	ENDS
;	COMDAT text$x
text$x	SEGMENT
__unwindfunclet$?_Xlen@?$vector@UOperationSlot@@V?$allocator@UOperationSlot@@@std@@@std@@KAXXZ$0:
	lea	ecx, DWORD PTR $T231072[ebp]
	jmp	DWORD PTR __imp_??1?$basic_string@DU?$char_traits@D@std@@V?$allocator@D@2@@std@@QAE@XZ
__unwindfunclet$?_Xlen@?$vector@UOperationSlot@@V?$allocator@UOperationSlot@@@std@@@std@@KAXXZ$2:
	lea	ecx, DWORD PTR $T231071[ebp]
	jmp	DWORD PTR __imp_??1exception@std@@UAE@XZ
__ehhandler$?_Xlen@?$vector@UOperationSlot@@V?$allocator@UOperationSlot@@@std@@@std@@KAXXZ:
	mov	eax, OFFSET __ehfuncinfo$?_Xlen@?$vector@UOperationSlot@@V?$allocator@UOperationSlot@@@std@@@std@@KAXXZ
	jmp	___CxxFrameHandler3
text$x	ENDS
?_Xlen@?$vector@UOperationSlot@@V?$allocator@UOperationSlot@@@std@@@std@@KAXXZ ENDP ; std::vector<OperationSlot,std::allocator<OperationSlot> >::_Xlen
EXTRN	__imp_??0exception@std@@QAE@ABV01@@Z:PROC
;	COMDAT xdata$x
xdata$x	SEGMENT
__unwindtable$??0logic_error@std@@QAE@ABV01@@Z DD 0ffffffffH
	DD	FLAT:__unwindfunclet$??0logic_error@std@@QAE@ABV01@@Z$0
__ehfuncinfo$??0logic_error@std@@QAE@ABV01@@Z DD 019930522H
	DD	01H
	DD	FLAT:__unwindtable$??0logic_error@std@@QAE@ABV01@@Z
	DD	2 DUP(00H)
	DD	2 DUP(00H)
	DD	00H
	DD	01H
; Function compile flags: /Ogtpy
xdata$x	ENDS
;	COMDAT ??0logic_error@std@@QAE@ABV01@@Z
_TEXT	SEGMENT
_this$ = -16						; size = 4
__$EHRec$ = -12						; size = 12
___that$ = 8						; size = 4
??0logic_error@std@@QAE@ABV01@@Z PROC			; std::logic_error::logic_error, COMDAT
; _this$ = ecx
	push	-1
	push	__ehhandler$??0logic_error@std@@QAE@ABV01@@Z
	mov	eax, DWORD PTR fs:0
	push	eax
	mov	DWORD PTR fs:0, esp
	push	ecx
	push	esi
	push	edi
	mov	edi, DWORD PTR ___that$[esp+20]
	mov	esi, ecx
	push	edi
	mov	DWORD PTR _this$[esp+28], esi
	call	DWORD PTR __imp_??0exception@std@@QAE@ABV01@@Z
	add	edi, 12					; 0000000cH
	push	edi
	lea	ecx, DWORD PTR [esi+12]
	mov	DWORD PTR __$EHRec$[esp+36], 0
	mov	DWORD PTR [esi], OFFSET ??_7logic_error@std@@6B@
	call	DWORD PTR __imp_??0?$basic_string@DU?$char_traits@D@std@@V?$allocator@D@2@@std@@QAE@ABV01@@Z
	mov	ecx, DWORD PTR __$EHRec$[esp+24]
	pop	edi
	mov	eax, esi
	pop	esi
	mov	DWORD PTR fs:0, ecx
	add	esp, 16					; 00000010H
	ret	4
_TEXT	ENDS
;	COMDAT text$x
text$x	SEGMENT
__unwindfunclet$??0logic_error@std@@QAE@ABV01@@Z$0:
	mov	ecx, DWORD PTR _this$[ebp]
	jmp	DWORD PTR __imp_??1exception@std@@UAE@XZ
__ehhandler$??0logic_error@std@@QAE@ABV01@@Z:
	mov	eax, OFFSET __ehfuncinfo$??0logic_error@std@@QAE@ABV01@@Z
	jmp	___CxxFrameHandler3
text$x	ENDS
??0logic_error@std@@QAE@ABV01@@Z ENDP			; std::logic_error::logic_error
PUBLIC	??0?$_Container_base_aux_alloc_empty@V?$allocator@UOperationSlot@@@std@@@std@@IAE@V?$allocator@UOperationSlot@@@1@@Z ; std::_Container_base_aux_alloc_empty<std::allocator<OperationSlot> >::_Container_base_aux_alloc_empty<std::allocator<OperationSlot> >
; Function compile flags: /Ogtpy
; File c:\program files (x86)\microsoft visual studio 9.0\vc\include\xutility
;	COMDAT ??0?$_Container_base_aux_alloc_empty@V?$allocator@UOperationSlot@@@std@@@std@@IAE@V?$allocator@UOperationSlot@@@1@@Z
_TEXT	SEGMENT
___formal$ = 8						; size = 1
??0?$_Container_base_aux_alloc_empty@V?$allocator@UOperationSlot@@@std@@@std@@IAE@V?$allocator@UOperationSlot@@@1@@Z PROC ; std::_Container_base_aux_alloc_empty<std::allocator<OperationSlot> >::_Container_base_aux_alloc_empty<std::allocator<OperationSlot> >, COMDAT
; _this$ = ecx

; 618  : 	explicit _Container_base_aux_alloc_empty(_Alloc) { }

	mov	eax, ecx
	ret	4
??0?$_Container_base_aux_alloc_empty@V?$allocator@UOperationSlot@@@std@@@std@@IAE@V?$allocator@UOperationSlot@@@1@@Z ENDP ; std::_Container_base_aux_alloc_empty<std::allocator<OperationSlot> >::_Container_base_aux_alloc_empty<std::allocator<OperationSlot> >
_TEXT	ENDS
PUBLIC	??0?$allocator@UOperationSlot@@@std@@QAE@ABV01@@Z ; std::allocator<OperationSlot>::allocator<OperationSlot>
; Function compile flags: /Ogtpy
; File c:\program files (x86)\microsoft visual studio 9.0\vc\include\xmemory
;	COMDAT ??0?$allocator@UOperationSlot@@@std@@QAE@ABV01@@Z
_TEXT	SEGMENT
___formal$ = 8						; size = 4
??0?$allocator@UOperationSlot@@@std@@QAE@ABV01@@Z PROC	; std::allocator<OperationSlot>::allocator<OperationSlot>, COMDAT
; _this$ = ecx

; 123  : 	allocator(const allocator<_Ty>&) _THROW0()

	mov	eax, ecx

; 124  : 		{	// construct by copying (do nothing)
; 125  : 		}

	ret	4
??0?$allocator@UOperationSlot@@@std@@QAE@ABV01@@Z ENDP	; std::allocator<OperationSlot>::allocator<OperationSlot>
_TEXT	ENDS
PUBLIC	?deallocate@?$allocator@UOperationSlot@@@std@@QAEXPAUOperationSlot@@I@Z ; std::allocator<OperationSlot>::deallocate
; Function compile flags: /Ogtpy
;	COMDAT ?deallocate@?$allocator@UOperationSlot@@@std@@QAEXPAUOperationSlot@@I@Z
_TEXT	SEGMENT
__Ptr$ = 8						; size = 4
___formal$ = 12						; size = 4
?deallocate@?$allocator@UOperationSlot@@@std@@QAEXPAUOperationSlot@@I@Z PROC ; std::allocator<OperationSlot>::deallocate, COMDAT
; _this$ = ecx

; 140  : 		::operator delete(_Ptr);

	mov	eax, DWORD PTR __Ptr$[esp-4]
	push	eax
	call	??3@YAXPAX@Z				; operator delete
	pop	ecx

; 141  : 		}

	ret	8
?deallocate@?$allocator@UOperationSlot@@@std@@QAEXPAUOperationSlot@@I@Z ENDP ; std::allocator<OperationSlot>::deallocate
_TEXT	ENDS
PUBLIC	??0?$_Vector_const_iterator@UOperationSlot@@V?$allocator@UOperationSlot@@@std@@@std@@QAE@PAUOperationSlot@@@Z ; std::_Vector_const_iterator<OperationSlot,std::allocator<OperationSlot> >::_Vector_const_iterator<OperationSlot,std::allocator<OperationSlot> >
; Function compile flags: /Ogtpy
; File c:\program files (x86)\microsoft visual studio 9.0\vc\include\vector
;	COMDAT ??0?$_Vector_const_iterator@UOperationSlot@@V?$allocator@UOperationSlot@@@std@@@std@@QAE@PAUOperationSlot@@@Z
_TEXT	SEGMENT
__Ptr$ = 8						; size = 4
??0?$_Vector_const_iterator@UOperationSlot@@V?$allocator@UOperationSlot@@@std@@@std@@QAE@PAUOperationSlot@@@Z PROC ; std::_Vector_const_iterator<OperationSlot,std::allocator<OperationSlot> >::_Vector_const_iterator<OperationSlot,std::allocator<OperationSlot> >, COMDAT
; _this$ = ecx

; 84   : 	explicit _Vector_const_iterator(_Tptr _Ptr)

	mov	eax, ecx

; 85   : 		{	// construct with pointer _Ptr
; 86   : 		_Myptr = _Ptr;

	mov	ecx, DWORD PTR __Ptr$[esp-4]
	mov	DWORD PTR [eax], ecx

; 87   : 		}

	ret	4
??0?$_Vector_const_iterator@UOperationSlot@@V?$allocator@UOperationSlot@@@std@@@std@@QAE@PAUOperationSlot@@@Z ENDP ; std::_Vector_const_iterator<OperationSlot,std::allocator<OperationSlot> >::_Vector_const_iterator<OperationSlot,std::allocator<OperationSlot> >
_TEXT	ENDS
PUBLIC	??G?$_Vector_const_iterator@UOperationSlot@@V?$allocator@UOperationSlot@@@std@@@std@@QBEHABV01@@Z ; std::_Vector_const_iterator<OperationSlot,std::allocator<OperationSlot> >::operator-
; Function compile flags: /Ogtpy
;	COMDAT ??G?$_Vector_const_iterator@UOperationSlot@@V?$allocator@UOperationSlot@@@std@@@std@@QBEHABV01@@Z
_TEXT	SEGMENT
__Right$ = 8						; size = 4
??G?$_Vector_const_iterator@UOperationSlot@@V?$allocator@UOperationSlot@@@std@@@std@@QBEHABV01@@Z PROC ; std::_Vector_const_iterator<OperationSlot,std::allocator<OperationSlot> >::operator-, COMDAT
; _this$ = ecx

; 187  : 
; 188  :  #if _HAS_ITERATOR_DEBUGGING
; 189  : 		_Compat(_Right);
; 190  :  #else
; 191  : 		_SCL_SECURE_VALIDATE(this->_Has_container() && this->_Same_container(_Right));
; 192  :  #endif /* _HAS_ITERATOR_DEBUGGING */
; 193  : 
; 194  : 		return (_Myptr - _Right._Myptr);

	mov	eax, DWORD PTR __Right$[esp-4]
	mov	ecx, DWORD PTR [ecx]
	sub	ecx, DWORD PTR [eax]
	mov	eax, 715827883				; 2aaaaaabH
	imul	ecx
	sar	edx, 1
	mov	eax, edx
	shr	eax, 31					; 0000001fH
	add	eax, edx

; 195  : 		}

	ret	4
??G?$_Vector_const_iterator@UOperationSlot@@V?$allocator@UOperationSlot@@@std@@@std@@QBEHABV01@@Z ENDP ; std::_Vector_const_iterator<OperationSlot,std::allocator<OperationSlot> >::operator-
_TEXT	ENDS
PUBLIC	?Alloc@?$FStaticVector@UWeightedElement@?$CvWeightedVector@PAVCvPlot@@$00$00@@$00$00$0A@$0A@@@IAEPAUWeightedElement@?$CvWeightedVector@PAVCvPlot@@$00$00@@I@Z ; FStaticVector<CvWeightedVector<CvPlot *,1,1>::WeightedElement,1,1,0,0>::Alloc
; Function compile flags: /Ogtpy
; File c:\users\enormousapplepie\documents\github\lekmod\lekmod_dll\fireplace\include\fireworks\ffastvector.h
;	COMDAT ?Alloc@?$FStaticVector@UWeightedElement@?$CvWeightedVector@PAVCvPlot@@$00$00@@$00$00$0A@$0A@@@IAEPAUWeightedElement@?$CvWeightedVector@PAVCvPlot@@$00$00@@I@Z
_TEXT	SEGMENT
_uiSize$ = 8						; size = 4
?Alloc@?$FStaticVector@UWeightedElement@?$CvWeightedVector@PAVCvPlot@@$00$00@@$00$00$0A@$0A@@@IAEPAUWeightedElement@?$CvWeightedVector@PAVCvPlot@@$00$00@@I@Z PROC ; FStaticVector<CvWeightedVector<CvPlot *,1,1>::WeightedElement,1,1,0,0>::Alloc, COMDAT
; _this$ = ecx

; 795  : 	T* Alloc(unsigned int uiSize){

	push	esi
	push	edi

; 796  : 		T* pRet;
; 797  : 		if( uiSize > L ){

	mov	edi, DWORD PTR _uiSize$[esp+4]
	mov	esi, ecx
	cmp	edi, 1
	jbe	SHORT $LN2@Alloc@3

; 798  : 			pRet = (T*)FMALLOCALIGNED( uiSize*sizeof(T), __alignof(T), AllocPool, nSubID );

	push	798					; 0000031eH
	push	OFFSET ??_C@_0GH@ECFAPJEJ@c?3?2users?2enormousapplepie?2docume@
	lea	eax, DWORD PTR [edi*8]
	push	4
	push	eax
	call	?FireMallocAlignedNoTracking@@YAPAXIIPBDH@Z ; FireMallocAlignedNoTracking
	add	esp, 16					; 00000010H

; 799  : 			m_uiCurrMaxSize = uiSize;

	mov	DWORD PTR [esi+8], edi
	pop	edi
	pop	esi

; 803  : 		}
; 804  : 		return pRet;
; 805  : 	};

	ret	4
$LN2@Alloc@3:
	pop	edi

; 800  : 		}else{
; 801  : 			pRet = (T*)m_aData;

	lea	eax, DWORD PTR [esi+12]

; 802  : 			m_uiCurrMaxSize = L;

	mov	DWORD PTR [esi+8], 1
	pop	esi

; 803  : 		}
; 804  : 		return pRet;
; 805  : 	};

	ret	4
?Alloc@?$FStaticVector@UWeightedElement@?$CvWeightedVector@PAVCvPlot@@$00$00@@$00$00$0A@$0A@@@IAEPAUWeightedElement@?$CvWeightedVector@PAVCvPlot@@$00$00@@I@Z ENDP ; FStaticVector<CvWeightedVector<CvPlot *,1,1>::WeightedElement,1,1,0,0>::Alloc
_TEXT	ENDS
PUBLIC	??1?$BaseVector@UWeightedElement@?$CvWeightedVector@PAVCvPlot@@$00$00@@$00@@QAE@XZ ; BaseVector<CvWeightedVector<CvPlot *,1,1>::WeightedElement,1>::~BaseVector<CvWeightedVector<CvPlot *,1,1>::WeightedElement,1>
; Function compile flags: /Ogtpy
;	COMDAT ??1?$BaseVector@UWeightedElement@?$CvWeightedVector@PAVCvPlot@@$00$00@@$00@@QAE@XZ
_TEXT	SEGMENT
??1?$BaseVector@UWeightedElement@?$CvWeightedVector@PAVCvPlot@@$00$00@@$00@@QAE@XZ PROC ; BaseVector<CvWeightedVector<CvPlot *,1,1>::WeightedElement,1>::~BaseVector<CvWeightedVector<CvPlot *,1,1>::WeightedElement,1>, COMDAT
; _this$ = ecx

; 111  : 	~BaseVector(){};

	ret	0
??1?$BaseVector@UWeightedElement@?$CvWeightedVector@PAVCvPlot@@$00$00@@$00@@QAE@XZ ENDP ; BaseVector<CvWeightedVector<CvPlot *,1,1>::WeightedElement,1>::~BaseVector<CvWeightedVector<CvPlot *,1,1>::WeightedElement,1>
_TEXT	ENDS
PUBLIC	??0?$BaseVector@UWeightedElement@?$CvWeightedVector@PAVCvPlot@@$00$00@@$00@@IAE@XZ ; BaseVector<CvWeightedVector<CvPlot *,1,1>::WeightedElement,1>::BaseVector<CvWeightedVector<CvPlot *,1,1>::WeightedElement,1>
; Function compile flags: /Ogtpy
;	COMDAT ??0?$BaseVector@UWeightedElement@?$CvWeightedVector@PAVCvPlot@@$00$00@@$00@@IAE@XZ
_TEXT	SEGMENT
??0?$BaseVector@UWeightedElement@?$CvWeightedVector@PAVCvPlot@@$00$00@@$00@@IAE@XZ PROC ; BaseVector<CvWeightedVector<CvPlot *,1,1>::WeightedElement,1>::BaseVector<CvWeightedVector<CvPlot *,1,1>::WeightedElement,1>, COMDAT
; _this$ = ecx

; 216  : 	BaseVector() : m_uiCurrSize(0), m_uiCurrMaxSize(0), m_pData(NULL) {};

	mov	eax, ecx
	xor	ecx, ecx
	mov	DWORD PTR [eax], ecx
	mov	DWORD PTR [eax+4], ecx
	mov	DWORD PTR [eax+8], ecx
	ret	0
??0?$BaseVector@UWeightedElement@?$CvWeightedVector@PAVCvPlot@@$00$00@@$00@@IAE@XZ ENDP ; BaseVector<CvWeightedVector<CvPlot *,1,1>::WeightedElement,1>::BaseVector<CvWeightedVector<CvPlot *,1,1>::WeightedElement,1>
_TEXT	ENDS
PUBLIC	??0WeightedElement@?$CvWeightedVector@PAVCvPlot@@$00$00@@QAE@ABU01@@Z ; CvWeightedVector<CvPlot *,1,1>::WeightedElement::WeightedElement
; Function compile flags: /Ogtpy
; File c:\users\enormousapplepie\documents\github\lekmod\lekmod_dll\cvgamecoredllutil\include\cvweightedvector.h
;	COMDAT ??0WeightedElement@?$CvWeightedVector@PAVCvPlot@@$00$00@@QAE@ABU01@@Z
_TEXT	SEGMENT
_source$ = 8						; size = 4
??0WeightedElement@?$CvWeightedVector@PAVCvPlot@@$00$00@@QAE@ABU01@@Z PROC ; CvWeightedVector<CvPlot *,1,1>::WeightedElement::WeightedElement, COMDAT
; _this$ = ecx

; 37   : 		{

	mov	eax, ecx
	mov	ecx, DWORD PTR _source$[esp-4]
	mov	edx, DWORD PTR [ecx]
	mov	DWORD PTR [eax], edx
	mov	ecx, DWORD PTR [ecx+4]
	mov	DWORD PTR [eax+4], ecx

; 38   : 		}

	ret	4
??0WeightedElement@?$CvWeightedVector@PAVCvPlot@@$00$00@@QAE@ABU01@@Z ENDP ; CvWeightedVector<CvPlot *,1,1>::WeightedElement::WeightedElement
_TEXT	ENDS
PUBLIC	?max_size@?$allocator@UOperationSlot@@@std@@QBEIXZ ; std::allocator<OperationSlot>::max_size
; Function compile flags: /Ogtpy
; File c:\program files (x86)\microsoft visual studio 9.0\vc\include\xmemory
;	COMDAT ?max_size@?$allocator@UOperationSlot@@@std@@QBEIXZ
_TEXT	SEGMENT
?max_size@?$allocator@UOperationSlot@@@std@@QBEIXZ PROC	; std::allocator<OperationSlot>::max_size, COMDAT
; _this$ = ecx

; 165  : 		_SIZT _Count = (_SIZT)(-1) / sizeof (_Ty);
; 166  : 		return (0 < _Count ? _Count : 1);

	mov	eax, 357913941				; 15555555H

; 167  : 		}

	ret	0
?max_size@?$allocator@UOperationSlot@@@std@@QBEIXZ ENDP	; std::allocator<OperationSlot>::max_size
_TEXT	ENDS
PUBLIC	?Destroy@?$BaseVector@UWeightedElement@?$CvWeightedVector@PAVCvPlot@@$00$00@@$00@@IAEXPAUWeightedElement@?$CvWeightedVector@PAVCvPlot@@$00$00@@I@Z ; BaseVector<CvWeightedVector<CvPlot *,1,1>::WeightedElement,1>::Destroy
; Function compile flags: /Ogtpy
; File c:\users\enormousapplepie\documents\github\lekmod\lekmod_dll\fireplace\include\fireworks\ffastvector.h
;	COMDAT ?Destroy@?$BaseVector@UWeightedElement@?$CvWeightedVector@PAVCvPlot@@$00$00@@$00@@IAEXPAUWeightedElement@?$CvWeightedVector@PAVCvPlot@@$00$00@@I@Z
_TEXT	SEGMENT
_pVal$ = 8						; size = 4
_uiNumElements$ = 12					; size = 4
?Destroy@?$BaseVector@UWeightedElement@?$CvWeightedVector@PAVCvPlot@@$00$00@@$00@@IAEXPAUWeightedElement@?$CvWeightedVector@PAVCvPlot@@$00$00@@I@Z PROC ; BaseVector<CvWeightedVector<CvPlot *,1,1>::WeightedElement,1>::Destroy, COMDAT
; _this$ = ecx

; 221  : 		if( !bPODType){
; 222  : 			for(unsigned int i = 0; i < uiNumElements; ++i){
; 223  : 				pVal[i].~T();
; 224  : 			}
; 225  : 		}
; 226  : 	};

	ret	8
?Destroy@?$BaseVector@UWeightedElement@?$CvWeightedVector@PAVCvPlot@@$00$00@@$00@@IAEXPAUWeightedElement@?$CvWeightedVector@PAVCvPlot@@$00$00@@I@Z ENDP ; BaseVector<CvWeightedVector<CvPlot *,1,1>::WeightedElement,1>::Destroy
_TEXT	ENDS
PUBLIC	??Y?$_Vector_const_iterator@UOperationSlot@@V?$allocator@UOperationSlot@@@std@@@std@@QAEAAV01@H@Z ; std::_Vector_const_iterator<OperationSlot,std::allocator<OperationSlot> >::operator+=
; Function compile flags: /Ogtpy
; File c:\program files (x86)\microsoft visual studio 9.0\vc\include\vector
;	COMDAT ??Y?$_Vector_const_iterator@UOperationSlot@@V?$allocator@UOperationSlot@@@std@@@std@@QAEAAV01@H@Z
_TEXT	SEGMENT
__Off$ = 8						; size = 4
??Y?$_Vector_const_iterator@UOperationSlot@@V?$allocator@UOperationSlot@@@std@@@std@@QAEAAV01@H@Z PROC ; std::_Vector_const_iterator<OperationSlot,std::allocator<OperationSlot> >::operator+=, COMDAT
; _this$ = ecx

; 159  : 		{	// increment by integer

	mov	eax, ecx

; 160  : 		_SCL_SECURE_VALIDATE(this->_Has_container());
; 161  : 		_SCL_SECURE_VALIDATE_RANGE(
; 162  : 			_Myptr + _Off <= ((_Myvec *)(this->_Getmycont()))->_Mylast &&
; 163  : 			_Myptr + _Off >= ((_Myvec *)(this->_Getmycont()))->_Myfirst);
; 164  : 		_Myptr += _Off;

	mov	ecx, DWORD PTR __Off$[esp-4]
	lea	ecx, DWORD PTR [ecx+ecx*2]
	add	ecx, ecx
	add	ecx, ecx
	add	DWORD PTR [eax], ecx

; 165  : 		return (*this);
; 166  : 		}

	ret	4
??Y?$_Vector_const_iterator@UOperationSlot@@V?$allocator@UOperationSlot@@@std@@@std@@QAEAAV01@H@Z ENDP ; std::_Vector_const_iterator<OperationSlot,std::allocator<OperationSlot> >::operator+=
_TEXT	ENDS
PUBLIC	??$max@H@std@@YAABHABH0@Z			; std::max<int>
; Function compile flags: /Ogtpy
; File c:\program files (x86)\microsoft visual studio 9.0\vc\include\xutility
;	COMDAT ??$max@H@std@@YAABHABH0@Z
_TEXT	SEGMENT
__Left$ = 8						; size = 4
__Right$ = 12						; size = 4
??$max@H@std@@YAABHABH0@Z PROC				; std::max<int>, COMDAT

; 3384 : 	return (_DEBUG_LT(_Left, _Right) ? _Right : _Left);

	mov	eax, DWORD PTR __Left$[esp-4]
	mov	edx, DWORD PTR [eax]
	mov	ecx, DWORD PTR __Right$[esp-4]
	cmp	edx, DWORD PTR [ecx]
	jge	SHORT $LN4@max
	mov	eax, ecx
$LN4@max:

; 3385 : 	}

	ret	0
??$max@H@std@@YAABHABH0@Z ENDP				; std::max<int>
_TEXT	ENDS
PUBLIC	??$min@H@std@@YAABHABH0@Z			; std::min<int>
; Function compile flags: /Ogtpy
;	COMDAT ??$min@H@std@@YAABHABH0@Z
_TEXT	SEGMENT
__Left$ = 8						; size = 4
__Right$ = 12						; size = 4
??$min@H@std@@YAABHABH0@Z PROC				; std::min<int>, COMDAT

; 3399 : 	return (_DEBUG_LT(_Right, _Left) ? _Right : _Left);

	mov	eax, DWORD PTR __Right$[esp-4]
	mov	edx, DWORD PTR [eax]
	mov	ecx, DWORD PTR __Left$[esp-4]
	cmp	edx, DWORD PTR [ecx]
	jl	SHORT $LN4@min
	mov	eax, ecx
$LN4@min:

; 3400 : 	}

	ret	0
??$min@H@std@@YAABHABH0@Z ENDP				; std::min<int>
_TEXT	ENDS
PUBLIC	__TI2?AVbad_alloc@std@@
PUBLIC	??$_Allocate@UOperationSlot@@@std@@YAPAUOperationSlot@@IPAU1@@Z ; std::_Allocate<OperationSlot>
PUBLIC	__CTA2?AVbad_alloc@std@@
PUBLIC	__CT??_R0?AVbad_alloc@std@@@8??0bad_alloc@std@@QAE@ABV01@@Z12
PUBLIC	??0bad_alloc@std@@QAE@ABV01@@Z			; std::bad_alloc::bad_alloc
EXTRN	??2@YAPAXI@Z:PROC				; operator new
;	COMDAT __CT??_R0?AVbad_alloc@std@@@8??0bad_alloc@std@@QAE@ABV01@@Z12
; File c:\program files (x86)\microsoft visual studio 9.0\vc\include\exception
xdata$x	SEGMENT
__CT??_R0?AVbad_alloc@std@@@8??0bad_alloc@std@@QAE@ABV01@@Z12 DD 00H
	DD	FLAT:??_R0?AVbad_alloc@std@@@8
	DD	00H
	DD	0ffffffffH
	ORG $+4
	DD	0cH
	DD	FLAT:??0bad_alloc@std@@QAE@ABV01@@Z
xdata$x	ENDS
;	COMDAT __CTA2?AVbad_alloc@std@@
xdata$x	SEGMENT
__CTA2?AVbad_alloc@std@@ DD 02H
	DD	FLAT:__CT??_R0?AVbad_alloc@std@@@8??0bad_alloc@std@@QAE@ABV01@@Z12
	DD	FLAT:__CT??_R0?AVexception@std@@@8??0exception@std@@QAE@ABV01@@Z12
xdata$x	ENDS
;	COMDAT __TI2?AVbad_alloc@std@@
xdata$x	SEGMENT
__TI2?AVbad_alloc@std@@ DD 00H
	DD	FLAT:??1bad_alloc@std@@UAE@XZ
	DD	00H
	DD	FLAT:__CTA2?AVbad_alloc@std@@
; Function compile flags: /Ogtpy
; File c:\program files (x86)\microsoft visual studio 9.0\vc\include\xmemory
xdata$x	ENDS
;	COMDAT ??$_Allocate@UOperationSlot@@@std@@YAPAUOperationSlot@@IPAU1@@Z
_TEXT	SEGMENT
$T231158 = -12						; size = 12
$T231162 = 8						; size = 4
__Count$ = 8						; size = 4
___formal$ = 12						; size = 4
??$_Allocate@UOperationSlot@@@std@@YAPAUOperationSlot@@IPAU1@@Z PROC ; std::_Allocate<OperationSlot>, COMDAT

; 37   : 	if (_Count <= 0)

	mov	ecx, DWORD PTR __Count$[esp-4]
	sub	esp, 12					; 0000000cH
	test	ecx, ecx
	ja	SHORT $LN3@Allocate

; 38   : 		_Count = 0;

	xor	ecx, ecx
$LN1@Allocate:

; 41   : 
; 42   : 		// allocate storage for _Count elements of type _Ty
; 43   : 	return ((_Ty _FARQ *)::operator new(_Count * sizeof (_Ty)));

	lea	edx, DWORD PTR [ecx+ecx*2]
	add	edx, edx
	add	edx, edx
	push	edx
	call	??2@YAPAXI@Z				; operator new
	add	esp, 4

; 44   : 	}

	add	esp, 12					; 0000000cH
	ret	0
$LN3@Allocate:

; 39   : 	else if (((_SIZT)(-1) / _Count) < sizeof (_Ty))

	or	eax, -1
	xor	edx, edx
	div	ecx
	cmp	eax, 12					; 0000000cH
	jae	SHORT $LN1@Allocate

; 40   : 		_THROW_NCEE(std::bad_alloc, NULL);

	lea	eax, DWORD PTR $T231162[esp+8]
	push	eax
	lea	ecx, DWORD PTR $T231158[esp+16]
	mov	DWORD PTR $T231162[esp+12], 0
	call	DWORD PTR __imp_??0exception@std@@QAE@ABQBD@Z
	push	OFFSET __TI2?AVbad_alloc@std@@
	lea	ecx, DWORD PTR $T231158[esp+16]
	push	ecx
	mov	DWORD PTR $T231158[esp+20], OFFSET ??_7bad_alloc@std@@6B@
	call	__CxxThrowException@8
$LN9@Allocate:
$LN8@Allocate:
	int	3
??$_Allocate@UOperationSlot@@@std@@YAPAUOperationSlot@@IPAU1@@Z ENDP ; std::_Allocate<OperationSlot>
_TEXT	ENDS
PUBLIC	?begin@?$vector@UOperationSlot@@V?$allocator@UOperationSlot@@@std@@@std@@QBE?AV?$_Vector_const_iterator@UOperationSlot@@V?$allocator@UOperationSlot@@@std@@@2@XZ ; std::vector<OperationSlot,std::allocator<OperationSlot> >::begin
; Function compile flags: /Ogtpy
; File c:\program files (x86)\microsoft visual studio 9.0\vc\include\vector
;	COMDAT ?begin@?$vector@UOperationSlot@@V?$allocator@UOperationSlot@@@std@@@std@@QBE?AV?$_Vector_const_iterator@UOperationSlot@@V?$allocator@UOperationSlot@@@std@@@2@XZ
_TEXT	SEGMENT
___$ReturnUdt$ = 8					; size = 4
?begin@?$vector@UOperationSlot@@V?$allocator@UOperationSlot@@@std@@@std@@QBE?AV?$_Vector_const_iterator@UOperationSlot@@V?$allocator@UOperationSlot@@@std@@@2@XZ PROC ; std::vector<OperationSlot,std::allocator<OperationSlot> >::begin, COMDAT
; _this$ = ecx

; 672  : 		return (const_iterator(_Myfirst));

	mov	ecx, DWORD PTR [ecx+4]
	mov	eax, DWORD PTR ___$ReturnUdt$[esp-4]
	mov	DWORD PTR [eax], ecx

; 673  : 		}

	ret	4
?begin@?$vector@UOperationSlot@@V?$allocator@UOperationSlot@@@std@@@std@@QBE?AV?$_Vector_const_iterator@UOperationSlot@@V?$allocator@UOperationSlot@@@std@@@2@XZ ENDP ; std::vector<OperationSlot,std::allocator<OperationSlot> >::begin
_TEXT	ENDS
PUBLIC	?end@?$vector@UOperationSlot@@V?$allocator@UOperationSlot@@@std@@@std@@QBE?AV?$_Vector_const_iterator@UOperationSlot@@V?$allocator@UOperationSlot@@@std@@@2@XZ ; std::vector<OperationSlot,std::allocator<OperationSlot> >::end
; Function compile flags: /Ogtpy
;	COMDAT ?end@?$vector@UOperationSlot@@V?$allocator@UOperationSlot@@@std@@@std@@QBE?AV?$_Vector_const_iterator@UOperationSlot@@V?$allocator@UOperationSlot@@@std@@@2@XZ
_TEXT	SEGMENT
___$ReturnUdt$ = 8					; size = 4
?end@?$vector@UOperationSlot@@V?$allocator@UOperationSlot@@@std@@@std@@QBE?AV?$_Vector_const_iterator@UOperationSlot@@V?$allocator@UOperationSlot@@@std@@@2@XZ PROC ; std::vector<OperationSlot,std::allocator<OperationSlot> >::end, COMDAT
; _this$ = ecx

; 682  : 		return (const_iterator(_Mylast));

	mov	ecx, DWORD PTR [ecx+8]
	mov	eax, DWORD PTR ___$ReturnUdt$[esp-4]
	mov	DWORD PTR [eax], ecx

; 683  : 		}

	ret	4
?end@?$vector@UOperationSlot@@V?$allocator@UOperationSlot@@@std@@@std@@QBE?AV?$_Vector_const_iterator@UOperationSlot@@V?$allocator@UOperationSlot@@@std@@@2@XZ ENDP ; std::vector<OperationSlot,std::allocator<OperationSlot> >::end
_TEXT	ENDS
PUBLIC	??$_Dist_type@PAVCvOperationSearchUnit@@@std@@YAPAHPAVCvOperationSearchUnit@@@Z ; std::_Dist_type<CvOperationSearchUnit *>
; Function compile flags: /Ogtpy
; File c:\program files (x86)\microsoft visual studio 9.0\vc\include\xutility
;	COMDAT ??$_Dist_type@PAVCvOperationSearchUnit@@@std@@YAPAHPAVCvOperationSearchUnit@@@Z
_TEXT	SEGMENT
___formal$ = 8						; size = 4
??$_Dist_type@PAVCvOperationSearchUnit@@@std@@YAPAHPAVCvOperationSearchUnit@@@Z PROC ; std::_Dist_type<CvOperationSearchUnit *>, COMDAT

; 1831 : 	return (0);

	xor	eax, eax

; 1832 : 	}

	ret	0
??$_Dist_type@PAVCvOperationSearchUnit@@@std@@YAPAHPAVCvOperationSearchUnit@@@Z ENDP ; std::_Dist_type<CvOperationSearchUnit *>
_TEXT	ENDS
PUBLIC	??$_Val_type@PAVCvOperationSearchUnit@@@std@@YAPAVCvOperationSearchUnit@@PAV1@@Z ; std::_Val_type<CvOperationSearchUnit *>
; Function compile flags: /Ogtpy
;	COMDAT ??$_Val_type@PAVCvOperationSearchUnit@@@std@@YAPAVCvOperationSearchUnit@@PAV1@@Z
_TEXT	SEGMENT
___formal$ = 8						; size = 4
??$_Val_type@PAVCvOperationSearchUnit@@@std@@YAPAVCvOperationSearchUnit@@PAV1@@Z PROC ; std::_Val_type<CvOperationSearchUnit *>, COMDAT

; 1766 : 	return (0);

	xor	eax, eax

; 1767 : 	}

	ret	0
??$_Val_type@PAVCvOperationSearchUnit@@@std@@YAPAVCvOperationSearchUnit@@PAV1@@Z ENDP ; std::_Val_type<CvOperationSearchUnit *>
_TEXT	ENDS
PUBLIC	??$_Iter_random@PAUOperationSlot@@PAU1@@std@@YA?AUrandom_access_iterator_tag@0@ABQAUOperationSlot@@0@Z ; std::_Iter_random<OperationSlot *,OperationSlot *>
; Function compile flags: /Ogtpy
;	COMDAT ??$_Iter_random@PAUOperationSlot@@PAU1@@std@@YA?AUrandom_access_iterator_tag@0@ABQAUOperationSlot@@0@Z
_TEXT	SEGMENT
___$ReturnUdt$ = 8					; size = 4
___formal$ = 12						; size = 4
___formal$ = 16						; size = 4
??$_Iter_random@PAUOperationSlot@@PAU1@@std@@YA?AUrandom_access_iterator_tag@0@ABQAUOperationSlot@@0@Z PROC ; std::_Iter_random<OperationSlot *,OperationSlot *>, COMDAT

; 994  : 	typename _Iter_random_helper<
; 995  : 		iterator_traits<_Iter1>::iterator_category, 
; 996  : 		iterator_traits<_Iter2>::iterator_category>::_Iter_random_cat _Cat;
; 997  : 	return (_Cat);

	mov	eax, DWORD PTR ___$ReturnUdt$[esp-4]

; 998  : 	}

	ret	0
??$_Iter_random@PAUOperationSlot@@PAU1@@std@@YA?AUrandom_access_iterator_tag@0@ABQAUOperationSlot@@0@Z ENDP ; std::_Iter_random<OperationSlot *,OperationSlot *>
_TEXT	ENDS
PUBLIC	??$_Ptr_cat@PAUOperationSlot@@PAU1@@std@@YA?AU_Nonscalar_ptr_iterator_tag@0@AAPAUOperationSlot@@0@Z ; std::_Ptr_cat<OperationSlot *,OperationSlot *>
; Function compile flags: /Ogtpy
;	COMDAT ??$_Ptr_cat@PAUOperationSlot@@PAU1@@std@@YA?AU_Nonscalar_ptr_iterator_tag@0@AAPAUOperationSlot@@0@Z
_TEXT	SEGMENT
__Cat$ = -1						; size = 1
___formal$ = 8						; size = 4
___formal$ = 12						; size = 4
??$_Ptr_cat@PAUOperationSlot@@PAU1@@std@@YA?AU_Nonscalar_ptr_iterator_tag@0@AAPAUOperationSlot@@0@Z PROC ; std::_Ptr_cat<OperationSlot *,OperationSlot *>, COMDAT

; 1509 : 	{

	push	ecx

; 1510 : 	typename _Ptr_cat_helper<_T1, _T2>::_Ptr_cat _Cat;
; 1511 : 	return (_Cat);

	mov	al, BYTE PTR __Cat$[esp+4]

; 1512 : 	}

	pop	ecx
	ret	0
??$_Ptr_cat@PAUOperationSlot@@PAU1@@std@@YA?AU_Nonscalar_ptr_iterator_tag@0@AAPAUOperationSlot@@0@Z ENDP ; std::_Ptr_cat<OperationSlot *,OperationSlot *>
_TEXT	ENDS
PUBLIC	??$_Copy_opt@PAUOperationSlot@@PAU1@Urandom_access_iterator_tag@std@@@std@@YAPAUOperationSlot@@PAU1@00Urandom_access_iterator_tag@0@U_Nonscalar_ptr_iterator_tag@0@U_Range_checked_iterator_tag@0@@Z ; std::_Copy_opt<OperationSlot *,OperationSlot *,std::random_access_iterator_tag>
; Function compile flags: /Ogtpy
;	COMDAT ??$_Copy_opt@PAUOperationSlot@@PAU1@Urandom_access_iterator_tag@std@@@std@@YAPAUOperationSlot@@PAU1@00Urandom_access_iterator_tag@0@U_Nonscalar_ptr_iterator_tag@0@U_Range_checked_iterator_tag@0@@Z
_TEXT	SEGMENT
__First$ = 8						; size = 4
__Last$ = 12						; size = 4
__Dest$ = 16						; size = 4
___formal$ = 20						; size = 1
___formal$ = 24						; size = 1
___formal$ = 28						; size = 1
??$_Copy_opt@PAUOperationSlot@@PAU1@Urandom_access_iterator_tag@std@@@std@@YAPAUOperationSlot@@PAU1@00Urandom_access_iterator_tag@0@U_Nonscalar_ptr_iterator_tag@0@U_Range_checked_iterator_tag@0@@Z PROC ; std::_Copy_opt<OperationSlot *,OperationSlot *,std::random_access_iterator_tag>, COMDAT

; 2470 : 	_DEBUG_RANGE(_First, _Last);
; 2471 : 	for (; _First != _Last; ++_Dest, ++_First)

	mov	ecx, DWORD PTR __First$[esp-4]
	mov	edx, DWORD PTR __Last$[esp-4]
	mov	eax, DWORD PTR __Dest$[esp-4]
	cmp	ecx, edx
	je	SHORT $LN1@Copy_opt
	push	esi
$LL3@Copy_opt:

; 2472 : 		*_Dest = *_First;

	mov	esi, DWORD PTR [ecx]
	mov	DWORD PTR [eax], esi
	mov	esi, DWORD PTR [ecx+4]
	mov	DWORD PTR [eax+4], esi
	mov	esi, DWORD PTR [ecx+8]
	mov	DWORD PTR [eax+8], esi
	add	ecx, 12					; 0000000cH
	add	eax, 12					; 0000000cH
	cmp	ecx, edx
	jne	SHORT $LL3@Copy_opt
	pop	esi
$LN1@Copy_opt:

; 2473 : 	return (_Dest);
; 2474 : 	}

	ret	0
??$_Copy_opt@PAUOperationSlot@@PAU1@Urandom_access_iterator_tag@std@@@std@@YAPAUOperationSlot@@PAU1@00Urandom_access_iterator_tag@0@U_Nonscalar_ptr_iterator_tag@0@U_Range_checked_iterator_tag@0@@Z ENDP ; std::_Copy_opt<OperationSlot *,OperationSlot *,std::random_access_iterator_tag>
_TEXT	ENDS
PUBLIC	??0CvString@@QAE@XZ				; CvString::CvString
EXTRN	__imp_??0?$basic_string@DU?$char_traits@D@std@@V?$allocator@D@2@@std@@QAE@XZ:PROC
; Function compile flags: /Ogtpy
; File c:\users\enormousapplepie\documents\github\lekmod\lekmod_dll\cvgamecoredllutil\include\cvstring.h
;	COMDAT ??0CvString@@QAE@XZ
_TEXT	SEGMENT
??0CvString@@QAE@XZ PROC				; CvString::CvString, COMDAT
; _this$ = ecx

; 23   : 	CvString() {}

	push	esi
	mov	esi, ecx
	call	DWORD PTR __imp_??0?$basic_string@DU?$char_traits@D@std@@V?$allocator@D@2@@std@@QAE@XZ
	mov	eax, esi
	pop	esi
	ret	0
??0CvString@@QAE@XZ ENDP				; CvString::CvString
_TEXT	ENDS
PUBLIC	??_C@_00CNPNBAHC@?$AA@				; `string'
PUBLIC	??0CvString@@QAE@PBD@Z				; CvString::CvString
;	COMDAT ??_C@_00CNPNBAHC@?$AA@
CONST	SEGMENT
??_C@_00CNPNBAHC@?$AA@ DB 00H				; `string'
; Function compile flags: /Ogtpy
CONST	ENDS
;	COMDAT ??0CvString@@QAE@PBD@Z
_TEXT	SEGMENT
_s$ = 8							; size = 4
??0CvString@@QAE@PBD@Z PROC				; CvString::CvString, COMDAT
; _this$ = ecx

; 25   : 	CvString(const char* s) : std::string(s ? s : "") {CvAssertMsg(s != NULL, "Passing NULL to std::string; possible heap corruption!");}

	mov	eax, DWORD PTR _s$[esp-4]
	push	esi
	mov	esi, ecx
	test	eax, eax
	jne	SHORT $LN4@CvString
	mov	eax, OFFSET ??_C@_00CNPNBAHC@?$AA@
$LN4@CvString:
	push	eax
	call	DWORD PTR __imp_??0?$basic_string@DU?$char_traits@D@std@@V?$allocator@D@2@@std@@QAE@PBD@Z
	mov	eax, esi
	pop	esi
	ret	4
??0CvString@@QAE@PBD@Z ENDP				; CvString::CvString
_TEXT	ENDS
PUBLIC	??1CvString@@QAE@XZ				; CvString::~CvString
; Function compile flags: /Ogtpy
;	COMDAT ??1CvString@@QAE@XZ
_TEXT	SEGMENT
??1CvString@@QAE@XZ PROC				; CvString::~CvString, COMDAT
; _this$ = ecx

; 28   : 	~CvString() {}

	jmp	DWORD PTR __imp_??1?$basic_string@DU?$char_traits@D@std@@V?$allocator@D@2@@std@@QAE@XZ
??1CvString@@QAE@XZ ENDP				; CvString::~CvString
_TEXT	ENDS
PUBLIC	??BCvString@@QBEPBDXZ				; CvString::operator char const *
; Function compile flags: /Ogtpy
;	COMDAT ??BCvString@@QBEPBDXZ
_TEXT	SEGMENT
??BCvString@@QBEPBDXZ PROC				; CvString::operator char const *, COMDAT
; _this$ = ecx

; 31   : 	operator const char*() const 	{ return c_str(); }												

	jmp	DWORD PTR __imp_?c_str@?$basic_string@DU?$char_traits@D@std@@V?$allocator@D@2@@std@@QBEPBDXZ
??BCvString@@QBEPBDXZ ENDP				; CvString::operator char const *
_TEXT	ENDS
PUBLIC	??$_Fill@PAUOperationSlot@@U1@@std@@YAXPAUOperationSlot@@0ABU1@@Z ; std::_Fill<OperationSlot *,OperationSlot>
; Function compile flags: /Ogtpy
; File c:\program files (x86)\microsoft visual studio 9.0\vc\include\xutility
;	COMDAT ??$_Fill@PAUOperationSlot@@U1@@std@@YAXPAUOperationSlot@@0ABU1@@Z
_TEXT	SEGMENT
__First$ = 8						; size = 4
__Last$ = 12						; size = 4
__Val$ = 16						; size = 4
??$_Fill@PAUOperationSlot@@U1@@std@@YAXPAUOperationSlot@@0ABU1@@Z PROC ; std::_Fill<OperationSlot *,OperationSlot>, COMDAT

; 3157 : 	_DEBUG_RANGE(_First, _Last);
; 3158 : 	for (; _First != _Last; ++_First)

	mov	eax, DWORD PTR __First$[esp-4]
	mov	edx, DWORD PTR __Last$[esp-4]
	cmp	eax, edx
	je	SHORT $LN1@Fill
	mov	ecx, DWORD PTR __Val$[esp-4]
	push	esi
$LL3@Fill:

; 3159 : 		*_First = _Val;

	mov	esi, DWORD PTR [ecx]
	mov	DWORD PTR [eax], esi
	mov	esi, DWORD PTR [ecx+4]
	mov	DWORD PTR [eax+4], esi
	mov	esi, DWORD PTR [ecx+8]
	mov	DWORD PTR [eax+8], esi
	add	eax, 12					; 0000000cH
	cmp	eax, edx
	jne	SHORT $LL3@Fill
	pop	esi
$LN1@Fill:

; 3160 : 	}

	ret	0
??$_Fill@PAUOperationSlot@@U1@@std@@YAXPAUOperationSlot@@0ABU1@@Z ENDP ; std::_Fill<OperationSlot *,OperationSlot>
_TEXT	ENDS
PUBLIC	??4CvString@@QAEAAV0@PBD@Z			; CvString::operator=
EXTRN	__imp_?clear@?$basic_string@DU?$char_traits@D@std@@V?$allocator@D@2@@std@@QAEXXZ:PROC
EXTRN	__imp_?assign@?$basic_string@DU?$char_traits@D@std@@V?$allocator@D@2@@std@@QAEAAV12@PBD@Z:PROC
; Function compile flags: /Ogtpy
; File c:\users\enormousapplepie\documents\github\lekmod\lekmod_dll\cvgamecoredllutil\include\cvstring.h
;	COMDAT ??4CvString@@QAEAAV0@PBD@Z
_TEXT	SEGMENT
_s$ = 8							; size = 4
??4CvString@@QAEAAV0@PBD@Z PROC				; CvString::operator=, COMDAT
; _this$ = ecx

; 37   : 	CvString& operator=( const char* s) { if (s) assign(s); else clear();	return *this; }	

	mov	eax, DWORD PTR _s$[esp-4]
	push	esi
	mov	esi, ecx
	test	eax, eax
	je	SHORT $LN2@operator
	push	eax
	call	DWORD PTR __imp_?assign@?$basic_string@DU?$char_traits@D@std@@V?$allocator@D@2@@std@@QAEAAV12@PBD@Z
	mov	eax, esi
	pop	esi
	ret	4
$LN2@operator:
	call	DWORD PTR __imp_?clear@?$basic_string@DU?$char_traits@D@std@@V?$allocator@D@2@@std@@QAEXXZ
	mov	eax, esi
	pop	esi
	ret	4
??4CvString@@QAEAAV0@PBD@Z ENDP				; CvString::operator=
_TEXT	ENDS
PUBLIC	??$_Move_cat@PAUOperationSlot@@@std@@YA?AU_Undefined_move_tag@0@ABQAUOperationSlot@@@Z ; std::_Move_cat<OperationSlot *>
; Function compile flags: /Ogtpy
; File c:\program files (x86)\microsoft visual studio 9.0\vc\include\xutility
;	COMDAT ??$_Move_cat@PAUOperationSlot@@@std@@YA?AU_Undefined_move_tag@0@ABQAUOperationSlot@@@Z
_TEXT	SEGMENT
__Cat$ = -1						; size = 1
___formal$ = 8						; size = 4
??$_Move_cat@PAUOperationSlot@@@std@@YA?AU_Undefined_move_tag@0@ABQAUOperationSlot@@@Z PROC ; std::_Move_cat<OperationSlot *>, COMDAT

; 1200 : 	{

	push	ecx

; 1201 : 		typename _Move_operation_category<typename iterator_traits<_Iter>::value_type>::_Move_cat _Cat;
; 1202 : 		return (_Cat);

	mov	al, BYTE PTR __Cat$[esp+4]

; 1203 : 	}

	pop	ecx
	ret	0
??$_Move_cat@PAUOperationSlot@@@std@@YA?AU_Undefined_move_tag@0@ABQAUOperationSlot@@@Z ENDP ; std::_Move_cat<OperationSlot *>
_TEXT	ENDS
PUBLIC	??4CvString@@QAEAAV0@ABV?$basic_string@DU?$char_traits@D@std@@V?$allocator@D@2@@std@@@Z ; CvString::operator=
; Function compile flags: /Ogtpy
; File c:\users\enormousapplepie\documents\github\lekmod\lekmod_dll\cvgamecoredllutil\include\cvstring.h
;	COMDAT ??4CvString@@QAEAAV0@ABV?$basic_string@DU?$char_traits@D@std@@V?$allocator@D@2@@std@@@Z
_TEXT	SEGMENT
_s$ = 8							; size = 4
??4CvString@@QAEAAV0@ABV?$basic_string@DU?$char_traits@D@std@@V?$allocator@D@2@@std@@@Z PROC ; CvString::operator=, COMDAT
; _this$ = ecx

; 38   : 	CvString& operator=( const std::string& s) { assign(s.c_str());	return *this; }	

	push	esi
	mov	esi, ecx
	mov	ecx, DWORD PTR _s$[esp]
	call	DWORD PTR __imp_?c_str@?$basic_string@DU?$char_traits@D@std@@V?$allocator@D@2@@std@@QBEPBDXZ
	push	eax
	mov	ecx, esi
	call	DWORD PTR __imp_?assign@?$basic_string@DU?$char_traits@D@std@@V?$allocator@D@2@@std@@QAEAAV12@PBD@Z
	mov	eax, esi
	pop	esi
	ret	4
??4CvString@@QAEAAV0@ABV?$basic_string@DU?$char_traits@D@std@@V?$allocator@D@2@@std@@@Z ENDP ; CvString::operator=
_TEXT	ENDS
PUBLIC	?GetCString@CvString@@QBEPBDXZ			; CvString::GetCString
; Function compile flags: /Ogtpy
;	COMDAT ?GetCString@CvString@@QBEPBDXZ
_TEXT	SEGMENT
?GetCString@CvString@@QBEPBDXZ PROC			; CvString::GetCString, COMDAT
; _this$ = ecx

; 42   : 	const char* GetCString() const 	{ return c_str(); }

	jmp	DWORD PTR __imp_?c_str@?$basic_string@DU?$char_traits@D@std@@V?$allocator@D@2@@std@@QBEPBDXZ
?GetCString@CvString@@QBEPBDXZ ENDP			; CvString::GetCString
_TEXT	ENDS
PUBLIC	??0?$_Temp_iterator@VCvOperationSearchUnit@@@std@@QAE@H@Z ; std::_Temp_iterator<CvOperationSearchUnit>::_Temp_iterator<CvOperationSearchUnit>
; Function compile flags: /Ogtpy
; File c:\program files (x86)\microsoft visual studio 9.0\vc\include\memory
;	COMDAT ??0?$_Temp_iterator@VCvOperationSearchUnit@@@std@@QAE@H@Z
_TEXT	SEGMENT
__Count$ = 8						; size = 4
??0?$_Temp_iterator@VCvOperationSearchUnit@@@std@@QAE@H@Z PROC ; std::_Temp_iterator<CvOperationSearchUnit>::_Temp_iterator<CvOperationSearchUnit>, COMDAT
; _this$ = ecx

; 526  : 	_Temp_iterator(_PDFT _Count = 0)

	mov	eax, ecx

; 527  : 		{	// construct from desired temporary buffer size
; 528  : 		_Buf._Begin = 0;

	xor	ecx, ecx
	mov	DWORD PTR [eax], ecx

; 529  : 		_Buf._Current = 0;

	mov	DWORD PTR [eax+4], ecx

; 530  : 		_Buf._Hiwater = 0;

	mov	DWORD PTR [eax+8], ecx

; 531  : 		_Buf._Size = _Count;	// memorize size for lazy allocation

	mov	ecx, DWORD PTR __Count$[esp-4]
	mov	DWORD PTR [eax+12], ecx

; 532  : 		_Pbuf = &_Buf;

	mov	DWORD PTR [eax+16], eax

; 533  : 		}

	ret	4
??0?$_Temp_iterator@VCvOperationSearchUnit@@@std@@QAE@H@Z ENDP ; std::_Temp_iterator<CvOperationSearchUnit>::_Temp_iterator<CvOperationSearchUnit>
_TEXT	ENDS
PUBLIC	?formatv@CvString@@SA_NAAV?$basic_string@DU?$char_traits@D@std@@V?$allocator@D@2@@std@@PBDPAD@Z ; CvString::formatv
EXTRN	__imp_??4?$basic_string@DU?$char_traits@D@std@@V?$allocator@D@2@@std@@QAEAAV01@PBD@Z:PROC
EXTRN	??_U@YAPAXI@Z:PROC				; operator new[]
EXTRN	??_V@YAXPAX@Z:PROC				; operator delete[]
EXTRN	__imp___vsnprintf:PROC
; Function compile flags: /Ogtpy
; File c:\users\enormousapplepie\documents\github\lekmod\lekmod_dll\cvgamecoredllutil\include\cvstring.h
;	COMDAT ?formatv@CvString@@SA_NAAV?$basic_string@DU?$char_traits@D@std@@V?$allocator@D@2@@std@@PBDPAD@Z
_TEXT	SEGMENT
_buf$ = -2048						; size = 2048
_out$ = 8						; size = 4
_fmt$ = 12						; size = 4
_args$ = 16						; size = 4
?formatv@CvString@@SA_NAAV?$basic_string@DU?$char_traits@D@std@@V?$allocator@D@2@@std@@PBDPAD@Z PROC ; CvString::formatv, COMDAT

; 191  : {

	sub	esp, 2048				; 00000800H
	push	ebx
	push	ebp

; 192  : 	char buf[2048];
; 193  : 	char * pbuf = buf;

	mov	ebp, DWORD PTR _args$[esp+2052]
	push	esi
	push	edi
	lea	edi, DWORD PTR _buf$[esp+2064]
	mov	esi, 2047				; 000007ffH
	npad	6
$LL10@formatv:

; 194  : 	int len = 0;
; 195  : 	int attempts = 0;
; 196  : 	bool success = false;
; 197  : 	const int kMaxAttempts = 40;
; 198  : 
; 199  : 	do
; 200  : 	{
; 201  : 		int maxlen = 2047+2048*attempts;
; 202  : 		len = _vsnprintf(pbuf,maxlen,fmt,args);

	mov	eax, DWORD PTR _fmt$[esp+2060]
	push	ebp
	push	eax
	push	esi
	push	edi
	mov	ebx, esi
	call	DWORD PTR __imp___vsnprintf
	add	esp, 16					; 00000010H

; 203  : 		attempts++;

	add	esi, 2048				; 00000800H

; 204  : 		success = (len>=0 && len<=maxlen);

	test	eax, eax
	jl	SHORT $LN13@formatv
	cmp	eax, ebx
	jle	SHORT $LN18@formatv
$LN13@formatv:

; 205  : 		if (!success)
; 206  : 		{
; 207  : 			if (pbuf!=buf)

	lea	ecx, DWORD PTR _buf$[esp+2064]
	xor	bl, bl
	cmp	edi, ecx
	je	SHORT $LN6@formatv

; 208  : 				delete [] pbuf;

	push	edi
	call	??_V@YAXPAX@Z				; operator delete[]
	add	esp, 4
$LN6@formatv:

; 209  : 			pbuf = new char[2048+2048*attempts];

	lea	edx, DWORD PTR [esi+1]
	push	edx
	call	??_U@YAPAXI@Z				; operator new[]
	add	esp, 4

; 210  : 		}
; 211  : 	}
; 212  : 	while (!success && attempts<kMaxAttempts);

	cmp	esi, 83967				; 000147ffH
	mov	edi, eax
	jl	SHORT $LL10@formatv

; 222  : 		out = "";

	push	OFFSET ??_C@_00CNPNBAHC@?$AA@
$LN21@formatv:
	mov	ecx, DWORD PTR _out$[esp+2064]
	call	DWORD PTR __imp_??4?$basic_string@DU?$char_traits@D@std@@V?$allocator@D@2@@std@@QAEAAV01@PBD@Z

; 223  : 
; 224  : 	if (pbuf!=buf)

	lea	eax, DWORD PTR _buf$[esp+2064]
	cmp	edi, eax
	je	SHORT $LN20@formatv

; 225  : 		delete [] pbuf;

	push	edi
	call	??_V@YAXPAX@Z				; operator delete[]
	add	esp, 4
$LN20@formatv:
	pop	edi
	pop	esi
	pop	ebp

; 226  : 
; 227  : 	return success;

	mov	al, bl
	pop	ebx

; 228  : }

	add	esp, 2048				; 00000800H
	ret	0
$LN18@formatv:

; 204  : 		success = (len>=0 && len<=maxlen);

	mov	bl, 1

; 213  : 
; 214  : 	if ( attempts==kMaxAttempts )
; 215  : 	{
; 216  : 		// dxPrintNL( "CvString::formatv - Max reallocs occurred while formatting string. Result is likely truncated!", 0 );
; 217  : 	}
; 218  : 
; 219  : 	if (success)
; 220  : 		out = pbuf;

	push	edi

; 221  : 	else

	jmp	SHORT $LN21@formatv
?formatv@CvString@@SA_NAAV?$basic_string@DU?$char_traits@D@std@@V?$allocator@D@2@@std@@PBDPAD@Z ENDP ; CvString::formatv
_TEXT	ENDS
PUBLIC	??$_Copy_backward_opt@PAUOperationSlot@@PAU1@Urandom_access_iterator_tag@std@@@std@@YAPAUOperationSlot@@PAU1@00Urandom_access_iterator_tag@0@U_Nonscalar_ptr_iterator_tag@0@U_Range_checked_iterator_tag@0@@Z ; std::_Copy_backward_opt<OperationSlot *,OperationSlot *,std::random_access_iterator_tag>
; Function compile flags: /Ogtpy
; File c:\program files (x86)\microsoft visual studio 9.0\vc\include\xutility
;	COMDAT ??$_Copy_backward_opt@PAUOperationSlot@@PAU1@Urandom_access_iterator_tag@std@@@std@@YAPAUOperationSlot@@PAU1@00Urandom_access_iterator_tag@0@U_Nonscalar_ptr_iterator_tag@0@U_Range_checked_iterator_tag@0@@Z
_TEXT	SEGMENT
__First$ = 8						; size = 4
__Last$ = 12						; size = 4
__Dest$ = 16						; size = 4
___formal$ = 20						; size = 1
___formal$ = 24						; size = 1
___formal$ = 28						; size = 1
??$_Copy_backward_opt@PAUOperationSlot@@PAU1@Urandom_access_iterator_tag@std@@@std@@YAPAUOperationSlot@@PAU1@00Urandom_access_iterator_tag@0@U_Nonscalar_ptr_iterator_tag@0@U_Range_checked_iterator_tag@0@@Z PROC ; std::_Copy_backward_opt<OperationSlot *,OperationSlot *,std::random_access_iterator_tag>, COMDAT

; 2674 : 	_DEBUG_RANGE(_First, _Last);
; 2675 : 	while (_First != _Last)

	mov	edx, DWORD PTR __First$[esp-4]
	mov	ecx, DWORD PTR __Last$[esp-4]
	mov	eax, DWORD PTR __Dest$[esp-4]
	cmp	edx, ecx
	je	SHORT $LN1@Copy_backw
	push	esi
$LL2@Copy_backw:

; 2676 : 		*--_Dest = *--_Last;

	mov	esi, DWORD PTR [ecx-12]
	sub	ecx, 12					; 0000000cH
	sub	eax, 12					; 0000000cH
	mov	DWORD PTR [eax], esi
	mov	esi, DWORD PTR [ecx+4]
	mov	DWORD PTR [eax+4], esi
	mov	esi, DWORD PTR [ecx+8]
	mov	DWORD PTR [eax+8], esi
	cmp	ecx, edx
	jne	SHORT $LL2@Copy_backw
	pop	esi
$LN1@Copy_backw:

; 2677 : 	return (_Dest);
; 2678 : 	}

	ret	0
??$_Copy_backward_opt@PAUOperationSlot@@PAU1@Urandom_access_iterator_tag@std@@@std@@YAPAUOperationSlot@@PAU1@00Urandom_access_iterator_tag@0@U_Nonscalar_ptr_iterator_tag@0@U_Range_checked_iterator_tag@0@@Z ENDP ; std::_Copy_backward_opt<OperationSlot *,OperationSlot *,std::random_access_iterator_tag>
_TEXT	ENDS
PUBLIC	??$_Construct@UOperationSlot@@U1@@std@@YAXPAUOperationSlot@@ABU1@@Z ; std::_Construct<OperationSlot,OperationSlot>
; Function compile flags: /Ogtpy
; File c:\program files (x86)\microsoft visual studio 9.0\vc\include\xmemory
;	COMDAT ??$_Construct@UOperationSlot@@U1@@std@@YAXPAUOperationSlot@@ABU1@@Z
_TEXT	SEGMENT
__Ptr$ = 8						; size = 4
__Val$ = 12						; size = 4
??$_Construct@UOperationSlot@@U1@@std@@YAXPAUOperationSlot@@ABU1@@Z PROC ; std::_Construct<OperationSlot,OperationSlot>, COMDAT

; 51   : 	void _FARQ *_Vptr = _Ptr;
; 52   : 	::new (_Vptr) _T1(_Val);

	mov	eax, DWORD PTR __Ptr$[esp-4]
	test	eax, eax
	je	SHORT $LN3@Construct
	mov	ecx, DWORD PTR __Val$[esp-4]
	mov	edx, DWORD PTR [ecx]
	mov	DWORD PTR [eax], edx
	mov	edx, DWORD PTR [ecx+4]
	mov	DWORD PTR [eax+4], edx
	mov	ecx, DWORD PTR [ecx+8]
	mov	DWORD PTR [eax+8], ecx
$LN3@Construct:

; 53   : 	}

	ret	0
??$_Construct@UOperationSlot@@U1@@std@@YAXPAUOperationSlot@@ABU1@@Z ENDP ; std::_Construct<OperationSlot,OperationSlot>
_TEXT	ENDS
PUBLIC	??$_Destroy@UOperationSlot@@@std@@YAXPAUOperationSlot@@@Z ; std::_Destroy<OperationSlot>
; Function compile flags: /Ogtpy
;	COMDAT ??$_Destroy@UOperationSlot@@@std@@YAXPAUOperationSlot@@@Z
_TEXT	SEGMENT
__Ptr$ = 8						; size = 4
??$_Destroy@UOperationSlot@@@std@@YAXPAUOperationSlot@@@Z PROC ; std::_Destroy<OperationSlot>, COMDAT

; 59   : 	_DESTRUCTOR(_Ty, _Ptr);
; 60   : 	}

	ret	0
??$_Destroy@UOperationSlot@@@std@@YAXPAUOperationSlot@@@Z ENDP ; std::_Destroy<OperationSlot>
_TEXT	ENDS
PUBLIC	??$_Destroy@VCvOperationSearchUnit@@@std@@YAXPAVCvOperationSearchUnit@@@Z ; std::_Destroy<CvOperationSearchUnit>
; Function compile flags: /Ogtpy
;	COMDAT ??$_Destroy@VCvOperationSearchUnit@@@std@@YAXPAVCvOperationSearchUnit@@@Z
_TEXT	SEGMENT
__Ptr$ = 8						; size = 4
??$_Destroy@VCvOperationSearchUnit@@@std@@YAXPAVCvOperationSearchUnit@@@Z PROC ; std::_Destroy<CvOperationSearchUnit>, COMDAT

; 59   : 	_DESTRUCTOR(_Ty, _Ptr);
; 60   : 	}

	ret	0
??$_Destroy@VCvOperationSearchUnit@@@std@@YAXPAVCvOperationSearchUnit@@@Z ENDP ; std::_Destroy<CvOperationSearchUnit>
_TEXT	ENDS
PUBLIC	??$return_temporary_buffer@VCvOperationSearchUnit@@@std@@YAXPAVCvOperationSearchUnit@@@Z ; std::return_temporary_buffer<CvOperationSearchUnit>
; Function compile flags: /Ogtpy
; File c:\program files (x86)\microsoft visual studio 9.0\vc\include\memory
;	COMDAT ??$return_temporary_buffer@VCvOperationSearchUnit@@@std@@YAXPAVCvOperationSearchUnit@@@Z
_TEXT	SEGMENT
__Pbuf$ = 8						; size = 4
??$return_temporary_buffer@VCvOperationSearchUnit@@@std@@YAXPAVCvOperationSearchUnit@@@Z PROC ; std::return_temporary_buffer<CvOperationSearchUnit>, COMDAT

; 39   : 	operator delete(_Pbuf);

	jmp	??3@YAXPAX@Z				; operator delete
??$return_temporary_buffer@VCvOperationSearchUnit@@@std@@YAXPAVCvOperationSearchUnit@@@Z ENDP ; std::return_temporary_buffer<CvOperationSearchUnit>
_TEXT	ENDS
PUBLIC	??MWeightedElement@?$CvWeightedVector@PAVCvPlot@@$00$00@@QBE_NABU01@@Z ; CvWeightedVector<CvPlot *,1,1>::WeightedElement::operator<
; Function compile flags: /Ogtpy
; File c:\users\enormousapplepie\documents\github\lekmod\lekmod_dll\cvgamecoredllutil\include\cvweightedvector.h
;	COMDAT ??MWeightedElement@?$CvWeightedVector@PAVCvPlot@@$00$00@@QBE_NABU01@@Z
_TEXT	SEGMENT
_b2$ = 8						; size = 4
??MWeightedElement@?$CvWeightedVector@PAVCvPlot@@$00$00@@QBE_NABU01@@Z PROC ; CvWeightedVector<CvPlot *,1,1>::WeightedElement::operator<, COMDAT
; _this$ = ecx

; 45   : 			// Reverse of the normal direction because we want highest weight first in our list
; 46   : 			return m_iWeight > b2.m_iWeight;

	mov	eax, DWORD PTR [ecx+4]
	mov	edx, DWORD PTR _b2$[esp-4]
	xor	ecx, ecx
	cmp	eax, DWORD PTR [edx+4]
	setg	cl
	mov	al, cl

; 47   : 		};

	ret	4
??MWeightedElement@?$CvWeightedVector@PAVCvPlot@@$00$00@@QBE_NABU01@@Z ENDP ; CvWeightedVector<CvPlot *,1,1>::WeightedElement::operator<
_TEXT	ENDS
PUBLIC	?Format@CvString@@QAAXPBDZZ			; CvString::Format
;	COMDAT xdata$x
; File c:\users\enormousapplepie\documents\github\lekmod\lekmod_dll\cvgamecoredllutil\include\cvstring.h
xdata$x	SEGMENT
__unwindtable$?Format@CvString@@QAAXPBDZZ DD 0ffffffffH
	DD	FLAT:__unwindfunclet$?Format@CvString@@QAAXPBDZZ$0
__ehfuncinfo$?Format@CvString@@QAAXPBDZZ DD 019930522H
	DD	01H
	DD	FLAT:__unwindtable$?Format@CvString@@QAAXPBDZZ
	DD	2 DUP(00H)
	DD	2 DUP(00H)
	DD	00H
	DD	01H
; Function compile flags: /Ogtpy
xdata$x	ENDS
;	COMDAT ?Format@CvString@@QAAXPBDZZ
_TEXT	SEGMENT
_result$ = -40						; size = 28
__$EHRec$ = -12						; size = 12
_this$ = 8						; size = 4
_lpszFormat$ = 12					; size = 4
?Format@CvString@@QAAXPBDZZ PROC			; CvString::Format, COMDAT

; 269  : {

	push	-1
	push	__ehhandler$?Format@CvString@@QAAXPBDZZ
	mov	eax, DWORD PTR fs:0
	push	eax
	mov	DWORD PTR fs:0, esp
	sub	esp, 28					; 0000001cH

; 270  : 	std::string result;

	lea	ecx, DWORD PTR _result$[esp+40]
	call	DWORD PTR __imp_??0?$basic_string@DU?$char_traits@D@std@@V?$allocator@D@2@@std@@QAE@XZ

; 271  : 	va_list args;
; 272  : 	va_start(args,lpszFormat);
; 273  : 	formatv(result,lpszFormat,args);

	mov	ecx, DWORD PTR _lpszFormat$[esp+36]
	lea	eax, DWORD PTR _lpszFormat$[esp+40]
	push	eax
	push	ecx
	lea	edx, DWORD PTR _result$[esp+48]
	push	edx
	mov	DWORD PTR __$EHRec$[esp+60], 0
	call	?formatv@CvString@@SA_NAAV?$basic_string@DU?$char_traits@D@std@@V?$allocator@D@2@@std@@PBDPAD@Z ; CvString::formatv
	add	esp, 12					; 0000000cH

; 274  : 	va_end(args);
; 275  : 	*this = result;

	lea	ecx, DWORD PTR _result$[esp+40]
	call	DWORD PTR __imp_?c_str@?$basic_string@DU?$char_traits@D@std@@V?$allocator@D@2@@std@@QBEPBDXZ
	mov	ecx, DWORD PTR _this$[esp+36]
	push	eax
	call	DWORD PTR __imp_?assign@?$basic_string@DU?$char_traits@D@std@@V?$allocator@D@2@@std@@QAEAAV12@PBD@Z

; 276  : }

	lea	ecx, DWORD PTR _result$[esp+40]
	mov	DWORD PTR __$EHRec$[esp+48], -1
	call	DWORD PTR __imp_??1?$basic_string@DU?$char_traits@D@std@@V?$allocator@D@2@@std@@QAE@XZ
	mov	ecx, DWORD PTR __$EHRec$[esp+40]
	mov	DWORD PTR fs:0, ecx
	add	esp, 40					; 00000028H
	ret	0
_TEXT	ENDS
;	COMDAT text$x
text$x	SEGMENT
__unwindfunclet$?Format@CvString@@QAAXPBDZZ$0:
	lea	ecx, DWORD PTR _result$[ebp]
	jmp	DWORD PTR __imp_??1?$basic_string@DU?$char_traits@D@std@@V?$allocator@D@2@@std@@QAE@XZ
__ehhandler$?Format@CvString@@QAAXPBDZZ:
	mov	eax, OFFSET __ehfuncinfo$?Format@CvString@@QAAXPBDZZ
	jmp	___CxxFrameHandler3
text$x	ENDS
?Format@CvString@@QAAXPBDZZ ENDP			; CvString::Format
PUBLIC	??0?$pair@PAUWeightedElement@?$CvWeightedVector@PAVCvPlot@@$00$00@@PAU12@@std@@QAE@ABQAUWeightedElement@?$CvWeightedVector@PAVCvPlot@@$00$00@@0@Z ; std::pair<CvWeightedVector<CvPlot *,1,1>::WeightedElement *,CvWeightedVector<CvPlot *,1,1>::WeightedElement *>::pair<CvWeightedVector<CvPlot *,1,1>::WeightedElement *,CvWeightedVector<CvPlot *,1,1>::WeightedElement *>
; Function compile flags: /Ogtpy
; File c:\program files (x86)\microsoft visual studio 9.0\vc\include\utility
;	COMDAT ??0?$pair@PAUWeightedElement@?$CvWeightedVector@PAVCvPlot@@$00$00@@PAU12@@std@@QAE@ABQAUWeightedElement@?$CvWeightedVector@PAVCvPlot@@$00$00@@0@Z
_TEXT	SEGMENT
__Val1$ = 8						; size = 4
__Val2$ = 12						; size = 4
??0?$pair@PAUWeightedElement@?$CvWeightedVector@PAVCvPlot@@$00$00@@PAU12@@std@@QAE@ABQAUWeightedElement@?$CvWeightedVector@PAVCvPlot@@$00$00@@0@Z PROC ; std::pair<CvWeightedVector<CvPlot *,1,1>::WeightedElement *,CvWeightedVector<CvPlot *,1,1>::WeightedElement *>::pair<CvWeightedVector<CvPlot *,1,1>::WeightedElement *,CvWeightedVector<CvPlot *,1,1>::WeightedElement *>, COMDAT
; _this$ = ecx

; 50   : 		{	// construct from specified values

	mov	eax, ecx
	mov	ecx, DWORD PTR __Val1$[esp-4]
	mov	edx, DWORD PTR [ecx]
	mov	ecx, DWORD PTR __Val2$[esp-4]
	mov	DWORD PTR [eax], edx
	mov	edx, DWORD PTR [ecx]
	mov	DWORD PTR [eax+4], edx

; 51   : 		}

	ret	8
??0?$pair@PAUWeightedElement@?$CvWeightedVector@PAVCvPlot@@$00$00@@PAU12@@std@@QAE@ABQAUWeightedElement@?$CvWeightedVector@PAVCvPlot@@$00$00@@0@Z ENDP ; std::pair<CvWeightedVector<CvPlot *,1,1>::WeightedElement *,CvWeightedVector<CvPlot *,1,1>::WeightedElement *>::pair<CvWeightedVector<CvPlot *,1,1>::WeightedElement *,CvWeightedVector<CvPlot *,1,1>::WeightedElement *>
_TEXT	ENDS
PUBLIC	??$_Iter_cat@PAVCvOperationSearchUnit@@@std@@YA?AUrandom_access_iterator_tag@0@ABQAVCvOperationSearchUnit@@@Z ; std::_Iter_cat<CvOperationSearchUnit *>
; Function compile flags: /Ogtpy
; File c:\program files (x86)\microsoft visual studio 9.0\vc\include\xutility
;	COMDAT ??$_Iter_cat@PAVCvOperationSearchUnit@@@std@@YA?AUrandom_access_iterator_tag@0@ABQAVCvOperationSearchUnit@@@Z
_TEXT	SEGMENT
___$ReturnUdt$ = 8					; size = 4
___formal$ = 12						; size = 4
??$_Iter_cat@PAVCvOperationSearchUnit@@@std@@YA?AUrandom_access_iterator_tag@0@ABQAVCvOperationSearchUnit@@@Z PROC ; std::_Iter_cat<CvOperationSearchUnit *>, COMDAT

; 953  : 	typename iterator_traits<_Iter>::iterator_category _Cat;
; 954  : 	return (_Cat);

	mov	eax, DWORD PTR ___$ReturnUdt$[esp-4]

; 955  : 	}

	ret	0
??$_Iter_cat@PAVCvOperationSearchUnit@@@std@@YA?AUrandom_access_iterator_tag@0@ABQAVCvOperationSearchUnit@@@Z ENDP ; std::_Iter_cat<CvOperationSearchUnit *>
_TEXT	ENDS
PUBLIC	??$_Distance2@PAVCvOperationSearchUnit@@H@std@@YAXPAVCvOperationSearchUnit@@0AAHUrandom_access_iterator_tag@0@@Z ; std::_Distance2<CvOperationSearchUnit *,int>
; Function compile flags: /Ogtpy
;	COMDAT ??$_Distance2@PAVCvOperationSearchUnit@@H@std@@YAXPAVCvOperationSearchUnit@@0AAHUrandom_access_iterator_tag@0@@Z
_TEXT	SEGMENT
__First$ = 8						; size = 4
__Last$ = 12						; size = 4
__Off$ = 16						; size = 4
___formal$ = 20						; size = 1
??$_Distance2@PAVCvOperationSearchUnit@@H@std@@YAXPAVCvOperationSearchUnit@@0AAHUrandom_access_iterator_tag@0@@Z PROC ; std::_Distance2<CvOperationSearchUnit *,int>, COMDAT

; 1867 : 
; 1868 :  #if _HAS_ITERATOR_DEBUGGING
; 1869 : 	if (_First != _Last)
; 1870 : 		{	// check for null pointers
; 1871 : 		_DEBUG_POINTER(_First);
; 1872 : 		_DEBUG_POINTER(_Last);
; 1873 : 		}
; 1874 :  #endif /* _HAS_ITERATOR_DEBUGGING */
; 1875 : 
; 1876 : 	_Off += _Last - _First;

	mov	ecx, DWORD PTR __Last$[esp-4]
	sub	ecx, DWORD PTR __First$[esp-4]
	mov	eax, DWORD PTR __Off$[esp-4]
	sar	ecx, 3
	add	DWORD PTR [eax], ecx

; 1877 : 	}

	ret	0
??$_Distance2@PAVCvOperationSearchUnit@@H@std@@YAXPAVCvOperationSearchUnit@@0AAHUrandom_access_iterator_tag@0@@Z ENDP ; std::_Distance2<CvOperationSearchUnit *,int>
_TEXT	ENDS
PUBLIC	??$_Dist_type@PAUWeightedElement@?$CvWeightedVector@PAVCvPlot@@$00$00@@@std@@YAPAHPAUWeightedElement@?$CvWeightedVector@PAVCvPlot@@$00$00@@@Z ; std::_Dist_type<CvWeightedVector<CvPlot *,1,1>::WeightedElement *>
; Function compile flags: /Ogtpy
;	COMDAT ??$_Dist_type@PAUWeightedElement@?$CvWeightedVector@PAVCvPlot@@$00$00@@@std@@YAPAHPAUWeightedElement@?$CvWeightedVector@PAVCvPlot@@$00$00@@@Z
_TEXT	SEGMENT
___formal$ = 8						; size = 4
??$_Dist_type@PAUWeightedElement@?$CvWeightedVector@PAVCvPlot@@$00$00@@@std@@YAPAHPAUWeightedElement@?$CvWeightedVector@PAVCvPlot@@$00$00@@@Z PROC ; std::_Dist_type<CvWeightedVector<CvPlot *,1,1>::WeightedElement *>, COMDAT

; 1831 : 	return (0);

	xor	eax, eax

; 1832 : 	}

	ret	0
??$_Dist_type@PAUWeightedElement@?$CvWeightedVector@PAVCvPlot@@$00$00@@@std@@YAPAHPAUWeightedElement@?$CvWeightedVector@PAVCvPlot@@$00$00@@@Z ENDP ; std::_Dist_type<CvWeightedVector<CvPlot *,1,1>::WeightedElement *>
_TEXT	ENDS
PUBLIC	??$_Val_type@PAUWeightedElement@?$CvWeightedVector@PAVCvPlot@@$00$00@@@std@@YAPAUWeightedElement@?$CvWeightedVector@PAVCvPlot@@$00$00@@PAU12@@Z ; std::_Val_type<CvWeightedVector<CvPlot *,1,1>::WeightedElement *>
; Function compile flags: /Ogtpy
;	COMDAT ??$_Val_type@PAUWeightedElement@?$CvWeightedVector@PAVCvPlot@@$00$00@@@std@@YAPAUWeightedElement@?$CvWeightedVector@PAVCvPlot@@$00$00@@PAU12@@Z
_TEXT	SEGMENT
___formal$ = 8						; size = 4
??$_Val_type@PAUWeightedElement@?$CvWeightedVector@PAVCvPlot@@$00$00@@@std@@YAPAUWeightedElement@?$CvWeightedVector@PAVCvPlot@@$00$00@@PAU12@@Z PROC ; std::_Val_type<CvWeightedVector<CvPlot *,1,1>::WeightedElement *>, COMDAT

; 1766 : 	return (0);

	xor	eax, eax

; 1767 : 	}

	ret	0
??$_Val_type@PAUWeightedElement@?$CvWeightedVector@PAVCvPlot@@$00$00@@@std@@YAPAUWeightedElement@?$CvWeightedVector@PAVCvPlot@@$00$00@@PAU12@@Z ENDP ; std::_Val_type<CvWeightedVector<CvPlot *,1,1>::WeightedElement *>
_TEXT	ENDS
PUBLIC	?_Init@?$_Temp_iterator@VCvOperationSearchUnit@@@std@@QAEAAV12@XZ ; std::_Temp_iterator<CvOperationSearchUnit>::_Init
; Function compile flags: /Ogtpy
; File c:\program files (x86)\microsoft visual studio 9.0\vc\include\memory
;	COMDAT ?_Init@?$_Temp_iterator@VCvOperationSearchUnit@@@std@@QAEAAV12@XZ
_TEXT	SEGMENT
?_Init@?$_Temp_iterator@VCvOperationSearchUnit@@@std@@QAEAAV12@XZ PROC ; std::_Temp_iterator<CvOperationSearchUnit>::_Init, COMDAT
; _this$ = ecx

; 591  : 		{	// set pointer at beginning of buffer

	mov	eax, ecx

; 592  : 		_Pbuf->_Current = _Pbuf->_Begin;

	mov	ecx, DWORD PTR [eax+16]
	mov	edx, DWORD PTR [ecx]
	mov	DWORD PTR [ecx+4], edx

; 593  : 		return (*this);
; 594  : 		}

	ret	0
?_Init@?$_Temp_iterator@VCvOperationSearchUnit@@@std@@QAEAAV12@XZ ENDP ; std::_Temp_iterator<CvOperationSearchUnit>::_Init
_TEXT	ENDS
PUBLIC	?_First@?$_Temp_iterator@VCvOperationSearchUnit@@@std@@QBEPAVCvOperationSearchUnit@@XZ ; std::_Temp_iterator<CvOperationSearchUnit>::_First
; Function compile flags: /Ogtpy
;	COMDAT ?_First@?$_Temp_iterator@VCvOperationSearchUnit@@@std@@QBEPAVCvOperationSearchUnit@@XZ
_TEXT	SEGMENT
?_First@?$_Temp_iterator@VCvOperationSearchUnit@@@std@@QBEPAVCvOperationSearchUnit@@XZ PROC ; std::_Temp_iterator<CvOperationSearchUnit>::_First, COMDAT
; _this$ = ecx

; 598  : 		return (_Pbuf->_Begin);

	mov	eax, DWORD PTR [ecx+16]
	mov	eax, DWORD PTR [eax]

; 599  : 		}

	ret	0
?_First@?$_Temp_iterator@VCvOperationSearchUnit@@@std@@QBEPAVCvOperationSearchUnit@@XZ ENDP ; std::_Temp_iterator<CvOperationSearchUnit>::_First
_TEXT	ENDS
PUBLIC	?_Last@?$_Temp_iterator@VCvOperationSearchUnit@@@std@@QBEPAVCvOperationSearchUnit@@XZ ; std::_Temp_iterator<CvOperationSearchUnit>::_Last
; Function compile flags: /Ogtpy
;	COMDAT ?_Last@?$_Temp_iterator@VCvOperationSearchUnit@@@std@@QBEPAVCvOperationSearchUnit@@XZ
_TEXT	SEGMENT
?_Last@?$_Temp_iterator@VCvOperationSearchUnit@@@std@@QBEPAVCvOperationSearchUnit@@XZ PROC ; std::_Temp_iterator<CvOperationSearchUnit>::_Last, COMDAT
; _this$ = ecx

; 603  : 		return (_Pbuf->_Current);

	mov	eax, DWORD PTR [ecx+16]
	mov	eax, DWORD PTR [eax+4]

; 604  : 		}

	ret	0
?_Last@?$_Temp_iterator@VCvOperationSearchUnit@@@std@@QBEPAVCvOperationSearchUnit@@XZ ENDP ; std::_Temp_iterator<CvOperationSearchUnit>::_Last
_TEXT	ENDS
PUBLIC	??0?$pair@PAVCvOperationSearchUnit@@H@std@@QAE@ABQAVCvOperationSearchUnit@@ABH@Z ; std::pair<CvOperationSearchUnit *,int>::pair<CvOperationSearchUnit *,int>
; Function compile flags: /Ogtpy
; File c:\program files (x86)\microsoft visual studio 9.0\vc\include\utility
;	COMDAT ??0?$pair@PAVCvOperationSearchUnit@@H@std@@QAE@ABQAVCvOperationSearchUnit@@ABH@Z
_TEXT	SEGMENT
__Val1$ = 8						; size = 4
__Val2$ = 12						; size = 4
??0?$pair@PAVCvOperationSearchUnit@@H@std@@QAE@ABQAVCvOperationSearchUnit@@ABH@Z PROC ; std::pair<CvOperationSearchUnit *,int>::pair<CvOperationSearchUnit *,int>, COMDAT
; _this$ = ecx

; 50   : 		{	// construct from specified values

	mov	eax, ecx
	mov	ecx, DWORD PTR __Val1$[esp-4]
	mov	edx, DWORD PTR [ecx]
	mov	ecx, DWORD PTR __Val2$[esp-4]
	mov	DWORD PTR [eax], edx
	mov	edx, DWORD PTR [ecx]
	mov	DWORD PTR [eax+4], edx

; 51   : 		}

	ret	8
??0?$pair@PAVCvOperationSearchUnit@@H@std@@QAE@ABQAVCvOperationSearchUnit@@ABH@Z ENDP ; std::pair<CvOperationSearchUnit *,int>::pair<CvOperationSearchUnit *,int>
_TEXT	ENDS
PUBLIC	??4?$_Temp_iterator@VCvOperationSearchUnit@@@std@@QAEAAV01@ABV01@@Z ; std::_Temp_iterator<CvOperationSearchUnit>::operator=
; Function compile flags: /Ogtpy
; File c:\program files (x86)\microsoft visual studio 9.0\vc\include\memory
;	COMDAT ??4?$_Temp_iterator@VCvOperationSearchUnit@@@std@@QAEAAV01@ABV01@@Z
_TEXT	SEGMENT
__Right$ = 8						; size = 4
??4?$_Temp_iterator@VCvOperationSearchUnit@@@std@@QAEAAV01@ABV01@@Z PROC ; std::_Temp_iterator<CvOperationSearchUnit>::operator=, COMDAT
; _this$ = ecx

; 556  : 		{	// assign _Right (share active buffer)

	mov	eax, ecx

; 557  : 		_Pbuf = _Right._Pbuf;

	mov	ecx, DWORD PTR __Right$[esp-4]
	mov	edx, DWORD PTR [ecx+16]
	mov	DWORD PTR [eax+16], edx

; 558  : 		return (*this);
; 559  : 		}

	ret	4
??4?$_Temp_iterator@VCvOperationSearchUnit@@@std@@QAEAAV01@ABV01@@Z ENDP ; std::_Temp_iterator<CvOperationSearchUnit>::operator=
_TEXT	ENDS
PUBLIC	??$_Advance@PAVCvOperationSearchUnit@@H@std@@YAXAAPAVCvOperationSearchUnit@@HUrandom_access_iterator_tag@0@@Z ; std::_Advance<CvOperationSearchUnit *,int>
; Function compile flags: /Ogtpy
; File c:\program files (x86)\microsoft visual studio 9.0\vc\include\xutility
;	COMDAT ??$_Advance@PAVCvOperationSearchUnit@@H@std@@YAXAAPAVCvOperationSearchUnit@@HUrandom_access_iterator_tag@0@@Z
_TEXT	SEGMENT
__Where$ = 8						; size = 4
__Off$ = 12						; size = 4
___formal$ = 16						; size = 1
??$_Advance@PAVCvOperationSearchUnit@@H@std@@YAXAAPAVCvOperationSearchUnit@@HUrandom_access_iterator_tag@0@@Z PROC ; std::_Advance<CvOperationSearchUnit *,int>, COMDAT

; 1822 : 	_Where += _Off;

	mov	eax, DWORD PTR __Off$[esp-4]
	lea	ecx, DWORD PTR [eax*8]
	mov	eax, DWORD PTR __Where$[esp-4]
	add	DWORD PTR [eax], ecx

; 1823 : 	}

	ret	0
??$_Advance@PAVCvOperationSearchUnit@@H@std@@YAXAAPAVCvOperationSearchUnit@@HUrandom_access_iterator_tag@0@@Z ENDP ; std::_Advance<CvOperationSearchUnit *,int>
_TEXT	ENDS
PUBLIC	??$swap@UWeightedElement@?$CvWeightedVector@PAVCvPlot@@$00$00@@@std@@YAXAAUWeightedElement@?$CvWeightedVector@PAVCvPlot@@$00$00@@0@Z ; std::swap<CvWeightedVector<CvPlot *,1,1>::WeightedElement>
; Function compile flags: /Ogtpy
; File c:\program files (x86)\microsoft visual studio 9.0\vc\include\utility
;	COMDAT ??$swap@UWeightedElement@?$CvWeightedVector@PAVCvPlot@@$00$00@@@std@@YAXAAUWeightedElement@?$CvWeightedVector@PAVCvPlot@@$00$00@@0@Z
_TEXT	SEGMENT
__Left$ = 8						; size = 4
__Right$ = 12						; size = 4
??$swap@UWeightedElement@?$CvWeightedVector@PAVCvPlot@@$00$00@@@std@@YAXAAUWeightedElement@?$CvWeightedVector@PAVCvPlot@@$00$00@@0@Z PROC ; std::swap<CvWeightedVector<CvPlot *,1,1>::WeightedElement>, COMDAT

; 18   : 	if (&_Left != &_Right)

	mov	eax, DWORD PTR __Left$[esp-4]
	mov	ecx, DWORD PTR __Right$[esp-4]
	cmp	eax, ecx
	je	SHORT $LN1@swap

; 19   : 		{	// different, worth swapping
; 20   : 		_Ty _Tmp = _Left;

	mov	edx, DWORD PTR [eax]
	push	esi
	mov	esi, DWORD PTR [eax+4]
	push	edi

; 21   : 
; 22   : 		_Left = _Right;

	mov	edi, DWORD PTR [ecx]
	mov	DWORD PTR [eax], edi
	mov	edi, DWORD PTR [ecx+4]
	mov	DWORD PTR [eax+4], edi
	pop	edi

; 23   : 		_Right = _Tmp;

	mov	DWORD PTR [ecx+4], esi
	mov	DWORD PTR [ecx], edx
	pop	esi
$LN1@swap:

; 24   : 		}
; 25   : 	}

	ret	0
??$swap@UWeightedElement@?$CvWeightedVector@PAVCvPlot@@$00$00@@@std@@YAXAAUWeightedElement@?$CvWeightedVector@PAVCvPlot@@$00$00@@0@Z ENDP ; std::swap<CvWeightedVector<CvPlot *,1,1>::WeightedElement>
_TEXT	ENDS
PUBLIC	??$swap@VCvOperationSearchUnit@@@std@@YAXAAVCvOperationSearchUnit@@0@Z ; std::swap<CvOperationSearchUnit>
; Function compile flags: /Ogtpy
;	COMDAT ??$swap@VCvOperationSearchUnit@@@std@@YAXAAVCvOperationSearchUnit@@0@Z
_TEXT	SEGMENT
__Left$ = 8						; size = 4
__Right$ = 12						; size = 4
??$swap@VCvOperationSearchUnit@@@std@@YAXAAVCvOperationSearchUnit@@0@Z PROC ; std::swap<CvOperationSearchUnit>, COMDAT

; 18   : 	if (&_Left != &_Right)

	mov	eax, DWORD PTR __Left$[esp-4]
	mov	ecx, DWORD PTR __Right$[esp-4]
	cmp	eax, ecx
	je	SHORT $LN1@swap@2

; 19   : 		{	// different, worth swapping
; 20   : 		_Ty _Tmp = _Left;

	mov	edx, DWORD PTR [eax]
	push	esi
	mov	esi, DWORD PTR [eax+4]
	push	edi

; 21   : 
; 22   : 		_Left = _Right;

	mov	edi, DWORD PTR [ecx]
	mov	DWORD PTR [eax], edi
	mov	edi, DWORD PTR [ecx+4]
	mov	DWORD PTR [eax+4], edi
	pop	edi

; 23   : 		_Right = _Tmp;

	mov	DWORD PTR [ecx+4], esi
	mov	DWORD PTR [ecx], edx
	pop	esi
$LN1@swap@2:

; 24   : 		}
; 25   : 	}

	ret	0
??$swap@VCvOperationSearchUnit@@@std@@YAXAAVCvOperationSearchUnit@@0@Z ENDP ; std::swap<CvOperationSearchUnit>
_TEXT	ENDS
PUBLIC	??$_Iter_random@PAVCvOperationSearchUnit@@V?$_Temp_iterator@VCvOperationSearchUnit@@@std@@@std@@YA?AUforward_iterator_tag@0@ABQAVCvOperationSearchUnit@@ABV?$_Temp_iterator@VCvOperationSearchUnit@@@0@@Z ; std::_Iter_random<CvOperationSearchUnit *,std::_Temp_iterator<CvOperationSearchUnit> >
; Function compile flags: /Ogtpy
; File c:\program files (x86)\microsoft visual studio 9.0\vc\include\xutility
;	COMDAT ??$_Iter_random@PAVCvOperationSearchUnit@@V?$_Temp_iterator@VCvOperationSearchUnit@@@std@@@std@@YA?AUforward_iterator_tag@0@ABQAVCvOperationSearchUnit@@ABV?$_Temp_iterator@VCvOperationSearchUnit@@@0@@Z
_TEXT	SEGMENT
___$ReturnUdt$ = 8					; size = 4
___formal$ = 12						; size = 4
___formal$ = 16						; size = 4
??$_Iter_random@PAVCvOperationSearchUnit@@V?$_Temp_iterator@VCvOperationSearchUnit@@@std@@@std@@YA?AUforward_iterator_tag@0@ABQAVCvOperationSearchUnit@@ABV?$_Temp_iterator@VCvOperationSearchUnit@@@0@@Z PROC ; std::_Iter_random<CvOperationSearchUnit *,std::_Temp_iterator<CvOperationSearchUnit> >, COMDAT

; 994  : 	typename _Iter_random_helper<
; 995  : 		iterator_traits<_Iter1>::iterator_category, 
; 996  : 		iterator_traits<_Iter2>::iterator_category>::_Iter_random_cat _Cat;
; 997  : 	return (_Cat);

	mov	eax, DWORD PTR ___$ReturnUdt$[esp-4]

; 998  : 	}

	ret	0
??$_Iter_random@PAVCvOperationSearchUnit@@V?$_Temp_iterator@VCvOperationSearchUnit@@@std@@@std@@YA?AUforward_iterator_tag@0@ABQAVCvOperationSearchUnit@@ABV?$_Temp_iterator@VCvOperationSearchUnit@@@0@@Z ENDP ; std::_Iter_random<CvOperationSearchUnit *,std::_Temp_iterator<CvOperationSearchUnit> >
_TEXT	ENDS
PUBLIC	??$_Ptr_cat@PAVCvOperationSearchUnit@@V?$_Temp_iterator@VCvOperationSearchUnit@@@std@@@std@@YA?AU_Nonscalar_ptr_iterator_tag@0@AAPAVCvOperationSearchUnit@@AAV?$_Temp_iterator@VCvOperationSearchUnit@@@0@@Z ; std::_Ptr_cat<CvOperationSearchUnit *,std::_Temp_iterator<CvOperationSearchUnit> >
; Function compile flags: /Ogtpy
;	COMDAT ??$_Ptr_cat@PAVCvOperationSearchUnit@@V?$_Temp_iterator@VCvOperationSearchUnit@@@std@@@std@@YA?AU_Nonscalar_ptr_iterator_tag@0@AAPAVCvOperationSearchUnit@@AAV?$_Temp_iterator@VCvOperationSearchUnit@@@0@@Z
_TEXT	SEGMENT
__Cat$ = -1						; size = 1
___formal$ = 8						; size = 4
___formal$ = 12						; size = 4
??$_Ptr_cat@PAVCvOperationSearchUnit@@V?$_Temp_iterator@VCvOperationSearchUnit@@@std@@@std@@YA?AU_Nonscalar_ptr_iterator_tag@0@AAPAVCvOperationSearchUnit@@AAV?$_Temp_iterator@VCvOperationSearchUnit@@@0@@Z PROC ; std::_Ptr_cat<CvOperationSearchUnit *,std::_Temp_iterator<CvOperationSearchUnit> >, COMDAT

; 1509 : 	{

	push	ecx

; 1510 : 	typename _Ptr_cat_helper<_T1, _T2>::_Ptr_cat _Cat;
; 1511 : 	return (_Cat);

	mov	al, BYTE PTR __Cat$[esp+4]

; 1512 : 	}

	pop	ecx
	ret	0
??$_Ptr_cat@PAVCvOperationSearchUnit@@V?$_Temp_iterator@VCvOperationSearchUnit@@@std@@@std@@YA?AU_Nonscalar_ptr_iterator_tag@0@AAPAVCvOperationSearchUnit@@AAV?$_Temp_iterator@VCvOperationSearchUnit@@@0@@Z ENDP ; std::_Ptr_cat<CvOperationSearchUnit *,std::_Temp_iterator<CvOperationSearchUnit> >
_TEXT	ENDS
PUBLIC	??$_Iter_random@PAVCvOperationSearchUnit@@PAV1@PAV1@@std@@YA?AUrandom_access_iterator_tag@0@ABQAVCvOperationSearchUnit@@00@Z ; std::_Iter_random<CvOperationSearchUnit *,CvOperationSearchUnit *,CvOperationSearchUnit *>
; Function compile flags: /Ogtpy
;	COMDAT ??$_Iter_random@PAVCvOperationSearchUnit@@PAV1@PAV1@@std@@YA?AUrandom_access_iterator_tag@0@ABQAVCvOperationSearchUnit@@00@Z
_TEXT	SEGMENT
___$ReturnUdt$ = 8					; size = 4
___formal$ = 12						; size = 4
___formal$ = 16						; size = 4
___formal$ = 20						; size = 4
??$_Iter_random@PAVCvOperationSearchUnit@@PAV1@PAV1@@std@@YA?AUrandom_access_iterator_tag@0@ABQAVCvOperationSearchUnit@@00@Z PROC ; std::_Iter_random<CvOperationSearchUnit *,CvOperationSearchUnit *,CvOperationSearchUnit *>, COMDAT

; 1007 : 	typename _Iter_random_helper3<
; 1008 : 		iterator_traits<_Iter1>::iterator_category, 
; 1009 : 		iterator_traits<_Iter2>::iterator_category,
; 1010 : 		iterator_traits<_Iter3>::iterator_category>::_Iter_random_cat _Cat;
; 1011 : 	return (_Cat);

	mov	eax, DWORD PTR ___$ReturnUdt$[esp-4]

; 1012 : 	}

	ret	0
??$_Iter_random@PAVCvOperationSearchUnit@@PAV1@PAV1@@std@@YA?AUrandom_access_iterator_tag@0@ABQAVCvOperationSearchUnit@@00@Z ENDP ; std::_Iter_random<CvOperationSearchUnit *,CvOperationSearchUnit *,CvOperationSearchUnit *>
_TEXT	ENDS
PUBLIC	??$_Push_heap@PAUWeightedElement@?$CvWeightedVector@PAVCvPlot@@$00$00@@HU12@@std@@YAXPAUWeightedElement@?$CvWeightedVector@PAVCvPlot@@$00$00@@HHU12@@Z ; std::_Push_heap<CvWeightedVector<CvPlot *,1,1>::WeightedElement *,int,CvWeightedVector<CvPlot *,1,1>::WeightedElement>
; Function compile flags: /Ogtpy
; File c:\program files (x86)\microsoft visual studio 9.0\vc\include\algorithm
;	COMDAT ??$_Push_heap@PAUWeightedElement@?$CvWeightedVector@PAVCvPlot@@$00$00@@HU12@@std@@YAXPAUWeightedElement@?$CvWeightedVector@PAVCvPlot@@$00$00@@HHU12@@Z
_TEXT	SEGMENT
__First$ = 8						; size = 4
__Hole$ = 12						; size = 4
__Top$ = 16						; size = 4
__Val$ = 20						; size = 8
??$_Push_heap@PAUWeightedElement@?$CvWeightedVector@PAVCvPlot@@$00$00@@HU12@@std@@YAXPAUWeightedElement@?$CvWeightedVector@PAVCvPlot@@$00$00@@HHU12@@Z PROC ; std::_Push_heap<CvWeightedVector<CvPlot *,1,1>::WeightedElement *,int,CvWeightedVector<CvPlot *,1,1>::WeightedElement>, COMDAT

; 1973 : 	for (_Diff _Idx = (_Hole - 1) / 2;

	mov	ecx, DWORD PTR __Hole$[esp-4]
	push	ebx

; 1974 : 		_Top < _Hole && _DEBUG_LT(*(_First + _Idx), _Val);
; 1975 : 		_Idx = (_Hole - 1) / 2)

	mov	ebx, DWORD PTR __Val$[esp+4]
	lea	eax, DWORD PTR [ecx-1]
	cdq
	push	esi
	mov	esi, DWORD PTR __First$[esp+4]
	sub	eax, edx
	push	edi
	mov	edi, DWORD PTR __Top$[esp+8]
	sar	eax, 1
	cmp	edi, ecx
	jge	SHORT $LN1@Push_heap
	npad	1
$LL3@Push_heap:
	cmp	DWORD PTR [esi+eax*8+4], ebx
	jle	SHORT $LN1@Push_heap

; 1976 : 		{	// move _Hole up to parent
; 1977 : 		*(_First + _Hole) = *(_First + _Idx);

	mov	edx, DWORD PTR [esi+eax*8]
	mov	DWORD PTR [esi+ecx*8], edx
	mov	edx, DWORD PTR [esi+eax*8+4]
	mov	DWORD PTR [esi+ecx*8+4], edx

; 1978 : 		_Hole = _Idx;

	mov	ecx, eax
	dec	eax
	cdq
	sub	eax, edx
	sar	eax, 1
	cmp	edi, ecx
	jl	SHORT $LL3@Push_heap
$LN1@Push_heap:

; 1979 : 		}
; 1980 : 
; 1981 : 	*(_First + _Hole) = _Val;	// drop _Val into final hole

	mov	eax, DWORD PTR __Val$[esp+8]
	pop	edi
	mov	DWORD PTR [esi+ecx*8+4], ebx
	mov	DWORD PTR [esi+ecx*8], eax
	pop	esi
	pop	ebx

; 1982 : 	}

	ret	0
??$_Push_heap@PAUWeightedElement@?$CvWeightedVector@PAVCvPlot@@$00$00@@HU12@@std@@YAXPAUWeightedElement@?$CvWeightedVector@PAVCvPlot@@$00$00@@HHU12@@Z ENDP ; std::_Push_heap<CvWeightedVector<CvPlot *,1,1>::WeightedElement *,int,CvWeightedVector<CvPlot *,1,1>::WeightedElement>
_TEXT	ENDS
PUBLIC	??$_Iter_random@PAUWeightedElement@?$CvWeightedVector@PAVCvPlot@@$00$00@@PAU12@@std@@YA?AUrandom_access_iterator_tag@0@ABQAUWeightedElement@?$CvWeightedVector@PAVCvPlot@@$00$00@@0@Z ; std::_Iter_random<CvWeightedVector<CvPlot *,1,1>::WeightedElement *,CvWeightedVector<CvPlot *,1,1>::WeightedElement *>
; Function compile flags: /Ogtpy
; File c:\program files (x86)\microsoft visual studio 9.0\vc\include\xutility
;	COMDAT ??$_Iter_random@PAUWeightedElement@?$CvWeightedVector@PAVCvPlot@@$00$00@@PAU12@@std@@YA?AUrandom_access_iterator_tag@0@ABQAUWeightedElement@?$CvWeightedVector@PAVCvPlot@@$00$00@@0@Z
_TEXT	SEGMENT
___$ReturnUdt$ = 8					; size = 4
___formal$ = 12						; size = 4
___formal$ = 16						; size = 4
??$_Iter_random@PAUWeightedElement@?$CvWeightedVector@PAVCvPlot@@$00$00@@PAU12@@std@@YA?AUrandom_access_iterator_tag@0@ABQAUWeightedElement@?$CvWeightedVector@PAVCvPlot@@$00$00@@0@Z PROC ; std::_Iter_random<CvWeightedVector<CvPlot *,1,1>::WeightedElement *,CvWeightedVector<CvPlot *,1,1>::WeightedElement *>, COMDAT

; 994  : 	typename _Iter_random_helper<
; 995  : 		iterator_traits<_Iter1>::iterator_category, 
; 996  : 		iterator_traits<_Iter2>::iterator_category>::_Iter_random_cat _Cat;
; 997  : 	return (_Cat);

	mov	eax, DWORD PTR ___$ReturnUdt$[esp-4]

; 998  : 	}

	ret	0
??$_Iter_random@PAUWeightedElement@?$CvWeightedVector@PAVCvPlot@@$00$00@@PAU12@@std@@YA?AUrandom_access_iterator_tag@0@ABQAUWeightedElement@?$CvWeightedVector@PAVCvPlot@@$00$00@@0@Z ENDP ; std::_Iter_random<CvWeightedVector<CvPlot *,1,1>::WeightedElement *,CvWeightedVector<CvPlot *,1,1>::WeightedElement *>
_TEXT	ENDS
PUBLIC	??$_Ptr_cat@PAUWeightedElement@?$CvWeightedVector@PAVCvPlot@@$00$00@@PAU12@@std@@YA?AU_Nonscalar_ptr_iterator_tag@0@AAPAUWeightedElement@?$CvWeightedVector@PAVCvPlot@@$00$00@@0@Z ; std::_Ptr_cat<CvWeightedVector<CvPlot *,1,1>::WeightedElement *,CvWeightedVector<CvPlot *,1,1>::WeightedElement *>
; Function compile flags: /Ogtpy
;	COMDAT ??$_Ptr_cat@PAUWeightedElement@?$CvWeightedVector@PAVCvPlot@@$00$00@@PAU12@@std@@YA?AU_Nonscalar_ptr_iterator_tag@0@AAPAUWeightedElement@?$CvWeightedVector@PAVCvPlot@@$00$00@@0@Z
_TEXT	SEGMENT
__Cat$ = -1						; size = 1
___formal$ = 8						; size = 4
___formal$ = 12						; size = 4
??$_Ptr_cat@PAUWeightedElement@?$CvWeightedVector@PAVCvPlot@@$00$00@@PAU12@@std@@YA?AU_Nonscalar_ptr_iterator_tag@0@AAPAUWeightedElement@?$CvWeightedVector@PAVCvPlot@@$00$00@@0@Z PROC ; std::_Ptr_cat<CvWeightedVector<CvPlot *,1,1>::WeightedElement *,CvWeightedVector<CvPlot *,1,1>::WeightedElement *>, COMDAT

; 1509 : 	{

	push	ecx

; 1510 : 	typename _Ptr_cat_helper<_T1, _T2>::_Ptr_cat _Cat;
; 1511 : 	return (_Cat);

	mov	al, BYTE PTR __Cat$[esp+4]

; 1512 : 	}

	pop	ecx
	ret	0
??$_Ptr_cat@PAUWeightedElement@?$CvWeightedVector@PAVCvPlot@@$00$00@@PAU12@@std@@YA?AU_Nonscalar_ptr_iterator_tag@0@AAPAUWeightedElement@?$CvWeightedVector@PAVCvPlot@@$00$00@@0@Z ENDP ; std::_Ptr_cat<CvWeightedVector<CvPlot *,1,1>::WeightedElement *,CvWeightedVector<CvPlot *,1,1>::WeightedElement *>
_TEXT	ENDS
PUBLIC	??$_Copy_backward_opt@PAUWeightedElement@?$CvWeightedVector@PAVCvPlot@@$00$00@@PAU12@Urandom_access_iterator_tag@std@@@std@@YAPAUWeightedElement@?$CvWeightedVector@PAVCvPlot@@$00$00@@PAU12@00Urandom_access_iterator_tag@0@U_Nonscalar_ptr_iterator_tag@0@U_Range_checked_iterator_tag@0@@Z ; std::_Copy_backward_opt<CvWeightedVector<CvPlot *,1,1>::WeightedElement *,CvWeightedVector<CvPlot *,1,1>::WeightedElement *,std::random_access_iterator_tag>
; Function compile flags: /Ogtpy
;	COMDAT ??$_Copy_backward_opt@PAUWeightedElement@?$CvWeightedVector@PAVCvPlot@@$00$00@@PAU12@Urandom_access_iterator_tag@std@@@std@@YAPAUWeightedElement@?$CvWeightedVector@PAVCvPlot@@$00$00@@PAU12@00Urandom_access_iterator_tag@0@U_Nonscalar_ptr_iterator_tag@0@U_Range_checked_iterator_tag@0@@Z
_TEXT	SEGMENT
__First$ = 8						; size = 4
__Last$ = 12						; size = 4
__Dest$ = 16						; size = 4
___formal$ = 20						; size = 1
___formal$ = 24						; size = 1
___formal$ = 28						; size = 1
??$_Copy_backward_opt@PAUWeightedElement@?$CvWeightedVector@PAVCvPlot@@$00$00@@PAU12@Urandom_access_iterator_tag@std@@@std@@YAPAUWeightedElement@?$CvWeightedVector@PAVCvPlot@@$00$00@@PAU12@00Urandom_access_iterator_tag@0@U_Nonscalar_ptr_iterator_tag@0@U_Range_checked_iterator_tag@0@@Z PROC ; std::_Copy_backward_opt<CvWeightedVector<CvPlot *,1,1>::WeightedElement *,CvWeightedVector<CvPlot *,1,1>::WeightedElement *,std::random_access_iterator_tag>, COMDAT

; 2674 : 	_DEBUG_RANGE(_First, _Last);
; 2675 : 	while (_First != _Last)

	mov	edx, DWORD PTR __First$[esp-4]
	mov	ecx, DWORD PTR __Last$[esp-4]
	mov	eax, DWORD PTR __Dest$[esp-4]
	cmp	edx, ecx
	je	SHORT $LN1@Copy_backw@2
	push	esi
$LL2@Copy_backw@2:

; 2676 : 		*--_Dest = *--_Last;

	mov	esi, DWORD PTR [ecx-8]
	sub	ecx, 8
	sub	eax, 8
	mov	DWORD PTR [eax], esi
	mov	esi, DWORD PTR [ecx+4]
	mov	DWORD PTR [eax+4], esi
	cmp	ecx, edx
	jne	SHORT $LL2@Copy_backw@2
	pop	esi
$LN1@Copy_backw@2:

; 2677 : 	return (_Dest);
; 2678 : 	}

	ret	0
??$_Copy_backward_opt@PAUWeightedElement@?$CvWeightedVector@PAVCvPlot@@$00$00@@PAU12@Urandom_access_iterator_tag@std@@@std@@YAPAUWeightedElement@?$CvWeightedVector@PAVCvPlot@@$00$00@@PAU12@00Urandom_access_iterator_tag@0@U_Nonscalar_ptr_iterator_tag@0@U_Range_checked_iterator_tag@0@@Z ENDP ; std::_Copy_backward_opt<CvWeightedVector<CvPlot *,1,1>::WeightedElement *,CvWeightedVector<CvPlot *,1,1>::WeightedElement *,std::random_access_iterator_tag>
_TEXT	ENDS
PUBLIC	??D?$_Temp_iterator@VCvOperationSearchUnit@@@std@@QAEAAV01@XZ ; std::_Temp_iterator<CvOperationSearchUnit>::operator*
; Function compile flags: /Ogtpy
; File c:\program files (x86)\microsoft visual studio 9.0\vc\include\memory
;	COMDAT ??D?$_Temp_iterator@VCvOperationSearchUnit@@@std@@QAEAAV01@XZ
_TEXT	SEGMENT
??D?$_Temp_iterator@VCvOperationSearchUnit@@@std@@QAEAAV01@XZ PROC ; std::_Temp_iterator<CvOperationSearchUnit>::operator*, COMDAT
; _this$ = ecx

; 576  : 		{	// pretend to return designated value

	mov	eax, ecx

; 577  : 		return (*this);
; 578  : 		}

	ret	0
??D?$_Temp_iterator@VCvOperationSearchUnit@@@std@@QAEAAV01@XZ ENDP ; std::_Temp_iterator<CvOperationSearchUnit>::operator*
_TEXT	ENDS
PUBLIC	??E?$_Temp_iterator@VCvOperationSearchUnit@@@std@@QAEAAV01@XZ ; std::_Temp_iterator<CvOperationSearchUnit>::operator++
; Function compile flags: /Ogtpy
;	COMDAT ??E?$_Temp_iterator@VCvOperationSearchUnit@@@std@@QAEAAV01@XZ
_TEXT	SEGMENT
??E?$_Temp_iterator@VCvOperationSearchUnit@@@std@@QAEAAV01@XZ PROC ; std::_Temp_iterator<CvOperationSearchUnit>::operator++, COMDAT
; _this$ = ecx

; 581  : 		{	// pretend to preincrement

	mov	eax, ecx

; 582  : 		return (*this);
; 583  : 		}

	ret	0
??E?$_Temp_iterator@VCvOperationSearchUnit@@@std@@QAEAAV01@XZ ENDP ; std::_Temp_iterator<CvOperationSearchUnit>::operator++
_TEXT	ENDS
PUBLIC	??$_Iter_random@PAVCvOperationSearchUnit@@PAV1@@std@@YA?AUrandom_access_iterator_tag@0@ABQAVCvOperationSearchUnit@@0@Z ; std::_Iter_random<CvOperationSearchUnit *,CvOperationSearchUnit *>
; Function compile flags: /Ogtpy
; File c:\program files (x86)\microsoft visual studio 9.0\vc\include\xutility
;	COMDAT ??$_Iter_random@PAVCvOperationSearchUnit@@PAV1@@std@@YA?AUrandom_access_iterator_tag@0@ABQAVCvOperationSearchUnit@@0@Z
_TEXT	SEGMENT
___$ReturnUdt$ = 8					; size = 4
___formal$ = 12						; size = 4
___formal$ = 16						; size = 4
??$_Iter_random@PAVCvOperationSearchUnit@@PAV1@@std@@YA?AUrandom_access_iterator_tag@0@ABQAVCvOperationSearchUnit@@0@Z PROC ; std::_Iter_random<CvOperationSearchUnit *,CvOperationSearchUnit *>, COMDAT

; 994  : 	typename _Iter_random_helper<
; 995  : 		iterator_traits<_Iter1>::iterator_category, 
; 996  : 		iterator_traits<_Iter2>::iterator_category>::_Iter_random_cat _Cat;
; 997  : 	return (_Cat);

	mov	eax, DWORD PTR ___$ReturnUdt$[esp-4]

; 998  : 	}

	ret	0
??$_Iter_random@PAVCvOperationSearchUnit@@PAV1@@std@@YA?AUrandom_access_iterator_tag@0@ABQAVCvOperationSearchUnit@@0@Z ENDP ; std::_Iter_random<CvOperationSearchUnit *,CvOperationSearchUnit *>
_TEXT	ENDS
PUBLIC	??$_Ptr_cat@PAVCvOperationSearchUnit@@PAV1@@std@@YA?AU_Nonscalar_ptr_iterator_tag@0@AAPAVCvOperationSearchUnit@@0@Z ; std::_Ptr_cat<CvOperationSearchUnit *,CvOperationSearchUnit *>
; Function compile flags: /Ogtpy
;	COMDAT ??$_Ptr_cat@PAVCvOperationSearchUnit@@PAV1@@std@@YA?AU_Nonscalar_ptr_iterator_tag@0@AAPAVCvOperationSearchUnit@@0@Z
_TEXT	SEGMENT
__Cat$ = -1						; size = 1
___formal$ = 8						; size = 4
___formal$ = 12						; size = 4
??$_Ptr_cat@PAVCvOperationSearchUnit@@PAV1@@std@@YA?AU_Nonscalar_ptr_iterator_tag@0@AAPAVCvOperationSearchUnit@@0@Z PROC ; std::_Ptr_cat<CvOperationSearchUnit *,CvOperationSearchUnit *>, COMDAT

; 1509 : 	{

	push	ecx

; 1510 : 	typename _Ptr_cat_helper<_T1, _T2>::_Ptr_cat _Cat;
; 1511 : 	return (_Cat);

	mov	al, BYTE PTR __Cat$[esp+4]

; 1512 : 	}

	pop	ecx
	ret	0
??$_Ptr_cat@PAVCvOperationSearchUnit@@PAV1@@std@@YA?AU_Nonscalar_ptr_iterator_tag@0@AAPAVCvOperationSearchUnit@@0@Z ENDP ; std::_Ptr_cat<CvOperationSearchUnit *,CvOperationSearchUnit *>
_TEXT	ENDS
PUBLIC	??$_Copy_backward_opt@PAVCvOperationSearchUnit@@PAV1@Urandom_access_iterator_tag@std@@@std@@YAPAVCvOperationSearchUnit@@PAV1@00Urandom_access_iterator_tag@0@U_Nonscalar_ptr_iterator_tag@0@U_Range_checked_iterator_tag@0@@Z ; std::_Copy_backward_opt<CvOperationSearchUnit *,CvOperationSearchUnit *,std::random_access_iterator_tag>
; Function compile flags: /Ogtpy
;	COMDAT ??$_Copy_backward_opt@PAVCvOperationSearchUnit@@PAV1@Urandom_access_iterator_tag@std@@@std@@YAPAVCvOperationSearchUnit@@PAV1@00Urandom_access_iterator_tag@0@U_Nonscalar_ptr_iterator_tag@0@U_Range_checked_iterator_tag@0@@Z
_TEXT	SEGMENT
__First$ = 8						; size = 4
__Last$ = 12						; size = 4
__Dest$ = 16						; size = 4
___formal$ = 20						; size = 1
___formal$ = 24						; size = 1
___formal$ = 28						; size = 1
??$_Copy_backward_opt@PAVCvOperationSearchUnit@@PAV1@Urandom_access_iterator_tag@std@@@std@@YAPAVCvOperationSearchUnit@@PAV1@00Urandom_access_iterator_tag@0@U_Nonscalar_ptr_iterator_tag@0@U_Range_checked_iterator_tag@0@@Z PROC ; std::_Copy_backward_opt<CvOperationSearchUnit *,CvOperationSearchUnit *,std::random_access_iterator_tag>, COMDAT

; 2674 : 	_DEBUG_RANGE(_First, _Last);
; 2675 : 	while (_First != _Last)

	mov	edx, DWORD PTR __First$[esp-4]
	mov	ecx, DWORD PTR __Last$[esp-4]
	mov	eax, DWORD PTR __Dest$[esp-4]
	cmp	edx, ecx
	je	SHORT $LN1@Copy_backw@3
	push	esi
$LL2@Copy_backw@3:

; 2676 : 		*--_Dest = *--_Last;

	mov	esi, DWORD PTR [ecx-8]
	sub	ecx, 8
	sub	eax, 8
	mov	DWORD PTR [eax], esi
	mov	esi, DWORD PTR [ecx+4]
	mov	DWORD PTR [eax+4], esi
	cmp	ecx, edx
	jne	SHORT $LL2@Copy_backw@3
	pop	esi
$LN1@Copy_backw@3:

; 2677 : 	return (_Dest);
; 2678 : 	}

	ret	0
??$_Copy_backward_opt@PAVCvOperationSearchUnit@@PAV1@Urandom_access_iterator_tag@std@@@std@@YAPAVCvOperationSearchUnit@@PAV1@00Urandom_access_iterator_tag@0@U_Nonscalar_ptr_iterator_tag@0@U_Range_checked_iterator_tag@0@@Z ENDP ; std::_Copy_backward_opt<CvOperationSearchUnit *,CvOperationSearchUnit *,std::random_access_iterator_tag>
_TEXT	ENDS
PUBLIC	??$_Copy_opt@PAVCvOperationSearchUnit@@PAV1@Urandom_access_iterator_tag@std@@@std@@YAPAVCvOperationSearchUnit@@PAV1@00Urandom_access_iterator_tag@0@U_Nonscalar_ptr_iterator_tag@0@U_Range_checked_iterator_tag@0@@Z ; std::_Copy_opt<CvOperationSearchUnit *,CvOperationSearchUnit *,std::random_access_iterator_tag>
; Function compile flags: /Ogtpy
;	COMDAT ??$_Copy_opt@PAVCvOperationSearchUnit@@PAV1@Urandom_access_iterator_tag@std@@@std@@YAPAVCvOperationSearchUnit@@PAV1@00Urandom_access_iterator_tag@0@U_Nonscalar_ptr_iterator_tag@0@U_Range_checked_iterator_tag@0@@Z
_TEXT	SEGMENT
__First$ = 8						; size = 4
__Last$ = 12						; size = 4
__Dest$ = 16						; size = 4
___formal$ = 20						; size = 1
___formal$ = 24						; size = 1
___formal$ = 28						; size = 1
??$_Copy_opt@PAVCvOperationSearchUnit@@PAV1@Urandom_access_iterator_tag@std@@@std@@YAPAVCvOperationSearchUnit@@PAV1@00Urandom_access_iterator_tag@0@U_Nonscalar_ptr_iterator_tag@0@U_Range_checked_iterator_tag@0@@Z PROC ; std::_Copy_opt<CvOperationSearchUnit *,CvOperationSearchUnit *,std::random_access_iterator_tag>, COMDAT

; 2470 : 	_DEBUG_RANGE(_First, _Last);
; 2471 : 	for (; _First != _Last; ++_Dest, ++_First)

	mov	ecx, DWORD PTR __First$[esp-4]
	mov	edx, DWORD PTR __Last$[esp-4]
	mov	eax, DWORD PTR __Dest$[esp-4]
	cmp	ecx, edx
	je	SHORT $LN1@Copy_opt@2
	push	esi
$LL3@Copy_opt@2:

; 2472 : 		*_Dest = *_First;

	mov	esi, DWORD PTR [ecx]
	mov	DWORD PTR [eax], esi
	mov	esi, DWORD PTR [ecx+4]
	mov	DWORD PTR [eax+4], esi
	add	ecx, 8
	add	eax, 8
	cmp	ecx, edx
	jne	SHORT $LL3@Copy_opt@2
	pop	esi
$LN1@Copy_opt@2:

; 2473 : 	return (_Dest);
; 2474 : 	}

	ret	0
??$_Copy_opt@PAVCvOperationSearchUnit@@PAV1@Urandom_access_iterator_tag@std@@@std@@YAPAVCvOperationSearchUnit@@PAV1@00Urandom_access_iterator_tag@0@U_Nonscalar_ptr_iterator_tag@0@U_Range_checked_iterator_tag@0@@Z ENDP ; std::_Copy_opt<CvOperationSearchUnit *,CvOperationSearchUnit *,std::random_access_iterator_tag>
_TEXT	ENDS
PUBLIC	??$_Construct@VCvOperationSearchUnit@@V1@@std@@YAXPAVCvOperationSearchUnit@@ABV1@@Z ; std::_Construct<CvOperationSearchUnit,CvOperationSearchUnit>
; Function compile flags: /Ogtpy
; File c:\program files (x86)\microsoft visual studio 9.0\vc\include\xmemory
;	COMDAT ??$_Construct@VCvOperationSearchUnit@@V1@@std@@YAXPAVCvOperationSearchUnit@@ABV1@@Z
_TEXT	SEGMENT
__Ptr$ = 8						; size = 4
__Val$ = 12						; size = 4
??$_Construct@VCvOperationSearchUnit@@V1@@std@@YAXPAVCvOperationSearchUnit@@ABV1@@Z PROC ; std::_Construct<CvOperationSearchUnit,CvOperationSearchUnit>, COMDAT

; 51   : 	void _FARQ *_Vptr = _Ptr;
; 52   : 	::new (_Vptr) _T1(_Val);

	mov	eax, DWORD PTR __Ptr$[esp-4]
	test	eax, eax
	je	SHORT $LN3@Construct@2
	mov	ecx, DWORD PTR __Val$[esp-4]
	mov	edx, DWORD PTR [ecx]
	mov	DWORD PTR [eax], edx
	mov	ecx, DWORD PTR [ecx+4]
	mov	DWORD PTR [eax+4], ecx
$LN3@Construct@2:

; 53   : 	}

	ret	0
??$_Construct@VCvOperationSearchUnit@@V1@@std@@YAXPAVCvOperationSearchUnit@@ABV1@@Z ENDP ; std::_Construct<CvOperationSearchUnit,CvOperationSearchUnit>
_TEXT	ENDS
PUBLIC	??$_Iter_random@PAVCvOperationSearchUnit@@PAV1@V?$_Temp_iterator@VCvOperationSearchUnit@@@std@@@std@@YA?AUforward_iterator_tag@0@ABQAVCvOperationSearchUnit@@0ABV?$_Temp_iterator@VCvOperationSearchUnit@@@0@@Z ; std::_Iter_random<CvOperationSearchUnit *,CvOperationSearchUnit *,std::_Temp_iterator<CvOperationSearchUnit> >
; Function compile flags: /Ogtpy
; File c:\program files (x86)\microsoft visual studio 9.0\vc\include\xutility
;	COMDAT ??$_Iter_random@PAVCvOperationSearchUnit@@PAV1@V?$_Temp_iterator@VCvOperationSearchUnit@@@std@@@std@@YA?AUforward_iterator_tag@0@ABQAVCvOperationSearchUnit@@0ABV?$_Temp_iterator@VCvOperationSearchUnit@@@0@@Z
_TEXT	SEGMENT
___$ReturnUdt$ = 8					; size = 4
___formal$ = 12						; size = 4
___formal$ = 16						; size = 4
___formal$ = 20						; size = 4
??$_Iter_random@PAVCvOperationSearchUnit@@PAV1@V?$_Temp_iterator@VCvOperationSearchUnit@@@std@@@std@@YA?AUforward_iterator_tag@0@ABQAVCvOperationSearchUnit@@0ABV?$_Temp_iterator@VCvOperationSearchUnit@@@0@@Z PROC ; std::_Iter_random<CvOperationSearchUnit *,CvOperationSearchUnit *,std::_Temp_iterator<CvOperationSearchUnit> >, COMDAT

; 1007 : 	typename _Iter_random_helper3<
; 1008 : 		iterator_traits<_Iter1>::iterator_category, 
; 1009 : 		iterator_traits<_Iter2>::iterator_category,
; 1010 : 		iterator_traits<_Iter3>::iterator_category>::_Iter_random_cat _Cat;
; 1011 : 	return (_Cat);

	mov	eax, DWORD PTR ___$ReturnUdt$[esp-4]

; 1012 : 	}

	ret	0
??$_Iter_random@PAVCvOperationSearchUnit@@PAV1@V?$_Temp_iterator@VCvOperationSearchUnit@@@std@@@std@@YA?AUforward_iterator_tag@0@ABQAVCvOperationSearchUnit@@0ABV?$_Temp_iterator@VCvOperationSearchUnit@@@0@@Z ENDP ; std::_Iter_random<CvOperationSearchUnit *,CvOperationSearchUnit *,std::_Temp_iterator<CvOperationSearchUnit> >
_TEXT	ENDS
PUBLIC	??$_Rotate@PAVCvOperationSearchUnit@@HV1@@std@@YAXPAVCvOperationSearchUnit@@00PAH0@Z ; std::_Rotate<CvOperationSearchUnit *,int,CvOperationSearchUnit>
; Function compile flags: /Ogtpy
; File c:\program files (x86)\microsoft visual studio 9.0\vc\include\algorithm
;	COMDAT ??$_Rotate@PAVCvOperationSearchUnit@@HV1@@std@@YAXPAVCvOperationSearchUnit@@00PAH0@Z
_TEXT	SEGMENT
__Holeval$229599 = -8					; size = 8
__First$ = 8						; size = 4
__Mid$ = 12						; size = 4
__Last$ = 16						; size = 4
___formal$ = 20						; size = 4
___formal$ = 24						; size = 4
??$_Rotate@PAVCvOperationSearchUnit@@HV1@@std@@YAXPAVCvOperationSearchUnit@@00PAH0@Z PROC ; std::_Rotate<CvOperationSearchUnit *,int,CvOperationSearchUnit>, COMDAT

; 1679 : 	{	// rotate [_First, _Last), random-access iterators

	sub	esp, 8
	push	ebx

; 1680 : 	_DEBUG_RANGE(_First, _Mid);
; 1681 : 	_DEBUG_RANGE(_Mid, _Last);
; 1682 : 	_Diff _Shift = _Mid - _First;

	mov	ebx, DWORD PTR __Mid$[esp+8]
	push	ebp

; 1683 : 	_Diff _Count = _Last - _First;

	mov	ebp, DWORD PTR __Last$[esp+12]
	push	esi
	push	edi
	mov	edi, DWORD PTR __First$[esp+20]
	sub	ebx, edi
	mov	ecx, ebp
	sub	ecx, edi
	sar	ebx, 3
	sar	ecx, 3
	mov	eax, ecx

; 1684 : 
; 1685 : 	for (_Diff _Factor = _Shift; _Factor != 0; )

	mov	esi, ebx
	test	ebx, ebx
	je	SHORT $LN7@Rotate
$LL8@Rotate:

; 1686 : 		{	// find subcycle count as GCD of shift count and length
; 1687 : 		_Diff _Tmp = _Count % _Factor;

	cdq
	idiv	esi

; 1688 : 		_Count = _Factor, _Factor = _Tmp;

	mov	eax, esi
	mov	esi, edx
	test	edx, edx
	jne	SHORT $LL8@Rotate
$LN7@Rotate:

; 1689 : 		}
; 1690 : 
; 1691 : 	if (_Count < _Last - _First)

	cmp	eax, ecx
	jge	SHORT $LN3@Rotate

; 1692 : 		for (; 0 < _Count; --_Count)

	test	eax, eax
	jle	SHORT $LN3@Rotate
	lea	edi, DWORD PTR [edi+eax*8]
	npad	3
$LL5@Rotate:

; 1693 : 			{	// rotate each subcycle
; 1694 : 			_RanIt _Hole = _First + _Count;
; 1695 : 			_RanIt _Next = _Hole;
; 1696 : 			_Ty _Holeval = *_Hole;

	mov	ecx, DWORD PTR [edi]
	mov	edx, DWORD PTR [edi+4]
	mov	DWORD PTR __Holeval$229599[esp+24], ecx

; 1697 : 			_RanIt _Next1 = _Next + _Shift == _Last ? _First : _Next + _Shift;

	lea	ecx, DWORD PTR [edi+ebx*8]
	mov	esi, edi
	mov	DWORD PTR __Holeval$229599[esp+28], edx
	cmp	ecx, ebp
	jne	SHORT $LN11@Rotate
	mov	ecx, DWORD PTR __First$[esp+20]
$LN11@Rotate:

; 1698 : 			while (_Next1 != _Hole)

	cmp	ecx, edi
	je	SHORT $LN1@Rotate
	npad	2
$LL2@Rotate:

; 1699 : 				{	// percolate elements back around subcycle
; 1700 : 				*_Next = *_Next1;

	mov	edx, DWORD PTR [ecx]
	mov	DWORD PTR [esi], edx
	mov	edx, DWORD PTR [ecx+4]
	mov	DWORD PTR [esi+4], edx

; 1701 : 				_Next = _Next1;
; 1702 : 				_Next1 = _Shift < _Last - _Next1 ? _Next1 + _Shift
; 1703 : 					: _First + (_Shift - (_Last - _Next1));

	mov	edx, ebp
	sub	edx, ecx
	sar	edx, 3
	cmp	ebx, edx
	mov	esi, ecx
	jge	SHORT $LN13@Rotate
	lea	edx, DWORD PTR [ebx*8]
	add	ecx, edx
	jmp	SHORT $LN14@Rotate
$LN13@Rotate:
	mov	ecx, ebx
	sub	ecx, edx
	mov	edx, DWORD PTR __First$[esp+20]
	lea	ecx, DWORD PTR [edx+ecx*8]
$LN14@Rotate:

; 1698 : 			while (_Next1 != _Hole)

	cmp	ecx, edi
	jne	SHORT $LL2@Rotate
$LN1@Rotate:

; 1704 : 				}
; 1705 : 			*_Next = _Holeval;

	mov	ecx, DWORD PTR __Holeval$229599[esp+24]
	mov	edx, DWORD PTR __Holeval$229599[esp+28]
	dec	eax
	sub	edi, 8
	mov	DWORD PTR [esi], ecx
	mov	DWORD PTR [esi+4], edx
	test	eax, eax
	jg	SHORT $LL5@Rotate
$LN3@Rotate:
	pop	edi
	pop	esi
	pop	ebp
	pop	ebx

; 1706 : 			}
; 1707 : 	}

	add	esp, 8
	ret	0
??$_Rotate@PAVCvOperationSearchUnit@@HV1@@std@@YAXPAVCvOperationSearchUnit@@00PAH0@Z ENDP ; std::_Rotate<CvOperationSearchUnit *,int,CvOperationSearchUnit>
_TEXT	ENDS
PUBLIC	?GetID@CvBaseInfo@@QBEHXZ			; CvBaseInfo::GetID
; Function compile flags: /Ogtpy
; File c:\users\enormousapplepie\documents\github\lekmod\lekmod_dll\cvgamecoredll_expansion2\cvinfos.h
;	COMDAT ?GetID@CvBaseInfo@@QBEHXZ
_TEXT	SEGMENT
?GetID@CvBaseInfo@@QBEHXZ PROC				; CvBaseInfo::GetID, COMDAT
; _this$ = ecx

; 54   : 		return m_iID;

	mov	eax, DWORD PTR [ecx+4]

; 55   : 	}

	ret	0
?GetID@CvBaseInfo@@QBEHXZ ENDP				; CvBaseInfo::GetID
_TEXT	ENDS
PUBLIC	?getMap@CvGlobals@@QAEAAVCvMap@@XZ		; CvGlobals::getMap
; Function compile flags: /Ogtpy
; File c:\users\enormousapplepie\documents\github\lekmod\lekmod_dll\cvgamecoredll_expansion2\cvglobals.h
;	COMDAT ?getMap@CvGlobals@@QAEAAVCvMap@@XZ
_TEXT	SEGMENT
?getMap@CvGlobals@@QAEAAVCvMap@@XZ PROC			; CvGlobals::getMap, COMDAT
; _this$ = ecx

; 175  : 		return *m_map;    // inlined for perf reasons, do not use outside of dll

	mov	eax, DWORD PTR [ecx+52]

; 176  : 	}

	ret	0
?getMap@CvGlobals@@QAEAAVCvMap@@XZ ENDP			; CvGlobals::getMap
_TEXT	ENDS
PUBLIC	?getGame@CvGlobals@@QAEAAVCvGame@@XZ		; CvGlobals::getGame
; Function compile flags: /Ogtpy
;	COMDAT ?getGame@CvGlobals@@QAEAAVCvGame@@XZ
_TEXT	SEGMENT
?getGame@CvGlobals@@QAEAAVCvGame@@XZ PROC		; CvGlobals::getGame, COMDAT
; _this$ = ecx

; 183  : 		return *m_game;    // inlined for perf reasons, do not use outside of dll

	mov	eax, DWORD PTR [ecx+48]

; 184  : 	}

	ret	0
?getGame@CvGlobals@@QAEAAVCvGame@@XZ ENDP		; CvGlobals::getGame
_TEXT	ENDS
PUBLIC	?getPlotDirectionX@CvGlobals@@QAEPAHXZ		; CvGlobals::getPlotDirectionX
; Function compile flags: /Ogtpy
;	COMDAT ?getPlotDirectionX@CvGlobals@@QAEPAHXZ
_TEXT	SEGMENT
?getPlotDirectionX@CvGlobals@@QAEPAHXZ PROC		; CvGlobals::getPlotDirectionX, COMDAT
; _this$ = ecx

; 191  : 		return m_aiPlotDirectionX;

	lea	eax, DWORD PTR [ecx+112]

; 192  : 	}

	ret	0
?getPlotDirectionX@CvGlobals@@QAEPAHXZ ENDP		; CvGlobals::getPlotDirectionX
_TEXT	ENDS
PUBLIC	?getPlotDirectionY@CvGlobals@@QAEPAHXZ		; CvGlobals::getPlotDirectionY
; Function compile flags: /Ogtpy
;	COMDAT ?getPlotDirectionY@CvGlobals@@QAEPAHXZ
_TEXT	SEGMENT
?getPlotDirectionY@CvGlobals@@QAEPAHXZ PROC		; CvGlobals::getPlotDirectionY, COMDAT
; _this$ = ecx

; 195  : 		return m_aiPlotDirectionY;

	lea	eax, DWORD PTR [ecx+136]

; 196  : 	}

	ret	0
?getPlotDirectionY@CvGlobals@@QAEPAHXZ ENDP		; CvGlobals::getPlotDirectionY
_TEXT	ENDS
PUBLIC	?getAI_OPERATIONAL_BARBARIAN_CAMP_DEPLOY_RANGE@CvGlobals@@QAEHXZ ; CvGlobals::getAI_OPERATIONAL_BARBARIAN_CAMP_DEPLOY_RANGE
; Function compile flags: /Ogtpy
;	COMDAT ?getAI_OPERATIONAL_BARBARIAN_CAMP_DEPLOY_RANGE@CvGlobals@@QAEHXZ
_TEXT	SEGMENT
?getAI_OPERATIONAL_BARBARIAN_CAMP_DEPLOY_RANGE@CvGlobals@@QAEHXZ PROC ; CvGlobals::getAI_OPERATIONAL_BARBARIAN_CAMP_DEPLOY_RANGE, COMDAT
; _this$ = ecx

; 1481 : 		return m_iAI_OPERATIONAL_BARBARIAN_CAMP_DEPLOY_RANGE;

	mov	eax, DWORD PTR [ecx+2416]

; 1482 : 	}

	ret	0
?getAI_OPERATIONAL_BARBARIAN_CAMP_DEPLOY_RANGE@CvGlobals@@QAEHXZ ENDP ; CvGlobals::getAI_OPERATIONAL_BARBARIAN_CAMP_DEPLOY_RANGE
_TEXT	ENDS
PUBLIC	?getAI_OPERATIONAL_CITY_ATTACK_DEPLOY_RANGE@CvGlobals@@QAEHXZ ; CvGlobals::getAI_OPERATIONAL_CITY_ATTACK_DEPLOY_RANGE
; Function compile flags: /Ogtpy
;	COMDAT ?getAI_OPERATIONAL_CITY_ATTACK_DEPLOY_RANGE@CvGlobals@@QAEHXZ
_TEXT	SEGMENT
?getAI_OPERATIONAL_CITY_ATTACK_DEPLOY_RANGE@CvGlobals@@QAEHXZ PROC ; CvGlobals::getAI_OPERATIONAL_CITY_ATTACK_DEPLOY_RANGE, COMDAT
; _this$ = ecx

; 1485 : 		return m_iAI_OPERATIONAL_CITY_ATTACK_DEPLOY_RANGE;

	mov	eax, DWORD PTR [ecx+2420]

; 1486 : 	}

	ret	0
?getAI_OPERATIONAL_CITY_ATTACK_DEPLOY_RANGE@CvGlobals@@QAEHXZ ENDP ; CvGlobals::getAI_OPERATIONAL_CITY_ATTACK_DEPLOY_RANGE
_TEXT	ENDS
PUBLIC	?getAI_OPERATIONAL_PILLAGE_ENEMY_DEPLOY_RANGE@CvGlobals@@QAEHXZ ; CvGlobals::getAI_OPERATIONAL_PILLAGE_ENEMY_DEPLOY_RANGE
; Function compile flags: /Ogtpy
;	COMDAT ?getAI_OPERATIONAL_PILLAGE_ENEMY_DEPLOY_RANGE@CvGlobals@@QAEHXZ
_TEXT	SEGMENT
?getAI_OPERATIONAL_PILLAGE_ENEMY_DEPLOY_RANGE@CvGlobals@@QAEHXZ PROC ; CvGlobals::getAI_OPERATIONAL_PILLAGE_ENEMY_DEPLOY_RANGE, COMDAT
; _this$ = ecx

; 1489 : 		return m_iAI_OPERATIONAL_PILLAGE_ENEMY_DEPLOY_RANGE;

	mov	eax, DWORD PTR [ecx+2424]

; 1490 : 	}

	ret	0
?getAI_OPERATIONAL_PILLAGE_ENEMY_DEPLOY_RANGE@CvGlobals@@QAEHXZ ENDP ; CvGlobals::getAI_OPERATIONAL_PILLAGE_ENEMY_DEPLOY_RANGE
_TEXT	ENDS
PUBLIC	?getAI_OPERATIONAL_NAVAL_BOMBARDMENT_DEPLOY_RANGE@CvGlobals@@QAEHXZ ; CvGlobals::getAI_OPERATIONAL_NAVAL_BOMBARDMENT_DEPLOY_RANGE
; Function compile flags: /Ogtpy
;	COMDAT ?getAI_OPERATIONAL_NAVAL_BOMBARDMENT_DEPLOY_RANGE@CvGlobals@@QAEHXZ
_TEXT	SEGMENT
?getAI_OPERATIONAL_NAVAL_BOMBARDMENT_DEPLOY_RANGE@CvGlobals@@QAEHXZ PROC ; CvGlobals::getAI_OPERATIONAL_NAVAL_BOMBARDMENT_DEPLOY_RANGE, COMDAT
; _this$ = ecx

; 1493 : 		return m_iAI_OPERATIONAL_NAVAL_BOMBARDMENT_DEPLOY_RANGE;

	mov	eax, DWORD PTR [ecx+2428]

; 1494 : 	}

	ret	0
?getAI_OPERATIONAL_NAVAL_BOMBARDMENT_DEPLOY_RANGE@CvGlobals@@QAEHXZ ENDP ; CvGlobals::getAI_OPERATIONAL_NAVAL_BOMBARDMENT_DEPLOY_RANGE
_TEXT	ENDS
PUBLIC	?getAI_OPERATIONAL_PERCENT_DANGER_FOR_FORWARD_MUSTER@CvGlobals@@QAEHXZ ; CvGlobals::getAI_OPERATIONAL_PERCENT_DANGER_FOR_FORWARD_MUSTER
; Function compile flags: /Ogtpy
;	COMDAT ?getAI_OPERATIONAL_PERCENT_DANGER_FOR_FORWARD_MUSTER@CvGlobals@@QAEHXZ
_TEXT	SEGMENT
?getAI_OPERATIONAL_PERCENT_DANGER_FOR_FORWARD_MUSTER@CvGlobals@@QAEHXZ PROC ; CvGlobals::getAI_OPERATIONAL_PERCENT_DANGER_FOR_FORWARD_MUSTER, COMDAT
; _this$ = ecx

; 1497 : 		return m_iAI_OPERATIONAL_PERCENT_DANGER_FOR_FORWARD_MUSTER;

	mov	eax, DWORD PTR [ecx+2432]

; 1498 : 	}

	ret	0
?getAI_OPERATIONAL_PERCENT_DANGER_FOR_FORWARD_MUSTER@CvGlobals@@QAEHXZ ENDP ; CvGlobals::getAI_OPERATIONAL_PERCENT_DANGER_FOR_FORWARD_MUSTER
_TEXT	ENDS
PUBLIC	?getAI_OPERATIONAL_PERCENT_HEALTH_FOR_OPERATION@CvGlobals@@QAEHXZ ; CvGlobals::getAI_OPERATIONAL_PERCENT_HEALTH_FOR_OPERATION
; Function compile flags: /Ogtpy
;	COMDAT ?getAI_OPERATIONAL_PERCENT_HEALTH_FOR_OPERATION@CvGlobals@@QAEHXZ
_TEXT	SEGMENT
?getAI_OPERATIONAL_PERCENT_HEALTH_FOR_OPERATION@CvGlobals@@QAEHXZ PROC ; CvGlobals::getAI_OPERATIONAL_PERCENT_HEALTH_FOR_OPERATION, COMDAT
; _this$ = ecx

; 1501 : 		return m_iAI_OPERATIONAL_PERCENT_HEALTH_FOR_OPERATION;

	mov	eax, DWORD PTR [ecx+2436]

; 1502 : 	}

	ret	0
?getAI_OPERATIONAL_PERCENT_HEALTH_FOR_OPERATION@CvGlobals@@QAEHXZ ENDP ; CvGlobals::getAI_OPERATIONAL_PERCENT_HEALTH_FOR_OPERATION
_TEXT	ENDS
PUBLIC	?getAI_TACTICAL_MAP_TEMP_ZONE_TURNS@CvGlobals@@QAEHXZ ; CvGlobals::getAI_TACTICAL_MAP_TEMP_ZONE_TURNS
; Function compile flags: /Ogtpy
;	COMDAT ?getAI_TACTICAL_MAP_TEMP_ZONE_TURNS@CvGlobals@@QAEHXZ
_TEXT	SEGMENT
?getAI_TACTICAL_MAP_TEMP_ZONE_TURNS@CvGlobals@@QAEHXZ PROC ; CvGlobals::getAI_TACTICAL_MAP_TEMP_ZONE_TURNS, COMDAT
; _this$ = ecx

; 1517 : 		return m_iAI_TACTICAL_MAP_TEMP_ZONE_TURNS;

	mov	eax, DWORD PTR [ecx+2452]

; 1518 : 	}

	ret	0
?getAI_TACTICAL_MAP_TEMP_ZONE_TURNS@CvGlobals@@QAEHXZ ENDP ; CvGlobals::getAI_TACTICAL_MAP_TEMP_ZONE_TURNS
_TEXT	ENDS
PUBLIC	?getAI_TACTICAL_MAP_BOMBARDMENT_ZONE_TURNS@CvGlobals@@QAEHXZ ; CvGlobals::getAI_TACTICAL_MAP_BOMBARDMENT_ZONE_TURNS
; Function compile flags: /Ogtpy
;	COMDAT ?getAI_TACTICAL_MAP_BOMBARDMENT_ZONE_TURNS@CvGlobals@@QAEHXZ
_TEXT	SEGMENT
?getAI_TACTICAL_MAP_BOMBARDMENT_ZONE_TURNS@CvGlobals@@QAEHXZ PROC ; CvGlobals::getAI_TACTICAL_MAP_BOMBARDMENT_ZONE_TURNS, COMDAT
; _this$ = ecx

; 1521 : 		return m_iAI_TACTICAL_MAP_BOMBARDMENT_ZONE_TURNS;

	mov	eax, DWORD PTR [ecx+2456]

; 1522 : 	}

	ret	0
?getAI_TACTICAL_MAP_BOMBARDMENT_ZONE_TURNS@CvGlobals@@QAEHXZ ENDP ; CvGlobals::getAI_TACTICAL_MAP_BOMBARDMENT_ZONE_TURNS
_TEXT	ENDS
PUBLIC	?getAI_HOMELAND_ESTIMATE_TURNS_DISTANCE@CvGlobals@@QAEHXZ ; CvGlobals::getAI_HOMELAND_ESTIMATE_TURNS_DISTANCE
; Function compile flags: /Ogtpy
;	COMDAT ?getAI_HOMELAND_ESTIMATE_TURNS_DISTANCE@CvGlobals@@QAEHXZ
_TEXT	SEGMENT
?getAI_HOMELAND_ESTIMATE_TURNS_DISTANCE@CvGlobals@@QAEHXZ PROC ; CvGlobals::getAI_HOMELAND_ESTIMATE_TURNS_DISTANCE, COMDAT
; _this$ = ecx

; 1637 : 		return m_iAI_HOMELAND_ESTIMATE_TURNS_DISTANCE;

	mov	eax, DWORD PTR [ecx+2572]

; 1638 : 	}

	ret	0
?getAI_HOMELAND_ESTIMATE_TURNS_DISTANCE@CvGlobals@@QAEHXZ ENDP ; CvGlobals::getAI_HOMELAND_ESTIMATE_TURNS_DISTANCE
_TEXT	ENDS
PUBLIC	?getNUKE_BLAST_RADIUS@CvGlobals@@QAEHXZ		; CvGlobals::getNUKE_BLAST_RADIUS
; Function compile flags: /Ogtpy
;	COMDAT ?getNUKE_BLAST_RADIUS@CvGlobals@@QAEHXZ
_TEXT	SEGMENT
?getNUKE_BLAST_RADIUS@CvGlobals@@QAEHXZ PROC		; CvGlobals::getNUKE_BLAST_RADIUS, COMDAT
; _this$ = ecx

; 5748 : 		return m_iNUKE_BLAST_RADIUS;

	mov	eax, DWORD PTR [ecx+6672]

; 5749 : 	}

	ret	0
?getNUKE_BLAST_RADIUS@CvGlobals@@QAEHXZ ENDP		; CvGlobals::getNUKE_BLAST_RADIUS
_TEXT	ENDS
PUBLIC	?getAI_OPERATIONAL_MAX_RECRUIT_TURNS_DEFAULT@CvGlobals@@QAEHXZ ; CvGlobals::getAI_OPERATIONAL_MAX_RECRUIT_TURNS_DEFAULT
; Function compile flags: /Ogtpy
;	COMDAT ?getAI_OPERATIONAL_MAX_RECRUIT_TURNS_DEFAULT@CvGlobals@@QAEHXZ
_TEXT	SEGMENT
?getAI_OPERATIONAL_MAX_RECRUIT_TURNS_DEFAULT@CvGlobals@@QAEHXZ PROC ; CvGlobals::getAI_OPERATIONAL_MAX_RECRUIT_TURNS_DEFAULT, COMDAT
; _this$ = ecx

; 6981 : 		return m_iAI_OPERATIONAL_MAX_RECRUIT_TURNS_DEFAULT;

	mov	eax, DWORD PTR [ecx+7852]

; 6982 : 	}

	ret	0
?getAI_OPERATIONAL_MAX_RECRUIT_TURNS_DEFAULT@CvGlobals@@QAEHXZ ENDP ; CvGlobals::getAI_OPERATIONAL_MAX_RECRUIT_TURNS_DEFAULT
_TEXT	ENDS
PUBLIC	?getAI_OPERATIONAL_MAX_RECRUIT_TURNS_ENEMY_TERRITORY@CvGlobals@@QAEHXZ ; CvGlobals::getAI_OPERATIONAL_MAX_RECRUIT_TURNS_ENEMY_TERRITORY
; Function compile flags: /Ogtpy
;	COMDAT ?getAI_OPERATIONAL_MAX_RECRUIT_TURNS_ENEMY_TERRITORY@CvGlobals@@QAEHXZ
_TEXT	SEGMENT
?getAI_OPERATIONAL_MAX_RECRUIT_TURNS_ENEMY_TERRITORY@CvGlobals@@QAEHXZ PROC ; CvGlobals::getAI_OPERATIONAL_MAX_RECRUIT_TURNS_ENEMY_TERRITORY, COMDAT
; _this$ = ecx

; 6985 : 		return m_iAI_OPERATIONAL_MAX_RECRUIT_TURNS_ENEMY_TERRITORY;

	mov	eax, DWORD PTR [ecx+7856]

; 6986 : 	}

	ret	0
?getAI_OPERATIONAL_MAX_RECRUIT_TURNS_ENEMY_TERRITORY@CvGlobals@@QAEHXZ ENDP ; CvGlobals::getAI_OPERATIONAL_MAX_RECRUIT_TURNS_ENEMY_TERRITORY
_TEXT	ENDS
PUBLIC	?getBARBARIAN_CAMP_IMPROVEMENT@CvGlobals@@QAEHXZ ; CvGlobals::getBARBARIAN_CAMP_IMPROVEMENT
; Function compile flags: /Ogtpy
;	COMDAT ?getBARBARIAN_CAMP_IMPROVEMENT@CvGlobals@@QAEHXZ
_TEXT	SEGMENT
?getBARBARIAN_CAMP_IMPROVEMENT@CvGlobals@@QAEHXZ PROC	; CvGlobals::getBARBARIAN_CAMP_IMPROVEMENT, COMDAT
; _this$ = ecx

; 7355 : 		return m_iBARBARIAN_CAMP_IMPROVEMENT;

	mov	eax, DWORD PTR [ecx+8548]

; 7356 : 	}

	ret	0
?getBARBARIAN_CAMP_IMPROVEMENT@CvGlobals@@QAEHXZ ENDP	; CvGlobals::getBARBARIAN_CAMP_IMPROVEMENT
_TEXT	ENDS
PUBLIC	??0OperationSlot@@QAE@XZ			; OperationSlot::OperationSlot
; Function compile flags: /Ogtpy
; File c:\users\enormousapplepie\documents\github\lekmod\lekmod_dll\cvgamecoredll_expansion2\cvaioperation.h
;	COMDAT ??0OperationSlot@@QAE@XZ
_TEXT	SEGMENT
??0OperationSlot@@QAE@XZ PROC				; OperationSlot::OperationSlot, COMDAT
; _this$ = ecx

; 94   : 	OperationSlot()

	mov	eax, ecx

; 95   : 	{
; 96   : 		m_iOperationID = -1;

	or	ecx, -1
	mov	DWORD PTR [eax], ecx

; 97   : 		m_iArmyID = FFreeList::INVALID_INDEX;

	mov	DWORD PTR [eax+4], ecx

; 98   : 		m_iSlotID = -1;

	mov	DWORD PTR [eax+8], ecx

; 99   : 	}

	ret	0
??0OperationSlot@@QAE@XZ ENDP				; OperationSlot::OperationSlot
_TEXT	ENDS
PUBLIC	??8OperationSlot@@QBE_NABU0@@Z			; OperationSlot::operator==
; Function compile flags: /Ogtpy
;	COMDAT ??8OperationSlot@@QBE_NABU0@@Z
_TEXT	SEGMENT
_other$ = 8						; size = 4
??8OperationSlot@@QBE_NABU0@@Z PROC			; OperationSlot::operator==, COMDAT
; _this$ = ecx

; 103  : 		return (other.m_iArmyID == m_iArmyID && other.m_iSlotID == m_iSlotID && other.m_iOperationID == m_iOperationID);

	mov	eax, DWORD PTR _other$[esp-4]
	mov	edx, DWORD PTR [eax+4]
	cmp	edx, DWORD PTR [ecx+4]
	jne	SHORT $LN3@operator@2
	mov	edx, DWORD PTR [eax+8]
	cmp	edx, DWORD PTR [ecx+8]
	jne	SHORT $LN3@operator@2
	mov	eax, DWORD PTR [eax]
	cmp	eax, DWORD PTR [ecx]
	jne	SHORT $LN3@operator@2
	mov	eax, 1

; 104  : 	}

	ret	4
$LN3@operator@2:

; 103  : 		return (other.m_iArmyID == m_iArmyID && other.m_iSlotID == m_iSlotID && other.m_iOperationID == m_iOperationID);

	xor	eax, eax

; 104  : 	}

	ret	4
??8OperationSlot@@QBE_NABU0@@Z ENDP			; OperationSlot::operator==
_TEXT	ENDS
PUBLIC	?GetOwner@CvAIOperation@@QBE?AW4PlayerTypes@@XZ	; CvAIOperation::GetOwner
; Function compile flags: /Ogtpy
;	COMDAT ?GetOwner@CvAIOperation@@QBE?AW4PlayerTypes@@XZ
_TEXT	SEGMENT
?GetOwner@CvAIOperation@@QBE?AW4PlayerTypes@@XZ PROC	; CvAIOperation::GetOwner, COMDAT
; _this$ = ecx

; 186  : 		return m_eOwner;

	mov	eax, DWORD PTR [ecx+72]

; 187  : 	}

	ret	0
?GetOwner@CvAIOperation@@QBE?AW4PlayerTypes@@XZ ENDP	; CvAIOperation::GetOwner
_TEXT	ENDS
PUBLIC	?ArmyMoved@CvAIOperation@@UAE_NPAVCvArmyAI@@@Z	; CvAIOperation::ArmyMoved
; Function compile flags: /Ogtpy
;	COMDAT ?ArmyMoved@CvAIOperation@@UAE_NPAVCvArmyAI@@@Z
_TEXT	SEGMENT
_pArmy$ = 8						; size = 4
?ArmyMoved@CvAIOperation@@UAE_NPAVCvArmyAI@@@Z PROC	; CvAIOperation::ArmyMoved, COMDAT
; _this$ = ecx

; 225  : 		return false;

	xor	al, al

; 226  : 	};

	ret	4
?ArmyMoved@CvAIOperation@@UAE_NPAVCvArmyAI@@@Z ENDP	; CvAIOperation::ArmyMoved
_TEXT	ENDS
PUBLIC	?GetUnitID@CvArmyFormationSlot@@QAEHXZ		; CvArmyFormationSlot::GetUnitID
; Function compile flags: /Ogtpy
; File c:\users\enormousapplepie\documents\github\lekmod\lekmod_dll\cvgamecoredll_expansion2\cvarmyai.h
;	COMDAT ?GetUnitID@CvArmyFormationSlot@@QAEHXZ
_TEXT	SEGMENT
?GetUnitID@CvArmyFormationSlot@@QAEHXZ PROC		; CvArmyFormationSlot::GetUnitID, COMDAT
; _this$ = ecx

; 41   : 		return m_iUnitID;

	mov	eax, DWORD PTR [ecx]

; 42   : 	};

	ret	0
?GetUnitID@CvArmyFormationSlot@@QAEHXZ ENDP		; CvArmyFormationSlot::GetUnitID
_TEXT	ENDS
PUBLIC	?GetTurnAtCheckpoint@CvArmyFormationSlot@@QAEHXZ ; CvArmyFormationSlot::GetTurnAtCheckpoint
; Function compile flags: /Ogtpy
;	COMDAT ?GetTurnAtCheckpoint@CvArmyFormationSlot@@QAEHXZ
_TEXT	SEGMENT
?GetTurnAtCheckpoint@CvArmyFormationSlot@@QAEHXZ PROC	; CvArmyFormationSlot::GetTurnAtCheckpoint, COMDAT
; _this$ = ecx

; 49   : 		return m_iEstimatedTurnAtCheckpoint;

	mov	eax, DWORD PTR [ecx+4]

; 50   : 	};

	ret	0
?GetTurnAtCheckpoint@CvArmyFormationSlot@@QAEHXZ ENDP	; CvArmyFormationSlot::GetTurnAtCheckpoint
_TEXT	ENDS
PUBLIC	?HasStartedOnOperation@CvArmyFormationSlot@@QAE_NXZ ; CvArmyFormationSlot::HasStartedOnOperation
; Function compile flags: /Ogtpy
;	COMDAT ?HasStartedOnOperation@CvArmyFormationSlot@@QAE_NXZ
_TEXT	SEGMENT
?HasStartedOnOperation@CvArmyFormationSlot@@QAE_NXZ PROC ; CvArmyFormationSlot::HasStartedOnOperation, COMDAT
; _this$ = ecx

; 57   : 		return m_bStartedOnOperation;

	cmp	DWORD PTR [ecx+8], 0
	setne	al

; 58   : 	};

	ret	0
?HasStartedOnOperation@CvArmyFormationSlot@@QAE_NXZ ENDP ; CvArmyFormationSlot::HasStartedOnOperation
_TEXT	ENDS
PUBLIC	?getPlayer@CvPlayerAI@@SAAAV1@W4PlayerTypes@@@Z	; CvPlayerAI::getPlayer
EXTRN	?m_aPlayers@CvPlayerAI@@1PAV1@A:DWORD		; CvPlayerAI::m_aPlayers
; Function compile flags: /Ogtpy
; File c:\users\enormousapplepie\documents\github\lekmod\lekmod_dll\cvgamecoredll_expansion2\cvplayerai.h
;	COMDAT ?getPlayer@CvPlayerAI@@SAAAV1@W4PlayerTypes@@@Z
_TEXT	SEGMENT
_ePlayer$ = 8						; size = 4
?getPlayer@CvPlayerAI@@SAAAV1@W4PlayerTypes@@@Z PROC	; CvPlayerAI::getPlayer, COMDAT

; 28   : 		CvAssertMsg(ePlayer != NO_PLAYER, "Player is not assigned a valid value");
; 29   : 		CvAssertMsg(ePlayer < MAX_PLAYERS, "Player is not assigned a valid value");
; 30   : 		return m_aPlayers[ePlayer];

	mov	eax, DWORD PTR _ePlayer$[esp-4]
	imul	eax, 63236				; 0000f704H
	add	eax, DWORD PTR ?m_aPlayers@CvPlayerAI@@1PAV1@A ; CvPlayerAI::m_aPlayers

; 31   : 	}

	ret	0
?getPlayer@CvPlayerAI@@SAAAV1@W4PlayerTypes@@@Z ENDP	; CvPlayerAI::getPlayer
_TEXT	ENDS
PUBLIC	?GetID@CvArea@@QBEHXZ				; CvArea::GetID
; Function compile flags: /Ogtpy
; File c:\users\enormousapplepie\documents\github\lekmod\lekmod_dll\cvgamecoredll_expansion2\cvarea.h
;	COMDAT ?GetID@CvArea@@QBEHXZ
_TEXT	SEGMENT
?GetID@CvArea@@QBEHXZ PROC				; CvArea::GetID, COMDAT
; _this$ = ecx

; 54   : 		return m_iID;

	mov	eax, DWORD PTR [ecx+4]

; 55   : 	}

	ret	0
?GetID@CvArea@@QBEHXZ ENDP				; CvArea::GetID
_TEXT	ENDS
PUBLIC	?isCity@CvPlot@@QBE_NXZ				; CvPlot::isCity
EXTRN	?getCity@CvPlayer@@QAEPAVCvCity@@H@Z:PROC	; CvPlayer::getCity
; Function compile flags: /Ogtpy
; File c:\users\enormousapplepie\documents\github\lekmod\lekmod_dll\cvgamecoredll_expansion2\cvplot.h
;	COMDAT ?isCity@CvPlot@@QBE_NXZ
_TEXT	SEGMENT
?isCity@CvPlot@@QBE_NXZ PROC				; CvPlot::isCity, COMDAT
; _this$ = ecx

; 245  : 		if((m_plotCity.eOwner >= 0) && m_plotCity.eOwner < MAX_PLAYERS)

	mov	eax, DWORD PTR [ecx+104]
	test	eax, eax
	jl	SHORT $LN1@isCity
	cmp	eax, 64					; 00000040H
	jge	SHORT $LN1@isCity

; 246  : 			return (GET_PLAYER((PlayerTypes)m_plotCity.eOwner).getCity(m_plotCity.iID)) != NULL;

	mov	ecx, DWORD PTR [ecx+108]
	imul	eax, 63236				; 0000f704H
	add	eax, DWORD PTR ?m_aPlayers@CvPlayerAI@@1PAV1@A ; CvPlayerAI::m_aPlayers
	push	ecx
	mov	ecx, eax
	call	?getCity@CvPlayer@@QAEPAVCvCity@@H@Z	; CvPlayer::getCity
	neg	eax
	sbb	eax, eax
	neg	eax

; 249  : 	}

	ret	0
$LN1@isCity:

; 247  : 
; 248  : 		return false;

	xor	al, al

; 249  : 	}

	ret	0
?isCity@CvPlot@@QBE_NXZ ENDP				; CvPlot::isCity
_TEXT	ENDS
PUBLIC	?getX@CvPlot@@QBEHXZ				; CvPlot::getX
; Function compile flags: /Ogtpy
;	COMDAT ?getX@CvPlot@@QBEHXZ
_TEXT	SEGMENT
?getX@CvPlot@@QBEHXZ PROC				; CvPlot::getX, COMDAT
; _this$ = ecx

; 307  : 		return m_iX;

	movsx	eax, WORD PTR [ecx]

; 308  : 	}

	ret	0
?getX@CvPlot@@QBEHXZ ENDP				; CvPlot::getX
_TEXT	ENDS
PUBLIC	?getY@CvPlot@@QBEHXZ				; CvPlot::getY
; Function compile flags: /Ogtpy
;	COMDAT ?getY@CvPlot@@QBEHXZ
_TEXT	SEGMENT
?getY@CvPlot@@QBEHXZ PROC				; CvPlot::getY, COMDAT
; _this$ = ecx

; 312  : 		return m_iY;

	movsx	eax, WORD PTR [ecx+2]

; 313  : 	}

	ret	0
?getY@CvPlot@@QBEHXZ ENDP				; CvPlot::getY
_TEXT	ENDS
PUBLIC	?getArea@CvPlot@@QBEHXZ				; CvPlot::getArea
; Function compile flags: /Ogtpy
;	COMDAT ?getArea@CvPlot@@QBEHXZ
_TEXT	SEGMENT
?getArea@CvPlot@@QBEHXZ PROC				; CvPlot::getArea, COMDAT
; _this$ = ecx

; 324  : 		return m_iArea;

	mov	eax, DWORD PTR [ecx+356]

; 325  : 	}

	ret	0
?getArea@CvPlot@@QBEHXZ ENDP				; CvPlot::getArea
_TEXT	ENDS
PUBLIC	?getOwner@CvPlot@@QBE?AW4PlayerTypes@@XZ	; CvPlot::getOwner
; Function compile flags: /Ogtpy
;	COMDAT ?getOwner@CvPlot@@QBE?AW4PlayerTypes@@XZ
_TEXT	SEGMENT
?getOwner@CvPlot@@QBE?AW4PlayerTypes@@XZ PROC		; CvPlot::getOwner, COMDAT
; _this$ = ecx

; 387  : 		return (PlayerTypes)m_eOwner;

	movsx	eax, BYTE PTR [ecx+4]

; 388  : 	}

	ret	0
?getOwner@CvPlot@@QBE?AW4PlayerTypes@@XZ ENDP		; CvPlot::getOwner
_TEXT	ENDS
PUBLIC	?isWater@CvPlot@@QBE_NXZ			; CvPlot::isWater
; Function compile flags: /Ogtpy
;	COMDAT ?isWater@CvPlot@@QBE_NXZ
_TEXT	SEGMENT
?isWater@CvPlot@@QBE_NXZ PROC				; CvPlot::isWater, COMDAT
; _this$ = ecx

; 409  : 		return (PlotTypes)m_ePlotType == PLOT_OCEAN;

	xor	eax, eax
	cmp	BYTE PTR [ecx+5], 3
	sete	al

; 410  : 	};

	ret	0
?isWater@CvPlot@@QBE_NXZ ENDP				; CvPlot::isWater
_TEXT	ENDS
PUBLIC	?getPlotCity@CvPlot@@QBEPAVCvCity@@XZ		; CvPlot::getPlotCity
; Function compile flags: /Ogtpy
;	COMDAT ?getPlotCity@CvPlot@@QBEPAVCvCity@@XZ
_TEXT	SEGMENT
?getPlotCity@CvPlot@@QBEPAVCvCity@@XZ PROC		; CvPlot::getPlotCity, COMDAT
; _this$ = ecx

; 533  : 		if((m_plotCity.eOwner >= 0) && m_plotCity.eOwner < MAX_PLAYERS)

	mov	eax, DWORD PTR [ecx+104]
	test	eax, eax
	jl	SHORT $LN1@getPlotCit
	cmp	eax, 64					; 00000040H
	jge	SHORT $LN1@getPlotCit

; 534  : 			return (GET_PLAYER((PlayerTypes)m_plotCity.eOwner).getCity(m_plotCity.iID));

	mov	ecx, DWORD PTR [ecx+108]
	imul	eax, 63236				; 0000f704H
	add	eax, DWORD PTR ?m_aPlayers@CvPlayerAI@@1PAV1@A ; CvPlayerAI::m_aPlayers
	push	ecx
	mov	ecx, eax
	call	?getCity@CvPlayer@@QAEPAVCvCity@@H@Z	; CvPlayer::getCity

; 537  : 	}

	ret	0
$LN1@getPlotCit:

; 535  : 
; 536  : 		return NULL;

	xor	eax, eax

; 537  : 	}

	ret	0
?getPlotCity@CvPlot@@QBEPAVCvCity@@XZ ENDP		; CvPlot::getPlotCity
_TEXT	ENDS
PUBLIC	?GetBit@PlotBoolField@CvPlot@@QBE_NI@Z		; CvPlot::PlotBoolField::GetBit
; Function compile flags: /Ogtpy
;	COMDAT ?GetBit@PlotBoolField@CvPlot@@QBE_NI@Z
_TEXT	SEGMENT
_uiEntry$ = 8						; size = 4
?GetBit@PlotBoolField@CvPlot@@QBE_NI@Z PROC		; CvPlot::PlotBoolField::GetBit, COMDAT
; _this$ = ecx

; 767  : 		{

	mov	edx, ecx

; 768  : 			const uint uiOffset = uiEntry/eSize;

	mov	ecx, DWORD PTR _uiEntry$[esp-4]
	push	esi
	mov	eax, ecx
	shr	eax, 5

; 769  : 			return m_dwBits[uiOffset] & 1<<(uiEntry-(eSize*uiOffset));

	mov	esi, eax
	shl	esi, 5
	sub	ecx, esi
	mov	esi, 1
	shl	esi, cl
	test	esi, DWORD PTR [edx+eax*4]
	pop	esi
	setne	al

; 770  : 		}

	ret	4
?GetBit@PlotBoolField@CvPlot@@QBE_NI@Z ENDP		; CvPlot::PlotBoolField::GetBit
_TEXT	ENDS
PUBLIC	?coordRange@@YAHHH_N@Z				; coordRange
; Function compile flags: /Ogtpy
; File c:\users\enormousapplepie\documents\github\lekmod\lekmod_dll\cvgamecoredll_expansion2\cvmap.h
;	COMDAT ?coordRange@@YAHHH_N@Z
_TEXT	SEGMENT
_iCoord$ = 8						; size = 4
_iRange$ = 12						; size = 4
_bWrap$ = 16						; size = 1
?coordRange@@YAHHH_N@Z PROC				; coordRange, COMDAT

; 88   : 	if(bWrap)

	cmp	BYTE PTR _bWrap$[esp-4], 0
	mov	eax, DWORD PTR _iCoord$[esp-4]
	je	SHORT $LN5@coordRange

; 89   : 	{
; 90   : 		if(iCoord < 0)
; 91   : 		{
; 92   : 			return (iRange + (iCoord % iRange));

	mov	ecx, DWORD PTR _iRange$[esp-4]
	test	eax, eax
	jge	SHORT $LN3@coordRange
	cdq
	idiv	ecx
	mov	eax, edx
	add	eax, ecx

; 97   : 		}
; 98   : 	}
; 99   : 
; 100  : 	return iCoord;
; 101  : }

	ret	0
$LN3@coordRange:

; 93   : 		}
; 94   : 		else if(iCoord >= iRange)

	cmp	eax, ecx
	jl	SHORT $LN5@coordRange

; 95   : 		{
; 96   : 			return (iCoord % iRange);

	cdq
	idiv	ecx
	mov	eax, edx
$LN5@coordRange:

; 97   : 		}
; 98   : 	}
; 99   : 
; 100  : 	return iCoord;
; 101  : }

	ret	0
?coordRange@@YAHHH_N@Z ENDP				; coordRange
_TEXT	ENDS
PUBLIC	?numPlots@CvMap@@QBEHXZ				; CvMap::numPlots
; Function compile flags: /Ogtpy
;	COMDAT ?numPlots@CvMap@@QBEHXZ
_TEXT	SEGMENT
?numPlots@CvMap@@QBEHXZ PROC				; CvMap::numPlots, COMDAT
; _this$ = ecx

; 170  : 		return m_iGridSize;

	mov	eax, DWORD PTR [ecx+4028]

; 171  : 	}

	ret	0
?numPlots@CvMap@@QBEHXZ ENDP				; CvMap::numPlots
_TEXT	ENDS
PUBLIC	?getGridWidth@CvMap@@QBEHXZ			; CvMap::getGridWidth
; Function compile flags: /Ogtpy
;	COMDAT ?getGridWidth@CvMap@@QBEHXZ
_TEXT	SEGMENT
?getGridWidth@CvMap@@QBEHXZ PROC			; CvMap::getGridWidth, COMDAT
; _this$ = ecx

; 198  : 		return m_iGridWidth;

	mov	eax, DWORD PTR [ecx+4020]

; 199  : 	}

	ret	0
?getGridWidth@CvMap@@QBEHXZ ENDP			; CvMap::getGridWidth
_TEXT	ENDS
PUBLIC	?getGridHeight@CvMap@@QBEHXZ			; CvMap::getGridHeight
; Function compile flags: /Ogtpy
;	COMDAT ?getGridHeight@CvMap@@QBEHXZ
_TEXT	SEGMENT
?getGridHeight@CvMap@@QBEHXZ PROC			; CvMap::getGridHeight, COMDAT
; _this$ = ecx

; 206  : 		return m_iGridHeight;

	mov	eax, DWORD PTR [ecx+4024]

; 207  : 	}

	ret	0
?getGridHeight@CvMap@@QBEHXZ ENDP			; CvMap::getGridHeight
_TEXT	ENDS
PUBLIC	?isWrapX@CvMap@@QBE_NXZ				; CvMap::isWrapX
; Function compile flags: /Ogtpy
;	COMDAT ?isWrapX@CvMap@@QBE_NXZ
_TEXT	SEGMENT
?isWrapX@CvMap@@QBE_NXZ PROC				; CvMap::isWrapX, COMDAT
; _this$ = ecx

; 228  : 		return m_bWrapX;

	mov	al, BYTE PTR [ecx+4056]

; 229  : 	}

	ret	0
?isWrapX@CvMap@@QBE_NXZ ENDP				; CvMap::isWrapX
_TEXT	ENDS
PUBLIC	?isWrapY@CvMap@@QBE_NXZ				; CvMap::isWrapY
; Function compile flags: /Ogtpy
;	COMDAT ?isWrapY@CvMap@@QBE_NXZ
_TEXT	SEGMENT
?isWrapY@CvMap@@QBE_NXZ PROC				; CvMap::isWrapY, COMDAT
; _this$ = ecx

; 233  : 		return m_bWrapY;

	mov	al, BYTE PTR [ecx+4057]

; 234  : 	}

	ret	0
?isWrapY@CvMap@@QBE_NXZ ENDP				; CvMap::isWrapY
_TEXT	ENDS
PUBLIC	?plotByIndexUnchecked@CvMap@@QBEPAVCvPlot@@H@Z	; CvMap::plotByIndexUnchecked
; Function compile flags: /Ogtpy
;	COMDAT ?plotByIndexUnchecked@CvMap@@QBEPAVCvPlot@@H@Z
_TEXT	SEGMENT
_iIndex$ = 8						; size = 4
?plotByIndexUnchecked@CvMap@@QBEPAVCvPlot@@H@Z PROC	; CvMap::plotByIndexUnchecked, COMDAT
; _this$ = ecx

; 268  : 		return &m_pMapPlots[iIndex];

	mov	eax, DWORD PTR _iIndex$[esp-4]
	imul	eax, 484				; 000001e4H
	add	eax, DWORD PTR [ecx+4068]

; 269  : 	}

	ret	4
?plotByIndexUnchecked@CvMap@@QBEPAVCvPlot@@H@Z ENDP	; CvMap::plotByIndexUnchecked
_TEXT	ENDS
PUBLIC	?GetBit@CvTacticalAnalysisCell@@QBE_NI@Z	; CvTacticalAnalysisCell::GetBit
; Function compile flags: /Ogtpy
; File c:\users\enormousapplepie\documents\github\lekmod\lekmod_dll\cvgamecoredll_expansion2\cvtacticalanalysismap.h
;	COMDAT ?GetBit@CvTacticalAnalysisCell@@QBE_NI@Z
_TEXT	SEGMENT
_uiFlag$ = 8						; size = 4
?GetBit@CvTacticalAnalysisCell@@QBE_NI@Z PROC		; CvTacticalAnalysisCell::GetBit, COMDAT
; _this$ = ecx

; 83   : 	FBITFLAGS(uint);

	mov	eax, DWORD PTR [ecx]
	and	eax, DWORD PTR _uiFlag$[esp-4]
	neg	eax
	sbb	eax, eax
	neg	eax
	ret	4
?GetBit@CvTacticalAnalysisCell@@QBE_NI@Z ENDP		; CvTacticalAnalysisCell::GetBit
_TEXT	ENDS
PUBLIC	?IsOcean@CvTacticalAnalysisCell@@QAE_NXZ	; CvTacticalAnalysisCell::IsOcean
; Function compile flags: /Ogtpy
;	COMDAT ?IsOcean@CvTacticalAnalysisCell@@QAE_NXZ
_TEXT	SEGMENT
?IsOcean@CvTacticalAnalysisCell@@QAE_NXZ PROC		; CvTacticalAnalysisCell::IsOcean, COMDAT
; _this$ = ecx

; 192  : 		return GetBit(TACTICAL_FLAG_OCEAN);

	mov	eax, DWORD PTR [ecx]
	shr	eax, 12					; 0000000cH
	and	eax, 1

; 193  : 	};

	ret	0
?IsOcean@CvTacticalAnalysisCell@@QAE_NXZ ENDP		; CvTacticalAnalysisCell::IsOcean
_TEXT	ENDS
PUBLIC	?GetCell@CvTacticalAnalysisMap@@QAEPAVCvTacticalAnalysisCell@@H@Z ; CvTacticalAnalysisMap::GetCell
; Function compile flags: /Ogtpy
;	COMDAT ?GetCell@CvTacticalAnalysisMap@@QAEPAVCvTacticalAnalysisCell@@H@Z
_TEXT	SEGMENT
_iPlotIndex$ = 8					; size = 4
?GetCell@CvTacticalAnalysisMap@@QAEPAVCvTacticalAnalysisCell@@H@Z PROC ; CvTacticalAnalysisMap::GetCell, COMDAT
; _this$ = ecx

; 630  : 		return &m_pPlots[iPlotIndex];

	mov	eax, DWORD PTR _iPlotIndex$[esp-4]
	imul	eax, 44					; 0000002cH
	add	eax, DWORD PTR [ecx+12]

; 631  : 	};

	ret	4
?GetCell@CvTacticalAnalysisMap@@QAEPAVCvTacticalAnalysisCell@@H@Z ENDP ; CvTacticalAnalysisMap::GetCell
_TEXT	ENDS
PUBLIC	?Clear@CvTemporaryZone@@QAEXXZ			; CvTemporaryZone::Clear
; Function compile flags: /Ogtpy
; File c:\users\enormousapplepie\documents\github\lekmod\lekmod_dll\cvgamecoredll_expansion2\cvtacticalai.h
;	COMDAT ?Clear@CvTemporaryZone@@QAEXXZ
_TEXT	SEGMENT
?Clear@CvTemporaryZone@@QAEXXZ PROC			; CvTemporaryZone::Clear, COMDAT
; _this$ = ecx

; 566  : 		m_iX = 0;

	xor	eax, eax
	mov	DWORD PTR [ecx], eax

; 567  : 		m_iY = 0;

	mov	DWORD PTR [ecx+4], eax

; 568  : 		m_eTargetType = AI_TACTICAL_TARGET_NONE;

	mov	DWORD PTR [ecx+8], eax

; 569  : 		m_iLastTurn = 0;

	mov	DWORD PTR [ecx+12], eax

; 570  : #ifdef AUI_WARNING_FIXES
; 571  : 		m_bIsNavalInvasion = false;
; 572  : #endif
; 573  : 	};

	ret	0
?Clear@CvTemporaryZone@@QAEXXZ ENDP			; CvTemporaryZone::Clear
_TEXT	ENDS
PUBLIC	?SetX@CvTemporaryZone@@QAEXH@Z			; CvTemporaryZone::SetX
; Function compile flags: /Ogtpy
;	COMDAT ?SetX@CvTemporaryZone@@QAEXH@Z
_TEXT	SEGMENT
_iX$ = 8						; size = 4
?SetX@CvTemporaryZone@@QAEXH@Z PROC			; CvTemporaryZone::SetX, COMDAT
; _this$ = ecx

; 581  : 		m_iX = iX;

	mov	eax, DWORD PTR _iX$[esp-4]
	mov	DWORD PTR [ecx], eax

; 582  : 	};

	ret	4
?SetX@CvTemporaryZone@@QAEXH@Z ENDP			; CvTemporaryZone::SetX
_TEXT	ENDS
PUBLIC	?SetY@CvTemporaryZone@@QAEXH@Z			; CvTemporaryZone::SetY
; Function compile flags: /Ogtpy
;	COMDAT ?SetY@CvTemporaryZone@@QAEXH@Z
_TEXT	SEGMENT
_iY$ = 8						; size = 4
?SetY@CvTemporaryZone@@QAEXH@Z PROC			; CvTemporaryZone::SetY, COMDAT
; _this$ = ecx

; 589  : 		m_iY = iY;

	mov	eax, DWORD PTR _iY$[esp-4]
	mov	DWORD PTR [ecx+4], eax

; 590  : 	};

	ret	4
?SetY@CvTemporaryZone@@QAEXH@Z ENDP			; CvTemporaryZone::SetY
_TEXT	ENDS
PUBLIC	?SetTargetType@CvTemporaryZone@@QAEXW4AITacticalTargetType@@@Z ; CvTemporaryZone::SetTargetType
; Function compile flags: /Ogtpy
;	COMDAT ?SetTargetType@CvTemporaryZone@@QAEXW4AITacticalTargetType@@@Z
_TEXT	SEGMENT
_eType$ = 8						; size = 4
?SetTargetType@CvTemporaryZone@@QAEXW4AITacticalTargetType@@@Z PROC ; CvTemporaryZone::SetTargetType, COMDAT
; _this$ = ecx

; 597  : 		m_eTargetType = eType;

	mov	eax, DWORD PTR _eType$[esp-4]
	mov	DWORD PTR [ecx+8], eax

; 598  : 	};

	ret	4
?SetTargetType@CvTemporaryZone@@QAEXW4AITacticalTargetType@@@Z ENDP ; CvTemporaryZone::SetTargetType
_TEXT	ENDS
PUBLIC	?SetLastTurn@CvTemporaryZone@@QAEXH@Z		; CvTemporaryZone::SetLastTurn
; Function compile flags: /Ogtpy
;	COMDAT ?SetLastTurn@CvTemporaryZone@@QAEXH@Z
_TEXT	SEGMENT
_iTurn$ = 8						; size = 4
?SetLastTurn@CvTemporaryZone@@QAEXH@Z PROC		; CvTemporaryZone::SetLastTurn, COMDAT
; _this$ = ecx

; 605  : 		m_iLastTurn = iTurn;

	mov	eax, DWORD PTR _iTurn$[esp-4]
	mov	DWORD PTR [ecx+12], eax

; 606  : 	};

	ret	4
?SetLastTurn@CvTemporaryZone@@QAEXH@Z ENDP		; CvTemporaryZone::SetLastTurn
_TEXT	ENDS
PUBLIC	?SetNavalInvasion@CvTemporaryZone@@QAEX_N@Z	; CvTemporaryZone::SetNavalInvasion
; Function compile flags: /Ogtpy
;	COMDAT ?SetNavalInvasion@CvTemporaryZone@@QAEX_N@Z
_TEXT	SEGMENT
_bIsNavalInvasion$ = 8					; size = 1
?SetNavalInvasion@CvTemporaryZone@@QAEX_N@Z PROC	; CvTemporaryZone::SetNavalInvasion, COMDAT
; _this$ = ecx

; 613  : 		m_bIsNavalInvasion = bIsNavalInvasion;

	mov	al, BYTE PTR _bIsNavalInvasion$[esp-4]
	mov	BYTE PTR [ecx+16], al

; 614  : 	};

	ret	4
?SetNavalInvasion@CvTemporaryZone@@QAEX_N@Z ENDP	; CvTemporaryZone::SetNavalInvasion
_TEXT	ENDS
PUBLIC	?getTeam@CvTeam@@SAAAV1@W4TeamTypes@@@Z		; CvTeam::getTeam
EXTRN	?m_aTeams@CvTeam@@1PAV1@A:DWORD			; CvTeam::m_aTeams
; Function compile flags: /Ogtpy
; File c:\users\enormousapplepie\documents\github\lekmod\lekmod_dll\cvgamecoredll_expansion2\cvteam.h
;	COMDAT ?getTeam@CvTeam@@SAAAV1@W4TeamTypes@@@Z
_TEXT	SEGMENT
_eTeam$ = 8						; size = 4
?getTeam@CvTeam@@SAAAV1@W4TeamTypes@@@Z PROC		; CvTeam::getTeam, COMDAT

; 29   : 		CvAssertMsg(eTeam != NO_TEAM, "eTeam is not assigned a valid value");
; 30   : 		CvAssertMsg(eTeam < MAX_TEAMS, "eTeam is not assigned a valid value");
; 31   : 		return m_aTeams[eTeam];

	mov	eax, DWORD PTR _eTeam$[esp-4]
	imul	eax, 2984				; 00000ba8H
	add	eax, DWORD PTR ?m_aTeams@CvTeam@@1PAV1@A ; CvTeam::m_aTeams

; 32   : 	}

	ret	0
?getTeam@CvTeam@@SAAAV1@W4TeamTypes@@@Z ENDP		; CvTeam::getTeam
_TEXT	ENDS
PUBLIC	??0CvString@@QAE@ABV0@@Z			; CvString::CvString
; Function compile flags: /Ogtpy
;	COMDAT ??0CvString@@QAE@ABV0@@Z
_TEXT	SEGMENT
___that$ = 8						; size = 4
??0CvString@@QAE@ABV0@@Z PROC				; CvString::CvString, COMDAT
; _this$ = ecx
	mov	eax, DWORD PTR ___that$[esp-4]
	push	esi
	push	eax
	mov	esi, ecx
	call	DWORD PTR __imp_??0?$basic_string@DU?$char_traits@D@std@@V?$allocator@D@2@@std@@QAE@ABV01@@Z
	mov	eax, esi
	pop	esi
	ret	4
??0CvString@@QAE@ABV0@@Z ENDP				; CvString::CvString
_TEXT	ENDS
PUBLIC	?GetLastNode@CvAStar@@QAEPAVCvAStarNode@@XZ	; CvAStar::GetLastNode
; Function compile flags: /Ogtpy
; File c:\users\enormousapplepie\documents\github\lekmod\lekmod_dll\cvgamecoredll_expansion2\cvastar.h
;	COMDAT ?GetLastNode@CvAStar@@QAEPAVCvAStarNode@@XZ
_TEXT	SEGMENT
?GetLastNode@CvAStar@@QAEPAVCvAStarNode@@XZ PROC	; CvAStar::GetLastNode, COMDAT
; _this$ = ecx

; 98   : 		return m_pBest;

	mov	eax, DWORD PTR [ecx+96]

; 99   : 	}

	ret	0
?GetLastNode@CvAStar@@QAEPAVCvAStarNode@@XZ ENDP	; CvAStar::GetLastNode
_TEXT	ENDS
PUBLIC	?SetData@CvAStar@@QAEXPBX@Z			; CvAStar::SetData
; Function compile flags: /Ogtpy
;	COMDAT ?SetData@CvAStar@@QAEXPBX@Z
_TEXT	SEGMENT
_pData$ = 8						; size = 4
?SetData@CvAStar@@QAEXPBX@Z PROC			; CvAStar::SetData, COMDAT
; _this$ = ecx

; 202  : 		if(m_bDataChangeInvalidatesCache && m_pData != pData)

	cmp	BYTE PTR [ecx+80], 0
	mov	eax, DWORD PTR _pData$[esp-4]
	je	SHORT $LN4@SetData
	cmp	DWORD PTR [ecx+44], eax

; 205  : 		m_pData = pData;

	mov	DWORD PTR [ecx+44], eax
	je	SHORT $LN1@SetData

; 203  : #endif
; 204  : 			m_bForceReset = true;

	mov	BYTE PTR [ecx+78], 1

; 206  : #ifdef AUI_ASTAR_TURN_LIMITER
; 207  : 		m_iMaxTurns = iMaxTurns;
; 208  : #endif
; 209  : 	}

	ret	4
$LN4@SetData:

; 205  : 		m_pData = pData;

	mov	DWORD PTR [ecx+44], eax
$LN1@SetData:

; 206  : #ifdef AUI_ASTAR_TURN_LIMITER
; 207  : 		m_iMaxTurns = iMaxTurns;
; 208  : #endif
; 209  : 	}

	ret	4
?SetData@CvAStar@@QAEXPBX@Z ENDP			; CvAStar::SetData
_TEXT	ENDS
PUBLIC	?SetDestValidFunc@CvAStar@@QAEXP6AHHHPBXPAV1@@Z@Z ; CvAStar::SetDestValidFunc
; Function compile flags: /Ogtpy
;	COMDAT ?SetDestValidFunc@CvAStar@@QAEXP6AHHHPBXPAV1@@Z@Z
_TEXT	SEGMENT
_newDestValidFunc$ = 8					; size = 4
?SetDestValidFunc@CvAStar@@QAEXP6AHHHPBXPAV1@@Z@Z PROC	; CvAStar::SetDestValidFunc, COMDAT
; _this$ = ecx

; 266  : 		udDestValid = newDestValidFunc;

	mov	eax, DWORD PTR _newDestValidFunc$[esp-4]
	mov	DWORD PTR [ecx+4], eax

; 267  : 	}

	ret	4
?SetDestValidFunc@CvAStar@@QAEXP6AHHHPBXPAV1@@Z@Z ENDP	; CvAStar::SetDestValidFunc
_TEXT	ENDS
PUBLIC	?SetValidFunc@CvAStar@@QAEXP6AHPAVCvAStarNode@@0HPBXPAV1@@Z@Z ; CvAStar::SetValidFunc
; Function compile flags: /Ogtpy
;	COMDAT ?SetValidFunc@CvAStar@@QAEXP6AHPAVCvAStarNode@@0HPBXPAV1@@Z@Z
_TEXT	SEGMENT
_newValidFunc$ = 8					; size = 4
?SetValidFunc@CvAStar@@QAEXP6AHPAVCvAStarNode@@0HPBXPAV1@@Z@Z PROC ; CvAStar::SetValidFunc, COMDAT
; _this$ = ecx

; 308  : 		udValid = newValidFunc;

	mov	eax, DWORD PTR _newValidFunc$[esp-4]
	mov	DWORD PTR [ecx+16], eax

; 309  : 	}

	ret	4
?SetValidFunc@CvAStar@@QAEXP6AHPAVCvAStarNode@@0HPBXPAV1@@Z@Z ENDP ; CvAStar::SetValidFunc
_TEXT	ENDS
PUBLIC	?size@?$vector@HV?$allocator@H@std@@@std@@QBEIXZ ; std::vector<int,std::allocator<int> >::size
; Function compile flags: /Ogtpy
; File c:\program files (x86)\microsoft visual studio 9.0\vc\include\vector
;	COMDAT ?size@?$vector@HV?$allocator@H@std@@@std@@QBEIXZ
_TEXT	SEGMENT
?size@?$vector@HV?$allocator@H@std@@@std@@QBEIXZ PROC	; std::vector<int,std::allocator<int> >::size, COMDAT
; _this$ = ecx

; 726  : 		return (_Mylast - _Myfirst);

	mov	eax, DWORD PTR [ecx+8]
	sub	eax, DWORD PTR [ecx+4]
	sar	eax, 2

; 727  : 		}

	ret	0
?size@?$vector@HV?$allocator@H@std@@@std@@QBEIXZ ENDP	; std::vector<int,std::allocator<int> >::size
_TEXT	ENDS
PUBLIC	??A?$vector@HV?$allocator@H@std@@@std@@QBEABHI@Z ; std::vector<int,std::allocator<int> >::operator[]
; Function compile flags: /Ogtpy
;	COMDAT ??A?$vector@HV?$allocator@H@std@@@std@@QBEABHI@Z
_TEXT	SEGMENT
__Pos$ = 8						; size = 4
??A?$vector@HV?$allocator@H@std@@@std@@QBEABHI@Z PROC	; std::vector<int,std::allocator<int> >::operator[], COMDAT
; _this$ = ecx

; 760  : 
; 761  :  #if _HAS_ITERATOR_DEBUGGING
; 762  : 		if (size() <= _Pos)
; 763  : 			{
; 764  : 			_DEBUG_ERROR("vector subscript out of range");
; 765  : 			_SCL_SECURE_OUT_OF_RANGE;
; 766  : 			}
; 767  :  #endif /* _HAS_ITERATOR_DEBUGGING */
; 768  : 		_SCL_SECURE_VALIDATE_RANGE(_Pos < size());
; 769  : 
; 770  : 		return (*(_Myfirst + _Pos));

	mov	eax, DWORD PTR [ecx+4]
	mov	ecx, DWORD PTR __Pos$[esp-4]
	lea	eax, DWORD PTR [eax+ecx*4]

; 771  : 		}

	ret	4
??A?$vector@HV?$allocator@H@std@@@std@@QBEABHI@Z ENDP	; std::vector<int,std::allocator<int> >::operator[]
_TEXT	ENDS
PUBLIC	??A?$vector@W4TeamTypes@@V?$allocator@W4TeamTypes@@@std@@@std@@QBEABW4TeamTypes@@I@Z ; std::vector<enum TeamTypes,std::allocator<enum TeamTypes> >::operator[]
; Function compile flags: /Ogtpy
;	COMDAT ??A?$vector@W4TeamTypes@@V?$allocator@W4TeamTypes@@@std@@@std@@QBEABW4TeamTypes@@I@Z
_TEXT	SEGMENT
__Pos$ = 8						; size = 4
??A?$vector@W4TeamTypes@@V?$allocator@W4TeamTypes@@@std@@@std@@QBEABW4TeamTypes@@I@Z PROC ; std::vector<enum TeamTypes,std::allocator<enum TeamTypes> >::operator[], COMDAT
; _this$ = ecx

; 760  : 
; 761  :  #if _HAS_ITERATOR_DEBUGGING
; 762  : 		if (size() <= _Pos)
; 763  : 			{
; 764  : 			_DEBUG_ERROR("vector subscript out of range");
; 765  : 			_SCL_SECURE_OUT_OF_RANGE;
; 766  : 			}
; 767  :  #endif /* _HAS_ITERATOR_DEBUGGING */
; 768  : 		_SCL_SECURE_VALIDATE_RANGE(_Pos < size());
; 769  : 
; 770  : 		return (*(_Myfirst + _Pos));

	mov	eax, DWORD PTR [ecx+4]
	mov	ecx, DWORD PTR __Pos$[esp-4]
	lea	eax, DWORD PTR [eax+ecx*4]

; 771  : 		}

	ret	4
??A?$vector@W4TeamTypes@@V?$allocator@W4TeamTypes@@@std@@@std@@QBEABW4TeamTypes@@I@Z ENDP ; std::vector<enum TeamTypes,std::allocator<enum TeamTypes> >::operator[]
_TEXT	ENDS
PUBLIC	?size@?$vector@UOperationSlot@@V?$allocator@UOperationSlot@@@std@@@std@@QBEIXZ ; std::vector<OperationSlot,std::allocator<OperationSlot> >::size
; Function compile flags: /Ogtpy
;	COMDAT ?size@?$vector@UOperationSlot@@V?$allocator@UOperationSlot@@@std@@@std@@QBEIXZ
_TEXT	SEGMENT
?size@?$vector@UOperationSlot@@V?$allocator@UOperationSlot@@@std@@@std@@QBEIXZ PROC ; std::vector<OperationSlot,std::allocator<OperationSlot> >::size, COMDAT
; _this$ = ecx

; 726  : 		return (_Mylast - _Myfirst);

	mov	edx, DWORD PTR [ecx+8]
	sub	edx, DWORD PTR [ecx+4]
	mov	eax, 715827883				; 2aaaaaabH
	imul	edx
	sar	edx, 1
	mov	eax, edx
	shr	eax, 31					; 0000001fH
	add	eax, edx

; 727  : 		}

	ret	0
?size@?$vector@UOperationSlot@@V?$allocator@UOperationSlot@@@std@@@std@@QBEIXZ ENDP ; std::vector<OperationSlot,std::allocator<OperationSlot> >::size
_TEXT	ENDS
PUBLIC	??A?$BaseVector@VCvArmyFormationSlot@@$00@@QAEAAVCvArmyFormationSlot@@I@Z ; BaseVector<CvArmyFormationSlot,1>::operator[]
; Function compile flags: /Ogtpy
; File c:\users\enormousapplepie\documents\github\lekmod\lekmod_dll\fireplace\include\fireworks\ffastvector.h
;	COMDAT ??A?$BaseVector@VCvArmyFormationSlot@@$00@@QAEAAVCvArmyFormationSlot@@I@Z
_TEXT	SEGMENT
_ui$ = 8						; size = 4
??A?$BaseVector@VCvArmyFormationSlot@@$00@@QAEAAVCvArmyFormationSlot@@I@Z PROC ; BaseVector<CvArmyFormationSlot,1>::operator[], COMDAT
; _this$ = ecx

; 129  : 		FAssert(ui < m_uiCurrSize);
; 130  : 		return m_pData[ui];

	mov	eax, DWORD PTR _ui$[esp-4]
	mov	ecx, DWORD PTR [ecx]
	lea	eax, DWORD PTR [eax+eax*2]
	lea	eax, DWORD PTR [ecx+eax*4]

; 131  : 	};

	ret	4
??A?$BaseVector@VCvArmyFormationSlot@@$00@@QAEAAVCvArmyFormationSlot@@I@Z ENDP ; BaseVector<CvArmyFormationSlot,1>::operator[]
_TEXT	ENDS
PUBLIC	??1?$_Container_base_aux_alloc_empty@V?$allocator@H@std@@@std@@IAE@XZ ; std::_Container_base_aux_alloc_empty<std::allocator<int> >::~_Container_base_aux_alloc_empty<std::allocator<int> >
; Function compile flags: /Ogtpy
; File c:\program files (x86)\microsoft visual studio 9.0\vc\include\xutility
;	COMDAT ??1?$_Container_base_aux_alloc_empty@V?$allocator@H@std@@@std@@IAE@XZ
_TEXT	SEGMENT
??1?$_Container_base_aux_alloc_empty@V?$allocator@H@std@@@std@@IAE@XZ PROC ; std::_Container_base_aux_alloc_empty<std::allocator<int> >::~_Container_base_aux_alloc_empty<std::allocator<int> >, COMDAT
; _this$ = ecx

; 627  : 	~_Container_base_aux_alloc_empty() { }

	ret	0
??1?$_Container_base_aux_alloc_empty@V?$allocator@H@std@@@std@@IAE@XZ ENDP ; std::_Container_base_aux_alloc_empty<std::allocator<int> >::~_Container_base_aux_alloc_empty<std::allocator<int> >
_TEXT	ENDS
PUBLIC	??0?$allocator@H@std@@QAE@XZ			; std::allocator<int>::allocator<int>
; Function compile flags: /Ogtpy
; File c:\program files (x86)\microsoft visual studio 9.0\vc\include\xmemory
;	COMDAT ??0?$allocator@H@std@@QAE@XZ
_TEXT	SEGMENT
??0?$allocator@H@std@@QAE@XZ PROC			; std::allocator<int>::allocator<int>, COMDAT
; _this$ = ecx

; 119  : 	allocator() _THROW0()

	mov	eax, ecx

; 120  : 		{	// construct default allocator (do nothing)
; 121  : 		}

	ret	0
??0?$allocator@H@std@@QAE@XZ ENDP			; std::allocator<int>::allocator<int>
_TEXT	ENDS
PUBLIC	?_Isnil@?$_Tree@V?$_Tset_traits@PAVFAutoVariableBase@@U?$less@PAVFAutoVariableBase@@@std@@V?$allocator@PAVFAutoVariableBase@@@3@$0A@@std@@@std@@KAAADPAU_Node@?$_Tree_nod@V?$_Tset_traits@PAVFAutoVariableBase@@U?$less@PAVFAutoVariableBase@@@std@@V?$allocator@PAVFAutoVariableBase@@@3@$0A@@std@@@2@@Z ; std::_Tree<std::_Tset_traits<FAutoVariableBase *,std::less<FAutoVariableBase *>,std::allocator<FAutoVariableBase *>,0> >::_Isnil
; Function compile flags: /Ogtpy
; File c:\program files (x86)\microsoft visual studio 9.0\vc\include\xtree
;	COMDAT ?_Isnil@?$_Tree@V?$_Tset_traits@PAVFAutoVariableBase@@U?$less@PAVFAutoVariableBase@@@std@@V?$allocator@PAVFAutoVariableBase@@@3@$0A@@std@@@std@@KAAADPAU_Node@?$_Tree_nod@V?$_Tset_traits@PAVFAutoVariableBase@@U?$less@PAVFAutoVariableBase@@@std@@V?$allocator@PAVFAutoVariableBase@@@3@$0A@@std@@@2@@Z
_TEXT	SEGMENT
__Pnode$ = 8						; size = 4
?_Isnil@?$_Tree@V?$_Tset_traits@PAVFAutoVariableBase@@U?$less@PAVFAutoVariableBase@@@std@@V?$allocator@PAVFAutoVariableBase@@@3@$0A@@std@@@std@@KAAADPAU_Node@?$_Tree_nod@V?$_Tset_traits@PAVFAutoVariableBase@@U?$less@PAVFAutoVariableBase@@@std@@V?$allocator@PAVFAutoVariableBase@@@3@$0A@@std@@@2@@Z PROC ; std::_Tree<std::_Tset_traits<FAutoVariableBase *,std::less<FAutoVariableBase *>,std::allocator<FAutoVariableBase *>,0> >::_Isnil, COMDAT

; 157  : 		return ((_Charref)(*_Pnode)._Isnil);

	mov	eax, DWORD PTR __Pnode$[esp-4]
	add	eax, 17					; 00000011H

; 158  : 		}

	ret	0
?_Isnil@?$_Tree@V?$_Tset_traits@PAVFAutoVariableBase@@U?$less@PAVFAutoVariableBase@@@std@@V?$allocator@PAVFAutoVariableBase@@@3@$0A@@std@@@std@@KAAADPAU_Node@?$_Tree_nod@V?$_Tset_traits@PAVFAutoVariableBase@@U?$less@PAVFAutoVariableBase@@@std@@V?$allocator@PAVFAutoVariableBase@@@3@$0A@@std@@@2@@Z ENDP ; std::_Tree<std::_Tset_traits<FAutoVariableBase *,std::less<FAutoVariableBase *>,std::allocator<FAutoVariableBase *>,0> >::_Isnil
_TEXT	ENDS
PUBLIC	?_Left@?$_Tree@V?$_Tset_traits@PAVFAutoVariableBase@@U?$less@PAVFAutoVariableBase@@@std@@V?$allocator@PAVFAutoVariableBase@@@3@$0A@@std@@@std@@KAAAPAU_Node@?$_Tree_nod@V?$_Tset_traits@PAVFAutoVariableBase@@U?$less@PAVFAutoVariableBase@@@std@@V?$allocator@PAVFAutoVariableBase@@@3@$0A@@std@@@2@PAU342@@Z ; std::_Tree<std::_Tset_traits<FAutoVariableBase *,std::less<FAutoVariableBase *>,std::allocator<FAutoVariableBase *>,0> >::_Left
; Function compile flags: /Ogtpy
;	COMDAT ?_Left@?$_Tree@V?$_Tset_traits@PAVFAutoVariableBase@@U?$less@PAVFAutoVariableBase@@@std@@V?$allocator@PAVFAutoVariableBase@@@3@$0A@@std@@@std@@KAAAPAU_Node@?$_Tree_nod@V?$_Tset_traits@PAVFAutoVariableBase@@U?$less@PAVFAutoVariableBase@@@std@@V?$allocator@PAVFAutoVariableBase@@@3@$0A@@std@@@2@PAU342@@Z
_TEXT	SEGMENT
__Pnode$ = 8						; size = 4
?_Left@?$_Tree@V?$_Tset_traits@PAVFAutoVariableBase@@U?$less@PAVFAutoVariableBase@@@std@@V?$allocator@PAVFAutoVariableBase@@@3@$0A@@std@@@std@@KAAAPAU_Node@?$_Tree_nod@V?$_Tset_traits@PAVFAutoVariableBase@@U?$less@PAVFAutoVariableBase@@@std@@V?$allocator@PAVFAutoVariableBase@@@3@$0A@@std@@@2@PAU342@@Z PROC ; std::_Tree<std::_Tset_traits<FAutoVariableBase *,std::less<FAutoVariableBase *>,std::allocator<FAutoVariableBase *>,0> >::_Left, COMDAT

; 167  : 		return ((_Nodepref)(*_Pnode)._Left);

	mov	eax, DWORD PTR __Pnode$[esp-4]

; 168  : 		}

	ret	0
?_Left@?$_Tree@V?$_Tset_traits@PAVFAutoVariableBase@@U?$less@PAVFAutoVariableBase@@@std@@V?$allocator@PAVFAutoVariableBase@@@3@$0A@@std@@@std@@KAAAPAU_Node@?$_Tree_nod@V?$_Tset_traits@PAVFAutoVariableBase@@U?$less@PAVFAutoVariableBase@@@std@@V?$allocator@PAVFAutoVariableBase@@@3@$0A@@std@@@2@PAU342@@Z ENDP ; std::_Tree<std::_Tset_traits<FAutoVariableBase *,std::less<FAutoVariableBase *>,std::allocator<FAutoVariableBase *>,0> >::_Left
_TEXT	ENDS
PUBLIC	?_Right@?$_Tree@V?$_Tset_traits@PAVFAutoVariableBase@@U?$less@PAVFAutoVariableBase@@@std@@V?$allocator@PAVFAutoVariableBase@@@3@$0A@@std@@@std@@KAAAPAU_Node@?$_Tree_nod@V?$_Tset_traits@PAVFAutoVariableBase@@U?$less@PAVFAutoVariableBase@@@std@@V?$allocator@PAVFAutoVariableBase@@@3@$0A@@std@@@2@PAU342@@Z ; std::_Tree<std::_Tset_traits<FAutoVariableBase *,std::less<FAutoVariableBase *>,std::allocator<FAutoVariableBase *>,0> >::_Right
; Function compile flags: /Ogtpy
;	COMDAT ?_Right@?$_Tree@V?$_Tset_traits@PAVFAutoVariableBase@@U?$less@PAVFAutoVariableBase@@@std@@V?$allocator@PAVFAutoVariableBase@@@3@$0A@@std@@@std@@KAAAPAU_Node@?$_Tree_nod@V?$_Tset_traits@PAVFAutoVariableBase@@U?$less@PAVFAutoVariableBase@@@std@@V?$allocator@PAVFAutoVariableBase@@@3@$0A@@std@@@2@PAU342@@Z
_TEXT	SEGMENT
__Pnode$ = 8						; size = 4
?_Right@?$_Tree@V?$_Tset_traits@PAVFAutoVariableBase@@U?$less@PAVFAutoVariableBase@@@std@@V?$allocator@PAVFAutoVariableBase@@@3@$0A@@std@@@std@@KAAAPAU_Node@?$_Tree_nod@V?$_Tset_traits@PAVFAutoVariableBase@@U?$less@PAVFAutoVariableBase@@@std@@V?$allocator@PAVFAutoVariableBase@@@3@$0A@@std@@@2@PAU342@@Z PROC ; std::_Tree<std::_Tset_traits<FAutoVariableBase *,std::less<FAutoVariableBase *>,std::allocator<FAutoVariableBase *>,0> >::_Right, COMDAT

; 177  : 		return ((_Nodepref)(*_Pnode)._Right);

	mov	eax, DWORD PTR __Pnode$[esp-4]
	add	eax, 8

; 178  : 		}

	ret	0
?_Right@?$_Tree@V?$_Tset_traits@PAVFAutoVariableBase@@U?$less@PAVFAutoVariableBase@@@std@@V?$allocator@PAVFAutoVariableBase@@@3@$0A@@std@@@std@@KAAAPAU_Node@?$_Tree_nod@V?$_Tset_traits@PAVFAutoVariableBase@@U?$less@PAVFAutoVariableBase@@@std@@V?$allocator@PAVFAutoVariableBase@@@3@$0A@@std@@@2@PAU342@@Z ENDP ; std::_Tree<std::_Tset_traits<FAutoVariableBase *,std::less<FAutoVariableBase *>,std::allocator<FAutoVariableBase *>,0> >::_Right
_TEXT	ENDS
PUBLIC	?_Kfn@?$_Tset_traits@PAVFAutoVariableBase@@U?$less@PAVFAutoVariableBase@@@std@@V?$allocator@PAVFAutoVariableBase@@@3@$0A@@std@@SAABQAVFAutoVariableBase@@ABQAV3@@Z ; std::_Tset_traits<FAutoVariableBase *,std::less<FAutoVariableBase *>,std::allocator<FAutoVariableBase *>,0>::_Kfn
; Function compile flags: /Ogtpy
; File c:\program files (x86)\microsoft visual studio 9.0\vc\include\set
;	COMDAT ?_Kfn@?$_Tset_traits@PAVFAutoVariableBase@@U?$less@PAVFAutoVariableBase@@@std@@V?$allocator@PAVFAutoVariableBase@@@3@$0A@@std@@SAABQAVFAutoVariableBase@@ABQAV3@@Z
_TEXT	SEGMENT
__Val$ = 8						; size = 4
?_Kfn@?$_Tset_traits@PAVFAutoVariableBase@@U?$less@PAVFAutoVariableBase@@@std@@V?$allocator@PAVFAutoVariableBase@@@3@$0A@@std@@SAABQAVFAutoVariableBase@@ABQAV3@@Z PROC ; std::_Tset_traits<FAutoVariableBase *,std::less<FAutoVariableBase *>,std::allocator<FAutoVariableBase *>,0>::_Kfn, COMDAT

; 45   : 		return (_Val);

	mov	eax, DWORD PTR __Val$[esp-4]

; 46   : 		}

	ret	0
?_Kfn@?$_Tset_traits@PAVFAutoVariableBase@@U?$less@PAVFAutoVariableBase@@@std@@V?$allocator@PAVFAutoVariableBase@@@3@$0A@@std@@SAABQAVFAutoVariableBase@@ABQAV3@@Z ENDP ; std::_Tset_traits<FAutoVariableBase *,std::less<FAutoVariableBase *>,std::allocator<FAutoVariableBase *>,0>::_Kfn
_TEXT	ENDS
PUBLIC	??R?$less@PAVFAutoVariableBase@@@std@@QBE_NABQAVFAutoVariableBase@@0@Z ; std::less<FAutoVariableBase *>::operator()
; Function compile flags: /Ogtpy
; File c:\program files (x86)\microsoft visual studio 9.0\vc\include\functional
;	COMDAT ??R?$less@PAVFAutoVariableBase@@@std@@QBE_NABQAVFAutoVariableBase@@0@Z
_TEXT	SEGMENT
__Left$ = 8						; size = 4
__Right$ = 12						; size = 4
??R?$less@PAVFAutoVariableBase@@@std@@QBE_NABQAVFAutoVariableBase@@0@Z PROC ; std::less<FAutoVariableBase *>::operator(), COMDAT
; _this$ = ecx

; 143  : 		return (_Left < _Right);

	mov	eax, DWORD PTR __Left$[esp-4]
	mov	ecx, DWORD PTR [eax]
	mov	edx, DWORD PTR __Right$[esp-4]
	cmp	ecx, DWORD PTR [edx]
	sbb	eax, eax
	neg	eax

; 144  : 		}

	ret	8
??R?$less@PAVFAutoVariableBase@@@std@@QBE_NABQAVFAutoVariableBase@@0@Z ENDP ; std::less<FAutoVariableBase *>::operator()
_TEXT	ENDS
PUBLIC	??0?$pair@Viterator@?$_Tree@V?$_Tset_traits@PAVFAutoVariableBase@@U?$less@PAVFAutoVariableBase@@@std@@V?$allocator@PAVFAutoVariableBase@@@3@$0A@@std@@@std@@_N@std@@QAE@ABViterator@?$_Tree@V?$_Tset_traits@PAVFAutoVariableBase@@U?$less@PAVFAutoVariableBase@@@std@@V?$allocator@PAVFAutoVariableBase@@@3@$0A@@std@@@1@AB_N@Z ; std::pair<std::_Tree<std::_Tset_traits<FAutoVariableBase *,std::less<FAutoVariableBase *>,std::allocator<FAutoVariableBase *>,0> >::iterator,bool>::pair<std::_Tree<std::_Tset_traits<FAutoVariableBase *,std::less<FAutoVariableBase *>,std::allocator<FAutoVariableBase *>,0> >::iterator,bool>
; Function compile flags: /Ogtpy
; File c:\program files (x86)\microsoft visual studio 9.0\vc\include\utility
;	COMDAT ??0?$pair@Viterator@?$_Tree@V?$_Tset_traits@PAVFAutoVariableBase@@U?$less@PAVFAutoVariableBase@@@std@@V?$allocator@PAVFAutoVariableBase@@@3@$0A@@std@@@std@@_N@std@@QAE@ABViterator@?$_Tree@V?$_Tset_traits@PAVFAutoVariableBase@@U?$less@PAVFAutoVariableBase@@@std@@V?$allocator@PAVFAutoVariableBase@@@3@$0A@@std@@@1@AB_N@Z
_TEXT	SEGMENT
__Val1$ = 8						; size = 4
__Val2$ = 12						; size = 4
??0?$pair@Viterator@?$_Tree@V?$_Tset_traits@PAVFAutoVariableBase@@U?$less@PAVFAutoVariableBase@@@std@@V?$allocator@PAVFAutoVariableBase@@@3@$0A@@std@@@std@@_N@std@@QAE@ABViterator@?$_Tree@V?$_Tset_traits@PAVFAutoVariableBase@@U?$less@PAVFAutoVariableBase@@@std@@V?$allocator@PAVFAutoVariableBase@@@3@$0A@@std@@@1@AB_N@Z PROC ; std::pair<std::_Tree<std::_Tset_traits<FAutoVariableBase *,std::less<FAutoVariableBase *>,std::allocator<FAutoVariableBase *>,0> >::iterator,bool>::pair<std::_Tree<std::_Tset_traits<FAutoVariableBase *,std::less<FAutoVariableBase *>,std::allocator<FAutoVariableBase *>,0> >::iterator,bool>, COMDAT
; _this$ = ecx

; 50   : 		{	// construct from specified values

	mov	eax, ecx
	mov	ecx, DWORD PTR __Val1$[esp-4]
	mov	edx, DWORD PTR [ecx]
	mov	ecx, DWORD PTR __Val2$[esp-4]
	mov	DWORD PTR [eax], edx
	mov	dl, BYTE PTR [ecx]
	mov	BYTE PTR [eax+4], dl

; 51   : 		}

	ret	8
??0?$pair@Viterator@?$_Tree@V?$_Tset_traits@PAVFAutoVariableBase@@U?$less@PAVFAutoVariableBase@@@std@@V?$allocator@PAVFAutoVariableBase@@@3@$0A@@std@@@std@@_N@std@@QAE@ABViterator@?$_Tree@V?$_Tset_traits@PAVFAutoVariableBase@@U?$less@PAVFAutoVariableBase@@@std@@V?$allocator@PAVFAutoVariableBase@@@3@$0A@@std@@@1@AB_N@Z ENDP ; std::pair<std::_Tree<std::_Tset_traits<FAutoVariableBase *,std::less<FAutoVariableBase *>,std::allocator<FAutoVariableBase *>,0> >::iterator,bool>::pair<std::_Tree<std::_Tset_traits<FAutoVariableBase *,std::less<FAutoVariableBase *>,std::allocator<FAutoVariableBase *>,0> >::iterator,bool>
_TEXT	ENDS
PUBLIC	??8const_iterator@?$_Tree@V?$_Tset_traits@PAVFAutoVariableBase@@U?$less@PAVFAutoVariableBase@@@std@@V?$allocator@PAVFAutoVariableBase@@@3@$0A@@std@@@std@@QBE_NABV012@@Z ; std::_Tree<std::_Tset_traits<FAutoVariableBase *,std::less<FAutoVariableBase *>,std::allocator<FAutoVariableBase *>,0> >::const_iterator::operator==
; Function compile flags: /Ogtpy
; File c:\program files (x86)\microsoft visual studio 9.0\vc\include\xtree
;	COMDAT ??8const_iterator@?$_Tree@V?$_Tset_traits@PAVFAutoVariableBase@@U?$less@PAVFAutoVariableBase@@@std@@V?$allocator@PAVFAutoVariableBase@@@3@$0A@@std@@@std@@QBE_NABV012@@Z
_TEXT	SEGMENT
__Right$ = 8						; size = 4
??8const_iterator@?$_Tree@V?$_Tset_traits@PAVFAutoVariableBase@@U?$less@PAVFAutoVariableBase@@@std@@V?$allocator@PAVFAutoVariableBase@@@3@$0A@@std@@@std@@QBE_NABV012@@Z PROC ; std::_Tree<std::_Tset_traits<FAutoVariableBase *,std::less<FAutoVariableBase *>,std::allocator<FAutoVariableBase *>,0> >::const_iterator::operator==, COMDAT
; _this$ = ecx

; 300  : 
; 301  :  #if _HAS_ITERATOR_DEBUGGING
; 302  : 			if (this->_Mycont == 0 || this->_Mycont != _Right._Mycont)
; 303  : 				{
; 304  : 				_DEBUG_ERROR("map/set iterators incompatible");
; 305  : 				_SCL_SECURE_INVALID_ARGUMENT;
; 306  : 				}
; 307  :  #else
; 308  : 			_SCL_SECURE_VALIDATE(this->_Has_container() && this->_Same_container(_Right));
; 309  :  #endif /* _HAS_ITERATOR_DEBUGGING */
; 310  : 
; 311  : 			return (_Ptr == _Right._Ptr);

	mov	eax, DWORD PTR [ecx]
	mov	edx, DWORD PTR __Right$[esp-4]
	xor	ecx, ecx
	cmp	eax, DWORD PTR [edx]
	sete	cl
	mov	al, cl

; 312  : 			}

	ret	4
??8const_iterator@?$_Tree@V?$_Tset_traits@PAVFAutoVariableBase@@U?$less@PAVFAutoVariableBase@@@std@@V?$allocator@PAVFAutoVariableBase@@@3@$0A@@std@@@std@@QBE_NABV012@@Z ENDP ; std::_Tree<std::_Tset_traits<FAutoVariableBase *,std::less<FAutoVariableBase *>,std::allocator<FAutoVariableBase *>,0> >::const_iterator::operator==
_TEXT	ENDS
PUBLIC	?_Mynode@const_iterator@?$_Tree@V?$_Tset_traits@PAVFAutoVariableBase@@U?$less@PAVFAutoVariableBase@@@std@@V?$allocator@PAVFAutoVariableBase@@@3@$0A@@std@@@std@@QBEPAU_Node@?$_Tree_nod@V?$_Tset_traits@PAVFAutoVariableBase@@U?$less@PAVFAutoVariableBase@@@std@@V?$allocator@PAVFAutoVariableBase@@@3@$0A@@std@@@3@XZ ; std::_Tree<std::_Tset_traits<FAutoVariableBase *,std::less<FAutoVariableBase *>,std::allocator<FAutoVariableBase *>,0> >::const_iterator::_Mynode
; Function compile flags: /Ogtpy
;	COMDAT ?_Mynode@const_iterator@?$_Tree@V?$_Tset_traits@PAVFAutoVariableBase@@U?$less@PAVFAutoVariableBase@@@std@@V?$allocator@PAVFAutoVariableBase@@@3@$0A@@std@@@std@@QBEPAU_Node@?$_Tree_nod@V?$_Tset_traits@PAVFAutoVariableBase@@U?$less@PAVFAutoVariableBase@@@std@@V?$allocator@PAVFAutoVariableBase@@@3@$0A@@std@@@3@XZ
_TEXT	SEGMENT
?_Mynode@const_iterator@?$_Tree@V?$_Tset_traits@PAVFAutoVariableBase@@U?$less@PAVFAutoVariableBase@@@std@@V?$allocator@PAVFAutoVariableBase@@@3@$0A@@std@@@std@@QBEPAU_Node@?$_Tree_nod@V?$_Tset_traits@PAVFAutoVariableBase@@U?$less@PAVFAutoVariableBase@@@std@@V?$allocator@PAVFAutoVariableBase@@@3@$0A@@std@@@3@XZ PROC ; std::_Tree<std::_Tset_traits<FAutoVariableBase *,std::less<FAutoVariableBase *>,std::allocator<FAutoVariableBase *>,0> >::const_iterator::_Mynode, COMDAT
; _this$ = ecx

; 410  : 			return (_Ptr);

	mov	eax, DWORD PTR [ecx]

; 411  : 			}

	ret	0
?_Mynode@const_iterator@?$_Tree@V?$_Tset_traits@PAVFAutoVariableBase@@U?$less@PAVFAutoVariableBase@@@std@@V?$allocator@PAVFAutoVariableBase@@@3@$0A@@std@@@std@@QBEPAU_Node@?$_Tree_nod@V?$_Tset_traits@PAVFAutoVariableBase@@U?$less@PAVFAutoVariableBase@@@std@@V?$allocator@PAVFAutoVariableBase@@@3@$0A@@std@@@3@XZ ENDP ; std::_Tree<std::_Tset_traits<FAutoVariableBase *,std::less<FAutoVariableBase *>,std::allocator<FAutoVariableBase *>,0> >::const_iterator::_Mynode
_TEXT	ENDS
PUBLIC	??1?$BaseVector@PAVCvAStarNode@@$00@@QAE@XZ	; BaseVector<CvAStarNode *,1>::~BaseVector<CvAStarNode *,1>
; Function compile flags: /Ogtpy
; File c:\users\enormousapplepie\documents\github\lekmod\lekmod_dll\fireplace\include\fireworks\ffastvector.h
;	COMDAT ??1?$BaseVector@PAVCvAStarNode@@$00@@QAE@XZ
_TEXT	SEGMENT
??1?$BaseVector@PAVCvAStarNode@@$00@@QAE@XZ PROC	; BaseVector<CvAStarNode *,1>::~BaseVector<CvAStarNode *,1>, COMDAT
; _this$ = ecx

; 111  : 	~BaseVector(){};

	ret	0
??1?$BaseVector@PAVCvAStarNode@@$00@@QAE@XZ ENDP	; BaseVector<CvAStarNode *,1>::~BaseVector<CvAStarNode *,1>
_TEXT	ENDS
PUBLIC	??0?$BaseVector@PAVCvAStarNode@@$00@@IAE@XZ	; BaseVector<CvAStarNode *,1>::BaseVector<CvAStarNode *,1>
; Function compile flags: /Ogtpy
;	COMDAT ??0?$BaseVector@PAVCvAStarNode@@$00@@IAE@XZ
_TEXT	SEGMENT
??0?$BaseVector@PAVCvAStarNode@@$00@@IAE@XZ PROC	; BaseVector<CvAStarNode *,1>::BaseVector<CvAStarNode *,1>, COMDAT
; _this$ = ecx

; 216  : 	BaseVector() : m_uiCurrSize(0), m_uiCurrMaxSize(0), m_pData(NULL) {};

	mov	eax, ecx
	xor	ecx, ecx
	mov	DWORD PTR [eax], ecx
	mov	DWORD PTR [eax+4], ecx
	mov	DWORD PTR [eax+8], ecx
	ret	0
??0?$BaseVector@PAVCvAStarNode@@$00@@IAE@XZ ENDP	; BaseVector<CvAStarNode *,1>::BaseVector<CvAStarNode *,1>
_TEXT	ENDS
PUBLIC	?Destroy@?$BaseVector@PAVCvAStarNode@@$00@@IAEXPAPAVCvAStarNode@@I@Z ; BaseVector<CvAStarNode *,1>::Destroy
; Function compile flags: /Ogtpy
;	COMDAT ?Destroy@?$BaseVector@PAVCvAStarNode@@$00@@IAEXPAPAVCvAStarNode@@I@Z
_TEXT	SEGMENT
_pVal$ = 8						; size = 4
_uiNumElements$ = 12					; size = 4
?Destroy@?$BaseVector@PAVCvAStarNode@@$00@@IAEXPAPAVCvAStarNode@@I@Z PROC ; BaseVector<CvAStarNode *,1>::Destroy, COMDAT
; _this$ = ecx

; 221  : 		if( !bPODType){
; 222  : 			for(unsigned int i = 0; i < uiNumElements; ++i){
; 223  : 				pVal[i].~T();
; 224  : 			}
; 225  : 		}
; 226  : 	};

	ret	8
?Destroy@?$BaseVector@PAVCvAStarNode@@$00@@IAEXPAPAVCvAStarNode@@I@Z ENDP ; BaseVector<CvAStarNode *,1>::Destroy
; Function compile flags: /Ogtpy
_TEXT	ENDS
;	COMDAT ??0length_error@std@@QAE@ABV01@@Z
_TEXT	SEGMENT
___that$ = 8						; size = 4
??0length_error@std@@QAE@ABV01@@Z PROC			; std::length_error::length_error, COMDAT
; _this$ = ecx
	mov	eax, DWORD PTR ___that$[esp-4]
	push	esi
	push	eax
	mov	esi, ecx
	call	??0logic_error@std@@QAE@ABV01@@Z
	mov	DWORD PTR [esi], OFFSET ??_7length_error@std@@6B@
	mov	eax, esi
	pop	esi
	ret	4
??0length_error@std@@QAE@ABV01@@Z ENDP			; std::length_error::length_error
_TEXT	ENDS
PUBLIC	?_Xlen@?$vector@HV?$allocator@H@std@@@std@@KAXXZ ; std::vector<int,std::allocator<int> >::_Xlen
;	COMDAT xdata$x
; File c:\program files (x86)\microsoft visual studio 9.0\vc\include\stdexcept
xdata$x	SEGMENT
__unwindtable$?_Xlen@?$vector@HV?$allocator@H@std@@@std@@KAXXZ DD 0ffffffffH
	DD	FLAT:__unwindfunclet$?_Xlen@?$vector@HV?$allocator@H@std@@@std@@KAXXZ$0
	DD	00H
	DD	FLAT:__unwindfunclet$?_Xlen@?$vector@HV?$allocator@H@std@@@std@@KAXXZ$2
__ehfuncinfo$?_Xlen@?$vector@HV?$allocator@H@std@@@std@@KAXXZ DD 019930522H
	DD	02H
	DD	FLAT:__unwindtable$?_Xlen@?$vector@HV?$allocator@H@std@@@std@@KAXXZ
	DD	2 DUP(00H)
	DD	2 DUP(00H)
	DD	00H
	DD	01H
; Function compile flags: /Ogtpy
; File c:\program files (x86)\microsoft visual studio 9.0\vc\include\vector
xdata$x	ENDS
;	COMDAT ?_Xlen@?$vector@HV?$allocator@H@std@@@std@@KAXXZ
_TEXT	SEGMENT
$T231662 = -80						; size = 28
$T231661 = -52						; size = 40
__$EHRec$ = -12						; size = 12
?_Xlen@?$vector@HV?$allocator@H@std@@@std@@KAXXZ PROC	; std::vector<int,std::allocator<int> >::_Xlen, COMDAT

; 1259 : 		{	// report a length_error

	push	-1
	push	__ehhandler$?_Xlen@?$vector@HV?$allocator@H@std@@@std@@KAXXZ
	mov	eax, DWORD PTR fs:0
	push	eax
	mov	DWORD PTR fs:0, esp
	sub	esp, 68					; 00000044H

; 1260 : 		_THROW(length_error, "vector<T> too long");

	push	OFFSET ??_C@_0BD@OLBABOEK@vector?$DMT?$DO?5too?5long?$AA@
	lea	ecx, DWORD PTR $T231662[esp+84]
	call	DWORD PTR __imp_??0?$basic_string@DU?$char_traits@D@std@@V?$allocator@D@2@@std@@QAE@PBD@Z
	lea	ecx, DWORD PTR $T231661[esp+80]
	mov	DWORD PTR __$EHRec$[esp+88], 0
	call	DWORD PTR __imp_??0exception@std@@QAE@XZ
	lea	eax, DWORD PTR $T231662[esp+80]
	push	eax
	lea	ecx, DWORD PTR $T231661[esp+96]
	mov	BYTE PTR __$EHRec$[esp+92], 1
	mov	DWORD PTR $T231661[esp+84], OFFSET ??_7logic_error@std@@6B@
	call	DWORD PTR __imp_??0?$basic_string@DU?$char_traits@D@std@@V?$allocator@D@2@@std@@QAE@ABV01@@Z
	push	OFFSET __TI3?AVlength_error@std@@
	lea	ecx, DWORD PTR $T231661[esp+84]
	push	ecx
	mov	BYTE PTR __$EHRec$[esp+96], 0
	mov	DWORD PTR $T231661[esp+88], OFFSET ??_7length_error@std@@6B@
	call	__CxxThrowException@8
$LN13@Xlen@2:
$LN12@Xlen@2:
	int	3
_TEXT	ENDS
;	COMDAT text$x
text$x	SEGMENT
__unwindfunclet$?_Xlen@?$vector@HV?$allocator@H@std@@@std@@KAXXZ$0:
	lea	ecx, DWORD PTR $T231662[ebp]
	jmp	DWORD PTR __imp_??1?$basic_string@DU?$char_traits@D@std@@V?$allocator@D@2@@std@@QAE@XZ
__unwindfunclet$?_Xlen@?$vector@HV?$allocator@H@std@@@std@@KAXXZ$2:
	lea	ecx, DWORD PTR $T231661[ebp]
	jmp	DWORD PTR __imp_??1exception@std@@UAE@XZ
__ehhandler$?_Xlen@?$vector@HV?$allocator@H@std@@@std@@KAXXZ:
	mov	eax, OFFSET __ehfuncinfo$?_Xlen@?$vector@HV?$allocator@H@std@@@std@@KAXXZ
	jmp	___CxxFrameHandler3
text$x	ENDS
?_Xlen@?$vector@HV?$allocator@H@std@@@std@@KAXXZ ENDP	; std::vector<int,std::allocator<int> >::_Xlen
PUBLIC	??0?$_Container_base_aux_alloc_empty@V?$allocator@H@std@@@std@@IAE@V?$allocator@H@1@@Z ; std::_Container_base_aux_alloc_empty<std::allocator<int> >::_Container_base_aux_alloc_empty<std::allocator<int> >
; Function compile flags: /Ogtpy
; File c:\program files (x86)\microsoft visual studio 9.0\vc\include\xutility
;	COMDAT ??0?$_Container_base_aux_alloc_empty@V?$allocator@H@std@@@std@@IAE@V?$allocator@H@1@@Z
_TEXT	SEGMENT
___formal$ = 8						; size = 1
??0?$_Container_base_aux_alloc_empty@V?$allocator@H@std@@@std@@IAE@V?$allocator@H@1@@Z PROC ; std::_Container_base_aux_alloc_empty<std::allocator<int> >::_Container_base_aux_alloc_empty<std::allocator<int> >, COMDAT
; _this$ = ecx

; 618  : 	explicit _Container_base_aux_alloc_empty(_Alloc) { }

	mov	eax, ecx
	ret	4
??0?$_Container_base_aux_alloc_empty@V?$allocator@H@std@@@std@@IAE@V?$allocator@H@1@@Z ENDP ; std::_Container_base_aux_alloc_empty<std::allocator<int> >::_Container_base_aux_alloc_empty<std::allocator<int> >
_TEXT	ENDS
PUBLIC	??0?$allocator@H@std@@QAE@ABV01@@Z		; std::allocator<int>::allocator<int>
; Function compile flags: /Ogtpy
; File c:\program files (x86)\microsoft visual studio 9.0\vc\include\xmemory
;	COMDAT ??0?$allocator@H@std@@QAE@ABV01@@Z
_TEXT	SEGMENT
___formal$ = 8						; size = 4
??0?$allocator@H@std@@QAE@ABV01@@Z PROC			; std::allocator<int>::allocator<int>, COMDAT
; _this$ = ecx

; 123  : 	allocator(const allocator<_Ty>&) _THROW0()

	mov	eax, ecx

; 124  : 		{	// construct by copying (do nothing)
; 125  : 		}

	ret	4
??0?$allocator@H@std@@QAE@ABV01@@Z ENDP			; std::allocator<int>::allocator<int>
_TEXT	ENDS
PUBLIC	?deallocate@?$allocator@H@std@@QAEXPAHI@Z	; std::allocator<int>::deallocate
; Function compile flags: /Ogtpy
;	COMDAT ?deallocate@?$allocator@H@std@@QAEXPAHI@Z
_TEXT	SEGMENT
__Ptr$ = 8						; size = 4
___formal$ = 12						; size = 4
?deallocate@?$allocator@H@std@@QAEXPAHI@Z PROC		; std::allocator<int>::deallocate, COMDAT
; _this$ = ecx

; 140  : 		::operator delete(_Ptr);

	mov	eax, DWORD PTR __Ptr$[esp-4]
	push	eax
	call	??3@YAXPAX@Z				; operator delete
	pop	ecx

; 141  : 		}

	ret	8
?deallocate@?$allocator@H@std@@QAEXPAHI@Z ENDP		; std::allocator<int>::deallocate
_TEXT	ENDS
PUBLIC	?_Color@?$_Tree@V?$_Tset_traits@PAVFAutoVariableBase@@U?$less@PAVFAutoVariableBase@@@std@@V?$allocator@PAVFAutoVariableBase@@@3@$0A@@std@@@std@@KAAADPAU_Node@?$_Tree_nod@V?$_Tset_traits@PAVFAutoVariableBase@@U?$less@PAVFAutoVariableBase@@@std@@V?$allocator@PAVFAutoVariableBase@@@3@$0A@@std@@@2@@Z ; std::_Tree<std::_Tset_traits<FAutoVariableBase *,std::less<FAutoVariableBase *>,std::allocator<FAutoVariableBase *>,0> >::_Color
; Function compile flags: /Ogtpy
; File c:\program files (x86)\microsoft visual studio 9.0\vc\include\xtree
;	COMDAT ?_Color@?$_Tree@V?$_Tset_traits@PAVFAutoVariableBase@@U?$less@PAVFAutoVariableBase@@@std@@V?$allocator@PAVFAutoVariableBase@@@3@$0A@@std@@@std@@KAAADPAU_Node@?$_Tree_nod@V?$_Tset_traits@PAVFAutoVariableBase@@U?$less@PAVFAutoVariableBase@@@std@@V?$allocator@PAVFAutoVariableBase@@@3@$0A@@std@@@2@@Z
_TEXT	SEGMENT
__Pnode$ = 8						; size = 4
?_Color@?$_Tree@V?$_Tset_traits@PAVFAutoVariableBase@@U?$less@PAVFAutoVariableBase@@@std@@V?$allocator@PAVFAutoVariableBase@@@3@$0A@@std@@@std@@KAAADPAU_Node@?$_Tree_nod@V?$_Tset_traits@PAVFAutoVariableBase@@U?$less@PAVFAutoVariableBase@@@std@@V?$allocator@PAVFAutoVariableBase@@@3@$0A@@std@@@2@@Z PROC ; std::_Tree<std::_Tset_traits<FAutoVariableBase *,std::less<FAutoVariableBase *>,std::allocator<FAutoVariableBase *>,0> >::_Color, COMDAT

; 152  : 		return ((_Charref)(*_Pnode)._Color);

	mov	eax, DWORD PTR __Pnode$[esp-4]
	add	eax, 16					; 00000010H

; 153  : 		}

	ret	0
?_Color@?$_Tree@V?$_Tset_traits@PAVFAutoVariableBase@@U?$less@PAVFAutoVariableBase@@@std@@V?$allocator@PAVFAutoVariableBase@@@3@$0A@@std@@@std@@KAAADPAU_Node@?$_Tree_nod@V?$_Tset_traits@PAVFAutoVariableBase@@U?$less@PAVFAutoVariableBase@@@std@@V?$allocator@PAVFAutoVariableBase@@@3@$0A@@std@@@2@@Z ENDP ; std::_Tree<std::_Tset_traits<FAutoVariableBase *,std::less<FAutoVariableBase *>,std::allocator<FAutoVariableBase *>,0> >::_Color
_TEXT	ENDS
PUBLIC	?_Parent@?$_Tree@V?$_Tset_traits@PAVFAutoVariableBase@@U?$less@PAVFAutoVariableBase@@@std@@V?$allocator@PAVFAutoVariableBase@@@3@$0A@@std@@@std@@KAAAPAU_Node@?$_Tree_nod@V?$_Tset_traits@PAVFAutoVariableBase@@U?$less@PAVFAutoVariableBase@@@std@@V?$allocator@PAVFAutoVariableBase@@@3@$0A@@std@@@2@PAU342@@Z ; std::_Tree<std::_Tset_traits<FAutoVariableBase *,std::less<FAutoVariableBase *>,std::allocator<FAutoVariableBase *>,0> >::_Parent
; Function compile flags: /Ogtpy
;	COMDAT ?_Parent@?$_Tree@V?$_Tset_traits@PAVFAutoVariableBase@@U?$less@PAVFAutoVariableBase@@@std@@V?$allocator@PAVFAutoVariableBase@@@3@$0A@@std@@@std@@KAAAPAU_Node@?$_Tree_nod@V?$_Tset_traits@PAVFAutoVariableBase@@U?$less@PAVFAutoVariableBase@@@std@@V?$allocator@PAVFAutoVariableBase@@@3@$0A@@std@@@2@PAU342@@Z
_TEXT	SEGMENT
__Pnode$ = 8						; size = 4
?_Parent@?$_Tree@V?$_Tset_traits@PAVFAutoVariableBase@@U?$less@PAVFAutoVariableBase@@@std@@V?$allocator@PAVFAutoVariableBase@@@3@$0A@@std@@@std@@KAAAPAU_Node@?$_Tree_nod@V?$_Tset_traits@PAVFAutoVariableBase@@U?$less@PAVFAutoVariableBase@@@std@@V?$allocator@PAVFAutoVariableBase@@@3@$0A@@std@@@2@PAU342@@Z PROC ; std::_Tree<std::_Tset_traits<FAutoVariableBase *,std::less<FAutoVariableBase *>,std::allocator<FAutoVariableBase *>,0> >::_Parent, COMDAT

; 172  : 		return ((_Nodepref)(*_Pnode)._Parent);

	mov	eax, DWORD PTR __Pnode$[esp-4]
	add	eax, 4

; 173  : 		}

	ret	0
?_Parent@?$_Tree@V?$_Tset_traits@PAVFAutoVariableBase@@U?$less@PAVFAutoVariableBase@@@std@@V?$allocator@PAVFAutoVariableBase@@@3@$0A@@std@@@std@@KAAAPAU_Node@?$_Tree_nod@V?$_Tset_traits@PAVFAutoVariableBase@@U?$less@PAVFAutoVariableBase@@@std@@V?$allocator@PAVFAutoVariableBase@@@3@$0A@@std@@@2@PAU342@@Z ENDP ; std::_Tree<std::_Tset_traits<FAutoVariableBase *,std::less<FAutoVariableBase *>,std::allocator<FAutoVariableBase *>,0> >::_Parent
_TEXT	ENDS
PUBLIC	?_Myval@?$_Tree@V?$_Tset_traits@PAVFAutoVariableBase@@U?$less@PAVFAutoVariableBase@@@std@@V?$allocator@PAVFAutoVariableBase@@@3@$0A@@std@@@std@@KAAAPAVFAutoVariableBase@@PAU_Node@?$_Tree_nod@V?$_Tset_traits@PAVFAutoVariableBase@@U?$less@PAVFAutoVariableBase@@@std@@V?$allocator@PAVFAutoVariableBase@@@3@$0A@@std@@@2@@Z ; std::_Tree<std::_Tset_traits<FAutoVariableBase *,std::less<FAutoVariableBase *>,std::allocator<FAutoVariableBase *>,0> >::_Myval
; Function compile flags: /Ogtpy
;	COMDAT ?_Myval@?$_Tree@V?$_Tset_traits@PAVFAutoVariableBase@@U?$less@PAVFAutoVariableBase@@@std@@V?$allocator@PAVFAutoVariableBase@@@3@$0A@@std@@@std@@KAAAPAVFAutoVariableBase@@PAU_Node@?$_Tree_nod@V?$_Tset_traits@PAVFAutoVariableBase@@U?$less@PAVFAutoVariableBase@@@std@@V?$allocator@PAVFAutoVariableBase@@@3@$0A@@std@@@2@@Z
_TEXT	SEGMENT
__Pnode$ = 8						; size = 4
?_Myval@?$_Tree@V?$_Tset_traits@PAVFAutoVariableBase@@U?$less@PAVFAutoVariableBase@@@std@@V?$allocator@PAVFAutoVariableBase@@@3@$0A@@std@@@std@@KAAAPAVFAutoVariableBase@@PAU_Node@?$_Tree_nod@V?$_Tset_traits@PAVFAutoVariableBase@@U?$less@PAVFAutoVariableBase@@@std@@V?$allocator@PAVFAutoVariableBase@@@3@$0A@@std@@@2@@Z PROC ; std::_Tree<std::_Tset_traits<FAutoVariableBase *,std::less<FAutoVariableBase *>,std::allocator<FAutoVariableBase *>,0> >::_Myval, COMDAT

; 182  : 		return ((_Vref)(*_Pnode)._Myval);

	mov	eax, DWORD PTR __Pnode$[esp-4]
	add	eax, 12					; 0000000cH

; 183  : 		}

	ret	0
?_Myval@?$_Tree@V?$_Tset_traits@PAVFAutoVariableBase@@U?$less@PAVFAutoVariableBase@@@std@@V?$allocator@PAVFAutoVariableBase@@@3@$0A@@std@@@std@@KAAAPAVFAutoVariableBase@@PAU_Node@?$_Tree_nod@V?$_Tset_traits@PAVFAutoVariableBase@@U?$less@PAVFAutoVariableBase@@@std@@V?$allocator@PAVFAutoVariableBase@@@3@$0A@@std@@@2@@Z ENDP ; std::_Tree<std::_Tset_traits<FAutoVariableBase *,std::less<FAutoVariableBase *>,std::allocator<FAutoVariableBase *>,0> >::_Myval
_TEXT	ENDS
PUBLIC	?_Lmost@?$_Tree@V?$_Tset_traits@PAVFAutoVariableBase@@U?$less@PAVFAutoVariableBase@@@std@@V?$allocator@PAVFAutoVariableBase@@@3@$0A@@std@@@std@@IBEAAPAU_Node@?$_Tree_nod@V?$_Tset_traits@PAVFAutoVariableBase@@U?$less@PAVFAutoVariableBase@@@std@@V?$allocator@PAVFAutoVariableBase@@@3@$0A@@std@@@2@XZ ; std::_Tree<std::_Tset_traits<FAutoVariableBase *,std::less<FAutoVariableBase *>,std::allocator<FAutoVariableBase *>,0> >::_Lmost
; Function compile flags: /Ogtpy
;	COMDAT ?_Lmost@?$_Tree@V?$_Tset_traits@PAVFAutoVariableBase@@U?$less@PAVFAutoVariableBase@@@std@@V?$allocator@PAVFAutoVariableBase@@@3@$0A@@std@@@std@@IBEAAPAU_Node@?$_Tree_nod@V?$_Tset_traits@PAVFAutoVariableBase@@U?$less@PAVFAutoVariableBase@@@std@@V?$allocator@PAVFAutoVariableBase@@@3@$0A@@std@@@2@XZ
_TEXT	SEGMENT
?_Lmost@?$_Tree@V?$_Tset_traits@PAVFAutoVariableBase@@U?$less@PAVFAutoVariableBase@@@std@@V?$allocator@PAVFAutoVariableBase@@@3@$0A@@std@@@std@@IBEAAPAU_Node@?$_Tree_nod@V?$_Tset_traits@PAVFAutoVariableBase@@U?$less@PAVFAutoVariableBase@@@std@@V?$allocator@PAVFAutoVariableBase@@@3@$0A@@std@@@2@XZ PROC ; std::_Tree<std::_Tset_traits<FAutoVariableBase *,std::less<FAutoVariableBase *>,std::allocator<FAutoVariableBase *>,0> >::_Lmost, COMDAT
; _this$ = ecx

; 1281 : 		return (_Left(_Myhead));

	mov	eax, DWORD PTR [ecx+4]

; 1282 : 		}

	ret	0
?_Lmost@?$_Tree@V?$_Tset_traits@PAVFAutoVariableBase@@U?$less@PAVFAutoVariableBase@@@std@@V?$allocator@PAVFAutoVariableBase@@@3@$0A@@std@@@std@@IBEAAPAU_Node@?$_Tree_nod@V?$_Tset_traits@PAVFAutoVariableBase@@U?$less@PAVFAutoVariableBase@@@std@@V?$allocator@PAVFAutoVariableBase@@@3@$0A@@std@@@2@XZ ENDP ; std::_Tree<std::_Tset_traits<FAutoVariableBase *,std::less<FAutoVariableBase *>,std::allocator<FAutoVariableBase *>,0> >::_Lmost
_TEXT	ENDS
PUBLIC	?_Rmost@?$_Tree@V?$_Tset_traits@PAVFAutoVariableBase@@U?$less@PAVFAutoVariableBase@@@std@@V?$allocator@PAVFAutoVariableBase@@@3@$0A@@std@@@std@@IBEAAPAU_Node@?$_Tree_nod@V?$_Tset_traits@PAVFAutoVariableBase@@U?$less@PAVFAutoVariableBase@@@std@@V?$allocator@PAVFAutoVariableBase@@@3@$0A@@std@@@2@XZ ; std::_Tree<std::_Tset_traits<FAutoVariableBase *,std::less<FAutoVariableBase *>,std::allocator<FAutoVariableBase *>,0> >::_Rmost
; Function compile flags: /Ogtpy
;	COMDAT ?_Rmost@?$_Tree@V?$_Tset_traits@PAVFAutoVariableBase@@U?$less@PAVFAutoVariableBase@@@std@@V?$allocator@PAVFAutoVariableBase@@@3@$0A@@std@@@std@@IBEAAPAU_Node@?$_Tree_nod@V?$_Tset_traits@PAVFAutoVariableBase@@U?$less@PAVFAutoVariableBase@@@std@@V?$allocator@PAVFAutoVariableBase@@@3@$0A@@std@@@2@XZ
_TEXT	SEGMENT
?_Rmost@?$_Tree@V?$_Tset_traits@PAVFAutoVariableBase@@U?$less@PAVFAutoVariableBase@@@std@@V?$allocator@PAVFAutoVariableBase@@@3@$0A@@std@@@std@@IBEAAPAU_Node@?$_Tree_nod@V?$_Tset_traits@PAVFAutoVariableBase@@U?$less@PAVFAutoVariableBase@@@std@@V?$allocator@PAVFAutoVariableBase@@@3@$0A@@std@@@2@XZ PROC ; std::_Tree<std::_Tset_traits<FAutoVariableBase *,std::less<FAutoVariableBase *>,std::allocator<FAutoVariableBase *>,0> >::_Rmost, COMDAT
; _this$ = ecx

; 1320 : 		return (_Right(_Myhead));

	mov	eax, DWORD PTR [ecx+4]
	add	eax, 8

; 1321 : 		}

	ret	0
?_Rmost@?$_Tree@V?$_Tset_traits@PAVFAutoVariableBase@@U?$less@PAVFAutoVariableBase@@@std@@V?$allocator@PAVFAutoVariableBase@@@3@$0A@@std@@@std@@IBEAAPAU_Node@?$_Tree_nod@V?$_Tset_traits@PAVFAutoVariableBase@@U?$less@PAVFAutoVariableBase@@@std@@V?$allocator@PAVFAutoVariableBase@@@3@$0A@@std@@@2@XZ ENDP ; std::_Tree<std::_Tset_traits<FAutoVariableBase *,std::less<FAutoVariableBase *>,std::allocator<FAutoVariableBase *>,0> >::_Rmost
_TEXT	ENDS
PUBLIC	??0const_iterator@?$_Tree@V?$_Tset_traits@PAVFAutoVariableBase@@U?$less@PAVFAutoVariableBase@@@std@@V?$allocator@PAVFAutoVariableBase@@@3@$0A@@std@@@std@@QAE@PAU_Node@?$_Tree_nod@V?$_Tset_traits@PAVFAutoVariableBase@@U?$less@PAVFAutoVariableBase@@@std@@V?$allocator@PAVFAutoVariableBase@@@3@$0A@@std@@@2@@Z ; std::_Tree<std::_Tset_traits<FAutoVariableBase *,std::less<FAutoVariableBase *>,std::allocator<FAutoVariableBase *>,0> >::const_iterator::const_iterator
; Function compile flags: /Ogtpy
;	COMDAT ??0const_iterator@?$_Tree@V?$_Tset_traits@PAVFAutoVariableBase@@U?$less@PAVFAutoVariableBase@@@std@@V?$allocator@PAVFAutoVariableBase@@@3@$0A@@std@@@std@@QAE@PAU_Node@?$_Tree_nod@V?$_Tset_traits@PAVFAutoVariableBase@@U?$less@PAVFAutoVariableBase@@@std@@V?$allocator@PAVFAutoVariableBase@@@3@$0A@@std@@@2@@Z
_TEXT	SEGMENT
__Pnode$ = 8						; size = 4
??0const_iterator@?$_Tree@V?$_Tset_traits@PAVFAutoVariableBase@@U?$less@PAVFAutoVariableBase@@@std@@V?$allocator@PAVFAutoVariableBase@@@3@$0A@@std@@@std@@QAE@PAU_Node@?$_Tree_nod@V?$_Tset_traits@PAVFAutoVariableBase@@U?$less@PAVFAutoVariableBase@@@std@@V?$allocator@PAVFAutoVariableBase@@@3@$0A@@std@@@2@@Z PROC ; std::_Tree<std::_Tset_traits<FAutoVariableBase *,std::less<FAutoVariableBase *>,std::allocator<FAutoVariableBase *>,0> >::const_iterator::const_iterator, COMDAT
; _this$ = ecx

; 244  : 			{	// construct with node pointer _Pnode

	mov	eax, ecx
	mov	ecx, DWORD PTR __Pnode$[esp-4]
	mov	DWORD PTR [eax], ecx

; 245  : 			}

	ret	4
??0const_iterator@?$_Tree@V?$_Tset_traits@PAVFAutoVariableBase@@U?$less@PAVFAutoVariableBase@@@std@@V?$allocator@PAVFAutoVariableBase@@@3@$0A@@std@@@std@@QAE@PAU_Node@?$_Tree_nod@V?$_Tset_traits@PAVFAutoVariableBase@@U?$less@PAVFAutoVariableBase@@@std@@V?$allocator@PAVFAutoVariableBase@@@3@$0A@@std@@@2@@Z ENDP ; std::_Tree<std::_Tset_traits<FAutoVariableBase *,std::less<FAutoVariableBase *>,std::allocator<FAutoVariableBase *>,0> >::const_iterator::const_iterator
_TEXT	ENDS
PUBLIC	?max_size@?$allocator@H@std@@QBEIXZ		; std::allocator<int>::max_size
; Function compile flags: /Ogtpy
; File c:\program files (x86)\microsoft visual studio 9.0\vc\include\xmemory
;	COMDAT ?max_size@?$allocator@H@std@@QBEIXZ
_TEXT	SEGMENT
?max_size@?$allocator@H@std@@QBEIXZ PROC		; std::allocator<int>::max_size, COMDAT
; _this$ = ecx

; 165  : 		_SIZT _Count = (_SIZT)(-1) / sizeof (_Ty);
; 166  : 		return (0 < _Count ? _Count : 1);

	mov	eax, 1073741823				; 3fffffffH

; 167  : 		}

	ret	0
?max_size@?$allocator@H@std@@QBEIXZ ENDP		; std::allocator<int>::max_size
_TEXT	ENDS
PUBLIC	?max_size@?$allocator@PAVFAutoVariableBase@@@std@@QBEIXZ ; std::allocator<FAutoVariableBase *>::max_size
; Function compile flags: /Ogtpy
;	COMDAT ?max_size@?$allocator@PAVFAutoVariableBase@@@std@@QBEIXZ
_TEXT	SEGMENT
?max_size@?$allocator@PAVFAutoVariableBase@@@std@@QBEIXZ PROC ; std::allocator<FAutoVariableBase *>::max_size, COMDAT
; _this$ = ecx

; 165  : 		_SIZT _Count = (_SIZT)(-1) / sizeof (_Ty);
; 166  : 		return (0 < _Count ? _Count : 1);

	mov	eax, 1073741823				; 3fffffffH

; 167  : 		}

	ret	0
?max_size@?$allocator@PAVFAutoVariableBase@@@std@@QBEIXZ ENDP ; std::allocator<FAutoVariableBase *>::max_size
_TEXT	ENDS
PUBLIC	?deallocate@?$allocator@U_Node@?$_Tree_nod@V?$_Tset_traits@PAVFAutoVariableBase@@U?$less@PAVFAutoVariableBase@@@std@@V?$allocator@PAVFAutoVariableBase@@@3@$0A@@std@@@std@@@std@@QAEXPAU_Node@?$_Tree_nod@V?$_Tset_traits@PAVFAutoVariableBase@@U?$less@PAVFAutoVariableBase@@@std@@V?$allocator@PAVFAutoVariableBase@@@3@$0A@@std@@@2@I@Z ; std::allocator<std::_Tree_nod<std::_Tset_traits<FAutoVariableBase *,std::less<FAutoVariableBase *>,std::allocator<FAutoVariableBase *>,0> >::_Node>::deallocate
; Function compile flags: /Ogtpy
;	COMDAT ?deallocate@?$allocator@U_Node@?$_Tree_nod@V?$_Tset_traits@PAVFAutoVariableBase@@U?$less@PAVFAutoVariableBase@@@std@@V?$allocator@PAVFAutoVariableBase@@@3@$0A@@std@@@std@@@std@@QAEXPAU_Node@?$_Tree_nod@V?$_Tset_traits@PAVFAutoVariableBase@@U?$less@PAVFAutoVariableBase@@@std@@V?$allocator@PAVFAutoVariableBase@@@3@$0A@@std@@@2@I@Z
_TEXT	SEGMENT
__Ptr$ = 8						; size = 4
___formal$ = 12						; size = 4
?deallocate@?$allocator@U_Node@?$_Tree_nod@V?$_Tset_traits@PAVFAutoVariableBase@@U?$less@PAVFAutoVariableBase@@@std@@V?$allocator@PAVFAutoVariableBase@@@3@$0A@@std@@@std@@@std@@QAEXPAU_Node@?$_Tree_nod@V?$_Tset_traits@PAVFAutoVariableBase@@U?$less@PAVFAutoVariableBase@@@std@@V?$allocator@PAVFAutoVariableBase@@@3@$0A@@std@@@2@I@Z PROC ; std::allocator<std::_Tree_nod<std::_Tset_traits<FAutoVariableBase *,std::less<FAutoVariableBase *>,std::allocator<FAutoVariableBase *>,0> >::_Node>::deallocate, COMDAT
; _this$ = ecx

; 140  : 		::operator delete(_Ptr);

	mov	eax, DWORD PTR __Ptr$[esp-4]
	push	eax
	call	??3@YAXPAX@Z				; operator delete
	pop	ecx

; 141  : 		}

	ret	8
?deallocate@?$allocator@U_Node@?$_Tree_nod@V?$_Tset_traits@PAVFAutoVariableBase@@U?$less@PAVFAutoVariableBase@@@std@@V?$allocator@PAVFAutoVariableBase@@@3@$0A@@std@@@std@@@std@@QAEXPAU_Node@?$_Tree_nod@V?$_Tset_traits@PAVFAutoVariableBase@@U?$less@PAVFAutoVariableBase@@@std@@V?$allocator@PAVFAutoVariableBase@@@3@$0A@@std@@@2@I@Z ENDP ; std::allocator<std::_Tree_nod<std::_Tset_traits<FAutoVariableBase *,std::less<FAutoVariableBase *>,std::allocator<FAutoVariableBase *>,0> >::_Node>::deallocate
_TEXT	ENDS
PUBLIC	??0_Node@?$_Tree_nod@V?$_Tset_traits@PAVFAutoVariableBase@@U?$less@PAVFAutoVariableBase@@@std@@V?$allocator@PAVFAutoVariableBase@@@3@$0A@@std@@@std@@QAE@PAU012@00ABQAVFAutoVariableBase@@D@Z ; std::_Tree_nod<std::_Tset_traits<FAutoVariableBase *,std::less<FAutoVariableBase *>,std::allocator<FAutoVariableBase *>,0> >::_Node::_Node
; Function compile flags: /Ogtpy
; File c:\program files (x86)\microsoft visual studio 9.0\vc\include\xtree
;	COMDAT ??0_Node@?$_Tree_nod@V?$_Tset_traits@PAVFAutoVariableBase@@U?$less@PAVFAutoVariableBase@@@std@@V?$allocator@PAVFAutoVariableBase@@@3@$0A@@std@@@std@@QAE@PAU012@00ABQAVFAutoVariableBase@@D@Z
_TEXT	SEGMENT
__Larg$ = 8						; size = 4
__Parg$ = 12						; size = 4
__Rarg$ = 16						; size = 4
__Val$ = 20						; size = 4
__Carg$ = 24						; size = 1
??0_Node@?$_Tree_nod@V?$_Tset_traits@PAVFAutoVariableBase@@U?$less@PAVFAutoVariableBase@@@std@@V?$allocator@PAVFAutoVariableBase@@@3@$0A@@std@@@std@@QAE@PAU012@00ABQAVFAutoVariableBase@@D@Z PROC ; std::_Tree_nod<std::_Tset_traits<FAutoVariableBase *,std::less<FAutoVariableBase *>,std::allocator<FAutoVariableBase *>,0> >::_Node::_Node, COMDAT
; _this$ = ecx

; 38   : 			{	// construct a node with value

	mov	edx, DWORD PTR __Parg$[esp-4]
	mov	eax, ecx
	mov	ecx, DWORD PTR __Larg$[esp-4]
	mov	DWORD PTR [eax], ecx
	mov	ecx, DWORD PTR __Rarg$[esp-4]
	mov	DWORD PTR [eax+4], edx
	mov	edx, DWORD PTR __Val$[esp-4]
	mov	DWORD PTR [eax+8], ecx
	mov	ecx, DWORD PTR [edx]
	mov	dl, BYTE PTR __Carg$[esp-4]
	mov	DWORD PTR [eax+12], ecx
	mov	BYTE PTR [eax+16], dl
	mov	BYTE PTR [eax+17], 0

; 39   : 			}

	ret	20					; 00000014H
??0_Node@?$_Tree_nod@V?$_Tset_traits@PAVFAutoVariableBase@@U?$less@PAVFAutoVariableBase@@@std@@V?$allocator@PAVFAutoVariableBase@@@3@$0A@@std@@@std@@QAE@PAU012@00ABQAVFAutoVariableBase@@D@Z ENDP ; std::_Tree_nod<std::_Tset_traits<FAutoVariableBase *,std::less<FAutoVariableBase *>,std::allocator<FAutoVariableBase *>,0> >::_Node::_Node
_TEXT	ENDS
PUBLIC	?_Max@?$_Tree@V?$_Tset_traits@PAVFAutoVariableBase@@U?$less@PAVFAutoVariableBase@@@std@@V?$allocator@PAVFAutoVariableBase@@@3@$0A@@std@@@std@@KAPAU_Node@?$_Tree_nod@V?$_Tset_traits@PAVFAutoVariableBase@@U?$less@PAVFAutoVariableBase@@@std@@V?$allocator@PAVFAutoVariableBase@@@3@$0A@@std@@@2@PAU342@@Z ; std::_Tree<std::_Tset_traits<FAutoVariableBase *,std::less<FAutoVariableBase *>,std::allocator<FAutoVariableBase *>,0> >::_Max
; Function compile flags: /Ogtpy
;	COMDAT ?_Max@?$_Tree@V?$_Tset_traits@PAVFAutoVariableBase@@U?$less@PAVFAutoVariableBase@@@std@@V?$allocator@PAVFAutoVariableBase@@@3@$0A@@std@@@std@@KAPAU_Node@?$_Tree_nod@V?$_Tset_traits@PAVFAutoVariableBase@@U?$less@PAVFAutoVariableBase@@@std@@V?$allocator@PAVFAutoVariableBase@@@3@$0A@@std@@@2@PAU342@@Z
_TEXT	SEGMENT
__Pnode$ = 8						; size = 4
?_Max@?$_Tree@V?$_Tset_traits@PAVFAutoVariableBase@@U?$less@PAVFAutoVariableBase@@@std@@V?$allocator@PAVFAutoVariableBase@@@3@$0A@@std@@@std@@KAPAU_Node@?$_Tree_nod@V?$_Tset_traits@PAVFAutoVariableBase@@U?$less@PAVFAutoVariableBase@@@std@@V?$allocator@PAVFAutoVariableBase@@@3@$0A@@std@@@2@PAU342@@Z PROC ; std::_Tree<std::_Tset_traits<FAutoVariableBase *,std::less<FAutoVariableBase *>,std::allocator<FAutoVariableBase *>,0> >::_Max, COMDAT

; 1306 : 		while (!_Isnil(_Right(_Pnode)))

	mov	eax, DWORD PTR __Pnode$[esp-4]
	mov	ecx, DWORD PTR [eax+8]
	cmp	BYTE PTR [ecx+17], 0
	jne	SHORT $LN1@Max
	npad	3
$LL2@Max:

; 1307 : 			_Pnode = _Right(_Pnode);

	mov	eax, ecx
	mov	ecx, DWORD PTR [eax+8]
	cmp	BYTE PTR [ecx+17], 0
	je	SHORT $LL2@Max
$LN1@Max:

; 1308 : 		return (_Pnode);
; 1309 : 		}

	ret	0
?_Max@?$_Tree@V?$_Tset_traits@PAVFAutoVariableBase@@U?$less@PAVFAutoVariableBase@@@std@@V?$allocator@PAVFAutoVariableBase@@@3@$0A@@std@@@std@@KAPAU_Node@?$_Tree_nod@V?$_Tset_traits@PAVFAutoVariableBase@@U?$less@PAVFAutoVariableBase@@@std@@V?$allocator@PAVFAutoVariableBase@@@3@$0A@@std@@@2@PAU342@@Z ENDP ; std::_Tree<std::_Tset_traits<FAutoVariableBase *,std::less<FAutoVariableBase *>,std::allocator<FAutoVariableBase *>,0> >::_Max
_TEXT	ENDS
PUBLIC	?get@?$FAutoVariable@W4PlayerTypes@@VCvUnit@@@@QBEABW4PlayerTypes@@XZ ; FAutoVariable<enum PlayerTypes,CvUnit>::get
; Function compile flags: /Ogtpy
; File c:\users\enormousapplepie\documents\github\lekmod\lekmod_dll\fireplace\include\fireworks\fautovariable.h
;	COMDAT ?get@?$FAutoVariable@W4PlayerTypes@@VCvUnit@@@@QBEABW4PlayerTypes@@XZ
_TEXT	SEGMENT
?get@?$FAutoVariable@W4PlayerTypes@@VCvUnit@@@@QBEABW4PlayerTypes@@XZ PROC ; FAutoVariable<enum PlayerTypes,CvUnit>::get, COMDAT
; _this$ = ecx

; 177  : 	return m_value;

	lea	eax, DWORD PTR [ecx+4]

; 178  : }

	ret	0
?get@?$FAutoVariable@W4PlayerTypes@@VCvUnit@@@@QBEABW4PlayerTypes@@XZ ENDP ; FAutoVariable<enum PlayerTypes,CvUnit>::get
_TEXT	ENDS
PUBLIC	?get@?$FAutoVariable@HVCvUnit@@@@QBEABHXZ	; FAutoVariable<int,CvUnit>::get
; Function compile flags: /Ogtpy
;	COMDAT ?get@?$FAutoVariable@HVCvUnit@@@@QBEABHXZ
_TEXT	SEGMENT
?get@?$FAutoVariable@HVCvUnit@@@@QBEABHXZ PROC		; FAutoVariable<int,CvUnit>::get, COMDAT
; _this$ = ecx

; 177  : 	return m_value;

	lea	eax, DWORD PTR [ecx+4]

; 178  : }

	ret	0
?get@?$FAutoVariable@HVCvUnit@@@@QBEABHXZ ENDP		; FAutoVariable<int,CvUnit>::get
_TEXT	ENDS
PUBLIC	??B?$FAutoVariable@HVCvUnit@@@@QBEABHXZ		; FAutoVariable<int,CvUnit>::operator int const &
; Function compile flags: /Ogtpy
;	COMDAT ??B?$FAutoVariable@HVCvUnit@@@@QBEABHXZ
_TEXT	SEGMENT
??B?$FAutoVariable@HVCvUnit@@@@QBEABHXZ PROC		; FAutoVariable<int,CvUnit>::operator int const &, COMDAT
; _this$ = ecx

; 194  : 	return m_value;

	lea	eax, DWORD PTR [ecx+4]

; 195  : }

	ret	0
??B?$FAutoVariable@HVCvUnit@@@@QBEABHXZ ENDP		; FAutoVariable<int,CvUnit>::operator int const &
_TEXT	ENDS
PUBLIC	??B?$FAutoVariable@_NVCvUnit@@@@QBEAB_NXZ	; FAutoVariable<bool,CvUnit>::operator bool const &
; Function compile flags: /Ogtpy
;	COMDAT ??B?$FAutoVariable@_NVCvUnit@@@@QBEAB_NXZ
_TEXT	SEGMENT
??B?$FAutoVariable@_NVCvUnit@@@@QBEAB_NXZ PROC		; FAutoVariable<bool,CvUnit>::operator bool const &, COMDAT
; _this$ = ecx

; 194  : 	return m_value;

	lea	eax, DWORD PTR [ecx+4]

; 195  : }

	ret	0
??B?$FAutoVariable@_NVCvUnit@@@@QBEAB_NXZ ENDP		; FAutoVariable<bool,CvUnit>::operator bool const &
_TEXT	ENDS
PUBLIC	??A?$FAutoVariable@V?$vector@HV?$allocator@H@std@@@std@@VCvUnit@@@@QBEABHI@Z ; FAutoVariable<std::vector<int,std::allocator<int> >,CvUnit>::operator[]
; Function compile flags: /Ogtpy
; File c:\users\enormousapplepie\documents\github\lekmod\lekmod_dll\fireplace\include\fireworks\fautovector.h
;	COMDAT ??A?$FAutoVariable@V?$vector@HV?$allocator@H@std@@@std@@VCvUnit@@@@QBEABHI@Z
_TEXT	SEGMENT
_index$ = 8						; size = 4
??A?$FAutoVariable@V?$vector@HV?$allocator@H@std@@@std@@VCvUnit@@@@QBEABHI@Z PROC ; FAutoVariable<std::vector<int,std::allocator<int> >,CvUnit>::operator[], COMDAT
; _this$ = ecx

; 329  : 	return m_value[index];

	mov	eax, DWORD PTR [ecx+24]
	mov	ecx, DWORD PTR _index$[esp-4]
	lea	eax, DWORD PTR [eax+ecx*4]

; 330  : }

	ret	4
??A?$FAutoVariable@V?$vector@HV?$allocator@H@std@@@std@@VCvUnit@@@@QBEABHI@Z ENDP ; FAutoVariable<std::vector<int,std::allocator<int> >,CvUnit>::operator[]
_TEXT	ENDS
PUBLIC	??$?6H@FDataStream@@QAEAAV0@ABH@Z		; FDataStream::operator<<<int>
EXTRN	?Write@FDataStream@@IAEXABH@Z:PROC		; FDataStream::Write
; Function compile flags: /Ogtpy
; File c:\users\enormousapplepie\documents\github\lekmod\lekmod_dll\fireplace\include\fireworks\fdatastream.h
;	COMDAT ??$?6H@FDataStream@@QAEAAV0@ABH@Z
_TEXT	SEGMENT
_kData$ = 8						; size = 4
??$?6H@FDataStream@@QAEAAV0@ABH@Z PROC			; FDataStream::operator<<<int>, COMDAT
; _this$ = ecx

; 246  : 	// If the compiler produces an error here complaining about 
; 247  : 	// YouMustImplementASerializeOperatorForThisTypeError then
; 248  : 	// it could not find a specialization for the type supplied
; 249  : 	// in scope. If a specialization exists, be sure to include
; 250  : 	// the header (FStlContainerSerialization.h, for example), 
; 251  : 	// if not, implement :
; 252  : 	// FDataStream & operator<<(FDataStream &, YourCustomType &)
; 253  : 	Write( kData );

	mov	eax, DWORD PTR _kData$[esp-4]
	push	esi
	push	eax
	mov	esi, ecx
	call	?Write@FDataStream@@IAEXABH@Z		; FDataStream::Write

; 254  : 	return ( *this );

	mov	eax, esi
	pop	esi

; 255  : }

	ret	4
??$?6H@FDataStream@@QAEAAV0@ABH@Z ENDP			; FDataStream::operator<<<int>
_TEXT	ENDS
PUBLIC	??$?5H@FDataStream@@QAEAAV0@AAH@Z		; FDataStream::operator>><int>
EXTRN	?Read@FDataStream@@IAEXAAH@Z:PROC		; FDataStream::Read
; Function compile flags: /Ogtpy
;	COMDAT ??$?5H@FDataStream@@QAEAAV0@AAH@Z
_TEXT	SEGMENT
_kData$ = 8						; size = 4
??$?5H@FDataStream@@QAEAAV0@AAH@Z PROC			; FDataStream::operator>><int>, COMDAT
; _this$ = ecx

; 260  : 	// If the compiler produces an error here complaining about 
; 261  : 	// YouMustImplementASerializeOperatorForThisTypeError then
; 262  : 	// it could not find a specialization for the type supplied
; 263  : 	// in scope. If a specialization exists, be sure to include
; 264  : 	// the header (FStlContainerSerialization.h, for example), 
; 265  : 	// if not, implement :
; 266  : 	// FDataStream & operator>>(FDataStream &, YourCustomType &)
; 267  : 	Read( kData );

	mov	eax, DWORD PTR _kData$[esp-4]
	push	esi
	push	eax
	mov	esi, ecx
	call	?Read@FDataStream@@IAEXAAH@Z		; FDataStream::Read

; 268  : 	return ( *this );

	mov	eax, esi
	pop	esi

; 269  : }

	ret	4
??$?5H@FDataStream@@QAEAAV0@AAH@Z ENDP			; FDataStream::operator>><int>
_TEXT	ENDS
PUBLIC	??B?$FAutoVariable@W4PlayerTypes@@VCvCity@@@@QBEABW4PlayerTypes@@XZ ; FAutoVariable<enum PlayerTypes,CvCity>::operator enum PlayerTypes const &
; Function compile flags: /Ogtpy
; File c:\users\enormousapplepie\documents\github\lekmod\lekmod_dll\fireplace\include\fireworks\fautovariable.h
;	COMDAT ??B?$FAutoVariable@W4PlayerTypes@@VCvCity@@@@QBEABW4PlayerTypes@@XZ
_TEXT	SEGMENT
??B?$FAutoVariable@W4PlayerTypes@@VCvCity@@@@QBEABW4PlayerTypes@@XZ PROC ; FAutoVariable<enum PlayerTypes,CvCity>::operator enum PlayerTypes const &, COMDAT
; _this$ = ecx

; 194  : 	return m_value;

	lea	eax, DWORD PTR [ecx+4]

; 195  : }

	ret	0
??B?$FAutoVariable@W4PlayerTypes@@VCvCity@@@@QBEABW4PlayerTypes@@XZ ENDP ; FAutoVariable<enum PlayerTypes,CvCity>::operator enum PlayerTypes const &
_TEXT	ENDS
PUBLIC	??B?$FAutoVariable@HVCvCity@@@@QBEABHXZ		; FAutoVariable<int,CvCity>::operator int const &
; Function compile flags: /Ogtpy
;	COMDAT ??B?$FAutoVariable@HVCvCity@@@@QBEABHXZ
_TEXT	SEGMENT
??B?$FAutoVariable@HVCvCity@@@@QBEABHXZ PROC		; FAutoVariable<int,CvCity>::operator int const &, COMDAT
; _this$ = ecx

; 194  : 	return m_value;

	lea	eax, DWORD PTR [ecx+4]

; 195  : }

	ret	0
??B?$FAutoVariable@HVCvCity@@@@QBEABHXZ ENDP		; FAutoVariable<int,CvCity>::operator int const &
_TEXT	ENDS
PUBLIC	??B?$FAutoVariable@W4PlayerTypes@@VCvPlayer@@@@QBEABW4PlayerTypes@@XZ ; FAutoVariable<enum PlayerTypes,CvPlayer>::operator enum PlayerTypes const &
; Function compile flags: /Ogtpy
;	COMDAT ??B?$FAutoVariable@W4PlayerTypes@@VCvPlayer@@@@QBEABW4PlayerTypes@@XZ
_TEXT	SEGMENT
??B?$FAutoVariable@W4PlayerTypes@@VCvPlayer@@@@QBEABW4PlayerTypes@@XZ PROC ; FAutoVariable<enum PlayerTypes,CvPlayer>::operator enum PlayerTypes const &, COMDAT
; _this$ = ecx

; 194  : 	return m_value;

	lea	eax, DWORD PTR [ecx+4]

; 195  : }

	ret	0
??B?$FAutoVariable@W4PlayerTypes@@VCvPlayer@@@@QBEABW4PlayerTypes@@XZ ENDP ; FAutoVariable<enum PlayerTypes,CvPlayer>::operator enum PlayerTypes const &
_TEXT	ENDS
PUBLIC	??B?$FAutoVariable@_NVCvPlayer@@@@QBEAB_NXZ	; FAutoVariable<bool,CvPlayer>::operator bool const &
; Function compile flags: /Ogtpy
;	COMDAT ??B?$FAutoVariable@_NVCvPlayer@@@@QBEAB_NXZ
_TEXT	SEGMENT
??B?$FAutoVariable@_NVCvPlayer@@@@QBEAB_NXZ PROC	; FAutoVariable<bool,CvPlayer>::operator bool const &, COMDAT
; _this$ = ecx

; 194  : 	return m_value;

	lea	eax, DWORD PTR [ecx+4]

; 195  : }

	ret	0
??B?$FAutoVariable@_NVCvPlayer@@@@QBEAB_NXZ ENDP	; FAutoVariable<bool,CvPlayer>::operator bool const &
_TEXT	ENDS
PUBLIC	??$_Allocate@H@std@@YAPAHIPAH@Z			; std::_Allocate<int>
; Function compile flags: /Ogtpy
; File c:\program files (x86)\microsoft visual studio 9.0\vc\include\xmemory
;	COMDAT ??$_Allocate@H@std@@YAPAHIPAH@Z
_TEXT	SEGMENT
$T231787 = -12						; size = 12
$T231791 = 8						; size = 4
__Count$ = 8						; size = 4
___formal$ = 12						; size = 4
??$_Allocate@H@std@@YAPAHIPAH@Z PROC			; std::_Allocate<int>, COMDAT

; 37   : 	if (_Count <= 0)

	mov	ecx, DWORD PTR __Count$[esp-4]
	sub	esp, 12					; 0000000cH
	test	ecx, ecx
	ja	SHORT $LN3@Allocate@2

; 38   : 		_Count = 0;

	xor	ecx, ecx
$LN1@Allocate@2:

; 41   : 
; 42   : 		// allocate storage for _Count elements of type _Ty
; 43   : 	return ((_Ty _FARQ *)::operator new(_Count * sizeof (_Ty)));

	lea	edx, DWORD PTR [ecx*4]
	push	edx
	call	??2@YAPAXI@Z				; operator new
	add	esp, 4

; 44   : 	}

	add	esp, 12					; 0000000cH
	ret	0
$LN3@Allocate@2:

; 39   : 	else if (((_SIZT)(-1) / _Count) < sizeof (_Ty))

	or	eax, -1
	xor	edx, edx
	div	ecx
	cmp	eax, 4
	jae	SHORT $LN1@Allocate@2

; 40   : 		_THROW_NCEE(std::bad_alloc, NULL);

	lea	eax, DWORD PTR $T231791[esp+8]
	push	eax
	lea	ecx, DWORD PTR $T231787[esp+16]
	mov	DWORD PTR $T231791[esp+12], 0
	call	DWORD PTR __imp_??0exception@std@@QAE@ABQBD@Z
	push	OFFSET __TI2?AVbad_alloc@std@@
	lea	ecx, DWORD PTR $T231787[esp+16]
	push	ecx
	mov	DWORD PTR $T231787[esp+20], OFFSET ??_7bad_alloc@std@@6B@
	call	__CxxThrowException@8
$LN9@Allocate@2:
$LN8@Allocate@2:
	int	3
??$_Allocate@H@std@@YAPAHIPAH@Z ENDP			; std::_Allocate<int>
_TEXT	ENDS
PUBLIC	??$_Allocate@U_Node@?$_Tree_nod@V?$_Tset_traits@PAVFAutoVariableBase@@U?$less@PAVFAutoVariableBase@@@std@@V?$allocator@PAVFAutoVariableBase@@@3@$0A@@std@@@std@@@std@@YAPAU_Node@?$_Tree_nod@V?$_Tset_traits@PAVFAutoVariableBase@@U?$less@PAVFAutoVariableBase@@@std@@V?$allocator@PAVFAutoVariableBase@@@3@$0A@@std@@@0@IPAU120@@Z ; std::_Allocate<std::_Tree_nod<std::_Tset_traits<FAutoVariableBase *,std::less<FAutoVariableBase *>,std::allocator<FAutoVariableBase *>,0> >::_Node>
; Function compile flags: /Ogtpy
;	COMDAT ??$_Allocate@U_Node@?$_Tree_nod@V?$_Tset_traits@PAVFAutoVariableBase@@U?$less@PAVFAutoVariableBase@@@std@@V?$allocator@PAVFAutoVariableBase@@@3@$0A@@std@@@std@@@std@@YAPAU_Node@?$_Tree_nod@V?$_Tset_traits@PAVFAutoVariableBase@@U?$less@PAVFAutoVariableBase@@@std@@V?$allocator@PAVFAutoVariableBase@@@3@$0A@@std@@@0@IPAU120@@Z
_TEXT	SEGMENT
$T231797 = -12						; size = 12
$T231801 = 8						; size = 4
__Count$ = 8						; size = 4
___formal$ = 12						; size = 4
??$_Allocate@U_Node@?$_Tree_nod@V?$_Tset_traits@PAVFAutoVariableBase@@U?$less@PAVFAutoVariableBase@@@std@@V?$allocator@PAVFAutoVariableBase@@@3@$0A@@std@@@std@@@std@@YAPAU_Node@?$_Tree_nod@V?$_Tset_traits@PAVFAutoVariableBase@@U?$less@PAVFAutoVariableBase@@@std@@V?$allocator@PAVFAutoVariableBase@@@3@$0A@@std@@@0@IPAU120@@Z PROC ; std::_Allocate<std::_Tree_nod<std::_Tset_traits<FAutoVariableBase *,std::less<FAutoVariableBase *>,std::allocator<FAutoVariableBase *>,0> >::_Node>, COMDAT

; 37   : 	if (_Count <= 0)

	mov	ecx, DWORD PTR __Count$[esp-4]
	sub	esp, 12					; 0000000cH
	test	ecx, ecx
	ja	SHORT $LN3@Allocate@3

; 38   : 		_Count = 0;

	xor	ecx, ecx
$LN1@Allocate@3:

; 41   : 
; 42   : 		// allocate storage for _Count elements of type _Ty
; 43   : 	return ((_Ty _FARQ *)::operator new(_Count * sizeof (_Ty)));

	lea	edx, DWORD PTR [ecx+ecx*4]
	add	edx, edx
	add	edx, edx
	push	edx
	call	??2@YAPAXI@Z				; operator new
	add	esp, 4

; 44   : 	}

	add	esp, 12					; 0000000cH
	ret	0
$LN3@Allocate@3:

; 39   : 	else if (((_SIZT)(-1) / _Count) < sizeof (_Ty))

	or	eax, -1
	xor	edx, edx
	div	ecx
	cmp	eax, 20					; 00000014H
	jae	SHORT $LN1@Allocate@3

; 40   : 		_THROW_NCEE(std::bad_alloc, NULL);

	lea	eax, DWORD PTR $T231801[esp+8]
	push	eax
	lea	ecx, DWORD PTR $T231797[esp+16]
	mov	DWORD PTR $T231801[esp+12], 0
	call	DWORD PTR __imp_??0exception@std@@QAE@ABQBD@Z
	push	OFFSET __TI2?AVbad_alloc@std@@
	lea	ecx, DWORD PTR $T231797[esp+16]
	push	ecx
	mov	DWORD PTR $T231797[esp+20], OFFSET ??_7bad_alloc@std@@6B@
	call	__CxxThrowException@8
$LN9@Allocate@3:
$LN8@Allocate@3:
	int	3
??$_Allocate@U_Node@?$_Tree_nod@V?$_Tset_traits@PAVFAutoVariableBase@@U?$less@PAVFAutoVariableBase@@@std@@V?$allocator@PAVFAutoVariableBase@@@3@$0A@@std@@@std@@@std@@YAPAU_Node@?$_Tree_nod@V?$_Tset_traits@PAVFAutoVariableBase@@U?$less@PAVFAutoVariableBase@@@std@@V?$allocator@PAVFAutoVariableBase@@@3@$0A@@std@@@0@IPAU120@@Z ENDP ; std::_Allocate<std::_Tree_nod<std::_Tset_traits<FAutoVariableBase *,std::less<FAutoVariableBase *>,std::allocator<FAutoVariableBase *>,0> >::_Node>
; Function compile flags: /Ogtpy
_TEXT	ENDS
;	COMDAT ??0bad_alloc@std@@QAE@ABV01@@Z
_TEXT	SEGMENT
___that$ = 8						; size = 4
??0bad_alloc@std@@QAE@ABV01@@Z PROC			; std::bad_alloc::bad_alloc, COMDAT
; _this$ = ecx
	mov	eax, DWORD PTR ___that$[esp-4]
	push	esi
	push	eax
	mov	esi, ecx
	call	DWORD PTR __imp_??0exception@std@@QAE@ABV01@@Z
	mov	DWORD PTR [esi], OFFSET ??_7bad_alloc@std@@6B@
	mov	eax, esi
	pop	esi
	ret	4
??0bad_alloc@std@@QAE@ABV01@@Z ENDP			; std::bad_alloc::bad_alloc
_TEXT	ENDS
PUBLIC	??0?$_Vector_const_iterator@HV?$allocator@H@std@@@std@@QAE@PAH@Z ; std::_Vector_const_iterator<int,std::allocator<int> >::_Vector_const_iterator<int,std::allocator<int> >
; Function compile flags: /Ogtpy
; File c:\program files (x86)\microsoft visual studio 9.0\vc\include\vector
;	COMDAT ??0?$_Vector_const_iterator@HV?$allocator@H@std@@@std@@QAE@PAH@Z
_TEXT	SEGMENT
__Ptr$ = 8						; size = 4
??0?$_Vector_const_iterator@HV?$allocator@H@std@@@std@@QAE@PAH@Z PROC ; std::_Vector_const_iterator<int,std::allocator<int> >::_Vector_const_iterator<int,std::allocator<int> >, COMDAT
; _this$ = ecx

; 84   : 	explicit _Vector_const_iterator(_Tptr _Ptr)

	mov	eax, ecx

; 85   : 		{	// construct with pointer _Ptr
; 86   : 		_Myptr = _Ptr;

	mov	ecx, DWORD PTR __Ptr$[esp-4]
	mov	DWORD PTR [eax], ecx

; 87   : 		}

	ret	4
??0?$_Vector_const_iterator@HV?$allocator@H@std@@@std@@QAE@PAH@Z ENDP ; std::_Vector_const_iterator<int,std::allocator<int> >::_Vector_const_iterator<int,std::allocator<int> >
_TEXT	ENDS
PUBLIC	??8?$_Vector_const_iterator@HV?$allocator@H@std@@@std@@QBE_NABV01@@Z ; std::_Vector_const_iterator<int,std::allocator<int> >::operator==
; Function compile flags: /Ogtpy
;	COMDAT ??8?$_Vector_const_iterator@HV?$allocator@H@std@@@std@@QBE_NABV01@@Z
_TEXT	SEGMENT
__Right$ = 8						; size = 4
??8?$_Vector_const_iterator@HV?$allocator@H@std@@@std@@QBE_NABV01@@Z PROC ; std::_Vector_const_iterator<int,std::allocator<int> >::operator==, COMDAT
