; Listing generated by Microsoft (R) Optimizing Compiler Version 15.00.30729.01 

	TITLE	c:\Users\EnormousApplePie\Documents\GitHub\Lekmod\LEKMOD_DLL\CvGameCoreDLL_Expansion2\CvBuilderTaskingAI.cpp
	.686P
	.XMM
	include listing.inc
	.model	flat

INCLUDELIB MSVCRT
INCLUDELIB OLDNAMES

CONST	SEGMENT
$SG218239 DB	'// Empire Unhappy! //', 00H
	ORG $+2
$SG218246 DB	'// ', 00H
$SG218249 DB	' \\', 00H
$SG218261 DB	'food       ', 00H
$SG218263 DB	'production ', 00H
$SG218265 DB	'science    ', 00H
$SG218267 DB	'gold       ', 00H
$SG218269 DB	'culture    ', 00H
$SG218271 DB	'faith      ', 00H
$SG218275 DB	'%d, %d', 00H
	ORG $+1
$SG218277 DB	' *', 00H
	ORG $+1
$SG218279 DB	'\\ end ', 00H
$SG218280 DB	' //', 00H
$SG218464 DB	'end of plot list', 00H
	ORG $+3
$SG218472 DB	'unitx: %d unity: %d, plotx: %d ploty: %d, can''t find pa'
	DB	'th', 00H
	ORG $+2
$SG218488 DB	'unitx: %d unity: %d, plotx: %d ploty: %d, Evaluating out'
	DB	' of territory plot, can''t find path', 00H
$SG218492 DB	'x: %d y: %d, Evaluating out of territory plot', 00H
	ORG $+2
$SG218571 DB	'Helps rush, %d', 00H
	ORG $+1
$SG218577 DB	'%d, Build Time Weight, %d, Weight, %d', 00H
	ORG $+6
$SG218614 DB	'Weight,!pImprovement->IsImprovementResourceTrade(eResour'
	DB	'ce),%s,%i,,,%i, %i', 00H
	ORG $+5
$SG218621 DB	'Weight,eImprovement == pPlot->getImprovementType(),%s,%i'
	DB	',,,%i, %i', 00H
	ORG $+6
$SG218629 DB	'Weight,Improvement Type Blocked by Special Improvement,%'
	DB	's,,,,%i, %i', 00H
$SG218634 DB	'Weight,!pUnit->canBuild(),%s,,,,%i, %i', 00H
	ORG $+1
$SG218645 DB	'Weight,Marsh Remove,%s,,,,%i, %i', 00H
	ORG $+3
$SG218651 DB	'Weight,Jungle Remove,%s,,,,%i, %i', 00H
	ORG $+2
$SG218659 DB	'Weight,Keep Forests,%s,,,,%i, %i', 00H
	ORG $+3
$SG218665 DB	'Weight,Negative Score,%s,%i,,,%i, %i', 00H
	ORG $+3
$SG218679 DB	'Weight,Directive Score Added,%s,,,,%i, %i, %i, %d', 00H
	ORG $+2
$SG218718 DB	'AddRouteDirectives, adding, x: %d y: %d, Weight, %d', 00H
$SG218777 DB	'FLAVOR_GROWTH', 00H
	ORG $+2
$SG218782 DB	'FLAVOR_PRODUCTION', 00H
	ORG $+2
$SG218787 DB	'FLAVOR_GOLD', 00H
$SG218792 DB	'FLAVOR_SCIENCE', 00H
	ORG $+1
$SG218797 DB	'FLAVOR_CULTURE', 00H
	ORG $+1
$SG218810 DB	'BuildTimeWeight, %d, Weight, %d', 00H
$SG218815 DB	'Add chop directives, Weight is zero!', 00H
	ORG $+3
$SG218865 DB	'x: %d y: %d,,Impassable tile. Toss out', 00H
	ORG $+1
$SG218887 DB	'unitx: %d unity: %d, plotx: %d ploty: %d, plot area: %d,'
	DB	' unit area: %d,,Plot areas don''t match and can''t embark', 00H
$SG218889 DB	',This is weird', 00H
	ORG $+1
$SG218891 DB	',This is normal', 00H
$SG218897 DB	'x: %d y: %d,,Somebody has a mission here, ', 00H
	ORG $+1
$SG218903 DB	'plotX: %d plotY: %d, danger: %d,, bailing due to danger', 00H
$SG219140 DB	',', 00H
	ORG $+2
$SG218908 DB	'plotX: %d plotY: %d,, this tile is full with another uni'
	DB	't. bailing!', 00H
$SG219135 DB	'BuilderTaskingLog.csv', 00H
	ORG $+2
$SG219141 DB	'%d,', 00H
$SG219149 DB	'BuilderTaskingYieldLog.csv', 00H
	ORG $+1
$SG219154 DB	',', 00H
	ORG $+2
$SG219155 DB	'%d,', 00H
$SG219170 DB	'Flavor, %s, %d,', 00H
$SG219173 DB	'Flavor, %s, %d,', 00H
$SG219188 DB	'%d,', 00H
$SG219189 DB	'No directives!', 00H
	ORG $+1
$SG219201 DB	'%d,', 00H
$SG219202 DB	'Evaluating,', 00H
$SG219208 DB	'BUILD_IMPROVEMENT_ON_RESOURCE,', 00H
	ORG $+1
$SG219210 DB	'BUILD_IMPROVEMENT,', 00H
	ORG $+1
$SG219212 DB	'REPAIR,', 00H
$SG219214 DB	'BUILD_ROUTE,', 00H
	ORG $+3
$SG219216 DB	'CHOP', 00H
	ORG $+3
$SG219217 DB	',', 00H
	ORG $+2
$SG219221 DB	',', 00H
	ORG $+2
$SG219223 DB	',', 00H
	ORG $+2
$SG219225 DB	',', 00H
	ORG $+2
$SG219241 DB	',', 00H
	ORG $+2
$SG219242 DB	'%d,%d,', 00H
	ORG $+1
$SG219243 DB	'%d,', 00H
$SG219244 DB	'%d,', 00H
$SG219246 DB	', Chosen!', 00H
	ORG $+2
$SG219266 DB	'Plot Yield Update, %s, %i, %i, %i', 00H
	ORG $+2
$SG219285 DB	'Plot Projected Yield Update, %s, %i, %i, %i', 00H
CONST	ENDS
PUBLIC	?wrapCoordDifference@@YAHHI_N@Z			; wrapCoordDifference
; Function compile flags: /Ogtpy
; File c:\users\enormousapplepie\documents\github\lekmod\lekmod_dll\cvgamecoredll_expansion2\cvgamecoreutils.h
;	COMDAT ?wrapCoordDifference@@YAHHI_N@Z
_TEXT	SEGMENT
_iDiff$ = 8						; size = 4
_uiRange$ = 12						; size = 4
_bWrap$ = 16						; size = 1
?wrapCoordDifference@@YAHHI_N@Z PROC			; wrapCoordDifference, COMDAT

; 57   : 	if(bWrap)

	cmp	BYTE PTR _bWrap$[esp-4], 0
	mov	eax, DWORD PTR _iDiff$[esp-4]
	je	SHORT $LN5@wrapCoordD

; 58   : 	{
; 59   : 		if(iDiff > (int)(uiRange >> 1))		// Using an unsigned int so we can safely assume that value >> 1 == value / 2

	mov	edx, DWORD PTR _uiRange$[esp-4]
	mov	ecx, edx
	shr	ecx, 1
	cmp	eax, ecx
	jle	SHORT $LN3@wrapCoordD

; 60   : 		{
; 61   : 			return (iDiff - (int)uiRange);

	sub	eax, edx

; 66   : 		}
; 67   : 	}
; 68   : 
; 69   : 	return iDiff;
; 70   : }

	ret	0
$LN3@wrapCoordD:

; 62   : 		}
; 63   : 		else if(iDiff < -(int)(uiRange >> 1))

	neg	ecx
	cmp	eax, ecx
	jge	SHORT $LN5@wrapCoordD

; 64   : 		{
; 65   : 			return (iDiff + (int)uiRange);

	add	eax, edx
$LN5@wrapCoordD:

; 66   : 		}
; 67   : 	}
; 68   : 
; 69   : 	return iDiff;
; 70   : }

	ret	0
?wrapCoordDifference@@YAHHI_N@Z ENDP			; wrapCoordDifference
_TEXT	ENDS
PUBLIC	?xToHexspaceX@@YAHHH@Z				; xToHexspaceX
; Function compile flags: /Ogtpy
;	COMDAT ?xToHexspaceX@@YAHHH@Z
_TEXT	SEGMENT
_iX$ = 8						; size = 4
_iY$ = 12						; size = 4
?xToHexspaceX@@YAHHH@Z PROC				; xToHexspaceX, COMDAT

; 86   : 	return iX - ((iY >= 0) ? (iY>>1) : ((iY - 1)/2));

	mov	ecx, DWORD PTR _iY$[esp-4]
	test	ecx, ecx
	jge	SHORT $LN5@xToHexspac
	lea	eax, DWORD PTR [ecx-1]
	cdq
	sub	eax, edx
	mov	ecx, eax
$LN5@xToHexspac:
	mov	eax, DWORD PTR _iX$[esp-4]
	sar	ecx, 1
	sub	eax, ecx

; 87   : }

	ret	0
?xToHexspaceX@@YAHHH@Z ENDP				; xToHexspaceX
_TEXT	ENDS
PUBLIC	?Uninit@CvBuilderTaskingAI@@QAEXXZ		; CvBuilderTaskingAI::Uninit
; Function compile flags: /Ogtpy
; File c:\users\enormousapplepie\documents\github\lekmod\lekmod_dll\cvgamecoredll_expansion2\cvbuildertaskingai.cpp
;	COMDAT ?Uninit@CvBuilderTaskingAI@@QAEXXZ
_TEXT	SEGMENT
?Uninit@CvBuilderTaskingAI@@QAEXXZ PROC			; CvBuilderTaskingAI::Uninit, COMDAT
; _this$ = ecx

; 107  : 	m_eRepairBuild = NO_BUILD;
; 108  : 	m_pPlayer = NULL;

	xor	eax, eax
	or	edx, -1
	mov	DWORD PTR [ecx+4], edx
	mov	DWORD PTR [ecx], eax

; 109  : 	m_bLogging = false;

	mov	BYTE PTR [ecx+58392], al

; 110  : 	m_iNumCities = -1;

	mov	DWORD PTR [ecx+58396], edx

; 111  : 	m_pTargetPlot = NULL;

	mov	DWORD PTR [ecx+58400], eax

; 112  : #ifdef AUI_WARNING_FIXES
; 113  : 	m_eFalloutFeature = NO_FEATURE;
; 114  : 	m_eFalloutRemove = NO_BUILD;
; 115  : #ifndef AUI_WORKER_UNHARDCODE_NO_REMOVE_FEATURE_THAT_IS_REQUIRED_FOR_UNIQUE_IMPROVEMENT
; 116  : 	m_bKeepJungle = false;
; 117  : 	m_bKeepMarshes = false;
; 118  : #endif
; 119  : #endif
; 120  : }

	ret	0
?Uninit@CvBuilderTaskingAI@@QAEXXZ ENDP			; CvBuilderTaskingAI::Uninit
_TEXT	ENDS
PUBLIC	??_7bad_alloc@std@@6B@				; std::bad_alloc::`vftable'
PUBLIC	??0bad_alloc@std@@QAE@PBD@Z			; std::bad_alloc::bad_alloc
PUBLIC	??_R4bad_alloc@std@@6B@				; std::bad_alloc::`RTTI Complete Object Locator'
PUBLIC	??_R0?AVbad_alloc@std@@@8			; std::bad_alloc `RTTI Type Descriptor'
PUBLIC	??_R3bad_alloc@std@@8				; std::bad_alloc::`RTTI Class Hierarchy Descriptor'
PUBLIC	??_R2bad_alloc@std@@8				; std::bad_alloc::`RTTI Base Class Array'
PUBLIC	??_R1A@?0A@EA@bad_alloc@std@@8			; std::bad_alloc::`RTTI Base Class Descriptor at (0,-1,0,64)'
PUBLIC	??_R1A@?0A@EA@exception@std@@8			; std::exception::`RTTI Base Class Descriptor at (0,-1,0,64)'
PUBLIC	??_R0?AVexception@std@@@8			; std::exception `RTTI Type Descriptor'
PUBLIC	??_R3exception@std@@8				; std::exception::`RTTI Class Hierarchy Descriptor'
PUBLIC	??_R2exception@std@@8				; std::exception::`RTTI Base Class Array'
EXTRN	__imp_??0exception@std@@QAE@ABQBD@Z:PROC
EXTRN	??_7type_info@@6B@:QWORD			; type_info::`vftable'
EXTRN	??_Ebad_alloc@std@@UAEPAXI@Z:PROC		; std::bad_alloc::`vector deleting destructor'
EXTRN	?what@exception@std@@UBEPBDXZ:PROC		; std::exception::what
;	COMDAT ??_R2exception@std@@8
; File c:\program files (x86)\microsoft visual studio 9.0\vc\include\exception
rdata$r	SEGMENT
??_R2exception@std@@8 DD FLAT:??_R1A@?0A@EA@exception@std@@8 ; std::exception::`RTTI Base Class Array'
rdata$r	ENDS
;	COMDAT ??_R3exception@std@@8
rdata$r	SEGMENT
??_R3exception@std@@8 DD 00H				; std::exception::`RTTI Class Hierarchy Descriptor'
	DD	00H
	DD	01H
	DD	FLAT:??_R2exception@std@@8
rdata$r	ENDS
;	COMDAT ??_R0?AVexception@std@@@8
_DATA	SEGMENT
??_R0?AVexception@std@@@8 DD FLAT:??_7type_info@@6B@	; std::exception `RTTI Type Descriptor'
	DD	00H
	DB	'.?AVexception@std@@', 00H
_DATA	ENDS
;	COMDAT ??_R1A@?0A@EA@exception@std@@8
rdata$r	SEGMENT
??_R1A@?0A@EA@exception@std@@8 DD FLAT:??_R0?AVexception@std@@@8 ; std::exception::`RTTI Base Class Descriptor at (0,-1,0,64)'
	DD	00H
	DD	00H
	DD	0ffffffffH
	DD	00H
	DD	040H
	DD	FLAT:??_R3exception@std@@8
rdata$r	ENDS
;	COMDAT ??_R1A@?0A@EA@bad_alloc@std@@8
rdata$r	SEGMENT
??_R1A@?0A@EA@bad_alloc@std@@8 DD FLAT:??_R0?AVbad_alloc@std@@@8 ; std::bad_alloc::`RTTI Base Class Descriptor at (0,-1,0,64)'
	DD	01H
	DD	00H
	DD	0ffffffffH
	DD	00H
	DD	040H
	DD	FLAT:??_R3bad_alloc@std@@8
rdata$r	ENDS
;	COMDAT ??_R2bad_alloc@std@@8
rdata$r	SEGMENT
??_R2bad_alloc@std@@8 DD FLAT:??_R1A@?0A@EA@bad_alloc@std@@8 ; std::bad_alloc::`RTTI Base Class Array'
	DD	FLAT:??_R1A@?0A@EA@exception@std@@8
rdata$r	ENDS
;	COMDAT ??_R3bad_alloc@std@@8
rdata$r	SEGMENT
??_R3bad_alloc@std@@8 DD 00H				; std::bad_alloc::`RTTI Class Hierarchy Descriptor'
	DD	00H
	DD	02H
	DD	FLAT:??_R2bad_alloc@std@@8
rdata$r	ENDS
;	COMDAT ??_R0?AVbad_alloc@std@@@8
_DATA	SEGMENT
??_R0?AVbad_alloc@std@@@8 DD FLAT:??_7type_info@@6B@	; std::bad_alloc `RTTI Type Descriptor'
	DD	00H
	DB	'.?AVbad_alloc@std@@', 00H
_DATA	ENDS
;	COMDAT ??_R4bad_alloc@std@@6B@
rdata$r	SEGMENT
??_R4bad_alloc@std@@6B@ DD 00H				; std::bad_alloc::`RTTI Complete Object Locator'
	DD	00H
	DD	00H
	DD	FLAT:??_R0?AVbad_alloc@std@@@8
	DD	FLAT:??_R3bad_alloc@std@@8
rdata$r	ENDS
;	COMDAT ??_7bad_alloc@std@@6B@
CONST	SEGMENT
??_7bad_alloc@std@@6B@ DD FLAT:??_R4bad_alloc@std@@6B@	; std::bad_alloc::`vftable'
	DD	FLAT:??_Ebad_alloc@std@@UAEPAXI@Z
	DD	FLAT:?what@exception@std@@UBEPBDXZ
; Function compile flags: /Ogtpy
CONST	ENDS
;	COMDAT ??0bad_alloc@std@@QAE@PBD@Z
_TEXT	SEGMENT
__Message$ = 8						; size = 4
??0bad_alloc@std@@QAE@PBD@Z PROC			; std::bad_alloc::bad_alloc, COMDAT
; _this$ = ecx

; 371  : 		{	// construct from message string

	push	esi
	lea	eax, DWORD PTR __Message$[esp]
	push	eax
	mov	esi, ecx
	call	DWORD PTR __imp_??0exception@std@@QAE@ABQBD@Z
	mov	DWORD PTR [esi], OFFSET ??_7bad_alloc@std@@6B@

; 372  : 		}

	mov	eax, esi
	pop	esi
	ret	4
??0bad_alloc@std@@QAE@PBD@Z ENDP			; std::bad_alloc::bad_alloc
_TEXT	ENDS
PUBLIC	??1bad_alloc@std@@UAE@XZ			; std::bad_alloc::~bad_alloc
EXTRN	__imp_??1exception@std@@UAE@XZ:PROC
; Function compile flags: /Ogtpy
;	COMDAT ??1bad_alloc@std@@UAE@XZ
_TEXT	SEGMENT
??1bad_alloc@std@@UAE@XZ PROC				; std::bad_alloc::~bad_alloc, COMDAT
; _this$ = ecx

; 380  : 		{	// destroy the object

	mov	DWORD PTR [ecx], OFFSET ??_7bad_alloc@std@@6B@

; 381  : 		}

	jmp	DWORD PTR __imp_??1exception@std@@UAE@XZ
??1bad_alloc@std@@UAE@XZ ENDP				; std::bad_alloc::~bad_alloc
_TEXT	ENDS
EXTRN	??3@YAXPAX@Z:PROC				; operator delete
; Function compile flags: /Ogtpy
;	COMDAT ??_Gbad_alloc@std@@UAEPAXI@Z
_TEXT	SEGMENT
___flags$ = 8						; size = 4
??_Gbad_alloc@std@@UAEPAXI@Z PROC			; std::bad_alloc::`scalar deleting destructor', COMDAT
; _this$ = ecx
	push	esi
	mov	esi, ecx
	mov	DWORD PTR [esi], OFFSET ??_7bad_alloc@std@@6B@
	call	DWORD PTR __imp_??1exception@std@@UAE@XZ
	test	BYTE PTR ___flags$[esp], 1
	je	SHORT $LN6@scalar
	push	esi
	call	??3@YAXPAX@Z				; operator delete
	add	esp, 4
$LN6@scalar:
	mov	eax, esi
	pop	esi
	ret	4
??_Gbad_alloc@std@@UAEPAXI@Z ENDP			; std::bad_alloc::`scalar deleting destructor'
_TEXT	ENDS
PUBLIC	??2@YAPAXIPAX@Z					; operator new
; Function compile flags: /Ogtpy
; File c:\program files (x86)\microsoft visual studio 9.0\vc\include\new
;	COMDAT ??2@YAPAXIPAX@Z
_TEXT	SEGMENT
___formal$ = 8						; size = 4
__Where$ = 12						; size = 4
??2@YAPAXIPAX@Z PROC					; operator new, COMDAT

; 59   : 	return (_Where);

	mov	eax, DWORD PTR __Where$[esp-4]

; 60   : 	}

	ret	0
??2@YAPAXIPAX@Z ENDP					; operator new
_TEXT	ENDS
PUBLIC	??3@YAXPAX0@Z					; operator delete
; Function compile flags: /Ogtpy
;	COMDAT ??3@YAXPAX0@Z
_TEXT	SEGMENT
___formal$ = 8						; size = 4
___formal$ = 12						; size = 4
??3@YAXPAX0@Z PROC					; operator delete, COMDAT

; 64   : 	}

	ret	0
??3@YAXPAX0@Z ENDP					; operator delete
_TEXT	ENDS
PUBLIC	?CorrectWeight@@YAHH@Z				; CorrectWeight
; Function compile flags: /Ogtpy
; File c:\users\enormousapplepie\documents\github\lekmod\lekmod_dll\cvgamecoredll_expansion2\cvbuildertaskingai.cpp
;	COMDAT ?CorrectWeight@@YAHH@Z
_TEXT	SEGMENT
_iWeight$ = 8						; size = 4
?CorrectWeight@@YAHH@Z PROC				; CorrectWeight, COMDAT

; 729  : 	if(iWeight < -1000)

	mov	eax, DWORD PTR _iWeight$[esp-4]
	cmp	eax, -1000				; fffffc18H
	jge	SHORT $LN1@CorrectWei

; 730  : 	{
; 731  : 		return MAX_INT;

	mov	eax, 2147483647				; 7fffffffH
$LN1@CorrectWei:

; 732  : 	}
; 733  : 	else
; 734  : 	{
; 735  : 		return iWeight;
; 736  : 	}
; 737  : }

	ret	0
?CorrectWeight@@YAHH@Z ENDP				; CorrectWeight
_TEXT	ENDS
PUBLIC	?GetBuildCostWeight@CvBuilderTaskingAI@@QAEHHPAVCvPlot@@W4BuildTypes@@@Z ; CvBuilderTaskingAI::GetBuildCostWeight
EXTRN	?getBuildCost@CvPlayer@@QBEHPBVCvPlot@@W4BuildTypes@@@Z:PROC ; CvPlayer::getBuildCost
; Function compile flags: /Ogtpy
;	COMDAT ?GetBuildCostWeight@CvBuilderTaskingAI@@QAEHHPAVCvPlot@@W4BuildTypes@@@Z
_TEXT	SEGMENT
_iWeight$ = 8						; size = 4
_pPlot$ = 12						; size = 4
_eBuild$ = 16						; size = 4
?GetBuildCostWeight@CvBuilderTaskingAI@@QAEHHPAVCvPlot@@W4BuildTypes@@@Z PROC ; CvBuilderTaskingAI::GetBuildCostWeight, COMDAT
; _this$ = ecx

; 2614 : 	int iBuildCost = m_pPlayer->getBuildCost(pPlot, eBuild);

	mov	eax, DWORD PTR _eBuild$[esp-4]
	mov	edx, DWORD PTR _pPlot$[esp-4]
	mov	ecx, DWORD PTR [ecx]
	push	eax
	push	edx
	call	?getBuildCost@CvPlayer@@QBEHPBVCvPlot@@W4BuildTypes@@@Z ; CvPlayer::getBuildCost
	mov	ecx, eax

; 2615 : 	if(iBuildCost > 0)
; 2616 : 	{
; 2617 : 		iWeight = (iWeight * 100) / iBuildCost;

	mov	eax, DWORD PTR _iWeight$[esp-4]
	imul	eax, 100				; 00000064H
	test	ecx, ecx
	jle	SHORT $LN1@GetBuildCo
	cdq
	idiv	ecx
$LN1@GetBuildCo:

; 2618 : 	}
; 2619 : 	else
; 2620 : 	{
; 2621 : 		//if (m_bLogging)
; 2622 : 		//{
; 2623 : 		//	LogInfo("Build cost is zero", m_pPlayer);
; 2624 : 		//}
; 2625 : 		iWeight = (iWeight * 100);
; 2626 : 	}
; 2627 : 	return iWeight;
; 2628 : }

	ret	12					; 0000000cH
?GetBuildCostWeight@CvBuilderTaskingAI@@QAEHHPAVCvPlot@@W4BuildTypes@@@Z ENDP ; CvBuilderTaskingAI::GetBuildCostWeight
_TEXT	ENDS
PUBLIC	?GetWorkingCity@CvBuilderTaskingAI@@QAEPAVCvCity@@PAVCvPlot@@@Z ; CvBuilderTaskingAI::GetWorkingCity
EXTRN	?nextCity@CvPlayer@@QAEPAVCvCity@@PAH_N@Z:PROC	; CvPlayer::nextCity
EXTRN	?IsCanWork@CvCityCitizens@@QBE_NPAVCvPlot@@@Z:PROC ; CvCityCitizens::IsCanWork
EXTRN	?GetCityCitizens@CvCity@@QBEPAVCvCityCitizens@@XZ:PROC ; CvCity::GetCityCitizens
EXTRN	?firstCity@CvPlayer@@QAEPAVCvCity@@PAH_N@Z:PROC	; CvPlayer::firstCity
EXTRN	?getWorkingCity@CvPlot@@QBEPAVCvCity@@XZ:PROC	; CvPlot::getWorkingCity
; Function compile flags: /Ogtpy
;	COMDAT ?GetWorkingCity@CvBuilderTaskingAI@@QAEPAVCvCity@@PAVCvPlot@@@Z
_TEXT	SEGMENT
_iLoop$219032 = 8					; size = 4
_pPlot$ = 8						; size = 4
?GetWorkingCity@CvBuilderTaskingAI@@QAEPAVCvCity@@PAVCvPlot@@@Z PROC ; CvBuilderTaskingAI::GetWorkingCity, COMDAT
; _this$ = ecx

; 2880 : {

	push	ebx

; 2881 : #ifdef AUI_WARNING_FIXES
; 2882 : 	CvCity* pCity = pPlot->getWorkingCity();
; 2883 : 	if (!pCity)
; 2884 : #else
; 2885 : 	CvCity* pCity = NULL;
; 2886 : 	if(pPlot->getWorkingCity())

	mov	ebx, DWORD PTR _pPlot$[esp]
	push	ebp
	push	edi
	mov	edi, ecx
	mov	ecx, ebx
	xor	ebp, ebp
	call	?getWorkingCity@CvPlot@@QBEPAVCvCity@@XZ ; CvPlot::getWorkingCity
	test	eax, eax
	je	SHORT $LN6@GetWorking

; 2887 : 	{
; 2888 : 		pCity = pPlot->getWorkingCity();

	mov	ecx, ebx
	call	?getWorkingCity@CvPlot@@QBEPAVCvCity@@XZ ; CvPlot::getWorkingCity
	pop	edi
	pop	ebp
	pop	ebx

; 2910 : }

	ret	4
$LN6@GetWorking:

; 2889 : 	}
; 2890 : 	else
; 2891 : #endif
; 2892 : 	{
; 2893 : 		CvCity* pLoopCity;
; 2894 : 		int iLoop;
; 2895 : 		for(pLoopCity = m_pPlayer->firstCity(&iLoop); pLoopCity != NULL; pLoopCity = m_pPlayer->nextCity(&iLoop))

	mov	ecx, DWORD PTR [edi]
	push	esi
	push	0
	lea	eax, DWORD PTR _iLoop$219032[esp+16]
	push	eax
	call	?firstCity@CvPlayer@@QAEPAVCvCity@@PAH_N@Z ; CvPlayer::firstCity
	mov	esi, eax
	test	esi, esi
	je	SHORT $LN12@GetWorking
$LL4@GetWorking:

; 2896 : 		{
; 2897 : 			if(pLoopCity->GetCityCitizens()->IsCanWork(pPlot))

	push	ebx
	mov	ecx, esi
	call	?GetCityCitizens@CvCity@@QBEPAVCvCityCitizens@@XZ ; CvCity::GetCityCitizens
	mov	ecx, eax
	call	?IsCanWork@CvCityCitizens@@QBE_NPAVCvPlot@@@Z ; CvCityCitizens::IsCanWork
	test	al, al
	jne	SHORT $LN10@GetWorking
	push	0
	lea	ecx, DWORD PTR _iLoop$219032[esp+16]
	push	ecx
	mov	ecx, DWORD PTR [edi]
	call	?nextCity@CvPlayer@@QAEPAVCvCity@@PAH_N@Z ; CvPlayer::nextCity
	mov	esi, eax
	test	esi, esi
	jne	SHORT $LL4@GetWorking
$LN12@GetWorking:
	pop	esi
	pop	edi

; 2898 : 			{
; 2899 : #ifdef AUI_WARNING_FIXES
; 2900 : 				return pLoopCity;
; 2901 : #else
; 2902 : 				pCity = pLoopCity;
; 2903 : 				break;
; 2904 : #endif
; 2905 : 			}
; 2906 : 		}
; 2907 : 	}
; 2908 : 
; 2909 : 	return pCity;

	mov	eax, ebp
	pop	ebp
	pop	ebx

; 2910 : }

	ret	4
$LN10@GetWorking:

; 2898 : 			{
; 2899 : #ifdef AUI_WARNING_FIXES
; 2900 : 				return pLoopCity;
; 2901 : #else
; 2902 : 				pCity = pLoopCity;
; 2903 : 				break;
; 2904 : #endif
; 2905 : 			}
; 2906 : 		}
; 2907 : 	}
; 2908 : 
; 2909 : 	return pCity;

	mov	eax, esi
	pop	esi
	pop	edi
	pop	ebp
	pop	ebx

; 2910 : }

	ret	4
?GetWorkingCity@CvBuilderTaskingAI@@QAEPAVCvCity@@PAVCvPlot@@@Z ENDP ; CvBuilderTaskingAI::GetWorkingCity
_TEXT	ENDS
PUBLIC	?ScorePlot@CvBuilderTaskingAI@@QAEHXZ		; CvBuilderTaskingAI::ScorePlot
EXTRN	?IsOriginalCapital@CvCity@@QBE_NXZ:PROC		; CvCity::IsOriginalCapital
EXTRN	?isCapital@CvCity@@QBE_NXZ:PROC			; CvCity::isCapital
EXTRN	?GetYieldDeltaTimes100@CvCityStrategyAI@@QAEFW4YieldTypes@@@Z:PROC ; CvCityStrategyAI::GetYieldDeltaTimes100
EXTRN	?GetFocusYield@CvCityStrategyAI@@QAE?AW4YieldTypes@@XZ:PROC ; CvCityStrategyAI::GetFocusYield
EXTRN	?GetCityStrategyAI@CvCity@@QBEPAVCvCityStrategyAI@@XZ:PROC ; CvCity::GetCityStrategyAI
; Function compile flags: /Ogtpy
;	COMDAT ?ScorePlot@CvBuilderTaskingAI@@QAEHXZ
_TEXT	SEGMENT
_bAnyNegativeMultiplier$ = -21				; size = 1
_iScore$ = -20						; size = 4
_pCityStrategy$ = -16					; size = 4
_eFocusYield$ = -12					; size = 4
_this$ = -8						; size = 4
_pCity$ = -4						; size = 4
?ScorePlot@CvBuilderTaskingAI@@QAEHXZ PROC		; CvBuilderTaskingAI::ScorePlot, COMDAT
; _this$ = ecx

; 2950 : {

	sub	esp, 24					; 00000018H
	push	ebx
	push	ebp
	mov	ebp, ecx

; 2951 : 	if(!m_pTargetPlot)

	mov	ecx, DWORD PTR [ebp+58400]
	xor	ebx, ebx
	mov	DWORD PTR _this$[esp+32], ebp
	cmp	ecx, ebx
	jne	SHORT $LN19@ScorePlot
$LN29@ScorePlot:
	pop	ebp

; 2952 : 	{
; 2953 : 		return -1;

	or	eax, -1
	pop	ebx

; 3082 : }

	add	esp, 24					; 00000018H
	ret	0
$LN19@ScorePlot:

; 2954 : 	}
; 2955 : 
; 2956 : 	CvCity* pCity = m_pTargetPlot->getWorkingCity();

	call	?getWorkingCity@CvPlot@@QBEPAVCvCity@@XZ ; CvPlot::getWorkingCity
	mov	DWORD PTR _pCity$[esp+32], eax

; 2957 : #ifdef AUI_WORKER_SCORE_PLOT_NO_SCORE_FROM_RAZE
; 2958 : 	if (!pCity || pCity->IsRazing())
; 2959 : #else
; 2960 : 	if(!pCity)

	cmp	eax, ebx

; 2961 : #endif
; 2962 : 	{
; 2963 : 		return -1;

	je	SHORT $LN29@ScorePlot
	push	esi

; 2964 : 	}
; 2965 : 
; 2966 : 	CvCityStrategyAI* pCityStrategy = pCity->GetCityStrategyAI();

	mov	ecx, eax
	call	?GetCityStrategyAI@CvCity@@QBEPAVCvCityStrategyAI@@XZ ; CvCity::GetCityStrategyAI
	mov	esi, eax
	mov	DWORD PTR _pCityStrategy$[esp+36], esi

; 2967 : 	if(!pCityStrategy)

	cmp	esi, ebx
	jne	SHORT $LN17@ScorePlot
	pop	esi
	pop	ebp

; 2968 : 	{
; 2969 : 		return -1;

	or	eax, -1
	pop	ebx

; 3082 : }

	add	esp, 24					; 00000018H
	ret	0
$LN17@ScorePlot:
	push	edi

; 2985 : 	bool bAnyNegativeMultiplier = false;
; 2986 : 	YieldTypes eFocusYield = pCityStrategy->GetFocusYield();

	mov	ecx, esi
	mov	DWORD PTR _iScore$[esp+40], ebx
	mov	BYTE PTR _bAnyNegativeMultiplier$[esp+40], bl
	call	?GetFocusYield@CvCityStrategyAI@@QAE?AW4YieldTypes@@XZ ; CvCityStrategyAI::GetFocusYield
	mov	DWORD PTR _eFocusYield$[esp+40], eax
	add	ebp, 58428				; 0000e43cH
	jmp	SHORT $LN16@ScorePlot
$LL25@ScorePlot:

; 2970 : 	}
; 2971 : 
; 2972 : #ifdef AUI_WORKER_SCORE_PLOT_CHOP
; 2973 : 	CvBuildInfo* pkBuild = GC.getBuildInfo(eBuild);
; 2974 : 	if (!pkBuild)
; 2975 : 	{
; 2976 : 		return -1;
; 2977 : 	}
; 2978 : 	FeatureTypes ePlotFeature = m_pTargetPlot->getFeatureType();
; 2979 : #endif
; 2980 : 
; 2981 : #ifdef AUI_WORKER_SCORE_PLOT_MULTIPLY_SCORE_IF_WOULD_WORK
; 2982 : 	bool bWouldBeWorked = m_pTargetPlot->isBeingWorked();
; 2983 : #endif
; 2984 : 	int iScore = 0;

	mov	esi, DWORD PTR _pCityStrategy$[esp+40]
$LN16@ScorePlot:

; 2987 : 	for(uint ui = 0; ui < NUM_YIELD_TYPES; ui++)
; 2988 : 	{
; 2989 : 		int iMultiplier = pCityStrategy->GetYieldDeltaTimes100((YieldTypes)ui);

	push	ebx
	mov	ecx, esi
	call	?GetYieldDeltaTimes100@CvCityStrategyAI@@QAEFW4YieldTypes@@@Z ; CvCityStrategyAI::GetYieldDeltaTimes100

; 2990 : 		int iAbsMultiplier = abs(iMultiplier);
; 2991 : 		int iYieldDelta = m_aiProjectedPlotYields[ui] - m_aiCurrentPlotYields[ui];

	mov	edi, DWORD PTR [ebp]
	movsx	esi, ax
	mov	eax, esi
	cdq
	xor	eax, edx
	mov	ecx, edi
	sub	ecx, DWORD PTR [ebp-24]
	sub	eax, edx

; 2992 : #ifdef AUI_WORKER_SCORE_PLOT_CHOP
; 2993 : 		double dFlatBonus = 0;
; 2994 : 		if (ePlotFeature != NO_FEATURE && pkBuild->isFeatureRemove(ePlotFeature) && ui == YIELD_PRODUCTION && iYieldDelta >= 0)
; 2995 : 		{
; 2996 : 			dFlatBonus = AUI_WORKER_SCORE_PLOT_CHOP;
; 2997 : 		}
; 2998 : #endif
; 2999 : 
; 3000 : 		// the multiplier being lower than zero means that we need more of this resource
; 3001 : 		if(iMultiplier < 0)

	test	esi, esi
	jge	SHORT $LN13@ScorePlot

; 3002 : 		{
; 3003 : 			bAnyNegativeMultiplier = true;

	mov	BYTE PTR _bAnyNegativeMultiplier$[esp+40], 1

; 3004 : 			if(iYieldDelta > 0)  // this would be an improvement to the yield

	test	ecx, ecx
	jle	SHORT $LN28@ScorePlot

; 3005 : 			{
; 3006 : #ifdef AUI_WORKER_SCORE_PLOT_CHOP
; 3007 : 				iScore += int((m_aiProjectedPlotYields[ui] + dFlatBonus) * iAbsMultiplier + 0.5);
; 3008 : 			}
; 3009 : 			else if (iYieldDelta < 0)  // the yield would go down
; 3010 : 			{
; 3011 : 				iScore += int((iYieldDelta + dFlatBonus) * iAbsMultiplier - 0.5);
; 3012 : 			}
; 3013 : 		}
; 3014 : 		else
; 3015 : 		{
; 3016 : 			if (iYieldDelta >= 0)
; 3017 : 			{
; 3018 : 				iScore += int(m_aiProjectedPlotYields[ui] + dFlatBonus + 0.5); // provide a nominal score to plots that improve anything
; 3019 : 			}
; 3020 : 			else if (iYieldDelta < 0)
; 3021 : 			{
; 3022 : 				iScore += int((iYieldDelta + dFlatBonus) * iAbsMultiplier - 0.5);
; 3023 : #else
; 3024 : 				iScore += m_aiProjectedPlotYields[ui] * iAbsMultiplier;

	imul	edi, eax
	add	DWORD PTR _iScore$[esp+40], edi
	jmp	SHORT $LN15@ScorePlot
$LN28@ScorePlot:

; 3025 : 			}
; 3026 : 			else if(iYieldDelta < 0)  // the yield would go down

	jge	SHORT $LN15@ScorePlot
$LN24@ScorePlot:

; 3036 : 			}
; 3037 : 			else if(iYieldDelta < 0)
; 3038 : 			{
; 3039 : 				iScore += iYieldDelta * iAbsMultiplier;

	imul	ecx, eax
	add	DWORD PTR _iScore$[esp+40], ecx
$LN15@ScorePlot:
	inc	ebx
	add	ebp, 4
	cmp	ebx, 6
	jb	SHORT $LL25@ScorePlot

; 3040 : #endif
; 3041 : 			}
; 3042 : 		}
; 3043 : 	}
; 3044 : 
; 3045 : 	if(!bAnyNegativeMultiplier && eFocusYield != NO_YIELD)

	cmp	BYTE PTR _bAnyNegativeMultiplier$[esp+40], 0
	pop	edi
	jne	SHORT $LN26@ScorePlot
	mov	ecx, DWORD PTR _eFocusYield$[esp+36]
	cmp	ecx, -1
	je	SHORT $LN26@ScorePlot

; 3046 : 	{
; 3047 : 		int iYieldDelta = m_aiProjectedPlotYields[eFocusYield] - m_aiCurrentPlotYields[eFocusYield];

	mov	edx, DWORD PTR _this$[esp+36]
	mov	eax, DWORD PTR [edx+ecx*4+58428]
	mov	esi, eax
	sub	esi, DWORD PTR [edx+ecx*4+58404]

; 3048 : 		if(iYieldDelta > 0)

	test	esi, esi
	jle	SHORT $LN26@ScorePlot

; 3049 : 		{
; 3050 : #ifdef AUI_WORKER_SCORE_PLOT_EFFECT_FROM_CITY_FOCUS
; 3051 : 			iScore += m_aiProjectedPlotYields[eFocusYield] * AUI_WORKER_SCORE_PLOT_EFFECT_FROM_CITY_FOCUS;
; 3052 : #else
; 3053 : 			iScore += m_aiProjectedPlotYields[eFocusYield] * 100;

	imul	eax, 100				; 00000064H
	add	DWORD PTR _iScore$[esp+36], eax
$LN26@ScorePlot:

; 3054 : #endif
; 3055 : 		}
; 3056 : 	}
; 3057 : 
; 3058 : #ifndef AUI_WORKER_SCORE_PLOT_NO_CAPITOL_FAVORING
; 3059 : 	if (pCity->isCapital()) // this is our capital and needs emphasis

	mov	esi, DWORD PTR _pCity$[esp+36]
	mov	ecx, esi
	call	?isCapital@CvCity@@QBE_NXZ		; CvCity::isCapital
	test	al, al
	je	SHORT $LN3@ScorePlot

; 3060 : 	{
; 3061 : 		iScore *= 8;

	mov	eax, DWORD PTR _iScore$[esp+36]
	pop	esi
	lea	ecx, DWORD PTR [eax*8]
	pop	ebp
	mov	DWORD PTR _iScore$[esp+28], ecx

; 3066 : 	}
; 3067 : #endif
; 3068 : #ifdef AUI_WORKER_SCORE_PLOT_MULTIPLY_SCORE_IF_WOULD_WORK
; 3069 : 	if (bWouldBeWorked)
; 3070 : 	{
; 3071 : 		iScore *= AUI_WORKER_SCORE_PLOT_MULTIPLY_SCORE_IF_WOULD_WORK;
; 3072 : 	}
; 3073 : #endif
; 3074 : #ifdef AUI_WORKER_SCORE_PLOT_REDUCED_PUPPET_SCORE
; 3075 : 	if (pCity->IsPuppet())
; 3076 : 	{
; 3077 : 		iScore /= AUI_WORKER_SCORE_PLOT_REDUCED_PUPPET_SCORE;
; 3078 : 	}
; 3079 : #endif
; 3080 : 
; 3081 : 	return iScore;

	mov	eax, ecx
	pop	ebx

; 3082 : }

	add	esp, 24					; 00000018H
	ret	0
$LN13@ScorePlot:

; 3027 : 			{
; 3028 : 				iScore += iYieldDelta * iAbsMultiplier;
; 3029 : 			}
; 3030 : 		}
; 3031 : 		else
; 3032 : 		{
; 3033 : 			if(iYieldDelta >= 0)

	test	ecx, ecx
	jl	SHORT $LN24@ScorePlot

; 3034 : 			{
; 3035 : 				iScore += m_aiProjectedPlotYields[ui]; // provide a nominal score to plots that improve anything

	add	DWORD PTR _iScore$[esp+40], edi
	jmp	SHORT $LN15@ScorePlot
$LN3@ScorePlot:

; 3062 : 	}
; 3063 : 	else if (pCity->IsOriginalCapital()) // this was a particularly good city and needs a little emphasis

	mov	ecx, esi
	call	?IsOriginalCapital@CvCity@@QBE_NXZ	; CvCity::IsOriginalCapital
	test	al, al
	je	SHORT $LN1@ScorePlot

; 3064 : 	{
; 3065 : 		iScore *= 2;

	mov	edx, DWORD PTR _iScore$[esp+36]
	lea	eax, DWORD PTR [edx+edx]
	mov	DWORD PTR _iScore$[esp+36], eax
$LN1@ScorePlot:

; 3066 : 	}
; 3067 : #endif
; 3068 : #ifdef AUI_WORKER_SCORE_PLOT_MULTIPLY_SCORE_IF_WOULD_WORK
; 3069 : 	if (bWouldBeWorked)
; 3070 : 	{
; 3071 : 		iScore *= AUI_WORKER_SCORE_PLOT_MULTIPLY_SCORE_IF_WOULD_WORK;
; 3072 : 	}
; 3073 : #endif
; 3074 : #ifdef AUI_WORKER_SCORE_PLOT_REDUCED_PUPPET_SCORE
; 3075 : 	if (pCity->IsPuppet())
; 3076 : 	{
; 3077 : 		iScore /= AUI_WORKER_SCORE_PLOT_REDUCED_PUPPET_SCORE;
; 3078 : 	}
; 3079 : #endif
; 3080 : 
; 3081 : 	return iScore;

	mov	eax, DWORD PTR _iScore$[esp+36]
	pop	esi
	pop	ebp
	pop	ebx

; 3082 : }

	add	esp, 24					; 00000018H
	ret	0
?ScorePlot@CvBuilderTaskingAI@@QAEHXZ ENDP		; CvBuilderTaskingAI::ScorePlot
_TEXT	ENDS
PUBLIC	?GetBuildTypeFromImprovement@CvBuilderTaskingAI@@QAE?AW4BuildTypes@@W4ImprovementTypes@@@Z ; CvBuilderTaskingAI::GetBuildTypeFromImprovement
EXTRN	?getImprovement@CvBuildInfo@@QBEHXZ:PROC	; CvBuildInfo::getImprovement
EXTRN	?getBuildInfo@CvGlobals@@QAEPAVCvBuildInfo@@W4BuildTypes@@@Z:PROC ; CvGlobals::getBuildInfo
EXTRN	?getNumBuildInfos@CvGlobals@@QAEHXZ:PROC	; CvGlobals::getNumBuildInfos
EXTRN	?gGlobals@@3VCvGlobals@@A:BYTE			; gGlobals
; Function compile flags: /Ogtpy
;	COMDAT ?GetBuildTypeFromImprovement@CvBuilderTaskingAI@@QAE?AW4BuildTypes@@W4ImprovementTypes@@@Z
_TEXT	SEGMENT
_eImprovement$ = 8					; size = 4
?GetBuildTypeFromImprovement@CvBuilderTaskingAI@@QAE?AW4BuildTypes@@W4ImprovementTypes@@@Z PROC ; CvBuilderTaskingAI::GetBuildTypeFromImprovement, COMDAT
; _this$ = ecx

; 3089 : {

	push	esi
	push	edi

; 3090 : #ifdef AUI_WARNING_FIXES
; 3091 : 	for (uint iBuildIndex = 0; iBuildIndex < GC.getNumBuildInfos(); iBuildIndex++)
; 3092 : #else
; 3093 : 	for(int iBuildIndex = 0; iBuildIndex < GC.getNumBuildInfos(); iBuildIndex++)

	mov	ecx, OFFSET ?gGlobals@@3VCvGlobals@@A	; gGlobals
	xor	esi, esi
	call	?getNumBuildInfos@CvGlobals@@QAEHXZ	; CvGlobals::getNumBuildInfos
	test	eax, eax
	jle	SHORT $LN2@GetBuildTy
	mov	edi, DWORD PTR _eImprovement$[esp+4]
	npad	10
$LL4@GetBuildTy:

; 3094 : #endif
; 3095 : 	{
; 3096 : 		BuildTypes eBuild = (BuildTypes)iBuildIndex;
; 3097 : 		CvBuildInfo* pkBuild = GC.getBuildInfo(eBuild);

	push	esi
	mov	ecx, OFFSET ?gGlobals@@3VCvGlobals@@A	; gGlobals
	call	?getBuildInfo@CvGlobals@@QAEPAVCvBuildInfo@@W4BuildTypes@@@Z ; CvGlobals::getBuildInfo

; 3098 : 
; 3099 : 		if(NULL != pkBuild && eImprovement == (ImprovementTypes)pkBuild->getImprovement())

	test	eax, eax
	je	SHORT $LN3@GetBuildTy
	mov	ecx, eax
	call	?getImprovement@CvBuildInfo@@QBEHXZ	; CvBuildInfo::getImprovement
	cmp	edi, eax
	je	SHORT $LN8@GetBuildTy
$LN3@GetBuildTy:

; 3090 : #ifdef AUI_WARNING_FIXES
; 3091 : 	for (uint iBuildIndex = 0; iBuildIndex < GC.getNumBuildInfos(); iBuildIndex++)
; 3092 : #else
; 3093 : 	for(int iBuildIndex = 0; iBuildIndex < GC.getNumBuildInfos(); iBuildIndex++)

	mov	ecx, OFFSET ?gGlobals@@3VCvGlobals@@A	; gGlobals
	inc	esi
	call	?getNumBuildInfos@CvGlobals@@QAEHXZ	; CvGlobals::getNumBuildInfos
	cmp	esi, eax
	jl	SHORT $LL4@GetBuildTy
$LN2@GetBuildTy:
	pop	edi

; 3102 : 		}
; 3103 : 	}
; 3104 : 
; 3105 : 	return NO_BUILD;

	or	eax, -1
	pop	esi

; 3106 : }

	ret	4
$LN8@GetBuildTy:
	pop	edi

; 3100 : 		{
; 3101 : 			return eBuild;

	mov	eax, esi
	pop	esi

; 3106 : }

	ret	4
?GetBuildTypeFromImprovement@CvBuilderTaskingAI@@QAE?AW4BuildTypes@@W4ImprovementTypes@@@Z ENDP ; CvBuilderTaskingAI::GetBuildTypeFromImprovement
_TEXT	ENDS
PUBLIC	?GetRepairBuild@CvBuilderTaskingAI@@QAE?AW4BuildTypes@@XZ ; CvBuilderTaskingAI::GetRepairBuild
EXTRN	?isRepair@CvBuildInfo@@QBE_NXZ:PROC		; CvBuildInfo::isRepair
; Function compile flags: /Ogtpy
;	COMDAT ?GetRepairBuild@CvBuilderTaskingAI@@QAE?AW4BuildTypes@@XZ
_TEXT	SEGMENT
?GetRepairBuild@CvBuilderTaskingAI@@QAE?AW4BuildTypes@@XZ PROC ; CvBuilderTaskingAI::GetRepairBuild, COMDAT
; _this$ = ecx

; 3113 : {

	push	esi

; 3114 : #ifdef AUI_WARNING_FIXES
; 3115 : 	for (uint i = 0; i < GC.getNumBuildInfos(); i++)
; 3116 : #else
; 3117 : 	for(int i = 0; i < GC.getNumBuildInfos(); i++)

	mov	ecx, OFFSET ?gGlobals@@3VCvGlobals@@A	; gGlobals
	xor	esi, esi
	call	?getNumBuildInfos@CvGlobals@@QAEHXZ	; CvGlobals::getNumBuildInfos
	test	eax, eax
	jle	SHORT $LN2@GetRepairB
$LL4@GetRepairB:

; 3118 : #endif
; 3119 : 	{
; 3120 : 		BuildTypes eBuild = (BuildTypes)i;
; 3121 : 		CvBuildInfo* pkBuild = GC.getBuildInfo(eBuild);

	push	esi
	mov	ecx, OFFSET ?gGlobals@@3VCvGlobals@@A	; gGlobals
	call	?getBuildInfo@CvGlobals@@QAEPAVCvBuildInfo@@W4BuildTypes@@@Z ; CvGlobals::getBuildInfo

; 3122 : 
; 3123 : 		if(NULL != pkBuild && pkBuild->isRepair())

	test	eax, eax
	je	SHORT $LN3@GetRepairB
	mov	ecx, eax
	call	?isRepair@CvBuildInfo@@QBE_NXZ		; CvBuildInfo::isRepair
	test	al, al
	jne	SHORT $LN8@GetRepairB
$LN3@GetRepairB:

; 3114 : #ifdef AUI_WARNING_FIXES
; 3115 : 	for (uint i = 0; i < GC.getNumBuildInfos(); i++)
; 3116 : #else
; 3117 : 	for(int i = 0; i < GC.getNumBuildInfos(); i++)

	mov	ecx, OFFSET ?gGlobals@@3VCvGlobals@@A	; gGlobals
	inc	esi
	call	?getNumBuildInfos@CvGlobals@@QAEHXZ	; CvGlobals::getNumBuildInfos
	cmp	esi, eax
	jl	SHORT $LL4@GetRepairB
$LN2@GetRepairB:

; 3126 : 		}
; 3127 : 	}
; 3128 : 
; 3129 : 	return NO_BUILD;

	or	eax, -1
	pop	esi

; 3130 : }

	ret	0
$LN8@GetRepairB:

; 3124 : 		{
; 3125 : 			return eBuild;

	mov	eax, esi
	pop	esi

; 3130 : }

	ret	0
?GetRepairBuild@CvBuilderTaskingAI@@QAE?AW4BuildTypes@@XZ ENDP ; CvBuilderTaskingAI::GetRepairBuild
_TEXT	ENDS
PUBLIC	??A?$BaseVector@H$00@@QAEAAHI@Z			; BaseVector<int,1>::operator[]
; Function compile flags: /Ogtpy
; File c:\users\enormousapplepie\documents\github\lekmod\lekmod_dll\fireplace\include\fireworks\ffastvector.h
;	COMDAT ??A?$BaseVector@H$00@@QAEAAHI@Z
_TEXT	SEGMENT
_ui$ = 8						; size = 4
??A?$BaseVector@H$00@@QAEAAHI@Z PROC			; BaseVector<int,1>::operator[], COMDAT
; _this$ = ecx

; 129  : 		FAssert(ui < m_uiCurrSize);
; 130  : 		return m_pData[ui];

	mov	eax, DWORD PTR [ecx]
	mov	ecx, DWORD PTR _ui$[esp-4]
	lea	eax, DWORD PTR [eax+ecx*4]

; 131  : 	};

	ret	4
??A?$BaseVector@H$00@@QAEAAHI@Z ENDP			; BaseVector<int,1>::operator[]
_TEXT	ENDS
PUBLIC	?size@?$BaseVector@H$00@@QBEIXZ			; BaseVector<int,1>::size
; Function compile flags: /Ogtpy
;	COMDAT ?size@?$BaseVector@H$00@@QBEIXZ
_TEXT	SEGMENT
?size@?$BaseVector@H$00@@QBEIXZ PROC			; BaseVector<int,1>::size, COMDAT
; _this$ = ecx

; 169  : 		return m_uiCurrSize;

	mov	eax, DWORD PTR [ecx+4]

; 170  : 	};

	ret	0
?size@?$BaseVector@H$00@@QBEIXZ ENDP			; BaseVector<int,1>::size
_TEXT	ENDS
PUBLIC	??1?$BaseVector@H$00@@QAE@XZ			; BaseVector<int,1>::~BaseVector<int,1>
; Function compile flags: /Ogtpy
;	COMDAT ??1?$BaseVector@H$00@@QAE@XZ
_TEXT	SEGMENT
??1?$BaseVector@H$00@@QAE@XZ PROC			; BaseVector<int,1>::~BaseVector<int,1>, COMDAT
; _this$ = ecx

; 111  : 	~BaseVector(){};

	ret	0
??1?$BaseVector@H$00@@QAE@XZ ENDP			; BaseVector<int,1>::~BaseVector<int,1>
_TEXT	ENDS
PUBLIC	??0?$BaseVector@H$00@@IAE@XZ			; BaseVector<int,1>::BaseVector<int,1>
; Function compile flags: /Ogtpy
;	COMDAT ??0?$BaseVector@H$00@@IAE@XZ
_TEXT	SEGMENT
??0?$BaseVector@H$00@@IAE@XZ PROC			; BaseVector<int,1>::BaseVector<int,1>, COMDAT
; _this$ = ecx

; 216  : 	BaseVector() : m_uiCurrSize(0), m_uiCurrMaxSize(0), m_pData(NULL) {};

	mov	eax, ecx
	xor	ecx, ecx
	mov	DWORD PTR [eax], ecx
	mov	DWORD PTR [eax+4], ecx
	mov	DWORD PTR [eax+8], ecx
	ret	0
??0?$BaseVector@H$00@@IAE@XZ ENDP			; BaseVector<int,1>::BaseVector<int,1>
_TEXT	ENDS
PUBLIC	?Destroy@?$BaseVector@H$00@@IAEXPAHI@Z		; BaseVector<int,1>::Destroy
; Function compile flags: /Ogtpy
;	COMDAT ?Destroy@?$BaseVector@H$00@@IAEXPAHI@Z
_TEXT	SEGMENT
_pVal$ = 8						; size = 4
_uiNumElements$ = 12					; size = 4
?Destroy@?$BaseVector@H$00@@IAEXPAHI@Z PROC		; BaseVector<int,1>::Destroy, COMDAT
; _this$ = ecx

; 221  : 		if( !bPODType){
; 222  : 			for(unsigned int i = 0; i < uiNumElements; ++i){
; 223  : 				pVal[i].~T();
; 224  : 			}
; 225  : 		}
; 226  : 	};

	ret	8
?Destroy@?$BaseVector@H$00@@IAEXPAHI@Z ENDP		; BaseVector<int,1>::Destroy
_TEXT	ENDS
PUBLIC	?Copy@?$BaseVector@H$00@@IAEXABV1@@Z		; BaseVector<int,1>::Copy
EXTRN	_memcpy:PROC
; Function compile flags: /Ogtpy
;	COMDAT ?Copy@?$BaseVector@H$00@@IAEXABV1@@Z
_TEXT	SEGMENT
_RHS$ = 8						; size = 4
?Copy@?$BaseVector@H$00@@IAEXABV1@@Z PROC		; BaseVector<int,1>::Copy, COMDAT
; _this$ = ecx

; 230  : 		m_uiCurrSize = RHS.m_uiCurrSize;

	mov	eax, DWORD PTR _RHS$[esp-4]
	mov	edx, DWORD PTR [eax+4]
	mov	DWORD PTR [ecx+4], edx

; 231  : 		if( bPODType ){
; 232  : 			memcpy( (void*)m_pData, (void*)RHS.m_pData, sizeof(T)*RHS.m_uiCurrSize);

	mov	edx, DWORD PTR [eax+4]
	mov	eax, DWORD PTR [eax]
	mov	ecx, DWORD PTR [ecx]
	add	edx, edx
	add	edx, edx
	push	edx
	push	eax
	push	ecx
	call	_memcpy
	add	esp, 12					; 0000000cH

; 233  : 		}else{
; 234  : 			for(unsigned int i = 0; i < m_uiCurrSize; ++i){
; 235  : 				new( (void*)&m_pData[i] )T( RHS.m_pData[i] );
; 236  : 			}
; 237  : 		}
; 238  : 	};

	ret	4
?Copy@?$BaseVector@H$00@@IAEXABV1@@Z ENDP		; BaseVector<int,1>::Copy
_TEXT	ENDS
PUBLIC	?addTarget@?$DestructionNotification@V?$FObjectHandle@VCvUnit@@@@@@QAEXABV?$FObjectHandle@VCvUnit@@@@@Z ; DestructionNotification<FObjectHandle<CvUnit> >::addTarget
; Function compile flags: /Ogtpy
; File c:\users\enormousapplepie\documents\github\lekmod\lekmod_dll\fireplace\include\fireworks\fobjecthandle.h
;	COMDAT ?addTarget@?$DestructionNotification@V?$FObjectHandle@VCvUnit@@@@@@QAEXABV?$FObjectHandle@VCvUnit@@@@@Z
_TEXT	SEGMENT
_target$ = 8						; size = 4
?addTarget@?$DestructionNotification@V?$FObjectHandle@VCvUnit@@@@@@QAEXABV?$FObjectHandle@VCvUnit@@@@@Z PROC ; DestructionNotification<FObjectHandle<CvUnit> >::addTarget, COMDAT
; _this$ = ecx

; 52   : #ifdef TRACK_DESTRUCTION_NOTIFICATION
; 53   : 		m_targets.insert(&target);
; 54   : #endif
; 55   : 	}

	ret	4
?addTarget@?$DestructionNotification@V?$FObjectHandle@VCvUnit@@@@@@QAEXABV?$FObjectHandle@VCvUnit@@@@@Z ENDP ; DestructionNotification<FObjectHandle<CvUnit> >::addTarget
_TEXT	ENDS
PUBLIC	?removeTarget@?$DestructionNotification@V?$FObjectHandle@VCvUnit@@@@@@QAEXABV?$FObjectHandle@VCvUnit@@@@@Z ; DestructionNotification<FObjectHandle<CvUnit> >::removeTarget
; Function compile flags: /Ogtpy
;	COMDAT ?removeTarget@?$DestructionNotification@V?$FObjectHandle@VCvUnit@@@@@@QAEXABV?$FObjectHandle@VCvUnit@@@@@Z
_TEXT	SEGMENT
_target$ = 8						; size = 4
?removeTarget@?$DestructionNotification@V?$FObjectHandle@VCvUnit@@@@@@QAEXABV?$FObjectHandle@VCvUnit@@@@@Z PROC ; DestructionNotification<FObjectHandle<CvUnit> >::removeTarget, COMDAT
; _this$ = ecx

; 63   : #ifdef TRACK_DESTRUCTION_NOTIFICATION
; 64   : 		m_targets.erase(&target);
; 65   : #endif
; 66   : 	}

	ret	4
?removeTarget@?$DestructionNotification@V?$FObjectHandle@VCvUnit@@@@@@QAEXABV?$FObjectHandle@VCvUnit@@@@@Z ENDP ; DestructionNotification<FObjectHandle<CvUnit> >::removeTarget
_TEXT	ENDS
PUBLIC	??_C@_0GH@ECFAPJEJ@c?3?2users?2enormousapplepie?2docume@ ; `string'
PUBLIC	?Alloc@?$FStaticVector@H$0DJAA@$00$0BCJ@$0A@@@IAEPAHI@Z ; FStaticVector<int,14592,1,297,0>::Alloc
EXTRN	?FireMallocAlignedNoTracking@@YAPAXIIPBDH@Z:PROC ; FireMallocAlignedNoTracking
;	COMDAT ??_C@_0GH@ECFAPJEJ@c?3?2users?2enormousapplepie?2docume@
; File c:\users\enormousapplepie\documents\github\lekmod\lekmod_dll\fireplace\include\fireworks\ffastvector.h
CONST	SEGMENT
??_C@_0GH@ECFAPJEJ@c?3?2users?2enormousapplepie?2docume@ DB 'c:\users\eno'
	DB	'rmousapplepie\documents\github\lekmod\lekmod_dll\fireplace\in'
	DB	'clude\fireworks\FFastVector.h', 00H		; `string'
; Function compile flags: /Ogtpy
CONST	ENDS
;	COMDAT ?Alloc@?$FStaticVector@H$0DJAA@$00$0BCJ@$0A@@@IAEPAHI@Z
_TEXT	SEGMENT
_uiSize$ = 8						; size = 4
?Alloc@?$FStaticVector@H$0DJAA@$00$0BCJ@$0A@@@IAEPAHI@Z PROC ; FStaticVector<int,14592,1,297,0>::Alloc, COMDAT
; _this$ = ecx

; 795  : 	T* Alloc(unsigned int uiSize){

	push	esi
	push	edi

; 796  : 		T* pRet;
; 797  : 		if( uiSize > L ){

	mov	edi, DWORD PTR _uiSize$[esp+4]
	mov	esi, ecx
	cmp	edi, 14592				; 00003900H
	jbe	SHORT $LN2@Alloc

; 798  : 			pRet = (T*)FMALLOCALIGNED( uiSize*sizeof(T), __alignof(T), AllocPool, nSubID );

	push	798					; 0000031eH
	push	OFFSET ??_C@_0GH@ECFAPJEJ@c?3?2users?2enormousapplepie?2docume@
	lea	eax, DWORD PTR [edi*4]
	push	4
	push	eax
	call	?FireMallocAlignedNoTracking@@YAPAXIIPBDH@Z ; FireMallocAlignedNoTracking
	add	esp, 16					; 00000010H

; 799  : 			m_uiCurrMaxSize = uiSize;

	mov	DWORD PTR [esi+8], edi
	pop	edi
	pop	esi

; 803  : 		}
; 804  : 		return pRet;
; 805  : 	};

	ret	4
$LN2@Alloc:
	pop	edi

; 800  : 		}else{
; 801  : 			pRet = (T*)m_aData;

	lea	eax, DWORD PTR [esi+12]

; 802  : 			m_uiCurrMaxSize = L;

	mov	DWORD PTR [esi+8], 14592		; 00003900H
	pop	esi

; 803  : 		}
; 804  : 		return pRet;
; 805  : 	};

	ret	4
?Alloc@?$FStaticVector@H$0DJAA@$00$0BCJ@$0A@@@IAEPAHI@Z ENDP ; FStaticVector<int,14592,1,297,0>::Alloc
_TEXT	ENDS
PUBLIC	?Free@?$FStaticVector@H$0DJAA@$00$0BCJ@$0A@@@IAEXPAHI@Z ; FStaticVector<int,14592,1,297,0>::Free
EXTRN	?FireFreeAlignedNoTracking@@YAXPAX@Z:PROC	; FireFreeAlignedNoTracking
; Function compile flags: /Ogtpy
;	COMDAT ?Free@?$FStaticVector@H$0DJAA@$00$0BCJ@$0A@@@IAEXPAHI@Z
_TEXT	SEGMENT
_pVal$ = 8						; size = 4
_uiNumElements$ = 12					; size = 4
?Free@?$FStaticVector@H$0DJAA@$00$0BCJ@$0A@@@IAEXPAHI@Z PROC ; FStaticVector<int,14592,1,297,0>::Free, COMDAT
; _this$ = ecx

; 810  : 		if( !bPODType) Destroy(pVal, uiNumElements);
; 811  : 		if( pVal != (T*)m_aData )

	mov	eax, DWORD PTR _pVal$[esp-4]
	add	ecx, 12					; 0000000cH
	cmp	eax, ecx
	je	SHORT $LN1@Free

; 812  : 			FFREEALIGNED( (unsigned char*)pVal );

	push	eax
	call	?FireFreeAlignedNoTracking@@YAXPAX@Z	; FireFreeAlignedNoTracking
	pop	ecx
$LN1@Free:

; 813  : 	};

	ret	8
?Free@?$FStaticVector@H$0DJAA@$00$0BCJ@$0A@@@IAEXPAHI@Z ENDP ; FStaticVector<int,14592,1,297,0>::Free
_TEXT	ENDS
PUBLIC	??A?$BaseVector@UWeightedElement@?$CvWeightedVector@UBuilderDirective@@$0GE@$00@@$00@@QBEABUWeightedElement@?$CvWeightedVector@UBuilderDirective@@$0GE@$00@@I@Z ; BaseVector<CvWeightedVector<BuilderDirective,100,1>::WeightedElement,1>::operator[]
; Function compile flags: /Ogtpy
;	COMDAT ??A?$BaseVector@UWeightedElement@?$CvWeightedVector@UBuilderDirective@@$0GE@$00@@$00@@QBEABUWeightedElement@?$CvWeightedVector@UBuilderDirective@@$0GE@$00@@I@Z
_TEXT	SEGMENT
_ui$ = 8						; size = 4
??A?$BaseVector@UWeightedElement@?$CvWeightedVector@UBuilderDirective@@$0GE@$00@@$00@@QBEABUWeightedElement@?$CvWeightedVector@UBuilderDirective@@$0GE@$00@@I@Z PROC ; BaseVector<CvWeightedVector<BuilderDirective,100,1>::WeightedElement,1>::operator[], COMDAT
; _this$ = ecx

; 135  : 		FAssert(ui < m_uiCurrSize);
; 136  : 		return m_pData[ui];

	mov	eax, DWORD PTR _ui$[esp-4]
	mov	ecx, DWORD PTR [ecx]
	lea	eax, DWORD PTR [eax+eax*2]
	lea	eax, DWORD PTR [ecx+eax*8]

; 137  : 	};

	ret	4
??A?$BaseVector@UWeightedElement@?$CvWeightedVector@UBuilderDirective@@$0GE@$00@@$00@@QBEABUWeightedElement@?$CvWeightedVector@UBuilderDirective@@$0GE@$00@@I@Z ENDP ; BaseVector<CvWeightedVector<BuilderDirective,100,1>::WeightedElement,1>::operator[]
_TEXT	ENDS
PUBLIC	?size@?$BaseVector@UWeightedElement@?$CvWeightedVector@UBuilderDirective@@$0GE@$00@@$00@@QBEIXZ ; BaseVector<CvWeightedVector<BuilderDirective,100,1>::WeightedElement,1>::size
; Function compile flags: /Ogtpy
;	COMDAT ?size@?$BaseVector@UWeightedElement@?$CvWeightedVector@UBuilderDirective@@$0GE@$00@@$00@@QBEIXZ
_TEXT	SEGMENT
?size@?$BaseVector@UWeightedElement@?$CvWeightedVector@UBuilderDirective@@$0GE@$00@@$00@@QBEIXZ PROC ; BaseVector<CvWeightedVector<BuilderDirective,100,1>::WeightedElement,1>::size, COMDAT
; _this$ = ecx

; 169  : 		return m_uiCurrSize;

	mov	eax, DWORD PTR [ecx+4]

; 170  : 	};

	ret	0
?size@?$BaseVector@UWeightedElement@?$CvWeightedVector@UBuilderDirective@@$0GE@$00@@$00@@QBEIXZ ENDP ; BaseVector<CvWeightedVector<BuilderDirective,100,1>::WeightedElement,1>::size
_TEXT	ENDS
PUBLIC	?begin@?$BaseVector@UWeightedElement@?$CvWeightedVector@UBuilderDirective@@$0GE@$00@@$00@@QAEPAUWeightedElement@?$CvWeightedVector@UBuilderDirective@@$0GE@$00@@XZ ; BaseVector<CvWeightedVector<BuilderDirective,100,1>::WeightedElement,1>::begin
; Function compile flags: /Ogtpy
;	COMDAT ?begin@?$BaseVector@UWeightedElement@?$CvWeightedVector@UBuilderDirective@@$0GE@$00@@$00@@QAEPAUWeightedElement@?$CvWeightedVector@UBuilderDirective@@$0GE@$00@@XZ
_TEXT	SEGMENT
?begin@?$BaseVector@UWeightedElement@?$CvWeightedVector@UBuilderDirective@@$0GE@$00@@$00@@QAEPAUWeightedElement@?$CvWeightedVector@UBuilderDirective@@$0GE@$00@@XZ PROC ; BaseVector<CvWeightedVector<BuilderDirective,100,1>::WeightedElement,1>::begin, COMDAT
; _this$ = ecx

; 194  :         return m_pData; 

	mov	eax, DWORD PTR [ecx]

; 195  :     };

	ret	0
?begin@?$BaseVector@UWeightedElement@?$CvWeightedVector@UBuilderDirective@@$0GE@$00@@$00@@QAEPAUWeightedElement@?$CvWeightedVector@UBuilderDirective@@$0GE@$00@@XZ ENDP ; BaseVector<CvWeightedVector<BuilderDirective,100,1>::WeightedElement,1>::begin
_TEXT	ENDS
PUBLIC	?end@?$BaseVector@UWeightedElement@?$CvWeightedVector@UBuilderDirective@@$0GE@$00@@$00@@QAEPAUWeightedElement@?$CvWeightedVector@UBuilderDirective@@$0GE@$00@@XZ ; BaseVector<CvWeightedVector<BuilderDirective,100,1>::WeightedElement,1>::end
; Function compile flags: /Ogtpy
;	COMDAT ?end@?$BaseVector@UWeightedElement@?$CvWeightedVector@UBuilderDirective@@$0GE@$00@@$00@@QAEPAUWeightedElement@?$CvWeightedVector@UBuilderDirective@@$0GE@$00@@XZ
_TEXT	SEGMENT
?end@?$BaseVector@UWeightedElement@?$CvWeightedVector@UBuilderDirective@@$0GE@$00@@$00@@QAEPAUWeightedElement@?$CvWeightedVector@UBuilderDirective@@$0GE@$00@@XZ PROC ; BaseVector<CvWeightedVector<BuilderDirective,100,1>::WeightedElement,1>::end, COMDAT
; _this$ = ecx

; 197  :         return m_pData+m_uiCurrSize; 

	mov	eax, DWORD PTR [ecx+4]
	mov	ecx, DWORD PTR [ecx]
	lea	eax, DWORD PTR [eax+eax*2]
	lea	eax, DWORD PTR [ecx+eax*8]

; 198  :     };

	ret	0
?end@?$BaseVector@UWeightedElement@?$CvWeightedVector@UBuilderDirective@@$0GE@$00@@$00@@QAEPAUWeightedElement@?$CvWeightedVector@UBuilderDirective@@$0GE@$00@@XZ ENDP ; BaseVector<CvWeightedVector<BuilderDirective,100,1>::WeightedElement,1>::end
_TEXT	ENDS
PUBLIC	?Alloc@?$FStaticVector@H$0EA@$00$0BCJ@$0A@@@IAEPAHI@Z ; FStaticVector<int,64,1,297,0>::Alloc
; Function compile flags: /Ogtpy
;	COMDAT ?Alloc@?$FStaticVector@H$0EA@$00$0BCJ@$0A@@@IAEPAHI@Z
_TEXT	SEGMENT
_uiSize$ = 8						; size = 4
?Alloc@?$FStaticVector@H$0EA@$00$0BCJ@$0A@@@IAEPAHI@Z PROC ; FStaticVector<int,64,1,297,0>::Alloc, COMDAT
; _this$ = ecx

; 795  : 	T* Alloc(unsigned int uiSize){

	push	esi
	push	edi

; 796  : 		T* pRet;
; 797  : 		if( uiSize > L ){

	mov	edi, DWORD PTR _uiSize$[esp+4]
	mov	esi, ecx
	cmp	edi, 64					; 00000040H
	jbe	SHORT $LN2@Alloc@2

; 798  : 			pRet = (T*)FMALLOCALIGNED( uiSize*sizeof(T), __alignof(T), AllocPool, nSubID );

	push	798					; 0000031eH
	push	OFFSET ??_C@_0GH@ECFAPJEJ@c?3?2users?2enormousapplepie?2docume@
	lea	eax, DWORD PTR [edi*4]
	push	4
	push	eax
	call	?FireMallocAlignedNoTracking@@YAPAXIIPBDH@Z ; FireMallocAlignedNoTracking
	add	esp, 16					; 00000010H

; 799  : 			m_uiCurrMaxSize = uiSize;

	mov	DWORD PTR [esi+8], edi
	pop	edi
	pop	esi

; 803  : 		}
; 804  : 		return pRet;
; 805  : 	};

	ret	4
$LN2@Alloc@2:
	pop	edi

; 800  : 		}else{
; 801  : 			pRet = (T*)m_aData;

	lea	eax, DWORD PTR [esi+12]

; 802  : 			m_uiCurrMaxSize = L;

	mov	DWORD PTR [esi+8], 64			; 00000040H
	pop	esi

; 803  : 		}
; 804  : 		return pRet;
; 805  : 	};

	ret	4
?Alloc@?$FStaticVector@H$0EA@$00$0BCJ@$0A@@@IAEPAHI@Z ENDP ; FStaticVector<int,64,1,297,0>::Alloc
_TEXT	ENDS
PUBLIC	?Free@?$FStaticVector@H$0EA@$00$0BCJ@$0A@@@IAEXPAHI@Z ; FStaticVector<int,64,1,297,0>::Free
; Function compile flags: /Ogtpy
;	COMDAT ?Free@?$FStaticVector@H$0EA@$00$0BCJ@$0A@@@IAEXPAHI@Z
_TEXT	SEGMENT
_pVal$ = 8						; size = 4
_uiNumElements$ = 12					; size = 4
?Free@?$FStaticVector@H$0EA@$00$0BCJ@$0A@@@IAEXPAHI@Z PROC ; FStaticVector<int,64,1,297,0>::Free, COMDAT
; _this$ = ecx

; 810  : 		if( !bPODType) Destroy(pVal, uiNumElements);
; 811  : 		if( pVal != (T*)m_aData )

	mov	eax, DWORD PTR _pVal$[esp-4]
	add	ecx, 12					; 0000000cH
	cmp	eax, ecx
	je	SHORT $LN1@Free@2

; 812  : 			FFREEALIGNED( (unsigned char*)pVal );

	push	eax
	call	?FireFreeAlignedNoTracking@@YAXPAX@Z	; FireFreeAlignedNoTracking
	pop	ecx
$LN1@Free@2:

; 813  : 	};

	ret	8
?Free@?$FStaticVector@H$0EA@$00$0BCJ@$0A@@@IAEXPAHI@Z ENDP ; FStaticVector<int,64,1,297,0>::Free
_TEXT	ENDS
PUBLIC	?Alloc@?$FStaticVector@UWeightedElement@?$CvWeightedVector@UBuilderDirective@@$0GE@$00@@$0GE@$00$0A@$0A@@@IAEPAUWeightedElement@?$CvWeightedVector@UBuilderDirective@@$0GE@$00@@I@Z ; FStaticVector<CvWeightedVector<BuilderDirective,100,1>::WeightedElement,100,1,0,0>::Alloc
; Function compile flags: /Ogtpy
;	COMDAT ?Alloc@?$FStaticVector@UWeightedElement@?$CvWeightedVector@UBuilderDirective@@$0GE@$00@@$0GE@$00$0A@$0A@@@IAEPAUWeightedElement@?$CvWeightedVector@UBuilderDirective@@$0GE@$00@@I@Z
_TEXT	SEGMENT
_uiSize$ = 8						; size = 4
?Alloc@?$FStaticVector@UWeightedElement@?$CvWeightedVector@UBuilderDirective@@$0GE@$00@@$0GE@$00$0A@$0A@@@IAEPAUWeightedElement@?$CvWeightedVector@UBuilderDirective@@$0GE@$00@@I@Z PROC ; FStaticVector<CvWeightedVector<BuilderDirective,100,1>::WeightedElement,100,1,0,0>::Alloc, COMDAT
; _this$ = ecx

; 795  : 	T* Alloc(unsigned int uiSize){

	push	esi
	push	edi

; 796  : 		T* pRet;
; 797  : 		if( uiSize > L ){

	mov	edi, DWORD PTR _uiSize$[esp+4]
	mov	esi, ecx
	cmp	edi, 100				; 00000064H
	jbe	SHORT $LN2@Alloc@3

; 798  : 			pRet = (T*)FMALLOCALIGNED( uiSize*sizeof(T), __alignof(T), AllocPool, nSubID );

	push	798					; 0000031eH
	lea	eax, DWORD PTR [edi+edi*2]
	add	eax, eax
	push	OFFSET ??_C@_0GH@ECFAPJEJ@c?3?2users?2enormousapplepie?2docume@
	add	eax, eax
	add	eax, eax
	push	4
	push	eax
	call	?FireMallocAlignedNoTracking@@YAPAXIIPBDH@Z ; FireMallocAlignedNoTracking
	add	esp, 16					; 00000010H

; 799  : 			m_uiCurrMaxSize = uiSize;

	mov	DWORD PTR [esi+8], edi
	pop	edi
	pop	esi

; 803  : 		}
; 804  : 		return pRet;
; 805  : 	};

	ret	4
$LN2@Alloc@3:
	pop	edi

; 800  : 		}else{
; 801  : 			pRet = (T*)m_aData;

	lea	eax, DWORD PTR [esi+12]

; 802  : 			m_uiCurrMaxSize = L;

	mov	DWORD PTR [esi+8], 100			; 00000064H
	pop	esi

; 803  : 		}
; 804  : 		return pRet;
; 805  : 	};

	ret	4
?Alloc@?$FStaticVector@UWeightedElement@?$CvWeightedVector@UBuilderDirective@@$0GE@$00@@$0GE@$00$0A@$0A@@@IAEPAUWeightedElement@?$CvWeightedVector@UBuilderDirective@@$0GE@$00@@I@Z ENDP ; FStaticVector<CvWeightedVector<BuilderDirective,100,1>::WeightedElement,100,1,0,0>::Alloc
_TEXT	ENDS
PUBLIC	??1?$BaseVector@UWeightedElement@?$CvWeightedVector@UBuilderDirective@@$0GE@$00@@$00@@QAE@XZ ; BaseVector<CvWeightedVector<BuilderDirective,100,1>::WeightedElement,1>::~BaseVector<CvWeightedVector<BuilderDirective,100,1>::WeightedElement,1>
; Function compile flags: /Ogtpy
;	COMDAT ??1?$BaseVector@UWeightedElement@?$CvWeightedVector@UBuilderDirective@@$0GE@$00@@$00@@QAE@XZ
_TEXT	SEGMENT
??1?$BaseVector@UWeightedElement@?$CvWeightedVector@UBuilderDirective@@$0GE@$00@@$00@@QAE@XZ PROC ; BaseVector<CvWeightedVector<BuilderDirective,100,1>::WeightedElement,1>::~BaseVector<CvWeightedVector<BuilderDirective,100,1>::WeightedElement,1>, COMDAT
; _this$ = ecx

; 111  : 	~BaseVector(){};

	ret	0
??1?$BaseVector@UWeightedElement@?$CvWeightedVector@UBuilderDirective@@$0GE@$00@@$00@@QAE@XZ ENDP ; BaseVector<CvWeightedVector<BuilderDirective,100,1>::WeightedElement,1>::~BaseVector<CvWeightedVector<BuilderDirective,100,1>::WeightedElement,1>
_TEXT	ENDS
PUBLIC	??0?$BaseVector@UWeightedElement@?$CvWeightedVector@UBuilderDirective@@$0GE@$00@@$00@@IAE@XZ ; BaseVector<CvWeightedVector<BuilderDirective,100,1>::WeightedElement,1>::BaseVector<CvWeightedVector<BuilderDirective,100,1>::WeightedElement,1>
; Function compile flags: /Ogtpy
;	COMDAT ??0?$BaseVector@UWeightedElement@?$CvWeightedVector@UBuilderDirective@@$0GE@$00@@$00@@IAE@XZ
_TEXT	SEGMENT
??0?$BaseVector@UWeightedElement@?$CvWeightedVector@UBuilderDirective@@$0GE@$00@@$00@@IAE@XZ PROC ; BaseVector<CvWeightedVector<BuilderDirective,100,1>::WeightedElement,1>::BaseVector<CvWeightedVector<BuilderDirective,100,1>::WeightedElement,1>, COMDAT
; _this$ = ecx

; 216  : 	BaseVector() : m_uiCurrSize(0), m_uiCurrMaxSize(0), m_pData(NULL) {};

	mov	eax, ecx
	xor	ecx, ecx
	mov	DWORD PTR [eax], ecx
	mov	DWORD PTR [eax+4], ecx
	mov	DWORD PTR [eax+8], ecx
	ret	0
??0?$BaseVector@UWeightedElement@?$CvWeightedVector@UBuilderDirective@@$0GE@$00@@$00@@IAE@XZ ENDP ; BaseVector<CvWeightedVector<BuilderDirective,100,1>::WeightedElement,1>::BaseVector<CvWeightedVector<BuilderDirective,100,1>::WeightedElement,1>
_TEXT	ENDS
PUBLIC	?Destroy@?$BaseVector@UWeightedElement@?$CvWeightedVector@UBuilderDirective@@$0GE@$00@@$00@@IAEXPAUWeightedElement@?$CvWeightedVector@UBuilderDirective@@$0GE@$00@@I@Z ; BaseVector<CvWeightedVector<BuilderDirective,100,1>::WeightedElement,1>::Destroy
; Function compile flags: /Ogtpy
;	COMDAT ?Destroy@?$BaseVector@UWeightedElement@?$CvWeightedVector@UBuilderDirective@@$0GE@$00@@$00@@IAEXPAUWeightedElement@?$CvWeightedVector@UBuilderDirective@@$0GE@$00@@I@Z
_TEXT	SEGMENT
_pVal$ = 8						; size = 4
_uiNumElements$ = 12					; size = 4
?Destroy@?$BaseVector@UWeightedElement@?$CvWeightedVector@UBuilderDirective@@$0GE@$00@@$00@@IAEXPAUWeightedElement@?$CvWeightedVector@UBuilderDirective@@$0GE@$00@@I@Z PROC ; BaseVector<CvWeightedVector<BuilderDirective,100,1>::WeightedElement,1>::Destroy, COMDAT
; _this$ = ecx

; 221  : 		if( !bPODType){
; 222  : 			for(unsigned int i = 0; i < uiNumElements; ++i){
; 223  : 				pVal[i].~T();
; 224  : 			}
; 225  : 		}
; 226  : 	};

	ret	8
?Destroy@?$BaseVector@UWeightedElement@?$CvWeightedVector@UBuilderDirective@@$0GE@$00@@$00@@IAEXPAUWeightedElement@?$CvWeightedVector@UBuilderDirective@@$0GE@$00@@I@Z ENDP ; BaseVector<CvWeightedVector<BuilderDirective,100,1>::WeightedElement,1>::Destroy
_TEXT	ENDS
PUBLIC	??0WeightedElement@?$CvWeightedVector@UBuilderDirective@@$0GE@$00@@QAE@ABU01@@Z ; CvWeightedVector<BuilderDirective,100,1>::WeightedElement::WeightedElement
; Function compile flags: /Ogtpy
; File c:\users\enormousapplepie\documents\github\lekmod\lekmod_dll\cvgamecoredllutil\include\cvweightedvector.h
;	COMDAT ??0WeightedElement@?$CvWeightedVector@UBuilderDirective@@$0GE@$00@@QAE@ABU01@@Z
_TEXT	SEGMENT
_source$ = 8						; size = 4
??0WeightedElement@?$CvWeightedVector@UBuilderDirective@@$0GE@$00@@QAE@ABU01@@Z PROC ; CvWeightedVector<BuilderDirective,100,1>::WeightedElement::WeightedElement, COMDAT
; _this$ = ecx

; 37   : 		{

	mov	eax, ecx
	mov	ecx, DWORD PTR _source$[esp-4]
	mov	edx, DWORD PTR [ecx]
	mov	DWORD PTR [eax], edx
	mov	edx, DWORD PTR [ecx+4]
	mov	DWORD PTR [eax+4], edx
	mov	edx, DWORD PTR [ecx+8]
	mov	DWORD PTR [eax+8], edx
	mov	edx, DWORD PTR [ecx+12]
	mov	DWORD PTR [eax+12], edx
	mov	edx, DWORD PTR [ecx+16]
	mov	DWORD PTR [eax+16], edx
	mov	ecx, DWORD PTR [ecx+20]
	mov	DWORD PTR [eax+20], ecx

; 38   : 		}

	ret	4
??0WeightedElement@?$CvWeightedVector@UBuilderDirective@@$0GE@$00@@QAE@ABU01@@Z ENDP ; CvWeightedVector<BuilderDirective,100,1>::WeightedElement::WeightedElement
_TEXT	ENDS
PUBLIC	??$max@H@std@@YAABHABH0@Z			; std::max<int>
; Function compile flags: /Ogtpy
; File c:\program files (x86)\microsoft visual studio 9.0\vc\include\xutility
;	COMDAT ??$max@H@std@@YAABHABH0@Z
_TEXT	SEGMENT
__Left$ = 8						; size = 4
__Right$ = 12						; size = 4
??$max@H@std@@YAABHABH0@Z PROC				; std::max<int>, COMDAT

; 3384 : 	return (_DEBUG_LT(_Left, _Right) ? _Right : _Left);

	mov	eax, DWORD PTR __Left$[esp-4]
	mov	edx, DWORD PTR [eax]
	mov	ecx, DWORD PTR __Right$[esp-4]
	cmp	edx, DWORD PTR [ecx]
	jge	SHORT $LN4@max
	mov	eax, ecx
$LN4@max:

; 3385 : 	}

	ret	0
??$max@H@std@@YAABHABH0@Z ENDP				; std::max<int>
_TEXT	ENDS
PUBLIC	??$min@H@std@@YAABHABH0@Z			; std::min<int>
; Function compile flags: /Ogtpy
;	COMDAT ??$min@H@std@@YAABHABH0@Z
_TEXT	SEGMENT
__Left$ = 8						; size = 4
__Right$ = 12						; size = 4
??$min@H@std@@YAABHABH0@Z PROC				; std::min<int>, COMDAT

; 3399 : 	return (_DEBUG_LT(_Right, _Left) ? _Right : _Left);

	mov	eax, DWORD PTR __Right$[esp-4]
	mov	edx, DWORD PTR [eax]
	mov	ecx, DWORD PTR __Left$[esp-4]
	cmp	edx, DWORD PTR [ecx]
	jl	SHORT $LN4@min
	mov	eax, ecx
$LN4@min:

; 3400 : 	}

	ret	0
??$min@H@std@@YAABHABH0@Z ENDP				; std::min<int>
_TEXT	ENDS
PUBLIC	??$_Dist_type@PAUWeightedElement@?$CvWeightedVector@UBuilderDirective@@$0GE@$00@@@std@@YAPAHPAUWeightedElement@?$CvWeightedVector@UBuilderDirective@@$0GE@$00@@@Z ; std::_Dist_type<CvWeightedVector<BuilderDirective,100,1>::WeightedElement *>
; Function compile flags: /Ogtpy
;	COMDAT ??$_Dist_type@PAUWeightedElement@?$CvWeightedVector@UBuilderDirective@@$0GE@$00@@@std@@YAPAHPAUWeightedElement@?$CvWeightedVector@UBuilderDirective@@$0GE@$00@@@Z
_TEXT	SEGMENT
___formal$ = 8						; size = 4
??$_Dist_type@PAUWeightedElement@?$CvWeightedVector@UBuilderDirective@@$0GE@$00@@@std@@YAPAHPAUWeightedElement@?$CvWeightedVector@UBuilderDirective@@$0GE@$00@@@Z PROC ; std::_Dist_type<CvWeightedVector<BuilderDirective,100,1>::WeightedElement *>, COMDAT

; 1831 : 	return (0);

	xor	eax, eax

; 1832 : 	}

	ret	0
??$_Dist_type@PAUWeightedElement@?$CvWeightedVector@UBuilderDirective@@$0GE@$00@@@std@@YAPAHPAUWeightedElement@?$CvWeightedVector@UBuilderDirective@@$0GE@$00@@@Z ENDP ; std::_Dist_type<CvWeightedVector<BuilderDirective,100,1>::WeightedElement *>
_TEXT	ENDS
PUBLIC	??$_Val_type@PAUWeightedElement@?$CvWeightedVector@UBuilderDirective@@$0GE@$00@@@std@@YAPAUWeightedElement@?$CvWeightedVector@UBuilderDirective@@$0GE@$00@@PAU12@@Z ; std::_Val_type<CvWeightedVector<BuilderDirective,100,1>::WeightedElement *>
; Function compile flags: /Ogtpy
;	COMDAT ??$_Val_type@PAUWeightedElement@?$CvWeightedVector@UBuilderDirective@@$0GE@$00@@@std@@YAPAUWeightedElement@?$CvWeightedVector@UBuilderDirective@@$0GE@$00@@PAU12@@Z
_TEXT	SEGMENT
___formal$ = 8						; size = 4
??$_Val_type@PAUWeightedElement@?$CvWeightedVector@UBuilderDirective@@$0GE@$00@@@std@@YAPAUWeightedElement@?$CvWeightedVector@UBuilderDirective@@$0GE@$00@@PAU12@@Z PROC ; std::_Val_type<CvWeightedVector<BuilderDirective,100,1>::WeightedElement *>, COMDAT

; 1766 : 	return (0);

	xor	eax, eax

; 1767 : 	}

	ret	0
??$_Val_type@PAUWeightedElement@?$CvWeightedVector@UBuilderDirective@@$0GE@$00@@@std@@YAPAUWeightedElement@?$CvWeightedVector@UBuilderDirective@@$0GE@$00@@PAU12@@Z ENDP ; std::_Val_type<CvWeightedVector<BuilderDirective,100,1>::WeightedElement *>
_TEXT	ENDS
PUBLIC	??0?$_Temp_iterator@UWeightedElement@?$CvWeightedVector@UBuilderDirective@@$0GE@$00@@@std@@QAE@H@Z ; std::_Temp_iterator<CvWeightedVector<BuilderDirective,100,1>::WeightedElement>::_Temp_iterator<CvWeightedVector<BuilderDirective,100,1>::WeightedElement>
; Function compile flags: /Ogtpy
; File c:\program files (x86)\microsoft visual studio 9.0\vc\include\memory
;	COMDAT ??0?$_Temp_iterator@UWeightedElement@?$CvWeightedVector@UBuilderDirective@@$0GE@$00@@@std@@QAE@H@Z
_TEXT	SEGMENT
__Count$ = 8						; size = 4
??0?$_Temp_iterator@UWeightedElement@?$CvWeightedVector@UBuilderDirective@@$0GE@$00@@@std@@QAE@H@Z PROC ; std::_Temp_iterator<CvWeightedVector<BuilderDirective,100,1>::WeightedElement>::_Temp_iterator<CvWeightedVector<BuilderDirective,100,1>::WeightedElement>, COMDAT
; _this$ = ecx

; 526  : 	_Temp_iterator(_PDFT _Count = 0)

	mov	eax, ecx

; 527  : 		{	// construct from desired temporary buffer size
; 528  : 		_Buf._Begin = 0;

	xor	ecx, ecx
	mov	DWORD PTR [eax], ecx

; 529  : 		_Buf._Current = 0;

	mov	DWORD PTR [eax+4], ecx

; 530  : 		_Buf._Hiwater = 0;

	mov	DWORD PTR [eax+8], ecx

; 531  : 		_Buf._Size = _Count;	// memorize size for lazy allocation

	mov	ecx, DWORD PTR __Count$[esp-4]
	mov	DWORD PTR [eax+12], ecx

; 532  : 		_Pbuf = &_Buf;

	mov	DWORD PTR [eax+16], eax

; 533  : 		}

	ret	4
??0?$_Temp_iterator@UWeightedElement@?$CvWeightedVector@UBuilderDirective@@$0GE@$00@@@std@@QAE@H@Z ENDP ; std::_Temp_iterator<CvWeightedVector<BuilderDirective,100,1>::WeightedElement>::_Temp_iterator<CvWeightedVector<BuilderDirective,100,1>::WeightedElement>
_TEXT	ENDS
PUBLIC	??$_Destroy@UWeightedElement@?$CvWeightedVector@UBuilderDirective@@$0GE@$00@@@std@@YAXPAUWeightedElement@?$CvWeightedVector@UBuilderDirective@@$0GE@$00@@@Z ; std::_Destroy<CvWeightedVector<BuilderDirective,100,1>::WeightedElement>
; Function compile flags: /Ogtpy
; File c:\program files (x86)\microsoft visual studio 9.0\vc\include\xmemory
;	COMDAT ??$_Destroy@UWeightedElement@?$CvWeightedVector@UBuilderDirective@@$0GE@$00@@@std@@YAXPAUWeightedElement@?$CvWeightedVector@UBuilderDirective@@$0GE@$00@@@Z
_TEXT	SEGMENT
__Ptr$ = 8						; size = 4
??$_Destroy@UWeightedElement@?$CvWeightedVector@UBuilderDirective@@$0GE@$00@@@std@@YAXPAUWeightedElement@?$CvWeightedVector@UBuilderDirective@@$0GE@$00@@@Z PROC ; std::_Destroy<CvWeightedVector<BuilderDirective,100,1>::WeightedElement>, COMDAT

; 59   : 	_DESTRUCTOR(_Ty, _Ptr);
; 60   : 	}

	ret	0
??$_Destroy@UWeightedElement@?$CvWeightedVector@UBuilderDirective@@$0GE@$00@@@std@@YAXPAUWeightedElement@?$CvWeightedVector@UBuilderDirective@@$0GE@$00@@@Z ENDP ; std::_Destroy<CvWeightedVector<BuilderDirective,100,1>::WeightedElement>
_TEXT	ENDS
PUBLIC	??$return_temporary_buffer@UWeightedElement@?$CvWeightedVector@UBuilderDirective@@$0GE@$00@@@std@@YAXPAUWeightedElement@?$CvWeightedVector@UBuilderDirective@@$0GE@$00@@@Z ; std::return_temporary_buffer<CvWeightedVector<BuilderDirective,100,1>::WeightedElement>
; Function compile flags: /Ogtpy
; File c:\program files (x86)\microsoft visual studio 9.0\vc\include\memory
;	COMDAT ??$return_temporary_buffer@UWeightedElement@?$CvWeightedVector@UBuilderDirective@@$0GE@$00@@@std@@YAXPAUWeightedElement@?$CvWeightedVector@UBuilderDirective@@$0GE@$00@@@Z
_TEXT	SEGMENT
__Pbuf$ = 8						; size = 4
??$return_temporary_buffer@UWeightedElement@?$CvWeightedVector@UBuilderDirective@@$0GE@$00@@@std@@YAXPAUWeightedElement@?$CvWeightedVector@UBuilderDirective@@$0GE@$00@@@Z PROC ; std::return_temporary_buffer<CvWeightedVector<BuilderDirective,100,1>::WeightedElement>, COMDAT

; 39   : 	operator delete(_Pbuf);

	jmp	??3@YAXPAX@Z				; operator delete
??$return_temporary_buffer@UWeightedElement@?$CvWeightedVector@UBuilderDirective@@$0GE@$00@@@std@@YAXPAUWeightedElement@?$CvWeightedVector@UBuilderDirective@@$0GE@$00@@@Z ENDP ; std::return_temporary_buffer<CvWeightedVector<BuilderDirective,100,1>::WeightedElement>
_TEXT	ENDS
PUBLIC	??$_Iter_cat@PAUWeightedElement@?$CvWeightedVector@UBuilderDirective@@$0GE@$00@@@std@@YA?AUrandom_access_iterator_tag@0@ABQAUWeightedElement@?$CvWeightedVector@UBuilderDirective@@$0GE@$00@@@Z ; std::_Iter_cat<CvWeightedVector<BuilderDirective,100,1>::WeightedElement *>
; Function compile flags: /Ogtpy
; File c:\program files (x86)\microsoft visual studio 9.0\vc\include\xutility
;	COMDAT ??$_Iter_cat@PAUWeightedElement@?$CvWeightedVector@UBuilderDirective@@$0GE@$00@@@std@@YA?AUrandom_access_iterator_tag@0@ABQAUWeightedElement@?$CvWeightedVector@UBuilderDirective@@$0GE@$00@@@Z
_TEXT	SEGMENT
___$ReturnUdt$ = 8					; size = 4
___formal$ = 12						; size = 4
??$_Iter_cat@PAUWeightedElement@?$CvWeightedVector@UBuilderDirective@@$0GE@$00@@@std@@YA?AUrandom_access_iterator_tag@0@ABQAUWeightedElement@?$CvWeightedVector@UBuilderDirective@@$0GE@$00@@@Z PROC ; std::_Iter_cat<CvWeightedVector<BuilderDirective,100,1>::WeightedElement *>, COMDAT

; 953  : 	typename iterator_traits<_Iter>::iterator_category _Cat;
; 954  : 	return (_Cat);

	mov	eax, DWORD PTR ___$ReturnUdt$[esp-4]

; 955  : 	}

	ret	0
??$_Iter_cat@PAUWeightedElement@?$CvWeightedVector@UBuilderDirective@@$0GE@$00@@@std@@YA?AUrandom_access_iterator_tag@0@ABQAUWeightedElement@?$CvWeightedVector@UBuilderDirective@@$0GE@$00@@@Z ENDP ; std::_Iter_cat<CvWeightedVector<BuilderDirective,100,1>::WeightedElement *>
_TEXT	ENDS
PUBLIC	??$_Distance2@PAUWeightedElement@?$CvWeightedVector@UBuilderDirective@@$0GE@$00@@H@std@@YAXPAUWeightedElement@?$CvWeightedVector@UBuilderDirective@@$0GE@$00@@0AAHUrandom_access_iterator_tag@0@@Z ; std::_Distance2<CvWeightedVector<BuilderDirective,100,1>::WeightedElement *,int>
; Function compile flags: /Ogtpy
;	COMDAT ??$_Distance2@PAUWeightedElement@?$CvWeightedVector@UBuilderDirective@@$0GE@$00@@H@std@@YAXPAUWeightedElement@?$CvWeightedVector@UBuilderDirective@@$0GE@$00@@0AAHUrandom_access_iterator_tag@0@@Z
_TEXT	SEGMENT
__First$ = 8						; size = 4
__Last$ = 12						; size = 4
__Off$ = 16						; size = 4
___formal$ = 20						; size = 1
??$_Distance2@PAUWeightedElement@?$CvWeightedVector@UBuilderDirective@@$0GE@$00@@H@std@@YAXPAUWeightedElement@?$CvWeightedVector@UBuilderDirective@@$0GE@$00@@0AAHUrandom_access_iterator_tag@0@@Z PROC ; std::_Distance2<CvWeightedVector<BuilderDirective,100,1>::WeightedElement *,int>, COMDAT

; 1867 : 
; 1868 :  #if _HAS_ITERATOR_DEBUGGING
; 1869 : 	if (_First != _Last)
; 1870 : 		{	// check for null pointers
; 1871 : 		_DEBUG_POINTER(_First);
; 1872 : 		_DEBUG_POINTER(_Last);
; 1873 : 		}
; 1874 :  #endif /* _HAS_ITERATOR_DEBUGGING */
; 1875 : 
; 1876 : 	_Off += _Last - _First;

	mov	ecx, DWORD PTR __Last$[esp-4]
	sub	ecx, DWORD PTR __First$[esp-4]
	mov	eax, 715827883				; 2aaaaaabH
	imul	ecx
	mov	eax, DWORD PTR __Off$[esp-4]
	sar	edx, 2
	mov	ecx, edx
	shr	ecx, 31					; 0000001fH
	add	ecx, edx
	add	DWORD PTR [eax], ecx

; 1877 : 	}

	ret	0
??$_Distance2@PAUWeightedElement@?$CvWeightedVector@UBuilderDirective@@$0GE@$00@@H@std@@YAXPAUWeightedElement@?$CvWeightedVector@UBuilderDirective@@$0GE@$00@@0AAHUrandom_access_iterator_tag@0@@Z ENDP ; std::_Distance2<CvWeightedVector<BuilderDirective,100,1>::WeightedElement *,int>
_TEXT	ENDS
PUBLIC	??MWeightedElement@?$CvWeightedVector@UBuilderDirective@@$0GE@$00@@QBE_NABU01@@Z ; CvWeightedVector<BuilderDirective,100,1>::WeightedElement::operator<
; Function compile flags: /Ogtpy
; File c:\users\enormousapplepie\documents\github\lekmod\lekmod_dll\cvgamecoredllutil\include\cvweightedvector.h
;	COMDAT ??MWeightedElement@?$CvWeightedVector@UBuilderDirective@@$0GE@$00@@QBE_NABU01@@Z
_TEXT	SEGMENT
_b2$ = 8						; size = 4
??MWeightedElement@?$CvWeightedVector@UBuilderDirective@@$0GE@$00@@QBE_NABU01@@Z PROC ; CvWeightedVector<BuilderDirective,100,1>::WeightedElement::operator<, COMDAT
; _this$ = ecx

; 45   : 			// Reverse of the normal direction because we want highest weight first in our list
; 46   : 			return m_iWeight > b2.m_iWeight;

	mov	eax, DWORD PTR [ecx+20]
	mov	edx, DWORD PTR _b2$[esp-4]
	xor	ecx, ecx
	cmp	eax, DWORD PTR [edx+20]
	setg	cl
	mov	al, cl

; 47   : 		};

	ret	4
??MWeightedElement@?$CvWeightedVector@UBuilderDirective@@$0GE@$00@@QBE_NABU01@@Z ENDP ; CvWeightedVector<BuilderDirective,100,1>::WeightedElement::operator<
_TEXT	ENDS
PUBLIC	?_Init@?$_Temp_iterator@UWeightedElement@?$CvWeightedVector@UBuilderDirective@@$0GE@$00@@@std@@QAEAAV12@XZ ; std::_Temp_iterator<CvWeightedVector<BuilderDirective,100,1>::WeightedElement>::_Init
; Function compile flags: /Ogtpy
; File c:\program files (x86)\microsoft visual studio 9.0\vc\include\memory
;	COMDAT ?_Init@?$_Temp_iterator@UWeightedElement@?$CvWeightedVector@UBuilderDirective@@$0GE@$00@@@std@@QAEAAV12@XZ
_TEXT	SEGMENT
?_Init@?$_Temp_iterator@UWeightedElement@?$CvWeightedVector@UBuilderDirective@@$0GE@$00@@@std@@QAEAAV12@XZ PROC ; std::_Temp_iterator<CvWeightedVector<BuilderDirective,100,1>::WeightedElement>::_Init, COMDAT
; _this$ = ecx

; 591  : 		{	// set pointer at beginning of buffer

	mov	eax, ecx

; 592  : 		_Pbuf->_Current = _Pbuf->_Begin;

	mov	ecx, DWORD PTR [eax+16]
	mov	edx, DWORD PTR [ecx]
	mov	DWORD PTR [ecx+4], edx

; 593  : 		return (*this);
; 594  : 		}

	ret	0
?_Init@?$_Temp_iterator@UWeightedElement@?$CvWeightedVector@UBuilderDirective@@$0GE@$00@@@std@@QAEAAV12@XZ ENDP ; std::_Temp_iterator<CvWeightedVector<BuilderDirective,100,1>::WeightedElement>::_Init
_TEXT	ENDS
PUBLIC	?_First@?$_Temp_iterator@UWeightedElement@?$CvWeightedVector@UBuilderDirective@@$0GE@$00@@@std@@QBEPAUWeightedElement@?$CvWeightedVector@UBuilderDirective@@$0GE@$00@@XZ ; std::_Temp_iterator<CvWeightedVector<BuilderDirective,100,1>::WeightedElement>::_First
; Function compile flags: /Ogtpy
;	COMDAT ?_First@?$_Temp_iterator@UWeightedElement@?$CvWeightedVector@UBuilderDirective@@$0GE@$00@@@std@@QBEPAUWeightedElement@?$CvWeightedVector@UBuilderDirective@@$0GE@$00@@XZ
_TEXT	SEGMENT
?_First@?$_Temp_iterator@UWeightedElement@?$CvWeightedVector@UBuilderDirective@@$0GE@$00@@@std@@QBEPAUWeightedElement@?$CvWeightedVector@UBuilderDirective@@$0GE@$00@@XZ PROC ; std::_Temp_iterator<CvWeightedVector<BuilderDirective,100,1>::WeightedElement>::_First, COMDAT
; _this$ = ecx

; 598  : 		return (_Pbuf->_Begin);

	mov	eax, DWORD PTR [ecx+16]
	mov	eax, DWORD PTR [eax]

; 599  : 		}

	ret	0
?_First@?$_Temp_iterator@UWeightedElement@?$CvWeightedVector@UBuilderDirective@@$0GE@$00@@@std@@QBEPAUWeightedElement@?$CvWeightedVector@UBuilderDirective@@$0GE@$00@@XZ ENDP ; std::_Temp_iterator<CvWeightedVector<BuilderDirective,100,1>::WeightedElement>::_First
_TEXT	ENDS
PUBLIC	?_Last@?$_Temp_iterator@UWeightedElement@?$CvWeightedVector@UBuilderDirective@@$0GE@$00@@@std@@QBEPAUWeightedElement@?$CvWeightedVector@UBuilderDirective@@$0GE@$00@@XZ ; std::_Temp_iterator<CvWeightedVector<BuilderDirective,100,1>::WeightedElement>::_Last
; Function compile flags: /Ogtpy
;	COMDAT ?_Last@?$_Temp_iterator@UWeightedElement@?$CvWeightedVector@UBuilderDirective@@$0GE@$00@@@std@@QBEPAUWeightedElement@?$CvWeightedVector@UBuilderDirective@@$0GE@$00@@XZ
_TEXT	SEGMENT
?_Last@?$_Temp_iterator@UWeightedElement@?$CvWeightedVector@UBuilderDirective@@$0GE@$00@@@std@@QBEPAUWeightedElement@?$CvWeightedVector@UBuilderDirective@@$0GE@$00@@XZ PROC ; std::_Temp_iterator<CvWeightedVector<BuilderDirective,100,1>::WeightedElement>::_Last, COMDAT
; _this$ = ecx

; 603  : 		return (_Pbuf->_Current);

	mov	eax, DWORD PTR [ecx+16]
	mov	eax, DWORD PTR [eax+4]

; 604  : 		}

	ret	0
?_Last@?$_Temp_iterator@UWeightedElement@?$CvWeightedVector@UBuilderDirective@@$0GE@$00@@@std@@QBEPAUWeightedElement@?$CvWeightedVector@UBuilderDirective@@$0GE@$00@@XZ ENDP ; std::_Temp_iterator<CvWeightedVector<BuilderDirective,100,1>::WeightedElement>::_Last
_TEXT	ENDS
PUBLIC	??0?$pair@PAUWeightedElement@?$CvWeightedVector@UBuilderDirective@@$0GE@$00@@H@std@@QAE@ABQAUWeightedElement@?$CvWeightedVector@UBuilderDirective@@$0GE@$00@@ABH@Z ; std::pair<CvWeightedVector<BuilderDirective,100,1>::WeightedElement *,int>::pair<CvWeightedVector<BuilderDirective,100,1>::WeightedElement *,int>
; Function compile flags: /Ogtpy
; File c:\program files (x86)\microsoft visual studio 9.0\vc\include\utility
;	COMDAT ??0?$pair@PAUWeightedElement@?$CvWeightedVector@UBuilderDirective@@$0GE@$00@@H@std@@QAE@ABQAUWeightedElement@?$CvWeightedVector@UBuilderDirective@@$0GE@$00@@ABH@Z
_TEXT	SEGMENT
__Val1$ = 8						; size = 4
__Val2$ = 12						; size = 4
??0?$pair@PAUWeightedElement@?$CvWeightedVector@UBuilderDirective@@$0GE@$00@@H@std@@QAE@ABQAUWeightedElement@?$CvWeightedVector@UBuilderDirective@@$0GE@$00@@ABH@Z PROC ; std::pair<CvWeightedVector<BuilderDirective,100,1>::WeightedElement *,int>::pair<CvWeightedVector<BuilderDirective,100,1>::WeightedElement *,int>, COMDAT
; _this$ = ecx

; 50   : 		{	// construct from specified values

	mov	eax, ecx
	mov	ecx, DWORD PTR __Val1$[esp-4]
	mov	edx, DWORD PTR [ecx]
	mov	ecx, DWORD PTR __Val2$[esp-4]
	mov	DWORD PTR [eax], edx
	mov	edx, DWORD PTR [ecx]
	mov	DWORD PTR [eax+4], edx

; 51   : 		}

	ret	8
??0?$pair@PAUWeightedElement@?$CvWeightedVector@UBuilderDirective@@$0GE@$00@@H@std@@QAE@ABQAUWeightedElement@?$CvWeightedVector@UBuilderDirective@@$0GE@$00@@ABH@Z ENDP ; std::pair<CvWeightedVector<BuilderDirective,100,1>::WeightedElement *,int>::pair<CvWeightedVector<BuilderDirective,100,1>::WeightedElement *,int>
_TEXT	ENDS
PUBLIC	??4?$_Temp_iterator@UWeightedElement@?$CvWeightedVector@UBuilderDirective@@$0GE@$00@@@std@@QAEAAV01@ABV01@@Z ; std::_Temp_iterator<CvWeightedVector<BuilderDirective,100,1>::WeightedElement>::operator=
; Function compile flags: /Ogtpy
; File c:\program files (x86)\microsoft visual studio 9.0\vc\include\memory
;	COMDAT ??4?$_Temp_iterator@UWeightedElement@?$CvWeightedVector@UBuilderDirective@@$0GE@$00@@@std@@QAEAAV01@ABV01@@Z
_TEXT	SEGMENT
__Right$ = 8						; size = 4
??4?$_Temp_iterator@UWeightedElement@?$CvWeightedVector@UBuilderDirective@@$0GE@$00@@@std@@QAEAAV01@ABV01@@Z PROC ; std::_Temp_iterator<CvWeightedVector<BuilderDirective,100,1>::WeightedElement>::operator=, COMDAT
; _this$ = ecx

; 556  : 		{	// assign _Right (share active buffer)

	mov	eax, ecx

; 557  : 		_Pbuf = _Right._Pbuf;

	mov	ecx, DWORD PTR __Right$[esp-4]
	mov	edx, DWORD PTR [ecx+16]
	mov	DWORD PTR [eax+16], edx

; 558  : 		return (*this);
; 559  : 		}

	ret	4
??4?$_Temp_iterator@UWeightedElement@?$CvWeightedVector@UBuilderDirective@@$0GE@$00@@@std@@QAEAAV01@ABV01@@Z ENDP ; std::_Temp_iterator<CvWeightedVector<BuilderDirective,100,1>::WeightedElement>::operator=
_TEXT	ENDS
PUBLIC	??$_Advance@PAUWeightedElement@?$CvWeightedVector@UBuilderDirective@@$0GE@$00@@H@std@@YAXAAPAUWeightedElement@?$CvWeightedVector@UBuilderDirective@@$0GE@$00@@HUrandom_access_iterator_tag@0@@Z ; std::_Advance<CvWeightedVector<BuilderDirective,100,1>::WeightedElement *,int>
; Function compile flags: /Ogtpy
; File c:\program files (x86)\microsoft visual studio 9.0\vc\include\xutility
;	COMDAT ??$_Advance@PAUWeightedElement@?$CvWeightedVector@UBuilderDirective@@$0GE@$00@@H@std@@YAXAAPAUWeightedElement@?$CvWeightedVector@UBuilderDirective@@$0GE@$00@@HUrandom_access_iterator_tag@0@@Z
_TEXT	SEGMENT
__Where$ = 8						; size = 4
__Off$ = 12						; size = 4
___formal$ = 16						; size = 1
??$_Advance@PAUWeightedElement@?$CvWeightedVector@UBuilderDirective@@$0GE@$00@@H@std@@YAXAAPAUWeightedElement@?$CvWeightedVector@UBuilderDirective@@$0GE@$00@@HUrandom_access_iterator_tag@0@@Z PROC ; std::_Advance<CvWeightedVector<BuilderDirective,100,1>::WeightedElement *,int>, COMDAT

; 1822 : 	_Where += _Off;

	mov	eax, DWORD PTR __Off$[esp-4]
	lea	ecx, DWORD PTR [eax+eax*2]
	mov	eax, DWORD PTR __Where$[esp-4]
	add	ecx, ecx
	add	ecx, ecx
	add	ecx, ecx
	add	DWORD PTR [eax], ecx

; 1823 : 	}

	ret	0
??$_Advance@PAUWeightedElement@?$CvWeightedVector@UBuilderDirective@@$0GE@$00@@H@std@@YAXAAPAUWeightedElement@?$CvWeightedVector@UBuilderDirective@@$0GE@$00@@HUrandom_access_iterator_tag@0@@Z ENDP ; std::_Advance<CvWeightedVector<BuilderDirective,100,1>::WeightedElement *,int>
_TEXT	ENDS
PUBLIC	??$swap@UWeightedElement@?$CvWeightedVector@UBuilderDirective@@$0GE@$00@@@std@@YAXAAUWeightedElement@?$CvWeightedVector@UBuilderDirective@@$0GE@$00@@0@Z ; std::swap<CvWeightedVector<BuilderDirective,100,1>::WeightedElement>
; Function compile flags: /Ogtpy
; File c:\program files (x86)\microsoft visual studio 9.0\vc\include\utility
;	COMDAT ??$swap@UWeightedElement@?$CvWeightedVector@UBuilderDirective@@$0GE@$00@@@std@@YAXAAUWeightedElement@?$CvWeightedVector@UBuilderDirective@@$0GE@$00@@0@Z
_TEXT	SEGMENT
__Tmp$220404 = -24					; size = 24
__Left$ = 8						; size = 4
__Right$ = 12						; size = 4
??$swap@UWeightedElement@?$CvWeightedVector@UBuilderDirective@@$0GE@$00@@@std@@YAXAAUWeightedElement@?$CvWeightedVector@UBuilderDirective@@$0GE@$00@@0@Z PROC ; std::swap<CvWeightedVector<BuilderDirective,100,1>::WeightedElement>, COMDAT

; 18   : 	if (&_Left != &_Right)

	mov	eax, DWORD PTR __Left$[esp-4]
	mov	ecx, DWORD PTR __Right$[esp-4]
	sub	esp, 24					; 00000018H
	cmp	eax, ecx
	je	SHORT $LN1@swap

; 19   : 		{	// different, worth swapping
; 20   : 		_Ty _Tmp = _Left;

	mov	edx, DWORD PTR [eax]
	push	ebx
	mov	ebx, DWORD PTR [eax+12]
	push	ebp
	mov	ebp, DWORD PTR [eax+16]
	mov	DWORD PTR __Tmp$220404[esp+48], ebp
	mov	ebp, DWORD PTR [eax+20]
	mov	DWORD PTR __Tmp$220404[esp+52], ebp

; 21   : 
; 22   : 		_Left = _Right;

	mov	ebp, DWORD PTR [ecx]
	push	esi
	mov	esi, DWORD PTR [eax+4]
	push	edi
	mov	edi, DWORD PTR [eax+8]
	mov	DWORD PTR [eax], ebp
	mov	ebp, DWORD PTR [ecx+4]
	mov	DWORD PTR [eax+4], ebp
	mov	ebp, DWORD PTR [ecx+8]
	mov	DWORD PTR [eax+8], ebp
	mov	ebp, DWORD PTR [ecx+12]
	mov	DWORD PTR [eax+12], ebp
	mov	ebp, DWORD PTR [ecx+16]
	mov	DWORD PTR [eax+16], ebp
	mov	ebp, DWORD PTR [ecx+20]
	mov	DWORD PTR [eax+20], ebp

; 23   : 		_Right = _Tmp;

	mov	eax, DWORD PTR __Tmp$220404[esp+56]
	mov	DWORD PTR [ecx], edx
	mov	edx, DWORD PTR __Tmp$220404[esp+60]
	mov	DWORD PTR [ecx+4], esi
	mov	DWORD PTR [ecx+8], edi
	pop	edi
	pop	esi
	mov	DWORD PTR [ecx+12], ebx
	pop	ebp
	mov	DWORD PTR [ecx+16], eax
	mov	DWORD PTR [ecx+20], edx
	pop	ebx
$LN1@swap:

; 24   : 		}
; 25   : 	}

	add	esp, 24					; 00000018H
	ret	0
??$swap@UWeightedElement@?$CvWeightedVector@UBuilderDirective@@$0GE@$00@@@std@@YAXAAUWeightedElement@?$CvWeightedVector@UBuilderDirective@@$0GE@$00@@0@Z ENDP ; std::swap<CvWeightedVector<BuilderDirective,100,1>::WeightedElement>
_TEXT	ENDS
PUBLIC	??$_Iter_random@PAUWeightedElement@?$CvWeightedVector@UBuilderDirective@@$0GE@$00@@V?$_Temp_iterator@UWeightedElement@?$CvWeightedVector@UBuilderDirective@@$0GE@$00@@@std@@@std@@YA?AUforward_iterator_tag@0@ABQAUWeightedElement@?$CvWeightedVector@UBuilderDirective@@$0GE@$00@@ABV?$_Temp_iterator@UWeightedElement@?$CvWeightedVector@UBuilderDirective@@$0GE@$00@@@0@@Z ; std::_Iter_random<CvWeightedVector<BuilderDirective,100,1>::WeightedElement *,std::_Temp_iterator<CvWeightedVector<BuilderDirective,100,1>::WeightedElement> >
; Function compile flags: /Ogtpy
; File c:\program files (x86)\microsoft visual studio 9.0\vc\include\xutility
;	COMDAT ??$_Iter_random@PAUWeightedElement@?$CvWeightedVector@UBuilderDirective@@$0GE@$00@@V?$_Temp_iterator@UWeightedElement@?$CvWeightedVector@UBuilderDirective@@$0GE@$00@@@std@@@std@@YA?AUforward_iterator_tag@0@ABQAUWeightedElement@?$CvWeightedVector@UBuilderDirective@@$0GE@$00@@ABV?$_Temp_iterator@UWeightedElement@?$CvWeightedVector@UBuilderDirective@@$0GE@$00@@@0@@Z
_TEXT	SEGMENT
___$ReturnUdt$ = 8					; size = 4
___formal$ = 12						; size = 4
___formal$ = 16						; size = 4
??$_Iter_random@PAUWeightedElement@?$CvWeightedVector@UBuilderDirective@@$0GE@$00@@V?$_Temp_iterator@UWeightedElement@?$CvWeightedVector@UBuilderDirective@@$0GE@$00@@@std@@@std@@YA?AUforward_iterator_tag@0@ABQAUWeightedElement@?$CvWeightedVector@UBuilderDirective@@$0GE@$00@@ABV?$_Temp_iterator@UWeightedElement@?$CvWeightedVector@UBuilderDirective@@$0GE@$00@@@0@@Z PROC ; std::_Iter_random<CvWeightedVector<BuilderDirective,100,1>::WeightedElement *,std::_Temp_iterator<CvWeightedVector<BuilderDirective,100,1>::WeightedElement> >, COMDAT

; 994  : 	typename _Iter_random_helper<
; 995  : 		iterator_traits<_Iter1>::iterator_category, 
; 996  : 		iterator_traits<_Iter2>::iterator_category>::_Iter_random_cat _Cat;
; 997  : 	return (_Cat);

	mov	eax, DWORD PTR ___$ReturnUdt$[esp-4]

; 998  : 	}

	ret	0
??$_Iter_random@PAUWeightedElement@?$CvWeightedVector@UBuilderDirective@@$0GE@$00@@V?$_Temp_iterator@UWeightedElement@?$CvWeightedVector@UBuilderDirective@@$0GE@$00@@@std@@@std@@YA?AUforward_iterator_tag@0@ABQAUWeightedElement@?$CvWeightedVector@UBuilderDirective@@$0GE@$00@@ABV?$_Temp_iterator@UWeightedElement@?$CvWeightedVector@UBuilderDirective@@$0GE@$00@@@0@@Z ENDP ; std::_Iter_random<CvWeightedVector<BuilderDirective,100,1>::WeightedElement *,std::_Temp_iterator<CvWeightedVector<BuilderDirective,100,1>::WeightedElement> >
_TEXT	ENDS
PUBLIC	??$_Ptr_cat@PAUWeightedElement@?$CvWeightedVector@UBuilderDirective@@$0GE@$00@@V?$_Temp_iterator@UWeightedElement@?$CvWeightedVector@UBuilderDirective@@$0GE@$00@@@std@@@std@@YA?AU_Nonscalar_ptr_iterator_tag@0@AAPAUWeightedElement@?$CvWeightedVector@UBuilderDirective@@$0GE@$00@@AAV?$_Temp_iterator@UWeightedElement@?$CvWeightedVector@UBuilderDirective@@$0GE@$00@@@0@@Z ; std::_Ptr_cat<CvWeightedVector<BuilderDirective,100,1>::WeightedElement *,std::_Temp_iterator<CvWeightedVector<BuilderDirective,100,1>::WeightedElement> >
; Function compile flags: /Ogtpy
;	COMDAT ??$_Ptr_cat@PAUWeightedElement@?$CvWeightedVector@UBuilderDirective@@$0GE@$00@@V?$_Temp_iterator@UWeightedElement@?$CvWeightedVector@UBuilderDirective@@$0GE@$00@@@std@@@std@@YA?AU_Nonscalar_ptr_iterator_tag@0@AAPAUWeightedElement@?$CvWeightedVector@UBuilderDirective@@$0GE@$00@@AAV?$_Temp_iterator@UWeightedElement@?$CvWeightedVector@UBuilderDirective@@$0GE@$00@@@0@@Z
_TEXT	SEGMENT
__Cat$ = -1						; size = 1
___formal$ = 8						; size = 4
___formal$ = 12						; size = 4
??$_Ptr_cat@PAUWeightedElement@?$CvWeightedVector@UBuilderDirective@@$0GE@$00@@V?$_Temp_iterator@UWeightedElement@?$CvWeightedVector@UBuilderDirective@@$0GE@$00@@@std@@@std@@YA?AU_Nonscalar_ptr_iterator_tag@0@AAPAUWeightedElement@?$CvWeightedVector@UBuilderDirective@@$0GE@$00@@AAV?$_Temp_iterator@UWeightedElement@?$CvWeightedVector@UBuilderDirective@@$0GE@$00@@@0@@Z PROC ; std::_Ptr_cat<CvWeightedVector<BuilderDirective,100,1>::WeightedElement *,std::_Temp_iterator<CvWeightedVector<BuilderDirective,100,1>::WeightedElement> >, COMDAT

; 1509 : 	{

	push	ecx

; 1510 : 	typename _Ptr_cat_helper<_T1, _T2>::_Ptr_cat _Cat;
; 1511 : 	return (_Cat);

	mov	al, BYTE PTR __Cat$[esp+4]

; 1512 : 	}

	pop	ecx
	ret	0
??$_Ptr_cat@PAUWeightedElement@?$CvWeightedVector@UBuilderDirective@@$0GE@$00@@V?$_Temp_iterator@UWeightedElement@?$CvWeightedVector@UBuilderDirective@@$0GE@$00@@@std@@@std@@YA?AU_Nonscalar_ptr_iterator_tag@0@AAPAUWeightedElement@?$CvWeightedVector@UBuilderDirective@@$0GE@$00@@AAV?$_Temp_iterator@UWeightedElement@?$CvWeightedVector@UBuilderDirective@@$0GE@$00@@@0@@Z ENDP ; std::_Ptr_cat<CvWeightedVector<BuilderDirective,100,1>::WeightedElement *,std::_Temp_iterator<CvWeightedVector<BuilderDirective,100,1>::WeightedElement> >
_TEXT	ENDS
PUBLIC	??$_Iter_random@PAUWeightedElement@?$CvWeightedVector@UBuilderDirective@@$0GE@$00@@PAU12@PAU12@@std@@YA?AUrandom_access_iterator_tag@0@ABQAUWeightedElement@?$CvWeightedVector@UBuilderDirective@@$0GE@$00@@00@Z ; std::_Iter_random<CvWeightedVector<BuilderDirective,100,1>::WeightedElement *,CvWeightedVector<BuilderDirective,100,1>::WeightedElement *,CvWeightedVector<BuilderDirective,100,1>::WeightedElement *>
; Function compile flags: /Ogtpy
;	COMDAT ??$_Iter_random@PAUWeightedElement@?$CvWeightedVector@UBuilderDirective@@$0GE@$00@@PAU12@PAU12@@std@@YA?AUrandom_access_iterator_tag@0@ABQAUWeightedElement@?$CvWeightedVector@UBuilderDirective@@$0GE@$00@@00@Z
_TEXT	SEGMENT
___$ReturnUdt$ = 8					; size = 4
___formal$ = 12						; size = 4
___formal$ = 16						; size = 4
___formal$ = 20						; size = 4
??$_Iter_random@PAUWeightedElement@?$CvWeightedVector@UBuilderDirective@@$0GE@$00@@PAU12@PAU12@@std@@YA?AUrandom_access_iterator_tag@0@ABQAUWeightedElement@?$CvWeightedVector@UBuilderDirective@@$0GE@$00@@00@Z PROC ; std::_Iter_random<CvWeightedVector<BuilderDirective,100,1>::WeightedElement *,CvWeightedVector<BuilderDirective,100,1>::WeightedElement *,CvWeightedVector<BuilderDirective,100,1>::WeightedElement *>, COMDAT

; 1007 : 	typename _Iter_random_helper3<
; 1008 : 		iterator_traits<_Iter1>::iterator_category, 
; 1009 : 		iterator_traits<_Iter2>::iterator_category,
; 1010 : 		iterator_traits<_Iter3>::iterator_category>::_Iter_random_cat _Cat;
; 1011 : 	return (_Cat);

	mov	eax, DWORD PTR ___$ReturnUdt$[esp-4]

; 1012 : 	}

	ret	0
??$_Iter_random@PAUWeightedElement@?$CvWeightedVector@UBuilderDirective@@$0GE@$00@@PAU12@PAU12@@std@@YA?AUrandom_access_iterator_tag@0@ABQAUWeightedElement@?$CvWeightedVector@UBuilderDirective@@$0GE@$00@@00@Z ENDP ; std::_Iter_random<CvWeightedVector<BuilderDirective,100,1>::WeightedElement *,CvWeightedVector<BuilderDirective,100,1>::WeightedElement *,CvWeightedVector<BuilderDirective,100,1>::WeightedElement *>
_TEXT	ENDS
PUBLIC	??D?$_Temp_iterator@UWeightedElement@?$CvWeightedVector@UBuilderDirective@@$0GE@$00@@@std@@QAEAAV01@XZ ; std::_Temp_iterator<CvWeightedVector<BuilderDirective,100,1>::WeightedElement>::operator*
; Function compile flags: /Ogtpy
; File c:\program files (x86)\microsoft visual studio 9.0\vc\include\memory
;	COMDAT ??D?$_Temp_iterator@UWeightedElement@?$CvWeightedVector@UBuilderDirective@@$0GE@$00@@@std@@QAEAAV01@XZ
_TEXT	SEGMENT
??D?$_Temp_iterator@UWeightedElement@?$CvWeightedVector@UBuilderDirective@@$0GE@$00@@@std@@QAEAAV01@XZ PROC ; std::_Temp_iterator<CvWeightedVector<BuilderDirective,100,1>::WeightedElement>::operator*, COMDAT
; _this$ = ecx

; 576  : 		{	// pretend to return designated value

	mov	eax, ecx

; 577  : 		return (*this);
; 578  : 		}

	ret	0
??D?$_Temp_iterator@UWeightedElement@?$CvWeightedVector@UBuilderDirective@@$0GE@$00@@@std@@QAEAAV01@XZ ENDP ; std::_Temp_iterator<CvWeightedVector<BuilderDirective,100,1>::WeightedElement>::operator*
_TEXT	ENDS
PUBLIC	??E?$_Temp_iterator@UWeightedElement@?$CvWeightedVector@UBuilderDirective@@$0GE@$00@@@std@@QAEAAV01@XZ ; std::_Temp_iterator<CvWeightedVector<BuilderDirective,100,1>::WeightedElement>::operator++
; Function compile flags: /Ogtpy
;	COMDAT ??E?$_Temp_iterator@UWeightedElement@?$CvWeightedVector@UBuilderDirective@@$0GE@$00@@@std@@QAEAAV01@XZ
_TEXT	SEGMENT
??E?$_Temp_iterator@UWeightedElement@?$CvWeightedVector@UBuilderDirective@@$0GE@$00@@@std@@QAEAAV01@XZ PROC ; std::_Temp_iterator<CvWeightedVector<BuilderDirective,100,1>::WeightedElement>::operator++, COMDAT
; _this$ = ecx

; 581  : 		{	// pretend to preincrement

	mov	eax, ecx

; 582  : 		return (*this);
; 583  : 		}

	ret	0
??E?$_Temp_iterator@UWeightedElement@?$CvWeightedVector@UBuilderDirective@@$0GE@$00@@@std@@QAEAAV01@XZ ENDP ; std::_Temp_iterator<CvWeightedVector<BuilderDirective,100,1>::WeightedElement>::operator++
_TEXT	ENDS
PUBLIC	??$_Iter_random@PAUWeightedElement@?$CvWeightedVector@UBuilderDirective@@$0GE@$00@@PAU12@@std@@YA?AUrandom_access_iterator_tag@0@ABQAUWeightedElement@?$CvWeightedVector@UBuilderDirective@@$0GE@$00@@0@Z ; std::_Iter_random<CvWeightedVector<BuilderDirective,100,1>::WeightedElement *,CvWeightedVector<BuilderDirective,100,1>::WeightedElement *>
; Function compile flags: /Ogtpy
; File c:\program files (x86)\microsoft visual studio 9.0\vc\include\xutility
;	COMDAT ??$_Iter_random@PAUWeightedElement@?$CvWeightedVector@UBuilderDirective@@$0GE@$00@@PAU12@@std@@YA?AUrandom_access_iterator_tag@0@ABQAUWeightedElement@?$CvWeightedVector@UBuilderDirective@@$0GE@$00@@0@Z
_TEXT	SEGMENT
___$ReturnUdt$ = 8					; size = 4
___formal$ = 12						; size = 4
___formal$ = 16						; size = 4
??$_Iter_random@PAUWeightedElement@?$CvWeightedVector@UBuilderDirective@@$0GE@$00@@PAU12@@std@@YA?AUrandom_access_iterator_tag@0@ABQAUWeightedElement@?$CvWeightedVector@UBuilderDirective@@$0GE@$00@@0@Z PROC ; std::_Iter_random<CvWeightedVector<BuilderDirective,100,1>::WeightedElement *,CvWeightedVector<BuilderDirective,100,1>::WeightedElement *>, COMDAT

; 994  : 	typename _Iter_random_helper<
; 995  : 		iterator_traits<_Iter1>::iterator_category, 
; 996  : 		iterator_traits<_Iter2>::iterator_category>::_Iter_random_cat _Cat;
; 997  : 	return (_Cat);

	mov	eax, DWORD PTR ___$ReturnUdt$[esp-4]

; 998  : 	}

	ret	0
??$_Iter_random@PAUWeightedElement@?$CvWeightedVector@UBuilderDirective@@$0GE@$00@@PAU12@@std@@YA?AUrandom_access_iterator_tag@0@ABQAUWeightedElement@?$CvWeightedVector@UBuilderDirective@@$0GE@$00@@0@Z ENDP ; std::_Iter_random<CvWeightedVector<BuilderDirective,100,1>::WeightedElement *,CvWeightedVector<BuilderDirective,100,1>::WeightedElement *>
_TEXT	ENDS
PUBLIC	??$_Ptr_cat@PAUWeightedElement@?$CvWeightedVector@UBuilderDirective@@$0GE@$00@@PAU12@@std@@YA?AU_Nonscalar_ptr_iterator_tag@0@AAPAUWeightedElement@?$CvWeightedVector@UBuilderDirective@@$0GE@$00@@0@Z ; std::_Ptr_cat<CvWeightedVector<BuilderDirective,100,1>::WeightedElement *,CvWeightedVector<BuilderDirective,100,1>::WeightedElement *>
; Function compile flags: /Ogtpy
;	COMDAT ??$_Ptr_cat@PAUWeightedElement@?$CvWeightedVector@UBuilderDirective@@$0GE@$00@@PAU12@@std@@YA?AU_Nonscalar_ptr_iterator_tag@0@AAPAUWeightedElement@?$CvWeightedVector@UBuilderDirective@@$0GE@$00@@0@Z
_TEXT	SEGMENT
__Cat$ = -1						; size = 1
___formal$ = 8						; size = 4
___formal$ = 12						; size = 4
??$_Ptr_cat@PAUWeightedElement@?$CvWeightedVector@UBuilderDirective@@$0GE@$00@@PAU12@@std@@YA?AU_Nonscalar_ptr_iterator_tag@0@AAPAUWeightedElement@?$CvWeightedVector@UBuilderDirective@@$0GE@$00@@0@Z PROC ; std::_Ptr_cat<CvWeightedVector<BuilderDirective,100,1>::WeightedElement *,CvWeightedVector<BuilderDirective,100,1>::WeightedElement *>, COMDAT

; 1509 : 	{

	push	ecx

; 1510 : 	typename _Ptr_cat_helper<_T1, _T2>::_Ptr_cat _Cat;
; 1511 : 	return (_Cat);

	mov	al, BYTE PTR __Cat$[esp+4]

; 1512 : 	}

	pop	ecx
	ret	0
??$_Ptr_cat@PAUWeightedElement@?$CvWeightedVector@UBuilderDirective@@$0GE@$00@@PAU12@@std@@YA?AU_Nonscalar_ptr_iterator_tag@0@AAPAUWeightedElement@?$CvWeightedVector@UBuilderDirective@@$0GE@$00@@0@Z ENDP ; std::_Ptr_cat<CvWeightedVector<BuilderDirective,100,1>::WeightedElement *,CvWeightedVector<BuilderDirective,100,1>::WeightedElement *>
_TEXT	ENDS
PUBLIC	??$_Copy_backward_opt@PAUWeightedElement@?$CvWeightedVector@UBuilderDirective@@$0GE@$00@@PAU12@Urandom_access_iterator_tag@std@@@std@@YAPAUWeightedElement@?$CvWeightedVector@UBuilderDirective@@$0GE@$00@@PAU12@00Urandom_access_iterator_tag@0@U_Nonscalar_ptr_iterator_tag@0@U_Range_checked_iterator_tag@0@@Z ; std::_Copy_backward_opt<CvWeightedVector<BuilderDirective,100,1>::WeightedElement *,CvWeightedVector<BuilderDirective,100,1>::WeightedElement *,std::random_access_iterator_tag>
; Function compile flags: /Ogtpy
;	COMDAT ??$_Copy_backward_opt@PAUWeightedElement@?$CvWeightedVector@UBuilderDirective@@$0GE@$00@@PAU12@Urandom_access_iterator_tag@std@@@std@@YAPAUWeightedElement@?$CvWeightedVector@UBuilderDirective@@$0GE@$00@@PAU12@00Urandom_access_iterator_tag@0@U_Nonscalar_ptr_iterator_tag@0@U_Range_checked_iterator_tag@0@@Z
_TEXT	SEGMENT
__First$ = 8						; size = 4
__Last$ = 12						; size = 4
__Dest$ = 16						; size = 4
___formal$ = 20						; size = 1
___formal$ = 24						; size = 1
___formal$ = 28						; size = 1
??$_Copy_backward_opt@PAUWeightedElement@?$CvWeightedVector@UBuilderDirective@@$0GE@$00@@PAU12@Urandom_access_iterator_tag@std@@@std@@YAPAUWeightedElement@?$CvWeightedVector@UBuilderDirective@@$0GE@$00@@PAU12@00Urandom_access_iterator_tag@0@U_Nonscalar_ptr_iterator_tag@0@U_Range_checked_iterator_tag@0@@Z PROC ; std::_Copy_backward_opt<CvWeightedVector<BuilderDirective,100,1>::WeightedElement *,CvWeightedVector<BuilderDirective,100,1>::WeightedElement *,std::random_access_iterator_tag>, COMDAT

; 2674 : 	_DEBUG_RANGE(_First, _Last);
; 2675 : 	while (_First != _Last)

	mov	edx, DWORD PTR __First$[esp-4]
	mov	ecx, DWORD PTR __Last$[esp-4]
	mov	eax, DWORD PTR __Dest$[esp-4]
	cmp	edx, ecx
	je	SHORT $LN1@Copy_backw
	push	esi
$LL2@Copy_backw:

; 2676 : 		*--_Dest = *--_Last;

	mov	esi, DWORD PTR [ecx-24]
	sub	ecx, 24					; 00000018H
	mov	DWORD PTR [eax-24], esi
	mov	esi, DWORD PTR [ecx+4]
	sub	eax, 24					; 00000018H
	mov	DWORD PTR [eax+4], esi
	mov	esi, DWORD PTR [ecx+8]
	mov	DWORD PTR [eax+8], esi
	mov	esi, DWORD PTR [ecx+12]
	mov	DWORD PTR [eax+12], esi
	mov	esi, DWORD PTR [ecx+16]
	mov	DWORD PTR [eax+16], esi
	mov	esi, DWORD PTR [ecx+20]
	mov	DWORD PTR [eax+20], esi
	cmp	ecx, edx
	jne	SHORT $LL2@Copy_backw
	pop	esi
$LN1@Copy_backw:

; 2677 : 	return (_Dest);
; 2678 : 	}

	ret	0
??$_Copy_backward_opt@PAUWeightedElement@?$CvWeightedVector@UBuilderDirective@@$0GE@$00@@PAU12@Urandom_access_iterator_tag@std@@@std@@YAPAUWeightedElement@?$CvWeightedVector@UBuilderDirective@@$0GE@$00@@PAU12@00Urandom_access_iterator_tag@0@U_Nonscalar_ptr_iterator_tag@0@U_Range_checked_iterator_tag@0@@Z ENDP ; std::_Copy_backward_opt<CvWeightedVector<BuilderDirective,100,1>::WeightedElement *,CvWeightedVector<BuilderDirective,100,1>::WeightedElement *,std::random_access_iterator_tag>
_TEXT	ENDS
PUBLIC	??$_Copy_opt@PAUWeightedElement@?$CvWeightedVector@UBuilderDirective@@$0GE@$00@@PAU12@Urandom_access_iterator_tag@std@@@std@@YAPAUWeightedElement@?$CvWeightedVector@UBuilderDirective@@$0GE@$00@@PAU12@00Urandom_access_iterator_tag@0@U_Nonscalar_ptr_iterator_tag@0@U_Range_checked_iterator_tag@0@@Z ; std::_Copy_opt<CvWeightedVector<BuilderDirective,100,1>::WeightedElement *,CvWeightedVector<BuilderDirective,100,1>::WeightedElement *,std::random_access_iterator_tag>
; Function compile flags: /Ogtpy
;	COMDAT ??$_Copy_opt@PAUWeightedElement@?$CvWeightedVector@UBuilderDirective@@$0GE@$00@@PAU12@Urandom_access_iterator_tag@std@@@std@@YAPAUWeightedElement@?$CvWeightedVector@UBuilderDirective@@$0GE@$00@@PAU12@00Urandom_access_iterator_tag@0@U_Nonscalar_ptr_iterator_tag@0@U_Range_checked_iterator_tag@0@@Z
_TEXT	SEGMENT
__First$ = 8						; size = 4
__Last$ = 12						; size = 4
__Dest$ = 16						; size = 4
___formal$ = 20						; size = 1
___formal$ = 24						; size = 1
___formal$ = 28						; size = 1
??$_Copy_opt@PAUWeightedElement@?$CvWeightedVector@UBuilderDirective@@$0GE@$00@@PAU12@Urandom_access_iterator_tag@std@@@std@@YAPAUWeightedElement@?$CvWeightedVector@UBuilderDirective@@$0GE@$00@@PAU12@00Urandom_access_iterator_tag@0@U_Nonscalar_ptr_iterator_tag@0@U_Range_checked_iterator_tag@0@@Z PROC ; std::_Copy_opt<CvWeightedVector<BuilderDirective,100,1>::WeightedElement *,CvWeightedVector<BuilderDirective,100,1>::WeightedElement *,std::random_access_iterator_tag>, COMDAT

; 2470 : 	_DEBUG_RANGE(_First, _Last);
; 2471 : 	for (; _First != _Last; ++_Dest, ++_First)

	mov	ecx, DWORD PTR __First$[esp-4]
	mov	edx, DWORD PTR __Last$[esp-4]
	mov	eax, DWORD PTR __Dest$[esp-4]
	cmp	ecx, edx
	je	SHORT $LN1@Copy_opt
	push	esi
$LL3@Copy_opt:

; 2472 : 		*_Dest = *_First;

	mov	esi, DWORD PTR [ecx]
	mov	DWORD PTR [eax], esi
	mov	esi, DWORD PTR [ecx+4]
	mov	DWORD PTR [eax+4], esi
	mov	esi, DWORD PTR [ecx+8]
	mov	DWORD PTR [eax+8], esi
	mov	esi, DWORD PTR [ecx+12]
	mov	DWORD PTR [eax+12], esi
	mov	esi, DWORD PTR [ecx+16]
	mov	DWORD PTR [eax+16], esi
	mov	esi, DWORD PTR [ecx+20]
	mov	DWORD PTR [eax+20], esi
	add	ecx, 24					; 00000018H
	add	eax, 24					; 00000018H
	cmp	ecx, edx
	jne	SHORT $LL3@Copy_opt
	pop	esi
$LN1@Copy_opt:

; 2473 : 	return (_Dest);
; 2474 : 	}

	ret	0
??$_Copy_opt@PAUWeightedElement@?$CvWeightedVector@UBuilderDirective@@$0GE@$00@@PAU12@Urandom_access_iterator_tag@std@@@std@@YAPAUWeightedElement@?$CvWeightedVector@UBuilderDirective@@$0GE@$00@@PAU12@00Urandom_access_iterator_tag@0@U_Nonscalar_ptr_iterator_tag@0@U_Range_checked_iterator_tag@0@@Z ENDP ; std::_Copy_opt<CvWeightedVector<BuilderDirective,100,1>::WeightedElement *,CvWeightedVector<BuilderDirective,100,1>::WeightedElement *,std::random_access_iterator_tag>
_TEXT	ENDS
PUBLIC	??$_Construct@UWeightedElement@?$CvWeightedVector@UBuilderDirective@@$0GE@$00@@U12@@std@@YAXPAUWeightedElement@?$CvWeightedVector@UBuilderDirective@@$0GE@$00@@ABU12@@Z ; std::_Construct<CvWeightedVector<BuilderDirective,100,1>::WeightedElement,CvWeightedVector<BuilderDirective,100,1>::WeightedElement>
; Function compile flags: /Ogtpy
; File c:\program files (x86)\microsoft visual studio 9.0\vc\include\xmemory
;	COMDAT ??$_Construct@UWeightedElement@?$CvWeightedVector@UBuilderDirective@@$0GE@$00@@U12@@std@@YAXPAUWeightedElement@?$CvWeightedVector@UBuilderDirective@@$0GE@$00@@ABU12@@Z
_TEXT	SEGMENT
__Ptr$ = 8						; size = 4
__Val$ = 12						; size = 4
??$_Construct@UWeightedElement@?$CvWeightedVector@UBuilderDirective@@$0GE@$00@@U12@@std@@YAXPAUWeightedElement@?$CvWeightedVector@UBuilderDirective@@$0GE@$00@@ABU12@@Z PROC ; std::_Construct<CvWeightedVector<BuilderDirective,100,1>::WeightedElement,CvWeightedVector<BuilderDirective,100,1>::WeightedElement>, COMDAT

; 51   : 	void _FARQ *_Vptr = _Ptr;
; 52   : 	::new (_Vptr) _T1(_Val);

	mov	eax, DWORD PTR __Ptr$[esp-4]
	test	eax, eax
	je	SHORT $LN3@Construct
	mov	ecx, DWORD PTR __Val$[esp-4]
	mov	edx, DWORD PTR [ecx]
	mov	DWORD PTR [eax], edx
	mov	edx, DWORD PTR [ecx+4]
	mov	DWORD PTR [eax+4], edx
	mov	edx, DWORD PTR [ecx+8]
	mov	DWORD PTR [eax+8], edx
	mov	edx, DWORD PTR [ecx+12]
	mov	DWORD PTR [eax+12], edx
	mov	edx, DWORD PTR [ecx+16]
	mov	DWORD PTR [eax+16], edx
	mov	ecx, DWORD PTR [ecx+20]
	mov	DWORD PTR [eax+20], ecx
$LN3@Construct:

; 53   : 	}

	ret	0
??$_Construct@UWeightedElement@?$CvWeightedVector@UBuilderDirective@@$0GE@$00@@U12@@std@@YAXPAUWeightedElement@?$CvWeightedVector@UBuilderDirective@@$0GE@$00@@ABU12@@Z ENDP ; std::_Construct<CvWeightedVector<BuilderDirective,100,1>::WeightedElement,CvWeightedVector<BuilderDirective,100,1>::WeightedElement>
_TEXT	ENDS
PUBLIC	??$_Iter_random@PAUWeightedElement@?$CvWeightedVector@UBuilderDirective@@$0GE@$00@@PAU12@V?$_Temp_iterator@UWeightedElement@?$CvWeightedVector@UBuilderDirective@@$0GE@$00@@@std@@@std@@YA?AUforward_iterator_tag@0@ABQAUWeightedElement@?$CvWeightedVector@UBuilderDirective@@$0GE@$00@@0ABV?$_Temp_iterator@UWeightedElement@?$CvWeightedVector@UBuilderDirective@@$0GE@$00@@@0@@Z ; std::_Iter_random<CvWeightedVector<BuilderDirective,100,1>::WeightedElement *,CvWeightedVector<BuilderDirective,100,1>::WeightedElement *,std::_Temp_iterator<CvWeightedVector<BuilderDirective,100,1>::WeightedElement> >
; Function compile flags: /Ogtpy
; File c:\program files (x86)\microsoft visual studio 9.0\vc\include\xutility
;	COMDAT ??$_Iter_random@PAUWeightedElement@?$CvWeightedVector@UBuilderDirective@@$0GE@$00@@PAU12@V?$_Temp_iterator@UWeightedElement@?$CvWeightedVector@UBuilderDirective@@$0GE@$00@@@std@@@std@@YA?AUforward_iterator_tag@0@ABQAUWeightedElement@?$CvWeightedVector@UBuilderDirective@@$0GE@$00@@0ABV?$_Temp_iterator@UWeightedElement@?$CvWeightedVector@UBuilderDirective@@$0GE@$00@@@0@@Z
_TEXT	SEGMENT
___$ReturnUdt$ = 8					; size = 4
___formal$ = 12						; size = 4
___formal$ = 16						; size = 4
___formal$ = 20						; size = 4
??$_Iter_random@PAUWeightedElement@?$CvWeightedVector@UBuilderDirective@@$0GE@$00@@PAU12@V?$_Temp_iterator@UWeightedElement@?$CvWeightedVector@UBuilderDirective@@$0GE@$00@@@std@@@std@@YA?AUforward_iterator_tag@0@ABQAUWeightedElement@?$CvWeightedVector@UBuilderDirective@@$0GE@$00@@0ABV?$_Temp_iterator@UWeightedElement@?$CvWeightedVector@UBuilderDirective@@$0GE@$00@@@0@@Z PROC ; std::_Iter_random<CvWeightedVector<BuilderDirective,100,1>::WeightedElement *,CvWeightedVector<BuilderDirective,100,1>::WeightedElement *,std::_Temp_iterator<CvWeightedVector<BuilderDirective,100,1>::WeightedElement> >, COMDAT

; 1007 : 	typename _Iter_random_helper3<
; 1008 : 		iterator_traits<_Iter1>::iterator_category, 
; 1009 : 		iterator_traits<_Iter2>::iterator_category,
; 1010 : 		iterator_traits<_Iter3>::iterator_category>::_Iter_random_cat _Cat;
; 1011 : 	return (_Cat);

	mov	eax, DWORD PTR ___$ReturnUdt$[esp-4]

; 1012 : 	}

	ret	0
??$_Iter_random@PAUWeightedElement@?$CvWeightedVector@UBuilderDirective@@$0GE@$00@@PAU12@V?$_Temp_iterator@UWeightedElement@?$CvWeightedVector@UBuilderDirective@@$0GE@$00@@@std@@@std@@YA?AUforward_iterator_tag@0@ABQAUWeightedElement@?$CvWeightedVector@UBuilderDirective@@$0GE@$00@@0ABV?$_Temp_iterator@UWeightedElement@?$CvWeightedVector@UBuilderDirective@@$0GE@$00@@@0@@Z ENDP ; std::_Iter_random<CvWeightedVector<BuilderDirective,100,1>::WeightedElement *,CvWeightedVector<BuilderDirective,100,1>::WeightedElement *,std::_Temp_iterator<CvWeightedVector<BuilderDirective,100,1>::WeightedElement> >
_TEXT	ENDS
PUBLIC	??$_Rotate@PAUWeightedElement@?$CvWeightedVector@UBuilderDirective@@$0GE@$00@@HU12@@std@@YAXPAUWeightedElement@?$CvWeightedVector@UBuilderDirective@@$0GE@$00@@00PAH0@Z ; std::_Rotate<CvWeightedVector<BuilderDirective,100,1>::WeightedElement *,int,CvWeightedVector<BuilderDirective,100,1>::WeightedElement>
; Function compile flags: /Ogtpy
; File c:\program files (x86)\microsoft visual studio 9.0\vc\include\algorithm
;	COMDAT ??$_Rotate@PAUWeightedElement@?$CvWeightedVector@UBuilderDirective@@$0GE@$00@@HU12@@std@@YAXPAUWeightedElement@?$CvWeightedVector@UBuilderDirective@@$0GE@$00@@00PAH0@Z
_TEXT	SEGMENT
tv289 = -28						; size = 4
__Holeval$220644 = -24					; size = 24
__First$ = 8						; size = 4
tv175 = 12						; size = 4
__Mid$ = 12						; size = 4
__Last$ = 16						; size = 4
___formal$ = 20						; size = 4
___formal$ = 24						; size = 4
??$_Rotate@PAUWeightedElement@?$CvWeightedVector@UBuilderDirective@@$0GE@$00@@HU12@@std@@YAXPAUWeightedElement@?$CvWeightedVector@UBuilderDirective@@$0GE@$00@@00PAH0@Z PROC ; std::_Rotate<CvWeightedVector<BuilderDirective,100,1>::WeightedElement *,int,CvWeightedVector<BuilderDirective,100,1>::WeightedElement>, COMDAT

; 1680 : 	_DEBUG_RANGE(_First, _Mid);
; 1681 : 	_DEBUG_RANGE(_Mid, _Last);
; 1682 : 	_Diff _Shift = _Mid - _First;

	mov	ecx, DWORD PTR __Mid$[esp-4]
	sub	esp, 28					; 0000001cH
	push	ebx
	push	ebp
	push	esi
	push	edi
	mov	edi, DWORD PTR __First$[esp+40]
	sub	ecx, edi
	mov	eax, 715827883				; 2aaaaaabH
	imul	ecx

; 1683 : 	_Diff _Count = _Last - _First;

	mov	ecx, DWORD PTR __Last$[esp+40]
	sar	edx, 2
	mov	ebx, edx
	sub	ecx, edi
	shr	ebx, 31					; 0000001fH
	add	ebx, edx
	mov	eax, 715827883				; 2aaaaaabH
	imul	ecx
	sar	edx, 2
	mov	ecx, edx
	shr	ecx, 31					; 0000001fH
	add	ecx, edx
	mov	ebp, ecx

; 1684 : 
; 1685 : 	for (_Diff _Factor = _Shift; _Factor != 0; )

	mov	esi, ebx
	test	ebx, ebx
	je	SHORT $LN7@Rotate
$LL8@Rotate:

; 1686 : 		{	// find subcycle count as GCD of shift count and length
; 1687 : 		_Diff _Tmp = _Count % _Factor;

	mov	eax, ebp
	cdq
	idiv	esi

; 1688 : 		_Count = _Factor, _Factor = _Tmp;

	mov	ebp, esi
	mov	esi, edx
	test	edx, edx
	jne	SHORT $LL8@Rotate
$LN7@Rotate:

; 1689 : 		}
; 1690 : 
; 1691 : 	if (_Count < _Last - _First)

	cmp	ebp, ecx
	jge	$LN3@Rotate

; 1692 : 		for (; 0 < _Count; --_Count)

	test	ebp, ebp
	jle	$LN3@Rotate
	lea	eax, DWORD PTR [ebx+ebx*2]
	add	eax, eax
	add	eax, eax
	add	eax, eax
	mov	edx, 20					; 00000014H
	lea	ecx, DWORD PTR [ebp+ebp*2]
	sub	edx, eax
	mov	DWORD PTR tv175[esp+40], eax
	lea	edi, DWORD PTR [edi+ecx*8]
	mov	DWORD PTR tv289[esp+44], edx
	jmp	SHORT $LN5@Rotate
	npad	1
$LL25@Rotate:
	mov	edx, DWORD PTR tv289[esp+44]
$LN5@Rotate:

; 1693 : 			{	// rotate each subcycle
; 1694 : 			_RanIt _Hole = _First + _Count;
; 1695 : 			_RanIt _Next = _Hole;
; 1696 : 			_Ty _Holeval = *_Hole;

	mov	esi, DWORD PTR [edi]
	mov	DWORD PTR __Holeval$220644[esp+44], esi
	mov	esi, DWORD PTR [edi+4]
	mov	DWORD PTR __Holeval$220644[esp+48], esi
	mov	esi, DWORD PTR [edi+8]
	mov	DWORD PTR __Holeval$220644[esp+52], esi
	mov	esi, DWORD PTR [edi+12]
	mov	DWORD PTR __Holeval$220644[esp+56], esi
	mov	esi, DWORD PTR [edi+16]
	mov	DWORD PTR __Holeval$220644[esp+60], esi
	lea	esi, DWORD PTR [edi+eax]
	mov	edx, DWORD PTR [edx+esi]
	mov	ecx, edi
	mov	DWORD PTR __Holeval$220644[esp+64], edx

; 1697 : 			_RanIt _Next1 = _Next + _Shift == _Last ? _First : _Next + _Shift;

	cmp	esi, DWORD PTR __Last$[esp+40]
	jne	SHORT $LN11@Rotate
	mov	esi, DWORD PTR __First$[esp+40]
$LN11@Rotate:

; 1698 : 			while (_Next1 != _Hole)

	cmp	esi, edi
	je	SHORT $LN24@Rotate
$LL2@Rotate:

; 1699 : 				{	// percolate elements back around subcycle
; 1700 : 				*_Next = *_Next1;

	mov	eax, DWORD PTR [esi]
	mov	DWORD PTR [ecx], eax
	mov	edx, DWORD PTR [esi+4]
	mov	DWORD PTR [ecx+4], edx
	mov	eax, DWORD PTR [esi+8]
	mov	DWORD PTR [ecx+8], eax
	mov	edx, DWORD PTR [esi+12]
	mov	DWORD PTR [ecx+12], edx
	mov	eax, DWORD PTR [esi+16]
	mov	DWORD PTR [ecx+16], eax
	mov	edx, DWORD PTR [esi+20]
	mov	DWORD PTR [ecx+20], edx

; 1701 : 				_Next = _Next1;
; 1702 : 				_Next1 = _Shift < _Last - _Next1 ? _Next1 + _Shift
; 1703 : 					: _First + (_Shift - (_Last - _Next1));

	mov	edx, DWORD PTR __Last$[esp+40]
	sub	edx, esi
	mov	eax, 715827883				; 2aaaaaabH
	imul	edx
	sar	edx, 2
	mov	eax, edx
	shr	eax, 31					; 0000001fH
	add	eax, edx
	cmp	ebx, eax
	mov	ecx, esi
	jge	SHORT $LN13@Rotate
	add	esi, DWORD PTR tv175[esp+40]
	jmp	SHORT $LN14@Rotate
$LN13@Rotate:
	mov	edx, ebx
	sub	edx, eax
	lea	eax, DWORD PTR [edx+edx*2]
	mov	edx, DWORD PTR __First$[esp+40]
	lea	esi, DWORD PTR [edx+eax*8]
$LN14@Rotate:

; 1698 : 			while (_Next1 != _Hole)

	cmp	esi, edi
	jne	SHORT $LL2@Rotate
	mov	eax, DWORD PTR tv175[esp+40]
$LN24@Rotate:

; 1704 : 				}
; 1705 : 			*_Next = _Holeval;

	mov	edx, DWORD PTR __Holeval$220644[esp+44]
	mov	DWORD PTR [ecx], edx
	mov	edx, DWORD PTR __Holeval$220644[esp+48]
	mov	DWORD PTR [ecx+4], edx
	mov	edx, DWORD PTR __Holeval$220644[esp+52]
	mov	DWORD PTR [ecx+8], edx
	mov	edx, DWORD PTR __Holeval$220644[esp+56]
	mov	DWORD PTR [ecx+12], edx
	mov	edx, DWORD PTR __Holeval$220644[esp+60]
	mov	DWORD PTR [ecx+16], edx
	mov	edx, DWORD PTR __Holeval$220644[esp+64]
	dec	ebp
	sub	edi, 24					; 00000018H
	mov	DWORD PTR [ecx+20], edx
	test	ebp, ebp
	jg	$LL25@Rotate
$LN3@Rotate:
	pop	edi
	pop	esi
	pop	ebp
	pop	ebx

; 1706 : 			}
; 1707 : 	}

	add	esp, 28					; 0000001cH
	ret	0
??$_Rotate@PAUWeightedElement@?$CvWeightedVector@UBuilderDirective@@$0GE@$00@@HU12@@std@@YAXPAUWeightedElement@?$CvWeightedVector@UBuilderDirective@@$0GE@$00@@00PAH0@Z ENDP ; std::_Rotate<CvWeightedVector<BuilderDirective,100,1>::WeightedElement *,int,CvWeightedVector<BuilderDirective,100,1>::WeightedElement>
_TEXT	ENDS
PUBLIC	??0CvString@@QAE@XZ				; CvString::CvString
EXTRN	__imp_??0?$basic_string@DU?$char_traits@D@std@@V?$allocator@D@2@@std@@QAE@XZ:PROC
; Function compile flags: /Ogtpy
; File c:\users\enormousapplepie\documents\github\lekmod\lekmod_dll\cvgamecoredllutil\include\cvstring.h
;	COMDAT ??0CvString@@QAE@XZ
_TEXT	SEGMENT
??0CvString@@QAE@XZ PROC				; CvString::CvString, COMDAT
; _this$ = ecx

; 23   : 	CvString() {}

	push	esi
	mov	esi, ecx
	call	DWORD PTR __imp_??0?$basic_string@DU?$char_traits@D@std@@V?$allocator@D@2@@std@@QAE@XZ
	mov	eax, esi
	pop	esi
	ret	0
??0CvString@@QAE@XZ ENDP				; CvString::CvString
_TEXT	ENDS
PUBLIC	??_C@_00CNPNBAHC@?$AA@				; `string'
PUBLIC	??0CvString@@QAE@PBD@Z				; CvString::CvString
EXTRN	__imp_??0?$basic_string@DU?$char_traits@D@std@@V?$allocator@D@2@@std@@QAE@PBD@Z:PROC
;	COMDAT ??_C@_00CNPNBAHC@?$AA@
CONST	SEGMENT
??_C@_00CNPNBAHC@?$AA@ DB 00H				; `string'
; Function compile flags: /Ogtpy
CONST	ENDS
;	COMDAT ??0CvString@@QAE@PBD@Z
_TEXT	SEGMENT
_s$ = 8							; size = 4
??0CvString@@QAE@PBD@Z PROC				; CvString::CvString, COMDAT
; _this$ = ecx

; 25   : 	CvString(const char* s) : std::string(s ? s : "") {CvAssertMsg(s != NULL, "Passing NULL to std::string; possible heap corruption!");}

	mov	eax, DWORD PTR _s$[esp-4]
	push	esi
	mov	esi, ecx
	test	eax, eax
	jne	SHORT $LN4@CvString
	mov	eax, OFFSET ??_C@_00CNPNBAHC@?$AA@
$LN4@CvString:
	push	eax
	call	DWORD PTR __imp_??0?$basic_string@DU?$char_traits@D@std@@V?$allocator@D@2@@std@@QAE@PBD@Z
	mov	eax, esi
	pop	esi
	ret	4
??0CvString@@QAE@PBD@Z ENDP				; CvString::CvString
_TEXT	ENDS
PUBLIC	??1CvString@@QAE@XZ				; CvString::~CvString
EXTRN	__imp_??1?$basic_string@DU?$char_traits@D@std@@V?$allocator@D@2@@std@@QAE@XZ:PROC
; Function compile flags: /Ogtpy
;	COMDAT ??1CvString@@QAE@XZ
_TEXT	SEGMENT
??1CvString@@QAE@XZ PROC				; CvString::~CvString, COMDAT
; _this$ = ecx

; 28   : 	~CvString() {}

	jmp	DWORD PTR __imp_??1?$basic_string@DU?$char_traits@D@std@@V?$allocator@D@2@@std@@QAE@XZ
??1CvString@@QAE@XZ ENDP				; CvString::~CvString
_TEXT	ENDS
PUBLIC	??BCvString@@QBEPBDXZ				; CvString::operator char const *
EXTRN	__imp_?c_str@?$basic_string@DU?$char_traits@D@std@@V?$allocator@D@2@@std@@QBEPBDXZ:PROC
; Function compile flags: /Ogtpy
;	COMDAT ??BCvString@@QBEPBDXZ
_TEXT	SEGMENT
??BCvString@@QBEPBDXZ PROC				; CvString::operator char const *, COMDAT
; _this$ = ecx

; 31   : 	operator const char*() const 	{ return c_str(); }												

	jmp	DWORD PTR __imp_?c_str@?$basic_string@DU?$char_traits@D@std@@V?$allocator@D@2@@std@@QBEPBDXZ
??BCvString@@QBEPBDXZ ENDP				; CvString::operator char const *
_TEXT	ENDS
PUBLIC	??4CvString@@QAEAAV0@PBD@Z			; CvString::operator=
EXTRN	__imp_?clear@?$basic_string@DU?$char_traits@D@std@@V?$allocator@D@2@@std@@QAEXXZ:PROC
EXTRN	__imp_?assign@?$basic_string@DU?$char_traits@D@std@@V?$allocator@D@2@@std@@QAEAAV12@PBD@Z:PROC
; Function compile flags: /Ogtpy
;	COMDAT ??4CvString@@QAEAAV0@PBD@Z
_TEXT	SEGMENT
_s$ = 8							; size = 4
??4CvString@@QAEAAV0@PBD@Z PROC				; CvString::operator=, COMDAT
; _this$ = ecx

; 37   : 	CvString& operator=( const char* s) { if (s) assign(s); else clear();	return *this; }	

	mov	eax, DWORD PTR _s$[esp-4]
	push	esi
	mov	esi, ecx
	test	eax, eax
	je	SHORT $LN2@operator
	push	eax
	call	DWORD PTR __imp_?assign@?$basic_string@DU?$char_traits@D@std@@V?$allocator@D@2@@std@@QAEAAV12@PBD@Z
	mov	eax, esi
	pop	esi
	ret	4
$LN2@operator:
	call	DWORD PTR __imp_?clear@?$basic_string@DU?$char_traits@D@std@@V?$allocator@D@2@@std@@QAEXXZ
	mov	eax, esi
	pop	esi
	ret	4
??4CvString@@QAEAAV0@PBD@Z ENDP				; CvString::operator=
_TEXT	ENDS
PUBLIC	??4CvString@@QAEAAV0@ABV?$basic_string@DU?$char_traits@D@std@@V?$allocator@D@2@@std@@@Z ; CvString::operator=
; Function compile flags: /Ogtpy
;	COMDAT ??4CvString@@QAEAAV0@ABV?$basic_string@DU?$char_traits@D@std@@V?$allocator@D@2@@std@@@Z
_TEXT	SEGMENT
_s$ = 8							; size = 4
??4CvString@@QAEAAV0@ABV?$basic_string@DU?$char_traits@D@std@@V?$allocator@D@2@@std@@@Z PROC ; CvString::operator=, COMDAT
; _this$ = ecx

; 38   : 	CvString& operator=( const std::string& s) { assign(s.c_str());	return *this; }	

	push	esi
	mov	esi, ecx
	mov	ecx, DWORD PTR _s$[esp]
	call	DWORD PTR __imp_?c_str@?$basic_string@DU?$char_traits@D@std@@V?$allocator@D@2@@std@@QBEPBDXZ
	push	eax
	mov	ecx, esi
	call	DWORD PTR __imp_?assign@?$basic_string@DU?$char_traits@D@std@@V?$allocator@D@2@@std@@QAEAAV12@PBD@Z
	mov	eax, esi
	pop	esi
	ret	4
??4CvString@@QAEAAV0@ABV?$basic_string@DU?$char_traits@D@std@@V?$allocator@D@2@@std@@@Z ENDP ; CvString::operator=
_TEXT	ENDS
PUBLIC	?GetCString@CvString@@QBEPBDXZ			; CvString::GetCString
; Function compile flags: /Ogtpy
;	COMDAT ?GetCString@CvString@@QBEPBDXZ
_TEXT	SEGMENT
?GetCString@CvString@@QBEPBDXZ PROC			; CvString::GetCString, COMDAT
; _this$ = ecx

; 42   : 	const char* GetCString() const 	{ return c_str(); }

	jmp	DWORD PTR __imp_?c_str@?$basic_string@DU?$char_traits@D@std@@V?$allocator@D@2@@std@@QBEPBDXZ
?GetCString@CvString@@QBEPBDXZ ENDP			; CvString::GetCString
_TEXT	ENDS
PUBLIC	?formatv@CvString@@SA_NAAV?$basic_string@DU?$char_traits@D@std@@V?$allocator@D@2@@std@@PBDPAD@Z ; CvString::formatv
EXTRN	__imp_??4?$basic_string@DU?$char_traits@D@std@@V?$allocator@D@2@@std@@QAEAAV01@PBD@Z:PROC
EXTRN	??_U@YAPAXI@Z:PROC				; operator new[]
EXTRN	??_V@YAXPAX@Z:PROC				; operator delete[]
EXTRN	__imp___vsnprintf:PROC
; Function compile flags: /Ogtpy
;	COMDAT ?formatv@CvString@@SA_NAAV?$basic_string@DU?$char_traits@D@std@@V?$allocator@D@2@@std@@PBDPAD@Z
_TEXT	SEGMENT
_buf$ = -2048						; size = 2048
_out$ = 8						; size = 4
_fmt$ = 12						; size = 4
_args$ = 16						; size = 4
?formatv@CvString@@SA_NAAV?$basic_string@DU?$char_traits@D@std@@V?$allocator@D@2@@std@@PBDPAD@Z PROC ; CvString::formatv, COMDAT

; 191  : {

	sub	esp, 2048				; 00000800H
	push	ebx
	push	ebp

; 192  : 	char buf[2048];
; 193  : 	char * pbuf = buf;

	mov	ebp, DWORD PTR _args$[esp+2052]
	push	esi
	push	edi
	lea	edi, DWORD PTR _buf$[esp+2064]
	mov	esi, 2047				; 000007ffH
	npad	6
$LL10@formatv:

; 194  : 	int len = 0;
; 195  : 	int attempts = 0;
; 196  : 	bool success = false;
; 197  : 	const int kMaxAttempts = 40;
; 198  : 
; 199  : 	do
; 200  : 	{
; 201  : 		int maxlen = 2047+2048*attempts;
; 202  : 		len = _vsnprintf(pbuf,maxlen,fmt,args);

	mov	eax, DWORD PTR _fmt$[esp+2060]
	push	ebp
	push	eax
	push	esi
	push	edi
	mov	ebx, esi
	call	DWORD PTR __imp___vsnprintf
	add	esp, 16					; 00000010H

; 203  : 		attempts++;

	add	esi, 2048				; 00000800H

; 204  : 		success = (len>=0 && len<=maxlen);

	test	eax, eax
	jl	SHORT $LN13@formatv
	cmp	eax, ebx
	jle	SHORT $LN18@formatv
$LN13@formatv:

; 205  : 		if (!success)
; 206  : 		{
; 207  : 			if (pbuf!=buf)

	lea	ecx, DWORD PTR _buf$[esp+2064]
	xor	bl, bl
	cmp	edi, ecx
	je	SHORT $LN6@formatv

; 208  : 				delete [] pbuf;

	push	edi
	call	??_V@YAXPAX@Z				; operator delete[]
	add	esp, 4
$LN6@formatv:

; 209  : 			pbuf = new char[2048+2048*attempts];

	lea	edx, DWORD PTR [esi+1]
	push	edx
	call	??_U@YAPAXI@Z				; operator new[]
	add	esp, 4

; 210  : 		}
; 211  : 	}
; 212  : 	while (!success && attempts<kMaxAttempts);

	cmp	esi, 83967				; 000147ffH
	mov	edi, eax
	jl	SHORT $LL10@formatv

; 222  : 		out = "";

	push	OFFSET ??_C@_00CNPNBAHC@?$AA@
$LN21@formatv:
	mov	ecx, DWORD PTR _out$[esp+2064]
	call	DWORD PTR __imp_??4?$basic_string@DU?$char_traits@D@std@@V?$allocator@D@2@@std@@QAEAAV01@PBD@Z

; 223  : 
; 224  : 	if (pbuf!=buf)

	lea	eax, DWORD PTR _buf$[esp+2064]
	cmp	edi, eax
	je	SHORT $LN20@formatv

; 225  : 		delete [] pbuf;

	push	edi
	call	??_V@YAXPAX@Z				; operator delete[]
	add	esp, 4
$LN20@formatv:
	pop	edi
	pop	esi
	pop	ebp

; 226  : 
; 227  : 	return success;

	mov	al, bl
	pop	ebx

; 228  : }

	add	esp, 2048				; 00000800H
	ret	0
$LN18@formatv:

; 204  : 		success = (len>=0 && len<=maxlen);

	mov	bl, 1

; 213  : 
; 214  : 	if ( attempts==kMaxAttempts )
; 215  : 	{
; 216  : 		// dxPrintNL( "CvString::formatv - Max reallocs occurred while formatting string. Result is likely truncated!", 0 );
; 217  : 	}
; 218  : 
; 219  : 	if (success)
; 220  : 		out = pbuf;

	push	edi

; 221  : 	else

	jmp	SHORT $LN21@formatv
?formatv@CvString@@SA_NAAV?$basic_string@DU?$char_traits@D@std@@V?$allocator@D@2@@std@@PBDPAD@Z ENDP ; CvString::formatv
_TEXT	ENDS
PUBLIC	?Format@CvString@@QAAXPBDZZ			; CvString::Format
EXTRN	___CxxFrameHandler3:PROC
;	COMDAT xdata$x
xdata$x	SEGMENT
__unwindtable$?Format@CvString@@QAAXPBDZZ DD 0ffffffffH
	DD	FLAT:__unwindfunclet$?Format@CvString@@QAAXPBDZZ$0
__ehfuncinfo$?Format@CvString@@QAAXPBDZZ DD 019930522H
	DD	01H
	DD	FLAT:__unwindtable$?Format@CvString@@QAAXPBDZZ
	DD	2 DUP(00H)
	DD	2 DUP(00H)
	DD	00H
	DD	01H
; Function compile flags: /Ogtpy
xdata$x	ENDS
;	COMDAT ?Format@CvString@@QAAXPBDZZ
_TEXT	SEGMENT
_result$ = -40						; size = 28
__$EHRec$ = -12						; size = 12
_this$ = 8						; size = 4
_lpszFormat$ = 12					; size = 4
?Format@CvString@@QAAXPBDZZ PROC			; CvString::Format, COMDAT

; 269  : {

	push	-1
	push	__ehhandler$?Format@CvString@@QAAXPBDZZ
	mov	eax, DWORD PTR fs:0
	push	eax
	mov	DWORD PTR fs:0, esp
	sub	esp, 28					; 0000001cH

; 270  : 	std::string result;

	lea	ecx, DWORD PTR _result$[esp+40]
	call	DWORD PTR __imp_??0?$basic_string@DU?$char_traits@D@std@@V?$allocator@D@2@@std@@QAE@XZ

; 271  : 	va_list args;
; 272  : 	va_start(args,lpszFormat);
; 273  : 	formatv(result,lpszFormat,args);

	mov	ecx, DWORD PTR _lpszFormat$[esp+36]
	lea	eax, DWORD PTR _lpszFormat$[esp+40]
	push	eax
	push	ecx
	lea	edx, DWORD PTR _result$[esp+48]
	push	edx
	mov	DWORD PTR __$EHRec$[esp+60], 0
	call	?formatv@CvString@@SA_NAAV?$basic_string@DU?$char_traits@D@std@@V?$allocator@D@2@@std@@PBDPAD@Z ; CvString::formatv
	add	esp, 12					; 0000000cH

; 274  : 	va_end(args);
; 275  : 	*this = result;

	lea	ecx, DWORD PTR _result$[esp+40]
	call	DWORD PTR __imp_?c_str@?$basic_string@DU?$char_traits@D@std@@V?$allocator@D@2@@std@@QBEPBDXZ
	mov	ecx, DWORD PTR _this$[esp+36]
	push	eax
	call	DWORD PTR __imp_?assign@?$basic_string@DU?$char_traits@D@std@@V?$allocator@D@2@@std@@QAEAAV12@PBD@Z

; 276  : }

	lea	ecx, DWORD PTR _result$[esp+40]
	mov	DWORD PTR __$EHRec$[esp+48], -1
	call	DWORD PTR __imp_??1?$basic_string@DU?$char_traits@D@std@@V?$allocator@D@2@@std@@QAE@XZ
	mov	ecx, DWORD PTR __$EHRec$[esp+40]
	mov	DWORD PTR fs:0, ecx
	add	esp, 40					; 00000028H
	ret	0
_TEXT	ENDS
;	COMDAT text$x
text$x	SEGMENT
__unwindfunclet$?Format@CvString@@QAAXPBDZZ$0:
	lea	ecx, DWORD PTR _result$[ebp]
	jmp	DWORD PTR __imp_??1?$basic_string@DU?$char_traits@D@std@@V?$allocator@D@2@@std@@QAE@XZ
__ehhandler$?Format@CvString@@QAAXPBDZZ:
	mov	eax, OFFSET __ehfuncinfo$?Format@CvString@@QAAXPBDZZ
	jmp	___CxxFrameHandler3
text$x	ENDS
?Format@CvString@@QAAXPBDZZ ENDP			; CvString::Format
PUBLIC	?GetType@CvBaseInfo@@QBEPBDXZ			; CvBaseInfo::GetType
; Function compile flags: /Ogtpy
; File c:\users\enormousapplepie\documents\github\lekmod\lekmod_dll\cvgamecoredll_expansion2\cvinfos.h
;	COMDAT ?GetType@CvBaseInfo@@QBEPBDXZ
_TEXT	SEGMENT
?GetType@CvBaseInfo@@QBEPBDXZ PROC			; CvBaseInfo::GetType, COMDAT
; _this$ = ecx

; 92   : 		return m_strType.c_str();

	add	ecx, 176				; 000000b0H
	jmp	DWORD PTR __imp_?c_str@?$basic_string@DU?$char_traits@D@std@@V?$allocator@D@2@@std@@QBEPBDXZ
?GetType@CvBaseInfo@@QBEPBDXZ ENDP			; CvBaseInfo::GetType
_TEXT	ENDS
PUBLIC	?getMap@CvGlobals@@QAEAAVCvMap@@XZ		; CvGlobals::getMap
; Function compile flags: /Ogtpy
; File c:\users\enormousapplepie\documents\github\lekmod\lekmod_dll\cvgamecoredll_expansion2\cvglobals.h
;	COMDAT ?getMap@CvGlobals@@QAEAAVCvMap@@XZ
_TEXT	SEGMENT
?getMap@CvGlobals@@QAEAAVCvMap@@XZ PROC			; CvGlobals::getMap, COMDAT
; _this$ = ecx

; 175  : 		return *m_map;    // inlined for perf reasons, do not use outside of dll

	mov	eax, DWORD PTR [ecx+52]

; 176  : 	}

	ret	0
?getMap@CvGlobals@@QAEAAVCvMap@@XZ ENDP			; CvGlobals::getMap
_TEXT	ENDS
PUBLIC	?getGame@CvGlobals@@QAEAAVCvGame@@XZ		; CvGlobals::getGame
; Function compile flags: /Ogtpy
;	COMDAT ?getGame@CvGlobals@@QAEAAVCvGame@@XZ
_TEXT	SEGMENT
?getGame@CvGlobals@@QAEAAVCvGame@@XZ PROC		; CvGlobals::getGame, COMDAT
; _this$ = ecx

; 183  : 		return *m_game;    // inlined for perf reasons, do not use outside of dll

	mov	eax, DWORD PTR [ecx+48]

; 184  : 	}

	ret	0
?getGame@CvGlobals@@QAEAAVCvGame@@XZ ENDP		; CvGlobals::getGame
_TEXT	ENDS
PUBLIC	?getNumFlavorTypes@CvGlobals@@QAEHXZ		; CvGlobals::getNumFlavorTypes
; Function compile flags: /Ogtpy
;	COMDAT ?getNumFlavorTypes@CvGlobals@@QAEHXZ
_TEXT	SEGMENT
?getNumFlavorTypes@CvGlobals@@QAEHXZ PROC		; CvGlobals::getNumFlavorTypes, COMDAT
; _this$ = ecx

; 804  : 		return m_iNumFlavorTypes;

	mov	eax, DWORD PTR [ecx+1764]

; 805  : 	}

	ret	0
?getNumFlavorTypes@CvGlobals@@QAEHXZ ENDP		; CvGlobals::getNumFlavorTypes
_TEXT	ENDS
PUBLIC	?getFlavorTypes@CvGlobals@@QAEAAVCvString@@W4FlavorTypes@@@Z ; CvGlobals::getFlavorTypes
; Function compile flags: /Ogtpy
;	COMDAT ?getFlavorTypes@CvGlobals@@QAEAAVCvString@@W4FlavorTypes@@@Z
_TEXT	SEGMENT
_e$ = 8							; size = 4
?getFlavorTypes@CvGlobals@@QAEAAVCvString@@W4FlavorTypes@@@Z PROC ; CvGlobals::getFlavorTypes, COMDAT
; _this$ = ecx

; 812  : 		CvAssert(e > -1); /*CvAssert(e < GC.getNumFlavorTypes())*/;
; 813  : 		return m_paszFlavorTypes[e];

	mov	eax, DWORD PTR _e$[esp-4]
	lea	edx, DWORD PTR [eax*8]
	sub	edx, eax
	mov	eax, DWORD PTR [ecx+1760]
	lea	eax, DWORD PTR [eax+edx*4]

; 814  : 	}

	ret	4
?getFlavorTypes@CvGlobals@@QAEAAVCvString@@W4FlavorTypes@@@Z ENDP ; CvGlobals::getFlavorTypes
_TEXT	ENDS
PUBLIC	?getBUILDER_TASKING_PLOT_EVAL_MULTIPLIER_FOOD@CvGlobals@@QAEHXZ ; CvGlobals::getBUILDER_TASKING_PLOT_EVAL_MULTIPLIER_FOOD
; Function compile flags: /Ogtpy
;	COMDAT ?getBUILDER_TASKING_PLOT_EVAL_MULTIPLIER_FOOD@CvGlobals@@QAEHXZ
_TEXT	SEGMENT
?getBUILDER_TASKING_PLOT_EVAL_MULTIPLIER_FOOD@CvGlobals@@QAEHXZ PROC ; CvGlobals::getBUILDER_TASKING_PLOT_EVAL_MULTIPLIER_FOOD, COMDAT
; _this$ = ecx

; 1169 : 		return m_iBUILDER_TASKING_PLOT_EVAL_MULTIPLIER_FOOD;

	mov	eax, DWORD PTR [ecx+2104]

; 1170 : 	}

	ret	0
?getBUILDER_TASKING_PLOT_EVAL_MULTIPLIER_FOOD@CvGlobals@@QAEHXZ ENDP ; CvGlobals::getBUILDER_TASKING_PLOT_EVAL_MULTIPLIER_FOOD
_TEXT	ENDS
PUBLIC	?getBUILDER_TASKING_PLOT_EVAL_MULTIPLIER_PRODUCTION@CvGlobals@@QAEHXZ ; CvGlobals::getBUILDER_TASKING_PLOT_EVAL_MULTIPLIER_PRODUCTION
; Function compile flags: /Ogtpy
;	COMDAT ?getBUILDER_TASKING_PLOT_EVAL_MULTIPLIER_PRODUCTION@CvGlobals@@QAEHXZ
_TEXT	SEGMENT
?getBUILDER_TASKING_PLOT_EVAL_MULTIPLIER_PRODUCTION@CvGlobals@@QAEHXZ PROC ; CvGlobals::getBUILDER_TASKING_PLOT_EVAL_MULTIPLIER_PRODUCTION, COMDAT
; _this$ = ecx

; 1173 : 		return m_iBUILDER_TASKING_PLOT_EVAL_MULTIPLIER_PRODUCTION;

	mov	eax, DWORD PTR [ecx+2108]

; 1174 : 	}

	ret	0
?getBUILDER_TASKING_PLOT_EVAL_MULTIPLIER_PRODUCTION@CvGlobals@@QAEHXZ ENDP ; CvGlobals::getBUILDER_TASKING_PLOT_EVAL_MULTIPLIER_PRODUCTION
_TEXT	ENDS
PUBLIC	?getBUILDER_TASKING_PLOT_EVAL_MULTIPLIER_GOLD@CvGlobals@@QAEHXZ ; CvGlobals::getBUILDER_TASKING_PLOT_EVAL_MULTIPLIER_GOLD
; Function compile flags: /Ogtpy
;	COMDAT ?getBUILDER_TASKING_PLOT_EVAL_MULTIPLIER_GOLD@CvGlobals@@QAEHXZ
_TEXT	SEGMENT
?getBUILDER_TASKING_PLOT_EVAL_MULTIPLIER_GOLD@CvGlobals@@QAEHXZ PROC ; CvGlobals::getBUILDER_TASKING_PLOT_EVAL_MULTIPLIER_GOLD, COMDAT
; _this$ = ecx

; 1177 : 		return m_iBUILDER_TASKING_PLOT_EVAL_MULTIPLIER_GOLD;

	mov	eax, DWORD PTR [ecx+2112]

; 1178 : 	}

	ret	0
?getBUILDER_TASKING_PLOT_EVAL_MULTIPLIER_GOLD@CvGlobals@@QAEHXZ ENDP ; CvGlobals::getBUILDER_TASKING_PLOT_EVAL_MULTIPLIER_GOLD
_TEXT	ENDS
PUBLIC	?getBUILDER_TASKING_PLOT_EVAL_MULTIPLIER_SCIENCE@CvGlobals@@QAEHXZ ; CvGlobals::getBUILDER_TASKING_PLOT_EVAL_MULTIPLIER_SCIENCE
; Function compile flags: /Ogtpy
;	COMDAT ?getBUILDER_TASKING_PLOT_EVAL_MULTIPLIER_SCIENCE@CvGlobals@@QAEHXZ
_TEXT	SEGMENT
?getBUILDER_TASKING_PLOT_EVAL_MULTIPLIER_SCIENCE@CvGlobals@@QAEHXZ PROC ; CvGlobals::getBUILDER_TASKING_PLOT_EVAL_MULTIPLIER_SCIENCE, COMDAT
; _this$ = ecx

; 1181 : 		return m_iBUILDER_TASKING_PLOT_EVAL_MULTIPLIER_SCIENCE;

	mov	eax, DWORD PTR [ecx+2116]

; 1182 : 	}

	ret	0
?getBUILDER_TASKING_PLOT_EVAL_MULTIPLIER_SCIENCE@CvGlobals@@QAEHXZ ENDP ; CvGlobals::getBUILDER_TASKING_PLOT_EVAL_MULTIPLIER_SCIENCE
_TEXT	ENDS
PUBLIC	?getBUILDER_TASKING_PLOT_EVAL_MULTIPLIER_CULTURE@CvGlobals@@QAEHXZ ; CvGlobals::getBUILDER_TASKING_PLOT_EVAL_MULTIPLIER_CULTURE
; Function compile flags: /Ogtpy
;	COMDAT ?getBUILDER_TASKING_PLOT_EVAL_MULTIPLIER_CULTURE@CvGlobals@@QAEHXZ
_TEXT	SEGMENT
?getBUILDER_TASKING_PLOT_EVAL_MULTIPLIER_CULTURE@CvGlobals@@QAEHXZ PROC ; CvGlobals::getBUILDER_TASKING_PLOT_EVAL_MULTIPLIER_CULTURE, COMDAT
; _this$ = ecx

; 1185 : 		return m_iBUILDER_TASKING_PLOT_EVAL_MULTIPLIER_CULTURE;

	mov	eax, DWORD PTR [ecx+2120]

; 1186 : 	}

	ret	0
?getBUILDER_TASKING_PLOT_EVAL_MULTIPLIER_CULTURE@CvGlobals@@QAEHXZ ENDP ; CvGlobals::getBUILDER_TASKING_PLOT_EVAL_MULTIPLIER_CULTURE
_TEXT	ENDS
PUBLIC	?getBUILDER_TASKING_PLOT_EVAL_MULTIPLIER_LUXURY_RESOURCE@CvGlobals@@QAEHXZ ; CvGlobals::getBUILDER_TASKING_PLOT_EVAL_MULTIPLIER_LUXURY_RESOURCE
; Function compile flags: /Ogtpy
;	COMDAT ?getBUILDER_TASKING_PLOT_EVAL_MULTIPLIER_LUXURY_RESOURCE@CvGlobals@@QAEHXZ
_TEXT	SEGMENT
?getBUILDER_TASKING_PLOT_EVAL_MULTIPLIER_LUXURY_RESOURCE@CvGlobals@@QAEHXZ PROC ; CvGlobals::getBUILDER_TASKING_PLOT_EVAL_MULTIPLIER_LUXURY_RESOURCE, COMDAT
; _this$ = ecx

; 1189 : 		return m_iBUILDER_TASKING_PLOT_EVAL_MULTIPLIER_LUXURY_RESOURCE;

	mov	eax, DWORD PTR [ecx+2124]

; 1190 : 	}

	ret	0
?getBUILDER_TASKING_PLOT_EVAL_MULTIPLIER_LUXURY_RESOURCE@CvGlobals@@QAEHXZ ENDP ; CvGlobals::getBUILDER_TASKING_PLOT_EVAL_MULTIPLIER_LUXURY_RESOURCE
_TEXT	ENDS
PUBLIC	?getBUILDER_TASKING_BASELINE_BUILD_IMPROVEMENTS@CvGlobals@@QAEHXZ ; CvGlobals::getBUILDER_TASKING_BASELINE_BUILD_IMPROVEMENTS
; Function compile flags: /Ogtpy
;	COMDAT ?getBUILDER_TASKING_BASELINE_BUILD_IMPROVEMENTS@CvGlobals@@QAEHXZ
_TEXT	SEGMENT
?getBUILDER_TASKING_BASELINE_BUILD_IMPROVEMENTS@CvGlobals@@QAEHXZ PROC ; CvGlobals::getBUILDER_TASKING_BASELINE_BUILD_IMPROVEMENTS, COMDAT
; _this$ = ecx

; 1205 : 		return m_iBUILDER_TASKING_BASELINE_BUILD_IMPROVEMENTS;

	mov	eax, DWORD PTR [ecx+2140]

; 1206 : 	}

	ret	0
?getBUILDER_TASKING_BASELINE_BUILD_IMPROVEMENTS@CvGlobals@@QAEHXZ ENDP ; CvGlobals::getBUILDER_TASKING_BASELINE_BUILD_IMPROVEMENTS
_TEXT	ENDS
PUBLIC	?getBUILDER_TASKING_BASELINE_BUILD_RESOURCE_IMPROVEMENTS@CvGlobals@@QAEHXZ ; CvGlobals::getBUILDER_TASKING_BASELINE_BUILD_RESOURCE_IMPROVEMENTS
; Function compile flags: /Ogtpy
;	COMDAT ?getBUILDER_TASKING_BASELINE_BUILD_RESOURCE_IMPROVEMENTS@CvGlobals@@QAEHXZ
_TEXT	SEGMENT
?getBUILDER_TASKING_BASELINE_BUILD_RESOURCE_IMPROVEMENTS@CvGlobals@@QAEHXZ PROC ; CvGlobals::getBUILDER_TASKING_BASELINE_BUILD_RESOURCE_IMPROVEMENTS, COMDAT
; _this$ = ecx

; 1209 : 		return m_iBUILDER_TASKING_BASELINE_BUILD_RESOURCE_IMPROVEMENTS;

	mov	eax, DWORD PTR [ecx+2144]

; 1210 : 	}

	ret	0
?getBUILDER_TASKING_BASELINE_BUILD_RESOURCE_IMPROVEMENTS@CvGlobals@@QAEHXZ ENDP ; CvGlobals::getBUILDER_TASKING_BASELINE_BUILD_RESOURCE_IMPROVEMENTS
_TEXT	ENDS
PUBLIC	?getBUILDER_TASKING_BASELINE_BUILD_ROUTES@CvGlobals@@QAEHXZ ; CvGlobals::getBUILDER_TASKING_BASELINE_BUILD_ROUTES
; Function compile flags: /Ogtpy
;	COMDAT ?getBUILDER_TASKING_BASELINE_BUILD_ROUTES@CvGlobals@@QAEHXZ
_TEXT	SEGMENT
?getBUILDER_TASKING_BASELINE_BUILD_ROUTES@CvGlobals@@QAEHXZ PROC ; CvGlobals::getBUILDER_TASKING_BASELINE_BUILD_ROUTES, COMDAT
; _this$ = ecx

; 1213 : 		return m_iBUILDER_TASKING_BASELINE_BUILD_ROUTES;

	mov	eax, DWORD PTR [ecx+2148]

; 1214 : 	}

	ret	0
?getBUILDER_TASKING_BASELINE_BUILD_ROUTES@CvGlobals@@QAEHXZ ENDP ; CvGlobals::getBUILDER_TASKING_BASELINE_BUILD_ROUTES
_TEXT	ENDS
PUBLIC	?getBUILDER_TASKING_BASELINE_REPAIR@CvGlobals@@QAEHXZ ; CvGlobals::getBUILDER_TASKING_BASELINE_REPAIR
; Function compile flags: /Ogtpy
;	COMDAT ?getBUILDER_TASKING_BASELINE_REPAIR@CvGlobals@@QAEHXZ
_TEXT	SEGMENT
?getBUILDER_TASKING_BASELINE_REPAIR@CvGlobals@@QAEHXZ PROC ; CvGlobals::getBUILDER_TASKING_BASELINE_REPAIR, COMDAT
; _this$ = ecx

; 1217 : 		return m_iBUILDER_TASKING_BASELINE_REPAIR;

	mov	eax, DWORD PTR [ecx+2152]

; 1218 : 	}

	ret	0
?getBUILDER_TASKING_BASELINE_REPAIR@CvGlobals@@QAEHXZ ENDP ; CvGlobals::getBUILDER_TASKING_BASELINE_REPAIR
_TEXT	ENDS
PUBLIC	?getBUILDER_TASKING_BASELINE_SCRUB_FALLOUT@CvGlobals@@QAEHXZ ; CvGlobals::getBUILDER_TASKING_BASELINE_SCRUB_FALLOUT
; Function compile flags: /Ogtpy
;	COMDAT ?getBUILDER_TASKING_BASELINE_SCRUB_FALLOUT@CvGlobals@@QAEHXZ
_TEXT	SEGMENT
?getBUILDER_TASKING_BASELINE_SCRUB_FALLOUT@CvGlobals@@QAEHXZ PROC ; CvGlobals::getBUILDER_TASKING_BASELINE_SCRUB_FALLOUT, COMDAT
; _this$ = ecx

; 1221 : 		return m_iBUILDER_TASKING_BASELINE_SCRUB_FALLOUT;

	mov	eax, DWORD PTR [ecx+2156]

; 1222 : 	}

	ret	0
?getBUILDER_TASKING_BASELINE_SCRUB_FALLOUT@CvGlobals@@QAEHXZ ENDP ; CvGlobals::getBUILDER_TASKING_BASELINE_SCRUB_FALLOUT
_TEXT	ENDS
PUBLIC	?getBUILDER_TASKING_BASELINE_ADDS_CULTURE@CvGlobals@@QAEHXZ ; CvGlobals::getBUILDER_TASKING_BASELINE_ADDS_CULTURE
; Function compile flags: /Ogtpy
;	COMDAT ?getBUILDER_TASKING_BASELINE_ADDS_CULTURE@CvGlobals@@QAEHXZ
_TEXT	SEGMENT
?getBUILDER_TASKING_BASELINE_ADDS_CULTURE@CvGlobals@@QAEHXZ PROC ; CvGlobals::getBUILDER_TASKING_BASELINE_ADDS_CULTURE, COMDAT
; _this$ = ecx

; 1225 : 		return m_iBUILDER_TASKING_BASELINE_ADDS_CULTURE;

	mov	eax, DWORD PTR [ecx+2160]

; 1226 : 	}

	ret	0
?getBUILDER_TASKING_BASELINE_ADDS_CULTURE@CvGlobals@@QAEHXZ ENDP ; CvGlobals::getBUILDER_TASKING_BASELINE_ADDS_CULTURE
_TEXT	ENDS
PUBLIC	?getINDUSTRIAL_ROUTE_PRODUCTION_MOD@CvGlobals@@QAEHXZ ; CvGlobals::getINDUSTRIAL_ROUTE_PRODUCTION_MOD
; Function compile flags: /Ogtpy
;	COMDAT ?getINDUSTRIAL_ROUTE_PRODUCTION_MOD@CvGlobals@@QAEHXZ
_TEXT	SEGMENT
?getINDUSTRIAL_ROUTE_PRODUCTION_MOD@CvGlobals@@QAEHXZ PROC ; CvGlobals::getINDUSTRIAL_ROUTE_PRODUCTION_MOD, COMDAT
; _this$ = ecx

; 5508 : 		return m_iINDUSTRIAL_ROUTE_PRODUCTION_MOD;

	mov	eax, DWORD PTR [ecx+6432]

; 5509 : 	}

	ret	0
?getINDUSTRIAL_ROUTE_PRODUCTION_MOD@CvGlobals@@QAEHXZ ENDP ; CvGlobals::getINDUSTRIAL_ROUTE_PRODUCTION_MOD
_TEXT	ENDS
PUBLIC	?getPLOT_UNIT_LIMIT@CvGlobals@@QAEHXZ		; CvGlobals::getPLOT_UNIT_LIMIT
; Function compile flags: /Ogtpy
;	COMDAT ?getPLOT_UNIT_LIMIT@CvGlobals@@QAEHXZ
_TEXT	SEGMENT
?getPLOT_UNIT_LIMIT@CvGlobals@@QAEHXZ PROC		; CvGlobals::getPLOT_UNIT_LIMIT, COMDAT
; _this$ = ecx

; 6485 : 		return m_iPLOT_UNIT_LIMIT;

	mov	eax, DWORD PTR [ecx+7356]

; 6486 : 	}

	ret	0
?getPLOT_UNIT_LIMIT@CvGlobals@@QAEHXZ ENDP		; CvGlobals::getPLOT_UNIT_LIMIT
_TEXT	ENDS
PUBLIC	?getMINOR_CIV_ROUTE_QUEST_WEIGHT@CvGlobals@@QAEHXZ ; CvGlobals::getMINOR_CIV_ROUTE_QUEST_WEIGHT
; Function compile flags: /Ogtpy
;	COMDAT ?getMINOR_CIV_ROUTE_QUEST_WEIGHT@CvGlobals@@QAEHXZ
_TEXT	SEGMENT
?getMINOR_CIV_ROUTE_QUEST_WEIGHT@CvGlobals@@QAEHXZ PROC	; CvGlobals::getMINOR_CIV_ROUTE_QUEST_WEIGHT, COMDAT
; _this$ = ecx

; 6969 : 		return m_iMINOR_CIV_ROUTE_QUEST_WEIGHT;

	mov	eax, DWORD PTR [ecx+7840]

; 6970 : 	}

	ret	0
?getMINOR_CIV_ROUTE_QUEST_WEIGHT@CvGlobals@@QAEHXZ ENDP	; CvGlobals::getMINOR_CIV_ROUTE_QUEST_WEIGHT
_TEXT	ENDS
PUBLIC	?getNUKE_FEATURE@CvGlobals@@QAEHXZ		; CvGlobals::getNUKE_FEATURE
; Function compile flags: /Ogtpy
;	COMDAT ?getNUKE_FEATURE@CvGlobals@@QAEHXZ
_TEXT	SEGMENT
?getNUKE_FEATURE@CvGlobals@@QAEHXZ PROC			; CvGlobals::getNUKE_FEATURE, COMDAT
; _this$ = ecx

; 7187 : 		return m_iNUKE_FEATURE;

	mov	eax, DWORD PTR [ecx+8404]

; 7188 : 	}

	ret	0
?getNUKE_FEATURE@CvGlobals@@QAEHXZ ENDP			; CvGlobals::getNUKE_FEATURE
_TEXT	ENDS
PUBLIC	?getCITY_CONNECTIONS_CONNECT_TO_CAPITAL@CvGlobals@@QAEHXZ ; CvGlobals::getCITY_CONNECTIONS_CONNECT_TO_CAPITAL
; Function compile flags: /Ogtpy
;	COMDAT ?getCITY_CONNECTIONS_CONNECT_TO_CAPITAL@CvGlobals@@QAEHXZ
_TEXT	SEGMENT
?getCITY_CONNECTIONS_CONNECT_TO_CAPITAL@CvGlobals@@QAEHXZ PROC ; CvGlobals::getCITY_CONNECTIONS_CONNECT_TO_CAPITAL, COMDAT
; _this$ = ecx

; 7499 : 		return m_iCITY_CONNECTIONS_CONNECT_TO_CAPITAL;

	mov	eax, DWORD PTR [ecx+8188]

; 7500 : 	}

	ret	0
?getCITY_CONNECTIONS_CONNECT_TO_CAPITAL@CvGlobals@@QAEHXZ ENDP ; CvGlobals::getCITY_CONNECTIONS_CONNECT_TO_CAPITAL
_TEXT	ENDS
PUBLIC	??4CvString@@QAEAAV0@ABV0@@Z			; CvString::operator=
EXTRN	__imp_??4?$basic_string@DU?$char_traits@D@std@@V?$allocator@D@2@@std@@QAEAAV01@ABV01@@Z:PROC
; Function compile flags: /Ogtpy
;	COMDAT ??4CvString@@QAEAAV0@ABV0@@Z
_TEXT	SEGMENT
___that$ = 8						; size = 4
??4CvString@@QAEAAV0@ABV0@@Z PROC			; CvString::operator=, COMDAT
; _this$ = ecx
	mov	eax, DWORD PTR ___that$[esp-4]
	push	esi
	push	eax
	mov	esi, ecx
	call	DWORD PTR __imp_??4?$basic_string@DU?$char_traits@D@std@@V?$allocator@D@2@@std@@QAEAAV01@ABV01@@Z
	mov	eax, esi
	pop	esi
	ret	4
??4CvString@@QAEAAV0@ABV0@@Z ENDP			; CvString::operator=
_TEXT	ENDS
PUBLIC	?getPlayer@CvPlayerAI@@SAAAV1@W4PlayerTypes@@@Z	; CvPlayerAI::getPlayer
EXTRN	?m_aPlayers@CvPlayerAI@@1PAV1@A:DWORD		; CvPlayerAI::m_aPlayers
; Function compile flags: /Ogtpy
; File c:\users\enormousapplepie\documents\github\lekmod\lekmod_dll\cvgamecoredll_expansion2\cvplayerai.h
;	COMDAT ?getPlayer@CvPlayerAI@@SAAAV1@W4PlayerTypes@@@Z
_TEXT	SEGMENT
_ePlayer$ = 8						; size = 4
?getPlayer@CvPlayerAI@@SAAAV1@W4PlayerTypes@@@Z PROC	; CvPlayerAI::getPlayer, COMDAT

; 28   : 		CvAssertMsg(ePlayer != NO_PLAYER, "Player is not assigned a valid value");
; 29   : 		CvAssertMsg(ePlayer < MAX_PLAYERS, "Player is not assigned a valid value");
; 30   : 		return m_aPlayers[ePlayer];

	mov	eax, DWORD PTR _ePlayer$[esp-4]
	imul	eax, 63236				; 0000f704H
	add	eax, DWORD PTR ?m_aPlayers@CvPlayerAI@@1PAV1@A ; CvPlayerAI::m_aPlayers

; 31   : 	}

	ret	0
?getPlayer@CvPlayerAI@@SAAAV1@W4PlayerTypes@@@Z ENDP	; CvPlayerAI::getPlayer
_TEXT	ENDS
PUBLIC	?isCity@CvPlot@@QBE_NXZ				; CvPlot::isCity
EXTRN	?getCity@CvPlayer@@QAEPAVCvCity@@H@Z:PROC	; CvPlayer::getCity
; Function compile flags: /Ogtpy
; File c:\users\enormousapplepie\documents\github\lekmod\lekmod_dll\cvgamecoredll_expansion2\cvplot.h
;	COMDAT ?isCity@CvPlot@@QBE_NXZ
_TEXT	SEGMENT
?isCity@CvPlot@@QBE_NXZ PROC				; CvPlot::isCity, COMDAT
; _this$ = ecx

; 245  : 		if((m_plotCity.eOwner >= 0) && m_plotCity.eOwner < MAX_PLAYERS)

	mov	eax, DWORD PTR [ecx+104]
	test	eax, eax
	jl	SHORT $LN1@isCity
	cmp	eax, 64					; 00000040H
	jge	SHORT $LN1@isCity

; 246  : 			return (GET_PLAYER((PlayerTypes)m_plotCity.eOwner).getCity(m_plotCity.iID)) != NULL;

	mov	ecx, DWORD PTR [ecx+108]
	imul	eax, 63236				; 0000f704H
	add	eax, DWORD PTR ?m_aPlayers@CvPlayerAI@@1PAV1@A ; CvPlayerAI::m_aPlayers
	push	ecx
	mov	ecx, eax
	call	?getCity@CvPlayer@@QAEPAVCvCity@@H@Z	; CvPlayer::getCity
	neg	eax
	sbb	eax, eax
	neg	eax

; 249  : 	}

	ret	0
$LN1@isCity:

; 247  : 
; 248  : 		return false;

	xor	al, al

; 249  : 	}

	ret	0
?isCity@CvPlot@@QBE_NXZ ENDP				; CvPlot::isCity
_TEXT	ENDS
PUBLIC	?getX@CvPlot@@QBEHXZ				; CvPlot::getX
; Function compile flags: /Ogtpy
;	COMDAT ?getX@CvPlot@@QBEHXZ
_TEXT	SEGMENT
?getX@CvPlot@@QBEHXZ PROC				; CvPlot::getX, COMDAT
; _this$ = ecx

; 307  : 		return m_iX;

	movsx	eax, WORD PTR [ecx]

; 308  : 	}

	ret	0
?getX@CvPlot@@QBEHXZ ENDP				; CvPlot::getX
_TEXT	ENDS
PUBLIC	?getY@CvPlot@@QBEHXZ				; CvPlot::getY
; Function compile flags: /Ogtpy
;	COMDAT ?getY@CvPlot@@QBEHXZ
_TEXT	SEGMENT
?getY@CvPlot@@QBEHXZ PROC				; CvPlot::getY, COMDAT
; _this$ = ecx

; 312  : 		return m_iY;

	movsx	eax, WORD PTR [ecx+2]

; 313  : 	}

	ret	0
?getY@CvPlot@@QBEHXZ ENDP				; CvPlot::getY
_TEXT	ENDS
PUBLIC	?getOwner@CvPlot@@QBE?AW4PlayerTypes@@XZ	; CvPlot::getOwner
; Function compile flags: /Ogtpy
;	COMDAT ?getOwner@CvPlot@@QBE?AW4PlayerTypes@@XZ
_TEXT	SEGMENT
?getOwner@CvPlot@@QBE?AW4PlayerTypes@@XZ PROC		; CvPlot::getOwner, COMDAT
; _this$ = ecx

; 387  : 		return (PlayerTypes)m_eOwner;

	movsx	eax, BYTE PTR [ecx+4]

; 388  : 	}

	ret	0
?getOwner@CvPlot@@QBE?AW4PlayerTypes@@XZ ENDP		; CvPlot::getOwner
_TEXT	ENDS
PUBLIC	?isWater@CvPlot@@QBE_NXZ			; CvPlot::isWater
; Function compile flags: /Ogtpy
;	COMDAT ?isWater@CvPlot@@QBE_NXZ
_TEXT	SEGMENT
?isWater@CvPlot@@QBE_NXZ PROC				; CvPlot::isWater, COMDAT
; _this$ = ecx

; 409  : 		return (PlotTypes)m_ePlotType == PLOT_OCEAN;

	xor	eax, eax
	cmp	BYTE PTR [ecx+5], 3
	sete	al

; 410  : 	};

	ret	0
?isWater@CvPlot@@QBE_NXZ ENDP				; CvPlot::isWater
_TEXT	ENDS
PUBLIC	?isMountain@CvPlot@@QBE_NXZ			; CvPlot::isMountain
; Function compile flags: /Ogtpy
;	COMDAT ?isMountain@CvPlot@@QBE_NXZ
_TEXT	SEGMENT
?isMountain@CvPlot@@QBE_NXZ PROC			; CvPlot::isMountain, COMDAT
; _this$ = ecx

; 422  : 		return (PlotTypes)m_ePlotType == PLOT_MOUNTAIN;

	xor	eax, eax
	cmp	BYTE PTR [ecx+5], al
	sete	al

; 423  : 	};

	ret	0
?isMountain@CvPlot@@QBE_NXZ ENDP			; CvPlot::isMountain
_TEXT	ENDS
PUBLIC	?getTerrainType@CvPlot@@QBE?AW4TerrainTypes@@XZ	; CvPlot::getTerrainType
; Function compile flags: /Ogtpy
;	COMDAT ?getTerrainType@CvPlot@@QBE?AW4TerrainTypes@@XZ
_TEXT	SEGMENT
?getTerrainType@CvPlot@@QBE?AW4TerrainTypes@@XZ PROC	; CvPlot::getTerrainType, COMDAT
; _this$ = ecx

; 431  : 		return (TerrainTypes)m_eTerrainType;

	movsx	eax, BYTE PTR [ecx+6]

; 432  : 	}

	ret	0
?getTerrainType@CvPlot@@QBE?AW4TerrainTypes@@XZ ENDP	; CvPlot::getTerrainType
_TEXT	ENDS
PUBLIC	?isImpassable@CvPlot@@QBE_NXZ			; CvPlot::isImpassable
; Function compile flags: /Ogtpy
;	COMDAT ?isImpassable@CvPlot@@QBE_NXZ
_TEXT	SEGMENT
?isImpassable@CvPlot@@QBE_NXZ PROC			; CvPlot::isImpassable, COMDAT
; _this$ = ecx

; 444  : 		return m_bIsImpassable;

	mov	al, BYTE PTR [ecx+462]
	shr	al, 7

; 445  : 	}

	ret	0
?isImpassable@CvPlot@@QBE_NXZ ENDP			; CvPlot::isImpassable
_TEXT	ENDS
PUBLIC	?getPlotCity@CvPlot@@QBEPAVCvCity@@XZ		; CvPlot::getPlotCity
; Function compile flags: /Ogtpy
;	COMDAT ?getPlotCity@CvPlot@@QBEPAVCvCity@@XZ
_TEXT	SEGMENT
?getPlotCity@CvPlot@@QBEPAVCvCity@@XZ PROC		; CvPlot::getPlotCity, COMDAT
; _this$ = ecx

; 533  : 		if((m_plotCity.eOwner >= 0) && m_plotCity.eOwner < MAX_PLAYERS)

	mov	eax, DWORD PTR [ecx+104]
	test	eax, eax
	jl	SHORT $LN1@getPlotCit
	cmp	eax, 64					; 00000040H
	jge	SHORT $LN1@getPlotCit

; 534  : 			return (GET_PLAYER((PlayerTypes)m_plotCity.eOwner).getCity(m_plotCity.iID));

	mov	ecx, DWORD PTR [ecx+108]
	imul	eax, 63236				; 0000f704H
	add	eax, DWORD PTR ?m_aPlayers@CvPlayerAI@@1PAV1@A ; CvPlayerAI::m_aPlayers
	push	ecx
	mov	ecx, eax
	call	?getCity@CvPlayer@@QAEPAVCvCity@@H@Z	; CvPlayer::getCity

; 537  : 	}

	ret	0
$LN1@getPlotCit:

; 535  : 
; 536  : 		return NULL;

	xor	eax, eax

; 537  : 	}

	ret	0
?getPlotCity@CvPlot@@QBEPAVCvCity@@XZ ENDP		; CvPlot::getPlotCity
_TEXT	ENDS
PUBLIC	?coordRange@@YAHHH_N@Z				; coordRange
; Function compile flags: /Ogtpy
; File c:\users\enormousapplepie\documents\github\lekmod\lekmod_dll\cvgamecoredll_expansion2\cvmap.h
;	COMDAT ?coordRange@@YAHHH_N@Z
_TEXT	SEGMENT
_iCoord$ = 8						; size = 4
_iRange$ = 12						; size = 4
_bWrap$ = 16						; size = 1
?coordRange@@YAHHH_N@Z PROC				; coordRange, COMDAT

; 88   : 	if(bWrap)

	cmp	BYTE PTR _bWrap$[esp-4], 0
	mov	eax, DWORD PTR _iCoord$[esp-4]
	je	SHORT $LN5@coordRange

; 89   : 	{
; 90   : 		if(iCoord < 0)
; 91   : 		{
; 92   : 			return (iRange + (iCoord % iRange));

	mov	ecx, DWORD PTR _iRange$[esp-4]
	test	eax, eax
	jge	SHORT $LN3@coordRange
	cdq
	idiv	ecx
	mov	eax, edx
	add	eax, ecx

; 97   : 		}
; 98   : 	}
; 99   : 
; 100  : 	return iCoord;
; 101  : }

	ret	0
$LN3@coordRange:

; 93   : 		}
; 94   : 		else if(iCoord >= iRange)

	cmp	eax, ecx
	jl	SHORT $LN5@coordRange

; 95   : 		{
; 96   : 			return (iCoord % iRange);

	cdq
	idiv	ecx
	mov	eax, edx
$LN5@coordRange:

; 97   : 		}
; 98   : 	}
; 99   : 
; 100  : 	return iCoord;
; 101  : }

	ret	0
?coordRange@@YAHHH_N@Z ENDP				; coordRange
_TEXT	ENDS
PUBLIC	?numPlots@CvMap@@QBEHXZ				; CvMap::numPlots
; Function compile flags: /Ogtpy
;	COMDAT ?numPlots@CvMap@@QBEHXZ
_TEXT	SEGMENT
?numPlots@CvMap@@QBEHXZ PROC				; CvMap::numPlots, COMDAT
; _this$ = ecx

; 170  : 		return m_iGridSize;

	mov	eax, DWORD PTR [ecx+4028]

; 171  : 	}

	ret	0
?numPlots@CvMap@@QBEHXZ ENDP				; CvMap::numPlots
_TEXT	ENDS
PUBLIC	?getGridWidth@CvMap@@QBEHXZ			; CvMap::getGridWidth
; Function compile flags: /Ogtpy
;	COMDAT ?getGridWidth@CvMap@@QBEHXZ
_TEXT	SEGMENT
?getGridWidth@CvMap@@QBEHXZ PROC			; CvMap::getGridWidth, COMDAT
; _this$ = ecx

; 198  : 		return m_iGridWidth;

	mov	eax, DWORD PTR [ecx+4020]

; 199  : 	}

	ret	0
?getGridWidth@CvMap@@QBEHXZ ENDP			; CvMap::getGridWidth
_TEXT	ENDS
PUBLIC	?getGridHeight@CvMap@@QBEHXZ			; CvMap::getGridHeight
; Function compile flags: /Ogtpy
;	COMDAT ?getGridHeight@CvMap@@QBEHXZ
_TEXT	SEGMENT
?getGridHeight@CvMap@@QBEHXZ PROC			; CvMap::getGridHeight, COMDAT
; _this$ = ecx

; 206  : 		return m_iGridHeight;

	mov	eax, DWORD PTR [ecx+4024]

; 207  : 	}

	ret	0
?getGridHeight@CvMap@@QBEHXZ ENDP			; CvMap::getGridHeight
_TEXT	ENDS
PUBLIC	?isWrapX@CvMap@@QBE_NXZ				; CvMap::isWrapX
; Function compile flags: /Ogtpy
;	COMDAT ?isWrapX@CvMap@@QBE_NXZ
_TEXT	SEGMENT
?isWrapX@CvMap@@QBE_NXZ PROC				; CvMap::isWrapX, COMDAT
; _this$ = ecx

; 228  : 		return m_bWrapX;

	mov	al, BYTE PTR [ecx+4056]

; 229  : 	}

	ret	0
?isWrapX@CvMap@@QBE_NXZ ENDP				; CvMap::isWrapX
_TEXT	ENDS
PUBLIC	?isWrapY@CvMap@@QBE_NXZ				; CvMap::isWrapY
; Function compile flags: /Ogtpy
;	COMDAT ?isWrapY@CvMap@@QBE_NXZ
_TEXT	SEGMENT
?isWrapY@CvMap@@QBE_NXZ PROC				; CvMap::isWrapY, COMDAT
; _this$ = ecx

; 233  : 		return m_bWrapY;

	mov	al, BYTE PTR [ecx+4057]

; 234  : 	}

	ret	0
?isWrapY@CvMap@@QBE_NXZ ENDP				; CvMap::isWrapY
_TEXT	ENDS
PUBLIC	?plotByIndex@CvMap@@QBEPAVCvPlot@@H@Z		; CvMap::plotByIndex
; Function compile flags: /Ogtpy
;	COMDAT ?plotByIndex@CvMap@@QBEPAVCvPlot@@H@Z
_TEXT	SEGMENT
_iIndex$ = 8						; size = 4
?plotByIndex@CvMap@@QBEPAVCvPlot@@H@Z PROC		; CvMap::plotByIndex, COMDAT
; _this$ = ecx

; 263  : 		return (((iIndex >= 0) && (iIndex < (numPlots()))) ? &(m_pMapPlots[iIndex]) : NULL);

	mov	eax, DWORD PTR _iIndex$[esp-4]
	test	eax, eax
	jl	SHORT $LN3@plotByInde
	cmp	eax, DWORD PTR [ecx+4028]
	jge	SHORT $LN3@plotByInde
	imul	eax, 484				; 000001e4H
	add	eax, DWORD PTR [ecx+4068]

; 264  : 	}

	ret	4
$LN3@plotByInde:

; 263  : 		return (((iIndex >= 0) && (iIndex < (numPlots()))) ? &(m_pMapPlots[iIndex]) : NULL);

	xor	eax, eax

; 264  : 	}

	ret	4
?plotByIndex@CvMap@@QBEPAVCvPlot@@H@Z ENDP		; CvMap::plotByIndex
_TEXT	ENDS
PUBLIC	?getTeam@CvTeam@@SAAAV1@W4TeamTypes@@@Z		; CvTeam::getTeam
EXTRN	?m_aTeams@CvTeam@@1PAV1@A:DWORD			; CvTeam::m_aTeams
; Function compile flags: /Ogtpy
; File c:\users\enormousapplepie\documents\github\lekmod\lekmod_dll\cvgamecoredll_expansion2\cvteam.h
;	COMDAT ?getTeam@CvTeam@@SAAAV1@W4TeamTypes@@@Z
_TEXT	SEGMENT
_eTeam$ = 8						; size = 4
?getTeam@CvTeam@@SAAAV1@W4TeamTypes@@@Z PROC		; CvTeam::getTeam, COMDAT

; 29   : 		CvAssertMsg(eTeam != NO_TEAM, "eTeam is not assigned a valid value");
; 30   : 		CvAssertMsg(eTeam < MAX_TEAMS, "eTeam is not assigned a valid value");
; 31   : 		return m_aTeams[eTeam];

	mov	eax, DWORD PTR _eTeam$[esp-4]
	imul	eax, 2984				; 00000ba8H
	add	eax, DWORD PTR ?m_aTeams@CvTeam@@1PAV1@A ; CvTeam::m_aTeams

; 32   : 	}

	ret	0
?getTeam@CvTeam@@SAAAV1@W4TeamTypes@@@Z ENDP		; CvTeam::getTeam
_TEXT	ENDS
PUBLIC	??0CvString@@QAE@ABV0@@Z			; CvString::CvString
EXTRN	__imp_??0?$basic_string@DU?$char_traits@D@std@@V?$allocator@D@2@@std@@QAE@ABV01@@Z:PROC
; Function compile flags: /Ogtpy
;	COMDAT ??0CvString@@QAE@ABV0@@Z
_TEXT	SEGMENT
___that$ = 8						; size = 4
??0CvString@@QAE@ABV0@@Z PROC				; CvString::CvString, COMDAT
; _this$ = ecx
	mov	eax, DWORD PTR ___that$[esp-4]
	push	esi
	push	eax
	mov	esi, ecx
	call	DWORD PTR __imp_??0?$basic_string@DU?$char_traits@D@std@@V?$allocator@D@2@@std@@QAE@ABV01@@Z
	mov	eax, esi
	pop	esi
	ret	4
??0CvString@@QAE@ABV0@@Z ENDP				; CvString::CvString
_TEXT	ENDS
PUBLIC	?IsMoveFriendlyWoodsAsRoad@CvPlayerTraits@@QBE_NXZ ; CvPlayerTraits::IsMoveFriendlyWoodsAsRoad
; Function compile flags: /Ogtpy
; File c:\users\enormousapplepie\documents\github\lekmod\lekmod_dll\cvgamecoredll_expansion2\cvtraitclasses.h
;	COMDAT ?IsMoveFriendlyWoodsAsRoad@CvPlayerTraits@@QBE_NXZ
_TEXT	SEGMENT
?IsMoveFriendlyWoodsAsRoad@CvPlayerTraits@@QBE_NXZ PROC	; CvPlayerTraits::IsMoveFriendlyWoodsAsRoad, COMDAT
; _this$ = ecx

; 753  : 		return m_bMoveFriendlyWoodsAsRoad;

	mov	al, BYTE PTR [ecx+333]

; 754  : 	};

	ret	0
?IsMoveFriendlyWoodsAsRoad@CvPlayerTraits@@QBE_NXZ ENDP	; CvPlayerTraits::IsMoveFriendlyWoodsAsRoad
_TEXT	ENDS
PUBLIC	?IsEmbarkedAllWater@CvPlayerTraits@@QBE_NXZ	; CvPlayerTraits::IsEmbarkedAllWater
; Function compile flags: /Ogtpy
;	COMDAT ?IsEmbarkedAllWater@CvPlayerTraits@@QBE_NXZ
_TEXT	SEGMENT
?IsEmbarkedAllWater@CvPlayerTraits@@QBE_NXZ PROC	; CvPlayerTraits::IsEmbarkedAllWater, COMDAT
; _this$ = ecx

; 765  : 		return m_bEmbarkedAllWater;

	mov	al, BYTE PTR [ecx+336]

; 766  : 	};

	ret	0
?IsEmbarkedAllWater@CvPlayerTraits@@QBE_NXZ ENDP	; CvPlayerTraits::IsEmbarkedAllWater
_TEXT	ENDS
PUBLIC	?IsFaithFromUnimprovedForest@CvPlayerTraits@@QBE_NXZ ; CvPlayerTraits::IsFaithFromUnimprovedForest
; Function compile flags: /Ogtpy
;	COMDAT ?IsFaithFromUnimprovedForest@CvPlayerTraits@@QBE_NXZ
_TEXT	SEGMENT
?IsFaithFromUnimprovedForest@CvPlayerTraits@@QBE_NXZ PROC ; CvPlayerTraits::IsFaithFromUnimprovedForest, COMDAT
; _this$ = ecx

; 815  : 		return m_bFaithFromUnimprovedForest;

	mov	al, BYTE PTR [ecx+341]

; 816  : 	};

	ret	0
?IsFaithFromUnimprovedForest@CvPlayerTraits@@QBE_NXZ ENDP ; CvPlayerTraits::IsFaithFromUnimprovedForest
_TEXT	ENDS
PUBLIC	?GetLastNode@CvAStar@@QAEPAVCvAStarNode@@XZ	; CvAStar::GetLastNode
; Function compile flags: /Ogtpy
; File c:\users\enormousapplepie\documents\github\lekmod\lekmod_dll\cvgamecoredll_expansion2\cvastar.h
;	COMDAT ?GetLastNode@CvAStar@@QAEPAVCvAStarNode@@XZ
_TEXT	SEGMENT
?GetLastNode@CvAStar@@QAEPAVCvAStarNode@@XZ PROC	; CvAStar::GetLastNode, COMDAT
; _this$ = ecx

; 98   : 		return m_pBest;

	mov	eax, DWORD PTR [ecx+96]

; 99   : 	}

	ret	0
?GetLastNode@CvAStar@@QAEPAVCvAStarNode@@XZ ENDP	; CvAStar::GetLastNode
_TEXT	ENDS
PUBLIC	??0BuilderDirective@@QAE@XZ			; BuilderDirective::BuilderDirective
; Function compile flags: /Ogtpy
; File c:\users\enormousapplepie\documents\github\lekmod\lekmod_dll\cvgamecoredll_expansion2\cvbuildertaskingai.h
;	COMDAT ??0BuilderDirective@@QAE@XZ
_TEXT	SEGMENT
??0BuilderDirective@@QAE@XZ PROC			; BuilderDirective::BuilderDirective, COMDAT
; _this$ = ecx

; 46   : 	{

	mov	eax, ecx
	or	ecx, -1
	mov	edx, ecx
	mov	DWORD PTR [eax], 6
	mov	DWORD PTR [eax+4], ecx
	mov	DWORD PTR [eax+8], ecx
	mov	WORD PTR [eax+12], dx
	mov	WORD PTR [eax+14], dx
	mov	WORD PTR [eax+16], cx

; 47   : 	}

	ret	0
??0BuilderDirective@@QAE@XZ ENDP			; BuilderDirective::BuilderDirective
_TEXT	ENDS
PUBLIC	??A?$vector@W4TeamTypes@@V?$allocator@W4TeamTypes@@@std@@@std@@QBEABW4TeamTypes@@I@Z ; std::vector<enum TeamTypes,std::allocator<enum TeamTypes> >::operator[]
; Function compile flags: /Ogtpy
; File c:\program files (x86)\microsoft visual studio 9.0\vc\include\vector
;	COMDAT ??A?$vector@W4TeamTypes@@V?$allocator@W4TeamTypes@@@std@@@std@@QBEABW4TeamTypes@@I@Z
_TEXT	SEGMENT
__Pos$ = 8						; size = 4
??A?$vector@W4TeamTypes@@V?$allocator@W4TeamTypes@@@std@@@std@@QBEABW4TeamTypes@@I@Z PROC ; std::vector<enum TeamTypes,std::allocator<enum TeamTypes> >::operator[], COMDAT
; _this$ = ecx

; 760  : 
; 761  :  #if _HAS_ITERATOR_DEBUGGING
; 762  : 		if (size() <= _Pos)
; 763  : 			{
; 764  : 			_DEBUG_ERROR("vector subscript out of range");
; 765  : 			_SCL_SECURE_OUT_OF_RANGE;
; 766  : 			}
; 767  :  #endif /* _HAS_ITERATOR_DEBUGGING */
; 768  : 		_SCL_SECURE_VALIDATE_RANGE(_Pos < size());
; 769  : 
; 770  : 		return (*(_Myfirst + _Pos));

	mov	eax, DWORD PTR [ecx+4]
	mov	ecx, DWORD PTR __Pos$[esp-4]
	lea	eax, DWORD PTR [eax+ecx*4]

; 771  : 		}

	ret	4
??A?$vector@W4TeamTypes@@V?$allocator@W4TeamTypes@@@std@@@std@@QBEABW4TeamTypes@@I@Z ENDP ; std::vector<enum TeamTypes,std::allocator<enum TeamTypes> >::operator[]
_TEXT	ENDS
PUBLIC	?get@?$FAutoVariable@W4PlayerTypes@@VCvUnit@@@@QBEABW4PlayerTypes@@XZ ; FAutoVariable<enum PlayerTypes,CvUnit>::get
; Function compile flags: /Ogtpy
; File c:\users\enormousapplepie\documents\github\lekmod\lekmod_dll\fireplace\include\fireworks\fautovariable.h
;	COMDAT ?get@?$FAutoVariable@W4PlayerTypes@@VCvUnit@@@@QBEABW4PlayerTypes@@XZ
_TEXT	SEGMENT
?get@?$FAutoVariable@W4PlayerTypes@@VCvUnit@@@@QBEABW4PlayerTypes@@XZ PROC ; FAutoVariable<enum PlayerTypes,CvUnit>::get, COMDAT
; _this$ = ecx

; 177  : 	return m_value;

	lea	eax, DWORD PTR [ecx+4]

; 178  : }

	ret	0
?get@?$FAutoVariable@W4PlayerTypes@@VCvUnit@@@@QBEABW4PlayerTypes@@XZ ENDP ; FAutoVariable<enum PlayerTypes,CvUnit>::get
_TEXT	ENDS
PUBLIC	?get@?$FAutoVariable@HVCvUnit@@@@QBEABHXZ	; FAutoVariable<int,CvUnit>::get
; Function compile flags: /Ogtpy
;	COMDAT ?get@?$FAutoVariable@HVCvUnit@@@@QBEABHXZ
_TEXT	SEGMENT
?get@?$FAutoVariable@HVCvUnit@@@@QBEABHXZ PROC		; FAutoVariable<int,CvUnit>::get, COMDAT
; _this$ = ecx

; 177  : 	return m_value;

	lea	eax, DWORD PTR [ecx+4]

; 178  : }

	ret	0
?get@?$FAutoVariable@HVCvUnit@@@@QBEABHXZ ENDP		; FAutoVariable<int,CvUnit>::get
_TEXT	ENDS
PUBLIC	??B?$FAutoVariable@HVCvUnit@@@@QBEABHXZ		; FAutoVariable<int,CvUnit>::operator int const &
; Function compile flags: /Ogtpy
;	COMDAT ??B?$FAutoVariable@HVCvUnit@@@@QBEABHXZ
_TEXT	SEGMENT
??B?$FAutoVariable@HVCvUnit@@@@QBEABHXZ PROC		; FAutoVariable<int,CvUnit>::operator int const &, COMDAT
; _this$ = ecx

; 194  : 	return m_value;

	lea	eax, DWORD PTR [ecx+4]

; 195  : }

	ret	0
??B?$FAutoVariable@HVCvUnit@@@@QBEABHXZ ENDP		; FAutoVariable<int,CvUnit>::operator int const &
_TEXT	ENDS
PUBLIC	??$?6H@FDataStream@@QAEAAV0@ABH@Z		; FDataStream::operator<<<int>
EXTRN	?Write@FDataStream@@IAEXABH@Z:PROC		; FDataStream::Write
; Function compile flags: /Ogtpy
; File c:\users\enormousapplepie\documents\github\lekmod\lekmod_dll\fireplace\include\fireworks\fdatastream.h
;	COMDAT ??$?6H@FDataStream@@QAEAAV0@ABH@Z
_TEXT	SEGMENT
_kData$ = 8						; size = 4
??$?6H@FDataStream@@QAEAAV0@ABH@Z PROC			; FDataStream::operator<<<int>, COMDAT
; _this$ = ecx

; 246  : 	// If the compiler produces an error here complaining about 
; 247  : 	// YouMustImplementASerializeOperatorForThisTypeError then
; 248  : 	// it could not find a specialization for the type supplied
; 249  : 	// in scope. If a specialization exists, be sure to include
; 250  : 	// the header (FStlContainerSerialization.h, for example), 
; 251  : 	// if not, implement :
; 252  : 	// FDataStream & operator<<(FDataStream &, YourCustomType &)
; 253  : 	Write( kData );

	mov	eax, DWORD PTR _kData$[esp-4]
	push	esi
	push	eax
	mov	esi, ecx
	call	?Write@FDataStream@@IAEXABH@Z		; FDataStream::Write

; 254  : 	return ( *this );

	mov	eax, esi
	pop	esi

; 255  : }

	ret	4
??$?6H@FDataStream@@QAEAAV0@ABH@Z ENDP			; FDataStream::operator<<<int>
_TEXT	ENDS
PUBLIC	??$?5H@FDataStream@@QAEAAV0@AAH@Z		; FDataStream::operator>><int>
EXTRN	?Read@FDataStream@@IAEXAAH@Z:PROC		; FDataStream::Read
; Function compile flags: /Ogtpy
;	COMDAT ??$?5H@FDataStream@@QAEAAV0@AAH@Z
_TEXT	SEGMENT
_kData$ = 8						; size = 4
??$?5H@FDataStream@@QAEAAV0@AAH@Z PROC			; FDataStream::operator>><int>, COMDAT
; _this$ = ecx

; 260  : 	// If the compiler produces an error here complaining about 
; 261  : 	// YouMustImplementASerializeOperatorForThisTypeError then
; 262  : 	// it could not find a specialization for the type supplied
; 263  : 	// in scope. If a specialization exists, be sure to include
; 264  : 	// the header (FStlContainerSerialization.h, for example), 
; 265  : 	// if not, implement :
; 266  : 	// FDataStream & operator>>(FDataStream &, YourCustomType &)
; 267  : 	Read( kData );

	mov	eax, DWORD PTR _kData$[esp-4]
	push	esi
	push	eax
	mov	esi, ecx
	call	?Read@FDataStream@@IAEXAAH@Z		; FDataStream::Read

; 268  : 	return ( *this );

	mov	eax, esi
	pop	esi

; 269  : }

	ret	4
??$?5H@FDataStream@@QAEAAV0@AAH@Z ENDP			; FDataStream::operator>><int>
_TEXT	ENDS
PUBLIC	??B?$FAutoVariable@W4PlayerTypes@@VCvCity@@@@QBEABW4PlayerTypes@@XZ ; FAutoVariable<enum PlayerTypes,CvCity>::operator enum PlayerTypes const &
; Function compile flags: /Ogtpy
; File c:\users\enormousapplepie\documents\github\lekmod\lekmod_dll\fireplace\include\fireworks\fautovariable.h
;	COMDAT ??B?$FAutoVariable@W4PlayerTypes@@VCvCity@@@@QBEABW4PlayerTypes@@XZ
_TEXT	SEGMENT
??B?$FAutoVariable@W4PlayerTypes@@VCvCity@@@@QBEABW4PlayerTypes@@XZ PROC ; FAutoVariable<enum PlayerTypes,CvCity>::operator enum PlayerTypes const &, COMDAT
; _this$ = ecx

; 194  : 	return m_value;

	lea	eax, DWORD PTR [ecx+4]

; 195  : }

	ret	0
??B?$FAutoVariable@W4PlayerTypes@@VCvCity@@@@QBEABW4PlayerTypes@@XZ ENDP ; FAutoVariable<enum PlayerTypes,CvCity>::operator enum PlayerTypes const &
_TEXT	ENDS
PUBLIC	??B?$FAutoVariable@W4PlayerTypes@@VCvPlayer@@@@QBEABW4PlayerTypes@@XZ ; FAutoVariable<enum PlayerTypes,CvPlayer>::operator enum PlayerTypes const &
; Function compile flags: /Ogtpy
;	COMDAT ??B?$FAutoVariable@W4PlayerTypes@@VCvPlayer@@@@QBEABW4PlayerTypes@@XZ
_TEXT	SEGMENT
??B?$FAutoVariable@W4PlayerTypes@@VCvPlayer@@@@QBEABW4PlayerTypes@@XZ PROC ; FAutoVariable<enum PlayerTypes,CvPlayer>::operator enum PlayerTypes const &, COMDAT
; _this$ = ecx

; 194  : 	return m_value;

	lea	eax, DWORD PTR [ecx+4]

; 195  : }

	ret	0
??B?$FAutoVariable@W4PlayerTypes@@VCvPlayer@@@@QBEABW4PlayerTypes@@XZ ENDP ; FAutoVariable<enum PlayerTypes,CvPlayer>::operator enum PlayerTypes const &
_TEXT	ENDS
PUBLIC	??B?$FAutoVariable@DVCvPlot@@@@QBEABDXZ		; FAutoVariable<char,CvPlot>::operator char const &
; Function compile flags: /Ogtpy
;	COMDAT ??B?$FAutoVariable@DVCvPlot@@@@QBEABDXZ
_TEXT	SEGMENT
??B?$FAutoVariable@DVCvPlot@@@@QBEABDXZ PROC		; FAutoVariable<char,CvPlot>::operator char const &, COMDAT
; _this$ = ecx

; 194  : 	return m_value;

	lea	eax, DWORD PTR [ecx+4]

; 195  : }

	ret	0
??B?$FAutoVariable@DVCvPlot@@@@QBEABDXZ ENDP		; FAutoVariable<char,CvPlot>::operator char const &
_TEXT	ENDS
PUBLIC	??$?5_N@FDataStream@@QAEAAV0@AA_N@Z		; FDataStream::operator>><bool>
EXTRN	?Read@FDataStream@@IAEXAA_N@Z:PROC		; FDataStream::Read
; Function compile flags: /Ogtpy
; File c:\users\enormousapplepie\documents\github\lekmod\lekmod_dll\fireplace\include\fireworks\fdatastream.h
;	COMDAT ??$?5_N@FDataStream@@QAEAAV0@AA_N@Z
_TEXT	SEGMENT
_kData$ = 8						; size = 4
??$?5_N@FDataStream@@QAEAAV0@AA_N@Z PROC		; FDataStream::operator>><bool>, COMDAT
; _this$ = ecx

; 260  : 	// If the compiler produces an error here complaining about 
; 261  : 	// YouMustImplementASerializeOperatorForThisTypeError then
; 262  : 	// it could not find a specialization for the type supplied
; 263  : 	// in scope. If a specialization exists, be sure to include
; 264  : 	// the header (FStlContainerSerialization.h, for example), 
; 265  : 	// if not, implement :
; 266  : 	// FDataStream & operator>>(FDataStream &, YourCustomType &)
; 267  : 	Read( kData );

	mov	eax, DWORD PTR _kData$[esp-4]
	push	esi
	push	eax
	mov	esi, ecx
	call	?Read@FDataStream@@IAEXAA_N@Z		; FDataStream::Read

; 268  : 	return ( *this );

	mov	eax, esi
	pop	esi

; 269  : }

	ret	4
??$?5_N@FDataStream@@QAEAAV0@AA_N@Z ENDP		; FDataStream::operator>><bool>
_TEXT	ENDS
PUBLIC	??$?6_N@FDataStream@@QAEAAV0@AB_N@Z		; FDataStream::operator<<<bool>
EXTRN	?Write@FDataStream@@IAEXAB_N@Z:PROC		; FDataStream::Write
; Function compile flags: /Ogtpy
;	COMDAT ??$?6_N@FDataStream@@QAEAAV0@AB_N@Z
_TEXT	SEGMENT
_kData$ = 8						; size = 4
??$?6_N@FDataStream@@QAEAAV0@AB_N@Z PROC		; FDataStream::operator<<<bool>, COMDAT
; _this$ = ecx

; 246  : 	// If the compiler produces an error here complaining about 
; 247  : 	// YouMustImplementASerializeOperatorForThisTypeError then
; 248  : 	// it could not find a specialization for the type supplied
; 249  : 	// in scope. If a specialization exists, be sure to include
; 250  : 	// the header (FStlContainerSerialization.h, for example), 
; 251  : 	// if not, implement :
; 252  : 	// FDataStream & operator<<(FDataStream &, YourCustomType &)
; 253  : 	Write( kData );

	mov	eax, DWORD PTR _kData$[esp-4]
	push	esi
	push	eax
	mov	esi, ecx
	call	?Write@FDataStream@@IAEXAB_N@Z		; FDataStream::Write

; 254  : 	return ( *this );

	mov	eax, esi
	pop	esi

; 255  : }

	ret	4
??$?6_N@FDataStream@@QAEAAV0@AB_N@Z ENDP		; FDataStream::operator<<<bool>
_TEXT	ENDS
PUBLIC	??$?5I@FDataStream@@QAEAAV0@AAI@Z		; FDataStream::operator>><unsigned int>
EXTRN	?Read@FDataStream@@IAEXAAI@Z:PROC		; FDataStream::Read
; Function compile flags: /Ogtpy
;	COMDAT ??$?5I@FDataStream@@QAEAAV0@AAI@Z
_TEXT	SEGMENT
_kData$ = 8						; size = 4
??$?5I@FDataStream@@QAEAAV0@AAI@Z PROC			; FDataStream::operator>><unsigned int>, COMDAT
; _this$ = ecx

; 260  : 	// If the compiler produces an error here complaining about 
; 261  : 	// YouMustImplementASerializeOperatorForThisTypeError then
; 262  : 	// it could not find a specialization for the type supplied
; 263  : 	// in scope. If a specialization exists, be sure to include
; 264  : 	// the header (FStlContainerSerialization.h, for example), 
; 265  : 	// if not, implement :
; 266  : 	// FDataStream & operator>>(FDataStream &, YourCustomType &)
; 267  : 	Read( kData );

	mov	eax, DWORD PTR _kData$[esp-4]
	push	esi
	push	eax
	mov	esi, ecx
	call	?Read@FDataStream@@IAEXAAI@Z		; FDataStream::Read

; 268  : 	return ( *this );

	mov	eax, esi
	pop	esi

; 269  : }

	ret	4
??$?5I@FDataStream@@QAEAAV0@AAI@Z ENDP			; FDataStream::operator>><unsigned int>
_TEXT	ENDS
PUBLIC	??$?6I@FDataStream@@QAEAAV0@ABI@Z		; FDataStream::operator<<<unsigned int>
EXTRN	?Write@FDataStream@@IAEXABI@Z:PROC		; FDataStream::Write
; Function compile flags: /Ogtpy
;	COMDAT ??$?6I@FDataStream@@QAEAAV0@ABI@Z
_TEXT	SEGMENT
_kData$ = 8						; size = 4
??$?6I@FDataStream@@QAEAAV0@ABI@Z PROC			; FDataStream::operator<<<unsigned int>, COMDAT
; _this$ = ecx

; 246  : 	// If the compiler produces an error here complaining about 
; 247  : 	// YouMustImplementASerializeOperatorForThisTypeError then
; 248  : 	// it could not find a specialization for the type supplied
; 249  : 	// in scope. If a specialization exists, be sure to include
; 250  : 	// the header (FStlContainerSerialization.h, for example), 
; 251  : 	// if not, implement :
; 252  : 	// FDataStream & operator<<(FDataStream &, YourCustomType &)
; 253  : 	Write( kData );

	mov	eax, DWORD PTR _kData$[esp-4]
	push	esi
	push	eax
	mov	esi, ecx
	call	?Write@FDataStream@@IAEXABI@Z		; FDataStream::Write

; 254  : 	return ( *this );

	mov	eax, esi
	pop	esi

; 255  : }

	ret	4
??$?6I@FDataStream@@QAEAAV0@ABI@Z ENDP			; FDataStream::operator<<<unsigned int>
_TEXT	ENDS
PUBLIC	?dxWrap@@YAHH@Z					; dxWrap
; Function compile flags: /Ogtpy
; File c:\users\enormousapplepie\documents\github\lekmod\lekmod_dll\cvgamecoredll_expansion2\cvgamecoreutils.h
;	COMDAT ?dxWrap@@YAHH@Z
_TEXT	SEGMENT
_iDX$ = 8						; size = 4
?dxWrap@@YAHH@Z PROC					; dxWrap, COMDAT

; 74   : 	const CvMap& kMap = GC.getMap();

	mov	eax, DWORD PTR ?gGlobals@@3VCvGlobals@@A+52

; 75   : 	return wrapCoordDifference(iDX, kMap.getGridWidth(), kMap.isWrapX());

	mov	edx, DWORD PTR [eax+4020]
	cmp	BYTE PTR [eax+4056], 0
	mov	eax, DWORD PTR _iDX$[esp-4]
	je	SHORT $LN13@dxWrap
	mov	ecx, edx
	shr	ecx, 1
	cmp	eax, ecx
	jle	SHORT $LN11@dxWrap
	sub	eax, edx

; 76   : }

	ret	0

; 75   : 	return wrapCoordDifference(iDX, kMap.getGridWidth(), kMap.isWrapX());

$LN11@dxWrap:
	neg	ecx
	cmp	eax, ecx
	jge	SHORT $LN13@dxWrap
	add	eax, edx
$LN13@dxWrap:

; 76   : }

	ret	0
?dxWrap@@YAHH@Z ENDP					; dxWrap
_TEXT	ENDS
PUBLIC	?dyWrap@@YAHH@Z					; dyWrap
; Function compile flags: /Ogtpy
;	COMDAT ?dyWrap@@YAHH@Z
_TEXT	SEGMENT
_iDY$ = 8						; size = 4
?dyWrap@@YAHH@Z PROC					; dyWrap, COMDAT

; 80   : 	const CvMap& kMap = GC.getMap();

	mov	eax, DWORD PTR ?gGlobals@@3VCvGlobals@@A+52

; 81   : 	return wrapCoordDifference(iDY, kMap.getGridHeight(), kMap.isWrapY());

	mov	edx, DWORD PTR [eax+4024]
	cmp	BYTE PTR [eax+4057], 0
	mov	eax, DWORD PTR _iDY$[esp-4]
	je	SHORT $LN13@dyWrap
	mov	ecx, edx
	shr	ecx, 1
	cmp	eax, ecx
	jle	SHORT $LN11@dyWrap
	sub	eax, edx

; 82   : }

	ret	0

; 81   : 	return wrapCoordDifference(iDY, kMap.getGridHeight(), kMap.isWrapY());

$LN11@dyWrap:
	neg	ecx
	cmp	eax, ecx
	jge	SHORT $LN13@dyWrap
	add	eax, edx
$LN13@dyWrap:

; 82   : }

	ret	0
?dyWrap@@YAHH@Z ENDP					; dyWrap
_TEXT	ENDS
PUBLIC	?plotDistance@@YAHHHHH@Z			; plotDistance
; Function compile flags: /Ogtpy
;	COMDAT ?plotDistance@@YAHHHHH@Z
_TEXT	SEGMENT
_iDY$ = -12						; size = 4
tv320 = -8						; size = 4
tv357 = -4						; size = 4
_iX1$ = 8						; size = 4
_iDX$ = 12						; size = 4
_iY1$ = 12						; size = 4
$T221689 = 16						; size = 4
_iX2$ = 16						; size = 4
_iY2$ = 20						; size = 4
?plotDistance@@YAHHHHH@Z PROC				; plotDistance, COMDAT

; 144  : {

	sub	esp, 12					; 0000000cH

; 145  : 	int iDX;
; 146  : 	int iWrappedDX = dxWrap(iX2 - iX1);

	mov	ecx, DWORD PTR _iX2$[esp+8]
	sub	ecx, DWORD PTR _iX1$[esp+8]
	push	ebx
	push	ebp
	push	esi
	push	edi
	mov	edi, DWORD PTR ?gGlobals@@3VCvGlobals@@A+52
	cmp	BYTE PTR [edi+4056], 0
	mov	edx, DWORD PTR [edi+4020]
	mov	DWORD PTR tv320[esp+28], ecx
	je	SHORT $LN18@plotDistan
	mov	eax, edx
	shr	eax, 1
	cmp	ecx, eax
	jle	SHORT $LN20@plotDistan
	sub	ecx, edx
	jmp	SHORT $LN18@plotDistan
$LN20@plotDistan:
	neg	eax
	cmp	ecx, eax
	jge	SHORT $LN18@plotDistan
	add	ecx, edx
$LN18@plotDistan:

; 147  : 	int iWrappedDY = dyWrap(iY2 - iY1);

	mov	ebp, DWORD PTR _iY2$[esp+24]
	sub	ebp, DWORD PTR _iY1$[esp+24]
	cmp	BYTE PTR [edi+4057], 0
	mov	eax, DWORD PTR [edi+4024]
	je	SHORT $LN32@plotDistan
	mov	edx, eax
	shr	edx, 1
	cmp	ebp, edx
	jle	SHORT $LN34@plotDistan
	mov	ebx, ebp
	sub	ebx, eax
	mov	DWORD PTR $T221689[esp+24], ebx
	jmp	SHORT $LN36@plotDistan
$LN34@plotDistan:
	neg	edx
	cmp	ebp, edx
	jge	SHORT $LN32@plotDistan
	lea	ebx, DWORD PTR [eax+ebp]
	mov	DWORD PTR $T221689[esp+24], ebx
	jmp	SHORT $LN36@plotDistan
$LN32@plotDistan:
	mov	ebx, ebp
	mov	DWORD PTR $T221689[esp+24], ebp
$LN36@plotDistan:

; 148  : 	int iDY = abs(iWrappedDY);

	mov	eax, ebx
	cdq
	mov	esi, eax
	xor	esi, edx
	sub	esi, edx

; 149  : 
; 150  : #ifdef GAMECOREUTILS_FIX_PLOT_DISTANCE
; 151  : 	const CvMap& kMap = GC.getMap();
; 152  : 	// equidistant column joint fix (on X-wrapped maps):
; 153  : 	if ((kMap.isWrapX()) && (abs(iWrappedDX * 2) == kMap.getGridWidth()) && (iDY % 2 != 0) && ((iY1 % 2 == 0) == (iWrappedDX > (kMap.getGridWidth() >> 2))))

	cmp	BYTE PTR [edi+4056], 0
	mov	DWORD PTR _iDY$[esp+28], esi
	je	$LN77@plotDistan
	lea	eax, DWORD PTR [ecx+ecx]
	cdq
	mov	ebx, eax
	mov	eax, DWORD PTR [edi+4020]
	xor	ebx, edx
	sub	ebx, edx
	cmp	ebx, eax
	jne	SHORT $LN73@plotDistan
	mov	edx, esi
	and	edx, -2147483647			; 80000001H
	jns	SHORT $LN79@plotDistan
	dec	edx
	or	edx, -2					; fffffffeH
	inc	edx
$LN79@plotDistan:
	je	SHORT $LN73@plotDistan
	sar	eax, 2
	xor	edx, edx
	cmp	ecx, eax
	mov	eax, DWORD PTR _iY1$[esp+24]
	setg	dl
	and	eax, -2147483647			; 80000001H
	jns	SHORT $LN80@plotDistan
	dec	eax
	or	eax, -2					; fffffffeH
	inc	eax
$LN80@plotDistan:

; 154  : 	{
; 155  : 		iWrappedDX *= -1;  // change polarity

	mov	ebx, DWORD PTR $T221689[esp+24]
	neg	eax
	sbb	eax, eax
	inc	eax
	cmp	eax, edx
	jne	SHORT $LN5@plotDistan
	neg	ecx
	jmp	SHORT $LN5@plotDistan
$LN73@plotDistan:
	mov	ebx, DWORD PTR $T221689[esp+24]
$LN5@plotDistan:

; 156  : 	}
; 157  : 	if ((kMap.isWrapX()) && (abs(iWrappedDX * 2) == kMap.getGridWidth()) && (abs(iWrappedDY) < abs(iY2 - iY1)) && (iDY % 2 == 0) && (iX2 - iX1 < 0))

	cmp	BYTE PTR [edi+4056], 0
	je	$LN77@plotDistan
	lea	eax, DWORD PTR [ecx+ecx]
	cdq
	xor	eax, edx
	sub	eax, edx
	cmp	eax, DWORD PTR [edi+4020]
	jne	SHORT $LN75@plotDistan
	mov	eax, ebp
	cdq
	xor	eax, edx
	sub	eax, edx
	cmp	esi, eax
	jge	SHORT $LN75@plotDistan
	mov	edx, DWORD PTR _iDY$[esp+28]
	and	edx, -2147483647			; 80000001H
	jns	SHORT $LN81@plotDistan
	dec	edx
	or	edx, -2					; fffffffeH
	inc	edx
$LN81@plotDistan:
	jne	SHORT $LN75@plotDistan
	cmp	DWORD PTR tv320[esp+28], 0
	jge	SHORT $LN75@plotDistan

; 158  : 	{
; 159  : 		iWrappedDX *= -1;  // change polarity

	neg	ecx
$LN75@plotDistan:

; 160  : 	}
; 161  : 	// special case when map is toroidal AND map height is odd
; 162  : 	// TODO works but ugly
; 163  : 	if ((kMap.isWrapX()) && (kMap.getGridHeight() % 2 != 0) && (iY1 % 2 == kMap.getGridWidth() % 2) && (iY2 % 2 == 0) &&
; 164  : 		(abs(iWrappedDY) < abs(iY2 - iY1)) && (abs(iX2 - iX1) == kMap.getGridWidth() / 2 + ((kMap.getGridWidth() % 2 == 1) && (iX2 - iX1 > 0)) ? 1 : 0))

	cmp	BYTE PTR [edi+4056], 0
	je	$LN77@plotDistan
	mov	eax, DWORD PTR [edi+4024]
	and	eax, -2147483647			; 80000001H
	jns	SHORT $LN82@plotDistan
	dec	eax
	or	eax, -2					; fffffffeH
	inc	eax
$LN82@plotDistan:
	je	$LN77@plotDistan
	mov	edi, DWORD PTR [edi+4020]
	mov	DWORD PTR tv357[esp+28], edi
	and	edi, -2147483647			; 80000001H
	jns	SHORT $LN83@plotDistan
	dec	edi
	or	edi, -2					; fffffffeH
	inc	edi
$LN83@plotDistan:
	mov	edx, DWORD PTR _iY1$[esp+24]
	and	edx, -2147483647			; 80000001H
	jns	SHORT $LN84@plotDistan
	dec	edx
	or	edx, -2					; fffffffeH
	inc	edx
$LN84@plotDistan:
	cmp	edx, edi
	jne	SHORT $LN77@plotDistan
	mov	eax, DWORD PTR _iY2$[esp+24]
	and	eax, -2147483647			; 80000001H
	jns	SHORT $LN85@plotDistan
	dec	eax
	or	eax, -2					; fffffffeH
	inc	eax
$LN85@plotDistan:
	jne	SHORT $LN77@plotDistan
	mov	eax, ebp
	cdq
	xor	eax, edx
	sub	eax, edx
	cmp	esi, eax
	jge	SHORT $LN77@plotDistan
	cmp	edi, 1
	jne	SHORT $LN76@plotDistan
	cmp	DWORD PTR tv320[esp+28], 0
	jle	SHORT $LN76@plotDistan
	mov	esi, edi
	jmp	SHORT $LN9@plotDistan
$LN76@plotDistan:
	xor	esi, esi
$LN9@plotDistan:
	mov	eax, DWORD PTR tv320[esp+28]
	cdq
	mov	edi, eax
	mov	eax, DWORD PTR tv357[esp+28]
	xor	edi, edx
	sub	edi, edx
	cdq
	sub	eax, edx
	sar	eax, 1
	add	eax, esi
	cmp	edi, eax
	jne	SHORT $LN77@plotDistan

; 165  : 	{
; 166  : 		iWrappedDX -= (iWrappedDX > 0) - (iWrappedDX < 0);  // decrease regardless of polarity

	xor	edx, edx
	test	ecx, ecx
	setl	dl
	xor	eax, eax
	test	ecx, ecx
	setg	al
	sub	edx, eax
	add	ecx, edx
$LN77@plotDistan:

; 167  : 	}
; 168  : #endif
; 169  : 
; 170  : 	// convert to hex-space coordinates - the coordinate system axes are E and NE (not orthogonal)
; 171  : 	int iHX1 = xToHexspaceX(iX1, iY1);

	mov	eax, DWORD PTR _iY1$[esp+24]
	test	eax, eax
	jge	SHORT $LN88@plotDistan
	dec	eax
	cdq
	sub	eax, edx
$LN88@plotDistan:
	mov	edi, DWORD PTR _iX1$[esp+24]

; 172  : 	int iHX2 = xToHexspaceX(iX1 + iWrappedDX, iY1 + iWrappedDY);

	mov	edx, DWORD PTR _iY1$[esp+24]
	sar	eax, 1
	mov	esi, edi
	sub	esi, eax
	lea	eax, DWORD PTR [ebx+edx]
	test	eax, eax
	jge	SHORT $LN89@plotDistan
	dec	eax
	cdq
	sub	eax, edx
$LN89@plotDistan:
	sar	eax, 1
	sub	ecx, eax
	add	ecx, edi

; 173  : 
; 174  : #ifdef GAMECOREUTILS_FIX_PLOT_DISTANCE
; 175  : 	// obvious bug
; 176  : 	iDX = abs(iHX2 - iHX1);

	sub	ecx, esi
	mov	eax, ecx
	cdq
	xor	eax, edx
	sub	eax, edx

; 177  : #else
; 178  : 	iDX = abs(dxWrap(iHX2 - iHX1));
; 179  : #endif
; 180  : 
; 181  : #ifdef NQM_GAME_CORE_UTILS_OPTIMIZATIONS
; 182  : 	if (((iHX2 - iHX1) ^ (iWrappedDY)) >= 0)  // the signs match
; 183  : #else
; 184  : 	if((iHX2 - iHX1 >= 0) == (iWrappedDY >= 0))  // the signs match

	xor	edx, edx
	test	ecx, ecx
	setge	dl
	xor	ecx, ecx
	test	ebx, ebx
	setge	cl
	pop	edi
	pop	esi
	pop	ebp
	mov	DWORD PTR _iDX$[esp+12], eax
	pop	ebx
	cmp	edx, ecx
	jne	SHORT $LN2@plotDistan

; 185  : #endif
; 186  : 	{
; 187  : 		return iDX + iDY;

	mov	edx, DWORD PTR _iDY$[esp+12]
	add	eax, edx

; 195  : #endif
; 196  : 	}
; 197  : }

	add	esp, 12					; 0000000cH
	ret	0
$LN2@plotDistan:

; 188  : 	}
; 189  : 	else
; 190  : 	{
; 191  : #ifdef NQM_FAST_COMP
; 192  : 		return (MAX(iDX, iDY));
; 193  : #else
; 194  : 		return (std::max(iDX, iDY));

	cmp	eax, DWORD PTR _iDY$[esp+12]
	lea	eax, DWORD PTR _iDY$[esp+12]
	jl	SHORT $LN71@plotDistan
	lea	eax, DWORD PTR _iDX$[esp+8]
$LN71@plotDistan:
	mov	eax, DWORD PTR [eax]

; 195  : #endif
; 196  : 	}
; 197  : }

	add	esp, 12					; 0000000cH
	ret	0
?plotDistance@@YAHHHHH@Z ENDP				; plotDistance
_TEXT	ENDS
PUBLIC	?Write@CvBuilderTaskingAI@@QAEXAAVFDataStream@@@Z ; CvBuilderTaskingAI::Write
EXTRN	??6@YAAAVFDataStream@@AAV0@ABW4BuildTypes@@@Z:PROC ; operator<<
; Function compile flags: /Ogtpy
; File c:\users\enormousapplepie\documents\github\lekmod\lekmod_dll\cvgamecoredll_expansion2\cvbuildertaskingai.cpp
;	COMDAT ?Write@CvBuilderTaskingAI@@QAEXAAVFDataStream@@@Z
_TEXT	SEGMENT
_uiVersion$ = -4					; size = 4
$T221794 = 8						; size = 4
_kStream$ = 8						; size = 4
?Write@CvBuilderTaskingAI@@QAEXAAVFDataStream@@@Z PROC	; CvBuilderTaskingAI::Write, COMDAT
; _this$ = ecx

; 160  : {

	push	ecx
	push	ebx
	push	esi
	push	edi

; 161  : 	// Current version number
; 162  : 	uint uiVersion = 2;
; 163  : 	kStream << uiVersion;

	mov	edi, DWORD PTR _kStream$[esp+12]
	lea	eax, DWORD PTR _uiVersion$[esp+16]
	mov	ebx, ecx
	push	eax
	mov	ecx, edi
	mov	DWORD PTR _uiVersion$[esp+20], 2
	call	?Write@FDataStream@@IAEXABI@Z		; FDataStream::Write

; 164  : 
; 165  : 	kStream << m_eRepairBuild;

	lea	ecx, DWORD PTR [ebx+4]
	push	ecx
	push	edi
	call	??6@YAAAVFDataStream@@AAV0@ABW4BuildTypes@@@Z ; operator<<

; 166  : 
; 167  : 	// non-territory plots
; 168  : 	kStream << m_aiNonTerritoryPlots.size();

	mov	edx, DWORD PTR ?m_aiNonTerritoryPlots@CvBuilderTaskingAI@@2V?$FStaticVector@H$0EA@$00$0BCJ@$0A@@@A+4
	add	esp, 8
	lea	eax, DWORD PTR $T221794[esp+12]
	push	eax
	mov	ecx, edi
	mov	DWORD PTR $T221794[esp+16], edx
	call	?Write@FDataStream@@IAEXABI@Z		; FDataStream::Write

; 169  : 	for(uint ui = 0; ui < m_aiNonTerritoryPlots.size(); ui++)

	xor	esi, esi
	cmp	DWORD PTR ?m_aiNonTerritoryPlots@CvBuilderTaskingAI@@2V?$FStaticVector@H$0EA@$00$0BCJ@$0A@@@A+4, esi
	jbe	SHORT $LN1@Write
	npad	5
$LL3@Write:
	mov	ecx, DWORD PTR ?m_aiNonTerritoryPlots@CvBuilderTaskingAI@@2V?$FStaticVector@H$0EA@$00$0BCJ@$0A@@@A
	lea	edx, DWORD PTR [ecx+esi*4]

; 170  : 	{
; 171  : 		kStream << m_aiNonTerritoryPlots[ui];

	push	edx
	mov	ecx, edi
	call	?Write@FDataStream@@IAEXABH@Z		; FDataStream::Write
	inc	esi
	cmp	esi, DWORD PTR ?m_aiNonTerritoryPlots@CvBuilderTaskingAI@@2V?$FStaticVector@H$0EA@$00$0BCJ@$0A@@@A+4
	jb	SHORT $LL3@Write
$LN1@Write:

; 172  : 	}
; 173  : 
; 174  : #ifndef AUI_WORKER_UNHARDCODE_NO_REMOVE_FEATURE_THAT_IS_REQUIRED_FOR_UNIQUE_IMPROVEMENT
; 175  : 	kStream << m_bKeepMarshes;

	lea	eax, DWORD PTR [ebx+58460]
	push	eax
	mov	ecx, edi
	call	?Write@FDataStream@@IAEXAB_N@Z		; FDataStream::Write

; 176  : 	kStream << m_bKeepJungle;

	add	ebx, 58461				; 0000e45dH
	push	ebx
	mov	ecx, edi
	call	?Write@FDataStream@@IAEXAB_N@Z		; FDataStream::Write
	pop	edi
	pop	esi
	pop	ebx

; 177  : #endif
; 178  : }

	pop	ecx
	ret	4
?Write@CvBuilderTaskingAI@@QAEXAAVFDataStream@@@Z ENDP	; CvBuilderTaskingAI::Write
_TEXT	ENDS
PUBLIC	?GetPlotYield@@YAHPAVCvPlot@@W4YieldTypes@@@Z	; GetPlotYield
EXTRN	?calculateNatureYield@CvPlot@@QBEHW4YieldTypes@@W4TeamTypes@@_N@Z:PROC ; CvPlot::calculateNatureYield
; Function compile flags: /Ogtpy
;	COMDAT ?GetPlotYield@@YAHPAVCvPlot@@W4YieldTypes@@@Z
_TEXT	SEGMENT
_pPlot$ = 8						; size = 4
_eYield$ = 12						; size = 4
?GetPlotYield@@YAHPAVCvPlot@@W4YieldTypes@@@Z PROC	; GetPlotYield, COMDAT

; 285  : 	if(pPlot->getTerrainType() == NO_TERRAIN)

	mov	ecx, DWORD PTR _pPlot$[esp-4]
	cmp	BYTE PTR [ecx+6], -1
	jne	SHORT $LN1@GetPlotYie

; 286  : 	{
; 287  : 		return 0;

	xor	eax, eax

; 291  : }

	ret	0
$LN1@GetPlotYie:

; 288  : 	}
; 289  : 
; 290  : 	return pPlot->calculateNatureYield(eYield, NO_TEAM);;

	mov	eax, DWORD PTR _eYield$[esp-4]
	push	0
	push	-1
	push	eax
	call	?calculateNatureYield@CvPlot@@QBEHW4YieldTypes@@W4TeamTypes@@_N@Z ; CvPlot::calculateNatureYield

; 291  : }

	ret	0
?GetPlotYield@@YAHPAVCvPlot@@W4YieldTypes@@@Z ENDP	; GetPlotYield
_TEXT	ENDS
PUBLIC	?GetFalloutFeature@CvBuilderTaskingAI@@QAE?AW4FeatureTypes@@XZ ; CvBuilderTaskingAI::GetFalloutFeature
; Function compile flags: /Ogtpy
;	COMDAT ?GetFalloutFeature@CvBuilderTaskingAI@@QAE?AW4FeatureTypes@@XZ
_TEXT	SEGMENT
?GetFalloutFeature@CvBuilderTaskingAI@@QAE?AW4FeatureTypes@@XZ PROC ; CvBuilderTaskingAI::GetFalloutFeature, COMDAT
; _this$ = ecx

; 3138 : 	return static_cast<FeatureTypes>(GC.getNUKE_FEATURE());

	mov	eax, DWORD PTR ?gGlobals@@3VCvGlobals@@A+8404

; 3139 : }

	ret	0
?GetFalloutFeature@CvBuilderTaskingAI@@QAE?AW4FeatureTypes@@XZ ENDP ; CvBuilderTaskingAI::GetFalloutFeature
_TEXT	ENDS
PUBLIC	?GetFalloutRemove@CvBuilderTaskingAI@@QAE?AW4BuildTypes@@XZ ; CvBuilderTaskingAI::GetFalloutRemove
EXTRN	?isFeatureRemove@CvBuildInfo@@QBE_NH@Z:PROC	; CvBuildInfo::isFeatureRemove
; Function compile flags: /Ogtpy
;	COMDAT ?GetFalloutRemove@CvBuilderTaskingAI@@QAE?AW4BuildTypes@@XZ
_TEXT	SEGMENT
?GetFalloutRemove@CvBuilderTaskingAI@@QAE?AW4BuildTypes@@XZ PROC ; CvBuilderTaskingAI::GetFalloutRemove, COMDAT
; _this$ = ecx

; 3146 : {

	push	edi

; 3147 : 	FeatureTypes eFalloutFeature = m_eFalloutFeature;

	mov	edi, DWORD PTR [ecx+58452]

; 3148 : 	if(eFalloutFeature == NO_FEATURE)

	cmp	edi, -1
	jne	SHORT $LN5@GetFallout

; 3149 : 	{
; 3150 : 		eFalloutFeature = GetFalloutFeature();

	mov	edi, DWORD PTR ?gGlobals@@3VCvGlobals@@A+8404

; 3151 : 	}
; 3152 : 
; 3153 : 	if(eFalloutFeature == NO_FEATURE)

	cmp	edi, -1
	jne	SHORT $LN5@GetFallout

; 3154 : 	{
; 3155 : 		return NO_BUILD;

	or	eax, edi
	pop	edi

; 3173 : }

	ret	0
$LN5@GetFallout:
	push	esi

; 3156 : 	}
; 3157 : 
; 3158 : #ifdef AUI_WARNING_FIXES
; 3159 : 	for (uint iBuild = 0; iBuild < GC.getNumBuildInfos(); iBuild++)
; 3160 : #else
; 3161 : 	for(int iBuild = 0; iBuild < GC.getNumBuildInfos(); iBuild++)

	mov	ecx, OFFSET ?gGlobals@@3VCvGlobals@@A	; gGlobals
	xor	esi, esi
	call	?getNumBuildInfos@CvGlobals@@QAEHXZ	; CvGlobals::getNumBuildInfos
	test	eax, eax
	jle	SHORT $LN2@GetFallout
	npad	4
$LL4@GetFallout:

; 3162 : #endif
; 3163 : 	{
; 3164 : 		BuildTypes eBuild = (BuildTypes)iBuild;
; 3165 : 		CvBuildInfo* pBuildInfo = GC.getBuildInfo(eBuild);

	push	esi
	mov	ecx, OFFSET ?gGlobals@@3VCvGlobals@@A	; gGlobals
	call	?getBuildInfo@CvGlobals@@QAEPAVCvBuildInfo@@W4BuildTypes@@@Z ; CvGlobals::getBuildInfo

; 3166 : 		if(NULL != pBuildInfo && pBuildInfo->isFeatureRemove(eFalloutFeature))

	test	eax, eax
	je	SHORT $LN3@GetFallout
	push	edi
	mov	ecx, eax
	call	?isFeatureRemove@CvBuildInfo@@QBE_NH@Z	; CvBuildInfo::isFeatureRemove
	test	al, al
	jne	SHORT $LN14@GetFallout
$LN3@GetFallout:

; 3156 : 	}
; 3157 : 
; 3158 : #ifdef AUI_WARNING_FIXES
; 3159 : 	for (uint iBuild = 0; iBuild < GC.getNumBuildInfos(); iBuild++)
; 3160 : #else
; 3161 : 	for(int iBuild = 0; iBuild < GC.getNumBuildInfos(); iBuild++)

	mov	ecx, OFFSET ?gGlobals@@3VCvGlobals@@A	; gGlobals
	inc	esi
	call	?getNumBuildInfos@CvGlobals@@QAEHXZ	; CvGlobals::getNumBuildInfos
	cmp	esi, eax
	jl	SHORT $LL4@GetFallout
$LN2@GetFallout:
	pop	esi

; 3169 : 		}
; 3170 : 	}
; 3171 : 
; 3172 : 	return NO_BUILD;

	or	eax, -1
	pop	edi

; 3173 : }

	ret	0
$LN14@GetFallout:

; 3167 : 		{
; 3168 : 			return eBuild;

	mov	eax, esi
	pop	esi
	pop	edi

; 3173 : }

	ret	0
?GetFalloutRemove@CvBuilderTaskingAI@@QAE?AW4BuildTypes@@XZ ENDP ; CvBuilderTaskingAI::GetFalloutRemove
_TEXT	ENDS
PUBLIC	?LogInfo@CvBuilderTaskingAI@@SAXVCvString@@PAVCvPlayer@@_N@Z ; CvBuilderTaskingAI::LogInfo
EXTRN	?getGameTurn@CvGame@@QAEHXZ:PROC		; CvGame::getGameTurn
EXTRN	__imp_??Y?$basic_string@DU?$char_traits@D@std@@V?$allocator@D@2@@std@@QAEAAV01@PBD@Z:PROC
EXTRN	__imp_??Y?$basic_string@DU?$char_traits@D@std@@V?$allocator@D@2@@std@@QAEAAV01@ABV01@@Z:PROC
EXTRN	?getCivilizationShortDescription@CvPlayer@@QBEPBDXZ:PROC ; CvPlayer::getCivilizationShortDescription
EXTRN	?GetInstance@FILogFileMgr@@SAAAV1@XZ:PROC	; FILogFileMgr::GetInstance
EXTRN	?GetBuilderAILogging@CvGlobals@@QAE_NXZ:PROC	; CvGlobals::GetBuilderAILogging
EXTRN	?getAILogging@CvGlobals@@QAE_NXZ:PROC		; CvGlobals::getAILogging
EXTRN	?getLogging@CvGlobals@@QAE_NXZ:PROC		; CvGlobals::getLogging
;	COMDAT xdata$x
; File c:\users\enormousapplepie\documents\github\lekmod\lekmod_dll\cvgamecoredllutil\include\cvstring.h
xdata$x	SEGMENT
__ehfuncinfo$?LogInfo@CvBuilderTaskingAI@@SAXVCvString@@PAVCvPlayer@@_N@Z DD 019930522H
	DD	05H
	DD	FLAT:__unwindtable$?LogInfo@CvBuilderTaskingAI@@SAXVCvString@@PAVCvPlayer@@_N@Z
	DD	2 DUP(00H)
	DD	2 DUP(00H)
	DD	00H
	DD	01H
__unwindtable$?LogInfo@CvBuilderTaskingAI@@SAXVCvString@@PAVCvPlayer@@_N@Z DD 0ffffffffH
	DD	FLAT:__unwindfunclet$?LogInfo@CvBuilderTaskingAI@@SAXVCvString@@PAVCvPlayer@@_N@Z$0
	DD	00H
	DD	FLAT:__unwindfunclet$?LogInfo@CvBuilderTaskingAI@@SAXVCvString@@PAVCvPlayer@@_N@Z$1
	DD	01H
	DD	FLAT:__unwindfunclet$?LogInfo@CvBuilderTaskingAI@@SAXVCvString@@PAVCvPlayer@@_N@Z$2
	DD	02H
	DD	FLAT:__unwindfunclet$?LogInfo@CvBuilderTaskingAI@@SAXVCvString@@PAVCvPlayer@@_N@Z$3
	DD	03H
	DD	FLAT:__unwindfunclet$?LogInfo@CvBuilderTaskingAI@@SAXVCvString@@PAVCvPlayer@@_N@Z$4
; Function compile flags: /Ogtpy
; File c:\users\enormousapplepie\documents\github\lekmod\lekmod_dll\cvgamecoredll_expansion2\cvbuildertaskingai.cpp
xdata$x	ENDS
;	COMDAT ?LogInfo@CvBuilderTaskingAI@@SAXVCvString@@PAVCvPlayer@@_N@Z
_TEXT	SEGMENT
_strLog$ = -124						; size = 28
_strPlayerName$ = -96					; size = 28
_strTemp$ = -68						; size = 28
_strFileName$ = -40					; size = 28
__$EHRec$ = -12						; size = 12
_strNewLogStr$ = 8					; size = 28
_pPlayer$ = 36						; size = 4
___formal$ = 40						; size = 1
?LogInfo@CvBuilderTaskingAI@@SAXVCvString@@PAVCvPlayer@@_N@Z PROC ; CvBuilderTaskingAI::LogInfo, COMDAT

; 3181 : {

	push	-1
	push	__ehhandler$?LogInfo@CvBuilderTaskingAI@@SAXVCvString@@PAVCvPlayer@@_N@Z
	mov	eax, DWORD PTR fs:0
	push	eax
	mov	DWORD PTR fs:0, esp
	sub	esp, 112				; 00000070H

; 3182 : 	if(!(GC.getLogging() && GC.getAILogging() && GC.GetBuilderAILogging()))

	mov	ecx, OFFSET ?gGlobals@@3VCvGlobals@@A	; gGlobals
	mov	DWORD PTR __$EHRec$[esp+132], 0
	call	?getLogging@CvGlobals@@QAE_NXZ		; CvGlobals::getLogging
	test	al, al
	je	$LN1@LogInfo
	mov	ecx, OFFSET ?gGlobals@@3VCvGlobals@@A	; gGlobals
	call	?getAILogging@CvGlobals@@QAE_NXZ	; CvGlobals::getAILogging
	test	al, al
	je	$LN1@LogInfo
	mov	ecx, OFFSET ?gGlobals@@3VCvGlobals@@A	; gGlobals
	call	?GetBuilderAILogging@CvGlobals@@QAE_NXZ	; CvGlobals::GetBuilderAILogging
	test	al, al
	je	$LN1@LogInfo
	push	esi

; 3185 : 	}
; 3186 : 
; 3187 : 	// Open the log file
; 3188 : 	CvString strFileName = "BuilderTaskingLog.csv";

	push	OFFSET $SG219135
	lea	ecx, DWORD PTR _strFileName$[esp+132]
	call	DWORD PTR __imp_??0?$basic_string@DU?$char_traits@D@std@@V?$allocator@D@2@@std@@QAE@PBD@Z
	mov	BYTE PTR __$EHRec$[esp+136], 1

; 3189 : 	FILogFile* pLog;
; 3190 : 	pLog = LOGFILEMGR.GetLog(strFileName, FILogFile::kDontTimeStamp);

	call	?GetInstance@FILogFileMgr@@SAAAV1@XZ	; FILogFileMgr::GetInstance
	lea	ecx, DWORD PTR _strFileName$[esp+128]
	mov	esi, eax
	call	DWORD PTR __imp_?c_str@?$basic_string@DU?$char_traits@D@std@@V?$allocator@D@2@@std@@QBEPBDXZ
	mov	edx, DWORD PTR [esi]
	push	0
	push	1
	push	eax
	mov	eax, DWORD PTR [edx+12]
	mov	ecx, esi
	call	eax

; 3191 : 
; 3192 : 	CvString strLog, strTemp;

	lea	ecx, DWORD PTR _strLog$[esp+128]
	mov	esi, eax
	call	DWORD PTR __imp_??0?$basic_string@DU?$char_traits@D@std@@V?$allocator@D@2@@std@@QAE@XZ
	lea	ecx, DWORD PTR _strTemp$[esp+128]
	mov	BYTE PTR __$EHRec$[esp+136], 2
	call	DWORD PTR __imp_??0?$basic_string@DU?$char_traits@D@std@@V?$allocator@D@2@@std@@QAE@XZ

; 3193 : 
; 3194 : 	CvString strPlayerName;

	lea	ecx, DWORD PTR _strPlayerName$[esp+128]
	mov	BYTE PTR __$EHRec$[esp+136], 3
	call	DWORD PTR __imp_??0?$basic_string@DU?$char_traits@D@std@@V?$allocator@D@2@@std@@QAE@XZ

; 3195 : 	strPlayerName = pPlayer->getCivilizationShortDescription();

	mov	ecx, DWORD PTR _pPlayer$[esp+124]
	mov	BYTE PTR __$EHRec$[esp+136], 4
	call	?getCivilizationShortDescription@CvPlayer@@QBEPBDXZ ; CvPlayer::getCivilizationShortDescription
	lea	ecx, DWORD PTR _strPlayerName$[esp+128]
	test	eax, eax
	je	SHORT $LN30@LogInfo
	push	eax
	call	DWORD PTR __imp_?assign@?$basic_string@DU?$char_traits@D@std@@V?$allocator@D@2@@std@@QAEAAV12@PBD@Z
	jmp	SHORT $LN29@LogInfo
$LN30@LogInfo:
	call	DWORD PTR __imp_?clear@?$basic_string@DU?$char_traits@D@std@@V?$allocator@D@2@@std@@QAEXXZ
$LN29@LogInfo:

; 3196 : 	strLog += strPlayerName;

	lea	ecx, DWORD PTR _strPlayerName$[esp+128]
	push	ecx
	lea	ecx, DWORD PTR _strLog$[esp+132]
	call	DWORD PTR __imp_??Y?$basic_string@DU?$char_traits@D@std@@V?$allocator@D@2@@std@@QAEAAV01@ABV01@@Z

; 3197 : 	strLog += ",";

	push	OFFSET $SG219140
	lea	ecx, DWORD PTR _strLog$[esp+132]
	call	DWORD PTR __imp_??Y?$basic_string@DU?$char_traits@D@std@@V?$allocator@D@2@@std@@QAEAAV01@PBD@Z

; 3198 : 
; 3199 : 	strTemp.Format("%d,", GC.getGame().getGameTurn()); // turn

	mov	ecx, DWORD PTR ?gGlobals@@3VCvGlobals@@A+48
	call	?getGameTurn@CvGame@@QAEHXZ		; CvGame::getGameTurn
	push	eax
	lea	edx, DWORD PTR _strTemp$[esp+132]
	push	OFFSET $SG219141
	push	edx
	call	?Format@CvString@@QAAXPBDZZ		; CvString::Format
	add	esp, 12					; 0000000cH

; 3200 : 	strLog += strTemp;

	lea	eax, DWORD PTR _strTemp$[esp+128]
	push	eax
	lea	ecx, DWORD PTR _strLog$[esp+132]
	call	DWORD PTR __imp_??Y?$basic_string@DU?$char_traits@D@std@@V?$allocator@D@2@@std@@QAEAAV01@ABV01@@Z

; 3201 : 	strLog += strNewLogStr;

	lea	ecx, DWORD PTR _strNewLogStr$[esp+124]
	push	ecx
	lea	ecx, DWORD PTR _strLog$[esp+132]
	call	DWORD PTR __imp_??Y?$basic_string@DU?$char_traits@D@std@@V?$allocator@D@2@@std@@QAEAAV01@ABV01@@Z

; 3202 : 	pLog->Msg(strLog);

	lea	ecx, DWORD PTR _strLog$[esp+128]
	call	DWORD PTR __imp_?c_str@?$basic_string@DU?$char_traits@D@std@@V?$allocator@D@2@@std@@QBEPBDXZ
	mov	edx, DWORD PTR [esi]
	push	eax
	mov	eax, DWORD PTR [edx]
	push	esi
	call	eax
	add	esp, 8

; 3203 : }

	lea	ecx, DWORD PTR _strPlayerName$[esp+128]
	mov	BYTE PTR __$EHRec$[esp+136], 3
	call	DWORD PTR __imp_??1?$basic_string@DU?$char_traits@D@std@@V?$allocator@D@2@@std@@QAE@XZ
	lea	ecx, DWORD PTR _strTemp$[esp+128]
	mov	BYTE PTR __$EHRec$[esp+136], 2
	call	DWORD PTR __imp_??1?$basic_string@DU?$char_traits@D@std@@V?$allocator@D@2@@std@@QAE@XZ
	lea	ecx, DWORD PTR _strLog$[esp+128]
	mov	BYTE PTR __$EHRec$[esp+136], 1
	call	DWORD PTR __imp_??1?$basic_string@DU?$char_traits@D@std@@V?$allocator@D@2@@std@@QAE@XZ
	lea	ecx, DWORD PTR _strFileName$[esp+128]
	mov	BYTE PTR __$EHRec$[esp+136], 0
	call	DWORD PTR __imp_??1?$basic_string@DU?$char_traits@D@std@@V?$allocator@D@2@@std@@QAE@XZ
	lea	ecx, DWORD PTR _strNewLogStr$[esp+124]
	mov	DWORD PTR __$EHRec$[esp+136], -1
	call	DWORD PTR __imp_??1?$basic_string@DU?$char_traits@D@std@@V?$allocator@D@2@@std@@QAE@XZ
	pop	esi
	mov	ecx, DWORD PTR __$EHRec$[esp+124]
	mov	DWORD PTR fs:0, ecx
	add	esp, 124				; 0000007cH
	ret	0
$LN1@LogInfo:

; 3183 : 	{
; 3184 : 		return;

	lea	ecx, DWORD PTR _strNewLogStr$[esp+120]
	mov	DWORD PTR __$EHRec$[esp+132], -1
	call	DWORD PTR __imp_??1?$basic_string@DU?$char_traits@D@std@@V?$allocator@D@2@@std@@QAE@XZ

; 3203 : }

	mov	ecx, DWORD PTR __$EHRec$[esp+124]
	mov	DWORD PTR fs:0, ecx
	add	esp, 124				; 0000007cH
	ret	0
_TEXT	ENDS
;	COMDAT text$x
text$x	SEGMENT
__unwindfunclet$?LogInfo@CvBuilderTaskingAI@@SAXVCvString@@PAVCvPlayer@@_N@Z$0:
	lea	ecx, DWORD PTR _strNewLogStr$[ebp-4]
	jmp	??1CvString@@QAE@XZ			; CvString::~CvString
__unwindfunclet$?LogInfo@CvBuilderTaskingAI@@SAXVCvString@@PAVCvPlayer@@_N@Z$1:
	lea	ecx, DWORD PTR _strFileName$[ebp]
	jmp	??1CvString@@QAE@XZ			; CvString::~CvString
__unwindfunclet$?LogInfo@CvBuilderTaskingAI@@SAXVCvString@@PAVCvPlayer@@_N@Z$2:
	lea	ecx, DWORD PTR _strLog$[ebp]
	jmp	??1CvString@@QAE@XZ			; CvString::~CvString
__unwindfunclet$?LogInfo@CvBuilderTaskingAI@@SAXVCvString@@PAVCvPlayer@@_N@Z$3:
	lea	ecx, DWORD PTR _strTemp$[ebp]
	jmp	??1CvString@@QAE@XZ			; CvString::~CvString
__unwindfunclet$?LogInfo@CvBuilderTaskingAI@@SAXVCvString@@PAVCvPlayer@@_N@Z$4:
	lea	ecx, DWORD PTR _strPlayerName$[ebp]
	jmp	??1CvString@@QAE@XZ			; CvString::~CvString
__ehhandler$?LogInfo@CvBuilderTaskingAI@@SAXVCvString@@PAVCvPlayer@@_N@Z:
	mov	eax, OFFSET __ehfuncinfo$?LogInfo@CvBuilderTaskingAI@@SAXVCvString@@PAVCvPlayer@@_N@Z
	jmp	___CxxFrameHandler3
text$x	ENDS
?LogInfo@CvBuilderTaskingAI@@SAXVCvString@@PAVCvPlayer@@_N@Z ENDP ; CvBuilderTaskingAI::LogInfo
PUBLIC	?LogYieldInfo@CvBuilderTaskingAI@@SAXVCvString@@PAVCvPlayer@@@Z ; CvBuilderTaskingAI::LogYieldInfo
;	COMDAT xdata$x
; File c:\users\enormousapplepie\documents\github\lekmod\lekmod_dll\cvgamecoredllutil\include\cvstring.h
xdata$x	SEGMENT
__ehfuncinfo$?LogYieldInfo@CvBuilderTaskingAI@@SAXVCvString@@PAVCvPlayer@@@Z DD 019930522H
	DD	05H
	DD	FLAT:__unwindtable$?LogYieldInfo@CvBuilderTaskingAI@@SAXVCvString@@PAVCvPlayer@@@Z
	DD	2 DUP(00H)
	DD	2 DUP(00H)
	DD	00H
	DD	01H
__unwindtable$?LogYieldInfo@CvBuilderTaskingAI@@SAXVCvString@@PAVCvPlayer@@@Z DD 0ffffffffH
	DD	FLAT:__unwindfunclet$?LogYieldInfo@CvBuilderTaskingAI@@SAXVCvString@@PAVCvPlayer@@@Z$0
	DD	00H
	DD	FLAT:__unwindfunclet$?LogYieldInfo@CvBuilderTaskingAI@@SAXVCvString@@PAVCvPlayer@@@Z$1
	DD	01H
	DD	FLAT:__unwindfunclet$?LogYieldInfo@CvBuilderTaskingAI@@SAXVCvString@@PAVCvPlayer@@@Z$2
	DD	02H
	DD	FLAT:__unwindfunclet$?LogYieldInfo@CvBuilderTaskingAI@@SAXVCvString@@PAVCvPlayer@@@Z$3
	DD	03H
	DD	FLAT:__unwindfunclet$?LogYieldInfo@CvBuilderTaskingAI@@SAXVCvString@@PAVCvPlayer@@@Z$4
; Function compile flags: /Ogtpy
; File c:\users\enormousapplepie\documents\github\lekmod\lekmod_dll\cvgamecoredll_expansion2\cvbuildertaskingai.cpp
xdata$x	ENDS
;	COMDAT ?LogYieldInfo@CvBuilderTaskingAI@@SAXVCvString@@PAVCvPlayer@@@Z
_TEXT	SEGMENT
_strLog$ = -124						; size = 28
_strPlayerName$ = -96					; size = 28
_strTemp$ = -68						; size = 28
_strFileName$ = -40					; size = 28
__$EHRec$ = -12						; size = 12
_strNewLogStr$ = 8					; size = 28
_pPlayer$ = 36						; size = 4
?LogYieldInfo@CvBuilderTaskingAI@@SAXVCvString@@PAVCvPlayer@@@Z PROC ; CvBuilderTaskingAI::LogYieldInfo, COMDAT

; 3210 : {

	push	-1
	push	__ehhandler$?LogYieldInfo@CvBuilderTaskingAI@@SAXVCvString@@PAVCvPlayer@@@Z
	mov	eax, DWORD PTR fs:0
	push	eax
	mov	DWORD PTR fs:0, esp
	sub	esp, 112				; 00000070H

; 3211 : 	if(!(GC.getLogging() && GC.getAILogging() && GC.GetBuilderAILogging()))

	mov	ecx, OFFSET ?gGlobals@@3VCvGlobals@@A	; gGlobals
	mov	DWORD PTR __$EHRec$[esp+132], 0
	call	?getLogging@CvGlobals@@QAE_NXZ		; CvGlobals::getLogging
	test	al, al
	je	$LN1@LogYieldIn
	mov	ecx, OFFSET ?gGlobals@@3VCvGlobals@@A	; gGlobals
	call	?getAILogging@CvGlobals@@QAE_NXZ	; CvGlobals::getAILogging
	test	al, al
	je	$LN1@LogYieldIn
	mov	ecx, OFFSET ?gGlobals@@3VCvGlobals@@A	; gGlobals
	call	?GetBuilderAILogging@CvGlobals@@QAE_NXZ	; CvGlobals::GetBuilderAILogging
	test	al, al
	je	$LN1@LogYieldIn
	push	esi

; 3214 : 	}
; 3215 : 
; 3216 : 	// Open the log file
; 3217 : 	CvString strFileName = "BuilderTaskingYieldLog.csv";

	push	OFFSET $SG219149
	lea	ecx, DWORD PTR _strFileName$[esp+132]
	call	DWORD PTR __imp_??0?$basic_string@DU?$char_traits@D@std@@V?$allocator@D@2@@std@@QAE@PBD@Z
	mov	BYTE PTR __$EHRec$[esp+136], 1

; 3218 : 	FILogFile* pLog;
; 3219 : 	pLog = LOGFILEMGR.GetLog(strFileName, FILogFile::kDontTimeStamp);

	call	?GetInstance@FILogFileMgr@@SAAAV1@XZ	; FILogFileMgr::GetInstance
	lea	ecx, DWORD PTR _strFileName$[esp+128]
	mov	esi, eax
	call	DWORD PTR __imp_?c_str@?$basic_string@DU?$char_traits@D@std@@V?$allocator@D@2@@std@@QBEPBDXZ
	mov	edx, DWORD PTR [esi]
	push	0
	push	1
	push	eax
	mov	eax, DWORD PTR [edx+12]
	mov	ecx, esi
	call	eax

; 3220 : 
; 3221 : 	CvString strLog, strTemp;

	lea	ecx, DWORD PTR _strLog$[esp+128]
	mov	esi, eax
	call	DWORD PTR __imp_??0?$basic_string@DU?$char_traits@D@std@@V?$allocator@D@2@@std@@QAE@XZ
	lea	ecx, DWORD PTR _strTemp$[esp+128]
	mov	BYTE PTR __$EHRec$[esp+136], 2
	call	DWORD PTR __imp_??0?$basic_string@DU?$char_traits@D@std@@V?$allocator@D@2@@std@@QAE@XZ

; 3222 : 
; 3223 : 	CvString strPlayerName;

	lea	ecx, DWORD PTR _strPlayerName$[esp+128]
	mov	BYTE PTR __$EHRec$[esp+136], 3
	call	DWORD PTR __imp_??0?$basic_string@DU?$char_traits@D@std@@V?$allocator@D@2@@std@@QAE@XZ

; 3224 : 	strPlayerName = pPlayer->getCivilizationShortDescription();

	mov	ecx, DWORD PTR _pPlayer$[esp+124]
	mov	BYTE PTR __$EHRec$[esp+136], 4
	call	?getCivilizationShortDescription@CvPlayer@@QBEPBDXZ ; CvPlayer::getCivilizationShortDescription
	lea	ecx, DWORD PTR _strPlayerName$[esp+128]
	test	eax, eax
	je	SHORT $LN30@LogYieldIn
	push	eax
	call	DWORD PTR __imp_?assign@?$basic_string@DU?$char_traits@D@std@@V?$allocator@D@2@@std@@QAEAAV12@PBD@Z
	jmp	SHORT $LN29@LogYieldIn
$LN30@LogYieldIn:
	call	DWORD PTR __imp_?clear@?$basic_string@DU?$char_traits@D@std@@V?$allocator@D@2@@std@@QAEXXZ
$LN29@LogYieldIn:

; 3225 : 	strLog += strPlayerName;

	lea	ecx, DWORD PTR _strPlayerName$[esp+128]
	push	ecx
	lea	ecx, DWORD PTR _strLog$[esp+132]
	call	DWORD PTR __imp_??Y?$basic_string@DU?$char_traits@D@std@@V?$allocator@D@2@@std@@QAEAAV01@ABV01@@Z

; 3226 : 	strLog += ",";

	push	OFFSET $SG219154
	lea	ecx, DWORD PTR _strLog$[esp+132]
	call	DWORD PTR __imp_??Y?$basic_string@DU?$char_traits@D@std@@V?$allocator@D@2@@std@@QAEAAV01@PBD@Z

; 3227 : 
; 3228 : 	strTemp.Format("%d,", GC.getGame().getGameTurn()); // turn

	mov	ecx, DWORD PTR ?gGlobals@@3VCvGlobals@@A+48
	call	?getGameTurn@CvGame@@QAEHXZ		; CvGame::getGameTurn
	push	eax
	lea	edx, DWORD PTR _strTemp$[esp+132]
	push	OFFSET $SG219155
	push	edx
	call	?Format@CvString@@QAAXPBDZZ		; CvString::Format
	add	esp, 12					; 0000000cH

; 3229 : 	strLog += strTemp;

	lea	eax, DWORD PTR _strTemp$[esp+128]
	push	eax
	lea	ecx, DWORD PTR _strLog$[esp+132]
	call	DWORD PTR __imp_??Y?$basic_string@DU?$char_traits@D@std@@V?$allocator@D@2@@std@@QAEAAV01@ABV01@@Z

; 3230 : 	strLog += strNewLogStr;

	lea	ecx, DWORD PTR _strNewLogStr$[esp+124]
	push	ecx
	lea	ecx, DWORD PTR _strLog$[esp+132]
	call	DWORD PTR __imp_??Y?$basic_string@DU?$char_traits@D@std@@V?$allocator@D@2@@std@@QAEAAV01@ABV01@@Z

; 3231 : 	pLog->Msg(strLog);

	lea	ecx, DWORD PTR _strLog$[esp+128]
	call	DWORD PTR __imp_?c_str@?$basic_string@DU?$char_traits@D@std@@V?$allocator@D@2@@std@@QBEPBDXZ
	mov	edx, DWORD PTR [esi]
	push	eax
	mov	eax, DWORD PTR [edx]
	push	esi
	call	eax
	add	esp, 8

; 3232 : }

	lea	ecx, DWORD PTR _strPlayerName$[esp+128]
	mov	BYTE PTR __$EHRec$[esp+136], 3
	call	DWORD PTR __imp_??1?$basic_string@DU?$char_traits@D@std@@V?$allocator@D@2@@std@@QAE@XZ
	lea	ecx, DWORD PTR _strTemp$[esp+128]
	mov	BYTE PTR __$EHRec$[esp+136], 2
	call	DWORD PTR __imp_??1?$basic_string@DU?$char_traits@D@std@@V?$allocator@D@2@@std@@QAE@XZ
	lea	ecx, DWORD PTR _strLog$[esp+128]
	mov	BYTE PTR __$EHRec$[esp+136], 1
	call	DWORD PTR __imp_??1?$basic_string@DU?$char_traits@D@std@@V?$allocator@D@2@@std@@QAE@XZ
	lea	ecx, DWORD PTR _strFileName$[esp+128]
	mov	BYTE PTR __$EHRec$[esp+136], 0
	call	DWORD PTR __imp_??1?$basic_string@DU?$char_traits@D@std@@V?$allocator@D@2@@std@@QAE@XZ
	lea	ecx, DWORD PTR _strNewLogStr$[esp+124]
	mov	DWORD PTR __$EHRec$[esp+136], -1
	call	DWORD PTR __imp_??1?$basic_string@DU?$char_traits@D@std@@V?$allocator@D@2@@std@@QAE@XZ
	pop	esi
	mov	ecx, DWORD PTR __$EHRec$[esp+124]
	mov	DWORD PTR fs:0, ecx
	add	esp, 124				; 0000007cH
	ret	0
$LN1@LogYieldIn:

; 3212 : 	{
; 3213 : 		return;

	lea	ecx, DWORD PTR _strNewLogStr$[esp+120]
	mov	DWORD PTR __$EHRec$[esp+132], -1
	call	DWORD PTR __imp_??1?$basic_string@DU?$char_traits@D@std@@V?$allocator@D@2@@std@@QAE@XZ

; 3232 : }

	mov	ecx, DWORD PTR __$EHRec$[esp+124]
	mov	DWORD PTR fs:0, ecx
	add	esp, 124				; 0000007cH
	ret	0
_TEXT	ENDS
;	COMDAT text$x
text$x	SEGMENT
__unwindfunclet$?LogYieldInfo@CvBuilderTaskingAI@@SAXVCvString@@PAVCvPlayer@@@Z$0:
	lea	ecx, DWORD PTR _strNewLogStr$[ebp-4]
	jmp	??1CvString@@QAE@XZ			; CvString::~CvString
__unwindfunclet$?LogYieldInfo@CvBuilderTaskingAI@@SAXVCvString@@PAVCvPlayer@@@Z$1:
	lea	ecx, DWORD PTR _strFileName$[ebp]
	jmp	??1CvString@@QAE@XZ			; CvString::~CvString
__unwindfunclet$?LogYieldInfo@CvBuilderTaskingAI@@SAXVCvString@@PAVCvPlayer@@@Z$2:
	lea	ecx, DWORD PTR _strLog$[ebp]
	jmp	??1CvString@@QAE@XZ			; CvString::~CvString
__unwindfunclet$?LogYieldInfo@CvBuilderTaskingAI@@SAXVCvString@@PAVCvPlayer@@@Z$3:
	lea	ecx, DWORD PTR _strTemp$[ebp]
	jmp	??1CvString@@QAE@XZ			; CvString::~CvString
__unwindfunclet$?LogYieldInfo@CvBuilderTaskingAI@@SAXVCvString@@PAVCvPlayer@@@Z$4:
	lea	ecx, DWORD PTR _strPlayerName$[ebp]
	jmp	??1CvString@@QAE@XZ			; CvString::~CvString
__ehhandler$?LogYieldInfo@CvBuilderTaskingAI@@SAXVCvString@@PAVCvPlayer@@@Z:
	mov	eax, OFFSET __ehfuncinfo$?LogYieldInfo@CvBuilderTaskingAI@@SAXVCvString@@PAVCvPlayer@@@Z
	jmp	___CxxFrameHandler3
text$x	ENDS
?LogYieldInfo@CvBuilderTaskingAI@@SAXVCvString@@PAVCvPlayer@@@Z ENDP ; CvBuilderTaskingAI::LogYieldInfo
PUBLIC	?LogFlavors@CvBuilderTaskingAI@@IAEXW4FlavorTypes@@@Z ; CvBuilderTaskingAI::LogFlavors
EXTRN	?GetPersonalityIndividualFlavor@CvFlavorManager@@QAEHW4FlavorTypes@@@Z:PROC ; CvFlavorManager::GetPersonalityIndividualFlavor
EXTRN	?GetFlavorManager@CvPlayer@@QBEPAVCvFlavorManager@@XZ:PROC ; CvPlayer::GetFlavorManager
;	COMDAT xdata$x
; File c:\users\enormousapplepie\documents\github\lekmod\lekmod_dll\cvgamecoredllutil\include\cvstring.h
xdata$x	SEGMENT
__unwindtable$?LogFlavors@CvBuilderTaskingAI@@IAEXW4FlavorTypes@@@Z DD 0ffffffffH
	DD	FLAT:__unwindfunclet$?LogFlavors@CvBuilderTaskingAI@@IAEXW4FlavorTypes@@@Z$0
	DD	00H
	DD	FLAT:__unwindfunclet$?LogFlavors@CvBuilderTaskingAI@@IAEXW4FlavorTypes@@@Z$1
__ehfuncinfo$?LogFlavors@CvBuilderTaskingAI@@IAEXW4FlavorTypes@@@Z DD 019930522H
	DD	02H
	DD	FLAT:__unwindtable$?LogFlavors@CvBuilderTaskingAI@@IAEXW4FlavorTypes@@@Z
	DD	2 DUP(00H)
	DD	2 DUP(00H)
	DD	00H
	DD	01H
; Function compile flags: /Ogtpy
; File c:\users\enormousapplepie\documents\github\lekmod\lekmod_dll\cvgamecoredll_expansion2\cvbuildertaskingai.cpp
xdata$x	ENDS
;	COMDAT ?LogFlavors@CvBuilderTaskingAI@@IAEXW4FlavorTypes@@@Z
_TEXT	SEGMENT
_strLog$ = -68						; size = 28
_strTemp$ = -40						; size = 28
__$EHRec$ = -12						; size = 12
$T222009 = 8						; size = 4
$T222008 = 8						; size = 4
_eFlavor$ = 8						; size = 4
?LogFlavors@CvBuilderTaskingAI@@IAEXW4FlavorTypes@@@Z PROC ; CvBuilderTaskingAI::LogFlavors, COMDAT
; _this$ = ecx

; 3236 : {

	push	-1
	mov	eax, DWORD PTR fs:0
	push	__ehhandler$?LogFlavors@CvBuilderTaskingAI@@IAEXW4FlavorTypes@@@Z
	push	eax
	mov	DWORD PTR fs:0, esp
	sub	esp, 56					; 00000038H
	push	ebx
	push	ebp
	push	esi
	push	edi
	mov	edi, ecx

; 3237 : 	if(!m_bLogging)

	cmp	BYTE PTR [edi+58392], 0
	je	$LN7@LogFlavors

; 3238 : 	{
; 3239 : 		return;
; 3240 : 	}
; 3241 : 
; 3242 : 	// Open the log file
; 3243 : 	CvString strLog;

	lea	ecx, DWORD PTR _strLog$[esp+84]
	call	DWORD PTR __imp_??0?$basic_string@DU?$char_traits@D@std@@V?$allocator@D@2@@std@@QAE@XZ
	xor	ebp, ebp

; 3244 : 	CvString strTemp;

	lea	ecx, DWORD PTR _strTemp$[esp+84]
	mov	DWORD PTR __$EHRec$[esp+92], ebp
	call	DWORD PTR __imp_??0?$basic_string@DU?$char_traits@D@std@@V?$allocator@D@2@@std@@QAE@XZ

; 3245 : 
; 3246 : 	// Dump out the setting for each flavor
; 3247 : 	if(eFlavor == NO_FLAVOR)

	mov	esi, DWORD PTR _eFlavor$[esp+80]
	mov	BYTE PTR __$EHRec$[esp+92], 1
	cmp	esi, -1
	jne	$LN5@LogFlavors

; 3248 : 	{
; 3249 : 		for(int iI = 0; iI < GC.getNumFlavorTypes(); iI++)

	xor	esi, esi
	cmp	DWORD PTR ?gGlobals@@3VCvGlobals@@A+1764, ebp
	jle	$LN1@LogFlavors
$LL4@LogFlavors:

; 3250 : 		{
; 3251 : 			strLog.clear();

	lea	ecx, DWORD PTR _strLog$[esp+84]
	call	DWORD PTR __imp_?clear@?$basic_string@DU?$char_traits@D@std@@V?$allocator@D@2@@std@@QAEXXZ

; 3252 : 			strTemp.Format("Flavor, %s, %d,", GC.getFlavorTypes((FlavorTypes)iI).GetCString(), m_pPlayer->GetFlavorManager()->GetPersonalityIndividualFlavor((FlavorTypes)iI));

	mov	eax, DWORD PTR ?gGlobals@@3VCvGlobals@@A+1760
	lea	ecx, DWORD PTR [eax+ebp]
	call	DWORD PTR __imp_?c_str@?$basic_string@DU?$char_traits@D@std@@V?$allocator@D@2@@std@@QBEPBDXZ
	mov	ecx, DWORD PTR [edi]
	push	esi
	mov	ebx, eax
	call	?GetFlavorManager@CvPlayer@@QBEPAVCvFlavorManager@@XZ ; CvPlayer::GetFlavorManager
	mov	ecx, eax
	call	?GetPersonalityIndividualFlavor@CvFlavorManager@@QAEHW4FlavorTypes@@@Z ; CvFlavorManager::GetPersonalityIndividualFlavor
	push	eax
	push	ebx
	lea	ecx, DWORD PTR _strTemp$[esp+92]
	push	OFFSET $SG219170
	push	ecx
	call	?Format@CvString@@QAAXPBDZZ		; CvString::Format
	add	esp, 16					; 00000010H

; 3253 : 			strLog += strTemp;

	lea	edx, DWORD PTR _strTemp$[esp+84]
	push	edx
	lea	ecx, DWORD PTR _strLog$[esp+88]
	call	DWORD PTR __imp_??Y?$basic_string@DU?$char_traits@D@std@@V?$allocator@D@2@@std@@QAEAAV01@ABV01@@Z

; 3254 : 			LogInfo(strLog, m_pPlayer);

	mov	eax, DWORD PTR [edi]
	push	0
	push	eax
	sub	esp, 28					; 0000001cH
	lea	edx, DWORD PTR _strLog$[esp+120]
	mov	DWORD PTR $T222008[esp+116], esp
	mov	ecx, esp
	push	edx
	call	DWORD PTR __imp_??0?$basic_string@DU?$char_traits@D@std@@V?$allocator@D@2@@std@@QAE@ABV01@@Z
	call	?LogInfo@CvBuilderTaskingAI@@SAXVCvString@@PAVCvPlayer@@_N@Z ; CvBuilderTaskingAI::LogInfo
	inc	esi
	add	esp, 36					; 00000024H
	add	ebp, 28					; 0000001cH
	cmp	esi, DWORD PTR ?gGlobals@@3VCvGlobals@@A+1764
	jl	SHORT $LL4@LogFlavors

; 3255 : 		}
; 3256 : 	}
; 3257 : 	else

	jmp	SHORT $LN1@LogFlavors
$LN5@LogFlavors:

; 3258 : 	{
; 3259 : 		strLog.clear();

	lea	ecx, DWORD PTR _strLog$[esp+84]
	call	DWORD PTR __imp_?clear@?$basic_string@DU?$char_traits@D@std@@V?$allocator@D@2@@std@@QAEXXZ

; 3260 : 		strTemp.Format("Flavor, %s, %d,", GC.getFlavorTypes(eFlavor).GetCString(), m_pPlayer->GetFlavorManager()->GetPersonalityIndividualFlavor(eFlavor));

	mov	ecx, DWORD PTR ?gGlobals@@3VCvGlobals@@A+1760
	lea	eax, DWORD PTR [esi*8]
	sub	eax, esi
	lea	ecx, DWORD PTR [ecx+eax*4]
	call	DWORD PTR __imp_?c_str@?$basic_string@DU?$char_traits@D@std@@V?$allocator@D@2@@std@@QBEPBDXZ
	mov	ecx, DWORD PTR [edi]
	push	esi
	mov	ebx, eax
	call	?GetFlavorManager@CvPlayer@@QBEPAVCvFlavorManager@@XZ ; CvPlayer::GetFlavorManager
	mov	ecx, eax
	call	?GetPersonalityIndividualFlavor@CvFlavorManager@@QAEHW4FlavorTypes@@@Z ; CvFlavorManager::GetPersonalityIndividualFlavor
	push	eax
	push	ebx
	lea	edx, DWORD PTR _strTemp$[esp+92]
	push	OFFSET $SG219173
	push	edx
	call	?Format@CvString@@QAAXPBDZZ		; CvString::Format
	add	esp, 16					; 00000010H

; 3261 : 		strLog += strTemp;

	lea	eax, DWORD PTR _strTemp$[esp+84]
	push	eax
	lea	ecx, DWORD PTR _strLog$[esp+88]
	call	DWORD PTR __imp_??Y?$basic_string@DU?$char_traits@D@std@@V?$allocator@D@2@@std@@QAEAAV01@ABV01@@Z

; 3262 : 		LogInfo(strLog, m_pPlayer);

	mov	ecx, DWORD PTR [edi]
	push	ebp
	push	ecx
	sub	esp, 28					; 0000001cH
	lea	edx, DWORD PTR _strLog$[esp+120]
	mov	DWORD PTR $T222009[esp+116], esp
	mov	ecx, esp
	push	edx
	call	DWORD PTR __imp_??0?$basic_string@DU?$char_traits@D@std@@V?$allocator@D@2@@std@@QAE@ABV01@@Z
	call	?LogInfo@CvBuilderTaskingAI@@SAXVCvString@@PAVCvPlayer@@_N@Z ; CvBuilderTaskingAI::LogInfo
	add	esp, 36					; 00000024H
$LN1@LogFlavors:

; 3263 : 	}
; 3264 : }

	lea	ecx, DWORD PTR _strTemp$[esp+84]
	mov	BYTE PTR __$EHRec$[esp+92], 0
	call	DWORD PTR __imp_??1?$basic_string@DU?$char_traits@D@std@@V?$allocator@D@2@@std@@QAE@XZ
	lea	ecx, DWORD PTR _strLog$[esp+84]
	mov	DWORD PTR __$EHRec$[esp+92], -1
	call	DWORD PTR __imp_??1?$basic_string@DU?$char_traits@D@std@@V?$allocator@D@2@@std@@QAE@XZ
$LN7@LogFlavors:
	mov	ecx, DWORD PTR __$EHRec$[esp+84]
	pop	edi
	pop	esi
	pop	ebp
	mov	DWORD PTR fs:0, ecx
	pop	ebx
	add	esp, 68					; 00000044H
	ret	4
_TEXT	ENDS
;	COMDAT text$x
text$x	SEGMENT
__unwindfunclet$?LogFlavors@CvBuilderTaskingAI@@IAEXW4FlavorTypes@@@Z$0:
	lea	ecx, DWORD PTR _strLog$[ebp]
	jmp	??1CvString@@QAE@XZ			; CvString::~CvString
__unwindfunclet$?LogFlavors@CvBuilderTaskingAI@@IAEXW4FlavorTypes@@@Z$1:
	lea	ecx, DWORD PTR _strTemp$[ebp]
	jmp	??1CvString@@QAE@XZ			; CvString::~CvString
__ehhandler$?LogFlavors@CvBuilderTaskingAI@@IAEXW4FlavorTypes@@@Z:
	mov	eax, OFFSET __ehfuncinfo$?LogFlavors@CvBuilderTaskingAI@@IAEXW4FlavorTypes@@@Z
	jmp	___CxxFrameHandler3
text$x	ENDS
?LogFlavors@CvBuilderTaskingAI@@IAEXW4FlavorTypes@@@Z ENDP ; CvBuilderTaskingAI::LogFlavors
PUBLIC	?UpdateCurrentPlotYields@CvBuilderTaskingAI@@IAEXPAVCvPlot@@@Z ; CvBuilderTaskingAI::UpdateCurrentPlotYields
EXTRN	?toString@FSerialization@@YA?AV?$basic_string@DU?$char_traits@D@std@@V?$allocator@D@2@@std@@ABW4YieldTypes@@@Z:PROC ; FSerialization::toString
EXTRN	?getYield@CvPlot@@QBEHW4YieldTypes@@@Z:PROC	; CvPlot::getYield
;	COMDAT xdata$x
; File c:\users\enormousapplepie\documents\github\lekmod\lekmod_dll\cvgamecoredllutil\include\cvstring.h
xdata$x	SEGMENT
__unwindtable$?UpdateCurrentPlotYields@CvBuilderTaskingAI@@IAEXPAVCvPlot@@@Z DD 0ffffffffH
	DD	FLAT:__unwindfunclet$?UpdateCurrentPlotYields@CvBuilderTaskingAI@@IAEXPAVCvPlot@@@Z$0
	DD	00H
	DD	FLAT:__unwindfunclet$?UpdateCurrentPlotYields@CvBuilderTaskingAI@@IAEXPAVCvPlot@@@Z$1
__ehfuncinfo$?UpdateCurrentPlotYields@CvBuilderTaskingAI@@IAEXPAVCvPlot@@@Z DD 019930522H
	DD	02H
	DD	FLAT:__unwindtable$?UpdateCurrentPlotYields@CvBuilderTaskingAI@@IAEXPAVCvPlot@@@Z
	DD	2 DUP(00H)
	DD	2 DUP(00H)
	DD	00H
	DD	01H
; Function compile flags: /Ogtpy
; File c:\users\enormousapplepie\documents\github\lekmod\lekmod_dll\cvgamecoredll_expansion2\cvbuildertaskingai.cpp
xdata$x	ENDS
;	COMDAT ?UpdateCurrentPlotYields@CvBuilderTaskingAI@@IAEXPAVCvPlot@@@Z
_TEXT	SEGMENT
$T222072 = -72						; size = 4
_strLog$219258 = -68					; size = 28
$T222071 = -40						; size = 28
__$EHRec$ = -12						; size = 12
_yield$219259 = 8					; size = 4
_pPlot$ = 8						; size = 4
?UpdateCurrentPlotYields@CvBuilderTaskingAI@@IAEXPAVCvPlot@@@Z PROC ; CvBuilderTaskingAI::UpdateCurrentPlotYields, COMDAT
; _this$ = ecx

; 3411 : {

	push	-1
	mov	eax, DWORD PTR fs:0
	push	__ehhandler$?UpdateCurrentPlotYields@CvBuilderTaskingAI@@IAEXPAVCvPlot@@@Z
	push	eax
	mov	DWORD PTR fs:0, esp
	sub	esp, 60					; 0000003cH
	push	ebx
	push	ebp
	push	esi
	push	edi

; 3412 : 	m_pTargetPlot = pPlot;

	mov	edi, DWORD PTR _pPlot$[esp+84]
	mov	ebx, ecx
	mov	DWORD PTR [ebx+58400], edi

; 3413 : 	for(uint ui = 0; ui < NUM_YIELD_TYPES; ui++)

	xor	esi, esi
	lea	ebp, DWORD PTR [ebx+58404]
$LL4@UpdateCurr:

; 3414 : 	{
; 3415 : 		m_aiCurrentPlotYields[ui] = pPlot->getYield((YieldTypes)ui);

	push	esi
	mov	ecx, edi
	call	?getYield@CvPlot@@QBEHW4YieldTypes@@@Z	; CvPlot::getYield
	mov	DWORD PTR [ebp], eax

; 3416 : 
; 3417 : 		if(m_bLogging){

	cmp	BYTE PTR [ebx+58392], 0
	je	$LN3@UpdateCurr

; 3418 : 			CvString strLog;

	lea	ecx, DWORD PTR _strLog$219258[esp+88]
	call	DWORD PTR __imp_??0?$basic_string@DU?$char_traits@D@std@@V?$allocator@D@2@@std@@QAE@XZ

; 3419 : 			YieldTypes yield = (YieldTypes) ui;
; 3420 : 			strLog.Format("Plot Yield Update, %s, %i, %i, %i", FSerialization::toString(yield).c_str(), m_aiCurrentPlotYields[ui], pPlot->getX(), pPlot->getY());

	lea	eax, DWORD PTR _yield$219259[esp+84]
	push	eax
	lea	ecx, DWORD PTR $T222071[esp+92]
	push	ecx
	mov	DWORD PTR __$EHRec$[esp+104], 0
	mov	DWORD PTR _yield$219259[esp+92], esi
	call	?toString@FSerialization@@YA?AV?$basic_string@DU?$char_traits@D@std@@V?$allocator@D@2@@std@@ABW4YieldTypes@@@Z ; FSerialization::toString
	add	esp, 8
	movsx	ecx, WORD PTR [edi+2]
	movsx	edx, WORD PTR [edi]
	push	ecx
	push	edx
	mov	edx, DWORD PTR [ebp]
	push	edx
	mov	ecx, eax
	mov	BYTE PTR __$EHRec$[esp+108], 1
	call	DWORD PTR __imp_?c_str@?$basic_string@DU?$char_traits@D@std@@V?$allocator@D@2@@std@@QBEPBDXZ
	push	eax
	lea	eax, DWORD PTR _strLog$219258[esp+104]
	push	OFFSET $SG219266
	push	eax
	call	?Format@CvString@@QAAXPBDZZ		; CvString::Format
	add	esp, 24					; 00000018H
	lea	ecx, DWORD PTR $T222071[esp+88]
	mov	BYTE PTR __$EHRec$[esp+96], 0
	call	DWORD PTR __imp_??1?$basic_string@DU?$char_traits@D@std@@V?$allocator@D@2@@std@@QAE@XZ

; 3421 : 			LogYieldInfo(strLog, m_pPlayer);

	mov	ecx, DWORD PTR [ebx]
	push	ecx
	sub	esp, 28					; 0000001cH
	lea	edx, DWORD PTR _strLog$219258[esp+120]
	mov	DWORD PTR $T222072[esp+120], esp
	mov	ecx, esp
	push	edx
	call	DWORD PTR __imp_??0?$basic_string@DU?$char_traits@D@std@@V?$allocator@D@2@@std@@QAE@ABV01@@Z
	call	?LogYieldInfo@CvBuilderTaskingAI@@SAXVCvString@@PAVCvPlayer@@@Z ; CvBuilderTaskingAI::LogYieldInfo
	add	esp, 32					; 00000020H

; 3422 : 		}

	lea	ecx, DWORD PTR _strLog$219258[esp+88]
	mov	DWORD PTR __$EHRec$[esp+96], -1
	call	DWORD PTR __imp_??1?$basic_string@DU?$char_traits@D@std@@V?$allocator@D@2@@std@@QAE@XZ
$LN3@UpdateCurr:
	inc	esi
	add	ebp, 4
	cmp	esi, 6
	jb	$LL4@UpdateCurr

; 3423 : 	}
; 3424 : }

	mov	ecx, DWORD PTR __$EHRec$[esp+88]
	pop	edi
	pop	esi
	pop	ebp
	mov	DWORD PTR fs:0, ecx
	pop	ebx
	add	esp, 72					; 00000048H
	ret	4
_TEXT	ENDS
;	COMDAT text$x
text$x	SEGMENT
__unwindfunclet$?UpdateCurrentPlotYields@CvBuilderTaskingAI@@IAEXPAVCvPlot@@@Z$0:
	lea	ecx, DWORD PTR _strLog$219258[ebp]
	jmp	??1CvString@@QAE@XZ			; CvString::~CvString
__unwindfunclet$?UpdateCurrentPlotYields@CvBuilderTaskingAI@@IAEXPAVCvPlot@@@Z$1:
	lea	ecx, DWORD PTR $T222071[ebp]
	jmp	DWORD PTR __imp_??1?$basic_string@DU?$char_traits@D@std@@V?$allocator@D@2@@std@@QAE@XZ
__ehhandler$?UpdateCurrentPlotYields@CvBuilderTaskingAI@@IAEXPAVCvPlot@@@Z:
	mov	eax, OFFSET __ehfuncinfo$?UpdateCurrentPlotYields@CvBuilderTaskingAI@@IAEXPAVCvPlot@@@Z
	jmp	___CxxFrameHandler3
text$x	ENDS
?UpdateCurrentPlotYields@CvBuilderTaskingAI@@IAEXPAVCvPlot@@@Z ENDP ; CvBuilderTaskingAI::UpdateCurrentPlotYields
PUBLIC	?clear@?$BaseVector@H$00@@QAEXXZ		; BaseVector<int,1>::clear
; Function compile flags: /Ogtpy
; File c:\users\enormousapplepie\documents\github\lekmod\lekmod_dll\fireplace\include\fireworks\ffastvector.h
;	COMDAT ?clear@?$BaseVector@H$00@@QAEXXZ
_TEXT	SEGMENT
?clear@?$BaseVector@H$00@@QAEXXZ PROC			; BaseVector<int,1>::clear, COMDAT
; _this$ = ecx

; 121  : 		Destroy(m_pData, m_uiCurrSize);
; 122  : 		m_uiCurrSize = 0;

	mov	DWORD PTR [ecx+4], 0

; 123  : 	};

	ret	0
?clear@?$BaseVector@H$00@@QAEXXZ ENDP			; BaseVector<int,1>::clear
_TEXT	ENDS
PUBLIC	??1?$FObjectHandle@VCvUnit@@@@QAE@XZ		; FObjectHandle<CvUnit>::~FObjectHandle<CvUnit>
EXTRN	?getDestructionNotification@CvUnit@@QAEAAU?$DestructionNotification@V?$FObjectHandle@VCvUnit@@@@@@XZ:PROC ; CvUnit::getDestructionNotification
; Function compile flags: /Ogtpy
; File c:\users\enormousapplepie\documents\github\lekmod\lekmod_dll\fireplace\include\fireworks\fobjecthandle.h
;	COMDAT ??1?$FObjectHandle@VCvUnit@@@@QAE@XZ
_TEXT	SEGMENT
??1?$FObjectHandle@VCvUnit@@@@QAE@XZ PROC		; FObjectHandle<CvUnit>::~FObjectHandle<CvUnit>, COMDAT
; _this$ = ecx

; 147  : 		if(m_target) 

	mov	ecx, DWORD PTR [ecx]
	test	ecx, ecx
	je	SHORT $LN4@FObjectHan

; 148  : 		{
; 149  : 			m_target->getDestructionNotification().removeTarget(*this);

	jmp	?getDestructionNotification@CvUnit@@QAEAAU?$DestructionNotification@V?$FObjectHandle@VCvUnit@@@@@@XZ ; CvUnit::getDestructionNotification
$LN4@FObjectHan:

; 150  : 		}
; 151  : 	}

	ret	0
??1?$FObjectHandle@VCvUnit@@@@QAE@XZ ENDP		; FObjectHandle<CvUnit>::~FObjectHandle<CvUnit>
_TEXT	ENDS
PUBLIC	??0?$FObjectHandle@VCvUnit@@@@QAE@PAVCvUnit@@@Z	; FObjectHandle<CvUnit>::FObjectHandle<CvUnit>
; Function compile flags: /Ogtpy
;	COMDAT ??0?$FObjectHandle@VCvUnit@@@@QAE@PAVCvUnit@@@Z
_TEXT	SEGMENT
_target$ = 8						; size = 4
??0?$FObjectHandle@VCvUnit@@@@QAE@PAVCvUnit@@@Z PROC	; FObjectHandle<CvUnit>::FObjectHandle<CvUnit>, COMDAT
; _this$ = ecx

; 156  : 	{

	push	esi
	mov	esi, ecx
	mov	ecx, DWORD PTR _target$[esp]
	mov	DWORD PTR [esi], ecx
	mov	BYTE PTR [esi+4], 0

; 157  : 		OBJECT_HANDLE_STACK;
; 158  : 		if(m_target)

	test	ecx, ecx
	je	SHORT $LN6@FObjectHan@2

; 159  : 		{
; 160  : 			m_target->getDestructionNotification().addTarget(*this);

	call	?getDestructionNotification@CvUnit@@QAEAAU?$DestructionNotification@V?$FObjectHandle@VCvUnit@@@@@@XZ ; CvUnit::getDestructionNotification
$LN6@FObjectHan@2:

; 161  : 		}
; 162  : 	}

	mov	eax, esi
	pop	esi
	ret	4
??0?$FObjectHandle@VCvUnit@@@@QAE@PAVCvUnit@@@Z ENDP	; FObjectHandle<CvUnit>::FObjectHandle<CvUnit>
_TEXT	ENDS
PUBLIC	??0?$FStaticVector@H$0DJAA@$00$0BCJ@$0A@@@QAE@XZ ; FStaticVector<int,14592,1,297,0>::FStaticVector<int,14592,1,297,0>
; Function compile flags: /Ogtpy
; File c:\users\enormousapplepie\documents\github\lekmod\lekmod_dll\fireplace\include\fireworks\ffastvector.h
;	COMDAT ??0?$FStaticVector@H$0DJAA@$00$0BCJ@$0A@@@QAE@XZ
_TEXT	SEGMENT
??0?$FStaticVector@H$0DJAA@$00$0BCJ@$0A@@@QAE@XZ PROC	; FStaticVector<int,14592,1,297,0>::FStaticVector<int,14592,1,297,0>, COMDAT
; _this$ = ecx

; 601  : 	FStaticVector()

	mov	eax, ecx

; 602  :     {
; 603  : 		m_uiCurrMaxSize = L;
; 604  : 		m_pData = Alloc(m_uiCurrMaxSize);

	lea	ecx, DWORD PTR [eax+12]
	mov	DWORD PTR [eax+4], 0
	mov	DWORD PTR [eax+8], 14592		; 00003900H
	mov	DWORD PTR [eax], ecx

; 605  : #ifdef BREAK_ON_STATIC_RESIZE
; 606  : 		m_iNumResized = 0;
; 607  : #endif
; 608  :     };

	ret	0
??0?$FStaticVector@H$0DJAA@$00$0BCJ@$0A@@@QAE@XZ ENDP	; FStaticVector<int,14592,1,297,0>::FStaticVector<int,14592,1,297,0>
_TEXT	ENDS
PUBLIC	??1?$FStaticVector@H$0DJAA@$00$0BCJ@$0A@@@QAE@XZ ; FStaticVector<int,14592,1,297,0>::~FStaticVector<int,14592,1,297,0>
; Function compile flags: /Ogtpy
;	COMDAT ??1?$FStaticVector@H$0DJAA@$00$0BCJ@$0A@@@QAE@XZ
_TEXT	SEGMENT
??1?$FStaticVector@H$0DJAA@$00$0BCJ@$0A@@@QAE@XZ PROC	; FStaticVector<int,14592,1,297,0>::~FStaticVector<int,14592,1,297,0>, COMDAT
; _this$ = ecx

; 618  : 		Free(m_pData, m_uiCurrSize);

	mov	eax, DWORD PTR [ecx]
	add	ecx, 12					; 0000000cH
	cmp	eax, ecx
	je	SHORT $LN3@FStaticVec
	push	eax
	call	?FireFreeAlignedNoTracking@@YAXPAX@Z	; FireFreeAlignedNoTracking
	pop	ecx
$LN3@FStaticVec:

; 619  : 	};

	ret	0
??1?$FStaticVector@H$0DJAA@$00$0BCJ@$0A@@@QAE@XZ ENDP	; FStaticVector<int,14592,1,297,0>::~FStaticVector<int,14592,1,297,0>
_TEXT	ENDS
PUBLIC	??4?$FStaticVector@H$0DJAA@$00$0BCJ@$0A@@@QAEXABV0@@Z ; FStaticVector<int,14592,1,297,0>::operator=
; Function compile flags: /Ogtpy
;	COMDAT ??4?$FStaticVector@H$0DJAA@$00$0BCJ@$0A@@@QAEXABV0@@Z
_TEXT	SEGMENT
_RHS$ = 8						; size = 4
??4?$FStaticVector@H$0DJAA@$00$0BCJ@$0A@@@QAEXABV0@@Z PROC ; FStaticVector<int,14592,1,297,0>::operator=, COMDAT
; _this$ = ecx

; 620  : 	void operator = (const THIS_TYPE& RHS){

	push	ebp

; 621  : 		if( m_uiCurrMaxSize <= RHS.m_uiCurrSize){

	mov	ebp, DWORD PTR _RHS$[esp]
	push	esi
	mov	esi, ecx
	mov	eax, DWORD PTR [esi+8]
	cmp	eax, DWORD PTR [ebp+4]
	ja	SHORT $LN2@operator@2

; 622  : 			Free(m_pData, m_uiCurrSize);

	mov	eax, DWORD PTR [esi]
	push	ebx
	lea	ebx, DWORD PTR [esi+12]
	push	edi
	cmp	eax, ebx
	je	SHORT $LN5@operator@2
	push	eax
	call	?FireFreeAlignedNoTracking@@YAXPAX@Z	; FireFreeAlignedNoTracking
	add	esp, 4
$LN5@operator@2:

; 623  : 			m_pData = Alloc(RHS.m_uiCurrMaxSize);

	mov	edi, DWORD PTR [ebp+8]
	cmp	edi, 14592				; 00003900H
	jbe	SHORT $LN16@operator@2
	push	798					; 0000031eH
	push	OFFSET ??_C@_0GH@ECFAPJEJ@c?3?2users?2enormousapplepie?2docume@
	lea	ecx, DWORD PTR [edi*4]
	push	4
	push	ecx
	call	?FireMallocAlignedNoTracking@@YAPAXIIPBDH@Z ; FireMallocAlignedNoTracking
	add	esp, 16					; 00000010H
	mov	DWORD PTR [esi+8], edi
	jmp	SHORT $LN15@operator@2
$LN16@operator@2:
	mov	eax, ebx
	mov	DWORD PTR [esi+8], 14592		; 00003900H
$LN15@operator@2:
	pop	edi
	mov	DWORD PTR [esi], eax
	pop	ebx
$LN2@operator@2:

; 624  : 		}else{
; 625  : 			Destroy(m_pData, m_uiCurrSize);
; 626  : 		}
; 627  : 		Copy(RHS);

	mov	edx, DWORD PTR [ebp+4]
	mov	DWORD PTR [esi+4], edx
	mov	eax, DWORD PTR [ebp+4]
	mov	ecx, DWORD PTR [ebp]
	mov	edx, DWORD PTR [esi]
	add	eax, eax
	add	eax, eax
	push	eax
	push	ecx
	push	edx
	call	_memcpy
	add	esp, 12					; 0000000cH
	pop	esi
	pop	ebp

; 628  : 	};

	ret	4
??4?$FStaticVector@H$0DJAA@$00$0BCJ@$0A@@@QAEXABV0@@Z ENDP ; FStaticVector<int,14592,1,297,0>::operator=
_TEXT	ENDS
PUBLIC	?GetElement@?$CvWeightedVector@UBuilderDirective@@$0GE@$00@@QBEABUBuilderDirective@@I@Z ; CvWeightedVector<BuilderDirective,100,1>::GetElement
; Function compile flags: /Ogtpy
; File c:\users\enormousapplepie\documents\github\lekmod\lekmod_dll\cvgamecoredllutil\include\cvweightedvector.h
;	COMDAT ?GetElement@?$CvWeightedVector@UBuilderDirective@@$0GE@$00@@QBEABUBuilderDirective@@I@Z
_TEXT	SEGMENT
_iIndex$ = 8						; size = 4
?GetElement@?$CvWeightedVector@UBuilderDirective@@$0GE@$00@@QBEABUBuilderDirective@@I@Z PROC ; CvWeightedVector<BuilderDirective,100,1>::GetElement, COMDAT
; _this$ = ecx

; 64   : 		assert(iIndex < m_pItems.size());
; 65   : 		return m_pItems[iIndex].m_Element;

	mov	eax, DWORD PTR _iIndex$[esp-4]
	mov	ecx, DWORD PTR [ecx]
	lea	eax, DWORD PTR [eax+eax*2]
	lea	eax, DWORD PTR [ecx+eax*8]

; 66   : 	};

	ret	4
?GetElement@?$CvWeightedVector@UBuilderDirective@@$0GE@$00@@QBEABUBuilderDirective@@I@Z ENDP ; CvWeightedVector<BuilderDirective,100,1>::GetElement
_TEXT	ENDS
PUBLIC	?size@?$CvWeightedVector@UBuilderDirective@@$0GE@$00@@QAEHXZ ; CvWeightedVector<BuilderDirective,100,1>::size
; Function compile flags: /Ogtpy
;	COMDAT ?size@?$CvWeightedVector@UBuilderDirective@@$0GE@$00@@QAEHXZ
_TEXT	SEGMENT
?size@?$CvWeightedVector@UBuilderDirective@@$0GE@$00@@QAEHXZ PROC ; CvWeightedVector<BuilderDirective,100,1>::size, COMDAT
; _this$ = ecx

; 134  : 		return m_pItems.size();

	mov	eax, DWORD PTR [ecx+4]

; 135  : 	};

	ret	0
?size@?$CvWeightedVector@UBuilderDirective@@$0GE@$00@@QAEHXZ ENDP ; CvWeightedVector<BuilderDirective,100,1>::size
_TEXT	ENDS
PUBLIC	??0?$FStaticVector@H$0EA@$00$0BCJ@$0A@@@QAE@XZ	; FStaticVector<int,64,1,297,0>::FStaticVector<int,64,1,297,0>
; Function compile flags: /Ogtpy
; File c:\users\enormousapplepie\documents\github\lekmod\lekmod_dll\fireplace\include\fireworks\ffastvector.h
;	COMDAT ??0?$FStaticVector@H$0EA@$00$0BCJ@$0A@@@QAE@XZ
_TEXT	SEGMENT
??0?$FStaticVector@H$0EA@$00$0BCJ@$0A@@@QAE@XZ PROC	; FStaticVector<int,64,1,297,0>::FStaticVector<int,64,1,297,0>, COMDAT
; _this$ = ecx

; 601  : 	FStaticVector()

	mov	eax, ecx

; 602  :     {
; 603  : 		m_uiCurrMaxSize = L;
; 604  : 		m_pData = Alloc(m_uiCurrMaxSize);

	lea	ecx, DWORD PTR [eax+12]
	mov	DWORD PTR [eax+4], 0
	mov	DWORD PTR [eax+8], 64			; 00000040H
	mov	DWORD PTR [eax], ecx

; 605  : #ifdef BREAK_ON_STATIC_RESIZE
; 606  : 		m_iNumResized = 0;
; 607  : #endif
; 608  :     };

	ret	0
??0?$FStaticVector@H$0EA@$00$0BCJ@$0A@@@QAE@XZ ENDP	; FStaticVector<int,64,1,297,0>::FStaticVector<int,64,1,297,0>
_TEXT	ENDS
PUBLIC	??1?$FStaticVector@H$0EA@$00$0BCJ@$0A@@@QAE@XZ	; FStaticVector<int,64,1,297,0>::~FStaticVector<int,64,1,297,0>
; Function compile flags: /Ogtpy
;	COMDAT ??1?$FStaticVector@H$0EA@$00$0BCJ@$0A@@@QAE@XZ
_TEXT	SEGMENT
??1?$FStaticVector@H$0EA@$00$0BCJ@$0A@@@QAE@XZ PROC	; FStaticVector<int,64,1,297,0>::~FStaticVector<int,64,1,297,0>, COMDAT
; _this$ = ecx

; 618  : 		Free(m_pData, m_uiCurrSize);

	mov	eax, DWORD PTR [ecx]
	add	ecx, 12					; 0000000cH
	cmp	eax, ecx
	je	SHORT $LN3@FStaticVec@2
	push	eax
	call	?FireFreeAlignedNoTracking@@YAXPAX@Z	; FireFreeAlignedNoTracking
	pop	ecx
$LN3@FStaticVec@2:

; 619  : 	};

	ret	0
??1?$FStaticVector@H$0EA@$00$0BCJ@$0A@@@QAE@XZ ENDP	; FStaticVector<int,64,1,297,0>::~FStaticVector<int,64,1,297,0>
_TEXT	ENDS
PUBLIC	?GrowSize@?$FStaticVector@H$0DJAA@$00$0BCJ@$0A@@@IAEXI@Z ; FStaticVector<int,14592,1,297,0>::GrowSize
; Function compile flags: /Ogtpy
;	COMDAT ?GrowSize@?$FStaticVector@H$0DJAA@$00$0BCJ@$0A@@@IAEXI@Z
_TEXT	SEGMENT
_uiFit$ = 8						; size = 4
?GrowSize@?$FStaticVector@H$0DJAA@$00$0BCJ@$0A@@@IAEXI@Z PROC ; FStaticVector<int,14592,1,297,0>::GrowSize, COMDAT
; _this$ = ecx

; 744  : 	{

	push	esi
	mov	esi, ecx

; 745  : 		if( m_uiCurrMaxSize == 0 ) m_uiCurrMaxSize = 1;

	cmp	DWORD PTR [esi+8], 0
	push	edi
	jne	SHORT $LN30@GrowSize
	mov	DWORD PTR [esi+8], 1
$LN30@GrowSize:

; 746  : 		while( uiFit >= m_uiCurrMaxSize ){

	mov	edx, DWORD PTR _uiFit$[esp+4]
	cmp	edx, DWORD PTR [esi+8]
	jb	SHORT $LN7@GrowSize
	npad	6
$LL8@GrowSize:

; 747  : 
; 748  : 			//Try to double size...
; 749  : 			UINT uiNewSize = m_uiCurrMaxSize<<1;

	mov	eax, DWORD PTR [esi+8]
	lea	ecx, DWORD PTR [eax+eax]

; 750  : 
; 751  : 			//...on overflow bail and set to exact size
; 752  : 			if( uiNewSize < m_uiCurrMaxSize ){

	cmp	ecx, eax
	jb	SHORT $LN31@GrowSize

; 754  : 				break;
; 755  : 			}
; 756  : 
; 757  : 			//...otherwise use the doubled size
; 758  : 			m_uiCurrMaxSize = uiNewSize;

	mov	DWORD PTR [esi+8], ecx
	cmp	edx, ecx
	jae	SHORT $LL8@GrowSize

; 750  : 
; 751  : 			//...on overflow bail and set to exact size
; 752  : 			if( uiNewSize < m_uiCurrMaxSize ){

	jmp	SHORT $LN7@GrowSize
$LN31@GrowSize:

; 753  : 				m_uiCurrMaxSize = uiFit;

	mov	DWORD PTR [esi+8], edx
$LN7@GrowSize:
	push	ebp

; 759  : 		}
; 760  : 
; 761  : 		T* pTemp = Alloc(m_uiCurrMaxSize);

	mov	ebp, DWORD PTR [esi+8]
	cmp	ebp, 14592				; 00003900H
	jbe	SHORT $LN15@GrowSize
	push	798					; 0000031eH
	push	OFFSET ??_C@_0GH@ECFAPJEJ@c?3?2users?2enormousapplepie?2docume@
	lea	eax, DWORD PTR [ebp*4]
	push	4
	push	eax
	call	?FireMallocAlignedNoTracking@@YAPAXIIPBDH@Z ; FireMallocAlignedNoTracking
	add	esp, 16					; 00000010H
	mov	edi, eax
	mov	DWORD PTR [esi+8], ebp
	jmp	SHORT $LN14@GrowSize
$LN15@GrowSize:
	lea	edi, DWORD PTR [esi+12]
	mov	DWORD PTR [esi+8], 14592		; 00003900H
$LN14@GrowSize:

; 762  : 		if( bPODType ){
; 763  : 			memcpy( (void*)pTemp, (void*)m_pData, sizeof(T)*m_uiCurrSize);

	mov	ecx, DWORD PTR [esi+4]
	mov	edx, DWORD PTR [esi]
	add	ecx, ecx
	add	ecx, ecx
	push	ecx
	push	edx
	push	edi
	call	_memcpy

; 764  : 		}else{
; 765  : 			for(unsigned int i = 0; i < m_uiCurrSize; ++i)
; 766  : 				new( (void*)&(pTemp[i]) )T( m_pData[i]);
; 767  : 		}
; 768  : 		Free(m_pData, m_uiCurrSize);

	mov	eax, DWORD PTR [esi]
	add	esp, 12					; 0000000cH
	lea	ecx, DWORD PTR [esi+12]
	pop	ebp
	cmp	eax, ecx
	je	SHORT $LN33@GrowSize
	push	eax
	call	?FireFreeAlignedNoTracking@@YAXPAX@Z	; FireFreeAlignedNoTracking
	add	esp, 4
$LN33@GrowSize:

; 769  : 		m_pData = pTemp;

	mov	DWORD PTR [esi], edi
	pop	edi

; 770  : 
; 771  : 		m_bIsResized = true;

	mov	BYTE PTR [esi+58380], 1
	pop	esi

; 772  : 	};

	ret	4
?GrowSize@?$FStaticVector@H$0DJAA@$00$0BCJ@$0A@@@IAEXI@Z ENDP ; FStaticVector<int,14592,1,297,0>::GrowSize
_TEXT	ENDS
PUBLIC	??0?$FStaticVector@UWeightedElement@?$CvWeightedVector@UBuilderDirective@@$0GE@$00@@$0GE@$00$0A@$0A@@@QAE@XZ ; FStaticVector<CvWeightedVector<BuilderDirective,100,1>::WeightedElement,100,1,0,0>::FStaticVector<CvWeightedVector<BuilderDirective,100,1>::WeightedElement,100,1,0,0>
; Function compile flags: /Ogtpy
;	COMDAT ??0?$FStaticVector@UWeightedElement@?$CvWeightedVector@UBuilderDirective@@$0GE@$00@@$0GE@$00$0A@$0A@@@QAE@XZ
_TEXT	SEGMENT
??0?$FStaticVector@UWeightedElement@?$CvWeightedVector@UBuilderDirective@@$0GE@$00@@$0GE@$00$0A@$0A@@@QAE@XZ PROC ; FStaticVector<CvWeightedVector<BuilderDirective,100,1>::WeightedElement,100,1,0,0>::FStaticVector<CvWeightedVector<BuilderDirective,100,1>::WeightedElement,100,1,0,0>, COMDAT
; _this$ = ecx

; 601  : 	FStaticVector()

	mov	eax, ecx

; 602  :     {
; 603  : 		m_uiCurrMaxSize = L;
; 604  : 		m_pData = Alloc(m_uiCurrMaxSize);

	lea	ecx, DWORD PTR [eax+12]
	mov	DWORD PTR [eax+4], 0
	mov	DWORD PTR [eax+8], 100			; 00000064H
	mov	DWORD PTR [eax], ecx

; 605  : #ifdef BREAK_ON_STATIC_RESIZE
; 606  : 		m_iNumResized = 0;
; 607  : #endif
; 608  :     };

	ret	0
??0?$FStaticVector@UWeightedElement@?$CvWeightedVector@UBuilderDirective@@$0GE@$00@@$0GE@$00$0A@$0A@@@QAE@XZ ENDP ; FStaticVector<CvWeightedVector<BuilderDirective,100,1>::WeightedElement,100,1,0,0>::FStaticVector<CvWeightedVector<BuilderDirective,100,1>::WeightedElement,100,1,0,0>
_TEXT	ENDS
PUBLIC	?clear@?$BaseVector@UWeightedElement@?$CvWeightedVector@UBuilderDirective@@$0GE@$00@@$00@@QAEXXZ ; BaseVector<CvWeightedVector<BuilderDirective,100,1>::WeightedElement,1>::clear
; Function compile flags: /Ogtpy
;	COMDAT ?clear@?$BaseVector@UWeightedElement@?$CvWeightedVector@UBuilderDirective@@$0GE@$00@@$00@@QAEXXZ
_TEXT	SEGMENT
?clear@?$BaseVector@UWeightedElement@?$CvWeightedVector@UBuilderDirective@@$0GE@$00@@$00@@QAEXXZ PROC ; BaseVector<CvWeightedVector<BuilderDirective,100,1>::WeightedElement,1>::clear, COMDAT
; _this$ = ecx

; 121  : 		Destroy(m_pData, m_uiCurrSize);
; 122  : 		m_uiCurrSize = 0;

	mov	DWORD PTR [ecx+4], 0

; 123  : 	};

	ret	0
?clear@?$BaseVector@UWeightedElement@?$CvWeightedVector@UBuilderDirective@@$0GE@$00@@$00@@QAEXXZ ENDP ; BaseVector<CvWeightedVector<BuilderDirective,100,1>::WeightedElement,1>::clear
_TEXT	ENDS
PUBLIC	??0WeightedElement@?$CvWeightedVector@UBuilderDirective@@$0GE@$00@@QAE@XZ ; CvWeightedVector<BuilderDirective,100,1>::WeightedElement::WeightedElement
; Function compile flags: /Ogtpy
; File c:\users\enormousapplepie\documents\github\lekmod\lekmod_dll\cvgamecoredllutil\include\cvweightedvector.h
;	COMDAT ??0WeightedElement@?$CvWeightedVector@UBuilderDirective@@$0GE@$00@@QAE@XZ
_TEXT	SEGMENT
??0WeightedElement@?$CvWeightedVector@UBuilderDirective@@$0GE@$00@@QAE@XZ PROC ; CvWeightedVector<BuilderDirective,100,1>::WeightedElement::WeightedElement, COMDAT
; _this$ = ecx

; 31   : 		{

	mov	eax, ecx
	or	ecx, -1
	mov	edx, ecx
	mov	DWORD PTR [eax], 6
	mov	DWORD PTR [eax+4], ecx
	mov	DWORD PTR [eax+8], ecx
	mov	WORD PTR [eax+12], dx
	mov	WORD PTR [eax+14], dx
	mov	WORD PTR [eax+16], cx
	mov	DWORD PTR [eax+20], 0

; 32   : 		}

	ret	0
??0WeightedElement@?$CvWeightedVector@UBuilderDirective@@$0GE@$00@@QAE@XZ ENDP ; CvWeightedVector<BuilderDirective,100,1>::WeightedElement::WeightedElement
_TEXT	ENDS
PUBLIC	?GrowSize@?$FStaticVector@H$0EA@$00$0BCJ@$0A@@@IAEXI@Z ; FStaticVector<int,64,1,297,0>::GrowSize
; Function compile flags: /Ogtpy
; File c:\users\enormousapplepie\documents\github\lekmod\lekmod_dll\fireplace\include\fireworks\ffastvector.h
;	COMDAT ?GrowSize@?$FStaticVector@H$0EA@$00$0BCJ@$0A@@@IAEXI@Z
_TEXT	SEGMENT
_uiFit$ = 8						; size = 4
?GrowSize@?$FStaticVector@H$0EA@$00$0BCJ@$0A@@@IAEXI@Z PROC ; FStaticVector<int,64,1,297,0>::GrowSize, COMDAT
; _this$ = ecx

; 744  : 	{

	push	esi
	mov	esi, ecx

; 745  : 		if( m_uiCurrMaxSize == 0 ) m_uiCurrMaxSize = 1;

	cmp	DWORD PTR [esi+8], 0
	push	edi
	jne	SHORT $LN30@GrowSize@2
	mov	DWORD PTR [esi+8], 1
$LN30@GrowSize@2:

; 746  : 		while( uiFit >= m_uiCurrMaxSize ){

	mov	edx, DWORD PTR _uiFit$[esp+4]
	cmp	edx, DWORD PTR [esi+8]
	jb	SHORT $LN7@GrowSize@2
	npad	6
$LL8@GrowSize@2:

; 747  : 
; 748  : 			//Try to double size...
; 749  : 			UINT uiNewSize = m_uiCurrMaxSize<<1;

	mov	eax, DWORD PTR [esi+8]
	lea	ecx, DWORD PTR [eax+eax]

; 750  : 
; 751  : 			//...on overflow bail and set to exact size
; 752  : 			if( uiNewSize < m_uiCurrMaxSize ){

	cmp	ecx, eax
	jb	SHORT $LN31@GrowSize@2

; 754  : 				break;
; 755  : 			}
; 756  : 
; 757  : 			//...otherwise use the doubled size
; 758  : 			m_uiCurrMaxSize = uiNewSize;

	mov	DWORD PTR [esi+8], ecx
	cmp	edx, ecx
	jae	SHORT $LL8@GrowSize@2

; 750  : 
; 751  : 			//...on overflow bail and set to exact size
; 752  : 			if( uiNewSize < m_uiCurrMaxSize ){

	jmp	SHORT $LN7@GrowSize@2
$LN31@GrowSize@2:

; 753  : 				m_uiCurrMaxSize = uiFit;

	mov	DWORD PTR [esi+8], edx
$LN7@GrowSize@2:
	push	ebp

; 759  : 		}
; 760  : 
; 761  : 		T* pTemp = Alloc(m_uiCurrMaxSize);

	mov	ebp, DWORD PTR [esi+8]
	cmp	ebp, 64					; 00000040H
	jbe	SHORT $LN15@GrowSize@2
	push	798					; 0000031eH
	push	OFFSET ??_C@_0GH@ECFAPJEJ@c?3?2users?2enormousapplepie?2docume@
	lea	eax, DWORD PTR [ebp*4]
	push	4
	push	eax
	call	?FireMallocAlignedNoTracking@@YAPAXIIPBDH@Z ; FireMallocAlignedNoTracking
	add	esp, 16					; 00000010H
	mov	edi, eax
	mov	DWORD PTR [esi+8], ebp
	jmp	SHORT $LN14@GrowSize@2
$LN15@GrowSize@2:
	lea	edi, DWORD PTR [esi+12]
	mov	DWORD PTR [esi+8], 64			; 00000040H
$LN14@GrowSize@2:

; 762  : 		if( bPODType ){
; 763  : 			memcpy( (void*)pTemp, (void*)m_pData, sizeof(T)*m_uiCurrSize);

	mov	ecx, DWORD PTR [esi+4]
	mov	edx, DWORD PTR [esi]
	add	ecx, ecx
	add	ecx, ecx
	push	ecx
	push	edx
	push	edi
	call	_memcpy

; 764  : 		}else{
; 765  : 			for(unsigned int i = 0; i < m_uiCurrSize; ++i)
; 766  : 				new( (void*)&(pTemp[i]) )T( m_pData[i]);
; 767  : 		}
; 768  : 		Free(m_pData, m_uiCurrSize);

	mov	eax, DWORD PTR [esi]
	add	esp, 12					; 0000000cH
	lea	ecx, DWORD PTR [esi+12]
	pop	ebp
	cmp	eax, ecx
	je	SHORT $LN33@GrowSize@2
	push	eax
	call	?FireFreeAlignedNoTracking@@YAXPAX@Z	; FireFreeAlignedNoTracking
	add	esp, 4
$LN33@GrowSize@2:

; 769  : 		m_pData = pTemp;

	mov	DWORD PTR [esi], edi
	pop	edi

; 770  : 
; 771  : 		m_bIsResized = true;

	mov	BYTE PTR [esi+268], 1
	pop	esi

; 772  : 	};

	ret	4
?GrowSize@?$FStaticVector@H$0EA@$00$0BCJ@$0A@@@IAEXI@Z ENDP ; FStaticVector<int,64,1,297,0>::GrowSize
_TEXT	ENDS
PUBLIC	?Free@?$FStaticVector@UWeightedElement@?$CvWeightedVector@UBuilderDirective@@$0GE@$00@@$0GE@$00$0A@$0A@@@IAEXPAUWeightedElement@?$CvWeightedVector@UBuilderDirective@@$0GE@$00@@I@Z ; FStaticVector<CvWeightedVector<BuilderDirective,100,1>::WeightedElement,100,1,0,0>::Free
; Function compile flags: /Ogtpy
;	COMDAT ?Free@?$FStaticVector@UWeightedElement@?$CvWeightedVector@UBuilderDirective@@$0GE@$00@@$0GE@$00$0A@$0A@@@IAEXPAUWeightedElement@?$CvWeightedVector@UBuilderDirective@@$0GE@$00@@I@Z
_TEXT	SEGMENT
_pVal$ = 8						; size = 4
_uiNumElements$ = 12					; size = 4
?Free@?$FStaticVector@UWeightedElement@?$CvWeightedVector@UBuilderDirective@@$0GE@$00@@$0GE@$00$0A@$0A@@@IAEXPAUWeightedElement@?$CvWeightedVector@UBuilderDirective@@$0GE@$00@@I@Z PROC ; FStaticVector<CvWeightedVector<BuilderDirective,100,1>::WeightedElement,100,1,0,0>::Free, COMDAT
; _this$ = ecx

; 810  : 		if( !bPODType) Destroy(pVal, uiNumElements);
; 811  : 		if( pVal != (T*)m_aData )

	mov	eax, DWORD PTR _pVal$[esp-4]
	add	ecx, 12					; 0000000cH
	cmp	eax, ecx
	je	SHORT $LN1@Free@3

; 812  : 			FFREEALIGNED( (unsigned char*)pVal );

	push	eax
	call	?FireFreeAlignedNoTracking@@YAXPAX@Z	; FireFreeAlignedNoTracking
	pop	ecx
$LN1@Free@3:

; 813  : 	};

	ret	8
?Free@?$FStaticVector@UWeightedElement@?$CvWeightedVector@UBuilderDirective@@$0GE@$00@@$0GE@$00$0A@$0A@@@IAEXPAUWeightedElement@?$CvWeightedVector@UBuilderDirective@@$0GE@$00@@I@Z ENDP ; FStaticVector<CvWeightedVector<BuilderDirective,100,1>::WeightedElement,100,1,0,0>::Free
_TEXT	ENDS
PUBLIC	??1?$_Temp_iterator@UWeightedElement@?$CvWeightedVector@UBuilderDirective@@$0GE@$00@@@std@@QAE@XZ ; std::_Temp_iterator<CvWeightedVector<BuilderDirective,100,1>::WeightedElement>::~_Temp_iterator<CvWeightedVector<BuilderDirective,100,1>::WeightedElement>
; Function compile flags: /Ogtpy
; File c:\program files (x86)\microsoft visual studio 9.0\vc\include\memory
;	COMDAT ??1?$_Temp_iterator@UWeightedElement@?$CvWeightedVector@UBuilderDirective@@$0GE@$00@@@std@@QAE@XZ
_TEXT	SEGMENT
??1?$_Temp_iterator@UWeightedElement@?$CvWeightedVector@UBuilderDirective@@$0GE@$00@@@std@@QAE@XZ PROC ; std::_Temp_iterator<CvWeightedVector<BuilderDirective,100,1>::WeightedElement>::~_Temp_iterator<CvWeightedVector<BuilderDirective,100,1>::WeightedElement>, COMDAT
; _this$ = ecx

; 546  : 		if (_Buf._Begin != 0)

	mov	eax, DWORD PTR [ecx]
	test	eax, eax
	je	SHORT $LN9@Temp_itera

; 547  : 			{	// destroy any constructed elements in buffer
; 548  : 			for (_Pty _Next = _Buf._Begin;
; 549  : 				_Next != _Buf._Hiwater; ++_Next)
; 550  : 				_Destroy(&*_Next);
; 551  : 			std::return_temporary_buffer(_Buf._Begin);

	push	eax
	call	??3@YAXPAX@Z				; operator delete
	pop	ecx
$LN9@Temp_itera:

; 552  : 			}
; 553  : 		}

	ret	0
??1?$_Temp_iterator@UWeightedElement@?$CvWeightedVector@UBuilderDirective@@$0GE@$00@@@std@@QAE@XZ ENDP ; std::_Temp_iterator<CvWeightedVector<BuilderDirective,100,1>::WeightedElement>::~_Temp_iterator<CvWeightedVector<BuilderDirective,100,1>::WeightedElement>
_TEXT	ENDS
PUBLIC	??$_Distance@PAUWeightedElement@?$CvWeightedVector@UBuilderDirective@@$0GE@$00@@H@std@@YAXPAUWeightedElement@?$CvWeightedVector@UBuilderDirective@@$0GE@$00@@0AAH@Z ; std::_Distance<CvWeightedVector<BuilderDirective,100,1>::WeightedElement *,int>
; Function compile flags: /Ogtpy
; File c:\program files (x86)\microsoft visual studio 9.0\vc\include\xutility
;	COMDAT ??$_Distance@PAUWeightedElement@?$CvWeightedVector@UBuilderDirective@@$0GE@$00@@H@std@@YAXPAUWeightedElement@?$CvWeightedVector@UBuilderDirective@@$0GE@$00@@0AAH@Z
_TEXT	SEGMENT
__First$ = 8						; size = 4
__Last$ = 12						; size = 4
__Off$ = 16						; size = 4
??$_Distance@PAUWeightedElement@?$CvWeightedVector@UBuilderDirective@@$0GE@$00@@H@std@@YAXPAUWeightedElement@?$CvWeightedVector@UBuilderDirective@@$0GE@$00@@0AAH@Z PROC ; std::_Distance<CvWeightedVector<BuilderDirective,100,1>::WeightedElement *,int>, COMDAT

; 1893 : 	_Distance2(_First, _Last, _Off, _Iter_cat(_First));

	mov	ecx, DWORD PTR __Last$[esp-4]
	sub	ecx, DWORD PTR __First$[esp-4]
	mov	eax, 715827883				; 2aaaaaabH
	imul	ecx
	mov	eax, DWORD PTR __Off$[esp-4]
	sar	edx, 2
	mov	ecx, edx
	shr	ecx, 31					; 0000001fH
	add	ecx, edx
	add	DWORD PTR [eax], ecx

; 1894 : 	}

	ret	0
??$_Distance@PAUWeightedElement@?$CvWeightedVector@UBuilderDirective@@$0GE@$00@@H@std@@YAXPAUWeightedElement@?$CvWeightedVector@UBuilderDirective@@$0GE@$00@@0AAH@Z ENDP ; std::_Distance<CvWeightedVector<BuilderDirective,100,1>::WeightedElement *,int>
_TEXT	ENDS
PUBLIC	??$advance@PAUWeightedElement@?$CvWeightedVector@UBuilderDirective@@$0GE@$00@@H@std@@YAXAAPAUWeightedElement@?$CvWeightedVector@UBuilderDirective@@$0GE@$00@@H@Z ; std::advance<CvWeightedVector<BuilderDirective,100,1>::WeightedElement *,int>
; Function compile flags: /Ogtpy
;	COMDAT ??$advance@PAUWeightedElement@?$CvWeightedVector@UBuilderDirective@@$0GE@$00@@H@std@@YAXAAPAUWeightedElement@?$CvWeightedVector@UBuilderDirective@@$0GE@$00@@H@Z
_TEXT	SEGMENT
__Where$ = 8						; size = 4
__Off$ = 12						; size = 4
??$advance@PAUWeightedElement@?$CvWeightedVector@UBuilderDirective@@$0GE@$00@@H@std@@YAXAAPAUWeightedElement@?$CvWeightedVector@UBuilderDirective@@$0GE@$00@@H@Z PROC ; std::advance<CvWeightedVector<BuilderDirective,100,1>::WeightedElement *,int>, COMDAT

; 1774 : 	_Advance(_Where, _Off, _Iter_cat(_Where));

	mov	eax, DWORD PTR __Off$[esp-4]
	lea	ecx, DWORD PTR [eax+eax*2]
	mov	eax, DWORD PTR __Where$[esp-4]
	add	ecx, ecx
	add	ecx, ecx
	add	ecx, ecx
	add	DWORD PTR [eax], ecx

; 1775 : 	}

	ret	0
??$advance@PAUWeightedElement@?$CvWeightedVector@UBuilderDirective@@$0GE@$00@@H@std@@YAXAAPAUWeightedElement@?$CvWeightedVector@UBuilderDirective@@$0GE@$00@@H@Z ENDP ; std::advance<CvWeightedVector<BuilderDirective,100,1>::WeightedElement *,int>
_TEXT	ENDS
PUBLIC	__TI2?AVbad_alloc@std@@
PUBLIC	??$get_temporary_buffer@UWeightedElement@?$CvWeightedVector@UBuilderDirective@@$0GE@$00@@@std@@YA?AU?$pair@PAUWeightedElement@?$CvWeightedVector@UBuilderDirective@@$0GE@$00@@H@0@H@Z ; std::get_temporary_buffer<CvWeightedVector<BuilderDirective,100,1>::WeightedElement>
PUBLIC	__CTA2?AVbad_alloc@std@@
PUBLIC	__CT??_R0?AVbad_alloc@std@@@8??0bad_alloc@std@@QAE@ABV01@@Z12
PUBLIC	??0bad_alloc@std@@QAE@ABV01@@Z			; std::bad_alloc::bad_alloc
PUBLIC	__CT??_R0?AVexception@std@@@8??0exception@std@@QAE@ABV01@@Z12
EXTRN	??2@YAPAXIABUnothrow_t@std@@@Z:PROC		; operator new
EXTRN	?nothrow@std@@3Unothrow_t@1@B:BYTE		; std::nothrow
EXTRN	__CxxThrowException@8:PROC
EXTRN	??0exception@std@@QAE@ABV01@@Z:PROC		; std::exception::exception
;	COMDAT __CT??_R0?AVexception@std@@@8??0exception@std@@QAE@ABV01@@Z12
; File c:\program files (x86)\microsoft visual studio 9.0\vc\include\utility
xdata$x	SEGMENT
__CT??_R0?AVexception@std@@@8??0exception@std@@QAE@ABV01@@Z12 DD 00H
	DD	FLAT:??_R0?AVexception@std@@@8
	DD	00H
	DD	0ffffffffH
	ORG $+4
	DD	0cH
	DD	FLAT:??0exception@std@@QAE@ABV01@@Z
xdata$x	ENDS
;	COMDAT __CT??_R0?AVbad_alloc@std@@@8??0bad_alloc@std@@QAE@ABV01@@Z12
xdata$x	SEGMENT
__CT??_R0?AVbad_alloc@std@@@8??0bad_alloc@std@@QAE@ABV01@@Z12 DD 00H
	DD	FLAT:??_R0?AVbad_alloc@std@@@8
	DD	00H
	DD	0ffffffffH
	ORG $+4
	DD	0cH
	DD	FLAT:??0bad_alloc@std@@QAE@ABV01@@Z
xdata$x	ENDS
;	COMDAT __CTA2?AVbad_alloc@std@@
xdata$x	SEGMENT
__CTA2?AVbad_alloc@std@@ DD 02H
	DD	FLAT:__CT??_R0?AVbad_alloc@std@@@8??0bad_alloc@std@@QAE@ABV01@@Z12
	DD	FLAT:__CT??_R0?AVexception@std@@@8??0exception@std@@QAE@ABV01@@Z12
xdata$x	ENDS
;	COMDAT __TI2?AVbad_alloc@std@@
xdata$x	SEGMENT
__TI2?AVbad_alloc@std@@ DD 00H
	DD	FLAT:??1bad_alloc@std@@UAE@XZ
	DD	00H
	DD	FLAT:__CTA2?AVbad_alloc@std@@
; Function compile flags: /Ogtpy
; File c:\program files (x86)\microsoft visual studio 9.0\vc\include\memory
xdata$x	ENDS
;	COMDAT ??$get_temporary_buffer@UWeightedElement@?$CvWeightedVector@UBuilderDirective@@$0GE@$00@@@std@@YA?AU?$pair@PAUWeightedElement@?$CvWeightedVector@UBuilderDirective@@$0GE@$00@@H@0@H@Z
_TEXT	SEGMENT
$T222451 = -12						; size = 12
___$ReturnUdt$ = 8					; size = 4
$T222456 = 12						; size = 4
__Count$ = 12						; size = 4
??$get_temporary_buffer@UWeightedElement@?$CvWeightedVector@UBuilderDirective@@$0GE@$00@@@std@@YA?AU?$pair@PAUWeightedElement@?$CvWeightedVector@UBuilderDirective@@$0GE@$00@@H@0@H@Z PROC ; std::get_temporary_buffer<CvWeightedVector<BuilderDirective,100,1>::WeightedElement>, COMDAT

; 19   : 	{	// get raw temporary buffer of up to _Count elements

	sub	esp, 12					; 0000000cH
	push	esi

; 20   : 	_Ty _FARQ *_Pbuf;
; 21   : 
; 22   : 	if (_Count <= 0)

	mov	esi, DWORD PTR __Count$[esp+12]
	test	esi, esi
	jg	SHORT $LN7@get_tempor

; 23   : 		_Count = 0;

	xor	esi, esi
$LN5@get_tempor:

; 26   : 
; 27   : 	for (_Pbuf = 0; 0 < _Count; _Count /= 2)

	xor	ecx, ecx
	test	esi, esi
	jle	SHORT $LN15@get_tempor
$LL4@get_tempor:

; 28   : 		if ((_Pbuf = (_Ty _FARQ *)operator new(
; 29   : 			(_SIZT)_Count * sizeof (_Ty), nothrow)) != 0)

	lea	edx, DWORD PTR [esi+esi*2]
	add	edx, edx
	add	edx, edx
	add	edx, edx
	push	OFFSET ?nothrow@std@@3Unothrow_t@1@B	; std::nothrow
	push	edx
	call	??2@YAPAXIABUnothrow_t@std@@@Z		; operator new
	mov	ecx, eax
	add	esp, 8
	test	ecx, ecx
	jne	SHORT $LN15@get_tempor
	mov	eax, esi
	cdq
	sub	eax, edx
	sar	eax, 1
	mov	esi, eax
	test	esi, esi
	jg	SHORT $LL4@get_tempor
$LN15@get_tempor:

; 30   : 			break;
; 31   : 
; 32   : 	return (pair<_Ty _FARQ *, _PDFT>(_Pbuf, _Count));

	mov	eax, DWORD PTR ___$ReturnUdt$[esp+12]
	mov	DWORD PTR [eax+4], esi
	mov	DWORD PTR [eax], ecx
	pop	esi

; 33   : 	}

	add	esp, 12					; 0000000cH
	ret	0
$LN7@get_tempor:

; 24   : 	else if (((size_t)(-1) / _Count) < sizeof (_Ty))

	or	eax, -1
	xor	edx, edx
	div	esi
	cmp	eax, 24					; 00000018H
	jae	SHORT $LN5@get_tempor

; 25   : 		_THROW_NCEE(std::bad_alloc, NULL);

	lea	eax, DWORD PTR $T222456[esp+12]
	push	eax
	lea	ecx, DWORD PTR $T222451[esp+20]
	mov	DWORD PTR $T222456[esp+16], 0
	call	DWORD PTR __imp_??0exception@std@@QAE@ABQBD@Z
	push	OFFSET __TI2?AVbad_alloc@std@@
	lea	ecx, DWORD PTR $T222451[esp+20]
	push	ecx
	mov	DWORD PTR $T222451[esp+24], OFFSET ??_7bad_alloc@std@@6B@
	call	__CxxThrowException@8
$LN18@get_tempor:
$LN17@get_tempor:
	int	3
??$get_temporary_buffer@UWeightedElement@?$CvWeightedVector@UBuilderDirective@@$0GE@$00@@@std@@YA?AU?$pair@PAUWeightedElement@?$CvWeightedVector@UBuilderDirective@@$0GE@$00@@H@0@H@Z ENDP ; std::get_temporary_buffer<CvWeightedVector<BuilderDirective,100,1>::WeightedElement>
_TEXT	ENDS
EXTRN	__imp_??0exception@std@@QAE@ABV01@@Z:PROC
; Function compile flags: /Ogtpy
;	COMDAT ??0bad_alloc@std@@QAE@ABV01@@Z
_TEXT	SEGMENT
___that$ = 8						; size = 4
??0bad_alloc@std@@QAE@ABV01@@Z PROC			; std::bad_alloc::bad_alloc, COMDAT
; _this$ = ecx
	mov	eax, DWORD PTR ___that$[esp-4]
	push	esi
	push	eax
	mov	esi, ecx
	call	DWORD PTR __imp_??0exception@std@@QAE@ABV01@@Z
	mov	DWORD PTR [esi], OFFSET ??_7bad_alloc@std@@6B@
	mov	eax, esi
	pop	esi
	ret	4
??0bad_alloc@std@@QAE@ABV01@@Z ENDP			; std::bad_alloc::bad_alloc
_TEXT	ENDS
PUBLIC	??0?$_Temp_iterator@UWeightedElement@?$CvWeightedVector@UBuilderDirective@@$0GE@$00@@@std@@QAE@ABV01@@Z ; std::_Temp_iterator<CvWeightedVector<BuilderDirective,100,1>::WeightedElement>::_Temp_iterator<CvWeightedVector<BuilderDirective,100,1>::WeightedElement>
; Function compile flags: /Ogtpy
;	COMDAT ??0?$_Temp_iterator@UWeightedElement@?$CvWeightedVector@UBuilderDirective@@$0GE@$00@@@std@@QAE@ABV01@@Z
_TEXT	SEGMENT
__Right$ = 8						; size = 4
??0?$_Temp_iterator@UWeightedElement@?$CvWeightedVector@UBuilderDirective@@$0GE@$00@@@std@@QAE@ABV01@@Z PROC ; std::_Temp_iterator<CvWeightedVector<BuilderDirective,100,1>::WeightedElement>::_Temp_iterator<CvWeightedVector<BuilderDirective,100,1>::WeightedElement>, COMDAT
; _this$ = ecx

; 535  : 	_Temp_iterator(const _Temp_iterator<_Ty>& _Right)

	mov	eax, ecx

; 536  : 		{	// construct from _Right (share active buffer)
; 537  : 		_Buf._Begin = 0;	// clear stored buffer, for safe destruction

	xor	ecx, ecx
	mov	DWORD PTR [eax], ecx

; 538  : 		_Buf._Current = 0;

	mov	DWORD PTR [eax+4], ecx

; 539  : 		_Buf._Hiwater = 0;

	mov	DWORD PTR [eax+8], ecx

; 540  : 		_Buf._Size = 0;

	mov	DWORD PTR [eax+12], ecx

; 541  : 		*this = _Right;

	mov	ecx, DWORD PTR __Right$[esp-4]
	mov	edx, DWORD PTR [ecx+16]
	mov	DWORD PTR [eax+16], edx

; 542  : 		}

	ret	4
??0?$_Temp_iterator@UWeightedElement@?$CvWeightedVector@UBuilderDirective@@$0GE@$00@@@std@@QAE@ABV01@@Z ENDP ; std::_Temp_iterator<CvWeightedVector<BuilderDirective,100,1>::WeightedElement>::_Temp_iterator<CvWeightedVector<BuilderDirective,100,1>::WeightedElement>
_TEXT	ENDS
PUBLIC	??$iter_swap@PAUWeightedElement@?$CvWeightedVector@UBuilderDirective@@$0GE@$00@@PAU12@@std@@YAXPAUWeightedElement@?$CvWeightedVector@UBuilderDirective@@$0GE@$00@@0@Z ; std::iter_swap<CvWeightedVector<BuilderDirective,100,1>::WeightedElement *,CvWeightedVector<BuilderDirective,100,1>::WeightedElement *>
; Function compile flags: /Ogtpy
; File c:\program files (x86)\microsoft visual studio 9.0\vc\include\algorithm
;	COMDAT ??$iter_swap@PAUWeightedElement@?$CvWeightedVector@UBuilderDirective@@$0GE@$00@@PAU12@@std@@YAXPAUWeightedElement@?$CvWeightedVector@UBuilderDirective@@$0GE@$00@@0@Z
_TEXT	SEGMENT
__Left$ = 8						; size = 4
__Right$ = 12						; size = 4
??$iter_swap@PAUWeightedElement@?$CvWeightedVector@UBuilderDirective@@$0GE@$00@@PAU12@@std@@YAXPAUWeightedElement@?$CvWeightedVector@UBuilderDirective@@$0GE@$00@@0@Z PROC ; std::iter_swap<CvWeightedVector<BuilderDirective,100,1>::WeightedElement *,CvWeightedVector<BuilderDirective,100,1>::WeightedElement *>, COMDAT

; 594  : 	swap(*_Left, *_Right);

	jmp	??$swap@UWeightedElement@?$CvWeightedVector@UBuilderDirective@@$0GE@$00@@@std@@YAXAAUWeightedElement@?$CvWeightedVector@UBuilderDirective@@$0GE@$00@@0@Z ; std::swap<CvWeightedVector<BuilderDirective,100,1>::WeightedElement>
??$iter_swap@PAUWeightedElement@?$CvWeightedVector@UBuilderDirective@@$0GE@$00@@PAU12@@std@@YAXPAUWeightedElement@?$CvWeightedVector@UBuilderDirective@@$0GE@$00@@0@Z ENDP ; std::iter_swap<CvWeightedVector<BuilderDirective,100,1>::WeightedElement *,CvWeightedVector<BuilderDirective,100,1>::WeightedElement *>
_TEXT	ENDS
PUBLIC	??$unchecked_copy_backward@PAUWeightedElement@?$CvWeightedVector@UBuilderDirective@@$0GE@$00@@PAU12@@stdext@@YAPAUWeightedElement@?$CvWeightedVector@UBuilderDirective@@$0GE@$00@@PAU12@00@Z ; stdext::unchecked_copy_backward<CvWeightedVector<BuilderDirective,100,1>::WeightedElement *,CvWeightedVector<BuilderDirective,100,1>::WeightedElement *>
; Function compile flags: /Ogtpy
; File c:\program files (x86)\microsoft visual studio 9.0\vc\include\xutility
;	COMDAT ??$unchecked_copy_backward@PAUWeightedElement@?$CvWeightedVector@UBuilderDirective@@$0GE@$00@@PAU12@@stdext@@YAPAUWeightedElement@?$CvWeightedVector@UBuilderDirective@@$0GE@$00@@PAU12@00@Z
_TEXT	SEGMENT
$T222482 = -4						; size = 1
__Cat$222488 = -4					; size = 1
$T222484 = -4						; size = 1
__First$ = 8						; size = 4
__Last$ = 12						; size = 4
__Dest$ = 16						; size = 4
??$unchecked_copy_backward@PAUWeightedElement@?$CvWeightedVector@UBuilderDirective@@$0GE@$00@@PAU12@@stdext@@YAPAUWeightedElement@?$CvWeightedVector@UBuilderDirective@@$0GE@$00@@PAU12@00@Z PROC ; stdext::unchecked_copy_backward<CvWeightedVector<BuilderDirective,100,1>::WeightedElement *,CvWeightedVector<BuilderDirective,100,1>::WeightedElement *>, COMDAT

; 3636 : 	{	// copy [_First, _Last) backwards to [..., _Dest)

	push	ecx

; 3637 : 		return (_STD _Copy_backward_opt(_CHECKED_BASE(_First), _CHECKED_BASE(_Last), _Dest,
; 3638 : 			_STD _Iter_random(_First, _Dest), _STD _Ptr_cat(_First, _Dest), _STD _Range_checked_iterator_tag()));

	mov	BYTE PTR $T222482[esp+4], 0
	mov	eax, DWORD PTR $T222482[esp+4]
	mov	ecx, DWORD PTR __Cat$222488[esp+4]
	mov	edx, DWORD PTR $T222484[esp+4]
	push	eax
	mov	eax, DWORD PTR __Dest$[esp+4]
	push	ecx
	mov	ecx, DWORD PTR __Last$[esp+8]
	push	edx
	mov	edx, DWORD PTR __First$[esp+12]
	push	eax
	push	ecx
	push	edx
	call	??$_Copy_backward_opt@PAUWeightedElement@?$CvWeightedVector@UBuilderDirective@@$0GE@$00@@PAU12@Urandom_access_iterator_tag@std@@@std@@YAPAUWeightedElement@?$CvWeightedVector@UBuilderDirective@@$0GE@$00@@PAU12@00Urandom_access_iterator_tag@0@U_Nonscalar_ptr_iterator_tag@0@U_Range_checked_iterator_tag@0@@Z ; std::_Copy_backward_opt<CvWeightedVector<BuilderDirective,100,1>::WeightedElement *,CvWeightedVector<BuilderDirective,100,1>::WeightedElement *,std::random_access_iterator_tag>

; 3639 : 	}

	add	esp, 28					; 0000001cH
	ret	0
??$unchecked_copy_backward@PAUWeightedElement@?$CvWeightedVector@UBuilderDirective@@$0GE@$00@@PAU12@@stdext@@YAPAUWeightedElement@?$CvWeightedVector@UBuilderDirective@@$0GE@$00@@PAU12@00@Z ENDP ; stdext::unchecked_copy_backward<CvWeightedVector<BuilderDirective,100,1>::WeightedElement *,CvWeightedVector<BuilderDirective,100,1>::WeightedElement *>
_TEXT	ENDS
PUBLIC	??$_Merge_backward@PAUWeightedElement@?$CvWeightedVector@UBuilderDirective@@$0GE@$00@@PAU12@PAU12@@std@@YAPAUWeightedElement@?$CvWeightedVector@UBuilderDirective@@$0GE@$00@@PAU12@0000U_Range_checked_iterator_tag@0@@Z ; std::_Merge_backward<CvWeightedVector<BuilderDirective,100,1>::WeightedElement *,CvWeightedVector<BuilderDirective,100,1>::WeightedElement *,CvWeightedVector<BuilderDirective,100,1>::WeightedElement *>
; Function compile flags: /Ogtpy
; File c:\program files (x86)\microsoft visual studio 9.0\vc\include\algorithm
;	COMDAT ??$_Merge_backward@PAUWeightedElement@?$CvWeightedVector@UBuilderDirective@@$0GE@$00@@PAU12@PAU12@@std@@YAPAUWeightedElement@?$CvWeightedVector@UBuilderDirective@@$0GE@$00@@PAU12@0000U_Range_checked_iterator_tag@0@@Z
_TEXT	SEGMENT
$T222535 = 8						; size = 1
__Cat$222540 = 8					; size = 1
$T222537 = 8						; size = 1
$T222510 = 8						; size = 1
__Cat$222515 = 8					; size = 1
$T222512 = 8						; size = 1
__First1$ = 8						; size = 4
__Last1$ = 12						; size = 4
__First2$ = 16						; size = 4
__Last2$ = 20						; size = 4
__Dest$ = 24						; size = 4
___formal$ = 28						; size = 1
??$_Merge_backward@PAUWeightedElement@?$CvWeightedVector@UBuilderDirective@@$0GE@$00@@PAU12@PAU12@@std@@YAPAUWeightedElement@?$CvWeightedVector@UBuilderDirective@@$0GE@$00@@PAU12@0000U_Range_checked_iterator_tag@0@@Z PROC ; std::_Merge_backward<CvWeightedVector<BuilderDirective,100,1>::WeightedElement *,CvWeightedVector<BuilderDirective,100,1>::WeightedElement *,CvWeightedVector<BuilderDirective,100,1>::WeightedElement *>, COMDAT

; 2711 : 	for (; ; )
; 2712 : 		if (_First1 == _Last1)

	mov	ecx, DWORD PTR __Last1$[esp-4]
	mov	eax, DWORD PTR __Dest$[esp-4]
	mov	edx, DWORD PTR __Last2$[esp-4]
	push	ebx
	push	esi
	mov	esi, DWORD PTR __First1$[esp+4]
	push	edi
	mov	edi, DWORD PTR __First2$[esp+8]
	cmp	esi, ecx
	je	SHORT $LN27@Merge_back
	npad	5
$LL8@Merge_back:

; 2714 : 		else if (_First2 == _Last2)

	cmp	edi, edx
	je	$LN28@Merge_back

; 2716 : 		else if (_DEBUG_LT(*--_Last2, *--_Last1))

	mov	ebx, DWORD PTR [edx-4]
	sub	edx, 24					; 00000018H
	sub	ecx, 24					; 00000018H

; 2717 : 			*--_Dest = *_Last1, ++_Last2;

	sub	eax, 24					; 00000018H
	cmp	ebx, DWORD PTR [ecx+20]
	jle	SHORT $LN2@Merge_back
	mov	ebx, DWORD PTR [ecx]
	mov	DWORD PTR [eax], ebx
	mov	ebx, DWORD PTR [ecx+4]
	mov	DWORD PTR [eax+4], ebx
	mov	ebx, DWORD PTR [ecx+8]
	mov	DWORD PTR [eax+8], ebx
	mov	ebx, DWORD PTR [ecx+12]
	mov	DWORD PTR [eax+12], ebx
	mov	ebx, DWORD PTR [ecx+16]
	mov	DWORD PTR [eax+16], ebx
	mov	ebx, DWORD PTR [ecx+20]
	add	edx, 24					; 00000018H

; 2718 : 		else

	jmp	SHORT $LN30@Merge_back
$LN2@Merge_back:

; 2719 : 			*--_Dest = *_Last2, ++_Last1;

	mov	ebx, DWORD PTR [edx]
	mov	DWORD PTR [eax], ebx
	mov	ebx, DWORD PTR [edx+4]
	mov	DWORD PTR [eax+4], ebx
	mov	ebx, DWORD PTR [edx+8]
	mov	DWORD PTR [eax+8], ebx
	mov	ebx, DWORD PTR [edx+12]
	mov	DWORD PTR [eax+12], ebx
	mov	ebx, DWORD PTR [edx+16]
	mov	DWORD PTR [eax+16], ebx
	mov	ebx, DWORD PTR [edx+20]
	add	ecx, 24					; 00000018H
$LN30@Merge_back:
	mov	DWORD PTR [eax+20], ebx
	cmp	esi, ecx
	jne	SHORT $LL8@Merge_back
$LN27@Merge_back:

; 2713 : 			return (_STDEXT unchecked_copy_backward(_First2, _Last2, _Dest));

	mov	BYTE PTR $T222510[esp+8], 0
	mov	ecx, DWORD PTR $T222510[esp+8]
	push	ecx
	mov	ecx, DWORD PTR __Cat$222515[esp+12]
	push	ecx
	mov	ecx, DWORD PTR $T222512[esp+16]
	push	ecx
	push	eax
	push	edx
	push	edi

; 2715 : 			return (_STDEXT unchecked_copy_backward(_First1, _Last1, _Dest));

	call	??$_Copy_backward_opt@PAUWeightedElement@?$CvWeightedVector@UBuilderDirective@@$0GE@$00@@PAU12@Urandom_access_iterator_tag@std@@@std@@YAPAUWeightedElement@?$CvWeightedVector@UBuilderDirective@@$0GE@$00@@PAU12@00Urandom_access_iterator_tag@0@U_Nonscalar_ptr_iterator_tag@0@U_Range_checked_iterator_tag@0@@Z ; std::_Copy_backward_opt<CvWeightedVector<BuilderDirective,100,1>::WeightedElement *,CvWeightedVector<BuilderDirective,100,1>::WeightedElement *,std::random_access_iterator_tag>
	add	esp, 24					; 00000018H
	pop	edi
	pop	esi
	pop	ebx

; 2720 : 	}

	ret	0
$LN28@Merge_back:

; 2715 : 			return (_STDEXT unchecked_copy_backward(_First1, _Last1, _Dest));

	mov	BYTE PTR $T222535[esp+8], 0
	mov	edx, DWORD PTR $T222535[esp+8]
	push	edx
	mov	edx, DWORD PTR __Cat$222540[esp+12]
	push	edx
	mov	edx, DWORD PTR $T222537[esp+16]
	push	edx
	push	eax
	push	ecx
	push	esi
	call	??$_Copy_backward_opt@PAUWeightedElement@?$CvWeightedVector@UBuilderDirective@@$0GE@$00@@PAU12@Urandom_access_iterator_tag@std@@@std@@YAPAUWeightedElement@?$CvWeightedVector@UBuilderDirective@@$0GE@$00@@PAU12@00Urandom_access_iterator_tag@0@U_Nonscalar_ptr_iterator_tag@0@U_Range_checked_iterator_tag@0@@Z ; std::_Copy_backward_opt<CvWeightedVector<BuilderDirective,100,1>::WeightedElement *,CvWeightedVector<BuilderDirective,100,1>::WeightedElement *,std::random_access_iterator_tag>
	add	esp, 24					; 00000018H
	pop	edi
	pop	esi
	pop	ebx

; 2720 : 	}

	ret	0
??$_Merge_backward@PAUWeightedElement@?$CvWeightedVector@UBuilderDirective@@$0GE@$00@@PAU12@PAU12@@std@@YAPAUWeightedElement@?$CvWeightedVector@UBuilderDirective@@$0GE@$00@@PAU12@0000U_Range_checked_iterator_tag@0@@Z ENDP ; std::_Merge_backward<CvWeightedVector<BuilderDirective,100,1>::WeightedElement *,CvWeightedVector<BuilderDirective,100,1>::WeightedElement *,CvWeightedVector<BuilderDirective,100,1>::WeightedElement *>
_TEXT	ENDS
PUBLIC	??$_Lower_bound@PAUWeightedElement@?$CvWeightedVector@UBuilderDirective@@$0GE@$00@@U12@H@std@@YAPAUWeightedElement@?$CvWeightedVector@UBuilderDirective@@$0GE@$00@@PAU12@0ABU12@PAH@Z ; std::_Lower_bound<CvWeightedVector<BuilderDirective,100,1>::WeightedElement *,CvWeightedVector<BuilderDirective,100,1>::WeightedElement,int>
; Function compile flags: /Ogtpy
;	COMDAT ??$_Lower_bound@PAUWeightedElement@?$CvWeightedVector@UBuilderDirective@@$0GE@$00@@U12@H@std@@YAPAUWeightedElement@?$CvWeightedVector@UBuilderDirective@@$0GE@$00@@PAU12@0ABU12@PAH@Z
_TEXT	SEGMENT
__First$ = 8						; size = 4
__Last$ = 12						; size = 4
__Val$ = 16						; size = 4
___formal$ = 20						; size = 4
??$_Lower_bound@PAUWeightedElement@?$CvWeightedVector@UBuilderDirective@@$0GE@$00@@U12@H@std@@YAPAUWeightedElement@?$CvWeightedVector@UBuilderDirective@@$0GE@$00@@PAU12@0ABU12@PAH@Z PROC ; std::_Lower_bound<CvWeightedVector<BuilderDirective,100,1>::WeightedElement *,CvWeightedVector<BuilderDirective,100,1>::WeightedElement,int>, COMDAT

; 2253 : 	_DEBUG_ORDER_SINGLE(_First, _Last, true);
; 2254 : 	_Diff _Count = 0;
; 2255 : 	_Distance(_First, _Last, _Count);

	mov	ecx, DWORD PTR __Last$[esp-4]
	push	esi
	mov	esi, DWORD PTR __First$[esp]
	sub	ecx, esi
	mov	eax, 715827883				; 2aaaaaabH
	imul	ecx
	sar	edx, 2
	mov	ecx, edx
	shr	ecx, 31					; 0000001fH
	add	ecx, edx

; 2256 : 
; 2257 : 	for (; 0 < _Count; )

	test	ecx, ecx
	jle	SHORT $LN22@Lower_boun
	mov	eax, DWORD PTR __Val$[esp]
	push	edi
	mov	edi, DWORD PTR [eax+20]
$LL4@Lower_boun:

; 2258 : 		{	// divide and conquer, find half that contains answer
; 2259 : 		_Diff _Count2 = _Count / 2;

	mov	eax, ecx
	cdq
	sub	eax, edx
	sar	eax, 1

; 2260 : 		_FwdIt _Mid = _First;
; 2261 : 		std::advance(_Mid, _Count2);

	lea	edx, DWORD PTR [eax+eax*2]

; 2262 : 		_DEBUG_ORDER_SINGLE(_Mid, _Last, false);
; 2263 : 
; 2264 : 		if (_DEBUG_LT(*_Mid, _Val))

	cmp	DWORD PTR [esi+edx*8+20], edi
	lea	edx, DWORD PTR [esi+edx*8]
	jle	SHORT $LN2@Lower_boun

; 2265 : 			_First = ++_Mid, _Count -= _Count2 + 1;

	lea	esi, DWORD PTR [edx+24]
	or	edx, -1
	sub	edx, eax
	add	ecx, edx

; 2266 : 		else

	jmp	SHORT $LN1@Lower_boun
$LN2@Lower_boun:

; 2267 : 			_Count = _Count2;

	mov	ecx, eax
$LN1@Lower_boun:

; 2256 : 
; 2257 : 	for (; 0 < _Count; )

	test	ecx, ecx
	jg	SHORT $LL4@Lower_boun
	pop	edi
$LN22@Lower_boun:

; 2268 : 		}
; 2269 : 	return (_First);

	mov	eax, esi
	pop	esi

; 2270 : 	}

	ret	0
??$_Lower_bound@PAUWeightedElement@?$CvWeightedVector@UBuilderDirective@@$0GE@$00@@U12@H@std@@YAPAUWeightedElement@?$CvWeightedVector@UBuilderDirective@@$0GE@$00@@PAU12@0ABU12@PAH@Z ENDP ; std::_Lower_bound<CvWeightedVector<BuilderDirective,100,1>::WeightedElement *,CvWeightedVector<BuilderDirective,100,1>::WeightedElement,int>
_TEXT	ENDS
PUBLIC	??$_Upper_bound@PAUWeightedElement@?$CvWeightedVector@UBuilderDirective@@$0GE@$00@@U12@H@std@@YAPAUWeightedElement@?$CvWeightedVector@UBuilderDirective@@$0GE@$00@@PAU12@0ABU12@PAH@Z ; std::_Upper_bound<CvWeightedVector<BuilderDirective,100,1>::WeightedElement *,CvWeightedVector<BuilderDirective,100,1>::WeightedElement,int>
; Function compile flags: /Ogtpy
;	COMDAT ??$_Upper_bound@PAUWeightedElement@?$CvWeightedVector@UBuilderDirective@@$0GE@$00@@U12@H@std@@YAPAUWeightedElement@?$CvWeightedVector@UBuilderDirective@@$0GE@$00@@PAU12@0ABU12@PAH@Z
_TEXT	SEGMENT
__First$ = 8						; size = 4
__Last$ = 12						; size = 4
__Val$ = 16						; size = 4
___formal$ = 20						; size = 4
??$_Upper_bound@PAUWeightedElement@?$CvWeightedVector@UBuilderDirective@@$0GE@$00@@U12@H@std@@YAPAUWeightedElement@?$CvWeightedVector@UBuilderDirective@@$0GE@$00@@PAU12@0ABU12@PAH@Z PROC ; std::_Upper_bound<CvWeightedVector<BuilderDirective,100,1>::WeightedElement *,CvWeightedVector<BuilderDirective,100,1>::WeightedElement,int>, COMDAT

; 2325 : 	_DEBUG_ORDER_SINGLE(_First, _Last, true);
; 2326 : 	_Diff _Count = 0;
; 2327 : 	_Distance(_First, _Last, _Count);

	mov	ecx, DWORD PTR __Last$[esp-4]
	push	esi
	mov	esi, DWORD PTR __First$[esp]
	sub	ecx, esi
	mov	eax, 715827883				; 2aaaaaabH
	imul	ecx
	sar	edx, 2
	mov	ecx, edx
	shr	ecx, 31					; 0000001fH
	add	ecx, edx

; 2328 : 	for (; 0 < _Count; )

	test	ecx, ecx
	jle	SHORT $LN22@Upper_boun
	mov	eax, DWORD PTR __Val$[esp]
	push	edi
	mov	edi, DWORD PTR [eax+20]
$LL4@Upper_boun:

; 2329 : 		{	// divide and conquer, find half that contains answer
; 2330 : 		_Diff _Count2 = _Count / 2;

	mov	eax, ecx
	cdq
	sub	eax, edx
	sar	eax, 1

; 2331 : 		_FwdIt _Mid = _First;
; 2332 : 		std::advance(_Mid, _Count2);

	lea	edx, DWORD PTR [eax+eax*2]

; 2333 : 		_DEBUG_ORDER_SINGLE(_Mid, _Last, false);
; 2334 : 
; 2335 : 		if (!_DEBUG_LT(_Val, *_Mid))

	cmp	edi, DWORD PTR [esi+edx*8+20]
	lea	edx, DWORD PTR [esi+edx*8]
	jg	SHORT $LN2@Upper_boun

; 2336 : 			_First = ++_Mid, _Count -= _Count2 + 1;

	lea	esi, DWORD PTR [edx+24]
	or	edx, -1
	sub	edx, eax
	add	ecx, edx

; 2337 : 		else

	jmp	SHORT $LN1@Upper_boun
$LN2@Upper_boun:

; 2338 : 			_Count = _Count2;

	mov	ecx, eax
$LN1@Upper_boun:

; 2328 : 	for (; 0 < _Count; )

	test	ecx, ecx
	jg	SHORT $LL4@Upper_boun
	pop	edi
$LN22@Upper_boun:

; 2339 : 		}
; 2340 : 	return (_First);

	mov	eax, esi
	pop	esi

; 2341 : 	}

	ret	0
??$_Upper_bound@PAUWeightedElement@?$CvWeightedVector@UBuilderDirective@@$0GE@$00@@U12@H@std@@YAPAUWeightedElement@?$CvWeightedVector@UBuilderDirective@@$0GE@$00@@PAU12@0ABU12@PAH@Z ENDP ; std::_Upper_bound<CvWeightedVector<BuilderDirective,100,1>::WeightedElement *,CvWeightedVector<BuilderDirective,100,1>::WeightedElement,int>
_TEXT	ENDS
PUBLIC	??$unchecked_copy@PAUWeightedElement@?$CvWeightedVector@UBuilderDirective@@$0GE@$00@@PAU12@@stdext@@YAPAUWeightedElement@?$CvWeightedVector@UBuilderDirective@@$0GE@$00@@PAU12@00@Z ; stdext::unchecked_copy<CvWeightedVector<BuilderDirective,100,1>::WeightedElement *,CvWeightedVector<BuilderDirective,100,1>::WeightedElement *>
; Function compile flags: /Ogtpy
; File c:\program files (x86)\microsoft visual studio 9.0\vc\include\xutility
;	COMDAT ??$unchecked_copy@PAUWeightedElement@?$CvWeightedVector@UBuilderDirective@@$0GE@$00@@PAU12@@stdext@@YAPAUWeightedElement@?$CvWeightedVector@UBuilderDirective@@$0GE@$00@@PAU12@00@Z
_TEXT	SEGMENT
$T222645 = -4						; size = 1
__Cat$222650 = -4					; size = 1
$T222647 = -4						; size = 1
__First$ = 8						; size = 4
__Last$ = 12						; size = 4
__Dest$ = 16						; size = 4
??$unchecked_copy@PAUWeightedElement@?$CvWeightedVector@UBuilderDirective@@$0GE@$00@@PAU12@@stdext@@YAPAUWeightedElement@?$CvWeightedVector@UBuilderDirective@@$0GE@$00@@PAU12@00@Z PROC ; stdext::unchecked_copy<CvWeightedVector<BuilderDirective,100,1>::WeightedElement *,CvWeightedVector<BuilderDirective,100,1>::WeightedElement *>, COMDAT

; 3604 : 	{	// copy [_First, _Last) to [_Dest, ...)

	push	ecx

; 3605 : 		return (_STD _Copy_opt(_CHECKED_BASE(_First), _CHECKED_BASE(_Last), _Dest,
; 3606 : 			_STD _Iter_random(_First, _Dest), _STD _Ptr_cat(_First, _Dest), _STD _Range_checked_iterator_tag()));

	mov	BYTE PTR $T222645[esp+4], 0
	mov	eax, DWORD PTR $T222645[esp+4]
	mov	ecx, DWORD PTR __Cat$222650[esp+4]
	mov	edx, DWORD PTR $T222647[esp+4]
	push	eax
	mov	eax, DWORD PTR __Dest$[esp+4]
	push	ecx
	mov	ecx, DWORD PTR __Last$[esp+8]
	push	edx
	mov	edx, DWORD PTR __First$[esp+12]
	push	eax
	push	ecx
	push	edx
	call	??$_Copy_opt@PAUWeightedElement@?$CvWeightedVector@UBuilderDirective@@$0GE@$00@@PAU12@Urandom_access_iterator_tag@std@@@std@@YAPAUWeightedElement@?$CvWeightedVector@UBuilderDirective@@$0GE@$00@@PAU12@00Urandom_access_iterator_tag@0@U_Nonscalar_ptr_iterator_tag@0@U_Range_checked_iterator_tag@0@@Z ; std::_Copy_opt<CvWeightedVector<BuilderDirective,100,1>::WeightedElement *,CvWeightedVector<BuilderDirective,100,1>::WeightedElement *,std::random_access_iterator_tag>

; 3607 : 	}

	add	esp, 28					; 0000001cH
	ret	0
??$unchecked_copy@PAUWeightedElement@?$CvWeightedVector@UBuilderDirective@@$0GE@$00@@PAU12@@stdext@@YAPAUWeightedElement@?$CvWeightedVector@UBuilderDirective@@$0GE@$00@@PAU12@00@Z ENDP ; stdext::unchecked_copy<CvWeightedVector<BuilderDirective,100,1>::WeightedElement *,CvWeightedVector<BuilderDirective,100,1>::WeightedElement *>
_TEXT	ENDS
PUBLIC	??4?$_Temp_iterator@UWeightedElement@?$CvWeightedVector@UBuilderDirective@@$0GE@$00@@@std@@QAEAAV01@ABUWeightedElement@?$CvWeightedVector@UBuilderDirective@@$0GE@$00@@@Z ; std::_Temp_iterator<CvWeightedVector<BuilderDirective,100,1>::WeightedElement>::operator=
; Function compile flags: /Ogtpy
; File c:\program files (x86)\microsoft visual studio 9.0\vc\include\memory
;	COMDAT ??4?$_Temp_iterator@UWeightedElement@?$CvWeightedVector@UBuilderDirective@@$0GE@$00@@@std@@QAEAAV01@ABUWeightedElement@?$CvWeightedVector@UBuilderDirective@@$0GE@$00@@@Z
_TEXT	SEGMENT
