; Listing generated by Microsoft (R) Optimizing Compiler Version 15.00.30729.01 

	TITLE	c:\Users\EnormousApplePie\Desktop\Lekmod Files\Lekmod DLL versions\v29\LEKMOD_DLL\CvGameCoreDLL_Expansion2\CvCityStrategyAI.cpp
	.686P
	.XMM
	include listing.inc
	.model	flat

INCLUDELIB MSVCRT
INCLUDELIB OLDNAMES

PUBLIC	?m_acBestYields@CvCityStrategyAI@@0PAY0CF@EA	; CvCityStrategyAI::m_acBestYields
PUBLIC	?NO_QUEST_DATA@CvMinorCivQuest@@2HB		; CvMinorCivQuest::NO_QUEST_DATA
PUBLIC	?NO_TURN@CvMinorCivQuest@@2HB			; CvMinorCivQuest::NO_TURN
_BSS	SEGMENT
?m_acBestYields@CvCityStrategyAI@@0PAY0CF@EA DB 0deH DUP (?) ; CvCityStrategyAI::m_acBestYields
_BSS	ENDS
CONST	SEGMENT
$SG225490 DB	'NoMinorCivs', 00H
$SG225491 DB	'Permanent', 00H
	ORG $+2
$SG225492 DB	'CheckTriggerTurnCount', 00H
	ORG $+2
$SG225493 DB	'MinimumNumTurnsExecuted', 00H
$SG225494 DB	'WeightThreshold', 00H
$SG225496 DB	'Advisor', 00H
$SG225499 DB	'MILITARY', 00H
	ORG $+3
$SG225502 DB	'ECONOMIC', 00H
	ORG $+3
$SG225505 DB	'FOREIGN', 00H
$SG225508 DB	'SCIENCE', 00H
$SG225509 DB	'AdvisorCounsel', 00H
	ORG $+1
$SG225510 DB	'AdvisorCounselImportance', 00H
	ORG $+3
$SG225512 DB	'TechObsolete', 00H
	ORG $+3
$SG225513 DB	'TechPrereq', 00H
	ORG $+1
$SG225515 DB	'AICityStrategyType', 00H
	ORG $+1
$SG225516 DB	'AICityStrategy_Flavors', 00H
	ORG $+1
$SG225517 DB	'AICityStrategyType', 00H
	ORG $+1
$SG225518 DB	'AICityStrategy_PersonalityFlavorThresholdMods', 00H
	ORG $+2
$SG226041 DB	'.csv', 00H
	ORG $+3
$SG226042 DB	'_', 00H
	ORG $+2
$SG226043 DB	'CityStrategyAILog_', 00H
	ORG $+1
$SG226045 DB	'CityStrategyAILog.csv', 00H
	ORG $+2
$SG226285 DB	'ECONOMICAISTRATEGY_ENOUGH_EXPANSION', 00H
$SG226291 DB	'FLAVOR_OFFENSE', 00H
	ORG $+1
$SG226306 DB	'FLAVOR_OFFENSE', 00H
	ORG $+1
$SG226342 DB	'GAMEOPTION_AI_GIMP_NO_WORLD_WONDER', 00H
	ORG $+1
$SG226389 DB	'GAMEOPTION_AI_GIMP_NO_WORLD_WONDER', 00H
	ORG $+1
$SG226411 DB	'Choosing city build from Top Choices', 00H
	ORG $+3
$SG226472 DB	'AICITYSTRATEGY_TINY_CITY', 00H
	ORG $+3
$SG226475 DB	'AICITYSTRATEGY_SMALL_CITY', 00H
	ORG $+2
$SG226478 DB	'AICITYSTRATEGY_MEDIUM_CITY', 00H
	ORG $+1
$SG226481 DB	'AICITYSTRATEGY_LARGE_CITY', 00H
	ORG $+2
$SG226484 DB	'AICITYSTRATEGY_LANDLOCKED', 00H
	ORG $+2
$SG226487 DB	'AICITYSTRATEGY_NEED_TILE_IMPROVERS', 00H
	ORG $+1
$SG226490 DB	'AICITYSTRATEGY_WANT_TILE_IMPROVERS', 00H
	ORG $+1
$SG226493 DB	'AICITYSTRATEGY_ENOUGH_TILE_IMPROVERS', 00H
	ORG $+3
$SG226496 DB	'AICITYSTRATEGY_NEED_NAVAL_GROWTH', 00H
	ORG $+3
$SG226499 DB	'AICITYSTRATEGY_NEED_NAVAL_TILE_IMPROVEMENT', 00H
	ORG $+1
$SG226502 DB	'AICITYSTRATEGY_ENOUGH_NAVAL_TILE_IMPROVEMENT', 00H
	ORG $+3
$SG226505 DB	'AICITYSTRATEGY_NEED_IMPROVEMENT_FOOD', 00H
	ORG $+3
$SG226508 DB	'AICITYSTRATEGY_NEED_IMPROVEMENT_PRODUCTION', 00H
	ORG $+1
$SG226511 DB	'AICITYSTRATEGY_HAVE_TRAINING_FACILITY', 00H
	ORG $+2
$SG226514 DB	'AICITYSTRATEGY_CAPITAL_NEED_SETTLER', 00H
$SG226517 DB	'AICITYSTRATEGY_CAPITAL_UNDER_THREAT', 00H
$SG226520 DB	'AICITYSTRATEGY_FIRST_CULTURE_BUILDING_EMERGENCY', 00H
$SG226523 DB	'AICITYSTRATEGY_FIRST_CULTURE_BUILDING', 00H
	ORG $+2
$SG226526 DB	'AICITYSTRATEGY_FIRST_SCIENCE_BUILDING', 00H
	ORG $+2
$SG226529 DB	'AICITYSTRATEGY_FIRST_GOLD_BUILDING', 00H
	ORG $+1
$SG226532 DB	'AICITYSTRATEGY_FIRST_FAITH_BUILDING', 00H
$SG226535 DB	'AICITYSTRATEGY_FIRST_PRODUCTION_BUILDING', 00H
	ORG $+3
$SG226538 DB	'AICITYSTRATEGY_UNDER_BLOCKADE', 00H
	ORG $+2
$SG226541 DB	'AICITYSTRATEGY_IS_PUPPET', 00H
	ORG $+3
$SG226544 DB	'AICITYSTRATEGY_MEDIUM_CITY_HIGH_DIFFICULTY', 00H
	ORG $+1
$SG226547 DB	'AICITYSTRATEGY_ORIGINAL_CAPITAL', 00H
$SG226550 DB	'AICITYSTRATEGY_RIVER_CITY', 00H
	ORG $+2
$SG226553 DB	'AICITYSTRATEGY_MOUNTAIN_CITY', 00H
	ORG $+3
$SG226556 DB	'AICITYSTRATEGY_FOREST_CITY', 00H
	ORG $+1
$SG226559 DB	'AICITYSTRATEGY_HILL_CITY', 00H
	ORG $+3
$SG226562 DB	'AICITYSTRATEGY_JUNGLE_CITY', 00H
	ORG $+1
$SG226565 DB	'AICITYSTRATEGY_COAST_CITY', 00H
	ORG $+2
$SG226568 DB	'AICITYSTRATEGY_MANY_TECHS_STOLEN', 00H
	ORG $+3
$SG226571 DB	'AICITYSTRATEGY_KEY_SCIENCE_CITY', 00H
$SG226574 DB	'AICITYSTRATEGY_GOOD_GP_CITY', 00H
$SG226577 DB	'AICITYSTRATEGY_NEED_INTERNATIONAL_LAND_TRADE_ROUTE', 00H
	ORG $+1
$SG226580 DB	'AICITYSTRATEGY_NO_NEED_INTERNATIONAL_LAND_TRADE_ROUTE', 00H
	ORG $+2
$SG226583 DB	'AICITYSTRATEGY_NEED_INTERNATIONAL_SEA_TRADE_ROUTE', 00H
	ORG $+2
$SG226586 DB	'AICITYSTRATEGY_NO_NEED_INTERNATIONAL_SEA_TRADE_ROUTE', 00H
	ORG $+3
$SG226589 DB	'AICITYSTRATEGY_INTERNATIONAL_TRADE_DESTINATION', 00H
	ORG $+1
$SG226592 DB	'AICITYSTRATEGY_INTERNATIONAL_TRADE_ORIGIN', 00H
	ORG $+2
$SG226595 DB	'AICITYSTRATEGY_NEED_CULTURE_BUILDING', 00H
	ORG $+3
$SG226598 DB	'AICITYSTRATEGY_NEED_TOURISM_BUILDING', 00H
	ORG $+3
$SG226601 DB	'AICITYSTRATEGY_GOOD_AIRLIFT_CITY', 00H
	ORG $+3
$SG226607 DB	'CityStrategyCanActivate', 00H
$SG226744 DB	'CITYSPECIALIZATION_SETTLER_PUMP', 00H
$SG226746 DB	'CITYSPECIALIZATION_COMMERCE', 00H
$SG226810 DB	'%03d, ', 00H
	ORG $+1
$SG226814 DB	', ', 00H
	ORG $+1
$SG226815 DB	', ', 00H
	ORG $+1
$SG226817 DB	'Pop rushed: %s, Spent: %d, Available: %d, Turns Saved: %'
	DB	'd', 00H
	ORG $+2
$SG226819 DB	'Gold rushed: %s, Spent: %d, Available: %d, Turns Saved: '
	DB	'%d', 00H
	ORG $+1
$SG226844 DB	'%03d, ', 00H
	ORG $+1
$SG226848 DB	', ', 00H
	ORG $+1
$SG226849 DB	', ', 00H
	ORG $+1
$SG226856 DB	'Flavor, %s, %d', 00H
	ORG $+1
$SG226859 DB	'Flavor, %s, %d', 00H
	ORG $+1
$SG226874 DB	'%03d, ', 00H
	ORG $+1
$SG226878 DB	', ', 00H
	ORG $+1
$SG226879 DB	', ', 00H
	ORG $+1
$SG226883 DB	'%s, %d', 00H
	ORG $+1
$SG226897 DB	'%03d, ', 00H
	ORG $+1
$SG226901 DB	', ', 00H
	ORG $+1
$SG226902 DB	', ', 00H
	ORG $+1
$SG226915 DB	'Building, %s, %d, %d', 00H
	ORG $+3
$SG226919 DB	'Unit, %s, %d, %d', 00H
	ORG $+3
$SG226923 DB	'Project, %s, %d, %d', 00H
$SG226928 DB	'Process, %s, %d, %d', 00H
$SG226932 DB	'Operation unit, %s, %d, %d', 00H
	ORG $+1
$SG226936 DB	'Army unit, %s, %d, %d', 00H
	ORG $+2
$SG226953 DB	'%03d, ', 00H
	ORG $+1
$SG226957 DB	', ', 00H
	ORG $+1
$SG226958 DB	', ', 00H
	ORG $+1
$SG226977 DB	'SEED: %d, CHOSEN: %s, Rush if possible, TURNS: %d', 00H
	ORG $+2
$SG226979 DB	'SEED: %d, CHOSEN: %s, Do not rush, TURNS: %d', 00H
	ORG $+3
$SG226992 DB	'%03d, ', 00H
	ORG $+1
$SG226996 DB	', ', 00H
	ORG $+1
$SG226997 DB	', ', 00H
	ORG $+1
$SG227003 DB	'Unknown', 00H
$SG227005 DB	'General Economy', 00H
$SG227010 DB	'NEW SPECIALIZATION: Yield Type = ', 00H
	ORG $+2
$SG227075 DB	'MILITARYAISTRATEGY_ERADICATE_BARBARIANS', 00H
$SG227149 DB	'AICITYSTRATEGY_NEED_TILE_IMPROVERS', 00H
	ORG $+1
$SG227202 DB	'AICITYSTRATEGY_NEED_NAVAL_TILE_IMPROVEMENT', 00H
	ORG $+1
$SG227227 DB	'AICITYSTRATEGY_CAPITAL_UNDER_THREAT', 00H
$SG227232 DB	'MILITARYAISTRATEGY_WAR_MOBILIZATION', 00H
$SG227278 DB	'FLAVOR_RELIGION', 00H
$SG227392 DB	'FLAVOR_ESPIONAGE', 00H
	ORG $+3
$SG227420 DB	'FLAVOR_ESPIONAGE', 00H
	ORG $+3
$SG227446 DB	'UNITCLASS_SCIENTIST', 00H
$SG227450 DB	'UNITCLASS_WRITER', 00H
	ORG $+3
$SG227454 DB	'UNITCLASS_ARTIST', 00H
	ORG $+3
$SG227458 DB	'UNITCLASS_MUSICIAN', 00H
	ORG $+1
$SG227464 DB	'UNITCLASS_MERCHANT', 00H
	ORG $+1
$SG227468 DB	'UNITCLASS_ENGINEER', 00H
CONST	ENDS
;	COMDAT ?NO_TURN@CvMinorCivQuest@@2HB
CONST	SEGMENT
?NO_TURN@CvMinorCivQuest@@2HB DD 0ffffffffH		; CvMinorCivQuest::NO_TURN
CONST	ENDS
;	COMDAT ?NO_QUEST_DATA@CvMinorCivQuest@@2HB
CONST	SEGMENT
?NO_QUEST_DATA@CvMinorCivQuest@@2HB DD 0ffffffffH	; CvMinorCivQuest::NO_QUEST_DATA
CONST	ENDS
PUBLIC	?wrapCoordDifference@@YAHHI_N@Z			; wrapCoordDifference
; Function compile flags: /Ogtpy
; File c:\users\enormousapplepie\desktop\lekmod files\lekmod dll versions\v29\lekmod_dll\cvgamecoredll_expansion2\cvgamecoreutils.h
;	COMDAT ?wrapCoordDifference@@YAHHI_N@Z
_TEXT	SEGMENT
_iDiff$ = 8						; size = 4
_uiRange$ = 12						; size = 4
_bWrap$ = 16						; size = 1
?wrapCoordDifference@@YAHHI_N@Z PROC			; wrapCoordDifference, COMDAT

; 57   : 	if(bWrap)

	cmp	BYTE PTR _bWrap$[esp-4], 0
	mov	eax, DWORD PTR _iDiff$[esp-4]
	je	SHORT $LN5@wrapCoordD

; 58   : 	{
; 59   : 		if(iDiff > (int)(uiRange >> 1))		// Using an unsigned int so we can safely assume that value >> 1 == value / 2

	mov	edx, DWORD PTR _uiRange$[esp-4]
	mov	ecx, edx
	shr	ecx, 1
	cmp	eax, ecx
	jle	SHORT $LN3@wrapCoordD

; 60   : 		{
; 61   : 			return (iDiff - (int)uiRange);

	sub	eax, edx

; 66   : 		}
; 67   : 	}
; 68   : 
; 69   : 	return iDiff;
; 70   : }

	ret	0
$LN3@wrapCoordD:

; 62   : 		}
; 63   : 		else if(iDiff < -(int)(uiRange >> 1))

	neg	ecx
	cmp	eax, ecx
	jge	SHORT $LN5@wrapCoordD

; 64   : 		{
; 65   : 			return (iDiff + (int)uiRange);

	add	eax, edx
$LN5@wrapCoordD:

; 66   : 		}
; 67   : 	}
; 68   : 
; 69   : 	return iDiff;
; 70   : }

	ret	0
?wrapCoordDifference@@YAHHI_N@Z ENDP			; wrapCoordDifference
_TEXT	ENDS
PUBLIC	?xToHexspaceX@@YAHHH@Z				; xToHexspaceX
; Function compile flags: /Ogtpy
;	COMDAT ?xToHexspaceX@@YAHHH@Z
_TEXT	SEGMENT
_iX$ = 8						; size = 4
_iY$ = 12						; size = 4
?xToHexspaceX@@YAHHH@Z PROC				; xToHexspaceX, COMDAT

; 86   : 	return iX - ((iY >= 0) ? (iY>>1) : ((iY - 1)/2));

	mov	ecx, DWORD PTR _iY$[esp-4]
	test	ecx, ecx
	jge	SHORT $LN5@xToHexspac
	lea	eax, DWORD PTR [ecx-1]
	cdq
	sub	eax, edx
	mov	ecx, eax
$LN5@xToHexspac:
	mov	eax, DWORD PTR _iX$[esp-4]
	sar	ecx, 1
	sub	eax, ecx

; 87   : }

	ret	0
?xToHexspaceX@@YAHHH@Z ENDP				; xToHexspaceX
_TEXT	ENDS
PUBLIC	?hexspaceXToX@@YAHHH@Z				; hexspaceXToX
; Function compile flags: /Ogtpy
;	COMDAT ?hexspaceXToX@@YAHHH@Z
_TEXT	SEGMENT
_iHexspaceX$ = 8					; size = 4
_iHexspaceY$ = 12					; size = 4
?hexspaceXToX@@YAHHH@Z PROC				; hexspaceXToX, COMDAT

; 91   : 	return iHexspaceX + ((iHexspaceY >= 0) ? (iHexspaceY>>1) : ((iHexspaceY - 1)/2));

	mov	eax, DWORD PTR _iHexspaceY$[esp-4]
	test	eax, eax
	jl	SHORT $LN3@hexspaceXT
	mov	ecx, DWORD PTR _iHexspaceX$[esp-4]
	sar	eax, 1
	add	eax, ecx

; 92   : }

	ret	0
$LN3@hexspaceXT:

; 91   : 	return iHexspaceX + ((iHexspaceY >= 0) ? (iHexspaceY>>1) : ((iHexspaceY - 1)/2));

	dec	eax
	cdq
	sub	eax, edx
	mov	edx, DWORD PTR _iHexspaceX$[esp-4]
	sar	eax, 1
	add	eax, edx

; 92   : }

	ret	0
?hexspaceXToX@@YAHHH@Z ENDP				; hexspaceXToX
_TEXT	ENDS
PUBLIC	?GetMinimumSettleFertility@CvEconomicAI@@QBEHXZ	; CvEconomicAI::GetMinimumSettleFertility
; Function compile flags: /Ogtpy
; File c:\users\enormousapplepie\desktop\lekmod files\lekmod dll versions\v29\lekmod_dll\cvgamecoredll_expansion2\cveconomicai.h
;	COMDAT ?GetMinimumSettleFertility@CvEconomicAI@@QBEHXZ
_TEXT	SEGMENT
?GetMinimumSettleFertility@CvEconomicAI@@QBEHXZ PROC	; CvEconomicAI::GetMinimumSettleFertility, COMDAT
; _this$ = ecx

; 211  : 		return m_iMinimumSettleFertility;

	mov	eax, DWORD PTR [ecx+48]

; 212  : 	};

	ret	0
?GetMinimumSettleFertility@CvEconomicAI@@QBEHXZ ENDP	; CvEconomicAI::GetMinimumSettleFertility
_TEXT	ENDS
PUBLIC	?GetLastTurnWorkerDisbanded@CvEconomicAI@@QBEHXZ ; CvEconomicAI::GetLastTurnWorkerDisbanded
; Function compile flags: /Ogtpy
;	COMDAT ?GetLastTurnWorkerDisbanded@CvEconomicAI@@QBEHXZ
_TEXT	SEGMENT
?GetLastTurnWorkerDisbanded@CvEconomicAI@@QBEHXZ PROC	; CvEconomicAI::GetLastTurnWorkerDisbanded, COMDAT
; _this$ = ecx

; 232  : 		return m_iLastTurnWorkerDisbanded;

	mov	eax, DWORD PTR [ecx+40]

; 233  : 	};

	ret	0
?GetLastTurnWorkerDisbanded@CvEconomicAI@@QBEHXZ ENDP	; CvEconomicAI::GetLastTurnWorkerDisbanded
_TEXT	ENDS
PUBLIC	?GetNumberOfTimesOpsBuildSkippedOver@CvMilitaryAI@@QBEHXZ ; CvMilitaryAI::GetNumberOfTimesOpsBuildSkippedOver
; Function compile flags: /Ogtpy
; File c:\users\enormousapplepie\desktop\lekmod files\lekmod dll versions\v29\lekmod_dll\cvgamecoredll_expansion2\cvmilitaryai.h
;	COMDAT ?GetNumberOfTimesOpsBuildSkippedOver@CvMilitaryAI@@QBEHXZ
_TEXT	SEGMENT
?GetNumberOfTimesOpsBuildSkippedOver@CvMilitaryAI@@QBEHXZ PROC ; CvMilitaryAI::GetNumberOfTimesOpsBuildSkippedOver, COMDAT
; _this$ = ecx

; 264  : 		return m_iNumberOfTimesOpsBuildSkippedOver;

	mov	eax, DWORD PTR [ecx+48]

; 265  : 	}

	ret	0
?GetNumberOfTimesOpsBuildSkippedOver@CvMilitaryAI@@QBEHXZ ENDP ; CvMilitaryAI::GetNumberOfTimesOpsBuildSkippedOver
_TEXT	ENDS
PUBLIC	?BumpNumberOfTimesOpsBuildSkippedOver@CvMilitaryAI@@QAEXXZ ; CvMilitaryAI::BumpNumberOfTimesOpsBuildSkippedOver
; Function compile flags: /Ogtpy
;	COMDAT ?BumpNumberOfTimesOpsBuildSkippedOver@CvMilitaryAI@@QAEXXZ
_TEXT	SEGMENT
?BumpNumberOfTimesOpsBuildSkippedOver@CvMilitaryAI@@QAEXXZ PROC ; CvMilitaryAI::BumpNumberOfTimesOpsBuildSkippedOver, COMDAT
; _this$ = ecx

; 268  : 		++m_iNumberOfTimesOpsBuildSkippedOver;

	inc	DWORD PTR [ecx+48]

; 269  : 	}

	ret	0
?BumpNumberOfTimesOpsBuildSkippedOver@CvMilitaryAI@@QAEXXZ ENDP ; CvMilitaryAI::BumpNumberOfTimesOpsBuildSkippedOver
_TEXT	ENDS
PUBLIC	?ResetNumberOfTimesOpsBuildSkippedOver@CvMilitaryAI@@QAEXXZ ; CvMilitaryAI::ResetNumberOfTimesOpsBuildSkippedOver
; Function compile flags: /Ogtpy
;	COMDAT ?ResetNumberOfTimesOpsBuildSkippedOver@CvMilitaryAI@@QAEXXZ
_TEXT	SEGMENT
?ResetNumberOfTimesOpsBuildSkippedOver@CvMilitaryAI@@QAEXXZ PROC ; CvMilitaryAI::ResetNumberOfTimesOpsBuildSkippedOver, COMDAT
; _this$ = ecx

; 272  : 		m_iNumberOfTimesOpsBuildSkippedOver = 0;

	mov	DWORD PTR [ecx+48], 0

; 273  : 	}

	ret	0
?ResetNumberOfTimesOpsBuildSkippedOver@CvMilitaryAI@@QAEXXZ ENDP ; CvMilitaryAI::ResetNumberOfTimesOpsBuildSkippedOver
_TEXT	ENDS
PUBLIC	?GetFlavorValue@CvAICityStrategyEntry@@QBEHH@Z	; CvAICityStrategyEntry::GetFlavorValue
; Function compile flags: /Ogtpy
; File c:\users\enormousapplepie\desktop\lekmod files\lekmod dll versions\v29\lekmod_dll\cvgamecoredll_expansion2\cvcitystrategyai.cpp
;	COMDAT ?GetFlavorValue@CvAICityStrategyEntry@@QBEHH@Z
_TEXT	SEGMENT
_i$ = 8							; size = 4
?GetFlavorValue@CvAICityStrategyEntry@@QBEHH@Z PROC	; CvAICityStrategyEntry::GetFlavorValue, COMDAT
; _this$ = ecx

; 109  : 	CvAssertMsg(i < GC.getNumFlavorTypes(), "Index out of bounds");
; 110  : 	CvAssertMsg(i > -1, "Index out of bounds");
; 111  : 	return m_piFlavorValue ? m_piFlavorValue[i] : -1;

	mov	eax, DWORD PTR [ecx+260]
	test	eax, eax
	je	SHORT $LN3@GetFlavorV
	mov	ecx, DWORD PTR _i$[esp-4]
	mov	eax, DWORD PTR [eax+ecx*4]

; 112  : }

	ret	4
$LN3@GetFlavorV:

; 109  : 	CvAssertMsg(i < GC.getNumFlavorTypes(), "Index out of bounds");
; 110  : 	CvAssertMsg(i > -1, "Index out of bounds");
; 111  : 	return m_piFlavorValue ? m_piFlavorValue[i] : -1;

	or	eax, -1

; 112  : }

	ret	4
?GetFlavorValue@CvAICityStrategyEntry@@QBEHH@Z ENDP	; CvAICityStrategyEntry::GetFlavorValue
_TEXT	ENDS
PUBLIC	?GetWeightThreshold@CvAICityStrategyEntry@@QBEHXZ ; CvAICityStrategyEntry::GetWeightThreshold
; Function compile flags: /Ogtpy
;	COMDAT ?GetWeightThreshold@CvAICityStrategyEntry@@QBEHXZ
_TEXT	SEGMENT
?GetWeightThreshold@CvAICityStrategyEntry@@QBEHXZ PROC	; CvAICityStrategyEntry::GetWeightThreshold, COMDAT
; _this$ = ecx

; 117  : 	return m_iWeightThreshold;

	mov	eax, DWORD PTR [ecx+264]

; 118  : }

	ret	0
?GetWeightThreshold@CvAICityStrategyEntry@@QBEHXZ ENDP	; CvAICityStrategyEntry::GetWeightThreshold
_TEXT	ENDS
PUBLIC	?GetPersonalityFlavorThresholdMod@CvAICityStrategyEntry@@QBEHH@Z ; CvAICityStrategyEntry::GetPersonalityFlavorThresholdMod
; Function compile flags: /Ogtpy
;	COMDAT ?GetPersonalityFlavorThresholdMod@CvAICityStrategyEntry@@QBEHH@Z
_TEXT	SEGMENT
_i$ = 8							; size = 4
?GetPersonalityFlavorThresholdMod@CvAICityStrategyEntry@@QBEHH@Z PROC ; CvAICityStrategyEntry::GetPersonalityFlavorThresholdMod, COMDAT
; _this$ = ecx

; 123  : 	CvAssertMsg(i < GC.getNumFlavorTypes(), "Index out of bounds");
; 124  : 	CvAssertMsg(i > -1, "Index out of bounds");
; 125  : 	return m_piPersonalityFlavorThresholdMod ? m_piPersonalityFlavorThresholdMod[i] : -1;

	mov	eax, DWORD PTR [ecx+268]
	test	eax, eax
	je	SHORT $LN3@GetPersona
	mov	ecx, DWORD PTR _i$[esp-4]
	mov	eax, DWORD PTR [eax+ecx*4]

; 126  : }

	ret	4
$LN3@GetPersona:

; 123  : 	CvAssertMsg(i < GC.getNumFlavorTypes(), "Index out of bounds");
; 124  : 	CvAssertMsg(i > -1, "Index out of bounds");
; 125  : 	return m_piPersonalityFlavorThresholdMod ? m_piPersonalityFlavorThresholdMod[i] : -1;

	or	eax, -1

; 126  : }

	ret	4
?GetPersonalityFlavorThresholdMod@CvAICityStrategyEntry@@QBEHH@Z ENDP ; CvAICityStrategyEntry::GetPersonalityFlavorThresholdMod
_TEXT	ENDS
PUBLIC	?GetTechPrereq@CvAICityStrategyEntry@@QBEHXZ	; CvAICityStrategyEntry::GetTechPrereq
; Function compile flags: /Ogtpy
;	COMDAT ?GetTechPrereq@CvAICityStrategyEntry@@QBEHXZ
_TEXT	SEGMENT
?GetTechPrereq@CvAICityStrategyEntry@@QBEHXZ PROC	; CvAICityStrategyEntry::GetTechPrereq, COMDAT
; _this$ = ecx

; 131  : 	return m_iTechPrereq;

	mov	eax, DWORD PTR [ecx+272]

; 132  : }

	ret	0
?GetTechPrereq@CvAICityStrategyEntry@@QBEHXZ ENDP	; CvAICityStrategyEntry::GetTechPrereq
_TEXT	ENDS
PUBLIC	?GetTechObsolete@CvAICityStrategyEntry@@QBEHXZ	; CvAICityStrategyEntry::GetTechObsolete
; Function compile flags: /Ogtpy
;	COMDAT ?GetTechObsolete@CvAICityStrategyEntry@@QBEHXZ
_TEXT	SEGMENT
?GetTechObsolete@CvAICityStrategyEntry@@QBEHXZ PROC	; CvAICityStrategyEntry::GetTechObsolete, COMDAT
; _this$ = ecx

; 137  : 	return m_iTechObsolete;

	mov	eax, DWORD PTR [ecx+276]

; 138  : }

	ret	0
?GetTechObsolete@CvAICityStrategyEntry@@QBEHXZ ENDP	; CvAICityStrategyEntry::GetTechObsolete
_TEXT	ENDS
PUBLIC	?GetMinimumNumTurnsExecuted@CvAICityStrategyEntry@@QBEHXZ ; CvAICityStrategyEntry::GetMinimumNumTurnsExecuted
; Function compile flags: /Ogtpy
;	COMDAT ?GetMinimumNumTurnsExecuted@CvAICityStrategyEntry@@QBEHXZ
_TEXT	SEGMENT
?GetMinimumNumTurnsExecuted@CvAICityStrategyEntry@@QBEHXZ PROC ; CvAICityStrategyEntry::GetMinimumNumTurnsExecuted, COMDAT
; _this$ = ecx

; 143  : 	return m_iMinimumNumTurnsExecuted;

	mov	eax, DWORD PTR [ecx+280]

; 144  : }

	ret	0
?GetMinimumNumTurnsExecuted@CvAICityStrategyEntry@@QBEHXZ ENDP ; CvAICityStrategyEntry::GetMinimumNumTurnsExecuted
_TEXT	ENDS
PUBLIC	?GetCheckTriggerTurnCount@CvAICityStrategyEntry@@QBEHXZ ; CvAICityStrategyEntry::GetCheckTriggerTurnCount
; Function compile flags: /Ogtpy
;	COMDAT ?GetCheckTriggerTurnCount@CvAICityStrategyEntry@@QBEHXZ
_TEXT	SEGMENT
?GetCheckTriggerTurnCount@CvAICityStrategyEntry@@QBEHXZ PROC ; CvAICityStrategyEntry::GetCheckTriggerTurnCount, COMDAT
; _this$ = ecx

; 149  : 	return m_iCheckTriggerTurnCount;

	mov	eax, DWORD PTR [ecx+284]

; 150  : }

	ret	0
?GetCheckTriggerTurnCount@CvAICityStrategyEntry@@QBEHXZ ENDP ; CvAICityStrategyEntry::GetCheckTriggerTurnCount
_TEXT	ENDS
PUBLIC	?IsNoMinorCivs@CvAICityStrategyEntry@@QBE_NXZ	; CvAICityStrategyEntry::IsNoMinorCivs
; Function compile flags: /Ogtpy
;	COMDAT ?IsNoMinorCivs@CvAICityStrategyEntry@@QBE_NXZ
_TEXT	SEGMENT
?IsNoMinorCivs@CvAICityStrategyEntry@@QBE_NXZ PROC	; CvAICityStrategyEntry::IsNoMinorCivs, COMDAT
; _this$ = ecx

; 155  : 	return m_bNoMinorCivs;

	mov	al, BYTE PTR [ecx+288]

; 156  : }

	ret	0
?IsNoMinorCivs@CvAICityStrategyEntry@@QBE_NXZ ENDP	; CvAICityStrategyEntry::IsNoMinorCivs
_TEXT	ENDS
PUBLIC	?IsPermanent@CvAICityStrategyEntry@@QBE_NXZ	; CvAICityStrategyEntry::IsPermanent
; Function compile flags: /Ogtpy
;	COMDAT ?IsPermanent@CvAICityStrategyEntry@@QBE_NXZ
_TEXT	SEGMENT
?IsPermanent@CvAICityStrategyEntry@@QBE_NXZ PROC	; CvAICityStrategyEntry::IsPermanent, COMDAT
; _this$ = ecx

; 161  : 	return m_bPermanent;

	mov	al, BYTE PTR [ecx+289]

; 162  : }

	ret	0
?IsPermanent@CvAICityStrategyEntry@@QBE_NXZ ENDP	; CvAICityStrategyEntry::IsPermanent
_TEXT	ENDS
PUBLIC	?GetAdvisor@CvAICityStrategyEntry@@QBE?AW4AdvisorTypes@@XZ ; CvAICityStrategyEntry::GetAdvisor
; Function compile flags: /Ogtpy
;	COMDAT ?GetAdvisor@CvAICityStrategyEntry@@QBE?AW4AdvisorTypes@@XZ
_TEXT	SEGMENT
?GetAdvisor@CvAICityStrategyEntry@@QBE?AW4AdvisorTypes@@XZ PROC ; CvAICityStrategyEntry::GetAdvisor, COMDAT
; _this$ = ecx

; 166  : 	return m_eAdvisor;

	mov	eax, DWORD PTR [ecx+292]

; 167  : }

	ret	0
?GetAdvisor@CvAICityStrategyEntry@@QBE?AW4AdvisorTypes@@XZ ENDP ; CvAICityStrategyEntry::GetAdvisor
_TEXT	ENDS
PUBLIC	?GetAdvisorCounselText@CvAICityStrategyEntry@@QBEPBDXZ ; CvAICityStrategyEntry::GetAdvisorCounselText
EXTRN	__imp_?c_str@?$basic_string@DU?$char_traits@D@std@@V?$allocator@D@2@@std@@QBEPBDXZ:PROC
; Function compile flags: /Ogtpy
;	COMDAT ?GetAdvisorCounselText@CvAICityStrategyEntry@@QBEPBDXZ
_TEXT	SEGMENT
?GetAdvisorCounselText@CvAICityStrategyEntry@@QBEPBDXZ PROC ; CvAICityStrategyEntry::GetAdvisorCounselText, COMDAT
; _this$ = ecx

; 171  : 	return m_strAdvisorCounselText.c_str();

	add	ecx, 296				; 00000128H
	jmp	DWORD PTR __imp_?c_str@?$basic_string@DU?$char_traits@D@std@@V?$allocator@D@2@@std@@QBEPBDXZ
?GetAdvisorCounselText@CvAICityStrategyEntry@@QBEPBDXZ ENDP ; CvAICityStrategyEntry::GetAdvisorCounselText
_TEXT	ENDS
PUBLIC	?GetAdvisorCounselImportance@CvAICityStrategyEntry@@QBEHXZ ; CvAICityStrategyEntry::GetAdvisorCounselImportance
; Function compile flags: /Ogtpy
;	COMDAT ?GetAdvisorCounselImportance@CvAICityStrategyEntry@@QBEHXZ
_TEXT	SEGMENT
?GetAdvisorCounselImportance@CvAICityStrategyEntry@@QBEHXZ PROC ; CvAICityStrategyEntry::GetAdvisorCounselImportance, COMDAT
; _this$ = ecx

; 176  : 	return m_iAdvisorCounselImportance;

	mov	eax, DWORD PTR [ecx+324]

; 177  : }

	ret	0
?GetAdvisorCounselImportance@CvAICityStrategyEntry@@QBEHXZ ENDP ; CvAICityStrategyEntry::GetAdvisorCounselImportance
_TEXT	ENDS
PUBLIC	?GetAICityStrategyEntries@CvAICityStrategies@@QAEAAV?$vector@PAVCvAICityStrategyEntry@@V?$allocator@PAVCvAICityStrategyEntry@@@std@@@std@@XZ ; CvAICityStrategies::GetAICityStrategyEntries
; Function compile flags: /Ogtpy
;	COMDAT ?GetAICityStrategyEntries@CvAICityStrategies@@QAEAAV?$vector@PAVCvAICityStrategyEntry@@V?$allocator@PAVCvAICityStrategyEntry@@@std@@@std@@XZ
_TEXT	SEGMENT
?GetAICityStrategyEntries@CvAICityStrategies@@QAEAAV?$vector@PAVCvAICityStrategyEntry@@V?$allocator@PAVCvAICityStrategyEntry@@@std@@@std@@XZ PROC ; CvAICityStrategies::GetAICityStrategyEntries, COMDAT
; _this$ = ecx

; 198  : {

	mov	eax, ecx

; 199  : 	return m_paAICityStrategyEntries;
; 200  : }

	ret	0
?GetAICityStrategyEntries@CvAICityStrategies@@QAEAAV?$vector@PAVCvAICityStrategyEntry@@V?$allocator@PAVCvAICityStrategyEntry@@@std@@@std@@XZ ENDP ; CvAICityStrategies::GetAICityStrategyEntries
_TEXT	ENDS
PUBLIC	??_7bad_alloc@std@@6B@				; std::bad_alloc::`vftable'
PUBLIC	??0bad_alloc@std@@QAE@PBD@Z			; std::bad_alloc::bad_alloc
PUBLIC	??_R4bad_alloc@std@@6B@				; std::bad_alloc::`RTTI Complete Object Locator'
PUBLIC	??_R0?AVbad_alloc@std@@@8			; std::bad_alloc `RTTI Type Descriptor'
PUBLIC	??_R3bad_alloc@std@@8				; std::bad_alloc::`RTTI Class Hierarchy Descriptor'
PUBLIC	??_R2bad_alloc@std@@8				; std::bad_alloc::`RTTI Base Class Array'
PUBLIC	??_R1A@?0A@EA@bad_alloc@std@@8			; std::bad_alloc::`RTTI Base Class Descriptor at (0,-1,0,64)'
PUBLIC	??_R1A@?0A@EA@exception@std@@8			; std::exception::`RTTI Base Class Descriptor at (0,-1,0,64)'
PUBLIC	??_R0?AVexception@std@@@8			; std::exception `RTTI Type Descriptor'
PUBLIC	??_R3exception@std@@8				; std::exception::`RTTI Class Hierarchy Descriptor'
PUBLIC	??_R2exception@std@@8				; std::exception::`RTTI Base Class Array'
EXTRN	__imp_??0exception@std@@QAE@ABQBD@Z:PROC
EXTRN	??_7type_info@@6B@:QWORD			; type_info::`vftable'
EXTRN	??_Ebad_alloc@std@@UAEPAXI@Z:PROC		; std::bad_alloc::`vector deleting destructor'
EXTRN	?what@exception@std@@UBEPBDXZ:PROC		; std::exception::what
;	COMDAT ??_R2exception@std@@8
; File c:\program files (x86)\microsoft visual studio 9.0\vc\include\exception
rdata$r	SEGMENT
??_R2exception@std@@8 DD FLAT:??_R1A@?0A@EA@exception@std@@8 ; std::exception::`RTTI Base Class Array'
rdata$r	ENDS
;	COMDAT ??_R3exception@std@@8
rdata$r	SEGMENT
??_R3exception@std@@8 DD 00H				; std::exception::`RTTI Class Hierarchy Descriptor'
	DD	00H
	DD	01H
	DD	FLAT:??_R2exception@std@@8
rdata$r	ENDS
;	COMDAT ??_R0?AVexception@std@@@8
_DATA	SEGMENT
??_R0?AVexception@std@@@8 DD FLAT:??_7type_info@@6B@	; std::exception `RTTI Type Descriptor'
	DD	00H
	DB	'.?AVexception@std@@', 00H
_DATA	ENDS
;	COMDAT ??_R1A@?0A@EA@exception@std@@8
rdata$r	SEGMENT
??_R1A@?0A@EA@exception@std@@8 DD FLAT:??_R0?AVexception@std@@@8 ; std::exception::`RTTI Base Class Descriptor at (0,-1,0,64)'
	DD	00H
	DD	00H
	DD	0ffffffffH
	DD	00H
	DD	040H
	DD	FLAT:??_R3exception@std@@8
rdata$r	ENDS
;	COMDAT ??_R1A@?0A@EA@bad_alloc@std@@8
rdata$r	SEGMENT
??_R1A@?0A@EA@bad_alloc@std@@8 DD FLAT:??_R0?AVbad_alloc@std@@@8 ; std::bad_alloc::`RTTI Base Class Descriptor at (0,-1,0,64)'
	DD	01H
	DD	00H
	DD	0ffffffffH
	DD	00H
	DD	040H
	DD	FLAT:??_R3bad_alloc@std@@8
rdata$r	ENDS
;	COMDAT ??_R2bad_alloc@std@@8
rdata$r	SEGMENT
??_R2bad_alloc@std@@8 DD FLAT:??_R1A@?0A@EA@bad_alloc@std@@8 ; std::bad_alloc::`RTTI Base Class Array'
	DD	FLAT:??_R1A@?0A@EA@exception@std@@8
rdata$r	ENDS
;	COMDAT ??_R3bad_alloc@std@@8
rdata$r	SEGMENT
??_R3bad_alloc@std@@8 DD 00H				; std::bad_alloc::`RTTI Class Hierarchy Descriptor'
	DD	00H
	DD	02H
	DD	FLAT:??_R2bad_alloc@std@@8
rdata$r	ENDS
;	COMDAT ??_R0?AVbad_alloc@std@@@8
_DATA	SEGMENT
??_R0?AVbad_alloc@std@@@8 DD FLAT:??_7type_info@@6B@	; std::bad_alloc `RTTI Type Descriptor'
	DD	00H
	DB	'.?AVbad_alloc@std@@', 00H
_DATA	ENDS
;	COMDAT ??_R4bad_alloc@std@@6B@
rdata$r	SEGMENT
??_R4bad_alloc@std@@6B@ DD 00H				; std::bad_alloc::`RTTI Complete Object Locator'
	DD	00H
	DD	00H
	DD	FLAT:??_R0?AVbad_alloc@std@@@8
	DD	FLAT:??_R3bad_alloc@std@@8
rdata$r	ENDS
;	COMDAT ??_7bad_alloc@std@@6B@
CONST	SEGMENT
??_7bad_alloc@std@@6B@ DD FLAT:??_R4bad_alloc@std@@6B@	; std::bad_alloc::`vftable'
	DD	FLAT:??_Ebad_alloc@std@@UAEPAXI@Z
	DD	FLAT:?what@exception@std@@UBEPBDXZ
; Function compile flags: /Ogtpy
CONST	ENDS
;	COMDAT ??0bad_alloc@std@@QAE@PBD@Z
_TEXT	SEGMENT
__Message$ = 8						; size = 4
??0bad_alloc@std@@QAE@PBD@Z PROC			; std::bad_alloc::bad_alloc, COMDAT
; _this$ = ecx

; 371  : 		{	// construct from message string

	push	esi
	lea	eax, DWORD PTR __Message$[esp]
	push	eax
	mov	esi, ecx
	call	DWORD PTR __imp_??0exception@std@@QAE@ABQBD@Z
	mov	DWORD PTR [esi], OFFSET ??_7bad_alloc@std@@6B@

; 372  : 		}

	mov	eax, esi
	pop	esi
	ret	4
??0bad_alloc@std@@QAE@PBD@Z ENDP			; std::bad_alloc::bad_alloc
_TEXT	ENDS
PUBLIC	??1bad_alloc@std@@UAE@XZ			; std::bad_alloc::~bad_alloc
EXTRN	__imp_??1exception@std@@UAE@XZ:PROC
; Function compile flags: /Ogtpy
;	COMDAT ??1bad_alloc@std@@UAE@XZ
_TEXT	SEGMENT
??1bad_alloc@std@@UAE@XZ PROC				; std::bad_alloc::~bad_alloc, COMDAT
; _this$ = ecx

; 380  : 		{	// destroy the object

	mov	DWORD PTR [ecx], OFFSET ??_7bad_alloc@std@@6B@

; 381  : 		}

	jmp	DWORD PTR __imp_??1exception@std@@UAE@XZ
??1bad_alloc@std@@UAE@XZ ENDP				; std::bad_alloc::~bad_alloc
_TEXT	ENDS
EXTRN	??3@YAXPAX@Z:PROC				; operator delete
; Function compile flags: /Ogtpy
;	COMDAT ??_Gbad_alloc@std@@UAEPAXI@Z
_TEXT	SEGMENT
___flags$ = 8						; size = 4
??_Gbad_alloc@std@@UAEPAXI@Z PROC			; std::bad_alloc::`scalar deleting destructor', COMDAT
; _this$ = ecx
	push	esi
	mov	esi, ecx
	mov	DWORD PTR [esi], OFFSET ??_7bad_alloc@std@@6B@
	call	DWORD PTR __imp_??1exception@std@@UAE@XZ
	test	BYTE PTR ___flags$[esp], 1
	je	SHORT $LN6@scalar
	push	esi
	call	??3@YAXPAX@Z				; operator delete
	add	esp, 4
$LN6@scalar:
	mov	eax, esi
	pop	esi
	ret	4
??_Gbad_alloc@std@@UAEPAXI@Z ENDP			; std::bad_alloc::`scalar deleting destructor'
_TEXT	ENDS
PUBLIC	??2@YAPAXIPAX@Z					; operator new
; Function compile flags: /Ogtpy
; File c:\program files (x86)\microsoft visual studio 9.0\vc\include\new
;	COMDAT ??2@YAPAXIPAX@Z
_TEXT	SEGMENT
___formal$ = 8						; size = 4
__Where$ = 12						; size = 4
??2@YAPAXIPAX@Z PROC					; operator new, COMDAT

; 59   : 	return (_Where);

	mov	eax, DWORD PTR __Where$[esp-4]

; 60   : 	}

	ret	0
??2@YAPAXIPAX@Z ENDP					; operator new
_TEXT	ENDS
PUBLIC	??3@YAXPAX0@Z					; operator delete
; Function compile flags: /Ogtpy
;	COMDAT ??3@YAXPAX0@Z
_TEXT	SEGMENT
___formal$ = 8						; size = 4
___formal$ = 12						; size = 4
??3@YAXPAX0@Z PROC					; operator delete, COMDAT

; 64   : 	}

	ret	0
??3@YAXPAX0@Z ENDP					; operator delete
_TEXT	ENDS
PUBLIC	?SetDefaultSpecialization@CvCityStrategyAI@@QAE_NW4CitySpecializationTypes@@@Z ; CvCityStrategyAI::SetDefaultSpecialization
; Function compile flags: /Ogtpy
; File c:\users\enormousapplepie\desktop\lekmod files\lekmod dll versions\v29\lekmod_dll\cvgamecoredll_expansion2\cvcitystrategyai.cpp
;	COMDAT ?SetDefaultSpecialization@CvCityStrategyAI@@QAE_NW4CitySpecializationTypes@@@Z
_TEXT	SEGMENT
_eDefaultSpecialization$ = 8				; size = 4
?SetDefaultSpecialization@CvCityStrategyAI@@QAE_NW4CitySpecializationTypes@@@Z PROC ; CvCityStrategyAI::SetDefaultSpecialization, COMDAT
; _this$ = ecx

; 503  : 	if(eDefaultSpecialization != m_eDefaultSpecialization)

	mov	eax, DWORD PTR _eDefaultSpecialization$[esp-4]
	cmp	eax, DWORD PTR [ecx+24]
	je	SHORT $LN1@SetDefault

; 504  : 	{
; 505  : 		m_eDefaultSpecialization = eDefaultSpecialization;

	mov	DWORD PTR [ecx+24], eax

; 506  : 		return true;

	mov	al, 1

; 510  : }

	ret	4
$LN1@SetDefault:

; 507  : 	}
; 508  : 
; 509  : 	return false;

	xor	al, al

; 510  : }

	ret	4
?SetDefaultSpecialization@CvCityStrategyAI@@QAE_NW4CitySpecializationTypes@@@Z ENDP ; CvCityStrategyAI::SetDefaultSpecialization
_TEXT	ENDS
PUBLIC	?GetCity@CvCityStrategyAI@@QAEPAVCvCity@@XZ	; CvCityStrategyAI::GetCity
; Function compile flags: /Ogtpy
;	COMDAT ?GetCity@CvCityStrategyAI@@QAEPAVCvCity@@XZ
_TEXT	SEGMENT
?GetCity@CvCityStrategyAI@@QAEPAVCvCity@@XZ PROC	; CvCityStrategyAI::GetCity, COMDAT
; _this$ = ecx

; 552  : 	return m_pCity;

	mov	eax, DWORD PTR [ecx+12]

; 553  : }

	ret	0
?GetCity@CvCityStrategyAI@@QAEPAVCvCity@@XZ ENDP	; CvCityStrategyAI::GetCity
_TEXT	ENDS
PUBLIC	?GetAICityStrategies@CvCityStrategyAI@@QAEPAVCvAICityStrategies@@XZ ; CvCityStrategyAI::GetAICityStrategies
; Function compile flags: /Ogtpy
;	COMDAT ?GetAICityStrategies@CvCityStrategyAI@@QAEPAVCvAICityStrategies@@XZ
_TEXT	SEGMENT
?GetAICityStrategies@CvCityStrategyAI@@QAEPAVCvAICityStrategies@@XZ PROC ; CvCityStrategyAI::GetAICityStrategies, COMDAT
; _this$ = ecx

; 558  : 	return m_pAICityStrategies;

	mov	eax, DWORD PTR [ecx+16]

; 559  : }

	ret	0
?GetAICityStrategies@CvCityStrategyAI@@QAEPAVCvAICityStrategies@@XZ ENDP ; CvCityStrategyAI::GetAICityStrategies
_TEXT	ENDS
PUBLIC	?IsUsingCityStrategy@CvCityStrategyAI@@QAE_NW4AICityStrategyTypes@@@Z ; CvCityStrategyAI::IsUsingCityStrategy
; Function compile flags: /Ogtpy
;	COMDAT ?IsUsingCityStrategy@CvCityStrategyAI@@QAE_NW4AICityStrategyTypes@@@Z
_TEXT	SEGMENT
_eStrategy$ = 8						; size = 4
?IsUsingCityStrategy@CvCityStrategyAI@@QAE_NW4AICityStrategyTypes@@@Z PROC ; CvCityStrategyAI::IsUsingCityStrategy, COMDAT
; _this$ = ecx

; 564  : 	return m_pabUsingCityStrategy[(int) eStrategy];

	mov	eax, DWORD PTR [ecx+28]
	mov	ecx, DWORD PTR _eStrategy$[esp-4]
	mov	al, BYTE PTR [ecx+eax]

; 565  : }

	ret	4
?IsUsingCityStrategy@CvCityStrategyAI@@QAE_NW4AICityStrategyTypes@@@Z ENDP ; CvCityStrategyAI::IsUsingCityStrategy
_TEXT	ENDS
PUBLIC	?GetTurnCityStrategyAdopted@CvCityStrategyAI@@QAEHW4AICityStrategyTypes@@@Z ; CvCityStrategyAI::GetTurnCityStrategyAdopted
; Function compile flags: /Ogtpy
;	COMDAT ?GetTurnCityStrategyAdopted@CvCityStrategyAI@@QAEHW4AICityStrategyTypes@@@Z
_TEXT	SEGMENT
_eStrategy$ = 8						; size = 4
?GetTurnCityStrategyAdopted@CvCityStrategyAI@@QAEHW4AICityStrategyTypes@@@Z PROC ; CvCityStrategyAI::GetTurnCityStrategyAdopted, COMDAT
; _this$ = ecx

; 590  : 	return m_paiTurnCityStrategyAdopted[(int) eStrategy];

	mov	eax, DWORD PTR [ecx+32]
	mov	ecx, DWORD PTR _eStrategy$[esp-4]
	mov	eax, DWORD PTR [eax+ecx*4]

; 591  : }

	ret	4
?GetTurnCityStrategyAdopted@CvCityStrategyAI@@QAEHW4AICityStrategyTypes@@@Z ENDP ; CvCityStrategyAI::GetTurnCityStrategyAdopted
_TEXT	ENDS
PUBLIC	??_7logic_error@std@@6B@			; std::logic_error::`vftable'
PUBLIC	??0logic_error@std@@QAE@ABV?$basic_string@DU?$char_traits@D@std@@V?$allocator@D@2@@1@@Z ; std::logic_error::logic_error
PUBLIC	??_R4logic_error@std@@6B@			; std::logic_error::`RTTI Complete Object Locator'
PUBLIC	??_R0?AVlogic_error@std@@@8			; std::logic_error `RTTI Type Descriptor'
PUBLIC	??_R3logic_error@std@@8				; std::logic_error::`RTTI Class Hierarchy Descriptor'
PUBLIC	??_R2logic_error@std@@8				; std::logic_error::`RTTI Base Class Array'
PUBLIC	??_R1A@?0A@EA@logic_error@std@@8		; std::logic_error::`RTTI Base Class Descriptor at (0,-1,0,64)'
PUBLIC	?what@logic_error@std@@UBEPBDXZ			; std::logic_error::what
EXTRN	__imp_??0?$basic_string@DU?$char_traits@D@std@@V?$allocator@D@2@@std@@QAE@ABV01@@Z:PROC
EXTRN	__imp_??0exception@std@@QAE@XZ:PROC
EXTRN	___CxxFrameHandler3:PROC
EXTRN	??_Elogic_error@std@@UAEPAXI@Z:PROC		; std::logic_error::`vector deleting destructor'
;	COMDAT ??_R1A@?0A@EA@logic_error@std@@8
; File c:\program files (x86)\microsoft visual studio 9.0\vc\include\stdexcept
rdata$r	SEGMENT
??_R1A@?0A@EA@logic_error@std@@8 DD FLAT:??_R0?AVlogic_error@std@@@8 ; std::logic_error::`RTTI Base Class Descriptor at (0,-1,0,64)'
	DD	01H
	DD	00H
	DD	0ffffffffH
	DD	00H
	DD	040H
	DD	FLAT:??_R3logic_error@std@@8
rdata$r	ENDS
;	COMDAT ??_R2logic_error@std@@8
rdata$r	SEGMENT
??_R2logic_error@std@@8 DD FLAT:??_R1A@?0A@EA@logic_error@std@@8 ; std::logic_error::`RTTI Base Class Array'
	DD	FLAT:??_R1A@?0A@EA@exception@std@@8
rdata$r	ENDS
;	COMDAT ??_R3logic_error@std@@8
rdata$r	SEGMENT
??_R3logic_error@std@@8 DD 00H				; std::logic_error::`RTTI Class Hierarchy Descriptor'
	DD	00H
	DD	02H
	DD	FLAT:??_R2logic_error@std@@8
rdata$r	ENDS
;	COMDAT ??_R0?AVlogic_error@std@@@8
_DATA	SEGMENT
??_R0?AVlogic_error@std@@@8 DD FLAT:??_7type_info@@6B@	; std::logic_error `RTTI Type Descriptor'
	DD	00H
	DB	'.?AVlogic_error@std@@', 00H
_DATA	ENDS
;	COMDAT ??_R4logic_error@std@@6B@
rdata$r	SEGMENT
??_R4logic_error@std@@6B@ DD 00H			; std::logic_error::`RTTI Complete Object Locator'
	DD	00H
	DD	00H
	DD	FLAT:??_R0?AVlogic_error@std@@@8
	DD	FLAT:??_R3logic_error@std@@8
rdata$r	ENDS
;	COMDAT ??_7logic_error@std@@6B@
CONST	SEGMENT
??_7logic_error@std@@6B@ DD FLAT:??_R4logic_error@std@@6B@ ; std::logic_error::`vftable'
	DD	FLAT:??_Elogic_error@std@@UAEPAXI@Z
	DD	FLAT:?what@logic_error@std@@UBEPBDXZ
CONST	ENDS
;	COMDAT xdata$x
xdata$x	SEGMENT
__unwindtable$??0logic_error@std@@QAE@ABV?$basic_string@DU?$char_traits@D@std@@V?$allocator@D@2@@1@@Z DD 0ffffffffH
	DD	FLAT:__unwindfunclet$??0logic_error@std@@QAE@ABV?$basic_string@DU?$char_traits@D@std@@V?$allocator@D@2@@1@@Z$0
__ehfuncinfo$??0logic_error@std@@QAE@ABV?$basic_string@DU?$char_traits@D@std@@V?$allocator@D@2@@1@@Z DD 019930522H
	DD	01H
	DD	FLAT:__unwindtable$??0logic_error@std@@QAE@ABV?$basic_string@DU?$char_traits@D@std@@V?$allocator@D@2@@1@@Z
	DD	2 DUP(00H)
	DD	2 DUP(00H)
	DD	00H
	DD	01H
; Function compile flags: /Ogtpy
xdata$x	ENDS
;	COMDAT ??0logic_error@std@@QAE@ABV?$basic_string@DU?$char_traits@D@std@@V?$allocator@D@2@@1@@Z
_TEXT	SEGMENT
_this$ = -16						; size = 4
__$EHRec$ = -12						; size = 12
__Message$ = 8						; size = 4
??0logic_error@std@@QAE@ABV?$basic_string@DU?$char_traits@D@std@@V?$allocator@D@2@@1@@Z PROC ; std::logic_error::logic_error, COMDAT
; _this$ = ecx

; 26   : 		{	// construct from message string

	push	-1
	push	__ehhandler$??0logic_error@std@@QAE@ABV?$basic_string@DU?$char_traits@D@std@@V?$allocator@D@2@@1@@Z
	mov	eax, DWORD PTR fs:0
	push	eax
	mov	DWORD PTR fs:0, esp
	push	ecx
	push	esi
	mov	esi, ecx
	mov	DWORD PTR _this$[esp+20], esi
	call	DWORD PTR __imp_??0exception@std@@QAE@XZ
	mov	eax, DWORD PTR __Message$[esp+16]
	push	eax
	lea	ecx, DWORD PTR [esi+12]
	mov	DWORD PTR __$EHRec$[esp+32], 0
	mov	DWORD PTR [esi], OFFSET ??_7logic_error@std@@6B@
	call	DWORD PTR __imp_??0?$basic_string@DU?$char_traits@D@std@@V?$allocator@D@2@@std@@QAE@ABV01@@Z

; 27   : 		}

	mov	ecx, DWORD PTR __$EHRec$[esp+20]
	mov	eax, esi
	pop	esi
	mov	DWORD PTR fs:0, ecx
	add	esp, 16					; 00000010H
	ret	4
_TEXT	ENDS
;	COMDAT text$x
text$x	SEGMENT
__unwindfunclet$??0logic_error@std@@QAE@ABV?$basic_string@DU?$char_traits@D@std@@V?$allocator@D@2@@1@@Z$0:
	mov	ecx, DWORD PTR _this$[ebp]
	jmp	DWORD PTR __imp_??1exception@std@@UAE@XZ
__ehhandler$??0logic_error@std@@QAE@ABV?$basic_string@DU?$char_traits@D@std@@V?$allocator@D@2@@1@@Z:
	mov	eax, OFFSET __ehfuncinfo$??0logic_error@std@@QAE@ABV?$basic_string@DU?$char_traits@D@std@@V?$allocator@D@2@@1@@Z
	jmp	___CxxFrameHandler3
text$x	ENDS
??0logic_error@std@@QAE@ABV?$basic_string@DU?$char_traits@D@std@@V?$allocator@D@2@@1@@Z ENDP ; std::logic_error::logic_error
PUBLIC	?SetTurnCityStrategyAdopted@CvCityStrategyAI@@QAEXW4AICityStrategyTypes@@H@Z ; CvCityStrategyAI::SetTurnCityStrategyAdopted
; Function compile flags: /Ogtpy
; File c:\users\enormousapplepie\desktop\lekmod files\lekmod dll versions\v29\lekmod_dll\cvgamecoredll_expansion2\cvcitystrategyai.cpp
;	COMDAT ?SetTurnCityStrategyAdopted@CvCityStrategyAI@@QAEXW4AICityStrategyTypes@@H@Z
_TEXT	SEGMENT
_eStrategy$ = 8						; size = 4
_iValue$ = 12						; size = 4
?SetTurnCityStrategyAdopted@CvCityStrategyAI@@QAEXW4AICityStrategyTypes@@H@Z PROC ; CvCityStrategyAI::SetTurnCityStrategyAdopted, COMDAT
; _this$ = ecx

; 596  : 	if(m_paiTurnCityStrategyAdopted[(int) eStrategy] != iValue)

	mov	eax, DWORD PTR [ecx+32]
	mov	ecx, DWORD PTR _eStrategy$[esp-4]
	lea	eax, DWORD PTR [eax+ecx*4]
	mov	ecx, DWORD PTR _iValue$[esp-4]
	cmp	DWORD PTR [eax], ecx
	je	SHORT $LN1@SetTurnCit

; 597  : 	{
; 598  : 		m_paiTurnCityStrategyAdopted[(int) eStrategy] = iValue;

	mov	DWORD PTR [eax], ecx
$LN1@SetTurnCit:

; 599  : 	}
; 600  : }

	ret	8
?SetTurnCityStrategyAdopted@CvCityStrategyAI@@QAEXW4AICityStrategyTypes@@H@Z ENDP ; CvCityStrategyAI::SetTurnCityStrategyAdopted
_TEXT	ENDS
PUBLIC	?GetBuildingProductionAI@CvCityStrategyAI@@QAEPAVCvBuildingProductionAI@@XZ ; CvCityStrategyAI::GetBuildingProductionAI
; Function compile flags: /Ogtpy
;	COMDAT ?GetBuildingProductionAI@CvCityStrategyAI@@QAEPAVCvBuildingProductionAI@@XZ
_TEXT	SEGMENT
?GetBuildingProductionAI@CvCityStrategyAI@@QAEPAVCvBuildingProductionAI@@XZ PROC ; CvCityStrategyAI::GetBuildingProductionAI, COMDAT
; _this$ = ecx

; 605  : 	return m_pBuildingProductionAI;

	mov	eax, DWORD PTR [ecx+40]

; 606  : }

	ret	0
?GetBuildingProductionAI@CvCityStrategyAI@@QAEPAVCvBuildingProductionAI@@XZ ENDP ; CvCityStrategyAI::GetBuildingProductionAI
_TEXT	ENDS
PUBLIC	??1logic_error@std@@UAE@XZ			; std::logic_error::~logic_error
EXTRN	__imp_??1?$basic_string@DU?$char_traits@D@std@@V?$allocator@D@2@@std@@QAE@XZ:PROC
; Function compile flags: /Ogtpy
; File c:\program files (x86)\microsoft visual studio 9.0\vc\include\stdexcept
;	COMDAT ??1logic_error@std@@UAE@XZ
_TEXT	SEGMENT
??1logic_error@std@@UAE@XZ PROC				; std::logic_error::~logic_error, COMDAT
; _this$ = ecx

; 30   : 		{	// destroy the object

	push	esi
	mov	esi, ecx

; 31   : 		}

	lea	ecx, DWORD PTR [esi+12]
	mov	DWORD PTR [esi], OFFSET ??_7logic_error@std@@6B@
	call	DWORD PTR __imp_??1?$basic_string@DU?$char_traits@D@std@@V?$allocator@D@2@@std@@QAE@XZ
	mov	ecx, esi
	pop	esi
	jmp	DWORD PTR __imp_??1exception@std@@UAE@XZ
??1logic_error@std@@UAE@XZ ENDP				; std::logic_error::~logic_error
_TEXT	ENDS
PUBLIC	?GetUnitProductionAI@CvCityStrategyAI@@QAEPAVCvUnitProductionAI@@XZ ; CvCityStrategyAI::GetUnitProductionAI
; Function compile flags: /Ogtpy
; File c:\users\enormousapplepie\desktop\lekmod files\lekmod dll versions\v29\lekmod_dll\cvgamecoredll_expansion2\cvcitystrategyai.cpp
;	COMDAT ?GetUnitProductionAI@CvCityStrategyAI@@QAEPAVCvUnitProductionAI@@XZ
_TEXT	SEGMENT
?GetUnitProductionAI@CvCityStrategyAI@@QAEPAVCvUnitProductionAI@@XZ PROC ; CvCityStrategyAI::GetUnitProductionAI, COMDAT
; _this$ = ecx

; 611  : 	return m_pUnitProductionAI;

	mov	eax, DWORD PTR [ecx+44]

; 612  : }

	ret	0
?GetUnitProductionAI@CvCityStrategyAI@@QAEPAVCvUnitProductionAI@@XZ ENDP ; CvCityStrategyAI::GetUnitProductionAI
_TEXT	ENDS
PUBLIC	?GetProjectProductionAI@CvCityStrategyAI@@QAEPAVCvProjectProductionAI@@XZ ; CvCityStrategyAI::GetProjectProductionAI
; Function compile flags: /Ogtpy
;	COMDAT ?GetProjectProductionAI@CvCityStrategyAI@@QAEPAVCvProjectProductionAI@@XZ
_TEXT	SEGMENT
?GetProjectProductionAI@CvCityStrategyAI@@QAEPAVCvProjectProductionAI@@XZ PROC ; CvCityStrategyAI::GetProjectProductionAI, COMDAT
; _this$ = ecx

; 617  : 	return m_pProjectProductionAI;

	mov	eax, DWORD PTR [ecx+48]

; 618  : }

	ret	0
?GetProjectProductionAI@CvCityStrategyAI@@QAEPAVCvProjectProductionAI@@XZ ENDP ; CvCityStrategyAI::GetProjectProductionAI
; Function compile flags: /Ogtpy
; File c:\program files (x86)\microsoft visual studio 9.0\vc\include\stdexcept
_TEXT	ENDS
;	COMDAT ?what@logic_error@std@@UBEPBDXZ
_TEXT	SEGMENT
?what@logic_error@std@@UBEPBDXZ PROC			; std::logic_error::what, COMDAT
; _this$ = ecx

; 35   : 		return (_Str.c_str());

	add	ecx, 12					; 0000000cH
	jmp	DWORD PTR __imp_?c_str@?$basic_string@DU?$char_traits@D@std@@V?$allocator@D@2@@std@@QBEPBDXZ
?what@logic_error@std@@UBEPBDXZ ENDP			; std::logic_error::what
; Function compile flags: /Ogtpy
_TEXT	ENDS
;	COMDAT ??_Glogic_error@std@@UAEPAXI@Z
_TEXT	SEGMENT
___flags$ = 8						; size = 4
??_Glogic_error@std@@UAEPAXI@Z PROC			; std::logic_error::`scalar deleting destructor', COMDAT
; _this$ = ecx
	push	esi
	mov	esi, ecx
	lea	ecx, DWORD PTR [esi+12]
	mov	DWORD PTR [esi], OFFSET ??_7logic_error@std@@6B@
	call	DWORD PTR __imp_??1?$basic_string@DU?$char_traits@D@std@@V?$allocator@D@2@@std@@QAE@XZ
	mov	ecx, esi
	call	DWORD PTR __imp_??1exception@std@@UAE@XZ
	test	BYTE PTR ___flags$[esp], 1
	je	SHORT $LN6@scalar@2
	push	esi
	call	??3@YAXPAX@Z				; operator delete
	add	esp, 4
$LN6@scalar@2:
	mov	eax, esi
	pop	esi
	ret	4
??_Glogic_error@std@@UAEPAXI@Z ENDP			; std::logic_error::`scalar deleting destructor'
_TEXT	ENDS
PUBLIC	?GetProcessProductionAI@CvCityStrategyAI@@QAEPAVCvProcessProductionAI@@XZ ; CvCityStrategyAI::GetProcessProductionAI
; Function compile flags: /Ogtpy
; File c:\users\enormousapplepie\desktop\lekmod files\lekmod dll versions\v29\lekmod_dll\cvgamecoredll_expansion2\cvcitystrategyai.cpp
;	COMDAT ?GetProcessProductionAI@CvCityStrategyAI@@QAEPAVCvProcessProductionAI@@XZ
_TEXT	SEGMENT
?GetProcessProductionAI@CvCityStrategyAI@@QAEPAVCvProcessProductionAI@@XZ PROC ; CvCityStrategyAI::GetProcessProductionAI, COMDAT
; _this$ = ecx

; 622  : 	return m_pProcessProductionAI;

	mov	eax, DWORD PTR [ecx+52]

; 623  : }

	ret	0
?GetProcessProductionAI@CvCityStrategyAI@@QAEPAVCvProcessProductionAI@@XZ ENDP ; CvCityStrategyAI::GetProcessProductionAI
_TEXT	ENDS
PUBLIC	__real@3fe0000000000000
PUBLIC	__real@0000000000000000
EXTRN	__imp__ceil:PROC
EXTRN	__imp__floor:PROC
EXTRN	__fltused:DWORD
;	COMDAT __real@3fe0000000000000
CONST	SEGMENT
__real@3fe0000000000000 DQ 03fe0000000000000r	; 0.5
CONST	ENDS
;	COMDAT __real@0000000000000000
CONST	SEGMENT
__real@0000000000000000 DQ 00000000000000000r	; 0
; Function compile flags: /Ogtpy
CONST	ENDS
;	COMDAT ?citystrategyround@@YANN@Z
_TEXT	SEGMENT
$T230979 = 8						; size = 8
_x$ = 8							; size = 8
?citystrategyround@@YANN@Z PROC				; citystrategyround, COMDAT

; 646  : 	return (x >= 0) ? floor(x + .5) : ceil(x - .5);

	fldz
	sub	esp, 8
	fld	QWORD PTR _x$[esp+4]
	fcom	ST(1)
	fnstsw	ax
	fstp	ST(1)
	test	ah, 1
	jne	SHORT $LN3@citystrate
	fadd	QWORD PTR __real@3fe0000000000000
	fstp	QWORD PTR [esp]
	call	DWORD PTR __imp__floor
	fstp	QWORD PTR $T230979[esp+4]
	add	esp, 8
	fld	QWORD PTR $T230979[esp-4]

; 647  : };

	ret	0
$LN3@citystrate:

; 646  : 	return (x >= 0) ? floor(x + .5) : ceil(x - .5);

	fsub	QWORD PTR __real@3fe0000000000000
	fstp	QWORD PTR [esp]
	call	DWORD PTR __imp__ceil
	fstp	QWORD PTR $T230979[esp+4]
	add	esp, 8
	fld	QWORD PTR $T230979[esp-4]

; 647  : };

	ret	0
?citystrategyround@@YANN@Z ENDP				; citystrategyround
_TEXT	ENDS
PUBLIC	??_7length_error@std@@6B@			; std::length_error::`vftable'
PUBLIC	??0length_error@std@@QAE@ABV?$basic_string@DU?$char_traits@D@std@@V?$allocator@D@2@@1@@Z ; std::length_error::length_error
PUBLIC	??_R4length_error@std@@6B@			; std::length_error::`RTTI Complete Object Locator'
PUBLIC	??_R0?AVlength_error@std@@@8			; std::length_error `RTTI Type Descriptor'
PUBLIC	??_R3length_error@std@@8			; std::length_error::`RTTI Class Hierarchy Descriptor'
PUBLIC	??_R2length_error@std@@8			; std::length_error::`RTTI Base Class Array'
PUBLIC	??_R1A@?0A@EA@length_error@std@@8		; std::length_error::`RTTI Base Class Descriptor at (0,-1,0,64)'
EXTRN	??_Elength_error@std@@UAEPAXI@Z:PROC		; std::length_error::`vector deleting destructor'
;	COMDAT ??_R1A@?0A@EA@length_error@std@@8
; File c:\program files (x86)\microsoft visual studio 9.0\vc\include\stdexcept
rdata$r	SEGMENT
??_R1A@?0A@EA@length_error@std@@8 DD FLAT:??_R0?AVlength_error@std@@@8 ; std::length_error::`RTTI Base Class Descriptor at (0,-1,0,64)'
	DD	02H
	DD	00H
	DD	0ffffffffH
	DD	00H
	DD	040H
	DD	FLAT:??_R3length_error@std@@8
rdata$r	ENDS
;	COMDAT ??_R2length_error@std@@8
rdata$r	SEGMENT
??_R2length_error@std@@8 DD FLAT:??_R1A@?0A@EA@length_error@std@@8 ; std::length_error::`RTTI Base Class Array'
	DD	FLAT:??_R1A@?0A@EA@logic_error@std@@8
	DD	FLAT:??_R1A@?0A@EA@exception@std@@8
rdata$r	ENDS
;	COMDAT ??_R3length_error@std@@8
rdata$r	SEGMENT
??_R3length_error@std@@8 DD 00H				; std::length_error::`RTTI Class Hierarchy Descriptor'
	DD	00H
	DD	03H
	DD	FLAT:??_R2length_error@std@@8
rdata$r	ENDS
;	COMDAT ??_R0?AVlength_error@std@@@8
_DATA	SEGMENT
??_R0?AVlength_error@std@@@8 DD FLAT:??_7type_info@@6B@	; std::length_error `RTTI Type Descriptor'
	DD	00H
	DB	'.?AVlength_error@std@@', 00H
_DATA	ENDS
;	COMDAT ??_R4length_error@std@@6B@
rdata$r	SEGMENT
??_R4length_error@std@@6B@ DD 00H			; std::length_error::`RTTI Complete Object Locator'
	DD	00H
	DD	00H
	DD	FLAT:??_R0?AVlength_error@std@@@8
	DD	FLAT:??_R3length_error@std@@8
rdata$r	ENDS
;	COMDAT ??_7length_error@std@@6B@
CONST	SEGMENT
??_7length_error@std@@6B@ DD FLAT:??_R4length_error@std@@6B@ ; std::length_error::`vftable'
	DD	FLAT:??_Elength_error@std@@UAEPAXI@Z
	DD	FLAT:?what@logic_error@std@@UBEPBDXZ
; Function compile flags: /Ogtpy
CONST	ENDS
;	COMDAT ??0length_error@std@@QAE@ABV?$basic_string@DU?$char_traits@D@std@@V?$allocator@D@2@@1@@Z
_TEXT	SEGMENT
__Message$ = 8						; size = 4
??0length_error@std@@QAE@ABV?$basic_string@DU?$char_traits@D@std@@V?$allocator@D@2@@1@@Z PROC ; std::length_error::length_error, COMDAT
; _this$ = ecx

; 105  : 		{	// construct from message string

	mov	eax, DWORD PTR __Message$[esp-4]
	push	esi
	push	eax
	mov	esi, ecx
	call	??0logic_error@std@@QAE@ABV?$basic_string@DU?$char_traits@D@std@@V?$allocator@D@2@@1@@Z ; std::logic_error::logic_error
	mov	DWORD PTR [esi], OFFSET ??_7length_error@std@@6B@

; 106  : 		}

	mov	eax, esi
	pop	esi
	ret	4
??0length_error@std@@QAE@ABV?$basic_string@DU?$char_traits@D@std@@V?$allocator@D@2@@1@@Z ENDP ; std::length_error::length_error
_TEXT	ENDS
PUBLIC	??1length_error@std@@UAE@XZ			; std::length_error::~length_error
; Function compile flags: /Ogtpy
;	COMDAT ??1length_error@std@@UAE@XZ
_TEXT	SEGMENT
??1length_error@std@@UAE@XZ PROC			; std::length_error::~length_error, COMDAT
; _this$ = ecx

; 109  : 		{	// destroy the object

	push	esi
	mov	esi, ecx

; 110  : 		}

	lea	ecx, DWORD PTR [esi+12]
	mov	DWORD PTR [esi], OFFSET ??_7logic_error@std@@6B@
	call	DWORD PTR __imp_??1?$basic_string@DU?$char_traits@D@std@@V?$allocator@D@2@@std@@QAE@XZ
	mov	ecx, esi
	pop	esi
	jmp	DWORD PTR __imp_??1exception@std@@UAE@XZ
??1length_error@std@@UAE@XZ ENDP			; std::length_error::~length_error
; Function compile flags: /Ogtpy
_TEXT	ENDS
;	COMDAT ??_Glength_error@std@@UAEPAXI@Z
_TEXT	SEGMENT
___flags$ = 8						; size = 4
??_Glength_error@std@@UAEPAXI@Z PROC			; std::length_error::`scalar deleting destructor', COMDAT
; _this$ = ecx
	push	esi
	mov	esi, ecx
	lea	ecx, DWORD PTR [esi+12]
	mov	DWORD PTR [esi], OFFSET ??_7logic_error@std@@6B@
	call	DWORD PTR __imp_??1?$basic_string@DU?$char_traits@D@std@@V?$allocator@D@2@@std@@QAE@XZ
	mov	ecx, esi
	call	DWORD PTR __imp_??1exception@std@@UAE@XZ
	test	BYTE PTR ___flags$[esp], 1
	je	SHORT $LN8@scalar@3
	push	esi
	call	??3@YAXPAX@Z				; operator delete
	add	esp, 4
$LN8@scalar@3:
	mov	eax, esi
	pop	esi
	ret	4
??_Glength_error@std@@UAEPAXI@Z ENDP			; std::length_error::`scalar deleting destructor'
_TEXT	ENDS
PUBLIC	?ResetBestYields@CvCityStrategyAI@@QAEXXZ	; CvCityStrategyAI::ResetBestYields
; Function compile flags: /Ogtpy
; File c:\users\enormousapplepie\desktop\lekmod files\lekmod dll versions\v29\lekmod_dll\cvgamecoredll_expansion2\cvcitystrategyai.cpp
;	COMDAT ?ResetBestYields@CvCityStrategyAI@@QAEXXZ
_TEXT	SEGMENT
?ResetBestYields@CvCityStrategyAI@@QAEXXZ PROC		; CvCityStrategyAI::ResetBestYields, COMDAT
; _this$ = ecx

; 1518 : {

	push	esi

; 1519 : 	for(uint uiYields = 0; uiYields < NUM_YIELD_TYPES; uiYields++)

	mov	eax, OFFSET ?m_acBestYields@CvCityStrategyAI@@0PAY0CF@EA ; CvCityStrategyAI::m_acBestYields
	lea	edx, DWORD PTR [ecx+3672]
	mov	esi, 6
$LL6@ResetBestY:

; 1520 : 	{
; 1521 : 		for(uint uiPlots = 0; uiPlots < NUM_CITY_PLOTS - 1; uiPlots++)
; 1522 : 		{
; 1523 : 			m_acBestYields[uiYields][uiPlots] = MAX_UNSIGNED_CHAR;

	or	ecx, -1
	mov	DWORD PTR [eax], ecx
	mov	DWORD PTR [eax+4], ecx
	mov	DWORD PTR [eax+8], ecx
	mov	DWORD PTR [eax+12], ecx
	mov	DWORD PTR [eax+16], ecx
	mov	DWORD PTR [eax+20], ecx
	mov	DWORD PTR [eax+24], ecx
	mov	DWORD PTR [eax+28], ecx
	mov	DWORD PTR [eax+32], ecx

; 1524 : 		}
; 1525 : 
; 1526 : 		m_asBestYieldAverageTimes100[uiYields] = MAX_SHORT;

	mov	ecx, 32767				; 00007fffH
	mov	WORD PTR [edx], cx
	add	edx, 2
	add	eax, 37					; 00000025H
	sub	esi, 1
	jne	SHORT $LL6@ResetBestY
	pop	esi

; 1527 : 	}
; 1528 : }

	ret	0
?ResetBestYields@CvCityStrategyAI@@QAEXXZ ENDP		; CvCityStrategyAI::ResetBestYields
; Function compile flags: /Ogtpy
_TEXT	ENDS
;	COMDAT ??RReverseSort@?1??UpdateBestYields@CvCityStrategyAI@@QAEXXZ@QAE_NEE@Z
_TEXT	SEGMENT
_ucA$ = 8						; size = 1
??RReverseSort@?1??UpdateBestYields@CvCityStrategyAI@@QAEXXZ@QAE_NEE@Z PROC ; `CvCityStrategyAI::UpdateBestYields'::`2'::ReverseSort::operator(), COMDAT
; _ucB$ = eax

; 1544 : 			return ucA > ucB;

	cmp	al, BYTE PTR _ucA$[esp-4]
	sbb	eax, eax
	neg	eax

; 1545 : 		}

	ret	4
??RReverseSort@?1??UpdateBestYields@CvCityStrategyAI@@QAEXXZ@QAE_NEE@Z ENDP ; `CvCityStrategyAI::UpdateBestYields'::`2'::ReverseSort::operator()
_TEXT	ENDS
PUBLIC	?GetBestYieldAverageTimes100@CvCityStrategyAI@@QAEGW4YieldTypes@@@Z ; CvCityStrategyAI::GetBestYieldAverageTimes100
; Function compile flags: /Ogtpy
;	COMDAT ?GetBestYieldAverageTimes100@CvCityStrategyAI@@QAEGW4YieldTypes@@@Z
_TEXT	SEGMENT
_eYield$ = 8						; size = 4
?GetBestYieldAverageTimes100@CvCityStrategyAI@@QAEGW4YieldTypes@@@Z PROC ; CvCityStrategyAI::GetBestYieldAverageTimes100, COMDAT
; _this$ = ecx

; 1711 : 	return m_asBestYieldAverageTimes100[eYield];

	mov	eax, DWORD PTR _eYield$[esp-4]
	mov	ax, WORD PTR [ecx+eax*2+3672]

; 1712 : }

	ret	4
?GetBestYieldAverageTimes100@CvCityStrategyAI@@QAEGW4YieldTypes@@@Z ENDP ; CvCityStrategyAI::GetBestYieldAverageTimes100
_TEXT	ENDS
PUBLIC	?GetYieldDeltaTimes100@CvCityStrategyAI@@QAEFW4YieldTypes@@@Z ; CvCityStrategyAI::GetYieldDeltaTimes100
; Function compile flags: /Ogtpy
;	COMDAT ?GetYieldDeltaTimes100@CvCityStrategyAI@@QAEFW4YieldTypes@@@Z
_TEXT	SEGMENT
_eYield$ = 8						; size = 4
?GetYieldDeltaTimes100@CvCityStrategyAI@@QAEFW4YieldTypes@@@Z PROC ; CvCityStrategyAI::GetYieldDeltaTimes100, COMDAT
; _this$ = ecx

; 1720 : 	return m_asYieldDeltaTimes100[eYield];

	mov	eax, DWORD PTR _eYield$[esp-4]
	mov	ax, WORD PTR [ecx+eax*2+3684]

; 1721 : }

	ret	4
?GetYieldDeltaTimes100@CvCityStrategyAI@@QAEFW4YieldTypes@@@Z ENDP ; CvCityStrategyAI::GetYieldDeltaTimes100
_TEXT	ENDS
PUBLIC	?GetFocusYield@CvCityStrategyAI@@QAE?AW4YieldTypes@@XZ ; CvCityStrategyAI::GetFocusYield
; Function compile flags: /Ogtpy
;	COMDAT ?GetFocusYield@CvCityStrategyAI@@QAE?AW4YieldTypes@@XZ
_TEXT	SEGMENT
?GetFocusYield@CvCityStrategyAI@@QAE?AW4YieldTypes@@XZ PROC ; CvCityStrategyAI::GetFocusYield, COMDAT
; _this$ = ecx

; 1725 : 	return m_eFocusYield;

	mov	eax, DWORD PTR [ecx+3696]

; 1726 : }

	ret	0
?GetFocusYield@CvCityStrategyAI@@QAE?AW4YieldTypes@@XZ ENDP ; CvCityStrategyAI::GetFocusYield
_TEXT	ENDS
PUBLIC	?IsTestCityStrategy_Landlocked@CityStrategyAIHelpers@@YA_NPAVCvCity@@@Z ; CityStrategyAIHelpers::IsTestCityStrategy_Landlocked
EXTRN	?isCoastal@CvCity@@QBE_NH@Z:PROC		; CvCity::isCoastal
; Function compile flags: /Ogtpy
;	COMDAT ?IsTestCityStrategy_Landlocked@CityStrategyAIHelpers@@YA_NPAVCvCity@@@Z
_TEXT	SEGMENT
_pCity$ = 8						; size = 4
?IsTestCityStrategy_Landlocked@CityStrategyAIHelpers@@YA_NPAVCvCity@@@Z PROC ; CityStrategyAIHelpers::IsTestCityStrategy_Landlocked, COMDAT

; 2208 : 	// If this City isn't adjacent to a body of water big enough to be "Ocean" then we consider it landlocked
; 2209 : 	if(!pCity->isCoastal())

	mov	ecx, DWORD PTR _pCity$[esp-4]
	push	-1
	call	?isCoastal@CvCity@@QBE_NH@Z		; CvCity::isCoastal
	test	al, al
	sete	al

; 2210 : 	{
; 2211 : 		return true;
; 2212 : 	}
; 2213 : 
; 2214 : 	return false;
; 2215 : }

	ret	0
?IsTestCityStrategy_Landlocked@CityStrategyAIHelpers@@YA_NPAVCvCity@@@Z ENDP ; CityStrategyAIHelpers::IsTestCityStrategy_Landlocked
_TEXT	ENDS
PUBLIC	?IsTestCityStrategy_EnoughNavalTileImprovement@CityStrategyAIHelpers@@YA_NPAVCvCity@@@Z ; CityStrategyAIHelpers::IsTestCityStrategy_EnoughNavalTileImprovement
EXTRN	?GetCityStrategyAI@CvCity@@QBEPAVCvCityStrategyAI@@XZ:PROC ; CvCity::GetCityStrategyAI
EXTRN	?getInfoTypeForString@CvGlobals@@QBEHPBD_N@Z:PROC ; CvGlobals::getInfoTypeForString
EXTRN	?gGlobals@@3VCvGlobals@@A:BYTE			; gGlobals
; Function compile flags: /Ogtpy
;	COMDAT ?IsTestCityStrategy_EnoughNavalTileImprovement@CityStrategyAIHelpers@@YA_NPAVCvCity@@@Z
_TEXT	SEGMENT
_pCity$ = 8						; size = 4
?IsTestCityStrategy_EnoughNavalTileImprovement@CityStrategyAIHelpers@@YA_NPAVCvCity@@@Z PROC ; CityStrategyAIHelpers::IsTestCityStrategy_EnoughNavalTileImprovement, COMDAT

; 2624 : {

	push	esi

; 2625 : 	AICityStrategyTypes eStrategyNeedNavalTileImprovement = (AICityStrategyTypes) GC.getInfoTypeForString("AICITYSTRATEGY_NEED_NAVAL_TILE_IMPROVEMENT");

	push	0
	push	OFFSET $SG227202
	mov	ecx, OFFSET ?gGlobals@@3VCvGlobals@@A	; gGlobals
	call	?getInfoTypeForString@CvGlobals@@QBEHPBD_N@Z ; CvGlobals::getInfoTypeForString
	mov	esi, eax

; 2626 : 
; 2627 : #ifdef AUI_WARNING_FIXES
; 2628 : 	if (eStrategyNeedNavalTileImprovement != NO_AICITYSTRATEGY)
; 2629 : #else
; 2630 : 	if(eStrategyNeedNavalTileImprovement != NO_ECONOMICAISTRATEGY)

	cmp	esi, -1
	je	SHORT $LN1@IsTestCity

; 2631 : #endif
; 2632 : 	{
; 2633 : 		if(!pCity->GetCityStrategyAI()->IsUsingCityStrategy(eStrategyNeedNavalTileImprovement))

	mov	ecx, DWORD PTR _pCity$[esp]
	call	?GetCityStrategyAI@CvCity@@QBEPAVCvCityStrategyAI@@XZ ; CvCity::GetCityStrategyAI
	mov	eax, DWORD PTR [eax+28]
	cmp	BYTE PTR [esi+eax], 0
	jne	SHORT $LN1@IsTestCity

; 2634 : 		{
; 2635 : 			return true;

	mov	al, 1
	pop	esi

; 2640 : }

	ret	0
$LN1@IsTestCity:

; 2636 : 		}
; 2637 : 	}
; 2638 : 
; 2639 : 	return false;

	xor	al, al
	pop	esi

; 2640 : }

	ret	0
?IsTestCityStrategy_EnoughNavalTileImprovement@CityStrategyAIHelpers@@YA_NPAVCvCity@@@Z ENDP ; CityStrategyAIHelpers::IsTestCityStrategy_EnoughNavalTileImprovement
_TEXT	ENDS
PUBLIC	?IsTestCityStrategy_HaveTrainingFacility@CityStrategyAIHelpers@@YA_NPAVCvCity@@@Z ; CityStrategyAIHelpers::IsTestCityStrategy_HaveTrainingFacility
EXTRN	?getDomainFreeExperience@CvCity@@QBEHW4DomainTypes@@@Z:PROC ; CvCity::getDomainFreeExperience
; Function compile flags: /Ogtpy
;	COMDAT ?IsTestCityStrategy_HaveTrainingFacility@CityStrategyAIHelpers@@YA_NPAVCvCity@@@Z
_TEXT	SEGMENT
_pCity$ = 8						; size = 4
?IsTestCityStrategy_HaveTrainingFacility@CityStrategyAIHelpers@@YA_NPAVCvCity@@@Z PROC ; CityStrategyAIHelpers::IsTestCityStrategy_HaveTrainingFacility, COMDAT

; 2656 : 	if(pCity->getDomainFreeExperience(DOMAIN_LAND) > 0)

	mov	ecx, DWORD PTR _pCity$[esp-4]
	push	2
	call	?getDomainFreeExperience@CvCity@@QBEHW4DomainTypes@@@Z ; CvCity::getDomainFreeExperience
	test	eax, eax
	setg	al

; 2657 : 	{
; 2658 : 		return true;
; 2659 : 	}
; 2660 : 
; 2661 : 	return false;
; 2662 : }

	ret	0
?IsTestCityStrategy_HaveTrainingFacility@CityStrategyAIHelpers@@YA_NPAVCvCity@@@Z ENDP ; CityStrategyAIHelpers::IsTestCityStrategy_HaveTrainingFacility
_TEXT	ENDS
PUBLIC	?IsTestCityStrategy_FirstCultureBuilding@CityStrategyAIHelpers@@YA_NPAVCvCity@@@Z ; CityStrategyAIHelpers::IsTestCityStrategy_FirstCultureBuilding
EXTRN	?isCapital@CvCity@@QBE_NXZ:PROC			; CvCity::isCapital
EXTRN	?GetJONSCulturePerTurnFromBuildings@CvCity@@QBEHXZ:PROC ; CvCity::GetJONSCulturePerTurnFromBuildings
; Function compile flags: /Ogtpy
;	COMDAT ?IsTestCityStrategy_FirstCultureBuilding@CityStrategyAIHelpers@@YA_NPAVCvCity@@@Z
_TEXT	SEGMENT
_pCity$ = 8						; size = 4
?IsTestCityStrategy_FirstCultureBuilding@CityStrategyAIHelpers@@YA_NPAVCvCity@@@Z PROC ; CityStrategyAIHelpers::IsTestCityStrategy_FirstCultureBuilding, COMDAT

; 2738 : {

	push	esi

; 2739 : 	if(pCity->GetJONSCulturePerTurnFromBuildings() <= 0)

	mov	esi, DWORD PTR _pCity$[esp]
	mov	ecx, esi
	call	?GetJONSCulturePerTurnFromBuildings@CvCity@@QBEHXZ ; CvCity::GetJONSCulturePerTurnFromBuildings
	test	eax, eax
	jg	SHORT $LN2@IsTestCity@2
$LN5@IsTestCity@2:

; 2740 : 	{
; 2741 : 		return true;

	mov	al, 1
	pop	esi

; 2750 : }

	ret	0
$LN2@IsTestCity@2:

; 2742 : 	}
; 2743 : 
; 2744 : 	if(pCity->isCapital() && pCity->GetJONSCulturePerTurnFromBuildings() <= 1)

	mov	ecx, esi
	call	?isCapital@CvCity@@QBE_NXZ		; CvCity::isCapital
	test	al, al
	je	SHORT $LN1@IsTestCity@2
	mov	ecx, esi
	call	?GetJONSCulturePerTurnFromBuildings@CvCity@@QBEHXZ ; CvCity::GetJONSCulturePerTurnFromBuildings
	cmp	eax, 1

; 2745 : 	{
; 2746 : 		return true;

	jle	SHORT $LN5@IsTestCity@2
$LN1@IsTestCity@2:

; 2747 : 	}
; 2748 : 
; 2749 : 	return false;

	xor	al, al
	pop	esi

; 2750 : }

	ret	0
?IsTestCityStrategy_FirstCultureBuilding@CityStrategyAIHelpers@@YA_NPAVCvCity@@@Z ENDP ; CityStrategyAIHelpers::IsTestCityStrategy_FirstCultureBuilding
_TEXT	ENDS
PUBLIC	?IsTestCityStrategy_FirstCultureBuildingEmergency@CityStrategyAIHelpers@@YA_NPAVCvCity@@@Z ; CityStrategyAIHelpers::IsTestCityStrategy_FirstCultureBuildingEmergency
EXTRN	?getPopulation@CvCity@@QBEHXZ:PROC		; CvCity::getPopulation
; Function compile flags: /Ogtpy
;	COMDAT ?IsTestCityStrategy_FirstCultureBuildingEmergency@CityStrategyAIHelpers@@YA_NPAVCvCity@@@Z
_TEXT	SEGMENT
_pCity$ = 8						; size = 4
?IsTestCityStrategy_FirstCultureBuildingEmergency@CityStrategyAIHelpers@@YA_NPAVCvCity@@@Z PROC ; CityStrategyAIHelpers::IsTestCityStrategy_FirstCultureBuildingEmergency, COMDAT

; 2754 : {

	push	esi

; 2755 : 	if(pCity->getPopulation() >= 5 && pCity->GetJONSCulturePerTurnFromBuildings() <= 0)

	mov	esi, DWORD PTR _pCity$[esp]
	mov	ecx, esi
	call	?getPopulation@CvCity@@QBEHXZ		; CvCity::getPopulation
	cmp	eax, 5
	jl	SHORT $LN1@IsTestCity@3
	mov	ecx, esi
	call	?GetJONSCulturePerTurnFromBuildings@CvCity@@QBEHXZ ; CvCity::GetJONSCulturePerTurnFromBuildings
	test	eax, eax
	jg	SHORT $LN1@IsTestCity@3

; 2756 : 	{
; 2757 : 		return true;

	mov	al, 1
	pop	esi

; 2761 : }

	ret	0
$LN1@IsTestCity@3:

; 2758 : 	}
; 2759 : 
; 2760 : 	return false;

	xor	al, al
	pop	esi

; 2761 : }

	ret	0
?IsTestCityStrategy_FirstCultureBuildingEmergency@CityStrategyAIHelpers@@YA_NPAVCvCity@@@Z ENDP ; CityStrategyAIHelpers::IsTestCityStrategy_FirstCultureBuildingEmergency
_TEXT	ENDS
PUBLIC	?IsTestCityStrategy_FirstScienceBuilding@CityStrategyAIHelpers@@YA_NPAVCvCity@@@Z ; CityStrategyAIHelpers::IsTestCityStrategy_FirstScienceBuilding
EXTRN	?GetYieldPerPopTimes100@CvCity@@QBEHW4YieldTypes@@@Z:PROC ; CvCity::GetYieldPerPopTimes100
; Function compile flags: /Ogtpy
;	COMDAT ?IsTestCityStrategy_FirstScienceBuilding@CityStrategyAIHelpers@@YA_NPAVCvCity@@@Z
_TEXT	SEGMENT
_pCity$ = 8						; size = 4
?IsTestCityStrategy_FirstScienceBuilding@CityStrategyAIHelpers@@YA_NPAVCvCity@@@Z PROC ; CityStrategyAIHelpers::IsTestCityStrategy_FirstScienceBuilding, COMDAT

; 2765 : {

	push	esi

; 2766 : 	if(pCity->getPopulation() >= 4 && pCity->GetYieldPerPopTimes100(YIELD_SCIENCE) == 0)

	mov	esi, DWORD PTR _pCity$[esp]
	mov	ecx, esi
	call	?getPopulation@CvCity@@QBEHXZ		; CvCity::getPopulation
	cmp	eax, 4
	jl	SHORT $LN1@IsTestCity@4
	push	3
	mov	ecx, esi
	call	?GetYieldPerPopTimes100@CvCity@@QBEHW4YieldTypes@@@Z ; CvCity::GetYieldPerPopTimes100
	test	eax, eax
	jne	SHORT $LN1@IsTestCity@4

; 2767 : 	{
; 2768 : 		return true;

	mov	al, 1
	pop	esi

; 2772 : }

	ret	0
$LN1@IsTestCity@4:

; 2769 : 	}
; 2770 : 
; 2771 : 	return false;

	xor	al, al
	pop	esi

; 2772 : }

	ret	0
?IsTestCityStrategy_FirstScienceBuilding@CityStrategyAIHelpers@@YA_NPAVCvCity@@@Z ENDP ; CityStrategyAIHelpers::IsTestCityStrategy_FirstScienceBuilding
_TEXT	ENDS
PUBLIC	?IsTestCityStrategy_FirstGoldBuilding@CityStrategyAIHelpers@@YA_NPAVCvCity@@@Z ; CityStrategyAIHelpers::IsTestCityStrategy_FirstGoldBuilding
EXTRN	?getYieldRateModifier@CvCity@@QBEHW4YieldTypes@@@Z:PROC ; CvCity::getYieldRateModifier
; Function compile flags: /Ogtpy
;	COMDAT ?IsTestCityStrategy_FirstGoldBuilding@CityStrategyAIHelpers@@YA_NPAVCvCity@@@Z
_TEXT	SEGMENT
_pCity$ = 8						; size = 4
?IsTestCityStrategy_FirstGoldBuilding@CityStrategyAIHelpers@@YA_NPAVCvCity@@@Z PROC ; CityStrategyAIHelpers::IsTestCityStrategy_FirstGoldBuilding, COMDAT

; 2776 : {

	push	esi

; 2777 : 	if(pCity->getPopulation() >= 4 && pCity->getYieldRateModifier(YIELD_GOLD) == 0)

	mov	esi, DWORD PTR _pCity$[esp]
	mov	ecx, esi
	call	?getPopulation@CvCity@@QBEHXZ		; CvCity::getPopulation
	cmp	eax, 4
	jl	SHORT $LN1@IsTestCity@5
	push	2
	mov	ecx, esi
	call	?getYieldRateModifier@CvCity@@QBEHW4YieldTypes@@@Z ; CvCity::getYieldRateModifier
	test	eax, eax
	jne	SHORT $LN1@IsTestCity@5

; 2778 : 	{
; 2779 : 		return true;

	mov	al, 1
	pop	esi

; 2783 : }

	ret	0
$LN1@IsTestCity@5:

; 2780 : 	}
; 2781 : 
; 2782 : 	return false;

	xor	al, al
	pop	esi

; 2783 : }

	ret	0
?IsTestCityStrategy_FirstGoldBuilding@CityStrategyAIHelpers@@YA_NPAVCvCity@@@Z ENDP ; CityStrategyAIHelpers::IsTestCityStrategy_FirstGoldBuilding
_TEXT	ENDS
PUBLIC	?IsTestCityStrategy_FirstProductionBuilding@CityStrategyAIHelpers@@YA_NPAVCvCity@@@Z ; CityStrategyAIHelpers::IsTestCityStrategy_FirstProductionBuilding
EXTRN	?GetBaseYieldRateFromBuildings@CvCity@@QBEHW4YieldTypes@@@Z:PROC ; CvCity::GetBaseYieldRateFromBuildings
; Function compile flags: /Ogtpy
;	COMDAT ?IsTestCityStrategy_FirstProductionBuilding@CityStrategyAIHelpers@@YA_NPAVCvCity@@@Z
_TEXT	SEGMENT
_pCity$ = 8						; size = 4
?IsTestCityStrategy_FirstProductionBuilding@CityStrategyAIHelpers@@YA_NPAVCvCity@@@Z PROC ; CityStrategyAIHelpers::IsTestCityStrategy_FirstProductionBuilding, COMDAT

; 2787 : {

	push	esi

; 2788 : 	if(pCity->getPopulation() >= 4 && pCity->GetBaseYieldRateFromBuildings(YIELD_PRODUCTION) == 0 && pCity->getYieldRateModifier(YIELD_PRODUCTION) == 0)

	mov	esi, DWORD PTR _pCity$[esp]
	mov	ecx, esi
	call	?getPopulation@CvCity@@QBEHXZ		; CvCity::getPopulation
	cmp	eax, 4
	jl	SHORT $LN1@IsTestCity@6
	push	1
	mov	ecx, esi
	call	?GetBaseYieldRateFromBuildings@CvCity@@QBEHW4YieldTypes@@@Z ; CvCity::GetBaseYieldRateFromBuildings
	test	eax, eax
	jne	SHORT $LN1@IsTestCity@6
	push	1
	mov	ecx, esi
	call	?getYieldRateModifier@CvCity@@QBEHW4YieldTypes@@@Z ; CvCity::getYieldRateModifier
	test	eax, eax
	jne	SHORT $LN1@IsTestCity@6

; 2789 : 	{
; 2790 : 		return true;

	mov	al, 1
	pop	esi

; 2794 : }

	ret	0
$LN1@IsTestCity@6:

; 2791 : 	}
; 2792 : 
; 2793 : 	return false;

	xor	al, al
	pop	esi

; 2794 : }

	ret	0
?IsTestCityStrategy_FirstProductionBuilding@CityStrategyAIHelpers@@YA_NPAVCvCity@@@Z ENDP ; CityStrategyAIHelpers::IsTestCityStrategy_FirstProductionBuilding
_TEXT	ENDS
PUBLIC	?IsTestCityStrategy_UnderBlockade@CityStrategyAIHelpers@@YA_NPAVCvCity@@@Z ; CityStrategyAIHelpers::IsTestCityStrategy_UnderBlockade
EXTRN	?IsAnyPlotBlockaded@CvCityCitizens@@QBE_NXZ:PROC ; CvCityCitizens::IsAnyPlotBlockaded
EXTRN	?GetCityCitizens@CvCity@@QBEPAVCvCityCitizens@@XZ:PROC ; CvCity::GetCityCitizens
; Function compile flags: /Ogtpy
;	COMDAT ?IsTestCityStrategy_UnderBlockade@CityStrategyAIHelpers@@YA_NPAVCvCity@@@Z
_TEXT	SEGMENT
_pCity$ = 8						; size = 4
?IsTestCityStrategy_UnderBlockade@CityStrategyAIHelpers@@YA_NPAVCvCity@@@Z PROC ; CityStrategyAIHelpers::IsTestCityStrategy_UnderBlockade, COMDAT

; 2827 : 	if(pCity->GetCityCitizens()->IsAnyPlotBlockaded()/* && !pCity->IsHasBuildingThatAllowsRangeStrike()*/)

	mov	ecx, DWORD PTR _pCity$[esp-4]
	call	?GetCityCitizens@CvCity@@QBEPAVCvCityCitizens@@XZ ; CvCity::GetCityCitizens
	mov	ecx, eax
	call	?IsAnyPlotBlockaded@CvCityCitizens@@QBE_NXZ ; CvCityCitizens::IsAnyPlotBlockaded
	test	al, al
	setne	al

; 2828 : 	{
; 2829 : 		return true;
; 2830 : 	}
; 2831 : 
; 2832 : 	return false;
; 2833 : }

	ret	0
?IsTestCityStrategy_UnderBlockade@CityStrategyAIHelpers@@YA_NPAVCvCity@@@Z ENDP ; CityStrategyAIHelpers::IsTestCityStrategy_UnderBlockade
_TEXT	ENDS
PUBLIC	?IsTestCityStrategy_IsPuppet@CityStrategyAIHelpers@@YA_NPAVCvCity@@@Z ; CityStrategyAIHelpers::IsTestCityStrategy_IsPuppet
EXTRN	?IsPuppet@CvCity@@QBE_NXZ:PROC			; CvCity::IsPuppet
; Function compile flags: /Ogtpy
;	COMDAT ?IsTestCityStrategy_IsPuppet@CityStrategyAIHelpers@@YA_NPAVCvCity@@@Z
_TEXT	SEGMENT
_pCity$ = 8						; size = 4
?IsTestCityStrategy_IsPuppet@CityStrategyAIHelpers@@YA_NPAVCvCity@@@Z PROC ; CityStrategyAIHelpers::IsTestCityStrategy_IsPuppet, COMDAT

; 2838 : 	if(pCity->IsPuppet())

	mov	ecx, DWORD PTR _pCity$[esp-4]
	call	?IsPuppet@CvCity@@QBE_NXZ		; CvCity::IsPuppet
	test	al, al
	setne	al

; 2839 : 	{
; 2840 : 		return true;
; 2841 : 	}
; 2842 : 
; 2843 : 	return false;
; 2844 : }

	ret	0
?IsTestCityStrategy_IsPuppet@CityStrategyAIHelpers@@YA_NPAVCvCity@@@Z ENDP ; CityStrategyAIHelpers::IsTestCityStrategy_IsPuppet
_TEXT	ENDS
PUBLIC	?IsTestCityStrategy_OriginalCapital@CityStrategyAIHelpers@@YA_NPAVCvCity@@@Z ; CityStrategyAIHelpers::IsTestCityStrategy_OriginalCapital
EXTRN	?IsOriginalCapital@CvCity@@QBE_NXZ:PROC		; CvCity::IsOriginalCapital
; Function compile flags: /Ogtpy
;	COMDAT ?IsTestCityStrategy_OriginalCapital@CityStrategyAIHelpers@@YA_NPAVCvCity@@@Z
_TEXT	SEGMENT
_pCity$ = 8						; size = 4
?IsTestCityStrategy_OriginalCapital@CityStrategyAIHelpers@@YA_NPAVCvCity@@@Z PROC ; CityStrategyAIHelpers::IsTestCityStrategy_OriginalCapital, COMDAT

; 2860 : 	if(pCity->IsOriginalCapital())

	mov	ecx, DWORD PTR _pCity$[esp-4]
	call	?IsOriginalCapital@CvCity@@QBE_NXZ	; CvCity::IsOriginalCapital
	test	al, al
	setne	al

; 2861 : 	{
; 2862 : 		return true;
; 2863 : 	}
; 2864 : 
; 2865 : 	return false;
; 2866 : }

	ret	0
?IsTestCityStrategy_OriginalCapital@CityStrategyAIHelpers@@YA_NPAVCvCity@@@Z ENDP ; CityStrategyAIHelpers::IsTestCityStrategy_OriginalCapital
_TEXT	ENDS
PUBLIC	?IsTestCityStrategy_CoastCity@CityStrategyAIHelpers@@YA_NPAVCvCity@@@Z ; CityStrategyAIHelpers::IsTestCityStrategy_CoastCity
EXTRN	?isCoastalLand@CvPlot@@QBE_NH@Z:PROC		; CvPlot::isCoastalLand
EXTRN	?plot@CvCity@@QBEPAVCvPlot@@XZ:PROC		; CvCity::plot
; Function compile flags: /Ogtpy
;	COMDAT ?IsTestCityStrategy_CoastCity@CityStrategyAIHelpers@@YA_NPAVCvCity@@@Z
_TEXT	SEGMENT
_pCity$ = 8						; size = 4
?IsTestCityStrategy_CoastCity@CityStrategyAIHelpers@@YA_NPAVCvCity@@@Z PROC ; CityStrategyAIHelpers::IsTestCityStrategy_CoastCity, COMDAT

; 3033 : 	if(pCity->plot()->isCoastalLand())

	mov	ecx, DWORD PTR _pCity$[esp-4]
	push	-1
	call	?plot@CvCity@@QBEPAVCvPlot@@XZ		; CvCity::plot
	mov	ecx, eax
	call	?isCoastalLand@CvPlot@@QBE_NH@Z		; CvPlot::isCoastalLand
	test	al, al
	setne	al

; 3034 : 	{
; 3035 : 		return true;
; 3036 : 	}
; 3037 : 
; 3038 : 	return false;
; 3039 : }

	ret	0
?IsTestCityStrategy_CoastCity@CityStrategyAIHelpers@@YA_NPAVCvCity@@@Z ENDP ; CityStrategyAIHelpers::IsTestCityStrategy_CoastCity
_TEXT	ENDS
PUBLIC	?IsTestCityStrategy_NeedTourismBuilding@CityStrategyAIHelpers@@YA_NPAVCvCity@@@Z ; CityStrategyAIHelpers::IsTestCityStrategy_NeedTourismBuilding
EXTRN	?GetBaseTourism@CvCityCulture@@QAEHXZ:PROC	; CvCityCulture::GetBaseTourism
EXTRN	?GetCultureFromImprovements@CvCityCulture@@QBEHXZ:PROC ; CvCityCulture::GetCultureFromImprovements
EXTRN	?GetCultureFromNaturalWonders@CvCityCulture@@QBEHXZ:PROC ; CvCityCulture::GetCultureFromNaturalWonders
EXTRN	?GetCultureFromWonders@CvCityCulture@@QBEHXZ:PROC ; CvCityCulture::GetCultureFromWonders
EXTRN	?GetCityCulture@CvCity@@QBEPAVCvCityCulture@@XZ:PROC ; CvCity::GetCityCulture
; Function compile flags: /Ogtpy
;	COMDAT ?IsTestCityStrategy_NeedTourismBuilding@CityStrategyAIHelpers@@YA_NPAVCvCity@@@Z
_TEXT	SEGMENT
_pCity$ = 8						; size = 4
?IsTestCityStrategy_NeedTourismBuilding@CityStrategyAIHelpers@@YA_NPAVCvCity@@@Z PROC ; CityStrategyAIHelpers::IsTestCityStrategy_NeedTourismBuilding, COMDAT

; 3305 : {

	push	esi

; 3306 : 	int iTourismValue = 0;
; 3307 : #ifdef AUI_WARNING_FIXES
; 3308 : 	const CvCityCulture* pCityCulture = pCity->GetCityCulture();
; 3309 : 	iTourismValue += pCityCulture->GetCultureFromWonders();
; 3310 : 	iTourismValue += pCityCulture->GetCultureFromNaturalWonders();
; 3311 : 	iTourismValue += pCityCulture->GetCultureFromImprovements();
; 3312 : 	iTourismValue += pCityCulture->GetBaseTourism();
; 3313 : #else
; 3314 : 	iTourismValue += pCity->GetCityCulture()->GetCultureFromWonders();

	mov	esi, DWORD PTR _pCity$[esp]
	push	edi
	mov	ecx, esi
	call	?GetCityCulture@CvCity@@QBEPAVCvCityCulture@@XZ ; CvCity::GetCityCulture
	mov	ecx, eax
	call	?GetCultureFromWonders@CvCityCulture@@QBEHXZ ; CvCityCulture::GetCultureFromWonders

; 3315 : 	iTourismValue += pCity->GetCityCulture()->GetCultureFromNaturalWonders();

	mov	ecx, esi
	mov	edi, eax
	call	?GetCityCulture@CvCity@@QBEPAVCvCityCulture@@XZ ; CvCity::GetCityCulture
	mov	ecx, eax
	call	?GetCultureFromNaturalWonders@CvCityCulture@@QBEHXZ ; CvCityCulture::GetCultureFromNaturalWonders

; 3316 : 	iTourismValue += pCity->GetCityCulture()->GetCultureFromImprovements();

	mov	ecx, esi
	add	edi, eax
	call	?GetCityCulture@CvCity@@QBEPAVCvCityCulture@@XZ ; CvCity::GetCityCulture
	mov	ecx, eax
	call	?GetCultureFromImprovements@CvCityCulture@@QBEHXZ ; CvCityCulture::GetCultureFromImprovements

; 3317 : 	iTourismValue += pCity->GetCityCulture()->GetBaseTourism();

	mov	ecx, esi
	add	edi, eax
	call	?GetCityCulture@CvCity@@QBEPAVCvCityCulture@@XZ ; CvCity::GetCityCulture
	mov	ecx, eax
	call	?GetBaseTourism@CvCityCulture@@QAEHXZ	; CvCityCulture::GetBaseTourism
	add	eax, edi

; 3318 : #endif
; 3319 : 
; 3320 : 	if (iTourismValue > 10)

	cmp	eax, 10					; 0000000aH
	pop	edi
	setg	al
	pop	esi

; 3321 : 	{
; 3322 : 		return true;
; 3323 : 	}
; 3324 : 
; 3325 : 	return false;
; 3326 : }

	ret	0
?IsTestCityStrategy_NeedTourismBuilding@CityStrategyAIHelpers@@YA_NPAVCvCity@@@Z ENDP ; CityStrategyAIHelpers::IsTestCityStrategy_NeedTourismBuilding
_TEXT	ENDS
PUBLIC	??A?$BaseVector@H$00@@QAEAAHI@Z			; BaseVector<int,1>::operator[]
; Function compile flags: /Ogtpy
; File c:\users\enormousapplepie\desktop\lekmod files\lekmod dll versions\v29\lekmod_dll\fireplace\include\fireworks\ffastvector.h
;	COMDAT ??A?$BaseVector@H$00@@QAEAAHI@Z
_TEXT	SEGMENT
_ui$ = 8						; size = 4
??A?$BaseVector@H$00@@QAEAAHI@Z PROC			; BaseVector<int,1>::operator[], COMDAT
; _this$ = ecx

; 129  : 		FAssert(ui < m_uiCurrSize);
; 130  : 		return m_pData[ui];

	mov	eax, DWORD PTR [ecx]
	mov	ecx, DWORD PTR _ui$[esp-4]
	lea	eax, DWORD PTR [eax+ecx*4]

; 131  : 	};

	ret	4
??A?$BaseVector@H$00@@QAEAAHI@Z ENDP			; BaseVector<int,1>::operator[]
_TEXT	ENDS
PUBLIC	?size@?$BaseVector@H$00@@QBEIXZ			; BaseVector<int,1>::size
; Function compile flags: /Ogtpy
;	COMDAT ?size@?$BaseVector@H$00@@QBEIXZ
_TEXT	SEGMENT
?size@?$BaseVector@H$00@@QBEIXZ PROC			; BaseVector<int,1>::size, COMDAT
; _this$ = ecx

; 169  : 		return m_uiCurrSize;

	mov	eax, DWORD PTR [ecx+4]

; 170  : 	};

	ret	0
?size@?$BaseVector@H$00@@QBEIXZ ENDP			; BaseVector<int,1>::size
_TEXT	ENDS
PUBLIC	??A?$Array@H$0BG@@Firaxis@@QAEAAHI@Z		; Firaxis::Array<int,22>::operator[]
; Function compile flags: /Ogtpy
; File c:\users\enormousapplepie\desktop\lekmod files\lekmod dll versions\v29\lekmod_dll\fireplace\include\fireworks\farray.h
;	COMDAT ??A?$Array@H$0BG@@Firaxis@@QAEAAHI@Z
_TEXT	SEGMENT
_i$ = 8							; size = 4
??A?$Array@H$0BG@@Firaxis@@QAEAAHI@Z PROC		; Firaxis::Array<int,22>::operator[], COMDAT
; _this$ = ecx

; 157  : #		ifdef _MSC_VER
; 158  : #			pragma warning ( push )
; 159  : #			pragma warning ( disable : 6385 ) //  Invalid data: accessing 'm_akItems' the readable size is X but X+N bytes might be read
; 160  : 			// sad day. 
; 161  : #		endif//_MSC_VER
; 162  : 		    assert( i < ARRAY_SIZE );
; 163  : 		    return ( m_akItems[ i ] );

	mov	eax, DWORD PTR _i$[esp-4]
	lea	eax, DWORD PTR [ecx+eax*4]

; 164  : #		ifdef _MSC_VER
; 165  : #		pragma warning ( pop )
; 166  : #		endif//_MSC_VER
; 167  : 		}

	ret	4
??A?$Array@H$0BG@@Firaxis@@QAEAAHI@Z ENDP		; Firaxis::Array<int,22>::operator[]
_TEXT	ENDS
PUBLIC	?size@?$vector@PAVCvAICityStrategyEntry@@V?$allocator@PAVCvAICityStrategyEntry@@@std@@@std@@QBEIXZ ; std::vector<CvAICityStrategyEntry *,std::allocator<CvAICityStrategyEntry *> >::size
; Function compile flags: /Ogtpy
; File c:\program files (x86)\microsoft visual studio 9.0\vc\include\vector
;	COMDAT ?size@?$vector@PAVCvAICityStrategyEntry@@V?$allocator@PAVCvAICityStrategyEntry@@@std@@@std@@QBEIXZ
_TEXT	SEGMENT
?size@?$vector@PAVCvAICityStrategyEntry@@V?$allocator@PAVCvAICityStrategyEntry@@@std@@@std@@QBEIXZ PROC ; std::vector<CvAICityStrategyEntry *,std::allocator<CvAICityStrategyEntry *> >::size, COMDAT
; _this$ = ecx

; 726  : 		return (_Mylast - _Myfirst);

	mov	eax, DWORD PTR [ecx+8]
	sub	eax, DWORD PTR [ecx+4]
	sar	eax, 2

; 727  : 		}

	ret	0
?size@?$vector@PAVCvAICityStrategyEntry@@V?$allocator@PAVCvAICityStrategyEntry@@@std@@@std@@QBEIXZ ENDP ; std::vector<CvAICityStrategyEntry *,std::allocator<CvAICityStrategyEntry *> >::size
_TEXT	ENDS
PUBLIC	??A?$vector@PAVCvAICityStrategyEntry@@V?$allocator@PAVCvAICityStrategyEntry@@@std@@@std@@QAEAAPAVCvAICityStrategyEntry@@I@Z ; std::vector<CvAICityStrategyEntry *,std::allocator<CvAICityStrategyEntry *> >::operator[]
; Function compile flags: /Ogtpy
;	COMDAT ??A?$vector@PAVCvAICityStrategyEntry@@V?$allocator@PAVCvAICityStrategyEntry@@@std@@@std@@QAEAAPAVCvAICityStrategyEntry@@I@Z
_TEXT	SEGMENT
__Pos$ = 8						; size = 4
??A?$vector@PAVCvAICityStrategyEntry@@V?$allocator@PAVCvAICityStrategyEntry@@@std@@@std@@QAEAAPAVCvAICityStrategyEntry@@I@Z PROC ; std::vector<CvAICityStrategyEntry *,std::allocator<CvAICityStrategyEntry *> >::operator[], COMDAT
; _this$ = ecx

; 775  : 
; 776  :  #if _HAS_ITERATOR_DEBUGGING
; 777  : 		if (size() <= _Pos)
; 778  : 			{
; 779  : 			_DEBUG_ERROR("vector subscript out of range");
; 780  : 			_SCL_SECURE_OUT_OF_RANGE;
; 781  : 			}
; 782  :  #endif /* _HAS_ITERATOR_DEBUGGING */
; 783  : 		_SCL_SECURE_VALIDATE_RANGE(_Pos < size());
; 784  : 
; 785  : 		return (*(_Myfirst + _Pos));

	mov	eax, DWORD PTR [ecx+4]
	mov	ecx, DWORD PTR __Pos$[esp-4]
	lea	eax, DWORD PTR [eax+ecx*4]

; 786  : 		}

	ret	4
??A?$vector@PAVCvAICityStrategyEntry@@V?$allocator@PAVCvAICityStrategyEntry@@@std@@@std@@QAEAAPAVCvAICityStrategyEntry@@I@Z ENDP ; std::vector<CvAICityStrategyEntry *,std::allocator<CvAICityStrategyEntry *> >::operator[]
_TEXT	ENDS
PUBLIC	?size@?$vector@PAVCvCitySpecializationXMLEntry@@V?$allocator@PAVCvCitySpecializationXMLEntry@@@std@@@std@@QBEIXZ ; std::vector<CvCitySpecializationXMLEntry *,std::allocator<CvCitySpecializationXMLEntry *> >::size
; Function compile flags: /Ogtpy
;	COMDAT ?size@?$vector@PAVCvCitySpecializationXMLEntry@@V?$allocator@PAVCvCitySpecializationXMLEntry@@@std@@@std@@QBEIXZ
_TEXT	SEGMENT
?size@?$vector@PAVCvCitySpecializationXMLEntry@@V?$allocator@PAVCvCitySpecializationXMLEntry@@@std@@@std@@QBEIXZ PROC ; std::vector<CvCitySpecializationXMLEntry *,std::allocator<CvCitySpecializationXMLEntry *> >::size, COMDAT
; _this$ = ecx

; 726  : 		return (_Mylast - _Myfirst);

	mov	eax, DWORD PTR [ecx+8]
	sub	eax, DWORD PTR [ecx+4]
	sar	eax, 2

; 727  : 		}

	ret	0
?size@?$vector@PAVCvCitySpecializationXMLEntry@@V?$allocator@PAVCvCitySpecializationXMLEntry@@@std@@@std@@QBEIXZ ENDP ; std::vector<CvCitySpecializationXMLEntry *,std::allocator<CvCitySpecializationXMLEntry *> >::size
_TEXT	ENDS
PUBLIC	??A?$vector@PAVCvCitySpecializationXMLEntry@@V?$allocator@PAVCvCitySpecializationXMLEntry@@@std@@@std@@QAEAAPAVCvCitySpecializationXMLEntry@@I@Z ; std::vector<CvCitySpecializationXMLEntry *,std::allocator<CvCitySpecializationXMLEntry *> >::operator[]
; Function compile flags: /Ogtpy
;	COMDAT ??A?$vector@PAVCvCitySpecializationXMLEntry@@V?$allocator@PAVCvCitySpecializationXMLEntry@@@std@@@std@@QAEAAPAVCvCitySpecializationXMLEntry@@I@Z
_TEXT	SEGMENT
__Pos$ = 8						; size = 4
??A?$vector@PAVCvCitySpecializationXMLEntry@@V?$allocator@PAVCvCitySpecializationXMLEntry@@@std@@@std@@QAEAAPAVCvCitySpecializationXMLEntry@@I@Z PROC ; std::vector<CvCitySpecializationXMLEntry *,std::allocator<CvCitySpecializationXMLEntry *> >::operator[], COMDAT
; _this$ = ecx

; 775  : 
; 776  :  #if _HAS_ITERATOR_DEBUGGING
; 777  : 		if (size() <= _Pos)
; 778  : 			{
; 779  : 			_DEBUG_ERROR("vector subscript out of range");
; 780  : 			_SCL_SECURE_OUT_OF_RANGE;
; 781  : 			}
; 782  :  #endif /* _HAS_ITERATOR_DEBUGGING */
; 783  : 		_SCL_SECURE_VALIDATE_RANGE(_Pos < size());
; 784  : 
; 785  : 		return (*(_Myfirst + _Pos));

	mov	eax, DWORD PTR [ecx+4]
	mov	ecx, DWORD PTR __Pos$[esp-4]
	lea	eax, DWORD PTR [eax+ecx*4]

; 786  : 		}

	ret	4
??A?$vector@PAVCvCitySpecializationXMLEntry@@V?$allocator@PAVCvCitySpecializationXMLEntry@@@std@@@std@@QAEAAPAVCvCitySpecializationXMLEntry@@I@Z ENDP ; std::vector<CvCitySpecializationXMLEntry *,std::allocator<CvCitySpecializationXMLEntry *> >::operator[]
_TEXT	ENDS
PUBLIC	??0?$ArrayWrapper@H@@QAE@HPAH@Z			; ArrayWrapper<int>::ArrayWrapper<int>
; Function compile flags: /Ogtpy
; File c:\users\enormousapplepie\desktop\lekmod files\lekmod dll versions\v29\lekmod_dll\fireplace\include\fireworks\fdatastream.h
;	COMDAT ??0?$ArrayWrapper@H@@QAE@HPAH@Z
_TEXT	SEGMENT
_count$ = 8						; size = 4
_values$ = 12						; size = 4
??0?$ArrayWrapper@H@@QAE@HPAH@Z PROC			; ArrayWrapper<int>::ArrayWrapper<int>, COMDAT
; _this$ = ecx

; 378  : 		: m_values(values), m_count(count) {}

	mov	edx, DWORD PTR _count$[esp-4]
	mov	eax, ecx
	mov	ecx, DWORD PTR _values$[esp-4]
	mov	DWORD PTR [eax], ecx
	mov	DWORD PTR [eax+4], edx
	ret	8
??0?$ArrayWrapper@H@@QAE@HPAH@Z ENDP			; ArrayWrapper<int>::ArrayWrapper<int>
_TEXT	ENDS
PUBLIC	??1?$_Container_base_aux_alloc_empty@V?$allocator@PAVCvAICityStrategyEntry@@@std@@@std@@IAE@XZ ; std::_Container_base_aux_alloc_empty<std::allocator<CvAICityStrategyEntry *> >::~_Container_base_aux_alloc_empty<std::allocator<CvAICityStrategyEntry *> >
; Function compile flags: /Ogtpy
; File c:\program files (x86)\microsoft visual studio 9.0\vc\include\xutility
;	COMDAT ??1?$_Container_base_aux_alloc_empty@V?$allocator@PAVCvAICityStrategyEntry@@@std@@@std@@IAE@XZ
_TEXT	SEGMENT
??1?$_Container_base_aux_alloc_empty@V?$allocator@PAVCvAICityStrategyEntry@@@std@@@std@@IAE@XZ PROC ; std::_Container_base_aux_alloc_empty<std::allocator<CvAICityStrategyEntry *> >::~_Container_base_aux_alloc_empty<std::allocator<CvAICityStrategyEntry *> >, COMDAT
; _this$ = ecx

; 627  : 	~_Container_base_aux_alloc_empty() { }

	ret	0
??1?$_Container_base_aux_alloc_empty@V?$allocator@PAVCvAICityStrategyEntry@@@std@@@std@@IAE@XZ ENDP ; std::_Container_base_aux_alloc_empty<std::allocator<CvAICityStrategyEntry *> >::~_Container_base_aux_alloc_empty<std::allocator<CvAICityStrategyEntry *> >
_TEXT	ENDS
PUBLIC	??0?$allocator@PAVCvAICityStrategyEntry@@@std@@QAE@XZ ; std::allocator<CvAICityStrategyEntry *>::allocator<CvAICityStrategyEntry *>
; Function compile flags: /Ogtpy
; File c:\program files (x86)\microsoft visual studio 9.0\vc\include\xmemory
;	COMDAT ??0?$allocator@PAVCvAICityStrategyEntry@@@std@@QAE@XZ
_TEXT	SEGMENT
??0?$allocator@PAVCvAICityStrategyEntry@@@std@@QAE@XZ PROC ; std::allocator<CvAICityStrategyEntry *>::allocator<CvAICityStrategyEntry *>, COMDAT
; _this$ = ecx

; 119  : 	allocator() _THROW0()

	mov	eax, ecx

; 120  : 		{	// construct default allocator (do nothing)
; 121  : 		}

	ret	0
??0?$allocator@PAVCvAICityStrategyEntry@@@std@@QAE@XZ ENDP ; std::allocator<CvAICityStrategyEntry *>::allocator<CvAICityStrategyEntry *>
_TEXT	ENDS
PUBLIC	??A?$BaseVector@UWeightedElement@?$CvWeightedVector@UCvCityBuildable@@$0OB@$00@@$00@@QAEAAUWeightedElement@?$CvWeightedVector@UCvCityBuildable@@$0OB@$00@@I@Z ; BaseVector<CvWeightedVector<CvCityBuildable,225,1>::WeightedElement,1>::operator[]
; Function compile flags: /Ogtpy
; File c:\users\enormousapplepie\desktop\lekmod files\lekmod dll versions\v29\lekmod_dll\fireplace\include\fireworks\ffastvector.h
;	COMDAT ??A?$BaseVector@UWeightedElement@?$CvWeightedVector@UCvCityBuildable@@$0OB@$00@@$00@@QAEAAUWeightedElement@?$CvWeightedVector@UCvCityBuildable@@$0OB@$00@@I@Z
_TEXT	SEGMENT
_ui$ = 8						; size = 4
??A?$BaseVector@UWeightedElement@?$CvWeightedVector@UCvCityBuildable@@$0OB@$00@@$00@@QAEAAUWeightedElement@?$CvWeightedVector@UCvCityBuildable@@$0OB@$00@@I@Z PROC ; BaseVector<CvWeightedVector<CvCityBuildable,225,1>::WeightedElement,1>::operator[], COMDAT
; _this$ = ecx

; 129  : 		FAssert(ui < m_uiCurrSize);
; 130  : 		return m_pData[ui];

	mov	eax, DWORD PTR _ui$[esp-4]
	shl	eax, 4
	add	eax, DWORD PTR [ecx]

; 131  : 	};

	ret	4
??A?$BaseVector@UWeightedElement@?$CvWeightedVector@UCvCityBuildable@@$0OB@$00@@$00@@QAEAAUWeightedElement@?$CvWeightedVector@UCvCityBuildable@@$0OB@$00@@I@Z ENDP ; BaseVector<CvWeightedVector<CvCityBuildable,225,1>::WeightedElement,1>::operator[]
_TEXT	ENDS
PUBLIC	??A?$BaseVector@UWeightedElement@?$CvWeightedVector@UCvCityBuildable@@$0OB@$00@@$00@@QBEABUWeightedElement@?$CvWeightedVector@UCvCityBuildable@@$0OB@$00@@I@Z ; BaseVector<CvWeightedVector<CvCityBuildable,225,1>::WeightedElement,1>::operator[]
; Function compile flags: /Ogtpy
;	COMDAT ??A?$BaseVector@UWeightedElement@?$CvWeightedVector@UCvCityBuildable@@$0OB@$00@@$00@@QBEABUWeightedElement@?$CvWeightedVector@UCvCityBuildable@@$0OB@$00@@I@Z
_TEXT	SEGMENT
_ui$ = 8						; size = 4
??A?$BaseVector@UWeightedElement@?$CvWeightedVector@UCvCityBuildable@@$0OB@$00@@$00@@QBEABUWeightedElement@?$CvWeightedVector@UCvCityBuildable@@$0OB@$00@@I@Z PROC ; BaseVector<CvWeightedVector<CvCityBuildable,225,1>::WeightedElement,1>::operator[], COMDAT
; _this$ = ecx

; 135  : 		FAssert(ui < m_uiCurrSize);
; 136  : 		return m_pData[ui];

	mov	eax, DWORD PTR _ui$[esp-4]
	shl	eax, 4
	add	eax, DWORD PTR [ecx]

; 137  : 	};

	ret	4
??A?$BaseVector@UWeightedElement@?$CvWeightedVector@UCvCityBuildable@@$0OB@$00@@$00@@QBEABUWeightedElement@?$CvWeightedVector@UCvCityBuildable@@$0OB@$00@@I@Z ENDP ; BaseVector<CvWeightedVector<CvCityBuildable,225,1>::WeightedElement,1>::operator[]
_TEXT	ENDS
PUBLIC	?size@?$BaseVector@UWeightedElement@?$CvWeightedVector@UCvCityBuildable@@$0OB@$00@@$00@@QBEIXZ ; BaseVector<CvWeightedVector<CvCityBuildable,225,1>::WeightedElement,1>::size
; Function compile flags: /Ogtpy
;	COMDAT ?size@?$BaseVector@UWeightedElement@?$CvWeightedVector@UCvCityBuildable@@$0OB@$00@@$00@@QBEIXZ
_TEXT	SEGMENT
?size@?$BaseVector@UWeightedElement@?$CvWeightedVector@UCvCityBuildable@@$0OB@$00@@$00@@QBEIXZ PROC ; BaseVector<CvWeightedVector<CvCityBuildable,225,1>::WeightedElement,1>::size, COMDAT
; _this$ = ecx

; 169  : 		return m_uiCurrSize;

	mov	eax, DWORD PTR [ecx+4]

; 170  : 	};

	ret	0
?size@?$BaseVector@UWeightedElement@?$CvWeightedVector@UCvCityBuildable@@$0OB@$00@@$00@@QBEIXZ ENDP ; BaseVector<CvWeightedVector<CvCityBuildable,225,1>::WeightedElement,1>::size
_TEXT	ENDS
PUBLIC	?begin@?$BaseVector@UWeightedElement@?$CvWeightedVector@UCvCityBuildable@@$0OB@$00@@$00@@QAEPAUWeightedElement@?$CvWeightedVector@UCvCityBuildable@@$0OB@$00@@XZ ; BaseVector<CvWeightedVector<CvCityBuildable,225,1>::WeightedElement,1>::begin
; Function compile flags: /Ogtpy
;	COMDAT ?begin@?$BaseVector@UWeightedElement@?$CvWeightedVector@UCvCityBuildable@@$0OB@$00@@$00@@QAEPAUWeightedElement@?$CvWeightedVector@UCvCityBuildable@@$0OB@$00@@XZ
_TEXT	SEGMENT
?begin@?$BaseVector@UWeightedElement@?$CvWeightedVector@UCvCityBuildable@@$0OB@$00@@$00@@QAEPAUWeightedElement@?$CvWeightedVector@UCvCityBuildable@@$0OB@$00@@XZ PROC ; BaseVector<CvWeightedVector<CvCityBuildable,225,1>::WeightedElement,1>::begin, COMDAT
; _this$ = ecx

; 194  :         return m_pData; 

	mov	eax, DWORD PTR [ecx]

; 195  :     };

	ret	0
?begin@?$BaseVector@UWeightedElement@?$CvWeightedVector@UCvCityBuildable@@$0OB@$00@@$00@@QAEPAUWeightedElement@?$CvWeightedVector@UCvCityBuildable@@$0OB@$00@@XZ ENDP ; BaseVector<CvWeightedVector<CvCityBuildable,225,1>::WeightedElement,1>::begin
_TEXT	ENDS
PUBLIC	?end@?$BaseVector@UWeightedElement@?$CvWeightedVector@UCvCityBuildable@@$0OB@$00@@$00@@QAEPAUWeightedElement@?$CvWeightedVector@UCvCityBuildable@@$0OB@$00@@XZ ; BaseVector<CvWeightedVector<CvCityBuildable,225,1>::WeightedElement,1>::end
; Function compile flags: /Ogtpy
;	COMDAT ?end@?$BaseVector@UWeightedElement@?$CvWeightedVector@UCvCityBuildable@@$0OB@$00@@$00@@QAEPAUWeightedElement@?$CvWeightedVector@UCvCityBuildable@@$0OB@$00@@XZ
_TEXT	SEGMENT
?end@?$BaseVector@UWeightedElement@?$CvWeightedVector@UCvCityBuildable@@$0OB@$00@@$00@@QAEPAUWeightedElement@?$CvWeightedVector@UCvCityBuildable@@$0OB@$00@@XZ PROC ; BaseVector<CvWeightedVector<CvCityBuildable,225,1>::WeightedElement,1>::end, COMDAT
; _this$ = ecx

; 197  :         return m_pData+m_uiCurrSize; 

	mov	eax, DWORD PTR [ecx+4]
	shl	eax, 4
	add	eax, DWORD PTR [ecx]

; 198  :     };

	ret	0
?end@?$BaseVector@UWeightedElement@?$CvWeightedVector@UCvCityBuildable@@$0OB@$00@@$00@@QAEPAUWeightedElement@?$CvWeightedVector@UCvCityBuildable@@$0OB@$00@@XZ ENDP ; BaseVector<CvWeightedVector<CvCityBuildable,225,1>::WeightedElement,1>::end
_TEXT	ENDS
PUBLIC	??0WeightedElement@?$CvWeightedVector@UCvCityBuildable@@$0OB@$00@@QAE@ABU01@@Z ; CvWeightedVector<CvCityBuildable,225,1>::WeightedElement::WeightedElement
; Function compile flags: /Ogtpy
; File c:\users\enormousapplepie\desktop\lekmod files\lekmod dll versions\v29\lekmod_dll\cvgamecoredllutil\include\cvweightedvector.h
;	COMDAT ??0WeightedElement@?$CvWeightedVector@UCvCityBuildable@@$0OB@$00@@QAE@ABU01@@Z
_TEXT	SEGMENT
_source$ = 8						; size = 4
??0WeightedElement@?$CvWeightedVector@UCvCityBuildable@@$0OB@$00@@QAE@ABU01@@Z PROC ; CvWeightedVector<CvCityBuildable,225,1>::WeightedElement::WeightedElement, COMDAT
; _this$ = ecx

; 37   : 		{

	mov	eax, ecx
	mov	ecx, DWORD PTR _source$[esp-4]
	mov	edx, DWORD PTR [ecx]
	mov	DWORD PTR [eax], edx
	mov	edx, DWORD PTR [ecx+4]
	mov	DWORD PTR [eax+4], edx
	mov	edx, DWORD PTR [ecx+8]
	mov	DWORD PTR [eax+8], edx
	mov	ecx, DWORD PTR [ecx+12]
	mov	DWORD PTR [eax+12], ecx

; 38   : 		}

	ret	4
??0WeightedElement@?$CvWeightedVector@UCvCityBuildable@@$0OB@$00@@QAE@ABU01@@Z ENDP ; CvWeightedVector<CvCityBuildable,225,1>::WeightedElement::WeightedElement
_TEXT	ENDS
PUBLIC	?capacity@?$vector@PAVCvCitySpecializationXMLEntry@@V?$allocator@PAVCvCitySpecializationXMLEntry@@@std@@@std@@QBEIXZ ; std::vector<CvCitySpecializationXMLEntry *,std::allocator<CvCitySpecializationXMLEntry *> >::capacity
; Function compile flags: /Ogtpy
; File c:\program files (x86)\microsoft visual studio 9.0\vc\include\vector
;	COMDAT ?capacity@?$vector@PAVCvCitySpecializationXMLEntry@@V?$allocator@PAVCvCitySpecializationXMLEntry@@@std@@@std@@QBEIXZ
_TEXT	SEGMENT
?capacity@?$vector@PAVCvCitySpecializationXMLEntry@@V?$allocator@PAVCvCitySpecializationXMLEntry@@@std@@@std@@QBEIXZ PROC ; std::vector<CvCitySpecializationXMLEntry *,std::allocator<CvCitySpecializationXMLEntry *> >::capacity, COMDAT
; _this$ = ecx

; 635  : 		return (_Myfirst == 0 ? 0 : _Myend - _Myfirst);

	mov	edx, DWORD PTR [ecx+4]
	test	edx, edx
	jne	SHORT $LN3@capacity
	xor	eax, eax

; 636  : 		}

	ret	0
$LN3@capacity:

; 635  : 		return (_Myfirst == 0 ? 0 : _Myend - _Myfirst);

	mov	eax, DWORD PTR [ecx+12]
	sub	eax, edx
	sar	eax, 2

; 636  : 		}

	ret	0
?capacity@?$vector@PAVCvCitySpecializationXMLEntry@@V?$allocator@PAVCvCitySpecializationXMLEntry@@@std@@@std@@QBEIXZ ENDP ; std::vector<CvCitySpecializationXMLEntry *,std::allocator<CvCitySpecializationXMLEntry *> >::capacity
_TEXT	ENDS
PUBLIC	??1?$_Container_base_aux_alloc_empty@V?$allocator@PAVCvCitySpecializationXMLEntry@@@std@@@std@@IAE@XZ ; std::_Container_base_aux_alloc_empty<std::allocator<CvCitySpecializationXMLEntry *> >::~_Container_base_aux_alloc_empty<std::allocator<CvCitySpecializationXMLEntry *> >
; Function compile flags: /Ogtpy
; File c:\program files (x86)\microsoft visual studio 9.0\vc\include\xutility
;	COMDAT ??1?$_Container_base_aux_alloc_empty@V?$allocator@PAVCvCitySpecializationXMLEntry@@@std@@@std@@IAE@XZ
_TEXT	SEGMENT
??1?$_Container_base_aux_alloc_empty@V?$allocator@PAVCvCitySpecializationXMLEntry@@@std@@@std@@IAE@XZ PROC ; std::_Container_base_aux_alloc_empty<std::allocator<CvCitySpecializationXMLEntry *> >::~_Container_base_aux_alloc_empty<std::allocator<CvCitySpecializationXMLEntry *> >, COMDAT
; _this$ = ecx

; 627  : 	~_Container_base_aux_alloc_empty() { }

	ret	0
??1?$_Container_base_aux_alloc_empty@V?$allocator@PAVCvCitySpecializationXMLEntry@@@std@@@std@@IAE@XZ ENDP ; std::_Container_base_aux_alloc_empty<std::allocator<CvCitySpecializationXMLEntry *> >::~_Container_base_aux_alloc_empty<std::allocator<CvCitySpecializationXMLEntry *> >
_TEXT	ENDS
PUBLIC	??0?$allocator@PAVCvCitySpecializationXMLEntry@@@std@@QAE@XZ ; std::allocator<CvCitySpecializationXMLEntry *>::allocator<CvCitySpecializationXMLEntry *>
; Function compile flags: /Ogtpy
; File c:\program files (x86)\microsoft visual studio 9.0\vc\include\xmemory
;	COMDAT ??0?$allocator@PAVCvCitySpecializationXMLEntry@@@std@@QAE@XZ
_TEXT	SEGMENT
??0?$allocator@PAVCvCitySpecializationXMLEntry@@@std@@QAE@XZ PROC ; std::allocator<CvCitySpecializationXMLEntry *>::allocator<CvCitySpecializationXMLEntry *>, COMDAT
; _this$ = ecx

; 119  : 	allocator() _THROW0()

	mov	eax, ecx

; 120  : 		{	// construct default allocator (do nothing)
; 121  : 		}

	ret	0
??0?$allocator@PAVCvCitySpecializationXMLEntry@@@std@@QAE@XZ ENDP ; std::allocator<CvCitySpecializationXMLEntry *>::allocator<CvCitySpecializationXMLEntry *>
_TEXT	ENDS
PUBLIC	??0?$allocator@PAVCvCitySpecializationXMLEntry@@@std@@QAE@ABV01@@Z ; std::allocator<CvCitySpecializationXMLEntry *>::allocator<CvCitySpecializationXMLEntry *>
; Function compile flags: /Ogtpy
;	COMDAT ??0?$allocator@PAVCvCitySpecializationXMLEntry@@@std@@QAE@ABV01@@Z
_TEXT	SEGMENT
___formal$ = 8						; size = 4
??0?$allocator@PAVCvCitySpecializationXMLEntry@@@std@@QAE@ABV01@@Z PROC ; std::allocator<CvCitySpecializationXMLEntry *>::allocator<CvCitySpecializationXMLEntry *>, COMDAT
; _this$ = ecx

; 123  : 	allocator(const allocator<_Ty>&) _THROW0()

	mov	eax, ecx

; 124  : 		{	// construct by copying (do nothing)
; 125  : 		}

	ret	4
??0?$allocator@PAVCvCitySpecializationXMLEntry@@@std@@QAE@ABV01@@Z ENDP ; std::allocator<CvCitySpecializationXMLEntry *>::allocator<CvCitySpecializationXMLEntry *>
_TEXT	ENDS
PUBLIC	?deallocate@?$allocator@PAVCvCitySpecializationXMLEntry@@@std@@QAEXPAPAVCvCitySpecializationXMLEntry@@I@Z ; std::allocator<CvCitySpecializationXMLEntry *>::deallocate
; Function compile flags: /Ogtpy
;	COMDAT ?deallocate@?$allocator@PAVCvCitySpecializationXMLEntry@@@std@@QAEXPAPAVCvCitySpecializationXMLEntry@@I@Z
_TEXT	SEGMENT
__Ptr$ = 8						; size = 4
___formal$ = 12						; size = 4
?deallocate@?$allocator@PAVCvCitySpecializationXMLEntry@@@std@@QAEXPAPAVCvCitySpecializationXMLEntry@@I@Z PROC ; std::allocator<CvCitySpecializationXMLEntry *>::deallocate, COMDAT
; _this$ = ecx

; 140  : 		::operator delete(_Ptr);

	mov	eax, DWORD PTR __Ptr$[esp-4]
	push	eax
	call	??3@YAXPAX@Z				; operator delete
	pop	ecx

; 141  : 		}

	ret	8
?deallocate@?$allocator@PAVCvCitySpecializationXMLEntry@@@std@@QAEXPAPAVCvCitySpecializationXMLEntry@@I@Z ENDP ; std::allocator<CvCitySpecializationXMLEntry *>::deallocate
_TEXT	ENDS
PUBLIC	??D?$_Vector_const_iterator@PAVCvAICityStrategyEntry@@V?$allocator@PAVCvAICityStrategyEntry@@@std@@@std@@QBEABQAVCvAICityStrategyEntry@@XZ ; std::_Vector_const_iterator<CvAICityStrategyEntry *,std::allocator<CvAICityStrategyEntry *> >::operator*
; Function compile flags: /Ogtpy
; File c:\program files (x86)\microsoft visual studio 9.0\vc\include\vector
;	COMDAT ??D?$_Vector_const_iterator@PAVCvAICityStrategyEntry@@V?$allocator@PAVCvAICityStrategyEntry@@@std@@@std@@QBEABQAVCvAICityStrategyEntry@@XZ
_TEXT	SEGMENT
??D?$_Vector_const_iterator@PAVCvAICityStrategyEntry@@V?$allocator@PAVCvAICityStrategyEntry@@@std@@@std@@QBEABQAVCvAICityStrategyEntry@@XZ PROC ; std::_Vector_const_iterator<CvAICityStrategyEntry *,std::allocator<CvAICityStrategyEntry *> >::operator*, COMDAT
; _this$ = ecx

; 92   : 
; 93   :  #if _HAS_ITERATOR_DEBUGGING
; 94   : 		if (this->_Mycont == 0
; 95   : 			|| _Myptr < ((_Myvec *)this->_Mycont)->_Myfirst
; 96   : 			|| ((_Myvec *)this->_Mycont)->_Mylast <= _Myptr)
; 97   : 			{
; 98   : 			_DEBUG_ERROR("vector iterator not dereferencable");
; 99   : 			_SCL_SECURE_OUT_OF_RANGE;
; 100  : 			}
; 101  :  #else
; 102  :  		_SCL_SECURE_VALIDATE(this->_Has_container());
; 103  : 		_SCL_SECURE_VALIDATE_RANGE(_Myptr < ((_Myvec *)(this->_Getmycont()))->_Mylast);
; 104  :  #endif /* _HAS_ITERATOR_DEBUGGING */
; 105  : 
; 106  : 		return (*_Myptr);

	mov	eax, DWORD PTR [ecx]

; 107  : 		}

	ret	0
??D?$_Vector_const_iterator@PAVCvAICityStrategyEntry@@V?$allocator@PAVCvAICityStrategyEntry@@@std@@@std@@QBEABQAVCvAICityStrategyEntry@@XZ ENDP ; std::_Vector_const_iterator<CvAICityStrategyEntry *,std::allocator<CvAICityStrategyEntry *> >::operator*
_TEXT	ENDS
PUBLIC	??E?$_Vector_const_iterator@PAVCvAICityStrategyEntry@@V?$allocator@PAVCvAICityStrategyEntry@@@std@@@std@@QAEAAV01@XZ ; std::_Vector_const_iterator<CvAICityStrategyEntry *,std::allocator<CvAICityStrategyEntry *> >::operator++
; Function compile flags: /Ogtpy
;	COMDAT ??E?$_Vector_const_iterator@PAVCvAICityStrategyEntry@@V?$allocator@PAVCvAICityStrategyEntry@@@std@@@std@@QAEAAV01@XZ
_TEXT	SEGMENT
??E?$_Vector_const_iterator@PAVCvAICityStrategyEntry@@V?$allocator@PAVCvAICityStrategyEntry@@@std@@@std@@QAEAAV01@XZ PROC ; std::_Vector_const_iterator<CvAICityStrategyEntry *,std::allocator<CvAICityStrategyEntry *> >::operator++, COMDAT
; _this$ = ecx

; 115  : 		{	// preincrement

	mov	eax, ecx

; 116  : 		_SCL_SECURE_VALIDATE(this->_Has_container());
; 117  : 		_SCL_SECURE_VALIDATE_RANGE(_Myptr < ((_Myvec *)(this->_Getmycont()))->_Mylast);
; 118  : 
; 119  :  #if _HAS_ITERATOR_DEBUGGING
; 120  : 		if (this->_Mycont == 0
; 121  : 			|| ((_Myvec *)this->_Mycont)->_Mylast <= _Myptr)
; 122  : 			_DEBUG_ERROR("vector iterator not incrementable");
; 123  :  #endif /* _HAS_ITERATOR_DEBUGGING */
; 124  : 
; 125  : 		++_Myptr;

	add	DWORD PTR [eax], 4

; 126  : 		return (*this);
; 127  : 		}

	ret	0
??E?$_Vector_const_iterator@PAVCvAICityStrategyEntry@@V?$allocator@PAVCvAICityStrategyEntry@@@std@@@std@@QAEAAV01@XZ ENDP ; std::_Vector_const_iterator<CvAICityStrategyEntry *,std::allocator<CvAICityStrategyEntry *> >::operator++
_TEXT	ENDS
PUBLIC	??8?$_Vector_const_iterator@PAVCvAICityStrategyEntry@@V?$allocator@PAVCvAICityStrategyEntry@@@std@@@std@@QBE_NABV01@@Z ; std::_Vector_const_iterator<CvAICityStrategyEntry *,std::allocator<CvAICityStrategyEntry *> >::operator==
; Function compile flags: /Ogtpy
;	COMDAT ??8?$_Vector_const_iterator@PAVCvAICityStrategyEntry@@V?$allocator@PAVCvAICityStrategyEntry@@@std@@@std@@QBE_NABV01@@Z
_TEXT	SEGMENT
__Right$ = 8						; size = 4
??8?$_Vector_const_iterator@PAVCvAICityStrategyEntry@@V?$allocator@PAVCvAICityStrategyEntry@@@std@@@std@@QBE_NABV01@@Z PROC ; std::_Vector_const_iterator<CvAICityStrategyEntry *,std::allocator<CvAICityStrategyEntry *> >::operator==, COMDAT
; _this$ = ecx

; 204  : 
; 205  :  #if _HAS_ITERATOR_DEBUGGING
; 206  : 		_Compat(_Right);
; 207  :  #else
; 208  : 		_SCL_SECURE_VALIDATE(this->_Has_container() && this->_Same_container(_Right));
; 209  :  #endif /* _HAS_ITERATOR_DEBUGGING */
; 210  : 
; 211  : 		return (_Myptr == _Right._Myptr);

	mov	eax, DWORD PTR [ecx]
	mov	edx, DWORD PTR __Right$[esp-4]
	xor	ecx, ecx
	cmp	eax, DWORD PTR [edx]
	sete	cl
	mov	al, cl

; 212  : 		}

	ret	4
??8?$_Vector_const_iterator@PAVCvAICityStrategyEntry@@V?$allocator@PAVCvAICityStrategyEntry@@@std@@@std@@QBE_NABV01@@Z ENDP ; std::_Vector_const_iterator<CvAICityStrategyEntry *,std::allocator<CvAICityStrategyEntry *> >::operator==
_TEXT	ENDS
PUBLIC	__TI3?AVlength_error@std@@
PUBLIC	??_C@_0BD@OLBABOEK@vector?$DMT?$DO?5too?5long?$AA@ ; `string'
PUBLIC	?_Xlen@?$vector@PAVCvAICityStrategyEntry@@V?$allocator@PAVCvAICityStrategyEntry@@@std@@@std@@KAXXZ ; std::vector<CvAICityStrategyEntry *,std::allocator<CvAICityStrategyEntry *> >::_Xlen
PUBLIC	__CTA3?AVlength_error@std@@
PUBLIC	__CT??_R0?AVlength_error@std@@@8??0length_error@std@@QAE@ABV01@@Z40
PUBLIC	??0length_error@std@@QAE@ABV01@@Z		; std::length_error::length_error
PUBLIC	__CT??_R0?AVlogic_error@std@@@8??0logic_error@std@@QAE@ABV01@@Z40
PUBLIC	??0logic_error@std@@QAE@ABV01@@Z		; std::logic_error::logic_error
PUBLIC	__CT??_R0?AVexception@std@@@8??0exception@std@@QAE@ABV01@@Z12
EXTRN	__imp_??0?$basic_string@DU?$char_traits@D@std@@V?$allocator@D@2@@std@@QAE@PBD@Z:PROC
EXTRN	__CxxThrowException@8:PROC
EXTRN	??0exception@std@@QAE@ABV01@@Z:PROC		; std::exception::exception
;	COMDAT __CT??_R0?AVexception@std@@@8??0exception@std@@QAE@ABV01@@Z12
; File c:\program files (x86)\microsoft visual studio 9.0\vc\include\stdexcept
xdata$x	SEGMENT
__CT??_R0?AVexception@std@@@8??0exception@std@@QAE@ABV01@@Z12 DD 00H
	DD	FLAT:??_R0?AVexception@std@@@8
	DD	00H
	DD	0ffffffffH
	ORG $+4
	DD	0cH
	DD	FLAT:??0exception@std@@QAE@ABV01@@Z
xdata$x	ENDS
;	COMDAT __CT??_R0?AVlogic_error@std@@@8??0logic_error@std@@QAE@ABV01@@Z40
xdata$x	SEGMENT
__CT??_R0?AVlogic_error@std@@@8??0logic_error@std@@QAE@ABV01@@Z40 DD 00H
	DD	FLAT:??_R0?AVlogic_error@std@@@8
	DD	00H
	DD	0ffffffffH
	ORG $+4
	DD	028H
	DD	FLAT:??0logic_error@std@@QAE@ABV01@@Z
xdata$x	ENDS
;	COMDAT __CT??_R0?AVlength_error@std@@@8??0length_error@std@@QAE@ABV01@@Z40
xdata$x	SEGMENT
__CT??_R0?AVlength_error@std@@@8??0length_error@std@@QAE@ABV01@@Z40 DD 00H
	DD	FLAT:??_R0?AVlength_error@std@@@8
	DD	00H
	DD	0ffffffffH
	ORG $+4
	DD	028H
	DD	FLAT:??0length_error@std@@QAE@ABV01@@Z
xdata$x	ENDS
;	COMDAT __CTA3?AVlength_error@std@@
xdata$x	SEGMENT
__CTA3?AVlength_error@std@@ DD 03H
	DD	FLAT:__CT??_R0?AVlength_error@std@@@8??0length_error@std@@QAE@ABV01@@Z40
	DD	FLAT:__CT??_R0?AVlogic_error@std@@@8??0logic_error@std@@QAE@ABV01@@Z40
	DD	FLAT:__CT??_R0?AVexception@std@@@8??0exception@std@@QAE@ABV01@@Z12
xdata$x	ENDS
;	COMDAT __TI3?AVlength_error@std@@
xdata$x	SEGMENT
__TI3?AVlength_error@std@@ DD 00H
	DD	FLAT:??1length_error@std@@UAE@XZ
	DD	00H
	DD	FLAT:__CTA3?AVlength_error@std@@
xdata$x	ENDS
;	COMDAT ??_C@_0BD@OLBABOEK@vector?$DMT?$DO?5too?5long?$AA@
CONST	SEGMENT
??_C@_0BD@OLBABOEK@vector?$DMT?$DO?5too?5long?$AA@ DB 'vector<T> too long'
	DB	00H						; `string'
CONST	ENDS
;	COMDAT xdata$x
xdata$x	SEGMENT
__unwindtable$?_Xlen@?$vector@PAVCvAICityStrategyEntry@@V?$allocator@PAVCvAICityStrategyEntry@@@std@@@std@@KAXXZ DD 0ffffffffH
	DD	FLAT:__unwindfunclet$?_Xlen@?$vector@PAVCvAICityStrategyEntry@@V?$allocator@PAVCvAICityStrategyEntry@@@std@@@std@@KAXXZ$0
	DD	00H
	DD	FLAT:__unwindfunclet$?_Xlen@?$vector@PAVCvAICityStrategyEntry@@V?$allocator@PAVCvAICityStrategyEntry@@@std@@@std@@KAXXZ$2
__ehfuncinfo$?_Xlen@?$vector@PAVCvAICityStrategyEntry@@V?$allocator@PAVCvAICityStrategyEntry@@@std@@@std@@KAXXZ DD 019930522H
	DD	02H
	DD	FLAT:__unwindtable$?_Xlen@?$vector@PAVCvAICityStrategyEntry@@V?$allocator@PAVCvAICityStrategyEntry@@@std@@@std@@KAXXZ
	DD	2 DUP(00H)
	DD	2 DUP(00H)
	DD	00H
	DD	01H
; Function compile flags: /Ogtpy
; File c:\program files (x86)\microsoft visual studio 9.0\vc\include\vector
xdata$x	ENDS
;	COMDAT ?_Xlen@?$vector@PAVCvAICityStrategyEntry@@V?$allocator@PAVCvAICityStrategyEntry@@@std@@@std@@KAXXZ
_TEXT	SEGMENT
$T231154 = -80						; size = 28
$T231153 = -52						; size = 40
__$EHRec$ = -12						; size = 12
?_Xlen@?$vector@PAVCvAICityStrategyEntry@@V?$allocator@PAVCvAICityStrategyEntry@@@std@@@std@@KAXXZ PROC ; std::vector<CvAICityStrategyEntry *,std::allocator<CvAICityStrategyEntry *> >::_Xlen, COMDAT

; 1259 : 		{	// report a length_error

	push	-1
	push	__ehhandler$?_Xlen@?$vector@PAVCvAICityStrategyEntry@@V?$allocator@PAVCvAICityStrategyEntry@@@std@@@std@@KAXXZ
	mov	eax, DWORD PTR fs:0
	push	eax
	mov	DWORD PTR fs:0, esp
	sub	esp, 68					; 00000044H

; 1260 : 		_THROW(length_error, "vector<T> too long");

	push	OFFSET ??_C@_0BD@OLBABOEK@vector?$DMT?$DO?5too?5long?$AA@
	lea	ecx, DWORD PTR $T231154[esp+84]
	call	DWORD PTR __imp_??0?$basic_string@DU?$char_traits@D@std@@V?$allocator@D@2@@std@@QAE@PBD@Z
	lea	ecx, DWORD PTR $T231153[esp+80]
	mov	DWORD PTR __$EHRec$[esp+88], 0
	call	DWORD PTR __imp_??0exception@std@@QAE@XZ
	lea	eax, DWORD PTR $T231154[esp+80]
	push	eax
	lea	ecx, DWORD PTR $T231153[esp+96]
	mov	BYTE PTR __$EHRec$[esp+92], 1
	mov	DWORD PTR $T231153[esp+84], OFFSET ??_7logic_error@std@@6B@
	call	DWORD PTR __imp_??0?$basic_string@DU?$char_traits@D@std@@V?$allocator@D@2@@std@@QAE@ABV01@@Z
	push	OFFSET __TI3?AVlength_error@std@@
	lea	ecx, DWORD PTR $T231153[esp+84]
	push	ecx
	mov	BYTE PTR __$EHRec$[esp+96], 0
	mov	DWORD PTR $T231153[esp+88], OFFSET ??_7length_error@std@@6B@
	call	__CxxThrowException@8
$LN13@Xlen:
$LN12@Xlen:
	int	3
_TEXT	ENDS
;	COMDAT text$x
text$x	SEGMENT
__unwindfunclet$?_Xlen@?$vector@PAVCvAICityStrategyEntry@@V?$allocator@PAVCvAICityStrategyEntry@@@std@@@std@@KAXXZ$0:
	lea	ecx, DWORD PTR $T231154[ebp]
	jmp	DWORD PTR __imp_??1?$basic_string@DU?$char_traits@D@std@@V?$allocator@D@2@@std@@QAE@XZ
__unwindfunclet$?_Xlen@?$vector@PAVCvAICityStrategyEntry@@V?$allocator@PAVCvAICityStrategyEntry@@@std@@@std@@KAXXZ$2:
	lea	ecx, DWORD PTR $T231153[ebp]
	jmp	DWORD PTR __imp_??1exception@std@@UAE@XZ
__ehhandler$?_Xlen@?$vector@PAVCvAICityStrategyEntry@@V?$allocator@PAVCvAICityStrategyEntry@@@std@@@std@@KAXXZ:
	mov	eax, OFFSET __ehfuncinfo$?_Xlen@?$vector@PAVCvAICityStrategyEntry@@V?$allocator@PAVCvAICityStrategyEntry@@@std@@@std@@KAXXZ
	jmp	___CxxFrameHandler3
text$x	ENDS
?_Xlen@?$vector@PAVCvAICityStrategyEntry@@V?$allocator@PAVCvAICityStrategyEntry@@@std@@@std@@KAXXZ ENDP ; std::vector<CvAICityStrategyEntry *,std::allocator<CvAICityStrategyEntry *> >::_Xlen
PUBLIC	??0?$_Container_base_aux_alloc_empty@V?$allocator@PAVCvAICityStrategyEntry@@@std@@@std@@IAE@V?$allocator@PAVCvAICityStrategyEntry@@@1@@Z ; std::_Container_base_aux_alloc_empty<std::allocator<CvAICityStrategyEntry *> >::_Container_base_aux_alloc_empty<std::allocator<CvAICityStrategyEntry *> >
; Function compile flags: /Ogtpy
; File c:\program files (x86)\microsoft visual studio 9.0\vc\include\xutility
;	COMDAT ??0?$_Container_base_aux_alloc_empty@V?$allocator@PAVCvAICityStrategyEntry@@@std@@@std@@IAE@V?$allocator@PAVCvAICityStrategyEntry@@@1@@Z
_TEXT	SEGMENT
___formal$ = 8						; size = 1
??0?$_Container_base_aux_alloc_empty@V?$allocator@PAVCvAICityStrategyEntry@@@std@@@std@@IAE@V?$allocator@PAVCvAICityStrategyEntry@@@1@@Z PROC ; std::_Container_base_aux_alloc_empty<std::allocator<CvAICityStrategyEntry *> >::_Container_base_aux_alloc_empty<std::allocator<CvAICityStrategyEntry *> >, COMDAT
; _this$ = ecx

; 618  : 	explicit _Container_base_aux_alloc_empty(_Alloc) { }

	mov	eax, ecx
	ret	4
??0?$_Container_base_aux_alloc_empty@V?$allocator@PAVCvAICityStrategyEntry@@@std@@@std@@IAE@V?$allocator@PAVCvAICityStrategyEntry@@@1@@Z ENDP ; std::_Container_base_aux_alloc_empty<std::allocator<CvAICityStrategyEntry *> >::_Container_base_aux_alloc_empty<std::allocator<CvAICityStrategyEntry *> >
_TEXT	ENDS
PUBLIC	??0?$allocator@PAVCvAICityStrategyEntry@@@std@@QAE@ABV01@@Z ; std::allocator<CvAICityStrategyEntry *>::allocator<CvAICityStrategyEntry *>
; Function compile flags: /Ogtpy
; File c:\program files (x86)\microsoft visual studio 9.0\vc\include\xmemory
;	COMDAT ??0?$allocator@PAVCvAICityStrategyEntry@@@std@@QAE@ABV01@@Z
_TEXT	SEGMENT
___formal$ = 8						; size = 4
??0?$allocator@PAVCvAICityStrategyEntry@@@std@@QAE@ABV01@@Z PROC ; std::allocator<CvAICityStrategyEntry *>::allocator<CvAICityStrategyEntry *>, COMDAT
; _this$ = ecx

; 123  : 	allocator(const allocator<_Ty>&) _THROW0()

	mov	eax, ecx

; 124  : 		{	// construct by copying (do nothing)
; 125  : 		}

	ret	4
??0?$allocator@PAVCvAICityStrategyEntry@@@std@@QAE@ABV01@@Z ENDP ; std::allocator<CvAICityStrategyEntry *>::allocator<CvAICityStrategyEntry *>
_TEXT	ENDS
PUBLIC	?deallocate@?$allocator@PAVCvAICityStrategyEntry@@@std@@QAEXPAPAVCvAICityStrategyEntry@@I@Z ; std::allocator<CvAICityStrategyEntry *>::deallocate
; Function compile flags: /Ogtpy
;	COMDAT ?deallocate@?$allocator@PAVCvAICityStrategyEntry@@@std@@QAEXPAPAVCvAICityStrategyEntry@@I@Z
_TEXT	SEGMENT
__Ptr$ = 8						; size = 4
___formal$ = 12						; size = 4
?deallocate@?$allocator@PAVCvAICityStrategyEntry@@@std@@QAEXPAPAVCvAICityStrategyEntry@@I@Z PROC ; std::allocator<CvAICityStrategyEntry *>::deallocate, COMDAT
; _this$ = ecx

; 140  : 		::operator delete(_Ptr);

	mov	eax, DWORD PTR __Ptr$[esp-4]
	push	eax
	call	??3@YAXPAX@Z				; operator delete
	pop	ecx

; 141  : 		}

	ret	8
?deallocate@?$allocator@PAVCvAICityStrategyEntry@@@std@@QAEXPAPAVCvAICityStrategyEntry@@I@Z ENDP ; std::allocator<CvAICityStrategyEntry *>::deallocate
_TEXT	ENDS
PUBLIC	??_C@_0HM@IMGGMCHG@c?3?2users?2enormousapplepie?2deskto@ ; `string'
PUBLIC	?Alloc@?$FStaticVector@UWeightedElement@?$CvWeightedVector@UCvCityBuildable@@$0OB@$00@@$0OB@$00$0A@$0A@@@IAEPAUWeightedElement@?$CvWeightedVector@UCvCityBuildable@@$0OB@$00@@I@Z ; FStaticVector<CvWeightedVector<CvCityBuildable,225,1>::WeightedElement,225,1,0,0>::Alloc
EXTRN	?FireMallocAlignedNoTracking@@YAPAXIIPBDH@Z:PROC ; FireMallocAlignedNoTracking
;	COMDAT ??_C@_0HM@IMGGMCHG@c?3?2users?2enormousapplepie?2deskto@
; File c:\users\enormousapplepie\desktop\lekmod files\lekmod dll versions\v29\lekmod_dll\fireplace\include\fireworks\ffastvector.h
CONST	SEGMENT
??_C@_0HM@IMGGMCHG@c?3?2users?2enormousapplepie?2deskto@ DB 'c:\users\eno'
	DB	'rmousapplepie\desktop\lekmod files\lekmod dll versions\v29\le'
	DB	'kmod_dll\fireplace\include\fireworks\FFastVector.h', 00H ; `string'
; Function compile flags: /Ogtpy
CONST	ENDS
;	COMDAT ?Alloc@?$FStaticVector@UWeightedElement@?$CvWeightedVector@UCvCityBuildable@@$0OB@$00@@$0OB@$00$0A@$0A@@@IAEPAUWeightedElement@?$CvWeightedVector@UCvCityBuildable@@$0OB@$00@@I@Z
_TEXT	SEGMENT
_uiSize$ = 8						; size = 4
?Alloc@?$FStaticVector@UWeightedElement@?$CvWeightedVector@UCvCityBuildable@@$0OB@$00@@$0OB@$00$0A@$0A@@@IAEPAUWeightedElement@?$CvWeightedVector@UCvCityBuildable@@$0OB@$00@@I@Z PROC ; FStaticVector<CvWeightedVector<CvCityBuildable,225,1>::WeightedElement,225,1,0,0>::Alloc, COMDAT
; _this$ = ecx

; 795  : 	T* Alloc(unsigned int uiSize){

	push	esi
	push	edi

; 796  : 		T* pRet;
; 797  : 		if( uiSize > L ){

	mov	edi, DWORD PTR _uiSize$[esp+4]
	mov	esi, ecx
	cmp	edi, 225				; 000000e1H
	jbe	SHORT $LN2@Alloc

; 798  : 			pRet = (T*)FMALLOCALIGNED( uiSize*sizeof(T), __alignof(T), AllocPool, nSubID );

	push	798					; 0000031eH
	push	OFFSET ??_C@_0HM@IMGGMCHG@c?3?2users?2enormousapplepie?2deskto@
	mov	eax, edi
	shl	eax, 4
	push	4
	push	eax
	call	?FireMallocAlignedNoTracking@@YAPAXIIPBDH@Z ; FireMallocAlignedNoTracking
	add	esp, 16					; 00000010H

; 799  : 			m_uiCurrMaxSize = uiSize;

	mov	DWORD PTR [esi+8], edi
	pop	edi
	pop	esi

; 803  : 		}
; 804  : 		return pRet;
; 805  : 	};

	ret	4
$LN2@Alloc:
	pop	edi

; 800  : 		}else{
; 801  : 			pRet = (T*)m_aData;

	lea	eax, DWORD PTR [esi+12]

; 802  : 			m_uiCurrMaxSize = L;

	mov	DWORD PTR [esi+8], 225			; 000000e1H
	pop	esi

; 803  : 		}
; 804  : 		return pRet;
; 805  : 	};

	ret	4
?Alloc@?$FStaticVector@UWeightedElement@?$CvWeightedVector@UCvCityBuildable@@$0OB@$00@@$0OB@$00$0A@$0A@@@IAEPAUWeightedElement@?$CvWeightedVector@UCvCityBuildable@@$0OB@$00@@I@Z ENDP ; FStaticVector<CvWeightedVector<CvCityBuildable,225,1>::WeightedElement,225,1,0,0>::Alloc
_TEXT	ENDS
PUBLIC	??1?$BaseVector@UWeightedElement@?$CvWeightedVector@UCvCityBuildable@@$0OB@$00@@$00@@QAE@XZ ; BaseVector<CvWeightedVector<CvCityBuildable,225,1>::WeightedElement,1>::~BaseVector<CvWeightedVector<CvCityBuildable,225,1>::WeightedElement,1>
; Function compile flags: /Ogtpy
;	COMDAT ??1?$BaseVector@UWeightedElement@?$CvWeightedVector@UCvCityBuildable@@$0OB@$00@@$00@@QAE@XZ
_TEXT	SEGMENT
??1?$BaseVector@UWeightedElement@?$CvWeightedVector@UCvCityBuildable@@$0OB@$00@@$00@@QAE@XZ PROC ; BaseVector<CvWeightedVector<CvCityBuildable,225,1>::WeightedElement,1>::~BaseVector<CvWeightedVector<CvCityBuildable,225,1>::WeightedElement,1>, COMDAT
; _this$ = ecx

; 111  : 	~BaseVector(){};

	ret	0
??1?$BaseVector@UWeightedElement@?$CvWeightedVector@UCvCityBuildable@@$0OB@$00@@$00@@QAE@XZ ENDP ; BaseVector<CvWeightedVector<CvCityBuildable,225,1>::WeightedElement,1>::~BaseVector<CvWeightedVector<CvCityBuildable,225,1>::WeightedElement,1>
_TEXT	ENDS
PUBLIC	??0?$BaseVector@UWeightedElement@?$CvWeightedVector@UCvCityBuildable@@$0OB@$00@@$00@@IAE@XZ ; BaseVector<CvWeightedVector<CvCityBuildable,225,1>::WeightedElement,1>::BaseVector<CvWeightedVector<CvCityBuildable,225,1>::WeightedElement,1>
; Function compile flags: /Ogtpy
;	COMDAT ??0?$BaseVector@UWeightedElement@?$CvWeightedVector@UCvCityBuildable@@$0OB@$00@@$00@@IAE@XZ
_TEXT	SEGMENT
??0?$BaseVector@UWeightedElement@?$CvWeightedVector@UCvCityBuildable@@$0OB@$00@@$00@@IAE@XZ PROC ; BaseVector<CvWeightedVector<CvCityBuildable,225,1>::WeightedElement,1>::BaseVector<CvWeightedVector<CvCityBuildable,225,1>::WeightedElement,1>, COMDAT
; _this$ = ecx

; 216  : 	BaseVector() : m_uiCurrSize(0), m_uiCurrMaxSize(0), m_pData(NULL) {};

	mov	eax, ecx
	xor	ecx, ecx
	mov	DWORD PTR [eax], ecx
	mov	DWORD PTR [eax+4], ecx
	mov	DWORD PTR [eax+8], ecx
	ret	0
??0?$BaseVector@UWeightedElement@?$CvWeightedVector@UCvCityBuildable@@$0OB@$00@@$00@@IAE@XZ ENDP ; BaseVector<CvWeightedVector<CvCityBuildable,225,1>::WeightedElement,1>::BaseVector<CvWeightedVector<CvCityBuildable,225,1>::WeightedElement,1>
_TEXT	ENDS
PUBLIC	?Destroy@?$BaseVector@UWeightedElement@?$CvWeightedVector@UCvCityBuildable@@$0OB@$00@@$00@@IAEXPAUWeightedElement@?$CvWeightedVector@UCvCityBuildable@@$0OB@$00@@I@Z ; BaseVector<CvWeightedVector<CvCityBuildable,225,1>::WeightedElement,1>::Destroy
; Function compile flags: /Ogtpy
;	COMDAT ?Destroy@?$BaseVector@UWeightedElement@?$CvWeightedVector@UCvCityBuildable@@$0OB@$00@@$00@@IAEXPAUWeightedElement@?$CvWeightedVector@UCvCityBuildable@@$0OB@$00@@I@Z
_TEXT	SEGMENT
_pVal$ = 8						; size = 4
_uiNumElements$ = 12					; size = 4
?Destroy@?$BaseVector@UWeightedElement@?$CvWeightedVector@UCvCityBuildable@@$0OB@$00@@$00@@IAEXPAUWeightedElement@?$CvWeightedVector@UCvCityBuildable@@$0OB@$00@@I@Z PROC ; BaseVector<CvWeightedVector<CvCityBuildable,225,1>::WeightedElement,1>::Destroy, COMDAT
; _this$ = ecx

; 221  : 		if( !bPODType){
; 222  : 			for(unsigned int i = 0; i < uiNumElements; ++i){
; 223  : 				pVal[i].~T();
; 224  : 			}
; 225  : 		}
; 226  : 	};

	ret	8
?Destroy@?$BaseVector@UWeightedElement@?$CvWeightedVector@UCvCityBuildable@@$0OB@$00@@$00@@IAEXPAUWeightedElement@?$CvWeightedVector@UCvCityBuildable@@$0OB@$00@@I@Z ENDP ; BaseVector<CvWeightedVector<CvCityBuildable,225,1>::WeightedElement,1>::Destroy
_TEXT	ENDS
PUBLIC	?_Xlen@?$vector@PAVCvCitySpecializationXMLEntry@@V?$allocator@PAVCvCitySpecializationXMLEntry@@@std@@@std@@KAXXZ ; std::vector<CvCitySpecializationXMLEntry *,std::allocator<CvCitySpecializationXMLEntry *> >::_Xlen
;	COMDAT xdata$x
; File c:\program files (x86)\microsoft visual studio 9.0\vc\include\stdexcept
xdata$x	SEGMENT
__unwindtable$?_Xlen@?$vector@PAVCvCitySpecializationXMLEntry@@V?$allocator@PAVCvCitySpecializationXMLEntry@@@std@@@std@@KAXXZ DD 0ffffffffH
	DD	FLAT:__unwindfunclet$?_Xlen@?$vector@PAVCvCitySpecializationXMLEntry@@V?$allocator@PAVCvCitySpecializationXMLEntry@@@std@@@std@@KAXXZ$0
	DD	00H
	DD	FLAT:__unwindfunclet$?_Xlen@?$vector@PAVCvCitySpecializationXMLEntry@@V?$allocator@PAVCvCitySpecializationXMLEntry@@@std@@@std@@KAXXZ$2
__ehfuncinfo$?_Xlen@?$vector@PAVCvCitySpecializationXMLEntry@@V?$allocator@PAVCvCitySpecializationXMLEntry@@@std@@@std@@KAXXZ DD 019930522H
	DD	02H
	DD	FLAT:__unwindtable$?_Xlen@?$vector@PAVCvCitySpecializationXMLEntry@@V?$allocator@PAVCvCitySpecializationXMLEntry@@@std@@@std@@KAXXZ
	DD	2 DUP(00H)
	DD	2 DUP(00H)
	DD	00H
	DD	01H
; Function compile flags: /Ogtpy
; File c:\program files (x86)\microsoft visual studio 9.0\vc\include\vector
xdata$x	ENDS
;	COMDAT ?_Xlen@?$vector@PAVCvCitySpecializationXMLEntry@@V?$allocator@PAVCvCitySpecializationXMLEntry@@@std@@@std@@KAXXZ
_TEXT	SEGMENT
$T231201 = -80						; size = 28
$T231200 = -52						; size = 40
__$EHRec$ = -12						; size = 12
?_Xlen@?$vector@PAVCvCitySpecializationXMLEntry@@V?$allocator@PAVCvCitySpecializationXMLEntry@@@std@@@std@@KAXXZ PROC ; std::vector<CvCitySpecializationXMLEntry *,std::allocator<CvCitySpecializationXMLEntry *> >::_Xlen, COMDAT

; 1259 : 		{	// report a length_error

	push	-1
	push	__ehhandler$?_Xlen@?$vector@PAVCvCitySpecializationXMLEntry@@V?$allocator@PAVCvCitySpecializationXMLEntry@@@std@@@std@@KAXXZ
	mov	eax, DWORD PTR fs:0
	push	eax
	mov	DWORD PTR fs:0, esp
	sub	esp, 68					; 00000044H

; 1260 : 		_THROW(length_error, "vector<T> too long");

	push	OFFSET ??_C@_0BD@OLBABOEK@vector?$DMT?$DO?5too?5long?$AA@
	lea	ecx, DWORD PTR $T231201[esp+84]
	call	DWORD PTR __imp_??0?$basic_string@DU?$char_traits@D@std@@V?$allocator@D@2@@std@@QAE@PBD@Z
	lea	ecx, DWORD PTR $T231200[esp+80]
	mov	DWORD PTR __$EHRec$[esp+88], 0
	call	DWORD PTR __imp_??0exception@std@@QAE@XZ
	lea	eax, DWORD PTR $T231201[esp+80]
	push	eax
	lea	ecx, DWORD PTR $T231200[esp+96]
	mov	BYTE PTR __$EHRec$[esp+92], 1
	mov	DWORD PTR $T231200[esp+84], OFFSET ??_7logic_error@std@@6B@
	call	DWORD PTR __imp_??0?$basic_string@DU?$char_traits@D@std@@V?$allocator@D@2@@std@@QAE@ABV01@@Z
	push	OFFSET __TI3?AVlength_error@std@@
	lea	ecx, DWORD PTR $T231200[esp+84]
	push	ecx
	mov	BYTE PTR __$EHRec$[esp+96], 0
	mov	DWORD PTR $T231200[esp+88], OFFSET ??_7length_error@std@@6B@
	call	__CxxThrowException@8
$LN13@Xlen@2:
$LN12@Xlen@2:
	int	3
_TEXT	ENDS
;	COMDAT text$x
text$x	SEGMENT
__unwindfunclet$?_Xlen@?$vector@PAVCvCitySpecializationXMLEntry@@V?$allocator@PAVCvCitySpecializationXMLEntry@@@std@@@std@@KAXXZ$0:
	lea	ecx, DWORD PTR $T231201[ebp]
	jmp	DWORD PTR __imp_??1?$basic_string@DU?$char_traits@D@std@@V?$allocator@D@2@@std@@QAE@XZ
__unwindfunclet$?_Xlen@?$vector@PAVCvCitySpecializationXMLEntry@@V?$allocator@PAVCvCitySpecializationXMLEntry@@@std@@@std@@KAXXZ$2:
	lea	ecx, DWORD PTR $T231200[ebp]
	jmp	DWORD PTR __imp_??1exception@std@@UAE@XZ
__ehhandler$?_Xlen@?$vector@PAVCvCitySpecializationXMLEntry@@V?$allocator@PAVCvCitySpecializationXMLEntry@@@std@@@std@@KAXXZ:
	mov	eax, OFFSET __ehfuncinfo$?_Xlen@?$vector@PAVCvCitySpecializationXMLEntry@@V?$allocator@PAVCvCitySpecializationXMLEntry@@@std@@@std@@KAXXZ
	jmp	___CxxFrameHandler3
text$x	ENDS
?_Xlen@?$vector@PAVCvCitySpecializationXMLEntry@@V?$allocator@PAVCvCitySpecializationXMLEntry@@@std@@@std@@KAXXZ ENDP ; std::vector<CvCitySpecializationXMLEntry *,std::allocator<CvCitySpecializationXMLEntry *> >::_Xlen
PUBLIC	??0?$_Container_base_aux_alloc_empty@V?$allocator@PAVCvCitySpecializationXMLEntry@@@std@@@std@@IAE@V?$allocator@PAVCvCitySpecializationXMLEntry@@@1@@Z ; std::_Container_base_aux_alloc_empty<std::allocator<CvCitySpecializationXMLEntry *> >::_Container_base_aux_alloc_empty<std::allocator<CvCitySpecializationXMLEntry *> >
; Function compile flags: /Ogtpy
; File c:\program files (x86)\microsoft visual studio 9.0\vc\include\xutility
;	COMDAT ??0?$_Container_base_aux_alloc_empty@V?$allocator@PAVCvCitySpecializationXMLEntry@@@std@@@std@@IAE@V?$allocator@PAVCvCitySpecializationXMLEntry@@@1@@Z
_TEXT	SEGMENT
___formal$ = 8						; size = 1
??0?$_Container_base_aux_alloc_empty@V?$allocator@PAVCvCitySpecializationXMLEntry@@@std@@@std@@IAE@V?$allocator@PAVCvCitySpecializationXMLEntry@@@1@@Z PROC ; std::_Container_base_aux_alloc_empty<std::allocator<CvCitySpecializationXMLEntry *> >::_Container_base_aux_alloc_empty<std::allocator<CvCitySpecializationXMLEntry *> >, COMDAT
; _this$ = ecx

; 618  : 	explicit _Container_base_aux_alloc_empty(_Alloc) { }

	mov	eax, ecx
	ret	4
??0?$_Container_base_aux_alloc_empty@V?$allocator@PAVCvCitySpecializationXMLEntry@@@std@@@std@@IAE@V?$allocator@PAVCvCitySpecializationXMLEntry@@@1@@Z ENDP ; std::_Container_base_aux_alloc_empty<std::allocator<CvCitySpecializationXMLEntry *> >::_Container_base_aux_alloc_empty<std::allocator<CvCitySpecializationXMLEntry *> >
_TEXT	ENDS
PUBLIC	??0?$_Vector_const_iterator@PAVCvAICityStrategyEntry@@V?$allocator@PAVCvAICityStrategyEntry@@@std@@@std@@QAE@PAPAVCvAICityStrategyEntry@@@Z ; std::_Vector_const_iterator<CvAICityStrategyEntry *,std::allocator<CvAICityStrategyEntry *> >::_Vector_const_iterator<CvAICityStrategyEntry *,std::allocator<CvAICityStrategyEntry *> >
; Function compile flags: /Ogtpy
; File c:\program files (x86)\microsoft visual studio 9.0\vc\include\vector
;	COMDAT ??0?$_Vector_const_iterator@PAVCvAICityStrategyEntry@@V?$allocator@PAVCvAICityStrategyEntry@@@std@@@std@@QAE@PAPAVCvAICityStrategyEntry@@@Z
_TEXT	SEGMENT
__Ptr$ = 8						; size = 4
??0?$_Vector_const_iterator@PAVCvAICityStrategyEntry@@V?$allocator@PAVCvAICityStrategyEntry@@@std@@@std@@QAE@PAPAVCvAICityStrategyEntry@@@Z PROC ; std::_Vector_const_iterator<CvAICityStrategyEntry *,std::allocator<CvAICityStrategyEntry *> >::_Vector_const_iterator<CvAICityStrategyEntry *,std::allocator<CvAICityStrategyEntry *> >, COMDAT
; _this$ = ecx

; 84   : 	explicit _Vector_const_iterator(_Tptr _Ptr)

	mov	eax, ecx

; 85   : 		{	// construct with pointer _Ptr
; 86   : 		_Myptr = _Ptr;

	mov	ecx, DWORD PTR __Ptr$[esp-4]
	mov	DWORD PTR [eax], ecx

; 87   : 		}

	ret	4
??0?$_Vector_const_iterator@PAVCvAICityStrategyEntry@@V?$allocator@PAVCvAICityStrategyEntry@@@std@@@std@@QAE@PAPAVCvAICityStrategyEntry@@@Z ENDP ; std::_Vector_const_iterator<CvAICityStrategyEntry *,std::allocator<CvAICityStrategyEntry *> >::_Vector_const_iterator<CvAICityStrategyEntry *,std::allocator<CvAICityStrategyEntry *> >
_TEXT	ENDS
PUBLIC	?GetClosureThis@?$ClosurePtr@P8GenericClass@detail@fastdelegate@@AEHHPBD@ZP6AHH0@ZP6AHH0@Z@detail@fastdelegate@@QBEPAVGenericClass@23@XZ ; fastdelegate::detail::ClosurePtr<int (__thiscall fastdelegate::detail::GenericClass::*)(int,char const *),int (__cdecl*)(int,char const *),int (__cdecl*)(int,char const *)>::GetClosureThis
; Function compile flags: /Ogtpy
; File c:\users\enormousapplepie\desktop\lekmod files\lekmod dll versions\v29\lekmod_dll\fireplace\include\fireworks\eventsystem\fastdelegate.h
;	COMDAT ?GetClosureThis@?$ClosurePtr@P8GenericClass@detail@fastdelegate@@AEHHPBD@ZP6AHH0@ZP6AHH0@Z@detail@fastdelegate@@QBEPAVGenericClass@23@XZ
_TEXT	SEGMENT
?GetClosureThis@?$ClosurePtr@P8GenericClass@detail@fastdelegate@@AEHHPBD@ZP6AHH0@ZP6AHH0@Z@detail@fastdelegate@@QBEPAVGenericClass@23@XZ PROC ; fastdelegate::detail::ClosurePtr<int (__thiscall fastdelegate::detail::GenericClass::*)(int,char const *),int (__cdecl*)(int,char const *),int (__cdecl*)(int,char const *)>::GetClosureThis, COMDAT
; _this$ = ecx

; 701  : 	inline GenericClass *GetClosureThis() const { return m_pthis; }

	mov	eax, DWORD PTR [ecx]
	ret	0
?GetClosureThis@?$ClosurePtr@P8GenericClass@detail@fastdelegate@@AEHHPBD@ZP6AHH0@ZP6AHH0@Z@detail@fastdelegate@@QBEPAVGenericClass@23@XZ ENDP ; fastdelegate::detail::ClosurePtr<int (__thiscall fastdelegate::detail::GenericClass::*)(int,char const *),int (__cdecl*)(int,char const *),int (__cdecl*)(int,char const *)>::GetClosureThis
_TEXT	ENDS
PUBLIC	?GetClosureMemPtr@?$ClosurePtr@P8GenericClass@detail@fastdelegate@@AEHHPBD@ZP6AHH0@ZP6AHH0@Z@detail@fastdelegate@@QBEP8GenericClass@23@AEHHPBD@ZXZ ; fastdelegate::detail::ClosurePtr<int (__thiscall fastdelegate::detail::GenericClass::*)(int,char const *),int (__cdecl*)(int,char const *),int (__cdecl*)(int,char const *)>::GetClosureMemPtr
; Function compile flags: /Ogtpy
;	COMDAT ?GetClosureMemPtr@?$ClosurePtr@P8GenericClass@detail@fastdelegate@@AEHHPBD@ZP6AHH0@ZP6AHH0@Z@detail@fastdelegate@@QBEP8GenericClass@23@AEHHPBD@ZXZ
_TEXT	SEGMENT
?GetClosureMemPtr@?$ClosurePtr@P8GenericClass@detail@fastdelegate@@AEHHPBD@ZP6AHH0@ZP6AHH0@Z@detail@fastdelegate@@QBEP8GenericClass@23@AEHHPBD@ZXZ PROC ; fastdelegate::detail::ClosurePtr<int (__thiscall fastdelegate::detail::GenericClass::*)(int,char const *),int (__cdecl*)(int,char const *),int (__cdecl*)(int,char const *)>::GetClosureMemPtr, COMDAT
; _this$ = ecx

; 702  : 	inline GenericMemFunc GetClosureMemPtr() const { return reinterpret_cast<GenericMemFunc>(m_pFunction); }

	mov	eax, DWORD PTR [ecx+4]
	ret	0
?GetClosureMemPtr@?$ClosurePtr@P8GenericClass@detail@fastdelegate@@AEHHPBD@ZP6AHH0@ZP6AHH0@Z@detail@fastdelegate@@QBEP8GenericClass@23@AEHHPBD@ZXZ ENDP ; fastdelegate::detail::ClosurePtr<int (__thiscall fastdelegate::detail::GenericClass::*)(int,char const *),int (__cdecl*)(int,char const *),int (__cdecl*)(int,char const *)>::GetClosureMemPtr
_TEXT	ENDS
PUBLIC	??0?$_Vector_const_iterator@PAVCvCitySpecializationXMLEntry@@V?$allocator@PAVCvCitySpecializationXMLEntry@@@std@@@std@@QAE@PAPAVCvCitySpecializationXMLEntry@@@Z ; std::_Vector_const_iterator<CvCitySpecializationXMLEntry *,std::allocator<CvCitySpecializationXMLEntry *> >::_Vector_const_iterator<CvCitySpecializationXMLEntry *,std::allocator<CvCitySpecializationXMLEntry *> >
; Function compile flags: /Ogtpy
; File c:\program files (x86)\microsoft visual studio 9.0\vc\include\vector
;	COMDAT ??0?$_Vector_const_iterator@PAVCvCitySpecializationXMLEntry@@V?$allocator@PAVCvCitySpecializationXMLEntry@@@std@@@std@@QAE@PAPAVCvCitySpecializationXMLEntry@@@Z
_TEXT	SEGMENT
__Ptr$ = 8						; size = 4
??0?$_Vector_const_iterator@PAVCvCitySpecializationXMLEntry@@V?$allocator@PAVCvCitySpecializationXMLEntry@@@std@@@std@@QAE@PAPAVCvCitySpecializationXMLEntry@@@Z PROC ; std::_Vector_const_iterator<CvCitySpecializationXMLEntry *,std::allocator<CvCitySpecializationXMLEntry *> >::_Vector_const_iterator<CvCitySpecializationXMLEntry *,std::allocator<CvCitySpecializationXMLEntry *> >, COMDAT
; _this$ = ecx

; 84   : 	explicit _Vector_const_iterator(_Tptr _Ptr)

	mov	eax, ecx

; 85   : 		{	// construct with pointer _Ptr
; 86   : 		_Myptr = _Ptr;

	mov	ecx, DWORD PTR __Ptr$[esp-4]
	mov	DWORD PTR [eax], ecx

; 87   : 		}

	ret	4
??0?$_Vector_const_iterator@PAVCvCitySpecializationXMLEntry@@V?$allocator@PAVCvCitySpecializationXMLEntry@@@std@@@std@@QAE@PAPAVCvCitySpecializationXMLEntry@@@Z ENDP ; std::_Vector_const_iterator<CvCitySpecializationXMLEntry *,std::allocator<CvCitySpecializationXMLEntry *> >::_Vector_const_iterator<CvCitySpecializationXMLEntry *,std::allocator<CvCitySpecializationXMLEntry *> >
_TEXT	ENDS
PUBLIC	?max_size@?$allocator@PAVCvAICityStrategyEntry@@@std@@QBEIXZ ; std::allocator<CvAICityStrategyEntry *>::max_size
; Function compile flags: /Ogtpy
; File c:\program files (x86)\microsoft visual studio 9.0\vc\include\xmemory
;	COMDAT ?max_size@?$allocator@PAVCvAICityStrategyEntry@@@std@@QBEIXZ
_TEXT	SEGMENT
?max_size@?$allocator@PAVCvAICityStrategyEntry@@@std@@QBEIXZ PROC ; std::allocator<CvAICityStrategyEntry *>::max_size, COMDAT
; _this$ = ecx

; 165  : 		_SIZT _Count = (_SIZT)(-1) / sizeof (_Ty);
; 166  : 		return (0 < _Count ? _Count : 1);

	mov	eax, 1073741823				; 3fffffffH

; 167  : 		}

	ret	0
?max_size@?$allocator@PAVCvAICityStrategyEntry@@@std@@QBEIXZ ENDP ; std::allocator<CvAICityStrategyEntry *>::max_size
_TEXT	ENDS
PUBLIC	?max_size@?$allocator@PAVCvCitySpecializationXMLEntry@@@std@@QBEIXZ ; std::allocator<CvCitySpecializationXMLEntry *>::max_size
; Function compile flags: /Ogtpy
;	COMDAT ?max_size@?$allocator@PAVCvCitySpecializationXMLEntry@@@std@@QBEIXZ
_TEXT	SEGMENT
?max_size@?$allocator@PAVCvCitySpecializationXMLEntry@@@std@@QBEIXZ PROC ; std::allocator<CvCitySpecializationXMLEntry *>::max_size, COMDAT
; _this$ = ecx

; 165  : 		_SIZT _Count = (_SIZT)(-1) / sizeof (_Ty);
; 166  : 		return (0 < _Count ? _Count : 1);

	mov	eax, 1073741823				; 3fffffffH

; 167  : 		}

	ret	0
?max_size@?$allocator@PAVCvCitySpecializationXMLEntry@@@std@@QBEIXZ ENDP ; std::allocator<CvCitySpecializationXMLEntry *>::max_size
_TEXT	ENDS
PUBLIC	??0?$_Vector_iterator@PAVCvCitySpecializationXMLEntry@@V?$allocator@PAVCvCitySpecializationXMLEntry@@@std@@@std@@QAE@PAPAVCvCitySpecializationXMLEntry@@@Z ; std::_Vector_iterator<CvCitySpecializationXMLEntry *,std::allocator<CvCitySpecializationXMLEntry *> >::_Vector_iterator<CvCitySpecializationXMLEntry *,std::allocator<CvCitySpecializationXMLEntry *> >
; Function compile flags: /Ogtpy
; File c:\program files (x86)\microsoft visual studio 9.0\vc\include\vector
;	COMDAT ??0?$_Vector_iterator@PAVCvCitySpecializationXMLEntry@@V?$allocator@PAVCvCitySpecializationXMLEntry@@@std@@@std@@QAE@PAPAVCvCitySpecializationXMLEntry@@@Z
_TEXT	SEGMENT
__Ptr$ = 8						; size = 4
??0?$_Vector_iterator@PAVCvCitySpecializationXMLEntry@@V?$allocator@PAVCvCitySpecializationXMLEntry@@@std@@@std@@QAE@PAPAVCvCitySpecializationXMLEntry@@@Z PROC ; std::_Vector_iterator<CvCitySpecializationXMLEntry *,std::allocator<CvCitySpecializationXMLEntry *> >::_Vector_iterator<CvCitySpecializationXMLEntry *,std::allocator<CvCitySpecializationXMLEntry *> >, COMDAT
; _this$ = ecx

; 333  : 		{	// construct with pointer _Ptr

	mov	eax, ecx
	mov	ecx, DWORD PTR __Ptr$[esp-4]
	mov	DWORD PTR [eax], ecx

; 334  : 		}

	ret	4
??0?$_Vector_iterator@PAVCvCitySpecializationXMLEntry@@V?$allocator@PAVCvCitySpecializationXMLEntry@@@std@@@std@@QAE@PAPAVCvCitySpecializationXMLEntry@@@Z ENDP ; std::_Vector_iterator<CvCitySpecializationXMLEntry *,std::allocator<CvCitySpecializationXMLEntry *> >::_Vector_iterator<CvCitySpecializationXMLEntry *,std::allocator<CvCitySpecializationXMLEntry *> >
_TEXT	ENDS
PUBLIC	??8?$_Vector_const_iterator@PAVCvCitySpecializationXMLEntry@@V?$allocator@PAVCvCitySpecializationXMLEntry@@@std@@@std@@QBE_NABV01@@Z ; std::_Vector_const_iterator<CvCitySpecializationXMLEntry *,std::allocator<CvCitySpecializationXMLEntry *> >::operator==
; Function compile flags: /Ogtpy
;	COMDAT ??8?$_Vector_const_iterator@PAVCvCitySpecializationXMLEntry@@V?$allocator@PAVCvCitySpecializationXMLEntry@@@std@@@std@@QBE_NABV01@@Z
_TEXT	SEGMENT
__Right$ = 8						; size = 4
??8?$_Vector_const_iterator@PAVCvCitySpecializationXMLEntry@@V?$allocator@PAVCvCitySpecializationXMLEntry@@@std@@@std@@QBE_NABV01@@Z PROC ; std::_Vector_const_iterator<CvCitySpecializationXMLEntry *,std::allocator<CvCitySpecializationXMLEntry *> >::operator==, COMDAT
; _this$ = ecx

; 204  : 
; 205  :  #if _HAS_ITERATOR_DEBUGGING
; 206  : 		_Compat(_Right);
; 207  :  #else
; 208  : 		_SCL_SECURE_VALIDATE(this->_Has_container() && this->_Same_container(_Right));
; 209  :  #endif /* _HAS_ITERATOR_DEBUGGING */
; 210  : 
; 211  : 		return (_Myptr == _Right._Myptr);

	mov	eax, DWORD PTR [ecx]
	mov	edx, DWORD PTR __Right$[esp-4]
	xor	ecx, ecx
	cmp	eax, DWORD PTR [edx]
	sete	cl
	mov	al, cl

; 212  : 		}

	ret	4
??8?$_Vector_const_iterator@PAVCvCitySpecializationXMLEntry@@V?$allocator@PAVCvCitySpecializationXMLEntry@@@std@@@std@@QBE_NABV01@@Z ENDP ; std::_Vector_const_iterator<CvCitySpecializationXMLEntry *,std::allocator<CvCitySpecializationXMLEntry *> >::operator==
_TEXT	ENDS
PUBLIC	??$max@H@std@@YAABHABH0@Z			; std::max<int>
; Function compile flags: /Ogtpy
; File c:\program files (x86)\microsoft visual studio 9.0\vc\include\xutility
;	COMDAT ??$max@H@std@@YAABHABH0@Z
_TEXT	SEGMENT
__Left$ = 8						; size = 4
__Right$ = 12						; size = 4
??$max@H@std@@YAABHABH0@Z PROC				; std::max<int>, COMDAT

; 3384 : 	return (_DEBUG_LT(_Left, _Right) ? _Right : _Left);

	mov	eax, DWORD PTR __Left$[esp-4]
	mov	edx, DWORD PTR [eax]
	mov	ecx, DWORD PTR __Right$[esp-4]
	cmp	edx, DWORD PTR [ecx]
	jge	SHORT $LN4@max
	mov	eax, ecx
$LN4@max:

; 3385 : 	}

	ret	0
??$max@H@std@@YAABHABH0@Z ENDP				; std::max<int>
_TEXT	ENDS
PUBLIC	??$SAFE_DELETE_ARRAY@H@@YAXAAPAH@Z		; SAFE_DELETE_ARRAY<int>
EXTRN	??_V@YAXPAX@Z:PROC				; operator delete[]
; Function compile flags: /Ogtpy
; File c:\users\enormousapplepie\desktop\lekmod files\lekmod dll versions\v29\lekmod_dll\fireplace\include\fireworks\ffiretypes.h
;	COMDAT ??$SAFE_DELETE_ARRAY@H@@YAXAAPAH@Z
_TEXT	SEGMENT
_pkInstanceArray$ = 8					; size = 4
??$SAFE_DELETE_ARRAY@H@@YAXAAPAH@Z PROC			; SAFE_DELETE_ARRAY<int>, COMDAT

; 311  : {

	push	esi

; 312  : 	delete[] pkInstanceArray;

	mov	esi, DWORD PTR _pkInstanceArray$[esp]
	mov	eax, DWORD PTR [esi]
	push	eax
	call	??_V@YAXPAX@Z				; operator delete[]
	add	esp, 4

; 313  : 	pkInstanceArray = NULL;

	mov	DWORD PTR [esi], 0
	pop	esi

; 314  : };

	ret	0
??$SAFE_DELETE_ARRAY@H@@YAXAAPAH@Z ENDP			; SAFE_DELETE_ARRAY<int>
_TEXT	ENDS
PUBLIC	??$SAFE_DELETE@VCvAICityStrategyEntry@@@@YAXAAPAVCvAICityStrategyEntry@@@Z ; SAFE_DELETE<CvAICityStrategyEntry>
; Function compile flags: /Ogtpy
;	COMDAT ??$SAFE_DELETE@VCvAICityStrategyEntry@@@@YAXAAPAVCvAICityStrategyEntry@@@Z
_TEXT	SEGMENT
_pkInstance$ = 8					; size = 4
??$SAFE_DELETE@VCvAICityStrategyEntry@@@@YAXAAPAVCvAICityStrategyEntry@@@Z PROC ; SAFE_DELETE<CvAICityStrategyEntry>, COMDAT

; 305  : {

	push	esi

; 306  : 	delete pkInstance;

	mov	esi, DWORD PTR _pkInstance$[esp]
	mov	ecx, DWORD PTR [esi]
	test	ecx, ecx
	je	SHORT $LN5@SAFE_DELET
	mov	eax, DWORD PTR [ecx]
	mov	edx, DWORD PTR [eax+16]
	push	1
	call	edx
$LN5@SAFE_DELET:

; 307  : 	pkInstance = NULL;

	mov	DWORD PTR [esi], 0
	pop	esi

; 308  : };

	ret	0
??$SAFE_DELETE@VCvAICityStrategyEntry@@@@YAXAAPAVCvAICityStrategyEntry@@@Z ENDP ; SAFE_DELETE<CvAICityStrategyEntry>
_TEXT	ENDS
PUBLIC	??$SAFE_DELETE_ARRAY@_N@@YAXAAPA_N@Z		; SAFE_DELETE_ARRAY<bool>
; Function compile flags: /Ogtpy
;	COMDAT ??$SAFE_DELETE_ARRAY@_N@@YAXAAPA_N@Z
_TEXT	SEGMENT
_pkInstanceArray$ = 8					; size = 4
??$SAFE_DELETE_ARRAY@_N@@YAXAAPA_N@Z PROC		; SAFE_DELETE_ARRAY<bool>, COMDAT

; 311  : {

	push	esi

; 312  : 	delete[] pkInstanceArray;

	mov	esi, DWORD PTR _pkInstanceArray$[esp]
	mov	eax, DWORD PTR [esi]
	push	eax
	call	??_V@YAXPAX@Z				; operator delete[]
	add	esp, 4

; 313  : 	pkInstanceArray = NULL;

	mov	DWORD PTR [esi], 0
	pop	esi

; 314  : };

	ret	0
??$SAFE_DELETE_ARRAY@_N@@YAXAAPA_N@Z ENDP		; SAFE_DELETE_ARRAY<bool>
_TEXT	ENDS
PUBLIC	??$min@H@std@@YAABHABH0@Z			; std::min<int>
; Function compile flags: /Ogtpy
; File c:\program files (x86)\microsoft visual studio 9.0\vc\include\xutility
;	COMDAT ??$min@H@std@@YAABHABH0@Z
_TEXT	SEGMENT
__Left$ = 8						; size = 4
__Right$ = 12						; size = 4
??$min@H@std@@YAABHABH0@Z PROC				; std::min<int>, COMDAT

; 3399 : 	return (_DEBUG_LT(_Right, _Left) ? _Right : _Left);

	mov	eax, DWORD PTR __Right$[esp-4]
	mov	edx, DWORD PTR [eax]
	mov	ecx, DWORD PTR __Left$[esp-4]
	cmp	edx, DWORD PTR [ecx]
	jl	SHORT $LN4@min
	mov	eax, ecx
$LN4@min:

; 3400 : 	}

	ret	0
??$min@H@std@@YAABHABH0@Z ENDP				; std::min<int>
_TEXT	ENDS
PUBLIC	__TI2?AVbad_alloc@std@@
PUBLIC	??$_Allocate@PAVCvAICityStrategyEntry@@@std@@YAPAPAVCvAICityStrategyEntry@@IPAPAV1@@Z ; std::_Allocate<CvAICityStrategyEntry *>
PUBLIC	__CTA2?AVbad_alloc@std@@
PUBLIC	__CT??_R0?AVbad_alloc@std@@@8??0bad_alloc@std@@QAE@ABV01@@Z12
PUBLIC	??0bad_alloc@std@@QAE@ABV01@@Z			; std::bad_alloc::bad_alloc
EXTRN	??2@YAPAXI@Z:PROC				; operator new
;	COMDAT __CT??_R0?AVbad_alloc@std@@@8??0bad_alloc@std@@QAE@ABV01@@Z12
; File c:\program files (x86)\microsoft visual studio 9.0\vc\include\exception
xdata$x	SEGMENT
__CT??_R0?AVbad_alloc@std@@@8??0bad_alloc@std@@QAE@ABV01@@Z12 DD 00H
	DD	FLAT:??_R0?AVbad_alloc@std@@@8
	DD	00H
	DD	0ffffffffH
	ORG $+4
	DD	0cH
	DD	FLAT:??0bad_alloc@std@@QAE@ABV01@@Z
xdata$x	ENDS
;	COMDAT __CTA2?AVbad_alloc@std@@
xdata$x	SEGMENT
__CTA2?AVbad_alloc@std@@ DD 02H
	DD	FLAT:__CT??_R0?AVbad_alloc@std@@@8??0bad_alloc@std@@QAE@ABV01@@Z12
	DD	FLAT:__CT??_R0?AVexception@std@@@8??0exception@std@@QAE@ABV01@@Z12
xdata$x	ENDS
;	COMDAT __TI2?AVbad_alloc@std@@
xdata$x	SEGMENT
__TI2?AVbad_alloc@std@@ DD 00H
	DD	FLAT:??1bad_alloc@std@@UAE@XZ
	DD	00H
	DD	FLAT:__CTA2?AVbad_alloc@std@@
; Function compile flags: /Ogtpy
; File c:\program files (x86)\microsoft visual studio 9.0\vc\include\xmemory
xdata$x	ENDS
;	COMDAT ??$_Allocate@PAVCvAICityStrategyEntry@@@std@@YAPAPAVCvAICityStrategyEntry@@IPAPAV1@@Z
_TEXT	SEGMENT
$T231287 = -12						; size = 12
$T231291 = 8						; size = 4
__Count$ = 8						; size = 4
___formal$ = 12						; size = 4
??$_Allocate@PAVCvAICityStrategyEntry@@@std@@YAPAPAVCvAICityStrategyEntry@@IPAPAV1@@Z PROC ; std::_Allocate<CvAICityStrategyEntry *>, COMDAT

; 37   : 	if (_Count <= 0)

	mov	ecx, DWORD PTR __Count$[esp-4]
	sub	esp, 12					; 0000000cH
	test	ecx, ecx
	ja	SHORT $LN3@Allocate

; 38   : 		_Count = 0;

	xor	ecx, ecx
$LN1@Allocate:

; 41   : 
; 42   : 		// allocate storage for _Count elements of type _Ty
; 43   : 	return ((_Ty _FARQ *)::operator new(_Count * sizeof (_Ty)));

	lea	edx, DWORD PTR [ecx*4]
	push	edx
	call	??2@YAPAXI@Z				; operator new
	add	esp, 4

; 44   : 	}

	add	esp, 12					; 0000000cH
	ret	0
$LN3@Allocate:

; 39   : 	else if (((_SIZT)(-1) / _Count) < sizeof (_Ty))

	or	eax, -1
	xor	edx, edx
	div	ecx
	cmp	eax, 4
	jae	SHORT $LN1@Allocate

; 40   : 		_THROW_NCEE(std::bad_alloc, NULL);

	lea	eax, DWORD PTR $T231291[esp+8]
	push	eax
	lea	ecx, DWORD PTR $T231287[esp+16]
	mov	DWORD PTR $T231291[esp+12], 0
	call	DWORD PTR __imp_??0exception@std@@QAE@ABQBD@Z
	push	OFFSET __TI2?AVbad_alloc@std@@
	lea	ecx, DWORD PTR $T231287[esp+16]
	push	ecx
	mov	DWORD PTR $T231287[esp+20], OFFSET ??_7bad_alloc@std@@6B@
	call	__CxxThrowException@8
$LN9@Allocate:
$LN8@Allocate:
	int	3
??$_Allocate@PAVCvAICityStrategyEntry@@@std@@YAPAPAVCvAICityStrategyEntry@@IPAPAV1@@Z ENDP ; std::_Allocate<CvAICityStrategyEntry *>
_TEXT	ENDS
PUBLIC	??$_Allocate@PAVCvCitySpecializationXMLEntry@@@std@@YAPAPAVCvCitySpecializationXMLEntry@@IPAPAV1@@Z ; std::_Allocate<CvCitySpecializationXMLEntry *>
; Function compile flags: /Ogtpy
;	COMDAT ??$_Allocate@PAVCvCitySpecializationXMLEntry@@@std@@YAPAPAVCvCitySpecializationXMLEntry@@IPAPAV1@@Z
_TEXT	SEGMENT
$T231297 = -12						; size = 12
$T231301 = 8						; size = 4
__Count$ = 8						; size = 4
___formal$ = 12						; size = 4
??$_Allocate@PAVCvCitySpecializationXMLEntry@@@std@@YAPAPAVCvCitySpecializationXMLEntry@@IPAPAV1@@Z PROC ; std::_Allocate<CvCitySpecializationXMLEntry *>, COMDAT

; 37   : 	if (_Count <= 0)

	mov	ecx, DWORD PTR __Count$[esp-4]
	sub	esp, 12					; 0000000cH
	test	ecx, ecx
	ja	SHORT $LN3@Allocate@2

; 38   : 		_Count = 0;

	xor	ecx, ecx
$LN1@Allocate@2:

; 41   : 
; 42   : 		// allocate storage for _Count elements of type _Ty
; 43   : 	return ((_Ty _FARQ *)::operator new(_Count * sizeof (_Ty)));

	lea	edx, DWORD PTR [ecx*4]
	push	edx
	call	??2@YAPAXI@Z				; operator new
	add	esp, 4

; 44   : 	}

	add	esp, 12					; 0000000cH
	ret	0
$LN3@Allocate@2:

; 39   : 	else if (((_SIZT)(-1) / _Count) < sizeof (_Ty))

	or	eax, -1
	xor	edx, edx
	div	ecx
	cmp	eax, 4
	jae	SHORT $LN1@Allocate@2

; 40   : 		_THROW_NCEE(std::bad_alloc, NULL);

	lea	eax, DWORD PTR $T231301[esp+8]
	push	eax
	lea	ecx, DWORD PTR $T231297[esp+16]
	mov	DWORD PTR $T231301[esp+12], 0
	call	DWORD PTR __imp_??0exception@std@@QAE@ABQBD@Z
	push	OFFSET __TI2?AVbad_alloc@std@@
	lea	ecx, DWORD PTR $T231297[esp+16]
	push	ecx
	mov	DWORD PTR $T231297[esp+20], OFFSET ??_7bad_alloc@std@@6B@
	call	__CxxThrowException@8
$LN9@Allocate@2:
$LN8@Allocate@2:
	int	3
??$_Allocate@PAVCvCitySpecializationXMLEntry@@@std@@YAPAPAVCvCitySpecializationXMLEntry@@IPAPAV1@@Z ENDP ; std::_Allocate<CvCitySpecializationXMLEntry *>
_TEXT	ENDS
PUBLIC	??_GCvBuildingProductionAI@@QAEPAXI@Z		; CvBuildingProductionAI::`scalar deleting destructor'
EXTRN	??1CvBuildingProductionAI@@QAE@XZ:PROC		; CvBuildingProductionAI::~CvBuildingProductionAI
; Function compile flags: /Ogtpy
;	COMDAT ??_GCvBuildingProductionAI@@QAEPAXI@Z
_TEXT	SEGMENT
___flags$ = 8						; size = 4
??_GCvBuildingProductionAI@@QAEPAXI@Z PROC		; CvBuildingProductionAI::`scalar deleting destructor', COMDAT
; _this$ = ecx
	push	esi
	mov	esi, ecx
	call	??1CvBuildingProductionAI@@QAE@XZ	; CvBuildingProductionAI::~CvBuildingProductionAI
	test	BYTE PTR ___flags$[esp], 1
	je	SHORT $LN4@scalar@4
	push	esi
	call	??3@YAXPAX@Z				; operator delete
	add	esp, 4
$LN4@scalar@4:
	mov	eax, esi
	pop	esi
	ret	4
??_GCvBuildingProductionAI@@QAEPAXI@Z ENDP		; CvBuildingProductionAI::`scalar deleting destructor'
_TEXT	ENDS
PUBLIC	??_GCvUnitProductionAI@@QAEPAXI@Z		; CvUnitProductionAI::`scalar deleting destructor'
EXTRN	??1CvUnitProductionAI@@QAE@XZ:PROC		; CvUnitProductionAI::~CvUnitProductionAI
; Function compile flags: /Ogtpy
;	COMDAT ??_GCvUnitProductionAI@@QAEPAXI@Z
_TEXT	SEGMENT
___flags$ = 8						; size = 4
??_GCvUnitProductionAI@@QAEPAXI@Z PROC			; CvUnitProductionAI::`scalar deleting destructor', COMDAT
; _this$ = ecx
	push	esi
	mov	esi, ecx
	call	??1CvUnitProductionAI@@QAE@XZ		; CvUnitProductionAI::~CvUnitProductionAI
	test	BYTE PTR ___flags$[esp], 1
	je	SHORT $LN4@scalar@5
	push	esi
	call	??3@YAXPAX@Z				; operator delete
	add	esp, 4
$LN4@scalar@5:
	mov	eax, esi
	pop	esi
	ret	4
??_GCvUnitProductionAI@@QAEPAXI@Z ENDP			; CvUnitProductionAI::`scalar deleting destructor'
_TEXT	ENDS
PUBLIC	??_GCvProjectProductionAI@@QAEPAXI@Z		; CvProjectProductionAI::`scalar deleting destructor'
EXTRN	??1CvProjectProductionAI@@QAE@XZ:PROC		; CvProjectProductionAI::~CvProjectProductionAI
; Function compile flags: /Ogtpy
;	COMDAT ??_GCvProjectProductionAI@@QAEPAXI@Z
_TEXT	SEGMENT
___flags$ = 8						; size = 4
??_GCvProjectProductionAI@@QAEPAXI@Z PROC		; CvProjectProductionAI::`scalar deleting destructor', COMDAT
; _this$ = ecx
	push	esi
	mov	esi, ecx
	call	??1CvProjectProductionAI@@QAE@XZ	; CvProjectProductionAI::~CvProjectProductionAI
	test	BYTE PTR ___flags$[esp], 1
	je	SHORT $LN4@scalar@6
	push	esi
	call	??3@YAXPAX@Z				; operator delete
	add	esp, 4
$LN4@scalar@6:
	mov	eax, esi
	pop	esi
	ret	4
??_GCvProjectProductionAI@@QAEPAXI@Z ENDP		; CvProjectProductionAI::`scalar deleting destructor'
_TEXT	ENDS
PUBLIC	??_GCvProcessProductionAI@@QAEPAXI@Z		; CvProcessProductionAI::`scalar deleting destructor'
EXTRN	??1CvProcessProductionAI@@QAE@XZ:PROC		; CvProcessProductionAI::~CvProcessProductionAI
; Function compile flags: /Ogtpy
;	COMDAT ??_GCvProcessProductionAI@@QAEPAXI@Z
_TEXT	SEGMENT
___flags$ = 8						; size = 4
??_GCvProcessProductionAI@@QAEPAXI@Z PROC		; CvProcessProductionAI::`scalar deleting destructor', COMDAT
; _this$ = ecx
	push	esi
	mov	esi, ecx
	call	??1CvProcessProductionAI@@QAE@XZ	; CvProcessProductionAI::~CvProcessProductionAI
	test	BYTE PTR ___flags$[esp], 1
	je	SHORT $LN4@scalar@7
	push	esi
	call	??3@YAXPAX@Z				; operator delete
	add	esp, 4
$LN4@scalar@7:
	mov	eax, esi
	pop	esi
	ret	4
??_GCvProcessProductionAI@@QAEPAXI@Z ENDP		; CvProcessProductionAI::`scalar deleting destructor'
_TEXT	ENDS
PUBLIC	?getArray@?$ArrayWrapper@H@@QAEPAHXZ		; ArrayWrapper<int>::getArray
; Function compile flags: /Ogtpy
; File c:\users\enormousapplepie\desktop\lekmod files\lekmod dll versions\v29\lekmod_dll\fireplace\include\fireworks\fdatastream.h
;	COMDAT ?getArray@?$ArrayWrapper@H@@QAEPAHXZ
_TEXT	SEGMENT
?getArray@?$ArrayWrapper@H@@QAEPAHXZ PROC		; ArrayWrapper<int>::getArray, COMDAT
; _this$ = ecx

; 382  : 		return m_values;

	mov	eax, DWORD PTR [ecx]

; 383  : 	}

	ret	0
?getArray@?$ArrayWrapper@H@@QAEPAHXZ ENDP		; ArrayWrapper<int>::getArray
_TEXT	ENDS
PUBLIC	?getArray@?$ArrayWrapper@H@@QBEPBHXZ		; ArrayWrapper<int>::getArray
; Function compile flags: /Ogtpy
;	COMDAT ?getArray@?$ArrayWrapper@H@@QBEPBHXZ
_TEXT	SEGMENT
?getArray@?$ArrayWrapper@H@@QBEPBHXZ PROC		; ArrayWrapper<int>::getArray, COMDAT
; _this$ = ecx

; 386  : 		return m_values;

	mov	eax, DWORD PTR [ecx]

; 387  : 	}

	ret	0
?getArray@?$ArrayWrapper@H@@QBEPBHXZ ENDP		; ArrayWrapper<int>::getArray
_TEXT	ENDS
PUBLIC	?getCount@?$ArrayWrapper@H@@QBEHXZ		; ArrayWrapper<int>::getCount
; Function compile flags: /Ogtpy
;	COMDAT ?getCount@?$ArrayWrapper@H@@QBEHXZ
_TEXT	SEGMENT
?getCount@?$ArrayWrapper@H@@QBEHXZ PROC			; ArrayWrapper<int>::getCount, COMDAT
; _this$ = ecx

; 391  : 		return m_count;

	mov	eax, DWORD PTR [ecx+4]

; 392  : 	}

	ret	0
?getCount@?$ArrayWrapper@H@@QBEHXZ ENDP			; ArrayWrapper<int>::getCount
_TEXT	ENDS
PUBLIC	??$_Dist_type@PAE@std@@YAPAHPAE@Z		; std::_Dist_type<unsigned char *>
; Function compile flags: /Ogtpy
; File c:\program files (x86)\microsoft visual studio 9.0\vc\include\xutility
;	COMDAT ??$_Dist_type@PAE@std@@YAPAHPAE@Z
_TEXT	SEGMENT
___formal$ = 8						; size = 4
??$_Dist_type@PAE@std@@YAPAHPAE@Z PROC			; std::_Dist_type<unsigned char *>, COMDAT

; 1831 : 	return (0);

	xor	eax, eax

; 1832 : 	}

	ret	0
??$_Dist_type@PAE@std@@YAPAHPAE@Z ENDP			; std::_Dist_type<unsigned char *>
_TEXT	ENDS
PUBLIC	??$_Val_type@PAE@std@@YAPAEPAE@Z		; std::_Val_type<unsigned char *>
; Function compile flags: /Ogtpy
;	COMDAT ??$_Val_type@PAE@std@@YAPAEPAE@Z
_TEXT	SEGMENT
___formal$ = 8						; size = 4
??$_Val_type@PAE@std@@YAPAEPAE@Z PROC			; std::_Val_type<unsigned char *>, COMDAT

; 1766 : 	return (0);

	xor	eax, eax

; 1767 : 	}

	ret	0
??$_Val_type@PAE@std@@YAPAEPAE@Z ENDP			; std::_Val_type<unsigned char *>
_TEXT	ENDS
PUBLIC	??$_Iter_random@PAPAVCvCitySpecializationXMLEntry@@PAPAV1@@std@@YA?AUrandom_access_iterator_tag@0@ABQAPAVCvCitySpecializationXMLEntry@@0@Z ; std::_Iter_random<CvCitySpecializationXMLEntry * *,CvCitySpecializationXMLEntry * *>
; Function compile flags: /Ogtpy
;	COMDAT ??$_Iter_random@PAPAVCvCitySpecializationXMLEntry@@PAPAV1@@std@@YA?AUrandom_access_iterator_tag@0@ABQAPAVCvCitySpecializationXMLEntry@@0@Z
_TEXT	SEGMENT
___$ReturnUdt$ = 8					; size = 4
___formal$ = 12						; size = 4
___formal$ = 16						; size = 4
??$_Iter_random@PAPAVCvCitySpecializationXMLEntry@@PAPAV1@@std@@YA?AUrandom_access_iterator_tag@0@ABQAPAVCvCitySpecializationXMLEntry@@0@Z PROC ; std::_Iter_random<CvCitySpecializationXMLEntry * *,CvCitySpecializationXMLEntry * *>, COMDAT

; 994  : 	typename _Iter_random_helper<
; 995  : 		iterator_traits<_Iter1>::iterator_category, 
; 996  : 		iterator_traits<_Iter2>::iterator_category>::_Iter_random_cat _Cat;
; 997  : 	return (_Cat);

	mov	eax, DWORD PTR ___$ReturnUdt$[esp-4]

; 998  : 	}

	ret	0
??$_Iter_random@PAPAVCvCitySpecializationXMLEntry@@PAPAV1@@std@@YA?AUrandom_access_iterator_tag@0@ABQAPAVCvCitySpecializationXMLEntry@@0@Z ENDP ; std::_Iter_random<CvCitySpecializationXMLEntry * *,CvCitySpecializationXMLEntry * *>
_TEXT	ENDS
PUBLIC	??$_Ptr_cat@PAPAVCvCitySpecializationXMLEntry@@PAPAV1@@std@@YA?AU_Scalar_ptr_iterator_tag@0@AAPAPAVCvCitySpecializationXMLEntry@@0@Z ; std::_Ptr_cat<CvCitySpecializationXMLEntry * *,CvCitySpecializationXMLEntry * *>
; Function compile flags: /Ogtpy
;	COMDAT ??$_Ptr_cat@PAPAVCvCitySpecializationXMLEntry@@PAPAV1@@std@@YA?AU_Scalar_ptr_iterator_tag@0@AAPAPAVCvCitySpecializationXMLEntry@@0@Z
_TEXT	SEGMENT
__Cat$ = -1						; size = 1
___formal$ = 8						; size = 4
___formal$ = 12						; size = 4
??$_Ptr_cat@PAPAVCvCitySpecializationXMLEntry@@PAPAV1@@std@@YA?AU_Scalar_ptr_iterator_tag@0@AAPAPAVCvCitySpecializationXMLEntry@@0@Z PROC ; std::_Ptr_cat<CvCitySpecializationXMLEntry * *,CvCitySpecializationXMLEntry * *>, COMDAT

; 1509 : 	{

	push	ecx

; 1510 : 	typename _Ptr_cat_helper<_T1, _T2>::_Ptr_cat _Cat;
; 1511 : 	return (_Cat);

	mov	al, BYTE PTR __Cat$[esp+4]

; 1512 : 	}

	pop	ecx
	ret	0
??$_Ptr_cat@PAPAVCvCitySpecializationXMLEntry@@PAPAV1@@std@@YA?AU_Scalar_ptr_iterator_tag@0@AAPAPAVCvCitySpecializationXMLEntry@@0@Z ENDP ; std::_Ptr_cat<CvCitySpecializationXMLEntry * *,CvCitySpecializationXMLEntry * *>
_TEXT	ENDS
PUBLIC	??$_Copy_opt@PAPAVCvCitySpecializationXMLEntry@@PAPAV1@Urandom_access_iterator_tag@std@@@std@@YAPAPAVCvCitySpecializationXMLEntry@@PAPAV1@00Urandom_access_iterator_tag@0@U_Scalar_ptr_iterator_tag@0@U_Range_checked_iterator_tag@0@@Z ; std::_Copy_opt<CvCitySpecializationXMLEntry * *,CvCitySpecializationXMLEntry * *,std::random_access_iterator_tag>
EXTRN	__imp__memmove_s:PROC
; Function compile flags: /Ogtpy
;	COMDAT ??$_Copy_opt@PAPAVCvCitySpecializationXMLEntry@@PAPAV1@Urandom_access_iterator_tag@std@@@std@@YAPAPAVCvCitySpecializationXMLEntry@@PAPAV1@00Urandom_access_iterator_tag@0@U_Scalar_ptr_iterator_tag@0@U_Range_checked_iterator_tag@0@@Z
_TEXT	SEGMENT
__First$ = 8						; size = 4
__Last$ = 12						; size = 4
__Dest$ = 16						; size = 4
___formal$ = 20						; size = 1
___formal$ = 24						; size = 1
___formal$ = 28						; size = 1
??$_Copy_opt@PAPAVCvCitySpecializationXMLEntry@@PAPAV1@Urandom_access_iterator_tag@std@@@std@@YAPAPAVCvCitySpecializationXMLEntry@@PAPAV1@00Urandom_access_iterator_tag@0@U_Scalar_ptr_iterator_tag@0@U_Range_checked_iterator_tag@0@@Z PROC ; std::_Copy_opt<CvCitySpecializationXMLEntry * *,CvCitySpecializationXMLEntry * *,std::random_access_iterator_tag>, COMDAT

; 2495 : 
; 2496 :  #if _HAS_ITERATOR_DEBUGGING
; 2497 : 	_DEBUG_RANGE(_First, _Last);
; 2498 : 	if (_First != _Last)
; 2499 : 		_DEBUG_POINTER(_Dest);
; 2500 :  #endif /* _HAS_ITERATOR_DEBUGGING */
; 2501 : 
; 2502 : 	ptrdiff_t _Off = _Last - _First;	// NB: non-overlapping move

	mov	eax, DWORD PTR __Last$[esp-4]
	mov	edx, DWORD PTR __First$[esp-4]
	sub	eax, edx
	push	esi
	sar	eax, 2
	push	edi

; 2503 : 	// if _OutIt is range checked, this will make sure there is enough space for the memmove
; 2504 : 	_OutIt _Result = _Dest + _Off;

	mov	edi, DWORD PTR __Dest$[esp+4]
	lea	ecx, DWORD PTR [eax*4]
	lea	esi, DWORD PTR [ecx+edi]

; 2505 : 	if (_Off > 0)

	test	eax, eax
	jle	SHORT $LN4@Copy_opt

; 2506 : 		_CRT_SECURE_MEMMOVE(&*_Dest, _Off * sizeof (*_First), &*_First, _Off * sizeof (*_First));

	push	ecx
	push	edx
	push	ecx
	push	edi
	call	DWORD PTR __imp__memmove_s
	add	esp, 16					; 00000010H
$LN4@Copy_opt:
	pop	edi

; 2507 : 	return _Result;

	mov	eax, esi
	pop	esi

; 2508 : 	}

	ret	0
??$_Copy_opt@PAPAVCvCitySpecializationXMLEntry@@PAPAV1@Urandom_access_iterator_tag@std@@@std@@YAPAPAVCvCitySpecializationXMLEntry@@PAPAV1@00Urandom_access_iterator_tag@0@U_Scalar_ptr_iterator_tag@0@U_Range_checked_iterator_tag@0@@Z ENDP ; std::_Copy_opt<CvCitySpecializationXMLEntry * *,CvCitySpecializationXMLEntry * *,std::random_access_iterator_tag>
_TEXT	ENDS
PUBLIC	??$_Iter_random@PAPAVCvAICityStrategyEntry@@PAPAV1@@std@@YA?AUrandom_access_iterator_tag@0@ABQAPAVCvAICityStrategyEntry@@0@Z ; std::_Iter_random<CvAICityStrategyEntry * *,CvAICityStrategyEntry * *>
; Function compile flags: /Ogtpy
;	COMDAT ??$_Iter_random@PAPAVCvAICityStrategyEntry@@PAPAV1@@std@@YA?AUrandom_access_iterator_tag@0@ABQAPAVCvAICityStrategyEntry@@0@Z
_TEXT	SEGMENT
___$ReturnUdt$ = 8					; size = 4
___formal$ = 12						; size = 4
___formal$ = 16						; size = 4
??$_Iter_random@PAPAVCvAICityStrategyEntry@@PAPAV1@@std@@YA?AUrandom_access_iterator_tag@0@ABQAPAVCvAICityStrategyEntry@@0@Z PROC ; std::_Iter_random<CvAICityStrategyEntry * *,CvAICityStrategyEntry * *>, COMDAT

; 994  : 	typename _Iter_random_helper<
; 995  : 		iterator_traits<_Iter1>::iterator_category, 
; 996  : 		iterator_traits<_Iter2>::iterator_category>::_Iter_random_cat _Cat;
; 997  : 	return (_Cat);

	mov	eax, DWORD PTR ___$ReturnUdt$[esp-4]

; 998  : 	}

	ret	0
??$_Iter_random@PAPAVCvAICityStrategyEntry@@PAPAV1@@std@@YA?AUrandom_access_iterator_tag@0@ABQAPAVCvAICityStrategyEntry@@0@Z ENDP ; std::_Iter_random<CvAICityStrategyEntry * *,CvAICityStrategyEntry * *>
_TEXT	ENDS
PUBLIC	??$_Ptr_cat@PAPAVCvAICityStrategyEntry@@PAPAV1@@std@@YA?AU_Scalar_ptr_iterator_tag@0@AAPAPAVCvAICityStrategyEntry@@0@Z ; std::_Ptr_cat<CvAICityStrategyEntry * *,CvAICityStrategyEntry * *>
; Function compile flags: /Ogtpy
;	COMDAT ??$_Ptr_cat@PAPAVCvAICityStrategyEntry@@PAPAV1@@std@@YA?AU_Scalar_ptr_iterator_tag@0@AAPAPAVCvAICityStrategyEntry@@0@Z
_TEXT	SEGMENT
__Cat$ = -1						; size = 1
___formal$ = 8						; size = 4
___formal$ = 12						; size = 4
??$_Ptr_cat@PAPAVCvAICityStrategyEntry@@PAPAV1@@std@@YA?AU_Scalar_ptr_iterator_tag@0@AAPAPAVCvAICityStrategyEntry@@0@Z PROC ; std::_Ptr_cat<CvAICityStrategyEntry * *,CvAICityStrategyEntry * *>, COMDAT

; 1509 : 	{

	push	ecx

; 1510 : 	typename _Ptr_cat_helper<_T1, _T2>::_Ptr_cat _Cat;
; 1511 : 	return (_Cat);

	mov	al, BYTE PTR __Cat$[esp+4]

; 1512 : 	}

	pop	ecx
	ret	0
??$_Ptr_cat@PAPAVCvAICityStrategyEntry@@PAPAV1@@std@@YA?AU_Scalar_ptr_iterator_tag@0@AAPAPAVCvAICityStrategyEntry@@0@Z ENDP ; std::_Ptr_cat<CvAICityStrategyEntry * *,CvAICityStrategyEntry * *>
_TEXT	ENDS
PUBLIC	??$_Copy_opt@PAPAVCvAICityStrategyEntry@@PAPAV1@Urandom_access_iterator_tag@std@@@std@@YAPAPAVCvAICityStrategyEntry@@PAPAV1@00Urandom_access_iterator_tag@0@U_Scalar_ptr_iterator_tag@0@U_Range_checked_iterator_tag@0@@Z ; std::_Copy_opt<CvAICityStrategyEntry * *,CvAICityStrategyEntry * *,std::random_access_iterator_tag>
; Function compile flags: /Ogtpy
;	COMDAT ??$_Copy_opt@PAPAVCvAICityStrategyEntry@@PAPAV1@Urandom_access_iterator_tag@std@@@std@@YAPAPAVCvAICityStrategyEntry@@PAPAV1@00Urandom_access_iterator_tag@0@U_Scalar_ptr_iterator_tag@0@U_Range_checked_iterator_tag@0@@Z
_TEXT	SEGMENT
__First$ = 8						; size = 4
__Last$ = 12						; size = 4
__Dest$ = 16						; size = 4
___formal$ = 20						; size = 1
___formal$ = 24						; size = 1
___formal$ = 28						; size = 1
??$_Copy_opt@PAPAVCvAICityStrategyEntry@@PAPAV1@Urandom_access_iterator_tag@std@@@std@@YAPAPAVCvAICityStrategyEntry@@PAPAV1@00Urandom_access_iterator_tag@0@U_Scalar_ptr_iterator_tag@0@U_Range_checked_iterator_tag@0@@Z PROC ; std::_Copy_opt<CvAICityStrategyEntry * *,CvAICityStrategyEntry * *,std::random_access_iterator_tag>, COMDAT

; 2495 : 
; 2496 :  #if _HAS_ITERATOR_DEBUGGING
; 2497 : 	_DEBUG_RANGE(_First, _Last);
; 2498 : 	if (_First != _Last)
; 2499 : 		_DEBUG_POINTER(_Dest);
; 2500 :  #endif /* _HAS_ITERATOR_DEBUGGING */
; 2501 : 
; 2502 : 	ptrdiff_t _Off = _Last - _First;	// NB: non-overlapping move

	mov	eax, DWORD PTR __Last$[esp-4]
	mov	edx, DWORD PTR __First$[esp-4]
	sub	eax, edx
	push	esi
	sar	eax, 2
	push	edi

; 2503 : 	// if _OutIt is range checked, this will make sure there is enough space for the memmove
; 2504 : 	_OutIt _Result = _Dest + _Off;

	mov	edi, DWORD PTR __Dest$[esp+4]
	lea	ecx, DWORD PTR [eax*4]
	lea	esi, DWORD PTR [ecx+edi]

; 2505 : 	if (_Off > 0)

	test	eax, eax
	jle	SHORT $LN4@Copy_opt@2

; 2506 : 		_CRT_SECURE_MEMMOVE(&*_Dest, _Off * sizeof (*_First), &*_First, _Off * sizeof (*_First));

	push	ecx
	push	edx
	push	ecx
	push	edi
	call	DWORD PTR __imp__memmove_s
	add	esp, 16					; 00000010H
$LN4@Copy_opt@2:
	pop	edi

; 2507 : 	return _Result;

	mov	eax, esi
	pop	esi

; 2508 : 	}

	ret	0
??$_Copy_opt@PAPAVCvAICityStrategyEntry@@PAPAV1@Urandom_access_iterator_tag@std@@@std@@YAPAPAVCvAICityStrategyEntry@@PAPAV1@00Urandom_access_iterator_tag@0@U_Scalar_ptr_iterator_tag@0@U_Range_checked_iterator_tag@0@@Z ENDP ; std::_Copy_opt<CvAICityStrategyEntry * *,CvAICityStrategyEntry * *,std::random_access_iterator_tag>
_TEXT	ENDS
PUBLIC	??$_Destroy_range@V?$allocator@PAVCvCitySpecializationXMLEntry@@@std@@@std@@YAXPAPAVCvCitySpecializationXMLEntry@@0AAV?$allocator@PAVCvCitySpecializationXMLEntry@@@0@U_Scalar_ptr_iterator_tag@0@@Z ; std::_Destroy_range<std::allocator<CvCitySpecializationXMLEntry *> >
; Function compile flags: /Ogtpy
; File c:\program files (x86)\microsoft visual studio 9.0\vc\include\xmemory
;	COMDAT ??$_Destroy_range@V?$allocator@PAVCvCitySpecializationXMLEntry@@@std@@@std@@YAXPAPAVCvCitySpecializationXMLEntry@@0AAV?$allocator@PAVCvCitySpecializationXMLEntry@@@0@U_Scalar_ptr_iterator_tag@0@@Z
_TEXT	SEGMENT
__First$ = 8						; size = 4
__Last$ = 12						; size = 4
__Al$ = 16						; size = 4
___formal$ = 20						; size = 1
??$_Destroy_range@V?$allocator@PAVCvCitySpecializationXMLEntry@@@std@@@std@@YAXPAPAVCvCitySpecializationXMLEntry@@0AAV?$allocator@PAVCvCitySpecializationXMLEntry@@@0@U_Scalar_ptr_iterator_tag@0@@Z PROC ; std::_Destroy_range<std::allocator<CvCitySpecializationXMLEntry *> >, COMDAT

; 242  : 	}

	ret	0
??$_Destroy_range@V?$allocator@PAVCvCitySpecializationXMLEntry@@@std@@@std@@YAXPAPAVCvCitySpecializationXMLEntry@@0AAV?$allocator@PAVCvCitySpecializationXMLEntry@@@0@U_Scalar_ptr_iterator_tag@0@@Z ENDP ; std::_Destroy_range<std::allocator<CvCitySpecializationXMLEntry *> >
_TEXT	ENDS
PUBLIC	??$_Destroy_range@V?$allocator@PAVCvAICityStrategyEntry@@@std@@@std@@YAXPAPAVCvAICityStrategyEntry@@0AAV?$allocator@PAVCvAICityStrategyEntry@@@0@U_Scalar_ptr_iterator_tag@0@@Z ; std::_Destroy_range<std::allocator<CvAICityStrategyEntry *> >
; Function compile flags: /Ogtpy
;	COMDAT ??$_Destroy_range@V?$allocator@PAVCvAICityStrategyEntry@@@std@@@std@@YAXPAPAVCvAICityStrategyEntry@@0AAV?$allocator@PAVCvAICityStrategyEntry@@@0@U_Scalar_ptr_iterator_tag@0@@Z
_TEXT	SEGMENT
__First$ = 8						; size = 4
__Last$ = 12						; size = 4
__Al$ = 16						; size = 4
___formal$ = 20						; size = 1
??$_Destroy_range@V?$allocator@PAVCvAICityStrategyEntry@@@std@@@std@@YAXPAPAVCvAICityStrategyEntry@@0AAV?$allocator@PAVCvAICityStrategyEntry@@@0@U_Scalar_ptr_iterator_tag@0@@Z PROC ; std::_Destroy_range<std::allocator<CvAICityStrategyEntry *> >, COMDAT

; 242  : 	}

	ret	0
??$_Destroy_range@V?$allocator@PAVCvAICityStrategyEntry@@@std@@@std@@YAXPAPAVCvAICityStrategyEntry@@0AAV?$allocator@PAVCvAICityStrategyEntry@@@0@U_Scalar_ptr_iterator_tag@0@@Z ENDP ; std::_Destroy_range<std::allocator<CvAICityStrategyEntry *> >
_TEXT	ENDS
PUBLIC	??0?$_Temp_iterator@E@std@@QAE@H@Z		; std::_Temp_iterator<unsigned char>::_Temp_iterator<unsigned char>
; Function compile flags: /Ogtpy
; File c:\program files (x86)\microsoft visual studio 9.0\vc\include\memory
;	COMDAT ??0?$_Temp_iterator@E@std@@QAE@H@Z
_TEXT	SEGMENT
__Count$ = 8						; size = 4
??0?$_Temp_iterator@E@std@@QAE@H@Z PROC			; std::_Temp_iterator<unsigned char>::_Temp_iterator<unsigned char>, COMDAT
; _this$ = ecx

; 526  : 	_Temp_iterator(_PDFT _Count = 0)

	mov	eax, ecx

; 527  : 		{	// construct from desired temporary buffer size
; 528  : 		_Buf._Begin = 0;

	xor	ecx, ecx
	mov	DWORD PTR [eax], ecx

; 529  : 		_Buf._Current = 0;

	mov	DWORD PTR [eax+4], ecx

; 530  : 		_Buf._Hiwater = 0;

	mov	DWORD PTR [eax+8], ecx

; 531  : 		_Buf._Size = _Count;	// memorize size for lazy allocation

	mov	ecx, DWORD PTR __Count$[esp-4]
	mov	DWORD PTR [eax+12], ecx

; 532  : 		_Pbuf = &_Buf;

	mov	DWORD PTR [eax+16], eax

; 533  : 		}

	ret	4
??0?$_Temp_iterator@E@std@@QAE@H@Z ENDP			; std::_Temp_iterator<unsigned char>::_Temp_iterator<unsigned char>
_TEXT	ENDS
PUBLIC	??$implicit_cast@PAVCvGame@@PAV1@@detail@fastdelegate@@YAPAVCvGame@@PAV2@@Z ; fastdelegate::detail::implicit_cast<CvGame *,CvGame *>
; Function compile flags: /Ogtpy
; File c:\users\enormousapplepie\desktop\lekmod files\lekmod dll versions\v29\lekmod_dll\fireplace\include\fireworks\eventsystem\fastdelegate.h
;	COMDAT ??$implicit_cast@PAVCvGame@@PAV1@@detail@fastdelegate@@YAPAVCvGame@@PAV2@@Z
_TEXT	SEGMENT
_input$ = 8						; size = 4
??$implicit_cast@PAVCvGame@@PAV1@@detail@fastdelegate@@YAPAVCvGame@@PAV2@@Z PROC ; fastdelegate::detail::implicit_cast<CvGame *,CvGame *>, COMDAT

; 153  : 	return input;

	mov	eax, DWORD PTR _input$[esp-4]

; 154  : }

	ret	0
??$implicit_cast@PAVCvGame@@PAV1@@detail@fastdelegate@@YAPAVCvGame@@PAV2@@Z ENDP ; fastdelegate::detail::implicit_cast<CvGame *,CvGame *>
_TEXT	ENDS
PUBLIC	??$_Ptr_cat@V?$_Vector_const_iterator@PAVCvCitySpecializationXMLEntry@@V?$allocator@PAVCvCitySpecializationXMLEntry@@@std@@@std@@PAPAVCvCitySpecializationXMLEntry@@@std@@YA?AU_Nonscalar_ptr_iterator_tag@0@AAV?$_Vector_const_iterator@PAVCvCitySpecializationXMLEntry@@V?$allocator@PAVCvCitySpecializationXMLEntry@@@std@@@0@AAPAPAVCvCitySpecializationXMLEntry@@@Z ; std::_Ptr_cat<std::_Vector_const_iterator<CvCitySpecializationXMLEntry *,std::allocator<CvCitySpecializationXMLEntry *> >,CvCitySpecializationXMLEntry * *>
; Function compile flags: /Ogtpy
; File c:\program files (x86)\microsoft visual studio 9.0\vc\include\xutility
;	COMDAT ??$_Ptr_cat@V?$_Vector_const_iterator@PAVCvCitySpecializationXMLEntry@@V?$allocator@PAVCvCitySpecializationXMLEntry@@@std@@@std@@PAPAVCvCitySpecializationXMLEntry@@@std@@YA?AU_Nonscalar_ptr_iterator_tag@0@AAV?$_Vector_const_iterator@PAVCvCitySpecializationXMLEntry@@V?$allocator@PAVCvCitySpecializationXMLEntry@@@std@@@0@AAPAPAVCvCitySpecializationXMLEntry@@@Z
_TEXT	SEGMENT
__Cat$ = -1						; size = 1
___formal$ = 8						; size = 4
___formal$ = 12						; size = 4
??$_Ptr_cat@V?$_Vector_const_iterator@PAVCvCitySpecializationXMLEntry@@V?$allocator@PAVCvCitySpecializationXMLEntry@@@std@@@std@@PAPAVCvCitySpecializationXMLEntry@@@std@@YA?AU_Nonscalar_ptr_iterator_tag@0@AAV?$_Vector_const_iterator@PAVCvCitySpecializationXMLEntry@@V?$allocator@PAVCvCitySpecializationXMLEntry@@@std@@@0@AAPAPAVCvCitySpecializationXMLEntry@@@Z PROC ; std::_Ptr_cat<std::_Vector_const_iterator<CvCitySpecializationXMLEntry *,std::allocator<CvCitySpecializationXMLEntry *> >,CvCitySpecializationXMLEntry * *>, COMDAT

; 1509 : 	{

	push	ecx

; 1510 : 	typename _Ptr_cat_helper<_T1, _T2>::_Ptr_cat _Cat;
; 1511 : 	return (_Cat);

	mov	al, BYTE PTR __Cat$[esp+4]

; 1512 : 	}

	pop	ecx
	ret	0
??$_Ptr_cat@V?$_Vector_const_iterator@PAVCvCitySpecializationXMLEntry@@V?$allocator@PAVCvCitySpecializationXMLEntry@@@std@@@std@@PAPAVCvCitySpecializationXMLEntry@@@std@@YA?AU_Nonscalar_ptr_iterator_tag@0@AAV?$_Vector_const_iterator@PAVCvCitySpecializationXMLEntry@@V?$allocator@PAVCvCitySpecializationXMLEntry@@@std@@@0@AAPAPAVCvCitySpecializationXMLEntry@@@Z ENDP ; std::_Ptr_cat<std::_Vector_const_iterator<CvCitySpecializationXMLEntry *,std::allocator<CvCitySpecializationXMLEntry *> >,CvCitySpecializationXMLEntry * *>
_TEXT	ENDS
PUBLIC	??$_Uninit_copy@PAPAVCvCitySpecializationXMLEntry@@PAPAV1@V?$allocator@PAVCvCitySpecializationXMLEntry@@@std@@@std@@YAPAPAVCvCitySpecializationXMLEntry@@PAPAV1@00AAV?$allocator@PAVCvCitySpecializationXMLEntry@@@0@U_Scalar_ptr_iterator_tag@0@U_Range_checked_iterator_tag@0@@Z ; std::_Uninit_copy<CvCitySpecializationXMLEntry * *,CvCitySpecializationXMLEntry * *,std::allocator<CvCitySpecializationXMLEntry *> >
; Function compile flags: /Ogtpy
; File c:\program files (x86)\microsoft visual studio 9.0\vc\include\memory
;	COMDAT ??$_Uninit_copy@PAPAVCvCitySpecializationXMLEntry@@PAPAV1@V?$allocator@PAVCvCitySpecializationXMLEntry@@@std@@@std@@YAPAPAVCvCitySpecializationXMLEntry@@PAPAV1@00AAV?$allocator@PAVCvCitySpecializationXMLEntry@@@0@U_Scalar_ptr_iterator_tag@0@U_Range_checked_iterator_tag@0@@Z
_TEXT	SEGMENT
__First$ = 8						; size = 4
__Last$ = 12						; size = 4
__Dest$ = 16						; size = 4
___formal$ = 20						; size = 4
___formal$ = 24						; size = 1
___formal$ = 28						; size = 1
??$_Uninit_copy@PAPAVCvCitySpecializationXMLEntry@@PAPAV1@V?$allocator@PAVCvCitySpecializationXMLEntry@@@std@@@std@@YAPAPAVCvCitySpecializationXMLEntry@@PAPAV1@00AAV?$allocator@PAVCvCitySpecializationXMLEntry@@@0@U_Scalar_ptr_iterator_tag@0@U_Range_checked_iterator_tag@0@@Z PROC ; std::_Uninit_copy<CvCitySpecializationXMLEntry * *,CvCitySpecializationXMLEntry * *,std::allocator<CvCitySpecializationXMLEntry *> >, COMDAT

; 146  : 	_DEBUG_RANGE(_First, _Last);
; 147  : 	_DEBUG_POINTER(_Dest);
; 148  : 	size_t _Count = (size_t)(_Last - _First);

	mov	eax, DWORD PTR __Last$[esp-4]
	mov	edx, DWORD PTR __First$[esp-4]
	sub	eax, edx
	push	esi
	sar	eax, 2
	push	edi

; 149  : 	_FwdIt _Result = _Dest + _Count;

	mov	edi, DWORD PTR __Dest$[esp+4]
	lea	ecx, DWORD PTR [eax*4]
	lea	esi, DWORD PTR [ecx+edi]

; 150  : 	if (_Count > 0)

	test	eax, eax
	jbe	SHORT $LN4@Uninit_cop

; 151  : 		_CRT_SECURE_MEMMOVE(&*_Dest, _Count * sizeof (*_First), &*_First, _Count * sizeof (*_First));	// NB: non-overlapping move

	push	ecx
	push	edx
	push	ecx
	push	edi
	call	DWORD PTR __imp__memmove_s
	add	esp, 16					; 00000010H
$LN4@Uninit_cop:
	pop	edi

; 152  : 	return (_Result);

	mov	eax, esi
	pop	esi

; 153  : 	}

	ret	0
??$_Uninit_copy@PAPAVCvCitySpecializationXMLEntry@@PAPAV1@V?$allocator@PAVCvCitySpecializationXMLEntry@@@std@@@std@@YAPAPAVCvCitySpecializationXMLEntry@@PAPAV1@00AAV?$allocator@PAVCvCitySpecializationXMLEntry@@@0@U_Scalar_ptr_iterator_tag@0@U_Range_checked_iterator_tag@0@@Z ENDP ; std::_Uninit_copy<CvCitySpecializationXMLEntry * *,CvCitySpecializationXMLEntry * *,std::allocator<CvCitySpecializationXMLEntry *> >
_TEXT	ENDS
PUBLIC	??$_Destroy@E@std@@YAXPAE@Z			; std::_Destroy<unsigned char>
; Function compile flags: /Ogtpy
; File c:\program files (x86)\microsoft visual studio 9.0\vc\include\xmemory
;	COMDAT ??$_Destroy@E@std@@YAXPAE@Z
_TEXT	SEGMENT
__Ptr$ = 8						; size = 4
??$_Destroy@E@std@@YAXPAE@Z PROC			; std::_Destroy<unsigned char>, COMDAT

; 59   : 	_DESTRUCTOR(_Ty, _Ptr);
; 60   : 	}

	ret	0
??$_Destroy@E@std@@YAXPAE@Z ENDP			; std::_Destroy<unsigned char>
_TEXT	ENDS
PUBLIC	??$return_temporary_buffer@E@std@@YAXPAE@Z	; std::return_temporary_buffer<unsigned char>
; Function compile flags: /Ogtpy
; File c:\program files (x86)\microsoft visual studio 9.0\vc\include\memory
;	COMDAT ??$return_temporary_buffer@E@std@@YAXPAE@Z
_TEXT	SEGMENT
__Pbuf$ = 8						; size = 4
??$return_temporary_buffer@E@std@@YAXPAE@Z PROC		; std::return_temporary_buffer<unsigned char>, COMDAT

; 39   : 	operator delete(_Pbuf);

	jmp	??3@YAXPAX@Z				; operator delete
??$return_temporary_buffer@E@std@@YAXPAE@Z ENDP		; std::return_temporary_buffer<unsigned char>
_TEXT	ENDS
PUBLIC	??MWeightedElement@?$CvWeightedVector@UCvCityBuildable@@$0OB@$00@@QBE_NABU01@@Z ; CvWeightedVector<CvCityBuildable,225,1>::WeightedElement::operator<
; Function compile flags: /Ogtpy
; File c:\users\enormousapplepie\desktop\lekmod files\lekmod dll versions\v29\lekmod_dll\cvgamecoredllutil\include\cvweightedvector.h
;	COMDAT ??MWeightedElement@?$CvWeightedVector@UCvCityBuildable@@$0OB@$00@@QBE_NABU01@@Z
_TEXT	SEGMENT
_b2$ = 8						; size = 4
??MWeightedElement@?$CvWeightedVector@UCvCityBuildable@@$0OB@$00@@QBE_NABU01@@Z PROC ; CvWeightedVector<CvCityBuildable,225,1>::WeightedElement::operator<, COMDAT
; _this$ = ecx

; 45   : 			// Reverse of the normal direction because we want highest weight first in our list
; 46   : 			return m_iWeight > b2.m_iWeight;

	mov	eax, DWORD PTR [ecx+12]
	mov	edx, DWORD PTR _b2$[esp-4]
	xor	ecx, ecx
	cmp	eax, DWORD PTR [edx+12]
	setg	cl
	mov	al, cl

; 47   : 		};

	ret	4
??MWeightedElement@?$CvWeightedVector@UCvCityBuildable@@$0OB@$00@@QBE_NABU01@@Z ENDP ; CvWeightedVector<CvCityBuildable,225,1>::WeightedElement::operator<
_TEXT	ENDS
PUBLIC	??D?$_Vector_const_iterator@PAVCvCitySpecializationXMLEntry@@V?$allocator@PAVCvCitySpecializationXMLEntry@@@std@@@std@@QBEABQAVCvCitySpecializationXMLEntry@@XZ ; std::_Vector_const_iterator<CvCitySpecializationXMLEntry *,std::allocator<CvCitySpecializationXMLEntry *> >::operator*
; Function compile flags: /Ogtpy
; File c:\program files (x86)\microsoft visual studio 9.0\vc\include\vector
;	COMDAT ??D?$_Vector_const_iterator@PAVCvCitySpecializationXMLEntry@@V?$allocator@PAVCvCitySpecializationXMLEntry@@@std@@@std@@QBEABQAVCvCitySpecializationXMLEntry@@XZ
_TEXT	SEGMENT
??D?$_Vector_const_iterator@PAVCvCitySpecializationXMLEntry@@V?$allocator@PAVCvCitySpecializationXMLEntry@@@std@@@std@@QBEABQAVCvCitySpecializationXMLEntry@@XZ PROC ; std::_Vector_const_iterator<CvCitySpecializationXMLEntry *,std::allocator<CvCitySpecializationXMLEntry *> >::operator*, COMDAT
; _this$ = ecx

; 92   : 
; 93   :  #if _HAS_ITERATOR_DEBUGGING
; 94   : 		if (this->_Mycont == 0
; 95   : 			|| _Myptr < ((_Myvec *)this->_Mycont)->_Myfirst
; 96   : 			|| ((_Myvec *)this->_Mycont)->_Mylast <= _Myptr)
; 97   : 			{
; 98   : 			_DEBUG_ERROR("vector iterator not dereferencable");
; 99   : 			_SCL_SECURE_OUT_OF_RANGE;
; 100  : 			}
; 101  :  #else
; 102  :  		_SCL_SECURE_VALIDATE(this->_Has_container());
; 103  : 		_SCL_SECURE_VALIDATE_RANGE(_Myptr < ((_Myvec *)(this->_Getmycont()))->_Mylast);
; 104  :  #endif /* _HAS_ITERATOR_DEBUGGING */
; 105  : 
; 106  : 		return (*_Myptr);

	mov	eax, DWORD PTR [ecx]

; 107  : 		}

	ret	0
??D?$_Vector_const_iterator@PAVCvCitySpecializationXMLEntry@@V?$allocator@PAVCvCitySpecializationXMLEntry@@@std@@@std@@QBEABQAVCvCitySpecializationXMLEntry@@XZ ENDP ; std::_Vector_const_iterator<CvCitySpecializationXMLEntry *,std::allocator<CvCitySpecializationXMLEntry *> >::operator*
_TEXT	ENDS
PUBLIC	??E?$_Vector_const_iterator@PAVCvCitySpecializationXMLEntry@@V?$allocator@PAVCvCitySpecializationXMLEntry@@@std@@@std@@QAEAAV01@XZ ; std::_Vector_const_iterator<CvCitySpecializationXMLEntry *,std::allocator<CvCitySpecializationXMLEntry *> >::operator++
; Function compile flags: /Ogtpy
;	COMDAT ??E?$_Vector_const_iterator@PAVCvCitySpecializationXMLEntry@@V?$allocator@PAVCvCitySpecializationXMLEntry@@@std@@@std@@QAEAAV01@XZ
_TEXT	SEGMENT
??E?$_Vector_const_iterator@PAVCvCitySpecializationXMLEntry@@V?$allocator@PAVCvCitySpecializationXMLEntry@@@std@@@std@@QAEAAV01@XZ PROC ; std::_Vector_const_iterator<CvCitySpecializationXMLEntry *,std::allocator<CvCitySpecializationXMLEntry *> >::operator++, COMDAT
; _this$ = ecx

; 115  : 		{	// preincrement

	mov	eax, ecx

; 116  : 		_SCL_SECURE_VALIDATE(this->_Has_container());
; 117  : 		_SCL_SECURE_VALIDATE_RANGE(_Myptr < ((_Myvec *)(this->_Getmycont()))->_Mylast);
; 118  : 
; 119  :  #if _HAS_ITERATOR_DEBUGGING
; 120  : 		if (this->_Mycont == 0
; 121  : 			|| ((_Myvec *)this->_Mycont)->_Mylast <= _Myptr)
; 122  : 			_DEBUG_ERROR("vector iterator not incrementable");
; 123  :  #endif /* _HAS_ITERATOR_DEBUGGING */
; 124  : 
; 125  : 		++_Myptr;

	add	DWORD PTR [eax], 4

; 126  : 		return (*this);
; 127  : 		}

	ret	0
??E?$_Vector_const_iterator@PAVCvCitySpecializationXMLEntry@@V?$allocator@PAVCvCitySpecializationXMLEntry@@@std@@@std@@QAEAAV01@XZ ENDP ; std::_Vector_const_iterator<CvCitySpecializationXMLEntry *,std::allocator<CvCitySpecializationXMLEntry *> >::operator++
_TEXT	ENDS
PUBLIC	??0?$pair@PAUWeightedElement@?$CvWeightedVector@UCvCityBuildable@@$0OB@$00@@PAU12@@std@@QAE@ABQAUWeightedElement@?$CvWeightedVector@UCvCityBuildable@@$0OB@$00@@0@Z ; std::pair<CvWeightedVector<CvCityBuildable,225,1>::WeightedElement *,CvWeightedVector<CvCityBuildable,225,1>::WeightedElement *>::pair<CvWeightedVector<CvCityBuildable,225,1>::WeightedElement *,CvWeightedVector<CvCityBuildable,225,1>::WeightedElement *>
; Function compile flags: /Ogtpy
; File c:\program files (x86)\microsoft visual studio 9.0\vc\include\utility
;	COMDAT ??0?$pair@PAUWeightedElement@?$CvWeightedVector@UCvCityBuildable@@$0OB@$00@@PAU12@@std@@QAE@ABQAUWeightedElement@?$CvWeightedVector@UCvCityBuildable@@$0OB@$00@@0@Z
_TEXT	SEGMENT
__Val1$ = 8						; size = 4
__Val2$ = 12						; size = 4
??0?$pair@PAUWeightedElement@?$CvWeightedVector@UCvCityBuildable@@$0OB@$00@@PAU12@@std@@QAE@ABQAUWeightedElement@?$CvWeightedVector@UCvCityBuildable@@$0OB@$00@@0@Z PROC ; std::pair<CvWeightedVector<CvCityBuildable,225,1>::WeightedElement *,CvWeightedVector<CvCityBuildable,225,1>::WeightedElement *>::pair<CvWeightedVector<CvCityBuildable,225,1>::WeightedElement *,CvWeightedVector<CvCityBuildable,225,1>::WeightedElement *>, COMDAT
; _this$ = ecx

; 50   : 		{	// construct from specified values

	mov	eax, ecx
	mov	ecx, DWORD PTR __Val1$[esp-4]
	mov	edx, DWORD PTR [ecx]
	mov	ecx, DWORD PTR __Val2$[esp-4]
	mov	DWORD PTR [eax], edx
	mov	edx, DWORD PTR [ecx]
	mov	DWORD PTR [eax+4], edx

; 51   : 		}

	ret	8
??0?$pair@PAUWeightedElement@?$CvWeightedVector@UCvCityBuildable@@$0OB@$00@@PAU12@@std@@QAE@ABQAUWeightedElement@?$CvWeightedVector@UCvCityBuildable@@$0OB@$00@@0@Z ENDP ; std::pair<CvWeightedVector<CvCityBuildable,225,1>::WeightedElement *,CvWeightedVector<CvCityBuildable,225,1>::WeightedElement *>::pair<CvWeightedVector<CvCityBuildable,225,1>::WeightedElement *,CvWeightedVector<CvCityBuildable,225,1>::WeightedElement *>
_TEXT	ENDS
PUBLIC	??$Convert@VCvGame@@P81@AEHHPBD@ZP8GenericClass@detail@fastdelegate@@AEXXZ@?$SimplifyMemFunc@$03@detail@fastdelegate@@SAPAVGenericClass@12@PAVCvGame@@P84@AEHHPBD@ZAAP8312@AEXXZ@Z ; fastdelegate::detail::SimplifyMemFunc<4>::Convert<CvGame,int (__thiscall CvGame::*)(int,char const *),void (__thiscall fastdelegate::detail::GenericClass::*)(void)>
; Function compile flags: /Ogtpy
; File c:\users\enormousapplepie\desktop\lekmod files\lekmod dll versions\v29\lekmod_dll\fireplace\include\fireworks\eventsystem\fastdelegate.h
;	COMDAT ??$Convert@VCvGame@@P81@AEHHPBD@ZP8GenericClass@detail@fastdelegate@@AEXXZ@?$SimplifyMemFunc@$03@detail@fastdelegate@@SAPAVGenericClass@12@PAVCvGame@@P84@AEHHPBD@ZAAP8312@AEXXZ@Z
_TEXT	SEGMENT
_pthis$ = 8						; size = 4
_function_to_bind$ = 12					; size = 4
_bound_func$ = 16					; size = 4
??$Convert@VCvGame@@P81@AEHHPBD@ZP8GenericClass@detail@fastdelegate@@AEXXZ@?$SimplifyMemFunc@$03@detail@fastdelegate@@SAPAVGenericClass@12@PAVCvGame@@P84@AEHHPBD@ZAAP8312@AEXXZ@Z PROC ; fastdelegate::detail::SimplifyMemFunc<4>::Convert<CvGame,int (__thiscall CvGame::*)(int,char const *),void (__thiscall fastdelegate::detail::GenericClass::*)(void)>, COMDAT

; 306  : 			GenericMemFuncType &bound_func) {
; 307  : #if defined __DMC__  
; 308  : 		// Digital Mars doesn't allow you to cast between abitrary PMF's, 
; 309  : 		// even though the standard says you can. The 32-bit compiler lets you
; 310  : 		// static_cast through an int, but the DOS compiler doesn't.
; 311  : 		bound_func = horrible_cast<GenericMemFuncType>(function_to_bind);
; 312  : #else 
; 313  :         bound_func = reinterpret_cast<GenericMemFuncType>(function_to_bind);

	mov	eax, DWORD PTR _bound_func$[esp-4]
	mov	ecx, DWORD PTR _function_to_bind$[esp-4]
	mov	DWORD PTR [eax], ecx

; 314  : #endif
; 315  :         return reinterpret_cast<GenericClass *>(pthis);

	mov	eax, DWORD PTR _pthis$[esp-4]

; 316  : 	}

	ret	0
??$Convert@VCvGame@@P81@AEHHPBD@ZP8GenericClass@detail@fastdelegate@@AEXXZ@?$SimplifyMemFunc@$03@detail@fastdelegate@@SAPAVGenericClass@12@PAVCvGame@@P84@AEHHPBD@ZAAP8312@AEXXZ@Z ENDP ; fastdelegate::detail::SimplifyMemFunc<4>::Convert<CvGame,int (__thiscall CvGame::*)(int,char const *),void (__thiscall fastdelegate::detail::GenericClass::*)(void)>
_TEXT	ENDS
PUBLIC	??$_Iter_cat@PAE@std@@YA?AUrandom_access_iterator_tag@0@ABQAE@Z ; std::_Iter_cat<unsigned char *>
; Function compile flags: /Ogtpy
; File c:\program files (x86)\microsoft visual studio 9.0\vc\include\xutility
;	COMDAT ??$_Iter_cat@PAE@std@@YA?AUrandom_access_iterator_tag@0@ABQAE@Z
_TEXT	SEGMENT
___$ReturnUdt$ = 8					; size = 4
___formal$ = 12						; size = 4
??$_Iter_cat@PAE@std@@YA?AUrandom_access_iterator_tag@0@ABQAE@Z PROC ; std::_Iter_cat<unsigned char *>, COMDAT

; 953  : 	typename iterator_traits<_Iter>::iterator_category _Cat;
; 954  : 	return (_Cat);

	mov	eax, DWORD PTR ___$ReturnUdt$[esp-4]

; 955  : 	}

	ret	0
??$_Iter_cat@PAE@std@@YA?AUrandom_access_iterator_tag@0@ABQAE@Z ENDP ; std::_Iter_cat<unsigned char *>
_TEXT	ENDS
PUBLIC	??$_Distance2@PAEH@std@@YAXPAE0AAHUrandom_access_iterator_tag@0@@Z ; std::_Distance2<unsigned char *,int>
; Function compile flags: /Ogtpy
;	COMDAT ??$_Distance2@PAEH@std@@YAXPAE0AAHUrandom_access_iterator_tag@0@@Z
_TEXT	SEGMENT
__First$ = 8						; size = 4
__Last$ = 12						; size = 4
__Off$ = 16						; size = 4
___formal$ = 20						; size = 1
??$_Distance2@PAEH@std@@YAXPAE0AAHUrandom_access_iterator_tag@0@@Z PROC ; std::_Distance2<unsigned char *,int>, COMDAT

; 1867 : 
; 1868 :  #if _HAS_ITERATOR_DEBUGGING
; 1869 : 	if (_First != _Last)
; 1870 : 		{	// check for null pointers
; 1871 : 		_DEBUG_POINTER(_First);
; 1872 : 		_DEBUG_POINTER(_Last);
; 1873 : 		}
; 1874 :  #endif /* _HAS_ITERATOR_DEBUGGING */
; 1875 : 
; 1876 : 	_Off += _Last - _First;

	mov	ecx, DWORD PTR __Last$[esp-4]
	sub	ecx, DWORD PTR __First$[esp-4]
	mov	eax, DWORD PTR __Off$[esp-4]
	add	DWORD PTR [eax], ecx

; 1877 : 	}

	ret	0
??$_Distance2@PAEH@std@@YAXPAE0AAHUrandom_access_iterator_tag@0@@Z ENDP ; std::_Distance2<unsigned char *,int>
_TEXT	ENDS
PUBLIC	??$_Dist_type@PAUWeightedElement@?$CvWeightedVector@UCvCityBuildable@@$0OB@$00@@@std@@YAPAHPAUWeightedElement@?$CvWeightedVector@UCvCityBuildable@@$0OB@$00@@@Z ; std::_Dist_type<CvWeightedVector<CvCityBuildable,225,1>::WeightedElement *>
; Function compile flags: /Ogtpy
;	COMDAT ??$_Dist_type@PAUWeightedElement@?$CvWeightedVector@UCvCityBuildable@@$0OB@$00@@@std@@YAPAHPAUWeightedElement@?$CvWeightedVector@UCvCityBuildable@@$0OB@$00@@@Z
_TEXT	SEGMENT
___formal$ = 8						; size = 4
??$_Dist_type@PAUWeightedElement@?$CvWeightedVector@UCvCityBuildable@@$0OB@$00@@@std@@YAPAHPAUWeightedElement@?$CvWeightedVector@UCvCityBuildable@@$0OB@$00@@@Z PROC ; std::_Dist_type<CvWeightedVector<CvCityBuildable,225,1>::WeightedElement *>, COMDAT

; 1831 : 	return (0);

	xor	eax, eax

; 1832 : 	}

	ret	0
??$_Dist_type@PAUWeightedElement@?$CvWeightedVector@UCvCityBuildable@@$0OB@$00@@@std@@YAPAHPAUWeightedElement@?$CvWeightedVector@UCvCityBuildable@@$0OB@$00@@@Z ENDP ; std::_Dist_type<CvWeightedVector<CvCityBuildable,225,1>::WeightedElement *>
_TEXT	ENDS
PUBLIC	??$_Val_type@PAUWeightedElement@?$CvWeightedVector@UCvCityBuildable@@$0OB@$00@@@std@@YAPAUWeightedElement@?$CvWeightedVector@UCvCityBuildable@@$0OB@$00@@PAU12@@Z ; std::_Val_type<CvWeightedVector<CvCityBuildable,225,1>::WeightedElement *>
; Function compile flags: /Ogtpy
;	COMDAT ??$_Val_type@PAUWeightedElement@?$CvWeightedVector@UCvCityBuildable@@$0OB@$00@@@std@@YAPAUWeightedElement@?$CvWeightedVector@UCvCityBuildable@@$0OB@$00@@PAU12@@Z
_TEXT	SEGMENT
___formal$ = 8						; size = 4
??$_Val_type@PAUWeightedElement@?$CvWeightedVector@UCvCityBuildable@@$0OB@$00@@@std@@YAPAUWeightedElement@?$CvWeightedVector@UCvCityBuildable@@$0OB@$00@@PAU12@@Z PROC ; std::_Val_type<CvWeightedVector<CvCityBuildable,225,1>::WeightedElement *>, COMDAT

; 1766 : 	return (0);

	xor	eax, eax

; 1767 : 	}

	ret	0
??$_Val_type@PAUWeightedElement@?$CvWeightedVector@UCvCityBuildable@@$0OB@$00@@@std@@YAPAUWeightedElement@?$CvWeightedVector@UCvCityBuildable@@$0OB@$00@@PAU12@@Z ENDP ; std::_Val_type<CvWeightedVector<CvCityBuildable,225,1>::WeightedElement *>
_TEXT	ENDS
PUBLIC	??$_Construct@PAVCvCitySpecializationXMLEntry@@PAV1@@std@@YAXPAPAVCvCitySpecializationXMLEntry@@ABQAV1@@Z ; std::_Construct<CvCitySpecializationXMLEntry *,CvCitySpecializationXMLEntry *>
; Function compile flags: /Ogtpy
; File c:\program files (x86)\microsoft visual studio 9.0\vc\include\xmemory
;	COMDAT ??$_Construct@PAVCvCitySpecializationXMLEntry@@PAV1@@std@@YAXPAPAVCvCitySpecializationXMLEntry@@ABQAV1@@Z
_TEXT	SEGMENT
__Ptr$ = 8						; size = 4
__Val$ = 12						; size = 4
??$_Construct@PAVCvCitySpecializationXMLEntry@@PAV1@@std@@YAXPAPAVCvCitySpecializationXMLEntry@@ABQAV1@@Z PROC ; std::_Construct<CvCitySpecializationXMLEntry *,CvCitySpecializationXMLEntry *>, COMDAT

; 51   : 	void _FARQ *_Vptr = _Ptr;
; 52   : 	::new (_Vptr) _T1(_Val);

	mov	eax, DWORD PTR __Ptr$[esp-4]
	test	eax, eax
	je	SHORT $LN3@Construct
	mov	ecx, DWORD PTR __Val$[esp-4]
	mov	edx, DWORD PTR [ecx]
	mov	DWORD PTR [eax], edx
$LN3@Construct:

; 53   : 	}

	ret	0
??$_Construct@PAVCvCitySpecializationXMLEntry@@PAV1@@std@@YAXPAPAVCvCitySpecializationXMLEntry@@ABQAV1@@Z ENDP ; std::_Construct<CvCitySpecializationXMLEntry *,CvCitySpecializationXMLEntry *>
_TEXT	ENDS
PUBLIC	??$_Destroy@PAVCvCitySpecializationXMLEntry@@@std@@YAXPAPAVCvCitySpecializationXMLEntry@@@Z ; std::_Destroy<CvCitySpecializationXMLEntry *>
; Function compile flags: /Ogtpy
;	COMDAT ??$_Destroy@PAVCvCitySpecializationXMLEntry@@@std@@YAXPAPAVCvCitySpecializationXMLEntry@@@Z
_TEXT	SEGMENT
__Ptr$ = 8						; size = 4
??$_Destroy@PAVCvCitySpecializationXMLEntry@@@std@@YAXPAPAVCvCitySpecializationXMLEntry@@@Z PROC ; std::_Destroy<CvCitySpecializationXMLEntry *>, COMDAT

; 59   : 	_DESTRUCTOR(_Ty, _Ptr);
; 60   : 	}

	ret	0
??$_Destroy@PAVCvCitySpecializationXMLEntry@@@std@@YAXPAPAVCvCitySpecializationXMLEntry@@@Z ENDP ; std::_Destroy<CvCitySpecializationXMLEntry *>
_TEXT	ENDS
PUBLIC	?_Init@?$_Temp_iterator@E@std@@QAEAAV12@XZ	; std::_Temp_iterator<unsigned char>::_Init
; Function compile flags: /Ogtpy
; File c:\program files (x86)\microsoft visual studio 9.0\vc\include\memory
;	COMDAT ?_Init@?$_Temp_iterator@E@std@@QAEAAV12@XZ
_TEXT	SEGMENT
?_Init@?$_Temp_iterator@E@std@@QAEAAV12@XZ PROC		; std::_Temp_iterator<unsigned char>::_Init, COMDAT
; _this$ = ecx

; 591  : 		{	// set pointer at beginning of buffer

	mov	eax, ecx

; 592  : 		_Pbuf->_Current = _Pbuf->_Begin;

	mov	ecx, DWORD PTR [eax+16]
	mov	edx, DWORD PTR [ecx]
	mov	DWORD PTR [ecx+4], edx

; 593  : 		return (*this);
; 594  : 		}

	ret	0
?_Init@?$_Temp_iterator@E@std@@QAEAAV12@XZ ENDP		; std::_Temp_iterator<unsigned char>::_Init
_TEXT	ENDS
PUBLIC	?_First@?$_Temp_iterator@E@std@@QBEPAEXZ	; std::_Temp_iterator<unsigned char>::_First
; Function compile flags: /Ogtpy
;	COMDAT ?_First@?$_Temp_iterator@E@std@@QBEPAEXZ
_TEXT	SEGMENT
?_First@?$_Temp_iterator@E@std@@QBEPAEXZ PROC		; std::_Temp_iterator<unsigned char>::_First, COMDAT
; _this$ = ecx

; 598  : 		return (_Pbuf->_Begin);

	mov	eax, DWORD PTR [ecx+16]
	mov	eax, DWORD PTR [eax]

; 599  : 		}

	ret	0
?_First@?$_Temp_iterator@E@std@@QBEPAEXZ ENDP		; std::_Temp_iterator<unsigned char>::_First
_TEXT	ENDS
PUBLIC	?_Last@?$_Temp_iterator@E@std@@QBEPAEXZ		; std::_Temp_iterator<unsigned char>::_Last
; Function compile flags: /Ogtpy
;	COMDAT ?_Last@?$_Temp_iterator@E@std@@QBEPAEXZ
_TEXT	SEGMENT
?_Last@?$_Temp_iterator@E@std@@QBEPAEXZ PROC		; std::_Temp_iterator<unsigned char>::_Last, COMDAT
; _this$ = ecx

; 603  : 		return (_Pbuf->_Current);

	mov	eax, DWORD PTR [ecx+16]
	mov	eax, DWORD PTR [eax+4]

; 604  : 		}

	ret	0
?_Last@?$_Temp_iterator@E@std@@QBEPAEXZ ENDP		; std::_Temp_iterator<unsigned char>::_Last
_TEXT	ENDS
PUBLIC	??0?$pair@PAEH@std@@QAE@ABQAEABH@Z		; std::pair<unsigned char *,int>::pair<unsigned char *,int>
; Function compile flags: /Ogtpy
; File c:\program files (x86)\microsoft visual studio 9.0\vc\include\utility
;	COMDAT ??0?$pair@PAEH@std@@QAE@ABQAEABH@Z
_TEXT	SEGMENT
__Val1$ = 8						; size = 4
__Val2$ = 12						; size = 4
??0?$pair@PAEH@std@@QAE@ABQAEABH@Z PROC			; std::pair<unsigned char *,int>::pair<unsigned char *,int>, COMDAT
; _this$ = ecx

; 50   : 		{	// construct from specified values

	mov	eax, ecx
	mov	ecx, DWORD PTR __Val1$[esp-4]
	mov	edx, DWORD PTR [ecx]
	mov	ecx, DWORD PTR __Val2$[esp-4]
	mov	DWORD PTR [eax], edx
	mov	edx, DWORD PTR [ecx]
	mov	DWORD PTR [eax+4], edx

; 51   : 		}

	ret	8
??0?$pair@PAEH@std@@QAE@ABQAEABH@Z ENDP			; std::pair<unsigned char *,int>::pair<unsigned char *,int>
_TEXT	ENDS
PUBLIC	??4?$_Temp_iterator@E@std@@QAEAAV01@ABV01@@Z	; std::_Temp_iterator<unsigned char>::operator=
; Function compile flags: /Ogtpy
; File c:\program files (x86)\microsoft visual studio 9.0\vc\include\memory
;	COMDAT ??4?$_Temp_iterator@E@std@@QAEAAV01@ABV01@@Z
_TEXT	SEGMENT
__Right$ = 8						; size = 4
??4?$_Temp_iterator@E@std@@QAEAAV01@ABV01@@Z PROC	; std::_Temp_iterator<unsigned char>::operator=, COMDAT
; _this$ = ecx

; 556  : 		{	// assign _Right (share active buffer)

	mov	eax, ecx

; 557  : 		_Pbuf = _Right._Pbuf;

	mov	ecx, DWORD PTR __Right$[esp-4]
	mov	edx, DWORD PTR [ecx+16]
	mov	DWORD PTR [eax+16], edx

; 558  : 		return (*this);
; 559  : 		}

	ret	4
??4?$_Temp_iterator@E@std@@QAEAAV01@ABV01@@Z ENDP	; std::_Temp_iterator<unsigned char>::operator=
_TEXT	ENDS
PUBLIC	??$_Advance@PAEH@std@@YAXAAPAEHUrandom_access_iterator_tag@0@@Z ; std::_Advance<unsigned char *,int>
; Function compile flags: /Ogtpy
; File c:\program files (x86)\microsoft visual studio 9.0\vc\include\xutility
;	COMDAT ??$_Advance@PAEH@std@@YAXAAPAEHUrandom_access_iterator_tag@0@@Z
_TEXT	SEGMENT
__Where$ = 8						; size = 4
__Off$ = 12						; size = 4
___formal$ = 16						; size = 1
??$_Advance@PAEH@std@@YAXAAPAEHUrandom_access_iterator_tag@0@@Z PROC ; std::_Advance<unsigned char *,int>, COMDAT

; 1822 : 	_Where += _Off;

	mov	eax, DWORD PTR __Where$[esp-4]
	mov	ecx, DWORD PTR __Off$[esp-4]
	add	DWORD PTR [eax], ecx

; 1823 : 	}

	ret	0
??$_Advance@PAEH@std@@YAXAAPAEHUrandom_access_iterator_tag@0@@Z ENDP ; std::_Advance<unsigned char *,int>
_TEXT	ENDS
PUBLIC	??$swap@UWeightedElement@?$CvWeightedVector@UCvCityBuildable@@$0OB@$00@@@std@@YAXAAUWeightedElement@?$CvWeightedVector@UCvCityBuildable@@$0OB@$00@@0@Z ; std::swap<CvWeightedVector<CvCityBuildable,225,1>::WeightedElement>
; Function compile flags: /Ogtpy
; File c:\program files (x86)\microsoft visual studio 9.0\vc\include\utility
;	COMDAT ??$swap@UWeightedElement@?$CvWeightedVector@UCvCityBuildable@@$0OB@$00@@@std@@YAXAAUWeightedElement@?$CvWeightedVector@UCvCityBuildable@@$0OB@$00@@0@Z
_TEXT	SEGMENT
__Left$ = 8						; size = 4
__Right$ = 12						; size = 4
??$swap@UWeightedElement@?$CvWeightedVector@UCvCityBuildable@@$0OB@$00@@@std@@YAXAAUWeightedElement@?$CvWeightedVector@UCvCityBuildable@@$0OB@$00@@0@Z PROC ; std::swap<CvWeightedVector<CvCityBuildable,225,1>::WeightedElement>, COMDAT

; 18   : 	if (&_Left != &_Right)

	mov	eax, DWORD PTR __Left$[esp-4]
	mov	ecx, DWORD PTR __Right$[esp-4]
	cmp	eax, ecx
	je	SHORT $LN1@swap

; 19   : 		{	// different, worth swapping
; 20   : 		_Ty _Tmp = _Left;

	mov	edx, DWORD PTR [eax]
	push	ebx
	mov	ebx, DWORD PTR [eax+12]
	push	ebp

; 21   : 
; 22   : 		_Left = _Right;

	mov	ebp, DWORD PTR [ecx]
	push	esi
	mov	esi, DWORD PTR [eax+4]
	push	edi
	mov	edi, DWORD PTR [eax+8]
	mov	DWORD PTR [eax], ebp
	mov	ebp, DWORD PTR [ecx+4]
	mov	DWORD PTR [eax+4], ebp
	mov	ebp, DWORD PTR [ecx+8]
	mov	DWORD PTR [eax+8], ebp
	mov	ebp, DWORD PTR [ecx+12]
	mov	DWORD PTR [eax+12], ebp

; 23   : 		_Right = _Tmp;

	mov	DWORD PTR [ecx], edx
	mov	DWORD PTR [ecx+4], esi
	mov	DWORD PTR [ecx+8], edi
	pop	edi
	pop	esi
	pop	ebp
	mov	DWORD PTR [ecx+12], ebx
	pop	ebx
$LN1@swap:

; 24   : 		}
; 25   : 	}

	ret	0
??$swap@UWeightedElement@?$CvWeightedVector@UCvCityBuildable@@$0OB@$00@@@std@@YAXAAUWeightedElement@?$CvWeightedVector@UCvCityBuildable@@$0OB@$00@@0@Z ENDP ; std::swap<CvWeightedVector<CvCityBuildable,225,1>::WeightedElement>
_TEXT	ENDS
PUBLIC	??$swap@E@std@@YAXAAE0@Z			; std::swap<unsigned char>
; Function compile flags: /Ogtpy
;	COMDAT ??$swap@E@std@@YAXAAE0@Z
_TEXT	SEGMENT
__Left$ = 8						; size = 4
__Right$ = 12						; size = 4
??$swap@E@std@@YAXAAE0@Z PROC				; std::swap<unsigned char>, COMDAT

; 18   : 	if (&_Left != &_Right)

	mov	eax, DWORD PTR __Left$[esp-4]
	mov	ecx, DWORD PTR __Right$[esp-4]
	cmp	eax, ecx
	je	SHORT $LN1@swap@2

; 19   : 		{	// different, worth swapping
; 20   : 		_Ty _Tmp = _Left;

	mov	dl, BYTE PTR [eax]
	push	ebx

; 21   : 
; 22   : 		_Left = _Right;

	mov	bl, BYTE PTR [ecx]
	mov	BYTE PTR [eax], bl

; 23   : 		_Right = _Tmp;

	mov	BYTE PTR [ecx], dl
	pop	ebx
$LN1@swap@2:

; 24   : 		}
; 25   : 	}

	ret	0
??$swap@E@std@@YAXAAE0@Z ENDP				; std::swap<unsigned char>
_TEXT	ENDS
PUBLIC	??$_Iter_random@PAEV?$_Temp_iterator@E@std@@@std@@YA?AUforward_iterator_tag@0@ABQAEABV?$_Temp_iterator@E@0@@Z ; std::_Iter_random<unsigned char *,std::_Temp_iterator<unsigned char> >
; Function compile flags: /Ogtpy
; File c:\program files (x86)\microsoft visual studio 9.0\vc\include\xutility
;	COMDAT ??$_Iter_random@PAEV?$_Temp_iterator@E@std@@@std@@YA?AUforward_iterator_tag@0@ABQAEABV?$_Temp_iterator@E@0@@Z
_TEXT	SEGMENT
___$ReturnUdt$ = 8					; size = 4
___formal$ = 12						; size = 4
___formal$ = 16						; size = 4
??$_Iter_random@PAEV?$_Temp_iterator@E@std@@@std@@YA?AUforward_iterator_tag@0@ABQAEABV?$_Temp_iterator@E@0@@Z PROC ; std::_Iter_random<unsigned char *,std::_Temp_iterator<unsigned char> >, COMDAT

; 994  : 	typename _Iter_random_helper<
; 995  : 		iterator_traits<_Iter1>::iterator_category, 
; 996  : 		iterator_traits<_Iter2>::iterator_category>::_Iter_random_cat _Cat;
; 997  : 	return (_Cat);

	mov	eax, DWORD PTR ___$ReturnUdt$[esp-4]

; 998  : 	}

	ret	0
??$_Iter_random@PAEV?$_Temp_iterator@E@std@@@std@@YA?AUforward_iterator_tag@0@ABQAEABV?$_Temp_iterator@E@0@@Z ENDP ; std::_Iter_random<unsigned char *,std::_Temp_iterator<unsigned char> >
_TEXT	ENDS
PUBLIC	??$_Ptr_cat@PAEV?$_Temp_iterator@E@std@@@std@@YA?AU_Nonscalar_ptr_iterator_tag@0@AAPAEAAV?$_Temp_iterator@E@0@@Z ; std::_Ptr_cat<unsigned char *,std::_Temp_iterator<unsigned char> >
; Function compile flags: /Ogtpy
;	COMDAT ??$_Ptr_cat@PAEV?$_Temp_iterator@E@std@@@std@@YA?AU_Nonscalar_ptr_iterator_tag@0@AAPAEAAV?$_Temp_iterator@E@0@@Z
_TEXT	SEGMENT
__Cat$ = -1						; size = 1
___formal$ = 8						; size = 4
___formal$ = 12						; size = 4
??$_Ptr_cat@PAEV?$_Temp_iterator@E@std@@@std@@YA?AU_Nonscalar_ptr_iterator_tag@0@AAPAEAAV?$_Temp_iterator@E@0@@Z PROC ; std::_Ptr_cat<unsigned char *,std::_Temp_iterator<unsigned char> >, COMDAT

; 1509 : 	{

	push	ecx

; 1510 : 	typename _Ptr_cat_helper<_T1, _T2>::_Ptr_cat _Cat;
; 1511 : 	return (_Cat);

	mov	al, BYTE PTR __Cat$[esp+4]

; 1512 : 	}

	pop	ecx
	ret	0
??$_Ptr_cat@PAEV?$_Temp_iterator@E@std@@@std@@YA?AU_Nonscalar_ptr_iterator_tag@0@AAPAEAAV?$_Temp_iterator@E@0@@Z ENDP ; std::_Ptr_cat<unsigned char *,std::_Temp_iterator<unsigned char> >
_TEXT	ENDS
PUBLIC	??$_Iter_random@PAEPAEPAE@std@@YA?AUrandom_access_iterator_tag@0@ABQAE00@Z ; std::_Iter_random<unsigned char *,unsigned char *,unsigned char *>
; Function compile flags: /Ogtpy
;	COMDAT ??$_Iter_random@PAEPAEPAE@std@@YA?AUrandom_access_iterator_tag@0@ABQAE00@Z
_TEXT	SEGMENT
___$ReturnUdt$ = 8					; size = 4
___formal$ = 12						; size = 4
___formal$ = 16						; size = 4
___formal$ = 20						; size = 4
??$_Iter_random@PAEPAEPAE@std@@YA?AUrandom_access_iterator_tag@0@ABQAE00@Z PROC ; std::_Iter_random<unsigned char *,unsigned char *,unsigned char *>, COMDAT

; 1007 : 	typename _Iter_random_helper3<
; 1008 : 		iterator_traits<_Iter1>::iterator_category, 
; 1009 : 		iterator_traits<_Iter2>::iterator_category,
; 1010 : 		iterator_traits<_Iter3>::iterator_category>::_Iter_random_cat _Cat;
; 1011 : 	return (_Cat);

	mov	eax, DWORD PTR ___$ReturnUdt$[esp-4]

; 1012 : 	}

	ret	0
??$_Iter_random@PAEPAEPAE@std@@YA?AUrandom_access_iterator_tag@0@ABQAE00@Z ENDP ; std::_Iter_random<unsigned char *,unsigned char *,unsigned char *>
_TEXT	ENDS
PUBLIC	??$_Push_heap@PAUWeightedElement@?$CvWeightedVector@UCvCityBuildable@@$0OB@$00@@HU12@@std@@YAXPAUWeightedElement@?$CvWeightedVector@UCvCityBuildable@@$0OB@$00@@HHU12@@Z ; std::_Push_heap<CvWeightedVector<CvCityBuildable,225,1>::WeightedElement *,int,CvWeightedVector<CvCityBuildable,225,1>::WeightedElement>
; Function compile flags: /Ogtpy
; File c:\program files (x86)\microsoft visual studio 9.0\vc\include\algorithm
;	COMDAT ??$_Push_heap@PAUWeightedElement@?$CvWeightedVector@UCvCityBuildable@@$0OB@$00@@HU12@@std@@YAXPAUWeightedElement@?$CvWeightedVector@UCvCityBuildable@@$0OB@$00@@HHU12@@Z
_TEXT	SEGMENT
__First$ = 8						; size = 4
__Hole$ = 12						; size = 4
__Top$ = 16						; size = 4
__Val$ = 20						; size = 16
??$_Push_heap@PAUWeightedElement@?$CvWeightedVector@UCvCityBuildable@@$0OB@$00@@HU12@@std@@YAXPAUWeightedElement@?$CvWeightedVector@UCvCityBuildable@@$0OB@$00@@HHU12@@Z PROC ; std::_Push_heap<CvWeightedVector<CvCityBuildable,225,1>::WeightedElement *,int,CvWeightedVector<CvCityBuildable,225,1>::WeightedElement>, COMDAT

; 1973 : 	for (_Diff _Idx = (_Hole - 1) / 2;

	mov	ecx, DWORD PTR __Hole$[esp-4]
	push	ebx

; 1974 : 		_Top < _Hole && _DEBUG_LT(*(_First + _Idx), _Val);
; 1975 : 		_Idx = (_Hole - 1) / 2)

	mov	ebx, DWORD PTR __Val$[esp+12]
	lea	eax, DWORD PTR [ecx-1]
	cdq
	push	esi
	mov	esi, DWORD PTR __First$[esp+4]
	sub	eax, edx
	push	edi
	mov	edi, DWORD PTR __Top$[esp+8]
	sar	eax, 1
	cmp	edi, ecx
	jge	SHORT $LN1@Push_heap
	push	ebp
$LL3@Push_heap:
	mov	edx, eax
	shl	edx, 4
	add	edx, esi
	cmp	DWORD PTR [edx+12], ebx
	jle	SHORT $LN10@Push_heap

; 1976 : 		{	// move _Hole up to parent
; 1977 : 		*(_First + _Hole) = *(_First + _Idx);

	mov	ebp, DWORD PTR [edx]
	shl	ecx, 4
	add	ecx, esi
	mov	DWORD PTR [ecx], ebp
	mov	ebp, DWORD PTR [edx+4]
	mov	DWORD PTR [ecx+4], ebp
	mov	ebp, DWORD PTR [edx+8]
	mov	DWORD PTR [ecx+8], ebp
	mov	edx, DWORD PTR [edx+12]
	mov	DWORD PTR [ecx+12], edx

; 1978 : 		_Hole = _Idx;

	mov	ecx, eax
	dec	eax
	cdq
	sub	eax, edx
	sar	eax, 1
	cmp	edi, ecx
	jl	SHORT $LL3@Push_heap
$LN10@Push_heap:
	pop	ebp
$LN1@Push_heap:

; 1979 : 		}
; 1980 : 
; 1981 : 	*(_First + _Hole) = _Val;	// drop _Val into final hole

	mov	eax, DWORD PTR __Val$[esp+8]
	mov	edx, DWORD PTR __Val$[esp+12]
	shl	ecx, 4
	add	ecx, esi
	mov	DWORD PTR [ecx], eax
	mov	eax, DWORD PTR __Val$[esp+16]
	pop	edi
	mov	DWORD PTR [ecx+4], edx
	mov	DWORD PTR [ecx+8], eax
	pop	esi
	mov	DWORD PTR [ecx+12], ebx
	pop	ebx

; 1982 : 	}

	ret	0
??$_Push_heap@PAUWeightedElement@?$CvWeightedVector@UCvCityBuildable@@$0OB@$00@@HU12@@std@@YAXPAUWeightedElement@?$CvWeightedVector@UCvCityBuildable@@$0OB@$00@@HHU12@@Z ENDP ; std::_Push_heap<CvWeightedVector<CvCityBuildable,225,1>::WeightedElement *,int,CvWeightedVector<CvCityBuildable,225,1>::WeightedElement>
_TEXT	ENDS
PUBLIC	??$_Iter_random@PAUWeightedElement@?$CvWeightedVector@UCvCityBuildable@@$0OB@$00@@PAU12@@std@@YA?AUrandom_access_iterator_tag@0@ABQAUWeightedElement@?$CvWeightedVector@UCvCityBuildable@@$0OB@$00@@0@Z ; std::_Iter_random<CvWeightedVector<CvCityBuildable,225,1>::WeightedElement *,CvWeightedVector<CvCityBuildable,225,1>::WeightedElement *>
; Function compile flags: /Ogtpy
; File c:\program files (x86)\microsoft visual studio 9.0\vc\include\xutility
;	COMDAT ??$_Iter_random@PAUWeightedElement@?$CvWeightedVector@UCvCityBuildable@@$0OB@$00@@PAU12@@std@@YA?AUrandom_access_iterator_tag@0@ABQAUWeightedElement@?$CvWeightedVector@UCvCityBuildable@@$0OB@$00@@0@Z
_TEXT	SEGMENT
___$ReturnUdt$ = 8					; size = 4
___formal$ = 12						; size = 4
___formal$ = 16						; size = 4
??$_Iter_random@PAUWeightedElement@?$CvWeightedVector@UCvCityBuildable@@$0OB@$00@@PAU12@@std@@YA?AUrandom_access_iterator_tag@0@ABQAUWeightedElement@?$CvWeightedVector@UCvCityBuildable@@$0OB@$00@@0@Z PROC ; std::_Iter_random<CvWeightedVector<CvCityBuildable,225,1>::WeightedElement *,CvWeightedVector<CvCityBuildable,225,1>::WeightedElement *>, COMDAT

; 994  : 	typename _Iter_random_helper<
; 995  : 		iterator_traits<_Iter1>::iterator_category, 
; 996  : 		iterator_traits<_Iter2>::iterator_category>::_Iter_random_cat _Cat;
; 997  : 	return (_Cat);

	mov	eax, DWORD PTR ___$ReturnUdt$[esp-4]

; 998  : 	}

	ret	0
??$_Iter_random@PAUWeightedElement@?$CvWeightedVector@UCvCityBuildable@@$0OB@$00@@PAU12@@std@@YA?AUrandom_access_iterator_tag@0@ABQAUWeightedElement@?$CvWeightedVector@UCvCityBuildable@@$0OB@$00@@0@Z ENDP ; std::_Iter_random<CvWeightedVector<CvCityBuildable,225,1>::WeightedElement *,CvWeightedVector<CvCityBuildable,225,1>::WeightedElement *>
_TEXT	ENDS
PUBLIC	??$_Ptr_cat@PAUWeightedElement@?$CvWeightedVector@UCvCityBuildable@@$0OB@$00@@PAU12@@std@@YA?AU_Nonscalar_ptr_iterator_tag@0@AAPAUWeightedElement@?$CvWeightedVector@UCvCityBuildable@@$0OB@$00@@0@Z ; std::_Ptr_cat<CvWeightedVector<CvCityBuildable,225,1>::WeightedElement *,CvWeightedVector<CvCityBuildable,225,1>::WeightedElement *>
; Function compile flags: /Ogtpy
;	COMDAT ??$_Ptr_cat@PAUWeightedElement@?$CvWeightedVector@UCvCityBuildable@@$0OB@$00@@PAU12@@std@@YA?AU_Nonscalar_ptr_iterator_tag@0@AAPAUWeightedElement@?$CvWeightedVector@UCvCityBuildable@@$0OB@$00@@0@Z
_TEXT	SEGMENT
__Cat$ = -1						; size = 1
___formal$ = 8						; size = 4
___formal$ = 12						; size = 4
??$_Ptr_cat@PAUWeightedElement@?$CvWeightedVector@UCvCityBuildable@@$0OB@$00@@PAU12@@std@@YA?AU_Nonscalar_ptr_iterator_tag@0@AAPAUWeightedElement@?$CvWeightedVector@UCvCityBuildable@@$0OB@$00@@0@Z PROC ; std::_Ptr_cat<CvWeightedVector<CvCityBuildable,225,1>::WeightedElement *,CvWeightedVector<CvCityBuildable,225,1>::WeightedElement *>, COMDAT

; 1509 : 	{

	push	ecx

; 1510 : 	typename _Ptr_cat_helper<_T1, _T2>::_Ptr_cat _Cat;
; 1511 : 	return (_Cat);

	mov	al, BYTE PTR __Cat$[esp+4]

; 1512 : 	}

	pop	ecx
	ret	0
??$_Ptr_cat@PAUWeightedElement@?$CvWeightedVector@UCvCityBuildable@@$0OB@$00@@PAU12@@std@@YA?AU_Nonscalar_ptr_iterator_tag@0@AAPAUWeightedElement@?$CvWeightedVector@UCvCityBuildable@@$0OB@$00@@0@Z ENDP ; std::_Ptr_cat<CvWeightedVector<CvCityBuildable,225,1>::WeightedElement *,CvWeightedVector<CvCityBuildable,225,1>::WeightedElement *>
_TEXT	ENDS
PUBLIC	??$_Copy_backward_opt@PAUWeightedElement@?$CvWeightedVector@UCvCityBuildable@@$0OB@$00@@PAU12@Urandom_access_iterator_tag@std@@@std@@YAPAUWeightedElement@?$CvWeightedVector@UCvCityBuildable@@$0OB@$00@@PAU12@00Urandom_access_iterator_tag@0@U_Nonscalar_ptr_iterator_tag@0@U_Range_checked_iterator_tag@0@@Z ; std::_Copy_backward_opt<CvWeightedVector<CvCityBuildable,225,1>::WeightedElement *,CvWeightedVector<CvCityBuildable,225,1>::WeightedElement *,std::random_access_iterator_tag>
; Function compile flags: /Ogtpy
;	COMDAT ??$_Copy_backward_opt@PAUWeightedElement@?$CvWeightedVector@UCvCityBuildable@@$0OB@$00@@PAU12@Urandom_access_iterator_tag@std@@@std@@YAPAUWeightedElement@?$CvWeightedVector@UCvCityBuildable@@$0OB@$00@@PAU12@00Urandom_access_iterator_tag@0@U_Nonscalar_ptr_iterator_tag@0@U_Range_checked_iterator_tag@0@@Z
_TEXT	SEGMENT
__First$ = 8						; size = 4
__Last$ = 12						; size = 4
__Dest$ = 16						; size = 4
___formal$ = 20						; size = 1
___formal$ = 24						; size = 1
___formal$ = 28						; size = 1
??$_Copy_backward_opt@PAUWeightedElement@?$CvWeightedVector@UCvCityBuildable@@$0OB@$00@@PAU12@Urandom_access_iterator_tag@std@@@std@@YAPAUWeightedElement@?$CvWeightedVector@UCvCityBuildable@@$0OB@$00@@PAU12@00Urandom_access_iterator_tag@0@U_Nonscalar_ptr_iterator_tag@0@U_Range_checked_iterator_tag@0@@Z PROC ; std::_Copy_backward_opt<CvWeightedVector<CvCityBuildable,225,1>::WeightedElement *,CvWeightedVector<CvCityBuildable,225,1>::WeightedElement *,std::random_access_iterator_tag>, COMDAT

; 2674 : 	_DEBUG_RANGE(_First, _Last);
; 2675 : 	while (_First != _Last)

	mov	edx, DWORD PTR __First$[esp-4]
	mov	ecx, DWORD PTR __Last$[esp-4]
	mov	eax, DWORD PTR __Dest$[esp-4]
	cmp	edx, ecx
	je	SHORT $LN1@Copy_backw
	push	esi
$LL2@Copy_backw:

; 2676 : 		*--_Dest = *--_Last;

	mov	esi, DWORD PTR [ecx-16]
	sub	ecx, 16					; 00000010H
	sub	eax, 16					; 00000010H
	mov	DWORD PTR [eax], esi
	mov	esi, DWORD PTR [ecx+4]
	mov	DWORD PTR [eax+4], esi
	mov	esi, DWORD PTR [ecx+8]
	mov	DWORD PTR [eax+8], esi
	mov	esi, DWORD PTR [ecx+12]
	mov	DWORD PTR [eax+12], esi
	cmp	ecx, edx
	jne	SHORT $LL2@Copy_backw
	pop	esi
$LN1@Copy_backw:

; 2677 : 	return (_Dest);
; 2678 : 	}

	ret	0
??$_Copy_backward_opt@PAUWeightedElement@?$CvWeightedVector@UCvCityBuildable@@$0OB@$00@@PAU12@Urandom_access_iterator_tag@std@@@std@@YAPAUWeightedElement@?$CvWeightedVector@UCvCityBuildable@@$0OB@$00@@PAU12@00Urandom_access_iterator_tag@0@U_Nonscalar_ptr_iterator_tag@0@U_Range_checked_iterator_tag@0@@Z ENDP ; std::_Copy_backward_opt<CvWeightedVector<CvCityBuildable,225,1>::WeightedElement *,CvWeightedVector<CvCityBuildable,225,1>::WeightedElement *,std::random_access_iterator_tag>
_TEXT	ENDS
PUBLIC	??D?$_Temp_iterator@E@std@@QAEAAV01@XZ		; std::_Temp_iterator<unsigned char>::operator*
; Function compile flags: /Ogtpy
; File c:\program files (x86)\microsoft visual studio 9.0\vc\include\memory
;	COMDAT ??D?$_Temp_iterator@E@std@@QAEAAV01@XZ
_TEXT	SEGMENT
??D?$_Temp_iterator@E@std@@QAEAAV01@XZ PROC		; std::_Temp_iterator<unsigned char>::operator*, COMDAT
; _this$ = ecx

; 576  : 		{	// pretend to return designated value

	mov	eax, ecx

; 577  : 		return (*this);
; 578  : 		}

	ret	0
??D?$_Temp_iterator@E@std@@QAEAAV01@XZ ENDP		; std::_Temp_iterator<unsigned char>::operator*
_TEXT	ENDS
PUBLIC	??E?$_Temp_iterator@E@std@@QAEAAV01@XZ		; std::_Temp_iterator<unsigned char>::operator++
; Function compile flags: /Ogtpy
;	COMDAT ??E?$_Temp_iterator@E@std@@QAEAAV01@XZ
_TEXT	SEGMENT
??E?$_Temp_iterator@E@std@@QAEAAV01@XZ PROC		; std::_Temp_iterator<unsigned char>::operator++, COMDAT
; _this$ = ecx

; 581  : 		{	// pretend to preincrement

	mov	eax, ecx

; 582  : 		return (*this);
; 583  : 		}

	ret	0
??E?$_Temp_iterator@E@std@@QAEAAV01@XZ ENDP		; std::_Temp_iterator<unsigned char>::operator++
_TEXT	ENDS
PUBLIC	??$_Iter_random@PAEPAE@std@@YA?AUrandom_access_iterator_tag@0@ABQAE0@Z ; std::_Iter_random<unsigned char *,unsigned char *>
; Function compile flags: /Ogtpy
; File c:\program files (x86)\microsoft visual studio 9.0\vc\include\xutility
;	COMDAT ??$_Iter_random@PAEPAE@std@@YA?AUrandom_access_iterator_tag@0@ABQAE0@Z
_TEXT	SEGMENT
___$ReturnUdt$ = 8					; size = 4
___formal$ = 12						; size = 4
___formal$ = 16						; size = 4
??$_Iter_random@PAEPAE@std@@YA?AUrandom_access_iterator_tag@0@ABQAE0@Z PROC ; std::_Iter_random<unsigned char *,unsigned char *>, COMDAT

; 994  : 	typename _Iter_random_helper<
; 995  : 		iterator_traits<_Iter1>::iterator_category, 
; 996  : 		iterator_traits<_Iter2>::iterator_category>::_Iter_random_cat _Cat;
; 997  : 	return (_Cat);

	mov	eax, DWORD PTR ___$ReturnUdt$[esp-4]

; 998  : 	}

	ret	0
??$_Iter_random@PAEPAE@std@@YA?AUrandom_access_iterator_tag@0@ABQAE0@Z ENDP ; std::_Iter_random<unsigned char *,unsigned char *>
_TEXT	ENDS
PUBLIC	??$_Ptr_cat@PAEPAE@std@@YA?AU_Scalar_ptr_iterator_tag@0@AAPAE0@Z ; std::_Ptr_cat<unsigned char *,unsigned char *>
; Function compile flags: /Ogtpy
;	COMDAT ??$_Ptr_cat@PAEPAE@std@@YA?AU_Scalar_ptr_iterator_tag@0@AAPAE0@Z
_TEXT	SEGMENT
__Cat$ = -1						; size = 1
___formal$ = 8						; size = 4
___formal$ = 12						; size = 4
??$_Ptr_cat@PAEPAE@std@@YA?AU_Scalar_ptr_iterator_tag@0@AAPAE0@Z PROC ; std::_Ptr_cat<unsigned char *,unsigned char *>, COMDAT

; 1509 : 	{

	push	ecx

; 1510 : 	typename _Ptr_cat_helper<_T1, _T2>::_Ptr_cat _Cat;
; 1511 : 	return (_Cat);

	mov	al, BYTE PTR __Cat$[esp+4]

; 1512 : 	}

	pop	ecx
	ret	0
??$_Ptr_cat@PAEPAE@std@@YA?AU_Scalar_ptr_iterator_tag@0@AAPAE0@Z ENDP ; std::_Ptr_cat<unsigned char *,unsigned char *>
_TEXT	ENDS
PUBLIC	??$_Copy_backward_opt@PAEPAEUrandom_access_iterator_tag@std@@@std@@YAPAEPAE00Urandom_access_iterator_tag@0@U_Scalar_ptr_iterator_tag@0@U_Range_checked_iterator_tag@0@@Z ; std::_Copy_backward_opt<unsigned char *,unsigned char *,std::random_access_iterator_tag>
; Function compile flags: /Ogtpy
;	COMDAT ??$_Copy_backward_opt@PAEPAEUrandom_access_iterator_tag@std@@@std@@YAPAEPAE00Urandom_access_iterator_tag@0@U_Scalar_ptr_iterator_tag@0@U_Range_checked_iterator_tag@0@@Z
_TEXT	SEGMENT
__First$ = 8						; size = 4
__Last$ = 12						; size = 4
__Dest$ = 16						; size = 4
___formal$ = 20						; size = 1
___formal$ = 24						; size = 1
___formal$ = 28						; size = 1
??$_Copy_backward_opt@PAEPAEUrandom_access_iterator_tag@std@@@std@@YAPAEPAE00Urandom_access_iterator_tag@0@U_Scalar_ptr_iterator_tag@0@U_Range_checked_iterator_tag@0@@Z PROC ; std::_Copy_backward_opt<unsigned char *,unsigned char *,std::random_access_iterator_tag>, COMDAT

; 2699 : 
; 2700 :  #if _HAS_ITERATOR_DEBUGGING
; 2701 : 	_DEBUG_RANGE(_First, _Last);
; 2702 : 	if (_First != _Last)
; 2703 : 		_DEBUG_POINTER(_Dest);
; 2704 :  #endif /* _HAS_ITERATOR_DEBUGGING */
; 2705 : 
; 2706 : 	ptrdiff_t _Off = _Last - _First;	// NB: non-overlapping move

	mov	eax, DWORD PTR __Last$[esp-4]
	mov	ecx, DWORD PTR __First$[esp-4]
	push	esi

; 2707 : 	/* if _OutIt is range checked, this will make sure there is enough space for 
; 2708 : 	 * the memmove
; 2709 : 	 */
; 2710 : 	_OutIt _Result = _Dest - _Off;

	mov	esi, DWORD PTR __Dest$[esp]
	sub	eax, ecx
	sub	esi, eax

; 2711 : 	if (_Off > 0)

	test	eax, eax
	jle	SHORT $LN4@Copy_backw@2

; 2712 : 		_CRT_SECURE_MEMMOVE(&*_Result, _Off * sizeof (*_First), &*_First, _Off * sizeof (*_First));

	push	eax
	push	ecx
	push	eax
	push	esi
	call	DWORD PTR __imp__memmove_s
	add	esp, 16					; 00000010H
$LN4@Copy_backw@2:

; 2713 : 	return _Result;

	mov	eax, esi
	pop	esi

; 2714 : 	}

	ret	0
??$_Copy_backward_opt@PAEPAEUrandom_access_iterator_tag@std@@@std@@YAPAEPAE00Urandom_access_iterator_tag@0@U_Scalar_ptr_iterator_tag@0@U_Range_checked_iterator_tag@0@@Z ENDP ; std::_Copy_backward_opt<unsigned char *,unsigned char *,std::random_access_iterator_tag>
_TEXT	ENDS
PUBLIC	??$_Copy_opt@PAEPAEUrandom_access_iterator_tag@std@@@std@@YAPAEPAE00Urandom_access_iterator_tag@0@U_Scalar_ptr_iterator_tag@0@U_Range_checked_iterator_tag@0@@Z ; std::_Copy_opt<unsigned char *,unsigned char *,std::random_access_iterator_tag>
; Function compile flags: /Ogtpy
;	COMDAT ??$_Copy_opt@PAEPAEUrandom_access_iterator_tag@std@@@std@@YAPAEPAE00Urandom_access_iterator_tag@0@U_Scalar_ptr_iterator_tag@0@U_Range_checked_iterator_tag@0@@Z
_TEXT	SEGMENT
__First$ = 8						; size = 4
__Last$ = 12						; size = 4
__Dest$ = 16						; size = 4
___formal$ = 20						; size = 1
___formal$ = 24						; size = 1
___formal$ = 28						; size = 1
??$_Copy_opt@PAEPAEUrandom_access_iterator_tag@std@@@std@@YAPAEPAE00Urandom_access_iterator_tag@0@U_Scalar_ptr_iterator_tag@0@U_Range_checked_iterator_tag@0@@Z PROC ; std::_Copy_opt<unsigned char *,unsigned char *,std::random_access_iterator_tag>, COMDAT

; 2495 : 
; 2496 :  #if _HAS_ITERATOR_DEBUGGING
; 2497 : 	_DEBUG_RANGE(_First, _Last);
; 2498 : 	if (_First != _Last)
; 2499 : 		_DEBUG_POINTER(_Dest);
; 2500 :  #endif /* _HAS_ITERATOR_DEBUGGING */
; 2501 : 
; 2502 : 	ptrdiff_t _Off = _Last - _First;	// NB: non-overlapping move

	mov	eax, DWORD PTR __Last$[esp-4]
	mov	ecx, DWORD PTR __First$[esp-4]

; 2503 : 	// if _OutIt is range checked, this will make sure there is enough space for the memmove
; 2504 : 	_OutIt _Result = _Dest + _Off;

	mov	edx, DWORD PTR __Dest$[esp-4]
	sub	eax, ecx
	push	esi
	lea	esi, DWORD PTR [eax+edx]

; 2505 : 	if (_Off > 0)

	test	eax, eax
	jle	SHORT $LN4@Copy_opt@3

; 2506 : 		_CRT_SECURE_MEMMOVE(&*_Dest, _Off * sizeof (*_First), &*_First, _Off * sizeof (*_First));

	push	eax
	push	ecx
	push	eax
	push	edx
	call	DWORD PTR __imp__memmove_s
	add	esp, 16					; 00000010H
$LN4@Copy_opt@3:

; 2507 : 	return _Result;

	mov	eax, esi
	pop	esi

; 2508 : 	}

	ret	0
??$_Copy_opt@PAEPAEUrandom_access_iterator_tag@std@@@std@@YAPAEPAE00Urandom_access_iterator_tag@0@U_Scalar_ptr_iterator_tag@0@U_Range_checked_iterator_tag@0@@Z ENDP ; std::_Copy_opt<unsigned char *,unsigned char *,std::random_access_iterator_tag>
_TEXT	ENDS
PUBLIC	??$_Construct@EE@std@@YAXPAEABE@Z		; std::_Construct<unsigned char,unsigned char>
; Function compile flags: /Ogtpy
; File c:\program files (x86)\microsoft visual studio 9.0\vc\include\xmemory
;	COMDAT ??$_Construct@EE@std@@YAXPAEABE@Z
_TEXT	SEGMENT
__Ptr$ = 8						; size = 4
__Val$ = 12						; size = 4
??$_Construct@EE@std@@YAXPAEABE@Z PROC			; std::_Construct<unsigned char,unsigned char>, COMDAT

; 51   : 	void _FARQ *_Vptr = _Ptr;
; 52   : 	::new (_Vptr) _T1(_Val);

	mov	eax, DWORD PTR __Ptr$[esp-4]
	test	eax, eax
	je	SHORT $LN3@Construct@2
	mov	ecx, DWORD PTR __Val$[esp-4]
	mov	dl, BYTE PTR [ecx]
	mov	BYTE PTR [eax], dl
$LN3@Construct@2:

; 53   : 	}

	ret	0
??$_Construct@EE@std@@YAXPAEABE@Z ENDP			; std::_Construct<unsigned char,unsigned char>
_TEXT	ENDS
PUBLIC	??$_Iter_random@PAEPAEV?$_Temp_iterator@E@std@@@std@@YA?AUforward_iterator_tag@0@ABQAE0ABV?$_Temp_iterator@E@0@@Z ; std::_Iter_random<unsigned char *,unsigned char *,std::_Temp_iterator<unsigned char> >
; Function compile flags: /Ogtpy
; File c:\program files (x86)\microsoft visual studio 9.0\vc\include\xutility
;	COMDAT ??$_Iter_random@PAEPAEV?$_Temp_iterator@E@std@@@std@@YA?AUforward_iterator_tag@0@ABQAE0ABV?$_Temp_iterator@E@0@@Z
_TEXT	SEGMENT
___$ReturnUdt$ = 8					; size = 4
___formal$ = 12						; size = 4
___formal$ = 16						; size = 4
___formal$ = 20						; size = 4
??$_Iter_random@PAEPAEV?$_Temp_iterator@E@std@@@std@@YA?AUforward_iterator_tag@0@ABQAE0ABV?$_Temp_iterator@E@0@@Z PROC ; std::_Iter_random<unsigned char *,unsigned char *,std::_Temp_iterator<unsigned char> >, COMDAT

; 1007 : 	typename _Iter_random_helper3<
; 1008 : 		iterator_traits<_Iter1>::iterator_category, 
; 1009 : 		iterator_traits<_Iter2>::iterator_category,
; 1010 : 		iterator_traits<_Iter3>::iterator_category>::_Iter_random_cat _Cat;
; 1011 : 	return (_Cat);

	mov	eax, DWORD PTR ___$ReturnUdt$[esp-4]

; 1012 : 	}

	ret	0
??$_Iter_random@PAEPAEV?$_Temp_iterator@E@std@@@std@@YA?AUforward_iterator_tag@0@ABQAE0ABV?$_Temp_iterator@E@0@@Z ENDP ; std::_Iter_random<unsigned char *,unsigned char *,std::_Temp_iterator<unsigned char> >
_TEXT	ENDS
PUBLIC	??$_Rotate@PAEHE@std@@YAXPAE00PAH0@Z		; std::_Rotate<unsigned char *,int,unsigned char>
; Function compile flags: /Ogtpy
; File c:\program files (x86)\microsoft visual studio 9.0\vc\include\algorithm
;	COMDAT ??$_Rotate@PAEHE@std@@YAXPAE00PAH0@Z
_TEXT	SEGMENT
__Count$ = -16						; size = 4
tv262 = -12						; size = 4
tv260 = -8						; size = 4
tv256 = -4						; size = 4
__First$ = 8						; size = 4
tv161 = 12						; size = 4
__Holeval$230145 = 12					; size = 1
__Mid$ = 12						; size = 4
__Next$230144 = 16					; size = 4
__Last$ = 16						; size = 4
___formal$ = 20						; size = 4
___formal$ = 24						; size = 4
??$_Rotate@PAEHE@std@@YAXPAE00PAH0@Z PROC		; std::_Rotate<unsigned char *,int,unsigned char>, COMDAT

; 1679 : 	{	// rotate [_First, _Last), random-access iterators

	sub	esp, 16					; 00000010H
	push	ebx

; 1680 : 	_DEBUG_RANGE(_First, _Mid);
; 1681 : 	_DEBUG_RANGE(_Mid, _Last);
; 1682 : 	_Diff _Shift = _Mid - _First;

	mov	ebx, DWORD PTR __First$[esp+16]
	push	ebp

; 1683 : 	_Diff _Count = _Last - _First;

	mov	ebp, DWORD PTR __Last$[esp+20]
	push	esi
	mov	esi, DWORD PTR __Mid$[esp+24]
	sub	esi, ebx
	mov	eax, ebp
	sub	eax, ebx
	push	edi
	mov	DWORD PTR tv161[esp+28], eax
	mov	edi, eax
	mov	DWORD PTR __Count$[esp+32], eax

; 1684 : 
; 1685 : 	for (_Diff _Factor = _Shift; _Factor != 0; )

	mov	ecx, esi
	test	esi, esi
	je	SHORT $LN7@Rotate
	npad	7
$LL8@Rotate:

; 1686 : 		{	// find subcycle count as GCD of shift count and length
; 1687 : 		_Diff _Tmp = _Count % _Factor;

	mov	eax, edi
	cdq
	idiv	ecx

; 1688 : 		_Count = _Factor, _Factor = _Tmp;

	mov	edi, ecx
	mov	ecx, edx
	test	edx, edx
	jne	SHORT $LL8@Rotate
	mov	eax, DWORD PTR tv161[esp+28]
	mov	DWORD PTR __Count$[esp+32], edi
$LN7@Rotate:

; 1689 : 		}
; 1690 : 
; 1691 : 	if (_Count < _Last - _First)

	cmp	edi, eax
	jge	$LN3@Rotate

; 1692 : 		for (; 0 < _Count; --_Count)

	test	edi, edi
	jle	$LN3@Rotate
	lea	eax, DWORD PTR [edi+ebx]
	mov	DWORD PTR tv262[esp+32], eax
	npad	4
$LL5@Rotate:

; 1693 : 			{	// rotate each subcycle
; 1694 : 			_RanIt _Hole = _First + _Count;
; 1695 : 			_RanIt _Next = _Hole;
; 1696 : 			_Ty _Holeval = *_Hole;

	mov	cl, BYTE PTR [eax]

; 1697 : 			_RanIt _Next1 = _Next + _Shift == _Last ? _First : _Next + _Shift;

	lea	edx, DWORD PTR [eax+esi]
	mov	DWORD PTR __Next$230144[esp+28], eax
	mov	BYTE PTR __Holeval$230145[esp+28], cl
	cmp	edx, ebp
	jne	SHORT $LN11@Rotate
	mov	edx, ebx
$LN11@Rotate:

; 1698 : 			while (_Next1 != _Hole)

	cmp	edx, eax
	je	SHORT $LN1@Rotate
	mov	ecx, edx
	mov	edi, esi
	neg	ebx
	mov	eax, ebp
	neg	ecx
	neg	edi
	neg	eax
	mov	DWORD PTR tv256[esp+32], ebx
	mov	DWORD PTR tv260[esp+32], eax
	npad	3
$LL2@Rotate:

; 1699 : 				{	// percolate elements back around subcycle
; 1700 : 				*_Next = *_Next1;

	mov	ebx, DWORD PTR __Next$230144[esp+28]
	mov	al, BYTE PTR [edx]
	mov	BYTE PTR [ebx], al

; 1701 : 				_Next = _Next1;
; 1702 : 				_Next1 = _Shift < _Last - _Next1 ? _Next1 + _Shift
; 1703 : 					: _First + (_Shift - (_Last - _Next1));

	mov	ebx, DWORD PTR __First$[esp+28]
	lea	eax, DWORD PTR [ecx+ebp]
	cmp	esi, eax
	mov	DWORD PTR __Next$230144[esp+28], edx
	jge	SHORT $LN13@Rotate
	add	edx, esi
	add	ecx, edi
	jmp	SHORT $LN14@Rotate
$LN13@Rotate:
	sub	ecx, DWORD PTR tv260[esp+32]
	mov	eax, esi
	sub	eax, ebp
	add	eax, ebx
	add	edx, eax
	mov	eax, DWORD PTR tv256[esp+32]
	add	ecx, edi
	add	ecx, eax
$LN14@Rotate:
	mov	eax, DWORD PTR tv262[esp+32]
	cmp	edx, eax
	jne	SHORT $LL2@Rotate

; 1698 : 			while (_Next1 != _Hole)

	mov	edi, DWORD PTR __Count$[esp+32]
$LN1@Rotate:

; 1704 : 				}
; 1705 : 			*_Next = _Holeval;

	mov	cl, BYTE PTR __Holeval$230145[esp+28]
	mov	edx, DWORD PTR __Next$230144[esp+28]
	dec	edi
	dec	eax
	mov	BYTE PTR [edx], cl
	mov	DWORD PTR __Count$[esp+32], edi
	mov	DWORD PTR tv262[esp+32], eax
	test	edi, edi
	jg	$LL5@Rotate
$LN3@Rotate:
	pop	edi
	pop	esi
	pop	ebp
	pop	ebx

; 1706 : 			}
; 1707 : 	}

	add	esp, 16					; 00000010H
	ret	0
??$_Rotate@PAEHE@std@@YAXPAE00PAH0@Z ENDP		; std::_Rotate<unsigned char *,int,unsigned char>
_TEXT	ENDS
EXTRN	__imp_??0exception@std@@QAE@ABV01@@Z:PROC
;	COMDAT xdata$x
xdata$x	SEGMENT
__unwindtable$??0logic_error@std@@QAE@ABV01@@Z DD 0ffffffffH
	DD	FLAT:__unwindfunclet$??0logic_error@std@@QAE@ABV01@@Z$0
__ehfuncinfo$??0logic_error@std@@QAE@ABV01@@Z DD 019930522H
	DD	01H
	DD	FLAT:__unwindtable$??0logic_error@std@@QAE@ABV01@@Z
	DD	2 DUP(00H)
	DD	2 DUP(00H)
	DD	00H
	DD	01H
; Function compile flags: /Ogtpy
xdata$x	ENDS
;	COMDAT ??0logic_error@std@@QAE@ABV01@@Z
_TEXT	SEGMENT
_this$ = -16						; size = 4
__$EHRec$ = -12						; size = 12
___that$ = 8						; size = 4
??0logic_error@std@@QAE@ABV01@@Z PROC			; std::logic_error::logic_error, COMDAT
; _this$ = ecx
	push	-1
	push	__ehhandler$??0logic_error@std@@QAE@ABV01@@Z
	mov	eax, DWORD PTR fs:0
	push	eax
	mov	DWORD PTR fs:0, esp
	push	ecx
	push	esi
	push	edi
	mov	edi, DWORD PTR ___that$[esp+20]
	mov	esi, ecx
	push	edi
	mov	DWORD PTR _this$[esp+28], esi
	call	DWORD PTR __imp_??0exception@std@@QAE@ABV01@@Z
	add	edi, 12					; 0000000cH
	push	edi
	lea	ecx, DWORD PTR [esi+12]
	mov	DWORD PTR __$EHRec$[esp+36], 0
	mov	DWORD PTR [esi], OFFSET ??_7logic_error@std@@6B@
	call	DWORD PTR __imp_??0?$basic_string@DU?$char_traits@D@std@@V?$allocator@D@2@@std@@QAE@ABV01@@Z
	mov	ecx, DWORD PTR __$EHRec$[esp+24]
	pop	edi
	mov	eax, esi
	pop	esi
	mov	DWORD PTR fs:0, ecx
	add	esp, 16					; 00000010H
	ret	4
_TEXT	ENDS
;	COMDAT text$x
text$x	SEGMENT
__unwindfunclet$??0logic_error@std@@QAE@ABV01@@Z$0:
	mov	ecx, DWORD PTR _this$[ebp]
	jmp	DWORD PTR __imp_??1exception@std@@UAE@XZ
__ehhandler$??0logic_error@std@@QAE@ABV01@@Z:
	mov	eax, OFFSET __ehfuncinfo$??0logic_error@std@@QAE@ABV01@@Z
	jmp	___CxxFrameHandler3
text$x	ENDS
??0logic_error@std@@QAE@ABV01@@Z ENDP			; std::logic_error::logic_error
PUBLIC	??0CvString@@QAE@XZ				; CvString::CvString
EXTRN	__imp_??0?$basic_string@DU?$char_traits@D@std@@V?$allocator@D@2@@std@@QAE@XZ:PROC
; Function compile flags: /Ogtpy
; File c:\users\enormousapplepie\desktop\lekmod files\lekmod dll versions\v29\lekmod_dll\cvgamecoredllutil\include\cvstring.h
;	COMDAT ??0CvString@@QAE@XZ
_TEXT	SEGMENT
??0CvString@@QAE@XZ PROC				; CvString::CvString, COMDAT
; _this$ = ecx

; 23   : 	CvString() {}

	push	esi
	mov	esi, ecx
	call	DWORD PTR __imp_??0?$basic_string@DU?$char_traits@D@std@@V?$allocator@D@2@@std@@QAE@XZ
	mov	eax, esi
	pop	esi
	ret	0
??0CvString@@QAE@XZ ENDP				; CvString::CvString
_TEXT	ENDS
PUBLIC	??_C@_00CNPNBAHC@?$AA@				; `string'
PUBLIC	??0CvString@@QAE@PBD@Z				; CvString::CvString
;	COMDAT ??_C@_00CNPNBAHC@?$AA@
CONST	SEGMENT
??_C@_00CNPNBAHC@?$AA@ DB 00H				; `string'
; Function compile flags: /Ogtpy
CONST	ENDS
;	COMDAT ??0CvString@@QAE@PBD@Z
_TEXT	SEGMENT
_s$ = 8							; size = 4
??0CvString@@QAE@PBD@Z PROC				; CvString::CvString, COMDAT
; _this$ = ecx

; 25   : 	CvString(const char* s) : std::string(s ? s : "") {CvAssertMsg(s != NULL, "Passing NULL to std::string; possible heap corruption!");}

	mov	eax, DWORD PTR _s$[esp-4]
	push	esi
	mov	esi, ecx
	test	eax, eax
	jne	SHORT $LN4@CvString
	mov	eax, OFFSET ??_C@_00CNPNBAHC@?$AA@
$LN4@CvString:
	push	eax
	call	DWORD PTR __imp_??0?$basic_string@DU?$char_traits@D@std@@V?$allocator@D@2@@std@@QAE@PBD@Z
	mov	eax, esi
	pop	esi
	ret	4
??0CvString@@QAE@PBD@Z ENDP				; CvString::CvString
_TEXT	ENDS
PUBLIC	??1CvString@@QAE@XZ				; CvString::~CvString
; Function compile flags: /Ogtpy
;	COMDAT ??1CvString@@QAE@XZ
_TEXT	SEGMENT
??1CvString@@QAE@XZ PROC				; CvString::~CvString, COMDAT
; _this$ = ecx

; 28   : 	~CvString() {}

	jmp	DWORD PTR __imp_??1?$basic_string@DU?$char_traits@D@std@@V?$allocator@D@2@@std@@QAE@XZ
??1CvString@@QAE@XZ ENDP				; CvString::~CvString
_TEXT	ENDS
PUBLIC	??BCvString@@QBEPBDXZ				; CvString::operator char const *
; Function compile flags: /Ogtpy
;	COMDAT ??BCvString@@QBEPBDXZ
_TEXT	SEGMENT
??BCvString@@QBEPBDXZ PROC				; CvString::operator char const *, COMDAT
; _this$ = ecx

; 31   : 	operator const char*() const 	{ return c_str(); }												

	jmp	DWORD PTR __imp_?c_str@?$basic_string@DU?$char_traits@D@std@@V?$allocator@D@2@@std@@QBEPBDXZ
??BCvString@@QBEPBDXZ ENDP				; CvString::operator char const *
_TEXT	ENDS
PUBLIC	??4CvString@@QAEAAV0@PBD@Z			; CvString::operator=
EXTRN	__imp_?clear@?$basic_string@DU?$char_traits@D@std@@V?$allocator@D@2@@std@@QAEXXZ:PROC
EXTRN	__imp_?assign@?$basic_string@DU?$char_traits@D@std@@V?$allocator@D@2@@std@@QAEAAV12@PBD@Z:PROC
; Function compile flags: /Ogtpy
;	COMDAT ??4CvString@@QAEAAV0@PBD@Z
_TEXT	SEGMENT
_s$ = 8							; size = 4
??4CvString@@QAEAAV0@PBD@Z PROC				; CvString::operator=, COMDAT
; _this$ = ecx

; 37   : 	CvString& operator=( const char* s) { if (s) assign(s); else clear();	return *this; }	

	mov	eax, DWORD PTR _s$[esp-4]
	push	esi
	mov	esi, ecx
	test	eax, eax
	je	SHORT $LN2@operator
	push	eax
	call	DWORD PTR __imp_?assign@?$basic_string@DU?$char_traits@D@std@@V?$allocator@D@2@@std@@QAEAAV12@PBD@Z
	mov	eax, esi
	pop	esi
	ret	4
$LN2@operator:
	call	DWORD PTR __imp_?clear@?$basic_string@DU?$char_traits@D@std@@V?$allocator@D@2@@std@@QAEXXZ
	mov	eax, esi
	pop	esi
	ret	4
??4CvString@@QAEAAV0@PBD@Z ENDP				; CvString::operator=
_TEXT	ENDS
PUBLIC	??4CvString@@QAEAAV0@ABV?$basic_string@DU?$char_traits@D@std@@V?$allocator@D@2@@std@@@Z ; CvString::operator=
; Function compile flags: /Ogtpy
;	COMDAT ??4CvString@@QAEAAV0@ABV?$basic_string@DU?$char_traits@D@std@@V?$allocator@D@2@@std@@@Z
_TEXT	SEGMENT
_s$ = 8							; size = 4
??4CvString@@QAEAAV0@ABV?$basic_string@DU?$char_traits@D@std@@V?$allocator@D@2@@std@@@Z PROC ; CvString::operator=, COMDAT
; _this$ = ecx

; 38   : 	CvString& operator=( const std::string& s) { assign(s.c_str());	return *this; }	

	push	esi
	mov	esi, ecx
	mov	ecx, DWORD PTR _s$[esp]
	call	DWORD PTR __imp_?c_str@?$basic_string@DU?$char_traits@D@std@@V?$allocator@D@2@@std@@QBEPBDXZ
	push	eax
	mov	ecx, esi
	call	DWORD PTR __imp_?assign@?$basic_string@DU?$char_traits@D@std@@V?$allocator@D@2@@std@@QAEAAV12@PBD@Z
	mov	eax, esi
	pop	esi
	ret	4
??4CvString@@QAEAAV0@ABV?$basic_string@DU?$char_traits@D@std@@V?$allocator@D@2@@std@@@Z ENDP ; CvString::operator=
_TEXT	ENDS
PUBLIC	?IsEmpty@CvString@@QBE_NXZ			; CvString::IsEmpty
EXTRN	__imp_?empty@?$basic_string@DU?$char_traits@D@std@@V?$allocator@D@2@@std@@QBE_NXZ:PROC
; Function compile flags: /Ogtpy
;	COMDAT ?IsEmpty@CvString@@QBE_NXZ
_TEXT	SEGMENT
?IsEmpty@CvString@@QBE_NXZ PROC				; CvString::IsEmpty, COMDAT
; _this$ = ecx

; 41   : 	bool IsEmpty() const { return (empty() || this[0] == '\0');}

	push	esi
	mov	esi, ecx
	call	DWORD PTR __imp_?empty@?$basic_string@DU?$char_traits@D@std@@V?$allocator@D@2@@std@@QBE_NXZ
	test	al, al
	jne	SHORT $LN3@IsEmpty
	mov	ecx, esi
	call	DWORD PTR __imp_?c_str@?$basic_string@DU?$char_traits@D@std@@V?$allocator@D@2@@std@@QBEPBDXZ
	test	eax, eax
	je	SHORT $LN3@IsEmpty
	xor	eax, eax
	pop	esi
	ret	0
$LN3@IsEmpty:
	mov	eax, 1
	pop	esi
	ret	0
?IsEmpty@CvString@@QBE_NXZ ENDP				; CvString::IsEmpty
_TEXT	ENDS
PUBLIC	?GetCString@CvString@@QBEPBDXZ			; CvString::GetCString
; Function compile flags: /Ogtpy
;	COMDAT ?GetCString@CvString@@QBEPBDXZ
_TEXT	SEGMENT
?GetCString@CvString@@QBEPBDXZ PROC			; CvString::GetCString, COMDAT
; _this$ = ecx

; 42   : 	const char* GetCString() const 	{ return c_str(); }

	jmp	DWORD PTR __imp_?c_str@?$basic_string@DU?$char_traits@D@std@@V?$allocator@D@2@@std@@QBEPBDXZ
?GetCString@CvString@@QBEPBDXZ ENDP			; CvString::GetCString
_TEXT	ENDS
PUBLIC	?formatv@CvString@@SA_NAAV?$basic_string@DU?$char_traits@D@std@@V?$allocator@D@2@@std@@PBDPAD@Z ; CvString::formatv
EXTRN	__imp_??4?$basic_string@DU?$char_traits@D@std@@V?$allocator@D@2@@std@@QAEAAV01@PBD@Z:PROC
EXTRN	??_U@YAPAXI@Z:PROC				; operator new[]
EXTRN	__imp___vsnprintf:PROC
; Function compile flags: /Ogtpy
;	COMDAT ?formatv@CvString@@SA_NAAV?$basic_string@DU?$char_traits@D@std@@V?$allocator@D@2@@std@@PBDPAD@Z
_TEXT	SEGMENT
_buf$ = -2048						; size = 2048
_out$ = 8						; size = 4
_fmt$ = 12						; size = 4
_args$ = 16						; size = 4
?formatv@CvString@@SA_NAAV?$basic_string@DU?$char_traits@D@std@@V?$allocator@D@2@@std@@PBDPAD@Z PROC ; CvString::formatv, COMDAT

; 191  : {

	sub	esp, 2048				; 00000800H
	push	ebx
	push	ebp

; 192  : 	char buf[2048];
; 193  : 	char * pbuf = buf;

	mov	ebp, DWORD PTR _args$[esp+2052]
	push	esi
	push	edi
	lea	edi, DWORD PTR _buf$[esp+2064]
	mov	esi, 2047				; 000007ffH
	npad	6
$LL10@formatv:

; 194  : 	int len = 0;
; 195  : 	int attempts = 0;
; 196  : 	bool success = false;
; 197  : 	const int kMaxAttempts = 40;
; 198  : 
; 199  : 	do
; 200  : 	{
; 201  : 		int maxlen = 2047+2048*attempts;
; 202  : 		len = _vsnprintf(pbuf,maxlen,fmt,args);

	mov	eax, DWORD PTR _fmt$[esp+2060]
	push	ebp
	push	eax
	push	esi
	push	edi
	mov	ebx, esi
	call	DWORD PTR __imp___vsnprintf
	add	esp, 16					; 00000010H

; 203  : 		attempts++;

	add	esi, 2048				; 00000800H

; 204  : 		success = (len>=0 && len<=maxlen);

	test	eax, eax
	jl	SHORT $LN13@formatv
	cmp	eax, ebx
	jle	SHORT $LN18@formatv
$LN13@formatv:

; 205  : 		if (!success)
; 206  : 		{
; 207  : 			if (pbuf!=buf)

	lea	ecx, DWORD PTR _buf$[esp+2064]
	xor	bl, bl
	cmp	edi, ecx
	je	SHORT $LN6@formatv

; 208  : 				delete [] pbuf;

	push	edi
	call	??_V@YAXPAX@Z				; operator delete[]
	add	esp, 4
$LN6@formatv:

; 209  : 			pbuf = new char[2048+2048*attempts];

	lea	edx, DWORD PTR [esi+1]
	push	edx
	call	??_U@YAPAXI@Z				; operator new[]
	add	esp, 4

; 210  : 		}
; 211  : 	}
; 212  : 	while (!success && attempts<kMaxAttempts);

	cmp	esi, 83967				; 000147ffH
	mov	edi, eax
	jl	SHORT $LL10@formatv

; 222  : 		out = "";

	push	OFFSET ??_C@_00CNPNBAHC@?$AA@
$LN21@formatv:
	mov	ecx, DWORD PTR _out$[esp+2064]
	call	DWORD PTR __imp_??4?$basic_string@DU?$char_traits@D@std@@V?$allocator@D@2@@std@@QAEAAV01@PBD@Z

; 223  : 
; 224  : 	if (pbuf!=buf)

	lea	eax, DWORD PTR _buf$[esp+2064]
	cmp	edi, eax
	je	SHORT $LN20@formatv

; 225  : 		delete [] pbuf;

	push	edi
	call	??_V@YAXPAX@Z				; operator delete[]
	add	esp, 4
$LN20@formatv:
	pop	edi
	pop	esi
	pop	ebp

; 226  : 
; 227  : 	return success;

	mov	al, bl
	pop	ebx

; 228  : }

	add	esp, 2048				; 00000800H
	ret	0
$LN18@formatv:

; 204  : 		success = (len>=0 && len<=maxlen);

	mov	bl, 1

; 213  : 
; 214  : 	if ( attempts==kMaxAttempts )
; 215  : 	{
; 216  : 		// dxPrintNL( "CvString::formatv - Max reallocs occurred while formatting string. Result is likely truncated!", 0 );
; 217  : 	}
; 218  : 
; 219  : 	if (success)
; 220  : 		out = pbuf;

	push	edi

; 221  : 	else

	jmp	SHORT $LN21@formatv
?formatv@CvString@@SA_NAAV?$basic_string@DU?$char_traits@D@std@@V?$allocator@D@2@@std@@PBDPAD@Z ENDP ; CvString::formatv
_TEXT	ENDS
PUBLIC	?Format@CvString@@QAAXPBDZZ			; CvString::Format
;	COMDAT xdata$x
xdata$x	SEGMENT
__unwindtable$?Format@CvString@@QAAXPBDZZ DD 0ffffffffH
	DD	FLAT:__unwindfunclet$?Format@CvString@@QAAXPBDZZ$0
__ehfuncinfo$?Format@CvString@@QAAXPBDZZ DD 019930522H
	DD	01H
	DD	FLAT:__unwindtable$?Format@CvString@@QAAXPBDZZ
	DD	2 DUP(00H)
	DD	2 DUP(00H)
	DD	00H
	DD	01H
; Function compile flags: /Ogtpy
xdata$x	ENDS
;	COMDAT ?Format@CvString@@QAAXPBDZZ
_TEXT	SEGMENT
_result$ = -40						; size = 28
__$EHRec$ = -12						; size = 12
_this$ = 8						; size = 4
_lpszFormat$ = 12					; size = 4
?Format@CvString@@QAAXPBDZZ PROC			; CvString::Format, COMDAT

; 269  : {

	push	-1
	push	__ehhandler$?Format@CvString@@QAAXPBDZZ
	mov	eax, DWORD PTR fs:0
	push	eax
	mov	DWORD PTR fs:0, esp
	sub	esp, 28					; 0000001cH

; 270  : 	std::string result;

	lea	ecx, DWORD PTR _result$[esp+40]
	call	DWORD PTR __imp_??0?$basic_string@DU?$char_traits@D@std@@V?$allocator@D@2@@std@@QAE@XZ

; 271  : 	va_list args;
; 272  : 	va_start(args,lpszFormat);
; 273  : 	formatv(result,lpszFormat,args);

	mov	ecx, DWORD PTR _lpszFormat$[esp+36]
	lea	eax, DWORD PTR _lpszFormat$[esp+40]
	push	eax
	push	ecx
	lea	edx, DWORD PTR _result$[esp+48]
	push	edx
	mov	DWORD PTR __$EHRec$[esp+60], 0
	call	?formatv@CvString@@SA_NAAV?$basic_string@DU?$char_traits@D@std@@V?$allocator@D@2@@std@@PBDPAD@Z ; CvString::formatv
	add	esp, 12					; 0000000cH

; 274  : 	va_end(args);
; 275  : 	*this = result;

	lea	ecx, DWORD PTR _result$[esp+40]
	call	DWORD PTR __imp_?c_str@?$basic_string@DU?$char_traits@D@std@@V?$allocator@D@2@@std@@QBEPBDXZ
	mov	ecx, DWORD PTR _this$[esp+36]
	push	eax
	call	DWORD PTR __imp_?assign@?$basic_string@DU?$char_traits@D@std@@V?$allocator@D@2@@std@@QAEAAV12@PBD@Z

; 276  : }

	lea	ecx, DWORD PTR _result$[esp+40]
	mov	DWORD PTR __$EHRec$[esp+48], -1
	call	DWORD PTR __imp_??1?$basic_string@DU?$char_traits@D@std@@V?$allocator@D@2@@std@@QAE@XZ
	mov	ecx, DWORD PTR __$EHRec$[esp+40]
	mov	DWORD PTR fs:0, ecx
	add	esp, 40					; 00000028H
	ret	0
_TEXT	ENDS
;	COMDAT text$x
text$x	SEGMENT
__unwindfunclet$?Format@CvString@@QAAXPBDZZ$0:
	lea	ecx, DWORD PTR _result$[ebp]
	jmp	DWORD PTR __imp_??1?$basic_string@DU?$char_traits@D@std@@V?$allocator@D@2@@std@@QAE@XZ
__ehhandler$?Format@CvString@@QAAXPBDZZ:
	mov	eax, OFFSET __ehfuncinfo$?Format@CvString@@QAAXPBDZZ
	jmp	___CxxFrameHandler3
text$x	ENDS
?Format@CvString@@QAAXPBDZZ ENDP			; CvString::Format
PUBLIC	??CCvLuaArgsHandle@@QBEPAVICvEngineScriptSystemArgs1@@XZ ; CvLuaArgsHandle::operator->
; Function compile flags: /Ogtpy
; File c:\users\enormousapplepie\desktop\lekmod files\lekmod dll versions\v29\lekmod_dll\cvgamecoredll_expansion2\lua\cvluaargshandle.h
;	COMDAT ??CCvLuaArgsHandle@@QBEPAVICvEngineScriptSystemArgs1@@XZ
_TEXT	SEGMENT
??CCvLuaArgsHandle@@QBEPAVICvEngineScriptSystemArgs1@@XZ PROC ; CvLuaArgsHandle::operator->, COMDAT
; _this$ = ecx

; 40   : 	return m_Ptr;

	mov	eax, DWORD PTR [ecx]

; 41   : }

	ret	0
??CCvLuaArgsHandle@@QBEPAVICvEngineScriptSystemArgs1@@XZ ENDP ; CvLuaArgsHandle::operator->
_TEXT	ENDS
PUBLIC	?get@CvLuaArgsHandle@@QBEPAVICvEngineScriptSystemArgs1@@XZ ; CvLuaArgsHandle::get
; Function compile flags: /Ogtpy
;	COMDAT ?get@CvLuaArgsHandle@@QBEPAVICvEngineScriptSystemArgs1@@XZ
_TEXT	SEGMENT
?get@CvLuaArgsHandle@@QBEPAVICvEngineScriptSystemArgs1@@XZ PROC ; CvLuaArgsHandle::get, COMDAT
; _this$ = ecx

; 45   : 	return m_Ptr;

	mov	eax, DWORD PTR [ecx]

; 46   : }

	ret	0
?get@CvLuaArgsHandle@@QBEPAVICvEngineScriptSystemArgs1@@XZ ENDP ; CvLuaArgsHandle::get
_TEXT	ENDS
PUBLIC	?GetID@CvBaseInfo@@QBEHXZ			; CvBaseInfo::GetID
; Function compile flags: /Ogtpy
; File c:\users\enormousapplepie\desktop\lekmod files\lekmod dll versions\v29\lekmod_dll\cvgamecoredll_expansion2\cvinfos.h
;	COMDAT ?GetID@CvBaseInfo@@QBEHXZ
_TEXT	SEGMENT
?GetID@CvBaseInfo@@QBEHXZ PROC				; CvBaseInfo::GetID, COMDAT
; _this$ = ecx

; 54   : 		return m_iID;

	mov	eax, DWORD PTR [ecx+4]

; 55   : 	}

	ret	0
?GetID@CvBaseInfo@@QBEHXZ ENDP				; CvBaseInfo::GetID
_TEXT	ENDS
PUBLIC	?GetDescription@CvBaseInfo@@QBEPBDXZ		; CvBaseInfo::GetDescription
; Function compile flags: /Ogtpy
;	COMDAT ?GetDescription@CvBaseInfo@@QBEPBDXZ
_TEXT	SEGMENT
?GetDescription@CvBaseInfo@@QBEPBDXZ PROC		; CvBaseInfo::GetDescription, COMDAT
; _this$ = ecx

; 64   : 		return m_strDescription.c_str();

	add	ecx, 36					; 00000024H
	jmp	DWORD PTR __imp_?c_str@?$basic_string@DU?$char_traits@D@std@@V?$allocator@D@2@@std@@QBEPBDXZ
?GetDescription@CvBaseInfo@@QBEPBDXZ ENDP		; CvBaseInfo::GetDescription
_TEXT	ENDS
PUBLIC	?GetType@CvBaseInfo@@QBEPBDXZ			; CvBaseInfo::GetType
; Function compile flags: /Ogtpy
;	COMDAT ?GetType@CvBaseInfo@@QBEPBDXZ
_TEXT	SEGMENT
?GetType@CvBaseInfo@@QBEPBDXZ PROC			; CvBaseInfo::GetType, COMDAT
; _this$ = ecx

; 92   : 		return m_strType.c_str();

	add	ecx, 176				; 000000b0H
	jmp	DWORD PTR __imp_?c_str@?$basic_string@DU?$char_traits@D@std@@V?$allocator@D@2@@std@@QBEPBDXZ
?GetType@CvBaseInfo@@QBEPBDXZ ENDP			; CvBaseInfo::GetType
_TEXT	ENDS
PUBLIC	?getMap@CvGlobals@@QAEAAVCvMap@@XZ		; CvGlobals::getMap
; Function compile flags: /Ogtpy
; File c:\users\enormousapplepie\desktop\lekmod files\lekmod dll versions\v29\lekmod_dll\cvgamecoredll_expansion2\cvglobals.h
;	COMDAT ?getMap@CvGlobals@@QAEAAVCvMap@@XZ
_TEXT	SEGMENT
?getMap@CvGlobals@@QAEAAVCvMap@@XZ PROC			; CvGlobals::getMap, COMDAT
; _this$ = ecx

; 175  : 		return *m_map;    // inlined for perf reasons, do not use outside of dll

	mov	eax, DWORD PTR [ecx+52]

; 176  : 	}

	ret	0
?getMap@CvGlobals@@QAEAAVCvMap@@XZ ENDP			; CvGlobals::getMap
_TEXT	ENDS
PUBLIC	?getGame@CvGlobals@@QAEAAVCvGame@@XZ		; CvGlobals::getGame
; Function compile flags: /Ogtpy
;	COMDAT ?getGame@CvGlobals@@QAEAAVCvGame@@XZ
_TEXT	SEGMENT
?getGame@CvGlobals@@QAEAAVCvGame@@XZ PROC		; CvGlobals::getGame, COMDAT
; _this$ = ecx

; 183  : 		return *m_game;    // inlined for perf reasons, do not use outside of dll

	mov	eax, DWORD PTR [ecx+48]

; 184  : 	}

	ret	0
?getGame@CvGlobals@@QAEAAVCvGame@@XZ ENDP		; CvGlobals::getGame
_TEXT	ENDS
PUBLIC	?getPlotDirectionX@CvGlobals@@QAEPAHXZ		; CvGlobals::getPlotDirectionX
; Function compile flags: /Ogtpy
;	COMDAT ?getPlotDirectionX@CvGlobals@@QAEPAHXZ
_TEXT	SEGMENT
?getPlotDirectionX@CvGlobals@@QAEPAHXZ PROC		; CvGlobals::getPlotDirectionX, COMDAT
; _this$ = ecx

; 191  : 		return m_aiPlotDirectionX;

	lea	eax, DWORD PTR [ecx+112]

; 192  : 	}

	ret	0
?getPlotDirectionX@CvGlobals@@QAEPAHXZ ENDP		; CvGlobals::getPlotDirectionX
_TEXT	ENDS
PUBLIC	?getPlotDirectionY@CvGlobals@@QAEPAHXZ		; CvGlobals::getPlotDirectionY
; Function compile flags: /Ogtpy
;	COMDAT ?getPlotDirectionY@CvGlobals@@QAEPAHXZ
_TEXT	SEGMENT
?getPlotDirectionY@CvGlobals@@QAEPAHXZ PROC		; CvGlobals::getPlotDirectionY, COMDAT
; _this$ = ecx

; 195  : 		return m_aiPlotDirectionY;

	lea	eax, DWORD PTR [ecx+136]

; 196  : 	}

	ret	0
?getPlotDirectionY@CvGlobals@@QAEPAHXZ ENDP		; CvGlobals::getPlotDirectionY
_TEXT	ENDS
PUBLIC	?getNumFlavorTypes@CvGlobals@@QAEHXZ		; CvGlobals::getNumFlavorTypes
; Function compile flags: /Ogtpy
;	COMDAT ?getNumFlavorTypes@CvGlobals@@QAEHXZ
_TEXT	SEGMENT
?getNumFlavorTypes@CvGlobals@@QAEHXZ PROC		; CvGlobals::getNumFlavorTypes, COMDAT
; _this$ = ecx

; 804  : 		return m_iNumFlavorTypes;

	mov	eax, DWORD PTR [ecx+1764]

; 805  : 	}

	ret	0
?getNumFlavorTypes@CvGlobals@@QAEHXZ ENDP		; CvGlobals::getNumFlavorTypes
_TEXT	ENDS
PUBLIC	?getFlavorTypes@CvGlobals@@QAEAAVCvString@@W4FlavorTypes@@@Z ; CvGlobals::getFlavorTypes
; Function compile flags: /Ogtpy
;	COMDAT ?getFlavorTypes@CvGlobals@@QAEAAVCvString@@W4FlavorTypes@@@Z
_TEXT	SEGMENT
_e$ = 8							; size = 4
?getFlavorTypes@CvGlobals@@QAEAAVCvString@@W4FlavorTypes@@@Z PROC ; CvGlobals::getFlavorTypes, COMDAT
; _this$ = ecx

; 812  : 		CvAssert(e > -1); /*CvAssert(e < GC.getNumFlavorTypes())*/;
; 813  : 		return m_paszFlavorTypes[e];

	mov	eax, DWORD PTR _e$[esp-4]
	lea	edx, DWORD PTR [eax*8]
	sub	edx, eax
	mov	eax, DWORD PTR [ecx+1760]
	lea	eax, DWORD PTR [eax+edx*4]

; 814  : 	}

	ret	4
?getFlavorTypes@CvGlobals@@QAEAAVCvString@@W4FlavorTypes@@@Z ENDP ; CvGlobals::getFlavorTypes
_TEXT	ENDS
PUBLIC	?getAI_ATTEMPT_RUSH_OVER_X_TURNS_TO_BUILD@CvGlobals@@QAEHXZ ; CvGlobals::getAI_ATTEMPT_RUSH_OVER_X_TURNS_TO_BUILD
; Function compile flags: /Ogtpy
;	COMDAT ?getAI_ATTEMPT_RUSH_OVER_X_TURNS_TO_BUILD@CvGlobals@@QAEHXZ
_TEXT	SEGMENT
?getAI_ATTEMPT_RUSH_OVER_X_TURNS_TO_BUILD@CvGlobals@@QAEHXZ PROC ; CvGlobals::getAI_ATTEMPT_RUSH_OVER_X_TURNS_TO_BUILD, COMDAT
; _this$ = ecx

; 869  : 		return m_iAI_ATTEMPT_RUSH_OVER_X_TURNS_TO_BUILD;

	mov	eax, DWORD PTR [ecx+1808]

; 870  : 	}

	ret	0
?getAI_ATTEMPT_RUSH_OVER_X_TURNS_TO_BUILD@CvGlobals@@QAEHXZ ENDP ; CvGlobals::getAI_ATTEMPT_RUSH_OVER_X_TURNS_TO_BUILD
_TEXT	ENDS
PUBLIC	?getFLAVOR_MIN_VALUE@CvGlobals@@QAEHXZ		; CvGlobals::getFLAVOR_MIN_VALUE
; Function compile flags: /Ogtpy
;	COMDAT ?getFLAVOR_MIN_VALUE@CvGlobals@@QAEHXZ
_TEXT	SEGMENT
?getFLAVOR_MIN_VALUE@CvGlobals@@QAEHXZ PROC		; CvGlobals::getFLAVOR_MIN_VALUE, COMDAT
; _this$ = ecx

; 941  : 		return m_iFLAVOR_MIN_VALUE;

	mov	eax, DWORD PTR [ecx+1876]

; 942  : 	}

	ret	0
?getFLAVOR_MIN_VALUE@CvGlobals@@QAEHXZ ENDP		; CvGlobals::getFLAVOR_MIN_VALUE
_TEXT	ENDS
PUBLIC	?getFLAVOR_MAX_VALUE@CvGlobals@@QAEHXZ		; CvGlobals::getFLAVOR_MAX_VALUE
; Function compile flags: /Ogtpy
;	COMDAT ?getFLAVOR_MAX_VALUE@CvGlobals@@QAEHXZ
_TEXT	SEGMENT
?getFLAVOR_MAX_VALUE@CvGlobals@@QAEHXZ PROC		; CvGlobals::getFLAVOR_MAX_VALUE, COMDAT
; _this$ = ecx

; 945  : 		return m_iFLAVOR_MAX_VALUE;

	mov	eax, DWORD PTR [ecx+1880]

; 946  : 	}

	ret	0
?getFLAVOR_MAX_VALUE@CvGlobals@@QAEHXZ ENDP		; CvGlobals::getFLAVOR_MAX_VALUE
_TEXT	ENDS
PUBLIC	?getAI_CITYSTRATEGY_SMALL_CITY_POP_THRESHOLD@CvGlobals@@QAEHXZ ; CvGlobals::getAI_CITYSTRATEGY_SMALL_CITY_POP_THRESHOLD
; Function compile flags: /Ogtpy
;	COMDAT ?getAI_CITYSTRATEGY_SMALL_CITY_POP_THRESHOLD@CvGlobals@@QAEHXZ
_TEXT	SEGMENT
?getAI_CITYSTRATEGY_SMALL_CITY_POP_THRESHOLD@CvGlobals@@QAEHXZ PROC ; CvGlobals::getAI_CITYSTRATEGY_SMALL_CITY_POP_THRESHOLD, COMDAT
; _this$ = ecx

; 1385 : 		return m_iAI_CITYSTRATEGY_SMALL_CITY_POP_THRESHOLD;

	mov	eax, DWORD PTR [ecx+2320]

; 1386 : 	}

	ret	0
?getAI_CITYSTRATEGY_SMALL_CITY_POP_THRESHOLD@CvGlobals@@QAEHXZ ENDP ; CvGlobals::getAI_CITYSTRATEGY_SMALL_CITY_POP_THRESHOLD
_TEXT	ENDS
PUBLIC	?getAI_CITYSTRATEGY_MEDIUM_CITY_POP_THRESHOLD@CvGlobals@@QAEHXZ ; CvGlobals::getAI_CITYSTRATEGY_MEDIUM_CITY_POP_THRESHOLD
; Function compile flags: /Ogtpy
;	COMDAT ?getAI_CITYSTRATEGY_MEDIUM_CITY_POP_THRESHOLD@CvGlobals@@QAEHXZ
_TEXT	SEGMENT
?getAI_CITYSTRATEGY_MEDIUM_CITY_POP_THRESHOLD@CvGlobals@@QAEHXZ PROC ; CvGlobals::getAI_CITYSTRATEGY_MEDIUM_CITY_POP_THRESHOLD, COMDAT
; _this$ = ecx

; 1389 : 		return m_iAI_CITYSTRATEGY_MEDIUM_CITY_POP_THRESHOLD;

	mov	eax, DWORD PTR [ecx+2324]

; 1390 : 	}

	ret	0
?getAI_CITYSTRATEGY_MEDIUM_CITY_POP_THRESHOLD@CvGlobals@@QAEHXZ ENDP ; CvGlobals::getAI_CITYSTRATEGY_MEDIUM_CITY_POP_THRESHOLD
_TEXT	ENDS
PUBLIC	?getAI_CITYSTRATEGY_LARGE_CITY_POP_THRESHOLD@CvGlobals@@QAEHXZ ; CvGlobals::getAI_CITYSTRATEGY_LARGE_CITY_POP_THRESHOLD
; Function compile flags: /Ogtpy
;	COMDAT ?getAI_CITYSTRATEGY_LARGE_CITY_POP_THRESHOLD@CvGlobals@@QAEHXZ
_TEXT	SEGMENT
?getAI_CITYSTRATEGY_LARGE_CITY_POP_THRESHOLD@CvGlobals@@QAEHXZ PROC ; CvGlobals::getAI_CITYSTRATEGY_LARGE_CITY_POP_THRESHOLD, COMDAT
; _this$ = ecx

; 1393 : 		return m_iAI_CITYSTRATEGY_LARGE_CITY_POP_THRESHOLD;

	mov	eax, DWORD PTR [ecx+2328]

; 1394 : 	}

	ret	0
?getAI_CITYSTRATEGY_LARGE_CITY_POP_THRESHOLD@CvGlobals@@QAEHXZ ENDP ; CvGlobals::getAI_CITYSTRATEGY_LARGE_CITY_POP_THRESHOLD
_TEXT	ENDS
PUBLIC	?getAI_CITYSTRATEGY_NEED_TILE_IMPROVERS_DESPERATE_TURN@CvGlobals@@QAEHXZ ; CvGlobals::getAI_CITYSTRATEGY_NEED_TILE_IMPROVERS_DESPERATE_TURN
; Function compile flags: /Ogtpy
;	COMDAT ?getAI_CITYSTRATEGY_NEED_TILE_IMPROVERS_DESPERATE_TURN@CvGlobals@@QAEHXZ
_TEXT	SEGMENT
?getAI_CITYSTRATEGY_NEED_TILE_IMPROVERS_DESPERATE_TURN@CvGlobals@@QAEHXZ PROC ; CvGlobals::getAI_CITYSTRATEGY_NEED_TILE_IMPROVERS_DESPERATE_TURN, COMDAT
; _this$ = ecx

; 1405 : 		return m_iAI_CITYSTRATEGY_NEED_TILE_IMPROVERS_DESPERATE_TURN;

	mov	eax, DWORD PTR [ecx+2340]

; 1406 : 	}

	ret	0
?getAI_CITYSTRATEGY_NEED_TILE_IMPROVERS_DESPERATE_TURN@CvGlobals@@QAEHXZ ENDP ; CvGlobals::getAI_CITYSTRATEGY_NEED_TILE_IMPROVERS_DESPERATE_TURN
_TEXT	ENDS
PUBLIC	?getAI_CITYSTRATEGY_WANT_TILE_IMPROVERS_MINIMUM_SIZE@CvGlobals@@QAEHXZ ; CvGlobals::getAI_CITYSTRATEGY_WANT_TILE_IMPROVERS_MINIMUM_SIZE
; Function compile flags: /Ogtpy
;	COMDAT ?getAI_CITYSTRATEGY_WANT_TILE_IMPROVERS_MINIMUM_SIZE@CvGlobals@@QAEHXZ
_TEXT	SEGMENT
?getAI_CITYSTRATEGY_WANT_TILE_IMPROVERS_MINIMUM_SIZE@CvGlobals@@QAEHXZ PROC ; CvGlobals::getAI_CITYSTRATEGY_WANT_TILE_IMPROVERS_MINIMUM_SIZE, COMDAT
; _this$ = ecx

; 1409 : 		return m_iAI_CITYSTRATEGY_WANT_TILE_IMPROVERS_MINIMUM_SIZE;

	mov	eax, DWORD PTR [ecx+2344]

; 1410 : 	}

	ret	0
?getAI_CITYSTRATEGY_WANT_TILE_IMPROVERS_MINIMUM_SIZE@CvGlobals@@QAEHXZ ENDP ; CvGlobals::getAI_CITYSTRATEGY_WANT_TILE_IMPROVERS_MINIMUM_SIZE
_TEXT	ENDS
PUBLIC	?getAI_CITYSTRATEGY_YIELD_DEFICIENT_FOOD@CvGlobals@@QAEMXZ ; CvGlobals::getAI_CITYSTRATEGY_YIELD_DEFICIENT_FOOD
; Function compile flags: /Ogtpy
;	COMDAT ?getAI_CITYSTRATEGY_YIELD_DEFICIENT_FOOD@CvGlobals@@QAEMXZ
_TEXT	SEGMENT
?getAI_CITYSTRATEGY_YIELD_DEFICIENT_FOOD@CvGlobals@@QAEMXZ PROC ; CvGlobals::getAI_CITYSTRATEGY_YIELD_DEFICIENT_FOOD, COMDAT
; _this$ = ecx

; 1413 : 		return m_fAI_CITYSTRATEGY_YIELD_DEFICIENT_FOOD;

	fld	DWORD PTR [ecx+2348]

; 1414 : 	}

	ret	0
?getAI_CITYSTRATEGY_YIELD_DEFICIENT_FOOD@CvGlobals@@QAEMXZ ENDP ; CvGlobals::getAI_CITYSTRATEGY_YIELD_DEFICIENT_FOOD
_TEXT	ENDS
PUBLIC	?getAI_CITYSTRATEGY_YIELD_DEFICIENT_PRODUCTION@CvGlobals@@QAEMXZ ; CvGlobals::getAI_CITYSTRATEGY_YIELD_DEFICIENT_PRODUCTION
; Function compile flags: /Ogtpy
;	COMDAT ?getAI_CITYSTRATEGY_YIELD_DEFICIENT_PRODUCTION@CvGlobals@@QAEMXZ
_TEXT	SEGMENT
?getAI_CITYSTRATEGY_YIELD_DEFICIENT_PRODUCTION@CvGlobals@@QAEMXZ PROC ; CvGlobals::getAI_CITYSTRATEGY_YIELD_DEFICIENT_PRODUCTION, COMDAT
; _this$ = ecx

; 1417 : 		return m_fAI_CITYSTRATEGY_YIELD_DEFICIENT_PRODUCTION;

	fld	DWORD PTR [ecx+2352]

; 1418 : 	}

	ret	0
?getAI_CITYSTRATEGY_YIELD_DEFICIENT_PRODUCTION@CvGlobals@@QAEMXZ ENDP ; CvGlobals::getAI_CITYSTRATEGY_YIELD_DEFICIENT_PRODUCTION
_TEXT	ENDS
PUBLIC	?getAI_CITYSTRATEGY_YIELD_DEFICIENT_GOLD@CvGlobals@@QAEMXZ ; CvGlobals::getAI_CITYSTRATEGY_YIELD_DEFICIENT_GOLD
; Function compile flags: /Ogtpy
;	COMDAT ?getAI_CITYSTRATEGY_YIELD_DEFICIENT_GOLD@CvGlobals@@QAEMXZ
_TEXT	SEGMENT
?getAI_CITYSTRATEGY_YIELD_DEFICIENT_GOLD@CvGlobals@@QAEMXZ PROC ; CvGlobals::getAI_CITYSTRATEGY_YIELD_DEFICIENT_GOLD, COMDAT
; _this$ = ecx

; 1421 : 		return m_fAI_CITYSTRATEGY_YIELD_DEFICIENT_GOLD;

	fld	DWORD PTR [ecx+2356]

; 1422 : 	}

	ret	0
?getAI_CITYSTRATEGY_YIELD_DEFICIENT_GOLD@CvGlobals@@QAEMXZ ENDP ; CvGlobals::getAI_CITYSTRATEGY_YIELD_DEFICIENT_GOLD
_TEXT	ENDS
PUBLIC	?getAI_CITYSTRATEGY_YIELD_DEFICIENT_SCIENCE@CvGlobals@@QAEMXZ ; CvGlobals::getAI_CITYSTRATEGY_YIELD_DEFICIENT_SCIENCE
; Function compile flags: /Ogtpy
;	COMDAT ?getAI_CITYSTRATEGY_YIELD_DEFICIENT_SCIENCE@CvGlobals@@QAEMXZ
_TEXT	SEGMENT
?getAI_CITYSTRATEGY_YIELD_DEFICIENT_SCIENCE@CvGlobals@@QAEMXZ PROC ; CvGlobals::getAI_CITYSTRATEGY_YIELD_DEFICIENT_SCIENCE, COMDAT
; _this$ = ecx

; 1425 : 		return m_fAI_CITYSTRATEGY_YIELD_DEFICIENT_SCIENCE;

	fld	DWORD PTR [ecx+2360]

; 1426 : 	}

	ret	0
?getAI_CITYSTRATEGY_YIELD_DEFICIENT_SCIENCE@CvGlobals@@QAEMXZ ENDP ; CvGlobals::getAI_CITYSTRATEGY_YIELD_DEFICIENT_SCIENCE
_TEXT	ENDS
PUBLIC	?getAI_CITYSTRATEGY_OPERATION_UNIT_BASE_WEIGHT@CvGlobals@@QAEHXZ ; CvGlobals::getAI_CITYSTRATEGY_OPERATION_UNIT_BASE_WEIGHT
; Function compile flags: /Ogtpy
;	COMDAT ?getAI_CITYSTRATEGY_OPERATION_UNIT_BASE_WEIGHT@CvGlobals@@QAEHXZ
_TEXT	SEGMENT
?getAI_CITYSTRATEGY_OPERATION_UNIT_BASE_WEIGHT@CvGlobals@@QAEHXZ PROC ; CvGlobals::getAI_CITYSTRATEGY_OPERATION_UNIT_BASE_WEIGHT, COMDAT
; _this$ = ecx

; 1429 : 		return m_iAI_CITYSTRATEGY_OPERATION_UNIT_BASE_WEIGHT;

	mov	eax, DWORD PTR [ecx+2364]

; 1430 : 	}

	ret	0
?getAI_CITYSTRATEGY_OPERATION_UNIT_BASE_WEIGHT@CvGlobals@@QAEHXZ ENDP ; CvGlobals::getAI_CITYSTRATEGY_OPERATION_UNIT_BASE_WEIGHT
_TEXT	ENDS
PUBLIC	?getAI_CITYSTRATEGY_OPERATION_UNIT_FLAVOR_MULTIPLIER@CvGlobals@@QAEHXZ ; CvGlobals::getAI_CITYSTRATEGY_OPERATION_UNIT_FLAVOR_MULTIPLIER
; Function compile flags: /Ogtpy
;	COMDAT ?getAI_CITYSTRATEGY_OPERATION_UNIT_FLAVOR_MULTIPLIER@CvGlobals@@QAEHXZ
_TEXT	SEGMENT
?getAI_CITYSTRATEGY_OPERATION_UNIT_FLAVOR_MULTIPLIER@CvGlobals@@QAEHXZ PROC ; CvGlobals::getAI_CITYSTRATEGY_OPERATION_UNIT_FLAVOR_MULTIPLIER, COMDAT
; _this$ = ecx

; 1433 : 		return m_iAI_CITYSTRATEGY_OPERATION_UNIT_FLAVOR_MULTIPLIER;

	mov	eax, DWORD PTR [ecx+2368]

; 1434 : 	}

	ret	0
?getAI_CITYSTRATEGY_OPERATION_UNIT_FLAVOR_MULTIPLIER@CvGlobals@@QAEHXZ ENDP ; CvGlobals::getAI_CITYSTRATEGY_OPERATION_UNIT_FLAVOR_MULTIPLIER
_TEXT	ENDS
PUBLIC	?getAI_CITYSTRATEGY_ARMY_UNIT_BASE_WEIGHT@CvGlobals@@QAEHXZ ; CvGlobals::getAI_CITYSTRATEGY_ARMY_UNIT_BASE_WEIGHT
; Function compile flags: /Ogtpy
;	COMDAT ?getAI_CITYSTRATEGY_ARMY_UNIT_BASE_WEIGHT@CvGlobals@@QAEHXZ
_TEXT	SEGMENT
?getAI_CITYSTRATEGY_ARMY_UNIT_BASE_WEIGHT@CvGlobals@@QAEHXZ PROC ; CvGlobals::getAI_CITYSTRATEGY_ARMY_UNIT_BASE_WEIGHT, COMDAT
; _this$ = ecx

; 1437 : 		return m_iAI_CITYSTRATEGY_ARMY_UNIT_BASE_WEIGHT;

	mov	eax, DWORD PTR [ecx+2372]

; 1438 : 	}

	ret	0
?getAI_CITYSTRATEGY_ARMY_UNIT_BASE_WEIGHT@CvGlobals@@QAEHXZ ENDP ; CvGlobals::getAI_CITYSTRATEGY_ARMY_UNIT_BASE_WEIGHT
_TEXT	ENDS
PUBLIC	?getMINOR_CIV_PRODUCTION_PERCENT@CvGlobals@@QAEHXZ ; CvGlobals::getMINOR_CIV_PRODUCTION_PERCENT
; Function compile flags: /Ogtpy
;	COMDAT ?getMINOR_CIV_PRODUCTION_PERCENT@CvGlobals@@QAEHXZ
_TEXT	SEGMENT
?getMINOR_CIV_PRODUCTION_PERCENT@CvGlobals@@QAEHXZ PROC	; CvGlobals::getMINOR_CIV_PRODUCTION_PERCENT, COMDAT
; _this$ = ecx

; 6421 : 		return m_iMINOR_CIV_PRODUCTION_PERCENT;

	mov	eax, DWORD PTR [ecx+7292]

; 6422 : 	}

	ret	0
?getMINOR_CIV_PRODUCTION_PERCENT@CvGlobals@@QAEHXZ ENDP	; CvGlobals::getMINOR_CIV_PRODUCTION_PERCENT
_TEXT	ENDS
PUBLIC	?getAI_PRODUCTION_WEIGHT_MOD_PER_TURN_LEFT@CvGlobals@@QAEMXZ ; CvGlobals::getAI_PRODUCTION_WEIGHT_MOD_PER_TURN_LEFT
; Function compile flags: /Ogtpy
;	COMDAT ?getAI_PRODUCTION_WEIGHT_MOD_PER_TURN_LEFT@CvGlobals@@QAEMXZ
_TEXT	SEGMENT
?getAI_PRODUCTION_WEIGHT_MOD_PER_TURN_LEFT@CvGlobals@@QAEMXZ PROC ; CvGlobals::getAI_PRODUCTION_WEIGHT_MOD_PER_TURN_LEFT, COMDAT
; _this$ = ecx

; 7012 : 		return m_fAI_PRODUCTION_WEIGHT_MOD_PER_TURN_LEFT;

	fld	DWORD PTR [ecx+8000]

; 7013 : 	}

	ret	0
?getAI_PRODUCTION_WEIGHT_MOD_PER_TURN_LEFT@CvGlobals@@QAEMXZ ENDP ; CvGlobals::getAI_PRODUCTION_WEIGHT_MOD_PER_TURN_LEFT
_TEXT	ENDS
PUBLIC	?getAI_PRODUCTION_WEIGHT_BASE_MOD@CvGlobals@@QAEMXZ ; CvGlobals::getAI_PRODUCTION_WEIGHT_BASE_MOD
; Function compile flags: /Ogtpy
;	COMDAT ?getAI_PRODUCTION_WEIGHT_BASE_MOD@CvGlobals@@QAEMXZ
_TEXT	SEGMENT
?getAI_PRODUCTION_WEIGHT_BASE_MOD@CvGlobals@@QAEMXZ PROC ; CvGlobals::getAI_PRODUCTION_WEIGHT_BASE_MOD, COMDAT
; _this$ = ecx

; 7016 : 		return m_fAI_PRODUCTION_WEIGHT_BASE_MOD;

	fld	DWORD PTR [ecx+8004]

; 7017 : 	}

	ret	0
?getAI_PRODUCTION_WEIGHT_BASE_MOD@CvGlobals@@QAEMXZ ENDP ; CvGlobals::getAI_PRODUCTION_WEIGHT_BASE_MOD
_TEXT	ENDS
PUBLIC	?getDLLIFace@CvGlobals@@QAEPAVICvEngineUtility4@@XZ ; CvGlobals::getDLLIFace
; Function compile flags: /Ogtpy
;	COMDAT ?getDLLIFace@CvGlobals@@QAEPAVICvEngineUtility4@@XZ
_TEXT	SEGMENT
?getDLLIFace@CvGlobals@@QAEPAVICvEngineUtility4@@XZ PROC ; CvGlobals::getDLLIFace, COMDAT
; _this$ = ecx

; 7703 : 		return m_pDLL;

	mov	eax, DWORD PTR [ecx+8564]

; 7704 : 	}

	ret	0
?getDLLIFace@CvGlobals@@QAEPAVICvEngineUtility4@@XZ ENDP ; CvGlobals::getDLLIFace
_TEXT	ENDS
PUBLIC	??4CvString@@QAEAAV0@ABV0@@Z			; CvString::operator=
EXTRN	__imp_??4?$basic_string@DU?$char_traits@D@std@@V?$allocator@D@2@@std@@QAEAAV01@ABV01@@Z:PROC
; Function compile flags: /Ogtpy
;	COMDAT ??4CvString@@QAEAAV0@ABV0@@Z
_TEXT	SEGMENT
___that$ = 8						; size = 4
??4CvString@@QAEAAV0@ABV0@@Z PROC			; CvString::operator=, COMDAT
; _this$ = ecx
	mov	eax, DWORD PTR ___that$[esp-4]
	push	esi
	push	eax
	mov	esi, ecx
	call	DWORD PTR __imp_??4?$basic_string@DU?$char_traits@D@std@@V?$allocator@D@2@@std@@QAEAAV01@ABV01@@Z
	mov	eax, esi
	pop	esi
	ret	4
??4CvString@@QAEAAV0@ABV0@@Z ENDP			; CvString::operator=
_TEXT	ENDS
PUBLIC	?getPlayer@CvPlayerAI@@SAAAV1@W4PlayerTypes@@@Z	; CvPlayerAI::getPlayer
EXTRN	?m_aPlayers@CvPlayerAI@@1PAV1@A:DWORD		; CvPlayerAI::m_aPlayers
; Function compile flags: /Ogtpy
; File c:\users\enormousapplepie\desktop\lekmod files\lekmod dll versions\v29\lekmod_dll\cvgamecoredll_expansion2\cvplayerai.h
;	COMDAT ?getPlayer@CvPlayerAI@@SAAAV1@W4PlayerTypes@@@Z
_TEXT	SEGMENT
_ePlayer$ = 8						; size = 4
?getPlayer@CvPlayerAI@@SAAAV1@W4PlayerTypes@@@Z PROC	; CvPlayerAI::getPlayer, COMDAT

; 28   : 		CvAssertMsg(ePlayer != NO_PLAYER, "Player is not assigned a valid value");
; 29   : 		CvAssertMsg(ePlayer < MAX_PLAYERS, "Player is not assigned a valid value");
; 30   : 		return m_aPlayers[ePlayer];

	mov	eax, DWORD PTR _ePlayer$[esp-4]
	imul	eax, 63236				; 0000f704H
	add	eax, DWORD PTR ?m_aPlayers@CvPlayerAI@@1PAV1@A ; CvPlayerAI::m_aPlayers

; 31   : 	}

	ret	0
?getPlayer@CvPlayerAI@@SAAAV1@W4PlayerTypes@@@Z ENDP	; CvPlayerAI::getPlayer
_TEXT	ENDS
PUBLIC	?isCity@CvPlot@@QBE_NXZ				; CvPlot::isCity
EXTRN	?getCity@CvPlayer@@QAEPAVCvCity@@H@Z:PROC	; CvPlayer::getCity
; Function compile flags: /Ogtpy
; File c:\users\enormousapplepie\desktop\lekmod files\lekmod dll versions\v29\lekmod_dll\cvgamecoredll_expansion2\cvplot.h
;	COMDAT ?isCity@CvPlot@@QBE_NXZ
_TEXT	SEGMENT
?isCity@CvPlot@@QBE_NXZ PROC				; CvPlot::isCity, COMDAT
; _this$ = ecx

; 245  : 		if((m_plotCity.eOwner >= 0) && m_plotCity.eOwner < MAX_PLAYERS)

	mov	eax, DWORD PTR [ecx+104]
	test	eax, eax
	jl	SHORT $LN1@isCity
	cmp	eax, 64					; 00000040H
	jge	SHORT $LN1@isCity

; 246  : 			return (GET_PLAYER((PlayerTypes)m_plotCity.eOwner).getCity(m_plotCity.iID)) != NULL;

	mov	ecx, DWORD PTR [ecx+108]
	imul	eax, 63236				; 0000f704H
	add	eax, DWORD PTR ?m_aPlayers@CvPlayerAI@@1PAV1@A ; CvPlayerAI::m_aPlayers
	push	ecx
	mov	ecx, eax
	call	?getCity@CvPlayer@@QAEPAVCvCity@@H@Z	; CvPlayer::getCity
	neg	eax
	sbb	eax, eax
	neg	eax

; 249  : 	}

	ret	0
$LN1@isCity:

; 247  : 
; 248  : 		return false;

	xor	al, al

; 249  : 	}

	ret	0
?isCity@CvPlot@@QBE_NXZ ENDP				; CvPlot::isCity
_TEXT	ENDS
PUBLIC	?getX@CvPlot@@QBEHXZ				; CvPlot::getX
; Function compile flags: /Ogtpy
;	COMDAT ?getX@CvPlot@@QBEHXZ
_TEXT	SEGMENT
?getX@CvPlot@@QBEHXZ PROC				; CvPlot::getX, COMDAT
; _this$ = ecx

; 307  : 		return m_iX;

	movsx	eax, WORD PTR [ecx]

; 308  : 	}

	ret	0
?getX@CvPlot@@QBEHXZ ENDP				; CvPlot::getX
_TEXT	ENDS
PUBLIC	?getY@CvPlot@@QBEHXZ				; CvPlot::getY
; Function compile flags: /Ogtpy
;	COMDAT ?getY@CvPlot@@QBEHXZ
_TEXT	SEGMENT
?getY@CvPlot@@QBEHXZ PROC				; CvPlot::getY, COMDAT
; _this$ = ecx

; 312  : 		return m_iY;

	movsx	eax, WORD PTR [ecx+2]

; 313  : 	}

	ret	0
?getY@CvPlot@@QBEHXZ ENDP				; CvPlot::getY
_TEXT	ENDS
PUBLIC	?getOwner@CvPlot@@QBE?AW4PlayerTypes@@XZ	; CvPlot::getOwner
; Function compile flags: /Ogtpy
;	COMDAT ?getOwner@CvPlot@@QBE?AW4PlayerTypes@@XZ
_TEXT	SEGMENT
?getOwner@CvPlot@@QBE?AW4PlayerTypes@@XZ PROC		; CvPlot::getOwner, COMDAT
; _this$ = ecx

; 387  : 		return (PlayerTypes)m_eOwner;

	movsx	eax, BYTE PTR [ecx+4]

; 388  : 	}

	ret	0
?getOwner@CvPlot@@QBE?AW4PlayerTypes@@XZ ENDP		; CvPlot::getOwner
_TEXT	ENDS
PUBLIC	?isWater@CvPlot@@QBE_NXZ			; CvPlot::isWater
; Function compile flags: /Ogtpy
;	COMDAT ?isWater@CvPlot@@QBE_NXZ
_TEXT	SEGMENT
?isWater@CvPlot@@QBE_NXZ PROC				; CvPlot::isWater, COMDAT
; _this$ = ecx

; 409  : 		return (PlotTypes)m_ePlotType == PLOT_OCEAN;

	xor	eax, eax
	cmp	BYTE PTR [ecx+5], 3
	sete	al

; 410  : 	};

	ret	0
?isWater@CvPlot@@QBE_NXZ ENDP				; CvPlot::isWater
_TEXT	ENDS
PUBLIC	?isHills@CvPlot@@QBE_NXZ			; CvPlot::isHills
; Function compile flags: /Ogtpy
;	COMDAT ?isHills@CvPlot@@QBE_NXZ
_TEXT	SEGMENT
?isHills@CvPlot@@QBE_NXZ PROC				; CvPlot::isHills, COMDAT
; _this$ = ecx

; 413  : 		return (PlotTypes)m_ePlotType == PLOT_HILLS;

	xor	eax, eax
	cmp	BYTE PTR [ecx+5], 1
	sete	al

; 414  : 	};

	ret	0
?isHills@CvPlot@@QBE_NXZ ENDP				; CvPlot::isHills
_TEXT	ENDS
PUBLIC	?isMountain@CvPlot@@QBE_NXZ			; CvPlot::isMountain
; Function compile flags: /Ogtpy
;	COMDAT ?isMountain@CvPlot@@QBE_NXZ
_TEXT	SEGMENT
?isMountain@CvPlot@@QBE_NXZ PROC			; CvPlot::isMountain, COMDAT
; _this$ = ecx

; 422  : 		return (PlotTypes)m_ePlotType == PLOT_MOUNTAIN;

	xor	eax, eax
	cmp	BYTE PTR [ecx+5], al
	sete	al

; 423  : 	};

	ret	0
?isMountain@CvPlot@@QBE_NXZ ENDP			; CvPlot::isMountain
_TEXT	ENDS
PUBLIC	?isRiver@CvPlot@@QBE_NXZ			; CvPlot::isRiver
; Function compile flags: /Ogtpy
;	COMDAT ?isRiver@CvPlot@@QBE_NXZ
_TEXT	SEGMENT
?isRiver@CvPlot@@QBE_NXZ PROC				; CvPlot::isRiver, COMDAT
; _this$ = ecx

; 426  : 		return m_iRiverCrossingCount > 0;

	xor	eax, eax
	cmp	BYTE PTR [ecx+457], al
	setg	al

; 427  : 	}

	ret	0
?isRiver@CvPlot@@QBE_NXZ ENDP				; CvPlot::isRiver
_TEXT	ENDS
PUBLIC	?coordRange@@YAHHH_N@Z				; coordRange
; Function compile flags: /Ogtpy
; File c:\users\enormousapplepie\desktop\lekmod files\lekmod dll versions\v29\lekmod_dll\cvgamecoredll_expansion2\cvmap.h
;	COMDAT ?coordRange@@YAHHH_N@Z
_TEXT	SEGMENT
_iCoord$ = 8						; size = 4
_iRange$ = 12						; size = 4
_bWrap$ = 16						; size = 1
?coordRange@@YAHHH_N@Z PROC				; coordRange, COMDAT

; 88   : 	if(bWrap)

	cmp	BYTE PTR _bWrap$[esp-4], 0
	mov	eax, DWORD PTR _iCoord$[esp-4]
	je	SHORT $LN5@coordRange

; 89   : 	{
; 90   : 		if(iCoord < 0)
; 91   : 		{
; 92   : 			return (iRange + (iCoord % iRange));

	mov	ecx, DWORD PTR _iRange$[esp-4]
	test	eax, eax
	jge	SHORT $LN3@coordRange
	cdq
	idiv	ecx
	mov	eax, edx
	add	eax, ecx

; 97   : 		}
; 98   : 	}
; 99   : 
; 100  : 	return iCoord;
; 101  : }

	ret	0
$LN3@coordRange:

; 93   : 		}
; 94   : 		else if(iCoord >= iRange)

	cmp	eax, ecx
	jl	SHORT $LN5@coordRange

; 95   : 		{
; 96   : 			return (iCoord % iRange);

	cdq
	idiv	ecx
	mov	eax, edx
$LN5@coordRange:

; 97   : 		}
; 98   : 	}
; 99   : 
; 100  : 	return iCoord;
; 101  : }

	ret	0
?coordRange@@YAHHH_N@Z ENDP				; coordRange
_TEXT	ENDS
PUBLIC	?numPlots@CvMap@@QBEHXZ				; CvMap::numPlots
; Function compile flags: /Ogtpy
;	COMDAT ?numPlots@CvMap@@QBEHXZ
_TEXT	SEGMENT
?numPlots@CvMap@@QBEHXZ PROC				; CvMap::numPlots, COMDAT
; _this$ = ecx

; 170  : 		return m_iGridSize;

	mov	eax, DWORD PTR [ecx+4028]

; 171  : 	}

	ret	0
?numPlots@CvMap@@QBEHXZ ENDP				; CvMap::numPlots
_TEXT	ENDS
PUBLIC	?getGridWidth@CvMap@@QBEHXZ			; CvMap::getGridWidth
; Function compile flags: /Ogtpy
;	COMDAT ?getGridWidth@CvMap@@QBEHXZ
_TEXT	SEGMENT
?getGridWidth@CvMap@@QBEHXZ PROC			; CvMap::getGridWidth, COMDAT
; _this$ = ecx

; 198  : 		return m_iGridWidth;

	mov	eax, DWORD PTR [ecx+4020]

; 199  : 	}

	ret	0
?getGridWidth@CvMap@@QBEHXZ ENDP			; CvMap::getGridWidth
_TEXT	ENDS
PUBLIC	?getGridHeight@CvMap@@QBEHXZ			; CvMap::getGridHeight
; Function compile flags: /Ogtpy
;	COMDAT ?getGridHeight@CvMap@@QBEHXZ
_TEXT	SEGMENT
?getGridHeight@CvMap@@QBEHXZ PROC			; CvMap::getGridHeight, COMDAT
; _this$ = ecx

; 206  : 		return m_iGridHeight;

	mov	eax, DWORD PTR [ecx+4024]

; 207  : 	}

	ret	0
?getGridHeight@CvMap@@QBEHXZ ENDP			; CvMap::getGridHeight
_TEXT	ENDS
PUBLIC	?isWrapX@CvMap@@QBE_NXZ				; CvMap::isWrapX
; Function compile flags: /Ogtpy
;	COMDAT ?isWrapX@CvMap@@QBE_NXZ
_TEXT	SEGMENT
?isWrapX@CvMap@@QBE_NXZ PROC				; CvMap::isWrapX, COMDAT
; _this$ = ecx

; 228  : 		return m_bWrapX;

	mov	al, BYTE PTR [ecx+4056]

; 229  : 	}

	ret	0
?isWrapX@CvMap@@QBE_NXZ ENDP				; CvMap::isWrapX
_TEXT	ENDS
PUBLIC	?isWrapY@CvMap@@QBE_NXZ				; CvMap::isWrapY
; Function compile flags: /Ogtpy
;	COMDAT ?isWrapY@CvMap@@QBE_NXZ
_TEXT	SEGMENT
?isWrapY@CvMap@@QBE_NXZ PROC				; CvMap::isWrapY, COMDAT
; _this$ = ecx

; 233  : 		return m_bWrapY;

	mov	al, BYTE PTR [ecx+4057]

; 234  : 	}

	ret	0
?isWrapY@CvMap@@QBE_NXZ ENDP				; CvMap::isWrapY
_TEXT	ENDS
PUBLIC	?plotByIndex@CvMap@@QBEPAVCvPlot@@H@Z		; CvMap::plotByIndex
; Function compile flags: /Ogtpy
;	COMDAT ?plotByIndex@CvMap@@QBEPAVCvPlot@@H@Z
_TEXT	SEGMENT
_iIndex$ = 8						; size = 4
?plotByIndex@CvMap@@QBEPAVCvPlot@@H@Z PROC		; CvMap::plotByIndex, COMDAT
; _this$ = ecx

; 263  : 		return (((iIndex >= 0) && (iIndex < (numPlots()))) ? &(m_pMapPlots[iIndex]) : NULL);

	mov	eax, DWORD PTR _iIndex$[esp-4]
	test	eax, eax
	jl	SHORT $LN3@plotByInde
	cmp	eax, DWORD PTR [ecx+4028]
	jge	SHORT $LN3@plotByInde
	imul	eax, 484				; 000001e4H
	add	eax, DWORD PTR [ecx+4068]

; 264  : 	}

	ret	4
$LN3@plotByInde:

; 263  : 		return (((iIndex >= 0) && (iIndex < (numPlots()))) ? &(m_pMapPlots[iIndex]) : NULL);

	xor	eax, eax

; 264  : 	}

	ret	4
?plotByIndex@CvMap@@QBEPAVCvPlot@@H@Z ENDP		; CvMap::plotByIndex
_TEXT	ENDS
PUBLIC	?getTeam@CvTeam@@SAAAV1@W4TeamTypes@@@Z		; CvTeam::getTeam
EXTRN	?m_aTeams@CvTeam@@1PAV1@A:DWORD			; CvTeam::m_aTeams
; Function compile flags: /Ogtpy
; File c:\users\enormousapplepie\desktop\lekmod files\lekmod dll versions\v29\lekmod_dll\cvgamecoredll_expansion2\cvteam.h
;	COMDAT ?getTeam@CvTeam@@SAAAV1@W4TeamTypes@@@Z
_TEXT	SEGMENT
_eTeam$ = 8						; size = 4
?getTeam@CvTeam@@SAAAV1@W4TeamTypes@@@Z PROC		; CvTeam::getTeam, COMDAT

; 29   : 		CvAssertMsg(eTeam != NO_TEAM, "eTeam is not assigned a valid value");
; 30   : 		CvAssertMsg(eTeam < MAX_TEAMS, "eTeam is not assigned a valid value");
; 31   : 		return m_aTeams[eTeam];

	mov	eax, DWORD PTR _eTeam$[esp-4]
	imul	eax, 2980				; 00000ba4H
	add	eax, DWORD PTR ?m_aTeams@CvTeam@@1PAV1@A ; CvTeam::m_aTeams

; 32   : 	}

	ret	0
?getTeam@CvTeam@@SAAAV1@W4TeamTypes@@@Z ENDP		; CvTeam::getTeam
_TEXT	ENDS
PUBLIC	??0CvString@@QAE@ABV0@@Z			; CvString::CvString
; Function compile flags: /Ogtpy
;	COMDAT ??0CvString@@QAE@ABV0@@Z
_TEXT	SEGMENT
___that$ = 8						; size = 4
??0CvString@@QAE@ABV0@@Z PROC				; CvString::CvString, COMDAT
; _this$ = ecx
	mov	eax, DWORD PTR ___that$[esp-4]
	push	esi
	push	eax
	mov	esi, ecx
	call	DWORD PTR __imp_??0?$basic_string@DU?$char_traits@D@std@@V?$allocator@D@2@@std@@QAE@ABV01@@Z
	mov	eax, esi
	pop	esi
	ret	4
??0CvString@@QAE@ABV0@@Z ENDP				; CvString::CvString
_TEXT	ENDS
PUBLIC	?GetGreatScientistRateModifier@CvPlayerTraits@@QBEHXZ ; CvPlayerTraits::GetGreatScientistRateModifier
; Function compile flags: /Ogtpy
; File c:\users\enormousapplepie\desktop\lekmod files\lekmod dll versions\v29\lekmod_dll\cvgamecoredll_expansion2\cvtraitclasses.h
;	COMDAT ?GetGreatScientistRateModifier@CvPlayerTraits@@QBEHXZ
_TEXT	SEGMENT
?GetGreatScientistRateModifier@CvPlayerTraits@@QBEHXZ PROC ; CvPlayerTraits::GetGreatScientistRateModifier, COMDAT
; _this$ = ecx

; 427  : 		return m_iGreatScientistRateModifier;

	mov	eax, DWORD PTR [ecx+48]

; 428  : 	};

	ret	0
?GetGreatScientistRateModifier@CvPlayerTraits@@QBEHXZ ENDP ; CvPlayerTraits::GetGreatScientistRateModifier
_TEXT	ENDS
PUBLIC	?IsNoAnnexing@CvPlayerTraits@@QBE_NXZ		; CvPlayerTraits::IsNoAnnexing
; Function compile flags: /Ogtpy
;	COMDAT ?IsNoAnnexing@CvPlayerTraits@@QBE_NXZ
_TEXT	SEGMENT
?IsNoAnnexing@CvPlayerTraits@@QBE_NXZ PROC		; CvPlayerTraits::IsNoAnnexing, COMDAT
; _this$ = ecx

; 804  : 		return m_bNoAnnexing;

	mov	al, BYTE PTR [ecx+343]

; 805  : 	};

	ret	0
?IsNoAnnexing@CvPlayerTraits@@QBE_NXZ ENDP		; CvPlayerTraits::IsNoAnnexing
_TEXT	ENDS
PUBLIC	??0DelegateMemento@fastdelegate@@QAE@XZ		; fastdelegate::DelegateMemento::DelegateMemento
; Function compile flags: /Ogtpy
; File c:\users\enormousapplepie\desktop\lekmod files\lekmod dll versions\v29\lekmod_dll\fireplace\include\fireworks\eventsystem\fastdelegate.h
;	COMDAT ??0DelegateMemento@fastdelegate@@QAE@XZ
_TEXT	SEGMENT
??0DelegateMemento@fastdelegate@@QAE@XZ PROC		; fastdelegate::DelegateMemento::DelegateMemento, COMDAT
; _this$ = ecx

; 579  : 	DelegateMemento() : m_pthis(0), m_pFunction(0) {};

	mov	eax, ecx
	mov	DWORD PTR [eax], 0
	mov	DWORD PTR [eax+4], 0
	ret	0
??0DelegateMemento@fastdelegate@@QAE@XZ ENDP		; fastdelegate::DelegateMemento::DelegateMemento
