; Listing generated by Microsoft (R) Optimizing Compiler Version 15.00.30729.01 

	TITLE	c:\Users\EnormousApplePie\Documents\GitHub\Lekmod\LEKMOD_DLL\CvGameCoreDLL_Expansion2\CvCityManager.cpp
	.686P
	.XMM
	include listing.inc
	.model	flat

INCLUDELIB MSVCRT
INCLUDELIB OLDNAMES

PUBLIC	?wrapCoordDifference@@YAHHI_N@Z			; wrapCoordDifference
; Function compile flags: /Ogtpy
; File c:\users\enormousapplepie\documents\github\lekmod\lekmod_dll\cvgamecoredll_expansion2\cvgamecoreutils.h
;	COMDAT ?wrapCoordDifference@@YAHHI_N@Z
_TEXT	SEGMENT
_iDiff$ = 8						; size = 4
_uiRange$ = 12						; size = 4
_bWrap$ = 16						; size = 1
?wrapCoordDifference@@YAHHI_N@Z PROC			; wrapCoordDifference, COMDAT

; 57   : 	if(bWrap)

	cmp	BYTE PTR _bWrap$[esp-4], 0
	mov	eax, DWORD PTR _iDiff$[esp-4]
	je	SHORT $LN5@wrapCoordD

; 58   : 	{
; 59   : 		if(iDiff > (int)(uiRange >> 1))		// Using an unsigned int so we can safely assume that value >> 1 == value / 2

	mov	edx, DWORD PTR _uiRange$[esp-4]
	mov	ecx, edx
	shr	ecx, 1
	cmp	eax, ecx
	jle	SHORT $LN3@wrapCoordD

; 60   : 		{
; 61   : 			return (iDiff - (int)uiRange);

	sub	eax, edx

; 66   : 		}
; 67   : 	}
; 68   : 
; 69   : 	return iDiff;
; 70   : }

	ret	0
$LN3@wrapCoordD:

; 62   : 		}
; 63   : 		else if(iDiff < -(int)(uiRange >> 1))

	neg	ecx
	cmp	eax, ecx
	jge	SHORT $LN5@wrapCoordD

; 64   : 		{
; 65   : 			return (iDiff + (int)uiRange);

	add	eax, edx
$LN5@wrapCoordD:

; 66   : 		}
; 67   : 	}
; 68   : 
; 69   : 	return iDiff;
; 70   : }

	ret	0
?wrapCoordDifference@@YAHHI_N@Z ENDP			; wrapCoordDifference
_TEXT	ENDS
PUBLIC	?xToHexspaceX@@YAHHH@Z				; xToHexspaceX
; Function compile flags: /Ogtpy
;	COMDAT ?xToHexspaceX@@YAHHH@Z
_TEXT	SEGMENT
_iX$ = 8						; size = 4
_iY$ = 12						; size = 4
?xToHexspaceX@@YAHHH@Z PROC				; xToHexspaceX, COMDAT

; 86   : 	return iX - ((iY >= 0) ? (iY>>1) : ((iY - 1)/2));

	mov	ecx, DWORD PTR _iY$[esp-4]
	test	ecx, ecx
	jge	SHORT $LN5@xToHexspac
	lea	eax, DWORD PTR [ecx-1]
	cdq
	sub	eax, edx
	mov	ecx, eax
$LN5@xToHexspac:
	mov	eax, DWORD PTR _iX$[esp-4]
	sar	ecx, 1
	sub	eax, ecx

; 87   : }

	ret	0
?xToHexspaceX@@YAHHH@Z ENDP				; xToHexspaceX
_TEXT	ENDS
PUBLIC	??_7bad_alloc@std@@6B@				; std::bad_alloc::`vftable'
PUBLIC	??0bad_alloc@std@@QAE@PBD@Z			; std::bad_alloc::bad_alloc
PUBLIC	??_R4bad_alloc@std@@6B@				; std::bad_alloc::`RTTI Complete Object Locator'
PUBLIC	??_R0?AVbad_alloc@std@@@8			; std::bad_alloc `RTTI Type Descriptor'
PUBLIC	??_R3bad_alloc@std@@8				; std::bad_alloc::`RTTI Class Hierarchy Descriptor'
PUBLIC	??_R2bad_alloc@std@@8				; std::bad_alloc::`RTTI Base Class Array'
PUBLIC	??_R1A@?0A@EA@bad_alloc@std@@8			; std::bad_alloc::`RTTI Base Class Descriptor at (0,-1,0,64)'
PUBLIC	??_R1A@?0A@EA@exception@std@@8			; std::exception::`RTTI Base Class Descriptor at (0,-1,0,64)'
PUBLIC	??_R0?AVexception@std@@@8			; std::exception `RTTI Type Descriptor'
PUBLIC	??_R3exception@std@@8				; std::exception::`RTTI Class Hierarchy Descriptor'
PUBLIC	??_R2exception@std@@8				; std::exception::`RTTI Base Class Array'
EXTRN	__imp_??0exception@std@@QAE@ABQBD@Z:PROC
EXTRN	??_7type_info@@6B@:QWORD			; type_info::`vftable'
EXTRN	??_Ebad_alloc@std@@UAEPAXI@Z:PROC		; std::bad_alloc::`vector deleting destructor'
EXTRN	?what@exception@std@@UBEPBDXZ:PROC		; std::exception::what
;	COMDAT ??_R2exception@std@@8
; File c:\program files (x86)\microsoft visual studio 9.0\vc\include\exception
rdata$r	SEGMENT
??_R2exception@std@@8 DD FLAT:??_R1A@?0A@EA@exception@std@@8 ; std::exception::`RTTI Base Class Array'
rdata$r	ENDS
;	COMDAT ??_R3exception@std@@8
rdata$r	SEGMENT
??_R3exception@std@@8 DD 00H				; std::exception::`RTTI Class Hierarchy Descriptor'
	DD	00H
	DD	01H
	DD	FLAT:??_R2exception@std@@8
rdata$r	ENDS
;	COMDAT ??_R0?AVexception@std@@@8
_DATA	SEGMENT
??_R0?AVexception@std@@@8 DD FLAT:??_7type_info@@6B@	; std::exception `RTTI Type Descriptor'
	DD	00H
	DB	'.?AVexception@std@@', 00H
_DATA	ENDS
;	COMDAT ??_R1A@?0A@EA@exception@std@@8
rdata$r	SEGMENT
??_R1A@?0A@EA@exception@std@@8 DD FLAT:??_R0?AVexception@std@@@8 ; std::exception::`RTTI Base Class Descriptor at (0,-1,0,64)'
	DD	00H
	DD	00H
	DD	0ffffffffH
	DD	00H
	DD	040H
	DD	FLAT:??_R3exception@std@@8
rdata$r	ENDS
;	COMDAT ??_R1A@?0A@EA@bad_alloc@std@@8
rdata$r	SEGMENT
??_R1A@?0A@EA@bad_alloc@std@@8 DD FLAT:??_R0?AVbad_alloc@std@@@8 ; std::bad_alloc::`RTTI Base Class Descriptor at (0,-1,0,64)'
	DD	01H
	DD	00H
	DD	0ffffffffH
	DD	00H
	DD	040H
	DD	FLAT:??_R3bad_alloc@std@@8
rdata$r	ENDS
;	COMDAT ??_R2bad_alloc@std@@8
rdata$r	SEGMENT
??_R2bad_alloc@std@@8 DD FLAT:??_R1A@?0A@EA@bad_alloc@std@@8 ; std::bad_alloc::`RTTI Base Class Array'
	DD	FLAT:??_R1A@?0A@EA@exception@std@@8
rdata$r	ENDS
;	COMDAT ??_R3bad_alloc@std@@8
rdata$r	SEGMENT
??_R3bad_alloc@std@@8 DD 00H				; std::bad_alloc::`RTTI Class Hierarchy Descriptor'
	DD	00H
	DD	02H
	DD	FLAT:??_R2bad_alloc@std@@8
rdata$r	ENDS
;	COMDAT ??_R0?AVbad_alloc@std@@@8
_DATA	SEGMENT
??_R0?AVbad_alloc@std@@@8 DD FLAT:??_7type_info@@6B@	; std::bad_alloc `RTTI Type Descriptor'
	DD	00H
	DB	'.?AVbad_alloc@std@@', 00H
_DATA	ENDS
;	COMDAT ??_R4bad_alloc@std@@6B@
rdata$r	SEGMENT
??_R4bad_alloc@std@@6B@ DD 00H				; std::bad_alloc::`RTTI Complete Object Locator'
	DD	00H
	DD	00H
	DD	FLAT:??_R0?AVbad_alloc@std@@@8
	DD	FLAT:??_R3bad_alloc@std@@8
rdata$r	ENDS
;	COMDAT ??_7bad_alloc@std@@6B@
CONST	SEGMENT
??_7bad_alloc@std@@6B@ DD FLAT:??_R4bad_alloc@std@@6B@	; std::bad_alloc::`vftable'
	DD	FLAT:??_Ebad_alloc@std@@UAEPAXI@Z
	DD	FLAT:?what@exception@std@@UBEPBDXZ
; Function compile flags: /Ogtpy
CONST	ENDS
;	COMDAT ??0bad_alloc@std@@QAE@PBD@Z
_TEXT	SEGMENT
__Message$ = 8						; size = 4
??0bad_alloc@std@@QAE@PBD@Z PROC			; std::bad_alloc::bad_alloc, COMDAT
; _this$ = ecx

; 371  : 		{	// construct from message string

	push	esi
	lea	eax, DWORD PTR __Message$[esp]
	push	eax
	mov	esi, ecx
	call	DWORD PTR __imp_??0exception@std@@QAE@ABQBD@Z
	mov	DWORD PTR [esi], OFFSET ??_7bad_alloc@std@@6B@

; 372  : 		}

	mov	eax, esi
	pop	esi
	ret	4
??0bad_alloc@std@@QAE@PBD@Z ENDP			; std::bad_alloc::bad_alloc
_TEXT	ENDS
PUBLIC	??1bad_alloc@std@@UAE@XZ			; std::bad_alloc::~bad_alloc
EXTRN	__imp_??1exception@std@@UAE@XZ:PROC
; Function compile flags: /Ogtpy
;	COMDAT ??1bad_alloc@std@@UAE@XZ
_TEXT	SEGMENT
??1bad_alloc@std@@UAE@XZ PROC				; std::bad_alloc::~bad_alloc, COMDAT
; _this$ = ecx

; 380  : 		{	// destroy the object

	mov	DWORD PTR [ecx], OFFSET ??_7bad_alloc@std@@6B@

; 381  : 		}

	jmp	DWORD PTR __imp_??1exception@std@@UAE@XZ
??1bad_alloc@std@@UAE@XZ ENDP				; std::bad_alloc::~bad_alloc
_TEXT	ENDS
EXTRN	??3@YAXPAX@Z:PROC				; operator delete
; Function compile flags: /Ogtpy
;	COMDAT ??_Gbad_alloc@std@@UAEPAXI@Z
_TEXT	SEGMENT
___flags$ = 8						; size = 4
??_Gbad_alloc@std@@UAEPAXI@Z PROC			; std::bad_alloc::`scalar deleting destructor', COMDAT
; _this$ = ecx
	push	esi
	mov	esi, ecx
	mov	DWORD PTR [esi], OFFSET ??_7bad_alloc@std@@6B@
	call	DWORD PTR __imp_??1exception@std@@UAE@XZ
	test	BYTE PTR ___flags$[esp], 1
	je	SHORT $LN6@scalar
	push	esi
	call	??3@YAXPAX@Z				; operator delete
	add	esp, 4
$LN6@scalar:
	mov	eax, esi
	pop	esi
	ret	4
??_Gbad_alloc@std@@UAEPAXI@Z ENDP			; std::bad_alloc::`scalar deleting destructor'
_TEXT	ENDS
PUBLIC	??2@YAPAXIPAX@Z					; operator new
; Function compile flags: /Ogtpy
; File c:\program files (x86)\microsoft visual studio 9.0\vc\include\new
;	COMDAT ??2@YAPAXIPAX@Z
_TEXT	SEGMENT
___formal$ = 8						; size = 4
__Where$ = 12						; size = 4
??2@YAPAXIPAX@Z PROC					; operator new, COMDAT

; 59   : 	return (_Where);

	mov	eax, DWORD PTR __Where$[esp-4]

; 60   : 	}

	ret	0
??2@YAPAXIPAX@Z ENDP					; operator new
_TEXT	ENDS
PUBLIC	?size@?$vector@PAVCvCity@@V?$allocator@PAVCvCity@@@std@@@std@@QBEIXZ ; std::vector<CvCity *,std::allocator<CvCity *> >::size
; Function compile flags: /Ogtpy
; File c:\program files (x86)\microsoft visual studio 9.0\vc\include\vector
;	COMDAT ?size@?$vector@PAVCvCity@@V?$allocator@PAVCvCity@@@std@@@std@@QBEIXZ
_TEXT	SEGMENT
?size@?$vector@PAVCvCity@@V?$allocator@PAVCvCity@@@std@@@std@@QBEIXZ PROC ; std::vector<CvCity *,std::allocator<CvCity *> >::size, COMDAT
; _this$ = ecx

; 726  : 		return (_Mylast - _Myfirst);

	mov	eax, DWORD PTR [ecx+8]
	sub	eax, DWORD PTR [ecx+4]
	sar	eax, 2

; 727  : 		}

	ret	0
?size@?$vector@PAVCvCity@@V?$allocator@PAVCvCity@@@std@@@std@@QBEIXZ ENDP ; std::vector<CvCity *,std::allocator<CvCity *> >::size
_TEXT	ENDS
PUBLIC	??3@YAXPAX0@Z					; operator delete
; Function compile flags: /Ogtpy
; File c:\program files (x86)\microsoft visual studio 9.0\vc\include\new
;	COMDAT ??3@YAXPAX0@Z
_TEXT	SEGMENT
___formal$ = 8						; size = 4
___formal$ = 12						; size = 4
??3@YAXPAX0@Z PROC					; operator delete, COMDAT

; 64   : 	}

	ret	0
??3@YAXPAX0@Z ENDP					; operator delete
_TEXT	ENDS
PUBLIC	?_Color@?$_Tree@V?$_Tmap_traits@PAVCvCity@@V?$vector@PAVCvCity@@V?$allocator@PAVCvCity@@@std@@@std@@U?$less@PAVCvCity@@@3@V?$allocator@U?$pair@QAVCvCity@@V?$vector@PAVCvCity@@V?$allocator@PAVCvCity@@@std@@@std@@@std@@@3@$0A@@std@@@std@@KAAADPAU_Node@?$_Tree_nod@V?$_Tmap_traits@PAVCvCity@@V?$vector@PAVCvCity@@V?$allocator@PAVCvCity@@@std@@@std@@U?$less@PAVCvCity@@@3@V?$allocator@U?$pair@QAVCvCity@@V?$vector@PAVCvCity@@V?$allocator@PAVCvCity@@@std@@@std@@@std@@@3@$0A@@std@@@2@@Z ; std::_Tree<std::_Tmap_traits<CvCity *,std::vector<CvCity *,std::allocator<CvCity *> >,std::less<CvCity *>,std::allocator<std::pair<CvCity * const,std::vector<CvCity *,std::allocator<CvCity *> > > >,0> >::_Color
; Function compile flags: /Ogtpy
; File c:\program files (x86)\microsoft visual studio 9.0\vc\include\xtree
;	COMDAT ?_Color@?$_Tree@V?$_Tmap_traits@PAVCvCity@@V?$vector@PAVCvCity@@V?$allocator@PAVCvCity@@@std@@@std@@U?$less@PAVCvCity@@@3@V?$allocator@U?$pair@QAVCvCity@@V?$vector@PAVCvCity@@V?$allocator@PAVCvCity@@@std@@@std@@@std@@@3@$0A@@std@@@std@@KAAADPAU_Node@?$_Tree_nod@V?$_Tmap_traits@PAVCvCity@@V?$vector@PAVCvCity@@V?$allocator@PAVCvCity@@@std@@@std@@U?$less@PAVCvCity@@@3@V?$allocator@U?$pair@QAVCvCity@@V?$vector@PAVCvCity@@V?$allocator@PAVCvCity@@@std@@@std@@@std@@@3@$0A@@std@@@2@@Z
_TEXT	SEGMENT
__Pnode$ = 8						; size = 4
?_Color@?$_Tree@V?$_Tmap_traits@PAVCvCity@@V?$vector@PAVCvCity@@V?$allocator@PAVCvCity@@@std@@@std@@U?$less@PAVCvCity@@@3@V?$allocator@U?$pair@QAVCvCity@@V?$vector@PAVCvCity@@V?$allocator@PAVCvCity@@@std@@@std@@@std@@@3@$0A@@std@@@std@@KAAADPAU_Node@?$_Tree_nod@V?$_Tmap_traits@PAVCvCity@@V?$vector@PAVCvCity@@V?$allocator@PAVCvCity@@@std@@@std@@U?$less@PAVCvCity@@@3@V?$allocator@U?$pair@QAVCvCity@@V?$vector@PAVCvCity@@V?$allocator@PAVCvCity@@@std@@@std@@@std@@@3@$0A@@std@@@2@@Z PROC ; std::_Tree<std::_Tmap_traits<CvCity *,std::vector<CvCity *,std::allocator<CvCity *> >,std::less<CvCity *>,std::allocator<std::pair<CvCity * const,std::vector<CvCity *,std::allocator<CvCity *> > > >,0> >::_Color, COMDAT

; 152  : 		return ((_Charref)(*_Pnode)._Color);

	mov	eax, DWORD PTR __Pnode$[esp-4]
	add	eax, 32					; 00000020H

; 153  : 		}

	ret	0
?_Color@?$_Tree@V?$_Tmap_traits@PAVCvCity@@V?$vector@PAVCvCity@@V?$allocator@PAVCvCity@@@std@@@std@@U?$less@PAVCvCity@@@3@V?$allocator@U?$pair@QAVCvCity@@V?$vector@PAVCvCity@@V?$allocator@PAVCvCity@@@std@@@std@@@std@@@3@$0A@@std@@@std@@KAAADPAU_Node@?$_Tree_nod@V?$_Tmap_traits@PAVCvCity@@V?$vector@PAVCvCity@@V?$allocator@PAVCvCity@@@std@@@std@@U?$less@PAVCvCity@@@3@V?$allocator@U?$pair@QAVCvCity@@V?$vector@PAVCvCity@@V?$allocator@PAVCvCity@@@std@@@std@@@std@@@3@$0A@@std@@@2@@Z ENDP ; std::_Tree<std::_Tmap_traits<CvCity *,std::vector<CvCity *,std::allocator<CvCity *> >,std::less<CvCity *>,std::allocator<std::pair<CvCity * const,std::vector<CvCity *,std::allocator<CvCity *> > > >,0> >::_Color
_TEXT	ENDS
PUBLIC	?_Isnil@?$_Tree@V?$_Tmap_traits@PAVCvCity@@V?$vector@PAVCvCity@@V?$allocator@PAVCvCity@@@std@@@std@@U?$less@PAVCvCity@@@3@V?$allocator@U?$pair@QAVCvCity@@V?$vector@PAVCvCity@@V?$allocator@PAVCvCity@@@std@@@std@@@std@@@3@$0A@@std@@@std@@KAAADPAU_Node@?$_Tree_nod@V?$_Tmap_traits@PAVCvCity@@V?$vector@PAVCvCity@@V?$allocator@PAVCvCity@@@std@@@std@@U?$less@PAVCvCity@@@3@V?$allocator@U?$pair@QAVCvCity@@V?$vector@PAVCvCity@@V?$allocator@PAVCvCity@@@std@@@std@@@std@@@3@$0A@@std@@@2@@Z ; std::_Tree<std::_Tmap_traits<CvCity *,std::vector<CvCity *,std::allocator<CvCity *> >,std::less<CvCity *>,std::allocator<std::pair<CvCity * const,std::vector<CvCity *,std::allocator<CvCity *> > > >,0> >::_Isnil
; Function compile flags: /Ogtpy
;	COMDAT ?_Isnil@?$_Tree@V?$_Tmap_traits@PAVCvCity@@V?$vector@PAVCvCity@@V?$allocator@PAVCvCity@@@std@@@std@@U?$less@PAVCvCity@@@3@V?$allocator@U?$pair@QAVCvCity@@V?$vector@PAVCvCity@@V?$allocator@PAVCvCity@@@std@@@std@@@std@@@3@$0A@@std@@@std@@KAAADPAU_Node@?$_Tree_nod@V?$_Tmap_traits@PAVCvCity@@V?$vector@PAVCvCity@@V?$allocator@PAVCvCity@@@std@@@std@@U?$less@PAVCvCity@@@3@V?$allocator@U?$pair@QAVCvCity@@V?$vector@PAVCvCity@@V?$allocator@PAVCvCity@@@std@@@std@@@std@@@3@$0A@@std@@@2@@Z
_TEXT	SEGMENT
__Pnode$ = 8						; size = 4
?_Isnil@?$_Tree@V?$_Tmap_traits@PAVCvCity@@V?$vector@PAVCvCity@@V?$allocator@PAVCvCity@@@std@@@std@@U?$less@PAVCvCity@@@3@V?$allocator@U?$pair@QAVCvCity@@V?$vector@PAVCvCity@@V?$allocator@PAVCvCity@@@std@@@std@@@std@@@3@$0A@@std@@@std@@KAAADPAU_Node@?$_Tree_nod@V?$_Tmap_traits@PAVCvCity@@V?$vector@PAVCvCity@@V?$allocator@PAVCvCity@@@std@@@std@@U?$less@PAVCvCity@@@3@V?$allocator@U?$pair@QAVCvCity@@V?$vector@PAVCvCity@@V?$allocator@PAVCvCity@@@std@@@std@@@std@@@3@$0A@@std@@@2@@Z PROC ; std::_Tree<std::_Tmap_traits<CvCity *,std::vector<CvCity *,std::allocator<CvCity *> >,std::less<CvCity *>,std::allocator<std::pair<CvCity * const,std::vector<CvCity *,std::allocator<CvCity *> > > >,0> >::_Isnil, COMDAT

; 157  : 		return ((_Charref)(*_Pnode)._Isnil);

	mov	eax, DWORD PTR __Pnode$[esp-4]
	add	eax, 33					; 00000021H

; 158  : 		}

	ret	0
?_Isnil@?$_Tree@V?$_Tmap_traits@PAVCvCity@@V?$vector@PAVCvCity@@V?$allocator@PAVCvCity@@@std@@@std@@U?$less@PAVCvCity@@@3@V?$allocator@U?$pair@QAVCvCity@@V?$vector@PAVCvCity@@V?$allocator@PAVCvCity@@@std@@@std@@@std@@@3@$0A@@std@@@std@@KAAADPAU_Node@?$_Tree_nod@V?$_Tmap_traits@PAVCvCity@@V?$vector@PAVCvCity@@V?$allocator@PAVCvCity@@@std@@@std@@U?$less@PAVCvCity@@@3@V?$allocator@U?$pair@QAVCvCity@@V?$vector@PAVCvCity@@V?$allocator@PAVCvCity@@@std@@@std@@@std@@@3@$0A@@std@@@2@@Z ENDP ; std::_Tree<std::_Tmap_traits<CvCity *,std::vector<CvCity *,std::allocator<CvCity *> >,std::less<CvCity *>,std::allocator<std::pair<CvCity * const,std::vector<CvCity *,std::allocator<CvCity *> > > >,0> >::_Isnil
_TEXT	ENDS
PUBLIC	??_7logic_error@std@@6B@			; std::logic_error::`vftable'
PUBLIC	??0logic_error@std@@QAE@ABV?$basic_string@DU?$char_traits@D@std@@V?$allocator@D@2@@1@@Z ; std::logic_error::logic_error
PUBLIC	??_R4logic_error@std@@6B@			; std::logic_error::`RTTI Complete Object Locator'
PUBLIC	??_R0?AVlogic_error@std@@@8			; std::logic_error `RTTI Type Descriptor'
PUBLIC	??_R3logic_error@std@@8				; std::logic_error::`RTTI Class Hierarchy Descriptor'
PUBLIC	??_R2logic_error@std@@8				; std::logic_error::`RTTI Base Class Array'
PUBLIC	??_R1A@?0A@EA@logic_error@std@@8		; std::logic_error::`RTTI Base Class Descriptor at (0,-1,0,64)'
PUBLIC	?what@logic_error@std@@UBEPBDXZ			; std::logic_error::what
EXTRN	__imp_??0?$basic_string@DU?$char_traits@D@std@@V?$allocator@D@2@@std@@QAE@ABV01@@Z:PROC
EXTRN	__imp_??0exception@std@@QAE@XZ:PROC
EXTRN	___CxxFrameHandler3:PROC
EXTRN	??_Elogic_error@std@@UAEPAXI@Z:PROC		; std::logic_error::`vector deleting destructor'
;	COMDAT ??_R1A@?0A@EA@logic_error@std@@8
; File c:\program files (x86)\microsoft visual studio 9.0\vc\include\stdexcept
rdata$r	SEGMENT
??_R1A@?0A@EA@logic_error@std@@8 DD FLAT:??_R0?AVlogic_error@std@@@8 ; std::logic_error::`RTTI Base Class Descriptor at (0,-1,0,64)'
	DD	01H
	DD	00H
	DD	0ffffffffH
	DD	00H
	DD	040H
	DD	FLAT:??_R3logic_error@std@@8
rdata$r	ENDS
;	COMDAT ??_R2logic_error@std@@8
rdata$r	SEGMENT
??_R2logic_error@std@@8 DD FLAT:??_R1A@?0A@EA@logic_error@std@@8 ; std::logic_error::`RTTI Base Class Array'
	DD	FLAT:??_R1A@?0A@EA@exception@std@@8
rdata$r	ENDS
;	COMDAT ??_R3logic_error@std@@8
rdata$r	SEGMENT
??_R3logic_error@std@@8 DD 00H				; std::logic_error::`RTTI Class Hierarchy Descriptor'
	DD	00H
	DD	02H
	DD	FLAT:??_R2logic_error@std@@8
rdata$r	ENDS
;	COMDAT ??_R0?AVlogic_error@std@@@8
_DATA	SEGMENT
??_R0?AVlogic_error@std@@@8 DD FLAT:??_7type_info@@6B@	; std::logic_error `RTTI Type Descriptor'
	DD	00H
	DB	'.?AVlogic_error@std@@', 00H
_DATA	ENDS
;	COMDAT ??_R4logic_error@std@@6B@
rdata$r	SEGMENT
??_R4logic_error@std@@6B@ DD 00H			; std::logic_error::`RTTI Complete Object Locator'
	DD	00H
	DD	00H
	DD	FLAT:??_R0?AVlogic_error@std@@@8
	DD	FLAT:??_R3logic_error@std@@8
rdata$r	ENDS
;	COMDAT ??_7logic_error@std@@6B@
CONST	SEGMENT
??_7logic_error@std@@6B@ DD FLAT:??_R4logic_error@std@@6B@ ; std::logic_error::`vftable'
	DD	FLAT:??_Elogic_error@std@@UAEPAXI@Z
	DD	FLAT:?what@logic_error@std@@UBEPBDXZ
CONST	ENDS
;	COMDAT xdata$x
xdata$x	SEGMENT
__unwindtable$??0logic_error@std@@QAE@ABV?$basic_string@DU?$char_traits@D@std@@V?$allocator@D@2@@1@@Z DD 0ffffffffH
	DD	FLAT:__unwindfunclet$??0logic_error@std@@QAE@ABV?$basic_string@DU?$char_traits@D@std@@V?$allocator@D@2@@1@@Z$0
__ehfuncinfo$??0logic_error@std@@QAE@ABV?$basic_string@DU?$char_traits@D@std@@V?$allocator@D@2@@1@@Z DD 019930522H
	DD	01H
	DD	FLAT:__unwindtable$??0logic_error@std@@QAE@ABV?$basic_string@DU?$char_traits@D@std@@V?$allocator@D@2@@1@@Z
	DD	2 DUP(00H)
	DD	2 DUP(00H)
	DD	00H
	DD	01H
; Function compile flags: /Ogtpy
xdata$x	ENDS
;	COMDAT ??0logic_error@std@@QAE@ABV?$basic_string@DU?$char_traits@D@std@@V?$allocator@D@2@@1@@Z
_TEXT	SEGMENT
_this$ = -16						; size = 4
__$EHRec$ = -12						; size = 12
__Message$ = 8						; size = 4
??0logic_error@std@@QAE@ABV?$basic_string@DU?$char_traits@D@std@@V?$allocator@D@2@@1@@Z PROC ; std::logic_error::logic_error, COMDAT
; _this$ = ecx

; 26   : 		{	// construct from message string

	push	-1
	push	__ehhandler$??0logic_error@std@@QAE@ABV?$basic_string@DU?$char_traits@D@std@@V?$allocator@D@2@@1@@Z
	mov	eax, DWORD PTR fs:0
	push	eax
	mov	DWORD PTR fs:0, esp
	push	ecx
	push	esi
	mov	esi, ecx
	mov	DWORD PTR _this$[esp+20], esi
	call	DWORD PTR __imp_??0exception@std@@QAE@XZ
	mov	eax, DWORD PTR __Message$[esp+16]
	push	eax
	lea	ecx, DWORD PTR [esi+12]
	mov	DWORD PTR __$EHRec$[esp+32], 0
	mov	DWORD PTR [esi], OFFSET ??_7logic_error@std@@6B@
	call	DWORD PTR __imp_??0?$basic_string@DU?$char_traits@D@std@@V?$allocator@D@2@@std@@QAE@ABV01@@Z

; 27   : 		}

	mov	ecx, DWORD PTR __$EHRec$[esp+20]
	mov	eax, esi
	pop	esi
	mov	DWORD PTR fs:0, ecx
	add	esp, 16					; 00000010H
	ret	4
_TEXT	ENDS
;	COMDAT text$x
text$x	SEGMENT
__unwindfunclet$??0logic_error@std@@QAE@ABV?$basic_string@DU?$char_traits@D@std@@V?$allocator@D@2@@1@@Z$0:
	mov	ecx, DWORD PTR _this$[ebp]
	jmp	DWORD PTR __imp_??1exception@std@@UAE@XZ
__ehhandler$??0logic_error@std@@QAE@ABV?$basic_string@DU?$char_traits@D@std@@V?$allocator@D@2@@1@@Z:
	mov	eax, OFFSET __ehfuncinfo$??0logic_error@std@@QAE@ABV?$basic_string@DU?$char_traits@D@std@@V?$allocator@D@2@@1@@Z
	jmp	___CxxFrameHandler3
text$x	ENDS
??0logic_error@std@@QAE@ABV?$basic_string@DU?$char_traits@D@std@@V?$allocator@D@2@@1@@Z ENDP ; std::logic_error::logic_error
PUBLIC	?_Left@?$_Tree@V?$_Tmap_traits@PAVCvCity@@V?$vector@PAVCvCity@@V?$allocator@PAVCvCity@@@std@@@std@@U?$less@PAVCvCity@@@3@V?$allocator@U?$pair@QAVCvCity@@V?$vector@PAVCvCity@@V?$allocator@PAVCvCity@@@std@@@std@@@std@@@3@$0A@@std@@@std@@KAAAPAU_Node@?$_Tree_nod@V?$_Tmap_traits@PAVCvCity@@V?$vector@PAVCvCity@@V?$allocator@PAVCvCity@@@std@@@std@@U?$less@PAVCvCity@@@3@V?$allocator@U?$pair@QAVCvCity@@V?$vector@PAVCvCity@@V?$allocator@PAVCvCity@@@std@@@std@@@std@@@3@$0A@@std@@@2@PAU342@@Z ; std::_Tree<std::_Tmap_traits<CvCity *,std::vector<CvCity *,std::allocator<CvCity *> >,std::less<CvCity *>,std::allocator<std::pair<CvCity * const,std::vector<CvCity *,std::allocator<CvCity *> > > >,0> >::_Left
; Function compile flags: /Ogtpy
; File c:\program files (x86)\microsoft visual studio 9.0\vc\include\xtree
;	COMDAT ?_Left@?$_Tree@V?$_Tmap_traits@PAVCvCity@@V?$vector@PAVCvCity@@V?$allocator@PAVCvCity@@@std@@@std@@U?$less@PAVCvCity@@@3@V?$allocator@U?$pair@QAVCvCity@@V?$vector@PAVCvCity@@V?$allocator@PAVCvCity@@@std@@@std@@@std@@@3@$0A@@std@@@std@@KAAAPAU_Node@?$_Tree_nod@V?$_Tmap_traits@PAVCvCity@@V?$vector@PAVCvCity@@V?$allocator@PAVCvCity@@@std@@@std@@U?$less@PAVCvCity@@@3@V?$allocator@U?$pair@QAVCvCity@@V?$vector@PAVCvCity@@V?$allocator@PAVCvCity@@@std@@@std@@@std@@@3@$0A@@std@@@2@PAU342@@Z
_TEXT	SEGMENT
__Pnode$ = 8						; size = 4
?_Left@?$_Tree@V?$_Tmap_traits@PAVCvCity@@V?$vector@PAVCvCity@@V?$allocator@PAVCvCity@@@std@@@std@@U?$less@PAVCvCity@@@3@V?$allocator@U?$pair@QAVCvCity@@V?$vector@PAVCvCity@@V?$allocator@PAVCvCity@@@std@@@std@@@std@@@3@$0A@@std@@@std@@KAAAPAU_Node@?$_Tree_nod@V?$_Tmap_traits@PAVCvCity@@V?$vector@PAVCvCity@@V?$allocator@PAVCvCity@@@std@@@std@@U?$less@PAVCvCity@@@3@V?$allocator@U?$pair@QAVCvCity@@V?$vector@PAVCvCity@@V?$allocator@PAVCvCity@@@std@@@std@@@std@@@3@$0A@@std@@@2@PAU342@@Z PROC ; std::_Tree<std::_Tmap_traits<CvCity *,std::vector<CvCity *,std::allocator<CvCity *> >,std::less<CvCity *>,std::allocator<std::pair<CvCity * const,std::vector<CvCity *,std::allocator<CvCity *> > > >,0> >::_Left, COMDAT

; 167  : 		return ((_Nodepref)(*_Pnode)._Left);

	mov	eax, DWORD PTR __Pnode$[esp-4]

; 168  : 		}

	ret	0
?_Left@?$_Tree@V?$_Tmap_traits@PAVCvCity@@V?$vector@PAVCvCity@@V?$allocator@PAVCvCity@@@std@@@std@@U?$less@PAVCvCity@@@3@V?$allocator@U?$pair@QAVCvCity@@V?$vector@PAVCvCity@@V?$allocator@PAVCvCity@@@std@@@std@@@std@@@3@$0A@@std@@@std@@KAAAPAU_Node@?$_Tree_nod@V?$_Tmap_traits@PAVCvCity@@V?$vector@PAVCvCity@@V?$allocator@PAVCvCity@@@std@@@std@@U?$less@PAVCvCity@@@3@V?$allocator@U?$pair@QAVCvCity@@V?$vector@PAVCvCity@@V?$allocator@PAVCvCity@@@std@@@std@@@std@@@3@$0A@@std@@@2@PAU342@@Z ENDP ; std::_Tree<std::_Tmap_traits<CvCity *,std::vector<CvCity *,std::allocator<CvCity *> >,std::less<CvCity *>,std::allocator<std::pair<CvCity * const,std::vector<CvCity *,std::allocator<CvCity *> > > >,0> >::_Left
_TEXT	ENDS
PUBLIC	?_Parent@?$_Tree@V?$_Tmap_traits@PAVCvCity@@V?$vector@PAVCvCity@@V?$allocator@PAVCvCity@@@std@@@std@@U?$less@PAVCvCity@@@3@V?$allocator@U?$pair@QAVCvCity@@V?$vector@PAVCvCity@@V?$allocator@PAVCvCity@@@std@@@std@@@std@@@3@$0A@@std@@@std@@KAAAPAU_Node@?$_Tree_nod@V?$_Tmap_traits@PAVCvCity@@V?$vector@PAVCvCity@@V?$allocator@PAVCvCity@@@std@@@std@@U?$less@PAVCvCity@@@3@V?$allocator@U?$pair@QAVCvCity@@V?$vector@PAVCvCity@@V?$allocator@PAVCvCity@@@std@@@std@@@std@@@3@$0A@@std@@@2@PAU342@@Z ; std::_Tree<std::_Tmap_traits<CvCity *,std::vector<CvCity *,std::allocator<CvCity *> >,std::less<CvCity *>,std::allocator<std::pair<CvCity * const,std::vector<CvCity *,std::allocator<CvCity *> > > >,0> >::_Parent
; Function compile flags: /Ogtpy
;	COMDAT ?_Parent@?$_Tree@V?$_Tmap_traits@PAVCvCity@@V?$vector@PAVCvCity@@V?$allocator@PAVCvCity@@@std@@@std@@U?$less@PAVCvCity@@@3@V?$allocator@U?$pair@QAVCvCity@@V?$vector@PAVCvCity@@V?$allocator@PAVCvCity@@@std@@@std@@@std@@@3@$0A@@std@@@std@@KAAAPAU_Node@?$_Tree_nod@V?$_Tmap_traits@PAVCvCity@@V?$vector@PAVCvCity@@V?$allocator@PAVCvCity@@@std@@@std@@U?$less@PAVCvCity@@@3@V?$allocator@U?$pair@QAVCvCity@@V?$vector@PAVCvCity@@V?$allocator@PAVCvCity@@@std@@@std@@@std@@@3@$0A@@std@@@2@PAU342@@Z
_TEXT	SEGMENT
__Pnode$ = 8						; size = 4
?_Parent@?$_Tree@V?$_Tmap_traits@PAVCvCity@@V?$vector@PAVCvCity@@V?$allocator@PAVCvCity@@@std@@@std@@U?$less@PAVCvCity@@@3@V?$allocator@U?$pair@QAVCvCity@@V?$vector@PAVCvCity@@V?$allocator@PAVCvCity@@@std@@@std@@@std@@@3@$0A@@std@@@std@@KAAAPAU_Node@?$_Tree_nod@V?$_Tmap_traits@PAVCvCity@@V?$vector@PAVCvCity@@V?$allocator@PAVCvCity@@@std@@@std@@U?$less@PAVCvCity@@@3@V?$allocator@U?$pair@QAVCvCity@@V?$vector@PAVCvCity@@V?$allocator@PAVCvCity@@@std@@@std@@@std@@@3@$0A@@std@@@2@PAU342@@Z PROC ; std::_Tree<std::_Tmap_traits<CvCity *,std::vector<CvCity *,std::allocator<CvCity *> >,std::less<CvCity *>,std::allocator<std::pair<CvCity * const,std::vector<CvCity *,std::allocator<CvCity *> > > >,0> >::_Parent, COMDAT

; 172  : 		return ((_Nodepref)(*_Pnode)._Parent);

	mov	eax, DWORD PTR __Pnode$[esp-4]
	add	eax, 4

; 173  : 		}

	ret	0
?_Parent@?$_Tree@V?$_Tmap_traits@PAVCvCity@@V?$vector@PAVCvCity@@V?$allocator@PAVCvCity@@@std@@@std@@U?$less@PAVCvCity@@@3@V?$allocator@U?$pair@QAVCvCity@@V?$vector@PAVCvCity@@V?$allocator@PAVCvCity@@@std@@@std@@@std@@@3@$0A@@std@@@std@@KAAAPAU_Node@?$_Tree_nod@V?$_Tmap_traits@PAVCvCity@@V?$vector@PAVCvCity@@V?$allocator@PAVCvCity@@@std@@@std@@U?$less@PAVCvCity@@@3@V?$allocator@U?$pair@QAVCvCity@@V?$vector@PAVCvCity@@V?$allocator@PAVCvCity@@@std@@@std@@@std@@@3@$0A@@std@@@2@PAU342@@Z ENDP ; std::_Tree<std::_Tmap_traits<CvCity *,std::vector<CvCity *,std::allocator<CvCity *> >,std::less<CvCity *>,std::allocator<std::pair<CvCity * const,std::vector<CvCity *,std::allocator<CvCity *> > > >,0> >::_Parent
_TEXT	ENDS
PUBLIC	??1logic_error@std@@UAE@XZ			; std::logic_error::~logic_error
EXTRN	__imp_??1?$basic_string@DU?$char_traits@D@std@@V?$allocator@D@2@@std@@QAE@XZ:PROC
; Function compile flags: /Ogtpy
; File c:\program files (x86)\microsoft visual studio 9.0\vc\include\stdexcept
;	COMDAT ??1logic_error@std@@UAE@XZ
_TEXT	SEGMENT
??1logic_error@std@@UAE@XZ PROC				; std::logic_error::~logic_error, COMDAT
; _this$ = ecx

; 30   : 		{	// destroy the object

	push	esi
	mov	esi, ecx

; 31   : 		}

	lea	ecx, DWORD PTR [esi+12]
	mov	DWORD PTR [esi], OFFSET ??_7logic_error@std@@6B@
	call	DWORD PTR __imp_??1?$basic_string@DU?$char_traits@D@std@@V?$allocator@D@2@@std@@QAE@XZ
	mov	ecx, esi
	pop	esi
	jmp	DWORD PTR __imp_??1exception@std@@UAE@XZ
??1logic_error@std@@UAE@XZ ENDP				; std::logic_error::~logic_error
_TEXT	ENDS
PUBLIC	?_Right@?$_Tree@V?$_Tmap_traits@PAVCvCity@@V?$vector@PAVCvCity@@V?$allocator@PAVCvCity@@@std@@@std@@U?$less@PAVCvCity@@@3@V?$allocator@U?$pair@QAVCvCity@@V?$vector@PAVCvCity@@V?$allocator@PAVCvCity@@@std@@@std@@@std@@@3@$0A@@std@@@std@@KAAAPAU_Node@?$_Tree_nod@V?$_Tmap_traits@PAVCvCity@@V?$vector@PAVCvCity@@V?$allocator@PAVCvCity@@@std@@@std@@U?$less@PAVCvCity@@@3@V?$allocator@U?$pair@QAVCvCity@@V?$vector@PAVCvCity@@V?$allocator@PAVCvCity@@@std@@@std@@@std@@@3@$0A@@std@@@2@PAU342@@Z ; std::_Tree<std::_Tmap_traits<CvCity *,std::vector<CvCity *,std::allocator<CvCity *> >,std::less<CvCity *>,std::allocator<std::pair<CvCity * const,std::vector<CvCity *,std::allocator<CvCity *> > > >,0> >::_Right
; Function compile flags: /Ogtpy
; File c:\program files (x86)\microsoft visual studio 9.0\vc\include\xtree
;	COMDAT ?_Right@?$_Tree@V?$_Tmap_traits@PAVCvCity@@V?$vector@PAVCvCity@@V?$allocator@PAVCvCity@@@std@@@std@@U?$less@PAVCvCity@@@3@V?$allocator@U?$pair@QAVCvCity@@V?$vector@PAVCvCity@@V?$allocator@PAVCvCity@@@std@@@std@@@std@@@3@$0A@@std@@@std@@KAAAPAU_Node@?$_Tree_nod@V?$_Tmap_traits@PAVCvCity@@V?$vector@PAVCvCity@@V?$allocator@PAVCvCity@@@std@@@std@@U?$less@PAVCvCity@@@3@V?$allocator@U?$pair@QAVCvCity@@V?$vector@PAVCvCity@@V?$allocator@PAVCvCity@@@std@@@std@@@std@@@3@$0A@@std@@@2@PAU342@@Z
_TEXT	SEGMENT
__Pnode$ = 8						; size = 4
?_Right@?$_Tree@V?$_Tmap_traits@PAVCvCity@@V?$vector@PAVCvCity@@V?$allocator@PAVCvCity@@@std@@@std@@U?$less@PAVCvCity@@@3@V?$allocator@U?$pair@QAVCvCity@@V?$vector@PAVCvCity@@V?$allocator@PAVCvCity@@@std@@@std@@@std@@@3@$0A@@std@@@std@@KAAAPAU_Node@?$_Tree_nod@V?$_Tmap_traits@PAVCvCity@@V?$vector@PAVCvCity@@V?$allocator@PAVCvCity@@@std@@@std@@U?$less@PAVCvCity@@@3@V?$allocator@U?$pair@QAVCvCity@@V?$vector@PAVCvCity@@V?$allocator@PAVCvCity@@@std@@@std@@@std@@@3@$0A@@std@@@2@PAU342@@Z PROC ; std::_Tree<std::_Tmap_traits<CvCity *,std::vector<CvCity *,std::allocator<CvCity *> >,std::less<CvCity *>,std::allocator<std::pair<CvCity * const,std::vector<CvCity *,std::allocator<CvCity *> > > >,0> >::_Right, COMDAT

; 177  : 		return ((_Nodepref)(*_Pnode)._Right);

	mov	eax, DWORD PTR __Pnode$[esp-4]
	add	eax, 8

; 178  : 		}

	ret	0
?_Right@?$_Tree@V?$_Tmap_traits@PAVCvCity@@V?$vector@PAVCvCity@@V?$allocator@PAVCvCity@@@std@@@std@@U?$less@PAVCvCity@@@3@V?$allocator@U?$pair@QAVCvCity@@V?$vector@PAVCvCity@@V?$allocator@PAVCvCity@@@std@@@std@@@std@@@3@$0A@@std@@@std@@KAAAPAU_Node@?$_Tree_nod@V?$_Tmap_traits@PAVCvCity@@V?$vector@PAVCvCity@@V?$allocator@PAVCvCity@@@std@@@std@@U?$less@PAVCvCity@@@3@V?$allocator@U?$pair@QAVCvCity@@V?$vector@PAVCvCity@@V?$allocator@PAVCvCity@@@std@@@std@@@std@@@3@$0A@@std@@@2@PAU342@@Z ENDP ; std::_Tree<std::_Tmap_traits<CvCity *,std::vector<CvCity *,std::allocator<CvCity *> >,std::less<CvCity *>,std::allocator<std::pair<CvCity * const,std::vector<CvCity *,std::allocator<CvCity *> > > >,0> >::_Right
_TEXT	ENDS
PUBLIC	?_Myval@?$_Tree@V?$_Tmap_traits@PAVCvCity@@V?$vector@PAVCvCity@@V?$allocator@PAVCvCity@@@std@@@std@@U?$less@PAVCvCity@@@3@V?$allocator@U?$pair@QAVCvCity@@V?$vector@PAVCvCity@@V?$allocator@PAVCvCity@@@std@@@std@@@std@@@3@$0A@@std@@@std@@KAAAU?$pair@QAVCvCity@@V?$vector@PAVCvCity@@V?$allocator@PAVCvCity@@@std@@@std@@@2@PAU_Node@?$_Tree_nod@V?$_Tmap_traits@PAVCvCity@@V?$vector@PAVCvCity@@V?$allocator@PAVCvCity@@@std@@@std@@U?$less@PAVCvCity@@@3@V?$allocator@U?$pair@QAVCvCity@@V?$vector@PAVCvCity@@V?$allocator@PAVCvCity@@@std@@@std@@@std@@@3@$0A@@std@@@2@@Z ; std::_Tree<std::_Tmap_traits<CvCity *,std::vector<CvCity *,std::allocator<CvCity *> >,std::less<CvCity *>,std::allocator<std::pair<CvCity * const,std::vector<CvCity *,std::allocator<CvCity *> > > >,0> >::_Myval
; Function compile flags: /Ogtpy
;	COMDAT ?_Myval@?$_Tree@V?$_Tmap_traits@PAVCvCity@@V?$vector@PAVCvCity@@V?$allocator@PAVCvCity@@@std@@@std@@U?$less@PAVCvCity@@@3@V?$allocator@U?$pair@QAVCvCity@@V?$vector@PAVCvCity@@V?$allocator@PAVCvCity@@@std@@@std@@@std@@@3@$0A@@std@@@std@@KAAAU?$pair@QAVCvCity@@V?$vector@PAVCvCity@@V?$allocator@PAVCvCity@@@std@@@std@@@2@PAU_Node@?$_Tree_nod@V?$_Tmap_traits@PAVCvCity@@V?$vector@PAVCvCity@@V?$allocator@PAVCvCity@@@std@@@std@@U?$less@PAVCvCity@@@3@V?$allocator@U?$pair@QAVCvCity@@V?$vector@PAVCvCity@@V?$allocator@PAVCvCity@@@std@@@std@@@std@@@3@$0A@@std@@@2@@Z
_TEXT	SEGMENT
__Pnode$ = 8						; size = 4
?_Myval@?$_Tree@V?$_Tmap_traits@PAVCvCity@@V?$vector@PAVCvCity@@V?$allocator@PAVCvCity@@@std@@@std@@U?$less@PAVCvCity@@@3@V?$allocator@U?$pair@QAVCvCity@@V?$vector@PAVCvCity@@V?$allocator@PAVCvCity@@@std@@@std@@@std@@@3@$0A@@std@@@std@@KAAAU?$pair@QAVCvCity@@V?$vector@PAVCvCity@@V?$allocator@PAVCvCity@@@std@@@std@@@2@PAU_Node@?$_Tree_nod@V?$_Tmap_traits@PAVCvCity@@V?$vector@PAVCvCity@@V?$allocator@PAVCvCity@@@std@@@std@@U?$less@PAVCvCity@@@3@V?$allocator@U?$pair@QAVCvCity@@V?$vector@PAVCvCity@@V?$allocator@PAVCvCity@@@std@@@std@@@std@@@3@$0A@@std@@@2@@Z PROC ; std::_Tree<std::_Tmap_traits<CvCity *,std::vector<CvCity *,std::allocator<CvCity *> >,std::less<CvCity *>,std::allocator<std::pair<CvCity * const,std::vector<CvCity *,std::allocator<CvCity *> > > >,0> >::_Myval, COMDAT

; 182  : 		return ((_Vref)(*_Pnode)._Myval);

	mov	eax, DWORD PTR __Pnode$[esp-4]
	add	eax, 12					; 0000000cH

; 183  : 		}

	ret	0
?_Myval@?$_Tree@V?$_Tmap_traits@PAVCvCity@@V?$vector@PAVCvCity@@V?$allocator@PAVCvCity@@@std@@@std@@U?$less@PAVCvCity@@@3@V?$allocator@U?$pair@QAVCvCity@@V?$vector@PAVCvCity@@V?$allocator@PAVCvCity@@@std@@@std@@@std@@@3@$0A@@std@@@std@@KAAAU?$pair@QAVCvCity@@V?$vector@PAVCvCity@@V?$allocator@PAVCvCity@@@std@@@std@@@2@PAU_Node@?$_Tree_nod@V?$_Tmap_traits@PAVCvCity@@V?$vector@PAVCvCity@@V?$allocator@PAVCvCity@@@std@@@std@@U?$less@PAVCvCity@@@3@V?$allocator@U?$pair@QAVCvCity@@V?$vector@PAVCvCity@@V?$allocator@PAVCvCity@@@std@@@std@@@std@@@3@$0A@@std@@@2@@Z ENDP ; std::_Tree<std::_Tmap_traits<CvCity *,std::vector<CvCity *,std::allocator<CvCity *> >,std::less<CvCity *>,std::allocator<std::pair<CvCity * const,std::vector<CvCity *,std::allocator<CvCity *> > > >,0> >::_Myval
_TEXT	ENDS
EXTRN	__imp_?c_str@?$basic_string@DU?$char_traits@D@std@@V?$allocator@D@2@@std@@QBEPBDXZ:PROC
; Function compile flags: /Ogtpy
; File c:\program files (x86)\microsoft visual studio 9.0\vc\include\stdexcept
;	COMDAT ?what@logic_error@std@@UBEPBDXZ
_TEXT	SEGMENT
?what@logic_error@std@@UBEPBDXZ PROC			; std::logic_error::what, COMDAT
; _this$ = ecx

; 35   : 		return (_Str.c_str());

	add	ecx, 12					; 0000000cH
	jmp	DWORD PTR __imp_?c_str@?$basic_string@DU?$char_traits@D@std@@V?$allocator@D@2@@std@@QBEPBDXZ
?what@logic_error@std@@UBEPBDXZ ENDP			; std::logic_error::what
; Function compile flags: /Ogtpy
_TEXT	ENDS
;	COMDAT ??_Glogic_error@std@@UAEPAXI@Z
_TEXT	SEGMENT
___flags$ = 8						; size = 4
??_Glogic_error@std@@UAEPAXI@Z PROC			; std::logic_error::`scalar deleting destructor', COMDAT
; _this$ = ecx
	push	esi
	mov	esi, ecx
	lea	ecx, DWORD PTR [esi+12]
	mov	DWORD PTR [esi], OFFSET ??_7logic_error@std@@6B@
	call	DWORD PTR __imp_??1?$basic_string@DU?$char_traits@D@std@@V?$allocator@D@2@@std@@QAE@XZ
	mov	ecx, esi
	call	DWORD PTR __imp_??1exception@std@@UAE@XZ
	test	BYTE PTR ___flags$[esp], 1
	je	SHORT $LN6@scalar@2
	push	esi
	call	??3@YAXPAX@Z				; operator delete
	add	esp, 4
$LN6@scalar@2:
	mov	eax, esi
	pop	esi
	ret	4
??_Glogic_error@std@@UAEPAXI@Z ENDP			; std::logic_error::`scalar deleting destructor'
_TEXT	ENDS
PUBLIC	??_7length_error@std@@6B@			; std::length_error::`vftable'
PUBLIC	??0length_error@std@@QAE@ABV?$basic_string@DU?$char_traits@D@std@@V?$allocator@D@2@@1@@Z ; std::length_error::length_error
PUBLIC	??_R4length_error@std@@6B@			; std::length_error::`RTTI Complete Object Locator'
PUBLIC	??_R0?AVlength_error@std@@@8			; std::length_error `RTTI Type Descriptor'
PUBLIC	??_R3length_error@std@@8			; std::length_error::`RTTI Class Hierarchy Descriptor'
PUBLIC	??_R2length_error@std@@8			; std::length_error::`RTTI Base Class Array'
PUBLIC	??_R1A@?0A@EA@length_error@std@@8		; std::length_error::`RTTI Base Class Descriptor at (0,-1,0,64)'
EXTRN	??_Elength_error@std@@UAEPAXI@Z:PROC		; std::length_error::`vector deleting destructor'
;	COMDAT ??_R1A@?0A@EA@length_error@std@@8
rdata$r	SEGMENT
??_R1A@?0A@EA@length_error@std@@8 DD FLAT:??_R0?AVlength_error@std@@@8 ; std::length_error::`RTTI Base Class Descriptor at (0,-1,0,64)'
	DD	02H
	DD	00H
	DD	0ffffffffH
	DD	00H
	DD	040H
	DD	FLAT:??_R3length_error@std@@8
rdata$r	ENDS
;	COMDAT ??_R2length_error@std@@8
rdata$r	SEGMENT
??_R2length_error@std@@8 DD FLAT:??_R1A@?0A@EA@length_error@std@@8 ; std::length_error::`RTTI Base Class Array'
	DD	FLAT:??_R1A@?0A@EA@logic_error@std@@8
	DD	FLAT:??_R1A@?0A@EA@exception@std@@8
rdata$r	ENDS
;	COMDAT ??_R3length_error@std@@8
rdata$r	SEGMENT
??_R3length_error@std@@8 DD 00H				; std::length_error::`RTTI Class Hierarchy Descriptor'
	DD	00H
	DD	03H
	DD	FLAT:??_R2length_error@std@@8
rdata$r	ENDS
;	COMDAT ??_R0?AVlength_error@std@@@8
_DATA	SEGMENT
??_R0?AVlength_error@std@@@8 DD FLAT:??_7type_info@@6B@	; std::length_error `RTTI Type Descriptor'
	DD	00H
	DB	'.?AVlength_error@std@@', 00H
_DATA	ENDS
;	COMDAT ??_R4length_error@std@@6B@
rdata$r	SEGMENT
??_R4length_error@std@@6B@ DD 00H			; std::length_error::`RTTI Complete Object Locator'
	DD	00H
	DD	00H
	DD	FLAT:??_R0?AVlength_error@std@@@8
	DD	FLAT:??_R3length_error@std@@8
rdata$r	ENDS
;	COMDAT ??_7length_error@std@@6B@
CONST	SEGMENT
??_7length_error@std@@6B@ DD FLAT:??_R4length_error@std@@6B@ ; std::length_error::`vftable'
	DD	FLAT:??_Elength_error@std@@UAEPAXI@Z
	DD	FLAT:?what@logic_error@std@@UBEPBDXZ
; Function compile flags: /Ogtpy
CONST	ENDS
;	COMDAT ??0length_error@std@@QAE@ABV?$basic_string@DU?$char_traits@D@std@@V?$allocator@D@2@@1@@Z
_TEXT	SEGMENT
__Message$ = 8						; size = 4
??0length_error@std@@QAE@ABV?$basic_string@DU?$char_traits@D@std@@V?$allocator@D@2@@1@@Z PROC ; std::length_error::length_error, COMDAT
; _this$ = ecx

; 105  : 		{	// construct from message string

	mov	eax, DWORD PTR __Message$[esp-4]
	push	esi
	push	eax
	mov	esi, ecx
	call	??0logic_error@std@@QAE@ABV?$basic_string@DU?$char_traits@D@std@@V?$allocator@D@2@@1@@Z ; std::logic_error::logic_error
	mov	DWORD PTR [esi], OFFSET ??_7length_error@std@@6B@

; 106  : 		}

	mov	eax, esi
	pop	esi
	ret	4
??0length_error@std@@QAE@ABV?$basic_string@DU?$char_traits@D@std@@V?$allocator@D@2@@1@@Z ENDP ; std::length_error::length_error
_TEXT	ENDS
PUBLIC	??1length_error@std@@UAE@XZ			; std::length_error::~length_error
; Function compile flags: /Ogtpy
;	COMDAT ??1length_error@std@@UAE@XZ
_TEXT	SEGMENT
??1length_error@std@@UAE@XZ PROC			; std::length_error::~length_error, COMDAT
; _this$ = ecx

; 109  : 		{	// destroy the object

	push	esi
	mov	esi, ecx

; 110  : 		}

	lea	ecx, DWORD PTR [esi+12]
	mov	DWORD PTR [esi], OFFSET ??_7logic_error@std@@6B@
	call	DWORD PTR __imp_??1?$basic_string@DU?$char_traits@D@std@@V?$allocator@D@2@@std@@QAE@XZ
	mov	ecx, esi
	pop	esi
	jmp	DWORD PTR __imp_??1exception@std@@UAE@XZ
??1length_error@std@@UAE@XZ ENDP			; std::length_error::~length_error
; Function compile flags: /Ogtpy
_TEXT	ENDS
;	COMDAT ??_Glength_error@std@@UAEPAXI@Z
_TEXT	SEGMENT
___flags$ = 8						; size = 4
??_Glength_error@std@@UAEPAXI@Z PROC			; std::length_error::`scalar deleting destructor', COMDAT
; _this$ = ecx
	push	esi
	mov	esi, ecx
	lea	ecx, DWORD PTR [esi+12]
	mov	DWORD PTR [esi], OFFSET ??_7logic_error@std@@6B@
	call	DWORD PTR __imp_??1?$basic_string@DU?$char_traits@D@std@@V?$allocator@D@2@@std@@QAE@XZ
	mov	ecx, esi
	call	DWORD PTR __imp_??1exception@std@@UAE@XZ
	test	BYTE PTR ___flags$[esp], 1
	je	SHORT $LN8@scalar@3
	push	esi
	call	??3@YAXPAX@Z				; operator delete
	add	esp, 4
$LN8@scalar@3:
	mov	eax, esi
	pop	esi
	ret	4
??_Glength_error@std@@UAEPAXI@Z ENDP			; std::length_error::`scalar deleting destructor'
_TEXT	ENDS
PUBLIC	??_7out_of_range@std@@6B@			; std::out_of_range::`vftable'
PUBLIC	??0out_of_range@std@@QAE@ABV?$basic_string@DU?$char_traits@D@std@@V?$allocator@D@2@@1@@Z ; std::out_of_range::out_of_range
PUBLIC	??_R4out_of_range@std@@6B@			; std::out_of_range::`RTTI Complete Object Locator'
PUBLIC	??_R0?AVout_of_range@std@@@8			; std::out_of_range `RTTI Type Descriptor'
PUBLIC	??_R3out_of_range@std@@8			; std::out_of_range::`RTTI Class Hierarchy Descriptor'
PUBLIC	??_R2out_of_range@std@@8			; std::out_of_range::`RTTI Base Class Array'
PUBLIC	??_R1A@?0A@EA@out_of_range@std@@8		; std::out_of_range::`RTTI Base Class Descriptor at (0,-1,0,64)'
EXTRN	??_Eout_of_range@std@@UAEPAXI@Z:PROC		; std::out_of_range::`vector deleting destructor'
;	COMDAT ??_R1A@?0A@EA@out_of_range@std@@8
rdata$r	SEGMENT
??_R1A@?0A@EA@out_of_range@std@@8 DD FLAT:??_R0?AVout_of_range@std@@@8 ; std::out_of_range::`RTTI Base Class Descriptor at (0,-1,0,64)'
	DD	02H
	DD	00H
	DD	0ffffffffH
	DD	00H
	DD	040H
	DD	FLAT:??_R3out_of_range@std@@8
rdata$r	ENDS
;	COMDAT ??_R2out_of_range@std@@8
rdata$r	SEGMENT
??_R2out_of_range@std@@8 DD FLAT:??_R1A@?0A@EA@out_of_range@std@@8 ; std::out_of_range::`RTTI Base Class Array'
	DD	FLAT:??_R1A@?0A@EA@logic_error@std@@8
	DD	FLAT:??_R1A@?0A@EA@exception@std@@8
rdata$r	ENDS
;	COMDAT ??_R3out_of_range@std@@8
rdata$r	SEGMENT
??_R3out_of_range@std@@8 DD 00H				; std::out_of_range::`RTTI Class Hierarchy Descriptor'
	DD	00H
	DD	03H
	DD	FLAT:??_R2out_of_range@std@@8
rdata$r	ENDS
;	COMDAT ??_R0?AVout_of_range@std@@@8
_DATA	SEGMENT
??_R0?AVout_of_range@std@@@8 DD FLAT:??_7type_info@@6B@	; std::out_of_range `RTTI Type Descriptor'
	DD	00H
	DB	'.?AVout_of_range@std@@', 00H
_DATA	ENDS
;	COMDAT ??_R4out_of_range@std@@6B@
rdata$r	SEGMENT
??_R4out_of_range@std@@6B@ DD 00H			; std::out_of_range::`RTTI Complete Object Locator'
	DD	00H
	DD	00H
	DD	FLAT:??_R0?AVout_of_range@std@@@8
	DD	FLAT:??_R3out_of_range@std@@8
rdata$r	ENDS
;	COMDAT ??_7out_of_range@std@@6B@
CONST	SEGMENT
??_7out_of_range@std@@6B@ DD FLAT:??_R4out_of_range@std@@6B@ ; std::out_of_range::`vftable'
	DD	FLAT:??_Eout_of_range@std@@UAEPAXI@Z
	DD	FLAT:?what@logic_error@std@@UBEPBDXZ
; Function compile flags: /Ogtpy
CONST	ENDS
;	COMDAT ??0out_of_range@std@@QAE@ABV?$basic_string@DU?$char_traits@D@std@@V?$allocator@D@2@@1@@Z
_TEXT	SEGMENT
__Message$ = 8						; size = 4
??0out_of_range@std@@QAE@ABV?$basic_string@DU?$char_traits@D@std@@V?$allocator@D@2@@1@@Z PROC ; std::out_of_range::out_of_range, COMDAT
; _this$ = ecx

; 129  : 		{	// construct from message string

	mov	eax, DWORD PTR __Message$[esp-4]
	push	esi
	push	eax
	mov	esi, ecx
	call	??0logic_error@std@@QAE@ABV?$basic_string@DU?$char_traits@D@std@@V?$allocator@D@2@@1@@Z ; std::logic_error::logic_error
	mov	DWORD PTR [esi], OFFSET ??_7out_of_range@std@@6B@

; 130  : 		}

	mov	eax, esi
	pop	esi
	ret	4
??0out_of_range@std@@QAE@ABV?$basic_string@DU?$char_traits@D@std@@V?$allocator@D@2@@1@@Z ENDP ; std::out_of_range::out_of_range
_TEXT	ENDS
PUBLIC	??1out_of_range@std@@UAE@XZ			; std::out_of_range::~out_of_range
; Function compile flags: /Ogtpy
;	COMDAT ??1out_of_range@std@@UAE@XZ
_TEXT	SEGMENT
??1out_of_range@std@@UAE@XZ PROC			; std::out_of_range::~out_of_range, COMDAT
; _this$ = ecx

; 133  : 		{	// destroy the object

	push	esi
	mov	esi, ecx

; 134  : 		}

	lea	ecx, DWORD PTR [esi+12]
	mov	DWORD PTR [esi], OFFSET ??_7logic_error@std@@6B@
	call	DWORD PTR __imp_??1?$basic_string@DU?$char_traits@D@std@@V?$allocator@D@2@@std@@QAE@XZ
	mov	ecx, esi
	pop	esi
	jmp	DWORD PTR __imp_??1exception@std@@UAE@XZ
??1out_of_range@std@@UAE@XZ ENDP			; std::out_of_range::~out_of_range
; Function compile flags: /Ogtpy
_TEXT	ENDS
;	COMDAT ??_Gout_of_range@std@@UAEPAXI@Z
_TEXT	SEGMENT
___flags$ = 8						; size = 4
??_Gout_of_range@std@@UAEPAXI@Z PROC			; std::out_of_range::`scalar deleting destructor', COMDAT
; _this$ = ecx
	push	esi
	mov	esi, ecx
	lea	ecx, DWORD PTR [esi+12]
	mov	DWORD PTR [esi], OFFSET ??_7logic_error@std@@6B@
	call	DWORD PTR __imp_??1?$basic_string@DU?$char_traits@D@std@@V?$allocator@D@2@@std@@QAE@XZ
	mov	ecx, esi
	call	DWORD PTR __imp_??1exception@std@@UAE@XZ
	test	BYTE PTR ___flags$[esp], 1
	je	SHORT $LN8@scalar@4
	push	esi
	call	??3@YAXPAX@Z				; operator delete
	add	esp, 4
$LN8@scalar@4:
	mov	eax, esi
	pop	esi
	ret	4
??_Gout_of_range@std@@UAEPAXI@Z ENDP			; std::out_of_range::`scalar deleting destructor'
_TEXT	ENDS
PUBLIC	?_Lmost@?$_Tree@V?$_Tmap_traits@PAVCvCity@@V?$vector@PAVCvCity@@V?$allocator@PAVCvCity@@@std@@@std@@U?$less@PAVCvCity@@@3@V?$allocator@U?$pair@QAVCvCity@@V?$vector@PAVCvCity@@V?$allocator@PAVCvCity@@@std@@@std@@@std@@@3@$0A@@std@@@std@@IBEAAPAU_Node@?$_Tree_nod@V?$_Tmap_traits@PAVCvCity@@V?$vector@PAVCvCity@@V?$allocator@PAVCvCity@@@std@@@std@@U?$less@PAVCvCity@@@3@V?$allocator@U?$pair@QAVCvCity@@V?$vector@PAVCvCity@@V?$allocator@PAVCvCity@@@std@@@std@@@std@@@3@$0A@@std@@@2@XZ ; std::_Tree<std::_Tmap_traits<CvCity *,std::vector<CvCity *,std::allocator<CvCity *> >,std::less<CvCity *>,std::allocator<std::pair<CvCity * const,std::vector<CvCity *,std::allocator<CvCity *> > > >,0> >::_Lmost
; Function compile flags: /Ogtpy
; File c:\program files (x86)\microsoft visual studio 9.0\vc\include\xtree
;	COMDAT ?_Lmost@?$_Tree@V?$_Tmap_traits@PAVCvCity@@V?$vector@PAVCvCity@@V?$allocator@PAVCvCity@@@std@@@std@@U?$less@PAVCvCity@@@3@V?$allocator@U?$pair@QAVCvCity@@V?$vector@PAVCvCity@@V?$allocator@PAVCvCity@@@std@@@std@@@std@@@3@$0A@@std@@@std@@IBEAAPAU_Node@?$_Tree_nod@V?$_Tmap_traits@PAVCvCity@@V?$vector@PAVCvCity@@V?$allocator@PAVCvCity@@@std@@@std@@U?$less@PAVCvCity@@@3@V?$allocator@U?$pair@QAVCvCity@@V?$vector@PAVCvCity@@V?$allocator@PAVCvCity@@@std@@@std@@@std@@@3@$0A@@std@@@2@XZ
_TEXT	SEGMENT
?_Lmost@?$_Tree@V?$_Tmap_traits@PAVCvCity@@V?$vector@PAVCvCity@@V?$allocator@PAVCvCity@@@std@@@std@@U?$less@PAVCvCity@@@3@V?$allocator@U?$pair@QAVCvCity@@V?$vector@PAVCvCity@@V?$allocator@PAVCvCity@@@std@@@std@@@std@@@3@$0A@@std@@@std@@IBEAAPAU_Node@?$_Tree_nod@V?$_Tmap_traits@PAVCvCity@@V?$vector@PAVCvCity@@V?$allocator@PAVCvCity@@@std@@@std@@U?$less@PAVCvCity@@@3@V?$allocator@U?$pair@QAVCvCity@@V?$vector@PAVCvCity@@V?$allocator@PAVCvCity@@@std@@@std@@@std@@@3@$0A@@std@@@2@XZ PROC ; std::_Tree<std::_Tmap_traits<CvCity *,std::vector<CvCity *,std::allocator<CvCity *> >,std::less<CvCity *>,std::allocator<std::pair<CvCity * const,std::vector<CvCity *,std::allocator<CvCity *> > > >,0> >::_Lmost, COMDAT
; _this$ = ecx

; 1281 : 		return (_Left(_Myhead));

	mov	eax, DWORD PTR [ecx+4]

; 1282 : 		}

	ret	0
?_Lmost@?$_Tree@V?$_Tmap_traits@PAVCvCity@@V?$vector@PAVCvCity@@V?$allocator@PAVCvCity@@@std@@@std@@U?$less@PAVCvCity@@@3@V?$allocator@U?$pair@QAVCvCity@@V?$vector@PAVCvCity@@V?$allocator@PAVCvCity@@@std@@@std@@@std@@@3@$0A@@std@@@std@@IBEAAPAU_Node@?$_Tree_nod@V?$_Tmap_traits@PAVCvCity@@V?$vector@PAVCvCity@@V?$allocator@PAVCvCity@@@std@@@std@@U?$less@PAVCvCity@@@3@V?$allocator@U?$pair@QAVCvCity@@V?$vector@PAVCvCity@@V?$allocator@PAVCvCity@@@std@@@std@@@std@@@3@$0A@@std@@@2@XZ ENDP ; std::_Tree<std::_Tmap_traits<CvCity *,std::vector<CvCity *,std::allocator<CvCity *> >,std::less<CvCity *>,std::allocator<std::pair<CvCity * const,std::vector<CvCity *,std::allocator<CvCity *> > > >,0> >::_Lmost
_TEXT	ENDS
PUBLIC	?_Max@?$_Tree@V?$_Tmap_traits@PAVCvCity@@V?$vector@PAVCvCity@@V?$allocator@PAVCvCity@@@std@@@std@@U?$less@PAVCvCity@@@3@V?$allocator@U?$pair@QAVCvCity@@V?$vector@PAVCvCity@@V?$allocator@PAVCvCity@@@std@@@std@@@std@@@3@$0A@@std@@@std@@KAPAU_Node@?$_Tree_nod@V?$_Tmap_traits@PAVCvCity@@V?$vector@PAVCvCity@@V?$allocator@PAVCvCity@@@std@@@std@@U?$less@PAVCvCity@@@3@V?$allocator@U?$pair@QAVCvCity@@V?$vector@PAVCvCity@@V?$allocator@PAVCvCity@@@std@@@std@@@std@@@3@$0A@@std@@@2@PAU342@@Z ; std::_Tree<std::_Tmap_traits<CvCity *,std::vector<CvCity *,std::allocator<CvCity *> >,std::less<CvCity *>,std::allocator<std::pair<CvCity * const,std::vector<CvCity *,std::allocator<CvCity *> > > >,0> >::_Max
; Function compile flags: /Ogtpy
;	COMDAT ?_Max@?$_Tree@V?$_Tmap_traits@PAVCvCity@@V?$vector@PAVCvCity@@V?$allocator@PAVCvCity@@@std@@@std@@U?$less@PAVCvCity@@@3@V?$allocator@U?$pair@QAVCvCity@@V?$vector@PAVCvCity@@V?$allocator@PAVCvCity@@@std@@@std@@@std@@@3@$0A@@std@@@std@@KAPAU_Node@?$_Tree_nod@V?$_Tmap_traits@PAVCvCity@@V?$vector@PAVCvCity@@V?$allocator@PAVCvCity@@@std@@@std@@U?$less@PAVCvCity@@@3@V?$allocator@U?$pair@QAVCvCity@@V?$vector@PAVCvCity@@V?$allocator@PAVCvCity@@@std@@@std@@@std@@@3@$0A@@std@@@2@PAU342@@Z
_TEXT	SEGMENT
__Pnode$ = 8						; size = 4
?_Max@?$_Tree@V?$_Tmap_traits@PAVCvCity@@V?$vector@PAVCvCity@@V?$allocator@PAVCvCity@@@std@@@std@@U?$less@PAVCvCity@@@3@V?$allocator@U?$pair@QAVCvCity@@V?$vector@PAVCvCity@@V?$allocator@PAVCvCity@@@std@@@std@@@std@@@3@$0A@@std@@@std@@KAPAU_Node@?$_Tree_nod@V?$_Tmap_traits@PAVCvCity@@V?$vector@PAVCvCity@@V?$allocator@PAVCvCity@@@std@@@std@@U?$less@PAVCvCity@@@3@V?$allocator@U?$pair@QAVCvCity@@V?$vector@PAVCvCity@@V?$allocator@PAVCvCity@@@std@@@std@@@std@@@3@$0A@@std@@@2@PAU342@@Z PROC ; std::_Tree<std::_Tmap_traits<CvCity *,std::vector<CvCity *,std::allocator<CvCity *> >,std::less<CvCity *>,std::allocator<std::pair<CvCity * const,std::vector<CvCity *,std::allocator<CvCity *> > > >,0> >::_Max, COMDAT

; 1306 : 		while (!_Isnil(_Right(_Pnode)))

	mov	eax, DWORD PTR __Pnode$[esp-4]
	mov	ecx, DWORD PTR [eax+8]
	cmp	BYTE PTR [ecx+33], 0
	jne	SHORT $LN1@Max
	npad	3
$LL2@Max:

; 1307 : 			_Pnode = _Right(_Pnode);

	mov	eax, ecx
	mov	ecx, DWORD PTR [eax+8]
	cmp	BYTE PTR [ecx+33], 0
	je	SHORT $LL2@Max
$LN1@Max:

; 1308 : 		return (_Pnode);
; 1309 : 		}

	ret	0
?_Max@?$_Tree@V?$_Tmap_traits@PAVCvCity@@V?$vector@PAVCvCity@@V?$allocator@PAVCvCity@@@std@@@std@@U?$less@PAVCvCity@@@3@V?$allocator@U?$pair@QAVCvCity@@V?$vector@PAVCvCity@@V?$allocator@PAVCvCity@@@std@@@std@@@std@@@3@$0A@@std@@@std@@KAPAU_Node@?$_Tree_nod@V?$_Tmap_traits@PAVCvCity@@V?$vector@PAVCvCity@@V?$allocator@PAVCvCity@@@std@@@std@@U?$less@PAVCvCity@@@3@V?$allocator@U?$pair@QAVCvCity@@V?$vector@PAVCvCity@@V?$allocator@PAVCvCity@@@std@@@std@@@std@@@3@$0A@@std@@@2@PAU342@@Z ENDP ; std::_Tree<std::_Tmap_traits<CvCity *,std::vector<CvCity *,std::allocator<CvCity *> >,std::less<CvCity *>,std::allocator<std::pair<CvCity * const,std::vector<CvCity *,std::allocator<CvCity *> > > >,0> >::_Max
_TEXT	ENDS
PUBLIC	?_Min@?$_Tree@V?$_Tmap_traits@PAVCvCity@@V?$vector@PAVCvCity@@V?$allocator@PAVCvCity@@@std@@@std@@U?$less@PAVCvCity@@@3@V?$allocator@U?$pair@QAVCvCity@@V?$vector@PAVCvCity@@V?$allocator@PAVCvCity@@@std@@@std@@@std@@@3@$0A@@std@@@std@@KAPAU_Node@?$_Tree_nod@V?$_Tmap_traits@PAVCvCity@@V?$vector@PAVCvCity@@V?$allocator@PAVCvCity@@@std@@@std@@U?$less@PAVCvCity@@@3@V?$allocator@U?$pair@QAVCvCity@@V?$vector@PAVCvCity@@V?$allocator@PAVCvCity@@@std@@@std@@@std@@@3@$0A@@std@@@2@PAU342@@Z ; std::_Tree<std::_Tmap_traits<CvCity *,std::vector<CvCity *,std::allocator<CvCity *> >,std::less<CvCity *>,std::allocator<std::pair<CvCity * const,std::vector<CvCity *,std::allocator<CvCity *> > > >,0> >::_Min
; Function compile flags: /Ogtpy
;	COMDAT ?_Min@?$_Tree@V?$_Tmap_traits@PAVCvCity@@V?$vector@PAVCvCity@@V?$allocator@PAVCvCity@@@std@@@std@@U?$less@PAVCvCity@@@3@V?$allocator@U?$pair@QAVCvCity@@V?$vector@PAVCvCity@@V?$allocator@PAVCvCity@@@std@@@std@@@std@@@3@$0A@@std@@@std@@KAPAU_Node@?$_Tree_nod@V?$_Tmap_traits@PAVCvCity@@V?$vector@PAVCvCity@@V?$allocator@PAVCvCity@@@std@@@std@@U?$less@PAVCvCity@@@3@V?$allocator@U?$pair@QAVCvCity@@V?$vector@PAVCvCity@@V?$allocator@PAVCvCity@@@std@@@std@@@std@@@3@$0A@@std@@@2@PAU342@@Z
_TEXT	SEGMENT
__Pnode$ = 8						; size = 4
?_Min@?$_Tree@V?$_Tmap_traits@PAVCvCity@@V?$vector@PAVCvCity@@V?$allocator@PAVCvCity@@@std@@@std@@U?$less@PAVCvCity@@@3@V?$allocator@U?$pair@QAVCvCity@@V?$vector@PAVCvCity@@V?$allocator@PAVCvCity@@@std@@@std@@@std@@@3@$0A@@std@@@std@@KAPAU_Node@?$_Tree_nod@V?$_Tmap_traits@PAVCvCity@@V?$vector@PAVCvCity@@V?$allocator@PAVCvCity@@@std@@@std@@U?$less@PAVCvCity@@@3@V?$allocator@U?$pair@QAVCvCity@@V?$vector@PAVCvCity@@V?$allocator@PAVCvCity@@@std@@@std@@@std@@@3@$0A@@std@@@2@PAU342@@Z PROC ; std::_Tree<std::_Tmap_traits<CvCity *,std::vector<CvCity *,std::allocator<CvCity *> >,std::less<CvCity *>,std::allocator<std::pair<CvCity * const,std::vector<CvCity *,std::allocator<CvCity *> > > >,0> >::_Min, COMDAT

; 1313 : 		while (!_Isnil(_Left(_Pnode)))

	mov	eax, DWORD PTR __Pnode$[esp-4]
	mov	ecx, DWORD PTR [eax]
	cmp	BYTE PTR [ecx+33], 0
	jne	SHORT $LN1@Min
	npad	4
$LL2@Min:

; 1314 : 			_Pnode = _Left(_Pnode);

	mov	eax, ecx
	mov	ecx, DWORD PTR [eax]
	cmp	BYTE PTR [ecx+33], 0
	je	SHORT $LL2@Min
$LN1@Min:

; 1315 : 		return (_Pnode);
; 1316 : 		}

	ret	0
?_Min@?$_Tree@V?$_Tmap_traits@PAVCvCity@@V?$vector@PAVCvCity@@V?$allocator@PAVCvCity@@@std@@@std@@U?$less@PAVCvCity@@@3@V?$allocator@U?$pair@QAVCvCity@@V?$vector@PAVCvCity@@V?$allocator@PAVCvCity@@@std@@@std@@@std@@@3@$0A@@std@@@std@@KAPAU_Node@?$_Tree_nod@V?$_Tmap_traits@PAVCvCity@@V?$vector@PAVCvCity@@V?$allocator@PAVCvCity@@@std@@@std@@U?$less@PAVCvCity@@@3@V?$allocator@U?$pair@QAVCvCity@@V?$vector@PAVCvCity@@V?$allocator@PAVCvCity@@@std@@@std@@@std@@@3@$0A@@std@@@2@PAU342@@Z ENDP ; std::_Tree<std::_Tmap_traits<CvCity *,std::vector<CvCity *,std::allocator<CvCity *> >,std::less<CvCity *>,std::allocator<std::pair<CvCity * const,std::vector<CvCity *,std::allocator<CvCity *> > > >,0> >::_Min
_TEXT	ENDS
PUBLIC	?_Rmost@?$_Tree@V?$_Tmap_traits@PAVCvCity@@V?$vector@PAVCvCity@@V?$allocator@PAVCvCity@@@std@@@std@@U?$less@PAVCvCity@@@3@V?$allocator@U?$pair@QAVCvCity@@V?$vector@PAVCvCity@@V?$allocator@PAVCvCity@@@std@@@std@@@std@@@3@$0A@@std@@@std@@IBEAAPAU_Node@?$_Tree_nod@V?$_Tmap_traits@PAVCvCity@@V?$vector@PAVCvCity@@V?$allocator@PAVCvCity@@@std@@@std@@U?$less@PAVCvCity@@@3@V?$allocator@U?$pair@QAVCvCity@@V?$vector@PAVCvCity@@V?$allocator@PAVCvCity@@@std@@@std@@@std@@@3@$0A@@std@@@2@XZ ; std::_Tree<std::_Tmap_traits<CvCity *,std::vector<CvCity *,std::allocator<CvCity *> >,std::less<CvCity *>,std::allocator<std::pair<CvCity * const,std::vector<CvCity *,std::allocator<CvCity *> > > >,0> >::_Rmost
; Function compile flags: /Ogtpy
;	COMDAT ?_Rmost@?$_Tree@V?$_Tmap_traits@PAVCvCity@@V?$vector@PAVCvCity@@V?$allocator@PAVCvCity@@@std@@@std@@U?$less@PAVCvCity@@@3@V?$allocator@U?$pair@QAVCvCity@@V?$vector@PAVCvCity@@V?$allocator@PAVCvCity@@@std@@@std@@@std@@@3@$0A@@std@@@std@@IBEAAPAU_Node@?$_Tree_nod@V?$_Tmap_traits@PAVCvCity@@V?$vector@PAVCvCity@@V?$allocator@PAVCvCity@@@std@@@std@@U?$less@PAVCvCity@@@3@V?$allocator@U?$pair@QAVCvCity@@V?$vector@PAVCvCity@@V?$allocator@PAVCvCity@@@std@@@std@@@std@@@3@$0A@@std@@@2@XZ
_TEXT	SEGMENT
?_Rmost@?$_Tree@V?$_Tmap_traits@PAVCvCity@@V?$vector@PAVCvCity@@V?$allocator@PAVCvCity@@@std@@@std@@U?$less@PAVCvCity@@@3@V?$allocator@U?$pair@QAVCvCity@@V?$vector@PAVCvCity@@V?$allocator@PAVCvCity@@@std@@@std@@@std@@@3@$0A@@std@@@std@@IBEAAPAU_Node@?$_Tree_nod@V?$_Tmap_traits@PAVCvCity@@V?$vector@PAVCvCity@@V?$allocator@PAVCvCity@@@std@@@std@@U?$less@PAVCvCity@@@3@V?$allocator@U?$pair@QAVCvCity@@V?$vector@PAVCvCity@@V?$allocator@PAVCvCity@@@std@@@std@@@std@@@3@$0A@@std@@@2@XZ PROC ; std::_Tree<std::_Tmap_traits<CvCity *,std::vector<CvCity *,std::allocator<CvCity *> >,std::less<CvCity *>,std::allocator<std::pair<CvCity * const,std::vector<CvCity *,std::allocator<CvCity *> > > >,0> >::_Rmost, COMDAT
; _this$ = ecx

; 1320 : 		return (_Right(_Myhead));

	mov	eax, DWORD PTR [ecx+4]
	add	eax, 8

; 1321 : 		}

	ret	0
?_Rmost@?$_Tree@V?$_Tmap_traits@PAVCvCity@@V?$vector@PAVCvCity@@V?$allocator@PAVCvCity@@@std@@@std@@U?$less@PAVCvCity@@@3@V?$allocator@U?$pair@QAVCvCity@@V?$vector@PAVCvCity@@V?$allocator@PAVCvCity@@@std@@@std@@@std@@@3@$0A@@std@@@std@@IBEAAPAU_Node@?$_Tree_nod@V?$_Tmap_traits@PAVCvCity@@V?$vector@PAVCvCity@@V?$allocator@PAVCvCity@@@std@@@std@@U?$less@PAVCvCity@@@3@V?$allocator@U?$pair@QAVCvCity@@V?$vector@PAVCvCity@@V?$allocator@PAVCvCity@@@std@@@std@@@std@@@3@$0A@@std@@@2@XZ ENDP ; std::_Tree<std::_Tmap_traits<CvCity *,std::vector<CvCity *,std::allocator<CvCity *> >,std::less<CvCity *>,std::allocator<std::pair<CvCity * const,std::vector<CvCity *,std::allocator<CvCity *> > > >,0> >::_Rmost
_TEXT	ENDS
PUBLIC	?_Root@?$_Tree@V?$_Tmap_traits@PAVCvCity@@V?$vector@PAVCvCity@@V?$allocator@PAVCvCity@@@std@@@std@@U?$less@PAVCvCity@@@3@V?$allocator@U?$pair@QAVCvCity@@V?$vector@PAVCvCity@@V?$allocator@PAVCvCity@@@std@@@std@@@std@@@3@$0A@@std@@@std@@IBEAAPAU_Node@?$_Tree_nod@V?$_Tmap_traits@PAVCvCity@@V?$vector@PAVCvCity@@V?$allocator@PAVCvCity@@@std@@@std@@U?$less@PAVCvCity@@@3@V?$allocator@U?$pair@QAVCvCity@@V?$vector@PAVCvCity@@V?$allocator@PAVCvCity@@@std@@@std@@@std@@@3@$0A@@std@@@2@XZ ; std::_Tree<std::_Tmap_traits<CvCity *,std::vector<CvCity *,std::allocator<CvCity *> >,std::less<CvCity *>,std::allocator<std::pair<CvCity * const,std::vector<CvCity *,std::allocator<CvCity *> > > >,0> >::_Root
; Function compile flags: /Ogtpy
;	COMDAT ?_Root@?$_Tree@V?$_Tmap_traits@PAVCvCity@@V?$vector@PAVCvCity@@V?$allocator@PAVCvCity@@@std@@@std@@U?$less@PAVCvCity@@@3@V?$allocator@U?$pair@QAVCvCity@@V?$vector@PAVCvCity@@V?$allocator@PAVCvCity@@@std@@@std@@@std@@@3@$0A@@std@@@std@@IBEAAPAU_Node@?$_Tree_nod@V?$_Tmap_traits@PAVCvCity@@V?$vector@PAVCvCity@@V?$allocator@PAVCvCity@@@std@@@std@@U?$less@PAVCvCity@@@3@V?$allocator@U?$pair@QAVCvCity@@V?$vector@PAVCvCity@@V?$allocator@PAVCvCity@@@std@@@std@@@std@@@3@$0A@@std@@@2@XZ
_TEXT	SEGMENT
?_Root@?$_Tree@V?$_Tmap_traits@PAVCvCity@@V?$vector@PAVCvCity@@V?$allocator@PAVCvCity@@@std@@@std@@U?$less@PAVCvCity@@@3@V?$allocator@U?$pair@QAVCvCity@@V?$vector@PAVCvCity@@V?$allocator@PAVCvCity@@@std@@@std@@@std@@@3@$0A@@std@@@std@@IBEAAPAU_Node@?$_Tree_nod@V?$_Tmap_traits@PAVCvCity@@V?$vector@PAVCvCity@@V?$allocator@PAVCvCity@@@std@@@std@@U?$less@PAVCvCity@@@3@V?$allocator@U?$pair@QAVCvCity@@V?$vector@PAVCvCity@@V?$allocator@PAVCvCity@@@std@@@std@@@std@@@3@$0A@@std@@@2@XZ PROC ; std::_Tree<std::_Tmap_traits<CvCity *,std::vector<CvCity *,std::allocator<CvCity *> >,std::less<CvCity *>,std::allocator<std::pair<CvCity * const,std::vector<CvCity *,std::allocator<CvCity *> > > >,0> >::_Root, COMDAT
; _this$ = ecx

; 1325 : 		return (_Parent(_Myhead));

	mov	eax, DWORD PTR [ecx+4]
	add	eax, 4

; 1326 : 		}

	ret	0
?_Root@?$_Tree@V?$_Tmap_traits@PAVCvCity@@V?$vector@PAVCvCity@@V?$allocator@PAVCvCity@@@std@@@std@@U?$less@PAVCvCity@@@3@V?$allocator@U?$pair@QAVCvCity@@V?$vector@PAVCvCity@@V?$allocator@PAVCvCity@@@std@@@std@@@std@@@3@$0A@@std@@@std@@IBEAAPAU_Node@?$_Tree_nod@V?$_Tmap_traits@PAVCvCity@@V?$vector@PAVCvCity@@V?$allocator@PAVCvCity@@@std@@@std@@U?$less@PAVCvCity@@@3@V?$allocator@U?$pair@QAVCvCity@@V?$vector@PAVCvCity@@V?$allocator@PAVCvCity@@@std@@@std@@@std@@@3@$0A@@std@@@2@XZ ENDP ; std::_Tree<std::_Tmap_traits<CvCity *,std::vector<CvCity *,std::allocator<CvCity *> >,std::less<CvCity *>,std::allocator<std::pair<CvCity * const,std::vector<CvCity *,std::allocator<CvCity *> > > >,0> >::_Root
_TEXT	ENDS
PUBLIC	?_Rrotate@?$_Tree@V?$_Tmap_traits@PAVCvCity@@V?$vector@PAVCvCity@@V?$allocator@PAVCvCity@@@std@@@std@@U?$less@PAVCvCity@@@3@V?$allocator@U?$pair@QAVCvCity@@V?$vector@PAVCvCity@@V?$allocator@PAVCvCity@@@std@@@std@@@std@@@3@$0A@@std@@@std@@IAEXPAU_Node@?$_Tree_nod@V?$_Tmap_traits@PAVCvCity@@V?$vector@PAVCvCity@@V?$allocator@PAVCvCity@@@std@@@std@@U?$less@PAVCvCity@@@3@V?$allocator@U?$pair@QAVCvCity@@V?$vector@PAVCvCity@@V?$allocator@PAVCvCity@@@std@@@std@@@std@@@3@$0A@@std@@@2@@Z ; std::_Tree<std::_Tmap_traits<CvCity *,std::vector<CvCity *,std::allocator<CvCity *> >,std::less<CvCity *>,std::allocator<std::pair<CvCity * const,std::vector<CvCity *,std::allocator<CvCity *> > > >,0> >::_Rrotate
; Function compile flags: /Ogtpy
;	COMDAT ?_Rrotate@?$_Tree@V?$_Tmap_traits@PAVCvCity@@V?$vector@PAVCvCity@@V?$allocator@PAVCvCity@@@std@@@std@@U?$less@PAVCvCity@@@3@V?$allocator@U?$pair@QAVCvCity@@V?$vector@PAVCvCity@@V?$allocator@PAVCvCity@@@std@@@std@@@std@@@3@$0A@@std@@@std@@IAEXPAU_Node@?$_Tree_nod@V?$_Tmap_traits@PAVCvCity@@V?$vector@PAVCvCity@@V?$allocator@PAVCvCity@@@std@@@std@@U?$less@PAVCvCity@@@3@V?$allocator@U?$pair@QAVCvCity@@V?$vector@PAVCvCity@@V?$allocator@PAVCvCity@@@std@@@std@@@std@@@3@$0A@@std@@@2@@Z
_TEXT	SEGMENT
__Wherenode$ = 8					; size = 4
?_Rrotate@?$_Tree@V?$_Tmap_traits@PAVCvCity@@V?$vector@PAVCvCity@@V?$allocator@PAVCvCity@@@std@@@std@@U?$less@PAVCvCity@@@3@V?$allocator@U?$pair@QAVCvCity@@V?$vector@PAVCvCity@@V?$allocator@PAVCvCity@@@std@@@std@@@std@@@3@$0A@@std@@@std@@IAEXPAU_Node@?$_Tree_nod@V?$_Tmap_traits@PAVCvCity@@V?$vector@PAVCvCity@@V?$allocator@PAVCvCity@@@std@@@std@@U?$less@PAVCvCity@@@3@V?$allocator@U?$pair@QAVCvCity@@V?$vector@PAVCvCity@@V?$allocator@PAVCvCity@@@std@@@std@@@std@@@3@$0A@@std@@@2@@Z PROC ; std::_Tree<std::_Tmap_traits<CvCity *,std::vector<CvCity *,std::allocator<CvCity *> >,std::less<CvCity *>,std::allocator<std::pair<CvCity * const,std::vector<CvCity *,std::allocator<CvCity *> > > >,0> >::_Rrotate, COMDAT
; _this$ = ecx

; 1330 : 		_Nodeptr _Pnode = _Left(_Wherenode);

	mov	edx, DWORD PTR __Wherenode$[esp-4]
	mov	eax, DWORD PTR [edx]
	push	esi

; 1331 : 		_Left(_Wherenode) = _Right(_Pnode);

	mov	esi, DWORD PTR [eax+8]
	mov	DWORD PTR [edx], esi

; 1332 : 
; 1333 : 		if (!_Isnil(_Right(_Pnode)))

	mov	esi, DWORD PTR [eax+8]
	cmp	BYTE PTR [esi+33], 0
	jne	SHORT $LN5@Rrotate

; 1334 : 			_Parent(_Right(_Pnode)) = _Wherenode;

	mov	DWORD PTR [esi+4], edx
$LN5@Rrotate:

; 1335 : 		_Parent(_Pnode) = _Parent(_Wherenode);

	mov	esi, DWORD PTR [edx+4]
	mov	DWORD PTR [eax+4], esi

; 1336 : 
; 1337 : 		if (_Wherenode == _Root())

	mov	ecx, DWORD PTR [ecx+4]
	pop	esi
	cmp	edx, DWORD PTR [ecx+4]
	jne	SHORT $LN4@Rrotate

; 1338 : 			_Root() = _Pnode;

	mov	DWORD PTR [ecx+4], eax

; 1343 : 
; 1344 : 		_Right(_Pnode) = _Wherenode;

	mov	DWORD PTR [eax+8], edx

; 1345 : 		_Parent(_Wherenode) = _Pnode;

	mov	DWORD PTR [edx+4], eax

; 1346 : 		}

	ret	4
$LN4@Rrotate:

; 1339 : 		else if (_Wherenode == _Right(_Parent(_Wherenode)))

	mov	ecx, DWORD PTR [edx+4]
	cmp	edx, DWORD PTR [ecx+8]
	jne	SHORT $LN2@Rrotate

; 1340 : 			_Right(_Parent(_Wherenode)) = _Pnode;

	mov	DWORD PTR [ecx+8], eax

; 1343 : 
; 1344 : 		_Right(_Pnode) = _Wherenode;

	mov	DWORD PTR [eax+8], edx

; 1345 : 		_Parent(_Wherenode) = _Pnode;

	mov	DWORD PTR [edx+4], eax

; 1346 : 		}

	ret	4
$LN2@Rrotate:

; 1341 : 		else
; 1342 : 			_Left(_Parent(_Wherenode)) = _Pnode;

	mov	DWORD PTR [ecx], eax

; 1343 : 
; 1344 : 		_Right(_Pnode) = _Wherenode;

	mov	DWORD PTR [eax+8], edx

; 1345 : 		_Parent(_Wherenode) = _Pnode;

	mov	DWORD PTR [edx+4], eax

; 1346 : 		}

	ret	4
?_Rrotate@?$_Tree@V?$_Tmap_traits@PAVCvCity@@V?$vector@PAVCvCity@@V?$allocator@PAVCvCity@@@std@@@std@@U?$less@PAVCvCity@@@3@V?$allocator@U?$pair@QAVCvCity@@V?$vector@PAVCvCity@@V?$allocator@PAVCvCity@@@std@@@std@@@std@@@3@$0A@@std@@@std@@IAEXPAU_Node@?$_Tree_nod@V?$_Tmap_traits@PAVCvCity@@V?$vector@PAVCvCity@@V?$allocator@PAVCvCity@@@std@@@std@@U?$less@PAVCvCity@@@3@V?$allocator@U?$pair@QAVCvCity@@V?$vector@PAVCvCity@@V?$allocator@PAVCvCity@@@std@@@std@@@std@@@3@$0A@@std@@@2@@Z ENDP ; std::_Tree<std::_Tmap_traits<CvCity *,std::vector<CvCity *,std::allocator<CvCity *> >,std::less<CvCity *>,std::allocator<std::pair<CvCity * const,std::vector<CvCity *,std::allocator<CvCity *> > > >,0> >::_Rrotate
_TEXT	ENDS
PUBLIC	?_Kfn@?$_Tmap_traits@PAVCvCity@@V?$vector@PAVCvCity@@V?$allocator@PAVCvCity@@@std@@@std@@U?$less@PAVCvCity@@@3@V?$allocator@U?$pair@QAVCvCity@@V?$vector@PAVCvCity@@V?$allocator@PAVCvCity@@@std@@@std@@@std@@@3@$0A@@std@@SAABQAVCvCity@@ABU?$pair@QAVCvCity@@V?$vector@PAVCvCity@@V?$allocator@PAVCvCity@@@std@@@std@@@2@@Z ; std::_Tmap_traits<CvCity *,std::vector<CvCity *,std::allocator<CvCity *> >,std::less<CvCity *>,std::allocator<std::pair<CvCity * const,std::vector<CvCity *,std::allocator<CvCity *> > > >,0>::_Kfn
; Function compile flags: /Ogtpy
; File c:\program files (x86)\microsoft visual studio 9.0\vc\include\map
;	COMDAT ?_Kfn@?$_Tmap_traits@PAVCvCity@@V?$vector@PAVCvCity@@V?$allocator@PAVCvCity@@@std@@@std@@U?$less@PAVCvCity@@@3@V?$allocator@U?$pair@QAVCvCity@@V?$vector@PAVCvCity@@V?$allocator@PAVCvCity@@@std@@@std@@@std@@@3@$0A@@std@@SAABQAVCvCity@@ABU?$pair@QAVCvCity@@V?$vector@PAVCvCity@@V?$allocator@PAVCvCity@@@std@@@std@@@2@@Z
_TEXT	SEGMENT
__Val$ = 8						; size = 4
?_Kfn@?$_Tmap_traits@PAVCvCity@@V?$vector@PAVCvCity@@V?$allocator@PAVCvCity@@@std@@@std@@U?$less@PAVCvCity@@@3@V?$allocator@U?$pair@QAVCvCity@@V?$vector@PAVCvCity@@V?$allocator@PAVCvCity@@@std@@@std@@@std@@@3@$0A@@std@@SAABQAVCvCity@@ABU?$pair@QAVCvCity@@V?$vector@PAVCvCity@@V?$allocator@PAVCvCity@@@std@@@std@@@2@@Z PROC ; std::_Tmap_traits<CvCity *,std::vector<CvCity *,std::allocator<CvCity *> >,std::less<CvCity *>,std::allocator<std::pair<CvCity * const,std::vector<CvCity *,std::allocator<CvCity *> > > >,0>::_Kfn, COMDAT

; 65   : 		return (_Val.first);

	mov	eax, DWORD PTR __Val$[esp-4]

; 66   : 		}

	ret	0
?_Kfn@?$_Tmap_traits@PAVCvCity@@V?$vector@PAVCvCity@@V?$allocator@PAVCvCity@@@std@@@std@@U?$less@PAVCvCity@@@3@V?$allocator@U?$pair@QAVCvCity@@V?$vector@PAVCvCity@@V?$allocator@PAVCvCity@@@std@@@std@@@std@@@3@$0A@@std@@SAABQAVCvCity@@ABU?$pair@QAVCvCity@@V?$vector@PAVCvCity@@V?$allocator@PAVCvCity@@@std@@@std@@@2@@Z ENDP ; std::_Tmap_traits<CvCity *,std::vector<CvCity *,std::allocator<CvCity *> >,std::less<CvCity *>,std::allocator<std::pair<CvCity * const,std::vector<CvCity *,std::allocator<CvCity *> > > >,0>::_Kfn
_TEXT	ENDS
PUBLIC	??1?$_Container_base_aux_alloc_empty@V?$allocator@U?$pair@QAVCvCity@@V?$vector@PAVCvCity@@V?$allocator@PAVCvCity@@@std@@@std@@@std@@@std@@@std@@IAE@XZ ; std::_Container_base_aux_alloc_empty<std::allocator<std::pair<CvCity * const,std::vector<CvCity *,std::allocator<CvCity *> > > > >::~_Container_base_aux_alloc_empty<std::allocator<std::pair<CvCity * const,std::vector<CvCity *,std::allocator<CvCity *> > > > >
; Function compile flags: /Ogtpy
; File c:\program files (x86)\microsoft visual studio 9.0\vc\include\xutility
;	COMDAT ??1?$_Container_base_aux_alloc_empty@V?$allocator@U?$pair@QAVCvCity@@V?$vector@PAVCvCity@@V?$allocator@PAVCvCity@@@std@@@std@@@std@@@std@@@std@@IAE@XZ
_TEXT	SEGMENT
??1?$_Container_base_aux_alloc_empty@V?$allocator@U?$pair@QAVCvCity@@V?$vector@PAVCvCity@@V?$allocator@PAVCvCity@@@std@@@std@@@std@@@std@@@std@@IAE@XZ PROC ; std::_Container_base_aux_alloc_empty<std::allocator<std::pair<CvCity * const,std::vector<CvCity *,std::allocator<CvCity *> > > > >::~_Container_base_aux_alloc_empty<std::allocator<std::pair<CvCity * const,std::vector<CvCity *,std::allocator<CvCity *> > > > >, COMDAT
; _this$ = ecx

; 627  : 	~_Container_base_aux_alloc_empty() { }

	ret	0
??1?$_Container_base_aux_alloc_empty@V?$allocator@U?$pair@QAVCvCity@@V?$vector@PAVCvCity@@V?$allocator@PAVCvCity@@@std@@@std@@@std@@@std@@@std@@IAE@XZ ENDP ; std::_Container_base_aux_alloc_empty<std::allocator<std::pair<CvCity * const,std::vector<CvCity *,std::allocator<CvCity *> > > > >::~_Container_base_aux_alloc_empty<std::allocator<std::pair<CvCity * const,std::vector<CvCity *,std::allocator<CvCity *> > > > >
_TEXT	ENDS
PUBLIC	??0?$allocator@U?$pair@QAVCvCity@@V?$vector@PAVCvCity@@V?$allocator@PAVCvCity@@@std@@@std@@@std@@@std@@QAE@XZ ; std::allocator<std::pair<CvCity * const,std::vector<CvCity *,std::allocator<CvCity *> > > >::allocator<std::pair<CvCity * const,std::vector<CvCity *,std::allocator<CvCity *> > > >
; Function compile flags: /Ogtpy
; File c:\program files (x86)\microsoft visual studio 9.0\vc\include\xmemory
;	COMDAT ??0?$allocator@U?$pair@QAVCvCity@@V?$vector@PAVCvCity@@V?$allocator@PAVCvCity@@@std@@@std@@@std@@@std@@QAE@XZ
_TEXT	SEGMENT
??0?$allocator@U?$pair@QAVCvCity@@V?$vector@PAVCvCity@@V?$allocator@PAVCvCity@@@std@@@std@@@std@@@std@@QAE@XZ PROC ; std::allocator<std::pair<CvCity * const,std::vector<CvCity *,std::allocator<CvCity *> > > >::allocator<std::pair<CvCity * const,std::vector<CvCity *,std::allocator<CvCity *> > > >, COMDAT
; _this$ = ecx

; 119  : 	allocator() _THROW0()

	mov	eax, ecx

; 120  : 		{	// construct default allocator (do nothing)
; 121  : 		}

	ret	0
??0?$allocator@U?$pair@QAVCvCity@@V?$vector@PAVCvCity@@V?$allocator@PAVCvCity@@@std@@@std@@@std@@@std@@QAE@XZ ENDP ; std::allocator<std::pair<CvCity * const,std::vector<CvCity *,std::allocator<CvCity *> > > >::allocator<std::pair<CvCity * const,std::vector<CvCity *,std::allocator<CvCity *> > > >
_TEXT	ENDS
PUBLIC	??R?$less@PAVCvCity@@@std@@QBE_NABQAVCvCity@@0@Z ; std::less<CvCity *>::operator()
; Function compile flags: /Ogtpy
; File c:\program files (x86)\microsoft visual studio 9.0\vc\include\functional
;	COMDAT ??R?$less@PAVCvCity@@@std@@QBE_NABQAVCvCity@@0@Z
_TEXT	SEGMENT
__Left$ = 8						; size = 4
__Right$ = 12						; size = 4
??R?$less@PAVCvCity@@@std@@QBE_NABQAVCvCity@@0@Z PROC	; std::less<CvCity *>::operator(), COMDAT
; _this$ = ecx

; 143  : 		return (_Left < _Right);

	mov	eax, DWORD PTR __Left$[esp-4]
	mov	ecx, DWORD PTR [eax]
	mov	edx, DWORD PTR __Right$[esp-4]
	cmp	ecx, DWORD PTR [edx]
	sbb	eax, eax
	neg	eax

; 144  : 		}

	ret	8
??R?$less@PAVCvCity@@@std@@QBE_NABQAVCvCity@@0@Z ENDP	; std::less<CvCity *>::operator()
_TEXT	ENDS
PUBLIC	?deallocate@?$allocator@U_Node@?$_Tree_nod@V?$_Tmap_traits@PAVCvCity@@V?$vector@PAVCvCity@@V?$allocator@PAVCvCity@@@std@@@std@@U?$less@PAVCvCity@@@3@V?$allocator@U?$pair@QAVCvCity@@V?$vector@PAVCvCity@@V?$allocator@PAVCvCity@@@std@@@std@@@std@@@3@$0A@@std@@@std@@@std@@QAEXPAU_Node@?$_Tree_nod@V?$_Tmap_traits@PAVCvCity@@V?$vector@PAVCvCity@@V?$allocator@PAVCvCity@@@std@@@std@@U?$less@PAVCvCity@@@3@V?$allocator@U?$pair@QAVCvCity@@V?$vector@PAVCvCity@@V?$allocator@PAVCvCity@@@std@@@std@@@std@@@3@$0A@@std@@@2@I@Z ; std::allocator<std::_Tree_nod<std::_Tmap_traits<CvCity *,std::vector<CvCity *,std::allocator<CvCity *> >,std::less<CvCity *>,std::allocator<std::pair<CvCity * const,std::vector<CvCity *,std::allocator<CvCity *> > > >,0> >::_Node>::deallocate
; Function compile flags: /Ogtpy
; File c:\program files (x86)\microsoft visual studio 9.0\vc\include\xmemory
;	COMDAT ?deallocate@?$allocator@U_Node@?$_Tree_nod@V?$_Tmap_traits@PAVCvCity@@V?$vector@PAVCvCity@@V?$allocator@PAVCvCity@@@std@@@std@@U?$less@PAVCvCity@@@3@V?$allocator@U?$pair@QAVCvCity@@V?$vector@PAVCvCity@@V?$allocator@PAVCvCity@@@std@@@std@@@std@@@3@$0A@@std@@@std@@@std@@QAEXPAU_Node@?$_Tree_nod@V?$_Tmap_traits@PAVCvCity@@V?$vector@PAVCvCity@@V?$allocator@PAVCvCity@@@std@@@std@@U?$less@PAVCvCity@@@3@V?$allocator@U?$pair@QAVCvCity@@V?$vector@PAVCvCity@@V?$allocator@PAVCvCity@@@std@@@std@@@std@@@3@$0A@@std@@@2@I@Z
_TEXT	SEGMENT
__Ptr$ = 8						; size = 4
___formal$ = 12						; size = 4
?deallocate@?$allocator@U_Node@?$_Tree_nod@V?$_Tmap_traits@PAVCvCity@@V?$vector@PAVCvCity@@V?$allocator@PAVCvCity@@@std@@@std@@U?$less@PAVCvCity@@@3@V?$allocator@U?$pair@QAVCvCity@@V?$vector@PAVCvCity@@V?$allocator@PAVCvCity@@@std@@@std@@@std@@@3@$0A@@std@@@std@@@std@@QAEXPAU_Node@?$_Tree_nod@V?$_Tmap_traits@PAVCvCity@@V?$vector@PAVCvCity@@V?$allocator@PAVCvCity@@@std@@@std@@U?$less@PAVCvCity@@@3@V?$allocator@U?$pair@QAVCvCity@@V?$vector@PAVCvCity@@V?$allocator@PAVCvCity@@@std@@@std@@@std@@@3@$0A@@std@@@2@I@Z PROC ; std::allocator<std::_Tree_nod<std::_Tmap_traits<CvCity *,std::vector<CvCity *,std::allocator<CvCity *> >,std::less<CvCity *>,std::allocator<std::pair<CvCity * const,std::vector<CvCity *,std::allocator<CvCity *> > > >,0> >::_Node>::deallocate, COMDAT
; _this$ = ecx

; 140  : 		::operator delete(_Ptr);

	mov	eax, DWORD PTR __Ptr$[esp-4]
	push	eax
	call	??3@YAXPAX@Z				; operator delete
	pop	ecx

; 141  : 		}

	ret	8
?deallocate@?$allocator@U_Node@?$_Tree_nod@V?$_Tmap_traits@PAVCvCity@@V?$vector@PAVCvCity@@V?$allocator@PAVCvCity@@@std@@@std@@U?$less@PAVCvCity@@@3@V?$allocator@U?$pair@QAVCvCity@@V?$vector@PAVCvCity@@V?$allocator@PAVCvCity@@@std@@@std@@@std@@@3@$0A@@std@@@std@@@std@@QAEXPAU_Node@?$_Tree_nod@V?$_Tmap_traits@PAVCvCity@@V?$vector@PAVCvCity@@V?$allocator@PAVCvCity@@@std@@@std@@U?$less@PAVCvCity@@@3@V?$allocator@U?$pair@QAVCvCity@@V?$vector@PAVCvCity@@V?$allocator@PAVCvCity@@@std@@@std@@@std@@@3@$0A@@std@@@2@I@Z ENDP ; std::allocator<std::_Tree_nod<std::_Tmap_traits<CvCity *,std::vector<CvCity *,std::allocator<CvCity *> >,std::less<CvCity *>,std::allocator<std::pair<CvCity * const,std::vector<CvCity *,std::allocator<CvCity *> > > >,0> >::_Node>::deallocate
_TEXT	ENDS
PUBLIC	??0?$allocator@PAVCvCity@@@std@@QAE@XZ		; std::allocator<CvCity *>::allocator<CvCity *>
; Function compile flags: /Ogtpy
;	COMDAT ??0?$allocator@PAVCvCity@@@std@@QAE@XZ
_TEXT	SEGMENT
??0?$allocator@PAVCvCity@@@std@@QAE@XZ PROC		; std::allocator<CvCity *>::allocator<CvCity *>, COMDAT
; _this$ = ecx

; 119  : 	allocator() _THROW0()

	mov	eax, ecx

; 120  : 		{	// construct default allocator (do nothing)
; 121  : 		}

	ret	0
??0?$allocator@PAVCvCity@@@std@@QAE@XZ ENDP		; std::allocator<CvCity *>::allocator<CvCity *>
_TEXT	ENDS
PUBLIC	?deallocate@?$allocator@PAVCvCity@@@std@@QAEXPAPAVCvCity@@I@Z ; std::allocator<CvCity *>::deallocate
; Function compile flags: /Ogtpy
;	COMDAT ?deallocate@?$allocator@PAVCvCity@@@std@@QAEXPAPAVCvCity@@I@Z
_TEXT	SEGMENT
__Ptr$ = 8						; size = 4
___formal$ = 12						; size = 4
?deallocate@?$allocator@PAVCvCity@@@std@@QAEXPAPAVCvCity@@I@Z PROC ; std::allocator<CvCity *>::deallocate, COMDAT
; _this$ = ecx

; 140  : 		::operator delete(_Ptr);

	mov	eax, DWORD PTR __Ptr$[esp-4]
	push	eax
	call	??3@YAXPAX@Z				; operator delete
	pop	ecx

; 141  : 		}

	ret	8
?deallocate@?$allocator@PAVCvCity@@@std@@QAEXPAPAVCvCity@@I@Z ENDP ; std::allocator<CvCity *>::deallocate
_TEXT	ENDS
PUBLIC	?capacity@?$vector@PAVCvCity@@V?$allocator@PAVCvCity@@@std@@@std@@QBEIXZ ; std::vector<CvCity *,std::allocator<CvCity *> >::capacity
; Function compile flags: /Ogtpy
; File c:\program files (x86)\microsoft visual studio 9.0\vc\include\vector
;	COMDAT ?capacity@?$vector@PAVCvCity@@V?$allocator@PAVCvCity@@@std@@@std@@QBEIXZ
_TEXT	SEGMENT
?capacity@?$vector@PAVCvCity@@V?$allocator@PAVCvCity@@@std@@@std@@QBEIXZ PROC ; std::vector<CvCity *,std::allocator<CvCity *> >::capacity, COMDAT
; _this$ = ecx

; 635  : 		return (_Myfirst == 0 ? 0 : _Myend - _Myfirst);

	mov	edx, DWORD PTR [ecx+4]
	test	edx, edx
	jne	SHORT $LN3@capacity
	xor	eax, eax

; 636  : 		}

	ret	0
$LN3@capacity:

; 635  : 		return (_Myfirst == 0 ? 0 : _Myend - _Myfirst);

	mov	eax, DWORD PTR [ecx+12]
	sub	eax, edx
	sar	eax, 2

; 636  : 		}

	ret	0
?capacity@?$vector@PAVCvCity@@V?$allocator@PAVCvCity@@@std@@@std@@QBEIXZ ENDP ; std::vector<CvCity *,std::allocator<CvCity *> >::capacity
_TEXT	ENDS
PUBLIC	__TI3?AVlength_error@std@@
PUBLIC	??_C@_0BD@OLBABOEK@vector?$DMT?$DO?5too?5long?$AA@ ; `string'
PUBLIC	?_Xlen@?$vector@PAVCvCity@@V?$allocator@PAVCvCity@@@std@@@std@@KAXXZ ; std::vector<CvCity *,std::allocator<CvCity *> >::_Xlen
PUBLIC	__CTA3?AVlength_error@std@@
PUBLIC	__CT??_R0?AVlength_error@std@@@8??0length_error@std@@QAE@ABV01@@Z40
PUBLIC	??0length_error@std@@QAE@ABV01@@Z		; std::length_error::length_error
PUBLIC	__CT??_R0?AVlogic_error@std@@@8??0logic_error@std@@QAE@ABV01@@Z40
PUBLIC	??0logic_error@std@@QAE@ABV01@@Z		; std::logic_error::logic_error
PUBLIC	__CT??_R0?AVexception@std@@@8??0exception@std@@QAE@ABV01@@Z12
EXTRN	__imp_??0?$basic_string@DU?$char_traits@D@std@@V?$allocator@D@2@@std@@QAE@PBD@Z:PROC
EXTRN	__CxxThrowException@8:PROC
EXTRN	??0exception@std@@QAE@ABV01@@Z:PROC		; std::exception::exception
;	COMDAT __CT??_R0?AVexception@std@@@8??0exception@std@@QAE@ABV01@@Z12
; File c:\program files (x86)\microsoft visual studio 9.0\vc\include\stdexcept
xdata$x	SEGMENT
__CT??_R0?AVexception@std@@@8??0exception@std@@QAE@ABV01@@Z12 DD 00H
	DD	FLAT:??_R0?AVexception@std@@@8
	DD	00H
	DD	0ffffffffH
	ORG $+4
	DD	0cH
	DD	FLAT:??0exception@std@@QAE@ABV01@@Z
xdata$x	ENDS
;	COMDAT __CT??_R0?AVlogic_error@std@@@8??0logic_error@std@@QAE@ABV01@@Z40
xdata$x	SEGMENT
__CT??_R0?AVlogic_error@std@@@8??0logic_error@std@@QAE@ABV01@@Z40 DD 00H
	DD	FLAT:??_R0?AVlogic_error@std@@@8
	DD	00H
	DD	0ffffffffH
	ORG $+4
	DD	028H
	DD	FLAT:??0logic_error@std@@QAE@ABV01@@Z
xdata$x	ENDS
;	COMDAT __CT??_R0?AVlength_error@std@@@8??0length_error@std@@QAE@ABV01@@Z40
xdata$x	SEGMENT
__CT??_R0?AVlength_error@std@@@8??0length_error@std@@QAE@ABV01@@Z40 DD 00H
	DD	FLAT:??_R0?AVlength_error@std@@@8
	DD	00H
	DD	0ffffffffH
	ORG $+4
	DD	028H
	DD	FLAT:??0length_error@std@@QAE@ABV01@@Z
xdata$x	ENDS
;	COMDAT __CTA3?AVlength_error@std@@
xdata$x	SEGMENT
__CTA3?AVlength_error@std@@ DD 03H
	DD	FLAT:__CT??_R0?AVlength_error@std@@@8??0length_error@std@@QAE@ABV01@@Z40
	DD	FLAT:__CT??_R0?AVlogic_error@std@@@8??0logic_error@std@@QAE@ABV01@@Z40
	DD	FLAT:__CT??_R0?AVexception@std@@@8??0exception@std@@QAE@ABV01@@Z12
xdata$x	ENDS
;	COMDAT __TI3?AVlength_error@std@@
xdata$x	SEGMENT
__TI3?AVlength_error@std@@ DD 00H
	DD	FLAT:??1length_error@std@@UAE@XZ
	DD	00H
	DD	FLAT:__CTA3?AVlength_error@std@@
xdata$x	ENDS
;	COMDAT ??_C@_0BD@OLBABOEK@vector?$DMT?$DO?5too?5long?$AA@
CONST	SEGMENT
??_C@_0BD@OLBABOEK@vector?$DMT?$DO?5too?5long?$AA@ DB 'vector<T> too long'
	DB	00H						; `string'
CONST	ENDS
;	COMDAT xdata$x
xdata$x	SEGMENT
__unwindtable$?_Xlen@?$vector@PAVCvCity@@V?$allocator@PAVCvCity@@@std@@@std@@KAXXZ DD 0ffffffffH
	DD	FLAT:__unwindfunclet$?_Xlen@?$vector@PAVCvCity@@V?$allocator@PAVCvCity@@@std@@@std@@KAXXZ$0
	DD	00H
	DD	FLAT:__unwindfunclet$?_Xlen@?$vector@PAVCvCity@@V?$allocator@PAVCvCity@@@std@@@std@@KAXXZ$2
__ehfuncinfo$?_Xlen@?$vector@PAVCvCity@@V?$allocator@PAVCvCity@@@std@@@std@@KAXXZ DD 019930522H
	DD	02H
	DD	FLAT:__unwindtable$?_Xlen@?$vector@PAVCvCity@@V?$allocator@PAVCvCity@@@std@@@std@@KAXXZ
	DD	2 DUP(00H)
	DD	2 DUP(00H)
	DD	00H
	DD	01H
; Function compile flags: /Ogtpy
; File c:\program files (x86)\microsoft visual studio 9.0\vc\include\vector
xdata$x	ENDS
;	COMDAT ?_Xlen@?$vector@PAVCvCity@@V?$allocator@PAVCvCity@@@std@@@std@@KAXXZ
_TEXT	SEGMENT
$T220893 = -80						; size = 28
$T220892 = -52						; size = 40
__$EHRec$ = -12						; size = 12
?_Xlen@?$vector@PAVCvCity@@V?$allocator@PAVCvCity@@@std@@@std@@KAXXZ PROC ; std::vector<CvCity *,std::allocator<CvCity *> >::_Xlen, COMDAT

; 1259 : 		{	// report a length_error

	push	-1
	push	__ehhandler$?_Xlen@?$vector@PAVCvCity@@V?$allocator@PAVCvCity@@@std@@@std@@KAXXZ
	mov	eax, DWORD PTR fs:0
	push	eax
	mov	DWORD PTR fs:0, esp
	sub	esp, 68					; 00000044H

; 1260 : 		_THROW(length_error, "vector<T> too long");

	push	OFFSET ??_C@_0BD@OLBABOEK@vector?$DMT?$DO?5too?5long?$AA@
	lea	ecx, DWORD PTR $T220893[esp+84]
	call	DWORD PTR __imp_??0?$basic_string@DU?$char_traits@D@std@@V?$allocator@D@2@@std@@QAE@PBD@Z
	lea	ecx, DWORD PTR $T220892[esp+80]
	mov	DWORD PTR __$EHRec$[esp+88], 0
	call	DWORD PTR __imp_??0exception@std@@QAE@XZ
	lea	eax, DWORD PTR $T220893[esp+80]
	push	eax
	lea	ecx, DWORD PTR $T220892[esp+96]
	mov	BYTE PTR __$EHRec$[esp+92], 1
	mov	DWORD PTR $T220892[esp+84], OFFSET ??_7logic_error@std@@6B@
	call	DWORD PTR __imp_??0?$basic_string@DU?$char_traits@D@std@@V?$allocator@D@2@@std@@QAE@ABV01@@Z
	push	OFFSET __TI3?AVlength_error@std@@
	lea	ecx, DWORD PTR $T220892[esp+84]
	push	ecx
	mov	BYTE PTR __$EHRec$[esp+96], 0
	mov	DWORD PTR $T220892[esp+88], OFFSET ??_7length_error@std@@6B@
	call	__CxxThrowException@8
$LN13@Xlen:
$LN12@Xlen:
	int	3
_TEXT	ENDS
;	COMDAT text$x
text$x	SEGMENT
__unwindfunclet$?_Xlen@?$vector@PAVCvCity@@V?$allocator@PAVCvCity@@@std@@@std@@KAXXZ$0:
	lea	ecx, DWORD PTR $T220893[ebp]
	jmp	DWORD PTR __imp_??1?$basic_string@DU?$char_traits@D@std@@V?$allocator@D@2@@std@@QAE@XZ
__unwindfunclet$?_Xlen@?$vector@PAVCvCity@@V?$allocator@PAVCvCity@@@std@@@std@@KAXXZ$2:
	lea	ecx, DWORD PTR $T220892[ebp]
	jmp	DWORD PTR __imp_??1exception@std@@UAE@XZ
__ehhandler$?_Xlen@?$vector@PAVCvCity@@V?$allocator@PAVCvCity@@@std@@@std@@KAXXZ:
	mov	eax, OFFSET __ehfuncinfo$?_Xlen@?$vector@PAVCvCity@@V?$allocator@PAVCvCity@@@std@@@std@@KAXXZ
	jmp	___CxxFrameHandler3
text$x	ENDS
?_Xlen@?$vector@PAVCvCity@@V?$allocator@PAVCvCity@@@std@@@std@@KAXXZ ENDP ; std::vector<CvCity *,std::allocator<CvCity *> >::_Xlen
PUBLIC	??1?$_Container_base_aux_alloc_empty@V?$allocator@PAVCvCity@@@std@@@std@@IAE@XZ ; std::_Container_base_aux_alloc_empty<std::allocator<CvCity *> >::~_Container_base_aux_alloc_empty<std::allocator<CvCity *> >
; Function compile flags: /Ogtpy
; File c:\program files (x86)\microsoft visual studio 9.0\vc\include\xutility
;	COMDAT ??1?$_Container_base_aux_alloc_empty@V?$allocator@PAVCvCity@@@std@@@std@@IAE@XZ
_TEXT	SEGMENT
??1?$_Container_base_aux_alloc_empty@V?$allocator@PAVCvCity@@@std@@@std@@IAE@XZ PROC ; std::_Container_base_aux_alloc_empty<std::allocator<CvCity *> >::~_Container_base_aux_alloc_empty<std::allocator<CvCity *> >, COMDAT
; _this$ = ecx

; 627  : 	~_Container_base_aux_alloc_empty() { }

	ret	0
??1?$_Container_base_aux_alloc_empty@V?$allocator@PAVCvCity@@@std@@@std@@IAE@XZ ENDP ; std::_Container_base_aux_alloc_empty<std::allocator<CvCity *> >::~_Container_base_aux_alloc_empty<std::allocator<CvCity *> >
_TEXT	ENDS
PUBLIC	??D?$_Vector_const_iterator@PAVCvCity@@V?$allocator@PAVCvCity@@@std@@@std@@QBEABQAVCvCity@@XZ ; std::_Vector_const_iterator<CvCity *,std::allocator<CvCity *> >::operator*
; Function compile flags: /Ogtpy
; File c:\program files (x86)\microsoft visual studio 9.0\vc\include\vector
;	COMDAT ??D?$_Vector_const_iterator@PAVCvCity@@V?$allocator@PAVCvCity@@@std@@@std@@QBEABQAVCvCity@@XZ
_TEXT	SEGMENT
??D?$_Vector_const_iterator@PAVCvCity@@V?$allocator@PAVCvCity@@@std@@@std@@QBEABQAVCvCity@@XZ PROC ; std::_Vector_const_iterator<CvCity *,std::allocator<CvCity *> >::operator*, COMDAT
; _this$ = ecx

; 92   : 
; 93   :  #if _HAS_ITERATOR_DEBUGGING
; 94   : 		if (this->_Mycont == 0
; 95   : 			|| _Myptr < ((_Myvec *)this->_Mycont)->_Myfirst
; 96   : 			|| ((_Myvec *)this->_Mycont)->_Mylast <= _Myptr)
; 97   : 			{
; 98   : 			_DEBUG_ERROR("vector iterator not dereferencable");
; 99   : 			_SCL_SECURE_OUT_OF_RANGE;
; 100  : 			}
; 101  :  #else
; 102  :  		_SCL_SECURE_VALIDATE(this->_Has_container());
; 103  : 		_SCL_SECURE_VALIDATE_RANGE(_Myptr < ((_Myvec *)(this->_Getmycont()))->_Mylast);
; 104  :  #endif /* _HAS_ITERATOR_DEBUGGING */
; 105  : 
; 106  : 		return (*_Myptr);

	mov	eax, DWORD PTR [ecx]

; 107  : 		}

	ret	0
??D?$_Vector_const_iterator@PAVCvCity@@V?$allocator@PAVCvCity@@@std@@@std@@QBEABQAVCvCity@@XZ ENDP ; std::_Vector_const_iterator<CvCity *,std::allocator<CvCity *> >::operator*
_TEXT	ENDS
PUBLIC	??E?$_Vector_const_iterator@PAVCvCity@@V?$allocator@PAVCvCity@@@std@@@std@@QAEAAV01@XZ ; std::_Vector_const_iterator<CvCity *,std::allocator<CvCity *> >::operator++
; Function compile flags: /Ogtpy
;	COMDAT ??E?$_Vector_const_iterator@PAVCvCity@@V?$allocator@PAVCvCity@@@std@@@std@@QAEAAV01@XZ
_TEXT	SEGMENT
??E?$_Vector_const_iterator@PAVCvCity@@V?$allocator@PAVCvCity@@@std@@@std@@QAEAAV01@XZ PROC ; std::_Vector_const_iterator<CvCity *,std::allocator<CvCity *> >::operator++, COMDAT
; _this$ = ecx

; 115  : 		{	// preincrement

	mov	eax, ecx

; 116  : 		_SCL_SECURE_VALIDATE(this->_Has_container());
; 117  : 		_SCL_SECURE_VALIDATE_RANGE(_Myptr < ((_Myvec *)(this->_Getmycont()))->_Mylast);
; 118  : 
; 119  :  #if _HAS_ITERATOR_DEBUGGING
; 120  : 		if (this->_Mycont == 0
; 121  : 			|| ((_Myvec *)this->_Mycont)->_Mylast <= _Myptr)
; 122  : 			_DEBUG_ERROR("vector iterator not incrementable");
; 123  :  #endif /* _HAS_ITERATOR_DEBUGGING */
; 124  : 
; 125  : 		++_Myptr;

	add	DWORD PTR [eax], 4

; 126  : 		return (*this);
; 127  : 		}

	ret	0
??E?$_Vector_const_iterator@PAVCvCity@@V?$allocator@PAVCvCity@@@std@@@std@@QAEAAV01@XZ ENDP ; std::_Vector_const_iterator<CvCity *,std::allocator<CvCity *> >::operator++
_TEXT	ENDS
PUBLIC	??G?$_Vector_const_iterator@PAVCvCity@@V?$allocator@PAVCvCity@@@std@@@std@@QBEHABV01@@Z ; std::_Vector_const_iterator<CvCity *,std::allocator<CvCity *> >::operator-
; Function compile flags: /Ogtpy
;	COMDAT ??G?$_Vector_const_iterator@PAVCvCity@@V?$allocator@PAVCvCity@@@std@@@std@@QBEHABV01@@Z
_TEXT	SEGMENT
__Right$ = 8						; size = 4
??G?$_Vector_const_iterator@PAVCvCity@@V?$allocator@PAVCvCity@@@std@@@std@@QBEHABV01@@Z PROC ; std::_Vector_const_iterator<CvCity *,std::allocator<CvCity *> >::operator-, COMDAT
; _this$ = ecx

; 187  : 
; 188  :  #if _HAS_ITERATOR_DEBUGGING
; 189  : 		_Compat(_Right);
; 190  :  #else
; 191  : 		_SCL_SECURE_VALIDATE(this->_Has_container() && this->_Same_container(_Right));
; 192  :  #endif /* _HAS_ITERATOR_DEBUGGING */
; 193  : 
; 194  : 		return (_Myptr - _Right._Myptr);

	mov	eax, DWORD PTR [ecx]
	mov	ecx, DWORD PTR __Right$[esp-4]
	sub	eax, DWORD PTR [ecx]
	sar	eax, 2

; 195  : 		}

	ret	4
??G?$_Vector_const_iterator@PAVCvCity@@V?$allocator@PAVCvCity@@@std@@@std@@QBEHABV01@@Z ENDP ; std::_Vector_const_iterator<CvCity *,std::allocator<CvCity *> >::operator-
_TEXT	ENDS
PUBLIC	??8?$_Vector_const_iterator@PAVCvCity@@V?$allocator@PAVCvCity@@@std@@@std@@QBE_NABV01@@Z ; std::_Vector_const_iterator<CvCity *,std::allocator<CvCity *> >::operator==
; Function compile flags: /Ogtpy
;	COMDAT ??8?$_Vector_const_iterator@PAVCvCity@@V?$allocator@PAVCvCity@@@std@@@std@@QBE_NABV01@@Z
_TEXT	SEGMENT
__Right$ = 8						; size = 4
??8?$_Vector_const_iterator@PAVCvCity@@V?$allocator@PAVCvCity@@@std@@@std@@QBE_NABV01@@Z PROC ; std::_Vector_const_iterator<CvCity *,std::allocator<CvCity *> >::operator==, COMDAT
; _this$ = ecx

; 204  : 
; 205  :  #if _HAS_ITERATOR_DEBUGGING
; 206  : 		_Compat(_Right);
; 207  :  #else
; 208  : 		_SCL_SECURE_VALIDATE(this->_Has_container() && this->_Same_container(_Right));
; 209  :  #endif /* _HAS_ITERATOR_DEBUGGING */
; 210  : 
; 211  : 		return (_Myptr == _Right._Myptr);

	mov	eax, DWORD PTR [ecx]
	mov	edx, DWORD PTR __Right$[esp-4]
	xor	ecx, ecx
	cmp	eax, DWORD PTR [edx]
	sete	cl
	mov	al, cl

; 212  : 		}

	ret	4
??8?$_Vector_const_iterator@PAVCvCity@@V?$allocator@PAVCvCity@@@std@@@std@@QBE_NABV01@@Z ENDP ; std::_Vector_const_iterator<CvCity *,std::allocator<CvCity *> >::operator==
_TEXT	ENDS
PUBLIC	??8const_iterator@?$_Tree@V?$_Tmap_traits@PAVCvCity@@V?$vector@PAVCvCity@@V?$allocator@PAVCvCity@@@std@@@std@@U?$less@PAVCvCity@@@3@V?$allocator@U?$pair@QAVCvCity@@V?$vector@PAVCvCity@@V?$allocator@PAVCvCity@@@std@@@std@@@std@@@3@$0A@@std@@@std@@QBE_NABV012@@Z ; std::_Tree<std::_Tmap_traits<CvCity *,std::vector<CvCity *,std::allocator<CvCity *> >,std::less<CvCity *>,std::allocator<std::pair<CvCity * const,std::vector<CvCity *,std::allocator<CvCity *> > > >,0> >::const_iterator::operator==
; Function compile flags: /Ogtpy
; File c:\program files (x86)\microsoft visual studio 9.0\vc\include\xtree
;	COMDAT ??8const_iterator@?$_Tree@V?$_Tmap_traits@PAVCvCity@@V?$vector@PAVCvCity@@V?$allocator@PAVCvCity@@@std@@@std@@U?$less@PAVCvCity@@@3@V?$allocator@U?$pair@QAVCvCity@@V?$vector@PAVCvCity@@V?$allocator@PAVCvCity@@@std@@@std@@@std@@@3@$0A@@std@@@std@@QBE_NABV012@@Z
_TEXT	SEGMENT
__Right$ = 8						; size = 4
??8const_iterator@?$_Tree@V?$_Tmap_traits@PAVCvCity@@V?$vector@PAVCvCity@@V?$allocator@PAVCvCity@@@std@@@std@@U?$less@PAVCvCity@@@3@V?$allocator@U?$pair@QAVCvCity@@V?$vector@PAVCvCity@@V?$allocator@PAVCvCity@@@std@@@std@@@std@@@3@$0A@@std@@@std@@QBE_NABV012@@Z PROC ; std::_Tree<std::_Tmap_traits<CvCity *,std::vector<CvCity *,std::allocator<CvCity *> >,std::less<CvCity *>,std::allocator<std::pair<CvCity * const,std::vector<CvCity *,std::allocator<CvCity *> > > >,0> >::const_iterator::operator==, COMDAT
; _this$ = ecx

; 300  : 
; 301  :  #if _HAS_ITERATOR_DEBUGGING
; 302  : 			if (this->_Mycont == 0 || this->_Mycont != _Right._Mycont)
; 303  : 				{
; 304  : 				_DEBUG_ERROR("map/set iterators incompatible");
; 305  : 				_SCL_SECURE_INVALID_ARGUMENT;
; 306  : 				}
; 307  :  #else
; 308  : 			_SCL_SECURE_VALIDATE(this->_Has_container() && this->_Same_container(_Right));
; 309  :  #endif /* _HAS_ITERATOR_DEBUGGING */
; 310  : 
; 311  : 			return (_Ptr == _Right._Ptr);

	mov	eax, DWORD PTR [ecx]
	mov	edx, DWORD PTR __Right$[esp-4]
	xor	ecx, ecx
	cmp	eax, DWORD PTR [edx]
	sete	cl
	mov	al, cl

; 312  : 			}

	ret	4
??8const_iterator@?$_Tree@V?$_Tmap_traits@PAVCvCity@@V?$vector@PAVCvCity@@V?$allocator@PAVCvCity@@@std@@@std@@U?$less@PAVCvCity@@@3@V?$allocator@U?$pair@QAVCvCity@@V?$vector@PAVCvCity@@V?$allocator@PAVCvCity@@@std@@@std@@@std@@@3@$0A@@std@@@std@@QBE_NABV012@@Z ENDP ; std::_Tree<std::_Tmap_traits<CvCity *,std::vector<CvCity *,std::allocator<CvCity *> >,std::less<CvCity *>,std::allocator<std::pair<CvCity * const,std::vector<CvCity *,std::allocator<CvCity *> > > >,0> >::const_iterator::operator==
_TEXT	ENDS
PUBLIC	?_Mynode@const_iterator@?$_Tree@V?$_Tmap_traits@PAVCvCity@@V?$vector@PAVCvCity@@V?$allocator@PAVCvCity@@@std@@@std@@U?$less@PAVCvCity@@@3@V?$allocator@U?$pair@QAVCvCity@@V?$vector@PAVCvCity@@V?$allocator@PAVCvCity@@@std@@@std@@@std@@@3@$0A@@std@@@std@@QBEPAU_Node@?$_Tree_nod@V?$_Tmap_traits@PAVCvCity@@V?$vector@PAVCvCity@@V?$allocator@PAVCvCity@@@std@@@std@@U?$less@PAVCvCity@@@3@V?$allocator@U?$pair@QAVCvCity@@V?$vector@PAVCvCity@@V?$allocator@PAVCvCity@@@std@@@std@@@std@@@3@$0A@@std@@@3@XZ ; std::_Tree<std::_Tmap_traits<CvCity *,std::vector<CvCity *,std::allocator<CvCity *> >,std::less<CvCity *>,std::allocator<std::pair<CvCity * const,std::vector<CvCity *,std::allocator<CvCity *> > > >,0> >::const_iterator::_Mynode
; Function compile flags: /Ogtpy
;	COMDAT ?_Mynode@const_iterator@?$_Tree@V?$_Tmap_traits@PAVCvCity@@V?$vector@PAVCvCity@@V?$allocator@PAVCvCity@@@std@@@std@@U?$less@PAVCvCity@@@3@V?$allocator@U?$pair@QAVCvCity@@V?$vector@PAVCvCity@@V?$allocator@PAVCvCity@@@std@@@std@@@std@@@3@$0A@@std@@@std@@QBEPAU_Node@?$_Tree_nod@V?$_Tmap_traits@PAVCvCity@@V?$vector@PAVCvCity@@V?$allocator@PAVCvCity@@@std@@@std@@U?$less@PAVCvCity@@@3@V?$allocator@U?$pair@QAVCvCity@@V?$vector@PAVCvCity@@V?$allocator@PAVCvCity@@@std@@@std@@@std@@@3@$0A@@std@@@3@XZ
_TEXT	SEGMENT
?_Mynode@const_iterator@?$_Tree@V?$_Tmap_traits@PAVCvCity@@V?$vector@PAVCvCity@@V?$allocator@PAVCvCity@@@std@@@std@@U?$less@PAVCvCity@@@3@V?$allocator@U?$pair@QAVCvCity@@V?$vector@PAVCvCity@@V?$allocator@PAVCvCity@@@std@@@std@@@std@@@3@$0A@@std@@@std@@QBEPAU_Node@?$_Tree_nod@V?$_Tmap_traits@PAVCvCity@@V?$vector@PAVCvCity@@V?$allocator@PAVCvCity@@@std@@@std@@U?$less@PAVCvCity@@@3@V?$allocator@U?$pair@QAVCvCity@@V?$vector@PAVCvCity@@V?$allocator@PAVCvCity@@@std@@@std@@@std@@@3@$0A@@std@@@3@XZ PROC ; std::_Tree<std::_Tmap_traits<CvCity *,std::vector<CvCity *,std::allocator<CvCity *> >,std::less<CvCity *>,std::allocator<std::pair<CvCity * const,std::vector<CvCity *,std::allocator<CvCity *> > > >,0> >::const_iterator::_Mynode, COMDAT
; _this$ = ecx

; 410  : 			return (_Ptr);

	mov	eax, DWORD PTR [ecx]

; 411  : 			}

	ret	0
?_Mynode@const_iterator@?$_Tree@V?$_Tmap_traits@PAVCvCity@@V?$vector@PAVCvCity@@V?$allocator@PAVCvCity@@@std@@@std@@U?$less@PAVCvCity@@@3@V?$allocator@U?$pair@QAVCvCity@@V?$vector@PAVCvCity@@V?$allocator@PAVCvCity@@@std@@@std@@@std@@@3@$0A@@std@@@std@@QBEPAU_Node@?$_Tree_nod@V?$_Tmap_traits@PAVCvCity@@V?$vector@PAVCvCity@@V?$allocator@PAVCvCity@@@std@@@std@@U?$less@PAVCvCity@@@3@V?$allocator@U?$pair@QAVCvCity@@V?$vector@PAVCvCity@@V?$allocator@PAVCvCity@@@std@@@std@@@std@@@3@$0A@@std@@@3@XZ ENDP ; std::_Tree<std::_Tmap_traits<CvCity *,std::vector<CvCity *,std::allocator<CvCity *> >,std::less<CvCity *>,std::allocator<std::pair<CvCity * const,std::vector<CvCity *,std::allocator<CvCity *> > > >,0> >::const_iterator::_Mynode
_TEXT	ENDS
PUBLIC	??0?$pair@Viterator@?$_Tree@V?$_Tmap_traits@PAVCvCity@@V?$vector@PAVCvCity@@V?$allocator@PAVCvCity@@@std@@@std@@U?$less@PAVCvCity@@@3@V?$allocator@U?$pair@QAVCvCity@@V?$vector@PAVCvCity@@V?$allocator@PAVCvCity@@@std@@@std@@@std@@@3@$0A@@std@@@std@@_N@std@@QAE@ABViterator@?$_Tree@V?$_Tmap_traits@PAVCvCity@@V?$vector@PAVCvCity@@V?$allocator@PAVCvCity@@@std@@@std@@U?$less@PAVCvCity@@@3@V?$allocator@U?$pair@QAVCvCity@@V?$vector@PAVCvCity@@V?$allocator@PAVCvCity@@@std@@@std@@@std@@@3@$0A@@std@@@1@AB_N@Z ; std::pair<std::_Tree<std::_Tmap_traits<CvCity *,std::vector<CvCity *,std::allocator<CvCity *> >,std::less<CvCity *>,std::allocator<std::pair<CvCity * const,std::vector<CvCity *,std::allocator<CvCity *> > > >,0> >::iterator,bool>::pair<std::_Tree<std::_Tmap_traits<CvCity *,std::vector<CvCity *,std::allocator<CvCity *> >,std::less<CvCity *>,std::allocator<std::pair<CvCity * const,std::vector<CvCity *,std::allocator<CvCity *> > > >,0> >::iterator,bool>
; Function compile flags: /Ogtpy
; File c:\program files (x86)\microsoft visual studio 9.0\vc\include\utility
;	COMDAT ??0?$pair@Viterator@?$_Tree@V?$_Tmap_traits@PAVCvCity@@V?$vector@PAVCvCity@@V?$allocator@PAVCvCity@@@std@@@std@@U?$less@PAVCvCity@@@3@V?$allocator@U?$pair@QAVCvCity@@V?$vector@PAVCvCity@@V?$allocator@PAVCvCity@@@std@@@std@@@std@@@3@$0A@@std@@@std@@_N@std@@QAE@ABViterator@?$_Tree@V?$_Tmap_traits@PAVCvCity@@V?$vector@PAVCvCity@@V?$allocator@PAVCvCity@@@std@@@std@@U?$less@PAVCvCity@@@3@V?$allocator@U?$pair@QAVCvCity@@V?$vector@PAVCvCity@@V?$allocator@PAVCvCity@@@std@@@std@@@std@@@3@$0A@@std@@@1@AB_N@Z
_TEXT	SEGMENT
__Val1$ = 8						; size = 4
__Val2$ = 12						; size = 4
??0?$pair@Viterator@?$_Tree@V?$_Tmap_traits@PAVCvCity@@V?$vector@PAVCvCity@@V?$allocator@PAVCvCity@@@std@@@std@@U?$less@PAVCvCity@@@3@V?$allocator@U?$pair@QAVCvCity@@V?$vector@PAVCvCity@@V?$allocator@PAVCvCity@@@std@@@std@@@std@@@3@$0A@@std@@@std@@_N@std@@QAE@ABViterator@?$_Tree@V?$_Tmap_traits@PAVCvCity@@V?$vector@PAVCvCity@@V?$allocator@PAVCvCity@@@std@@@std@@U?$less@PAVCvCity@@@3@V?$allocator@U?$pair@QAVCvCity@@V?$vector@PAVCvCity@@V?$allocator@PAVCvCity@@@std@@@std@@@std@@@3@$0A@@std@@@1@AB_N@Z PROC ; std::pair<std::_Tree<std::_Tmap_traits<CvCity *,std::vector<CvCity *,std::allocator<CvCity *> >,std::less<CvCity *>,std::allocator<std::pair<CvCity * const,std::vector<CvCity *,std::allocator<CvCity *> > > >,0> >::iterator,bool>::pair<std::_Tree<std::_Tmap_traits<CvCity *,std::vector<CvCity *,std::allocator<CvCity *> >,std::less<CvCity *>,std::allocator<std::pair<CvCity * const,std::vector<CvCity *,std::allocator<CvCity *> > > >,0> >::iterator,bool>, COMDAT
; _this$ = ecx

; 50   : 		{	// construct from specified values

	mov	eax, ecx
	mov	ecx, DWORD PTR __Val1$[esp-4]
	mov	edx, DWORD PTR [ecx]
	mov	ecx, DWORD PTR __Val2$[esp-4]
	mov	DWORD PTR [eax], edx
	mov	dl, BYTE PTR [ecx]
	mov	BYTE PTR [eax+4], dl

; 51   : 		}

	ret	8
??0?$pair@Viterator@?$_Tree@V?$_Tmap_traits@PAVCvCity@@V?$vector@PAVCvCity@@V?$allocator@PAVCvCity@@@std@@@std@@U?$less@PAVCvCity@@@3@V?$allocator@U?$pair@QAVCvCity@@V?$vector@PAVCvCity@@V?$allocator@PAVCvCity@@@std@@@std@@@std@@@3@$0A@@std@@@std@@_N@std@@QAE@ABViterator@?$_Tree@V?$_Tmap_traits@PAVCvCity@@V?$vector@PAVCvCity@@V?$allocator@PAVCvCity@@@std@@@std@@U?$less@PAVCvCity@@@3@V?$allocator@U?$pair@QAVCvCity@@V?$vector@PAVCvCity@@V?$allocator@PAVCvCity@@@std@@@std@@@std@@@3@$0A@@std@@@1@AB_N@Z ENDP ; std::pair<std::_Tree<std::_Tmap_traits<CvCity *,std::vector<CvCity *,std::allocator<CvCity *> >,std::less<CvCity *>,std::allocator<std::pair<CvCity * const,std::vector<CvCity *,std::allocator<CvCity *> > > >,0> >::iterator,bool>::pair<std::_Tree<std::_Tmap_traits<CvCity *,std::vector<CvCity *,std::allocator<CvCity *> >,std::less<CvCity *>,std::allocator<std::pair<CvCity * const,std::vector<CvCity *,std::allocator<CvCity *> > > >,0> >::iterator,bool>
_TEXT	ENDS
PUBLIC	??0?$allocator@U?$pair@QAVCvCity@@V?$vector@PAVCvCity@@V?$allocator@PAVCvCity@@@std@@@std@@@std@@@std@@QAE@ABV01@@Z ; std::allocator<std::pair<CvCity * const,std::vector<CvCity *,std::allocator<CvCity *> > > >::allocator<std::pair<CvCity * const,std::vector<CvCity *,std::allocator<CvCity *> > > >
; Function compile flags: /Ogtpy
; File c:\program files (x86)\microsoft visual studio 9.0\vc\include\xmemory
;	COMDAT ??0?$allocator@U?$pair@QAVCvCity@@V?$vector@PAVCvCity@@V?$allocator@PAVCvCity@@@std@@@std@@@std@@@std@@QAE@ABV01@@Z
_TEXT	SEGMENT
___formal$ = 8						; size = 4
??0?$allocator@U?$pair@QAVCvCity@@V?$vector@PAVCvCity@@V?$allocator@PAVCvCity@@@std@@@std@@@std@@@std@@QAE@ABV01@@Z PROC ; std::allocator<std::pair<CvCity * const,std::vector<CvCity *,std::allocator<CvCity *> > > >::allocator<std::pair<CvCity * const,std::vector<CvCity *,std::allocator<CvCity *> > > >, COMDAT
; _this$ = ecx

; 123  : 	allocator(const allocator<_Ty>&) _THROW0()

	mov	eax, ecx

; 124  : 		{	// construct by copying (do nothing)
; 125  : 		}

	ret	4
??0?$allocator@U?$pair@QAVCvCity@@V?$vector@PAVCvCity@@V?$allocator@PAVCvCity@@@std@@@std@@@std@@@std@@QAE@ABV01@@Z ENDP ; std::allocator<std::pair<CvCity * const,std::vector<CvCity *,std::allocator<CvCity *> > > >::allocator<std::pair<CvCity * const,std::vector<CvCity *,std::allocator<CvCity *> > > >
_TEXT	ENDS
PUBLIC	??0?$allocator@PAVCvCity@@@std@@QAE@ABV01@@Z	; std::allocator<CvCity *>::allocator<CvCity *>
; Function compile flags: /Ogtpy
;	COMDAT ??0?$allocator@PAVCvCity@@@std@@QAE@ABV01@@Z
_TEXT	SEGMENT
___formal$ = 8						; size = 4
??0?$allocator@PAVCvCity@@@std@@QAE@ABV01@@Z PROC	; std::allocator<CvCity *>::allocator<CvCity *>, COMDAT
; _this$ = ecx

; 123  : 	allocator(const allocator<_Ty>&) _THROW0()

	mov	eax, ecx

; 124  : 		{	// construct by copying (do nothing)
; 125  : 		}

	ret	4
??0?$allocator@PAVCvCity@@@std@@QAE@ABV01@@Z ENDP	; std::allocator<CvCity *>::allocator<CvCity *>
_TEXT	ENDS
PUBLIC	?max_size@?$allocator@PAVCvCity@@@std@@QBEIXZ	; std::allocator<CvCity *>::max_size
; Function compile flags: /Ogtpy
;	COMDAT ?max_size@?$allocator@PAVCvCity@@@std@@QBEIXZ
_TEXT	SEGMENT
?max_size@?$allocator@PAVCvCity@@@std@@QBEIXZ PROC	; std::allocator<CvCity *>::max_size, COMDAT
; _this$ = ecx

; 165  : 		_SIZT _Count = (_SIZT)(-1) / sizeof (_Ty);
; 166  : 		return (0 < _Count ? _Count : 1);

	mov	eax, 1073741823				; 3fffffffH

; 167  : 		}

	ret	0
?max_size@?$allocator@PAVCvCity@@@std@@QBEIXZ ENDP	; std::allocator<CvCity *>::max_size
_TEXT	ENDS
PUBLIC	??0?$_Container_base_aux_alloc_empty@V?$allocator@PAVCvCity@@@std@@@std@@IAE@V?$allocator@PAVCvCity@@@1@@Z ; std::_Container_base_aux_alloc_empty<std::allocator<CvCity *> >::_Container_base_aux_alloc_empty<std::allocator<CvCity *> >
; Function compile flags: /Ogtpy
; File c:\program files (x86)\microsoft visual studio 9.0\vc\include\xutility
;	COMDAT ??0?$_Container_base_aux_alloc_empty@V?$allocator@PAVCvCity@@@std@@@std@@IAE@V?$allocator@PAVCvCity@@@1@@Z
_TEXT	SEGMENT
___formal$ = 8						; size = 1
??0?$_Container_base_aux_alloc_empty@V?$allocator@PAVCvCity@@@std@@@std@@IAE@V?$allocator@PAVCvCity@@@1@@Z PROC ; std::_Container_base_aux_alloc_empty<std::allocator<CvCity *> >::_Container_base_aux_alloc_empty<std::allocator<CvCity *> >, COMDAT
; _this$ = ecx

; 618  : 	explicit _Container_base_aux_alloc_empty(_Alloc) { }

	mov	eax, ecx
	ret	4
??0?$_Container_base_aux_alloc_empty@V?$allocator@PAVCvCity@@@std@@@std@@IAE@V?$allocator@PAVCvCity@@@1@@Z ENDP ; std::_Container_base_aux_alloc_empty<std::allocator<CvCity *> >::_Container_base_aux_alloc_empty<std::allocator<CvCity *> >
_TEXT	ENDS
PUBLIC	??0?$_Vector_const_iterator@PAVCvCity@@V?$allocator@PAVCvCity@@@std@@@std@@QAE@PAPAVCvCity@@@Z ; std::_Vector_const_iterator<CvCity *,std::allocator<CvCity *> >::_Vector_const_iterator<CvCity *,std::allocator<CvCity *> >
; Function compile flags: /Ogtpy
; File c:\program files (x86)\microsoft visual studio 9.0\vc\include\vector
;	COMDAT ??0?$_Vector_const_iterator@PAVCvCity@@V?$allocator@PAVCvCity@@@std@@@std@@QAE@PAPAVCvCity@@@Z
_TEXT	SEGMENT
__Ptr$ = 8						; size = 4
??0?$_Vector_const_iterator@PAVCvCity@@V?$allocator@PAVCvCity@@@std@@@std@@QAE@PAPAVCvCity@@@Z PROC ; std::_Vector_const_iterator<CvCity *,std::allocator<CvCity *> >::_Vector_const_iterator<CvCity *,std::allocator<CvCity *> >, COMDAT
; _this$ = ecx

; 84   : 	explicit _Vector_const_iterator(_Tptr _Ptr)

	mov	eax, ecx

; 85   : 		{	// construct with pointer _Ptr
; 86   : 		_Myptr = _Ptr;

	mov	ecx, DWORD PTR __Ptr$[esp-4]
	mov	DWORD PTR [eax], ecx

; 87   : 		}

	ret	4
??0?$_Vector_const_iterator@PAVCvCity@@V?$allocator@PAVCvCity@@@std@@@std@@QAE@PAPAVCvCity@@@Z ENDP ; std::_Vector_const_iterator<CvCity *,std::allocator<CvCity *> >::_Vector_const_iterator<CvCity *,std::allocator<CvCity *> >
_TEXT	ENDS
PUBLIC	??0const_iterator@?$_Tree@V?$_Tmap_traits@PAVCvCity@@V?$vector@PAVCvCity@@V?$allocator@PAVCvCity@@@std@@@std@@U?$less@PAVCvCity@@@3@V?$allocator@U?$pair@QAVCvCity@@V?$vector@PAVCvCity@@V?$allocator@PAVCvCity@@@std@@@std@@@std@@@3@$0A@@std@@@std@@QAE@PAU_Node@?$_Tree_nod@V?$_Tmap_traits@PAVCvCity@@V?$vector@PAVCvCity@@V?$allocator@PAVCvCity@@@std@@@std@@U?$less@PAVCvCity@@@3@V?$allocator@U?$pair@QAVCvCity@@V?$vector@PAVCvCity@@V?$allocator@PAVCvCity@@@std@@@std@@@std@@@3@$0A@@std@@@2@@Z ; std::_Tree<std::_Tmap_traits<CvCity *,std::vector<CvCity *,std::allocator<CvCity *> >,std::less<CvCity *>,std::allocator<std::pair<CvCity * const,std::vector<CvCity *,std::allocator<CvCity *> > > >,0> >::const_iterator::const_iterator
; Function compile flags: /Ogtpy
; File c:\program files (x86)\microsoft visual studio 9.0\vc\include\xtree
;	COMDAT ??0const_iterator@?$_Tree@V?$_Tmap_traits@PAVCvCity@@V?$vector@PAVCvCity@@V?$allocator@PAVCvCity@@@std@@@std@@U?$less@PAVCvCity@@@3@V?$allocator@U?$pair@QAVCvCity@@V?$vector@PAVCvCity@@V?$allocator@PAVCvCity@@@std@@@std@@@std@@@3@$0A@@std@@@std@@QAE@PAU_Node@?$_Tree_nod@V?$_Tmap_traits@PAVCvCity@@V?$vector@PAVCvCity@@V?$allocator@PAVCvCity@@@std@@@std@@U?$less@PAVCvCity@@@3@V?$allocator@U?$pair@QAVCvCity@@V?$vector@PAVCvCity@@V?$allocator@PAVCvCity@@@std@@@std@@@std@@@3@$0A@@std@@@2@@Z
_TEXT	SEGMENT
__Pnode$ = 8						; size = 4
??0const_iterator@?$_Tree@V?$_Tmap_traits@PAVCvCity@@V?$vector@PAVCvCity@@V?$allocator@PAVCvCity@@@std@@@std@@U?$less@PAVCvCity@@@3@V?$allocator@U?$pair@QAVCvCity@@V?$vector@PAVCvCity@@V?$allocator@PAVCvCity@@@std@@@std@@@std@@@3@$0A@@std@@@std@@QAE@PAU_Node@?$_Tree_nod@V?$_Tmap_traits@PAVCvCity@@V?$vector@PAVCvCity@@V?$allocator@PAVCvCity@@@std@@@std@@U?$less@PAVCvCity@@@3@V?$allocator@U?$pair@QAVCvCity@@V?$vector@PAVCvCity@@V?$allocator@PAVCvCity@@@std@@@std@@@std@@@3@$0A@@std@@@2@@Z PROC ; std::_Tree<std::_Tmap_traits<CvCity *,std::vector<CvCity *,std::allocator<CvCity *> >,std::less<CvCity *>,std::allocator<std::pair<CvCity * const,std::vector<CvCity *,std::allocator<CvCity *> > > >,0> >::const_iterator::const_iterator, COMDAT
; _this$ = ecx

; 244  : 			{	// construct with node pointer _Pnode

	mov	eax, ecx
	mov	ecx, DWORD PTR __Pnode$[esp-4]
	mov	DWORD PTR [eax], ecx

; 245  : 			}

	ret	4
??0const_iterator@?$_Tree@V?$_Tmap_traits@PAVCvCity@@V?$vector@PAVCvCity@@V?$allocator@PAVCvCity@@@std@@@std@@U?$less@PAVCvCity@@@3@V?$allocator@U?$pair@QAVCvCity@@V?$vector@PAVCvCity@@V?$allocator@PAVCvCity@@@std@@@std@@@std@@@3@$0A@@std@@@std@@QAE@PAU_Node@?$_Tree_nod@V?$_Tmap_traits@PAVCvCity@@V?$vector@PAVCvCity@@V?$allocator@PAVCvCity@@@std@@@std@@U?$less@PAVCvCity@@@3@V?$allocator@U?$pair@QAVCvCity@@V?$vector@PAVCvCity@@V?$allocator@PAVCvCity@@@std@@@std@@@std@@@3@$0A@@std@@@2@@Z ENDP ; std::_Tree<std::_Tmap_traits<CvCity *,std::vector<CvCity *,std::allocator<CvCity *> >,std::less<CvCity *>,std::allocator<std::pair<CvCity * const,std::vector<CvCity *,std::allocator<CvCity *> > > >,0> >::const_iterator::const_iterator
_TEXT	ENDS
PUBLIC	?_Inc@const_iterator@?$_Tree@V?$_Tmap_traits@PAVCvCity@@V?$vector@PAVCvCity@@V?$allocator@PAVCvCity@@@std@@@std@@U?$less@PAVCvCity@@@3@V?$allocator@U?$pair@QAVCvCity@@V?$vector@PAVCvCity@@V?$allocator@PAVCvCity@@@std@@@std@@@std@@@3@$0A@@std@@@std@@QAEXXZ ; std::_Tree<std::_Tmap_traits<CvCity *,std::vector<CvCity *,std::allocator<CvCity *> >,std::less<CvCity *>,std::allocator<std::pair<CvCity * const,std::vector<CvCity *,std::allocator<CvCity *> > > >,0> >::const_iterator::_Inc
; Function compile flags: /Ogtpy
;	COMDAT ?_Inc@const_iterator@?$_Tree@V?$_Tmap_traits@PAVCvCity@@V?$vector@PAVCvCity@@V?$allocator@PAVCvCity@@@std@@@std@@U?$less@PAVCvCity@@@3@V?$allocator@U?$pair@QAVCvCity@@V?$vector@PAVCvCity@@V?$allocator@PAVCvCity@@@std@@@std@@@std@@@3@$0A@@std@@@std@@QAEXXZ
_TEXT	SEGMENT
?_Inc@const_iterator@?$_Tree@V?$_Tmap_traits@PAVCvCity@@V?$vector@PAVCvCity@@V?$allocator@PAVCvCity@@@std@@@std@@U?$less@PAVCvCity@@@3@V?$allocator@U?$pair@QAVCvCity@@V?$vector@PAVCvCity@@V?$allocator@PAVCvCity@@@std@@@std@@@std@@@3@$0A@@std@@@std@@QAEXXZ PROC ; std::_Tree<std::_Tmap_traits<CvCity *,std::vector<CvCity *,std::allocator<CvCity *> >,std::less<CvCity *>,std::allocator<std::pair<CvCity * const,std::vector<CvCity *,std::allocator<CvCity *> > > >,0> >::const_iterator::_Inc, COMDAT
; _this$ = ecx

; 378  : 
; 379  :  #if _HAS_ITERATOR_DEBUGGING
; 380  : 			if (this->_Mycont == 0
; 381  : 				|| _Ptr == 0
; 382  : 				|| _Isnil(_Ptr))
; 383  : 				{
; 384  : 				_DEBUG_ERROR("map/set iterator not incrementable");
; 385  : 				_SCL_SECURE_OUT_OF_RANGE;
; 386  : 				}
; 387  :  #else
; 388  : 			_SCL_SECURE_VALIDATE(this->_Has_container());
; 389  : 			if (_Isnil(_Ptr))

	mov	eax, DWORD PTR [ecx]
	cmp	BYTE PTR [eax+33], 0
	jne	SHORT $LN3@Inc

; 390  : 				{
; 391  : 				_SCL_SECURE_OUT_OF_RANGE;
; 392  : 				// end() shouldn't be incremented, don't move if _SCL_SECURE is not turned on
; 393  : 				}
; 394  :  #endif /* _HAS_ITERATOR_DEBUGGING */
; 395  : 
; 396  : 			else if (!_Isnil(_Right(_Ptr)))

	mov	edx, DWORD PTR [eax+8]
	cmp	BYTE PTR [edx+33], 0
	jne	SHORT $LN34@Inc

; 397  : 				_Ptr = _Min(_Right(_Ptr));	// ==> smallest of right subtree

	mov	eax, DWORD PTR [edx]
	cmp	BYTE PTR [eax+33], 0
	jne	SHORT $LN17@Inc
	npad	7
$LL18@Inc:
	mov	edx, eax
	mov	eax, DWORD PTR [edx]
	cmp	BYTE PTR [eax+33], 0
	je	SHORT $LL18@Inc
$LN17@Inc:
	mov	DWORD PTR [ecx], edx

; 405  : 				}
; 406  : 			}

	ret	0
$LN34@Inc:

; 398  : 			else
; 399  : 				{	// climb looking for right subtree
; 400  : 				_Nodeptr _Pnode;
; 401  : 				while (!_Isnil(_Pnode = _Parent(_Ptr))
; 402  : 					&& _Ptr == _Right(_Pnode))

	mov	eax, DWORD PTR [eax+4]
	cmp	BYTE PTR [eax+33], 0
	jne	SHORT $LN1@Inc
$LL2@Inc:
	mov	edx, DWORD PTR [ecx]
	cmp	edx, DWORD PTR [eax+8]
	jne	SHORT $LN1@Inc

; 403  : 					_Ptr = _Pnode;	// ==> parent while right subtree

	mov	DWORD PTR [ecx], eax
	mov	eax, DWORD PTR [eax+4]
	cmp	BYTE PTR [eax+33], 0
	je	SHORT $LL2@Inc
$LN1@Inc:

; 404  : 				_Ptr = _Pnode;	// ==> parent (head if end())

	mov	DWORD PTR [ecx], eax
$LN3@Inc:

; 405  : 				}
; 406  : 			}

	ret	0
?_Inc@const_iterator@?$_Tree@V?$_Tmap_traits@PAVCvCity@@V?$vector@PAVCvCity@@V?$allocator@PAVCvCity@@@std@@@std@@U?$less@PAVCvCity@@@3@V?$allocator@U?$pair@QAVCvCity@@V?$vector@PAVCvCity@@V?$allocator@PAVCvCity@@@std@@@std@@@std@@@3@$0A@@std@@@std@@QAEXXZ ENDP ; std::_Tree<std::_Tmap_traits<CvCity *,std::vector<CvCity *,std::allocator<CvCity *> >,std::less<CvCity *>,std::allocator<std::pair<CvCity * const,std::vector<CvCity *,std::allocator<CvCity *> > > >,0> >::const_iterator::_Inc
_TEXT	ENDS
PUBLIC	?max_size@?$allocator@U?$pair@QAVCvCity@@V?$vector@PAVCvCity@@V?$allocator@PAVCvCity@@@std@@@std@@@std@@@std@@QBEIXZ ; std::allocator<std::pair<CvCity * const,std::vector<CvCity *,std::allocator<CvCity *> > > >::max_size
; Function compile flags: /Ogtpy
; File c:\program files (x86)\microsoft visual studio 9.0\vc\include\xmemory
;	COMDAT ?max_size@?$allocator@U?$pair@QAVCvCity@@V?$vector@PAVCvCity@@V?$allocator@PAVCvCity@@@std@@@std@@@std@@@std@@QBEIXZ
_TEXT	SEGMENT
?max_size@?$allocator@U?$pair@QAVCvCity@@V?$vector@PAVCvCity@@V?$allocator@PAVCvCity@@@std@@@std@@@std@@@std@@QBEIXZ PROC ; std::allocator<std::pair<CvCity * const,std::vector<CvCity *,std::allocator<CvCity *> > > >::max_size, COMDAT
; _this$ = ecx

; 165  : 		_SIZT _Count = (_SIZT)(-1) / sizeof (_Ty);
; 166  : 		return (0 < _Count ? _Count : 1);

	mov	eax, 214748364				; 0cccccccH

; 167  : 		}

	ret	0
?max_size@?$allocator@U?$pair@QAVCvCity@@V?$vector@PAVCvCity@@V?$allocator@PAVCvCity@@@std@@@std@@@std@@@std@@QBEIXZ ENDP ; std::allocator<std::pair<CvCity * const,std::vector<CvCity *,std::allocator<CvCity *> > > >::max_size
_TEXT	ENDS
PUBLIC	??Y?$_Vector_const_iterator@PAVCvCity@@V?$allocator@PAVCvCity@@@std@@@std@@QAEAAV01@H@Z ; std::_Vector_const_iterator<CvCity *,std::allocator<CvCity *> >::operator+=
; Function compile flags: /Ogtpy
; File c:\program files (x86)\microsoft visual studio 9.0\vc\include\vector
;	COMDAT ??Y?$_Vector_const_iterator@PAVCvCity@@V?$allocator@PAVCvCity@@@std@@@std@@QAEAAV01@H@Z
_TEXT	SEGMENT
__Off$ = 8						; size = 4
??Y?$_Vector_const_iterator@PAVCvCity@@V?$allocator@PAVCvCity@@@std@@@std@@QAEAAV01@H@Z PROC ; std::_Vector_const_iterator<CvCity *,std::allocator<CvCity *> >::operator+=, COMDAT
; _this$ = ecx

; 159  : 		{	// increment by integer

	mov	eax, ecx

; 160  : 		_SCL_SECURE_VALIDATE(this->_Has_container());
; 161  : 		_SCL_SECURE_VALIDATE_RANGE(
; 162  : 			_Myptr + _Off <= ((_Myvec *)(this->_Getmycont()))->_Mylast &&
; 163  : 			_Myptr + _Off >= ((_Myvec *)(this->_Getmycont()))->_Myfirst);
; 164  : 		_Myptr += _Off;

	mov	ecx, DWORD PTR __Off$[esp-4]
	lea	edx, DWORD PTR [ecx*4]
	add	DWORD PTR [eax], edx

; 165  : 		return (*this);
; 166  : 		}

	ret	4
??Y?$_Vector_const_iterator@PAVCvCity@@V?$allocator@PAVCvCity@@@std@@@std@@QAEAAV01@H@Z ENDP ; std::_Vector_const_iterator<CvCity *,std::allocator<CvCity *> >::operator+=
_TEXT	ENDS
PUBLIC	?_Dec@const_iterator@?$_Tree@V?$_Tmap_traits@PAVCvCity@@V?$vector@PAVCvCity@@V?$allocator@PAVCvCity@@@std@@@std@@U?$less@PAVCvCity@@@3@V?$allocator@U?$pair@QAVCvCity@@V?$vector@PAVCvCity@@V?$allocator@PAVCvCity@@@std@@@std@@@std@@@3@$0A@@std@@@std@@QAEXXZ ; std::_Tree<std::_Tmap_traits<CvCity *,std::vector<CvCity *,std::allocator<CvCity *> >,std::less<CvCity *>,std::allocator<std::pair<CvCity * const,std::vector<CvCity *,std::allocator<CvCity *> > > >,0> >::const_iterator::_Dec
; Function compile flags: /Ogtpy
; File c:\program files (x86)\microsoft visual studio 9.0\vc\include\xtree
;	COMDAT ?_Dec@const_iterator@?$_Tree@V?$_Tmap_traits@PAVCvCity@@V?$vector@PAVCvCity@@V?$allocator@PAVCvCity@@@std@@@std@@U?$less@PAVCvCity@@@3@V?$allocator@U?$pair@QAVCvCity@@V?$vector@PAVCvCity@@V?$allocator@PAVCvCity@@@std@@@std@@@std@@@3@$0A@@std@@@std@@QAEXXZ
_TEXT	SEGMENT
?_Dec@const_iterator@?$_Tree@V?$_Tmap_traits@PAVCvCity@@V?$vector@PAVCvCity@@V?$allocator@PAVCvCity@@@std@@@std@@U?$less@PAVCvCity@@@3@V?$allocator@U?$pair@QAVCvCity@@V?$vector@PAVCvCity@@V?$allocator@PAVCvCity@@@std@@@std@@@std@@@3@$0A@@std@@@std@@QAEXXZ PROC ; std::_Tree<std::_Tmap_traits<CvCity *,std::vector<CvCity *,std::allocator<CvCity *> >,std::less<CvCity *>,std::allocator<std::pair<CvCity * const,std::vector<CvCity *,std::allocator<CvCity *> > > >,0> >::const_iterator::_Dec, COMDAT
; _this$ = ecx

; 321  : 
; 322  :  #if _HAS_ITERATOR_DEBUGGING
; 323  : 			if (this->_Mycont == 0
; 324  : 				|| _Ptr == 0)
; 325  : 				{
; 326  : 				_DEBUG_ERROR("map/set iterator not decrementable");
; 327  : 				_SCL_SECURE_INVALID_ARGUMENT;
; 328  : 				}
; 329  :  #else
; 330  : 			_SCL_SECURE_VALIDATE(this->_Has_container());
; 331  :  #endif /* _HAS_ITERATOR_DEBUGGING */
; 332  : 
; 333  : 			if (_Isnil(_Ptr))

	mov	eax, DWORD PTR [ecx]
	cmp	BYTE PTR [eax+33], 0
	je	SHORT $LN9@Dec

; 334  : 			{
; 335  : 				_Ptr = _Right(_Ptr);	// end() ==> rightmost

	mov	eax, DWORD PTR [eax+8]

; 359  :  #if _HAS_ITERATOR_DEBUGGING
; 360  :  					{
; 361  : 					_DEBUG_ERROR("map/set iterator not decrementable");
; 362  : 					_SCL_SECURE_OUT_OF_RANGE;
; 363  : 					}
; 364  :  #elif _SECURE_SCL
; 365  : 					{
; 366  : 					_SCL_SECURE_OUT_OF_RANGE;
; 367  : 					}
; 368  :  #else
; 369  : 					return;	// begin() shouldn't be incremented, don't move
; 370  :  #endif
; 371  : 				else
; 372  : 					_Ptr = _Pnode;	// ==> parent if not head

	mov	DWORD PTR [ecx], eax

; 373  : 				}
; 374  : 			}

	ret	0
$LN9@Dec:

; 336  :    				if (_Isnil(_Ptr))
; 337  : #if _HAS_ITERATOR_DEBUGGING
; 338  : 				{
; 339  : 					_DEBUG_ERROR("map/set iterator not decrementable");
; 340  : 					_SCL_SECURE_OUT_OF_RANGE;
; 341  : 				}
; 342  : #elif _SECURE_SCL
; 343  : 				{
; 344  :     				_SCL_SECURE_OUT_OF_RANGE;
; 345  : 				}
; 346  : #else
; 347  : 				return;	// begin() shouldn't be incremented, don't move
; 348  : #endif
; 349  : 			}
; 350  : 			else if (!_Isnil(_Left(_Ptr)))

	mov	edx, DWORD PTR [eax]
	cmp	BYTE PTR [edx+33], 0
	jne	SHORT $LN43@Dec

; 351  : 				_Ptr = _Max(_Left(_Ptr));	// ==> largest of left subtree

	mov	eax, DWORD PTR [edx+8]
	cmp	BYTE PTR [eax+33], 0
	jne	SHORT $LN24@Dec
	npad	1
$LL25@Dec:
	mov	edx, eax
	mov	eax, DWORD PTR [edx+8]
	cmp	BYTE PTR [eax+33], 0
	je	SHORT $LL25@Dec
$LN24@Dec:
	mov	DWORD PTR [ecx], edx

; 373  : 				}
; 374  : 			}

	ret	0
$LN43@Dec:

; 352  : 			else
; 353  : 				{	// climb looking for left subtree
; 354  : 				_Nodeptr _Pnode;
; 355  : 				while (!_Isnil(_Pnode = _Parent(_Ptr))
; 356  : 					&& _Ptr == _Left(_Pnode))

	mov	eax, DWORD PTR [eax+4]
	cmp	BYTE PTR [eax+33], 0
	jne	SHORT $LN3@Dec
$LL4@Dec:
	mov	edx, DWORD PTR [ecx]
	cmp	edx, DWORD PTR [eax]
	jne	SHORT $LN3@Dec

; 357  : 					_Ptr = _Pnode;	// ==> parent while left subtree

	mov	DWORD PTR [ecx], eax
	mov	eax, DWORD PTR [eax+4]
	cmp	BYTE PTR [eax+33], 0
	je	SHORT $LL4@Dec
$LN3@Dec:

; 358  : 				if (_Isnil(_Ptr))

	mov	edx, DWORD PTR [ecx]
	cmp	BYTE PTR [edx+33], 0
	jne	SHORT $LN1@Dec

; 359  :  #if _HAS_ITERATOR_DEBUGGING
; 360  :  					{
; 361  : 					_DEBUG_ERROR("map/set iterator not decrementable");
; 362  : 					_SCL_SECURE_OUT_OF_RANGE;
; 363  : 					}
; 364  :  #elif _SECURE_SCL
; 365  : 					{
; 366  : 					_SCL_SECURE_OUT_OF_RANGE;
; 367  : 					}
; 368  :  #else
; 369  : 					return;	// begin() shouldn't be incremented, don't move
; 370  :  #endif
; 371  : 				else
; 372  : 					_Ptr = _Pnode;	// ==> parent if not head

	mov	DWORD PTR [ecx], eax
$LN1@Dec:

; 373  : 				}
; 374  : 			}

	ret	0
?_Dec@const_iterator@?$_Tree@V?$_Tmap_traits@PAVCvCity@@V?$vector@PAVCvCity@@V?$allocator@PAVCvCity@@@std@@@std@@U?$less@PAVCvCity@@@3@V?$allocator@U?$pair@QAVCvCity@@V?$vector@PAVCvCity@@V?$allocator@PAVCvCity@@@std@@@std@@@std@@@3@$0A@@std@@@std@@QAEXXZ ENDP ; std::_Tree<std::_Tmap_traits<CvCity *,std::vector<CvCity *,std::allocator<CvCity *> >,std::less<CvCity *>,std::allocator<std::pair<CvCity * const,std::vector<CvCity *,std::allocator<CvCity *> > > >,0> >::const_iterator::_Dec
_TEXT	ENDS
PUBLIC	??0?$_Container_base_aux_alloc_empty@V?$allocator@U?$pair@QAVCvCity@@V?$vector@PAVCvCity@@V?$allocator@PAVCvCity@@@std@@@std@@@std@@@std@@@std@@IAE@V?$allocator@U?$pair@QAVCvCity@@V?$vector@PAVCvCity@@V?$allocator@PAVCvCity@@@std@@@std@@@std@@@1@@Z ; std::_Container_base_aux_alloc_empty<std::allocator<std::pair<CvCity * const,std::vector<CvCity *,std::allocator<CvCity *> > > > >::_Container_base_aux_alloc_empty<std::allocator<std::pair<CvCity * const,std::vector<CvCity *,std::allocator<CvCity *> > > > >
; Function compile flags: /Ogtpy
; File c:\program files (x86)\microsoft visual studio 9.0\vc\include\xutility
;	COMDAT ??0?$_Container_base_aux_alloc_empty@V?$allocator@U?$pair@QAVCvCity@@V?$vector@PAVCvCity@@V?$allocator@PAVCvCity@@@std@@@std@@@std@@@std@@@std@@IAE@V?$allocator@U?$pair@QAVCvCity@@V?$vector@PAVCvCity@@V?$allocator@PAVCvCity@@@std@@@std@@@std@@@1@@Z
_TEXT	SEGMENT
___formal$ = 8						; size = 1
??0?$_Container_base_aux_alloc_empty@V?$allocator@U?$pair@QAVCvCity@@V?$vector@PAVCvCity@@V?$allocator@PAVCvCity@@@std@@@std@@@std@@@std@@@std@@IAE@V?$allocator@U?$pair@QAVCvCity@@V?$vector@PAVCvCity@@V?$allocator@PAVCvCity@@@std@@@std@@@std@@@1@@Z PROC ; std::_Container_base_aux_alloc_empty<std::allocator<std::pair<CvCity * const,std::vector<CvCity *,std::allocator<CvCity *> > > > >::_Container_base_aux_alloc_empty<std::allocator<std::pair<CvCity * const,std::vector<CvCity *,std::allocator<CvCity *> > > > >, COMDAT
; _this$ = ecx

; 618  : 	explicit _Container_base_aux_alloc_empty(_Alloc) { }

	mov	eax, ecx
	ret	4
??0?$_Container_base_aux_alloc_empty@V?$allocator@U?$pair@QAVCvCity@@V?$vector@PAVCvCity@@V?$allocator@PAVCvCity@@@std@@@std@@@std@@@std@@@std@@IAE@V?$allocator@U?$pair@QAVCvCity@@V?$vector@PAVCvCity@@V?$allocator@PAVCvCity@@@std@@@std@@@std@@@1@@Z ENDP ; std::_Container_base_aux_alloc_empty<std::allocator<std::pair<CvCity * const,std::vector<CvCity *,std::allocator<CvCity *> > > > >::_Container_base_aux_alloc_empty<std::allocator<std::pair<CvCity * const,std::vector<CvCity *,std::allocator<CvCity *> > > > >
_TEXT	ENDS
PUBLIC	??$max@H@std@@YAABHABH0@Z			; std::max<int>
; Function compile flags: /Ogtpy
;	COMDAT ??$max@H@std@@YAABHABH0@Z
_TEXT	SEGMENT
__Left$ = 8						; size = 4
__Right$ = 12						; size = 4
??$max@H@std@@YAABHABH0@Z PROC				; std::max<int>, COMDAT

; 3384 : 	return (_DEBUG_LT(_Left, _Right) ? _Right : _Left);

	mov	eax, DWORD PTR __Left$[esp-4]
	mov	edx, DWORD PTR [eax]
	mov	ecx, DWORD PTR __Right$[esp-4]
	cmp	edx, DWORD PTR [ecx]
	jge	SHORT $LN4@max
	mov	eax, ecx
$LN4@max:

; 3385 : 	}

	ret	0
??$max@H@std@@YAABHABH0@Z ENDP				; std::max<int>
_TEXT	ENDS
PUBLIC	__TI2?AVbad_alloc@std@@
PUBLIC	??$_Allocate@PAVCvCity@@@std@@YAPAPAVCvCity@@IPAPAV1@@Z ; std::_Allocate<CvCity *>
PUBLIC	__CTA2?AVbad_alloc@std@@
PUBLIC	__CT??_R0?AVbad_alloc@std@@@8??0bad_alloc@std@@QAE@ABV01@@Z12
PUBLIC	??0bad_alloc@std@@QAE@ABV01@@Z			; std::bad_alloc::bad_alloc
EXTRN	??2@YAPAXI@Z:PROC				; operator new
;	COMDAT __CT??_R0?AVbad_alloc@std@@@8??0bad_alloc@std@@QAE@ABV01@@Z12
; File c:\program files (x86)\microsoft visual studio 9.0\vc\include\exception
xdata$x	SEGMENT
__CT??_R0?AVbad_alloc@std@@@8??0bad_alloc@std@@QAE@ABV01@@Z12 DD 00H
	DD	FLAT:??_R0?AVbad_alloc@std@@@8
	DD	00H
	DD	0ffffffffH
	ORG $+4
	DD	0cH
	DD	FLAT:??0bad_alloc@std@@QAE@ABV01@@Z
xdata$x	ENDS
;	COMDAT __CTA2?AVbad_alloc@std@@
xdata$x	SEGMENT
__CTA2?AVbad_alloc@std@@ DD 02H
	DD	FLAT:__CT??_R0?AVbad_alloc@std@@@8??0bad_alloc@std@@QAE@ABV01@@Z12
	DD	FLAT:__CT??_R0?AVexception@std@@@8??0exception@std@@QAE@ABV01@@Z12
xdata$x	ENDS
;	COMDAT __TI2?AVbad_alloc@std@@
xdata$x	SEGMENT
__TI2?AVbad_alloc@std@@ DD 00H
	DD	FLAT:??1bad_alloc@std@@UAE@XZ
	DD	00H
	DD	FLAT:__CTA2?AVbad_alloc@std@@
; Function compile flags: /Ogtpy
; File c:\program files (x86)\microsoft visual studio 9.0\vc\include\xmemory
xdata$x	ENDS
;	COMDAT ??$_Allocate@PAVCvCity@@@std@@YAPAPAVCvCity@@IPAPAV1@@Z
_TEXT	SEGMENT
$T221089 = -12						; size = 12
$T221093 = 8						; size = 4
__Count$ = 8						; size = 4
___formal$ = 12						; size = 4
??$_Allocate@PAVCvCity@@@std@@YAPAPAVCvCity@@IPAPAV1@@Z PROC ; std::_Allocate<CvCity *>, COMDAT

; 37   : 	if (_Count <= 0)

	mov	ecx, DWORD PTR __Count$[esp-4]
	sub	esp, 12					; 0000000cH
	test	ecx, ecx
	ja	SHORT $LN3@Allocate

; 38   : 		_Count = 0;

	xor	ecx, ecx
$LN1@Allocate:

; 41   : 
; 42   : 		// allocate storage for _Count elements of type _Ty
; 43   : 	return ((_Ty _FARQ *)::operator new(_Count * sizeof (_Ty)));

	lea	edx, DWORD PTR [ecx*4]
	push	edx
	call	??2@YAPAXI@Z				; operator new
	add	esp, 4

; 44   : 	}

	add	esp, 12					; 0000000cH
	ret	0
$LN3@Allocate:

; 39   : 	else if (((_SIZT)(-1) / _Count) < sizeof (_Ty))

	or	eax, -1
	xor	edx, edx
	div	ecx
	cmp	eax, 4
	jae	SHORT $LN1@Allocate

; 40   : 		_THROW_NCEE(std::bad_alloc, NULL);

	lea	eax, DWORD PTR $T221093[esp+8]
	push	eax
	lea	ecx, DWORD PTR $T221089[esp+16]
	mov	DWORD PTR $T221093[esp+12], 0
	call	DWORD PTR __imp_??0exception@std@@QAE@ABQBD@Z
	push	OFFSET __TI2?AVbad_alloc@std@@
	lea	ecx, DWORD PTR $T221089[esp+16]
	push	ecx
	mov	DWORD PTR $T221089[esp+20], OFFSET ??_7bad_alloc@std@@6B@
	call	__CxxThrowException@8
$LN9@Allocate:
$LN8@Allocate:
	int	3
??$_Allocate@PAVCvCity@@@std@@YAPAPAVCvCity@@IPAPAV1@@Z ENDP ; std::_Allocate<CvCity *>
_TEXT	ENDS
PUBLIC	??$_Destroy@PAU_Node@?$_Tree_nod@V?$_Tmap_traits@PAVCvCity@@V?$vector@PAVCvCity@@V?$allocator@PAVCvCity@@@std@@@std@@U?$less@PAVCvCity@@@3@V?$allocator@U?$pair@QAVCvCity@@V?$vector@PAVCvCity@@V?$allocator@PAVCvCity@@@std@@@std@@@std@@@3@$0A@@std@@@std@@@std@@YAXPAPAU_Node@?$_Tree_nod@V?$_Tmap_traits@PAVCvCity@@V?$vector@PAVCvCity@@V?$allocator@PAVCvCity@@@std@@@std@@U?$less@PAVCvCity@@@3@V?$allocator@U?$pair@QAVCvCity@@V?$vector@PAVCvCity@@V?$allocator@PAVCvCity@@@std@@@std@@@std@@@3@$0A@@std@@@0@@Z ; std::_Destroy<std::_Tree_nod<std::_Tmap_traits<CvCity *,std::vector<CvCity *,std::allocator<CvCity *> >,std::less<CvCity *>,std::allocator<std::pair<CvCity * const,std::vector<CvCity *,std::allocator<CvCity *> > > >,0> >::_Node *>
; Function compile flags: /Ogtpy
;	COMDAT ??$_Destroy@PAU_Node@?$_Tree_nod@V?$_Tmap_traits@PAVCvCity@@V?$vector@PAVCvCity@@V?$allocator@PAVCvCity@@@std@@@std@@U?$less@PAVCvCity@@@3@V?$allocator@U?$pair@QAVCvCity@@V?$vector@PAVCvCity@@V?$allocator@PAVCvCity@@@std@@@std@@@std@@@3@$0A@@std@@@std@@@std@@YAXPAPAU_Node@?$_Tree_nod@V?$_Tmap_traits@PAVCvCity@@V?$vector@PAVCvCity@@V?$allocator@PAVCvCity@@@std@@@std@@U?$less@PAVCvCity@@@3@V?$allocator@U?$pair@QAVCvCity@@V?$vector@PAVCvCity@@V?$allocator@PAVCvCity@@@std@@@std@@@std@@@3@$0A@@std@@@0@@Z
_TEXT	SEGMENT
__Ptr$ = 8						; size = 4
??$_Destroy@PAU_Node@?$_Tree_nod@V?$_Tmap_traits@PAVCvCity@@V?$vector@PAVCvCity@@V?$allocator@PAVCvCity@@@std@@@std@@U?$less@PAVCvCity@@@3@V?$allocator@U?$pair@QAVCvCity@@V?$vector@PAVCvCity@@V?$allocator@PAVCvCity@@@std@@@std@@@std@@@3@$0A@@std@@@std@@@std@@YAXPAPAU_Node@?$_Tree_nod@V?$_Tmap_traits@PAVCvCity@@V?$vector@PAVCvCity@@V?$allocator@PAVCvCity@@@std@@@std@@U?$less@PAVCvCity@@@3@V?$allocator@U?$pair@QAVCvCity@@V?$vector@PAVCvCity@@V?$allocator@PAVCvCity@@@std@@@std@@@std@@@3@$0A@@std@@@0@@Z PROC ; std::_Destroy<std::_Tree_nod<std::_Tmap_traits<CvCity *,std::vector<CvCity *,std::allocator<CvCity *> >,std::less<CvCity *>,std::allocator<std::pair<CvCity * const,std::vector<CvCity *,std::allocator<CvCity *> > > >,0> >::_Node *>, COMDAT

; 59   : 	_DESTRUCTOR(_Ty, _Ptr);
; 60   : 	}

	ret	0
??$_Destroy@PAU_Node@?$_Tree_nod@V?$_Tmap_traits@PAVCvCity@@V?$vector@PAVCvCity@@V?$allocator@PAVCvCity@@@std@@@std@@U?$less@PAVCvCity@@@3@V?$allocator@U?$pair@QAVCvCity@@V?$vector@PAVCvCity@@V?$allocator@PAVCvCity@@@std@@@std@@@std@@@3@$0A@@std@@@std@@@std@@YAXPAPAU_Node@?$_Tree_nod@V?$_Tmap_traits@PAVCvCity@@V?$vector@PAVCvCity@@V?$allocator@PAVCvCity@@@std@@@std@@U?$less@PAVCvCity@@@3@V?$allocator@U?$pair@QAVCvCity@@V?$vector@PAVCvCity@@V?$allocator@PAVCvCity@@@std@@@std@@@std@@@3@$0A@@std@@@0@@Z ENDP ; std::_Destroy<std::_Tree_nod<std::_Tmap_traits<CvCity *,std::vector<CvCity *,std::allocator<CvCity *> >,std::less<CvCity *>,std::allocator<std::pair<CvCity * const,std::vector<CvCity *,std::allocator<CvCity *> > > >,0> >::_Node *>
_TEXT	ENDS
PUBLIC	??$?0U?$pair@QAVCvCity@@V?$vector@PAVCvCity@@V?$allocator@PAVCvCity@@@std@@@std@@@std@@@?$allocator@PAU_Node@?$_Tree_nod@V?$_Tmap_traits@PAVCvCity@@V?$vector@PAVCvCity@@V?$allocator@PAVCvCity@@@std@@@std@@U?$less@PAVCvCity@@@3@V?$allocator@U?$pair@QAVCvCity@@V?$vector@PAVCvCity@@V?$allocator@PAVCvCity@@@std@@@std@@@std@@@3@$0A@@std@@@std@@@std@@QAE@ABV?$allocator@U?$pair@QAVCvCity@@V?$vector@PAVCvCity@@V?$allocator@PAVCvCity@@@std@@@std@@@std@@@1@@Z ; std::allocator<std::_Tree_nod<std::_Tmap_traits<CvCity *,std::vector<CvCity *,std::allocator<CvCity *> >,std::less<CvCity *>,std::allocator<std::pair<CvCity * const,std::vector<CvCity *,std::allocator<CvCity *> > > >,0> >::_Node *>::allocator<std::_Tree_nod<std::_Tmap_traits<CvCity *,std::vector<CvCity *,std::allocator<CvCity *> >,std::less<CvCity *>,std::allocator<std::pair<CvCity * const,std::vector<CvCity *,std::allocator<CvCity *> > > >,0> >::_Node *><std::pair<CvCity * const,std::vector<CvCity *,std::allocator<CvCity *> > > >
; Function compile flags: /Ogtpy
;	COMDAT ??$?0U?$pair@QAVCvCity@@V?$vector@PAVCvCity@@V?$allocator@PAVCvCity@@@std@@@std@@@std@@@?$allocator@PAU_Node@?$_Tree_nod@V?$_Tmap_traits@PAVCvCity@@V?$vector@PAVCvCity@@V?$allocator@PAVCvCity@@@std@@@std@@U?$less@PAVCvCity@@@3@V?$allocator@U?$pair@QAVCvCity@@V?$vector@PAVCvCity@@V?$allocator@PAVCvCity@@@std@@@std@@@std@@@3@$0A@@std@@@std@@@std@@QAE@ABV?$allocator@U?$pair@QAVCvCity@@V?$vector@PAVCvCity@@V?$allocator@PAVCvCity@@@std@@@std@@@std@@@1@@Z
_TEXT	SEGMENT
___formal$ = 8						; size = 4
??$?0U?$pair@QAVCvCity@@V?$vector@PAVCvCity@@V?$allocator@PAVCvCity@@@std@@@std@@@std@@@?$allocator@PAU_Node@?$_Tree_nod@V?$_Tmap_traits@PAVCvCity@@V?$vector@PAVCvCity@@V?$allocator@PAVCvCity@@@std@@@std@@U?$less@PAVCvCity@@@3@V?$allocator@U?$pair@QAVCvCity@@V?$vector@PAVCvCity@@V?$allocator@PAVCvCity@@@std@@@std@@@std@@@3@$0A@@std@@@std@@@std@@QAE@ABV?$allocator@U?$pair@QAVCvCity@@V?$vector@PAVCvCity@@V?$allocator@PAVCvCity@@@std@@@std@@@std@@@1@@Z PROC ; std::allocator<std::_Tree_nod<std::_Tmap_traits<CvCity *,std::vector<CvCity *,std::allocator<CvCity *> >,std::less<CvCity *>,std::allocator<std::pair<CvCity * const,std::vector<CvCity *,std::allocator<CvCity *> > > >,0> >::_Node *>::allocator<std::_Tree_nod<std::_Tmap_traits<CvCity *,std::vector<CvCity *,std::allocator<CvCity *> >,std::less<CvCity *>,std::allocator<std::pair<CvCity * const,std::vector<CvCity *,std::allocator<CvCity *> > > >,0> >::_Node *><std::pair<CvCity * const,std::vector<CvCity *,std::allocator<CvCity *> > > >, COMDAT
; _this$ = ecx

; 128  : 		allocator(const allocator<_Other>&) _THROW0()

	mov	eax, ecx

; 129  : 		{	// construct from a related allocator (do nothing)
; 130  : 		}

	ret	4
??$?0U?$pair@QAVCvCity@@V?$vector@PAVCvCity@@V?$allocator@PAVCvCity@@@std@@@std@@@std@@@?$allocator@PAU_Node@?$_Tree_nod@V?$_Tmap_traits@PAVCvCity@@V?$vector@PAVCvCity@@V?$allocator@PAVCvCity@@@std@@@std@@U?$less@PAVCvCity@@@3@V?$allocator@U?$pair@QAVCvCity@@V?$vector@PAVCvCity@@V?$allocator@PAVCvCity@@@std@@@std@@@std@@@3@$0A@@std@@@std@@@std@@QAE@ABV?$allocator@U?$pair@QAVCvCity@@V?$vector@PAVCvCity@@V?$allocator@PAVCvCity@@@std@@@std@@@std@@@1@@Z ENDP ; std::allocator<std::_Tree_nod<std::_Tmap_traits<CvCity *,std::vector<CvCity *,std::allocator<CvCity *> >,std::less<CvCity *>,std::allocator<std::pair<CvCity * const,std::vector<CvCity *,std::allocator<CvCity *> > > >,0> >::_Node *>::allocator<std::_Tree_nod<std::_Tmap_traits<CvCity *,std::vector<CvCity *,std::allocator<CvCity *> >,std::less<CvCity *>,std::allocator<std::pair<CvCity * const,std::vector<CvCity *,std::allocator<CvCity *> > > >,0> >::_Node *><std::pair<CvCity * const,std::vector<CvCity *,std::allocator<CvCity *> > > >
_TEXT	ENDS
PUBLIC	??$_Allocate@U_Node@?$_Tree_nod@V?$_Tmap_traits@PAVCvCity@@V?$vector@PAVCvCity@@V?$allocator@PAVCvCity@@@std@@@std@@U?$less@PAVCvCity@@@3@V?$allocator@U?$pair@QAVCvCity@@V?$vector@PAVCvCity@@V?$allocator@PAVCvCity@@@std@@@std@@@std@@@3@$0A@@std@@@std@@@std@@YAPAU_Node@?$_Tree_nod@V?$_Tmap_traits@PAVCvCity@@V?$vector@PAVCvCity@@V?$allocator@PAVCvCity@@@std@@@std@@U?$less@PAVCvCity@@@3@V?$allocator@U?$pair@QAVCvCity@@V?$vector@PAVCvCity@@V?$allocator@PAVCvCity@@@std@@@std@@@std@@@3@$0A@@std@@@0@IPAU120@@Z ; std::_Allocate<std::_Tree_nod<std::_Tmap_traits<CvCity *,std::vector<CvCity *,std::allocator<CvCity *> >,std::less<CvCity *>,std::allocator<std::pair<CvCity * const,std::vector<CvCity *,std::allocator<CvCity *> > > >,0> >::_Node>
; Function compile flags: /Ogtpy
;	COMDAT ??$_Allocate@U_Node@?$_Tree_nod@V?$_Tmap_traits@PAVCvCity@@V?$vector@PAVCvCity@@V?$allocator@PAVCvCity@@@std@@@std@@U?$less@PAVCvCity@@@3@V?$allocator@U?$pair@QAVCvCity@@V?$vector@PAVCvCity@@V?$allocator@PAVCvCity@@@std@@@std@@@std@@@3@$0A@@std@@@std@@@std@@YAPAU_Node@?$_Tree_nod@V?$_Tmap_traits@PAVCvCity@@V?$vector@PAVCvCity@@V?$allocator@PAVCvCity@@@std@@@std@@U?$less@PAVCvCity@@@3@V?$allocator@U?$pair@QAVCvCity@@V?$vector@PAVCvCity@@V?$allocator@PAVCvCity@@@std@@@std@@@std@@@3@$0A@@std@@@0@IPAU120@@Z
_TEXT	SEGMENT
$T221105 = -12						; size = 12
$T221109 = 8						; size = 4
__Count$ = 8						; size = 4
___formal$ = 12						; size = 4
??$_Allocate@U_Node@?$_Tree_nod@V?$_Tmap_traits@PAVCvCity@@V?$vector@PAVCvCity@@V?$allocator@PAVCvCity@@@std@@@std@@U?$less@PAVCvCity@@@3@V?$allocator@U?$pair@QAVCvCity@@V?$vector@PAVCvCity@@V?$allocator@PAVCvCity@@@std@@@std@@@std@@@3@$0A@@std@@@std@@@std@@YAPAU_Node@?$_Tree_nod@V?$_Tmap_traits@PAVCvCity@@V?$vector@PAVCvCity@@V?$allocator@PAVCvCity@@@std@@@std@@U?$less@PAVCvCity@@@3@V?$allocator@U?$pair@QAVCvCity@@V?$vector@PAVCvCity@@V?$allocator@PAVCvCity@@@std@@@std@@@std@@@3@$0A@@std@@@0@IPAU120@@Z PROC ; std::_Allocate<std::_Tree_nod<std::_Tmap_traits<CvCity *,std::vector<CvCity *,std::allocator<CvCity *> >,std::less<CvCity *>,std::allocator<std::pair<CvCity * const,std::vector<CvCity *,std::allocator<CvCity *> > > >,0> >::_Node>, COMDAT

; 37   : 	if (_Count <= 0)

	mov	ecx, DWORD PTR __Count$[esp-4]
	sub	esp, 12					; 0000000cH
	test	ecx, ecx
	ja	SHORT $LN3@Allocate@2

; 38   : 		_Count = 0;

	xor	ecx, ecx
$LN1@Allocate@2:

; 41   : 
; 42   : 		// allocate storage for _Count elements of type _Ty
; 43   : 	return ((_Ty _FARQ *)::operator new(_Count * sizeof (_Ty)));

	lea	edx, DWORD PTR [ecx+ecx*8]
	add	edx, edx
	add	edx, edx
	push	edx
	call	??2@YAPAXI@Z				; operator new
	add	esp, 4

; 44   : 	}

	add	esp, 12					; 0000000cH
	ret	0
$LN3@Allocate@2:

; 39   : 	else if (((_SIZT)(-1) / _Count) < sizeof (_Ty))

	or	eax, -1
	xor	edx, edx
	div	ecx
	cmp	eax, 36					; 00000024H
	jae	SHORT $LN1@Allocate@2

; 40   : 		_THROW_NCEE(std::bad_alloc, NULL);

	lea	eax, DWORD PTR $T221109[esp+8]
	push	eax
	lea	ecx, DWORD PTR $T221105[esp+16]
	mov	DWORD PTR $T221109[esp+12], 0
	call	DWORD PTR __imp_??0exception@std@@QAE@ABQBD@Z
	push	OFFSET __TI2?AVbad_alloc@std@@
	lea	ecx, DWORD PTR $T221105[esp+16]
	push	ecx
	mov	DWORD PTR $T221105[esp+20], OFFSET ??_7bad_alloc@std@@6B@
	call	__CxxThrowException@8
$LN9@Allocate@2:
$LN8@Allocate@2:
	int	3
??$_Allocate@U_Node@?$_Tree_nod@V?$_Tmap_traits@PAVCvCity@@V?$vector@PAVCvCity@@V?$allocator@PAVCvCity@@@std@@@std@@U?$less@PAVCvCity@@@3@V?$allocator@U?$pair@QAVCvCity@@V?$vector@PAVCvCity@@V?$allocator@PAVCvCity@@@std@@@std@@@std@@@3@$0A@@std@@@std@@@std@@YAPAU_Node@?$_Tree_nod@V?$_Tmap_traits@PAVCvCity@@V?$vector@PAVCvCity@@V?$allocator@PAVCvCity@@@std@@@std@@U?$less@PAVCvCity@@@3@V?$allocator@U?$pair@QAVCvCity@@V?$vector@PAVCvCity@@V?$allocator@PAVCvCity@@@std@@@std@@@std@@@3@$0A@@std@@@0@IPAU120@@Z ENDP ; std::_Allocate<std::_Tree_nod<std::_Tmap_traits<CvCity *,std::vector<CvCity *,std::allocator<CvCity *> >,std::less<CvCity *>,std::allocator<std::pair<CvCity * const,std::vector<CvCity *,std::allocator<CvCity *> > > >,0> >::_Node>
_TEXT	ENDS
PUBLIC	??$?0U?$pair@QAVCvCity@@V?$vector@PAVCvCity@@V?$allocator@PAVCvCity@@@std@@@std@@@std@@@?$allocator@U_Node@?$_Tree_nod@V?$_Tmap_traits@PAVCvCity@@V?$vector@PAVCvCity@@V?$allocator@PAVCvCity@@@std@@@std@@U?$less@PAVCvCity@@@3@V?$allocator@U?$pair@QAVCvCity@@V?$vector@PAVCvCity@@V?$allocator@PAVCvCity@@@std@@@std@@@std@@@3@$0A@@std@@@std@@@std@@QAE@ABV?$allocator@U?$pair@QAVCvCity@@V?$vector@PAVCvCity@@V?$allocator@PAVCvCity@@@std@@@std@@@std@@@1@@Z ; std::allocator<std::_Tree_nod<std::_Tmap_traits<CvCity *,std::vector<CvCity *,std::allocator<CvCity *> >,std::less<CvCity *>,std::allocator<std::pair<CvCity * const,std::vector<CvCity *,std::allocator<CvCity *> > > >,0> >::_Node>::allocator<std::_Tree_nod<std::_Tmap_traits<CvCity *,std::vector<CvCity *,std::allocator<CvCity *> >,std::less<CvCity *>,std::allocator<std::pair<CvCity * const,std::vector<CvCity *,std::allocator<CvCity *> > > >,0> >::_Node><std::pair<CvCity * const,std::vector<CvCity *,std::allocator<CvCity *> > > >
; Function compile flags: /Ogtpy
;	COMDAT ??$?0U?$pair@QAVCvCity@@V?$vector@PAVCvCity@@V?$allocator@PAVCvCity@@@std@@@std@@@std@@@?$allocator@U_Node@?$_Tree_nod@V?$_Tmap_traits@PAVCvCity@@V?$vector@PAVCvCity@@V?$allocator@PAVCvCity@@@std@@@std@@U?$less@PAVCvCity@@@3@V?$allocator@U?$pair@QAVCvCity@@V?$vector@PAVCvCity@@V?$allocator@PAVCvCity@@@std@@@std@@@std@@@3@$0A@@std@@@std@@@std@@QAE@ABV?$allocator@U?$pair@QAVCvCity@@V?$vector@PAVCvCity@@V?$allocator@PAVCvCity@@@std@@@std@@@std@@@1@@Z
_TEXT	SEGMENT
___formal$ = 8						; size = 4
??$?0U?$pair@QAVCvCity@@V?$vector@PAVCvCity@@V?$allocator@PAVCvCity@@@std@@@std@@@std@@@?$allocator@U_Node@?$_Tree_nod@V?$_Tmap_traits@PAVCvCity@@V?$vector@PAVCvCity@@V?$allocator@PAVCvCity@@@std@@@std@@U?$less@PAVCvCity@@@3@V?$allocator@U?$pair@QAVCvCity@@V?$vector@PAVCvCity@@V?$allocator@PAVCvCity@@@std@@@std@@@std@@@3@$0A@@std@@@std@@@std@@QAE@ABV?$allocator@U?$pair@QAVCvCity@@V?$vector@PAVCvCity@@V?$allocator@PAVCvCity@@@std@@@std@@@std@@@1@@Z PROC ; std::allocator<std::_Tree_nod<std::_Tmap_traits<CvCity *,std::vector<CvCity *,std::allocator<CvCity *> >,std::less<CvCity *>,std::allocator<std::pair<CvCity * const,std::vector<CvCity *,std::allocator<CvCity *> > > >,0> >::_Node>::allocator<std::_Tree_nod<std::_Tmap_traits<CvCity *,std::vector<CvCity *,std::allocator<CvCity *> >,std::less<CvCity *>,std::allocator<std::pair<CvCity * const,std::vector<CvCity *,std::allocator<CvCity *> > > >,0> >::_Node><std::pair<CvCity * const,std::vector<CvCity *,std::allocator<CvCity *> > > >, COMDAT
; _this$ = ecx

; 128  : 		allocator(const allocator<_Other>&) _THROW0()

	mov	eax, ecx

; 129  : 		{	// construct from a related allocator (do nothing)
; 130  : 		}

	ret	4
??$?0U?$pair@QAVCvCity@@V?$vector@PAVCvCity@@V?$allocator@PAVCvCity@@@std@@@std@@@std@@@?$allocator@U_Node@?$_Tree_nod@V?$_Tmap_traits@PAVCvCity@@V?$vector@PAVCvCity@@V?$allocator@PAVCvCity@@@std@@@std@@U?$less@PAVCvCity@@@3@V?$allocator@U?$pair@QAVCvCity@@V?$vector@PAVCvCity@@V?$allocator@PAVCvCity@@@std@@@std@@@std@@@3@$0A@@std@@@std@@@std@@QAE@ABV?$allocator@U?$pair@QAVCvCity@@V?$vector@PAVCvCity@@V?$allocator@PAVCvCity@@@std@@@std@@@std@@@1@@Z ENDP ; std::allocator<std::_Tree_nod<std::_Tmap_traits<CvCity *,std::vector<CvCity *,std::allocator<CvCity *> >,std::less<CvCity *>,std::allocator<std::pair<CvCity * const,std::vector<CvCity *,std::allocator<CvCity *> > > >,0> >::_Node>::allocator<std::_Tree_nod<std::_Tmap_traits<CvCity *,std::vector<CvCity *,std::allocator<CvCity *> >,std::less<CvCity *>,std::allocator<std::pair<CvCity * const,std::vector<CvCity *,std::allocator<CvCity *> > > >,0> >::_Node><std::pair<CvCity * const,std::vector<CvCity *,std::allocator<CvCity *> > > >
_TEXT	ENDS
PUBLIC	??$_Construct@PAU_Node@?$_Tree_nod@V?$_Tmap_traits@PAVCvCity@@V?$vector@PAVCvCity@@V?$allocator@PAVCvCity@@@std@@@std@@U?$less@PAVCvCity@@@3@V?$allocator@U?$pair@QAVCvCity@@V?$vector@PAVCvCity@@V?$allocator@PAVCvCity@@@std@@@std@@@std@@@3@$0A@@std@@@std@@PAU123@@std@@YAXPAPAU_Node@?$_Tree_nod@V?$_Tmap_traits@PAVCvCity@@V?$vector@PAVCvCity@@V?$allocator@PAVCvCity@@@std@@@std@@U?$less@PAVCvCity@@@3@V?$allocator@U?$pair@QAVCvCity@@V?$vector@PAVCvCity@@V?$allocator@PAVCvCity@@@std@@@std@@@std@@@3@$0A@@std@@@0@ABQAU120@@Z ; std::_Construct<std::_Tree_nod<std::_Tmap_traits<CvCity *,std::vector<CvCity *,std::allocator<CvCity *> >,std::less<CvCity *>,std::allocator<std::pair<CvCity * const,std::vector<CvCity *,std::allocator<CvCity *> > > >,0> >::_Node *,std::_Tree_nod<std::_Tmap_traits<CvCity *,std::vector<CvCity *,std::allocator<CvCity *> >,std::less<CvCity *>,std::allocator<std::pair<CvCity * const,std::vector<CvCity *,std::allocator<CvCity *> > > >,0> >::_Node *>
; Function compile flags: /Ogtpy
;	COMDAT ??$_Construct@PAU_Node@?$_Tree_nod@V?$_Tmap_traits@PAVCvCity@@V?$vector@PAVCvCity@@V?$allocator@PAVCvCity@@@std@@@std@@U?$less@PAVCvCity@@@3@V?$allocator@U?$pair@QAVCvCity@@V?$vector@PAVCvCity@@V?$allocator@PAVCvCity@@@std@@@std@@@std@@@3@$0A@@std@@@std@@PAU123@@std@@YAXPAPAU_Node@?$_Tree_nod@V?$_Tmap_traits@PAVCvCity@@V?$vector@PAVCvCity@@V?$allocator@PAVCvCity@@@std@@@std@@U?$less@PAVCvCity@@@3@V?$allocator@U?$pair@QAVCvCity@@V?$vector@PAVCvCity@@V?$allocator@PAVCvCity@@@std@@@std@@@std@@@3@$0A@@std@@@0@ABQAU120@@Z
_TEXT	SEGMENT
__Ptr$ = 8						; size = 4
__Val$ = 12						; size = 4
??$_Construct@PAU_Node@?$_Tree_nod@V?$_Tmap_traits@PAVCvCity@@V?$vector@PAVCvCity@@V?$allocator@PAVCvCity@@@std@@@std@@U?$less@PAVCvCity@@@3@V?$allocator@U?$pair@QAVCvCity@@V?$vector@PAVCvCity@@V?$allocator@PAVCvCity@@@std@@@std@@@std@@@3@$0A@@std@@@std@@PAU123@@std@@YAXPAPAU_Node@?$_Tree_nod@V?$_Tmap_traits@PAVCvCity@@V?$vector@PAVCvCity@@V?$allocator@PAVCvCity@@@std@@@std@@U?$less@PAVCvCity@@@3@V?$allocator@U?$pair@QAVCvCity@@V?$vector@PAVCvCity@@V?$allocator@PAVCvCity@@@std@@@std@@@std@@@3@$0A@@std@@@0@ABQAU120@@Z PROC ; std::_Construct<std::_Tree_nod<std::_Tmap_traits<CvCity *,std::vector<CvCity *,std::allocator<CvCity *> >,std::less<CvCity *>,std::allocator<std::pair<CvCity * const,std::vector<CvCity *,std::allocator<CvCity *> > > >,0> >::_Node *,std::_Tree_nod<std::_Tmap_traits<CvCity *,std::vector<CvCity *,std::allocator<CvCity *> >,std::less<CvCity *>,std::allocator<std::pair<CvCity * const,std::vector<CvCity *,std::allocator<CvCity *> > > >,0> >::_Node *>, COMDAT

; 51   : 	void _FARQ *_Vptr = _Ptr;
; 52   : 	::new (_Vptr) _T1(_Val);

	mov	eax, DWORD PTR __Ptr$[esp-4]
	test	eax, eax
	je	SHORT $LN3@Construct
	mov	ecx, DWORD PTR __Val$[esp-4]
	mov	edx, DWORD PTR [ecx]
	mov	DWORD PTR [eax], edx
$LN3@Construct:

; 53   : 	}

	ret	0
??$_Construct@PAU_Node@?$_Tree_nod@V?$_Tmap_traits@PAVCvCity@@V?$vector@PAVCvCity@@V?$allocator@PAVCvCity@@@std@@@std@@U?$less@PAVCvCity@@@3@V?$allocator@U?$pair@QAVCvCity@@V?$vector@PAVCvCity@@V?$allocator@PAVCvCity@@@std@@@std@@@std@@@3@$0A@@std@@@std@@PAU123@@std@@YAXPAPAU_Node@?$_Tree_nod@V?$_Tmap_traits@PAVCvCity@@V?$vector@PAVCvCity@@V?$allocator@PAVCvCity@@@std@@@std@@U?$less@PAVCvCity@@@3@V?$allocator@U?$pair@QAVCvCity@@V?$vector@PAVCvCity@@V?$allocator@PAVCvCity@@@std@@@std@@@std@@@3@$0A@@std@@@0@ABQAU120@@Z ENDP ; std::_Construct<std::_Tree_nod<std::_Tmap_traits<CvCity *,std::vector<CvCity *,std::allocator<CvCity *> >,std::less<CvCity *>,std::allocator<std::pair<CvCity * const,std::vector<CvCity *,std::allocator<CvCity *> > > >,0> >::_Node *,std::_Tree_nod<std::_Tmap_traits<CvCity *,std::vector<CvCity *,std::allocator<CvCity *> >,std::less<CvCity *>,std::allocator<std::pair<CvCity * const,std::vector<CvCity *,std::allocator<CvCity *> > > >,0> >::_Node *>
_TEXT	ENDS
PUBLIC	??$_Iter_random@PAPAVCvCity@@PAPAV1@@std@@YA?AUrandom_access_iterator_tag@0@ABQAPAVCvCity@@0@Z ; std::_Iter_random<CvCity * *,CvCity * *>
; Function compile flags: /Ogtpy
; File c:\program files (x86)\microsoft visual studio 9.0\vc\include\xutility
;	COMDAT ??$_Iter_random@PAPAVCvCity@@PAPAV1@@std@@YA?AUrandom_access_iterator_tag@0@ABQAPAVCvCity@@0@Z
_TEXT	SEGMENT
___$ReturnUdt$ = 8					; size = 4
___formal$ = 12						; size = 4
___formal$ = 16						; size = 4
??$_Iter_random@PAPAVCvCity@@PAPAV1@@std@@YA?AUrandom_access_iterator_tag@0@ABQAPAVCvCity@@0@Z PROC ; std::_Iter_random<CvCity * *,CvCity * *>, COMDAT

; 994  : 	typename _Iter_random_helper<
; 995  : 		iterator_traits<_Iter1>::iterator_category, 
; 996  : 		iterator_traits<_Iter2>::iterator_category>::_Iter_random_cat _Cat;
; 997  : 	return (_Cat);

	mov	eax, DWORD PTR ___$ReturnUdt$[esp-4]

; 998  : 	}

	ret	0
??$_Iter_random@PAPAVCvCity@@PAPAV1@@std@@YA?AUrandom_access_iterator_tag@0@ABQAPAVCvCity@@0@Z ENDP ; std::_Iter_random<CvCity * *,CvCity * *>
_TEXT	ENDS
PUBLIC	??$_Ptr_cat@PAPAVCvCity@@PAPAV1@@std@@YA?AU_Scalar_ptr_iterator_tag@0@AAPAPAVCvCity@@0@Z ; std::_Ptr_cat<CvCity * *,CvCity * *>
; Function compile flags: /Ogtpy
;	COMDAT ??$_Ptr_cat@PAPAVCvCity@@PAPAV1@@std@@YA?AU_Scalar_ptr_iterator_tag@0@AAPAPAVCvCity@@0@Z
_TEXT	SEGMENT
__Cat$ = -1						; size = 1
___formal$ = 8						; size = 4
___formal$ = 12						; size = 4
??$_Ptr_cat@PAPAVCvCity@@PAPAV1@@std@@YA?AU_Scalar_ptr_iterator_tag@0@AAPAPAVCvCity@@0@Z PROC ; std::_Ptr_cat<CvCity * *,CvCity * *>, COMDAT

; 1509 : 	{

	push	ecx

; 1510 : 	typename _Ptr_cat_helper<_T1, _T2>::_Ptr_cat _Cat;
; 1511 : 	return (_Cat);

	mov	al, BYTE PTR __Cat$[esp+4]

; 1512 : 	}

	pop	ecx
	ret	0
??$_Ptr_cat@PAPAVCvCity@@PAPAV1@@std@@YA?AU_Scalar_ptr_iterator_tag@0@AAPAPAVCvCity@@0@Z ENDP ; std::_Ptr_cat<CvCity * *,CvCity * *>
_TEXT	ENDS
PUBLIC	??$_Copy_opt@PAPAVCvCity@@PAPAV1@Urandom_access_iterator_tag@std@@@std@@YAPAPAVCvCity@@PAPAV1@00Urandom_access_iterator_tag@0@U_Scalar_ptr_iterator_tag@0@U_Range_checked_iterator_tag@0@@Z ; std::_Copy_opt<CvCity * *,CvCity * *,std::random_access_iterator_tag>
EXTRN	__imp__memmove_s:PROC
; Function compile flags: /Ogtpy
;	COMDAT ??$_Copy_opt@PAPAVCvCity@@PAPAV1@Urandom_access_iterator_tag@std@@@std@@YAPAPAVCvCity@@PAPAV1@00Urandom_access_iterator_tag@0@U_Scalar_ptr_iterator_tag@0@U_Range_checked_iterator_tag@0@@Z
_TEXT	SEGMENT
__First$ = 8						; size = 4
__Last$ = 12						; size = 4
__Dest$ = 16						; size = 4
___formal$ = 20						; size = 1
___formal$ = 24						; size = 1
___formal$ = 28						; size = 1
??$_Copy_opt@PAPAVCvCity@@PAPAV1@Urandom_access_iterator_tag@std@@@std@@YAPAPAVCvCity@@PAPAV1@00Urandom_access_iterator_tag@0@U_Scalar_ptr_iterator_tag@0@U_Range_checked_iterator_tag@0@@Z PROC ; std::_Copy_opt<CvCity * *,CvCity * *,std::random_access_iterator_tag>, COMDAT

; 2495 : 
; 2496 :  #if _HAS_ITERATOR_DEBUGGING
; 2497 : 	_DEBUG_RANGE(_First, _Last);
; 2498 : 	if (_First != _Last)
; 2499 : 		_DEBUG_POINTER(_Dest);
; 2500 :  #endif /* _HAS_ITERATOR_DEBUGGING */
; 2501 : 
; 2502 : 	ptrdiff_t _Off = _Last - _First;	// NB: non-overlapping move

	mov	eax, DWORD PTR __Last$[esp-4]
	mov	edx, DWORD PTR __First$[esp-4]
	sub	eax, edx
	push	esi
	sar	eax, 2
	push	edi

; 2503 : 	// if _OutIt is range checked, this will make sure there is enough space for the memmove
; 2504 : 	_OutIt _Result = _Dest + _Off;

	mov	edi, DWORD PTR __Dest$[esp+4]
	lea	ecx, DWORD PTR [eax*4]
	lea	esi, DWORD PTR [ecx+edi]

; 2505 : 	if (_Off > 0)

	test	eax, eax
	jle	SHORT $LN4@Copy_opt

; 2506 : 		_CRT_SECURE_MEMMOVE(&*_Dest, _Off * sizeof (*_First), &*_First, _Off * sizeof (*_First));

	push	ecx
	push	edx
	push	ecx
	push	edi
	call	DWORD PTR __imp__memmove_s
	add	esp, 16					; 00000010H
$LN4@Copy_opt:
	pop	edi

; 2507 : 	return _Result;

	mov	eax, esi
	pop	esi

; 2508 : 	}

	ret	0
??$_Copy_opt@PAPAVCvCity@@PAPAV1@Urandom_access_iterator_tag@std@@@std@@YAPAPAVCvCity@@PAPAV1@00Urandom_access_iterator_tag@0@U_Scalar_ptr_iterator_tag@0@U_Range_checked_iterator_tag@0@@Z ENDP ; std::_Copy_opt<CvCity * *,CvCity * *,std::random_access_iterator_tag>
_TEXT	ENDS
PUBLIC	??$_Destroy_range@V?$allocator@PAVCvCity@@@std@@@std@@YAXPAPAVCvCity@@0AAV?$allocator@PAVCvCity@@@0@U_Scalar_ptr_iterator_tag@0@@Z ; std::_Destroy_range<std::allocator<CvCity *> >
; Function compile flags: /Ogtpy
; File c:\program files (x86)\microsoft visual studio 9.0\vc\include\xmemory
;	COMDAT ??$_Destroy_range@V?$allocator@PAVCvCity@@@std@@@std@@YAXPAPAVCvCity@@0AAV?$allocator@PAVCvCity@@@0@U_Scalar_ptr_iterator_tag@0@@Z
_TEXT	SEGMENT
__First$ = 8						; size = 4
__Last$ = 12						; size = 4
__Al$ = 16						; size = 4
___formal$ = 20						; size = 1
??$_Destroy_range@V?$allocator@PAVCvCity@@@std@@@std@@YAXPAPAVCvCity@@0AAV?$allocator@PAVCvCity@@@0@U_Scalar_ptr_iterator_tag@0@@Z PROC ; std::_Destroy_range<std::allocator<CvCity *> >, COMDAT

; 242  : 	}

	ret	0
??$_Destroy_range@V?$allocator@PAVCvCity@@@std@@@std@@YAXPAPAVCvCity@@0AAV?$allocator@PAVCvCity@@@0@U_Scalar_ptr_iterator_tag@0@@Z ENDP ; std::_Destroy_range<std::allocator<CvCity *> >
_TEXT	ENDS
PUBLIC	??$_Fill@PAPAVCvCity@@PAV1@@std@@YAXPAPAVCvCity@@0ABQAV1@@Z ; std::_Fill<CvCity * *,CvCity *>
; Function compile flags: /Ogtpy
; File c:\program files (x86)\microsoft visual studio 9.0\vc\include\xutility
;	COMDAT ??$_Fill@PAPAVCvCity@@PAV1@@std@@YAXPAPAVCvCity@@0ABQAV1@@Z
_TEXT	SEGMENT
__First$ = 8						; size = 4
__Last$ = 12						; size = 4
__Val$ = 16						; size = 4
??$_Fill@PAPAVCvCity@@PAV1@@std@@YAXPAPAVCvCity@@0ABQAV1@@Z PROC ; std::_Fill<CvCity * *,CvCity *>, COMDAT

; 3157 : 	_DEBUG_RANGE(_First, _Last);
; 3158 : 	for (; _First != _Last; ++_First)

	mov	eax, DWORD PTR __First$[esp-4]
	mov	ecx, DWORD PTR __Last$[esp-4]
	cmp	eax, ecx
	je	SHORT $LN1@Fill
	mov	edx, DWORD PTR __Val$[esp-4]
	push	esi
$LL3@Fill:

; 3159 : 		*_First = _Val;

	mov	esi, DWORD PTR [edx]
	mov	DWORD PTR [eax], esi
	add	eax, 4
	cmp	eax, ecx
	jne	SHORT $LL3@Fill
	pop	esi
$LN1@Fill:

; 3160 : 	}

	ret	0
??$_Fill@PAPAVCvCity@@PAV1@@std@@YAXPAPAVCvCity@@0ABQAV1@@Z ENDP ; std::_Fill<CvCity * *,CvCity *>
_TEXT	ENDS
PUBLIC	??$_Move_cat@PAPAVCvCity@@@std@@YA?AU_Undefined_move_tag@0@ABQAPAVCvCity@@@Z ; std::_Move_cat<CvCity * *>
; Function compile flags: /Ogtpy
;	COMDAT ??$_Move_cat@PAPAVCvCity@@@std@@YA?AU_Undefined_move_tag@0@ABQAPAVCvCity@@@Z
_TEXT	SEGMENT
__Cat$ = -1						; size = 1
___formal$ = 8						; size = 4
??$_Move_cat@PAPAVCvCity@@@std@@YA?AU_Undefined_move_tag@0@ABQAPAVCvCity@@@Z PROC ; std::_Move_cat<CvCity * *>, COMDAT

; 1200 : 	{

	push	ecx

; 1201 : 		typename _Move_operation_category<typename iterator_traits<_Iter>::value_type>::_Move_cat _Cat;
; 1202 : 		return (_Cat);

	mov	al, BYTE PTR __Cat$[esp+4]

; 1203 : 	}

	pop	ecx
	ret	0
??$_Move_cat@PAPAVCvCity@@@std@@YA?AU_Undefined_move_tag@0@ABQAPAVCvCity@@@Z ENDP ; std::_Move_cat<CvCity * *>
_TEXT	ENDS
PUBLIC	??$_Ptr_cat@V?$_Vector_const_iterator@PAVCvCity@@V?$allocator@PAVCvCity@@@std@@@std@@PAPAVCvCity@@@std@@YA?AU_Nonscalar_ptr_iterator_tag@0@AAV?$_Vector_const_iterator@PAVCvCity@@V?$allocator@PAVCvCity@@@std@@@0@AAPAPAVCvCity@@@Z ; std::_Ptr_cat<std::_Vector_const_iterator<CvCity *,std::allocator<CvCity *> >,CvCity * *>
; Function compile flags: /Ogtpy
;	COMDAT ??$_Ptr_cat@V?$_Vector_const_iterator@PAVCvCity@@V?$allocator@PAVCvCity@@@std@@@std@@PAPAVCvCity@@@std@@YA?AU_Nonscalar_ptr_iterator_tag@0@AAV?$_Vector_const_iterator@PAVCvCity@@V?$allocator@PAVCvCity@@@std@@@0@AAPAPAVCvCity@@@Z
_TEXT	SEGMENT
__Cat$ = -1						; size = 1
___formal$ = 8						; size = 4
___formal$ = 12						; size = 4
??$_Ptr_cat@V?$_Vector_const_iterator@PAVCvCity@@V?$allocator@PAVCvCity@@@std@@@std@@PAPAVCvCity@@@std@@YA?AU_Nonscalar_ptr_iterator_tag@0@AAV?$_Vector_const_iterator@PAVCvCity@@V?$allocator@PAVCvCity@@@std@@@0@AAPAPAVCvCity@@@Z PROC ; std::_Ptr_cat<std::_Vector_const_iterator<CvCity *,std::allocator<CvCity *> >,CvCity * *>, COMDAT

; 1509 : 	{

	push	ecx

; 1510 : 	typename _Ptr_cat_helper<_T1, _T2>::_Ptr_cat _Cat;
; 1511 : 	return (_Cat);

	mov	al, BYTE PTR __Cat$[esp+4]

; 1512 : 	}

	pop	ecx
	ret	0
??$_Ptr_cat@V?$_Vector_const_iterator@PAVCvCity@@V?$allocator@PAVCvCity@@@std@@@std@@PAPAVCvCity@@@std@@YA?AU_Nonscalar_ptr_iterator_tag@0@AAV?$_Vector_const_iterator@PAVCvCity@@V?$allocator@PAVCvCity@@@std@@@0@AAPAPAVCvCity@@@Z ENDP ; std::_Ptr_cat<std::_Vector_const_iterator<CvCity *,std::allocator<CvCity *> >,CvCity * *>
_TEXT	ENDS
PUBLIC	??$_Copy_backward_opt@PAPAVCvCity@@PAPAV1@Urandom_access_iterator_tag@std@@@std@@YAPAPAVCvCity@@PAPAV1@00Urandom_access_iterator_tag@0@U_Scalar_ptr_iterator_tag@0@U_Range_checked_iterator_tag@0@@Z ; std::_Copy_backward_opt<CvCity * *,CvCity * *,std::random_access_iterator_tag>
; Function compile flags: /Ogtpy
;	COMDAT ??$_Copy_backward_opt@PAPAVCvCity@@PAPAV1@Urandom_access_iterator_tag@std@@@std@@YAPAPAVCvCity@@PAPAV1@00Urandom_access_iterator_tag@0@U_Scalar_ptr_iterator_tag@0@U_Range_checked_iterator_tag@0@@Z
_TEXT	SEGMENT
__First$ = 8						; size = 4
__Last$ = 12						; size = 4
__Dest$ = 16						; size = 4
___formal$ = 20						; size = 1
___formal$ = 24						; size = 1
___formal$ = 28						; size = 1
??$_Copy_backward_opt@PAPAVCvCity@@PAPAV1@Urandom_access_iterator_tag@std@@@std@@YAPAPAVCvCity@@PAPAV1@00Urandom_access_iterator_tag@0@U_Scalar_ptr_iterator_tag@0@U_Range_checked_iterator_tag@0@@Z PROC ; std::_Copy_backward_opt<CvCity * *,CvCity * *,std::random_access_iterator_tag>, COMDAT

; 2699 : 
; 2700 :  #if _HAS_ITERATOR_DEBUGGING
; 2701 : 	_DEBUG_RANGE(_First, _Last);
; 2702 : 	if (_First != _Last)
; 2703 : 		_DEBUG_POINTER(_Dest);
; 2704 :  #endif /* _HAS_ITERATOR_DEBUGGING */
; 2705 : 
; 2706 : 	ptrdiff_t _Off = _Last - _First;	// NB: non-overlapping move

	mov	eax, DWORD PTR __Last$[esp-4]
	mov	edx, DWORD PTR __First$[esp-4]
	sub	eax, edx
	sar	eax, 2
	push	esi

; 2707 : 	/* if _OutIt is range checked, this will make sure there is enough space for 
; 2708 : 	 * the memmove
; 2709 : 	 */
; 2710 : 	_OutIt _Result = _Dest - _Off;

	mov	esi, DWORD PTR __Dest$[esp]
	lea	ecx, DWORD PTR [eax*4]
	sub	esi, ecx

; 2711 : 	if (_Off > 0)

	test	eax, eax
	jle	SHORT $LN4@Copy_backw

; 2712 : 		_CRT_SECURE_MEMMOVE(&*_Result, _Off * sizeof (*_First), &*_First, _Off * sizeof (*_First));

	push	ecx
	push	edx
	push	ecx
	push	esi
	call	DWORD PTR __imp__memmove_s
	add	esp, 16					; 00000010H
$LN4@Copy_backw:

; 2713 : 	return _Result;

	mov	eax, esi
	pop	esi

; 2714 : 	}

	ret	0
??$_Copy_backward_opt@PAPAVCvCity@@PAPAV1@Urandom_access_iterator_tag@std@@@std@@YAPAPAVCvCity@@PAPAV1@00Urandom_access_iterator_tag@0@U_Scalar_ptr_iterator_tag@0@U_Range_checked_iterator_tag@0@@Z ENDP ; std::_Copy_backward_opt<CvCity * *,CvCity * *,std::random_access_iterator_tag>
_TEXT	ENDS
PUBLIC	??$_Iter_cat@PAPAVCvCity@@@std@@YA?AUrandom_access_iterator_tag@0@ABQAPAVCvCity@@@Z ; std::_Iter_cat<CvCity * *>
; Function compile flags: /Ogtpy
;	COMDAT ??$_Iter_cat@PAPAVCvCity@@@std@@YA?AUrandom_access_iterator_tag@0@ABQAPAVCvCity@@@Z
_TEXT	SEGMENT
___$ReturnUdt$ = 8					; size = 4
___formal$ = 12						; size = 4
??$_Iter_cat@PAPAVCvCity@@@std@@YA?AUrandom_access_iterator_tag@0@ABQAPAVCvCity@@@Z PROC ; std::_Iter_cat<CvCity * *>, COMDAT

; 953  : 	typename iterator_traits<_Iter>::iterator_category _Cat;
; 954  : 	return (_Cat);

	mov	eax, DWORD PTR ___$ReturnUdt$[esp-4]

; 955  : 	}

	ret	0
??$_Iter_cat@PAPAVCvCity@@@std@@YA?AUrandom_access_iterator_tag@0@ABQAPAVCvCity@@@Z ENDP ; std::_Iter_cat<CvCity * *>
_TEXT	ENDS
PUBLIC	??$_Construct@PAVCvCity@@PAV1@@std@@YAXPAPAVCvCity@@ABQAV1@@Z ; std::_Construct<CvCity *,CvCity *>
; Function compile flags: /Ogtpy
; File c:\program files (x86)\microsoft visual studio 9.0\vc\include\xmemory
;	COMDAT ??$_Construct@PAVCvCity@@PAV1@@std@@YAXPAPAVCvCity@@ABQAV1@@Z
_TEXT	SEGMENT
__Ptr$ = 8						; size = 4
__Val$ = 12						; size = 4
??$_Construct@PAVCvCity@@PAV1@@std@@YAXPAPAVCvCity@@ABQAV1@@Z PROC ; std::_Construct<CvCity *,CvCity *>, COMDAT

; 51   : 	void _FARQ *_Vptr = _Ptr;
; 52   : 	::new (_Vptr) _T1(_Val);

	mov	eax, DWORD PTR __Ptr$[esp-4]
	test	eax, eax
	je	SHORT $LN3@Construct@2
	mov	ecx, DWORD PTR __Val$[esp-4]
	mov	edx, DWORD PTR [ecx]
	mov	DWORD PTR [eax], edx
$LN3@Construct@2:

; 53   : 	}

	ret	0
??$_Construct@PAVCvCity@@PAV1@@std@@YAXPAPAVCvCity@@ABQAV1@@Z ENDP ; std::_Construct<CvCity *,CvCity *>
_TEXT	ENDS
PUBLIC	??$_Destroy@PAVCvCity@@@std@@YAXPAPAVCvCity@@@Z	; std::_Destroy<CvCity *>
; Function compile flags: /Ogtpy
;	COMDAT ??$_Destroy@PAVCvCity@@@std@@YAXPAPAVCvCity@@@Z
_TEXT	SEGMENT
__Ptr$ = 8						; size = 4
??$_Destroy@PAVCvCity@@@std@@YAXPAPAVCvCity@@@Z PROC	; std::_Destroy<CvCity *>, COMDAT

; 59   : 	_DESTRUCTOR(_Ty, _Ptr);
; 60   : 	}

	ret	0
??$_Destroy@PAVCvCity@@@std@@YAXPAPAVCvCity@@@Z ENDP	; std::_Destroy<CvCity *>
_TEXT	ENDS
PUBLIC	??$_Ptr_cat@V?$_Vector_iterator@PAVCvCity@@V?$allocator@PAVCvCity@@@std@@@std@@PAPAVCvCity@@@std@@YA?AU_Nonscalar_ptr_iterator_tag@0@AAV?$_Vector_iterator@PAVCvCity@@V?$allocator@PAVCvCity@@@std@@@0@AAPAPAVCvCity@@@Z ; std::_Ptr_cat<std::_Vector_iterator<CvCity *,std::allocator<CvCity *> >,CvCity * *>
; Function compile flags: /Ogtpy
; File c:\program files (x86)\microsoft visual studio 9.0\vc\include\xutility
;	COMDAT ??$_Ptr_cat@V?$_Vector_iterator@PAVCvCity@@V?$allocator@PAVCvCity@@@std@@@std@@PAPAVCvCity@@@std@@YA?AU_Nonscalar_ptr_iterator_tag@0@AAV?$_Vector_iterator@PAVCvCity@@V?$allocator@PAVCvCity@@@std@@@0@AAPAPAVCvCity@@@Z
_TEXT	SEGMENT
__Cat$ = -1						; size = 1
___formal$ = 8						; size = 4
___formal$ = 12						; size = 4
??$_Ptr_cat@V?$_Vector_iterator@PAVCvCity@@V?$allocator@PAVCvCity@@@std@@@std@@PAPAVCvCity@@@std@@YA?AU_Nonscalar_ptr_iterator_tag@0@AAV?$_Vector_iterator@PAVCvCity@@V?$allocator@PAVCvCity@@@std@@@0@AAPAPAVCvCity@@@Z PROC ; std::_Ptr_cat<std::_Vector_iterator<CvCity *,std::allocator<CvCity *> >,CvCity * *>, COMDAT

; 1509 : 	{

	push	ecx

; 1510 : 	typename _Ptr_cat_helper<_T1, _T2>::_Ptr_cat _Cat;
; 1511 : 	return (_Cat);

	mov	al, BYTE PTR __Cat$[esp+4]

; 1512 : 	}

	pop	ecx
	ret	0
??$_Ptr_cat@V?$_Vector_iterator@PAVCvCity@@V?$allocator@PAVCvCity@@@std@@@std@@PAPAVCvCity@@@std@@YA?AU_Nonscalar_ptr_iterator_tag@0@AAV?$_Vector_iterator@PAVCvCity@@V?$allocator@PAVCvCity@@@std@@@0@AAPAPAVCvCity@@@Z ENDP ; std::_Ptr_cat<std::_Vector_iterator<CvCity *,std::allocator<CvCity *> >,CvCity * *>
_TEXT	ENDS
PUBLIC	??$_Uninit_copy@PAPAVCvCity@@PAPAV1@V?$allocator@PAVCvCity@@@std@@@std@@YAPAPAVCvCity@@PAPAV1@00AAV?$allocator@PAVCvCity@@@0@U_Scalar_ptr_iterator_tag@0@U_Range_checked_iterator_tag@0@@Z ; std::_Uninit_copy<CvCity * *,CvCity * *,std::allocator<CvCity *> >
; Function compile flags: /Ogtpy
; File c:\program files (x86)\microsoft visual studio 9.0\vc\include\memory
;	COMDAT ??$_Uninit_copy@PAPAVCvCity@@PAPAV1@V?$allocator@PAVCvCity@@@std@@@std@@YAPAPAVCvCity@@PAPAV1@00AAV?$allocator@PAVCvCity@@@0@U_Scalar_ptr_iterator_tag@0@U_Range_checked_iterator_tag@0@@Z
_TEXT	SEGMENT
__First$ = 8						; size = 4
__Last$ = 12						; size = 4
__Dest$ = 16						; size = 4
___formal$ = 20						; size = 4
___formal$ = 24						; size = 1
___formal$ = 28						; size = 1
??$_Uninit_copy@PAPAVCvCity@@PAPAV1@V?$allocator@PAVCvCity@@@std@@@std@@YAPAPAVCvCity@@PAPAV1@00AAV?$allocator@PAVCvCity@@@0@U_Scalar_ptr_iterator_tag@0@U_Range_checked_iterator_tag@0@@Z PROC ; std::_Uninit_copy<CvCity * *,CvCity * *,std::allocator<CvCity *> >, COMDAT

; 146  : 	_DEBUG_RANGE(_First, _Last);
; 147  : 	_DEBUG_POINTER(_Dest);
; 148  : 	size_t _Count = (size_t)(_Last - _First);

	mov	eax, DWORD PTR __Last$[esp-4]
	mov	edx, DWORD PTR __First$[esp-4]
	sub	eax, edx
	push	esi
	sar	eax, 2
	push	edi

; 149  : 	_FwdIt _Result = _Dest + _Count;

	mov	edi, DWORD PTR __Dest$[esp+4]
	lea	ecx, DWORD PTR [eax*4]
	lea	esi, DWORD PTR [ecx+edi]

; 150  : 	if (_Count > 0)

	test	eax, eax
	jbe	SHORT $LN4@Uninit_cop

; 151  : 		_CRT_SECURE_MEMMOVE(&*_Dest, _Count * sizeof (*_First), &*_First, _Count * sizeof (*_First));	// NB: non-overlapping move

	push	ecx
	push	edx
	push	ecx
	push	edi
	call	DWORD PTR __imp__memmove_s
	add	esp, 16					; 00000010H
$LN4@Uninit_cop:
	pop	edi

; 152  : 	return (_Result);

	mov	eax, esi
	pop	esi

; 153  : 	}

	ret	0
??$_Uninit_copy@PAPAVCvCity@@PAPAV1@V?$allocator@PAVCvCity@@@std@@@std@@YAPAPAVCvCity@@PAPAV1@00AAV?$allocator@PAVCvCity@@@0@U_Scalar_ptr_iterator_tag@0@U_Range_checked_iterator_tag@0@@Z ENDP ; std::_Uninit_copy<CvCity * *,CvCity * *,std::allocator<CvCity *> >
_TEXT	ENDS
PUBLIC	??$_Fill_n@PAPAVCvCity@@IPAV1@@std@@YAXPAPAVCvCity@@IABQAV1@U_Range_checked_iterator_tag@0@@Z ; std::_Fill_n<CvCity * *,unsigned int,CvCity *>
; Function compile flags: /Ogtpy
; File c:\program files (x86)\microsoft visual studio 9.0\vc\include\xutility
;	COMDAT ??$_Fill_n@PAPAVCvCity@@IPAV1@@std@@YAXPAPAVCvCity@@IABQAV1@U_Range_checked_iterator_tag@0@@Z
_TEXT	SEGMENT
__First$ = 8						; size = 4
__Count$ = 12						; size = 4
__Val$ = 16						; size = 4
___formal$ = 20						; size = 1
??$_Fill_n@PAPAVCvCity@@IPAV1@@std@@YAXPAPAVCvCity@@IABQAV1@U_Range_checked_iterator_tag@0@@Z PROC ; std::_Fill_n<CvCity * *,unsigned int,CvCity *>, COMDAT

; 3197 : 	for (; 0 < _Count; --_Count, ++_First)

	mov	eax, DWORD PTR __Count$[esp-4]
	test	eax, eax
	jbe	SHORT $LN1@Fill_n
	mov	edx, DWORD PTR __Val$[esp-4]
	mov	ecx, DWORD PTR __First$[esp-4]
	push	esi
$LL3@Fill_n:

; 3198 : 		*_First = _Val;

	mov	esi, DWORD PTR [edx]
	mov	DWORD PTR [ecx], esi
	dec	eax
	add	ecx, 4
	test	eax, eax
	ja	SHORT $LL3@Fill_n
	pop	esi
$LN1@Fill_n:

; 3199 : 	}

	ret	0
??$_Fill_n@PAPAVCvCity@@IPAV1@@std@@YAXPAPAVCvCity@@IABQAV1@U_Range_checked_iterator_tag@0@@Z ENDP ; std::_Fill_n<CvCity * *,unsigned int,CvCity *>
_TEXT	ENDS
EXTRN	__imp_??0exception@std@@QAE@ABV01@@Z:PROC
;	COMDAT xdata$x
xdata$x	SEGMENT
__unwindtable$??0logic_error@std@@QAE@ABV01@@Z DD 0ffffffffH
	DD	FLAT:__unwindfunclet$??0logic_error@std@@QAE@ABV01@@Z$0
__ehfuncinfo$??0logic_error@std@@QAE@ABV01@@Z DD 019930522H
	DD	01H
	DD	FLAT:__unwindtable$??0logic_error@std@@QAE@ABV01@@Z
	DD	2 DUP(00H)
	DD	2 DUP(00H)
	DD	00H
	DD	01H
; Function compile flags: /Ogtpy
xdata$x	ENDS
;	COMDAT ??0logic_error@std@@QAE@ABV01@@Z
_TEXT	SEGMENT
_this$ = -16						; size = 4
__$EHRec$ = -12						; size = 12
___that$ = 8						; size = 4
??0logic_error@std@@QAE@ABV01@@Z PROC			; std::logic_error::logic_error, COMDAT
; _this$ = ecx
	push	-1
	push	__ehhandler$??0logic_error@std@@QAE@ABV01@@Z
	mov	eax, DWORD PTR fs:0
	push	eax
	mov	DWORD PTR fs:0, esp
	push	ecx
	push	esi
	push	edi
	mov	edi, DWORD PTR ___that$[esp+20]
	mov	esi, ecx
	push	edi
	mov	DWORD PTR _this$[esp+28], esi
	call	DWORD PTR __imp_??0exception@std@@QAE@ABV01@@Z
	add	edi, 12					; 0000000cH
	push	edi
	lea	ecx, DWORD PTR [esi+12]
	mov	DWORD PTR __$EHRec$[esp+36], 0
	mov	DWORD PTR [esi], OFFSET ??_7logic_error@std@@6B@
	call	DWORD PTR __imp_??0?$basic_string@DU?$char_traits@D@std@@V?$allocator@D@2@@std@@QAE@ABV01@@Z
	mov	ecx, DWORD PTR __$EHRec$[esp+24]
	pop	edi
	mov	eax, esi
	pop	esi
	mov	DWORD PTR fs:0, ecx
	add	esp, 16					; 00000010H
	ret	4
_TEXT	ENDS
;	COMDAT text$x
text$x	SEGMENT
__unwindfunclet$??0logic_error@std@@QAE@ABV01@@Z$0:
	mov	ecx, DWORD PTR _this$[ebp]
	jmp	DWORD PTR __imp_??1exception@std@@UAE@XZ
__ehhandler$??0logic_error@std@@QAE@ABV01@@Z:
	mov	eax, OFFSET __ehfuncinfo$??0logic_error@std@@QAE@ABV01@@Z
	jmp	___CxxFrameHandler3
text$x	ENDS
??0logic_error@std@@QAE@ABV01@@Z ENDP			; std::logic_error::logic_error
PUBLIC	?getMap@CvGlobals@@QAEAAVCvMap@@XZ		; CvGlobals::getMap
; Function compile flags: /Ogtpy
; File c:\users\enormousapplepie\documents\github\lekmod\lekmod_dll\cvgamecoredll_expansion2\cvglobals.h
;	COMDAT ?getMap@CvGlobals@@QAEAAVCvMap@@XZ
_TEXT	SEGMENT
?getMap@CvGlobals@@QAEAAVCvMap@@XZ PROC			; CvGlobals::getMap, COMDAT
; _this$ = ecx

; 175  : 		return *m_map;    // inlined for perf reasons, do not use outside of dll

	mov	eax, DWORD PTR [ecx+52]

; 176  : 	}

	ret	0
?getMap@CvGlobals@@QAEAAVCvMap@@XZ ENDP			; CvGlobals::getMap
_TEXT	ENDS
PUBLIC	?getGridWidth@CvMap@@QBEHXZ			; CvMap::getGridWidth
; Function compile flags: /Ogtpy
; File c:\users\enormousapplepie\documents\github\lekmod\lekmod_dll\cvgamecoredll_expansion2\cvmap.h
;	COMDAT ?getGridWidth@CvMap@@QBEHXZ
_TEXT	SEGMENT
?getGridWidth@CvMap@@QBEHXZ PROC			; CvMap::getGridWidth, COMDAT
; _this$ = ecx

; 198  : 		return m_iGridWidth;

	mov	eax, DWORD PTR [ecx+4020]

; 199  : 	}

	ret	0
?getGridWidth@CvMap@@QBEHXZ ENDP			; CvMap::getGridWidth
_TEXT	ENDS
PUBLIC	?getGridHeight@CvMap@@QBEHXZ			; CvMap::getGridHeight
; Function compile flags: /Ogtpy
;	COMDAT ?getGridHeight@CvMap@@QBEHXZ
_TEXT	SEGMENT
?getGridHeight@CvMap@@QBEHXZ PROC			; CvMap::getGridHeight, COMDAT
; _this$ = ecx

; 206  : 		return m_iGridHeight;

	mov	eax, DWORD PTR [ecx+4024]

; 207  : 	}

	ret	0
?getGridHeight@CvMap@@QBEHXZ ENDP			; CvMap::getGridHeight
_TEXT	ENDS
PUBLIC	?isWrapX@CvMap@@QBE_NXZ				; CvMap::isWrapX
; Function compile flags: /Ogtpy
;	COMDAT ?isWrapX@CvMap@@QBE_NXZ
_TEXT	SEGMENT
?isWrapX@CvMap@@QBE_NXZ PROC				; CvMap::isWrapX, COMDAT
; _this$ = ecx

; 228  : 		return m_bWrapX;

	mov	al, BYTE PTR [ecx+4056]

; 229  : 	}

	ret	0
?isWrapX@CvMap@@QBE_NXZ ENDP				; CvMap::isWrapX
_TEXT	ENDS
PUBLIC	?isWrapY@CvMap@@QBE_NXZ				; CvMap::isWrapY
; Function compile flags: /Ogtpy
;	COMDAT ?isWrapY@CvMap@@QBE_NXZ
_TEXT	SEGMENT
?isWrapY@CvMap@@QBE_NXZ PROC				; CvMap::isWrapY, COMDAT
; _this$ = ecx

; 233  : 		return m_bWrapY;

	mov	al, BYTE PTR [ecx+4057]

; 234  : 	}

	ret	0
?isWrapY@CvMap@@QBE_NXZ ENDP				; CvMap::isWrapY
; Function compile flags: /Ogtpy
_TEXT	ENDS
;	COMDAT ??0length_error@std@@QAE@ABV01@@Z
_TEXT	SEGMENT
___that$ = 8						; size = 4
??0length_error@std@@QAE@ABV01@@Z PROC			; std::length_error::length_error, COMDAT
; _this$ = ecx
	mov	eax, DWORD PTR ___that$[esp-4]
	push	esi
	push	eax
	mov	esi, ecx
	call	??0logic_error@std@@QAE@ABV01@@Z
	mov	DWORD PTR [esi], OFFSET ??_7length_error@std@@6B@
	mov	eax, esi
	pop	esi
	ret	4
??0length_error@std@@QAE@ABV01@@Z ENDP			; std::length_error::length_error
_TEXT	ENDS
PUBLIC	??$swap@D@std@@YAXAAD0@Z			; std::swap<char>
; Function compile flags: /Ogtpy
; File c:\program files (x86)\microsoft visual studio 9.0\vc\include\utility
;	COMDAT ??$swap@D@std@@YAXAAD0@Z
_TEXT	SEGMENT
__Left$ = 8						; size = 4
__Right$ = 12						; size = 4
??$swap@D@std@@YAXAAD0@Z PROC				; std::swap<char>, COMDAT

; 18   : 	if (&_Left != &_Right)

	mov	eax, DWORD PTR __Left$[esp-4]
	mov	ecx, DWORD PTR __Right$[esp-4]
	cmp	eax, ecx
	je	SHORT $LN1@swap

; 19   : 		{	// different, worth swapping
; 20   : 		_Ty _Tmp = _Left;

	mov	dl, BYTE PTR [eax]
	push	ebx

; 21   : 
; 22   : 		_Left = _Right;

	mov	bl, BYTE PTR [ecx]
	mov	BYTE PTR [eax], bl

; 23   : 		_Right = _Tmp;

	mov	BYTE PTR [ecx], dl
	pop	ebx
$LN1@swap:

; 24   : 		}
; 25   : 	}

	ret	0
??$swap@D@std@@YAXAAD0@Z ENDP				; std::swap<char>
_TEXT	ENDS
PUBLIC	??B?$FAutoVariable@HVCvCity@@@@QBEABHXZ		; FAutoVariable<int,CvCity>::operator int const &
; Function compile flags: /Ogtpy
; File c:\users\enormousapplepie\documents\github\lekmod\lekmod_dll\fireplace\include\fireworks\fautovariable.h
;	COMDAT ??B?$FAutoVariable@HVCvCity@@@@QBEABHXZ
_TEXT	SEGMENT
??B?$FAutoVariable@HVCvCity@@@@QBEABHXZ PROC		; FAutoVariable<int,CvCity>::operator int const &, COMDAT
; _this$ = ecx

; 194  : 	return m_value;

	lea	eax, DWORD PTR [ecx+4]

; 195  : }

	ret	0
??B?$FAutoVariable@HVCvCity@@@@QBEABHXZ ENDP		; FAutoVariable<int,CvCity>::operator int const &
; Function compile flags: /Ogtpy
_TEXT	ENDS
;	COMDAT ??0bad_alloc@std@@QAE@ABV01@@Z
_TEXT	SEGMENT
___that$ = 8						; size = 4
??0bad_alloc@std@@QAE@ABV01@@Z PROC			; std::bad_alloc::bad_alloc, COMDAT
; _this$ = ecx
	mov	eax, DWORD PTR ___that$[esp-4]
	push	esi
	push	eax
	mov	esi, ecx
	call	DWORD PTR __imp_??0exception@std@@QAE@ABV01@@Z
	mov	DWORD PTR [esi], OFFSET ??_7bad_alloc@std@@6B@
	mov	eax, esi
	pop	esi
	ret	4
??0bad_alloc@std@@QAE@ABV01@@Z ENDP			; std::bad_alloc::bad_alloc
_TEXT	ENDS
PUBLIC	?dxWrap@@YAHH@Z					; dxWrap
EXTRN	?gGlobals@@3VCvGlobals@@A:BYTE			; gGlobals
; Function compile flags: /Ogtpy
; File c:\users\enormousapplepie\documents\github\lekmod\lekmod_dll\cvgamecoredll_expansion2\cvgamecoreutils.h
;	COMDAT ?dxWrap@@YAHH@Z
_TEXT	SEGMENT
_iDX$ = 8						; size = 4
?dxWrap@@YAHH@Z PROC					; dxWrap, COMDAT

; 74   : 	const CvMap& kMap = GC.getMap();

	mov	eax, DWORD PTR ?gGlobals@@3VCvGlobals@@A+52

; 75   : 	return wrapCoordDifference(iDX, kMap.getGridWidth(), kMap.isWrapX());

	mov	edx, DWORD PTR [eax+4020]
	cmp	BYTE PTR [eax+4056], 0
	mov	eax, DWORD PTR _iDX$[esp-4]
	je	SHORT $LN13@dxWrap
	mov	ecx, edx
	shr	ecx, 1
	cmp	eax, ecx
	jle	SHORT $LN11@dxWrap
	sub	eax, edx

; 76   : }

	ret	0

; 75   : 	return wrapCoordDifference(iDX, kMap.getGridWidth(), kMap.isWrapX());

$LN11@dxWrap:
	neg	ecx
	cmp	eax, ecx
	jge	SHORT $LN13@dxWrap
	add	eax, edx
$LN13@dxWrap:

; 76   : }

	ret	0
?dxWrap@@YAHH@Z ENDP					; dxWrap
_TEXT	ENDS
PUBLIC	?dyWrap@@YAHH@Z					; dyWrap
; Function compile flags: /Ogtpy
;	COMDAT ?dyWrap@@YAHH@Z
_TEXT	SEGMENT
_iDY$ = 8						; size = 4
?dyWrap@@YAHH@Z PROC					; dyWrap, COMDAT

; 80   : 	const CvMap& kMap = GC.getMap();

	mov	eax, DWORD PTR ?gGlobals@@3VCvGlobals@@A+52

; 81   : 	return wrapCoordDifference(iDY, kMap.getGridHeight(), kMap.isWrapY());

	mov	edx, DWORD PTR [eax+4024]
	cmp	BYTE PTR [eax+4057], 0
	mov	eax, DWORD PTR _iDY$[esp-4]
	je	SHORT $LN13@dyWrap
	mov	ecx, edx
	shr	ecx, 1
	cmp	eax, ecx
	jle	SHORT $LN11@dyWrap
	sub	eax, edx

; 82   : }

	ret	0

; 81   : 	return wrapCoordDifference(iDY, kMap.getGridHeight(), kMap.isWrapY());

$LN11@dyWrap:
	neg	ecx
	cmp	eax, ecx
	jge	SHORT $LN13@dyWrap
	add	eax, edx
$LN13@dyWrap:

; 82   : }

	ret	0
?dyWrap@@YAHH@Z ENDP					; dyWrap
_TEXT	ENDS
PUBLIC	?plotDistance@@YAHHHHH@Z			; plotDistance
; Function compile flags: /Ogtpy
;	COMDAT ?plotDistance@@YAHHHHH@Z
_TEXT	SEGMENT
_iDX$ = 8						; size = 4
_iX1$ = 8						; size = 4
_iY1$ = 12						; size = 4
_iDY$ = 16						; size = 4
_iX2$ = 16						; size = 4
_iY2$ = 20						; size = 4
?plotDistance@@YAHHHHH@Z PROC				; plotDistance, COMDAT

; 145  : 	int iDX;
; 146  : 	int iWrappedDX = dxWrap(iX2 - iX1);

	mov	eax, DWORD PTR _iX2$[esp-4]
	sub	eax, DWORD PTR _iX1$[esp-4]
	push	ebx
	mov	ebx, DWORD PTR ?gGlobals@@3VCvGlobals@@A+52
	cmp	BYTE PTR [ebx+4056], 0
	mov	edx, DWORD PTR [ebx+4020]
	push	ebp
	push	esi
	je	SHORT $LN13@plotDistan
	mov	ecx, edx
	shr	ecx, 1
	cmp	eax, ecx
	jle	SHORT $LN15@plotDistan
	sub	eax, edx
	jmp	SHORT $LN13@plotDistan
$LN15@plotDistan:
	neg	ecx
	cmp	eax, ecx
	lea	ecx, DWORD PTR [edx+eax]
	jl	SHORT $LN17@plotDistan
$LN13@plotDistan:
	mov	ecx, eax
$LN17@plotDistan:

; 147  : 	int iWrappedDY = dyWrap(iY2 - iY1);

	mov	eax, DWORD PTR _iY2$[esp+8]
	mov	esi, DWORD PTR [ebx+4024]
	push	edi
	mov	edi, DWORD PTR _iY1$[esp+12]
	sub	eax, edi
	cmp	BYTE PTR [ebx+4057], 0
	je	SHORT $LN27@plotDistan
	mov	edx, esi
	shr	edx, 1
	cmp	eax, edx
	jle	SHORT $LN29@plotDistan
	sub	eax, esi
	jmp	SHORT $LN27@plotDistan
$LN29@plotDistan:
	neg	edx
	cmp	eax, edx
	lea	ebp, DWORD PTR [esi+eax]
	jl	SHORT $LN31@plotDistan
$LN27@plotDistan:
	mov	ebp, eax
$LN31@plotDistan:

; 148  : 	int iDY = abs(iWrappedDY);

	mov	eax, ebp
	cdq
	xor	eax, edx
	sub	eax, edx
	mov	DWORD PTR _iDY$[esp+12], eax

; 149  : 
; 150  : 	// convert to hex-space coordinates - the coordinate system axes are E and NE (not orthogonal)
; 151  : 	int iHX1 = xToHexspaceX(iX1, iY1);

	test	edi, edi
	jl	SHORT $LN35@plotDistan
	mov	eax, edi
	jmp	SHORT $LN59@plotDistan
$LN35@plotDistan:
	lea	eax, DWORD PTR [edi-1]
	cdq
	sub	eax, edx
$LN59@plotDistan:
	mov	esi, DWORD PTR _iX1$[esp+12]
	sar	eax, 1
	sub	esi, eax

; 152  : 	int iHX2 = xToHexspaceX(iX1 + iWrappedDX, iY1 + iWrappedDY);

	lea	eax, DWORD PTR [edi+ebp]
	pop	edi
	test	eax, eax
	jge	SHORT $LN60@plotDistan
	dec	eax
	cdq
	sub	eax, edx
$LN60@plotDistan:

; 153  : 
; 154  : 	iDX = abs(dxWrap(iHX2 - iHX1));

	mov	edx, DWORD PTR [ebx+4020]
	sar	eax, 1
	sub	ecx, eax
	add	ecx, DWORD PTR _iX1$[esp+8]
	sub	ecx, esi
	cmp	BYTE PTR [ebx+4056], 0
	je	SHORT $LN49@plotDistan
	mov	eax, edx
	shr	eax, 1
	cmp	ecx, eax
	jle	SHORT $LN51@plotDistan
	mov	eax, ecx
	sub	eax, edx
	jmp	SHORT $LN53@plotDistan
$LN51@plotDistan:
	neg	eax
	cmp	ecx, eax
	lea	eax, DWORD PTR [edx+ecx]
	jl	SHORT $LN53@plotDistan
$LN49@plotDistan:
	mov	eax, ecx
$LN53@plotDistan:
	cdq
	xor	eax, edx
	sub	eax, edx

; 155  : 
; 156  : #ifdef NQM_GAME_CORE_UTILS_OPTIMIZATIONS
; 157  : 	if (((iHX2 - iHX1) ^ (iWrappedDY)) >= 0)  // the signs match
; 158  : #else
; 159  : 	if((iHX2 - iHX1 >= 0) == (iWrappedDY >= 0))  // the signs match

	xor	edx, edx
	test	ecx, ecx
	setge	dl
	xor	ecx, ecx
	test	ebp, ebp
	setge	cl
	pop	esi
	pop	ebp
	mov	DWORD PTR _iDX$[esp], eax
	pop	ebx
	cmp	edx, ecx
	jne	SHORT $LN2@plotDistan

; 160  : #endif
; 161  : 	{
; 162  : 		return iDX + iDY;

	mov	edx, DWORD PTR _iDY$[esp-4]
	add	eax, edx

; 170  : #endif
; 171  : 	}
; 172  : }

	ret	0
$LN2@plotDistan:

; 163  : 	}
; 164  : 	else
; 165  : 	{
; 166  : #ifdef NQM_FAST_COMP
; 167  : 		return (MAX(iDX, iDY));
; 168  : #else
; 169  : 		return (std::max(iDX, iDY));

	cmp	eax, DWORD PTR _iDY$[esp-4]
	lea	eax, DWORD PTR _iDY$[esp-4]
	jl	SHORT $LN58@plotDistan
	lea	eax, DWORD PTR _iDX$[esp-4]
$LN58@plotDistan:
	mov	eax, DWORD PTR [eax]

; 170  : #endif
; 171  : 	}
; 172  : }

	ret	0
?plotDistance@@YAHHHHH@Z ENDP				; plotDistance
_TEXT	ENDS
PUBLIC	??D?$_Vector_iterator@PAVCvCity@@V?$allocator@PAVCvCity@@@std@@@std@@QBEAAPAVCvCity@@XZ ; std::_Vector_iterator<CvCity *,std::allocator<CvCity *> >::operator*
; Function compile flags: /Ogtpy
; File c:\program files (x86)\microsoft visual studio 9.0\vc\include\vector
;	COMDAT ??D?$_Vector_iterator@PAVCvCity@@V?$allocator@PAVCvCity@@@std@@@std@@QBEAAPAVCvCity@@XZ
_TEXT	SEGMENT
??D?$_Vector_iterator@PAVCvCity@@V?$allocator@PAVCvCity@@@std@@@std@@QBEAAPAVCvCity@@XZ PROC ; std::_Vector_iterator<CvCity *,std::allocator<CvCity *> >::operator*, COMDAT
; _this$ = ecx

; 339  : 		return ((reference)**(_Mybase *)this);

	mov	eax, DWORD PTR [ecx]

; 340  : 		}

	ret	0
??D?$_Vector_iterator@PAVCvCity@@V?$allocator@PAVCvCity@@@std@@@std@@QBEAAPAVCvCity@@XZ ENDP ; std::_Vector_iterator<CvCity *,std::allocator<CvCity *> >::operator*
_TEXT	ENDS
PUBLIC	??E?$_Vector_iterator@PAVCvCity@@V?$allocator@PAVCvCity@@@std@@@std@@QAEAAV01@XZ ; std::_Vector_iterator<CvCity *,std::allocator<CvCity *> >::operator++
; Function compile flags: /Ogtpy
;	COMDAT ??E?$_Vector_iterator@PAVCvCity@@V?$allocator@PAVCvCity@@@std@@@std@@QAEAAV01@XZ
_TEXT	SEGMENT
??E?$_Vector_iterator@PAVCvCity@@V?$allocator@PAVCvCity@@@std@@@std@@QAEAAV01@XZ PROC ; std::_Vector_iterator<CvCity *,std::allocator<CvCity *> >::operator++, COMDAT
; _this$ = ecx

; 348  : 		{	// preincrement

	mov	eax, ecx

; 349  : 		++(*(_Mybase *)this);

	add	DWORD PTR [eax], 4

; 350  : 		return (*this);
; 351  : 		}

	ret	0
??E?$_Vector_iterator@PAVCvCity@@V?$allocator@PAVCvCity@@@std@@@std@@QAEAAV01@XZ ENDP ; std::_Vector_iterator<CvCity *,std::allocator<CvCity *> >::operator++
_TEXT	ENDS
PUBLIC	??9?$_Vector_const_iterator@PAVCvCity@@V?$allocator@PAVCvCity@@@std@@@std@@QBE_NABV01@@Z ; std::_Vector_const_iterator<CvCity *,std::allocator<CvCity *> >::operator!=
; Function compile flags: /Ogtpy
;	COMDAT ??9?$_Vector_const_iterator@PAVCvCity@@V?$allocator@PAVCvCity@@@std@@@std@@QBE_NABV01@@Z
_TEXT	SEGMENT
__Right$ = 8						; size = 4
??9?$_Vector_const_iterator@PAVCvCity@@V?$allocator@PAVCvCity@@@std@@@std@@QBE_NABV01@@Z PROC ; std::_Vector_const_iterator<CvCity *,std::allocator<CvCity *> >::operator!=, COMDAT
; _this$ = ecx

; 216  : 		return (!(*this == _Right));

	mov	eax, DWORD PTR [ecx]
	mov	edx, DWORD PTR __Right$[esp-4]
	xor	ecx, ecx
	cmp	eax, DWORD PTR [edx]
	setne	cl
	mov	al, cl

; 217  : 		}

	ret	4
??9?$_Vector_const_iterator@PAVCvCity@@V?$allocator@PAVCvCity@@@std@@@std@@QBE_NABV01@@Z ENDP ; std::_Vector_const_iterator<CvCity *,std::allocator<CvCity *> >::operator!=
_TEXT	ENDS
PUBLIC	??Dconst_iterator@?$_Tree@V?$_Tmap_traits@PAVCvCity@@V?$vector@PAVCvCity@@V?$allocator@PAVCvCity@@@std@@@std@@U?$less@PAVCvCity@@@3@V?$allocator@U?$pair@QAVCvCity@@V?$vector@PAVCvCity@@V?$allocator@PAVCvCity@@@std@@@std@@@std@@@3@$0A@@std@@@std@@QBEABU?$pair@QAVCvCity@@V?$vector@PAVCvCity@@V?$allocator@PAVCvCity@@@std@@@std@@@2@XZ ; std::_Tree<std::_Tmap_traits<CvCity *,std::vector<CvCity *,std::allocator<CvCity *> >,std::less<CvCity *>,std::allocator<std::pair<CvCity * const,std::vector<CvCity *,std::allocator<CvCity *> > > >,0> >::const_iterator::operator*
; Function compile flags: /Ogtpy
; File c:\program files (x86)\microsoft visual studio 9.0\vc\include\xtree
;	COMDAT ??Dconst_iterator@?$_Tree@V?$_Tmap_traits@PAVCvCity@@V?$vector@PAVCvCity@@V?$allocator@PAVCvCity@@@std@@@std@@U?$less@PAVCvCity@@@3@V?$allocator@U?$pair@QAVCvCity@@V?$vector@PAVCvCity@@V?$allocator@PAVCvCity@@@std@@@std@@@std@@@3@$0A@@std@@@std@@QBEABU?$pair@QAVCvCity@@V?$vector@PAVCvCity@@V?$allocator@PAVCvCity@@@std@@@std@@@2@XZ
_TEXT	SEGMENT
??Dconst_iterator@?$_Tree@V?$_Tmap_traits@PAVCvCity@@V?$vector@PAVCvCity@@V?$allocator@PAVCvCity@@@std@@@std@@U?$less@PAVCvCity@@@3@V?$allocator@U?$pair@QAVCvCity@@V?$vector@PAVCvCity@@V?$allocator@PAVCvCity@@@std@@@std@@@std@@@3@$0A@@std@@@std@@QBEABU?$pair@QAVCvCity@@V?$vector@PAVCvCity@@V?$allocator@PAVCvCity@@@std@@@std@@@2@XZ PROC ; std::_Tree<std::_Tmap_traits<CvCity *,std::vector<CvCity *,std::allocator<CvCity *> >,std::less<CvCity *>,std::allocator<std::pair<CvCity * const,std::vector<CvCity *,std::allocator<CvCity *> > > >,0> >::const_iterator::operator*, COMDAT
; _this$ = ecx

; 250  : 
; 251  :  #if _HAS_ITERATOR_DEBUGGING
; 252  : 			if (this->_Mycont == 0
; 253  : 				|| _Ptr == 0
; 254  : 				|| _Ptr == ((_Myt *)this->_Mycont)->_Myhead)
; 255  : 				{
; 256  : 				_DEBUG_ERROR("map/set iterator not dereferencable");
; 257  : 				_SCL_SECURE_OUT_OF_RANGE;
; 258  : 				}
; 259  :  #else
; 260  : 			_SCL_SECURE_VALIDATE(this->_Has_container());
; 261  : 			_SCL_SECURE_VALIDATE_RANGE(_Ptr != ((_Myt *)(this->_Getmycont()))->_Myhead);
; 262  :  #endif /* _HAS_ITERATOR_DEBUGGING */
; 263  : 
; 264  : 			return (_Myval(_Ptr));

	mov	eax, DWORD PTR [ecx]
	add	eax, 12					; 0000000cH

; 265  : 			}

	ret	0
??Dconst_iterator@?$_Tree@V?$_Tmap_traits@PAVCvCity@@V?$vector@PAVCvCity@@V?$allocator@PAVCvCity@@@std@@@std@@U?$less@PAVCvCity@@@3@V?$allocator@U?$pair@QAVCvCity@@V?$vector@PAVCvCity@@V?$allocator@PAVCvCity@@@std@@@std@@@std@@@3@$0A@@std@@@std@@QBEABU?$pair@QAVCvCity@@V?$vector@PAVCvCity@@V?$allocator@PAVCvCity@@@std@@@std@@@2@XZ ENDP ; std::_Tree<std::_Tmap_traits<CvCity *,std::vector<CvCity *,std::allocator<CvCity *> >,std::less<CvCity *>,std::allocator<std::pair<CvCity * const,std::vector<CvCity *,std::allocator<CvCity *> > > >,0> >::const_iterator::operator*
_TEXT	ENDS
PUBLIC	??9const_iterator@?$_Tree@V?$_Tmap_traits@PAVCvCity@@V?$vector@PAVCvCity@@V?$allocator@PAVCvCity@@@std@@@std@@U?$less@PAVCvCity@@@3@V?$allocator@U?$pair@QAVCvCity@@V?$vector@PAVCvCity@@V?$allocator@PAVCvCity@@@std@@@std@@@std@@@3@$0A@@std@@@std@@QBE_NABV012@@Z ; std::_Tree<std::_Tmap_traits<CvCity *,std::vector<CvCity *,std::allocator<CvCity *> >,std::less<CvCity *>,std::allocator<std::pair<CvCity * const,std::vector<CvCity *,std::allocator<CvCity *> > > >,0> >::const_iterator::operator!=
; Function compile flags: /Ogtpy
;	COMDAT ??9const_iterator@?$_Tree@V?$_Tmap_traits@PAVCvCity@@V?$vector@PAVCvCity@@V?$allocator@PAVCvCity@@@std@@@std@@U?$less@PAVCvCity@@@3@V?$allocator@U?$pair@QAVCvCity@@V?$vector@PAVCvCity@@V?$allocator@PAVCvCity@@@std@@@std@@@std@@@3@$0A@@std@@@std@@QBE_NABV012@@Z
_TEXT	SEGMENT
__Right$ = 8						; size = 4
??9const_iterator@?$_Tree@V?$_Tmap_traits@PAVCvCity@@V?$vector@PAVCvCity@@V?$allocator@PAVCvCity@@@std@@@std@@U?$less@PAVCvCity@@@3@V?$allocator@U?$pair@QAVCvCity@@V?$vector@PAVCvCity@@V?$allocator@PAVCvCity@@@std@@@std@@@std@@@3@$0A@@std@@@std@@QBE_NABV012@@Z PROC ; std::_Tree<std::_Tmap_traits<CvCity *,std::vector<CvCity *,std::allocator<CvCity *> >,std::less<CvCity *>,std::allocator<std::pair<CvCity * const,std::vector<CvCity *,std::allocator<CvCity *> > > >,0> >::const_iterator::operator!=, COMDAT
; _this$ = ecx

; 316  : 			return (!(*this == _Right));

	mov	eax, DWORD PTR [ecx]
	mov	edx, DWORD PTR __Right$[esp-4]
	xor	ecx, ecx
	cmp	eax, DWORD PTR [edx]
	setne	cl
	mov	al, cl

; 317  : 			}

	ret	4
??9const_iterator@?$_Tree@V?$_Tmap_traits@PAVCvCity@@V?$vector@PAVCvCity@@V?$allocator@PAVCvCity@@@std@@@std@@U?$less@PAVCvCity@@@3@V?$allocator@U?$pair@QAVCvCity@@V?$vector@PAVCvCity@@V?$allocator@PAVCvCity@@@std@@@std@@@std@@@3@$0A@@std@@@std@@QBE_NABV012@@Z ENDP ; std::_Tree<std::_Tmap_traits<CvCity *,std::vector<CvCity *,std::allocator<CvCity *> >,std::less<CvCity *>,std::allocator<std::pair<CvCity * const,std::vector<CvCity *,std::allocator<CvCity *> > > >,0> >::const_iterator::operator!=
_TEXT	ENDS
PUBLIC	??1?$_Vector_val@PAVCvCity@@V?$allocator@PAVCvCity@@@std@@@std@@QAE@XZ ; std::_Vector_val<CvCity *,std::allocator<CvCity *> >::~_Vector_val<CvCity *,std::allocator<CvCity *> >
; Function compile flags: /Ogtpy
;	COMDAT ??1?$_Vector_val@PAVCvCity@@V?$allocator@PAVCvCity@@@std@@@std@@QAE@XZ
_TEXT	SEGMENT
??1?$_Vector_val@PAVCvCity@@V?$allocator@PAVCvCity@@@std@@@std@@QAE@XZ PROC ; std::_Vector_val<CvCity *,std::allocator<CvCity *> >::~_Vector_val<CvCity *,std::allocator<CvCity *> >, COMDAT
; _this$ = ecx
	ret	0
??1?$_Vector_val@PAVCvCity@@V?$allocator@PAVCvCity@@@std@@@std@@QAE@XZ ENDP ; std::_Vector_val<CvCity *,std::allocator<CvCity *> >::~_Vector_val<CvCity *,std::allocator<CvCity *> >
_TEXT	ENDS
PUBLIC	??1?$_Tmap_traits@PAVCvCity@@V?$vector@PAVCvCity@@V?$allocator@PAVCvCity@@@std@@@std@@U?$less@PAVCvCity@@@3@V?$allocator@U?$pair@QAVCvCity@@V?$vector@PAVCvCity@@V?$allocator@PAVCvCity@@@std@@@std@@@std@@@3@$0A@@std@@QAE@XZ ; std::_Tmap_traits<CvCity *,std::vector<CvCity *,std::allocator<CvCity *> >,std::less<CvCity *>,std::allocator<std::pair<CvCity * const,std::vector<CvCity *,std::allocator<CvCity *> > > >,0>::~_Tmap_traits<CvCity *,std::vector<CvCity *,std::allocator<CvCity *> >,std::less<CvCity *>,std::allocator<std::pair<CvCity * const,std::vector<CvCity *,std::allocator<CvCity *> > > >,0>
; Function compile flags: /Ogtpy
;	COMDAT ??1?$_Tmap_traits@PAVCvCity@@V?$vector@PAVCvCity@@V?$allocator@PAVCvCity@@@std@@@std@@U?$less@PAVCvCity@@@3@V?$allocator@U?$pair@QAVCvCity@@V?$vector@PAVCvCity@@V?$allocator@PAVCvCity@@@std@@@std@@@std@@@3@$0A@@std@@QAE@XZ
_TEXT	SEGMENT
??1?$_Tmap_traits@PAVCvCity@@V?$vector@PAVCvCity@@V?$allocator@PAVCvCity@@@std@@@std@@U?$less@PAVCvCity@@@3@V?$allocator@U?$pair@QAVCvCity@@V?$vector@PAVCvCity@@V?$allocator@PAVCvCity@@@std@@@std@@@std@@@3@$0A@@std@@QAE@XZ PROC ; std::_Tmap_traits<CvCity *,std::vector<CvCity *,std::allocator<CvCity *> >,std::less<CvCity *>,std::allocator<std::pair<CvCity * const,std::vector<CvCity *,std::allocator<CvCity *> > > >,0>::~_Tmap_traits<CvCity *,std::vector<CvCity *,std::allocator<CvCity *> >,std::less<CvCity *>,std::allocator<std::pair<CvCity * const,std::vector<CvCity *,std::allocator<CvCity *> > > >,0>, COMDAT
; _this$ = ecx
	ret	0
??1?$_Tmap_traits@PAVCvCity@@V?$vector@PAVCvCity@@V?$allocator@PAVCvCity@@@std@@@std@@U?$less@PAVCvCity@@@3@V?$allocator@U?$pair@QAVCvCity@@V?$vector@PAVCvCity@@V?$allocator@PAVCvCity@@@std@@@std@@@std@@@3@$0A@@std@@QAE@XZ ENDP ; std::_Tmap_traits<CvCity *,std::vector<CvCity *,std::allocator<CvCity *> >,std::less<CvCity *>,std::allocator<std::pair<CvCity * const,std::vector<CvCity *,std::allocator<CvCity *> > > >,0>::~_Tmap_traits<CvCity *,std::vector<CvCity *,std::allocator<CvCity *> >,std::less<CvCity *>,std::allocator<std::pair<CvCity * const,std::vector<CvCity *,std::allocator<CvCity *> > > >,0>
_TEXT	ENDS
PUBLIC	?_Key@?$_Tree@V?$_Tmap_traits@PAVCvCity@@V?$vector@PAVCvCity@@V?$allocator@PAVCvCity@@@std@@@std@@U?$less@PAVCvCity@@@3@V?$allocator@U?$pair@QAVCvCity@@V?$vector@PAVCvCity@@V?$allocator@PAVCvCity@@@std@@@std@@@std@@@3@$0A@@std@@@std@@KAABQAVCvCity@@PAU_Node@?$_Tree_nod@V?$_Tmap_traits@PAVCvCity@@V?$vector@PAVCvCity@@V?$allocator@PAVCvCity@@@std@@@std@@U?$less@PAVCvCity@@@3@V?$allocator@U?$pair@QAVCvCity@@V?$vector@PAVCvCity@@V?$allocator@PAVCvCity@@@std@@@std@@@std@@@3@$0A@@std@@@2@@Z ; std::_Tree<std::_Tmap_traits<CvCity *,std::vector<CvCity *,std::allocator<CvCity *> >,std::less<CvCity *>,std::allocator<std::pair<CvCity * const,std::vector<CvCity *,std::allocator<CvCity *> > > >,0> >::_Key
; Function compile flags: /Ogtpy
;	COMDAT ?_Key@?$_Tree@V?$_Tmap_traits@PAVCvCity@@V?$vector@PAVCvCity@@V?$allocator@PAVCvCity@@@std@@@std@@U?$less@PAVCvCity@@@3@V?$allocator@U?$pair@QAVCvCity@@V?$vector@PAVCvCity@@V?$allocator@PAVCvCity@@@std@@@std@@@std@@@3@$0A@@std@@@std@@KAABQAVCvCity@@PAU_Node@?$_Tree_nod@V?$_Tmap_traits@PAVCvCity@@V?$vector@PAVCvCity@@V?$allocator@PAVCvCity@@@std@@@std@@U?$less@PAVCvCity@@@3@V?$allocator@U?$pair@QAVCvCity@@V?$vector@PAVCvCity@@V?$allocator@PAVCvCity@@@std@@@std@@@std@@@3@$0A@@std@@@2@@Z
_TEXT	SEGMENT
__Pnode$ = 8						; size = 4
?_Key@?$_Tree@V?$_Tmap_traits@PAVCvCity@@V?$vector@PAVCvCity@@V?$allocator@PAVCvCity@@@std@@@std@@U?$less@PAVCvCity@@@3@V?$allocator@U?$pair@QAVCvCity@@V?$vector@PAVCvCity@@V?$allocator@PAVCvCity@@@std@@@std@@@std@@@3@$0A@@std@@@std@@KAABQAVCvCity@@PAU_Node@?$_Tree_nod@V?$_Tmap_traits@PAVCvCity@@V?$vector@PAVCvCity@@V?$allocator@PAVCvCity@@@std@@@std@@U?$less@PAVCvCity@@@3@V?$allocator@U?$pair@QAVCvCity@@V?$vector@PAVCvCity@@V?$allocator@PAVCvCity@@@std@@@std@@@std@@@3@$0A@@std@@@2@@Z PROC ; std::_Tree<std::_Tmap_traits<CvCity *,std::vector<CvCity *,std::allocator<CvCity *> >,std::less<CvCity *>,std::allocator<std::pair<CvCity * const,std::vector<CvCity *,std::allocator<CvCity *> > > >,0> >::_Key, COMDAT

; 162  : 		return (_Mybase::_Kfn(_Myval(_Pnode)));

	mov	eax, DWORD PTR __Pnode$[esp-4]
	add	eax, 12					; 0000000cH

; 163  : 		}

	ret	0
?_Key@?$_Tree@V?$_Tmap_traits@PAVCvCity@@V?$vector@PAVCvCity@@V?$allocator@PAVCvCity@@@std@@@std@@U?$less@PAVCvCity@@@3@V?$allocator@U?$pair@QAVCvCity@@V?$vector@PAVCvCity@@V?$allocator@PAVCvCity@@@std@@@std@@@std@@@3@$0A@@std@@@std@@KAABQAVCvCity@@PAU_Node@?$_Tree_nod@V?$_Tmap_traits@PAVCvCity@@V?$vector@PAVCvCity@@V?$allocator@PAVCvCity@@@std@@@std@@U?$less@PAVCvCity@@@3@V?$allocator@U?$pair@QAVCvCity@@V?$vector@PAVCvCity@@V?$allocator@PAVCvCity@@@std@@@std@@@std@@@3@$0A@@std@@@2@@Z ENDP ; std::_Tree<std::_Tmap_traits<CvCity *,std::vector<CvCity *,std::allocator<CvCity *> >,std::less<CvCity *>,std::allocator<std::pair<CvCity * const,std::vector<CvCity *,std::allocator<CvCity *> > > >,0> >::_Key
_TEXT	ENDS
PUBLIC	?_Lrotate@?$_Tree@V?$_Tmap_traits@PAVCvCity@@V?$vector@PAVCvCity@@V?$allocator@PAVCvCity@@@std@@@std@@U?$less@PAVCvCity@@@3@V?$allocator@U?$pair@QAVCvCity@@V?$vector@PAVCvCity@@V?$allocator@PAVCvCity@@@std@@@std@@@std@@@3@$0A@@std@@@std@@IAEXPAU_Node@?$_Tree_nod@V?$_Tmap_traits@PAVCvCity@@V?$vector@PAVCvCity@@V?$allocator@PAVCvCity@@@std@@@std@@U?$less@PAVCvCity@@@3@V?$allocator@U?$pair@QAVCvCity@@V?$vector@PAVCvCity@@V?$allocator@PAVCvCity@@@std@@@std@@@std@@@3@$0A@@std@@@2@@Z ; std::_Tree<std::_Tmap_traits<CvCity *,std::vector<CvCity *,std::allocator<CvCity *> >,std::less<CvCity *>,std::allocator<std::pair<CvCity * const,std::vector<CvCity *,std::allocator<CvCity *> > > >,0> >::_Lrotate
; Function compile flags: /Ogtpy
;	COMDAT ?_Lrotate@?$_Tree@V?$_Tmap_traits@PAVCvCity@@V?$vector@PAVCvCity@@V?$allocator@PAVCvCity@@@std@@@std@@U?$less@PAVCvCity@@@3@V?$allocator@U?$pair@QAVCvCity@@V?$vector@PAVCvCity@@V?$allocator@PAVCvCity@@@std@@@std@@@std@@@3@$0A@@std@@@std@@IAEXPAU_Node@?$_Tree_nod@V?$_Tmap_traits@PAVCvCity@@V?$vector@PAVCvCity@@V?$allocator@PAVCvCity@@@std@@@std@@U?$less@PAVCvCity@@@3@V?$allocator@U?$pair@QAVCvCity@@V?$vector@PAVCvCity@@V?$allocator@PAVCvCity@@@std@@@std@@@std@@@3@$0A@@std@@@2@@Z
_TEXT	SEGMENT
__Wherenode$ = 8					; size = 4
?_Lrotate@?$_Tree@V?$_Tmap_traits@PAVCvCity@@V?$vector@PAVCvCity@@V?$allocator@PAVCvCity@@@std@@@std@@U?$less@PAVCvCity@@@3@V?$allocator@U?$pair@QAVCvCity@@V?$vector@PAVCvCity@@V?$allocator@PAVCvCity@@@std@@@std@@@std@@@3@$0A@@std@@@std@@IAEXPAU_Node@?$_Tree_nod@V?$_Tmap_traits@PAVCvCity@@V?$vector@PAVCvCity@@V?$allocator@PAVCvCity@@@std@@@std@@U?$less@PAVCvCity@@@3@V?$allocator@U?$pair@QAVCvCity@@V?$vector@PAVCvCity@@V?$allocator@PAVCvCity@@@std@@@std@@@std@@@3@$0A@@std@@@2@@Z PROC ; std::_Tree<std::_Tmap_traits<CvCity *,std::vector<CvCity *,std::allocator<CvCity *> >,std::less<CvCity *>,std::allocator<std::pair<CvCity * const,std::vector<CvCity *,std::allocator<CvCity *> > > >,0> >::_Lrotate, COMDAT
; _this$ = ecx

; 1286 : 		_Nodeptr _Pnode = _Right(_Wherenode);

	mov	edx, DWORD PTR __Wherenode$[esp-4]
	mov	eax, DWORD PTR [edx+8]
	push	esi

; 1287 : 		_Right(_Wherenode) = _Left(_Pnode);

	mov	esi, DWORD PTR [eax]
	mov	DWORD PTR [edx+8], esi

; 1288 : 
; 1289 : 		if (!_Isnil(_Left(_Pnode)))

	mov	esi, DWORD PTR [eax]
	cmp	BYTE PTR [esi+33], 0
	jne	SHORT $LN5@Lrotate

; 1290 : 			_Parent(_Left(_Pnode)) = _Wherenode;

	mov	DWORD PTR [esi+4], edx
$LN5@Lrotate:

; 1291 : 		_Parent(_Pnode) = _Parent(_Wherenode);

	mov	esi, DWORD PTR [edx+4]
	mov	DWORD PTR [eax+4], esi

; 1292 : 
; 1293 : 		if (_Wherenode == _Root())

	mov	ecx, DWORD PTR [ecx+4]
	pop	esi
	cmp	edx, DWORD PTR [ecx+4]
	jne	SHORT $LN4@Lrotate

; 1294 : 			_Root() = _Pnode;

	mov	DWORD PTR [ecx+4], eax

; 1299 : 
; 1300 : 		_Left(_Pnode) = _Wherenode;

	mov	DWORD PTR [eax], edx

; 1301 : 		_Parent(_Wherenode) = _Pnode;

	mov	DWORD PTR [edx+4], eax

; 1302 : 		}

	ret	4
$LN4@Lrotate:

; 1295 : 		else if (_Wherenode == _Left(_Parent(_Wherenode)))

	mov	ecx, DWORD PTR [edx+4]
	cmp	edx, DWORD PTR [ecx]
	jne	SHORT $LN2@Lrotate

; 1296 : 			_Left(_Parent(_Wherenode)) = _Pnode;

	mov	DWORD PTR [ecx], eax

; 1299 : 
; 1300 : 		_Left(_Pnode) = _Wherenode;

	mov	DWORD PTR [eax], edx

; 1301 : 		_Parent(_Wherenode) = _Pnode;

	mov	DWORD PTR [edx+4], eax

; 1302 : 		}

	ret	4
$LN2@Lrotate:

; 1297 : 		else
; 1298 : 			_Right(_Parent(_Wherenode)) = _Pnode;

	mov	DWORD PTR [ecx+8], eax

; 1299 : 
; 1300 : 		_Left(_Pnode) = _Wherenode;

	mov	DWORD PTR [eax], edx

; 1301 : 		_Parent(_Wherenode) = _Pnode;

	mov	DWORD PTR [edx+4], eax

; 1302 : 		}

	ret	4
?_Lrotate@?$_Tree@V?$_Tmap_traits@PAVCvCity@@V?$vector@PAVCvCity@@V?$allocator@PAVCvCity@@@std@@@std@@U?$less@PAVCvCity@@@3@V?$allocator@U?$pair@QAVCvCity@@V?$vector@PAVCvCity@@V?$allocator@PAVCvCity@@@std@@@std@@@std@@@3@$0A@@std@@@std@@IAEXPAU_Node@?$_Tree_nod@V?$_Tmap_traits@PAVCvCity@@V?$vector@PAVCvCity@@V?$allocator@PAVCvCity@@@std@@@std@@U?$less@PAVCvCity@@@3@V?$allocator@U?$pair@QAVCvCity@@V?$vector@PAVCvCity@@V?$allocator@PAVCvCity@@@std@@@std@@@std@@@3@$0A@@std@@@2@@Z ENDP ; std::_Tree<std::_Tmap_traits<CvCity *,std::vector<CvCity *,std::allocator<CvCity *> >,std::less<CvCity *>,std::allocator<std::pair<CvCity * const,std::vector<CvCity *,std::allocator<CvCity *> > > >,0> >::_Lrotate
_TEXT	ENDS
PUBLIC	?allocate@?$allocator@PAVCvCity@@@std@@QAEPAPAVCvCity@@I@Z ; std::allocator<CvCity *>::allocate
; Function compile flags: /Ogtpy
; File c:\program files (x86)\microsoft visual studio 9.0\vc\include\xmemory
;	COMDAT ?allocate@?$allocator@PAVCvCity@@@std@@QAEPAPAVCvCity@@I@Z
_TEXT	SEGMENT
__Count$ = 8						; size = 4
?allocate@?$allocator@PAVCvCity@@@std@@QAEPAPAVCvCity@@I@Z PROC ; std::allocator<CvCity *>::allocate, COMDAT
; _this$ = ecx

; 145  : 		return (_Allocate(_Count, (pointer)0));

	mov	eax, DWORD PTR __Count$[esp-4]
	push	0
	push	eax
	call	??$_Allocate@PAVCvCity@@@std@@YAPAPAVCvCity@@IPAPAV1@@Z ; std::_Allocate<CvCity *>
	add	esp, 8

; 146  : 		}

	ret	4
?allocate@?$allocator@PAVCvCity@@@std@@QAEPAPAVCvCity@@I@Z ENDP ; std::allocator<CvCity *>::allocate
_TEXT	ENDS
PUBLIC	?max_size@?$vector@PAVCvCity@@V?$allocator@PAVCvCity@@@std@@@std@@QBEIXZ ; std::vector<CvCity *,std::allocator<CvCity *> >::max_size
; Function compile flags: /Ogtpy
; File c:\program files (x86)\microsoft visual studio 9.0\vc\include\vector
;	COMDAT ?max_size@?$vector@PAVCvCity@@V?$allocator@PAVCvCity@@@std@@@std@@QBEIXZ
_TEXT	SEGMENT
?max_size@?$vector@PAVCvCity@@V?$allocator@PAVCvCity@@@std@@@std@@QBEIXZ PROC ; std::vector<CvCity *,std::allocator<CvCity *> >::max_size, COMDAT
; _this$ = ecx

; 731  : 		return (this->_Alval.max_size());

	mov	eax, 1073741823				; 3fffffffH

; 732  : 		}

	ret	0
?max_size@?$vector@PAVCvCity@@V?$allocator@PAVCvCity@@@std@@@std@@QBEIXZ ENDP ; std::vector<CvCity *,std::allocator<CvCity *> >::max_size
_TEXT	ENDS
PUBLIC	?_Buy@?$vector@PAVCvCity@@V?$allocator@PAVCvCity@@@std@@@std@@IAE_NI@Z ; std::vector<CvCity *,std::allocator<CvCity *> >::_Buy
; Function compile flags: /Ogtpy
;	COMDAT ?_Buy@?$vector@PAVCvCity@@V?$allocator@PAVCvCity@@@std@@@std@@IAE_NI@Z
_TEXT	SEGMENT
__Capacity$ = 8						; size = 4
?_Buy@?$vector@PAVCvCity@@V?$allocator@PAVCvCity@@@std@@@std@@IAE_NI@Z PROC ; std::vector<CvCity *,std::allocator<CvCity *> >::_Buy, COMDAT
; _this$ = ecx

; 1102 : 		{	// allocate array with _Capacity elements

	push	esi

; 1103 : 		_Myfirst = 0, _Mylast = 0, _Myend = 0;

	xor	eax, eax
	push	edi

; 1104 : 		if (_Capacity == 0)

	mov	edi, DWORD PTR __Capacity$[esp+4]
	mov	esi, ecx
	mov	DWORD PTR [esi+4], eax
	mov	DWORD PTR [esi+8], eax
	mov	DWORD PTR [esi+12], eax
	cmp	edi, eax
	jne	SHORT $LN4@Buy
	pop	edi

; 1105 : 			return (false);

	xor	al, al
	pop	esi

; 1115 : 		}

	ret	4
$LN4@Buy:

; 1106 : 		else if (max_size() < _Capacity)

	cmp	edi, 1073741823				; 3fffffffH
	jbe	SHORT $LN2@Buy

; 1107 : 			_Xlen();	// result too long

	call	?_Xlen@?$vector@PAVCvCity@@V?$allocator@PAVCvCity@@@std@@@std@@KAXXZ ; std::vector<CvCity *,std::allocator<CvCity *> >::_Xlen
$LN16@Buy:
$LN2@Buy:

; 1108 : 		else
; 1109 : 			{	// nonempty array, allocate storage
; 1110 : 			_Myfirst = this->_Alval.allocate(_Capacity);

	push	eax
	push	edi
	call	??$_Allocate@PAVCvCity@@@std@@YAPAPAVCvCity@@IPAPAV1@@Z ; std::_Allocate<CvCity *>
	mov	DWORD PTR [esi+4], eax

; 1111 : 			_Mylast = _Myfirst;

	mov	DWORD PTR [esi+8], eax
	add	esp, 8

; 1112 : 			_Myend = _Myfirst + _Capacity;

	lea	eax, DWORD PTR [eax+edi*4]
	mov	DWORD PTR [esi+12], eax
	pop	edi

; 1113 : 			}
; 1114 : 		return (true);

	mov	al, 1
	pop	esi

; 1115 : 		}

	ret	4
$LN15@Buy:
?_Buy@?$vector@PAVCvCity@@V?$allocator@PAVCvCity@@@std@@@std@@IAE_NI@Z ENDP ; std::vector<CvCity *,std::allocator<CvCity *> >::_Buy
_TEXT	ENDS
PUBLIC	??0?$_Vector_val@PAVCvCity@@V?$allocator@PAVCvCity@@@std@@@std@@IAE@V?$allocator@PAVCvCity@@@1@@Z ; std::_Vector_val<CvCity *,std::allocator<CvCity *> >::_Vector_val<CvCity *,std::allocator<CvCity *> >
; Function compile flags: /Ogtpy
;	COMDAT ??0?$_Vector_val@PAVCvCity@@V?$allocator@PAVCvCity@@@std@@@std@@IAE@V?$allocator@PAVCvCity@@@1@@Z
_TEXT	SEGMENT
__Al$ = 8						; size = 1
??0?$_Vector_val@PAVCvCity@@V?$allocator@PAVCvCity@@@std@@@std@@IAE@V?$allocator@PAVCvCity@@@1@@Z PROC ; std::_Vector_val<CvCity *,std::allocator<CvCity *> >::_Vector_val<CvCity *,std::allocator<CvCity *> >, COMDAT
; _this$ = ecx

; 425  : 		{	// construct allocator from _Al

	mov	eax, ecx

; 426  : 		}

	ret	4
??0?$_Vector_val@PAVCvCity@@V?$allocator@PAVCvCity@@@std@@@std@@IAE@V?$allocator@PAVCvCity@@@1@@Z ENDP ; std::_Vector_val<CvCity *,std::allocator<CvCity *> >::_Vector_val<CvCity *,std::allocator<CvCity *> >
_TEXT	ENDS
PUBLIC	??0?$_Vector_iterator@PAVCvCity@@V?$allocator@PAVCvCity@@@std@@@std@@QAE@PAPAVCvCity@@@Z ; std::_Vector_iterator<CvCity *,std::allocator<CvCity *> >::_Vector_iterator<CvCity *,std::allocator<CvCity *> >
; Function compile flags: /Ogtpy
;	COMDAT ??0?$_Vector_iterator@PAVCvCity@@V?$allocator@PAVCvCity@@@std@@@std@@QAE@PAPAVCvCity@@@Z
_TEXT	SEGMENT
__Ptr$ = 8						; size = 4
??0?$_Vector_iterator@PAVCvCity@@V?$allocator@PAVCvCity@@@std@@@std@@QAE@PAPAVCvCity@@@Z PROC ; std::_Vector_iterator<CvCity *,std::allocator<CvCity *> >::_Vector_iterator<CvCity *,std::allocator<CvCity *> >, COMDAT
; _this$ = ecx

; 333  : 		{	// construct with pointer _Ptr

	mov	eax, ecx
	mov	ecx, DWORD PTR __Ptr$[esp-4]
	mov	DWORD PTR [eax], ecx

; 334  : 		}

	ret	4
??0?$_Vector_iterator@PAVCvCity@@V?$allocator@PAVCvCity@@@std@@@std@@QAE@PAPAVCvCity@@@Z ENDP ; std::_Vector_iterator<CvCity *,std::allocator<CvCity *> >::_Vector_iterator<CvCity *,std::allocator<CvCity *> >
_TEXT	ENDS
PUBLIC	??0iterator@?$_Tree@V?$_Tmap_traits@PAVCvCity@@V?$vector@PAVCvCity@@V?$allocator@PAVCvCity@@@std@@@std@@U?$less@PAVCvCity@@@3@V?$allocator@U?$pair@QAVCvCity@@V?$vector@PAVCvCity@@V?$allocator@PAVCvCity@@@std@@@std@@@std@@@3@$0A@@std@@@std@@QAE@PAU_Node@?$_Tree_nod@V?$_Tmap_traits@PAVCvCity@@V?$vector@PAVCvCity@@V?$allocator@PAVCvCity@@@std@@@std@@U?$less@PAVCvCity@@@3@V?$allocator@U?$pair@QAVCvCity@@V?$vector@PAVCvCity@@V?$allocator@PAVCvCity@@@std@@@std@@@std@@@3@$0A@@std@@@2@@Z ; std::_Tree<std::_Tmap_traits<CvCity *,std::vector<CvCity *,std::allocator<CvCity *> >,std::less<CvCity *>,std::allocator<std::pair<CvCity * const,std::vector<CvCity *,std::allocator<CvCity *> > > >,0> >::iterator::iterator
; Function compile flags: /Ogtpy
; File c:\program files (x86)\microsoft visual studio 9.0\vc\include\xtree
;	COMDAT ??0iterator@?$_Tree@V?$_Tmap_traits@PAVCvCity@@V?$vector@PAVCvCity@@V?$allocator@PAVCvCity@@@std@@@std@@U?$less@PAVCvCity@@@3@V?$allocator@U?$pair@QAVCvCity@@V?$vector@PAVCvCity@@V?$allocator@PAVCvCity@@@std@@@std@@@std@@@3@$0A@@std@@@std@@QAE@PAU_Node@?$_Tree_nod@V?$_Tmap_traits@PAVCvCity@@V?$vector@PAVCvCity@@V?$allocator@PAVCvCity@@@std@@@std@@U?$less@PAVCvCity@@@3@V?$allocator@U?$pair@QAVCvCity@@V?$vector@PAVCvCity@@V?$allocator@PAVCvCity@@@std@@@std@@@std@@@3@$0A@@std@@@2@@Z
_TEXT	SEGMENT
__Pnode$ = 8						; size = 4
??0iterator@?$_Tree@V?$_Tmap_traits@PAVCvCity@@V?$vector@PAVCvCity@@V?$allocator@PAVCvCity@@@std@@@std@@U?$less@PAVCvCity@@@3@V?$allocator@U?$pair@QAVCvCity@@V?$vector@PAVCvCity@@V?$allocator@PAVCvCity@@@std@@@std@@@std@@@3@$0A@@std@@@std@@QAE@PAU_Node@?$_Tree_nod@V?$_Tmap_traits@PAVCvCity@@V?$vector@PAVCvCity@@V?$allocator@PAVCvCity@@@std@@@std@@U?$less@PAVCvCity@@@3@V?$allocator@U?$pair@QAVCvCity@@V?$vector@PAVCvCity@@V?$allocator@PAVCvCity@@@std@@@std@@@std@@@3@$0A@@std@@@2@@Z PROC ; std::_Tree<std::_Tmap_traits<CvCity *,std::vector<CvCity *,std::allocator<CvCity *> >,std::less<CvCity *>,std::allocator<std::pair<CvCity * const,std::vector<CvCity *,std::allocator<CvCity *> > > >,0> >::iterator::iterator, COMDAT
; _this$ = ecx

; 459  : 			{	// construct with node pointer _Pnode

	mov	eax, ecx
	mov	ecx, DWORD PTR __Pnode$[esp-4]
	mov	DWORD PTR [eax], ecx

; 460  : 			}

	ret	4
??0iterator@?$_Tree@V?$_Tmap_traits@PAVCvCity@@V?$vector@PAVCvCity@@V?$allocator@PAVCvCity@@@std@@@std@@U?$less@PAVCvCity@@@3@V?$allocator@U?$pair@QAVCvCity@@V?$vector@PAVCvCity@@V?$allocator@PAVCvCity@@@std@@@std@@@std@@@3@$0A@@std@@@std@@QAE@PAU_Node@?$_Tree_nod@V?$_Tmap_traits@PAVCvCity@@V?$vector@PAVCvCity@@V?$allocator@PAVCvCity@@@std@@@std@@U?$less@PAVCvCity@@@3@V?$allocator@U?$pair@QAVCvCity@@V?$vector@PAVCvCity@@V?$allocator@PAVCvCity@@@std@@@std@@@std@@@3@$0A@@std@@@2@@Z ENDP ; std::_Tree<std::_Tmap_traits<CvCity *,std::vector<CvCity *,std::allocator<CvCity *> >,std::less<CvCity *>,std::allocator<std::pair<CvCity * const,std::vector<CvCity *,std::allocator<CvCity *> > > >,0> >::iterator::iterator
_TEXT	ENDS
PUBLIC	??Econst_iterator@?$_Tree@V?$_Tmap_traits@PAVCvCity@@V?$vector@PAVCvCity@@V?$allocator@PAVCvCity@@@std@@@std@@U?$less@PAVCvCity@@@3@V?$allocator@U?$pair@QAVCvCity@@V?$vector@PAVCvCity@@V?$allocator@PAVCvCity@@@std@@@std@@@std@@@3@$0A@@std@@@std@@QAEAAV012@XZ ; std::_Tree<std::_Tmap_traits<CvCity *,std::vector<CvCity *,std::allocator<CvCity *> >,std::less<CvCity *>,std::allocator<std::pair<CvCity * const,std::vector<CvCity *,std::allocator<CvCity *> > > >,0> >::const_iterator::operator++
; Function compile flags: /Ogtpy
;	COMDAT ??Econst_iterator@?$_Tree@V?$_Tmap_traits@PAVCvCity@@V?$vector@PAVCvCity@@V?$allocator@PAVCvCity@@@std@@@std@@U?$less@PAVCvCity@@@3@V?$allocator@U?$pair@QAVCvCity@@V?$vector@PAVCvCity@@V?$allocator@PAVCvCity@@@std@@@std@@@std@@@3@$0A@@std@@@std@@QAEAAV012@XZ
_TEXT	SEGMENT
??Econst_iterator@?$_Tree@V?$_Tmap_traits@PAVCvCity@@V?$vector@PAVCvCity@@V?$allocator@PAVCvCity@@@std@@@std@@U?$less@PAVCvCity@@@3@V?$allocator@U?$pair@QAVCvCity@@V?$vector@PAVCvCity@@V?$allocator@PAVCvCity@@@std@@@std@@@std@@@3@$0A@@std@@@std@@QAEAAV012@XZ PROC ; std::_Tree<std::_Tmap_traits<CvCity *,std::vector<CvCity *,std::allocator<CvCity *> >,std::less<CvCity *>,std::allocator<std::pair<CvCity * const,std::vector<CvCity *,std::allocator<CvCity *> > > >,0> >::const_iterator::operator++, COMDAT
; _this$ = ecx

; 273  : 			{	// preincrement

	push	esi
	mov	esi, ecx

; 274  : 			_Inc();

	call	?_Inc@const_iterator@?$_Tree@V?$_Tmap_traits@PAVCvCity@@V?$vector@PAVCvCity@@V?$allocator@PAVCvCity@@@std@@@std@@U?$less@PAVCvCity@@@3@V?$allocator@U?$pair@QAVCvCity@@V?$vector@PAVCvCity@@V?$allocator@PAVCvCity@@@std@@@std@@@std@@@3@$0A@@std@@@std@@QAEXXZ ; std::_Tree<std::_Tmap_traits<CvCity *,std::vector<CvCity *,std::allocator<CvCity *> >,std::less<CvCity *>,std::allocator<std::pair<CvCity * const,std::vector<CvCity *,std::allocator<CvCity *> > > >,0> >::const_iterator::_Inc

; 275  : 			return (*this);

	mov	eax, esi
	pop	esi

; 276  : 			}

	ret	0
??Econst_iterator@?$_Tree@V?$_Tmap_traits@PAVCvCity@@V?$vector@PAVCvCity@@V?$allocator@PAVCvCity@@@std@@@std@@U?$less@PAVCvCity@@@3@V?$allocator@U?$pair@QAVCvCity@@V?$vector@PAVCvCity@@V?$allocator@PAVCvCity@@@std@@@std@@@std@@@3@$0A@@std@@@std@@QAEAAV012@XZ ENDP ; std::_Tree<std::_Tmap_traits<CvCity *,std::vector<CvCity *,std::allocator<CvCity *> >,std::less<CvCity *>,std::allocator<std::pair<CvCity * const,std::vector<CvCity *,std::allocator<CvCity *> > > >,0> >::const_iterator::operator++
_TEXT	ENDS
PUBLIC	?max_size@?$_Tree@V?$_Tmap_traits@PAVCvCity@@V?$vector@PAVCvCity@@V?$allocator@PAVCvCity@@@std@@@std@@U?$less@PAVCvCity@@@3@V?$allocator@U?$pair@QAVCvCity@@V?$vector@PAVCvCity@@V?$allocator@PAVCvCity@@@std@@@std@@@std@@@3@$0A@@std@@@std@@QBEIXZ ; std::_Tree<std::_Tmap_traits<CvCity *,std::vector<CvCity *,std::allocator<CvCity *> >,std::less<CvCity *>,std::allocator<std::pair<CvCity * const,std::vector<CvCity *,std::allocator<CvCity *> > > >,0> >::max_size
; Function compile flags: /Ogtpy
;	COMDAT ?max_size@?$_Tree@V?$_Tmap_traits@PAVCvCity@@V?$vector@PAVCvCity@@V?$allocator@PAVCvCity@@@std@@@std@@U?$less@PAVCvCity@@@3@V?$allocator@U?$pair@QAVCvCity@@V?$vector@PAVCvCity@@V?$allocator@PAVCvCity@@@std@@@std@@@std@@@3@$0A@@std@@@std@@QBEIXZ
_TEXT	SEGMENT
?max_size@?$_Tree@V?$_Tmap_traits@PAVCvCity@@V?$vector@PAVCvCity@@V?$allocator@PAVCvCity@@@std@@@std@@U?$less@PAVCvCity@@@3@V?$allocator@U?$pair@QAVCvCity@@V?$vector@PAVCvCity@@V?$allocator@PAVCvCity@@@std@@@std@@@std@@@3@$0A@@std@@@std@@QBEIXZ PROC ; std::_Tree<std::_Tmap_traits<CvCity *,std::vector<CvCity *,std::allocator<CvCity *> >,std::less<CvCity *>,std::allocator<std::pair<CvCity * const,std::vector<CvCity *,std::allocator<CvCity *> > > >,0> >::max_size, COMDAT
; _this$ = ecx

; 606  : 		return (this->_Alval.max_size());

	mov	eax, 214748364				; 0cccccccH

; 607  : 		}

	ret	0
?max_size@?$_Tree@V?$_Tmap_traits@PAVCvCity@@V?$vector@PAVCvCity@@V?$allocator@PAVCvCity@@@std@@@std@@U?$less@PAVCvCity@@@3@V?$allocator@U?$pair@QAVCvCity@@V?$vector@PAVCvCity@@V?$allocator@PAVCvCity@@@std@@@std@@@std@@@3@$0A@@std@@@std@@QBEIXZ ENDP ; std::_Tree<std::_Tmap_traits<CvCity *,std::vector<CvCity *,std::allocator<CvCity *> >,std::less<CvCity *>,std::allocator<std::pair<CvCity * const,std::vector<CvCity *,std::allocator<CvCity *> > > >,0> >::max_size
_TEXT	ENDS
PUBLIC	?_Lbound@?$_Tree@V?$_Tmap_traits@PAVCvCity@@V?$vector@PAVCvCity@@V?$allocator@PAVCvCity@@@std@@@std@@U?$less@PAVCvCity@@@3@V?$allocator@U?$pair@QAVCvCity@@V?$vector@PAVCvCity@@V?$allocator@PAVCvCity@@@std@@@std@@@std@@@3@$0A@@std@@@std@@IBEPAU_Node@?$_Tree_nod@V?$_Tmap_traits@PAVCvCity@@V?$vector@PAVCvCity@@V?$allocator@PAVCvCity@@@std@@@std@@U?$less@PAVCvCity@@@3@V?$allocator@U?$pair@QAVCvCity@@V?$vector@PAVCvCity@@V?$allocator@PAVCvCity@@@std@@@std@@@std@@@3@$0A@@std@@@2@ABQAVCvCity@@@Z ; std::_Tree<std::_Tmap_traits<CvCity *,std::vector<CvCity *,std::allocator<CvCity *> >,std::less<CvCity *>,std::allocator<std::pair<CvCity * const,std::vector<CvCity *,std::allocator<CvCity *> > > >,0> >::_Lbound
; Function compile flags: /Ogtpy
;	COMDAT ?_Lbound@?$_Tree@V?$_Tmap_traits@PAVCvCity@@V?$vector@PAVCvCity@@V?$allocator@PAVCvCity@@@std@@@std@@U?$less@PAVCvCity@@@3@V?$allocator@U?$pair@QAVCvCity@@V?$vector@PAVCvCity@@V?$allocator@PAVCvCity@@@std@@@std@@@std@@@3@$0A@@std@@@std@@IBEPAU_Node@?$_Tree_nod@V?$_Tmap_traits@PAVCvCity@@V?$vector@PAVCvCity@@V?$allocator@PAVCvCity@@@std@@@std@@U?$less@PAVCvCity@@@3@V?$allocator@U?$pair@QAVCvCity@@V?$vector@PAVCvCity@@V?$allocator@PAVCvCity@@@std@@@std@@@std@@@3@$0A@@std@@@2@ABQAVCvCity@@@Z
_TEXT	SEGMENT
__Keyval$ = 8						; size = 4
?_Lbound@?$_Tree@V?$_Tmap_traits@PAVCvCity@@V?$vector@PAVCvCity@@V?$allocator@PAVCvCity@@@std@@@std@@U?$less@PAVCvCity@@@3@V?$allocator@U?$pair@QAVCvCity@@V?$vector@PAVCvCity@@V?$allocator@PAVCvCity@@@std@@@std@@@std@@@3@$0A@@std@@@std@@IBEPAU_Node@?$_Tree_nod@V?$_Tmap_traits@PAVCvCity@@V?$vector@PAVCvCity@@V?$allocator@PAVCvCity@@@std@@@std@@U?$less@PAVCvCity@@@3@V?$allocator@U?$pair@QAVCvCity@@V?$vector@PAVCvCity@@V?$allocator@PAVCvCity@@@std@@@std@@@std@@@3@$0A@@std@@@2@ABQAVCvCity@@@Z PROC ; std::_Tree<std::_Tmap_traits<CvCity *,std::vector<CvCity *,std::allocator<CvCity *> >,std::less<CvCity *>,std::allocator<std::pair<CvCity * const,std::vector<CvCity *,std::allocator<CvCity *> > > >,0> >::_Lbound, COMDAT
; _this$ = ecx

; 1264 : 		_Nodeptr _Pnode = _Root();

	mov	eax, DWORD PTR [ecx+4]
	mov	ecx, DWORD PTR [eax+4]

; 1265 : 		_Nodeptr _Wherenode = _Myhead;	// end() if search fails
; 1266 : 
; 1267 : 		while (!_Isnil(_Pnode))

	cmp	BYTE PTR [ecx+33], 0
	jne	SHORT $LN3@Lbound
	mov	edx, DWORD PTR __Keyval$[esp-4]
	mov	edx, DWORD PTR [edx]
$LL4@Lbound:

; 1268 : 			if (_DEBUG_LT_PRED(this->comp, _Key(_Pnode), _Keyval))

	cmp	DWORD PTR [ecx+12], edx
	jae	SHORT $LN2@Lbound

; 1269 : 				_Pnode = _Right(_Pnode);	// descend right subtree

	mov	ecx, DWORD PTR [ecx+8]

; 1270 : 			else

	jmp	SHORT $LN1@Lbound
$LN2@Lbound:

; 1271 : 				{	// _Pnode not less than _Keyval, remember it
; 1272 : 				_Wherenode = _Pnode;

	mov	eax, ecx

; 1273 : 				_Pnode = _Left(_Pnode);	// descend left subtree

	mov	ecx, DWORD PTR [ecx]
$LN1@Lbound:

; 1265 : 		_Nodeptr _Wherenode = _Myhead;	// end() if search fails
; 1266 : 
; 1267 : 		while (!_Isnil(_Pnode))

	cmp	BYTE PTR [ecx+33], 0
	je	SHORT $LL4@Lbound
$LN3@Lbound:

; 1274 : 				}
; 1275 : 
; 1276 : 		return (_Wherenode);	// return best remembered candidate
; 1277 : 		}

	ret	4
?_Lbound@?$_Tree@V?$_Tmap_traits@PAVCvCity@@V?$vector@PAVCvCity@@V?$allocator@PAVCvCity@@@std@@@std@@U?$less@PAVCvCity@@@3@V?$allocator@U?$pair@QAVCvCity@@V?$vector@PAVCvCity@@V?$allocator@PAVCvCity@@@std@@@std@@@std@@@3@$0A@@std@@@std@@IBEPAU_Node@?$_Tree_nod@V?$_Tmap_traits@PAVCvCity@@V?$vector@PAVCvCity@@V?$allocator@PAVCvCity@@@std@@@std@@U?$less@PAVCvCity@@@3@V?$allocator@U?$pair@QAVCvCity@@V?$vector@PAVCvCity@@V?$allocator@PAVCvCity@@@std@@@std@@@std@@@3@$0A@@std@@@2@ABQAVCvCity@@@Z ENDP ; std::_Tree<std::_Tmap_traits<CvCity *,std::vector<CvCity *,std::allocator<CvCity *> >,std::less<CvCity *>,std::allocator<std::pair<CvCity * const,std::vector<CvCity *,std::allocator<CvCity *> > > >,0> >::_Lbound
_TEXT	ENDS
PUBLIC	?destroy@?$allocator@PAU_Node@?$_Tree_nod@V?$_Tmap_traits@PAVCvCity@@V?$vector@PAVCvCity@@V?$allocator@PAVCvCity@@@std@@@std@@U?$less@PAVCvCity@@@3@V?$allocator@U?$pair@QAVCvCity@@V?$vector@PAVCvCity@@V?$allocator@PAVCvCity@@@std@@@std@@@std@@@3@$0A@@std@@@std@@@std@@QAEXPAPAU_Node@?$_Tree_nod@V?$_Tmap_traits@PAVCvCity@@V?$vector@PAVCvCity@@V?$allocator@PAVCvCity@@@std@@@std@@U?$less@PAVCvCity@@@3@V?$allocator@U?$pair@QAVCvCity@@V?$vector@PAVCvCity@@V?$allocator@PAVCvCity@@@std@@@std@@@std@@@3@$0A@@std@@@2@@Z ; std::allocator<std::_Tree_nod<std::_Tmap_traits<CvCity *,std::vector<CvCity *,std::allocator<CvCity *> >,std::less<CvCity *>,std::allocator<std::pair<CvCity * const,std::vector<CvCity *,std::allocator<CvCity *> > > >,0> >::_Node *>::destroy
; Function compile flags: /Ogtpy
; File c:\program files (x86)\microsoft visual studio 9.0\vc\include\xmemory
;	COMDAT ?destroy@?$allocator@PAU_Node@?$_Tree_nod@V?$_Tmap_traits@PAVCvCity@@V?$vector@PAVCvCity@@V?$allocator@PAVCvCity@@@std@@@std@@U?$less@PAVCvCity@@@3@V?$allocator@U?$pair@QAVCvCity@@V?$vector@PAVCvCity@@V?$allocator@PAVCvCity@@@std@@@std@@@std@@@3@$0A@@std@@@std@@@std@@QAEXPAPAU_Node@?$_Tree_nod@V?$_Tmap_traits@PAVCvCity@@V?$vector@PAVCvCity@@V?$allocator@PAVCvCity@@@std@@@std@@U?$less@PAVCvCity@@@3@V?$allocator@U?$pair@QAVCvCity@@V?$vector@PAVCvCity@@V?$allocator@PAVCvCity@@@std@@@std@@@std@@@3@$0A@@std@@@2@@Z
_TEXT	SEGMENT
__Ptr$ = 8						; size = 4
?destroy@?$allocator@PAU_Node@?$_Tree_nod@V?$_Tmap_traits@PAVCvCity@@V?$vector@PAVCvCity@@V?$allocator@PAVCvCity@@@std@@@std@@U?$less@PAVCvCity@@@3@V?$allocator@U?$pair@QAVCvCity@@V?$vector@PAVCvCity@@V?$allocator@PAVCvCity@@@std@@@std@@@std@@@3@$0A@@std@@@std@@@std@@QAEXPAPAU_Node@?$_Tree_nod@V?$_Tmap_traits@PAVCvCity@@V?$vector@PAVCvCity@@V?$allocator@PAVCvCity@@@std@@@std@@U?$less@PAVCvCity@@@3@V?$allocator@U?$pair@QAVCvCity@@V?$vector@PAVCvCity@@V?$allocator@PAVCvCity@@@std@@@std@@@std@@@3@$0A@@std@@@2@@Z PROC ; std::allocator<std::_Tree_nod<std::_Tmap_traits<CvCity *,std::vector<CvCity *,std::allocator<CvCity *> >,std::less<CvCity *>,std::allocator<std::pair<CvCity * const,std::vector<CvCity *,std::allocator<CvCity *> > > >,0> >::_Node *>::destroy, COMDAT
; _this$ = ecx

; 160  : 		_Destroy(_Ptr);
; 161  : 		}

	ret	4
?destroy@?$allocator@PAU_Node@?$_Tree_nod@V?$_Tmap_traits@PAVCvCity@@V?$vector@PAVCvCity@@V?$allocator@PAVCvCity@@@std@@@std@@U?$less@PAVCvCity@@@3@V?$allocator@U?$pair@QAVCvCity@@V?$vector@PAVCvCity@@V?$allocator@PAVCvCity@@@std@@@std@@@std@@@3@$0A@@std@@@std@@@std@@QAEXPAPAU_Node@?$_Tree_nod@V?$_Tmap_traits@PAVCvCity@@V?$vector@PAVCvCity@@V?$allocator@PAVCvCity@@@std@@@std@@U?$less@PAVCvCity@@@3@V?$allocator@U?$pair@QAVCvCity@@V?$vector@PAVCvCity@@V?$allocator@PAVCvCity@@@std@@@std@@@std@@@3@$0A@@std@@@2@@Z ENDP ; std::allocator<std::_Tree_nod<std::_Tmap_traits<CvCity *,std::vector<CvCity *,std::allocator<CvCity *> >,std::less<CvCity *>,std::allocator<std::pair<CvCity * const,std::vector<CvCity *,std::allocator<CvCity *> > > >,0> >::_Node *>::destroy
_TEXT	ENDS
PUBLIC	?begin@?$vector@PAVCvCity@@V?$allocator@PAVCvCity@@@std@@@std@@QBE?AV?$_Vector_const_iterator@PAVCvCity@@V?$allocator@PAVCvCity@@@std@@@2@XZ ; std::vector<CvCity *,std::allocator<CvCity *> >::begin
; Function compile flags: /Ogtpy
; File c:\program files (x86)\microsoft visual studio 9.0\vc\include\vector
;	COMDAT ?begin@?$vector@PAVCvCity@@V?$allocator@PAVCvCity@@@std@@@std@@QBE?AV?$_Vector_const_iterator@PAVCvCity@@V?$allocator@PAVCvCity@@@std@@@2@XZ
_TEXT	SEGMENT
___$ReturnUdt$ = 8					; size = 4
?begin@?$vector@PAVCvCity@@V?$allocator@PAVCvCity@@@std@@@std@@QBE?AV?$_Vector_const_iterator@PAVCvCity@@V?$allocator@PAVCvCity@@@std@@@2@XZ PROC ; std::vector<CvCity *,std::allocator<CvCity *> >::begin, COMDAT
; _this$ = ecx

; 672  : 		return (const_iterator(_Myfirst));

	mov	ecx, DWORD PTR [ecx+4]
	mov	eax, DWORD PTR ___$ReturnUdt$[esp-4]
	mov	DWORD PTR [eax], ecx

; 673  : 		}

	ret	4
?begin@?$vector@PAVCvCity@@V?$allocator@PAVCvCity@@@std@@@std@@QBE?AV?$_Vector_const_iterator@PAVCvCity@@V?$allocator@PAVCvCity@@@std@@@2@XZ ENDP ; std::vector<CvCity *,std::allocator<CvCity *> >::begin
_TEXT	ENDS
PUBLIC	?end@?$vector@PAVCvCity@@V?$allocator@PAVCvCity@@@std@@@std@@QBE?AV?$_Vector_const_iterator@PAVCvCity@@V?$allocator@PAVCvCity@@@std@@@2@XZ ; std::vector<CvCity *,std::allocator<CvCity *> >::end
; Function compile flags: /Ogtpy
;	COMDAT ?end@?$vector@PAVCvCity@@V?$allocator@PAVCvCity@@@std@@@std@@QBE?AV?$_Vector_const_iterator@PAVCvCity@@V?$allocator@PAVCvCity@@@std@@@2@XZ
_TEXT	SEGMENT
___$ReturnUdt$ = 8					; size = 4
?end@?$vector@PAVCvCity@@V?$allocator@PAVCvCity@@@std@@@std@@QBE?AV?$_Vector_const_iterator@PAVCvCity@@V?$allocator@PAVCvCity@@@std@@@2@XZ PROC ; std::vector<CvCity *,std::allocator<CvCity *> >::end, COMDAT
; _this$ = ecx

; 682  : 		return (const_iterator(_Mylast));

	mov	ecx, DWORD PTR [ecx+8]
	mov	eax, DWORD PTR ___$ReturnUdt$[esp-4]
	mov	DWORD PTR [eax], ecx

; 683  : 		}

	ret	4
?end@?$vector@PAVCvCity@@V?$allocator@PAVCvCity@@@std@@@std@@QBE?AV?$_Vector_const_iterator@PAVCvCity@@V?$allocator@PAVCvCity@@@std@@@2@XZ ENDP ; std::vector<CvCity *,std::allocator<CvCity *> >::end
_TEXT	ENDS
PUBLIC	??Y?$_Vector_iterator@PAVCvCity@@V?$allocator@PAVCvCity@@@std@@@std@@QAEAAV01@H@Z ; std::_Vector_iterator<CvCity *,std::allocator<CvCity *> >::operator+=
; Function compile flags: /Ogtpy
;	COMDAT ??Y?$_Vector_iterator@PAVCvCity@@V?$allocator@PAVCvCity@@@std@@@std@@QAEAAV01@H@Z
_TEXT	SEGMENT
__Off$ = 8						; size = 4
??Y?$_Vector_iterator@PAVCvCity@@V?$allocator@PAVCvCity@@@std@@@std@@QAEAAV01@H@Z PROC ; std::_Vector_iterator<CvCity *,std::allocator<CvCity *> >::operator+=, COMDAT
; _this$ = ecx

; 374  : 		{	// increment by integer

	mov	eax, ecx

; 375  : 		(*(_Mybase *)this) += _Off;

	mov	ecx, DWORD PTR __Off$[esp-4]
	lea	edx, DWORD PTR [ecx*4]
	add	DWORD PTR [eax], edx

; 376  : 		return (*this);
; 377  : 		}

	ret	4
??Y?$_Vector_iterator@PAVCvCity@@V?$allocator@PAVCvCity@@@std@@@std@@QAEAAV01@H@Z ENDP ; std::_Vector_iterator<CvCity *,std::allocator<CvCity *> >::operator+=
_TEXT	ENDS
PUBLIC	??Fconst_iterator@?$_Tree@V?$_Tmap_traits@PAVCvCity@@V?$vector@PAVCvCity@@V?$allocator@PAVCvCity@@@std@@@std@@U?$less@PAVCvCity@@@3@V?$allocator@U?$pair@QAVCvCity@@V?$vector@PAVCvCity@@V?$allocator@PAVCvCity@@@std@@@std@@@std@@@3@$0A@@std@@@std@@QAEAAV012@XZ ; std::_Tree<std::_Tmap_traits<CvCity *,std::vector<CvCity *,std::allocator<CvCity *> >,std::less<CvCity *>,std::allocator<std::pair<CvCity * const,std::vector<CvCity *,std::allocator<CvCity *> > > >,0> >::const_iterator::operator--
; Function compile flags: /Ogtpy
; File c:\program files (x86)\microsoft visual studio 9.0\vc\include\xtree
;	COMDAT ??Fconst_iterator@?$_Tree@V?$_Tmap_traits@PAVCvCity@@V?$vector@PAVCvCity@@V?$allocator@PAVCvCity@@@std@@@std@@U?$less@PAVCvCity@@@3@V?$allocator@U?$pair@QAVCvCity@@V?$vector@PAVCvCity@@V?$allocator@PAVCvCity@@@std@@@std@@@std@@@3@$0A@@std@@@std@@QAEAAV012@XZ
_TEXT	SEGMENT
??Fconst_iterator@?$_Tree@V?$_Tmap_traits@PAVCvCity@@V?$vector@PAVCvCity@@V?$allocator@PAVCvCity@@@std@@@std@@U?$less@PAVCvCity@@@3@V?$allocator@U?$pair@QAVCvCity@@V?$vector@PAVCvCity@@V?$allocator@PAVCvCity@@@std@@@std@@@std@@@3@$0A@@std@@@std@@QAEAAV012@XZ PROC ; std::_Tree<std::_Tmap_traits<CvCity *,std::vector<CvCity *,std::allocator<CvCity *> >,std::less<CvCity *>,std::allocator<std::pair<CvCity * const,std::vector<CvCity *,std::allocator<CvCity *> > > >,0> >::const_iterator::operator--, COMDAT
; _this$ = ecx

; 286  : 			{	// predecrement

	push	esi
	mov	esi, ecx

; 287  : 			_Dec();

	call	?_Dec@const_iterator@?$_Tree@V?$_Tmap_traits@PAVCvCity@@V?$vector@PAVCvCity@@V?$allocator@PAVCvCity@@@std@@@std@@U?$less@PAVCvCity@@@3@V?$allocator@U?$pair@QAVCvCity@@V?$vector@PAVCvCity@@V?$allocator@PAVCvCity@@@std@@@std@@@std@@@3@$0A@@std@@@std@@QAEXXZ ; std::_Tree<std::_Tmap_traits<CvCity *,std::vector<CvCity *,std::allocator<CvCity *> >,std::less<CvCity *>,std::allocator<std::pair<CvCity * const,std::vector<CvCity *,std::allocator<CvCity *> > > >,0> >::const_iterator::_Dec

; 288  : 			return (*this);

	mov	eax, esi
	pop	esi

; 289  : 			}

	ret	0
??Fconst_iterator@?$_Tree@V?$_Tmap_traits@PAVCvCity@@V?$vector@PAVCvCity@@V?$allocator@PAVCvCity@@@std@@@std@@U?$less@PAVCvCity@@@3@V?$allocator@U?$pair@QAVCvCity@@V?$vector@PAVCvCity@@V?$allocator@PAVCvCity@@@std@@@std@@@std@@@3@$0A@@std@@@std@@QAEAAV012@XZ ENDP ; std::_Tree<std::_Tmap_traits<CvCity *,std::vector<CvCity *,std::allocator<CvCity *> >,std::less<CvCity *>,std::allocator<std::pair<CvCity * const,std::vector<CvCity *,std::allocator<CvCity *> > > >,0> >::const_iterator::operator--
_TEXT	ENDS
PUBLIC	?allocate@?$allocator@U_Node@?$_Tree_nod@V?$_Tmap_traits@PAVCvCity@@V?$vector@PAVCvCity@@V?$allocator@PAVCvCity@@@std@@@std@@U?$less@PAVCvCity@@@3@V?$allocator@U?$pair@QAVCvCity@@V?$vector@PAVCvCity@@V?$allocator@PAVCvCity@@@std@@@std@@@std@@@3@$0A@@std@@@std@@@std@@QAEPAU_Node@?$_Tree_nod@V?$_Tmap_traits@PAVCvCity@@V?$vector@PAVCvCity@@V?$allocator@PAVCvCity@@@std@@@std@@U?$less@PAVCvCity@@@3@V?$allocator@U?$pair@QAVCvCity@@V?$vector@PAVCvCity@@V?$allocator@PAVCvCity@@@std@@@std@@@std@@@3@$0A@@std@@@2@I@Z ; std::allocator<std::_Tree_nod<std::_Tmap_traits<CvCity *,std::vector<CvCity *,std::allocator<CvCity *> >,std::less<CvCity *>,std::allocator<std::pair<CvCity * const,std::vector<CvCity *,std::allocator<CvCity *> > > >,0> >::_Node>::allocate
; Function compile flags: /Ogtpy
; File c:\program files (x86)\microsoft visual studio 9.0\vc\include\xmemory
;	COMDAT ?allocate@?$allocator@U_Node@?$_Tree_nod@V?$_Tmap_traits@PAVCvCity@@V?$vector@PAVCvCity@@V?$allocator@PAVCvCity@@@std@@@std@@U?$less@PAVCvCity@@@3@V?$allocator@U?$pair@QAVCvCity@@V?$vector@PAVCvCity@@V?$allocator@PAVCvCity@@@std@@@std@@@std@@@3@$0A@@std@@@std@@@std@@QAEPAU_Node@?$_Tree_nod@V?$_Tmap_traits@PAVCvCity@@V?$vector@PAVCvCity@@V?$allocator@PAVCvCity@@@std@@@std@@U?$less@PAVCvCity@@@3@V?$allocator@U?$pair@QAVCvCity@@V?$vector@PAVCvCity@@V?$allocator@PAVCvCity@@@std@@@std@@@std@@@3@$0A@@std@@@2@I@Z
_TEXT	SEGMENT
__Count$ = 8						; size = 4
?allocate@?$allocator@U_Node@?$_Tree_nod@V?$_Tmap_traits@PAVCvCity@@V?$vector@PAVCvCity@@V?$allocator@PAVCvCity@@@std@@@std@@U?$less@PAVCvCity@@@3@V?$allocator@U?$pair@QAVCvCity@@V?$vector@PAVCvCity@@V?$allocator@PAVCvCity@@@std@@@std@@@std@@@3@$0A@@std@@@std@@@std@@QAEPAU_Node@?$_Tree_nod@V?$_Tmap_traits@PAVCvCity@@V?$vector@PAVCvCity@@V?$allocator@PAVCvCity@@@std@@@std@@U?$less@PAVCvCity@@@3@V?$allocator@U?$pair@QAVCvCity@@V?$vector@PAVCvCity@@V?$allocator@PAVCvCity@@@std@@@std@@@std@@@3@$0A@@std@@@2@I@Z PROC ; std::allocator<std::_Tree_nod<std::_Tmap_traits<CvCity *,std::vector<CvCity *,std::allocator<CvCity *> >,std::less<CvCity *>,std::allocator<std::pair<CvCity * const,std::vector<CvCity *,std::allocator<CvCity *> > > >,0> >::_Node>::allocate, COMDAT
; _this$ = ecx

; 145  : 		return (_Allocate(_Count, (pointer)0));

	mov	eax, DWORD PTR __Count$[esp-4]
	push	0
	push	eax
	call	??$_Allocate@U_Node@?$_Tree_nod@V?$_Tmap_traits@PAVCvCity@@V?$vector@PAVCvCity@@V?$allocator@PAVCvCity@@@std@@@std@@U?$less@PAVCvCity@@@3@V?$allocator@U?$pair@QAVCvCity@@V?$vector@PAVCvCity@@V?$allocator@PAVCvCity@@@std@@@std@@@std@@@3@$0A@@std@@@std@@@std@@YAPAU_Node@?$_Tree_nod@V?$_Tmap_traits@PAVCvCity@@V?$vector@PAVCvCity@@V?$allocator@PAVCvCity@@@std@@@std@@U?$less@PAVCvCity@@@3@V?$allocator@U?$pair@QAVCvCity@@V?$vector@PAVCvCity@@V?$allocator@PAVCvCity@@@std@@@std@@@std@@@3@$0A@@std@@@0@IPAU120@@Z ; std::_Allocate<std::_Tree_nod<std::_Tmap_traits<CvCity *,std::vector<CvCity *,std::allocator<CvCity *> >,std::less<CvCity *>,std::allocator<std::pair<CvCity * const,std::vector<CvCity *,std::allocator<CvCity *> > > >,0> >::_Node>
	add	esp, 8

; 146  : 		}

	ret	4
?allocate@?$allocator@U_Node@?$_Tree_nod@V?$_Tmap_traits@PAVCvCity@@V?$vector@PAVCvCity@@V?$allocator@PAVCvCity@@@std@@@std@@U?$less@PAVCvCity@@@3@V?$allocator@U?$pair@QAVCvCity@@V?$vector@PAVCvCity@@V?$allocator@PAVCvCity@@@std@@@std@@@std@@@3@$0A@@std@@@std@@@std@@QAEPAU_Node@?$_Tree_nod@V?$_Tmap_traits@PAVCvCity@@V?$vector@PAVCvCity@@V?$allocator@PAVCvCity@@@std@@@std@@U?$less@PAVCvCity@@@3@V?$allocator@U?$pair@QAVCvCity@@V?$vector@PAVCvCity@@V?$allocator@PAVCvCity@@@std@@@std@@@std@@@3@$0A@@std@@@2@I@Z ENDP ; std::allocator<std::_Tree_nod<std::_Tmap_traits<CvCity *,std::vector<CvCity *,std::allocator<CvCity *> >,std::less<CvCity *>,std::allocator<std::pair<CvCity * const,std::vector<CvCity *,std::allocator<CvCity *> > > >,0> >::_Node>::allocate
_TEXT	ENDS
PUBLIC	??Econst_iterator@?$_Tree@V?$_Tmap_traits@PAVCvCity@@V?$vector@PAVCvCity@@V?$allocator@PAVCvCity@@@std@@@std@@U?$less@PAVCvCity@@@3@V?$allocator@U?$pair@QAVCvCity@@V?$vector@PAVCvCity@@V?$allocator@PAVCvCity@@@std@@@std@@@std@@@3@$0A@@std@@@std@@QAE?AV012@H@Z ; std::_Tree<std::_Tmap_traits<CvCity *,std::vector<CvCity *,std::allocator<CvCity *> >,std::less<CvCity *>,std::allocator<std::pair<CvCity * const,std::vector<CvCity *,std::allocator<CvCity *> > > >,0> >::const_iterator::operator++
; Function compile flags: /Ogtpy
; File c:\program files (x86)\microsoft visual studio 9.0\vc\include\xtree
;	COMDAT ??Econst_iterator@?$_Tree@V?$_Tmap_traits@PAVCvCity@@V?$vector@PAVCvCity@@V?$allocator@PAVCvCity@@@std@@@std@@U?$less@PAVCvCity@@@3@V?$allocator@U?$pair@QAVCvCity@@V?$vector@PAVCvCity@@V?$allocator@PAVCvCity@@@std@@@std@@@std@@@3@$0A@@std@@@std@@QAE?AV012@H@Z
_TEXT	SEGMENT
___$ReturnUdt$ = 8					; size = 4
___formal$ = 12						; size = 4
??Econst_iterator@?$_Tree@V?$_Tmap_traits@PAVCvCity@@V?$vector@PAVCvCity@@V?$allocator@PAVCvCity@@@std@@@std@@U?$less@PAVCvCity@@@3@V?$allocator@U?$pair@QAVCvCity@@V?$vector@PAVCvCity@@V?$allocator@PAVCvCity@@@std@@@std@@@std@@@3@$0A@@std@@@std@@QAE?AV012@H@Z PROC ; std::_Tree<std::_Tmap_traits<CvCity *,std::vector<CvCity *,std::allocator<CvCity *> >,std::less<CvCity *>,std::allocator<std::pair<CvCity * const,std::vector<CvCity *,std::allocator<CvCity *> > > >,0> >::const_iterator::operator++, COMDAT
; _this$ = ecx

; 280  : 			const_iterator _Tmp = *this;

	mov	eax, DWORD PTR [ecx]
	push	esi
	mov	esi, DWORD PTR ___$ReturnUdt$[esp]
	mov	DWORD PTR [esi], eax

; 281  : 			++*this;

	call	?_Inc@const_iterator@?$_Tree@V?$_Tmap_traits@PAVCvCity@@V?$vector@PAVCvCity@@V?$allocator@PAVCvCity@@@std@@@std@@U?$less@PAVCvCity@@@3@V?$allocator@U?$pair@QAVCvCity@@V?$vector@PAVCvCity@@V?$allocator@PAVCvCity@@@std@@@std@@@std@@@3@$0A@@std@@@std@@QAEXXZ ; std::_Tree<std::_Tmap_traits<CvCity *,std::vector<CvCity *,std::allocator<CvCity *> >,std::less<CvCity *>,std::allocator<std::pair<CvCity * const,std::vector<CvCity *,std::allocator<CvCity *> > > >,0> >::const_iterator::_Inc

; 282  : 			return (_Tmp);

	mov	eax, esi
	pop	esi

; 283  : 			}

	ret	8
??Econst_iterator@?$_Tree@V?$_Tmap_traits@PAVCvCity@@V?$vector@PAVCvCity@@V?$allocator@PAVCvCity@@@std@@@std@@U?$less@PAVCvCity@@@3@V?$allocator@U?$pair@QAVCvCity@@V?$vector@PAVCvCity@@V?$allocator@PAVCvCity@@@std@@@std@@@std@@@3@$0A@@std@@@std@@QAE?AV012@H@Z ENDP ; std::_Tree<std::_Tmap_traits<CvCity *,std::vector<CvCity *,std::allocator<CvCity *> >,std::less<CvCity *>,std::allocator<std::pair<CvCity * const,std::vector<CvCity *,std::allocator<CvCity *> > > >,0> >::const_iterator::operator++
_TEXT	ENDS
PUBLIC	?construct@?$allocator@PAU_Node@?$_Tree_nod@V?$_Tmap_traits@PAVCvCity@@V?$vector@PAVCvCity@@V?$allocator@PAVCvCity@@@std@@@std@@U?$less@PAVCvCity@@@3@V?$allocator@U?$pair@QAVCvCity@@V?$vector@PAVCvCity@@V?$allocator@PAVCvCity@@@std@@@std@@@std@@@3@$0A@@std@@@std@@@std@@QAEXPAPAU_Node@?$_Tree_nod@V?$_Tmap_traits@PAVCvCity@@V?$vector@PAVCvCity@@V?$allocator@PAVCvCity@@@std@@@std@@U?$less@PAVCvCity@@@3@V?$allocator@U?$pair@QAVCvCity@@V?$vector@PAVCvCity@@V?$allocator@PAVCvCity@@@std@@@std@@@std@@@3@$0A@@std@@@2@ABQAU342@@Z ; std::allocator<std::_Tree_nod<std::_Tmap_traits<CvCity *,std::vector<CvCity *,std::allocator<CvCity *> >,std::less<CvCity *>,std::allocator<std::pair<CvCity * const,std::vector<CvCity *,std::allocator<CvCity *> > > >,0> >::_Node *>::construct
; Function compile flags: /Ogtpy
; File c:\program files (x86)\microsoft visual studio 9.0\vc\include\xmemory
;	COMDAT ?construct@?$allocator@PAU_Node@?$_Tree_nod@V?$_Tmap_traits@PAVCvCity@@V?$vector@PAVCvCity@@V?$allocator@PAVCvCity@@@std@@@std@@U?$less@PAVCvCity@@@3@V?$allocator@U?$pair@QAVCvCity@@V?$vector@PAVCvCity@@V?$allocator@PAVCvCity@@@std@@@std@@@std@@@3@$0A@@std@@@std@@@std@@QAEXPAPAU_Node@?$_Tree_nod@V?$_Tmap_traits@PAVCvCity@@V?$vector@PAVCvCity@@V?$allocator@PAVCvCity@@@std@@@std@@U?$less@PAVCvCity@@@3@V?$allocator@U?$pair@QAVCvCity@@V?$vector@PAVCvCity@@V?$allocator@PAVCvCity@@@std@@@std@@@std@@@3@$0A@@std@@@2@ABQAU342@@Z
_TEXT	SEGMENT
__Ptr$ = 8						; size = 4
__Val$ = 12						; size = 4
?construct@?$allocator@PAU_Node@?$_Tree_nod@V?$_Tmap_traits@PAVCvCity@@V?$vector@PAVCvCity@@V?$allocator@PAVCvCity@@@std@@@std@@U?$less@PAVCvCity@@@3@V?$allocator@U?$pair@QAVCvCity@@V?$vector@PAVCvCity@@V?$allocator@PAVCvCity@@@std@@@std@@@std@@@3@$0A@@std@@@std@@@std@@QAEXPAPAU_Node@?$_Tree_nod@V?$_Tmap_traits@PAVCvCity@@V?$vector@PAVCvCity@@V?$allocator@PAVCvCity@@@std@@@std@@U?$less@PAVCvCity@@@3@V?$allocator@U?$pair@QAVCvCity@@V?$vector@PAVCvCity@@V?$allocator@PAVCvCity@@@std@@@std@@@std@@@3@$0A@@std@@@2@ABQAU342@@Z PROC ; std::allocator<std::_Tree_nod<std::_Tmap_traits<CvCity *,std::vector<CvCity *,std::allocator<CvCity *> >,std::less<CvCity *>,std::allocator<std::pair<CvCity * const,std::vector<CvCity *,std::allocator<CvCity *> > > >,0> >::_Node *>::construct, COMDAT
; _this$ = ecx

; 155  : 		_Construct(_Ptr, _Val);

	mov	eax, DWORD PTR __Ptr$[esp-4]
	test	eax, eax
	je	SHORT $LN5@construct
	mov	ecx, DWORD PTR __Val$[esp-4]
	mov	edx, DWORD PTR [ecx]
	mov	DWORD PTR [eax], edx
$LN5@construct:

; 156  : 		}

	ret	8
?construct@?$allocator@PAU_Node@?$_Tree_nod@V?$_Tmap_traits@PAVCvCity@@V?$vector@PAVCvCity@@V?$allocator@PAVCvCity@@@std@@@std@@U?$less@PAVCvCity@@@3@V?$allocator@U?$pair@QAVCvCity@@V?$vector@PAVCvCity@@V?$allocator@PAVCvCity@@@std@@@std@@@std@@@3@$0A@@std@@@std@@@std@@QAEXPAPAU_Node@?$_Tree_nod@V?$_Tmap_traits@PAVCvCity@@V?$vector@PAVCvCity@@V?$allocator@PAVCvCity@@@std@@@std@@U?$less@PAVCvCity@@@3@V?$allocator@U?$pair@QAVCvCity@@V?$vector@PAVCvCity@@V?$allocator@PAVCvCity@@@std@@@std@@@std@@@3@$0A@@std@@@2@ABQAU342@@Z ENDP ; std::allocator<std::_Tree_nod<std::_Tmap_traits<CvCity *,std::vector<CvCity *,std::allocator<CvCity *> >,std::less<CvCity *>,std::allocator<std::pair<CvCity * const,std::vector<CvCity *,std::allocator<CvCity *> > > >,0> >::_Node *>::construct
_TEXT	ENDS
PUBLIC	??0?$_Tmap_traits@PAVCvCity@@V?$vector@PAVCvCity@@V?$allocator@PAVCvCity@@@std@@@std@@U?$less@PAVCvCity@@@3@V?$allocator@U?$pair@QAVCvCity@@V?$vector@PAVCvCity@@V?$allocator@PAVCvCity@@@std@@@std@@@std@@@3@$0A@@std@@QAE@U?$less@PAVCvCity@@@1@V?$allocator@U?$pair@QAVCvCity@@V?$vector@PAVCvCity@@V?$allocator@PAVCvCity@@@std@@@std@@@std@@@1@@Z ; std::_Tmap_traits<CvCity *,std::vector<CvCity *,std::allocator<CvCity *> >,std::less<CvCity *>,std::allocator<std::pair<CvCity * const,std::vector<CvCity *,std::allocator<CvCity *> > > >,0>::_Tmap_traits<CvCity *,std::vector<CvCity *,std::allocator<CvCity *> >,std::less<CvCity *>,std::allocator<std::pair<CvCity * const,std::vector<CvCity *,std::allocator<CvCity *> > > >,0>
; Function compile flags: /Ogtpy
; File c:\program files (x86)\microsoft visual studio 9.0\vc\include\map
;	COMDAT ??0?$_Tmap_traits@PAVCvCity@@V?$vector@PAVCvCity@@V?$allocator@PAVCvCity@@@std@@@std@@U?$less@PAVCvCity@@@3@V?$allocator@U?$pair@QAVCvCity@@V?$vector@PAVCvCity@@V?$allocator@PAVCvCity@@@std@@@std@@@std@@@3@$0A@@std@@QAE@U?$less@PAVCvCity@@@1@V?$allocator@U?$pair@QAVCvCity@@V?$vector@PAVCvCity@@V?$allocator@PAVCvCity@@@std@@@std@@@std@@@1@@Z
_TEXT	SEGMENT
__Parg$ = 8						; size = 1
__Al$ = 12						; size = 1
??0?$_Tmap_traits@PAVCvCity@@V?$vector@PAVCvCity@@V?$allocator@PAVCvCity@@@std@@@std@@U?$less@PAVCvCity@@@3@V?$allocator@U?$pair@QAVCvCity@@V?$vector@PAVCvCity@@V?$allocator@PAVCvCity@@@std@@@std@@@std@@@3@$0A@@std@@QAE@U?$less@PAVCvCity@@@1@V?$allocator@U?$pair@QAVCvCity@@V?$vector@PAVCvCity@@V?$allocator@PAVCvCity@@@std@@@std@@@std@@@1@@Z PROC ; std::_Tmap_traits<CvCity *,std::vector<CvCity *,std::allocator<CvCity *> >,std::less<CvCity *>,std::allocator<std::pair<CvCity * const,std::vector<CvCity *,std::allocator<CvCity *> > > >,0>::_Tmap_traits<CvCity *,std::vector<CvCity *,std::allocator<CvCity *> >,std::less<CvCity *>,std::allocator<std::pair<CvCity * const,std::vector<CvCity *,std::allocator<CvCity *> > > >,0>, COMDAT
; _this$ = ecx

; 39   : 		{	// construct with specified comparator

	mov	eax, ecx

; 40   : 		}

	ret	8
??0?$_Tmap_traits@PAVCvCity@@V?$vector@PAVCvCity@@V?$allocator@PAVCvCity@@@std@@@std@@U?$less@PAVCvCity@@@3@V?$allocator@U?$pair@QAVCvCity@@V?$vector@PAVCvCity@@V?$allocator@PAVCvCity@@@std@@@std@@@std@@@3@$0A@@std@@QAE@U?$less@PAVCvCity@@@1@V?$allocator@U?$pair@QAVCvCity@@V?$vector@PAVCvCity@@V?$allocator@PAVCvCity@@@std@@@std@@@std@@@1@@Z ENDP ; std::_Tmap_traits<CvCity *,std::vector<CvCity *,std::allocator<CvCity *> >,std::less<CvCity *>,std::allocator<std::pair<CvCity * const,std::vector<CvCity *,std::allocator<CvCity *> > > >,0>::_Tmap_traits<CvCity *,std::vector<CvCity *,std::allocator<CvCity *> >,std::less<CvCity *>,std::allocator<std::pair<CvCity * const,std::vector<CvCity *,std::allocator<CvCity *> > > >,0>
_TEXT	ENDS
PUBLIC	??$unchecked_copy@PAPAVCvCity@@PAPAV1@@stdext@@YAPAPAVCvCity@@PAPAV1@00@Z ; stdext::unchecked_copy<CvCity * *,CvCity * *>
; Function compile flags: /Ogtpy
; File c:\program files (x86)\microsoft visual studio 9.0\vc\include\xutility
;	COMDAT ??$unchecked_copy@PAPAVCvCity@@PAPAV1@@stdext@@YAPAPAVCvCity@@PAPAV1@00@Z
_TEXT	SEGMENT
__First$ = 8						; size = 4
__Last$ = 12						; size = 4
__Dest$ = 16						; size = 4
??$unchecked_copy@PAPAVCvCity@@PAPAV1@@stdext@@YAPAPAVCvCity@@PAPAV1@00@Z PROC ; stdext::unchecked_copy<CvCity * *,CvCity * *>, COMDAT

; 3605 : 		return (_STD _Copy_opt(_CHECKED_BASE(_First), _CHECKED_BASE(_Last), _Dest,
; 3606 : 			_STD _Iter_random(_First, _Dest), _STD _Ptr_cat(_First, _Dest), _STD _Range_checked_iterator_tag()));

	mov	eax, DWORD PTR __Last$[esp-4]
	mov	edx, DWORD PTR __First$[esp-4]
	sub	eax, edx
	push	esi
	sar	eax, 2
	push	edi
	mov	edi, DWORD PTR __Dest$[esp+4]
	lea	ecx, DWORD PTR [eax*4]
	lea	esi, DWORD PTR [ecx+edi]
	test	eax, eax
	jle	SHORT $LN10@unchecked_
	push	ecx
	push	edx
	push	ecx
	push	edi
	call	DWORD PTR __imp__memmove_s
	add	esp, 16					; 00000010H
$LN10@unchecked_:
	pop	edi
	mov	eax, esi
	pop	esi

; 3607 : 	}

	ret	0
??$unchecked_copy@PAPAVCvCity@@PAPAV1@@stdext@@YAPAPAVCvCity@@PAPAV1@00@Z ENDP ; stdext::unchecked_copy<CvCity * *,CvCity * *>
_TEXT	ENDS
PUBLIC	??$_Destroy_range@V?$allocator@PAVCvCity@@@std@@@std@@YAXPAPAVCvCity@@0AAV?$allocator@PAVCvCity@@@0@@Z ; std::_Destroy_range<std::allocator<CvCity *> >
; Function compile flags: /Ogtpy
; File c:\program files (x86)\microsoft visual studio 9.0\vc\include\xmemory
;	COMDAT ??$_Destroy_range@V?$allocator@PAVCvCity@@@std@@@std@@YAXPAPAVCvCity@@0AAV?$allocator@PAVCvCity@@@0@@Z
_TEXT	SEGMENT
__First$ = 8						; size = 4
__Last$ = 12						; size = 4
__Al$ = 16						; size = 4
??$_Destroy_range@V?$allocator@PAVCvCity@@@std@@@std@@YAXPAPAVCvCity@@0AAV?$allocator@PAVCvCity@@@0@@Z PROC ; std::_Destroy_range<std::allocator<CvCity *> >, COMDAT

; 225  : 	_Destroy_range(_First, _Last, _Al, _Ptr_cat(_First, _Last));
; 226  : 	}

	ret	0
??$_Destroy_range@V?$allocator@PAVCvCity@@@std@@@std@@YAXPAPAVCvCity@@0AAV?$allocator@PAVCvCity@@@0@@Z ENDP ; std::_Destroy_range<std::allocator<CvCity *> >
_TEXT	ENDS
PUBLIC	??$fill@PAPAVCvCity@@PAV1@@std@@YAXPAPAVCvCity@@0ABQAV1@@Z ; std::fill<CvCity * *,CvCity *>
; Function compile flags: /Ogtpy
; File c:\program files (x86)\microsoft visual studio 9.0\vc\include\xutility
;	COMDAT ??$fill@PAPAVCvCity@@PAV1@@std@@YAXPAPAVCvCity@@0ABQAV1@@Z
_TEXT	SEGMENT
__First$ = 8						; size = 4
__Last$ = 12						; size = 4
__Val$ = 16						; size = 4
??$fill@PAPAVCvCity@@PAV1@@std@@YAXPAPAVCvCity@@0ABQAV1@@Z PROC ; std::fill<CvCity * *,CvCity *>, COMDAT

; 3187 : 	_Fill(_CHECKED_BASE(_First), _CHECKED_BASE(_Last), _Val);

	mov	eax, DWORD PTR __First$[esp-4]
	mov	ecx, DWORD PTR __Last$[esp-4]
	cmp	eax, ecx
	je	SHORT $LN3@fill
	mov	edx, DWORD PTR __Val$[esp-4]
	push	esi
$LL5@fill:
	mov	esi, DWORD PTR [edx]
	mov	DWORD PTR [eax], esi
	add	eax, 4
	cmp	eax, ecx
	jne	SHORT $LL5@fill
	pop	esi
$LN3@fill:

; 3188 : 	}

	ret	0
??$fill@PAPAVCvCity@@PAV1@@std@@YAXPAPAVCvCity@@0ABQAV1@@Z ENDP ; std::fill<CvCity * *,CvCity *>
_TEXT	ENDS
PUBLIC	??$_Move_backward_opt@PAPAVCvCity@@PAPAV1@Urandom_access_iterator_tag@std@@U_Undefined_move_tag@3@@std@@YAPAPAVCvCity@@PAPAV1@00Urandom_access_iterator_tag@0@U_Undefined_move_tag@0@U_Range_checked_iterator_tag@0@@Z ; std::_Move_backward_opt<CvCity * *,CvCity * *,std::random_access_iterator_tag,std::_Undefined_move_tag>
; Function compile flags: /Ogtpy
;	COMDAT ??$_Move_backward_opt@PAPAVCvCity@@PAPAV1@Urandom_access_iterator_tag@std@@U_Undefined_move_tag@3@@std@@YAPAPAVCvCity@@PAPAV1@00Urandom_access_iterator_tag@0@U_Undefined_move_tag@0@U_Range_checked_iterator_tag@0@@Z
_TEXT	SEGMENT
__First$ = 8						; size = 4
__Last$ = 12						; size = 4
__Dest$ = 16						; size = 4
__First_dest_cat$ = 20					; size = 1
___formal$ = 24						; size = 1
___formal$ = 28						; size = 1
??$_Move_backward_opt@PAPAVCvCity@@PAPAV1@Urandom_access_iterator_tag@std@@U_Undefined_move_tag@3@@std@@YAPAPAVCvCity@@PAPAV1@00Urandom_access_iterator_tag@0@U_Undefined_move_tag@0@U_Range_checked_iterator_tag@0@@Z PROC ; std::_Move_backward_opt<CvCity * *,CvCity * *,std::random_access_iterator_tag,std::_Undefined_move_tag>, COMDAT

; 2753 : 	return _Copy_backward_opt(_First, _Last, _Dest,
; 2754 : 		_First_dest_cat, _Ptr_cat(_First, _Dest), _Range_checked_iterator_tag());

	mov	eax, DWORD PTR __Last$[esp-4]
	mov	edx, DWORD PTR __First$[esp-4]
	sub	eax, edx
	sar	eax, 2
	push	esi
	mov	esi, DWORD PTR __Dest$[esp]
	lea	ecx, DWORD PTR [eax*4]
	sub	esi, ecx
	test	eax, eax
	jle	SHORT $LN8@Move_backw
	push	ecx
	push	edx
	push	ecx
	push	esi
	call	DWORD PTR __imp__memmove_s
	add	esp, 16					; 00000010H
$LN8@Move_backw:
	mov	eax, esi
	pop	esi

; 2755 : 	}

	ret	0
??$_Move_backward_opt@PAPAVCvCity@@PAPAV1@Urandom_access_iterator_tag@std@@U_Undefined_move_tag@3@@std@@YAPAPAVCvCity@@PAPAV1@00Urandom_access_iterator_tag@0@U_Undefined_move_tag@0@U_Range_checked_iterator_tag@0@@Z ENDP ; std::_Move_backward_opt<CvCity * *,CvCity * *,std::random_access_iterator_tag,std::_Undefined_move_tag>
_TEXT	ENDS
PUBLIC	?construct@?$allocator@PAVCvCity@@@std@@QAEXPAPAVCvCity@@ABQAV3@@Z ; std::allocator<CvCity *>::construct
; Function compile flags: /Ogtpy
; File c:\program files (x86)\microsoft visual studio 9.0\vc\include\xmemory
;	COMDAT ?construct@?$allocator@PAVCvCity@@@std@@QAEXPAPAVCvCity@@ABQAV3@@Z
_TEXT	SEGMENT
__Ptr$ = 8						; size = 4
__Val$ = 12						; size = 4
?construct@?$allocator@PAVCvCity@@@std@@QAEXPAPAVCvCity@@ABQAV3@@Z PROC ; std::allocator<CvCity *>::construct, COMDAT
; _this$ = ecx

; 155  : 		_Construct(_Ptr, _Val);

	mov	eax, DWORD PTR __Ptr$[esp-4]
	test	eax, eax
	je	SHORT $LN5@construct@2
	mov	ecx, DWORD PTR __Val$[esp-4]
	mov	edx, DWORD PTR [ecx]
	mov	DWORD PTR [eax], edx
$LN5@construct@2:

; 156  : 		}

	ret	8
?construct@?$allocator@PAVCvCity@@@std@@QAEXPAPAVCvCity@@ABQAV3@@Z ENDP ; std::allocator<CvCity *>::construct
_TEXT	ENDS
PUBLIC	?destroy@?$allocator@PAVCvCity@@@std@@QAEXPAPAVCvCity@@@Z ; std::allocator<CvCity *>::destroy
; Function compile flags: /Ogtpy
;	COMDAT ?destroy@?$allocator@PAVCvCity@@@std@@QAEXPAPAVCvCity@@@Z
_TEXT	SEGMENT
__Ptr$ = 8						; size = 4
?destroy@?$allocator@PAVCvCity@@@std@@QAEXPAPAVCvCity@@@Z PROC ; std::allocator<CvCity *>::destroy, COMDAT
; _this$ = ecx

; 160  : 		_Destroy(_Ptr);
; 161  : 		}

	ret	4
?destroy@?$allocator@PAVCvCity@@@std@@QAEXPAPAVCvCity@@@Z ENDP ; std::allocator<CvCity *>::destroy
_TEXT	ENDS
PUBLIC	??$unchecked_uninitialized_copy@PAPAVCvCity@@PAPAV1@V?$allocator@PAVCvCity@@@std@@@stdext@@YAPAPAVCvCity@@PAPAV1@00AAV?$allocator@PAVCvCity@@@std@@@Z ; stdext::unchecked_uninitialized_copy<CvCity * *,CvCity * *,std::allocator<CvCity *> >
; Function compile flags: /Ogtpy
; File c:\program files (x86)\microsoft visual studio 9.0\vc\include\memory
;	COMDAT ??$unchecked_uninitialized_copy@PAPAVCvCity@@PAPAV1@V?$allocator@PAVCvCity@@@std@@@stdext@@YAPAPAVCvCity@@PAPAV1@00AAV?$allocator@PAVCvCity@@@std@@@Z
_TEXT	SEGMENT
__First$ = 8						; size = 4
__Last$ = 12						; size = 4
__Dest$ = 16						; size = 4
__Al$ = 20						; size = 4
??$unchecked_uninitialized_copy@PAPAVCvCity@@PAPAV1@V?$allocator@PAVCvCity@@@std@@@stdext@@YAPAPAVCvCity@@PAPAV1@00AAV?$allocator@PAVCvCity@@@std@@@Z PROC ; stdext::unchecked_uninitialized_copy<CvCity * *,CvCity * *,std::allocator<CvCity *> >, COMDAT

; 820  : 	return (_STD _Uninit_copy(_CHECKED_BASE(_First),
; 821  : 		_CHECKED_BASE(_Last), _Dest, _Al,
; 822  : 		_STD _Ptr_cat(_First, _Dest), _STD _Range_checked_iterator_tag()));

	mov	eax, DWORD PTR __Last$[esp-4]
	mov	edx, DWORD PTR __First$[esp-4]
	sub	eax, edx
	push	esi
	sar	eax, 2
	push	edi
	mov	edi, DWORD PTR __Dest$[esp+4]
	lea	ecx, DWORD PTR [eax*4]
	lea	esi, DWORD PTR [ecx+edi]
	test	eax, eax
	jbe	SHORT $LN8@unchecked_@2
	push	ecx
	push	edx
	push	ecx
	push	edi
	call	DWORD PTR __imp__memmove_s
	add	esp, 16					; 00000010H
$LN8@unchecked_@2:
	pop	edi
	mov	eax, esi
	pop	esi

; 823  : 	}

	ret	0
??$unchecked_uninitialized_copy@PAPAVCvCity@@PAPAV1@V?$allocator@PAVCvCity@@@std@@@stdext@@YAPAPAVCvCity@@PAPAV1@00AAV?$allocator@PAVCvCity@@@std@@@Z ENDP ; stdext::unchecked_uninitialized_copy<CvCity * *,CvCity * *,std::allocator<CvCity *> >
_TEXT	ENDS
PUBLIC	??$_Fill_n@PAPAVCvCity@@IPAV1@Urandom_access_iterator_tag@std@@@std@@YAXPAPAVCvCity@@IABQAV1@Urandom_access_iterator_tag@0@U_Range_checked_iterator_tag@0@@Z ; std::_Fill_n<CvCity * *,unsigned int,CvCity *,std::random_access_iterator_tag>
; Function compile flags: /Ogtpy
; File c:\program files (x86)\microsoft visual studio 9.0\vc\include\xutility
;	COMDAT ??$_Fill_n@PAPAVCvCity@@IPAV1@Urandom_access_iterator_tag@std@@@std@@YAXPAPAVCvCity@@IABQAV1@Urandom_access_iterator_tag@0@U_Range_checked_iterator_tag@0@@Z
_TEXT	SEGMENT
__First$ = 8						; size = 4
__Count$ = 12						; size = 4
__Val$ = 16						; size = 4
___formal$ = 20						; size = 1
___formal$ = 24						; size = 1
??$_Fill_n@PAPAVCvCity@@IPAV1@Urandom_access_iterator_tag@std@@@std@@YAXPAPAVCvCity@@IABQAV1@Urandom_access_iterator_tag@0@U_Range_checked_iterator_tag@0@@Z PROC ; std::_Fill_n<CvCity * *,unsigned int,CvCity *,std::random_access_iterator_tag>, COMDAT

; 3242 : 		_Fill_n(_First, _Count, _Val, _Range_checked_iterator_tag());

	mov	eax, DWORD PTR __Count$[esp-4]
	mov	ecx, DWORD PTR __First$[esp-4]
	test	eax, eax
	jbe	SHORT $LN3@Fill_n@2
	mov	edx, DWORD PTR __Val$[esp-4]
	push	esi
$LL5@Fill_n@2:
	mov	esi, DWORD PTR [edx]
	mov	DWORD PTR [ecx], esi
	dec	eax
	add	ecx, 4
	test	eax, eax
	ja	SHORT $LL5@Fill_n@2
	pop	esi
$LN3@Fill_n@2:

; 3243 : 	}

	ret	0
??$_Fill_n@PAPAVCvCity@@IPAV1@Urandom_access_iterator_tag@std@@@std@@YAXPAPAVCvCity@@IABQAV1@Urandom_access_iterator_tag@0@U_Range_checked_iterator_tag@0@@Z ENDP ; std::_Fill_n<CvCity * *,unsigned int,CvCity *,std::random_access_iterator_tag>
_TEXT	ENDS
PUBLIC	??$_Uninit_copy@V?$_Vector_iterator@PAVCvCity@@V?$allocator@PAVCvCity@@@std@@@std@@PAPAVCvCity@@V?$allocator@PAVCvCity@@@2@@std@@YAPAPAVCvCity@@V?$_Vector_iterator@PAVCvCity@@V?$allocator@PAVCvCity@@@std@@@0@0PAPAV1@AAV?$allocator@PAVCvCity@@@0@U_Nonscalar_ptr_iterator_tag@0@U_Range_checked_iterator_tag@0@@Z ; std::_Uninit_copy<std::_Vector_iterator<CvCity *,std::allocator<CvCity *> >,CvCity * *,std::allocator<CvCity *> >
; Function compile flags: /Ogtpy
; File c:\program files (x86)\microsoft visual studio 9.0\vc\include\memory
;	COMDAT ??$_Uninit_copy@V?$_Vector_iterator@PAVCvCity@@V?$allocator@PAVCvCity@@@std@@@std@@PAPAVCvCity@@V?$allocator@PAVCvCity@@@2@@std@@YAPAPAVCvCity@@V?$_Vector_iterator@PAVCvCity@@V?$allocator@PAVCvCity@@@std@@@0@0PAPAV1@AAV?$allocator@PAVCvCity@@@0@U_Nonscalar_ptr_iterator_tag@0@U_Range_checked_iterator_tag@0@@Z
_TEXT	SEGMENT
__First$ = 8						; size = 4
__Last$ = 12						; size = 4
__Dest$ = 16						; size = 4
__Al$ = 20						; size = 4
___formal$ = 24						; size = 1
___formal$ = 28						; size = 1
??$_Uninit_copy@V?$_Vector_iterator@PAVCvCity@@V?$allocator@PAVCvCity@@@std@@@std@@PAPAVCvCity@@V?$allocator@PAVCvCity@@@2@@std@@YAPAPAVCvCity@@V?$_Vector_iterator@PAVCvCity@@V?$allocator@PAVCvCity@@@std@@@0@0PAPAV1@AAV?$allocator@PAVCvCity@@@0@U_Nonscalar_ptr_iterator_tag@0@U_Range_checked_iterator_tag@0@@Z PROC ; std::_Uninit_copy<std::_Vector_iterator<CvCity *,std::allocator<CvCity *> >,CvCity * *,std::allocator<CvCity *> >, COMDAT

; 125  : 	_DEBUG_RANGE(_First, _Last);
; 126  : 	_DEBUG_POINTER(_Dest);
; 127  : 	_FwdIt _Next = _Dest;
; 128  : 
; 129  : 	_TRY_BEGIN
; 130  : 	for (; _First != _Last; ++_Dest, ++_First)

	mov	ecx, DWORD PTR __First$[esp-4]
	mov	edx, DWORD PTR __Last$[esp-4]
	mov	eax, DWORD PTR __Dest$[esp-4]
	cmp	ecx, edx
	je	SHORT $LN4@Uninit_cop@2
	push	esi
$LL16@Uninit_cop@2:

; 131  : 		_Al.construct(_Dest, *_First);

	test	eax, eax
	je	SHORT $LN5@Uninit_cop@2
	mov	esi, DWORD PTR [ecx]
	mov	DWORD PTR [eax], esi
$LN5@Uninit_cop@2:
	add	ecx, 4
	add	eax, 4
	mov	DWORD PTR __First$[esp], ecx
	cmp	ecx, edx
	jne	SHORT $LL16@Uninit_cop@2
	pop	esi
$LN4@Uninit_cop@2:

; 132  : 	_CATCH_ALL
; 133  : 	for (; _Next != _Dest; ++_Next)
; 134  : 		_Al.destroy(_Next);
; 135  : 	_RERAISE;
; 136  : 	_CATCH_END
; 137  : 	return (_Dest);
; 138  : 	}

	ret	0
??$_Uninit_copy@V?$_Vector_iterator@PAVCvCity@@V?$allocator@PAVCvCity@@@std@@@std@@PAPAVCvCity@@V?$allocator@PAVCvCity@@@2@@std@@YAPAPAVCvCity@@V?$_Vector_iterator@PAVCvCity@@V?$allocator@PAVCvCity@@@std@@@0@0PAPAV1@AAV?$allocator@PAVCvCity@@@0@U_Nonscalar_ptr_iterator_tag@0@U_Range_checked_iterator_tag@0@@Z ENDP ; std::_Uninit_copy<std::_Vector_iterator<CvCity *,std::allocator<CvCity *> >,CvCity * *,std::allocator<CvCity *> >
_TEXT	ENDS
PUBLIC	?getX@CvCity@@QBEHXZ				; CvCity::getX
; Function compile flags: /Ogtpy
; File c:\users\enormousapplepie\documents\github\lekmod\lekmod_dll\cvgamecoredll_expansion2\cvcity.h
;	COMDAT ?getX@CvCity@@QBEHXZ
_TEXT	SEGMENT
?getX@CvCity@@QBEHXZ PROC				; CvCity::getX, COMDAT
; _this$ = ecx

; 340  : 		return m_iX;

	mov	eax, DWORD PTR [ecx+96]

; 341  : 	}

	ret	0
?getX@CvCity@@QBEHXZ ENDP				; CvCity::getX
_TEXT	ENDS
PUBLIC	?getY@CvCity@@QBEHXZ				; CvCity::getY
; Function compile flags: /Ogtpy
;	COMDAT ?getY@CvCity@@QBEHXZ
_TEXT	SEGMENT
?getY@CvCity@@QBEHXZ PROC				; CvCity::getY, COMDAT
; _this$ = ecx

; 345  : 		return m_iY;

	mov	eax, DWORD PTR [ecx+108]

; 346  : 	}

	ret	0
?getY@CvCity@@QBEHXZ ENDP				; CvCity::getY
_TEXT	ENDS
PUBLIC	?begin@?$_Tree@V?$_Tmap_traits@PAVCvCity@@V?$vector@PAVCvCity@@V?$allocator@PAVCvCity@@@std@@@std@@U?$less@PAVCvCity@@@3@V?$allocator@U?$pair@QAVCvCity@@V?$vector@PAVCvCity@@V?$allocator@PAVCvCity@@@std@@@std@@@std@@@3@$0A@@std@@@std@@QAE?AViterator@12@XZ ; std::_Tree<std::_Tmap_traits<CvCity *,std::vector<CvCity *,std::allocator<CvCity *> >,std::less<CvCity *>,std::allocator<std::pair<CvCity * const,std::vector<CvCity *,std::allocator<CvCity *> > > >,0> >::begin
; Function compile flags: /Ogtpy
; File c:\program files (x86)\microsoft visual studio 9.0\vc\include\xtree
;	COMDAT ?begin@?$_Tree@V?$_Tmap_traits@PAVCvCity@@V?$vector@PAVCvCity@@V?$allocator@PAVCvCity@@@std@@@std@@U?$less@PAVCvCity@@@3@V?$allocator@U?$pair@QAVCvCity@@V?$vector@PAVCvCity@@V?$allocator@PAVCvCity@@@std@@@std@@@std@@@3@$0A@@std@@@std@@QAE?AViterator@12@XZ
_TEXT	SEGMENT
___$ReturnUdt$ = 8					; size = 4
?begin@?$_Tree@V?$_Tmap_traits@PAVCvCity@@V?$vector@PAVCvCity@@V?$allocator@PAVCvCity@@@std@@@std@@U?$less@PAVCvCity@@@3@V?$allocator@U?$pair@QAVCvCity@@V?$vector@PAVCvCity@@V?$allocator@PAVCvCity@@@std@@@std@@@std@@@3@$0A@@std@@@std@@QAE?AViterator@12@XZ PROC ; std::_Tree<std::_Tmap_traits<CvCity *,std::vector<CvCity *,std::allocator<CvCity *> >,std::less<CvCity *>,std::allocator<std::pair<CvCity * const,std::vector<CvCity *,std::allocator<CvCity *> > > >,0> >::begin, COMDAT
; _this$ = ecx

; 556  : 		return (_TREE_ITERATOR(_Lmost()));

	mov	eax, DWORD PTR [ecx+4]
	mov	ecx, DWORD PTR [eax]
	mov	eax, DWORD PTR ___$ReturnUdt$[esp-4]
	mov	DWORD PTR [eax], ecx

; 557  : 		}

	ret	4
?begin@?$_Tree@V?$_Tmap_traits@PAVCvCity@@V?$vector@PAVCvCity@@V?$allocator@PAVCvCity@@@std@@@std@@U?$less@PAVCvCity@@@3@V?$allocator@U?$pair@QAVCvCity@@V?$vector@PAVCvCity@@V?$allocator@PAVCvCity@@@std@@@std@@@std@@@3@$0A@@std@@@std@@QAE?AViterator@12@XZ ENDP ; std::_Tree<std::_Tmap_traits<CvCity *,std::vector<CvCity *,std::allocator<CvCity *> >,std::less<CvCity *>,std::allocator<std::pair<CvCity * const,std::vector<CvCity *,std::allocator<CvCity *> > > >,0> >::begin
_TEXT	ENDS
PUBLIC	?end@?$_Tree@V?$_Tmap_traits@PAVCvCity@@V?$vector@PAVCvCity@@V?$allocator@PAVCvCity@@@std@@@std@@U?$less@PAVCvCity@@@3@V?$allocator@U?$pair@QAVCvCity@@V?$vector@PAVCvCity@@V?$allocator@PAVCvCity@@@std@@@std@@@std@@@3@$0A@@std@@@std@@QAE?AViterator@12@XZ ; std::_Tree<std::_Tmap_traits<CvCity *,std::vector<CvCity *,std::allocator<CvCity *> >,std::less<CvCity *>,std::allocator<std::pair<CvCity * const,std::vector<CvCity *,std::allocator<CvCity *> > > >,0> >::end
; Function compile flags: /Ogtpy
;	COMDAT ?end@?$_Tree@V?$_Tmap_traits@PAVCvCity@@V?$vector@PAVCvCity@@V?$allocator@PAVCvCity@@@std@@@std@@U?$less@PAVCvCity@@@3@V?$allocator@U?$pair@QAVCvCity@@V?$vector@PAVCvCity@@V?$allocator@PAVCvCity@@@std@@@std@@@std@@@3@$0A@@std@@@std@@QAE?AViterator@12@XZ
_TEXT	SEGMENT
___$ReturnUdt$ = 8					; size = 4
?end@?$_Tree@V?$_Tmap_traits@PAVCvCity@@V?$vector@PAVCvCity@@V?$allocator@PAVCvCity@@@std@@@std@@U?$less@PAVCvCity@@@3@V?$allocator@U?$pair@QAVCvCity@@V?$vector@PAVCvCity@@V?$allocator@PAVCvCity@@@std@@@std@@@std@@@3@$0A@@std@@@std@@QAE?AViterator@12@XZ PROC ; std::_Tree<std::_Tmap_traits<CvCity *,std::vector<CvCity *,std::allocator<CvCity *> >,std::less<CvCity *>,std::allocator<std::pair<CvCity * const,std::vector<CvCity *,std::allocator<CvCity *> > > >,0> >::end, COMDAT
; _this$ = ecx

; 566  : 		return (_TREE_ITERATOR(_Myhead));

	mov	ecx, DWORD PTR [ecx+4]
	mov	eax, DWORD PTR ___$ReturnUdt$[esp-4]
	mov	DWORD PTR [eax], ecx

; 567  : 		}

	ret	4
?end@?$_Tree@V?$_Tmap_traits@PAVCvCity@@V?$vector@PAVCvCity@@V?$allocator@PAVCvCity@@@std@@@std@@U?$less@PAVCvCity@@@3@V?$allocator@U?$pair@QAVCvCity@@V?$vector@PAVCvCity@@V?$allocator@PAVCvCity@@@std@@@std@@@std@@@3@$0A@@std@@@std@@QAE?AViterator@12@XZ ENDP ; std::_Tree<std::_Tmap_traits<CvCity *,std::vector<CvCity *,std::allocator<CvCity *> >,std::less<CvCity *>,std::allocator<std::pair<CvCity * const,std::vector<CvCity *,std::allocator<CvCity *> > > >,0> >::end
_TEXT	ENDS
PUBLIC	??0?$vector@PAVCvCity@@V?$allocator@PAVCvCity@@@std@@@std@@QAE@XZ ; std::vector<CvCity *,std::allocator<CvCity *> >::vector<CvCity *,std::allocator<CvCity *> >
; Function compile flags: /Ogtpy
; File c:\program files (x86)\microsoft visual studio 9.0\vc\include\vector
;	COMDAT ??0?$vector@PAVCvCity@@V?$allocator@PAVCvCity@@@std@@@std@@QAE@XZ
_TEXT	SEGMENT
??0?$vector@PAVCvCity@@V?$allocator@PAVCvCity@@@std@@@std@@QAE@XZ PROC ; std::vector<CvCity *,std::allocator<CvCity *> >::vector<CvCity *,std::allocator<CvCity *> >, COMDAT
; _this$ = ecx

; 470  : 		{	// construct empty vector

	mov	eax, ecx

; 471  : 		_Buy(0);

	xor	ecx, ecx
	mov	DWORD PTR [eax+4], ecx
	mov	DWORD PTR [eax+8], ecx
	mov	DWORD PTR [eax+12], ecx

; 472  : 		}

	ret	0
??0?$vector@PAVCvCity@@V?$allocator@PAVCvCity@@@std@@@std@@QAE@XZ ENDP ; std::vector<CvCity *,std::allocator<CvCity *> >::vector<CvCity *,std::allocator<CvCity *> >
_TEXT	ENDS
PUBLIC	?begin@?$vector@PAVCvCity@@V?$allocator@PAVCvCity@@@std@@@std@@QAE?AV?$_Vector_iterator@PAVCvCity@@V?$allocator@PAVCvCity@@@std@@@2@XZ ; std::vector<CvCity *,std::allocator<CvCity *> >::begin
; Function compile flags: /Ogtpy
;	COMDAT ?begin@?$vector@PAVCvCity@@V?$allocator@PAVCvCity@@@std@@@std@@QAE?AV?$_Vector_iterator@PAVCvCity@@V?$allocator@PAVCvCity@@@std@@@2@XZ
_TEXT	SEGMENT
___$ReturnUdt$ = 8					; size = 4
?begin@?$vector@PAVCvCity@@V?$allocator@PAVCvCity@@@std@@@std@@QAE?AV?$_Vector_iterator@PAVCvCity@@V?$allocator@PAVCvCity@@@std@@@2@XZ PROC ; std::vector<CvCity *,std::allocator<CvCity *> >::begin, COMDAT
; _this$ = ecx

; 667  : 		return (iterator(_Myfirst));

	mov	ecx, DWORD PTR [ecx+4]
	mov	eax, DWORD PTR ___$ReturnUdt$[esp-4]
	mov	DWORD PTR [eax], ecx

; 668  : 		}

	ret	4
?begin@?$vector@PAVCvCity@@V?$allocator@PAVCvCity@@@std@@@std@@QAE?AV?$_Vector_iterator@PAVCvCity@@V?$allocator@PAVCvCity@@@std@@@2@XZ ENDP ; std::vector<CvCity *,std::allocator<CvCity *> >::begin
_TEXT	ENDS
PUBLIC	?end@?$vector@PAVCvCity@@V?$allocator@PAVCvCity@@@std@@@std@@QAE?AV?$_Vector_iterator@PAVCvCity@@V?$allocator@PAVCvCity@@@std@@@2@XZ ; std::vector<CvCity *,std::allocator<CvCity *> >::end
; Function compile flags: /Ogtpy
;	COMDAT ?end@?$vector@PAVCvCity@@V?$allocator@PAVCvCity@@@std@@@std@@QAE?AV?$_Vector_iterator@PAVCvCity@@V?$allocator@PAVCvCity@@@std@@@2@XZ
_TEXT	SEGMENT
___$ReturnUdt$ = 8					; size = 4
?end@?$vector@PAVCvCity@@V?$allocator@PAVCvCity@@@std@@@std@@QAE?AV?$_Vector_iterator@PAVCvCity@@V?$allocator@PAVCvCity@@@std@@@2@XZ PROC ; std::vector<CvCity *,std::allocator<CvCity *> >::end, COMDAT
; _this$ = ecx

; 677  : 		return (iterator(_Mylast));

	mov	ecx, DWORD PTR [ecx+8]
	mov	eax, DWORD PTR ___$ReturnUdt$[esp-4]
	mov	DWORD PTR [eax], ecx

; 678  : 		}

	ret	4
?end@?$vector@PAVCvCity@@V?$allocator@PAVCvCity@@@std@@@std@@QAE?AV?$_Vector_iterator@PAVCvCity@@V?$allocator@PAVCvCity@@@std@@@2@XZ ENDP ; std::vector<CvCity *,std::allocator<CvCity *> >::end
_TEXT	ENDS
PUBLIC	??Diterator@?$_Tree@V?$_Tmap_traits@PAVCvCity@@V?$vector@PAVCvCity@@V?$allocator@PAVCvCity@@@std@@@std@@U?$less@PAVCvCity@@@3@V?$allocator@U?$pair@QAVCvCity@@V?$vector@PAVCvCity@@V?$allocator@PAVCvCity@@@std@@@std@@@std@@@3@$0A@@std@@@std@@QBEAAU?$pair@QAVCvCity@@V?$vector@PAVCvCity@@V?$allocator@PAVCvCity@@@std@@@std@@@2@XZ ; std::_Tree<std::_Tmap_traits<CvCity *,std::vector<CvCity *,std::allocator<CvCity *> >,std::less<CvCity *>,std::allocator<std::pair<CvCity * const,std::vector<CvCity *,std::allocator<CvCity *> > > >,0> >::iterator::operator*
; Function compile flags: /Ogtpy
; File c:\program files (x86)\microsoft visual studio 9.0\vc\include\xtree
;	COMDAT ??Diterator@?$_Tree@V?$_Tmap_traits@PAVCvCity@@V?$vector@PAVCvCity@@V?$allocator@PAVCvCity@@@std@@@std@@U?$less@PAVCvCity@@@3@V?$allocator@U?$pair@QAVCvCity@@V?$vector@PAVCvCity@@V?$allocator@PAVCvCity@@@std@@@std@@@std@@@3@$0A@@std@@@std@@QBEAAU?$pair@QAVCvCity@@V?$vector@PAVCvCity@@V?$allocator@PAVCvCity@@@std@@@std@@@2@XZ
_TEXT	SEGMENT
??Diterator@?$_Tree@V?$_Tmap_traits@PAVCvCity@@V?$vector@PAVCvCity@@V?$allocator@PAVCvCity@@@std@@@std@@U?$less@PAVCvCity@@@3@V?$allocator@U?$pair@QAVCvCity@@V?$vector@PAVCvCity@@V?$allocator@PAVCvCity@@@std@@@std@@@std@@@3@$0A@@std@@@std@@QBEAAU?$pair@QAVCvCity@@V?$vector@PAVCvCity@@V?$allocator@PAVCvCity@@@std@@@std@@@2@XZ PROC ; std::_Tree<std::_Tmap_traits<CvCity *,std::vector<CvCity *,std::allocator<CvCity *> >,std::less<CvCity *>,std::allocator<std::pair<CvCity * const,std::vector<CvCity *,std::allocator<CvCity *> > > >,0> >::iterator::operator*, COMDAT
; _this$ = ecx

; 465  : 			return ((reference)**(const_iterator *)this);

	mov	eax, DWORD PTR [ecx]
	add	eax, 12					; 0000000cH

; 466  : 			}

	ret	0
??Diterator@?$_Tree@V?$_Tmap_traits@PAVCvCity@@V?$vector@PAVCvCity@@V?$allocator@PAVCvCity@@@std@@@std@@U?$less@PAVCvCity@@@3@V?$allocator@U?$pair@QAVCvCity@@V?$vector@PAVCvCity@@V?$allocator@PAVCvCity@@@std@@@std@@@std@@@3@$0A@@std@@@std@@QBEAAU?$pair@QAVCvCity@@V?$vector@PAVCvCity@@V?$allocator@PAVCvCity@@@std@@@std@@@2@XZ ENDP ; std::_Tree<std::_Tmap_traits<CvCity *,std::vector<CvCity *,std::allocator<CvCity *> >,std::less<CvCity *>,std::allocator<std::pair<CvCity * const,std::vector<CvCity *,std::allocator<CvCity *> > > >,0> >::iterator::operator*
_TEXT	ENDS
PUBLIC	??Eiterator@?$_Tree@V?$_Tmap_traits@PAVCvCity@@V?$vector@PAVCvCity@@V?$allocator@PAVCvCity@@@std@@@std@@U?$less@PAVCvCity@@@3@V?$allocator@U?$pair@QAVCvCity@@V?$vector@PAVCvCity@@V?$allocator@PAVCvCity@@@std@@@std@@@std@@@3@$0A@@std@@@std@@QAEAAV012@XZ ; std::_Tree<std::_Tmap_traits<CvCity *,std::vector<CvCity *,std::allocator<CvCity *> >,std::less<CvCity *>,std::allocator<std::pair<CvCity * const,std::vector<CvCity *,std::allocator<CvCity *> > > >,0> >::iterator::operator++
; Function compile flags: /Ogtpy
;	COMDAT ??Eiterator@?$_Tree@V?$_Tmap_traits@PAVCvCity@@V?$vector@PAVCvCity@@V?$allocator@PAVCvCity@@@std@@@std@@U?$less@PAVCvCity@@@3@V?$allocator@U?$pair@QAVCvCity@@V?$vector@PAVCvCity@@V?$allocator@PAVCvCity@@@std@@@std@@@std@@@3@$0A@@std@@@std@@QAEAAV012@XZ
_TEXT	SEGMENT
??Eiterator@?$_Tree@V?$_Tmap_traits@PAVCvCity@@V?$vector@PAVCvCity@@V?$allocator@PAVCvCity@@@std@@@std@@U?$less@PAVCvCity@@@3@V?$allocator@U?$pair@QAVCvCity@@V?$vector@PAVCvCity@@V?$allocator@PAVCvCity@@@std@@@std@@@std@@@3@$0A@@std@@@std@@QAEAAV012@XZ PROC ; std::_Tree<std::_Tmap_traits<CvCity *,std::vector<CvCity *,std::allocator<CvCity *> >,std::less<CvCity *>,std::allocator<std::pair<CvCity * const,std::vector<CvCity *,std::allocator<CvCity *> > > >,0> >::iterator::operator++, COMDAT
; _this$ = ecx

; 474  : 			{	// preincrement

	push	esi
	mov	esi, ecx

; 475  : 			++(*(const_iterator *)this);

	call	?_Inc@const_iterator@?$_Tree@V?$_Tmap_traits@PAVCvCity@@V?$vector@PAVCvCity@@V?$allocator@PAVCvCity@@@std@@@std@@U?$less@PAVCvCity@@@3@V?$allocator@U?$pair@QAVCvCity@@V?$vector@PAVCvCity@@V?$allocator@PAVCvCity@@@std@@@std@@@std@@@3@$0A@@std@@@std@@QAEXXZ ; std::_Tree<std::_Tmap_traits<CvCity *,std::vector<CvCity *,std::allocator<CvCity *> >,std::less<CvCity *>,std::allocator<std::pair<CvCity * const,std::vector<CvCity *,std::allocator<CvCity *> > > >,0> >::const_iterator::_Inc

; 476  : 			return (*this);

	mov	eax, esi
	pop	esi

; 477  : 			}

	ret	0
??Eiterator@?$_Tree@V?$_Tmap_traits@PAVCvCity@@V?$vector@PAVCvCity@@V?$allocator@PAVCvCity@@@std@@@std@@U?$less@PAVCvCity@@@3@V?$allocator@U?$pair@QAVCvCity@@V?$vector@PAVCvCity@@V?$allocator@PAVCvCity@@@std@@@std@@@std@@@3@$0A@@std@@@std@@QAEAAV012@XZ ENDP ; std::_Tree<std::_Tmap_traits<CvCity *,std::vector<CvCity *,std::allocator<CvCity *> >,std::less<CvCity *>,std::allocator<std::pair<CvCity * const,std::vector<CvCity *,std::allocator<CvCity *> > > >,0> >::iterator::operator++
_TEXT	ENDS
PUBLIC	??1?$_Tree_nod@V?$_Tmap_traits@PAVCvCity@@V?$vector@PAVCvCity@@V?$allocator@PAVCvCity@@@std@@@std@@U?$less@PAVCvCity@@@3@V?$allocator@U?$pair@QAVCvCity@@V?$vector@PAVCvCity@@V?$allocator@PAVCvCity@@@std@@@std@@@std@@@3@$0A@@std@@@std@@QAE@XZ ; std::_Tree_nod<std::_Tmap_traits<CvCity *,std::vector<CvCity *,std::allocator<CvCity *> >,std::less<CvCity *>,std::allocator<std::pair<CvCity * const,std::vector<CvCity *,std::allocator<CvCity *> > > >,0> >::~_Tree_nod<std::_Tmap_traits<CvCity *,std::vector<CvCity *,std::allocator<CvCity *> >,std::less<CvCity *>,std::allocator<std::pair<CvCity * const,std::vector<CvCity *,std::allocator<CvCity *> > > >,0> >
; Function compile flags: /Ogtpy
;	COMDAT ??1?$_Tree_nod@V?$_Tmap_traits@PAVCvCity@@V?$vector@PAVCvCity@@V?$allocator@PAVCvCity@@@std@@@std@@U?$less@PAVCvCity@@@3@V?$allocator@U?$pair@QAVCvCity@@V?$vector@PAVCvCity@@V?$allocator@PAVCvCity@@@std@@@std@@@std@@@3@$0A@@std@@@std@@QAE@XZ
_TEXT	SEGMENT
??1?$_Tree_nod@V?$_Tmap_traits@PAVCvCity@@V?$vector@PAVCvCity@@V?$allocator@PAVCvCity@@@std@@@std@@U?$less@PAVCvCity@@@3@V?$allocator@U?$pair@QAVCvCity@@V?$vector@PAVCvCity@@V?$allocator@PAVCvCity@@@std@@@std@@@std@@@3@$0A@@std@@@std@@QAE@XZ PROC ; std::_Tree_nod<std::_Tmap_traits<CvCity *,std::vector<CvCity *,std::allocator<CvCity *> >,std::less<CvCity *>,std::allocator<std::pair<CvCity * const,std::vector<CvCity *,std::allocator<CvCity *> > > >,0> >::~_Tree_nod<std::_Tmap_traits<CvCity *,std::vector<CvCity *,std::allocator<CvCity *> >,std::less<CvCity *>,std::allocator<std::pair<CvCity * const,std::vector<CvCity *,std::allocator<CvCity *> > > >,0> >, COMDAT
; _this$ = ecx
	ret	0
??1?$_Tree_nod@V?$_Tmap_traits@PAVCvCity@@V?$vector@PAVCvCity@@V?$allocator@PAVCvCity@@@std@@@std@@U?$less@PAVCvCity@@@3@V?$allocator@U?$pair@QAVCvCity@@V?$vector@PAVCvCity@@V?$allocator@PAVCvCity@@@std@@@std@@@std@@@3@$0A@@std@@@std@@QAE@XZ ENDP ; std::_Tree_nod<std::_Tmap_traits<CvCity *,std::vector<CvCity *,std::allocator<CvCity *> >,std::less<CvCity *>,std::allocator<std::pair<CvCity * const,std::vector<CvCity *,std::allocator<CvCity *> > > >,0> >::~_Tree_nod<std::_Tmap_traits<CvCity *,std::vector<CvCity *,std::allocator<CvCity *> >,std::less<CvCity *>,std::allocator<std::pair<CvCity * const,std::vector<CvCity *,std::allocator<CvCity *> > > >,0> >
_TEXT	ENDS
PUBLIC	?_Make_iter@?$_Tree@V?$_Tmap_traits@PAVCvCity@@V?$vector@PAVCvCity@@V?$allocator@PAVCvCity@@@std@@@std@@U?$less@PAVCvCity@@@3@V?$allocator@U?$pair@QAVCvCity@@V?$vector@PAVCvCity@@V?$allocator@PAVCvCity@@@std@@@std@@@std@@@3@$0A@@std@@@std@@QBE?AViterator@12@Vconst_iterator@12@@Z ; std::_Tree<std::_Tmap_traits<CvCity *,std::vector<CvCity *,std::allocator<CvCity *> >,std::less<CvCity *>,std::allocator<std::pair<CvCity * const,std::vector<CvCity *,std::allocator<CvCity *> > > >,0> >::_Make_iter
; Function compile flags: /Ogtpy
;	COMDAT ?_Make_iter@?$_Tree@V?$_Tmap_traits@PAVCvCity@@V?$vector@PAVCvCity@@V?$allocator@PAVCvCity@@@std@@@std@@U?$less@PAVCvCity@@@3@V?$allocator@U?$pair@QAVCvCity@@V?$vector@PAVCvCity@@V?$allocator@PAVCvCity@@@std@@@std@@@std@@@3@$0A@@std@@@std@@QBE?AViterator@12@Vconst_iterator@12@@Z
_TEXT	SEGMENT
___$ReturnUdt$ = 8					; size = 4
__Where$ = 12						; size = 4
?_Make_iter@?$_Tree@V?$_Tmap_traits@PAVCvCity@@V?$vector@PAVCvCity@@V?$allocator@PAVCvCity@@@std@@@std@@U?$less@PAVCvCity@@@3@V?$allocator@U?$pair@QAVCvCity@@V?$vector@PAVCvCity@@V?$allocator@PAVCvCity@@@std@@@std@@@std@@@3@$0A@@std@@@std@@QBE?AViterator@12@Vconst_iterator@12@@Z PROC ; std::_Tree<std::_Tmap_traits<CvCity *,std::vector<CvCity *,std::allocator<CvCity *> >,std::less<CvCity *>,std::allocator<std::pair<CvCity * const,std::vector<CvCity *,std::allocator<CvCity *> > > >,0> >::_Make_iter, COMDAT
; _this$ = ecx

; 576  : 		return (iterator(_TREE_ITERATOR(_Where._Ptr)));

	mov	eax, DWORD PTR ___$ReturnUdt$[esp-4]
	mov	ecx, DWORD PTR __Where$[esp-4]
	mov	DWORD PTR [eax], ecx

; 577  : 		}

	ret	8
?_Make_iter@?$_Tree@V?$_Tmap_traits@PAVCvCity@@V?$vector@PAVCvCity@@V?$allocator@PAVCvCity@@@std@@@std@@U?$less@PAVCvCity@@@3@V?$allocator@U?$pair@QAVCvCity@@V?$vector@PAVCvCity@@V?$allocator@PAVCvCity@@@std@@@std@@@std@@@3@$0A@@std@@@std@@QBE?AViterator@12@Vconst_iterator@12@@Z ENDP ; std::_Tree<std::_Tmap_traits<CvCity *,std::vector<CvCity *,std::allocator<CvCity *> >,std::less<CvCity *>,std::allocator<std::pair<CvCity * const,std::vector<CvCity *,std::allocator<CvCity *> > > >,0> >::_Make_iter
_TEXT	ENDS
PUBLIC	?lower_bound@?$_Tree@V?$_Tmap_traits@PAVCvCity@@V?$vector@PAVCvCity@@V?$allocator@PAVCvCity@@@std@@@std@@U?$less@PAVCvCity@@@3@V?$allocator@U?$pair@QAVCvCity@@V?$vector@PAVCvCity@@V?$allocator@PAVCvCity@@@std@@@std@@@std@@@3@$0A@@std@@@std@@QAE?AViterator@12@ABQAVCvCity@@@Z ; std::_Tree<std::_Tmap_traits<CvCity *,std::vector<CvCity *,std::allocator<CvCity *> >,std::less<CvCity *>,std::allocator<std::pair<CvCity * const,std::vector<CvCity *,std::allocator<CvCity *> > > >,0> >::lower_bound
; Function compile flags: /Ogtpy
