; Listing generated by Microsoft (R) Optimizing Compiler Version 15.00.30729.01 

	TITLE	c:\Users\EnormousApplePie\Documents\GitHub\Lekmod\LEKMOD_DLL\CvGameCoreDLL_Expansion2\CvCultureClasses.cpp
	.686P
	.XMM
	include listing.inc
	.model	flat

INCLUDELIB MSVCRT
INCLUDELIB OLDNAMES

PUBLIC	?NO_QUEST_DATA@CvMinorCivQuest@@2HB		; CvMinorCivQuest::NO_QUEST_DATA
PUBLIC	?NO_TURN@CvMinorCivQuest@@2HB			; CvMinorCivQuest::NO_TURN
CONST	SEGMENT
$SG223112 DB	00H
$SG223142 DB	00H
$SG223150 DB	00H
$SG223161 DB	00H
$SG223118 DB	'[NEWLINE]', 00H
$SG223169 DB	00H
$SG225635 DB	00H
$SG223120 DB	'[NEWLINE]', 00H
$SG225642 DB	00H
$SG225650 DB	00H
$SG223121 DB	'[NEWLINE]', 00H
$SG226183 DB	00H
$SG226356 DB	00H
$SG223122 DB	' (', 00H
$SG226357 DB	00H
$SG223123 DB	')', 00H
$SG226375 DB	00H
$SG226377 DB	00H
$SG223124 DB	'[NEWLINE]', 00H
$SG226379 DB	00H
$SG226381 DB	00H
$SG223128 DB	'+%d [ICON_CULTURE], +%d [ICON_TOURISM]', 00H
$SG226387 DB	00H
$SG223153 DB	' (', 00H
$SG226398 DB	00H
$SG223154 DB	')', 00H
$SG226409 DB	00H
$SG226715 DB	00H
$SG223264 DB	'GREAT_WORK_LITERATURE', 00H
$SG226732 DB	00H
$SG226749 DB	00H
$SG223267 DB	'GREAT_WORK_ART', 00H
$SG226883 DB	00H
$SG223270 DB	'GREAT_WORK_ARTIFACT', 00H
$SG223273 DB	'GREAT_WORK_MUSIC', 00H
$SG226886 DB	00H
$SG227128 DB	00H
$SG227131 DB	00H
$SG223597 DB	'GREAT_WORK_LITERATURE', 00H
$SG227133 DB	00H
$SG227135 DB	00H
$SG223600 DB	'GREAT_WORK_ART', 00H
$SG227137 DB	00H
$SG223603 DB	'GREAT_WORK_ARTIFACT', 00H
$SG223606 DB	'GREAT_WORK_MUSIC', 00H
$SG227139 DB	00H
$SG227141 DB	00H
$SG227143 DB	00H
$SG225572 DB	'AIGRANDSTRATEGY_UNITED_NATIONS', 00H
$SG227385 DB	00H
$SG225612 DB	'GREAT_WORK_ARTIFACT', 00H
$SG225621 DB	'IMPROVEMENT_LANDMARK', 00H
$SG227405 DB	00H
$SG227470 DB	00H
$SG227472 DB	00H
$SG225651 DB	'GREAT_WORK_LITERATURE', 00H
$SG227474 DB	00H
	ORG $+1
$SG225675 DB	'VICTORY_CULTURAL', 00H
	ORG $+3
$SG225680 DB	'TXT_KEY_NOTIFICATION_CULTURE_VICTORY_SOMEONE_INFLUENTIAL'
	DB	00H
	ORG $+3
$SG225683 DB	'TXT_KEY_NOTIFICATION_CULTURE_VICTORY_SOMEONE_INFLUENTIAL'
	DB	'_ACTIVE_PLAYER_TT', 00H
	ORG $+2
$SG225686 DB	'TXT_KEY_NOTIFICATION_CULTURE_VICTORY_SOMEONE_INFLUENTIAL'
	DB	'_TT', 00H
$SG225689 DB	'TXT_KEY_NOTIFICATION_CULTURE_VICTORY_UNMET_INFLUENTIAL_T'
	DB	'T', 00H
	ORG $+2
$SG225712 DB	'TXT_KEY_NOTIFICATION_CULTURE_VICTORY_NO_LONGER_INFLUENTI'
	DB	'AL', 00H
	ORG $+1
$SG225714 DB	'TXT_KEY_NOTIFICATION_CULTURE_VICTORY_NO_LONGER_INFLUENTI'
	DB	'AL_TT', 00H
	ORG $+2
$SG225719 DB	'TXT_KEY_NOTIFICATION_CULTURE_VICTORY_WITHIN_TWO_ACTIVE_P'
	DB	'LAYER', 00H
	ORG $+2
$SG225722 DB	'TXT_KEY_NOTIFICATION_CULTURE_VICTORY_WITHIN_TWO_ACTIVE_P'
	DB	'LAYER_TT', 00H
	ORG $+3
$SG225725 DB	'TXT_KEY_NOTIFICATION_CULTURE_VICTORY_WITHIN_TWO', 00H
$SG225728 DB	'TXT_KEY_NOTIFICATION_CULTURE_VICTORY_WITHIN_TWO_TT', 00H
	ORG $+1
$SG225731 DB	'TXT_KEY_NOTIFICATION_CULTURE_VICTORY_WITHIN_TWO_UNMET_TT'
	DB	00H
	ORG $+3
$SG225752 DB	'TXT_KEY_NOTIFICATION_CULTURE_VICTORY_WITHIN_ONE_ACTIVE_P'
	DB	'LAYER', 00H
	ORG $+6
$SG225755 DB	'TXT_KEY_NOTIFICATION_CULTURE_VICTORY_WITHIN_ONE_ACTIVE_P'
	DB	'LAYER_TT', 00H
	ORG $+3
$SG225758 DB	'TXT_KEY_NOTIFICATION_CULTURE_VICTORY_WITHIN_ONE', 00H
$SG225761 DB	'TXT_KEY_NOTIFICATION_CULTURE_VICTORY_WITHIN_ONE_TT', 00H
	ORG $+1
$SG225764 DB	'TXT_KEY_NOTIFICATION_CULTURE_VICTORY_WITHIN_ONE_UNMET_TT'
	DB	00H
	ORG $+3
$SG225841 DB	'BUILDING_BROADCAST_TOWER', 00H
	ORG $+3
$SG226115 DB	'TXT_KEY_EO_SPY_RANK_TT', 00H
	ORG $+1
$SG226127 DB	'TXT_KEY_SPY_BONUS_CITY_STATE', 00H
	ORG $+3
$SG226131 DB	'TXT_KEY_SPY_BONUS_MAJOR_CIV', 00H
$SG226192 DB	'[ENDCOLOR]', 00H
	ORG $+1
$SG226193 DB	'TXT_KEY_CO_PLAYER_TOURISM_OPEN_BORDERS', 00H
	ORG $+1
$SG226194 DB	'[COLOR_POSITIVE_TEXT]', 00H
	ORG $+2
$SG226199 DB	'[ENDCOLOR]', 00H
	ORG $+1
$SG226200 DB	'TXT_KEY_CO_PLAYER_TOURISM_TRADE_ROUTE', 00H
	ORG $+2
$SG226201 DB	'[COLOR_POSITIVE_TEXT]', 00H
	ORG $+2
$SG226207 DB	'[ENDCOLOR]', 00H
	ORG $+1
$SG226208 DB	'TXT_KEY_CO_PLAYER_TOURISM_RELIGION_NOTE', 00H
$SG226209 DB	'[COLOR_POSITIVE_TEXT]', 00H
	ORG $+2
$SG226215 DB	'[ENDCOLOR]', 00H
	ORG $+1
$SG226216 DB	'TXT_KEY_CO_PLAYER_TOURISM_PROPAGANDA', 00H
	ORG $+3
$SG226217 DB	'[COLOR_POSITIVE_TEXT]', 00H
	ORG $+2
$SG226224 DB	'[ENDCOLOR]', 00H
	ORG $+1
$SG226225 DB	'TXT_KEY_CO_PLAYER_TOURISM_SHARED_IDEOLOGY', 00H
	ORG $+2
$SG226226 DB	'[COLOR_POSITIVE_TEXT]', 00H
	ORG $+2
$SG226244 DB	'[ENDCOLOR]', 00H
	ORG $+1
$SG226245 DB	'TXT_KEY_CO_PLAYER_TOURISM_COMMON_FOE', 00H
	ORG $+3
$SG226246 DB	'[COLOR_POSITIVE_TEXT]', 00H
	ORG $+2
$SG226253 DB	'[ENDCOLOR]', 00H
	ORG $+1
$SG226254 DB	'TXT_KEY_CO_PLAYER_TOURISM_LESS_HAPPY', 00H
	ORG $+3
$SG226255 DB	'[COLOR_POSITIVE_TEXT]', 00H
	ORG $+2
$SG226260 DB	'[ENDCOLOR]', 00H
	ORG $+1
$SG226261 DB	'TXT_KEY_CO_PLAYER_TOURISM_CARNIVAL', 00H
	ORG $+1
$SG226262 DB	'[COLOR_POSITIVE_TEXT]', 00H
	ORG $+2
$SG226267 DB	'[ENDCOLOR]', 00H
	ORG $+1
$SG226268 DB	'TXT_KEY_CO_PLAYER_TOURISM_OPEN_BORDERS', 00H
	ORG $+1
$SG226269 DB	'[COLOR_GREY]', 00H
	ORG $+3
$SG226274 DB	'[ENDCOLOR]', 00H
	ORG $+1
$SG226275 DB	'TXT_KEY_CO_PLAYER_TOURISM_TRADE_ROUTE', 00H
	ORG $+2
$SG226276 DB	'[COLOR_GREY]', 00H
	ORG $+3
$SG226282 DB	'[ENDCOLOR]', 00H
	ORG $+1
$SG226283 DB	'TXT_KEY_CO_PLAYER_TOURISM_RELIGION_NOTE', 00H
$SG226284 DB	'[COLOR_GREY]', 00H
	ORG $+3
$SG226290 DB	'[ENDCOLOR]', 00H
	ORG $+1
$SG226291 DB	'TXT_KEY_CO_PLAYER_TOURISM_PROPAGANDA', 00H
	ORG $+3
$SG226292 DB	'[COLOR_GREY]', 00H
	ORG $+3
$SG226297 DB	'[ENDCOLOR]', 00H
	ORG $+1
$SG226298 DB	'TXT_KEY_CO_PLAYER_TOURISM_DIFFERENT_IDEOLOGIES', 00H
	ORG $+1
$SG226299 DB	'[COLOR_NEGATIVE_TEXT]', 00H
	ORG $+2
$SG226368 DB	'TXT_KEY_CO_OPINION_TT_OVERVIEW', 00H
	ORG $+1
$SG226385 DB	'TXT_KEY_CO_OPINION_TT_FOR_FREEDOM', 00H
	ORG $+2
$SG226392 DB	'[ICON_IDEOLOGY_FREEDOM]', 00H
$SG226396 DB	'TXT_KEY_CO_OPINION_TT_FOR_AUTOCRACY', 00H
$SG226403 DB	'[ICON_IDEOLOGY_AUTOCRACY]', 00H
	ORG $+2
$SG226407 DB	'TXT_KEY_CO_OPINION_TT_FOR_ORDER', 00H
$SG226414 DB	'[ICON_IDEOLOGY_ORDER]', 00H
	ORG $+2
$SG226429 DB	', ', 00H
	ORG $+1
$SG226434 DB	'[ICON_IDEOLOGY_FREEDOM]', 00H
$SG226438 DB	', ', 00H
	ORG $+1
$SG226443 DB	'[ICON_IDEOLOGY_AUTOCRACY]', 00H
	ORG $+2
$SG226446 DB	', ', 00H
	ORG $+1
$SG226451 DB	'[ICON_IDEOLOGY_ORDER]', 00H
	ORG $+2
$SG226498 DB	'TXT_KEY_CO_OPINION_TT_FOR_FREEDOM', 00H
	ORG $+2
$SG226502 DB	'TXT_KEY_CO_OPINION_TT_FOR_AUTOCRACY', 00H
$SG226506 DB	'TXT_KEY_CO_OPINION_TT_FOR_ORDER', 00H
$SG226510 DB	'TXT_KEY_CO_OPINION_TT_INFLUENCED_WORLD_IDEOLOGY', 00H
$SG226511 DB	'[NEWLINE][NEWLINE]', 00H
	ORG $+1
$SG226515 DB	'TXT_KEY_CO_OPINION_TT_NOT_INFLUENCED', 00H
	ORG $+3
$SG226519 DB	'TXT_KEY_CO_OPINION_TT_INFLUENCED_BY', 00H
$SG226525 DB	'TXT_KEY_CO_OPINION_TT_PREFERRED_IDEOLOGY', 00H
	ORG $+3
$SG226530 DB	'TXT_KEY_CO_OPINION_TT_UNHAPPINESS_LINE1', 00H
$SG226532 DB	'TXT_KEY_CO_OPINION_TT_UNHAPPINESS_LINE2', 00H
$SG226534 DB	'TXT_KEY_CO_OPINION_TT_UNHAPPINESS_LINE3', 00H
$SG226536 DB	'TXT_KEY_CO_OPINION_TT_UNHAPPINESS_LINE4', 00H
$SG226539 DB	'TXT_KEY_CO_OPINION_TT_UNHAPPINESS_LINE5', 00H
$SG226672 DB	'Civ Name', 00H
	ORG $+3
$SG226674 DB	'Turn', 00H
	ORG $+3
$SG226676 DB	'# Cities', 00H
	ORG $+3
$SG226679 DB	'TECH_DRAMA', 00H
	ORG $+1
$SG226682 DB	'TECH_GUILDS', 00H
$SG226685 DB	'TECH_ACOUSTICS', 00H
	ORG $+1
$SG226688 DB	'BUILDINGCLASS_WRITERS_GUILD', 00H
$SG226691 DB	'BUILDINGCLASS_ARTISTS_GUILD', 00H
$SG226694 DB	'BUILDINGCLASS_MUSICIANS_GUILD', 00H
	ORG $+2
$SG226697 DB	'BUILDING_WRITERS_GUILD', 00H
	ORG $+1
$SG226700 DB	'BUILDING_ARTISTS_GUILD', 00H
	ORG $+1
$SG226703 DB	'BUILDING_MUSICIANS_GUILD', 00H
	ORG $+3
$SG226707 DB	'yes', 00H
$SG226708 DB	'no', 00H
	ORG $+1
$SG226709 DB	'Drama', 00H
	ORG $+2
$SG226716 DB	'Writers'' Guild', 00H
	ORG $+1
$SG226718 DB	'Spclsts', 00H
$SG226720 DB	'Slots', 00H
	ORG $+2
$SG226724 DB	'yes', 00H
$SG226725 DB	'no', 00H
	ORG $+1
$SG226726 DB	'Guilds', 00H
	ORG $+1
$SG226733 DB	'Artists'' Guild', 00H
	ORG $+1
$SG226735 DB	'Spclsts', 00H
$SG226737 DB	'Slots', 00H
	ORG $+2
$SG226741 DB	'yes', 00H
$SG226742 DB	'no', 00H
	ORG $+1
$SG226743 DB	'Acoustics', 00H
	ORG $+2
$SG226750 DB	'Musicians'' Guild', 00H
	ORG $+3
$SG226752 DB	'Spclsts', 00H
$SG226754 DB	'Slots', 00H
	ORG $+2
$SG226756 DB	'Great Works', 00H
$SG226758 DB	'Tourism', 00H
$SG226760 DB	'Theming Bonuses', 00H
$SG226775 DB	',', 00H
	ORG $+2
$SG226776 DB	',', 00H
	ORG $+2
$SG226784 DB	',', 00H
	ORG $+2
$SG226786 DB	'%d,', 00H
$SG226794 DB	',', 00H
	ORG $+2
$SG226796 DB	'%.2f,', 00H
	ORG $+2
$SG226814 DB	', %d,', 00H
	ORG $+2
$SG226815 DB	', Bonus: %d', 00H
$SG226823 DB	', ', 00H
	ORG $+1
$SG226824 DB	'Themed Building in, ', 00H
	ORG $+3
$SG226839 DB	'Acquired Work from Player: %d, Discarded: %d, Acquired: '
	DB	'%d', 00H
	ORG $+1
$SG226841 DB	', %d,', 00H
	ORG $+2
$SG226853 DB	'.csv', 00H
	ORG $+3
$SG226854 DB	'CultureAILog_', 00H
	ORG $+2
$SG226856 DB	'CultureAILog.csv', 00H
	ORG $+3
$SG227159 DB	'TXT_KEY_CO_CITY_TOURISM_GREAT_WORKS', 00H
$SG227177 DB	'TXT_KEY_CO_CITY_TOURISM_GREAT_WORKS', 00H
$SG227180 DB	'[NEWLINE][NEWLINE]', 00H
	ORG $+1
$SG227182 DB	'TXT_KEY_CO_CITY_TOURISM_THEMING_BONUSES', 00H
$SG227190 DB	'[NEWLINE][NEWLINE]', 00H
	ORG $+1
$SG227192 DB	'TXT_KEY_CO_CITY_TOURISM_TILES', 00H
	ORG $+2
$SG227196 DB	'[NEWLINE][NEWLINE]', 00H
	ORG $+1
$SG227198 DB	'TXT_KEY_CO_TOURISM_PER_CITY', 00H
$SG227207 DB	'[NEWLINE][NEWLINE]', 00H
	ORG $+1
$SG227209 DB	'TXT_KEY_CO_CITY_TOURISM_FAITH_BUILDINGS', 00H
$SG227224 DB	'[NEWLINE][NEWLINE]', 00H
	ORG $+1
$SG227226 DB	'TXT_KEY_CO_CITY_TOURISM_RELIGIOUS_ART', 00H
	ORG $+2
$SG227244 DB	'[NEWLINE][NEWLINE]', 00H
	ORG $+1
$SG227246 DB	'TXT_KEY_CO_CITY_TOURISM_TECH_ENHANCED', 00H
	ORG $+2
$SG227262 DB	'[NEWLINE][NEWLINE]', 00H
	ORG $+1
$SG227272 DB	'TXT_KEY_CO_CITY_TOURISM_BUILDING_BONUS', 00H
	ORG $+1
$SG227289 DB	', ', 00H
	ORG $+1
$SG227293 DB	', ', 00H
	ORG $+1
$SG227297 DB	', ', 00H
	ORG $+1
$SG227301 DB	', ', 00H
	ORG $+1
$SG227318 DB	', ', 00H
	ORG $+1
$SG227321 DB	', ', 00H
	ORG $+1
$SG227324 DB	'[NEWLINE][NEWLINE]', 00H
	ORG $+1
$SG227326 DB	'TXT_KEY_CO_CITY_TOURISM_RELIGION_BONUS', 00H
	ORG $+1
$SG227330 DB	'[NEWLINE][NEWLINE]', 00H
	ORG $+1
$SG227332 DB	'TXT_KEY_CO_CITY_TOURISM_OPEN_BORDERS_BONUS', 00H
	ORG $+1
$SG227336 DB	'[NEWLINE][NEWLINE]', 00H
	ORG $+1
$SG227338 DB	'TXT_KEY_CO_CITY_TOURISM_TRADE_ROUTE_BONUS', 00H
	ORG $+2
$SG227342 DB	'[NEWLINE][NEWLINE]', 00H
	ORG $+1
$SG227344 DB	'TXT_KEY_CO_CITY_TOURISM_LESS_HAPPY_BONUS', 00H
	ORG $+3
$SG227348 DB	'[NEWLINE][NEWLINE]', 00H
	ORG $+1
$SG227350 DB	'TXT_KEY_CO_CITY_TOURISM_COMMON_FOE_BONUS', 00H
	ORG $+3
$SG227353 DB	'[NEWLINE][NEWLINE]', 00H
	ORG $+1
$SG227355 DB	'TXT_KEY_CO_CITY_TOURISM_SHARED_IDEOLOGY_BONUS', 00H
	ORG $+2
$SG227359 DB	'[NEWLINE][NEWLINE]', 00H
	ORG $+1
$SG227361 DB	'TXT_KEY_CO_CITY_TOURISM_DIFFERENT_IDEOLOGY_PENALTY', 00H
	ORG $+1
$SG227366 DB	'[NEWLINE][NEWLINE]', 00H
	ORG $+1
$SG227368 DB	'TXT_KEY_CO_CITY_TOURISM_TECH_BONUS', 00H
	ORG $+1
$SG227372 DB	'[NEWLINE][NEWLINE]', 00H
	ORG $+1
$SG227374 DB	'TXT_KEY_CO_CITY_TOURISM_LEAGUES_BONUS', 00H
	ORG $+2
$SG227377 DB	'[NEWLINE][NEWLINE]', 00H
	ORG $+1
$SG227379 DB	'TXT_KEY_CO_CITY_TOURISM_CARNIVAL_BONUS', 00H
	ORG $+1
$SG227399 DB	'TXT_KEY_CO_GREAT_WORK_TT', 00H
	ORG $+3
$SG227419 DB	'TXT_KEY_CO_GREAT_WORK_SLOTS_TT_ENTRY', 00H
	ORG $+3
$SG227421 DB	'TXT_KEY_CO_GREAT_WORK_SLOTS_TT_ENTRY', 00H
	ORG $+3
$SG227423 DB	'TXT_KEY_CO_GREAT_WORK_SLOTS_TT_ENTRY', 00H
	ORG $+3
$SG227434 DB	'TXT_KEY_CO_GREAT_WORK_SLOTS_TT', 00H
	ORG $+1
$SG227482 DB	'+%d: ', 00H
	ORG $+2
$SG227487 DB	'BUILDINGCLASS_LOUVRE', 00H
	ORG $+3
$SG227488 DB	'BUILDINGCLASS_HERMITAGE', 00H
$SG227504 DB	'TXT_KEY_CO_WORLD_MUSEUM', 00H
$SG227524 DB	'TXT_KEY_CO_WORLD_MUSEUM', 00H
$SG227531 DB	'TXT_KEY_CO_NO_THEME', 00H
$SG227532 DB	'[NEWLINE][NEWLINE]', 00H
	ORG $+1
$SG227597 DB	', ', 00H
	ORG $+1
$SG227611 DB	'%d, ', 00H
	ORG $+7
$SG227647 DB	'SELECT gw.ID FROM GreatWorks as gw left outer join Eras '
	DB	'on gw.EraType == Eras.Type inner join GreatWorkArtifactClasse'
	DB	's on gw.ArtifactClassType == GreatWorkArtifactClasses.Type wh'
	DB	'ere gw.GreatWorkClassType = ''GREAT_WORK_ARTIFACT'' and Eras.'
	DB	'ID is ? and GreatWorkArtifactClasses.ID == ? order by Random('
	DB	') limit 1;', 00H
	ORG $+3
$SG227649 DB	'select 1 from GreatWorks as gw inner join Eras on gw.Era'
	DB	'Type == Eras.Type inner join GreatWorkArtifactClasses on gw.A'
	DB	'rtifactClassType == GreatWorkArtifactClasses.Type where gw.Gr'
	DB	'eatWorkClassType = ''GREAT_WORK_ARTIFACT'' and Eras.ID = ? an'
	DB	'd GreatWorkArtifactClasses.ID == ? Limit 1;', 00H
	ORG $+7
$SG227671 DB	'SELECT GreatWorkClasses.ID from GreatWorkClasses inner j'
	DB	'oin GreatWorks on GreatWorkClassType = GreatWorkClasses.Type '
	DB	'where GreatWorks.ID = ?', 00H
	ORG $+3
$SG227684 DB	'SELECT Description FROM GreatWorks WHERE ID = ?', 00H
$SG227695 DB	'SELECT Audio FROM GreatWorks WHERE ID = ?', 00H
	ORG $+6
$SG227704 DB	'SELECT GreatWorkSlots.ID from GreatWorks inner join Grea'
	DB	'tWorkClasses  on GreatWorks.GreatWorkClassType == GreatWorkCl'
	DB	'asses .Type inner join GreatWorkSlots on GreatWorkClasses.Slo'
	DB	'tType == GreatWorkSlots.Type where GreatWorks .ID = ? LIMIT 1'
	DB	00H
$SG227733 DB	'GREAT_WORK_ARTIFACT', 00H
$SG227736 DB	'GREAT_WORK_ART', 00H
	ORG $+1
$SG228048 DB	'TXT_KEY_NOTIFICATION_SUMMARY_GREAT_WORK_SWAP', 00H
	ORG $+3
$SG228064 DB	'TXT_KEY_NOTIFICATION_GREAT_WORK_ART_SWAP', 00H
	ORG $+3
$SG228070 DB	'TXT_KEY_NOTIFICATION_ARTIFACT_SWAP', 00H
	ORG $+1
$SG228076 DB	'TXT_KEY_NOTIFICATION_GREAT_WORK_WRITING_SWAP', 00H
CONST	ENDS
;	COMDAT ?NO_TURN@CvMinorCivQuest@@2HB
CONST	SEGMENT
?NO_TURN@CvMinorCivQuest@@2HB DD 0ffffffffH		; CvMinorCivQuest::NO_TURN
CONST	ENDS
;	COMDAT ?NO_QUEST_DATA@CvMinorCivQuest@@2HB
CONST	SEGMENT
?NO_QUEST_DATA@CvMinorCivQuest@@2HB DD 0ffffffffH	; CvMinorCivQuest::NO_QUEST_DATA
CONST	ENDS
PUBLIC	?wrapCoordDifference@@YAHHI_N@Z			; wrapCoordDifference
; Function compile flags: /Ogtpy
; File c:\users\enormousapplepie\documents\github\lekmod\lekmod_dll\cvgamecoredll_expansion2\cvgamecoreutils.h
;	COMDAT ?wrapCoordDifference@@YAHHI_N@Z
_TEXT	SEGMENT
_iDiff$ = 8						; size = 4
_uiRange$ = 12						; size = 4
_bWrap$ = 16						; size = 1
?wrapCoordDifference@@YAHHI_N@Z PROC			; wrapCoordDifference, COMDAT

; 57   : 	if(bWrap)

	cmp	BYTE PTR _bWrap$[esp-4], 0
	mov	eax, DWORD PTR _iDiff$[esp-4]
	je	SHORT $LN5@wrapCoordD

; 58   : 	{
; 59   : 		if(iDiff > (int)(uiRange >> 1))		// Using an unsigned int so we can safely assume that value >> 1 == value / 2

	mov	edx, DWORD PTR _uiRange$[esp-4]
	mov	ecx, edx
	shr	ecx, 1
	cmp	eax, ecx
	jle	SHORT $LN3@wrapCoordD

; 60   : 		{
; 61   : 			return (iDiff - (int)uiRange);

	sub	eax, edx

; 66   : 		}
; 67   : 	}
; 68   : 
; 69   : 	return iDiff;
; 70   : }

	ret	0
$LN3@wrapCoordD:

; 62   : 		}
; 63   : 		else if(iDiff < -(int)(uiRange >> 1))

	neg	ecx
	cmp	eax, ecx
	jge	SHORT $LN5@wrapCoordD

; 64   : 		{
; 65   : 			return (iDiff + (int)uiRange);

	add	eax, edx
$LN5@wrapCoordD:

; 66   : 		}
; 67   : 	}
; 68   : 
; 69   : 	return iDiff;
; 70   : }

	ret	0
?wrapCoordDifference@@YAHHI_N@Z ENDP			; wrapCoordDifference
_TEXT	ENDS
PUBLIC	?xToHexspaceX@@YAHHH@Z				; xToHexspaceX
; Function compile flags: /Ogtpy
;	COMDAT ?xToHexspaceX@@YAHHH@Z
_TEXT	SEGMENT
_iX$ = 8						; size = 4
_iY$ = 12						; size = 4
?xToHexspaceX@@YAHHH@Z PROC				; xToHexspaceX, COMDAT

; 86   : 	return iX - ((iY >= 0) ? (iY>>1) : ((iY - 1)/2));

	mov	ecx, DWORD PTR _iY$[esp-4]
	test	ecx, ecx
	jge	SHORT $LN5@xToHexspac
	lea	eax, DWORD PTR [ecx-1]
	cdq
	sub	eax, edx
	mov	ecx, eax
$LN5@xToHexspac:
	mov	eax, DWORD PTR _iX$[esp-4]
	sar	ecx, 1
	sub	eax, ecx

; 87   : }

	ret	0
?xToHexspaceX@@YAHHH@Z ENDP				; xToHexspaceX
_TEXT	ENDS
PUBLIC	?GetVisibleAntiquitySites@CvEconomicAI@@QBEHXZ	; CvEconomicAI::GetVisibleAntiquitySites
; Function compile flags: /Ogtpy
; File c:\users\enormousapplepie\documents\github\lekmod\lekmod_dll\cvgamecoredll_expansion2\cveconomicai.h
;	COMDAT ?GetVisibleAntiquitySites@CvEconomicAI@@QBEHXZ
_TEXT	SEGMENT
?GetVisibleAntiquitySites@CvEconomicAI@@QBEHXZ PROC	; CvEconomicAI::GetVisibleAntiquitySites, COMDAT
; _this$ = ecx

; 236  : 		return m_iVisibleAntiquitySites;

	mov	eax, DWORD PTR [ecx+44]

; 237  : 	};

	ret	0
?GetVisibleAntiquitySites@CvEconomicAI@@QBEHXZ ENDP	; CvEconomicAI::GetVisibleAntiquitySites
_TEXT	ENDS
PUBLIC	??_7bad_alloc@std@@6B@				; std::bad_alloc::`vftable'
PUBLIC	??0bad_alloc@std@@QAE@PBD@Z			; std::bad_alloc::bad_alloc
PUBLIC	??_R4bad_alloc@std@@6B@				; std::bad_alloc::`RTTI Complete Object Locator'
PUBLIC	??_R0?AVbad_alloc@std@@@8			; std::bad_alloc `RTTI Type Descriptor'
PUBLIC	??_R3bad_alloc@std@@8				; std::bad_alloc::`RTTI Class Hierarchy Descriptor'
PUBLIC	??_R2bad_alloc@std@@8				; std::bad_alloc::`RTTI Base Class Array'
PUBLIC	??_R1A@?0A@EA@bad_alloc@std@@8			; std::bad_alloc::`RTTI Base Class Descriptor at (0,-1,0,64)'
PUBLIC	??_R1A@?0A@EA@exception@std@@8			; std::exception::`RTTI Base Class Descriptor at (0,-1,0,64)'
PUBLIC	??_R0?AVexception@std@@@8			; std::exception `RTTI Type Descriptor'
PUBLIC	??_R3exception@std@@8				; std::exception::`RTTI Class Hierarchy Descriptor'
PUBLIC	??_R2exception@std@@8				; std::exception::`RTTI Base Class Array'
EXTRN	__imp_??0exception@std@@QAE@ABQBD@Z:PROC
EXTRN	??_7type_info@@6B@:QWORD			; type_info::`vftable'
EXTRN	??_Ebad_alloc@std@@UAEPAXI@Z:PROC		; std::bad_alloc::`vector deleting destructor'
EXTRN	?what@exception@std@@UBEPBDXZ:PROC		; std::exception::what
;	COMDAT ??_R2exception@std@@8
; File c:\program files (x86)\microsoft visual studio 9.0\vc\include\exception
rdata$r	SEGMENT
??_R2exception@std@@8 DD FLAT:??_R1A@?0A@EA@exception@std@@8 ; std::exception::`RTTI Base Class Array'
rdata$r	ENDS
;	COMDAT ??_R3exception@std@@8
rdata$r	SEGMENT
??_R3exception@std@@8 DD 00H				; std::exception::`RTTI Class Hierarchy Descriptor'
	DD	00H
	DD	01H
	DD	FLAT:??_R2exception@std@@8
rdata$r	ENDS
;	COMDAT ??_R0?AVexception@std@@@8
_DATA	SEGMENT
??_R0?AVexception@std@@@8 DD FLAT:??_7type_info@@6B@	; std::exception `RTTI Type Descriptor'
	DD	00H
	DB	'.?AVexception@std@@', 00H
_DATA	ENDS
;	COMDAT ??_R1A@?0A@EA@exception@std@@8
rdata$r	SEGMENT
??_R1A@?0A@EA@exception@std@@8 DD FLAT:??_R0?AVexception@std@@@8 ; std::exception::`RTTI Base Class Descriptor at (0,-1,0,64)'
	DD	00H
	DD	00H
	DD	0ffffffffH
	DD	00H
	DD	040H
	DD	FLAT:??_R3exception@std@@8
rdata$r	ENDS
;	COMDAT ??_R1A@?0A@EA@bad_alloc@std@@8
rdata$r	SEGMENT
??_R1A@?0A@EA@bad_alloc@std@@8 DD FLAT:??_R0?AVbad_alloc@std@@@8 ; std::bad_alloc::`RTTI Base Class Descriptor at (0,-1,0,64)'
	DD	01H
	DD	00H
	DD	0ffffffffH
	DD	00H
	DD	040H
	DD	FLAT:??_R3bad_alloc@std@@8
rdata$r	ENDS
;	COMDAT ??_R2bad_alloc@std@@8
rdata$r	SEGMENT
??_R2bad_alloc@std@@8 DD FLAT:??_R1A@?0A@EA@bad_alloc@std@@8 ; std::bad_alloc::`RTTI Base Class Array'
	DD	FLAT:??_R1A@?0A@EA@exception@std@@8
rdata$r	ENDS
;	COMDAT ??_R3bad_alloc@std@@8
rdata$r	SEGMENT
??_R3bad_alloc@std@@8 DD 00H				; std::bad_alloc::`RTTI Class Hierarchy Descriptor'
	DD	00H
	DD	02H
	DD	FLAT:??_R2bad_alloc@std@@8
rdata$r	ENDS
;	COMDAT ??_R0?AVbad_alloc@std@@@8
_DATA	SEGMENT
??_R0?AVbad_alloc@std@@@8 DD FLAT:??_7type_info@@6B@	; std::bad_alloc `RTTI Type Descriptor'
	DD	00H
	DB	'.?AVbad_alloc@std@@', 00H
_DATA	ENDS
;	COMDAT ??_R4bad_alloc@std@@6B@
rdata$r	SEGMENT
??_R4bad_alloc@std@@6B@ DD 00H				; std::bad_alloc::`RTTI Complete Object Locator'
	DD	00H
	DD	00H
	DD	FLAT:??_R0?AVbad_alloc@std@@@8
	DD	FLAT:??_R3bad_alloc@std@@8
rdata$r	ENDS
;	COMDAT ??_7bad_alloc@std@@6B@
CONST	SEGMENT
??_7bad_alloc@std@@6B@ DD FLAT:??_R4bad_alloc@std@@6B@	; std::bad_alloc::`vftable'
	DD	FLAT:??_Ebad_alloc@std@@UAEPAXI@Z
	DD	FLAT:?what@exception@std@@UBEPBDXZ
; Function compile flags: /Ogtpy
CONST	ENDS
;	COMDAT ??0bad_alloc@std@@QAE@PBD@Z
_TEXT	SEGMENT
__Message$ = 8						; size = 4
??0bad_alloc@std@@QAE@PBD@Z PROC			; std::bad_alloc::bad_alloc, COMDAT
; _this$ = ecx

; 371  : 		{	// construct from message string

	push	esi
	lea	eax, DWORD PTR __Message$[esp]
	push	eax
	mov	esi, ecx
	call	DWORD PTR __imp_??0exception@std@@QAE@ABQBD@Z
	mov	DWORD PTR [esi], OFFSET ??_7bad_alloc@std@@6B@

; 372  : 		}

	mov	eax, esi
	pop	esi
	ret	4
??0bad_alloc@std@@QAE@PBD@Z ENDP			; std::bad_alloc::bad_alloc
_TEXT	ENDS
PUBLIC	??1bad_alloc@std@@UAE@XZ			; std::bad_alloc::~bad_alloc
EXTRN	__imp_??1exception@std@@UAE@XZ:PROC
; Function compile flags: /Ogtpy
;	COMDAT ??1bad_alloc@std@@UAE@XZ
_TEXT	SEGMENT
??1bad_alloc@std@@UAE@XZ PROC				; std::bad_alloc::~bad_alloc, COMDAT
; _this$ = ecx

; 380  : 		{	// destroy the object

	mov	DWORD PTR [ecx], OFFSET ??_7bad_alloc@std@@6B@

; 381  : 		}

	jmp	DWORD PTR __imp_??1exception@std@@UAE@XZ
??1bad_alloc@std@@UAE@XZ ENDP				; std::bad_alloc::~bad_alloc
_TEXT	ENDS
EXTRN	??3@YAXPAX@Z:PROC				; operator delete
; Function compile flags: /Ogtpy
;	COMDAT ??_Gbad_alloc@std@@UAEPAXI@Z
_TEXT	SEGMENT
___flags$ = 8						; size = 4
??_Gbad_alloc@std@@UAEPAXI@Z PROC			; std::bad_alloc::`scalar deleting destructor', COMDAT
; _this$ = ecx
	push	esi
	mov	esi, ecx
	mov	DWORD PTR [esi], OFFSET ??_7bad_alloc@std@@6B@
	call	DWORD PTR __imp_??1exception@std@@UAE@XZ
	test	BYTE PTR ___flags$[esp], 1
	je	SHORT $LN6@scalar
	push	esi
	call	??3@YAXPAX@Z				; operator delete
	add	esp, 4
$LN6@scalar:
	mov	eax, esi
	pop	esi
	ret	4
??_Gbad_alloc@std@@UAEPAXI@Z ENDP			; std::bad_alloc::`scalar deleting destructor'
_TEXT	ENDS
PUBLIC	??2@YAPAXIPAX@Z					; operator new
; Function compile flags: /Ogtpy
; File c:\program files (x86)\microsoft visual studio 9.0\vc\include\new
;	COMDAT ??2@YAPAXIPAX@Z
_TEXT	SEGMENT
___formal$ = 8						; size = 4
__Where$ = 12						; size = 4
??2@YAPAXIPAX@Z PROC					; operator new, COMDAT

; 59   : 	return (_Where);

	mov	eax, DWORD PTR __Where$[esp-4]

; 60   : 	}

	ret	0
??2@YAPAXIPAX@Z ENDP					; operator new
_TEXT	ENDS
PUBLIC	??3@YAXPAX0@Z					; operator delete
; Function compile flags: /Ogtpy
;	COMDAT ??3@YAXPAX0@Z
_TEXT	SEGMENT
___formal$ = 8						; size = 4
___formal$ = 12						; size = 4
??3@YAXPAX0@Z PROC					; operator delete, COMDAT

; 64   : 	}

	ret	0
??3@YAXPAX0@Z ENDP					; operator delete
_TEXT	ENDS
PUBLIC	??_7logic_error@std@@6B@			; std::logic_error::`vftable'
PUBLIC	??0logic_error@std@@QAE@ABV?$basic_string@DU?$char_traits@D@std@@V?$allocator@D@2@@1@@Z ; std::logic_error::logic_error
PUBLIC	??_R4logic_error@std@@6B@			; std::logic_error::`RTTI Complete Object Locator'
PUBLIC	??_R0?AVlogic_error@std@@@8			; std::logic_error `RTTI Type Descriptor'
PUBLIC	??_R3logic_error@std@@8				; std::logic_error::`RTTI Class Hierarchy Descriptor'
PUBLIC	??_R2logic_error@std@@8				; std::logic_error::`RTTI Base Class Array'
PUBLIC	??_R1A@?0A@EA@logic_error@std@@8		; std::logic_error::`RTTI Base Class Descriptor at (0,-1,0,64)'
PUBLIC	?what@logic_error@std@@UBEPBDXZ			; std::logic_error::what
EXTRN	__imp_??0?$basic_string@DU?$char_traits@D@std@@V?$allocator@D@2@@std@@QAE@ABV01@@Z:PROC
EXTRN	__imp_??0exception@std@@QAE@XZ:PROC
EXTRN	___CxxFrameHandler3:PROC
EXTRN	??_Elogic_error@std@@UAEPAXI@Z:PROC		; std::logic_error::`vector deleting destructor'
;	COMDAT ??_R1A@?0A@EA@logic_error@std@@8
; File c:\program files (x86)\microsoft visual studio 9.0\vc\include\stdexcept
rdata$r	SEGMENT
??_R1A@?0A@EA@logic_error@std@@8 DD FLAT:??_R0?AVlogic_error@std@@@8 ; std::logic_error::`RTTI Base Class Descriptor at (0,-1,0,64)'
	DD	01H
	DD	00H
	DD	0ffffffffH
	DD	00H
	DD	040H
	DD	FLAT:??_R3logic_error@std@@8
rdata$r	ENDS
;	COMDAT ??_R2logic_error@std@@8
rdata$r	SEGMENT
??_R2logic_error@std@@8 DD FLAT:??_R1A@?0A@EA@logic_error@std@@8 ; std::logic_error::`RTTI Base Class Array'
	DD	FLAT:??_R1A@?0A@EA@exception@std@@8
rdata$r	ENDS
;	COMDAT ??_R3logic_error@std@@8
rdata$r	SEGMENT
??_R3logic_error@std@@8 DD 00H				; std::logic_error::`RTTI Class Hierarchy Descriptor'
	DD	00H
	DD	02H
	DD	FLAT:??_R2logic_error@std@@8
rdata$r	ENDS
;	COMDAT ??_R0?AVlogic_error@std@@@8
_DATA	SEGMENT
??_R0?AVlogic_error@std@@@8 DD FLAT:??_7type_info@@6B@	; std::logic_error `RTTI Type Descriptor'
	DD	00H
	DB	'.?AVlogic_error@std@@', 00H
_DATA	ENDS
;	COMDAT ??_R4logic_error@std@@6B@
rdata$r	SEGMENT
??_R4logic_error@std@@6B@ DD 00H			; std::logic_error::`RTTI Complete Object Locator'
	DD	00H
	DD	00H
	DD	FLAT:??_R0?AVlogic_error@std@@@8
	DD	FLAT:??_R3logic_error@std@@8
rdata$r	ENDS
;	COMDAT ??_7logic_error@std@@6B@
CONST	SEGMENT
??_7logic_error@std@@6B@ DD FLAT:??_R4logic_error@std@@6B@ ; std::logic_error::`vftable'
	DD	FLAT:??_Elogic_error@std@@UAEPAXI@Z
	DD	FLAT:?what@logic_error@std@@UBEPBDXZ
CONST	ENDS
;	COMDAT xdata$x
xdata$x	SEGMENT
__unwindtable$??0logic_error@std@@QAE@ABV?$basic_string@DU?$char_traits@D@std@@V?$allocator@D@2@@1@@Z DD 0ffffffffH
	DD	FLAT:__unwindfunclet$??0logic_error@std@@QAE@ABV?$basic_string@DU?$char_traits@D@std@@V?$allocator@D@2@@1@@Z$0
__ehfuncinfo$??0logic_error@std@@QAE@ABV?$basic_string@DU?$char_traits@D@std@@V?$allocator@D@2@@1@@Z DD 019930522H
	DD	01H
	DD	FLAT:__unwindtable$??0logic_error@std@@QAE@ABV?$basic_string@DU?$char_traits@D@std@@V?$allocator@D@2@@1@@Z
	DD	2 DUP(00H)
	DD	2 DUP(00H)
	DD	00H
	DD	01H
; Function compile flags: /Ogtpy
xdata$x	ENDS
;	COMDAT ??0logic_error@std@@QAE@ABV?$basic_string@DU?$char_traits@D@std@@V?$allocator@D@2@@1@@Z
_TEXT	SEGMENT
_this$ = -16						; size = 4
__$EHRec$ = -12						; size = 12
__Message$ = 8						; size = 4
??0logic_error@std@@QAE@ABV?$basic_string@DU?$char_traits@D@std@@V?$allocator@D@2@@1@@Z PROC ; std::logic_error::logic_error, COMDAT
; _this$ = ecx

; 26   : 		{	// construct from message string

	push	-1
	push	__ehhandler$??0logic_error@std@@QAE@ABV?$basic_string@DU?$char_traits@D@std@@V?$allocator@D@2@@1@@Z
	mov	eax, DWORD PTR fs:0
	push	eax
	mov	DWORD PTR fs:0, esp
	push	ecx
	push	esi
	mov	esi, ecx
	mov	DWORD PTR _this$[esp+20], esi
	call	DWORD PTR __imp_??0exception@std@@QAE@XZ
	mov	eax, DWORD PTR __Message$[esp+16]
	push	eax
	lea	ecx, DWORD PTR [esi+12]
	mov	DWORD PTR __$EHRec$[esp+32], 0
	mov	DWORD PTR [esi], OFFSET ??_7logic_error@std@@6B@
	call	DWORD PTR __imp_??0?$basic_string@DU?$char_traits@D@std@@V?$allocator@D@2@@std@@QAE@ABV01@@Z

; 27   : 		}

	mov	ecx, DWORD PTR __$EHRec$[esp+20]
	mov	eax, esi
	pop	esi
	mov	DWORD PTR fs:0, ecx
	add	esp, 16					; 00000010H
	ret	4
_TEXT	ENDS
;	COMDAT text$x
text$x	SEGMENT
__unwindfunclet$??0logic_error@std@@QAE@ABV?$basic_string@DU?$char_traits@D@std@@V?$allocator@D@2@@1@@Z$0:
	mov	ecx, DWORD PTR _this$[ebp]
	jmp	DWORD PTR __imp_??1exception@std@@UAE@XZ
__ehhandler$??0logic_error@std@@QAE@ABV?$basic_string@DU?$char_traits@D@std@@V?$allocator@D@2@@1@@Z:
	mov	eax, OFFSET __ehfuncinfo$??0logic_error@std@@QAE@ABV?$basic_string@DU?$char_traits@D@std@@V?$allocator@D@2@@1@@Z
	jmp	___CxxFrameHandler3
text$x	ENDS
??0logic_error@std@@QAE@ABV?$basic_string@DU?$char_traits@D@std@@V?$allocator@D@2@@1@@Z ENDP ; std::logic_error::logic_error
PUBLIC	??1logic_error@std@@UAE@XZ			; std::logic_error::~logic_error
EXTRN	__imp_??1?$basic_string@DU?$char_traits@D@std@@V?$allocator@D@2@@std@@QAE@XZ:PROC
; Function compile flags: /Ogtpy
;	COMDAT ??1logic_error@std@@UAE@XZ
_TEXT	SEGMENT
??1logic_error@std@@UAE@XZ PROC				; std::logic_error::~logic_error, COMDAT
; _this$ = ecx

; 30   : 		{	// destroy the object

	push	esi
	mov	esi, ecx

; 31   : 		}

	lea	ecx, DWORD PTR [esi+12]
	mov	DWORD PTR [esi], OFFSET ??_7logic_error@std@@6B@
	call	DWORD PTR __imp_??1?$basic_string@DU?$char_traits@D@std@@V?$allocator@D@2@@std@@QAE@XZ
	mov	ecx, esi
	pop	esi
	jmp	DWORD PTR __imp_??1exception@std@@UAE@XZ
??1logic_error@std@@UAE@XZ ENDP				; std::logic_error::~logic_error
_TEXT	ENDS
EXTRN	__imp_?c_str@?$basic_string@DU?$char_traits@D@std@@V?$allocator@D@2@@std@@QBEPBDXZ:PROC
; Function compile flags: /Ogtpy
;	COMDAT ?what@logic_error@std@@UBEPBDXZ
_TEXT	SEGMENT
?what@logic_error@std@@UBEPBDXZ PROC			; std::logic_error::what, COMDAT
; _this$ = ecx

; 35   : 		return (_Str.c_str());

	add	ecx, 12					; 0000000cH
	jmp	DWORD PTR __imp_?c_str@?$basic_string@DU?$char_traits@D@std@@V?$allocator@D@2@@std@@QBEPBDXZ
?what@logic_error@std@@UBEPBDXZ ENDP			; std::logic_error::what
; Function compile flags: /Ogtpy
_TEXT	ENDS
;	COMDAT ??_Glogic_error@std@@UAEPAXI@Z
_TEXT	SEGMENT
___flags$ = 8						; size = 4
??_Glogic_error@std@@UAEPAXI@Z PROC			; std::logic_error::`scalar deleting destructor', COMDAT
; _this$ = ecx
	push	esi
	mov	esi, ecx
	lea	ecx, DWORD PTR [esi+12]
	mov	DWORD PTR [esi], OFFSET ??_7logic_error@std@@6B@
	call	DWORD PTR __imp_??1?$basic_string@DU?$char_traits@D@std@@V?$allocator@D@2@@std@@QAE@XZ
	mov	ecx, esi
	call	DWORD PTR __imp_??1exception@std@@UAE@XZ
	test	BYTE PTR ___flags$[esp], 1
	je	SHORT $LN6@scalar@2
	push	esi
	call	??3@YAXPAX@Z				; operator delete
	add	esp, 4
$LN6@scalar@2:
	mov	eax, esi
	pop	esi
	ret	4
??_Glogic_error@std@@UAEPAXI@Z ENDP			; std::logic_error::`scalar deleting destructor'
_TEXT	ENDS
PUBLIC	??0CvGreatWorkInMyEmpire@@QAE@XZ		; CvGreatWorkInMyEmpire::CvGreatWorkInMyEmpire
; Function compile flags: /Ogtpy
; File c:\users\enormousapplepie\documents\github\lekmod\lekmod_dll\cvgamecoredll_expansion2\cvcultureclasses.cpp
;	COMDAT ??0CvGreatWorkInMyEmpire@@QAE@XZ
_TEXT	SEGMENT
??0CvGreatWorkInMyEmpire@@QAE@XZ PROC			; CvGreatWorkInMyEmpire::CvGreatWorkInMyEmpire, COMDAT
; _this$ = ecx

; 714  : {

	mov	eax, ecx
	or	ecx, -1
	mov	DWORD PTR [eax], ecx
	mov	DWORD PTR [eax+4], ecx
	mov	DWORD PTR [eax+8], ecx
	mov	DWORD PTR [eax+12], ecx

; 715  : }

	ret	0
??0CvGreatWorkInMyEmpire@@QAE@XZ ENDP			; CvGreatWorkInMyEmpire::CvGreatWorkInMyEmpire
_TEXT	ENDS
PUBLIC	??0CvGreatWorkInMyEmpire@@QAE@HHW4BuildingTypes@@HW4PlayerTypes@@W4EraTypes@@@Z ; CvGreatWorkInMyEmpire::CvGreatWorkInMyEmpire
; Function compile flags: /Ogtpy
;	COMDAT ??0CvGreatWorkInMyEmpire@@QAE@HHW4BuildingTypes@@HW4PlayerTypes@@W4EraTypes@@@Z
_TEXT	SEGMENT
_iIndex$ = 8						; size = 4
_iCityID$ = 12						; size = 4
_eBuilding$ = 16					; size = 4
_iSlot$ = 20						; size = 4
_ePlayer$ = 24						; size = 4
_eEra$ = 28						; size = 4
??0CvGreatWorkInMyEmpire@@QAE@HHW4BuildingTypes@@HW4PlayerTypes@@W4EraTypes@@@Z PROC ; CvGreatWorkInMyEmpire::CvGreatWorkInMyEmpire, COMDAT
; _this$ = ecx

; 729  : {

	mov	edx, DWORD PTR _iCityID$[esp-4]
	mov	eax, ecx
	mov	ecx, DWORD PTR _iIndex$[esp-4]
	mov	DWORD PTR [eax], ecx
	mov	ecx, DWORD PTR _eBuilding$[esp-4]
	mov	DWORD PTR [eax+4], edx
	mov	edx, DWORD PTR _iSlot$[esp-4]
	mov	DWORD PTR [eax+8], ecx
	mov	ecx, DWORD PTR _ePlayer$[esp-4]
	mov	DWORD PTR [eax+12], edx
	mov	edx, DWORD PTR _eEra$[esp-4]
	mov	DWORD PTR [eax+16], ecx
	mov	DWORD PTR [eax+20], edx

; 730  : }

	ret	24					; 00000018H
??0CvGreatWorkInMyEmpire@@QAE@HHW4BuildingTypes@@HW4PlayerTypes@@W4EraTypes@@@Z ENDP ; CvGreatWorkInMyEmpire::CvGreatWorkInMyEmpire
_TEXT	ENDS
PUBLIC	??0CvGreatWorkBuildingInMyEmpire@@QAE@XZ	; CvGreatWorkBuildingInMyEmpire::CvGreatWorkBuildingInMyEmpire
; Function compile flags: /Ogtpy
;	COMDAT ??0CvGreatWorkBuildingInMyEmpire@@QAE@XZ
_TEXT	SEGMENT
??0CvGreatWorkBuildingInMyEmpire@@QAE@XZ PROC		; CvGreatWorkBuildingInMyEmpire::CvGreatWorkBuildingInMyEmpire, COMDAT
; _this$ = ecx

; 739  : {

	mov	eax, ecx

; 740  : 	m_bThemed = false;

	xor	cl, cl
	mov	DWORD PTR [eax], -1
	mov	DWORD PTR [eax+4], -1
	mov	BYTE PTR [eax+8], cl

; 741  : 	m_bEndangered = false;

	mov	BYTE PTR [eax+9], cl

; 742  : }

	ret	0
??0CvGreatWorkBuildingInMyEmpire@@QAE@XZ ENDP		; CvGreatWorkBuildingInMyEmpire::CvGreatWorkBuildingInMyEmpire
_TEXT	ENDS
PUBLIC	??0CvGreatWorkBuildingInMyEmpire@@QAE@HW4BuildingTypes@@@Z ; CvGreatWorkBuildingInMyEmpire::CvGreatWorkBuildingInMyEmpire
; Function compile flags: /Ogtpy
;	COMDAT ??0CvGreatWorkBuildingInMyEmpire@@QAE@HW4BuildingTypes@@@Z
_TEXT	SEGMENT
_iCityID$ = 8						; size = 4
_eBuilding$ = 12					; size = 4
??0CvGreatWorkBuildingInMyEmpire@@QAE@HW4BuildingTypes@@@Z PROC ; CvGreatWorkBuildingInMyEmpire::CvGreatWorkBuildingInMyEmpire, COMDAT
; _this$ = ecx

; 748  : {

	mov	edx, DWORD PTR _eBuilding$[esp-4]
	mov	eax, ecx
	mov	ecx, DWORD PTR _iCityID$[esp-4]
	mov	DWORD PTR [eax], ecx

; 749  : 	m_bThemed = false;

	xor	cl, cl
	mov	DWORD PTR [eax+4], edx
	mov	BYTE PTR [eax+8], cl

; 750  : 	m_bEndangered = false;

	mov	BYTE PTR [eax+9], cl

; 751  : }

	ret	8
??0CvGreatWorkBuildingInMyEmpire@@QAE@HW4BuildingTypes@@@Z ENDP ; CvGreatWorkBuildingInMyEmpire::CvGreatWorkBuildingInMyEmpire
_TEXT	ENDS
PUBLIC	??_7length_error@std@@6B@			; std::length_error::`vftable'
PUBLIC	??0length_error@std@@QAE@ABV?$basic_string@DU?$char_traits@D@std@@V?$allocator@D@2@@1@@Z ; std::length_error::length_error
PUBLIC	??_R4length_error@std@@6B@			; std::length_error::`RTTI Complete Object Locator'
PUBLIC	??_R0?AVlength_error@std@@@8			; std::length_error `RTTI Type Descriptor'
PUBLIC	??_R3length_error@std@@8			; std::length_error::`RTTI Class Hierarchy Descriptor'
PUBLIC	??_R2length_error@std@@8			; std::length_error::`RTTI Base Class Array'
PUBLIC	??_R1A@?0A@EA@length_error@std@@8		; std::length_error::`RTTI Base Class Descriptor at (0,-1,0,64)'
EXTRN	??_Elength_error@std@@UAEPAXI@Z:PROC		; std::length_error::`vector deleting destructor'
;	COMDAT ??_R1A@?0A@EA@length_error@std@@8
; File c:\program files (x86)\microsoft visual studio 9.0\vc\include\stdexcept
rdata$r	SEGMENT
??_R1A@?0A@EA@length_error@std@@8 DD FLAT:??_R0?AVlength_error@std@@@8 ; std::length_error::`RTTI Base Class Descriptor at (0,-1,0,64)'
	DD	02H
	DD	00H
	DD	0ffffffffH
	DD	00H
	DD	040H
	DD	FLAT:??_R3length_error@std@@8
rdata$r	ENDS
;	COMDAT ??_R2length_error@std@@8
rdata$r	SEGMENT
??_R2length_error@std@@8 DD FLAT:??_R1A@?0A@EA@length_error@std@@8 ; std::length_error::`RTTI Base Class Array'
	DD	FLAT:??_R1A@?0A@EA@logic_error@std@@8
	DD	FLAT:??_R1A@?0A@EA@exception@std@@8
rdata$r	ENDS
;	COMDAT ??_R3length_error@std@@8
rdata$r	SEGMENT
??_R3length_error@std@@8 DD 00H				; std::length_error::`RTTI Class Hierarchy Descriptor'
	DD	00H
	DD	03H
	DD	FLAT:??_R2length_error@std@@8
rdata$r	ENDS
;	COMDAT ??_R0?AVlength_error@std@@@8
_DATA	SEGMENT
??_R0?AVlength_error@std@@@8 DD FLAT:??_7type_info@@6B@	; std::length_error `RTTI Type Descriptor'
	DD	00H
	DB	'.?AVlength_error@std@@', 00H
_DATA	ENDS
;	COMDAT ??_R4length_error@std@@6B@
rdata$r	SEGMENT
??_R4length_error@std@@6B@ DD 00H			; std::length_error::`RTTI Complete Object Locator'
	DD	00H
	DD	00H
	DD	FLAT:??_R0?AVlength_error@std@@@8
	DD	FLAT:??_R3length_error@std@@8
rdata$r	ENDS
;	COMDAT ??_7length_error@std@@6B@
CONST	SEGMENT
??_7length_error@std@@6B@ DD FLAT:??_R4length_error@std@@6B@ ; std::length_error::`vftable'
	DD	FLAT:??_Elength_error@std@@UAEPAXI@Z
	DD	FLAT:?what@logic_error@std@@UBEPBDXZ
; Function compile flags: /Ogtpy
CONST	ENDS
;	COMDAT ??0length_error@std@@QAE@ABV?$basic_string@DU?$char_traits@D@std@@V?$allocator@D@2@@1@@Z
_TEXT	SEGMENT
__Message$ = 8						; size = 4
??0length_error@std@@QAE@ABV?$basic_string@DU?$char_traits@D@std@@V?$allocator@D@2@@1@@Z PROC ; std::length_error::length_error, COMDAT
; _this$ = ecx

; 105  : 		{	// construct from message string

	mov	eax, DWORD PTR __Message$[esp-4]
	push	esi
	push	eax
	mov	esi, ecx
	call	??0logic_error@std@@QAE@ABV?$basic_string@DU?$char_traits@D@std@@V?$allocator@D@2@@1@@Z ; std::logic_error::logic_error
	mov	DWORD PTR [esi], OFFSET ??_7length_error@std@@6B@

; 106  : 		}

	mov	eax, esi
	pop	esi
	ret	4
??0length_error@std@@QAE@ABV?$basic_string@DU?$char_traits@D@std@@V?$allocator@D@2@@1@@Z ENDP ; std::length_error::length_error
_TEXT	ENDS
PUBLIC	??1length_error@std@@UAE@XZ			; std::length_error::~length_error
; Function compile flags: /Ogtpy
;	COMDAT ??1length_error@std@@UAE@XZ
_TEXT	SEGMENT
??1length_error@std@@UAE@XZ PROC			; std::length_error::~length_error, COMDAT
; _this$ = ecx

; 109  : 		{	// destroy the object

	push	esi
	mov	esi, ecx

; 110  : 		}

	lea	ecx, DWORD PTR [esi+12]
	mov	DWORD PTR [esi], OFFSET ??_7logic_error@std@@6B@
	call	DWORD PTR __imp_??1?$basic_string@DU?$char_traits@D@std@@V?$allocator@D@2@@std@@QAE@XZ
	mov	ecx, esi
	pop	esi
	jmp	DWORD PTR __imp_??1exception@std@@UAE@XZ
??1length_error@std@@UAE@XZ ENDP			; std::length_error::~length_error
; Function compile flags: /Ogtpy
_TEXT	ENDS
;	COMDAT ??_Glength_error@std@@UAEPAXI@Z
_TEXT	SEGMENT
___flags$ = 8						; size = 4
??_Glength_error@std@@UAEPAXI@Z PROC			; std::length_error::`scalar deleting destructor', COMDAT
; _this$ = ecx
	push	esi
	mov	esi, ecx
	lea	ecx, DWORD PTR [esi+12]
	mov	DWORD PTR [esi], OFFSET ??_7logic_error@std@@6B@
	call	DWORD PTR __imp_??1?$basic_string@DU?$char_traits@D@std@@V?$allocator@D@2@@std@@QAE@XZ
	mov	ecx, esi
	call	DWORD PTR __imp_??1exception@std@@UAE@XZ
	test	BYTE PTR ___flags$[esp], 1
	je	SHORT $LN8@scalar@3
	push	esi
	call	??3@YAXPAX@Z				; operator delete
	add	esp, 4
$LN8@scalar@3:
	mov	eax, esi
	pop	esi
	ret	4
??_Glength_error@std@@UAEPAXI@Z ENDP			; std::length_error::`scalar deleting destructor'
_TEXT	ENDS
PUBLIC	?HasAvailableGreatWorkSlot@CvPlayerCulture@@QAE_NW4GreatWorkSlotType@@@Z ; CvPlayerCulture::HasAvailableGreatWorkSlot
EXTRN	?nextCity@CvPlayer@@QAEPAVCvCity@@PAH_N@Z:PROC	; CvPlayer::nextCity
EXTRN	?HasAvailableGreatWorkSlot@CvCityBuildings@@QBE_NW4GreatWorkSlotType@@@Z:PROC ; CvCityBuildings::HasAvailableGreatWorkSlot
EXTRN	?GetCityBuildings@CvCity@@QBEPAVCvCityBuildings@@XZ:PROC ; CvCity::GetCityBuildings
EXTRN	?firstCity@CvPlayer@@QAEPAVCvCity@@PAH_N@Z:PROC	; CvPlayer::firstCity
; Function compile flags: /Ogtpy
; File c:\users\enormousapplepie\documents\github\lekmod\lekmod_dll\cvgamecoredll_expansion2\cvcultureclasses.cpp
;	COMDAT ?HasAvailableGreatWorkSlot@CvPlayerCulture@@QAE_NW4GreatWorkSlotType@@@Z
_TEXT	SEGMENT
_iLoop$ = -4						; size = 4
_eGreatWorkSlot$ = 8					; size = 4
?HasAvailableGreatWorkSlot@CvPlayerCulture@@QAE_NW4GreatWorkSlotType@@@Z PROC ; CvPlayerCulture::HasAvailableGreatWorkSlot, COMDAT
; _this$ = ecx

; 798  : {

	push	ecx
	push	esi
	push	edi
	mov	esi, ecx

; 799  : 	int iLoop;
; 800  : 	for (CvCity* pCity = m_pPlayer->firstCity(&iLoop); pCity != NULL; pCity = m_pPlayer->nextCity(&iLoop))

	mov	ecx, DWORD PTR [esi+292]
	push	0
	lea	eax, DWORD PTR _iLoop$[esp+16]
	push	eax
	call	?firstCity@CvPlayer@@QAEPAVCvCity@@PAH_N@Z ; CvPlayer::firstCity
	test	eax, eax
	je	SHORT $LN2@HasAvailab
	mov	edi, DWORD PTR _eGreatWorkSlot$[esp+8]
	npad	1
$LL4@HasAvailab:

; 801  : 	{
; 802  : 		if (pCity->GetCityBuildings()->HasAvailableGreatWorkSlot(eGreatWorkSlot))

	push	edi
	mov	ecx, eax
	call	?GetCityBuildings@CvCity@@QBEPAVCvCityBuildings@@XZ ; CvCity::GetCityBuildings
	mov	ecx, eax
	call	?HasAvailableGreatWorkSlot@CvCityBuildings@@QBE_NW4GreatWorkSlotType@@@Z ; CvCityBuildings::HasAvailableGreatWorkSlot
	test	al, al
	jne	SHORT $LN8@HasAvailab
	push	0
	lea	ecx, DWORD PTR _iLoop$[esp+16]
	push	ecx
	mov	ecx, DWORD PTR [esi+292]
	call	?nextCity@CvPlayer@@QAEPAVCvCity@@PAH_N@Z ; CvPlayer::nextCity
	test	eax, eax
	jne	SHORT $LL4@HasAvailab
$LN2@HasAvailab:
	pop	edi

; 805  : 		}
; 806  : 	}
; 807  : 	return false;

	xor	al, al
	pop	esi

; 808  : }

	pop	ecx
	ret	4
$LN8@HasAvailab:
	pop	edi

; 803  : 		{
; 804  : 			return true;

	mov	al, 1
	pop	esi

; 808  : }

	pop	ecx
	ret	4
?HasAvailableGreatWorkSlot@CvPlayerCulture@@QAE_NW4GreatWorkSlotType@@@Z ENDP ; CvPlayerCulture::HasAvailableGreatWorkSlot
_TEXT	ENDS
PUBLIC	?GetNumAvailableGreatWorkSlots@CvPlayerCulture@@QBEHW4GreatWorkSlotType@@@Z ; CvPlayerCulture::GetNumAvailableGreatWorkSlots
EXTRN	?GetNumAvailableGreatWorkSlots@CvCityBuildings@@QBEHW4GreatWorkSlotType@@@Z:PROC ; CvCityBuildings::GetNumAvailableGreatWorkSlots
; Function compile flags: /Ogtpy
;	COMDAT ?GetNumAvailableGreatWorkSlots@CvPlayerCulture@@QBEHW4GreatWorkSlotType@@@Z
_TEXT	SEGMENT
_iLoop$ = -4						; size = 4
_eGreatWorkSlot$ = 8					; size = 4
?GetNumAvailableGreatWorkSlots@CvPlayerCulture@@QBEHW4GreatWorkSlotType@@@Z PROC ; CvPlayerCulture::GetNumAvailableGreatWorkSlots, COMDAT
; _this$ = ecx

; 818  : {

	push	ecx
	push	esi
	push	edi

; 819  : 	int iLoop;
; 820  : 	int iCount = 0;

	xor	edi, edi
	mov	esi, ecx

; 821  : #endif
; 822  : 
; 823  : 	for (CvCity* pCity = m_pPlayer->firstCity(&iLoop); pCity != NULL; pCity = m_pPlayer->nextCity(&iLoop))

	mov	ecx, DWORD PTR [esi+292]
	push	edi
	lea	eax, DWORD PTR _iLoop$[esp+16]
	push	eax
	call	?firstCity@CvPlayer@@QAEPAVCvCity@@PAH_N@Z ; CvPlayer::firstCity
	test	eax, eax
	je	SHORT $LN8@GetNumAvai
	push	ebx
	mov	ebx, DWORD PTR _eGreatWorkSlot$[esp+12]
$LL3@GetNumAvai:

; 824  : 	{
; 825  : 		iCount += pCity->GetCityBuildings()->GetNumAvailableGreatWorkSlots(eGreatWorkSlot);

	push	ebx
	mov	ecx, eax
	call	?GetCityBuildings@CvCity@@QBEPAVCvCityBuildings@@XZ ; CvCity::GetCityBuildings
	mov	ecx, eax
	call	?GetNumAvailableGreatWorkSlots@CvCityBuildings@@QBEHW4GreatWorkSlotType@@@Z ; CvCityBuildings::GetNumAvailableGreatWorkSlots
	push	0
	lea	ecx, DWORD PTR _iLoop$[esp+20]
	push	ecx
	mov	ecx, DWORD PTR [esi+292]
	add	edi, eax
	call	?nextCity@CvPlayer@@QAEPAVCvCity@@PAH_N@Z ; CvPlayer::nextCity
	test	eax, eax
	jne	SHORT $LL3@GetNumAvai
	pop	ebx
$LN8@GetNumAvai:

; 826  : 	}
; 827  : 	return iCount;

	mov	eax, edi
	pop	edi
	pop	esi

; 828  : }

	pop	ecx
	ret	4
?GetNumAvailableGreatWorkSlots@CvPlayerCulture@@QBEHW4GreatWorkSlotType@@@Z ENDP ; CvPlayerCulture::GetNumAvailableGreatWorkSlots
_TEXT	ENDS
PUBLIC	?ControlsGreatWork@CvPlayerCulture@@QAE_NH@Z	; CvPlayerCulture::ControlsGreatWork
EXTRN	?GetBuildingGreatWork@CvCityBuildings@@QBEHW4BuildingClassTypes@@H@Z:PROC ; CvCityBuildings::GetBuildingGreatWork
EXTRN	?GetGreatWorkCount@CvBuildingEntry@@QBEHXZ:PROC	; CvBuildingEntry::GetGreatWorkCount
EXTRN	?GetNumBuilding@CvCityBuildings@@QBEHW4BuildingTypes@@@Z:PROC ; CvCityBuildings::GetNumBuilding
EXTRN	?getBuildingInfo@CvGlobals@@QAEPAVCvBuildingEntry@@W4BuildingTypes@@@Z:PROC ; CvGlobals::getBuildingInfo
EXTRN	?getCivilizationBuildings@CvCivilizationInfo@@QBEHH@Z:PROC ; CvCivilizationInfo::getCivilizationBuildings
EXTRN	?getCivilizationInfo@CvPlayer@@QBEAAVCvCivilizationInfo@@XZ:PROC ; CvPlayer::getCivilizationInfo
EXTRN	?getNumBuildingClassInfos@CvGlobals@@QAEHXZ:PROC ; CvGlobals::getNumBuildingClassInfos
EXTRN	?gGlobals@@3VCvGlobals@@A:BYTE			; gGlobals
; Function compile flags: /Ogtpy
;	COMDAT ?ControlsGreatWork@CvPlayerCulture@@QAE_NH@Z
_TEXT	SEGMENT
_iLoop$ = -8						; size = 4
_this$ = -4						; size = 4
_iIndex$ = 8						; size = 4
?ControlsGreatWork@CvPlayerCulture@@QAE_NH@Z PROC	; CvPlayerCulture::ControlsGreatWork, COMDAT
; _this$ = ecx

; 937  : {

	sub	esp, 8
	push	ebx
	push	ebp
	push	esi
	push	edi
	mov	ebx, ecx

; 938  : 	CvCity* pLoopCity = NULL;
; 939  : 	int iLoop = 0;
; 940  : 
; 941  : 	for(pLoopCity = m_pPlayer->firstCity(&iLoop); pLoopCity != NULL; pLoopCity = m_pPlayer->nextCity(&iLoop))

	mov	ecx, DWORD PTR [ebx+292]
	push	0
	lea	eax, DWORD PTR _iLoop$[esp+28]
	push	eax
	mov	DWORD PTR _this$[esp+32], ebx
	mov	DWORD PTR _iLoop$[esp+32], 0
	call	?firstCity@CvPlayer@@QAEPAVCvCity@@PAH_N@Z ; CvPlayer::firstCity
	mov	ebp, eax
	test	ebp, ebp
	je	$LN11@ControlsGr
$LL13@ControlsGr:

; 942  : 	{
; 943  : #ifdef AUI_WARNING_FIXES
; 944  : 		for (uint iBuildingClassLoop = 0; iBuildingClassLoop < GC.getNumBuildingClassInfos(); iBuildingClassLoop++)
; 945  : #else
; 946  : 		for(int iBuildingClassLoop = 0; iBuildingClassLoop < GC.getNumBuildingClassInfos(); iBuildingClassLoop++)

	mov	ecx, OFFSET ?gGlobals@@3VCvGlobals@@A	; gGlobals
	xor	edi, edi
	call	?getNumBuildingClassInfos@CvGlobals@@QAEHXZ ; CvGlobals::getNumBuildingClassInfos
	test	eax, eax
	jle	$LN12@ControlsGr
$LL10@ControlsGr:

; 947  : #endif
; 948  : 		{
; 949  : 			CvCivilizationInfo& playerCivilizationInfo = m_pPlayer->getCivilizationInfo();

	mov	ecx, DWORD PTR [ebx+292]
	call	?getCivilizationInfo@CvPlayer@@QBEAAVCvCivilizationInfo@@XZ ; CvPlayer::getCivilizationInfo

; 950  : 			BuildingTypes eBuilding = (BuildingTypes)playerCivilizationInfo.getCivilizationBuildings((BuildingClassTypes)iBuildingClassLoop);

	push	edi
	mov	ecx, eax
	call	?getCivilizationBuildings@CvCivilizationInfo@@QBEHH@Z ; CvCivilizationInfo::getCivilizationBuildings
	mov	esi, eax

; 951  : 			if (eBuilding != NO_BUILDING)

	cmp	esi, -1
	je	SHORT $LN9@ControlsGr

; 952  : 			{
; 953  : 				CvBuildingEntry *pkBuilding = GC.getBuildingInfo(eBuilding);

	push	esi
	mov	ecx, OFFSET ?gGlobals@@3VCvGlobals@@A	; gGlobals
	call	?getBuildingInfo@CvGlobals@@QAEPAVCvBuildingEntry@@W4BuildingTypes@@@Z ; CvGlobals::getBuildingInfo
	mov	ebx, eax

; 954  : 				if (pkBuilding)

	test	ebx, ebx
	je	SHORT $LN23@ControlsGr

; 955  : 				{
; 956  : 					if (pLoopCity->GetCityBuildings()->GetNumBuilding(eBuilding) > 0)

	push	esi
	mov	ecx, ebp
	call	?GetCityBuildings@CvCity@@QBEPAVCvCityBuildings@@XZ ; CvCity::GetCityBuildings
	mov	ecx, eax
	call	?GetNumBuilding@CvCityBuildings@@QBEHW4BuildingTypes@@@Z ; CvCityBuildings::GetNumBuilding
	test	eax, eax
	jle	SHORT $LN23@ControlsGr

; 957  : 					{
; 958  : 						int iNumSlots = pkBuilding->GetGreatWorkCount();

	mov	ecx, ebx
	call	?GetGreatWorkCount@CvBuildingEntry@@QBEHXZ ; CvBuildingEntry::GetGreatWorkCount
	mov	ebx, eax

; 959  : 						for (int iI = 0; iI < iNumSlots; iI++)

	xor	esi, esi
	test	ebx, ebx
	jle	SHORT $LN23@ControlsGr
$LL4@ControlsGr:

; 960  : 						{
; 961  : 							int iGreatWorkIndex = pLoopCity->GetCityBuildings()->GetBuildingGreatWork((BuildingClassTypes)iBuildingClassLoop, iI);

	push	esi
	push	edi
	mov	ecx, ebp
	call	?GetCityBuildings@CvCity@@QBEPAVCvCityBuildings@@XZ ; CvCity::GetCityBuildings
	mov	ecx, eax
	call	?GetBuildingGreatWork@CvCityBuildings@@QBEHW4BuildingClassTypes@@H@Z ; CvCityBuildings::GetBuildingGreatWork

; 962  : 							if (iGreatWorkIndex == iIndex)

	cmp	eax, DWORD PTR _iIndex$[esp+20]
	je	SHORT $LN19@ControlsGr
	inc	esi
	cmp	esi, ebx
	jl	SHORT $LL4@ControlsGr
$LN23@ControlsGr:

; 959  : 						for (int iI = 0; iI < iNumSlots; iI++)

	mov	ebx, DWORD PTR _this$[esp+24]
$LN9@ControlsGr:

; 942  : 	{
; 943  : #ifdef AUI_WARNING_FIXES
; 944  : 		for (uint iBuildingClassLoop = 0; iBuildingClassLoop < GC.getNumBuildingClassInfos(); iBuildingClassLoop++)
; 945  : #else
; 946  : 		for(int iBuildingClassLoop = 0; iBuildingClassLoop < GC.getNumBuildingClassInfos(); iBuildingClassLoop++)

	mov	ecx, OFFSET ?gGlobals@@3VCvGlobals@@A	; gGlobals
	inc	edi
	call	?getNumBuildingClassInfos@CvGlobals@@QAEHXZ ; CvGlobals::getNumBuildingClassInfos
	cmp	edi, eax
	jl	SHORT $LL10@ControlsGr
$LN12@ControlsGr:

; 938  : 	CvCity* pLoopCity = NULL;
; 939  : 	int iLoop = 0;
; 940  : 
; 941  : 	for(pLoopCity = m_pPlayer->firstCity(&iLoop); pLoopCity != NULL; pLoopCity = m_pPlayer->nextCity(&iLoop))

	push	0
	lea	ecx, DWORD PTR _iLoop$[esp+28]
	push	ecx
	mov	ecx, DWORD PTR [ebx+292]
	call	?nextCity@CvPlayer@@QAEPAVCvCity@@PAH_N@Z ; CvPlayer::nextCity
	mov	ebp, eax
	test	ebp, ebp
	jne	$LL13@ControlsGr
$LN11@ControlsGr:
	pop	edi
	pop	esi
	pop	ebp

; 965  : 							}
; 966  : 						}
; 967  : 					}
; 968  : 				}
; 969  : 			}
; 970  : 		}
; 971  : 	}
; 972  : 
; 973  : 	return false;	

	xor	al, al
	pop	ebx

; 974  : }

	add	esp, 8
	ret	4
$LN19@ControlsGr:
	pop	edi
	pop	esi
	pop	ebp

; 963  : 							{
; 964  : 								return true;

	mov	al, 1
	pop	ebx

; 974  : }

	add	esp, 8
	ret	4
?ControlsGreatWork@CvPlayerCulture@@QAE_NH@Z ENDP	; CvPlayerCulture::ControlsGreatWork
_TEXT	ENDS
PUBLIC	?GetSwappableWritingIndex@CvPlayerCulture@@QBEHXZ ; CvPlayerCulture::GetSwappableWritingIndex
; Function compile flags: /Ogtpy
;	COMDAT ?GetSwappableWritingIndex@CvPlayerCulture@@QBEHXZ
_TEXT	SEGMENT
?GetSwappableWritingIndex@CvPlayerCulture@@QBEHXZ PROC	; CvPlayerCulture::GetSwappableWritingIndex, COMDAT
; _this$ = ecx

; 1922 : 	return m_iSwappableWritingIndex;

	mov	eax, DWORD PTR [ecx+276]

; 1923 : }

	ret	0
?GetSwappableWritingIndex@CvPlayerCulture@@QBEHXZ ENDP	; CvPlayerCulture::GetSwappableWritingIndex
_TEXT	ENDS
PUBLIC	?GetSwappableArtIndex@CvPlayerCulture@@QBEHXZ	; CvPlayerCulture::GetSwappableArtIndex
; Function compile flags: /Ogtpy
;	COMDAT ?GetSwappableArtIndex@CvPlayerCulture@@QBEHXZ
_TEXT	SEGMENT
?GetSwappableArtIndex@CvPlayerCulture@@QBEHXZ PROC	; CvPlayerCulture::GetSwappableArtIndex, COMDAT
; _this$ = ecx

; 1927 : 	return m_iSwappableArtIndex;

	mov	eax, DWORD PTR [ecx+280]

; 1928 : }

	ret	0
?GetSwappableArtIndex@CvPlayerCulture@@QBEHXZ ENDP	; CvPlayerCulture::GetSwappableArtIndex
_TEXT	ENDS
PUBLIC	?GetSwappableArtifactIndex@CvPlayerCulture@@QBEHXZ ; CvPlayerCulture::GetSwappableArtifactIndex
; Function compile flags: /Ogtpy
;	COMDAT ?GetSwappableArtifactIndex@CvPlayerCulture@@QBEHXZ
_TEXT	SEGMENT
?GetSwappableArtifactIndex@CvPlayerCulture@@QBEHXZ PROC	; CvPlayerCulture::GetSwappableArtifactIndex, COMDAT
; _this$ = ecx

; 1932 : 	return m_iSwappableArtifactIndex;

	mov	eax, DWORD PTR [ecx+284]

; 1933 : }

	ret	0
?GetSwappableArtifactIndex@CvPlayerCulture@@QBEHXZ ENDP	; CvPlayerCulture::GetSwappableArtifactIndex
_TEXT	ENDS
PUBLIC	?GetSwappableMusicIndex@CvPlayerCulture@@QBEHXZ	; CvPlayerCulture::GetSwappableMusicIndex
; Function compile flags: /Ogtpy
;	COMDAT ?GetSwappableMusicIndex@CvPlayerCulture@@QBEHXZ
_TEXT	SEGMENT
?GetSwappableMusicIndex@CvPlayerCulture@@QBEHXZ PROC	; CvPlayerCulture::GetSwappableMusicIndex, COMDAT
; _this$ = ecx

; 1937 : 	return m_iSwappableMusicIndex;

	mov	eax, DWORD PTR [ecx+288]

; 1938 : }

	ret	0
?GetSwappableMusicIndex@CvPlayerCulture@@QBEHXZ ENDP	; CvPlayerCulture::GetSwappableMusicIndex
_TEXT	ENDS
PUBLIC	?SetSwappableWritingIndex@CvPlayerCulture@@QAEXH@Z ; CvPlayerCulture::SetSwappableWritingIndex
; Function compile flags: /Ogtpy
;	COMDAT ?SetSwappableWritingIndex@CvPlayerCulture@@QAEXH@Z
_TEXT	SEGMENT
_iIndex$ = 8						; size = 4
?SetSwappableWritingIndex@CvPlayerCulture@@QAEXH@Z PROC	; CvPlayerCulture::SetSwappableWritingIndex, COMDAT
; _this$ = ecx

; 1942 : 	m_iSwappableWritingIndex = iIndex;

	mov	eax, DWORD PTR _iIndex$[esp-4]
	mov	DWORD PTR [ecx+276], eax

; 1943 : }

	ret	4
?SetSwappableWritingIndex@CvPlayerCulture@@QAEXH@Z ENDP	; CvPlayerCulture::SetSwappableWritingIndex
_TEXT	ENDS
PUBLIC	?SetSwappableArtIndex@CvPlayerCulture@@QAEXH@Z	; CvPlayerCulture::SetSwappableArtIndex
; Function compile flags: /Ogtpy
;	COMDAT ?SetSwappableArtIndex@CvPlayerCulture@@QAEXH@Z
_TEXT	SEGMENT
_iIndex$ = 8						; size = 4
?SetSwappableArtIndex@CvPlayerCulture@@QAEXH@Z PROC	; CvPlayerCulture::SetSwappableArtIndex, COMDAT
; _this$ = ecx

; 1947 : 	m_iSwappableArtIndex = iIndex;

	mov	eax, DWORD PTR _iIndex$[esp-4]
	mov	DWORD PTR [ecx+280], eax

; 1948 : }

	ret	4
?SetSwappableArtIndex@CvPlayerCulture@@QAEXH@Z ENDP	; CvPlayerCulture::SetSwappableArtIndex
_TEXT	ENDS
PUBLIC	?SetSwappableArtifactIndex@CvPlayerCulture@@QAEXH@Z ; CvPlayerCulture::SetSwappableArtifactIndex
; Function compile flags: /Ogtpy
;	COMDAT ?SetSwappableArtifactIndex@CvPlayerCulture@@QAEXH@Z
_TEXT	SEGMENT
_iIndex$ = 8						; size = 4
?SetSwappableArtifactIndex@CvPlayerCulture@@QAEXH@Z PROC ; CvPlayerCulture::SetSwappableArtifactIndex, COMDAT
; _this$ = ecx

; 1952 : 	m_iSwappableArtifactIndex = iIndex;

	mov	eax, DWORD PTR _iIndex$[esp-4]
	mov	DWORD PTR [ecx+284], eax

; 1953 : }

	ret	4
?SetSwappableArtifactIndex@CvPlayerCulture@@QAEXH@Z ENDP ; CvPlayerCulture::SetSwappableArtifactIndex
_TEXT	ENDS
PUBLIC	?SetSwappableMusicIndex@CvPlayerCulture@@QAEXH@Z ; CvPlayerCulture::SetSwappableMusicIndex
; Function compile flags: /Ogtpy
;	COMDAT ?SetSwappableMusicIndex@CvPlayerCulture@@QAEXH@Z
_TEXT	SEGMENT
_iIndex$ = 8						; size = 4
?SetSwappableMusicIndex@CvPlayerCulture@@QAEXH@Z PROC	; CvPlayerCulture::SetSwappableMusicIndex, COMDAT
; _this$ = ecx

; 1957 : 	m_iSwappableMusicIndex = iIndex;

	mov	eax, DWORD PTR _iIndex$[esp-4]
	mov	DWORD PTR [ecx+288], eax

; 1958 : }

	ret	4
?SetSwappableMusicIndex@CvPlayerCulture@@QAEXH@Z ENDP	; CvPlayerCulture::SetSwappableMusicIndex
_TEXT	ENDS
PUBLIC	?GetLastTurnLifetimeCulture@CvPlayerCulture@@QBEHXZ ; CvPlayerCulture::GetLastTurnLifetimeCulture
; Function compile flags: /Ogtpy
;	COMDAT ?GetLastTurnLifetimeCulture@CvPlayerCulture@@QBEHXZ
_TEXT	SEGMENT
?GetLastTurnLifetimeCulture@CvPlayerCulture@@QBEHXZ PROC ; CvPlayerCulture::GetLastTurnLifetimeCulture, COMDAT
; _this$ = ecx

; 2554 : 	return m_iLastTurnLifetimeCulture;

	mov	eax, DWORD PTR [ecx+16]

; 2555 : }

	ret	0
?GetLastTurnLifetimeCulture@CvPlayerCulture@@QBEHXZ ENDP ; CvPlayerCulture::GetLastTurnLifetimeCulture
_TEXT	ENDS
PUBLIC	?SetLastTurnLifetimeCulture@CvPlayerCulture@@QAEXH@Z ; CvPlayerCulture::SetLastTurnLifetimeCulture
; Function compile flags: /Ogtpy
;	COMDAT ?SetLastTurnLifetimeCulture@CvPlayerCulture@@QAEXH@Z
_TEXT	SEGMENT
_iValue$ = 8						; size = 4
?SetLastTurnLifetimeCulture@CvPlayerCulture@@QAEXH@Z PROC ; CvPlayerCulture::SetLastTurnLifetimeCulture, COMDAT
; _this$ = ecx

; 2560 : 	m_iLastTurnLifetimeCulture = iValue;

	mov	eax, DWORD PTR _iValue$[esp-4]
	mov	DWORD PTR [ecx+16], eax

; 2561 : }

	ret	4
?SetLastTurnLifetimeCulture@CvPlayerCulture@@QAEXH@Z ENDP ; CvPlayerCulture::SetLastTurnLifetimeCulture
_TEXT	ENDS
PUBLIC	?GetInfluenceOn@CvPlayerCulture@@QBEHW4PlayerTypes@@@Z ; CvPlayerCulture::GetInfluenceOn
; Function compile flags: /Ogtpy
;	COMDAT ?GetInfluenceOn@CvPlayerCulture@@QBEHW4PlayerTypes@@@Z
_TEXT	SEGMENT
_ePlayer$ = 8						; size = 4
?GetInfluenceOn@CvPlayerCulture@@QBEHW4PlayerTypes@@@Z PROC ; CvPlayerCulture::GetInfluenceOn, COMDAT
; _this$ = ecx

; 2566 : 	CvAssertMsg (ePlayer >= 0, "Invalid player index");
; 2567 : 	CvAssertMsg (ePlayer < MAX_MAJOR_CIVS, "Invalid player index");
; 2568 : 
; 2569 : 	int iIndex = (int)ePlayer;
; 2570 : 	if (iIndex < 0 || iIndex >= MAX_MAJOR_CIVS) return 0;

	mov	eax, DWORD PTR _ePlayer$[esp-4]
	test	eax, eax
	jl	SHORT $LN1@GetInfluen
	cmp	eax, 22					; 00000016H
	jge	SHORT $LN1@GetInfluen

; 2571 : 	return m_aiCulturalInfluence[iIndex];

	mov	eax, DWORD PTR [ecx+eax*4+20]

; 2572 : }

	ret	4
$LN1@GetInfluen:

; 2566 : 	CvAssertMsg (ePlayer >= 0, "Invalid player index");
; 2567 : 	CvAssertMsg (ePlayer < MAX_MAJOR_CIVS, "Invalid player index");
; 2568 : 
; 2569 : 	int iIndex = (int)ePlayer;
; 2570 : 	if (iIndex < 0 || iIndex >= MAX_MAJOR_CIVS) return 0;

	xor	eax, eax

; 2572 : }

	ret	4
?GetInfluenceOn@CvPlayerCulture@@QBEHW4PlayerTypes@@@Z ENDP ; CvPlayerCulture::GetInfluenceOn
_TEXT	ENDS
PUBLIC	?ChangeInfluenceOn@CvPlayerCulture@@QAEXW4PlayerTypes@@H@Z ; CvPlayerCulture::ChangeInfluenceOn
; Function compile flags: /Ogtpy
;	COMDAT ?ChangeInfluenceOn@CvPlayerCulture@@QAEXW4PlayerTypes@@H@Z
_TEXT	SEGMENT
_ePlayer$ = 8						; size = 4
_iValue$ = 12						; size = 4
?ChangeInfluenceOn@CvPlayerCulture@@QAEXW4PlayerTypes@@H@Z PROC ; CvPlayerCulture::ChangeInfluenceOn, COMDAT
; _this$ = ecx

; 2577 : 	CvAssertMsg (ePlayer >= 0, "Invalid player index");
; 2578 : 	CvAssertMsg (ePlayer < MAX_MAJOR_CIVS, "Invalid player index");
; 2579 : 
; 2580 : 	int iIndex = (int)ePlayer;
; 2581 : 	if (iIndex < 0 || iIndex >= MAX_MAJOR_CIVS) return;

	mov	eax, DWORD PTR _ePlayer$[esp-4]
	test	eax, eax
	jl	SHORT $LN1@ChangeInfl
	cmp	eax, 22					; 00000016H
	jge	SHORT $LN1@ChangeInfl

; 2582 : 	m_aiCulturalInfluence[iIndex] = m_aiCulturalInfluence[iIndex] + iValue;

	mov	edx, DWORD PTR _iValue$[esp-4]
	add	DWORD PTR [ecx+eax*4+20], edx
$LN1@ChangeInfl:

; 2583 : }

	ret	8
?ChangeInfluenceOn@CvPlayerCulture@@QAEXW4PlayerTypes@@H@Z ENDP ; CvPlayerCulture::ChangeInfluenceOn
_TEXT	ENDS
PUBLIC	?GetLastTurnInfluenceOn@CvPlayerCulture@@QBEHW4PlayerTypes@@@Z ; CvPlayerCulture::GetLastTurnInfluenceOn
; Function compile flags: /Ogtpy
;	COMDAT ?GetLastTurnInfluenceOn@CvPlayerCulture@@QBEHW4PlayerTypes@@@Z
_TEXT	SEGMENT
_ePlayer$ = 8						; size = 4
?GetLastTurnInfluenceOn@CvPlayerCulture@@QBEHW4PlayerTypes@@@Z PROC ; CvPlayerCulture::GetLastTurnInfluenceOn, COMDAT
; _this$ = ecx

; 2588 : 	CvAssertMsg (ePlayer >= 0, "Invalid player index");
; 2589 : 	CvAssertMsg (ePlayer < MAX_MAJOR_CIVS, "Invalid player index");
; 2590 : 
; 2591 : 	int iIndex = (int)ePlayer;
; 2592 : 	if (iIndex < 0 || iIndex >= MAX_MAJOR_CIVS) return 0;

	mov	eax, DWORD PTR _ePlayer$[esp-4]
	test	eax, eax
	jl	SHORT $LN1@GetLastTur
	cmp	eax, 22					; 00000016H
	jge	SHORT $LN1@GetLastTur

; 2593 : 	return m_aiLastTurnCulturalInfluence[iIndex];

	mov	eax, DWORD PTR [ecx+eax*4+108]

; 2594 : }

	ret	4
$LN1@GetLastTur:

; 2588 : 	CvAssertMsg (ePlayer >= 0, "Invalid player index");
; 2589 : 	CvAssertMsg (ePlayer < MAX_MAJOR_CIVS, "Invalid player index");
; 2590 : 
; 2591 : 	int iIndex = (int)ePlayer;
; 2592 : 	if (iIndex < 0 || iIndex >= MAX_MAJOR_CIVS) return 0;

	xor	eax, eax

; 2594 : }

	ret	4
?GetLastTurnInfluenceOn@CvPlayerCulture@@QBEHW4PlayerTypes@@@Z ENDP ; CvPlayerCulture::GetLastTurnInfluenceOn
_TEXT	ENDS
PUBLIC	?GetPublicOpinionType@CvPlayerCulture@@QBE?AW4PublicOpinionTypes@@XZ ; CvPlayerCulture::GetPublicOpinionType
; Function compile flags: /Ogtpy
;	COMDAT ?GetPublicOpinionType@CvPlayerCulture@@QBE?AW4PublicOpinionTypes@@XZ
_TEXT	SEGMENT
?GetPublicOpinionType@CvPlayerCulture@@QBE?AW4PublicOpinionTypes@@XZ PROC ; CvPlayerCulture::GetPublicOpinionType, COMDAT
; _this$ = ecx

; 3360 : 	return m_eOpinion;

	mov	eax, DWORD PTR [ecx+200]

; 3361 : }

	ret	0
?GetPublicOpinionType@CvPlayerCulture@@QBE?AW4PublicOpinionTypes@@XZ ENDP ; CvPlayerCulture::GetPublicOpinionType
_TEXT	ENDS
PUBLIC	?GetPublicOpinionPreferredIdeology@CvPlayerCulture@@QBE?AW4PolicyBranchTypes@@XZ ; CvPlayerCulture::GetPublicOpinionPreferredIdeology
; Function compile flags: /Ogtpy
;	COMDAT ?GetPublicOpinionPreferredIdeology@CvPlayerCulture@@QBE?AW4PolicyBranchTypes@@XZ
_TEXT	SEGMENT
?GetPublicOpinionPreferredIdeology@CvPlayerCulture@@QBE?AW4PolicyBranchTypes@@XZ PROC ; CvPlayerCulture::GetPublicOpinionPreferredIdeology, COMDAT
; _this$ = ecx

; 3366 : 	return m_ePreferredIdeology;

	mov	eax, DWORD PTR [ecx+212]

; 3367 : }

	ret	0
?GetPublicOpinionPreferredIdeology@CvPlayerCulture@@QBE?AW4PolicyBranchTypes@@XZ ENDP ; CvPlayerCulture::GetPublicOpinionPreferredIdeology
_TEXT	ENDS
PUBLIC	?GetPublicOpinionUnhappiness@CvPlayerCulture@@QBEHXZ ; CvPlayerCulture::GetPublicOpinionUnhappiness
; Function compile flags: /Ogtpy
;	COMDAT ?GetPublicOpinionUnhappiness@CvPlayerCulture@@QBEHXZ
_TEXT	SEGMENT
?GetPublicOpinionUnhappiness@CvPlayerCulture@@QBEHXZ PROC ; CvPlayerCulture::GetPublicOpinionUnhappiness, COMDAT
; _this$ = ecx

; 3378 : 	return m_iOpinionUnhappiness;

	mov	eax, DWORD PTR [ecx+216]

; 3379 : }

	ret	0
?GetPublicOpinionUnhappiness@CvPlayerCulture@@QBEHXZ ENDP ; CvPlayerCulture::GetPublicOpinionUnhappiness
_TEXT	ENDS
PUBLIC	?GetPublicOpinionBiggestInfluence@CvPlayerCulture@@QBE?AW4PlayerTypes@@XZ ; CvPlayerCulture::GetPublicOpinionBiggestInfluence
; Function compile flags: /Ogtpy
;	COMDAT ?GetPublicOpinionBiggestInfluence@CvPlayerCulture@@QBE?AW4PlayerTypes@@XZ
_TEXT	SEGMENT
?GetPublicOpinionBiggestInfluence@CvPlayerCulture@@QBE?AW4PlayerTypes@@XZ PROC ; CvPlayerCulture::GetPublicOpinionBiggestInfluence, COMDAT
; _this$ = ecx

; 3390 : 	return m_eOpinionBiggestInfluence;

	mov	eax, DWORD PTR [ecx+204]

; 3391 : }

	ret	0
?GetPublicOpinionBiggestInfluence@CvPlayerCulture@@QBE?AW4PlayerTypes@@XZ ENDP ; CvPlayerCulture::GetPublicOpinionBiggestInfluence
_TEXT	ENDS
PUBLIC	?GetTurnIdeologySwitch@CvPlayerCulture@@QBEHXZ	; CvPlayerCulture::GetTurnIdeologySwitch
; Function compile flags: /Ogtpy
;	COMDAT ?GetTurnIdeologySwitch@CvPlayerCulture@@QBEHXZ
_TEXT	SEGMENT
?GetTurnIdeologySwitch@CvPlayerCulture@@QBEHXZ PROC	; CvPlayerCulture::GetTurnIdeologySwitch, COMDAT
; _this$ = ecx

; 3396 : 	return m_iTurnIdeologySwitch;

	mov	eax, DWORD PTR [ecx+208]

; 3397 : }

	ret	0
?GetTurnIdeologySwitch@CvPlayerCulture@@QBEHXZ ENDP	; CvPlayerCulture::GetTurnIdeologySwitch
_TEXT	ENDS
PUBLIC	?SetTurnIdeologySwitch@CvPlayerCulture@@QAEXH@Z	; CvPlayerCulture::SetTurnIdeologySwitch
; Function compile flags: /Ogtpy
;	COMDAT ?SetTurnIdeologySwitch@CvPlayerCulture@@QAEXH@Z
_TEXT	SEGMENT
_iValue$ = 8						; size = 4
?SetTurnIdeologySwitch@CvPlayerCulture@@QAEXH@Z PROC	; CvPlayerCulture::SetTurnIdeologySwitch, COMDAT
; _this$ = ecx

; 3400 : 	m_iTurnIdeologySwitch = iValue;

	mov	eax, DWORD PTR _iValue$[esp-4]
	mov	DWORD PTR [ecx+208], eax

; 3401 : }

	ret	4
?SetTurnIdeologySwitch@CvPlayerCulture@@QAEXH@Z ENDP	; CvPlayerCulture::SetTurnIdeologySwitch
_TEXT	ENDS
PUBLIC	?GetTotalThemingBonuses@CvPlayerCulture@@QBEHXZ	; CvPlayerCulture::GetTotalThemingBonuses
EXTRN	?GetThemingBonuses@CvCityBuildings@@QBEHXZ:PROC	; CvCityBuildings::GetThemingBonuses
; Function compile flags: /Ogtpy
;	COMDAT ?GetTotalThemingBonuses@CvPlayerCulture@@QBEHXZ
_TEXT	SEGMENT
_iLoop$ = -4						; size = 4
?GetTotalThemingBonuses@CvPlayerCulture@@QBEHXZ PROC	; CvPlayerCulture::GetTotalThemingBonuses, COMDAT
; _this$ = ecx

; 3927 : {

	push	ecx
	push	esi
	push	edi

; 3928 : 	int iRtnValue = 0;

	xor	edi, edi
	mov	esi, ecx

; 3929 : 
; 3930 : 	CvCity *pCity;
; 3931 : 	int iLoop;
; 3932 : 	for(pCity = m_pPlayer->firstCity(&iLoop); pCity != NULL; pCity = m_pPlayer->nextCity(&iLoop))

	mov	ecx, DWORD PTR [esi+292]
	push	edi
	lea	eax, DWORD PTR _iLoop$[esp+16]
	push	eax
	call	?firstCity@CvPlayer@@QAEPAVCvCity@@PAH_N@Z ; CvPlayer::firstCity
	test	eax, eax
	je	SHORT $LN8@GetTotalTh
	npad	4
$LL3@GetTotalTh:

; 3933 : 	{
; 3934 : 		iRtnValue += pCity->GetCityBuildings()->GetThemingBonuses();;

	mov	ecx, eax
	call	?GetCityBuildings@CvCity@@QBEPAVCvCityBuildings@@XZ ; CvCity::GetCityBuildings
	mov	ecx, eax
	call	?GetThemingBonuses@CvCityBuildings@@QBEHXZ ; CvCityBuildings::GetThemingBonuses
	push	0
	lea	ecx, DWORD PTR _iLoop$[esp+16]
	push	ecx
	mov	ecx, DWORD PTR [esi+292]
	add	edi, eax
	call	?nextCity@CvPlayer@@QAEPAVCvCity@@PAH_N@Z ; CvPlayer::nextCity
	test	eax, eax
	jne	SHORT $LL3@GetTotalTh
$LN8@GetTotalTh:

; 3935 : 	}
; 3936 : 
; 3937 : 	return iRtnValue;

	mov	eax, edi
	pop	edi
	pop	esi

; 3938 : }

	pop	ecx
	ret	0
?GetTotalThemingBonuses@CvPlayerCulture@@QBEHXZ ENDP	; CvPlayerCulture::GetTotalThemingBonuses
_TEXT	ENDS
PUBLIC	??0CvCityCulture@@QAE@XZ			; CvCityCulture::CvCityCulture
; Function compile flags: /Ogtpy
;	COMDAT ??0CvCityCulture@@QAE@XZ
_TEXT	SEGMENT
??0CvCityCulture@@QAE@XZ PROC				; CvCityCulture::CvCityCulture, COMDAT
; _this$ = ecx

; 4341 : {

	mov	eax, ecx
	mov	DWORD PTR [eax], 0

; 4342 : }

	ret	0
??0CvCityCulture@@QAE@XZ ENDP				; CvCityCulture::CvCityCulture
_TEXT	ENDS
PUBLIC	??1CvCityCulture@@QAE@XZ			; CvCityCulture::~CvCityCulture
; Function compile flags: /Ogtpy
;	COMDAT ??1CvCityCulture@@QAE@XZ
_TEXT	SEGMENT
??1CvCityCulture@@QAE@XZ PROC				; CvCityCulture::~CvCityCulture, COMDAT
; _this$ = ecx

; 4347 : }

	ret	0
??1CvCityCulture@@QAE@XZ ENDP				; CvCityCulture::~CvCityCulture
_TEXT	ENDS
PUBLIC	?Init@CvCityCulture@@QAEXPAVCvCity@@@Z		; CvCityCulture::Init
; Function compile flags: /Ogtpy
;	COMDAT ?Init@CvCityCulture@@QAEXPAVCvCity@@@Z
_TEXT	SEGMENT
_pCity$ = 8						; size = 4
?Init@CvCityCulture@@QAEXPAVCvCity@@@Z PROC		; CvCityCulture::Init, COMDAT
; _this$ = ecx

; 4352 : 	m_pCity = pCity;

	mov	eax, DWORD PTR _pCity$[esp-4]
	mov	DWORD PTR [ecx], eax

; 4353 : }

	ret	4
?Init@CvCityCulture@@QAEXPAVCvCity@@@Z ENDP		; CvCityCulture::Init
_TEXT	ENDS
PUBLIC	?GetNumGreatWorks@CvCityCulture@@QBEHXZ		; CvCityCulture::GetNumGreatWorks
EXTRN	?GetNumGreatWorks@CvCityBuildings@@QBEHXZ:PROC	; CvCityBuildings::GetNumGreatWorks
; Function compile flags: /Ogtpy
;	COMDAT ?GetNumGreatWorks@CvCityCulture@@QBEHXZ
_TEXT	SEGMENT
?GetNumGreatWorks@CvCityCulture@@QBEHXZ PROC		; CvCityCulture::GetNumGreatWorks, COMDAT
; _this$ = ecx

; 4362 : 	return m_pCity->GetCityBuildings()->GetNumGreatWorks();

	mov	ecx, DWORD PTR [ecx]
	call	?GetCityBuildings@CvCity@@QBEPAVCvCityBuildings@@XZ ; CvCity::GetCityBuildings
	mov	ecx, eax
	jmp	?GetNumGreatWorks@CvCityBuildings@@QBEHXZ ; CvCityBuildings::GetNumGreatWorks
?GetNumGreatWorks@CvCityCulture@@QBEHXZ ENDP		; CvCityCulture::GetNumGreatWorks
_TEXT	ENDS
PUBLIC	?GetNumGreatWorkSlots@CvCityCulture@@QBEHXZ	; CvCityCulture::GetNumGreatWorkSlots
EXTRN	?GetNumAvailableGreatWorkSlots@CvCityBuildings@@QBEHXZ:PROC ; CvCityBuildings::GetNumAvailableGreatWorkSlots
; Function compile flags: /Ogtpy
;	COMDAT ?GetNumGreatWorkSlots@CvCityCulture@@QBEHXZ
_TEXT	SEGMENT
?GetNumGreatWorkSlots@CvCityCulture@@QBEHXZ PROC	; CvCityCulture::GetNumGreatWorkSlots, COMDAT
; _this$ = ecx

; 4371 : {

	push	esi
	mov	esi, ecx

; 4372 : 	return (m_pCity->GetCityBuildings()->GetNumAvailableGreatWorkSlots() + GetNumGreatWorks());

	mov	ecx, DWORD PTR [esi]
	push	edi
	call	?GetCityBuildings@CvCity@@QBEPAVCvCityBuildings@@XZ ; CvCity::GetCityBuildings
	mov	ecx, eax
	call	?GetNumGreatWorks@CvCityBuildings@@QBEHXZ ; CvCityBuildings::GetNumGreatWorks
	mov	ecx, DWORD PTR [esi]
	mov	edi, eax
	call	?GetCityBuildings@CvCity@@QBEPAVCvCityBuildings@@XZ ; CvCity::GetCityBuildings
	mov	ecx, eax
	call	?GetNumAvailableGreatWorkSlots@CvCityBuildings@@QBEHXZ ; CvCityBuildings::GetNumAvailableGreatWorkSlots
	add	eax, edi
	pop	edi
	pop	esi

; 4373 : }

	ret	0
?GetNumGreatWorkSlots@CvCityCulture@@QBEHXZ ENDP	; CvCityCulture::GetNumGreatWorkSlots
_TEXT	ENDS
PUBLIC	?GetNumAvailableGreatWorkSlots@CvCityCulture@@QBEHW4GreatWorkSlotType@@@Z ; CvCityCulture::GetNumAvailableGreatWorkSlots
; Function compile flags: /Ogtpy
;	COMDAT ?GetNumAvailableGreatWorkSlots@CvCityCulture@@QBEHW4GreatWorkSlotType@@@Z
_TEXT	SEGMENT
_eSlotType$ = 8						; size = 4
?GetNumAvailableGreatWorkSlots@CvCityCulture@@QBEHW4GreatWorkSlotType@@@Z PROC ; CvCityCulture::GetNumAvailableGreatWorkSlots, COMDAT
; _this$ = ecx

; 4382 : 	return (m_pCity->GetCityBuildings()->GetNumAvailableGreatWorkSlots(eSlotType));

	mov	eax, DWORD PTR _eSlotType$[esp-4]
	mov	ecx, DWORD PTR [ecx]
	push	eax
	call	?GetCityBuildings@CvCity@@QBEPAVCvCityBuildings@@XZ ; CvCity::GetCityBuildings
	mov	ecx, eax
	call	?GetNumAvailableGreatWorkSlots@CvCityBuildings@@QBEHW4GreatWorkSlotType@@@Z ; CvCityBuildings::GetNumAvailableGreatWorkSlots

; 4383 : }

	ret	4
?GetNumAvailableGreatWorkSlots@CvCityCulture@@QBEHW4GreatWorkSlotType@@@Z ENDP ; CvCityCulture::GetNumAvailableGreatWorkSlots
_TEXT	ENDS
PUBLIC	??A?$vector@HV?$allocator@H@std@@@std@@QAEAAHI@Z ; std::vector<int,std::allocator<int> >::operator[]
; Function compile flags: /Ogtpy
; File c:\program files (x86)\microsoft visual studio 9.0\vc\include\vector
;	COMDAT ??A?$vector@HV?$allocator@H@std@@@std@@QAEAAHI@Z
_TEXT	SEGMENT
__Pos$ = 8						; size = 4
??A?$vector@HV?$allocator@H@std@@@std@@QAEAAHI@Z PROC	; std::vector<int,std::allocator<int> >::operator[], COMDAT
; _this$ = ecx

; 775  : 
; 776  :  #if _HAS_ITERATOR_DEBUGGING
; 777  : 		if (size() <= _Pos)
; 778  : 			{
; 779  : 			_DEBUG_ERROR("vector subscript out of range");
; 780  : 			_SCL_SECURE_OUT_OF_RANGE;
; 781  : 			}
; 782  :  #endif /* _HAS_ITERATOR_DEBUGGING */
; 783  : 		_SCL_SECURE_VALIDATE_RANGE(_Pos < size());
; 784  : 
; 785  : 		return (*(_Myfirst + _Pos));

	mov	eax, DWORD PTR [ecx+4]
	mov	ecx, DWORD PTR __Pos$[esp-4]
	lea	eax, DWORD PTR [eax+ecx*4]

; 786  : 		}

	ret	4
??A?$vector@HV?$allocator@H@std@@@std@@QAEAAHI@Z ENDP	; std::vector<int,std::allocator<int> >::operator[]
_TEXT	ENDS
PUBLIC	??A?$BaseVector@VCvGreatWork@@$0A@@@QAEAAVCvGreatWork@@I@Z ; BaseVector<CvGreatWork,0>::operator[]
; Function compile flags: /Ogtpy
; File c:\users\enormousapplepie\documents\github\lekmod\lekmod_dll\fireplace\include\fireworks\ffastvector.h
;	COMDAT ??A?$BaseVector@VCvGreatWork@@$0A@@@QAEAAVCvGreatWork@@I@Z
_TEXT	SEGMENT
_ui$ = 8						; size = 4
??A?$BaseVector@VCvGreatWork@@$0A@@@QAEAAVCvGreatWork@@I@Z PROC ; BaseVector<CvGreatWork,0>::operator[], COMDAT
; _this$ = ecx

; 129  : 		FAssert(ui < m_uiCurrSize);
; 130  : 		return m_pData[ui];

	mov	eax, DWORD PTR _ui$[esp-4]
	lea	eax, DWORD PTR [eax+eax*2]
	shl	eax, 4
	add	eax, DWORD PTR [ecx]

; 131  : 	};

	ret	4
??A?$BaseVector@VCvGreatWork@@$0A@@@QAEAAVCvGreatWork@@I@Z ENDP ; BaseVector<CvGreatWork,0>::operator[]
_TEXT	ENDS
PUBLIC	??A?$BaseVector@VCvGreatWork@@$0A@@@QBEABVCvGreatWork@@I@Z ; BaseVector<CvGreatWork,0>::operator[]
; Function compile flags: /Ogtpy
;	COMDAT ??A?$BaseVector@VCvGreatWork@@$0A@@@QBEABVCvGreatWork@@I@Z
_TEXT	SEGMENT
_ui$ = 8						; size = 4
??A?$BaseVector@VCvGreatWork@@$0A@@@QBEABVCvGreatWork@@I@Z PROC ; BaseVector<CvGreatWork,0>::operator[], COMDAT
; _this$ = ecx

; 135  : 		FAssert(ui < m_uiCurrSize);
; 136  : 		return m_pData[ui];

	mov	eax, DWORD PTR _ui$[esp-4]
	lea	eax, DWORD PTR [eax+eax*2]
	shl	eax, 4
	add	eax, DWORD PTR [ecx]

; 137  : 	};

	ret	4
??A?$BaseVector@VCvGreatWork@@$0A@@@QBEABVCvGreatWork@@I@Z ENDP ; BaseVector<CvGreatWork,0>::operator[]
_TEXT	ENDS
PUBLIC	?begin@?$BaseVector@VCvGreatWork@@$0A@@@QBEPBVCvGreatWork@@XZ ; BaseVector<CvGreatWork,0>::begin
; Function compile flags: /Ogtpy
;	COMDAT ?begin@?$BaseVector@VCvGreatWork@@$0A@@@QBEPBVCvGreatWork@@XZ
_TEXT	SEGMENT
?begin@?$BaseVector@VCvGreatWork@@$0A@@@QBEPBVCvGreatWork@@XZ PROC ; BaseVector<CvGreatWork,0>::begin, COMDAT
; _this$ = ecx

; 201  :         return m_pData; 

	mov	eax, DWORD PTR [ecx]

; 202  :     };

	ret	0
?begin@?$BaseVector@VCvGreatWork@@$0A@@@QBEPBVCvGreatWork@@XZ ENDP ; BaseVector<CvGreatWork,0>::begin
_TEXT	ENDS
PUBLIC	?end@?$BaseVector@VCvGreatWork@@$0A@@@QBEPBVCvGreatWork@@XZ ; BaseVector<CvGreatWork,0>::end
; Function compile flags: /Ogtpy
;	COMDAT ?end@?$BaseVector@VCvGreatWork@@$0A@@@QBEPBVCvGreatWork@@XZ
_TEXT	SEGMENT
?end@?$BaseVector@VCvGreatWork@@$0A@@@QBEPBVCvGreatWork@@XZ PROC ; BaseVector<CvGreatWork,0>::end, COMDAT
; _this$ = ecx

; 204  :         return m_pData+m_uiCurrSize; 

	mov	eax, DWORD PTR [ecx+4]
	lea	eax, DWORD PTR [eax+eax*2]
	shl	eax, 4
	add	eax, DWORD PTR [ecx]

; 205  :     };

	ret	0
?end@?$BaseVector@VCvGreatWork@@$0A@@@QBEPBVCvGreatWork@@XZ ENDP ; BaseVector<CvGreatWork,0>::end
_TEXT	ENDS
PUBLIC	?size@?$vector@PAVCvPlot@@V?$allocator@PAVCvPlot@@@std@@@std@@QBEIXZ ; std::vector<CvPlot *,std::allocator<CvPlot *> >::size
; Function compile flags: /Ogtpy
; File c:\program files (x86)\microsoft visual studio 9.0\vc\include\vector
;	COMDAT ?size@?$vector@PAVCvPlot@@V?$allocator@PAVCvPlot@@@std@@@std@@QBEIXZ
_TEXT	SEGMENT
?size@?$vector@PAVCvPlot@@V?$allocator@PAVCvPlot@@@std@@@std@@QBEIXZ PROC ; std::vector<CvPlot *,std::allocator<CvPlot *> >::size, COMDAT
; _this$ = ecx

; 726  : 		return (_Mylast - _Myfirst);

	mov	eax, DWORD PTR [ecx+8]
	sub	eax, DWORD PTR [ecx+4]
	sar	eax, 2

; 727  : 		}

	ret	0
?size@?$vector@PAVCvPlot@@V?$allocator@PAVCvPlot@@@std@@@std@@QBEIXZ ENDP ; std::vector<CvPlot *,std::allocator<CvPlot *> >::size
_TEXT	ENDS
PUBLIC	??A?$vector@PAVCvPlot@@V?$allocator@PAVCvPlot@@@std@@@std@@QBEABQAVCvPlot@@I@Z ; std::vector<CvPlot *,std::allocator<CvPlot *> >::operator[]
; Function compile flags: /Ogtpy
;	COMDAT ??A?$vector@PAVCvPlot@@V?$allocator@PAVCvPlot@@@std@@@std@@QBEABQAVCvPlot@@I@Z
_TEXT	SEGMENT
__Pos$ = 8						; size = 4
??A?$vector@PAVCvPlot@@V?$allocator@PAVCvPlot@@@std@@@std@@QBEABQAVCvPlot@@I@Z PROC ; std::vector<CvPlot *,std::allocator<CvPlot *> >::operator[], COMDAT
; _this$ = ecx

; 760  : 
; 761  :  #if _HAS_ITERATOR_DEBUGGING
; 762  : 		if (size() <= _Pos)
; 763  : 			{
; 764  : 			_DEBUG_ERROR("vector subscript out of range");
; 765  : 			_SCL_SECURE_OUT_OF_RANGE;
; 766  : 			}
; 767  :  #endif /* _HAS_ITERATOR_DEBUGGING */
; 768  : 		_SCL_SECURE_VALIDATE_RANGE(_Pos < size());
; 769  : 
; 770  : 		return (*(_Myfirst + _Pos));

	mov	eax, DWORD PTR [ecx+4]
	mov	ecx, DWORD PTR __Pos$[esp-4]
	lea	eax, DWORD PTR [eax+ecx*4]

; 771  : 		}

	ret	4
??A?$vector@PAVCvPlot@@V?$allocator@PAVCvPlot@@@std@@@std@@QBEABQAVCvPlot@@I@Z ENDP ; std::vector<CvPlot *,std::allocator<CvPlot *> >::operator[]
_TEXT	ENDS
PUBLIC	?size@?$vector@W4PlayerTypes@@V?$allocator@W4PlayerTypes@@@std@@@std@@QBEIXZ ; std::vector<enum PlayerTypes,std::allocator<enum PlayerTypes> >::size
; Function compile flags: /Ogtpy
;	COMDAT ?size@?$vector@W4PlayerTypes@@V?$allocator@W4PlayerTypes@@@std@@@std@@QBEIXZ
_TEXT	SEGMENT
?size@?$vector@W4PlayerTypes@@V?$allocator@W4PlayerTypes@@@std@@@std@@QBEIXZ PROC ; std::vector<enum PlayerTypes,std::allocator<enum PlayerTypes> >::size, COMDAT
; _this$ = ecx

; 726  : 		return (_Mylast - _Myfirst);

	mov	eax, DWORD PTR [ecx+8]
	sub	eax, DWORD PTR [ecx+4]
	sar	eax, 2

; 727  : 		}

	ret	0
?size@?$vector@W4PlayerTypes@@V?$allocator@W4PlayerTypes@@@std@@@std@@QBEIXZ ENDP ; std::vector<enum PlayerTypes,std::allocator<enum PlayerTypes> >::size
_TEXT	ENDS
PUBLIC	??A?$vector@W4PlayerTypes@@V?$allocator@W4PlayerTypes@@@std@@@std@@QAEAAW4PlayerTypes@@I@Z ; std::vector<enum PlayerTypes,std::allocator<enum PlayerTypes> >::operator[]
; Function compile flags: /Ogtpy
;	COMDAT ??A?$vector@W4PlayerTypes@@V?$allocator@W4PlayerTypes@@@std@@@std@@QAEAAW4PlayerTypes@@I@Z
_TEXT	SEGMENT
__Pos$ = 8						; size = 4
??A?$vector@W4PlayerTypes@@V?$allocator@W4PlayerTypes@@@std@@@std@@QAEAAW4PlayerTypes@@I@Z PROC ; std::vector<enum PlayerTypes,std::allocator<enum PlayerTypes> >::operator[], COMDAT
; _this$ = ecx

; 775  : 
; 776  :  #if _HAS_ITERATOR_DEBUGGING
; 777  : 		if (size() <= _Pos)
; 778  : 			{
; 779  : 			_DEBUG_ERROR("vector subscript out of range");
; 780  : 			_SCL_SECURE_OUT_OF_RANGE;
; 781  : 			}
; 782  :  #endif /* _HAS_ITERATOR_DEBUGGING */
; 783  : 		_SCL_SECURE_VALIDATE_RANGE(_Pos < size());
; 784  : 
; 785  : 		return (*(_Myfirst + _Pos));

	mov	eax, DWORD PTR [ecx+4]
	mov	ecx, DWORD PTR __Pos$[esp-4]
	lea	eax, DWORD PTR [eax+ecx*4]

; 786  : 		}

	ret	4
??A?$vector@W4PlayerTypes@@V?$allocator@W4PlayerTypes@@@std@@@std@@QAEAAW4PlayerTypes@@I@Z ENDP ; std::vector<enum PlayerTypes,std::allocator<enum PlayerTypes> >::operator[]
_TEXT	ENDS
PUBLIC	?size@?$vector@VCvGreatWorkInMyEmpire@@V?$allocator@VCvGreatWorkInMyEmpire@@@std@@@std@@QBEIXZ ; std::vector<CvGreatWorkInMyEmpire,std::allocator<CvGreatWorkInMyEmpire> >::size
; Function compile flags: /Ogtpy
;	COMDAT ?size@?$vector@VCvGreatWorkInMyEmpire@@V?$allocator@VCvGreatWorkInMyEmpire@@@std@@@std@@QBEIXZ
_TEXT	SEGMENT
?size@?$vector@VCvGreatWorkInMyEmpire@@V?$allocator@VCvGreatWorkInMyEmpire@@@std@@@std@@QBEIXZ PROC ; std::vector<CvGreatWorkInMyEmpire,std::allocator<CvGreatWorkInMyEmpire> >::size, COMDAT
; _this$ = ecx

; 726  : 		return (_Mylast - _Myfirst);

	mov	edx, DWORD PTR [ecx+8]
	sub	edx, DWORD PTR [ecx+4]
	mov	eax, 715827883				; 2aaaaaabH
	imul	edx
	sar	edx, 2
	mov	eax, edx
	shr	eax, 31					; 0000001fH
	add	eax, edx

; 727  : 		}

	ret	0
?size@?$vector@VCvGreatWorkInMyEmpire@@V?$allocator@VCvGreatWorkInMyEmpire@@@std@@@std@@QBEIXZ ENDP ; std::vector<CvGreatWorkInMyEmpire,std::allocator<CvGreatWorkInMyEmpire> >::size
_TEXT	ENDS
PUBLIC	??A?$vector@VCvGreatWorkInMyEmpire@@V?$allocator@VCvGreatWorkInMyEmpire@@@std@@@std@@QAEAAVCvGreatWorkInMyEmpire@@I@Z ; std::vector<CvGreatWorkInMyEmpire,std::allocator<CvGreatWorkInMyEmpire> >::operator[]
; Function compile flags: /Ogtpy
;	COMDAT ??A?$vector@VCvGreatWorkInMyEmpire@@V?$allocator@VCvGreatWorkInMyEmpire@@@std@@@std@@QAEAAVCvGreatWorkInMyEmpire@@I@Z
_TEXT	SEGMENT
__Pos$ = 8						; size = 4
??A?$vector@VCvGreatWorkInMyEmpire@@V?$allocator@VCvGreatWorkInMyEmpire@@@std@@@std@@QAEAAVCvGreatWorkInMyEmpire@@I@Z PROC ; std::vector<CvGreatWorkInMyEmpire,std::allocator<CvGreatWorkInMyEmpire> >::operator[], COMDAT
; _this$ = ecx

; 775  : 
; 776  :  #if _HAS_ITERATOR_DEBUGGING
; 777  : 		if (size() <= _Pos)
; 778  : 			{
; 779  : 			_DEBUG_ERROR("vector subscript out of range");
; 780  : 			_SCL_SECURE_OUT_OF_RANGE;
; 781  : 			}
; 782  :  #endif /* _HAS_ITERATOR_DEBUGGING */
; 783  : 		_SCL_SECURE_VALIDATE_RANGE(_Pos < size());
; 784  : 
; 785  : 		return (*(_Myfirst + _Pos));

	mov	eax, DWORD PTR __Pos$[esp-4]
	mov	ecx, DWORD PTR [ecx+4]
	lea	eax, DWORD PTR [eax+eax*2]
	lea	eax, DWORD PTR [ecx+eax*8]

; 786  : 		}

	ret	4
??A?$vector@VCvGreatWorkInMyEmpire@@V?$allocator@VCvGreatWorkInMyEmpire@@@std@@@std@@QAEAAVCvGreatWorkInMyEmpire@@I@Z ENDP ; std::vector<CvGreatWorkInMyEmpire,std::allocator<CvGreatWorkInMyEmpire> >::operator[]
_TEXT	ENDS
PUBLIC	??D?$_Vector_const_iterator@VCvGreatWorkBuildingInMyEmpire@@V?$allocator@VCvGreatWorkBuildingInMyEmpire@@@std@@@std@@QBEABVCvGreatWorkBuildingInMyEmpire@@XZ ; std::_Vector_const_iterator<CvGreatWorkBuildingInMyEmpire,std::allocator<CvGreatWorkBuildingInMyEmpire> >::operator*
; Function compile flags: /Ogtpy
;	COMDAT ??D?$_Vector_const_iterator@VCvGreatWorkBuildingInMyEmpire@@V?$allocator@VCvGreatWorkBuildingInMyEmpire@@@std@@@std@@QBEABVCvGreatWorkBuildingInMyEmpire@@XZ
_TEXT	SEGMENT
??D?$_Vector_const_iterator@VCvGreatWorkBuildingInMyEmpire@@V?$allocator@VCvGreatWorkBuildingInMyEmpire@@@std@@@std@@QBEABVCvGreatWorkBuildingInMyEmpire@@XZ PROC ; std::_Vector_const_iterator<CvGreatWorkBuildingInMyEmpire,std::allocator<CvGreatWorkBuildingInMyEmpire> >::operator*, COMDAT
; _this$ = ecx

; 92   : 
; 93   :  #if _HAS_ITERATOR_DEBUGGING
; 94   : 		if (this->_Mycont == 0
; 95   : 			|| _Myptr < ((_Myvec *)this->_Mycont)->_Myfirst
; 96   : 			|| ((_Myvec *)this->_Mycont)->_Mylast <= _Myptr)
; 97   : 			{
; 98   : 			_DEBUG_ERROR("vector iterator not dereferencable");
; 99   : 			_SCL_SECURE_OUT_OF_RANGE;
; 100  : 			}
; 101  :  #else
; 102  :  		_SCL_SECURE_VALIDATE(this->_Has_container());
; 103  : 		_SCL_SECURE_VALIDATE_RANGE(_Myptr < ((_Myvec *)(this->_Getmycont()))->_Mylast);
; 104  :  #endif /* _HAS_ITERATOR_DEBUGGING */
; 105  : 
; 106  : 		return (*_Myptr);

	mov	eax, DWORD PTR [ecx]

; 107  : 		}

	ret	0
??D?$_Vector_const_iterator@VCvGreatWorkBuildingInMyEmpire@@V?$allocator@VCvGreatWorkBuildingInMyEmpire@@@std@@@std@@QBEABVCvGreatWorkBuildingInMyEmpire@@XZ ENDP ; std::_Vector_const_iterator<CvGreatWorkBuildingInMyEmpire,std::allocator<CvGreatWorkBuildingInMyEmpire> >::operator*
_TEXT	ENDS
PUBLIC	??C?$_Vector_const_iterator@VCvGreatWorkBuildingInMyEmpire@@V?$allocator@VCvGreatWorkBuildingInMyEmpire@@@std@@@std@@QBEPBVCvGreatWorkBuildingInMyEmpire@@XZ ; std::_Vector_const_iterator<CvGreatWorkBuildingInMyEmpire,std::allocator<CvGreatWorkBuildingInMyEmpire> >::operator->
; Function compile flags: /Ogtpy
;	COMDAT ??C?$_Vector_const_iterator@VCvGreatWorkBuildingInMyEmpire@@V?$allocator@VCvGreatWorkBuildingInMyEmpire@@@std@@@std@@QBEPBVCvGreatWorkBuildingInMyEmpire@@XZ
_TEXT	SEGMENT
??C?$_Vector_const_iterator@VCvGreatWorkBuildingInMyEmpire@@V?$allocator@VCvGreatWorkBuildingInMyEmpire@@@std@@@std@@QBEPBVCvGreatWorkBuildingInMyEmpire@@XZ PROC ; std::_Vector_const_iterator<CvGreatWorkBuildingInMyEmpire,std::allocator<CvGreatWorkBuildingInMyEmpire> >::operator->, COMDAT
; _this$ = ecx

; 111  : 		return (&**this);

	mov	eax, DWORD PTR [ecx]

; 112  : 		}

	ret	0
??C?$_Vector_const_iterator@VCvGreatWorkBuildingInMyEmpire@@V?$allocator@VCvGreatWorkBuildingInMyEmpire@@@std@@@std@@QBEPBVCvGreatWorkBuildingInMyEmpire@@XZ ENDP ; std::_Vector_const_iterator<CvGreatWorkBuildingInMyEmpire,std::allocator<CvGreatWorkBuildingInMyEmpire> >::operator->
_TEXT	ENDS
PUBLIC	??0?$_Vector_const_iterator@VCvGreatWorkInMyEmpire@@V?$allocator@VCvGreatWorkInMyEmpire@@@std@@@std@@QAE@XZ ; std::_Vector_const_iterator<CvGreatWorkInMyEmpire,std::allocator<CvGreatWorkInMyEmpire> >::_Vector_const_iterator<CvGreatWorkInMyEmpire,std::allocator<CvGreatWorkInMyEmpire> >
; Function compile flags: /Ogtpy
;	COMDAT ??0?$_Vector_const_iterator@VCvGreatWorkInMyEmpire@@V?$allocator@VCvGreatWorkInMyEmpire@@@std@@@std@@QAE@XZ
_TEXT	SEGMENT
??0?$_Vector_const_iterator@VCvGreatWorkInMyEmpire@@V?$allocator@VCvGreatWorkInMyEmpire@@@std@@@std@@QAE@XZ PROC ; std::_Vector_const_iterator<CvGreatWorkInMyEmpire,std::allocator<CvGreatWorkInMyEmpire> >::_Vector_const_iterator<CvGreatWorkInMyEmpire,std::allocator<CvGreatWorkInMyEmpire> >, COMDAT
; _this$ = ecx

; 62   : 	_Vector_const_iterator()

	mov	eax, ecx

; 63   : 		{	// construct with null pointer
; 64   : 		_Myptr = 0;

	mov	DWORD PTR [eax], 0

; 65   : 		}

	ret	0
??0?$_Vector_const_iterator@VCvGreatWorkInMyEmpire@@V?$allocator@VCvGreatWorkInMyEmpire@@@std@@@std@@QAE@XZ ENDP ; std::_Vector_const_iterator<CvGreatWorkInMyEmpire,std::allocator<CvGreatWorkInMyEmpire> >::_Vector_const_iterator<CvGreatWorkInMyEmpire,std::allocator<CvGreatWorkInMyEmpire> >
_TEXT	ENDS
PUBLIC	??D?$_Vector_const_iterator@VCvGreatWorkInMyEmpire@@V?$allocator@VCvGreatWorkInMyEmpire@@@std@@@std@@QBEABVCvGreatWorkInMyEmpire@@XZ ; std::_Vector_const_iterator<CvGreatWorkInMyEmpire,std::allocator<CvGreatWorkInMyEmpire> >::operator*
; Function compile flags: /Ogtpy
;	COMDAT ??D?$_Vector_const_iterator@VCvGreatWorkInMyEmpire@@V?$allocator@VCvGreatWorkInMyEmpire@@@std@@@std@@QBEABVCvGreatWorkInMyEmpire@@XZ
_TEXT	SEGMENT
??D?$_Vector_const_iterator@VCvGreatWorkInMyEmpire@@V?$allocator@VCvGreatWorkInMyEmpire@@@std@@@std@@QBEABVCvGreatWorkInMyEmpire@@XZ PROC ; std::_Vector_const_iterator<CvGreatWorkInMyEmpire,std::allocator<CvGreatWorkInMyEmpire> >::operator*, COMDAT
; _this$ = ecx

; 92   : 
; 93   :  #if _HAS_ITERATOR_DEBUGGING
; 94   : 		if (this->_Mycont == 0
; 95   : 			|| _Myptr < ((_Myvec *)this->_Mycont)->_Myfirst
; 96   : 			|| ((_Myvec *)this->_Mycont)->_Mylast <= _Myptr)
; 97   : 			{
; 98   : 			_DEBUG_ERROR("vector iterator not dereferencable");
; 99   : 			_SCL_SECURE_OUT_OF_RANGE;
; 100  : 			}
; 101  :  #else
; 102  :  		_SCL_SECURE_VALIDATE(this->_Has_container());
; 103  : 		_SCL_SECURE_VALIDATE_RANGE(_Myptr < ((_Myvec *)(this->_Getmycont()))->_Mylast);
; 104  :  #endif /* _HAS_ITERATOR_DEBUGGING */
; 105  : 
; 106  : 		return (*_Myptr);

	mov	eax, DWORD PTR [ecx]

; 107  : 		}

	ret	0
??D?$_Vector_const_iterator@VCvGreatWorkInMyEmpire@@V?$allocator@VCvGreatWorkInMyEmpire@@@std@@@std@@QBEABVCvGreatWorkInMyEmpire@@XZ ENDP ; std::_Vector_const_iterator<CvGreatWorkInMyEmpire,std::allocator<CvGreatWorkInMyEmpire> >::operator*
_TEXT	ENDS
PUBLIC	??C?$_Vector_const_iterator@VCvGreatWorkInMyEmpire@@V?$allocator@VCvGreatWorkInMyEmpire@@@std@@@std@@QBEPBVCvGreatWorkInMyEmpire@@XZ ; std::_Vector_const_iterator<CvGreatWorkInMyEmpire,std::allocator<CvGreatWorkInMyEmpire> >::operator->
; Function compile flags: /Ogtpy
;	COMDAT ??C?$_Vector_const_iterator@VCvGreatWorkInMyEmpire@@V?$allocator@VCvGreatWorkInMyEmpire@@@std@@@std@@QBEPBVCvGreatWorkInMyEmpire@@XZ
_TEXT	SEGMENT
??C?$_Vector_const_iterator@VCvGreatWorkInMyEmpire@@V?$allocator@VCvGreatWorkInMyEmpire@@@std@@@std@@QBEPBVCvGreatWorkInMyEmpire@@XZ PROC ; std::_Vector_const_iterator<CvGreatWorkInMyEmpire,std::allocator<CvGreatWorkInMyEmpire> >::operator->, COMDAT
; _this$ = ecx

; 111  : 		return (&**this);

	mov	eax, DWORD PTR [ecx]

; 112  : 		}

	ret	0
??C?$_Vector_const_iterator@VCvGreatWorkInMyEmpire@@V?$allocator@VCvGreatWorkInMyEmpire@@@std@@@std@@QBEPBVCvGreatWorkInMyEmpire@@XZ ENDP ; std::_Vector_const_iterator<CvGreatWorkInMyEmpire,std::allocator<CvGreatWorkInMyEmpire> >::operator->
_TEXT	ENDS
PUBLIC	??0?$_Vector_iterator@VCvGreatWorkInMyEmpire@@V?$allocator@VCvGreatWorkInMyEmpire@@@std@@@std@@QAE@XZ ; std::_Vector_iterator<CvGreatWorkInMyEmpire,std::allocator<CvGreatWorkInMyEmpire> >::_Vector_iterator<CvGreatWorkInMyEmpire,std::allocator<CvGreatWorkInMyEmpire> >
; Function compile flags: /Ogtpy
;	COMDAT ??0?$_Vector_iterator@VCvGreatWorkInMyEmpire@@V?$allocator@VCvGreatWorkInMyEmpire@@@std@@@std@@QAE@XZ
_TEXT	SEGMENT
??0?$_Vector_iterator@VCvGreatWorkInMyEmpire@@V?$allocator@VCvGreatWorkInMyEmpire@@@std@@@std@@QAE@XZ PROC ; std::_Vector_iterator<CvGreatWorkInMyEmpire,std::allocator<CvGreatWorkInMyEmpire> >::_Vector_iterator<CvGreatWorkInMyEmpire,std::allocator<CvGreatWorkInMyEmpire> >, COMDAT
; _this$ = ecx

; 314  : 	_Vector_iterator()

	mov	eax, ecx
	mov	DWORD PTR [eax], 0

; 315  : 		{	// construct with null vector pointer
; 316  : 		}

	ret	0
??0?$_Vector_iterator@VCvGreatWorkInMyEmpire@@V?$allocator@VCvGreatWorkInMyEmpire@@@std@@@std@@QAE@XZ ENDP ; std::_Vector_iterator<CvGreatWorkInMyEmpire,std::allocator<CvGreatWorkInMyEmpire> >::_Vector_iterator<CvGreatWorkInMyEmpire,std::allocator<CvGreatWorkInMyEmpire> >
_TEXT	ENDS
PUBLIC	??D?$_Vector_iterator@VCvGreatWorkInMyEmpire@@V?$allocator@VCvGreatWorkInMyEmpire@@@std@@@std@@QBEAAVCvGreatWorkInMyEmpire@@XZ ; std::_Vector_iterator<CvGreatWorkInMyEmpire,std::allocator<CvGreatWorkInMyEmpire> >::operator*
; Function compile flags: /Ogtpy
;	COMDAT ??D?$_Vector_iterator@VCvGreatWorkInMyEmpire@@V?$allocator@VCvGreatWorkInMyEmpire@@@std@@@std@@QBEAAVCvGreatWorkInMyEmpire@@XZ
_TEXT	SEGMENT
??D?$_Vector_iterator@VCvGreatWorkInMyEmpire@@V?$allocator@VCvGreatWorkInMyEmpire@@@std@@@std@@QBEAAVCvGreatWorkInMyEmpire@@XZ PROC ; std::_Vector_iterator<CvGreatWorkInMyEmpire,std::allocator<CvGreatWorkInMyEmpire> >::operator*, COMDAT
; _this$ = ecx

; 339  : 		return ((reference)**(_Mybase *)this);

	mov	eax, DWORD PTR [ecx]

; 340  : 		}

	ret	0
??D?$_Vector_iterator@VCvGreatWorkInMyEmpire@@V?$allocator@VCvGreatWorkInMyEmpire@@@std@@@std@@QBEAAVCvGreatWorkInMyEmpire@@XZ ENDP ; std::_Vector_iterator<CvGreatWorkInMyEmpire,std::allocator<CvGreatWorkInMyEmpire> >::operator*
_TEXT	ENDS
PUBLIC	??C?$_Vector_iterator@VCvGreatWorkInMyEmpire@@V?$allocator@VCvGreatWorkInMyEmpire@@@std@@@std@@QBEPAVCvGreatWorkInMyEmpire@@XZ ; std::_Vector_iterator<CvGreatWorkInMyEmpire,std::allocator<CvGreatWorkInMyEmpire> >::operator->
; Function compile flags: /Ogtpy
;	COMDAT ??C?$_Vector_iterator@VCvGreatWorkInMyEmpire@@V?$allocator@VCvGreatWorkInMyEmpire@@@std@@@std@@QBEPAVCvGreatWorkInMyEmpire@@XZ
_TEXT	SEGMENT
??C?$_Vector_iterator@VCvGreatWorkInMyEmpire@@V?$allocator@VCvGreatWorkInMyEmpire@@@std@@@std@@QBEPAVCvGreatWorkInMyEmpire@@XZ PROC ; std::_Vector_iterator<CvGreatWorkInMyEmpire,std::allocator<CvGreatWorkInMyEmpire> >::operator->, COMDAT
; _this$ = ecx

; 344  : 		return (&**this);

	mov	eax, DWORD PTR [ecx]

; 345  : 		}

	ret	0
??C?$_Vector_iterator@VCvGreatWorkInMyEmpire@@V?$allocator@VCvGreatWorkInMyEmpire@@@std@@@std@@QBEPAVCvGreatWorkInMyEmpire@@XZ ENDP ; std::_Vector_iterator<CvGreatWorkInMyEmpire,std::allocator<CvGreatWorkInMyEmpire> >::operator->
_TEXT	ENDS
PUBLIC	?size@?$vector@W4EraTypes@@V?$allocator@W4EraTypes@@@std@@@std@@QBEIXZ ; std::vector<enum EraTypes,std::allocator<enum EraTypes> >::size
; Function compile flags: /Ogtpy
;	COMDAT ?size@?$vector@W4EraTypes@@V?$allocator@W4EraTypes@@@std@@@std@@QBEIXZ
_TEXT	SEGMENT
?size@?$vector@W4EraTypes@@V?$allocator@W4EraTypes@@@std@@@std@@QBEIXZ PROC ; std::vector<enum EraTypes,std::allocator<enum EraTypes> >::size, COMDAT
; _this$ = ecx

; 726  : 		return (_Mylast - _Myfirst);

	mov	eax, DWORD PTR [ecx+8]
	sub	eax, DWORD PTR [ecx+4]
	sar	eax, 2

; 727  : 		}

	ret	0
?size@?$vector@W4EraTypes@@V?$allocator@W4EraTypes@@@std@@@std@@QBEIXZ ENDP ; std::vector<enum EraTypes,std::allocator<enum EraTypes> >::size
_TEXT	ENDS
PUBLIC	??A?$vector@W4EraTypes@@V?$allocator@W4EraTypes@@@std@@@std@@QAEAAW4EraTypes@@I@Z ; std::vector<enum EraTypes,std::allocator<enum EraTypes> >::operator[]
; Function compile flags: /Ogtpy
;	COMDAT ??A?$vector@W4EraTypes@@V?$allocator@W4EraTypes@@@std@@@std@@QAEAAW4EraTypes@@I@Z
_TEXT	SEGMENT
__Pos$ = 8						; size = 4
??A?$vector@W4EraTypes@@V?$allocator@W4EraTypes@@@std@@@std@@QAEAAW4EraTypes@@I@Z PROC ; std::vector<enum EraTypes,std::allocator<enum EraTypes> >::operator[], COMDAT
; _this$ = ecx

; 775  : 
; 776  :  #if _HAS_ITERATOR_DEBUGGING
; 777  : 		if (size() <= _Pos)
; 778  : 			{
; 779  : 			_DEBUG_ERROR("vector subscript out of range");
; 780  : 			_SCL_SECURE_OUT_OF_RANGE;
; 781  : 			}
; 782  :  #endif /* _HAS_ITERATOR_DEBUGGING */
; 783  : 		_SCL_SECURE_VALIDATE_RANGE(_Pos < size());
; 784  : 
; 785  : 		return (*(_Myfirst + _Pos));

	mov	eax, DWORD PTR [ecx+4]
	mov	ecx, DWORD PTR __Pos$[esp-4]
	lea	eax, DWORD PTR [eax+ecx*4]

; 786  : 		}

	ret	4
??A?$vector@W4EraTypes@@V?$allocator@W4EraTypes@@@std@@@std@@QAEAAW4EraTypes@@I@Z ENDP ; std::vector<enum EraTypes,std::allocator<enum EraTypes> >::operator[]
_TEXT	ENDS
PUBLIC	??0?$_Vector_const_iterator@PAVCvPlot@@V?$allocator@PAVCvPlot@@@std@@@std@@QAE@XZ ; std::_Vector_const_iterator<CvPlot *,std::allocator<CvPlot *> >::_Vector_const_iterator<CvPlot *,std::allocator<CvPlot *> >
; Function compile flags: /Ogtpy
;	COMDAT ??0?$_Vector_const_iterator@PAVCvPlot@@V?$allocator@PAVCvPlot@@@std@@@std@@QAE@XZ
_TEXT	SEGMENT
??0?$_Vector_const_iterator@PAVCvPlot@@V?$allocator@PAVCvPlot@@@std@@@std@@QAE@XZ PROC ; std::_Vector_const_iterator<CvPlot *,std::allocator<CvPlot *> >::_Vector_const_iterator<CvPlot *,std::allocator<CvPlot *> >, COMDAT
; _this$ = ecx

; 62   : 	_Vector_const_iterator()

	mov	eax, ecx

; 63   : 		{	// construct with null pointer
; 64   : 		_Myptr = 0;

	mov	DWORD PTR [eax], 0

; 65   : 		}

	ret	0
??0?$_Vector_const_iterator@PAVCvPlot@@V?$allocator@PAVCvPlot@@@std@@@std@@QAE@XZ ENDP ; std::_Vector_const_iterator<CvPlot *,std::allocator<CvPlot *> >::_Vector_const_iterator<CvPlot *,std::allocator<CvPlot *> >
_TEXT	ENDS
PUBLIC	??D?$_Vector_const_iterator@PAVCvPlot@@V?$allocator@PAVCvPlot@@@std@@@std@@QBEABQAVCvPlot@@XZ ; std::_Vector_const_iterator<CvPlot *,std::allocator<CvPlot *> >::operator*
; Function compile flags: /Ogtpy
;	COMDAT ??D?$_Vector_const_iterator@PAVCvPlot@@V?$allocator@PAVCvPlot@@@std@@@std@@QBEABQAVCvPlot@@XZ
_TEXT	SEGMENT
??D?$_Vector_const_iterator@PAVCvPlot@@V?$allocator@PAVCvPlot@@@std@@@std@@QBEABQAVCvPlot@@XZ PROC ; std::_Vector_const_iterator<CvPlot *,std::allocator<CvPlot *> >::operator*, COMDAT
; _this$ = ecx

; 92   : 
; 93   :  #if _HAS_ITERATOR_DEBUGGING
; 94   : 		if (this->_Mycont == 0
; 95   : 			|| _Myptr < ((_Myvec *)this->_Mycont)->_Myfirst
; 96   : 			|| ((_Myvec *)this->_Mycont)->_Mylast <= _Myptr)
; 97   : 			{
; 98   : 			_DEBUG_ERROR("vector iterator not dereferencable");
; 99   : 			_SCL_SECURE_OUT_OF_RANGE;
; 100  : 			}
; 101  :  #else
; 102  :  		_SCL_SECURE_VALIDATE(this->_Has_container());
; 103  : 		_SCL_SECURE_VALIDATE_RANGE(_Myptr < ((_Myvec *)(this->_Getmycont()))->_Mylast);
; 104  :  #endif /* _HAS_ITERATOR_DEBUGGING */
; 105  : 
; 106  : 		return (*_Myptr);

	mov	eax, DWORD PTR [ecx]

; 107  : 		}

	ret	0
??D?$_Vector_const_iterator@PAVCvPlot@@V?$allocator@PAVCvPlot@@@std@@@std@@QBEABQAVCvPlot@@XZ ENDP ; std::_Vector_const_iterator<CvPlot *,std::allocator<CvPlot *> >::operator*
_TEXT	ENDS
PUBLIC	??_C@_0GH@ECFAPJEJ@c?3?2users?2enormousapplepie?2docume@ ; `string'
PUBLIC	?Alloc@?$FStaticVector@VCvGreatWork@@$0BG@$0A@$0BCJ@$0A@@@IAEPAVCvGreatWork@@I@Z ; FStaticVector<CvGreatWork,22,0,297,0>::Alloc
EXTRN	?FireMallocAlignedNoTracking@@YAPAXIIPBDH@Z:PROC ; FireMallocAlignedNoTracking
;	COMDAT ??_C@_0GH@ECFAPJEJ@c?3?2users?2enormousapplepie?2docume@
; File c:\users\enormousapplepie\documents\github\lekmod\lekmod_dll\fireplace\include\fireworks\ffastvector.h
CONST	SEGMENT
??_C@_0GH@ECFAPJEJ@c?3?2users?2enormousapplepie?2docume@ DB 'c:\users\eno'
	DB	'rmousapplepie\documents\github\lekmod\lekmod_dll\fireplace\in'
	DB	'clude\fireworks\FFastVector.h', 00H		; `string'
; Function compile flags: /Ogtpy
CONST	ENDS
;	COMDAT ?Alloc@?$FStaticVector@VCvGreatWork@@$0BG@$0A@$0BCJ@$0A@@@IAEPAVCvGreatWork@@I@Z
_TEXT	SEGMENT
_uiSize$ = 8						; size = 4
?Alloc@?$FStaticVector@VCvGreatWork@@$0BG@$0A@$0BCJ@$0A@@@IAEPAVCvGreatWork@@I@Z PROC ; FStaticVector<CvGreatWork,22,0,297,0>::Alloc, COMDAT
; _this$ = ecx

; 795  : 	T* Alloc(unsigned int uiSize){

	push	esi
	push	edi

; 796  : 		T* pRet;
; 797  : 		if( uiSize > L ){

	mov	edi, DWORD PTR _uiSize$[esp+4]
	mov	esi, ecx
	cmp	edi, 22					; 00000016H
	jbe	SHORT $LN2@Alloc

; 798  : 			pRet = (T*)FMALLOCALIGNED( uiSize*sizeof(T), __alignof(T), AllocPool, nSubID );

	push	798					; 0000031eH
	push	OFFSET ??_C@_0GH@ECFAPJEJ@c?3?2users?2enormousapplepie?2docume@
	lea	eax, DWORD PTR [edi+edi*2]
	shl	eax, 4
	push	4
	push	eax
	call	?FireMallocAlignedNoTracking@@YAPAXIIPBDH@Z ; FireMallocAlignedNoTracking
	add	esp, 16					; 00000010H

; 799  : 			m_uiCurrMaxSize = uiSize;

	mov	DWORD PTR [esi+8], edi
	pop	edi
	pop	esi

; 803  : 		}
; 804  : 		return pRet;
; 805  : 	};

	ret	4
$LN2@Alloc:
	pop	edi

; 800  : 		}else{
; 801  : 			pRet = (T*)m_aData;

	lea	eax, DWORD PTR [esi+12]

; 802  : 			m_uiCurrMaxSize = L;

	mov	DWORD PTR [esi+8], 22			; 00000016H
	pop	esi

; 803  : 		}
; 804  : 		return pRet;
; 805  : 	};

	ret	4
?Alloc@?$FStaticVector@VCvGreatWork@@$0BG@$0A@$0BCJ@$0A@@@IAEPAVCvGreatWork@@I@Z ENDP ; FStaticVector<CvGreatWork,22,0,297,0>::Alloc
_TEXT	ENDS
PUBLIC	??1?$BaseVector@VCvGreatWork@@$0A@@@QAE@XZ	; BaseVector<CvGreatWork,0>::~BaseVector<CvGreatWork,0>
; Function compile flags: /Ogtpy
;	COMDAT ??1?$BaseVector@VCvGreatWork@@$0A@@@QAE@XZ
_TEXT	SEGMENT
??1?$BaseVector@VCvGreatWork@@$0A@@@QAE@XZ PROC		; BaseVector<CvGreatWork,0>::~BaseVector<CvGreatWork,0>, COMDAT
; _this$ = ecx

; 111  : 	~BaseVector(){};

	ret	0
??1?$BaseVector@VCvGreatWork@@$0A@@@QAE@XZ ENDP		; BaseVector<CvGreatWork,0>::~BaseVector<CvGreatWork,0>
_TEXT	ENDS
PUBLIC	??0?$BaseVector@VCvGreatWork@@$0A@@@IAE@XZ	; BaseVector<CvGreatWork,0>::BaseVector<CvGreatWork,0>
; Function compile flags: /Ogtpy
;	COMDAT ??0?$BaseVector@VCvGreatWork@@$0A@@@IAE@XZ
_TEXT	SEGMENT
??0?$BaseVector@VCvGreatWork@@$0A@@@IAE@XZ PROC		; BaseVector<CvGreatWork,0>::BaseVector<CvGreatWork,0>, COMDAT
; _this$ = ecx

; 216  : 	BaseVector() : m_uiCurrSize(0), m_uiCurrMaxSize(0), m_pData(NULL) {};

	mov	eax, ecx
	xor	ecx, ecx
	mov	DWORD PTR [eax], ecx
	mov	DWORD PTR [eax+4], ecx
	mov	DWORD PTR [eax+8], ecx
	ret	0
??0?$BaseVector@VCvGreatWork@@$0A@@@IAE@XZ ENDP		; BaseVector<CvGreatWork,0>::BaseVector<CvGreatWork,0>
_TEXT	ENDS
PUBLIC	?capacity@?$vector@VCvGreatWorkBuildingInMyEmpire@@V?$allocator@VCvGreatWorkBuildingInMyEmpire@@@std@@@std@@QBEIXZ ; std::vector<CvGreatWorkBuildingInMyEmpire,std::allocator<CvGreatWorkBuildingInMyEmpire> >::capacity
; Function compile flags: /Ogtpy
; File c:\program files (x86)\microsoft visual studio 9.0\vc\include\vector
;	COMDAT ?capacity@?$vector@VCvGreatWorkBuildingInMyEmpire@@V?$allocator@VCvGreatWorkBuildingInMyEmpire@@@std@@@std@@QBEIXZ
_TEXT	SEGMENT
?capacity@?$vector@VCvGreatWorkBuildingInMyEmpire@@V?$allocator@VCvGreatWorkBuildingInMyEmpire@@@std@@@std@@QBEIXZ PROC ; std::vector<CvGreatWorkBuildingInMyEmpire,std::allocator<CvGreatWorkBuildingInMyEmpire> >::capacity, COMDAT
; _this$ = ecx

; 635  : 		return (_Myfirst == 0 ? 0 : _Myend - _Myfirst);

	mov	eax, DWORD PTR [ecx+4]
	test	eax, eax
	jne	SHORT $LN3@capacity

; 636  : 		}

	ret	0
$LN3@capacity:

; 635  : 		return (_Myfirst == 0 ? 0 : _Myend - _Myfirst);

	mov	ecx, DWORD PTR [ecx+12]
	sub	ecx, eax
	mov	eax, 715827883				; 2aaaaaabH
	imul	ecx
	sar	edx, 1
	mov	eax, edx
	shr	eax, 31					; 0000001fH
	add	eax, edx

; 636  : 		}

	ret	0
?capacity@?$vector@VCvGreatWorkBuildingInMyEmpire@@V?$allocator@VCvGreatWorkBuildingInMyEmpire@@@std@@@std@@QBEIXZ ENDP ; std::vector<CvGreatWorkBuildingInMyEmpire,std::allocator<CvGreatWorkBuildingInMyEmpire> >::capacity
_TEXT	ENDS
PUBLIC	?size@?$vector@VCvGreatWorkBuildingInMyEmpire@@V?$allocator@VCvGreatWorkBuildingInMyEmpire@@@std@@@std@@QBEIXZ ; std::vector<CvGreatWorkBuildingInMyEmpire,std::allocator<CvGreatWorkBuildingInMyEmpire> >::size
; Function compile flags: /Ogtpy
;	COMDAT ?size@?$vector@VCvGreatWorkBuildingInMyEmpire@@V?$allocator@VCvGreatWorkBuildingInMyEmpire@@@std@@@std@@QBEIXZ
_TEXT	SEGMENT
?size@?$vector@VCvGreatWorkBuildingInMyEmpire@@V?$allocator@VCvGreatWorkBuildingInMyEmpire@@@std@@@std@@QBEIXZ PROC ; std::vector<CvGreatWorkBuildingInMyEmpire,std::allocator<CvGreatWorkBuildingInMyEmpire> >::size, COMDAT
; _this$ = ecx

; 726  : 		return (_Mylast - _Myfirst);

	mov	edx, DWORD PTR [ecx+8]
	sub	edx, DWORD PTR [ecx+4]
	mov	eax, 715827883				; 2aaaaaabH
	imul	edx
	sar	edx, 1
	mov	eax, edx
	shr	eax, 31					; 0000001fH
	add	eax, edx

; 727  : 		}

	ret	0
?size@?$vector@VCvGreatWorkBuildingInMyEmpire@@V?$allocator@VCvGreatWorkBuildingInMyEmpire@@@std@@@std@@QBEIXZ ENDP ; std::vector<CvGreatWorkBuildingInMyEmpire,std::allocator<CvGreatWorkBuildingInMyEmpire> >::size
_TEXT	ENDS
PUBLIC	??1?$_Container_base_aux_alloc_empty@V?$allocator@VCvGreatWorkBuildingInMyEmpire@@@std@@@std@@IAE@XZ ; std::_Container_base_aux_alloc_empty<std::allocator<CvGreatWorkBuildingInMyEmpire> >::~_Container_base_aux_alloc_empty<std::allocator<CvGreatWorkBuildingInMyEmpire> >
; Function compile flags: /Ogtpy
; File c:\program files (x86)\microsoft visual studio 9.0\vc\include\xutility
;	COMDAT ??1?$_Container_base_aux_alloc_empty@V?$allocator@VCvGreatWorkBuildingInMyEmpire@@@std@@@std@@IAE@XZ
_TEXT	SEGMENT
??1?$_Container_base_aux_alloc_empty@V?$allocator@VCvGreatWorkBuildingInMyEmpire@@@std@@@std@@IAE@XZ PROC ; std::_Container_base_aux_alloc_empty<std::allocator<CvGreatWorkBuildingInMyEmpire> >::~_Container_base_aux_alloc_empty<std::allocator<CvGreatWorkBuildingInMyEmpire> >, COMDAT
; _this$ = ecx

; 627  : 	~_Container_base_aux_alloc_empty() { }

	ret	0
??1?$_Container_base_aux_alloc_empty@V?$allocator@VCvGreatWorkBuildingInMyEmpire@@@std@@@std@@IAE@XZ ENDP ; std::_Container_base_aux_alloc_empty<std::allocator<CvGreatWorkBuildingInMyEmpire> >::~_Container_base_aux_alloc_empty<std::allocator<CvGreatWorkBuildingInMyEmpire> >
_TEXT	ENDS
PUBLIC	??0?$allocator@VCvGreatWorkBuildingInMyEmpire@@@std@@QAE@XZ ; std::allocator<CvGreatWorkBuildingInMyEmpire>::allocator<CvGreatWorkBuildingInMyEmpire>
; Function compile flags: /Ogtpy
; File c:\program files (x86)\microsoft visual studio 9.0\vc\include\xmemory
;	COMDAT ??0?$allocator@VCvGreatWorkBuildingInMyEmpire@@@std@@QAE@XZ
_TEXT	SEGMENT
??0?$allocator@VCvGreatWorkBuildingInMyEmpire@@@std@@QAE@XZ PROC ; std::allocator<CvGreatWorkBuildingInMyEmpire>::allocator<CvGreatWorkBuildingInMyEmpire>, COMDAT
; _this$ = ecx

; 119  : 	allocator() _THROW0()

	mov	eax, ecx

; 120  : 		{	// construct default allocator (do nothing)
; 121  : 		}

	ret	0
??0?$allocator@VCvGreatWorkBuildingInMyEmpire@@@std@@QAE@XZ ENDP ; std::allocator<CvGreatWorkBuildingInMyEmpire>::allocator<CvGreatWorkBuildingInMyEmpire>
_TEXT	ENDS
PUBLIC	?capacity@?$vector@PAVCvPlot@@V?$allocator@PAVCvPlot@@@std@@@std@@QBEIXZ ; std::vector<CvPlot *,std::allocator<CvPlot *> >::capacity
; Function compile flags: /Ogtpy
; File c:\program files (x86)\microsoft visual studio 9.0\vc\include\vector
;	COMDAT ?capacity@?$vector@PAVCvPlot@@V?$allocator@PAVCvPlot@@@std@@@std@@QBEIXZ
_TEXT	SEGMENT
?capacity@?$vector@PAVCvPlot@@V?$allocator@PAVCvPlot@@@std@@@std@@QBEIXZ PROC ; std::vector<CvPlot *,std::allocator<CvPlot *> >::capacity, COMDAT
; _this$ = ecx

; 635  : 		return (_Myfirst == 0 ? 0 : _Myend - _Myfirst);

	mov	edx, DWORD PTR [ecx+4]
	test	edx, edx
	jne	SHORT $LN3@capacity@2
	xor	eax, eax

; 636  : 		}

	ret	0
$LN3@capacity@2:

; 635  : 		return (_Myfirst == 0 ? 0 : _Myend - _Myfirst);

	mov	eax, DWORD PTR [ecx+12]
	sub	eax, edx
	sar	eax, 2

; 636  : 		}

	ret	0
?capacity@?$vector@PAVCvPlot@@V?$allocator@PAVCvPlot@@@std@@@std@@QBEIXZ ENDP ; std::vector<CvPlot *,std::allocator<CvPlot *> >::capacity
_TEXT	ENDS
PUBLIC	??1?$_Container_base_aux_alloc_empty@V?$allocator@PAVCvPlot@@@std@@@std@@IAE@XZ ; std::_Container_base_aux_alloc_empty<std::allocator<CvPlot *> >::~_Container_base_aux_alloc_empty<std::allocator<CvPlot *> >
; Function compile flags: /Ogtpy
; File c:\program files (x86)\microsoft visual studio 9.0\vc\include\xutility
;	COMDAT ??1?$_Container_base_aux_alloc_empty@V?$allocator@PAVCvPlot@@@std@@@std@@IAE@XZ
_TEXT	SEGMENT
??1?$_Container_base_aux_alloc_empty@V?$allocator@PAVCvPlot@@@std@@@std@@IAE@XZ PROC ; std::_Container_base_aux_alloc_empty<std::allocator<CvPlot *> >::~_Container_base_aux_alloc_empty<std::allocator<CvPlot *> >, COMDAT
; _this$ = ecx

; 627  : 	~_Container_base_aux_alloc_empty() { }

	ret	0
??1?$_Container_base_aux_alloc_empty@V?$allocator@PAVCvPlot@@@std@@@std@@IAE@XZ ENDP ; std::_Container_base_aux_alloc_empty<std::allocator<CvPlot *> >::~_Container_base_aux_alloc_empty<std::allocator<CvPlot *> >
_TEXT	ENDS
PUBLIC	??0?$allocator@PAVCvPlot@@@std@@QAE@XZ		; std::allocator<CvPlot *>::allocator<CvPlot *>
; Function compile flags: /Ogtpy
; File c:\program files (x86)\microsoft visual studio 9.0\vc\include\xmemory
;	COMDAT ??0?$allocator@PAVCvPlot@@@std@@QAE@XZ
_TEXT	SEGMENT
??0?$allocator@PAVCvPlot@@@std@@QAE@XZ PROC		; std::allocator<CvPlot *>::allocator<CvPlot *>, COMDAT
; _this$ = ecx

; 119  : 	allocator() _THROW0()

	mov	eax, ecx

; 120  : 		{	// construct default allocator (do nothing)
; 121  : 		}

	ret	0
??0?$allocator@PAVCvPlot@@@std@@QAE@XZ ENDP		; std::allocator<CvPlot *>::allocator<CvPlot *>
_TEXT	ENDS
PUBLIC	?capacity@?$vector@W4PlayerTypes@@V?$allocator@W4PlayerTypes@@@std@@@std@@QBEIXZ ; std::vector<enum PlayerTypes,std::allocator<enum PlayerTypes> >::capacity
; Function compile flags: /Ogtpy
; File c:\program files (x86)\microsoft visual studio 9.0\vc\include\vector
;	COMDAT ?capacity@?$vector@W4PlayerTypes@@V?$allocator@W4PlayerTypes@@@std@@@std@@QBEIXZ
_TEXT	SEGMENT
?capacity@?$vector@W4PlayerTypes@@V?$allocator@W4PlayerTypes@@@std@@@std@@QBEIXZ PROC ; std::vector<enum PlayerTypes,std::allocator<enum PlayerTypes> >::capacity, COMDAT
; _this$ = ecx

; 635  : 		return (_Myfirst == 0 ? 0 : _Myend - _Myfirst);

	mov	edx, DWORD PTR [ecx+4]
	test	edx, edx
	jne	SHORT $LN3@capacity@3
	xor	eax, eax

; 636  : 		}

	ret	0
$LN3@capacity@3:

; 635  : 		return (_Myfirst == 0 ? 0 : _Myend - _Myfirst);

	mov	eax, DWORD PTR [ecx+12]
	sub	eax, edx
	sar	eax, 2

; 636  : 		}

	ret	0
?capacity@?$vector@W4PlayerTypes@@V?$allocator@W4PlayerTypes@@@std@@@std@@QBEIXZ ENDP ; std::vector<enum PlayerTypes,std::allocator<enum PlayerTypes> >::capacity
_TEXT	ENDS
PUBLIC	??1?$_Container_base_aux_alloc_empty@V?$allocator@W4PlayerTypes@@@std@@@std@@IAE@XZ ; std::_Container_base_aux_alloc_empty<std::allocator<enum PlayerTypes> >::~_Container_base_aux_alloc_empty<std::allocator<enum PlayerTypes> >
; Function compile flags: /Ogtpy
; File c:\program files (x86)\microsoft visual studio 9.0\vc\include\xutility
;	COMDAT ??1?$_Container_base_aux_alloc_empty@V?$allocator@W4PlayerTypes@@@std@@@std@@IAE@XZ
_TEXT	SEGMENT
??1?$_Container_base_aux_alloc_empty@V?$allocator@W4PlayerTypes@@@std@@@std@@IAE@XZ PROC ; std::_Container_base_aux_alloc_empty<std::allocator<enum PlayerTypes> >::~_Container_base_aux_alloc_empty<std::allocator<enum PlayerTypes> >, COMDAT
; _this$ = ecx

; 627  : 	~_Container_base_aux_alloc_empty() { }

	ret	0
??1?$_Container_base_aux_alloc_empty@V?$allocator@W4PlayerTypes@@@std@@@std@@IAE@XZ ENDP ; std::_Container_base_aux_alloc_empty<std::allocator<enum PlayerTypes> >::~_Container_base_aux_alloc_empty<std::allocator<enum PlayerTypes> >
_TEXT	ENDS
PUBLIC	??0?$allocator@W4PlayerTypes@@@std@@QAE@XZ	; std::allocator<enum PlayerTypes>::allocator<enum PlayerTypes>
; Function compile flags: /Ogtpy
; File c:\program files (x86)\microsoft visual studio 9.0\vc\include\xmemory
;	COMDAT ??0?$allocator@W4PlayerTypes@@@std@@QAE@XZ
_TEXT	SEGMENT
??0?$allocator@W4PlayerTypes@@@std@@QAE@XZ PROC		; std::allocator<enum PlayerTypes>::allocator<enum PlayerTypes>, COMDAT
; _this$ = ecx

; 119  : 	allocator() _THROW0()

	mov	eax, ecx

; 120  : 		{	// construct default allocator (do nothing)
; 121  : 		}

	ret	0
??0?$allocator@W4PlayerTypes@@@std@@QAE@XZ ENDP		; std::allocator<enum PlayerTypes>::allocator<enum PlayerTypes>
_TEXT	ENDS
PUBLIC	?deallocate@?$allocator@W4PlayerTypes@@@std@@QAEXPAW4PlayerTypes@@I@Z ; std::allocator<enum PlayerTypes>::deallocate
; Function compile flags: /Ogtpy
;	COMDAT ?deallocate@?$allocator@W4PlayerTypes@@@std@@QAEXPAW4PlayerTypes@@I@Z
_TEXT	SEGMENT
__Ptr$ = 8						; size = 4
___formal$ = 12						; size = 4
?deallocate@?$allocator@W4PlayerTypes@@@std@@QAEXPAW4PlayerTypes@@I@Z PROC ; std::allocator<enum PlayerTypes>::deallocate, COMDAT
; _this$ = ecx

; 140  : 		::operator delete(_Ptr);

	mov	eax, DWORD PTR __Ptr$[esp-4]
	push	eax
	call	??3@YAXPAX@Z				; operator delete
	pop	ecx

; 141  : 		}

	ret	8
?deallocate@?$allocator@W4PlayerTypes@@@std@@QAEXPAW4PlayerTypes@@I@Z ENDP ; std::allocator<enum PlayerTypes>::deallocate
_TEXT	ENDS
PUBLIC	?capacity@?$vector@VCvGreatWorkInMyEmpire@@V?$allocator@VCvGreatWorkInMyEmpire@@@std@@@std@@QBEIXZ ; std::vector<CvGreatWorkInMyEmpire,std::allocator<CvGreatWorkInMyEmpire> >::capacity
; Function compile flags: /Ogtpy
; File c:\program files (x86)\microsoft visual studio 9.0\vc\include\vector
;	COMDAT ?capacity@?$vector@VCvGreatWorkInMyEmpire@@V?$allocator@VCvGreatWorkInMyEmpire@@@std@@@std@@QBEIXZ
_TEXT	SEGMENT
?capacity@?$vector@VCvGreatWorkInMyEmpire@@V?$allocator@VCvGreatWorkInMyEmpire@@@std@@@std@@QBEIXZ PROC ; std::vector<CvGreatWorkInMyEmpire,std::allocator<CvGreatWorkInMyEmpire> >::capacity, COMDAT
; _this$ = ecx

; 635  : 		return (_Myfirst == 0 ? 0 : _Myend - _Myfirst);

	mov	eax, DWORD PTR [ecx+4]
	test	eax, eax
	jne	SHORT $LN3@capacity@4

; 636  : 		}

	ret	0
$LN3@capacity@4:

; 635  : 		return (_Myfirst == 0 ? 0 : _Myend - _Myfirst);

	mov	ecx, DWORD PTR [ecx+12]
	sub	ecx, eax
	mov	eax, 715827883				; 2aaaaaabH
	imul	ecx
	sar	edx, 2
	mov	eax, edx
	shr	eax, 31					; 0000001fH
	add	eax, edx

; 636  : 		}

	ret	0
?capacity@?$vector@VCvGreatWorkInMyEmpire@@V?$allocator@VCvGreatWorkInMyEmpire@@@std@@@std@@QBEIXZ ENDP ; std::vector<CvGreatWorkInMyEmpire,std::allocator<CvGreatWorkInMyEmpire> >::capacity
_TEXT	ENDS
PUBLIC	??1?$_Container_base_aux_alloc_empty@V?$allocator@VCvGreatWorkInMyEmpire@@@std@@@std@@IAE@XZ ; std::_Container_base_aux_alloc_empty<std::allocator<CvGreatWorkInMyEmpire> >::~_Container_base_aux_alloc_empty<std::allocator<CvGreatWorkInMyEmpire> >
; Function compile flags: /Ogtpy
; File c:\program files (x86)\microsoft visual studio 9.0\vc\include\xutility
;	COMDAT ??1?$_Container_base_aux_alloc_empty@V?$allocator@VCvGreatWorkInMyEmpire@@@std@@@std@@IAE@XZ
_TEXT	SEGMENT
??1?$_Container_base_aux_alloc_empty@V?$allocator@VCvGreatWorkInMyEmpire@@@std@@@std@@IAE@XZ PROC ; std::_Container_base_aux_alloc_empty<std::allocator<CvGreatWorkInMyEmpire> >::~_Container_base_aux_alloc_empty<std::allocator<CvGreatWorkInMyEmpire> >, COMDAT
; _this$ = ecx

; 627  : 	~_Container_base_aux_alloc_empty() { }

	ret	0
??1?$_Container_base_aux_alloc_empty@V?$allocator@VCvGreatWorkInMyEmpire@@@std@@@std@@IAE@XZ ENDP ; std::_Container_base_aux_alloc_empty<std::allocator<CvGreatWorkInMyEmpire> >::~_Container_base_aux_alloc_empty<std::allocator<CvGreatWorkInMyEmpire> >
_TEXT	ENDS
PUBLIC	??0?$allocator@VCvGreatWorkInMyEmpire@@@std@@QAE@XZ ; std::allocator<CvGreatWorkInMyEmpire>::allocator<CvGreatWorkInMyEmpire>
; Function compile flags: /Ogtpy
; File c:\program files (x86)\microsoft visual studio 9.0\vc\include\xmemory
;	COMDAT ??0?$allocator@VCvGreatWorkInMyEmpire@@@std@@QAE@XZ
_TEXT	SEGMENT
??0?$allocator@VCvGreatWorkInMyEmpire@@@std@@QAE@XZ PROC ; std::allocator<CvGreatWorkInMyEmpire>::allocator<CvGreatWorkInMyEmpire>, COMDAT
; _this$ = ecx

; 119  : 	allocator() _THROW0()

	mov	eax, ecx

; 120  : 		{	// construct default allocator (do nothing)
; 121  : 		}

	ret	0
??0?$allocator@VCvGreatWorkInMyEmpire@@@std@@QAE@XZ ENDP ; std::allocator<CvGreatWorkInMyEmpire>::allocator<CvGreatWorkInMyEmpire>
_TEXT	ENDS
PUBLIC	?deallocate@?$allocator@VCvGreatWorkInMyEmpire@@@std@@QAEXPAVCvGreatWorkInMyEmpire@@I@Z ; std::allocator<CvGreatWorkInMyEmpire>::deallocate
; Function compile flags: /Ogtpy
;	COMDAT ?deallocate@?$allocator@VCvGreatWorkInMyEmpire@@@std@@QAEXPAVCvGreatWorkInMyEmpire@@I@Z
_TEXT	SEGMENT
__Ptr$ = 8						; size = 4
___formal$ = 12						; size = 4
?deallocate@?$allocator@VCvGreatWorkInMyEmpire@@@std@@QAEXPAVCvGreatWorkInMyEmpire@@I@Z PROC ; std::allocator<CvGreatWorkInMyEmpire>::deallocate, COMDAT
; _this$ = ecx

; 140  : 		::operator delete(_Ptr);

	mov	eax, DWORD PTR __Ptr$[esp-4]
	push	eax
	call	??3@YAXPAX@Z				; operator delete
	pop	ecx

; 141  : 		}

	ret	8
?deallocate@?$allocator@VCvGreatWorkInMyEmpire@@@std@@QAEXPAVCvGreatWorkInMyEmpire@@I@Z ENDP ; std::allocator<CvGreatWorkInMyEmpire>::deallocate
_TEXT	ENDS
PUBLIC	??D?$_Vector_iterator@VCvGreatWorkBuildingInMyEmpire@@V?$allocator@VCvGreatWorkBuildingInMyEmpire@@@std@@@std@@QBEAAVCvGreatWorkBuildingInMyEmpire@@XZ ; std::_Vector_iterator<CvGreatWorkBuildingInMyEmpire,std::allocator<CvGreatWorkBuildingInMyEmpire> >::operator*
; Function compile flags: /Ogtpy
; File c:\program files (x86)\microsoft visual studio 9.0\vc\include\vector
;	COMDAT ??D?$_Vector_iterator@VCvGreatWorkBuildingInMyEmpire@@V?$allocator@VCvGreatWorkBuildingInMyEmpire@@@std@@@std@@QBEAAVCvGreatWorkBuildingInMyEmpire@@XZ
_TEXT	SEGMENT
??D?$_Vector_iterator@VCvGreatWorkBuildingInMyEmpire@@V?$allocator@VCvGreatWorkBuildingInMyEmpire@@@std@@@std@@QBEAAVCvGreatWorkBuildingInMyEmpire@@XZ PROC ; std::_Vector_iterator<CvGreatWorkBuildingInMyEmpire,std::allocator<CvGreatWorkBuildingInMyEmpire> >::operator*, COMDAT
; _this$ = ecx

; 339  : 		return ((reference)**(_Mybase *)this);

	mov	eax, DWORD PTR [ecx]

; 340  : 		}

	ret	0
??D?$_Vector_iterator@VCvGreatWorkBuildingInMyEmpire@@V?$allocator@VCvGreatWorkBuildingInMyEmpire@@@std@@@std@@QBEAAVCvGreatWorkBuildingInMyEmpire@@XZ ENDP ; std::_Vector_iterator<CvGreatWorkBuildingInMyEmpire,std::allocator<CvGreatWorkBuildingInMyEmpire> >::operator*
_TEXT	ENDS
PUBLIC	??0?$_Vector_const_iterator@VCvGreatWorkBuildingInMyEmpire@@V?$allocator@VCvGreatWorkBuildingInMyEmpire@@@std@@@std@@QAE@XZ ; std::_Vector_const_iterator<CvGreatWorkBuildingInMyEmpire,std::allocator<CvGreatWorkBuildingInMyEmpire> >::_Vector_const_iterator<CvGreatWorkBuildingInMyEmpire,std::allocator<CvGreatWorkBuildingInMyEmpire> >
; Function compile flags: /Ogtpy
;	COMDAT ??0?$_Vector_const_iterator@VCvGreatWorkBuildingInMyEmpire@@V?$allocator@VCvGreatWorkBuildingInMyEmpire@@@std@@@std@@QAE@XZ
_TEXT	SEGMENT
??0?$_Vector_const_iterator@VCvGreatWorkBuildingInMyEmpire@@V?$allocator@VCvGreatWorkBuildingInMyEmpire@@@std@@@std@@QAE@XZ PROC ; std::_Vector_const_iterator<CvGreatWorkBuildingInMyEmpire,std::allocator<CvGreatWorkBuildingInMyEmpire> >::_Vector_const_iterator<CvGreatWorkBuildingInMyEmpire,std::allocator<CvGreatWorkBuildingInMyEmpire> >, COMDAT
; _this$ = ecx

; 62   : 	_Vector_const_iterator()

	mov	eax, ecx

; 63   : 		{	// construct with null pointer
; 64   : 		_Myptr = 0;

	mov	DWORD PTR [eax], 0

; 65   : 		}

	ret	0
??0?$_Vector_const_iterator@VCvGreatWorkBuildingInMyEmpire@@V?$allocator@VCvGreatWorkBuildingInMyEmpire@@@std@@@std@@QAE@XZ ENDP ; std::_Vector_const_iterator<CvGreatWorkBuildingInMyEmpire,std::allocator<CvGreatWorkBuildingInMyEmpire> >::_Vector_const_iterator<CvGreatWorkBuildingInMyEmpire,std::allocator<CvGreatWorkBuildingInMyEmpire> >
_TEXT	ENDS
PUBLIC	??8?$_Vector_const_iterator@VCvGreatWorkBuildingInMyEmpire@@V?$allocator@VCvGreatWorkBuildingInMyEmpire@@@std@@@std@@QBE_NABV01@@Z ; std::_Vector_const_iterator<CvGreatWorkBuildingInMyEmpire,std::allocator<CvGreatWorkBuildingInMyEmpire> >::operator==
; Function compile flags: /Ogtpy
;	COMDAT ??8?$_Vector_const_iterator@VCvGreatWorkBuildingInMyEmpire@@V?$allocator@VCvGreatWorkBuildingInMyEmpire@@@std@@@std@@QBE_NABV01@@Z
_TEXT	SEGMENT
__Right$ = 8						; size = 4
??8?$_Vector_const_iterator@VCvGreatWorkBuildingInMyEmpire@@V?$allocator@VCvGreatWorkBuildingInMyEmpire@@@std@@@std@@QBE_NABV01@@Z PROC ; std::_Vector_const_iterator<CvGreatWorkBuildingInMyEmpire,std::allocator<CvGreatWorkBuildingInMyEmpire> >::operator==, COMDAT
; _this$ = ecx

; 204  : 
; 205  :  #if _HAS_ITERATOR_DEBUGGING
; 206  : 		_Compat(_Right);
; 207  :  #else
; 208  : 		_SCL_SECURE_VALIDATE(this->_Has_container() && this->_Same_container(_Right));
; 209  :  #endif /* _HAS_ITERATOR_DEBUGGING */
; 210  : 
; 211  : 		return (_Myptr == _Right._Myptr);

	mov	eax, DWORD PTR [ecx]
	mov	edx, DWORD PTR __Right$[esp-4]
	xor	ecx, ecx
	cmp	eax, DWORD PTR [edx]
	sete	cl
	mov	al, cl

; 212  : 		}

	ret	4
??8?$_Vector_const_iterator@VCvGreatWorkBuildingInMyEmpire@@V?$allocator@VCvGreatWorkBuildingInMyEmpire@@@std@@@std@@QBE_NABV01@@Z ENDP ; std::_Vector_const_iterator<CvGreatWorkBuildingInMyEmpire,std::allocator<CvGreatWorkBuildingInMyEmpire> >::operator==
_TEXT	ENDS
PUBLIC	??E?$_Vector_const_iterator@VCvGreatWorkInMyEmpire@@V?$allocator@VCvGreatWorkInMyEmpire@@@std@@@std@@QAEAAV01@XZ ; std::_Vector_const_iterator<CvGreatWorkInMyEmpire,std::allocator<CvGreatWorkInMyEmpire> >::operator++
; Function compile flags: /Ogtpy
;	COMDAT ??E?$_Vector_const_iterator@VCvGreatWorkInMyEmpire@@V?$allocator@VCvGreatWorkInMyEmpire@@@std@@@std@@QAEAAV01@XZ
_TEXT	SEGMENT
??E?$_Vector_const_iterator@VCvGreatWorkInMyEmpire@@V?$allocator@VCvGreatWorkInMyEmpire@@@std@@@std@@QAEAAV01@XZ PROC ; std::_Vector_const_iterator<CvGreatWorkInMyEmpire,std::allocator<CvGreatWorkInMyEmpire> >::operator++, COMDAT
; _this$ = ecx

; 115  : 		{	// preincrement

	mov	eax, ecx

; 116  : 		_SCL_SECURE_VALIDATE(this->_Has_container());
; 117  : 		_SCL_SECURE_VALIDATE_RANGE(_Myptr < ((_Myvec *)(this->_Getmycont()))->_Mylast);
; 118  : 
; 119  :  #if _HAS_ITERATOR_DEBUGGING
; 120  : 		if (this->_Mycont == 0
; 121  : 			|| ((_Myvec *)this->_Mycont)->_Mylast <= _Myptr)
; 122  : 			_DEBUG_ERROR("vector iterator not incrementable");
; 123  :  #endif /* _HAS_ITERATOR_DEBUGGING */
; 124  : 
; 125  : 		++_Myptr;

	add	DWORD PTR [eax], 24			; 00000018H

; 126  : 		return (*this);
; 127  : 		}

	ret	0
??E?$_Vector_const_iterator@VCvGreatWorkInMyEmpire@@V?$allocator@VCvGreatWorkInMyEmpire@@@std@@@std@@QAEAAV01@XZ ENDP ; std::_Vector_const_iterator<CvGreatWorkInMyEmpire,std::allocator<CvGreatWorkInMyEmpire> >::operator++
_TEXT	ENDS
PUBLIC	??8?$_Vector_const_iterator@VCvGreatWorkInMyEmpire@@V?$allocator@VCvGreatWorkInMyEmpire@@@std@@@std@@QBE_NABV01@@Z ; std::_Vector_const_iterator<CvGreatWorkInMyEmpire,std::allocator<CvGreatWorkInMyEmpire> >::operator==
; Function compile flags: /Ogtpy
;	COMDAT ??8?$_Vector_const_iterator@VCvGreatWorkInMyEmpire@@V?$allocator@VCvGreatWorkInMyEmpire@@@std@@@std@@QBE_NABV01@@Z
_TEXT	SEGMENT
__Right$ = 8						; size = 4
??8?$_Vector_const_iterator@VCvGreatWorkInMyEmpire@@V?$allocator@VCvGreatWorkInMyEmpire@@@std@@@std@@QBE_NABV01@@Z PROC ; std::_Vector_const_iterator<CvGreatWorkInMyEmpire,std::allocator<CvGreatWorkInMyEmpire> >::operator==, COMDAT
; _this$ = ecx

; 204  : 
; 205  :  #if _HAS_ITERATOR_DEBUGGING
; 206  : 		_Compat(_Right);
; 207  :  #else
; 208  : 		_SCL_SECURE_VALIDATE(this->_Has_container() && this->_Same_container(_Right));
; 209  :  #endif /* _HAS_ITERATOR_DEBUGGING */
; 210  : 
; 211  : 		return (_Myptr == _Right._Myptr);

	mov	eax, DWORD PTR [ecx]
	mov	edx, DWORD PTR __Right$[esp-4]
	xor	ecx, ecx
	cmp	eax, DWORD PTR [edx]
	sete	cl
	mov	al, cl

; 212  : 		}

	ret	4
??8?$_Vector_const_iterator@VCvGreatWorkInMyEmpire@@V?$allocator@VCvGreatWorkInMyEmpire@@@std@@@std@@QBE_NABV01@@Z ENDP ; std::_Vector_const_iterator<CvGreatWorkInMyEmpire,std::allocator<CvGreatWorkInMyEmpire> >::operator==
_TEXT	ENDS
PUBLIC	??E?$_Vector_iterator@VCvGreatWorkInMyEmpire@@V?$allocator@VCvGreatWorkInMyEmpire@@@std@@@std@@QAEAAV01@XZ ; std::_Vector_iterator<CvGreatWorkInMyEmpire,std::allocator<CvGreatWorkInMyEmpire> >::operator++
; Function compile flags: /Ogtpy
;	COMDAT ??E?$_Vector_iterator@VCvGreatWorkInMyEmpire@@V?$allocator@VCvGreatWorkInMyEmpire@@@std@@@std@@QAEAAV01@XZ
_TEXT	SEGMENT
??E?$_Vector_iterator@VCvGreatWorkInMyEmpire@@V?$allocator@VCvGreatWorkInMyEmpire@@@std@@@std@@QAEAAV01@XZ PROC ; std::_Vector_iterator<CvGreatWorkInMyEmpire,std::allocator<CvGreatWorkInMyEmpire> >::operator++, COMDAT
; _this$ = ecx

; 348  : 		{	// preincrement

	mov	eax, ecx

; 349  : 		++(*(_Mybase *)this);

	add	DWORD PTR [eax], 24			; 00000018H

; 350  : 		return (*this);
; 351  : 		}

	ret	0
??E?$_Vector_iterator@VCvGreatWorkInMyEmpire@@V?$allocator@VCvGreatWorkInMyEmpire@@@std@@@std@@QAEAAV01@XZ ENDP ; std::_Vector_iterator<CvGreatWorkInMyEmpire,std::allocator<CvGreatWorkInMyEmpire> >::operator++
_TEXT	ENDS
PUBLIC	??0CvString@@QAE@XZ				; CvString::CvString
EXTRN	__imp_??0?$basic_string@DU?$char_traits@D@std@@V?$allocator@D@2@@std@@QAE@XZ:PROC
; Function compile flags: /Ogtpy
; File c:\users\enormousapplepie\documents\github\lekmod\lekmod_dll\cvgamecoredllutil\include\cvstring.h
;	COMDAT ??0CvString@@QAE@XZ
_TEXT	SEGMENT
??0CvString@@QAE@XZ PROC				; CvString::CvString, COMDAT
; _this$ = ecx

; 23   : 	CvString() {}

	push	esi
	mov	esi, ecx
	call	DWORD PTR __imp_??0?$basic_string@DU?$char_traits@D@std@@V?$allocator@D@2@@std@@QAE@XZ
	mov	eax, esi
	pop	esi
	ret	0
??0CvString@@QAE@XZ ENDP				; CvString::CvString
_TEXT	ENDS
PUBLIC	?capacity@?$vector@W4EraTypes@@V?$allocator@W4EraTypes@@@std@@@std@@QBEIXZ ; std::vector<enum EraTypes,std::allocator<enum EraTypes> >::capacity
; Function compile flags: /Ogtpy
; File c:\program files (x86)\microsoft visual studio 9.0\vc\include\vector
;	COMDAT ?capacity@?$vector@W4EraTypes@@V?$allocator@W4EraTypes@@@std@@@std@@QBEIXZ
_TEXT	SEGMENT
?capacity@?$vector@W4EraTypes@@V?$allocator@W4EraTypes@@@std@@@std@@QBEIXZ PROC ; std::vector<enum EraTypes,std::allocator<enum EraTypes> >::capacity, COMDAT
; _this$ = ecx

; 635  : 		return (_Myfirst == 0 ? 0 : _Myend - _Myfirst);

	mov	edx, DWORD PTR [ecx+4]
	test	edx, edx
	jne	SHORT $LN3@capacity@5
	xor	eax, eax

; 636  : 		}

	ret	0
$LN3@capacity@5:

; 635  : 		return (_Myfirst == 0 ? 0 : _Myend - _Myfirst);

	mov	eax, DWORD PTR [ecx+12]
	sub	eax, edx
	sar	eax, 2

; 636  : 		}

	ret	0
?capacity@?$vector@W4EraTypes@@V?$allocator@W4EraTypes@@@std@@@std@@QBEIXZ ENDP ; std::vector<enum EraTypes,std::allocator<enum EraTypes> >::capacity
_TEXT	ENDS
PUBLIC	??_C@_00CNPNBAHC@?$AA@				; `string'
PUBLIC	??0CvString@@QAE@PBD@Z				; CvString::CvString
EXTRN	__imp_??0?$basic_string@DU?$char_traits@D@std@@V?$allocator@D@2@@std@@QAE@PBD@Z:PROC
;	COMDAT ??_C@_00CNPNBAHC@?$AA@
; File c:\users\enormousapplepie\documents\github\lekmod\lekmod_dll\cvgamecoredllutil\include\cvstring.h
CONST	SEGMENT
??_C@_00CNPNBAHC@?$AA@ DB 00H				; `string'
; Function compile flags: /Ogtpy
CONST	ENDS
;	COMDAT ??0CvString@@QAE@PBD@Z
_TEXT	SEGMENT
_s$ = 8							; size = 4
??0CvString@@QAE@PBD@Z PROC				; CvString::CvString, COMDAT
; _this$ = ecx

; 25   : 	CvString(const char* s) : std::string(s ? s : "") {CvAssertMsg(s != NULL, "Passing NULL to std::string; possible heap corruption!");}

	mov	eax, DWORD PTR _s$[esp-4]
	push	esi
	mov	esi, ecx
	test	eax, eax
	jne	SHORT $LN4@CvString
	mov	eax, OFFSET ??_C@_00CNPNBAHC@?$AA@
$LN4@CvString:
	push	eax
	call	DWORD PTR __imp_??0?$basic_string@DU?$char_traits@D@std@@V?$allocator@D@2@@std@@QAE@PBD@Z
	mov	eax, esi
	pop	esi
	ret	4
??0CvString@@QAE@PBD@Z ENDP				; CvString::CvString
_TEXT	ENDS
PUBLIC	??1CvString@@QAE@XZ				; CvString::~CvString
; Function compile flags: /Ogtpy
;	COMDAT ??1CvString@@QAE@XZ
_TEXT	SEGMENT
??1CvString@@QAE@XZ PROC				; CvString::~CvString, COMDAT
; _this$ = ecx

; 28   : 	~CvString() {}

	jmp	DWORD PTR __imp_??1?$basic_string@DU?$char_traits@D@std@@V?$allocator@D@2@@std@@QAE@XZ
??1CvString@@QAE@XZ ENDP				; CvString::~CvString
_TEXT	ENDS
PUBLIC	??BCvString@@QBEPBDXZ				; CvString::operator char const *
; Function compile flags: /Ogtpy
;	COMDAT ??BCvString@@QBEPBDXZ
_TEXT	SEGMENT
??BCvString@@QBEPBDXZ PROC				; CvString::operator char const *, COMDAT
; _this$ = ecx

; 31   : 	operator const char*() const 	{ return c_str(); }												

	jmp	DWORD PTR __imp_?c_str@?$basic_string@DU?$char_traits@D@std@@V?$allocator@D@2@@std@@QBEPBDXZ
??BCvString@@QBEPBDXZ ENDP				; CvString::operator char const *
_TEXT	ENDS
PUBLIC	??4CvString@@QAEAAV0@PBD@Z			; CvString::operator=
EXTRN	__imp_?clear@?$basic_string@DU?$char_traits@D@std@@V?$allocator@D@2@@std@@QAEXXZ:PROC
EXTRN	__imp_?assign@?$basic_string@DU?$char_traits@D@std@@V?$allocator@D@2@@std@@QAEAAV12@PBD@Z:PROC
; Function compile flags: /Ogtpy
;	COMDAT ??4CvString@@QAEAAV0@PBD@Z
_TEXT	SEGMENT
_s$ = 8							; size = 4
??4CvString@@QAEAAV0@PBD@Z PROC				; CvString::operator=, COMDAT
; _this$ = ecx

; 37   : 	CvString& operator=( const char* s) { if (s) assign(s); else clear();	return *this; }	

	mov	eax, DWORD PTR _s$[esp-4]
	push	esi
	mov	esi, ecx
	test	eax, eax
	je	SHORT $LN2@operator
	push	eax
	call	DWORD PTR __imp_?assign@?$basic_string@DU?$char_traits@D@std@@V?$allocator@D@2@@std@@QAEAAV12@PBD@Z
	mov	eax, esi
	pop	esi
	ret	4
$LN2@operator:
	call	DWORD PTR __imp_?clear@?$basic_string@DU?$char_traits@D@std@@V?$allocator@D@2@@std@@QAEXXZ
	mov	eax, esi
	pop	esi
	ret	4
??4CvString@@QAEAAV0@PBD@Z ENDP				; CvString::operator=
_TEXT	ENDS
PUBLIC	??4CvString@@QAEAAV0@ABV?$basic_string@DU?$char_traits@D@std@@V?$allocator@D@2@@std@@@Z ; CvString::operator=
; Function compile flags: /Ogtpy
;	COMDAT ??4CvString@@QAEAAV0@ABV?$basic_string@DU?$char_traits@D@std@@V?$allocator@D@2@@std@@@Z
_TEXT	SEGMENT
_s$ = 8							; size = 4
??4CvString@@QAEAAV0@ABV?$basic_string@DU?$char_traits@D@std@@V?$allocator@D@2@@std@@@Z PROC ; CvString::operator=, COMDAT
; _this$ = ecx

; 38   : 	CvString& operator=( const std::string& s) { assign(s.c_str());	return *this; }	

	push	esi
	mov	esi, ecx
	mov	ecx, DWORD PTR _s$[esp]
	call	DWORD PTR __imp_?c_str@?$basic_string@DU?$char_traits@D@std@@V?$allocator@D@2@@std@@QBEPBDXZ
	push	eax
	mov	ecx, esi
	call	DWORD PTR __imp_?assign@?$basic_string@DU?$char_traits@D@std@@V?$allocator@D@2@@std@@QAEAAV12@PBD@Z
	mov	eax, esi
	pop	esi
	ret	4
??4CvString@@QAEAAV0@ABV?$basic_string@DU?$char_traits@D@std@@V?$allocator@D@2@@std@@@Z ENDP ; CvString::operator=
_TEXT	ENDS
PUBLIC	??1?$_Container_base_aux_alloc_empty@V?$allocator@W4EraTypes@@@std@@@std@@IAE@XZ ; std::_Container_base_aux_alloc_empty<std::allocator<enum EraTypes> >::~_Container_base_aux_alloc_empty<std::allocator<enum EraTypes> >
; Function compile flags: /Ogtpy
; File c:\program files (x86)\microsoft visual studio 9.0\vc\include\xutility
;	COMDAT ??1?$_Container_base_aux_alloc_empty@V?$allocator@W4EraTypes@@@std@@@std@@IAE@XZ
_TEXT	SEGMENT
??1?$_Container_base_aux_alloc_empty@V?$allocator@W4EraTypes@@@std@@@std@@IAE@XZ PROC ; std::_Container_base_aux_alloc_empty<std::allocator<enum EraTypes> >::~_Container_base_aux_alloc_empty<std::allocator<enum EraTypes> >, COMDAT
; _this$ = ecx

; 627  : 	~_Container_base_aux_alloc_empty() { }

	ret	0
??1?$_Container_base_aux_alloc_empty@V?$allocator@W4EraTypes@@@std@@@std@@IAE@XZ ENDP ; std::_Container_base_aux_alloc_empty<std::allocator<enum EraTypes> >::~_Container_base_aux_alloc_empty<std::allocator<enum EraTypes> >
_TEXT	ENDS
PUBLIC	??0?$allocator@W4EraTypes@@@std@@QAE@XZ		; std::allocator<enum EraTypes>::allocator<enum EraTypes>
; Function compile flags: /Ogtpy
; File c:\program files (x86)\microsoft visual studio 9.0\vc\include\xmemory
;	COMDAT ??0?$allocator@W4EraTypes@@@std@@QAE@XZ
_TEXT	SEGMENT
??0?$allocator@W4EraTypes@@@std@@QAE@XZ PROC		; std::allocator<enum EraTypes>::allocator<enum EraTypes>, COMDAT
; _this$ = ecx

; 119  : 	allocator() _THROW0()

	mov	eax, ecx

; 120  : 		{	// construct default allocator (do nothing)
; 121  : 		}

	ret	0
??0?$allocator@W4EraTypes@@@std@@QAE@XZ ENDP		; std::allocator<enum EraTypes>::allocator<enum EraTypes>
_TEXT	ENDS
PUBLIC	?deallocate@?$allocator@W4EraTypes@@@std@@QAEXPAW4EraTypes@@I@Z ; std::allocator<enum EraTypes>::deallocate
; Function compile flags: /Ogtpy
;	COMDAT ?deallocate@?$allocator@W4EraTypes@@@std@@QAEXPAW4EraTypes@@I@Z
_TEXT	SEGMENT
__Ptr$ = 8						; size = 4
___formal$ = 12						; size = 4
?deallocate@?$allocator@W4EraTypes@@@std@@QAEXPAW4EraTypes@@I@Z PROC ; std::allocator<enum EraTypes>::deallocate, COMDAT
; _this$ = ecx

; 140  : 		::operator delete(_Ptr);

	mov	eax, DWORD PTR __Ptr$[esp-4]
	push	eax
	call	??3@YAXPAX@Z				; operator delete
	pop	ecx

; 141  : 		}

	ret	8
?deallocate@?$allocator@W4EraTypes@@@std@@QAEXPAW4EraTypes@@I@Z ENDP ; std::allocator<enum EraTypes>::deallocate
_TEXT	ENDS
PUBLIC	??8?$_Vector_const_iterator@W4EraTypes@@V?$allocator@W4EraTypes@@@std@@@std@@QBE_NABV01@@Z ; std::_Vector_const_iterator<enum EraTypes,std::allocator<enum EraTypes> >::operator==
; Function compile flags: /Ogtpy
; File c:\program files (x86)\microsoft visual studio 9.0\vc\include\vector
;	COMDAT ??8?$_Vector_const_iterator@W4EraTypes@@V?$allocator@W4EraTypes@@@std@@@std@@QBE_NABV01@@Z
_TEXT	SEGMENT
__Right$ = 8						; size = 4
??8?$_Vector_const_iterator@W4EraTypes@@V?$allocator@W4EraTypes@@@std@@@std@@QBE_NABV01@@Z PROC ; std::_Vector_const_iterator<enum EraTypes,std::allocator<enum EraTypes> >::operator==, COMDAT
; _this$ = ecx

; 204  : 
; 205  :  #if _HAS_ITERATOR_DEBUGGING
; 206  : 		_Compat(_Right);
; 207  :  #else
; 208  : 		_SCL_SECURE_VALIDATE(this->_Has_container() && this->_Same_container(_Right));
; 209  :  #endif /* _HAS_ITERATOR_DEBUGGING */
; 210  : 
; 211  : 		return (_Myptr == _Right._Myptr);

	mov	eax, DWORD PTR [ecx]
	mov	edx, DWORD PTR __Right$[esp-4]
	xor	ecx, ecx
	cmp	eax, DWORD PTR [edx]
	sete	cl
	mov	al, cl

; 212  : 		}

	ret	4
??8?$_Vector_const_iterator@W4EraTypes@@V?$allocator@W4EraTypes@@@std@@@std@@QBE_NABV01@@Z ENDP ; std::_Vector_const_iterator<enum EraTypes,std::allocator<enum EraTypes> >::operator==
_TEXT	ENDS
PUBLIC	??0?$_Vector_const_iterator@PAVCvPlot@@V?$allocator@PAVCvPlot@@@std@@@std@@QAE@PAPAVCvPlot@@@Z ; std::_Vector_const_iterator<CvPlot *,std::allocator<CvPlot *> >::_Vector_const_iterator<CvPlot *,std::allocator<CvPlot *> >
; Function compile flags: /Ogtpy
;	COMDAT ??0?$_Vector_const_iterator@PAVCvPlot@@V?$allocator@PAVCvPlot@@@std@@@std@@QAE@PAPAVCvPlot@@@Z
_TEXT	SEGMENT
__Ptr$ = 8						; size = 4
??0?$_Vector_const_iterator@PAVCvPlot@@V?$allocator@PAVCvPlot@@@std@@@std@@QAE@PAPAVCvPlot@@@Z PROC ; std::_Vector_const_iterator<CvPlot *,std::allocator<CvPlot *> >::_Vector_const_iterator<CvPlot *,std::allocator<CvPlot *> >, COMDAT
; _this$ = ecx

; 84   : 	explicit _Vector_const_iterator(_Tptr _Ptr)

	mov	eax, ecx

; 85   : 		{	// construct with pointer _Ptr
; 86   : 		_Myptr = _Ptr;

	mov	ecx, DWORD PTR __Ptr$[esp-4]
	mov	DWORD PTR [eax], ecx

; 87   : 		}

	ret	4
??0?$_Vector_const_iterator@PAVCvPlot@@V?$allocator@PAVCvPlot@@@std@@@std@@QAE@PAPAVCvPlot@@@Z ENDP ; std::_Vector_const_iterator<CvPlot *,std::allocator<CvPlot *> >::_Vector_const_iterator<CvPlot *,std::allocator<CvPlot *> >
_TEXT	ENDS
PUBLIC	??E?$_Vector_const_iterator@PAVCvPlot@@V?$allocator@PAVCvPlot@@@std@@@std@@QAEAAV01@XZ ; std::_Vector_const_iterator<CvPlot *,std::allocator<CvPlot *> >::operator++
; Function compile flags: /Ogtpy
;	COMDAT ??E?$_Vector_const_iterator@PAVCvPlot@@V?$allocator@PAVCvPlot@@@std@@@std@@QAEAAV01@XZ
_TEXT	SEGMENT
??E?$_Vector_const_iterator@PAVCvPlot@@V?$allocator@PAVCvPlot@@@std@@@std@@QAEAAV01@XZ PROC ; std::_Vector_const_iterator<CvPlot *,std::allocator<CvPlot *> >::operator++, COMDAT
; _this$ = ecx

; 115  : 		{	// preincrement

	mov	eax, ecx

; 116  : 		_SCL_SECURE_VALIDATE(this->_Has_container());
; 117  : 		_SCL_SECURE_VALIDATE_RANGE(_Myptr < ((_Myvec *)(this->_Getmycont()))->_Mylast);
; 118  : 
; 119  :  #if _HAS_ITERATOR_DEBUGGING
; 120  : 		if (this->_Mycont == 0
; 121  : 			|| ((_Myvec *)this->_Mycont)->_Mylast <= _Myptr)
; 122  : 			_DEBUG_ERROR("vector iterator not incrementable");
; 123  :  #endif /* _HAS_ITERATOR_DEBUGGING */
; 124  : 
; 125  : 		++_Myptr;

	add	DWORD PTR [eax], 4

; 126  : 		return (*this);
; 127  : 		}

	ret	0
??E?$_Vector_const_iterator@PAVCvPlot@@V?$allocator@PAVCvPlot@@@std@@@std@@QAEAAV01@XZ ENDP ; std::_Vector_const_iterator<CvPlot *,std::allocator<CvPlot *> >::operator++
_TEXT	ENDS
PUBLIC	??8?$_Vector_const_iterator@PAVCvPlot@@V?$allocator@PAVCvPlot@@@std@@@std@@QBE_NABV01@@Z ; std::_Vector_const_iterator<CvPlot *,std::allocator<CvPlot *> >::operator==
; Function compile flags: /Ogtpy
;	COMDAT ??8?$_Vector_const_iterator@PAVCvPlot@@V?$allocator@PAVCvPlot@@@std@@@std@@QBE_NABV01@@Z
_TEXT	SEGMENT
__Right$ = 8						; size = 4
??8?$_Vector_const_iterator@PAVCvPlot@@V?$allocator@PAVCvPlot@@@std@@@std@@QBE_NABV01@@Z PROC ; std::_Vector_const_iterator<CvPlot *,std::allocator<CvPlot *> >::operator==, COMDAT
; _this$ = ecx

; 204  : 
; 205  :  #if _HAS_ITERATOR_DEBUGGING
; 206  : 		_Compat(_Right);
; 207  :  #else
; 208  : 		_SCL_SECURE_VALIDATE(this->_Has_container() && this->_Same_container(_Right));
; 209  :  #endif /* _HAS_ITERATOR_DEBUGGING */
; 210  : 
; 211  : 		return (_Myptr == _Right._Myptr);

	mov	eax, DWORD PTR [ecx]
	mov	edx, DWORD PTR __Right$[esp-4]
	xor	ecx, ecx
	cmp	eax, DWORD PTR [edx]
	sete	cl
	mov	al, cl

; 212  : 		}

	ret	4
??8?$_Vector_const_iterator@PAVCvPlot@@V?$allocator@PAVCvPlot@@@std@@@std@@QBE_NABV01@@Z ENDP ; std::_Vector_const_iterator<CvPlot *,std::allocator<CvPlot *> >::operator==
_TEXT	ENDS
PUBLIC	??0?$_Vector_iterator@PAVCvPlot@@V?$allocator@PAVCvPlot@@@std@@@std@@QAE@PAPAVCvPlot@@@Z ; std::_Vector_iterator<CvPlot *,std::allocator<CvPlot *> >::_Vector_iterator<CvPlot *,std::allocator<CvPlot *> >
; Function compile flags: /Ogtpy
;	COMDAT ??0?$_Vector_iterator@PAVCvPlot@@V?$allocator@PAVCvPlot@@@std@@@std@@QAE@PAPAVCvPlot@@@Z
_TEXT	SEGMENT
__Ptr$ = 8						; size = 4
??0?$_Vector_iterator@PAVCvPlot@@V?$allocator@PAVCvPlot@@@std@@@std@@QAE@PAPAVCvPlot@@@Z PROC ; std::_Vector_iterator<CvPlot *,std::allocator<CvPlot *> >::_Vector_iterator<CvPlot *,std::allocator<CvPlot *> >, COMDAT
; _this$ = ecx

; 333  : 		{	// construct with pointer _Ptr

	mov	eax, ecx
	mov	ecx, DWORD PTR __Ptr$[esp-4]
	mov	DWORD PTR [eax], ecx

; 334  : 		}

	ret	4
??0?$_Vector_iterator@PAVCvPlot@@V?$allocator@PAVCvPlot@@@std@@@std@@QAE@PAPAVCvPlot@@@Z ENDP ; std::_Vector_iterator<CvPlot *,std::allocator<CvPlot *> >::_Vector_iterator<CvPlot *,std::allocator<CvPlot *> >
_TEXT	ENDS
PUBLIC	??8?$_Vector_const_iterator@W4PlayerTypes@@V?$allocator@W4PlayerTypes@@@std@@@std@@QBE_NABV01@@Z ; std::_Vector_const_iterator<enum PlayerTypes,std::allocator<enum PlayerTypes> >::operator==
; Function compile flags: /Ogtpy
;	COMDAT ??8?$_Vector_const_iterator@W4PlayerTypes@@V?$allocator@W4PlayerTypes@@@std@@@std@@QBE_NABV01@@Z
_TEXT	SEGMENT
__Right$ = 8						; size = 4
??8?$_Vector_const_iterator@W4PlayerTypes@@V?$allocator@W4PlayerTypes@@@std@@@std@@QBE_NABV01@@Z PROC ; std::_Vector_const_iterator<enum PlayerTypes,std::allocator<enum PlayerTypes> >::operator==, COMDAT
; _this$ = ecx

; 204  : 
; 205  :  #if _HAS_ITERATOR_DEBUGGING
; 206  : 		_Compat(_Right);
; 207  :  #else
; 208  : 		_SCL_SECURE_VALIDATE(this->_Has_container() && this->_Same_container(_Right));
; 209  :  #endif /* _HAS_ITERATOR_DEBUGGING */
; 210  : 
; 211  : 		return (_Myptr == _Right._Myptr);

	mov	eax, DWORD PTR [ecx]
	mov	edx, DWORD PTR __Right$[esp-4]
	xor	ecx, ecx
	cmp	eax, DWORD PTR [edx]
	sete	cl
	mov	al, cl

; 212  : 		}

	ret	4
??8?$_Vector_const_iterator@W4PlayerTypes@@V?$allocator@W4PlayerTypes@@@std@@@std@@QBE_NABV01@@Z ENDP ; std::_Vector_const_iterator<enum PlayerTypes,std::allocator<enum PlayerTypes> >::operator==
_TEXT	ENDS
PUBLIC	?formatv@CvString@@SA_NAAV?$basic_string@DU?$char_traits@D@std@@V?$allocator@D@2@@std@@PBDPAD@Z ; CvString::formatv
EXTRN	__imp_??4?$basic_string@DU?$char_traits@D@std@@V?$allocator@D@2@@std@@QAEAAV01@PBD@Z:PROC
EXTRN	??_U@YAPAXI@Z:PROC				; operator new[]
EXTRN	??_V@YAXPAX@Z:PROC				; operator delete[]
EXTRN	__imp___vsnprintf:PROC
; Function compile flags: /Ogtpy
; File c:\users\enormousapplepie\documents\github\lekmod\lekmod_dll\cvgamecoredllutil\include\cvstring.h
;	COMDAT ?formatv@CvString@@SA_NAAV?$basic_string@DU?$char_traits@D@std@@V?$allocator@D@2@@std@@PBDPAD@Z
_TEXT	SEGMENT
_buf$ = -2048						; size = 2048
_out$ = 8						; size = 4
_fmt$ = 12						; size = 4
_args$ = 16						; size = 4
?formatv@CvString@@SA_NAAV?$basic_string@DU?$char_traits@D@std@@V?$allocator@D@2@@std@@PBDPAD@Z PROC ; CvString::formatv, COMDAT

; 191  : {

	sub	esp, 2048				; 00000800H
	push	ebx
	push	ebp

; 192  : 	char buf[2048];
; 193  : 	char * pbuf = buf;

	mov	ebp, DWORD PTR _args$[esp+2052]
	push	esi
	push	edi
	lea	edi, DWORD PTR _buf$[esp+2064]
	mov	esi, 2047				; 000007ffH
	npad	6
$LL10@formatv:

; 194  : 	int len = 0;
; 195  : 	int attempts = 0;
; 196  : 	bool success = false;
; 197  : 	const int kMaxAttempts = 40;
; 198  : 
; 199  : 	do
; 200  : 	{
; 201  : 		int maxlen = 2047+2048*attempts;
; 202  : 		len = _vsnprintf(pbuf,maxlen,fmt,args);

	mov	eax, DWORD PTR _fmt$[esp+2060]
	push	ebp
	push	eax
	push	esi
	push	edi
	mov	ebx, esi
	call	DWORD PTR __imp___vsnprintf
	add	esp, 16					; 00000010H

; 203  : 		attempts++;

	add	esi, 2048				; 00000800H

; 204  : 		success = (len>=0 && len<=maxlen);

	test	eax, eax
	jl	SHORT $LN13@formatv
	cmp	eax, ebx
	jle	SHORT $LN18@formatv
$LN13@formatv:

; 205  : 		if (!success)
; 206  : 		{
; 207  : 			if (pbuf!=buf)

	lea	ecx, DWORD PTR _buf$[esp+2064]
	xor	bl, bl
	cmp	edi, ecx
	je	SHORT $LN6@formatv

; 208  : 				delete [] pbuf;

	push	edi
	call	??_V@YAXPAX@Z				; operator delete[]
	add	esp, 4
$LN6@formatv:

; 209  : 			pbuf = new char[2048+2048*attempts];

	lea	edx, DWORD PTR [esi+1]
	push	edx
	call	??_U@YAPAXI@Z				; operator new[]
	add	esp, 4

; 210  : 		}
; 211  : 	}
; 212  : 	while (!success && attempts<kMaxAttempts);

	cmp	esi, 83967				; 000147ffH
	mov	edi, eax
	jl	SHORT $LL10@formatv

; 222  : 		out = "";

	push	OFFSET ??_C@_00CNPNBAHC@?$AA@
$LN21@formatv:
	mov	ecx, DWORD PTR _out$[esp+2064]
	call	DWORD PTR __imp_??4?$basic_string@DU?$char_traits@D@std@@V?$allocator@D@2@@std@@QAEAAV01@PBD@Z

; 223  : 
; 224  : 	if (pbuf!=buf)

	lea	eax, DWORD PTR _buf$[esp+2064]
	cmp	edi, eax
	je	SHORT $LN20@formatv

; 225  : 		delete [] pbuf;

	push	edi
	call	??_V@YAXPAX@Z				; operator delete[]
	add	esp, 4
$LN20@formatv:
	pop	edi
	pop	esi
	pop	ebp

; 226  : 
; 227  : 	return success;

	mov	al, bl
	pop	ebx

; 228  : }

	add	esp, 2048				; 00000800H
	ret	0
$LN18@formatv:

; 204  : 		success = (len>=0 && len<=maxlen);

	mov	bl, 1

; 213  : 
; 214  : 	if ( attempts==kMaxAttempts )
; 215  : 	{
; 216  : 		// dxPrintNL( "CvString::formatv - Max reallocs occurred while formatting string. Result is likely truncated!", 0 );
; 217  : 	}
; 218  : 
; 219  : 	if (success)
; 220  : 		out = pbuf;

	push	edi

; 221  : 	else

	jmp	SHORT $LN21@formatv
?formatv@CvString@@SA_NAAV?$basic_string@DU?$char_traits@D@std@@V?$allocator@D@2@@std@@PBDPAD@Z ENDP ; CvString::formatv
_TEXT	ENDS
PUBLIC	?Format@CvString@@QAAXPBDZZ			; CvString::Format
;	COMDAT xdata$x
xdata$x	SEGMENT
__unwindtable$?Format@CvString@@QAAXPBDZZ DD 0ffffffffH
	DD	FLAT:__unwindfunclet$?Format@CvString@@QAAXPBDZZ$0
__ehfuncinfo$?Format@CvString@@QAAXPBDZZ DD 019930522H
	DD	01H
	DD	FLAT:__unwindtable$?Format@CvString@@QAAXPBDZZ
	DD	2 DUP(00H)
	DD	2 DUP(00H)
	DD	00H
	DD	01H
; Function compile flags: /Ogtpy
xdata$x	ENDS
;	COMDAT ?Format@CvString@@QAAXPBDZZ
_TEXT	SEGMENT
_result$ = -40						; size = 28
__$EHRec$ = -12						; size = 12
_this$ = 8						; size = 4
_lpszFormat$ = 12					; size = 4
?Format@CvString@@QAAXPBDZZ PROC			; CvString::Format, COMDAT

; 269  : {

	push	-1
	push	__ehhandler$?Format@CvString@@QAAXPBDZZ
	mov	eax, DWORD PTR fs:0
	push	eax
	mov	DWORD PTR fs:0, esp
	sub	esp, 28					; 0000001cH

; 270  : 	std::string result;

	lea	ecx, DWORD PTR _result$[esp+40]
	call	DWORD PTR __imp_??0?$basic_string@DU?$char_traits@D@std@@V?$allocator@D@2@@std@@QAE@XZ

; 271  : 	va_list args;
; 272  : 	va_start(args,lpszFormat);
; 273  : 	formatv(result,lpszFormat,args);

	mov	ecx, DWORD PTR _lpszFormat$[esp+36]
	lea	eax, DWORD PTR _lpszFormat$[esp+40]
	push	eax
	push	ecx
	lea	edx, DWORD PTR _result$[esp+48]
	push	edx
	mov	DWORD PTR __$EHRec$[esp+60], 0
	call	?formatv@CvString@@SA_NAAV?$basic_string@DU?$char_traits@D@std@@V?$allocator@D@2@@std@@PBDPAD@Z ; CvString::formatv
	add	esp, 12					; 0000000cH

; 274  : 	va_end(args);
; 275  : 	*this = result;

	lea	ecx, DWORD PTR _result$[esp+40]
	call	DWORD PTR __imp_?c_str@?$basic_string@DU?$char_traits@D@std@@V?$allocator@D@2@@std@@QBEPBDXZ
	mov	ecx, DWORD PTR _this$[esp+36]
	push	eax
	call	DWORD PTR __imp_?assign@?$basic_string@DU?$char_traits@D@std@@V?$allocator@D@2@@std@@QAEAAV12@PBD@Z

; 276  : }

	lea	ecx, DWORD PTR _result$[esp+40]
	mov	DWORD PTR __$EHRec$[esp+48], -1
	call	DWORD PTR __imp_??1?$basic_string@DU?$char_traits@D@std@@V?$allocator@D@2@@std@@QAE@XZ
	mov	ecx, DWORD PTR __$EHRec$[esp+40]
	mov	DWORD PTR fs:0, ecx
	add	esp, 40					; 00000028H
	ret	0
_TEXT	ENDS
;	COMDAT text$x
text$x	SEGMENT
__unwindfunclet$?Format@CvString@@QAAXPBDZZ$0:
	lea	ecx, DWORD PTR _result$[ebp]
	jmp	DWORD PTR __imp_??1?$basic_string@DU?$char_traits@D@std@@V?$allocator@D@2@@std@@QAE@XZ
__ehhandler$?Format@CvString@@QAAXPBDZZ:
	mov	eax, OFFSET __ehfuncinfo$?Format@CvString@@QAAXPBDZZ
	jmp	___CxxFrameHandler3
text$x	ENDS
?Format@CvString@@QAAXPBDZZ ENDP			; CvString::Format
PUBLIC	__TI3?AVlength_error@std@@
PUBLIC	??_C@_0BD@OLBABOEK@vector?$DMT?$DO?5too?5long?$AA@ ; `string'
PUBLIC	?_Xlen@?$vector@VCvGreatWorkBuildingInMyEmpire@@V?$allocator@VCvGreatWorkBuildingInMyEmpire@@@std@@@std@@KAXXZ ; std::vector<CvGreatWorkBuildingInMyEmpire,std::allocator<CvGreatWorkBuildingInMyEmpire> >::_Xlen
PUBLIC	__CTA3?AVlength_error@std@@
PUBLIC	__CT??_R0?AVlength_error@std@@@8??0length_error@std@@QAE@ABV01@@Z40
PUBLIC	??0length_error@std@@QAE@ABV01@@Z		; std::length_error::length_error
PUBLIC	__CT??_R0?AVlogic_error@std@@@8??0logic_error@std@@QAE@ABV01@@Z40
PUBLIC	??0logic_error@std@@QAE@ABV01@@Z		; std::logic_error::logic_error
PUBLIC	__CT??_R0?AVexception@std@@@8??0exception@std@@QAE@ABV01@@Z12
EXTRN	__CxxThrowException@8:PROC
EXTRN	??0exception@std@@QAE@ABV01@@Z:PROC		; std::exception::exception
;	COMDAT __CT??_R0?AVexception@std@@@8??0exception@std@@QAE@ABV01@@Z12
; File c:\program files (x86)\microsoft visual studio 9.0\vc\include\stdexcept
xdata$x	SEGMENT
__CT??_R0?AVexception@std@@@8??0exception@std@@QAE@ABV01@@Z12 DD 00H
	DD	FLAT:??_R0?AVexception@std@@@8
	DD	00H
	DD	0ffffffffH
	ORG $+4
	DD	0cH
	DD	FLAT:??0exception@std@@QAE@ABV01@@Z
xdata$x	ENDS
;	COMDAT __CT??_R0?AVlogic_error@std@@@8??0logic_error@std@@QAE@ABV01@@Z40
xdata$x	SEGMENT
__CT??_R0?AVlogic_error@std@@@8??0logic_error@std@@QAE@ABV01@@Z40 DD 00H
	DD	FLAT:??_R0?AVlogic_error@std@@@8
	DD	00H
	DD	0ffffffffH
	ORG $+4
	DD	028H
	DD	FLAT:??0logic_error@std@@QAE@ABV01@@Z
xdata$x	ENDS
;	COMDAT __CT??_R0?AVlength_error@std@@@8??0length_error@std@@QAE@ABV01@@Z40
xdata$x	SEGMENT
__CT??_R0?AVlength_error@std@@@8??0length_error@std@@QAE@ABV01@@Z40 DD 00H
	DD	FLAT:??_R0?AVlength_error@std@@@8
	DD	00H
	DD	0ffffffffH
	ORG $+4
	DD	028H
	DD	FLAT:??0length_error@std@@QAE@ABV01@@Z
xdata$x	ENDS
;	COMDAT __CTA3?AVlength_error@std@@
xdata$x	SEGMENT
__CTA3?AVlength_error@std@@ DD 03H
	DD	FLAT:__CT??_R0?AVlength_error@std@@@8??0length_error@std@@QAE@ABV01@@Z40
	DD	FLAT:__CT??_R0?AVlogic_error@std@@@8??0logic_error@std@@QAE@ABV01@@Z40
	DD	FLAT:__CT??_R0?AVexception@std@@@8??0exception@std@@QAE@ABV01@@Z12
xdata$x	ENDS
;	COMDAT __TI3?AVlength_error@std@@
xdata$x	SEGMENT
__TI3?AVlength_error@std@@ DD 00H
	DD	FLAT:??1length_error@std@@UAE@XZ
	DD	00H
	DD	FLAT:__CTA3?AVlength_error@std@@
xdata$x	ENDS
;	COMDAT ??_C@_0BD@OLBABOEK@vector?$DMT?$DO?5too?5long?$AA@
CONST	SEGMENT
??_C@_0BD@OLBABOEK@vector?$DMT?$DO?5too?5long?$AA@ DB 'vector<T> too long'
	DB	00H						; `string'
CONST	ENDS
;	COMDAT xdata$x
xdata$x	SEGMENT
__unwindtable$?_Xlen@?$vector@VCvGreatWorkBuildingInMyEmpire@@V?$allocator@VCvGreatWorkBuildingInMyEmpire@@@std@@@std@@KAXXZ DD 0ffffffffH
	DD	FLAT:__unwindfunclet$?_Xlen@?$vector@VCvGreatWorkBuildingInMyEmpire@@V?$allocator@VCvGreatWorkBuildingInMyEmpire@@@std@@@std@@KAXXZ$0
	DD	00H
	DD	FLAT:__unwindfunclet$?_Xlen@?$vector@VCvGreatWorkBuildingInMyEmpire@@V?$allocator@VCvGreatWorkBuildingInMyEmpire@@@std@@@std@@KAXXZ$2
__ehfuncinfo$?_Xlen@?$vector@VCvGreatWorkBuildingInMyEmpire@@V?$allocator@VCvGreatWorkBuildingInMyEmpire@@@std@@@std@@KAXXZ DD 019930522H
	DD	02H
	DD	FLAT:__unwindtable$?_Xlen@?$vector@VCvGreatWorkBuildingInMyEmpire@@V?$allocator@VCvGreatWorkBuildingInMyEmpire@@@std@@@std@@KAXXZ
	DD	2 DUP(00H)
	DD	2 DUP(00H)
	DD	00H
	DD	01H
; Function compile flags: /Ogtpy
; File c:\program files (x86)\microsoft visual studio 9.0\vc\include\vector
xdata$x	ENDS
;	COMDAT ?_Xlen@?$vector@VCvGreatWorkBuildingInMyEmpire@@V?$allocator@VCvGreatWorkBuildingInMyEmpire@@@std@@@std@@KAXXZ
_TEXT	SEGMENT
$T233099 = -80						; size = 28
$T233098 = -52						; size = 40
__$EHRec$ = -12						; size = 12
?_Xlen@?$vector@VCvGreatWorkBuildingInMyEmpire@@V?$allocator@VCvGreatWorkBuildingInMyEmpire@@@std@@@std@@KAXXZ PROC ; std::vector<CvGreatWorkBuildingInMyEmpire,std::allocator<CvGreatWorkBuildingInMyEmpire> >::_Xlen, COMDAT

; 1259 : 		{	// report a length_error

	push	-1
	push	__ehhandler$?_Xlen@?$vector@VCvGreatWorkBuildingInMyEmpire@@V?$allocator@VCvGreatWorkBuildingInMyEmpire@@@std@@@std@@KAXXZ
	mov	eax, DWORD PTR fs:0
	push	eax
	mov	DWORD PTR fs:0, esp
	sub	esp, 68					; 00000044H

; 1260 : 		_THROW(length_error, "vector<T> too long");

	push	OFFSET ??_C@_0BD@OLBABOEK@vector?$DMT?$DO?5too?5long?$AA@
	lea	ecx, DWORD PTR $T233099[esp+84]
	call	DWORD PTR __imp_??0?$basic_string@DU?$char_traits@D@std@@V?$allocator@D@2@@std@@QAE@PBD@Z
	lea	ecx, DWORD PTR $T233098[esp+80]
	mov	DWORD PTR __$EHRec$[esp+88], 0
	call	DWORD PTR __imp_??0exception@std@@QAE@XZ
	lea	eax, DWORD PTR $T233099[esp+80]
	push	eax
	lea	ecx, DWORD PTR $T233098[esp+96]
	mov	BYTE PTR __$EHRec$[esp+92], 1
	mov	DWORD PTR $T233098[esp+84], OFFSET ??_7logic_error@std@@6B@
	call	DWORD PTR __imp_??0?$basic_string@DU?$char_traits@D@std@@V?$allocator@D@2@@std@@QAE@ABV01@@Z
	push	OFFSET __TI3?AVlength_error@std@@
	lea	ecx, DWORD PTR $T233098[esp+84]
	push	ecx
	mov	BYTE PTR __$EHRec$[esp+96], 0
	mov	DWORD PTR $T233098[esp+88], OFFSET ??_7length_error@std@@6B@
	call	__CxxThrowException@8
$LN13@Xlen:
$LN12@Xlen:
	int	3
_TEXT	ENDS
;	COMDAT text$x
text$x	SEGMENT
__unwindfunclet$?_Xlen@?$vector@VCvGreatWorkBuildingInMyEmpire@@V?$allocator@VCvGreatWorkBuildingInMyEmpire@@@std@@@std@@KAXXZ$0:
	lea	ecx, DWORD PTR $T233099[ebp]
	jmp	DWORD PTR __imp_??1?$basic_string@DU?$char_traits@D@std@@V?$allocator@D@2@@std@@QAE@XZ
__unwindfunclet$?_Xlen@?$vector@VCvGreatWorkBuildingInMyEmpire@@V?$allocator@VCvGreatWorkBuildingInMyEmpire@@@std@@@std@@KAXXZ$2:
	lea	ecx, DWORD PTR $T233098[ebp]
	jmp	DWORD PTR __imp_??1exception@std@@UAE@XZ
__ehhandler$?_Xlen@?$vector@VCvGreatWorkBuildingInMyEmpire@@V?$allocator@VCvGreatWorkBuildingInMyEmpire@@@std@@@std@@KAXXZ:
	mov	eax, OFFSET __ehfuncinfo$?_Xlen@?$vector@VCvGreatWorkBuildingInMyEmpire@@V?$allocator@VCvGreatWorkBuildingInMyEmpire@@@std@@@std@@KAXXZ
	jmp	___CxxFrameHandler3
text$x	ENDS
?_Xlen@?$vector@VCvGreatWorkBuildingInMyEmpire@@V?$allocator@VCvGreatWorkBuildingInMyEmpire@@@std@@@std@@KAXXZ ENDP ; std::vector<CvGreatWorkBuildingInMyEmpire,std::allocator<CvGreatWorkBuildingInMyEmpire> >::_Xlen
EXTRN	__imp_??0exception@std@@QAE@ABV01@@Z:PROC
;	COMDAT xdata$x
xdata$x	SEGMENT
__unwindtable$??0logic_error@std@@QAE@ABV01@@Z DD 0ffffffffH
	DD	FLAT:__unwindfunclet$??0logic_error@std@@QAE@ABV01@@Z$0
__ehfuncinfo$??0logic_error@std@@QAE@ABV01@@Z DD 019930522H
	DD	01H
	DD	FLAT:__unwindtable$??0logic_error@std@@QAE@ABV01@@Z
	DD	2 DUP(00H)
	DD	2 DUP(00H)
	DD	00H
	DD	01H
; Function compile flags: /Ogtpy
xdata$x	ENDS
;	COMDAT ??0logic_error@std@@QAE@ABV01@@Z
_TEXT	SEGMENT
_this$ = -16						; size = 4
__$EHRec$ = -12						; size = 12
___that$ = 8						; size = 4
??0logic_error@std@@QAE@ABV01@@Z PROC			; std::logic_error::logic_error, COMDAT
; _this$ = ecx
	push	-1
	push	__ehhandler$??0logic_error@std@@QAE@ABV01@@Z
	mov	eax, DWORD PTR fs:0
	push	eax
	mov	DWORD PTR fs:0, esp
	push	ecx
	push	esi
	push	edi
	mov	edi, DWORD PTR ___that$[esp+20]
	mov	esi, ecx
	push	edi
	mov	DWORD PTR _this$[esp+28], esi
	call	DWORD PTR __imp_??0exception@std@@QAE@ABV01@@Z
	add	edi, 12					; 0000000cH
	push	edi
	lea	ecx, DWORD PTR [esi+12]
	mov	DWORD PTR __$EHRec$[esp+36], 0
	mov	DWORD PTR [esi], OFFSET ??_7logic_error@std@@6B@
	call	DWORD PTR __imp_??0?$basic_string@DU?$char_traits@D@std@@V?$allocator@D@2@@std@@QAE@ABV01@@Z
	mov	ecx, DWORD PTR __$EHRec$[esp+24]
	pop	edi
	mov	eax, esi
	pop	esi
	mov	DWORD PTR fs:0, ecx
	add	esp, 16					; 00000010H
	ret	4
_TEXT	ENDS
;	COMDAT text$x
text$x	SEGMENT
__unwindfunclet$??0logic_error@std@@QAE@ABV01@@Z$0:
	mov	ecx, DWORD PTR _this$[ebp]
	jmp	DWORD PTR __imp_??1exception@std@@UAE@XZ
__ehhandler$??0logic_error@std@@QAE@ABV01@@Z:
	mov	eax, OFFSET __ehfuncinfo$??0logic_error@std@@QAE@ABV01@@Z
	jmp	___CxxFrameHandler3
text$x	ENDS
??0logic_error@std@@QAE@ABV01@@Z ENDP			; std::logic_error::logic_error
PUBLIC	??0?$_Container_base_aux_alloc_empty@V?$allocator@VCvGreatWorkBuildingInMyEmpire@@@std@@@std@@IAE@V?$allocator@VCvGreatWorkBuildingInMyEmpire@@@1@@Z ; std::_Container_base_aux_alloc_empty<std::allocator<CvGreatWorkBuildingInMyEmpire> >::_Container_base_aux_alloc_empty<std::allocator<CvGreatWorkBuildingInMyEmpire> >
; Function compile flags: /Ogtpy
; File c:\program files (x86)\microsoft visual studio 9.0\vc\include\xutility
;	COMDAT ??0?$_Container_base_aux_alloc_empty@V?$allocator@VCvGreatWorkBuildingInMyEmpire@@@std@@@std@@IAE@V?$allocator@VCvGreatWorkBuildingInMyEmpire@@@1@@Z
_TEXT	SEGMENT
___formal$ = 8						; size = 1
??0?$_Container_base_aux_alloc_empty@V?$allocator@VCvGreatWorkBuildingInMyEmpire@@@std@@@std@@IAE@V?$allocator@VCvGreatWorkBuildingInMyEmpire@@@1@@Z PROC ; std::_Container_base_aux_alloc_empty<std::allocator<CvGreatWorkBuildingInMyEmpire> >::_Container_base_aux_alloc_empty<std::allocator<CvGreatWorkBuildingInMyEmpire> >, COMDAT
; _this$ = ecx

; 618  : 	explicit _Container_base_aux_alloc_empty(_Alloc) { }

	mov	eax, ecx
	ret	4
??0?$_Container_base_aux_alloc_empty@V?$allocator@VCvGreatWorkBuildingInMyEmpire@@@std@@@std@@IAE@V?$allocator@VCvGreatWorkBuildingInMyEmpire@@@1@@Z ENDP ; std::_Container_base_aux_alloc_empty<std::allocator<CvGreatWorkBuildingInMyEmpire> >::_Container_base_aux_alloc_empty<std::allocator<CvGreatWorkBuildingInMyEmpire> >
_TEXT	ENDS
PUBLIC	??0?$allocator@VCvGreatWorkBuildingInMyEmpire@@@std@@QAE@ABV01@@Z ; std::allocator<CvGreatWorkBuildingInMyEmpire>::allocator<CvGreatWorkBuildingInMyEmpire>
; Function compile flags: /Ogtpy
; File c:\program files (x86)\microsoft visual studio 9.0\vc\include\xmemory
;	COMDAT ??0?$allocator@VCvGreatWorkBuildingInMyEmpire@@@std@@QAE@ABV01@@Z
_TEXT	SEGMENT
___formal$ = 8						; size = 4
??0?$allocator@VCvGreatWorkBuildingInMyEmpire@@@std@@QAE@ABV01@@Z PROC ; std::allocator<CvGreatWorkBuildingInMyEmpire>::allocator<CvGreatWorkBuildingInMyEmpire>, COMDAT
; _this$ = ecx

; 123  : 	allocator(const allocator<_Ty>&) _THROW0()

	mov	eax, ecx

; 124  : 		{	// construct by copying (do nothing)
; 125  : 		}

	ret	4
??0?$allocator@VCvGreatWorkBuildingInMyEmpire@@@std@@QAE@ABV01@@Z ENDP ; std::allocator<CvGreatWorkBuildingInMyEmpire>::allocator<CvGreatWorkBuildingInMyEmpire>
_TEXT	ENDS
PUBLIC	?deallocate@?$allocator@VCvGreatWorkBuildingInMyEmpire@@@std@@QAEXPAVCvGreatWorkBuildingInMyEmpire@@I@Z ; std::allocator<CvGreatWorkBuildingInMyEmpire>::deallocate
; Function compile flags: /Ogtpy
;	COMDAT ?deallocate@?$allocator@VCvGreatWorkBuildingInMyEmpire@@@std@@QAEXPAVCvGreatWorkBuildingInMyEmpire@@I@Z
_TEXT	SEGMENT
__Ptr$ = 8						; size = 4
___formal$ = 12						; size = 4
?deallocate@?$allocator@VCvGreatWorkBuildingInMyEmpire@@@std@@QAEXPAVCvGreatWorkBuildingInMyEmpire@@I@Z PROC ; std::allocator<CvGreatWorkBuildingInMyEmpire>::deallocate, COMDAT
; _this$ = ecx

; 140  : 		::operator delete(_Ptr);

	mov	eax, DWORD PTR __Ptr$[esp-4]
	push	eax
	call	??3@YAXPAX@Z				; operator delete
	pop	ecx

; 141  : 		}

	ret	8
?deallocate@?$allocator@VCvGreatWorkBuildingInMyEmpire@@@std@@QAEXPAVCvGreatWorkBuildingInMyEmpire@@I@Z ENDP ; std::allocator<CvGreatWorkBuildingInMyEmpire>::deallocate
_TEXT	ENDS
PUBLIC	?_Xlen@?$vector@PAVCvPlot@@V?$allocator@PAVCvPlot@@@std@@@std@@KAXXZ ; std::vector<CvPlot *,std::allocator<CvPlot *> >::_Xlen
;	COMDAT xdata$x
; File c:\program files (x86)\microsoft visual studio 9.0\vc\include\stdexcept
xdata$x	SEGMENT
__unwindtable$?_Xlen@?$vector@PAVCvPlot@@V?$allocator@PAVCvPlot@@@std@@@std@@KAXXZ DD 0ffffffffH
	DD	FLAT:__unwindfunclet$?_Xlen@?$vector@PAVCvPlot@@V?$allocator@PAVCvPlot@@@std@@@std@@KAXXZ$0
	DD	00H
	DD	FLAT:__unwindfunclet$?_Xlen@?$vector@PAVCvPlot@@V?$allocator@PAVCvPlot@@@std@@@std@@KAXXZ$2
__ehfuncinfo$?_Xlen@?$vector@PAVCvPlot@@V?$allocator@PAVCvPlot@@@std@@@std@@KAXXZ DD 019930522H
	DD	02H
	DD	FLAT:__unwindtable$?_Xlen@?$vector@PAVCvPlot@@V?$allocator@PAVCvPlot@@@std@@@std@@KAXXZ
	DD	2 DUP(00H)
	DD	2 DUP(00H)
	DD	00H
	DD	01H
; Function compile flags: /Ogtpy
; File c:\program files (x86)\microsoft visual studio 9.0\vc\include\vector
xdata$x	ENDS
;	COMDAT ?_Xlen@?$vector@PAVCvPlot@@V?$allocator@PAVCvPlot@@@std@@@std@@KAXXZ
_TEXT	SEGMENT
$T233145 = -80						; size = 28
$T233144 = -52						; size = 40
__$EHRec$ = -12						; size = 12
?_Xlen@?$vector@PAVCvPlot@@V?$allocator@PAVCvPlot@@@std@@@std@@KAXXZ PROC ; std::vector<CvPlot *,std::allocator<CvPlot *> >::_Xlen, COMDAT

; 1259 : 		{	// report a length_error

	push	-1
	push	__ehhandler$?_Xlen@?$vector@PAVCvPlot@@V?$allocator@PAVCvPlot@@@std@@@std@@KAXXZ
	mov	eax, DWORD PTR fs:0
	push	eax
	mov	DWORD PTR fs:0, esp
	sub	esp, 68					; 00000044H

; 1260 : 		_THROW(length_error, "vector<T> too long");

	push	OFFSET ??_C@_0BD@OLBABOEK@vector?$DMT?$DO?5too?5long?$AA@
	lea	ecx, DWORD PTR $T233145[esp+84]
	call	DWORD PTR __imp_??0?$basic_string@DU?$char_traits@D@std@@V?$allocator@D@2@@std@@QAE@PBD@Z
	lea	ecx, DWORD PTR $T233144[esp+80]
	mov	DWORD PTR __$EHRec$[esp+88], 0
	call	DWORD PTR __imp_??0exception@std@@QAE@XZ
	lea	eax, DWORD PTR $T233145[esp+80]
	push	eax
	lea	ecx, DWORD PTR $T233144[esp+96]
	mov	BYTE PTR __$EHRec$[esp+92], 1
	mov	DWORD PTR $T233144[esp+84], OFFSET ??_7logic_error@std@@6B@
	call	DWORD PTR __imp_??0?$basic_string@DU?$char_traits@D@std@@V?$allocator@D@2@@std@@QAE@ABV01@@Z
	push	OFFSET __TI3?AVlength_error@std@@
	lea	ecx, DWORD PTR $T233144[esp+84]
	push	ecx
	mov	BYTE PTR __$EHRec$[esp+96], 0
	mov	DWORD PTR $T233144[esp+88], OFFSET ??_7length_error@std@@6B@
	call	__CxxThrowException@8
$LN13@Xlen@2:
$LN12@Xlen@2:
	int	3
_TEXT	ENDS
;	COMDAT text$x
text$x	SEGMENT
__unwindfunclet$?_Xlen@?$vector@PAVCvPlot@@V?$allocator@PAVCvPlot@@@std@@@std@@KAXXZ$0:
	lea	ecx, DWORD PTR $T233145[ebp]
	jmp	DWORD PTR __imp_??1?$basic_string@DU?$char_traits@D@std@@V?$allocator@D@2@@std@@QAE@XZ
__unwindfunclet$?_Xlen@?$vector@PAVCvPlot@@V?$allocator@PAVCvPlot@@@std@@@std@@KAXXZ$2:
	lea	ecx, DWORD PTR $T233144[ebp]
	jmp	DWORD PTR __imp_??1exception@std@@UAE@XZ
__ehhandler$?_Xlen@?$vector@PAVCvPlot@@V?$allocator@PAVCvPlot@@@std@@@std@@KAXXZ:
	mov	eax, OFFSET __ehfuncinfo$?_Xlen@?$vector@PAVCvPlot@@V?$allocator@PAVCvPlot@@@std@@@std@@KAXXZ
	jmp	___CxxFrameHandler3
text$x	ENDS
?_Xlen@?$vector@PAVCvPlot@@V?$allocator@PAVCvPlot@@@std@@@std@@KAXXZ ENDP ; std::vector<CvPlot *,std::allocator<CvPlot *> >::_Xlen
PUBLIC	??0?$_Container_base_aux_alloc_empty@V?$allocator@PAVCvPlot@@@std@@@std@@IAE@V?$allocator@PAVCvPlot@@@1@@Z ; std::_Container_base_aux_alloc_empty<std::allocator<CvPlot *> >::_Container_base_aux_alloc_empty<std::allocator<CvPlot *> >
; Function compile flags: /Ogtpy
; File c:\program files (x86)\microsoft visual studio 9.0\vc\include\xutility
;	COMDAT ??0?$_Container_base_aux_alloc_empty@V?$allocator@PAVCvPlot@@@std@@@std@@IAE@V?$allocator@PAVCvPlot@@@1@@Z
_TEXT	SEGMENT
___formal$ = 8						; size = 1
??0?$_Container_base_aux_alloc_empty@V?$allocator@PAVCvPlot@@@std@@@std@@IAE@V?$allocator@PAVCvPlot@@@1@@Z PROC ; std::_Container_base_aux_alloc_empty<std::allocator<CvPlot *> >::_Container_base_aux_alloc_empty<std::allocator<CvPlot *> >, COMDAT
; _this$ = ecx

; 618  : 	explicit _Container_base_aux_alloc_empty(_Alloc) { }

	mov	eax, ecx
	ret	4
??0?$_Container_base_aux_alloc_empty@V?$allocator@PAVCvPlot@@@std@@@std@@IAE@V?$allocator@PAVCvPlot@@@1@@Z ENDP ; std::_Container_base_aux_alloc_empty<std::allocator<CvPlot *> >::_Container_base_aux_alloc_empty<std::allocator<CvPlot *> >
_TEXT	ENDS
PUBLIC	??0?$allocator@PAVCvPlot@@@std@@QAE@ABV01@@Z	; std::allocator<CvPlot *>::allocator<CvPlot *>
; Function compile flags: /Ogtpy
; File c:\program files (x86)\microsoft visual studio 9.0\vc\include\xmemory
;	COMDAT ??0?$allocator@PAVCvPlot@@@std@@QAE@ABV01@@Z
_TEXT	SEGMENT
___formal$ = 8						; size = 4
??0?$allocator@PAVCvPlot@@@std@@QAE@ABV01@@Z PROC	; std::allocator<CvPlot *>::allocator<CvPlot *>, COMDAT
; _this$ = ecx

; 123  : 	allocator(const allocator<_Ty>&) _THROW0()

	mov	eax, ecx

; 124  : 		{	// construct by copying (do nothing)
; 125  : 		}

	ret	4
??0?$allocator@PAVCvPlot@@@std@@QAE@ABV01@@Z ENDP	; std::allocator<CvPlot *>::allocator<CvPlot *>
_TEXT	ENDS
PUBLIC	?deallocate@?$allocator@PAVCvPlot@@@std@@QAEXPAPAVCvPlot@@I@Z ; std::allocator<CvPlot *>::deallocate
; Function compile flags: /Ogtpy
;	COMDAT ?deallocate@?$allocator@PAVCvPlot@@@std@@QAEXPAPAVCvPlot@@I@Z
_TEXT	SEGMENT
__Ptr$ = 8						; size = 4
___formal$ = 12						; size = 4
?deallocate@?$allocator@PAVCvPlot@@@std@@QAEXPAPAVCvPlot@@I@Z PROC ; std::allocator<CvPlot *>::deallocate, COMDAT
; _this$ = ecx

; 140  : 		::operator delete(_Ptr);

	mov	eax, DWORD PTR __Ptr$[esp-4]
	push	eax
	call	??3@YAXPAX@Z				; operator delete
	pop	ecx

; 141  : 		}

	ret	8
?deallocate@?$allocator@PAVCvPlot@@@std@@QAEXPAPAVCvPlot@@I@Z ENDP ; std::allocator<CvPlot *>::deallocate
_TEXT	ENDS
PUBLIC	?_Xlen@?$vector@W4PlayerTypes@@V?$allocator@W4PlayerTypes@@@std@@@std@@KAXXZ ; std::vector<enum PlayerTypes,std::allocator<enum PlayerTypes> >::_Xlen
;	COMDAT xdata$x
; File c:\program files (x86)\microsoft visual studio 9.0\vc\include\stdexcept
xdata$x	SEGMENT
__unwindtable$?_Xlen@?$vector@W4PlayerTypes@@V?$allocator@W4PlayerTypes@@@std@@@std@@KAXXZ DD 0ffffffffH
	DD	FLAT:__unwindfunclet$?_Xlen@?$vector@W4PlayerTypes@@V?$allocator@W4PlayerTypes@@@std@@@std@@KAXXZ$0
	DD	00H
	DD	FLAT:__unwindfunclet$?_Xlen@?$vector@W4PlayerTypes@@V?$allocator@W4PlayerTypes@@@std@@@std@@KAXXZ$2
__ehfuncinfo$?_Xlen@?$vector@W4PlayerTypes@@V?$allocator@W4PlayerTypes@@@std@@@std@@KAXXZ DD 019930522H
	DD	02H
	DD	FLAT:__unwindtable$?_Xlen@?$vector@W4PlayerTypes@@V?$allocator@W4PlayerTypes@@@std@@@std@@KAXXZ
	DD	2 DUP(00H)
	DD	2 DUP(00H)
	DD	00H
	DD	01H
; Function compile flags: /Ogtpy
; File c:\program files (x86)\microsoft visual studio 9.0\vc\include\vector
xdata$x	ENDS
;	COMDAT ?_Xlen@?$vector@W4PlayerTypes@@V?$allocator@W4PlayerTypes@@@std@@@std@@KAXXZ
_TEXT	SEGMENT
$T233179 = -80						; size = 28
$T233178 = -52						; size = 40
__$EHRec$ = -12						; size = 12
?_Xlen@?$vector@W4PlayerTypes@@V?$allocator@W4PlayerTypes@@@std@@@std@@KAXXZ PROC ; std::vector<enum PlayerTypes,std::allocator<enum PlayerTypes> >::_Xlen, COMDAT

; 1259 : 		{	// report a length_error

	push	-1
	push	__ehhandler$?_Xlen@?$vector@W4PlayerTypes@@V?$allocator@W4PlayerTypes@@@std@@@std@@KAXXZ
	mov	eax, DWORD PTR fs:0
	push	eax
	mov	DWORD PTR fs:0, esp
	sub	esp, 68					; 00000044H

; 1260 : 		_THROW(length_error, "vector<T> too long");

	push	OFFSET ??_C@_0BD@OLBABOEK@vector?$DMT?$DO?5too?5long?$AA@
	lea	ecx, DWORD PTR $T233179[esp+84]
	call	DWORD PTR __imp_??0?$basic_string@DU?$char_traits@D@std@@V?$allocator@D@2@@std@@QAE@PBD@Z
	lea	ecx, DWORD PTR $T233178[esp+80]
	mov	DWORD PTR __$EHRec$[esp+88], 0
	call	DWORD PTR __imp_??0exception@std@@QAE@XZ
	lea	eax, DWORD PTR $T233179[esp+80]
	push	eax
	lea	ecx, DWORD PTR $T233178[esp+96]
	mov	BYTE PTR __$EHRec$[esp+92], 1
	mov	DWORD PTR $T233178[esp+84], OFFSET ??_7logic_error@std@@6B@
	call	DWORD PTR __imp_??0?$basic_string@DU?$char_traits@D@std@@V?$allocator@D@2@@std@@QAE@ABV01@@Z
	push	OFFSET __TI3?AVlength_error@std@@
	lea	ecx, DWORD PTR $T233178[esp+84]
	push	ecx
	mov	BYTE PTR __$EHRec$[esp+96], 0
	mov	DWORD PTR $T233178[esp+88], OFFSET ??_7length_error@std@@6B@
	call	__CxxThrowException@8
$LN13@Xlen@3:
$LN12@Xlen@3:
	int	3
_TEXT	ENDS
;	COMDAT text$x
text$x	SEGMENT
__unwindfunclet$?_Xlen@?$vector@W4PlayerTypes@@V?$allocator@W4PlayerTypes@@@std@@@std@@KAXXZ$0:
	lea	ecx, DWORD PTR $T233179[ebp]
	jmp	DWORD PTR __imp_??1?$basic_string@DU?$char_traits@D@std@@V?$allocator@D@2@@std@@QAE@XZ
__unwindfunclet$?_Xlen@?$vector@W4PlayerTypes@@V?$allocator@W4PlayerTypes@@@std@@@std@@KAXXZ$2:
	lea	ecx, DWORD PTR $T233178[ebp]
	jmp	DWORD PTR __imp_??1exception@std@@UAE@XZ
__ehhandler$?_Xlen@?$vector@W4PlayerTypes@@V?$allocator@W4PlayerTypes@@@std@@@std@@KAXXZ:
	mov	eax, OFFSET __ehfuncinfo$?_Xlen@?$vector@W4PlayerTypes@@V?$allocator@W4PlayerTypes@@@std@@@std@@KAXXZ
	jmp	___CxxFrameHandler3
text$x	ENDS
?_Xlen@?$vector@W4PlayerTypes@@V?$allocator@W4PlayerTypes@@@std@@@std@@KAXXZ ENDP ; std::vector<enum PlayerTypes,std::allocator<enum PlayerTypes> >::_Xlen
PUBLIC	??0?$_Container_base_aux_alloc_empty@V?$allocator@W4PlayerTypes@@@std@@@std@@IAE@V?$allocator@W4PlayerTypes@@@1@@Z ; std::_Container_base_aux_alloc_empty<std::allocator<enum PlayerTypes> >::_Container_base_aux_alloc_empty<std::allocator<enum PlayerTypes> >
; Function compile flags: /Ogtpy
; File c:\program files (x86)\microsoft visual studio 9.0\vc\include\xutility
;	COMDAT ??0?$_Container_base_aux_alloc_empty@V?$allocator@W4PlayerTypes@@@std@@@std@@IAE@V?$allocator@W4PlayerTypes@@@1@@Z
_TEXT	SEGMENT
___formal$ = 8						; size = 1
??0?$_Container_base_aux_alloc_empty@V?$allocator@W4PlayerTypes@@@std@@@std@@IAE@V?$allocator@W4PlayerTypes@@@1@@Z PROC ; std::_Container_base_aux_alloc_empty<std::allocator<enum PlayerTypes> >::_Container_base_aux_alloc_empty<std::allocator<enum PlayerTypes> >, COMDAT
; _this$ = ecx

; 618  : 	explicit _Container_base_aux_alloc_empty(_Alloc) { }

	mov	eax, ecx
	ret	4
??0?$_Container_base_aux_alloc_empty@V?$allocator@W4PlayerTypes@@@std@@@std@@IAE@V?$allocator@W4PlayerTypes@@@1@@Z ENDP ; std::_Container_base_aux_alloc_empty<std::allocator<enum PlayerTypes> >::_Container_base_aux_alloc_empty<std::allocator<enum PlayerTypes> >
_TEXT	ENDS
PUBLIC	??0?$allocator@W4PlayerTypes@@@std@@QAE@ABV01@@Z ; std::allocator<enum PlayerTypes>::allocator<enum PlayerTypes>
; Function compile flags: /Ogtpy
; File c:\program files (x86)\microsoft visual studio 9.0\vc\include\xmemory
;	COMDAT ??0?$allocator@W4PlayerTypes@@@std@@QAE@ABV01@@Z
_TEXT	SEGMENT
___formal$ = 8						; size = 4
??0?$allocator@W4PlayerTypes@@@std@@QAE@ABV01@@Z PROC	; std::allocator<enum PlayerTypes>::allocator<enum PlayerTypes>, COMDAT
; _this$ = ecx

; 123  : 	allocator(const allocator<_Ty>&) _THROW0()

	mov	eax, ecx

; 124  : 		{	// construct by copying (do nothing)
; 125  : 		}

	ret	4
??0?$allocator@W4PlayerTypes@@@std@@QAE@ABV01@@Z ENDP	; std::allocator<enum PlayerTypes>::allocator<enum PlayerTypes>
_TEXT	ENDS
PUBLIC	?_Xlen@?$vector@VCvGreatWorkInMyEmpire@@V?$allocator@VCvGreatWorkInMyEmpire@@@std@@@std@@KAXXZ ; std::vector<CvGreatWorkInMyEmpire,std::allocator<CvGreatWorkInMyEmpire> >::_Xlen
;	COMDAT xdata$x
; File c:\program files (x86)\microsoft visual studio 9.0\vc\include\stdexcept
xdata$x	SEGMENT
__unwindtable$?_Xlen@?$vector@VCvGreatWorkInMyEmpire@@V?$allocator@VCvGreatWorkInMyEmpire@@@std@@@std@@KAXXZ DD 0ffffffffH
	DD	FLAT:__unwindfunclet$?_Xlen@?$vector@VCvGreatWorkInMyEmpire@@V?$allocator@VCvGreatWorkInMyEmpire@@@std@@@std@@KAXXZ$0
	DD	00H
	DD	FLAT:__unwindfunclet$?_Xlen@?$vector@VCvGreatWorkInMyEmpire@@V?$allocator@VCvGreatWorkInMyEmpire@@@std@@@std@@KAXXZ$2
__ehfuncinfo$?_Xlen@?$vector@VCvGreatWorkInMyEmpire@@V?$allocator@VCvGreatWorkInMyEmpire@@@std@@@std@@KAXXZ DD 019930522H
	DD	02H
	DD	FLAT:__unwindtable$?_Xlen@?$vector@VCvGreatWorkInMyEmpire@@V?$allocator@VCvGreatWorkInMyEmpire@@@std@@@std@@KAXXZ
	DD	2 DUP(00H)
	DD	2 DUP(00H)
	DD	00H
	DD	01H
; Function compile flags: /Ogtpy
; File c:\program files (x86)\microsoft visual studio 9.0\vc\include\vector
xdata$x	ENDS
;	COMDAT ?_Xlen@?$vector@VCvGreatWorkInMyEmpire@@V?$allocator@VCvGreatWorkInMyEmpire@@@std@@@std@@KAXXZ
_TEXT	SEGMENT
$T233210 = -80						; size = 28
$T233209 = -52						; size = 40
__$EHRec$ = -12						; size = 12
?_Xlen@?$vector@VCvGreatWorkInMyEmpire@@V?$allocator@VCvGreatWorkInMyEmpire@@@std@@@std@@KAXXZ PROC ; std::vector<CvGreatWorkInMyEmpire,std::allocator<CvGreatWorkInMyEmpire> >::_Xlen, COMDAT

; 1259 : 		{	// report a length_error

	push	-1
	push	__ehhandler$?_Xlen@?$vector@VCvGreatWorkInMyEmpire@@V?$allocator@VCvGreatWorkInMyEmpire@@@std@@@std@@KAXXZ
	mov	eax, DWORD PTR fs:0
	push	eax
	mov	DWORD PTR fs:0, esp
	sub	esp, 68					; 00000044H

; 1260 : 		_THROW(length_error, "vector<T> too long");

	push	OFFSET ??_C@_0BD@OLBABOEK@vector?$DMT?$DO?5too?5long?$AA@
	lea	ecx, DWORD PTR $T233210[esp+84]
	call	DWORD PTR __imp_??0?$basic_string@DU?$char_traits@D@std@@V?$allocator@D@2@@std@@QAE@PBD@Z
	lea	ecx, DWORD PTR $T233209[esp+80]
	mov	DWORD PTR __$EHRec$[esp+88], 0
	call	DWORD PTR __imp_??0exception@std@@QAE@XZ
	lea	eax, DWORD PTR $T233210[esp+80]
	push	eax
	lea	ecx, DWORD PTR $T233209[esp+96]
	mov	BYTE PTR __$EHRec$[esp+92], 1
	mov	DWORD PTR $T233209[esp+84], OFFSET ??_7logic_error@std@@6B@
	call	DWORD PTR __imp_??0?$basic_string@DU?$char_traits@D@std@@V?$allocator@D@2@@std@@QAE@ABV01@@Z
	push	OFFSET __TI3?AVlength_error@std@@
	lea	ecx, DWORD PTR $T233209[esp+84]
	push	ecx
	mov	BYTE PTR __$EHRec$[esp+96], 0
	mov	DWORD PTR $T233209[esp+88], OFFSET ??_7length_error@std@@6B@
	call	__CxxThrowException@8
$LN13@Xlen@4:
$LN12@Xlen@4:
	int	3
_TEXT	ENDS
;	COMDAT text$x
text$x	SEGMENT
__unwindfunclet$?_Xlen@?$vector@VCvGreatWorkInMyEmpire@@V?$allocator@VCvGreatWorkInMyEmpire@@@std@@@std@@KAXXZ$0:
	lea	ecx, DWORD PTR $T233210[ebp]
	jmp	DWORD PTR __imp_??1?$basic_string@DU?$char_traits@D@std@@V?$allocator@D@2@@std@@QAE@XZ
__unwindfunclet$?_Xlen@?$vector@VCvGreatWorkInMyEmpire@@V?$allocator@VCvGreatWorkInMyEmpire@@@std@@@std@@KAXXZ$2:
	lea	ecx, DWORD PTR $T233209[ebp]
	jmp	DWORD PTR __imp_??1exception@std@@UAE@XZ
__ehhandler$?_Xlen@?$vector@VCvGreatWorkInMyEmpire@@V?$allocator@VCvGreatWorkInMyEmpire@@@std@@@std@@KAXXZ:
	mov	eax, OFFSET __ehfuncinfo$?_Xlen@?$vector@VCvGreatWorkInMyEmpire@@V?$allocator@VCvGreatWorkInMyEmpire@@@std@@@std@@KAXXZ
	jmp	___CxxFrameHandler3
text$x	ENDS
?_Xlen@?$vector@VCvGreatWorkInMyEmpire@@V?$allocator@VCvGreatWorkInMyEmpire@@@std@@@std@@KAXXZ ENDP ; std::vector<CvGreatWorkInMyEmpire,std::allocator<CvGreatWorkInMyEmpire> >::_Xlen
PUBLIC	??0?$_Container_base_aux_alloc_empty@V?$allocator@VCvGreatWorkInMyEmpire@@@std@@@std@@IAE@V?$allocator@VCvGreatWorkInMyEmpire@@@1@@Z ; std::_Container_base_aux_alloc_empty<std::allocator<CvGreatWorkInMyEmpire> >::_Container_base_aux_alloc_empty<std::allocator<CvGreatWorkInMyEmpire> >
; Function compile flags: /Ogtpy
; File c:\program files (x86)\microsoft visual studio 9.0\vc\include\xutility
;	COMDAT ??0?$_Container_base_aux_alloc_empty@V?$allocator@VCvGreatWorkInMyEmpire@@@std@@@std@@IAE@V?$allocator@VCvGreatWorkInMyEmpire@@@1@@Z
_TEXT	SEGMENT
___formal$ = 8						; size = 1
??0?$_Container_base_aux_alloc_empty@V?$allocator@VCvGreatWorkInMyEmpire@@@std@@@std@@IAE@V?$allocator@VCvGreatWorkInMyEmpire@@@1@@Z PROC ; std::_Container_base_aux_alloc_empty<std::allocator<CvGreatWorkInMyEmpire> >::_Container_base_aux_alloc_empty<std::allocator<CvGreatWorkInMyEmpire> >, COMDAT
; _this$ = ecx

; 618  : 	explicit _Container_base_aux_alloc_empty(_Alloc) { }

	mov	eax, ecx
	ret	4
??0?$_Container_base_aux_alloc_empty@V?$allocator@VCvGreatWorkInMyEmpire@@@std@@@std@@IAE@V?$allocator@VCvGreatWorkInMyEmpire@@@1@@Z ENDP ; std::_Container_base_aux_alloc_empty<std::allocator<CvGreatWorkInMyEmpire> >::_Container_base_aux_alloc_empty<std::allocator<CvGreatWorkInMyEmpire> >
_TEXT	ENDS
PUBLIC	??0?$allocator@VCvGreatWorkInMyEmpire@@@std@@QAE@ABV01@@Z ; std::allocator<CvGreatWorkInMyEmpire>::allocator<CvGreatWorkInMyEmpire>
; Function compile flags: /Ogtpy
; File c:\program files (x86)\microsoft visual studio 9.0\vc\include\xmemory
;	COMDAT ??0?$allocator@VCvGreatWorkInMyEmpire@@@std@@QAE@ABV01@@Z
_TEXT	SEGMENT
___formal$ = 8						; size = 4
??0?$allocator@VCvGreatWorkInMyEmpire@@@std@@QAE@ABV01@@Z PROC ; std::allocator<CvGreatWorkInMyEmpire>::allocator<CvGreatWorkInMyEmpire>, COMDAT
; _this$ = ecx

; 123  : 	allocator(const allocator<_Ty>&) _THROW0()

	mov	eax, ecx

; 124  : 		{	// construct by copying (do nothing)
; 125  : 		}

	ret	4
??0?$allocator@VCvGreatWorkInMyEmpire@@@std@@QAE@ABV01@@Z ENDP ; std::allocator<CvGreatWorkInMyEmpire>::allocator<CvGreatWorkInMyEmpire>
_TEXT	ENDS
PUBLIC	??0?$_Vector_const_iterator@VCvGreatWorkBuildingInMyEmpire@@V?$allocator@VCvGreatWorkBuildingInMyEmpire@@@std@@@std@@QAE@PAVCvGreatWorkBuildingInMyEmpire@@@Z ; std::_Vector_const_iterator<CvGreatWorkBuildingInMyEmpire,std::allocator<CvGreatWorkBuildingInMyEmpire> >::_Vector_const_iterator<CvGreatWorkBuildingInMyEmpire,std::allocator<CvGreatWorkBuildingInMyEmpire> >
; Function compile flags: /Ogtpy
; File c:\program files (x86)\microsoft visual studio 9.0\vc\include\vector
;	COMDAT ??0?$_Vector_const_iterator@VCvGreatWorkBuildingInMyEmpire@@V?$allocator@VCvGreatWorkBuildingInMyEmpire@@@std@@@std@@QAE@PAVCvGreatWorkBuildingInMyEmpire@@@Z
_TEXT	SEGMENT
__Ptr$ = 8						; size = 4
??0?$_Vector_const_iterator@VCvGreatWorkBuildingInMyEmpire@@V?$allocator@VCvGreatWorkBuildingInMyEmpire@@@std@@@std@@QAE@PAVCvGreatWorkBuildingInMyEmpire@@@Z PROC ; std::_Vector_const_iterator<CvGreatWorkBuildingInMyEmpire,std::allocator<CvGreatWorkBuildingInMyEmpire> >::_Vector_const_iterator<CvGreatWorkBuildingInMyEmpire,std::allocator<CvGreatWorkBuildingInMyEmpire> >, COMDAT
; _this$ = ecx

; 84   : 	explicit _Vector_const_iterator(_Tptr _Ptr)

	mov	eax, ecx

; 85   : 		{	// construct with pointer _Ptr
; 86   : 		_Myptr = _Ptr;

	mov	ecx, DWORD PTR __Ptr$[esp-4]
	mov	DWORD PTR [eax], ecx

; 87   : 		}

	ret	4
??0?$_Vector_const_iterator@VCvGreatWorkBuildingInMyEmpire@@V?$allocator@VCvGreatWorkBuildingInMyEmpire@@@std@@@std@@QAE@PAVCvGreatWorkBuildingInMyEmpire@@@Z ENDP ; std::_Vector_const_iterator<CvGreatWorkBuildingInMyEmpire,std::allocator<CvGreatWorkBuildingInMyEmpire> >::_Vector_const_iterator<CvGreatWorkBuildingInMyEmpire,std::allocator<CvGreatWorkBuildingInMyEmpire> >
_TEXT	ENDS
PUBLIC	??E?$_Vector_const_iterator@VCvGreatWorkBuildingInMyEmpire@@V?$allocator@VCvGreatWorkBuildingInMyEmpire@@@std@@@std@@QAEAAV01@XZ ; std::_Vector_const_iterator<CvGreatWorkBuildingInMyEmpire,std::allocator<CvGreatWorkBuildingInMyEmpire> >::operator++
; Function compile flags: /Ogtpy
;	COMDAT ??E?$_Vector_const_iterator@VCvGreatWorkBuildingInMyEmpire@@V?$allocator@VCvGreatWorkBuildingInMyEmpire@@@std@@@std@@QAEAAV01@XZ
_TEXT	SEGMENT
??E?$_Vector_const_iterator@VCvGreatWorkBuildingInMyEmpire@@V?$allocator@VCvGreatWorkBuildingInMyEmpire@@@std@@@std@@QAEAAV01@XZ PROC ; std::_Vector_const_iterator<CvGreatWorkBuildingInMyEmpire,std::allocator<CvGreatWorkBuildingInMyEmpire> >::operator++, COMDAT
; _this$ = ecx

; 115  : 		{	// preincrement

	mov	eax, ecx

; 116  : 		_SCL_SECURE_VALIDATE(this->_Has_container());
; 117  : 		_SCL_SECURE_VALIDATE_RANGE(_Myptr < ((_Myvec *)(this->_Getmycont()))->_Mylast);
; 118  : 
; 119  :  #if _HAS_ITERATOR_DEBUGGING
; 120  : 		if (this->_Mycont == 0
; 121  : 			|| ((_Myvec *)this->_Mycont)->_Mylast <= _Myptr)
; 122  : 			_DEBUG_ERROR("vector iterator not incrementable");
; 123  :  #endif /* _HAS_ITERATOR_DEBUGGING */
; 124  : 
; 125  : 		++_Myptr;

	add	DWORD PTR [eax], 12			; 0000000cH

; 126  : 		return (*this);
; 127  : 		}

	ret	0
??E?$_Vector_const_iterator@VCvGreatWorkBuildingInMyEmpire@@V?$allocator@VCvGreatWorkBuildingInMyEmpire@@@std@@@std@@QAEAAV01@XZ ENDP ; std::_Vector_const_iterator<CvGreatWorkBuildingInMyEmpire,std::allocator<CvGreatWorkBuildingInMyEmpire> >::operator++
_TEXT	ENDS
PUBLIC	??G?$_Vector_const_iterator@VCvGreatWorkBuildingInMyEmpire@@V?$allocator@VCvGreatWorkBuildingInMyEmpire@@@std@@@std@@QBEHABV01@@Z ; std::_Vector_const_iterator<CvGreatWorkBuildingInMyEmpire,std::allocator<CvGreatWorkBuildingInMyEmpire> >::operator-
; Function compile flags: /Ogtpy
;	COMDAT ??G?$_Vector_const_iterator@VCvGreatWorkBuildingInMyEmpire@@V?$allocator@VCvGreatWorkBuildingInMyEmpire@@@std@@@std@@QBEHABV01@@Z
_TEXT	SEGMENT
__Right$ = 8						; size = 4
??G?$_Vector_const_iterator@VCvGreatWorkBuildingInMyEmpire@@V?$allocator@VCvGreatWorkBuildingInMyEmpire@@@std@@@std@@QBEHABV01@@Z PROC ; std::_Vector_const_iterator<CvGreatWorkBuildingInMyEmpire,std::allocator<CvGreatWorkBuildingInMyEmpire> >::operator-, COMDAT
; _this$ = ecx

; 187  : 
; 188  :  #if _HAS_ITERATOR_DEBUGGING
; 189  : 		_Compat(_Right);
; 190  :  #else
; 191  : 		_SCL_SECURE_VALIDATE(this->_Has_container() && this->_Same_container(_Right));
; 192  :  #endif /* _HAS_ITERATOR_DEBUGGING */
; 193  : 
; 194  : 		return (_Myptr - _Right._Myptr);

	mov	eax, DWORD PTR __Right$[esp-4]
	mov	ecx, DWORD PTR [ecx]
	sub	ecx, DWORD PTR [eax]
	mov	eax, 715827883				; 2aaaaaabH
	imul	ecx
	sar	edx, 1
	mov	eax, edx
	shr	eax, 31					; 0000001fH
	add	eax, edx

; 195  : 		}

	ret	4
??G?$_Vector_const_iterator@VCvGreatWorkBuildingInMyEmpire@@V?$allocator@VCvGreatWorkBuildingInMyEmpire@@@std@@@std@@QBEHABV01@@Z ENDP ; std::_Vector_const_iterator<CvGreatWorkBuildingInMyEmpire,std::allocator<CvGreatWorkBuildingInMyEmpire> >::operator-
_TEXT	ENDS
PUBLIC	??0?$_Vector_const_iterator@VCvGreatWorkInMyEmpire@@V?$allocator@VCvGreatWorkInMyEmpire@@@std@@@std@@QAE@PAVCvGreatWorkInMyEmpire@@@Z ; std::_Vector_const_iterator<CvGreatWorkInMyEmpire,std::allocator<CvGreatWorkInMyEmpire> >::_Vector_const_iterator<CvGreatWorkInMyEmpire,std::allocator<CvGreatWorkInMyEmpire> >
; Function compile flags: /Ogtpy
;	COMDAT ??0?$_Vector_const_iterator@VCvGreatWorkInMyEmpire@@V?$allocator@VCvGreatWorkInMyEmpire@@@std@@@std@@QAE@PAVCvGreatWorkInMyEmpire@@@Z
_TEXT	SEGMENT
__Ptr$ = 8						; size = 4
??0?$_Vector_const_iterator@VCvGreatWorkInMyEmpire@@V?$allocator@VCvGreatWorkInMyEmpire@@@std@@@std@@QAE@PAVCvGreatWorkInMyEmpire@@@Z PROC ; std::_Vector_const_iterator<CvGreatWorkInMyEmpire,std::allocator<CvGreatWorkInMyEmpire> >::_Vector_const_iterator<CvGreatWorkInMyEmpire,std::allocator<CvGreatWorkInMyEmpire> >, COMDAT
; _this$ = ecx

; 84   : 	explicit _Vector_const_iterator(_Tptr _Ptr)

	mov	eax, ecx

; 85   : 		{	// construct with pointer _Ptr
; 86   : 		_Myptr = _Ptr;

	mov	ecx, DWORD PTR __Ptr$[esp-4]
	mov	DWORD PTR [eax], ecx

; 87   : 		}

	ret	4
??0?$_Vector_const_iterator@VCvGreatWorkInMyEmpire@@V?$allocator@VCvGreatWorkInMyEmpire@@@std@@@std@@QAE@PAVCvGreatWorkInMyEmpire@@@Z ENDP ; std::_Vector_const_iterator<CvGreatWorkInMyEmpire,std::allocator<CvGreatWorkInMyEmpire> >::_Vector_const_iterator<CvGreatWorkInMyEmpire,std::allocator<CvGreatWorkInMyEmpire> >
_TEXT	ENDS
PUBLIC	??G?$_Vector_const_iterator@VCvGreatWorkInMyEmpire@@V?$allocator@VCvGreatWorkInMyEmpire@@@std@@@std@@QBEHABV01@@Z ; std::_Vector_const_iterator<CvGreatWorkInMyEmpire,std::allocator<CvGreatWorkInMyEmpire> >::operator-
; Function compile flags: /Ogtpy
;	COMDAT ??G?$_Vector_const_iterator@VCvGreatWorkInMyEmpire@@V?$allocator@VCvGreatWorkInMyEmpire@@@std@@@std@@QBEHABV01@@Z
_TEXT	SEGMENT
__Right$ = 8						; size = 4
??G?$_Vector_const_iterator@VCvGreatWorkInMyEmpire@@V?$allocator@VCvGreatWorkInMyEmpire@@@std@@@std@@QBEHABV01@@Z PROC ; std::_Vector_const_iterator<CvGreatWorkInMyEmpire,std::allocator<CvGreatWorkInMyEmpire> >::operator-, COMDAT
; _this$ = ecx

; 187  : 
; 188  :  #if _HAS_ITERATOR_DEBUGGING
; 189  : 		_Compat(_Right);
; 190  :  #else
; 191  : 		_SCL_SECURE_VALIDATE(this->_Has_container() && this->_Same_container(_Right));
; 192  :  #endif /* _HAS_ITERATOR_DEBUGGING */
; 193  : 
; 194  : 		return (_Myptr - _Right._Myptr);

	mov	eax, DWORD PTR __Right$[esp-4]
	mov	ecx, DWORD PTR [ecx]
	sub	ecx, DWORD PTR [eax]
	mov	eax, 715827883				; 2aaaaaabH
	imul	ecx
	sar	edx, 2
	mov	eax, edx
	shr	eax, 31					; 0000001fH
	add	eax, edx

; 195  : 		}

	ret	4
??G?$_Vector_const_iterator@VCvGreatWorkInMyEmpire@@V?$allocator@VCvGreatWorkInMyEmpire@@@std@@@std@@QBEHABV01@@Z ENDP ; std::_Vector_const_iterator<CvGreatWorkInMyEmpire,std::allocator<CvGreatWorkInMyEmpire> >::operator-
_TEXT	ENDS
PUBLIC	?_Xlen@?$vector@W4EraTypes@@V?$allocator@W4EraTypes@@@std@@@std@@KAXXZ ; std::vector<enum EraTypes,std::allocator<enum EraTypes> >::_Xlen
;	COMDAT xdata$x
; File c:\program files (x86)\microsoft visual studio 9.0\vc\include\stdexcept
xdata$x	SEGMENT
__unwindtable$?_Xlen@?$vector@W4EraTypes@@V?$allocator@W4EraTypes@@@std@@@std@@KAXXZ DD 0ffffffffH
	DD	FLAT:__unwindfunclet$?_Xlen@?$vector@W4EraTypes@@V?$allocator@W4EraTypes@@@std@@@std@@KAXXZ$0
	DD	00H
	DD	FLAT:__unwindfunclet$?_Xlen@?$vector@W4EraTypes@@V?$allocator@W4EraTypes@@@std@@@std@@KAXXZ$2
__ehfuncinfo$?_Xlen@?$vector@W4EraTypes@@V?$allocator@W4EraTypes@@@std@@@std@@KAXXZ DD 019930522H
	DD	02H
	DD	FLAT:__unwindtable$?_Xlen@?$vector@W4EraTypes@@V?$allocator@W4EraTypes@@@std@@@std@@KAXXZ
	DD	2 DUP(00H)
	DD	2 DUP(00H)
	DD	00H
	DD	01H
; Function compile flags: /Ogtpy
; File c:\program files (x86)\microsoft visual studio 9.0\vc\include\vector
xdata$x	ENDS
;	COMDAT ?_Xlen@?$vector@W4EraTypes@@V?$allocator@W4EraTypes@@@std@@@std@@KAXXZ
_TEXT	SEGMENT
$T233256 = -80						; size = 28
$T233255 = -52						; size = 40
__$EHRec$ = -12						; size = 12
?_Xlen@?$vector@W4EraTypes@@V?$allocator@W4EraTypes@@@std@@@std@@KAXXZ PROC ; std::vector<enum EraTypes,std::allocator<enum EraTypes> >::_Xlen, COMDAT

; 1259 : 		{	// report a length_error

	push	-1
	push	__ehhandler$?_Xlen@?$vector@W4EraTypes@@V?$allocator@W4EraTypes@@@std@@@std@@KAXXZ
	mov	eax, DWORD PTR fs:0
	push	eax
	mov	DWORD PTR fs:0, esp
	sub	esp, 68					; 00000044H

; 1260 : 		_THROW(length_error, "vector<T> too long");

	push	OFFSET ??_C@_0BD@OLBABOEK@vector?$DMT?$DO?5too?5long?$AA@
	lea	ecx, DWORD PTR $T233256[esp+84]
	call	DWORD PTR __imp_??0?$basic_string@DU?$char_traits@D@std@@V?$allocator@D@2@@std@@QAE@PBD@Z
	lea	ecx, DWORD PTR $T233255[esp+80]
	mov	DWORD PTR __$EHRec$[esp+88], 0
	call	DWORD PTR __imp_??0exception@std@@QAE@XZ
	lea	eax, DWORD PTR $T233256[esp+80]
	push	eax
	lea	ecx, DWORD PTR $T233255[esp+96]
	mov	BYTE PTR __$EHRec$[esp+92], 1
	mov	DWORD PTR $T233255[esp+84], OFFSET ??_7logic_error@std@@6B@
	call	DWORD PTR __imp_??0?$basic_string@DU?$char_traits@D@std@@V?$allocator@D@2@@std@@QAE@ABV01@@Z
	push	OFFSET __TI3?AVlength_error@std@@
	lea	ecx, DWORD PTR $T233255[esp+84]
	push	ecx
	mov	BYTE PTR __$EHRec$[esp+96], 0
	mov	DWORD PTR $T233255[esp+88], OFFSET ??_7length_error@std@@6B@
	call	__CxxThrowException@8
$LN13@Xlen@5:
$LN12@Xlen@5:
	int	3
_TEXT	ENDS
;	COMDAT text$x
text$x	SEGMENT
__unwindfunclet$?_Xlen@?$vector@W4EraTypes@@V?$allocator@W4EraTypes@@@std@@@std@@KAXXZ$0:
	lea	ecx, DWORD PTR $T233256[ebp]
	jmp	DWORD PTR __imp_??1?$basic_string@DU?$char_traits@D@std@@V?$allocator@D@2@@std@@QAE@XZ
__unwindfunclet$?_Xlen@?$vector@W4EraTypes@@V?$allocator@W4EraTypes@@@std@@@std@@KAXXZ$2:
	lea	ecx, DWORD PTR $T233255[ebp]
	jmp	DWORD PTR __imp_??1exception@std@@UAE@XZ
__ehhandler$?_Xlen@?$vector@W4EraTypes@@V?$allocator@W4EraTypes@@@std@@@std@@KAXXZ:
	mov	eax, OFFSET __ehfuncinfo$?_Xlen@?$vector@W4EraTypes@@V?$allocator@W4EraTypes@@@std@@@std@@KAXXZ
	jmp	___CxxFrameHandler3
text$x	ENDS
?_Xlen@?$vector@W4EraTypes@@V?$allocator@W4EraTypes@@@std@@@std@@KAXXZ ENDP ; std::vector<enum EraTypes,std::allocator<enum EraTypes> >::_Xlen
PUBLIC	??0?$_Container_base_aux_alloc_empty@V?$allocator@W4EraTypes@@@std@@@std@@IAE@V?$allocator@W4EraTypes@@@1@@Z ; std::_Container_base_aux_alloc_empty<std::allocator<enum EraTypes> >::_Container_base_aux_alloc_empty<std::allocator<enum EraTypes> >
; Function compile flags: /Ogtpy
; File c:\program files (x86)\microsoft visual studio 9.0\vc\include\xutility
;	COMDAT ??0?$_Container_base_aux_alloc_empty@V?$allocator@W4EraTypes@@@std@@@std@@IAE@V?$allocator@W4EraTypes@@@1@@Z
_TEXT	SEGMENT
___formal$ = 8						; size = 1
??0?$_Container_base_aux_alloc_empty@V?$allocator@W4EraTypes@@@std@@@std@@IAE@V?$allocator@W4EraTypes@@@1@@Z PROC ; std::_Container_base_aux_alloc_empty<std::allocator<enum EraTypes> >::_Container_base_aux_alloc_empty<std::allocator<enum EraTypes> >, COMDAT
; _this$ = ecx

; 618  : 	explicit _Container_base_aux_alloc_empty(_Alloc) { }

	mov	eax, ecx
	ret	4
??0?$_Container_base_aux_alloc_empty@V?$allocator@W4EraTypes@@@std@@@std@@IAE@V?$allocator@W4EraTypes@@@1@@Z ENDP ; std::_Container_base_aux_alloc_empty<std::allocator<enum EraTypes> >::_Container_base_aux_alloc_empty<std::allocator<enum EraTypes> >
_TEXT	ENDS
PUBLIC	??0?$allocator@W4EraTypes@@@std@@QAE@ABV01@@Z	; std::allocator<enum EraTypes>::allocator<enum EraTypes>
; Function compile flags: /Ogtpy
; File c:\program files (x86)\microsoft visual studio 9.0\vc\include\xmemory
;	COMDAT ??0?$allocator@W4EraTypes@@@std@@QAE@ABV01@@Z
_TEXT	SEGMENT
___formal$ = 8						; size = 4
??0?$allocator@W4EraTypes@@@std@@QAE@ABV01@@Z PROC	; std::allocator<enum EraTypes>::allocator<enum EraTypes>, COMDAT
; _this$ = ecx

; 123  : 	allocator(const allocator<_Ty>&) _THROW0()

	mov	eax, ecx

; 124  : 		{	// construct by copying (do nothing)
; 125  : 		}

	ret	4
??0?$allocator@W4EraTypes@@@std@@QAE@ABV01@@Z ENDP	; std::allocator<enum EraTypes>::allocator<enum EraTypes>
_TEXT	ENDS
PUBLIC	??0?$_Vector_const_iterator@W4EraTypes@@V?$allocator@W4EraTypes@@@std@@@std@@QAE@PAW4EraTypes@@@Z ; std::_Vector_const_iterator<enum EraTypes,std::allocator<enum EraTypes> >::_Vector_const_iterator<enum EraTypes,std::allocator<enum EraTypes> >
; Function compile flags: /Ogtpy
; File c:\program files (x86)\microsoft visual studio 9.0\vc\include\vector
;	COMDAT ??0?$_Vector_const_iterator@W4EraTypes@@V?$allocator@W4EraTypes@@@std@@@std@@QAE@PAW4EraTypes@@@Z
_TEXT	SEGMENT
__Ptr$ = 8						; size = 4
??0?$_Vector_const_iterator@W4EraTypes@@V?$allocator@W4EraTypes@@@std@@@std@@QAE@PAW4EraTypes@@@Z PROC ; std::_Vector_const_iterator<enum EraTypes,std::allocator<enum EraTypes> >::_Vector_const_iterator<enum EraTypes,std::allocator<enum EraTypes> >, COMDAT
; _this$ = ecx

; 84   : 	explicit _Vector_const_iterator(_Tptr _Ptr)

	mov	eax, ecx

; 85   : 		{	// construct with pointer _Ptr
; 86   : 		_Myptr = _Ptr;

	mov	ecx, DWORD PTR __Ptr$[esp-4]
	mov	DWORD PTR [eax], ecx

; 87   : 		}

	ret	4
??0?$_Vector_const_iterator@W4EraTypes@@V?$allocator@W4EraTypes@@@std@@@std@@QAE@PAW4EraTypes@@@Z ENDP ; std::_Vector_const_iterator<enum EraTypes,std::allocator<enum EraTypes> >::_Vector_const_iterator<enum EraTypes,std::allocator<enum EraTypes> >
_TEXT	ENDS
PUBLIC	??G?$_Vector_const_iterator@W4EraTypes@@V?$allocator@W4EraTypes@@@std@@@std@@QBEHABV01@@Z ; std::_Vector_const_iterator<enum EraTypes,std::allocator<enum EraTypes> >::operator-
; Function compile flags: /Ogtpy
;	COMDAT ??G?$_Vector_const_iterator@W4EraTypes@@V?$allocator@W4EraTypes@@@std@@@std@@QBEHABV01@@Z
_TEXT	SEGMENT
__Right$ = 8						; size = 4
??G?$_Vector_const_iterator@W4EraTypes@@V?$allocator@W4EraTypes@@@std@@@std@@QBEHABV01@@Z PROC ; std::_Vector_const_iterator<enum EraTypes,std::allocator<enum EraTypes> >::operator-, COMDAT
; _this$ = ecx

; 187  : 
; 188  :  #if _HAS_ITERATOR_DEBUGGING
; 189  : 		_Compat(_Right);
; 190  :  #else
; 191  : 		_SCL_SECURE_VALIDATE(this->_Has_container() && this->_Same_container(_Right));
; 192  :  #endif /* _HAS_ITERATOR_DEBUGGING */
; 193  : 
; 194  : 		return (_Myptr - _Right._Myptr);

	mov	eax, DWORD PTR [ecx]
	mov	ecx, DWORD PTR __Right$[esp-4]
	sub	eax, DWORD PTR [ecx]
	sar	eax, 2

; 195  : 		}

	ret	4
??G?$_Vector_const_iterator@W4EraTypes@@V?$allocator@W4EraTypes@@@std@@@std@@QBEHABV01@@Z ENDP ; std::_Vector_const_iterator<enum EraTypes,std::allocator<enum EraTypes> >::operator-
_TEXT	ENDS
PUBLIC	??G?$_Vector_const_iterator@PAVCvPlot@@V?$allocator@PAVCvPlot@@@std@@@std@@QBEHABV01@@Z ; std::_Vector_const_iterator<CvPlot *,std::allocator<CvPlot *> >::operator-
; Function compile flags: /Ogtpy
;	COMDAT ??G?$_Vector_const_iterator@PAVCvPlot@@V?$allocator@PAVCvPlot@@@std@@@std@@QBEHABV01@@Z
_TEXT	SEGMENT
__Right$ = 8						; size = 4
??G?$_Vector_const_iterator@PAVCvPlot@@V?$allocator@PAVCvPlot@@@std@@@std@@QBEHABV01@@Z PROC ; std::_Vector_const_iterator<CvPlot *,std::allocator<CvPlot *> >::operator-, COMDAT
; _this$ = ecx

; 187  : 
; 188  :  #if _HAS_ITERATOR_DEBUGGING
; 189  : 		_Compat(_Right);
; 190  :  #else
; 191  : 		_SCL_SECURE_VALIDATE(this->_Has_container() && this->_Same_container(_Right));
; 192  :  #endif /* _HAS_ITERATOR_DEBUGGING */
; 193  : 
; 194  : 		return (_Myptr - _Right._Myptr);

	mov	eax, DWORD PTR [ecx]
	mov	ecx, DWORD PTR __Right$[esp-4]
	sub	eax, DWORD PTR [ecx]
	sar	eax, 2

; 195  : 		}

	ret	4
??G?$_Vector_const_iterator@PAVCvPlot@@V?$allocator@PAVCvPlot@@@std@@@std@@QBEHABV01@@Z ENDP ; std::_Vector_const_iterator<CvPlot *,std::allocator<CvPlot *> >::operator-
_TEXT	ENDS
PUBLIC	??0?$_Vector_const_iterator@W4PlayerTypes@@V?$allocator@W4PlayerTypes@@@std@@@std@@QAE@PAW4PlayerTypes@@@Z ; std::_Vector_const_iterator<enum PlayerTypes,std::allocator<enum PlayerTypes> >::_Vector_const_iterator<enum PlayerTypes,std::allocator<enum PlayerTypes> >
; Function compile flags: /Ogtpy
;	COMDAT ??0?$_Vector_const_iterator@W4PlayerTypes@@V?$allocator@W4PlayerTypes@@@std@@@std@@QAE@PAW4PlayerTypes@@@Z
_TEXT	SEGMENT
__Ptr$ = 8						; size = 4
??0?$_Vector_const_iterator@W4PlayerTypes@@V?$allocator@W4PlayerTypes@@@std@@@std@@QAE@PAW4PlayerTypes@@@Z PROC ; std::_Vector_const_iterator<enum PlayerTypes,std::allocator<enum PlayerTypes> >::_Vector_const_iterator<enum PlayerTypes,std::allocator<enum PlayerTypes> >, COMDAT
; _this$ = ecx

; 84   : 	explicit _Vector_const_iterator(_Tptr _Ptr)

	mov	eax, ecx

; 85   : 		{	// construct with pointer _Ptr
; 86   : 		_Myptr = _Ptr;

	mov	ecx, DWORD PTR __Ptr$[esp-4]
	mov	DWORD PTR [eax], ecx

; 87   : 		}

	ret	4
??0?$_Vector_const_iterator@W4PlayerTypes@@V?$allocator@W4PlayerTypes@@@std@@@std@@QAE@PAW4PlayerTypes@@@Z ENDP ; std::_Vector_const_iterator<enum PlayerTypes,std::allocator<enum PlayerTypes> >::_Vector_const_iterator<enum PlayerTypes,std::allocator<enum PlayerTypes> >
_TEXT	ENDS
PUBLIC	??G?$_Vector_const_iterator@W4PlayerTypes@@V?$allocator@W4PlayerTypes@@@std@@@std@@QBEHABV01@@Z ; std::_Vector_const_iterator<enum PlayerTypes,std::allocator<enum PlayerTypes> >::operator-
; Function compile flags: /Ogtpy
;	COMDAT ??G?$_Vector_const_iterator@W4PlayerTypes@@V?$allocator@W4PlayerTypes@@@std@@@std@@QBEHABV01@@Z
_TEXT	SEGMENT
__Right$ = 8						; size = 4
??G?$_Vector_const_iterator@W4PlayerTypes@@V?$allocator@W4PlayerTypes@@@std@@@std@@QBEHABV01@@Z PROC ; std::_Vector_const_iterator<enum PlayerTypes,std::allocator<enum PlayerTypes> >::operator-, COMDAT
; _this$ = ecx

; 187  : 
; 188  :  #if _HAS_ITERATOR_DEBUGGING
; 189  : 		_Compat(_Right);
; 190  :  #else
; 191  : 		_SCL_SECURE_VALIDATE(this->_Has_container() && this->_Same_container(_Right));
; 192  :  #endif /* _HAS_ITERATOR_DEBUGGING */
; 193  : 
; 194  : 		return (_Myptr - _Right._Myptr);

	mov	eax, DWORD PTR [ecx]
	mov	ecx, DWORD PTR __Right$[esp-4]
	sub	eax, DWORD PTR [ecx]
	sar	eax, 2

; 195  : 		}

	ret	4
??G?$_Vector_const_iterator@W4PlayerTypes@@V?$allocator@W4PlayerTypes@@@std@@@std@@QBEHABV01@@Z ENDP ; std::_Vector_const_iterator<enum PlayerTypes,std::allocator<enum PlayerTypes> >::operator-
_TEXT	ENDS
PUBLIC	?max_size@?$allocator@VCvGreatWorkBuildingInMyEmpire@@@std@@QBEIXZ ; std::allocator<CvGreatWorkBuildingInMyEmpire>::max_size
; Function compile flags: /Ogtpy
; File c:\program files (x86)\microsoft visual studio 9.0\vc\include\xmemory
;	COMDAT ?max_size@?$allocator@VCvGreatWorkBuildingInMyEmpire@@@std@@QBEIXZ
_TEXT	SEGMENT
?max_size@?$allocator@VCvGreatWorkBuildingInMyEmpire@@@std@@QBEIXZ PROC ; std::allocator<CvGreatWorkBuildingInMyEmpire>::max_size, COMDAT
; _this$ = ecx

; 165  : 		_SIZT _Count = (_SIZT)(-1) / sizeof (_Ty);
; 166  : 		return (0 < _Count ? _Count : 1);

	mov	eax, 357913941				; 15555555H

; 167  : 		}

	ret	0
?max_size@?$allocator@VCvGreatWorkBuildingInMyEmpire@@@std@@QBEIXZ ENDP ; std::allocator<CvGreatWorkBuildingInMyEmpire>::max_size
_TEXT	ENDS
PUBLIC	?max_size@?$allocator@PAVCvPlot@@@std@@QBEIXZ	; std::allocator<CvPlot *>::max_size
; Function compile flags: /Ogtpy
;	COMDAT ?max_size@?$allocator@PAVCvPlot@@@std@@QBEIXZ
_TEXT	SEGMENT
?max_size@?$allocator@PAVCvPlot@@@std@@QBEIXZ PROC	; std::allocator<CvPlot *>::max_size, COMDAT
; _this$ = ecx

; 165  : 		_SIZT _Count = (_SIZT)(-1) / sizeof (_Ty);
; 166  : 		return (0 < _Count ? _Count : 1);

	mov	eax, 1073741823				; 3fffffffH

; 167  : 		}

	ret	0
?max_size@?$allocator@PAVCvPlot@@@std@@QBEIXZ ENDP	; std::allocator<CvPlot *>::max_size
_TEXT	ENDS
PUBLIC	?max_size@?$allocator@W4PlayerTypes@@@std@@QBEIXZ ; std::allocator<enum PlayerTypes>::max_size
; Function compile flags: /Ogtpy
;	COMDAT ?max_size@?$allocator@W4PlayerTypes@@@std@@QBEIXZ
_TEXT	SEGMENT
?max_size@?$allocator@W4PlayerTypes@@@std@@QBEIXZ PROC	; std::allocator<enum PlayerTypes>::max_size, COMDAT
; _this$ = ecx

; 165  : 		_SIZT _Count = (_SIZT)(-1) / sizeof (_Ty);
; 166  : 		return (0 < _Count ? _Count : 1);

	mov	eax, 1073741823				; 3fffffffH

; 167  : 		}

	ret	0
?max_size@?$allocator@W4PlayerTypes@@@std@@QBEIXZ ENDP	; std::allocator<enum PlayerTypes>::max_size
_TEXT	ENDS
PUBLIC	?max_size@?$allocator@VCvGreatWorkInMyEmpire@@@std@@QBEIXZ ; std::allocator<CvGreatWorkInMyEmpire>::max_size
; Function compile flags: /Ogtpy
;	COMDAT ?max_size@?$allocator@VCvGreatWorkInMyEmpire@@@std@@QBEIXZ
_TEXT	SEGMENT
?max_size@?$allocator@VCvGreatWorkInMyEmpire@@@std@@QBEIXZ PROC ; std::allocator<CvGreatWorkInMyEmpire>::max_size, COMDAT
; _this$ = ecx

; 165  : 		_SIZT _Count = (_SIZT)(-1) / sizeof (_Ty);
; 166  : 		return (0 < _Count ? _Count : 1);

	mov	eax, 178956970				; 0aaaaaaaH

; 167  : 		}

	ret	0
?max_size@?$allocator@VCvGreatWorkInMyEmpire@@@std@@QBEIXZ ENDP ; std::allocator<CvGreatWorkInMyEmpire>::max_size
_TEXT	ENDS
PUBLIC	?max_size@?$allocator@W4EraTypes@@@std@@QBEIXZ	; std::allocator<enum EraTypes>::max_size
; Function compile flags: /Ogtpy
;	COMDAT ?max_size@?$allocator@W4EraTypes@@@std@@QBEIXZ
_TEXT	SEGMENT
?max_size@?$allocator@W4EraTypes@@@std@@QBEIXZ PROC	; std::allocator<enum EraTypes>::max_size, COMDAT
; _this$ = ecx

; 165  : 		_SIZT _Count = (_SIZT)(-1) / sizeof (_Ty);
; 166  : 		return (0 < _Count ? _Count : 1);

	mov	eax, 1073741823				; 3fffffffH

; 167  : 		}

	ret	0
?max_size@?$allocator@W4EraTypes@@@std@@QBEIXZ ENDP	; std::allocator<enum EraTypes>::max_size
_TEXT	ENDS
PUBLIC	??Y?$_Vector_const_iterator@VCvGreatWorkBuildingInMyEmpire@@V?$allocator@VCvGreatWorkBuildingInMyEmpire@@@std@@@std@@QAEAAV01@H@Z ; std::_Vector_const_iterator<CvGreatWorkBuildingInMyEmpire,std::allocator<CvGreatWorkBuildingInMyEmpire> >::operator+=
; Function compile flags: /Ogtpy
; File c:\program files (x86)\microsoft visual studio 9.0\vc\include\vector
;	COMDAT ??Y?$_Vector_const_iterator@VCvGreatWorkBuildingInMyEmpire@@V?$allocator@VCvGreatWorkBuildingInMyEmpire@@@std@@@std@@QAEAAV01@H@Z
_TEXT	SEGMENT
__Off$ = 8						; size = 4
??Y?$_Vector_const_iterator@VCvGreatWorkBuildingInMyEmpire@@V?$allocator@VCvGreatWorkBuildingInMyEmpire@@@std@@@std@@QAEAAV01@H@Z PROC ; std::_Vector_const_iterator<CvGreatWorkBuildingInMyEmpire,std::allocator<CvGreatWorkBuildingInMyEmpire> >::operator+=, COMDAT
; _this$ = ecx

; 159  : 		{	// increment by integer

	mov	eax, ecx

; 160  : 		_SCL_SECURE_VALIDATE(this->_Has_container());
; 161  : 		_SCL_SECURE_VALIDATE_RANGE(
; 162  : 			_Myptr + _Off <= ((_Myvec *)(this->_Getmycont()))->_Mylast &&
; 163  : 			_Myptr + _Off >= ((_Myvec *)(this->_Getmycont()))->_Myfirst);
; 164  : 		_Myptr += _Off;

	mov	ecx, DWORD PTR __Off$[esp-4]
	lea	ecx, DWORD PTR [ecx+ecx*2]
	add	ecx, ecx
	add	ecx, ecx
	add	DWORD PTR [eax], ecx

; 165  : 		return (*this);
; 166  : 		}

	ret	4
??Y?$_Vector_const_iterator@VCvGreatWorkBuildingInMyEmpire@@V?$allocator@VCvGreatWorkBuildingInMyEmpire@@@std@@@std@@QAEAAV01@H@Z ENDP ; std::_Vector_const_iterator<CvGreatWorkBuildingInMyEmpire,std::allocator<CvGreatWorkBuildingInMyEmpire> >::operator+=
_TEXT	ENDS
PUBLIC	??Y?$_Vector_const_iterator@VCvGreatWorkInMyEmpire@@V?$allocator@VCvGreatWorkInMyEmpire@@@std@@@std@@QAEAAV01@H@Z ; std::_Vector_const_iterator<CvGreatWorkInMyEmpire,std::allocator<CvGreatWorkInMyEmpire> >::operator+=
; Function compile flags: /Ogtpy
;	COMDAT ??Y?$_Vector_const_iterator@VCvGreatWorkInMyEmpire@@V?$allocator@VCvGreatWorkInMyEmpire@@@std@@@std@@QAEAAV01@H@Z
_TEXT	SEGMENT
__Off$ = 8						; size = 4
??Y?$_Vector_const_iterator@VCvGreatWorkInMyEmpire@@V?$allocator@VCvGreatWorkInMyEmpire@@@std@@@std@@QAEAAV01@H@Z PROC ; std::_Vector_const_iterator<CvGreatWorkInMyEmpire,std::allocator<CvGreatWorkInMyEmpire> >::operator+=, COMDAT
; _this$ = ecx

; 159  : 		{	// increment by integer

	mov	eax, ecx

; 160  : 		_SCL_SECURE_VALIDATE(this->_Has_container());
; 161  : 		_SCL_SECURE_VALIDATE_RANGE(
; 162  : 			_Myptr + _Off <= ((_Myvec *)(this->_Getmycont()))->_Mylast &&
; 163  : 			_Myptr + _Off >= ((_Myvec *)(this->_Getmycont()))->_Myfirst);
; 164  : 		_Myptr += _Off;

	mov	ecx, DWORD PTR __Off$[esp-4]
	lea	ecx, DWORD PTR [ecx+ecx*2]
	add	ecx, ecx
	add	ecx, ecx
	add	ecx, ecx
	add	DWORD PTR [eax], ecx

; 165  : 		return (*this);
; 166  : 		}

	ret	4
??Y?$_Vector_const_iterator@VCvGreatWorkInMyEmpire@@V?$allocator@VCvGreatWorkInMyEmpire@@@std@@@std@@QAEAAV01@H@Z ENDP ; std::_Vector_const_iterator<CvGreatWorkInMyEmpire,std::allocator<CvGreatWorkInMyEmpire> >::operator+=
_TEXT	ENDS
PUBLIC	??Y?$_Vector_const_iterator@W4EraTypes@@V?$allocator@W4EraTypes@@@std@@@std@@QAEAAV01@H@Z ; std::_Vector_const_iterator<enum EraTypes,std::allocator<enum EraTypes> >::operator+=
; Function compile flags: /Ogtpy
;	COMDAT ??Y?$_Vector_const_iterator@W4EraTypes@@V?$allocator@W4EraTypes@@@std@@@std@@QAEAAV01@H@Z
_TEXT	SEGMENT
__Off$ = 8						; size = 4
??Y?$_Vector_const_iterator@W4EraTypes@@V?$allocator@W4EraTypes@@@std@@@std@@QAEAAV01@H@Z PROC ; std::_Vector_const_iterator<enum EraTypes,std::allocator<enum EraTypes> >::operator+=, COMDAT
; _this$ = ecx

; 159  : 		{	// increment by integer

	mov	eax, ecx

; 160  : 		_SCL_SECURE_VALIDATE(this->_Has_container());
; 161  : 		_SCL_SECURE_VALIDATE_RANGE(
; 162  : 			_Myptr + _Off <= ((_Myvec *)(this->_Getmycont()))->_Mylast &&
; 163  : 			_Myptr + _Off >= ((_Myvec *)(this->_Getmycont()))->_Myfirst);
; 164  : 		_Myptr += _Off;

	mov	ecx, DWORD PTR __Off$[esp-4]
	lea	edx, DWORD PTR [ecx*4]
	add	DWORD PTR [eax], edx

; 165  : 		return (*this);
; 166  : 		}

	ret	4
??Y?$_Vector_const_iterator@W4EraTypes@@V?$allocator@W4EraTypes@@@std@@@std@@QAEAAV01@H@Z ENDP ; std::_Vector_const_iterator<enum EraTypes,std::allocator<enum EraTypes> >::operator+=
_TEXT	ENDS
PUBLIC	??Y?$_Vector_const_iterator@PAVCvPlot@@V?$allocator@PAVCvPlot@@@std@@@std@@QAEAAV01@H@Z ; std::_Vector_const_iterator<CvPlot *,std::allocator<CvPlot *> >::operator+=
; Function compile flags: /Ogtpy
;	COMDAT ??Y?$_Vector_const_iterator@PAVCvPlot@@V?$allocator@PAVCvPlot@@@std@@@std@@QAEAAV01@H@Z
_TEXT	SEGMENT
__Off$ = 8						; size = 4
??Y?$_Vector_const_iterator@PAVCvPlot@@V?$allocator@PAVCvPlot@@@std@@@std@@QAEAAV01@H@Z PROC ; std::_Vector_const_iterator<CvPlot *,std::allocator<CvPlot *> >::operator+=, COMDAT
; _this$ = ecx

; 159  : 		{	// increment by integer

	mov	eax, ecx

; 160  : 		_SCL_SECURE_VALIDATE(this->_Has_container());
; 161  : 		_SCL_SECURE_VALIDATE_RANGE(
; 162  : 			_Myptr + _Off <= ((_Myvec *)(this->_Getmycont()))->_Mylast &&
; 163  : 			_Myptr + _Off >= ((_Myvec *)(this->_Getmycont()))->_Myfirst);
; 164  : 		_Myptr += _Off;

	mov	ecx, DWORD PTR __Off$[esp-4]
	lea	edx, DWORD PTR [ecx*4]
	add	DWORD PTR [eax], edx

; 165  : 		return (*this);
; 166  : 		}

	ret	4
??Y?$_Vector_const_iterator@PAVCvPlot@@V?$allocator@PAVCvPlot@@@std@@@std@@QAEAAV01@H@Z ENDP ; std::_Vector_const_iterator<CvPlot *,std::allocator<CvPlot *> >::operator+=
_TEXT	ENDS
PUBLIC	??Y?$_Vector_const_iterator@W4PlayerTypes@@V?$allocator@W4PlayerTypes@@@std@@@std@@QAEAAV01@H@Z ; std::_Vector_const_iterator<enum PlayerTypes,std::allocator<enum PlayerTypes> >::operator+=
; Function compile flags: /Ogtpy
;	COMDAT ??Y?$_Vector_const_iterator@W4PlayerTypes@@V?$allocator@W4PlayerTypes@@@std@@@std@@QAEAAV01@H@Z
_TEXT	SEGMENT
__Off$ = 8						; size = 4
??Y?$_Vector_const_iterator@W4PlayerTypes@@V?$allocator@W4PlayerTypes@@@std@@@std@@QAEAAV01@H@Z PROC ; std::_Vector_const_iterator<enum PlayerTypes,std::allocator<enum PlayerTypes> >::operator+=, COMDAT
; _this$ = ecx

; 159  : 		{	// increment by integer

	mov	eax, ecx

; 160  : 		_SCL_SECURE_VALIDATE(this->_Has_container());
; 161  : 		_SCL_SECURE_VALIDATE_RANGE(
; 162  : 			_Myptr + _Off <= ((_Myvec *)(this->_Getmycont()))->_Mylast &&
; 163  : 			_Myptr + _Off >= ((_Myvec *)(this->_Getmycont()))->_Myfirst);
; 164  : 		_Myptr += _Off;

	mov	ecx, DWORD PTR __Off$[esp-4]
	lea	edx, DWORD PTR [ecx*4]
	add	DWORD PTR [eax], edx

; 165  : 		return (*this);
; 166  : 		}

	ret	4
??Y?$_Vector_const_iterator@W4PlayerTypes@@V?$allocator@W4PlayerTypes@@@std@@@std@@QAEAAV01@H@Z ENDP ; std::_Vector_const_iterator<enum PlayerTypes,std::allocator<enum PlayerTypes> >::operator+=
_TEXT	ENDS
PUBLIC	??$max@H@std@@YAABHABH0@Z			; std::max<int>
; Function compile flags: /Ogtpy
; File c:\program files (x86)\microsoft visual studio 9.0\vc\include\xutility
;	COMDAT ??$max@H@std@@YAABHABH0@Z
_TEXT	SEGMENT
__Left$ = 8						; size = 4
__Right$ = 12						; size = 4
??$max@H@std@@YAABHABH0@Z PROC				; std::max<int>, COMDAT

; 3384 : 	return (_DEBUG_LT(_Left, _Right) ? _Right : _Left);

	mov	eax, DWORD PTR __Left$[esp-4]
	mov	edx, DWORD PTR [eax]
	mov	ecx, DWORD PTR __Right$[esp-4]
	cmp	edx, DWORD PTR [ecx]
	jge	SHORT $LN4@max
	mov	eax, ecx
$LN4@max:

; 3385 : 	}

	ret	0
??$max@H@std@@YAABHABH0@Z ENDP				; std::max<int>
_TEXT	ENDS
PUBLIC	??$?6W4GreatWorkType@@@FDataStream@@QAEAAV0@ABW4GreatWorkType@@@Z ; FDataStream::operator<<<enum GreatWorkType>
EXTRN	?Write@FDataStream@@IAEXABH@Z:PROC		; FDataStream::Write
; Function compile flags: /Ogtpy
; File c:\users\enormousapplepie\documents\github\lekmod\lekmod_dll\fireplace\include\fireworks\fdatastream.h
;	COMDAT ??$?6W4GreatWorkType@@@FDataStream@@QAEAAV0@ABW4GreatWorkType@@@Z
_TEXT	SEGMENT
$T233347 = 8						; size = 4
_kData$ = 8						; size = 4
??$?6W4GreatWorkType@@@FDataStream@@QAEAAV0@ABW4GreatWorkType@@@Z PROC ; FDataStream::operator<<<enum GreatWorkType>, COMDAT
; _this$ = ecx

; 246  : 	// If the compiler produces an error here complaining about 
; 247  : 	// YouMustImplementASerializeOperatorForThisTypeError then
; 248  : 	// it could not find a specialization for the type supplied
; 249  : 	// in scope. If a specialization exists, be sure to include
; 250  : 	// the header (FStlContainerSerialization.h, for example), 
; 251  : 	// if not, implement :
; 252  : 	// FDataStream & operator<<(FDataStream &, YourCustomType &)
; 253  : 	Write( kData );

	mov	eax, DWORD PTR _kData$[esp-4]
	push	esi
	mov	esi, ecx
	mov	ecx, DWORD PTR [eax]
	lea	edx, DWORD PTR $T233347[esp]
	mov	DWORD PTR $T233347[esp], ecx
	push	edx
	mov	ecx, esi
	call	?Write@FDataStream@@IAEXABH@Z		; FDataStream::Write

; 254  : 	return ( *this );

	mov	eax, esi
	pop	esi

; 255  : }

	ret	4
??$?6W4GreatWorkType@@@FDataStream@@QAEAAV0@ABW4GreatWorkType@@@Z ENDP ; FDataStream::operator<<<enum GreatWorkType>
_TEXT	ENDS
PUBLIC	??$?6W4GreatWorkClass@@@FDataStream@@QAEAAV0@ABW4GreatWorkClass@@@Z ; FDataStream::operator<<<enum GreatWorkClass>
; Function compile flags: /Ogtpy
;	COMDAT ??$?6W4GreatWorkClass@@@FDataStream@@QAEAAV0@ABW4GreatWorkClass@@@Z
_TEXT	SEGMENT
$T233351 = 8						; size = 4
_kData$ = 8						; size = 4
??$?6W4GreatWorkClass@@@FDataStream@@QAEAAV0@ABW4GreatWorkClass@@@Z PROC ; FDataStream::operator<<<enum GreatWorkClass>, COMDAT
; _this$ = ecx

; 246  : 	// If the compiler produces an error here complaining about 
; 247  : 	// YouMustImplementASerializeOperatorForThisTypeError then
; 248  : 	// it could not find a specialization for the type supplied
; 249  : 	// in scope. If a specialization exists, be sure to include
; 250  : 	// the header (FStlContainerSerialization.h, for example), 
; 251  : 	// if not, implement :
; 252  : 	// FDataStream & operator<<(FDataStream &, YourCustomType &)
; 253  : 	Write( kData );

	mov	eax, DWORD PTR _kData$[esp-4]
	push	esi
	mov	esi, ecx
	mov	ecx, DWORD PTR [eax]
	lea	edx, DWORD PTR $T233351[esp]
	mov	DWORD PTR $T233351[esp], ecx
	push	edx
	mov	ecx, esi
	call	?Write@FDataStream@@IAEXABH@Z		; FDataStream::Write

; 254  : 	return ( *this );

	mov	eax, esi
	pop	esi

; 255  : }

	ret	4
??$?6W4GreatWorkClass@@@FDataStream@@QAEAAV0@ABW4GreatWorkClass@@@Z ENDP ; FDataStream::operator<<<enum GreatWorkClass>
_TEXT	ENDS
PUBLIC	??$min@H@std@@YAABHABH0@Z			; std::min<int>
; Function compile flags: /Ogtpy
; File c:\program files (x86)\microsoft visual studio 9.0\vc\include\xutility
;	COMDAT ??$min@H@std@@YAABHABH0@Z
_TEXT	SEGMENT
__Left$ = 8						; size = 4
__Right$ = 12						; size = 4
??$min@H@std@@YAABHABH0@Z PROC				; std::min<int>, COMDAT

; 3399 : 	return (_DEBUG_LT(_Right, _Left) ? _Right : _Left);

	mov	eax, DWORD PTR __Right$[esp-4]
	mov	edx, DWORD PTR [eax]
	mov	ecx, DWORD PTR __Left$[esp-4]
	cmp	edx, DWORD PTR [ecx]
	jl	SHORT $LN4@min
	mov	eax, ecx
$LN4@min:

; 3400 : 	}

	ret	0
??$min@H@std@@YAABHABH0@Z ENDP				; std::min<int>
_TEXT	ENDS
PUBLIC	??$?6PBD@@YAAAVString@Localization@@AAV01@ABQBD@Z ; operator<<<char const *>
EXTRN	__imp_?PushArgument@String@Localization@@QAE_NPBD@Z:PROC
; Function compile flags: /Ogtpy
; File c:\users\enormousapplepie\documents\github\lekmod\lekmod_dll\cvlocalization\include\cvlocalization.h
;	COMDAT ??$?6PBD@@YAAAVString@Localization@@AAV01@ABQBD@Z
_TEXT	SEGMENT
_s$ = 8							; size = 4
_val$ = 12						; size = 4
??$?6PBD@@YAAAVString@Localization@@AAV01@ABQBD@Z PROC	; operator<<<char const *>, COMDAT

; 491  : 	s.PushArgument(val);

	mov	eax, DWORD PTR _val$[esp-4]
	mov	ecx, DWORD PTR [eax]
	push	esi
	mov	esi, DWORD PTR _s$[esp]
	push	ecx
	mov	ecx, esi
	call	DWORD PTR __imp_?PushArgument@String@Localization@@QAE_NPBD@Z

; 492  : 	return s;

	mov	eax, esi
	pop	esi

; 493  : }

	ret	0
??$?6PBD@@YAAAVString@Localization@@AAV01@ABQBD@Z ENDP	; operator<<<char const *>
_TEXT	ENDS
PUBLIC	??$?6VCvString@@@@YAAAVString@Localization@@AAV01@ABVCvString@@@Z ; operator<<<CvString>
; Function compile flags: /Ogtpy
;	COMDAT ??$?6VCvString@@@@YAAAVString@Localization@@AAV01@ABVCvString@@@Z
_TEXT	SEGMENT
_s$ = 8							; size = 4
_val$ = 12						; size = 4
??$?6VCvString@@@@YAAAVString@Localization@@AAV01@ABVCvString@@@Z PROC ; operator<<<CvString>, COMDAT

; 491  : 	s.PushArgument(val);

	mov	ecx, DWORD PTR _val$[esp-4]
	push	esi
	call	DWORD PTR __imp_?c_str@?$basic_string@DU?$char_traits@D@std@@V?$allocator@D@2@@std@@QBEPBDXZ
	mov	esi, DWORD PTR _s$[esp]
	push	eax
	mov	ecx, esi
	call	DWORD PTR __imp_?PushArgument@String@Localization@@QAE_NPBD@Z

; 492  : 	return s;

	mov	eax, esi
	pop	esi

; 493  : }

	ret	0
??$?6VCvString@@@@YAAAVString@Localization@@AAV01@ABVCvString@@@Z ENDP ; operator<<<CvString>
_TEXT	ENDS
PUBLIC	??$?6H@@YAAAVString@Localization@@AAV01@ABH@Z	; operator<<<int>
EXTRN	__imp_?PushArgument@String@Localization@@QAE_NH@Z:PROC
; Function compile flags: /Ogtpy
;	COMDAT ??$?6H@@YAAAVString@Localization@@AAV01@ABH@Z
_TEXT	SEGMENT
_s$ = 8							; size = 4
_val$ = 12						; size = 4
??$?6H@@YAAAVString@Localization@@AAV01@ABH@Z PROC	; operator<<<int>, COMDAT

; 491  : 	s.PushArgument(val);

	mov	eax, DWORD PTR _val$[esp-4]
	mov	ecx, DWORD PTR [eax]
	push	esi
	mov	esi, DWORD PTR _s$[esp]
	push	ecx
	mov	ecx, esi
	call	DWORD PTR __imp_?PushArgument@String@Localization@@QAE_NH@Z

; 492  : 	return s;

	mov	eax, esi
	pop	esi

; 493  : }

	ret	0
??$?6H@@YAAAVString@Localization@@AAV01@ABH@Z ENDP	; operator<<<int>
_TEXT	ENDS
PUBLIC	??$?6W4PublicOpinionTypes@@@FDataStream@@QAEAAV0@ABW4PublicOpinionTypes@@@Z ; FDataStream::operator<<<enum PublicOpinionTypes>
; Function compile flags: /Ogtpy
; File c:\users\enormousapplepie\documents\github\lekmod\lekmod_dll\fireplace\include\fireworks\fdatastream.h
;	COMDAT ??$?6W4PublicOpinionTypes@@@FDataStream@@QAEAAV0@ABW4PublicOpinionTypes@@@Z
_TEXT	SEGMENT
$T233373 = 8						; size = 4
_kData$ = 8						; size = 4
??$?6W4PublicOpinionTypes@@@FDataStream@@QAEAAV0@ABW4PublicOpinionTypes@@@Z PROC ; FDataStream::operator<<<enum PublicOpinionTypes>, COMDAT
; _this$ = ecx

; 246  : 	// If the compiler produces an error here complaining about 
; 247  : 	// YouMustImplementASerializeOperatorForThisTypeError then
; 248  : 	// it could not find a specialization for the type supplied
; 249  : 	// in scope. If a specialization exists, be sure to include
; 250  : 	// the header (FStlContainerSerialization.h, for example), 
; 251  : 	// if not, implement :
; 252  : 	// FDataStream & operator<<(FDataStream &, YourCustomType &)
; 253  : 	Write( kData );

	mov	eax, DWORD PTR _kData$[esp-4]
	push	esi
	mov	esi, ecx
	mov	ecx, DWORD PTR [eax]
	lea	edx, DWORD PTR $T233373[esp]
	mov	DWORD PTR $T233373[esp], ecx
	push	edx
	mov	ecx, esi
	call	?Write@FDataStream@@IAEXABH@Z		; FDataStream::Write

; 254  : 	return ( *this );

	mov	eax, esi
	pop	esi

; 255  : }

	ret	4
??$?6W4PublicOpinionTypes@@@FDataStream@@QAEAAV0@ABW4PublicOpinionTypes@@@Z ENDP ; FDataStream::operator<<<enum PublicOpinionTypes>
_TEXT	ENDS
PUBLIC	__TI2?AVbad_alloc@std@@
PUBLIC	??$_Allocate@VCvGreatWorkBuildingInMyEmpire@@@std@@YAPAVCvGreatWorkBuildingInMyEmpire@@IPAV1@@Z ; std::_Allocate<CvGreatWorkBuildingInMyEmpire>
PUBLIC	__CTA2?AVbad_alloc@std@@
PUBLIC	__CT??_R0?AVbad_alloc@std@@@8??0bad_alloc@std@@QAE@ABV01@@Z12
PUBLIC	??0bad_alloc@std@@QAE@ABV01@@Z			; std::bad_alloc::bad_alloc
EXTRN	??2@YAPAXI@Z:PROC				; operator new
;	COMDAT __CT??_R0?AVbad_alloc@std@@@8??0bad_alloc@std@@QAE@ABV01@@Z12
; File c:\program files (x86)\microsoft visual studio 9.0\vc\include\exception
xdata$x	SEGMENT
__CT??_R0?AVbad_alloc@std@@@8??0bad_alloc@std@@QAE@ABV01@@Z12 DD 00H
	DD	FLAT:??_R0?AVbad_alloc@std@@@8
	DD	00H
	DD	0ffffffffH
	ORG $+4
	DD	0cH
	DD	FLAT:??0bad_alloc@std@@QAE@ABV01@@Z
xdata$x	ENDS
;	COMDAT __CTA2?AVbad_alloc@std@@
xdata$x	SEGMENT
__CTA2?AVbad_alloc@std@@ DD 02H
	DD	FLAT:__CT??_R0?AVbad_alloc@std@@@8??0bad_alloc@std@@QAE@ABV01@@Z12
	DD	FLAT:__CT??_R0?AVexception@std@@@8??0exception@std@@QAE@ABV01@@Z12
xdata$x	ENDS
;	COMDAT __TI2?AVbad_alloc@std@@
xdata$x	SEGMENT
__TI2?AVbad_alloc@std@@ DD 00H
	DD	FLAT:??1bad_alloc@std@@UAE@XZ
	DD	00H
	DD	FLAT:__CTA2?AVbad_alloc@std@@
; Function compile flags: /Ogtpy
; File c:\program files (x86)\microsoft visual studio 9.0\vc\include\xmemory
xdata$x	ENDS
;	COMDAT ??$_Allocate@VCvGreatWorkBuildingInMyEmpire@@@std@@YAPAVCvGreatWorkBuildingInMyEmpire@@IPAV1@@Z
_TEXT	SEGMENT
$T233377 = -12						; size = 12
$T233381 = 8						; size = 4
__Count$ = 8						; size = 4
___formal$ = 12						; size = 4
??$_Allocate@VCvGreatWorkBuildingInMyEmpire@@@std@@YAPAVCvGreatWorkBuildingInMyEmpire@@IPAV1@@Z PROC ; std::_Allocate<CvGreatWorkBuildingInMyEmpire>, COMDAT

; 37   : 	if (_Count <= 0)

	mov	ecx, DWORD PTR __Count$[esp-4]
	sub	esp, 12					; 0000000cH
	test	ecx, ecx
	ja	SHORT $LN3@Allocate

; 38   : 		_Count = 0;

	xor	ecx, ecx
$LN1@Allocate:

; 41   : 
; 42   : 		// allocate storage for _Count elements of type _Ty
; 43   : 	return ((_Ty _FARQ *)::operator new(_Count * sizeof (_Ty)));

	lea	edx, DWORD PTR [ecx+ecx*2]
	add	edx, edx
	add	edx, edx
	push	edx
	call	??2@YAPAXI@Z				; operator new
	add	esp, 4

; 44   : 	}

	add	esp, 12					; 0000000cH
	ret	0
$LN3@Allocate:

; 39   : 	else if (((_SIZT)(-1) / _Count) < sizeof (_Ty))

	or	eax, -1
	xor	edx, edx
	div	ecx
	cmp	eax, 12					; 0000000cH
	jae	SHORT $LN1@Allocate

; 40   : 		_THROW_NCEE(std::bad_alloc, NULL);

	lea	eax, DWORD PTR $T233381[esp+8]
	push	eax
	lea	ecx, DWORD PTR $T233377[esp+16]
	mov	DWORD PTR $T233381[esp+12], 0
	call	DWORD PTR __imp_??0exception@std@@QAE@ABQBD@Z
	push	OFFSET __TI2?AVbad_alloc@std@@
	lea	ecx, DWORD PTR $T233377[esp+16]
	push	ecx
	mov	DWORD PTR $T233377[esp+20], OFFSET ??_7bad_alloc@std@@6B@
	call	__CxxThrowException@8
$LN9@Allocate:
$LN8@Allocate:
	int	3
??$_Allocate@VCvGreatWorkBuildingInMyEmpire@@@std@@YAPAVCvGreatWorkBuildingInMyEmpire@@IPAV1@@Z ENDP ; std::_Allocate<CvGreatWorkBuildingInMyEmpire>
_TEXT	ENDS
PUBLIC	??$_Allocate@PAVCvPlot@@@std@@YAPAPAVCvPlot@@IPAPAV1@@Z ; std::_Allocate<CvPlot *>
; Function compile flags: /Ogtpy
;	COMDAT ??$_Allocate@PAVCvPlot@@@std@@YAPAPAVCvPlot@@IPAPAV1@@Z
_TEXT	SEGMENT
$T233387 = -12						; size = 12
$T233391 = 8						; size = 4
__Count$ = 8						; size = 4
___formal$ = 12						; size = 4
??$_Allocate@PAVCvPlot@@@std@@YAPAPAVCvPlot@@IPAPAV1@@Z PROC ; std::_Allocate<CvPlot *>, COMDAT

; 37   : 	if (_Count <= 0)

	mov	ecx, DWORD PTR __Count$[esp-4]
	sub	esp, 12					; 0000000cH
	test	ecx, ecx
	ja	SHORT $LN3@Allocate@2

; 38   : 		_Count = 0;

	xor	ecx, ecx
$LN1@Allocate@2:

; 41   : 
; 42   : 		// allocate storage for _Count elements of type _Ty
; 43   : 	return ((_Ty _FARQ *)::operator new(_Count * sizeof (_Ty)));

	lea	edx, DWORD PTR [ecx*4]
	push	edx
	call	??2@YAPAXI@Z				; operator new
	add	esp, 4

; 44   : 	}

	add	esp, 12					; 0000000cH
	ret	0
$LN3@Allocate@2:

; 39   : 	else if (((_SIZT)(-1) / _Count) < sizeof (_Ty))

	or	eax, -1
	xor	edx, edx
	div	ecx
	cmp	eax, 4
	jae	SHORT $LN1@Allocate@2

; 40   : 		_THROW_NCEE(std::bad_alloc, NULL);

	lea	eax, DWORD PTR $T233391[esp+8]
	push	eax
	lea	ecx, DWORD PTR $T233387[esp+16]
	mov	DWORD PTR $T233391[esp+12], 0
	call	DWORD PTR __imp_??0exception@std@@QAE@ABQBD@Z
	push	OFFSET __TI2?AVbad_alloc@std@@
	lea	ecx, DWORD PTR $T233387[esp+16]
	push	ecx
	mov	DWORD PTR $T233387[esp+20], OFFSET ??_7bad_alloc@std@@6B@
	call	__CxxThrowException@8
$LN9@Allocate@2:
$LN8@Allocate@2:
	int	3
??$_Allocate@PAVCvPlot@@@std@@YAPAPAVCvPlot@@IPAPAV1@@Z ENDP ; std::_Allocate<CvPlot *>
_TEXT	ENDS
PUBLIC	??$_Allocate@W4PlayerTypes@@@std@@YAPAW4PlayerTypes@@IPAW41@@Z ; std::_Allocate<enum PlayerTypes>
; Function compile flags: /Ogtpy
;	COMDAT ??$_Allocate@W4PlayerTypes@@@std@@YAPAW4PlayerTypes@@IPAW41@@Z
_TEXT	SEGMENT
$T233397 = -12						; size = 12
$T233401 = 8						; size = 4
__Count$ = 8						; size = 4
___formal$ = 12						; size = 4
??$_Allocate@W4PlayerTypes@@@std@@YAPAW4PlayerTypes@@IPAW41@@Z PROC ; std::_Allocate<enum PlayerTypes>, COMDAT

; 37   : 	if (_Count <= 0)

	mov	ecx, DWORD PTR __Count$[esp-4]
	sub	esp, 12					; 0000000cH
	test	ecx, ecx
	ja	SHORT $LN3@Allocate@3

; 38   : 		_Count = 0;

	xor	ecx, ecx
$LN1@Allocate@3:

; 41   : 
; 42   : 		// allocate storage for _Count elements of type _Ty
; 43   : 	return ((_Ty _FARQ *)::operator new(_Count * sizeof (_Ty)));

	lea	edx, DWORD PTR [ecx*4]
	push	edx
	call	??2@YAPAXI@Z				; operator new
	add	esp, 4

; 44   : 	}

	add	esp, 12					; 0000000cH
	ret	0
$LN3@Allocate@3:

; 39   : 	else if (((_SIZT)(-1) / _Count) < sizeof (_Ty))

	or	eax, -1
	xor	edx, edx
	div	ecx
	cmp	eax, 4
	jae	SHORT $LN1@Allocate@3

; 40   : 		_THROW_NCEE(std::bad_alloc, NULL);

	lea	eax, DWORD PTR $T233401[esp+8]
	push	eax
	lea	ecx, DWORD PTR $T233397[esp+16]
	mov	DWORD PTR $T233401[esp+12], 0
	call	DWORD PTR __imp_??0exception@std@@QAE@ABQBD@Z
	push	OFFSET __TI2?AVbad_alloc@std@@
	lea	ecx, DWORD PTR $T233397[esp+16]
	push	ecx
	mov	DWORD PTR $T233397[esp+20], OFFSET ??_7bad_alloc@std@@6B@
	call	__CxxThrowException@8
$LN9@Allocate@3:
$LN8@Allocate@3:
	int	3
??$_Allocate@W4PlayerTypes@@@std@@YAPAW4PlayerTypes@@IPAW41@@Z ENDP ; std::_Allocate<enum PlayerTypes>
_TEXT	ENDS
PUBLIC	??$_Allocate@VCvGreatWorkInMyEmpire@@@std@@YAPAVCvGreatWorkInMyEmpire@@IPAV1@@Z ; std::_Allocate<CvGreatWorkInMyEmpire>
; Function compile flags: /Ogtpy
;	COMDAT ??$_Allocate@VCvGreatWorkInMyEmpire@@@std@@YAPAVCvGreatWorkInMyEmpire@@IPAV1@@Z
_TEXT	SEGMENT
$T233407 = -12						; size = 12
$T233411 = 8						; size = 4
__Count$ = 8						; size = 4
___formal$ = 12						; size = 4
??$_Allocate@VCvGreatWorkInMyEmpire@@@std@@YAPAVCvGreatWorkInMyEmpire@@IPAV1@@Z PROC ; std::_Allocate<CvGreatWorkInMyEmpire>, COMDAT

; 37   : 	if (_Count <= 0)

	mov	ecx, DWORD PTR __Count$[esp-4]
	sub	esp, 12					; 0000000cH
	test	ecx, ecx
	ja	SHORT $LN3@Allocate@4

; 38   : 		_Count = 0;

	xor	ecx, ecx
$LN1@Allocate@4:

; 41   : 
; 42   : 		// allocate storage for _Count elements of type _Ty
; 43   : 	return ((_Ty _FARQ *)::operator new(_Count * sizeof (_Ty)));

	lea	edx, DWORD PTR [ecx+ecx*2]
	add	edx, edx
	add	edx, edx
	add	edx, edx
	push	edx
	call	??2@YAPAXI@Z				; operator new
	add	esp, 4

; 44   : 	}

	add	esp, 12					; 0000000cH
	ret	0
$LN3@Allocate@4:

; 39   : 	else if (((_SIZT)(-1) / _Count) < sizeof (_Ty))

	or	eax, -1
	xor	edx, edx
	div	ecx
	cmp	eax, 24					; 00000018H
	jae	SHORT $LN1@Allocate@4

; 40   : 		_THROW_NCEE(std::bad_alloc, NULL);

	lea	eax, DWORD PTR $T233411[esp+8]
	push	eax
	lea	ecx, DWORD PTR $T233407[esp+16]
	mov	DWORD PTR $T233411[esp+12], 0
	call	DWORD PTR __imp_??0exception@std@@QAE@ABQBD@Z
	push	OFFSET __TI2?AVbad_alloc@std@@
	lea	ecx, DWORD PTR $T233407[esp+16]
	push	ecx
	mov	DWORD PTR $T233407[esp+20], OFFSET ??_7bad_alloc@std@@6B@
	call	__CxxThrowException@8
$LN9@Allocate@4:
$LN8@Allocate@4:
	int	3
??$_Allocate@VCvGreatWorkInMyEmpire@@@std@@YAPAVCvGreatWorkInMyEmpire@@IPAV1@@Z ENDP ; std::_Allocate<CvGreatWorkInMyEmpire>
_TEXT	ENDS
PUBLIC	??$_Allocate@W4EraTypes@@@std@@YAPAW4EraTypes@@IPAW41@@Z ; std::_Allocate<enum EraTypes>
; Function compile flags: /Ogtpy
;	COMDAT ??$_Allocate@W4EraTypes@@@std@@YAPAW4EraTypes@@IPAW41@@Z
_TEXT	SEGMENT
$T233417 = -12						; size = 12
$T233421 = 8						; size = 4
__Count$ = 8						; size = 4
___formal$ = 12						; size = 4
??$_Allocate@W4EraTypes@@@std@@YAPAW4EraTypes@@IPAW41@@Z PROC ; std::_Allocate<enum EraTypes>, COMDAT

; 37   : 	if (_Count <= 0)

	mov	ecx, DWORD PTR __Count$[esp-4]
	sub	esp, 12					; 0000000cH
	test	ecx, ecx
	ja	SHORT $LN3@Allocate@5

; 38   : 		_Count = 0;

	xor	ecx, ecx
$LN1@Allocate@5:

; 41   : 
; 42   : 		// allocate storage for _Count elements of type _Ty
; 43   : 	return ((_Ty _FARQ *)::operator new(_Count * sizeof (_Ty)));

	lea	edx, DWORD PTR [ecx*4]
	push	edx
	call	??2@YAPAXI@Z				; operator new
	add	esp, 4

; 44   : 	}

	add	esp, 12					; 0000000cH
	ret	0
$LN3@Allocate@5:

; 39   : 	else if (((_SIZT)(-1) / _Count) < sizeof (_Ty))

	or	eax, -1
	xor	edx, edx
	div	ecx
	cmp	eax, 4
	jae	SHORT $LN1@Allocate@5

; 40   : 		_THROW_NCEE(std::bad_alloc, NULL);

	lea	eax, DWORD PTR $T233421[esp+8]
	push	eax
	lea	ecx, DWORD PTR $T233417[esp+16]
	mov	DWORD PTR $T233421[esp+12], 0
	call	DWORD PTR __imp_??0exception@std@@QAE@ABQBD@Z
	push	OFFSET __TI2?AVbad_alloc@std@@
	lea	ecx, DWORD PTR $T233417[esp+16]
	push	ecx
	mov	DWORD PTR $T233417[esp+20], OFFSET ??_7bad_alloc@std@@6B@
	call	__CxxThrowException@8
$LN9@Allocate@5:
$LN8@Allocate@5:
	int	3
??$_Allocate@W4EraTypes@@@std@@YAPAW4EraTypes@@IPAW41@@Z ENDP ; std::_Allocate<enum EraTypes>
_TEXT	ENDS
PUBLIC	??G?$_Vector_iterator@VCvGreatWorkBuildingInMyEmpire@@V?$allocator@VCvGreatWorkBuildingInMyEmpire@@@std@@@std@@QBEHABV?$_Vector_const_iterator@VCvGreatWorkBuildingInMyEmpire@@V?$allocator@VCvGreatWorkBuildingInMyEmpire@@@std@@@1@@Z ; std::_Vector_iterator<CvGreatWorkBuildingInMyEmpire,std::allocator<CvGreatWorkBuildingInMyEmpire> >::operator-
; Function compile flags: /Ogtpy
; File c:\program files (x86)\microsoft visual studio 9.0\vc\include\vector
;	COMDAT ??G?$_Vector_iterator@VCvGreatWorkBuildingInMyEmpire@@V?$allocator@VCvGreatWorkBuildingInMyEmpire@@@std@@@std@@QBEHABV?$_Vector_const_iterator@VCvGreatWorkBuildingInMyEmpire@@V?$allocator@VCvGreatWorkBuildingInMyEmpire@@@std@@@1@@Z
_TEXT	SEGMENT
__Right$ = 8						; size = 4
??G?$_Vector_iterator@VCvGreatWorkBuildingInMyEmpire@@V?$allocator@VCvGreatWorkBuildingInMyEmpire@@@std@@@std@@QBEHABV?$_Vector_const_iterator@VCvGreatWorkBuildingInMyEmpire@@V?$allocator@VCvGreatWorkBuildingInMyEmpire@@@std@@@1@@Z PROC ; std::_Vector_iterator<CvGreatWorkBuildingInMyEmpire,std::allocator<CvGreatWorkBuildingInMyEmpire> >::operator-, COMDAT
; _this$ = ecx

; 398  : 		return (*(_Mybase *)this - _Right);

	mov	eax, DWORD PTR __Right$[esp-4]
	mov	ecx, DWORD PTR [ecx]
	sub	ecx, DWORD PTR [eax]
	mov	eax, 715827883				; 2aaaaaabH
	imul	ecx
	sar	edx, 1
	mov	eax, edx
	shr	eax, 31					; 0000001fH
	add	eax, edx

; 399  : 		}

	ret	4
??G?$_Vector_iterator@VCvGreatWorkBuildingInMyEmpire@@V?$allocator@VCvGreatWorkBuildingInMyEmpire@@@std@@@std@@QBEHABV?$_Vector_const_iterator@VCvGreatWorkBuildingInMyEmpire@@V?$allocator@VCvGreatWorkBuildingInMyEmpire@@@std@@@1@@Z ENDP ; std::_Vector_iterator<CvGreatWorkBuildingInMyEmpire,std::allocator<CvGreatWorkBuildingInMyEmpire> >::operator-
_TEXT	ENDS
PUBLIC	??$_Iter_random@PAPAVCvPlot@@PAPAV1@@std@@YA?AUrandom_access_iterator_tag@0@ABQAPAVCvPlot@@0@Z ; std::_Iter_random<CvPlot * *,CvPlot * *>
; Function compile flags: /Ogtpy
; File c:\program files (x86)\microsoft visual studio 9.0\vc\include\xutility
;	COMDAT ??$_Iter_random@PAPAVCvPlot@@PAPAV1@@std@@YA?AUrandom_access_iterator_tag@0@ABQAPAVCvPlot@@0@Z
_TEXT	SEGMENT
___$ReturnUdt$ = 8					; size = 4
___formal$ = 12						; size = 4
___formal$ = 16						; size = 4
??$_Iter_random@PAPAVCvPlot@@PAPAV1@@std@@YA?AUrandom_access_iterator_tag@0@ABQAPAVCvPlot@@0@Z PROC ; std::_Iter_random<CvPlot * *,CvPlot * *>, COMDAT

; 994  : 	typename _Iter_random_helper<
; 995  : 		iterator_traits<_Iter1>::iterator_category, 
; 996  : 		iterator_traits<_Iter2>::iterator_category>::_Iter_random_cat _Cat;
; 997  : 	return (_Cat);

	mov	eax, DWORD PTR ___$ReturnUdt$[esp-4]

; 998  : 	}

	ret	0
??$_Iter_random@PAPAVCvPlot@@PAPAV1@@std@@YA?AUrandom_access_iterator_tag@0@ABQAPAVCvPlot@@0@Z ENDP ; std::_Iter_random<CvPlot * *,CvPlot * *>
_TEXT	ENDS
PUBLIC	??$_Ptr_cat@PAPAVCvPlot@@PAPAV1@@std@@YA?AU_Scalar_ptr_iterator_tag@0@AAPAPAVCvPlot@@0@Z ; std::_Ptr_cat<CvPlot * *,CvPlot * *>
; Function compile flags: /Ogtpy
;	COMDAT ??$_Ptr_cat@PAPAVCvPlot@@PAPAV1@@std@@YA?AU_Scalar_ptr_iterator_tag@0@AAPAPAVCvPlot@@0@Z
_TEXT	SEGMENT
__Cat$ = -1						; size = 1
___formal$ = 8						; size = 4
___formal$ = 12						; size = 4
??$_Ptr_cat@PAPAVCvPlot@@PAPAV1@@std@@YA?AU_Scalar_ptr_iterator_tag@0@AAPAPAVCvPlot@@0@Z PROC ; std::_Ptr_cat<CvPlot * *,CvPlot * *>, COMDAT

; 1509 : 	{

	push	ecx

; 1510 : 	typename _Ptr_cat_helper<_T1, _T2>::_Ptr_cat _Cat;
; 1511 : 	return (_Cat);

	mov	al, BYTE PTR __Cat$[esp+4]

; 1512 : 	}

	pop	ecx
	ret	0
??$_Ptr_cat@PAPAVCvPlot@@PAPAV1@@std@@YA?AU_Scalar_ptr_iterator_tag@0@AAPAPAVCvPlot@@0@Z ENDP ; std::_Ptr_cat<CvPlot * *,CvPlot * *>
_TEXT	ENDS
PUBLIC	??$_Copy_opt@PAPAVCvPlot@@PAPAV1@Urandom_access_iterator_tag@std@@@std@@YAPAPAVCvPlot@@PAPAV1@00Urandom_access_iterator_tag@0@U_Scalar_ptr_iterator_tag@0@U_Range_checked_iterator_tag@0@@Z ; std::_Copy_opt<CvPlot * *,CvPlot * *,std::random_access_iterator_tag>
EXTRN	__imp__memmove_s:PROC
; Function compile flags: /Ogtpy
;	COMDAT ??$_Copy_opt@PAPAVCvPlot@@PAPAV1@Urandom_access_iterator_tag@std@@@std@@YAPAPAVCvPlot@@PAPAV1@00Urandom_access_iterator_tag@0@U_Scalar_ptr_iterator_tag@0@U_Range_checked_iterator_tag@0@@Z
_TEXT	SEGMENT
__First$ = 8						; size = 4
__Last$ = 12						; size = 4
__Dest$ = 16						; size = 4
___formal$ = 20						; size = 1
___formal$ = 24						; size = 1
___formal$ = 28						; size = 1
??$_Copy_opt@PAPAVCvPlot@@PAPAV1@Urandom_access_iterator_tag@std@@@std@@YAPAPAVCvPlot@@PAPAV1@00Urandom_access_iterator_tag@0@U_Scalar_ptr_iterator_tag@0@U_Range_checked_iterator_tag@0@@Z PROC ; std::_Copy_opt<CvPlot * *,CvPlot * *,std::random_access_iterator_tag>, COMDAT

; 2495 : 
; 2496 :  #if _HAS_ITERATOR_DEBUGGING
; 2497 : 	_DEBUG_RANGE(_First, _Last);
; 2498 : 	if (_First != _Last)
; 2499 : 		_DEBUG_POINTER(_Dest);
; 2500 :  #endif /* _HAS_ITERATOR_DEBUGGING */
; 2501 : 
; 2502 : 	ptrdiff_t _Off = _Last - _First;	// NB: non-overlapping move

	mov	eax, DWORD PTR __Last$[esp-4]
	mov	edx, DWORD PTR __First$[esp-4]
	sub	eax, edx
	push	esi
	sar	eax, 2
	push	edi

; 2503 : 	// if _OutIt is range checked, this will make sure there is enough space for the memmove
; 2504 : 	_OutIt _Result = _Dest + _Off;

	mov	edi, DWORD PTR __Dest$[esp+4]
	lea	ecx, DWORD PTR [eax*4]
	lea	esi, DWORD PTR [ecx+edi]

; 2505 : 	if (_Off > 0)

	test	eax, eax
	jle	SHORT $LN4@Copy_opt

; 2506 : 		_CRT_SECURE_MEMMOVE(&*_Dest, _Off * sizeof (*_First), &*_First, _Off * sizeof (*_First));

	push	ecx
	push	edx
	push	ecx
	push	edi
	call	DWORD PTR __imp__memmove_s
	add	esp, 16					; 00000010H
$LN4@Copy_opt:
	pop	edi

; 2507 : 	return _Result;

	mov	eax, esi
	pop	esi

; 2508 : 	}

	ret	0
??$_Copy_opt@PAPAVCvPlot@@PAPAV1@Urandom_access_iterator_tag@std@@@std@@YAPAPAVCvPlot@@PAPAV1@00Urandom_access_iterator_tag@0@U_Scalar_ptr_iterator_tag@0@U_Range_checked_iterator_tag@0@@Z ENDP ; std::_Copy_opt<CvPlot * *,CvPlot * *,std::random_access_iterator_tag>
_TEXT	ENDS
PUBLIC	??$_Iter_random@PAW4PlayerTypes@@PAW41@@std@@YA?AUrandom_access_iterator_tag@0@ABQAW4PlayerTypes@@0@Z ; std::_Iter_random<enum PlayerTypes *,enum PlayerTypes *>
; Function compile flags: /Ogtpy
;	COMDAT ??$_Iter_random@PAW4PlayerTypes@@PAW41@@std@@YA?AUrandom_access_iterator_tag@0@ABQAW4PlayerTypes@@0@Z
_TEXT	SEGMENT
___$ReturnUdt$ = 8					; size = 4
___formal$ = 12						; size = 4
___formal$ = 16						; size = 4
??$_Iter_random@PAW4PlayerTypes@@PAW41@@std@@YA?AUrandom_access_iterator_tag@0@ABQAW4PlayerTypes@@0@Z PROC ; std::_Iter_random<enum PlayerTypes *,enum PlayerTypes *>, COMDAT

; 994  : 	typename _Iter_random_helper<
; 995  : 		iterator_traits<_Iter1>::iterator_category, 
; 996  : 		iterator_traits<_Iter2>::iterator_category>::_Iter_random_cat _Cat;
; 997  : 	return (_Cat);

	mov	eax, DWORD PTR ___$ReturnUdt$[esp-4]

; 998  : 	}

	ret	0
??$_Iter_random@PAW4PlayerTypes@@PAW41@@std@@YA?AUrandom_access_iterator_tag@0@ABQAW4PlayerTypes@@0@Z ENDP ; std::_Iter_random<enum PlayerTypes *,enum PlayerTypes *>
_TEXT	ENDS
PUBLIC	??$_Ptr_cat@PAW4PlayerTypes@@PAW41@@std@@YA?AU_Nonscalar_ptr_iterator_tag@0@AAPAW4PlayerTypes@@0@Z ; std::_Ptr_cat<enum PlayerTypes *,enum PlayerTypes *>
; Function compile flags: /Ogtpy
;	COMDAT ??$_Ptr_cat@PAW4PlayerTypes@@PAW41@@std@@YA?AU_Nonscalar_ptr_iterator_tag@0@AAPAW4PlayerTypes@@0@Z
_TEXT	SEGMENT
__Cat$ = -1						; size = 1
___formal$ = 8						; size = 4
___formal$ = 12						; size = 4
??$_Ptr_cat@PAW4PlayerTypes@@PAW41@@std@@YA?AU_Nonscalar_ptr_iterator_tag@0@AAPAW4PlayerTypes@@0@Z PROC ; std::_Ptr_cat<enum PlayerTypes *,enum PlayerTypes *>, COMDAT

; 1509 : 	{

	push	ecx

; 1510 : 	typename _Ptr_cat_helper<_T1, _T2>::_Ptr_cat _Cat;
; 1511 : 	return (_Cat);

	mov	al, BYTE PTR __Cat$[esp+4]

; 1512 : 	}

	pop	ecx
	ret	0
??$_Ptr_cat@PAW4PlayerTypes@@PAW41@@std@@YA?AU_Nonscalar_ptr_iterator_tag@0@AAPAW4PlayerTypes@@0@Z ENDP ; std::_Ptr_cat<enum PlayerTypes *,enum PlayerTypes *>
_TEXT	ENDS
PUBLIC	??$_Copy_opt@PAW4PlayerTypes@@PAW41@Urandom_access_iterator_tag@std@@@std@@YAPAW4PlayerTypes@@PAW41@00Urandom_access_iterator_tag@0@U_Nonscalar_ptr_iterator_tag@0@U_Range_checked_iterator_tag@0@@Z ; std::_Copy_opt<enum PlayerTypes *,enum PlayerTypes *,std::random_access_iterator_tag>
; Function compile flags: /Ogtpy
;	COMDAT ??$_Copy_opt@PAW4PlayerTypes@@PAW41@Urandom_access_iterator_tag@std@@@std@@YAPAW4PlayerTypes@@PAW41@00Urandom_access_iterator_tag@0@U_Nonscalar_ptr_iterator_tag@0@U_Range_checked_iterator_tag@0@@Z
_TEXT	SEGMENT
__First$ = 8						; size = 4
__Last$ = 12						; size = 4
__Dest$ = 16						; size = 4
___formal$ = 20						; size = 1
___formal$ = 24						; size = 1
___formal$ = 28						; size = 1
??$_Copy_opt@PAW4PlayerTypes@@PAW41@Urandom_access_iterator_tag@std@@@std@@YAPAW4PlayerTypes@@PAW41@00Urandom_access_iterator_tag@0@U_Nonscalar_ptr_iterator_tag@0@U_Range_checked_iterator_tag@0@@Z PROC ; std::_Copy_opt<enum PlayerTypes *,enum PlayerTypes *,std::random_access_iterator_tag>, COMDAT

; 2470 : 	_DEBUG_RANGE(_First, _Last);
; 2471 : 	for (; _First != _Last; ++_Dest, ++_First)

	mov	ecx, DWORD PTR __First$[esp-4]
	mov	edx, DWORD PTR __Last$[esp-4]
	mov	eax, DWORD PTR __Dest$[esp-4]
	cmp	ecx, edx
	je	SHORT $LN1@Copy_opt@2
	push	esi
$LL3@Copy_opt@2:

; 2472 : 		*_Dest = *_First;

	mov	esi, DWORD PTR [ecx]
	mov	DWORD PTR [eax], esi
	add	ecx, 4
	add	eax, 4
	cmp	ecx, edx
	jne	SHORT $LL3@Copy_opt@2
	pop	esi
$LN1@Copy_opt@2:

; 2473 : 	return (_Dest);
; 2474 : 	}

	ret	0
??$_Copy_opt@PAW4PlayerTypes@@PAW41@Urandom_access_iterator_tag@std@@@std@@YAPAW4PlayerTypes@@PAW41@00Urandom_access_iterator_tag@0@U_Nonscalar_ptr_iterator_tag@0@U_Range_checked_iterator_tag@0@@Z ENDP ; std::_Copy_opt<enum PlayerTypes *,enum PlayerTypes *,std::random_access_iterator_tag>
_TEXT	ENDS
PUBLIC	??$_Iter_random@PAVCvGreatWorkInMyEmpire@@PAV1@@std@@YA?AUrandom_access_iterator_tag@0@ABQAVCvGreatWorkInMyEmpire@@0@Z ; std::_Iter_random<CvGreatWorkInMyEmpire *,CvGreatWorkInMyEmpire *>
; Function compile flags: /Ogtpy
;	COMDAT ??$_Iter_random@PAVCvGreatWorkInMyEmpire@@PAV1@@std@@YA?AUrandom_access_iterator_tag@0@ABQAVCvGreatWorkInMyEmpire@@0@Z
_TEXT	SEGMENT
___$ReturnUdt$ = 8					; size = 4
___formal$ = 12						; size = 4
___formal$ = 16						; size = 4
??$_Iter_random@PAVCvGreatWorkInMyEmpire@@PAV1@@std@@YA?AUrandom_access_iterator_tag@0@ABQAVCvGreatWorkInMyEmpire@@0@Z PROC ; std::_Iter_random<CvGreatWorkInMyEmpire *,CvGreatWorkInMyEmpire *>, COMDAT

; 994  : 	typename _Iter_random_helper<
; 995  : 		iterator_traits<_Iter1>::iterator_category, 
; 996  : 		iterator_traits<_Iter2>::iterator_category>::_Iter_random_cat _Cat;
; 997  : 	return (_Cat);

	mov	eax, DWORD PTR ___$ReturnUdt$[esp-4]

; 998  : 	}

	ret	0
??$_Iter_random@PAVCvGreatWorkInMyEmpire@@PAV1@@std@@YA?AUrandom_access_iterator_tag@0@ABQAVCvGreatWorkInMyEmpire@@0@Z ENDP ; std::_Iter_random<CvGreatWorkInMyEmpire *,CvGreatWorkInMyEmpire *>
_TEXT	ENDS
PUBLIC	??$_Ptr_cat@PAVCvGreatWorkInMyEmpire@@PAV1@@std@@YA?AU_Nonscalar_ptr_iterator_tag@0@AAPAVCvGreatWorkInMyEmpire@@0@Z ; std::_Ptr_cat<CvGreatWorkInMyEmpire *,CvGreatWorkInMyEmpire *>
; Function compile flags: /Ogtpy
;	COMDAT ??$_Ptr_cat@PAVCvGreatWorkInMyEmpire@@PAV1@@std@@YA?AU_Nonscalar_ptr_iterator_tag@0@AAPAVCvGreatWorkInMyEmpire@@0@Z
_TEXT	SEGMENT
__Cat$ = -1						; size = 1
___formal$ = 8						; size = 4
___formal$ = 12						; size = 4
??$_Ptr_cat@PAVCvGreatWorkInMyEmpire@@PAV1@@std@@YA?AU_Nonscalar_ptr_iterator_tag@0@AAPAVCvGreatWorkInMyEmpire@@0@Z PROC ; std::_Ptr_cat<CvGreatWorkInMyEmpire *,CvGreatWorkInMyEmpire *>, COMDAT

; 1509 : 	{

	push	ecx

; 1510 : 	typename _Ptr_cat_helper<_T1, _T2>::_Ptr_cat _Cat;
; 1511 : 	return (_Cat);

	mov	al, BYTE PTR __Cat$[esp+4]

; 1512 : 	}

	pop	ecx
	ret	0
??$_Ptr_cat@PAVCvGreatWorkInMyEmpire@@PAV1@@std@@YA?AU_Nonscalar_ptr_iterator_tag@0@AAPAVCvGreatWorkInMyEmpire@@0@Z ENDP ; std::_Ptr_cat<CvGreatWorkInMyEmpire *,CvGreatWorkInMyEmpire *>
_TEXT	ENDS
PUBLIC	??$_Copy_opt@PAVCvGreatWorkInMyEmpire@@PAV1@Urandom_access_iterator_tag@std@@@std@@YAPAVCvGreatWorkInMyEmpire@@PAV1@00Urandom_access_iterator_tag@0@U_Nonscalar_ptr_iterator_tag@0@U_Range_checked_iterator_tag@0@@Z ; std::_Copy_opt<CvGreatWorkInMyEmpire *,CvGreatWorkInMyEmpire *,std::random_access_iterator_tag>
; Function compile flags: /Ogtpy
;	COMDAT ??$_Copy_opt@PAVCvGreatWorkInMyEmpire@@PAV1@Urandom_access_iterator_tag@std@@@std@@YAPAVCvGreatWorkInMyEmpire@@PAV1@00Urandom_access_iterator_tag@0@U_Nonscalar_ptr_iterator_tag@0@U_Range_checked_iterator_tag@0@@Z
_TEXT	SEGMENT
__First$ = 8						; size = 4
__Last$ = 12						; size = 4
__Dest$ = 16						; size = 4
___formal$ = 20						; size = 1
___formal$ = 24						; size = 1
___formal$ = 28						; size = 1
??$_Copy_opt@PAVCvGreatWorkInMyEmpire@@PAV1@Urandom_access_iterator_tag@std@@@std@@YAPAVCvGreatWorkInMyEmpire@@PAV1@00Urandom_access_iterator_tag@0@U_Nonscalar_ptr_iterator_tag@0@U_Range_checked_iterator_tag@0@@Z PROC ; std::_Copy_opt<CvGreatWorkInMyEmpire *,CvGreatWorkInMyEmpire *,std::random_access_iterator_tag>, COMDAT

; 2470 : 	_DEBUG_RANGE(_First, _Last);
; 2471 : 	for (; _First != _Last; ++_Dest, ++_First)

	mov	ecx, DWORD PTR __First$[esp-4]
	mov	edx, DWORD PTR __Last$[esp-4]
	mov	eax, DWORD PTR __Dest$[esp-4]
	cmp	ecx, edx
	je	SHORT $LN1@Copy_opt@3
	push	esi
$LL3@Copy_opt@3:

; 2472 : 		*_Dest = *_First;

	mov	esi, DWORD PTR [ecx]
	mov	DWORD PTR [eax], esi
	mov	esi, DWORD PTR [ecx+4]
	mov	DWORD PTR [eax+4], esi
	mov	esi, DWORD PTR [ecx+8]
	mov	DWORD PTR [eax+8], esi
	mov	esi, DWORD PTR [ecx+12]
	mov	DWORD PTR [eax+12], esi
	mov	esi, DWORD PTR [ecx+16]
	mov	DWORD PTR [eax+16], esi
	mov	esi, DWORD PTR [ecx+20]
	mov	DWORD PTR [eax+20], esi
	add	ecx, 24					; 00000018H
	add	eax, 24					; 00000018H
	cmp	ecx, edx
	jne	SHORT $LL3@Copy_opt@3
	pop	esi
$LN1@Copy_opt@3:

; 2473 : 	return (_Dest);
; 2474 : 	}

	ret	0
??$_Copy_opt@PAVCvGreatWorkInMyEmpire@@PAV1@Urandom_access_iterator_tag@std@@@std@@YAPAVCvGreatWorkInMyEmpire@@PAV1@00Urandom_access_iterator_tag@0@U_Nonscalar_ptr_iterator_tag@0@U_Range_checked_iterator_tag@0@@Z ENDP ; std::_Copy_opt<CvGreatWorkInMyEmpire *,CvGreatWorkInMyEmpire *,std::random_access_iterator_tag>
_TEXT	ENDS
PUBLIC	??$_Iter_random@PAW4EraTypes@@PAW41@@std@@YA?AUrandom_access_iterator_tag@0@ABQAW4EraTypes@@0@Z ; std::_Iter_random<enum EraTypes *,enum EraTypes *>
; Function compile flags: /Ogtpy
;	COMDAT ??$_Iter_random@PAW4EraTypes@@PAW41@@std@@YA?AUrandom_access_iterator_tag@0@ABQAW4EraTypes@@0@Z
_TEXT	SEGMENT
___$ReturnUdt$ = 8					; size = 4
___formal$ = 12						; size = 4
___formal$ = 16						; size = 4
??$_Iter_random@PAW4EraTypes@@PAW41@@std@@YA?AUrandom_access_iterator_tag@0@ABQAW4EraTypes@@0@Z PROC ; std::_Iter_random<enum EraTypes *,enum EraTypes *>, COMDAT

; 994  : 	typename _Iter_random_helper<
; 995  : 		iterator_traits<_Iter1>::iterator_category, 
; 996  : 		iterator_traits<_Iter2>::iterator_category>::_Iter_random_cat _Cat;
; 997  : 	return (_Cat);

	mov	eax, DWORD PTR ___$ReturnUdt$[esp-4]

; 998  : 	}

	ret	0
??$_Iter_random@PAW4EraTypes@@PAW41@@std@@YA?AUrandom_access_iterator_tag@0@ABQAW4EraTypes@@0@Z ENDP ; std::_Iter_random<enum EraTypes *,enum EraTypes *>
_TEXT	ENDS
PUBLIC	??$_Ptr_cat@PAW4EraTypes@@PAW41@@std@@YA?AU_Nonscalar_ptr_iterator_tag@0@AAPAW4EraTypes@@0@Z ; std::_Ptr_cat<enum EraTypes *,enum EraTypes *>
; Function compile flags: /Ogtpy
;	COMDAT ??$_Ptr_cat@PAW4EraTypes@@PAW41@@std@@YA?AU_Nonscalar_ptr_iterator_tag@0@AAPAW4EraTypes@@0@Z
_TEXT	SEGMENT
__Cat$ = -1						; size = 1
___formal$ = 8						; size = 4
___formal$ = 12						; size = 4
??$_Ptr_cat@PAW4EraTypes@@PAW41@@std@@YA?AU_Nonscalar_ptr_iterator_tag@0@AAPAW4EraTypes@@0@Z PROC ; std::_Ptr_cat<enum EraTypes *,enum EraTypes *>, COMDAT

; 1509 : 	{

	push	ecx

; 1510 : 	typename _Ptr_cat_helper<_T1, _T2>::_Ptr_cat _Cat;
; 1511 : 	return (_Cat);

	mov	al, BYTE PTR __Cat$[esp+4]

; 1512 : 	}

	pop	ecx
	ret	0
??$_Ptr_cat@PAW4EraTypes@@PAW41@@std@@YA?AU_Nonscalar_ptr_iterator_tag@0@AAPAW4EraTypes@@0@Z ENDP ; std::_Ptr_cat<enum EraTypes *,enum EraTypes *>
_TEXT	ENDS
PUBLIC	??$_Copy_opt@PAW4EraTypes@@PAW41@Urandom_access_iterator_tag@std@@@std@@YAPAW4EraTypes@@PAW41@00Urandom_access_iterator_tag@0@U_Nonscalar_ptr_iterator_tag@0@U_Range_checked_iterator_tag@0@@Z ; std::_Copy_opt<enum EraTypes *,enum EraTypes *,std::random_access_iterator_tag>
; Function compile flags: /Ogtpy
;	COMDAT ??$_Copy_opt@PAW4EraTypes@@PAW41@Urandom_access_iterator_tag@std@@@std@@YAPAW4EraTypes@@PAW41@00Urandom_access_iterator_tag@0@U_Nonscalar_ptr_iterator_tag@0@U_Range_checked_iterator_tag@0@@Z
_TEXT	SEGMENT
__First$ = 8						; size = 4
__Last$ = 12						; size = 4
__Dest$ = 16						; size = 4
___formal$ = 20						; size = 1
___formal$ = 24						; size = 1
___formal$ = 28						; size = 1
??$_Copy_opt@PAW4EraTypes@@PAW41@Urandom_access_iterator_tag@std@@@std@@YAPAW4EraTypes@@PAW41@00Urandom_access_iterator_tag@0@U_Nonscalar_ptr_iterator_tag@0@U_Range_checked_iterator_tag@0@@Z PROC ; std::_Copy_opt<enum EraTypes *,enum EraTypes *,std::random_access_iterator_tag>, COMDAT

; 2470 : 	_DEBUG_RANGE(_First, _Last);
; 2471 : 	for (; _First != _Last; ++_Dest, ++_First)

	mov	ecx, DWORD PTR __First$[esp-4]
	mov	edx, DWORD PTR __Last$[esp-4]
	mov	eax, DWORD PTR __Dest$[esp-4]
	cmp	ecx, edx
	je	SHORT $LN1@Copy_opt@4
	push	esi
$LL3@Copy_opt@4:

; 2472 : 		*_Dest = *_First;

	mov	esi, DWORD PTR [ecx]
	mov	DWORD PTR [eax], esi
	add	ecx, 4
	add	eax, 4
	cmp	ecx, edx
	jne	SHORT $LL3@Copy_opt@4
	pop	esi
$LN1@Copy_opt@4:

; 2473 : 	return (_Dest);
; 2474 : 	}

	ret	0
??$_Copy_opt@PAW4EraTypes@@PAW41@Urandom_access_iterator_tag@std@@@std@@YAPAW4EraTypes@@PAW41@00Urandom_access_iterator_tag@0@U_Nonscalar_ptr_iterator_tag@0@U_Range_checked_iterator_tag@0@@Z ENDP ; std::_Copy_opt<enum EraTypes *,enum EraTypes *,std::random_access_iterator_tag>
_TEXT	ENDS
PUBLIC	??$_Ptr_cat@PAVCvGreatWorkBuildingInMyEmpire@@PAV1@@std@@YA?AU_Nonscalar_ptr_iterator_tag@0@AAPAVCvGreatWorkBuildingInMyEmpire@@0@Z ; std::_Ptr_cat<CvGreatWorkBuildingInMyEmpire *,CvGreatWorkBuildingInMyEmpire *>
; Function compile flags: /Ogtpy
;	COMDAT ??$_Ptr_cat@PAVCvGreatWorkBuildingInMyEmpire@@PAV1@@std@@YA?AU_Nonscalar_ptr_iterator_tag@0@AAPAVCvGreatWorkBuildingInMyEmpire@@0@Z
_TEXT	SEGMENT
__Cat$ = -1						; size = 1
___formal$ = 8						; size = 4
___formal$ = 12						; size = 4
??$_Ptr_cat@PAVCvGreatWorkBuildingInMyEmpire@@PAV1@@std@@YA?AU_Nonscalar_ptr_iterator_tag@0@AAPAVCvGreatWorkBuildingInMyEmpire@@0@Z PROC ; std::_Ptr_cat<CvGreatWorkBuildingInMyEmpire *,CvGreatWorkBuildingInMyEmpire *>, COMDAT

; 1509 : 	{

	push	ecx

; 1510 : 	typename _Ptr_cat_helper<_T1, _T2>::_Ptr_cat _Cat;
; 1511 : 	return (_Cat);

	mov	al, BYTE PTR __Cat$[esp+4]

; 1512 : 	}

	pop	ecx
	ret	0
??$_Ptr_cat@PAVCvGreatWorkBuildingInMyEmpire@@PAV1@@std@@YA?AU_Nonscalar_ptr_iterator_tag@0@AAPAVCvGreatWorkBuildingInMyEmpire@@0@Z ENDP ; std::_Ptr_cat<CvGreatWorkBuildingInMyEmpire *,CvGreatWorkBuildingInMyEmpire *>
_TEXT	ENDS
PUBLIC	??$_Destroy_range@V?$allocator@PAVCvPlot@@@std@@@std@@YAXPAPAVCvPlot@@0AAV?$allocator@PAVCvPlot@@@0@U_Scalar_ptr_iterator_tag@0@@Z ; std::_Destroy_range<std::allocator<CvPlot *> >
; Function compile flags: /Ogtpy
; File c:\program files (x86)\microsoft visual studio 9.0\vc\include\xmemory
;	COMDAT ??$_Destroy_range@V?$allocator@PAVCvPlot@@@std@@@std@@YAXPAPAVCvPlot@@0AAV?$allocator@PAVCvPlot@@@0@U_Scalar_ptr_iterator_tag@0@@Z
_TEXT	SEGMENT
__First$ = 8						; size = 4
__Last$ = 12						; size = 4
__Al$ = 16						; size = 4
___formal$ = 20						; size = 1
??$_Destroy_range@V?$allocator@PAVCvPlot@@@std@@@std@@YAXPAPAVCvPlot@@0AAV?$allocator@PAVCvPlot@@@0@U_Scalar_ptr_iterator_tag@0@@Z PROC ; std::_Destroy_range<std::allocator<CvPlot *> >, COMDAT

; 242  : 	}

	ret	0
??$_Destroy_range@V?$allocator@PAVCvPlot@@@std@@@std@@YAXPAPAVCvPlot@@0AAV?$allocator@PAVCvPlot@@@0@U_Scalar_ptr_iterator_tag@0@@Z ENDP ; std::_Destroy_range<std::allocator<CvPlot *> >
_TEXT	ENDS
PUBLIC	??$_Fill@PAVCvGreatWorkBuildingInMyEmpire@@V1@@std@@YAXPAVCvGreatWorkBuildingInMyEmpire@@0ABV1@@Z ; std::_Fill<CvGreatWorkBuildingInMyEmpire *,CvGreatWorkBuildingInMyEmpire>
; Function compile flags: /Ogtpy
; File c:\program files (x86)\microsoft visual studio 9.0\vc\include\xutility
;	COMDAT ??$_Fill@PAVCvGreatWorkBuildingInMyEmpire@@V1@@std@@YAXPAVCvGreatWorkBuildingInMyEmpire@@0ABV1@@Z
_TEXT	SEGMENT
__First$ = 8						; size = 4
__Last$ = 12						; size = 4
__Val$ = 16						; size = 4
??$_Fill@PAVCvGreatWorkBuildingInMyEmpire@@V1@@std@@YAXPAVCvGreatWorkBuildingInMyEmpire@@0ABV1@@Z PROC ; std::_Fill<CvGreatWorkBuildingInMyEmpire *,CvGreatWorkBuildingInMyEmpire>, COMDAT

; 3157 : 	_DEBUG_RANGE(_First, _Last);
; 3158 : 	for (; _First != _Last; ++_First)

	mov	eax, DWORD PTR __First$[esp-4]
	mov	edx, DWORD PTR __Last$[esp-4]
	cmp	eax, edx
	je	SHORT $LN1@Fill
	mov	ecx, DWORD PTR __Val$[esp-4]
	push	esi
$LL3@Fill:

; 3159 : 		*_First = _Val;

	mov	esi, DWORD PTR [ecx]
	mov	DWORD PTR [eax], esi
	mov	esi, DWORD PTR [ecx+4]
	mov	DWORD PTR [eax+4], esi
	mov	esi, DWORD PTR [ecx+8]
	mov	DWORD PTR [eax+8], esi
	add	eax, 12					; 0000000cH
	cmp	eax, edx
	jne	SHORT $LL3@Fill
	pop	esi
$LN1@Fill:

; 3160 : 	}

	ret	0
??$_Fill@PAVCvGreatWorkBuildingInMyEmpire@@V1@@std@@YAXPAVCvGreatWorkBuildingInMyEmpire@@0ABV1@@Z ENDP ; std::_Fill<CvGreatWorkBuildingInMyEmpire *,CvGreatWorkBuildingInMyEmpire>
_TEXT	ENDS
PUBLIC	??$_Iter_random@PAVCvGreatWorkBuildingInMyEmpire@@PAV1@@std@@YA?AUrandom_access_iterator_tag@0@ABQAVCvGreatWorkBuildingInMyEmpire@@0@Z ; std::_Iter_random<CvGreatWorkBuildingInMyEmpire *,CvGreatWorkBuildingInMyEmpire *>
; Function compile flags: /Ogtpy
;	COMDAT ??$_Iter_random@PAVCvGreatWorkBuildingInMyEmpire@@PAV1@@std@@YA?AUrandom_access_iterator_tag@0@ABQAVCvGreatWorkBuildingInMyEmpire@@0@Z
_TEXT	SEGMENT
___$ReturnUdt$ = 8					; size = 4
___formal$ = 12						; size = 4
___formal$ = 16						; size = 4
??$_Iter_random@PAVCvGreatWorkBuildingInMyEmpire@@PAV1@@std@@YA?AUrandom_access_iterator_tag@0@ABQAVCvGreatWorkBuildingInMyEmpire@@0@Z PROC ; std::_Iter_random<CvGreatWorkBuildingInMyEmpire *,CvGreatWorkBuildingInMyEmpire *>, COMDAT

; 994  : 	typename _Iter_random_helper<
; 995  : 		iterator_traits<_Iter1>::iterator_category, 
; 996  : 		iterator_traits<_Iter2>::iterator_category>::_Iter_random_cat _Cat;
; 997  : 	return (_Cat);

	mov	eax, DWORD PTR ___$ReturnUdt$[esp-4]

; 998  : 	}

	ret	0
??$_Iter_random@PAVCvGreatWorkBuildingInMyEmpire@@PAV1@@std@@YA?AUrandom_access_iterator_tag@0@ABQAVCvGreatWorkBuildingInMyEmpire@@0@Z ENDP ; std::_Iter_random<CvGreatWorkBuildingInMyEmpire *,CvGreatWorkBuildingInMyEmpire *>
_TEXT	ENDS
PUBLIC	??$_Move_cat@PAVCvGreatWorkBuildingInMyEmpire@@@std@@YA?AU_Undefined_move_tag@0@ABQAVCvGreatWorkBuildingInMyEmpire@@@Z ; std::_Move_cat<CvGreatWorkBuildingInMyEmpire *>
; Function compile flags: /Ogtpy
;	COMDAT ??$_Move_cat@PAVCvGreatWorkBuildingInMyEmpire@@@std@@YA?AU_Undefined_move_tag@0@ABQAVCvGreatWorkBuildingInMyEmpire@@@Z
_TEXT	SEGMENT
__Cat$ = -1						; size = 1
___formal$ = 8						; size = 4
??$_Move_cat@PAVCvGreatWorkBuildingInMyEmpire@@@std@@YA?AU_Undefined_move_tag@0@ABQAVCvGreatWorkBuildingInMyEmpire@@@Z PROC ; std::_Move_cat<CvGreatWorkBuildingInMyEmpire *>, COMDAT

; 1200 : 	{

	push	ecx

; 1201 : 		typename _Move_operation_category<typename iterator_traits<_Iter>::value_type>::_Move_cat _Cat;
; 1202 : 		return (_Cat);

	mov	al, BYTE PTR __Cat$[esp+4]

; 1203 : 	}

	pop	ecx
	ret	0
??$_Move_cat@PAVCvGreatWorkBuildingInMyEmpire@@@std@@YA?AU_Undefined_move_tag@0@ABQAVCvGreatWorkBuildingInMyEmpire@@@Z ENDP ; std::_Move_cat<CvGreatWorkBuildingInMyEmpire *>
_TEXT	ENDS
PUBLIC	??$_Fill@PAPAVCvPlot@@PAV1@@std@@YAXPAPAVCvPlot@@0ABQAV1@@Z ; std::_Fill<CvPlot * *,CvPlot *>
; Function compile flags: /Ogtpy
;	COMDAT ??$_Fill@PAPAVCvPlot@@PAV1@@std@@YAXPAPAVCvPlot@@0ABQAV1@@Z
_TEXT	SEGMENT
__First$ = 8						; size = 4
__Last$ = 12						; size = 4
__Val$ = 16						; size = 4
??$_Fill@PAPAVCvPlot@@PAV1@@std@@YAXPAPAVCvPlot@@0ABQAV1@@Z PROC ; std::_Fill<CvPlot * *,CvPlot *>, COMDAT

; 3157 : 	_DEBUG_RANGE(_First, _Last);
; 3158 : 	for (; _First != _Last; ++_First)

	mov	eax, DWORD PTR __First$[esp-4]
	mov	ecx, DWORD PTR __Last$[esp-4]
	cmp	eax, ecx
	je	SHORT $LN1@Fill@2
	mov	edx, DWORD PTR __Val$[esp-4]
	push	esi
$LL3@Fill@2:

; 3159 : 		*_First = _Val;

	mov	esi, DWORD PTR [edx]
	mov	DWORD PTR [eax], esi
	add	eax, 4
	cmp	eax, ecx
	jne	SHORT $LL3@Fill@2
	pop	esi
$LN1@Fill@2:

; 3160 : 	}

	ret	0
??$_Fill@PAPAVCvPlot@@PAV1@@std@@YAXPAPAVCvPlot@@0ABQAV1@@Z ENDP ; std::_Fill<CvPlot * *,CvPlot *>
_TEXT	ENDS
PUBLIC	??$_Move_cat@PAPAVCvPlot@@@std@@YA?AU_Undefined_move_tag@0@ABQAPAVCvPlot@@@Z ; std::_Move_cat<CvPlot * *>
; Function compile flags: /Ogtpy
;	COMDAT ??$_Move_cat@PAPAVCvPlot@@@std@@YA?AU_Undefined_move_tag@0@ABQAPAVCvPlot@@@Z
_TEXT	SEGMENT
__Cat$ = -1						; size = 1
___formal$ = 8						; size = 4
??$_Move_cat@PAPAVCvPlot@@@std@@YA?AU_Undefined_move_tag@0@ABQAPAVCvPlot@@@Z PROC ; std::_Move_cat<CvPlot * *>, COMDAT

; 1200 : 	{

	push	ecx

; 1201 : 		typename _Move_operation_category<typename iterator_traits<_Iter>::value_type>::_Move_cat _Cat;
; 1202 : 		return (_Cat);

	mov	al, BYTE PTR __Cat$[esp+4]

; 1203 : 	}

	pop	ecx
	ret	0
??$_Move_cat@PAPAVCvPlot@@@std@@YA?AU_Undefined_move_tag@0@ABQAPAVCvPlot@@@Z ENDP ; std::_Move_cat<CvPlot * *>
_TEXT	ENDS
PUBLIC	??$_Fill@PAW4PlayerTypes@@W41@@std@@YAXPAW4PlayerTypes@@0ABW41@@Z ; std::_Fill<enum PlayerTypes *,enum PlayerTypes>
; Function compile flags: /Ogtpy
;	COMDAT ??$_Fill@PAW4PlayerTypes@@W41@@std@@YAXPAW4PlayerTypes@@0ABW41@@Z
_TEXT	SEGMENT
__First$ = 8						; size = 4
__Last$ = 12						; size = 4
__Val$ = 16						; size = 4
??$_Fill@PAW4PlayerTypes@@W41@@std@@YAXPAW4PlayerTypes@@0ABW41@@Z PROC ; std::_Fill<enum PlayerTypes *,enum PlayerTypes>, COMDAT

; 3157 : 	_DEBUG_RANGE(_First, _Last);
; 3158 : 	for (; _First != _Last; ++_First)

	mov	eax, DWORD PTR __First$[esp-4]
	mov	ecx, DWORD PTR __Last$[esp-4]
	cmp	eax, ecx
	je	SHORT $LN1@Fill@3
	mov	edx, DWORD PTR __Val$[esp-4]
	push	esi
$LL3@Fill@3:

; 3159 : 		*_First = _Val;

	mov	esi, DWORD PTR [edx]
	mov	DWORD PTR [eax], esi
	add	eax, 4
	cmp	eax, ecx
	jne	SHORT $LL3@Fill@3
	pop	esi
$LN1@Fill@3:

; 3160 : 	}

	ret	0
??$_Fill@PAW4PlayerTypes@@W41@@std@@YAXPAW4PlayerTypes@@0ABW41@@Z ENDP ; std::_Fill<enum PlayerTypes *,enum PlayerTypes>
_TEXT	ENDS
PUBLIC	??$_Move_cat@PAW4PlayerTypes@@@std@@YA?AU_Undefined_move_tag@0@ABQAW4PlayerTypes@@@Z ; std::_Move_cat<enum PlayerTypes *>
; Function compile flags: /Ogtpy
;	COMDAT ??$_Move_cat@PAW4PlayerTypes@@@std@@YA?AU_Undefined_move_tag@0@ABQAW4PlayerTypes@@@Z
_TEXT	SEGMENT
__Cat$ = -1						; size = 1
___formal$ = 8						; size = 4
??$_Move_cat@PAW4PlayerTypes@@@std@@YA?AU_Undefined_move_tag@0@ABQAW4PlayerTypes@@@Z PROC ; std::_Move_cat<enum PlayerTypes *>, COMDAT

; 1200 : 	{

	push	ecx

; 1201 : 		typename _Move_operation_category<typename iterator_traits<_Iter>::value_type>::_Move_cat _Cat;
; 1202 : 		return (_Cat);

	mov	al, BYTE PTR __Cat$[esp+4]

; 1203 : 	}

	pop	ecx
	ret	0
??$_Move_cat@PAW4PlayerTypes@@@std@@YA?AU_Undefined_move_tag@0@ABQAW4PlayerTypes@@@Z ENDP ; std::_Move_cat<enum PlayerTypes *>
_TEXT	ENDS
PUBLIC	??$_Fill@PAVCvGreatWorkInMyEmpire@@V1@@std@@YAXPAVCvGreatWorkInMyEmpire@@0ABV1@@Z ; std::_Fill<CvGreatWorkInMyEmpire *,CvGreatWorkInMyEmpire>
; Function compile flags: /Ogtpy
;	COMDAT ??$_Fill@PAVCvGreatWorkInMyEmpire@@V1@@std@@YAXPAVCvGreatWorkInMyEmpire@@0ABV1@@Z
_TEXT	SEGMENT
__First$ = 8						; size = 4
__Last$ = 12						; size = 4
__Val$ = 16						; size = 4
??$_Fill@PAVCvGreatWorkInMyEmpire@@V1@@std@@YAXPAVCvGreatWorkInMyEmpire@@0ABV1@@Z PROC ; std::_Fill<CvGreatWorkInMyEmpire *,CvGreatWorkInMyEmpire>, COMDAT

; 3157 : 	_DEBUG_RANGE(_First, _Last);
; 3158 : 	for (; _First != _Last; ++_First)

	mov	eax, DWORD PTR __First$[esp-4]
	mov	edx, DWORD PTR __Last$[esp-4]
	cmp	eax, edx
	je	SHORT $LN1@Fill@4
	mov	ecx, DWORD PTR __Val$[esp-4]
	push	esi
$LL3@Fill@4:

; 3159 : 		*_First = _Val;

	mov	esi, DWORD PTR [ecx]
	mov	DWORD PTR [eax], esi
	mov	esi, DWORD PTR [ecx+4]
	mov	DWORD PTR [eax+4], esi
	mov	esi, DWORD PTR [ecx+8]
	mov	DWORD PTR [eax+8], esi
	mov	esi, DWORD PTR [ecx+12]
	mov	DWORD PTR [eax+12], esi
	mov	esi, DWORD PTR [ecx+16]
	mov	DWORD PTR [eax+16], esi
	mov	esi, DWORD PTR [ecx+20]
	mov	DWORD PTR [eax+20], esi
	add	eax, 24					; 00000018H
	cmp	eax, edx
	jne	SHORT $LL3@Fill@4
	pop	esi
$LN1@Fill@4:

; 3160 : 	}

	ret	0
??$_Fill@PAVCvGreatWorkInMyEmpire@@V1@@std@@YAXPAVCvGreatWorkInMyEmpire@@0ABV1@@Z ENDP ; std::_Fill<CvGreatWorkInMyEmpire *,CvGreatWorkInMyEmpire>
_TEXT	ENDS
PUBLIC	??$_Move_cat@PAVCvGreatWorkInMyEmpire@@@std@@YA?AU_Undefined_move_tag@0@ABQAVCvGreatWorkInMyEmpire@@@Z ; std::_Move_cat<CvGreatWorkInMyEmpire *>
; Function compile flags: /Ogtpy
;	COMDAT ??$_Move_cat@PAVCvGreatWorkInMyEmpire@@@std@@YA?AU_Undefined_move_tag@0@ABQAVCvGreatWorkInMyEmpire@@@Z
_TEXT	SEGMENT
__Cat$ = -1						; size = 1
___formal$ = 8						; size = 4
??$_Move_cat@PAVCvGreatWorkInMyEmpire@@@std@@YA?AU_Undefined_move_tag@0@ABQAVCvGreatWorkInMyEmpire@@@Z PROC ; std::_Move_cat<CvGreatWorkInMyEmpire *>, COMDAT

; 1200 : 	{

	push	ecx

; 1201 : 		typename _Move_operation_category<typename iterator_traits<_Iter>::value_type>::_Move_cat _Cat;
; 1202 : 		return (_Cat);

	mov	al, BYTE PTR __Cat$[esp+4]

; 1203 : 	}

	pop	ecx
	ret	0
??$_Move_cat@PAVCvGreatWorkInMyEmpire@@@std@@YA?AU_Undefined_move_tag@0@ABQAVCvGreatWorkInMyEmpire@@@Z ENDP ; std::_Move_cat<CvGreatWorkInMyEmpire *>
_TEXT	ENDS
PUBLIC	??$_Fill@PAW4EraTypes@@W41@@std@@YAXPAW4EraTypes@@0ABW41@@Z ; std::_Fill<enum EraTypes *,enum EraTypes>
; Function compile flags: /Ogtpy
;	COMDAT ??$_Fill@PAW4EraTypes@@W41@@std@@YAXPAW4EraTypes@@0ABW41@@Z
_TEXT	SEGMENT
__First$ = 8						; size = 4
__Last$ = 12						; size = 4
__Val$ = 16						; size = 4
??$_Fill@PAW4EraTypes@@W41@@std@@YAXPAW4EraTypes@@0ABW41@@Z PROC ; std::_Fill<enum EraTypes *,enum EraTypes>, COMDAT

; 3157 : 	_DEBUG_RANGE(_First, _Last);
; 3158 : 	for (; _First != _Last; ++_First)

	mov	eax, DWORD PTR __First$[esp-4]
	mov	ecx, DWORD PTR __Last$[esp-4]
	cmp	eax, ecx
	je	SHORT $LN1@Fill@5
	mov	edx, DWORD PTR __Val$[esp-4]
	push	esi
$LL3@Fill@5:

; 3159 : 		*_First = _Val;

	mov	esi, DWORD PTR [edx]
	mov	DWORD PTR [eax], esi
	add	eax, 4
	cmp	eax, ecx
	jne	SHORT $LL3@Fill@5
	pop	esi
$LN1@Fill@5:

; 3160 : 	}

	ret	0
??$_Fill@PAW4EraTypes@@W41@@std@@YAXPAW4EraTypes@@0ABW41@@Z ENDP ; std::_Fill<enum EraTypes *,enum EraTypes>
_TEXT	ENDS
PUBLIC	??$_Move_cat@PAW4EraTypes@@@std@@YA?AU_Undefined_move_tag@0@ABQAW4EraTypes@@@Z ; std::_Move_cat<enum EraTypes *>
; Function compile flags: /Ogtpy
;	COMDAT ??$_Move_cat@PAW4EraTypes@@@std@@YA?AU_Undefined_move_tag@0@ABQAW4EraTypes@@@Z
_TEXT	SEGMENT
__Cat$ = -1						; size = 1
___formal$ = 8						; size = 4
??$_Move_cat@PAW4EraTypes@@@std@@YA?AU_Undefined_move_tag@0@ABQAW4EraTypes@@@Z PROC ; std::_Move_cat<enum EraTypes *>, COMDAT

; 1200 : 	{

	push	ecx

; 1201 : 		typename _Move_operation_category<typename iterator_traits<_Iter>::value_type>::_Move_cat _Cat;
; 1202 : 		return (_Cat);

	mov	al, BYTE PTR __Cat$[esp+4]

; 1203 : 	}

	pop	ecx
	ret	0
??$_Move_cat@PAW4EraTypes@@@std@@YA?AU_Undefined_move_tag@0@ABQAW4EraTypes@@@Z ENDP ; std::_Move_cat<enum EraTypes *>
_TEXT	ENDS
PUBLIC	??D?$_Vector_const_iterator@W4EraTypes@@V?$allocator@W4EraTypes@@@std@@@std@@QBEABW4EraTypes@@XZ ; std::_Vector_const_iterator<enum EraTypes,std::allocator<enum EraTypes> >::operator*
; Function compile flags: /Ogtpy
; File c:\program files (x86)\microsoft visual studio 9.0\vc\include\vector
;	COMDAT ??D?$_Vector_const_iterator@W4EraTypes@@V?$allocator@W4EraTypes@@@std@@@std@@QBEABW4EraTypes@@XZ
_TEXT	SEGMENT
??D?$_Vector_const_iterator@W4EraTypes@@V?$allocator@W4EraTypes@@@std@@@std@@QBEABW4EraTypes@@XZ PROC ; std::_Vector_const_iterator<enum EraTypes,std::allocator<enum EraTypes> >::operator*, COMDAT
; _this$ = ecx

; 92   : 
; 93   :  #if _HAS_ITERATOR_DEBUGGING
; 94   : 		if (this->_Mycont == 0
; 95   : 			|| _Myptr < ((_Myvec *)this->_Mycont)->_Myfirst
; 96   : 			|| ((_Myvec *)this->_Mycont)->_Mylast <= _Myptr)
; 97   : 			{
; 98   : 			_DEBUG_ERROR("vector iterator not dereferencable");
; 99   : 			_SCL_SECURE_OUT_OF_RANGE;
; 100  : 			}
; 101  :  #else
; 102  :  		_SCL_SECURE_VALIDATE(this->_Has_container());
; 103  : 		_SCL_SECURE_VALIDATE_RANGE(_Myptr < ((_Myvec *)(this->_Getmycont()))->_Mylast);
; 104  :  #endif /* _HAS_ITERATOR_DEBUGGING */
; 105  : 
; 106  : 		return (*_Myptr);

	mov	eax, DWORD PTR [ecx]

; 107  : 		}

	ret	0
??D?$_Vector_const_iterator@W4EraTypes@@V?$allocator@W4EraTypes@@@std@@@std@@QBEABW4EraTypes@@XZ ENDP ; std::_Vector_const_iterator<enum EraTypes,std::allocator<enum EraTypes> >::operator*
_TEXT	ENDS
PUBLIC	??E?$_Vector_const_iterator@W4EraTypes@@V?$allocator@W4EraTypes@@@std@@@std@@QAEAAV01@XZ ; std::_Vector_const_iterator<enum EraTypes,std::allocator<enum EraTypes> >::operator++
; Function compile flags: /Ogtpy
;	COMDAT ??E?$_Vector_const_iterator@W4EraTypes@@V?$allocator@W4EraTypes@@@std@@@std@@QAEAAV01@XZ
_TEXT	SEGMENT
??E?$_Vector_const_iterator@W4EraTypes@@V?$allocator@W4EraTypes@@@std@@@std@@QAEAAV01@XZ PROC ; std::_Vector_const_iterator<enum EraTypes,std::allocator<enum EraTypes> >::operator++, COMDAT
; _this$ = ecx

; 115  : 		{	// preincrement

	mov	eax, ecx

; 116  : 		_SCL_SECURE_VALIDATE(this->_Has_container());
; 117  : 		_SCL_SECURE_VALIDATE_RANGE(_Myptr < ((_Myvec *)(this->_Getmycont()))->_Mylast);
; 118  : 
; 119  :  #if _HAS_ITERATOR_DEBUGGING
; 120  : 		if (this->_Mycont == 0
; 121  : 			|| ((_Myvec *)this->_Mycont)->_Mylast <= _Myptr)
; 122  : 			_DEBUG_ERROR("vector iterator not incrementable");
; 123  :  #endif /* _HAS_ITERATOR_DEBUGGING */
; 124  : 
; 125  : 		++_Myptr;

	add	DWORD PTR [eax], 4

; 126  : 		return (*this);
; 127  : 		}

	ret	0
??E?$_Vector_const_iterator@W4EraTypes@@V?$allocator@W4EraTypes@@@std@@@std@@QAEAAV01@XZ ENDP ; std::_Vector_const_iterator<enum EraTypes,std::allocator<enum EraTypes> >::operator++
_TEXT	ENDS
PUBLIC	??D?$_Vector_const_iterator@W4PlayerTypes@@V?$allocator@W4PlayerTypes@@@std@@@std@@QBEABW4PlayerTypes@@XZ ; std::_Vector_const_iterator<enum PlayerTypes,std::allocator<enum PlayerTypes> >::operator*
; Function compile flags: /Ogtpy
;	COMDAT ??D?$_Vector_const_iterator@W4PlayerTypes@@V?$allocator@W4PlayerTypes@@@std@@@std@@QBEABW4PlayerTypes@@XZ
_TEXT	SEGMENT
??D?$_Vector_const_iterator@W4PlayerTypes@@V?$allocator@W4PlayerTypes@@@std@@@std@@QBEABW4PlayerTypes@@XZ PROC ; std::_Vector_const_iterator<enum PlayerTypes,std::allocator<enum PlayerTypes> >::operator*, COMDAT
; _this$ = ecx

; 92   : 
; 93   :  #if _HAS_ITERATOR_DEBUGGING
; 94   : 		if (this->_Mycont == 0
; 95   : 			|| _Myptr < ((_Myvec *)this->_Mycont)->_Myfirst
; 96   : 			|| ((_Myvec *)this->_Mycont)->_Mylast <= _Myptr)
; 97   : 			{
; 98   : 			_DEBUG_ERROR("vector iterator not dereferencable");
; 99   : 			_SCL_SECURE_OUT_OF_RANGE;
; 100  : 			}
; 101  :  #else
; 102  :  		_SCL_SECURE_VALIDATE(this->_Has_container());
; 103  : 		_SCL_SECURE_VALIDATE_RANGE(_Myptr < ((_Myvec *)(this->_Getmycont()))->_Mylast);
; 104  :  #endif /* _HAS_ITERATOR_DEBUGGING */
; 105  : 
; 106  : 		return (*_Myptr);

	mov	eax, DWORD PTR [ecx]

; 107  : 		}

	ret	0
??D?$_Vector_const_iterator@W4PlayerTypes@@V?$allocator@W4PlayerTypes@@@std@@@std@@QBEABW4PlayerTypes@@XZ ENDP ; std::_Vector_const_iterator<enum PlayerTypes,std::allocator<enum PlayerTypes> >::operator*
_TEXT	ENDS
PUBLIC	??E?$_Vector_const_iterator@W4PlayerTypes@@V?$allocator@W4PlayerTypes@@@std@@@std@@QAEAAV01@XZ ; std::_Vector_const_iterator<enum PlayerTypes,std::allocator<enum PlayerTypes> >::operator++
; Function compile flags: /Ogtpy
;	COMDAT ??E?$_Vector_const_iterator@W4PlayerTypes@@V?$allocator@W4PlayerTypes@@@std@@@std@@QAEAAV01@XZ
_TEXT	SEGMENT
??E?$_Vector_const_iterator@W4PlayerTypes@@V?$allocator@W4PlayerTypes@@@std@@@std@@QAEAAV01@XZ PROC ; std::_Vector_const_iterator<enum PlayerTypes,std::allocator<enum PlayerTypes> >::operator++, COMDAT
; _this$ = ecx

; 115  : 		{	// preincrement

	mov	eax, ecx

; 116  : 		_SCL_SECURE_VALIDATE(this->_Has_container());
; 117  : 		_SCL_SECURE_VALIDATE_RANGE(_Myptr < ((_Myvec *)(this->_Getmycont()))->_Mylast);
; 118  : 
; 119  :  #if _HAS_ITERATOR_DEBUGGING
; 120  : 		if (this->_Mycont == 0
; 121  : 			|| ((_Myvec *)this->_Mycont)->_Mylast <= _Myptr)
; 122  : 			_DEBUG_ERROR("vector iterator not incrementable");
; 123  :  #endif /* _HAS_ITERATOR_DEBUGGING */
; 124  : 
; 125  : 		++_Myptr;

	add	DWORD PTR [eax], 4

; 126  : 		return (*this);
; 127  : 		}

	ret	0
??E?$_Vector_const_iterator@W4PlayerTypes@@V?$allocator@W4PlayerTypes@@@std@@@std@@QAEAAV01@XZ ENDP ; std::_Vector_const_iterator<enum PlayerTypes,std::allocator<enum PlayerTypes> >::operator++
_TEXT	ENDS
PUBLIC	?GetDescription@CvBaseInfo@@QBEPBDXZ		; CvBaseInfo::GetDescription
; Function compile flags: /Ogtpy
; File c:\users\enormousapplepie\documents\github\lekmod\lekmod_dll\cvgamecoredll_expansion2\cvinfos.h
;	COMDAT ?GetDescription@CvBaseInfo@@QBEPBDXZ
_TEXT	SEGMENT
?GetDescription@CvBaseInfo@@QBEPBDXZ PROC		; CvBaseInfo::GetDescription, COMDAT
; _this$ = ecx

; 64   : 		return m_strDescription.c_str();

	add	ecx, 36					; 00000024H
	jmp	DWORD PTR __imp_?c_str@?$basic_string@DU?$char_traits@D@std@@V?$allocator@D@2@@std@@QBEPBDXZ
?GetDescription@CvBaseInfo@@QBEPBDXZ ENDP		; CvBaseInfo::GetDescription
_TEXT	ENDS
PUBLIC	?GetType@CvBaseInfo@@QBEPBDXZ			; CvBaseInfo::GetType
; Function compile flags: /Ogtpy
;	COMDAT ?GetType@CvBaseInfo@@QBEPBDXZ
_TEXT	SEGMENT
?GetType@CvBaseInfo@@QBEPBDXZ PROC			; CvBaseInfo::GetType, COMDAT
; _this$ = ecx

; 92   : 		return m_strType.c_str();

	add	ecx, 176				; 000000b0H
	jmp	DWORD PTR __imp_?c_str@?$basic_string@DU?$char_traits@D@std@@V?$allocator@D@2@@std@@QBEPBDXZ
?GetType@CvBaseInfo@@QBEPBDXZ ENDP			; CvBaseInfo::GetType
_TEXT	ENDS
PUBLIC	??$_Copy_backward_opt@PAVCvGreatWorkBuildingInMyEmpire@@PAV1@Urandom_access_iterator_tag@std@@@std@@YAPAVCvGreatWorkBuildingInMyEmpire@@PAV1@00Urandom_access_iterator_tag@0@U_Nonscalar_ptr_iterator_tag@0@U_Range_checked_iterator_tag@0@@Z ; std::_Copy_backward_opt<CvGreatWorkBuildingInMyEmpire *,CvGreatWorkBuildingInMyEmpire *,std::random_access_iterator_tag>
; Function compile flags: /Ogtpy
; File c:\program files (x86)\microsoft visual studio 9.0\vc\include\xutility
;	COMDAT ??$_Copy_backward_opt@PAVCvGreatWorkBuildingInMyEmpire@@PAV1@Urandom_access_iterator_tag@std@@@std@@YAPAVCvGreatWorkBuildingInMyEmpire@@PAV1@00Urandom_access_iterator_tag@0@U_Nonscalar_ptr_iterator_tag@0@U_Range_checked_iterator_tag@0@@Z
_TEXT	SEGMENT
__First$ = 8						; size = 4
__Last$ = 12						; size = 4
__Dest$ = 16						; size = 4
___formal$ = 20						; size = 1
___formal$ = 24						; size = 1
___formal$ = 28						; size = 1
??$_Copy_backward_opt@PAVCvGreatWorkBuildingInMyEmpire@@PAV1@Urandom_access_iterator_tag@std@@@std@@YAPAVCvGreatWorkBuildingInMyEmpire@@PAV1@00Urandom_access_iterator_tag@0@U_Nonscalar_ptr_iterator_tag@0@U_Range_checked_iterator_tag@0@@Z PROC ; std::_Copy_backward_opt<CvGreatWorkBuildingInMyEmpire *,CvGreatWorkBuildingInMyEmpire *,std::random_access_iterator_tag>, COMDAT

; 2674 : 	_DEBUG_RANGE(_First, _Last);
; 2675 : 	while (_First != _Last)

	mov	edx, DWORD PTR __First$[esp-4]
	mov	ecx, DWORD PTR __Last$[esp-4]
	mov	eax, DWORD PTR __Dest$[esp-4]
	cmp	edx, ecx
	je	SHORT $LN1@Copy_backw
	push	esi
$LL2@Copy_backw:

; 2676 : 		*--_Dest = *--_Last;

	mov	esi, DWORD PTR [ecx-12]
	sub	ecx, 12					; 0000000cH
	sub	eax, 12					; 0000000cH
	mov	DWORD PTR [eax], esi
	mov	esi, DWORD PTR [ecx+4]
	mov	DWORD PTR [eax+4], esi
	mov	esi, DWORD PTR [ecx+8]
	mov	DWORD PTR [eax+8], esi
	cmp	ecx, edx
	jne	SHORT $LL2@Copy_backw
	pop	esi
$LN1@Copy_backw:

; 2677 : 	return (_Dest);
; 2678 : 	}

	ret	0
??$_Copy_backward_opt@PAVCvGreatWorkBuildingInMyEmpire@@PAV1@Urandom_access_iterator_tag@std@@@std@@YAPAVCvGreatWorkBuildingInMyEmpire@@PAV1@00Urandom_access_iterator_tag@0@U_Nonscalar_ptr_iterator_tag@0@U_Range_checked_iterator_tag@0@@Z ENDP ; std::_Copy_backward_opt<CvGreatWorkBuildingInMyEmpire *,CvGreatWorkBuildingInMyEmpire *,std::random_access_iterator_tag>
_TEXT	ENDS
PUBLIC	??$_Copy_backward_opt@PAPAVCvPlot@@PAPAV1@Urandom_access_iterator_tag@std@@@std@@YAPAPAVCvPlot@@PAPAV1@00Urandom_access_iterator_tag@0@U_Scalar_ptr_iterator_tag@0@U_Range_checked_iterator_tag@0@@Z ; std::_Copy_backward_opt<CvPlot * *,CvPlot * *,std::random_access_iterator_tag>
; Function compile flags: /Ogtpy
;	COMDAT ??$_Copy_backward_opt@PAPAVCvPlot@@PAPAV1@Urandom_access_iterator_tag@std@@@std@@YAPAPAVCvPlot@@PAPAV1@00Urandom_access_iterator_tag@0@U_Scalar_ptr_iterator_tag@0@U_Range_checked_iterator_tag@0@@Z
_TEXT	SEGMENT
__First$ = 8						; size = 4
__Last$ = 12						; size = 4
__Dest$ = 16						; size = 4
___formal$ = 20						; size = 1
___formal$ = 24						; size = 1
___formal$ = 28						; size = 1
