; Listing generated by Microsoft (R) Optimizing Compiler Version 15.00.30729.01 

	TITLE	c:\Users\EnormousApplePie\Desktop\Lekmod Files\Lekmod DLL versions\v29\LEKMOD_DLL\CvGameCoreDLL_Expansion2\CvDealAI.cpp
	.686P
	.XMM
	include listing.inc
	.model	flat

INCLUDELIB MSVCRT
INCLUDELIB OLDNAMES

PUBLIC	?NO_QUEST_DATA@CvMinorCivQuest@@2HB		; CvMinorCivQuest::NO_QUEST_DATA
PUBLIC	?NO_TURN@CvMinorCivQuest@@2HB			; CvMinorCivQuest::NO_TURN
CONST	SEGMENT
$SG221843 DB	00H
	ORG $+7
$SG222006 DB	'Deal AI: ASYNC RAND call to determine if AI will give in'
	DB	'to a human demand.', 00H
	ORG $+1
$SG222190 DB	'GAMEOPTION_AI_GIMP_ALWAYS_WHITE_PEACE', 00H
	ORG $+2
$SG222596 DB	'AIGRANDSTRATEGY_CULTURE', 00H
$SG222613 DB	'AIGRANDSTRATEGY_CULTURE', 00H
CONST	ENDS
;	COMDAT ?NO_TURN@CvMinorCivQuest@@2HB
CONST	SEGMENT
?NO_TURN@CvMinorCivQuest@@2HB DD 0ffffffffH		; CvMinorCivQuest::NO_TURN
CONST	ENDS
;	COMDAT ?NO_QUEST_DATA@CvMinorCivQuest@@2HB
CONST	SEGMENT
?NO_QUEST_DATA@CvMinorCivQuest@@2HB DD 0ffffffffH	; CvMinorCivQuest::NO_QUEST_DATA
CONST	ENDS
PUBLIC	?wrapCoordDifference@@YAHHI_N@Z			; wrapCoordDifference
; Function compile flags: /Ogtpy
; File c:\users\enormousapplepie\desktop\lekmod files\lekmod dll versions\v29\lekmod_dll\cvgamecoredll_expansion2\cvgamecoreutils.h
;	COMDAT ?wrapCoordDifference@@YAHHI_N@Z
_TEXT	SEGMENT
_iDiff$ = 8						; size = 4
_uiRange$ = 12						; size = 4
_bWrap$ = 16						; size = 1
?wrapCoordDifference@@YAHHI_N@Z PROC			; wrapCoordDifference, COMDAT

; 57   : 	if(bWrap)

	cmp	BYTE PTR _bWrap$[esp-4], 0
	mov	eax, DWORD PTR _iDiff$[esp-4]
	je	SHORT $LN5@wrapCoordD

; 58   : 	{
; 59   : 		if(iDiff > (int)(uiRange >> 1))		// Using an unsigned int so we can safely assume that value >> 1 == value / 2

	mov	edx, DWORD PTR _uiRange$[esp-4]
	mov	ecx, edx
	shr	ecx, 1
	cmp	eax, ecx
	jle	SHORT $LN3@wrapCoordD

; 60   : 		{
; 61   : 			return (iDiff - (int)uiRange);

	sub	eax, edx

; 66   : 		}
; 67   : 	}
; 68   : 
; 69   : 	return iDiff;
; 70   : }

	ret	0
$LN3@wrapCoordD:

; 62   : 		}
; 63   : 		else if(iDiff < -(int)(uiRange >> 1))

	neg	ecx
	cmp	eax, ecx
	jge	SHORT $LN5@wrapCoordD

; 64   : 		{
; 65   : 			return (iDiff + (int)uiRange);

	add	eax, edx
$LN5@wrapCoordD:

; 66   : 		}
; 67   : 	}
; 68   : 
; 69   : 	return iDiff;
; 70   : }

	ret	0
?wrapCoordDifference@@YAHHI_N@Z ENDP			; wrapCoordDifference
_TEXT	ENDS
PUBLIC	?xToHexspaceX@@YAHHH@Z				; xToHexspaceX
; Function compile flags: /Ogtpy
;	COMDAT ?xToHexspaceX@@YAHHH@Z
_TEXT	SEGMENT
_iX$ = 8						; size = 4
_iY$ = 12						; size = 4
?xToHexspaceX@@YAHHH@Z PROC				; xToHexspaceX, COMDAT

; 86   : 	return iX - ((iY >= 0) ? (iY>>1) : ((iY - 1)/2));

	mov	ecx, DWORD PTR _iY$[esp-4]
	test	ecx, ecx
	jge	SHORT $LN5@xToHexspac
	lea	eax, DWORD PTR [ecx-1]
	cdq
	sub	eax, edx
	mov	ecx, eax
$LN5@xToHexspac:
	mov	eax, DWORD PTR _iX$[esp-4]
	sar	ecx, 1
	sub	eax, ecx

; 87   : }

	ret	0
?xToHexspaceX@@YAHHH@Z ENDP				; xToHexspaceX
_TEXT	ENDS
PUBLIC	??0CvDealAI@@QAE@XZ				; CvDealAI::CvDealAI
; Function compile flags: /Ogtpy
; File c:\users\enormousapplepie\desktop\lekmod files\lekmod dll versions\v29\lekmod_dll\cvgamecoredll_expansion2\cvdealai.cpp
;	COMDAT ??0CvDealAI@@QAE@XZ
_TEXT	SEGMENT
??0CvDealAI@@QAE@XZ PROC				; CvDealAI::CvDealAI, COMDAT
; _this$ = ecx

; 26   : {

	mov	eax, ecx

; 27   : #ifdef AUI_WARNING_FIXES
; 28   : 	Init(NULL);
; 29   : #endif
; 30   : }

	ret	0
??0CvDealAI@@QAE@XZ ENDP				; CvDealAI::CvDealAI
_TEXT	ENDS
PUBLIC	?Uninit@CvDealAI@@QAEXXZ			; CvDealAI::Uninit
; Function compile flags: /Ogtpy
;	COMDAT ?Uninit@CvDealAI@@QAEXXZ
_TEXT	SEGMENT
?Uninit@CvDealAI@@QAEXXZ PROC				; CvDealAI::Uninit, COMDAT
; _this$ = ecx

; 49   : }

	ret	0
?Uninit@CvDealAI@@QAEXXZ ENDP				; CvDealAI::Uninit
_TEXT	ENDS
PUBLIC	?Reset@CvDealAI@@QAEXXZ				; CvDealAI::Reset
; Function compile flags: /Ogtpy
;	COMDAT ?Reset@CvDealAI@@QAEXXZ
_TEXT	SEGMENT
?Reset@CvDealAI@@QAEXXZ PROC				; CvDealAI::Reset, COMDAT
; _this$ = ecx

; 54   : 	m_iCachedValueOfPeaceWithHuman = 0;

	mov	DWORD PTR [ecx+4], 0

; 55   : }

	ret	0
?Reset@CvDealAI@@QAEXXZ ENDP				; CvDealAI::Reset
_TEXT	ENDS
PUBLIC	?GetPlayer@CvDealAI@@QAEPAVCvPlayer@@XZ		; CvDealAI::GetPlayer
; Function compile flags: /Ogtpy
;	COMDAT ?GetPlayer@CvDealAI@@QAEPAVCvPlayer@@XZ
_TEXT	SEGMENT
?GetPlayer@CvDealAI@@QAEPAVCvPlayer@@XZ PROC		; CvDealAI::GetPlayer, COMDAT
; _this$ = ecx

; 76   : 	return m_pPlayer;

	mov	eax, DWORD PTR [ecx]

; 77   : }

	ret	0
?GetPlayer@CvDealAI@@QAEPAVCvPlayer@@XZ ENDP		; CvDealAI::GetPlayer
_TEXT	ENDS
PUBLIC	?GetDealPercentLeewayWithAI@CvDealAI@@QBEHXZ	; CvDealAI::GetDealPercentLeewayWithAI
; Function compile flags: /Ogtpy
;	COMDAT ?GetDealPercentLeewayWithAI@CvDealAI@@QBEHXZ
_TEXT	SEGMENT
?GetDealPercentLeewayWithAI@CvDealAI@@QBEHXZ PROC	; CvDealAI::GetDealPercentLeewayWithAI, COMDAT
; _this$ = ecx

; 88   : 	return 25;

	mov	eax, 25					; 00000019H

; 89   : }

	ret	0
?GetDealPercentLeewayWithAI@CvDealAI@@QBEHXZ ENDP	; CvDealAI::GetDealPercentLeewayWithAI
_TEXT	ENDS
PUBLIC	?GetDealPercentLeewayWithHuman@CvDealAI@@QBEHXZ	; CvDealAI::GetDealPercentLeewayWithHuman
; Function compile flags: /Ogtpy
;	COMDAT ?GetDealPercentLeewayWithHuman@CvDealAI@@QBEHXZ
_TEXT	SEGMENT
?GetDealPercentLeewayWithHuman@CvDealAI@@QBEHXZ PROC	; CvDealAI::GetDealPercentLeewayWithHuman, COMDAT
; _this$ = ecx

; 94   : 	return 10;

	mov	eax, 10					; 0000000aH

; 95   : }

	ret	0
?GetDealPercentLeewayWithHuman@CvDealAI@@QBEHXZ ENDP	; CvDealAI::GetDealPercentLeewayWithHuman
_TEXT	ENDS
PUBLIC	??2@YAPAXIPAX@Z					; operator new
; Function compile flags: /Ogtpy
; File c:\program files (x86)\microsoft visual studio 9.0\vc\include\new
;	COMDAT ??2@YAPAXIPAX@Z
_TEXT	SEGMENT
___formal$ = 8						; size = 4
__Where$ = 12						; size = 4
??2@YAPAXIPAX@Z PROC					; operator new, COMDAT

; 59   : 	return (_Where);

	mov	eax, DWORD PTR __Where$[esp-4]

; 60   : 	}

	ret	0
??2@YAPAXIPAX@Z ENDP					; operator new
_TEXT	ENDS
PUBLIC	??3@YAXPAX0@Z					; operator delete
; Function compile flags: /Ogtpy
;	COMDAT ??3@YAXPAX0@Z
_TEXT	SEGMENT
___formal$ = 8						; size = 4
___formal$ = 12						; size = 4
??3@YAXPAX0@Z PROC					; operator delete, COMDAT

; 64   : 	}

	ret	0
??3@YAXPAX0@Z ENDP					; operator delete
_TEXT	ENDS
PUBLIC	?GetPeaceTreatyValue@CvDealAI@@QAEHW4PlayerTypes@@@Z ; CvDealAI::GetPeaceTreatyValue
; Function compile flags: /Ogtpy
; File c:\users\enormousapplepie\desktop\lekmod files\lekmod dll versions\v29\lekmod_dll\cvgamecoredll_expansion2\cvdealai.cpp
;	COMDAT ?GetPeaceTreatyValue@CvDealAI@@QAEHW4PlayerTypes@@@Z
_TEXT	SEGMENT
___formal$ = 8						; size = 4
?GetPeaceTreatyValue@CvDealAI@@QAEHW4PlayerTypes@@@Z PROC ; CvDealAI::GetPeaceTreatyValue, COMDAT
; _this$ = ecx

; 1943 : #endif
; 1944 : 	return 0;

	xor	eax, eax

; 1945 : 
; 1946 : 	// DEPRECATED
; 1947 : 
; 1948 : 	//int iItemValue = 500;
; 1949 : 
; 1950 : 	//// What I think me giving up peace is worth to them (if we're winning "our peace" is more valuable)
; 1951 : 	//if (bFromMe)
; 1952 : 	//{
; 1953 : 	//	if (GetPlayer()->GetDiplomacyAI()->IsWantsPeaceWithPlayer(eOtherPlayer))
; 1954 : 	//	{
; 1955 : 	//		iItemValue = 200;
; 1956 : 	//	}
; 1957 : 	//}
; 1958 : 	//// What I think them agreeing to peace with me is worth (if they're winning "their peace" is more valuable)
; 1959 : 	//else
; 1960 : 	//{
; 1961 : 	//	if (GET_PLAYER(eOtherPlayer).GetDiplomacyAI()->IsWantsPeaceWithPlayer(GetPlayer()->GetID()))
; 1962 : 	//	{
; 1963 : 	//		iItemValue = 200;
; 1964 : 	//	}
; 1965 : 	//}
; 1966 : 
; 1967 : 	//// Are we trying to find the middle point between what we think this item is worth and what another player thinks it's worth?
; 1968 : 	//if (bUseEvenValue)
; 1969 : 	//{
; 1970 : 	//	iItemValue += GET_PLAYER(eOtherPlayer).GetDealAI()->GetPeaceTreatyValue(!bFromMe, GetPlayer()->GetID(), /*bUseEvenValue*/ false);
; 1971 : 
; 1972 : 	//	iItemValue /= 2;
; 1973 : 	//}
; 1974 : 
; 1975 : 	//return iItemValue;
; 1976 : }

	ret	4
?GetPeaceTreatyValue@CvDealAI@@QAEHW4PlayerTypes@@@Z ENDP ; CvDealAI::GetPeaceTreatyValue
_TEXT	ENDS
PUBLIC	?GetCachedValueOfPeaceWithHuman@CvDealAI@@QAEHXZ ; CvDealAI::GetCachedValueOfPeaceWithHuman
; Function compile flags: /Ogtpy
;	COMDAT ?GetCachedValueOfPeaceWithHuman@CvDealAI@@QAEHXZ
_TEXT	SEGMENT
?GetCachedValueOfPeaceWithHuman@CvDealAI@@QAEHXZ PROC	; CvDealAI::GetCachedValueOfPeaceWithHuman, COMDAT
; _this$ = ecx

; 3616 : 	return m_iCachedValueOfPeaceWithHuman;		// NOT SERIALIZED

	mov	eax, DWORD PTR [ecx+4]

; 3617 : }

	ret	0
?GetCachedValueOfPeaceWithHuman@CvDealAI@@QAEHXZ ENDP	; CvDealAI::GetCachedValueOfPeaceWithHuman
_TEXT	ENDS
PUBLIC	?SetCachedValueOfPeaceWithHuman@CvDealAI@@QAEXH@Z ; CvDealAI::SetCachedValueOfPeaceWithHuman
; Function compile flags: /Ogtpy
;	COMDAT ?SetCachedValueOfPeaceWithHuman@CvDealAI@@QAEXH@Z
_TEXT	SEGMENT
_iValue$ = 8						; size = 4
?SetCachedValueOfPeaceWithHuman@CvDealAI@@QAEXH@Z PROC	; CvDealAI::SetCachedValueOfPeaceWithHuman, COMDAT
; _this$ = ecx

; 3622 : 	m_iCachedValueOfPeaceWithHuman = iValue;		// NOT SERIALIZED

	mov	eax, DWORD PTR _iValue$[esp-4]
	mov	DWORD PTR [ecx+4], eax

; 3623 : }

	ret	4
?SetCachedValueOfPeaceWithHuman@CvDealAI@@QAEXH@Z ENDP	; CvDealAI::SetCachedValueOfPeaceWithHuman
_TEXT	ENDS
PUBLIC	?begin@?$BaseVector@UVoteCommitment@CvLeagueAI@@$0A@@@QAEPAUVoteCommitment@CvLeagueAI@@XZ ; BaseVector<CvLeagueAI::VoteCommitment,0>::begin
; Function compile flags: /Ogtpy
; File c:\users\enormousapplepie\desktop\lekmod files\lekmod dll versions\v29\lekmod_dll\fireplace\include\fireworks\ffastvector.h
;	COMDAT ?begin@?$BaseVector@UVoteCommitment@CvLeagueAI@@$0A@@@QAEPAUVoteCommitment@CvLeagueAI@@XZ
_TEXT	SEGMENT
?begin@?$BaseVector@UVoteCommitment@CvLeagueAI@@$0A@@@QAEPAUVoteCommitment@CvLeagueAI@@XZ PROC ; BaseVector<CvLeagueAI::VoteCommitment,0>::begin, COMDAT
; _this$ = ecx

; 194  :         return m_pData; 

	mov	eax, DWORD PTR [ecx]

; 195  :     };

	ret	0
?begin@?$BaseVector@UVoteCommitment@CvLeagueAI@@$0A@@@QAEPAUVoteCommitment@CvLeagueAI@@XZ ENDP ; BaseVector<CvLeagueAI::VoteCommitment,0>::begin
_TEXT	ENDS
PUBLIC	?end@?$BaseVector@UVoteCommitment@CvLeagueAI@@$0A@@@QAEPAUVoteCommitment@CvLeagueAI@@XZ ; BaseVector<CvLeagueAI::VoteCommitment,0>::end
; Function compile flags: /Ogtpy
;	COMDAT ?end@?$BaseVector@UVoteCommitment@CvLeagueAI@@$0A@@@QAEPAUVoteCommitment@CvLeagueAI@@XZ
_TEXT	SEGMENT
?end@?$BaseVector@UVoteCommitment@CvLeagueAI@@$0A@@@QAEPAUVoteCommitment@CvLeagueAI@@XZ PROC ; BaseVector<CvLeagueAI::VoteCommitment,0>::end, COMDAT
; _this$ = ecx

; 197  :         return m_pData+m_uiCurrSize; 

	mov	eax, DWORD PTR [ecx+4]
	mov	ecx, DWORD PTR [ecx]
	lea	eax, DWORD PTR [eax+eax*4]
	lea	eax, DWORD PTR [ecx+eax*4]

; 198  :     };

	ret	0
?end@?$BaseVector@UVoteCommitment@CvLeagueAI@@$0A@@@QAEPAUVoteCommitment@CvLeagueAI@@XZ ENDP ; BaseVector<CvLeagueAI::VoteCommitment,0>::end
_TEXT	ENDS
PUBLIC	??0?$auto_ptr@VICvDeal1@@@std@@QAE@PAVICvDeal1@@@Z ; std::auto_ptr<ICvDeal1>::auto_ptr<ICvDeal1>
; Function compile flags: /Ogtpy
; File c:\program files (x86)\microsoft visual studio 9.0\vc\include\memory
;	COMDAT ??0?$auto_ptr@VICvDeal1@@@std@@QAE@PAVICvDeal1@@@Z
_TEXT	SEGMENT
__Ptr$ = 8						; size = 4
??0?$auto_ptr@VICvDeal1@@@std@@QAE@PAVICvDeal1@@@Z PROC	; std::auto_ptr<ICvDeal1>::auto_ptr<ICvDeal1>, COMDAT
; _this$ = ecx

; 661  : 		{	// construct from object pointer

	mov	eax, ecx
	mov	ecx, DWORD PTR __Ptr$[esp-4]
	mov	DWORD PTR [eax], ecx

; 662  : 		}

	ret	4
??0?$auto_ptr@VICvDeal1@@@std@@QAE@PAVICvDeal1@@@Z ENDP	; std::auto_ptr<ICvDeal1>::auto_ptr<ICvDeal1>
_TEXT	ENDS
PUBLIC	??0?$auto_ptr@VICvDeal1@@@std@@QAE@U?$auto_ptr_ref@VICvDeal1@@@1@@Z ; std::auto_ptr<ICvDeal1>::auto_ptr<ICvDeal1>
; Function compile flags: /Ogtpy
;	COMDAT ??0?$auto_ptr@VICvDeal1@@@std@@QAE@U?$auto_ptr_ref@VICvDeal1@@@1@@Z
_TEXT	SEGMENT
__Right$ = 8						; size = 4
??0?$auto_ptr@VICvDeal1@@@std@@QAE@U?$auto_ptr_ref@VICvDeal1@@@1@@Z PROC ; std::auto_ptr<ICvDeal1>::auto_ptr<ICvDeal1>, COMDAT
; _this$ = ecx

; 669  : 	auto_ptr(auto_ptr_ref<_Ty> _Right) _THROW0()

	mov	eax, ecx

; 670  : 		{	// construct by assuming pointer from _Right auto_ptr_ref
; 671  : 		_Ty *_Ptr = _Right._Ref;
; 672  : 		_Right._Ref = 0;	// release old
; 673  : 		_Myptr = _Ptr;	// reset this

	mov	ecx, DWORD PTR __Right$[esp-4]
	mov	DWORD PTR [eax], ecx

; 674  : 		}

	ret	4
??0?$auto_ptr@VICvDeal1@@@std@@QAE@U?$auto_ptr_ref@VICvDeal1@@@1@@Z ENDP ; std::auto_ptr<ICvDeal1>::auto_ptr<ICvDeal1>
_TEXT	ENDS
PUBLIC	?get@?$auto_ptr@VICvDeal1@@@std@@QBEPAVICvDeal1@@XZ ; std::auto_ptr<ICvDeal1>::get
; Function compile flags: /Ogtpy
;	COMDAT ?get@?$auto_ptr@VICvDeal1@@@std@@QBEPAVICvDeal1@@XZ
_TEXT	SEGMENT
?get@?$auto_ptr@VICvDeal1@@@std@@QBEPAVICvDeal1@@XZ PROC ; std::auto_ptr<ICvDeal1>::get, COMDAT
; _this$ = ecx

; 750  : 		return (_Myptr);

	mov	eax, DWORD PTR [ecx]

; 751  : 		}

	ret	0
?get@?$auto_ptr@VICvDeal1@@@std@@QBEPAVICvDeal1@@XZ ENDP ; std::auto_ptr<ICvDeal1>::get
_TEXT	ENDS
PUBLIC	??9?$base_iterator@Vbase_iterator_tail@?$FCustomList_Core@U?$MultiListNodePolicy@UCvTradedItem@@@@V?$FFastAllocator@U?$MultiListNodePolicy@UCvTradedItem@@@@$0A@$0BF@$0A@UFDefaultFastVectorAllocator@?$BaseVector@U?$MultiListNodePolicy@UCvTradedItem@@@@$0A@@@@@V?$FCustomList_Tail_Member@V?$FFastAllocator@U?$MultiListNodePolicy@UCvTradedItem@@@@$0A@$0BF@$0A@UFDefaultFastVectorAllocator@?$BaseVector@U?$MultiListNodePolicy@UCvTradedItem@@@@$0A@@@@@@@@@@?$FCustomList_Core@U?$MultiListNodePolicy@UCvTradedItem@@@@V?$FFastAllocator@U?$MultiListNodePolicy@UCvTradedItem@@@@$0A@$0BF@$0A@UFDefaultFastVectorAllocator@?$BaseVector@U?$MultiListNodePolicy@UCvTradedItem@@@@$0A@@@@@V?$FCustomList_Tail_Member@V?$FFastAllocator@U?$MultiListNodePolicy@UCvTradedItem@@@@$0A@$0BF@$0A@UFDefaultFastVectorAllocator@?$BaseVector@U?$MultiListNodePolicy@UCvTradedItem@@@@$0A@@@@@@@@@QBE_NABV01@@Z ; FCustomList_Core<MultiListNodePolicy<CvTradedItem>,FFastAllocator<MultiListNodePolicy<CvTradedItem>,0,21,0,BaseVector<MultiListNodePolicy<CvTradedItem>,0>::FDefaultFastVectorAllocator>,FCustomList_Tail_Member<FFastAllocator<MultiListNodePolicy<CvTradedItem>,0,21,0,BaseVector<MultiListNodePolicy<CvTradedItem>,0>::FDefaultFastVectorAllocator> > >::base_iterator<FCustomList_Core<MultiListNodePolicy<CvTradedItem>,FFastAllocator<MultiListNodePolicy<CvTradedItem>,0,21,0,BaseVector<MultiListNodePolicy<CvTradedItem>,0>::FDefaultFastVectorAllocator>,FCustomList_Tail_Member<FFastAllocator<MultiListNodePolicy<CvTradedItem>,0,21,0,BaseVector<MultiListNodePolicy<CvTradedItem>,0>::FDefaultFastVectorAllocator> > >::base_iterator_tail>::operator!=
; Function compile flags: /Ogtpy
; File c:\users\enormousapplepie\desktop\lekmod files\lekmod dll versions\v29\lekmod_dll\fireplace\include\fireworks\ffastlist.h
;	COMDAT ??9?$base_iterator@Vbase_iterator_tail@?$FCustomList_Core@U?$MultiListNodePolicy@UCvTradedItem@@@@V?$FFastAllocator@U?$MultiListNodePolicy@UCvTradedItem@@@@$0A@$0BF@$0A@UFDefaultFastVectorAllocator@?$BaseVector@U?$MultiListNodePolicy@UCvTradedItem@@@@$0A@@@@@V?$FCustomList_Tail_Member@V?$FFastAllocator@U?$MultiListNodePolicy@UCvTradedItem@@@@$0A@$0BF@$0A@UFDefaultFastVectorAllocator@?$BaseVector@U?$MultiListNodePolicy@UCvTradedItem@@@@$0A@@@@@@@@@@?$FCustomList_Core@U?$MultiListNodePolicy@UCvTradedItem@@@@V?$FFastAllocator@U?$MultiListNodePolicy@UCvTradedItem@@@@$0A@$0BF@$0A@UFDefaultFastVectorAllocator@?$BaseVector@U?$MultiListNodePolicy@UCvTradedItem@@@@$0A@@@@@V?$FCustomList_Tail_Member@V?$FFastAllocator@U?$MultiListNodePolicy@UCvTradedItem@@@@$0A@$0BF@$0A@UFDefaultFastVectorAllocator@?$BaseVector@U?$MultiListNodePolicy@UCvTradedItem@@@@$0A@@@@@@@@@QBE_NABV01@@Z
_TEXT	SEGMENT
_rhs$ = 8						; size = 4
??9?$base_iterator@Vbase_iterator_tail@?$FCustomList_Core@U?$MultiListNodePolicy@UCvTradedItem@@@@V?$FFastAllocator@U?$MultiListNodePolicy@UCvTradedItem@@@@$0A@$0BF@$0A@UFDefaultFastVectorAllocator@?$BaseVector@U?$MultiListNodePolicy@UCvTradedItem@@@@$0A@@@@@V?$FCustomList_Tail_Member@V?$FFastAllocator@U?$MultiListNodePolicy@UCvTradedItem@@@@$0A@$0BF@$0A@UFDefaultFastVectorAllocator@?$BaseVector@U?$MultiListNodePolicy@UCvTradedItem@@@@$0A@@@@@@@@@@?$FCustomList_Core@U?$MultiListNodePolicy@UCvTradedItem@@@@V?$FFastAllocator@U?$MultiListNodePolicy@UCvTradedItem@@@@$0A@$0BF@$0A@UFDefaultFastVectorAllocator@?$BaseVector@U?$MultiListNodePolicy@UCvTradedItem@@@@$0A@@@@@V?$FCustomList_Tail_Member@V?$FFastAllocator@U?$MultiListNodePolicy@UCvTradedItem@@@@$0A@$0BF@$0A@UFDefaultFastVectorAllocator@?$BaseVector@U?$MultiListNodePolicy@UCvTradedItem@@@@$0A@@@@@@@@@QBE_NABV01@@Z PROC ; FCustomList_Core<MultiListNodePolicy<CvTradedItem>,FFastAllocator<MultiListNodePolicy<CvTradedItem>,0,21,0,BaseVector<MultiListNodePolicy<CvTradedItem>,0>::FDefaultFastVectorAllocator>,FCustomList_Tail_Member<FFastAllocator<MultiListNodePolicy<CvTradedItem>,0,21,0,BaseVector<MultiListNodePolicy<CvTradedItem>,0>::FDefaultFastVectorAllocator> > >::base_iterator<FCustomList_Core<MultiListNodePolicy<CvTradedItem>,FFastAllocator<MultiListNodePolicy<CvTradedItem>,0,21,0,BaseVector<MultiListNodePolicy<CvTradedItem>,0>::FDefaultFastVectorAllocator>,FCustomList_Tail_Member<FFastAllocator<MultiListNodePolicy<CvTradedItem>,0,21,0,BaseVector<MultiListNodePolicy<CvTradedItem>,0>::FDefaultFastVectorAllocator> > >::base_iterator_tail>::operator!=, COMDAT
; _this$ = ecx

; 353  : 			return m_uiCurrPos != rhs.m_uiCurrPos;

	mov	eax, DWORD PTR [ecx+4]
	mov	edx, DWORD PTR _rhs$[esp-4]
	xor	ecx, ecx
	cmp	eax, DWORD PTR [edx+4]
	setne	cl
	mov	al, cl

; 354  : 		};

	ret	4
??9?$base_iterator@Vbase_iterator_tail@?$FCustomList_Core@U?$MultiListNodePolicy@UCvTradedItem@@@@V?$FFastAllocator@U?$MultiListNodePolicy@UCvTradedItem@@@@$0A@$0BF@$0A@UFDefaultFastVectorAllocator@?$BaseVector@U?$MultiListNodePolicy@UCvTradedItem@@@@$0A@@@@@V?$FCustomList_Tail_Member@V?$FFastAllocator@U?$MultiListNodePolicy@UCvTradedItem@@@@$0A@$0BF@$0A@UFDefaultFastVectorAllocator@?$BaseVector@U?$MultiListNodePolicy@UCvTradedItem@@@@$0A@@@@@@@@@@?$FCustomList_Core@U?$MultiListNodePolicy@UCvTradedItem@@@@V?$FFastAllocator@U?$MultiListNodePolicy@UCvTradedItem@@@@$0A@$0BF@$0A@UFDefaultFastVectorAllocator@?$BaseVector@U?$MultiListNodePolicy@UCvTradedItem@@@@$0A@@@@@V?$FCustomList_Tail_Member@V?$FFastAllocator@U?$MultiListNodePolicy@UCvTradedItem@@@@$0A@$0BF@$0A@UFDefaultFastVectorAllocator@?$BaseVector@U?$MultiListNodePolicy@UCvTradedItem@@@@$0A@@@@@@@@@QBE_NABV01@@Z ENDP ; FCustomList_Core<MultiListNodePolicy<CvTradedItem>,FFastAllocator<MultiListNodePolicy<CvTradedItem>,0,21,0,BaseVector<MultiListNodePolicy<CvTradedItem>,0>::FDefaultFastVectorAllocator>,FCustomList_Tail_Member<FFastAllocator<MultiListNodePolicy<CvTradedItem>,0,21,0,BaseVector<MultiListNodePolicy<CvTradedItem>,0>::FDefaultFastVectorAllocator> > >::base_iterator<FCustomList_Core<MultiListNodePolicy<CvTradedItem>,FFastAllocator<MultiListNodePolicy<CvTradedItem>,0,21,0,BaseVector<MultiListNodePolicy<CvTradedItem>,0>::FDefaultFastVectorAllocator>,FCustomList_Tail_Member<FFastAllocator<MultiListNodePolicy<CvTradedItem>,0,21,0,BaseVector<MultiListNodePolicy<CvTradedItem>,0>::FDefaultFastVectorAllocator> > >::base_iterator_tail>::operator!=
_TEXT	ENDS
PUBLIC	?size@?$FCustomList_Core@U?$MultiListNodePolicy@UCvTradedItem@@@@V?$FFastAllocator@U?$MultiListNodePolicy@UCvTradedItem@@@@$0A@$0BF@$0A@UFDefaultFastVectorAllocator@?$BaseVector@U?$MultiListNodePolicy@UCvTradedItem@@@@$0A@@@@@V?$FCustomList_Tail_Member@V?$FFastAllocator@U?$MultiListNodePolicy@UCvTradedItem@@@@$0A@$0BF@$0A@UFDefaultFastVectorAllocator@?$BaseVector@U?$MultiListNodePolicy@UCvTradedItem@@@@$0A@@@@@@@@@QBEIXZ ; FCustomList_Core<MultiListNodePolicy<CvTradedItem>,FFastAllocator<MultiListNodePolicy<CvTradedItem>,0,21,0,BaseVector<MultiListNodePolicy<CvTradedItem>,0>::FDefaultFastVectorAllocator>,FCustomList_Tail_Member<FFastAllocator<MultiListNodePolicy<CvTradedItem>,0,21,0,BaseVector<MultiListNodePolicy<CvTradedItem>,0>::FDefaultFastVectorAllocator> > >::size
; Function compile flags: /Ogtpy
;	COMDAT ?size@?$FCustomList_Core@U?$MultiListNodePolicy@UCvTradedItem@@@@V?$FFastAllocator@U?$MultiListNodePolicy@UCvTradedItem@@@@$0A@$0BF@$0A@UFDefaultFastVectorAllocator@?$BaseVector@U?$MultiListNodePolicy@UCvTradedItem@@@@$0A@@@@@V?$FCustomList_Tail_Member@V?$FFastAllocator@U?$MultiListNodePolicy@UCvTradedItem@@@@$0A@$0BF@$0A@UFDefaultFastVectorAllocator@?$BaseVector@U?$MultiListNodePolicy@UCvTradedItem@@@@$0A@@@@@@@@@QBEIXZ
_TEXT	SEGMENT
?size@?$FCustomList_Core@U?$MultiListNodePolicy@UCvTradedItem@@@@V?$FFastAllocator@U?$MultiListNodePolicy@UCvTradedItem@@@@$0A@$0BF@$0A@UFDefaultFastVectorAllocator@?$BaseVector@U?$MultiListNodePolicy@UCvTradedItem@@@@$0A@@@@@V?$FCustomList_Tail_Member@V?$FFastAllocator@U?$MultiListNodePolicy@UCvTradedItem@@@@$0A@$0BF@$0A@UFDefaultFastVectorAllocator@?$BaseVector@U?$MultiListNodePolicy@UCvTradedItem@@@@$0A@@@@@@@@@QBEIXZ PROC ; FCustomList_Core<MultiListNodePolicy<CvTradedItem>,FFastAllocator<MultiListNodePolicy<CvTradedItem>,0,21,0,BaseVector<MultiListNodePolicy<CvTradedItem>,0>::FDefaultFastVectorAllocator>,FCustomList_Tail_Member<FFastAllocator<MultiListNodePolicy<CvTradedItem>,0,21,0,BaseVector<MultiListNodePolicy<CvTradedItem>,0>::FDefaultFastVectorAllocator> > >::size, COMDAT
; _this$ = ecx

; 522  : 		return m_uiSize;

	mov	eax, DWORD PTR [ecx+20]

; 523  : 	};

	ret	0
?size@?$FCustomList_Core@U?$MultiListNodePolicy@UCvTradedItem@@@@V?$FFastAllocator@U?$MultiListNodePolicy@UCvTradedItem@@@@$0A@$0BF@$0A@UFDefaultFastVectorAllocator@?$BaseVector@U?$MultiListNodePolicy@UCvTradedItem@@@@$0A@@@@@V?$FCustomList_Tail_Member@V?$FFastAllocator@U?$MultiListNodePolicy@UCvTradedItem@@@@$0A@$0BF@$0A@UFDefaultFastVectorAllocator@?$BaseVector@U?$MultiListNodePolicy@UCvTradedItem@@@@$0A@@@@@@@@@QBEIXZ ENDP ; FCustomList_Core<MultiListNodePolicy<CvTradedItem>,FFastAllocator<MultiListNodePolicy<CvTradedItem>,0,21,0,BaseVector<MultiListNodePolicy<CvTradedItem>,0>::FDefaultFastVectorAllocator>,FCustomList_Tail_Member<FFastAllocator<MultiListNodePolicy<CvTradedItem>,0,21,0,BaseVector<MultiListNodePolicy<CvTradedItem>,0>::FDefaultFastVectorAllocator> > >::size
_TEXT	ENDS
PUBLIC	?get_allocator@?$FCustomList_Tail_Member@V?$FFastAllocator@U?$MultiListNodePolicy@UCvTradedItem@@@@$0A@$0BF@$0A@UFDefaultFastVectorAllocator@?$BaseVector@U?$MultiListNodePolicy@UCvTradedItem@@@@$0A@@@@@@@QAEAAV?$FFastAllocator@U?$MultiListNodePolicy@UCvTradedItem@@@@$0A@$0BF@$0A@UFDefaultFastVectorAllocator@?$BaseVector@U?$MultiListNodePolicy@UCvTradedItem@@@@$0A@@@@@XZ ; FCustomList_Tail_Member<FFastAllocator<MultiListNodePolicy<CvTradedItem>,0,21,0,BaseVector<MultiListNodePolicy<CvTradedItem>,0>::FDefaultFastVectorAllocator> >::get_allocator
; Function compile flags: /Ogtpy
;	COMDAT ?get_allocator@?$FCustomList_Tail_Member@V?$FFastAllocator@U?$MultiListNodePolicy@UCvTradedItem@@@@$0A@$0BF@$0A@UFDefaultFastVectorAllocator@?$BaseVector@U?$MultiListNodePolicy@UCvTradedItem@@@@$0A@@@@@@@QAEAAV?$FFastAllocator@U?$MultiListNodePolicy@UCvTradedItem@@@@$0A@$0BF@$0A@UFDefaultFastVectorAllocator@?$BaseVector@U?$MultiListNodePolicy@UCvTradedItem@@@@$0A@@@@@XZ
_TEXT	SEGMENT
?get_allocator@?$FCustomList_Tail_Member@V?$FFastAllocator@U?$MultiListNodePolicy@UCvTradedItem@@@@$0A@$0BF@$0A@UFDefaultFastVectorAllocator@?$BaseVector@U?$MultiListNodePolicy@UCvTradedItem@@@@$0A@@@@@@@QAEAAV?$FFastAllocator@U?$MultiListNodePolicy@UCvTradedItem@@@@$0A@$0BF@$0A@UFDefaultFastVectorAllocator@?$BaseVector@U?$MultiListNodePolicy@UCvTradedItem@@@@$0A@@@@@XZ PROC ; FCustomList_Tail_Member<FFastAllocator<MultiListNodePolicy<CvTradedItem>,0,21,0,BaseVector<MultiListNodePolicy<CvTradedItem>,0>::FDefaultFastVectorAllocator> >::get_allocator, COMDAT
; _this$ = ecx

; 711  : 	T_ALLOCATOR& get_allocator(){ return m_kAllocator; };

	mov	eax, ecx
	ret	0
?get_allocator@?$FCustomList_Tail_Member@V?$FFastAllocator@U?$MultiListNodePolicy@UCvTradedItem@@@@$0A@$0BF@$0A@UFDefaultFastVectorAllocator@?$BaseVector@U?$MultiListNodePolicy@UCvTradedItem@@@@$0A@@@@@@@QAEAAV?$FFastAllocator@U?$MultiListNodePolicy@UCvTradedItem@@@@$0A@$0BF@$0A@UFDefaultFastVectorAllocator@?$BaseVector@U?$MultiListNodePolicy@UCvTradedItem@@@@$0A@@@@@XZ ENDP ; FCustomList_Tail_Member<FFastAllocator<MultiListNodePolicy<CvTradedItem>,0,21,0,BaseVector<MultiListNodePolicy<CvTradedItem>,0>::FDefaultFastVectorAllocator> >::get_allocator
_TEXT	ENDS
PUBLIC	??1?$BaseVector@UVoteCommitment@CvLeagueAI@@$0A@@@QAE@XZ ; BaseVector<CvLeagueAI::VoteCommitment,0>::~BaseVector<CvLeagueAI::VoteCommitment,0>
; Function compile flags: /Ogtpy
; File c:\users\enormousapplepie\desktop\lekmod files\lekmod dll versions\v29\lekmod_dll\fireplace\include\fireworks\ffastvector.h
;	COMDAT ??1?$BaseVector@UVoteCommitment@CvLeagueAI@@$0A@@@QAE@XZ
_TEXT	SEGMENT
??1?$BaseVector@UVoteCommitment@CvLeagueAI@@$0A@@@QAE@XZ PROC ; BaseVector<CvLeagueAI::VoteCommitment,0>::~BaseVector<CvLeagueAI::VoteCommitment,0>, COMDAT
; _this$ = ecx

; 111  : 	~BaseVector(){};

	ret	0
??1?$BaseVector@UVoteCommitment@CvLeagueAI@@$0A@@@QAE@XZ ENDP ; BaseVector<CvLeagueAI::VoteCommitment,0>::~BaseVector<CvLeagueAI::VoteCommitment,0>
_TEXT	ENDS
PUBLIC	??A?$BaseVector@UWeightedElement@?$CvWeightedVector@H$00$0A@@@$0A@@@QBEABUWeightedElement@?$CvWeightedVector@H$00$0A@@@I@Z ; BaseVector<CvWeightedVector<int,1,0>::WeightedElement,0>::operator[]
; Function compile flags: /Ogtpy
;	COMDAT ??A?$BaseVector@UWeightedElement@?$CvWeightedVector@H$00$0A@@@$0A@@@QBEABUWeightedElement@?$CvWeightedVector@H$00$0A@@@I@Z
_TEXT	SEGMENT
_ui$ = 8						; size = 4
??A?$BaseVector@UWeightedElement@?$CvWeightedVector@H$00$0A@@@$0A@@@QBEABUWeightedElement@?$CvWeightedVector@H$00$0A@@@I@Z PROC ; BaseVector<CvWeightedVector<int,1,0>::WeightedElement,0>::operator[], COMDAT
; _this$ = ecx

; 135  : 		FAssert(ui < m_uiCurrSize);
; 136  : 		return m_pData[ui];

	mov	eax, DWORD PTR [ecx]
	mov	ecx, DWORD PTR _ui$[esp-4]
	lea	eax, DWORD PTR [eax+ecx*8]

; 137  : 	};

	ret	4
??A?$BaseVector@UWeightedElement@?$CvWeightedVector@H$00$0A@@@$0A@@@QBEABUWeightedElement@?$CvWeightedVector@H$00$0A@@@I@Z ENDP ; BaseVector<CvWeightedVector<int,1,0>::WeightedElement,0>::operator[]
_TEXT	ENDS
PUBLIC	?size@?$BaseVector@UWeightedElement@?$CvWeightedVector@H$00$0A@@@$0A@@@QBEIXZ ; BaseVector<CvWeightedVector<int,1,0>::WeightedElement,0>::size
; Function compile flags: /Ogtpy
;	COMDAT ?size@?$BaseVector@UWeightedElement@?$CvWeightedVector@H$00$0A@@@$0A@@@QBEIXZ
_TEXT	SEGMENT
?size@?$BaseVector@UWeightedElement@?$CvWeightedVector@H$00$0A@@@$0A@@@QBEIXZ PROC ; BaseVector<CvWeightedVector<int,1,0>::WeightedElement,0>::size, COMDAT
; _this$ = ecx

; 169  : 		return m_uiCurrSize;

	mov	eax, DWORD PTR [ecx+4]

; 170  : 	};

	ret	0
?size@?$BaseVector@UWeightedElement@?$CvWeightedVector@H$00$0A@@@$0A@@@QBEIXZ ENDP ; BaseVector<CvWeightedVector<int,1,0>::WeightedElement,0>::size
_TEXT	ENDS
PUBLIC	?begin@?$BaseVector@UWeightedElement@?$CvWeightedVector@H$00$0A@@@$0A@@@QAEPAUWeightedElement@?$CvWeightedVector@H$00$0A@@@XZ ; BaseVector<CvWeightedVector<int,1,0>::WeightedElement,0>::begin
; Function compile flags: /Ogtpy
;	COMDAT ?begin@?$BaseVector@UWeightedElement@?$CvWeightedVector@H$00$0A@@@$0A@@@QAEPAUWeightedElement@?$CvWeightedVector@H$00$0A@@@XZ
_TEXT	SEGMENT
?begin@?$BaseVector@UWeightedElement@?$CvWeightedVector@H$00$0A@@@$0A@@@QAEPAUWeightedElement@?$CvWeightedVector@H$00$0A@@@XZ PROC ; BaseVector<CvWeightedVector<int,1,0>::WeightedElement,0>::begin, COMDAT
; _this$ = ecx

; 194  :         return m_pData; 

	mov	eax, DWORD PTR [ecx]

; 195  :     };

	ret	0
?begin@?$BaseVector@UWeightedElement@?$CvWeightedVector@H$00$0A@@@$0A@@@QAEPAUWeightedElement@?$CvWeightedVector@H$00$0A@@@XZ ENDP ; BaseVector<CvWeightedVector<int,1,0>::WeightedElement,0>::begin
_TEXT	ENDS
PUBLIC	?end@?$BaseVector@UWeightedElement@?$CvWeightedVector@H$00$0A@@@$0A@@@QAEPAUWeightedElement@?$CvWeightedVector@H$00$0A@@@XZ ; BaseVector<CvWeightedVector<int,1,0>::WeightedElement,0>::end
; Function compile flags: /Ogtpy
;	COMDAT ?end@?$BaseVector@UWeightedElement@?$CvWeightedVector@H$00$0A@@@$0A@@@QAEPAUWeightedElement@?$CvWeightedVector@H$00$0A@@@XZ
_TEXT	SEGMENT
?end@?$BaseVector@UWeightedElement@?$CvWeightedVector@H$00$0A@@@$0A@@@QAEPAUWeightedElement@?$CvWeightedVector@H$00$0A@@@XZ PROC ; BaseVector<CvWeightedVector<int,1,0>::WeightedElement,0>::end, COMDAT
; _this$ = ecx

; 197  :         return m_pData+m_uiCurrSize; 

	mov	eax, DWORD PTR [ecx+4]
	mov	ecx, DWORD PTR [ecx]
	lea	eax, DWORD PTR [ecx+eax*8]

; 198  :     };

	ret	0
?end@?$BaseVector@UWeightedElement@?$CvWeightedVector@H$00$0A@@@$0A@@@QAEPAUWeightedElement@?$CvWeightedVector@H$00$0A@@@XZ ENDP ; BaseVector<CvWeightedVector<int,1,0>::WeightedElement,0>::end
_TEXT	ENDS
PUBLIC	??0WeightedElement@?$CvWeightedVector@H$00$0A@@@QAE@XZ ; CvWeightedVector<int,1,0>::WeightedElement::WeightedElement
; Function compile flags: /Ogtpy
; File c:\users\enormousapplepie\desktop\lekmod files\lekmod dll versions\v29\lekmod_dll\cvgamecoredllutil\include\cvweightedvector.h
;	COMDAT ??0WeightedElement@?$CvWeightedVector@H$00$0A@@@QAE@XZ
_TEXT	SEGMENT
??0WeightedElement@?$CvWeightedVector@H$00$0A@@@QAE@XZ PROC ; CvWeightedVector<int,1,0>::WeightedElement::WeightedElement, COMDAT
; _this$ = ecx

; 31   : 		{

	mov	eax, ecx
	mov	DWORD PTR [eax], 0
	mov	DWORD PTR [eax+4], 0

; 32   : 		}

	ret	0
??0WeightedElement@?$CvWeightedVector@H$00$0A@@@QAE@XZ ENDP ; CvWeightedVector<int,1,0>::WeightedElement::WeightedElement
_TEXT	ENDS
PUBLIC	??A?$BaseVector@U?$MultiListNodePolicy@UCvTradedItem@@@@$0A@@@QAEAAU?$MultiListNodePolicy@UCvTradedItem@@@@I@Z ; BaseVector<MultiListNodePolicy<CvTradedItem>,0>::operator[]
; Function compile flags: /Ogtpy
; File c:\users\enormousapplepie\desktop\lekmod files\lekmod dll versions\v29\lekmod_dll\fireplace\include\fireworks\ffastvector.h
;	COMDAT ??A?$BaseVector@U?$MultiListNodePolicy@UCvTradedItem@@@@$0A@@@QAEAAU?$MultiListNodePolicy@UCvTradedItem@@@@I@Z
_TEXT	SEGMENT
_ui$ = 8						; size = 4
??A?$BaseVector@U?$MultiListNodePolicy@UCvTradedItem@@@@$0A@@@QAEAAU?$MultiListNodePolicy@UCvTradedItem@@@@I@Z PROC ; BaseVector<MultiListNodePolicy<CvTradedItem>,0>::operator[], COMDAT
; _this$ = ecx

; 129  : 		FAssert(ui < m_uiCurrSize);
; 130  : 		return m_pData[ui];

	mov	eax, DWORD PTR _ui$[esp-4]
	imul	eax, 44					; 0000002cH
	add	eax, DWORD PTR [ecx]

; 131  : 	};

	ret	4
??A?$BaseVector@U?$MultiListNodePolicy@UCvTradedItem@@@@$0A@@@QAEAAU?$MultiListNodePolicy@UCvTradedItem@@@@I@Z ENDP ; BaseVector<MultiListNodePolicy<CvTradedItem>,0>::operator[]
_TEXT	ENDS
PUBLIC	??1?$base_iterator@Vbase_iterator_tail@?$FCustomList_Core@U?$MultiListNodePolicy@UCvTradedItem@@@@V?$FFastAllocator@U?$MultiListNodePolicy@UCvTradedItem@@@@$0A@$0BF@$0A@UFDefaultFastVectorAllocator@?$BaseVector@U?$MultiListNodePolicy@UCvTradedItem@@@@$0A@@@@@V?$FCustomList_Tail_Member@V?$FFastAllocator@U?$MultiListNodePolicy@UCvTradedItem@@@@$0A@$0BF@$0A@UFDefaultFastVectorAllocator@?$BaseVector@U?$MultiListNodePolicy@UCvTradedItem@@@@$0A@@@@@@@@@@?$FCustomList_Core@U?$MultiListNodePolicy@UCvTradedItem@@@@V?$FFastAllocator@U?$MultiListNodePolicy@UCvTradedItem@@@@$0A@$0BF@$0A@UFDefaultFastVectorAllocator@?$BaseVector@U?$MultiListNodePolicy@UCvTradedItem@@@@$0A@@@@@V?$FCustomList_Tail_Member@V?$FFastAllocator@U?$MultiListNodePolicy@UCvTradedItem@@@@$0A@$0BF@$0A@UFDefaultFastVectorAllocator@?$BaseVector@U?$MultiListNodePolicy@UCvTradedItem@@@@$0A@@@@@@@@@QAE@XZ ; FCustomList_Core<MultiListNodePolicy<CvTradedItem>,FFastAllocator<MultiListNodePolicy<CvTradedItem>,0,21,0,BaseVector<MultiListNodePolicy<CvTradedItem>,0>::FDefaultFastVectorAllocator>,FCustomList_Tail_Member<FFastAllocator<MultiListNodePolicy<CvTradedItem>,0,21,0,BaseVector<MultiListNodePolicy<CvTradedItem>,0>::FDefaultFastVectorAllocator> > >::base_iterator<FCustomList_Core<MultiListNodePolicy<CvTradedItem>,FFastAllocator<MultiListNodePolicy<CvTradedItem>,0,21,0,BaseVector<MultiListNodePolicy<CvTradedItem>,0>::FDefaultFastVectorAllocator>,FCustomList_Tail_Member<FFastAllocator<MultiListNodePolicy<CvTradedItem>,0,21,0,BaseVector<MultiListNodePolicy<CvTradedItem>,0>::FDefaultFastVectorAllocator> > >::base_iterator_tail>::~base_iterator<FCustomList_Core<MultiListNodePolicy<CvTradedItem>,FFastAllocator<MultiListNodePolicy<CvTradedItem>,0,21,0,BaseVector<MultiListNodePolicy<CvTradedItem>,0>::FDefaultFastVectorAllocator>,FCustomList_Tail_Member<FFastAllocator<MultiListNodePolicy<CvTradedItem>,0,21,0,BaseVector<MultiListNodePolicy<CvTradedItem>,0>::FDefaultFastVectorAllocator> > >::base_iterator_tail>
; Function compile flags: /Ogtpy
; File c:\users\enormousapplepie\desktop\lekmod files\lekmod dll versions\v29\lekmod_dll\fireplace\include\fireworks\ffastlist.h
;	COMDAT ??1?$base_iterator@Vbase_iterator_tail@?$FCustomList_Core@U?$MultiListNodePolicy@UCvTradedItem@@@@V?$FFastAllocator@U?$MultiListNodePolicy@UCvTradedItem@@@@$0A@$0BF@$0A@UFDefaultFastVectorAllocator@?$BaseVector@U?$MultiListNodePolicy@UCvTradedItem@@@@$0A@@@@@V?$FCustomList_Tail_Member@V?$FFastAllocator@U?$MultiListNodePolicy@UCvTradedItem@@@@$0A@$0BF@$0A@UFDefaultFastVectorAllocator@?$BaseVector@U?$MultiListNodePolicy@UCvTradedItem@@@@$0A@@@@@@@@@@?$FCustomList_Core@U?$MultiListNodePolicy@UCvTradedItem@@@@V?$FFastAllocator@U?$MultiListNodePolicy@UCvTradedItem@@@@$0A@$0BF@$0A@UFDefaultFastVectorAllocator@?$BaseVector@U?$MultiListNodePolicy@UCvTradedItem@@@@$0A@@@@@V?$FCustomList_Tail_Member@V?$FFastAllocator@U?$MultiListNodePolicy@UCvTradedItem@@@@$0A@$0BF@$0A@UFDefaultFastVectorAllocator@?$BaseVector@U?$MultiListNodePolicy@UCvTradedItem@@@@$0A@@@@@@@@@QAE@XZ
_TEXT	SEGMENT
??1?$base_iterator@Vbase_iterator_tail@?$FCustomList_Core@U?$MultiListNodePolicy@UCvTradedItem@@@@V?$FFastAllocator@U?$MultiListNodePolicy@UCvTradedItem@@@@$0A@$0BF@$0A@UFDefaultFastVectorAllocator@?$BaseVector@U?$MultiListNodePolicy@UCvTradedItem@@@@$0A@@@@@V?$FCustomList_Tail_Member@V?$FFastAllocator@U?$MultiListNodePolicy@UCvTradedItem@@@@$0A@$0BF@$0A@UFDefaultFastVectorAllocator@?$BaseVector@U?$MultiListNodePolicy@UCvTradedItem@@@@$0A@@@@@@@@@@?$FCustomList_Core@U?$MultiListNodePolicy@UCvTradedItem@@@@V?$FFastAllocator@U?$MultiListNodePolicy@UCvTradedItem@@@@$0A@$0BF@$0A@UFDefaultFastVectorAllocator@?$BaseVector@U?$MultiListNodePolicy@UCvTradedItem@@@@$0A@@@@@V?$FCustomList_Tail_Member@V?$FFastAllocator@U?$MultiListNodePolicy@UCvTradedItem@@@@$0A@$0BF@$0A@UFDefaultFastVectorAllocator@?$BaseVector@U?$MultiListNodePolicy@UCvTradedItem@@@@$0A@@@@@@@@@QAE@XZ PROC ; FCustomList_Core<MultiListNodePolicy<CvTradedItem>,FFastAllocator<MultiListNodePolicy<CvTradedItem>,0,21,0,BaseVector<MultiListNodePolicy<CvTradedItem>,0>::FDefaultFastVectorAllocator>,FCustomList_Tail_Member<FFastAllocator<MultiListNodePolicy<CvTradedItem>,0,21,0,BaseVector<MultiListNodePolicy<CvTradedItem>,0>::FDefaultFastVectorAllocator> > >::base_iterator<FCustomList_Core<MultiListNodePolicy<CvTradedItem>,FFastAllocator<MultiListNodePolicy<CvTradedItem>,0,21,0,BaseVector<MultiListNodePolicy<CvTradedItem>,0>::FDefaultFastVectorAllocator>,FCustomList_Tail_Member<FFastAllocator<MultiListNodePolicy<CvTradedItem>,0,21,0,BaseVector<MultiListNodePolicy<CvTradedItem>,0>::FDefaultFastVectorAllocator> > >::base_iterator_tail>::~base_iterator<FCustomList_Core<MultiListNodePolicy<CvTradedItem>,FFastAllocator<MultiListNodePolicy<CvTradedItem>,0,21,0,BaseVector<MultiListNodePolicy<CvTradedItem>,0>::FDefaultFastVectorAllocator>,FCustomList_Tail_Member<FFastAllocator<MultiListNodePolicy<CvTradedItem>,0,21,0,BaseVector<MultiListNodePolicy<CvTradedItem>,0>::FDefaultFastVectorAllocator> > >::base_iterator_tail>, COMDAT
; _this$ = ecx

; 299  : 		~base_iterator(){};

	ret	0
??1?$base_iterator@Vbase_iterator_tail@?$FCustomList_Core@U?$MultiListNodePolicy@UCvTradedItem@@@@V?$FFastAllocator@U?$MultiListNodePolicy@UCvTradedItem@@@@$0A@$0BF@$0A@UFDefaultFastVectorAllocator@?$BaseVector@U?$MultiListNodePolicy@UCvTradedItem@@@@$0A@@@@@V?$FCustomList_Tail_Member@V?$FFastAllocator@U?$MultiListNodePolicy@UCvTradedItem@@@@$0A@$0BF@$0A@UFDefaultFastVectorAllocator@?$BaseVector@U?$MultiListNodePolicy@UCvTradedItem@@@@$0A@@@@@@@@@@?$FCustomList_Core@U?$MultiListNodePolicy@UCvTradedItem@@@@V?$FFastAllocator@U?$MultiListNodePolicy@UCvTradedItem@@@@$0A@$0BF@$0A@UFDefaultFastVectorAllocator@?$BaseVector@U?$MultiListNodePolicy@UCvTradedItem@@@@$0A@@@@@V?$FCustomList_Tail_Member@V?$FFastAllocator@U?$MultiListNodePolicy@UCvTradedItem@@@@$0A@$0BF@$0A@UFDefaultFastVectorAllocator@?$BaseVector@U?$MultiListNodePolicy@UCvTradedItem@@@@$0A@@@@@@@@@QAE@XZ ENDP ; FCustomList_Core<MultiListNodePolicy<CvTradedItem>,FFastAllocator<MultiListNodePolicy<CvTradedItem>,0,21,0,BaseVector<MultiListNodePolicy<CvTradedItem>,0>::FDefaultFastVectorAllocator>,FCustomList_Tail_Member<FFastAllocator<MultiListNodePolicy<CvTradedItem>,0,21,0,BaseVector<MultiListNodePolicy<CvTradedItem>,0>::FDefaultFastVectorAllocator> > >::base_iterator<FCustomList_Core<MultiListNodePolicy<CvTradedItem>,FFastAllocator<MultiListNodePolicy<CvTradedItem>,0,21,0,BaseVector<MultiListNodePolicy<CvTradedItem>,0>::FDefaultFastVectorAllocator>,FCustomList_Tail_Member<FFastAllocator<MultiListNodePolicy<CvTradedItem>,0,21,0,BaseVector<MultiListNodePolicy<CvTradedItem>,0>::FDefaultFastVectorAllocator> > >::base_iterator_tail>::~base_iterator<FCustomList_Core<MultiListNodePolicy<CvTradedItem>,FFastAllocator<MultiListNodePolicy<CvTradedItem>,0,21,0,BaseVector<MultiListNodePolicy<CvTradedItem>,0>::FDefaultFastVectorAllocator>,FCustomList_Tail_Member<FFastAllocator<MultiListNodePolicy<CvTradedItem>,0,21,0,BaseVector<MultiListNodePolicy<CvTradedItem>,0>::FDefaultFastVectorAllocator> > >::base_iterator_tail>
_TEXT	ENDS
PUBLIC	??_C@_0HM@IMGGMCHG@c?3?2users?2enormousapplepie?2deskto@ ; `string'
PUBLIC	?Alloc@?$FStaticVector@UWeightedElement@?$CvWeightedVector@H$00$0A@@@$00$0A@$0A@$0A@@@IAEPAUWeightedElement@?$CvWeightedVector@H$00$0A@@@I@Z ; FStaticVector<CvWeightedVector<int,1,0>::WeightedElement,1,0,0,0>::Alloc
EXTRN	?FireMallocAlignedNoTracking@@YAPAXIIPBDH@Z:PROC ; FireMallocAlignedNoTracking
;	COMDAT ??_C@_0HM@IMGGMCHG@c?3?2users?2enormousapplepie?2deskto@
; File c:\users\enormousapplepie\desktop\lekmod files\lekmod dll versions\v29\lekmod_dll\fireplace\include\fireworks\ffastvector.h
CONST	SEGMENT
??_C@_0HM@IMGGMCHG@c?3?2users?2enormousapplepie?2deskto@ DB 'c:\users\eno'
	DB	'rmousapplepie\desktop\lekmod files\lekmod dll versions\v29\le'
	DB	'kmod_dll\fireplace\include\fireworks\FFastVector.h', 00H ; `string'
; Function compile flags: /Ogtpy
CONST	ENDS
;	COMDAT ?Alloc@?$FStaticVector@UWeightedElement@?$CvWeightedVector@H$00$0A@@@$00$0A@$0A@$0A@@@IAEPAUWeightedElement@?$CvWeightedVector@H$00$0A@@@I@Z
_TEXT	SEGMENT
_uiSize$ = 8						; size = 4
?Alloc@?$FStaticVector@UWeightedElement@?$CvWeightedVector@H$00$0A@@@$00$0A@$0A@$0A@@@IAEPAUWeightedElement@?$CvWeightedVector@H$00$0A@@@I@Z PROC ; FStaticVector<CvWeightedVector<int,1,0>::WeightedElement,1,0,0,0>::Alloc, COMDAT
; _this$ = ecx

; 795  : 	T* Alloc(unsigned int uiSize){

	push	esi
	push	edi

; 796  : 		T* pRet;
; 797  : 		if( uiSize > L ){

	mov	edi, DWORD PTR _uiSize$[esp+4]
	mov	esi, ecx
	cmp	edi, 1
	jbe	SHORT $LN2@Alloc

; 798  : 			pRet = (T*)FMALLOCALIGNED( uiSize*sizeof(T), __alignof(T), AllocPool, nSubID );

	push	798					; 0000031eH
	push	OFFSET ??_C@_0HM@IMGGMCHG@c?3?2users?2enormousapplepie?2deskto@
	lea	eax, DWORD PTR [edi*8]
	push	4
	push	eax
	call	?FireMallocAlignedNoTracking@@YAPAXIIPBDH@Z ; FireMallocAlignedNoTracking
	add	esp, 16					; 00000010H

; 799  : 			m_uiCurrMaxSize = uiSize;

	mov	DWORD PTR [esi+8], edi
	pop	edi
	pop	esi

; 803  : 		}
; 804  : 		return pRet;
; 805  : 	};

	ret	4
$LN2@Alloc:
	pop	edi

; 800  : 		}else{
; 801  : 			pRet = (T*)m_aData;

	lea	eax, DWORD PTR [esi+12]

; 802  : 			m_uiCurrMaxSize = L;

	mov	DWORD PTR [esi+8], 1
	pop	esi

; 803  : 		}
; 804  : 		return pRet;
; 805  : 	};

	ret	4
?Alloc@?$FStaticVector@UWeightedElement@?$CvWeightedVector@H$00$0A@@@$00$0A@$0A@$0A@@@IAEPAUWeightedElement@?$CvWeightedVector@H$00$0A@@@I@Z ENDP ; FStaticVector<CvWeightedVector<int,1,0>::WeightedElement,1,0,0,0>::Alloc
_TEXT	ENDS
PUBLIC	??1?$BaseVector@UWeightedElement@?$CvWeightedVector@H$00$0A@@@$0A@@@QAE@XZ ; BaseVector<CvWeightedVector<int,1,0>::WeightedElement,0>::~BaseVector<CvWeightedVector<int,1,0>::WeightedElement,0>
; Function compile flags: /Ogtpy
;	COMDAT ??1?$BaseVector@UWeightedElement@?$CvWeightedVector@H$00$0A@@@$0A@@@QAE@XZ
_TEXT	SEGMENT
??1?$BaseVector@UWeightedElement@?$CvWeightedVector@H$00$0A@@@$0A@@@QAE@XZ PROC ; BaseVector<CvWeightedVector<int,1,0>::WeightedElement,0>::~BaseVector<CvWeightedVector<int,1,0>::WeightedElement,0>, COMDAT
; _this$ = ecx

; 111  : 	~BaseVector(){};

	ret	0
??1?$BaseVector@UWeightedElement@?$CvWeightedVector@H$00$0A@@@$0A@@@QAE@XZ ENDP ; BaseVector<CvWeightedVector<int,1,0>::WeightedElement,0>::~BaseVector<CvWeightedVector<int,1,0>::WeightedElement,0>
_TEXT	ENDS
PUBLIC	??0?$BaseVector@UWeightedElement@?$CvWeightedVector@H$00$0A@@@$0A@@@IAE@XZ ; BaseVector<CvWeightedVector<int,1,0>::WeightedElement,0>::BaseVector<CvWeightedVector<int,1,0>::WeightedElement,0>
; Function compile flags: /Ogtpy
;	COMDAT ??0?$BaseVector@UWeightedElement@?$CvWeightedVector@H$00$0A@@@$0A@@@IAE@XZ
_TEXT	SEGMENT
??0?$BaseVector@UWeightedElement@?$CvWeightedVector@H$00$0A@@@$0A@@@IAE@XZ PROC ; BaseVector<CvWeightedVector<int,1,0>::WeightedElement,0>::BaseVector<CvWeightedVector<int,1,0>::WeightedElement,0>, COMDAT
; _this$ = ecx

; 216  : 	BaseVector() : m_uiCurrSize(0), m_uiCurrMaxSize(0), m_pData(NULL) {};

	mov	eax, ecx
	xor	ecx, ecx
	mov	DWORD PTR [eax], ecx
	mov	DWORD PTR [eax+4], ecx
	mov	DWORD PTR [eax+8], ecx
	ret	0
??0?$BaseVector@UWeightedElement@?$CvWeightedVector@H$00$0A@@@$0A@@@IAE@XZ ENDP ; BaseVector<CvWeightedVector<int,1,0>::WeightedElement,0>::BaseVector<CvWeightedVector<int,1,0>::WeightedElement,0>
_TEXT	ENDS
PUBLIC	??0WeightedElement@?$CvWeightedVector@H$00$0A@@@QAE@ABU01@@Z ; CvWeightedVector<int,1,0>::WeightedElement::WeightedElement
; Function compile flags: /Ogtpy
; File c:\users\enormousapplepie\desktop\lekmod files\lekmod dll versions\v29\lekmod_dll\cvgamecoredllutil\include\cvweightedvector.h
;	COMDAT ??0WeightedElement@?$CvWeightedVector@H$00$0A@@@QAE@ABU01@@Z
_TEXT	SEGMENT
_source$ = 8						; size = 4
??0WeightedElement@?$CvWeightedVector@H$00$0A@@@QAE@ABU01@@Z PROC ; CvWeightedVector<int,1,0>::WeightedElement::WeightedElement, COMDAT
; _this$ = ecx

; 37   : 		{

	mov	eax, ecx
	mov	ecx, DWORD PTR _source$[esp-4]
	mov	edx, DWORD PTR [ecx]
	mov	DWORD PTR [eax], edx
	mov	ecx, DWORD PTR [ecx+4]
	mov	DWORD PTR [eax+4], ecx

; 38   : 		}

	ret	4
??0WeightedElement@?$CvWeightedVector@H$00$0A@@@QAE@ABU01@@Z ENDP ; CvWeightedVector<int,1,0>::WeightedElement::WeightedElement
_TEXT	ENDS
PUBLIC	??_GVoteCommitment@CvLeagueAI@@QAEPAXI@Z	; CvLeagueAI::VoteCommitment::`scalar deleting destructor'
EXTRN	??3@YAXPAX@Z:PROC				; operator delete
EXTRN	??1VoteCommitment@CvLeagueAI@@QAE@XZ:PROC	; CvLeagueAI::VoteCommitment::~VoteCommitment
; Function compile flags: /Ogtpy
;	COMDAT ??_GVoteCommitment@CvLeagueAI@@QAEPAXI@Z
_TEXT	SEGMENT
___flags$ = 8						; size = 4
??_GVoteCommitment@CvLeagueAI@@QAEPAXI@Z PROC		; CvLeagueAI::VoteCommitment::`scalar deleting destructor', COMDAT
; _this$ = ecx
	push	esi
	mov	esi, ecx
	call	??1VoteCommitment@CvLeagueAI@@QAE@XZ	; CvLeagueAI::VoteCommitment::~VoteCommitment
	test	BYTE PTR ___flags$[esp], 1
	je	SHORT $LN4@scalar
	push	esi
	call	??3@YAXPAX@Z				; operator delete
	add	esp, 4
$LN4@scalar:
	mov	eax, esi
	pop	esi
	ret	4
??_GVoteCommitment@CvLeagueAI@@QAEPAXI@Z ENDP		; CvLeagueAI::VoteCommitment::`scalar deleting destructor'
_TEXT	ENDS
PUBLIC	??0base_iterator_tail@?$FCustomList_Core@U?$MultiListNodePolicy@UCvTradedItem@@@@V?$FFastAllocator@U?$MultiListNodePolicy@UCvTradedItem@@@@$0A@$0BF@$0A@UFDefaultFastVectorAllocator@?$BaseVector@U?$MultiListNodePolicy@UCvTradedItem@@@@$0A@@@@@V?$FCustomList_Tail_Member@V?$FFastAllocator@U?$MultiListNodePolicy@UCvTradedItem@@@@$0A@$0BF@$0A@UFDefaultFastVectorAllocator@?$BaseVector@U?$MultiListNodePolicy@UCvTradedItem@@@@$0A@@@@@@@@@QAE@PAV1@@Z ; FCustomList_Core<MultiListNodePolicy<CvTradedItem>,FFastAllocator<MultiListNodePolicy<CvTradedItem>,0,21,0,BaseVector<MultiListNodePolicy<CvTradedItem>,0>::FDefaultFastVectorAllocator>,FCustomList_Tail_Member<FFastAllocator<MultiListNodePolicy<CvTradedItem>,0,21,0,BaseVector<MultiListNodePolicy<CvTradedItem>,0>::FDefaultFastVectorAllocator> > >::base_iterator_tail::base_iterator_tail
; Function compile flags: /Ogtpy
; File c:\users\enormousapplepie\desktop\lekmod files\lekmod dll versions\v29\lekmod_dll\fireplace\include\fireworks\ffastlist.h
;	COMDAT ??0base_iterator_tail@?$FCustomList_Core@U?$MultiListNodePolicy@UCvTradedItem@@@@V?$FFastAllocator@U?$MultiListNodePolicy@UCvTradedItem@@@@$0A@$0BF@$0A@UFDefaultFastVectorAllocator@?$BaseVector@U?$MultiListNodePolicy@UCvTradedItem@@@@$0A@@@@@V?$FCustomList_Tail_Member@V?$FFastAllocator@U?$MultiListNodePolicy@UCvTradedItem@@@@$0A@$0BF@$0A@UFDefaultFastVectorAllocator@?$BaseVector@U?$MultiListNodePolicy@UCvTradedItem@@@@$0A@@@@@@@@@QAE@PAV1@@Z
_TEXT	SEGMENT
_pFastList$ = 8						; size = 4
??0base_iterator_tail@?$FCustomList_Core@U?$MultiListNodePolicy@UCvTradedItem@@@@V?$FFastAllocator@U?$MultiListNodePolicy@UCvTradedItem@@@@$0A@$0BF@$0A@UFDefaultFastVectorAllocator@?$BaseVector@U?$MultiListNodePolicy@UCvTradedItem@@@@$0A@@@@@V?$FCustomList_Tail_Member@V?$FFastAllocator@U?$MultiListNodePolicy@UCvTradedItem@@@@$0A@$0BF@$0A@UFDefaultFastVectorAllocator@?$BaseVector@U?$MultiListNodePolicy@UCvTradedItem@@@@$0A@@@@@@@@@QAE@PAV1@@Z PROC ; FCustomList_Core<MultiListNodePolicy<CvTradedItem>,FFastAllocator<MultiListNodePolicy<CvTradedItem>,0,21,0,BaseVector<MultiListNodePolicy<CvTradedItem>,0>::FDefaultFastVectorAllocator>,FCustomList_Tail_Member<FFastAllocator<MultiListNodePolicy<CvTradedItem>,0,21,0,BaseVector<MultiListNodePolicy<CvTradedItem>,0>::FDefaultFastVectorAllocator> > >::base_iterator_tail::base_iterator_tail, COMDAT
; _this$ = ecx

; 278  : 		base_iterator_tail( TYPE* pFastList ) : m_pFastList( pFastList ) {};

	mov	eax, ecx
	mov	ecx, DWORD PTR _pFastList$[esp-4]
	mov	DWORD PTR [eax], ecx
	ret	4
??0base_iterator_tail@?$FCustomList_Core@U?$MultiListNodePolicy@UCvTradedItem@@@@V?$FFastAllocator@U?$MultiListNodePolicy@UCvTradedItem@@@@$0A@$0BF@$0A@UFDefaultFastVectorAllocator@?$BaseVector@U?$MultiListNodePolicy@UCvTradedItem@@@@$0A@@@@@V?$FCustomList_Tail_Member@V?$FFastAllocator@U?$MultiListNodePolicy@UCvTradedItem@@@@$0A@$0BF@$0A@UFDefaultFastVectorAllocator@?$BaseVector@U?$MultiListNodePolicy@UCvTradedItem@@@@$0A@@@@@@@@@QAE@PAV1@@Z ENDP ; FCustomList_Core<MultiListNodePolicy<CvTradedItem>,FFastAllocator<MultiListNodePolicy<CvTradedItem>,0,21,0,BaseVector<MultiListNodePolicy<CvTradedItem>,0>::FDefaultFastVectorAllocator>,FCustomList_Tail_Member<FFastAllocator<MultiListNodePolicy<CvTradedItem>,0,21,0,BaseVector<MultiListNodePolicy<CvTradedItem>,0>::FDefaultFastVectorAllocator> > >::base_iterator_tail::base_iterator_tail
_TEXT	ENDS
PUBLIC	?Destroy@?$BaseVector@UWeightedElement@?$CvWeightedVector@H$00$0A@@@$0A@@@IAEXPAUWeightedElement@?$CvWeightedVector@H$00$0A@@@I@Z ; BaseVector<CvWeightedVector<int,1,0>::WeightedElement,0>::Destroy
; Function compile flags: /Ogtpy
; File c:\users\enormousapplepie\desktop\lekmod files\lekmod dll versions\v29\lekmod_dll\fireplace\include\fireworks\ffastvector.h
;	COMDAT ?Destroy@?$BaseVector@UWeightedElement@?$CvWeightedVector@H$00$0A@@@$0A@@@IAEXPAUWeightedElement@?$CvWeightedVector@H$00$0A@@@I@Z
_TEXT	SEGMENT
_pVal$ = 8						; size = 4
_uiNumElements$ = 12					; size = 4
?Destroy@?$BaseVector@UWeightedElement@?$CvWeightedVector@H$00$0A@@@$0A@@@IAEXPAUWeightedElement@?$CvWeightedVector@H$00$0A@@@I@Z PROC ; BaseVector<CvWeightedVector<int,1,0>::WeightedElement,0>::Destroy, COMDAT
; _this$ = ecx

; 221  : 		if( !bPODType){
; 222  : 			for(unsigned int i = 0; i < uiNumElements; ++i){
; 223  : 				pVal[i].~T();
; 224  : 			}
; 225  : 		}
; 226  : 	};

	ret	8
?Destroy@?$BaseVector@UWeightedElement@?$CvWeightedVector@H$00$0A@@@$0A@@@IAEXPAUWeightedElement@?$CvWeightedVector@H$00$0A@@@I@Z ENDP ; BaseVector<CvWeightedVector<int,1,0>::WeightedElement,0>::Destroy
_TEXT	ENDS
PUBLIC	??$max@H@std@@YAABHABH0@Z			; std::max<int>
; Function compile flags: /Ogtpy
; File c:\program files (x86)\microsoft visual studio 9.0\vc\include\xutility
;	COMDAT ??$max@H@std@@YAABHABH0@Z
_TEXT	SEGMENT
__Left$ = 8						; size = 4
__Right$ = 12						; size = 4
??$max@H@std@@YAABHABH0@Z PROC				; std::max<int>, COMDAT

; 3384 : 	return (_DEBUG_LT(_Left, _Right) ? _Right : _Left);

	mov	eax, DWORD PTR __Left$[esp-4]
	mov	edx, DWORD PTR [eax]
	mov	ecx, DWORD PTR __Right$[esp-4]
	cmp	edx, DWORD PTR [ecx]
	jge	SHORT $LN4@max
	mov	eax, ecx
$LN4@max:

; 3385 : 	}

	ret	0
??$max@H@std@@YAABHABH0@Z ENDP				; std::max<int>
_TEXT	ENDS
PUBLIC	??$min@H@std@@YAABHABH0@Z			; std::min<int>
; Function compile flags: /Ogtpy
;	COMDAT ??$min@H@std@@YAABHABH0@Z
_TEXT	SEGMENT
__Left$ = 8						; size = 4
__Right$ = 12						; size = 4
??$min@H@std@@YAABHABH0@Z PROC				; std::min<int>, COMDAT

; 3399 : 	return (_DEBUG_LT(_Right, _Left) ? _Right : _Left);

	mov	eax, DWORD PTR __Right$[esp-4]
	mov	edx, DWORD PTR [eax]
	mov	ecx, DWORD PTR __Left$[esp-4]
	cmp	edx, DWORD PTR [ecx]
	jl	SHORT $LN4@min
	mov	eax, ecx
$LN4@min:

; 3400 : 	}

	ret	0
??$min@H@std@@YAABHABH0@Z ENDP				; std::min<int>
_TEXT	ENDS
PUBLIC	??$min@W4PeaceTreatyTypes@@@std@@YAABW4PeaceTreatyTypes@@ABW41@0@Z ; std::min<enum PeaceTreatyTypes>
; Function compile flags: /Ogtpy
;	COMDAT ??$min@W4PeaceTreatyTypes@@@std@@YAABW4PeaceTreatyTypes@@ABW41@0@Z
_TEXT	SEGMENT
__Left$ = 8						; size = 4
__Right$ = 12						; size = 4
??$min@W4PeaceTreatyTypes@@@std@@YAABW4PeaceTreatyTypes@@ABW41@0@Z PROC ; std::min<enum PeaceTreatyTypes>, COMDAT

; 3399 : 	return (_DEBUG_LT(_Right, _Left) ? _Right : _Left);

	mov	eax, DWORD PTR __Right$[esp-4]
	mov	edx, DWORD PTR [eax]
	mov	ecx, DWORD PTR __Left$[esp-4]
	cmp	edx, DWORD PTR [ecx]
	jl	SHORT $LN4@min@2
	mov	eax, ecx
$LN4@min@2:

; 3400 : 	}

	ret	0
??$min@W4PeaceTreatyTypes@@@std@@YAABW4PeaceTreatyTypes@@ABW41@0@Z ENDP ; std::min<enum PeaceTreatyTypes>
_TEXT	ENDS
PUBLIC	??0?$auto_ptr_ref@VICvDeal1@@@std@@QAE@PAVICvDeal1@@@Z ; std::auto_ptr_ref<ICvDeal1>::auto_ptr_ref<ICvDeal1>
; Function compile flags: /Ogtpy
; File c:\program files (x86)\microsoft visual studio 9.0\vc\include\memory
;	COMDAT ??0?$auto_ptr_ref@VICvDeal1@@@std@@QAE@PAVICvDeal1@@@Z
_TEXT	SEGMENT
__Right$ = 8						; size = 4
??0?$auto_ptr_ref@VICvDeal1@@@std@@QAE@PAVICvDeal1@@@Z PROC ; std::auto_ptr_ref<ICvDeal1>::auto_ptr_ref<ICvDeal1>, COMDAT
; _this$ = ecx

; 647  : 		{	// construct from generic pointer to auto_ptr ptr

	mov	eax, ecx
	mov	ecx, DWORD PTR __Right$[esp-4]
	mov	DWORD PTR [eax], ecx

; 648  : 		}

	ret	4
??0?$auto_ptr_ref@VICvDeal1@@@std@@QAE@PAVICvDeal1@@@Z ENDP ; std::auto_ptr_ref<ICvDeal1>::auto_ptr_ref<ICvDeal1>
_TEXT	ENDS
PUBLIC	??MWeightedElement@?$CvWeightedVector@H$00$0A@@@QBE_NABU01@@Z ; CvWeightedVector<int,1,0>::WeightedElement::operator<
; Function compile flags: /Ogtpy
; File c:\users\enormousapplepie\desktop\lekmod files\lekmod dll versions\v29\lekmod_dll\cvgamecoredllutil\include\cvweightedvector.h
;	COMDAT ??MWeightedElement@?$CvWeightedVector@H$00$0A@@@QBE_NABU01@@Z
_TEXT	SEGMENT
_b2$ = 8						; size = 4
??MWeightedElement@?$CvWeightedVector@H$00$0A@@@QBE_NABU01@@Z PROC ; CvWeightedVector<int,1,0>::WeightedElement::operator<, COMDAT
; _this$ = ecx

; 45   : 			// Reverse of the normal direction because we want highest weight first in our list
; 46   : 			return m_iWeight > b2.m_iWeight;

	mov	eax, DWORD PTR [ecx+4]
	mov	edx, DWORD PTR _b2$[esp-4]
	xor	ecx, ecx
	cmp	eax, DWORD PTR [edx+4]
	setg	cl
	mov	al, cl

; 47   : 		};

	ret	4
??MWeightedElement@?$CvWeightedVector@H$00$0A@@@QBE_NABU01@@Z ENDP ; CvWeightedVector<int,1,0>::WeightedElement::operator<
_TEXT	ENDS
PUBLIC	??0?$pair@PAUWeightedElement@?$CvWeightedVector@H$00$0A@@@PAU12@@std@@QAE@ABQAUWeightedElement@?$CvWeightedVector@H$00$0A@@@0@Z ; std::pair<CvWeightedVector<int,1,0>::WeightedElement *,CvWeightedVector<int,1,0>::WeightedElement *>::pair<CvWeightedVector<int,1,0>::WeightedElement *,CvWeightedVector<int,1,0>::WeightedElement *>
; Function compile flags: /Ogtpy
; File c:\program files (x86)\microsoft visual studio 9.0\vc\include\utility
;	COMDAT ??0?$pair@PAUWeightedElement@?$CvWeightedVector@H$00$0A@@@PAU12@@std@@QAE@ABQAUWeightedElement@?$CvWeightedVector@H$00$0A@@@0@Z
_TEXT	SEGMENT
__Val1$ = 8						; size = 4
__Val2$ = 12						; size = 4
??0?$pair@PAUWeightedElement@?$CvWeightedVector@H$00$0A@@@PAU12@@std@@QAE@ABQAUWeightedElement@?$CvWeightedVector@H$00$0A@@@0@Z PROC ; std::pair<CvWeightedVector<int,1,0>::WeightedElement *,CvWeightedVector<int,1,0>::WeightedElement *>::pair<CvWeightedVector<int,1,0>::WeightedElement *,CvWeightedVector<int,1,0>::WeightedElement *>, COMDAT
; _this$ = ecx

; 50   : 		{	// construct from specified values

	mov	eax, ecx
	mov	ecx, DWORD PTR __Val1$[esp-4]
	mov	edx, DWORD PTR [ecx]
	mov	ecx, DWORD PTR __Val2$[esp-4]
	mov	DWORD PTR [eax], edx
	mov	edx, DWORD PTR [ecx]
	mov	DWORD PTR [eax+4], edx

; 51   : 		}

	ret	8
??0?$pair@PAUWeightedElement@?$CvWeightedVector@H$00$0A@@@PAU12@@std@@QAE@ABQAUWeightedElement@?$CvWeightedVector@H$00$0A@@@0@Z ENDP ; std::pair<CvWeightedVector<int,1,0>::WeightedElement *,CvWeightedVector<int,1,0>::WeightedElement *>::pair<CvWeightedVector<int,1,0>::WeightedElement *,CvWeightedVector<int,1,0>::WeightedElement *>
_TEXT	ENDS
PUBLIC	??$_Dist_type@PAUWeightedElement@?$CvWeightedVector@H$00$0A@@@@std@@YAPAHPAUWeightedElement@?$CvWeightedVector@H$00$0A@@@@Z ; std::_Dist_type<CvWeightedVector<int,1,0>::WeightedElement *>
; Function compile flags: /Ogtpy
; File c:\program files (x86)\microsoft visual studio 9.0\vc\include\xutility
;	COMDAT ??$_Dist_type@PAUWeightedElement@?$CvWeightedVector@H$00$0A@@@@std@@YAPAHPAUWeightedElement@?$CvWeightedVector@H$00$0A@@@@Z
_TEXT	SEGMENT
___formal$ = 8						; size = 4
??$_Dist_type@PAUWeightedElement@?$CvWeightedVector@H$00$0A@@@@std@@YAPAHPAUWeightedElement@?$CvWeightedVector@H$00$0A@@@@Z PROC ; std::_Dist_type<CvWeightedVector<int,1,0>::WeightedElement *>, COMDAT

; 1831 : 	return (0);

	xor	eax, eax

; 1832 : 	}

	ret	0
??$_Dist_type@PAUWeightedElement@?$CvWeightedVector@H$00$0A@@@@std@@YAPAHPAUWeightedElement@?$CvWeightedVector@H$00$0A@@@@Z ENDP ; std::_Dist_type<CvWeightedVector<int,1,0>::WeightedElement *>
_TEXT	ENDS
PUBLIC	??$_Val_type@PAUWeightedElement@?$CvWeightedVector@H$00$0A@@@@std@@YAPAUWeightedElement@?$CvWeightedVector@H$00$0A@@@PAU12@@Z ; std::_Val_type<CvWeightedVector<int,1,0>::WeightedElement *>
; Function compile flags: /Ogtpy
;	COMDAT ??$_Val_type@PAUWeightedElement@?$CvWeightedVector@H$00$0A@@@@std@@YAPAUWeightedElement@?$CvWeightedVector@H$00$0A@@@PAU12@@Z
_TEXT	SEGMENT
___formal$ = 8						; size = 4
??$_Val_type@PAUWeightedElement@?$CvWeightedVector@H$00$0A@@@@std@@YAPAUWeightedElement@?$CvWeightedVector@H$00$0A@@@PAU12@@Z PROC ; std::_Val_type<CvWeightedVector<int,1,0>::WeightedElement *>, COMDAT

; 1766 : 	return (0);

	xor	eax, eax

; 1767 : 	}

	ret	0
??$_Val_type@PAUWeightedElement@?$CvWeightedVector@H$00$0A@@@@std@@YAPAUWeightedElement@?$CvWeightedVector@H$00$0A@@@PAU12@@Z ENDP ; std::_Val_type<CvWeightedVector<int,1,0>::WeightedElement *>
_TEXT	ENDS
PUBLIC	??$swap@UWeightedElement@?$CvWeightedVector@H$00$0A@@@@std@@YAXAAUWeightedElement@?$CvWeightedVector@H$00$0A@@@0@Z ; std::swap<CvWeightedVector<int,1,0>::WeightedElement>
; Function compile flags: /Ogtpy
; File c:\program files (x86)\microsoft visual studio 9.0\vc\include\utility
;	COMDAT ??$swap@UWeightedElement@?$CvWeightedVector@H$00$0A@@@@std@@YAXAAUWeightedElement@?$CvWeightedVector@H$00$0A@@@0@Z
_TEXT	SEGMENT
__Left$ = 8						; size = 4
__Right$ = 12						; size = 4
??$swap@UWeightedElement@?$CvWeightedVector@H$00$0A@@@@std@@YAXAAUWeightedElement@?$CvWeightedVector@H$00$0A@@@0@Z PROC ; std::swap<CvWeightedVector<int,1,0>::WeightedElement>, COMDAT

; 18   : 	if (&_Left != &_Right)

	mov	eax, DWORD PTR __Left$[esp-4]
	mov	ecx, DWORD PTR __Right$[esp-4]
	cmp	eax, ecx
	je	SHORT $LN1@swap

; 19   : 		{	// different, worth swapping
; 20   : 		_Ty _Tmp = _Left;

	mov	edx, DWORD PTR [eax]
	push	esi
	mov	esi, DWORD PTR [eax+4]
	push	edi

; 21   : 
; 22   : 		_Left = _Right;

	mov	edi, DWORD PTR [ecx]
	mov	DWORD PTR [eax], edi
	mov	edi, DWORD PTR [ecx+4]
	mov	DWORD PTR [eax+4], edi
	pop	edi

; 23   : 		_Right = _Tmp;

	mov	DWORD PTR [ecx+4], esi
	mov	DWORD PTR [ecx], edx
	pop	esi
$LN1@swap:

; 24   : 		}
; 25   : 	}

	ret	0
??$swap@UWeightedElement@?$CvWeightedVector@H$00$0A@@@@std@@YAXAAUWeightedElement@?$CvWeightedVector@H$00$0A@@@0@Z ENDP ; std::swap<CvWeightedVector<int,1,0>::WeightedElement>
_TEXT	ENDS
PUBLIC	??$_Push_heap@PAUWeightedElement@?$CvWeightedVector@H$00$0A@@@HU12@@std@@YAXPAUWeightedElement@?$CvWeightedVector@H$00$0A@@@HHU12@@Z ; std::_Push_heap<CvWeightedVector<int,1,0>::WeightedElement *,int,CvWeightedVector<int,1,0>::WeightedElement>
; Function compile flags: /Ogtpy
; File c:\program files (x86)\microsoft visual studio 9.0\vc\include\algorithm
;	COMDAT ??$_Push_heap@PAUWeightedElement@?$CvWeightedVector@H$00$0A@@@HU12@@std@@YAXPAUWeightedElement@?$CvWeightedVector@H$00$0A@@@HHU12@@Z
_TEXT	SEGMENT
__First$ = 8						; size = 4
__Hole$ = 12						; size = 4
__Top$ = 16						; size = 4
__Val$ = 20						; size = 8
??$_Push_heap@PAUWeightedElement@?$CvWeightedVector@H$00$0A@@@HU12@@std@@YAXPAUWeightedElement@?$CvWeightedVector@H$00$0A@@@HHU12@@Z PROC ; std::_Push_heap<CvWeightedVector<int,1,0>::WeightedElement *,int,CvWeightedVector<int,1,0>::WeightedElement>, COMDAT

; 1973 : 	for (_Diff _Idx = (_Hole - 1) / 2;

	mov	ecx, DWORD PTR __Hole$[esp-4]
	push	ebx

; 1974 : 		_Top < _Hole && _DEBUG_LT(*(_First + _Idx), _Val);
; 1975 : 		_Idx = (_Hole - 1) / 2)

	mov	ebx, DWORD PTR __Val$[esp+4]
	lea	eax, DWORD PTR [ecx-1]
	cdq
	push	esi
	mov	esi, DWORD PTR __First$[esp+4]
	sub	eax, edx
	push	edi
	mov	edi, DWORD PTR __Top$[esp+8]
	sar	eax, 1
	cmp	edi, ecx
	jge	SHORT $LN1@Push_heap
	npad	1
$LL3@Push_heap:
	cmp	DWORD PTR [esi+eax*8+4], ebx
	jle	SHORT $LN1@Push_heap

; 1976 : 		{	// move _Hole up to parent
; 1977 : 		*(_First + _Hole) = *(_First + _Idx);

	mov	edx, DWORD PTR [esi+eax*8]
	mov	DWORD PTR [esi+ecx*8], edx
	mov	edx, DWORD PTR [esi+eax*8+4]
	mov	DWORD PTR [esi+ecx*8+4], edx

; 1978 : 		_Hole = _Idx;

	mov	ecx, eax
	dec	eax
	cdq
	sub	eax, edx
	sar	eax, 1
	cmp	edi, ecx
	jl	SHORT $LL3@Push_heap
$LN1@Push_heap:

; 1979 : 		}
; 1980 : 
; 1981 : 	*(_First + _Hole) = _Val;	// drop _Val into final hole

	mov	eax, DWORD PTR __Val$[esp+8]
	pop	edi
	mov	DWORD PTR [esi+ecx*8+4], ebx
	mov	DWORD PTR [esi+ecx*8], eax
	pop	esi
	pop	ebx

; 1982 : 	}

	ret	0
??$_Push_heap@PAUWeightedElement@?$CvWeightedVector@H$00$0A@@@HU12@@std@@YAXPAUWeightedElement@?$CvWeightedVector@H$00$0A@@@HHU12@@Z ENDP ; std::_Push_heap<CvWeightedVector<int,1,0>::WeightedElement *,int,CvWeightedVector<int,1,0>::WeightedElement>
_TEXT	ENDS
PUBLIC	??$_Iter_random@PAUWeightedElement@?$CvWeightedVector@H$00$0A@@@PAU12@@std@@YA?AUrandom_access_iterator_tag@0@ABQAUWeightedElement@?$CvWeightedVector@H$00$0A@@@0@Z ; std::_Iter_random<CvWeightedVector<int,1,0>::WeightedElement *,CvWeightedVector<int,1,0>::WeightedElement *>
; Function compile flags: /Ogtpy
; File c:\program files (x86)\microsoft visual studio 9.0\vc\include\xutility
;	COMDAT ??$_Iter_random@PAUWeightedElement@?$CvWeightedVector@H$00$0A@@@PAU12@@std@@YA?AUrandom_access_iterator_tag@0@ABQAUWeightedElement@?$CvWeightedVector@H$00$0A@@@0@Z
_TEXT	SEGMENT
___$ReturnUdt$ = 8					; size = 4
___formal$ = 12						; size = 4
___formal$ = 16						; size = 4
??$_Iter_random@PAUWeightedElement@?$CvWeightedVector@H$00$0A@@@PAU12@@std@@YA?AUrandom_access_iterator_tag@0@ABQAUWeightedElement@?$CvWeightedVector@H$00$0A@@@0@Z PROC ; std::_Iter_random<CvWeightedVector<int,1,0>::WeightedElement *,CvWeightedVector<int,1,0>::WeightedElement *>, COMDAT

; 994  : 	typename _Iter_random_helper<
; 995  : 		iterator_traits<_Iter1>::iterator_category, 
; 996  : 		iterator_traits<_Iter2>::iterator_category>::_Iter_random_cat _Cat;
; 997  : 	return (_Cat);

	mov	eax, DWORD PTR ___$ReturnUdt$[esp-4]

; 998  : 	}

	ret	0
??$_Iter_random@PAUWeightedElement@?$CvWeightedVector@H$00$0A@@@PAU12@@std@@YA?AUrandom_access_iterator_tag@0@ABQAUWeightedElement@?$CvWeightedVector@H$00$0A@@@0@Z ENDP ; std::_Iter_random<CvWeightedVector<int,1,0>::WeightedElement *,CvWeightedVector<int,1,0>::WeightedElement *>
_TEXT	ENDS
PUBLIC	??$_Ptr_cat@PAUWeightedElement@?$CvWeightedVector@H$00$0A@@@PAU12@@std@@YA?AU_Nonscalar_ptr_iterator_tag@0@AAPAUWeightedElement@?$CvWeightedVector@H$00$0A@@@0@Z ; std::_Ptr_cat<CvWeightedVector<int,1,0>::WeightedElement *,CvWeightedVector<int,1,0>::WeightedElement *>
; Function compile flags: /Ogtpy
;	COMDAT ??$_Ptr_cat@PAUWeightedElement@?$CvWeightedVector@H$00$0A@@@PAU12@@std@@YA?AU_Nonscalar_ptr_iterator_tag@0@AAPAUWeightedElement@?$CvWeightedVector@H$00$0A@@@0@Z
_TEXT	SEGMENT
__Cat$ = -1						; size = 1
___formal$ = 8						; size = 4
___formal$ = 12						; size = 4
??$_Ptr_cat@PAUWeightedElement@?$CvWeightedVector@H$00$0A@@@PAU12@@std@@YA?AU_Nonscalar_ptr_iterator_tag@0@AAPAUWeightedElement@?$CvWeightedVector@H$00$0A@@@0@Z PROC ; std::_Ptr_cat<CvWeightedVector<int,1,0>::WeightedElement *,CvWeightedVector<int,1,0>::WeightedElement *>, COMDAT

; 1509 : 	{

	push	ecx

; 1510 : 	typename _Ptr_cat_helper<_T1, _T2>::_Ptr_cat _Cat;
; 1511 : 	return (_Cat);

	mov	al, BYTE PTR __Cat$[esp+4]

; 1512 : 	}

	pop	ecx
	ret	0
??$_Ptr_cat@PAUWeightedElement@?$CvWeightedVector@H$00$0A@@@PAU12@@std@@YA?AU_Nonscalar_ptr_iterator_tag@0@AAPAUWeightedElement@?$CvWeightedVector@H$00$0A@@@0@Z ENDP ; std::_Ptr_cat<CvWeightedVector<int,1,0>::WeightedElement *,CvWeightedVector<int,1,0>::WeightedElement *>
_TEXT	ENDS
PUBLIC	??$_Copy_backward_opt@PAUWeightedElement@?$CvWeightedVector@H$00$0A@@@PAU12@Urandom_access_iterator_tag@std@@@std@@YAPAUWeightedElement@?$CvWeightedVector@H$00$0A@@@PAU12@00Urandom_access_iterator_tag@0@U_Nonscalar_ptr_iterator_tag@0@U_Range_checked_iterator_tag@0@@Z ; std::_Copy_backward_opt<CvWeightedVector<int,1,0>::WeightedElement *,CvWeightedVector<int,1,0>::WeightedElement *,std::random_access_iterator_tag>
; Function compile flags: /Ogtpy
;	COMDAT ??$_Copy_backward_opt@PAUWeightedElement@?$CvWeightedVector@H$00$0A@@@PAU12@Urandom_access_iterator_tag@std@@@std@@YAPAUWeightedElement@?$CvWeightedVector@H$00$0A@@@PAU12@00Urandom_access_iterator_tag@0@U_Nonscalar_ptr_iterator_tag@0@U_Range_checked_iterator_tag@0@@Z
_TEXT	SEGMENT
__First$ = 8						; size = 4
__Last$ = 12						; size = 4
__Dest$ = 16						; size = 4
___formal$ = 20						; size = 1
___formal$ = 24						; size = 1
___formal$ = 28						; size = 1
??$_Copy_backward_opt@PAUWeightedElement@?$CvWeightedVector@H$00$0A@@@PAU12@Urandom_access_iterator_tag@std@@@std@@YAPAUWeightedElement@?$CvWeightedVector@H$00$0A@@@PAU12@00Urandom_access_iterator_tag@0@U_Nonscalar_ptr_iterator_tag@0@U_Range_checked_iterator_tag@0@@Z PROC ; std::_Copy_backward_opt<CvWeightedVector<int,1,0>::WeightedElement *,CvWeightedVector<int,1,0>::WeightedElement *,std::random_access_iterator_tag>, COMDAT

; 2674 : 	_DEBUG_RANGE(_First, _Last);
; 2675 : 	while (_First != _Last)

	mov	edx, DWORD PTR __First$[esp-4]
	mov	ecx, DWORD PTR __Last$[esp-4]
	mov	eax, DWORD PTR __Dest$[esp-4]
	cmp	edx, ecx
	je	SHORT $LN1@Copy_backw
	push	esi
$LL2@Copy_backw:

; 2676 : 		*--_Dest = *--_Last;

	mov	esi, DWORD PTR [ecx-8]
	sub	ecx, 8
	sub	eax, 8
	mov	DWORD PTR [eax], esi
	mov	esi, DWORD PTR [ecx+4]
	mov	DWORD PTR [eax+4], esi
	cmp	ecx, edx
	jne	SHORT $LL2@Copy_backw
	pop	esi
$LN1@Copy_backw:

; 2677 : 	return (_Dest);
; 2678 : 	}

	ret	0
??$_Copy_backward_opt@PAUWeightedElement@?$CvWeightedVector@H$00$0A@@@PAU12@Urandom_access_iterator_tag@std@@@std@@YAPAUWeightedElement@?$CvWeightedVector@H$00$0A@@@PAU12@00Urandom_access_iterator_tag@0@U_Nonscalar_ptr_iterator_tag@0@U_Range_checked_iterator_tag@0@@Z ENDP ; std::_Copy_backward_opt<CvWeightedVector<int,1,0>::WeightedElement *,CvWeightedVector<int,1,0>::WeightedElement *,std::random_access_iterator_tag>
_TEXT	ENDS
PUBLIC	?LIST_GetNext@NullMultiListNodePolicy@@QBEIXZ	; NullMultiListNodePolicy::LIST_GetNext
; Function compile flags: /Ogtpy
; File c:\users\enormousapplepie\desktop\lekmod files\lekmod dll versions\v29\lekmod_dll\fireplace\include\fireworks\ffastlist.h
;	COMDAT ?LIST_GetNext@NullMultiListNodePolicy@@QBEIXZ
_TEXT	SEGMENT
?LIST_GetNext@NullMultiListNodePolicy@@QBEIXZ PROC	; NullMultiListNodePolicy::LIST_GetNext, COMDAT
; _this$ = ecx

; 62   : 	unsigned int LIST_GetNext() const{ return node.uiNext; };

	mov	eax, DWORD PTR [ecx]
	ret	0
?LIST_GetNext@NullMultiListNodePolicy@@QBEIXZ ENDP	; NullMultiListNodePolicy::LIST_GetNext
_TEXT	ENDS
PUBLIC	??3ICvUnknown@@SGXPAX@Z				; ICvUnknown::operator delete
; Function compile flags: /Ogtpy
; File c:\users\enormousapplepie\desktop\lekmod files\lekmod dll versions\v29\lekmod_dll\cvgamecoredllutil\include\cvdllinterfaces.h
;	COMDAT ??3ICvUnknown@@SGXPAX@Z
_TEXT	SEGMENT
_p$ = 8							; size = 4
??3ICvUnknown@@SGXPAX@Z PROC				; ICvUnknown::operator delete, COMDAT

; 310  : 		if (p)

	mov	eax, DWORD PTR _p$[esp-4]
	test	eax, eax
	je	SHORT $LN1@operator

; 311  : 		{
; 312  : 			ICvUnknown* inst = (ICvUnknown*)(p);
; 313  : 			inst->Destroy();

	mov	ecx, DWORD PTR [eax]
	mov	edx, DWORD PTR [ecx+4]
	mov	DWORD PTR _p$[esp-4], eax
	jmp	edx
$LN1@operator:

; 314  : 		}
; 315  : 	}

	ret	4
??3ICvUnknown@@SGXPAX@Z ENDP				; ICvUnknown::operator delete
_TEXT	ENDS
PUBLIC	?getMap@CvGlobals@@QAEAAVCvMap@@XZ		; CvGlobals::getMap
; Function compile flags: /Ogtpy
; File c:\users\enormousapplepie\desktop\lekmod files\lekmod dll versions\v29\lekmod_dll\cvgamecoredll_expansion2\cvglobals.h
;	COMDAT ?getMap@CvGlobals@@QAEAAVCvMap@@XZ
_TEXT	SEGMENT
?getMap@CvGlobals@@QAEAAVCvMap@@XZ PROC			; CvGlobals::getMap, COMDAT
; _this$ = ecx

; 175  : 		return *m_map;    // inlined for perf reasons, do not use outside of dll

	mov	eax, DWORD PTR [ecx+52]

; 176  : 	}

	ret	0
?getMap@CvGlobals@@QAEAAVCvMap@@XZ ENDP			; CvGlobals::getMap
_TEXT	ENDS
PUBLIC	?getGame@CvGlobals@@QAEAAVCvGame@@XZ		; CvGlobals::getGame
; Function compile flags: /Ogtpy
;	COMDAT ?getGame@CvGlobals@@QAEAAVCvGame@@XZ
_TEXT	SEGMENT
?getGame@CvGlobals@@QAEAAVCvGame@@XZ PROC		; CvGlobals::getGame, COMDAT
; _this$ = ecx

; 183  : 		return *m_game;    // inlined for perf reasons, do not use outside of dll

	mov	eax, DWORD PTR [ecx+48]

; 184  : 	}

	ret	0
?getGame@CvGlobals@@QAEAAVCvGame@@XZ ENDP		; CvGlobals::getGame
_TEXT	ENDS
PUBLIC	?getDEFAULT_FLAVOR_VALUE@CvGlobals@@QAEHXZ	; CvGlobals::getDEFAULT_FLAVOR_VALUE
; Function compile flags: /Ogtpy
;	COMDAT ?getDEFAULT_FLAVOR_VALUE@CvGlobals@@QAEHXZ
_TEXT	SEGMENT
?getDEFAULT_FLAVOR_VALUE@CvGlobals@@QAEHXZ PROC		; CvGlobals::getDEFAULT_FLAVOR_VALUE, COMDAT
; _this$ = ecx

; 929  : 		return m_iDEFAULT_FLAVOR_VALUE;

	mov	eax, DWORD PTR [ecx+1864]

; 930  : 	}

	ret	0
?getDEFAULT_FLAVOR_VALUE@CvGlobals@@QAEHXZ ENDP		; CvGlobals::getDEFAULT_FLAVOR_VALUE
_TEXT	ENDS
PUBLIC	?getARMISTICE_GPT_DIVISOR@CvGlobals@@QAEHXZ	; CvGlobals::getARMISTICE_GPT_DIVISOR
; Function compile flags: /Ogtpy
;	COMDAT ?getARMISTICE_GPT_DIVISOR@CvGlobals@@QAEHXZ
_TEXT	SEGMENT
?getARMISTICE_GPT_DIVISOR@CvGlobals@@QAEHXZ PROC	; CvGlobals::getARMISTICE_GPT_DIVISOR, COMDAT
; _this$ = ecx

; 4101 : 		return m_iARMISTICE_GPT_DIVISOR;

	mov	eax, DWORD PTR [ecx+5028]

; 4102 : 	}

	ret	0
?getARMISTICE_GPT_DIVISOR@CvGlobals@@QAEHXZ ENDP	; CvGlobals::getARMISTICE_GPT_DIVISOR
_TEXT	ENDS
PUBLIC	?getEACH_GOLD_VALUE_PERCENT@CvGlobals@@QAEHXZ	; CvGlobals::getEACH_GOLD_VALUE_PERCENT
; Function compile flags: /Ogtpy
;	COMDAT ?getEACH_GOLD_VALUE_PERCENT@CvGlobals@@QAEHXZ
_TEXT	SEGMENT
?getEACH_GOLD_VALUE_PERCENT@CvGlobals@@QAEHXZ PROC	; CvGlobals::getEACH_GOLD_VALUE_PERCENT, COMDAT
; _this$ = ecx

; 5141 : 		return m_iEACH_GOLD_VALUE_PERCENT;

	mov	eax, DWORD PTR [ecx+6068]

; 5142 : 	}

	ret	0
?getEACH_GOLD_VALUE_PERCENT@CvGlobals@@QAEHXZ ENDP	; CvGlobals::getEACH_GOLD_VALUE_PERCENT
_TEXT	ENDS
PUBLIC	?getEACH_GOLD_PER_TURN_VALUE_PERCENT@CvGlobals@@QAEHXZ ; CvGlobals::getEACH_GOLD_PER_TURN_VALUE_PERCENT
; Function compile flags: /Ogtpy
;	COMDAT ?getEACH_GOLD_PER_TURN_VALUE_PERCENT@CvGlobals@@QAEHXZ
_TEXT	SEGMENT
?getEACH_GOLD_PER_TURN_VALUE_PERCENT@CvGlobals@@QAEHXZ PROC ; CvGlobals::getEACH_GOLD_PER_TURN_VALUE_PERCENT, COMDAT
; _this$ = ecx

; 5145 : 		return m_iEACH_GOLD_PER_TURN_VALUE_PERCENT;

	mov	eax, DWORD PTR [ecx+6072]

; 5146 : 	}

	ret	0
?getEACH_GOLD_PER_TURN_VALUE_PERCENT@CvGlobals@@QAEHXZ ENDP ; CvGlobals::getEACH_GOLD_PER_TURN_VALUE_PERCENT
_TEXT	ENDS
PUBLIC	?getSTANDARD_GAMESPEED@CvGlobals@@QAEHXZ	; CvGlobals::getSTANDARD_GAMESPEED
; Function compile flags: /Ogtpy
;	COMDAT ?getSTANDARD_GAMESPEED@CvGlobals@@QAEHXZ
_TEXT	SEGMENT
?getSTANDARD_GAMESPEED@CvGlobals@@QAEHXZ PROC		; CvGlobals::getSTANDARD_GAMESPEED, COMDAT
; _this$ = ecx

; 7247 : 		return m_iSTANDARD_GAMESPEED;

	mov	eax, DWORD PTR [ecx+8464]

; 7248 : 	}

	ret	0
?getSTANDARD_GAMESPEED@CvGlobals@@QAEHXZ ENDP		; CvGlobals::getSTANDARD_GAMESPEED
_TEXT	ENDS
PUBLIC	?getDLLIFace@CvGlobals@@QAEPAVICvEngineUtility4@@XZ ; CvGlobals::getDLLIFace
; Function compile flags: /Ogtpy
;	COMDAT ?getDLLIFace@CvGlobals@@QAEPAVICvEngineUtility4@@XZ
_TEXT	SEGMENT
?getDLLIFace@CvGlobals@@QAEPAVICvEngineUtility4@@XZ PROC ; CvGlobals::getDLLIFace, COMDAT
; _this$ = ecx

; 7703 : 		return m_pDLL;

	mov	eax, DWORD PTR [ecx+8564]

; 7704 : 	}

	ret	0
?getDLLIFace@CvGlobals@@QAEPAVICvEngineUtility4@@XZ ENDP ; CvGlobals::getDLLIFace
_TEXT	ENDS
PUBLIC	?GetEngineUserInterface@CvGlobals@@QAEPAVICvUserInterface2@@XZ ; CvGlobals::GetEngineUserInterface
; Function compile flags: /Ogtpy
;	COMDAT ?GetEngineUserInterface@CvGlobals@@QAEPAVICvUserInterface2@@XZ
_TEXT	SEGMENT
?GetEngineUserInterface@CvGlobals@@QAEPAVICvUserInterface2@@XZ PROC ; CvGlobals::GetEngineUserInterface, COMDAT
; _this$ = ecx

; 7713 : 		return m_pEngineUI;

	mov	eax, DWORD PTR [ecx+8568]

; 7714 : 	}

	ret	0
?GetEngineUserInterface@CvGlobals@@QAEPAVICvUserInterface2@@XZ ENDP ; CvGlobals::GetEngineUserInterface
_TEXT	ENDS
PUBLIC	?getPlayer@CvPlayerAI@@SAAAV1@W4PlayerTypes@@@Z	; CvPlayerAI::getPlayer
EXTRN	?m_aPlayers@CvPlayerAI@@1PAV1@A:DWORD		; CvPlayerAI::m_aPlayers
; Function compile flags: /Ogtpy
; File c:\users\enormousapplepie\desktop\lekmod files\lekmod dll versions\v29\lekmod_dll\cvgamecoredll_expansion2\cvplayerai.h
;	COMDAT ?getPlayer@CvPlayerAI@@SAAAV1@W4PlayerTypes@@@Z
_TEXT	SEGMENT
_ePlayer$ = 8						; size = 4
?getPlayer@CvPlayerAI@@SAAAV1@W4PlayerTypes@@@Z PROC	; CvPlayerAI::getPlayer, COMDAT

; 28   : 		CvAssertMsg(ePlayer != NO_PLAYER, "Player is not assigned a valid value");
; 29   : 		CvAssertMsg(ePlayer < MAX_PLAYERS, "Player is not assigned a valid value");
; 30   : 		return m_aPlayers[ePlayer];

	mov	eax, DWORD PTR _ePlayer$[esp-4]
	imul	eax, 63236				; 0000f704H
	add	eax, DWORD PTR ?m_aPlayers@CvPlayerAI@@1PAV1@A ; CvPlayerAI::m_aPlayers

; 31   : 	}

	ret	0
?getPlayer@CvPlayerAI@@SAAAV1@W4PlayerTypes@@@Z ENDP	; CvPlayerAI::getPlayer
_TEXT	ENDS
PUBLIC	?getPlotCity@CvPlot@@QBEPAVCvCity@@XZ		; CvPlot::getPlotCity
EXTRN	?getCity@CvPlayer@@QAEPAVCvCity@@H@Z:PROC	; CvPlayer::getCity
; Function compile flags: /Ogtpy
; File c:\users\enormousapplepie\desktop\lekmod files\lekmod dll versions\v29\lekmod_dll\cvgamecoredll_expansion2\cvplot.h
;	COMDAT ?getPlotCity@CvPlot@@QBEPAVCvCity@@XZ
_TEXT	SEGMENT
?getPlotCity@CvPlot@@QBEPAVCvCity@@XZ PROC		; CvPlot::getPlotCity, COMDAT
; _this$ = ecx

; 533  : 		if((m_plotCity.eOwner >= 0) && m_plotCity.eOwner < MAX_PLAYERS)

	mov	eax, DWORD PTR [ecx+104]
	test	eax, eax
	jl	SHORT $LN1@getPlotCit
	cmp	eax, 64					; 00000040H
	jge	SHORT $LN1@getPlotCit

; 534  : 			return (GET_PLAYER((PlayerTypes)m_plotCity.eOwner).getCity(m_plotCity.iID));

	mov	ecx, DWORD PTR [ecx+108]
	imul	eax, 63236				; 0000f704H
	add	eax, DWORD PTR ?m_aPlayers@CvPlayerAI@@1PAV1@A ; CvPlayerAI::m_aPlayers
	push	ecx
	mov	ecx, eax
	call	?getCity@CvPlayer@@QAEPAVCvCity@@H@Z	; CvPlayer::getCity

; 537  : 	}

	ret	0
$LN1@getPlotCit:

; 535  : 
; 536  : 		return NULL;

	xor	eax, eax

; 537  : 	}

	ret	0
?getPlotCity@CvPlot@@QBEPAVCvCity@@XZ ENDP		; CvPlot::getPlotCity
_TEXT	ENDS
PUBLIC	?coordRange@@YAHHH_N@Z				; coordRange
; Function compile flags: /Ogtpy
; File c:\users\enormousapplepie\desktop\lekmod files\lekmod dll versions\v29\lekmod_dll\cvgamecoredll_expansion2\cvmap.h
;	COMDAT ?coordRange@@YAHHH_N@Z
_TEXT	SEGMENT
_iCoord$ = 8						; size = 4
_iRange$ = 12						; size = 4
_bWrap$ = 16						; size = 1
?coordRange@@YAHHH_N@Z PROC				; coordRange, COMDAT

; 88   : 	if(bWrap)

	cmp	BYTE PTR _bWrap$[esp-4], 0
	mov	eax, DWORD PTR _iCoord$[esp-4]
	je	SHORT $LN5@coordRange

; 89   : 	{
; 90   : 		if(iCoord < 0)
; 91   : 		{
; 92   : 			return (iRange + (iCoord % iRange));

	mov	ecx, DWORD PTR _iRange$[esp-4]
	test	eax, eax
	jge	SHORT $LN3@coordRange
	cdq
	idiv	ecx
	mov	eax, edx
	add	eax, ecx

; 97   : 		}
; 98   : 	}
; 99   : 
; 100  : 	return iCoord;
; 101  : }

	ret	0
$LN3@coordRange:

; 93   : 		}
; 94   : 		else if(iCoord >= iRange)

	cmp	eax, ecx
	jl	SHORT $LN5@coordRange

; 95   : 		{
; 96   : 			return (iCoord % iRange);

	cdq
	idiv	ecx
	mov	eax, edx
$LN5@coordRange:

; 97   : 		}
; 98   : 	}
; 99   : 
; 100  : 	return iCoord;
; 101  : }

	ret	0
?coordRange@@YAHHH_N@Z ENDP				; coordRange
_TEXT	ENDS
PUBLIC	?getGridWidth@CvMap@@QBEHXZ			; CvMap::getGridWidth
; Function compile flags: /Ogtpy
;	COMDAT ?getGridWidth@CvMap@@QBEHXZ
_TEXT	SEGMENT
?getGridWidth@CvMap@@QBEHXZ PROC			; CvMap::getGridWidth, COMDAT
; _this$ = ecx

; 198  : 		return m_iGridWidth;

	mov	eax, DWORD PTR [ecx+4020]

; 199  : 	}

	ret	0
?getGridWidth@CvMap@@QBEHXZ ENDP			; CvMap::getGridWidth
_TEXT	ENDS
PUBLIC	?getGridHeight@CvMap@@QBEHXZ			; CvMap::getGridHeight
; Function compile flags: /Ogtpy
;	COMDAT ?getGridHeight@CvMap@@QBEHXZ
_TEXT	SEGMENT
?getGridHeight@CvMap@@QBEHXZ PROC			; CvMap::getGridHeight, COMDAT
; _this$ = ecx

; 206  : 		return m_iGridHeight;

	mov	eax, DWORD PTR [ecx+4024]

; 207  : 	}

	ret	0
?getGridHeight@CvMap@@QBEHXZ ENDP			; CvMap::getGridHeight
_TEXT	ENDS
PUBLIC	?isWrapX@CvMap@@QBE_NXZ				; CvMap::isWrapX
; Function compile flags: /Ogtpy
;	COMDAT ?isWrapX@CvMap@@QBE_NXZ
_TEXT	SEGMENT
?isWrapX@CvMap@@QBE_NXZ PROC				; CvMap::isWrapX, COMDAT
; _this$ = ecx

; 228  : 		return m_bWrapX;

	mov	al, BYTE PTR [ecx+4056]

; 229  : 	}

	ret	0
?isWrapX@CvMap@@QBE_NXZ ENDP				; CvMap::isWrapX
_TEXT	ENDS
PUBLIC	?isWrapY@CvMap@@QBE_NXZ				; CvMap::isWrapY
; Function compile flags: /Ogtpy
;	COMDAT ?isWrapY@CvMap@@QBE_NXZ
_TEXT	SEGMENT
?isWrapY@CvMap@@QBE_NXZ PROC				; CvMap::isWrapY, COMDAT
; _this$ = ecx

; 233  : 		return m_bWrapY;

	mov	al, BYTE PTR [ecx+4057]

; 234  : 	}

	ret	0
?isWrapY@CvMap@@QBE_NXZ ENDP				; CvMap::isWrapY
_TEXT	ENDS
PUBLIC	?getTeam@CvTeam@@SAAAV1@W4TeamTypes@@@Z		; CvTeam::getTeam
EXTRN	?m_aTeams@CvTeam@@1PAV1@A:DWORD			; CvTeam::m_aTeams
; Function compile flags: /Ogtpy
; File c:\users\enormousapplepie\desktop\lekmod files\lekmod dll versions\v29\lekmod_dll\cvgamecoredll_expansion2\cvteam.h
;	COMDAT ?getTeam@CvTeam@@SAAAV1@W4TeamTypes@@@Z
_TEXT	SEGMENT
_eTeam$ = 8						; size = 4
?getTeam@CvTeam@@SAAAV1@W4TeamTypes@@@Z PROC		; CvTeam::getTeam, COMDAT

; 29   : 		CvAssertMsg(eTeam != NO_TEAM, "eTeam is not assigned a valid value");
; 30   : 		CvAssertMsg(eTeam < MAX_TEAMS, "eTeam is not assigned a valid value");
; 31   : 		return m_aTeams[eTeam];

	mov	eax, DWORD PTR _eTeam$[esp-4]
	imul	eax, 2980				; 00000ba4H
	add	eax, DWORD PTR ?m_aTeams@CvTeam@@1PAV1@A ; CvTeam::m_aTeams

; 32   : 	}

	ret	0
?getTeam@CvTeam@@SAAAV1@W4TeamTypes@@@Z ENDP		; CvTeam::getTeam
_TEXT	ENDS
PUBLIC	?GetLuxuryHappinessRetention@CvPlayerTraits@@QBEHXZ ; CvPlayerTraits::GetLuxuryHappinessRetention
; Function compile flags: /Ogtpy
; File c:\users\enormousapplepie\desktop\lekmod files\lekmod dll versions\v29\lekmod_dll\cvgamecoredll_expansion2\cvtraitclasses.h
;	COMDAT ?GetLuxuryHappinessRetention@CvPlayerTraits@@QBEHXZ
_TEXT	SEGMENT
?GetLuxuryHappinessRetention@CvPlayerTraits@@QBEHXZ PROC ; CvPlayerTraits::GetLuxuryHappinessRetention, COMDAT
; _this$ = ecx

; 643  : 		return m_iLuxuryHappinessRetention;

	mov	eax, DWORD PTR [ecx+256]

; 644  : 	};

	ret	0
?GetLuxuryHappinessRetention@CvPlayerTraits@@QBEHXZ ENDP ; CvPlayerTraits::GetLuxuryHappinessRetention
_TEXT	ENDS
PUBLIC	??A?$vector@W4TeamTypes@@V?$allocator@W4TeamTypes@@@std@@@std@@QBEABW4TeamTypes@@I@Z ; std::vector<enum TeamTypes,std::allocator<enum TeamTypes> >::operator[]
; Function compile flags: /Ogtpy
; File c:\program files (x86)\microsoft visual studio 9.0\vc\include\vector
;	COMDAT ??A?$vector@W4TeamTypes@@V?$allocator@W4TeamTypes@@@std@@@std@@QBEABW4TeamTypes@@I@Z
_TEXT	SEGMENT
__Pos$ = 8						; size = 4
??A?$vector@W4TeamTypes@@V?$allocator@W4TeamTypes@@@std@@@std@@QBEABW4TeamTypes@@I@Z PROC ; std::vector<enum TeamTypes,std::allocator<enum TeamTypes> >::operator[], COMDAT
; _this$ = ecx

; 760  : 
; 761  :  #if _HAS_ITERATOR_DEBUGGING
; 762  : 		if (size() <= _Pos)
; 763  : 			{
; 764  : 			_DEBUG_ERROR("vector subscript out of range");
; 765  : 			_SCL_SECURE_OUT_OF_RANGE;
; 766  : 			}
; 767  :  #endif /* _HAS_ITERATOR_DEBUGGING */
; 768  : 		_SCL_SECURE_VALIDATE_RANGE(_Pos < size());
; 769  : 
; 770  : 		return (*(_Myfirst + _Pos));

	mov	eax, DWORD PTR [ecx+4]
	mov	ecx, DWORD PTR __Pos$[esp-4]
	lea	eax, DWORD PTR [eax+ecx*4]

; 771  : 		}

	ret	4
??A?$vector@W4TeamTypes@@V?$allocator@W4TeamTypes@@@std@@@std@@QBEABW4TeamTypes@@I@Z ENDP ; std::vector<enum TeamTypes,std::allocator<enum TeamTypes> >::operator[]
_TEXT	ENDS
PUBLIC	??B?$FAutoVariable@HVCvCity@@@@QBEABHXZ		; FAutoVariable<int,CvCity>::operator int const &
; Function compile flags: /Ogtpy
; File c:\users\enormousapplepie\desktop\lekmod files\lekmod dll versions\v29\lekmod_dll\fireplace\include\fireworks\fautovariable.h
;	COMDAT ??B?$FAutoVariable@HVCvCity@@@@QBEABHXZ
_TEXT	SEGMENT
??B?$FAutoVariable@HVCvCity@@@@QBEABHXZ PROC		; FAutoVariable<int,CvCity>::operator int const &, COMDAT
; _this$ = ecx

; 194  : 	return m_value;

	lea	eax, DWORD PTR [ecx+4]

; 195  : }

	ret	0
??B?$FAutoVariable@HVCvCity@@@@QBEABHXZ ENDP		; FAutoVariable<int,CvCity>::operator int const &
_TEXT	ENDS
PUBLIC	??B?$FAutoVariable@W4PlayerTypes@@VCvPlayer@@@@QBEABW4PlayerTypes@@XZ ; FAutoVariable<enum PlayerTypes,CvPlayer>::operator enum PlayerTypes const &
; Function compile flags: /Ogtpy
;	COMDAT ??B?$FAutoVariable@W4PlayerTypes@@VCvPlayer@@@@QBEABW4PlayerTypes@@XZ
_TEXT	SEGMENT
??B?$FAutoVariable@W4PlayerTypes@@VCvPlayer@@@@QBEABW4PlayerTypes@@XZ PROC ; FAutoVariable<enum PlayerTypes,CvPlayer>::operator enum PlayerTypes const &, COMDAT
; _this$ = ecx

; 194  : 	return m_value;

	lea	eax, DWORD PTR [ecx+4]

; 195  : }

	ret	0
??B?$FAutoVariable@W4PlayerTypes@@VCvPlayer@@@@QBEABW4PlayerTypes@@XZ ENDP ; FAutoVariable<enum PlayerTypes,CvPlayer>::operator enum PlayerTypes const &
_TEXT	ENDS
PUBLIC	??B?$FAutoVariable@_NVCvPlayer@@@@QBEAB_NXZ	; FAutoVariable<bool,CvPlayer>::operator bool const &
; Function compile flags: /Ogtpy
;	COMDAT ??B?$FAutoVariable@_NVCvPlayer@@@@QBEAB_NXZ
_TEXT	SEGMENT
??B?$FAutoVariable@_NVCvPlayer@@@@QBEAB_NXZ PROC	; FAutoVariable<bool,CvPlayer>::operator bool const &, COMDAT
; _this$ = ecx

; 194  : 	return m_value;

	lea	eax, DWORD PTR [ecx+4]

; 195  : }

	ret	0
??B?$FAutoVariable@_NVCvPlayer@@@@QBEAB_NXZ ENDP	; FAutoVariable<bool,CvPlayer>::operator bool const &
_TEXT	ENDS
PUBLIC	??$?5I@FDataStream@@QAEAAV0@AAI@Z		; FDataStream::operator>><unsigned int>
EXTRN	?Read@FDataStream@@IAEXAAI@Z:PROC		; FDataStream::Read
; Function compile flags: /Ogtpy
; File c:\users\enormousapplepie\desktop\lekmod files\lekmod dll versions\v29\lekmod_dll\fireplace\include\fireworks\fdatastream.h
;	COMDAT ??$?5I@FDataStream@@QAEAAV0@AAI@Z
_TEXT	SEGMENT
_kData$ = 8						; size = 4
??$?5I@FDataStream@@QAEAAV0@AAI@Z PROC			; FDataStream::operator>><unsigned int>, COMDAT
; _this$ = ecx

; 260  : 	// If the compiler produces an error here complaining about 
; 261  : 	// YouMustImplementASerializeOperatorForThisTypeError then
; 262  : 	// it could not find a specialization for the type supplied
; 263  : 	// in scope. If a specialization exists, be sure to include
; 264  : 	// the header (FStlContainerSerialization.h, for example), 
; 265  : 	// if not, implement :
; 266  : 	// FDataStream & operator>>(FDataStream &, YourCustomType &)
; 267  : 	Read( kData );

	mov	eax, DWORD PTR _kData$[esp-4]
	push	esi
	push	eax
	mov	esi, ecx
	call	?Read@FDataStream@@IAEXAAI@Z		; FDataStream::Read

; 268  : 	return ( *this );

	mov	eax, esi
	pop	esi

; 269  : }

	ret	4
??$?5I@FDataStream@@QAEAAV0@AAI@Z ENDP			; FDataStream::operator>><unsigned int>
_TEXT	ENDS
PUBLIC	??$?6I@FDataStream@@QAEAAV0@ABI@Z		; FDataStream::operator<<<unsigned int>
EXTRN	?Write@FDataStream@@IAEXABI@Z:PROC		; FDataStream::Write
; Function compile flags: /Ogtpy
;	COMDAT ??$?6I@FDataStream@@QAEAAV0@ABI@Z
_TEXT	SEGMENT
_kData$ = 8						; size = 4
??$?6I@FDataStream@@QAEAAV0@ABI@Z PROC			; FDataStream::operator<<<unsigned int>, COMDAT
; _this$ = ecx

; 246  : 	// If the compiler produces an error here complaining about 
; 247  : 	// YouMustImplementASerializeOperatorForThisTypeError then
; 248  : 	// it could not find a specialization for the type supplied
; 249  : 	// in scope. If a specialization exists, be sure to include
; 250  : 	// the header (FStlContainerSerialization.h, for example), 
; 251  : 	// if not, implement :
; 252  : 	// FDataStream & operator<<(FDataStream &, YourCustomType &)
; 253  : 	Write( kData );

	mov	eax, DWORD PTR _kData$[esp-4]
	push	esi
	push	eax
	mov	esi, ecx
	call	?Write@FDataStream@@IAEXABI@Z		; FDataStream::Write

; 254  : 	return ( *this );

	mov	eax, esi
	pop	esi

; 255  : }

	ret	4
??$?6I@FDataStream@@QAEAAV0@ABI@Z ENDP			; FDataStream::operator<<<unsigned int>
_TEXT	ENDS
PUBLIC	?dxWrap@@YAHH@Z					; dxWrap
EXTRN	?gGlobals@@3VCvGlobals@@A:BYTE			; gGlobals
; Function compile flags: /Ogtpy
; File c:\users\enormousapplepie\desktop\lekmod files\lekmod dll versions\v29\lekmod_dll\cvgamecoredll_expansion2\cvgamecoreutils.h
;	COMDAT ?dxWrap@@YAHH@Z
_TEXT	SEGMENT
_iDX$ = 8						; size = 4
?dxWrap@@YAHH@Z PROC					; dxWrap, COMDAT

; 74   : 	const CvMap& kMap = GC.getMap();

	mov	eax, DWORD PTR ?gGlobals@@3VCvGlobals@@A+52

; 75   : 	return wrapCoordDifference(iDX, kMap.getGridWidth(), kMap.isWrapX());

	mov	edx, DWORD PTR [eax+4020]
	cmp	BYTE PTR [eax+4056], 0
	mov	eax, DWORD PTR _iDX$[esp-4]
	je	SHORT $LN13@dxWrap
	mov	ecx, edx
	shr	ecx, 1
	cmp	eax, ecx
	jle	SHORT $LN11@dxWrap
	sub	eax, edx

; 76   : }

	ret	0

; 75   : 	return wrapCoordDifference(iDX, kMap.getGridWidth(), kMap.isWrapX());

$LN11@dxWrap:
	neg	ecx
	cmp	eax, ecx
	jge	SHORT $LN13@dxWrap
	add	eax, edx
$LN13@dxWrap:

; 76   : }

	ret	0
?dxWrap@@YAHH@Z ENDP					; dxWrap
_TEXT	ENDS
PUBLIC	?dyWrap@@YAHH@Z					; dyWrap
; Function compile flags: /Ogtpy
;	COMDAT ?dyWrap@@YAHH@Z
_TEXT	SEGMENT
_iDY$ = 8						; size = 4
?dyWrap@@YAHH@Z PROC					; dyWrap, COMDAT

; 80   : 	const CvMap& kMap = GC.getMap();

	mov	eax, DWORD PTR ?gGlobals@@3VCvGlobals@@A+52

; 81   : 	return wrapCoordDifference(iDY, kMap.getGridHeight(), kMap.isWrapY());

	mov	edx, DWORD PTR [eax+4024]
	cmp	BYTE PTR [eax+4057], 0
	mov	eax, DWORD PTR _iDY$[esp-4]
	je	SHORT $LN13@dyWrap
	mov	ecx, edx
	shr	ecx, 1
	cmp	eax, ecx
	jle	SHORT $LN11@dyWrap
	sub	eax, edx

; 82   : }

	ret	0

; 81   : 	return wrapCoordDifference(iDY, kMap.getGridHeight(), kMap.isWrapY());

$LN11@dyWrap:
	neg	ecx
	cmp	eax, ecx
	jge	SHORT $LN13@dyWrap
	add	eax, edx
$LN13@dyWrap:

; 82   : }

	ret	0
?dyWrap@@YAHH@Z ENDP					; dyWrap
_TEXT	ENDS
PUBLIC	?plotDistance@@YAHHHHH@Z			; plotDistance
; Function compile flags: /Ogtpy
;	COMDAT ?plotDistance@@YAHHHHH@Z
_TEXT	SEGMENT
_iDX$ = 8						; size = 4
_iX1$ = 8						; size = 4
_iY1$ = 12						; size = 4
_iDY$ = 16						; size = 4
_iX2$ = 16						; size = 4
_iY2$ = 20						; size = 4
?plotDistance@@YAHHHHH@Z PROC				; plotDistance, COMDAT

; 145  : 	int iDX;
; 146  : 	int iWrappedDX = dxWrap(iX2 - iX1);

	mov	eax, DWORD PTR _iX2$[esp-4]
	sub	eax, DWORD PTR _iX1$[esp-4]
	push	ebx
	mov	ebx, DWORD PTR ?gGlobals@@3VCvGlobals@@A+52
	cmp	BYTE PTR [ebx+4056], 0
	mov	edx, DWORD PTR [ebx+4020]
	push	ebp
	push	esi
	je	SHORT $LN13@plotDistan
	mov	ecx, edx
	shr	ecx, 1
	cmp	eax, ecx
	jle	SHORT $LN15@plotDistan
	sub	eax, edx
	jmp	SHORT $LN13@plotDistan
$LN15@plotDistan:
	neg	ecx
	cmp	eax, ecx
	lea	ecx, DWORD PTR [edx+eax]
	jl	SHORT $LN17@plotDistan
$LN13@plotDistan:
	mov	ecx, eax
$LN17@plotDistan:

; 147  : 	int iWrappedDY = dyWrap(iY2 - iY1);

	mov	eax, DWORD PTR _iY2$[esp+8]
	mov	esi, DWORD PTR [ebx+4024]
	push	edi
	mov	edi, DWORD PTR _iY1$[esp+12]
	sub	eax, edi
	cmp	BYTE PTR [ebx+4057], 0
	je	SHORT $LN27@plotDistan
	mov	edx, esi
	shr	edx, 1
	cmp	eax, edx
	jle	SHORT $LN29@plotDistan
	sub	eax, esi
	jmp	SHORT $LN27@plotDistan
$LN29@plotDistan:
	neg	edx
	cmp	eax, edx
	lea	ebp, DWORD PTR [esi+eax]
	jl	SHORT $LN31@plotDistan
$LN27@plotDistan:
	mov	ebp, eax
$LN31@plotDistan:

; 148  : 	int iDY = abs(iWrappedDY);

	mov	eax, ebp
	cdq
	xor	eax, edx
	sub	eax, edx
	mov	DWORD PTR _iDY$[esp+12], eax

; 149  : 
; 150  : 	// convert to hex-space coordinates - the coordinate system axes are E and NE (not orthogonal)
; 151  : 	int iHX1 = xToHexspaceX(iX1, iY1);

	test	edi, edi
	jl	SHORT $LN35@plotDistan
	mov	eax, edi
	jmp	SHORT $LN59@plotDistan
$LN35@plotDistan:
	lea	eax, DWORD PTR [edi-1]
	cdq
	sub	eax, edx
$LN59@plotDistan:
	mov	esi, DWORD PTR _iX1$[esp+12]
	sar	eax, 1
	sub	esi, eax

; 152  : 	int iHX2 = xToHexspaceX(iX1 + iWrappedDX, iY1 + iWrappedDY);

	lea	eax, DWORD PTR [edi+ebp]
	pop	edi
	test	eax, eax
	jge	SHORT $LN60@plotDistan
	dec	eax
	cdq
	sub	eax, edx
$LN60@plotDistan:

; 153  : 
; 154  : 	iDX = abs(dxWrap(iHX2 - iHX1));

	mov	edx, DWORD PTR [ebx+4020]
	sar	eax, 1
	sub	ecx, eax
	add	ecx, DWORD PTR _iX1$[esp+8]
	sub	ecx, esi
	cmp	BYTE PTR [ebx+4056], 0
	je	SHORT $LN49@plotDistan
	mov	eax, edx
	shr	eax, 1
	cmp	ecx, eax
	jle	SHORT $LN51@plotDistan
	mov	eax, ecx
	sub	eax, edx
	jmp	SHORT $LN53@plotDistan
$LN51@plotDistan:
	neg	eax
	cmp	ecx, eax
	lea	eax, DWORD PTR [edx+ecx]
	jl	SHORT $LN53@plotDistan
$LN49@plotDistan:
	mov	eax, ecx
$LN53@plotDistan:
	cdq
	xor	eax, edx
	sub	eax, edx

; 155  : 
; 156  : #ifdef NQM_GAME_CORE_UTILS_OPTIMIZATIONS
; 157  : 	if (((iHX2 - iHX1) ^ (iWrappedDY)) >= 0)  // the signs match
; 158  : #else
; 159  : 	if((iHX2 - iHX1 >= 0) == (iWrappedDY >= 0))  // the signs match

	xor	edx, edx
	test	ecx, ecx
	setge	dl
	xor	ecx, ecx
	test	ebp, ebp
	setge	cl
	pop	esi
	pop	ebp
	mov	DWORD PTR _iDX$[esp], eax
	pop	ebx
	cmp	edx, ecx
	jne	SHORT $LN2@plotDistan

; 160  : #endif
; 161  : 	{
; 162  : 		return iDX + iDY;

	mov	edx, DWORD PTR _iDY$[esp-4]
	add	eax, edx

; 170  : #endif
; 171  : 	}
; 172  : }

	ret	0
$LN2@plotDistan:

; 163  : 	}
; 164  : 	else
; 165  : 	{
; 166  : #ifdef NQM_FAST_COMP
; 167  : 		return (MAX(iDX, iDY));
; 168  : #else
; 169  : 		return (std::max(iDX, iDY));

	cmp	eax, DWORD PTR _iDY$[esp-4]
	lea	eax, DWORD PTR _iDY$[esp-4]
	jl	SHORT $LN58@plotDistan
	lea	eax, DWORD PTR _iDX$[esp-4]
$LN58@plotDistan:
	mov	eax, DWORD PTR [eax]

; 170  : #endif
; 171  : 	}
; 172  : }

	ret	0
?plotDistance@@YAHHHHH@Z ENDP				; plotDistance
_TEXT	ENDS
PUBLIC	??1CvDealAI@@QAE@XZ				; CvDealAI::~CvDealAI
; Function compile flags: /Ogtpy
; File c:\users\enormousapplepie\desktop\lekmod files\lekmod dll versions\v29\lekmod_dll\cvgamecoredll_expansion2\cvdealai.cpp
;	COMDAT ??1CvDealAI@@QAE@XZ
_TEXT	SEGMENT
??1CvDealAI@@QAE@XZ PROC				; CvDealAI::~CvDealAI, COMDAT
; _this$ = ecx

; 35   : 	Uninit();
; 36   : }

	ret	0
??1CvDealAI@@QAE@XZ ENDP				; CvDealAI::~CvDealAI
_TEXT	ENDS
PUBLIC	?Init@CvDealAI@@QAEXPAVCvPlayer@@@Z		; CvDealAI::Init
; Function compile flags: /Ogtpy
;	COMDAT ?Init@CvDealAI@@QAEXPAVCvPlayer@@@Z
_TEXT	SEGMENT
_pPlayer$ = 8						; size = 4
?Init@CvDealAI@@QAEXPAVCvPlayer@@@Z PROC		; CvDealAI::Init, COMDAT
; _this$ = ecx

; 41   : 	m_pPlayer = pPlayer;

	mov	eax, DWORD PTR _pPlayer$[esp-4]
	mov	DWORD PTR [ecx], eax

; 42   : 
; 43   : 	Reset();

	mov	DWORD PTR [ecx+4], 0

; 44   : }

	ret	4
?Init@CvDealAI@@QAEXPAVCvPlayer@@@Z ENDP		; CvDealAI::Init
_TEXT	ENDS
PUBLIC	?Read@CvDealAI@@QAEXAAVFDataStream@@@Z		; CvDealAI::Read
; Function compile flags: /Ogtpy
;	COMDAT ?Read@CvDealAI@@QAEXAAVFDataStream@@@Z
_TEXT	SEGMENT
_uiVersion$ = 8						; size = 4
_kStream$ = 8						; size = 4
?Read@CvDealAI@@QAEXAAVFDataStream@@@Z PROC		; CvDealAI::Read, COMDAT
; _this$ = ecx

; 60   : 	// Version number to maintain backwards compatibility
; 61   : 	uint uiVersion;
; 62   : 	kStream >> uiVersion;

	mov	ecx, DWORD PTR _kStream$[esp-4]
	lea	eax, DWORD PTR _uiVersion$[esp-4]
	push	eax
	call	?Read@FDataStream@@IAEXAAI@Z		; FDataStream::Read

; 63   : }

	ret	4
?Read@CvDealAI@@QAEXAAVFDataStream@@@Z ENDP		; CvDealAI::Read
_TEXT	ENDS
PUBLIC	?Write@CvDealAI@@QBEXAAVFDataStream@@@Z		; CvDealAI::Write
; Function compile flags: /Ogtpy
;	COMDAT ?Write@CvDealAI@@QBEXAAVFDataStream@@@Z
_TEXT	SEGMENT
_uiVersion$ = -4					; size = 4
_kStream$ = 8						; size = 4
?Write@CvDealAI@@QBEXAAVFDataStream@@@Z PROC		; CvDealAI::Write, COMDAT
; _this$ = ecx

; 67   : {

	push	ecx

; 68   : 	// Current version number
; 69   : 	uint uiVersion = 1;
; 70   : 	kStream << uiVersion;

	mov	ecx, DWORD PTR _kStream$[esp]
	lea	eax, DWORD PTR _uiVersion$[esp+4]
	push	eax
	mov	DWORD PTR _uiVersion$[esp+8], 1
	call	?Write@FDataStream@@IAEXABI@Z		; FDataStream::Write

; 71   : }

	pop	ecx
	ret	4
?Write@CvDealAI@@QBEXAAVFDataStream@@@Z ENDP		; CvDealAI::Write
_TEXT	ENDS
PUBLIC	?DoTradeScreenClosed@CvDealAI@@QAEX_N@Z		; CvDealAI::DoTradeScreenClosed
EXTRN	?DoCancelWantsResearchAgreementWithPlayer@CvDiplomacyAI@@QAEXW4PlayerTypes@@@Z:PROC ; CvDiplomacyAI::DoCancelWantsResearchAgreementWithPlayer
EXTRN	?IsCanMakeResearchAgreementRightNow@CvDiplomacyAI@@QAE_NW4PlayerTypes@@@Z:PROC ; CvDiplomacyAI::IsCanMakeResearchAgreementRightNow
EXTRN	?IsWantsResearchAgreementWithPlayer@CvDiplomacyAI@@QBE_NW4PlayerTypes@@@Z:PROC ; CvDiplomacyAI::IsWantsResearchAgreementWithPlayer
EXTRN	?ClearDealToRenew@CvDiplomacyAI@@QAEXXZ:PROC	; CvDiplomacyAI::ClearDealToRenew
EXTRN	?GetDiplomacyAI@CvPlayer@@QBEPAVCvDiplomacyAI@@XZ:PROC ; CvPlayer::GetDiplomacyAI
EXTRN	?getActivePlayer@CvGame@@QBE?AW4PlayerTypes@@XZ:PROC ; CvGame::getActivePlayer
; Function compile flags: /Ogtpy
;	COMDAT ?DoTradeScreenClosed@CvDealAI@@QAEX_N@Z
_TEXT	SEGMENT
_bAIWasMakingOffer$ = 8					; size = 1
?DoTradeScreenClosed@CvDealAI@@QAEX_N@Z PROC		; CvDealAI::DoTradeScreenClosed, COMDAT
; _this$ = ecx

; 3993 : {

	push	esi
	mov	esi, ecx

; 3994 : 	PlayerTypes eActivePlayer = GC.getGame().getActivePlayer();

	mov	ecx, DWORD PTR ?gGlobals@@3VCvGlobals@@A+48
	push	edi
	call	?getActivePlayer@CvGame@@QBE?AW4PlayerTypes@@XZ ; CvGame::getActivePlayer

; 3995 : 
; 3996 : 	// Reset cached values each time screen closed
; 3997 : 	SetCachedValueOfPeaceWithHuman(0);

	mov	DWORD PTR [esi+4], 0

; 3998 : 
; 3999 : 	GC.GetEngineUserInterface()->SetAIRequestingConcessions(false);

	mov	ecx, DWORD PTR ?gGlobals@@3VCvGlobals@@A+8568
	mov	edi, eax
	mov	eax, DWORD PTR [ecx]
	mov	edx, DWORD PTR [eax+464]
	push	0
	call	edx

; 4000 : 	GC.GetEngineUserInterface()->SetHumanMakingDemand(false);

	mov	ecx, DWORD PTR ?gGlobals@@3VCvGlobals@@A+8568
	mov	eax, DWORD PTR [ecx]
	mov	edx, DWORD PTR [eax+472]
	push	0
	call	edx

; 4001 : 
; 4002 : #ifdef AUI_WARNING_FIXES
; 4003 : 	CvDiplomacyAI* pDiplomacyAI = GetPlayer()->GetDiplomacyAI();
; 4004 : 	pDiplomacyAI->ClearDealToRenew();
; 4005 : 
; 4006 : 	if (bAIWasMakingOffer)
; 4007 : 	{
; 4008 : 		// If AI was planning on a mutual Research Agreement, cancel it because the human left :(
; 4009 : 		// May want to do this slightly differently, as we can't be 100% sure this is what the AI was asking about (although if we make it through both of the following if statements there's an awful lot of circumstantial evidence)
; 4010 : 		if (pDiplomacyAI->IsWantsResearchAgreementWithPlayer(eActivePlayer))
; 4011 : 		{
; 4012 : 			if (pDiplomacyAI->IsCanMakeResearchAgreementRightNow(eActivePlayer))
; 4013 : 			{
; 4014 : 				pDiplomacyAI->DoCancelWantsResearchAgreementWithPlayer(eActivePlayer);
; 4015 : #else
; 4016 : 	GetPlayer()->GetDiplomacyAI()->ClearDealToRenew();

	mov	ecx, DWORD PTR [esi]
	call	?GetDiplomacyAI@CvPlayer@@QBEPAVCvDiplomacyAI@@XZ ; CvPlayer::GetDiplomacyAI
	mov	ecx, eax
	call	?ClearDealToRenew@CvDiplomacyAI@@QAEXXZ	; CvDiplomacyAI::ClearDealToRenew

; 4017 : 
; 4018 : 	if(bAIWasMakingOffer)

	cmp	BYTE PTR _bAIWasMakingOffer$[esp+4], 0
	je	SHORT $LN1@DoTradeScr

; 4019 : 	{
; 4020 : 		// If AI was planning on a mutual Research Agreement, cancel it because the human left :(
; 4021 : 		// May want to do this slightly differently, as we can't be 100% sure this is what the AI was asking about (although if we make it through both of the following if statements there's an awful lot of circumstantial evidence)
; 4022 : 		if(GetPlayer()->GetDiplomacyAI()->IsWantsResearchAgreementWithPlayer(eActivePlayer))

	mov	ecx, DWORD PTR [esi]
	push	edi
	call	?GetDiplomacyAI@CvPlayer@@QBEPAVCvDiplomacyAI@@XZ ; CvPlayer::GetDiplomacyAI
	mov	ecx, eax
	call	?IsWantsResearchAgreementWithPlayer@CvDiplomacyAI@@QBE_NW4PlayerTypes@@@Z ; CvDiplomacyAI::IsWantsResearchAgreementWithPlayer
	test	al, al
	je	SHORT $LN1@DoTradeScr

; 4023 : 		{
; 4024 : 			if(GetPlayer()->GetDiplomacyAI()->IsCanMakeResearchAgreementRightNow(eActivePlayer))

	mov	ecx, DWORD PTR [esi]
	push	edi
	call	?GetDiplomacyAI@CvPlayer@@QBEPAVCvDiplomacyAI@@XZ ; CvPlayer::GetDiplomacyAI
	mov	ecx, eax
	call	?IsCanMakeResearchAgreementRightNow@CvDiplomacyAI@@QAE_NW4PlayerTypes@@@Z ; CvDiplomacyAI::IsCanMakeResearchAgreementRightNow
	test	al, al
	je	SHORT $LN1@DoTradeScr

; 4025 : 			{
; 4026 : 				GetPlayer()->GetDiplomacyAI()->DoCancelWantsResearchAgreementWithPlayer(eActivePlayer);

	mov	ecx, DWORD PTR [esi]
	push	edi
	call	?GetDiplomacyAI@CvPlayer@@QBEPAVCvDiplomacyAI@@XZ ; CvPlayer::GetDiplomacyAI
	mov	ecx, eax
	call	?DoCancelWantsResearchAgreementWithPlayer@CvDiplomacyAI@@QAEXW4PlayerTypes@@@Z ; CvDiplomacyAI::DoCancelWantsResearchAgreementWithPlayer
$LN1@DoTradeScr:
	pop	edi
	pop	esi

; 4027 : #endif
; 4028 : 			}
; 4029 : 		}
; 4030 : 	}
; 4031 : }

	ret	4
?DoTradeScreenClosed@CvDealAI@@QAEX_N@Z ENDP		; CvDealAI::DoTradeScreenClosed
_TEXT	ENDS
PUBLIC	?size@?$FFastList@UCvTradedItem@@$0BF@$0A@@@QBEIXZ ; FFastList<CvTradedItem,21,0>::size
; Function compile flags: /Ogtpy
; File c:\users\enormousapplepie\desktop\lekmod files\lekmod dll versions\v29\lekmod_dll\fireplace\include\fireworks\ffastlist.h
;	COMDAT ?size@?$FFastList@UCvTradedItem@@$0BF@$0A@@@QBEIXZ
_TEXT	SEGMENT
?size@?$FFastList@UCvTradedItem@@$0BF@$0A@@@QBEIXZ PROC	; FFastList<CvTradedItem,21,0>::size, COMDAT
; _this$ = ecx

; 189  : 	unsigned int size() const{ return BASE_TYPE::size(); };

	mov	eax, DWORD PTR [ecx+20]
	ret	0
?size@?$FFastList@UCvTradedItem@@$0BF@$0A@@@QBEIXZ ENDP	; FFastList<CvTradedItem,21,0>::size
_TEXT	ENDS
PUBLIC	??1?$auto_ptr@VICvDeal1@@@std@@QAE@XZ		; std::auto_ptr<ICvDeal1>::~auto_ptr<ICvDeal1>
; Function compile flags: /Ogtpy
; File c:\program files (x86)\microsoft visual studio 9.0\vc\include\memory
;	COMDAT ??1?$auto_ptr@VICvDeal1@@@std@@QAE@XZ
_TEXT	SEGMENT
??1?$auto_ptr@VICvDeal1@@@std@@QAE@XZ PROC		; std::auto_ptr<ICvDeal1>::~auto_ptr<ICvDeal1>, COMDAT
; _this$ = ecx

; 721  : 		delete _Myptr;

	mov	eax, DWORD PTR [ecx]
	test	eax, eax
	je	SHORT $LN3@auto_ptr
	mov	ecx, DWORD PTR [eax]
	mov	edx, DWORD PTR [ecx+4]
	push	eax
	call	edx
$LN3@auto_ptr:

; 722  : 		}

	ret	0
??1?$auto_ptr@VICvDeal1@@@std@@QAE@XZ ENDP		; std::auto_ptr<ICvDeal1>::~auto_ptr<ICvDeal1>
_TEXT	ENDS
PUBLIC	?GetElement@?$CvWeightedVector@H$00$0A@@@QBEABHI@Z ; CvWeightedVector<int,1,0>::GetElement
; Function compile flags: /Ogtpy
; File c:\users\enormousapplepie\desktop\lekmod files\lekmod dll versions\v29\lekmod_dll\cvgamecoredllutil\include\cvweightedvector.h
;	COMDAT ?GetElement@?$CvWeightedVector@H$00$0A@@@QBEABHI@Z
_TEXT	SEGMENT
_iIndex$ = 8						; size = 4
?GetElement@?$CvWeightedVector@H$00$0A@@@QBEABHI@Z PROC	; CvWeightedVector<int,1,0>::GetElement, COMDAT
; _this$ = ecx

; 64   : 		assert(iIndex < m_pItems.size());
; 65   : 		return m_pItems[iIndex].m_Element;

	mov	eax, DWORD PTR [ecx]
	mov	ecx, DWORD PTR _iIndex$[esp-4]
	lea	eax, DWORD PTR [eax+ecx*8]

; 66   : 	};

	ret	4
?GetElement@?$CvWeightedVector@H$00$0A@@@QBEABHI@Z ENDP	; CvWeightedVector<int,1,0>::GetElement
_TEXT	ENDS
PUBLIC	?size@?$CvWeightedVector@H$00$0A@@@QAEHXZ	; CvWeightedVector<int,1,0>::size
; Function compile flags: /Ogtpy
;	COMDAT ?size@?$CvWeightedVector@H$00$0A@@@QAEHXZ
_TEXT	SEGMENT
?size@?$CvWeightedVector@H$00$0A@@@QAEHXZ PROC		; CvWeightedVector<int,1,0>::size, COMDAT
; _this$ = ecx

; 134  : 		return m_pItems.size();

	mov	eax, DWORD PTR [ecx+4]

; 135  : 	};

	ret	0
?size@?$CvWeightedVector@H$00$0A@@@QAEHXZ ENDP		; CvWeightedVector<int,1,0>::size
_TEXT	ENDS
PUBLIC	??A?$FFastAllocator@U?$MultiListNodePolicy@UCvTradedItem@@@@$0A@$0BF@$0A@UFDefaultFastVectorAllocator@?$BaseVector@U?$MultiListNodePolicy@UCvTradedItem@@@@$0A@@@@@QAEAAU?$MultiListNodePolicy@UCvTradedItem@@@@I@Z ; FFastAllocator<MultiListNodePolicy<CvTradedItem>,0,21,0,BaseVector<MultiListNodePolicy<CvTradedItem>,0>::FDefaultFastVectorAllocator>::operator[]
; Function compile flags: /Ogtpy
; File c:\users\enormousapplepie\desktop\lekmod files\lekmod dll versions\v29\lekmod_dll\fireplace\include\fireworks\ffastallocator.h
;	COMDAT ??A?$FFastAllocator@U?$MultiListNodePolicy@UCvTradedItem@@@@$0A@$0BF@$0A@UFDefaultFastVectorAllocator@?$BaseVector@U?$MultiListNodePolicy@UCvTradedItem@@@@$0A@@@@@QAEAAU?$MultiListNodePolicy@UCvTradedItem@@@@I@Z
_TEXT	SEGMENT
_ui$ = 8						; size = 4
??A?$FFastAllocator@U?$MultiListNodePolicy@UCvTradedItem@@@@$0A@$0BF@$0A@UFDefaultFastVectorAllocator@?$BaseVector@U?$MultiListNodePolicy@UCvTradedItem@@@@$0A@@@@@QAEAAU?$MultiListNodePolicy@UCvTradedItem@@@@I@Z PROC ; FFastAllocator<MultiListNodePolicy<CvTradedItem>,0,21,0,BaseVector<MultiListNodePolicy<CvTradedItem>,0>::FDefaultFastVectorAllocator>::operator[], COMDAT
; _this$ = ecx

; 269  : 		return m_vec[ui];

	mov	eax, DWORD PTR _ui$[esp-4]
	imul	eax, 44					; 0000002cH
	add	eax, DWORD PTR [ecx+8]

; 270  : 	}

	ret	4
??A?$FFastAllocator@U?$MultiListNodePolicy@UCvTradedItem@@@@$0A@$0BF@$0A@UFDefaultFastVectorAllocator@?$BaseVector@U?$MultiListNodePolicy@UCvTradedItem@@@@$0A@@@@@QAEAAU?$MultiListNodePolicy@UCvTradedItem@@@@I@Z ENDP ; FFastAllocator<MultiListNodePolicy<CvTradedItem>,0,21,0,BaseVector<MultiListNodePolicy<CvTradedItem>,0>::FDefaultFastVectorAllocator>::operator[]
_TEXT	ENDS
PUBLIC	??1iterator@?$FCustomList_Core@U?$MultiListNodePolicy@UCvTradedItem@@@@V?$FFastAllocator@U?$MultiListNodePolicy@UCvTradedItem@@@@$0A@$0BF@$0A@UFDefaultFastVectorAllocator@?$BaseVector@U?$MultiListNodePolicy@UCvTradedItem@@@@$0A@@@@@V?$FCustomList_Tail_Member@V?$FFastAllocator@U?$MultiListNodePolicy@UCvTradedItem@@@@$0A@$0BF@$0A@UFDefaultFastVectorAllocator@?$BaseVector@U?$MultiListNodePolicy@UCvTradedItem@@@@$0A@@@@@@@@@QAE@XZ ; FCustomList_Core<MultiListNodePolicy<CvTradedItem>,FFastAllocator<MultiListNodePolicy<CvTradedItem>,0,21,0,BaseVector<MultiListNodePolicy<CvTradedItem>,0>::FDefaultFastVectorAllocator>,FCustomList_Tail_Member<FFastAllocator<MultiListNodePolicy<CvTradedItem>,0,21,0,BaseVector<MultiListNodePolicy<CvTradedItem>,0>::FDefaultFastVectorAllocator> > >::iterator::~iterator
; Function compile flags: /Ogtpy
; File c:\users\enormousapplepie\desktop\lekmod files\lekmod dll versions\v29\lekmod_dll\fireplace\include\fireworks\ffastlist.h
;	COMDAT ??1iterator@?$FCustomList_Core@U?$MultiListNodePolicy@UCvTradedItem@@@@V?$FFastAllocator@U?$MultiListNodePolicy@UCvTradedItem@@@@$0A@$0BF@$0A@UFDefaultFastVectorAllocator@?$BaseVector@U?$MultiListNodePolicy@UCvTradedItem@@@@$0A@@@@@V?$FCustomList_Tail_Member@V?$FFastAllocator@U?$MultiListNodePolicy@UCvTradedItem@@@@$0A@$0BF@$0A@UFDefaultFastVectorAllocator@?$BaseVector@U?$MultiListNodePolicy@UCvTradedItem@@@@$0A@@@@@@@@@QAE@XZ
_TEXT	SEGMENT
??1iterator@?$FCustomList_Core@U?$MultiListNodePolicy@UCvTradedItem@@@@V?$FFastAllocator@U?$MultiListNodePolicy@UCvTradedItem@@@@$0A@$0BF@$0A@UFDefaultFastVectorAllocator@?$BaseVector@U?$MultiListNodePolicy@UCvTradedItem@@@@$0A@@@@@V?$FCustomList_Tail_Member@V?$FFastAllocator@U?$MultiListNodePolicy@UCvTradedItem@@@@$0A@$0BF@$0A@UFDefaultFastVectorAllocator@?$BaseVector@U?$MultiListNodePolicy@UCvTradedItem@@@@$0A@@@@@@@@@QAE@XZ PROC ; FCustomList_Core<MultiListNodePolicy<CvTradedItem>,FFastAllocator<MultiListNodePolicy<CvTradedItem>,0,21,0,BaseVector<MultiListNodePolicy<CvTradedItem>,0>::FDefaultFastVectorAllocator>,FCustomList_Tail_Member<FFastAllocator<MultiListNodePolicy<CvTradedItem>,0,21,0,BaseVector<MultiListNodePolicy<CvTradedItem>,0>::FDefaultFastVectorAllocator> > >::iterator::~iterator, COMDAT
; _this$ = ecx

; 381  : 		~iterator(){};

	ret	0
??1iterator@?$FCustomList_Core@U?$MultiListNodePolicy@UCvTradedItem@@@@V?$FFastAllocator@U?$MultiListNodePolicy@UCvTradedItem@@@@$0A@$0BF@$0A@UFDefaultFastVectorAllocator@?$BaseVector@U?$MultiListNodePolicy@UCvTradedItem@@@@$0A@@@@@V?$FCustomList_Tail_Member@V?$FFastAllocator@U?$MultiListNodePolicy@UCvTradedItem@@@@$0A@$0BF@$0A@UFDefaultFastVectorAllocator@?$BaseVector@U?$MultiListNodePolicy@UCvTradedItem@@@@$0A@@@@@@@@@QAE@XZ ENDP ; FCustomList_Core<MultiListNodePolicy<CvTradedItem>,FFastAllocator<MultiListNodePolicy<CvTradedItem>,0,21,0,BaseVector<MultiListNodePolicy<CvTradedItem>,0>::FDefaultFastVectorAllocator>,FCustomList_Tail_Member<FFastAllocator<MultiListNodePolicy<CvTradedItem>,0,21,0,BaseVector<MultiListNodePolicy<CvTradedItem>,0>::FDefaultFastVectorAllocator> > >::iterator::~iterator
_TEXT	ENDS
PUBLIC	??Diterator@?$FCustomList_Core@U?$MultiListNodePolicy@UCvTradedItem@@@@V?$FFastAllocator@U?$MultiListNodePolicy@UCvTradedItem@@@@$0A@$0BF@$0A@UFDefaultFastVectorAllocator@?$BaseVector@U?$MultiListNodePolicy@UCvTradedItem@@@@$0A@@@@@V?$FCustomList_Tail_Member@V?$FFastAllocator@U?$MultiListNodePolicy@UCvTradedItem@@@@$0A@$0BF@$0A@UFDefaultFastVectorAllocator@?$BaseVector@U?$MultiListNodePolicy@UCvTradedItem@@@@$0A@@@@@@@@@QAEAAU?$MultiListNodePolicy@UCvTradedItem@@@@XZ ; FCustomList_Core<MultiListNodePolicy<CvTradedItem>,FFastAllocator<MultiListNodePolicy<CvTradedItem>,0,21,0,BaseVector<MultiListNodePolicy<CvTradedItem>,0>::FDefaultFastVectorAllocator>,FCustomList_Tail_Member<FFastAllocator<MultiListNodePolicy<CvTradedItem>,0,21,0,BaseVector<MultiListNodePolicy<CvTradedItem>,0>::FDefaultFastVectorAllocator> > >::iterator::operator*
; Function compile flags: /Ogtpy
;	COMDAT ??Diterator@?$FCustomList_Core@U?$MultiListNodePolicy@UCvTradedItem@@@@V?$FFastAllocator@U?$MultiListNodePolicy@UCvTradedItem@@@@$0A@$0BF@$0A@UFDefaultFastVectorAllocator@?$BaseVector@U?$MultiListNodePolicy@UCvTradedItem@@@@$0A@@@@@V?$FCustomList_Tail_Member@V?$FFastAllocator@U?$MultiListNodePolicy@UCvTradedItem@@@@$0A@$0BF@$0A@UFDefaultFastVectorAllocator@?$BaseVector@U?$MultiListNodePolicy@UCvTradedItem@@@@$0A@@@@@@@@@QAEAAU?$MultiListNodePolicy@UCvTradedItem@@@@XZ
_TEXT	SEGMENT
??Diterator@?$FCustomList_Core@U?$MultiListNodePolicy@UCvTradedItem@@@@V?$FFastAllocator@U?$MultiListNodePolicy@UCvTradedItem@@@@$0A@$0BF@$0A@UFDefaultFastVectorAllocator@?$BaseVector@U?$MultiListNodePolicy@UCvTradedItem@@@@$0A@@@@@V?$FCustomList_Tail_Member@V?$FFastAllocator@U?$MultiListNodePolicy@UCvTradedItem@@@@$0A@$0BF@$0A@UFDefaultFastVectorAllocator@?$BaseVector@U?$MultiListNodePolicy@UCvTradedItem@@@@$0A@@@@@@@@@QAEAAU?$MultiListNodePolicy@UCvTradedItem@@@@XZ PROC ; FCustomList_Core<MultiListNodePolicy<CvTradedItem>,FFastAllocator<MultiListNodePolicy<CvTradedItem>,0,21,0,BaseVector<MultiListNodePolicy<CvTradedItem>,0>::FDefaultFastVectorAllocator>,FCustomList_Tail_Member<FFastAllocator<MultiListNodePolicy<CvTradedItem>,0,21,0,BaseVector<MultiListNodePolicy<CvTradedItem>,0>::FDefaultFastVectorAllocator> > >::iterator::operator*, COMDAT
; _this$ = ecx

; 384  : 			return m_pFastList->get_allocator()[ m_uiCurrPos ];

	mov	eax, DWORD PTR [ecx+4]
	mov	ecx, DWORD PTR [ecx]
	imul	eax, 44					; 0000002cH
	add	eax, DWORD PTR [ecx+8]

; 385  : 		};

	ret	0
??Diterator@?$FCustomList_Core@U?$MultiListNodePolicy@UCvTradedItem@@@@V?$FFastAllocator@U?$MultiListNodePolicy@UCvTradedItem@@@@$0A@$0BF@$0A@UFDefaultFastVectorAllocator@?$BaseVector@U?$MultiListNodePolicy@UCvTradedItem@@@@$0A@@@@@V?$FCustomList_Tail_Member@V?$FFastAllocator@U?$MultiListNodePolicy@UCvTradedItem@@@@$0A@$0BF@$0A@UFDefaultFastVectorAllocator@?$BaseVector@U?$MultiListNodePolicy@UCvTradedItem@@@@$0A@@@@@@@@@QAEAAU?$MultiListNodePolicy@UCvTradedItem@@@@XZ ENDP ; FCustomList_Core<MultiListNodePolicy<CvTradedItem>,FFastAllocator<MultiListNodePolicy<CvTradedItem>,0,21,0,BaseVector<MultiListNodePolicy<CvTradedItem>,0>::FDefaultFastVectorAllocator>,FCustomList_Tail_Member<FFastAllocator<MultiListNodePolicy<CvTradedItem>,0,21,0,BaseVector<MultiListNodePolicy<CvTradedItem>,0>::FDefaultFastVectorAllocator> > >::iterator::operator*
_TEXT	ENDS
PUBLIC	??0?$FStaticVector@UWeightedElement@?$CvWeightedVector@H$00$0A@@@$00$0A@$0A@$0A@@@QAE@XZ ; FStaticVector<CvWeightedVector<int,1,0>::WeightedElement,1,0,0,0>::FStaticVector<CvWeightedVector<int,1,0>::WeightedElement,1,0,0,0>
; Function compile flags: /Ogtpy
; File c:\users\enormousapplepie\desktop\lekmod files\lekmod dll versions\v29\lekmod_dll\fireplace\include\fireworks\ffastvector.h
;	COMDAT ??0?$FStaticVector@UWeightedElement@?$CvWeightedVector@H$00$0A@@@$00$0A@$0A@$0A@@@QAE@XZ
_TEXT	SEGMENT
??0?$FStaticVector@UWeightedElement@?$CvWeightedVector@H$00$0A@@@$00$0A@$0A@$0A@@@QAE@XZ PROC ; FStaticVector<CvWeightedVector<int,1,0>::WeightedElement,1,0,0,0>::FStaticVector<CvWeightedVector<int,1,0>::WeightedElement,1,0,0,0>, COMDAT
; _this$ = ecx

; 601  : 	FStaticVector()

	mov	eax, ecx

; 602  :     {
; 603  : 		m_uiCurrMaxSize = L;
; 604  : 		m_pData = Alloc(m_uiCurrMaxSize);

	lea	ecx, DWORD PTR [eax+12]
	mov	DWORD PTR [eax+4], 0
	mov	DWORD PTR [eax+8], 1
	mov	DWORD PTR [eax], ecx

; 605  : #ifdef BREAK_ON_STATIC_RESIZE
; 606  : 		m_iNumResized = 0;
; 607  : #endif
; 608  :     };

	ret	0
??0?$FStaticVector@UWeightedElement@?$CvWeightedVector@H$00$0A@@@$00$0A@$0A@$0A@@@QAE@XZ ENDP ; FStaticVector<CvWeightedVector<int,1,0>::WeightedElement,1,0,0,0>::FStaticVector<CvWeightedVector<int,1,0>::WeightedElement,1,0,0,0>
_TEXT	ENDS
PUBLIC	?Destroy@?$BaseVector@UVoteCommitment@CvLeagueAI@@$0A@@@IAEXPAUVoteCommitment@CvLeagueAI@@I@Z ; BaseVector<CvLeagueAI::VoteCommitment,0>::Destroy
; Function compile flags: /Ogtpy
;	COMDAT ?Destroy@?$BaseVector@UVoteCommitment@CvLeagueAI@@$0A@@@IAEXPAUVoteCommitment@CvLeagueAI@@I@Z
_TEXT	SEGMENT
_pVal$ = 8						; size = 4
_uiNumElements$ = 12					; size = 4
?Destroy@?$BaseVector@UVoteCommitment@CvLeagueAI@@$0A@@@IAEXPAUVoteCommitment@CvLeagueAI@@I@Z PROC ; BaseVector<CvLeagueAI::VoteCommitment,0>::Destroy, COMDAT
; _this$ = ecx

; 220  : 	{

	push	edi

; 221  : 		if( !bPODType){
; 222  : 			for(unsigned int i = 0; i < uiNumElements; ++i){

	mov	edi, DWORD PTR _uiNumElements$[esp]
	test	edi, edi
	jbe	SHORT $LN1@Destroy
	push	esi
	mov	esi, DWORD PTR _pVal$[esp+4]
	npad	2
$LL3@Destroy:

; 223  : 				pVal[i].~T();

	mov	ecx, esi
	call	??1VoteCommitment@CvLeagueAI@@QAE@XZ	; CvLeagueAI::VoteCommitment::~VoteCommitment
	add	esi, 20					; 00000014H
	sub	edi, 1
	jne	SHORT $LL3@Destroy
	pop	esi
$LN1@Destroy:
	pop	edi

; 224  : 			}
; 225  : 		}
; 226  : 	};

	ret	8
?Destroy@?$BaseVector@UVoteCommitment@CvLeagueAI@@$0A@@@IAEXPAUVoteCommitment@CvLeagueAI@@I@Z ENDP ; BaseVector<CvLeagueAI::VoteCommitment,0>::Destroy
_TEXT	ENDS
PUBLIC	??0?$base_iterator@Vbase_iterator_tail@?$FCustomList_Core@U?$MultiListNodePolicy@UCvTradedItem@@@@V?$FFastAllocator@U?$MultiListNodePolicy@UCvTradedItem@@@@$0A@$0BF@$0A@UFDefaultFastVectorAllocator@?$BaseVector@U?$MultiListNodePolicy@UCvTradedItem@@@@$0A@@@@@V?$FCustomList_Tail_Member@V?$FFastAllocator@U?$MultiListNodePolicy@UCvTradedItem@@@@$0A@$0BF@$0A@UFDefaultFastVectorAllocator@?$BaseVector@U?$MultiListNodePolicy@UCvTradedItem@@@@$0A@@@@@@@@@@?$FCustomList_Core@U?$MultiListNodePolicy@UCvTradedItem@@@@V?$FFastAllocator@U?$MultiListNodePolicy@UCvTradedItem@@@@$0A@$0BF@$0A@UFDefaultFastVectorAllocator@?$BaseVector@U?$MultiListNodePolicy@UCvTradedItem@@@@$0A@@@@@V?$FCustomList_Tail_Member@V?$FFastAllocator@U?$MultiListNodePolicy@UCvTradedItem@@@@$0A@$0BF@$0A@UFDefaultFastVectorAllocator@?$BaseVector@U?$MultiListNodePolicy@UCvTradedItem@@@@$0A@@@@@@@@@QAE@XZ ; FCustomList_Core<MultiListNodePolicy<CvTradedItem>,FFastAllocator<MultiListNodePolicy<CvTradedItem>,0,21,0,BaseVector<MultiListNodePolicy<CvTradedItem>,0>::FDefaultFastVectorAllocator>,FCustomList_Tail_Member<FFastAllocator<MultiListNodePolicy<CvTradedItem>,0,21,0,BaseVector<MultiListNodePolicy<CvTradedItem>,0>::FDefaultFastVectorAllocator> > >::base_iterator<FCustomList_Core<MultiListNodePolicy<CvTradedItem>,FFastAllocator<MultiListNodePolicy<CvTradedItem>,0,21,0,BaseVector<MultiListNodePolicy<CvTradedItem>,0>::FDefaultFastVectorAllocator>,FCustomList_Tail_Member<FFastAllocator<MultiListNodePolicy<CvTradedItem>,0,21,0,BaseVector<MultiListNodePolicy<CvTradedItem>,0>::FDefaultFastVectorAllocator> > >::base_iterator_tail>::base_iterator<FCustomList_Core<MultiListNodePolicy<CvTradedItem>,FFastAllocator<MultiListNodePolicy<CvTradedItem>,0,21,0,BaseVector<MultiListNodePolicy<CvTradedItem>,0>::FDefaultFastVectorAllocator>,FCustomList_Tail_Member<FFastAllocator<MultiListNodePolicy<CvTradedItem>,0,21,0,BaseVector<MultiListNodePolicy<CvTradedItem>,0>::FDefaultFastVectorAllocator> > >::base_iterator_tail>
; Function compile flags: /Ogtpy
; File c:\users\enormousapplepie\desktop\lekmod files\lekmod dll versions\v29\lekmod_dll\fireplace\include\fireworks\ffastlist.h
;	COMDAT ??0?$base_iterator@Vbase_iterator_tail@?$FCustomList_Core@U?$MultiListNodePolicy@UCvTradedItem@@@@V?$FFastAllocator@U?$MultiListNodePolicy@UCvTradedItem@@@@$0A@$0BF@$0A@UFDefaultFastVectorAllocator@?$BaseVector@U?$MultiListNodePolicy@UCvTradedItem@@@@$0A@@@@@V?$FCustomList_Tail_Member@V?$FFastAllocator@U?$MultiListNodePolicy@UCvTradedItem@@@@$0A@$0BF@$0A@UFDefaultFastVectorAllocator@?$BaseVector@U?$MultiListNodePolicy@UCvTradedItem@@@@$0A@@@@@@@@@@?$FCustomList_Core@U?$MultiListNodePolicy@UCvTradedItem@@@@V?$FFastAllocator@U?$MultiListNodePolicy@UCvTradedItem@@@@$0A@$0BF@$0A@UFDefaultFastVectorAllocator@?$BaseVector@U?$MultiListNodePolicy@UCvTradedItem@@@@$0A@@@@@V?$FCustomList_Tail_Member@V?$FFastAllocator@U?$MultiListNodePolicy@UCvTradedItem@@@@$0A@$0BF@$0A@UFDefaultFastVectorAllocator@?$BaseVector@U?$MultiListNodePolicy@UCvTradedItem@@@@$0A@@@@@@@@@QAE@XZ
_TEXT	SEGMENT
??0?$base_iterator@Vbase_iterator_tail@?$FCustomList_Core@U?$MultiListNodePolicy@UCvTradedItem@@@@V?$FFastAllocator@U?$MultiListNodePolicy@UCvTradedItem@@@@$0A@$0BF@$0A@UFDefaultFastVectorAllocator@?$BaseVector@U?$MultiListNodePolicy@UCvTradedItem@@@@$0A@@@@@V?$FCustomList_Tail_Member@V?$FFastAllocator@U?$MultiListNodePolicy@UCvTradedItem@@@@$0A@$0BF@$0A@UFDefaultFastVectorAllocator@?$BaseVector@U?$MultiListNodePolicy@UCvTradedItem@@@@$0A@@@@@@@@@@?$FCustomList_Core@U?$MultiListNodePolicy@UCvTradedItem@@@@V?$FFastAllocator@U?$MultiListNodePolicy@UCvTradedItem@@@@$0A@$0BF@$0A@UFDefaultFastVectorAllocator@?$BaseVector@U?$MultiListNodePolicy@UCvTradedItem@@@@$0A@@@@@V?$FCustomList_Tail_Member@V?$FFastAllocator@U?$MultiListNodePolicy@UCvTradedItem@@@@$0A@$0BF@$0A@UFDefaultFastVectorAllocator@?$BaseVector@U?$MultiListNodePolicy@UCvTradedItem@@@@$0A@@@@@@@@@QAE@XZ PROC ; FCustomList_Core<MultiListNodePolicy<CvTradedItem>,FFastAllocator<MultiListNodePolicy<CvTradedItem>,0,21,0,BaseVector<MultiListNodePolicy<CvTradedItem>,0>::FDefaultFastVectorAllocator>,FCustomList_Tail_Member<FFastAllocator<MultiListNodePolicy<CvTradedItem>,0,21,0,BaseVector<MultiListNodePolicy<CvTradedItem>,0>::FDefaultFastVectorAllocator> > >::base_iterator<FCustomList_Core<MultiListNodePolicy<CvTradedItem>,FFastAllocator<MultiListNodePolicy<CvTradedItem>,0,21,0,BaseVector<MultiListNodePolicy<CvTradedItem>,0>::FDefaultFastVectorAllocator>,FCustomList_Tail_Member<FFastAllocator<MultiListNodePolicy<CvTradedItem>,0,21,0,BaseVector<MultiListNodePolicy<CvTradedItem>,0>::FDefaultFastVectorAllocator> > >::base_iterator_tail>::base_iterator<FCustomList_Core<MultiListNodePolicy<CvTradedItem>,FFastAllocator<MultiListNodePolicy<CvTradedItem>,0,21,0,BaseVector<MultiListNodePolicy<CvTradedItem>,0>::FDefaultFastVectorAllocator>,FCustomList_Tail_Member<FFastAllocator<MultiListNodePolicy<CvTradedItem>,0,21,0,BaseVector<MultiListNodePolicy<CvTradedItem>,0>::FDefaultFastVectorAllocator> > >::base_iterator_tail>, COMDAT
; _this$ = ecx

; 293  : 		explicit base_iterator() : m_uiCurrPos( ANCHOR_NODE_INDEX ), TAIL(NULL) {};

	mov	eax, ecx
	mov	DWORD PTR [eax], 0
	mov	DWORD PTR [eax+4], 268435455		; 0fffffffH
	ret	0
??0?$base_iterator@Vbase_iterator_tail@?$FCustomList_Core@U?$MultiListNodePolicy@UCvTradedItem@@@@V?$FFastAllocator@U?$MultiListNodePolicy@UCvTradedItem@@@@$0A@$0BF@$0A@UFDefaultFastVectorAllocator@?$BaseVector@U?$MultiListNodePolicy@UCvTradedItem@@@@$0A@@@@@V?$FCustomList_Tail_Member@V?$FFastAllocator@U?$MultiListNodePolicy@UCvTradedItem@@@@$0A@$0BF@$0A@UFDefaultFastVectorAllocator@?$BaseVector@U?$MultiListNodePolicy@UCvTradedItem@@@@$0A@@@@@@@@@@?$FCustomList_Core@U?$MultiListNodePolicy@UCvTradedItem@@@@V?$FFastAllocator@U?$MultiListNodePolicy@UCvTradedItem@@@@$0A@$0BF@$0A@UFDefaultFastVectorAllocator@?$BaseVector@U?$MultiListNodePolicy@UCvTradedItem@@@@$0A@@@@@V?$FCustomList_Tail_Member@V?$FFastAllocator@U?$MultiListNodePolicy@UCvTradedItem@@@@$0A@$0BF@$0A@UFDefaultFastVectorAllocator@?$BaseVector@U?$MultiListNodePolicy@UCvTradedItem@@@@$0A@@@@@@@@@QAE@XZ ENDP ; FCustomList_Core<MultiListNodePolicy<CvTradedItem>,FFastAllocator<MultiListNodePolicy<CvTradedItem>,0,21,0,BaseVector<MultiListNodePolicy<CvTradedItem>,0>::FDefaultFastVectorAllocator>,FCustomList_Tail_Member<FFastAllocator<MultiListNodePolicy<CvTradedItem>,0,21,0,BaseVector<MultiListNodePolicy<CvTradedItem>,0>::FDefaultFastVectorAllocator> > >::base_iterator<FCustomList_Core<MultiListNodePolicy<CvTradedItem>,FFastAllocator<MultiListNodePolicy<CvTradedItem>,0,21,0,BaseVector<MultiListNodePolicy<CvTradedItem>,0>::FDefaultFastVectorAllocator>,FCustomList_Tail_Member<FFastAllocator<MultiListNodePolicy<CvTradedItem>,0,21,0,BaseVector<MultiListNodePolicy<CvTradedItem>,0>::FDefaultFastVectorAllocator> > >::base_iterator_tail>::base_iterator<FCustomList_Core<MultiListNodePolicy<CvTradedItem>,FFastAllocator<MultiListNodePolicy<CvTradedItem>,0,21,0,BaseVector<MultiListNodePolicy<CvTradedItem>,0>::FDefaultFastVectorAllocator>,FCustomList_Tail_Member<FFastAllocator<MultiListNodePolicy<CvTradedItem>,0,21,0,BaseVector<MultiListNodePolicy<CvTradedItem>,0>::FDefaultFastVectorAllocator> > >::base_iterator_tail>
_TEXT	ENDS
PUBLIC	?Free@?$FStaticVector@UWeightedElement@?$CvWeightedVector@H$00$0A@@@$00$0A@$0A@$0A@@@IAEXPAUWeightedElement@?$CvWeightedVector@H$00$0A@@@I@Z ; FStaticVector<CvWeightedVector<int,1,0>::WeightedElement,1,0,0,0>::Free
EXTRN	?FireFreeAlignedNoTracking@@YAXPAX@Z:PROC	; FireFreeAlignedNoTracking
; Function compile flags: /Ogtpy
; File c:\users\enormousapplepie\desktop\lekmod files\lekmod dll versions\v29\lekmod_dll\fireplace\include\fireworks\ffastvector.h
;	COMDAT ?Free@?$FStaticVector@UWeightedElement@?$CvWeightedVector@H$00$0A@@@$00$0A@$0A@$0A@@@IAEXPAUWeightedElement@?$CvWeightedVector@H$00$0A@@@I@Z
_TEXT	SEGMENT
_pVal$ = 8						; size = 4
_uiNumElements$ = 12					; size = 4
?Free@?$FStaticVector@UWeightedElement@?$CvWeightedVector@H$00$0A@@@$00$0A@$0A@$0A@@@IAEXPAUWeightedElement@?$CvWeightedVector@H$00$0A@@@I@Z PROC ; FStaticVector<CvWeightedVector<int,1,0>::WeightedElement,1,0,0,0>::Free, COMDAT
; _this$ = ecx

; 810  : 		if( !bPODType) Destroy(pVal, uiNumElements);
; 811  : 		if( pVal != (T*)m_aData )

	mov	eax, DWORD PTR _pVal$[esp-4]
	add	ecx, 12					; 0000000cH
	cmp	eax, ecx
	je	SHORT $LN1@Free

; 812  : 			FFREEALIGNED( (unsigned char*)pVal );

	push	eax
	call	?FireFreeAlignedNoTracking@@YAXPAX@Z	; FireFreeAlignedNoTracking
	pop	ecx
$LN1@Free:

; 813  : 	};

	ret	8
?Free@?$FStaticVector@UWeightedElement@?$CvWeightedVector@H$00$0A@@@$00$0A@$0A@$0A@@@IAEXPAUWeightedElement@?$CvWeightedVector@H$00$0A@@@I@Z ENDP ; FStaticVector<CvWeightedVector<int,1,0>::WeightedElement,1,0,0,0>::Free
_TEXT	ENDS
PUBLIC	??0?$base_iterator@Vbase_iterator_tail@?$FCustomList_Core@U?$MultiListNodePolicy@UCvTradedItem@@@@V?$FFastAllocator@U?$MultiListNodePolicy@UCvTradedItem@@@@$0A@$0BF@$0A@UFDefaultFastVectorAllocator@?$BaseVector@U?$MultiListNodePolicy@UCvTradedItem@@@@$0A@@@@@V?$FCustomList_Tail_Member@V?$FFastAllocator@U?$MultiListNodePolicy@UCvTradedItem@@@@$0A@$0BF@$0A@UFDefaultFastVectorAllocator@?$BaseVector@U?$MultiListNodePolicy@UCvTradedItem@@@@$0A@@@@@@@@@@?$FCustomList_Core@U?$MultiListNodePolicy@UCvTradedItem@@@@V?$FFastAllocator@U?$MultiListNodePolicy@UCvTradedItem@@@@$0A@$0BF@$0A@UFDefaultFastVectorAllocator@?$BaseVector@U?$MultiListNodePolicy@UCvTradedItem@@@@$0A@@@@@V?$FCustomList_Tail_Member@V?$FFastAllocator@U?$MultiListNodePolicy@UCvTradedItem@@@@$0A@$0BF@$0A@UFDefaultFastVectorAllocator@?$BaseVector@U?$MultiListNodePolicy@UCvTradedItem@@@@$0A@@@@@@@@@QAE@IPAV1@@Z ; FCustomList_Core<MultiListNodePolicy<CvTradedItem>,FFastAllocator<MultiListNodePolicy<CvTradedItem>,0,21,0,BaseVector<MultiListNodePolicy<CvTradedItem>,0>::FDefaultFastVectorAllocator>,FCustomList_Tail_Member<FFastAllocator<MultiListNodePolicy<CvTradedItem>,0,21,0,BaseVector<MultiListNodePolicy<CvTradedItem>,0>::FDefaultFastVectorAllocator> > >::base_iterator<FCustomList_Core<MultiListNodePolicy<CvTradedItem>,FFastAllocator<MultiListNodePolicy<CvTradedItem>,0,21,0,BaseVector<MultiListNodePolicy<CvTradedItem>,0>::FDefaultFastVectorAllocator>,FCustomList_Tail_Member<FFastAllocator<MultiListNodePolicy<CvTradedItem>,0,21,0,BaseVector<MultiListNodePolicy<CvTradedItem>,0>::FDefaultFastVectorAllocator> > >::base_iterator_tail>::base_iterator<FCustomList_Core<MultiListNodePolicy<CvTradedItem>,FFastAllocator<MultiListNodePolicy<CvTradedItem>,0,21,0,BaseVector<MultiListNodePolicy<CvTradedItem>,0>::FDefaultFastVectorAllocator>,FCustomList_Tail_Member<FFastAllocator<MultiListNodePolicy<CvTradedItem>,0,21,0,BaseVector<MultiListNodePolicy<CvTradedItem>,0>::FDefaultFastVectorAllocator> > >::base_iterator_tail>
; Function compile flags: /Ogtpy
; File c:\users\enormousapplepie\desktop\lekmod files\lekmod dll versions\v29\lekmod_dll\fireplace\include\fireworks\ffastlist.h
;	COMDAT ??0?$base_iterator@Vbase_iterator_tail@?$FCustomList_Core@U?$MultiListNodePolicy@UCvTradedItem@@@@V?$FFastAllocator@U?$MultiListNodePolicy@UCvTradedItem@@@@$0A@$0BF@$0A@UFDefaultFastVectorAllocator@?$BaseVector@U?$MultiListNodePolicy@UCvTradedItem@@@@$0A@@@@@V?$FCustomList_Tail_Member@V?$FFastAllocator@U?$MultiListNodePolicy@UCvTradedItem@@@@$0A@$0BF@$0A@UFDefaultFastVectorAllocator@?$BaseVector@U?$MultiListNodePolicy@UCvTradedItem@@@@$0A@@@@@@@@@@?$FCustomList_Core@U?$MultiListNodePolicy@UCvTradedItem@@@@V?$FFastAllocator@U?$MultiListNodePolicy@UCvTradedItem@@@@$0A@$0BF@$0A@UFDefaultFastVectorAllocator@?$BaseVector@U?$MultiListNodePolicy@UCvTradedItem@@@@$0A@@@@@V?$FCustomList_Tail_Member@V?$FFastAllocator@U?$MultiListNodePolicy@UCvTradedItem@@@@$0A@$0BF@$0A@UFDefaultFastVectorAllocator@?$BaseVector@U?$MultiListNodePolicy@UCvTradedItem@@@@$0A@@@@@@@@@QAE@IPAV1@@Z
_TEXT	SEGMENT
_uiPos$ = 8						; size = 4
_pVec$ = 12						; size = 4
??0?$base_iterator@Vbase_iterator_tail@?$FCustomList_Core@U?$MultiListNodePolicy@UCvTradedItem@@@@V?$FFastAllocator@U?$MultiListNodePolicy@UCvTradedItem@@@@$0A@$0BF@$0A@UFDefaultFastVectorAllocator@?$BaseVector@U?$MultiListNodePolicy@UCvTradedItem@@@@$0A@@@@@V?$FCustomList_Tail_Member@V?$FFastAllocator@U?$MultiListNodePolicy@UCvTradedItem@@@@$0A@$0BF@$0A@UFDefaultFastVectorAllocator@?$BaseVector@U?$MultiListNodePolicy@UCvTradedItem@@@@$0A@@@@@@@@@@?$FCustomList_Core@U?$MultiListNodePolicy@UCvTradedItem@@@@V?$FFastAllocator@U?$MultiListNodePolicy@UCvTradedItem@@@@$0A@$0BF@$0A@UFDefaultFastVectorAllocator@?$BaseVector@U?$MultiListNodePolicy@UCvTradedItem@@@@$0A@@@@@V?$FCustomList_Tail_Member@V?$FFastAllocator@U?$MultiListNodePolicy@UCvTradedItem@@@@$0A@$0BF@$0A@UFDefaultFastVectorAllocator@?$BaseVector@U?$MultiListNodePolicy@UCvTradedItem@@@@$0A@@@@@@@@@QAE@IPAV1@@Z PROC ; FCustomList_Core<MultiListNodePolicy<CvTradedItem>,FFastAllocator<MultiListNodePolicy<CvTradedItem>,0,21,0,BaseVector<MultiListNodePolicy<CvTradedItem>,0>::FDefaultFastVectorAllocator>,FCustomList_Tail_Member<FFastAllocator<MultiListNodePolicy<CvTradedItem>,0,21,0,BaseVector<MultiListNodePolicy<CvTradedItem>,0>::FDefaultFastVectorAllocator> > >::base_iterator<FCustomList_Core<MultiListNodePolicy<CvTradedItem>,FFastAllocator<MultiListNodePolicy<CvTradedItem>,0,21,0,BaseVector<MultiListNodePolicy<CvTradedItem>,0>::FDefaultFastVectorAllocator>,FCustomList_Tail_Member<FFastAllocator<MultiListNodePolicy<CvTradedItem>,0,21,0,BaseVector<MultiListNodePolicy<CvTradedItem>,0>::FDefaultFastVectorAllocator> > >::base_iterator_tail>::base_iterator<FCustomList_Core<MultiListNodePolicy<CvTradedItem>,FFastAllocator<MultiListNodePolicy<CvTradedItem>,0,21,0,BaseVector<MultiListNodePolicy<CvTradedItem>,0>::FDefaultFastVectorAllocator>,FCustomList_Tail_Member<FFastAllocator<MultiListNodePolicy<CvTradedItem>,0,21,0,BaseVector<MultiListNodePolicy<CvTradedItem>,0>::FDefaultFastVectorAllocator> > >::base_iterator_tail>, COMDAT
; _this$ = ecx

; 295  : 			: m_uiCurrPos( uiPos ), TAIL( pVec ) {};

	mov	edx, DWORD PTR _uiPos$[esp-4]
	mov	eax, ecx
	mov	ecx, DWORD PTR _pVec$[esp-4]
	mov	DWORD PTR [eax], ecx
	mov	DWORD PTR [eax+4], edx
	ret	8
??0?$base_iterator@Vbase_iterator_tail@?$FCustomList_Core@U?$MultiListNodePolicy@UCvTradedItem@@@@V?$FFastAllocator@U?$MultiListNodePolicy@UCvTradedItem@@@@$0A@$0BF@$0A@UFDefaultFastVectorAllocator@?$BaseVector@U?$MultiListNodePolicy@UCvTradedItem@@@@$0A@@@@@V?$FCustomList_Tail_Member@V?$FFastAllocator@U?$MultiListNodePolicy@UCvTradedItem@@@@$0A@$0BF@$0A@UFDefaultFastVectorAllocator@?$BaseVector@U?$MultiListNodePolicy@UCvTradedItem@@@@$0A@@@@@@@@@@?$FCustomList_Core@U?$MultiListNodePolicy@UCvTradedItem@@@@V?$FFastAllocator@U?$MultiListNodePolicy@UCvTradedItem@@@@$0A@$0BF@$0A@UFDefaultFastVectorAllocator@?$BaseVector@U?$MultiListNodePolicy@UCvTradedItem@@@@$0A@@@@@V?$FCustomList_Tail_Member@V?$FFastAllocator@U?$MultiListNodePolicy@UCvTradedItem@@@@$0A@$0BF@$0A@UFDefaultFastVectorAllocator@?$BaseVector@U?$MultiListNodePolicy@UCvTradedItem@@@@$0A@@@@@@@@@QAE@IPAV1@@Z ENDP ; FCustomList_Core<MultiListNodePolicy<CvTradedItem>,FFastAllocator<MultiListNodePolicy<CvTradedItem>,0,21,0,BaseVector<MultiListNodePolicy<CvTradedItem>,0>::FDefaultFastVectorAllocator>,FCustomList_Tail_Member<FFastAllocator<MultiListNodePolicy<CvTradedItem>,0,21,0,BaseVector<MultiListNodePolicy<CvTradedItem>,0>::FDefaultFastVectorAllocator> > >::base_iterator<FCustomList_Core<MultiListNodePolicy<CvTradedItem>,FFastAllocator<MultiListNodePolicy<CvTradedItem>,0,21,0,BaseVector<MultiListNodePolicy<CvTradedItem>,0>::FDefaultFastVectorAllocator>,FCustomList_Tail_Member<FFastAllocator<MultiListNodePolicy<CvTradedItem>,0,21,0,BaseVector<MultiListNodePolicy<CvTradedItem>,0>::FDefaultFastVectorAllocator> > >::base_iterator_tail>::base_iterator<FCustomList_Core<MultiListNodePolicy<CvTradedItem>,FFastAllocator<MultiListNodePolicy<CvTradedItem>,0,21,0,BaseVector<MultiListNodePolicy<CvTradedItem>,0>::FDefaultFastVectorAllocator>,FCustomList_Tail_Member<FFastAllocator<MultiListNodePolicy<CvTradedItem>,0,21,0,BaseVector<MultiListNodePolicy<CvTradedItem>,0>::FDefaultFastVectorAllocator> > >::base_iterator_tail>
_TEXT	ENDS
PUBLIC	??$?BVICvDeal1@@@?$auto_ptr@VICvDeal1@@@std@@QAE?AU?$auto_ptr_ref@VICvDeal1@@@1@XZ ; std::auto_ptr<ICvDeal1>::operator<ICvDeal1> std::auto_ptr_ref<ICvDeal1>
; Function compile flags: /Ogtpy
; File c:\program files (x86)\microsoft visual studio 9.0\vc\include\memory
;	COMDAT ??$?BVICvDeal1@@@?$auto_ptr@VICvDeal1@@@std@@QAE?AU?$auto_ptr_ref@VICvDeal1@@@1@XZ
_TEXT	SEGMENT
___$ReturnUdt$ = 8					; size = 4
??$?BVICvDeal1@@@?$auto_ptr@VICvDeal1@@@std@@QAE?AU?$auto_ptr_ref@VICvDeal1@@@1@XZ PROC ; std::auto_ptr<ICvDeal1>::operator<ICvDeal1> std::auto_ptr_ref<ICvDeal1>, COMDAT
; _this$ = ecx

; 684  : 		{	// convert to compatible auto_ptr_ref
; 685  : 		_Other *_Cvtptr = _Myptr;	// test implicit conversion
; 686  : 		auto_ptr_ref<_Other> _Ans(_Cvtptr);

	mov	edx, DWORD PTR [ecx]
	mov	eax, DWORD PTR ___$ReturnUdt$[esp-4]
	mov	DWORD PTR [eax], edx

; 687  : 		_Myptr = 0;	// pass ownership to auto_ptr_ref

	mov	DWORD PTR [ecx], 0

; 688  : 		return (_Ans);
; 689  : 		}

	ret	4
??$?BVICvDeal1@@@?$auto_ptr@VICvDeal1@@@std@@QAE?AU?$auto_ptr_ref@VICvDeal1@@@1@XZ ENDP ; std::auto_ptr<ICvDeal1>::operator<ICvDeal1> std::auto_ptr_ref<ICvDeal1>
_TEXT	ENDS
PUBLIC	??$iter_swap@PAUWeightedElement@?$CvWeightedVector@H$00$0A@@@PAU12@@std@@YAXPAUWeightedElement@?$CvWeightedVector@H$00$0A@@@0@Z ; std::iter_swap<CvWeightedVector<int,1,0>::WeightedElement *,CvWeightedVector<int,1,0>::WeightedElement *>
; Function compile flags: /Ogtpy
; File c:\program files (x86)\microsoft visual studio 9.0\vc\include\algorithm
;	COMDAT ??$iter_swap@PAUWeightedElement@?$CvWeightedVector@H$00$0A@@@PAU12@@std@@YAXPAUWeightedElement@?$CvWeightedVector@H$00$0A@@@0@Z
_TEXT	SEGMENT
__Left$ = 8						; size = 4
__Right$ = 12						; size = 4
??$iter_swap@PAUWeightedElement@?$CvWeightedVector@H$00$0A@@@PAU12@@std@@YAXPAUWeightedElement@?$CvWeightedVector@H$00$0A@@@0@Z PROC ; std::iter_swap<CvWeightedVector<int,1,0>::WeightedElement *,CvWeightedVector<int,1,0>::WeightedElement *>, COMDAT

; 594  : 	swap(*_Left, *_Right);

	mov	eax, DWORD PTR __Left$[esp-4]
	mov	ecx, DWORD PTR __Right$[esp-4]
	cmp	eax, ecx
	je	SHORT $LN3@iter_swap
	mov	edx, DWORD PTR [eax]
	push	esi
	mov	esi, DWORD PTR [eax+4]
	push	edi
	mov	edi, DWORD PTR [ecx]
	mov	DWORD PTR [eax], edi
	mov	edi, DWORD PTR [ecx+4]
	mov	DWORD PTR [eax+4], edi
	pop	edi
	mov	DWORD PTR [ecx+4], esi
	mov	DWORD PTR [ecx], edx
	pop	esi
$LN3@iter_swap:

; 595  : 	}

	ret	0
??$iter_swap@PAUWeightedElement@?$CvWeightedVector@H$00$0A@@@PAU12@@std@@YAXPAUWeightedElement@?$CvWeightedVector@H$00$0A@@@0@Z ENDP ; std::iter_swap<CvWeightedVector<int,1,0>::WeightedElement *,CvWeightedVector<int,1,0>::WeightedElement *>
_TEXT	ENDS
PUBLIC	??$_Med3@PAUWeightedElement@?$CvWeightedVector@H$00$0A@@@@std@@YAXPAUWeightedElement@?$CvWeightedVector@H$00$0A@@@00@Z ; std::_Med3<CvWeightedVector<int,1,0>::WeightedElement *>
; Function compile flags: /Ogtpy
;	COMDAT ??$_Med3@PAUWeightedElement@?$CvWeightedVector@H$00$0A@@@@std@@YAXPAUWeightedElement@?$CvWeightedVector@H$00$0A@@@00@Z
_TEXT	SEGMENT
__First$ = 8						; size = 4
__Mid$ = 12						; size = 4
__Last$ = 16						; size = 4
??$_Med3@PAUWeightedElement@?$CvWeightedVector@H$00$0A@@@@std@@YAXPAUWeightedElement@?$CvWeightedVector@H$00$0A@@@00@Z PROC ; std::_Med3<CvWeightedVector<int,1,0>::WeightedElement *>, COMDAT

; 2999 : 	if (_DEBUG_LT(*_Mid, *_First))

	mov	eax, DWORD PTR __Mid$[esp-4]
	mov	ecx, DWORD PTR __First$[esp-4]
	mov	edx, DWORD PTR [eax+4]
	cmp	edx, DWORD PTR [ecx+4]
	push	esi
	push	edi
	jle	SHORT $LN10@Med3

; 3000 : 		std::iter_swap(_Mid, _First);

	cmp	eax, ecx
	je	SHORT $LN10@Med3
	mov	edi, DWORD PTR [ecx]
	mov	esi, DWORD PTR [eax]
	mov	DWORD PTR [eax], edi
	mov	edi, DWORD PTR [ecx+4]
	mov	DWORD PTR [eax+4], edi
	mov	DWORD PTR [ecx], esi
	mov	DWORD PTR [ecx+4], edx
$LN10@Med3:

; 3001 : 	if (_DEBUG_LT(*_Last, *_Mid))

	mov	edx, DWORD PTR __Last$[esp+4]
	mov	esi, DWORD PTR [edx+4]
	cmp	esi, DWORD PTR [eax+4]
	jle	SHORT $LN19@Med3

; 3002 : 		std::iter_swap(_Last, _Mid);

	cmp	edx, eax
	je	SHORT $LN19@Med3
	mov	edi, DWORD PTR [edx]
	push	ebx
	mov	ebx, DWORD PTR [eax]
	mov	DWORD PTR [edx], ebx
	mov	ebx, DWORD PTR [eax+4]
	mov	DWORD PTR [edx+4], ebx
	mov	DWORD PTR [eax], edi
	mov	DWORD PTR [eax+4], esi
	pop	ebx
$LN19@Med3:

; 3003 : 	if (_DEBUG_LT(*_Mid, *_First))

	mov	edx, DWORD PTR [eax+4]
	cmp	edx, DWORD PTR [ecx+4]
	jle	SHORT $LN28@Med3

; 3004 : 		std::iter_swap(_Mid, _First);

	cmp	eax, ecx
	je	SHORT $LN28@Med3
	mov	edi, DWORD PTR [ecx]
	mov	esi, DWORD PTR [eax]
	mov	DWORD PTR [eax], edi
	mov	edi, DWORD PTR [ecx+4]
	mov	DWORD PTR [eax+4], edi
	mov	DWORD PTR [ecx], esi
	mov	DWORD PTR [ecx+4], edx
$LN28@Med3:
	pop	edi
	pop	esi

; 3005 : 	}

	ret	0
??$_Med3@PAUWeightedElement@?$CvWeightedVector@H$00$0A@@@@std@@YAXPAUWeightedElement@?$CvWeightedVector@H$00$0A@@@00@Z ENDP ; std::_Med3<CvWeightedVector<int,1,0>::WeightedElement *>
_TEXT	ENDS
PUBLIC	??$_Adjust_heap@PAUWeightedElement@?$CvWeightedVector@H$00$0A@@@HU12@@std@@YAXPAUWeightedElement@?$CvWeightedVector@H$00$0A@@@HHU12@@Z ; std::_Adjust_heap<CvWeightedVector<int,1,0>::WeightedElement *,int,CvWeightedVector<int,1,0>::WeightedElement>
; Function compile flags: /Ogtpy
;	COMDAT ??$_Adjust_heap@PAUWeightedElement@?$CvWeightedVector@H$00$0A@@@HU12@@std@@YAXPAUWeightedElement@?$CvWeightedVector@H$00$0A@@@HHU12@@Z
_TEXT	SEGMENT
__First$ = 8						; size = 4
__Hole$ = 12						; size = 4
__Bottom$ = 16						; size = 4
__Val$ = 20						; size = 8
??$_Adjust_heap@PAUWeightedElement@?$CvWeightedVector@H$00$0A@@@HU12@@std@@YAXPAUWeightedElement@?$CvWeightedVector@H$00$0A@@@HHU12@@Z PROC ; std::_Adjust_heap<CvWeightedVector<int,1,0>::WeightedElement *,int,CvWeightedVector<int,1,0>::WeightedElement>, COMDAT

; 2056 : 	_Diff _Top = _Hole;

	mov	edx, DWORD PTR __Hole$[esp-4]

; 2057 : 	_Diff _Idx = 2 * _Hole + 2;
; 2058 : 
; 2059 : 	for (; _Idx < _Bottom; _Idx = 2 * _Idx + 2)

	mov	ecx, DWORD PTR __First$[esp-4]
	push	ebx
	push	esi
	mov	esi, DWORD PTR __Bottom$[esp+4]
	lea	eax, DWORD PTR [edx+edx+2]
	cmp	eax, esi
	push	edi
	mov	edi, edx
	jge	SHORT $LN14@Adjust_hea
	npad	7
$LL5@Adjust_hea:

; 2060 : 		{	// move _Hole down to larger child
; 2061 : 		if (_DEBUG_LT(*(_First + _Idx), *(_First + (_Idx - 1))))

	mov	ebx, DWORD PTR [ecx+eax*8+4]
	cmp	ebx, DWORD PTR [ecx+eax*8-4]
	jle	SHORT $LN2@Adjust_hea

; 2062 : 			--_Idx;

	dec	eax
$LN2@Adjust_hea:

; 2063 : 		*(_First + _Hole) = *(_First + _Idx), _Hole = _Idx;

	mov	ebx, DWORD PTR [ecx+eax*8]
	mov	DWORD PTR [ecx+edx*8], ebx
	mov	ebx, DWORD PTR [ecx+eax*8+4]
	mov	DWORD PTR [ecx+edx*8+4], ebx
	mov	edx, eax
	lea	eax, DWORD PTR [eax+eax+2]
	cmp	eax, esi
	jl	SHORT $LL5@Adjust_hea
$LN14@Adjust_hea:

; 2064 : 		}
; 2065 : 
; 2066 : 	if (_Idx == _Bottom)

	jne	SHORT $LN1@Adjust_hea

; 2067 : 		{	// only child at bottom, move _Hole down to it
; 2068 : 		*(_First + _Hole) = *(_First + (_Bottom - 1));

	mov	eax, DWORD PTR [ecx+esi*8-8]
	mov	DWORD PTR [ecx+edx*8], eax
	mov	eax, DWORD PTR [ecx+esi*8-4]
	mov	DWORD PTR [ecx+edx*8+4], eax

; 2069 : 		_Hole = _Bottom - 1;

	lea	edx, DWORD PTR [esi-1]
$LN1@Adjust_hea:

; 2070 : 		}
; 2071 : 	std::_Push_heap(_First, _Hole, _Top, _Val);

	mov	esi, DWORD PTR __Val$[esp+8]
	sub	esp, 8
	mov	eax, esp
	push	edi
	mov	DWORD PTR [eax], esi
	mov	esi, DWORD PTR __Val$[esp+24]
	push	edx
	push	ecx
	mov	DWORD PTR [eax+4], esi
	call	??$_Push_heap@PAUWeightedElement@?$CvWeightedVector@H$00$0A@@@HU12@@std@@YAXPAUWeightedElement@?$CvWeightedVector@H$00$0A@@@HHU12@@Z ; std::_Push_heap<CvWeightedVector<int,1,0>::WeightedElement *,int,CvWeightedVector<int,1,0>::WeightedElement>
	add	esp, 20					; 00000014H

; 2072 : 	}

	pop	edi
	pop	esi
	pop	ebx
	ret	0
??$_Adjust_heap@PAUWeightedElement@?$CvWeightedVector@H$00$0A@@@HU12@@std@@YAXPAUWeightedElement@?$CvWeightedVector@H$00$0A@@@HHU12@@Z ENDP ; std::_Adjust_heap<CvWeightedVector<int,1,0>::WeightedElement *,int,CvWeightedVector<int,1,0>::WeightedElement>
_TEXT	ENDS
PUBLIC	??$unchecked_copy_backward@PAUWeightedElement@?$CvWeightedVector@H$00$0A@@@PAU12@@stdext@@YAPAUWeightedElement@?$CvWeightedVector@H$00$0A@@@PAU12@00@Z ; stdext::unchecked_copy_backward<CvWeightedVector<int,1,0>::WeightedElement *,CvWeightedVector<int,1,0>::WeightedElement *>
; Function compile flags: /Ogtpy
; File c:\program files (x86)\microsoft visual studio 9.0\vc\include\xutility
;	COMDAT ??$unchecked_copy_backward@PAUWeightedElement@?$CvWeightedVector@H$00$0A@@@PAU12@@stdext@@YAPAUWeightedElement@?$CvWeightedVector@H$00$0A@@@PAU12@00@Z
_TEXT	SEGMENT
__First$ = 8						; size = 4
__Last$ = 12						; size = 4
__Dest$ = 16						; size = 4
??$unchecked_copy_backward@PAUWeightedElement@?$CvWeightedVector@H$00$0A@@@PAU12@@stdext@@YAPAUWeightedElement@?$CvWeightedVector@H$00$0A@@@PAU12@00@Z PROC ; stdext::unchecked_copy_backward<CvWeightedVector<int,1,0>::WeightedElement *,CvWeightedVector<int,1,0>::WeightedElement *>, COMDAT

; 3637 : 		return (_STD _Copy_backward_opt(_CHECKED_BASE(_First), _CHECKED_BASE(_Last), _Dest,
; 3638 : 			_STD _Iter_random(_First, _Dest), _STD _Ptr_cat(_First, _Dest), _STD _Range_checked_iterator_tag()));

	mov	ecx, DWORD PTR __Last$[esp-4]
	mov	edx, DWORD PTR __First$[esp-4]
	mov	eax, DWORD PTR __Dest$[esp-4]
	cmp	edx, ecx
	je	SHORT $LN7@unchecked_
	push	esi
$LL8@unchecked_:
	mov	esi, DWORD PTR [ecx-8]
	sub	ecx, 8
	sub	eax, 8
	mov	DWORD PTR [eax], esi
	mov	esi, DWORD PTR [ecx+4]
	mov	DWORD PTR [eax+4], esi
	cmp	ecx, edx
	jne	SHORT $LL8@unchecked_
	pop	esi
$LN7@unchecked_:

; 3639 : 	}

	ret	0
??$unchecked_copy_backward@PAUWeightedElement@?$CvWeightedVector@H$00$0A@@@PAU12@@stdext@@YAPAUWeightedElement@?$CvWeightedVector@H$00$0A@@@PAU12@00@Z ENDP ; stdext::unchecked_copy_backward<CvWeightedVector<int,1,0>::WeightedElement *,CvWeightedVector<int,1,0>::WeightedElement *>
_TEXT	ENDS
PUBLIC	??$_Pop_heap@PAUWeightedElement@?$CvWeightedVector@H$00$0A@@@HU12@@std@@YAXPAUWeightedElement@?$CvWeightedVector@H$00$0A@@@00U12@PAH@Z ; std::_Pop_heap<CvWeightedVector<int,1,0>::WeightedElement *,int,CvWeightedVector<int,1,0>::WeightedElement>
; Function compile flags: /Ogtpy
; File c:\program files (x86)\microsoft visual studio 9.0\vc\include\algorithm
;	COMDAT ??$_Pop_heap@PAUWeightedElement@?$CvWeightedVector@H$00$0A@@@HU12@@std@@YAXPAUWeightedElement@?$CvWeightedVector@H$00$0A@@@00U12@PAH@Z
_TEXT	SEGMENT
__First$ = 8						; size = 4
__Last$ = 12						; size = 4
__Dest$ = 16						; size = 4
__Val$ = 20						; size = 8
___formal$ = 28						; size = 4
??$_Pop_heap@PAUWeightedElement@?$CvWeightedVector@H$00$0A@@@HU12@@std@@YAXPAUWeightedElement@?$CvWeightedVector@H$00$0A@@@00U12@PAH@Z PROC ; std::_Pop_heap<CvWeightedVector<int,1,0>::WeightedElement *,int,CvWeightedVector<int,1,0>::WeightedElement>, COMDAT

; 2080 : 	*_Dest = *_First;

	mov	eax, DWORD PTR __First$[esp-4]
	mov	edx, DWORD PTR [eax]
	mov	ecx, DWORD PTR __Dest$[esp-4]
	mov	DWORD PTR [ecx], edx
	mov	edx, DWORD PTR [eax+4]
	mov	DWORD PTR [ecx+4], edx

; 2081 : 	std::_Adjust_heap(_First, _Diff(0), _Diff(_Last - _First), _Val);

	mov	edx, DWORD PTR __Val$[esp-4]
	sub	esp, 8
	mov	ecx, esp
	mov	DWORD PTR [ecx], edx
	mov	edx, DWORD PTR __Val$[esp+8]
	mov	DWORD PTR [ecx+4], edx
	mov	ecx, DWORD PTR __Last$[esp+4]
	sub	ecx, eax
	sar	ecx, 3
	push	ecx
	push	0
	push	eax
	call	??$_Adjust_heap@PAUWeightedElement@?$CvWeightedVector@H$00$0A@@@HU12@@std@@YAXPAUWeightedElement@?$CvWeightedVector@H$00$0A@@@HHU12@@Z ; std::_Adjust_heap<CvWeightedVector<int,1,0>::WeightedElement *,int,CvWeightedVector<int,1,0>::WeightedElement>
	add	esp, 20					; 00000014H

; 2082 : 	}

	ret	0
??$_Pop_heap@PAUWeightedElement@?$CvWeightedVector@H$00$0A@@@HU12@@std@@YAXPAUWeightedElement@?$CvWeightedVector@H$00$0A@@@00U12@PAH@Z ENDP ; std::_Pop_heap<CvWeightedVector<int,1,0>::WeightedElement *,int,CvWeightedVector<int,1,0>::WeightedElement>
_TEXT	ENDS
EXTRN	?sr_TeamTypes@CvPreGame@@3ABV?$vector@W4TeamTypes@@V?$allocator@W4TeamTypes@@@std@@@std@@B:DWORD ; CvPreGame::sr_TeamTypes
; Function compile flags: /Ogtpy
; File c:\users\enormousapplepie\desktop\lekmod files\lekmod dll versions\v29\lekmod_dll\cvgamecoredll_expansion2\cvpregame.h
;	COMDAT ?teamType@CvPreGame@@YA?AW4TeamTypes@@W4PlayerTypes@@@Z
_TEXT	SEGMENT
?teamType@CvPreGame@@YA?AW4TeamTypes@@W4PlayerTypes@@@Z PROC ; CvPreGame::teamType, COMDAT
; _p$ = eax

; 299  : 	if(p >= 0 && p < MAX_PLAYERS)

	cmp	eax, 63					; 0000003fH
	ja	SHORT $LN1@teamType

; 300  : 		return sr_TeamTypes[p];

	mov	ecx, DWORD PTR ?sr_TeamTypes@CvPreGame@@3ABV?$vector@W4TeamTypes@@V?$allocator@W4TeamTypes@@@std@@@std@@B ; CvPreGame::sr_TeamTypes
	mov	edx, DWORD PTR [ecx+4]
	mov	eax, DWORD PTR [edx+eax*4]

; 302  : }

	ret	0
$LN1@teamType:

; 301  : 	return NO_TEAM;

	or	eax, -1

; 302  : }

	ret	0
?teamType@CvPreGame@@YA?AW4TeamTypes@@W4PlayerTypes@@@Z ENDP ; CvPreGame::teamType
_TEXT	ENDS
PUBLIC	?GetID@CvCity@@QBEHXZ				; CvCity::GetID
; Function compile flags: /Ogtpy
; File c:\users\enormousapplepie\desktop\lekmod files\lekmod dll versions\v29\lekmod_dll\cvgamecoredll_expansion2\cvcity.h
;	COMDAT ?GetID@CvCity@@QBEHXZ
_TEXT	SEGMENT
?GetID@CvCity@@QBEHXZ PROC				; CvCity::GetID, COMDAT
; _this$ = ecx

; 331  : 		return m_iID;

	mov	eax, DWORD PTR [ecx+120]

; 332  : 	}

	ret	0
?GetID@CvCity@@QBEHXZ ENDP				; CvCity::GetID
_TEXT	ENDS
PUBLIC	?getX@CvCity@@QBEHXZ				; CvCity::getX
; Function compile flags: /Ogtpy
;	COMDAT ?getX@CvCity@@QBEHXZ
_TEXT	SEGMENT
?getX@CvCity@@QBEHXZ PROC				; CvCity::getX, COMDAT
; _this$ = ecx

; 340  : 		return m_iX;

	mov	eax, DWORD PTR [ecx+96]

; 341  : 	}

	ret	0
?getX@CvCity@@QBEHXZ ENDP				; CvCity::getX
_TEXT	ENDS
PUBLIC	?getY@CvCity@@QBEHXZ				; CvCity::getY
; Function compile flags: /Ogtpy
;	COMDAT ?getY@CvCity@@QBEHXZ
_TEXT	SEGMENT
?getY@CvCity@@QBEHXZ PROC				; CvCity::getY, COMDAT
; _this$ = ecx

; 345  : 		return m_iY;

	mov	eax, DWORD PTR [ecx+108]

; 346  : 	}

	ret	0
?getY@CvCity@@QBEHXZ ENDP				; CvCity::getY
_TEXT	ENDS
PUBLIC	?isAlive@CvPlayer@@QBE_NXZ			; CvPlayer::isAlive
; Function compile flags: /Ogtpy
; File c:\users\enormousapplepie\desktop\lekmod files\lekmod dll versions\v29\lekmod_dll\cvgamecoredll_expansion2\cvplayer.h
;	COMDAT ?isAlive@CvPlayer@@QBE_NXZ
_TEXT	SEGMENT
?isAlive@CvPlayer@@QBE_NXZ PROC				; CvPlayer::isAlive, COMDAT
; _this$ = ecx

; 1092 : 		return m_bAlive;

	mov	al, BYTE PTR [ecx+2256]

; 1093 : 	}

	ret	0
?isAlive@CvPlayer@@QBE_NXZ ENDP				; CvPlayer::isAlive
_TEXT	ENDS
PUBLIC	?GetID@CvPlayer@@QBE?AW4PlayerTypes@@XZ		; CvPlayer::GetID
; Function compile flags: /Ogtpy
;	COMDAT ?GetID@CvPlayer@@QBE?AW4PlayerTypes@@XZ
_TEXT	SEGMENT
?GetID@CvPlayer@@QBE?AW4PlayerTypes@@XZ PROC		; CvPlayer::GetID, COMDAT
; _this$ = ecx

; 1168 : 		return m_eID;

	mov	eax, DWORD PTR [ecx+44]

; 1169 : 	}

	ret	0
?GetID@CvPlayer@@QBE?AW4PlayerTypes@@XZ ENDP		; CvPlayer::GetID
_TEXT	ENDS
PUBLIC	?getTeam@CvPlayer@@QBE?AW4TeamTypes@@XZ		; CvPlayer::getTeam
; Function compile flags: /Ogtpy
;	COMDAT ?getTeam@CvPlayer@@QBE?AW4TeamTypes@@XZ
_TEXT	SEGMENT
?getTeam@CvPlayer@@QBE?AW4TeamTypes@@XZ PROC		; CvPlayer::getTeam, COMDAT
; _this$ = ecx

; 1178 : 		return CvPreGame::teamType(m_eID);

	mov	eax, DWORD PTR [ecx+44]
	cmp	eax, 63					; 0000003fH
	ja	SHORT $LN5@getTeam
	mov	ecx, DWORD PTR ?sr_TeamTypes@CvPreGame@@3ABV?$vector@W4TeamTypes@@V?$allocator@W4TeamTypes@@@std@@@std@@B ; CvPreGame::sr_TeamTypes
	mov	edx, DWORD PTR [ecx+4]
	mov	eax, DWORD PTR [edx+eax*4]

; 1179 : 	}

	ret	0

; 1178 : 		return CvPreGame::teamType(m_eID);

$LN5@getTeam:
	or	eax, -1

; 1179 : 	}

	ret	0
?getTeam@CvPlayer@@QBE?AW4TeamTypes@@XZ ENDP		; CvPlayer::getTeam
_TEXT	ENDS
PUBLIC	?isPlot@CvMap@@QBEHHH@Z				; CvMap::isPlot
; Function compile flags: /Ogtpy
; File c:\users\enormousapplepie\desktop\lekmod files\lekmod dll versions\v29\lekmod_dll\cvgamecoredll_expansion2\cvmap.h
;	COMDAT ?isPlot@CvMap@@QBEHHH@Z
_TEXT	SEGMENT
_iX$ = 8						; size = 4
_iY$ = 12						; size = 4
?isPlot@CvMap@@QBEHHH@Z PROC				; CvMap::isPlot, COMDAT
; _this$ = ecx

; 157  : #ifdef AUI_WARNING_FIXES
; 158  : 		return ((iX >= 0) && (uint(iX) < getGridWidth()) && (iY >= 0) && (uint(iY) < getGridHeight()));
; 159  : #else
; 160  : 		return ((iX >= 0) && (iX < getGridWidth()) && (iY >= 0) && (iY < getGridHeight()));

	mov	eax, DWORD PTR _iX$[esp-4]
	test	eax, eax
	jl	SHORT $LN3@isPlot
	cmp	eax, DWORD PTR [ecx+4020]
	jge	SHORT $LN3@isPlot
	mov	eax, DWORD PTR _iY$[esp-4]
	test	eax, eax
	jl	SHORT $LN3@isPlot
	cmp	eax, DWORD PTR [ecx+4024]
	jge	SHORT $LN3@isPlot
	mov	eax, 1

; 161  : #endif
; 162  : 	}

	ret	8
$LN3@isPlot:

; 157  : #ifdef AUI_WARNING_FIXES
; 158  : 		return ((iX >= 0) && (uint(iX) < getGridWidth()) && (iY >= 0) && (uint(iY) < getGridHeight()));
; 159  : #else
; 160  : 		return ((iX >= 0) && (iX < getGridWidth()) && (iY >= 0) && (iY < getGridHeight()));

	xor	eax, eax

; 161  : #endif
; 162  : 	}

	ret	8
?isPlot@CvMap@@QBEHHH@Z ENDP				; CvMap::isPlot
_TEXT	ENDS
PUBLIC	?plotNum@CvMap@@QBEHHH@Z			; CvMap::plotNum
; Function compile flags: /Ogtpy
;	COMDAT ?plotNum@CvMap@@QBEHHH@Z
_TEXT	SEGMENT
_iX$ = 8						; size = 4
_iY$ = 12						; size = 4
?plotNum@CvMap@@QBEHHH@Z PROC				; CvMap::plotNum, COMDAT
; _this$ = ecx

; 183  : 		return ((iY * getGridWidth()) + iX);

	mov	eax, DWORD PTR [ecx+4020]
	imul	eax, DWORD PTR _iY$[esp-4]
	add	eax, DWORD PTR _iX$[esp-4]

; 184  : #endif
; 185  : 	}

	ret	8
?plotNum@CvMap@@QBEHHH@Z ENDP				; CvMap::plotNum
_TEXT	ENDS
PUBLIC	?plot@CvMap@@QBEPAVCvPlot@@HH@Z			; CvMap::plot
; Function compile flags: /Ogtpy
;	COMDAT ?plot@CvMap@@QBEPAVCvPlot@@HH@Z
_TEXT	SEGMENT
_iX$ = 8						; size = 4
_iY$ = 12						; size = 4
?plot@CvMap@@QBEPAVCvPlot@@HH@Z PROC			; CvMap::plot, COMDAT
; _this$ = ecx

; 273  : 		if((iX == INVALID_PLOT_COORD) || (iY == INVALID_PLOT_COORD))

	mov	eax, DWORD PTR _iX$[esp-4]
	push	ebp
	cmp	eax, -2147483647			; 80000001H
	je	$LN1@plot
	mov	ebp, DWORD PTR _iY$[esp]
	cmp	ebp, -2147483647			; 80000001H
	je	$LN1@plot

; 276  : 		}
; 277  : 		int iMapX = coordRange(iX, getGridWidth(), isWrapX());

	cmp	BYTE PTR [ecx+4056], 0
	push	ebx
	push	esi
	mov	esi, DWORD PTR [ecx+4020]
	push	edi
	je	SHORT $LN11@plot
	test	eax, eax
	jge	SHORT $LN13@plot
	cdq
	idiv	esi
	mov	edi, edx
	add	edi, esi
	jmp	SHORT $LN15@plot
$LN13@plot:
	cmp	eax, esi
	jl	SHORT $LN11@plot
	cdq
	idiv	esi
	mov	edi, edx
	jmp	SHORT $LN15@plot
$LN11@plot:
	mov	edi, eax
$LN15@plot:

; 278  : 		int iMapY = coordRange(iY, getGridHeight(), isWrapY());

	cmp	BYTE PTR [ecx+4057], 0
	mov	ebx, DWORD PTR [ecx+4024]
	je	SHORT $LN40@plot
	test	ebp, ebp
	jge	SHORT $LN23@plot
	mov	eax, ebp
	cdq
	idiv	ebx
	add	edx, ebx
	jmp	SHORT $LN25@plot
$LN23@plot:
	cmp	ebp, ebx
	jl	SHORT $LN40@plot
	mov	eax, ebp
	cdq
	idiv	ebx
	jmp	SHORT $LN25@plot
$LN40@plot:
	mov	edx, ebp
$LN25@plot:

; 279  : 		return ((isPlot(iMapX, iMapY)) ? &(m_pMapPlots[plotNum(iMapX, iMapY)]) : NULL);

	test	edi, edi
	jl	SHORT $LN5@plot
	cmp	edi, esi
	jge	SHORT $LN5@plot
	test	edx, edx
	jl	SHORT $LN5@plot
	cmp	edx, ebx
	jge	SHORT $LN5@plot
	imul	esi, edx
	add	esi, edi
	imul	esi, 484				; 000001e4H
	add	esi, DWORD PTR [ecx+4068]
	pop	edi
	mov	eax, esi
	pop	esi
	pop	ebx
	pop	ebp

; 280  : 	}

	ret	8
$LN5@plot:
	pop	edi
	pop	esi
	pop	ebx

; 279  : 		return ((isPlot(iMapX, iMapY)) ? &(m_pMapPlots[plotNum(iMapX, iMapY)]) : NULL);

	xor	eax, eax
	pop	ebp

; 280  : 	}

	ret	8
$LN1@plot:

; 274  : 		{
; 275  : 			return NULL;

	xor	eax, eax
	pop	ebp

; 280  : 	}

	ret	8
?plot@CvMap@@QBEPAVCvPlot@@HH@Z ENDP			; CvMap::plot
_TEXT	ENDS
PUBLIC	?GetTeam@CvDealAI@@QAE?AW4TeamTypes@@XZ		; CvDealAI::GetTeam
; Function compile flags: /Ogtpy
; File c:\users\enormousapplepie\desktop\lekmod files\lekmod dll versions\v29\lekmod_dll\cvgamecoredll_expansion2\cvdealai.cpp
;	COMDAT ?GetTeam@CvDealAI@@QAE?AW4TeamTypes@@XZ
_TEXT	SEGMENT
?GetTeam@CvDealAI@@QAE?AW4TeamTypes@@XZ PROC		; CvDealAI::GetTeam, COMDAT
; _this$ = ecx

; 82   : 	return m_pPlayer->getTeam();

	mov	eax, DWORD PTR [ecx]
	mov	eax, DWORD PTR [eax+44]
	cmp	eax, 63					; 0000003fH
	ja	SHORT $LN7@GetTeam
	mov	ecx, DWORD PTR ?sr_TeamTypes@CvPreGame@@3ABV?$vector@W4TeamTypes@@V?$allocator@W4TeamTypes@@@std@@@std@@B ; CvPreGame::sr_TeamTypes
	mov	edx, DWORD PTR [ecx+4]
	mov	eax, DWORD PTR [edx+eax*4]

; 83   : }

	ret	0

; 82   : 	return m_pPlayer->getTeam();

$LN7@GetTeam:
	or	eax, -1

; 83   : }

	ret	0
?GetTeam@CvDealAI@@QAE?AW4TeamTypes@@XZ ENDP		; CvDealAI::GetTeam
_TEXT	ENDS
PUBLIC	?DoAcceptedDeal@CvDealAI@@QAEXW4PlayerTypes@@ABVCvDeal@@HHH@Z ; CvDealAI::DoAcceptedDeal
EXTRN	??1CvDeal@@UAE@XZ:PROC				; CvDeal::~CvDeal
EXTRN	?GetPeaceTreatyType@CvDeal@@QBE?AW4PeaceTreatyTypes@@XZ:PROC ; CvDeal::GetPeaceTreatyType
EXTRN	?ChangeRecentTradeValue@CvDiplomacyAI@@QAEXW4PlayerTypes@@H@Z:PROC ; CvDiplomacyAI::ChangeRecentTradeValue
EXTRN	?ChangeRecentAssistValue@CvDiplomacyAI@@QAEXW4PlayerTypes@@H@Z:PROC ; CvDiplomacyAI::ChangeRecentAssistValue
EXTRN	?GetRequestingPlayer@CvDeal@@QBE?AW4PlayerTypes@@XZ:PROC ; CvDeal::GetRequestingPlayer
EXTRN	?GetDiploStringForMessage@CvDiplomacyAI@@QAEPBDW4DiploMessageTypes@@W4PlayerTypes@@@Z:PROC ; CvDiplomacyAI::GetDiploStringForMessage
EXTRN	?GetDemandingPlayer@CvDeal@@QBE?AW4PlayerTypes@@XZ:PROC ; CvDeal::GetDemandingPlayer
EXTRN	?isHuman@CvPlayer@@QBE_NXZ:PROC			; CvPlayer::isHuman
EXTRN	?FinalizeDeal@CvGameDeals@@QAE_NW4PlayerTypes@@0_N@Z:PROC ; CvGameDeals::FinalizeDeal
EXTRN	?AddProposedDeal@CvGameDeals@@QAEXVCvDeal@@@Z:PROC ; CvGameDeals::AddProposedDeal
EXTRN	?GetGameDeals@CvGame@@QAEPAVCvGameDeals@@XZ:PROC ; CvGame::GetGameDeals
EXTRN	??0CvDeal@@QAE@ABV0@@Z:PROC			; CvDeal::CvDeal
EXTRN	?PrepareRenewDeal@CvGameDeals@@SAXPAVCvDeal@@PBV2@@Z:PROC ; CvGameDeals::PrepareRenewDeal
EXTRN	?GetDealToRenew@CvDiplomacyAI@@QAEPAVCvDeal@@PAH@Z:PROC ; CvDiplomacyAI::GetDealToRenew
EXTRN	___CxxFrameHandler3:PROC
;	COMDAT xdata$x
; File c:\users\enormousapplepie\desktop\lekmod files\lekmod dll versions\v29\lekmod_dll\cvgamecoredll_expansion2\cvglobals.h
xdata$x	SEGMENT
__unwindtable$?DoAcceptedDeal@CvDealAI@@QAEXW4PlayerTypes@@ABVCvDeal@@HHH@Z DD 0ffffffffH
	DD	FLAT:__unwindfunclet$?DoAcceptedDeal@CvDealAI@@QAEXW4PlayerTypes@@ABVCvDeal@@HHH@Z$0
__ehfuncinfo$?DoAcceptedDeal@CvDealAI@@QAEXW4PlayerTypes@@ABVCvDeal@@HHH@Z DD 019930522H
	DD	01H
	DD	FLAT:__unwindtable$?DoAcceptedDeal@CvDealAI@@QAEXW4PlayerTypes@@ABVCvDeal@@HHH@Z
	DD	2 DUP(00H)
	DD	2 DUP(00H)
	DD	00H
	DD	01H
; Function compile flags: /Ogtpy
; File c:\users\enormousapplepie\desktop\lekmod files\lekmod dll versions\v29\lekmod_dll\cvgamecoredll_expansion2\cvdealai.cpp
xdata$x	ENDS
;	COMDAT ?DoAcceptedDeal@CvDealAI@@QAEXW4PlayerTypes@@ABVCvDeal@@HHH@Z
_TEXT	SEGMENT
_iDealType$ = -20					; size = 4
$T225562 = -16						; size = 4
__$EHRec$ = -12						; size = 12
$T225654 = 8						; size = 4
$T225616 = 8						; size = 4
_szText$221954 = 8					; size = 4
_eFromPlayer$ = 8					; size = 4
_kDeal$ = 12						; size = 4
_iDealValueToMe$ = 16					; size = 4
_iValueImOffering$ = 20					; size = 4
_iValueTheyreOffering$ = 24				; size = 4
?DoAcceptedDeal@CvDealAI@@QAEXW4PlayerTypes@@ABVCvDeal@@HHH@Z PROC ; CvDealAI::DoAcceptedDeal, COMDAT
; _this$ = ecx

; 191  : {

	push	-1
	push	__ehhandler$?DoAcceptedDeal@CvDealAI@@QAEXW4PlayerTypes@@ABVCvDeal@@HHH@Z
	mov	eax, DWORD PTR fs:0
	push	eax
	mov	DWORD PTR fs:0, esp
	sub	esp, 8
	push	ebx
	push	ebp
	push	esi
	push	edi
	mov	esi, ecx

; 192  : 	int iDealType = -1;
; 193  : 	if(m_pPlayer->GetDiplomacyAI()->GetDealToRenew(&iDealType))

	mov	ecx, DWORD PTR [esi]
	lea	eax, DWORD PTR _iDealType$[esp+36]
	or	edi, -1
	push	eax
	mov	DWORD PTR _iDealType$[esp+40], edi
	call	?GetDiplomacyAI@CvPlayer@@QBEPAVCvDiplomacyAI@@XZ ; CvPlayer::GetDiplomacyAI
	mov	ecx, eax
	call	?GetDealToRenew@CvDiplomacyAI@@QAEPAVCvDeal@@PAH@Z ; CvDiplomacyAI::GetDealToRenew

; 196  : 		{
; 197  : 			// make the deal not remove resources when processed
; 198  : 			CvGameDeals::PrepareRenewDeal(m_pPlayer->GetDiplomacyAI()->GetDealToRenew(), &kDeal);

	mov	ebp, DWORD PTR _kDeal$[esp+32]
	test	eax, eax
	je	SHORT $LN16@DoAccepted

; 194  : 	{
; 195  : 		if (iDealType != 0) // if it's not a historic deal

	cmp	DWORD PTR _iDealType$[esp+36], 0
	je	SHORT $LN15@DoAccepted

; 196  : 		{
; 197  : 			// make the deal not remove resources when processed
; 198  : 			CvGameDeals::PrepareRenewDeal(m_pPlayer->GetDiplomacyAI()->GetDealToRenew(), &kDeal);

	mov	ecx, DWORD PTR [esi]
	push	ebp
	push	0
	call	?GetDiplomacyAI@CvPlayer@@QBEPAVCvDiplomacyAI@@XZ ; CvPlayer::GetDiplomacyAI
	mov	ecx, eax
	call	?GetDealToRenew@CvDiplomacyAI@@QAEPAVCvDeal@@PAH@Z ; CvDiplomacyAI::GetDealToRenew
	push	eax
	call	?PrepareRenewDeal@CvGameDeals@@SAXPAVCvDeal@@PBV2@@Z ; CvGameDeals::PrepareRenewDeal
	add	esp, 8
$LN15@DoAccepted:

; 199  : 		}
; 200  : 		m_pPlayer->GetDiplomacyAI()->ClearDealToRenew();

	mov	ecx, DWORD PTR [esi]
	call	?GetDiplomacyAI@CvPlayer@@QBEPAVCvDiplomacyAI@@XZ ; CvPlayer::GetDiplomacyAI
	mov	ecx, eax
	call	?ClearDealToRenew@CvDiplomacyAI@@QAEXXZ	; CvDiplomacyAI::ClearDealToRenew
$LN16@DoAccepted:

; 201  : 	}
; 202  : 
; 203  : 	GC.getGame().GetGameDeals()->AddProposedDeal(kDeal);

	sub	esp, 76					; 0000004cH
	mov	ecx, esp
	mov	DWORD PTR $T225562[esp+112], esp
	push	ebp
	call	??0CvDeal@@QAE@ABV0@@Z			; CvDeal::CvDeal
	mov	ecx, DWORD PTR ?gGlobals@@3VCvGlobals@@A+48
	mov	DWORD PTR __$EHRec$[esp+120], 0
	call	?GetGameDeals@CvGame@@QAEPAVCvGameDeals@@XZ ; CvGame::GetGameDeals
	mov	ecx, eax
	mov	DWORD PTR __$EHRec$[esp+120], edi
	call	?AddProposedDeal@CvGameDeals@@QAEXVCvDeal@@@Z ; CvGameDeals::AddProposedDeal

; 204  : 	GC.getGame().GetGameDeals()->FinalizeDeal(eFromPlayer, GetPlayer()->GetID(), true);

	mov	ecx, DWORD PTR [esi]
	mov	eax, DWORD PTR [ecx+44]
	mov	edi, DWORD PTR _eFromPlayer$[esp+32]
	mov	ecx, DWORD PTR ?gGlobals@@3VCvGlobals@@A+48
	push	1
	push	eax
	push	edi
	call	?GetGameDeals@CvGame@@QAEPAVCvGameDeals@@XZ ; CvGame::GetGameDeals
	mov	ecx, eax
	call	?FinalizeDeal@CvGameDeals@@QAE_NW4PlayerTypes@@0_N@Z ; CvGameDeals::FinalizeDeal

; 205  : 
; 206  : 	if(GET_PLAYER(eFromPlayer).isHuman())

	mov	ecx, edi
	imul	ecx, 63236				; 0000f704H
	add	ecx, DWORD PTR ?m_aPlayers@CvPlayerAI@@1PAV1@A ; CvPlayerAI::m_aPlayers
	call	?isHuman@CvPlayer@@QBE_NXZ		; CvPlayer::isHuman
	test	al, al
	je	$LN3@DoAccepted

; 207  : 	{
; 208  : 		iDealValueToMe -= GetCachedValueOfPeaceWithHuman();

	mov	ebx, DWORD PTR _iDealValueToMe$[esp+32]
	sub	ebx, DWORD PTR [esi+4]

; 209  : 
; 210  : 		// Reset cached values
; 211  : 		SetCachedValueOfPeaceWithHuman(0);

	mov	DWORD PTR [esi+4], 0

; 212  : 
; 213  : 		LeaderheadAnimationTypes eAnimation;
; 214  : 		// This signals Lua to do some interface cleanup, we only want to do this on the local machine.
; 215  : 		if(GC.getGame().getActivePlayer() == eFromPlayer)

	mov	ecx, DWORD PTR ?gGlobals@@3VCvGlobals@@A+48
	call	?getActivePlayer@CvGame@@QBE?AW4PlayerTypes@@XZ ; CvGame::getActivePlayer
	cmp	eax, edi
	jne	SHORT $LN13@DoAccepted

; 216  : 			gDLL->DoClearDiplomacyTradeTable();

	mov	ecx, DWORD PTR ?gGlobals@@3VCvGlobals@@A+8564
	mov	edx, DWORD PTR [ecx]
	mov	eax, DWORD PTR [edx+732]
	call	eax
$LN13@DoAccepted:

; 217  : 
; 218  : 		DiploUIStateTypes eUIState = NO_DIPLO_UI_STATE;
; 219  : 
; 220  : 		const char* szText = 0;
; 221  : 
; 222  : 		// We made a demand and they gave in
; 223  : 		if(kDeal.GetDemandingPlayer() == GetPlayer()->GetID())

	mov	ecx, DWORD PTR [esi]
	mov	edx, DWORD PTR [ecx+44]
	mov	ecx, ebp
	mov	DWORD PTR $T225616[esp+32], edx
	call	?GetDemandingPlayer@CvDeal@@QBE?AW4PlayerTypes@@XZ ; CvDeal::GetDemandingPlayer
	cmp	eax, DWORD PTR $T225616[esp+32]
	jne	SHORT $LN12@DoAccepted

; 224  : 		{
; 225  : 			if(GC.getGame().getActivePlayer() == eFromPlayer)

	mov	ecx, DWORD PTR ?gGlobals@@3VCvGlobals@@A+48
	call	?getActivePlayer@CvGame@@QBE?AW4PlayerTypes@@XZ ; CvGame::getActivePlayer
	cmp	eax, edi
	jne	$LN2@DoAccepted

; 226  : 			{
; 227  : 				szText = GetPlayer()->GetDiplomacyAI()->GetDiploStringForMessage(DIPLO_MESSAGE_TRADE_ACCEPT_AI_DEMAND);

	mov	ecx, DWORD PTR [esi]
	push	-1
	push	136					; 00000088H
	call	?GetDiplomacyAI@CvPlayer@@QBEPAVCvDiplomacyAI@@XZ ; CvPlayer::GetDiplomacyAI
	mov	ecx, eax
	call	?GetDiploStringForMessage@CvDiplomacyAI@@QAEPBDW4DiploMessageTypes@@W4PlayerTypes@@@Z ; CvDiplomacyAI::GetDiploStringForMessage

; 228  : 				gDLL->GameplayDiplomacyAILeaderMessage(GetPlayer()->GetID(), DIPLO_UI_STATE_BLANK_DISCUSSION_MEAN_AI, szText, LEADERHEAD_ANIM_POSITIVE);

	mov	ecx, DWORD PTR ?gGlobals@@3VCvGlobals@@A+8564
	mov	edx, DWORD PTR [ecx]
	mov	edx, DWORD PTR [edx+736]
	push	-1
	push	30					; 0000001eH
	push	eax
	mov	eax, DWORD PTR [esi]
	mov	eax, DWORD PTR [eax+44]
	push	14					; 0000000eH
	push	eax
	call	edx

; 281  : 	}
; 282  : }

	mov	ecx, DWORD PTR __$EHRec$[esp+36]
	mov	DWORD PTR fs:0, ecx
	pop	edi
	pop	esi
	pop	ebp
	pop	ebx
	add	esp, 20					; 00000014H
	ret	20					; 00000014H
$LN12@DoAccepted:

; 229  : 			}
; 230  : 
; 231  : 			return;
; 232  : 		}
; 233  : 
; 234  : 		// We made a request and they agreed
; 235  : 		if(kDeal.GetRequestingPlayer() == GetPlayer()->GetID())

	mov	eax, DWORD PTR [esi]
	mov	ecx, DWORD PTR [eax+44]
	mov	DWORD PTR $T225654[esp+32], ecx
	mov	ecx, ebp
	call	?GetRequestingPlayer@CvDeal@@QBE?AW4PlayerTypes@@XZ ; CvDeal::GetRequestingPlayer
	cmp	eax, DWORD PTR $T225654[esp+32]
	jne	SHORT $LN10@DoAccepted

; 236  : 		{
; 237  : 			if(GC.getGame().getActivePlayer() == eFromPlayer)

	mov	ecx, DWORD PTR ?gGlobals@@3VCvGlobals@@A+48
	call	?getActivePlayer@CvGame@@QBE?AW4PlayerTypes@@XZ ; CvGame::getActivePlayer
	cmp	eax, edi
	jne	SHORT $LN9@DoAccepted

; 238  : 			{
; 239  : 				szText = GetPlayer()->GetDiplomacyAI()->GetDiploStringForMessage(DIPLO_MESSAGE_THANKFUL);

	mov	ecx, DWORD PTR [esi]
	push	-1
	push	69					; 00000045H
	call	?GetDiplomacyAI@CvPlayer@@QBEPAVCvDiplomacyAI@@XZ ; CvPlayer::GetDiplomacyAI
	mov	ecx, eax
	call	?GetDiploStringForMessage@CvDiplomacyAI@@QAEPBDW4DiploMessageTypes@@W4PlayerTypes@@@Z ; CvDiplomacyAI::GetDiploStringForMessage

; 240  : 				gDLL->GameplayDiplomacyAILeaderMessage(GetPlayer()->GetID(), DIPLO_UI_STATE_BLANK_DISCUSSION, szText, LEADERHEAD_ANIM_POSITIVE);

	mov	ecx, DWORD PTR ?gGlobals@@3VCvGlobals@@A+8564
	mov	edx, DWORD PTR [ecx]
	mov	edx, DWORD PTR [edx+736]
	push	-1
	push	30					; 0000001eH
	push	eax
	mov	eax, DWORD PTR [esi]
	mov	eax, DWORD PTR [eax+44]
	push	12					; 0000000cH
	push	eax
	call	edx
$LN9@DoAccepted:

; 241  : 			}
; 242  : 			GetPlayer()->GetDiplomacyAI()->ChangeRecentAssistValue(eFromPlayer, -iDealValueToMe);

	mov	ecx, DWORD PTR [esi]
	neg	ebx
	push	ebx
	push	edi
	call	?GetDiplomacyAI@CvPlayer@@QBEPAVCvDiplomacyAI@@XZ ; CvPlayer::GetDiplomacyAI
	mov	ecx, eax
	call	?ChangeRecentAssistValue@CvDiplomacyAI@@QAEXW4PlayerTypes@@H@Z ; CvDiplomacyAI::ChangeRecentAssistValue

; 281  : 	}
; 282  : }

	mov	ecx, DWORD PTR __$EHRec$[esp+36]
	mov	DWORD PTR fs:0, ecx
	pop	edi
	pop	esi
	pop	ebp
	pop	ebx
	add	esp, 20					; 00000014H
	ret	20					; 00000014H
$LN10@DoAccepted:

; 243  : 			return;
; 244  : 		}
; 245  : 
; 246  : 		eUIState = DIPLO_UI_STATE_BLANK_DISCUSSION;
; 247  : 
; 248  : 		// Good deal for us
; 249  : 		if(iDealValueToMe >= 100 ||
; 250  : 		        iValueTheyreOffering > (iValueImOffering * 5))	// A deal can be generous if we're getting a lot overall, OR a lot more than we're giving up

	cmp	ebx, 100				; 00000064H
	jge	SHORT $LN7@DoAccepted
	mov	eax, DWORD PTR _iValueImOffering$[esp+32]
	lea	eax, DWORD PTR [eax+eax*4]
	cmp	DWORD PTR _iValueTheyreOffering$[esp+32], eax
	jg	SHORT $LN7@DoAccepted

; 255  : 		}
; 256  : 		// Acceptable deal for us
; 257  : 		else
; 258  : 		{
; 259  : 			szText = GetPlayer()->GetDiplomacyAI()->GetDiploStringForMessage(DIPLO_MESSAGE_TRADE_ACCEPT_ACCEPTABLE);

	mov	ecx, DWORD PTR [esi]
	push	-1
	push	135					; 00000087H
	call	?GetDiplomacyAI@CvPlayer@@QBEPAVCvDiplomacyAI@@XZ ; CvPlayer::GetDiplomacyAI
	mov	ecx, eax
	call	?GetDiploStringForMessage@CvDiplomacyAI@@QAEPBDW4DiploMessageTypes@@W4PlayerTypes@@@Z ; CvDiplomacyAI::GetDiploStringForMessage
	mov	DWORD PTR _szText$221954[esp+32], eax

; 260  : 			eAnimation = LEADERHEAD_ANIM_YES;
; 261  : 			GetPlayer()->GetDiplomacyAI()->ChangeRecentTradeValue(eFromPlayer, (iDealValueToMe / 2));

	mov	eax, ebx
	cdq
	sub	eax, edx
	sar	eax, 1
	push	eax
	jmp	SHORT $LN115@DoAccepted
$LN7@DoAccepted:

; 251  : 		{
; 252  : 			szText = GetPlayer()->GetDiplomacyAI()->GetDiploStringForMessage(DIPLO_MESSAGE_TRADE_ACCEPT_GENEROUS);

	mov	ecx, DWORD PTR [esi]
	push	-1
	push	134					; 00000086H
	call	?GetDiplomacyAI@CvPlayer@@QBEPAVCvDiplomacyAI@@XZ ; CvPlayer::GetDiplomacyAI
	mov	ecx, eax
	call	?GetDiploStringForMessage@CvDiplomacyAI@@QAEPBDW4DiploMessageTypes@@W4PlayerTypes@@@Z ; CvDiplomacyAI::GetDiploStringForMessage
	mov	DWORD PTR _szText$221954[esp+32], eax

; 253  : 			eAnimation = LEADERHEAD_ANIM_YES;
; 254  : 			GetPlayer()->GetDiplomacyAI()->ChangeRecentTradeValue(eFromPlayer, iDealValueToMe);

	push	ebx
$LN115@DoAccepted:
	mov	ecx, DWORD PTR [esi]
	push	edi
	mov	ebp, 16					; 00000010H
	call	?GetDiplomacyAI@CvPlayer@@QBEPAVCvDiplomacyAI@@XZ ; CvPlayer::GetDiplomacyAI
	mov	ecx, eax
	call	?ChangeRecentTradeValue@CvDiplomacyAI@@QAEXW4PlayerTypes@@H@Z ; CvDiplomacyAI::ChangeRecentTradeValue

; 262  : 		}
; 263  : 
; 264  : 		if(GC.getGame().getActivePlayer() == eFromPlayer)

	mov	ecx, DWORD PTR ?gGlobals@@3VCvGlobals@@A+48
	call	?getActivePlayer@CvGame@@QBE?AW4PlayerTypes@@XZ ; CvGame::getActivePlayer
	cmp	eax, edi
	jne	SHORT $LN5@DoAccepted

; 265  : 			GC.GetEngineUserInterface()->SetOfferTradeRepeatCount(0);

	mov	ecx, DWORD PTR ?gGlobals@@3VCvGlobals@@A+8568
	mov	edx, DWORD PTR [ecx]
	mov	eax, DWORD PTR [edx+492]
	push	0
	call	eax
$LN5@DoAccepted:

; 266  : 
; 267  : 		// If this was a peace deal then use that animation instead
; 268  : 		if(kDeal.GetPeaceTreatyType() != NO_PEACE_TREATY_TYPE)

	mov	ecx, DWORD PTR _kDeal$[esp+32]
	call	?GetPeaceTreatyType@CvDeal@@QBE?AW4PeaceTreatyTypes@@XZ ; CvDeal::GetPeaceTreatyType
	cmp	eax, -1
	je	SHORT $LN4@DoAccepted

; 269  : 		{
; 270  : 			eAnimation = LEADERHEAD_ANIM_PEACEFUL;

	mov	ebp, 3
$LN4@DoAccepted:

; 271  : 		}
; 272  : 
; 273  : 		// Send message back to diplo UI
; 274  : 		if(GC.getGame().getActivePlayer() == eFromPlayer)

	mov	ecx, DWORD PTR ?gGlobals@@3VCvGlobals@@A+48
	call	?getActivePlayer@CvGame@@QBE?AW4PlayerTypes@@XZ ; CvGame::getActivePlayer
	cmp	eax, edi
	jne	SHORT $LN3@DoAccepted

; 275  : 			gDLL->GameplayDiplomacyAILeaderMessage(GetPlayer()->GetID(), eUIState, szText, eAnimation);

	mov	eax, DWORD PTR _szText$221954[esp+32]
	mov	ecx, DWORD PTR ?gGlobals@@3VCvGlobals@@A+8564
	mov	edx, DWORD PTR [ecx]
	mov	edx, DWORD PTR [edx+736]
	push	-1
	push	ebp
	push	eax
	mov	eax, DWORD PTR [esi]
	mov	eax, DWORD PTR [eax+44]
	push	12					; 0000000cH
	push	eax
	call	edx
$LN3@DoAccepted:

; 276  : 	}
; 277  : 
; 278  : 	if(GC.getGame().getActivePlayer() == eFromPlayer || GC.getGame().getActivePlayer() == GetPlayer()->GetID())

	mov	ecx, DWORD PTR ?gGlobals@@3VCvGlobals@@A+48
	call	?getActivePlayer@CvGame@@QBE?AW4PlayerTypes@@XZ ; CvGame::getActivePlayer
	cmp	eax, edi
	je	SHORT $LN1@DoAccepted
	mov	eax, DWORD PTR [esi]
	mov	ecx, DWORD PTR ?gGlobals@@3VCvGlobals@@A+48
	mov	esi, DWORD PTR [eax+44]
	call	?getActivePlayer@CvGame@@QBE?AW4PlayerTypes@@XZ ; CvGame::getActivePlayer
	cmp	eax, esi
	jne	SHORT $LN2@DoAccepted
$LN1@DoAccepted:

; 279  : 	{
; 280  : 		GC.GetEngineUserInterface()->makeInterfaceDirty();

	mov	ecx, DWORD PTR ?gGlobals@@3VCvGlobals@@A+8568
	mov	edx, DWORD PTR [ecx]
	mov	eax, DWORD PTR [edx+264]
	call	eax
$LN2@DoAccepted:

; 281  : 	}
; 282  : }

	mov	ecx, DWORD PTR __$EHRec$[esp+36]
	pop	edi
	pop	esi
	pop	ebp
	mov	DWORD PTR fs:0, ecx
	pop	ebx
	add	esp, 20					; 00000014H
	ret	20					; 00000014H
_TEXT	ENDS
;	COMDAT text$x
text$x	SEGMENT
__unwindfunclet$?DoAcceptedDeal@CvDealAI@@QAEXW4PlayerTypes@@ABVCvDeal@@HHH@Z$0:
	mov	ecx, DWORD PTR $T225562[ebp]
	jmp	??1CvDeal@@UAE@XZ			; CvDeal::~CvDeal
__ehhandler$?DoAcceptedDeal@CvDealAI@@QAEXW4PlayerTypes@@ABVCvDeal@@HHH@Z:
	mov	eax, OFFSET __ehfuncinfo$?DoAcceptedDeal@CvDealAI@@QAEXW4PlayerTypes@@ABVCvDeal@@HHH@Z
	jmp	___CxxFrameHandler3
text$x	ENDS
?DoAcceptedDeal@CvDealAI@@QAEXW4PlayerTypes@@ABVCvDeal@@HHH@Z ENDP ; CvDealAI::DoAcceptedDeal
PUBLIC	?DoAcceptedDemand@CvDealAI@@QAEXW4PlayerTypes@@ABVCvDeal@@@Z ; CvDealAI::DoAcceptedDemand
; Function compile flags: /Ogtpy
;	COMDAT ?DoAcceptedDemand@CvDealAI@@QAEXW4PlayerTypes@@ABVCvDeal@@@Z
_TEXT	SEGMENT
$T225769 = -4						; size = 4
_eFromPlayer$ = 8					; size = 4
_kDeal$ = 12						; size = 4
?DoAcceptedDemand@CvDealAI@@QAEXW4PlayerTypes@@ABVCvDeal@@@Z PROC ; CvDealAI::DoAcceptedDemand, COMDAT
; _this$ = ecx

; 497  : {

	push	ecx
	push	ebx
	push	ebp
	push	esi

; 498  : 	CvGame& kGame = GC.getGame();

	mov	esi, DWORD PTR ?gGlobals@@3VCvGlobals@@A+48
	mov	ebx, ecx
	push	edi

; 499  : 	CvGameDeals* pGameDeals = kGame.GetGameDeals();

	mov	ecx, esi
	call	?GetGameDeals@CvGame@@QAEPAVCvGameDeals@@XZ ; CvGame::GetGameDeals

; 500  : 	const PlayerTypes eActivePlayer = kGame.getActivePlayer();

	mov	ecx, esi
	mov	edi, eax
	call	?getActivePlayer@CvGame@@QBE?AW4PlayerTypes@@XZ ; CvGame::getActivePlayer

; 501  : 	const PlayerTypes ePlayer = GetPlayer()->GetID();
; 502  : 
; 503  : 	pGameDeals->AddProposedDeal(kDeal);

	mov	edx, DWORD PTR _kDeal$[esp+16]
	sub	esp, 76					; 0000004cH
	mov	esi, eax
	mov	eax, DWORD PTR [ebx]
	mov	ebx, DWORD PTR [eax+44]
	mov	ecx, esp
	mov	DWORD PTR $T225769[esp+96], esp
	push	edx
	call	??0CvDeal@@QAE@ABV0@@Z			; CvDeal::CvDeal
	mov	ecx, edi
	call	?AddProposedDeal@CvGameDeals@@QAEXVCvDeal@@@Z ; CvGameDeals::AddProposedDeal

; 504  : 	pGameDeals->FinalizeDeal(eFromPlayer, ePlayer, true);

	mov	ebp, DWORD PTR _eFromPlayer$[esp+16]
	push	1
	push	ebx
	push	ebp
	mov	ecx, edi
	call	?FinalizeDeal@CvGameDeals@@QAE_NW4PlayerTypes@@0_N@Z ; CvGameDeals::FinalizeDeal

; 505  : 	if(eActivePlayer == eFromPlayer || eActivePlayer == ePlayer)

	cmp	esi, ebp
	je	SHORT $LN1@DoAccepted@2
	cmp	esi, ebx
	jne	SHORT $LN2@DoAccepted@2
$LN1@DoAccepted@2:

; 506  : 	{
; 507  : 		GC.GetEngineUserInterface()->makeInterfaceDirty();

	mov	ecx, DWORD PTR ?gGlobals@@3VCvGlobals@@A+8568
	mov	eax, DWORD PTR [ecx]
	mov	edx, DWORD PTR [eax+264]
	call	edx
$LN2@DoAccepted@2:

; 508  : 	}
; 509  : }

	pop	edi
	pop	esi
	pop	ebp
	pop	ebx
	pop	ecx
	ret	8
?DoAcceptedDemand@CvDealAI@@QAEXW4PlayerTypes@@ABVCvDeal@@@Z ENDP ; CvDealAI::DoAcceptedDemand
_TEXT	ENDS
PUBLIC	?GetGoldForForValueExchange@CvDealAI@@QAEHH_N0W4PlayerTypes@@00@Z ; CvDealAI::GetGoldForForValueExchange
EXTRN	?GetDealAI@CvPlayer@@QBEPAVCvDealAI@@XZ:PROC	; CvPlayer::GetDealAI
EXTRN	?GetMajorCivOpinion@CvDiplomacyAI@@QBE?AW4MajorCivOpinionTypes@@W4PlayerTypes@@@Z:PROC ; CvDiplomacyAI::GetMajorCivOpinion
EXTRN	?GetMajorCivApproach@CvDiplomacyAI@@QBE?AW4MajorCivApproachTypes@@W4PlayerTypes@@_N@Z:PROC ; CvDiplomacyAI::GetMajorCivApproach
; Function compile flags: /Ogtpy
;	COMDAT ?GetGoldForForValueExchange@CvDealAI@@QAEHH_N0W4PlayerTypes@@00@Z
_TEXT	SEGMENT
_iDivisor$ = -8						; size = 4
_this$ = -4						; size = 4
_iGoldOrValue$ = 8					; size = 4
_bNumGoldFromValue$ = 12				; size = 1
_bFromMe$ = 16						; size = 1
_eOtherPlayer$ = 20					; size = 4
_bUseEvenValue$ = 24					; size = 1
_bRoundUp$ = 28						; size = 1
?GetGoldForForValueExchange@CvDealAI@@QAEHH_N0W4PlayerTypes@@00@Z PROC ; CvDealAI::GetGoldForForValueExchange, COMDAT
; _this$ = ecx

; 896  : {

	sub	esp, 8
	push	ebx

; 897  : 	CvAssertMsg(GetPlayer()->GetID() != eOtherPlayer, "DEAL_AI: Trying to check value of Gold with oneself.  Please send Jon this with your last 5 autosaves and what changelist # you're playing.");
; 898  : 
; 899  : 	int iMultiplier;
; 900  : 	int iDivisor;
; 901  : 
; 902  : 	// We passed in Value, we want to know how much Gold we get for it
; 903  : 	if(bNumGoldFromValue)

	mov	bl, BYTE PTR _bNumGoldFromValue$[esp+8]
	push	ebp
	push	esi
	push	edi
	mov	DWORD PTR _this$[esp+24], ecx
	test	bl, bl
	je	SHORT $LN28@GetGoldFor

; 904  : 	{
; 905  : 		iMultiplier = 100;
; 906  : 		iDivisor = /*100*/ GC.getEACH_GOLD_VALUE_PERCENT();

	mov	eax, DWORD PTR ?gGlobals@@3VCvGlobals@@A+6068
	mov	ebp, 100				; 00000064H
	mov	DWORD PTR _iDivisor$[esp+24], eax

; 907  : 		// Protect against a modder setting this to 0
; 908  : 		if(iDivisor == 0)

	test	eax, eax
	jne	SHORT $LN26@GetGoldFor

; 909  : 			iDivisor = 1;

	mov	DWORD PTR _iDivisor$[esp+24], 1

; 910  : 	}
; 911  : 	// We passed in an amount of Gold, we want to know how much it's worth
; 912  : 	else

	jmp	SHORT $LN26@GetGoldFor
$LN28@GetGoldFor:

; 913  : 	{
; 914  : 		iMultiplier = /*100*/ GC.getEACH_GOLD_VALUE_PERCENT();

	mov	ebp, DWORD PTR ?gGlobals@@3VCvGlobals@@A+6068

; 915  : 		iDivisor = 100;

	mov	DWORD PTR _iDivisor$[esp+24], 100	; 00000064H
$LN26@GetGoldFor:

; 916  : 	}
; 917  : 
; 918  : 	// Convert based on the rules above
; 919  : 	int iReturnValue = iGoldOrValue * iMultiplier;

	imul	ebp, DWORD PTR _iGoldOrValue$[esp+20]

; 920  : 
; 921  : 	int iModifier;
; 922  : 
; 923  : 	// While we have a big number shall we apply some modifiers to it?
; 924  : 	if(bFromMe)

	cmp	BYTE PTR _bFromMe$[esp+20], 0
	mov	edi, DWORD PTR _eOtherPlayer$[esp+20]
	je	$LN3@GetGoldFor

; 925  : 	{
; 926  : 		// Approach is important
; 927  : 		switch(GetPlayer()->GetDiplomacyAI()->GetMajorCivApproach(eOtherPlayer, /*bHideTrueFeelings*/ true))

	mov	ecx, DWORD PTR [ecx]
	push	1
	push	edi
	call	?GetDiplomacyAI@CvPlayer@@QBEPAVCvDiplomacyAI@@XZ ; CvPlayer::GetDiplomacyAI
	mov	ecx, eax
	call	?GetMajorCivApproach@CvDiplomacyAI@@QBE?AW4MajorCivApproachTypes@@W4PlayerTypes@@_N@Z ; CvDiplomacyAI::GetMajorCivApproach
	dec	eax
	cmp	eax, 5
	ja	SHORT $LN17@GetGoldFor
	jmp	DWORD PTR $LN49@GetGoldFor[eax*4]
$LN22@GetGoldFor:

; 928  : 		{
; 929  : 		case MAJOR_CIV_APPROACH_HOSTILE:
; 930  : 			iModifier = 150;

	mov	esi, 150				; 00000096H

; 931  : 			break;

	jmp	SHORT $LN23@GetGoldFor
$LN21@GetGoldFor:

; 932  : 		case MAJOR_CIV_APPROACH_GUARDED:
; 933  : 			iModifier = 110;

	mov	esi, 110				; 0000006eH

; 934  : 			break;
; 935  : 		case MAJOR_CIV_APPROACH_AFRAID:
; 936  : 			iModifier = 100;
; 937  : 			break;

	jmp	SHORT $LN23@GetGoldFor
$LN17@GetGoldFor:

; 938  : 		case MAJOR_CIV_APPROACH_FRIENDLY:
; 939  : 			iModifier = 100;
; 940  : 			break;
; 941  : 		case MAJOR_CIV_APPROACH_NEUTRAL:
; 942  : 			iModifier = 100;
; 943  : 			break;
; 944  : 		default:
; 945  : 			CvAssertMsg(false, "DEAL_AI: AI player has no valid Approach for Gold valuation.  Please send Jon this with your last 5 autosaves and what changelist # you're playing.")
; 946  : 			iModifier = 100;

	mov	esi, 100				; 00000064H
$LN23@GetGoldFor:

; 947  : 			break;
; 948  : 		}
; 949  : 
; 950  : 		// See whether we should multiply or divide
; 951  : 		if(!bNumGoldFromValue)

	test	bl, bl
	jne	SHORT $LN16@GetGoldFor

; 952  : 		{
; 953  : 			iReturnValue *= iModifier;

	mov	ecx, esi
	imul	ecx, ebp

; 954  : 			iReturnValue /= 100;

	mov	eax, 1374389535				; 51eb851fH
	imul	ecx
	sar	edx, 5
	mov	ebp, edx
	shr	ebp, 31					; 0000001fH
	add	ebp, edx

; 955  : 		}
; 956  : 		else

	jmp	SHORT $LN15@GetGoldFor
$LN16@GetGoldFor:

; 957  : 		{
; 958  : 			iReturnValue *= 100;

	mov	eax, ebp
	imul	eax, 100				; 00000064H

; 959  : 			iReturnValue /= iModifier;

	cdq
	idiv	esi
	mov	ebp, eax
$LN15@GetGoldFor:

; 960  : 		}
; 961  : 
; 962  : 		// Opinion also matters
; 963  : 		switch(GetPlayer()->GetDiplomacyAI()->GetMajorCivOpinion(eOtherPlayer))

	mov	eax, DWORD PTR _this$[esp+24]
	mov	ecx, DWORD PTR [eax]
	push	edi
	call	?GetDiplomacyAI@CvPlayer@@QBEPAVCvDiplomacyAI@@XZ ; CvPlayer::GetDiplomacyAI
	mov	ecx, eax
	call	?GetMajorCivOpinion@CvDiplomacyAI@@QBE?AW4MajorCivOpinionTypes@@W4PlayerTypes@@@Z ; CvDiplomacyAI::GetMajorCivOpinion
	cmp	eax, 6
	ja	SHORT $LN5@GetGoldFor
	jmp	DWORD PTR $LN50@GetGoldFor[eax*4]
$LN12@GetGoldFor:

; 964  : 		{
; 965  : 		case MAJOR_CIV_OPINION_ALLY:
; 966  : 			iModifier = 100;

	mov	esi, 100				; 00000064H

; 967  : 			break;

	jmp	SHORT $LN13@GetGoldFor
$LN8@GetGoldFor:

; 968  : 		case MAJOR_CIV_OPINION_FRIEND:
; 969  : 			iModifier = 100;
; 970  : 			break;
; 971  : 		case MAJOR_CIV_OPINION_FAVORABLE:
; 972  : 			iModifier = 100;
; 973  : 			break;
; 974  : 		case MAJOR_CIV_OPINION_NEUTRAL:
; 975  : 			iModifier = 100;
; 976  : 			break;
; 977  : 		case MAJOR_CIV_OPINION_COMPETITOR:
; 978  : 			iModifier = 115;

	mov	esi, 115				; 00000073H

; 979  : 			break;

	jmp	SHORT $LN13@GetGoldFor
$LN7@GetGoldFor:

; 980  : 		case MAJOR_CIV_OPINION_ENEMY:
; 981  : 			iModifier = 140;

	mov	esi, 140				; 0000008cH

; 982  : 			break;

	jmp	SHORT $LN13@GetGoldFor
$LN6@GetGoldFor:

; 983  : 		case MAJOR_CIV_OPINION_UNFORGIVABLE:
; 984  : 			iModifier = 200;

	mov	esi, 200				; 000000c8H

; 985  : 			break;

	jmp	SHORT $LN13@GetGoldFor
$LN5@GetGoldFor:

; 986  : 		default:
; 987  : 			CvAssertMsg(false, "DEAL_AI: AI player has no valid Opinion for Gold valuation.  Please send Jon this with your last 5 autosaves and what changelist # you're playing.")
; 988  : 			iReturnValue *= 100;

	imul	ebp, 100				; 00000064H
$LN13@GetGoldFor:

; 989  : 			break;
; 990  : 		}
; 991  : 
; 992  : 		// See whether we should multiply or divide
; 993  : 		if(!bNumGoldFromValue)

	test	bl, bl
	jne	SHORT $LN4@GetGoldFor

; 994  : 		{
; 995  : 			iReturnValue *= iModifier;

	imul	esi, ebp

; 996  : 			iReturnValue /= 100;

	mov	eax, 1374389535				; 51eb851fH
	imul	esi
	sar	edx, 5
	mov	ebp, edx
	shr	ebp, 31					; 0000001fH
	add	ebp, edx

; 997  : 		}
; 998  : 		else

	jmp	SHORT $LN3@GetGoldFor
$LN4@GetGoldFor:

; 999  : 		{
; 1000 : 			iReturnValue *= 100;

	mov	eax, ebp
	imul	eax, 100				; 00000064H

; 1001 : 			iReturnValue /= iModifier;

	cdq
	idiv	esi
	mov	ebp, eax
$LN3@GetGoldFor:

; 1002 : 		}
; 1003 : 	}
; 1004 : 
; 1005 : 	// Sometimes we want to round up.  Let's say a the AI offers a deal to the human.  We have to ensure that the human can also offer that deal back and the AI will accept (and vice versa)
; 1006 : 	if(bRoundUp)

	mov	ebx, DWORD PTR _bRoundUp$[esp+20]
	test	bl, bl
	je	SHORT $LN2@GetGoldFor

; 1007 : 	{
; 1008 : 		iReturnValue += 99;

	add	ebp, 99					; 00000063H
$LN2@GetGoldFor:

; 1009 : 	}
; 1010 : 
; 1011 : 	iReturnValue /= iDivisor;

	mov	eax, ebp
	cdq
	idiv	DWORD PTR _iDivisor$[esp+24]

; 1012 : 
; 1013 : 	// Are we trying to find the middle point between what we think this item is worth and what another player thinks it's worth?
; 1014 : 	if(bUseEvenValue)

	cmp	BYTE PTR _bUseEvenValue$[esp+20], 0
	mov	esi, eax
	je	SHORT $LN47@GetGoldFor

; 1015 : 	{
; 1016 : 		iReturnValue += GET_PLAYER(eOtherPlayer).GetDealAI()->GetGoldForForValueExchange(iGoldOrValue, bNumGoldFromValue, !bFromMe, GetPlayer()->GetID(), /*bUseEvenValue*/ false, bRoundUp);

	mov	ecx, DWORD PTR _this$[esp+24]
	imul	edi, 63236				; 0000f704H
	mov	edx, DWORD PTR [ecx]
	mov	eax, DWORD PTR [edx+44]
	add	edi, DWORD PTR ?m_aPlayers@CvPlayerAI@@1PAV1@A ; CvPlayerAI::m_aPlayers
	cmp	BYTE PTR _bFromMe$[esp+20], 0
	push	ebx
	push	0
	push	eax
	sete	al
	movzx	edx, al
	mov	eax, DWORD PTR _bNumGoldFromValue$[esp+32]
	push	edx
	mov	edx, DWORD PTR _iGoldOrValue$[esp+36]
	push	eax
	mov	ecx, edi
	push	edx
	call	?GetDealAI@CvPlayer@@QBEPAVCvDealAI@@XZ	; CvPlayer::GetDealAI
	mov	ecx, eax
	call	?GetGoldForForValueExchange@CvDealAI@@QAEHH_N0W4PlayerTypes@@00@Z ; CvDealAI::GetGoldForForValueExchange
	add	eax, esi
	pop	edi

; 1017 : 
; 1018 : 		iReturnValue /= 2;

	cdq
	pop	esi
	sub	eax, edx
	pop	ebp
	sar	eax, 1
	pop	ebx

; 1022 : }

	add	esp, 8
	ret	24					; 00000018H
$LN47@GetGoldFor:
	pop	edi

; 1019 : 	}
; 1020 : 
; 1021 : 	return iReturnValue;

	mov	eax, esi
	pop	esi
	pop	ebp
	pop	ebx

; 1022 : }

	add	esp, 8
	ret	24					; 00000018H
	npad	1
$LN49@GetGoldFor:
	DD	$LN22@GetGoldFor
	DD	$LN17@GetGoldFor
	DD	$LN21@GetGoldFor
	DD	$LN17@GetGoldFor
	DD	$LN17@GetGoldFor
	DD	$LN17@GetGoldFor
$LN50@GetGoldFor:
	DD	$LN6@GetGoldFor
	DD	$LN7@GetGoldFor
	DD	$LN8@GetGoldFor
	DD	$LN12@GetGoldFor
	DD	$LN12@GetGoldFor
	DD	$LN12@GetGoldFor
	DD	$LN12@GetGoldFor
?GetGoldForForValueExchange@CvDealAI@@QAEHH_N0W4PlayerTypes@@00@Z ENDP ; CvDealAI::GetGoldForForValueExchange
_TEXT	ENDS
PUBLIC	?GetGPTforForValueExchange@CvDealAI@@QAEHH_NH0W4PlayerTypes@@00@Z ; CvDealAI::GetGPTforForValueExchange
; Function compile flags: /Ogtpy
;	COMDAT ?GetGPTforForValueExchange@CvDealAI@@QAEHH_NH0W4PlayerTypes@@00@Z
_TEXT	SEGMENT
_this$ = -8						; size = 4
_iDivisor$ = -4						; size = 4
_iGPTorValue$ = 8					; size = 4
_bNumGPTFromValue$ = 12					; size = 1
_iPostCalculationDurationDivider$ = 16			; size = 4
_iNumTurns$ = 16					; size = 4
_bFromMe$ = 20						; size = 1
_eOtherPlayer$ = 24					; size = 4
_bUseEvenValue$ = 28					; size = 1
_bRoundUp$ = 32						; size = 1
?GetGPTforForValueExchange@CvDealAI@@QAEHH_NH0W4PlayerTypes@@00@Z PROC ; CvDealAI::GetGPTforForValueExchange, COMDAT
; _this$ = ecx

; 1026 : {

	sub	esp, 8

; 1027 : 	CvAssertMsg(GetPlayer()->GetID() != eOtherPlayer, "DEAL_AI: Trying to check value of GPT with oneself.  Please send Jon this with your last 5 autosaves and what changelist # you're playing.");
; 1028 : 
; 1029 : 	int iPreCalculationDurationMultiplier;
; 1030 : 	int iMultiplier;
; 1031 : 	int iDivisor;
; 1032 : 	int iPostCalculationDurationDivider;
; 1033 : 
; 1034 : 	// We passed in Value, we want to know how much GPT we get for it
; 1035 : 	if(bNumGPTFromValue)

	mov	dl, BYTE PTR _bNumGPTFromValue$[esp+4]
	push	ebx
	push	ebp

; 1036 : 	{
; 1037 : 		iPreCalculationDurationMultiplier = 1;
; 1038 : 		iMultiplier = 100;
; 1039 : 		iDivisor = /*80*/ GC.getEACH_GOLD_PER_TURN_VALUE_PERCENT();
; 1040 : 		iPostCalculationDurationDivider = iNumTurns;	// Divide value by number of turns to get GPT

	mov	ebp, DWORD PTR _iNumTurns$[esp+12]
	push	esi
	push	edi
	mov	DWORD PTR _this$[esp+24], ecx
	test	dl, dl
	je	SHORT $LN29@GetGPTforF
	mov	esi, DWORD PTR ?gGlobals@@3VCvGlobals@@A+6072
	mov	ecx, 1
	lea	eax, DWORD PTR [ecx+99]
	mov	DWORD PTR _iDivisor$[esp+24], esi
	mov	DWORD PTR _iPostCalculationDurationDivider$[esp+20], ebp

; 1041 : 
; 1042 : 		// Example: want amount of GPT for 100 value.
; 1043 : 		// 100v * 1 = 100
; 1044 : 		// 100 * 100 / 80 = 125
; 1045 : 		// 125 / 20 turns = 6.25GPT
; 1046 : 	}
; 1047 : 	// We passed in an amount of GPT, we want to know how much it's worth
; 1048 : 	else

	jmp	SHORT $LN28@GetGPTforF
$LN29@GetGPTforF:

; 1049 : 	{
; 1050 : 		iPreCalculationDurationMultiplier = iNumTurns;	// Multiply GPT by number of turns to get value
; 1051 : 		iMultiplier = /*80*/ GC.getEACH_GOLD_PER_TURN_VALUE_PERCENT();

	mov	eax, DWORD PTR ?gGlobals@@3VCvGlobals@@A+6072
	mov	ecx, ebp

; 1052 : 		iDivisor = 100;

	mov	DWORD PTR _iDivisor$[esp+24], 100	; 00000064H

; 1053 : 		iPostCalculationDurationDivider = 1;

	mov	DWORD PTR _iPostCalculationDurationDivider$[esp+20], 1
$LN28@GetGPTforF:

; 1054 : 
; 1055 : 		// Example: want value for 6 GPT
; 1056 : 		// 6GPT * 20 turns = 120
; 1057 : 		// 120 * 80 / 100 = 96
; 1058 : 		// 96 / 1 = 96v
; 1059 : 	}
; 1060 : 
; 1061 : 	// Convert based on the rules above
; 1062 : 	int iReturnValue = iGPTorValue * iPreCalculationDurationMultiplier;
; 1063 : 	iReturnValue *= iMultiplier;
; 1064 : 
; 1065 : 	// While we have a big number shall we apply some modifiers to it?
; 1066 : 	if(bFromMe)

	mov	edi, DWORD PTR _eOtherPlayer$[esp+20]
	imul	eax, ecx
	imul	eax, DWORD PTR _iGPTorValue$[esp+20]
	cmp	BYTE PTR _bFromMe$[esp+20], 0
	je	$LN3@GetGPTforF

; 1067 : 	{
; 1068 : 		// AI values it's GPT more highly because it's easy to exploit this
; 1069 : 		// See whether we should multiply or divide
; 1070 : 		if(!bNumGPTFromValue)

	test	dl, dl
	jne	SHORT $LN26@GetGPTforF

; 1071 : 		{
; 1072 : 			iReturnValue *= 130;

	imul	eax, 130				; 00000082H

; 1073 : 			iReturnValue /= 100;

	mov	ecx, eax
	mov	eax, 1374389535				; 51eb851fH
	imul	ecx
	sar	edx, 5

; 1074 : 		}
; 1075 : 		else

	jmp	SHORT $LN49@GetGPTforF
$LN26@GetGPTforF:

; 1076 : 		{
; 1077 : 			iReturnValue *= 100;

	imul	eax, 100				; 00000064H

; 1078 : 			iReturnValue /= 130;

	mov	ecx, eax
	mov	eax, 2114445439				; 7e07e07fH
	imul	ecx
	sar	edx, 6
$LN49@GetGPTforF:

; 1079 : 		}
; 1080 : 
; 1081 : 		int iModifier;
; 1082 : 
; 1083 : 		// Approach is important
; 1084 : 		switch(GetPlayer()->GetDiplomacyAI()->GetMajorCivApproach(eOtherPlayer, /*bHideTrueFeelings*/ true))

	mov	eax, DWORD PTR _this$[esp+24]
	mov	ecx, DWORD PTR [eax]
	mov	esi, edx
	push	1
	shr	esi, 31					; 0000001fH
	push	edi
	add	esi, edx
	call	?GetDiplomacyAI@CvPlayer@@QBEPAVCvDiplomacyAI@@XZ ; CvPlayer::GetDiplomacyAI
	mov	ecx, eax
	call	?GetMajorCivApproach@CvDiplomacyAI@@QBE?AW4MajorCivApproachTypes@@W4PlayerTypes@@_N@Z ; CvDiplomacyAI::GetMajorCivApproach
	dec	eax
	cmp	eax, 5
	ja	SHORT $LN17@GetGPTforF
	jmp	DWORD PTR $LN51@GetGPTforF[eax*4]
$LN22@GetGPTforF:

; 1085 : 		{
; 1086 : 		case MAJOR_CIV_APPROACH_HOSTILE:
; 1087 : 			iModifier = 150;

	mov	ecx, 150				; 00000096H

; 1088 : 			break;

	jmp	SHORT $LN23@GetGPTforF
$LN21@GetGPTforF:

; 1089 : 		case MAJOR_CIV_APPROACH_GUARDED:
; 1090 : 			iModifier = 110;

	mov	ecx, 110				; 0000006eH

; 1091 : 			break;
; 1092 : 		case MAJOR_CIV_APPROACH_AFRAID:
; 1093 : 			iModifier = 100;
; 1094 : 			break;

	jmp	SHORT $LN23@GetGPTforF
$LN17@GetGPTforF:

; 1095 : 		case MAJOR_CIV_APPROACH_FRIENDLY:
; 1096 : 			iModifier = 100;
; 1097 : 			break;
; 1098 : 		case MAJOR_CIV_APPROACH_NEUTRAL:
; 1099 : 			iModifier = 100;
; 1100 : 			break;
; 1101 : 		default:
; 1102 : 			CvAssertMsg(false, "DEAL_AI: AI player has no valid Approach for Gold valuation.  Please send Jon this with your last 5 autosaves and what changelist # you're playing.")
; 1103 : 			iModifier = 100;

	mov	ecx, 100				; 00000064H
$LN23@GetGPTforF:

; 1104 : 			break;
; 1105 : 		}
; 1106 : 
; 1107 : 		// See whether we should multiply or divide
; 1108 : 		if(!bNumGPTFromValue)

	mov	bl, BYTE PTR _bNumGPTFromValue$[esp+20]
	test	bl, bl
	jne	SHORT $LN16@GetGPTforF

; 1109 : 		{
; 1110 : 			iReturnValue *= iModifier;

	imul	ecx, esi

; 1111 : 			iReturnValue /= 100;

	mov	eax, 1374389535				; 51eb851fH
	imul	ecx
	sar	edx, 5
	mov	esi, edx
	shr	esi, 31					; 0000001fH
	add	esi, edx

; 1112 : 		}
; 1113 : 		else

	jmp	SHORT $LN15@GetGPTforF
$LN16@GetGPTforF:

; 1114 : 		{
; 1115 : 			iReturnValue *= 100;

	mov	eax, esi
	imul	eax, 100				; 00000064H

; 1116 : 			iReturnValue /= iModifier;

	cdq
	idiv	ecx
	mov	esi, eax
$LN15@GetGPTforF:

; 1117 : 		}
; 1118 : 
; 1119 : 		// Opinion also matters
; 1120 : 		switch(GetPlayer()->GetDiplomacyAI()->GetMajorCivOpinion(eOtherPlayer))

	mov	ecx, DWORD PTR _this$[esp+24]
	mov	ecx, DWORD PTR [ecx]
	push	edi
	call	?GetDiplomacyAI@CvPlayer@@QBEPAVCvDiplomacyAI@@XZ ; CvPlayer::GetDiplomacyAI
	mov	ecx, eax
	call	?GetMajorCivOpinion@CvDiplomacyAI@@QBE?AW4MajorCivOpinionTypes@@W4PlayerTypes@@@Z ; CvDiplomacyAI::GetMajorCivOpinion
	cmp	eax, 6
	ja	SHORT $LN5@GetGPTforF
	jmp	DWORD PTR $LN52@GetGPTforF[eax*4]
$LN8@GetGPTforF:

; 1121 : 		{
; 1122 : 		case MAJOR_CIV_OPINION_ALLY:
; 1123 : 			iModifier = 100;
; 1124 : 			break;
; 1125 : 		case MAJOR_CIV_OPINION_FRIEND:
; 1126 : 			iModifier = 100;
; 1127 : 			break;
; 1128 : 		case MAJOR_CIV_OPINION_FAVORABLE:
; 1129 : 			iModifier = 100;
; 1130 : 			break;
; 1131 : 		case MAJOR_CIV_OPINION_NEUTRAL:
; 1132 : 			iModifier = 100;
; 1133 : 			break;
; 1134 : 		case MAJOR_CIV_OPINION_COMPETITOR:
; 1135 : 			iModifier = 115;

	mov	ecx, 115				; 00000073H

; 1136 : 			break;

	jmp	SHORT $LN13@GetGPTforF
$LN7@GetGPTforF:

; 1137 : 		case MAJOR_CIV_OPINION_ENEMY:
; 1138 : 			iModifier = 140;

	mov	ecx, 140				; 0000008cH

; 1139 : 			break;

	jmp	SHORT $LN13@GetGPTforF
$LN6@GetGPTforF:

; 1140 : 		case MAJOR_CIV_OPINION_UNFORGIVABLE:
; 1141 : 			iModifier = 200;

	mov	ecx, 200				; 000000c8H

; 1142 : 			break;

	jmp	SHORT $LN13@GetGPTforF
$LN5@GetGPTforF:

; 1143 : 		default:
; 1144 : 			CvAssertMsg(false, "DEAL_AI: AI player has no valid Opinion for Gold valuation.  Please send Jon this with your last 5 autosaves and what changelist # you're playing.")
; 1145 : 			iModifier = 100;

	mov	ecx, 100				; 00000064H
$LN13@GetGPTforF:

; 1146 : 			break;
; 1147 : 		}
; 1148 : 
; 1149 : 		// See whether we should multiply or divide
; 1150 : 		if(!bNumGPTFromValue)

	test	bl, bl
	jne	SHORT $LN4@GetGPTforF

; 1151 : 		{
; 1152 : 			iReturnValue *= iModifier;

	imul	ecx, esi

; 1153 : 			iReturnValue /= 100;

	mov	eax, 1374389535				; 51eb851fH
	imul	ecx
	sar	edx, 5
	mov	eax, edx
	shr	eax, 31					; 0000001fH
	add	eax, edx

; 1154 : 		}
; 1155 : 		else

	jmp	SHORT $LN3@GetGPTforF
$LN4@GetGPTforF:

; 1156 : 		{
; 1157 : 			iReturnValue *= 100;

	mov	eax, esi
	imul	eax, 100				; 00000064H

; 1158 : 			iReturnValue /= iModifier;

	cdq
	idiv	ecx
$LN3@GetGPTforF:

; 1159 : 		}
; 1160 : 	}
; 1161 : 
; 1162 : 	// Sometimes we want to round up.  Let's say a the AI offers a deal to the human.  We have to ensure that the human can also offer that deal back and the AI will accept (and vice versa)
; 1163 : 	if(bRoundUp)

	mov	ebx, DWORD PTR _bRoundUp$[esp+20]
	test	bl, bl
	je	SHORT $LN2@GetGPTforF

; 1164 : 	{
; 1165 : 		iReturnValue += 99;

	add	eax, 99					; 00000063H
$LN2@GetGPTforF:

; 1166 : 	}
; 1167 : 
; 1168 : 	iReturnValue /= iDivisor;

	cdq
	idiv	DWORD PTR _iDivisor$[esp+24]

; 1169 : 
; 1170 : 	iReturnValue /= iPostCalculationDurationDivider;

	cdq
	idiv	DWORD PTR _iPostCalculationDurationDivider$[esp+20]

; 1171 : 
; 1172 : 	// Are we trying to find the middle point between what we think this item is worth and what another player thinks it's worth?
; 1173 : 	if(bUseEvenValue)

	cmp	BYTE PTR _bUseEvenValue$[esp+20], 0
	mov	esi, eax
	je	SHORT $LN48@GetGPTforF

; 1174 : 	{
; 1175 : 		iReturnValue += GET_PLAYER(eOtherPlayer).GetDealAI()->GetGPTforForValueExchange(iGPTorValue, bNumGPTFromValue, iNumTurns, !bFromMe, GetPlayer()->GetID(), /*bUseEvenValue*/ false, bRoundUp);

	mov	edx, DWORD PTR _this$[esp+24]
	imul	edi, 63236				; 0000f704H
	mov	eax, DWORD PTR [edx]
	add	edi, DWORD PTR ?m_aPlayers@CvPlayerAI@@1PAV1@A ; CvPlayerAI::m_aPlayers
	mov	eax, DWORD PTR [eax+44]
	cmp	BYTE PTR _bFromMe$[esp+20], 0
	push	ebx
	push	0
	push	eax
	sete	dl
	movzx	eax, dl
	mov	edx, DWORD PTR _bNumGPTFromValue$[esp+32]
	push	eax
	mov	eax, DWORD PTR _iGPTorValue$[esp+36]
	push	ebp
	push	edx
	mov	ecx, edi
	push	eax
	call	?GetDealAI@CvPlayer@@QBEPAVCvDealAI@@XZ	; CvPlayer::GetDealAI
	mov	ecx, eax
	call	?GetGPTforForValueExchange@CvDealAI@@QAEHH_NH0W4PlayerTypes@@00@Z ; CvDealAI::GetGPTforForValueExchange
	add	eax, esi
	pop	edi

; 1176 : 
; 1177 : 		iReturnValue /= 2;

	cdq
	pop	esi
	sub	eax, edx
	pop	ebp
	sar	eax, 1
	pop	ebx

; 1181 : }

	add	esp, 8
	ret	28					; 0000001cH
$LN48@GetGPTforF:
	pop	edi

; 1178 : 	}
; 1179 : 
; 1180 : 	return iReturnValue;

	mov	eax, esi
	pop	esi
	pop	ebp
	pop	ebx

; 1181 : }

	add	esp, 8
	ret	28					; 0000001cH
$LN51@GetGPTforF:
	DD	$LN22@GetGPTforF
	DD	$LN17@GetGPTforF
	DD	$LN21@GetGPTforF
	DD	$LN17@GetGPTforF
	DD	$LN17@GetGPTforF
	DD	$LN17@GetGPTforF
$LN52@GetGPTforF:
	DD	$LN6@GetGPTforF
	DD	$LN7@GetGPTforF
	DD	$LN8@GetGPTforF
	DD	$LN5@GetGPTforF
	DD	$LN5@GetGPTforF
	DD	$LN5@GetGPTforF
	DD	$LN5@GetGPTforF
?GetGPTforForValueExchange@CvDealAI@@QAEHH_NH0W4PlayerTypes@@00@Z ENDP ; CvDealAI::GetGPTforForValueExchange
_TEXT	ENDS
PUBLIC	?GetResourceValue@CvDealAI@@QAEHW4ResourceTypes@@HH_NW4PlayerTypes@@@Z ; CvDealAI::GetResourceValue
EXTRN	?IsResourceObsolete@CvTeam@@QAE_NW4ResourceTypes@@@Z:PROC ; CvTeam::IsResourceObsolete
EXTRN	?getNumCities@CvPlayer@@QBEHXZ:PROC		; CvPlayer::getNumCities
EXTRN	?GetPlayerTraits@CvPlayer@@QBEPAVCvPlayerTraits@@XZ:PROC ; CvPlayer::GetPlayerTraits
EXTRN	?getNumResourceAvailable@CvPlayer@@QBEHW4ResourceTypes@@_N@Z:PROC ; CvPlayer::getNumResourceAvailable
EXTRN	?getHappiness@CvResourceInfo@@QBEHXZ:PROC	; CvResourceInfo::getHappiness
EXTRN	?IsLuxuryHappinessBanned@CvGameLeagues@@QAE_NW4PlayerTypes@@W4ResourceTypes@@@Z:PROC ; CvGameLeagues::IsLuxuryHappinessBanned
EXTRN	?GetGameLeagues@CvGame@@QAEPAVCvGameLeagues@@XZ:PROC ; CvGame::GetGameLeagues
EXTRN	?getResourceUsage@CvResourceInfo@@QBE?AW4ResourceUsageTypes@@XZ:PROC ; CvResourceInfo::getResourceUsage
EXTRN	?getResourceInfo@CvGlobals@@QAEPAVCvResourceInfo@@W4ResourceTypes@@@Z:PROC ; CvGlobals::getResourceInfo
; Function compile flags: /Ogtpy
;	COMDAT ?GetResourceValue@CvDealAI@@QAEHW4ResourceTypes@@HH_NW4PlayerTypes@@@Z
_TEXT	SEGMENT
$T225871 = -4						; size = 4
$T225870 = 8						; size = 4
_eResource$ = 8						; size = 4
_iResourceQuantity$ = 12				; size = 4
_iNumTurns$ = 16					; size = 4
_bFromMe$ = 20						; size = 1
_eOtherPlayer$ = 24					; size = 4
?GetResourceValue@CvDealAI@@QAEHW4ResourceTypes@@HH_NW4PlayerTypes@@@Z PROC ; CvDealAI::GetResourceValue, COMDAT
; _this$ = ecx

; 1185 : {

	push	ecx
	push	ebx

; 1186 : 	CvAssertMsg(GetPlayer()->GetID() != eOtherPlayer, "DEAL_AI: Trying to check value of a Resource with oneself.  Please send Jon this with your last 5 autosaves and what changelist # you're playing.");
; 1187 : 
; 1188 : 	int iItemValue = 0;
; 1189 : 
; 1190 : 	const CvResourceInfo* pkResourceInfo = GC.getResourceInfo(eResource);

	mov	ebx, DWORD PTR _eResource$[esp+4]
	push	ebp
	push	esi
	push	edi
	mov	ebp, ecx
	push	ebx
	mov	ecx, OFFSET ?gGlobals@@3VCvGlobals@@A	; gGlobals
	xor	esi, esi
	call	?getResourceInfo@CvGlobals@@QAEPAVCvResourceInfo@@W4ResourceTypes@@@Z ; CvGlobals::getResourceInfo
	mov	edi, eax

; 1191 : 	CvAssert(pkResourceInfo != NULL);
; 1192 : 	if (pkResourceInfo == NULL)

	test	edi, edi
	jne	SHORT $LN33@GetResourc
	pop	edi
	pop	esi
	pop	ebp
	pop	ebx

; 1313 : }

	pop	ecx
	ret	20					; 00000014H
$LN33@GetResourc:

; 1193 : 		return 0;
; 1194 : 
; 1195 : 	ResourceUsageTypes eUsage = pkResourceInfo->getResourceUsage();

	mov	ecx, edi
	call	?getResourceUsage@CvResourceInfo@@QBE?AW4ResourceUsageTypes@@XZ ; CvResourceInfo::getResourceUsage

; 1196 : 
; 1197 : 	// Luxury Resource
; 1198 : 	if(eUsage == RESOURCEUSAGE_LUXURY)

	cmp	eax, 2
	jne	SHORT $LN32@GetResourc

; 1199 : 	{
; 1200 : 		if (GC.getGame().GetGameLeagues()->IsLuxuryHappinessBanned(GetPlayer()->GetID(), eResource))

	mov	eax, DWORD PTR [ebp]
	mov	eax, DWORD PTR [eax+44]
	mov	ecx, DWORD PTR ?gGlobals@@3VCvGlobals@@A+48
	push	ebx
	push	eax
	call	?GetGameLeagues@CvGame@@QAEPAVCvGameLeagues@@XZ ; CvGame::GetGameLeagues
	mov	ecx, eax
	call	?IsLuxuryHappinessBanned@CvGameLeagues@@QAE_NW4PlayerTypes@@W4ResourceTypes@@@Z ; CvGameLeagues::IsLuxuryHappinessBanned
	test	al, al

; 1201 : 		{
; 1202 : 			iItemValue = 0;
; 1203 : 		}
; 1204 : 		else

	jne	$LN21@GetResourc

; 1205 : 		{
; 1206 : 			int iHappinessFromResource = pkResourceInfo->getHappiness();

	mov	ecx, edi
	call	?getHappiness@CvResourceInfo@@QBEHXZ	; CvResourceInfo::getHappiness
	mov	esi, eax
	imul	esi, DWORD PTR _iResourceQuantity$[esp+16]

; 1207 : 			iItemValue += (iResourceQuantity * iHappinessFromResource * iNumTurns * 2);	// Ex: 1 Silk for 4 Happiness * 30 turns * 2 = 240

	imul	esi, DWORD PTR _iNumTurns$[esp+16]
	add	esi, esi

; 1208 : 
; 1209 : 			// If we only have 1 of a Luxury then we value it much more
; 1210 : 			if(bFromMe)

	cmp	BYTE PTR _bFromMe$[esp+16], 0
	je	$LN19@GetResourc

; 1211 : 			{
; 1212 : 				if(GetPlayer()->getNumResourceAvailable(eResource) == 1)

	mov	ecx, DWORD PTR [ebp]
	push	1
	push	ebx
	call	?getNumResourceAvailable@CvPlayer@@QBEHW4ResourceTypes@@_N@Z ; CvPlayer::getNumResourceAvailable
	cmp	eax, 1
	jne	$LN20@GetResourc

; 1213 : 				{
; 1214 : 					iItemValue *= 3;
; 1215 : 					if(GetPlayer()->GetPlayerTraits()->GetLuxuryHappinessRetention() > 0)

	mov	ecx, DWORD PTR [ebp]
	lea	esi, DWORD PTR [esi+esi*2]
	call	?GetPlayerTraits@CvPlayer@@QBEPAVCvPlayerTraits@@XZ ; CvPlayer::GetPlayerTraits
	cmp	DWORD PTR [eax+256], 0
	jle	$LN20@GetResourc

; 1216 : 					{
; 1217 : 						iItemValue /= 2;

	mov	eax, esi
	cdq
	sub	eax, edx
	sar	eax, 1
	mov	esi, eax

; 1218 : 					}
; 1219 : 				}
; 1220 : 			}
; 1221 : 		}

	jmp	$LN20@GetResourc
$LN32@GetResourc:

; 1222 : 	}
; 1223 : 	// Strategic Resource
; 1224 : 	else if(eUsage == RESOURCEUSAGE_STRATEGIC)

	cmp	eax, 1
	jne	$LN20@GetResourc

; 1225 : 	{
; 1226 : 		//tricksy humans trying to sploit us
; 1227 : 		if(!bFromMe)

	cmp	BYTE PTR _bFromMe$[esp+16], 0
	jne	SHORT $LN81@GetResourc

; 1228 : 		{
; 1229 : 			// if we already have a big surplus of this resource
; 1230 : 			if(GetPlayer()->getNumResourceAvailable(eResource) > GetPlayer()->getNumCities())

	mov	esi, DWORD PTR [ebp]
	push	eax
	push	ebx
	mov	ecx, esi
	call	?getNumResourceAvailable@CvPlayer@@QBEHW4ResourceTypes@@_N@Z ; CvPlayer::getNumResourceAvailable
	mov	ecx, esi
	mov	edi, eax
	call	?getNumCities@CvPlayer@@QBEHXZ		; CvPlayer::getNumCities
	cmp	edi, eax
	jle	SHORT $LN23@GetResourc

; 1231 : 			{
; 1232 : 				iResourceQuantity = 0;

	xor	esi, esi

; 1233 : 			}
; 1234 : 			else

	jmp	SHORT $LN22@GetResourc
$LN23@GetResourc:

; 1235 : 			{
; 1236 : 				iResourceQuantity = min(max(5,GetPlayer()->getNumCities()), iResourceQuantity);

	mov	ecx, DWORD PTR [ebp]
	call	?getNumCities@CvPlayer@@QBEHXZ		; CvPlayer::getNumCities
	mov	DWORD PTR $T225870[esp+16], eax
	cmp	eax, 5
	mov	DWORD PTR $T225871[esp+20], 5
	lea	eax, DWORD PTR $T225870[esp+16]
	jg	SHORT $LN59@GetResourc
	lea	eax, DWORD PTR $T225871[esp+20]
$LN59@GetResourc:
	mov	ecx, DWORD PTR _iResourceQuantity$[esp+16]
	cmp	ecx, DWORD PTR [eax]
	jge	SHORT $LN62@GetResourc
	lea	eax, DWORD PTR _iResourceQuantity$[esp+16]
$LN62@GetResourc:
	mov	esi, DWORD PTR [eax]
	jmp	SHORT $LN22@GetResourc
$LN81@GetResourc:
	mov	esi, DWORD PTR _iResourceQuantity$[esp+16]
$LN22@GetResourc:

; 1237 : 			}
; 1238 : 		}
; 1239 : 		if(!GET_TEAM(GetPlayer()->getTeam()).IsResourceObsolete(eResource))

	mov	edx, DWORD PTR [ebp]
	mov	eax, DWORD PTR [edx+44]
	cmp	eax, 63					; 0000003fH
	ja	SHORT $LN70@GetResourc
	mov	ecx, DWORD PTR ?sr_TeamTypes@CvPreGame@@3ABV?$vector@W4TeamTypes@@V?$allocator@W4TeamTypes@@@std@@@std@@B ; CvPreGame::sr_TeamTypes
	mov	edx, DWORD PTR [ecx+4]
	mov	eax, DWORD PTR [edx+eax*4]
	jmp	SHORT $LN71@GetResourc
$LN70@GetResourc:
	or	eax, -1
$LN71@GetResourc:
	imul	eax, 2980				; 00000ba4H
	add	eax, DWORD PTR ?m_aTeams@CvTeam@@1PAV1@A ; CvTeam::m_aTeams
	push	ebx
	mov	ecx, eax
	call	?IsResourceObsolete@CvTeam@@QAE_NW4ResourceTypes@@@Z ; CvTeam::IsResourceObsolete
	test	al, al
	jne	SHORT $LN21@GetResourc

; 1240 : 		{
; 1241 : 			iItemValue += (iResourceQuantity * iNumTurns * 150 / 100);	// Ex: 5 Iron for 30 turns * 2 = value of 300

	imul	esi, DWORD PTR _iNumTurns$[esp+16]
	imul	esi, 150				; 00000096H
	mov	eax, 1374389535				; 51eb851fH
	imul	esi
	sar	edx, 5
	mov	esi, edx
	shr	esi, 31					; 0000001fH
	add	esi, edx

; 1242 : 		}
; 1243 : 		else

	jmp	SHORT $LN20@GetResourc
$LN21@GetResourc:

; 1244 : 		{
; 1245 : 			iItemValue = 0;

	xor	esi, esi
$LN20@GetResourc:

; 1246 : 		}
; 1247 : 	}
; 1248 : 
; 1249 : 	// Increase value if it's from us and we don't like the guy
; 1250 : 	if(bFromMe)

	cmp	BYTE PTR _bFromMe$[esp+16], 0
	je	$LN19@GetResourc

; 1251 : 	{
; 1252 : 		int iModifier = 0;
; 1253 : 
; 1254 : 		// Opinion also matters
; 1255 : 		switch(GetPlayer()->GetDiplomacyAI()->GetMajorCivOpinion(eOtherPlayer))

	mov	ebx, DWORD PTR _eOtherPlayer$[esp+16]
	mov	ecx, DWORD PTR [ebp]
	push	ebx
	call	?GetDiplomacyAI@CvPlayer@@QBEPAVCvDiplomacyAI@@XZ ; CvPlayer::GetDiplomacyAI
	mov	ecx, eax
	call	?GetMajorCivOpinion@CvDiplomacyAI@@QBE?AW4MajorCivOpinionTypes@@W4PlayerTypes@@@Z ; CvDiplomacyAI::GetMajorCivOpinion
	cmp	eax, 6
	ja	SHORT $LN9@GetResourc
	jmp	DWORD PTR $LN82@GetResourc[eax*4]
$LN12@GetResourc:

; 1256 : 		{
; 1257 : 		case MAJOR_CIV_OPINION_ALLY:
; 1258 : 			iModifier = 100;
; 1259 : 			break;
; 1260 : 		case MAJOR_CIV_OPINION_FRIEND:
; 1261 : 			iModifier = 100;
; 1262 : 			break;
; 1263 : 		case MAJOR_CIV_OPINION_FAVORABLE:
; 1264 : 			iModifier = 100;
; 1265 : 			break;
; 1266 : 		case MAJOR_CIV_OPINION_NEUTRAL:
; 1267 : 			iModifier = 100;
; 1268 : 			break;
; 1269 : 		case MAJOR_CIV_OPINION_COMPETITOR:
; 1270 : 			iModifier = 175;

	mov	edi, 175				; 000000afH

; 1271 : 			break;

	jmp	SHORT $LN17@GetResourc
$LN11@GetResourc:

; 1272 : 		case MAJOR_CIV_OPINION_ENEMY:
; 1273 : 			iModifier = 400;

	mov	edi, 400				; 00000190H

; 1274 : 			break;

	jmp	SHORT $LN17@GetResourc
$LN10@GetResourc:

; 1275 : 		case MAJOR_CIV_OPINION_UNFORGIVABLE:
; 1276 : 			iModifier = 1000;

	mov	edi, 1000				; 000003e8H

; 1277 : 			break;

	jmp	SHORT $LN17@GetResourc
$LN9@GetResourc:

; 1278 : 		default:
; 1279 : 			CvAssertMsg(false, "DEAL_AI: AI player has no valid Opinion for Resource valuation.  Please send Jon this with your last 5 autosaves and what changelist # you're playing.")
; 1280 : 			iModifier = 100;

	mov	edi, 100				; 00000064H
$LN17@GetResourc:

; 1281 : 			break;
; 1282 : 		}
; 1283 : 
; 1284 : 		// Approach is important
; 1285 : 		switch(GetPlayer()->GetDiplomacyAI()->GetMajorCivApproach(eOtherPlayer, /*bHideTrueFeelings*/ true))

	mov	ecx, DWORD PTR [ebp]
	push	1
	push	ebx
	call	?GetDiplomacyAI@CvPlayer@@QBEPAVCvDiplomacyAI@@XZ ; CvPlayer::GetDiplomacyAI
	mov	ecx, eax
	call	?GetMajorCivApproach@CvDiplomacyAI@@QBE?AW4MajorCivApproachTypes@@W4PlayerTypes@@_N@Z ; CvDiplomacyAI::GetMajorCivApproach
	dec	eax
	cmp	eax, 5
	ja	SHORT $LN1@GetResourc
	jmp	DWORD PTR $LN83@GetResourc[eax*4]
$LN6@GetResourc:

; 1286 : 		{
; 1287 : 		case MAJOR_CIV_APPROACH_HOSTILE:
; 1288 : 			iModifier += 300;

	add	edi, 300				; 0000012cH

; 1289 : 			break;

	jmp	SHORT $LN7@GetResourc
$LN5@GetResourc:

; 1290 : 		case MAJOR_CIV_APPROACH_GUARDED:
; 1291 : 			iModifier += 150;

	add	edi, 150				; 00000096H

; 1292 : 			break;

	jmp	SHORT $LN7@GetResourc
$LN4@GetResourc:

; 1293 : 		case MAJOR_CIV_APPROACH_AFRAID:
; 1294 : 			iModifier = 200;	// Forced value

	mov	edi, 200				; 000000c8H

; 1295 : 			break;

	jmp	SHORT $LN7@GetResourc
$LN1@GetResourc:

; 1296 : 		case MAJOR_CIV_APPROACH_FRIENDLY:
; 1297 : 			iModifier = 200;	// Forced value
; 1298 : 			break;
; 1299 : 		case MAJOR_CIV_APPROACH_NEUTRAL:
; 1300 : 			iModifier += 100;
; 1301 : 			break;
; 1302 : 		default:
; 1303 : 			CvAssertMsg(false, "DEAL_AI: AI player has no valid Approach for Resource valuation.  Please send Jon this with your last 5 autosaves and what changelist # you're playing.")
; 1304 : 			iModifier += 100;

	add	edi, 100				; 00000064H
$LN7@GetResourc:

; 1305 : 			break;
; 1306 : 		}
; 1307 : 
; 1308 : 		iItemValue *= iModifier;

	imul	edi, esi

; 1309 : 		iItemValue /= 200;	// 200 because we've added two mods together

	mov	eax, 1374389535				; 51eb851fH
	imul	edi
	sar	edx, 6
	mov	eax, edx
	shr	eax, 31					; 0000001fH
	add	eax, edx
	mov	esi, eax
$LN19@GetResourc:
	pop	edi

; 1310 : 	}
; 1311 : 
; 1312 : 	return iItemValue;

	mov	eax, esi
	pop	esi
	pop	ebp
	pop	ebx

; 1313 : }

	pop	ecx
	ret	20					; 00000014H
	npad	2
$LN82@GetResourc:
	DD	$LN10@GetResourc
	DD	$LN11@GetResourc
	DD	$LN12@GetResourc
	DD	$LN9@GetResourc
	DD	$LN9@GetResourc
	DD	$LN9@GetResourc
	DD	$LN9@GetResourc
$LN83@GetResourc:
	DD	$LN6@GetResourc
	DD	$LN1@GetResourc
	DD	$LN5@GetResourc
	DD	$LN4@GetResourc
	DD	$LN4@GetResourc
	DD	$LN1@GetResourc
?GetResourceValue@CvDealAI@@QAEHW4ResourceTypes@@HH_NW4PlayerTypes@@@Z ENDP ; CvDealAI::GetResourceValue
_TEXT	ENDS
PUBLIC	?GetCityValue@CvDealAI@@QAEHHH_NW4PlayerTypes@@0@Z ; CvDealAI::GetCityValue
EXTRN	?IsOriginalMajorCapital@CvCity@@QBE_NXZ:PROC	; CvCity::IsOriginalMajorCapital
EXTRN	?nextCity@CvPlayer@@QAEPAVCvCity@@PAH_N@Z:PROC	; CvPlayer::nextCity
EXTRN	?firstCity@CvPlayer@@QAEPAVCvCity@@PAH_N@Z:PROC	; CvPlayer::firstCity
EXTRN	?isAtWar@CvTeam@@QBE_NW4TeamTypes@@@Z:PROC	; CvTeam::isAtWar
EXTRN	?GetWarProjection@CvDiplomacyAI@@QBE?AW4WarProjectionTypes@@W4PlayerTypes@@@Z:PROC ; CvDiplomacyAI::GetWarProjection
EXTRN	?hasActiveWorldWonder@CvCity@@QBE_NXZ:PROC	; CvCity::hasActiveWorldWonder
EXTRN	?getGameTurn@CvGame@@QAEHXZ:PROC		; CvGame::getGameTurn
EXTRN	?getMaxTurns@CvGame@@QBEHXZ:PROC		; CvGame::getMaxTurns
EXTRN	?getNumResource@CvPlot@@QBEHXZ:PROC		; CvPlot::getNumResource
EXTRN	?getNonObsoleteResourceType@CvPlot@@QBE?AW4ResourceTypes@@W4TeamTypes@@@Z:PROC ; CvPlot::getNonObsoleteResourceType
EXTRN	?getImprovementType@CvPlot@@QBE?AW4ImprovementTypes@@XZ:PROC ; CvPlot::getImprovementType
EXTRN	?GetCityPurchaseID@CvPlot@@QAEHXZ:PROC		; CvPlot::GetCityPurchaseID
EXTRN	?GetCityPlotFromIndex@CvCityCitizens@@QBEPAVCvPlot@@H@Z:PROC ; CvCityCitizens::GetCityPlotFromIndex
EXTRN	?GetCityCitizens@CvCity@@QBEPAVCvCityCitizens@@XZ:PROC ; CvCity::GetCityCitizens
EXTRN	?GetBuyPlotCost@CvPlayer@@QBEHXZ:PROC		; CvPlayer::GetBuyPlotCost
EXTRN	?getPopulation@CvCity@@QBEHXZ:PROC		; CvCity::getPopulation
; Function compile flags: /Ogtpy
;	COMDAT ?GetCityValue@CvDealAI@@QAEHHH_NW4PlayerTypes@@0@Z
_TEXT	SEGMENT
_iGoldValueOfResourcePlots$222482 = -40			; size = 4
_this$ = -36						; size = 4
_iGoldValueOfImprovedPlots$222481 = -32			; size = 4
_iGoldValueOfPlots$222480 = -28				; size = 4
_pCity$ = -24						; size = 4
_goldPerPlot$222479 = -20				; size = 4
_iI$222483 = -16					; size = 4
$T225980 = -12						; size = 4
$T225978 = -12						; size = 4
_eUsage$222495 = -12					; size = 4
$T225979 = -8						; size = 4
_iNumTurns$222498 = -8					; size = 4
_iCityLoop$222527 = -4					; size = 4
_eResource$222491 = -4					; size = 4
_iX$ = 8						; size = 4
_iY$ = 12						; size = 4
_bFromMe$ = 16						; size = 1
_eOtherPlayer$ = 20					; size = 4
_bUseEvenValue$ = 24					; size = 1
?GetCityValue@CvDealAI@@QAEHHH_NW4PlayerTypes@@0@Z PROC	; CvDealAI::GetCityValue, COMDAT
; _this$ = ecx

; 1317 : {

	sub	esp, 40					; 00000028H
	push	ebx
	push	ebp
	push	esi
	push	edi

; 1318 : 	CvAssertMsg(GetPlayer()->GetID() != eOtherPlayer, "DEAL_AI: Trying to check value of City with oneself.  Please send Jon this with your last 5 autosaves and what changelist # you're playing.");
; 1319 : 
; 1320 : 	int iItemValue = 0;
; 1321 : 
; 1322 : 	CvCity* pCity = GC.getMap().plot(iX, iY)->getPlotCity();

	mov	edi, DWORD PTR _iX$[esp+52]
	xor	ebx, ebx
	mov	DWORD PTR _this$[esp+56], ecx
	cmp	edi, -2147483647			; 80000001H
	je	$LN191@GetCityVal
	cmp	DWORD PTR _iY$[esp+52], -2147483647	; 80000001H
	je	$LN191@GetCityVal
	mov	ebp, DWORD PTR ?gGlobals@@3VCvGlobals@@A+52
	mov	ecx, DWORD PTR [ebp+4020]
	cmp	BYTE PTR [ebp+4056], bl
	je	SHORT $LN54@GetCityVal
	test	edi, edi
	jge	SHORT $LN56@GetCityVal
	mov	eax, edi
	cdq
	idiv	ecx
	mov	esi, edx
	add	esi, ecx
	jmp	SHORT $LN58@GetCityVal
$LN56@GetCityVal:
	cmp	edi, ecx
	jl	SHORT $LN54@GetCityVal
	mov	eax, edi
	cdq
	idiv	ecx
	mov	esi, edx
	jmp	SHORT $LN58@GetCityVal
$LN54@GetCityVal:
	mov	esi, edi
$LN58@GetCityVal:
	mov	edi, DWORD PTR [ebp+4024]
	mov	eax, DWORD PTR _iY$[esp+52]
	cmp	BYTE PTR [ebp+4057], bl
	je	SHORT $LN64@GetCityVal
	test	eax, eax
	jge	SHORT $LN66@GetCityVal
	cdq
	idiv	edi
	add	edx, edi
	jmp	SHORT $LN68@GetCityVal
$LN66@GetCityVal:
	cmp	eax, edi
	jl	SHORT $LN64@GetCityVal
	cdq
	idiv	edi
	jmp	SHORT $LN68@GetCityVal
$LN64@GetCityVal:
	mov	edx, eax
$LN68@GetCityVal:
	test	esi, esi
	jl	SHORT $LN48@GetCityVal
	cmp	esi, ecx
	jge	SHORT $LN48@GetCityVal
	test	edx, edx
	jl	SHORT $LN48@GetCityVal
	cmp	edx, edi
	jge	SHORT $LN48@GetCityVal
	mov	edi, DWORD PTR _iX$[esp+52]
	imul	ecx, edx
	add	ecx, esi
	imul	ecx, 484				; 000001e4H
	add	ecx, DWORD PTR [ebp+4068]
	jmp	SHORT $LN46@GetCityVal
$LN48@GetCityVal:
	mov	edi, DWORD PTR _iX$[esp+52]
$LN191@GetCityVal:
	xor	ecx, ecx
$LN46@GetCityVal:
	mov	eax, DWORD PTR [ecx+104]
	test	eax, eax
	jl	$LN197@GetCityVal
	cmp	eax, 64					; 00000040H
	jge	$LN197@GetCityVal
	mov	ecx, DWORD PTR [ecx+108]
	imul	eax, 63236				; 0000f704H
	add	eax, DWORD PTR ?m_aPlayers@CvPlayerAI@@1PAV1@A ; CvPlayerAI::m_aPlayers
	push	ecx
	mov	ecx, eax
	call	?getCity@CvPlayer@@QAEPAVCvCity@@H@Z	; CvPlayer::getCity
	mov	edi, eax
	mov	DWORD PTR _pCity$[esp+56], edi

; 1323 : 
; 1324 : 	if(pCity != NULL)

	test	edi, edi
	je	$LN199@GetCityVal

; 1325 : 	{
; 1326 : 		iItemValue = 440 + (pCity->getPopulation() * 200);

	mov	ecx, edi
	call	?getPopulation@CvCity@@QBEHXZ		; CvCity::getPopulation

; 1327 : 
; 1328 : 		// add in the value of every plot this city owns (plus improvements and resources)
; 1329 : 		// okay, I'm only going to count in the 3-rings plots since we can't actually use any others (I realize there may be a resource way out there)
; 1330 : 
; 1331 : 		int goldPerPlot = GetPlayer()->GetBuyPlotCost(); // this is how much ANY plot is worth to me right now

	mov	edx, DWORD PTR _this$[esp+56]
	mov	ecx, DWORD PTR [edx]
	mov	ebx, eax
	imul	ebx, 200				; 000000c8H
	add	ebx, 440				; 000001b8H
	call	?GetBuyPlotCost@CvPlayer@@QBEHXZ	; CvPlayer::GetBuyPlotCost

; 1332 : 
; 1333 : 		int iGoldValueOfPlots = 0;

	xor	ebp, ebp
	mov	DWORD PTR _goldPerPlot$222479[esp+56], eax
	mov	DWORD PTR _iGoldValueOfPlots$222480[esp+56], ebp

; 1334 : 		int iGoldValueOfImprovedPlots = 0;

	mov	DWORD PTR _iGoldValueOfImprovedPlots$222481[esp+56], ebp

; 1335 : 		int iGoldValueOfResourcePlots = 0;

	mov	DWORD PTR _iGoldValueOfResourcePlots$222482[esp+56], ebp

; 1336 : 		for(int iI = 0; iI < NUM_CITY_PLOTS; iI++)

	mov	DWORD PTR _iI$222483[esp+56], ebp
	jmp	SHORT $LN34@GetCityVal
$LL202@GetCityVal:
	mov	edi, DWORD PTR _pCity$[esp+56]
$LN34@GetCityVal:

; 1337 : 		{
; 1338 : 			CvPlot* pLoopPlot = pCity->GetCityCitizens()->GetCityPlotFromIndex(iI);

	push	ebp
	mov	ecx, edi
	call	?GetCityCitizens@CvCity@@QBEPAVCvCityCitizens@@XZ ; CvCity::GetCityCitizens
	mov	ecx, eax
	call	?GetCityPlotFromIndex@CvCityCitizens@@QBEPAVCvPlot@@H@Z ; CvCityCitizens::GetCityPlotFromIndex
	mov	esi, eax

; 1339 : 			if(NULL != pLoopPlot && pCity->GetID() == pLoopPlot->GetCityPurchaseID())

	test	esi, esi
	je	$LN33@GetCityVal
	mov	edi, DWORD PTR [edi+120]
	mov	ecx, esi
	call	?GetCityPurchaseID@CvPlot@@QAEHXZ	; CvPlot::GetCityPurchaseID
	cmp	edi, eax
	jne	$LN33@GetCityVal

; 1340 : 			{
; 1341 : 				if(iI > 6)

	cmp	ebp, 6
	jle	SHORT $LN203@GetCityVal

; 1342 : 				{
; 1343 : 					iGoldValueOfPlots += goldPerPlot; // this is a bargain, but at least it's in the ballpark

	mov	eax, DWORD PTR _goldPerPlot$222479[esp+56]
	add	DWORD PTR _iGoldValueOfPlots$222480[esp+56], eax
$LN203@GetCityVal:

; 1344 : 				}
; 1345 : 				if(pLoopPlot->getImprovementType() != NO_IMPROVEMENT)

	mov	ecx, esi
	call	?getImprovementType@CvPlot@@QBE?AW4ImprovementTypes@@XZ ; CvPlot::getImprovementType
	cmp	eax, -1
	je	SHORT $LN29@GetCityVal

; 1346 : 				{
; 1347 : 					iGoldValueOfImprovedPlots += goldPerPlot * 25;

	mov	ecx, DWORD PTR _goldPerPlot$222479[esp+56]
	imul	ecx, 25					; 00000019H
	add	DWORD PTR _iGoldValueOfImprovedPlots$222481[esp+56], ecx
$LN29@GetCityVal:

; 1348 : 				}
; 1349 : 				ResourceTypes eResource = pLoopPlot->getNonObsoleteResourceType(GetPlayer()->getTeam());

	mov	edx, DWORD PTR _this$[esp+56]
	mov	eax, DWORD PTR [edx]
	mov	eax, DWORD PTR [eax+44]
	cmp	eax, 63					; 0000003fH
	ja	SHORT $LN99@GetCityVal
	mov	ecx, DWORD PTR ?sr_TeamTypes@CvPreGame@@3ABV?$vector@W4TeamTypes@@V?$allocator@W4TeamTypes@@@std@@@std@@B ; CvPreGame::sr_TeamTypes
	mov	edx, DWORD PTR [ecx+4]
	mov	eax, DWORD PTR [edx+eax*4]
	jmp	SHORT $LN100@GetCityVal
$LN99@GetCityVal:
	or	eax, -1
$LN100@GetCityVal:
	push	eax
	mov	ecx, esi
	call	?getNonObsoleteResourceType@CvPlot@@QBE?AW4ResourceTypes@@W4TeamTypes@@@Z ; CvPlot::getNonObsoleteResourceType
	mov	DWORD PTR _eResource$222491[esp+56], eax

; 1350 : 				if(eResource != NO_RESOURCE)

	cmp	eax, -1
	je	$LN33@GetCityVal

; 1351 : 				{
; 1352 : 					const CvResourceInfo* pkResourceInfo = GC.getResourceInfo(eResource);

	push	eax
	mov	ecx, OFFSET ?gGlobals@@3VCvGlobals@@A	; gGlobals
	call	?getResourceInfo@CvGlobals@@QAEPAVCvResourceInfo@@W4ResourceTypes@@@Z ; CvGlobals::getResourceInfo
	mov	ebp, eax

; 1353 : 					if (pkResourceInfo)

	test	ebp, ebp
	je	$LN33@GetCityVal

; 1354 : 					{
; 1355 : 						ResourceUsageTypes eUsage = pkResourceInfo->getResourceUsage();

	mov	ecx, ebp
	call	?getResourceUsage@CvResourceInfo@@QBE?AW4ResourceUsageTypes@@XZ ; CvResourceInfo::getResourceUsage

; 1356 : 						int iResourceQuantity = pLoopPlot->getNumResource();

	mov	ecx, esi
	mov	DWORD PTR _eUsage$222495[esp+56], eax
	call	?getNumResource@CvPlot@@QBEHXZ		; CvPlot::getNumResource
	mov	edi, eax

; 1357 : 						// Luxury Resource
; 1358 : 						if(eUsage == RESOURCEUSAGE_LUXURY)

	mov	eax, DWORD PTR _eUsage$222495[esp+56]
	cmp	eax, 2
	jne	$LN26@GetCityVal

; 1359 : 						{
; 1360 : #ifdef AUI_WARNING_FIXES
; 1361 : 							int iNumTurns = MIN(1, GC.getGame().getMaxTurns() - GC.getGame().getGameTurn());
; 1362 : 							iNumTurns = MAX(120, iNumTurns); // let's not go hog wild here
; 1363 : #else
; 1364 : 							int iNumTurns = min(1,GC.getGame().getMaxTurns() - GC.getGame().getGameTurn());

	mov	ecx, DWORD PTR ?gGlobals@@3VCvGlobals@@A+48
	call	?getMaxTurns@CvGame@@QBEHXZ		; CvGame::getMaxTurns
	mov	ecx, DWORD PTR ?gGlobals@@3VCvGlobals@@A+48
	mov	esi, eax
	call	?getGameTurn@CvGame@@QAEHXZ		; CvGame::getGameTurn
	sub	esi, eax
	cmp	esi, 1
	mov	DWORD PTR $T225978[esp+56], esi
	mov	DWORD PTR $T225979[esp+56], 1
	lea	eax, DWORD PTR $T225978[esp+56]
	jl	SHORT $LN111@GetCityVal
	lea	eax, DWORD PTR $T225979[esp+56]
$LN111@GetCityVal:
	mov	eax, DWORD PTR [eax]
	mov	DWORD PTR _iNumTurns$222498[esp+56], eax

; 1365 : 							iNumTurns = max(120,iNumTurns); // let's not go hog wild here

	cmp	eax, 120				; 00000078H
	mov	DWORD PTR $T225980[esp+56], 120		; 00000078H
	lea	eax, DWORD PTR _iNumTurns$222498[esp+56]
	jg	SHORT $LN115@GetCityVal
	lea	eax, DWORD PTR $T225980[esp+56]
$LN115@GetCityVal:
	mov	esi, DWORD PTR [eax]

; 1366 : #endif
; 1367 : 							int iHappinessFromResource = pkResourceInfo->getHappiness();

	mov	ecx, ebp
	call	?getHappiness@CvResourceInfo@@QBEHXZ	; CvResourceInfo::getHappiness

; 1368 : 							iGoldValueOfResourcePlots += (iResourceQuantity * iHappinessFromResource * iNumTurns * 2);	// Ex: 1 Silk for 4 Happiness * 30 turns * 2 = 240

	imul	eax, esi
	mov	esi, eax
	mov	eax, DWORD PTR _iGoldValueOfResourcePlots$222482[esp+56]
	imul	esi, edi

; 1369 : 							// If we only have 1 of a Luxury then we value it much more
; 1370 : 							if(bFromMe)

	cmp	BYTE PTR _bFromMe$[esp+52], 0
	lea	ecx, DWORD PTR [eax+esi*2]
	mov	DWORD PTR _iGoldValueOfResourcePlots$222482[esp+56], ecx
	je	SHORT $LN33@GetCityVal

; 1371 : 							{
; 1372 : 								if(GetPlayer()->getNumResourceAvailable(eResource) == 1)

	mov	edx, DWORD PTR _this$[esp+56]
	mov	eax, DWORD PTR _eResource$222491[esp+56]
	mov	ecx, DWORD PTR [edx]
	push	1
	push	eax
	call	?getNumResourceAvailable@CvPlayer@@QBEHW4ResourceTypes@@_N@Z ; CvPlayer::getNumResourceAvailable
	cmp	eax, 1
	jne	SHORT $LN33@GetCityVal

; 1373 : 								{
; 1374 : 									iGoldValueOfResourcePlots += (iResourceQuantity * iHappinessFromResource * iNumTurns * 4);

	mov	ecx, DWORD PTR _iGoldValueOfResourcePlots$222482[esp+56]
	lea	edx, DWORD PTR [ecx+esi*4]
	mov	DWORD PTR _iGoldValueOfResourcePlots$222482[esp+56], edx

; 1375 : 								}
; 1376 : 							}
; 1377 : 						}

	jmp	SHORT $LN33@GetCityVal
$LN26@GetCityVal:

; 1378 : 						// Strategic Resource
; 1379 : 						else if(eUsage == RESOURCEUSAGE_STRATEGIC)

	cmp	eax, 1
	jne	SHORT $LN33@GetCityVal

; 1380 : 						{
; 1381 : 							int iNumTurns = 60; // okay, this is a reasonable estimate
; 1382 : 							iGoldValueOfResourcePlots += (iResourceQuantity * iNumTurns * 150 / 100);

	imul	edi, 9000				; 00002328H
	mov	eax, 1374389535				; 51eb851fH
	imul	edi
	sar	edx, 5
	mov	eax, edx
	shr	eax, 31					; 0000001fH
	add	eax, edx
	add	DWORD PTR _iGoldValueOfResourcePlots$222482[esp+56], eax
$LN33@GetCityVal:
	mov	ebp, DWORD PTR _iI$222483[esp+56]
	inc	ebp
	cmp	ebp, 37					; 00000025H
	mov	DWORD PTR _iI$222483[esp+56], ebp
	jl	$LL202@GetCityVal

; 1383 : 						}
; 1384 : 					}
; 1385 : 				}
; 1386 : 			}
; 1387 : 		}
; 1388 : 		iGoldValueOfImprovedPlots /= 100;

	mov	eax, 1374389535				; 51eb851fH
	imul	DWORD PTR _iGoldValueOfImprovedPlots$222481[esp+56]
	sar	edx, 5
	mov	ecx, edx
	shr	ecx, 31					; 0000001fH
	add	ecx, edx

; 1389 : 
; 1390 : 		iItemValue = iItemValue + iGoldValueOfPlots + iGoldValueOfImprovedPlots + iGoldValueOfResourcePlots;

	add	ecx, DWORD PTR _iGoldValueOfResourcePlots$222482[esp+56]
	add	ecx, DWORD PTR _iGoldValueOfPlots$222480[esp+56]
	add	ebx, ecx

; 1391 : 
; 1392 : 		// add in the (gold) value of the buildings (Or should we?  Will they transfer?)
; 1393 : 
; 1394 : 		// From this player - add extra weight (don't want the human giving the AI a bit of gold for good cities)
; 1395 : 		if(bFromMe)

	cmp	BYTE PTR _bFromMe$[esp+52], 0
	je	$LN21@GetCityVal

; 1396 : 		{
; 1397 : 			// Wonders are nice
; 1398 : 			if(pCity->hasActiveWorldWonder())

	mov	ecx, DWORD PTR _pCity$[esp+56]
	call	?hasActiveWorldWonder@CvCity@@QBE_NXZ	; CvCity::hasActiveWorldWonder
	test	al, al
	je	SHORT $LN20@GetCityVal

; 1399 : 				iItemValue *= 2;

	add	ebx, ebx
$LN20@GetCityVal:

; 1400 : 
; 1401 : 			// Adjust for how well a war against this player would go (or is going)
; 1402 : 			switch(GetPlayer()->GetDiplomacyAI()->GetWarProjection(eOtherPlayer))

	mov	edi, DWORD PTR _this$[esp+56]
	mov	esi, DWORD PTR _eOtherPlayer$[esp+52]
	mov	ecx, DWORD PTR [edi]
	push	esi
	call	?GetDiplomacyAI@CvPlayer@@QBEPAVCvDiplomacyAI@@XZ ; CvPlayer::GetDiplomacyAI
	mov	ecx, eax
	call	?GetWarProjection@CvDiplomacyAI@@QBE?AW4WarProjectionTypes@@W4PlayerTypes@@@Z ; CvDiplomacyAI::GetWarProjection
	cmp	eax, 5
	ja	SHORT $LN11@GetCityVal
	jmp	DWORD PTR $LN204@GetCityVal[eax*4]
$LN17@GetCityVal:

; 1403 : 			{
; 1404 : 			case WAR_PROJECTION_DESTRUCTION:
; 1405 : 				iItemValue *= 100;

	imul	ebx, 100				; 00000064H

; 1406 : 				break;

	jmp	SHORT $LN18@GetCityVal
$LN16@GetCityVal:

; 1407 : 			case WAR_PROJECTION_DEFEAT:
; 1408 : 				iItemValue *= 180;

	imul	ebx, 180				; 000000b4H

; 1409 : 				break;

	jmp	SHORT $LN18@GetCityVal
$LN15@GetCityVal:

; 1410 : 			case WAR_PROJECTION_STALEMATE:
; 1411 : 				iItemValue *= 220;

	imul	ebx, 220				; 000000dcH

; 1412 : 				break;

	jmp	SHORT $LN18@GetCityVal
$LN14@GetCityVal:

; 1413 : 			case WAR_PROJECTION_UNKNOWN:
; 1414 : 				iItemValue *= 250;

	imul	ebx, 250				; 000000faH

; 1415 : 				break;

	jmp	SHORT $LN18@GetCityVal
$LN13@GetCityVal:

; 1416 : 			case WAR_PROJECTION_GOOD:
; 1417 : 				iItemValue *= 400;

	imul	ebx, 400				; 00000190H

; 1418 : 				break;

	jmp	SHORT $LN18@GetCityVal
$LN11@GetCityVal:

; 1419 : 			case WAR_PROJECTION_VERY_GOOD:
; 1420 : 				iItemValue *= 400;
; 1421 : 				break;
; 1422 : 			default:
; 1423 : 				CvAssertMsg(false, "DEAL_AI: AI player has no valid War Projection for City valuation.  Please send Jon this with your last 5 autosaves and what changelist # you're playing.")
; 1424 : 				iItemValue *= 300;

	imul	ebx, 300				; 0000012cH
$LN18@GetCityVal:

; 1425 : 				break;
; 1426 : 			}
; 1427 : 			iItemValue /= 100;

	mov	eax, 1374389535				; 51eb851fH
	imul	ebx

; 1428 : 
; 1429 : 			// AI players should be less willing to trade cities when not at war
; 1430 : 			if(!GET_TEAM(GetTeam()).isAtWar(GET_PLAYER(eOtherPlayer).getTeam()))

	mov	eax, DWORD PTR ?m_aPlayers@CvPlayerAI@@1PAV1@A ; CvPlayerAI::m_aPlayers
	sar	edx, 5
	mov	ebx, edx
	shr	ebx, 31					; 0000001fH
	add	ebx, edx
	mov	edx, esi
	imul	edx, 63236				; 0000f704H
	mov	eax, DWORD PTR [edx+eax+44]
	mov	edx, DWORD PTR ?sr_TeamTypes@CvPreGame@@3ABV?$vector@W4TeamTypes@@V?$allocator@W4TeamTypes@@@std@@@std@@B ; CvPreGame::sr_TeamTypes
	cmp	eax, 63					; 0000003fH
	ja	SHORT $LN126@GetCityVal
	mov	ecx, DWORD PTR [edx+4]
	mov	ecx, DWORD PTR [ecx+eax*4]
	jmp	SHORT $LN127@GetCityVal
$LN126@GetCityVal:
	or	ecx, -1
$LN127@GetCityVal:
	mov	eax, DWORD PTR [edi]
	mov	eax, DWORD PTR [eax+44]
	cmp	eax, 63					; 0000003fH
	ja	SHORT $LN137@GetCityVal
	mov	edx, DWORD PTR [edx+4]
	mov	eax, DWORD PTR [edx+eax*4]
	jmp	SHORT $LN138@GetCityVal
$LN137@GetCityVal:
	or	eax, -1
$LN138@GetCityVal:
	imul	eax, 2980				; 00000ba4H
	add	eax, DWORD PTR ?m_aTeams@CvTeam@@1PAV1@A ; CvTeam::m_aTeams
	push	ecx
	mov	ecx, eax
	call	?isAtWar@CvTeam@@QBE_NW4TeamTypes@@@Z	; CvTeam::isAtWar
	test	al, al
	jne	$LN41@GetCityVal

; 1431 : 			{
; 1432 : 				iItemValue *= 2;

	add	ebx, ebx

; 1433 : 			}
; 1434 : 
; 1435 : 		}	// END bFromMe
; 1436 : 		else

	jmp	$LN41@GetCityVal
$LN21@GetCityVal:

; 1437 : 		{
; 1438 : 			CvPlayerAI& theOtherPlayer = GET_PLAYER(eOtherPlayer);

	mov	esi, DWORD PTR _eOtherPlayer$[esp+52]

; 1439 : 			if(!GET_TEAM(GetTeam()).isAtWar(theOtherPlayer.getTeam()))

	mov	edx, DWORD PTR ?sr_TeamTypes@CvPreGame@@3ABV?$vector@W4TeamTypes@@V?$allocator@W4TeamTypes@@@std@@@std@@B ; CvPreGame::sr_TeamTypes
	imul	esi, 63236				; 0000f704H
	add	esi, DWORD PTR ?m_aPlayers@CvPlayerAI@@1PAV1@A ; CvPlayerAI::m_aPlayers
	mov	eax, DWORD PTR [esi+44]
	cmp	eax, 63					; 0000003fH
	ja	SHORT $LN150@GetCityVal
	mov	ecx, DWORD PTR [edx+4]
	mov	ecx, DWORD PTR [ecx+eax*4]
	jmp	SHORT $LN151@GetCityVal
$LN150@GetCityVal:
	or	ecx, -1
$LN151@GetCityVal:
	mov	edi, DWORD PTR _this$[esp+56]
	mov	eax, DWORD PTR [edi]
	mov	eax, DWORD PTR [eax+44]
	cmp	eax, 63					; 0000003fH
	ja	SHORT $LN161@GetCityVal
	mov	edx, DWORD PTR [edx+4]
	mov	eax, DWORD PTR [edx+eax*4]
	jmp	SHORT $LN162@GetCityVal
$LN161@GetCityVal:
	or	eax, -1
$LN162@GetCityVal:
	imul	eax, 2980				; 00000ba4H
	add	eax, DWORD PTR ?m_aTeams@CvTeam@@1PAV1@A ; CvTeam::m_aTeams
	push	ecx
	mov	ecx, eax
	call	?isAtWar@CvTeam@@QBE_NW4TeamTypes@@@Z	; CvTeam::isAtWar
	test	al, al
	jne	SHORT $LN196@GetCityVal

; 1440 : 			{
; 1441 : 				if(theOtherPlayer.isHuman())  // he is obviously trying to trick us

	mov	ecx, esi
	call	?isHuman@CvPlayer@@QBE_NXZ		; CvPlayer::isHuman
	test	al, al
	je	SHORT $LN196@GetCityVal

; 1442 : 				{
; 1443 : 					CvCity* pLoopCity;
; 1444 : 					int iCityLoop;
; 1445 : 					int iBestDistance = 99;
; 1446 : 					for(pLoopCity = m_pPlayer->firstCity(&iCityLoop); pLoopCity != NULL; pLoopCity = m_pPlayer->nextCity(&iCityLoop))

	mov	ecx, DWORD PTR [edi]
	push	0
	lea	eax, DWORD PTR _iCityLoop$222527[esp+60]
	push	eax
	mov	esi, 99					; 00000063H
	call	?firstCity@CvPlayer@@QAEPAVCvCity@@PAH_N@Z ; CvPlayer::firstCity
	test	eax, eax
	je	SHORT $LN39@GetCityVal
	npad	8
$LL6@GetCityVal:

; 1447 : 					{
; 1448 : 						int iDistFromThisCity = plotDistance(iX, iY, pLoopCity->getX(), pLoopCity->getY());

	mov	ecx, DWORD PTR [eax+108]
	mov	edx, DWORD PTR [eax+96]
	mov	eax, DWORD PTR _iY$[esp+52]
	push	ecx
	mov	ecx, DWORD PTR _iX$[esp+56]
	push	edx
	push	eax
	push	ecx
	call	?plotDistance@@YAHHHHH@Z		; plotDistance
	add	esp, 16					; 00000010H

; 1449 : 						if(iDistFromThisCity < iBestDistance)

	cmp	eax, esi
	jge	SHORT $LN5@GetCityVal

; 1450 : 						{
; 1451 : 							iBestDistance = iDistFromThisCity;

	mov	esi, eax
$LN5@GetCityVal:

; 1442 : 				{
; 1443 : 					CvCity* pLoopCity;
; 1444 : 					int iCityLoop;
; 1445 : 					int iBestDistance = 99;
; 1446 : 					for(pLoopCity = m_pPlayer->firstCity(&iCityLoop); pLoopCity != NULL; pLoopCity = m_pPlayer->nextCity(&iCityLoop))

	mov	ecx, DWORD PTR [edi]
	push	0
	lea	edx, DWORD PTR _iCityLoop$222527[esp+60]
	push	edx
	call	?nextCity@CvPlayer@@QAEPAVCvCity@@PAH_N@Z ; CvPlayer::nextCity
	test	eax, eax
	jne	SHORT $LL6@GetCityVal

; 1452 : 						}
; 1453 : 					}
; 1454 : 					iBestDistance = (iBestDistance > 4) ? iBestDistance : 5;

	cmp	esi, 4
	jg	SHORT $LN39@GetCityVal
	mov	esi, 5
$LN39@GetCityVal:

; 1455 : 					iItemValue /= iBestDistance - 4;

	mov	eax, ebx
	add	esi, -4					; fffffffcH
	cdq
	idiv	esi
	mov	ebx, eax

; 1456 : 					iItemValue = (iItemValue >= 100) ? iItemValue : 100;

	cmp	ebx, 100				; 00000064H
	jge	SHORT $LN196@GetCityVal
	mov	ebx, 100				; 00000064H
$LN196@GetCityVal:
	mov	esi, DWORD PTR _eOtherPlayer$[esp+52]
$LN41@GetCityVal:

; 1457 : 				}
; 1458 : 			}
; 1459 : 		}
; 1460 : 
; 1461 : 		// slewis - Due to rule changes, value of major capitals should go up quite a bit because someone can win the game by owning them
; 1462 : 		if (pCity->IsOriginalMajorCapital())

	mov	ecx, DWORD PTR _pCity$[esp+56]
	call	?IsOriginalMajorCapital@CvCity@@QBE_NXZ	; CvCity::IsOriginalMajorCapital

; 1463 : 		{
; 1464 : 			iItemValue *= 2;

	mov	edi, DWORD PTR _iX$[esp+52]
	test	al, al
	je	SHORT $LN2@GetCityVal
	add	ebx, ebx
	jmp	SHORT $LN2@GetCityVal
$LN199@GetCityVal:
	mov	edi, DWORD PTR _iX$[esp+52]
$LN197@GetCityVal:
	mov	esi, DWORD PTR _eOtherPlayer$[esp+52]
$LN2@GetCityVal:

; 1465 : 		}
; 1466 : 	}
; 1467 : 
; 1468 : 	// Are we trying to find the middle point between what we think this item is worth and what another player thinks it's worth?
; 1469 : 	if(bUseEvenValue)

	cmp	BYTE PTR _bUseEvenValue$[esp+52], 0
	je	SHORT $LN190@GetCityVal

; 1470 : 	{
; 1471 : 		iItemValue += GET_PLAYER(eOtherPlayer).GetDealAI()->GetCityValue(iX, iY, !bFromMe, GetPlayer()->GetID(), /*bUseEvenValue*/ false);

	mov	eax, DWORD PTR _this$[esp+56]
	imul	esi, 63236				; 0000f704H
	mov	ecx, DWORD PTR [eax]
	add	esi, DWORD PTR ?m_aPlayers@CvPlayerAI@@1PAV1@A ; CvPlayerAI::m_aPlayers
	mov	eax, DWORD PTR [ecx+44]
	cmp	BYTE PTR _bFromMe$[esp+52], 0
	push	0
	push	eax
	sete	dl
	movzx	eax, dl
	mov	edx, DWORD PTR _iY$[esp+60]
	push	eax
	push	edx
	mov	ecx, esi
	push	edi
	call	?GetDealAI@CvPlayer@@QBEPAVCvDealAI@@XZ	; CvPlayer::GetDealAI
	mov	ecx, eax
	call	?GetCityValue@CvDealAI@@QAEHHH_NW4PlayerTypes@@0@Z ; CvDealAI::GetCityValue
	add	eax, ebx
	pop	edi

; 1472 : 
; 1473 : 		iItemValue /= 2;

	cdq
	pop	esi
	sub	eax, edx
	pop	ebp
	sar	eax, 1
	pop	ebx

; 1477 : }

	add	esp, 40					; 00000028H
	ret	20					; 00000014H
$LN190@GetCityVal:
	pop	edi
	pop	esi
	pop	ebp

; 1474 : 	}
; 1475 : 
; 1476 : 	return iItemValue;

	mov	eax, ebx
	pop	ebx

; 1477 : }

	add	esp, 40					; 00000028H
	ret	20					; 00000014H
	npad	3
$LN204@GetCityVal:
	DD	$LN17@GetCityVal
	DD	$LN16@GetCityVal
	DD	$LN15@GetCityVal
	DD	$LN14@GetCityVal
	DD	$LN13@GetCityVal
	DD	$LN13@GetCityVal
?GetCityValue@CvDealAI@@QAEHHH_NW4PlayerTypes@@0@Z ENDP	; CvDealAI::GetCityValue
_TEXT	ENDS
PUBLIC	?GetOpenBordersValue@CvDealAI@@QAEH_NW4PlayerTypes@@0@Z ; CvDealAI::GetOpenBordersValue
EXTRN	?IsCramped@CvPlayer@@QBE_NXZ:PROC		; CvPlayer::IsCramped
EXTRN	?GetInfluenceLevel@CvPlayerCulture@@QBE?AW4InfluenceLevelTypes@@W4PlayerTypes@@@Z:PROC ; CvPlayerCulture::GetInfluenceLevel
EXTRN	?GetNumCivsToBeInfluentialOn@CvPlayerCulture@@QBEHXZ:PROC ; CvPlayerCulture::GetNumCivsToBeInfluentialOn
EXTRN	?GetNumCivsInfluentialOn@CvPlayerCulture@@QBEHXZ:PROC ; CvPlayerCulture::GetNumCivsInfluentialOn
EXTRN	?GetCivLowestInfluence@CvPlayerCulture@@QBE?AW4PlayerTypes@@_N@Z:PROC ; CvPlayerCulture::GetCivLowestInfluence
EXTRN	?GetActiveGrandStrategy@CvGrandStrategyAI@@QBE?AW4AIGrandStrategyTypes@@XZ:PROC ; CvGrandStrategyAI::GetActiveGrandStrategy
EXTRN	?GetProximityToPlayer@CvPlayer@@QBE?AW4PlayerProximityTypes@@W4PlayerTypes@@@Z:PROC ; CvPlayer::GetProximityToPlayer
EXTRN	?GetInfluenceOn@CvPlayerCulture@@QBEHW4PlayerTypes@@@Z:PROC ; CvPlayerCulture::GetInfluenceOn
EXTRN	?GetTourism@CvPlayerCulture@@QAEHXZ:PROC	; CvPlayerCulture::GetTourism
EXTRN	?GetCulture@CvPlayer@@QBEPAVCvPlayerCulture@@XZ:PROC ; CvPlayer::GetCulture
EXTRN	?GetGuessOtherPlayerActiveGrandStrategy@CvGrandStrategyAI@@QBE?AW4AIGrandStrategyTypes@@W4PlayerTypes@@@Z:PROC ; CvGrandStrategyAI::GetGuessOtherPlayerActiveGrandStrategy
EXTRN	?GetGrandStrategyAI@CvPlayer@@QBEPAVCvGrandStrategyAI@@XZ:PROC ; CvPlayer::GetGrandStrategyAI
EXTRN	?getInfoTypeForString@CvGlobals@@QBEHPBD_N@Z:PROC ; CvGlobals::getInfoTypeForString
EXTRN	?GetNumOurEnemiesPlayerAtWarWith@CvDiplomacyAI@@QAEHW4PlayerTypes@@@Z:PROC ; CvDiplomacyAI::GetNumOurEnemiesPlayerAtWarWith
; Function compile flags: /Ogtpy
;	COMDAT ?GetOpenBordersValue@CvDealAI@@QAEH_NW4PlayerTypes@@0@Z
_TEXT	SEGMENT
_bFromMe$ = 8						; size = 1
tv288 = 12						; size = 4
_eOtherPlayer$ = 12					; size = 4
_bUseEvenValue$ = 16					; size = 1
?GetOpenBordersValue@CvDealAI@@QAEH_NW4PlayerTypes@@0@Z PROC ; CvDealAI::GetOpenBordersValue, COMDAT
; _this$ = ecx

; 1535 : {

	push	ebp
	push	edi

; 1536 : 	CvAssertMsg(GetPlayer()->GetID() != eOtherPlayer, "DEAL_AI: Trying to check value of Open Borders with oneself.  Please send Jon this with your last 5 autosaves and what changelist # you're playing.");
; 1537 : 
; 1538 : 	MajorCivApproachTypes eApproach = GetPlayer()->GetDiplomacyAI()->GetMajorCivApproach(eOtherPlayer, /*bHideTrueFeelings*/ true);

	mov	edi, DWORD PTR _eOtherPlayer$[esp+4]
	mov	ebp, ecx
	mov	ecx, DWORD PTR [ebp]
	push	1
	push	edi
	call	?GetDiplomacyAI@CvPlayer@@QBEPAVCvDiplomacyAI@@XZ ; CvPlayer::GetDiplomacyAI
	mov	ecx, eax
	call	?GetMajorCivApproach@CvDiplomacyAI@@QBE?AW4MajorCivApproachTypes@@W4PlayerTypes@@_N@Z ; CvDiplomacyAI::GetMajorCivApproach

; 1539 : 
; 1540 : 	// If we're friends, then OB is always equally valuable to both parties
; 1541 : 	if(eApproach == MAJOR_CIV_APPROACH_FRIENDLY)

	cmp	eax, 5
	jne	SHORT $LN43@GetOpenBor
	pop	edi

; 1542 : 		return 50;

	mov	eax, 50					; 00000032H
	pop	ebp

; 1720 : }

	ret	12					; 0000000cH
$LN43@GetOpenBor:

; 1543 : 
; 1544 : 	int iItemValue = 0;
; 1545 : 
; 1546 : 	// Me giving Open Borders to the other guy
; 1547 : 	if(bFromMe)

	cmp	BYTE PTR _bFromMe$[esp+4], 0
	push	ebx
	push	esi
	je	$LN42@GetOpenBor

; 1548 : 	{
; 1549 : 		// Approach is important
; 1550 : 		switch(eApproach)

	dec	eax
	cmp	eax, 5
	ja	SHORT $LN34@GetOpenBor
	jmp	DWORD PTR $LN99@GetOpenBor[eax*4]
$LN39@GetOpenBor:

; 1551 : 		{
; 1552 : 		case MAJOR_CIV_APPROACH_HOSTILE:
; 1553 : 			iItemValue = 1000;

	mov	esi, 1000				; 000003e8H

; 1554 : 			break;
; 1555 : 		case MAJOR_CIV_APPROACH_GUARDED:
; 1556 : 			iItemValue = 100;
; 1557 : 			break;

	jmp	SHORT $LN40@GetOpenBor
$LN37@GetOpenBor:

; 1558 : 		case MAJOR_CIV_APPROACH_AFRAID:
; 1559 : 			iItemValue = 20;

	mov	esi, 20					; 00000014H

; 1560 : 			break;

	jmp	SHORT $LN40@GetOpenBor
$LN36@GetOpenBor:

; 1561 : 		case MAJOR_CIV_APPROACH_FRIENDLY:
; 1562 : 			iItemValue = 50;

	mov	esi, 50					; 00000032H

; 1563 : 			break;

	jmp	SHORT $LN40@GetOpenBor
$LN35@GetOpenBor:

; 1564 : 		case MAJOR_CIV_APPROACH_NEUTRAL:
; 1565 : 			iItemValue = 75;

	mov	esi, 75					; 0000004bH

; 1566 : 			break;

	jmp	SHORT $LN40@GetOpenBor
$LN34@GetOpenBor:

; 1567 : 		default:
; 1568 : 			CvAssertMsg(false, "DEAL_AI: AI player has no valid Approach for Open Borders valuation.  Please send Jon this with your last 5 autosaves and what changelist # you're playing.")
; 1569 : 			iItemValue = 100;

	mov	esi, 100				; 00000064H
$LN40@GetOpenBor:

; 1570 : 			break;
; 1571 : 		}
; 1572 : 
; 1573 : 		// Opinion also matters
; 1574 : 		switch(GetPlayer()->GetDiplomacyAI()->GetMajorCivOpinion(eOtherPlayer))

	mov	ecx, DWORD PTR [ebp]
	push	edi
	call	?GetDiplomacyAI@CvPlayer@@QBEPAVCvDiplomacyAI@@XZ ; CvPlayer::GetDiplomacyAI
	mov	ecx, eax
	call	?GetMajorCivOpinion@CvDiplomacyAI@@QBE?AW4MajorCivOpinionTypes@@W4PlayerTypes@@@Z ; CvDiplomacyAI::GetMajorCivOpinion
	cmp	eax, 6
	ja	SHORT $LN91@GetOpenBor
	jmp	DWORD PTR $LN100@GetOpenBor[eax*4]
$LN31@GetOpenBor:

; 1575 : 		{
; 1576 : 		case MAJOR_CIV_OPINION_ALLY:
; 1577 : 			iItemValue = 0;

	xor	esi, esi

; 1578 : 			break;

	jmp	SHORT $LN91@GetOpenBor
$LN30@GetOpenBor:

; 1579 : 		case MAJOR_CIV_OPINION_FRIEND:
; 1580 : 			iItemValue *= 35;

	imul	esi, 35					; 00000023H
$LN96@GetOpenBor:

; 1581 : 			iItemValue /= 100;

	mov	eax, 1374389535				; 51eb851fH
	imul	esi
	sar	edx, 5
	mov	eax, edx
	shr	eax, 31					; 0000001fH
	add	eax, edx
	mov	esi, eax

; 1582 : 			break;

	jmp	SHORT $LN91@GetOpenBor
$LN29@GetOpenBor:

; 1583 : 		case MAJOR_CIV_OPINION_FAVORABLE:
; 1584 : 			iItemValue *= 70;

	imul	esi, 70					; 00000046H
$LN97@GetOpenBor:

; 1585 : 			iItemValue /= 100;

	mov	eax, 1374389535				; 51eb851fH
	imul	esi
	sar	edx, 5
	mov	ecx, edx
	shr	ecx, 31					; 0000001fH
	add	ecx, edx
	mov	esi, ecx

; 1586 : 			break;

	jmp	SHORT $LN91@GetOpenBor
$LN27@GetOpenBor:

; 1587 : 		case MAJOR_CIV_OPINION_NEUTRAL:
; 1588 : 			break;
; 1589 : 		case MAJOR_CIV_OPINION_COMPETITOR:
; 1590 : 			iItemValue *= 150;

	imul	esi, 150				; 00000096H

; 1591 : 			iItemValue /= 100;
; 1592 : 			break;

	jmp	SHORT $LN96@GetOpenBor
$LN26@GetOpenBor:

; 1593 : 		case MAJOR_CIV_OPINION_ENEMY:
; 1594 : 			iItemValue *= 400;

	imul	esi, 400				; 00000190H

; 1595 : 			iItemValue /= 100;
; 1596 : 			break;

	jmp	SHORT $LN97@GetOpenBor
$LN25@GetOpenBor:

; 1597 : 		case MAJOR_CIV_OPINION_UNFORGIVABLE:
; 1598 : 			iItemValue = 10000;

	mov	esi, 10000				; 00002710H
$LN91@GetOpenBor:

; 1599 : 			break;
; 1600 : 		default:
; 1601 : 			CvAssertMsg(false, "DEAL_AI: AI player has no valid Opinion for Open Borders valuation.  Please send Jon this with your last 5 autosaves and what changelist # you're playing.")
; 1602 : 			break;
; 1603 : 		}
; 1604 : 
; 1605 : 		// If they're at war with our enemies then we're more likely to give them OB
; 1606 : 		int iNumEnemiesAtWarWith = GetPlayer()->GetDiplomacyAI()->GetNumOurEnemiesPlayerAtWarWith(eOtherPlayer);

	mov	ecx, DWORD PTR [ebp]
	push	edi
	call	?GetDiplomacyAI@CvPlayer@@QBEPAVCvDiplomacyAI@@XZ ; CvPlayer::GetDiplomacyAI
	mov	ecx, eax
	call	?GetNumOurEnemiesPlayerAtWarWith@CvDiplomacyAI@@QAEHW4PlayerTypes@@@Z ; CvDiplomacyAI::GetNumOurEnemiesPlayerAtWarWith

; 1607 : 		if(iNumEnemiesAtWarWith >= 2)

	cmp	eax, 2
	jl	SHORT $LN23@GetOpenBor

; 1608 : 		{
; 1609 : 			iItemValue *= 10;

	lea	esi, DWORD PTR [esi+esi*4]
	add	esi, esi

; 1610 : 			iItemValue /= 100;

	mov	eax, 1374389535				; 51eb851fH
	imul	esi
	sar	edx, 5
	mov	eax, edx
	shr	eax, 31					; 0000001fH
	add	eax, edx
	mov	esi, eax
	jmp	SHORT $LN21@GetOpenBor
$LN23@GetOpenBor:

; 1611 : 		}
; 1612 : 		else if(iNumEnemiesAtWarWith == 1)

	cmp	eax, 1
	jne	SHORT $LN21@GetOpenBor

; 1613 : 		{
; 1614 : 			iItemValue *= 25;

	imul	esi, 25					; 00000019H

; 1615 : 			iItemValue /= 100;

	mov	eax, 1374389535				; 51eb851fH
	imul	esi
	sar	edx, 5
	mov	ecx, edx
	shr	ecx, 31					; 0000001fH
	add	ecx, edx
	mov	esi, ecx
$LN21@GetOpenBor:

; 1616 : 		}
; 1617 : 
; 1618 : 		// Do we think he's going for culture victory?
; 1619 : 		AIGrandStrategyTypes eCultureStrategy = (AIGrandStrategyTypes) GC.getInfoTypeForString("AIGRANDSTRATEGY_CULTURE");

	push	0
	push	OFFSET $SG222596
	mov	ecx, OFFSET ?gGlobals@@3VCvGlobals@@A	; gGlobals
	call	?getInfoTypeForString@CvGlobals@@QBEHPBD_N@Z ; CvGlobals::getInfoTypeForString
	mov	ebx, eax

; 1620 : 		if (eCultureStrategy != NO_AIGRANDSTRATEGY && GetPlayer()->GetGrandStrategyAI()->GetGuessOtherPlayerActiveGrandStrategy(eOtherPlayer) == eCultureStrategy)

	cmp	ebx, -1
	je	$LN90@GetOpenBor
	mov	ecx, DWORD PTR [ebp]
	push	edi
	call	?GetGrandStrategyAI@CvPlayer@@QBEPAVCvGrandStrategyAI@@XZ ; CvPlayer::GetGrandStrategyAI
	mov	ecx, eax
	call	?GetGuessOtherPlayerActiveGrandStrategy@CvGrandStrategyAI@@QBE?AW4AIGrandStrategyTypes@@W4PlayerTypes@@@Z ; CvGrandStrategyAI::GetGuessOtherPlayerActiveGrandStrategy
	cmp	eax, ebx
	jne	$LN90@GetOpenBor

; 1621 : 		{
; 1622 : 			CvPlayer &kOtherPlayer = GET_PLAYER(eOtherPlayer);

	mov	ebx, edi
	imul	ebx, 63236				; 0000f704H
	add	ebx, DWORD PTR ?m_aPlayers@CvPlayerAI@@1PAV1@A ; CvPlayerAI::m_aPlayers

; 1623 : 
; 1624 : 			// If he has tourism and he's not influential on us yet, resist!
; 1625 : 			if (kOtherPlayer.GetCulture()->GetTourism() > 0 && kOtherPlayer.GetCulture()->GetInfluenceOn(GetPlayer()->GetID()) < INFLUENCE_LEVEL_INFLUENTIAL)

	mov	ecx, ebx
	call	?GetCulture@CvPlayer@@QBEPAVCvPlayerCulture@@XZ ; CvPlayer::GetCulture
	mov	ecx, eax
	call	?GetTourism@CvPlayerCulture@@QAEHXZ	; CvPlayerCulture::GetTourism
	test	eax, eax
	jle	$LN90@GetOpenBor
	mov	edx, DWORD PTR [ebp]
	mov	eax, DWORD PTR [edx+44]
	push	eax
	mov	ecx, ebx
	call	?GetCulture@CvPlayer@@QBEPAVCvPlayerCulture@@XZ ; CvPlayer::GetCulture
	mov	ecx, eax
	call	?GetInfluenceOn@CvPlayerCulture@@QBEHW4PlayerTypes@@@Z ; CvPlayerCulture::GetInfluenceOn
	cmp	eax, 4
	jge	$LN90@GetOpenBor

; 1626 : 			{
; 1627 : 				iItemValue *= 500;

	imul	esi, 500				; 000001f4H

; 1628 : 				iItemValue /= 100;
; 1629 : 			}
; 1630 : 		}
; 1631 : 	}
; 1632 : 	// Other guy giving me Open Borders
; 1633 : 	else

	jmp	$LN98@GetOpenBor
$LN42@GetOpenBor:

; 1634 : 	{
; 1635 : 		// Proximity is very important
; 1636 : 		switch(GetPlayer()->GetProximityToPlayer(eOtherPlayer))

	mov	ecx, DWORD PTR [ebp]
	push	edi
	call	?GetProximityToPlayer@CvPlayer@@QBE?AW4PlayerProximityTypes@@W4PlayerTypes@@@Z ; CvPlayer::GetProximityToPlayer
	cmp	eax, 3
	ja	SHORT $LN11@GetOpenBor
	jmp	DWORD PTR $LN101@GetOpenBor[eax*4]
$LN15@GetOpenBor:

; 1637 : 		{
; 1638 : 		case PLAYER_PROXIMITY_DISTANT:
; 1639 : 			iItemValue = 5;

	mov	esi, 5

; 1640 : 			break;

	jmp	SHORT $LN16@GetOpenBor
$LN14@GetOpenBor:

; 1641 : 		case PLAYER_PROXIMITY_FAR:
; 1642 : 			iItemValue = 10;

	mov	esi, 10					; 0000000aH

; 1643 : 			break;

	jmp	SHORT $LN16@GetOpenBor
$LN13@GetOpenBor:

; 1644 : 		case PLAYER_PROXIMITY_CLOSE:
; 1645 : 			iItemValue = 15;

	mov	esi, 15					; 0000000fH

; 1646 : 			break;

	jmp	SHORT $LN16@GetOpenBor
$LN12@GetOpenBor:

; 1647 : 		case PLAYER_PROXIMITY_NEIGHBORS:
; 1648 : 			iItemValue = 30;

	mov	esi, 30					; 0000001eH

; 1649 : 			break;

	jmp	SHORT $LN16@GetOpenBor
$LN11@GetOpenBor:

; 1650 : 		default:
; 1651 : 			CvAssertMsg(false, "DEAL_AI: AI player has no valid Proximity for Open Borders valuation.  Please send Jon this with your last 5 autosaves and what changelist # you're playing.")
; 1652 : 			iItemValue = 0;

	xor	esi, esi
$LN16@GetOpenBor:

; 1653 : 			break;
; 1654 : 		}
; 1655 : 
; 1656 : 		// Reduce value by half if the other guy only has a single City
; 1657 : 		if(GET_PLAYER(eOtherPlayer).getNumCities() == 1)

	mov	ecx, edi
	imul	ecx, 63236				; 0000f704H
	add	ecx, DWORD PTR ?m_aPlayers@CvPlayerAI@@1PAV1@A ; CvPlayerAI::m_aPlayers
	call	?getNumCities@CvPlayer@@QBEHXZ		; CvPlayer::getNumCities
	cmp	eax, 1
	jne	SHORT $LN10@GetOpenBor

; 1658 : 		{
; 1659 : 			iItemValue *= 50;

	imul	esi, 50					; 00000032H

; 1660 : 			iItemValue /= 100;

	mov	eax, 1374389535				; 51eb851fH
	imul	esi
	sar	edx, 5
	mov	ecx, edx
	shr	ecx, 31					; 0000001fH
	add	ecx, edx
	mov	esi, ecx
$LN10@GetOpenBor:

; 1661 : 		}
; 1662 : 
; 1663 : 		// Boost value greatly if we are going for a culture win
; 1664 : 		// If going for culture win always want open borders against civs we need influence on
; 1665 : 		AIGrandStrategyTypes eCultureStrategy = (AIGrandStrategyTypes) GC.getInfoTypeForString("AIGRANDSTRATEGY_CULTURE");

	push	0
	push	OFFSET $SG222613
	mov	ecx, OFFSET ?gGlobals@@3VCvGlobals@@A	; gGlobals
	call	?getInfoTypeForString@CvGlobals@@QBEHPBD_N@Z ; CvGlobals::getInfoTypeForString
	mov	ebx, eax

; 1666 : #ifdef AUI_WARNING_FIXES
; 1667 : 		const CvPlayerCulture* pPlayerCulture = GetPlayer()->GetCulture();
; 1668 : 		if (eCultureStrategy != NO_AIGRANDSTRATEGY && GetPlayer()->GetGrandStrategyAI()->GetActiveGrandStrategy() == eCultureStrategy && pPlayerCulture->GetTourism() > 0)
; 1669 : 		{
; 1670 : 			// The civ we need influence on the most should ALWAYS be included
; 1671 : 			if (pPlayerCulture->GetCivLowestInfluence(false /*bCheckOpenBorders*/) == eOtherPlayer)
; 1672 : #else
; 1673 : 		if (eCultureStrategy != NO_AIGRANDSTRATEGY && GetPlayer()->GetGrandStrategyAI()->GetActiveGrandStrategy() == eCultureStrategy && GetPlayer()->GetCulture()->GetTourism() > 0 )

	cmp	ebx, -1
	je	$LN90@GetOpenBor
	mov	ecx, DWORD PTR [ebp]
	call	?GetGrandStrategyAI@CvPlayer@@QBEPAVCvGrandStrategyAI@@XZ ; CvPlayer::GetGrandStrategyAI
	mov	ecx, eax
	call	?GetActiveGrandStrategy@CvGrandStrategyAI@@QBE?AW4AIGrandStrategyTypes@@XZ ; CvGrandStrategyAI::GetActiveGrandStrategy
	cmp	eax, ebx
	jne	$LN90@GetOpenBor
	mov	ecx, DWORD PTR [ebp]
	call	?GetCulture@CvPlayer@@QBEPAVCvPlayerCulture@@XZ ; CvPlayer::GetCulture
	mov	ecx, eax
	call	?GetTourism@CvPlayerCulture@@QAEHXZ	; CvPlayerCulture::GetTourism
	test	eax, eax
	jle	$LN90@GetOpenBor

; 1674 : 		{
; 1675 : 			// The civ we need influence on the most should ALWAYS be included
; 1676 : 			if (GetPlayer()->GetCulture()->GetCivLowestInfluence(false /*bCheckOpenBorders*/) == eOtherPlayer)

	mov	ecx, DWORD PTR [ebp]
	push	0
	call	?GetCulture@CvPlayer@@QBEPAVCvPlayerCulture@@XZ ; CvPlayer::GetCulture
	mov	ecx, eax
	call	?GetCivLowestInfluence@CvPlayerCulture@@QBE?AW4PlayerTypes@@_N@Z ; CvPlayerCulture::GetCivLowestInfluence
	cmp	eax, edi
	jne	SHORT $LN8@GetOpenBor

; 1677 : #endif
; 1678 : 			{
; 1679 : 				iItemValue *= 1000;

	imul	esi, 1000				; 000003e8H

; 1680 : 				iItemValue /= 100;

	jmp	SHORT $LN98@GetOpenBor
$LN8@GetOpenBor:

; 1681 : 			}
; 1682 : 
; 1683 : 			// If have influence over half the civs, want OB with the other half
; 1684 : #ifdef AUI_WARNING_FIXES
; 1685 : 			else if (pPlayerCulture->GetNumCivsToBeInfluentialOn() <= pPlayerCulture->GetNumCivsInfluentialOn())
; 1686 : 			{
; 1687 : 				if (pPlayerCulture->GetInfluenceLevel(eOtherPlayer) < INFLUENCE_LEVEL_INFLUENTIAL)
; 1688 : #else
; 1689 : 			else if (GetPlayer()->GetCulture()->GetNumCivsToBeInfluentialOn() <= GetPlayer()->GetCulture()->GetNumCivsInfluentialOn())

	mov	ebx, DWORD PTR [ebp]
	mov	ecx, ebx
	call	?GetCulture@CvPlayer@@QBEPAVCvPlayerCulture@@XZ ; CvPlayer::GetCulture
	mov	ecx, eax
	call	?GetNumCivsInfluentialOn@CvPlayerCulture@@QBEHXZ ; CvPlayerCulture::GetNumCivsInfluentialOn
	mov	ecx, ebx
	mov	DWORD PTR tv288[esp+12], eax
	call	?GetCulture@CvPlayer@@QBEPAVCvPlayerCulture@@XZ ; CvPlayer::GetCulture
	mov	ecx, eax
	call	?GetNumCivsToBeInfluentialOn@CvPlayerCulture@@QBEHXZ ; CvPlayerCulture::GetNumCivsToBeInfluentialOn
	mov	ecx, DWORD PTR tv288[esp+12]
	cmp	eax, ecx

; 1690 : 			{
; 1691 : 				if (GetPlayer()->GetCulture()->GetInfluenceLevel(eOtherPlayer) < INFLUENCE_LEVEL_INFLUENTIAL)

	mov	ecx, DWORD PTR [ebp]
	push	edi
	jg	SHORT $LN6@GetOpenBor
	call	?GetCulture@CvPlayer@@QBEPAVCvPlayerCulture@@XZ ; CvPlayer::GetCulture
	mov	ecx, eax
	call	?GetInfluenceLevel@CvPlayerCulture@@QBE?AW4InfluenceLevelTypes@@W4PlayerTypes@@@Z ; CvPlayerCulture::GetInfluenceLevel
	cmp	eax, 4
	jge	SHORT $LN90@GetOpenBor

; 1692 : #endif
; 1693 : 				{
; 1694 : 					iItemValue *= 500;

	imul	esi, 500				; 000001f4H

; 1695 : 					iItemValue /= 100;

	mov	eax, 1374389535				; 51eb851fH
	imul	esi
	sar	edx, 5
	mov	ecx, edx
	shr	ecx, 31					; 0000001fH
	add	ecx, edx
	mov	esi, ecx

; 1696 : 				}
; 1697 : 			}

	jmp	SHORT $LN90@GetOpenBor
$LN6@GetOpenBor:

; 1698 : 
; 1699 : 			else if (GetPlayer()->GetProximityToPlayer(eOtherPlayer) == PLAYER_PROXIMITY_NEIGHBORS)

	call	?GetProximityToPlayer@CvPlayer@@QBE?AW4PlayerProximityTypes@@W4PlayerTypes@@@Z ; CvPlayer::GetProximityToPlayer
	cmp	eax, 3
	jne	SHORT $LN90@GetOpenBor

; 1700 : 			{
; 1701 : 				// If we're cramped then we want OB more with our neighbors
; 1702 : 				if(GetPlayer()->IsCramped())

	mov	ecx, DWORD PTR [ebp]
	call	?IsCramped@CvPlayer@@QBE_NXZ		; CvPlayer::IsCramped
	test	al, al
	je	SHORT $LN90@GetOpenBor

; 1703 : 				{
; 1704 : 					iItemValue *= 300;

	imul	esi, 300				; 0000012cH
$LN98@GetOpenBor:

; 1705 : 					iItemValue /= 100;

	mov	eax, 1374389535				; 51eb851fH
	imul	esi
	sar	edx, 5
	mov	eax, edx
	shr	eax, 31					; 0000001fH
	add	eax, edx
	mov	esi, eax
$LN90@GetOpenBor:

; 1706 : 				}
; 1707 : 			}
; 1708 : 		}
; 1709 : 	}
; 1710 : 
; 1711 : 	// Are we trying to find the middle point between what we think this item is worth and what another player thinks it's worth?
; 1712 : 	if(bUseEvenValue)

	cmp	BYTE PTR _bUseEvenValue$[esp+12], 0
	je	SHORT $LN1@GetOpenBor

; 1713 : 	{
; 1714 : 		iItemValue += GET_PLAYER(eOtherPlayer).GetDealAI()->GetOpenBordersValue(!bFromMe, GetPlayer()->GetID(), /*bUseEvenValue*/ false);

	mov	ecx, DWORD PTR [ebp]
	imul	edi, 63236				; 0000f704H
	add	edi, DWORD PTR ?m_aPlayers@CvPlayerAI@@1PAV1@A ; CvPlayerAI::m_aPlayers
	mov	eax, DWORD PTR [ecx+44]
	cmp	BYTE PTR _bFromMe$[esp+12], 0
	push	0
	push	eax
	sete	dl
	movzx	eax, dl
	push	eax
	mov	ecx, edi
	call	?GetDealAI@CvPlayer@@QBEPAVCvDealAI@@XZ	; CvPlayer::GetDealAI
	mov	ecx, eax
	call	?GetOpenBordersValue@CvDealAI@@QAEH_NW4PlayerTypes@@0@Z ; CvDealAI::GetOpenBordersValue
	add	eax, esi

; 1715 : 
; 1716 : 		iItemValue /= 2;

	cdq
	sub	eax, edx
	sar	eax, 1
	mov	esi, eax
$LN1@GetOpenBor:

; 1717 : 	}
; 1718 : 
; 1719 : 	return iItemValue;

	mov	eax, esi
	pop	esi
	pop	ebx
	pop	edi
	pop	ebp

; 1720 : }

	ret	12					; 0000000cH
	npad	2
$LN99@GetOpenBor:
	DD	$LN39@GetOpenBor
	DD	$LN34@GetOpenBor
	DD	$LN34@GetOpenBor
	DD	$LN37@GetOpenBor
	DD	$LN36@GetOpenBor
	DD	$LN35@GetOpenBor
$LN100@GetOpenBor:
	DD	$LN25@GetOpenBor
	DD	$LN26@GetOpenBor
	DD	$LN27@GetOpenBor
	DD	$LN91@GetOpenBor
	DD	$LN29@GetOpenBor
	DD	$LN30@GetOpenBor
	DD	$LN31@GetOpenBor
$LN101@GetOpenBor:
	DD	$LN15@GetOpenBor
	DD	$LN14@GetOpenBor
	DD	$LN13@GetOpenBor
	DD	$LN12@GetOpenBor
?GetOpenBordersValue@CvDealAI@@QAEH_NW4PlayerTypes@@0@Z ENDP ; CvDealAI::GetOpenBordersValue
_TEXT	ENDS
PUBLIC	?GetDefensivePactValue@CvDealAI@@QAEH_NW4PlayerTypes@@0@Z ; CvDealAI::GetDefensivePactValue
; Function compile flags: /Ogtpy
;	COMDAT ?GetDefensivePactValue@CvDealAI@@QAEH_NW4PlayerTypes@@0@Z
_TEXT	SEGMENT
_bFromMe$ = 8						; size = 1
_eOtherPlayer$ = 12					; size = 4
_bUseEvenValue$ = 16					; size = 1
?GetDefensivePactValue@CvDealAI@@QAEH_NW4PlayerTypes@@0@Z PROC ; CvDealAI::GetDefensivePactValue, COMDAT
; _this$ = ecx

; 1724 : {

	push	ebx

; 1725 : 	CvAssertMsg(GetPlayer()->GetID() != eOtherPlayer, "DEAL_AI: Trying to check value of a Defensive Pact with oneself.  Please send Jon this with your last 5 autosaves and what changelist # you're playing.");
; 1726 : 
; 1727 : 	int iItemValue;
; 1728 : 
; 1729 : 	// What is a Defensive Pact with eOtherPlayer worth to US?
; 1730 : 	if(!bFromMe)

	mov	bl, BYTE PTR _bFromMe$[esp]
	push	ebp
	push	esi
	mov	esi, DWORD PTR _eOtherPlayer$[esp+8]
	push	edi
	mov	ebp, ecx
	test	bl, bl
	jne	SHORT $LN13@GetDefensi

; 1731 : 	{
; 1732 : 		iItemValue = 100;

	mov	edi, 100				; 00000064H

; 1733 : 		//	// How strong are they compared to us?
; 1734 : 		//	switch (GetPlayer()->GetDiplomacyAI()->GetPlayerMilitaryStrengthComparedToUs(eOtherPlayer))
; 1735 : 		//	{
; 1736 : 		//	case STRENGTH_PATHETIC:
; 1737 : 		//		iItemValue = 10;
; 1738 : 		//		break;
; 1739 : 		//	case STRENGTH_WEAK:
; 1740 : 		//		iItemValue = 40;
; 1741 : 		//		break;
; 1742 : 		//	case STRENGTH_POOR:
; 1743 : 		//		iItemValue = 70;
; 1744 : 		//		break;
; 1745 : 		//	case STRENGTH_AVERAGE:
; 1746 : 		//		iItemValue = 100;
; 1747 : 		//		break;
; 1748 : 		//	case STRENGTH_STRONG:
; 1749 : 		//		iItemValue = 130;
; 1750 : 		//		break;
; 1751 : 		//	case STRENGTH_POWERFUL:
; 1752 : 		//		iItemValue = 150;
; 1753 : 		//		break;
; 1754 : 		//	case STRENGTH_IMMENSE:
; 1755 : 		//		iItemValue = 200;
; 1756 : 		//		break;
; 1757 : 		//	default:
; 1758 : 		//		CvAssertMsg(false, "DEAL_AI: AI player has no valid MilitaryStrengthComparedToUs for Defensive Pact valuation.  Please send Jon this with your last 5 autosaves and what changelist # you're playing.")
; 1759 : 		//		iItemValue = 100;
; 1760 : 		//		break;
; 1761 : 		//	}
; 1762 : 	}
; 1763 : 	// How much do we value giving away a Defensive Pact?
; 1764 : 	else

	jmp	SHORT $LN10@GetDefensi
$LN13@GetDefensi:

; 1765 : 	{
; 1766 : 		// Opinion also matters
; 1767 : 		switch(GetPlayer()->GetDiplomacyAI()->GetMajorCivOpinion(eOtherPlayer))

	mov	ecx, DWORD PTR [ebp]
	push	esi
	call	?GetDiplomacyAI@CvPlayer@@QBEPAVCvDiplomacyAI@@XZ ; CvPlayer::GetDiplomacyAI
	mov	ecx, eax
	call	?GetMajorCivOpinion@CvDiplomacyAI@@QBE?AW4MajorCivOpinionTypes@@W4PlayerTypes@@@Z ; CvDiplomacyAI::GetMajorCivOpinion
	cmp	eax, 6
	ja	SHORT $LN2@GetDefensi
	jmp	DWORD PTR $LN28@GetDefensi[eax*4]
$LN9@GetDefensi:

; 1768 : 		{
; 1769 : 		case MAJOR_CIV_OPINION_ALLY:
; 1770 : 			iItemValue = 100;

	mov	edi, 100				; 00000064H

; 1771 : 			break;

	jmp	SHORT $LN10@GetDefensi
$LN2@GetDefensi:

; 1772 : 		case MAJOR_CIV_OPINION_FRIEND:
; 1773 : 			iItemValue = 100;
; 1774 : 			break;
; 1775 : 		case MAJOR_CIV_OPINION_FAVORABLE:
; 1776 : 			iItemValue = 100;
; 1777 : 			break;
; 1778 : 		case MAJOR_CIV_OPINION_NEUTRAL:
; 1779 : 			iItemValue = 100000;
; 1780 : 			break;
; 1781 : 		case MAJOR_CIV_OPINION_COMPETITOR:
; 1782 : 			iItemValue = 100000;
; 1783 : 			break;
; 1784 : 		case MAJOR_CIV_OPINION_ENEMY:
; 1785 : 			iItemValue = 100000;
; 1786 : 			break;
; 1787 : 		case MAJOR_CIV_OPINION_UNFORGIVABLE:
; 1788 : 			iItemValue = 100000;
; 1789 : 			break;
; 1790 : 		default:
; 1791 : 			CvAssertMsg(false, "DEAL_AI: AI player has no valid Opinion for Defensive Pact valuation.  Please send Jon this with your last 5 autosaves and what changelist # you're playing.")
; 1792 : 			iItemValue = 100000;

	mov	edi, 100000				; 000186a0H
$LN10@GetDefensi:

; 1793 : 			break;
; 1794 : 		}
; 1795 : 
; 1796 : 		// Approach is important
; 1797 : 		//switch (GetPlayer()->GetDiplomacyAI()->GetMajorCivApproach(eOtherPlayer, /*bHideTrueFeelings*/ true))
; 1798 : 		//{
; 1799 : 		//case MAJOR_CIV_APPROACH_HOSTILE:
; 1800 : 		//	iItemValue *= 200;	// Value should already be increased above by Opinion as well
; 1801 : 		//	break;
; 1802 : 		//case MAJOR_CIV_APPROACH_GUARDED:
; 1803 : 		//	iItemValue *= 100;	// If we're guarded against someone, getting a Defensive Pact is kinda nice
; 1804 : 		//	break;
; 1805 : 		//case MAJOR_CIV_APPROACH_AFRAID:
; 1806 : 		//	iItemValue *= 80;		// If we're afraid of eOtherPlayer, we couldn't be happier to sign a Defensive Pact with them!
; 1807 : 		//	break;
; 1808 : 		//case MAJOR_CIV_APPROACH_FRIENDLY:
; 1809 : 		//	iItemValue *= 100;
; 1810 : 		//	break;
; 1811 : 		//case MAJOR_CIV_APPROACH_NEUTRAL:
; 1812 : 		//	iItemValue *= 100;
; 1813 : 		//	break;
; 1814 : 		//default:
; 1815 : 		//	CvAssertMsg(false, "DEAL_AI: AI player has no valid Approach for Defensive Pact valuation.  Please send Jon this with your last 5 autosaves and what changelist # you're playing.")
; 1816 : 		//	iItemValue *= 100;
; 1817 : 		//	break;
; 1818 : 		//}
; 1819 : 		//iItemValue /= 100;
; 1820 : 	}
; 1821 : 
; 1822 : 	// Are we trying to find the middle point between what we think this item is worth and what another player thinks it's worth?
; 1823 : 	if(bUseEvenValue)

	cmp	BYTE PTR _bUseEvenValue$[esp+12], 0
	je	SHORT $LN26@GetDefensi

; 1824 : 	{
; 1825 : 		iItemValue += GET_PLAYER(eOtherPlayer).GetDealAI()->GetDefensivePactValue(!bFromMe, GetPlayer()->GetID(), /*bUseEvenValue*/ false);

	mov	eax, DWORD PTR [ebp]
	imul	esi, 63236				; 0000f704H
	add	esi, DWORD PTR ?m_aPlayers@CvPlayerAI@@1PAV1@A ; CvPlayerAI::m_aPlayers
	mov	eax, DWORD PTR [eax+44]
	push	0
	test	bl, bl
	push	eax
	sete	dl
	movzx	eax, dl
	mov	ecx, esi
	push	eax
	call	?GetDealAI@CvPlayer@@QBEPAVCvDealAI@@XZ	; CvPlayer::GetDealAI
	mov	ecx, eax
	call	?GetDefensivePactValue@CvDealAI@@QAEH_NW4PlayerTypes@@0@Z ; CvDealAI::GetDefensivePactValue
	add	eax, edi
	pop	edi

; 1826 : 
; 1827 : 		iItemValue /= 2;

	cdq
	pop	esi
	sub	eax, edx
	pop	ebp
	sar	eax, 1
	pop	ebx

; 1831 : }

	ret	12					; 0000000cH
$LN26@GetDefensi:

; 1828 : 	}
; 1829 : 
; 1830 : 	return iItemValue;

	mov	eax, edi
	pop	edi
	pop	esi
	pop	ebp
	pop	ebx

; 1831 : }

	ret	12					; 0000000cH
	npad	1
$LN28@GetDefensi:
	DD	$LN2@GetDefensi
	DD	$LN2@GetDefensi
	DD	$LN2@GetDefensi
	DD	$LN2@GetDefensi
	DD	$LN9@GetDefensi
	DD	$LN9@GetDefensi
	DD	$LN9@GetDefensi
?GetDefensivePactValue@CvDealAI@@QAEH_NW4PlayerTypes@@0@Z ENDP ; CvDealAI::GetDefensivePactValue
_TEXT	ENDS
PUBLIC	?GetResearchAgreementValue@CvDealAI@@QAEH_NW4PlayerTypes@@0@Z ; CvDealAI::GetResearchAgreementValue
EXTRN	?GetCurrentEra@CvTeam@@QBE?AW4EraTypes@@XZ:PROC	; CvTeam::GetCurrentEra
; Function compile flags: /Ogtpy
;	COMDAT ?GetResearchAgreementValue@CvDealAI@@QAEH_NW4PlayerTypes@@0@Z
_TEXT	SEGMENT
$T226501 = 8						; size = 4
_bFromMe$ = 8						; size = 1
$T226502 = 12						; size = 4
_eOtherPlayer$ = 12					; size = 4
_bUseEvenValue$ = 16					; size = 1
?GetResearchAgreementValue@CvDealAI@@QAEH_NW4PlayerTypes@@0@Z PROC ; CvDealAI::GetResearchAgreementValue, COMDAT
; _this$ = ecx

; 1835 : {

	push	ebx

; 1836 : 	CvAssertMsg(GetPlayer()->GetID() != eOtherPlayer, "DEAL_AI: Trying to check value of a Research Agreement with oneself.  Please send Jon this with your last 5 autosaves and what changelist # you're playing.");
; 1837 : 
; 1838 : 	int iItemValue = 100;
; 1839 : 
; 1840 : 	if(bFromMe)

	mov	bl, BYTE PTR _bFromMe$[esp]
	push	ebp
	push	esi
	push	edi
	mov	edi, DWORD PTR _eOtherPlayer$[esp+12]
	mov	ebp, ecx
	mov	esi, 100				; 00000064H
	test	bl, bl
	je	$LN10@GetResearc

; 1841 : 	{
; 1842 : 		// if they are ahead of me in tech by one or more eras ratchet up the value since they are more likely to get a good tech than I am
; 1843 : 		EraTypes eMyEra = GET_TEAM(GetPlayer()->getTeam()).GetCurrentEra();

	mov	eax, DWORD PTR [ebp]
	mov	eax, DWORD PTR [eax+44]
	cmp	eax, 63					; 0000003fH
	ja	SHORT $LN19@GetResearc
	mov	ecx, DWORD PTR ?sr_TeamTypes@CvPreGame@@3ABV?$vector@W4TeamTypes@@V?$allocator@W4TeamTypes@@@std@@@std@@B ; CvPreGame::sr_TeamTypes
	mov	edx, DWORD PTR [ecx+4]
	mov	eax, DWORD PTR [edx+eax*4]
	jmp	SHORT $LN20@GetResearc
$LN19@GetResearc:
	or	eax, -1
$LN20@GetResearc:
	imul	eax, 2980				; 00000ba4H
	add	eax, DWORD PTR ?m_aTeams@CvTeam@@1PAV1@A ; CvTeam::m_aTeams
	mov	ecx, eax
	call	?GetCurrentEra@CvTeam@@QBE?AW4EraTypes@@XZ ; CvTeam::GetCurrentEra

; 1844 : 		EraTypes eTheirEra = GET_TEAM(GET_PLAYER(eOtherPlayer).getTeam()).GetCurrentEra();

	mov	ecx, DWORD PTR ?m_aPlayers@CvPlayerAI@@1PAV1@A ; CvPlayerAI::m_aPlayers
	mov	esi, eax
	mov	eax, edi
	imul	eax, 63236				; 0000f704H
	mov	eax, DWORD PTR [eax+ecx+44]
	cmp	eax, 63					; 0000003fH
	ja	SHORT $LN32@GetResearc
	mov	edx, DWORD PTR ?sr_TeamTypes@CvPreGame@@3ABV?$vector@W4TeamTypes@@V?$allocator@W4TeamTypes@@@std@@@std@@B ; CvPreGame::sr_TeamTypes
	mov	ecx, DWORD PTR [edx+4]
	mov	eax, DWORD PTR [ecx+eax*4]
	jmp	SHORT $LN33@GetResearc
$LN32@GetResearc:
	or	eax, -1
$LN33@GetResearc:
	imul	eax, 2980				; 00000ba4H
	add	eax, DWORD PTR ?m_aTeams@CvTeam@@1PAV1@A ; CvTeam::m_aTeams
	mov	ecx, eax
	call	?GetCurrentEra@CvTeam@@QBE?AW4EraTypes@@XZ ; CvTeam::GetCurrentEra

; 1845 : 
; 1846 : 		int iAdditionalValue = iItemValue * max(0,(int)(eTheirEra-eMyEra));

	sub	eax, esi
	mov	DWORD PTR $T226501[esp+12], eax
	test	eax, eax
	mov	DWORD PTR $T226502[esp+12], 0
	lea	eax, DWORD PTR $T226501[esp+12]
	jg	SHORT $LN42@GetResearc
	lea	eax, DWORD PTR $T226502[esp+12]
$LN42@GetResearc:

; 1847 : 		iItemValue += iAdditionalValue;

	mov	esi, DWORD PTR [eax]

; 1848 : 
; 1849 : 		// Approach is important
; 1850 : 		switch(GetPlayer()->GetDiplomacyAI()->GetMajorCivApproach(eOtherPlayer, /*bHideTrueFeelings*/ true))

	mov	ecx, DWORD PTR [ebp]
	push	1
	inc	esi
	push	edi
	imul	esi, 100				; 00000064H
	call	?GetDiplomacyAI@CvPlayer@@QBEPAVCvDiplomacyAI@@XZ ; CvPlayer::GetDiplomacyAI
	mov	ecx, eax
	call	?GetMajorCivApproach@CvDiplomacyAI@@QBE?AW4MajorCivApproachTypes@@W4PlayerTypes@@_N@Z ; CvDiplomacyAI::GetMajorCivApproach
	dec	eax
	cmp	eax, 5
	ja	SHORT $LN2@GetResearc
	jmp	DWORD PTR $LN55@GetResearc[eax*4]
$LN7@GetResearc:

; 1851 : 		{
; 1852 : 		case MAJOR_CIV_APPROACH_HOSTILE:
; 1853 : 			iItemValue *= 1000;

	imul	esi, 1000				; 000003e8H

; 1854 : 			break;
; 1855 : 		case MAJOR_CIV_APPROACH_GUARDED:
; 1856 : 			iItemValue *= 100;
; 1857 : 			break;

	jmp	SHORT $LN8@GetResearc
$LN5@GetResearc:

; 1858 : 		case MAJOR_CIV_APPROACH_AFRAID:
; 1859 : 			iItemValue *= 80;

	lea	esi, DWORD PTR [esi+esi*4]
	shl	esi, 4

; 1860 : 			break;
; 1861 : 		case MAJOR_CIV_APPROACH_FRIENDLY:
; 1862 : 			iItemValue *= 100;
; 1863 : 			break;

	jmp	SHORT $LN8@GetResearc
$LN2@GetResearc:

; 1864 : 		case MAJOR_CIV_APPROACH_NEUTRAL:
; 1865 : 			iItemValue *= 100;
; 1866 : 			break;
; 1867 : 		default:
; 1868 : 			CvAssertMsg(false, "DEAL_AI: AI player has no valid Approach for Research Agreement valuation.  Please send Jon this with your last 5 autosaves and what changelist # you're playing.")
; 1869 : 			iItemValue *= 100;

	imul	esi, 100				; 00000064H
$LN8@GetResearc:

; 1870 : 			break;
; 1871 : 		}
; 1872 : 		iItemValue /= 100;

	mov	eax, 1374389535				; 51eb851fH
	imul	esi
	sar	edx, 5
	mov	esi, edx
	shr	esi, 31					; 0000001fH
	add	esi, edx
$LN10@GetResearc:

; 1873 : 
; 1874 : 	}
; 1875 : 
; 1876 : 	// Are we trying to find the middle point between what we think this item is worth and what another player thinks it's worth?
; 1877 : 	if(bUseEvenValue)

	cmp	BYTE PTR _bUseEvenValue$[esp+12], 0
	je	SHORT $LN53@GetResearc

; 1878 : 	{
; 1879 : 		iItemValue += GET_PLAYER(eOtherPlayer).GetDealAI()->GetResearchAgreementValue(!bFromMe, GetPlayer()->GetID(), /*bUseEvenValue*/ false);

	mov	edx, DWORD PTR [ebp]
	imul	edi, 63236				; 0000f704H
	mov	eax, DWORD PTR [edx+44]
	add	edi, DWORD PTR ?m_aPlayers@CvPlayerAI@@1PAV1@A ; CvPlayerAI::m_aPlayers
	push	0
	push	eax
	test	bl, bl
	sete	al
	movzx	edx, al
	mov	ecx, edi
	push	edx
	call	?GetDealAI@CvPlayer@@QBEPAVCvDealAI@@XZ	; CvPlayer::GetDealAI
	mov	ecx, eax
	call	?GetResearchAgreementValue@CvDealAI@@QAEH_NW4PlayerTypes@@0@Z ; CvDealAI::GetResearchAgreementValue
	add	eax, esi
	pop	edi

; 1880 : 
; 1881 : 		iItemValue /= 2;

	cdq
	pop	esi
	sub	eax, edx
	pop	ebp
	sar	eax, 1
	pop	ebx

; 1885 : }

	ret	12					; 0000000cH
$LN53@GetResearc:
	pop	edi

; 1882 : 	}
; 1883 : 
; 1884 : 	return iItemValue;

	mov	eax, esi
	pop	esi
	pop	ebp
	pop	ebx

; 1885 : }

	ret	12					; 0000000cH
$LN55@GetResearc:
	DD	$LN7@GetResearc
	DD	$LN2@GetResearc
	DD	$LN2@GetResearc
	DD	$LN5@GetResearc
	DD	$LN2@GetResearc
	DD	$LN2@GetResearc
?GetResearchAgreementValue@CvDealAI@@QAEH_NW4PlayerTypes@@0@Z ENDP ; CvDealAI::GetResearchAgreementValue
_TEXT	ENDS
PUBLIC	?GetTradeAgreementValue@CvDealAI@@QAEH_NW4PlayerTypes@@0@Z ; CvDealAI::GetTradeAgreementValue
; Function compile flags: /Ogtpy
;	COMDAT ?GetTradeAgreementValue@CvDealAI@@QAEH_NW4PlayerTypes@@0@Z
_TEXT	SEGMENT
_bFromMe$ = 8						; size = 1
_eOtherPlayer$ = 12					; size = 4
_bUseEvenValue$ = 16					; size = 1
?GetTradeAgreementValue@CvDealAI@@QAEH_NW4PlayerTypes@@0@Z PROC ; CvDealAI::GetTradeAgreementValue, COMDAT
; _this$ = ecx

; 1889 : {

	push	ebx

; 1890 : 	CvAssertMsg(GetPlayer()->GetID() != eOtherPlayer, "DEAL_AI: Trying to check value of a Trade Agreement with oneself.  Please send Jon this with your last 5 autosaves and what changelist # you're playing.");
; 1891 : 
; 1892 : 	int iItemValue = 100;
; 1893 : 
; 1894 : 	if(bFromMe)

	mov	bl, BYTE PTR _bFromMe$[esp]
	push	ebp
	push	esi
	mov	esi, DWORD PTR _eOtherPlayer$[esp+8]
	push	edi
	mov	ebp, ecx
	mov	edi, 100				; 00000064H
	test	bl, bl
	je	SHORT $LN10@GetTradeAg

; 1895 : 	{
; 1896 : 		// Approach is important
; 1897 : 		switch(GetPlayer()->GetDiplomacyAI()->GetMajorCivApproach(eOtherPlayer, /*bHideTrueFeelings*/ true))

	mov	ecx, DWORD PTR [ebp]
	push	1
	push	esi
	call	?GetDiplomacyAI@CvPlayer@@QBEPAVCvDiplomacyAI@@XZ ; CvPlayer::GetDiplomacyAI
	mov	ecx, eax
