; Listing generated by Microsoft (R) Optimizing Compiler Version 15.00.30729.01 

	TITLE	c:\Users\EnormousApplePie\Desktop\Lekmod Files\Lekmod DLL versions\v29\LEKMOD_DLL\CvGameCoreDLL_Expansion2\CvDiplomacyRequests.cpp
	.686P
	.XMM
	include listing.inc
	.model	flat

INCLUDELIB MSVCRT
INCLUDELIB OLDNAMES

PUBLIC	?NO_QUEST_DATA@CvMinorCivQuest@@2HB		; CvMinorCivQuest::NO_QUEST_DATA
PUBLIC	?NO_TURN@CvMinorCivQuest@@2HB			; CvMinorCivQuest::NO_TURN
CONST	SEGMENT
$SG221251 DB	00H
CONST	ENDS
;	COMDAT ?NO_TURN@CvMinorCivQuest@@2HB
CONST	SEGMENT
?NO_TURN@CvMinorCivQuest@@2HB DD 0ffffffffH		; CvMinorCivQuest::NO_TURN
CONST	ENDS
;	COMDAT ?NO_QUEST_DATA@CvMinorCivQuest@@2HB
CONST	SEGMENT
?NO_QUEST_DATA@CvMinorCivQuest@@2HB DD 0ffffffffH	; CvMinorCivQuest::NO_QUEST_DATA
CONST	ENDS
PUBLIC	?BeginTurn@CvDiplomacyRequests@@QAEXXZ		; CvDiplomacyRequests::BeginTurn
; Function compile flags: /Ogtpy
; File c:\users\enormousapplepie\desktop\lekmod files\lekmod dll versions\v29\lekmod_dll\cvgamecoredll_expansion2\cvdiplomacyrequests.cpp
;	COMDAT ?BeginTurn@CvDiplomacyRequests@@QAEXXZ
_TEXT	SEGMENT
?BeginTurn@CvDiplomacyRequests@@QAEXXZ PROC		; CvDiplomacyRequests::BeginTurn, COMDAT
; _this$ = ecx

; 152  : 	m_eNextAIPlayer = (PlayerTypes)0;

	mov	DWORD PTR [ecx+4], 0

; 153  : }

	ret	0
?BeginTurn@CvDiplomacyRequests@@QAEXXZ ENDP		; CvDiplomacyRequests::BeginTurn
_TEXT	ENDS
PUBLIC	?EndTurn@CvDiplomacyRequests@@QAEXXZ		; CvDiplomacyRequests::EndTurn
; Function compile flags: /Ogtpy
;	COMDAT ?EndTurn@CvDiplomacyRequests@@QAEXXZ
_TEXT	SEGMENT
?EndTurn@CvDiplomacyRequests@@QAEXXZ PROC		; CvDiplomacyRequests::EndTurn, COMDAT
; _this$ = ecx

; 159  : 	m_eNextAIPlayer = NO_PLAYER;

	mov	DWORD PTR [ecx+4], -1

; 160  : }

	ret	0
?EndTurn@CvDiplomacyRequests@@QAEXXZ ENDP		; CvDiplomacyRequests::EndTurn
_TEXT	ENDS
PUBLIC	?GetNextAIPlayer@CvDiplomacyRequests@@QBE?AW4PlayerTypes@@XZ ; CvDiplomacyRequests::GetNextAIPlayer
; Function compile flags: /Ogtpy
;	COMDAT ?GetNextAIPlayer@CvDiplomacyRequests@@QBE?AW4PlayerTypes@@XZ
_TEXT	SEGMENT
?GetNextAIPlayer@CvDiplomacyRequests@@QBE?AW4PlayerTypes@@XZ PROC ; CvDiplomacyRequests::GetNextAIPlayer, COMDAT
; _this$ = ecx

; 192  : 	return m_eNextAIPlayer;

	mov	eax, DWORD PTR [ecx+4]

; 193  : }

	ret	0
?GetNextAIPlayer@CvDiplomacyRequests@@QBE?AW4PlayerTypes@@XZ ENDP ; CvDiplomacyRequests::GetNextAIPlayer
_TEXT	ENDS
PUBLIC	?SetNextAIPlayer@CvDiplomacyRequests@@QAEXW4PlayerTypes@@@Z ; CvDiplomacyRequests::SetNextAIPlayer
; Function compile flags: /Ogtpy
;	COMDAT ?SetNextAIPlayer@CvDiplomacyRequests@@QAEXW4PlayerTypes@@@Z
_TEXT	SEGMENT
_eNextPlayer$ = 8					; size = 4
?SetNextAIPlayer@CvDiplomacyRequests@@QAEXW4PlayerTypes@@@Z PROC ; CvDiplomacyRequests::SetNextAIPlayer, COMDAT
; _this$ = ecx

; 197  : 	m_eNextAIPlayer = eNextPlayer;

	mov	eax, DWORD PTR _eNextPlayer$[esp-4]
	mov	DWORD PTR [ecx+4], eax

; 198  : }

	ret	4
?SetNextAIPlayer@CvDiplomacyRequests@@QAEXW4PlayerTypes@@@Z ENDP ; CvDiplomacyRequests::SetNextAIPlayer
_TEXT	ENDS
PUBLIC	?HasActiveRequest@CvDiplomacyRequests@@QBE_NXZ	; CvDiplomacyRequests::HasActiveRequest
; Function compile flags: /Ogtpy
;	COMDAT ?HasActiveRequest@CvDiplomacyRequests@@QBE_NXZ
_TEXT	SEGMENT
?HasActiveRequest@CvDiplomacyRequests@@QBE_NXZ PROC	; CvDiplomacyRequests::HasActiveRequest, COMDAT
; _this$ = ecx

; 209  : 	return m_bRequestActive;

	mov	al, BYTE PTR [ecx+24]

; 210  : }

	ret	0
?HasActiveRequest@CvDiplomacyRequests@@QBE_NXZ ENDP	; CvDiplomacyRequests::HasActiveRequest
_TEXT	ENDS
PUBLIC	?HasActiveRequestFrom@CvDiplomacyRequests@@QBE_NW4PlayerTypes@@@Z ; CvDiplomacyRequests::HasActiveRequestFrom
; Function compile flags: /Ogtpy
;	COMDAT ?HasActiveRequestFrom@CvDiplomacyRequests@@QBE_NW4PlayerTypes@@@Z
_TEXT	SEGMENT
_eFromPlayer$ = 8					; size = 4
?HasActiveRequestFrom@CvDiplomacyRequests@@QBE_NW4PlayerTypes@@@Z PROC ; CvDiplomacyRequests::HasActiveRequestFrom, COMDAT
; _this$ = ecx

; 215  : 	return m_bRequestActive && m_bRequestActiveFromPlayer == eFromPlayer;

	cmp	BYTE PTR [ecx+24], 0
	je	SHORT $LN3@HasActiveR
	mov	eax, DWORD PTR [ecx+20]
	cmp	eax, DWORD PTR _eFromPlayer$[esp-4]
	jne	SHORT $LN3@HasActiveR
	mov	eax, 1

; 216  : }

	ret	4
$LN3@HasActiveR:

; 215  : 	return m_bRequestActive && m_bRequestActiveFromPlayer == eFromPlayer;

	xor	eax, eax

; 216  : }

	ret	4
?HasActiveRequestFrom@CvDiplomacyRequests@@QBE_NW4PlayerTypes@@@Z ENDP ; CvDiplomacyRequests::HasActiveRequestFrom
_TEXT	ENDS
PUBLIC	?ActiveRequestComplete@CvDiplomacyRequests@@QAEXXZ ; CvDiplomacyRequests::ActiveRequestComplete
; Function compile flags: /Ogtpy
;	COMDAT ?ActiveRequestComplete@CvDiplomacyRequests@@QAEXXZ
_TEXT	SEGMENT
?ActiveRequestComplete@CvDiplomacyRequests@@QAEXXZ PROC	; CvDiplomacyRequests::ActiveRequestComplete, COMDAT
; _this$ = ecx

; 307  : 	m_bRequestActive = false;

	mov	BYTE PTR [ecx+24], 0

; 308  : 	m_bRequestActiveFromPlayer = NO_PLAYER;

	mov	DWORD PTR [ecx+20], -1

; 309  : }

	ret	0
?ActiveRequestComplete@CvDiplomacyRequests@@QAEXXZ ENDP	; CvDiplomacyRequests::ActiveRequestComplete
_TEXT	ENDS
PUBLIC	?size@?$list@URequest@CvDiplomacyRequests@@V?$allocator@URequest@CvDiplomacyRequests@@@std@@@std@@QBEIXZ ; std::list<CvDiplomacyRequests::Request,std::allocator<CvDiplomacyRequests::Request> >::size
; Function compile flags: /Ogtpy
; File c:\program files (x86)\microsoft visual studio 9.0\vc\include\list
;	COMDAT ?size@?$list@URequest@CvDiplomacyRequests@@V?$allocator@URequest@CvDiplomacyRequests@@@std@@@std@@QBEIXZ
_TEXT	SEGMENT
?size@?$list@URequest@CvDiplomacyRequests@@V?$allocator@URequest@CvDiplomacyRequests@@@std@@@std@@QBEIXZ PROC ; std::list<CvDiplomacyRequests::Request,std::allocator<CvDiplomacyRequests::Request> >::size, COMDAT
; _this$ = ecx

; 620  : 		return (_Mysize);

	mov	eax, DWORD PTR [ecx+8]

; 621  : 		}

	ret	0
?size@?$list@URequest@CvDiplomacyRequests@@V?$allocator@URequest@CvDiplomacyRequests@@@std@@@std@@QBEIXZ ENDP ; std::list<CvDiplomacyRequests::Request,std::allocator<CvDiplomacyRequests::Request> >::size
_TEXT	ENDS
PUBLIC	?empty@?$list@URequest@CvDiplomacyRequests@@V?$allocator@URequest@CvDiplomacyRequests@@@std@@@std@@QBE_NXZ ; std::list<CvDiplomacyRequests::Request,std::allocator<CvDiplomacyRequests::Request> >::empty
; Function compile flags: /Ogtpy
;	COMDAT ?empty@?$list@URequest@CvDiplomacyRequests@@V?$allocator@URequest@CvDiplomacyRequests@@@std@@@std@@QBE_NXZ
_TEXT	SEGMENT
?empty@?$list@URequest@CvDiplomacyRequests@@V?$allocator@URequest@CvDiplomacyRequests@@@std@@@std@@QBE_NXZ PROC ; std::list<CvDiplomacyRequests::Request,std::allocator<CvDiplomacyRequests::Request> >::empty, COMDAT
; _this$ = ecx

; 630  : 		return (_Mysize == 0);

	xor	eax, eax
	cmp	DWORD PTR [ecx+8], eax
	sete	al

; 631  : 		}

	ret	0
?empty@?$list@URequest@CvDiplomacyRequests@@V?$allocator@URequest@CvDiplomacyRequests@@@std@@@std@@QBE_NXZ ENDP ; std::list<CvDiplomacyRequests::Request,std::allocator<CvDiplomacyRequests::Request> >::empty
_TEXT	ENDS
PUBLIC	??0?$auto_ptr@VICvDeal1@@@std@@QAE@U?$auto_ptr_ref@VICvDeal1@@@1@@Z ; std::auto_ptr<ICvDeal1>::auto_ptr<ICvDeal1>
; Function compile flags: /Ogtpy
; File c:\program files (x86)\microsoft visual studio 9.0\vc\include\memory
;	COMDAT ??0?$auto_ptr@VICvDeal1@@@std@@QAE@U?$auto_ptr_ref@VICvDeal1@@@1@@Z
_TEXT	SEGMENT
__Right$ = 8						; size = 4
??0?$auto_ptr@VICvDeal1@@@std@@QAE@U?$auto_ptr_ref@VICvDeal1@@@1@@Z PROC ; std::auto_ptr<ICvDeal1>::auto_ptr<ICvDeal1>, COMDAT
; _this$ = ecx

; 669  : 	auto_ptr(auto_ptr_ref<_Ty> _Right) _THROW0()

	mov	eax, ecx

; 670  : 		{	// construct by assuming pointer from _Right auto_ptr_ref
; 671  : 		_Ty *_Ptr = _Right._Ref;
; 672  : 		_Right._Ref = 0;	// release old
; 673  : 		_Myptr = _Ptr;	// reset this

	mov	ecx, DWORD PTR __Right$[esp-4]
	mov	DWORD PTR [eax], ecx

; 674  : 		}

	ret	4
??0?$auto_ptr@VICvDeal1@@@std@@QAE@U?$auto_ptr_ref@VICvDeal1@@@1@@Z ENDP ; std::auto_ptr<ICvDeal1>::auto_ptr<ICvDeal1>
_TEXT	ENDS
PUBLIC	?get@?$auto_ptr@VICvDeal1@@@std@@QBEPAVICvDeal1@@XZ ; std::auto_ptr<ICvDeal1>::get
; Function compile flags: /Ogtpy
;	COMDAT ?get@?$auto_ptr@VICvDeal1@@@std@@QBEPAVICvDeal1@@XZ
_TEXT	SEGMENT
?get@?$auto_ptr@VICvDeal1@@@std@@QBEPAVICvDeal1@@XZ PROC ; std::auto_ptr<ICvDeal1>::get, COMDAT
; _this$ = ecx

; 750  : 		return (_Myptr);

	mov	eax, DWORD PTR [ecx]

; 751  : 		}

	ret	0
?get@?$auto_ptr@VICvDeal1@@@std@@QBEPAVICvDeal1@@XZ ENDP ; std::auto_ptr<ICvDeal1>::get
_TEXT	ENDS
PUBLIC	?_Nextnode@?$list@URequest@CvDiplomacyRequests@@V?$allocator@URequest@CvDiplomacyRequests@@@std@@@std@@KAAAPAU_Node@?$_List_nod@URequest@CvDiplomacyRequests@@V?$allocator@URequest@CvDiplomacyRequests@@@std@@@2@PAU342@@Z ; std::list<CvDiplomacyRequests::Request,std::allocator<CvDiplomacyRequests::Request> >::_Nextnode
; Function compile flags: /Ogtpy
; File c:\program files (x86)\microsoft visual studio 9.0\vc\include\list
;	COMDAT ?_Nextnode@?$list@URequest@CvDiplomacyRequests@@V?$allocator@URequest@CvDiplomacyRequests@@@std@@@std@@KAAAPAU_Node@?$_List_nod@URequest@CvDiplomacyRequests@@V?$allocator@URequest@CvDiplomacyRequests@@@std@@@2@PAU342@@Z
_TEXT	SEGMENT
__Pnode$ = 8						; size = 4
?_Nextnode@?$list@URequest@CvDiplomacyRequests@@V?$allocator@URequest@CvDiplomacyRequests@@@std@@@std@@KAAAPAU_Node@?$_List_nod@URequest@CvDiplomacyRequests@@V?$allocator@URequest@CvDiplomacyRequests@@@std@@@2@PAU342@@Z PROC ; std::list<CvDiplomacyRequests::Request,std::allocator<CvDiplomacyRequests::Request> >::_Nextnode, COMDAT

; 115  : 		return ((_Nodepref)(*_Pnode)._Next);

	mov	eax, DWORD PTR __Pnode$[esp-4]

; 116  : 		}

	ret	0
?_Nextnode@?$list@URequest@CvDiplomacyRequests@@V?$allocator@URequest@CvDiplomacyRequests@@@std@@@std@@KAAAPAU_Node@?$_List_nod@URequest@CvDiplomacyRequests@@V?$allocator@URequest@CvDiplomacyRequests@@@std@@@2@PAU342@@Z ENDP ; std::list<CvDiplomacyRequests::Request,std::allocator<CvDiplomacyRequests::Request> >::_Nextnode
_TEXT	ENDS
PUBLIC	?_Prevnode@?$list@URequest@CvDiplomacyRequests@@V?$allocator@URequest@CvDiplomacyRequests@@@std@@@std@@KAAAPAU_Node@?$_List_nod@URequest@CvDiplomacyRequests@@V?$allocator@URequest@CvDiplomacyRequests@@@std@@@2@PAU342@@Z ; std::list<CvDiplomacyRequests::Request,std::allocator<CvDiplomacyRequests::Request> >::_Prevnode
; Function compile flags: /Ogtpy
;	COMDAT ?_Prevnode@?$list@URequest@CvDiplomacyRequests@@V?$allocator@URequest@CvDiplomacyRequests@@@std@@@std@@KAAAPAU_Node@?$_List_nod@URequest@CvDiplomacyRequests@@V?$allocator@URequest@CvDiplomacyRequests@@@std@@@2@PAU342@@Z
_TEXT	SEGMENT
__Pnode$ = 8						; size = 4
?_Prevnode@?$list@URequest@CvDiplomacyRequests@@V?$allocator@URequest@CvDiplomacyRequests@@@std@@@std@@KAAAPAU_Node@?$_List_nod@URequest@CvDiplomacyRequests@@V?$allocator@URequest@CvDiplomacyRequests@@@std@@@2@PAU342@@Z PROC ; std::list<CvDiplomacyRequests::Request,std::allocator<CvDiplomacyRequests::Request> >::_Prevnode, COMDAT

; 120  : 		return ((_Nodepref)(*_Pnode)._Prev);

	mov	eax, DWORD PTR __Pnode$[esp-4]
	add	eax, 4

; 121  : 		}

	ret	0
?_Prevnode@?$list@URequest@CvDiplomacyRequests@@V?$allocator@URequest@CvDiplomacyRequests@@@std@@@std@@KAAAPAU_Node@?$_List_nod@URequest@CvDiplomacyRequests@@V?$allocator@URequest@CvDiplomacyRequests@@@std@@@2@PAU342@@Z ENDP ; std::list<CvDiplomacyRequests::Request,std::allocator<CvDiplomacyRequests::Request> >::_Prevnode
_TEXT	ENDS
PUBLIC	?_Myval@?$list@URequest@CvDiplomacyRequests@@V?$allocator@URequest@CvDiplomacyRequests@@@std@@@std@@KAAAURequest@CvDiplomacyRequests@@PAU_Node@?$_List_nod@URequest@CvDiplomacyRequests@@V?$allocator@URequest@CvDiplomacyRequests@@@std@@@2@@Z ; std::list<CvDiplomacyRequests::Request,std::allocator<CvDiplomacyRequests::Request> >::_Myval
; Function compile flags: /Ogtpy
;	COMDAT ?_Myval@?$list@URequest@CvDiplomacyRequests@@V?$allocator@URequest@CvDiplomacyRequests@@@std@@@std@@KAAAURequest@CvDiplomacyRequests@@PAU_Node@?$_List_nod@URequest@CvDiplomacyRequests@@V?$allocator@URequest@CvDiplomacyRequests@@@std@@@2@@Z
_TEXT	SEGMENT
__Pnode$ = 8						; size = 4
?_Myval@?$list@URequest@CvDiplomacyRequests@@V?$allocator@URequest@CvDiplomacyRequests@@@std@@@std@@KAAAURequest@CvDiplomacyRequests@@PAU_Node@?$_List_nod@URequest@CvDiplomacyRequests@@V?$allocator@URequest@CvDiplomacyRequests@@@std@@@2@@Z PROC ; std::list<CvDiplomacyRequests::Request,std::allocator<CvDiplomacyRequests::Request> >::_Myval, COMDAT

; 125  : 		return ((_Vref)(*_Pnode)._Myval);

	mov	eax, DWORD PTR __Pnode$[esp-4]
	add	eax, 8

; 126  : 		}

	ret	0
?_Myval@?$list@URequest@CvDiplomacyRequests@@V?$allocator@URequest@CvDiplomacyRequests@@@std@@@std@@KAAAURequest@CvDiplomacyRequests@@PAU_Node@?$_List_nod@URequest@CvDiplomacyRequests@@V?$allocator@URequest@CvDiplomacyRequests@@@std@@@2@@Z ENDP ; std::list<CvDiplomacyRequests::Request,std::allocator<CvDiplomacyRequests::Request> >::_Myval
_TEXT	ENDS
PUBLIC	??1?$_Container_base_aux_alloc_empty@V?$allocator@URequest@CvDiplomacyRequests@@@std@@@std@@IAE@XZ ; std::_Container_base_aux_alloc_empty<std::allocator<CvDiplomacyRequests::Request> >::~_Container_base_aux_alloc_empty<std::allocator<CvDiplomacyRequests::Request> >
; Function compile flags: /Ogtpy
; File c:\program files (x86)\microsoft visual studio 9.0\vc\include\xutility
;	COMDAT ??1?$_Container_base_aux_alloc_empty@V?$allocator@URequest@CvDiplomacyRequests@@@std@@@std@@IAE@XZ
_TEXT	SEGMENT
??1?$_Container_base_aux_alloc_empty@V?$allocator@URequest@CvDiplomacyRequests@@@std@@@std@@IAE@XZ PROC ; std::_Container_base_aux_alloc_empty<std::allocator<CvDiplomacyRequests::Request> >::~_Container_base_aux_alloc_empty<std::allocator<CvDiplomacyRequests::Request> >, COMDAT
; _this$ = ecx

; 627  : 	~_Container_base_aux_alloc_empty() { }

	ret	0
??1?$_Container_base_aux_alloc_empty@V?$allocator@URequest@CvDiplomacyRequests@@@std@@@std@@IAE@XZ ENDP ; std::_Container_base_aux_alloc_empty<std::allocator<CvDiplomacyRequests::Request> >::~_Container_base_aux_alloc_empty<std::allocator<CvDiplomacyRequests::Request> >
_TEXT	ENDS
PUBLIC	??0?$allocator@URequest@CvDiplomacyRequests@@@std@@QAE@XZ ; std::allocator<CvDiplomacyRequests::Request>::allocator<CvDiplomacyRequests::Request>
; Function compile flags: /Ogtpy
; File c:\program files (x86)\microsoft visual studio 9.0\vc\include\xmemory
;	COMDAT ??0?$allocator@URequest@CvDiplomacyRequests@@@std@@QAE@XZ
_TEXT	SEGMENT
??0?$allocator@URequest@CvDiplomacyRequests@@@std@@QAE@XZ PROC ; std::allocator<CvDiplomacyRequests::Request>::allocator<CvDiplomacyRequests::Request>, COMDAT
; _this$ = ecx

; 119  : 	allocator() _THROW0()

	mov	eax, ecx

; 120  : 		{	// construct default allocator (do nothing)
; 121  : 		}

	ret	0
??0?$allocator@URequest@CvDiplomacyRequests@@@std@@QAE@XZ ENDP ; std::allocator<CvDiplomacyRequests::Request>::allocator<CvDiplomacyRequests::Request>
_TEXT	ENDS
PUBLIC	?deallocate@?$allocator@U_Node@?$_List_nod@URequest@CvDiplomacyRequests@@V?$allocator@URequest@CvDiplomacyRequests@@@std@@@std@@@std@@QAEXPAU_Node@?$_List_nod@URequest@CvDiplomacyRequests@@V?$allocator@URequest@CvDiplomacyRequests@@@std@@@2@I@Z ; std::allocator<std::_List_nod<CvDiplomacyRequests::Request,std::allocator<CvDiplomacyRequests::Request> >::_Node>::deallocate
EXTRN	??3@YAXPAX@Z:PROC				; operator delete
; Function compile flags: /Ogtpy
;	COMDAT ?deallocate@?$allocator@U_Node@?$_List_nod@URequest@CvDiplomacyRequests@@V?$allocator@URequest@CvDiplomacyRequests@@@std@@@std@@@std@@QAEXPAU_Node@?$_List_nod@URequest@CvDiplomacyRequests@@V?$allocator@URequest@CvDiplomacyRequests@@@std@@@2@I@Z
_TEXT	SEGMENT
__Ptr$ = 8						; size = 4
___formal$ = 12						; size = 4
?deallocate@?$allocator@U_Node@?$_List_nod@URequest@CvDiplomacyRequests@@V?$allocator@URequest@CvDiplomacyRequests@@@std@@@std@@@std@@QAEXPAU_Node@?$_List_nod@URequest@CvDiplomacyRequests@@V?$allocator@URequest@CvDiplomacyRequests@@@std@@@2@I@Z PROC ; std::allocator<std::_List_nod<CvDiplomacyRequests::Request,std::allocator<CvDiplomacyRequests::Request> >::_Node>::deallocate, COMDAT
; _this$ = ecx

; 140  : 		::operator delete(_Ptr);

	mov	eax, DWORD PTR __Ptr$[esp-4]
	push	eax
	call	??3@YAXPAX@Z				; operator delete
	pop	ecx

; 141  : 		}

	ret	8
?deallocate@?$allocator@U_Node@?$_List_nod@URequest@CvDiplomacyRequests@@V?$allocator@URequest@CvDiplomacyRequests@@@std@@@std@@@std@@QAEXPAU_Node@?$_List_nod@URequest@CvDiplomacyRequests@@V?$allocator@URequest@CvDiplomacyRequests@@@std@@@2@I@Z ENDP ; std::allocator<std::_List_nod<CvDiplomacyRequests::Request,std::allocator<CvDiplomacyRequests::Request> >::_Node>::deallocate
_TEXT	ENDS
PUBLIC	??0?$_Const_iterator@$0A@@?$list@URequest@CvDiplomacyRequests@@V?$allocator@URequest@CvDiplomacyRequests@@@std@@@std@@QAE@PAU_Node@?$_List_nod@URequest@CvDiplomacyRequests@@V?$allocator@URequest@CvDiplomacyRequests@@@std@@@2@@Z ; std::list<CvDiplomacyRequests::Request,std::allocator<CvDiplomacyRequests::Request> >::_Const_iterator<0>::_Const_iterator<0>
; Function compile flags: /Ogtpy
; File c:\program files (x86)\microsoft visual studio 9.0\vc\include\list
;	COMDAT ??0?$_Const_iterator@$0A@@?$list@URequest@CvDiplomacyRequests@@V?$allocator@URequest@CvDiplomacyRequests@@@std@@@std@@QAE@PAU_Node@?$_List_nod@URequest@CvDiplomacyRequests@@V?$allocator@URequest@CvDiplomacyRequests@@@std@@@2@@Z
_TEXT	SEGMENT
__Pnode$ = 8						; size = 4
??0?$_Const_iterator@$0A@@?$list@URequest@CvDiplomacyRequests@@V?$allocator@URequest@CvDiplomacyRequests@@@std@@@std@@QAE@PAU_Node@?$_List_nod@URequest@CvDiplomacyRequests@@V?$allocator@URequest@CvDiplomacyRequests@@@std@@@2@@Z PROC ; std::list<CvDiplomacyRequests::Request,std::allocator<CvDiplomacyRequests::Request> >::_Const_iterator<0>::_Const_iterator<0>, COMDAT
; _this$ = ecx

; 184  : 			{	// construct with node pointer _Pnode

	mov	eax, ecx
	mov	ecx, DWORD PTR __Pnode$[esp-4]
	mov	DWORD PTR [eax], ecx

; 185  : 			}

	ret	4
??0?$_Const_iterator@$0A@@?$list@URequest@CvDiplomacyRequests@@V?$allocator@URequest@CvDiplomacyRequests@@@std@@@std@@QAE@PAU_Node@?$_List_nod@URequest@CvDiplomacyRequests@@V?$allocator@URequest@CvDiplomacyRequests@@@std@@@2@@Z ENDP ; std::list<CvDiplomacyRequests::Request,std::allocator<CvDiplomacyRequests::Request> >::_Const_iterator<0>::_Const_iterator<0>
_TEXT	ENDS
PUBLIC	??8?$_Const_iterator@$0A@@?$list@URequest@CvDiplomacyRequests@@V?$allocator@URequest@CvDiplomacyRequests@@@std@@@std@@QBE_NABV012@@Z ; std::list<CvDiplomacyRequests::Request,std::allocator<CvDiplomacyRequests::Request> >::_Const_iterator<0>::operator==
; Function compile flags: /Ogtpy
;	COMDAT ??8?$_Const_iterator@$0A@@?$list@URequest@CvDiplomacyRequests@@V?$allocator@URequest@CvDiplomacyRequests@@@std@@@std@@QBE_NABV012@@Z
_TEXT	SEGMENT
__Right$ = 8						; size = 4
??8?$_Const_iterator@$0A@@?$list@URequest@CvDiplomacyRequests@@V?$allocator@URequest@CvDiplomacyRequests@@@std@@@std@@QBE_NABV012@@Z PROC ; std::list<CvDiplomacyRequests::Request,std::allocator<CvDiplomacyRequests::Request> >::_Const_iterator<0>::operator==, COMDAT
; _this$ = ecx

; 291  : 
; 292  :  #if _HAS_ITERATOR_DEBUGGING
; 293  : 			_Compat(_Right);
; 294  :  #else
; 295  : 			_SCL_SECURE_TRAITS_VALIDATE(this->_Has_container() && this->_Same_container(_Right));
; 296  :  #endif /* _HAS_ITERATOR_DEBUGGING */
; 297  : 
; 298  : 			return (_Ptr == _Right._Ptr);

	mov	eax, DWORD PTR [ecx]
	mov	edx, DWORD PTR __Right$[esp-4]
	xor	ecx, ecx
	cmp	eax, DWORD PTR [edx]
	sete	cl
	mov	al, cl

; 299  : 			}

	ret	4
??8?$_Const_iterator@$0A@@?$list@URequest@CvDiplomacyRequests@@V?$allocator@URequest@CvDiplomacyRequests@@@std@@@std@@QBE_NABV012@@Z ENDP ; std::list<CvDiplomacyRequests::Request,std::allocator<CvDiplomacyRequests::Request> >::_Const_iterator<0>::operator==
_TEXT	ENDS
PUBLIC	??0?$allocator@URequest@CvDiplomacyRequests@@@std@@QAE@ABV01@@Z ; std::allocator<CvDiplomacyRequests::Request>::allocator<CvDiplomacyRequests::Request>
; Function compile flags: /Ogtpy
; File c:\program files (x86)\microsoft visual studio 9.0\vc\include\xmemory
;	COMDAT ??0?$allocator@URequest@CvDiplomacyRequests@@@std@@QAE@ABV01@@Z
_TEXT	SEGMENT
___formal$ = 8						; size = 4
??0?$allocator@URequest@CvDiplomacyRequests@@@std@@QAE@ABV01@@Z PROC ; std::allocator<CvDiplomacyRequests::Request>::allocator<CvDiplomacyRequests::Request>, COMDAT
; _this$ = ecx

; 123  : 	allocator(const allocator<_Ty>&) _THROW0()

	mov	eax, ecx

; 124  : 		{	// construct by copying (do nothing)
; 125  : 		}

	ret	4
??0?$allocator@URequest@CvDiplomacyRequests@@@std@@QAE@ABV01@@Z ENDP ; std::allocator<CvDiplomacyRequests::Request>::allocator<CvDiplomacyRequests::Request>
_TEXT	ENDS
PUBLIC	??F?$_Const_iterator@$0A@@?$list@URequest@CvDiplomacyRequests@@V?$allocator@URequest@CvDiplomacyRequests@@@std@@@std@@QAEAAV012@XZ ; std::list<CvDiplomacyRequests::Request,std::allocator<CvDiplomacyRequests::Request> >::_Const_iterator<0>::operator--
; Function compile flags: /Ogtpy
; File c:\program files (x86)\microsoft visual studio 9.0\vc\include\list
;	COMDAT ??F?$_Const_iterator@$0A@@?$list@URequest@CvDiplomacyRequests@@V?$allocator@URequest@CvDiplomacyRequests@@@std@@@std@@QAEAAV012@XZ
_TEXT	SEGMENT
??F?$_Const_iterator@$0A@@?$list@URequest@CvDiplomacyRequests@@V?$allocator@URequest@CvDiplomacyRequests@@@std@@@std@@QAEAAV012@XZ PROC ; std::list<CvDiplomacyRequests::Request,std::allocator<CvDiplomacyRequests::Request> >::_Const_iterator<0>::operator--, COMDAT
; _this$ = ecx

; 262  : 			{	// predecrement

	mov	eax, ecx

; 263  : 
; 264  :  #if _HAS_ITERATOR_DEBUGGING
; 265  : 			if (this->_Mycont == 0
; 266  : 				|| _Ptr == 0
; 267  : 				|| (_Ptr = _Prevnode(_Ptr))
; 268  : 					== ((_Myt *)this->_Mycont)->_Myhead)
; 269  : 				{
; 270  : 				_DEBUG_ERROR("list iterator not decrementable");
; 271  : 				_SCL_SECURE_TRAITS_OUT_OF_RANGE;
; 272  : 				}
; 273  :  #else /* _HAS_ITERATOR_DEBUGGING */
; 274  : 			_SCL_SECURE_TRAITS_VALIDATE(this->_Has_container());
; 275  : 			_Ptr = _Prevnode(_Ptr);

	mov	ecx, DWORD PTR [eax]
	mov	edx, DWORD PTR [ecx+4]
	mov	DWORD PTR [eax], edx

; 276  : 			_SCL_SECURE_TRAITS_VALIDATE_RANGE(_Ptr != ((_Myt *)(this->_Getmycont()))->_Myhead);
; 277  :  #endif /* _HAS_ITERATOR_DEBUGGING */
; 278  : 
; 279  : 			return (*this);
; 280  : 			}

	ret	0
??F?$_Const_iterator@$0A@@?$list@URequest@CvDiplomacyRequests@@V?$allocator@URequest@CvDiplomacyRequests@@@std@@@std@@QAEAAV012@XZ ENDP ; std::list<CvDiplomacyRequests::Request,std::allocator<CvDiplomacyRequests::Request> >::_Const_iterator<0>::operator--
_TEXT	ENDS
PUBLIC	?_Mynode@?$_Const_iterator@$0A@@?$list@URequest@CvDiplomacyRequests@@V?$allocator@URequest@CvDiplomacyRequests@@@std@@@std@@QBEPAU_Node@?$_List_nod@URequest@CvDiplomacyRequests@@V?$allocator@URequest@CvDiplomacyRequests@@@std@@@3@XZ ; std::list<CvDiplomacyRequests::Request,std::allocator<CvDiplomacyRequests::Request> >::_Const_iterator<0>::_Mynode
; Function compile flags: /Ogtpy
;	COMDAT ?_Mynode@?$_Const_iterator@$0A@@?$list@URequest@CvDiplomacyRequests@@V?$allocator@URequest@CvDiplomacyRequests@@@std@@@std@@QBEPAU_Node@?$_List_nod@URequest@CvDiplomacyRequests@@V?$allocator@URequest@CvDiplomacyRequests@@@std@@@3@XZ
_TEXT	SEGMENT
?_Mynode@?$_Const_iterator@$0A@@?$list@URequest@CvDiplomacyRequests@@V?$allocator@URequest@CvDiplomacyRequests@@@std@@@std@@QBEPAU_Node@?$_List_nod@URequest@CvDiplomacyRequests@@V?$allocator@URequest@CvDiplomacyRequests@@@std@@@3@XZ PROC ; std::list<CvDiplomacyRequests::Request,std::allocator<CvDiplomacyRequests::Request> >::_Const_iterator<0>::_Mynode, COMDAT
; _this$ = ecx

; 308  : 			return (_Ptr);

	mov	eax, DWORD PTR [ecx]

; 309  : 			}

	ret	0
?_Mynode@?$_Const_iterator@$0A@@?$list@URequest@CvDiplomacyRequests@@V?$allocator@URequest@CvDiplomacyRequests@@@std@@@std@@QBEPAU_Node@?$_List_nod@URequest@CvDiplomacyRequests@@V?$allocator@URequest@CvDiplomacyRequests@@@std@@@3@XZ ENDP ; std::list<CvDiplomacyRequests::Request,std::allocator<CvDiplomacyRequests::Request> >::_Const_iterator<0>::_Mynode
_TEXT	ENDS
PUBLIC	??0?$_Iterator@$0A@@?$list@URequest@CvDiplomacyRequests@@V?$allocator@URequest@CvDiplomacyRequests@@@std@@@std@@QAE@PAU_Node@?$_List_nod@URequest@CvDiplomacyRequests@@V?$allocator@URequest@CvDiplomacyRequests@@@std@@@2@@Z ; std::list<CvDiplomacyRequests::Request,std::allocator<CvDiplomacyRequests::Request> >::_Iterator<0>::_Iterator<0>
; Function compile flags: /Ogtpy
;	COMDAT ??0?$_Iterator@$0A@@?$list@URequest@CvDiplomacyRequests@@V?$allocator@URequest@CvDiplomacyRequests@@@std@@@std@@QAE@PAU_Node@?$_List_nod@URequest@CvDiplomacyRequests@@V?$allocator@URequest@CvDiplomacyRequests@@@std@@@2@@Z
_TEXT	SEGMENT
__Pnode$ = 8						; size = 4
??0?$_Iterator@$0A@@?$list@URequest@CvDiplomacyRequests@@V?$allocator@URequest@CvDiplomacyRequests@@@std@@@std@@QAE@PAU_Node@?$_List_nod@URequest@CvDiplomacyRequests@@V?$allocator@URequest@CvDiplomacyRequests@@@std@@@2@@Z PROC ; std::list<CvDiplomacyRequests::Request,std::allocator<CvDiplomacyRequests::Request> >::_Iterator<0>::_Iterator<0>, COMDAT
; _this$ = ecx

; 367  : 			{	// construct with node pointer _Pnode

	mov	eax, ecx
	mov	ecx, DWORD PTR __Pnode$[esp-4]
	mov	DWORD PTR [eax], ecx

; 368  : 			}

	ret	4
??0?$_Iterator@$0A@@?$list@URequest@CvDiplomacyRequests@@V?$allocator@URequest@CvDiplomacyRequests@@@std@@@std@@QAE@PAU_Node@?$_List_nod@URequest@CvDiplomacyRequests@@V?$allocator@URequest@CvDiplomacyRequests@@@std@@@2@@Z ENDP ; std::list<CvDiplomacyRequests::Request,std::allocator<CvDiplomacyRequests::Request> >::_Iterator<0>::_Iterator<0>
_TEXT	ENDS
PUBLIC	??0?$_Container_base_aux_alloc_empty@V?$allocator@URequest@CvDiplomacyRequests@@@std@@@std@@IAE@V?$allocator@URequest@CvDiplomacyRequests@@@1@@Z ; std::_Container_base_aux_alloc_empty<std::allocator<CvDiplomacyRequests::Request> >::_Container_base_aux_alloc_empty<std::allocator<CvDiplomacyRequests::Request> >
; Function compile flags: /Ogtpy
; File c:\program files (x86)\microsoft visual studio 9.0\vc\include\xutility
;	COMDAT ??0?$_Container_base_aux_alloc_empty@V?$allocator@URequest@CvDiplomacyRequests@@@std@@@std@@IAE@V?$allocator@URequest@CvDiplomacyRequests@@@1@@Z
_TEXT	SEGMENT
___formal$ = 8						; size = 1
??0?$_Container_base_aux_alloc_empty@V?$allocator@URequest@CvDiplomacyRequests@@@std@@@std@@IAE@V?$allocator@URequest@CvDiplomacyRequests@@@1@@Z PROC ; std::_Container_base_aux_alloc_empty<std::allocator<CvDiplomacyRequests::Request> >::_Container_base_aux_alloc_empty<std::allocator<CvDiplomacyRequests::Request> >, COMDAT
; _this$ = ecx

; 618  : 	explicit _Container_base_aux_alloc_empty(_Alloc) { }

	mov	eax, ecx
	ret	4
??0?$_Container_base_aux_alloc_empty@V?$allocator@URequest@CvDiplomacyRequests@@@std@@@std@@IAE@V?$allocator@URequest@CvDiplomacyRequests@@@1@@Z ENDP ; std::_Container_base_aux_alloc_empty<std::allocator<CvDiplomacyRequests::Request> >::_Container_base_aux_alloc_empty<std::allocator<CvDiplomacyRequests::Request> >
_TEXT	ENDS
PUBLIC	?max_size@?$allocator@URequest@CvDiplomacyRequests@@@std@@QBEIXZ ; std::allocator<CvDiplomacyRequests::Request>::max_size
; Function compile flags: /Ogtpy
; File c:\program files (x86)\microsoft visual studio 9.0\vc\include\xmemory
;	COMDAT ?max_size@?$allocator@URequest@CvDiplomacyRequests@@@std@@QBEIXZ
_TEXT	SEGMENT
?max_size@?$allocator@URequest@CvDiplomacyRequests@@@std@@QBEIXZ PROC ; std::allocator<CvDiplomacyRequests::Request>::max_size, COMDAT
; _this$ = ecx

; 165  : 		_SIZT _Count = (_SIZT)(-1) / sizeof (_Ty);
; 166  : 		return (0 < _Count ? _Count : 1);

	mov	eax, 82595524				; 04ec4ec4H

; 167  : 		}

	ret	0
?max_size@?$allocator@URequest@CvDiplomacyRequests@@@std@@QBEIXZ ENDP ; std::allocator<CvDiplomacyRequests::Request>::max_size
_TEXT	ENDS
PUBLIC	??_7bad_alloc@std@@6B@				; std::bad_alloc::`vftable'
PUBLIC	??0bad_alloc@std@@QAE@PBD@Z			; std::bad_alloc::bad_alloc
PUBLIC	??_R4bad_alloc@std@@6B@				; std::bad_alloc::`RTTI Complete Object Locator'
PUBLIC	??_R0?AVbad_alloc@std@@@8			; std::bad_alloc `RTTI Type Descriptor'
PUBLIC	??_R3bad_alloc@std@@8				; std::bad_alloc::`RTTI Class Hierarchy Descriptor'
PUBLIC	??_R2bad_alloc@std@@8				; std::bad_alloc::`RTTI Base Class Array'
PUBLIC	??_R1A@?0A@EA@bad_alloc@std@@8			; std::bad_alloc::`RTTI Base Class Descriptor at (0,-1,0,64)'
PUBLIC	??_R1A@?0A@EA@exception@std@@8			; std::exception::`RTTI Base Class Descriptor at (0,-1,0,64)'
PUBLIC	??_R0?AVexception@std@@@8			; std::exception `RTTI Type Descriptor'
PUBLIC	??_R3exception@std@@8				; std::exception::`RTTI Class Hierarchy Descriptor'
PUBLIC	??_R2exception@std@@8				; std::exception::`RTTI Base Class Array'
EXTRN	__imp_??0exception@std@@QAE@ABQBD@Z:PROC
EXTRN	??_7type_info@@6B@:QWORD			; type_info::`vftable'
EXTRN	??_Ebad_alloc@std@@UAEPAXI@Z:PROC		; std::bad_alloc::`vector deleting destructor'
EXTRN	?what@exception@std@@UBEPBDXZ:PROC		; std::exception::what
;	COMDAT ??_R2exception@std@@8
; File c:\program files (x86)\microsoft visual studio 9.0\vc\include\exception
rdata$r	SEGMENT
??_R2exception@std@@8 DD FLAT:??_R1A@?0A@EA@exception@std@@8 ; std::exception::`RTTI Base Class Array'
rdata$r	ENDS
;	COMDAT ??_R3exception@std@@8
rdata$r	SEGMENT
??_R3exception@std@@8 DD 00H				; std::exception::`RTTI Class Hierarchy Descriptor'
	DD	00H
	DD	01H
	DD	FLAT:??_R2exception@std@@8
rdata$r	ENDS
;	COMDAT ??_R0?AVexception@std@@@8
_DATA	SEGMENT
??_R0?AVexception@std@@@8 DD FLAT:??_7type_info@@6B@	; std::exception `RTTI Type Descriptor'
	DD	00H
	DB	'.?AVexception@std@@', 00H
_DATA	ENDS
;	COMDAT ??_R1A@?0A@EA@exception@std@@8
rdata$r	SEGMENT
??_R1A@?0A@EA@exception@std@@8 DD FLAT:??_R0?AVexception@std@@@8 ; std::exception::`RTTI Base Class Descriptor at (0,-1,0,64)'
	DD	00H
	DD	00H
	DD	0ffffffffH
	DD	00H
	DD	040H
	DD	FLAT:??_R3exception@std@@8
rdata$r	ENDS
;	COMDAT ??_R1A@?0A@EA@bad_alloc@std@@8
rdata$r	SEGMENT
??_R1A@?0A@EA@bad_alloc@std@@8 DD FLAT:??_R0?AVbad_alloc@std@@@8 ; std::bad_alloc::`RTTI Base Class Descriptor at (0,-1,0,64)'
	DD	01H
	DD	00H
	DD	0ffffffffH
	DD	00H
	DD	040H
	DD	FLAT:??_R3bad_alloc@std@@8
rdata$r	ENDS
;	COMDAT ??_R2bad_alloc@std@@8
rdata$r	SEGMENT
??_R2bad_alloc@std@@8 DD FLAT:??_R1A@?0A@EA@bad_alloc@std@@8 ; std::bad_alloc::`RTTI Base Class Array'
	DD	FLAT:??_R1A@?0A@EA@exception@std@@8
rdata$r	ENDS
;	COMDAT ??_R3bad_alloc@std@@8
rdata$r	SEGMENT
??_R3bad_alloc@std@@8 DD 00H				; std::bad_alloc::`RTTI Class Hierarchy Descriptor'
	DD	00H
	DD	02H
	DD	FLAT:??_R2bad_alloc@std@@8
rdata$r	ENDS
;	COMDAT ??_R0?AVbad_alloc@std@@@8
_DATA	SEGMENT
??_R0?AVbad_alloc@std@@@8 DD FLAT:??_7type_info@@6B@	; std::bad_alloc `RTTI Type Descriptor'
	DD	00H
	DB	'.?AVbad_alloc@std@@', 00H
_DATA	ENDS
;	COMDAT ??_R4bad_alloc@std@@6B@
rdata$r	SEGMENT
??_R4bad_alloc@std@@6B@ DD 00H				; std::bad_alloc::`RTTI Complete Object Locator'
	DD	00H
	DD	00H
	DD	FLAT:??_R0?AVbad_alloc@std@@@8
	DD	FLAT:??_R3bad_alloc@std@@8
rdata$r	ENDS
;	COMDAT ??_7bad_alloc@std@@6B@
CONST	SEGMENT
??_7bad_alloc@std@@6B@ DD FLAT:??_R4bad_alloc@std@@6B@	; std::bad_alloc::`vftable'
	DD	FLAT:??_Ebad_alloc@std@@UAEPAXI@Z
	DD	FLAT:?what@exception@std@@UBEPBDXZ
; Function compile flags: /Ogtpy
CONST	ENDS
;	COMDAT ??0bad_alloc@std@@QAE@PBD@Z
_TEXT	SEGMENT
__Message$ = 8						; size = 4
??0bad_alloc@std@@QAE@PBD@Z PROC			; std::bad_alloc::bad_alloc, COMDAT
; _this$ = ecx

; 371  : 		{	// construct from message string

	push	esi
	lea	eax, DWORD PTR __Message$[esp]
	push	eax
	mov	esi, ecx
	call	DWORD PTR __imp_??0exception@std@@QAE@ABQBD@Z
	mov	DWORD PTR [esi], OFFSET ??_7bad_alloc@std@@6B@

; 372  : 		}

	mov	eax, esi
	pop	esi
	ret	4
??0bad_alloc@std@@QAE@PBD@Z ENDP			; std::bad_alloc::bad_alloc
_TEXT	ENDS
PUBLIC	??$?0URequest@CvDiplomacyRequests@@@?$allocator@PAU_Node@?$_List_nod@URequest@CvDiplomacyRequests@@V?$allocator@URequest@CvDiplomacyRequests@@@std@@@std@@@std@@QAE@ABV?$allocator@URequest@CvDiplomacyRequests@@@1@@Z ; std::allocator<std::_List_nod<CvDiplomacyRequests::Request,std::allocator<CvDiplomacyRequests::Request> >::_Node *>::allocator<std::_List_nod<CvDiplomacyRequests::Request,std::allocator<CvDiplomacyRequests::Request> >::_Node *><CvDiplomacyRequests::Request>
; Function compile flags: /Ogtpy
; File c:\program files (x86)\microsoft visual studio 9.0\vc\include\xmemory
;	COMDAT ??$?0URequest@CvDiplomacyRequests@@@?$allocator@PAU_Node@?$_List_nod@URequest@CvDiplomacyRequests@@V?$allocator@URequest@CvDiplomacyRequests@@@std@@@std@@@std@@QAE@ABV?$allocator@URequest@CvDiplomacyRequests@@@1@@Z
_TEXT	SEGMENT
___formal$ = 8						; size = 4
??$?0URequest@CvDiplomacyRequests@@@?$allocator@PAU_Node@?$_List_nod@URequest@CvDiplomacyRequests@@V?$allocator@URequest@CvDiplomacyRequests@@@std@@@std@@@std@@QAE@ABV?$allocator@URequest@CvDiplomacyRequests@@@1@@Z PROC ; std::allocator<std::_List_nod<CvDiplomacyRequests::Request,std::allocator<CvDiplomacyRequests::Request> >::_Node *>::allocator<std::_List_nod<CvDiplomacyRequests::Request,std::allocator<CvDiplomacyRequests::Request> >::_Node *><CvDiplomacyRequests::Request>, COMDAT
; _this$ = ecx

; 128  : 		allocator(const allocator<_Other>&) _THROW0()

	mov	eax, ecx

; 129  : 		{	// construct from a related allocator (do nothing)
; 130  : 		}

	ret	4
??$?0URequest@CvDiplomacyRequests@@@?$allocator@PAU_Node@?$_List_nod@URequest@CvDiplomacyRequests@@V?$allocator@URequest@CvDiplomacyRequests@@@std@@@std@@@std@@QAE@ABV?$allocator@URequest@CvDiplomacyRequests@@@1@@Z ENDP ; std::allocator<std::_List_nod<CvDiplomacyRequests::Request,std::allocator<CvDiplomacyRequests::Request> >::_Node *>::allocator<std::_List_nod<CvDiplomacyRequests::Request,std::allocator<CvDiplomacyRequests::Request> >::_Node *><CvDiplomacyRequests::Request>
_TEXT	ENDS
PUBLIC	__TI2?AVbad_alloc@std@@
PUBLIC	??$_Allocate@U_Node@?$_List_nod@URequest@CvDiplomacyRequests@@V?$allocator@URequest@CvDiplomacyRequests@@@std@@@std@@@std@@YAPAU_Node@?$_List_nod@URequest@CvDiplomacyRequests@@V?$allocator@URequest@CvDiplomacyRequests@@@std@@@0@IPAU120@@Z ; std::_Allocate<std::_List_nod<CvDiplomacyRequests::Request,std::allocator<CvDiplomacyRequests::Request> >::_Node>
PUBLIC	??1bad_alloc@std@@UAE@XZ			; std::bad_alloc::~bad_alloc
PUBLIC	__CTA2?AVbad_alloc@std@@
PUBLIC	__CT??_R0?AVbad_alloc@std@@@8??0bad_alloc@std@@QAE@ABV01@@Z12
PUBLIC	??0bad_alloc@std@@QAE@ABV01@@Z			; std::bad_alloc::bad_alloc
PUBLIC	__CT??_R0?AVexception@std@@@8??0exception@std@@QAE@ABV01@@Z12
EXTRN	??2@YAPAXI@Z:PROC				; operator new
EXTRN	__CxxThrowException@8:PROC
EXTRN	??0exception@std@@QAE@ABV01@@Z:PROC		; std::exception::exception
;	COMDAT __CT??_R0?AVexception@std@@@8??0exception@std@@QAE@ABV01@@Z12
; File c:\program files (x86)\microsoft visual studio 9.0\vc\include\exception
xdata$x	SEGMENT
__CT??_R0?AVexception@std@@@8??0exception@std@@QAE@ABV01@@Z12 DD 00H
	DD	FLAT:??_R0?AVexception@std@@@8
	DD	00H
	DD	0ffffffffH
	ORG $+4
	DD	0cH
	DD	FLAT:??0exception@std@@QAE@ABV01@@Z
xdata$x	ENDS
;	COMDAT __CT??_R0?AVbad_alloc@std@@@8??0bad_alloc@std@@QAE@ABV01@@Z12
xdata$x	SEGMENT
__CT??_R0?AVbad_alloc@std@@@8??0bad_alloc@std@@QAE@ABV01@@Z12 DD 00H
	DD	FLAT:??_R0?AVbad_alloc@std@@@8
	DD	00H
	DD	0ffffffffH
	ORG $+4
	DD	0cH
	DD	FLAT:??0bad_alloc@std@@QAE@ABV01@@Z
xdata$x	ENDS
;	COMDAT __CTA2?AVbad_alloc@std@@
xdata$x	SEGMENT
__CTA2?AVbad_alloc@std@@ DD 02H
	DD	FLAT:__CT??_R0?AVbad_alloc@std@@@8??0bad_alloc@std@@QAE@ABV01@@Z12
	DD	FLAT:__CT??_R0?AVexception@std@@@8??0exception@std@@QAE@ABV01@@Z12
xdata$x	ENDS
;	COMDAT __TI2?AVbad_alloc@std@@
xdata$x	SEGMENT
__TI2?AVbad_alloc@std@@ DD 00H
	DD	FLAT:??1bad_alloc@std@@UAE@XZ
	DD	00H
	DD	FLAT:__CTA2?AVbad_alloc@std@@
; Function compile flags: /Ogtpy
; File c:\program files (x86)\microsoft visual studio 9.0\vc\include\xmemory
xdata$x	ENDS
;	COMDAT ??$_Allocate@U_Node@?$_List_nod@URequest@CvDiplomacyRequests@@V?$allocator@URequest@CvDiplomacyRequests@@@std@@@std@@@std@@YAPAU_Node@?$_List_nod@URequest@CvDiplomacyRequests@@V?$allocator@URequest@CvDiplomacyRequests@@@std@@@0@IPAU120@@Z
_TEXT	SEGMENT
$T222208 = -12						; size = 12
$T222213 = 8						; size = 4
__Count$ = 8						; size = 4
___formal$ = 12						; size = 4
??$_Allocate@U_Node@?$_List_nod@URequest@CvDiplomacyRequests@@V?$allocator@URequest@CvDiplomacyRequests@@@std@@@std@@@std@@YAPAU_Node@?$_List_nod@URequest@CvDiplomacyRequests@@V?$allocator@URequest@CvDiplomacyRequests@@@std@@@0@IPAU120@@Z PROC ; std::_Allocate<std::_List_nod<CvDiplomacyRequests::Request,std::allocator<CvDiplomacyRequests::Request> >::_Node>, COMDAT

; 37   : 	if (_Count <= 0)

	mov	ecx, DWORD PTR __Count$[esp-4]
	sub	esp, 12					; 0000000cH
	test	ecx, ecx
	ja	SHORT $LN3@Allocate

; 38   : 		_Count = 0;

	xor	ecx, ecx
$LN1@Allocate:

; 41   : 
; 42   : 		// allocate storage for _Count elements of type _Ty
; 43   : 	return ((_Ty _FARQ *)::operator new(_Count * sizeof (_Ty)));

	mov	edx, ecx
	shl	edx, 4
	sub	edx, ecx
	add	edx, edx
	add	edx, edx
	push	edx
	call	??2@YAPAXI@Z				; operator new
	add	esp, 4

; 44   : 	}

	add	esp, 12					; 0000000cH
	ret	0
$LN3@Allocate:

; 39   : 	else if (((_SIZT)(-1) / _Count) < sizeof (_Ty))

	or	eax, -1
	xor	edx, edx
	div	ecx
	cmp	eax, 60					; 0000003cH
	jae	SHORT $LN1@Allocate

; 40   : 		_THROW_NCEE(std::bad_alloc, NULL);

	lea	eax, DWORD PTR $T222213[esp+8]
	push	eax
	lea	ecx, DWORD PTR $T222208[esp+16]
	mov	DWORD PTR $T222213[esp+12], 0
	call	DWORD PTR __imp_??0exception@std@@QAE@ABQBD@Z
	push	OFFSET __TI2?AVbad_alloc@std@@
	lea	ecx, DWORD PTR $T222208[esp+16]
	push	ecx
	mov	DWORD PTR $T222208[esp+20], OFFSET ??_7bad_alloc@std@@6B@
	call	__CxxThrowException@8
$LN9@Allocate:
$LN8@Allocate:
	int	3
??$_Allocate@U_Node@?$_List_nod@URequest@CvDiplomacyRequests@@V?$allocator@URequest@CvDiplomacyRequests@@@std@@@std@@@std@@YAPAU_Node@?$_List_nod@URequest@CvDiplomacyRequests@@V?$allocator@URequest@CvDiplomacyRequests@@@std@@@0@IPAU120@@Z ENDP ; std::_Allocate<std::_List_nod<CvDiplomacyRequests::Request,std::allocator<CvDiplomacyRequests::Request> >::_Node>
_TEXT	ENDS
EXTRN	__imp_??1exception@std@@UAE@XZ:PROC
; Function compile flags: /Ogtpy
; File c:\program files (x86)\microsoft visual studio 9.0\vc\include\exception
;	COMDAT ??1bad_alloc@std@@UAE@XZ
_TEXT	SEGMENT
??1bad_alloc@std@@UAE@XZ PROC				; std::bad_alloc::~bad_alloc, COMDAT
; _this$ = ecx

; 380  : 		{	// destroy the object

	mov	DWORD PTR [ecx], OFFSET ??_7bad_alloc@std@@6B@

; 381  : 		}

	jmp	DWORD PTR __imp_??1exception@std@@UAE@XZ
??1bad_alloc@std@@UAE@XZ ENDP				; std::bad_alloc::~bad_alloc
_TEXT	ENDS
PUBLIC	??$_Destroy@PAU_Node@?$_List_nod@URequest@CvDiplomacyRequests@@V?$allocator@URequest@CvDiplomacyRequests@@@std@@@std@@@std@@YAXPAPAU_Node@?$_List_nod@URequest@CvDiplomacyRequests@@V?$allocator@URequest@CvDiplomacyRequests@@@std@@@0@@Z ; std::_Destroy<std::_List_nod<CvDiplomacyRequests::Request,std::allocator<CvDiplomacyRequests::Request> >::_Node *>
; Function compile flags: /Ogtpy
; File c:\program files (x86)\microsoft visual studio 9.0\vc\include\xmemory
;	COMDAT ??$_Destroy@PAU_Node@?$_List_nod@URequest@CvDiplomacyRequests@@V?$allocator@URequest@CvDiplomacyRequests@@@std@@@std@@@std@@YAXPAPAU_Node@?$_List_nod@URequest@CvDiplomacyRequests@@V?$allocator@URequest@CvDiplomacyRequests@@@std@@@0@@Z
_TEXT	SEGMENT
__Ptr$ = 8						; size = 4
??$_Destroy@PAU_Node@?$_List_nod@URequest@CvDiplomacyRequests@@V?$allocator@URequest@CvDiplomacyRequests@@@std@@@std@@@std@@YAXPAPAU_Node@?$_List_nod@URequest@CvDiplomacyRequests@@V?$allocator@URequest@CvDiplomacyRequests@@@std@@@0@@Z PROC ; std::_Destroy<std::_List_nod<CvDiplomacyRequests::Request,std::allocator<CvDiplomacyRequests::Request> >::_Node *>, COMDAT

; 59   : 	_DESTRUCTOR(_Ty, _Ptr);
; 60   : 	}

	ret	0
??$_Destroy@PAU_Node@?$_List_nod@URequest@CvDiplomacyRequests@@V?$allocator@URequest@CvDiplomacyRequests@@@std@@@std@@@std@@YAXPAPAU_Node@?$_List_nod@URequest@CvDiplomacyRequests@@V?$allocator@URequest@CvDiplomacyRequests@@@std@@@0@@Z ENDP ; std::_Destroy<std::_List_nod<CvDiplomacyRequests::Request,std::allocator<CvDiplomacyRequests::Request> >::_Node *>
; Function compile flags: /Ogtpy
_TEXT	ENDS
;	COMDAT ??_Gbad_alloc@std@@UAEPAXI@Z
_TEXT	SEGMENT
___flags$ = 8						; size = 4
??_Gbad_alloc@std@@UAEPAXI@Z PROC			; std::bad_alloc::`scalar deleting destructor', COMDAT
; _this$ = ecx
	push	esi
	mov	esi, ecx
	mov	DWORD PTR [esi], OFFSET ??_7bad_alloc@std@@6B@
	call	DWORD PTR __imp_??1exception@std@@UAE@XZ
	test	BYTE PTR ___flags$[esp], 1
	je	SHORT $LN6@scalar
	push	esi
	call	??3@YAXPAX@Z				; operator delete
	add	esp, 4
$LN6@scalar:
	mov	eax, esi
	pop	esi
	ret	4
??_Gbad_alloc@std@@UAEPAXI@Z ENDP			; std::bad_alloc::`scalar deleting destructor'
_TEXT	ENDS
PUBLIC	??$?0URequest@CvDiplomacyRequests@@@?$allocator@U_Node@?$_List_nod@URequest@CvDiplomacyRequests@@V?$allocator@URequest@CvDiplomacyRequests@@@std@@@std@@@std@@QAE@ABV?$allocator@URequest@CvDiplomacyRequests@@@1@@Z ; std::allocator<std::_List_nod<CvDiplomacyRequests::Request,std::allocator<CvDiplomacyRequests::Request> >::_Node>::allocator<std::_List_nod<CvDiplomacyRequests::Request,std::allocator<CvDiplomacyRequests::Request> >::_Node><CvDiplomacyRequests::Request>
; Function compile flags: /Ogtpy
;	COMDAT ??$?0URequest@CvDiplomacyRequests@@@?$allocator@U_Node@?$_List_nod@URequest@CvDiplomacyRequests@@V?$allocator@URequest@CvDiplomacyRequests@@@std@@@std@@@std@@QAE@ABV?$allocator@URequest@CvDiplomacyRequests@@@1@@Z
_TEXT	SEGMENT
___formal$ = 8						; size = 4
??$?0URequest@CvDiplomacyRequests@@@?$allocator@U_Node@?$_List_nod@URequest@CvDiplomacyRequests@@V?$allocator@URequest@CvDiplomacyRequests@@@std@@@std@@@std@@QAE@ABV?$allocator@URequest@CvDiplomacyRequests@@@1@@Z PROC ; std::allocator<std::_List_nod<CvDiplomacyRequests::Request,std::allocator<CvDiplomacyRequests::Request> >::_Node>::allocator<std::_List_nod<CvDiplomacyRequests::Request,std::allocator<CvDiplomacyRequests::Request> >::_Node><CvDiplomacyRequests::Request>, COMDAT
; _this$ = ecx

; 128  : 		allocator(const allocator<_Other>&) _THROW0()

	mov	eax, ecx

; 129  : 		{	// construct from a related allocator (do nothing)
; 130  : 		}

	ret	4
??$?0URequest@CvDiplomacyRequests@@@?$allocator@U_Node@?$_List_nod@URequest@CvDiplomacyRequests@@V?$allocator@URequest@CvDiplomacyRequests@@@std@@@std@@@std@@QAE@ABV?$allocator@URequest@CvDiplomacyRequests@@@1@@Z ENDP ; std::allocator<std::_List_nod<CvDiplomacyRequests::Request,std::allocator<CvDiplomacyRequests::Request> >::_Node>::allocator<std::_List_nod<CvDiplomacyRequests::Request,std::allocator<CvDiplomacyRequests::Request> >::_Node><CvDiplomacyRequests::Request>
_TEXT	ENDS
PUBLIC	??2@YAPAXIPAX@Z					; operator new
; Function compile flags: /Ogtpy
; File c:\program files (x86)\microsoft visual studio 9.0\vc\include\new
;	COMDAT ??2@YAPAXIPAX@Z
_TEXT	SEGMENT
___formal$ = 8						; size = 4
__Where$ = 12						; size = 4
??2@YAPAXIPAX@Z PROC					; operator new, COMDAT

; 59   : 	return (_Where);

	mov	eax, DWORD PTR __Where$[esp-4]

; 60   : 	}

	ret	0
??2@YAPAXIPAX@Z ENDP					; operator new
_TEXT	ENDS
PUBLIC	??3@YAXPAX0@Z					; operator delete
; Function compile flags: /Ogtpy
;	COMDAT ??3@YAXPAX0@Z
_TEXT	SEGMENT
___formal$ = 8						; size = 4
___formal$ = 12						; size = 4
??3@YAXPAX0@Z PROC					; operator delete, COMDAT

; 64   : 	}

	ret	0
??3@YAXPAX0@Z ENDP					; operator delete
_TEXT	ENDS
PUBLIC	??0?$auto_ptr_ref@VICvDeal1@@@std@@QAE@PAVICvDeal1@@@Z ; std::auto_ptr_ref<ICvDeal1>::auto_ptr_ref<ICvDeal1>
; Function compile flags: /Ogtpy
; File c:\program files (x86)\microsoft visual studio 9.0\vc\include\memory
;	COMDAT ??0?$auto_ptr_ref@VICvDeal1@@@std@@QAE@PAVICvDeal1@@@Z
_TEXT	SEGMENT
__Right$ = 8						; size = 4
??0?$auto_ptr_ref@VICvDeal1@@@std@@QAE@PAVICvDeal1@@@Z PROC ; std::auto_ptr_ref<ICvDeal1>::auto_ptr_ref<ICvDeal1>, COMDAT
; _this$ = ecx

; 647  : 		{	// construct from generic pointer to auto_ptr ptr

	mov	eax, ecx
	mov	ecx, DWORD PTR __Right$[esp-4]
	mov	DWORD PTR [eax], ecx

; 648  : 		}

	ret	4
??0?$auto_ptr_ref@VICvDeal1@@@std@@QAE@PAVICvDeal1@@@Z ENDP ; std::auto_ptr_ref<ICvDeal1>::auto_ptr_ref<ICvDeal1>
_TEXT	ENDS
PUBLIC	??_7logic_error@std@@6B@			; std::logic_error::`vftable'
PUBLIC	??0logic_error@std@@QAE@ABV?$basic_string@DU?$char_traits@D@std@@V?$allocator@D@2@@1@@Z ; std::logic_error::logic_error
PUBLIC	??_R4logic_error@std@@6B@			; std::logic_error::`RTTI Complete Object Locator'
PUBLIC	??_R0?AVlogic_error@std@@@8			; std::logic_error `RTTI Type Descriptor'
PUBLIC	??_R3logic_error@std@@8				; std::logic_error::`RTTI Class Hierarchy Descriptor'
PUBLIC	??_R2logic_error@std@@8				; std::logic_error::`RTTI Base Class Array'
PUBLIC	??_R1A@?0A@EA@logic_error@std@@8		; std::logic_error::`RTTI Base Class Descriptor at (0,-1,0,64)'
PUBLIC	?what@logic_error@std@@UBEPBDXZ			; std::logic_error::what
EXTRN	__imp_??0?$basic_string@DU?$char_traits@D@std@@V?$allocator@D@2@@std@@QAE@ABV01@@Z:PROC
EXTRN	__imp_??0exception@std@@QAE@XZ:PROC
EXTRN	___CxxFrameHandler3:PROC
EXTRN	??_Elogic_error@std@@UAEPAXI@Z:PROC		; std::logic_error::`vector deleting destructor'
;	COMDAT ??_R1A@?0A@EA@logic_error@std@@8
; File c:\program files (x86)\microsoft visual studio 9.0\vc\include\stdexcept
rdata$r	SEGMENT
??_R1A@?0A@EA@logic_error@std@@8 DD FLAT:??_R0?AVlogic_error@std@@@8 ; std::logic_error::`RTTI Base Class Descriptor at (0,-1,0,64)'
	DD	01H
	DD	00H
	DD	0ffffffffH
	DD	00H
	DD	040H
	DD	FLAT:??_R3logic_error@std@@8
rdata$r	ENDS
;	COMDAT ??_R2logic_error@std@@8
rdata$r	SEGMENT
??_R2logic_error@std@@8 DD FLAT:??_R1A@?0A@EA@logic_error@std@@8 ; std::logic_error::`RTTI Base Class Array'
	DD	FLAT:??_R1A@?0A@EA@exception@std@@8
rdata$r	ENDS
;	COMDAT ??_R3logic_error@std@@8
rdata$r	SEGMENT
??_R3logic_error@std@@8 DD 00H				; std::logic_error::`RTTI Class Hierarchy Descriptor'
	DD	00H
	DD	02H
	DD	FLAT:??_R2logic_error@std@@8
rdata$r	ENDS
;	COMDAT ??_R0?AVlogic_error@std@@@8
_DATA	SEGMENT
??_R0?AVlogic_error@std@@@8 DD FLAT:??_7type_info@@6B@	; std::logic_error `RTTI Type Descriptor'
	DD	00H
	DB	'.?AVlogic_error@std@@', 00H
_DATA	ENDS
;	COMDAT ??_R4logic_error@std@@6B@
rdata$r	SEGMENT
??_R4logic_error@std@@6B@ DD 00H			; std::logic_error::`RTTI Complete Object Locator'
	DD	00H
	DD	00H
	DD	FLAT:??_R0?AVlogic_error@std@@@8
	DD	FLAT:??_R3logic_error@std@@8
rdata$r	ENDS
;	COMDAT ??_7logic_error@std@@6B@
CONST	SEGMENT
??_7logic_error@std@@6B@ DD FLAT:??_R4logic_error@std@@6B@ ; std::logic_error::`vftable'
	DD	FLAT:??_Elogic_error@std@@UAEPAXI@Z
	DD	FLAT:?what@logic_error@std@@UBEPBDXZ
CONST	ENDS
;	COMDAT xdata$x
xdata$x	SEGMENT
__unwindtable$??0logic_error@std@@QAE@ABV?$basic_string@DU?$char_traits@D@std@@V?$allocator@D@2@@1@@Z DD 0ffffffffH
	DD	FLAT:__unwindfunclet$??0logic_error@std@@QAE@ABV?$basic_string@DU?$char_traits@D@std@@V?$allocator@D@2@@1@@Z$0
__ehfuncinfo$??0logic_error@std@@QAE@ABV?$basic_string@DU?$char_traits@D@std@@V?$allocator@D@2@@1@@Z DD 019930522H
	DD	01H
	DD	FLAT:__unwindtable$??0logic_error@std@@QAE@ABV?$basic_string@DU?$char_traits@D@std@@V?$allocator@D@2@@1@@Z
	DD	2 DUP(00H)
	DD	2 DUP(00H)
	DD	00H
	DD	01H
; Function compile flags: /Ogtpy
xdata$x	ENDS
;	COMDAT ??0logic_error@std@@QAE@ABV?$basic_string@DU?$char_traits@D@std@@V?$allocator@D@2@@1@@Z
_TEXT	SEGMENT
_this$ = -16						; size = 4
__$EHRec$ = -12						; size = 12
__Message$ = 8						; size = 4
??0logic_error@std@@QAE@ABV?$basic_string@DU?$char_traits@D@std@@V?$allocator@D@2@@1@@Z PROC ; std::logic_error::logic_error, COMDAT
; _this$ = ecx

; 26   : 		{	// construct from message string

	push	-1
	push	__ehhandler$??0logic_error@std@@QAE@ABV?$basic_string@DU?$char_traits@D@std@@V?$allocator@D@2@@1@@Z
	mov	eax, DWORD PTR fs:0
	push	eax
	mov	DWORD PTR fs:0, esp
	push	ecx
	push	esi
	mov	esi, ecx
	mov	DWORD PTR _this$[esp+20], esi
	call	DWORD PTR __imp_??0exception@std@@QAE@XZ
	mov	eax, DWORD PTR __Message$[esp+16]
	push	eax
	lea	ecx, DWORD PTR [esi+12]
	mov	DWORD PTR __$EHRec$[esp+32], 0
	mov	DWORD PTR [esi], OFFSET ??_7logic_error@std@@6B@
	call	DWORD PTR __imp_??0?$basic_string@DU?$char_traits@D@std@@V?$allocator@D@2@@std@@QAE@ABV01@@Z

; 27   : 		}

	mov	ecx, DWORD PTR __$EHRec$[esp+20]
	mov	eax, esi
	pop	esi
	mov	DWORD PTR fs:0, ecx
	add	esp, 16					; 00000010H
	ret	4
_TEXT	ENDS
;	COMDAT text$x
text$x	SEGMENT
__unwindfunclet$??0logic_error@std@@QAE@ABV?$basic_string@DU?$char_traits@D@std@@V?$allocator@D@2@@1@@Z$0:
	mov	ecx, DWORD PTR _this$[ebp]
	jmp	DWORD PTR __imp_??1exception@std@@UAE@XZ
__ehhandler$??0logic_error@std@@QAE@ABV?$basic_string@DU?$char_traits@D@std@@V?$allocator@D@2@@1@@Z:
	mov	eax, OFFSET __ehfuncinfo$??0logic_error@std@@QAE@ABV?$basic_string@DU?$char_traits@D@std@@V?$allocator@D@2@@1@@Z
	jmp	___CxxFrameHandler3
text$x	ENDS
??0logic_error@std@@QAE@ABV?$basic_string@DU?$char_traits@D@std@@V?$allocator@D@2@@1@@Z ENDP ; std::logic_error::logic_error
PUBLIC	??1logic_error@std@@UAE@XZ			; std::logic_error::~logic_error
EXTRN	__imp_??1?$basic_string@DU?$char_traits@D@std@@V?$allocator@D@2@@std@@QAE@XZ:PROC
; Function compile flags: /Ogtpy
;	COMDAT ??1logic_error@std@@UAE@XZ
_TEXT	SEGMENT
??1logic_error@std@@UAE@XZ PROC				; std::logic_error::~logic_error, COMDAT
; _this$ = ecx

; 30   : 		{	// destroy the object

	push	esi
	mov	esi, ecx

; 31   : 		}

	lea	ecx, DWORD PTR [esi+12]
	mov	DWORD PTR [esi], OFFSET ??_7logic_error@std@@6B@
	call	DWORD PTR __imp_??1?$basic_string@DU?$char_traits@D@std@@V?$allocator@D@2@@std@@QAE@XZ
	mov	ecx, esi
	pop	esi
	jmp	DWORD PTR __imp_??1exception@std@@UAE@XZ
??1logic_error@std@@UAE@XZ ENDP				; std::logic_error::~logic_error
_TEXT	ENDS
EXTRN	__imp_?c_str@?$basic_string@DU?$char_traits@D@std@@V?$allocator@D@2@@std@@QBEPBDXZ:PROC
; Function compile flags: /Ogtpy
;	COMDAT ?what@logic_error@std@@UBEPBDXZ
_TEXT	SEGMENT
?what@logic_error@std@@UBEPBDXZ PROC			; std::logic_error::what, COMDAT
; _this$ = ecx

; 35   : 		return (_Str.c_str());

	add	ecx, 12					; 0000000cH
	jmp	DWORD PTR __imp_?c_str@?$basic_string@DU?$char_traits@D@std@@V?$allocator@D@2@@std@@QBEPBDXZ
?what@logic_error@std@@UBEPBDXZ ENDP			; std::logic_error::what
; Function compile flags: /Ogtpy
_TEXT	ENDS
;	COMDAT ??_Glogic_error@std@@UAEPAXI@Z
_TEXT	SEGMENT
___flags$ = 8						; size = 4
??_Glogic_error@std@@UAEPAXI@Z PROC			; std::logic_error::`scalar deleting destructor', COMDAT
; _this$ = ecx
	push	esi
	mov	esi, ecx
	lea	ecx, DWORD PTR [esi+12]
	mov	DWORD PTR [esi], OFFSET ??_7logic_error@std@@6B@
	call	DWORD PTR __imp_??1?$basic_string@DU?$char_traits@D@std@@V?$allocator@D@2@@std@@QAE@XZ
	mov	ecx, esi
	call	DWORD PTR __imp_??1exception@std@@UAE@XZ
	test	BYTE PTR ___flags$[esp], 1
	je	SHORT $LN6@scalar@2
	push	esi
	call	??3@YAXPAX@Z				; operator delete
	add	esp, 4
$LN6@scalar@2:
	mov	eax, esi
	pop	esi
	ret	4
??_Glogic_error@std@@UAEPAXI@Z ENDP			; std::logic_error::`scalar deleting destructor'
_TEXT	ENDS
PUBLIC	??_7length_error@std@@6B@			; std::length_error::`vftable'
PUBLIC	??0length_error@std@@QAE@ABV?$basic_string@DU?$char_traits@D@std@@V?$allocator@D@2@@1@@Z ; std::length_error::length_error
PUBLIC	??_R4length_error@std@@6B@			; std::length_error::`RTTI Complete Object Locator'
PUBLIC	??_R0?AVlength_error@std@@@8			; std::length_error `RTTI Type Descriptor'
PUBLIC	??_R3length_error@std@@8			; std::length_error::`RTTI Class Hierarchy Descriptor'
PUBLIC	??_R2length_error@std@@8			; std::length_error::`RTTI Base Class Array'
PUBLIC	??_R1A@?0A@EA@length_error@std@@8		; std::length_error::`RTTI Base Class Descriptor at (0,-1,0,64)'
EXTRN	??_Elength_error@std@@UAEPAXI@Z:PROC		; std::length_error::`vector deleting destructor'
;	COMDAT ??_R1A@?0A@EA@length_error@std@@8
rdata$r	SEGMENT
??_R1A@?0A@EA@length_error@std@@8 DD FLAT:??_R0?AVlength_error@std@@@8 ; std::length_error::`RTTI Base Class Descriptor at (0,-1,0,64)'
	DD	02H
	DD	00H
	DD	0ffffffffH
	DD	00H
	DD	040H
	DD	FLAT:??_R3length_error@std@@8
rdata$r	ENDS
;	COMDAT ??_R2length_error@std@@8
rdata$r	SEGMENT
??_R2length_error@std@@8 DD FLAT:??_R1A@?0A@EA@length_error@std@@8 ; std::length_error::`RTTI Base Class Array'
	DD	FLAT:??_R1A@?0A@EA@logic_error@std@@8
	DD	FLAT:??_R1A@?0A@EA@exception@std@@8
rdata$r	ENDS
;	COMDAT ??_R3length_error@std@@8
rdata$r	SEGMENT
??_R3length_error@std@@8 DD 00H				; std::length_error::`RTTI Class Hierarchy Descriptor'
	DD	00H
	DD	03H
	DD	FLAT:??_R2length_error@std@@8
rdata$r	ENDS
;	COMDAT ??_R0?AVlength_error@std@@@8
_DATA	SEGMENT
??_R0?AVlength_error@std@@@8 DD FLAT:??_7type_info@@6B@	; std::length_error `RTTI Type Descriptor'
	DD	00H
	DB	'.?AVlength_error@std@@', 00H
_DATA	ENDS
;	COMDAT ??_R4length_error@std@@6B@
rdata$r	SEGMENT
??_R4length_error@std@@6B@ DD 00H			; std::length_error::`RTTI Complete Object Locator'
	DD	00H
	DD	00H
	DD	FLAT:??_R0?AVlength_error@std@@@8
	DD	FLAT:??_R3length_error@std@@8
rdata$r	ENDS
;	COMDAT ??_7length_error@std@@6B@
CONST	SEGMENT
??_7length_error@std@@6B@ DD FLAT:??_R4length_error@std@@6B@ ; std::length_error::`vftable'
	DD	FLAT:??_Elength_error@std@@UAEPAXI@Z
	DD	FLAT:?what@logic_error@std@@UBEPBDXZ
; Function compile flags: /Ogtpy
CONST	ENDS
;	COMDAT ??0length_error@std@@QAE@ABV?$basic_string@DU?$char_traits@D@std@@V?$allocator@D@2@@1@@Z
_TEXT	SEGMENT
__Message$ = 8						; size = 4
??0length_error@std@@QAE@ABV?$basic_string@DU?$char_traits@D@std@@V?$allocator@D@2@@1@@Z PROC ; std::length_error::length_error, COMDAT
; _this$ = ecx

; 105  : 		{	// construct from message string

	mov	eax, DWORD PTR __Message$[esp-4]
	push	esi
	push	eax
	mov	esi, ecx
	call	??0logic_error@std@@QAE@ABV?$basic_string@DU?$char_traits@D@std@@V?$allocator@D@2@@1@@Z ; std::logic_error::logic_error
	mov	DWORD PTR [esi], OFFSET ??_7length_error@std@@6B@

; 106  : 		}

	mov	eax, esi
	pop	esi
	ret	4
??0length_error@std@@QAE@ABV?$basic_string@DU?$char_traits@D@std@@V?$allocator@D@2@@1@@Z ENDP ; std::length_error::length_error
_TEXT	ENDS
PUBLIC	??1length_error@std@@UAE@XZ			; std::length_error::~length_error
; Function compile flags: /Ogtpy
;	COMDAT ??1length_error@std@@UAE@XZ
_TEXT	SEGMENT
??1length_error@std@@UAE@XZ PROC			; std::length_error::~length_error, COMDAT
; _this$ = ecx

; 109  : 		{	// destroy the object

	push	esi
	mov	esi, ecx

; 110  : 		}

	lea	ecx, DWORD PTR [esi+12]
	mov	DWORD PTR [esi], OFFSET ??_7logic_error@std@@6B@
	call	DWORD PTR __imp_??1?$basic_string@DU?$char_traits@D@std@@V?$allocator@D@2@@std@@QAE@XZ
	mov	ecx, esi
	pop	esi
	jmp	DWORD PTR __imp_??1exception@std@@UAE@XZ
??1length_error@std@@UAE@XZ ENDP			; std::length_error::~length_error
; Function compile flags: /Ogtpy
_TEXT	ENDS
;	COMDAT ??_Glength_error@std@@UAEPAXI@Z
_TEXT	SEGMENT
___flags$ = 8						; size = 4
??_Glength_error@std@@UAEPAXI@Z PROC			; std::length_error::`scalar deleting destructor', COMDAT
; _this$ = ecx
	push	esi
	mov	esi, ecx
	lea	ecx, DWORD PTR [esi+12]
	mov	DWORD PTR [esi], OFFSET ??_7logic_error@std@@6B@
	call	DWORD PTR __imp_??1?$basic_string@DU?$char_traits@D@std@@V?$allocator@D@2@@std@@QAE@XZ
	mov	ecx, esi
	call	DWORD PTR __imp_??1exception@std@@UAE@XZ
	test	BYTE PTR ___flags$[esp], 1
	je	SHORT $LN8@scalar@3
	push	esi
	call	??3@YAXPAX@Z				; operator delete
	add	esp, 4
$LN8@scalar@3:
	mov	eax, esi
	pop	esi
	ret	4
??_Glength_error@std@@UAEPAXI@Z ENDP			; std::length_error::`scalar deleting destructor'
_TEXT	ENDS
PUBLIC	??0CvString@@QAE@XZ				; CvString::CvString
EXTRN	__imp_??0?$basic_string@DU?$char_traits@D@std@@V?$allocator@D@2@@std@@QAE@XZ:PROC
; Function compile flags: /Ogtpy
; File c:\users\enormousapplepie\desktop\lekmod files\lekmod dll versions\v29\lekmod_dll\cvgamecoredllutil\include\cvstring.h
;	COMDAT ??0CvString@@QAE@XZ
_TEXT	SEGMENT
??0CvString@@QAE@XZ PROC				; CvString::CvString, COMDAT
; _this$ = ecx

; 23   : 	CvString() {}

	push	esi
	mov	esi, ecx
	call	DWORD PTR __imp_??0?$basic_string@DU?$char_traits@D@std@@V?$allocator@D@2@@std@@QAE@XZ
	mov	eax, esi
	pop	esi
	ret	0
??0CvString@@QAE@XZ ENDP				; CvString::CvString
_TEXT	ENDS
PUBLIC	??1CvString@@QAE@XZ				; CvString::~CvString
; Function compile flags: /Ogtpy
;	COMDAT ??1CvString@@QAE@XZ
_TEXT	SEGMENT
??1CvString@@QAE@XZ PROC				; CvString::~CvString, COMDAT
; _this$ = ecx

; 28   : 	~CvString() {}

	jmp	DWORD PTR __imp_??1?$basic_string@DU?$char_traits@D@std@@V?$allocator@D@2@@std@@QAE@XZ
??1CvString@@QAE@XZ ENDP				; CvString::~CvString
_TEXT	ENDS
PUBLIC	??BCvString@@QBEPBDXZ				; CvString::operator char const *
; Function compile flags: /Ogtpy
;	COMDAT ??BCvString@@QBEPBDXZ
_TEXT	SEGMENT
??BCvString@@QBEPBDXZ PROC				; CvString::operator char const *, COMDAT
; _this$ = ecx

; 31   : 	operator const char*() const 	{ return c_str(); }												

	jmp	DWORD PTR __imp_?c_str@?$basic_string@DU?$char_traits@D@std@@V?$allocator@D@2@@std@@QBEPBDXZ
??BCvString@@QBEPBDXZ ENDP				; CvString::operator char const *
_TEXT	ENDS
PUBLIC	??4CvString@@QAEAAV0@PBD@Z			; CvString::operator=
EXTRN	__imp_?clear@?$basic_string@DU?$char_traits@D@std@@V?$allocator@D@2@@std@@QAEXXZ:PROC
EXTRN	__imp_?assign@?$basic_string@DU?$char_traits@D@std@@V?$allocator@D@2@@std@@QAEAAV12@PBD@Z:PROC
; Function compile flags: /Ogtpy
;	COMDAT ??4CvString@@QAEAAV0@PBD@Z
_TEXT	SEGMENT
_s$ = 8							; size = 4
??4CvString@@QAEAAV0@PBD@Z PROC				; CvString::operator=, COMDAT
; _this$ = ecx

; 37   : 	CvString& operator=( const char* s) { if (s) assign(s); else clear();	return *this; }	

	mov	eax, DWORD PTR _s$[esp-4]
	push	esi
	mov	esi, ecx
	test	eax, eax
	je	SHORT $LN2@operator
	push	eax
	call	DWORD PTR __imp_?assign@?$basic_string@DU?$char_traits@D@std@@V?$allocator@D@2@@std@@QAEAAV12@PBD@Z
	mov	eax, esi
	pop	esi
	ret	4
$LN2@operator:
	call	DWORD PTR __imp_?clear@?$basic_string@DU?$char_traits@D@std@@V?$allocator@D@2@@std@@QAEXXZ
	mov	eax, esi
	pop	esi
	ret	4
??4CvString@@QAEAAV0@PBD@Z ENDP				; CvString::operator=
_TEXT	ENDS
PUBLIC	??3ICvUnknown@@SGXPAX@Z				; ICvUnknown::operator delete
; Function compile flags: /Ogtpy
; File c:\users\enormousapplepie\desktop\lekmod files\lekmod dll versions\v29\lekmod_dll\cvgamecoredllutil\include\cvdllinterfaces.h
;	COMDAT ??3ICvUnknown@@SGXPAX@Z
_TEXT	SEGMENT
_p$ = 8							; size = 4
??3ICvUnknown@@SGXPAX@Z PROC				; ICvUnknown::operator delete, COMDAT

; 310  : 		if (p)

	mov	eax, DWORD PTR _p$[esp-4]
	test	eax, eax
	je	SHORT $LN1@operator@2

; 311  : 		{
; 312  : 			ICvUnknown* inst = (ICvUnknown*)(p);
; 313  : 			inst->Destroy();

	mov	ecx, DWORD PTR [eax]
	mov	edx, DWORD PTR [ecx+4]
	mov	DWORD PTR _p$[esp-4], eax
	jmp	edx
$LN1@operator@2:

; 314  : 		}
; 315  : 	}

	ret	4
??3ICvUnknown@@SGXPAX@Z ENDP				; ICvUnknown::operator delete
_TEXT	ENDS
PUBLIC	?getGame@CvGlobals@@QAEAAVCvGame@@XZ		; CvGlobals::getGame
; Function compile flags: /Ogtpy
; File c:\users\enormousapplepie\desktop\lekmod files\lekmod dll versions\v29\lekmod_dll\cvgamecoredll_expansion2\cvglobals.h
;	COMDAT ?getGame@CvGlobals@@QAEAAVCvGame@@XZ
_TEXT	SEGMENT
?getGame@CvGlobals@@QAEAAVCvGame@@XZ PROC		; CvGlobals::getGame, COMDAT
; _this$ = ecx

; 183  : 		return *m_game;    // inlined for perf reasons, do not use outside of dll

	mov	eax, DWORD PTR [ecx+48]

; 184  : 	}

	ret	0
?getGame@CvGlobals@@QAEAAVCvGame@@XZ ENDP		; CvGlobals::getGame
_TEXT	ENDS
PUBLIC	?getDLLIFace@CvGlobals@@QAEPAVICvEngineUtility4@@XZ ; CvGlobals::getDLLIFace
; Function compile flags: /Ogtpy
;	COMDAT ?getDLLIFace@CvGlobals@@QAEPAVICvEngineUtility4@@XZ
_TEXT	SEGMENT
?getDLLIFace@CvGlobals@@QAEPAVICvEngineUtility4@@XZ PROC ; CvGlobals::getDLLIFace, COMDAT
; _this$ = ecx

; 7703 : 		return m_pDLL;

	mov	eax, DWORD PTR [ecx+8564]

; 7704 : 	}

	ret	0
?getDLLIFace@CvGlobals@@QAEPAVICvEngineUtility4@@XZ ENDP ; CvGlobals::getDLLIFace
_TEXT	ENDS
PUBLIC	?GetEngineUserInterface@CvGlobals@@QAEPAVICvUserInterface2@@XZ ; CvGlobals::GetEngineUserInterface
; Function compile flags: /Ogtpy
;	COMDAT ?GetEngineUserInterface@CvGlobals@@QAEPAVICvUserInterface2@@XZ
_TEXT	SEGMENT
?GetEngineUserInterface@CvGlobals@@QAEPAVICvUserInterface2@@XZ PROC ; CvGlobals::GetEngineUserInterface, COMDAT
; _this$ = ecx

; 7713 : 		return m_pEngineUI;

	mov	eax, DWORD PTR [ecx+8568]

; 7714 : 	}

	ret	0
?GetEngineUserInterface@CvGlobals@@QAEPAVICvUserInterface2@@XZ ENDP ; CvGlobals::GetEngineUserInterface
_TEXT	ENDS
PUBLIC	?getPlayer@CvPlayerAI@@SAAAV1@W4PlayerTypes@@@Z	; CvPlayerAI::getPlayer
EXTRN	?m_aPlayers@CvPlayerAI@@1PAV1@A:DWORD		; CvPlayerAI::m_aPlayers
; Function compile flags: /Ogtpy
; File c:\users\enormousapplepie\desktop\lekmod files\lekmod dll versions\v29\lekmod_dll\cvgamecoredll_expansion2\cvplayerai.h
;	COMDAT ?getPlayer@CvPlayerAI@@SAAAV1@W4PlayerTypes@@@Z
_TEXT	SEGMENT
_ePlayer$ = 8						; size = 4
?getPlayer@CvPlayerAI@@SAAAV1@W4PlayerTypes@@@Z PROC	; CvPlayerAI::getPlayer, COMDAT

; 28   : 		CvAssertMsg(ePlayer != NO_PLAYER, "Player is not assigned a valid value");
; 29   : 		CvAssertMsg(ePlayer < MAX_PLAYERS, "Player is not assigned a valid value");
; 30   : 		return m_aPlayers[ePlayer];

	mov	eax, DWORD PTR _ePlayer$[esp-4]
	imul	eax, 63236				; 0000f704H
	add	eax, DWORD PTR ?m_aPlayers@CvPlayerAI@@1PAV1@A ; CvPlayerAI::m_aPlayers

; 31   : 	}

	ret	0
?getPlayer@CvPlayerAI@@SAAAV1@W4PlayerTypes@@@Z ENDP	; CvPlayerAI::getPlayer
_TEXT	ENDS
PUBLIC	??0CvString@@QAE@ABV0@@Z			; CvString::CvString
; Function compile flags: /Ogtpy
;	COMDAT ??0CvString@@QAE@ABV0@@Z
_TEXT	SEGMENT
___that$ = 8						; size = 4
??0CvString@@QAE@ABV0@@Z PROC				; CvString::CvString, COMDAT
; _this$ = ecx
	mov	eax, DWORD PTR ___that$[esp-4]
	push	esi
	push	eax
	mov	esi, ecx
	call	DWORD PTR __imp_??0?$basic_string@DU?$char_traits@D@std@@V?$allocator@D@2@@std@@QAE@ABV01@@Z
	mov	eax, esi
	pop	esi
	ret	4
??0CvString@@QAE@ABV0@@Z ENDP				; CvString::CvString
_TEXT	ENDS
PUBLIC	??$?6H@FDataStream@@QAEAAV0@ABH@Z		; FDataStream::operator<<<int>
EXTRN	?Write@FDataStream@@IAEXABH@Z:PROC		; FDataStream::Write
; Function compile flags: /Ogtpy
; File c:\users\enormousapplepie\desktop\lekmod files\lekmod dll versions\v29\lekmod_dll\fireplace\include\fireworks\fdatastream.h
;	COMDAT ??$?6H@FDataStream@@QAEAAV0@ABH@Z
_TEXT	SEGMENT
_kData$ = 8						; size = 4
??$?6H@FDataStream@@QAEAAV0@ABH@Z PROC			; FDataStream::operator<<<int>, COMDAT
; _this$ = ecx

; 246  : 	// If the compiler produces an error here complaining about 
; 247  : 	// YouMustImplementASerializeOperatorForThisTypeError then
; 248  : 	// it could not find a specialization for the type supplied
; 249  : 	// in scope. If a specialization exists, be sure to include
; 250  : 	// the header (FStlContainerSerialization.h, for example), 
; 251  : 	// if not, implement :
; 252  : 	// FDataStream & operator<<(FDataStream &, YourCustomType &)
; 253  : 	Write( kData );

	mov	eax, DWORD PTR _kData$[esp-4]
	push	esi
	push	eax
	mov	esi, ecx
	call	?Write@FDataStream@@IAEXABH@Z		; FDataStream::Write

; 254  : 	return ( *this );

	mov	eax, esi
	pop	esi

; 255  : }

	ret	4
??$?6H@FDataStream@@QAEAAV0@ABH@Z ENDP			; FDataStream::operator<<<int>
_TEXT	ENDS
PUBLIC	??$?5H@FDataStream@@QAEAAV0@AAH@Z		; FDataStream::operator>><int>
EXTRN	?Read@FDataStream@@IAEXAAH@Z:PROC		; FDataStream::Read
; Function compile flags: /Ogtpy
;	COMDAT ??$?5H@FDataStream@@QAEAAV0@AAH@Z
_TEXT	SEGMENT
_kData$ = 8						; size = 4
??$?5H@FDataStream@@QAEAAV0@AAH@Z PROC			; FDataStream::operator>><int>, COMDAT
; _this$ = ecx

; 260  : 	// If the compiler produces an error here complaining about 
; 261  : 	// YouMustImplementASerializeOperatorForThisTypeError then
; 262  : 	// it could not find a specialization for the type supplied
; 263  : 	// in scope. If a specialization exists, be sure to include
; 264  : 	// the header (FStlContainerSerialization.h, for example), 
; 265  : 	// if not, implement :
; 266  : 	// FDataStream & operator>>(FDataStream &, YourCustomType &)
; 267  : 	Read( kData );

	mov	eax, DWORD PTR _kData$[esp-4]
	push	esi
	push	eax
	mov	esi, ecx
	call	?Read@FDataStream@@IAEXAAH@Z		; FDataStream::Read

; 268  : 	return ( *this );

	mov	eax, esi
	pop	esi

; 269  : }

	ret	4
??$?5H@FDataStream@@QAEAAV0@AAH@Z ENDP			; FDataStream::operator>><int>
_TEXT	ENDS
PUBLIC	??B?$FAutoVariable@_NVCvPlayer@@@@QBEAB_NXZ	; FAutoVariable<bool,CvPlayer>::operator bool const &
; Function compile flags: /Ogtpy
; File c:\users\enormousapplepie\desktop\lekmod files\lekmod dll versions\v29\lekmod_dll\fireplace\include\fireworks\fautovariable.h
;	COMDAT ??B?$FAutoVariable@_NVCvPlayer@@@@QBEAB_NXZ
_TEXT	SEGMENT
??B?$FAutoVariable@_NVCvPlayer@@@@QBEAB_NXZ PROC	; FAutoVariable<bool,CvPlayer>::operator bool const &, COMDAT
; _this$ = ecx

; 194  : 	return m_value;

	lea	eax, DWORD PTR [ecx+4]

; 195  : }

	ret	0
??B?$FAutoVariable@_NVCvPlayer@@@@QBEAB_NXZ ENDP	; FAutoVariable<bool,CvPlayer>::operator bool const &
_TEXT	ENDS
EXTRN	__imp_??0exception@std@@QAE@ABV01@@Z:PROC
; Function compile flags: /Ogtpy
;	COMDAT ??0bad_alloc@std@@QAE@ABV01@@Z
_TEXT	SEGMENT
___that$ = 8						; size = 4
??0bad_alloc@std@@QAE@ABV01@@Z PROC			; std::bad_alloc::bad_alloc, COMDAT
; _this$ = ecx
	mov	eax, DWORD PTR ___that$[esp-4]
	push	esi
	push	eax
	mov	esi, ecx
	call	DWORD PTR __imp_??0exception@std@@QAE@ABV01@@Z
	mov	DWORD PTR [esi], OFFSET ??_7bad_alloc@std@@6B@
	mov	eax, esi
	pop	esi
	ret	4
??0bad_alloc@std@@QAE@ABV01@@Z ENDP			; std::bad_alloc::bad_alloc
_TEXT	ENDS
PUBLIC	??$?5VCvString@@@FDataStream@@QAEAAV0@AAVCvString@@@Z ; FDataStream::operator>><CvString>
EXTRN	?Read@FDataStream@@IAEXAAV?$basic_string@DU?$char_traits@D@std@@V?$allocator@D@2@@std@@@Z:PROC ; FDataStream::Read
; Function compile flags: /Ogtpy
; File c:\users\enormousapplepie\desktop\lekmod files\lekmod dll versions\v29\lekmod_dll\fireplace\include\fireworks\fdatastream.h
;	COMDAT ??$?5VCvString@@@FDataStream@@QAEAAV0@AAVCvString@@@Z
_TEXT	SEGMENT
_kData$ = 8						; size = 4
??$?5VCvString@@@FDataStream@@QAEAAV0@AAVCvString@@@Z PROC ; FDataStream::operator>><CvString>, COMDAT
; _this$ = ecx

; 260  : 	// If the compiler produces an error here complaining about 
; 261  : 	// YouMustImplementASerializeOperatorForThisTypeError then
; 262  : 	// it could not find a specialization for the type supplied
; 263  : 	// in scope. If a specialization exists, be sure to include
; 264  : 	// the header (FStlContainerSerialization.h, for example), 
; 265  : 	// if not, implement :
; 266  : 	// FDataStream & operator>>(FDataStream &, YourCustomType &)
; 267  : 	Read( kData );

	mov	eax, DWORD PTR _kData$[esp-4]
	push	esi
	push	eax
	mov	esi, ecx
	call	?Read@FDataStream@@IAEXAAV?$basic_string@DU?$char_traits@D@std@@V?$allocator@D@2@@std@@@Z ; FDataStream::Read

; 268  : 	return ( *this );

	mov	eax, esi
	pop	esi

; 269  : }

	ret	4
??$?5VCvString@@@FDataStream@@QAEAAV0@AAVCvString@@@Z ENDP ; FDataStream::operator>><CvString>
_TEXT	ENDS
PUBLIC	??$?6VCvString@@@FDataStream@@QAEAAV0@ABVCvString@@@Z ; FDataStream::operator<<<CvString>
EXTRN	?Write@FDataStream@@IAEXABV?$basic_string@DU?$char_traits@D@std@@V?$allocator@D@2@@std@@@Z:PROC ; FDataStream::Write
; Function compile flags: /Ogtpy
;	COMDAT ??$?6VCvString@@@FDataStream@@QAEAAV0@ABVCvString@@@Z
_TEXT	SEGMENT
_kData$ = 8						; size = 4
??$?6VCvString@@@FDataStream@@QAEAAV0@ABVCvString@@@Z PROC ; FDataStream::operator<<<CvString>, COMDAT
; _this$ = ecx

; 246  : 	// If the compiler produces an error here complaining about 
; 247  : 	// YouMustImplementASerializeOperatorForThisTypeError then
; 248  : 	// it could not find a specialization for the type supplied
; 249  : 	// in scope. If a specialization exists, be sure to include
; 250  : 	// the header (FStlContainerSerialization.h, for example), 
; 251  : 	// if not, implement :
; 252  : 	// FDataStream & operator<<(FDataStream &, YourCustomType &)
; 253  : 	Write( kData );

	mov	eax, DWORD PTR _kData$[esp-4]
	push	esi
	push	eax
	mov	esi, ecx
	call	?Write@FDataStream@@IAEXABV?$basic_string@DU?$char_traits@D@std@@V?$allocator@D@2@@std@@@Z ; FDataStream::Write

; 254  : 	return ( *this );

	mov	eax, esi
	pop	esi

; 255  : }

	ret	4
??$?6VCvString@@@FDataStream@@QAEAAV0@ABVCvString@@@Z ENDP ; FDataStream::operator<<<CvString>
_TEXT	ENDS
PUBLIC	??$?5I@FDataStream@@QAEAAV0@AAI@Z		; FDataStream::operator>><unsigned int>
EXTRN	?Read@FDataStream@@IAEXAAI@Z:PROC		; FDataStream::Read
; Function compile flags: /Ogtpy
;	COMDAT ??$?5I@FDataStream@@QAEAAV0@AAI@Z
_TEXT	SEGMENT
_kData$ = 8						; size = 4
??$?5I@FDataStream@@QAEAAV0@AAI@Z PROC			; FDataStream::operator>><unsigned int>, COMDAT
; _this$ = ecx

; 260  : 	// If the compiler produces an error here complaining about 
; 261  : 	// YouMustImplementASerializeOperatorForThisTypeError then
; 262  : 	// it could not find a specialization for the type supplied
; 263  : 	// in scope. If a specialization exists, be sure to include
; 264  : 	// the header (FStlContainerSerialization.h, for example), 
; 265  : 	// if not, implement :
; 266  : 	// FDataStream & operator>>(FDataStream &, YourCustomType &)
; 267  : 	Read( kData );

	mov	eax, DWORD PTR _kData$[esp-4]
	push	esi
	push	eax
	mov	esi, ecx
	call	?Read@FDataStream@@IAEXAAI@Z		; FDataStream::Read

; 268  : 	return ( *this );

	mov	eax, esi
	pop	esi

; 269  : }

	ret	4
??$?5I@FDataStream@@QAEAAV0@AAI@Z ENDP			; FDataStream::operator>><unsigned int>
_TEXT	ENDS
PUBLIC	??$?6I@FDataStream@@QAEAAV0@ABI@Z		; FDataStream::operator<<<unsigned int>
EXTRN	?Write@FDataStream@@IAEXABI@Z:PROC		; FDataStream::Write
; Function compile flags: /Ogtpy
;	COMDAT ??$?6I@FDataStream@@QAEAAV0@ABI@Z
_TEXT	SEGMENT
_kData$ = 8						; size = 4
??$?6I@FDataStream@@QAEAAV0@ABI@Z PROC			; FDataStream::operator<<<unsigned int>, COMDAT
; _this$ = ecx

; 246  : 	// If the compiler produces an error here complaining about 
; 247  : 	// YouMustImplementASerializeOperatorForThisTypeError then
; 248  : 	// it could not find a specialization for the type supplied
; 249  : 	// in scope. If a specialization exists, be sure to include
; 250  : 	// the header (FStlContainerSerialization.h, for example), 
; 251  : 	// if not, implement :
; 252  : 	// FDataStream & operator<<(FDataStream &, YourCustomType &)
; 253  : 	Write( kData );

	mov	eax, DWORD PTR _kData$[esp-4]
	push	esi
	push	eax
	mov	esi, ecx
	call	?Write@FDataStream@@IAEXABI@Z		; FDataStream::Write

; 254  : 	return ( *this );

	mov	eax, esi
	pop	esi

; 255  : }

	ret	4
??$?6I@FDataStream@@QAEAAV0@ABI@Z ENDP			; FDataStream::operator<<<unsigned int>
_TEXT	ENDS
PUBLIC	??5@YAAAVFDataStream@@AAV0@AAURequest@CvDiplomacyRequests@@@Z ; operator>>
EXTRN	??5@YAAAVFDataStream@@AAV0@AAW4PlayerTypes@@@Z:PROC ; operator>>
EXTRN	??5@YAAAVFDataStream@@AAV0@AAW4LeaderheadAnimationTypes@@@Z:PROC ; operator>>
EXTRN	??5@YAAAVFDataStream@@AAV0@AAW4DiploUIStateTypes@@@Z:PROC ; operator>>
; Function compile flags: /Ogtpy
; File c:\users\enormousapplepie\desktop\lekmod files\lekmod dll versions\v29\lekmod_dll\cvgamecoredll_expansion2\cvdiplomacyrequests.cpp
;	COMDAT ??5@YAAAVFDataStream@@AAV0@AAURequest@CvDiplomacyRequests@@@Z
_TEXT	SEGMENT
_loadFrom$ = 8						; size = 4
_writeTo$ = 12						; size = 4
??5@YAAAVFDataStream@@AAV0@AAURequest@CvDiplomacyRequests@@@Z PROC ; operator>>, COMDAT

; 22   : {

	push	esi

; 23   : 	loadFrom >> writeTo.m_eDiploType;

	mov	esi, DWORD PTR _loadFrom$[esp]
	push	edi
	mov	edi, DWORD PTR _writeTo$[esp+4]
	push	edi
	push	esi
	call	??5@YAAAVFDataStream@@AAV0@AAW4DiploUIStateTypes@@@Z ; operator>>

; 24   : 	loadFrom >> writeTo.m_eAnimationType;

	lea	eax, DWORD PTR [edi+36]
	push	eax
	push	esi
	call	??5@YAAAVFDataStream@@AAV0@AAW4LeaderheadAnimationTypes@@@Z ; operator>>
	add	esp, 16					; 00000010H

; 25   : 	loadFrom >> writeTo.m_strMessage;

	lea	ecx, DWORD PTR [edi+8]
	push	ecx
	mov	ecx, esi
	call	?Read@FDataStream@@IAEXAAV?$basic_string@DU?$char_traits@D@std@@V?$allocator@D@2@@std@@@Z ; FDataStream::Read

; 26   : 	loadFrom >> writeTo.m_iExtraGameData;

	lea	edx, DWORD PTR [edi+48]
	push	edx
	mov	ecx, esi
	call	?Read@FDataStream@@IAEXAAH@Z		; FDataStream::Read

; 27   : 	loadFrom >> writeTo.m_iTurn;

	lea	eax, DWORD PTR [edi+40]
	push	eax
	mov	ecx, esi
	call	?Read@FDataStream@@IAEXAAH@Z		; FDataStream::Read

; 28   : 	loadFrom >> writeTo.m_iLookupIndex;

	lea	ecx, DWORD PTR [edi+44]
	push	ecx
	mov	ecx, esi
	call	?Read@FDataStream@@IAEXAAH@Z		; FDataStream::Read

; 29   : 	loadFrom >> writeTo.m_eFromPlayer;

	add	edi, 4
	push	edi
	push	esi
	call	??5@YAAAVFDataStream@@AAV0@AAW4PlayerTypes@@@Z ; operator>>
	add	esp, 8
	pop	edi

; 30   : 
; 31   : 	return loadFrom;

	mov	eax, esi
	pop	esi

; 32   : }

	ret	0
??5@YAAAVFDataStream@@AAV0@AAURequest@CvDiplomacyRequests@@@Z ENDP ; operator>>
_TEXT	ENDS
PUBLIC	??6@YAAAVFDataStream@@AAV0@ABURequest@CvDiplomacyRequests@@@Z ; operator<<
EXTRN	??6@YAAAVFDataStream@@AAV0@ABW4PlayerTypes@@@Z:PROC ; operator<<
EXTRN	??6@YAAAVFDataStream@@AAV0@ABW4LeaderheadAnimationTypes@@@Z:PROC ; operator<<
EXTRN	??6@YAAAVFDataStream@@AAV0@ABW4DiploUIStateTypes@@@Z:PROC ; operator<<
; Function compile flags: /Ogtpy
;	COMDAT ??6@YAAAVFDataStream@@AAV0@ABURequest@CvDiplomacyRequests@@@Z
_TEXT	SEGMENT
_saveTo$ = 8						; size = 4
_readFrom$ = 12						; size = 4
??6@YAAAVFDataStream@@AAV0@ABURequest@CvDiplomacyRequests@@@Z PROC ; operator<<, COMDAT

; 36   : {

	push	esi

; 37   : 	saveTo << readFrom.m_eDiploType;

	mov	esi, DWORD PTR _saveTo$[esp]
	push	edi
	mov	edi, DWORD PTR _readFrom$[esp+4]
	push	edi
	push	esi
	call	??6@YAAAVFDataStream@@AAV0@ABW4DiploUIStateTypes@@@Z ; operator<<

; 38   : 	saveTo << readFrom.m_eAnimationType;

	lea	eax, DWORD PTR [edi+36]
	push	eax
	push	esi
	call	??6@YAAAVFDataStream@@AAV0@ABW4LeaderheadAnimationTypes@@@Z ; operator<<
	add	esp, 16					; 00000010H

; 39   : 	saveTo << readFrom.m_strMessage;

	lea	ecx, DWORD PTR [edi+8]
	push	ecx
	mov	ecx, esi
	call	?Write@FDataStream@@IAEXABV?$basic_string@DU?$char_traits@D@std@@V?$allocator@D@2@@std@@@Z ; FDataStream::Write

; 40   : 	saveTo << readFrom.m_iExtraGameData;

	lea	edx, DWORD PTR [edi+48]
	push	edx
	mov	ecx, esi
	call	?Write@FDataStream@@IAEXABH@Z		; FDataStream::Write

; 41   : 	saveTo << readFrom.m_iTurn;

	lea	eax, DWORD PTR [edi+40]
	push	eax
	mov	ecx, esi
	call	?Write@FDataStream@@IAEXABH@Z		; FDataStream::Write

; 42   : 	saveTo << readFrom.m_iLookupIndex;

	lea	ecx, DWORD PTR [edi+44]
	push	ecx
	mov	ecx, esi
	call	?Write@FDataStream@@IAEXABH@Z		; FDataStream::Write

; 43   : 	saveTo << readFrom.m_eFromPlayer;

	add	edi, 4
	push	edi
	push	esi
	call	??6@YAAAVFDataStream@@AAV0@ABW4PlayerTypes@@@Z ; operator<<
	add	esp, 8
	pop	edi

; 44   : 
; 45   : 	return saveTo;

	mov	eax, esi
	pop	esi

; 46   : }

	ret	0
??6@YAAAVFDataStream@@AAV0@ABURequest@CvDiplomacyRequests@@@Z ENDP ; operator<<
_TEXT	ENDS
PUBLIC	?Clear@Request@CvDiplomacyRequests@@QAEXXZ	; CvDiplomacyRequests::Request::Clear
; Function compile flags: /Ogtpy
;	COMDAT ?Clear@Request@CvDiplomacyRequests@@QAEXXZ
_TEXT	SEGMENT
?Clear@Request@CvDiplomacyRequests@@QAEXXZ PROC		; CvDiplomacyRequests::Request::Clear, COMDAT
; _this$ = ecx

; 49   : {

	push	esi
	mov	esi, ecx
	push	edi

; 50   : 	m_eDiploType = NO_DIPLO_UI_STATE;

	or	edi, -1

; 51   : 	m_eAnimationType = NO_LEADERHEAD_ANIM;
; 52   : 	m_eFromPlayer = NO_PLAYER;
; 53   : 	m_strMessage = "";

	push	OFFSET $SG221251
	lea	ecx, DWORD PTR [esi+8]
	mov	DWORD PTR [esi], edi
	mov	DWORD PTR [esi+36], edi
	mov	DWORD PTR [esi+4], edi
	call	DWORD PTR __imp_?assign@?$basic_string@DU?$char_traits@D@std@@V?$allocator@D@2@@std@@QAEAAV12@PBD@Z

; 54   : 	m_iTurn = -1;

	mov	DWORD PTR [esi+40], edi

; 55   : 	m_iLookupIndex = -1;

	mov	DWORD PTR [esi+44], edi
	pop	edi
	pop	esi

; 56   : }

	ret	0
?Clear@Request@CvDiplomacyRequests@@QAEXXZ ENDP		; CvDiplomacyRequests::Request::Clear
_TEXT	ENDS
PUBLIC	??0Request@CvDiplomacyRequests@@QAE@XZ		; CvDiplomacyRequests::Request::Request
; Function compile flags: /Ogtpy
;	COMDAT ??0Request@CvDiplomacyRequests@@QAE@XZ
_TEXT	SEGMENT
??0Request@CvDiplomacyRequests@@QAE@XZ PROC		; CvDiplomacyRequests::Request::Request, COMDAT
; _this$ = ecx
	push	esi
	mov	esi, ecx
	lea	ecx, DWORD PTR [esi+8]
	call	DWORD PTR __imp_??0?$basic_string@DU?$char_traits@D@std@@V?$allocator@D@2@@std@@QAE@XZ
	mov	eax, esi
	pop	esi
	ret	0
??0Request@CvDiplomacyRequests@@QAE@XZ ENDP		; CvDiplomacyRequests::Request::Request
_TEXT	ENDS
PUBLIC	??1Request@CvDiplomacyRequests@@QAE@XZ		; CvDiplomacyRequests::Request::~Request
; Function compile flags: /Ogtpy
;	COMDAT ??1Request@CvDiplomacyRequests@@QAE@XZ
_TEXT	SEGMENT
??1Request@CvDiplomacyRequests@@QAE@XZ PROC		; CvDiplomacyRequests::Request::~Request, COMDAT
; _this$ = ecx
	add	ecx, 8
	jmp	DWORD PTR __imp_??1?$basic_string@DU?$char_traits@D@std@@V?$allocator@D@2@@std@@QAE@XZ
??1Request@CvDiplomacyRequests@@QAE@XZ ENDP		; CvDiplomacyRequests::Request::~Request
_TEXT	ENDS
PUBLIC	?Send@CvDiplomacyRequests@@IAEXW4PlayerTypes@@W4DiploUIStateTypes@@PBDW4LeaderheadAnimationTypes@@H@Z ; CvDiplomacyRequests::Send
EXTRN	?gGlobals@@3VCvGlobals@@A:BYTE			; gGlobals
; Function compile flags: /Ogtpy
;	COMDAT ?Send@CvDiplomacyRequests@@IAEXW4PlayerTypes@@W4DiploUIStateTypes@@PBDW4LeaderheadAnimationTypes@@H@Z
_TEXT	SEGMENT
_eFromPlayer$ = 8					; size = 4
_eDiploType$ = 12					; size = 4
_pszMessage$ = 16					; size = 4
_eAnimationType$ = 20					; size = 4
_iExtraGameData$ = 24					; size = 4
?Send@CvDiplomacyRequests@@IAEXW4PlayerTypes@@W4DiploUIStateTypes@@PBDW4LeaderheadAnimationTypes@@H@Z PROC ; CvDiplomacyRequests::Send, COMDAT
; _this$ = ecx

; 184  : 	gDLL->GameplayDiplomacyAILeaderMessage(eFromPlayer, eDiploType, pszMessage, eAnimationType, iExtraGameData);

	mov	edx, DWORD PTR _iExtraGameData$[esp-4]
	push	esi
	push	edi
	mov	edi, DWORD PTR _eFromPlayer$[esp+4]
	push	edx
	mov	edx, DWORD PTR _eAnimationType$[esp+8]
	push	edx
	mov	edx, DWORD PTR _pszMessage$[esp+12]
	push	edx
	mov	edx, DWORD PTR _eDiploType$[esp+16]
	mov	esi, ecx
	mov	ecx, DWORD PTR ?gGlobals@@3VCvGlobals@@A+8564
	mov	eax, DWORD PTR [ecx]
	mov	eax, DWORD PTR [eax+736]
	push	edx
	push	edi
	call	eax

; 185  : 	m_bRequestActiveFromPlayer = eFromPlayer;

	mov	DWORD PTR [esi+20], edi
	pop	edi

; 186  : 	m_bRequestActive = true;

	mov	BYTE PTR [esi+24], 1
	pop	esi

; 187  : }

	ret	20					; 00000014H
?Send@CvDiplomacyRequests@@IAEXW4PlayerTypes@@W4DiploUIStateTypes@@PBDW4LeaderheadAnimationTypes@@H@Z ENDP ; CvDiplomacyRequests::Send
_TEXT	ENDS
PUBLIC	?HasPendingRequests@CvDiplomacyRequests@@QBE_NXZ ; CvDiplomacyRequests::HasPendingRequests
; Function compile flags: /Ogtpy
;	COMDAT ?HasPendingRequests@CvDiplomacyRequests@@QBE_NXZ
_TEXT	SEGMENT
?HasPendingRequests@CvDiplomacyRequests@@QBE_NXZ PROC	; CvDiplomacyRequests::HasPendingRequests, COMDAT
; _this$ = ecx

; 203  : 	return !m_aRequests.empty() || m_bRequestActive;

	cmp	DWORD PTR [ecx+16], 0
	jne	SHORT $LN3@HasPending
	cmp	BYTE PTR [ecx+24], 0
	jne	SHORT $LN3@HasPending
	xor	eax, eax

; 204  : }

	ret	0
$LN3@HasPending:

; 203  : 	return !m_aRequests.empty() || m_bRequestActive;

	mov	eax, 1

; 204  : }

	ret	0
?HasPendingRequests@CvDiplomacyRequests@@QBE_NXZ ENDP	; CvDiplomacyRequests::HasPendingRequests
_TEXT	ENDS
PUBLIC	?begin@?$list@URequest@CvDiplomacyRequests@@V?$allocator@URequest@CvDiplomacyRequests@@@std@@@std@@QBE?AV?$_Const_iterator@$0A@@12@XZ ; std::list<CvDiplomacyRequests::Request,std::allocator<CvDiplomacyRequests::Request> >::begin
; Function compile flags: /Ogtpy
; File c:\program files (x86)\microsoft visual studio 9.0\vc\include\list
;	COMDAT ?begin@?$list@URequest@CvDiplomacyRequests@@V?$allocator@URequest@CvDiplomacyRequests@@@std@@@std@@QBE?AV?$_Const_iterator@$0A@@12@XZ
_TEXT	SEGMENT
___$ReturnUdt$ = 8					; size = 4
?begin@?$list@URequest@CvDiplomacyRequests@@V?$allocator@URequest@CvDiplomacyRequests@@@std@@@std@@QBE?AV?$_Const_iterator@$0A@@12@XZ PROC ; std::list<CvDiplomacyRequests::Request,std::allocator<CvDiplomacyRequests::Request> >::begin, COMDAT
; _this$ = ecx

; 565  : 		return (const_iterator(_Nextnode(_Myhead)));

	mov	eax, DWORD PTR [ecx+4]
	mov	ecx, DWORD PTR [eax]
	mov	eax, DWORD PTR ___$ReturnUdt$[esp-4]
	mov	DWORD PTR [eax], ecx

; 566  : 		}

	ret	4
?begin@?$list@URequest@CvDiplomacyRequests@@V?$allocator@URequest@CvDiplomacyRequests@@@std@@@std@@QBE?AV?$_Const_iterator@$0A@@12@XZ ENDP ; std::list<CvDiplomacyRequests::Request,std::allocator<CvDiplomacyRequests::Request> >::begin
_TEXT	ENDS
PUBLIC	?end@?$list@URequest@CvDiplomacyRequests@@V?$allocator@URequest@CvDiplomacyRequests@@@std@@@std@@QBE?AV?$_Const_iterator@$0A@@12@XZ ; std::list<CvDiplomacyRequests::Request,std::allocator<CvDiplomacyRequests::Request> >::end
; Function compile flags: /Ogtpy
;	COMDAT ?end@?$list@URequest@CvDiplomacyRequests@@V?$allocator@URequest@CvDiplomacyRequests@@@std@@@std@@QBE?AV?$_Const_iterator@$0A@@12@XZ
_TEXT	SEGMENT
___$ReturnUdt$ = 8					; size = 4
?end@?$list@URequest@CvDiplomacyRequests@@V?$allocator@URequest@CvDiplomacyRequests@@@std@@@std@@QBE?AV?$_Const_iterator@$0A@@12@XZ PROC ; std::list<CvDiplomacyRequests::Request,std::allocator<CvDiplomacyRequests::Request> >::end, COMDAT
; _this$ = ecx

; 575  : 		return (const_iterator(_Myhead));

	mov	ecx, DWORD PTR [ecx+4]
	mov	eax, DWORD PTR ___$ReturnUdt$[esp-4]
	mov	DWORD PTR [eax], ecx

; 576  : 		}

	ret	4
?end@?$list@URequest@CvDiplomacyRequests@@V?$allocator@URequest@CvDiplomacyRequests@@@std@@@std@@QBE?AV?$_Const_iterator@$0A@@12@XZ ENDP ; std::list<CvDiplomacyRequests::Request,std::allocator<CvDiplomacyRequests::Request> >::end
_TEXT	ENDS
PUBLIC	??D?$_Const_iterator@$0A@@?$list@URequest@CvDiplomacyRequests@@V?$allocator@URequest@CvDiplomacyRequests@@@std@@@std@@QBEABURequest@CvDiplomacyRequests@@XZ ; std::list<CvDiplomacyRequests::Request,std::allocator<CvDiplomacyRequests::Request> >::_Const_iterator<0>::operator*
; Function compile flags: /Ogtpy
;	COMDAT ??D?$_Const_iterator@$0A@@?$list@URequest@CvDiplomacyRequests@@V?$allocator@URequest@CvDiplomacyRequests@@@std@@@std@@QBEABURequest@CvDiplomacyRequests@@XZ
_TEXT	SEGMENT
??D?$_Const_iterator@$0A@@?$list@URequest@CvDiplomacyRequests@@V?$allocator@URequest@CvDiplomacyRequests@@@std@@@std@@QBEABURequest@CvDiplomacyRequests@@XZ PROC ; std::list<CvDiplomacyRequests::Request,std::allocator<CvDiplomacyRequests::Request> >::_Const_iterator<0>::operator*, COMDAT
; _this$ = ecx

; 212  : 
; 213  :  #if _HAS_ITERATOR_DEBUGGING
; 214  : 			if (this->_Mycont == 0
; 215  : 				|| _Ptr == 0
; 216  : 				|| _Ptr == ((_Myt *)this->_Mycont)->_Myhead)
; 217  : 				{
; 218  : 				_DEBUG_ERROR("list iterator not dereferencable");
; 219  : 				_SCL_SECURE_TRAITS_OUT_OF_RANGE;
; 220  : 				}
; 221  :  #else
; 222  : 			_SCL_SECURE_TRAITS_VALIDATE(this->_Has_container());
; 223  : 			_SCL_SECURE_TRAITS_VALIDATE_RANGE(_Ptr != ((_Myt *)(this->_Getmycont()))->_Myhead);
; 224  :  #endif /* _HAS_ITERATOR_DEBUGGING */
; 225  : 
; 226  : 			return (_Myval(_Ptr));

	mov	eax, DWORD PTR [ecx]
	add	eax, 8

; 227  : 			}

	ret	0
??D?$_Const_iterator@$0A@@?$list@URequest@CvDiplomacyRequests@@V?$allocator@URequest@CvDiplomacyRequests@@@std@@@std@@QBEABURequest@CvDiplomacyRequests@@XZ ENDP ; std::list<CvDiplomacyRequests::Request,std::allocator<CvDiplomacyRequests::Request> >::_Const_iterator<0>::operator*
_TEXT	ENDS
PUBLIC	??E?$_Const_iterator@$0A@@?$list@URequest@CvDiplomacyRequests@@V?$allocator@URequest@CvDiplomacyRequests@@@std@@@std@@QAEAAV012@XZ ; std::list<CvDiplomacyRequests::Request,std::allocator<CvDiplomacyRequests::Request> >::_Const_iterator<0>::operator++
; Function compile flags: /Ogtpy
;	COMDAT ??E?$_Const_iterator@$0A@@?$list@URequest@CvDiplomacyRequests@@V?$allocator@URequest@CvDiplomacyRequests@@@std@@@std@@QAEAAV012@XZ
_TEXT	SEGMENT
??E?$_Const_iterator@$0A@@?$list@URequest@CvDiplomacyRequests@@V?$allocator@URequest@CvDiplomacyRequests@@@std@@@std@@QAEAAV012@XZ PROC ; std::list<CvDiplomacyRequests::Request,std::allocator<CvDiplomacyRequests::Request> >::_Const_iterator<0>::operator++, COMDAT
; _this$ = ecx

; 235  : 			{	// preincrement

	mov	eax, ecx

; 236  : 
; 237  :  #if _HAS_ITERATOR_DEBUGGING
; 238  : 			if (this->_Mycont == 0
; 239  : 				|| _Ptr == 0
; 240  : 				|| _Ptr == ((_Myt *)this->_Mycont)->_Myhead)
; 241  : 				{
; 242  : 				_DEBUG_ERROR("list iterator not incrementable");
; 243  : 				_SCL_SECURE_TRAITS_OUT_OF_RANGE;
; 244  : 				}
; 245  :  #else
; 246  : 			_SCL_SECURE_TRAITS_VALIDATE(this->_Has_container());
; 247  : 			_SCL_SECURE_TRAITS_VALIDATE_RANGE(_Ptr != ((_Myt *)(this->_Getmycont()))->_Myhead);
; 248  :  #endif /* _HAS_ITERATOR_DEBUGGING */
; 249  : 
; 250  : 			_Ptr = _Nextnode(_Ptr);

	mov	ecx, DWORD PTR [eax]
	mov	edx, DWORD PTR [ecx]
	mov	DWORD PTR [eax], edx

; 251  : 			return (*this);
; 252  : 			}

	ret	0
??E?$_Const_iterator@$0A@@?$list@URequest@CvDiplomacyRequests@@V?$allocator@URequest@CvDiplomacyRequests@@@std@@@std@@QAEAAV012@XZ ENDP ; std::list<CvDiplomacyRequests::Request,std::allocator<CvDiplomacyRequests::Request> >::_Const_iterator<0>::operator++
_TEXT	ENDS
PUBLIC	??9?$_Const_iterator@$0A@@?$list@URequest@CvDiplomacyRequests@@V?$allocator@URequest@CvDiplomacyRequests@@@std@@@std@@QBE_NABV012@@Z ; std::list<CvDiplomacyRequests::Request,std::allocator<CvDiplomacyRequests::Request> >::_Const_iterator<0>::operator!=
; Function compile flags: /Ogtpy
;	COMDAT ??9?$_Const_iterator@$0A@@?$list@URequest@CvDiplomacyRequests@@V?$allocator@URequest@CvDiplomacyRequests@@@std@@@std@@QBE_NABV012@@Z
_TEXT	SEGMENT
__Right$ = 8						; size = 4
??9?$_Const_iterator@$0A@@?$list@URequest@CvDiplomacyRequests@@V?$allocator@URequest@CvDiplomacyRequests@@@std@@@std@@QBE_NABV012@@Z PROC ; std::list<CvDiplomacyRequests::Request,std::allocator<CvDiplomacyRequests::Request> >::_Const_iterator<0>::operator!=, COMDAT
; _this$ = ecx

; 303  : 			return (!(*this == _Right));

	mov	eax, DWORD PTR [ecx]
	mov	edx, DWORD PTR __Right$[esp-4]
	xor	ecx, ecx
	cmp	eax, DWORD PTR [edx]
	setne	cl
	mov	al, cl

; 304  : 			}

	ret	4
??9?$_Const_iterator@$0A@@?$list@URequest@CvDiplomacyRequests@@V?$allocator@URequest@CvDiplomacyRequests@@@std@@@std@@QBE_NABV012@@Z ENDP ; std::list<CvDiplomacyRequests::Request,std::allocator<CvDiplomacyRequests::Request> >::_Const_iterator<0>::operator!=
_TEXT	ENDS
PUBLIC	??1?$auto_ptr@VICvDeal1@@@std@@QAE@XZ		; std::auto_ptr<ICvDeal1>::~auto_ptr<ICvDeal1>
; Function compile flags: /Ogtpy
; File c:\program files (x86)\microsoft visual studio 9.0\vc\include\memory
;	COMDAT ??1?$auto_ptr@VICvDeal1@@@std@@QAE@XZ
_TEXT	SEGMENT
??1?$auto_ptr@VICvDeal1@@@std@@QAE@XZ PROC		; std::auto_ptr<ICvDeal1>::~auto_ptr<ICvDeal1>, COMDAT
; _this$ = ecx

; 721  : 		delete _Myptr;

	mov	eax, DWORD PTR [ecx]
	test	eax, eax
	je	SHORT $LN3@auto_ptr
	mov	ecx, DWORD PTR [eax]
	mov	edx, DWORD PTR [ecx+4]
	push	eax
	call	edx
$LN3@auto_ptr:

; 722  : 		}

	ret	0
??1?$auto_ptr@VICvDeal1@@@std@@QAE@XZ ENDP		; std::auto_ptr<ICvDeal1>::~auto_ptr<ICvDeal1>
_TEXT	ENDS
PUBLIC	??1?$_List_nod@URequest@CvDiplomacyRequests@@V?$allocator@URequest@CvDiplomacyRequests@@@std@@@std@@QAE@XZ ; std::_List_nod<CvDiplomacyRequests::Request,std::allocator<CvDiplomacyRequests::Request> >::~_List_nod<CvDiplomacyRequests::Request,std::allocator<CvDiplomacyRequests::Request> >
; Function compile flags: /Ogtpy
;	COMDAT ??1?$_List_nod@URequest@CvDiplomacyRequests@@V?$allocator@URequest@CvDiplomacyRequests@@@std@@@std@@QAE@XZ
_TEXT	SEGMENT
??1?$_List_nod@URequest@CvDiplomacyRequests@@V?$allocator@URequest@CvDiplomacyRequests@@@std@@@std@@QAE@XZ PROC ; std::_List_nod<CvDiplomacyRequests::Request,std::allocator<CvDiplomacyRequests::Request> >::~_List_nod<CvDiplomacyRequests::Request,std::allocator<CvDiplomacyRequests::Request> >, COMDAT
; _this$ = ecx
	ret	0
??1?$_List_nod@URequest@CvDiplomacyRequests@@V?$allocator@URequest@CvDiplomacyRequests@@@std@@@std@@QAE@XZ ENDP ; std::_List_nod<CvDiplomacyRequests::Request,std::allocator<CvDiplomacyRequests::Request> >::~_List_nod<CvDiplomacyRequests::Request,std::allocator<CvDiplomacyRequests::Request> >
_TEXT	ENDS
PUBLIC	?begin@?$list@URequest@CvDiplomacyRequests@@V?$allocator@URequest@CvDiplomacyRequests@@@std@@@std@@QAE?AV?$_Iterator@$0A@@12@XZ ; std::list<CvDiplomacyRequests::Request,std::allocator<CvDiplomacyRequests::Request> >::begin
; Function compile flags: /Ogtpy
; File c:\program files (x86)\microsoft visual studio 9.0\vc\include\list
;	COMDAT ?begin@?$list@URequest@CvDiplomacyRequests@@V?$allocator@URequest@CvDiplomacyRequests@@@std@@@std@@QAE?AV?$_Iterator@$0A@@12@XZ
_TEXT	SEGMENT
___$ReturnUdt$ = 8					; size = 4
?begin@?$list@URequest@CvDiplomacyRequests@@V?$allocator@URequest@CvDiplomacyRequests@@@std@@@std@@QAE?AV?$_Iterator@$0A@@12@XZ PROC ; std::list<CvDiplomacyRequests::Request,std::allocator<CvDiplomacyRequests::Request> >::begin, COMDAT
; _this$ = ecx

; 560  : 		return (iterator(_Nextnode(_Myhead)));

	mov	eax, DWORD PTR [ecx+4]
	mov	ecx, DWORD PTR [eax]
	mov	eax, DWORD PTR ___$ReturnUdt$[esp-4]
	mov	DWORD PTR [eax], ecx

; 561  : 		}

	ret	4
?begin@?$list@URequest@CvDiplomacyRequests@@V?$allocator@URequest@CvDiplomacyRequests@@@std@@@std@@QAE?AV?$_Iterator@$0A@@12@XZ ENDP ; std::list<CvDiplomacyRequests::Request,std::allocator<CvDiplomacyRequests::Request> >::begin
_TEXT	ENDS
PUBLIC	?end@?$list@URequest@CvDiplomacyRequests@@V?$allocator@URequest@CvDiplomacyRequests@@@std@@@std@@QAE?AV?$_Iterator@$0A@@12@XZ ; std::list<CvDiplomacyRequests::Request,std::allocator<CvDiplomacyRequests::Request> >::end
; Function compile flags: /Ogtpy
;	COMDAT ?end@?$list@URequest@CvDiplomacyRequests@@V?$allocator@URequest@CvDiplomacyRequests@@@std@@@std@@QAE?AV?$_Iterator@$0A@@12@XZ
_TEXT	SEGMENT
___$ReturnUdt$ = 8					; size = 4
?end@?$list@URequest@CvDiplomacyRequests@@V?$allocator@URequest@CvDiplomacyRequests@@@std@@@std@@QAE?AV?$_Iterator@$0A@@12@XZ PROC ; std::list<CvDiplomacyRequests::Request,std::allocator<CvDiplomacyRequests::Request> >::end, COMDAT
; _this$ = ecx

; 570  : 		return (iterator(_Myhead));

	mov	ecx, DWORD PTR [ecx+4]
	mov	eax, DWORD PTR ___$ReturnUdt$[esp-4]
	mov	DWORD PTR [eax], ecx

; 571  : 		}

	ret	4
?end@?$list@URequest@CvDiplomacyRequests@@V?$allocator@URequest@CvDiplomacyRequests@@@std@@@std@@QAE?AV?$_Iterator@$0A@@12@XZ ENDP ; std::list<CvDiplomacyRequests::Request,std::allocator<CvDiplomacyRequests::Request> >::end
_TEXT	ENDS
PUBLIC	??D?$_Iterator@$0A@@?$list@URequest@CvDiplomacyRequests@@V?$allocator@URequest@CvDiplomacyRequests@@@std@@@std@@QBEAAURequest@CvDiplomacyRequests@@XZ ; std::list<CvDiplomacyRequests::Request,std::allocator<CvDiplomacyRequests::Request> >::_Iterator<0>::operator*
; Function compile flags: /Ogtpy
;	COMDAT ??D?$_Iterator@$0A@@?$list@URequest@CvDiplomacyRequests@@V?$allocator@URequest@CvDiplomacyRequests@@@std@@@std@@QBEAAURequest@CvDiplomacyRequests@@XZ
_TEXT	SEGMENT
??D?$_Iterator@$0A@@?$list@URequest@CvDiplomacyRequests@@V?$allocator@URequest@CvDiplomacyRequests@@@std@@@std@@QBEAAURequest@CvDiplomacyRequests@@XZ PROC ; std::list<CvDiplomacyRequests::Request,std::allocator<CvDiplomacyRequests::Request> >::_Iterator<0>::operator*, COMDAT
; _this$ = ecx

; 394  : 			return ((reference)**(_Mybase_iter *)this);

	mov	eax, DWORD PTR [ecx]
	add	eax, 8

; 395  : 			}

	ret	0
??D?$_Iterator@$0A@@?$list@URequest@CvDiplomacyRequests@@V?$allocator@URequest@CvDiplomacyRequests@@@std@@@std@@QBEAAURequest@CvDiplomacyRequests@@XZ ENDP ; std::list<CvDiplomacyRequests::Request,std::allocator<CvDiplomacyRequests::Request> >::_Iterator<0>::operator*
_TEXT	ENDS
PUBLIC	??F?$_Iterator@$0A@@?$list@URequest@CvDiplomacyRequests@@V?$allocator@URequest@CvDiplomacyRequests@@@std@@@std@@QAEAAV012@XZ ; std::list<CvDiplomacyRequests::Request,std::allocator<CvDiplomacyRequests::Request> >::_Iterator<0>::operator--
; Function compile flags: /Ogtpy
;	COMDAT ??F?$_Iterator@$0A@@?$list@URequest@CvDiplomacyRequests@@V?$allocator@URequest@CvDiplomacyRequests@@@std@@@std@@QAEAAV012@XZ
_TEXT	SEGMENT
??F?$_Iterator@$0A@@?$list@URequest@CvDiplomacyRequests@@V?$allocator@URequest@CvDiplomacyRequests@@@std@@@std@@QAEAAV012@XZ PROC ; std::list<CvDiplomacyRequests::Request,std::allocator<CvDiplomacyRequests::Request> >::_Iterator<0>::operator--, COMDAT
; _this$ = ecx

; 416  : 			{	// predecrement

	mov	eax, ecx

; 417  : 			--(*(_Mybase_iter *)this);

	mov	ecx, DWORD PTR [eax]
	mov	edx, DWORD PTR [ecx+4]
	mov	DWORD PTR [eax], edx

; 418  : 			return (*this);
; 419  : 			}

	ret	0
??F?$_Iterator@$0A@@?$list@URequest@CvDiplomacyRequests@@V?$allocator@URequest@CvDiplomacyRequests@@@std@@@std@@QAEAAV012@XZ ENDP ; std::list<CvDiplomacyRequests::Request,std::allocator<CvDiplomacyRequests::Request> >::_Iterator<0>::operator--
_TEXT	ENDS
PUBLIC	?_Make_iter@?$list@URequest@CvDiplomacyRequests@@V?$allocator@URequest@CvDiplomacyRequests@@@std@@@std@@QBE?AV?$_Iterator@$0A@@12@V?$_Const_iterator@$0A@@12@@Z ; std::list<CvDiplomacyRequests::Request,std::allocator<CvDiplomacyRequests::Request> >::_Make_iter
; Function compile flags: /Ogtpy
;	COMDAT ?_Make_iter@?$list@URequest@CvDiplomacyRequests@@V?$allocator@URequest@CvDiplomacyRequests@@@std@@@std@@QBE?AV?$_Iterator@$0A@@12@V?$_Const_iterator@$0A@@12@@Z
_TEXT	SEGMENT
___$ReturnUdt$ = 8					; size = 4
__Where$ = 12						; size = 4
?_Make_iter@?$list@URequest@CvDiplomacyRequests@@V?$allocator@URequest@CvDiplomacyRequests@@@std@@@std@@QBE?AV?$_Iterator@$0A@@12@V?$_Const_iterator@$0A@@12@@Z PROC ; std::list<CvDiplomacyRequests::Request,std::allocator<CvDiplomacyRequests::Request> >::_Make_iter, COMDAT
; _this$ = ecx

; 580  : 		return (iterator(_Where._Ptr));

	mov	eax, DWORD PTR ___$ReturnUdt$[esp-4]
	mov	ecx, DWORD PTR __Where$[esp-4]
	mov	DWORD PTR [eax], ecx

; 581  : 		}

	ret	8
?_Make_iter@?$list@URequest@CvDiplomacyRequests@@V?$allocator@URequest@CvDiplomacyRequests@@@std@@@std@@QBE?AV?$_Iterator@$0A@@12@V?$_Const_iterator@$0A@@12@@Z ENDP ; std::list<CvDiplomacyRequests::Request,std::allocator<CvDiplomacyRequests::Request> >::_Make_iter
_TEXT	ENDS
PUBLIC	?allocate@?$allocator@U_Node@?$_List_nod@URequest@CvDiplomacyRequests@@V?$allocator@URequest@CvDiplomacyRequests@@@std@@@std@@@std@@QAEPAU_Node@?$_List_nod@URequest@CvDiplomacyRequests@@V?$allocator@URequest@CvDiplomacyRequests@@@std@@@2@I@Z ; std::allocator<std::_List_nod<CvDiplomacyRequests::Request,std::allocator<CvDiplomacyRequests::Request> >::_Node>::allocate
; Function compile flags: /Ogtpy
; File c:\program files (x86)\microsoft visual studio 9.0\vc\include\xmemory
;	COMDAT ?allocate@?$allocator@U_Node@?$_List_nod@URequest@CvDiplomacyRequests@@V?$allocator@URequest@CvDiplomacyRequests@@@std@@@std@@@std@@QAEPAU_Node@?$_List_nod@URequest@CvDiplomacyRequests@@V?$allocator@URequest@CvDiplomacyRequests@@@std@@@2@I@Z
_TEXT	SEGMENT
__Count$ = 8						; size = 4
?allocate@?$allocator@U_Node@?$_List_nod@URequest@CvDiplomacyRequests@@V?$allocator@URequest@CvDiplomacyRequests@@@std@@@std@@@std@@QAEPAU_Node@?$_List_nod@URequest@CvDiplomacyRequests@@V?$allocator@URequest@CvDiplomacyRequests@@@std@@@2@I@Z PROC ; std::allocator<std::_List_nod<CvDiplomacyRequests::Request,std::allocator<CvDiplomacyRequests::Request> >::_Node>::allocate, COMDAT
; _this$ = ecx

; 145  : 		return (_Allocate(_Count, (pointer)0));

	mov	eax, DWORD PTR __Count$[esp-4]
	push	0
	push	eax
	call	??$_Allocate@U_Node@?$_List_nod@URequest@CvDiplomacyRequests@@V?$allocator@URequest@CvDiplomacyRequests@@@std@@@std@@@std@@YAPAU_Node@?$_List_nod@URequest@CvDiplomacyRequests@@V?$allocator@URequest@CvDiplomacyRequests@@@std@@@0@IPAU120@@Z ; std::_Allocate<std::_List_nod<CvDiplomacyRequests::Request,std::allocator<CvDiplomacyRequests::Request> >::_Node>
	add	esp, 8

; 146  : 		}

	ret	4
?allocate@?$allocator@U_Node@?$_List_nod@URequest@CvDiplomacyRequests@@V?$allocator@URequest@CvDiplomacyRequests@@@std@@@std@@@std@@QAEPAU_Node@?$_List_nod@URequest@CvDiplomacyRequests@@V?$allocator@URequest@CvDiplomacyRequests@@@std@@@2@I@Z ENDP ; std::allocator<std::_List_nod<CvDiplomacyRequests::Request,std::allocator<CvDiplomacyRequests::Request> >::_Node>::allocate
_TEXT	ENDS
PUBLIC	?destroy@?$allocator@PAU_Node@?$_List_nod@URequest@CvDiplomacyRequests@@V?$allocator@URequest@CvDiplomacyRequests@@@std@@@std@@@std@@QAEXPAPAU_Node@?$_List_nod@URequest@CvDiplomacyRequests@@V?$allocator@URequest@CvDiplomacyRequests@@@std@@@2@@Z ; std::allocator<std::_List_nod<CvDiplomacyRequests::Request,std::allocator<CvDiplomacyRequests::Request> >::_Node *>::destroy
; Function compile flags: /Ogtpy
;	COMDAT ?destroy@?$allocator@PAU_Node@?$_List_nod@URequest@CvDiplomacyRequests@@V?$allocator@URequest@CvDiplomacyRequests@@@std@@@std@@@std@@QAEXPAPAU_Node@?$_List_nod@URequest@CvDiplomacyRequests@@V?$allocator@URequest@CvDiplomacyRequests@@@std@@@2@@Z
_TEXT	SEGMENT
__Ptr$ = 8						; size = 4
?destroy@?$allocator@PAU_Node@?$_List_nod@URequest@CvDiplomacyRequests@@V?$allocator@URequest@CvDiplomacyRequests@@@std@@@std@@@std@@QAEXPAPAU_Node@?$_List_nod@URequest@CvDiplomacyRequests@@V?$allocator@URequest@CvDiplomacyRequests@@@std@@@2@@Z PROC ; std::allocator<std::_List_nod<CvDiplomacyRequests::Request,std::allocator<CvDiplomacyRequests::Request> >::_Node *>::destroy, COMDAT
; _this$ = ecx

; 160  : 		_Destroy(_Ptr);
; 161  : 		}

	ret	4
?destroy@?$allocator@PAU_Node@?$_List_nod@URequest@CvDiplomacyRequests@@V?$allocator@URequest@CvDiplomacyRequests@@@std@@@std@@@std@@QAEXPAPAU_Node@?$_List_nod@URequest@CvDiplomacyRequests@@V?$allocator@URequest@CvDiplomacyRequests@@@std@@@2@@Z ENDP ; std::allocator<std::_List_nod<CvDiplomacyRequests::Request,std::allocator<CvDiplomacyRequests::Request> >::_Node *>::destroy
_TEXT	ENDS
PUBLIC	??E?$_Const_iterator@$0A@@?$list@URequest@CvDiplomacyRequests@@V?$allocator@URequest@CvDiplomacyRequests@@@std@@@std@@QAE?AV012@H@Z ; std::list<CvDiplomacyRequests::Request,std::allocator<CvDiplomacyRequests::Request> >::_Const_iterator<0>::operator++
; Function compile flags: /Ogtpy
; File c:\program files (x86)\microsoft visual studio 9.0\vc\include\list
;	COMDAT ??E?$_Const_iterator@$0A@@?$list@URequest@CvDiplomacyRequests@@V?$allocator@URequest@CvDiplomacyRequests@@@std@@@std@@QAE?AV012@H@Z
_TEXT	SEGMENT
___$ReturnUdt$ = 8					; size = 4
___formal$ = 12						; size = 4
??E?$_Const_iterator@$0A@@?$list@URequest@CvDiplomacyRequests@@V?$allocator@URequest@CvDiplomacyRequests@@@std@@@std@@QAE?AV012@H@Z PROC ; std::list<CvDiplomacyRequests::Request,std::allocator<CvDiplomacyRequests::Request> >::_Const_iterator<0>::operator++, COMDAT
; _this$ = ecx

; 256  : 			_Myt_iter _Tmp = *this;

	mov	edx, DWORD PTR [ecx]
	mov	eax, DWORD PTR ___$ReturnUdt$[esp-4]
	mov	DWORD PTR [eax], edx

; 257  : 			++*this;

	mov	edx, DWORD PTR [edx]
	mov	DWORD PTR [ecx], edx

; 258  : 			return (_Tmp);
; 259  : 			}

	ret	8
??E?$_Const_iterator@$0A@@?$list@URequest@CvDiplomacyRequests@@V?$allocator@URequest@CvDiplomacyRequests@@@std@@@std@@QAE?AV012@H@Z ENDP ; std::list<CvDiplomacyRequests::Request,std::allocator<CvDiplomacyRequests::Request> >::_Const_iterator<0>::operator++
_TEXT	ENDS
PUBLIC	?max_size@?$list@URequest@CvDiplomacyRequests@@V?$allocator@URequest@CvDiplomacyRequests@@@std@@@std@@QBEIXZ ; std::list<CvDiplomacyRequests::Request,std::allocator<CvDiplomacyRequests::Request> >::max_size
; Function compile flags: /Ogtpy
;	COMDAT ?max_size@?$list@URequest@CvDiplomacyRequests@@V?$allocator@URequest@CvDiplomacyRequests@@@std@@@std@@QBEIXZ
_TEXT	SEGMENT
?max_size@?$list@URequest@CvDiplomacyRequests@@V?$allocator@URequest@CvDiplomacyRequests@@@std@@@std@@QBEIXZ PROC ; std::list<CvDiplomacyRequests::Request,std::allocator<CvDiplomacyRequests::Request> >::max_size, COMDAT
; _this$ = ecx

; 625  : 		return (this->_Alval.max_size());

	mov	eax, 82595524				; 04ec4ec4H

; 626  : 		}

	ret	0
?max_size@?$list@URequest@CvDiplomacyRequests@@V?$allocator@URequest@CvDiplomacyRequests@@@std@@@std@@QBEIXZ ENDP ; std::list<CvDiplomacyRequests::Request,std::allocator<CvDiplomacyRequests::Request> >::max_size
_TEXT	ENDS
PUBLIC	??0?$_List_nod@URequest@CvDiplomacyRequests@@V?$allocator@URequest@CvDiplomacyRequests@@@std@@@std@@IAE@V?$allocator@URequest@CvDiplomacyRequests@@@1@@Z ; std::_List_nod<CvDiplomacyRequests::Request,std::allocator<CvDiplomacyRequests::Request> >::_List_nod<CvDiplomacyRequests::Request,std::allocator<CvDiplomacyRequests::Request> >
; Function compile flags: /Ogtpy
;	COMDAT ??0?$_List_nod@URequest@CvDiplomacyRequests@@V?$allocator@URequest@CvDiplomacyRequests@@@std@@@std@@IAE@V?$allocator@URequest@CvDiplomacyRequests@@@1@@Z
_TEXT	SEGMENT
__Al$ = 8						; size = 1
??0?$_List_nod@URequest@CvDiplomacyRequests@@V?$allocator@URequest@CvDiplomacyRequests@@@std@@@std@@IAE@V?$allocator@URequest@CvDiplomacyRequests@@@1@@Z PROC ; std::_List_nod<CvDiplomacyRequests::Request,std::allocator<CvDiplomacyRequests::Request> >::_List_nod<CvDiplomacyRequests::Request,std::allocator<CvDiplomacyRequests::Request> >, COMDAT
; _this$ = ecx

; 47   : 		{	// construct allocator from _Al

	mov	eax, ecx

; 48   : 		}

	ret	4
??0?$_List_nod@URequest@CvDiplomacyRequests@@V?$allocator@URequest@CvDiplomacyRequests@@@std@@@std@@IAE@V?$allocator@URequest@CvDiplomacyRequests@@@1@@Z ENDP ; std::_List_nod<CvDiplomacyRequests::Request,std::allocator<CvDiplomacyRequests::Request> >::_List_nod<CvDiplomacyRequests::Request,std::allocator<CvDiplomacyRequests::Request> >
_TEXT	ENDS
PUBLIC	??$?BVICvDeal1@@@?$auto_ptr@VICvDeal1@@@std@@QAE?AU?$auto_ptr_ref@VICvDeal1@@@1@XZ ; std::auto_ptr<ICvDeal1>::operator<ICvDeal1> std::auto_ptr_ref<ICvDeal1>
; Function compile flags: /Ogtpy
; File c:\program files (x86)\microsoft visual studio 9.0\vc\include\memory
;	COMDAT ??$?BVICvDeal1@@@?$auto_ptr@VICvDeal1@@@std@@QAE?AU?$auto_ptr_ref@VICvDeal1@@@1@XZ
_TEXT	SEGMENT
___$ReturnUdt$ = 8					; size = 4
??$?BVICvDeal1@@@?$auto_ptr@VICvDeal1@@@std@@QAE?AU?$auto_ptr_ref@VICvDeal1@@@1@XZ PROC ; std::auto_ptr<ICvDeal1>::operator<ICvDeal1> std::auto_ptr_ref<ICvDeal1>, COMDAT
; _this$ = ecx

; 684  : 		{	// convert to compatible auto_ptr_ref
; 685  : 		_Other *_Cvtptr = _Myptr;	// test implicit conversion
; 686  : 		auto_ptr_ref<_Other> _Ans(_Cvtptr);

	mov	edx, DWORD PTR [ecx]
	mov	eax, DWORD PTR ___$ReturnUdt$[esp-4]
	mov	DWORD PTR [eax], edx

; 687  : 		_Myptr = 0;	// pass ownership to auto_ptr_ref

	mov	DWORD PTR [ecx], 0

; 688  : 		return (_Ans);
; 689  : 		}

	ret	4
??$?BVICvDeal1@@@?$auto_ptr@VICvDeal1@@@std@@QAE?AU?$auto_ptr_ref@VICvDeal1@@@1@XZ ENDP ; std::auto_ptr<ICvDeal1>::operator<ICvDeal1> std::auto_ptr_ref<ICvDeal1>
_TEXT	ENDS
PUBLIC	??$_Construct@PAU_Node@?$_List_nod@URequest@CvDiplomacyRequests@@V?$allocator@URequest@CvDiplomacyRequests@@@std@@@std@@PAU123@@std@@YAXPAPAU_Node@?$_List_nod@URequest@CvDiplomacyRequests@@V?$allocator@URequest@CvDiplomacyRequests@@@std@@@0@ABQAU120@@Z ; std::_Construct<std::_List_nod<CvDiplomacyRequests::Request,std::allocator<CvDiplomacyRequests::Request> >::_Node *,std::_List_nod<CvDiplomacyRequests::Request,std::allocator<CvDiplomacyRequests::Request> >::_Node *>
; Function compile flags: /Ogtpy
; File c:\program files (x86)\microsoft visual studio 9.0\vc\include\xmemory
;	COMDAT ??$_Construct@PAU_Node@?$_List_nod@URequest@CvDiplomacyRequests@@V?$allocator@URequest@CvDiplomacyRequests@@@std@@@std@@PAU123@@std@@YAXPAPAU_Node@?$_List_nod@URequest@CvDiplomacyRequests@@V?$allocator@URequest@CvDiplomacyRequests@@@std@@@0@ABQAU120@@Z
_TEXT	SEGMENT
__Ptr$ = 8						; size = 4
__Val$ = 12						; size = 4
??$_Construct@PAU_Node@?$_List_nod@URequest@CvDiplomacyRequests@@V?$allocator@URequest@CvDiplomacyRequests@@@std@@@std@@PAU123@@std@@YAXPAPAU_Node@?$_List_nod@URequest@CvDiplomacyRequests@@V?$allocator@URequest@CvDiplomacyRequests@@@std@@@0@ABQAU120@@Z PROC ; std::_Construct<std::_List_nod<CvDiplomacyRequests::Request,std::allocator<CvDiplomacyRequests::Request> >::_Node *,std::_List_nod<CvDiplomacyRequests::Request,std::allocator<CvDiplomacyRequests::Request> >::_Node *>, COMDAT

; 51   : 	void _FARQ *_Vptr = _Ptr;
; 52   : 	::new (_Vptr) _T1(_Val);

	mov	eax, DWORD PTR __Ptr$[esp-4]
	test	eax, eax
	je	SHORT $LN3@Construct
	mov	ecx, DWORD PTR __Val$[esp-4]
	mov	edx, DWORD PTR [ecx]
	mov	DWORD PTR [eax], edx
$LN3@Construct:

; 53   : 	}

	ret	0
??$_Construct@PAU_Node@?$_List_nod@URequest@CvDiplomacyRequests@@V?$allocator@URequest@CvDiplomacyRequests@@@std@@@std@@PAU123@@std@@YAXPAPAU_Node@?$_List_nod@URequest@CvDiplomacyRequests@@V?$allocator@URequest@CvDiplomacyRequests@@@std@@@0@ABQAU120@@Z ENDP ; std::_Construct<std::_List_nod<CvDiplomacyRequests::Request,std::allocator<CvDiplomacyRequests::Request> >::_Node *,std::_List_nod<CvDiplomacyRequests::Request,std::allocator<CvDiplomacyRequests::Request> >::_Node *>
_TEXT	ENDS
PUBLIC	??0Request@CvDiplomacyRequests@@QAE@ABU01@@Z	; CvDiplomacyRequests::Request::Request
; Function compile flags: /Ogtpy
;	COMDAT ??0Request@CvDiplomacyRequests@@QAE@ABU01@@Z
_TEXT	SEGMENT
___that$ = 8						; size = 4
??0Request@CvDiplomacyRequests@@QAE@ABU01@@Z PROC	; CvDiplomacyRequests::Request::Request, COMDAT
; _this$ = ecx
	push	esi
	push	edi
	mov	edi, DWORD PTR ___that$[esp+4]
	mov	eax, DWORD PTR [edi]
	mov	esi, ecx
	mov	DWORD PTR [esi], eax
	mov	ecx, DWORD PTR [edi+4]
	lea	edx, DWORD PTR [edi+8]
	mov	DWORD PTR [esi+4], ecx
	push	edx
	lea	ecx, DWORD PTR [esi+8]
	call	DWORD PTR __imp_??0?$basic_string@DU?$char_traits@D@std@@V?$allocator@D@2@@std@@QAE@ABV01@@Z
	mov	eax, DWORD PTR [edi+36]
	mov	DWORD PTR [esi+36], eax
	mov	ecx, DWORD PTR [edi+40]
	mov	DWORD PTR [esi+40], ecx
	mov	edx, DWORD PTR [edi+44]
	mov	DWORD PTR [esi+44], edx
	mov	eax, DWORD PTR [edi+48]
	mov	DWORD PTR [esi+48], eax
	pop	edi
	mov	eax, esi
	pop	esi
	ret	4
??0Request@CvDiplomacyRequests@@QAE@ABU01@@Z ENDP	; CvDiplomacyRequests::Request::Request
_TEXT	ENDS
PUBLIC	??1_Node@?$_List_nod@URequest@CvDiplomacyRequests@@V?$allocator@URequest@CvDiplomacyRequests@@@std@@@std@@QAE@XZ ; std::_List_nod<CvDiplomacyRequests::Request,std::allocator<CvDiplomacyRequests::Request> >::_Node::~_Node
; Function compile flags: /Ogtpy
;	COMDAT ??1_Node@?$_List_nod@URequest@CvDiplomacyRequests@@V?$allocator@URequest@CvDiplomacyRequests@@@std@@@std@@QAE@XZ
_TEXT	SEGMENT
??1_Node@?$_List_nod@URequest@CvDiplomacyRequests@@V?$allocator@URequest@CvDiplomacyRequests@@@std@@@std@@QAE@XZ PROC ; std::_List_nod<CvDiplomacyRequests::Request,std::allocator<CvDiplomacyRequests::Request> >::_Node::~_Node, COMDAT
; _this$ = ecx
	add	ecx, 16					; 00000010H
	jmp	DWORD PTR __imp_??1?$basic_string@DU?$char_traits@D@std@@V?$allocator@D@2@@std@@QAE@XZ
??1_Node@?$_List_nod@URequest@CvDiplomacyRequests@@V?$allocator@URequest@CvDiplomacyRequests@@@std@@@std@@QAE@XZ ENDP ; std::_List_nod<CvDiplomacyRequests::Request,std::allocator<CvDiplomacyRequests::Request> >::_Node::~_Node
_TEXT	ENDS
PUBLIC	?isAlive@CvPlayer@@QBE_NXZ			; CvPlayer::isAlive
; Function compile flags: /Ogtpy
; File c:\users\enormousapplepie\desktop\lekmod files\lekmod dll versions\v29\lekmod_dll\cvgamecoredll_expansion2\cvplayer.h
;	COMDAT ?isAlive@CvPlayer@@QBE_NXZ
_TEXT	SEGMENT
?isAlive@CvPlayer@@QBE_NXZ PROC				; CvPlayer::isAlive, COMDAT
; _this$ = ecx

; 1092 : 		return m_bAlive;

	mov	al, BYTE PTR [ecx+2256]

; 1093 : 	}

	ret	0
?isAlive@CvPlayer@@QBE_NXZ ENDP				; CvPlayer::isAlive
_TEXT	ENDS
PUBLIC	?Write@CvDiplomacyRequests@@QBEXAAVFDataStream@@@Z ; CvDiplomacyRequests::Write
; Function compile flags: /Ogtpy
; File c:\users\enormousapplepie\desktop\lekmod files\lekmod dll versions\v29\lekmod_dll\cvgamecoredll_expansion2\cvdiplomacyrequests.cpp
;	COMDAT ?Write@CvDiplomacyRequests@@QBEXAAVFDataStream@@@Z
_TEXT	SEGMENT
_uiVersion$ = -4					; size = 4
$T222634 = 8						; size = 4
_kStream$ = 8						; size = 4
?Write@CvDiplomacyRequests@@QBEXAAVFDataStream@@@Z PROC	; CvDiplomacyRequests::Write, COMDAT
; _this$ = ecx

; 113  : {

	push	ecx
	push	ebx
	push	ebp
	push	esi

; 114  : 	// Current version number
; 115  : 	uint uiVersion = 1;
; 116  : 	kStream << uiVersion;

	mov	esi, DWORD PTR _kStream$[esp+12]
	lea	eax, DWORD PTR _uiVersion$[esp+16]
	mov	ebp, ecx
	push	eax
	mov	ecx, esi
	mov	DWORD PTR _uiVersion$[esp+20], 1
	call	?Write@FDataStream@@IAEXABI@Z		; FDataStream::Write

; 117  : 
; 118  : 	// need to serialize notification list
; 119  : 	kStream << m_ePlayer;

	push	ebp
	push	esi
	call	??6@YAAAVFDataStream@@AAV0@ABW4PlayerTypes@@@Z ; operator<<

; 120  : 
; 121  : 	kStream << m_aRequests.size();

	mov	ecx, DWORD PTR [ebp+16]
	add	esp, 8
	lea	edx, DWORD PTR $T222634[esp+12]
	mov	DWORD PTR $T222634[esp+12], ecx
	push	edx
	mov	ecx, esi
	call	?Write@FDataStream@@IAEXABI@Z		; FDataStream::Write

; 122  : 
; 123  : 	for(RequestList::const_iterator i = m_aRequests.begin(); i != m_aRequests.end(); ++i)

	mov	eax, DWORD PTR [ebp+12]
	mov	ebx, DWORD PTR [eax]
	cmp	ebx, eax
	je	SHORT $LN1@Write
	push	edi
$LL18@Write:

; 124  : 	{
; 125  : 		kStream << (*i);

	lea	edi, DWORD PTR [ebx+8]
	push	edi
	push	esi
	call	??6@YAAAVFDataStream@@AAV0@ABW4DiploUIStateTypes@@@Z ; operator<<
	lea	eax, DWORD PTR [edi+36]
	push	eax
	push	esi
	call	??6@YAAAVFDataStream@@AAV0@ABW4LeaderheadAnimationTypes@@@Z ; operator<<
	add	esp, 16					; 00000010H
	lea	ecx, DWORD PTR [edi+8]
	push	ecx
	mov	ecx, esi
	call	?Write@FDataStream@@IAEXABV?$basic_string@DU?$char_traits@D@std@@V?$allocator@D@2@@std@@@Z ; FDataStream::Write
	lea	edx, DWORD PTR [edi+48]
	push	edx
	mov	ecx, esi
	call	?Write@FDataStream@@IAEXABH@Z		; FDataStream::Write
	lea	eax, DWORD PTR [edi+40]
	push	eax
	mov	ecx, esi
	call	?Write@FDataStream@@IAEXABH@Z		; FDataStream::Write
	lea	ecx, DWORD PTR [edi+44]
	push	ecx
	mov	ecx, esi
	call	?Write@FDataStream@@IAEXABH@Z		; FDataStream::Write
	add	edi, 4
	push	edi
	push	esi
	call	??6@YAAAVFDataStream@@AAV0@ABW4PlayerTypes@@@Z ; operator<<
	mov	ebx, DWORD PTR [ebx]
	add	esp, 8
	cmp	ebx, DWORD PTR [ebp+12]
	jne	SHORT $LL18@Write
	pop	edi
$LN1@Write:
	pop	esi
	pop	ebp
	pop	ebx

; 126  : 	}
; 127  : }

	pop	ecx
	ret	4
?Write@CvDiplomacyRequests@@QBEXAAVFDataStream@@@Z ENDP	; CvDiplomacyRequests::Write
_TEXT	ENDS
PUBLIC	?DoAIDiplomacy@CvDiplomacyRequests@@SAXW4PlayerTypes@@@Z ; CvDiplomacyRequests::DoAIDiplomacy
EXTRN	?DoTurn@CvDiplomacyAI@@QAEXW4PlayerTypes@@@Z:PROC ; CvDiplomacyAI::DoTurn
EXTRN	?GetDiplomacyAI@CvPlayer@@QBEPAVCvDiplomacyAI@@XZ:PROC ; CvPlayer::GetDiplomacyAI
EXTRN	?isBarbarian@CvPlayer@@QBE_NXZ:PROC		; CvPlayer::isBarbarian
EXTRN	?isMinorCiv@CvPlayer@@QBE_NXZ:PROC		; CvPlayer::isMinorCiv
EXTRN	?isHuman@CvPlayer@@QBE_NXZ:PROC			; CvPlayer::isHuman
EXTRN	?GetDiplomacyRequests@CvPlayer@@QBEPAVCvDiplomacyRequests@@XZ:PROC ; CvPlayer::GetDiplomacyRequests
; Function compile flags: /Ogtpy
;	COMDAT ?DoAIDiplomacy@CvDiplomacyRequests@@SAXW4PlayerTypes@@@Z
_TEXT	SEGMENT
_pkTargetRequests$221530 = 8				; size = 4
_eTargetPlayer$ = 8					; size = 4
?DoAIDiplomacy@CvDiplomacyRequests@@SAXW4PlayerTypes@@@Z PROC ; CvDiplomacyRequests::DoAIDiplomacy, COMDAT

; 258  : {

	push	ebp

; 259  : 	if(eTargetPlayer != NO_PLAYER)

	mov	ebp, DWORD PTR _eTargetPlayer$[esp]
	cmp	ebp, -1
	je	$LN26@DoAIDiplom
	push	esi

; 260  : 	{
; 261  : 		ICvUserInterface2* pkIFace = GC.GetEngineUserInterface();

	mov	esi, DWORD PTR ?gGlobals@@3VCvGlobals@@A+8568

; 262  : 		// WARNING: Processing depends on the state of the interface!
; 263  : 		CvAssert(!CvPreGame::isNetworkMultiplayerGame());
; 264  : 
; 265  : 		// Don't process while a modal dialog is up or another diplo or popup is up.
; 266  : 		if(pkIFace->IsModalStackEmpty() && !pkIFace->isDiploOrPopupWaiting() && !pkIFace->isCityScreenUp())

	mov	eax, DWORD PTR [esi]
	mov	edx, DWORD PTR [eax+548]
	mov	ecx, esi
	call	edx
	test	al, al
	je	$LN33@DoAIDiplom
	mov	eax, DWORD PTR [esi]
	mov	edx, DWORD PTR [eax+44]
	mov	ecx, esi
	call	edx
	test	al, al
	jne	$LN33@DoAIDiplom
	mov	eax, DWORD PTR [esi]
	mov	edx, DWORD PTR [eax+312]
	mov	ecx, esi
	call	edx
	test	al, al
	jne	$LN33@DoAIDiplom

; 267  : 		{
; 268  : 			CvPlayer& kTargetPlayer = GET_PLAYER((PlayerTypes) eTargetPlayer);

	mov	ecx, ebp
	imul	ecx, 63236				; 0000f704H
	add	ecx, DWORD PTR ?m_aPlayers@CvPlayerAI@@1PAV1@A ; CvPlayerAI::m_aPlayers

; 269  : 			CvDiplomacyRequests* pkTargetRequests = kTargetPlayer.GetDiplomacyRequests();

	call	?GetDiplomacyRequests@CvPlayer@@QBEPAVCvDiplomacyRequests@@XZ ; CvPlayer::GetDiplomacyRequests
	mov	ecx, eax
	mov	DWORD PTR _pkTargetRequests$221530[esp+4], ecx

; 270  : 			if(pkTargetRequests)

	test	ecx, ecx
	je	$LN33@DoAIDiplom

; 271  : 			{
; 272  : 				if(!pkTargetRequests->HasPendingRequests())

	call	?HasPendingRequests@CvDiplomacyRequests@@QBE_NXZ ; CvDiplomacyRequests::HasPendingRequests
	test	al, al
	jne	$LN33@DoAIDiplom

; 273  : 				{
; 274  : 					PlayerTypes ePlayerLoop = pkTargetRequests->GetNextAIPlayer();

	mov	esi, DWORD PTR [ecx+4]

; 275  : 					if(ePlayerLoop != NO_PLAYER)

	cmp	esi, -1
	je	$LN33@DoAIDiplom

; 276  : 					{
; 277  : 						int iMaxCivPlayers = MAX_CIV_PLAYERS;
; 278  : 						while((int)ePlayerLoop < iMaxCivPlayers)

	cmp	esi, 63					; 0000003fH
	push	ebx
	push	edi
	jge	$LN31@DoAIDiplom
	mov	ebx, esi
	imul	ebx, 63236				; 0000f704H
	npad	5
$LL4@DoAIDiplom:

; 279  : 						{
; 280  : 							CvPlayer& kPlayer = GET_PLAYER(ePlayerLoop);

	mov	eax, DWORD PTR ?m_aPlayers@CvPlayerAI@@1PAV1@A ; CvPlayerAI::m_aPlayers
	lea	edi, DWORD PTR [ebx+eax]

; 281  : 
; 282  : 							if(eTargetPlayer != ePlayerLoop && kPlayer.isAlive() && !kPlayer.isHuman() && !kPlayer.isMinorCiv() && !kPlayer.isBarbarian())

	cmp	ebp, esi
	je	SHORT $LN32@DoAIDiplom
	cmp	BYTE PTR [edi+2256], 0
	je	SHORT $LN32@DoAIDiplom
	mov	ecx, edi
	call	?isHuman@CvPlayer@@QBE_NXZ		; CvPlayer::isHuman
	test	al, al
	jne	SHORT $LN32@DoAIDiplom
	mov	ecx, edi
	call	?isMinorCiv@CvPlayer@@QBE_NXZ		; CvPlayer::isMinorCiv
	test	al, al
	jne	SHORT $LN32@DoAIDiplom
	mov	ecx, edi
	call	?isBarbarian@CvPlayer@@QBE_NXZ		; CvPlayer::isBarbarian
	test	al, al
	jne	SHORT $LN32@DoAIDiplom

; 283  : 							{
; 284  : 								kPlayer.GetDiplomacyAI()->DoTurn(eTargetPlayer);

	push	ebp
	mov	ecx, edi
	call	?GetDiplomacyAI@CvPlayer@@QBEPAVCvDiplomacyAI@@XZ ; CvPlayer::GetDiplomacyAI
	mov	ecx, eax
	call	?DoTurn@CvDiplomacyAI@@QAEXW4PlayerTypes@@@Z ; CvDiplomacyAI::DoTurn

; 285  : 								if(pkTargetRequests->HasPendingRequests())

	mov	ecx, DWORD PTR _pkTargetRequests$221530[esp+12]
	call	?HasPendingRequests@CvDiplomacyRequests@@QBE_NXZ ; CvDiplomacyRequests::HasPendingRequests
	test	al, al
	jne	SHORT $LN29@DoAIDiplom
$LN32@DoAIDiplom:

; 288  : 									break;
; 289  : 								}
; 290  : 							}
; 291  : 
; 292  : 							ePlayerLoop = (PlayerTypes)((int)ePlayerLoop + 1);

	add	ebx, 63236				; 0000f704H
	inc	esi
	cmp	ebx, 3983868				; 003cc9fcH
	jl	SHORT $LL4@DoAIDiplom

; 293  : 						}
; 294  : 
; 295  : 						pkTargetRequests->SetNextAIPlayer((((int)ePlayerLoop >= iMaxCivPlayers)?NO_PLAYER:ePlayerLoop));

	mov	ecx, DWORD PTR _pkTargetRequests$221530[esp+12]
	pop	edi
	or	esi, -1
	pop	ebx
	mov	DWORD PTR [ecx+4], esi
	pop	esi
	pop	ebp

; 296  : 					}
; 297  : 				}
; 298  : 			}
; 299  : 		}
; 300  : 	}
; 301  : 
; 302  : }

	ret	0
$LN29@DoAIDiplom:

; 286  : 								{
; 287  : 									ePlayerLoop = (PlayerTypes)((int)ePlayerLoop + 1);

	inc	esi

; 293  : 						}
; 294  : 
; 295  : 						pkTargetRequests->SetNextAIPlayer((((int)ePlayerLoop >= iMaxCivPlayers)?NO_PLAYER:ePlayerLoop));

	cmp	esi, 63					; 0000003fH
	jl	SHORT $LN12@DoAIDiplom
$LN31@DoAIDiplom:
	or	esi, -1
$LN12@DoAIDiplom:
	mov	ecx, DWORD PTR _pkTargetRequests$221530[esp+12]
	pop	edi
	mov	DWORD PTR [ecx+4], esi
	pop	ebx
$LN33@DoAIDiplom:
	pop	esi
$LN26@DoAIDiplom:
	pop	ebp

; 296  : 					}
; 297  : 				}
; 298  : 			}
; 299  : 		}
; 300  : 	}
; 301  : 
; 302  : }

	ret	0
?DoAIDiplomacy@CvDiplomacyRequests@@SAXW4PlayerTypes@@@Z ENDP ; CvDiplomacyRequests::DoAIDiplomacy
_TEXT	ENDS
PUBLIC	?HasActiveDiploRequestWithHuman@CvDiplomacyRequests@@SA_NW4PlayerTypes@@@Z ; CvDiplomacyRequests::HasActiveDiploRequestWithHuman
; Function compile flags: /Ogtpy
;	COMDAT ?HasActiveDiploRequestWithHuman@CvDiplomacyRequests@@SA_NW4PlayerTypes@@@Z
_TEXT	SEGMENT
_eSourcePlayer$ = 8					; size = 4
?HasActiveDiploRequestWithHuman@CvDiplomacyRequests@@SA_NW4PlayerTypes@@@Z PROC ; CvDiplomacyRequests::HasActiveDiploRequestWithHuman, COMDAT

; 318  : {

	push	ebx
	push	ebp

; 319  : 	for (int i = 0; i < MAX_CIV_PLAYERS; ++i)

	mov	ebp, DWORD PTR _eSourcePlayer$[esp+4]
	push	esi
	push	edi
	xor	ebx, ebx
	xor	edi, edi
	npad	4
$LL5@HasActiveD:

; 320  : 	{
; 321  : 		CvPlayer& kTargetPlayer = GET_PLAYER((PlayerTypes)i);

	mov	eax, DWORD PTR ?m_aPlayers@CvPlayerAI@@1PAV1@A ; CvPlayerAI::m_aPlayers
	lea	esi, DWORD PTR [edi+eax]

; 322  : 		if (kTargetPlayer.isHuman() && kTargetPlayer.isAlive() && (PlayerTypes)i != eSourcePlayer)

	mov	ecx, esi
	call	?isHuman@CvPlayer@@QBE_NXZ		; CvPlayer::isHuman
	test	al, al
	je	SHORT $LN4@HasActiveD
	cmp	BYTE PTR [esi+2256], 0
	je	SHORT $LN4@HasActiveD
	cmp	ebx, ebp
	je	SHORT $LN4@HasActiveD

; 323  : 		{
; 324  : 			if (kTargetPlayer.GetDiplomacyRequests()->HasActiveRequestFrom(eSourcePlayer))

	mov	ecx, esi
	call	?GetDiplomacyRequests@CvPlayer@@QBEPAVCvDiplomacyRequests@@XZ ; CvPlayer::GetDiplomacyRequests
	cmp	BYTE PTR [eax+24], 0
	je	SHORT $LN4@HasActiveD
	cmp	DWORD PTR [eax+20], ebp
	je	SHORT $LN19@HasActiveD
$LN4@HasActiveD:

; 319  : 	for (int i = 0; i < MAX_CIV_PLAYERS; ++i)

	add	edi, 63236				; 0000f704H
	inc	ebx
	cmp	edi, 3983868				; 003cc9fcH
	jl	SHORT $LL5@HasActiveD
	pop	edi
	pop	esi
	pop	ebp

; 326  : 		}
; 327  : 	}
; 328  : 	return false;

	xor	al, al
	pop	ebx

; 329  : }

	ret	0
$LN19@HasActiveD:
	pop	edi
	pop	esi
	pop	ebp

; 325  : 				return true;

	mov	al, 1
	pop	ebx

; 329  : }

	ret	0
?HasActiveDiploRequestWithHuman@CvDiplomacyRequests@@SA_NW4PlayerTypes@@@Z ENDP ; CvDiplomacyRequests::HasActiveDiploRequestWithHuman
_TEXT	ENDS
PUBLIC	?front@?$list@URequest@CvDiplomacyRequests@@V?$allocator@URequest@CvDiplomacyRequests@@@std@@@std@@QAEAAURequest@CvDiplomacyRequests@@XZ ; std::list<CvDiplomacyRequests::Request,std::allocator<CvDiplomacyRequests::Request> >::front
; Function compile flags: /Ogtpy
; File c:\program files (x86)\microsoft visual studio 9.0\vc\include\list
;	COMDAT ?front@?$list@URequest@CvDiplomacyRequests@@V?$allocator@URequest@CvDiplomacyRequests@@@std@@@std@@QAEAAURequest@CvDiplomacyRequests@@XZ
_TEXT	SEGMENT
?front@?$list@URequest@CvDiplomacyRequests@@V?$allocator@URequest@CvDiplomacyRequests@@@std@@@std@@QAEAAURequest@CvDiplomacyRequests@@XZ PROC ; std::list<CvDiplomacyRequests::Request,std::allocator<CvDiplomacyRequests::Request> >::front, COMDAT
; _this$ = ecx

; 640  : 		return (*begin());

	mov	eax, DWORD PTR [ecx+4]
	mov	eax, DWORD PTR [eax]
	add	eax, 8

; 641  : 		}

	ret	0
?front@?$list@URequest@CvDiplomacyRequests@@V?$allocator@URequest@CvDiplomacyRequests@@@std@@@std@@QAEAAURequest@CvDiplomacyRequests@@XZ ENDP ; std::list<CvDiplomacyRequests::Request,std::allocator<CvDiplomacyRequests::Request> >::front
_TEXT	ENDS
PUBLIC	?back@?$list@URequest@CvDiplomacyRequests@@V?$allocator@URequest@CvDiplomacyRequests@@@std@@@std@@QAEAAURequest@CvDiplomacyRequests@@XZ ; std::list<CvDiplomacyRequests::Request,std::allocator<CvDiplomacyRequests::Request> >::back
; Function compile flags: /Ogtpy
;	COMDAT ?back@?$list@URequest@CvDiplomacyRequests@@V?$allocator@URequest@CvDiplomacyRequests@@@std@@@std@@QAEAAURequest@CvDiplomacyRequests@@XZ
_TEXT	SEGMENT
?back@?$list@URequest@CvDiplomacyRequests@@V?$allocator@URequest@CvDiplomacyRequests@@@std@@@std@@QAEAAURequest@CvDiplomacyRequests@@XZ PROC ; std::list<CvDiplomacyRequests::Request,std::allocator<CvDiplomacyRequests::Request> >::back, COMDAT
; _this$ = ecx

; 650  : 		return (*(--end()));

	mov	eax, DWORD PTR [ecx+4]
	mov	eax, DWORD PTR [eax+4]
	add	eax, 8

; 651  : 		}

	ret	0
?back@?$list@URequest@CvDiplomacyRequests@@V?$allocator@URequest@CvDiplomacyRequests@@@std@@@std@@QAEAAURequest@CvDiplomacyRequests@@XZ ENDP ; std::list<CvDiplomacyRequests::Request,std::allocator<CvDiplomacyRequests::Request> >::back
_TEXT	ENDS
PUBLIC	??1?$_List_ptr@URequest@CvDiplomacyRequests@@V?$allocator@URequest@CvDiplomacyRequests@@@std@@@std@@QAE@XZ ; std::_List_ptr<CvDiplomacyRequests::Request,std::allocator<CvDiplomacyRequests::Request> >::~_List_ptr<CvDiplomacyRequests::Request,std::allocator<CvDiplomacyRequests::Request> >
; Function compile flags: /Ogtpy
;	COMDAT ??1?$_List_ptr@URequest@CvDiplomacyRequests@@V?$allocator@URequest@CvDiplomacyRequests@@@std@@@std@@QAE@XZ
_TEXT	SEGMENT
??1?$_List_ptr@URequest@CvDiplomacyRequests@@V?$allocator@URequest@CvDiplomacyRequests@@@std@@@std@@QAE@XZ PROC ; std::_List_ptr<CvDiplomacyRequests::Request,std::allocator<CvDiplomacyRequests::Request> >::~_List_ptr<CvDiplomacyRequests::Request,std::allocator<CvDiplomacyRequests::Request> >, COMDAT
; _this$ = ecx
	ret	0
??1?$_List_ptr@URequest@CvDiplomacyRequests@@V?$allocator@URequest@CvDiplomacyRequests@@@std@@@std@@QAE@XZ ENDP ; std::_List_ptr<CvDiplomacyRequests::Request,std::allocator<CvDiplomacyRequests::Request> >::~_List_ptr<CvDiplomacyRequests::Request,std::allocator<CvDiplomacyRequests::Request> >
_TEXT	ENDS
PUBLIC	__TI3?AVlength_error@std@@
PUBLIC	??_C@_0BB@MOGOBHAF@list?$DMT?$DO?5too?5long?$AA@ ; `string'
PUBLIC	?_Incsize@?$list@URequest@CvDiplomacyRequests@@V?$allocator@URequest@CvDiplomacyRequests@@@std@@@std@@IAEXI@Z ; std::list<CvDiplomacyRequests::Request,std::allocator<CvDiplomacyRequests::Request> >::_Incsize
PUBLIC	__CTA3?AVlength_error@std@@
PUBLIC	__CT??_R0?AVlength_error@std@@@8??0length_error@std@@QAE@ABV01@@Z40
PUBLIC	??0length_error@std@@QAE@ABV01@@Z		; std::length_error::length_error
PUBLIC	__CT??_R0?AVlogic_error@std@@@8??0logic_error@std@@QAE@ABV01@@Z40
PUBLIC	??0logic_error@std@@QAE@ABV01@@Z		; std::logic_error::logic_error
EXTRN	__imp_??0?$basic_string@DU?$char_traits@D@std@@V?$allocator@D@2@@std@@QAE@PBD@Z:PROC
;	COMDAT __CT??_R0?AVlogic_error@std@@@8??0logic_error@std@@QAE@ABV01@@Z40
; File c:\program files (x86)\microsoft visual studio 9.0\vc\include\stdexcept
xdata$x	SEGMENT
__CT??_R0?AVlogic_error@std@@@8??0logic_error@std@@QAE@ABV01@@Z40 DD 00H
	DD	FLAT:??_R0?AVlogic_error@std@@@8
	DD	00H
	DD	0ffffffffH
	ORG $+4
	DD	028H
	DD	FLAT:??0logic_error@std@@QAE@ABV01@@Z
xdata$x	ENDS
;	COMDAT __CT??_R0?AVlength_error@std@@@8??0length_error@std@@QAE@ABV01@@Z40
xdata$x	SEGMENT
__CT??_R0?AVlength_error@std@@@8??0length_error@std@@QAE@ABV01@@Z40 DD 00H
	DD	FLAT:??_R0?AVlength_error@std@@@8
	DD	00H
	DD	0ffffffffH
	ORG $+4
	DD	028H
	DD	FLAT:??0length_error@std@@QAE@ABV01@@Z
xdata$x	ENDS
;	COMDAT __CTA3?AVlength_error@std@@
xdata$x	SEGMENT
__CTA3?AVlength_error@std@@ DD 03H
	DD	FLAT:__CT??_R0?AVlength_error@std@@@8??0length_error@std@@QAE@ABV01@@Z40
	DD	FLAT:__CT??_R0?AVlogic_error@std@@@8??0logic_error@std@@QAE@ABV01@@Z40
	DD	FLAT:__CT??_R0?AVexception@std@@@8??0exception@std@@QAE@ABV01@@Z12
xdata$x	ENDS
;	COMDAT __TI3?AVlength_error@std@@
xdata$x	SEGMENT
__TI3?AVlength_error@std@@ DD 00H
	DD	FLAT:??1length_error@std@@UAE@XZ
	DD	00H
	DD	FLAT:__CTA3?AVlength_error@std@@
xdata$x	ENDS
;	COMDAT ??_C@_0BB@MOGOBHAF@list?$DMT?$DO?5too?5long?$AA@
CONST	SEGMENT
??_C@_0BB@MOGOBHAF@list?$DMT?$DO?5too?5long?$AA@ DB 'list<T> too long', 00H ; `string'
CONST	ENDS
;	COMDAT xdata$x
xdata$x	SEGMENT
__unwindtable$?_Incsize@?$list@URequest@CvDiplomacyRequests@@V?$allocator@URequest@CvDiplomacyRequests@@@std@@@std@@IAEXI@Z DD 0ffffffffH
	DD	FLAT:__unwindfunclet$?_Incsize@?$list@URequest@CvDiplomacyRequests@@V?$allocator@URequest@CvDiplomacyRequests@@@std@@@std@@IAEXI@Z$0
	DD	00H
	DD	FLAT:__unwindfunclet$?_Incsize@?$list@URequest@CvDiplomacyRequests@@V?$allocator@URequest@CvDiplomacyRequests@@@std@@@std@@IAEXI@Z$2
__ehfuncinfo$?_Incsize@?$list@URequest@CvDiplomacyRequests@@V?$allocator@URequest@CvDiplomacyRequests@@@std@@@std@@IAEXI@Z DD 019930522H
	DD	02H
	DD	FLAT:__unwindtable$?_Incsize@?$list@URequest@CvDiplomacyRequests@@V?$allocator@URequest@CvDiplomacyRequests@@@std@@@std@@IAEXI@Z
	DD	2 DUP(00H)
	DD	2 DUP(00H)
	DD	00H
	DD	01H
; Function compile flags: /Ogtpy
; File c:\program files (x86)\microsoft visual studio 9.0\vc\include\list
xdata$x	ENDS
;	COMDAT ?_Incsize@?$list@URequest@CvDiplomacyRequests@@V?$allocator@URequest@CvDiplomacyRequests@@@std@@@std@@IAEXI@Z
_TEXT	SEGMENT
$T222882 = -80						; size = 28
$T222881 = -52						; size = 40
__$EHRec$ = -12						; size = 12
__Count$ = 8						; size = 4
?_Incsize@?$list@URequest@CvDiplomacyRequests@@V?$allocator@URequest@CvDiplomacyRequests@@@std@@@std@@IAEXI@Z PROC ; std::list<CvDiplomacyRequests::Request,std::allocator<CvDiplomacyRequests::Request> >::_Incsize, COMDAT
; _this$ = ecx

; 1239 : 		{	// alter element count, with checking

	mov	eax, DWORD PTR fs:0

; 1240 : 		if (max_size() - _Mysize < _Count)

	mov	edx, DWORD PTR __Count$[esp-4]
	push	-1
	push	__ehhandler$?_Incsize@?$list@URequest@CvDiplomacyRequests@@V?$allocator@URequest@CvDiplomacyRequests@@@std@@@std@@IAEXI@Z
	push	eax
	mov	DWORD PTR fs:0, esp
	mov	eax, DWORD PTR [ecx+8]
	sub	esp, 68					; 00000044H
	push	esi
	mov	esi, 82595524				; 04ec4ec4H
	sub	esi, eax
	cmp	esi, edx
	pop	esi
	jae	SHORT $LN1@Incsize

; 1241 : 			_THROW(length_error, "list<T> too long");

	push	OFFSET ??_C@_0BB@MOGOBHAF@list?$DMT?$DO?5too?5long?$AA@
	lea	ecx, DWORD PTR $T222882[esp+84]
	call	DWORD PTR __imp_??0?$basic_string@DU?$char_traits@D@std@@V?$allocator@D@2@@std@@QAE@PBD@Z
	lea	ecx, DWORD PTR $T222881[esp+80]
	mov	DWORD PTR __$EHRec$[esp+88], 0
	call	DWORD PTR __imp_??0exception@std@@QAE@XZ
	lea	eax, DWORD PTR $T222882[esp+80]
	push	eax
	lea	ecx, DWORD PTR $T222881[esp+96]
	mov	BYTE PTR __$EHRec$[esp+92], 1
	mov	DWORD PTR $T222881[esp+84], OFFSET ??_7logic_error@std@@6B@
	call	DWORD PTR __imp_??0?$basic_string@DU?$char_traits@D@std@@V?$allocator@D@2@@std@@QAE@ABV01@@Z
	push	OFFSET __TI3?AVlength_error@std@@
	lea	ecx, DWORD PTR $T222881[esp+84]
	push	ecx
	mov	BYTE PTR __$EHRec$[esp+96], 0
	mov	DWORD PTR $T222881[esp+88], OFFSET ??_7length_error@std@@6B@
	call	__CxxThrowException@8
$LN20@Incsize:
$LN1@Incsize:

; 1242 : 		_Mysize += _Count;

	add	eax, edx
	mov	DWORD PTR [ecx+8], eax

; 1243 : 		}

	mov	ecx, DWORD PTR __$EHRec$[esp+80]
	mov	DWORD PTR fs:0, ecx
	add	esp, 80					; 00000050H
	ret	4
$LN19@Incsize:
_TEXT	ENDS
;	COMDAT text$x
text$x	SEGMENT
__unwindfunclet$?_Incsize@?$list@URequest@CvDiplomacyRequests@@V?$allocator@URequest@CvDiplomacyRequests@@@std@@@std@@IAEXI@Z$0:
	lea	ecx, DWORD PTR $T222882[ebp]
	jmp	DWORD PTR __imp_??1?$basic_string@DU?$char_traits@D@std@@V?$allocator@D@2@@std@@QAE@XZ
__unwindfunclet$?_Incsize@?$list@URequest@CvDiplomacyRequests@@V?$allocator@URequest@CvDiplomacyRequests@@@std@@@std@@IAEXI@Z$2:
	lea	ecx, DWORD PTR $T222881[ebp]
	jmp	DWORD PTR __imp_??1exception@std@@UAE@XZ
__ehhandler$?_Incsize@?$list@URequest@CvDiplomacyRequests@@V?$allocator@URequest@CvDiplomacyRequests@@@std@@@std@@IAEXI@Z:
	mov	eax, OFFSET __ehfuncinfo$?_Incsize@?$list@URequest@CvDiplomacyRequests@@V?$allocator@URequest@CvDiplomacyRequests@@@std@@@std@@IAEXI@Z
	jmp	___CxxFrameHandler3
text$x	ENDS
?_Incsize@?$list@URequest@CvDiplomacyRequests@@V?$allocator@URequest@CvDiplomacyRequests@@@std@@@std@@IAEXI@Z ENDP ; std::list<CvDiplomacyRequests::Request,std::allocator<CvDiplomacyRequests::Request> >::_Incsize
;	COMDAT xdata$x
xdata$x	SEGMENT
__unwindtable$??0logic_error@std@@QAE@ABV01@@Z DD 0ffffffffH
	DD	FLAT:__unwindfunclet$??0logic_error@std@@QAE@ABV01@@Z$0
__ehfuncinfo$??0logic_error@std@@QAE@ABV01@@Z DD 019930522H
	DD	01H
	DD	FLAT:__unwindtable$??0logic_error@std@@QAE@ABV01@@Z
	DD	2 DUP(00H)
	DD	2 DUP(00H)
	DD	00H
	DD	01H
; Function compile flags: /Ogtpy
xdata$x	ENDS
;	COMDAT ??0logic_error@std@@QAE@ABV01@@Z
_TEXT	SEGMENT
_this$ = -16						; size = 4
__$EHRec$ = -12						; size = 12
___that$ = 8						; size = 4
??0logic_error@std@@QAE@ABV01@@Z PROC			; std::logic_error::logic_error, COMDAT
; _this$ = ecx
	push	-1
	push	__ehhandler$??0logic_error@std@@QAE@ABV01@@Z
	mov	eax, DWORD PTR fs:0
	push	eax
	mov	DWORD PTR fs:0, esp
	push	ecx
	push	esi
	push	edi
	mov	edi, DWORD PTR ___that$[esp+20]
	mov	esi, ecx
	push	edi
	mov	DWORD PTR _this$[esp+28], esi
	call	DWORD PTR __imp_??0exception@std@@QAE@ABV01@@Z
	add	edi, 12					; 0000000cH
	push	edi
	lea	ecx, DWORD PTR [esi+12]
	mov	DWORD PTR __$EHRec$[esp+36], 0
	mov	DWORD PTR [esi], OFFSET ??_7logic_error@std@@6B@
	call	DWORD PTR __imp_??0?$basic_string@DU?$char_traits@D@std@@V?$allocator@D@2@@std@@QAE@ABV01@@Z
	mov	ecx, DWORD PTR __$EHRec$[esp+24]
	pop	edi
	mov	eax, esi
	pop	esi
	mov	DWORD PTR fs:0, ecx
	add	esp, 16					; 00000010H
	ret	4
_TEXT	ENDS
;	COMDAT text$x
text$x	SEGMENT
__unwindfunclet$??0logic_error@std@@QAE@ABV01@@Z$0:
	mov	ecx, DWORD PTR _this$[ebp]
	jmp	DWORD PTR __imp_??1exception@std@@UAE@XZ
__ehhandler$??0logic_error@std@@QAE@ABV01@@Z:
	mov	eax, OFFSET __ehfuncinfo$??0logic_error@std@@QAE@ABV01@@Z
	jmp	___CxxFrameHandler3
text$x	ENDS
??0logic_error@std@@QAE@ABV01@@Z ENDP			; std::logic_error::logic_error
; Function compile flags: /Ogtpy
;	COMDAT ??0length_error@std@@QAE@ABV01@@Z
_TEXT	SEGMENT
___that$ = 8						; size = 4
??0length_error@std@@QAE@ABV01@@Z PROC			; std::length_error::length_error, COMDAT
; _this$ = ecx
	mov	eax, DWORD PTR ___that$[esp-4]
	push	esi
	push	eax
	mov	esi, ecx
	call	??0logic_error@std@@QAE@ABV01@@Z
	mov	DWORD PTR [esi], OFFSET ??_7length_error@std@@6B@
	mov	eax, esi
	pop	esi
	ret	4
??0length_error@std@@QAE@ABV01@@Z ENDP			; std::length_error::length_error
_TEXT	ENDS
PUBLIC	??0?$_List_ptr@URequest@CvDiplomacyRequests@@V?$allocator@URequest@CvDiplomacyRequests@@@std@@@std@@IAE@V?$allocator@URequest@CvDiplomacyRequests@@@1@@Z ; std::_List_ptr<CvDiplomacyRequests::Request,std::allocator<CvDiplomacyRequests::Request> >::_List_ptr<CvDiplomacyRequests::Request,std::allocator<CvDiplomacyRequests::Request> >
; Function compile flags: /Ogtpy
;	COMDAT ??0?$_List_ptr@URequest@CvDiplomacyRequests@@V?$allocator@URequest@CvDiplomacyRequests@@@std@@@std@@IAE@V?$allocator@URequest@CvDiplomacyRequests@@@1@@Z
_TEXT	SEGMENT
__Al$ = 8						; size = 1
??0?$_List_ptr@URequest@CvDiplomacyRequests@@V?$allocator@URequest@CvDiplomacyRequests@@@std@@@std@@IAE@V?$allocator@URequest@CvDiplomacyRequests@@@1@@Z PROC ; std::_List_ptr<CvDiplomacyRequests::Request,std::allocator<CvDiplomacyRequests::Request> >::_List_ptr<CvDiplomacyRequests::Request,std::allocator<CvDiplomacyRequests::Request> >, COMDAT
; _this$ = ecx

; 67   : 		{	// construct base, and allocator from _Al

	mov	eax, ecx

; 68   : 		}

	ret	4
??0?$_List_ptr@URequest@CvDiplomacyRequests@@V?$allocator@URequest@CvDiplomacyRequests@@@std@@@std@@IAE@V?$allocator@URequest@CvDiplomacyRequests@@@1@@Z ENDP ; std::_List_ptr<CvDiplomacyRequests::Request,std::allocator<CvDiplomacyRequests::Request> >::_List_ptr<CvDiplomacyRequests::Request,std::allocator<CvDiplomacyRequests::Request> >
_TEXT	ENDS
PUBLIC	?construct@?$allocator@PAU_Node@?$_List_nod@URequest@CvDiplomacyRequests@@V?$allocator@URequest@CvDiplomacyRequests@@@std@@@std@@@std@@QAEXPAPAU_Node@?$_List_nod@URequest@CvDiplomacyRequests@@V?$allocator@URequest@CvDiplomacyRequests@@@std@@@2@ABQAU342@@Z ; std::allocator<std::_List_nod<CvDiplomacyRequests::Request,std::allocator<CvDiplomacyRequests::Request> >::_Node *>::construct
; Function compile flags: /Ogtpy
; File c:\program files (x86)\microsoft visual studio 9.0\vc\include\xmemory
;	COMDAT ?construct@?$allocator@PAU_Node@?$_List_nod@URequest@CvDiplomacyRequests@@V?$allocator@URequest@CvDiplomacyRequests@@@std@@@std@@@std@@QAEXPAPAU_Node@?$_List_nod@URequest@CvDiplomacyRequests@@V?$allocator@URequest@CvDiplomacyRequests@@@std@@@2@ABQAU342@@Z
_TEXT	SEGMENT
__Ptr$ = 8						; size = 4
__Val$ = 12						; size = 4
?construct@?$allocator@PAU_Node@?$_List_nod@URequest@CvDiplomacyRequests@@V?$allocator@URequest@CvDiplomacyRequests@@@std@@@std@@@std@@QAEXPAPAU_Node@?$_List_nod@URequest@CvDiplomacyRequests@@V?$allocator@URequest@CvDiplomacyRequests@@@std@@@2@ABQAU342@@Z PROC ; std::allocator<std::_List_nod<CvDiplomacyRequests::Request,std::allocator<CvDiplomacyRequests::Request> >::_Node *>::construct, COMDAT
; _this$ = ecx

; 155  : 		_Construct(_Ptr, _Val);

	mov	eax, DWORD PTR __Ptr$[esp-4]
	test	eax, eax
	je	SHORT $LN5@construct
	mov	ecx, DWORD PTR __Val$[esp-4]
	mov	edx, DWORD PTR [ecx]
	mov	DWORD PTR [eax], edx
$LN5@construct:

; 156  : 		}

	ret	8
?construct@?$allocator@PAU_Node@?$_List_nod@URequest@CvDiplomacyRequests@@V?$allocator@URequest@CvDiplomacyRequests@@@std@@@std@@@std@@QAEXPAPAU_Node@?$_List_nod@URequest@CvDiplomacyRequests@@V?$allocator@URequest@CvDiplomacyRequests@@@std@@@2@ABQAU342@@Z ENDP ; std::allocator<std::_List_nod<CvDiplomacyRequests::Request,std::allocator<CvDiplomacyRequests::Request> >::_Node *>::construct
_TEXT	ENDS
PUBLIC	??$_Construct@URequest@CvDiplomacyRequests@@U12@@std@@YAXPAURequest@CvDiplomacyRequests@@ABU12@@Z ; std::_Construct<CvDiplomacyRequests::Request,CvDiplomacyRequests::Request>
;	COMDAT xdata$x
; File c:\users\enormousapplepie\desktop\lekmod files\lekmod dll versions\v29\lekmod_dll\cvgamecoredll_expansion2\cvbuildingclasses.h
xdata$x	SEGMENT
__unwindtable$??$_Construct@URequest@CvDiplomacyRequests@@U12@@std@@YAXPAURequest@CvDiplomacyRequests@@ABU12@@Z DD 0ffffffffH
	DD	FLAT:__unwindfunclet$??$_Construct@URequest@CvDiplomacyRequests@@U12@@std@@YAXPAURequest@CvDiplomacyRequests@@ABU12@@Z$0
__ehfuncinfo$??$_Construct@URequest@CvDiplomacyRequests@@U12@@std@@YAXPAURequest@CvDiplomacyRequests@@ABU12@@Z DD 019930522H
	DD	01H
	DD	FLAT:__unwindtable$??$_Construct@URequest@CvDiplomacyRequests@@U12@@std@@YAXPAURequest@CvDiplomacyRequests@@ABU12@@Z
	DD	2 DUP(00H)
	DD	2 DUP(00H)
	DD	00H
	DD	01H
; Function compile flags: /Ogtpy
; File c:\program files (x86)\microsoft visual studio 9.0\vc\include\xmemory
xdata$x	ENDS
;	COMDAT ??$_Construct@URequest@CvDiplomacyRequests@@U12@@std@@YAXPAURequest@CvDiplomacyRequests@@ABU12@@Z
_TEXT	SEGMENT
$T222990 = -16						; size = 4
__$EHRec$ = -12						; size = 12
__Vptr$ = 8						; size = 4
__Ptr$ = 8						; size = 4
__Val$ = 12						; size = 4
??$_Construct@URequest@CvDiplomacyRequests@@U12@@std@@YAXPAURequest@CvDiplomacyRequests@@ABU12@@Z PROC ; std::_Construct<CvDiplomacyRequests::Request,CvDiplomacyRequests::Request>, COMDAT

; 50   : 	{	// construct object at _Ptr with value _Val

	push	-1
	push	__ehhandler$??$_Construct@URequest@CvDiplomacyRequests@@U12@@std@@YAXPAURequest@CvDiplomacyRequests@@ABU12@@Z
	mov	eax, DWORD PTR fs:0
	push	eax
	mov	DWORD PTR fs:0, esp
	push	ecx
	push	esi

; 51   : 	void _FARQ *_Vptr = _Ptr;

	mov	esi, DWORD PTR __Ptr$[esp+16]
	mov	DWORD PTR __Vptr$[esp+16], esi

; 52   : 	::new (_Vptr) _T1(_Val);

	mov	DWORD PTR $T222990[esp+20], esi
	mov	DWORD PTR __$EHRec$[esp+28], 0
	test	esi, esi
	je	SHORT $LN3@Construct@2
	push	edi
	mov	edi, DWORD PTR __Val$[esp+20]
	mov	eax, DWORD PTR [edi]
	mov	DWORD PTR [esi], eax
	mov	ecx, DWORD PTR [edi+4]
	lea	edx, DWORD PTR [edi+8]
	mov	DWORD PTR [esi+4], ecx
	push	edx
	lea	ecx, DWORD PTR [esi+8]
	call	DWORD PTR __imp_??0?$basic_string@DU?$char_traits@D@std@@V?$allocator@D@2@@std@@QAE@ABV01@@Z
	mov	eax, DWORD PTR [edi+36]
	mov	DWORD PTR [esi+36], eax
	mov	ecx, DWORD PTR [edi+40]
	mov	DWORD PTR [esi+40], ecx
	mov	edx, DWORD PTR [edi+44]
	mov	DWORD PTR [esi+44], edx
	mov	eax, DWORD PTR [edi+48]
	mov	DWORD PTR [esi+48], eax
	pop	edi
$LN3@Construct@2:

; 53   : 	}

	mov	ecx, DWORD PTR __$EHRec$[esp+20]
	pop	esi
	mov	DWORD PTR fs:0, ecx
	add	esp, 16					; 00000010H
	ret	0
_TEXT	ENDS
;	COMDAT text$x
text$x	SEGMENT
__unwindfunclet$??$_Construct@URequest@CvDiplomacyRequests@@U12@@std@@YAXPAURequest@CvDiplomacyRequests@@ABU12@@Z$0:
	mov	eax, DWORD PTR __Vptr$[ebp-4]
	push	eax
	mov	ecx, DWORD PTR $T222990[ebp]
	push	ecx
	call	??3@YAXPAX0@Z				; operator delete
	add	esp, 8
	ret	0
__ehhandler$??$_Construct@URequest@CvDiplomacyRequests@@U12@@std@@YAXPAURequest@CvDiplomacyRequests@@ABU12@@Z:
	mov	eax, OFFSET __ehfuncinfo$??$_Construct@URequest@CvDiplomacyRequests@@U12@@std@@YAXPAURequest@CvDiplomacyRequests@@ABU12@@Z
	jmp	___CxxFrameHandler3
text$x	ENDS
??$_Construct@URequest@CvDiplomacyRequests@@U12@@std@@YAXPAURequest@CvDiplomacyRequests@@ABU12@@Z ENDP ; std::_Construct<CvDiplomacyRequests::Request,CvDiplomacyRequests::Request>
PUBLIC	??_G_Node@?$_List_nod@URequest@CvDiplomacyRequests@@V?$allocator@URequest@CvDiplomacyRequests@@@std@@@std@@QAEPAXI@Z ; std::_List_nod<CvDiplomacyRequests::Request,std::allocator<CvDiplomacyRequests::Request> >::_Node::`scalar deleting destructor'
; Function compile flags: /Ogtpy
;	COMDAT ??_G_Node@?$_List_nod@URequest@CvDiplomacyRequests@@V?$allocator@URequest@CvDiplomacyRequests@@@std@@@std@@QAEPAXI@Z
_TEXT	SEGMENT
___flags$ = 8						; size = 4
??_G_Node@?$_List_nod@URequest@CvDiplomacyRequests@@V?$allocator@URequest@CvDiplomacyRequests@@@std@@@std@@QAEPAXI@Z PROC ; std::_List_nod<CvDiplomacyRequests::Request,std::allocator<CvDiplomacyRequests::Request> >::_Node::`scalar deleting destructor', COMDAT
; _this$ = ecx
	push	esi
	mov	esi, ecx
	lea	ecx, DWORD PTR [esi+16]
	call	DWORD PTR __imp_??1?$basic_string@DU?$char_traits@D@std@@V?$allocator@D@2@@std@@QAE@XZ
	test	BYTE PTR ___flags$[esp], 1
	je	SHORT $LN13@scalar@4
	push	esi
	call	??3@YAXPAX@Z				; operator delete
	add	esp, 4
$LN13@scalar@4:
	mov	eax, esi
	pop	esi
	ret	4
??_G_Node@?$_List_nod@URequest@CvDiplomacyRequests@@V?$allocator@URequest@CvDiplomacyRequests@@@std@@@std@@QAEPAXI@Z ENDP ; std::_List_nod<CvDiplomacyRequests::Request,std::allocator<CvDiplomacyRequests::Request> >::_Node::`scalar deleting destructor'
_TEXT	ENDS
PUBLIC	??1?$_List_val@URequest@CvDiplomacyRequests@@V?$allocator@URequest@CvDiplomacyRequests@@@std@@@std@@QAE@XZ ; std::_List_val<CvDiplomacyRequests::Request,std::allocator<CvDiplomacyRequests::Request> >::~_List_val<CvDiplomacyRequests::Request,std::allocator<CvDiplomacyRequests::Request> >
; Function compile flags: /Ogtpy
;	COMDAT ??1?$_List_val@URequest@CvDiplomacyRequests@@V?$allocator@URequest@CvDiplomacyRequests@@@std@@@std@@QAE@XZ
_TEXT	SEGMENT
??1?$_List_val@URequest@CvDiplomacyRequests@@V?$allocator@URequest@CvDiplomacyRequests@@@std@@@std@@QAE@XZ PROC ; std::_List_val<CvDiplomacyRequests::Request,std::allocator<CvDiplomacyRequests::Request> >::~_List_val<CvDiplomacyRequests::Request,std::allocator<CvDiplomacyRequests::Request> >, COMDAT
; _this$ = ecx
	ret	0
??1?$_List_val@URequest@CvDiplomacyRequests@@V?$allocator@URequest@CvDiplomacyRequests@@@std@@@std@@QAE@XZ ENDP ; std::_List_val<CvDiplomacyRequests::Request,std::allocator<CvDiplomacyRequests::Request> >::~_List_val<CvDiplomacyRequests::Request,std::allocator<CvDiplomacyRequests::Request> >
_TEXT	ENDS
PUBLIC	?_Buynode@?$list@URequest@CvDiplomacyRequests@@V?$allocator@URequest@CvDiplomacyRequests@@@std@@@std@@IAEPAU_Node@?$_List_nod@URequest@CvDiplomacyRequests@@V?$allocator@URequest@CvDiplomacyRequests@@@std@@@2@XZ ; std::list<CvDiplomacyRequests::Request,std::allocator<CvDiplomacyRequests::Request> >::_Buynode
; Function compile flags: /Ogtpy
; File c:\program files (x86)\microsoft visual studio 9.0\vc\include\list
;	COMDAT ?_Buynode@?$list@URequest@CvDiplomacyRequests@@V?$allocator@URequest@CvDiplomacyRequests@@@std@@@std@@IAEPAU_Node@?$_List_nod@URequest@CvDiplomacyRequests@@V?$allocator@URequest@CvDiplomacyRequests@@@std@@@2@XZ
_TEXT	SEGMENT
?_Buynode@?$list@URequest@CvDiplomacyRequests@@V?$allocator@URequest@CvDiplomacyRequests@@@std@@@std@@IAEPAU_Node@?$_List_nod@URequest@CvDiplomacyRequests@@V?$allocator@URequest@CvDiplomacyRequests@@@std@@@2@XZ PROC ; std::list<CvDiplomacyRequests::Request,std::allocator<CvDiplomacyRequests::Request> >::_Buynode, COMDAT
; _this$ = ecx

; 1172 : 		_Nodeptr _Pnode = this->_Alnod.allocate(1);

	push	60					; 0000003cH
	call	??2@YAPAXI@Z				; operator new
	add	esp, 4

; 1173 : 		int _Linkcnt = 0;
; 1174 : 
; 1175 : 		_TRY_BEGIN
; 1176 : 		this->_Alptr.construct(&_Nextnode(_Pnode), _Pnode);

	test	eax, eax
	je	SHORT $LN26@Buynode
	mov	DWORD PTR [eax], eax
$LN26@Buynode:

; 1177 : 		++_Linkcnt;
; 1178 : 		this->_Alptr.construct(&_Prevnode(_Pnode), _Pnode);

	lea	ecx, DWORD PTR [eax+4]
	test	ecx, ecx
	je	SHORT $LN36@Buynode
	mov	DWORD PTR [ecx], eax
$LN36@Buynode:

; 1179 : 		_CATCH_ALL
; 1180 : 		if (0 < _Linkcnt)
; 1181 : 			this->_Alptr.destroy(&_Nextnode(_Pnode));
; 1182 : 		this->_Alnod.deallocate(_Pnode, 1);
; 1183 : 		_RERAISE;
; 1184 : 		_CATCH_END
; 1185 : 		return (_Pnode);
; 1186 : 		}

	ret	0
?_Buynode@?$list@URequest@CvDiplomacyRequests@@V?$allocator@URequest@CvDiplomacyRequests@@@std@@@std@@IAEPAU_Node@?$_List_nod@URequest@CvDiplomacyRequests@@V?$allocator@URequest@CvDiplomacyRequests@@@std@@@2@XZ ENDP ; std::list<CvDiplomacyRequests::Request,std::allocator<CvDiplomacyRequests::Request> >::_Buynode
_TEXT	ENDS
PUBLIC	??0?$_List_val@URequest@CvDiplomacyRequests@@V?$allocator@URequest@CvDiplomacyRequests@@@std@@@std@@QAE@V?$allocator@URequest@CvDiplomacyRequests@@@1@@Z ; std::_List_val<CvDiplomacyRequests::Request,std::allocator<CvDiplomacyRequests::Request> >::_List_val<CvDiplomacyRequests::Request,std::allocator<CvDiplomacyRequests::Request> >
; Function compile flags: /Ogtpy
;	COMDAT ??0?$_List_val@URequest@CvDiplomacyRequests@@V?$allocator@URequest@CvDiplomacyRequests@@@std@@@std@@QAE@V?$allocator@URequest@CvDiplomacyRequests@@@1@@Z
_TEXT	SEGMENT
__Al$ = 8						; size = 1
??0?$_List_val@URequest@CvDiplomacyRequests@@V?$allocator@URequest@CvDiplomacyRequests@@@std@@@std@@QAE@V?$allocator@URequest@CvDiplomacyRequests@@@1@@Z PROC ; std::_List_val<CvDiplomacyRequests::Request,std::allocator<CvDiplomacyRequests::Request> >::_List_val<CvDiplomacyRequests::Request,std::allocator<CvDiplomacyRequests::Request> >, COMDAT
; _this$ = ecx

; 85   : 		{	// construct base, and allocator from _Al

	mov	eax, ecx

; 86   : 		}

	ret	4
??0?$_List_val@URequest@CvDiplomacyRequests@@V?$allocator@URequest@CvDiplomacyRequests@@@std@@@std@@QAE@V?$allocator@URequest@CvDiplomacyRequests@@@1@@Z ENDP ; std::_List_val<CvDiplomacyRequests::Request,std::allocator<CvDiplomacyRequests::Request> >::_List_val<CvDiplomacyRequests::Request,std::allocator<CvDiplomacyRequests::Request> >
_TEXT	ENDS
PUBLIC	?construct@?$allocator@URequest@CvDiplomacyRequests@@@std@@QAEXPAURequest@CvDiplomacyRequests@@ABU34@@Z ; std::allocator<CvDiplomacyRequests::Request>::construct
; Function compile flags: /Ogtpy
; File c:\program files (x86)\microsoft visual studio 9.0\vc\include\xmemory
;	COMDAT ?construct@?$allocator@URequest@CvDiplomacyRequests@@@std@@QAEXPAURequest@CvDiplomacyRequests@@ABU34@@Z
_TEXT	SEGMENT
__Ptr$ = 8						; size = 4
__Val$ = 12						; size = 4
?construct@?$allocator@URequest@CvDiplomacyRequests@@@std@@QAEXPAURequest@CvDiplomacyRequests@@ABU34@@Z PROC ; std::allocator<CvDiplomacyRequests::Request>::construct, COMDAT
; _this$ = ecx

; 155  : 		_Construct(_Ptr, _Val);

	mov	eax, DWORD PTR __Val$[esp-4]
	mov	ecx, DWORD PTR __Ptr$[esp-4]
	push	eax
	push	ecx
	call	??$_Construct@URequest@CvDiplomacyRequests@@U12@@std@@YAXPAURequest@CvDiplomacyRequests@@ABU12@@Z ; std::_Construct<CvDiplomacyRequests::Request,CvDiplomacyRequests::Request>
	add	esp, 8

; 156  : 		}

	ret	8
?construct@?$allocator@URequest@CvDiplomacyRequests@@@std@@QAEXPAURequest@CvDiplomacyRequests@@ABU34@@Z ENDP ; std::allocator<CvDiplomacyRequests::Request>::construct
_TEXT	ENDS
PUBLIC	??$_Destroy@U_Node@?$_List_nod@URequest@CvDiplomacyRequests@@V?$allocator@URequest@CvDiplomacyRequests@@@std@@@std@@@std@@YAXPAU_Node@?$_List_nod@URequest@CvDiplomacyRequests@@V?$allocator@URequest@CvDiplomacyRequests@@@std@@@0@@Z ; std::_Destroy<std::_List_nod<CvDiplomacyRequests::Request,std::allocator<CvDiplomacyRequests::Request> >::_Node>
; Function compile flags: /Ogtpy
;	COMDAT ??$_Destroy@U_Node@?$_List_nod@URequest@CvDiplomacyRequests@@V?$allocator@URequest@CvDiplomacyRequests@@@std@@@std@@@std@@YAXPAU_Node@?$_List_nod@URequest@CvDiplomacyRequests@@V?$allocator@URequest@CvDiplomacyRequests@@@std@@@0@@Z
_TEXT	SEGMENT
__Ptr$ = 8						; size = 4
??$_Destroy@U_Node@?$_List_nod@URequest@CvDiplomacyRequests@@V?$allocator@URequest@CvDiplomacyRequests@@@std@@@std@@@std@@YAXPAU_Node@?$_List_nod@URequest@CvDiplomacyRequests@@V?$allocator@URequest@CvDiplomacyRequests@@@std@@@0@@Z PROC ; std::_Destroy<std::_List_nod<CvDiplomacyRequests::Request,std::allocator<CvDiplomacyRequests::Request> >::_Node>, COMDAT

; 59   : 	_DESTRUCTOR(_Ty, _Ptr);

	mov	ecx, DWORD PTR __Ptr$[esp-4]
	add	ecx, 16					; 00000010H
	jmp	DWORD PTR __imp_??1?$basic_string@DU?$char_traits@D@std@@V?$allocator@D@2@@std@@QAE@XZ
??$_Destroy@U_Node@?$_List_nod@URequest@CvDiplomacyRequests@@V?$allocator@URequest@CvDiplomacyRequests@@@std@@@std@@@std@@YAXPAU_Node@?$_List_nod@URequest@CvDiplomacyRequests@@V?$allocator@URequest@CvDiplomacyRequests@@@std@@@0@@Z ENDP ; std::_Destroy<std::_List_nod<CvDiplomacyRequests::Request,std::allocator<CvDiplomacyRequests::Request> >::_Node>
_TEXT	ENDS
PUBLIC	??0?$list@URequest@CvDiplomacyRequests@@V?$allocator@URequest@CvDiplomacyRequests@@@std@@@std@@QAE@XZ ; std::list<CvDiplomacyRequests::Request,std::allocator<CvDiplomacyRequests::Request> >::list<CvDiplomacyRequests::Request,std::allocator<CvDiplomacyRequests::Request> >
; Function compile flags: /Ogtpy
; File c:\program files (x86)\microsoft visual studio 9.0\vc\include\list
;	COMDAT ??0?$list@URequest@CvDiplomacyRequests@@V?$allocator@URequest@CvDiplomacyRequests@@@std@@@std@@QAE@XZ
_TEXT	SEGMENT
??0?$list@URequest@CvDiplomacyRequests@@V?$allocator@URequest@CvDiplomacyRequests@@@std@@@std@@QAE@XZ PROC ; std::list<CvDiplomacyRequests::Request,std::allocator<CvDiplomacyRequests::Request> >::list<CvDiplomacyRequests::Request,std::allocator<CvDiplomacyRequests::Request> >, COMDAT
; _this$ = ecx

; 436  : 		{	// construct empty list

	push	esi
	mov	esi, ecx
	call	?_Buynode@?$list@URequest@CvDiplomacyRequests@@V?$allocator@URequest@CvDiplomacyRequests@@@std@@@std@@IAEPAU_Node@?$_List_nod@URequest@CvDiplomacyRequests@@V?$allocator@URequest@CvDiplomacyRequests@@@std@@@2@XZ ; std::list<CvDiplomacyRequests::Request,std::allocator<CvDiplomacyRequests::Request> >::_Buynode
	mov	DWORD PTR [esi+4], eax
	mov	DWORD PTR [esi+8], 0

; 437  : 		}

	mov	eax, esi
	pop	esi
	ret	0
??0?$list@URequest@CvDiplomacyRequests@@V?$allocator@URequest@CvDiplomacyRequests@@@std@@@std@@QAE@XZ ENDP ; std::list<CvDiplomacyRequests::Request,std::allocator<CvDiplomacyRequests::Request> >::list<CvDiplomacyRequests::Request,std::allocator<CvDiplomacyRequests::Request> >
_TEXT	ENDS
PUBLIC	?destroy@?$allocator@U_Node@?$_List_nod@URequest@CvDiplomacyRequests@@V?$allocator@URequest@CvDiplomacyRequests@@@std@@@std@@@std@@QAEXPAU_Node@?$_List_nod@URequest@CvDiplomacyRequests@@V?$allocator@URequest@CvDiplomacyRequests@@@std@@@2@@Z ; std::allocator<std::_List_nod<CvDiplomacyRequests::Request,std::allocator<CvDiplomacyRequests::Request> >::_Node>::destroy
; Function compile flags: /Ogtpy
; File c:\program files (x86)\microsoft visual studio 9.0\vc\include\xmemory
;	COMDAT ?destroy@?$allocator@U_Node@?$_List_nod@URequest@CvDiplomacyRequests@@V?$allocator@URequest@CvDiplomacyRequests@@@std@@@std@@@std@@QAEXPAU_Node@?$_List_nod@URequest@CvDiplomacyRequests@@V?$allocator@URequest@CvDiplomacyRequests@@@std@@@2@@Z
_TEXT	SEGMENT
__Ptr$ = 8						; size = 4
?destroy@?$allocator@U_Node@?$_List_nod@URequest@CvDiplomacyRequests@@V?$allocator@URequest@CvDiplomacyRequests@@@std@@@std@@@std@@QAEXPAU_Node@?$_List_nod@URequest@CvDiplomacyRequests@@V?$allocator@URequest@CvDiplomacyRequests@@@std@@@2@@Z PROC ; std::allocator<std::_List_nod<CvDiplomacyRequests::Request,std::allocator<CvDiplomacyRequests::Request> >::_Node>::destroy, COMDAT
; _this$ = ecx

; 160  : 		_Destroy(_Ptr);

	mov	ecx, DWORD PTR __Ptr$[esp-4]
	add	ecx, 16					; 00000010H
	call	DWORD PTR __imp_??1?$basic_string@DU?$char_traits@D@std@@V?$allocator@D@2@@std@@QAE@XZ

; 161  : 		}

	ret	4
?destroy@?$allocator@U_Node@?$_List_nod@URequest@CvDiplomacyRequests@@V?$allocator@URequest@CvDiplomacyRequests@@@std@@@std@@@std@@QAEXPAU_Node@?$_List_nod@URequest@CvDiplomacyRequests@@V?$allocator@URequest@CvDiplomacyRequests@@@std@@@2@@Z ENDP ; std::allocator<std::_List_nod<CvDiplomacyRequests::Request,std::allocator<CvDiplomacyRequests::Request> >::_Node>::destroy
_TEXT	ENDS
PUBLIC	?_Buynode@?$list@URequest@CvDiplomacyRequests@@V?$allocator@URequest@CvDiplomacyRequests@@@std@@@std@@IAEPAU_Node@?$_List_nod@URequest@CvDiplomacyRequests@@V?$allocator@URequest@CvDiplomacyRequests@@@std@@@2@PAU342@0ABURequest@CvDiplomacyRequests@@@Z ; std::list<CvDiplomacyRequests::Request,std::allocator<CvDiplomacyRequests::Request> >::_Buynode
;	COMDAT xdata$x
xdata$x	SEGMENT
__catchsym$?_Buynode@?$list@URequest@CvDiplomacyRequests@@V?$allocator@URequest@CvDiplomacyRequests@@@std@@@std@@IAEPAU_Node@?$_List_nod@URequest@CvDiplomacyRequests@@V?$allocator@URequest@CvDiplomacyRequests@@@std@@@2@PAU342@0ABURequest@CvDiplomacyRequests@@@Z$2 DD 040H
	DD	00H
	DD	00H
	DD	FLAT:__catch$?_Buynode@?$list@URequest@CvDiplomacyRequests@@V?$allocator@URequest@CvDiplomacyRequests@@@std@@@std@@IAEPAU_Node@?$_List_nod@URequest@CvDiplomacyRequests@@V?$allocator@URequest@CvDiplomacyRequests@@@std@@@2@PAU342@0ABURequest@CvDiplomacyRequests@@@Z$0
__unwindtable$?_Buynode@?$list@URequest@CvDiplomacyRequests@@V?$allocator@URequest@CvDiplomacyRequests@@@std@@@std@@IAEPAU_Node@?$_List_nod@URequest@CvDiplomacyRequests@@V?$allocator@URequest@CvDiplomacyRequests@@@std@@@2@PAU342@0ABURequest@CvDiplomacyRequests@@@Z DD 0ffffffffH
	DD	00H
	DD	0ffffffffH
	DD	00H
__tryblocktable$?_Buynode@?$list@URequest@CvDiplomacyRequests@@V?$allocator@URequest@CvDiplomacyRequests@@@std@@@std@@IAEPAU_Node@?$_List_nod@URequest@CvDiplomacyRequests@@V?$allocator@URequest@CvDiplomacyRequests@@@std@@@2@PAU342@0ABURequest@CvDiplomacyRequests@@@Z DD 00H
	DD	00H
	DD	01H
	DD	01H
	DD	FLAT:__catchsym$?_Buynode@?$list@URequest@CvDiplomacyRequests@@V?$allocator@URequest@CvDiplomacyRequests@@@std@@@std@@IAEPAU_Node@?$_List_nod@URequest@CvDiplomacyRequests@@V?$allocator@URequest@CvDiplomacyRequests@@@std@@@2@PAU342@0ABURequest@CvDiplomacyRequests@@@Z$2
__ehfuncinfo$?_Buynode@?$list@URequest@CvDiplomacyRequests@@V?$allocator@URequest@CvDiplomacyRequests@@@std@@@std@@IAEPAU_Node@?$_List_nod@URequest@CvDiplomacyRequests@@V?$allocator@URequest@CvDiplomacyRequests@@@std@@@2@PAU342@0ABURequest@CvDiplomacyRequests@@@Z DD 019930522H
	DD	02H
	DD	FLAT:__unwindtable$?_Buynode@?$list@URequest@CvDiplomacyRequests@@V?$allocator@URequest@CvDiplomacyRequests@@@std@@@std@@IAEPAU_Node@?$_List_nod@URequest@CvDiplomacyRequests@@V?$allocator@URequest@CvDiplomacyRequests@@@std@@@2@PAU342@0ABURequest@CvDiplomacyRequests@@@Z
	DD	01H
	DD	FLAT:__tryblocktable$?_Buynode@?$list@URequest@CvDiplomacyRequests@@V?$allocator@URequest@CvDiplomacyRequests@@@std@@@std@@IAEPAU_Node@?$_List_nod@URequest@CvDiplomacyRequests@@V?$allocator@URequest@CvDiplomacyRequests@@@std@@@2@PAU342@0ABURequest@CvDiplomacyRequests@@@Z
	DD	2 DUP(00H)
	DD	00H
	DD	01H
; Function compile flags: /Ogtpy
; File c:\program files (x86)\microsoft visual studio 9.0\vc\include\list
xdata$x	ENDS
;	COMDAT ?_Buynode@?$list@URequest@CvDiplomacyRequests@@V?$allocator@URequest@CvDiplomacyRequests@@@std@@@std@@IAEPAU_Node@?$_List_nod@URequest@CvDiplomacyRequests@@V?$allocator@URequest@CvDiplomacyRequests@@@std@@@2@PAU342@0ABURequest@CvDiplomacyRequests@@@Z
_TEXT	SEGMENT
__Pnode$ = -20						; size = 4
__$EHRec$ = -16						; size = 16
__Next$ = 8						; size = 4
__Prev$ = 12						; size = 4
__Val$ = 16						; size = 4
?_Buynode@?$list@URequest@CvDiplomacyRequests@@V?$allocator@URequest@CvDiplomacyRequests@@@std@@@std@@IAEPAU_Node@?$_List_nod@URequest@CvDiplomacyRequests@@V?$allocator@URequest@CvDiplomacyRequests@@@std@@@2@PAU342@0ABURequest@CvDiplomacyRequests@@@Z PROC ; std::list<CvDiplomacyRequests::Request,std::allocator<CvDiplomacyRequests::Request> >::_Buynode, COMDAT
; _this$ = ecx

; 1190 : 		{	// allocate a node and set links and value

	push	ebp
	mov	ebp, esp
	push	-1
	push	__ehhandler$?_Buynode@?$list@URequest@CvDiplomacyRequests@@V?$allocator@URequest@CvDiplomacyRequests@@@std@@@std@@IAEPAU_Node@?$_List_nod@URequest@CvDiplomacyRequests@@V?$allocator@URequest@CvDiplomacyRequests@@@std@@@2@PAU342@0ABURequest@CvDiplomacyRequests@@@Z
	mov	eax, DWORD PTR fs:0
	push	eax
	mov	DWORD PTR fs:0, esp
	sub	esp, 8
	push	ebx
	push	esi
	push	edi
	mov	DWORD PTR __$EHRec$[ebp], esp

; 1191 : 		_Nodeptr _Pnode = this->_Alnod.allocate(1);

	push	60					; 0000003cH
	call	??2@YAPAXI@Z				; operator new
	mov	esi, eax
	add	esp, 4
	mov	DWORD PTR __Pnode$[ebp], esi

; 1192 : 		int _Linkcnt = 0;
; 1193 : 
; 1194 : 		_TRY_BEGIN

	mov	DWORD PTR __$EHRec$[ebp+12], 0

; 1195 : 		this->_Alptr.construct(&_Nextnode(_Pnode), _Next);

	test	esi, esi
	je	SHORT $LN27@Buynode@2
	mov	eax, DWORD PTR __Next$[ebp]
	mov	DWORD PTR [esi], eax
$LN27@Buynode@2:

; 1196 : 		++_Linkcnt;
; 1197 : 		this->_Alptr.construct(&_Prevnode(_Pnode), _Prev);

	lea	eax, DWORD PTR [esi+4]
	test	eax, eax
	je	SHORT $LN37@Buynode@2
	mov	ecx, DWORD PTR __Prev$[ebp]
	mov	DWORD PTR [eax], ecx
$LN37@Buynode@2:

; 1198 : 		++_Linkcnt;
; 1199 : 		this->_Alval.construct(&_Myval(_Pnode), _Val);

	mov	edx, DWORD PTR __Val$[ebp]
	push	edx
	lea	eax, DWORD PTR [esi+8]
	push	eax
	call	??$_Construct@URequest@CvDiplomacyRequests@@U12@@std@@YAXPAURequest@CvDiplomacyRequests@@ABU12@@Z ; std::_Construct<CvDiplomacyRequests::Request,CvDiplomacyRequests::Request>

; 1207 : 		_CATCH_END
; 1208 : 		return (_Pnode);
; 1209 : 		}

	mov	ecx, DWORD PTR __$EHRec$[ebp+4]
	add	esp, 8
	pop	edi
	mov	eax, esi
	pop	esi
	mov	DWORD PTR fs:0, ecx
	pop	ebx
	mov	esp, ebp
	pop	ebp
	ret	12					; 0000000cH
__catch$?_Buynode@?$list@URequest@CvDiplomacyRequests@@V?$allocator@URequest@CvDiplomacyRequests@@@std@@@std@@IAEPAU_Node@?$_List_nod@URequest@CvDiplomacyRequests@@V?$allocator@URequest@CvDiplomacyRequests@@@std@@@2@PAU342@0ABURequest@CvDiplomacyRequests@@@Z$0:

; 1200 : 		_CATCH_ALL
; 1201 : 		if (1 < _Linkcnt)
; 1202 : 			this->_Alptr.destroy(&_Prevnode(_Pnode));
; 1203 : 		if (0 < _Linkcnt)
; 1204 : 			this->_Alptr.destroy(&_Nextnode(_Pnode));
; 1205 : 		this->_Alnod.deallocate(_Pnode, 1);

	mov	ecx, DWORD PTR __Pnode$[ebp]
	push	ecx
	call	??3@YAXPAX@Z				; operator delete
	add	esp, 4

; 1206 : 		_RERAISE;

	push	0
	push	0
	call	__CxxThrowException@8
$LN54@Buynode@2:
$LN53@Buynode@2:
	int	3
_TEXT	ENDS
;	COMDAT text$x
text$x	SEGMENT
__ehhandler$?_Buynode@?$list@URequest@CvDiplomacyRequests@@V?$allocator@URequest@CvDiplomacyRequests@@@std@@@std@@IAEPAU_Node@?$_List_nod@URequest@CvDiplomacyRequests@@V?$allocator@URequest@CvDiplomacyRequests@@@std@@@2@PAU342@0ABURequest@CvDiplomacyRequests@@@Z:
	mov	eax, OFFSET __ehfuncinfo$?_Buynode@?$list@URequest@CvDiplomacyRequests@@V?$allocator@URequest@CvDiplomacyRequests@@@std@@@std@@IAEPAU_Node@?$_List_nod@URequest@CvDiplomacyRequests@@V?$allocator@URequest@CvDiplomacyRequests@@@std@@@2@PAU342@0ABURequest@CvDiplomacyRequests@@@Z
	jmp	___CxxFrameHandler3
text$x	ENDS
?_Buynode@?$list@URequest@CvDiplomacyRequests@@V?$allocator@URequest@CvDiplomacyRequests@@@std@@@std@@IAEPAU_Node@?$_List_nod@URequest@CvDiplomacyRequests@@V?$allocator@URequest@CvDiplomacyRequests@@@std@@@2@PAU342@0ABURequest@CvDiplomacyRequests@@@Z ENDP ; std::list<CvDiplomacyRequests::Request,std::allocator<CvDiplomacyRequests::Request> >::_Buynode
PUBLIC	?clear@?$list@URequest@CvDiplomacyRequests@@V?$allocator@URequest@CvDiplomacyRequests@@@std@@@std@@QAEXXZ ; std::list<CvDiplomacyRequests::Request,std::allocator<CvDiplomacyRequests::Request> >::clear
; Function compile flags: /Ogtpy
;	COMDAT ?clear@?$list@URequest@CvDiplomacyRequests@@V?$allocator@URequest@CvDiplomacyRequests@@@std@@@std@@QAEXXZ
_TEXT	SEGMENT
?clear@?$list@URequest@CvDiplomacyRequests@@V?$allocator@URequest@CvDiplomacyRequests@@@std@@@std@@QAEXXZ PROC ; std::list<CvDiplomacyRequests::Request,std::allocator<CvDiplomacyRequests::Request> >::clear, COMDAT
; _this$ = ecx

; 825  : 		{	// erase all

	push	esi
	push	edi
	mov	edi, ecx

; 826  : 
; 827  :  #if _HAS_ITERATOR_DEBUGGING
; 828  : 		this->_Orphan_ptr(*this, 0);
; 829  :  #endif /* _HAS_ITERATOR_DEBUGGING */
; 830  : 
; 831  : 		_Nodeptr _Pnext;
; 832  : 		_Nodeptr _Pnode = _Nextnode(_Myhead);

	mov	eax, DWORD PTR [edi+4]
	mov	esi, DWORD PTR [eax]

; 833  : 		_Nextnode(_Myhead) = _Myhead;

	mov	DWORD PTR [eax], eax

; 834  : 		_Prevnode(_Myhead) = _Myhead;

	mov	eax, DWORD PTR [edi+4]
	mov	DWORD PTR [eax+4], eax

; 835  : 		_Mysize = 0;

	mov	DWORD PTR [edi+8], 0

; 836  : 
; 837  : 		for (; _Pnode != _Myhead; _Pnode = _Pnext)

	cmp	esi, DWORD PTR [edi+4]
	je	SHORT $LN1@clear
	push	ebx
	npad	2
$LL3@clear:

; 838  : 			{	// delete an element
; 839  : 			_Pnext = _Nextnode(_Pnode);

	mov	ebx, DWORD PTR [esi]

; 840  : 			this->_Alnod.destroy(_Pnode);

	lea	ecx, DWORD PTR [esi+16]
	call	DWORD PTR __imp_??1?$basic_string@DU?$char_traits@D@std@@V?$allocator@D@2@@std@@QAE@XZ

; 841  : 			this->_Alnod.deallocate(_Pnode, 1);

	push	esi
	call	??3@YAXPAX@Z				; operator delete
	add	esp, 4
	mov	esi, ebx
	cmp	ebx, DWORD PTR [edi+4]
	jne	SHORT $LL3@clear
	pop	ebx
$LN1@clear:
	pop	edi
	pop	esi

; 842  : 			}
; 843  : 		}

	ret	0
?clear@?$list@URequest@CvDiplomacyRequests@@V?$allocator@URequest@CvDiplomacyRequests@@@std@@@std@@QAEXXZ ENDP ; std::list<CvDiplomacyRequests::Request,std::allocator<CvDiplomacyRequests::Request> >::clear
_TEXT	ENDS
PUBLIC	?_Insert@?$list@URequest@CvDiplomacyRequests@@V?$allocator@URequest@CvDiplomacyRequests@@@std@@@std@@QAEXV?$_Const_iterator@$0A@@12@ABURequest@CvDiplomacyRequests@@@Z ; std::list<CvDiplomacyRequests::Request,std::allocator<CvDiplomacyRequests::Request> >::_Insert
; Function compile flags: /Ogtpy
;	COMDAT ?_Insert@?$list@URequest@CvDiplomacyRequests@@V?$allocator@URequest@CvDiplomacyRequests@@@std@@@std@@QAEXV?$_Const_iterator@$0A@@12@ABURequest@CvDiplomacyRequests@@@Z
_TEXT	SEGMENT
__Where$ = 8						; size = 4
__Val$ = 12						; size = 4
?_Insert@?$list@URequest@CvDiplomacyRequests@@V?$allocator@URequest@CvDiplomacyRequests@@@std@@@std@@QAEXV?$_Const_iterator@$0A@@12@ABURequest@CvDiplomacyRequests@@@Z PROC ; std::list<CvDiplomacyRequests::Request,std::allocator<CvDiplomacyRequests::Request> >::_Insert, COMDAT
; _this$ = ecx

; 711  : 
; 712  :  #if _HAS_ITERATOR_DEBUGGING
; 713  : 		if (_Where._Mycont != this)
; 714  : 			_DEBUG_ERROR("list insert iterator outside range");
; 715  :  #endif /* _HAS_ITERATOR_DEBUGGING */
; 716  : 
; 717  : 		_Nodeptr _Pnode = _Where._Mynode();
; 718  : 		_Nodeptr _Newnode = _Buynode(_Pnode, _Prevnode(_Pnode), _Val);

	mov	eax, DWORD PTR __Where$[esp-4]
	mov	edx, DWORD PTR [eax+4]
	push	ebx
	push	esi
	push	edi
	mov	edi, ecx
	mov	ecx, DWORD PTR __Val$[esp+8]
	lea	ebx, DWORD PTR [eax+4]
	push	ecx
	push	edx
	push	eax
	mov	ecx, edi
	call	?_Buynode@?$list@URequest@CvDiplomacyRequests@@V?$allocator@URequest@CvDiplomacyRequests@@@std@@@std@@IAEPAU_Node@?$_List_nod@URequest@CvDiplomacyRequests@@V?$allocator@URequest@CvDiplomacyRequests@@@std@@@2@PAU342@0ABURequest@CvDiplomacyRequests@@@Z ; std::list<CvDiplomacyRequests::Request,std::allocator<CvDiplomacyRequests::Request> >::_Buynode

; 719  : 		_Incsize(1);

	push	1
	mov	ecx, edi
	mov	esi, eax
	call	?_Incsize@?$list@URequest@CvDiplomacyRequests@@V?$allocator@URequest@CvDiplomacyRequests@@@std@@@std@@IAEXI@Z ; std::list<CvDiplomacyRequests::Request,std::allocator<CvDiplomacyRequests::Request> >::_Incsize

; 720  : 		_Prevnode(_Pnode) = _Newnode;

	mov	DWORD PTR [ebx], esi

; 721  : 		_Nextnode(_Prevnode(_Newnode)) = _Newnode;

	mov	eax, DWORD PTR [esi+4]
	pop	edi
	mov	DWORD PTR [eax], esi
	pop	esi
	pop	ebx

; 722  : 		}

	ret	8
?_Insert@?$list@URequest@CvDiplomacyRequests@@V?$allocator@URequest@CvDiplomacyRequests@@@std@@@std@@QAEXV?$_Const_iterator@$0A@@12@ABURequest@CvDiplomacyRequests@@@Z ENDP ; std::list<CvDiplomacyRequests::Request,std::allocator<CvDiplomacyRequests::Request> >::_Insert
_TEXT	ENDS
PUBLIC	?erase@?$list@URequest@CvDiplomacyRequests@@V?$allocator@URequest@CvDiplomacyRequests@@@std@@@std@@QAE?AV?$_Iterator@$0A@@12@V?$_Const_iterator@$0A@@12@@Z ; std::list<CvDiplomacyRequests::Request,std::allocator<CvDiplomacyRequests::Request> >::erase
; Function compile flags: /Ogtpy
;	COMDAT ?erase@?$list@URequest@CvDiplomacyRequests@@V?$allocator@URequest@CvDiplomacyRequests@@@std@@@std@@QAE?AV?$_Iterator@$0A@@12@V?$_Const_iterator@$0A@@12@@Z
_TEXT	SEGMENT
___$ReturnUdt$ = 8					; size = 4
__Where$ = 12						; size = 4
?erase@?$list@URequest@CvDiplomacyRequests@@V?$allocator@URequest@CvDiplomacyRequests@@@std@@@std@@QAE?AV?$_Iterator@$0A@@12@V?$_Const_iterator@$0A@@12@@Z PROC ; std::list<CvDiplomacyRequests::Request,std::allocator<CvDiplomacyRequests::Request> >::erase, COMDAT
; _this$ = ecx

; 786  : 		{	// erase element at _Where

	push	esi

; 787  : 
; 788  :  #if _HAS_ITERATOR_DEBUGGING
; 789  : 		if (_Where._Mycont != this || _Where._Ptr == _Myhead)
; 790  : 			_DEBUG_ERROR("list erase iterator outside range");
; 791  : 		_Nodeptr _Pnode = (_Where++)._Mynode();
; 792  : 		_Orphan_ptr(*this, _Pnode);
; 793  : 
; 794  :  #else /* _HAS_ITERATOR_DEBUGGING */
; 795  : 		_Nodeptr _Pnode = (_Where++)._Mynode();

	mov	esi, DWORD PTR __Where$[esp]
	push	edi
	mov	edi, ecx
	mov	ecx, DWORD PTR [esi]
	mov	DWORD PTR __Where$[esp+4], ecx

; 796  :  #endif /* _HAS_ITERATOR_DEBUGGING */
; 797  : 
; 798  : 		if (_Pnode != _Myhead)

	cmp	esi, DWORD PTR [edi+4]
	je	SHORT $LN48@erase

; 799  : 			{	// not list head, safe to erase
; 800  : 			_Nextnode(_Prevnode(_Pnode)) = _Nextnode(_Pnode);

	mov	eax, DWORD PTR [esi+4]
	mov	ecx, DWORD PTR [esi]
	mov	DWORD PTR [eax], ecx

; 801  : 			_Prevnode(_Nextnode(_Pnode)) = _Prevnode(_Pnode);

	mov	edx, DWORD PTR [esi]
	mov	eax, DWORD PTR [esi+4]

; 802  : 			this->_Alnod.destroy(_Pnode);

	lea	ecx, DWORD PTR [esi+16]
	mov	DWORD PTR [edx+4], eax
	call	DWORD PTR __imp_??1?$basic_string@DU?$char_traits@D@std@@V?$allocator@D@2@@std@@QAE@XZ

; 803  : 			this->_Alnod.deallocate(_Pnode, 1);

	push	esi
	call	??3@YAXPAX@Z				; operator delete

; 804  : 			--_Mysize;
; 805  : 			}
; 806  : 		return (_Make_iter(_Where));

	mov	ecx, DWORD PTR __Where$[esp+8]
	add	esp, 4
	dec	DWORD PTR [edi+8]
$LN48@erase:
	mov	eax, DWORD PTR ___$ReturnUdt$[esp+4]
	pop	edi
	mov	DWORD PTR [eax], ecx
	pop	esi

; 807  : 		}

	ret	8
?erase@?$list@URequest@CvDiplomacyRequests@@V?$allocator@URequest@CvDiplomacyRequests@@@std@@@std@@QAE?AV?$_Iterator@$0A@@12@V?$_Const_iterator@$0A@@12@@Z ENDP ; std::list<CvDiplomacyRequests::Request,std::allocator<CvDiplomacyRequests::Request> >::erase
_TEXT	ENDS
PUBLIC	?_Tidy@?$list@URequest@CvDiplomacyRequests@@V?$allocator@URequest@CvDiplomacyRequests@@@std@@@std@@IAEXXZ ; std::list<CvDiplomacyRequests::Request,std::allocator<CvDiplomacyRequests::Request> >::_Tidy
; Function compile flags: /Ogtpy
;	COMDAT ?_Tidy@?$list@URequest@CvDiplomacyRequests@@V?$allocator@URequest@CvDiplomacyRequests@@@std@@@std@@IAEXXZ
_TEXT	SEGMENT
?_Tidy@?$list@URequest@CvDiplomacyRequests@@V?$allocator@URequest@CvDiplomacyRequests@@@std@@@std@@IAEXXZ PROC ; std::list<CvDiplomacyRequests::Request,std::allocator<CvDiplomacyRequests::Request> >::_Tidy, COMDAT
; _this$ = ecx

; 1212 : 		{	// free all storage

	push	esi
	mov	esi, ecx

; 1213 : 		clear();

	call	?clear@?$list@URequest@CvDiplomacyRequests@@V?$allocator@URequest@CvDiplomacyRequests@@@std@@@std@@QAEXXZ ; std::list<CvDiplomacyRequests::Request,std::allocator<CvDiplomacyRequests::Request> >::clear

; 1214 : 		this->_Alptr.destroy(&_Nextnode(_Myhead));
; 1215 : 		this->_Alptr.destroy(&_Prevnode(_Myhead));
; 1216 : 		this->_Alnod.deallocate(_Myhead, 1);

	mov	eax, DWORD PTR [esi+4]
	push	eax
	call	??3@YAXPAX@Z				; operator delete
	add	esp, 4

; 1217 : 		_Myhead = 0;

	mov	DWORD PTR [esi+4], 0
	pop	esi

; 1218 : 		}

	ret	0
?_Tidy@?$list@URequest@CvDiplomacyRequests@@V?$allocator@URequest@CvDiplomacyRequests@@@std@@@std@@IAEXXZ ENDP ; std::list<CvDiplomacyRequests::Request,std::allocator<CvDiplomacyRequests::Request> >::_Tidy
_TEXT	ENDS
PUBLIC	?Uninit@CvDiplomacyRequests@@QAEXXZ		; CvDiplomacyRequests::Uninit
; Function compile flags: /Ogtpy
; File c:\users\enormousapplepie\desktop\lekmod files\lekmod dll versions\v29\lekmod_dll\cvgamecoredll_expansion2\cvdiplomacyrequests.cpp
;	COMDAT ?Uninit@CvDiplomacyRequests@@QAEXXZ
_TEXT	SEGMENT
?Uninit@CvDiplomacyRequests@@QAEXXZ PROC		; CvDiplomacyRequests::Uninit, COMDAT
; _this$ = ecx

; 81   : {

	push	esi
	mov	esi, ecx

; 82   : 	m_ePlayer = NO_PLAYER;
; 83   : 	m_eNextAIPlayer = NO_PLAYER;
; 84   : 	m_aRequests.clear();

	lea	ecx, DWORD PTR [esi+8]
	mov	DWORD PTR [esi], -1
	mov	DWORD PTR [esi+4], -1
	call	?clear@?$list@URequest@CvDiplomacyRequests@@V?$allocator@URequest@CvDiplomacyRequests@@@std@@@std@@QAEXXZ ; std::list<CvDiplomacyRequests::Request,std::allocator<CvDiplomacyRequests::Request> >::clear

; 85   : 	m_bRequestActive = false;

	mov	BYTE PTR [esi+24], 0

; 86   : 	m_bRequestActiveFromPlayer = NO_PLAYER;

	mov	DWORD PTR [esi+20], -1
	pop	esi

; 87   : }

	ret	0
?Uninit@CvDiplomacyRequests@@QAEXXZ ENDP		; CvDiplomacyRequests::Uninit
_TEXT	ENDS
PUBLIC	??1?$list@URequest@CvDiplomacyRequests@@V?$allocator@URequest@CvDiplomacyRequests@@@std@@@std@@QAE@XZ ; std::list<CvDiplomacyRequests::Request,std::allocator<CvDiplomacyRequests::Request> >::~list<CvDiplomacyRequests::Request,std::allocator<CvDiplomacyRequests::Request> >
; Function compile flags: /Ogtpy
; File c:\program files (x86)\microsoft visual studio 9.0\vc\include\list
;	COMDAT ??1?$list@URequest@CvDiplomacyRequests@@V?$allocator@URequest@CvDiplomacyRequests@@@std@@@std@@QAE@XZ
_TEXT	SEGMENT
??1?$list@URequest@CvDiplomacyRequests@@V?$allocator@URequest@CvDiplomacyRequests@@@std@@@std@@QAE@XZ PROC ; std::list<CvDiplomacyRequests::Request,std::allocator<CvDiplomacyRequests::Request> >::~list<CvDiplomacyRequests::Request,std::allocator<CvDiplomacyRequests::Request> >, COMDAT
; _this$ = ecx

; 520  : 		{	// destroy the object

	push	esi
	mov	esi, ecx

; 521  : 		_Tidy();

	call	?clear@?$list@URequest@CvDiplomacyRequests@@V?$allocator@URequest@CvDiplomacyRequests@@@std@@@std@@QAEXXZ ; std::list<CvDiplomacyRequests::Request,std::allocator<CvDiplomacyRequests::Request> >::clear
	mov	eax, DWORD PTR [esi+4]
	push	eax
	call	??3@YAXPAX@Z				; operator delete
	add	esp, 4
	mov	DWORD PTR [esi+4], 0
	pop	esi

; 522  : 		}

	ret	0
??1?$list@URequest@CvDiplomacyRequests@@V?$allocator@URequest@CvDiplomacyRequests@@@std@@@std@@QAE@XZ ENDP ; std::list<CvDiplomacyRequests::Request,std::allocator<CvDiplomacyRequests::Request> >::~list<CvDiplomacyRequests::Request,std::allocator<CvDiplomacyRequests::Request> >
_TEXT	ENDS
PUBLIC	?pop_front@?$list@URequest@CvDiplomacyRequests@@V?$allocator@URequest@CvDiplomacyRequests@@@std@@@std@@QAEXXZ ; std::list<CvDiplomacyRequests::Request,std::allocator<CvDiplomacyRequests::Request> >::pop_front
; Function compile flags: /Ogtpy
;	COMDAT ?pop_front@?$list@URequest@CvDiplomacyRequests@@V?$allocator@URequest@CvDiplomacyRequests@@@std@@@std@@QAEXXZ
_TEXT	SEGMENT
?pop_front@?$list@URequest@CvDiplomacyRequests@@V?$allocator@URequest@CvDiplomacyRequests@@@std@@@std@@QAEXXZ PROC ; std::list<CvDiplomacyRequests::Request,std::allocator<CvDiplomacyRequests::Request> >::pop_front, COMDAT
; _this$ = ecx

; 664  : 		{	// erase element at beginning

	push	esi
	push	edi
	mov	edi, ecx

; 665  : 		erase(begin());

	mov	eax, DWORD PTR [edi+4]
	mov	esi, DWORD PTR [eax]
	cmp	esi, eax
	je	SHORT $LN11@pop_front
	mov	eax, DWORD PTR [esi+4]
	mov	ecx, DWORD PTR [esi]
	mov	DWORD PTR [eax], ecx
	mov	edx, DWORD PTR [esi]
	mov	eax, DWORD PTR [esi+4]
	lea	ecx, DWORD PTR [esi+16]
	mov	DWORD PTR [edx+4], eax
	call	DWORD PTR __imp_??1?$basic_string@DU?$char_traits@D@std@@V?$allocator@D@2@@std@@QAE@XZ
	push	esi
	call	??3@YAXPAX@Z				; operator delete
	add	esp, 4
	dec	DWORD PTR [edi+8]
$LN11@pop_front:
	pop	edi
	pop	esi

; 666  : 		}

	ret	0
?pop_front@?$list@URequest@CvDiplomacyRequests@@V?$allocator@URequest@CvDiplomacyRequests@@@std@@@std@@QAEXXZ ENDP ; std::list<CvDiplomacyRequests::Request,std::allocator<CvDiplomacyRequests::Request> >::pop_front
_TEXT	ENDS
PUBLIC	?push_back@?$list@URequest@CvDiplomacyRequests@@V?$allocator@URequest@CvDiplomacyRequests@@@std@@@std@@QAEXABURequest@CvDiplomacyRequests@@@Z ; std::list<CvDiplomacyRequests::Request,std::allocator<CvDiplomacyRequests::Request> >::push_back
; Function compile flags: /Ogtpy
;	COMDAT ?push_back@?$list@URequest@CvDiplomacyRequests@@V?$allocator@URequest@CvDiplomacyRequests@@@std@@@std@@QAEXABURequest@CvDiplomacyRequests@@@Z
_TEXT	SEGMENT
__Val$ = 8						; size = 4
?push_back@?$list@URequest@CvDiplomacyRequests@@V?$allocator@URequest@CvDiplomacyRequests@@@std@@@std@@QAEXABURequest@CvDiplomacyRequests@@@Z PROC ; std::list<CvDiplomacyRequests::Request,std::allocator<CvDiplomacyRequests::Request> >::push_back, COMDAT
; _this$ = ecx

; 670  : 		_Insert(end(), _Val);

	mov	eax, DWORD PTR __Val$[esp-4]
	push	ebx
	push	esi
	push	edi
	mov	esi, ecx
	mov	edi, DWORD PTR [esi+4]
	mov	ecx, DWORD PTR [edi+4]
	push	eax
	push	ecx
	push	edi
	mov	ecx, esi
	call	?_Buynode@?$list@URequest@CvDiplomacyRequests@@V?$allocator@URequest@CvDiplomacyRequests@@@std@@@std@@IAEPAU_Node@?$_List_nod@URequest@CvDiplomacyRequests@@V?$allocator@URequest@CvDiplomacyRequests@@@std@@@2@PAU342@0ABURequest@CvDiplomacyRequests@@@Z ; std::list<CvDiplomacyRequests::Request,std::allocator<CvDiplomacyRequests::Request> >::_Buynode
	push	1
	mov	ecx, esi
	mov	ebx, eax
	call	?_Incsize@?$list@URequest@CvDiplomacyRequests@@V?$allocator@URequest@CvDiplomacyRequests@@@std@@@std@@IAEXI@Z ; std::list<CvDiplomacyRequests::Request,std::allocator<CvDiplomacyRequests::Request> >::_Incsize
	mov	DWORD PTR [edi+4], ebx
	mov	edx, DWORD PTR [ebx+4]
	pop	edi
	pop	esi
	mov	DWORD PTR [edx], ebx
	pop	ebx

; 671  : 		}

	ret	4
?push_back@?$list@URequest@CvDiplomacyRequests@@V?$allocator@URequest@CvDiplomacyRequests@@@std@@@std@@QAEXABURequest@CvDiplomacyRequests@@@Z ENDP ; std::list<CvDiplomacyRequests::Request,std::allocator<CvDiplomacyRequests::Request> >::push_back
_TEXT	ENDS
PUBLIC	??0CvDiplomacyRequests@@QAE@XZ			; CvDiplomacyRequests::CvDiplomacyRequests
;	COMDAT xdata$x
; File c:\users\enormousapplepie\desktop\lekmod files\lekmod dll versions\v29\lekmod_dll\cvgamecoredll_expansion2\cvdiplomacyrequests.cpp
xdata$x	SEGMENT
__unwindtable$??0CvDiplomacyRequests@@QAE@XZ DD 0ffffffffH
	DD	FLAT:__unwindfunclet$??0CvDiplomacyRequests@@QAE@XZ$0
__ehfuncinfo$??0CvDiplomacyRequests@@QAE@XZ DD 019930522H
	DD	01H
	DD	FLAT:__unwindtable$??0CvDiplomacyRequests@@QAE@XZ
	DD	2 DUP(00H)
	DD	2 DUP(00H)
	DD	00H
	DD	01H
; Function compile flags: /Ogtpy
xdata$x	ENDS
;	COMDAT ??0CvDiplomacyRequests@@QAE@XZ
_TEXT	SEGMENT
_this$ = -16						; size = 4
__$EHRec$ = -12						; size = 12
??0CvDiplomacyRequests@@QAE@XZ PROC			; CvDiplomacyRequests::CvDiplomacyRequests, COMDAT
; _this$ = ecx

; 60   : {

	push	-1
	push	__ehhandler$??0CvDiplomacyRequests@@QAE@XZ
	mov	eax, DWORD PTR fs:0
	push	eax
	mov	DWORD PTR fs:0, esp
	push	ecx
	push	esi
	mov	esi, ecx
	push	edi
	lea	edi, DWORD PTR [esi+8]
	mov	ecx, edi
	mov	DWORD PTR _this$[esp+24], esi
	call	?_Buynode@?$list@URequest@CvDiplomacyRequests@@V?$allocator@URequest@CvDiplomacyRequests@@@std@@@std@@IAEPAU_Node@?$_List_nod@URequest@CvDiplomacyRequests@@V?$allocator@URequest@CvDiplomacyRequests@@@std@@@2@XZ ; std::list<CvDiplomacyRequests::Request,std::allocator<CvDiplomacyRequests::Request> >::_Buynode
	mov	DWORD PTR [edi+4], eax
	mov	DWORD PTR [edi+8], 0

; 61   : 	Uninit();

	mov	ecx, edi
	mov	DWORD PTR __$EHRec$[esp+32], 0
	mov	DWORD PTR [esi], -1
	mov	DWORD PTR [esi+4], -1
	call	?clear@?$list@URequest@CvDiplomacyRequests@@V?$allocator@URequest@CvDiplomacyRequests@@@std@@@std@@QAEXXZ ; std::list<CvDiplomacyRequests::Request,std::allocator<CvDiplomacyRequests::Request> >::clear

; 62   : }

	mov	ecx, DWORD PTR __$EHRec$[esp+24]
	mov	BYTE PTR [esi+24], 0
	mov	DWORD PTR [esi+20], -1
	pop	edi
	mov	eax, esi
	pop	esi
	mov	DWORD PTR fs:0, ecx
	add	esp, 16					; 00000010H
	ret	0
_TEXT	ENDS
;	COMDAT text$x
text$x	SEGMENT
__unwindfunclet$??0CvDiplomacyRequests@@QAE@XZ$0:
	mov	ecx, DWORD PTR _this$[ebp]
	add	ecx, 8
	jmp	??1?$list@URequest@CvDiplomacyRequests@@V?$allocator@URequest@CvDiplomacyRequests@@@std@@@std@@QAE@XZ ; std::list<CvDiplomacyRequests::Request,std::allocator<CvDiplomacyRequests::Request> >::~list<CvDiplomacyRequests::Request,std::allocator<CvDiplomacyRequests::Request> >
__ehhandler$??0CvDiplomacyRequests@@QAE@XZ:
	mov	eax, OFFSET __ehfuncinfo$??0CvDiplomacyRequests@@QAE@XZ
	jmp	___CxxFrameHandler3
text$x	ENDS
??0CvDiplomacyRequests@@QAE@XZ ENDP			; CvDiplomacyRequests::CvDiplomacyRequests
PUBLIC	??1CvDiplomacyRequests@@QAE@XZ			; CvDiplomacyRequests::~CvDiplomacyRequests
;	COMDAT xdata$x
; File c:\program files (x86)\microsoft visual studio 9.0\vc\include\xmemory
xdata$x	SEGMENT
__unwindtable$??1CvDiplomacyRequests@@QAE@XZ DD 0ffffffffH
	DD	FLAT:__unwindfunclet$??1CvDiplomacyRequests@@QAE@XZ$0
__ehfuncinfo$??1CvDiplomacyRequests@@QAE@XZ DD 019930522H
	DD	01H
	DD	FLAT:__unwindtable$??1CvDiplomacyRequests@@QAE@XZ
	DD	2 DUP(00H)
	DD	2 DUP(00H)
	DD	00H
	DD	01H
; Function compile flags: /Ogtpy
; File c:\users\enormousapplepie\desktop\lekmod files\lekmod dll versions\v29\lekmod_dll\cvgamecoredll_expansion2\cvdiplomacyrequests.cpp
xdata$x	ENDS
;	COMDAT ??1CvDiplomacyRequests@@QAE@XZ
_TEXT	SEGMENT
_this$ = -16						; size = 4
__$EHRec$ = -12						; size = 12
??1CvDiplomacyRequests@@QAE@XZ PROC			; CvDiplomacyRequests::~CvDiplomacyRequests, COMDAT
; _this$ = ecx

; 66   : {

	push	-1
	push	__ehhandler$??1CvDiplomacyRequests@@QAE@XZ
	mov	eax, DWORD PTR fs:0
	push	eax
	mov	DWORD PTR fs:0, esp
	push	ecx
	push	esi
	mov	esi, ecx
	push	edi
	mov	DWORD PTR _this$[esp+24], esi

; 67   : 	Uninit();

	lea	edi, DWORD PTR [esi+8]
	mov	ecx, edi
	mov	DWORD PTR __$EHRec$[esp+32], 0
	mov	DWORD PTR [esi], -1
	mov	DWORD PTR [esi+4], -1
	call	?clear@?$list@URequest@CvDiplomacyRequests@@V?$allocator@URequest@CvDiplomacyRequests@@@std@@@std@@QAEXXZ ; std::list<CvDiplomacyRequests::Request,std::allocator<CvDiplomacyRequests::Request> >::clear

; 68   : }

	mov	ecx, edi
	mov	BYTE PTR [esi+24], 0
	mov	DWORD PTR [esi+20], -1
	mov	DWORD PTR __$EHRec$[esp+32], -1
	call	?clear@?$list@URequest@CvDiplomacyRequests@@V?$allocator@URequest@CvDiplomacyRequests@@@std@@@std@@QAEXXZ ; std::list<CvDiplomacyRequests::Request,std::allocator<CvDiplomacyRequests::Request> >::clear
	mov	eax, DWORD PTR [edi+4]
	push	eax
	call	??3@YAXPAX@Z				; operator delete
	mov	ecx, DWORD PTR __$EHRec$[esp+28]
	add	esp, 4
	mov	DWORD PTR [edi+4], 0
	pop	edi
	pop	esi
	mov	DWORD PTR fs:0, ecx
	add	esp, 16					; 00000010H
	ret	0
_TEXT	ENDS
;	COMDAT text$x
text$x	SEGMENT
__unwindfunclet$??1CvDiplomacyRequests@@QAE@XZ$0:
	mov	ecx, DWORD PTR _this$[ebp]
	add	ecx, 8
	jmp	??1?$list@URequest@CvDiplomacyRequests@@V?$allocator@URequest@CvDiplomacyRequests@@@std@@@std@@QAE@XZ ; std::list<CvDiplomacyRequests::Request,std::allocator<CvDiplomacyRequests::Request> >::~list<CvDiplomacyRequests::Request,std::allocator<CvDiplomacyRequests::Request> >
__ehhandler$??1CvDiplomacyRequests@@QAE@XZ:
	mov	eax, OFFSET __ehfuncinfo$??1CvDiplomacyRequests@@QAE@XZ
	jmp	___CxxFrameHandler3
text$x	ENDS
??1CvDiplomacyRequests@@QAE@XZ ENDP			; CvDiplomacyRequests::~CvDiplomacyRequests
PUBLIC	?Init@CvDiplomacyRequests@@QAEXW4PlayerTypes@@@Z ; CvDiplomacyRequests::Init
; Function compile flags: /Ogtpy
;	COMDAT ?Init@CvDiplomacyRequests@@QAEXW4PlayerTypes@@@Z
_TEXT	SEGMENT
_ePlayer$ = 8						; size = 4
?Init@CvDiplomacyRequests@@QAEXW4PlayerTypes@@@Z PROC	; CvDiplomacyRequests::Init, COMDAT
; _this$ = ecx

; 72   : {

	push	esi
	mov	esi, ecx
	push	edi

; 73   : 	Uninit();

	lea	edi, DWORD PTR [esi+8]
	mov	ecx, edi
	mov	DWORD PTR [esi], -1
	mov	DWORD PTR [esi+4], -1
	call	?clear@?$list@URequest@CvDiplomacyRequests@@V?$allocator@URequest@CvDiplomacyRequests@@@std@@@std@@QAEXXZ ; std::list<CvDiplomacyRequests::Request,std::allocator<CvDiplomacyRequests::Request> >::clear

; 74   : 	m_ePlayer = ePlayer;

	mov	eax, DWORD PTR _ePlayer$[esp+4]

; 75   : 
; 76   : 	m_aRequests.clear();

	mov	ecx, edi
	mov	BYTE PTR [esi+24], 0
	mov	DWORD PTR [esi+20], -1
	mov	DWORD PTR [esi], eax
	call	?clear@?$list@URequest@CvDiplomacyRequests@@V?$allocator@URequest@CvDiplomacyRequests@@@std@@@std@@QAEXXZ ; std::list<CvDiplomacyRequests::Request,std::allocator<CvDiplomacyRequests::Request> >::clear
	pop	edi
	pop	esi

; 77   : }

	ret	4
?Init@CvDiplomacyRequests@@QAEXW4PlayerTypes@@@Z ENDP	; CvDiplomacyRequests::Init
_TEXT	ENDS
PUBLIC	?Read@CvDiplomacyRequests@@QAEXAAVFDataStream@@@Z ; CvDiplomacyRequests::Read
;	COMDAT xdata$x
; File c:\users\enormousapplepie\desktop\lekmod files\lekmod dll versions\v29\lekmod_dll\fireplace\include\fireworks\fdatastream.h
xdata$x	SEGMENT
__unwindtable$?Read@CvDiplomacyRequests@@QAEXAAVFDataStream@@@Z DD 0ffffffffH
	DD	FLAT:__unwindfunclet$?Read@CvDiplomacyRequests@@QAEXAAVFDataStream@@@Z$0
__ehfuncinfo$?Read@CvDiplomacyRequests@@QAEXAAVFDataStream@@@Z DD 019930522H
	DD	01H
	DD	FLAT:__unwindtable$?Read@CvDiplomacyRequests@@QAEXAAVFDataStream@@@Z
	DD	2 DUP(00H)
	DD	2 DUP(00H)
	DD	00H
	DD	01H
; Function compile flags: /Ogtpy
; File c:\users\enormousapplepie\desktop\lekmod files\lekmod dll versions\v29\lekmod_dll\cvgamecoredll_expansion2\cvdiplomacyrequests.cpp
xdata$x	ENDS
;	COMDAT ?Read@CvDiplomacyRequests@@QAEXAAVFDataStream@@@Z
_TEXT	SEGMENT
_uiListSize$ = -76					; size = 4
_this$ = -72						; size = 4
_uiVersion$ = -68					; size = 4
$T224181 = -64						; size = 52
__$EHRec$ = -12						; size = 12
_ui$221275 = 8						; size = 4
_kStream$ = 8						; size = 4
?Read@CvDiplomacyRequests@@QAEXAAVFDataStream@@@Z PROC	; CvDiplomacyRequests::Read, COMDAT
; _this$ = ecx

; 91   : {

	push	-1
	push	__ehhandler$?Read@CvDiplomacyRequests@@QAEXAAVFDataStream@@@Z
	mov	eax, DWORD PTR fs:0
	push	eax
	mov	DWORD PTR fs:0, esp
	sub	esp, 64					; 00000040H
	push	ebp
	push	edi

; 92   : 	// Version number to maintain backwards compatibility
; 93   : 	uint uiVersion;
; 94   : 	kStream >> uiVersion;

	mov	edi, DWORD PTR _kStream$[esp+80]
	mov	ebp, ecx
	lea	eax, DWORD PTR _uiVersion$[esp+84]
	push	eax
	mov	ecx, edi
	mov	DWORD PTR _this$[esp+88], ebp
	call	?Read@FDataStream@@IAEXAAI@Z		; FDataStream::Read

; 95   : 
; 96   : 	kStream >> m_ePlayer;

	push	ebp
	push	edi
	call	??5@YAAAVFDataStream@@AAV0@AAW4PlayerTypes@@@Z ; operator>>
	add	esp, 8

; 97   : 
; 98   : 	uint uiListSize;
; 99   : 	kStream >> uiListSize;

	lea	ecx, DWORD PTR _uiListSize$[esp+84]
	push	ecx
	mov	ecx, edi
	call	?Read@FDataStream@@IAEXAAI@Z		; FDataStream::Read

; 100  : 
; 101  : 	if(uiListSize > 0)

	mov	eax, DWORD PTR _uiListSize$[esp+84]
	test	eax, eax
	jbe	$LN1@Read
	push	ebx

; 102  : 	{
; 103  : 		for(uint ui = 0; ui < uiListSize; ui++)

	mov	DWORD PTR _ui$221275[esp+84], 0
	add	ebp, 8
	push	esi
	npad	1
$LL76@Read:

; 104  : 		{
; 105  : 			m_aRequests.push_back(Request());

	lea	ecx, DWORD PTR $T224181[esp+100]
	call	DWORD PTR __imp_??0?$basic_string@DU?$char_traits@D@std@@V?$allocator@D@2@@std@@QAE@XZ
	mov	esi, DWORD PTR [ebp+4]
	mov	eax, DWORD PTR [esi+4]
	lea	edx, DWORD PTR $T224181[esp+92]
	push	edx
	push	eax
	push	esi
	mov	ecx, ebp
	mov	DWORD PTR __$EHRec$[esp+112], 0
	call	?_Buynode@?$list@URequest@CvDiplomacyRequests@@V?$allocator@URequest@CvDiplomacyRequests@@@std@@@std@@IAEPAU_Node@?$_List_nod@URequest@CvDiplomacyRequests@@V?$allocator@URequest@CvDiplomacyRequests@@@std@@@2@PAU342@0ABURequest@CvDiplomacyRequests@@@Z ; std::list<CvDiplomacyRequests::Request,std::allocator<CvDiplomacyRequests::Request> >::_Buynode
	push	1
	mov	ecx, ebp
	mov	ebx, eax
	call	?_Incsize@?$list@URequest@CvDiplomacyRequests@@V?$allocator@URequest@CvDiplomacyRequests@@@std@@@std@@IAEXI@Z ; std::list<CvDiplomacyRequests::Request,std::allocator<CvDiplomacyRequests::Request> >::_Incsize
	mov	DWORD PTR [esi+4], ebx
	mov	eax, DWORD PTR [ebx+4]
	lea	ecx, DWORD PTR $T224181[esp+100]
	mov	DWORD PTR [eax], ebx
	mov	DWORD PTR __$EHRec$[esp+100], -1
	call	DWORD PTR __imp_??1?$basic_string@DU?$char_traits@D@std@@V?$allocator@D@2@@std@@QAE@XZ

; 106  : 			kStream >> m_aRequests.back();

	mov	ecx, DWORD PTR _this$[esp+92]
	mov	edx, DWORD PTR [ecx+12]
	mov	esi, DWORD PTR [edx+4]
	add	esi, 8
	push	esi
	push	edi
	call	??5@YAAAVFDataStream@@AAV0@AAW4DiploUIStateTypes@@@Z ; operator>>
	lea	eax, DWORD PTR [esi+36]
	push	eax
	push	edi
	call	??5@YAAAVFDataStream@@AAV0@AAW4LeaderheadAnimationTypes@@@Z ; operator>>
	add	esp, 16					; 00000010H
	lea	ecx, DWORD PTR [esi+8]
	push	ecx
	mov	ecx, edi
	call	?Read@FDataStream@@IAEXAAV?$basic_string@DU?$char_traits@D@std@@V?$allocator@D@2@@std@@@Z ; FDataStream::Read
	lea	edx, DWORD PTR [esi+48]
	push	edx
	mov	ecx, edi
	call	?Read@FDataStream@@IAEXAAH@Z		; FDataStream::Read
	lea	eax, DWORD PTR [esi+40]
	push	eax
	mov	ecx, edi
	call	?Read@FDataStream@@IAEXAAH@Z		; FDataStream::Read
	lea	ecx, DWORD PTR [esi+44]
	push	ecx
	mov	ecx, edi
	call	?Read@FDataStream@@IAEXAAH@Z		; FDataStream::Read
	add	esi, 4
	push	esi
	push	edi
	call	??5@YAAAVFDataStream@@AAV0@AAW4PlayerTypes@@@Z ; operator>>
	mov	eax, DWORD PTR _ui$221275[esp+96]
	inc	eax
	add	esp, 8
	mov	DWORD PTR _ui$221275[esp+88], eax
	cmp	eax, DWORD PTR _uiListSize$[esp+92]
	jb	$LL76@Read
	pop	esi
	pop	ebx
$LN1@Read:

; 107  : 		}
; 108  : 	}
; 109  : }

	mov	ecx, DWORD PTR __$EHRec$[esp+84]
	pop	edi
	pop	ebp
	mov	DWORD PTR fs:0, ecx
	add	esp, 76					; 0000004cH
	ret	4
_TEXT	ENDS
;	COMDAT text$x
text$x	SEGMENT
__unwindfunclet$?Read@CvDiplomacyRequests@@QAEXAAVFDataStream@@@Z$0:
	lea	ecx, DWORD PTR $T224181[ebp]
	jmp	??1Request@CvDiplomacyRequests@@QAE@XZ
__ehhandler$?Read@CvDiplomacyRequests@@QAEXAAVFDataStream@@@Z:
	mov	eax, OFFSET __ehfuncinfo$?Read@CvDiplomacyRequests@@QAEXAAVFDataStream@@@Z
	jmp	___CxxFrameHandler3
text$x	ENDS
?Read@CvDiplomacyRequests@@QAEXAAVFDataStream@@@Z ENDP	; CvDiplomacyRequests::Read
PUBLIC	?Update@CvDiplomacyRequests@@QAEXXZ		; CvDiplomacyRequests::Update
EXTRN	?isTurnActive@CvPlayer@@QBE_NXZ:PROC		; CvPlayer::isTurnActive
EXTRN	?getActivePlayer@CvGame@@QBE?AW4PlayerTypes@@XZ:PROC ; CvGame::getActivePlayer
; Function compile flags: /Ogtpy
;	COMDAT ?Update@CvDiplomacyRequests@@QAEXXZ
_TEXT	SEGMENT
?Update@CvDiplomacyRequests@@QAEXXZ PROC		; CvDiplomacyRequests::Update, COMDAT
; _this$ = ecx

; 132  : {

	push	edi
	mov	edi, ecx

; 133  : 	PlayerTypes eActivePlayer = GC.getGame().getActivePlayer();

	mov	ecx, DWORD PTR ?gGlobals@@3VCvGlobals@@A+48
	call	?getActivePlayer@CvGame@@QBE?AW4PlayerTypes@@XZ ; CvGame::getActivePlayer

; 134  : 	// If we are active, send out the requests
; 135  : 	if(m_aRequests.size() && m_ePlayer == eActivePlayer && GET_PLAYER(eActivePlayer).isTurnActive())

	cmp	DWORD PTR [edi+16], 0
	je	SHORT $LN2@Update
	cmp	DWORD PTR [edi], eax
	jne	SHORT $LN2@Update
	imul	eax, 63236				; 0000f704H
	add	eax, DWORD PTR ?m_aPlayers@CvPlayerAI@@1PAV1@A ; CvPlayerAI::m_aPlayers
	mov	ecx, eax
	call	?isTurnActive@CvPlayer@@QBE_NXZ		; CvPlayer::isTurnActive
	test	al, al
	je	SHORT $LN2@Update

; 136  : 	{
; 137  : 		CvDiplomacyRequests::Request& kRequest = m_aRequests.front();

	mov	eax, DWORD PTR [edi+12]
	push	esi
	mov	esi, DWORD PTR [eax]

; 138  : 
; 139  : 		// Make sure the player this is from is still alive.
; 140  : 		if(kRequest.m_eFromPlayer != NO_PLAYER && GET_PLAYER(kRequest.m_eFromPlayer).isAlive())

	mov	eax, DWORD PTR [esi+12]
	add	esi, 8
	cmp	eax, -1
	je	SHORT $LN1@Update
	mov	ecx, DWORD PTR ?m_aPlayers@CvPlayerAI@@1PAV1@A ; CvPlayerAI::m_aPlayers
	imul	eax, 63236				; 0000f704H
	cmp	BYTE PTR [eax+ecx+2256], 0
	je	SHORT $LN1@Update

; 141  : 		{
; 142  : 			Send(kRequest.m_eFromPlayer, kRequest.m_eDiploType, kRequest.m_strMessage, kRequest.m_eAnimationType, kRequest.m_iExtraGameData);

	lea	ecx, DWORD PTR [esi+8]
	call	DWORD PTR __imp_?c_str@?$basic_string@DU?$char_traits@D@std@@V?$allocator@D@2@@std@@QBEPBDXZ
	mov	edx, DWORD PTR [esi+48]
	mov	ecx, DWORD PTR [esi+36]
	push	edx
	mov	edx, DWORD PTR [esi]
	push	ecx
	push	eax
	mov	eax, DWORD PTR [esi+4]
	push	edx
	push	eax
	mov	ecx, edi
	call	?Send@CvDiplomacyRequests@@IAEXW4PlayerTypes@@W4DiploUIStateTypes@@PBDW4LeaderheadAnimationTypes@@H@Z ; CvDiplomacyRequests::Send
$LN1@Update:
	pop	esi

; 143  : 		}
; 144  : 		m_aRequests.pop_front();

	lea	ecx, DWORD PTR [edi+8]
	pop	edi
	jmp	?pop_front@?$list@URequest@CvDiplomacyRequests@@V?$allocator@URequest@CvDiplomacyRequests@@@std@@@std@@QAEXXZ ; std::list<CvDiplomacyRequests::Request,std::allocator<CvDiplomacyRequests::Request> >::pop_front
$LN2@Update:
	pop	edi

; 145  : 	}
; 146  : }

	ret	0
?Update@CvDiplomacyRequests@@QAEXXZ ENDP		; CvDiplomacyRequests::Update
_TEXT	ENDS
PUBLIC	?Add@CvDiplomacyRequests@@QAE_NW4PlayerTypes@@W4DiploUIStateTypes@@PBDW4LeaderheadAnimationTypes@@H@Z ; CvDiplomacyRequests::Add
EXTRN	?getGameTurn@CvGame@@QAEHXZ:PROC		; CvGame::getGameTurn
;	COMDAT xdata$x
; File c:\users\enormousapplepie\desktop\lekmod files\lekmod dll versions\v29\lekmod_dll\cvgamecoredll_expansion2\cvglobals.h
xdata$x	SEGMENT
__unwindtable$?Add@CvDiplomacyRequests@@QAE_NW4PlayerTypes@@W4DiploUIStateTypes@@PBDW4LeaderheadAnimationTypes@@H@Z DD 0ffffffffH
	DD	FLAT:__unwindfunclet$?Add@CvDiplomacyRequests@@QAE_NW4PlayerTypes@@W4DiploUIStateTypes@@PBDW4LeaderheadAnimationTypes@@H@Z$0
__ehfuncinfo$?Add@CvDiplomacyRequests@@QAE_NW4PlayerTypes@@W4DiploUIStateTypes@@PBDW4LeaderheadAnimationTypes@@H@Z DD 019930522H
	DD	01H
	DD	FLAT:__unwindtable$?Add@CvDiplomacyRequests@@QAE_NW4PlayerTypes@@W4DiploUIStateTypes@@PBDW4LeaderheadAnimationTypes@@H@Z
	DD	2 DUP(00H)
	DD	2 DUP(00H)
	DD	00H
	DD	01H
; Function compile flags: /Ogtpy
; File c:\users\enormousapplepie\desktop\lekmod files\lekmod dll versions\v29\lekmod_dll\cvgamecoredll_expansion2\cvdiplomacyrequests.cpp
xdata$x	ENDS
;	COMDAT ?Add@CvDiplomacyRequests@@QAE_NW4PlayerTypes@@W4DiploUIStateTypes@@PBDW4LeaderheadAnimationTypes@@H@Z
_TEXT	SEGMENT
$T224482 = -64						; size = 52
__$EHRec$ = -12						; size = 12
_eFromPlayer$ = 8					; size = 4
_eDiploType$ = 12					; size = 4
_pszMessage$ = 16					; size = 4
_eAnimationType$ = 20					; size = 4
_iExtraGameData$ = 24					; size = 4
?Add@CvDiplomacyRequests@@QAE_NW4PlayerTypes@@W4DiploUIStateTypes@@PBDW4LeaderheadAnimationTypes@@H@Z PROC ; CvDiplomacyRequests::Add, COMDAT
; _this$ = ecx

; 165  : {

	push	-1
	push	__ehhandler$?Add@CvDiplomacyRequests@@QAE_NW4PlayerTypes@@W4DiploUIStateTypes@@PBDW4LeaderheadAnimationTypes@@H@Z
	mov	eax, DWORD PTR fs:0
	push	eax
	mov	DWORD PTR fs:0, esp
	sub	esp, 52					; 00000034H
	push	ebx
	push	ebp
	push	esi
	mov	ebp, ecx
	push	edi

; 166  : 	// Queue it up
; 167  : 	m_aRequests.push_back(Request());

	lea	ecx, DWORD PTR $T224482[esp+88]
	call	DWORD PTR __imp_??0?$basic_string@DU?$char_traits@D@std@@V?$allocator@D@2@@std@@QAE@XZ
	mov	edi, DWORD PTR [ebp+12]
	mov	ecx, DWORD PTR [edi+4]
	lea	esi, DWORD PTR [ebp+8]
	lea	eax, DWORD PTR $T224482[esp+80]
	push	eax
	push	ecx
	push	edi
	mov	ecx, esi
	mov	DWORD PTR __$EHRec$[esp+100], 0
	call	?_Buynode@?$list@URequest@CvDiplomacyRequests@@V?$allocator@URequest@CvDiplomacyRequests@@@std@@@std@@IAEPAU_Node@?$_List_nod@URequest@CvDiplomacyRequests@@V?$allocator@URequest@CvDiplomacyRequests@@@std@@@2@PAU342@0ABURequest@CvDiplomacyRequests@@@Z ; std::list<CvDiplomacyRequests::Request,std::allocator<CvDiplomacyRequests::Request> >::_Buynode
	push	1
	mov	ecx, esi
	mov	ebx, eax
	call	?_Incsize@?$list@URequest@CvDiplomacyRequests@@V?$allocator@URequest@CvDiplomacyRequests@@@std@@@std@@IAEXI@Z ; std::list<CvDiplomacyRequests::Request,std::allocator<CvDiplomacyRequests::Request> >::_Incsize
	mov	DWORD PTR [edi+4], ebx
	mov	eax, DWORD PTR [ebx+4]
	or	edi, -1
	lea	ecx, DWORD PTR $T224482[esp+88]
	mov	DWORD PTR [eax], ebx
	mov	DWORD PTR __$EHRec$[esp+88], edi
	call	DWORD PTR __imp_??1?$basic_string@DU?$char_traits@D@std@@V?$allocator@D@2@@std@@QAE@XZ

; 168  : 	Request& newRequest = m_aRequests.back();

	mov	edx, DWORD PTR [ebp+12]
	mov	esi, DWORD PTR [edx+4]
	add	esi, 8

; 169  : 
; 170  : 	newRequest.Clear();

	lea	ebx, DWORD PTR [esi+8]
	push	OFFSET $SG221251
	mov	ecx, ebx
	mov	DWORD PTR [esi], edi
	mov	DWORD PTR [esi+36], edi
	mov	DWORD PTR [esi+4], edi
	call	DWORD PTR __imp_?assign@?$basic_string@DU?$char_traits@D@std@@V?$allocator@D@2@@std@@QAEAAV12@PBD@Z

; 171  : 	newRequest.m_eFromPlayer = eFromPlayer;

	mov	eax, DWORD PTR _eFromPlayer$[esp+76]

; 172  : 	newRequest.m_eDiploType = eDiploType;

	mov	ecx, DWORD PTR _eDiploType$[esp+76]
	mov	DWORD PTR [esi+4], eax

; 173  : 	newRequest.m_strMessage = pszMessage;

	mov	eax, DWORD PTR _pszMessage$[esp+76]
	mov	DWORD PTR [esi], ecx
	mov	DWORD PTR [esi+40], edi
	mov	DWORD PTR [esi+44], edi
	mov	ecx, ebx
	test	eax, eax
	je	SHORT $LN63@Add
	push	eax
	call	DWORD PTR __imp_?assign@?$basic_string@DU?$char_traits@D@std@@V?$allocator@D@2@@std@@QAEAAV12@PBD@Z
	jmp	SHORT $LN62@Add
$LN63@Add:
	call	DWORD PTR __imp_?clear@?$basic_string@DU?$char_traits@D@std@@V?$allocator@D@2@@std@@QAEXXZ
$LN62@Add:

; 174  : 	newRequest.m_iExtraGameData = iExtraGameData;

	mov	edx, DWORD PTR _iExtraGameData$[esp+76]

; 175  : 	newRequest.m_eAnimationType = eAnimationType;

	mov	eax, DWORD PTR _eAnimationType$[esp+76]
	mov	DWORD PTR [esi+48], edx
	mov	DWORD PTR [esi+36], eax

; 176  : 	newRequest.m_iTurn = GC.getGame().getGameTurn();

	mov	ecx, DWORD PTR ?gGlobals@@3VCvGlobals@@A+48
	call	?getGameTurn@CvGame@@QAEHXZ		; CvGame::getGameTurn

; 177  : 
; 178  : 	return true;
; 179  : }

	mov	ecx, DWORD PTR __$EHRec$[esp+80]
	pop	edi
	mov	DWORD PTR [esi+40], eax
	pop	esi
	pop	ebp
	mov	al, 1
	pop	ebx
	mov	DWORD PTR fs:0, ecx
	add	esp, 64					; 00000040H
	ret	20					; 00000014H
_TEXT	ENDS
;	COMDAT text$x
text$x	SEGMENT
__unwindfunclet$?Add@CvDiplomacyRequests@@QAE_NW4PlayerTypes@@W4DiploUIStateTypes@@PBDW4LeaderheadAnimationTypes@@H@Z$0:
	lea	ecx, DWORD PTR $T224482[ebp]
	jmp	??1Request@CvDiplomacyRequests@@QAE@XZ
__ehhandler$?Add@CvDiplomacyRequests@@QAE_NW4PlayerTypes@@W4DiploUIStateTypes@@PBDW4LeaderheadAnimationTypes@@H@Z:
	mov	eax, OFFSET __ehfuncinfo$?Add@CvDiplomacyRequests@@QAE_NW4PlayerTypes@@W4DiploUIStateTypes@@PBDW4LeaderheadAnimationTypes@@H@Z
	jmp	___CxxFrameHandler3
text$x	ENDS
?Add@CvDiplomacyRequests@@QAE_NW4PlayerTypes@@W4DiploUIStateTypes@@PBDW4LeaderheadAnimationTypes@@H@Z ENDP ; CvDiplomacyRequests::Add
PUBLIC	?SendRequest@CvDiplomacyRequests@@SAXW4PlayerTypes@@0W4DiploUIStateTypes@@PBDW4LeaderheadAnimationTypes@@H@Z ; CvDiplomacyRequests::SendRequest
EXTRN	?isNetworkMultiplayerGame@CvPreGame@@YA_NXZ:PROC ; CvPreGame::isNetworkMultiplayerGame
; Function compile flags: /Ogtpy
;	COMDAT ?SendRequest@CvDiplomacyRequests@@SAXW4PlayerTypes@@0W4DiploUIStateTypes@@PBDW4LeaderheadAnimationTypes@@H@Z
_TEXT	SEGMENT
_eFromPlayer$ = 8					; size = 4
_eToPlayer$ = 12					; size = 4
_eDiploType$ = 16					; size = 4
_pszMessage$ = 20					; size = 4
_eAnimationType$ = 24					; size = 4
_iExtraGameData$ = 28					; size = 4
?SendRequest@CvDiplomacyRequests@@SAXW4PlayerTypes@@0W4DiploUIStateTypes@@PBDW4LeaderheadAnimationTypes@@H@Z PROC ; CvDiplomacyRequests::SendRequest, COMDAT

; 224  : {

	push	esi
	push	edi

; 225  : 	CvPlayer& kPlayer = GET_PLAYER(eToPlayer);

	mov	edi, DWORD PTR _eToPlayer$[esp+4]
	mov	ecx, edi
	imul	ecx, 63236				; 0000f704H
	add	ecx, DWORD PTR ?m_aPlayers@CvPlayerAI@@1PAV1@A ; CvPlayerAI::m_aPlayers

; 226  : 	CvDiplomacyRequests* pkDiploRequests = kPlayer.GetDiplomacyRequests();

	call	?GetDiplomacyRequests@CvPlayer@@QBEPAVCvDiplomacyRequests@@XZ ; CvPlayer::GetDiplomacyRequests
	mov	esi, eax

; 227  : 	if(pkDiploRequests)

	test	esi, esi
	je	SHORT $LN1@SendReques

; 228  : 	{
; 229  : 		if(!CvPreGame::isNetworkMultiplayerGame() && GC.getGame().getActivePlayer() == eToPlayer)

	call	?isNetworkMultiplayerGame@CvPreGame@@YA_NXZ ; CvPreGame::isNetworkMultiplayerGame
	test	al, al
	jne	SHORT $LN2@SendReques
	mov	ecx, DWORD PTR ?gGlobals@@3VCvGlobals@@A+48
	call	?getActivePlayer@CvGame@@QBE?AW4PlayerTypes@@XZ ; CvGame::getActivePlayer
	cmp	eax, edi
	jne	SHORT $LN2@SendReques

; 230  : 		{
; 231  : 			// Target is the active player, just send it right now
; 232  : 			pkDiploRequests->Send(eFromPlayer, eDiploType, pszMessage, eAnimationType, iExtraGameData);

	mov	eax, DWORD PTR _iExtraGameData$[esp+4]
	mov	ecx, DWORD PTR _eAnimationType$[esp+4]
	mov	edx, DWORD PTR _pszMessage$[esp+4]
	push	eax
	mov	eax, DWORD PTR _eDiploType$[esp+8]
	push	ecx
	mov	ecx, DWORD PTR _eFromPlayer$[esp+12]
	push	edx
	push	eax
	push	ecx
	mov	ecx, esi
	call	?Send@CvDiplomacyRequests@@IAEXW4PlayerTypes@@W4DiploUIStateTypes@@PBDW4LeaderheadAnimationTypes@@H@Z ; CvDiplomacyRequests::Send
	pop	edi
	pop	esi

; 236  : 	}
; 237  : }

	ret	0
$LN2@SendReques:

; 233  : 		}
; 234  : 		else
; 235  : 			pkDiploRequests->Add(eFromPlayer, eDiploType, pszMessage, eAnimationType, iExtraGameData);

	mov	edx, DWORD PTR _iExtraGameData$[esp+4]
	mov	eax, DWORD PTR _eAnimationType$[esp+4]
	mov	ecx, DWORD PTR _pszMessage$[esp+4]
	push	edx
	mov	edx, DWORD PTR _eDiploType$[esp+8]
	push	eax
	mov	eax, DWORD PTR _eFromPlayer$[esp+12]
	push	ecx
	push	edx
	push	eax
	mov	ecx, esi
	call	?Add@CvDiplomacyRequests@@QAE_NW4PlayerTypes@@W4DiploUIStateTypes@@PBDW4LeaderheadAnimationTypes@@H@Z ; CvDiplomacyRequests::Add
$LN1@SendReques:
	pop	edi
	pop	esi

; 236  : 	}
; 237  : }

	ret	0
?SendRequest@CvDiplomacyRequests@@SAXW4PlayerTypes@@0W4DiploUIStateTypes@@PBDW4LeaderheadAnimationTypes@@H@Z ENDP ; CvDiplomacyRequests::SendRequest
_TEXT	ENDS
PUBLIC	?SendDealRequest@CvDiplomacyRequests@@SAXW4PlayerTypes@@0PAVCvDeal@@W4DiploUIStateTypes@@PBDW4LeaderheadAnimationTypes@@@Z ; CvDiplomacyRequests::SendDealRequest
EXTRN	?WrapDealPointer@CvGlobals@@QAE?AV?$auto_ptr@VICvDeal1@@@std@@PAVCvDeal@@@Z:PROC ; CvGlobals::WrapDealPointer
;	COMDAT xdata$x
; File c:\users\enormousapplepie\desktop\lekmod files\lekmod dll versions\v29\lekmod_dll\cvgamecoredllutil\include\cvdllinterfaces.h
xdata$x	SEGMENT
__unwindtable$?SendDealRequest@CvDiplomacyRequests@@SAXW4PlayerTypes@@0PAVCvDeal@@W4DiploUIStateTypes@@PBDW4LeaderheadAnimationTypes@@@Z DD 0ffffffffH
	DD	FLAT:__unwindfunclet$?SendDealRequest@CvDiplomacyRequests@@SAXW4PlayerTypes@@0PAVCvDeal@@W4DiploUIStateTypes@@PBDW4LeaderheadAnimationTypes@@@Z$1
__ehfuncinfo$?SendDealRequest@CvDiplomacyRequests@@SAXW4PlayerTypes@@0PAVCvDeal@@W4DiploUIStateTypes@@PBDW4LeaderheadAnimationTypes@@@Z DD 019930522H
	DD	01H
	DD	FLAT:__unwindtable$?SendDealRequest@CvDiplomacyRequests@@SAXW4PlayerTypes@@0PAVCvDeal@@W4DiploUIStateTypes@@PBDW4LeaderheadAnimationTypes@@@Z
	DD	2 DUP(00H)
	DD	2 DUP(00H)
	DD	00H
	DD	01H
; Function compile flags: /Ogtpy
; File c:\users\enormousapplepie\desktop\lekmod files\lekmod dll versions\v29\lekmod_dll\cvgamecoredll_expansion2\cvdiplomacyrequests.cpp
xdata$x	ENDS
;	COMDAT ?SendDealRequest@CvDiplomacyRequests@@SAXW4PlayerTypes@@0PAVCvDeal@@W4DiploUIStateTypes@@PBDW4LeaderheadAnimationTypes@@@Z
_TEXT	SEGMENT
_pDeal$221502 = -16					; size = 4
__$EHRec$ = -12						; size = 12
_eFromPlayer$ = 8					; size = 4
$T224694 = 12						; size = 4
_eToPlayer$ = 12					; size = 4
_pkDeal$ = 16						; size = 4
_eDiploType$ = 20					; size = 4
_pszMessage$ = 24					; size = 4
_eAnimationType$ = 28					; size = 4
?SendDealRequest@CvDiplomacyRequests@@SAXW4PlayerTypes@@0PAVCvDeal@@W4DiploUIStateTypes@@PBDW4LeaderheadAnimationTypes@@@Z PROC ; CvDiplomacyRequests::SendDealRequest, COMDAT

; 243  : {

	push	-1
	push	__ehhandler$?SendDealRequest@CvDiplomacyRequests@@SAXW4PlayerTypes@@0PAVCvDeal@@W4DiploUIStateTypes@@PBDW4LeaderheadAnimationTypes@@@Z
	mov	eax, DWORD PTR fs:0
	push	eax
	mov	DWORD PTR fs:0, esp
	push	ecx

; 244  : 	// Deals must currently happen on the active player's turn...
; 245  : 	if(GC.getGame().getActivePlayer() == eToPlayer)

	mov	ecx, DWORD PTR ?gGlobals@@3VCvGlobals@@A+48
	push	edi
	call	?getActivePlayer@CvGame@@QBE?AW4PlayerTypes@@XZ ; CvGame::getActivePlayer
	mov	edi, DWORD PTR _eToPlayer$[esp+16]
	cmp	eax, edi
	jne	SHORT $LN25@SendDealRe

; 246  : 	{
; 247  : 		auto_ptr<ICvDeal1> pDeal = GC.WrapDealPointer(pkDeal);

	mov	eax, DWORD PTR _pkDeal$[esp+16]
	push	esi
	push	eax
	lea	ecx, DWORD PTR $T224694[esp+24]
	push	ecx
	mov	ecx, OFFSET ?gGlobals@@3VCvGlobals@@A	; gGlobals
	call	?WrapDealPointer@CvGlobals@@QAE?AV?$auto_ptr@VICvDeal1@@@std@@PAVCvDeal@@@Z ; CvGlobals::WrapDealPointer
	mov	esi, DWORD PTR [eax]
	mov	DWORD PTR [eax], 0
	mov	DWORD PTR _pDeal$221502[esp+24], esi
	mov	eax, DWORD PTR $T224694[esp+20]
	mov	DWORD PTR __$EHRec$[esp+32], 0
	test	eax, eax
	je	SHORT $LN16@SendDealRe
	mov	edx, DWORD PTR [eax]
	push	eax
	mov	eax, DWORD PTR [edx+4]
	call	eax
$LN16@SendDealRe:

; 248  : 		GC.GetEngineUserInterface()->SetScratchDeal(pDeal.get());

	mov	ecx, DWORD PTR ?gGlobals@@3VCvGlobals@@A+8568
	mov	edx, DWORD PTR [ecx]
	mov	eax, DWORD PTR [edx+32]
	push	esi
	call	eax

; 249  : 		SendRequest(eFromPlayer, eToPlayer, eDiploType, pszMessage, eAnimationType, -1);

	mov	ecx, DWORD PTR _eAnimationType$[esp+20]
	mov	edx, DWORD PTR _pszMessage$[esp+20]
	mov	eax, DWORD PTR _eDiploType$[esp+20]
	push	-1
	push	ecx
	mov	ecx, DWORD PTR _eFromPlayer$[esp+28]
	push	edx
	push	eax
	push	edi
	push	ecx
	call	?SendRequest@CvDiplomacyRequests@@SAXW4PlayerTypes@@0W4DiploUIStateTypes@@PBDW4LeaderheadAnimationTypes@@H@Z ; CvDiplomacyRequests::SendRequest
	add	esp, 24					; 00000018H

; 250  : 	}

	mov	DWORD PTR __$EHRec$[esp+32], -1
	test	esi, esi
	je	SHORT $LN29@SendDealRe
	mov	edx, DWORD PTR [esi]
	mov	eax, DWORD PTR [edx+4]
	push	esi
	call	eax
$LN29@SendDealRe:
	pop	esi
$LN25@SendDealRe:

; 251  : }

	mov	ecx, DWORD PTR __$EHRec$[esp+20]
	pop	edi
	mov	DWORD PTR fs:0, ecx
	add	esp, 16					; 00000010H
	ret	0
_TEXT	ENDS
;	COMDAT text$x
text$x	SEGMENT
__unwindfunclet$?SendDealRequest@CvDiplomacyRequests@@SAXW4PlayerTypes@@0PAVCvDeal@@W4DiploUIStateTypes@@PBDW4LeaderheadAnimationTypes@@@Z$1:
	lea	ecx, DWORD PTR _pDeal$221502[ebp]
	jmp	??1?$auto_ptr@VICvDeal1@@@std@@QAE@XZ	; std::auto_ptr<ICvDeal1>::~auto_ptr<ICvDeal1>
__ehhandler$?SendDealRequest@CvDiplomacyRequests@@SAXW4PlayerTypes@@0PAVCvDeal@@W4DiploUIStateTypes@@PBDW4LeaderheadAnimationTypes@@@Z:
	mov	eax, OFFSET __ehfuncinfo$?SendDealRequest@CvDiplomacyRequests@@SAXW4PlayerTypes@@0PAVCvDeal@@W4DiploUIStateTypes@@PBDW4LeaderheadAnimationTypes@@@Z
	jmp	___CxxFrameHandler3
text$x	ENDS
?SendDealRequest@CvDiplomacyRequests@@SAXW4PlayerTypes@@0PAVCvDeal@@W4DiploUIStateTypes@@PBDW4LeaderheadAnimationTypes@@@Z ENDP ; CvDiplomacyRequests::SendDealRequest
END
