; Listing generated by Microsoft (R) Optimizing Compiler Version 15.00.30729.01 

	TITLE	c:\Users\EnormousApplePie\Documents\GitHub\Lekmod\LEKMOD_DLL\CvGameCoreDLL_Expansion2\CvDllPreGame.cpp
	.686P
	.XMM
	include listing.inc
	.model	flat

INCLUDELIB MSVCRT
INCLUDELIB OLDNAMES

_DATA	SEGMENT
_CIV5_XP2_DLL_VERSION DD FLAT:$SG217601
_DATA	ENDS
CONST	SEGMENT
$SG217601 DB	'1.0.0', 00H
	ORG $+2
_guidICvUnknown DD 0d89ba82fH
	DW	09fa3H
	DW	04696H
	DB	0b3H
	DB	0f4H
	DB	052H
	DB	0bdH
	DB	0b1H
	DB	01H
	DB	0cfH
	DB	0b2H
_guidICvEnumerator DD 0579a12e9H
	DW	03c70H
	DW	04276H
	DB	084H
	DB	060H
	DB	0c9H
	DB	041H
	DB	0a5H
	DB	0f9H
	DB	058H
	DB	05fH
_guidICvPreGame1 DD 0c826212aH
	DW	05d8bH
	DW	046eaH
	DB	0b3H
	DB	026H
	DB	0cbH
	DB	057H
	DB	0c7H
	DB	05bH
	DB	095H
	DB	078H
_guidICvDlcPackageInfo1 DD 01a87b286H
	DW	05001H
	DW	04661H
	DB	09aH
	DB	089H
	DB	081H
	DB	026H
	DB	0afH
	DB	013H
	DB	027H
	DB	02H
_guidICvPreGame2 DD 09671d0aeH
	DW	0f2d1H
	DW	04d17H
	DB	08aH
	DB	08dH
	DB	0c2H
	DB	011H
	DB	0bbH
	DB	05H
	DB	0d3H
	DB	091H
CONST	ENDS
PUBLIC	??_7ICvUnknown@@6B@				; ICvUnknown::`vftable'
PUBLIC	??0ICvUnknown@@QAE@XZ				; ICvUnknown::ICvUnknown
PUBLIC	??_R4ICvUnknown@@6B@				; ICvUnknown::`RTTI Complete Object Locator'
PUBLIC	??_R0?AVICvUnknown@@@8				; ICvUnknown `RTTI Type Descriptor'
PUBLIC	??_R3ICvUnknown@@8				; ICvUnknown::`RTTI Class Hierarchy Descriptor'
PUBLIC	??_R2ICvUnknown@@8				; ICvUnknown::`RTTI Base Class Array'
PUBLIC	??_R1A@?0A@EA@ICvUnknown@@8			; ICvUnknown::`RTTI Base Class Descriptor at (0,-1,0,64)'
EXTRN	??_7type_info@@6B@:QWORD			; type_info::`vftable'
EXTRN	__purecall:PROC
;	COMDAT ??_R1A@?0A@EA@ICvUnknown@@8
rdata$r	SEGMENT
??_R1A@?0A@EA@ICvUnknown@@8 DD FLAT:??_R0?AVICvUnknown@@@8 ; ICvUnknown::`RTTI Base Class Descriptor at (0,-1,0,64)'
	DD	00H
	DD	00H
	DD	0ffffffffH
	DD	00H
	DD	040H
	DD	FLAT:??_R3ICvUnknown@@8
rdata$r	ENDS
;	COMDAT ??_R2ICvUnknown@@8
rdata$r	SEGMENT
??_R2ICvUnknown@@8 DD FLAT:??_R1A@?0A@EA@ICvUnknown@@8	; ICvUnknown::`RTTI Base Class Array'
rdata$r	ENDS
;	COMDAT ??_R3ICvUnknown@@8
rdata$r	SEGMENT
??_R3ICvUnknown@@8 DD 00H				; ICvUnknown::`RTTI Class Hierarchy Descriptor'
	DD	00H
	DD	01H
	DD	FLAT:??_R2ICvUnknown@@8
rdata$r	ENDS
;	COMDAT ??_R0?AVICvUnknown@@@8
_DATA	SEGMENT
??_R0?AVICvUnknown@@@8 DD FLAT:??_7type_info@@6B@	; ICvUnknown `RTTI Type Descriptor'
	DD	00H
	DB	'.?AVICvUnknown@@', 00H
_DATA	ENDS
;	COMDAT ??_R4ICvUnknown@@6B@
rdata$r	SEGMENT
??_R4ICvUnknown@@6B@ DD 00H				; ICvUnknown::`RTTI Complete Object Locator'
	DD	00H
	DD	00H
	DD	FLAT:??_R0?AVICvUnknown@@@8
	DD	FLAT:??_R3ICvUnknown@@8
rdata$r	ENDS
;	COMDAT ??_7ICvUnknown@@6B@
CONST	SEGMENT
??_7ICvUnknown@@6B@ DD FLAT:??_R4ICvUnknown@@6B@	; ICvUnknown::`vftable'
	DD	FLAT:__purecall
	DD	FLAT:__purecall
; Function compile flags: /Ogtpy
CONST	ENDS
;	COMDAT ??0ICvUnknown@@QAE@XZ
_TEXT	SEGMENT
??0ICvUnknown@@QAE@XZ PROC				; ICvUnknown::ICvUnknown, COMDAT
; _this$ = ecx
	mov	eax, ecx
	mov	DWORD PTR [eax], OFFSET ??_7ICvUnknown@@6B@
	ret	0
??0ICvUnknown@@QAE@XZ ENDP				; ICvUnknown::ICvUnknown
_TEXT	ENDS
PUBLIC	??_7CvDllPreGame@@6B@				; CvDllPreGame::`vftable'
PUBLIC	??1CvDllPreGame@@QAE@XZ				; CvDllPreGame::~CvDllPreGame
PUBLIC	??_R4CvDllPreGame@@6B@				; CvDllPreGame::`RTTI Complete Object Locator'
PUBLIC	??_R0?AVCvDllPreGame@@@8			; CvDllPreGame `RTTI Type Descriptor'
PUBLIC	??_R3CvDllPreGame@@8				; CvDllPreGame::`RTTI Class Hierarchy Descriptor'
PUBLIC	??_R2CvDllPreGame@@8				; CvDllPreGame::`RTTI Base Class Array'
PUBLIC	??_R1A@?0A@EA@CvDllPreGame@@8			; CvDllPreGame::`RTTI Base Class Descriptor at (0,-1,0,64)'
PUBLIC	??_R1A@?0A@EA@ICvPreGame2@@8			; ICvPreGame2::`RTTI Base Class Descriptor at (0,-1,0,64)'
PUBLIC	??_R0?AVICvPreGame2@@@8				; ICvPreGame2 `RTTI Type Descriptor'
PUBLIC	??_R3ICvPreGame2@@8				; ICvPreGame2::`RTTI Class Hierarchy Descriptor'
PUBLIC	??_R2ICvPreGame2@@8				; ICvPreGame2::`RTTI Base Class Array'
PUBLIC	??_R1A@?0A@EA@ICvPreGame1@@8			; ICvPreGame1::`RTTI Base Class Descriptor at (0,-1,0,64)'
PUBLIC	??_R0?AVICvPreGame1@@@8				; ICvPreGame1 `RTTI Type Descriptor'
PUBLIC	??_R3ICvPreGame1@@8				; ICvPreGame1::`RTTI Class Hierarchy Descriptor'
PUBLIC	??_R2ICvPreGame1@@8				; ICvPreGame1::`RTTI Base Class Array'
PUBLIC	?QueryInterface@CvDllPreGame@@UAGPAXU_GUID@@@Z	; CvDllPreGame::QueryInterface
PUBLIC	?Destroy@CvDllPreGame@@EAGXXZ			; CvDllPreGame::Destroy
PUBLIC	?activePlayer@CvDllPreGame@@UAG?AW4PlayerTypes@@XZ ; CvDllPreGame::activePlayer
PUBLIC	?advancedStartPoints@CvDllPreGame@@UAGHXZ	; CvDllPreGame::advancedStartPoints
PUBLIC	?autorun@CvDllPreGame@@UAG_NXZ			; CvDllPreGame::autorun
PUBLIC	?autorunTurnDelay@CvDllPreGame@@UAGMXZ		; CvDllPreGame::autorunTurnDelay
PUBLIC	?autorunTurnLimit@CvDllPreGame@@UAGHXZ		; CvDllPreGame::autorunTurnLimit
PUBLIC	?calendar@CvDllPreGame@@UAG?AW4CalendarTypes@@XZ ; CvDllPreGame::calendar
PUBLIC	?canReadyLocalPlayer@CvDllPreGame@@UAG_NXZ	; CvDllPreGame::canReadyLocalPlayer
PUBLIC	?civilizationAdjective@CvDllPreGame@@UAG?AVCvString@@W4PlayerTypes@@@Z ; CvDllPreGame::civilizationAdjective
PUBLIC	?civilizationAdjectiveKey@CvDllPreGame@@UAG?BVCvString@@W4PlayerTypes@@@Z ; CvDllPreGame::civilizationAdjectiveKey
PUBLIC	?civilizationDescription@CvDllPreGame@@UAG?AVCvString@@W4PlayerTypes@@@Z ; CvDllPreGame::civilizationDescription
PUBLIC	?civilizationDescriptionKey@CvDllPreGame@@UAG?BVCvString@@W4PlayerTypes@@@Z ; CvDllPreGame::civilizationDescriptionKey
PUBLIC	?civilization@CvDllPreGame@@UAG?AW4CivilizationTypes@@W4PlayerTypes@@@Z ; CvDllPreGame::civilization
PUBLIC	?civilizationPassword@CvDllPreGame@@UAG?BVCvString@@W4PlayerTypes@@@Z ; CvDllPreGame::civilizationPassword
PUBLIC	?civilizationShortDescription@CvDllPreGame@@UAG?AVCvString@@W4PlayerTypes@@@Z ; CvDllPreGame::civilizationShortDescription
PUBLIC	?civilizationShortDescriptionKey@CvDllPreGame@@UAG?BVCvString@@W4PlayerTypes@@@Z ; CvDllPreGame::civilizationShortDescriptionKey
PUBLIC	?civilizationKey@CvDllPreGame@@UAG?BVCvString@@W4PlayerTypes@@@Z ; CvDllPreGame::civilizationKey
PUBLIC	?civilizationKeyAvailable@CvDllPreGame@@UAG_NW4PlayerTypes@@@Z ; CvDllPreGame::civilizationKeyAvailable
PUBLIC	?civilizationKeyPackageID@CvDllPreGame@@UAG?BU_GUID@@W4PlayerTypes@@@Z ; CvDllPreGame::civilizationKeyPackageID
PUBLIC	?clearDLCAllowed@CvDllPreGame@@UAGXXZ		; CvDllPreGame::clearDLCAllowed
PUBLIC	?climate@CvDllPreGame@@UAG?AW4ClimateTypes@@XZ	; CvDllPreGame::climate
PUBLIC	?closeAllSlots@CvDllPreGame@@UAGXXZ		; CvDllPreGame::closeAllSlots
PUBLIC	?closeInactiveSlots@CvDllPreGame@@UAGXXZ	; CvDllPreGame::closeInactiveSlots
PUBLIC	?emailAddress@CvDllPreGame@@UAG?BVCvString@@XZ	; CvDllPreGame::emailAddress
PUBLIC	?emailAddress@CvDllPreGame@@UAG?BVCvString@@W4PlayerTypes@@@Z ; CvDllPreGame::emailAddress
PUBLIC	?endTurnTimerLength@CvDllPreGame@@UAGMXZ	; CvDllPreGame::endTurnTimerLength
PUBLIC	?era@CvDllPreGame@@UAG?AW4EraTypes@@XZ		; CvDllPreGame::era
PUBLIC	?findPlayerByNickname@CvDllPreGame@@UAG?AW4PlayerTypes@@QBD@Z ; CvDllPreGame::findPlayerByNickname
PUBLIC	?gameMode@CvDllPreGame@@UAG?AW4GameMode@@XZ	; CvDllPreGame::gameMode
PUBLIC	?gameName@CvDllPreGame@@UAG?BVCvString@@XZ	; CvDllPreGame::gameName
PUBLIC	?gameStarted@CvDllPreGame@@UAG_NXZ		; CvDllPreGame::gameStarted
PUBLIC	?GetGameOptionCount@CvDllPreGame@@UAGIXZ	; CvDllPreGame::GetGameOptionCount
PUBLIC	?GetGameOption@CvDllPreGame@@UAG_NW4GameOptionTypes@@AAH@Z ; CvDllPreGame::GetGameOption
PUBLIC	?GetGameOption@CvDllPreGame@@UAG_NPBDAAH@Z	; CvDllPreGame::GetGameOption
PUBLIC	?GetGameOption@CvDllPreGame@@UAG_NIPADIAAH@Z	; CvDllPreGame::GetGameOption
PUBLIC	?GetMapOptionCount@CvDllPreGame@@UAGIXZ		; CvDllPreGame::GetMapOptionCount
PUBLIC	?GetMapOption@CvDllPreGame@@UAG_NPBDAAH@Z	; CvDllPreGame::GetMapOption
PUBLIC	?GetMapOption@CvDllPreGame@@UAG_NIPADIAAH@Z	; CvDllPreGame::GetMapOption
PUBLIC	?GetPersistSettings@CvDllPreGame@@UAG_NXZ	; CvDllPreGame::GetPersistSettings
PUBLIC	?gameSpeed@CvDllPreGame@@UAG?AW4GameSpeedTypes@@XZ ; CvDllPreGame::gameSpeed
PUBLIC	?gameTurn@CvDllPreGame@@UAGHXZ			; CvDllPreGame::gameTurn
PUBLIC	?gameType@CvDllPreGame@@UAG?AW4GameTypes@@XZ	; CvDllPreGame::gameType
PUBLIC	?gameStartType@CvDllPreGame@@UAG?AW4GameStartTypes@@XZ ; CvDllPreGame::gameStartType
PUBLIC	?handicap@CvDllPreGame@@UAG?AW4HandicapTypes@@W4PlayerTypes@@@Z ; CvDllPreGame::handicap
PUBLIC	?isDLCAllowed@CvDllPreGame@@UAG_NABU_GUID@@@Z	; CvDllPreGame::isDLCAllowed
PUBLIC	?isDLCAvailable@CvDllPreGame@@UAG_NW4PlayerTypes@@ABU_GUID@@@Z ; CvDllPreGame::isDLCAvailable
PUBLIC	?isEarthMap@CvDllPreGame@@UAG_NXZ		; CvDllPreGame::isEarthMap
PUBLIC	?isHotSeat@CvDllPreGame@@UAG_NXZ		; CvDllPreGame::isHotSeat
PUBLIC	?isHotSeatGame@CvDllPreGame@@UAG_NXZ		; CvDllPreGame::isHotSeatGame
PUBLIC	?isHuman@CvDllPreGame@@UAG_NW4PlayerTypes@@@Z	; CvDllPreGame::isHuman
PUBLIC	?isInternetGame@CvDllPreGame@@UAG_NXZ		; CvDllPreGame::isInternetGame
PUBLIC	?isMinorCiv@CvDllPreGame@@UAG_NW4PlayerTypes@@@Z ; CvDllPreGame::isMinorCiv
PUBLIC	?isNetworkMultiplayerGame@CvDllPreGame@@UAG_NXZ	; CvDllPreGame::isNetworkMultiplayerGame
PUBLIC	?isPitBoss@CvDllPreGame@@UAG_NXZ		; CvDllPreGame::isPitBoss
PUBLIC	?isPlayable@CvDllPreGame@@UAG_NW4PlayerTypes@@@Z ; CvDllPreGame::isPlayable
PUBLIC	?isPlayByEmail@CvDllPreGame@@UAG_NXZ		; CvDllPreGame::isPlayByEmail
PUBLIC	?isReady@CvDllPreGame@@UAG_NW4PlayerTypes@@@Z	; CvDllPreGame::isReady
PUBLIC	?isVictory@CvDllPreGame@@UAG_NW4VictoryTypes@@@Z ; CvDllPreGame::isVictory
PUBLIC	?isWBMapScript@CvDllPreGame@@UAG_NXZ		; CvDllPreGame::isWBMapScript
PUBLIC	?isWhiteFlag@CvDllPreGame@@UAG_NW4PlayerTypes@@@Z ; CvDllPreGame::isWhiteFlag
PUBLIC	?leaderHead@CvDllPreGame@@UAG?AW4LeaderHeadTypes@@W4PlayerTypes@@@Z ; CvDllPreGame::leaderHead
PUBLIC	?leaderName@CvDllPreGame@@UAG?AVCvString@@W4PlayerTypes@@@Z ; CvDllPreGame::leaderName
PUBLIC	?leaderNameKey@CvDllPreGame@@UAG?BVCvString@@W4PlayerTypes@@@Z ; CvDllPreGame::leaderNameKey
PUBLIC	?leaderKey@CvDllPreGame@@UAG?BVCvString@@W4PlayerTypes@@@Z ; CvDllPreGame::leaderKey
PUBLIC	?leaderKeyAvailable@CvDllPreGame@@UAG_NW4PlayerTypes@@@Z ; CvDllPreGame::leaderKeyAvailable
PUBLIC	?leaderKeyPackageID@CvDllPreGame@@UAG?BU_GUID@@W4PlayerTypes@@@Z ; CvDllPreGame::leaderKeyPackageID
PUBLIC	?loadFileName@CvDllPreGame@@UAG?BVCvString@@XZ	; CvDllPreGame::loadFileName
PUBLIC	?loadFromIni@CvDllPreGame@@UAGXAAVFIGameIniParser@@@Z ; CvDllPreGame::loadFromIni
PUBLIC	?mapNoPlayers@CvDllPreGame@@UAG_NXZ		; CvDllPreGame::mapNoPlayers
PUBLIC	?mapRandomSeed@CvDllPreGame@@UAGIXZ		; CvDllPreGame::mapRandomSeed
PUBLIC	?loadWBScenario@CvDllPreGame@@UAG_NXZ		; CvDllPreGame::loadWBScenario
PUBLIC	?overrideScenarioHandicap@CvDllPreGame@@UAG_NXZ	; CvDllPreGame::overrideScenarioHandicap
PUBLIC	?mapScriptName@CvDllPreGame@@UAG?BVCvString@@XZ	; CvDllPreGame::mapScriptName
PUBLIC	?maxCityElimination@CvDllPreGame@@UAGHXZ	; CvDllPreGame::maxCityElimination
PUBLIC	?maxTurns@CvDllPreGame@@UAGHXZ			; CvDllPreGame::maxTurns
PUBLIC	?minorCivType@CvDllPreGame@@UAG?AW4MinorCivTypes@@W4PlayerTypes@@@Z ; CvDllPreGame::minorCivType
PUBLIC	?multiplayerAIEnabled@CvDllPreGame@@UAG_NXZ	; CvDllPreGame::multiplayerAIEnabled
PUBLIC	?netID@CvDllPreGame@@UAGHW4PlayerTypes@@@Z	; CvDllPreGame::netID
PUBLIC	?nickname@CvDllPreGame@@UAG?BVCvString@@W4PlayerTypes@@@Z ; CvDllPreGame::nickname
PUBLIC	?nicknameDisplayed@CvDllPreGame@@UAG?BVCvString@@W4PlayerTypes@@@Z ; CvDllPreGame::nicknameDisplayed
PUBLIC	?numMinorCivs@CvDllPreGame@@UAGHXZ		; CvDllPreGame::numMinorCivs
PUBLIC	?playerColor@CvDllPreGame@@UAG?AW4PlayerColorTypes@@W4PlayerTypes@@@Z ; CvDllPreGame::playerColor
PUBLIC	?privateGame@CvDllPreGame@@UAG_NXZ		; CvDllPreGame::privateGame
PUBLIC	?quickCombat@CvDllPreGame@@UAG_NXZ		; CvDllPreGame::quickCombat
PUBLIC	?quickMovement@CvDllPreGame@@UAG_NXZ		; CvDllPreGame::quickMovement
PUBLIC	?quickstart@CvDllPreGame@@UAG_NXZ		; CvDllPreGame::quickstart
PUBLIC	?randomWorldSize@CvDllPreGame@@UAG_NXZ		; CvDllPreGame::randomWorldSize
PUBLIC	?randomMapScript@CvDllPreGame@@UAG_NXZ		; CvDllPreGame::randomMapScript
PUBLIC	?read@CvDllPreGame@@UAGXAAVFDataStream@@_N@Z	; CvDllPreGame::read
PUBLIC	?readPlayerSlotInfo@CvDllPreGame@@UAG_NAAVFDataStream@@_N@Z ; CvDllPreGame::readPlayerSlotInfo
PUBLIC	?resetGame@CvDllPreGame@@UAGXXZ			; CvDllPreGame::resetGame
PUBLIC	?ResetGameOptions@CvDllPreGame@@UAGXXZ		; CvDllPreGame::ResetGameOptions
PUBLIC	?ResetMapOptions@CvDllPreGame@@UAGXXZ		; CvDllPreGame::ResetMapOptions
PUBLIC	?resetPlayer@CvDllPreGame@@UAGXW4PlayerTypes@@@Z ; CvDllPreGame::resetPlayer
PUBLIC	?resetPlayers@CvDllPreGame@@UAGXXZ		; CvDllPreGame::resetPlayers
PUBLIC	?resetSlots@CvDllPreGame@@UAGXXZ		; CvDllPreGame::resetSlots
PUBLIC	?restoreSlots@CvDllPreGame@@UAGXXZ		; CvDllPreGame::restoreSlots
PUBLIC	?saveSlots@CvDllPreGame@@UAGXXZ			; CvDllPreGame::saveSlots
PUBLIC	?seaLevel@CvDllPreGame@@UAG?AW4SeaLevelTypes@@XZ ; CvDllPreGame::seaLevel
PUBLIC	?setActivePlayer@CvDllPreGame@@UAGXW4PlayerTypes@@@Z ; CvDllPreGame::setActivePlayer
PUBLIC	?setAdminPassword@CvDllPreGame@@UAGXABVCvString@@@Z ; CvDllPreGame::setAdminPassword
PUBLIC	?setAdvancedStartPoints@CvDllPreGame@@UAGXH@Z	; CvDllPreGame::setAdvancedStartPoints
PUBLIC	?setAlias@CvDllPreGame@@UAGXABVCvString@@@Z	; CvDllPreGame::setAlias
PUBLIC	?setAutorun@CvDllPreGame@@UAGX_N@Z		; CvDllPreGame::setAutorun
PUBLIC	?setAutorunTurnDelay@CvDllPreGame@@UAGXM@Z	; CvDllPreGame::setAutorunTurnDelay
PUBLIC	?setAutorunTurnLimit@CvDllPreGame@@UAGXH@Z	; CvDllPreGame::setAutorunTurnLimit
PUBLIC	?setBandwidth@CvDllPreGame@@UAGXABVCvString@@@Z	; CvDllPreGame::setBandwidth
PUBLIC	?setBandwidth@CvDllPreGame@@UAGXW4BandwidthType@@@Z ; CvDllPreGame::setBandwidth
PUBLIC	?setCalendar@CvDllPreGame@@UAGXABVCvString@@@Z	; CvDllPreGame::setCalendar
PUBLIC	?setCalendar@CvDllPreGame@@UAGXW4CalendarTypes@@@Z ; CvDllPreGame::setCalendar
PUBLIC	?setCivilization@CvDllPreGame@@UAGXW4PlayerTypes@@W4CivilizationTypes@@@Z ; CvDllPreGame::setCivilization
PUBLIC	?setCivilizationAdjective@CvDllPreGame@@UAGXW4PlayerTypes@@ABVCvString@@@Z ; CvDllPreGame::setCivilizationAdjective
PUBLIC	?setCivilizationDescription@CvDllPreGame@@UAGXW4PlayerTypes@@ABVCvString@@@Z ; CvDllPreGame::setCivilizationDescription
PUBLIC	?setCivilizationPassword@CvDllPreGame@@UAGXW4PlayerTypes@@ABVCvString@@@Z ; CvDllPreGame::setCivilizationPassword
PUBLIC	?setCivilizationShortDescription@CvDllPreGame@@UAGXW4PlayerTypes@@ABVCvString@@@Z ; CvDllPreGame::setCivilizationShortDescription
PUBLIC	?setCivilizationKey@CvDllPreGame@@UAGXW4PlayerTypes@@ABVCvString@@@Z ; CvDllPreGame::setCivilizationKey
PUBLIC	?setCivilizationKeyPackageID@CvDllPreGame@@UAGXW4PlayerTypes@@ABU_GUID@@@Z ; CvDllPreGame::setCivilizationKeyPackageID
PUBLIC	?setClimate@CvDllPreGame@@UAGXABVCvString@@@Z	; CvDllPreGame::setClimate
PUBLIC	?setClimate@CvDllPreGame@@UAGXW4ClimateTypes@@@Z ; CvDllPreGame::setClimate
PUBLIC	?setCustomWorldSize@CvDllPreGame@@UAGXHHHH@Z	; CvDllPreGame::setCustomWorldSize
PUBLIC	?setDLCAllowed@CvDllPreGame@@UAGXABU_GUID@@_N@Z	; CvDllPreGame::setDLCAllowed
PUBLIC	?setEarthMap@CvDllPreGame@@UAGX_N@Z		; CvDllPreGame::setEarthMap
PUBLIC	?setEmailAddress@CvDllPreGame@@UAGXABVCvString@@@Z ; CvDllPreGame::setEmailAddress
PUBLIC	?setEmailAddress@CvDllPreGame@@UAGXW4PlayerTypes@@ABVCvString@@@Z ; CvDllPreGame::setEmailAddress
PUBLIC	?setEndTurnTimerLength@CvDllPreGame@@UAGXM@Z	; CvDllPreGame::setEndTurnTimerLength
PUBLIC	?setEra@CvDllPreGame@@UAGXABVCvString@@@Z	; CvDllPreGame::setEra
PUBLIC	?setEra@CvDllPreGame@@UAGXW4EraTypes@@@Z	; CvDllPreGame::setEra
PUBLIC	?setGameMode@CvDllPreGame@@UAGXW4GameMode@@@Z	; CvDllPreGame::setGameMode
PUBLIC	?setGameName@CvDllPreGame@@UAGXABVCvString@@@Z	; CvDllPreGame::setGameName
PUBLIC	?setGameSpeed@CvDllPreGame@@UAGXABVCvString@@@Z	; CvDllPreGame::setGameSpeed
PUBLIC	?setGameSpeed@CvDllPreGame@@UAGXW4GameSpeedTypes@@@Z ; CvDllPreGame::setGameSpeed
PUBLIC	?setGameStarted@CvDllPreGame@@UAGX_N@Z		; CvDllPreGame::setGameStarted
PUBLIC	?setGameTurn@CvDllPreGame@@UAGXH@Z		; CvDllPreGame::setGameTurn
PUBLIC	?SetGameOption@CvDllPreGame@@UAG_NW4GameOptionTypes@@H@Z ; CvDllPreGame::SetGameOption
PUBLIC	?SetGameOption@CvDllPreGame@@UAG_NPBDH@Z	; CvDllPreGame::SetGameOption
PUBLIC	?setGameType@CvDllPreGame@@UAGXABVCvString@@@Z	; CvDllPreGame::setGameType
PUBLIC	?setGameType@CvDllPreGame@@UAGXW4GameTypes@@W4GameStartTypes@@@Z ; CvDllPreGame::setGameType
PUBLIC	?setGameType@CvDllPreGame@@UAGXW4GameTypes@@@Z	; CvDllPreGame::setGameType
PUBLIC	?setGameStartType@CvDllPreGame@@UAGXW4GameStartTypes@@@Z ; CvDllPreGame::setGameStartType
PUBLIC	?setGameUpdateTime@CvDllPreGame@@UAGXH@Z	; CvDllPreGame::setGameUpdateTime
PUBLIC	?setHandicap@CvDllPreGame@@UAGXW4PlayerTypes@@W4HandicapTypes@@@Z ; CvDllPreGame::setHandicap
PUBLIC	?setInternetGame@CvDllPreGame@@UAGX_N@Z		; CvDllPreGame::setInternetGame
PUBLIC	?setLeaderHead@CvDllPreGame@@UAGXW4PlayerTypes@@W4LeaderHeadTypes@@@Z ; CvDllPreGame::setLeaderHead
PUBLIC	?setLeaderName@CvDllPreGame@@UAGXW4PlayerTypes@@ABVCvString@@@Z ; CvDllPreGame::setLeaderName
PUBLIC	?setLeaderKey@CvDllPreGame@@UAGXW4PlayerTypes@@ABVCvString@@@Z ; CvDllPreGame::setLeaderKey
PUBLIC	?setLeaderKeyPackageID@CvDllPreGame@@UAGXW4PlayerTypes@@ABU_GUID@@@Z ; CvDllPreGame::setLeaderKeyPackageID
PUBLIC	?setLoadFileName@CvDllPreGame@@UAGXABVCvString@@@Z ; CvDllPreGame::setLoadFileName
PUBLIC	?setMapNoPlayers@CvDllPreGame@@UAGX_N@Z		; CvDllPreGame::setMapNoPlayers
PUBLIC	?setMapRandomSeed@CvDllPreGame@@UAGXI@Z		; CvDllPreGame::setMapRandomSeed
PUBLIC	?setLoadWBScenario@CvDllPreGame@@UAGX_N@Z	; CvDllPreGame::setLoadWBScenario
PUBLIC	?setOverrideScenarioHandicap@CvDllPreGame@@UAGX_N@Z ; CvDllPreGame::setOverrideScenarioHandicap
PUBLIC	?setMapScriptName@CvDllPreGame@@UAGXABVCvString@@@Z ; CvDllPreGame::setMapScriptName
PUBLIC	?SetMapOption@CvDllPreGame@@UAG_NPBDH@Z		; CvDllPreGame::SetMapOption
PUBLIC	?setMaxCityElimination@CvDllPreGame@@UAGXH@Z	; CvDllPreGame::setMaxCityElimination
PUBLIC	?setMaxTurns@CvDllPreGame@@UAGXH@Z		; CvDllPreGame::setMaxTurns
PUBLIC	?setMinorCivType@CvDllPreGame@@UAGXW4PlayerTypes@@W4MinorCivTypes@@@Z ; CvDllPreGame::setMinorCivType
PUBLIC	?setMinorCiv@CvDllPreGame@@UAGXW4PlayerTypes@@_N@Z ; CvDllPreGame::setMinorCiv
PUBLIC	?setMultiplayerAIEnabled@CvDllPreGame@@UAGX_N@Z	; CvDllPreGame::setMultiplayerAIEnabled
PUBLIC	?setNetID@CvDllPreGame@@UAGXW4PlayerTypes@@H@Z	; CvDllPreGame::setNetID
PUBLIC	?setNickname@CvDllPreGame@@UAGXW4PlayerTypes@@ABVCvString@@@Z ; CvDllPreGame::setNickname
PUBLIC	?setNumMinorCivs@CvDllPreGame@@UAGXH@Z		; CvDllPreGame::setNumMinorCivs
PUBLIC	?setPersistSettings@CvDllPreGame@@UAGX_N@Z	; CvDllPreGame::setPersistSettings
PUBLIC	?setPlayable@CvDllPreGame@@UAGXW4PlayerTypes@@_N@Z ; CvDllPreGame::setPlayable
PUBLIC	?setPlayerColor@CvDllPreGame@@UAGXW4PlayerTypes@@W4PlayerColorTypes@@@Z ; CvDllPreGame::setPlayerColor
PUBLIC	?setPrivateGame@CvDllPreGame@@UAGX_N@Z		; CvDllPreGame::setPrivateGame
PUBLIC	?setQuickCombat@CvDllPreGame@@UAGX_N@Z		; CvDllPreGame::setQuickCombat
PUBLIC	?setQuickMovement@CvDllPreGame@@UAGX_N@Z	; CvDllPreGame::setQuickMovement
PUBLIC	?setQuickHandicap@CvDllPreGame@@UAGXABVCvString@@@Z ; CvDllPreGame::setQuickHandicap
PUBLIC	?setQuickHandicap@CvDllPreGame@@UAGXW4HandicapTypes@@@Z ; CvDllPreGame::setQuickHandicap
PUBLIC	?setQuickstart@CvDllPreGame@@UAGX_N@Z		; CvDllPreGame::setQuickstart
PUBLIC	?setRandomWorldSize@CvDllPreGame@@UAGX_N@Z	; CvDllPreGame::setRandomWorldSize
PUBLIC	?setRandomMapScript@CvDllPreGame@@UAGX_N@Z	; CvDllPreGame::setRandomMapScript
PUBLIC	?setReady@CvDllPreGame@@UAGXW4PlayerTypes@@_N@Z	; CvDllPreGame::setReady
PUBLIC	?setSeaLevel@CvDllPreGame@@UAGXABVCvString@@@Z	; CvDllPreGame::setSeaLevel
PUBLIC	?setSeaLevel@CvDllPreGame@@UAGXW4SeaLevelTypes@@@Z ; CvDllPreGame::setSeaLevel
PUBLIC	?setSlotClaim@CvDllPreGame@@UAGXW4PlayerTypes@@W4SlotClaim@@@Z ; CvDllPreGame::setSlotClaim
PUBLIC	?setSlotStatus@CvDllPreGame@@UAGXW4PlayerTypes@@W4SlotStatus@@@Z ; CvDllPreGame::setSlotStatus
PUBLIC	?setSyncRandomSeed@CvDllPreGame@@UAGXI@Z	; CvDllPreGame::setSyncRandomSeed
PUBLIC	?setTeamType@CvDllPreGame@@UAGXW4PlayerTypes@@W4TeamTypes@@@Z ; CvDllPreGame::setTeamType
PUBLIC	?setTransferredMap@CvDllPreGame@@UAGX_N@Z	; CvDllPreGame::setTransferredMap
PUBLIC	?setTurnTimer@CvDllPreGame@@UAGXABVCvString@@@Z	; CvDllPreGame::setTurnTimer
PUBLIC	?setTurnTimer@CvDllPreGame@@UAGXW4TurnTimerTypes@@@Z ; CvDllPreGame::setTurnTimer
PUBLIC	?SetCityScreenBlocked@CvDllPreGame@@UAGX_N@Z	; CvDllPreGame::SetCityScreenBlocked
PUBLIC	?setVersionString@CvDllPreGame@@UAGXABV?$basic_string@DU?$char_traits@D@std@@V?$allocator@D@2@@std@@@Z ; CvDllPreGame::setVersionString
PUBLIC	?setVictory@CvDllPreGame@@UAGXW4VictoryTypes@@_N@Z ; CvDllPreGame::setVictory
PUBLIC	?setVictories@CvDllPreGame@@UAGXABV?$vector@_NV?$allocator@_N@std@@@std@@@Z ; CvDllPreGame::setVictories
PUBLIC	?setWhiteFlag@CvDllPreGame@@UAGXW4PlayerTypes@@_N@Z ; CvDllPreGame::setWhiteFlag
PUBLIC	?setWorldSize@CvDllPreGame@@UAGXABVCvString@@@Z	; CvDllPreGame::setWorldSize
PUBLIC	?setWorldSize@CvDllPreGame@@UAGXW4WorldSizeTypes@@_N@Z ; CvDllPreGame::setWorldSize
PUBLIC	?slotClaim@CvDllPreGame@@UAG?AW4SlotClaim@@W4PlayerTypes@@@Z ; CvDllPreGame::slotClaim
PUBLIC	?slotStatus@CvDllPreGame@@UAG?AW4SlotStatus@@W4PlayerTypes@@@Z ; CvDllPreGame::slotStatus
PUBLIC	?syncRandomSeed@CvDllPreGame@@UAGIXZ		; CvDllPreGame::syncRandomSeed
PUBLIC	?transferredMap@CvDllPreGame@@UAG_NXZ		; CvDllPreGame::transferredMap
PUBLIC	?teamType@CvDllPreGame@@UAG?AW4TeamTypes@@W4PlayerTypes@@@Z ; CvDllPreGame::teamType
PUBLIC	?turnTimer@CvDllPreGame@@UAG?AW4TurnTimerTypes@@XZ ; CvDllPreGame::turnTimer
PUBLIC	?versionString@CvDllPreGame@@UAG?BV?$basic_string@DU?$char_traits@D@std@@V?$allocator@D@2@@std@@XZ ; CvDllPreGame::versionString
PUBLIC	?worldSize@CvDllPreGame@@UAG?AW4WorldSizeTypes@@XZ ; CvDllPreGame::worldSize
PUBLIC	?GetWorldInfo@CvDllPreGame@@UAGPAVICvWorldInfo1@@XZ ; CvDllPreGame::GetWorldInfo
PUBLIC	?write@CvDllPreGame@@UAGXAAVFDataStream@@@Z	; CvDllPreGame::write
PUBLIC	?getActiveSlotCount@CvDllPreGame@@UAGHXZ	; CvDllPreGame::getActiveSlotCount
PUBLIC	?readActiveSlotCountFromSaveGame@CvDllPreGame@@UAGHAAVFDataStream@@_N@Z ; CvDllPreGame::readActiveSlotCountFromSaveGame
PUBLIC	?LoadFileStorage@CvDllPreGame@@UAG?AW4StorageLocation@@XZ ; CvDllPreGame::LoadFileStorage
PUBLIC	?SetLoadFileName@CvDllPreGame@@UAGXPBDW4StorageLocation@@@Z ; CvDllPreGame::SetLoadFileName
PUBLIC	?GetDLCAllowed@CvDllPreGame@@UAGPAVICvEnumerator@@XZ ; CvDllPreGame::GetDLCAllowed
PUBLIC	?GetDLCAvailable@CvDllPreGame@@UAGPAVICvEnumerator@@W4PlayerTypes@@@Z ; CvDllPreGame::GetDLCAvailable
PUBLIC	?SetDLCAvailable@CvDllPreGame@@UAGXW4PlayerTypes@@PAVICvEnumerator@@@Z ; CvDllPreGame::SetDLCAvailable
PUBLIC	?pitBossTurnTime@CvDllPreGame@@UAGHXZ		; CvDllPreGame::pitBossTurnTime
PUBLIC	?setPitBossTurnTime@CvDllPreGame@@UAGXH@Z	; CvDllPreGame::setPitBossTurnTime
PUBLIC	?isTurnNotifySteamInvite@CvDllPreGame@@UBG_NW4PlayerTypes@@@Z ; CvDllPreGame::isTurnNotifySteamInvite
PUBLIC	?setTurnNotifySteamInvite@CvDllPreGame@@UAGXW4PlayerTypes@@_N@Z ; CvDllPreGame::setTurnNotifySteamInvite
PUBLIC	?isTurnNotifyEmail@CvDllPreGame@@UBG_NW4PlayerTypes@@@Z ; CvDllPreGame::isTurnNotifyEmail
PUBLIC	?setTurnNotifyEmail@CvDllPreGame@@UAGXW4PlayerTypes@@_N@Z ; CvDllPreGame::setTurnNotifyEmail
PUBLIC	?getTurnNotifyEmailAddress@CvDllPreGame@@UBGABVCvString@@W4PlayerTypes@@@Z ; CvDllPreGame::getTurnNotifyEmailAddress
PUBLIC	?setTurnNotifyEmailAddress@CvDllPreGame@@UAGXW4PlayerTypes@@ABVCvString@@@Z ; CvDllPreGame::setTurnNotifyEmailAddress
PUBLIC	?VerifyHandicap@CvDllPreGame@@UAGXW4PlayerTypes@@@Z ; CvDllPreGame::VerifyHandicap
PUBLIC	?ReseatConnectedPlayers@CvDllPreGame@@UAGXXZ	; CvDllPreGame::ReseatConnectedPlayers
;	COMDAT ??_R2ICvPreGame1@@8
; File c:\users\enormousapplepie\documents\github\lekmod\lekmod_dll\cvgamecoredll_expansion2\cvdllpregame.cpp
rdata$r	SEGMENT
??_R2ICvPreGame1@@8 DD FLAT:??_R1A@?0A@EA@ICvPreGame1@@8 ; ICvPreGame1::`RTTI Base Class Array'
	DD	FLAT:??_R1A@?0A@EA@ICvUnknown@@8
rdata$r	ENDS
;	COMDAT ??_R3ICvPreGame1@@8
rdata$r	SEGMENT
??_R3ICvPreGame1@@8 DD 00H				; ICvPreGame1::`RTTI Class Hierarchy Descriptor'
	DD	00H
	DD	02H
	DD	FLAT:??_R2ICvPreGame1@@8
rdata$r	ENDS
;	COMDAT ??_R0?AVICvPreGame1@@@8
_DATA	SEGMENT
??_R0?AVICvPreGame1@@@8 DD FLAT:??_7type_info@@6B@	; ICvPreGame1 `RTTI Type Descriptor'
	DD	00H
	DB	'.?AVICvPreGame1@@', 00H
_DATA	ENDS
;	COMDAT ??_R1A@?0A@EA@ICvPreGame1@@8
rdata$r	SEGMENT
??_R1A@?0A@EA@ICvPreGame1@@8 DD FLAT:??_R0?AVICvPreGame1@@@8 ; ICvPreGame1::`RTTI Base Class Descriptor at (0,-1,0,64)'
	DD	01H
	DD	00H
	DD	0ffffffffH
	DD	00H
	DD	040H
	DD	FLAT:??_R3ICvPreGame1@@8
rdata$r	ENDS
;	COMDAT ??_R2ICvPreGame2@@8
rdata$r	SEGMENT
??_R2ICvPreGame2@@8 DD FLAT:??_R1A@?0A@EA@ICvPreGame2@@8 ; ICvPreGame2::`RTTI Base Class Array'
	DD	FLAT:??_R1A@?0A@EA@ICvPreGame1@@8
	DD	FLAT:??_R1A@?0A@EA@ICvUnknown@@8
rdata$r	ENDS
;	COMDAT ??_R3ICvPreGame2@@8
rdata$r	SEGMENT
??_R3ICvPreGame2@@8 DD 00H				; ICvPreGame2::`RTTI Class Hierarchy Descriptor'
	DD	00H
	DD	03H
	DD	FLAT:??_R2ICvPreGame2@@8
rdata$r	ENDS
;	COMDAT ??_R0?AVICvPreGame2@@@8
_DATA	SEGMENT
??_R0?AVICvPreGame2@@@8 DD FLAT:??_7type_info@@6B@	; ICvPreGame2 `RTTI Type Descriptor'
	DD	00H
	DB	'.?AVICvPreGame2@@', 00H
_DATA	ENDS
;	COMDAT ??_R1A@?0A@EA@ICvPreGame2@@8
rdata$r	SEGMENT
??_R1A@?0A@EA@ICvPreGame2@@8 DD FLAT:??_R0?AVICvPreGame2@@@8 ; ICvPreGame2::`RTTI Base Class Descriptor at (0,-1,0,64)'
	DD	02H
	DD	00H
	DD	0ffffffffH
	DD	00H
	DD	040H
	DD	FLAT:??_R3ICvPreGame2@@8
rdata$r	ENDS
;	COMDAT ??_R1A@?0A@EA@CvDllPreGame@@8
rdata$r	SEGMENT
??_R1A@?0A@EA@CvDllPreGame@@8 DD FLAT:??_R0?AVCvDllPreGame@@@8 ; CvDllPreGame::`RTTI Base Class Descriptor at (0,-1,0,64)'
	DD	03H
	DD	00H
	DD	0ffffffffH
	DD	00H
	DD	040H
	DD	FLAT:??_R3CvDllPreGame@@8
rdata$r	ENDS
;	COMDAT ??_R2CvDllPreGame@@8
rdata$r	SEGMENT
??_R2CvDllPreGame@@8 DD FLAT:??_R1A@?0A@EA@CvDllPreGame@@8 ; CvDllPreGame::`RTTI Base Class Array'
	DD	FLAT:??_R1A@?0A@EA@ICvPreGame2@@8
	DD	FLAT:??_R1A@?0A@EA@ICvPreGame1@@8
	DD	FLAT:??_R1A@?0A@EA@ICvUnknown@@8
rdata$r	ENDS
;	COMDAT ??_R3CvDllPreGame@@8
rdata$r	SEGMENT
??_R3CvDllPreGame@@8 DD 00H				; CvDllPreGame::`RTTI Class Hierarchy Descriptor'
	DD	00H
	DD	04H
	DD	FLAT:??_R2CvDllPreGame@@8
rdata$r	ENDS
;	COMDAT ??_R0?AVCvDllPreGame@@@8
_DATA	SEGMENT
??_R0?AVCvDllPreGame@@@8 DD FLAT:??_7type_info@@6B@	; CvDllPreGame `RTTI Type Descriptor'
	DD	00H
	DB	'.?AVCvDllPreGame@@', 00H
_DATA	ENDS
;	COMDAT ??_R4CvDllPreGame@@6B@
rdata$r	SEGMENT
??_R4CvDllPreGame@@6B@ DD 00H				; CvDllPreGame::`RTTI Complete Object Locator'
	DD	00H
	DD	00H
	DD	FLAT:??_R0?AVCvDllPreGame@@@8
	DD	FLAT:??_R3CvDllPreGame@@8
rdata$r	ENDS
;	COMDAT ??_7CvDllPreGame@@6B@
CONST	SEGMENT
??_7CvDllPreGame@@6B@ DD FLAT:??_R4CvDllPreGame@@6B@	; CvDllPreGame::`vftable'
	DD	FLAT:?QueryInterface@CvDllPreGame@@UAGPAXU_GUID@@@Z
	DD	FLAT:?Destroy@CvDllPreGame@@EAGXXZ
	DD	FLAT:?activePlayer@CvDllPreGame@@UAG?AW4PlayerTypes@@XZ
	DD	FLAT:?advancedStartPoints@CvDllPreGame@@UAGHXZ
	DD	FLAT:?autorun@CvDllPreGame@@UAG_NXZ
	DD	FLAT:?autorunTurnDelay@CvDllPreGame@@UAGMXZ
	DD	FLAT:?autorunTurnLimit@CvDllPreGame@@UAGHXZ
	DD	FLAT:?calendar@CvDllPreGame@@UAG?AW4CalendarTypes@@XZ
	DD	FLAT:?canReadyLocalPlayer@CvDllPreGame@@UAG_NXZ
	DD	FLAT:?civilizationAdjective@CvDllPreGame@@UAG?AVCvString@@W4PlayerTypes@@@Z
	DD	FLAT:?civilizationAdjectiveKey@CvDllPreGame@@UAG?BVCvString@@W4PlayerTypes@@@Z
	DD	FLAT:?civilizationDescription@CvDllPreGame@@UAG?AVCvString@@W4PlayerTypes@@@Z
	DD	FLAT:?civilizationDescriptionKey@CvDllPreGame@@UAG?BVCvString@@W4PlayerTypes@@@Z
	DD	FLAT:?civilization@CvDllPreGame@@UAG?AW4CivilizationTypes@@W4PlayerTypes@@@Z
	DD	FLAT:?civilizationPassword@CvDllPreGame@@UAG?BVCvString@@W4PlayerTypes@@@Z
	DD	FLAT:?civilizationShortDescription@CvDllPreGame@@UAG?AVCvString@@W4PlayerTypes@@@Z
	DD	FLAT:?civilizationShortDescriptionKey@CvDllPreGame@@UAG?BVCvString@@W4PlayerTypes@@@Z
	DD	FLAT:?civilizationKey@CvDllPreGame@@UAG?BVCvString@@W4PlayerTypes@@@Z
	DD	FLAT:?civilizationKeyAvailable@CvDllPreGame@@UAG_NW4PlayerTypes@@@Z
	DD	FLAT:?civilizationKeyPackageID@CvDllPreGame@@UAG?BU_GUID@@W4PlayerTypes@@@Z
	DD	FLAT:?clearDLCAllowed@CvDllPreGame@@UAGXXZ
	DD	FLAT:?climate@CvDllPreGame@@UAG?AW4ClimateTypes@@XZ
	DD	FLAT:?closeAllSlots@CvDllPreGame@@UAGXXZ
	DD	FLAT:?closeInactiveSlots@CvDllPreGame@@UAGXXZ
	DD	FLAT:?emailAddress@CvDllPreGame@@UAG?BVCvString@@XZ
	DD	FLAT:?emailAddress@CvDllPreGame@@UAG?BVCvString@@W4PlayerTypes@@@Z
	DD	FLAT:?endTurnTimerLength@CvDllPreGame@@UAGMXZ
	DD	FLAT:?era@CvDllPreGame@@UAG?AW4EraTypes@@XZ
	DD	FLAT:?findPlayerByNickname@CvDllPreGame@@UAG?AW4PlayerTypes@@QBD@Z
	DD	FLAT:?gameMode@CvDllPreGame@@UAG?AW4GameMode@@XZ
	DD	FLAT:?gameName@CvDllPreGame@@UAG?BVCvString@@XZ
	DD	FLAT:?gameStarted@CvDllPreGame@@UAG_NXZ
	DD	FLAT:?GetGameOptionCount@CvDllPreGame@@UAGIXZ
	DD	FLAT:?GetGameOption@CvDllPreGame@@UAG_NW4GameOptionTypes@@AAH@Z
	DD	FLAT:?GetGameOption@CvDllPreGame@@UAG_NPBDAAH@Z
	DD	FLAT:?GetGameOption@CvDllPreGame@@UAG_NIPADIAAH@Z
	DD	FLAT:?GetMapOptionCount@CvDllPreGame@@UAGIXZ
	DD	FLAT:?GetMapOption@CvDllPreGame@@UAG_NPBDAAH@Z
	DD	FLAT:?GetMapOption@CvDllPreGame@@UAG_NIPADIAAH@Z
	DD	FLAT:?GetPersistSettings@CvDllPreGame@@UAG_NXZ
	DD	FLAT:?gameSpeed@CvDllPreGame@@UAG?AW4GameSpeedTypes@@XZ
	DD	FLAT:?gameTurn@CvDllPreGame@@UAGHXZ
	DD	FLAT:?gameType@CvDllPreGame@@UAG?AW4GameTypes@@XZ
	DD	FLAT:?gameStartType@CvDllPreGame@@UAG?AW4GameStartTypes@@XZ
	DD	FLAT:?handicap@CvDllPreGame@@UAG?AW4HandicapTypes@@W4PlayerTypes@@@Z
	DD	FLAT:?isDLCAllowed@CvDllPreGame@@UAG_NABU_GUID@@@Z
	DD	FLAT:?isDLCAvailable@CvDllPreGame@@UAG_NW4PlayerTypes@@ABU_GUID@@@Z
	DD	FLAT:?isEarthMap@CvDllPreGame@@UAG_NXZ
	DD	FLAT:?isHotSeat@CvDllPreGame@@UAG_NXZ
	DD	FLAT:?isHotSeatGame@CvDllPreGame@@UAG_NXZ
	DD	FLAT:?isHuman@CvDllPreGame@@UAG_NW4PlayerTypes@@@Z
	DD	FLAT:?isInternetGame@CvDllPreGame@@UAG_NXZ
	DD	FLAT:?isMinorCiv@CvDllPreGame@@UAG_NW4PlayerTypes@@@Z
	DD	FLAT:?isNetworkMultiplayerGame@CvDllPreGame@@UAG_NXZ
	DD	FLAT:?isPitBoss@CvDllPreGame@@UAG_NXZ
	DD	FLAT:?isPlayable@CvDllPreGame@@UAG_NW4PlayerTypes@@@Z
	DD	FLAT:?isPlayByEmail@CvDllPreGame@@UAG_NXZ
	DD	FLAT:?isReady@CvDllPreGame@@UAG_NW4PlayerTypes@@@Z
	DD	FLAT:?isVictory@CvDllPreGame@@UAG_NW4VictoryTypes@@@Z
	DD	FLAT:?isWBMapScript@CvDllPreGame@@UAG_NXZ
	DD	FLAT:?isWhiteFlag@CvDllPreGame@@UAG_NW4PlayerTypes@@@Z
	DD	FLAT:?leaderHead@CvDllPreGame@@UAG?AW4LeaderHeadTypes@@W4PlayerTypes@@@Z
	DD	FLAT:?leaderName@CvDllPreGame@@UAG?AVCvString@@W4PlayerTypes@@@Z
	DD	FLAT:?leaderNameKey@CvDllPreGame@@UAG?BVCvString@@W4PlayerTypes@@@Z
	DD	FLAT:?leaderKey@CvDllPreGame@@UAG?BVCvString@@W4PlayerTypes@@@Z
	DD	FLAT:?leaderKeyAvailable@CvDllPreGame@@UAG_NW4PlayerTypes@@@Z
	DD	FLAT:?leaderKeyPackageID@CvDllPreGame@@UAG?BU_GUID@@W4PlayerTypes@@@Z
	DD	FLAT:?loadFileName@CvDllPreGame@@UAG?BVCvString@@XZ
	DD	FLAT:?loadFromIni@CvDllPreGame@@UAGXAAVFIGameIniParser@@@Z
	DD	FLAT:?mapNoPlayers@CvDllPreGame@@UAG_NXZ
	DD	FLAT:?mapRandomSeed@CvDllPreGame@@UAGIXZ
	DD	FLAT:?loadWBScenario@CvDllPreGame@@UAG_NXZ
	DD	FLAT:?overrideScenarioHandicap@CvDllPreGame@@UAG_NXZ
	DD	FLAT:?mapScriptName@CvDllPreGame@@UAG?BVCvString@@XZ
	DD	FLAT:?maxCityElimination@CvDllPreGame@@UAGHXZ
	DD	FLAT:?maxTurns@CvDllPreGame@@UAGHXZ
	DD	FLAT:?minorCivType@CvDllPreGame@@UAG?AW4MinorCivTypes@@W4PlayerTypes@@@Z
	DD	FLAT:?multiplayerAIEnabled@CvDllPreGame@@UAG_NXZ
	DD	FLAT:?netID@CvDllPreGame@@UAGHW4PlayerTypes@@@Z
	DD	FLAT:?nickname@CvDllPreGame@@UAG?BVCvString@@W4PlayerTypes@@@Z
	DD	FLAT:?nicknameDisplayed@CvDllPreGame@@UAG?BVCvString@@W4PlayerTypes@@@Z
	DD	FLAT:?numMinorCivs@CvDllPreGame@@UAGHXZ
	DD	FLAT:?playerColor@CvDllPreGame@@UAG?AW4PlayerColorTypes@@W4PlayerTypes@@@Z
	DD	FLAT:?privateGame@CvDllPreGame@@UAG_NXZ
	DD	FLAT:?quickCombat@CvDllPreGame@@UAG_NXZ
	DD	FLAT:?quickMovement@CvDllPreGame@@UAG_NXZ
	DD	FLAT:?quickstart@CvDllPreGame@@UAG_NXZ
	DD	FLAT:?randomWorldSize@CvDllPreGame@@UAG_NXZ
	DD	FLAT:?randomMapScript@CvDllPreGame@@UAG_NXZ
	DD	FLAT:?read@CvDllPreGame@@UAGXAAVFDataStream@@_N@Z
	DD	FLAT:?readPlayerSlotInfo@CvDllPreGame@@UAG_NAAVFDataStream@@_N@Z
	DD	FLAT:?resetGame@CvDllPreGame@@UAGXXZ
	DD	FLAT:?ResetGameOptions@CvDllPreGame@@UAGXXZ
	DD	FLAT:?ResetMapOptions@CvDllPreGame@@UAGXXZ
	DD	FLAT:?resetPlayer@CvDllPreGame@@UAGXW4PlayerTypes@@@Z
	DD	FLAT:?resetPlayers@CvDllPreGame@@UAGXXZ
	DD	FLAT:?resetSlots@CvDllPreGame@@UAGXXZ
	DD	FLAT:?restoreSlots@CvDllPreGame@@UAGXXZ
	DD	FLAT:?saveSlots@CvDllPreGame@@UAGXXZ
	DD	FLAT:?seaLevel@CvDllPreGame@@UAG?AW4SeaLevelTypes@@XZ
	DD	FLAT:?setActivePlayer@CvDllPreGame@@UAGXW4PlayerTypes@@@Z
	DD	FLAT:?setAdminPassword@CvDllPreGame@@UAGXABVCvString@@@Z
	DD	FLAT:?setAdvancedStartPoints@CvDllPreGame@@UAGXH@Z
	DD	FLAT:?setAlias@CvDllPreGame@@UAGXABVCvString@@@Z
	DD	FLAT:?setAutorun@CvDllPreGame@@UAGX_N@Z
	DD	FLAT:?setAutorunTurnDelay@CvDllPreGame@@UAGXM@Z
	DD	FLAT:?setAutorunTurnLimit@CvDllPreGame@@UAGXH@Z
	DD	FLAT:?setBandwidth@CvDllPreGame@@UAGXABVCvString@@@Z
	DD	FLAT:?setBandwidth@CvDllPreGame@@UAGXW4BandwidthType@@@Z
	DD	FLAT:?setCalendar@CvDllPreGame@@UAGXABVCvString@@@Z
	DD	FLAT:?setCalendar@CvDllPreGame@@UAGXW4CalendarTypes@@@Z
	DD	FLAT:?setCivilization@CvDllPreGame@@UAGXW4PlayerTypes@@W4CivilizationTypes@@@Z
	DD	FLAT:?setCivilizationAdjective@CvDllPreGame@@UAGXW4PlayerTypes@@ABVCvString@@@Z
	DD	FLAT:?setCivilizationDescription@CvDllPreGame@@UAGXW4PlayerTypes@@ABVCvString@@@Z
	DD	FLAT:?setCivilizationPassword@CvDllPreGame@@UAGXW4PlayerTypes@@ABVCvString@@@Z
	DD	FLAT:?setCivilizationShortDescription@CvDllPreGame@@UAGXW4PlayerTypes@@ABVCvString@@@Z
	DD	FLAT:?setCivilizationKey@CvDllPreGame@@UAGXW4PlayerTypes@@ABVCvString@@@Z
	DD	FLAT:?setCivilizationKeyPackageID@CvDllPreGame@@UAGXW4PlayerTypes@@ABU_GUID@@@Z
	DD	FLAT:?setClimate@CvDllPreGame@@UAGXABVCvString@@@Z
	DD	FLAT:?setClimate@CvDllPreGame@@UAGXW4ClimateTypes@@@Z
	DD	FLAT:?setCustomWorldSize@CvDllPreGame@@UAGXHHHH@Z
	DD	FLAT:?setDLCAllowed@CvDllPreGame@@UAGXABU_GUID@@_N@Z
	DD	FLAT:?setEarthMap@CvDllPreGame@@UAGX_N@Z
	DD	FLAT:?setEmailAddress@CvDllPreGame@@UAGXABVCvString@@@Z
	DD	FLAT:?setEmailAddress@CvDllPreGame@@UAGXW4PlayerTypes@@ABVCvString@@@Z
	DD	FLAT:?setEndTurnTimerLength@CvDllPreGame@@UAGXM@Z
	DD	FLAT:?setEra@CvDllPreGame@@UAGXABVCvString@@@Z
	DD	FLAT:?setEra@CvDllPreGame@@UAGXW4EraTypes@@@Z
	DD	FLAT:?setGameMode@CvDllPreGame@@UAGXW4GameMode@@@Z
	DD	FLAT:?setGameName@CvDllPreGame@@UAGXABVCvString@@@Z
	DD	FLAT:?setGameSpeed@CvDllPreGame@@UAGXABVCvString@@@Z
	DD	FLAT:?setGameSpeed@CvDllPreGame@@UAGXW4GameSpeedTypes@@@Z
	DD	FLAT:?setGameStarted@CvDllPreGame@@UAGX_N@Z
	DD	FLAT:?setGameTurn@CvDllPreGame@@UAGXH@Z
	DD	FLAT:?SetGameOption@CvDllPreGame@@UAG_NW4GameOptionTypes@@H@Z
	DD	FLAT:?SetGameOption@CvDllPreGame@@UAG_NPBDH@Z
	DD	FLAT:?setGameType@CvDllPreGame@@UAGXABVCvString@@@Z
	DD	FLAT:?setGameType@CvDllPreGame@@UAGXW4GameTypes@@W4GameStartTypes@@@Z
	DD	FLAT:?setGameType@CvDllPreGame@@UAGXW4GameTypes@@@Z
	DD	FLAT:?setGameStartType@CvDllPreGame@@UAGXW4GameStartTypes@@@Z
	DD	FLAT:?setGameUpdateTime@CvDllPreGame@@UAGXH@Z
	DD	FLAT:?setHandicap@CvDllPreGame@@UAGXW4PlayerTypes@@W4HandicapTypes@@@Z
	DD	FLAT:?setInternetGame@CvDllPreGame@@UAGX_N@Z
	DD	FLAT:?setLeaderHead@CvDllPreGame@@UAGXW4PlayerTypes@@W4LeaderHeadTypes@@@Z
	DD	FLAT:?setLeaderName@CvDllPreGame@@UAGXW4PlayerTypes@@ABVCvString@@@Z
	DD	FLAT:?setLeaderKey@CvDllPreGame@@UAGXW4PlayerTypes@@ABVCvString@@@Z
	DD	FLAT:?setLeaderKeyPackageID@CvDllPreGame@@UAGXW4PlayerTypes@@ABU_GUID@@@Z
	DD	FLAT:?setLoadFileName@CvDllPreGame@@UAGXABVCvString@@@Z
	DD	FLAT:?setMapNoPlayers@CvDllPreGame@@UAGX_N@Z
	DD	FLAT:?setMapRandomSeed@CvDllPreGame@@UAGXI@Z
	DD	FLAT:?setLoadWBScenario@CvDllPreGame@@UAGX_N@Z
	DD	FLAT:?setOverrideScenarioHandicap@CvDllPreGame@@UAGX_N@Z
	DD	FLAT:?setMapScriptName@CvDllPreGame@@UAGXABVCvString@@@Z
	DD	FLAT:?SetMapOption@CvDllPreGame@@UAG_NPBDH@Z
	DD	FLAT:?setMaxCityElimination@CvDllPreGame@@UAGXH@Z
	DD	FLAT:?setMaxTurns@CvDllPreGame@@UAGXH@Z
	DD	FLAT:?setMinorCivType@CvDllPreGame@@UAGXW4PlayerTypes@@W4MinorCivTypes@@@Z
	DD	FLAT:?setMinorCiv@CvDllPreGame@@UAGXW4PlayerTypes@@_N@Z
	DD	FLAT:?setMultiplayerAIEnabled@CvDllPreGame@@UAGX_N@Z
	DD	FLAT:?setNetID@CvDllPreGame@@UAGXW4PlayerTypes@@H@Z
	DD	FLAT:?setNickname@CvDllPreGame@@UAGXW4PlayerTypes@@ABVCvString@@@Z
	DD	FLAT:?setNumMinorCivs@CvDllPreGame@@UAGXH@Z
	DD	FLAT:?setPersistSettings@CvDllPreGame@@UAGX_N@Z
	DD	FLAT:?setPlayable@CvDllPreGame@@UAGXW4PlayerTypes@@_N@Z
	DD	FLAT:?setPlayerColor@CvDllPreGame@@UAGXW4PlayerTypes@@W4PlayerColorTypes@@@Z
	DD	FLAT:?setPrivateGame@CvDllPreGame@@UAGX_N@Z
	DD	FLAT:?setQuickCombat@CvDllPreGame@@UAGX_N@Z
	DD	FLAT:?setQuickMovement@CvDllPreGame@@UAGX_N@Z
	DD	FLAT:?setQuickHandicap@CvDllPreGame@@UAGXABVCvString@@@Z
	DD	FLAT:?setQuickHandicap@CvDllPreGame@@UAGXW4HandicapTypes@@@Z
	DD	FLAT:?setQuickstart@CvDllPreGame@@UAGX_N@Z
	DD	FLAT:?setRandomWorldSize@CvDllPreGame@@UAGX_N@Z
	DD	FLAT:?setRandomMapScript@CvDllPreGame@@UAGX_N@Z
	DD	FLAT:?setReady@CvDllPreGame@@UAGXW4PlayerTypes@@_N@Z
	DD	FLAT:?setSeaLevel@CvDllPreGame@@UAGXABVCvString@@@Z
	DD	FLAT:?setSeaLevel@CvDllPreGame@@UAGXW4SeaLevelTypes@@@Z
	DD	FLAT:?setSlotClaim@CvDllPreGame@@UAGXW4PlayerTypes@@W4SlotClaim@@@Z
	DD	FLAT:?setSlotStatus@CvDllPreGame@@UAGXW4PlayerTypes@@W4SlotStatus@@@Z
	DD	FLAT:?setSyncRandomSeed@CvDllPreGame@@UAGXI@Z
	DD	FLAT:?setTeamType@CvDllPreGame@@UAGXW4PlayerTypes@@W4TeamTypes@@@Z
	DD	FLAT:?setTransferredMap@CvDllPreGame@@UAGX_N@Z
	DD	FLAT:?setTurnTimer@CvDllPreGame@@UAGXABVCvString@@@Z
	DD	FLAT:?setTurnTimer@CvDllPreGame@@UAGXW4TurnTimerTypes@@@Z
	DD	FLAT:?SetCityScreenBlocked@CvDllPreGame@@UAGX_N@Z
	DD	FLAT:?setVersionString@CvDllPreGame@@UAGXABV?$basic_string@DU?$char_traits@D@std@@V?$allocator@D@2@@std@@@Z
	DD	FLAT:?setVictory@CvDllPreGame@@UAGXW4VictoryTypes@@_N@Z
	DD	FLAT:?setVictories@CvDllPreGame@@UAGXABV?$vector@_NV?$allocator@_N@std@@@std@@@Z
	DD	FLAT:?setWhiteFlag@CvDllPreGame@@UAGXW4PlayerTypes@@_N@Z
	DD	FLAT:?setWorldSize@CvDllPreGame@@UAGXABVCvString@@@Z
	DD	FLAT:?setWorldSize@CvDllPreGame@@UAGXW4WorldSizeTypes@@_N@Z
	DD	FLAT:?slotClaim@CvDllPreGame@@UAG?AW4SlotClaim@@W4PlayerTypes@@@Z
	DD	FLAT:?slotStatus@CvDllPreGame@@UAG?AW4SlotStatus@@W4PlayerTypes@@@Z
	DD	FLAT:?syncRandomSeed@CvDllPreGame@@UAGIXZ
	DD	FLAT:?transferredMap@CvDllPreGame@@UAG_NXZ
	DD	FLAT:?teamType@CvDllPreGame@@UAG?AW4TeamTypes@@W4PlayerTypes@@@Z
	DD	FLAT:?turnTimer@CvDllPreGame@@UAG?AW4TurnTimerTypes@@XZ
	DD	FLAT:?versionString@CvDllPreGame@@UAG?BV?$basic_string@DU?$char_traits@D@std@@V?$allocator@D@2@@std@@XZ
	DD	FLAT:?worldSize@CvDllPreGame@@UAG?AW4WorldSizeTypes@@XZ
	DD	FLAT:?GetWorldInfo@CvDllPreGame@@UAGPAVICvWorldInfo1@@XZ
	DD	FLAT:?write@CvDllPreGame@@UAGXAAVFDataStream@@@Z
	DD	FLAT:?getActiveSlotCount@CvDllPreGame@@UAGHXZ
	DD	FLAT:?readActiveSlotCountFromSaveGame@CvDllPreGame@@UAGHAAVFDataStream@@_N@Z
	DD	FLAT:?LoadFileStorage@CvDllPreGame@@UAG?AW4StorageLocation@@XZ
	DD	FLAT:?SetLoadFileName@CvDllPreGame@@UAGXPBDW4StorageLocation@@@Z
	DD	FLAT:?GetDLCAllowed@CvDllPreGame@@UAGPAVICvEnumerator@@XZ
	DD	FLAT:?GetDLCAvailable@CvDllPreGame@@UAGPAVICvEnumerator@@W4PlayerTypes@@@Z
	DD	FLAT:?SetDLCAvailable@CvDllPreGame@@UAGXW4PlayerTypes@@PAVICvEnumerator@@@Z
	DD	FLAT:?pitBossTurnTime@CvDllPreGame@@UAGHXZ
	DD	FLAT:?setPitBossTurnTime@CvDllPreGame@@UAGXH@Z
	DD	FLAT:?isTurnNotifySteamInvite@CvDllPreGame@@UBG_NW4PlayerTypes@@@Z
	DD	FLAT:?setTurnNotifySteamInvite@CvDllPreGame@@UAGXW4PlayerTypes@@_N@Z
	DD	FLAT:?isTurnNotifyEmail@CvDllPreGame@@UBG_NW4PlayerTypes@@@Z
	DD	FLAT:?setTurnNotifyEmail@CvDllPreGame@@UAGXW4PlayerTypes@@_N@Z
	DD	FLAT:?getTurnNotifyEmailAddress@CvDllPreGame@@UBGABVCvString@@W4PlayerTypes@@@Z
	DD	FLAT:?setTurnNotifyEmailAddress@CvDllPreGame@@UAGXW4PlayerTypes@@ABVCvString@@@Z
	DD	FLAT:?VerifyHandicap@CvDllPreGame@@UAGXW4PlayerTypes@@@Z
	DD	FLAT:?ReseatConnectedPlayers@CvDllPreGame@@UAGXXZ
; Function compile flags: /Ogtpy
CONST	ENDS
;	COMDAT ??1CvDllPreGame@@QAE@XZ
_TEXT	SEGMENT
??1CvDllPreGame@@QAE@XZ PROC				; CvDllPreGame::~CvDllPreGame, COMDAT
; _this$ = ecx

; 20   : {

	mov	DWORD PTR [ecx], OFFSET ??_7CvDllPreGame@@6B@

; 21   : }

	ret	0
??1CvDllPreGame@@QAE@XZ ENDP				; CvDllPreGame::~CvDllPreGame
_TEXT	ENDS
PUBLIC	??3CvDllPreGame@@SAXPAX@Z			; CvDllPreGame::operator delete
EXTRN	?Free@CvDllGameContext@@SAXPAX@Z:PROC		; CvDllGameContext::Free
; Function compile flags: /Ogtpy
;	COMDAT ??3CvDllPreGame@@SAXPAX@Z
_TEXT	SEGMENT
_p$ = 8							; size = 4
??3CvDllPreGame@@SAXPAX@Z PROC				; CvDllPreGame::operator delete, COMDAT

; 42   : 	CvDllGameContext::Free(p);

	jmp	?Free@CvDllGameContext@@SAXPAX@Z	; CvDllGameContext::Free
??3CvDllPreGame@@SAXPAX@Z ENDP				; CvDllPreGame::operator delete
_TEXT	ENDS
PUBLIC	??2CvDllPreGame@@SAPAXI@Z			; CvDllPreGame::operator new
EXTRN	?Allocate@CvDllGameContext@@SAPAXI@Z:PROC	; CvDllGameContext::Allocate
; Function compile flags: /Ogtpy
;	COMDAT ??2CvDllPreGame@@SAPAXI@Z
_TEXT	SEGMENT
_bytes$ = 8						; size = 4
??2CvDllPreGame@@SAPAXI@Z PROC				; CvDllPreGame::operator new, COMDAT

; 47   : 	return CvDllGameContext::Allocate(bytes);

	jmp	?Allocate@CvDllGameContext@@SAPAXI@Z	; CvDllGameContext::Allocate
??2CvDllPreGame@@SAPAXI@Z ENDP				; CvDllPreGame::operator new
_TEXT	ENDS
EXTRN	?activePlayer@CvPreGame@@YA?AW4PlayerTypes@@XZ:PROC ; CvPreGame::activePlayer
; Function compile flags: /Ogtpy
;	COMDAT ?activePlayer@CvDllPreGame@@UAG?AW4PlayerTypes@@XZ
_TEXT	SEGMENT
_this$ = 8						; size = 4
?activePlayer@CvDllPreGame@@UAG?AW4PlayerTypes@@XZ PROC	; CvDllPreGame::activePlayer, COMDAT

; 52   : 	return CvPreGame::activePlayer();

	call	?activePlayer@CvPreGame@@YA?AW4PlayerTypes@@XZ ; CvPreGame::activePlayer

; 53   : }

	ret	4
?activePlayer@CvDllPreGame@@UAG?AW4PlayerTypes@@XZ ENDP	; CvDllPreGame::activePlayer
_TEXT	ENDS
EXTRN	?advancedStartPoints@CvPreGame@@YAHXZ:PROC	; CvPreGame::advancedStartPoints
; Function compile flags: /Ogtpy
;	COMDAT ?advancedStartPoints@CvDllPreGame@@UAGHXZ
_TEXT	SEGMENT
_this$ = 8						; size = 4
?advancedStartPoints@CvDllPreGame@@UAGHXZ PROC		; CvDllPreGame::advancedStartPoints, COMDAT

; 57   : 	return CvPreGame::advancedStartPoints();

	call	?advancedStartPoints@CvPreGame@@YAHXZ	; CvPreGame::advancedStartPoints

; 58   : }

	ret	4
?advancedStartPoints@CvDllPreGame@@UAGHXZ ENDP		; CvDllPreGame::advancedStartPoints
_TEXT	ENDS
EXTRN	?autorun@CvPreGame@@YA_NXZ:PROC			; CvPreGame::autorun
; Function compile flags: /Ogtpy
;	COMDAT ?autorun@CvDllPreGame@@UAG_NXZ
_TEXT	SEGMENT
_this$ = 8						; size = 4
?autorun@CvDllPreGame@@UAG_NXZ PROC			; CvDllPreGame::autorun, COMDAT

; 62   : 	return CvPreGame::autorun();

	call	?autorun@CvPreGame@@YA_NXZ		; CvPreGame::autorun

; 63   : }

	ret	4
?autorun@CvDllPreGame@@UAG_NXZ ENDP			; CvDllPreGame::autorun
_TEXT	ENDS
EXTRN	?autorunTurnDelay@CvPreGame@@YAMXZ:PROC		; CvPreGame::autorunTurnDelay
EXTRN	__fltused:DWORD
; Function compile flags: /Ogtpy
;	COMDAT ?autorunTurnDelay@CvDllPreGame@@UAGMXZ
_TEXT	SEGMENT
_this$ = 8						; size = 4
?autorunTurnDelay@CvDllPreGame@@UAGMXZ PROC		; CvDllPreGame::autorunTurnDelay, COMDAT

; 67   : 	return CvPreGame::autorunTurnDelay();

	call	?autorunTurnDelay@CvPreGame@@YAMXZ	; CvPreGame::autorunTurnDelay

; 68   : }

	ret	4
?autorunTurnDelay@CvDllPreGame@@UAGMXZ ENDP		; CvDllPreGame::autorunTurnDelay
_TEXT	ENDS
EXTRN	?autorunTurnLimit@CvPreGame@@YAHXZ:PROC		; CvPreGame::autorunTurnLimit
; Function compile flags: /Ogtpy
;	COMDAT ?autorunTurnLimit@CvDllPreGame@@UAGHXZ
_TEXT	SEGMENT
_this$ = 8						; size = 4
?autorunTurnLimit@CvDllPreGame@@UAGHXZ PROC		; CvDllPreGame::autorunTurnLimit, COMDAT

; 72   : 	return CvPreGame::autorunTurnLimit();

	call	?autorunTurnLimit@CvPreGame@@YAHXZ	; CvPreGame::autorunTurnLimit

; 73   : }

	ret	4
?autorunTurnLimit@CvDllPreGame@@UAGHXZ ENDP		; CvDllPreGame::autorunTurnLimit
_TEXT	ENDS
EXTRN	?calendar@CvPreGame@@YA?AW4CalendarTypes@@XZ:PROC ; CvPreGame::calendar
; Function compile flags: /Ogtpy
;	COMDAT ?calendar@CvDllPreGame@@UAG?AW4CalendarTypes@@XZ
_TEXT	SEGMENT
_this$ = 8						; size = 4
?calendar@CvDllPreGame@@UAG?AW4CalendarTypes@@XZ PROC	; CvDllPreGame::calendar, COMDAT

; 77   : 	return CvPreGame::calendar();

	call	?calendar@CvPreGame@@YA?AW4CalendarTypes@@XZ ; CvPreGame::calendar

; 78   : }

	ret	4
?calendar@CvDllPreGame@@UAG?AW4CalendarTypes@@XZ ENDP	; CvDllPreGame::calendar
_TEXT	ENDS
EXTRN	?canReadyLocalPlayer@CvPreGame@@YA_NXZ:PROC	; CvPreGame::canReadyLocalPlayer
; Function compile flags: /Ogtpy
;	COMDAT ?canReadyLocalPlayer@CvDllPreGame@@UAG_NXZ
_TEXT	SEGMENT
_this$ = 8						; size = 4
?canReadyLocalPlayer@CvDllPreGame@@UAG_NXZ PROC		; CvDllPreGame::canReadyLocalPlayer, COMDAT

; 82   : 	return CvPreGame::canReadyLocalPlayer();

	call	?canReadyLocalPlayer@CvPreGame@@YA_NXZ	; CvPreGame::canReadyLocalPlayer

; 83   : }

	ret	4
?canReadyLocalPlayer@CvDllPreGame@@UAG_NXZ ENDP		; CvDllPreGame::canReadyLocalPlayer
_TEXT	ENDS
EXTRN	?civilization@CvPreGame@@YA?AW4CivilizationTypes@@W4PlayerTypes@@@Z:PROC ; CvPreGame::civilization
; Function compile flags: /Ogtpy
;	COMDAT ?civilization@CvDllPreGame@@UAG?AW4CivilizationTypes@@W4PlayerTypes@@@Z
_TEXT	SEGMENT
_this$ = 8						; size = 4
_p$ = 12						; size = 4
?civilization@CvDllPreGame@@UAG?AW4CivilizationTypes@@W4PlayerTypes@@@Z PROC ; CvDllPreGame::civilization, COMDAT

; 107  : 	return CvPreGame::civilization(p);

	mov	eax, DWORD PTR _p$[esp-4]
	push	eax
	call	?civilization@CvPreGame@@YA?AW4CivilizationTypes@@W4PlayerTypes@@@Z ; CvPreGame::civilization
	add	esp, 4

; 108  : }

	ret	8
?civilization@CvDllPreGame@@UAG?AW4CivilizationTypes@@W4PlayerTypes@@@Z ENDP ; CvDllPreGame::civilization
_TEXT	ENDS
EXTRN	?civilizationKeyAvailable@CvPreGame@@YA_NW4PlayerTypes@@@Z:PROC ; CvPreGame::civilizationKeyAvailable
; Function compile flags: /Ogtpy
;	COMDAT ?civilizationKeyAvailable@CvDllPreGame@@UAG_NW4PlayerTypes@@@Z
_TEXT	SEGMENT
_this$ = 8						; size = 4
_p$ = 12						; size = 4
?civilizationKeyAvailable@CvDllPreGame@@UAG_NW4PlayerTypes@@@Z PROC ; CvDllPreGame::civilizationKeyAvailable, COMDAT

; 132  : 	return CvPreGame::civilizationKeyAvailable(p);

	mov	eax, DWORD PTR _p$[esp-4]
	push	eax
	call	?civilizationKeyAvailable@CvPreGame@@YA_NW4PlayerTypes@@@Z ; CvPreGame::civilizationKeyAvailable
	add	esp, 4

; 133  : }

	ret	8
?civilizationKeyAvailable@CvDllPreGame@@UAG_NW4PlayerTypes@@@Z ENDP ; CvDllPreGame::civilizationKeyAvailable
_TEXT	ENDS
EXTRN	?civilizationKeyPackageID@CvPreGame@@YAABU_GUID@@W4PlayerTypes@@@Z:PROC ; CvPreGame::civilizationKeyPackageID
; Function compile flags: /Ogtpy
;	COMDAT ?civilizationKeyPackageID@CvDllPreGame@@UAG?BU_GUID@@W4PlayerTypes@@@Z
_TEXT	SEGMENT
_this$ = 8						; size = 4
___$ReturnUdt$ = 12					; size = 4
_p$ = 16						; size = 4
?civilizationKeyPackageID@CvDllPreGame@@UAG?BU_GUID@@W4PlayerTypes@@@Z PROC ; CvDllPreGame::civilizationKeyPackageID, COMDAT

; 137  : 	return CvPreGame:: civilizationKeyPackageID(p);

	mov	eax, DWORD PTR _p$[esp-4]
	push	eax
	call	?civilizationKeyPackageID@CvPreGame@@YAABU_GUID@@W4PlayerTypes@@@Z ; CvPreGame::civilizationKeyPackageID
	mov	ecx, DWORD PTR ___$ReturnUdt$[esp]
	mov	edx, DWORD PTR [eax]
	mov	DWORD PTR [ecx], edx
	mov	edx, DWORD PTR [eax+4]
	mov	DWORD PTR [ecx+4], edx
	mov	edx, DWORD PTR [eax+8]
	mov	eax, DWORD PTR [eax+12]
	mov	DWORD PTR [ecx+8], edx
	mov	DWORD PTR [ecx+12], eax
	add	esp, 4
	mov	eax, ecx

; 138  : }

	ret	12					; 0000000cH
?civilizationKeyPackageID@CvDllPreGame@@UAG?BU_GUID@@W4PlayerTypes@@@Z ENDP ; CvDllPreGame::civilizationKeyPackageID
_TEXT	ENDS
EXTRN	?clearDLCAllowed@CvPreGame@@YAXXZ:PROC		; CvPreGame::clearDLCAllowed
; Function compile flags: /Ogtpy
;	COMDAT ?clearDLCAllowed@CvDllPreGame@@UAGXXZ
_TEXT	SEGMENT
_this$ = 8						; size = 4
?clearDLCAllowed@CvDllPreGame@@UAGXXZ PROC		; CvDllPreGame::clearDLCAllowed, COMDAT

; 142  : 	CvPreGame::clearDLCAllowed();

	call	?clearDLCAllowed@CvPreGame@@YAXXZ	; CvPreGame::clearDLCAllowed

; 143  : }

	ret	4
?clearDLCAllowed@CvDllPreGame@@UAGXXZ ENDP		; CvDllPreGame::clearDLCAllowed
_TEXT	ENDS
EXTRN	?climate@CvPreGame@@YA?AW4ClimateTypes@@XZ:PROC	; CvPreGame::climate
; Function compile flags: /Ogtpy
;	COMDAT ?climate@CvDllPreGame@@UAG?AW4ClimateTypes@@XZ
_TEXT	SEGMENT
_this$ = 8						; size = 4
?climate@CvDllPreGame@@UAG?AW4ClimateTypes@@XZ PROC	; CvDllPreGame::climate, COMDAT

; 147  : 	return CvPreGame::climate();

	call	?climate@CvPreGame@@YA?AW4ClimateTypes@@XZ ; CvPreGame::climate

; 148  : }

	ret	4
?climate@CvDllPreGame@@UAG?AW4ClimateTypes@@XZ ENDP	; CvDllPreGame::climate
_TEXT	ENDS
PUBLIC	_IsEqualGUID
; Function compile flags: /Ogtpy
; File c:\program files\microsoft sdks\windows\v6.0a\include\guiddef.h
;	COMDAT _IsEqualGUID
_TEXT	SEGMENT
_rguid1$ = 8						; size = 4
_rguid2$ = 12						; size = 4
_IsEqualGUID PROC					; COMDAT

; 161  :     return !memcmp(&rguid1, &rguid2, sizeof(GUID));

	mov	ecx, DWORD PTR _rguid2$[esp-4]
	mov	edx, DWORD PTR _rguid1$[esp-4]
	mov	eax, 16					; 00000010H
	push	esi
	npad	2
$LL4@IsEqualGUI:
	mov	esi, DWORD PTR [edx]
	cmp	esi, DWORD PTR [ecx]
	jne	SHORT $LN5@IsEqualGUI
	sub	eax, 4
	add	ecx, 4
	add	edx, 4
	cmp	eax, 4
	jae	SHORT $LL4@IsEqualGUI
	xor	eax, eax
	xor	edx, edx
	test	eax, eax
	sete	dl
	pop	esi
	mov	eax, edx

; 162  : }

	ret	0
$LN5@IsEqualGUI:

; 161  :     return !memcmp(&rguid1, &rguid2, sizeof(GUID));

	movzx	eax, BYTE PTR [edx]
	movzx	esi, BYTE PTR [ecx]
	sub	eax, esi
	jne	SHORT $LN7@IsEqualGUI
	movzx	eax, BYTE PTR [edx+1]
	movzx	esi, BYTE PTR [ecx+1]
	sub	eax, esi
	jne	SHORT $LN7@IsEqualGUI
	movzx	eax, BYTE PTR [edx+2]
	movzx	esi, BYTE PTR [ecx+2]
	sub	eax, esi
	jne	SHORT $LN7@IsEqualGUI
	movzx	eax, BYTE PTR [edx+3]
	movzx	ecx, BYTE PTR [ecx+3]
	sub	eax, ecx
$LN7@IsEqualGUI:
	sar	eax, 31					; 0000001fH
	or	eax, 1
	xor	edx, edx
	test	eax, eax
	sete	dl
	pop	esi
	mov	eax, edx

; 162  : }

	ret	0
_IsEqualGUID ENDP
_TEXT	ENDS
EXTRN	?closeAllSlots@CvPreGame@@YAXXZ:PROC		; CvPreGame::closeAllSlots
; Function compile flags: /Ogtpy
; File c:\users\enormousapplepie\documents\github\lekmod\lekmod_dll\cvgamecoredll_expansion2\cvdllpregame.cpp
;	COMDAT ?closeAllSlots@CvDllPreGame@@UAGXXZ
_TEXT	SEGMENT
_this$ = 8						; size = 4
?closeAllSlots@CvDllPreGame@@UAGXXZ PROC		; CvDllPreGame::closeAllSlots, COMDAT

; 152  : 	CvPreGame::closeAllSlots();

	call	?closeAllSlots@CvPreGame@@YAXXZ		; CvPreGame::closeAllSlots

; 153  : }

	ret	4
?closeAllSlots@CvDllPreGame@@UAGXXZ ENDP		; CvDllPreGame::closeAllSlots
_TEXT	ENDS
PUBLIC	_==
; Function compile flags: /Ogtpy
; File c:\program files\microsoft sdks\windows\v6.0a\include\guiddef.h
;	COMDAT _==
_TEXT	SEGMENT
_guidOne$ = 8						; size = 4
_guidOther$ = 12					; size = 4
_==	PROC						; COMDAT

; 194  :     return IsEqualGUID(guidOne,guidOther);

	jmp	_IsEqualGUID
_==	ENDP
_TEXT	ENDS
EXTRN	?closeInactiveSlots@CvPreGame@@YAXXZ:PROC	; CvPreGame::closeInactiveSlots
; Function compile flags: /Ogtpy
; File c:\users\enormousapplepie\documents\github\lekmod\lekmod_dll\cvgamecoredll_expansion2\cvdllpregame.cpp
;	COMDAT ?closeInactiveSlots@CvDllPreGame@@UAGXXZ
_TEXT	SEGMENT
_this$ = 8						; size = 4
?closeInactiveSlots@CvDllPreGame@@UAGXXZ PROC		; CvDllPreGame::closeInactiveSlots, COMDAT

; 157  : 	CvPreGame::closeInactiveSlots();

	call	?closeInactiveSlots@CvPreGame@@YAXXZ	; CvPreGame::closeInactiveSlots

; 158  : }

	ret	4
?closeInactiveSlots@CvDllPreGame@@UAGXXZ ENDP		; CvDllPreGame::closeInactiveSlots
_TEXT	ENDS
EXTRN	?endTurnTimerLength@CvPreGame@@YAMXZ:PROC	; CvPreGame::endTurnTimerLength
; Function compile flags: /Ogtpy
;	COMDAT ?endTurnTimerLength@CvDllPreGame@@UAGMXZ
_TEXT	SEGMENT
_this$ = 8						; size = 4
?endTurnTimerLength@CvDllPreGame@@UAGMXZ PROC		; CvDllPreGame::endTurnTimerLength, COMDAT

; 172  : 	return CvPreGame::endTurnTimerLength();

	call	?endTurnTimerLength@CvPreGame@@YAMXZ	; CvPreGame::endTurnTimerLength

; 173  : }

	ret	4
?endTurnTimerLength@CvDllPreGame@@UAGMXZ ENDP		; CvDllPreGame::endTurnTimerLength
_TEXT	ENDS
EXTRN	?era@CvPreGame@@YA?AW4EraTypes@@XZ:PROC		; CvPreGame::era
; Function compile flags: /Ogtpy
;	COMDAT ?era@CvDllPreGame@@UAG?AW4EraTypes@@XZ
_TEXT	SEGMENT
_this$ = 8						; size = 4
?era@CvDllPreGame@@UAG?AW4EraTypes@@XZ PROC		; CvDllPreGame::era, COMDAT

; 177  : 	return CvPreGame::era();

	call	?era@CvPreGame@@YA?AW4EraTypes@@XZ	; CvPreGame::era

; 178  : }

	ret	4
?era@CvDllPreGame@@UAG?AW4EraTypes@@XZ ENDP		; CvDllPreGame::era
_TEXT	ENDS
EXTRN	?findPlayerByNickname@CvPreGame@@YA?AW4PlayerTypes@@QBD@Z:PROC ; CvPreGame::findPlayerByNickname
; Function compile flags: /Ogtpy
;	COMDAT ?findPlayerByNickname@CvDllPreGame@@UAG?AW4PlayerTypes@@QBD@Z
_TEXT	SEGMENT
_this$ = 8						; size = 4
_name$ = 12						; size = 4
?findPlayerByNickname@CvDllPreGame@@UAG?AW4PlayerTypes@@QBD@Z PROC ; CvDllPreGame::findPlayerByNickname, COMDAT

; 182  : 	return CvPreGame::findPlayerByNickname(name);

	mov	eax, DWORD PTR _name$[esp-4]
	push	eax
	call	?findPlayerByNickname@CvPreGame@@YA?AW4PlayerTypes@@QBD@Z ; CvPreGame::findPlayerByNickname
	add	esp, 4

; 183  : }

	ret	8
?findPlayerByNickname@CvDllPreGame@@UAG?AW4PlayerTypes@@QBD@Z ENDP ; CvDllPreGame::findPlayerByNickname
_TEXT	ENDS
EXTRN	?gameMode@CvPreGame@@YA?AW4GameMode@@XZ:PROC	; CvPreGame::gameMode
; Function compile flags: /Ogtpy
;	COMDAT ?gameMode@CvDllPreGame@@UAG?AW4GameMode@@XZ
_TEXT	SEGMENT
_this$ = 8						; size = 4
?gameMode@CvDllPreGame@@UAG?AW4GameMode@@XZ PROC	; CvDllPreGame::gameMode, COMDAT

; 187  : 	return CvPreGame::gameMode();

	call	?gameMode@CvPreGame@@YA?AW4GameMode@@XZ	; CvPreGame::gameMode

; 188  : }

	ret	4
?gameMode@CvDllPreGame@@UAG?AW4GameMode@@XZ ENDP	; CvDllPreGame::gameMode
_TEXT	ENDS
EXTRN	?gameStarted@CvPreGame@@YA_NXZ:PROC		; CvPreGame::gameStarted
; Function compile flags: /Ogtpy
;	COMDAT ?gameStarted@CvDllPreGame@@UAG_NXZ
_TEXT	SEGMENT
_this$ = 8						; size = 4
?gameStarted@CvDllPreGame@@UAG_NXZ PROC			; CvDllPreGame::gameStarted, COMDAT

; 197  : 	return CvPreGame::gameStarted();

	call	?gameStarted@CvPreGame@@YA_NXZ		; CvPreGame::gameStarted

; 198  : }

	ret	4
?gameStarted@CvDllPreGame@@UAG_NXZ ENDP			; CvDllPreGame::gameStarted
_TEXT	ENDS
EXTRN	?GetGameOption@CvPreGame@@YA_NPBDAAH@Z:PROC	; CvPreGame::GetGameOption
; Function compile flags: /Ogtpy
;	COMDAT ?GetGameOption@CvDllPreGame@@UAG_NPBDAAH@Z
_TEXT	SEGMENT
_this$ = 8						; size = 4
_szOptionName$ = 12					; size = 4
_iValue$ = 16						; size = 4
?GetGameOption@CvDllPreGame@@UAG_NPBDAAH@Z PROC		; CvDllPreGame::GetGameOption, COMDAT

; 202  : 	return CvPreGame::GetGameOption(szOptionName, iValue);

	mov	eax, DWORD PTR _iValue$[esp-4]
	mov	ecx, DWORD PTR _szOptionName$[esp-4]
	push	eax
	push	ecx
	call	?GetGameOption@CvPreGame@@YA_NPBDAAH@Z	; CvPreGame::GetGameOption
	add	esp, 8

; 203  : }

	ret	12					; 0000000cH
?GetGameOption@CvDllPreGame@@UAG_NPBDAAH@Z ENDP		; CvDllPreGame::GetGameOption
_TEXT	ENDS
EXTRN	?GetGameOption@CvPreGame@@YA_NW4GameOptionTypes@@AAH@Z:PROC ; CvPreGame::GetGameOption
; Function compile flags: /Ogtpy
;	COMDAT ?GetGameOption@CvDllPreGame@@UAG_NW4GameOptionTypes@@AAH@Z
_TEXT	SEGMENT
_this$ = 8						; size = 4
_eOption$ = 12						; size = 4
_iValue$ = 16						; size = 4
?GetGameOption@CvDllPreGame@@UAG_NW4GameOptionTypes@@AAH@Z PROC ; CvDllPreGame::GetGameOption, COMDAT

; 207  : 	return CvPreGame::GetGameOption(eOption, iValue);

	mov	eax, DWORD PTR _iValue$[esp-4]
	mov	ecx, DWORD PTR _eOption$[esp-4]
	push	eax
	push	ecx
	call	?GetGameOption@CvPreGame@@YA_NW4GameOptionTypes@@AAH@Z ; CvPreGame::GetGameOption
	add	esp, 8

; 208  : }

	ret	12					; 0000000cH
?GetGameOption@CvDllPreGame@@UAG_NW4GameOptionTypes@@AAH@Z ENDP ; CvDllPreGame::GetGameOption
_TEXT	ENDS
EXTRN	?GetMapOption@CvPreGame@@YA_NPBDAAH@Z:PROC	; CvPreGame::GetMapOption
; Function compile flags: /Ogtpy
;	COMDAT ?GetMapOption@CvDllPreGame@@UAG_NPBDAAH@Z
_TEXT	SEGMENT
_this$ = 8						; size = 4
_szOptionName$ = 12					; size = 4
_iValue$ = 16						; size = 4
?GetMapOption@CvDllPreGame@@UAG_NPBDAAH@Z PROC		; CvDllPreGame::GetMapOption, COMDAT

; 256  : 	return CvPreGame::GetMapOption(szOptionName, iValue);

	mov	eax, DWORD PTR _iValue$[esp-4]
	mov	ecx, DWORD PTR _szOptionName$[esp-4]
	push	eax
	push	ecx
	call	?GetMapOption@CvPreGame@@YA_NPBDAAH@Z	; CvPreGame::GetMapOption
	add	esp, 8

; 257  : }

	ret	12					; 0000000cH
?GetMapOption@CvDllPreGame@@UAG_NPBDAAH@Z ENDP		; CvDllPreGame::GetMapOption
_TEXT	ENDS
EXTRN	?GetPersistSettings@CvPreGame@@YA_NXZ:PROC	; CvPreGame::GetPersistSettings
; Function compile flags: /Ogtpy
;	COMDAT ?GetPersistSettings@CvDllPreGame@@UAG_NXZ
_TEXT	SEGMENT
_this$ = 8						; size = 4
?GetPersistSettings@CvDllPreGame@@UAG_NXZ PROC		; CvDllPreGame::GetPersistSettings, COMDAT

; 261  : 	return CvPreGame::GetPersistSettings();

	call	?GetPersistSettings@CvPreGame@@YA_NXZ	; CvPreGame::GetPersistSettings

; 262  : }

	ret	4
?GetPersistSettings@CvDllPreGame@@UAG_NXZ ENDP		; CvDllPreGame::GetPersistSettings
_TEXT	ENDS
EXTRN	?gameSpeed@CvPreGame@@YA?AW4GameSpeedTypes@@XZ:PROC ; CvPreGame::gameSpeed
; Function compile flags: /Ogtpy
;	COMDAT ?gameSpeed@CvDllPreGame@@UAG?AW4GameSpeedTypes@@XZ
_TEXT	SEGMENT
_this$ = 8						; size = 4
?gameSpeed@CvDllPreGame@@UAG?AW4GameSpeedTypes@@XZ PROC	; CvDllPreGame::gameSpeed, COMDAT

; 266  : 	return CvPreGame::gameSpeed();

	call	?gameSpeed@CvPreGame@@YA?AW4GameSpeedTypes@@XZ ; CvPreGame::gameSpeed

; 267  : }

	ret	4
?gameSpeed@CvDllPreGame@@UAG?AW4GameSpeedTypes@@XZ ENDP	; CvDllPreGame::gameSpeed
_TEXT	ENDS
EXTRN	?gameTurn@CvPreGame@@YAHXZ:PROC			; CvPreGame::gameTurn
; Function compile flags: /Ogtpy
;	COMDAT ?gameTurn@CvDllPreGame@@UAGHXZ
_TEXT	SEGMENT
_this$ = 8						; size = 4
?gameTurn@CvDllPreGame@@UAGHXZ PROC			; CvDllPreGame::gameTurn, COMDAT

; 271  : 	return CvPreGame::gameTurn();

	call	?gameTurn@CvPreGame@@YAHXZ		; CvPreGame::gameTurn

; 272  : }

	ret	4
?gameTurn@CvDllPreGame@@UAGHXZ ENDP			; CvDllPreGame::gameTurn
_TEXT	ENDS
EXTRN	?gameType@CvPreGame@@YA?AW4GameTypes@@XZ:PROC	; CvPreGame::gameType
; Function compile flags: /Ogtpy
;	COMDAT ?gameType@CvDllPreGame@@UAG?AW4GameTypes@@XZ
_TEXT	SEGMENT
_this$ = 8						; size = 4
?gameType@CvDllPreGame@@UAG?AW4GameTypes@@XZ PROC	; CvDllPreGame::gameType, COMDAT

; 276  : 	return CvPreGame::gameType();

	call	?gameType@CvPreGame@@YA?AW4GameTypes@@XZ ; CvPreGame::gameType

; 277  : }

	ret	4
?gameType@CvDllPreGame@@UAG?AW4GameTypes@@XZ ENDP	; CvDllPreGame::gameType
_TEXT	ENDS
EXTRN	?gameStartType@CvPreGame@@YA?AW4GameStartTypes@@XZ:PROC ; CvPreGame::gameStartType
; Function compile flags: /Ogtpy
;	COMDAT ?gameStartType@CvDllPreGame@@UAG?AW4GameStartTypes@@XZ
_TEXT	SEGMENT
_this$ = 8						; size = 4
?gameStartType@CvDllPreGame@@UAG?AW4GameStartTypes@@XZ PROC ; CvDllPreGame::gameStartType, COMDAT

; 281  : 	return CvPreGame::gameStartType();

	call	?gameStartType@CvPreGame@@YA?AW4GameStartTypes@@XZ ; CvPreGame::gameStartType

; 282  : }

	ret	4
?gameStartType@CvDllPreGame@@UAG?AW4GameStartTypes@@XZ ENDP ; CvDllPreGame::gameStartType
_TEXT	ENDS
EXTRN	?handicap@CvPreGame@@YA?AW4HandicapTypes@@W4PlayerTypes@@@Z:PROC ; CvPreGame::handicap
; Function compile flags: /Ogtpy
;	COMDAT ?handicap@CvDllPreGame@@UAG?AW4HandicapTypes@@W4PlayerTypes@@@Z
_TEXT	SEGMENT
_this$ = 8						; size = 4
_p$ = 12						; size = 4
?handicap@CvDllPreGame@@UAG?AW4HandicapTypes@@W4PlayerTypes@@@Z PROC ; CvDllPreGame::handicap, COMDAT

; 286  : 	return CvPreGame::handicap(p);

	mov	eax, DWORD PTR _p$[esp-4]
	push	eax
	call	?handicap@CvPreGame@@YA?AW4HandicapTypes@@W4PlayerTypes@@@Z ; CvPreGame::handicap
	add	esp, 4

; 287  : }

	ret	8
?handicap@CvDllPreGame@@UAG?AW4HandicapTypes@@W4PlayerTypes@@@Z ENDP ; CvDllPreGame::handicap
_TEXT	ENDS
EXTRN	?isDLCAllowed@CvPreGame@@YA_NABU_GUID@@@Z:PROC	; CvPreGame::isDLCAllowed
; Function compile flags: /Ogtpy
;	COMDAT ?isDLCAllowed@CvDllPreGame@@UAG_NABU_GUID@@@Z
_TEXT	SEGMENT
_this$ = 8						; size = 4
_kDLCID$ = 12						; size = 4
?isDLCAllowed@CvDllPreGame@@UAG_NABU_GUID@@@Z PROC	; CvDllPreGame::isDLCAllowed, COMDAT

; 291  : 	return CvPreGame::isDLCAllowed(kDLCID);

	mov	eax, DWORD PTR _kDLCID$[esp-4]
	push	eax
	call	?isDLCAllowed@CvPreGame@@YA_NABU_GUID@@@Z ; CvPreGame::isDLCAllowed
	add	esp, 4

; 292  : }

	ret	8
?isDLCAllowed@CvDllPreGame@@UAG_NABU_GUID@@@Z ENDP	; CvDllPreGame::isDLCAllowed
_TEXT	ENDS
EXTRN	?isDLCAvailable@CvPreGame@@YA_NW4PlayerTypes@@ABU_GUID@@@Z:PROC ; CvPreGame::isDLCAvailable
; Function compile flags: /Ogtpy
;	COMDAT ?isDLCAvailable@CvDllPreGame@@UAG_NW4PlayerTypes@@ABU_GUID@@@Z
_TEXT	SEGMENT
_this$ = 8						; size = 4
_p$ = 12						; size = 4
_kDLCID$ = 16						; size = 4
?isDLCAvailable@CvDllPreGame@@UAG_NW4PlayerTypes@@ABU_GUID@@@Z PROC ; CvDllPreGame::isDLCAvailable, COMDAT

; 296  : 	return CvPreGame::isDLCAvailable(p, kDLCID);

	mov	eax, DWORD PTR _kDLCID$[esp-4]
	mov	ecx, DWORD PTR _p$[esp-4]
	push	eax
	push	ecx
	call	?isDLCAvailable@CvPreGame@@YA_NW4PlayerTypes@@ABU_GUID@@@Z ; CvPreGame::isDLCAvailable
	add	esp, 8

; 297  : }

	ret	12					; 0000000cH
?isDLCAvailable@CvDllPreGame@@UAG_NW4PlayerTypes@@ABU_GUID@@@Z ENDP ; CvDllPreGame::isDLCAvailable
; Function compile flags: /Ogtpy
_TEXT	ENDS
;	COMDAT ?isEarthMap@CvDllPreGame@@UAG_NXZ
_TEXT	SEGMENT
_this$ = 8						; size = 4
?isEarthMap@CvDllPreGame@@UAG_NXZ PROC			; CvDllPreGame::isEarthMap, COMDAT

; 301  : 	//This function is no longer used, it only exists for interface compatibility.
; 302  : 	return false;

	xor	al, al

; 303  : }

	ret	4
?isEarthMap@CvDllPreGame@@UAG_NXZ ENDP			; CvDllPreGame::isEarthMap
_TEXT	ENDS
EXTRN	?isHotSeat@CvPreGame@@YA_NXZ:PROC		; CvPreGame::isHotSeat
; Function compile flags: /Ogtpy
;	COMDAT ?isHotSeat@CvDllPreGame@@UAG_NXZ
_TEXT	SEGMENT
_this$ = 8						; size = 4
?isHotSeat@CvDllPreGame@@UAG_NXZ PROC			; CvDllPreGame::isHotSeat, COMDAT

; 307  : 	return CvPreGame::isHotSeat();

	call	?isHotSeat@CvPreGame@@YA_NXZ		; CvPreGame::isHotSeat

; 308  : }

	ret	4
?isHotSeat@CvDllPreGame@@UAG_NXZ ENDP			; CvDllPreGame::isHotSeat
_TEXT	ENDS
EXTRN	?isHotSeatGame@CvPreGame@@YA_NXZ:PROC		; CvPreGame::isHotSeatGame
; Function compile flags: /Ogtpy
;	COMDAT ?isHotSeatGame@CvDllPreGame@@UAG_NXZ
_TEXT	SEGMENT
_this$ = 8						; size = 4
?isHotSeatGame@CvDllPreGame@@UAG_NXZ PROC		; CvDllPreGame::isHotSeatGame, COMDAT

; 312  : 	return CvPreGame::isHotSeatGame();

	call	?isHotSeatGame@CvPreGame@@YA_NXZ	; CvPreGame::isHotSeatGame

; 313  : }

	ret	4
?isHotSeatGame@CvDllPreGame@@UAG_NXZ ENDP		; CvDllPreGame::isHotSeatGame
_TEXT	ENDS
EXTRN	?isHuman@CvPreGame@@YA_NW4PlayerTypes@@@Z:PROC	; CvPreGame::isHuman
; Function compile flags: /Ogtpy
;	COMDAT ?isHuman@CvDllPreGame@@UAG_NW4PlayerTypes@@@Z
_TEXT	SEGMENT
_this$ = 8						; size = 4
_p$ = 12						; size = 4
?isHuman@CvDllPreGame@@UAG_NW4PlayerTypes@@@Z PROC	; CvDllPreGame::isHuman, COMDAT

; 317  : 	return CvPreGame::isHuman(p);

	mov	eax, DWORD PTR _p$[esp-4]
	push	eax
	call	?isHuman@CvPreGame@@YA_NW4PlayerTypes@@@Z ; CvPreGame::isHuman
	add	esp, 4

; 318  : }

	ret	8
?isHuman@CvDllPreGame@@UAG_NW4PlayerTypes@@@Z ENDP	; CvDllPreGame::isHuman
_TEXT	ENDS
EXTRN	?isInternetGame@CvPreGame@@YA_NXZ:PROC		; CvPreGame::isInternetGame
; Function compile flags: /Ogtpy
;	COMDAT ?isInternetGame@CvDllPreGame@@UAG_NXZ
_TEXT	SEGMENT
_this$ = 8						; size = 4
?isInternetGame@CvDllPreGame@@UAG_NXZ PROC		; CvDllPreGame::isInternetGame, COMDAT

; 322  : 	return CvPreGame::isInternetGame();

	call	?isInternetGame@CvPreGame@@YA_NXZ	; CvPreGame::isInternetGame

; 323  : }

	ret	4
?isInternetGame@CvDllPreGame@@UAG_NXZ ENDP		; CvDllPreGame::isInternetGame
_TEXT	ENDS
EXTRN	?isMinorCiv@CvPreGame@@YA_NW4PlayerTypes@@@Z:PROC ; CvPreGame::isMinorCiv
; Function compile flags: /Ogtpy
;	COMDAT ?isMinorCiv@CvDllPreGame@@UAG_NW4PlayerTypes@@@Z
_TEXT	SEGMENT
_this$ = 8						; size = 4
_p$ = 12						; size = 4
?isMinorCiv@CvDllPreGame@@UAG_NW4PlayerTypes@@@Z PROC	; CvDllPreGame::isMinorCiv, COMDAT

; 327  : 	return CvPreGame::isMinorCiv(p);

	mov	eax, DWORD PTR _p$[esp-4]
	push	eax
	call	?isMinorCiv@CvPreGame@@YA_NW4PlayerTypes@@@Z ; CvPreGame::isMinorCiv
	add	esp, 4

; 328  : }

	ret	8
?isMinorCiv@CvDllPreGame@@UAG_NW4PlayerTypes@@@Z ENDP	; CvDllPreGame::isMinorCiv
_TEXT	ENDS
EXTRN	?isNetworkMultiplayerGame@CvPreGame@@YA_NXZ:PROC ; CvPreGame::isNetworkMultiplayerGame
; Function compile flags: /Ogtpy
;	COMDAT ?isNetworkMultiplayerGame@CvDllPreGame@@UAG_NXZ
_TEXT	SEGMENT
_this$ = 8						; size = 4
?isNetworkMultiplayerGame@CvDllPreGame@@UAG_NXZ PROC	; CvDllPreGame::isNetworkMultiplayerGame, COMDAT

; 332  : 	return CvPreGame::isNetworkMultiplayerGame();

	call	?isNetworkMultiplayerGame@CvPreGame@@YA_NXZ ; CvPreGame::isNetworkMultiplayerGame

; 333  : }

	ret	4
?isNetworkMultiplayerGame@CvDllPreGame@@UAG_NXZ ENDP	; CvDllPreGame::isNetworkMultiplayerGame
_TEXT	ENDS
EXTRN	?isPitBoss@CvPreGame@@YA_NXZ:PROC		; CvPreGame::isPitBoss
; Function compile flags: /Ogtpy
;	COMDAT ?isPitBoss@CvDllPreGame@@UAG_NXZ
_TEXT	SEGMENT
_this$ = 8						; size = 4
?isPitBoss@CvDllPreGame@@UAG_NXZ PROC			; CvDllPreGame::isPitBoss, COMDAT

; 337  : 	return CvPreGame::isPitBoss();

	call	?isPitBoss@CvPreGame@@YA_NXZ		; CvPreGame::isPitBoss

; 338  : }

	ret	4
?isPitBoss@CvDllPreGame@@UAG_NXZ ENDP			; CvDllPreGame::isPitBoss
_TEXT	ENDS
EXTRN	?isPlayable@CvPreGame@@YA_NW4PlayerTypes@@@Z:PROC ; CvPreGame::isPlayable
; Function compile flags: /Ogtpy
;	COMDAT ?isPlayable@CvDllPreGame@@UAG_NW4PlayerTypes@@@Z
_TEXT	SEGMENT
_this$ = 8						; size = 4
_p$ = 12						; size = 4
?isPlayable@CvDllPreGame@@UAG_NW4PlayerTypes@@@Z PROC	; CvDllPreGame::isPlayable, COMDAT

; 342  : 	return CvPreGame::isPlayable(p);

	mov	eax, DWORD PTR _p$[esp-4]
	push	eax
	call	?isPlayable@CvPreGame@@YA_NW4PlayerTypes@@@Z ; CvPreGame::isPlayable
	add	esp, 4

; 343  : }

	ret	8
?isPlayable@CvDllPreGame@@UAG_NW4PlayerTypes@@@Z ENDP	; CvDllPreGame::isPlayable
_TEXT	ENDS
EXTRN	?isPlayByEmail@CvPreGame@@YA_NXZ:PROC		; CvPreGame::isPlayByEmail
; Function compile flags: /Ogtpy
;	COMDAT ?isPlayByEmail@CvDllPreGame@@UAG_NXZ
_TEXT	SEGMENT
_this$ = 8						; size = 4
?isPlayByEmail@CvDllPreGame@@UAG_NXZ PROC		; CvDllPreGame::isPlayByEmail, COMDAT

; 347  : 	return CvPreGame::isPlayByEmail();

	call	?isPlayByEmail@CvPreGame@@YA_NXZ	; CvPreGame::isPlayByEmail

; 348  : }

	ret	4
?isPlayByEmail@CvDllPreGame@@UAG_NXZ ENDP		; CvDllPreGame::isPlayByEmail
_TEXT	ENDS
EXTRN	?isReady@CvPreGame@@YA_NW4PlayerTypes@@@Z:PROC	; CvPreGame::isReady
; Function compile flags: /Ogtpy
;	COMDAT ?isReady@CvDllPreGame@@UAG_NW4PlayerTypes@@@Z
_TEXT	SEGMENT
_this$ = 8						; size = 4
_p$ = 12						; size = 4
?isReady@CvDllPreGame@@UAG_NW4PlayerTypes@@@Z PROC	; CvDllPreGame::isReady, COMDAT

; 352  : 	return CvPreGame::isReady(p);

	mov	eax, DWORD PTR _p$[esp-4]
	push	eax
	call	?isReady@CvPreGame@@YA_NW4PlayerTypes@@@Z ; CvPreGame::isReady
	add	esp, 4

; 353  : }

	ret	8
?isReady@CvDllPreGame@@UAG_NW4PlayerTypes@@@Z ENDP	; CvDllPreGame::isReady
_TEXT	ENDS
EXTRN	?isVictory@CvPreGame@@YA_NW4VictoryTypes@@@Z:PROC ; CvPreGame::isVictory
; Function compile flags: /Ogtpy
;	COMDAT ?isVictory@CvDllPreGame@@UAG_NW4VictoryTypes@@@Z
_TEXT	SEGMENT
_this$ = 8						; size = 4
_v$ = 12						; size = 4
?isVictory@CvDllPreGame@@UAG_NW4VictoryTypes@@@Z PROC	; CvDllPreGame::isVictory, COMDAT

; 357  : 	return CvPreGame::isVictory(v);

	mov	eax, DWORD PTR _v$[esp-4]
	push	eax
	call	?isVictory@CvPreGame@@YA_NW4VictoryTypes@@@Z ; CvPreGame::isVictory
	add	esp, 4

; 358  : }

	ret	8
?isVictory@CvDllPreGame@@UAG_NW4VictoryTypes@@@Z ENDP	; CvDllPreGame::isVictory
_TEXT	ENDS
EXTRN	?isWBMapScript@CvPreGame@@YA_NXZ:PROC		; CvPreGame::isWBMapScript
; Function compile flags: /Ogtpy
;	COMDAT ?isWBMapScript@CvDllPreGame@@UAG_NXZ
_TEXT	SEGMENT
_this$ = 8						; size = 4
?isWBMapScript@CvDllPreGame@@UAG_NXZ PROC		; CvDllPreGame::isWBMapScript, COMDAT

; 362  : 	return CvPreGame::isWBMapScript();

	call	?isWBMapScript@CvPreGame@@YA_NXZ	; CvPreGame::isWBMapScript

; 363  : }

	ret	4
?isWBMapScript@CvDllPreGame@@UAG_NXZ ENDP		; CvDllPreGame::isWBMapScript
_TEXT	ENDS
EXTRN	?isWhiteFlag@CvPreGame@@YA_NW4PlayerTypes@@@Z:PROC ; CvPreGame::isWhiteFlag
; Function compile flags: /Ogtpy
;	COMDAT ?isWhiteFlag@CvDllPreGame@@UAG_NW4PlayerTypes@@@Z
_TEXT	SEGMENT
_this$ = 8						; size = 4
_p$ = 12						; size = 4
?isWhiteFlag@CvDllPreGame@@UAG_NW4PlayerTypes@@@Z PROC	; CvDllPreGame::isWhiteFlag, COMDAT

; 367  : 	return CvPreGame::isWhiteFlag(p);

	mov	eax, DWORD PTR _p$[esp-4]
	push	eax
	call	?isWhiteFlag@CvPreGame@@YA_NW4PlayerTypes@@@Z ; CvPreGame::isWhiteFlag
	add	esp, 4

; 368  : }

	ret	8
?isWhiteFlag@CvDllPreGame@@UAG_NW4PlayerTypes@@@Z ENDP	; CvDllPreGame::isWhiteFlag
_TEXT	ENDS
EXTRN	?leaderHead@CvPreGame@@YA?AW4LeaderHeadTypes@@W4PlayerTypes@@@Z:PROC ; CvPreGame::leaderHead
; Function compile flags: /Ogtpy
;	COMDAT ?leaderHead@CvDllPreGame@@UAG?AW4LeaderHeadTypes@@W4PlayerTypes@@@Z
_TEXT	SEGMENT
_this$ = 8						; size = 4
_p$ = 12						; size = 4
?leaderHead@CvDllPreGame@@UAG?AW4LeaderHeadTypes@@W4PlayerTypes@@@Z PROC ; CvDllPreGame::leaderHead, COMDAT

; 372  : 	return CvPreGame::leaderHead(p);

	mov	eax, DWORD PTR _p$[esp-4]
	push	eax
	call	?leaderHead@CvPreGame@@YA?AW4LeaderHeadTypes@@W4PlayerTypes@@@Z ; CvPreGame::leaderHead
	add	esp, 4

; 373  : }

	ret	8
?leaderHead@CvDllPreGame@@UAG?AW4LeaderHeadTypes@@W4PlayerTypes@@@Z ENDP ; CvDllPreGame::leaderHead
_TEXT	ENDS
EXTRN	?leaderKeyAvailable@CvPreGame@@YA_NW4PlayerTypes@@@Z:PROC ; CvPreGame::leaderKeyAvailable
; Function compile flags: /Ogtpy
;	COMDAT ?leaderKeyAvailable@CvDllPreGame@@UAG_NW4PlayerTypes@@@Z
_TEXT	SEGMENT
_this$ = 8						; size = 4
_p$ = 12						; size = 4
?leaderKeyAvailable@CvDllPreGame@@UAG_NW4PlayerTypes@@@Z PROC ; CvDllPreGame::leaderKeyAvailable, COMDAT

; 392  : 	return CvPreGame::leaderKeyAvailable(p);

	mov	eax, DWORD PTR _p$[esp-4]
	push	eax
	call	?leaderKeyAvailable@CvPreGame@@YA_NW4PlayerTypes@@@Z ; CvPreGame::leaderKeyAvailable
	add	esp, 4

; 393  : }

	ret	8
?leaderKeyAvailable@CvDllPreGame@@UAG_NW4PlayerTypes@@@Z ENDP ; CvDllPreGame::leaderKeyAvailable
_TEXT	ENDS
EXTRN	?leaderKeyPackageID@CvPreGame@@YAABU_GUID@@W4PlayerTypes@@@Z:PROC ; CvPreGame::leaderKeyPackageID
; Function compile flags: /Ogtpy
;	COMDAT ?leaderKeyPackageID@CvDllPreGame@@UAG?BU_GUID@@W4PlayerTypes@@@Z
_TEXT	SEGMENT
_this$ = 8						; size = 4
___$ReturnUdt$ = 12					; size = 4
_p$ = 16						; size = 4
?leaderKeyPackageID@CvDllPreGame@@UAG?BU_GUID@@W4PlayerTypes@@@Z PROC ; CvDllPreGame::leaderKeyPackageID, COMDAT

; 397  : 	return CvPreGame::leaderKeyPackageID(p);

	mov	eax, DWORD PTR _p$[esp-4]
	push	eax
	call	?leaderKeyPackageID@CvPreGame@@YAABU_GUID@@W4PlayerTypes@@@Z ; CvPreGame::leaderKeyPackageID
	mov	ecx, DWORD PTR ___$ReturnUdt$[esp]
	mov	edx, DWORD PTR [eax]
	mov	DWORD PTR [ecx], edx
	mov	edx, DWORD PTR [eax+4]
	mov	DWORD PTR [ecx+4], edx
	mov	edx, DWORD PTR [eax+8]
	mov	eax, DWORD PTR [eax+12]
	mov	DWORD PTR [ecx+8], edx
	mov	DWORD PTR [ecx+12], eax
	add	esp, 4
	mov	eax, ecx

; 398  : }

	ret	12					; 0000000cH
?leaderKeyPackageID@CvDllPreGame@@UAG?BU_GUID@@W4PlayerTypes@@@Z ENDP ; CvDllPreGame::leaderKeyPackageID
_TEXT	ENDS
EXTRN	?loadFromIni@CvPreGame@@YAXAAVFIGameIniParser@@@Z:PROC ; CvPreGame::loadFromIni
; Function compile flags: /Ogtpy
;	COMDAT ?loadFromIni@CvDllPreGame@@UAGXAAVFIGameIniParser@@@Z
_TEXT	SEGMENT
_this$ = 8						; size = 4
_iniParser$ = 12					; size = 4
?loadFromIni@CvDllPreGame@@UAGXAAVFIGameIniParser@@@Z PROC ; CvDllPreGame::loadFromIni, COMDAT

; 407  : 	CvPreGame::loadFromIni(iniParser);

	mov	eax, DWORD PTR _iniParser$[esp-4]
	push	eax
	call	?loadFromIni@CvPreGame@@YAXAAVFIGameIniParser@@@Z ; CvPreGame::loadFromIni
	pop	ecx

; 408  : }

	ret	8
?loadFromIni@CvDllPreGame@@UAGXAAVFIGameIniParser@@@Z ENDP ; CvDllPreGame::loadFromIni
_TEXT	ENDS
EXTRN	?mapNoPlayers@CvPreGame@@YA_NXZ:PROC		; CvPreGame::mapNoPlayers
; Function compile flags: /Ogtpy
;	COMDAT ?mapNoPlayers@CvDllPreGame@@UAG_NXZ
_TEXT	SEGMENT
_this$ = 8						; size = 4
?mapNoPlayers@CvDllPreGame@@UAG_NXZ PROC		; CvDllPreGame::mapNoPlayers, COMDAT

; 412  : 	return CvPreGame::mapNoPlayers();

	call	?mapNoPlayers@CvPreGame@@YA_NXZ		; CvPreGame::mapNoPlayers

; 413  : }

	ret	4
?mapNoPlayers@CvDllPreGame@@UAG_NXZ ENDP		; CvDllPreGame::mapNoPlayers
_TEXT	ENDS
EXTRN	?mapRandomSeed@CvPreGame@@YAIXZ:PROC		; CvPreGame::mapRandomSeed
; Function compile flags: /Ogtpy
;	COMDAT ?mapRandomSeed@CvDllPreGame@@UAGIXZ
_TEXT	SEGMENT
_this$ = 8						; size = 4
?mapRandomSeed@CvDllPreGame@@UAGIXZ PROC		; CvDllPreGame::mapRandomSeed, COMDAT

; 417  : 	return CvPreGame::mapRandomSeed();

	call	?mapRandomSeed@CvPreGame@@YAIXZ		; CvPreGame::mapRandomSeed

; 418  : }

	ret	4
?mapRandomSeed@CvDllPreGame@@UAGIXZ ENDP		; CvDllPreGame::mapRandomSeed
_TEXT	ENDS
EXTRN	?loadWBScenario@CvPreGame@@YA_NXZ:PROC		; CvPreGame::loadWBScenario
; Function compile flags: /Ogtpy
;	COMDAT ?loadWBScenario@CvDllPreGame@@UAG_NXZ
_TEXT	SEGMENT
_this$ = 8						; size = 4
?loadWBScenario@CvDllPreGame@@UAG_NXZ PROC		; CvDllPreGame::loadWBScenario, COMDAT

; 422  : 	return CvPreGame::loadWBScenario();

	call	?loadWBScenario@CvPreGame@@YA_NXZ	; CvPreGame::loadWBScenario

; 423  : }

	ret	4
?loadWBScenario@CvDllPreGame@@UAG_NXZ ENDP		; CvDllPreGame::loadWBScenario
_TEXT	ENDS
EXTRN	?overrideScenarioHandicap@CvPreGame@@YA_NXZ:PROC ; CvPreGame::overrideScenarioHandicap
; Function compile flags: /Ogtpy
;	COMDAT ?overrideScenarioHandicap@CvDllPreGame@@UAG_NXZ
_TEXT	SEGMENT
_this$ = 8						; size = 4
?overrideScenarioHandicap@CvDllPreGame@@UAG_NXZ PROC	; CvDllPreGame::overrideScenarioHandicap, COMDAT

; 427  : 	return CvPreGame::overrideScenarioHandicap();

	call	?overrideScenarioHandicap@CvPreGame@@YA_NXZ ; CvPreGame::overrideScenarioHandicap

; 428  : }

	ret	4
?overrideScenarioHandicap@CvDllPreGame@@UAG_NXZ ENDP	; CvDllPreGame::overrideScenarioHandicap
_TEXT	ENDS
EXTRN	?maxCityElimination@CvPreGame@@YAHXZ:PROC	; CvPreGame::maxCityElimination
; Function compile flags: /Ogtpy
;	COMDAT ?maxCityElimination@CvDllPreGame@@UAGHXZ
_TEXT	SEGMENT
_this$ = 8						; size = 4
?maxCityElimination@CvDllPreGame@@UAGHXZ PROC		; CvDllPreGame::maxCityElimination, COMDAT

; 437  : 	return CvPreGame::maxCityElimination();

	call	?maxCityElimination@CvPreGame@@YAHXZ	; CvPreGame::maxCityElimination

; 438  : }

	ret	4
?maxCityElimination@CvDllPreGame@@UAGHXZ ENDP		; CvDllPreGame::maxCityElimination
_TEXT	ENDS
EXTRN	?maxTurns@CvPreGame@@YAHXZ:PROC			; CvPreGame::maxTurns
; Function compile flags: /Ogtpy
;	COMDAT ?maxTurns@CvDllPreGame@@UAGHXZ
_TEXT	SEGMENT
_this$ = 8						; size = 4
?maxTurns@CvDllPreGame@@UAGHXZ PROC			; CvDllPreGame::maxTurns, COMDAT

; 442  : 	return CvPreGame::maxTurns();

	call	?maxTurns@CvPreGame@@YAHXZ		; CvPreGame::maxTurns

; 443  : }

	ret	4
?maxTurns@CvDllPreGame@@UAGHXZ ENDP			; CvDllPreGame::maxTurns
_TEXT	ENDS
EXTRN	?minorCivType@CvPreGame@@YA?AW4MinorCivTypes@@W4PlayerTypes@@@Z:PROC ; CvPreGame::minorCivType
; Function compile flags: /Ogtpy
;	COMDAT ?minorCivType@CvDllPreGame@@UAG?AW4MinorCivTypes@@W4PlayerTypes@@@Z
_TEXT	SEGMENT
_this$ = 8						; size = 4
_p$ = 12						; size = 4
?minorCivType@CvDllPreGame@@UAG?AW4MinorCivTypes@@W4PlayerTypes@@@Z PROC ; CvDllPreGame::minorCivType, COMDAT

; 447  : 	return CvPreGame::minorCivType(p);

	mov	eax, DWORD PTR _p$[esp-4]
	push	eax
	call	?minorCivType@CvPreGame@@YA?AW4MinorCivTypes@@W4PlayerTypes@@@Z ; CvPreGame::minorCivType
	add	esp, 4

; 448  : }

	ret	8
?minorCivType@CvDllPreGame@@UAG?AW4MinorCivTypes@@W4PlayerTypes@@@Z ENDP ; CvDllPreGame::minorCivType
_TEXT	ENDS
EXTRN	?multiplayerAIEnabled@CvPreGame@@YA_NXZ:PROC	; CvPreGame::multiplayerAIEnabled
; Function compile flags: /Ogtpy
;	COMDAT ?multiplayerAIEnabled@CvDllPreGame@@UAG_NXZ
_TEXT	SEGMENT
_this$ = 8						; size = 4
?multiplayerAIEnabled@CvDllPreGame@@UAG_NXZ PROC	; CvDllPreGame::multiplayerAIEnabled, COMDAT

; 452  : 	return CvPreGame::multiplayerAIEnabled();

	call	?multiplayerAIEnabled@CvPreGame@@YA_NXZ	; CvPreGame::multiplayerAIEnabled

; 453  : }

	ret	4
?multiplayerAIEnabled@CvDllPreGame@@UAG_NXZ ENDP	; CvDllPreGame::multiplayerAIEnabled
_TEXT	ENDS
EXTRN	?netID@CvPreGame@@YAHW4PlayerTypes@@@Z:PROC	; CvPreGame::netID
; Function compile flags: /Ogtpy
;	COMDAT ?netID@CvDllPreGame@@UAGHW4PlayerTypes@@@Z
_TEXT	SEGMENT
_this$ = 8						; size = 4
_p$ = 12						; size = 4
?netID@CvDllPreGame@@UAGHW4PlayerTypes@@@Z PROC		; CvDllPreGame::netID, COMDAT

; 457  : 	return CvPreGame::netID(p);

	mov	eax, DWORD PTR _p$[esp-4]
	push	eax
	call	?netID@CvPreGame@@YAHW4PlayerTypes@@@Z	; CvPreGame::netID
	add	esp, 4

; 458  : }

	ret	8
?netID@CvDllPreGame@@UAGHW4PlayerTypes@@@Z ENDP		; CvDllPreGame::netID
_TEXT	ENDS
EXTRN	?numMinorCivs@CvPreGame@@YAHXZ:PROC		; CvPreGame::numMinorCivs
; Function compile flags: /Ogtpy
;	COMDAT ?numMinorCivs@CvDllPreGame@@UAGHXZ
_TEXT	SEGMENT
_this$ = 8						; size = 4
?numMinorCivs@CvDllPreGame@@UAGHXZ PROC			; CvDllPreGame::numMinorCivs, COMDAT

; 472  : 	return CvPreGame::numMinorCivs();

	call	?numMinorCivs@CvPreGame@@YAHXZ		; CvPreGame::numMinorCivs

; 473  : }

	ret	4
?numMinorCivs@CvDllPreGame@@UAGHXZ ENDP			; CvDllPreGame::numMinorCivs
_TEXT	ENDS
EXTRN	?playerColor@CvPreGame@@YA?AW4PlayerColorTypes@@W4PlayerTypes@@@Z:PROC ; CvPreGame::playerColor
; Function compile flags: /Ogtpy
;	COMDAT ?playerColor@CvDllPreGame@@UAG?AW4PlayerColorTypes@@W4PlayerTypes@@@Z
_TEXT	SEGMENT
_this$ = 8						; size = 4
_p$ = 12						; size = 4
?playerColor@CvDllPreGame@@UAG?AW4PlayerColorTypes@@W4PlayerTypes@@@Z PROC ; CvDllPreGame::playerColor, COMDAT

; 477  : 	return CvPreGame::playerColor(p);

	mov	eax, DWORD PTR _p$[esp-4]
	push	eax
	call	?playerColor@CvPreGame@@YA?AW4PlayerColorTypes@@W4PlayerTypes@@@Z ; CvPreGame::playerColor
	add	esp, 4

; 478  : }

	ret	8
?playerColor@CvDllPreGame@@UAG?AW4PlayerColorTypes@@W4PlayerTypes@@@Z ENDP ; CvDllPreGame::playerColor
_TEXT	ENDS
EXTRN	?privateGame@CvPreGame@@YA_NXZ:PROC		; CvPreGame::privateGame
; Function compile flags: /Ogtpy
;	COMDAT ?privateGame@CvDllPreGame@@UAG_NXZ
_TEXT	SEGMENT
_this$ = 8						; size = 4
?privateGame@CvDllPreGame@@UAG_NXZ PROC			; CvDllPreGame::privateGame, COMDAT

; 482  : 	return CvPreGame::privateGame();

	call	?privateGame@CvPreGame@@YA_NXZ		; CvPreGame::privateGame

; 483  : }

	ret	4
?privateGame@CvDllPreGame@@UAG_NXZ ENDP			; CvDllPreGame::privateGame
_TEXT	ENDS
EXTRN	?quickCombat@CvPreGame@@YA_NXZ:PROC		; CvPreGame::quickCombat
; Function compile flags: /Ogtpy
;	COMDAT ?quickCombat@CvDllPreGame@@UAG_NXZ
_TEXT	SEGMENT
_this$ = 8						; size = 4
?quickCombat@CvDllPreGame@@UAG_NXZ PROC			; CvDllPreGame::quickCombat, COMDAT

; 487  : 	return CvPreGame::quickCombat();

	call	?quickCombat@CvPreGame@@YA_NXZ		; CvPreGame::quickCombat

; 488  : }

	ret	4
?quickCombat@CvDllPreGame@@UAG_NXZ ENDP			; CvDllPreGame::quickCombat
_TEXT	ENDS
EXTRN	?quickMovement@CvPreGame@@YA_NXZ:PROC		; CvPreGame::quickMovement
; Function compile flags: /Ogtpy
;	COMDAT ?quickMovement@CvDllPreGame@@UAG_NXZ
_TEXT	SEGMENT
_this$ = 8						; size = 4
?quickMovement@CvDllPreGame@@UAG_NXZ PROC		; CvDllPreGame::quickMovement, COMDAT

; 492  : 	return CvPreGame::quickMovement();

	call	?quickMovement@CvPreGame@@YA_NXZ	; CvPreGame::quickMovement

; 493  : }

	ret	4
?quickMovement@CvDllPreGame@@UAG_NXZ ENDP		; CvDllPreGame::quickMovement
_TEXT	ENDS
EXTRN	?quickstart@CvPreGame@@YA_NXZ:PROC		; CvPreGame::quickstart
; Function compile flags: /Ogtpy
;	COMDAT ?quickstart@CvDllPreGame@@UAG_NXZ
_TEXT	SEGMENT
_this$ = 8						; size = 4
?quickstart@CvDllPreGame@@UAG_NXZ PROC			; CvDllPreGame::quickstart, COMDAT

; 497  : 	return CvPreGame::quickstart();

	call	?quickstart@CvPreGame@@YA_NXZ		; CvPreGame::quickstart

; 498  : }

	ret	4
?quickstart@CvDllPreGame@@UAG_NXZ ENDP			; CvDllPreGame::quickstart
_TEXT	ENDS
EXTRN	?randomWorldSize@CvPreGame@@YA_NXZ:PROC		; CvPreGame::randomWorldSize
; Function compile flags: /Ogtpy
;	COMDAT ?randomWorldSize@CvDllPreGame@@UAG_NXZ
_TEXT	SEGMENT
_this$ = 8						; size = 4
?randomWorldSize@CvDllPreGame@@UAG_NXZ PROC		; CvDllPreGame::randomWorldSize, COMDAT

; 502  : 	return CvPreGame::randomWorldSize();

	call	?randomWorldSize@CvPreGame@@YA_NXZ	; CvPreGame::randomWorldSize

; 503  : }

	ret	4
?randomWorldSize@CvDllPreGame@@UAG_NXZ ENDP		; CvDllPreGame::randomWorldSize
_TEXT	ENDS
EXTRN	?randomMapScript@CvPreGame@@YA_NXZ:PROC		; CvPreGame::randomMapScript
; Function compile flags: /Ogtpy
;	COMDAT ?randomMapScript@CvDllPreGame@@UAG_NXZ
_TEXT	SEGMENT
_this$ = 8						; size = 4
?randomMapScript@CvDllPreGame@@UAG_NXZ PROC		; CvDllPreGame::randomMapScript, COMDAT

; 507  : 	return CvPreGame::randomMapScript();

	call	?randomMapScript@CvPreGame@@YA_NXZ	; CvPreGame::randomMapScript

; 508  : }

	ret	4
?randomMapScript@CvDllPreGame@@UAG_NXZ ENDP		; CvDllPreGame::randomMapScript
_TEXT	ENDS
EXTRN	?read@CvPreGame@@YAXAAVFDataStream@@_N@Z:PROC	; CvPreGame::read
; Function compile flags: /Ogtpy
;	COMDAT ?read@CvDllPreGame@@UAGXAAVFDataStream@@_N@Z
_TEXT	SEGMENT
_this$ = 8						; size = 4
_loadFrom$ = 12						; size = 4
_bReadVersion$ = 16					; size = 1
?read@CvDllPreGame@@UAGXAAVFDataStream@@_N@Z PROC	; CvDllPreGame::read, COMDAT

; 512  : 	CvPreGame::read(loadFrom, bReadVersion);

	mov	eax, DWORD PTR _bReadVersion$[esp-4]
	mov	ecx, DWORD PTR _loadFrom$[esp-4]
	push	eax
	push	ecx
	call	?read@CvPreGame@@YAXAAVFDataStream@@_N@Z ; CvPreGame::read
	add	esp, 8

; 513  : }

	ret	12					; 0000000cH
?read@CvDllPreGame@@UAGXAAVFDataStream@@_N@Z ENDP	; CvDllPreGame::read
_TEXT	ENDS
EXTRN	?readPlayerSlotInfo@CvPreGame@@YA_NAAVFDataStream@@_N@Z:PROC ; CvPreGame::readPlayerSlotInfo
; Function compile flags: /Ogtpy
;	COMDAT ?readPlayerSlotInfo@CvDllPreGame@@UAG_NAAVFDataStream@@_N@Z
_TEXT	SEGMENT
_this$ = 8						; size = 4
_loadFrom$ = 12						; size = 4
_bReadVersion$ = 16					; size = 1
?readPlayerSlotInfo@CvDllPreGame@@UAG_NAAVFDataStream@@_N@Z PROC ; CvDllPreGame::readPlayerSlotInfo, COMDAT

; 517  : 	return CvPreGame::readPlayerSlotInfo(loadFrom, bReadVersion);

	mov	eax, DWORD PTR _bReadVersion$[esp-4]
	mov	ecx, DWORD PTR _loadFrom$[esp-4]
	push	eax
	push	ecx
	call	?readPlayerSlotInfo@CvPreGame@@YA_NAAVFDataStream@@_N@Z ; CvPreGame::readPlayerSlotInfo
	add	esp, 8

; 518  : }

	ret	12					; 0000000cH
?readPlayerSlotInfo@CvDllPreGame@@UAG_NAAVFDataStream@@_N@Z ENDP ; CvDllPreGame::readPlayerSlotInfo
_TEXT	ENDS
EXTRN	?resetGame@CvPreGame@@YAXXZ:PROC		; CvPreGame::resetGame
; Function compile flags: /Ogtpy
;	COMDAT ?resetGame@CvDllPreGame@@UAGXXZ
_TEXT	SEGMENT
_this$ = 8						; size = 4
?resetGame@CvDllPreGame@@UAGXXZ PROC			; CvDllPreGame::resetGame, COMDAT

; 522  : 	CvPreGame::resetGame();

	call	?resetGame@CvPreGame@@YAXXZ		; CvPreGame::resetGame

; 523  : }

	ret	4
?resetGame@CvDllPreGame@@UAGXXZ ENDP			; CvDllPreGame::resetGame
_TEXT	ENDS
EXTRN	?ResetGameOptions@CvPreGame@@YAXXZ:PROC		; CvPreGame::ResetGameOptions
; Function compile flags: /Ogtpy
;	COMDAT ?ResetGameOptions@CvDllPreGame@@UAGXXZ
_TEXT	SEGMENT
_this$ = 8						; size = 4
?ResetGameOptions@CvDllPreGame@@UAGXXZ PROC		; CvDllPreGame::ResetGameOptions, COMDAT

; 527  : 	CvPreGame::ResetGameOptions();

	call	?ResetGameOptions@CvPreGame@@YAXXZ	; CvPreGame::ResetGameOptions

; 528  : }

	ret	4
?ResetGameOptions@CvDllPreGame@@UAGXXZ ENDP		; CvDllPreGame::ResetGameOptions
_TEXT	ENDS
EXTRN	?ResetMapOptions@CvPreGame@@YAXXZ:PROC		; CvPreGame::ResetMapOptions
; Function compile flags: /Ogtpy
;	COMDAT ?ResetMapOptions@CvDllPreGame@@UAGXXZ
_TEXT	SEGMENT
_this$ = 8						; size = 4
?ResetMapOptions@CvDllPreGame@@UAGXXZ PROC		; CvDllPreGame::ResetMapOptions, COMDAT

; 532  : 	CvPreGame::ResetMapOptions();

	call	?ResetMapOptions@CvPreGame@@YAXXZ	; CvPreGame::ResetMapOptions

; 533  : }

	ret	4
?ResetMapOptions@CvDllPreGame@@UAGXXZ ENDP		; CvDllPreGame::ResetMapOptions
_TEXT	ENDS
EXTRN	?resetPlayer@CvPreGame@@YAXW4PlayerTypes@@@Z:PROC ; CvPreGame::resetPlayer
; Function compile flags: /Ogtpy
;	COMDAT ?resetPlayer@CvDllPreGame@@UAGXW4PlayerTypes@@@Z
_TEXT	SEGMENT
_this$ = 8						; size = 4
_p$ = 12						; size = 4
?resetPlayer@CvDllPreGame@@UAGXW4PlayerTypes@@@Z PROC	; CvDllPreGame::resetPlayer, COMDAT

; 537  : 	CvPreGame::resetPlayer(p);

	mov	eax, DWORD PTR _p$[esp-4]
	push	eax
	call	?resetPlayer@CvPreGame@@YAXW4PlayerTypes@@@Z ; CvPreGame::resetPlayer
	pop	ecx

; 538  : }

	ret	8
?resetPlayer@CvDllPreGame@@UAGXW4PlayerTypes@@@Z ENDP	; CvDllPreGame::resetPlayer
_TEXT	ENDS
EXTRN	?resetPlayers@CvPreGame@@YAXXZ:PROC		; CvPreGame::resetPlayers
; Function compile flags: /Ogtpy
;	COMDAT ?resetPlayers@CvDllPreGame@@UAGXXZ
_TEXT	SEGMENT
_this$ = 8						; size = 4
?resetPlayers@CvDllPreGame@@UAGXXZ PROC			; CvDllPreGame::resetPlayers, COMDAT

; 542  : 	CvPreGame::resetPlayers();

	call	?resetPlayers@CvPreGame@@YAXXZ		; CvPreGame::resetPlayers

; 543  : }

	ret	4
?resetPlayers@CvDllPreGame@@UAGXXZ ENDP			; CvDllPreGame::resetPlayers
_TEXT	ENDS
EXTRN	?resetSlots@CvPreGame@@YAXXZ:PROC		; CvPreGame::resetSlots
; Function compile flags: /Ogtpy
;	COMDAT ?resetSlots@CvDllPreGame@@UAGXXZ
_TEXT	SEGMENT
_this$ = 8						; size = 4
?resetSlots@CvDllPreGame@@UAGXXZ PROC			; CvDllPreGame::resetSlots, COMDAT

; 547  : 	CvPreGame::resetSlots();

	call	?resetSlots@CvPreGame@@YAXXZ		; CvPreGame::resetSlots

; 548  : }

	ret	4
?resetSlots@CvDllPreGame@@UAGXXZ ENDP			; CvDllPreGame::resetSlots
_TEXT	ENDS
EXTRN	?restoreSlots@CvPreGame@@YAXXZ:PROC		; CvPreGame::restoreSlots
; Function compile flags: /Ogtpy
;	COMDAT ?restoreSlots@CvDllPreGame@@UAGXXZ
_TEXT	SEGMENT
_this$ = 8						; size = 4
?restoreSlots@CvDllPreGame@@UAGXXZ PROC			; CvDllPreGame::restoreSlots, COMDAT

; 552  : 	CvPreGame::restoreSlots();

	call	?restoreSlots@CvPreGame@@YAXXZ		; CvPreGame::restoreSlots

; 553  : }

	ret	4
?restoreSlots@CvDllPreGame@@UAGXXZ ENDP			; CvDllPreGame::restoreSlots
_TEXT	ENDS
EXTRN	?saveSlots@CvPreGame@@YAXXZ:PROC		; CvPreGame::saveSlots
; Function compile flags: /Ogtpy
;	COMDAT ?saveSlots@CvDllPreGame@@UAGXXZ
_TEXT	SEGMENT
_this$ = 8						; size = 4
?saveSlots@CvDllPreGame@@UAGXXZ PROC			; CvDllPreGame::saveSlots, COMDAT

; 557  : 	CvPreGame::saveSlots();

	call	?saveSlots@CvPreGame@@YAXXZ		; CvPreGame::saveSlots

; 558  : }

	ret	4
?saveSlots@CvDllPreGame@@UAGXXZ ENDP			; CvDllPreGame::saveSlots
_TEXT	ENDS
EXTRN	?seaLevel@CvPreGame@@YA?AW4SeaLevelTypes@@XZ:PROC ; CvPreGame::seaLevel
; Function compile flags: /Ogtpy
;	COMDAT ?seaLevel@CvDllPreGame@@UAG?AW4SeaLevelTypes@@XZ
_TEXT	SEGMENT
_this$ = 8						; size = 4
?seaLevel@CvDllPreGame@@UAG?AW4SeaLevelTypes@@XZ PROC	; CvDllPreGame::seaLevel, COMDAT

; 562  : 	return CvPreGame::seaLevel();

	call	?seaLevel@CvPreGame@@YA?AW4SeaLevelTypes@@XZ ; CvPreGame::seaLevel

; 563  : }

	ret	4
?seaLevel@CvDllPreGame@@UAG?AW4SeaLevelTypes@@XZ ENDP	; CvDllPreGame::seaLevel
_TEXT	ENDS
EXTRN	?setActivePlayer@CvPreGame@@YAXW4PlayerTypes@@@Z:PROC ; CvPreGame::setActivePlayer
; Function compile flags: /Ogtpy
;	COMDAT ?setActivePlayer@CvDllPreGame@@UAGXW4PlayerTypes@@@Z
_TEXT	SEGMENT
_this$ = 8						; size = 4
_p$ = 12						; size = 4
?setActivePlayer@CvDllPreGame@@UAGXW4PlayerTypes@@@Z PROC ; CvDllPreGame::setActivePlayer, COMDAT

; 567  : 	CvPreGame::setActivePlayer(p);

	mov	eax, DWORD PTR _p$[esp-4]
	push	eax
	call	?setActivePlayer@CvPreGame@@YAXW4PlayerTypes@@@Z ; CvPreGame::setActivePlayer
	pop	ecx

; 568  : }

	ret	8
?setActivePlayer@CvDllPreGame@@UAGXW4PlayerTypes@@@Z ENDP ; CvDllPreGame::setActivePlayer
_TEXT	ENDS
EXTRN	?setAdminPassword@CvPreGame@@YAXABVCvString@@@Z:PROC ; CvPreGame::setAdminPassword
; Function compile flags: /Ogtpy
;	COMDAT ?setAdminPassword@CvDllPreGame@@UAGXABVCvString@@@Z
_TEXT	SEGMENT
_this$ = 8						; size = 4
_p$ = 12						; size = 4
?setAdminPassword@CvDllPreGame@@UAGXABVCvString@@@Z PROC ; CvDllPreGame::setAdminPassword, COMDAT

; 572  : 	CvPreGame::setAdminPassword(p);

	mov	eax, DWORD PTR _p$[esp-4]
	push	eax
	call	?setAdminPassword@CvPreGame@@YAXABVCvString@@@Z ; CvPreGame::setAdminPassword
	pop	ecx

; 573  : }

	ret	8
?setAdminPassword@CvDllPreGame@@UAGXABVCvString@@@Z ENDP ; CvDllPreGame::setAdminPassword
_TEXT	ENDS
EXTRN	?setAdvancedStartPoints@CvPreGame@@YAXH@Z:PROC	; CvPreGame::setAdvancedStartPoints
; Function compile flags: /Ogtpy
;	COMDAT ?setAdvancedStartPoints@CvDllPreGame@@UAGXH@Z
_TEXT	SEGMENT
_this$ = 8						; size = 4
_a$ = 12						; size = 4
?setAdvancedStartPoints@CvDllPreGame@@UAGXH@Z PROC	; CvDllPreGame::setAdvancedStartPoints, COMDAT

; 577  : 	CvPreGame::setAdvancedStartPoints(a);

	mov	eax, DWORD PTR _a$[esp-4]
	push	eax
	call	?setAdvancedStartPoints@CvPreGame@@YAXH@Z ; CvPreGame::setAdvancedStartPoints
	pop	ecx

; 578  : }

	ret	8
?setAdvancedStartPoints@CvDllPreGame@@UAGXH@Z ENDP	; CvDllPreGame::setAdvancedStartPoints
_TEXT	ENDS
EXTRN	?setAlias@CvPreGame@@YAXABVCvString@@@Z:PROC	; CvPreGame::setAlias
; Function compile flags: /Ogtpy
;	COMDAT ?setAlias@CvDllPreGame@@UAGXABVCvString@@@Z
_TEXT	SEGMENT
_this$ = 8						; size = 4
_a$ = 12						; size = 4
?setAlias@CvDllPreGame@@UAGXABVCvString@@@Z PROC	; CvDllPreGame::setAlias, COMDAT

; 582  : 	CvPreGame::setAlias(a);

	mov	eax, DWORD PTR _a$[esp-4]
	push	eax
	call	?setAlias@CvPreGame@@YAXABVCvString@@@Z	; CvPreGame::setAlias
	pop	ecx

; 583  : }

	ret	8
?setAlias@CvDllPreGame@@UAGXABVCvString@@@Z ENDP	; CvDllPreGame::setAlias
_TEXT	ENDS
EXTRN	?setAutorun@CvPreGame@@YAX_N@Z:PROC		; CvPreGame::setAutorun
; Function compile flags: /Ogtpy
;	COMDAT ?setAutorun@CvDllPreGame@@UAGX_N@Z
_TEXT	SEGMENT
_this$ = 8						; size = 4
_isAutoStart$ = 12					; size = 1
?setAutorun@CvDllPreGame@@UAGX_N@Z PROC			; CvDllPreGame::setAutorun, COMDAT

; 587  : 	CvPreGame::setAutorun(isAutoStart);

	mov	eax, DWORD PTR _isAutoStart$[esp-4]
	push	eax
	call	?setAutorun@CvPreGame@@YAX_N@Z		; CvPreGame::setAutorun
	pop	ecx

; 588  : }

	ret	8
?setAutorun@CvDllPreGame@@UAGX_N@Z ENDP			; CvDllPreGame::setAutorun
_TEXT	ENDS
EXTRN	?setAutorunTurnDelay@CvPreGame@@YAXM@Z:PROC	; CvPreGame::setAutorunTurnDelay
; Function compile flags: /Ogtpy
;	COMDAT ?setAutorunTurnDelay@CvDllPreGame@@UAGXM@Z
_TEXT	SEGMENT
_this$ = 8						; size = 4
_turnDelay$ = 12					; size = 4
?setAutorunTurnDelay@CvDllPreGame@@UAGXM@Z PROC		; CvDllPreGame::setAutorunTurnDelay, COMDAT

; 592  : 	CvPreGame::setAutorunTurnDelay(turnDelay);

	mov	eax, DWORD PTR _turnDelay$[esp-4]
	push	ecx
	mov	DWORD PTR [esp], eax
	call	?setAutorunTurnDelay@CvPreGame@@YAXM@Z	; CvPreGame::setAutorunTurnDelay
	pop	ecx

; 593  : }

	ret	8
?setAutorunTurnDelay@CvDllPreGame@@UAGXM@Z ENDP		; CvDllPreGame::setAutorunTurnDelay
_TEXT	ENDS
EXTRN	?setAutorunTurnLimit@CvPreGame@@YAXH@Z:PROC	; CvPreGame::setAutorunTurnLimit
; Function compile flags: /Ogtpy
;	COMDAT ?setAutorunTurnLimit@CvDllPreGame@@UAGXH@Z
_TEXT	SEGMENT
_this$ = 8						; size = 4
_turnLimit$ = 12					; size = 4
?setAutorunTurnLimit@CvDllPreGame@@UAGXH@Z PROC		; CvDllPreGame::setAutorunTurnLimit, COMDAT

; 597  : 	CvPreGame::setAutorunTurnLimit(turnLimit);

	mov	eax, DWORD PTR _turnLimit$[esp-4]
	push	eax
	call	?setAutorunTurnLimit@CvPreGame@@YAXH@Z	; CvPreGame::setAutorunTurnLimit
	pop	ecx

; 598  : }

	ret	8
?setAutorunTurnLimit@CvDllPreGame@@UAGXH@Z ENDP		; CvDllPreGame::setAutorunTurnLimit
_TEXT	ENDS
EXTRN	?setBandwidth@CvPreGame@@YAXW4BandwidthType@@@Z:PROC ; CvPreGame::setBandwidth
; Function compile flags: /Ogtpy
;	COMDAT ?setBandwidth@CvDllPreGame@@UAGXW4BandwidthType@@@Z
_TEXT	SEGMENT
_this$ = 8						; size = 4
_b$ = 12						; size = 4
?setBandwidth@CvDllPreGame@@UAGXW4BandwidthType@@@Z PROC ; CvDllPreGame::setBandwidth, COMDAT

; 602  : 	CvPreGame::setBandwidth(b);

	mov	eax, DWORD PTR _b$[esp-4]
	push	eax
	call	?setBandwidth@CvPreGame@@YAXW4BandwidthType@@@Z ; CvPreGame::setBandwidth
	pop	ecx

; 603  : }

	ret	8
?setBandwidth@CvDllPreGame@@UAGXW4BandwidthType@@@Z ENDP ; CvDllPreGame::setBandwidth
_TEXT	ENDS
EXTRN	?setBandwidth@CvPreGame@@YAXABVCvString@@@Z:PROC ; CvPreGame::setBandwidth
; Function compile flags: /Ogtpy
;	COMDAT ?setBandwidth@CvDllPreGame@@UAGXABVCvString@@@Z
_TEXT	SEGMENT
_this$ = 8						; size = 4
_b$ = 12						; size = 4
?setBandwidth@CvDllPreGame@@UAGXABVCvString@@@Z PROC	; CvDllPreGame::setBandwidth, COMDAT

; 607  : 	CvPreGame::setBandwidth(b);

	mov	eax, DWORD PTR _b$[esp-4]
	push	eax
	call	?setBandwidth@CvPreGame@@YAXABVCvString@@@Z ; CvPreGame::setBandwidth
	pop	ecx

; 608  : }

	ret	8
?setBandwidth@CvDllPreGame@@UAGXABVCvString@@@Z ENDP	; CvDllPreGame::setBandwidth
_TEXT	ENDS
EXTRN	?setCalendar@CvPreGame@@YAXW4CalendarTypes@@@Z:PROC ; CvPreGame::setCalendar
; Function compile flags: /Ogtpy
;	COMDAT ?setCalendar@CvDllPreGame@@UAGXW4CalendarTypes@@@Z
_TEXT	SEGMENT
_this$ = 8						; size = 4
_c$ = 12						; size = 4
?setCalendar@CvDllPreGame@@UAGXW4CalendarTypes@@@Z PROC	; CvDllPreGame::setCalendar, COMDAT

; 612  : 	CvPreGame::setCalendar(c);

	mov	eax, DWORD PTR _c$[esp-4]
	push	eax
	call	?setCalendar@CvPreGame@@YAXW4CalendarTypes@@@Z ; CvPreGame::setCalendar
	pop	ecx

; 613  : }

	ret	8
?setCalendar@CvDllPreGame@@UAGXW4CalendarTypes@@@Z ENDP	; CvDllPreGame::setCalendar
_TEXT	ENDS
EXTRN	?setCalendar@CvPreGame@@YAXABVCvString@@@Z:PROC	; CvPreGame::setCalendar
; Function compile flags: /Ogtpy
;	COMDAT ?setCalendar@CvDllPreGame@@UAGXABVCvString@@@Z
_TEXT	SEGMENT
_this$ = 8						; size = 4
_c$ = 12						; size = 4
?setCalendar@CvDllPreGame@@UAGXABVCvString@@@Z PROC	; CvDllPreGame::setCalendar, COMDAT

; 617  : 	CvPreGame::setCalendar(c);

	mov	eax, DWORD PTR _c$[esp-4]
	push	eax
	call	?setCalendar@CvPreGame@@YAXABVCvString@@@Z ; CvPreGame::setCalendar
	pop	ecx

; 618  : }

	ret	8
?setCalendar@CvDllPreGame@@UAGXABVCvString@@@Z ENDP	; CvDllPreGame::setCalendar
_TEXT	ENDS
EXTRN	?setCivilization@CvPreGame@@YAXW4PlayerTypes@@W4CivilizationTypes@@@Z:PROC ; CvPreGame::setCivilization
; Function compile flags: /Ogtpy
;	COMDAT ?setCivilization@CvDllPreGame@@UAGXW4PlayerTypes@@W4CivilizationTypes@@@Z
_TEXT	SEGMENT
_this$ = 8						; size = 4
_p$ = 12						; size = 4
_c$ = 16						; size = 4
?setCivilization@CvDllPreGame@@UAGXW4PlayerTypes@@W4CivilizationTypes@@@Z PROC ; CvDllPreGame::setCivilization, COMDAT

; 622  : 	CvPreGame::setCivilization(p, c);

	mov	eax, DWORD PTR _c$[esp-4]
	mov	ecx, DWORD PTR _p$[esp-4]
	push	eax
	push	ecx
	call	?setCivilization@CvPreGame@@YAXW4PlayerTypes@@W4CivilizationTypes@@@Z ; CvPreGame::setCivilization
	add	esp, 8

; 623  : }

	ret	12					; 0000000cH
?setCivilization@CvDllPreGame@@UAGXW4PlayerTypes@@W4CivilizationTypes@@@Z ENDP ; CvDllPreGame::setCivilization
_TEXT	ENDS
EXTRN	?setCivilizationAdjective@CvPreGame@@YAXW4PlayerTypes@@ABVCvString@@@Z:PROC ; CvPreGame::setCivilizationAdjective
; Function compile flags: /Ogtpy
;	COMDAT ?setCivilizationAdjective@CvDllPreGame@@UAGXW4PlayerTypes@@ABVCvString@@@Z
_TEXT	SEGMENT
_this$ = 8						; size = 4
_p$ = 12						; size = 4
_a$ = 16						; size = 4
?setCivilizationAdjective@CvDllPreGame@@UAGXW4PlayerTypes@@ABVCvString@@@Z PROC ; CvDllPreGame::setCivilizationAdjective, COMDAT

; 627  : 	CvPreGame::setCivilizationAdjective(p, a);

	mov	eax, DWORD PTR _a$[esp-4]
	mov	ecx, DWORD PTR _p$[esp-4]
	push	eax
	push	ecx
	call	?setCivilizationAdjective@CvPreGame@@YAXW4PlayerTypes@@ABVCvString@@@Z ; CvPreGame::setCivilizationAdjective
	add	esp, 8

; 628  : }

	ret	12					; 0000000cH
?setCivilizationAdjective@CvDllPreGame@@UAGXW4PlayerTypes@@ABVCvString@@@Z ENDP ; CvDllPreGame::setCivilizationAdjective
_TEXT	ENDS
EXTRN	?setCivilizationDescription@CvPreGame@@YAXW4PlayerTypes@@ABVCvString@@@Z:PROC ; CvPreGame::setCivilizationDescription
; Function compile flags: /Ogtpy
;	COMDAT ?setCivilizationDescription@CvDllPreGame@@UAGXW4PlayerTypes@@ABVCvString@@@Z
_TEXT	SEGMENT
_this$ = 8						; size = 4
_p$ = 12						; size = 4
_d$ = 16						; size = 4
?setCivilizationDescription@CvDllPreGame@@UAGXW4PlayerTypes@@ABVCvString@@@Z PROC ; CvDllPreGame::setCivilizationDescription, COMDAT

; 632  : 	CvPreGame::setCivilizationDescription(p, d);

	mov	eax, DWORD PTR _d$[esp-4]
	mov	ecx, DWORD PTR _p$[esp-4]
	push	eax
	push	ecx
	call	?setCivilizationDescription@CvPreGame@@YAXW4PlayerTypes@@ABVCvString@@@Z ; CvPreGame::setCivilizationDescription
	add	esp, 8

; 633  : }

	ret	12					; 0000000cH
?setCivilizationDescription@CvDllPreGame@@UAGXW4PlayerTypes@@ABVCvString@@@Z ENDP ; CvDllPreGame::setCivilizationDescription
_TEXT	ENDS
EXTRN	?setCivilizationPassword@CvPreGame@@YAXW4PlayerTypes@@ABVCvString@@@Z:PROC ; CvPreGame::setCivilizationPassword
; Function compile flags: /Ogtpy
;	COMDAT ?setCivilizationPassword@CvDllPreGame@@UAGXW4PlayerTypes@@ABVCvString@@@Z
_TEXT	SEGMENT
_this$ = 8						; size = 4
_p$ = 12						; size = 4
_pwd$ = 16						; size = 4
?setCivilizationPassword@CvDllPreGame@@UAGXW4PlayerTypes@@ABVCvString@@@Z PROC ; CvDllPreGame::setCivilizationPassword, COMDAT

; 637  : 	CvPreGame::setCivilizationPassword(p, pwd);

	mov	eax, DWORD PTR _pwd$[esp-4]
	mov	ecx, DWORD PTR _p$[esp-4]
	push	eax
	push	ecx
	call	?setCivilizationPassword@CvPreGame@@YAXW4PlayerTypes@@ABVCvString@@@Z ; CvPreGame::setCivilizationPassword
	add	esp, 8

; 638  : }

	ret	12					; 0000000cH
?setCivilizationPassword@CvDllPreGame@@UAGXW4PlayerTypes@@ABVCvString@@@Z ENDP ; CvDllPreGame::setCivilizationPassword
_TEXT	ENDS
EXTRN	?setCivilizationShortDescription@CvPreGame@@YAXW4PlayerTypes@@ABVCvString@@@Z:PROC ; CvPreGame::setCivilizationShortDescription
; Function compile flags: /Ogtpy
;	COMDAT ?setCivilizationShortDescription@CvDllPreGame@@UAGXW4PlayerTypes@@ABVCvString@@@Z
_TEXT	SEGMENT
_this$ = 8						; size = 4
_p$ = 12						; size = 4
_d$ = 16						; size = 4
?setCivilizationShortDescription@CvDllPreGame@@UAGXW4PlayerTypes@@ABVCvString@@@Z PROC ; CvDllPreGame::setCivilizationShortDescription, COMDAT

; 642  : 	CvPreGame::setCivilizationShortDescription(p, d);

	mov	eax, DWORD PTR _d$[esp-4]
	mov	ecx, DWORD PTR _p$[esp-4]
	push	eax
	push	ecx
	call	?setCivilizationShortDescription@CvPreGame@@YAXW4PlayerTypes@@ABVCvString@@@Z ; CvPreGame::setCivilizationShortDescription
	add	esp, 8

; 643  : }

	ret	12					; 0000000cH
?setCivilizationShortDescription@CvDllPreGame@@UAGXW4PlayerTypes@@ABVCvString@@@Z ENDP ; CvDllPreGame::setCivilizationShortDescription
_TEXT	ENDS
EXTRN	?setCivilizationKey@CvPreGame@@YAXW4PlayerTypes@@ABVCvString@@@Z:PROC ; CvPreGame::setCivilizationKey
; Function compile flags: /Ogtpy
;	COMDAT ?setCivilizationKey@CvDllPreGame@@UAGXW4PlayerTypes@@ABVCvString@@@Z
_TEXT	SEGMENT
_this$ = 8						; size = 4
_p$ = 12						; size = 4
_d$ = 16						; size = 4
?setCivilizationKey@CvDllPreGame@@UAGXW4PlayerTypes@@ABVCvString@@@Z PROC ; CvDllPreGame::setCivilizationKey, COMDAT

; 647  : 	CvPreGame::setCivilizationKey(p, d);

	mov	eax, DWORD PTR _d$[esp-4]
	mov	ecx, DWORD PTR _p$[esp-4]
	push	eax
	push	ecx
	call	?setCivilizationKey@CvPreGame@@YAXW4PlayerTypes@@ABVCvString@@@Z ; CvPreGame::setCivilizationKey
	add	esp, 8

; 648  : }

	ret	12					; 0000000cH
?setCivilizationKey@CvDllPreGame@@UAGXW4PlayerTypes@@ABVCvString@@@Z ENDP ; CvDllPreGame::setCivilizationKey
_TEXT	ENDS
EXTRN	?setCivilizationKeyPackageID@CvPreGame@@YAXW4PlayerTypes@@ABU_GUID@@@Z:PROC ; CvPreGame::setCivilizationKeyPackageID
; Function compile flags: /Ogtpy
;	COMDAT ?setCivilizationKeyPackageID@CvDllPreGame@@UAGXW4PlayerTypes@@ABU_GUID@@@Z
_TEXT	SEGMENT
_this$ = 8						; size = 4
_p$ = 12						; size = 4
_kKey$ = 16						; size = 4
?setCivilizationKeyPackageID@CvDllPreGame@@UAGXW4PlayerTypes@@ABU_GUID@@@Z PROC ; CvDllPreGame::setCivilizationKeyPackageID, COMDAT

; 652  : 	CvPreGame::setCivilizationKeyPackageID(p, kKey);

	mov	eax, DWORD PTR _kKey$[esp-4]
	mov	ecx, DWORD PTR _p$[esp-4]
	push	eax
	push	ecx
	call	?setCivilizationKeyPackageID@CvPreGame@@YAXW4PlayerTypes@@ABU_GUID@@@Z ; CvPreGame::setCivilizationKeyPackageID
	add	esp, 8

; 653  : }

	ret	12					; 0000000cH
?setCivilizationKeyPackageID@CvDllPreGame@@UAGXW4PlayerTypes@@ABU_GUID@@@Z ENDP ; CvDllPreGame::setCivilizationKeyPackageID
_TEXT	ENDS
EXTRN	?setClimate@CvPreGame@@YAXW4ClimateTypes@@@Z:PROC ; CvPreGame::setClimate
; Function compile flags: /Ogtpy
;	COMDAT ?setClimate@CvDllPreGame@@UAGXW4ClimateTypes@@@Z
_TEXT	SEGMENT
_this$ = 8						; size = 4
_c$ = 12						; size = 4
?setClimate@CvDllPreGame@@UAGXW4ClimateTypes@@@Z PROC	; CvDllPreGame::setClimate, COMDAT

; 657  : 	CvPreGame::setClimate(c);

	mov	eax, DWORD PTR _c$[esp-4]
	push	eax
	call	?setClimate@CvPreGame@@YAXW4ClimateTypes@@@Z ; CvPreGame::setClimate
	pop	ecx

; 658  : }

	ret	8
?setClimate@CvDllPreGame@@UAGXW4ClimateTypes@@@Z ENDP	; CvDllPreGame::setClimate
_TEXT	ENDS
EXTRN	?setClimate@CvPreGame@@YAXABVCvString@@@Z:PROC	; CvPreGame::setClimate
; Function compile flags: /Ogtpy
;	COMDAT ?setClimate@CvDllPreGame@@UAGXABVCvString@@@Z
_TEXT	SEGMENT
_this$ = 8						; size = 4
_c$ = 12						; size = 4
?setClimate@CvDllPreGame@@UAGXABVCvString@@@Z PROC	; CvDllPreGame::setClimate, COMDAT

; 662  : 	CvPreGame::setClimate(c);

	mov	eax, DWORD PTR _c$[esp-4]
	push	eax
	call	?setClimate@CvPreGame@@YAXABVCvString@@@Z ; CvPreGame::setClimate
	pop	ecx

; 663  : }

	ret	8
?setClimate@CvDllPreGame@@UAGXABVCvString@@@Z ENDP	; CvDllPreGame::setClimate
_TEXT	ENDS
EXTRN	?setCustomWorldSize@CvPreGame@@YAXHHHH@Z:PROC	; CvPreGame::setCustomWorldSize
; Function compile flags: /Ogtpy
;	COMDAT ?setCustomWorldSize@CvDllPreGame@@UAGXHHHH@Z
_TEXT	SEGMENT
_this$ = 8						; size = 4
_iWidth$ = 12						; size = 4
_iHeight$ = 16						; size = 4
_iPlayers$ = 20						; size = 4
_iMinorCivs$ = 24					; size = 4
?setCustomWorldSize@CvDllPreGame@@UAGXHHHH@Z PROC	; CvDllPreGame::setCustomWorldSize, COMDAT

; 667  : 	CvPreGame::setCustomWorldSize(iWidth, iHeight, iPlayers, iMinorCivs);

	mov	eax, DWORD PTR _iMinorCivs$[esp-4]
	mov	ecx, DWORD PTR _iPlayers$[esp-4]
	mov	edx, DWORD PTR _iHeight$[esp-4]
	push	eax
	mov	eax, DWORD PTR _iWidth$[esp]
	push	ecx
	push	edx
	push	eax
	call	?setCustomWorldSize@CvPreGame@@YAXHHHH@Z ; CvPreGame::setCustomWorldSize
	add	esp, 16					; 00000010H

; 668  : }

	ret	20					; 00000014H
?setCustomWorldSize@CvDllPreGame@@UAGXHHHH@Z ENDP	; CvDllPreGame::setCustomWorldSize
_TEXT	ENDS
EXTRN	?setDLCAllowed@CvPreGame@@YAXABU_GUID@@_N@Z:PROC ; CvPreGame::setDLCAllowed
; Function compile flags: /Ogtpy
;	COMDAT ?setDLCAllowed@CvDllPreGame@@UAGXABU_GUID@@_N@Z
_TEXT	SEGMENT
_this$ = 8						; size = 4
_kDLCID$ = 12						; size = 4
_bState$ = 16						; size = 1
?setDLCAllowed@CvDllPreGame@@UAGXABU_GUID@@_N@Z PROC	; CvDllPreGame::setDLCAllowed, COMDAT

; 672  : 	CvPreGame::setDLCAllowed(kDLCID, bState);

	mov	eax, DWORD PTR _bState$[esp-4]
	mov	ecx, DWORD PTR _kDLCID$[esp-4]
	push	eax
	push	ecx
	call	?setDLCAllowed@CvPreGame@@YAXABU_GUID@@_N@Z ; CvPreGame::setDLCAllowed
	add	esp, 8

; 673  : }

	ret	12					; 0000000cH
?setDLCAllowed@CvDllPreGame@@UAGXABU_GUID@@_N@Z ENDP	; CvDllPreGame::setDLCAllowed
; Function compile flags: /Ogtpy
_TEXT	ENDS
;	COMDAT ?setEarthMap@CvDllPreGame@@UAGX_N@Z
_TEXT	SEGMENT
_this$ = 8						; size = 4
_bIsEarthMap$ = 12					; size = 1
?setEarthMap@CvDllPreGame@@UAGX_N@Z PROC		; CvDllPreGame::setEarthMap, COMDAT

; 681  : 	//This function is no longer used, it only exists for interface compatibility.
; 682  : }

	ret	8
?setEarthMap@CvDllPreGame@@UAGX_N@Z ENDP		; CvDllPreGame::setEarthMap
_TEXT	ENDS
EXTRN	?setEmailAddress@CvPreGame@@YAXW4PlayerTypes@@ABVCvString@@@Z:PROC ; CvPreGame::setEmailAddress
; Function compile flags: /Ogtpy
;	COMDAT ?setEmailAddress@CvDllPreGame@@UAGXW4PlayerTypes@@ABVCvString@@@Z
_TEXT	SEGMENT
_this$ = 8						; size = 4
_p$ = 12						; size = 4
_a$ = 16						; size = 4
?setEmailAddress@CvDllPreGame@@UAGXW4PlayerTypes@@ABVCvString@@@Z PROC ; CvDllPreGame::setEmailAddress, COMDAT

; 686  : 	CvPreGame::setEmailAddress(p, a);

	mov	eax, DWORD PTR _a$[esp-4]
	mov	ecx, DWORD PTR _p$[esp-4]
	push	eax
	push	ecx
	call	?setEmailAddress@CvPreGame@@YAXW4PlayerTypes@@ABVCvString@@@Z ; CvPreGame::setEmailAddress
	add	esp, 8

; 687  : }

	ret	12					; 0000000cH
?setEmailAddress@CvDllPreGame@@UAGXW4PlayerTypes@@ABVCvString@@@Z ENDP ; CvDllPreGame::setEmailAddress
_TEXT	ENDS
EXTRN	?setEmailAddress@CvPreGame@@YAXABVCvString@@@Z:PROC ; CvPreGame::setEmailAddress
; Function compile flags: /Ogtpy
;	COMDAT ?setEmailAddress@CvDllPreGame@@UAGXABVCvString@@@Z
_TEXT	SEGMENT
_this$ = 8						; size = 4
_a$ = 12						; size = 4
?setEmailAddress@CvDllPreGame@@UAGXABVCvString@@@Z PROC	; CvDllPreGame::setEmailAddress, COMDAT

; 691  : 	CvPreGame::setEmailAddress(a);

	mov	eax, DWORD PTR _a$[esp-4]
	push	eax
	call	?setEmailAddress@CvPreGame@@YAXABVCvString@@@Z ; CvPreGame::setEmailAddress
	pop	ecx

; 692  : }

	ret	8
?setEmailAddress@CvDllPreGame@@UAGXABVCvString@@@Z ENDP	; CvDllPreGame::setEmailAddress
_TEXT	ENDS
EXTRN	?setEndTurnTimerLength@CvPreGame@@YAXM@Z:PROC	; CvPreGame::setEndTurnTimerLength
; Function compile flags: /Ogtpy
;	COMDAT ?setEndTurnTimerLength@CvDllPreGame@@UAGXM@Z
_TEXT	SEGMENT
_this$ = 8						; size = 4
_f$ = 12						; size = 4
?setEndTurnTimerLength@CvDllPreGame@@UAGXM@Z PROC	; CvDllPreGame::setEndTurnTimerLength, COMDAT

; 696  : 	CvPreGame::setEndTurnTimerLength(f);

	mov	eax, DWORD PTR _f$[esp-4]
	push	ecx
	mov	DWORD PTR [esp], eax
	call	?setEndTurnTimerLength@CvPreGame@@YAXM@Z ; CvPreGame::setEndTurnTimerLength
	pop	ecx

; 697  : }

	ret	8
?setEndTurnTimerLength@CvDllPreGame@@UAGXM@Z ENDP	; CvDllPreGame::setEndTurnTimerLength
_TEXT	ENDS
EXTRN	?setEra@CvPreGame@@YAXW4EraTypes@@@Z:PROC	; CvPreGame::setEra
; Function compile flags: /Ogtpy
;	COMDAT ?setEra@CvDllPreGame@@UAGXW4EraTypes@@@Z
_TEXT	SEGMENT
_this$ = 8						; size = 4
_e$ = 12						; size = 4
?setEra@CvDllPreGame@@UAGXW4EraTypes@@@Z PROC		; CvDllPreGame::setEra, COMDAT

; 701  : 	CvPreGame::setEra(e);

	mov	eax, DWORD PTR _e$[esp-4]
	push	eax
	call	?setEra@CvPreGame@@YAXW4EraTypes@@@Z	; CvPreGame::setEra
	pop	ecx

; 702  : }

	ret	8
?setEra@CvDllPreGame@@UAGXW4EraTypes@@@Z ENDP		; CvDllPreGame::setEra
_TEXT	ENDS
EXTRN	?setEra@CvPreGame@@YAXABVCvString@@@Z:PROC	; CvPreGame::setEra
; Function compile flags: /Ogtpy
;	COMDAT ?setEra@CvDllPreGame@@UAGXABVCvString@@@Z
_TEXT	SEGMENT
_this$ = 8						; size = 4
_e$ = 12						; size = 4
?setEra@CvDllPreGame@@UAGXABVCvString@@@Z PROC		; CvDllPreGame::setEra, COMDAT

; 706  : 	CvPreGame::setEra(e);

	mov	eax, DWORD PTR _e$[esp-4]
	push	eax
	call	?setEra@CvPreGame@@YAXABVCvString@@@Z	; CvPreGame::setEra
	pop	ecx

; 707  : }

	ret	8
?setEra@CvDllPreGame@@UAGXABVCvString@@@Z ENDP		; CvDllPreGame::setEra
_TEXT	ENDS
EXTRN	?setGameMode@CvPreGame@@YAXW4GameMode@@@Z:PROC	; CvPreGame::setGameMode
; Function compile flags: /Ogtpy
;	COMDAT ?setGameMode@CvDllPreGame@@UAGXW4GameMode@@@Z
_TEXT	SEGMENT
_this$ = 8						; size = 4
_g$ = 12						; size = 4
?setGameMode@CvDllPreGame@@UAGXW4GameMode@@@Z PROC	; CvDllPreGame::setGameMode, COMDAT

; 711  : 	CvPreGame::setGameMode(g);

	mov	eax, DWORD PTR _g$[esp-4]
	push	eax
	call	?setGameMode@CvPreGame@@YAXW4GameMode@@@Z ; CvPreGame::setGameMode
	pop	ecx

; 712  : }

	ret	8
?setGameMode@CvDllPreGame@@UAGXW4GameMode@@@Z ENDP	; CvDllPreGame::setGameMode
_TEXT	ENDS
EXTRN	?setGameName@CvPreGame@@YAXABVCvString@@@Z:PROC	; CvPreGame::setGameName
; Function compile flags: /Ogtpy
;	COMDAT ?setGameName@CvDllPreGame@@UAGXABVCvString@@@Z
_TEXT	SEGMENT
_this$ = 8						; size = 4
_g$ = 12						; size = 4
?setGameName@CvDllPreGame@@UAGXABVCvString@@@Z PROC	; CvDllPreGame::setGameName, COMDAT

; 716  : 	CvPreGame::setGameName(g);

	mov	eax, DWORD PTR _g$[esp-4]
	push	eax
	call	?setGameName@CvPreGame@@YAXABVCvString@@@Z ; CvPreGame::setGameName
	pop	ecx

; 717  : }

	ret	8
?setGameName@CvDllPreGame@@UAGXABVCvString@@@Z ENDP	; CvDllPreGame::setGameName
_TEXT	ENDS
EXTRN	?setGameSpeed@CvPreGame@@YAXW4GameSpeedTypes@@@Z:PROC ; CvPreGame::setGameSpeed
; Function compile flags: /Ogtpy
;	COMDAT ?setGameSpeed@CvDllPreGame@@UAGXW4GameSpeedTypes@@@Z
_TEXT	SEGMENT
_this$ = 8						; size = 4
_g$ = 12						; size = 4
?setGameSpeed@CvDllPreGame@@UAGXW4GameSpeedTypes@@@Z PROC ; CvDllPreGame::setGameSpeed, COMDAT

; 721  : 	CvPreGame::setGameSpeed(g);

	mov	eax, DWORD PTR _g$[esp-4]
	push	eax
	call	?setGameSpeed@CvPreGame@@YAXW4GameSpeedTypes@@@Z ; CvPreGame::setGameSpeed
	pop	ecx

; 722  : }

	ret	8
?setGameSpeed@CvDllPreGame@@UAGXW4GameSpeedTypes@@@Z ENDP ; CvDllPreGame::setGameSpeed
_TEXT	ENDS
EXTRN	?setGameSpeed@CvPreGame@@YAXABVCvString@@@Z:PROC ; CvPreGame::setGameSpeed
; Function compile flags: /Ogtpy
;	COMDAT ?setGameSpeed@CvDllPreGame@@UAGXABVCvString@@@Z
_TEXT	SEGMENT
_this$ = 8						; size = 4
_g$ = 12						; size = 4
?setGameSpeed@CvDllPreGame@@UAGXABVCvString@@@Z PROC	; CvDllPreGame::setGameSpeed, COMDAT

; 726  : 	CvPreGame::setGameSpeed(g);

	mov	eax, DWORD PTR _g$[esp-4]
	push	eax
	call	?setGameSpeed@CvPreGame@@YAXABVCvString@@@Z ; CvPreGame::setGameSpeed
	pop	ecx

; 727  : }

	ret	8
?setGameSpeed@CvDllPreGame@@UAGXABVCvString@@@Z ENDP	; CvDllPreGame::setGameSpeed
_TEXT	ENDS
EXTRN	?setGameStarted@CvPreGame@@YAX_N@Z:PROC		; CvPreGame::setGameStarted
; Function compile flags: /Ogtpy
;	COMDAT ?setGameStarted@CvDllPreGame@@UAGX_N@Z
_TEXT	SEGMENT
_this$ = 8						; size = 4
_bStarted$ = 12						; size = 1
?setGameStarted@CvDllPreGame@@UAGX_N@Z PROC		; CvDllPreGame::setGameStarted, COMDAT

; 731  : 	CvPreGame::setGameStarted(bStarted);

	mov	eax, DWORD PTR _bStarted$[esp-4]
	push	eax
	call	?setGameStarted@CvPreGame@@YAX_N@Z	; CvPreGame::setGameStarted
	pop	ecx

; 732  : }

	ret	8
?setGameStarted@CvDllPreGame@@UAGX_N@Z ENDP		; CvDllPreGame::setGameStarted
_TEXT	ENDS
EXTRN	?setGameTurn@CvPreGame@@YAXH@Z:PROC		; CvPreGame::setGameTurn
; Function compile flags: /Ogtpy
;	COMDAT ?setGameTurn@CvDllPreGame@@UAGXH@Z
_TEXT	SEGMENT
_this$ = 8						; size = 4
_turn$ = 12						; size = 4
?setGameTurn@CvDllPreGame@@UAGXH@Z PROC			; CvDllPreGame::setGameTurn, COMDAT

; 736  : 	CvPreGame::setGameTurn(turn);

	mov	eax, DWORD PTR _turn$[esp-4]
	push	eax
	call	?setGameTurn@CvPreGame@@YAXH@Z		; CvPreGame::setGameTurn
	pop	ecx

; 737  : }

	ret	8
?setGameTurn@CvDllPreGame@@UAGXH@Z ENDP			; CvDllPreGame::setGameTurn
_TEXT	ENDS
EXTRN	?SetGameOption@CvPreGame@@YA_NPBDH@Z:PROC	; CvPreGame::SetGameOption
; Function compile flags: /Ogtpy
;	COMDAT ?SetGameOption@CvDllPreGame@@UAG_NPBDH@Z
_TEXT	SEGMENT
_this$ = 8						; size = 4
_szOptionName$ = 12					; size = 4
_iValue$ = 16						; size = 4
?SetGameOption@CvDllPreGame@@UAG_NPBDH@Z PROC		; CvDllPreGame::SetGameOption, COMDAT

; 741  : 	return CvPreGame::SetGameOption(szOptionName, iValue);

	mov	eax, DWORD PTR _iValue$[esp-4]
	mov	ecx, DWORD PTR _szOptionName$[esp-4]
	push	eax
	push	ecx
	call	?SetGameOption@CvPreGame@@YA_NPBDH@Z	; CvPreGame::SetGameOption
	add	esp, 8

; 742  : }

	ret	12					; 0000000cH
?SetGameOption@CvDllPreGame@@UAG_NPBDH@Z ENDP		; CvDllPreGame::SetGameOption
_TEXT	ENDS
EXTRN	?SetGameOption@CvPreGame@@YA_NW4GameOptionTypes@@H@Z:PROC ; CvPreGame::SetGameOption
; Function compile flags: /Ogtpy
;	COMDAT ?SetGameOption@CvDllPreGame@@UAG_NW4GameOptionTypes@@H@Z
_TEXT	SEGMENT
_this$ = 8						; size = 4
_eOption$ = 12						; size = 4
_iValue$ = 16						; size = 4
?SetGameOption@CvDllPreGame@@UAG_NW4GameOptionTypes@@H@Z PROC ; CvDllPreGame::SetGameOption, COMDAT

; 746  : 	return CvPreGame::SetGameOption(eOption, iValue);

	mov	eax, DWORD PTR _iValue$[esp-4]
	mov	ecx, DWORD PTR _eOption$[esp-4]
	push	eax
	push	ecx
	call	?SetGameOption@CvPreGame@@YA_NW4GameOptionTypes@@H@Z ; CvPreGame::SetGameOption
	add	esp, 8

; 747  : }

	ret	12					; 0000000cH
?SetGameOption@CvDllPreGame@@UAG_NW4GameOptionTypes@@H@Z ENDP ; CvDllPreGame::SetGameOption
_TEXT	ENDS
EXTRN	?setGameType@CvPreGame@@YAXW4GameTypes@@@Z:PROC	; CvPreGame::setGameType
; Function compile flags: /Ogtpy
;	COMDAT ?setGameType@CvDllPreGame@@UAGXW4GameTypes@@@Z
_TEXT	SEGMENT
_this$ = 8						; size = 4
_g$ = 12						; size = 4
?setGameType@CvDllPreGame@@UAGXW4GameTypes@@@Z PROC	; CvDllPreGame::setGameType, COMDAT

; 751  : 	CvPreGame::setGameType(g);

	mov	eax, DWORD PTR _g$[esp-4]
	push	eax
	call	?setGameType@CvPreGame@@YAXW4GameTypes@@@Z ; CvPreGame::setGameType
	pop	ecx

; 752  : }

	ret	8
?setGameType@CvDllPreGame@@UAGXW4GameTypes@@@Z ENDP	; CvDllPreGame::setGameType
_TEXT	ENDS
EXTRN	?setGameType@CvPreGame@@YAXW4GameTypes@@W4GameStartTypes@@@Z:PROC ; CvPreGame::setGameType
; Function compile flags: /Ogtpy
;	COMDAT ?setGameType@CvDllPreGame@@UAGXW4GameTypes@@W4GameStartTypes@@@Z
_TEXT	SEGMENT
_this$ = 8						; size = 4
_g$ = 12						; size = 4
_eStartType$ = 16					; size = 4
?setGameType@CvDllPreGame@@UAGXW4GameTypes@@W4GameStartTypes@@@Z PROC ; CvDllPreGame::setGameType, COMDAT

; 756  : 	CvPreGame::setGameType(g, eStartType);

	mov	eax, DWORD PTR _eStartType$[esp-4]
	mov	ecx, DWORD PTR _g$[esp-4]
	push	eax
	push	ecx
	call	?setGameType@CvPreGame@@YAXW4GameTypes@@W4GameStartTypes@@@Z ; CvPreGame::setGameType
	add	esp, 8

; 757  : }

	ret	12					; 0000000cH
?setGameType@CvDllPreGame@@UAGXW4GameTypes@@W4GameStartTypes@@@Z ENDP ; CvDllPreGame::setGameType
_TEXT	ENDS
EXTRN	?setGameType@CvPreGame@@YAXABVCvString@@@Z:PROC	; CvPreGame::setGameType
; Function compile flags: /Ogtpy
;	COMDAT ?setGameType@CvDllPreGame@@UAGXABVCvString@@@Z
_TEXT	SEGMENT
_this$ = 8						; size = 4
_g$ = 12						; size = 4
?setGameType@CvDllPreGame@@UAGXABVCvString@@@Z PROC	; CvDllPreGame::setGameType, COMDAT

; 761  : 	CvPreGame::setGameType(g);

	mov	eax, DWORD PTR _g$[esp-4]
	push	eax
	call	?setGameType@CvPreGame@@YAXABVCvString@@@Z ; CvPreGame::setGameType
	pop	ecx

; 762  : }

	ret	8
?setGameType@CvDllPreGame@@UAGXABVCvString@@@Z ENDP	; CvDllPreGame::setGameType
_TEXT	ENDS
EXTRN	?setGameStartType@CvPreGame@@YAXW4GameStartTypes@@@Z:PROC ; CvPreGame::setGameStartType
; Function compile flags: /Ogtpy
;	COMDAT ?setGameStartType@CvDllPreGame@@UAGXW4GameStartTypes@@@Z
_TEXT	SEGMENT
_this$ = 8						; size = 4
_g$ = 12						; size = 4
?setGameStartType@CvDllPreGame@@UAGXW4GameStartTypes@@@Z PROC ; CvDllPreGame::setGameStartType, COMDAT

; 766  : 	CvPreGame::setGameStartType(g);

	mov	eax, DWORD PTR _g$[esp-4]
	push	eax
	call	?setGameStartType@CvPreGame@@YAXW4GameStartTypes@@@Z ; CvPreGame::setGameStartType
	pop	ecx

; 767  : }

	ret	8
?setGameStartType@CvDllPreGame@@UAGXW4GameStartTypes@@@Z ENDP ; CvDllPreGame::setGameStartType
_TEXT	ENDS
EXTRN	?setGameUpdateTime@CvPreGame@@YAXH@Z:PROC	; CvPreGame::setGameUpdateTime
; Function compile flags: /Ogtpy
;	COMDAT ?setGameUpdateTime@CvDllPreGame@@UAGXH@Z
_TEXT	SEGMENT
_this$ = 8						; size = 4
_updateTime$ = 12					; size = 4
?setGameUpdateTime@CvDllPreGame@@UAGXH@Z PROC		; CvDllPreGame::setGameUpdateTime, COMDAT

; 771  : 	CvPreGame::setGameUpdateTime(updateTime);

	mov	eax, DWORD PTR _updateTime$[esp-4]
	push	eax
	call	?setGameUpdateTime@CvPreGame@@YAXH@Z	; CvPreGame::setGameUpdateTime
	pop	ecx

; 772  : }

	ret	8
?setGameUpdateTime@CvDllPreGame@@UAGXH@Z ENDP		; CvDllPreGame::setGameUpdateTime
_TEXT	ENDS
EXTRN	?setHandicap@CvPreGame@@YAXW4PlayerTypes@@W4HandicapTypes@@@Z:PROC ; CvPreGame::setHandicap
; Function compile flags: /Ogtpy
;	COMDAT ?setHandicap@CvDllPreGame@@UAGXW4PlayerTypes@@W4HandicapTypes@@@Z
_TEXT	SEGMENT
_this$ = 8						; size = 4
_p$ = 12						; size = 4
_h$ = 16						; size = 4
?setHandicap@CvDllPreGame@@UAGXW4PlayerTypes@@W4HandicapTypes@@@Z PROC ; CvDllPreGame::setHandicap, COMDAT

; 776  : 	CvPreGame::setHandicap(p, h);

	mov	eax, DWORD PTR _h$[esp-4]
	mov	ecx, DWORD PTR _p$[esp-4]
	push	eax
	push	ecx
	call	?setHandicap@CvPreGame@@YAXW4PlayerTypes@@W4HandicapTypes@@@Z ; CvPreGame::setHandicap
	add	esp, 8

; 777  : }

	ret	12					; 0000000cH
?setHandicap@CvDllPreGame@@UAGXW4PlayerTypes@@W4HandicapTypes@@@Z ENDP ; CvDllPreGame::setHandicap
_TEXT	ENDS
EXTRN	?setInternetGame@CvPreGame@@YAX_N@Z:PROC	; CvPreGame::setInternetGame
; Function compile flags: /Ogtpy
;	COMDAT ?setInternetGame@CvDllPreGame@@UAGX_N@Z
_TEXT	SEGMENT
_this$ = 8						; size = 4
_isInternetGame$ = 12					; size = 1
?setInternetGame@CvDllPreGame@@UAGX_N@Z PROC		; CvDllPreGame::setInternetGame, COMDAT

; 781  : 	CvPreGame::setInternetGame(isInternetGame);

	mov	eax, DWORD PTR _isInternetGame$[esp-4]
	push	eax
	call	?setInternetGame@CvPreGame@@YAX_N@Z	; CvPreGame::setInternetGame
	pop	ecx

; 782  : }

	ret	8
?setInternetGame@CvDllPreGame@@UAGX_N@Z ENDP		; CvDllPreGame::setInternetGame
_TEXT	ENDS
EXTRN	?setLeaderHead@CvPreGame@@YAXW4PlayerTypes@@W4LeaderHeadTypes@@@Z:PROC ; CvPreGame::setLeaderHead
; Function compile flags: /Ogtpy
;	COMDAT ?setLeaderHead@CvDllPreGame@@UAGXW4PlayerTypes@@W4LeaderHeadTypes@@@Z
_TEXT	SEGMENT
_this$ = 8						; size = 4
_p$ = 12						; size = 4
_l$ = 16						; size = 4
?setLeaderHead@CvDllPreGame@@UAGXW4PlayerTypes@@W4LeaderHeadTypes@@@Z PROC ; CvDllPreGame::setLeaderHead, COMDAT

; 786  : 	CvPreGame::setLeaderHead(p, l);

	mov	eax, DWORD PTR _l$[esp-4]
	mov	ecx, DWORD PTR _p$[esp-4]
	push	eax
	push	ecx
	call	?setLeaderHead@CvPreGame@@YAXW4PlayerTypes@@W4LeaderHeadTypes@@@Z ; CvPreGame::setLeaderHead
	add	esp, 8

; 787  : }

	ret	12					; 0000000cH
?setLeaderHead@CvDllPreGame@@UAGXW4PlayerTypes@@W4LeaderHeadTypes@@@Z ENDP ; CvDllPreGame::setLeaderHead
_TEXT	ENDS
EXTRN	?setLeaderName@CvPreGame@@YAXW4PlayerTypes@@ABVCvString@@@Z:PROC ; CvPreGame::setLeaderName
; Function compile flags: /Ogtpy
;	COMDAT ?setLeaderName@CvDllPreGame@@UAGXW4PlayerTypes@@ABVCvString@@@Z
_TEXT	SEGMENT
_this$ = 8						; size = 4
_p$ = 12						; size = 4
_n$ = 16						; size = 4
?setLeaderName@CvDllPreGame@@UAGXW4PlayerTypes@@ABVCvString@@@Z PROC ; CvDllPreGame::setLeaderName, COMDAT

; 791  : 	CvPreGame::setLeaderName(p, n);

	mov	eax, DWORD PTR _n$[esp-4]
	mov	ecx, DWORD PTR _p$[esp-4]
	push	eax
	push	ecx
	call	?setLeaderName@CvPreGame@@YAXW4PlayerTypes@@ABVCvString@@@Z ; CvPreGame::setLeaderName
	add	esp, 8

; 792  : }

	ret	12					; 0000000cH
?setLeaderName@CvDllPreGame@@UAGXW4PlayerTypes@@ABVCvString@@@Z ENDP ; CvDllPreGame::setLeaderName
_TEXT	ENDS
EXTRN	?setLeaderKey@CvPreGame@@YAXW4PlayerTypes@@ABVCvString@@@Z:PROC ; CvPreGame::setLeaderKey
; Function compile flags: /Ogtpy
;	COMDAT ?setLeaderKey@CvDllPreGame@@UAGXW4PlayerTypes@@ABVCvString@@@Z
_TEXT	SEGMENT
_this$ = 8						; size = 4
_p$ = 12						; size = 4
_n$ = 16						; size = 4
?setLeaderKey@CvDllPreGame@@UAGXW4PlayerTypes@@ABVCvString@@@Z PROC ; CvDllPreGame::setLeaderKey, COMDAT

; 796  : 	CvPreGame::setLeaderKey(p, n);

	mov	eax, DWORD PTR _n$[esp-4]
	mov	ecx, DWORD PTR _p$[esp-4]
	push	eax
	push	ecx
	call	?setLeaderKey@CvPreGame@@YAXW4PlayerTypes@@ABVCvString@@@Z ; CvPreGame::setLeaderKey
	add	esp, 8

; 797  : }

	ret	12					; 0000000cH
?setLeaderKey@CvDllPreGame@@UAGXW4PlayerTypes@@ABVCvString@@@Z ENDP ; CvDllPreGame::setLeaderKey
_TEXT	ENDS
EXTRN	?setLeaderKeyPackageID@CvPreGame@@YAXW4PlayerTypes@@ABU_GUID@@@Z:PROC ; CvPreGame::setLeaderKeyPackageID
; Function compile flags: /Ogtpy
;	COMDAT ?setLeaderKeyPackageID@CvDllPreGame@@UAGXW4PlayerTypes@@ABU_GUID@@@Z
_TEXT	SEGMENT
_this$ = 8						; size = 4
_p$ = 12						; size = 4
_n$ = 16						; size = 4
?setLeaderKeyPackageID@CvDllPreGame@@UAGXW4PlayerTypes@@ABU_GUID@@@Z PROC ; CvDllPreGame::setLeaderKeyPackageID, COMDAT

; 801  : 	CvPreGame::setLeaderKeyPackageID(p, n);

	mov	eax, DWORD PTR _n$[esp-4]
	mov	ecx, DWORD PTR _p$[esp-4]
	push	eax
	push	ecx
	call	?setLeaderKeyPackageID@CvPreGame@@YAXW4PlayerTypes@@ABU_GUID@@@Z ; CvPreGame::setLeaderKeyPackageID
	add	esp, 8

; 802  : }

	ret	12					; 0000000cH
?setLeaderKeyPackageID@CvDllPreGame@@UAGXW4PlayerTypes@@ABU_GUID@@@Z ENDP ; CvDllPreGame::setLeaderKeyPackageID
_TEXT	ENDS
EXTRN	?setLoadFileName@CvPreGame@@YAXABVCvString@@@Z:PROC ; CvPreGame::setLoadFileName
; Function compile flags: /Ogtpy
;	COMDAT ?setLoadFileName@CvDllPreGame@@UAGXABVCvString@@@Z
_TEXT	SEGMENT
_this$ = 8						; size = 4
_fileName$ = 12						; size = 4
?setLoadFileName@CvDllPreGame@@UAGXABVCvString@@@Z PROC	; CvDllPreGame::setLoadFileName, COMDAT

; 806  : 	CvPreGame::setLoadFileName(fileName);

	mov	eax, DWORD PTR _fileName$[esp-4]
	push	eax
	call	?setLoadFileName@CvPreGame@@YAXABVCvString@@@Z ; CvPreGame::setLoadFileName
	pop	ecx

; 807  : }

	ret	8
?setLoadFileName@CvDllPreGame@@UAGXABVCvString@@@Z ENDP	; CvDllPreGame::setLoadFileName
_TEXT	ENDS
EXTRN	?setMapNoPlayers@CvPreGame@@YAX_N@Z:PROC	; CvPreGame::setMapNoPlayers
; Function compile flags: /Ogtpy
;	COMDAT ?setMapNoPlayers@CvDllPreGame@@UAGX_N@Z
_TEXT	SEGMENT
_this$ = 8						; size = 4
_p$ = 12						; size = 1
?setMapNoPlayers@CvDllPreGame@@UAGX_N@Z PROC		; CvDllPreGame::setMapNoPlayers, COMDAT

; 811  : 	CvPreGame::setMapNoPlayers(p);

	mov	eax, DWORD PTR _p$[esp-4]
	push	eax
	call	?setMapNoPlayers@CvPreGame@@YAX_N@Z	; CvPreGame::setMapNoPlayers
	pop	ecx

; 812  : }

	ret	8
?setMapNoPlayers@CvDllPreGame@@UAGX_N@Z ENDP		; CvDllPreGame::setMapNoPlayers
_TEXT	ENDS
EXTRN	?setMapRandomSeed@CvPreGame@@YAXI@Z:PROC	; CvPreGame::setMapRandomSeed
; Function compile flags: /Ogtpy
;	COMDAT ?setMapRandomSeed@CvDllPreGame@@UAGXI@Z
_TEXT	SEGMENT
_this$ = 8						; size = 4
_newSeed$ = 12						; size = 4
?setMapRandomSeed@CvDllPreGame@@UAGXI@Z PROC		; CvDllPreGame::setMapRandomSeed, COMDAT

; 816  : 	CvPreGame::setMapRandomSeed(newSeed);

	mov	eax, DWORD PTR _newSeed$[esp-4]
	push	eax
	call	?setMapRandomSeed@CvPreGame@@YAXI@Z	; CvPreGame::setMapRandomSeed
	pop	ecx

; 817  : }

	ret	8
?setMapRandomSeed@CvDllPreGame@@UAGXI@Z ENDP		; CvDllPreGame::setMapRandomSeed
_TEXT	ENDS
EXTRN	?setLoadWBScenario@CvPreGame@@YAX_N@Z:PROC	; CvPreGame::setLoadWBScenario
; Function compile flags: /Ogtpy
;	COMDAT ?setLoadWBScenario@CvDllPreGame@@UAGX_N@Z
_TEXT	SEGMENT
_this$ = 8						; size = 4
_b$ = 12						; size = 1
?setLoadWBScenario@CvDllPreGame@@UAGX_N@Z PROC		; CvDllPreGame::setLoadWBScenario, COMDAT

; 821  : 	CvPreGame::setLoadWBScenario(b);

	mov	eax, DWORD PTR _b$[esp-4]
	push	eax
	call	?setLoadWBScenario@CvPreGame@@YAX_N@Z	; CvPreGame::setLoadWBScenario
	pop	ecx

; 822  : }

	ret	8
?setLoadWBScenario@CvDllPreGame@@UAGX_N@Z ENDP		; CvDllPreGame::setLoadWBScenario
_TEXT	ENDS
EXTRN	?setOverrideScenarioHandicap@CvPreGame@@YAX_N@Z:PROC ; CvPreGame::setOverrideScenarioHandicap
; Function compile flags: /Ogtpy
;	COMDAT ?setOverrideScenarioHandicap@CvDllPreGame@@UAGX_N@Z
_TEXT	SEGMENT
_this$ = 8						; size = 4
_b$ = 12						; size = 1
?setOverrideScenarioHandicap@CvDllPreGame@@UAGX_N@Z PROC ; CvDllPreGame::setOverrideScenarioHandicap, COMDAT

; 826  : 	CvPreGame::setOverrideScenarioHandicap(b);

	mov	eax, DWORD PTR _b$[esp-4]
	push	eax
	call	?setOverrideScenarioHandicap@CvPreGame@@YAX_N@Z ; CvPreGame::setOverrideScenarioHandicap
	pop	ecx

; 827  : }

	ret	8
?setOverrideScenarioHandicap@CvDllPreGame@@UAGX_N@Z ENDP ; CvDllPreGame::setOverrideScenarioHandicap
_TEXT	ENDS
EXTRN	?setMapScriptName@CvPreGame@@YAXABVCvString@@@Z:PROC ; CvPreGame::setMapScriptName
; Function compile flags: /Ogtpy
;	COMDAT ?setMapScriptName@CvDllPreGame@@UAGXABVCvString@@@Z
_TEXT	SEGMENT
_this$ = 8						; size = 4
_s$ = 12						; size = 4
?setMapScriptName@CvDllPreGame@@UAGXABVCvString@@@Z PROC ; CvDllPreGame::setMapScriptName, COMDAT

; 831  : 	CvPreGame::setMapScriptName(s);

	mov	eax, DWORD PTR _s$[esp-4]
	push	eax
	call	?setMapScriptName@CvPreGame@@YAXABVCvString@@@Z ; CvPreGame::setMapScriptName
	pop	ecx

; 832  : }

	ret	8
?setMapScriptName@CvDllPreGame@@UAGXABVCvString@@@Z ENDP ; CvDllPreGame::setMapScriptName
_TEXT	ENDS
PUBLIC	??_7bad_alloc@std@@6B@				; std::bad_alloc::`vftable'
PUBLIC	??0bad_alloc@std@@QAE@PBD@Z			; std::bad_alloc::bad_alloc
PUBLIC	??_R4bad_alloc@std@@6B@				; std::bad_alloc::`RTTI Complete Object Locator'
PUBLIC	??_R0?AVbad_alloc@std@@@8			; std::bad_alloc `RTTI Type Descriptor'
PUBLIC	??_R3bad_alloc@std@@8				; std::bad_alloc::`RTTI Class Hierarchy Descriptor'
PUBLIC	??_R2bad_alloc@std@@8				; std::bad_alloc::`RTTI Base Class Array'
PUBLIC	??_R1A@?0A@EA@bad_alloc@std@@8			; std::bad_alloc::`RTTI Base Class Descriptor at (0,-1,0,64)'
PUBLIC	??_R1A@?0A@EA@exception@std@@8			; std::exception::`RTTI Base Class Descriptor at (0,-1,0,64)'
PUBLIC	??_R0?AVexception@std@@@8			; std::exception `RTTI Type Descriptor'
PUBLIC	??_R3exception@std@@8				; std::exception::`RTTI Class Hierarchy Descriptor'
PUBLIC	??_R2exception@std@@8				; std::exception::`RTTI Base Class Array'
EXTRN	__imp_??0exception@std@@QAE@ABQBD@Z:PROC
EXTRN	??_Ebad_alloc@std@@UAEPAXI@Z:PROC		; std::bad_alloc::`vector deleting destructor'
EXTRN	?what@exception@std@@UBEPBDXZ:PROC		; std::exception::what
;	COMDAT ??_R2exception@std@@8
; File c:\program files (x86)\microsoft visual studio 9.0\vc\include\exception
rdata$r	SEGMENT
??_R2exception@std@@8 DD FLAT:??_R1A@?0A@EA@exception@std@@8 ; std::exception::`RTTI Base Class Array'
rdata$r	ENDS
;	COMDAT ??_R3exception@std@@8
rdata$r	SEGMENT
??_R3exception@std@@8 DD 00H				; std::exception::`RTTI Class Hierarchy Descriptor'
	DD	00H
	DD	01H
	DD	FLAT:??_R2exception@std@@8
rdata$r	ENDS
;	COMDAT ??_R0?AVexception@std@@@8
_DATA	SEGMENT
??_R0?AVexception@std@@@8 DD FLAT:??_7type_info@@6B@	; std::exception `RTTI Type Descriptor'
	DD	00H
	DB	'.?AVexception@std@@', 00H
_DATA	ENDS
;	COMDAT ??_R1A@?0A@EA@exception@std@@8
rdata$r	SEGMENT
??_R1A@?0A@EA@exception@std@@8 DD FLAT:??_R0?AVexception@std@@@8 ; std::exception::`RTTI Base Class Descriptor at (0,-1,0,64)'
	DD	00H
	DD	00H
	DD	0ffffffffH
	DD	00H
	DD	040H
	DD	FLAT:??_R3exception@std@@8
rdata$r	ENDS
;	COMDAT ??_R1A@?0A@EA@bad_alloc@std@@8
rdata$r	SEGMENT
??_R1A@?0A@EA@bad_alloc@std@@8 DD FLAT:??_R0?AVbad_alloc@std@@@8 ; std::bad_alloc::`RTTI Base Class Descriptor at (0,-1,0,64)'
	DD	01H
	DD	00H
	DD	0ffffffffH
	DD	00H
	DD	040H
	DD	FLAT:??_R3bad_alloc@std@@8
rdata$r	ENDS
;	COMDAT ??_R2bad_alloc@std@@8
rdata$r	SEGMENT
??_R2bad_alloc@std@@8 DD FLAT:??_R1A@?0A@EA@bad_alloc@std@@8 ; std::bad_alloc::`RTTI Base Class Array'
	DD	FLAT:??_R1A@?0A@EA@exception@std@@8
rdata$r	ENDS
;	COMDAT ??_R3bad_alloc@std@@8
rdata$r	SEGMENT
??_R3bad_alloc@std@@8 DD 00H				; std::bad_alloc::`RTTI Class Hierarchy Descriptor'
	DD	00H
	DD	02H
	DD	FLAT:??_R2bad_alloc@std@@8
rdata$r	ENDS
;	COMDAT ??_R0?AVbad_alloc@std@@@8
_DATA	SEGMENT
??_R0?AVbad_alloc@std@@@8 DD FLAT:??_7type_info@@6B@	; std::bad_alloc `RTTI Type Descriptor'
	DD	00H
	DB	'.?AVbad_alloc@std@@', 00H
_DATA	ENDS
;	COMDAT ??_R4bad_alloc@std@@6B@
rdata$r	SEGMENT
??_R4bad_alloc@std@@6B@ DD 00H				; std::bad_alloc::`RTTI Complete Object Locator'
	DD	00H
	DD	00H
	DD	FLAT:??_R0?AVbad_alloc@std@@@8
	DD	FLAT:??_R3bad_alloc@std@@8
rdata$r	ENDS
;	COMDAT ??_7bad_alloc@std@@6B@
CONST	SEGMENT
??_7bad_alloc@std@@6B@ DD FLAT:??_R4bad_alloc@std@@6B@	; std::bad_alloc::`vftable'
	DD	FLAT:??_Ebad_alloc@std@@UAEPAXI@Z
	DD	FLAT:?what@exception@std@@UBEPBDXZ
; Function compile flags: /Ogtpy
CONST	ENDS
;	COMDAT ??0bad_alloc@std@@QAE@PBD@Z
_TEXT	SEGMENT
__Message$ = 8						; size = 4
??0bad_alloc@std@@QAE@PBD@Z PROC			; std::bad_alloc::bad_alloc, COMDAT
; _this$ = ecx

; 371  : 		{	// construct from message string

	push	esi
	lea	eax, DWORD PTR __Message$[esp]
	push	eax
	mov	esi, ecx
	call	DWORD PTR __imp_??0exception@std@@QAE@ABQBD@Z
	mov	DWORD PTR [esi], OFFSET ??_7bad_alloc@std@@6B@

; 372  : 		}

	mov	eax, esi
	pop	esi
	ret	4
??0bad_alloc@std@@QAE@PBD@Z ENDP			; std::bad_alloc::bad_alloc
_TEXT	ENDS
EXTRN	?SetMapOption@CvPreGame@@YA_NPBDH@Z:PROC	; CvPreGame::SetMapOption
; Function compile flags: /Ogtpy
; File c:\users\enormousapplepie\documents\github\lekmod\lekmod_dll\cvgamecoredll_expansion2\cvdllpregame.cpp
;	COMDAT ?SetMapOption@CvDllPreGame@@UAG_NPBDH@Z
_TEXT	SEGMENT
_this$ = 8						; size = 4
_szOptionName$ = 12					; size = 4
_iValue$ = 16						; size = 4
?SetMapOption@CvDllPreGame@@UAG_NPBDH@Z PROC		; CvDllPreGame::SetMapOption, COMDAT

; 836  : 	return CvPreGame::SetMapOption(szOptionName, iValue);

	mov	eax, DWORD PTR _iValue$[esp-4]
	mov	ecx, DWORD PTR _szOptionName$[esp-4]
	push	eax
	push	ecx
	call	?SetMapOption@CvPreGame@@YA_NPBDH@Z	; CvPreGame::SetMapOption
	add	esp, 8

; 837  : }

	ret	12					; 0000000cH
?SetMapOption@CvDllPreGame@@UAG_NPBDH@Z ENDP		; CvDllPreGame::SetMapOption
_TEXT	ENDS
EXTRN	?setMaxCityElimination@CvPreGame@@YAXH@Z:PROC	; CvPreGame::setMaxCityElimination
; Function compile flags: /Ogtpy
;	COMDAT ?setMaxCityElimination@CvDllPreGame@@UAGXH@Z
_TEXT	SEGMENT
_this$ = 8						; size = 4
_m$ = 12						; size = 4
?setMaxCityElimination@CvDllPreGame@@UAGXH@Z PROC	; CvDllPreGame::setMaxCityElimination, COMDAT

; 846  : 	CvPreGame::setMaxCityElimination(m);

	mov	eax, DWORD PTR _m$[esp-4]
	push	eax
	call	?setMaxCityElimination@CvPreGame@@YAXH@Z ; CvPreGame::setMaxCityElimination
	pop	ecx

; 847  : }

	ret	8
?setMaxCityElimination@CvDllPreGame@@UAGXH@Z ENDP	; CvDllPreGame::setMaxCityElimination
_TEXT	ENDS
EXTRN	?setMaxTurns@CvPreGame@@YAXH@Z:PROC		; CvPreGame::setMaxTurns
; Function compile flags: /Ogtpy
;	COMDAT ?setMaxTurns@CvDllPreGame@@UAGXH@Z
_TEXT	SEGMENT
_this$ = 8						; size = 4
_maxTurns$ = 12						; size = 4
?setMaxTurns@CvDllPreGame@@UAGXH@Z PROC			; CvDllPreGame::setMaxTurns, COMDAT

; 851  : 	CvPreGame::setMaxTurns(maxTurns);

	mov	eax, DWORD PTR _maxTurns$[esp-4]
	push	eax
	call	?setMaxTurns@CvPreGame@@YAXH@Z		; CvPreGame::setMaxTurns
	pop	ecx

; 852  : }

	ret	8
?setMaxTurns@CvDllPreGame@@UAGXH@Z ENDP			; CvDllPreGame::setMaxTurns
_TEXT	ENDS
EXTRN	?setMinorCivType@CvPreGame@@YAXW4PlayerTypes@@W4MinorCivTypes@@@Z:PROC ; CvPreGame::setMinorCivType
; Function compile flags: /Ogtpy
;	COMDAT ?setMinorCivType@CvDllPreGame@@UAGXW4PlayerTypes@@W4MinorCivTypes@@@Z
_TEXT	SEGMENT
_this$ = 8						; size = 4
_p$ = 12						; size = 4
_m$ = 16						; size = 4
?setMinorCivType@CvDllPreGame@@UAGXW4PlayerTypes@@W4MinorCivTypes@@@Z PROC ; CvDllPreGame::setMinorCivType, COMDAT

; 856  : 	CvPreGame::setMinorCivType(p, m);

	mov	eax, DWORD PTR _m$[esp-4]
	mov	ecx, DWORD PTR _p$[esp-4]
	push	eax
	push	ecx
	call	?setMinorCivType@CvPreGame@@YAXW4PlayerTypes@@W4MinorCivTypes@@@Z ; CvPreGame::setMinorCivType
	add	esp, 8

; 857  : }

	ret	12					; 0000000cH
?setMinorCivType@CvDllPreGame@@UAGXW4PlayerTypes@@W4MinorCivTypes@@@Z ENDP ; CvDllPreGame::setMinorCivType
_TEXT	ENDS
PUBLIC	??1bad_alloc@std@@UAE@XZ			; std::bad_alloc::~bad_alloc
EXTRN	__imp_??1exception@std@@UAE@XZ:PROC
; Function compile flags: /Ogtpy
; File c:\program files (x86)\microsoft visual studio 9.0\vc\include\exception
;	COMDAT ??1bad_alloc@std@@UAE@XZ
_TEXT	SEGMENT
??1bad_alloc@std@@UAE@XZ PROC				; std::bad_alloc::~bad_alloc, COMDAT
; _this$ = ecx

; 380  : 		{	// destroy the object

	mov	DWORD PTR [ecx], OFFSET ??_7bad_alloc@std@@6B@

; 381  : 		}

	jmp	DWORD PTR __imp_??1exception@std@@UAE@XZ
??1bad_alloc@std@@UAE@XZ ENDP				; std::bad_alloc::~bad_alloc
_TEXT	ENDS
EXTRN	?setMinorCiv@CvPreGame@@YAXW4PlayerTypes@@_N@Z:PROC ; CvPreGame::setMinorCiv
; Function compile flags: /Ogtpy
; File c:\users\enormousapplepie\documents\github\lekmod\lekmod_dll\cvgamecoredll_expansion2\cvdllpregame.cpp
;	COMDAT ?setMinorCiv@CvDllPreGame@@UAGXW4PlayerTypes@@_N@Z
_TEXT	SEGMENT
_this$ = 8						; size = 4
_p$ = 12						; size = 4
_isMinor$ = 16						; size = 1
?setMinorCiv@CvDllPreGame@@UAGXW4PlayerTypes@@_N@Z PROC	; CvDllPreGame::setMinorCiv, COMDAT

; 861  : 	CvPreGame::setMinorCiv(p, isMinor);

	mov	eax, DWORD PTR _isMinor$[esp-4]
	mov	ecx, DWORD PTR _p$[esp-4]
	push	eax
	push	ecx
	call	?setMinorCiv@CvPreGame@@YAXW4PlayerTypes@@_N@Z ; CvPreGame::setMinorCiv
	add	esp, 8

; 862  : }

	ret	12					; 0000000cH
?setMinorCiv@CvDllPreGame@@UAGXW4PlayerTypes@@_N@Z ENDP	; CvDllPreGame::setMinorCiv
_TEXT	ENDS
EXTRN	?setMultiplayerAIEnabled@CvPreGame@@YAX_N@Z:PROC ; CvPreGame::setMultiplayerAIEnabled
; Function compile flags: /Ogtpy
;	COMDAT ?setMultiplayerAIEnabled@CvDllPreGame@@UAGX_N@Z
_TEXT	SEGMENT
_this$ = 8						; size = 4
_isEnabled$ = 12					; size = 1
?setMultiplayerAIEnabled@CvDllPreGame@@UAGX_N@Z PROC	; CvDllPreGame::setMultiplayerAIEnabled, COMDAT

; 866  : 	CvPreGame::setMultiplayerAIEnabled(isEnabled);

	mov	eax, DWORD PTR _isEnabled$[esp-4]
	push	eax
	call	?setMultiplayerAIEnabled@CvPreGame@@YAX_N@Z ; CvPreGame::setMultiplayerAIEnabled
	pop	ecx

; 867  : }

	ret	8
?setMultiplayerAIEnabled@CvDllPreGame@@UAGX_N@Z ENDP	; CvDllPreGame::setMultiplayerAIEnabled
_TEXT	ENDS
EXTRN	??3@YAXPAX@Z:PROC				; operator delete
; Function compile flags: /Ogtpy
;	COMDAT ??_Gbad_alloc@std@@UAEPAXI@Z
_TEXT	SEGMENT
___flags$ = 8						; size = 4
??_Gbad_alloc@std@@UAEPAXI@Z PROC			; std::bad_alloc::`scalar deleting destructor', COMDAT
; _this$ = ecx
	push	esi
	mov	esi, ecx
	mov	DWORD PTR [esi], OFFSET ??_7bad_alloc@std@@6B@
	call	DWORD PTR __imp_??1exception@std@@UAE@XZ
	test	BYTE PTR ___flags$[esp], 1
	je	SHORT $LN6@scalar
	push	esi
	call	??3@YAXPAX@Z				; operator delete
	add	esp, 4
$LN6@scalar:
	mov	eax, esi
	pop	esi
	ret	4
??_Gbad_alloc@std@@UAEPAXI@Z ENDP			; std::bad_alloc::`scalar deleting destructor'
_TEXT	ENDS
EXTRN	?setNetID@CvPreGame@@YAXW4PlayerTypes@@H@Z:PROC	; CvPreGame::setNetID
; Function compile flags: /Ogtpy
;	COMDAT ?setNetID@CvDllPreGame@@UAGXW4PlayerTypes@@H@Z
_TEXT	SEGMENT
_this$ = 8						; size = 4
_p$ = 12						; size = 4
_id$ = 16						; size = 4
?setNetID@CvDllPreGame@@UAGXW4PlayerTypes@@H@Z PROC	; CvDllPreGame::setNetID, COMDAT

; 871  : 	CvPreGame::setNetID(p, id);

	mov	eax, DWORD PTR _id$[esp-4]
	mov	ecx, DWORD PTR _p$[esp-4]
	push	eax
	push	ecx
	call	?setNetID@CvPreGame@@YAXW4PlayerTypes@@H@Z ; CvPreGame::setNetID
	add	esp, 8

; 872  : }

	ret	12					; 0000000cH
?setNetID@CvDllPreGame@@UAGXW4PlayerTypes@@H@Z ENDP	; CvDllPreGame::setNetID
_TEXT	ENDS
PUBLIC	??2@YAPAXIPAX@Z					; operator new
; Function compile flags: /Ogtpy
; File c:\program files (x86)\microsoft visual studio 9.0\vc\include\new
;	COMDAT ??2@YAPAXIPAX@Z
_TEXT	SEGMENT
___formal$ = 8						; size = 4
__Where$ = 12						; size = 4
??2@YAPAXIPAX@Z PROC					; operator new, COMDAT

; 59   : 	return (_Where);

	mov	eax, DWORD PTR __Where$[esp-4]

; 60   : 	}

	ret	0
??2@YAPAXIPAX@Z ENDP					; operator new
_TEXT	ENDS
EXTRN	?setNickname@CvPreGame@@YAXW4PlayerTypes@@ABVCvString@@@Z:PROC ; CvPreGame::setNickname
; Function compile flags: /Ogtpy
; File c:\users\enormousapplepie\documents\github\lekmod\lekmod_dll\cvgamecoredll_expansion2\cvdllpregame.cpp
;	COMDAT ?setNickname@CvDllPreGame@@UAGXW4PlayerTypes@@ABVCvString@@@Z
_TEXT	SEGMENT
_this$ = 8						; size = 4
_p$ = 12						; size = 4
_n$ = 16						; size = 4
?setNickname@CvDllPreGame@@UAGXW4PlayerTypes@@ABVCvString@@@Z PROC ; CvDllPreGame::setNickname, COMDAT

; 876  : 	CvPreGame::setNickname(p, n);

	mov	eax, DWORD PTR _n$[esp-4]
	mov	ecx, DWORD PTR _p$[esp-4]
	push	eax
	push	ecx
	call	?setNickname@CvPreGame@@YAXW4PlayerTypes@@ABVCvString@@@Z ; CvPreGame::setNickname
	add	esp, 8

; 877  : }

	ret	12					; 0000000cH
?setNickname@CvDllPreGame@@UAGXW4PlayerTypes@@ABVCvString@@@Z ENDP ; CvDllPreGame::setNickname
_TEXT	ENDS
EXTRN	?setNumMinorCivs@CvPreGame@@YAXH@Z:PROC		; CvPreGame::setNumMinorCivs
; Function compile flags: /Ogtpy
;	COMDAT ?setNumMinorCivs@CvDllPreGame@@UAGXH@Z
_TEXT	SEGMENT
_this$ = 8						; size = 4
_n$ = 12						; size = 4
?setNumMinorCivs@CvDllPreGame@@UAGXH@Z PROC		; CvDllPreGame::setNumMinorCivs, COMDAT

; 881  : 	CvPreGame::setNumMinorCivs(n);

	mov	eax, DWORD PTR _n$[esp-4]
	push	eax
	call	?setNumMinorCivs@CvPreGame@@YAXH@Z	; CvPreGame::setNumMinorCivs
	pop	ecx

; 882  : }

	ret	8
?setNumMinorCivs@CvDllPreGame@@UAGXH@Z ENDP		; CvDllPreGame::setNumMinorCivs
_TEXT	ENDS
EXTRN	?setPersistSettings@CvPreGame@@YAX_N@Z:PROC	; CvPreGame::setPersistSettings
; Function compile flags: /Ogtpy
;	COMDAT ?setPersistSettings@CvDllPreGame@@UAGX_N@Z
_TEXT	SEGMENT
_this$ = 8						; size = 4
_bPersist$ = 12						; size = 1
?setPersistSettings@CvDllPreGame@@UAGX_N@Z PROC		; CvDllPreGame::setPersistSettings, COMDAT

; 886  : 	CvPreGame::setPersistSettings(bPersist);

	mov	eax, DWORD PTR _bPersist$[esp-4]
	push	eax
	call	?setPersistSettings@CvPreGame@@YAX_N@Z	; CvPreGame::setPersistSettings
	pop	ecx

; 887  : }

	ret	8
?setPersistSettings@CvDllPreGame@@UAGX_N@Z ENDP		; CvDllPreGame::setPersistSettings
_TEXT	ENDS
EXTRN	?setPlayable@CvPreGame@@YAXW4PlayerTypes@@_N@Z:PROC ; CvPreGame::setPlayable
; Function compile flags: /Ogtpy
;	COMDAT ?setPlayable@CvDllPreGame@@UAGXW4PlayerTypes@@_N@Z
_TEXT	SEGMENT
_this$ = 8						; size = 4
_p$ = 12						; size = 4
_playable$ = 16						; size = 1
?setPlayable@CvDllPreGame@@UAGXW4PlayerTypes@@_N@Z PROC	; CvDllPreGame::setPlayable, COMDAT

; 891  : 	CvPreGame::setPlayable(p, playable);

	mov	eax, DWORD PTR _playable$[esp-4]
	mov	ecx, DWORD PTR _p$[esp-4]
	push	eax
	push	ecx
	call	?setPlayable@CvPreGame@@YAXW4PlayerTypes@@_N@Z ; CvPreGame::setPlayable
	add	esp, 8

; 892  : }

	ret	12					; 0000000cH
?setPlayable@CvDllPreGame@@UAGXW4PlayerTypes@@_N@Z ENDP	; CvDllPreGame::setPlayable
_TEXT	ENDS
EXTRN	?setPlayerColor@CvPreGame@@YAXW4PlayerTypes@@W4PlayerColorTypes@@@Z:PROC ; CvPreGame::setPlayerColor
; Function compile flags: /Ogtpy
;	COMDAT ?setPlayerColor@CvDllPreGame@@UAGXW4PlayerTypes@@W4PlayerColorTypes@@@Z
_TEXT	SEGMENT
_this$ = 8						; size = 4
_p$ = 12						; size = 4
_c$ = 16						; size = 4
?setPlayerColor@CvDllPreGame@@UAGXW4PlayerTypes@@W4PlayerColorTypes@@@Z PROC ; CvDllPreGame::setPlayerColor, COMDAT

; 896  : 	CvPreGame::setPlayerColor(p, c);

	mov	eax, DWORD PTR _c$[esp-4]
	mov	ecx, DWORD PTR _p$[esp-4]
	push	eax
	push	ecx
	call	?setPlayerColor@CvPreGame@@YAXW4PlayerTypes@@W4PlayerColorTypes@@@Z ; CvPreGame::setPlayerColor
	add	esp, 8

; 897  : }

	ret	12					; 0000000cH
?setPlayerColor@CvDllPreGame@@UAGXW4PlayerTypes@@W4PlayerColorTypes@@@Z ENDP ; CvDllPreGame::setPlayerColor
_TEXT	ENDS
EXTRN	?setPrivateGame@CvPreGame@@YAX_N@Z:PROC		; CvPreGame::setPrivateGame
; Function compile flags: /Ogtpy
;	COMDAT ?setPrivateGame@CvDllPreGame@@UAGX_N@Z
_TEXT	SEGMENT
_this$ = 8						; size = 4
_isPrivateGame$ = 12					; size = 1
?setPrivateGame@CvDllPreGame@@UAGX_N@Z PROC		; CvDllPreGame::setPrivateGame, COMDAT

; 901  : 	CvPreGame::setPrivateGame(isPrivateGame);

	mov	eax, DWORD PTR _isPrivateGame$[esp-4]
	push	eax
	call	?setPrivateGame@CvPreGame@@YAX_N@Z	; CvPreGame::setPrivateGame
	pop	ecx

; 902  : }

	ret	8
?setPrivateGame@CvDllPreGame@@UAGX_N@Z ENDP		; CvDllPreGame::setPrivateGame
_TEXT	ENDS
EXTRN	?setQuickCombat@CvPreGame@@YAX_N@Z:PROC		; CvPreGame::setQuickCombat
; Function compile flags: /Ogtpy
;	COMDAT ?setQuickCombat@CvDllPreGame@@UAGX_N@Z
_TEXT	SEGMENT
_this$ = 8						; size = 4
_isQuickCombat$ = 12					; size = 1
?setQuickCombat@CvDllPreGame@@UAGX_N@Z PROC		; CvDllPreGame::setQuickCombat, COMDAT

; 906  : 	CvPreGame::setQuickCombat(isQuickCombat);

	mov	eax, DWORD PTR _isQuickCombat$[esp-4]
	push	eax
	call	?setQuickCombat@CvPreGame@@YAX_N@Z	; CvPreGame::setQuickCombat
	pop	ecx

; 907  : }

	ret	8
?setQuickCombat@CvDllPreGame@@UAGX_N@Z ENDP		; CvDllPreGame::setQuickCombat
_TEXT	ENDS
EXTRN	?setQuickMovement@CvPreGame@@YAX_N@Z:PROC	; CvPreGame::setQuickMovement
; Function compile flags: /Ogtpy
;	COMDAT ?setQuickMovement@CvDllPreGame@@UAGX_N@Z
_TEXT	SEGMENT
_this$ = 8						; size = 4
_isQuickMovement$ = 12					; size = 1
?setQuickMovement@CvDllPreGame@@UAGX_N@Z PROC		; CvDllPreGame::setQuickMovement, COMDAT

; 911  : 	CvPreGame::setQuickMovement(isQuickMovement);

	mov	eax, DWORD PTR _isQuickMovement$[esp-4]
	push	eax
	call	?setQuickMovement@CvPreGame@@YAX_N@Z	; CvPreGame::setQuickMovement
	pop	ecx

; 912  : }

	ret	8
?setQuickMovement@CvDllPreGame@@UAGX_N@Z ENDP		; CvDllPreGame::setQuickMovement
_TEXT	ENDS
EXTRN	?setQuickHandicap@CvPreGame@@YAXW4HandicapTypes@@@Z:PROC ; CvPreGame::setQuickHandicap
; Function compile flags: /Ogtpy
;	COMDAT ?setQuickHandicap@CvDllPreGame@@UAGXW4HandicapTypes@@@Z
_TEXT	SEGMENT
_this$ = 8						; size = 4
_h$ = 12						; size = 4
?setQuickHandicap@CvDllPreGame@@UAGXW4HandicapTypes@@@Z PROC ; CvDllPreGame::setQuickHandicap, COMDAT

; 916  : 	CvPreGame::setQuickHandicap(h);

	mov	eax, DWORD PTR _h$[esp-4]
	push	eax
	call	?setQuickHandicap@CvPreGame@@YAXW4HandicapTypes@@@Z ; CvPreGame::setQuickHandicap
	pop	ecx

; 917  : }

	ret	8
?setQuickHandicap@CvDllPreGame@@UAGXW4HandicapTypes@@@Z ENDP ; CvDllPreGame::setQuickHandicap
_TEXT	ENDS
EXTRN	?setQuickHandicap@CvPreGame@@YAXABVCvString@@@Z:PROC ; CvPreGame::setQuickHandicap
; Function compile flags: /Ogtpy
;	COMDAT ?setQuickHandicap@CvDllPreGame@@UAGXABVCvString@@@Z
_TEXT	SEGMENT
_this$ = 8						; size = 4
_h$ = 12						; size = 4
?setQuickHandicap@CvDllPreGame@@UAGXABVCvString@@@Z PROC ; CvDllPreGame::setQuickHandicap, COMDAT

; 921  : 	CvPreGame::setQuickHandicap(h);

	mov	eax, DWORD PTR _h$[esp-4]
	push	eax
	call	?setQuickHandicap@CvPreGame@@YAXABVCvString@@@Z ; CvPreGame::setQuickHandicap
	pop	ecx

; 922  : }

	ret	8
?setQuickHandicap@CvDllPreGame@@UAGXABVCvString@@@Z ENDP ; CvDllPreGame::setQuickHandicap
_TEXT	ENDS
EXTRN	?setQuickstart@CvPreGame@@YAX_N@Z:PROC		; CvPreGame::setQuickstart
; Function compile flags: /Ogtpy
;	COMDAT ?setQuickstart@CvDllPreGame@@UAGX_N@Z
_TEXT	SEGMENT
_this$ = 8						; size = 4
_isQuickStart$ = 12					; size = 1
?setQuickstart@CvDllPreGame@@UAGX_N@Z PROC		; CvDllPreGame::setQuickstart, COMDAT

; 926  : 	CvPreGame::setQuickstart(isQuickStart);

	mov	eax, DWORD PTR _isQuickStart$[esp-4]
	push	eax
	call	?setQuickstart@CvPreGame@@YAX_N@Z	; CvPreGame::setQuickstart
	pop	ecx

; 927  : }

	ret	8
?setQuickstart@CvDllPreGame@@UAGX_N@Z ENDP		; CvDllPreGame::setQuickstart
_TEXT	ENDS
EXTRN	?setRandomWorldSize@CvPreGame@@YAX_N@Z:PROC	; CvPreGame::setRandomWorldSize
; Function compile flags: /Ogtpy
;	COMDAT ?setRandomWorldSize@CvDllPreGame@@UAGX_N@Z
_TEXT	SEGMENT
_this$ = 8						; size = 4
_isRandomWorldSize$ = 12				; size = 1
?setRandomWorldSize@CvDllPreGame@@UAGX_N@Z PROC		; CvDllPreGame::setRandomWorldSize, COMDAT

; 931  : 	CvPreGame::setRandomWorldSize(isRandomWorldSize);

	mov	eax, DWORD PTR _isRandomWorldSize$[esp-4]
	push	eax
	call	?setRandomWorldSize@CvPreGame@@YAX_N@Z	; CvPreGame::setRandomWorldSize
	pop	ecx

; 932  : }

	ret	8
?setRandomWorldSize@CvDllPreGame@@UAGX_N@Z ENDP		; CvDllPreGame::setRandomWorldSize
_TEXT	ENDS
EXTRN	?setRandomMapScript@CvPreGame@@YAX_N@Z:PROC	; CvPreGame::setRandomMapScript
; Function compile flags: /Ogtpy
;	COMDAT ?setRandomMapScript@CvDllPreGame@@UAGX_N@Z
_TEXT	SEGMENT
_this$ = 8						; size = 4
_isRandomWorldScript$ = 12				; size = 1
?setRandomMapScript@CvDllPreGame@@UAGX_N@Z PROC		; CvDllPreGame::setRandomMapScript, COMDAT

; 936  : 	CvPreGame::setRandomMapScript(isRandomWorldScript);

	mov	eax, DWORD PTR _isRandomWorldScript$[esp-4]
	push	eax
	call	?setRandomMapScript@CvPreGame@@YAX_N@Z	; CvPreGame::setRandomMapScript
	pop	ecx

; 937  : }

	ret	8
?setRandomMapScript@CvDllPreGame@@UAGX_N@Z ENDP		; CvDllPreGame::setRandomMapScript
_TEXT	ENDS
EXTRN	?setReady@CvPreGame@@YAXW4PlayerTypes@@_N@Z:PROC ; CvPreGame::setReady
; Function compile flags: /Ogtpy
;	COMDAT ?setReady@CvDllPreGame@@UAGXW4PlayerTypes@@_N@Z
_TEXT	SEGMENT
_this$ = 8						; size = 4
_p$ = 12						; size = 4
_bIsReady$ = 16						; size = 1
?setReady@CvDllPreGame@@UAGXW4PlayerTypes@@_N@Z PROC	; CvDllPreGame::setReady, COMDAT

; 941  : 	CvPreGame::setReady(p, bIsReady);

	mov	eax, DWORD PTR _bIsReady$[esp-4]
	mov	ecx, DWORD PTR _p$[esp-4]
	push	eax
	push	ecx
	call	?setReady@CvPreGame@@YAXW4PlayerTypes@@_N@Z ; CvPreGame::setReady
	add	esp, 8

; 942  : }

	ret	12					; 0000000cH
?setReady@CvDllPreGame@@UAGXW4PlayerTypes@@_N@Z ENDP	; CvDllPreGame::setReady
_TEXT	ENDS
EXTRN	?setSeaLevel@CvPreGame@@YAXW4SeaLevelTypes@@@Z:PROC ; CvPreGame::setSeaLevel
; Function compile flags: /Ogtpy
;	COMDAT ?setSeaLevel@CvDllPreGame@@UAGXW4SeaLevelTypes@@@Z
_TEXT	SEGMENT
_this$ = 8						; size = 4
_s$ = 12						; size = 4
?setSeaLevel@CvDllPreGame@@UAGXW4SeaLevelTypes@@@Z PROC	; CvDllPreGame::setSeaLevel, COMDAT

; 946  : 	CvPreGame::setSeaLevel(s);

	mov	eax, DWORD PTR _s$[esp-4]
	push	eax
	call	?setSeaLevel@CvPreGame@@YAXW4SeaLevelTypes@@@Z ; CvPreGame::setSeaLevel
	pop	ecx

; 947  : }

	ret	8
?setSeaLevel@CvDllPreGame@@UAGXW4SeaLevelTypes@@@Z ENDP	; CvDllPreGame::setSeaLevel
_TEXT	ENDS
EXTRN	?setSeaLevel@CvPreGame@@YAXABVCvString@@@Z:PROC	; CvPreGame::setSeaLevel
; Function compile flags: /Ogtpy
;	COMDAT ?setSeaLevel@CvDllPreGame@@UAGXABVCvString@@@Z
_TEXT	SEGMENT
_this$ = 8						; size = 4
_s$ = 12						; size = 4
?setSeaLevel@CvDllPreGame@@UAGXABVCvString@@@Z PROC	; CvDllPreGame::setSeaLevel, COMDAT

; 951  : 	CvPreGame::setSeaLevel(s);

	mov	eax, DWORD PTR _s$[esp-4]
	push	eax
	call	?setSeaLevel@CvPreGame@@YAXABVCvString@@@Z ; CvPreGame::setSeaLevel
	pop	ecx

; 952  : }

	ret	8
?setSeaLevel@CvDllPreGame@@UAGXABVCvString@@@Z ENDP	; CvDllPreGame::setSeaLevel
_TEXT	ENDS
EXTRN	?setSlotClaim@CvPreGame@@YAXW4PlayerTypes@@W4SlotClaim@@@Z:PROC ; CvPreGame::setSlotClaim
; Function compile flags: /Ogtpy
;	COMDAT ?setSlotClaim@CvDllPreGame@@UAGXW4PlayerTypes@@W4SlotClaim@@@Z
_TEXT	SEGMENT
_this$ = 8						; size = 4
_p$ = 12						; size = 4
_c$ = 16						; size = 4
?setSlotClaim@CvDllPreGame@@UAGXW4PlayerTypes@@W4SlotClaim@@@Z PROC ; CvDllPreGame::setSlotClaim, COMDAT

; 956  : 	CvPreGame::setSlotClaim(p, c);

	mov	eax, DWORD PTR _c$[esp-4]
	mov	ecx, DWORD PTR _p$[esp-4]
	push	eax
	push	ecx
	call	?setSlotClaim@CvPreGame@@YAXW4PlayerTypes@@W4SlotClaim@@@Z ; CvPreGame::setSlotClaim
	add	esp, 8

; 957  : }

	ret	12					; 0000000cH
?setSlotClaim@CvDllPreGame@@UAGXW4PlayerTypes@@W4SlotClaim@@@Z ENDP ; CvDllPreGame::setSlotClaim
_TEXT	ENDS
EXTRN	?setSlotStatus@CvPreGame@@YAXW4PlayerTypes@@W4SlotStatus@@@Z:PROC ; CvPreGame::setSlotStatus
; Function compile flags: /Ogtpy
;	COMDAT ?setSlotStatus@CvDllPreGame@@UAGXW4PlayerTypes@@W4SlotStatus@@@Z
_TEXT	SEGMENT
_this$ = 8						; size = 4
_eID$ = 12						; size = 4
_eSlotStatus$ = 16					; size = 4
?setSlotStatus@CvDllPreGame@@UAGXW4PlayerTypes@@W4SlotStatus@@@Z PROC ; CvDllPreGame::setSlotStatus, COMDAT

; 961  : 	CvPreGame::setSlotStatus(eID, eSlotStatus);

	mov	eax, DWORD PTR _eSlotStatus$[esp-4]
	mov	ecx, DWORD PTR _eID$[esp-4]
	push	eax
	push	ecx
	call	?setSlotStatus@CvPreGame@@YAXW4PlayerTypes@@W4SlotStatus@@@Z ; CvPreGame::setSlotStatus
	add	esp, 8

; 962  : }

	ret	12					; 0000000cH
?setSlotStatus@CvDllPreGame@@UAGXW4PlayerTypes@@W4SlotStatus@@@Z ENDP ; CvDllPreGame::setSlotStatus
_TEXT	ENDS
EXTRN	?setSyncRandomSeed@CvPreGame@@YAXI@Z:PROC	; CvPreGame::setSyncRandomSeed
; Function compile flags: /Ogtpy
;	COMDAT ?setSyncRandomSeed@CvDllPreGame@@UAGXI@Z
_TEXT	SEGMENT
_this$ = 8						; size = 4
_newSeed$ = 12						; size = 4
?setSyncRandomSeed@CvDllPreGame@@UAGXI@Z PROC		; CvDllPreGame::setSyncRandomSeed, COMDAT

; 966  : 	CvPreGame::setSyncRandomSeed(newSeed);

	mov	eax, DWORD PTR _newSeed$[esp-4]
	push	eax
	call	?setSyncRandomSeed@CvPreGame@@YAXI@Z	; CvPreGame::setSyncRandomSeed
	pop	ecx

; 967  : }

	ret	8
?setSyncRandomSeed@CvDllPreGame@@UAGXI@Z ENDP		; CvDllPreGame::setSyncRandomSeed
_TEXT	ENDS
EXTRN	?setTeamType@CvPreGame@@YAXW4PlayerTypes@@W4TeamTypes@@@Z:PROC ; CvPreGame::setTeamType
; Function compile flags: /Ogtpy
;	COMDAT ?setTeamType@CvDllPreGame@@UAGXW4PlayerTypes@@W4TeamTypes@@@Z
_TEXT	SEGMENT
_this$ = 8						; size = 4
_p$ = 12						; size = 4
_t$ = 16						; size = 4
?setTeamType@CvDllPreGame@@UAGXW4PlayerTypes@@W4TeamTypes@@@Z PROC ; CvDllPreGame::setTeamType, COMDAT

; 971  : 	CvPreGame::setTeamType(p, t);

	mov	eax, DWORD PTR _t$[esp-4]
	mov	ecx, DWORD PTR _p$[esp-4]
	push	eax
	push	ecx
	call	?setTeamType@CvPreGame@@YAXW4PlayerTypes@@W4TeamTypes@@@Z ; CvPreGame::setTeamType
	add	esp, 8

; 972  : }

	ret	12					; 0000000cH
?setTeamType@CvDllPreGame@@UAGXW4PlayerTypes@@W4TeamTypes@@@Z ENDP ; CvDllPreGame::setTeamType
_TEXT	ENDS
EXTRN	?setTransferredMap@CvPreGame@@YAX_N@Z:PROC	; CvPreGame::setTransferredMap
; Function compile flags: /Ogtpy
;	COMDAT ?setTransferredMap@CvDllPreGame@@UAGX_N@Z
_TEXT	SEGMENT
_this$ = 8						; size = 4
_transferred$ = 12					; size = 1
?setTransferredMap@CvDllPreGame@@UAGX_N@Z PROC		; CvDllPreGame::setTransferredMap, COMDAT

; 976  : 	CvPreGame::setTransferredMap(transferred);

	mov	eax, DWORD PTR _transferred$[esp-4]
	push	eax
	call	?setTransferredMap@CvPreGame@@YAX_N@Z	; CvPreGame::setTransferredMap
	pop	ecx

; 977  : }

	ret	8
?setTransferredMap@CvDllPreGame@@UAGX_N@Z ENDP		; CvDllPreGame::setTransferredMap
_TEXT	ENDS
EXTRN	?setTurnTimer@CvPreGame@@YAXW4TurnTimerTypes@@@Z:PROC ; CvPreGame::setTurnTimer
; Function compile flags: /Ogtpy
;	COMDAT ?setTurnTimer@CvDllPreGame@@UAGXW4TurnTimerTypes@@@Z
_TEXT	SEGMENT
_this$ = 8						; size = 4
_t$ = 12						; size = 4
?setTurnTimer@CvDllPreGame@@UAGXW4TurnTimerTypes@@@Z PROC ; CvDllPreGame::setTurnTimer, COMDAT

; 981  : 	CvPreGame::setTurnTimer(t);

	mov	eax, DWORD PTR _t$[esp-4]
	push	eax
	call	?setTurnTimer@CvPreGame@@YAXW4TurnTimerTypes@@@Z ; CvPreGame::setTurnTimer
	pop	ecx

; 982  : }

	ret	8
?setTurnTimer@CvDllPreGame@@UAGXW4TurnTimerTypes@@@Z ENDP ; CvDllPreGame::setTurnTimer
_TEXT	ENDS
EXTRN	?setTurnTimer@CvPreGame@@YAXABVCvString@@@Z:PROC ; CvPreGame::setTurnTimer
; Function compile flags: /Ogtpy
;	COMDAT ?setTurnTimer@CvDllPreGame@@UAGXABVCvString@@@Z
_TEXT	SEGMENT
_this$ = 8						; size = 4
_t$ = 12						; size = 4
?setTurnTimer@CvDllPreGame@@UAGXABVCvString@@@Z PROC	; CvDllPreGame::setTurnTimer, COMDAT

; 986  : 	CvPreGame::setTurnTimer(t);

	mov	eax, DWORD PTR _t$[esp-4]
	push	eax
	call	?setTurnTimer@CvPreGame@@YAXABVCvString@@@Z ; CvPreGame::setTurnTimer
	pop	ecx

; 987  : }

	ret	8
?setTurnTimer@CvDllPreGame@@UAGXABVCvString@@@Z ENDP	; CvDllPreGame::setTurnTimer
_TEXT	ENDS
EXTRN	?SetCityScreenBlocked@CvPreGame@@YAX_N@Z:PROC	; CvPreGame::SetCityScreenBlocked
; Function compile flags: /Ogtpy
;	COMDAT ?SetCityScreenBlocked@CvDllPreGame@@UAGX_N@Z
_TEXT	SEGMENT
_this$ = 8						; size = 4
_bCityScreenBlocked$ = 12				; size = 1
?SetCityScreenBlocked@CvDllPreGame@@UAGX_N@Z PROC	; CvDllPreGame::SetCityScreenBlocked, COMDAT

; 991  : 	CvPreGame::SetCityScreenBlocked(bCityScreenBlocked);

	mov	eax, DWORD PTR _bCityScreenBlocked$[esp-4]
	push	eax
	call	?SetCityScreenBlocked@CvPreGame@@YAX_N@Z ; CvPreGame::SetCityScreenBlocked
	pop	ecx

; 992  : }

	ret	8
?SetCityScreenBlocked@CvDllPreGame@@UAGX_N@Z ENDP	; CvDllPreGame::SetCityScreenBlocked
_TEXT	ENDS
EXTRN	?setVersionString@CvPreGame@@YAXABV?$basic_string@DU?$char_traits@D@std@@V?$allocator@D@2@@std@@@Z:PROC ; CvPreGame::setVersionString
; Function compile flags: /Ogtpy
;	COMDAT ?setVersionString@CvDllPreGame@@UAGXABV?$basic_string@DU?$char_traits@D@std@@V?$allocator@D@2@@std@@@Z
_TEXT	SEGMENT
_this$ = 8						; size = 4
_v$ = 12						; size = 4
?setVersionString@CvDllPreGame@@UAGXABV?$basic_string@DU?$char_traits@D@std@@V?$allocator@D@2@@std@@@Z PROC ; CvDllPreGame::setVersionString, COMDAT

; 996  : 	CvPreGame::setVersionString(v);

	mov	eax, DWORD PTR _v$[esp-4]
	push	eax
	call	?setVersionString@CvPreGame@@YAXABV?$basic_string@DU?$char_traits@D@std@@V?$allocator@D@2@@std@@@Z ; CvPreGame::setVersionString
	pop	ecx

; 997  : }

	ret	8
?setVersionString@CvDllPreGame@@UAGXABV?$basic_string@DU?$char_traits@D@std@@V?$allocator@D@2@@std@@@Z ENDP ; CvDllPreGame::setVersionString
_TEXT	ENDS
EXTRN	?setVictory@CvPreGame@@YAXW4VictoryTypes@@_N@Z:PROC ; CvPreGame::setVictory
; Function compile flags: /Ogtpy
;	COMDAT ?setVictory@CvDllPreGame@@UAGXW4VictoryTypes@@_N@Z
_TEXT	SEGMENT
_this$ = 8						; size = 4
_v$ = 12						; size = 4
_isValid$ = 16						; size = 1
?setVictory@CvDllPreGame@@UAGXW4VictoryTypes@@_N@Z PROC	; CvDllPreGame::setVictory, COMDAT

; 1001 : 	CvPreGame::setVictory(v, isValid);

	mov	eax, DWORD PTR _isValid$[esp-4]
	mov	ecx, DWORD PTR _v$[esp-4]
	push	eax
	push	ecx
	call	?setVictory@CvPreGame@@YAXW4VictoryTypes@@_N@Z ; CvPreGame::setVictory
	add	esp, 8

; 1002 : }

	ret	12					; 0000000cH
?setVictory@CvDllPreGame@@UAGXW4VictoryTypes@@_N@Z ENDP	; CvDllPreGame::setVictory
_TEXT	ENDS
EXTRN	?setVictories@CvPreGame@@YAXABV?$vector@_NV?$allocator@_N@std@@@std@@@Z:PROC ; CvPreGame::setVictories
; Function compile flags: /Ogtpy
;	COMDAT ?setVictories@CvDllPreGame@@UAGXABV?$vector@_NV?$allocator@_N@std@@@std@@@Z
_TEXT	SEGMENT
_this$ = 8						; size = 4
_v$ = 12						; size = 4
?setVictories@CvDllPreGame@@UAGXABV?$vector@_NV?$allocator@_N@std@@@std@@@Z PROC ; CvDllPreGame::setVictories, COMDAT

; 1006 : 	CvPreGame::setVictories(v);

	mov	eax, DWORD PTR _v$[esp-4]
	push	eax
	call	?setVictories@CvPreGame@@YAXABV?$vector@_NV?$allocator@_N@std@@@std@@@Z ; CvPreGame::setVictories
	pop	ecx

; 1007 : }

	ret	8
?setVictories@CvDllPreGame@@UAGXABV?$vector@_NV?$allocator@_N@std@@@std@@@Z ENDP ; CvDllPreGame::setVictories
_TEXT	ENDS
EXTRN	?setWhiteFlag@CvPreGame@@YAXW4PlayerTypes@@_N@Z:PROC ; CvPreGame::setWhiteFlag
; Function compile flags: /Ogtpy
;	COMDAT ?setWhiteFlag@CvDllPreGame@@UAGXW4PlayerTypes@@_N@Z
_TEXT	SEGMENT
_this$ = 8						; size = 4
_p$ = 12						; size = 4
_flag$ = 16						; size = 1
?setWhiteFlag@CvDllPreGame@@UAGXW4PlayerTypes@@_N@Z PROC ; CvDllPreGame::setWhiteFlag, COMDAT

; 1011 : 	CvPreGame::setWhiteFlag(p, flag);

	mov	eax, DWORD PTR _flag$[esp-4]
	mov	ecx, DWORD PTR _p$[esp-4]
	push	eax
	push	ecx
	call	?setWhiteFlag@CvPreGame@@YAXW4PlayerTypes@@_N@Z ; CvPreGame::setWhiteFlag
	add	esp, 8

; 1012 : }

	ret	12					; 0000000cH
?setWhiteFlag@CvDllPreGame@@UAGXW4PlayerTypes@@_N@Z ENDP ; CvDllPreGame::setWhiteFlag
_TEXT	ENDS
PUBLIC	??_7logic_error@std@@6B@			; std::logic_error::`vftable'
PUBLIC	??0logic_error@std@@QAE@ABV?$basic_string@DU?$char_traits@D@std@@V?$allocator@D@2@@1@@Z ; std::logic_error::logic_error
PUBLIC	??_R4logic_error@std@@6B@			; std::logic_error::`RTTI Complete Object Locator'
PUBLIC	??_R0?AVlogic_error@std@@@8			; std::logic_error `RTTI Type Descriptor'
PUBLIC	??_R3logic_error@std@@8				; std::logic_error::`RTTI Class Hierarchy Descriptor'
PUBLIC	??_R2logic_error@std@@8				; std::logic_error::`RTTI Base Class Array'
PUBLIC	??_R1A@?0A@EA@logic_error@std@@8		; std::logic_error::`RTTI Base Class Descriptor at (0,-1,0,64)'
PUBLIC	?what@logic_error@std@@UBEPBDXZ			; std::logic_error::what
EXTRN	__imp_??0?$basic_string@DU?$char_traits@D@std@@V?$allocator@D@2@@std@@QAE@ABV01@@Z:PROC
EXTRN	__imp_??0exception@std@@QAE@XZ:PROC
EXTRN	___CxxFrameHandler3:PROC
EXTRN	??_Elogic_error@std@@UAEPAXI@Z:PROC		; std::logic_error::`vector deleting destructor'
;	COMDAT ??_R1A@?0A@EA@logic_error@std@@8
; File c:\program files (x86)\microsoft visual studio 9.0\vc\include\stdexcept
rdata$r	SEGMENT
??_R1A@?0A@EA@logic_error@std@@8 DD FLAT:??_R0?AVlogic_error@std@@@8 ; std::logic_error::`RTTI Base Class Descriptor at (0,-1,0,64)'
	DD	01H
	DD	00H
	DD	0ffffffffH
	DD	00H
	DD	040H
	DD	FLAT:??_R3logic_error@std@@8
rdata$r	ENDS
;	COMDAT ??_R2logic_error@std@@8
rdata$r	SEGMENT
??_R2logic_error@std@@8 DD FLAT:??_R1A@?0A@EA@logic_error@std@@8 ; std::logic_error::`RTTI Base Class Array'
	DD	FLAT:??_R1A@?0A@EA@exception@std@@8
rdata$r	ENDS
;	COMDAT ??_R3logic_error@std@@8
rdata$r	SEGMENT
??_R3logic_error@std@@8 DD 00H				; std::logic_error::`RTTI Class Hierarchy Descriptor'
	DD	00H
	DD	02H
	DD	FLAT:??_R2logic_error@std@@8
rdata$r	ENDS
;	COMDAT ??_R0?AVlogic_error@std@@@8
_DATA	SEGMENT
??_R0?AVlogic_error@std@@@8 DD FLAT:??_7type_info@@6B@	; std::logic_error `RTTI Type Descriptor'
	DD	00H
	DB	'.?AVlogic_error@std@@', 00H
_DATA	ENDS
;	COMDAT ??_R4logic_error@std@@6B@
rdata$r	SEGMENT
??_R4logic_error@std@@6B@ DD 00H			; std::logic_error::`RTTI Complete Object Locator'
	DD	00H
	DD	00H
	DD	FLAT:??_R0?AVlogic_error@std@@@8
	DD	FLAT:??_R3logic_error@std@@8
rdata$r	ENDS
;	COMDAT ??_7logic_error@std@@6B@
CONST	SEGMENT
??_7logic_error@std@@6B@ DD FLAT:??_R4logic_error@std@@6B@ ; std::logic_error::`vftable'
	DD	FLAT:??_Elogic_error@std@@UAEPAXI@Z
	DD	FLAT:?what@logic_error@std@@UBEPBDXZ
CONST	ENDS
;	COMDAT xdata$x
xdata$x	SEGMENT
__unwindtable$??0logic_error@std@@QAE@ABV?$basic_string@DU?$char_traits@D@std@@V?$allocator@D@2@@1@@Z DD 0ffffffffH
	DD	FLAT:__unwindfunclet$??0logic_error@std@@QAE@ABV?$basic_string@DU?$char_traits@D@std@@V?$allocator@D@2@@1@@Z$0
__ehfuncinfo$??0logic_error@std@@QAE@ABV?$basic_string@DU?$char_traits@D@std@@V?$allocator@D@2@@1@@Z DD 019930522H
	DD	01H
	DD	FLAT:__unwindtable$??0logic_error@std@@QAE@ABV?$basic_string@DU?$char_traits@D@std@@V?$allocator@D@2@@1@@Z
	DD	2 DUP(00H)
	DD	2 DUP(00H)
	DD	00H
	DD	01H
; Function compile flags: /Ogtpy
xdata$x	ENDS
;	COMDAT ??0logic_error@std@@QAE@ABV?$basic_string@DU?$char_traits@D@std@@V?$allocator@D@2@@1@@Z
_TEXT	SEGMENT
_this$ = -16						; size = 4
__$EHRec$ = -12						; size = 12
__Message$ = 8						; size = 4
??0logic_error@std@@QAE@ABV?$basic_string@DU?$char_traits@D@std@@V?$allocator@D@2@@1@@Z PROC ; std::logic_error::logic_error, COMDAT
; _this$ = ecx

; 26   : 		{	// construct from message string

	push	-1
	push	__ehhandler$??0logic_error@std@@QAE@ABV?$basic_string@DU?$char_traits@D@std@@V?$allocator@D@2@@1@@Z
	mov	eax, DWORD PTR fs:0
	push	eax
	mov	DWORD PTR fs:0, esp
	push	ecx
	push	esi
	mov	esi, ecx
	mov	DWORD PTR _this$[esp+20], esi
	call	DWORD PTR __imp_??0exception@std@@QAE@XZ
	mov	eax, DWORD PTR __Message$[esp+16]
	push	eax
	lea	ecx, DWORD PTR [esi+12]
	mov	DWORD PTR __$EHRec$[esp+32], 0
	mov	DWORD PTR [esi], OFFSET ??_7logic_error@std@@6B@
	call	DWORD PTR __imp_??0?$basic_string@DU?$char_traits@D@std@@V?$allocator@D@2@@std@@QAE@ABV01@@Z

; 27   : 		}

	mov	ecx, DWORD PTR __$EHRec$[esp+20]
	mov	eax, esi
	pop	esi
	mov	DWORD PTR fs:0, ecx
	add	esp, 16					; 00000010H
	ret	4
_TEXT	ENDS
;	COMDAT text$x
text$x	SEGMENT
__unwindfunclet$??0logic_error@std@@QAE@ABV?$basic_string@DU?$char_traits@D@std@@V?$allocator@D@2@@1@@Z$0:
	mov	ecx, DWORD PTR _this$[ebp]
	jmp	DWORD PTR __imp_??1exception@std@@UAE@XZ
__ehhandler$??0logic_error@std@@QAE@ABV?$basic_string@DU?$char_traits@D@std@@V?$allocator@D@2@@1@@Z:
	mov	eax, OFFSET __ehfuncinfo$??0logic_error@std@@QAE@ABV?$basic_string@DU?$char_traits@D@std@@V?$allocator@D@2@@1@@Z
	jmp	___CxxFrameHandler3
text$x	ENDS
??0logic_error@std@@QAE@ABV?$basic_string@DU?$char_traits@D@std@@V?$allocator@D@2@@1@@Z ENDP ; std::logic_error::logic_error
EXTRN	?setWorldSize@CvPreGame@@YAXW4WorldSizeTypes@@_N@Z:PROC ; CvPreGame::setWorldSize
; Function compile flags: /Ogtpy
; File c:\users\enormousapplepie\documents\github\lekmod\lekmod_dll\cvgamecoredll_expansion2\cvdllpregame.cpp
;	COMDAT ?setWorldSize@CvDllPreGame@@UAGXW4WorldSizeTypes@@_N@Z
_TEXT	SEGMENT
_this$ = 8						; size = 4
_w$ = 12						; size = 4
_bResetSlots$ = 16					; size = 1
?setWorldSize@CvDllPreGame@@UAGXW4WorldSizeTypes@@_N@Z PROC ; CvDllPreGame::setWorldSize, COMDAT

; 1016 : 	CvPreGame::setWorldSize(w, bResetSlots);

	mov	eax, DWORD PTR _bResetSlots$[esp-4]
	mov	ecx, DWORD PTR _w$[esp-4]
	push	eax
	push	ecx
	call	?setWorldSize@CvPreGame@@YAXW4WorldSizeTypes@@_N@Z ; CvPreGame::setWorldSize
	add	esp, 8

; 1017 : }

	ret	12					; 0000000cH
?setWorldSize@CvDllPreGame@@UAGXW4WorldSizeTypes@@_N@Z ENDP ; CvDllPreGame::setWorldSize
_TEXT	ENDS
EXTRN	?setWorldSize@CvPreGame@@YAXABVCvString@@@Z:PROC ; CvPreGame::setWorldSize
; Function compile flags: /Ogtpy
;	COMDAT ?setWorldSize@CvDllPreGame@@UAGXABVCvString@@@Z
_TEXT	SEGMENT
_this$ = 8						; size = 4
_w$ = 12						; size = 4
?setWorldSize@CvDllPreGame@@UAGXABVCvString@@@Z PROC	; CvDllPreGame::setWorldSize, COMDAT

; 1021 : 	CvPreGame::setWorldSize(w);

	mov	eax, DWORD PTR _w$[esp-4]
	push	eax
	call	?setWorldSize@CvPreGame@@YAXABVCvString@@@Z ; CvPreGame::setWorldSize
	pop	ecx

; 1022 : }

	ret	8
?setWorldSize@CvDllPreGame@@UAGXABVCvString@@@Z ENDP	; CvDllPreGame::setWorldSize
_TEXT	ENDS
EXTRN	?slotClaim@CvPreGame@@YA?AW4SlotClaim@@W4PlayerTypes@@@Z:PROC ; CvPreGame::slotClaim
; Function compile flags: /Ogtpy
;	COMDAT ?slotClaim@CvDllPreGame@@UAG?AW4SlotClaim@@W4PlayerTypes@@@Z
_TEXT	SEGMENT
_this$ = 8						; size = 4
_p$ = 12						; size = 4
?slotClaim@CvDllPreGame@@UAG?AW4SlotClaim@@W4PlayerTypes@@@Z PROC ; CvDllPreGame::slotClaim, COMDAT

; 1026 : 	return CvPreGame::slotClaim(p);

	mov	eax, DWORD PTR _p$[esp-4]
	push	eax
	call	?slotClaim@CvPreGame@@YA?AW4SlotClaim@@W4PlayerTypes@@@Z ; CvPreGame::slotClaim
	add	esp, 4

; 1027 : }

	ret	8
?slotClaim@CvDllPreGame@@UAG?AW4SlotClaim@@W4PlayerTypes@@@Z ENDP ; CvDllPreGame::slotClaim
_TEXT	ENDS
PUBLIC	??1logic_error@std@@UAE@XZ			; std::logic_error::~logic_error
EXTRN	__imp_??1?$basic_string@DU?$char_traits@D@std@@V?$allocator@D@2@@std@@QAE@XZ:PROC
; Function compile flags: /Ogtpy
; File c:\program files (x86)\microsoft visual studio 9.0\vc\include\stdexcept
;	COMDAT ??1logic_error@std@@UAE@XZ
_TEXT	SEGMENT
??1logic_error@std@@UAE@XZ PROC				; std::logic_error::~logic_error, COMDAT
; _this$ = ecx

; 30   : 		{	// destroy the object

	push	esi
	mov	esi, ecx

; 31   : 		}

	lea	ecx, DWORD PTR [esi+12]
	mov	DWORD PTR [esi], OFFSET ??_7logic_error@std@@6B@
	call	DWORD PTR __imp_??1?$basic_string@DU?$char_traits@D@std@@V?$allocator@D@2@@std@@QAE@XZ
	mov	ecx, esi
	pop	esi
	jmp	DWORD PTR __imp_??1exception@std@@UAE@XZ
??1logic_error@std@@UAE@XZ ENDP				; std::logic_error::~logic_error
_TEXT	ENDS
EXTRN	?slotStatus@CvPreGame@@YA?AW4SlotStatus@@W4PlayerTypes@@@Z:PROC ; CvPreGame::slotStatus
; Function compile flags: /Ogtpy
; File c:\users\enormousapplepie\documents\github\lekmod\lekmod_dll\cvgamecoredll_expansion2\cvdllpregame.cpp
;	COMDAT ?slotStatus@CvDllPreGame@@UAG?AW4SlotStatus@@W4PlayerTypes@@@Z
_TEXT	SEGMENT
_this$ = 8						; size = 4
_eID$ = 12						; size = 4
?slotStatus@CvDllPreGame@@UAG?AW4SlotStatus@@W4PlayerTypes@@@Z PROC ; CvDllPreGame::slotStatus, COMDAT

; 1031 : 	return CvPreGame::slotStatus(eID);

	mov	eax, DWORD PTR _eID$[esp-4]
	push	eax
	call	?slotStatus@CvPreGame@@YA?AW4SlotStatus@@W4PlayerTypes@@@Z ; CvPreGame::slotStatus
	add	esp, 4

; 1032 : }

	ret	8
?slotStatus@CvDllPreGame@@UAG?AW4SlotStatus@@W4PlayerTypes@@@Z ENDP ; CvDllPreGame::slotStatus
_TEXT	ENDS
EXTRN	?syncRandomSeed@CvPreGame@@YAIXZ:PROC		; CvPreGame::syncRandomSeed
; Function compile flags: /Ogtpy
;	COMDAT ?syncRandomSeed@CvDllPreGame@@UAGIXZ
_TEXT	SEGMENT
_this$ = 8						; size = 4
?syncRandomSeed@CvDllPreGame@@UAGIXZ PROC		; CvDllPreGame::syncRandomSeed, COMDAT

; 1036 : 	return CvPreGame::syncRandomSeed();

	call	?syncRandomSeed@CvPreGame@@YAIXZ	; CvPreGame::syncRandomSeed

; 1037 : }

	ret	4
?syncRandomSeed@CvDllPreGame@@UAGIXZ ENDP		; CvDllPreGame::syncRandomSeed
_TEXT	ENDS
EXTRN	__imp_?c_str@?$basic_string@DU?$char_traits@D@std@@V?$allocator@D@2@@std@@QBEPBDXZ:PROC
; Function compile flags: /Ogtpy
; File c:\program files (x86)\microsoft visual studio 9.0\vc\include\stdexcept
;	COMDAT ?what@logic_error@std@@UBEPBDXZ
_TEXT	SEGMENT
?what@logic_error@std@@UBEPBDXZ PROC			; std::logic_error::what, COMDAT
; _this$ = ecx

; 35   : 		return (_Str.c_str());

	add	ecx, 12					; 0000000cH
	jmp	DWORD PTR __imp_?c_str@?$basic_string@DU?$char_traits@D@std@@V?$allocator@D@2@@std@@QBEPBDXZ
?what@logic_error@std@@UBEPBDXZ ENDP			; std::logic_error::what
_TEXT	ENDS
EXTRN	?transferredMap@CvPreGame@@YA_NXZ:PROC		; CvPreGame::transferredMap
; Function compile flags: /Ogtpy
; File c:\users\enormousapplepie\documents\github\lekmod\lekmod_dll\cvgamecoredll_expansion2\cvdllpregame.cpp
;	COMDAT ?transferredMap@CvDllPreGame@@UAG_NXZ
_TEXT	SEGMENT
_this$ = 8						; size = 4
?transferredMap@CvDllPreGame@@UAG_NXZ PROC		; CvDllPreGame::transferredMap, COMDAT

; 1041 : 	return CvPreGame::transferredMap();

	call	?transferredMap@CvPreGame@@YA_NXZ	; CvPreGame::transferredMap

; 1042 : }

	ret	4
?transferredMap@CvDllPreGame@@UAG_NXZ ENDP		; CvDllPreGame::transferredMap
; Function compile flags: /Ogtpy
_TEXT	ENDS
;	COMDAT ??_Glogic_error@std@@UAEPAXI@Z
_TEXT	SEGMENT
___flags$ = 8						; size = 4
??_Glogic_error@std@@UAEPAXI@Z PROC			; std::logic_error::`scalar deleting destructor', COMDAT
; _this$ = ecx
	push	esi
	mov	esi, ecx
	lea	ecx, DWORD PTR [esi+12]
	mov	DWORD PTR [esi], OFFSET ??_7logic_error@std@@6B@
	call	DWORD PTR __imp_??1?$basic_string@DU?$char_traits@D@std@@V?$allocator@D@2@@std@@QAE@XZ
	mov	ecx, esi
	call	DWORD PTR __imp_??1exception@std@@UAE@XZ
	test	BYTE PTR ___flags$[esp], 1
	je	SHORT $LN6@scalar@2
	push	esi
	call	??3@YAXPAX@Z				; operator delete
	add	esp, 4
$LN6@scalar@2:
	mov	eax, esi
	pop	esi
	ret	4
??_Glogic_error@std@@UAEPAXI@Z ENDP			; std::logic_error::`scalar deleting destructor'
_TEXT	ENDS
EXTRN	?turnTimer@CvPreGame@@YA?AW4TurnTimerTypes@@XZ:PROC ; CvPreGame::turnTimer
; Function compile flags: /Ogtpy
;	COMDAT ?turnTimer@CvDllPreGame@@UAG?AW4TurnTimerTypes@@XZ
_TEXT	SEGMENT
_this$ = 8						; size = 4
?turnTimer@CvDllPreGame@@UAG?AW4TurnTimerTypes@@XZ PROC	; CvDllPreGame::turnTimer, COMDAT

; 1051 : 	return CvPreGame::turnTimer();

	call	?turnTimer@CvPreGame@@YA?AW4TurnTimerTypes@@XZ ; CvPreGame::turnTimer

; 1052 : }

	ret	4
?turnTimer@CvDllPreGame@@UAG?AW4TurnTimerTypes@@XZ ENDP	; CvDllPreGame::turnTimer
_TEXT	ENDS
EXTRN	?versionString@CvPreGame@@YAABV?$basic_string@DU?$char_traits@D@std@@V?$allocator@D@2@@std@@XZ:PROC ; CvPreGame::versionString
; Function compile flags: /Ogtpy
;	COMDAT ?versionString@CvDllPreGame@@UAG?BV?$basic_string@DU?$char_traits@D@std@@V?$allocator@D@2@@std@@XZ
_TEXT	SEGMENT
$T222369 = -4						; size = 4
_this$ = 8						; size = 4
___$ReturnUdt$ = 12					; size = 4
?versionString@CvDllPreGame@@UAG?BV?$basic_string@DU?$char_traits@D@std@@V?$allocator@D@2@@std@@XZ PROC ; CvDllPreGame::versionString, COMDAT

; 1055 : {

	push	ecx
	push	esi
	mov	DWORD PTR $T222369[esp+8], 0

; 1056 : 	return CvPreGame::versionString();

	call	?versionString@CvPreGame@@YAABV?$basic_string@DU?$char_traits@D@std@@V?$allocator@D@2@@std@@XZ ; CvPreGame::versionString
	mov	esi, DWORD PTR ___$ReturnUdt$[esp+4]
	push	eax
	mov	ecx, esi
	call	DWORD PTR __imp_??0?$basic_string@DU?$char_traits@D@std@@V?$allocator@D@2@@std@@QAE@ABV01@@Z
	mov	eax, esi
	pop	esi

; 1057 : }

	pop	ecx
	ret	8
?versionString@CvDllPreGame@@UAG?BV?$basic_string@DU?$char_traits@D@std@@V?$allocator@D@2@@std@@XZ ENDP ; CvDllPreGame::versionString
_TEXT	ENDS
EXTRN	?worldSize@CvPreGame@@YA?AW4WorldSizeTypes@@XZ:PROC ; CvPreGame::worldSize
; Function compile flags: /Ogtpy
;	COMDAT ?worldSize@CvDllPreGame@@UAG?AW4WorldSizeTypes@@XZ
_TEXT	SEGMENT
_this$ = 8						; size = 4
?worldSize@CvDllPreGame@@UAG?AW4WorldSizeTypes@@XZ PROC	; CvDllPreGame::worldSize, COMDAT

; 1061 : 	return CvPreGame::worldSize();

	call	?worldSize@CvPreGame@@YA?AW4WorldSizeTypes@@XZ ; CvPreGame::worldSize

; 1062 : }

	ret	4
?worldSize@CvDllPreGame@@UAG?AW4WorldSizeTypes@@XZ ENDP	; CvDllPreGame::worldSize
_TEXT	ENDS
EXTRN	??3CvDllWorldInfo@@SAXPAX@Z:PROC		; CvDllWorldInfo::operator delete
EXTRN	??0CvDllWorldInfo@@QAE@PAVCvWorldInfo@@@Z:PROC	; CvDllWorldInfo::CvDllWorldInfo
EXTRN	??2CvDllWorldInfo@@SAPAXI@Z:PROC		; CvDllWorldInfo::operator new
EXTRN	?worldInfo@CvPreGame@@YAABVCvWorldInfo@@XZ:PROC	; CvPreGame::worldInfo
;	COMDAT xdata$x
xdata$x	SEGMENT
__unwindtable$?GetWorldInfo@CvDllPreGame@@UAGPAVICvWorldInfo1@@XZ DD 0ffffffffH
	DD	FLAT:__unwindfunclet$?GetWorldInfo@CvDllPreGame@@UAGPAVICvWorldInfo1@@XZ$0
__ehfuncinfo$?GetWorldInfo@CvDllPreGame@@UAGPAVICvWorldInfo1@@XZ DD 019930522H
	DD	01H
	DD	FLAT:__unwindtable$?GetWorldInfo@CvDllPreGame@@UAGPAVICvWorldInfo1@@XZ
	DD	2 DUP(00H)
	DD	2 DUP(00H)
	DD	00H
	DD	01H
; Function compile flags: /Ogtpy
xdata$x	ENDS
;	COMDAT ?GetWorldInfo@CvDllPreGame@@UAGPAVICvWorldInfo1@@XZ
_TEXT	SEGMENT
$T222378 = -16						; size = 4
__$EHRec$ = -12						; size = 12
_this$ = 8						; size = 4
?GetWorldInfo@CvDllPreGame@@UAGPAVICvWorldInfo1@@XZ PROC ; CvDllPreGame::GetWorldInfo, COMDAT

; 1065 : {

	push	-1
	push	__ehhandler$?GetWorldInfo@CvDllPreGame@@UAGPAVICvWorldInfo1@@XZ
	mov	eax, DWORD PTR fs:0
	push	eax
	mov	DWORD PTR fs:0, esp
	push	ecx
	push	esi

; 1066 : 	const CvWorldInfo& kWorldInfo = CvPreGame::worldInfo();

	call	?worldInfo@CvPreGame@@YAABVCvWorldInfo@@XZ ; CvPreGame::worldInfo

; 1067 : 	const CvWorldInfo* pWorldInfo = &(kWorldInfo);
; 1068 : 	return new CvDllWorldInfo(const_cast<CvWorldInfo*>(pWorldInfo));

	push	12					; 0000000cH
	mov	esi, eax
	call	??2CvDllWorldInfo@@SAPAXI@Z		; CvDllWorldInfo::operator new
	add	esp, 4
	mov	DWORD PTR $T222378[esp+20], eax
	mov	DWORD PTR __$EHRec$[esp+28], 0
	test	eax, eax
	je	SHORT $LN3@GetWorldIn
	push	esi
	mov	ecx, eax
	call	??0CvDllWorldInfo@@QAE@PAVCvWorldInfo@@@Z ; CvDllWorldInfo::CvDllWorldInfo
	pop	esi

; 1069 : }

	mov	ecx, DWORD PTR __$EHRec$[esp+16]
	mov	DWORD PTR fs:0, ecx
	add	esp, 16					; 00000010H
	ret	4
$LN3@GetWorldIn:
	mov	ecx, DWORD PTR __$EHRec$[esp+20]
	xor	eax, eax
	pop	esi
	mov	DWORD PTR fs:0, ecx
	add	esp, 16					; 00000010H
	ret	4
_TEXT	ENDS
;	COMDAT text$x
text$x	SEGMENT
__unwindfunclet$?GetWorldInfo@CvDllPreGame@@UAGPAVICvWorldInfo1@@XZ$0:
	mov	eax, DWORD PTR $T222378[ebp]
	push	eax
	call	??3CvDllWorldInfo@@SAXPAX@Z		; CvDllWorldInfo::operator delete
	pop	ecx
	ret	0
__ehhandler$?GetWorldInfo@CvDllPreGame@@UAGPAVICvWorldInfo1@@XZ:
	mov	eax, OFFSET __ehfuncinfo$?GetWorldInfo@CvDllPreGame@@UAGPAVICvWorldInfo1@@XZ
	jmp	___CxxFrameHandler3
text$x	ENDS
?GetWorldInfo@CvDllPreGame@@UAGPAVICvWorldInfo1@@XZ ENDP ; CvDllPreGame::GetWorldInfo
EXTRN	?write@CvPreGame@@YAXAAVFDataStream@@@Z:PROC	; CvPreGame::write
; Function compile flags: /Ogtpy
;	COMDAT ?write@CvDllPreGame@@UAGXAAVFDataStream@@@Z
_TEXT	SEGMENT
_this$ = 8						; size = 4
_saveTo$ = 12						; size = 4
?write@CvDllPreGame@@UAGXAAVFDataStream@@@Z PROC	; CvDllPreGame::write, COMDAT

; 1073 : 	CvPreGame::write(saveTo);

	mov	eax, DWORD PTR _saveTo$[esp-4]
	push	eax
	call	?write@CvPreGame@@YAXAAVFDataStream@@@Z	; CvPreGame::write
	pop	ecx

; 1074 : }

	ret	8
?write@CvDllPreGame@@UAGXAAVFDataStream@@@Z ENDP	; CvDllPreGame::write
_TEXT	ENDS
EXTRN	?getActiveSlotCount@CvPreGame@@YAHXZ:PROC	; CvPreGame::getActiveSlotCount
; Function compile flags: /Ogtpy
;	COMDAT ?getActiveSlotCount@CvDllPreGame@@UAGHXZ
_TEXT	SEGMENT
_this$ = 8						; size = 4
?getActiveSlotCount@CvDllPreGame@@UAGHXZ PROC		; CvDllPreGame::getActiveSlotCount, COMDAT

; 1078 : 	return CvPreGame::getActiveSlotCount();

	call	?getActiveSlotCount@CvPreGame@@YAHXZ	; CvPreGame::getActiveSlotCount

; 1079 : }

	ret	4
?getActiveSlotCount@CvDllPreGame@@UAGHXZ ENDP		; CvDllPreGame::getActiveSlotCount
_TEXT	ENDS
EXTRN	?readActiveSlotCountFromSaveGame@CvPreGame@@YAHAAVFDataStream@@_N@Z:PROC ; CvPreGame::readActiveSlotCountFromSaveGame
; Function compile flags: /Ogtpy
;	COMDAT ?readActiveSlotCountFromSaveGame@CvDllPreGame@@UAGHAAVFDataStream@@_N@Z
_TEXT	SEGMENT
_this$ = 8						; size = 4
_loadFrom$ = 12						; size = 4
_bReadVersion$ = 16					; size = 1
?readActiveSlotCountFromSaveGame@CvDllPreGame@@UAGHAAVFDataStream@@_N@Z PROC ; CvDllPreGame::readActiveSlotCountFromSaveGame, COMDAT

; 1083 : 	return CvPreGame::readActiveSlotCountFromSaveGame(loadFrom, bReadVersion);

	mov	eax, DWORD PTR _bReadVersion$[esp-4]
	mov	ecx, DWORD PTR _loadFrom$[esp-4]
	push	eax
	push	ecx
	call	?readActiveSlotCountFromSaveGame@CvPreGame@@YAHAAVFDataStream@@_N@Z ; CvPreGame::readActiveSlotCountFromSaveGame
	add	esp, 8

; 1084 : }

	ret	12					; 0000000cH
?readActiveSlotCountFromSaveGame@CvDllPreGame@@UAGHAAVFDataStream@@_N@Z ENDP ; CvDllPreGame::readActiveSlotCountFromSaveGame
_TEXT	ENDS
EXTRN	?loadFileStorage@CvPreGame@@YA?AW4StorageLocation@@XZ:PROC ; CvPreGame::loadFileStorage
; Function compile flags: /Ogtpy
;	COMDAT ?LoadFileStorage@CvDllPreGame@@UAG?AW4StorageLocation@@XZ
_TEXT	SEGMENT
_this$ = 8						; size = 4
?LoadFileStorage@CvDllPreGame@@UAG?AW4StorageLocation@@XZ PROC ; CvDllPreGame::LoadFileStorage, COMDAT

; 1088 : 	return CvPreGame::loadFileStorage();

	call	?loadFileStorage@CvPreGame@@YA?AW4StorageLocation@@XZ ; CvPreGame::loadFileStorage

; 1089 : }

	ret	4
?LoadFileStorage@CvDllPreGame@@UAG?AW4StorageLocation@@XZ ENDP ; CvDllPreGame::LoadFileStorage
_TEXT	ENDS
PUBLIC	??_7length_error@std@@6B@			; std::length_error::`vftable'
PUBLIC	??0length_error@std@@QAE@ABV?$basic_string@DU?$char_traits@D@std@@V?$allocator@D@2@@1@@Z ; std::length_error::length_error
PUBLIC	??_R4length_error@std@@6B@			; std::length_error::`RTTI Complete Object Locator'
PUBLIC	??_R0?AVlength_error@std@@@8			; std::length_error `RTTI Type Descriptor'
PUBLIC	??_R3length_error@std@@8			; std::length_error::`RTTI Class Hierarchy Descriptor'
PUBLIC	??_R2length_error@std@@8			; std::length_error::`RTTI Base Class Array'
PUBLIC	??_R1A@?0A@EA@length_error@std@@8		; std::length_error::`RTTI Base Class Descriptor at (0,-1,0,64)'
EXTRN	??_Elength_error@std@@UAEPAXI@Z:PROC		; std::length_error::`vector deleting destructor'
;	COMDAT ??_R1A@?0A@EA@length_error@std@@8
; File c:\program files (x86)\microsoft visual studio 9.0\vc\include\stdexcept
rdata$r	SEGMENT
??_R1A@?0A@EA@length_error@std@@8 DD FLAT:??_R0?AVlength_error@std@@@8 ; std::length_error::`RTTI Base Class Descriptor at (0,-1,0,64)'
	DD	02H
	DD	00H
	DD	0ffffffffH
	DD	00H
	DD	040H
	DD	FLAT:??_R3length_error@std@@8
rdata$r	ENDS
;	COMDAT ??_R2length_error@std@@8
rdata$r	SEGMENT
??_R2length_error@std@@8 DD FLAT:??_R1A@?0A@EA@length_error@std@@8 ; std::length_error::`RTTI Base Class Array'
	DD	FLAT:??_R1A@?0A@EA@logic_error@std@@8
	DD	FLAT:??_R1A@?0A@EA@exception@std@@8
rdata$r	ENDS
;	COMDAT ??_R3length_error@std@@8
rdata$r	SEGMENT
??_R3length_error@std@@8 DD 00H				; std::length_error::`RTTI Class Hierarchy Descriptor'
	DD	00H
	DD	03H
	DD	FLAT:??_R2length_error@std@@8
rdata$r	ENDS
;	COMDAT ??_R0?AVlength_error@std@@@8
_DATA	SEGMENT
??_R0?AVlength_error@std@@@8 DD FLAT:??_7type_info@@6B@	; std::length_error `RTTI Type Descriptor'
	DD	00H
	DB	'.?AVlength_error@std@@', 00H
_DATA	ENDS
;	COMDAT ??_R4length_error@std@@6B@
rdata$r	SEGMENT
??_R4length_error@std@@6B@ DD 00H			; std::length_error::`RTTI Complete Object Locator'
	DD	00H
	DD	00H
	DD	FLAT:??_R0?AVlength_error@std@@@8
	DD	FLAT:??_R3length_error@std@@8
rdata$r	ENDS
;	COMDAT ??_7length_error@std@@6B@
CONST	SEGMENT
??_7length_error@std@@6B@ DD FLAT:??_R4length_error@std@@6B@ ; std::length_error::`vftable'
	DD	FLAT:??_Elength_error@std@@UAEPAXI@Z
	DD	FLAT:?what@logic_error@std@@UBEPBDXZ
; Function compile flags: /Ogtpy
CONST	ENDS
;	COMDAT ??0length_error@std@@QAE@ABV?$basic_string@DU?$char_traits@D@std@@V?$allocator@D@2@@1@@Z
_TEXT	SEGMENT
__Message$ = 8						; size = 4
??0length_error@std@@QAE@ABV?$basic_string@DU?$char_traits@D@std@@V?$allocator@D@2@@1@@Z PROC ; std::length_error::length_error, COMDAT
; _this$ = ecx

; 105  : 		{	// construct from message string

	mov	eax, DWORD PTR __Message$[esp-4]
	push	esi
	push	eax
	mov	esi, ecx
	call	??0logic_error@std@@QAE@ABV?$basic_string@DU?$char_traits@D@std@@V?$allocator@D@2@@1@@Z ; std::logic_error::logic_error
	mov	DWORD PTR [esi], OFFSET ??_7length_error@std@@6B@

; 106  : 		}

	mov	eax, esi
	pop	esi
	ret	4
??0length_error@std@@QAE@ABV?$basic_string@DU?$char_traits@D@std@@V?$allocator@D@2@@1@@Z ENDP ; std::length_error::length_error
_TEXT	ENDS
PUBLIC	??1length_error@std@@UAE@XZ			; std::length_error::~length_error
; Function compile flags: /Ogtpy
;	COMDAT ??1length_error@std@@UAE@XZ
_TEXT	SEGMENT
??1length_error@std@@UAE@XZ PROC			; std::length_error::~length_error, COMDAT
; _this$ = ecx

; 109  : 		{	// destroy the object

	push	esi
	mov	esi, ecx

; 110  : 		}

	lea	ecx, DWORD PTR [esi+12]
	mov	DWORD PTR [esi], OFFSET ??_7logic_error@std@@6B@
	call	DWORD PTR __imp_??1?$basic_string@DU?$char_traits@D@std@@V?$allocator@D@2@@std@@QAE@XZ
	mov	ecx, esi
	pop	esi
	jmp	DWORD PTR __imp_??1exception@std@@UAE@XZ
??1length_error@std@@UAE@XZ ENDP			; std::length_error::~length_error
_TEXT	ENDS
EXTRN	??3CvDllDlcPackageInfoList@@SAXPAX@Z:PROC	; CvDllDlcPackageInfoList::operator delete
EXTRN	??0CvDllDlcPackageInfoList@@QAE@ABV?$list@U_GUID@@V?$allocator@U_GUID@@@std@@@std@@@Z:PROC ; CvDllDlcPackageInfoList::CvDllDlcPackageInfoList
EXTRN	?getDLCAllowed@CvPreGame@@YAABV?$list@U_GUID@@V?$allocator@U_GUID@@@std@@@std@@XZ:PROC ; CvPreGame::getDLCAllowed
EXTRN	??2CvDllDlcPackageInfoList@@SAPAXI@Z:PROC	; CvDllDlcPackageInfoList::operator new
;	COMDAT xdata$x
; File c:\users\enormousapplepie\documents\github\lekmod\lekmod_dll\cvgamecoredll_expansion2\cvdllpregame.cpp
xdata$x	SEGMENT
__unwindtable$?GetDLCAllowed@CvDllPreGame@@UAGPAVICvEnumerator@@XZ DD 0ffffffffH
	DD	FLAT:__unwindfunclet$?GetDLCAllowed@CvDllPreGame@@UAGPAVICvEnumerator@@XZ$0
__ehfuncinfo$?GetDLCAllowed@CvDllPreGame@@UAGPAVICvEnumerator@@XZ DD 019930522H
	DD	01H
	DD	FLAT:__unwindtable$?GetDLCAllowed@CvDllPreGame@@UAGPAVICvEnumerator@@XZ
	DD	2 DUP(00H)
	DD	2 DUP(00H)
	DD	00H
	DD	01H
; Function compile flags: /Ogtpy
xdata$x	ENDS
;	COMDAT ?GetDLCAllowed@CvDllPreGame@@UAGPAVICvEnumerator@@XZ
_TEXT	SEGMENT
$T222415 = -16						; size = 4
__$EHRec$ = -12						; size = 12
_this$ = 8						; size = 4
?GetDLCAllowed@CvDllPreGame@@UAGPAVICvEnumerator@@XZ PROC ; CvDllPreGame::GetDLCAllowed, COMDAT

; 1102 : {

	push	-1
	push	__ehhandler$?GetDLCAllowed@CvDllPreGame@@UAGPAVICvEnumerator@@XZ
	mov	eax, DWORD PTR fs:0
	push	eax
	mov	DWORD PTR fs:0, esp
	push	ecx
	push	esi

; 1103 : 	return new CvDllDlcPackageInfoList(CvPreGame::getDLCAllowed());

	push	28					; 0000001cH
	call	??2CvDllDlcPackageInfoList@@SAPAXI@Z	; CvDllDlcPackageInfoList::operator new
	mov	esi, eax
	add	esp, 4
	mov	DWORD PTR $T222415[esp+20], esi
	xor	eax, eax
	mov	DWORD PTR __$EHRec$[esp+28], eax
	cmp	esi, eax
	je	SHORT $LN4@GetDLCAllo
	call	?getDLCAllowed@CvPreGame@@YAABV?$list@U_GUID@@V?$allocator@U_GUID@@@std@@@std@@XZ ; CvPreGame::getDLCAllowed
	push	eax
	mov	ecx, esi
	call	??0CvDllDlcPackageInfoList@@QAE@ABV?$list@U_GUID@@V?$allocator@U_GUID@@@std@@@std@@@Z ; CvDllDlcPackageInfoList::CvDllDlcPackageInfoList
$LN4@GetDLCAllo:

; 1104 : }

	mov	ecx, DWORD PTR __$EHRec$[esp+20]
	pop	esi
	mov	DWORD PTR fs:0, ecx
	add	esp, 16					; 00000010H
	ret	4
_TEXT	ENDS
;	COMDAT text$x
text$x	SEGMENT
__unwindfunclet$?GetDLCAllowed@CvDllPreGame@@UAGPAVICvEnumerator@@XZ$0:
	mov	eax, DWORD PTR $T222415[ebp]
	push	eax
	call	??3CvDllDlcPackageInfoList@@SAXPAX@Z	; CvDllDlcPackageInfoList::operator delete
	pop	ecx
	ret	0
__ehhandler$?GetDLCAllowed@CvDllPreGame@@UAGPAVICvEnumerator@@XZ:
	mov	eax, OFFSET __ehfuncinfo$?GetDLCAllowed@CvDllPreGame@@UAGPAVICvEnumerator@@XZ
	jmp	___CxxFrameHandler3
text$x	ENDS
?GetDLCAllowed@CvDllPreGame@@UAGPAVICvEnumerator@@XZ ENDP ; CvDllPreGame::GetDLCAllowed
; Function compile flags: /Ogtpy
;	COMDAT ??_Glength_error@std@@UAEPAXI@Z
_TEXT	SEGMENT
___flags$ = 8						; size = 4
??_Glength_error@std@@UAEPAXI@Z PROC			; std::length_error::`scalar deleting destructor', COMDAT
; _this$ = ecx
	push	esi
	mov	esi, ecx
	lea	ecx, DWORD PTR [esi+12]
	mov	DWORD PTR [esi], OFFSET ??_7logic_error@std@@6B@
	call	DWORD PTR __imp_??1?$basic_string@DU?$char_traits@D@std@@V?$allocator@D@2@@std@@QAE@XZ
	mov	ecx, esi
	call	DWORD PTR __imp_??1exception@std@@UAE@XZ
	test	BYTE PTR ___flags$[esp], 1
	je	SHORT $LN8@scalar@3
	push	esi
	call	??3@YAXPAX@Z				; operator delete
	add	esp, 4
$LN8@scalar@3:
	mov	eax, esi
	pop	esi
	ret	4
??_Glength_error@std@@UAEPAXI@Z ENDP			; std::length_error::`scalar deleting destructor'
_TEXT	ENDS
EXTRN	?getDLCAvailable@CvPreGame@@YAABV?$list@U_GUID@@V?$allocator@U_GUID@@@std@@@std@@W4PlayerTypes@@@Z:PROC ; CvPreGame::getDLCAvailable
;	COMDAT xdata$x
xdata$x	SEGMENT
__unwindtable$?GetDLCAvailable@CvDllPreGame@@UAGPAVICvEnumerator@@W4PlayerTypes@@@Z DD 0ffffffffH
	DD	FLAT:__unwindfunclet$?GetDLCAvailable@CvDllPreGame@@UAGPAVICvEnumerator@@W4PlayerTypes@@@Z$0
__ehfuncinfo$?GetDLCAvailable@CvDllPreGame@@UAGPAVICvEnumerator@@W4PlayerTypes@@@Z DD 019930522H
	DD	01H
	DD	FLAT:__unwindtable$?GetDLCAvailable@CvDllPreGame@@UAGPAVICvEnumerator@@W4PlayerTypes@@@Z
	DD	2 DUP(00H)
	DD	2 DUP(00H)
	DD	00H
	DD	01H
; Function compile flags: /Ogtpy
xdata$x	ENDS
;	COMDAT ?GetDLCAvailable@CvDllPreGame@@UAGPAVICvEnumerator@@W4PlayerTypes@@@Z
_TEXT	SEGMENT
$T222441 = -16						; size = 4
__$EHRec$ = -12						; size = 12
_this$ = 8						; size = 4
_p$ = 12						; size = 4
?GetDLCAvailable@CvDllPreGame@@UAGPAVICvEnumerator@@W4PlayerTypes@@@Z PROC ; CvDllPreGame::GetDLCAvailable, COMDAT

; 1107 : {

	push	-1
	push	__ehhandler$?GetDLCAvailable@CvDllPreGame@@UAGPAVICvEnumerator@@W4PlayerTypes@@@Z
	mov	eax, DWORD PTR fs:0
	push	eax
	mov	DWORD PTR fs:0, esp
	push	ecx
	push	esi

; 1108 : 	return new CvDllDlcPackageInfoList(CvPreGame::getDLCAvailable(p));

	push	28					; 0000001cH
	call	??2CvDllDlcPackageInfoList@@SAPAXI@Z	; CvDllDlcPackageInfoList::operator new
	mov	esi, eax
	add	esp, 4
	mov	DWORD PTR $T222441[esp+20], esi
	xor	eax, eax
	mov	DWORD PTR __$EHRec$[esp+28], eax
	cmp	esi, eax
	je	SHORT $LN4@GetDLCAvai
	mov	eax, DWORD PTR _p$[esp+16]
	push	eax
	call	?getDLCAvailable@CvPreGame@@YAABV?$list@U_GUID@@V?$allocator@U_GUID@@@std@@@std@@W4PlayerTypes@@@Z ; CvPreGame::getDLCAvailable
	add	esp, 4
	push	eax
	mov	ecx, esi
	call	??0CvDllDlcPackageInfoList@@QAE@ABV?$list@U_GUID@@V?$allocator@U_GUID@@@std@@@std@@@Z ; CvDllDlcPackageInfoList::CvDllDlcPackageInfoList
$LN4@GetDLCAvai:

; 1109 : }

	mov	ecx, DWORD PTR __$EHRec$[esp+20]
	pop	esi
	mov	DWORD PTR fs:0, ecx
	add	esp, 16					; 00000010H
	ret	8
_TEXT	ENDS
;	COMDAT text$x
text$x	SEGMENT
__unwindfunclet$?GetDLCAvailable@CvDllPreGame@@UAGPAVICvEnumerator@@W4PlayerTypes@@@Z$0:
	mov	eax, DWORD PTR $T222441[ebp]
	push	eax
	call	??3CvDllDlcPackageInfoList@@SAXPAX@Z	; CvDllDlcPackageInfoList::operator delete
	pop	ecx
	ret	0
__ehhandler$?GetDLCAvailable@CvDllPreGame@@UAGPAVICvEnumerator@@W4PlayerTypes@@@Z:
	mov	eax, OFFSET __ehfuncinfo$?GetDLCAvailable@CvDllPreGame@@UAGPAVICvEnumerator@@W4PlayerTypes@@@Z
	jmp	___CxxFrameHandler3
text$x	ENDS
?GetDLCAvailable@CvDllPreGame@@UAGPAVICvEnumerator@@W4PlayerTypes@@@Z ENDP ; CvDllPreGame::GetDLCAvailable
EXTRN	?pitBossTurnTime@CvPreGame@@YAHXZ:PROC		; CvPreGame::pitBossTurnTime
; Function compile flags: /Ogtpy
;	COMDAT ?pitBossTurnTime@CvDllPreGame@@UAGHXZ
_TEXT	SEGMENT
_this$ = 8						; size = 4
?pitBossTurnTime@CvDllPreGame@@UAGHXZ PROC		; CvDllPreGame::pitBossTurnTime, COMDAT

; 1132 : 	return CvPreGame::pitBossTurnTime();

	call	?pitBossTurnTime@CvPreGame@@YAHXZ	; CvPreGame::pitBossTurnTime

; 1133 : }

	ret	4
?pitBossTurnTime@CvDllPreGame@@UAGHXZ ENDP		; CvDllPreGame::pitBossTurnTime
_TEXT	ENDS
EXTRN	?setPitBossTurnTime@CvPreGame@@YAXH@Z:PROC	; CvPreGame::setPitBossTurnTime
; Function compile flags: /Ogtpy
;	COMDAT ?setPitBossTurnTime@CvDllPreGame@@UAGXH@Z
_TEXT	SEGMENT
_this$ = 8						; size = 4
_turnTime$ = 12						; size = 4
?setPitBossTurnTime@CvDllPreGame@@UAGXH@Z PROC		; CvDllPreGame::setPitBossTurnTime, COMDAT

; 1137 : 	CvPreGame::setPitBossTurnTime(turnTime);

	mov	eax, DWORD PTR _turnTime$[esp-4]
	push	eax
	call	?setPitBossTurnTime@CvPreGame@@YAXH@Z	; CvPreGame::setPitBossTurnTime
	pop	ecx

; 1138 : }

	ret	8
?setPitBossTurnTime@CvDllPreGame@@UAGXH@Z ENDP		; CvDllPreGame::setPitBossTurnTime
_TEXT	ENDS
EXTRN	?isTurnNotifySteamInvite@CvPreGame@@YA_NW4PlayerTypes@@@Z:PROC ; CvPreGame::isTurnNotifySteamInvite
; Function compile flags: /Ogtpy
;	COMDAT ?isTurnNotifySteamInvite@CvDllPreGame@@UBG_NW4PlayerTypes@@@Z
_TEXT	SEGMENT
_this$ = 8						; size = 4
_p$ = 12						; size = 4
?isTurnNotifySteamInvite@CvDllPreGame@@UBG_NW4PlayerTypes@@@Z PROC ; CvDllPreGame::isTurnNotifySteamInvite, COMDAT

; 1142 : 	return CvPreGame::isTurnNotifySteamInvite(p);

	mov	eax, DWORD PTR _p$[esp-4]
	push	eax
	call	?isTurnNotifySteamInvite@CvPreGame@@YA_NW4PlayerTypes@@@Z ; CvPreGame::isTurnNotifySteamInvite
	add	esp, 4

; 1143 : }

	ret	8
?isTurnNotifySteamInvite@CvDllPreGame@@UBG_NW4PlayerTypes@@@Z ENDP ; CvDllPreGame::isTurnNotifySteamInvite
_TEXT	ENDS
EXTRN	?setTurnNotifySteamInvite@CvPreGame@@YAXW4PlayerTypes@@_N@Z:PROC ; CvPreGame::setTurnNotifySteamInvite
; Function compile flags: /Ogtpy
;	COMDAT ?setTurnNotifySteamInvite@CvDllPreGame@@UAGXW4PlayerTypes@@_N@Z
_TEXT	SEGMENT
_this$ = 8						; size = 4
_p$ = 12						; size = 4
_wantsSteamInvite$ = 16					; size = 1
?setTurnNotifySteamInvite@CvDllPreGame@@UAGXW4PlayerTypes@@_N@Z PROC ; CvDllPreGame::setTurnNotifySteamInvite, COMDAT

; 1147 : 	CvPreGame::setTurnNotifySteamInvite(p, wantsSteamInvite);

	mov	eax, DWORD PTR _wantsSteamInvite$[esp-4]
	mov	ecx, DWORD PTR _p$[esp-4]
	push	eax
	push	ecx
	call	?setTurnNotifySteamInvite@CvPreGame@@YAXW4PlayerTypes@@_N@Z ; CvPreGame::setTurnNotifySteamInvite
	add	esp, 8

; 1148 : }

	ret	12					; 0000000cH
?setTurnNotifySteamInvite@CvDllPreGame@@UAGXW4PlayerTypes@@_N@Z ENDP ; CvDllPreGame::setTurnNotifySteamInvite
_TEXT	ENDS
EXTRN	?isTurnNotifyEmail@CvPreGame@@YA_NW4PlayerTypes@@@Z:PROC ; CvPreGame::isTurnNotifyEmail
; Function compile flags: /Ogtpy
;	COMDAT ?isTurnNotifyEmail@CvDllPreGame@@UBG_NW4PlayerTypes@@@Z
_TEXT	SEGMENT
_this$ = 8						; size = 4
_p$ = 12						; size = 4
?isTurnNotifyEmail@CvDllPreGame@@UBG_NW4PlayerTypes@@@Z PROC ; CvDllPreGame::isTurnNotifyEmail, COMDAT

; 1152 : 	return CvPreGame::isTurnNotifyEmail(p);

	mov	eax, DWORD PTR _p$[esp-4]
	push	eax
	call	?isTurnNotifyEmail@CvPreGame@@YA_NW4PlayerTypes@@@Z ; CvPreGame::isTurnNotifyEmail
	add	esp, 4

; 1153 : }

	ret	8
?isTurnNotifyEmail@CvDllPreGame@@UBG_NW4PlayerTypes@@@Z ENDP ; CvDllPreGame::isTurnNotifyEmail
_TEXT	ENDS
EXTRN	?setTurnNotifyEmail@CvPreGame@@YAXW4PlayerTypes@@_N@Z:PROC ; CvPreGame::setTurnNotifyEmail
; Function compile flags: /Ogtpy
;	COMDAT ?setTurnNotifyEmail@CvDllPreGame@@UAGXW4PlayerTypes@@_N@Z
_TEXT	SEGMENT
_this$ = 8						; size = 4
_p$ = 12						; size = 4
_wantsEmail$ = 16					; size = 1
?setTurnNotifyEmail@CvDllPreGame@@UAGXW4PlayerTypes@@_N@Z PROC ; CvDllPreGame::setTurnNotifyEmail, COMDAT

; 1157 : 	CvPreGame::setTurnNotifyEmail(p, wantsEmail);

	mov	eax, DWORD PTR _wantsEmail$[esp-4]
	mov	ecx, DWORD PTR _p$[esp-4]
	push	eax
	push	ecx
	call	?setTurnNotifyEmail@CvPreGame@@YAXW4PlayerTypes@@_N@Z ; CvPreGame::setTurnNotifyEmail
	add	esp, 8

; 1158 : }

	ret	12					; 0000000cH
?setTurnNotifyEmail@CvDllPreGame@@UAGXW4PlayerTypes@@_N@Z ENDP ; CvDllPreGame::setTurnNotifyEmail
_TEXT	ENDS
EXTRN	?getTurnNotifyEmailAddress@CvPreGame@@YAABVCvString@@W4PlayerTypes@@@Z:PROC ; CvPreGame::getTurnNotifyEmailAddress
; Function compile flags: /Ogtpy
;	COMDAT ?getTurnNotifyEmailAddress@CvDllPreGame@@UBGABVCvString@@W4PlayerTypes@@@Z
_TEXT	SEGMENT
_this$ = 8						; size = 4
_p$ = 12						; size = 4
?getTurnNotifyEmailAddress@CvDllPreGame@@UBGABVCvString@@W4PlayerTypes@@@Z PROC ; CvDllPreGame::getTurnNotifyEmailAddress, COMDAT

; 1162 : 	return CvPreGame::getTurnNotifyEmailAddress(p);

	mov	eax, DWORD PTR _p$[esp-4]
	push	eax
	call	?getTurnNotifyEmailAddress@CvPreGame@@YAABVCvString@@W4PlayerTypes@@@Z ; CvPreGame::getTurnNotifyEmailAddress
	add	esp, 4

; 1163 : }

	ret	8
?getTurnNotifyEmailAddress@CvDllPreGame@@UBGABVCvString@@W4PlayerTypes@@@Z ENDP ; CvDllPreGame::getTurnNotifyEmailAddress
_TEXT	ENDS
EXTRN	?setTurnNotifyEmailAddress@CvPreGame@@YAXW4PlayerTypes@@ABVCvString@@@Z:PROC ; CvPreGame::setTurnNotifyEmailAddress
; Function compile flags: /Ogtpy
;	COMDAT ?setTurnNotifyEmailAddress@CvDllPreGame@@UAGXW4PlayerTypes@@ABVCvString@@@Z
_TEXT	SEGMENT
_this$ = 8						; size = 4
_p$ = 12						; size = 4
_emailAddress$ = 16					; size = 4
?setTurnNotifyEmailAddress@CvDllPreGame@@UAGXW4PlayerTypes@@ABVCvString@@@Z PROC ; CvDllPreGame::setTurnNotifyEmailAddress, COMDAT

; 1167 : 	CvPreGame::setTurnNotifyEmailAddress(p, emailAddress);

	mov	eax, DWORD PTR _emailAddress$[esp-4]
	mov	ecx, DWORD PTR _p$[esp-4]
	push	eax
	push	ecx
	call	?setTurnNotifyEmailAddress@CvPreGame@@YAXW4PlayerTypes@@ABVCvString@@@Z ; CvPreGame::setTurnNotifyEmailAddress
	add	esp, 8

; 1168 : }

	ret	12					; 0000000cH
?setTurnNotifyEmailAddress@CvDllPreGame@@UAGXW4PlayerTypes@@ABVCvString@@@Z ENDP ; CvDllPreGame::setTurnNotifyEmailAddress
_TEXT	ENDS
EXTRN	?VerifyHandicap@CvPreGame@@YAXW4PlayerTypes@@@Z:PROC ; CvPreGame::VerifyHandicap
; Function compile flags: /Ogtpy
;	COMDAT ?VerifyHandicap@CvDllPreGame@@UAGXW4PlayerTypes@@@Z
_TEXT	SEGMENT
_this$ = 8						; size = 4
_p$ = 12						; size = 4
?VerifyHandicap@CvDllPreGame@@UAGXW4PlayerTypes@@@Z PROC ; CvDllPreGame::VerifyHandicap, COMDAT

; 1172 : 	CvPreGame::VerifyHandicap(p);

	mov	eax, DWORD PTR _p$[esp-4]
	push	eax
	call	?VerifyHandicap@CvPreGame@@YAXW4PlayerTypes@@@Z ; CvPreGame::VerifyHandicap
	pop	ecx

; 1173 : }

	ret	8
?VerifyHandicap@CvDllPreGame@@UAGXW4PlayerTypes@@@Z ENDP ; CvDllPreGame::VerifyHandicap
_TEXT	ENDS
EXTRN	?ReseatConnectedPlayers@CvPreGame@@YAXXZ:PROC	; CvPreGame::ReseatConnectedPlayers
; Function compile flags: /Ogtpy
;	COMDAT ?ReseatConnectedPlayers@CvDllPreGame@@UAGXXZ
_TEXT	SEGMENT
_this$ = 8						; size = 4
?ReseatConnectedPlayers@CvDllPreGame@@UAGXXZ PROC	; CvDllPreGame::ReseatConnectedPlayers, COMDAT

; 1177 : 	CvPreGame::ReseatConnectedPlayers();

	call	?ReseatConnectedPlayers@CvPreGame@@YAXXZ ; CvPreGame::ReseatConnectedPlayers

; 1178 : }

	ret	4
?ReseatConnectedPlayers@CvDllPreGame@@UAGXXZ ENDP	; CvDllPreGame::ReseatConnectedPlayers
_TEXT	ENDS
PUBLIC	?size@?$vector@VCustomOption@CvPreGame@@V?$allocator@VCustomOption@CvPreGame@@@std@@@std@@QBEIXZ ; std::vector<CvPreGame::CustomOption,std::allocator<CvPreGame::CustomOption> >::size
; Function compile flags: /Ogtpy
; File c:\program files (x86)\microsoft visual studio 9.0\vc\include\vector
;	COMDAT ?size@?$vector@VCustomOption@CvPreGame@@V?$allocator@VCustomOption@CvPreGame@@@std@@@std@@QBEIXZ
_TEXT	SEGMENT
?size@?$vector@VCustomOption@CvPreGame@@V?$allocator@VCustomOption@CvPreGame@@@std@@@std@@QBEIXZ PROC ; std::vector<CvPreGame::CustomOption,std::allocator<CvPreGame::CustomOption> >::size, COMDAT
; _this$ = ecx

; 726  : 		return (_Mylast - _Myfirst);

	mov	edx, DWORD PTR [ecx+8]
	sub	edx, DWORD PTR [ecx+4]
	mov	eax, 2021161081				; 78787879H
	imul	edx
	sar	edx, 5
	mov	eax, edx
	shr	eax, 31					; 0000001fH
	add	eax, edx

; 727  : 		}

	ret	0
?size@?$vector@VCustomOption@CvPreGame@@V?$allocator@VCustomOption@CvPreGame@@@std@@@std@@QBEIXZ ENDP ; std::vector<CvPreGame::CustomOption,std::allocator<CvPreGame::CustomOption> >::size
_TEXT	ENDS
PUBLIC	??A?$vector@VCustomOption@CvPreGame@@V?$allocator@VCustomOption@CvPreGame@@@std@@@std@@QBEABVCustomOption@CvPreGame@@I@Z ; std::vector<CvPreGame::CustomOption,std::allocator<CvPreGame::CustomOption> >::operator[]
; Function compile flags: /Ogtpy
;	COMDAT ??A?$vector@VCustomOption@CvPreGame@@V?$allocator@VCustomOption@CvPreGame@@@std@@@std@@QBEABVCustomOption@CvPreGame@@I@Z
_TEXT	SEGMENT
__Pos$ = 8						; size = 4
??A?$vector@VCustomOption@CvPreGame@@V?$allocator@VCustomOption@CvPreGame@@@std@@@std@@QBEABVCustomOption@CvPreGame@@I@Z PROC ; std::vector<CvPreGame::CustomOption,std::allocator<CvPreGame::CustomOption> >::operator[], COMDAT
; _this$ = ecx

; 760  : 
; 761  :  #if _HAS_ITERATOR_DEBUGGING
; 762  : 		if (size() <= _Pos)
; 763  : 			{
; 764  : 			_DEBUG_ERROR("vector subscript out of range");
; 765  : 			_SCL_SECURE_OUT_OF_RANGE;
; 766  : 			}
; 767  :  #endif /* _HAS_ITERATOR_DEBUGGING */
; 768  : 		_SCL_SECURE_VALIDATE_RANGE(_Pos < size());
; 769  : 
; 770  : 		return (*(_Myfirst + _Pos));

	mov	eax, DWORD PTR __Pos$[esp-4]
	mov	edx, eax
	shl	edx, 4
	add	edx, eax
	mov	eax, DWORD PTR [ecx+4]
	lea	eax, DWORD PTR [eax+edx*4]

; 771  : 		}

	ret	4
??A?$vector@VCustomOption@CvPreGame@@V?$allocator@VCustomOption@CvPreGame@@@std@@@std@@QBEABVCustomOption@CvPreGame@@I@Z ENDP ; std::vector<CvPreGame::CustomOption,std::allocator<CvPreGame::CustomOption> >::operator[]
_TEXT	ENDS
PUBLIC	??0?$auto_ptr@VICvDlcPackageInfo1@@@std@@QAE@PAVICvDlcPackageInfo1@@@Z ; std::auto_ptr<ICvDlcPackageInfo1>::auto_ptr<ICvDlcPackageInfo1>
; Function compile flags: /Ogtpy
; File c:\program files (x86)\microsoft visual studio 9.0\vc\include\memory
;	COMDAT ??0?$auto_ptr@VICvDlcPackageInfo1@@@std@@QAE@PAVICvDlcPackageInfo1@@@Z
_TEXT	SEGMENT
__Ptr$ = 8						; size = 4
??0?$auto_ptr@VICvDlcPackageInfo1@@@std@@QAE@PAVICvDlcPackageInfo1@@@Z PROC ; std::auto_ptr<ICvDlcPackageInfo1>::auto_ptr<ICvDlcPackageInfo1>, COMDAT
; _this$ = ecx

; 661  : 		{	// construct from object pointer

	mov	eax, ecx
	mov	ecx, DWORD PTR __Ptr$[esp-4]
	mov	DWORD PTR [eax], ecx

; 662  : 		}

	ret	4
??0?$auto_ptr@VICvDlcPackageInfo1@@@std@@QAE@PAVICvDlcPackageInfo1@@@Z ENDP ; std::auto_ptr<ICvDlcPackageInfo1>::auto_ptr<ICvDlcPackageInfo1>
_TEXT	ENDS
PUBLIC	?get@?$auto_ptr@VICvDlcPackageInfo1@@@std@@QBEPAVICvDlcPackageInfo1@@XZ ; std::auto_ptr<ICvDlcPackageInfo1>::get
; Function compile flags: /Ogtpy
;	COMDAT ?get@?$auto_ptr@VICvDlcPackageInfo1@@@std@@QBEPAVICvDlcPackageInfo1@@XZ
_TEXT	SEGMENT
?get@?$auto_ptr@VICvDlcPackageInfo1@@@std@@QBEPAVICvDlcPackageInfo1@@XZ PROC ; std::auto_ptr<ICvDlcPackageInfo1>::get, COMDAT
; _this$ = ecx

; 750  : 		return (_Myptr);

	mov	eax, DWORD PTR [ecx]

; 751  : 		}

	ret	0
?get@?$auto_ptr@VICvDlcPackageInfo1@@@std@@QBEPAVICvDlcPackageInfo1@@XZ ENDP ; std::auto_ptr<ICvDlcPackageInfo1>::get
_TEXT	ENDS
PUBLIC	??0?$auto_ptr@VICvEnumerator@@@std@@QAE@PAVICvEnumerator@@@Z ; std::auto_ptr<ICvEnumerator>::auto_ptr<ICvEnumerator>
; Function compile flags: /Ogtpy
;	COMDAT ??0?$auto_ptr@VICvEnumerator@@@std@@QAE@PAVICvEnumerator@@@Z
_TEXT	SEGMENT
__Ptr$ = 8						; size = 4
??0?$auto_ptr@VICvEnumerator@@@std@@QAE@PAVICvEnumerator@@@Z PROC ; std::auto_ptr<ICvEnumerator>::auto_ptr<ICvEnumerator>, COMDAT
; _this$ = ecx

; 661  : 		{	// construct from object pointer

	mov	eax, ecx
	mov	ecx, DWORD PTR __Ptr$[esp-4]
	mov	DWORD PTR [eax], ecx

; 662  : 		}

	ret	4
??0?$auto_ptr@VICvEnumerator@@@std@@QAE@PAVICvEnumerator@@@Z ENDP ; std::auto_ptr<ICvEnumerator>::auto_ptr<ICvEnumerator>
_TEXT	ENDS
PUBLIC	?get@?$auto_ptr@VICvEnumerator@@@std@@QBEPAVICvEnumerator@@XZ ; std::auto_ptr<ICvEnumerator>::get
; Function compile flags: /Ogtpy
;	COMDAT ?get@?$auto_ptr@VICvEnumerator@@@std@@QBEPAVICvEnumerator@@XZ
_TEXT	SEGMENT
?get@?$auto_ptr@VICvEnumerator@@@std@@QBEPAVICvEnumerator@@XZ PROC ; std::auto_ptr<ICvEnumerator>::get, COMDAT
; _this$ = ecx

; 750  : 		return (_Myptr);

	mov	eax, DWORD PTR [ecx]

; 751  : 		}

	ret	0
?get@?$auto_ptr@VICvEnumerator@@@std@@QBEPAVICvEnumerator@@XZ ENDP ; std::auto_ptr<ICvEnumerator>::get
_TEXT	ENDS
PUBLIC	??1?$_Container_base_aux_alloc_empty@V?$allocator@U_GUID@@@std@@@std@@IAE@XZ ; std::_Container_base_aux_alloc_empty<std::allocator<_GUID> >::~_Container_base_aux_alloc_empty<std::allocator<_GUID> >
; Function compile flags: /Ogtpy
; File c:\program files (x86)\microsoft visual studio 9.0\vc\include\xutility
;	COMDAT ??1?$_Container_base_aux_alloc_empty@V?$allocator@U_GUID@@@std@@@std@@IAE@XZ
_TEXT	SEGMENT
??1?$_Container_base_aux_alloc_empty@V?$allocator@U_GUID@@@std@@@std@@IAE@XZ PROC ; std::_Container_base_aux_alloc_empty<std::allocator<_GUID> >::~_Container_base_aux_alloc_empty<std::allocator<_GUID> >, COMDAT
; _this$ = ecx

; 627  : 	~_Container_base_aux_alloc_empty() { }

	ret	0
??1?$_Container_base_aux_alloc_empty@V?$allocator@U_GUID@@@std@@@std@@IAE@XZ ENDP ; std::_Container_base_aux_alloc_empty<std::allocator<_GUID> >::~_Container_base_aux_alloc_empty<std::allocator<_GUID> >
_TEXT	ENDS
PUBLIC	??0?$allocator@U_GUID@@@std@@QAE@XZ		; std::allocator<_GUID>::allocator<_GUID>
; Function compile flags: /Ogtpy
; File c:\program files (x86)\microsoft visual studio 9.0\vc\include\xmemory
;	COMDAT ??0?$allocator@U_GUID@@@std@@QAE@XZ
_TEXT	SEGMENT
??0?$allocator@U_GUID@@@std@@QAE@XZ PROC		; std::allocator<_GUID>::allocator<_GUID>, COMDAT
; _this$ = ecx

; 119  : 	allocator() _THROW0()

	mov	eax, ecx

; 120  : 		{	// construct default allocator (do nothing)
; 121  : 		}

	ret	0
??0?$allocator@U_GUID@@@std@@QAE@XZ ENDP		; std::allocator<_GUID>::allocator<_GUID>
_TEXT	ENDS
PUBLIC	??0?$auto_ptr@VICvUnknown@@@std@@QAE@PAVICvUnknown@@@Z ; std::auto_ptr<ICvUnknown>::auto_ptr<ICvUnknown>
; Function compile flags: /Ogtpy
; File c:\program files (x86)\microsoft visual studio 9.0\vc\include\memory
;	COMDAT ??0?$auto_ptr@VICvUnknown@@@std@@QAE@PAVICvUnknown@@@Z
_TEXT	SEGMENT
__Ptr$ = 8						; size = 4
??0?$auto_ptr@VICvUnknown@@@std@@QAE@PAVICvUnknown@@@Z PROC ; std::auto_ptr<ICvUnknown>::auto_ptr<ICvUnknown>, COMDAT
; _this$ = ecx

; 661  : 		{	// construct from object pointer

	mov	eax, ecx
	mov	ecx, DWORD PTR __Ptr$[esp-4]
	mov	DWORD PTR [eax], ecx

; 662  : 		}

	ret	4
??0?$auto_ptr@VICvUnknown@@@std@@QAE@PAVICvUnknown@@@Z ENDP ; std::auto_ptr<ICvUnknown>::auto_ptr<ICvUnknown>
_TEXT	ENDS
PUBLIC	?get@?$auto_ptr@VICvUnknown@@@std@@QBEPAVICvUnknown@@XZ ; std::auto_ptr<ICvUnknown>::get
; Function compile flags: /Ogtpy
;	COMDAT ?get@?$auto_ptr@VICvUnknown@@@std@@QBEPAVICvUnknown@@XZ
_TEXT	SEGMENT
?get@?$auto_ptr@VICvUnknown@@@std@@QBEPAVICvUnknown@@XZ PROC ; std::auto_ptr<ICvUnknown>::get, COMDAT
; _this$ = ecx

; 750  : 		return (_Myptr);

	mov	eax, DWORD PTR [ecx]

; 751  : 		}

	ret	0
?get@?$auto_ptr@VICvUnknown@@@std@@QBEPAVICvUnknown@@XZ ENDP ; std::auto_ptr<ICvUnknown>::get
_TEXT	ENDS
PUBLIC	??0?$allocator@U_GUID@@@std@@QAE@ABV01@@Z	; std::allocator<_GUID>::allocator<_GUID>
; Function compile flags: /Ogtpy
; File c:\program files (x86)\microsoft visual studio 9.0\vc\include\xmemory
;	COMDAT ??0?$allocator@U_GUID@@@std@@QAE@ABV01@@Z
_TEXT	SEGMENT
___formal$ = 8						; size = 4
??0?$allocator@U_GUID@@@std@@QAE@ABV01@@Z PROC		; std::allocator<_GUID>::allocator<_GUID>, COMDAT
; _this$ = ecx

; 123  : 	allocator(const allocator<_Ty>&) _THROW0()

	mov	eax, ecx

; 124  : 		{	// construct by copying (do nothing)
; 125  : 		}

	ret	4
??0?$allocator@U_GUID@@@std@@QAE@ABV01@@Z ENDP		; std::allocator<_GUID>::allocator<_GUID>
_TEXT	ENDS
PUBLIC	?_Nextnode@?$list@U_GUID@@V?$allocator@U_GUID@@@std@@@std@@KAAAPAU_Node@?$_List_nod@U_GUID@@V?$allocator@U_GUID@@@std@@@2@PAU342@@Z ; std::list<_GUID,std::allocator<_GUID> >::_Nextnode
; Function compile flags: /Ogtpy
; File c:\program files (x86)\microsoft visual studio 9.0\vc\include\list
;	COMDAT ?_Nextnode@?$list@U_GUID@@V?$allocator@U_GUID@@@std@@@std@@KAAAPAU_Node@?$_List_nod@U_GUID@@V?$allocator@U_GUID@@@std@@@2@PAU342@@Z
_TEXT	SEGMENT
__Pnode$ = 8						; size = 4
?_Nextnode@?$list@U_GUID@@V?$allocator@U_GUID@@@std@@@std@@KAAAPAU_Node@?$_List_nod@U_GUID@@V?$allocator@U_GUID@@@std@@@2@PAU342@@Z PROC ; std::list<_GUID,std::allocator<_GUID> >::_Nextnode, COMDAT

; 115  : 		return ((_Nodepref)(*_Pnode)._Next);

	mov	eax, DWORD PTR __Pnode$[esp-4]

; 116  : 		}

	ret	0
?_Nextnode@?$list@U_GUID@@V?$allocator@U_GUID@@@std@@@std@@KAAAPAU_Node@?$_List_nod@U_GUID@@V?$allocator@U_GUID@@@std@@@2@PAU342@@Z ENDP ; std::list<_GUID,std::allocator<_GUID> >::_Nextnode
_TEXT	ENDS
PUBLIC	?_Prevnode@?$list@U_GUID@@V?$allocator@U_GUID@@@std@@@std@@KAAAPAU_Node@?$_List_nod@U_GUID@@V?$allocator@U_GUID@@@std@@@2@PAU342@@Z ; std::list<_GUID,std::allocator<_GUID> >::_Prevnode
; Function compile flags: /Ogtpy
;	COMDAT ?_Prevnode@?$list@U_GUID@@V?$allocator@U_GUID@@@std@@@std@@KAAAPAU_Node@?$_List_nod@U_GUID@@V?$allocator@U_GUID@@@std@@@2@PAU342@@Z
_TEXT	SEGMENT
__Pnode$ = 8						; size = 4
?_Prevnode@?$list@U_GUID@@V?$allocator@U_GUID@@@std@@@std@@KAAAPAU_Node@?$_List_nod@U_GUID@@V?$allocator@U_GUID@@@std@@@2@PAU342@@Z PROC ; std::list<_GUID,std::allocator<_GUID> >::_Prevnode, COMDAT

; 120  : 		return ((_Nodepref)(*_Pnode)._Prev);

	mov	eax, DWORD PTR __Pnode$[esp-4]
	add	eax, 4

; 121  : 		}

	ret	0
?_Prevnode@?$list@U_GUID@@V?$allocator@U_GUID@@@std@@@std@@KAAAPAU_Node@?$_List_nod@U_GUID@@V?$allocator@U_GUID@@@std@@@2@PAU342@@Z ENDP ; std::list<_GUID,std::allocator<_GUID> >::_Prevnode
_TEXT	ENDS
PUBLIC	?deallocate@?$allocator@U_Node@?$_List_nod@U_GUID@@V?$allocator@U_GUID@@@std@@@std@@@std@@QAEXPAU_Node@?$_List_nod@U_GUID@@V?$allocator@U_GUID@@@std@@@2@I@Z ; std::allocator<std::_List_nod<_GUID,std::allocator<_GUID> >::_Node>::deallocate
; Function compile flags: /Ogtpy
; File c:\program files (x86)\microsoft visual studio 9.0\vc\include\xmemory
;	COMDAT ?deallocate@?$allocator@U_Node@?$_List_nod@U_GUID@@V?$allocator@U_GUID@@@std@@@std@@@std@@QAEXPAU_Node@?$_List_nod@U_GUID@@V?$allocator@U_GUID@@@std@@@2@I@Z
_TEXT	SEGMENT
__Ptr$ = 8						; size = 4
___formal$ = 12						; size = 4
?deallocate@?$allocator@U_Node@?$_List_nod@U_GUID@@V?$allocator@U_GUID@@@std@@@std@@@std@@QAEXPAU_Node@?$_List_nod@U_GUID@@V?$allocator@U_GUID@@@std@@@2@I@Z PROC ; std::allocator<std::_List_nod<_GUID,std::allocator<_GUID> >::_Node>::deallocate, COMDAT
; _this$ = ecx

; 140  : 		::operator delete(_Ptr);

	mov	eax, DWORD PTR __Ptr$[esp-4]
	push	eax
	call	??3@YAXPAX@Z				; operator delete
	pop	ecx

; 141  : 		}

	ret	8
?deallocate@?$allocator@U_Node@?$_List_nod@U_GUID@@V?$allocator@U_GUID@@@std@@@std@@@std@@QAEXPAU_Node@?$_List_nod@U_GUID@@V?$allocator@U_GUID@@@std@@@2@I@Z ENDP ; std::allocator<std::_List_nod<_GUID,std::allocator<_GUID> >::_Node>::deallocate
_TEXT	ENDS
PUBLIC	?_Mynode@?$_Const_iterator@$0A@@?$list@U_GUID@@V?$allocator@U_GUID@@@std@@@std@@QBEPAU_Node@?$_List_nod@U_GUID@@V?$allocator@U_GUID@@@std@@@3@XZ ; std::list<_GUID,std::allocator<_GUID> >::_Const_iterator<0>::_Mynode
; Function compile flags: /Ogtpy
; File c:\program files (x86)\microsoft visual studio 9.0\vc\include\list
;	COMDAT ?_Mynode@?$_Const_iterator@$0A@@?$list@U_GUID@@V?$allocator@U_GUID@@@std@@@std@@QBEPAU_Node@?$_List_nod@U_GUID@@V?$allocator@U_GUID@@@std@@@3@XZ
_TEXT	SEGMENT
?_Mynode@?$_Const_iterator@$0A@@?$list@U_GUID@@V?$allocator@U_GUID@@@std@@@std@@QBEPAU_Node@?$_List_nod@U_GUID@@V?$allocator@U_GUID@@@std@@@3@XZ PROC ; std::list<_GUID,std::allocator<_GUID> >::_Const_iterator<0>::_Mynode, COMDAT
; _this$ = ecx

; 308  : 			return (_Ptr);

	mov	eax, DWORD PTR [ecx]

; 309  : 			}

	ret	0
?_Mynode@?$_Const_iterator@$0A@@?$list@U_GUID@@V?$allocator@U_GUID@@@std@@@std@@QBEPAU_Node@?$_List_nod@U_GUID@@V?$allocator@U_GUID@@@std@@@3@XZ ENDP ; std::list<_GUID,std::allocator<_GUID> >::_Const_iterator<0>::_Mynode
_TEXT	ENDS
PUBLIC	?_Myval@?$list@U_GUID@@V?$allocator@U_GUID@@@std@@@std@@KAAAU_GUID@@PAU_Node@?$_List_nod@U_GUID@@V?$allocator@U_GUID@@@std@@@2@@Z ; std::list<_GUID,std::allocator<_GUID> >::_Myval
; Function compile flags: /Ogtpy
;	COMDAT ?_Myval@?$list@U_GUID@@V?$allocator@U_GUID@@@std@@@std@@KAAAU_GUID@@PAU_Node@?$_List_nod@U_GUID@@V?$allocator@U_GUID@@@std@@@2@@Z
_TEXT	SEGMENT
__Pnode$ = 8						; size = 4
?_Myval@?$list@U_GUID@@V?$allocator@U_GUID@@@std@@@std@@KAAAU_GUID@@PAU_Node@?$_List_nod@U_GUID@@V?$allocator@U_GUID@@@std@@@2@@Z PROC ; std::list<_GUID,std::allocator<_GUID> >::_Myval, COMDAT

; 125  : 		return ((_Vref)(*_Pnode)._Myval);

	mov	eax, DWORD PTR __Pnode$[esp-4]
	add	eax, 8

; 126  : 		}

	ret	0
?_Myval@?$list@U_GUID@@V?$allocator@U_GUID@@@std@@@std@@KAAAU_GUID@@PAU_Node@?$_List_nod@U_GUID@@V?$allocator@U_GUID@@@std@@@2@@Z ENDP ; std::list<_GUID,std::allocator<_GUID> >::_Myval
_TEXT	ENDS
PUBLIC	??0?$_Const_iterator@$0A@@?$list@U_GUID@@V?$allocator@U_GUID@@@std@@@std@@QAE@PAU_Node@?$_List_nod@U_GUID@@V?$allocator@U_GUID@@@std@@@2@@Z ; std::list<_GUID,std::allocator<_GUID> >::_Const_iterator<0>::_Const_iterator<0>
; Function compile flags: /Ogtpy
;	COMDAT ??0?$_Const_iterator@$0A@@?$list@U_GUID@@V?$allocator@U_GUID@@@std@@@std@@QAE@PAU_Node@?$_List_nod@U_GUID@@V?$allocator@U_GUID@@@std@@@2@@Z
_TEXT	SEGMENT
__Pnode$ = 8						; size = 4
??0?$_Const_iterator@$0A@@?$list@U_GUID@@V?$allocator@U_GUID@@@std@@@std@@QAE@PAU_Node@?$_List_nod@U_GUID@@V?$allocator@U_GUID@@@std@@@2@@Z PROC ; std::list<_GUID,std::allocator<_GUID> >::_Const_iterator<0>::_Const_iterator<0>, COMDAT
; _this$ = ecx

; 184  : 			{	// construct with node pointer _Pnode

	mov	eax, ecx
	mov	ecx, DWORD PTR __Pnode$[esp-4]
	mov	DWORD PTR [eax], ecx

; 185  : 			}

	ret	4
??0?$_Const_iterator@$0A@@?$list@U_GUID@@V?$allocator@U_GUID@@@std@@@std@@QAE@PAU_Node@?$_List_nod@U_GUID@@V?$allocator@U_GUID@@@std@@@2@@Z ENDP ; std::list<_GUID,std::allocator<_GUID> >::_Const_iterator<0>::_Const_iterator<0>
_TEXT	ENDS
PUBLIC	??0?$_Container_base_aux_alloc_empty@V?$allocator@U_GUID@@@std@@@std@@IAE@V?$allocator@U_GUID@@@1@@Z ; std::_Container_base_aux_alloc_empty<std::allocator<_GUID> >::_Container_base_aux_alloc_empty<std::allocator<_GUID> >
; Function compile flags: /Ogtpy
; File c:\program files (x86)\microsoft visual studio 9.0\vc\include\xutility
;	COMDAT ??0?$_Container_base_aux_alloc_empty@V?$allocator@U_GUID@@@std@@@std@@IAE@V?$allocator@U_GUID@@@1@@Z
_TEXT	SEGMENT
___formal$ = 8						; size = 1
??0?$_Container_base_aux_alloc_empty@V?$allocator@U_GUID@@@std@@@std@@IAE@V?$allocator@U_GUID@@@1@@Z PROC ; std::_Container_base_aux_alloc_empty<std::allocator<_GUID> >::_Container_base_aux_alloc_empty<std::allocator<_GUID> >, COMDAT
; _this$ = ecx

; 618  : 	explicit _Container_base_aux_alloc_empty(_Alloc) { }

	mov	eax, ecx
	ret	4
??0?$_Container_base_aux_alloc_empty@V?$allocator@U_GUID@@@std@@@std@@IAE@V?$allocator@U_GUID@@@1@@Z ENDP ; std::_Container_base_aux_alloc_empty<std::allocator<_GUID> >::_Container_base_aux_alloc_empty<std::allocator<_GUID> >
_TEXT	ENDS
PUBLIC	?max_size@?$allocator@U_GUID@@@std@@QBEIXZ	; std::allocator<_GUID>::max_size
; Function compile flags: /Ogtpy
; File c:\program files (x86)\microsoft visual studio 9.0\vc\include\xmemory
;	COMDAT ?max_size@?$allocator@U_GUID@@@std@@QBEIXZ
_TEXT	SEGMENT
?max_size@?$allocator@U_GUID@@@std@@QBEIXZ PROC		; std::allocator<_GUID>::max_size, COMDAT
; _this$ = ecx

; 165  : 		_SIZT _Count = (_SIZT)(-1) / sizeof (_Ty);
; 166  : 		return (0 < _Count ? _Count : 1);

	mov	eax, 268435455				; 0fffffffH

; 167  : 		}

	ret	0
?max_size@?$allocator@U_GUID@@@std@@QBEIXZ ENDP		; std::allocator<_GUID>::max_size
_TEXT	ENDS
PUBLIC	??$?0U_GUID@@@?$allocator@PAU_Node@?$_List_nod@U_GUID@@V?$allocator@U_GUID@@@std@@@std@@@std@@QAE@ABV?$allocator@U_GUID@@@1@@Z ; std::allocator<std::_List_nod<_GUID,std::allocator<_GUID> >::_Node *>::allocator<std::_List_nod<_GUID,std::allocator<_GUID> >::_Node *><_GUID>
; Function compile flags: /Ogtpy
;	COMDAT ??$?0U_GUID@@@?$allocator@PAU_Node@?$_List_nod@U_GUID@@V?$allocator@U_GUID@@@std@@@std@@@std@@QAE@ABV?$allocator@U_GUID@@@1@@Z
_TEXT	SEGMENT
___formal$ = 8						; size = 4
??$?0U_GUID@@@?$allocator@PAU_Node@?$_List_nod@U_GUID@@V?$allocator@U_GUID@@@std@@@std@@@std@@QAE@ABV?$allocator@U_GUID@@@1@@Z PROC ; std::allocator<std::_List_nod<_GUID,std::allocator<_GUID> >::_Node *>::allocator<std::_List_nod<_GUID,std::allocator<_GUID> >::_Node *><_GUID>, COMDAT
; _this$ = ecx

; 128  : 		allocator(const allocator<_Other>&) _THROW0()

	mov	eax, ecx

; 129  : 		{	// construct from a related allocator (do nothing)
; 130  : 		}

	ret	4
??$?0U_GUID@@@?$allocator@PAU_Node@?$_List_nod@U_GUID@@V?$allocator@U_GUID@@@std@@@std@@@std@@QAE@ABV?$allocator@U_GUID@@@1@@Z ENDP ; std::allocator<std::_List_nod<_GUID,std::allocator<_GUID> >::_Node *>::allocator<std::_List_nod<_GUID,std::allocator<_GUID> >::_Node *><_GUID>
_TEXT	ENDS
PUBLIC	__TI2?AVbad_alloc@std@@
PUBLIC	??$_Allocate@U_Node@?$_List_nod@U_GUID@@V?$allocator@U_GUID@@@std@@@std@@@std@@YAPAU_Node@?$_List_nod@U_GUID@@V?$allocator@U_GUID@@@std@@@0@IPAU120@@Z ; std::_Allocate<std::_List_nod<_GUID,std::allocator<_GUID> >::_Node>
PUBLIC	__CTA2?AVbad_alloc@std@@
PUBLIC	__CT??_R0?AVbad_alloc@std@@@8??0bad_alloc@std@@QAE@ABV01@@Z12
PUBLIC	??0bad_alloc@std@@QAE@ABV01@@Z			; std::bad_alloc::bad_alloc
PUBLIC	__CT??_R0?AVexception@std@@@8??0exception@std@@QAE@ABV01@@Z12
EXTRN	??2@YAPAXI@Z:PROC				; operator new
EXTRN	__CxxThrowException@8:PROC
EXTRN	??0exception@std@@QAE@ABV01@@Z:PROC		; std::exception::exception
;	COMDAT __CT??_R0?AVexception@std@@@8??0exception@std@@QAE@ABV01@@Z12
; File c:\program files (x86)\microsoft visual studio 9.0\vc\include\exception
xdata$x	SEGMENT
__CT??_R0?AVexception@std@@@8??0exception@std@@QAE@ABV01@@Z12 DD 00H
	DD	FLAT:??_R0?AVexception@std@@@8
	DD	00H
	DD	0ffffffffH
	ORG $+4
	DD	0cH
	DD	FLAT:??0exception@std@@QAE@ABV01@@Z
xdata$x	ENDS
;	COMDAT __CT??_R0?AVbad_alloc@std@@@8??0bad_alloc@std@@QAE@ABV01@@Z12
xdata$x	SEGMENT
__CT??_R0?AVbad_alloc@std@@@8??0bad_alloc@std@@QAE@ABV01@@Z12 DD 00H
	DD	FLAT:??_R0?AVbad_alloc@std@@@8
	DD	00H
	DD	0ffffffffH
	ORG $+4
	DD	0cH
	DD	FLAT:??0bad_alloc@std@@QAE@ABV01@@Z
xdata$x	ENDS
;	COMDAT __CTA2?AVbad_alloc@std@@
xdata$x	SEGMENT
__CTA2?AVbad_alloc@std@@ DD 02H
	DD	FLAT:__CT??_R0?AVbad_alloc@std@@@8??0bad_alloc@std@@QAE@ABV01@@Z12
	DD	FLAT:__CT??_R0?AVexception@std@@@8??0exception@std@@QAE@ABV01@@Z12
xdata$x	ENDS
;	COMDAT __TI2?AVbad_alloc@std@@
xdata$x	SEGMENT
__TI2?AVbad_alloc@std@@ DD 00H
	DD	FLAT:??1bad_alloc@std@@UAE@XZ
	DD	00H
	DD	FLAT:__CTA2?AVbad_alloc@std@@
; Function compile flags: /Ogtpy
; File c:\program files (x86)\microsoft visual studio 9.0\vc\include\xmemory
xdata$x	ENDS
;	COMDAT ??$_Allocate@U_Node@?$_List_nod@U_GUID@@V?$allocator@U_GUID@@@std@@@std@@@std@@YAPAU_Node@?$_List_nod@U_GUID@@V?$allocator@U_GUID@@@std@@@0@IPAU120@@Z
_TEXT	SEGMENT
$T222546 = -12						; size = 12
$T222551 = 8						; size = 4
__Count$ = 8						; size = 4
___formal$ = 12						; size = 4
??$_Allocate@U_Node@?$_List_nod@U_GUID@@V?$allocator@U_GUID@@@std@@@std@@@std@@YAPAU_Node@?$_List_nod@U_GUID@@V?$allocator@U_GUID@@@std@@@0@IPAU120@@Z PROC ; std::_Allocate<std::_List_nod<_GUID,std::allocator<_GUID> >::_Node>, COMDAT

; 37   : 	if (_Count <= 0)

	mov	ecx, DWORD PTR __Count$[esp-4]
	sub	esp, 12					; 0000000cH
	test	ecx, ecx
	ja	SHORT $LN3@Allocate

; 38   : 		_Count = 0;

	xor	ecx, ecx
$LN1@Allocate:

; 41   : 
; 42   : 		// allocate storage for _Count elements of type _Ty
; 43   : 	return ((_Ty _FARQ *)::operator new(_Count * sizeof (_Ty)));

	lea	edx, DWORD PTR [ecx+ecx*2]
	add	edx, edx
	add	edx, edx
	add	edx, edx
	push	edx
	call	??2@YAPAXI@Z				; operator new
	add	esp, 4

; 44   : 	}

	add	esp, 12					; 0000000cH
	ret	0
$LN3@Allocate:

; 39   : 	else if (((_SIZT)(-1) / _Count) < sizeof (_Ty))

	or	eax, -1
	xor	edx, edx
	div	ecx
	cmp	eax, 24					; 00000018H
	jae	SHORT $LN1@Allocate

; 40   : 		_THROW_NCEE(std::bad_alloc, NULL);

	lea	eax, DWORD PTR $T222551[esp+8]
	push	eax
	lea	ecx, DWORD PTR $T222546[esp+16]
	mov	DWORD PTR $T222551[esp+12], 0
	call	DWORD PTR __imp_??0exception@std@@QAE@ABQBD@Z
	push	OFFSET __TI2?AVbad_alloc@std@@
	lea	ecx, DWORD PTR $T222546[esp+16]
	push	ecx
	mov	DWORD PTR $T222546[esp+20], OFFSET ??_7bad_alloc@std@@6B@
	call	__CxxThrowException@8
$LN9@Allocate:
$LN8@Allocate:
	int	3
??$_Allocate@U_Node@?$_List_nod@U_GUID@@V?$allocator@U_GUID@@@std@@@std@@@std@@YAPAU_Node@?$_List_nod@U_GUID@@V?$allocator@U_GUID@@@std@@@0@IPAU120@@Z ENDP ; std::_Allocate<std::_List_nod<_GUID,std::allocator<_GUID> >::_Node>
_TEXT	ENDS
PUBLIC	??$_Construct@PAU_Node@?$_List_nod@U_GUID@@V?$allocator@U_GUID@@@std@@@std@@PAU123@@std@@YAXPAPAU_Node@?$_List_nod@U_GUID@@V?$allocator@U_GUID@@@std@@@0@ABQAU120@@Z ; std::_Construct<std::_List_nod<_GUID,std::allocator<_GUID> >::_Node *,std::_List_nod<_GUID,std::allocator<_GUID> >::_Node *>
; Function compile flags: /Ogtpy
;	COMDAT ??$_Construct@PAU_Node@?$_List_nod@U_GUID@@V?$allocator@U_GUID@@@std@@@std@@PAU123@@std@@YAXPAPAU_Node@?$_List_nod@U_GUID@@V?$allocator@U_GUID@@@std@@@0@ABQAU120@@Z
_TEXT	SEGMENT
__Ptr$ = 8						; size = 4
__Val$ = 12						; size = 4
??$_Construct@PAU_Node@?$_List_nod@U_GUID@@V?$allocator@U_GUID@@@std@@@std@@PAU123@@std@@YAXPAPAU_Node@?$_List_nod@U_GUID@@V?$allocator@U_GUID@@@std@@@0@ABQAU120@@Z PROC ; std::_Construct<std::_List_nod<_GUID,std::allocator<_GUID> >::_Node *,std::_List_nod<_GUID,std::allocator<_GUID> >::_Node *>, COMDAT

; 51   : 	void _FARQ *_Vptr = _Ptr;
; 52   : 	::new (_Vptr) _T1(_Val);

	mov	eax, DWORD PTR __Ptr$[esp-4]
	test	eax, eax
	je	SHORT $LN3@Construct
	mov	ecx, DWORD PTR __Val$[esp-4]
	mov	edx, DWORD PTR [ecx]
	mov	DWORD PTR [eax], edx
$LN3@Construct:

; 53   : 	}

	ret	0
??$_Construct@PAU_Node@?$_List_nod@U_GUID@@V?$allocator@U_GUID@@@std@@@std@@PAU123@@std@@YAXPAPAU_Node@?$_List_nod@U_GUID@@V?$allocator@U_GUID@@@std@@@0@ABQAU120@@Z ENDP ; std::_Construct<std::_List_nod<_GUID,std::allocator<_GUID> >::_Node *,std::_List_nod<_GUID,std::allocator<_GUID> >::_Node *>
_TEXT	ENDS
PUBLIC	??$_Destroy@PAU_Node@?$_List_nod@U_GUID@@V?$allocator@U_GUID@@@std@@@std@@@std@@YAXPAPAU_Node@?$_List_nod@U_GUID@@V?$allocator@U_GUID@@@std@@@0@@Z ; std::_Destroy<std::_List_nod<_GUID,std::allocator<_GUID> >::_Node *>
; Function compile flags: /Ogtpy
;	COMDAT ??$_Destroy@PAU_Node@?$_List_nod@U_GUID@@V?$allocator@U_GUID@@@std@@@std@@@std@@YAXPAPAU_Node@?$_List_nod@U_GUID@@V?$allocator@U_GUID@@@std@@@0@@Z
_TEXT	SEGMENT
__Ptr$ = 8						; size = 4
??$_Destroy@PAU_Node@?$_List_nod@U_GUID@@V?$allocator@U_GUID@@@std@@@std@@@std@@YAXPAPAU_Node@?$_List_nod@U_GUID@@V?$allocator@U_GUID@@@std@@@0@@Z PROC ; std::_Destroy<std::_List_nod<_GUID,std::allocator<_GUID> >::_Node *>, COMDAT

; 59   : 	_DESTRUCTOR(_Ty, _Ptr);
; 60   : 	}

	ret	0
??$_Destroy@PAU_Node@?$_List_nod@U_GUID@@V?$allocator@U_GUID@@@std@@@std@@@std@@YAXPAPAU_Node@?$_List_nod@U_GUID@@V?$allocator@U_GUID@@@std@@@0@@Z ENDP ; std::_Destroy<std::_List_nod<_GUID,std::allocator<_GUID> >::_Node *>
_TEXT	ENDS
PUBLIC	??$_Construct@U_GUID@@U1@@std@@YAXPAU_GUID@@ABU1@@Z ; std::_Construct<_GUID,_GUID>
; Function compile flags: /Ogtpy
;	COMDAT ??$_Construct@U_GUID@@U1@@std@@YAXPAU_GUID@@ABU1@@Z
_TEXT	SEGMENT
__Ptr$ = 8						; size = 4
__Val$ = 12						; size = 4
??$_Construct@U_GUID@@U1@@std@@YAXPAU_GUID@@ABU1@@Z PROC ; std::_Construct<_GUID,_GUID>, COMDAT

; 51   : 	void _FARQ *_Vptr = _Ptr;
; 52   : 	::new (_Vptr) _T1(_Val);

	mov	eax, DWORD PTR __Ptr$[esp-4]
	test	eax, eax
	je	SHORT $LN3@Construct@2
	mov	ecx, DWORD PTR __Val$[esp-4]
	mov	edx, DWORD PTR [ecx]
	mov	DWORD PTR [eax], edx
	mov	edx, DWORD PTR [ecx+4]
	mov	DWORD PTR [eax+4], edx
	mov	edx, DWORD PTR [ecx+8]
	mov	DWORD PTR [eax+8], edx
	mov	ecx, DWORD PTR [ecx+12]
	mov	DWORD PTR [eax+12], ecx
$LN3@Construct@2:

; 53   : 	}

	ret	0
??$_Construct@U_GUID@@U1@@std@@YAXPAU_GUID@@ABU1@@Z ENDP ; std::_Construct<_GUID,_GUID>
_TEXT	ENDS
PUBLIC	??$?0U_GUID@@@?$allocator@U_Node@?$_List_nod@U_GUID@@V?$allocator@U_GUID@@@std@@@std@@@std@@QAE@ABV?$allocator@U_GUID@@@1@@Z ; std::allocator<std::_List_nod<_GUID,std::allocator<_GUID> >::_Node>::allocator<std::_List_nod<_GUID,std::allocator<_GUID> >::_Node><_GUID>
; Function compile flags: /Ogtpy
;	COMDAT ??$?0U_GUID@@@?$allocator@U_Node@?$_List_nod@U_GUID@@V?$allocator@U_GUID@@@std@@@std@@@std@@QAE@ABV?$allocator@U_GUID@@@1@@Z
_TEXT	SEGMENT
___formal$ = 8						; size = 4
??$?0U_GUID@@@?$allocator@U_Node@?$_List_nod@U_GUID@@V?$allocator@U_GUID@@@std@@@std@@@std@@QAE@ABV?$allocator@U_GUID@@@1@@Z PROC ; std::allocator<std::_List_nod<_GUID,std::allocator<_GUID> >::_Node>::allocator<std::_List_nod<_GUID,std::allocator<_GUID> >::_Node><_GUID>, COMDAT
; _this$ = ecx

; 128  : 		allocator(const allocator<_Other>&) _THROW0()

	mov	eax, ecx

; 129  : 		{	// construct from a related allocator (do nothing)
; 130  : 		}

	ret	4
??$?0U_GUID@@@?$allocator@U_Node@?$_List_nod@U_GUID@@V?$allocator@U_GUID@@@std@@@std@@@std@@QAE@ABV?$allocator@U_GUID@@@1@@Z ENDP ; std::allocator<std::_List_nod<_GUID,std::allocator<_GUID> >::_Node>::allocator<std::_List_nod<_GUID,std::allocator<_GUID> >::_Node><_GUID>
_TEXT	ENDS
PUBLIC	??$_Destroy@U_Node@?$_List_nod@U_GUID@@V?$allocator@U_GUID@@@std@@@std@@@std@@YAXPAU_Node@?$_List_nod@U_GUID@@V?$allocator@U_GUID@@@std@@@0@@Z ; std::_Destroy<std::_List_nod<_GUID,std::allocator<_GUID> >::_Node>
; Function compile flags: /Ogtpy
;	COMDAT ??$_Destroy@U_Node@?$_List_nod@U_GUID@@V?$allocator@U_GUID@@@std@@@std@@@std@@YAXPAU_Node@?$_List_nod@U_GUID@@V?$allocator@U_GUID@@@std@@@0@@Z
_TEXT	SEGMENT
__Ptr$ = 8						; size = 4
??$_Destroy@U_Node@?$_List_nod@U_GUID@@V?$allocator@U_GUID@@@std@@@std@@@std@@YAXPAU_Node@?$_List_nod@U_GUID@@V?$allocator@U_GUID@@@std@@@0@@Z PROC ; std::_Destroy<std::_List_nod<_GUID,std::allocator<_GUID> >::_Node>, COMDAT

; 59   : 	_DESTRUCTOR(_Ty, _Ptr);
; 60   : 	}

	ret	0
??$_Destroy@U_Node@?$_List_nod@U_GUID@@V?$allocator@U_GUID@@@std@@@std@@@std@@YAXPAU_Node@?$_List_nod@U_GUID@@V?$allocator@U_GUID@@@std@@@0@@Z ENDP ; std::_Destroy<std::_List_nod<_GUID,std::allocator<_GUID> >::_Node>
_TEXT	ENDS
PUBLIC	??_C@_00CNPNBAHC@?$AA@				; `string'
PUBLIC	??0CvString@@QAE@PBD@Z				; CvString::CvString
EXTRN	__imp_??0?$basic_string@DU?$char_traits@D@std@@V?$allocator@D@2@@std@@QAE@PBD@Z:PROC
;	COMDAT ??_C@_00CNPNBAHC@?$AA@
; File c:\users\enormousapplepie\documents\github\lekmod\lekmod_dll\cvgamecoredllutil\include\cvstring.h
CONST	SEGMENT
??_C@_00CNPNBAHC@?$AA@ DB 00H				; `string'
; Function compile flags: /Ogtpy
CONST	ENDS
;	COMDAT ??0CvString@@QAE@PBD@Z
_TEXT	SEGMENT
_s$ = 8							; size = 4
??0CvString@@QAE@PBD@Z PROC				; CvString::CvString, COMDAT
; _this$ = ecx

; 25   : 	CvString(const char* s) : std::string(s ? s : "") {CvAssertMsg(s != NULL, "Passing NULL to std::string; possible heap corruption!");}

	mov	eax, DWORD PTR _s$[esp-4]
	push	esi
	mov	esi, ecx
	test	eax, eax
	jne	SHORT $LN4@CvString
	mov	eax, OFFSET ??_C@_00CNPNBAHC@?$AA@
$LN4@CvString:
	push	eax
	call	DWORD PTR __imp_??0?$basic_string@DU?$char_traits@D@std@@V?$allocator@D@2@@std@@QAE@PBD@Z
	mov	eax, esi
	pop	esi
	ret	4
??0CvString@@QAE@PBD@Z ENDP				; CvString::CvString
_TEXT	ENDS
PUBLIC	??1CvString@@QAE@XZ				; CvString::~CvString
; Function compile flags: /Ogtpy
;	COMDAT ??1CvString@@QAE@XZ
_TEXT	SEGMENT
??1CvString@@QAE@XZ PROC				; CvString::~CvString, COMDAT
; _this$ = ecx

; 28   : 	~CvString() {}

	jmp	DWORD PTR __imp_??1?$basic_string@DU?$char_traits@D@std@@V?$allocator@D@2@@std@@QAE@XZ
??1CvString@@QAE@XZ ENDP				; CvString::~CvString
_TEXT	ENDS
PUBLIC	?GetInterfaceId@ICvUnknown@@SG?AU_GUID@@XZ	; ICvUnknown::GetInterfaceId
; Function compile flags: /Ogtpy
; File c:\users\enormousapplepie\documents\github\lekmod\lekmod_dll\cvgamecoredllutil\include\cvdllinterfaces.h
;	COMDAT ?GetInterfaceId@ICvUnknown@@SG?AU_GUID@@XZ
_TEXT	SEGMENT
$T222594 = 8						; size = 4
?GetInterfaceId@ICvUnknown@@SG?AU_GUID@@XZ PROC		; ICvUnknown::GetInterfaceId, COMDAT

; 306  : 	static GUID DLLCALL GetInterfaceId(){ return guidICvUnknown; }

	mov	eax, DWORD PTR $T222594[esp-4]
	mov	ecx, DWORD PTR _guidICvUnknown
	mov	edx, DWORD PTR _guidICvUnknown+4
	mov	DWORD PTR [eax], ecx
	mov	ecx, DWORD PTR _guidICvUnknown+8
	mov	DWORD PTR [eax+4], edx
	mov	edx, DWORD PTR _guidICvUnknown+12
	mov	DWORD PTR [eax+8], ecx
	mov	DWORD PTR [eax+12], edx
	ret	4
?GetInterfaceId@ICvUnknown@@SG?AU_GUID@@XZ ENDP		; ICvUnknown::GetInterfaceId
_TEXT	ENDS
PUBLIC	??3ICvUnknown@@SGXPAX@Z				; ICvUnknown::operator delete
; Function compile flags: /Ogtpy
;	COMDAT ??3ICvUnknown@@SGXPAX@Z
_TEXT	SEGMENT
_p$ = 8							; size = 4
??3ICvUnknown@@SGXPAX@Z PROC				; ICvUnknown::operator delete, COMDAT

; 310  : 		if (p)

	mov	eax, DWORD PTR _p$[esp-4]
	test	eax, eax
	je	SHORT $LN1@operator

; 311  : 		{
; 312  : 			ICvUnknown* inst = (ICvUnknown*)(p);
; 313  : 			inst->Destroy();

	mov	ecx, DWORD PTR [eax]
	mov	edx, DWORD PTR [ecx+4]
	mov	DWORD PTR _p$[esp-4], eax
	jmp	edx
$LN1@operator:

; 314  : 		}
; 315  : 	}

	ret	4
??3ICvUnknown@@SGXPAX@Z ENDP				; ICvUnknown::operator delete
_TEXT	ENDS
PUBLIC	?GetInterfaceId@ICvEnumerator@@SG?AU_GUID@@XZ	; ICvEnumerator::GetInterfaceId
; Function compile flags: /Ogtpy
;	COMDAT ?GetInterfaceId@ICvEnumerator@@SG?AU_GUID@@XZ
_TEXT	SEGMENT
$T222601 = 8						; size = 4
?GetInterfaceId@ICvEnumerator@@SG?AU_GUID@@XZ PROC	; ICvEnumerator::GetInterfaceId, COMDAT

; 332  : 	static GUID DLLCALL GetInterfaceId(){ return guidICvEnumerator; }

	mov	eax, DWORD PTR $T222601[esp-4]
	mov	ecx, DWORD PTR _guidICvEnumerator
	mov	edx, DWORD PTR _guidICvEnumerator+4
	mov	DWORD PTR [eax], ecx
	mov	ecx, DWORD PTR _guidICvEnumerator+8
	mov	DWORD PTR [eax+4], edx
	mov	edx, DWORD PTR _guidICvEnumerator+12
	mov	DWORD PTR [eax+8], ecx
	mov	DWORD PTR [eax+12], edx
	ret	4
?GetInterfaceId@ICvEnumerator@@SG?AU_GUID@@XZ ENDP	; ICvEnumerator::GetInterfaceId
_TEXT	ENDS
PUBLIC	?GetInterfaceId@ICvDlcPackageInfo1@@SG?AU_GUID@@XZ ; ICvDlcPackageInfo1::GetInterfaceId
; Function compile flags: /Ogtpy
;	COMDAT ?GetInterfaceId@ICvDlcPackageInfo1@@SG?AU_GUID@@XZ
_TEXT	SEGMENT
$T222605 = 8						; size = 4
?GetInterfaceId@ICvDlcPackageInfo1@@SG?AU_GUID@@XZ PROC	; ICvDlcPackageInfo1::GetInterfaceId, COMDAT

; 384  : 	static GUID DLLCALL GetInterfaceId() { return guidICvDlcPackageInfo1; }

	mov	eax, DWORD PTR $T222605[esp-4]
	mov	ecx, DWORD PTR _guidICvDlcPackageInfo1
	mov	edx, DWORD PTR _guidICvDlcPackageInfo1+4
	mov	DWORD PTR [eax], ecx
	mov	ecx, DWORD PTR _guidICvDlcPackageInfo1+8
	mov	DWORD PTR [eax+4], edx
	mov	edx, DWORD PTR _guidICvDlcPackageInfo1+12
	mov	DWORD PTR [eax+8], ecx
	mov	DWORD PTR [eax+12], edx
	ret	4
?GetInterfaceId@ICvDlcPackageInfo1@@SG?AU_GUID@@XZ ENDP	; ICvDlcPackageInfo1::GetInterfaceId
_TEXT	ENDS
PUBLIC	?GetInterfaceId@ICvPreGame1@@SG?AU_GUID@@XZ	; ICvPreGame1::GetInterfaceId
; Function compile flags: /Ogtpy
;	COMDAT ?GetInterfaceId@ICvPreGame1@@SG?AU_GUID@@XZ
_TEXT	SEGMENT
$T222609 = 8						; size = 4
?GetInterfaceId@ICvPreGame1@@SG?AU_GUID@@XZ PROC	; ICvPreGame1::GetInterfaceId, COMDAT

; 1421 : 	static GUID DLLCALL GetInterfaceId() { return guidICvPreGame1; }

	mov	eax, DWORD PTR $T222609[esp-4]
	mov	ecx, DWORD PTR _guidICvPreGame1
	mov	edx, DWORD PTR _guidICvPreGame1+4
	mov	DWORD PTR [eax], ecx
	mov	ecx, DWORD PTR _guidICvPreGame1+8
	mov	DWORD PTR [eax+4], edx
	mov	edx, DWORD PTR _guidICvPreGame1+12
	mov	DWORD PTR [eax+8], ecx
	mov	DWORD PTR [eax+12], edx
	ret	4
?GetInterfaceId@ICvPreGame1@@SG?AU_GUID@@XZ ENDP	; ICvPreGame1::GetInterfaceId
_TEXT	ENDS
PUBLIC	?GetInterfaceId@ICvPreGame2@@SG?AU_GUID@@XZ	; ICvPreGame2::GetInterfaceId
; Function compile flags: /Ogtpy
; File c:\users\enormousapplepie\documents\github\lekmod\lekmod_dll\cvgamecoredllutil\include\cvdllinterfaces2.h
;	COMDAT ?GetInterfaceId@ICvPreGame2@@SG?AU_GUID@@XZ
_TEXT	SEGMENT
$T222613 = 8						; size = 4
?GetInterfaceId@ICvPreGame2@@SG?AU_GUID@@XZ PROC	; ICvPreGame2::GetInterfaceId, COMDAT

; 133  : 	static GUID DLLCALL GetInterfaceId() { return guidICvPreGame2; }

	mov	eax, DWORD PTR $T222613[esp-4]
	mov	ecx, DWORD PTR _guidICvPreGame2
	mov	edx, DWORD PTR _guidICvPreGame2+4
	mov	DWORD PTR [eax], ecx
	mov	ecx, DWORD PTR _guidICvPreGame2+8
	mov	DWORD PTR [eax+4], edx
	mov	edx, DWORD PTR _guidICvPreGame2+12
	mov	DWORD PTR [eax+8], ecx
	mov	DWORD PTR [eax+12], edx
	ret	4
?GetInterfaceId@ICvPreGame2@@SG?AU_GUID@@XZ ENDP	; ICvPreGame2::GetInterfaceId
_TEXT	ENDS
PUBLIC	??0CvString@@QAE@ABV0@@Z			; CvString::CvString
; Function compile flags: /Ogtpy
;	COMDAT ??0CvString@@QAE@ABV0@@Z
_TEXT	SEGMENT
___that$ = 8						; size = 4
??0CvString@@QAE@ABV0@@Z PROC				; CvString::CvString, COMDAT
; _this$ = ecx
	mov	eax, DWORD PTR ___that$[esp-4]
	push	esi
	push	eax
	mov	esi, ecx
	call	DWORD PTR __imp_??0?$basic_string@DU?$char_traits@D@std@@V?$allocator@D@2@@std@@QAE@ABV01@@Z
	mov	eax, esi
	pop	esi
	ret	4
??0CvString@@QAE@ABV0@@Z ENDP				; CvString::CvString
_TEXT	ENDS
PUBLIC	??A?$vector@W4TeamTypes@@V?$allocator@W4TeamTypes@@@std@@@std@@QBEABW4TeamTypes@@I@Z ; std::vector<enum TeamTypes,std::allocator<enum TeamTypes> >::operator[]
; Function compile flags: /Ogtpy
; File c:\program files (x86)\microsoft visual studio 9.0\vc\include\vector
;	COMDAT ??A?$vector@W4TeamTypes@@V?$allocator@W4TeamTypes@@@std@@@std@@QBEABW4TeamTypes@@I@Z
_TEXT	SEGMENT
__Pos$ = 8						; size = 4
??A?$vector@W4TeamTypes@@V?$allocator@W4TeamTypes@@@std@@@std@@QBEABW4TeamTypes@@I@Z PROC ; std::vector<enum TeamTypes,std::allocator<enum TeamTypes> >::operator[], COMDAT
; _this$ = ecx

; 760  : 
; 761  :  #if _HAS_ITERATOR_DEBUGGING
; 762  : 		if (size() <= _Pos)
; 763  : 			{
; 764  : 			_DEBUG_ERROR("vector subscript out of range");
; 765  : 			_SCL_SECURE_OUT_OF_RANGE;
; 766  : 			}
; 767  :  #endif /* _HAS_ITERATOR_DEBUGGING */
; 768  : 		_SCL_SECURE_VALIDATE_RANGE(_Pos < size());
; 769  : 
; 770  : 		return (*(_Myfirst + _Pos));

	mov	eax, DWORD PTR [ecx+4]
	mov	ecx, DWORD PTR __Pos$[esp-4]
	lea	eax, DWORD PTR [eax+ecx*4]

; 771  : 		}

	ret	4
??A?$vector@W4TeamTypes@@V?$allocator@W4TeamTypes@@@std@@@std@@QBEABW4TeamTypes@@I@Z ENDP ; std::vector<enum TeamTypes,std::allocator<enum TeamTypes> >::operator[]
_TEXT	ENDS
EXTRN	__imp_??0exception@std@@QAE@ABV01@@Z:PROC
; Function compile flags: /Ogtpy
;	COMDAT ??0bad_alloc@std@@QAE@ABV01@@Z
_TEXT	SEGMENT
___that$ = 8						; size = 4
??0bad_alloc@std@@QAE@ABV01@@Z PROC			; std::bad_alloc::bad_alloc, COMDAT
; _this$ = ecx
	mov	eax, DWORD PTR ___that$[esp-4]
	push	esi
	push	eax
	mov	esi, ecx
	call	DWORD PTR __imp_??0exception@std@@QAE@ABV01@@Z
	mov	DWORD PTR [esi], OFFSET ??_7bad_alloc@std@@6B@
	mov	eax, esi
	pop	esi
	ret	4
??0bad_alloc@std@@QAE@ABV01@@Z ENDP			; std::bad_alloc::bad_alloc
_TEXT	ENDS
PUBLIC	??_7ICvPreGame1@@6B@				; ICvPreGame1::`vftable'
PUBLIC	??0ICvPreGame1@@QAE@XZ				; ICvPreGame1::ICvPreGame1
PUBLIC	??_R4ICvPreGame1@@6B@				; ICvPreGame1::`RTTI Complete Object Locator'
;	COMDAT ??_R4ICvPreGame1@@6B@
rdata$r	SEGMENT
??_R4ICvPreGame1@@6B@ DD 00H				; ICvPreGame1::`RTTI Complete Object Locator'
	DD	00H
	DD	00H
	DD	FLAT:??_R0?AVICvPreGame1@@@8
	DD	FLAT:??_R3ICvPreGame1@@8
rdata$r	ENDS
;	COMDAT ??_7ICvPreGame1@@6B@
CONST	SEGMENT
??_7ICvPreGame1@@6B@ DD FLAT:??_R4ICvPreGame1@@6B@	; ICvPreGame1::`vftable'
	DD	FLAT:__purecall
	DD	FLAT:__purecall
	DD	FLAT:__purecall
	DD	FLAT:__purecall
	DD	FLAT:__purecall
	DD	FLAT:__purecall
	DD	FLAT:__purecall
	DD	FLAT:__purecall
	DD	FLAT:__purecall
	DD	FLAT:__purecall
	DD	FLAT:__purecall
	DD	FLAT:__purecall
	DD	FLAT:__purecall
	DD	FLAT:__purecall
	DD	FLAT:__purecall
	DD	FLAT:__purecall
	DD	FLAT:__purecall
	DD	FLAT:__purecall
	DD	FLAT:__purecall
	DD	FLAT:__purecall
	DD	FLAT:__purecall
	DD	FLAT:__purecall
	DD	FLAT:__purecall
	DD	FLAT:__purecall
	DD	FLAT:__purecall
	DD	FLAT:__purecall
	DD	FLAT:__purecall
	DD	FLAT:__purecall
	DD	FLAT:__purecall
	DD	FLAT:__purecall
	DD	FLAT:__purecall
	DD	FLAT:__purecall
	DD	FLAT:__purecall
	DD	FLAT:__purecall
	DD	FLAT:__purecall
	DD	FLAT:__purecall
	DD	FLAT:__purecall
	DD	FLAT:__purecall
	DD	FLAT:__purecall
	DD	FLAT:__purecall
	DD	FLAT:__purecall
	DD	FLAT:__purecall
	DD	FLAT:__purecall
	DD	FLAT:__purecall
	DD	FLAT:__purecall
	DD	FLAT:__purecall
	DD	FLAT:__purecall
	DD	FLAT:__purecall
	DD	FLAT:__purecall
	DD	FLAT:__purecall
	DD	FLAT:__purecall
	DD	FLAT:__purecall
	DD	FLAT:__purecall
	DD	FLAT:__purecall
	DD	FLAT:__purecall
	DD	FLAT:__purecall
	DD	FLAT:__purecall
	DD	FLAT:__purecall
	DD	FLAT:__purecall
	DD	FLAT:__purecall
	DD	FLAT:__purecall
	DD	FLAT:__purecall
	DD	FLAT:__purecall
	DD	FLAT:__purecall
	DD	FLAT:__purecall
	DD	FLAT:__purecall
	DD	FLAT:__purecall
	DD	FLAT:__purecall
	DD	FLAT:__purecall
	DD	FLAT:__purecall
	DD	FLAT:__purecall
	DD	FLAT:__purecall
	DD	FLAT:__purecall
	DD	FLAT:__purecall
	DD	FLAT:__purecall
	DD	FLAT:__purecall
	DD	FLAT:__purecall
	DD	FLAT:__purecall
	DD	FLAT:__purecall
	DD	FLAT:__purecall
	DD	FLAT:__purecall
	DD	FLAT:__purecall
	DD	FLAT:__purecall
	DD	FLAT:__purecall
	DD	FLAT:__purecall
	DD	FLAT:__purecall
	DD	FLAT:__purecall
	DD	FLAT:__purecall
	DD	FLAT:__purecall
	DD	FLAT:__purecall
	DD	FLAT:__purecall
	DD	FLAT:__purecall
	DD	FLAT:__purecall
	DD	FLAT:__purecall
	DD	FLAT:__purecall
	DD	FLAT:__purecall
	DD	FLAT:__purecall
	DD	FLAT:__purecall
	DD	FLAT:__purecall
	DD	FLAT:__purecall
	DD	FLAT:__purecall
	DD	FLAT:__purecall
	DD	FLAT:__purecall
	DD	FLAT:__purecall
	DD	FLAT:__purecall
	DD	FLAT:__purecall
	DD	FLAT:__purecall
	DD	FLAT:__purecall
	DD	FLAT:__purecall
	DD	FLAT:__purecall
	DD	FLAT:__purecall
	DD	FLAT:__purecall
	DD	FLAT:__purecall
	DD	FLAT:__purecall
	DD	FLAT:__purecall
	DD	FLAT:__purecall
	DD	FLAT:__purecall
	DD	FLAT:__purecall
	DD	FLAT:__purecall
	DD	FLAT:__purecall
	DD	FLAT:__purecall
	DD	FLAT:__purecall
	DD	FLAT:__purecall
	DD	FLAT:__purecall
	DD	FLAT:__purecall
	DD	FLAT:__purecall
	DD	FLAT:__purecall
	DD	FLAT:__purecall
	DD	FLAT:__purecall
	DD	FLAT:__purecall
	DD	FLAT:__purecall
	DD	FLAT:__purecall
	DD	FLAT:__purecall
	DD	FLAT:__purecall
	DD	FLAT:__purecall
	DD	FLAT:__purecall
	DD	FLAT:__purecall
	DD	FLAT:__purecall
	DD	FLAT:__purecall
	DD	FLAT:__purecall
	DD	FLAT:__purecall
	DD	FLAT:__purecall
	DD	FLAT:__purecall
	DD	FLAT:__purecall
	DD	FLAT:__purecall
	DD	FLAT:__purecall
	DD	FLAT:__purecall
	DD	FLAT:__purecall
	DD	FLAT:__purecall
	DD	FLAT:__purecall
	DD	FLAT:__purecall
	DD	FLAT:__purecall
	DD	FLAT:__purecall
	DD	FLAT:__purecall
	DD	FLAT:__purecall
	DD	FLAT:__purecall
	DD	FLAT:__purecall
	DD	FLAT:__purecall
	DD	FLAT:__purecall
	DD	FLAT:__purecall
	DD	FLAT:__purecall
	DD	FLAT:__purecall
	DD	FLAT:__purecall
	DD	FLAT:__purecall
	DD	FLAT:__purecall
	DD	FLAT:__purecall
	DD	FLAT:__purecall
	DD	FLAT:__purecall
	DD	FLAT:__purecall
	DD	FLAT:__purecall
	DD	FLAT:__purecall
	DD	FLAT:__purecall
	DD	FLAT:__purecall
	DD	FLAT:__purecall
	DD	FLAT:__purecall
	DD	FLAT:__purecall
	DD	FLAT:__purecall
	DD	FLAT:__purecall
	DD	FLAT:__purecall
	DD	FLAT:__purecall
	DD	FLAT:__purecall
	DD	FLAT:__purecall
	DD	FLAT:__purecall
	DD	FLAT:__purecall
	DD	FLAT:__purecall
	DD	FLAT:__purecall
	DD	FLAT:__purecall
	DD	FLAT:__purecall
	DD	FLAT:__purecall
	DD	FLAT:__purecall
	DD	FLAT:__purecall
	DD	FLAT:__purecall
	DD	FLAT:__purecall
	DD	FLAT:__purecall
	DD	FLAT:__purecall
	DD	FLAT:__purecall
	DD	FLAT:__purecall
	DD	FLAT:__purecall
	DD	FLAT:__purecall
	DD	FLAT:__purecall
	DD	FLAT:__purecall
	DD	FLAT:__purecall
	DD	FLAT:__purecall
	DD	FLAT:__purecall
	DD	FLAT:__purecall
	DD	FLAT:__purecall
	DD	FLAT:__purecall
; Function compile flags: /Ogtpy
CONST	ENDS
;	COMDAT ??0ICvPreGame1@@QAE@XZ
_TEXT	SEGMENT
??0ICvPreGame1@@QAE@XZ PROC				; ICvPreGame1::ICvPreGame1, COMDAT
; _this$ = ecx
	mov	eax, ecx
	mov	DWORD PTR [eax], OFFSET ??_7ICvPreGame1@@6B@
	ret	0
??0ICvPreGame1@@QAE@XZ ENDP				; ICvPreGame1::ICvPreGame1
; Function compile flags: /Ogtpy
; File c:\users\enormousapplepie\documents\github\lekmod\lekmod_dll\cvgamecoredll_expansion2\cvdllpregame.cpp
_TEXT	ENDS
;	COMDAT ?QueryInterface@CvDllPreGame@@UAGPAXU_GUID@@@Z
_TEXT	SEGMENT
$T222638 = -16						; size = 16
$T222636 = -16						; size = 16
$T222634 = -16						; size = 16
_this$ = 8						; size = 4
_guidInterface$ = 12					; size = 16
?QueryInterface@CvDllPreGame@@UAGPAXU_GUID@@@Z PROC	; CvDllPreGame::QueryInterface, COMDAT

; 24   : {

	sub	esp, 16					; 00000010H

; 25   : 	if(guidInterface == ICvUnknown::GetInterfaceId() ||
; 26   : 		guidInterface == ICvPreGame1::GetInterfaceId() ||
; 27   : 		guidInterface == ICvPreGame2::GetInterfaceId())

	mov	ecx, DWORD PTR _guidICvUnknown+4
	mov	edx, DWORD PTR _guidICvUnknown+8
	mov	eax, DWORD PTR _guidICvUnknown
	mov	DWORD PTR $T222634[esp+20], ecx
	lea	ecx, DWORD PTR $T222634[esp+16]
	mov	DWORD PTR $T222634[esp+24], edx
	mov	DWORD PTR $T222634[esp+16], eax
	mov	eax, DWORD PTR _guidICvUnknown+12
	push	ecx
	lea	edx, DWORD PTR _guidInterface$[esp+16]
	push	edx
	mov	DWORD PTR $T222634[esp+36], eax
	call	_IsEqualGUID
	add	esp, 8
	test	eax, eax
	jne	SHORT $LN1@QueryInter
	mov	ecx, DWORD PTR _guidICvPreGame1+4
	mov	edx, DWORD PTR _guidICvPreGame1+8
	mov	eax, DWORD PTR _guidICvPreGame1
	mov	DWORD PTR $T222636[esp+20], ecx
	lea	ecx, DWORD PTR $T222636[esp+16]
	mov	DWORD PTR $T222636[esp+24], edx
	mov	DWORD PTR $T222636[esp+16], eax
	mov	eax, DWORD PTR _guidICvPreGame1+12
	push	ecx
	lea	edx, DWORD PTR _guidInterface$[esp+16]
	push	edx
	mov	DWORD PTR $T222636[esp+36], eax
	call	_IsEqualGUID
	add	esp, 8
	test	eax, eax
	jne	SHORT $LN1@QueryInter
	mov	ecx, DWORD PTR _guidICvPreGame2+4
	mov	edx, DWORD PTR _guidICvPreGame2+8
	mov	eax, DWORD PTR _guidICvPreGame2
	mov	DWORD PTR $T222638[esp+20], ecx
	lea	ecx, DWORD PTR $T222638[esp+16]
	mov	DWORD PTR $T222638[esp+24], edx
	mov	DWORD PTR $T222638[esp+16], eax
	mov	eax, DWORD PTR _guidICvPreGame2+12
	push	ecx
	lea	edx, DWORD PTR _guidInterface$[esp+16]
	push	edx
	mov	DWORD PTR $T222638[esp+36], eax
	call	_IsEqualGUID
	add	esp, 8
	test	eax, eax
	jne	SHORT $LN1@QueryInter

; 30   : 	}
; 31   : 
; 32   : 	return NULL;
; 33   : }

	add	esp, 16					; 00000010H
	ret	20					; 00000014H
$LN1@QueryInter:

; 28   : 	{
; 29   : 		return this;

	mov	eax, DWORD PTR _this$[esp+12]

; 30   : 	}
; 31   : 
; 32   : 	return NULL;
; 33   : }

	add	esp, 16					; 00000010H
	ret	20					; 00000014H
?QueryInterface@CvDllPreGame@@UAGPAXU_GUID@@@Z ENDP	; CvDllPreGame::QueryInterface
_TEXT	ENDS
PUBLIC	??_GCvDllPreGame@@QAEPAXI@Z			; CvDllPreGame::`scalar deleting destructor'
; Function compile flags: /Ogtpy
;	COMDAT ??_GCvDllPreGame@@QAEPAXI@Z
_TEXT	SEGMENT
___flags$ = 8						; size = 4
??_GCvDllPreGame@@QAEPAXI@Z PROC			; CvDllPreGame::`scalar deleting destructor', COMDAT
; _this$ = ecx
	test	BYTE PTR ___flags$[esp-4], 1
	push	esi
	mov	esi, ecx
	mov	DWORD PTR [esi], OFFSET ??_7CvDllPreGame@@6B@
	je	SHORT $LN8@scalar@4
	push	esi
	call	?Free@CvDllGameContext@@SAXPAX@Z	; CvDllGameContext::Free
	add	esp, 4
$LN8@scalar@4:
	mov	eax, esi
	pop	esi
	ret	4
??_GCvDllPreGame@@QAEPAXI@Z ENDP			; CvDllPreGame::`scalar deleting destructor'
_TEXT	ENDS
EXTRN	?civilizationAdjective@CvPreGame@@YAABVCvString@@W4PlayerTypes@@@Z:PROC ; CvPreGame::civilizationAdjective
; Function compile flags: /Ogtpy
;	COMDAT ?civilizationAdjective@CvDllPreGame@@UAG?AVCvString@@W4PlayerTypes@@@Z
_TEXT	SEGMENT
$T222675 = -4						; size = 4
_this$ = 8						; size = 4
___$ReturnUdt$ = 12					; size = 4
_p$ = 16						; size = 4
?civilizationAdjective@CvDllPreGame@@UAG?AVCvString@@W4PlayerTypes@@@Z PROC ; CvDllPreGame::civilizationAdjective, COMDAT

; 86   : {

	push	ecx

; 87   : 	return CvPreGame::civilizationAdjective(p);

	mov	eax, DWORD PTR _p$[esp]
	push	esi
	push	eax
	mov	DWORD PTR $T222675[esp+12], 0
	call	?civilizationAdjective@CvPreGame@@YAABVCvString@@W4PlayerTypes@@@Z ; CvPreGame::civilizationAdjective
	mov	esi, DWORD PTR ___$ReturnUdt$[esp+8]
	add	esp, 4
	push	eax
	mov	ecx, esi
	call	DWORD PTR __imp_??0?$basic_string@DU?$char_traits@D@std@@V?$allocator@D@2@@std@@QAE@ABV01@@Z
	mov	eax, esi
	pop	esi

; 88   : }

	pop	ecx
	ret	12					; 0000000cH
?civilizationAdjective@CvDllPreGame@@UAG?AVCvString@@W4PlayerTypes@@@Z ENDP ; CvDllPreGame::civilizationAdjective
_TEXT	ENDS
EXTRN	?civilizationAdjectiveKey@CvPreGame@@YAABVCvString@@W4PlayerTypes@@@Z:PROC ; CvPreGame::civilizationAdjectiveKey
; Function compile flags: /Ogtpy
;	COMDAT ?civilizationAdjectiveKey@CvDllPreGame@@UAG?BVCvString@@W4PlayerTypes@@@Z
_TEXT	SEGMENT
$T222686 = -4						; size = 4
_this$ = 8						; size = 4
___$ReturnUdt$ = 12					; size = 4
_p$ = 16						; size = 4
?civilizationAdjectiveKey@CvDllPreGame@@UAG?BVCvString@@W4PlayerTypes@@@Z PROC ; CvDllPreGame::civilizationAdjectiveKey, COMDAT

; 91   : {

	push	ecx

; 92   : 	return CvPreGame::civilizationAdjectiveKey(p);

	mov	eax, DWORD PTR _p$[esp]
	push	esi
	push	eax
	mov	DWORD PTR $T222686[esp+12], 0
	call	?civilizationAdjectiveKey@CvPreGame@@YAABVCvString@@W4PlayerTypes@@@Z ; CvPreGame::civilizationAdjectiveKey
	mov	esi, DWORD PTR ___$ReturnUdt$[esp+8]
	add	esp, 4
	push	eax
	mov	ecx, esi
	call	DWORD PTR __imp_??0?$basic_string@DU?$char_traits@D@std@@V?$allocator@D@2@@std@@QAE@ABV01@@Z
	mov	eax, esi
	pop	esi

; 93   : }

	pop	ecx
	ret	12					; 0000000cH
?civilizationAdjectiveKey@CvDllPreGame@@UAG?BVCvString@@W4PlayerTypes@@@Z ENDP ; CvDllPreGame::civilizationAdjectiveKey
_TEXT	ENDS
EXTRN	?civilizationDescription@CvPreGame@@YAABVCvString@@W4PlayerTypes@@@Z:PROC ; CvPreGame::civilizationDescription
; Function compile flags: /Ogtpy
;	COMDAT ?civilizationDescription@CvDllPreGame@@UAG?AVCvString@@W4PlayerTypes@@@Z
_TEXT	SEGMENT
$T222697 = -4						; size = 4
_this$ = 8						; size = 4
___$ReturnUdt$ = 12					; size = 4
_p$ = 16						; size = 4
?civilizationDescription@CvDllPreGame@@UAG?AVCvString@@W4PlayerTypes@@@Z PROC ; CvDllPreGame::civilizationDescription, COMDAT

; 96   : {

	push	ecx

; 97   : 	return CvPreGame::civilizationDescription(p);

	mov	eax, DWORD PTR _p$[esp]
	push	esi
	push	eax
	mov	DWORD PTR $T222697[esp+12], 0
	call	?civilizationDescription@CvPreGame@@YAABVCvString@@W4PlayerTypes@@@Z ; CvPreGame::civilizationDescription
	mov	esi, DWORD PTR ___$ReturnUdt$[esp+8]
	add	esp, 4
	push	eax
	mov	ecx, esi
	call	DWORD PTR __imp_??0?$basic_string@DU?$char_traits@D@std@@V?$allocator@D@2@@std@@QAE@ABV01@@Z
	mov	eax, esi
	pop	esi

; 98   : }

	pop	ecx
	ret	12					; 0000000cH
?civilizationDescription@CvDllPreGame@@UAG?AVCvString@@W4PlayerTypes@@@Z ENDP ; CvDllPreGame::civilizationDescription
_TEXT	ENDS
EXTRN	?civilizationDescriptionKey@CvPreGame@@YAABVCvString@@W4PlayerTypes@@@Z:PROC ; CvPreGame::civilizationDescriptionKey
; Function compile flags: /Ogtpy
;	COMDAT ?civilizationDescriptionKey@CvDllPreGame@@UAG?BVCvString@@W4PlayerTypes@@@Z
_TEXT	SEGMENT
$T222708 = -4						; size = 4
_this$ = 8						; size = 4
___$ReturnUdt$ = 12					; size = 4
_p$ = 16						; size = 4
?civilizationDescriptionKey@CvDllPreGame@@UAG?BVCvString@@W4PlayerTypes@@@Z PROC ; CvDllPreGame::civilizationDescriptionKey, COMDAT

; 101  : {

	push	ecx

; 102  : 	return CvPreGame::civilizationDescriptionKey(p);

	mov	eax, DWORD PTR _p$[esp]
	push	esi
	push	eax
	mov	DWORD PTR $T222708[esp+12], 0
	call	?civilizationDescriptionKey@CvPreGame@@YAABVCvString@@W4PlayerTypes@@@Z ; CvPreGame::civilizationDescriptionKey
	mov	esi, DWORD PTR ___$ReturnUdt$[esp+8]
	add	esp, 4
	push	eax
	mov	ecx, esi
	call	DWORD PTR __imp_??0?$basic_string@DU?$char_traits@D@std@@V?$allocator@D@2@@std@@QAE@ABV01@@Z
	mov	eax, esi
	pop	esi

; 103  : }

	pop	ecx
	ret	12					; 0000000cH
?civilizationDescriptionKey@CvDllPreGame@@UAG?BVCvString@@W4PlayerTypes@@@Z ENDP ; CvDllPreGame::civilizationDescriptionKey
_TEXT	ENDS
EXTRN	?civilizationPassword@CvPreGame@@YAABVCvString@@W4PlayerTypes@@@Z:PROC ; CvPreGame::civilizationPassword
; Function compile flags: /Ogtpy
;	COMDAT ?civilizationPassword@CvDllPreGame@@UAG?BVCvString@@W4PlayerTypes@@@Z
_TEXT	SEGMENT
$T222719 = -4						; size = 4
_this$ = 8						; size = 4
___$ReturnUdt$ = 12					; size = 4
_p$ = 16						; size = 4
?civilizationPassword@CvDllPreGame@@UAG?BVCvString@@W4PlayerTypes@@@Z PROC ; CvDllPreGame::civilizationPassword, COMDAT

; 111  : {

	push	ecx

; 112  : 	return CvPreGame::civilizationPassword(p);

	mov	eax, DWORD PTR _p$[esp]
	push	esi
	push	eax
	mov	DWORD PTR $T222719[esp+12], 0
	call	?civilizationPassword@CvPreGame@@YAABVCvString@@W4PlayerTypes@@@Z ; CvPreGame::civilizationPassword
	mov	esi, DWORD PTR ___$ReturnUdt$[esp+8]
	add	esp, 4
	push	eax
	mov	ecx, esi
	call	DWORD PTR __imp_??0?$basic_string@DU?$char_traits@D@std@@V?$allocator@D@2@@std@@QAE@ABV01@@Z
	mov	eax, esi
	pop	esi

; 113  : }

	pop	ecx
	ret	12					; 0000000cH
?civilizationPassword@CvDllPreGame@@UAG?BVCvString@@W4PlayerTypes@@@Z ENDP ; CvDllPreGame::civilizationPassword
_TEXT	ENDS
EXTRN	?civilizationShortDescription@CvPreGame@@YAABVCvString@@W4PlayerTypes@@@Z:PROC ; CvPreGame::civilizationShortDescription
; Function compile flags: /Ogtpy
;	COMDAT ?civilizationShortDescription@CvDllPreGame@@UAG?AVCvString@@W4PlayerTypes@@@Z
_TEXT	SEGMENT
$T222730 = -4						; size = 4
_this$ = 8						; size = 4
___$ReturnUdt$ = 12					; size = 4
_p$ = 16						; size = 4
?civilizationShortDescription@CvDllPreGame@@UAG?AVCvString@@W4PlayerTypes@@@Z PROC ; CvDllPreGame::civilizationShortDescription, COMDAT

; 116  : {

	push	ecx

; 117  : 	return CvPreGame::civilizationShortDescription(p);

	mov	eax, DWORD PTR _p$[esp]
	push	esi
	push	eax
	mov	DWORD PTR $T222730[esp+12], 0
	call	?civilizationShortDescription@CvPreGame@@YAABVCvString@@W4PlayerTypes@@@Z ; CvPreGame::civilizationShortDescription
	mov	esi, DWORD PTR ___$ReturnUdt$[esp+8]
	add	esp, 4
	push	eax
	mov	ecx, esi
	call	DWORD PTR __imp_??0?$basic_string@DU?$char_traits@D@std@@V?$allocator@D@2@@std@@QAE@ABV01@@Z
	mov	eax, esi
	pop	esi

; 118  : }

	pop	ecx
	ret	12					; 0000000cH
?civilizationShortDescription@CvDllPreGame@@UAG?AVCvString@@W4PlayerTypes@@@Z ENDP ; CvDllPreGame::civilizationShortDescription
_TEXT	ENDS
EXTRN	?civilizationShortDescriptionKey@CvPreGame@@YAABVCvString@@W4PlayerTypes@@@Z:PROC ; CvPreGame::civilizationShortDescriptionKey
; Function compile flags: /Ogtpy
;	COMDAT ?civilizationShortDescriptionKey@CvDllPreGame@@UAG?BVCvString@@W4PlayerTypes@@@Z
_TEXT	SEGMENT
$T222741 = -4						; size = 4
_this$ = 8						; size = 4
___$ReturnUdt$ = 12					; size = 4
_p$ = 16						; size = 4
?civilizationShortDescriptionKey@CvDllPreGame@@UAG?BVCvString@@W4PlayerTypes@@@Z PROC ; CvDllPreGame::civilizationShortDescriptionKey, COMDAT

; 121  : {

	push	ecx

; 122  : 	return CvPreGame::civilizationShortDescriptionKey(p);

	mov	eax, DWORD PTR _p$[esp]
	push	esi
	push	eax
	mov	DWORD PTR $T222741[esp+12], 0
	call	?civilizationShortDescriptionKey@CvPreGame@@YAABVCvString@@W4PlayerTypes@@@Z ; CvPreGame::civilizationShortDescriptionKey
	mov	esi, DWORD PTR ___$ReturnUdt$[esp+8]
	add	esp, 4
	push	eax
	mov	ecx, esi
	call	DWORD PTR __imp_??0?$basic_string@DU?$char_traits@D@std@@V?$allocator@D@2@@std@@QAE@ABV01@@Z
	mov	eax, esi
	pop	esi

; 123  : }

	pop	ecx
	ret	12					; 0000000cH
?civilizationShortDescriptionKey@CvDllPreGame@@UAG?BVCvString@@W4PlayerTypes@@@Z ENDP ; CvDllPreGame::civilizationShortDescriptionKey
_TEXT	ENDS
EXTRN	?civilizationKey@CvPreGame@@YAABVCvString@@W4PlayerTypes@@@Z:PROC ; CvPreGame::civilizationKey
; Function compile flags: /Ogtpy
;	COMDAT ?civilizationKey@CvDllPreGame@@UAG?BVCvString@@W4PlayerTypes@@@Z
_TEXT	SEGMENT
$T222752 = -4						; size = 4
_this$ = 8						; size = 4
___$ReturnUdt$ = 12					; size = 4
_p$ = 16						; size = 4
?civilizationKey@CvDllPreGame@@UAG?BVCvString@@W4PlayerTypes@@@Z PROC ; CvDllPreGame::civilizationKey, COMDAT

; 126  : {

	push	ecx

; 127  : 	return CvPreGame::civilizationKey(p);

	mov	eax, DWORD PTR _p$[esp]
	push	esi
	push	eax
	mov	DWORD PTR $T222752[esp+12], 0
	call	?civilizationKey@CvPreGame@@YAABVCvString@@W4PlayerTypes@@@Z ; CvPreGame::civilizationKey
	mov	esi, DWORD PTR ___$ReturnUdt$[esp+8]
	add	esp, 4
	push	eax
	mov	ecx, esi
	call	DWORD PTR __imp_??0?$basic_string@DU?$char_traits@D@std@@V?$allocator@D@2@@std@@QAE@ABV01@@Z
	mov	eax, esi
	pop	esi

; 128  : }

	pop	ecx
	ret	12					; 0000000cH
?civilizationKey@CvDllPreGame@@UAG?BVCvString@@W4PlayerTypes@@@Z ENDP ; CvDllPreGame::civilizationKey
_TEXT	ENDS
EXTRN	?emailAddress@CvPreGame@@YAABVCvString@@W4PlayerTypes@@@Z:PROC ; CvPreGame::emailAddress
; Function compile flags: /Ogtpy
;	COMDAT ?emailAddress@CvDllPreGame@@UAG?BVCvString@@W4PlayerTypes@@@Z
_TEXT	SEGMENT
$T222763 = -4						; size = 4
_this$ = 8						; size = 4
___$ReturnUdt$ = 12					; size = 4
_p$ = 16						; size = 4
?emailAddress@CvDllPreGame@@UAG?BVCvString@@W4PlayerTypes@@@Z PROC ; CvDllPreGame::emailAddress, COMDAT

; 161  : {

	push	ecx

; 162  : 	return CvPreGame::emailAddress(p);

	mov	eax, DWORD PTR _p$[esp]
	push	esi
	push	eax
	mov	DWORD PTR $T222763[esp+12], 0
	call	?emailAddress@CvPreGame@@YAABVCvString@@W4PlayerTypes@@@Z ; CvPreGame::emailAddress
	mov	esi, DWORD PTR ___$ReturnUdt$[esp+8]
	add	esp, 4
	push	eax
	mov	ecx, esi
	call	DWORD PTR __imp_??0?$basic_string@DU?$char_traits@D@std@@V?$allocator@D@2@@std@@QAE@ABV01@@Z
	mov	eax, esi
	pop	esi

; 163  : }

	pop	ecx
	ret	12					; 0000000cH
?emailAddress@CvDllPreGame@@UAG?BVCvString@@W4PlayerTypes@@@Z ENDP ; CvDllPreGame::emailAddress
_TEXT	ENDS
EXTRN	?emailAddress@CvPreGame@@YAABVCvString@@XZ:PROC	; CvPreGame::emailAddress
; Function compile flags: /Ogtpy
;	COMDAT ?emailAddress@CvDllPreGame@@UAG?BVCvString@@XZ
_TEXT	SEGMENT
$T222774 = -4						; size = 4
_this$ = 8						; size = 4
___$ReturnUdt$ = 12					; size = 4
?emailAddress@CvDllPreGame@@UAG?BVCvString@@XZ PROC	; CvDllPreGame::emailAddress, COMDAT

; 166  : {

	push	ecx
	push	esi
	mov	DWORD PTR $T222774[esp+8], 0

; 167  : 	return CvPreGame::emailAddress();

	call	?emailAddress@CvPreGame@@YAABVCvString@@XZ ; CvPreGame::emailAddress
	mov	esi, DWORD PTR ___$ReturnUdt$[esp+4]
	push	eax
	mov	ecx, esi
	call	DWORD PTR __imp_??0?$basic_string@DU?$char_traits@D@std@@V?$allocator@D@2@@std@@QAE@ABV01@@Z
	mov	eax, esi
	pop	esi

; 168  : }

	pop	ecx
	ret	8
?emailAddress@CvDllPreGame@@UAG?BVCvString@@XZ ENDP	; CvDllPreGame::emailAddress
_TEXT	ENDS
EXTRN	?gameName@CvPreGame@@YAABVCvString@@XZ:PROC	; CvPreGame::gameName
; Function compile flags: /Ogtpy
;	COMDAT ?gameName@CvDllPreGame@@UAG?BVCvString@@XZ
_TEXT	SEGMENT
$T222785 = -4						; size = 4
_this$ = 8						; size = 4
___$ReturnUdt$ = 12					; size = 4
?gameName@CvDllPreGame@@UAG?BVCvString@@XZ PROC		; CvDllPreGame::gameName, COMDAT

; 191  : {

	push	ecx
	push	esi
	mov	DWORD PTR $T222785[esp+8], 0

; 192  : 	return CvPreGame::gameName();

	call	?gameName@CvPreGame@@YAABVCvString@@XZ	; CvPreGame::gameName
	mov	esi, DWORD PTR ___$ReturnUdt$[esp+4]
	push	eax
	mov	ecx, esi
	call	DWORD PTR __imp_??0?$basic_string@DU?$char_traits@D@std@@V?$allocator@D@2@@std@@QAE@ABV01@@Z
	mov	eax, esi
	pop	esi

; 193  : }

	pop	ecx
	ret	8
?gameName@CvDllPreGame@@UAG?BVCvString@@XZ ENDP		; CvDllPreGame::gameName
_TEXT	ENDS
EXTRN	?GetGameOptions@CvPreGame@@YAABV?$vector@VCustomOption@CvPreGame@@V?$allocator@VCustomOption@CvPreGame@@@std@@@std@@XZ:PROC ; CvPreGame::GetGameOptions
; Function compile flags: /Ogtpy
;	COMDAT ?GetGameOptionCount@CvDllPreGame@@UAGIXZ
_TEXT	SEGMENT
_this$ = 8						; size = 4
?GetGameOptionCount@CvDllPreGame@@UAGIXZ PROC		; CvDllPreGame::GetGameOptionCount, COMDAT

; 212  : 	return CvPreGame::GetGameOptions().size();

	call	?GetGameOptions@CvPreGame@@YAABV?$vector@VCustomOption@CvPreGame@@V?$allocator@VCustomOption@CvPreGame@@@std@@@std@@XZ ; CvPreGame::GetGameOptions
	mov	ecx, DWORD PTR [eax+8]
	sub	ecx, DWORD PTR [eax+4]
	mov	eax, 2021161081				; 78787879H
	imul	ecx
	sar	edx, 5
	mov	eax, edx
	shr	eax, 31					; 0000001fH
	add	eax, edx

; 213  : }

	ret	4
?GetGameOptionCount@CvDllPreGame@@UAGIXZ ENDP		; CvDllPreGame::GetGameOptionCount
_TEXT	ENDS
EXTRN	?GetValue@CustomOption@CvPreGame@@QBEHXZ:PROC	; CvPreGame::CustomOption::GetValue
EXTRN	?GetName@CustomOption@CvPreGame@@QBEPBDAAI@Z:PROC ; CvPreGame::CustomOption::GetName
; Function compile flags: /Ogtpy
;	COMDAT ?GetGameOption@CvDllPreGame@@UAG_NIPADIAAH@Z
_TEXT	SEGMENT
_this$ = 8						; size = 4
_nSourceBufferSize$219634 = 12				; size = 4
_uiIndex$ = 12						; size = 4
_szOptionNameBuffer$ = 16				; size = 4
_nOptionNameBufferSize$ = 20				; size = 4
_iValue$ = 24						; size = 4
?GetGameOption@CvDllPreGame@@UAG_NIPADIAAH@Z PROC	; CvDllPreGame::GetGameOption, COMDAT

; 216  : {

	push	ebx
	push	esi
	push	edi

; 217  : 	const std::vector<CvPreGame::CustomOption>& kOptions = CvPreGame::GetGameOptions();

	call	?GetGameOptions@CvPreGame@@YAABV?$vector@VCustomOption@CvPreGame@@V?$allocator@VCustomOption@CvPreGame@@@std@@@std@@XZ ; CvPreGame::GetGameOptions
	mov	ebx, eax

; 218  : 	if(uiIndex < kOptions.size())

	mov	edi, DWORD PTR [ebx+4]
	mov	ecx, DWORD PTR [ebx+8]
	sub	ecx, edi
	mov	eax, 2021161081				; 78787879H
	imul	ecx
	mov	eax, DWORD PTR _uiIndex$[esp+8]
	sar	edx, 5
	mov	ecx, edx
	shr	ecx, 31					; 0000001fH
	add	ecx, edx
	cmp	eax, ecx
	jae	SHORT $LN1@GetGameOpt

; 219  : 	{
; 220  : 		size_t nSourceBufferSize;
; 221  : 		const char* pszSourceBuffer = kOptions[uiIndex].GetName(nSourceBufferSize);

	mov	esi, eax
	shl	esi, 4
	add	esi, eax
	add	esi, esi
	lea	edx, DWORD PTR _nSourceBufferSize$219634[esp+8]
	add	esi, esi
	lea	ecx, DWORD PTR [esi+edi]
	push	edx
	call	?GetName@CustomOption@CvPreGame@@QBEPBDAAI@Z ; CvPreGame::CustomOption::GetName

; 222  : 		if(nOptionNameBufferSize+1 > nSourceBufferSize)

	mov	ecx, DWORD PTR _nOptionNameBufferSize$[esp+8]
	inc	ecx
	cmp	ecx, DWORD PTR _nSourceBufferSize$219634[esp+8]
	jbe	SHORT $LN1@GetGameOpt

; 223  : 		{
; 224  : 			strcpy(szOptionNameBuffer, pszSourceBuffer);

	mov	edx, DWORD PTR _szOptionNameBuffer$[esp+8]
	sub	edx, eax
$LL5@GetGameOpt:
	mov	cl, BYTE PTR [eax]
	mov	BYTE PTR [edx+eax], cl
	inc	eax
	test	cl, cl
	jne	SHORT $LL5@GetGameOpt

; 225  : 			iValue = kOptions[uiIndex].GetValue();

	mov	ecx, DWORD PTR [ebx+4]
	add	ecx, esi
	call	?GetValue@CustomOption@CvPreGame@@QBEHXZ ; CvPreGame::CustomOption::GetValue
	mov	edx, DWORD PTR _iValue$[esp+8]
	pop	edi
	pop	esi
	mov	DWORD PTR [edx], eax

; 226  : 			return true;

	mov	al, 1
	pop	ebx

; 230  : }

	ret	20					; 00000014H
$LN1@GetGameOpt:
	pop	edi
	pop	esi

; 227  : 		}
; 228  : 	}
; 229  : 	return false;

	xor	al, al
	pop	ebx

; 230  : }

	ret	20					; 00000014H
?GetGameOption@CvDllPreGame@@UAG_NIPADIAAH@Z ENDP	; CvDllPreGame::GetGameOption
_TEXT	ENDS
EXTRN	?GetMapOptions@CvPreGame@@YAABV?$vector@VCustomOption@CvPreGame@@V?$allocator@VCustomOption@CvPreGame@@@std@@@std@@XZ:PROC ; CvPreGame::GetMapOptions
; Function compile flags: /Ogtpy
;	COMDAT ?GetMapOptionCount@CvDllPreGame@@UAGIXZ
_TEXT	SEGMENT
_this$ = 8						; size = 4
?GetMapOptionCount@CvDllPreGame@@UAGIXZ PROC		; CvDllPreGame::GetMapOptionCount, COMDAT

; 234  : 	return CvPreGame::GetMapOptions().size();

	call	?GetMapOptions@CvPreGame@@YAABV?$vector@VCustomOption@CvPreGame@@V?$allocator@VCustomOption@CvPreGame@@@std@@@std@@XZ ; CvPreGame::GetMapOptions
	mov	ecx, DWORD PTR [eax+8]
	sub	ecx, DWORD PTR [eax+4]
	mov	eax, 2021161081				; 78787879H
	imul	ecx
	sar	edx, 5
	mov	eax, edx
	shr	eax, 31					; 0000001fH
	add	eax, edx

; 235  : }

	ret	4
?GetMapOptionCount@CvDllPreGame@@UAGIXZ ENDP		; CvDllPreGame::GetMapOptionCount
; Function compile flags: /Ogtpy
_TEXT	ENDS
;	COMDAT ?GetMapOption@CvDllPreGame@@UAG_NIPADIAAH@Z
_TEXT	SEGMENT
_this$ = 8						; size = 4
_nSourceBufferSize$219653 = 12				; size = 4
_uiIndex$ = 12						; size = 4
_szOptionNameBuffer$ = 16				; size = 4
_nOptionNameBufferSize$ = 20				; size = 4
_iValue$ = 24						; size = 4
?GetMapOption@CvDllPreGame@@UAG_NIPADIAAH@Z PROC	; CvDllPreGame::GetMapOption, COMDAT

; 238  : {

	push	ebx
	push	esi
	push	edi

; 239  : 	const std::vector<CvPreGame::CustomOption>& kOptions = CvPreGame::GetMapOptions();

	call	?GetMapOptions@CvPreGame@@YAABV?$vector@VCustomOption@CvPreGame@@V?$allocator@VCustomOption@CvPreGame@@@std@@@std@@XZ ; CvPreGame::GetMapOptions
	mov	ebx, eax

; 240  : 	if(uiIndex < kOptions.size())

	mov	edi, DWORD PTR [ebx+4]
	mov	ecx, DWORD PTR [ebx+8]
	sub	ecx, edi
	mov	eax, 2021161081				; 78787879H
	imul	ecx
	mov	eax, DWORD PTR _uiIndex$[esp+8]
	sar	edx, 5
	mov	ecx, edx
	shr	ecx, 31					; 0000001fH
	add	ecx, edx
	cmp	eax, ecx
	jae	SHORT $LN1@GetMapOpti

; 241  : 	{
; 242  : 		size_t nSourceBufferSize;
; 243  : 		const char* pszSourceBuffer = kOptions[uiIndex].GetName(nSourceBufferSize);

	mov	esi, eax
	shl	esi, 4
	add	esi, eax
	add	esi, esi
	lea	edx, DWORD PTR _nSourceBufferSize$219653[esp+8]
	add	esi, esi
	lea	ecx, DWORD PTR [esi+edi]
	push	edx
	call	?GetName@CustomOption@CvPreGame@@QBEPBDAAI@Z ; CvPreGame::CustomOption::GetName

; 244  : 		if(nOptionNameBufferSize+1 > nSourceBufferSize)

	mov	ecx, DWORD PTR _nOptionNameBufferSize$[esp+8]
	inc	ecx
	cmp	ecx, DWORD PTR _nSourceBufferSize$219653[esp+8]
	jbe	SHORT $LN1@GetMapOpti

; 245  : 		{
; 246  : 			strcpy(szOptionNameBuffer, pszSourceBuffer);

	mov	edx, DWORD PTR _szOptionNameBuffer$[esp+8]
	sub	edx, eax
$LL5@GetMapOpti:
	mov	cl, BYTE PTR [eax]
	mov	BYTE PTR [edx+eax], cl
	inc	eax
	test	cl, cl
	jne	SHORT $LL5@GetMapOpti

; 247  : 			iValue = kOptions[uiIndex].GetValue();

	mov	ecx, DWORD PTR [ebx+4]
	add	ecx, esi
	call	?GetValue@CustomOption@CvPreGame@@QBEHXZ ; CvPreGame::CustomOption::GetValue
	mov	edx, DWORD PTR _iValue$[esp+8]
	pop	edi
	pop	esi
	mov	DWORD PTR [edx], eax

; 248  : 			return true;

	mov	al, 1
	pop	ebx

; 252  : }

	ret	20					; 00000014H
$LN1@GetMapOpti:
	pop	edi
	pop	esi

; 249  : 		}
; 250  : 	}
; 251  : 	return false;

	xor	al, al
	pop	ebx

; 252  : }

	ret	20					; 00000014H
?GetMapOption@CvDllPreGame@@UAG_NIPADIAAH@Z ENDP	; CvDllPreGame::GetMapOption
_TEXT	ENDS
EXTRN	?leaderName@CvPreGame@@YAABVCvString@@W4PlayerTypes@@@Z:PROC ; CvPreGame::leaderName
; Function compile flags: /Ogtpy
;	COMDAT ?leaderName@CvDllPreGame@@UAG?AVCvString@@W4PlayerTypes@@@Z
_TEXT	SEGMENT
$T222842 = -4						; size = 4
_this$ = 8						; size = 4
___$ReturnUdt$ = 12					; size = 4
_p$ = 16						; size = 4
?leaderName@CvDllPreGame@@UAG?AVCvString@@W4PlayerTypes@@@Z PROC ; CvDllPreGame::leaderName, COMDAT

; 376  : {

	push	ecx

; 377  : 	return CvPreGame::leaderName(p);

	mov	eax, DWORD PTR _p$[esp]
	push	esi
	push	eax
	mov	DWORD PTR $T222842[esp+12], 0
	call	?leaderName@CvPreGame@@YAABVCvString@@W4PlayerTypes@@@Z ; CvPreGame::leaderName
	mov	esi, DWORD PTR ___$ReturnUdt$[esp+8]
	add	esp, 4
	push	eax
	mov	ecx, esi
	call	DWORD PTR __imp_??0?$basic_string@DU?$char_traits@D@std@@V?$allocator@D@2@@std@@QAE@ABV01@@Z
	mov	eax, esi
	pop	esi

; 378  : }

	pop	ecx
	ret	12					; 0000000cH
?leaderName@CvDllPreGame@@UAG?AVCvString@@W4PlayerTypes@@@Z ENDP ; CvDllPreGame::leaderName
_TEXT	ENDS
EXTRN	?leaderNameKey@CvPreGame@@YAABVCvString@@W4PlayerTypes@@@Z:PROC ; CvPreGame::leaderNameKey
; Function compile flags: /Ogtpy
;	COMDAT ?leaderNameKey@CvDllPreGame@@UAG?BVCvString@@W4PlayerTypes@@@Z
_TEXT	SEGMENT
$T222853 = -4						; size = 4
_this$ = 8						; size = 4
___$ReturnUdt$ = 12					; size = 4
_p$ = 16						; size = 4
?leaderNameKey@CvDllPreGame@@UAG?BVCvString@@W4PlayerTypes@@@Z PROC ; CvDllPreGame::leaderNameKey, COMDAT

; 381  : {

	push	ecx

; 382  : 	return CvPreGame::leaderNameKey(p);

	mov	eax, DWORD PTR _p$[esp]
	push	esi
	push	eax
	mov	DWORD PTR $T222853[esp+12], 0
	call	?leaderNameKey@CvPreGame@@YAABVCvString@@W4PlayerTypes@@@Z ; CvPreGame::leaderNameKey
	mov	esi, DWORD PTR ___$ReturnUdt$[esp+8]
	add	esp, 4
	push	eax
	mov	ecx, esi
	call	DWORD PTR __imp_??0?$basic_string@DU?$char_traits@D@std@@V?$allocator@D@2@@std@@QAE@ABV01@@Z
	mov	eax, esi
	pop	esi

; 383  : }

	pop	ecx
	ret	12					; 0000000cH
?leaderNameKey@CvDllPreGame@@UAG?BVCvString@@W4PlayerTypes@@@Z ENDP ; CvDllPreGame::leaderNameKey
_TEXT	ENDS
EXTRN	?leaderKey@CvPreGame@@YAABVCvString@@W4PlayerTypes@@@Z:PROC ; CvPreGame::leaderKey
; Function compile flags: /Ogtpy
;	COMDAT ?leaderKey@CvDllPreGame@@UAG?BVCvString@@W4PlayerTypes@@@Z
_TEXT	SEGMENT
$T222864 = -4						; size = 4
_this$ = 8						; size = 4
___$ReturnUdt$ = 12					; size = 4
_p$ = 16						; size = 4
?leaderKey@CvDllPreGame@@UAG?BVCvString@@W4PlayerTypes@@@Z PROC ; CvDllPreGame::leaderKey, COMDAT

; 386  : {

	push	ecx

; 387  : 	return CvPreGame::leaderKey(p);

	mov	eax, DWORD PTR _p$[esp]
	push	esi
	push	eax
	mov	DWORD PTR $T222864[esp+12], 0
	call	?leaderKey@CvPreGame@@YAABVCvString@@W4PlayerTypes@@@Z ; CvPreGame::leaderKey
	mov	esi, DWORD PTR ___$ReturnUdt$[esp+8]
	add	esp, 4
	push	eax
	mov	ecx, esi
	call	DWORD PTR __imp_??0?$basic_string@DU?$char_traits@D@std@@V?$allocator@D@2@@std@@QAE@ABV01@@Z
	mov	eax, esi
	pop	esi

; 388  : }

	pop	ecx
	ret	12					; 0000000cH
?leaderKey@CvDllPreGame@@UAG?BVCvString@@W4PlayerTypes@@@Z ENDP ; CvDllPreGame::leaderKey
_TEXT	ENDS
EXTRN	?loadFileName@CvPreGame@@YAABVCvString@@XZ:PROC	; CvPreGame::loadFileName
; Function compile flags: /Ogtpy
;	COMDAT ?loadFileName@CvDllPreGame@@UAG?BVCvString@@XZ
_TEXT	SEGMENT
$T222875 = -4						; size = 4
_this$ = 8						; size = 4
___$ReturnUdt$ = 12					; size = 4
?loadFileName@CvDllPreGame@@UAG?BVCvString@@XZ PROC	; CvDllPreGame::loadFileName, COMDAT

; 401  : {

	push	ecx
	push	esi
	mov	DWORD PTR $T222875[esp+8], 0

; 402  : 	return CvPreGame::loadFileName();

	call	?loadFileName@CvPreGame@@YAABVCvString@@XZ ; CvPreGame::loadFileName
	mov	esi, DWORD PTR ___$ReturnUdt$[esp+4]
	push	eax
	mov	ecx, esi
	call	DWORD PTR __imp_??0?$basic_string@DU?$char_traits@D@std@@V?$allocator@D@2@@std@@QAE@ABV01@@Z
	mov	eax, esi
	pop	esi

; 403  : }

	pop	ecx
	ret	8
?loadFileName@CvDllPreGame@@UAG?BVCvString@@XZ ENDP	; CvDllPreGame::loadFileName
_TEXT	ENDS
EXTRN	?mapScriptName@CvPreGame@@YAABVCvString@@XZ:PROC ; CvPreGame::mapScriptName
; Function compile flags: /Ogtpy
;	COMDAT ?mapScriptName@CvDllPreGame@@UAG?BVCvString@@XZ
_TEXT	SEGMENT
$T222886 = -4						; size = 4
_this$ = 8						; size = 4
___$ReturnUdt$ = 12					; size = 4
?mapScriptName@CvDllPreGame@@UAG?BVCvString@@XZ PROC	; CvDllPreGame::mapScriptName, COMDAT

; 431  : {

	push	ecx
	push	esi
	mov	DWORD PTR $T222886[esp+8], 0

; 432  : 	return CvPreGame::mapScriptName();

	call	?mapScriptName@CvPreGame@@YAABVCvString@@XZ ; CvPreGame::mapScriptName
	mov	esi, DWORD PTR ___$ReturnUdt$[esp+4]
	push	eax
	mov	ecx, esi
	call	DWORD PTR __imp_??0?$basic_string@DU?$char_traits@D@std@@V?$allocator@D@2@@std@@QAE@ABV01@@Z
	mov	eax, esi
	pop	esi

; 433  : }

	pop	ecx
	ret	8
?mapScriptName@CvDllPreGame@@UAG?BVCvString@@XZ ENDP	; CvDllPreGame::mapScriptName
_TEXT	ENDS
EXTRN	?nickname@CvPreGame@@YAABVCvString@@W4PlayerTypes@@@Z:PROC ; CvPreGame::nickname
; Function compile flags: /Ogtpy
;	COMDAT ?nickname@CvDllPreGame@@UAG?BVCvString@@W4PlayerTypes@@@Z
_TEXT	SEGMENT
$T222897 = -4						; size = 4
_this$ = 8						; size = 4
___$ReturnUdt$ = 12					; size = 4
_p$ = 16						; size = 4
?nickname@CvDllPreGame@@UAG?BVCvString@@W4PlayerTypes@@@Z PROC ; CvDllPreGame::nickname, COMDAT

; 461  : {

	push	ecx

; 462  : 	return CvPreGame::nickname(p);

	mov	eax, DWORD PTR _p$[esp]
	push	esi
	push	eax
	mov	DWORD PTR $T222897[esp+12], 0
	call	?nickname@CvPreGame@@YAABVCvString@@W4PlayerTypes@@@Z ; CvPreGame::nickname
	mov	esi, DWORD PTR ___$ReturnUdt$[esp+8]
	add	esp, 4
	push	eax
	mov	ecx, esi
	call	DWORD PTR __imp_??0?$basic_string@DU?$char_traits@D@std@@V?$allocator@D@2@@std@@QAE@ABV01@@Z
	mov	eax, esi
	pop	esi

; 463  : }

	pop	ecx
	ret	12					; 0000000cH
?nickname@CvDllPreGame@@UAG?BVCvString@@W4PlayerTypes@@@Z ENDP ; CvDllPreGame::nickname
_TEXT	ENDS
EXTRN	?nicknameDisplayed@CvPreGame@@YAABVCvString@@W4PlayerTypes@@@Z:PROC ; CvPreGame::nicknameDisplayed
; Function compile flags: /Ogtpy
;	COMDAT ?nicknameDisplayed@CvDllPreGame@@UAG?BVCvString@@W4PlayerTypes@@@Z
_TEXT	SEGMENT
$T222908 = -4						; size = 4
_this$ = 8						; size = 4
___$ReturnUdt$ = 12					; size = 4
_p$ = 16						; size = 4
?nicknameDisplayed@CvDllPreGame@@UAG?BVCvString@@W4PlayerTypes@@@Z PROC ; CvDllPreGame::nicknameDisplayed, COMDAT

; 466  : {

	push	ecx

; 467  : 	return CvPreGame::nicknameDisplayed(p);

	mov	eax, DWORD PTR _p$[esp]
	push	esi
	push	eax
	mov	DWORD PTR $T222908[esp+12], 0
	call	?nicknameDisplayed@CvPreGame@@YAABVCvString@@W4PlayerTypes@@@Z ; CvPreGame::nicknameDisplayed
	mov	esi, DWORD PTR ___$ReturnUdt$[esp+8]
	add	esp, 4
	push	eax
	mov	ecx, esi
	call	DWORD PTR __imp_??0?$basic_string@DU?$char_traits@D@std@@V?$allocator@D@2@@std@@QAE@ABV01@@Z
	mov	eax, esi
	pop	esi

; 468  : }

	pop	ecx
	ret	12					; 0000000cH
?nicknameDisplayed@CvDllPreGame@@UAG?BVCvString@@W4PlayerTypes@@@Z ENDP ; CvDllPreGame::nicknameDisplayed
_TEXT	ENDS
EXTRN	?setLoadFileName@CvPreGame@@YAXABVCvString@@W4StorageLocation@@@Z:PROC ; CvPreGame::setLoadFileName
;	COMDAT xdata$x
; File c:\users\enormousapplepie\documents\github\lekmod\lekmod_dll\cvgamecoredllutil\include\cvstring.h
xdata$x	SEGMENT
__unwindtable$?SetLoadFileName@CvDllPreGame@@UAGXPBDW4StorageLocation@@@Z DD 0ffffffffH
	DD	FLAT:__unwindfunclet$?SetLoadFileName@CvDllPreGame@@UAGXPBDW4StorageLocation@@@Z$0
__ehfuncinfo$?SetLoadFileName@CvDllPreGame@@UAGXPBDW4StorageLocation@@@Z DD 019930522H
	DD	01H
	DD	FLAT:__unwindtable$?SetLoadFileName@CvDllPreGame@@UAGXPBDW4StorageLocation@@@Z
	DD	2 DUP(00H)
	DD	2 DUP(00H)
	DD	00H
	DD	01H
; Function compile flags: /Ogtpy
; File c:\users\enormousapplepie\documents\github\lekmod\lekmod_dll\cvgamecoredll_expansion2\cvdllpregame.cpp
xdata$x	ENDS
;	COMDAT ?SetLoadFileName@CvDllPreGame@@UAGXPBDW4StorageLocation@@@Z
_TEXT	SEGMENT
_strFileName$ = -40					; size = 28
__$EHRec$ = -12						; size = 12
_this$ = 8						; size = 4
_szFileName$ = 12					; size = 4
_eStorage$ = 16						; size = 4
?SetLoadFileName@CvDllPreGame@@UAGXPBDW4StorageLocation@@@Z PROC ; CvDllPreGame::SetLoadFileName, COMDAT

; 1096 : {

	mov	eax, DWORD PTR fs:0
	push	-1
	push	__ehhandler$?SetLoadFileName@CvDllPreGame@@UAGXPBDW4StorageLocation@@@Z
	push	eax

; 1097 : 	CvString strFileName = szFileName;

	mov	eax, DWORD PTR _szFileName$[esp+8]
	mov	DWORD PTR fs:0, esp
	sub	esp, 28					; 0000001cH
	test	eax, eax
	jne	SHORT $LN7@SetLoadFil
	mov	eax, OFFSET ??_C@_00CNPNBAHC@?$AA@
$LN7@SetLoadFil:
	push	eax
	lea	ecx, DWORD PTR _strFileName$[esp+44]
	call	DWORD PTR __imp_??0?$basic_string@DU?$char_traits@D@std@@V?$allocator@D@2@@std@@QAE@PBD@Z

; 1098 : 	CvPreGame::setLoadFileName(strFileName, eStorage);

	mov	eax, DWORD PTR _eStorage$[esp+36]
	push	eax
	lea	ecx, DWORD PTR _strFileName$[esp+44]
	push	ecx
	mov	DWORD PTR __$EHRec$[esp+56], 0
	call	?setLoadFileName@CvPreGame@@YAXABVCvString@@W4StorageLocation@@@Z ; CvPreGame::setLoadFileName
	add	esp, 8

; 1099 : }

	lea	ecx, DWORD PTR _strFileName$[esp+40]
	mov	DWORD PTR __$EHRec$[esp+48], -1
	call	DWORD PTR __imp_??1?$basic_string@DU?$char_traits@D@std@@V?$allocator@D@2@@std@@QAE@XZ
	mov	ecx, DWORD PTR __$EHRec$[esp+40]
	mov	DWORD PTR fs:0, ecx
	add	esp, 40					; 00000028H
	ret	12					; 0000000cH
_TEXT	ENDS
;	COMDAT text$x
text$x	SEGMENT
__unwindfunclet$?SetLoadFileName@CvDllPreGame@@UAGXPBDW4StorageLocation@@@Z$0:
	lea	ecx, DWORD PTR _strFileName$[ebp]
	jmp	??1CvString@@QAE@XZ			; CvString::~CvString
__ehhandler$?SetLoadFileName@CvDllPreGame@@UAGXPBDW4StorageLocation@@@Z:
	mov	eax, OFFSET __ehfuncinfo$?SetLoadFileName@CvDllPreGame@@UAGXPBDW4StorageLocation@@@Z
	jmp	___CxxFrameHandler3
text$x	ENDS
?SetLoadFileName@CvDllPreGame@@UAGXPBDW4StorageLocation@@@Z ENDP ; CvDllPreGame::SetLoadFileName
PUBLIC	??1?$auto_ptr@VICvEnumerator@@@std@@QAE@XZ	; std::auto_ptr<ICvEnumerator>::~auto_ptr<ICvEnumerator>
; Function compile flags: /Ogtpy
; File c:\program files (x86)\microsoft visual studio 9.0\vc\include\memory
;	COMDAT ??1?$auto_ptr@VICvEnumerator@@@std@@QAE@XZ
_TEXT	SEGMENT
??1?$auto_ptr@VICvEnumerator@@@std@@QAE@XZ PROC		; std::auto_ptr<ICvEnumerator>::~auto_ptr<ICvEnumerator>, COMDAT
; _this$ = ecx

; 721  : 		delete _Myptr;

	mov	eax, DWORD PTR [ecx]
	test	eax, eax
	je	SHORT $LN3@auto_ptr
	mov	ecx, DWORD PTR [eax]
	mov	edx, DWORD PTR [ecx+4]
	push	eax
	call	edx
$LN3@auto_ptr:

; 722  : 		}

	ret	0
??1?$auto_ptr@VICvEnumerator@@@std@@QAE@XZ ENDP		; std::auto_ptr<ICvEnumerator>::~auto_ptr<ICvEnumerator>
_TEXT	ENDS
PUBLIC	??0?$CvEnumerator@VICvDlcPackageInfo1@@@@QAE@PAVICvEnumerator@@@Z ; CvEnumerator<ICvDlcPackageInfo1>::CvEnumerator<ICvDlcPackageInfo1>
; Function compile flags: /Ogtpy
; File c:\users\enormousapplepie\documents\github\lekmod\lekmod_dll\cvgamecoredllutil\include\cvdllinterfaces.h
;	COMDAT ??0?$CvEnumerator@VICvDlcPackageInfo1@@@@QAE@PAVICvEnumerator@@@Z
_TEXT	SEGMENT
_pEnumerator$ = 8					; size = 4
??0?$CvEnumerator@VICvDlcPackageInfo1@@@@QAE@PAVICvEnumerator@@@Z PROC ; CvEnumerator<ICvDlcPackageInfo1>::CvEnumerator<ICvDlcPackageInfo1>, COMDAT
; _this$ = ecx

; 1845 : 	{}

	mov	eax, ecx
	mov	ecx, DWORD PTR _pEnumerator$[esp-4]
	mov	DWORD PTR [eax], ecx
	ret	4
??0?$CvEnumerator@VICvDlcPackageInfo1@@@@QAE@PAVICvEnumerator@@@Z ENDP ; CvEnumerator<ICvDlcPackageInfo1>::CvEnumerator<ICvDlcPackageInfo1>
_TEXT	ENDS
PUBLIC	??1?$auto_ptr@VICvDlcPackageInfo1@@@std@@QAE@XZ	; std::auto_ptr<ICvDlcPackageInfo1>::~auto_ptr<ICvDlcPackageInfo1>
; Function compile flags: /Ogtpy
; File c:\program files (x86)\microsoft visual studio 9.0\vc\include\memory
;	COMDAT ??1?$auto_ptr@VICvDlcPackageInfo1@@@std@@QAE@XZ
_TEXT	SEGMENT
??1?$auto_ptr@VICvDlcPackageInfo1@@@std@@QAE@XZ PROC	; std::auto_ptr<ICvDlcPackageInfo1>::~auto_ptr<ICvDlcPackageInfo1>, COMDAT
; _this$ = ecx

; 721  : 		delete _Myptr;

	mov	eax, DWORD PTR [ecx]
	test	eax, eax
	je	SHORT $LN3@auto_ptr@2
	mov	ecx, DWORD PTR [eax]
	mov	edx, DWORD PTR [ecx+4]
	push	eax
	call	edx
$LN3@auto_ptr@2:

; 722  : 		}

	ret	0
??1?$auto_ptr@VICvDlcPackageInfo1@@@std@@QAE@XZ ENDP	; std::auto_ptr<ICvDlcPackageInfo1>::~auto_ptr<ICvDlcPackageInfo1>
_TEXT	ENDS
PUBLIC	??C?$auto_ptr@VICvDlcPackageInfo1@@@std@@QBEPAVICvDlcPackageInfo1@@XZ ; std::auto_ptr<ICvDlcPackageInfo1>::operator->
; Function compile flags: /Ogtpy
;	COMDAT ??C?$auto_ptr@VICvDlcPackageInfo1@@@std@@QBEPAVICvDlcPackageInfo1@@XZ
_TEXT	SEGMENT
??C?$auto_ptr@VICvDlcPackageInfo1@@@std@@QBEPAVICvDlcPackageInfo1@@XZ PROC ; std::auto_ptr<ICvDlcPackageInfo1>::operator->, COMDAT
; _this$ = ecx

; 739  : 
; 740  :  #if _HAS_ITERATOR_DEBUGGING
; 741  : 		if (_Myptr == 0)
; 742  : 			_DEBUG_ERROR("auto_ptr not dereferencable");
; 743  :  #endif /* _HAS_ITERATOR_DEBUGGING */
; 744  : 
; 745  : 		return (get());

	mov	eax, DWORD PTR [ecx]

; 746  : 		}

	ret	0
??C?$auto_ptr@VICvDlcPackageInfo1@@@std@@QBEPAVICvDlcPackageInfo1@@XZ ENDP ; std::auto_ptr<ICvDlcPackageInfo1>::operator->
_TEXT	ENDS
PUBLIC	??1?$_List_nod@U_GUID@@V?$allocator@U_GUID@@@std@@@std@@QAE@XZ ; std::_List_nod<_GUID,std::allocator<_GUID> >::~_List_nod<_GUID,std::allocator<_GUID> >
; Function compile flags: /Ogtpy
;	COMDAT ??1?$_List_nod@U_GUID@@V?$allocator@U_GUID@@@std@@@std@@QAE@XZ
_TEXT	SEGMENT
??1?$_List_nod@U_GUID@@V?$allocator@U_GUID@@@std@@@std@@QAE@XZ PROC ; std::_List_nod<_GUID,std::allocator<_GUID> >::~_List_nod<_GUID,std::allocator<_GUID> >, COMDAT
; _this$ = ecx
	ret	0
??1?$_List_nod@U_GUID@@V?$allocator@U_GUID@@@std@@@std@@QAE@XZ ENDP ; std::_List_nod<_GUID,std::allocator<_GUID> >::~_List_nod<_GUID,std::allocator<_GUID> >
_TEXT	ENDS
PUBLIC	??C?$auto_ptr@VICvEnumerator@@@std@@QBEPAVICvEnumerator@@XZ ; std::auto_ptr<ICvEnumerator>::operator->
; Function compile flags: /Ogtpy
;	COMDAT ??C?$auto_ptr@VICvEnumerator@@@std@@QBEPAVICvEnumerator@@XZ
_TEXT	SEGMENT
??C?$auto_ptr@VICvEnumerator@@@std@@QBEPAVICvEnumerator@@XZ PROC ; std::auto_ptr<ICvEnumerator>::operator->, COMDAT
; _this$ = ecx

; 739  : 
; 740  :  #if _HAS_ITERATOR_DEBUGGING
; 741  : 		if (_Myptr == 0)
; 742  : 			_DEBUG_ERROR("auto_ptr not dereferencable");
; 743  :  #endif /* _HAS_ITERATOR_DEBUGGING */
; 744  : 
; 745  : 		return (get());

	mov	eax, DWORD PTR [ecx]

; 746  : 		}

	ret	0
??C?$auto_ptr@VICvEnumerator@@@std@@QBEPAVICvEnumerator@@XZ ENDP ; std::auto_ptr<ICvEnumerator>::operator->
_TEXT	ENDS
PUBLIC	??1?$auto_ptr@VICvUnknown@@@std@@QAE@XZ		; std::auto_ptr<ICvUnknown>::~auto_ptr<ICvUnknown>
; Function compile flags: /Ogtpy
;	COMDAT ??1?$auto_ptr@VICvUnknown@@@std@@QAE@XZ
_TEXT	SEGMENT
??1?$auto_ptr@VICvUnknown@@@std@@QAE@XZ PROC		; std::auto_ptr<ICvUnknown>::~auto_ptr<ICvUnknown>, COMDAT
; _this$ = ecx

; 721  : 		delete _Myptr;

	mov	eax, DWORD PTR [ecx]
	test	eax, eax
	je	SHORT $LN3@auto_ptr@3
	mov	ecx, DWORD PTR [eax]
	mov	edx, DWORD PTR [ecx+4]
	push	eax
	call	edx
$LN3@auto_ptr@3:

; 722  : 		}

	ret	0
??1?$auto_ptr@VICvUnknown@@@std@@QAE@XZ ENDP		; std::auto_ptr<ICvUnknown>::~auto_ptr<ICvUnknown>
_TEXT	ENDS
PUBLIC	??C?$auto_ptr@VICvUnknown@@@std@@QBEPAVICvUnknown@@XZ ; std::auto_ptr<ICvUnknown>::operator->
; Function compile flags: /Ogtpy
;	COMDAT ??C?$auto_ptr@VICvUnknown@@@std@@QBEPAVICvUnknown@@XZ
_TEXT	SEGMENT
??C?$auto_ptr@VICvUnknown@@@std@@QBEPAVICvUnknown@@XZ PROC ; std::auto_ptr<ICvUnknown>::operator->, COMDAT
; _this$ = ecx

; 739  : 
; 740  :  #if _HAS_ITERATOR_DEBUGGING
; 741  : 		if (_Myptr == 0)
; 742  : 			_DEBUG_ERROR("auto_ptr not dereferencable");
; 743  :  #endif /* _HAS_ITERATOR_DEBUGGING */
; 744  : 
; 745  : 		return (get());

	mov	eax, DWORD PTR [ecx]

; 746  : 		}

	ret	0
??C?$auto_ptr@VICvUnknown@@@std@@QBEPAVICvUnknown@@XZ ENDP ; std::auto_ptr<ICvUnknown>::operator->
_TEXT	ENDS
PUBLIC	?allocate@?$allocator@U_Node@?$_List_nod@U_GUID@@V?$allocator@U_GUID@@@std@@@std@@@std@@QAEPAU_Node@?$_List_nod@U_GUID@@V?$allocator@U_GUID@@@std@@@2@I@Z ; std::allocator<std::_List_nod<_GUID,std::allocator<_GUID> >::_Node>::allocate
; Function compile flags: /Ogtpy
; File c:\program files (x86)\microsoft visual studio 9.0\vc\include\xmemory
;	COMDAT ?allocate@?$allocator@U_Node@?$_List_nod@U_GUID@@V?$allocator@U_GUID@@@std@@@std@@@std@@QAEPAU_Node@?$_List_nod@U_GUID@@V?$allocator@U_GUID@@@std@@@2@I@Z
_TEXT	SEGMENT
__Count$ = 8						; size = 4
?allocate@?$allocator@U_Node@?$_List_nod@U_GUID@@V?$allocator@U_GUID@@@std@@@std@@@std@@QAEPAU_Node@?$_List_nod@U_GUID@@V?$allocator@U_GUID@@@std@@@2@I@Z PROC ; std::allocator<std::_List_nod<_GUID,std::allocator<_GUID> >::_Node>::allocate, COMDAT
; _this$ = ecx

; 145  : 		return (_Allocate(_Count, (pointer)0));

	mov	eax, DWORD PTR __Count$[esp-4]
	push	0
	push	eax
	call	??$_Allocate@U_Node@?$_List_nod@U_GUID@@V?$allocator@U_GUID@@@std@@@std@@@std@@YAPAU_Node@?$_List_nod@U_GUID@@V?$allocator@U_GUID@@@std@@@0@IPAU120@@Z ; std::_Allocate<std::_List_nod<_GUID,std::allocator<_GUID> >::_Node>
	add	esp, 8

; 146  : 		}

	ret	4
?allocate@?$allocator@U_Node@?$_List_nod@U_GUID@@V?$allocator@U_GUID@@@std@@@std@@@std@@QAEPAU_Node@?$_List_nod@U_GUID@@V?$allocator@U_GUID@@@std@@@2@I@Z ENDP ; std::allocator<std::_List_nod<_GUID,std::allocator<_GUID> >::_Node>::allocate
_TEXT	ENDS
PUBLIC	?construct@?$allocator@PAU_Node@?$_List_nod@U_GUID@@V?$allocator@U_GUID@@@std@@@std@@@std@@QAEXPAPAU_Node@?$_List_nod@U_GUID@@V?$allocator@U_GUID@@@std@@@2@ABQAU342@@Z ; std::allocator<std::_List_nod<_GUID,std::allocator<_GUID> >::_Node *>::construct
; Function compile flags: /Ogtpy
;	COMDAT ?construct@?$allocator@PAU_Node@?$_List_nod@U_GUID@@V?$allocator@U_GUID@@@std@@@std@@@std@@QAEXPAPAU_Node@?$_List_nod@U_GUID@@V?$allocator@U_GUID@@@std@@@2@ABQAU342@@Z
_TEXT	SEGMENT
__Ptr$ = 8						; size = 4
__Val$ = 12						; size = 4
?construct@?$allocator@PAU_Node@?$_List_nod@U_GUID@@V?$allocator@U_GUID@@@std@@@std@@@std@@QAEXPAPAU_Node@?$_List_nod@U_GUID@@V?$allocator@U_GUID@@@std@@@2@ABQAU342@@Z PROC ; std::allocator<std::_List_nod<_GUID,std::allocator<_GUID> >::_Node *>::construct, COMDAT
; _this$ = ecx

; 155  : 		_Construct(_Ptr, _Val);

	mov	eax, DWORD PTR __Ptr$[esp-4]
	test	eax, eax
	je	SHORT $LN5@construct
	mov	ecx, DWORD PTR __Val$[esp-4]
	mov	edx, DWORD PTR [ecx]
	mov	DWORD PTR [eax], edx
$LN5@construct:

; 156  : 		}

	ret	8
?construct@?$allocator@PAU_Node@?$_List_nod@U_GUID@@V?$allocator@U_GUID@@@std@@@std@@@std@@QAEXPAPAU_Node@?$_List_nod@U_GUID@@V?$allocator@U_GUID@@@std@@@2@ABQAU342@@Z ENDP ; std::allocator<std::_List_nod<_GUID,std::allocator<_GUID> >::_Node *>::construct
_TEXT	ENDS
PUBLIC	?destroy@?$allocator@PAU_Node@?$_List_nod@U_GUID@@V?$allocator@U_GUID@@@std@@@std@@@std@@QAEXPAPAU_Node@?$_List_nod@U_GUID@@V?$allocator@U_GUID@@@std@@@2@@Z ; std::allocator<std::_List_nod<_GUID,std::allocator<_GUID> >::_Node *>::destroy
; Function compile flags: /Ogtpy
;	COMDAT ?destroy@?$allocator@PAU_Node@?$_List_nod@U_GUID@@V?$allocator@U_GUID@@@std@@@std@@@std@@QAEXPAPAU_Node@?$_List_nod@U_GUID@@V?$allocator@U_GUID@@@std@@@2@@Z
_TEXT	SEGMENT
__Ptr$ = 8						; size = 4
?destroy@?$allocator@PAU_Node@?$_List_nod@U_GUID@@V?$allocator@U_GUID@@@std@@@std@@@std@@QAEXPAPAU_Node@?$_List_nod@U_GUID@@V?$allocator@U_GUID@@@std@@@2@@Z PROC ; std::allocator<std::_List_nod<_GUID,std::allocator<_GUID> >::_Node *>::destroy, COMDAT
; _this$ = ecx

; 160  : 		_Destroy(_Ptr);
; 161  : 		}

	ret	4
?destroy@?$allocator@PAU_Node@?$_List_nod@U_GUID@@V?$allocator@U_GUID@@@std@@@std@@@std@@QAEXPAPAU_Node@?$_List_nod@U_GUID@@V?$allocator@U_GUID@@@std@@@2@@Z ENDP ; std::allocator<std::_List_nod<_GUID,std::allocator<_GUID> >::_Node *>::destroy
_TEXT	ENDS
PUBLIC	??0?$_Iterator@$0A@@?$list@U_GUID@@V?$allocator@U_GUID@@@std@@@std@@QAE@PAU_Node@?$_List_nod@U_GUID@@V?$allocator@U_GUID@@@std@@@2@@Z ; std::list<_GUID,std::allocator<_GUID> >::_Iterator<0>::_Iterator<0>
; Function compile flags: /Ogtpy
; File c:\program files (x86)\microsoft visual studio 9.0\vc\include\list
;	COMDAT ??0?$_Iterator@$0A@@?$list@U_GUID@@V?$allocator@U_GUID@@@std@@@std@@QAE@PAU_Node@?$_List_nod@U_GUID@@V?$allocator@U_GUID@@@std@@@2@@Z
_TEXT	SEGMENT
__Pnode$ = 8						; size = 4
??0?$_Iterator@$0A@@?$list@U_GUID@@V?$allocator@U_GUID@@@std@@@std@@QAE@PAU_Node@?$_List_nod@U_GUID@@V?$allocator@U_GUID@@@std@@@2@@Z PROC ; std::list<_GUID,std::allocator<_GUID> >::_Iterator<0>::_Iterator<0>, COMDAT
; _this$ = ecx

; 367  : 			{	// construct with node pointer _Pnode

	mov	eax, ecx
	mov	ecx, DWORD PTR __Pnode$[esp-4]
	mov	DWORD PTR [eax], ecx

; 368  : 			}

	ret	4
??0?$_Iterator@$0A@@?$list@U_GUID@@V?$allocator@U_GUID@@@std@@@std@@QAE@PAU_Node@?$_List_nod@U_GUID@@V?$allocator@U_GUID@@@std@@@2@@Z ENDP ; std::list<_GUID,std::allocator<_GUID> >::_Iterator<0>::_Iterator<0>
_TEXT	ENDS
PUBLIC	?construct@?$allocator@U_GUID@@@std@@QAEXPAU_GUID@@ABU3@@Z ; std::allocator<_GUID>::construct
; Function compile flags: /Ogtpy
; File c:\program files (x86)\microsoft visual studio 9.0\vc\include\xmemory
;	COMDAT ?construct@?$allocator@U_GUID@@@std@@QAEXPAU_GUID@@ABU3@@Z
_TEXT	SEGMENT
__Ptr$ = 8						; size = 4
__Val$ = 12						; size = 4
?construct@?$allocator@U_GUID@@@std@@QAEXPAU_GUID@@ABU3@@Z PROC ; std::allocator<_GUID>::construct, COMDAT
; _this$ = ecx

; 155  : 		_Construct(_Ptr, _Val);

	mov	eax, DWORD PTR __Ptr$[esp-4]
	test	eax, eax
	je	SHORT $LN5@construct@2
	mov	ecx, DWORD PTR __Val$[esp-4]
	mov	edx, DWORD PTR [ecx]
	mov	DWORD PTR [eax], edx
	mov	edx, DWORD PTR [ecx+4]
	mov	DWORD PTR [eax+4], edx
	mov	edx, DWORD PTR [ecx+8]
	mov	DWORD PTR [eax+8], edx
	mov	ecx, DWORD PTR [ecx+12]
	mov	DWORD PTR [eax+12], ecx
$LN5@construct@2:

; 156  : 		}

	ret	8
?construct@?$allocator@U_GUID@@@std@@QAEXPAU_GUID@@ABU3@@Z ENDP ; std::allocator<_GUID>::construct
_TEXT	ENDS
PUBLIC	?max_size@?$list@U_GUID@@V?$allocator@U_GUID@@@std@@@std@@QBEIXZ ; std::list<_GUID,std::allocator<_GUID> >::max_size
; Function compile flags: /Ogtpy
; File c:\program files (x86)\microsoft visual studio 9.0\vc\include\list
;	COMDAT ?max_size@?$list@U_GUID@@V?$allocator@U_GUID@@@std@@@std@@QBEIXZ
_TEXT	SEGMENT
?max_size@?$list@U_GUID@@V?$allocator@U_GUID@@@std@@@std@@QBEIXZ PROC ; std::list<_GUID,std::allocator<_GUID> >::max_size, COMDAT
; _this$ = ecx

; 625  : 		return (this->_Alval.max_size());

	mov	eax, 268435455				; 0fffffffH

; 626  : 		}

	ret	0
?max_size@?$list@U_GUID@@V?$allocator@U_GUID@@@std@@@std@@QBEIXZ ENDP ; std::list<_GUID,std::allocator<_GUID> >::max_size
_TEXT	ENDS
PUBLIC	??0?$_List_nod@U_GUID@@V?$allocator@U_GUID@@@std@@@std@@IAE@V?$allocator@U_GUID@@@1@@Z ; std::_List_nod<_GUID,std::allocator<_GUID> >::_List_nod<_GUID,std::allocator<_GUID> >
; Function compile flags: /Ogtpy
;	COMDAT ??0?$_List_nod@U_GUID@@V?$allocator@U_GUID@@@std@@@std@@IAE@V?$allocator@U_GUID@@@1@@Z
_TEXT	SEGMENT
__Al$ = 8						; size = 1
??0?$_List_nod@U_GUID@@V?$allocator@U_GUID@@@std@@@std@@IAE@V?$allocator@U_GUID@@@1@@Z PROC ; std::_List_nod<_GUID,std::allocator<_GUID> >::_List_nod<_GUID,std::allocator<_GUID> >, COMDAT
; _this$ = ecx

; 47   : 		{	// construct allocator from _Al

	mov	eax, ecx

; 48   : 		}

	ret	4
??0?$_List_nod@U_GUID@@V?$allocator@U_GUID@@@std@@@std@@IAE@V?$allocator@U_GUID@@@1@@Z ENDP ; std::_List_nod<_GUID,std::allocator<_GUID> >::_List_nod<_GUID,std::allocator<_GUID> >
_TEXT	ENDS
PUBLIC	?destroy@?$allocator@U_Node@?$_List_nod@U_GUID@@V?$allocator@U_GUID@@@std@@@std@@@std@@QAEXPAU_Node@?$_List_nod@U_GUID@@V?$allocator@U_GUID@@@std@@@2@@Z ; std::allocator<std::_List_nod<_GUID,std::allocator<_GUID> >::_Node>::destroy
; Function compile flags: /Ogtpy
; File c:\program files (x86)\microsoft visual studio 9.0\vc\include\xmemory
;	COMDAT ?destroy@?$allocator@U_Node@?$_List_nod@U_GUID@@V?$allocator@U_GUID@@@std@@@std@@@std@@QAEXPAU_Node@?$_List_nod@U_GUID@@V?$allocator@U_GUID@@@std@@@2@@Z
_TEXT	SEGMENT
__Ptr$ = 8						; size = 4
?destroy@?$allocator@U_Node@?$_List_nod@U_GUID@@V?$allocator@U_GUID@@@std@@@std@@@std@@QAEXPAU_Node@?$_List_nod@U_GUID@@V?$allocator@U_GUID@@@std@@@2@@Z PROC ; std::allocator<std::_List_nod<_GUID,std::allocator<_GUID> >::_Node>::destroy, COMDAT
; _this$ = ecx

; 160  : 		_Destroy(_Ptr);
; 161  : 		}

	ret	4
?destroy@?$allocator@U_Node@?$_List_nod@U_GUID@@V?$allocator@U_GUID@@@std@@@std@@@std@@QAEXPAU_Node@?$_List_nod@U_GUID@@V?$allocator@U_GUID@@@std@@@2@@Z ENDP ; std::allocator<std::_List_nod<_GUID,std::allocator<_GUID> >::_Node>::destroy
_TEXT	ENDS
PUBLIC	??$QueryInterface@VICvEnumerator@@@ICvUnknown@@QAGPAVICvEnumerator@@XZ ; ICvUnknown::QueryInterface<ICvEnumerator>
; Function compile flags: /Ogtpy
; File c:\users\enormousapplepie\documents\github\lekmod\lekmod_dll\cvgamecoredllutil\include\cvdllinterfaces.h
;	COMDAT ??$QueryInterface@VICvEnumerator@@@ICvUnknown@@QAGPAVICvEnumerator@@XZ
_TEXT	SEGMENT
_this$ = 8						; size = 4
??$QueryInterface@VICvEnumerator@@@ICvUnknown@@QAGPAVICvEnumerator@@XZ PROC ; ICvUnknown::QueryInterface<ICvEnumerator>, COMDAT

; 322  :  		return static_cast<T*>(QueryInterface(T::GetInterfaceId()));

	mov	ecx, DWORD PTR _this$[esp-4]
	mov	edx, DWORD PTR [ecx]
	push	esi
	mov	esi, DWORD PTR _guidICvEnumerator
	sub	esp, 16					; 00000010H
	mov	eax, esp
	mov	DWORD PTR [eax], esi
	mov	esi, DWORD PTR _guidICvEnumerator+4
	mov	DWORD PTR [eax+4], esi
	mov	esi, DWORD PTR _guidICvEnumerator+8
	mov	DWORD PTR [eax+8], esi
	mov	esi, DWORD PTR _guidICvEnumerator+12
	mov	DWORD PTR [eax+12], esi
	mov	eax, DWORD PTR [edx]
	push	ecx
	call	eax

; 323  :  	}

	pop	esi
	ret	4
??$QueryInterface@VICvEnumerator@@@ICvUnknown@@QAGPAVICvEnumerator@@XZ ENDP ; ICvUnknown::QueryInterface<ICvEnumerator>
_TEXT	ENDS
PUBLIC	??$QueryInterface@VICvDlcPackageInfo1@@@ICvUnknown@@QAGPAVICvDlcPackageInfo1@@XZ ; ICvUnknown::QueryInterface<ICvDlcPackageInfo1>
; Function compile flags: /Ogtpy
;	COMDAT ??$QueryInterface@VICvDlcPackageInfo1@@@ICvUnknown@@QAGPAVICvDlcPackageInfo1@@XZ
_TEXT	SEGMENT
_this$ = 8						; size = 4
??$QueryInterface@VICvDlcPackageInfo1@@@ICvUnknown@@QAGPAVICvDlcPackageInfo1@@XZ PROC ; ICvUnknown::QueryInterface<ICvDlcPackageInfo1>, COMDAT

; 322  :  		return static_cast<T*>(QueryInterface(T::GetInterfaceId()));

	mov	ecx, DWORD PTR _this$[esp-4]
	mov	edx, DWORD PTR [ecx]
	push	esi
	mov	esi, DWORD PTR _guidICvDlcPackageInfo1
	sub	esp, 16					; 00000010H
	mov	eax, esp
	mov	DWORD PTR [eax], esi
	mov	esi, DWORD PTR _guidICvDlcPackageInfo1+4
	mov	DWORD PTR [eax+4], esi
	mov	esi, DWORD PTR _guidICvDlcPackageInfo1+8
	mov	DWORD PTR [eax+8], esi
	mov	esi, DWORD PTR _guidICvDlcPackageInfo1+12
	mov	DWORD PTR [eax+12], esi
	mov	eax, DWORD PTR [edx]
	push	ecx
	call	eax

; 323  :  	}

	pop	esi
	ret	4
??$QueryInterface@VICvDlcPackageInfo1@@@ICvUnknown@@QAGPAVICvDlcPackageInfo1@@XZ ENDP ; ICvUnknown::QueryInterface<ICvDlcPackageInfo1>
_TEXT	ENDS
EXTRN	?sr_TeamTypes@CvPreGame@@3ABV?$vector@W4TeamTypes@@V?$allocator@W4TeamTypes@@@std@@@std@@B:DWORD ; CvPreGame::sr_TeamTypes
; Function compile flags: /Ogtpy
; File c:\users\enormousapplepie\documents\github\lekmod\lekmod_dll\cvgamecoredll_expansion2\cvpregame.h
;	COMDAT ?teamType@CvPreGame@@YA?AW4TeamTypes@@W4PlayerTypes@@@Z
_TEXT	SEGMENT
?teamType@CvPreGame@@YA?AW4TeamTypes@@W4PlayerTypes@@@Z PROC ; CvPreGame::teamType, COMDAT
; _p$ = eax

; 299  : 	if(p >= 0 && p < MAX_PLAYERS)

	cmp	eax, 63					; 0000003fH
	ja	SHORT $LN1@teamType

; 300  : 		return sr_TeamTypes[p];

	mov	ecx, DWORD PTR ?sr_TeamTypes@CvPreGame@@3ABV?$vector@W4TeamTypes@@V?$allocator@W4TeamTypes@@@std@@@std@@B ; CvPreGame::sr_TeamTypes
	mov	edx, DWORD PTR [ecx+4]
	mov	eax, DWORD PTR [edx+eax*4]

; 302  : }

	ret	0
$LN1@teamType:

; 301  : 	return NO_TEAM;

	or	eax, -1

; 302  : }

	ret	0
?teamType@CvPreGame@@YA?AW4TeamTypes@@W4PlayerTypes@@@Z ENDP ; CvPreGame::teamType
_TEXT	ENDS
PUBLIC	??_7ICvPreGame2@@6B@				; ICvPreGame2::`vftable'
PUBLIC	??0ICvPreGame2@@QAE@XZ				; ICvPreGame2::ICvPreGame2
PUBLIC	??_R4ICvPreGame2@@6B@				; ICvPreGame2::`RTTI Complete Object Locator'
;	COMDAT ??_R4ICvPreGame2@@6B@
rdata$r	SEGMENT
??_R4ICvPreGame2@@6B@ DD 00H				; ICvPreGame2::`RTTI Complete Object Locator'
	DD	00H
	DD	00H
	DD	FLAT:??_R0?AVICvPreGame2@@@8
	DD	FLAT:??_R3ICvPreGame2@@8
rdata$r	ENDS
;	COMDAT ??_7ICvPreGame2@@6B@
CONST	SEGMENT
??_7ICvPreGame2@@6B@ DD FLAT:??_R4ICvPreGame2@@6B@	; ICvPreGame2::`vftable'
	DD	FLAT:__purecall
	DD	FLAT:__purecall
	DD	FLAT:__purecall
	DD	FLAT:__purecall
	DD	FLAT:__purecall
	DD	FLAT:__purecall
	DD	FLAT:__purecall
	DD	FLAT:__purecall
	DD	FLAT:__purecall
	DD	FLAT:__purecall
	DD	FLAT:__purecall
	DD	FLAT:__purecall
	DD	FLAT:__purecall
	DD	FLAT:__purecall
	DD	FLAT:__purecall
	DD	FLAT:__purecall
	DD	FLAT:__purecall
	DD	FLAT:__purecall
	DD	FLAT:__purecall
	DD	FLAT:__purecall
	DD	FLAT:__purecall
	DD	FLAT:__purecall
	DD	FLAT:__purecall
	DD	FLAT:__purecall
	DD	FLAT:__purecall
	DD	FLAT:__purecall
	DD	FLAT:__purecall
	DD	FLAT:__purecall
	DD	FLAT:__purecall
	DD	FLAT:__purecall
	DD	FLAT:__purecall
	DD	FLAT:__purecall
	DD	FLAT:__purecall
	DD	FLAT:__purecall
	DD	FLAT:__purecall
	DD	FLAT:__purecall
	DD	FLAT:__purecall
	DD	FLAT:__purecall
	DD	FLAT:__purecall
	DD	FLAT:__purecall
	DD	FLAT:__purecall
	DD	FLAT:__purecall
	DD	FLAT:__purecall
	DD	FLAT:__purecall
	DD	FLAT:__purecall
	DD	FLAT:__purecall
	DD	FLAT:__purecall
	DD	FLAT:__purecall
	DD	FLAT:__purecall
	DD	FLAT:__purecall
	DD	FLAT:__purecall
	DD	FLAT:__purecall
	DD	FLAT:__purecall
	DD	FLAT:__purecall
	DD	FLAT:__purecall
	DD	FLAT:__purecall
	DD	FLAT:__purecall
	DD	FLAT:__purecall
	DD	FLAT:__purecall
	DD	FLAT:__purecall
	DD	FLAT:__purecall
	DD	FLAT:__purecall
	DD	FLAT:__purecall
	DD	FLAT:__purecall
	DD	FLAT:__purecall
	DD	FLAT:__purecall
	DD	FLAT:__purecall
	DD	FLAT:__purecall
	DD	FLAT:__purecall
	DD	FLAT:__purecall
	DD	FLAT:__purecall
	DD	FLAT:__purecall
	DD	FLAT:__purecall
	DD	FLAT:__purecall
	DD	FLAT:__purecall
	DD	FLAT:__purecall
	DD	FLAT:__purecall
	DD	FLAT:__purecall
	DD	FLAT:__purecall
	DD	FLAT:__purecall
	DD	FLAT:__purecall
	DD	FLAT:__purecall
	DD	FLAT:__purecall
	DD	FLAT:__purecall
	DD	FLAT:__purecall
	DD	FLAT:__purecall
	DD	FLAT:__purecall
	DD	FLAT:__purecall
	DD	FLAT:__purecall
	DD	FLAT:__purecall
	DD	FLAT:__purecall
	DD	FLAT:__purecall
	DD	FLAT:__purecall
	DD	FLAT:__purecall
	DD	FLAT:__purecall
	DD	FLAT:__purecall
	DD	FLAT:__purecall
	DD	FLAT:__purecall
	DD	FLAT:__purecall
	DD	FLAT:__purecall
	DD	FLAT:__purecall
	DD	FLAT:__purecall
	DD	FLAT:__purecall
	DD	FLAT:__purecall
	DD	FLAT:__purecall
	DD	FLAT:__purecall
	DD	FLAT:__purecall
	DD	FLAT:__purecall
	DD	FLAT:__purecall
	DD	FLAT:__purecall
	DD	FLAT:__purecall
	DD	FLAT:__purecall
	DD	FLAT:__purecall
	DD	FLAT:__purecall
	DD	FLAT:__purecall
	DD	FLAT:__purecall
	DD	FLAT:__purecall
	DD	FLAT:__purecall
	DD	FLAT:__purecall
	DD	FLAT:__purecall
	DD	FLAT:__purecall
	DD	FLAT:__purecall
	DD	FLAT:__purecall
	DD	FLAT:__purecall
	DD	FLAT:__purecall
	DD	FLAT:__purecall
	DD	FLAT:__purecall
	DD	FLAT:__purecall
	DD	FLAT:__purecall
	DD	FLAT:__purecall
	DD	FLAT:__purecall
	DD	FLAT:__purecall
	DD	FLAT:__purecall
	DD	FLAT:__purecall
	DD	FLAT:__purecall
	DD	FLAT:__purecall
	DD	FLAT:__purecall
	DD	FLAT:__purecall
	DD	FLAT:__purecall
	DD	FLAT:__purecall
	DD	FLAT:__purecall
	DD	FLAT:__purecall
	DD	FLAT:__purecall
	DD	FLAT:__purecall
	DD	FLAT:__purecall
	DD	FLAT:__purecall
	DD	FLAT:__purecall
	DD	FLAT:__purecall
	DD	FLAT:__purecall
	DD	FLAT:__purecall
	DD	FLAT:__purecall
	DD	FLAT:__purecall
	DD	FLAT:__purecall
	DD	FLAT:__purecall
	DD	FLAT:__purecall
	DD	FLAT:__purecall
	DD	FLAT:__purecall
	DD	FLAT:__purecall
	DD	FLAT:__purecall
	DD	FLAT:__purecall
	DD	FLAT:__purecall
	DD	FLAT:__purecall
	DD	FLAT:__purecall
	DD	FLAT:__purecall
	DD	FLAT:__purecall
	DD	FLAT:__purecall
	DD	FLAT:__purecall
	DD	FLAT:__purecall
	DD	FLAT:__purecall
	DD	FLAT:__purecall
	DD	FLAT:__purecall
	DD	FLAT:__purecall
	DD	FLAT:__purecall
	DD	FLAT:__purecall
	DD	FLAT:__purecall
	DD	FLAT:__purecall
	DD	FLAT:__purecall
	DD	FLAT:__purecall
	DD	FLAT:__purecall
	DD	FLAT:__purecall
	DD	FLAT:__purecall
	DD	FLAT:__purecall
	DD	FLAT:__purecall
	DD	FLAT:__purecall
	DD	FLAT:__purecall
	DD	FLAT:__purecall
	DD	FLAT:__purecall
	DD	FLAT:__purecall
	DD	FLAT:__purecall
	DD	FLAT:__purecall
	DD	FLAT:__purecall
	DD	FLAT:__purecall
	DD	FLAT:__purecall
	DD	FLAT:__purecall
	DD	FLAT:__purecall
	DD	FLAT:__purecall
	DD	FLAT:__purecall
	DD	FLAT:__purecall
	DD	FLAT:__purecall
	DD	FLAT:__purecall
	DD	FLAT:__purecall
	DD	FLAT:__purecall
	DD	FLAT:__purecall
	DD	FLAT:__purecall
	DD	FLAT:__purecall
	DD	FLAT:__purecall
	DD	FLAT:__purecall
	DD	FLAT:__purecall
	DD	FLAT:__purecall
	DD	FLAT:__purecall
	DD	FLAT:__purecall
	DD	FLAT:__purecall
	DD	FLAT:__purecall
	DD	FLAT:__purecall
	DD	FLAT:__purecall
	DD	FLAT:__purecall
	DD	FLAT:__purecall
; Function compile flags: /Ogtpy
CONST	ENDS
;	COMDAT ??0ICvPreGame2@@QAE@XZ
_TEXT	SEGMENT
??0ICvPreGame2@@QAE@XZ PROC				; ICvPreGame2::ICvPreGame2, COMDAT
; _this$ = ecx
	mov	eax, ecx
	mov	DWORD PTR [eax], OFFSET ??_7ICvPreGame2@@6B@
	ret	0
??0ICvPreGame2@@QAE@XZ ENDP				; ICvPreGame2::ICvPreGame2
; Function compile flags: /Ogtpy
; File c:\users\enormousapplepie\documents\github\lekmod\lekmod_dll\cvgamecoredll_expansion2\cvdllpregame.cpp
_TEXT	ENDS
;	COMDAT ?Destroy@CvDllPreGame@@EAGXXZ
_TEXT	SEGMENT
_this$ = 8						; size = 4
?Destroy@CvDllPreGame@@EAGXXZ PROC			; CvDllPreGame::Destroy, COMDAT

; 37   : 	delete this;

	mov	eax, DWORD PTR _this$[esp-4]
	test	eax, eax
	je	SHORT $LN3@Destroy
	push	eax
	mov	DWORD PTR [eax], OFFSET ??_7CvDllPreGame@@6B@
	call	?Free@CvDllGameContext@@SAXPAX@Z	; CvDllGameContext::Free
	pop	ecx
$LN3@Destroy:

; 38   : }

	ret	4
?Destroy@CvDllPreGame@@EAGXXZ ENDP			; CvDllPreGame::Destroy
; Function compile flags: /Ogtpy
_TEXT	ENDS
;	COMDAT ?teamType@CvDllPreGame@@UAG?AW4TeamTypes@@W4PlayerTypes@@@Z
_TEXT	SEGMENT
_this$ = 8						; size = 4
_p$ = 12						; size = 4
?teamType@CvDllPreGame@@UAG?AW4TeamTypes@@W4PlayerTypes@@@Z PROC ; CvDllPreGame::teamType, COMDAT

; 1046 : 	return CvPreGame::teamType(p);

	mov	eax, DWORD PTR _p$[esp-4]
	cmp	eax, 63					; 0000003fH
	ja	SHORT $LN3@teamType@2
	mov	ecx, DWORD PTR ?sr_TeamTypes@CvPreGame@@3ABV?$vector@W4TeamTypes@@V?$allocator@W4TeamTypes@@@std@@@std@@B ; CvPreGame::sr_TeamTypes
	mov	edx, DWORD PTR [ecx+4]
	mov	eax, DWORD PTR [edx+eax*4]

; 1047 : }

	ret	8

; 1046 : 	return CvPreGame::teamType(p);

$LN3@teamType@2:
	or	eax, -1

; 1047 : }

	ret	8
?teamType@CvDllPreGame@@UAG?AW4TeamTypes@@W4PlayerTypes@@@Z ENDP ; CvDllPreGame::teamType
_TEXT	ENDS
PUBLIC	??1?$CvEnumerator@VICvDlcPackageInfo1@@@@QAE@XZ	; CvEnumerator<ICvDlcPackageInfo1>::~CvEnumerator<ICvDlcPackageInfo1>
; Function compile flags: /Ogtpy
;	COMDAT ??1?$CvEnumerator@VICvDlcPackageInfo1@@@@QAE@XZ
_TEXT	SEGMENT
??1?$CvEnumerator@VICvDlcPackageInfo1@@@@QAE@XZ PROC	; CvEnumerator<ICvDlcPackageInfo1>::~CvEnumerator<ICvDlcPackageInfo1>, COMDAT
; _this$ = ecx
	mov	eax, DWORD PTR [ecx]
	test	eax, eax
	je	SHORT $LN6@CvEnumerat
	mov	ecx, DWORD PTR [eax]
	mov	edx, DWORD PTR [ecx+4]
	push	eax
	call	edx
$LN6@CvEnumerat:
	ret	0
??1?$CvEnumerator@VICvDlcPackageInfo1@@@@QAE@XZ ENDP	; CvEnumerator<ICvDlcPackageInfo1>::~CvEnumerator<ICvDlcPackageInfo1>
_TEXT	ENDS
PUBLIC	?MoveNext@?$CvEnumerator@VICvDlcPackageInfo1@@@@QAE_NXZ ; CvEnumerator<ICvDlcPackageInfo1>::MoveNext
; Function compile flags: /Ogtpy
; File c:\users\enormousapplepie\documents\github\lekmod\lekmod_dll\cvgamecoredllutil\include\cvdllinterfaces.h
;	COMDAT ?MoveNext@?$CvEnumerator@VICvDlcPackageInfo1@@@@QAE_NXZ
_TEXT	SEGMENT
?MoveNext@?$CvEnumerator@VICvDlcPackageInfo1@@@@QAE_NXZ PROC ; CvEnumerator<ICvDlcPackageInfo1>::MoveNext, COMDAT
; _this$ = ecx

; 1849 : 		return (m_Enumerator.get() != NULL)? m_Enumerator->MoveNext() : false;

	mov	eax, DWORD PTR [ecx]
	test	eax, eax
	je	SHORT $LN3@MoveNext
	mov	ecx, DWORD PTR [eax]
	mov	edx, DWORD PTR [ecx+8]
	push	eax
	call	edx

; 1850 : 	}

	ret	0
$LN3@MoveNext:

; 1849 : 		return (m_Enumerator.get() != NULL)? m_Enumerator->MoveNext() : false;

	xor	al, al

; 1850 : 	}

	ret	0
?MoveNext@?$CvEnumerator@VICvDlcPackageInfo1@@@@QAE_NXZ ENDP ; CvEnumerator<ICvDlcPackageInfo1>::MoveNext
_TEXT	ENDS
PUBLIC	?GetCurrent@?$CvEnumerator@VICvDlcPackageInfo1@@@@QAEPAVICvDlcPackageInfo1@@XZ ; CvEnumerator<ICvDlcPackageInfo1>::GetCurrent
;	COMDAT xdata$x
xdata$x	SEGMENT
__unwindtable$?GetCurrent@?$CvEnumerator@VICvDlcPackageInfo1@@@@QAEPAVICvDlcPackageInfo1@@XZ DD 0ffffffffH
	DD	FLAT:__unwindfunclet$?GetCurrent@?$CvEnumerator@VICvDlcPackageInfo1@@@@QAEPAVICvDlcPackageInfo1@@XZ$0
__ehfuncinfo$?GetCurrent@?$CvEnumerator@VICvDlcPackageInfo1@@@@QAEPAVICvDlcPackageInfo1@@XZ DD 019930522H
	DD	01H
	DD	FLAT:__unwindtable$?GetCurrent@?$CvEnumerator@VICvDlcPackageInfo1@@@@QAEPAVICvDlcPackageInfo1@@XZ
	DD	2 DUP(00H)
	DD	2 DUP(00H)
	DD	00H
	DD	01H
; Function compile flags: /Ogtpy
xdata$x	ENDS
;	COMDAT ?GetCurrent@?$CvEnumerator@VICvDlcPackageInfo1@@@@QAEPAVICvDlcPackageInfo1@@XZ
_TEXT	SEGMENT
_pValue$221095 = -16					; size = 4
__$EHRec$ = -12						; size = 12
?GetCurrent@?$CvEnumerator@VICvDlcPackageInfo1@@@@QAEPAVICvDlcPackageInfo1@@XZ PROC ; CvEnumerator<ICvDlcPackageInfo1>::GetCurrent, COMDAT
; _this$ = ecx

; 1859 : 	{

	push	-1
	push	__ehhandler$?GetCurrent@?$CvEnumerator@VICvDlcPackageInfo1@@@@QAEPAVICvDlcPackageInfo1@@XZ
	mov	eax, DWORD PTR fs:0
	push	eax
	mov	DWORD PTR fs:0, esp
	push	ecx

; 1860 : 		if(m_Enumerator.get() != NULL)

	mov	eax, DWORD PTR [ecx]
	test	eax, eax
	je	SHORT $LN2@GetCurrent

; 1861 : 		{
; 1862 : 			auto_ptr<ICvUnknown> pValue(m_Enumerator->GetCurrent());

	mov	ecx, DWORD PTR [eax]
	mov	edx, DWORD PTR [ecx+16]
	push	esi
	push	edi
	push	eax
	call	edx
	mov	esi, eax
	mov	DWORD PTR _pValue$221095[esp+24], esi
	mov	DWORD PTR __$EHRec$[esp+32], 0

; 1863 : 			return (pValue.get() != NULL)? pValue->QueryInterface<T>() : NULL;

	test	esi, esi
	je	SHORT $LN5@GetCurrent
	push	esi
	call	??$QueryInterface@VICvDlcPackageInfo1@@@ICvUnknown@@QAGPAVICvDlcPackageInfo1@@XZ ; ICvUnknown::QueryInterface<ICvDlcPackageInfo1>
	mov	edi, eax
	jmp	SHORT $LN6@GetCurrent
$LN5@GetCurrent:
	xor	edi, edi
$LN6@GetCurrent:
	mov	DWORD PTR __$EHRec$[esp+32], -1
	test	esi, esi
	je	SHORT $LN24@GetCurrent
	mov	eax, DWORD PTR [esi]
	mov	ecx, DWORD PTR [eax+4]
	push	esi
	call	ecx
$LN24@GetCurrent:
	mov	eax, edi
	pop	edi
	pop	esi

; 1864 : 		}
; 1865 : 		else
; 1866 : 		{
; 1867 : 			return NULL;
; 1868 : 		}	
; 1869 : 	}

	mov	ecx, DWORD PTR __$EHRec$[esp+16]
	mov	DWORD PTR fs:0, ecx
	add	esp, 16					; 00000010H
	ret	0
$LN2@GetCurrent:
	mov	ecx, DWORD PTR __$EHRec$[esp+16]
	xor	eax, eax
	mov	DWORD PTR fs:0, ecx
	add	esp, 16					; 00000010H
	ret	0
_TEXT	ENDS
;	COMDAT text$x
text$x	SEGMENT
__unwindfunclet$?GetCurrent@?$CvEnumerator@VICvDlcPackageInfo1@@@@QAEPAVICvDlcPackageInfo1@@XZ$0:
	lea	ecx, DWORD PTR _pValue$221095[ebp]
	jmp	??1?$auto_ptr@VICvUnknown@@@std@@QAE@XZ	; std::auto_ptr<ICvUnknown>::~auto_ptr<ICvUnknown>
__ehhandler$?GetCurrent@?$CvEnumerator@VICvDlcPackageInfo1@@@@QAEPAVICvDlcPackageInfo1@@XZ:
	mov	eax, OFFSET __ehfuncinfo$?GetCurrent@?$CvEnumerator@VICvDlcPackageInfo1@@@@QAEPAVICvDlcPackageInfo1@@XZ
	jmp	___CxxFrameHandler3
text$x	ENDS
?GetCurrent@?$CvEnumerator@VICvDlcPackageInfo1@@@@QAEPAVICvDlcPackageInfo1@@XZ ENDP ; CvEnumerator<ICvDlcPackageInfo1>::GetCurrent
PUBLIC	??1?$_List_ptr@U_GUID@@V?$allocator@U_GUID@@@std@@@std@@QAE@XZ ; std::_List_ptr<_GUID,std::allocator<_GUID> >::~_List_ptr<_GUID,std::allocator<_GUID> >
; Function compile flags: /Ogtpy
;	COMDAT ??1?$_List_ptr@U_GUID@@V?$allocator@U_GUID@@@std@@@std@@QAE@XZ
_TEXT	SEGMENT
??1?$_List_ptr@U_GUID@@V?$allocator@U_GUID@@@std@@@std@@QAE@XZ PROC ; std::_List_ptr<_GUID,std::allocator<_GUID> >::~_List_ptr<_GUID,std::allocator<_GUID> >, COMDAT
; _this$ = ecx
	ret	0
??1?$_List_ptr@U_GUID@@V?$allocator@U_GUID@@@std@@@std@@QAE@XZ ENDP ; std::_List_ptr<_GUID,std::allocator<_GUID> >::~_List_ptr<_GUID,std::allocator<_GUID> >
_TEXT	ENDS
PUBLIC	?end@?$list@U_GUID@@V?$allocator@U_GUID@@@std@@@std@@QAE?AV?$_Iterator@$0A@@12@XZ ; std::list<_GUID,std::allocator<_GUID> >::end
; Function compile flags: /Ogtpy
; File c:\program files (x86)\microsoft visual studio 9.0\vc\include\list
;	COMDAT ?end@?$list@U_GUID@@V?$allocator@U_GUID@@@std@@@std@@QAE?AV?$_Iterator@$0A@@12@XZ
_TEXT	SEGMENT
___$ReturnUdt$ = 8					; size = 4
?end@?$list@U_GUID@@V?$allocator@U_GUID@@@std@@@std@@QAE?AV?$_Iterator@$0A@@12@XZ PROC ; std::list<_GUID,std::allocator<_GUID> >::end, COMDAT
; _this$ = ecx

; 570  : 		return (iterator(_Myhead));

	mov	ecx, DWORD PTR [ecx+4]
	mov	eax, DWORD PTR ___$ReturnUdt$[esp-4]
	mov	DWORD PTR [eax], ecx

; 571  : 		}

	ret	4
?end@?$list@U_GUID@@V?$allocator@U_GUID@@@std@@@std@@QAE?AV?$_Iterator@$0A@@12@XZ ENDP ; std::list<_GUID,std::allocator<_GUID> >::end
_TEXT	ENDS
PUBLIC	?_Buynode@?$list@U_GUID@@V?$allocator@U_GUID@@@std@@@std@@IAEPAU_Node@?$_List_nod@U_GUID@@V?$allocator@U_GUID@@@std@@@2@XZ ; std::list<_GUID,std::allocator<_GUID> >::_Buynode
; Function compile flags: /Ogtpy
;	COMDAT ?_Buynode@?$list@U_GUID@@V?$allocator@U_GUID@@@std@@@std@@IAEPAU_Node@?$_List_nod@U_GUID@@V?$allocator@U_GUID@@@std@@@2@XZ
_TEXT	SEGMENT
?_Buynode@?$list@U_GUID@@V?$allocator@U_GUID@@@std@@@std@@IAEPAU_Node@?$_List_nod@U_GUID@@V?$allocator@U_GUID@@@std@@@2@XZ PROC ; std::list<_GUID,std::allocator<_GUID> >::_Buynode, COMDAT
; _this$ = ecx

; 1172 : 		_Nodeptr _Pnode = this->_Alnod.allocate(1);

	push	24					; 00000018H
	call	??2@YAPAXI@Z				; operator new
	add	esp, 4

; 1173 : 		int _Linkcnt = 0;
; 1174 : 
; 1175 : 		_TRY_BEGIN
; 1176 : 		this->_Alptr.construct(&_Nextnode(_Pnode), _Pnode);

	test	eax, eax
	je	SHORT $LN26@Buynode
	mov	DWORD PTR [eax], eax
$LN26@Buynode:

; 1177 : 		++_Linkcnt;
; 1178 : 		this->_Alptr.construct(&_Prevnode(_Pnode), _Pnode);

	lea	ecx, DWORD PTR [eax+4]
	test	ecx, ecx
	je	SHORT $LN36@Buynode
	mov	DWORD PTR [ecx], eax
$LN36@Buynode:

; 1179 : 		_CATCH_ALL
; 1180 : 		if (0 < _Linkcnt)
; 1181 : 			this->_Alptr.destroy(&_Nextnode(_Pnode));
; 1182 : 		this->_Alnod.deallocate(_Pnode, 1);
; 1183 : 		_RERAISE;
; 1184 : 		_CATCH_END
; 1185 : 		return (_Pnode);
; 1186 : 		}

	ret	0
?_Buynode@?$list@U_GUID@@V?$allocator@U_GUID@@@std@@@std@@IAEPAU_Node@?$_List_nod@U_GUID@@V?$allocator@U_GUID@@@std@@@2@XZ ENDP ; std::list<_GUID,std::allocator<_GUID> >::_Buynode
_TEXT	ENDS
PUBLIC	?clear@?$list@U_GUID@@V?$allocator@U_GUID@@@std@@@std@@QAEXXZ ; std::list<_GUID,std::allocator<_GUID> >::clear
; Function compile flags: /Ogtpy
;	COMDAT ?clear@?$list@U_GUID@@V?$allocator@U_GUID@@@std@@@std@@QAEXXZ
_TEXT	SEGMENT
?clear@?$list@U_GUID@@V?$allocator@U_GUID@@@std@@@std@@QAEXXZ PROC ; std::list<_GUID,std::allocator<_GUID> >::clear, COMDAT
; _this$ = ecx

; 825  : 		{	// erase all

	push	esi
	mov	esi, ecx

; 826  : 
; 827  :  #if _HAS_ITERATOR_DEBUGGING
; 828  : 		this->_Orphan_ptr(*this, 0);
; 829  :  #endif /* _HAS_ITERATOR_DEBUGGING */
; 830  : 
; 831  : 		_Nodeptr _Pnext;
; 832  : 		_Nodeptr _Pnode = _Nextnode(_Myhead);

	mov	ecx, DWORD PTR [esi+4]
	mov	eax, DWORD PTR [ecx]

; 833  : 		_Nextnode(_Myhead) = _Myhead;

	mov	DWORD PTR [ecx], ecx

; 834  : 		_Prevnode(_Myhead) = _Myhead;

	mov	ecx, DWORD PTR [esi+4]
	mov	DWORD PTR [ecx+4], ecx

; 835  : 		_Mysize = 0;

	mov	DWORD PTR [esi+8], 0

; 836  : 
; 837  : 		for (; _Pnode != _Myhead; _Pnode = _Pnext)

	cmp	eax, DWORD PTR [esi+4]
	je	SHORT $LN1@clear
	push	edi
	npad	3
$LL3@clear:

; 838  : 			{	// delete an element
; 839  : 			_Pnext = _Nextnode(_Pnode);

	mov	edi, DWORD PTR [eax]

; 840  : 			this->_Alnod.destroy(_Pnode);
; 841  : 			this->_Alnod.deallocate(_Pnode, 1);

	push	eax
	call	??3@YAXPAX@Z				; operator delete
	add	esp, 4
	mov	eax, edi
	cmp	edi, DWORD PTR [esi+4]
	jne	SHORT $LL3@clear
	pop	edi
$LN1@clear:
	pop	esi

; 842  : 			}
; 843  : 		}

	ret	0
?clear@?$list@U_GUID@@V?$allocator@U_GUID@@@std@@@std@@QAEXXZ ENDP ; std::list<_GUID,std::allocator<_GUID> >::clear
_TEXT	ENDS
PUBLIC	?_Buynode@?$list@U_GUID@@V?$allocator@U_GUID@@@std@@@std@@IAEPAU_Node@?$_List_nod@U_GUID@@V?$allocator@U_GUID@@@std@@@2@PAU342@0ABU_GUID@@@Z ; std::list<_GUID,std::allocator<_GUID> >::_Buynode
; Function compile flags: /Ogtpy
;	COMDAT ?_Buynode@?$list@U_GUID@@V?$allocator@U_GUID@@@std@@@std@@IAEPAU_Node@?$_List_nod@U_GUID@@V?$allocator@U_GUID@@@std@@@2@PAU342@0ABU_GUID@@@Z
_TEXT	SEGMENT
__Next$ = 8						; size = 4
__Prev$ = 12						; size = 4
__Val$ = 16						; size = 4
?_Buynode@?$list@U_GUID@@V?$allocator@U_GUID@@@std@@@std@@IAEPAU_Node@?$_List_nod@U_GUID@@V?$allocator@U_GUID@@@std@@@2@PAU342@0ABU_GUID@@@Z PROC ; std::list<_GUID,std::allocator<_GUID> >::_Buynode, COMDAT
; _this$ = ecx

; 1191 : 		_Nodeptr _Pnode = this->_Alnod.allocate(1);

	push	24					; 00000018H
	call	??2@YAPAXI@Z				; operator new
	add	esp, 4

; 1192 : 		int _Linkcnt = 0;
; 1193 : 
; 1194 : 		_TRY_BEGIN
; 1195 : 		this->_Alptr.construct(&_Nextnode(_Pnode), _Next);

	test	eax, eax
	je	SHORT $LN27@Buynode@2
	mov	ecx, DWORD PTR __Next$[esp-4]
	mov	DWORD PTR [eax], ecx
$LN27@Buynode@2:

; 1196 : 		++_Linkcnt;
; 1197 : 		this->_Alptr.construct(&_Prevnode(_Pnode), _Prev);

	lea	ecx, DWORD PTR [eax+4]
	test	ecx, ecx
	je	SHORT $LN37@Buynode@2
	mov	edx, DWORD PTR __Prev$[esp-4]
	mov	DWORD PTR [ecx], edx
$LN37@Buynode@2:

; 1198 : 		++_Linkcnt;
; 1199 : 		this->_Alval.construct(&_Myval(_Pnode), _Val);

	lea	ecx, DWORD PTR [eax+8]
	test	ecx, ecx
	je	SHORT $LN47@Buynode@2
	mov	edx, DWORD PTR __Val$[esp-4]
	push	esi
	mov	esi, DWORD PTR [edx]
	mov	DWORD PTR [ecx], esi
	mov	esi, DWORD PTR [edx+4]
	mov	DWORD PTR [ecx+4], esi
	mov	esi, DWORD PTR [edx+8]
	mov	DWORD PTR [ecx+8], esi
	mov	edx, DWORD PTR [edx+12]
	mov	DWORD PTR [ecx+12], edx
	pop	esi
$LN47@Buynode@2:

; 1200 : 		_CATCH_ALL
; 1201 : 		if (1 < _Linkcnt)
; 1202 : 			this->_Alptr.destroy(&_Prevnode(_Pnode));
; 1203 : 		if (0 < _Linkcnt)
; 1204 : 			this->_Alptr.destroy(&_Nextnode(_Pnode));
; 1205 : 		this->_Alnod.deallocate(_Pnode, 1);
; 1206 : 		_RERAISE;
; 1207 : 		_CATCH_END
; 1208 : 		return (_Pnode);
; 1209 : 		}

	ret	12					; 0000000cH
?_Buynode@?$list@U_GUID@@V?$allocator@U_GUID@@@std@@@std@@IAEPAU_Node@?$_List_nod@U_GUID@@V?$allocator@U_GUID@@@std@@@2@PAU342@0ABU_GUID@@@Z ENDP ; std::list<_GUID,std::allocator<_GUID> >::_Buynode
_TEXT	ENDS
PUBLIC	__TI3?AVlength_error@std@@
PUBLIC	??_C@_0BB@MOGOBHAF@list?$DMT?$DO?5too?5long?$AA@ ; `string'
PUBLIC	?_Incsize@?$list@U_GUID@@V?$allocator@U_GUID@@@std@@@std@@IAEXI@Z ; std::list<_GUID,std::allocator<_GUID> >::_Incsize
PUBLIC	__CTA3?AVlength_error@std@@
PUBLIC	__CT??_R0?AVlength_error@std@@@8??0length_error@std@@QAE@ABV01@@Z40
PUBLIC	??0length_error@std@@QAE@ABV01@@Z		; std::length_error::length_error
PUBLIC	__CT??_R0?AVlogic_error@std@@@8??0logic_error@std@@QAE@ABV01@@Z40
PUBLIC	??0logic_error@std@@QAE@ABV01@@Z		; std::logic_error::logic_error
;	COMDAT __CT??_R0?AVlogic_error@std@@@8??0logic_error@std@@QAE@ABV01@@Z40
; File c:\program files (x86)\microsoft visual studio 9.0\vc\include\stdexcept
xdata$x	SEGMENT
__CT??_R0?AVlogic_error@std@@@8??0logic_error@std@@QAE@ABV01@@Z40 DD 00H
	DD	FLAT:??_R0?AVlogic_error@std@@@8
	DD	00H
	DD	0ffffffffH
	ORG $+4
	DD	028H
	DD	FLAT:??0logic_error@std@@QAE@ABV01@@Z
xdata$x	ENDS
;	COMDAT __CT??_R0?AVlength_error@std@@@8??0length_error@std@@QAE@ABV01@@Z40
xdata$x	SEGMENT
__CT??_R0?AVlength_error@std@@@8??0length_error@std@@QAE@ABV01@@Z40 DD 00H
	DD	FLAT:??_R0?AVlength_error@std@@@8
	DD	00H
	DD	0ffffffffH
	ORG $+4
	DD	028H
	DD	FLAT:??0length_error@std@@QAE@ABV01@@Z
xdata$x	ENDS
;	COMDAT __CTA3?AVlength_error@std@@
xdata$x	SEGMENT
__CTA3?AVlength_error@std@@ DD 03H
	DD	FLAT:__CT??_R0?AVlength_error@std@@@8??0length_error@std@@QAE@ABV01@@Z40
	DD	FLAT:__CT??_R0?AVlogic_error@std@@@8??0logic_error@std@@QAE@ABV01@@Z40
	DD	FLAT:__CT??_R0?AVexception@std@@@8??0exception@std@@QAE@ABV01@@Z12
xdata$x	ENDS
;	COMDAT __TI3?AVlength_error@std@@
xdata$x	SEGMENT
__TI3?AVlength_error@std@@ DD 00H
	DD	FLAT:??1length_error@std@@UAE@XZ
	DD	00H
	DD	FLAT:__CTA3?AVlength_error@std@@
xdata$x	ENDS
;	COMDAT ??_C@_0BB@MOGOBHAF@list?$DMT?$DO?5too?5long?$AA@
CONST	SEGMENT
??_C@_0BB@MOGOBHAF@list?$DMT?$DO?5too?5long?$AA@ DB 'list<T> too long', 00H ; `string'
CONST	ENDS
;	COMDAT xdata$x
xdata$x	SEGMENT
__unwindtable$?_Incsize@?$list@U_GUID@@V?$allocator@U_GUID@@@std@@@std@@IAEXI@Z DD 0ffffffffH
	DD	FLAT:__unwindfunclet$?_Incsize@?$list@U_GUID@@V?$allocator@U_GUID@@@std@@@std@@IAEXI@Z$0
	DD	00H
	DD	FLAT:__unwindfunclet$?_Incsize@?$list@U_GUID@@V?$allocator@U_GUID@@@std@@@std@@IAEXI@Z$2
__ehfuncinfo$?_Incsize@?$list@U_GUID@@V?$allocator@U_GUID@@@std@@@std@@IAEXI@Z DD 019930522H
	DD	02H
	DD	FLAT:__unwindtable$?_Incsize@?$list@U_GUID@@V?$allocator@U_GUID@@@std@@@std@@IAEXI@Z
	DD	2 DUP(00H)
	DD	2 DUP(00H)
	DD	00H
	DD	01H
; Function compile flags: /Ogtpy
; File c:\program files (x86)\microsoft visual studio 9.0\vc\include\list
xdata$x	ENDS
;	COMDAT ?_Incsize@?$list@U_GUID@@V?$allocator@U_GUID@@@std@@@std@@IAEXI@Z
_TEXT	SEGMENT
$T223527 = -80						; size = 28
$T223526 = -52						; size = 40
__$EHRec$ = -12						; size = 12
__Count$ = 8						; size = 4
?_Incsize@?$list@U_GUID@@V?$allocator@U_GUID@@@std@@@std@@IAEXI@Z PROC ; std::list<_GUID,std::allocator<_GUID> >::_Incsize, COMDAT
; _this$ = ecx

; 1239 : 		{	// alter element count, with checking

	mov	eax, DWORD PTR fs:0

; 1240 : 		if (max_size() - _Mysize < _Count)

	mov	edx, DWORD PTR __Count$[esp-4]
	push	-1
	push	__ehhandler$?_Incsize@?$list@U_GUID@@V?$allocator@U_GUID@@@std@@@std@@IAEXI@Z
	push	eax
	mov	DWORD PTR fs:0, esp
	mov	eax, DWORD PTR [ecx+8]
	sub	esp, 68					; 00000044H
	push	esi
	mov	esi, 268435455				; 0fffffffH
	sub	esi, eax
	cmp	esi, edx
	pop	esi
	jae	SHORT $LN1@Incsize

; 1241 : 			_THROW(length_error, "list<T> too long");

	push	OFFSET ??_C@_0BB@MOGOBHAF@list?$DMT?$DO?5too?5long?$AA@
	lea	ecx, DWORD PTR $T223527[esp+84]
	call	DWORD PTR __imp_??0?$basic_string@DU?$char_traits@D@std@@V?$allocator@D@2@@std@@QAE@PBD@Z
	lea	ecx, DWORD PTR $T223526[esp+80]
	mov	DWORD PTR __$EHRec$[esp+88], 0
	call	DWORD PTR __imp_??0exception@std@@QAE@XZ
	lea	eax, DWORD PTR $T223527[esp+80]
	push	eax
	lea	ecx, DWORD PTR $T223526[esp+96]
	mov	BYTE PTR __$EHRec$[esp+92], 1
	mov	DWORD PTR $T223526[esp+84], OFFSET ??_7logic_error@std@@6B@
	call	DWORD PTR __imp_??0?$basic_string@DU?$char_traits@D@std@@V?$allocator@D@2@@std@@QAE@ABV01@@Z
	push	OFFSET __TI3?AVlength_error@std@@
	lea	ecx, DWORD PTR $T223526[esp+84]
	push	ecx
	mov	BYTE PTR __$EHRec$[esp+96], 0
	mov	DWORD PTR $T223526[esp+88], OFFSET ??_7length_error@std@@6B@
	call	__CxxThrowException@8
$LN20@Incsize:
$LN1@Incsize:

; 1242 : 		_Mysize += _Count;

	add	eax, edx
	mov	DWORD PTR [ecx+8], eax

; 1243 : 		}

	mov	ecx, DWORD PTR __$EHRec$[esp+80]
	mov	DWORD PTR fs:0, ecx
	add	esp, 80					; 00000050H
	ret	4
$LN19@Incsize:
_TEXT	ENDS
;	COMDAT text$x
text$x	SEGMENT
__unwindfunclet$?_Incsize@?$list@U_GUID@@V?$allocator@U_GUID@@@std@@@std@@IAEXI@Z$0:
	lea	ecx, DWORD PTR $T223527[ebp]
	jmp	DWORD PTR __imp_??1?$basic_string@DU?$char_traits@D@std@@V?$allocator@D@2@@std@@QAE@XZ
__unwindfunclet$?_Incsize@?$list@U_GUID@@V?$allocator@U_GUID@@@std@@@std@@IAEXI@Z$2:
	lea	ecx, DWORD PTR $T223526[ebp]
	jmp	DWORD PTR __imp_??1exception@std@@UAE@XZ
__ehhandler$?_Incsize@?$list@U_GUID@@V?$allocator@U_GUID@@@std@@@std@@IAEXI@Z:
	mov	eax, OFFSET __ehfuncinfo$?_Incsize@?$list@U_GUID@@V?$allocator@U_GUID@@@std@@@std@@IAEXI@Z
	jmp	___CxxFrameHandler3
text$x	ENDS
?_Incsize@?$list@U_GUID@@V?$allocator@U_GUID@@@std@@@std@@IAEXI@Z ENDP ; std::list<_GUID,std::allocator<_GUID> >::_Incsize
;	COMDAT xdata$x
xdata$x	SEGMENT
__unwindtable$??0logic_error@std@@QAE@ABV01@@Z DD 0ffffffffH
	DD	FLAT:__unwindfunclet$??0logic_error@std@@QAE@ABV01@@Z$0
__ehfuncinfo$??0logic_error@std@@QAE@ABV01@@Z DD 019930522H
	DD	01H
	DD	FLAT:__unwindtable$??0logic_error@std@@QAE@ABV01@@Z
	DD	2 DUP(00H)
	DD	2 DUP(00H)
	DD	00H
	DD	01H
; Function compile flags: /Ogtpy
xdata$x	ENDS
;	COMDAT ??0logic_error@std@@QAE@ABV01@@Z
_TEXT	SEGMENT
_this$ = -16						; size = 4
__$EHRec$ = -12						; size = 12
___that$ = 8						; size = 4
??0logic_error@std@@QAE@ABV01@@Z PROC			; std::logic_error::logic_error, COMDAT
; _this$ = ecx
	push	-1
	push	__ehhandler$??0logic_error@std@@QAE@ABV01@@Z
	mov	eax, DWORD PTR fs:0
	push	eax
	mov	DWORD PTR fs:0, esp
	push	ecx
	push	esi
	push	edi
	mov	edi, DWORD PTR ___that$[esp+20]
	mov	esi, ecx
	push	edi
	mov	DWORD PTR _this$[esp+28], esi
	call	DWORD PTR __imp_??0exception@std@@QAE@ABV01@@Z
	add	edi, 12					; 0000000cH
	push	edi
	lea	ecx, DWORD PTR [esi+12]
	mov	DWORD PTR __$EHRec$[esp+36], 0
	mov	DWORD PTR [esi], OFFSET ??_7logic_error@std@@6B@
	call	DWORD PTR __imp_??0?$basic_string@DU?$char_traits@D@std@@V?$allocator@D@2@@std@@QAE@ABV01@@Z
	mov	ecx, DWORD PTR __$EHRec$[esp+24]
	pop	edi
	mov	eax, esi
	pop	esi
	mov	DWORD PTR fs:0, ecx
	add	esp, 16					; 00000010H
	ret	4
_TEXT	ENDS
;	COMDAT text$x
text$x	SEGMENT
__unwindfunclet$??0logic_error@std@@QAE@ABV01@@Z$0:
	mov	ecx, DWORD PTR _this$[ebp]
	jmp	DWORD PTR __imp_??1exception@std@@UAE@XZ
__ehhandler$??0logic_error@std@@QAE@ABV01@@Z:
	mov	eax, OFFSET __ehfuncinfo$??0logic_error@std@@QAE@ABV01@@Z
	jmp	___CxxFrameHandler3
text$x	ENDS
??0logic_error@std@@QAE@ABV01@@Z ENDP			; std::logic_error::logic_error
; Function compile flags: /Ogtpy
;	COMDAT ??0length_error@std@@QAE@ABV01@@Z
_TEXT	SEGMENT
___that$ = 8						; size = 4
??0length_error@std@@QAE@ABV01@@Z PROC			; std::length_error::length_error, COMDAT
; _this$ = ecx
	mov	eax, DWORD PTR ___that$[esp-4]
	push	esi
	push	eax
	mov	esi, ecx
	call	??0logic_error@std@@QAE@ABV01@@Z
	mov	DWORD PTR [esi], OFFSET ??_7length_error@std@@6B@
	mov	eax, esi
	pop	esi
	ret	4
??0length_error@std@@QAE@ABV01@@Z ENDP			; std::length_error::length_error
_TEXT	ENDS
PUBLIC	??0?$_List_ptr@U_GUID@@V?$allocator@U_GUID@@@std@@@std@@IAE@V?$allocator@U_GUID@@@1@@Z ; std::_List_ptr<_GUID,std::allocator<_GUID> >::_List_ptr<_GUID,std::allocator<_GUID> >
; Function compile flags: /Ogtpy
;	COMDAT ??0?$_List_ptr@U_GUID@@V?$allocator@U_GUID@@@std@@@std@@IAE@V?$allocator@U_GUID@@@1@@Z
_TEXT	SEGMENT
__Al$ = 8						; size = 1
??0?$_List_ptr@U_GUID@@V?$allocator@U_GUID@@@std@@@std@@IAE@V?$allocator@U_GUID@@@1@@Z PROC ; std::_List_ptr<_GUID,std::allocator<_GUID> >::_List_ptr<_GUID,std::allocator<_GUID> >, COMDAT
; _this$ = ecx

; 67   : 		{	// construct base, and allocator from _Al

	mov	eax, ecx

; 68   : 		}

	ret	4
??0?$_List_ptr@U_GUID@@V?$allocator@U_GUID@@@std@@@std@@IAE@V?$allocator@U_GUID@@@1@@Z ENDP ; std::_List_ptr<_GUID,std::allocator<_GUID> >::_List_ptr<_GUID,std::allocator<_GUID> >
_TEXT	ENDS
PUBLIC	??0CvDllPreGame@@QAE@XZ				; CvDllPreGame::CvDllPreGame
; Function compile flags: /Ogtpy
; File c:\users\enormousapplepie\documents\github\lekmod\lekmod_dll\cvgamecoredll_expansion2\cvdllpregame.cpp
;	COMDAT ??0CvDllPreGame@@QAE@XZ
_TEXT	SEGMENT
??0CvDllPreGame@@QAE@XZ PROC				; CvDllPreGame::CvDllPreGame, COMDAT
; _this$ = ecx

; 16   : {

	mov	eax, ecx
	mov	DWORD PTR [eax], OFFSET ??_7CvDllPreGame@@6B@

; 17   : }

	ret	0
??0CvDllPreGame@@QAE@XZ ENDP				; CvDllPreGame::CvDllPreGame
_TEXT	ENDS
PUBLIC	??1?$_List_val@U_GUID@@V?$allocator@U_GUID@@@std@@@std@@QAE@XZ ; std::_List_val<_GUID,std::allocator<_GUID> >::~_List_val<_GUID,std::allocator<_GUID> >
; Function compile flags: /Ogtpy
;	COMDAT ??1?$_List_val@U_GUID@@V?$allocator@U_GUID@@@std@@@std@@QAE@XZ
_TEXT	SEGMENT
??1?$_List_val@U_GUID@@V?$allocator@U_GUID@@@std@@@std@@QAE@XZ PROC ; std::_List_val<_GUID,std::allocator<_GUID> >::~_List_val<_GUID,std::allocator<_GUID> >, COMDAT
; _this$ = ecx
	ret	0
??1?$_List_val@U_GUID@@V?$allocator@U_GUID@@@std@@@std@@QAE@XZ ENDP ; std::_List_val<_GUID,std::allocator<_GUID> >::~_List_val<_GUID,std::allocator<_GUID> >
_TEXT	ENDS
PUBLIC	?_Insert@?$list@U_GUID@@V?$allocator@U_GUID@@@std@@@std@@QAEXV?$_Const_iterator@$0A@@12@ABU_GUID@@@Z ; std::list<_GUID,std::allocator<_GUID> >::_Insert
; Function compile flags: /Ogtpy
; File c:\program files (x86)\microsoft visual studio 9.0\vc\include\list
;	COMDAT ?_Insert@?$list@U_GUID@@V?$allocator@U_GUID@@@std@@@std@@QAEXV?$_Const_iterator@$0A@@12@ABU_GUID@@@Z
_TEXT	SEGMENT
__Where$ = 8						; size = 4
__Val$ = 12						; size = 4
?_Insert@?$list@U_GUID@@V?$allocator@U_GUID@@@std@@@std@@QAEXV?$_Const_iterator@$0A@@12@ABU_GUID@@@Z PROC ; std::list<_GUID,std::allocator<_GUID> >::_Insert, COMDAT
; _this$ = ecx

; 711  : 
; 712  :  #if _HAS_ITERATOR_DEBUGGING
; 713  : 		if (_Where._Mycont != this)
; 714  : 			_DEBUG_ERROR("list insert iterator outside range");
; 715  :  #endif /* _HAS_ITERATOR_DEBUGGING */
; 716  : 
; 717  : 		_Nodeptr _Pnode = _Where._Mynode();
; 718  : 		_Nodeptr _Newnode = _Buynode(_Pnode, _Prevnode(_Pnode), _Val);

	mov	eax, DWORD PTR __Where$[esp-4]
	mov	edx, DWORD PTR [eax+4]
	push	ebx
	push	esi
	push	edi
	mov	edi, ecx
	mov	ecx, DWORD PTR __Val$[esp+8]
	lea	ebx, DWORD PTR [eax+4]
	push	ecx
	push	edx
	push	eax
	mov	ecx, edi
	call	?_Buynode@?$list@U_GUID@@V?$allocator@U_GUID@@@std@@@std@@IAEPAU_Node@?$_List_nod@U_GUID@@V?$allocator@U_GUID@@@std@@@2@PAU342@0ABU_GUID@@@Z ; std::list<_GUID,std::allocator<_GUID> >::_Buynode

; 719  : 		_Incsize(1);

	push	1
	mov	ecx, edi
	mov	esi, eax
	call	?_Incsize@?$list@U_GUID@@V?$allocator@U_GUID@@@std@@@std@@IAEXI@Z ; std::list<_GUID,std::allocator<_GUID> >::_Incsize

; 720  : 		_Prevnode(_Pnode) = _Newnode;

	mov	DWORD PTR [ebx], esi

; 721  : 		_Nextnode(_Prevnode(_Newnode)) = _Newnode;

	mov	eax, DWORD PTR [esi+4]
	pop	edi
	mov	DWORD PTR [eax], esi
	pop	esi
	pop	ebx

; 722  : 		}

	ret	8
?_Insert@?$list@U_GUID@@V?$allocator@U_GUID@@@std@@@std@@QAEXV?$_Const_iterator@$0A@@12@ABU_GUID@@@Z ENDP ; std::list<_GUID,std::allocator<_GUID> >::_Insert
_TEXT	ENDS
PUBLIC	?_Tidy@?$list@U_GUID@@V?$allocator@U_GUID@@@std@@@std@@IAEXXZ ; std::list<_GUID,std::allocator<_GUID> >::_Tidy
; Function compile flags: /Ogtpy
;	COMDAT ?_Tidy@?$list@U_GUID@@V?$allocator@U_GUID@@@std@@@std@@IAEXXZ
_TEXT	SEGMENT
?_Tidy@?$list@U_GUID@@V?$allocator@U_GUID@@@std@@@std@@IAEXXZ PROC ; std::list<_GUID,std::allocator<_GUID> >::_Tidy, COMDAT
; _this$ = ecx

; 1212 : 		{	// free all storage

	push	esi
	mov	esi, ecx

; 1213 : 		clear();

	mov	ecx, DWORD PTR [esi+4]
	mov	eax, DWORD PTR [ecx]
	mov	DWORD PTR [ecx], ecx
	mov	ecx, DWORD PTR [esi+4]
	mov	DWORD PTR [ecx+4], ecx
	mov	DWORD PTR [esi+8], 0
	cmp	eax, DWORD PTR [esi+4]
	je	SHORT $LN3@Tidy
	push	edi
	npad	3
$LL5@Tidy:
	mov	edi, DWORD PTR [eax]
	push	eax
	call	??3@YAXPAX@Z				; operator delete
	add	esp, 4
	mov	eax, edi
	cmp	edi, DWORD PTR [esi+4]
	jne	SHORT $LL5@Tidy
	pop	edi
$LN3@Tidy:

; 1214 : 		this->_Alptr.destroy(&_Nextnode(_Myhead));
; 1215 : 		this->_Alptr.destroy(&_Prevnode(_Myhead));
; 1216 : 		this->_Alnod.deallocate(_Myhead, 1);

	mov	eax, DWORD PTR [esi+4]
	push	eax
	call	??3@YAXPAX@Z				; operator delete
	add	esp, 4

; 1217 : 		_Myhead = 0;

	mov	DWORD PTR [esi+4], 0
	pop	esi

; 1218 : 		}

	ret	0
?_Tidy@?$list@U_GUID@@V?$allocator@U_GUID@@@std@@@std@@IAEXXZ ENDP ; std::list<_GUID,std::allocator<_GUID> >::_Tidy
_TEXT	ENDS
PUBLIC	??0?$_List_val@U_GUID@@V?$allocator@U_GUID@@@std@@@std@@QAE@V?$allocator@U_GUID@@@1@@Z ; std::_List_val<_GUID,std::allocator<_GUID> >::_List_val<_GUID,std::allocator<_GUID> >
; Function compile flags: /Ogtpy
;	COMDAT ??0?$_List_val@U_GUID@@V?$allocator@U_GUID@@@std@@@std@@QAE@V?$allocator@U_GUID@@@1@@Z
_TEXT	SEGMENT
__Al$ = 8						; size = 1
??0?$_List_val@U_GUID@@V?$allocator@U_GUID@@@std@@@std@@QAE@V?$allocator@U_GUID@@@1@@Z PROC ; std::_List_val<_GUID,std::allocator<_GUID> >::_List_val<_GUID,std::allocator<_GUID> >, COMDAT
; _this$ = ecx

; 85   : 		{	// construct base, and allocator from _Al

	mov	eax, ecx

; 86   : 		}

	ret	4
??0?$_List_val@U_GUID@@V?$allocator@U_GUID@@@std@@@std@@QAE@V?$allocator@U_GUID@@@1@@Z ENDP ; std::_List_val<_GUID,std::allocator<_GUID> >::_List_val<_GUID,std::allocator<_GUID> >
_TEXT	ENDS
PUBLIC	??0?$list@U_GUID@@V?$allocator@U_GUID@@@std@@@std@@QAE@XZ ; std::list<_GUID,std::allocator<_GUID> >::list<_GUID,std::allocator<_GUID> >
; Function compile flags: /Ogtpy
;	COMDAT ??0?$list@U_GUID@@V?$allocator@U_GUID@@@std@@@std@@QAE@XZ
_TEXT	SEGMENT
??0?$list@U_GUID@@V?$allocator@U_GUID@@@std@@@std@@QAE@XZ PROC ; std::list<_GUID,std::allocator<_GUID> >::list<_GUID,std::allocator<_GUID> >, COMDAT
; _this$ = ecx

; 436  : 		{	// construct empty list

	push	esi
	mov	esi, ecx
	call	?_Buynode@?$list@U_GUID@@V?$allocator@U_GUID@@@std@@@std@@IAEPAU_Node@?$_List_nod@U_GUID@@V?$allocator@U_GUID@@@std@@@2@XZ ; std::list<_GUID,std::allocator<_GUID> >::_Buynode
	mov	DWORD PTR [esi+4], eax
	mov	DWORD PTR [esi+8], 0

; 437  : 		}

	mov	eax, esi
	pop	esi
	ret	0
??0?$list@U_GUID@@V?$allocator@U_GUID@@@std@@@std@@QAE@XZ ENDP ; std::list<_GUID,std::allocator<_GUID> >::list<_GUID,std::allocator<_GUID> >
_TEXT	ENDS
PUBLIC	??1?$list@U_GUID@@V?$allocator@U_GUID@@@std@@@std@@QAE@XZ ; std::list<_GUID,std::allocator<_GUID> >::~list<_GUID,std::allocator<_GUID> >
; Function compile flags: /Ogtpy
;	COMDAT ??1?$list@U_GUID@@V?$allocator@U_GUID@@@std@@@std@@QAE@XZ
_TEXT	SEGMENT
??1?$list@U_GUID@@V?$allocator@U_GUID@@@std@@@std@@QAE@XZ PROC ; std::list<_GUID,std::allocator<_GUID> >::~list<_GUID,std::allocator<_GUID> >, COMDAT
; _this$ = ecx

; 521  : 		_Tidy();

	jmp	?_Tidy@?$list@U_GUID@@V?$allocator@U_GUID@@@std@@@std@@IAEXXZ ; std::list<_GUID,std::allocator<_GUID> >::_Tidy
??1?$list@U_GUID@@V?$allocator@U_GUID@@@std@@@std@@QAE@XZ ENDP ; std::list<_GUID,std::allocator<_GUID> >::~list<_GUID,std::allocator<_GUID> >
_TEXT	ENDS
PUBLIC	?push_back@?$list@U_GUID@@V?$allocator@U_GUID@@@std@@@std@@QAEXABU_GUID@@@Z ; std::list<_GUID,std::allocator<_GUID> >::push_back
; Function compile flags: /Ogtpy
;	COMDAT ?push_back@?$list@U_GUID@@V?$allocator@U_GUID@@@std@@@std@@QAEXABU_GUID@@@Z
_TEXT	SEGMENT
__Val$ = 8						; size = 4
?push_back@?$list@U_GUID@@V?$allocator@U_GUID@@@std@@@std@@QAEXABU_GUID@@@Z PROC ; std::list<_GUID,std::allocator<_GUID> >::push_back, COMDAT
; _this$ = ecx

; 670  : 		_Insert(end(), _Val);

	mov	eax, DWORD PTR __Val$[esp-4]
	push	ebx
	push	esi
	push	edi
	mov	esi, ecx
	mov	edi, DWORD PTR [esi+4]
	mov	ecx, DWORD PTR [edi+4]
	push	eax
	push	ecx
	push	edi
	mov	ecx, esi
	call	?_Buynode@?$list@U_GUID@@V?$allocator@U_GUID@@@std@@@std@@IAEPAU_Node@?$_List_nod@U_GUID@@V?$allocator@U_GUID@@@std@@@2@PAU342@0ABU_GUID@@@Z ; std::list<_GUID,std::allocator<_GUID> >::_Buynode
	push	1
	mov	ecx, esi
	mov	ebx, eax
	call	?_Incsize@?$list@U_GUID@@V?$allocator@U_GUID@@@std@@@std@@IAEXI@Z ; std::list<_GUID,std::allocator<_GUID> >::_Incsize
	mov	DWORD PTR [edi+4], ebx
	mov	edx, DWORD PTR [ebx+4]
	pop	edi
	pop	esi
	mov	DWORD PTR [edx], ebx
	pop	ebx

; 671  : 		}

	ret	4
?push_back@?$list@U_GUID@@V?$allocator@U_GUID@@@std@@@std@@QAEXABU_GUID@@@Z ENDP ; std::list<_GUID,std::allocator<_GUID> >::push_back
_TEXT	ENDS
EXTRN	?setDLCAvailable@CvPreGame@@YAXW4PlayerTypes@@ABV?$list@U_GUID@@V?$allocator@U_GUID@@@std@@@std@@@Z:PROC ; CvPreGame::setDLCAvailable
;	COMDAT xdata$x
xdata$x	SEGMENT
__unwindtable$?SetDLCAvailable@CvDllPreGame@@UAGXW4PlayerTypes@@PAVICvEnumerator@@@Z DD 0ffffffffH
	DD	FLAT:__unwindfunclet$?SetDLCAvailable@CvDllPreGame@@UAGXW4PlayerTypes@@PAVICvEnumerator@@@Z$0
	DD	00H
	DD	FLAT:__unwindfunclet$?SetDLCAvailable@CvDllPreGame@@UAGXW4PlayerTypes@@PAVICvEnumerator@@@Z$1
	DD	01H
	DD	FLAT:__unwindfunclet$?SetDLCAvailable@CvDllPreGame@@UAGXW4PlayerTypes@@PAVICvEnumerator@@@Z$2
__ehfuncinfo$?SetDLCAvailable@CvDllPreGame@@UAGXW4PlayerTypes@@PAVICvEnumerator@@@Z DD 019930522H
	DD	03H
	DD	FLAT:__unwindtable$?SetDLCAvailable@CvDllPreGame@@UAGXW4PlayerTypes@@PAVICvEnumerator@@@Z
	DD	2 DUP(00H)
	DD	2 DUP(00H)
	DD	00H
	DD	01H
; Function compile flags: /Ogtpy
; File c:\users\enormousapplepie\documents\github\lekmod\lekmod_dll\cvgamecoredll_expansion2\cvdllpregame.cpp
xdata$x	ENDS
;	COMDAT ?SetDLCAvailable@CvDllPreGame@@UAGXW4PlayerTypes@@PAVICvEnumerator@@@Z
_TEXT	SEGMENT
_pPackageInfo$220853 = -44				; size = 4
_kDLCList$ = -40					; size = 12
$T223914 = -28						; size = 16
__$EHRec$ = -12						; size = 12
_this$ = 8						; size = 4
_p$ = 12						; size = 4
_kEnum$ = 16						; size = 4
_pList$ = 16						; size = 4
?SetDLCAvailable@CvDllPreGame@@UAGXW4PlayerTypes@@PAVICvEnumerator@@@Z PROC ; CvDllPreGame::SetDLCAvailable, COMDAT

; 1112 : {

	push	-1
	push	__ehhandler$?SetDLCAvailable@CvDllPreGame@@UAGXW4PlayerTypes@@PAVICvEnumerator@@@Z
	mov	eax, DWORD PTR fs:0
	push	eax
	mov	DWORD PTR fs:0, esp
	sub	esp, 32					; 00000020H
	push	ebx
	push	ebp
	push	esi
	push	edi

; 1113 : 	PackageIDList kDLCList;

	lea	ecx, DWORD PTR _kDLCList$[esp+60]
	call	?_Buynode@?$list@U_GUID@@V?$allocator@U_GUID@@@std@@@std@@IAEPAU_Node@?$_List_nod@U_GUID@@V?$allocator@U_GUID@@@std@@@2@XZ ; std::list<_GUID,std::allocator<_GUID> >::_Buynode
	mov	DWORD PTR _kDLCList$[esp+64], eax
	mov	DWORD PTR _kDLCList$[esp+68], 0

; 1114 : 
; 1115 : 	// Because CvEnumerator OWNS the pointer it's passed, use QueryInterface to
; 1116 : 	// construct a new pointer.
; 1117 : 	CvEnumerator<ICvDlcPackageInfo1> kEnum(pList->QueryInterface<ICvEnumerator>());

	mov	esi, DWORD PTR _guidICvEnumerator
	mov	ecx, DWORD PTR _pList$[esp+56]
	mov	edx, DWORD PTR [ecx]
	sub	esp, 16					; 00000010H
	mov	eax, esp
	mov	DWORD PTR [eax], esi
	mov	esi, DWORD PTR _guidICvEnumerator+4
	mov	DWORD PTR [eax+4], esi
	mov	esi, DWORD PTR _guidICvEnumerator+8
	mov	DWORD PTR [eax+8], esi
	mov	esi, DWORD PTR _guidICvEnumerator+12
	mov	DWORD PTR [eax+12], esi
	mov	eax, DWORD PTR [edx]
	push	ecx
	mov	DWORD PTR __$EHRec$[esp+88], 0
	call	eax
	mov	ebx, eax
	mov	DWORD PTR _kEnum$[esp+56], ebx
	mov	BYTE PTR __$EHRec$[esp+68], 1
$LL3@SetDLCAvai:

; 1118 : 	while(kEnum.MoveNext())

	test	ebx, ebx
	je	SHORT $LN43@SetDLCAvai
	mov	ecx, DWORD PTR [ebx]
	mov	edx, DWORD PTR [ecx+8]
	push	ebx
	call	edx
	test	al, al
	je	SHORT $LN43@SetDLCAvai

; 1119 : 	{
; 1120 : 		auto_ptr<ICvDlcPackageInfo1> pPackageInfo(kEnum.GetCurrent());

	lea	ecx, DWORD PTR _kEnum$[esp+56]
	call	?GetCurrent@?$CvEnumerator@VICvDlcPackageInfo1@@@@QAEPAVICvDlcPackageInfo1@@XZ ; CvEnumerator<ICvDlcPackageInfo1>::GetCurrent
	mov	edi, eax
	mov	DWORD PTR _pPackageInfo$220853[esp+60], edi
	mov	BYTE PTR __$EHRec$[esp+68], 2

; 1121 : 		if(pPackageInfo.get() != NULL)

	test	edi, edi
	je	SHORT $LN67@SetDLCAvai

; 1122 : 		{
; 1123 : 			kDLCList.push_back(pPackageInfo->GetPackageID());

	mov	eax, DWORD PTR [edi]
	mov	edx, DWORD PTR [eax+8]
	lea	ecx, DWORD PTR $T223914[esp+60]
	push	ecx
	push	edi
	call	edx
	mov	ecx, DWORD PTR _kDLCList$[esp+64]
	lea	ebp, DWORD PTR [ecx+4]
	push	eax
	mov	eax, DWORD PTR [ebp]
	push	eax
	push	ecx
	lea	ecx, DWORD PTR _kDLCList$[esp+72]
	call	?_Buynode@?$list@U_GUID@@V?$allocator@U_GUID@@@std@@@std@@IAEPAU_Node@?$_List_nod@U_GUID@@V?$allocator@U_GUID@@@std@@@2@PAU342@0ABU_GUID@@@Z ; std::list<_GUID,std::allocator<_GUID> >::_Buynode
	push	1
	lea	ecx, DWORD PTR _kDLCList$[esp+64]
	mov	esi, eax
	call	?_Incsize@?$list@U_GUID@@V?$allocator@U_GUID@@@std@@@std@@IAEXI@Z ; std::list<_GUID,std::allocator<_GUID> >::_Incsize
	mov	DWORD PTR [ebp], esi
	mov	eax, DWORD PTR [esi+4]
	mov	DWORD PTR [eax], esi
$LN67@SetDLCAvai:

; 1124 : 		}
; 1125 : 	}

	mov	BYTE PTR __$EHRec$[esp+68], 1
	test	edi, edi
	je	SHORT $LL3@SetDLCAvai
	mov	ecx, DWORD PTR [edi]
	mov	edx, DWORD PTR [ecx+4]
	push	edi
	call	edx
	jmp	SHORT $LL3@SetDLCAvai

; 1118 : 	while(kEnum.MoveNext())

$LN43@SetDLCAvai:

; 1126 : 
; 1127 : 	CvPreGame::setDLCAvailable(p, kDLCList);

	mov	ecx, DWORD PTR _p$[esp+56]
	lea	eax, DWORD PTR _kDLCList$[esp+60]
	push	eax
	push	ecx
	call	?setDLCAvailable@CvPreGame@@YAXW4PlayerTypes@@ABV?$list@U_GUID@@V?$allocator@U_GUID@@@std@@@std@@@Z ; CvPreGame::setDLCAvailable
	add	esp, 8

; 1128 : }

	mov	BYTE PTR __$EHRec$[esp+68], 0
	test	ebx, ebx
	je	SHORT $LN89@SetDLCAvai
	mov	edx, DWORD PTR [ebx]
	mov	eax, DWORD PTR [edx+4]
	push	ebx
	call	eax
$LN89@SetDLCAvai:
	lea	ecx, DWORD PTR _kDLCList$[esp+60]
	call	?_Tidy@?$list@U_GUID@@V?$allocator@U_GUID@@@std@@@std@@IAEXXZ ; std::list<_GUID,std::allocator<_GUID> >::_Tidy
	mov	ecx, DWORD PTR __$EHRec$[esp+60]
	pop	edi
	pop	esi
	pop	ebp
	mov	DWORD PTR fs:0, ecx
	pop	ebx
	add	esp, 44					; 0000002cH
	ret	12					; 0000000cH
_TEXT	ENDS
;	COMDAT text$x
text$x	SEGMENT
__unwindfunclet$?SetDLCAvailable@CvDllPreGame@@UAGXW4PlayerTypes@@PAVICvEnumerator@@@Z$0:
	lea	ecx, DWORD PTR _kDLCList$[ebp]
	jmp	??1?$list@U_GUID@@V?$allocator@U_GUID@@@std@@@std@@QAE@XZ ; std::list<_GUID,std::allocator<_GUID> >::~list<_GUID,std::allocator<_GUID> >
__unwindfunclet$?SetDLCAvailable@CvDllPreGame@@UAGXW4PlayerTypes@@PAVICvEnumerator@@@Z$1:
	lea	ecx, DWORD PTR _kEnum$[ebp-4]
	jmp	??1?$CvEnumerator@VICvDlcPackageInfo1@@@@QAE@XZ
__unwindfunclet$?SetDLCAvailable@CvDllPreGame@@UAGXW4PlayerTypes@@PAVICvEnumerator@@@Z$2:
	lea	ecx, DWORD PTR _pPackageInfo$220853[ebp]
	jmp	??1?$auto_ptr@VICvDlcPackageInfo1@@@std@@QAE@XZ ; std::auto_ptr<ICvDlcPackageInfo1>::~auto_ptr<ICvDlcPackageInfo1>
__ehhandler$?SetDLCAvailable@CvDllPreGame@@UAGXW4PlayerTypes@@PAVICvEnumerator@@@Z:
	mov	eax, OFFSET __ehfuncinfo$?SetDLCAvailable@CvDllPreGame@@UAGXW4PlayerTypes@@PAVICvEnumerator@@@Z
	jmp	___CxxFrameHandler3
text$x	ENDS
?SetDLCAvailable@CvDllPreGame@@UAGXW4PlayerTypes@@PAVICvEnumerator@@@Z ENDP ; CvDllPreGame::SetDLCAvailable
END
