; Listing generated by Microsoft (R) Optimizing Compiler Version 15.00.30729.01 

	TITLE	s:\Github\Lekmod\LEKMOD_DLL\CvGameCoreDLL_Expansion2\CvDllMinorCivInfo.cpp
	.686P
	.XMM
	include listing.inc
	.model	flat

INCLUDELIB MSVCRT
INCLUDELIB OLDNAMES

PUBLIC	?NO_QUEST_DATA@CvMinorCivQuest@@2HB		; CvMinorCivQuest::NO_QUEST_DATA
PUBLIC	?NO_TURN@CvMinorCivQuest@@2HB			; CvMinorCivQuest::NO_TURN
;	COMDAT ?NO_TURN@CvMinorCivQuest@@2HB
CONST	SEGMENT
?NO_TURN@CvMinorCivQuest@@2HB DD 0ffffffffH		; CvMinorCivQuest::NO_TURN
CONST	ENDS
;	COMDAT ?NO_QUEST_DATA@CvMinorCivQuest@@2HB
CONST	SEGMENT
?NO_QUEST_DATA@CvMinorCivQuest@@2HB DD 0ffffffffH	; CvMinorCivQuest::NO_QUEST_DATA
CONST	ENDS
_DATA	SEGMENT
_CIV5_XP2_DLL_VERSION DD FLAT:$SG217151
_DATA	ENDS
CONST	SEGMENT
$SG217151 DB	'1.0.0', 00H
	ORG $+2
_guidICvUnknown DD 0d89ba82fH
	DW	09fa3H
	DW	04696H
	DB	0b3H
	DB	0f4H
	DB	052H
	DB	0bdH
	DB	0b1H
	DB	01H
	DB	0cfH
	DB	0b2H
_guidICvMinorCivInfo1 DD 0ddf7a39H
	DW	04801H
	DW	047ceH
	DB	08dH
	DB	09cH
	DB	053H
	DB	08eH
	DB	0d9H
	DB	0c4H
	DB	0a4H
	DB	079H
CONST	ENDS
PUBLIC	??_7ICvUnknown@@6B@				; ICvUnknown::`vftable'
PUBLIC	??0ICvUnknown@@QAE@XZ				; ICvUnknown::ICvUnknown
PUBLIC	??_R4ICvUnknown@@6B@				; ICvUnknown::`RTTI Complete Object Locator'
PUBLIC	??_R0?AVICvUnknown@@@8				; ICvUnknown `RTTI Type Descriptor'
PUBLIC	??_R3ICvUnknown@@8				; ICvUnknown::`RTTI Class Hierarchy Descriptor'
PUBLIC	??_R2ICvUnknown@@8				; ICvUnknown::`RTTI Base Class Array'
PUBLIC	??_R1A@?0A@EA@ICvUnknown@@8			; ICvUnknown::`RTTI Base Class Descriptor at (0,-1,0,64)'
EXTRN	??_7type_info@@6B@:QWORD			; type_info::`vftable'
EXTRN	__purecall:PROC
;	COMDAT ??_R1A@?0A@EA@ICvUnknown@@8
rdata$r	SEGMENT
??_R1A@?0A@EA@ICvUnknown@@8 DD FLAT:??_R0?AVICvUnknown@@@8 ; ICvUnknown::`RTTI Base Class Descriptor at (0,-1,0,64)'
	DD	00H
	DD	00H
	DD	0ffffffffH
	DD	00H
	DD	040H
	DD	FLAT:??_R3ICvUnknown@@8
rdata$r	ENDS
;	COMDAT ??_R2ICvUnknown@@8
rdata$r	SEGMENT
??_R2ICvUnknown@@8 DD FLAT:??_R1A@?0A@EA@ICvUnknown@@8	; ICvUnknown::`RTTI Base Class Array'
rdata$r	ENDS
;	COMDAT ??_R3ICvUnknown@@8
rdata$r	SEGMENT
??_R3ICvUnknown@@8 DD 00H				; ICvUnknown::`RTTI Class Hierarchy Descriptor'
	DD	00H
	DD	01H
	DD	FLAT:??_R2ICvUnknown@@8
rdata$r	ENDS
;	COMDAT ??_R0?AVICvUnknown@@@8
_DATA	SEGMENT
??_R0?AVICvUnknown@@@8 DD FLAT:??_7type_info@@6B@	; ICvUnknown `RTTI Type Descriptor'
	DD	00H
	DB	'.?AVICvUnknown@@', 00H
_DATA	ENDS
;	COMDAT ??_R4ICvUnknown@@6B@
rdata$r	SEGMENT
??_R4ICvUnknown@@6B@ DD 00H				; ICvUnknown::`RTTI Complete Object Locator'
	DD	00H
	DD	00H
	DD	FLAT:??_R0?AVICvUnknown@@@8
	DD	FLAT:??_R3ICvUnknown@@8
rdata$r	ENDS
;	COMDAT ??_7ICvUnknown@@6B@
CONST	SEGMENT
??_7ICvUnknown@@6B@ DD FLAT:??_R4ICvUnknown@@6B@	; ICvUnknown::`vftable'
	DD	FLAT:__purecall
	DD	FLAT:__purecall
; Function compile flags: /Ogtpy
CONST	ENDS
;	COMDAT ??0ICvUnknown@@QAE@XZ
_TEXT	SEGMENT
??0ICvUnknown@@QAE@XZ PROC				; ICvUnknown::ICvUnknown, COMDAT
; _this$ = ecx
	mov	eax, ecx
	mov	DWORD PTR [eax], OFFSET ??_7ICvUnknown@@6B@
	ret	0
??0ICvUnknown@@QAE@XZ ENDP				; ICvUnknown::ICvUnknown
_TEXT	ENDS
PUBLIC	??_7CvDllMinorCivInfo@@6B@			; CvDllMinorCivInfo::`vftable'
PUBLIC	??1CvDllMinorCivInfo@@QAE@XZ			; CvDllMinorCivInfo::~CvDllMinorCivInfo
PUBLIC	??_R4CvDllMinorCivInfo@@6B@			; CvDllMinorCivInfo::`RTTI Complete Object Locator'
PUBLIC	??_R0?AVCvDllMinorCivInfo@@@8			; CvDllMinorCivInfo `RTTI Type Descriptor'
PUBLIC	??_R3CvDllMinorCivInfo@@8			; CvDllMinorCivInfo::`RTTI Class Hierarchy Descriptor'
PUBLIC	??_R2CvDllMinorCivInfo@@8			; CvDllMinorCivInfo::`RTTI Base Class Array'
PUBLIC	??_R1A@?0A@EA@CvDllMinorCivInfo@@8		; CvDllMinorCivInfo::`RTTI Base Class Descriptor at (0,-1,0,64)'
PUBLIC	??_R1A@?0A@EA@ICvMinorCivInfo1@@8		; ICvMinorCivInfo1::`RTTI Base Class Descriptor at (0,-1,0,64)'
PUBLIC	??_R0?AVICvMinorCivInfo1@@@8			; ICvMinorCivInfo1 `RTTI Type Descriptor'
PUBLIC	??_R3ICvMinorCivInfo1@@8			; ICvMinorCivInfo1::`RTTI Class Hierarchy Descriptor'
PUBLIC	??_R2ICvMinorCivInfo1@@8			; ICvMinorCivInfo1::`RTTI Base Class Array'
PUBLIC	?QueryInterface@CvDllMinorCivInfo@@UAGPAXU_GUID@@@Z ; CvDllMinorCivInfo::QueryInterface
PUBLIC	?Destroy@CvDllMinorCivInfo@@EAGXXZ		; CvDllMinorCivInfo::Destroy
PUBLIC	?GetType@CvDllMinorCivInfo@@UAGPBDXZ		; CvDllMinorCivInfo::GetType
PUBLIC	?GetDescription@CvDllMinorCivInfo@@UAGPBDXZ	; CvDllMinorCivInfo::GetDescription
PUBLIC	?GetDefaultPlayerColor@CvDllMinorCivInfo@@UBGHXZ ; CvDllMinorCivInfo::GetDefaultPlayerColor
PUBLIC	?GetArtStyleType@CvDllMinorCivInfo@@UBGHXZ	; CvDllMinorCivInfo::GetArtStyleType
PUBLIC	?GetNumCityNames@CvDllMinorCivInfo@@UBGHXZ	; CvDllMinorCivInfo::GetNumCityNames
PUBLIC	?GetArtStylePrefix@CvDllMinorCivInfo@@UBGPBDXZ	; CvDllMinorCivInfo::GetArtStylePrefix
PUBLIC	?GetArtStyleSuffix@CvDllMinorCivInfo@@UBGPBDXZ	; CvDllMinorCivInfo::GetArtStyleSuffix
PUBLIC	?GetCityNames@CvDllMinorCivInfo@@UBGPBDH@Z	; CvDllMinorCivInfo::GetCityNames
;	COMDAT ??_R2ICvMinorCivInfo1@@8
; File s:\github\lekmod\lekmod_dll\cvgamecoredll_expansion2\cvdllminorcivinfo.cpp
rdata$r	SEGMENT
??_R2ICvMinorCivInfo1@@8 DD FLAT:??_R1A@?0A@EA@ICvMinorCivInfo1@@8 ; ICvMinorCivInfo1::`RTTI Base Class Array'
	DD	FLAT:??_R1A@?0A@EA@ICvUnknown@@8
rdata$r	ENDS
;	COMDAT ??_R3ICvMinorCivInfo1@@8
rdata$r	SEGMENT
??_R3ICvMinorCivInfo1@@8 DD 00H				; ICvMinorCivInfo1::`RTTI Class Hierarchy Descriptor'
	DD	00H
	DD	02H
	DD	FLAT:??_R2ICvMinorCivInfo1@@8
rdata$r	ENDS
;	COMDAT ??_R0?AVICvMinorCivInfo1@@@8
_DATA	SEGMENT
??_R0?AVICvMinorCivInfo1@@@8 DD FLAT:??_7type_info@@6B@	; ICvMinorCivInfo1 `RTTI Type Descriptor'
	DD	00H
	DB	'.?AVICvMinorCivInfo1@@', 00H
_DATA	ENDS
;	COMDAT ??_R1A@?0A@EA@ICvMinorCivInfo1@@8
rdata$r	SEGMENT
??_R1A@?0A@EA@ICvMinorCivInfo1@@8 DD FLAT:??_R0?AVICvMinorCivInfo1@@@8 ; ICvMinorCivInfo1::`RTTI Base Class Descriptor at (0,-1,0,64)'
	DD	01H
	DD	00H
	DD	0ffffffffH
	DD	00H
	DD	040H
	DD	FLAT:??_R3ICvMinorCivInfo1@@8
rdata$r	ENDS
;	COMDAT ??_R1A@?0A@EA@CvDllMinorCivInfo@@8
rdata$r	SEGMENT
??_R1A@?0A@EA@CvDllMinorCivInfo@@8 DD FLAT:??_R0?AVCvDllMinorCivInfo@@@8 ; CvDllMinorCivInfo::`RTTI Base Class Descriptor at (0,-1,0,64)'
	DD	02H
	DD	00H
	DD	0ffffffffH
	DD	00H
	DD	040H
	DD	FLAT:??_R3CvDllMinorCivInfo@@8
rdata$r	ENDS
;	COMDAT ??_R2CvDllMinorCivInfo@@8
rdata$r	SEGMENT
??_R2CvDllMinorCivInfo@@8 DD FLAT:??_R1A@?0A@EA@CvDllMinorCivInfo@@8 ; CvDllMinorCivInfo::`RTTI Base Class Array'
	DD	FLAT:??_R1A@?0A@EA@ICvMinorCivInfo1@@8
	DD	FLAT:??_R1A@?0A@EA@ICvUnknown@@8
rdata$r	ENDS
;	COMDAT ??_R3CvDllMinorCivInfo@@8
rdata$r	SEGMENT
??_R3CvDllMinorCivInfo@@8 DD 00H			; CvDllMinorCivInfo::`RTTI Class Hierarchy Descriptor'
	DD	00H
	DD	03H
	DD	FLAT:??_R2CvDllMinorCivInfo@@8
rdata$r	ENDS
;	COMDAT ??_R0?AVCvDllMinorCivInfo@@@8
_DATA	SEGMENT
??_R0?AVCvDllMinorCivInfo@@@8 DD FLAT:??_7type_info@@6B@ ; CvDllMinorCivInfo `RTTI Type Descriptor'
	DD	00H
	DB	'.?AVCvDllMinorCivInfo@@', 00H
_DATA	ENDS
;	COMDAT ??_R4CvDllMinorCivInfo@@6B@
rdata$r	SEGMENT
??_R4CvDllMinorCivInfo@@6B@ DD 00H			; CvDllMinorCivInfo::`RTTI Complete Object Locator'
	DD	00H
	DD	00H
	DD	FLAT:??_R0?AVCvDllMinorCivInfo@@@8
	DD	FLAT:??_R3CvDllMinorCivInfo@@8
rdata$r	ENDS
;	COMDAT ??_7CvDllMinorCivInfo@@6B@
CONST	SEGMENT
??_7CvDllMinorCivInfo@@6B@ DD FLAT:??_R4CvDllMinorCivInfo@@6B@ ; CvDllMinorCivInfo::`vftable'
	DD	FLAT:?QueryInterface@CvDllMinorCivInfo@@UAGPAXU_GUID@@@Z
	DD	FLAT:?Destroy@CvDllMinorCivInfo@@EAGXXZ
	DD	FLAT:?GetType@CvDllMinorCivInfo@@UAGPBDXZ
	DD	FLAT:?GetDescription@CvDllMinorCivInfo@@UAGPBDXZ
	DD	FLAT:?GetDefaultPlayerColor@CvDllMinorCivInfo@@UBGHXZ
	DD	FLAT:?GetArtStyleType@CvDllMinorCivInfo@@UBGHXZ
	DD	FLAT:?GetNumCityNames@CvDllMinorCivInfo@@UBGHXZ
	DD	FLAT:?GetArtStylePrefix@CvDllMinorCivInfo@@UBGPBDXZ
	DD	FLAT:?GetArtStyleSuffix@CvDllMinorCivInfo@@UBGPBDXZ
	DD	FLAT:?GetCityNames@CvDllMinorCivInfo@@UBGPBDH@Z
; Function compile flags: /Ogtpy
CONST	ENDS
;	COMDAT ??1CvDllMinorCivInfo@@QAE@XZ
_TEXT	SEGMENT
??1CvDllMinorCivInfo@@QAE@XZ PROC			; CvDllMinorCivInfo::~CvDllMinorCivInfo, COMDAT
; _this$ = ecx

; 26   : {

	mov	DWORD PTR [ecx], OFFSET ??_7CvDllMinorCivInfo@@6B@

; 27   : }

	ret	0
??1CvDllMinorCivInfo@@QAE@XZ ENDP			; CvDllMinorCivInfo::~CvDllMinorCivInfo
_TEXT	ENDS
PUBLIC	?IncrementReference@CvDllMinorCivInfo@@QAEIXZ	; CvDllMinorCivInfo::IncrementReference
; Function compile flags: /Ogtpy
;	COMDAT ?IncrementReference@CvDllMinorCivInfo@@QAEIXZ
_TEXT	SEGMENT
?IncrementReference@CvDllMinorCivInfo@@QAEIXZ PROC	; CvDllMinorCivInfo::IncrementReference, COMDAT
; _this$ = ecx

; 43   : 	++m_uiRefCount;

	inc	DWORD PTR [ecx+4]

; 44   : 	return m_uiRefCount;

	mov	eax, DWORD PTR [ecx+4]

; 45   : }

	ret	0
?IncrementReference@CvDllMinorCivInfo@@QAEIXZ ENDP	; CvDllMinorCivInfo::IncrementReference
_TEXT	ENDS
PUBLIC	?GetReferenceCount@CvDllMinorCivInfo@@QAEIXZ	; CvDllMinorCivInfo::GetReferenceCount
; Function compile flags: /Ogtpy
;	COMDAT ?GetReferenceCount@CvDllMinorCivInfo@@QAEIXZ
_TEXT	SEGMENT
?GetReferenceCount@CvDllMinorCivInfo@@QAEIXZ PROC	; CvDllMinorCivInfo::GetReferenceCount, COMDAT
; _this$ = ecx

; 63   : 	return m_uiRefCount;

	mov	eax, DWORD PTR [ecx+4]

; 64   : }

	ret	0
?GetReferenceCount@CvDllMinorCivInfo@@QAEIXZ ENDP	; CvDllMinorCivInfo::GetReferenceCount
_TEXT	ENDS
PUBLIC	??3CvDllMinorCivInfo@@SAXPAX@Z			; CvDllMinorCivInfo::operator delete
EXTRN	?Free@CvDllGameContext@@SAXPAX@Z:PROC		; CvDllGameContext::Free
; Function compile flags: /Ogtpy
;	COMDAT ??3CvDllMinorCivInfo@@SAXPAX@Z
_TEXT	SEGMENT
_p$ = 8							; size = 4
??3CvDllMinorCivInfo@@SAXPAX@Z PROC			; CvDllMinorCivInfo::operator delete, COMDAT

; 73   : 	CvDllGameContext::Free(p);

	jmp	?Free@CvDllGameContext@@SAXPAX@Z	; CvDllGameContext::Free
??3CvDllMinorCivInfo@@SAXPAX@Z ENDP			; CvDllMinorCivInfo::operator delete
_TEXT	ENDS
PUBLIC	??2CvDllMinorCivInfo@@SAPAXI@Z			; CvDllMinorCivInfo::operator new
EXTRN	?Allocate@CvDllGameContext@@SAPAXI@Z:PROC	; CvDllGameContext::Allocate
; Function compile flags: /Ogtpy
;	COMDAT ??2CvDllMinorCivInfo@@SAPAXI@Z
_TEXT	SEGMENT
_bytes$ = 8						; size = 4
??2CvDllMinorCivInfo@@SAPAXI@Z PROC			; CvDllMinorCivInfo::operator new, COMDAT

; 78   : 	return CvDllGameContext::Allocate(bytes);

	jmp	?Allocate@CvDllGameContext@@SAPAXI@Z	; CvDllGameContext::Allocate
??2CvDllMinorCivInfo@@SAPAXI@Z ENDP			; CvDllMinorCivInfo::operator new
_TEXT	ENDS
PUBLIC	?GetInstance@CvDllMinorCivInfo@@QAEPAVCvMinorCivInfo@@XZ ; CvDllMinorCivInfo::GetInstance
; Function compile flags: /Ogtpy
;	COMDAT ?GetInstance@CvDllMinorCivInfo@@QAEPAVCvMinorCivInfo@@XZ
_TEXT	SEGMENT
?GetInstance@CvDllMinorCivInfo@@QAEPAVCvMinorCivInfo@@XZ PROC ; CvDllMinorCivInfo::GetInstance, COMDAT
; _this$ = ecx

; 83   : 	return m_pMinorCivInfo;

	mov	eax, DWORD PTR [ecx+8]

; 84   : }

	ret	0
?GetInstance@CvDllMinorCivInfo@@QAEPAVCvMinorCivInfo@@XZ ENDP ; CvDllMinorCivInfo::GetInstance
_TEXT	ENDS
EXTRN	?getDefaultPlayerColor@CvMinorCivInfo@@QBEHXZ:PROC ; CvMinorCivInfo::getDefaultPlayerColor
; Function compile flags: /Ogtpy
;	COMDAT ?GetDefaultPlayerColor@CvDllMinorCivInfo@@UBGHXZ
_TEXT	SEGMENT
_this$ = 8						; size = 4
?GetDefaultPlayerColor@CvDllMinorCivInfo@@UBGHXZ PROC	; CvDllMinorCivInfo::GetDefaultPlayerColor, COMDAT

; 98   : 	return m_pMinorCivInfo->getDefaultPlayerColor();

	mov	eax, DWORD PTR _this$[esp-4]
	mov	ecx, DWORD PTR [eax+8]
	call	?getDefaultPlayerColor@CvMinorCivInfo@@QBEHXZ ; CvMinorCivInfo::getDefaultPlayerColor

; 99   : }

	ret	4
?GetDefaultPlayerColor@CvDllMinorCivInfo@@UBGHXZ ENDP	; CvDllMinorCivInfo::GetDefaultPlayerColor
_TEXT	ENDS
EXTRN	?getArtStyleType@CvMinorCivInfo@@QBEHXZ:PROC	; CvMinorCivInfo::getArtStyleType
; Function compile flags: /Ogtpy
;	COMDAT ?GetArtStyleType@CvDllMinorCivInfo@@UBGHXZ
_TEXT	SEGMENT
_this$ = 8						; size = 4
?GetArtStyleType@CvDllMinorCivInfo@@UBGHXZ PROC		; CvDllMinorCivInfo::GetArtStyleType, COMDAT

; 103  : 	return m_pMinorCivInfo->getArtStyleType();

	mov	eax, DWORD PTR _this$[esp-4]
	mov	ecx, DWORD PTR [eax+8]
	call	?getArtStyleType@CvMinorCivInfo@@QBEHXZ	; CvMinorCivInfo::getArtStyleType

; 104  : }

	ret	4
?GetArtStyleType@CvDllMinorCivInfo@@UBGHXZ ENDP		; CvDllMinorCivInfo::GetArtStyleType
_TEXT	ENDS
EXTRN	?getNumCityNames@CvMinorCivInfo@@QBEHXZ:PROC	; CvMinorCivInfo::getNumCityNames
; Function compile flags: /Ogtpy
;	COMDAT ?GetNumCityNames@CvDllMinorCivInfo@@UBGHXZ
_TEXT	SEGMENT
_this$ = 8						; size = 4
?GetNumCityNames@CvDllMinorCivInfo@@UBGHXZ PROC		; CvDllMinorCivInfo::GetNumCityNames, COMDAT

; 108  : 	return m_pMinorCivInfo->getNumCityNames();

	mov	eax, DWORD PTR _this$[esp-4]
	mov	ecx, DWORD PTR [eax+8]
	call	?getNumCityNames@CvMinorCivInfo@@QBEHXZ	; CvMinorCivInfo::getNumCityNames

; 109  : }

	ret	4
?GetNumCityNames@CvDllMinorCivInfo@@UBGHXZ ENDP		; CvDllMinorCivInfo::GetNumCityNames
_TEXT	ENDS
EXTRN	?getArtStylePrefix@CvMinorCivInfo@@QBEPBDXZ:PROC ; CvMinorCivInfo::getArtStylePrefix
; Function compile flags: /Ogtpy
;	COMDAT ?GetArtStylePrefix@CvDllMinorCivInfo@@UBGPBDXZ
_TEXT	SEGMENT
_this$ = 8						; size = 4
?GetArtStylePrefix@CvDllMinorCivInfo@@UBGPBDXZ PROC	; CvDllMinorCivInfo::GetArtStylePrefix, COMDAT

; 113  : 	return m_pMinorCivInfo->getArtStylePrefix();

	mov	eax, DWORD PTR _this$[esp-4]
	mov	ecx, DWORD PTR [eax+8]
	call	?getArtStylePrefix@CvMinorCivInfo@@QBEPBDXZ ; CvMinorCivInfo::getArtStylePrefix

; 114  : }

	ret	4
?GetArtStylePrefix@CvDllMinorCivInfo@@UBGPBDXZ ENDP	; CvDllMinorCivInfo::GetArtStylePrefix
_TEXT	ENDS
EXTRN	?getArtStyleSuffix@CvMinorCivInfo@@QBEPBDXZ:PROC ; CvMinorCivInfo::getArtStyleSuffix
; Function compile flags: /Ogtpy
;	COMDAT ?GetArtStyleSuffix@CvDllMinorCivInfo@@UBGPBDXZ
_TEXT	SEGMENT
_this$ = 8						; size = 4
?GetArtStyleSuffix@CvDllMinorCivInfo@@UBGPBDXZ PROC	; CvDllMinorCivInfo::GetArtStyleSuffix, COMDAT

; 118  : 	return m_pMinorCivInfo->getArtStyleSuffix();

	mov	eax, DWORD PTR _this$[esp-4]
	mov	ecx, DWORD PTR [eax+8]
	call	?getArtStyleSuffix@CvMinorCivInfo@@QBEPBDXZ ; CvMinorCivInfo::getArtStyleSuffix

; 119  : }

	ret	4
?GetArtStyleSuffix@CvDllMinorCivInfo@@UBGPBDXZ ENDP	; CvDllMinorCivInfo::GetArtStyleSuffix
_TEXT	ENDS
EXTRN	__imp_?c_str@?$basic_string@DU?$char_traits@D@std@@V?$allocator@D@2@@std@@QBEPBDXZ:PROC
EXTRN	?getCityNames@CvMinorCivInfo@@QBEABV?$basic_string@DU?$char_traits@D@std@@V?$allocator@D@2@@std@@H@Z:PROC ; CvMinorCivInfo::getCityNames
; Function compile flags: /Ogtpy
;	COMDAT ?GetCityNames@CvDllMinorCivInfo@@UBGPBDH@Z
_TEXT	SEGMENT
_this$ = 8						; size = 4
_i$ = 12						; size = 4
?GetCityNames@CvDllMinorCivInfo@@UBGPBDH@Z PROC		; CvDllMinorCivInfo::GetCityNames, COMDAT

; 123  : 	return m_pMinorCivInfo->getCityNames(i).c_str();

	mov	eax, DWORD PTR _i$[esp-4]
	mov	ecx, DWORD PTR _this$[esp-4]
	mov	ecx, DWORD PTR [ecx+8]
	push	eax
	call	?getCityNames@CvMinorCivInfo@@QBEABV?$basic_string@DU?$char_traits@D@std@@V?$allocator@D@2@@std@@H@Z ; CvMinorCivInfo::getCityNames
	mov	ecx, eax
	call	DWORD PTR __imp_?c_str@?$basic_string@DU?$char_traits@D@std@@V?$allocator@D@2@@std@@QBEPBDXZ

; 124  : }

	ret	8
?GetCityNames@CvDllMinorCivInfo@@UBGPBDH@Z ENDP		; CvDllMinorCivInfo::GetCityNames
_TEXT	ENDS
PUBLIC	_IsEqualGUID
; Function compile flags: /Ogtpy
; File c:\program files\microsoft sdks\windows\v6.0a\include\guiddef.h
;	COMDAT _IsEqualGUID
_TEXT	SEGMENT
_rguid1$ = 8						; size = 4
_rguid2$ = 12						; size = 4
_IsEqualGUID PROC					; COMDAT

; 161  :     return !memcmp(&rguid1, &rguid2, sizeof(GUID));

	mov	ecx, DWORD PTR _rguid2$[esp-4]
	mov	edx, DWORD PTR _rguid1$[esp-4]
	mov	eax, 16					; 00000010H
	push	esi
	npad	2
$LL4@IsEqualGUI:
	mov	esi, DWORD PTR [edx]
	cmp	esi, DWORD PTR [ecx]
	jne	SHORT $LN5@IsEqualGUI
	sub	eax, 4
	add	ecx, 4
	add	edx, 4
	cmp	eax, 4
	jae	SHORT $LL4@IsEqualGUI
	xor	eax, eax
	xor	edx, edx
	test	eax, eax
	sete	dl
	pop	esi
	mov	eax, edx

; 162  : }

	ret	0
$LN5@IsEqualGUI:

; 161  :     return !memcmp(&rguid1, &rguid2, sizeof(GUID));

	movzx	eax, BYTE PTR [edx]
	movzx	esi, BYTE PTR [ecx]
	sub	eax, esi
	jne	SHORT $LN7@IsEqualGUI
	movzx	eax, BYTE PTR [edx+1]
	movzx	esi, BYTE PTR [ecx+1]
	sub	eax, esi
	jne	SHORT $LN7@IsEqualGUI
	movzx	eax, BYTE PTR [edx+2]
	movzx	esi, BYTE PTR [ecx+2]
	sub	eax, esi
	jne	SHORT $LN7@IsEqualGUI
	movzx	eax, BYTE PTR [edx+3]
	movzx	ecx, BYTE PTR [ecx+3]
	sub	eax, ecx
$LN7@IsEqualGUI:
	sar	eax, 31					; 0000001fH
	or	eax, 1
	xor	edx, edx
	test	eax, eax
	sete	dl
	pop	esi
	mov	eax, edx

; 162  : }

	ret	0
_IsEqualGUID ENDP
_TEXT	ENDS
PUBLIC	_==
; Function compile flags: /Ogtpy
;	COMDAT _==
_TEXT	SEGMENT
_guidOne$ = 8						; size = 4
_guidOther$ = 12					; size = 4
_==	PROC						; COMDAT

; 194  :     return IsEqualGUID(guidOne,guidOther);

	jmp	_IsEqualGUID
_==	ENDP
_TEXT	ENDS
PUBLIC	?GetInterfaceId@ICvUnknown@@SG?AU_GUID@@XZ	; ICvUnknown::GetInterfaceId
; Function compile flags: /Ogtpy
; File s:\github\lekmod\lekmod_dll\cvgamecoredllutil\include\cvdllinterfaces.h
;	COMDAT ?GetInterfaceId@ICvUnknown@@SG?AU_GUID@@XZ
_TEXT	SEGMENT
$T219649 = 8						; size = 4
?GetInterfaceId@ICvUnknown@@SG?AU_GUID@@XZ PROC		; ICvUnknown::GetInterfaceId, COMDAT

; 306  : 	static GUID DLLCALL GetInterfaceId(){ return guidICvUnknown; }

	mov	eax, DWORD PTR $T219649[esp-4]
	mov	ecx, DWORD PTR _guidICvUnknown
	mov	edx, DWORD PTR _guidICvUnknown+4
	mov	DWORD PTR [eax], ecx
	mov	ecx, DWORD PTR _guidICvUnknown+8
	mov	DWORD PTR [eax+4], edx
	mov	edx, DWORD PTR _guidICvUnknown+12
	mov	DWORD PTR [eax+8], ecx
	mov	DWORD PTR [eax+12], edx
	ret	4
?GetInterfaceId@ICvUnknown@@SG?AU_GUID@@XZ ENDP		; ICvUnknown::GetInterfaceId
_TEXT	ENDS
PUBLIC	?GetInterfaceId@ICvMinorCivInfo1@@SG?AU_GUID@@XZ ; ICvMinorCivInfo1::GetInterfaceId
; Function compile flags: /Ogtpy
;	COMDAT ?GetInterfaceId@ICvMinorCivInfo1@@SG?AU_GUID@@XZ
_TEXT	SEGMENT
$T219653 = 8						; size = 4
?GetInterfaceId@ICvMinorCivInfo1@@SG?AU_GUID@@XZ PROC	; ICvMinorCivInfo1::GetInterfaceId, COMDAT

; 495  : 	static GUID DLLCALL GetInterfaceId() { return guidICvMinorCivInfo1; }

	mov	eax, DWORD PTR $T219653[esp-4]
	mov	ecx, DWORD PTR _guidICvMinorCivInfo1
	mov	edx, DWORD PTR _guidICvMinorCivInfo1+4
	mov	DWORD PTR [eax], ecx
	mov	ecx, DWORD PTR _guidICvMinorCivInfo1+8
	mov	DWORD PTR [eax+4], edx
	mov	edx, DWORD PTR _guidICvMinorCivInfo1+12
	mov	DWORD PTR [eax+8], ecx
	mov	DWORD PTR [eax+12], edx
	ret	4
?GetInterfaceId@ICvMinorCivInfo1@@SG?AU_GUID@@XZ ENDP	; ICvMinorCivInfo1::GetInterfaceId
_TEXT	ENDS
PUBLIC	?GetDescription@CvBaseInfo@@QBEPBDXZ		; CvBaseInfo::GetDescription
; Function compile flags: /Ogtpy
; File s:\github\lekmod\lekmod_dll\cvgamecoredll_expansion2\cvinfos.h
;	COMDAT ?GetDescription@CvBaseInfo@@QBEPBDXZ
_TEXT	SEGMENT
?GetDescription@CvBaseInfo@@QBEPBDXZ PROC		; CvBaseInfo::GetDescription, COMDAT
; _this$ = ecx

; 64   : 		return m_strDescription.c_str();

	add	ecx, 36					; 00000024H
	jmp	DWORD PTR __imp_?c_str@?$basic_string@DU?$char_traits@D@std@@V?$allocator@D@2@@std@@QBEPBDXZ
?GetDescription@CvBaseInfo@@QBEPBDXZ ENDP		; CvBaseInfo::GetDescription
_TEXT	ENDS
PUBLIC	?GetType@CvBaseInfo@@QBEPBDXZ			; CvBaseInfo::GetType
; Function compile flags: /Ogtpy
;	COMDAT ?GetType@CvBaseInfo@@QBEPBDXZ
_TEXT	SEGMENT
?GetType@CvBaseInfo@@QBEPBDXZ PROC			; CvBaseInfo::GetType, COMDAT
; _this$ = ecx

; 92   : 		return m_strType.c_str();

	add	ecx, 176				; 000000b0H
	jmp	DWORD PTR __imp_?c_str@?$basic_string@DU?$char_traits@D@std@@V?$allocator@D@2@@std@@QBEPBDXZ
?GetType@CvBaseInfo@@QBEPBDXZ ENDP			; CvBaseInfo::GetType
_TEXT	ENDS
PUBLIC	??_7ICvMinorCivInfo1@@6B@			; ICvMinorCivInfo1::`vftable'
PUBLIC	??0ICvMinorCivInfo1@@QAE@XZ			; ICvMinorCivInfo1::ICvMinorCivInfo1
PUBLIC	??_R4ICvMinorCivInfo1@@6B@			; ICvMinorCivInfo1::`RTTI Complete Object Locator'
;	COMDAT ??_R4ICvMinorCivInfo1@@6B@
rdata$r	SEGMENT
??_R4ICvMinorCivInfo1@@6B@ DD 00H			; ICvMinorCivInfo1::`RTTI Complete Object Locator'
	DD	00H
	DD	00H
	DD	FLAT:??_R0?AVICvMinorCivInfo1@@@8
	DD	FLAT:??_R3ICvMinorCivInfo1@@8
rdata$r	ENDS
;	COMDAT ??_7ICvMinorCivInfo1@@6B@
CONST	SEGMENT
??_7ICvMinorCivInfo1@@6B@ DD FLAT:??_R4ICvMinorCivInfo1@@6B@ ; ICvMinorCivInfo1::`vftable'
	DD	FLAT:__purecall
	DD	FLAT:__purecall
	DD	FLAT:__purecall
	DD	FLAT:__purecall
	DD	FLAT:__purecall
	DD	FLAT:__purecall
	DD	FLAT:__purecall
	DD	FLAT:__purecall
	DD	FLAT:__purecall
	DD	FLAT:__purecall
; Function compile flags: /Ogtpy
CONST	ENDS
;	COMDAT ??0ICvMinorCivInfo1@@QAE@XZ
_TEXT	SEGMENT
??0ICvMinorCivInfo1@@QAE@XZ PROC			; ICvMinorCivInfo1::ICvMinorCivInfo1, COMDAT
; _this$ = ecx
	mov	eax, ecx
	mov	DWORD PTR [eax], OFFSET ??_7ICvMinorCivInfo1@@6B@
	ret	0
??0ICvMinorCivInfo1@@QAE@XZ ENDP			; ICvMinorCivInfo1::ICvMinorCivInfo1
; Function compile flags: /Ogtpy
; File s:\github\lekmod\lekmod_dll\cvgamecoredll_expansion2\cvdllminorcivinfo.cpp
_TEXT	ENDS
;	COMDAT ?QueryInterface@CvDllMinorCivInfo@@UAGPAXU_GUID@@@Z
_TEXT	SEGMENT
$T219673 = -16						; size = 16
$T219671 = -16						; size = 16
_this$ = 8						; size = 4
_guidInterface$ = 12					; size = 16
?QueryInterface@CvDllMinorCivInfo@@UAGPAXU_GUID@@@Z PROC ; CvDllMinorCivInfo::QueryInterface, COMDAT

; 30   : {

	sub	esp, 16					; 00000010H

; 31   : 	if(guidInterface == ICvUnknown::GetInterfaceId() ||
; 32   : 	        guidInterface == ICvMinorCivInfo1::GetInterfaceId())

	mov	ecx, DWORD PTR _guidICvUnknown+4
	mov	edx, DWORD PTR _guidICvUnknown+8
	mov	eax, DWORD PTR _guidICvUnknown
	mov	DWORD PTR $T219671[esp+20], ecx
	lea	ecx, DWORD PTR $T219671[esp+16]
	mov	DWORD PTR $T219671[esp+24], edx
	mov	DWORD PTR $T219671[esp+16], eax
	mov	eax, DWORD PTR _guidICvUnknown+12
	push	ecx
	lea	edx, DWORD PTR _guidInterface$[esp+16]
	push	edx
	mov	DWORD PTR $T219671[esp+36], eax
	call	_IsEqualGUID
	add	esp, 8
	test	eax, eax
	jne	SHORT $LN1@QueryInter
	mov	ecx, DWORD PTR _guidICvMinorCivInfo1+4
	mov	edx, DWORD PTR _guidICvMinorCivInfo1+8
	mov	eax, DWORD PTR _guidICvMinorCivInfo1
	mov	DWORD PTR $T219673[esp+20], ecx
	lea	ecx, DWORD PTR $T219673[esp+16]
	mov	DWORD PTR $T219673[esp+24], edx
	mov	DWORD PTR $T219673[esp+16], eax
	mov	eax, DWORD PTR _guidICvMinorCivInfo1+12
	push	ecx
	lea	edx, DWORD PTR _guidInterface$[esp+16]
	push	edx
	mov	DWORD PTR $T219673[esp+36], eax
	call	_IsEqualGUID
	add	esp, 8
	test	eax, eax
	jne	SHORT $LN1@QueryInter

; 35   : 		return this;
; 36   : 	}
; 37   : 
; 38   : 	return NULL;
; 39   : }

	add	esp, 16					; 00000010H
	ret	20					; 00000014H
$LN1@QueryInter:

; 33   : 	{
; 34   : 		IncrementReference();

	mov	eax, DWORD PTR _this$[esp+12]
	inc	DWORD PTR [eax+4]

; 35   : 		return this;
; 36   : 	}
; 37   : 
; 38   : 	return NULL;
; 39   : }

	add	esp, 16					; 00000010H
	ret	20					; 00000014H
?QueryInterface@CvDllMinorCivInfo@@UAGPAXU_GUID@@@Z ENDP ; CvDllMinorCivInfo::QueryInterface
_TEXT	ENDS
PUBLIC	??_GCvDllMinorCivInfo@@QAEPAXI@Z		; CvDllMinorCivInfo::`scalar deleting destructor'
; Function compile flags: /Ogtpy
;	COMDAT ??_GCvDllMinorCivInfo@@QAEPAXI@Z
_TEXT	SEGMENT
___flags$ = 8						; size = 4
??_GCvDllMinorCivInfo@@QAEPAXI@Z PROC			; CvDllMinorCivInfo::`scalar deleting destructor', COMDAT
; _this$ = ecx
	test	BYTE PTR ___flags$[esp-4], 1
	push	esi
	mov	esi, ecx
	mov	DWORD PTR [esi], OFFSET ??_7CvDllMinorCivInfo@@6B@
	je	SHORT $LN8@scalar
	push	esi
	call	?Free@CvDllGameContext@@SAXPAX@Z	; CvDllGameContext::Free
	add	esp, 4
$LN8@scalar:
	mov	eax, esi
	pop	esi
	ret	4
??_GCvDllMinorCivInfo@@QAEPAXI@Z ENDP			; CvDllMinorCivInfo::`scalar deleting destructor'
; Function compile flags: /Ogtpy
_TEXT	ENDS
;	COMDAT ?GetType@CvDllMinorCivInfo@@UAGPBDXZ
_TEXT	SEGMENT
_this$ = 8						; size = 4
?GetType@CvDllMinorCivInfo@@UAGPBDXZ PROC		; CvDllMinorCivInfo::GetType, COMDAT

; 88   : 	return m_pMinorCivInfo->GetType();

	mov	eax, DWORD PTR _this$[esp-4]
	mov	eax, DWORD PTR [eax+8]
	lea	ecx, DWORD PTR [eax+176]
	call	DWORD PTR __imp_?c_str@?$basic_string@DU?$char_traits@D@std@@V?$allocator@D@2@@std@@QBEPBDXZ

; 89   : }

	ret	4
?GetType@CvDllMinorCivInfo@@UAGPBDXZ ENDP		; CvDllMinorCivInfo::GetType
; Function compile flags: /Ogtpy
_TEXT	ENDS
;	COMDAT ?GetDescription@CvDllMinorCivInfo@@UAGPBDXZ
_TEXT	SEGMENT
_this$ = 8						; size = 4
?GetDescription@CvDllMinorCivInfo@@UAGPBDXZ PROC	; CvDllMinorCivInfo::GetDescription, COMDAT

; 93   : 	return m_pMinorCivInfo->GetDescription();

	mov	eax, DWORD PTR _this$[esp-4]
	mov	eax, DWORD PTR [eax+8]
	lea	ecx, DWORD PTR [eax+36]
	call	DWORD PTR __imp_?c_str@?$basic_string@DU?$char_traits@D@std@@V?$allocator@D@2@@std@@QBEPBDXZ

; 94   : }

	ret	4
?GetDescription@CvDllMinorCivInfo@@UAGPBDXZ ENDP	; CvDllMinorCivInfo::GetDescription
_TEXT	ENDS
PUBLIC	??0CvDllMinorCivInfo@@QAE@PAVCvMinorCivInfo@@@Z	; CvDllMinorCivInfo::CvDllMinorCivInfo
; Function compile flags: /Ogtpy
;	COMDAT ??0CvDllMinorCivInfo@@QAE@PAVCvMinorCivInfo@@@Z
_TEXT	SEGMENT
_pMinorCivInfo$ = 8					; size = 4
??0CvDllMinorCivInfo@@QAE@PAVCvMinorCivInfo@@@Z PROC	; CvDllMinorCivInfo::CvDllMinorCivInfo, COMDAT
; _this$ = ecx

; 21   : {

	mov	eax, ecx
	mov	ecx, DWORD PTR _pMinorCivInfo$[esp-4]
	mov	DWORD PTR [eax], OFFSET ??_7CvDllMinorCivInfo@@6B@
	mov	DWORD PTR [eax+4], 1
	mov	DWORD PTR [eax+8], ecx

; 22   : 	FAssertMsg(pMinorCivInfo != NULL, "SHOULD NOT HAPPEN");
; 23   : }

	ret	4
??0CvDllMinorCivInfo@@QAE@PAVCvMinorCivInfo@@@Z ENDP	; CvDllMinorCivInfo::CvDllMinorCivInfo
_TEXT	ENDS
PUBLIC	?DecrementReference@CvDllMinorCivInfo@@QAEIXZ	; CvDllMinorCivInfo::DecrementReference
; Function compile flags: /Ogtpy
;	COMDAT ?DecrementReference@CvDllMinorCivInfo@@QAEIXZ
_TEXT	SEGMENT
?DecrementReference@CvDllMinorCivInfo@@QAEIXZ PROC	; CvDllMinorCivInfo::DecrementReference, COMDAT
; _this$ = ecx

; 49   : 	if(m_uiRefCount == 1)

	mov	eax, DWORD PTR [ecx+4]
	cmp	eax, 1
	jne	SHORT $LN2@DecrementR

; 50   : 	{
; 51   : 		delete this;

	push	ecx
	mov	DWORD PTR [ecx], OFFSET ??_7CvDllMinorCivInfo@@6B@
	call	?Free@CvDllGameContext@@SAXPAX@Z	; CvDllGameContext::Free
	add	esp, 4

; 52   : 		return 0;

	xor	eax, eax

; 57   : 		return m_uiRefCount;
; 58   : 	}
; 59   : }

	ret	0
$LN2@DecrementR:

; 53   : 	}
; 54   : 	else
; 55   : 	{
; 56   : 		--m_uiRefCount;

	dec	eax
	mov	DWORD PTR [ecx+4], eax

; 57   : 		return m_uiRefCount;
; 58   : 	}
; 59   : }

	ret	0
?DecrementReference@CvDllMinorCivInfo@@QAEIXZ ENDP	; CvDllMinorCivInfo::DecrementReference
; Function compile flags: /Ogtpy
_TEXT	ENDS
;	COMDAT ?Destroy@CvDllMinorCivInfo@@EAGXXZ
_TEXT	SEGMENT
_this$ = 8						; size = 4
?Destroy@CvDllMinorCivInfo@@EAGXXZ PROC			; CvDllMinorCivInfo::Destroy, COMDAT

; 68   : 	DecrementReference();

	mov	eax, DWORD PTR _this$[esp-4]
	mov	ecx, DWORD PTR [eax+4]
	cmp	ecx, 1
	jne	SHORT $LN4@Destroy
	push	eax
	mov	DWORD PTR [eax], OFFSET ??_7CvDllMinorCivInfo@@6B@
	call	?Free@CvDllGameContext@@SAXPAX@Z	; CvDllGameContext::Free
	add	esp, 4

; 69   : }

	ret	4

; 68   : 	DecrementReference();

$LN4@Destroy:
	dec	ecx
	mov	DWORD PTR [eax+4], ecx

; 69   : }

	ret	4
?Destroy@CvDllMinorCivInfo@@EAGXXZ ENDP			; CvDllMinorCivInfo::Destroy
_TEXT	ENDS
END
