; Listing generated by Microsoft (R) Optimizing Compiler Version 15.00.30729.01 

	TITLE	c:\Users\EnormousApplePie\Documents\GitHub\Lekmod\LEKMOD_DLL\CvGameCoreDLL_Expansion2\CvDllContext.cpp
	.686P
	.XMM
	include listing.inc
	.model	flat

INCLUDELIB MSVCRT
INCLUDELIB OLDNAMES

PUBLIC	?s_pSingleton@CvDllGameContext@@0PAV1@A		; CvDllGameContext::s_pSingleton
PUBLIC	?s_hHeap@CvDllGameContext@@0PAXA		; CvDllGameContext::s_hHeap
_BSS	SEGMENT
?s_pSingleton@CvDllGameContext@@0PAV1@A DD 01H DUP (?)	; CvDllGameContext::s_pSingleton
_BSS	ENDS
_DATA	SEGMENT
_CIV5_XP2_DLL_VERSION DD FLAT:$SG217637
?s_hHeap@CvDllGameContext@@0PAXA DD 0ffffffffH		; CvDllGameContext::s_hHeap
_DATA	ENDS
CONST	SEGMENT
_CIV5_XP2_DLL_GUID DD 013c6ca53H
	DW	050ffH
	DW	04a66H
	DB	094H
	DB	01bH
	DB	05dH
	DB	05dH
	DB	0aaH
	DB	090H
	DB	0c6H
	DB	084H
$SG217637 DB	'1.0.0', 00H
$SG223398 DB	00H
$SG223400 DB	00H
$SG223379 DB	'net_message_debug.log', 00H
	ORG $+2
$SG223381 DB	00H, 00H
	ORG $+2
$SG223383 DB	'Game Random Number Generators are out of sync : local.se'
	DB	'ed=', 00H
$SG223390 DB	', remote.seed=', 00H
	ORG $+1
$SG223391 DB	0aH, 09H, 'local.callCount=', 00H
	ORG $+1
$SG223392 DB	', remote.callCount=', 00H
$SG223393 DB	0aH, 09H, 'local.resetCount=', 00H
$SG223394 DB	', remote.resetCount=', 00H
	ORG $+3
$SG223395 DB	0aH, 00H
	ORG $+2
$SG223842 DB	'At Call #', 00H
	ORG $+2
$SG223843 DB	' random number seeds are different.', 0aH, 00H
	ORG $+3
$SG223845 DB	'Call #', 00H
	ORG $+1
$SG223846 DB	0aH, 'Local:', 0aH, 00H
	ORG $+3
$SG223847 DB	0aH, 'Remote:', 0aH, 00H
	ORG $+2
$SG223848 DB	'Call #', 00H
	ORG $+1
$SG223849 DB	0aH, 'Local:', 0aH, 00H
	ORG $+3
$SG223850 DB	0aH, 'Remote:', 0aH, 00H
	ORG $+6
$SG223854 DB	0aH, 'Local random number generator called more than remo'
	DB	'te at call #', 00H
	ORG $+3
$SG223855 DB	0aH, 00H
	ORG $+2
$SG223857 DB	'Local CallStack:', 0aH, 00H
	ORG $+6
$SG223862 DB	0aH, 'remote random number generator called more than loc'
	DB	'al at call #', 00H
	ORG $+3
$SG223863 DB	0aH, 00H
	ORG $+2
$SG223865 DB	'remote CallStack:', 0aH, 00H
	ORG $+1
$SG223988 DB	0aH, 'First different callstack at call #', 00H
	ORG $+3
$SG223989 DB	0aH, 00H
	ORG $+2
$SG223990 DB	'Local :', 0aH, 00H
	ORG $+3
$SG223991 DB	'Remote :', 0aH, 00H
	ORG $+2
$SG223994 DB	0aH, 'Debug dump:', 0aH, 00H
	ORG $+2
$SG223995 DB	'Seed History -', 0aH, 00H
$SG224004 DB	09H, ' Call #', 00H
	ORG $+3
$SG224005 DB	' LOCAL=', 00H
$SG224008 DB	09H, 'REMOTE=', 00H
	ORG $+3
$SG224011 DB	0aH, 00H
	ORG $+2
$SG224012 DB	0aH, 'Local callstack history', 0aH, 00H
	ORG $+2
$SG224027 DB	'Last message repeated ', 00H
	ORG $+1
$SG224028 DB	' times', 0aH, 00H
$SG224029 DB	'Call #', 00H
	ORG $+1
$SG224030 DB	0aH, 00H
	ORG $+2
$SG224032 DB	0aH, 'Remote callstack history', 0aH, 00H
	ORG $+1
$SG224040 DB	'Last message repeated ', 00H
	ORG $+1
$SG224041 DB	' times', 0aH, 00H
$SG224042 DB	'Call #', 00H
	ORG $+1
$SG224043 DB	0aH, 00H
	ORG $+2
_guidICvUnknown DD 0d89ba82fH
	DW	09fa3H
	DW	04696H
	DB	0b3H
	DB	0f4H
	DB	052H
	DB	0bdH
	DB	0b1H
	DB	01H
	DB	0cfH
	DB	0b2H
_guidICvGameContext1 DD 0a309fa38H
	DW	0cf60H
	DW	04239H
	DB	0a1H
	DB	062H
	DB	085H
	DB	086H
	DB	0c0H
	DB	0d1H
	DB	0c7H
	DB	0d3H
_guidICvNetMessageHandler1 DD 055b80da7H
	DW	0d175H
	DW	04ea7H
	DB	0b5H
	DB	055H
	DB	0b9H
	DB	088H
	DB	045H
	DB	0ddH
	DB	0dcH
	DB	08eH
_guidICvGameContext2 DD 0cf7820cdH
	DW	0e960H
	DW	041efH
	DB	09cH
	DB	05aH
	DB	09dH
	DB	03H
	DB	0cH
	DB	03bH
	DB	0c3H
	DB	0bH
_guidICvGameContext3 DD 08921e7a6H
	DW	0a1fdH
	DW	04301H
	DB	094H
	DB	0b9H
	DB	0d5H
	DB	083H
	DB	0ccH
	DB	010H
	DB	02aH
	DB	011H
_guidICvEngineUtility4 DD 0dd8a29a2H
	DW	0e752H
	DW	04bf7H
	DB	09eH
	DB	0e0H
	DB	042H
	DB	0b8H
	DB	015H
	DB	05fH
	DB	017H
	DB	05fH
CONST	ENDS
PUBLIC	??_7ICvUnknown@@6B@				; ICvUnknown::`vftable'
PUBLIC	??0ICvUnknown@@QAE@XZ				; ICvUnknown::ICvUnknown
PUBLIC	??_R4ICvUnknown@@6B@				; ICvUnknown::`RTTI Complete Object Locator'
PUBLIC	??_R0?AVICvUnknown@@@8				; ICvUnknown `RTTI Type Descriptor'
PUBLIC	??_R3ICvUnknown@@8				; ICvUnknown::`RTTI Class Hierarchy Descriptor'
PUBLIC	??_R2ICvUnknown@@8				; ICvUnknown::`RTTI Base Class Array'
PUBLIC	??_R1A@?0A@EA@ICvUnknown@@8			; ICvUnknown::`RTTI Base Class Descriptor at (0,-1,0,64)'
EXTRN	??_7type_info@@6B@:QWORD			; type_info::`vftable'
EXTRN	__purecall:PROC
;	COMDAT ??_R1A@?0A@EA@ICvUnknown@@8
rdata$r	SEGMENT
??_R1A@?0A@EA@ICvUnknown@@8 DD FLAT:??_R0?AVICvUnknown@@@8 ; ICvUnknown::`RTTI Base Class Descriptor at (0,-1,0,64)'
	DD	00H
	DD	00H
	DD	0ffffffffH
	DD	00H
	DD	040H
	DD	FLAT:??_R3ICvUnknown@@8
rdata$r	ENDS
;	COMDAT ??_R2ICvUnknown@@8
rdata$r	SEGMENT
??_R2ICvUnknown@@8 DD FLAT:??_R1A@?0A@EA@ICvUnknown@@8	; ICvUnknown::`RTTI Base Class Array'
rdata$r	ENDS
;	COMDAT ??_R3ICvUnknown@@8
rdata$r	SEGMENT
??_R3ICvUnknown@@8 DD 00H				; ICvUnknown::`RTTI Class Hierarchy Descriptor'
	DD	00H
	DD	01H
	DD	FLAT:??_R2ICvUnknown@@8
rdata$r	ENDS
;	COMDAT ??_R0?AVICvUnknown@@@8
_DATA	SEGMENT
??_R0?AVICvUnknown@@@8 DD FLAT:??_7type_info@@6B@	; ICvUnknown `RTTI Type Descriptor'
	DD	00H
	DB	'.?AVICvUnknown@@', 00H
_DATA	ENDS
;	COMDAT ??_R4ICvUnknown@@6B@
rdata$r	SEGMENT
??_R4ICvUnknown@@6B@ DD 00H				; ICvUnknown::`RTTI Complete Object Locator'
	DD	00H
	DD	00H
	DD	FLAT:??_R0?AVICvUnknown@@@8
	DD	FLAT:??_R3ICvUnknown@@8
rdata$r	ENDS
;	COMDAT ??_7ICvUnknown@@6B@
CONST	SEGMENT
??_7ICvUnknown@@6B@ DD FLAT:??_R4ICvUnknown@@6B@	; ICvUnknown::`vftable'
	DD	FLAT:__purecall
	DD	FLAT:__purecall
; Function compile flags: /Ogtpy
CONST	ENDS
;	COMDAT ??0ICvUnknown@@QAE@XZ
_TEXT	SEGMENT
??0ICvUnknown@@QAE@XZ PROC				; ICvUnknown::ICvUnknown, COMDAT
; _this$ = ecx
	mov	eax, ecx
	mov	DWORD PTR [eax], OFFSET ??_7ICvUnknown@@6B@
	ret	0
??0ICvUnknown@@QAE@XZ ENDP				; ICvUnknown::ICvUnknown
_TEXT	ENDS
PUBLIC	_IsEqualGUID
; Function compile flags: /Ogtpy
; File c:\program files\microsoft sdks\windows\v6.0a\include\guiddef.h
;	COMDAT _IsEqualGUID
_TEXT	SEGMENT
_rguid1$ = 8						; size = 4
_rguid2$ = 12						; size = 4
_IsEqualGUID PROC					; COMDAT

; 161  :     return !memcmp(&rguid1, &rguid2, sizeof(GUID));

	mov	ecx, DWORD PTR _rguid2$[esp-4]
	mov	edx, DWORD PTR _rguid1$[esp-4]
	mov	eax, 16					; 00000010H
	push	esi
	npad	2
$LL4@IsEqualGUI:
	mov	esi, DWORD PTR [edx]
	cmp	esi, DWORD PTR [ecx]
	jne	SHORT $LN5@IsEqualGUI
	sub	eax, 4
	add	ecx, 4
	add	edx, 4
	cmp	eax, 4
	jae	SHORT $LL4@IsEqualGUI
	xor	eax, eax
	xor	edx, edx
	test	eax, eax
	sete	dl
	pop	esi
	mov	eax, edx

; 162  : }

	ret	0
$LN5@IsEqualGUI:

; 161  :     return !memcmp(&rguid1, &rguid2, sizeof(GUID));

	movzx	eax, BYTE PTR [edx]
	movzx	esi, BYTE PTR [ecx]
	sub	eax, esi
	jne	SHORT $LN7@IsEqualGUI
	movzx	eax, BYTE PTR [edx+1]
	movzx	esi, BYTE PTR [ecx+1]
	sub	eax, esi
	jne	SHORT $LN7@IsEqualGUI
	movzx	eax, BYTE PTR [edx+2]
	movzx	esi, BYTE PTR [ecx+2]
	sub	eax, esi
	jne	SHORT $LN7@IsEqualGUI
	movzx	eax, BYTE PTR [edx+3]
	movzx	ecx, BYTE PTR [ecx+3]
	sub	eax, ecx
$LN7@IsEqualGUI:
	sar	eax, 31					; 0000001fH
	or	eax, 1
	xor	edx, edx
	test	eax, eax
	sete	dl
	pop	esi
	mov	eax, edx

; 162  : }

	ret	0
_IsEqualGUID ENDP
_TEXT	ENDS
PUBLIC	??_GCvDllNetworkSyncronization@@QAEPAXI@Z	; CvDllNetworkSyncronization::`scalar deleting destructor'
EXTRN	??3CvDllNetworkSyncronization@@SAXPAX@Z:PROC	; CvDllNetworkSyncronization::operator delete
EXTRN	??1CvDllNetworkSyncronization@@QAE@XZ:PROC	; CvDllNetworkSyncronization::~CvDllNetworkSyncronization
; Function compile flags: /Ogtpy
;	COMDAT ??_GCvDllNetworkSyncronization@@QAEPAXI@Z
_TEXT	SEGMENT
___flags$ = 8						; size = 4
??_GCvDllNetworkSyncronization@@QAEPAXI@Z PROC		; CvDllNetworkSyncronization::`scalar deleting destructor', COMDAT
; _this$ = ecx
	push	esi
	mov	esi, ecx
	call	??1CvDllNetworkSyncronization@@QAE@XZ	; CvDllNetworkSyncronization::~CvDllNetworkSyncronization
	test	BYTE PTR ___flags$[esp], 1
	je	SHORT $LN4@scalar
	push	esi
	call	??3CvDllNetworkSyncronization@@SAXPAX@Z	; CvDllNetworkSyncronization::operator delete
	add	esp, 4
$LN4@scalar:
	mov	eax, esi
	pop	esi
	ret	4
??_GCvDllNetworkSyncronization@@QAEPAXI@Z ENDP		; CvDllNetworkSyncronization::`scalar deleting destructor'
_TEXT	ENDS
PUBLIC	_==
; Function compile flags: /Ogtpy
;	COMDAT _==
_TEXT	SEGMENT
_guidOne$ = 8						; size = 4
_guidOther$ = 12					; size = 4
_==	PROC						; COMDAT

; 194  :     return IsEqualGUID(guidOne,guidOther);

	jmp	_IsEqualGUID
_==	ENDP
_TEXT	ENDS
PUBLIC	??_GCvDllNetMessageHandler@@QAEPAXI@Z		; CvDllNetMessageHandler::`scalar deleting destructor'
EXTRN	??3CvDllNetMessageHandler@@SAXPAX@Z:PROC	; CvDllNetMessageHandler::operator delete
EXTRN	??1CvDllNetMessageHandler@@QAE@XZ:PROC		; CvDllNetMessageHandler::~CvDllNetMessageHandler
; Function compile flags: /Ogtpy
;	COMDAT ??_GCvDllNetMessageHandler@@QAEPAXI@Z
_TEXT	SEGMENT
___flags$ = 8						; size = 4
??_GCvDllNetMessageHandler@@QAEPAXI@Z PROC		; CvDllNetMessageHandler::`scalar deleting destructor', COMDAT
; _this$ = ecx
	push	esi
	mov	esi, ecx
	call	??1CvDllNetMessageHandler@@QAE@XZ	; CvDllNetMessageHandler::~CvDllNetMessageHandler
	test	BYTE PTR ___flags$[esp], 1
	je	SHORT $LN4@scalar@2
	push	esi
	call	??3CvDllNetMessageHandler@@SAXPAX@Z	; CvDllNetMessageHandler::operator delete
	add	esp, 4
$LN4@scalar@2:
	mov	eax, esi
	pop	esi
	ret	4
??_GCvDllNetMessageHandler@@QAEPAXI@Z ENDP		; CvDllNetMessageHandler::`scalar deleting destructor'
_TEXT	ENDS
PUBLIC	??_GCvDllScriptSystemUtility@@QAEPAXI@Z		; CvDllScriptSystemUtility::`scalar deleting destructor'
EXTRN	??3CvDllScriptSystemUtility@@SAXPAX@Z:PROC	; CvDllScriptSystemUtility::operator delete
EXTRN	??1CvDllScriptSystemUtility@@QAE@XZ:PROC	; CvDllScriptSystemUtility::~CvDllScriptSystemUtility
; Function compile flags: /Ogtpy
;	COMDAT ??_GCvDllScriptSystemUtility@@QAEPAXI@Z
_TEXT	SEGMENT
___flags$ = 8						; size = 4
??_GCvDllScriptSystemUtility@@QAEPAXI@Z PROC		; CvDllScriptSystemUtility::`scalar deleting destructor', COMDAT
; _this$ = ecx
	push	esi
	mov	esi, ecx
	call	??1CvDllScriptSystemUtility@@QAE@XZ	; CvDllScriptSystemUtility::~CvDllScriptSystemUtility
	test	BYTE PTR ___flags$[esp], 1
	je	SHORT $LN4@scalar@3
	push	esi
	call	??3CvDllScriptSystemUtility@@SAXPAX@Z	; CvDllScriptSystemUtility::operator delete
	add	esp, 4
$LN4@scalar@3:
	mov	eax, esi
	pop	esi
	ret	4
??_GCvDllScriptSystemUtility@@QAEPAXI@Z ENDP		; CvDllScriptSystemUtility::`scalar deleting destructor'
_TEXT	ENDS
PUBLIC	??_GCvDllWorldBuilderMapLoader@@QAEPAXI@Z	; CvDllWorldBuilderMapLoader::`scalar deleting destructor'
EXTRN	??3CvDllWorldBuilderMapLoader@@SAXPAX@Z:PROC	; CvDllWorldBuilderMapLoader::operator delete
EXTRN	??1CvDllWorldBuilderMapLoader@@QAE@XZ:PROC	; CvDllWorldBuilderMapLoader::~CvDllWorldBuilderMapLoader
; Function compile flags: /Ogtpy
;	COMDAT ??_GCvDllWorldBuilderMapLoader@@QAEPAXI@Z
_TEXT	SEGMENT
___flags$ = 8						; size = 4
??_GCvDllWorldBuilderMapLoader@@QAEPAXI@Z PROC		; CvDllWorldBuilderMapLoader::`scalar deleting destructor', COMDAT
; _this$ = ecx
	push	esi
	mov	esi, ecx
	call	??1CvDllWorldBuilderMapLoader@@QAE@XZ	; CvDllWorldBuilderMapLoader::~CvDllWorldBuilderMapLoader
	test	BYTE PTR ___flags$[esp], 1
	je	SHORT $LN4@scalar@4
	push	esi
	call	??3CvDllWorldBuilderMapLoader@@SAXPAX@Z	; CvDllWorldBuilderMapLoader::operator delete
	add	esp, 4
$LN4@scalar@4:
	mov	eax, esi
	pop	esi
	ret	4
??_GCvDllWorldBuilderMapLoader@@QAEPAXI@Z ENDP		; CvDllWorldBuilderMapLoader::`scalar deleting destructor'
_TEXT	ENDS
PUBLIC	??_GCvDllNetInitInfo@@QAEPAXI@Z			; CvDllNetInitInfo::`scalar deleting destructor'
EXTRN	??3CvDllNetInitInfo@@SAXPAX@Z:PROC		; CvDllNetInitInfo::operator delete
EXTRN	??1CvDllNetInitInfo@@QAE@XZ:PROC		; CvDllNetInitInfo::~CvDllNetInitInfo
; Function compile flags: /Ogtpy
;	COMDAT ??_GCvDllNetInitInfo@@QAEPAXI@Z
_TEXT	SEGMENT
___flags$ = 8						; size = 4
??_GCvDllNetInitInfo@@QAEPAXI@Z PROC			; CvDllNetInitInfo::`scalar deleting destructor', COMDAT
; _this$ = ecx
	push	esi
	mov	esi, ecx
	call	??1CvDllNetInitInfo@@QAE@XZ		; CvDllNetInitInfo::~CvDllNetInitInfo
	test	BYTE PTR ___flags$[esp], 1
	je	SHORT $LN4@scalar@5
	push	esi
	call	??3CvDllNetInitInfo@@SAXPAX@Z		; CvDllNetInitInfo::operator delete
	add	esp, 4
$LN4@scalar@5:
	mov	eax, esi
	pop	esi
	ret	4
??_GCvDllNetInitInfo@@QAEPAXI@Z ENDP			; CvDllNetInitInfo::`scalar deleting destructor'
_TEXT	ENDS
PUBLIC	??_GCvDllNetLoadGameInfo@@QAEPAXI@Z		; CvDllNetLoadGameInfo::`scalar deleting destructor'
EXTRN	??3CvDllNetLoadGameInfo@@SAXPAX@Z:PROC		; CvDllNetLoadGameInfo::operator delete
EXTRN	??1CvDllNetLoadGameInfo@@QAE@XZ:PROC		; CvDllNetLoadGameInfo::~CvDllNetLoadGameInfo
; Function compile flags: /Ogtpy
;	COMDAT ??_GCvDllNetLoadGameInfo@@QAEPAXI@Z
_TEXT	SEGMENT
___flags$ = 8						; size = 4
??_GCvDllNetLoadGameInfo@@QAEPAXI@Z PROC		; CvDllNetLoadGameInfo::`scalar deleting destructor', COMDAT
; _this$ = ecx
	push	esi
	mov	esi, ecx
	call	??1CvDllNetLoadGameInfo@@QAE@XZ		; CvDllNetLoadGameInfo::~CvDllNetLoadGameInfo
	test	BYTE PTR ___flags$[esp], 1
	je	SHORT $LN4@scalar@6
	push	esi
	call	??3CvDllNetLoadGameInfo@@SAXPAX@Z	; CvDllNetLoadGameInfo::operator delete
	add	esp, 4
$LN4@scalar@6:
	mov	eax, esi
	pop	esi
	ret	4
??_GCvDllNetLoadGameInfo@@QAEPAXI@Z ENDP		; CvDllNetLoadGameInfo::`scalar deleting destructor'
_TEXT	ENDS
PUBLIC	?GetDLLGUID@CvDllGameContext@@UAG?AU_GUID@@XZ	; CvDllGameContext::GetDLLGUID
; Function compile flags: /Ogtpy
; File c:\users\enormousapplepie\documents\github\lekmod\lekmod_dll\cvgamecoredll_expansion2\cvdllcontext.cpp
;	COMDAT ?GetDLLGUID@CvDllGameContext@@UAG?AU_GUID@@XZ
_TEXT	SEGMENT
_this$ = 8						; size = 4
___$ReturnUdt$ = 12					; size = 4
?GetDLLGUID@CvDllGameContext@@UAG?AU_GUID@@XZ PROC	; CvDllGameContext::GetDLLGUID, COMDAT

; 115  : 	return CIV5_XP2_DLL_GUID;

	mov	eax, DWORD PTR ___$ReturnUdt$[esp-4]
	mov	ecx, DWORD PTR _CIV5_XP2_DLL_GUID
	mov	edx, DWORD PTR _CIV5_XP2_DLL_GUID+4
	mov	DWORD PTR [eax], ecx
	mov	ecx, DWORD PTR _CIV5_XP2_DLL_GUID+8
	mov	DWORD PTR [eax+4], edx
	mov	edx, DWORD PTR _CIV5_XP2_DLL_GUID+12
	mov	DWORD PTR [eax+8], ecx
	mov	DWORD PTR [eax+12], edx

; 116  : }

	ret	8
?GetDLLGUID@CvDllGameContext@@UAG?AU_GUID@@XZ ENDP	; CvDllGameContext::GetDLLGUID
_TEXT	ENDS
PUBLIC	?GetDLLVersion@CvDllGameContext@@UAGPBDXZ	; CvDllGameContext::GetDLLVersion
; Function compile flags: /Ogtpy
;	COMDAT ?GetDLLVersion@CvDllGameContext@@UAGPBDXZ
_TEXT	SEGMENT
_this$ = 8						; size = 4
?GetDLLVersion@CvDllGameContext@@UAGPBDXZ PROC		; CvDllGameContext::GetDLLVersion, COMDAT

; 121  : 	return CIV5_XP2_DLL_VERSION;

	mov	eax, DWORD PTR _CIV5_XP2_DLL_VERSION

; 122  : }

	ret	4
?GetDLLVersion@CvDllGameContext@@UAGPBDXZ ENDP		; CvDllGameContext::GetDLLVersion
_TEXT	ENDS
PUBLIC	?Destroy@CvDllGameContext@@MAGXXZ		; CvDllGameContext::Destroy
; Function compile flags: /Ogtpy
;	COMDAT ?Destroy@CvDllGameContext@@MAGXXZ
_TEXT	SEGMENT
_this$ = 8						; size = 4
?Destroy@CvDllGameContext@@MAGXXZ PROC			; CvDllGameContext::Destroy, COMDAT

; 127  : 	//Do nothing, it's a singleton controlled by the DLL.
; 128  : }

	ret	4
?Destroy@CvDllGameContext@@MAGXXZ ENDP			; CvDllGameContext::Destroy
_TEXT	ENDS
PUBLIC	?GetSingleton@CvDllGameContext@@SAPAV1@XZ	; CvDllGameContext::GetSingleton
; Function compile flags: /Ogtpy
;	COMDAT ?GetSingleton@CvDllGameContext@@SAPAV1@XZ
_TEXT	SEGMENT
?GetSingleton@CvDllGameContext@@SAPAV1@XZ PROC		; CvDllGameContext::GetSingleton, COMDAT

; 160  : 	return s_pSingleton;

	mov	eax, DWORD PTR ?s_pSingleton@CvDllGameContext@@0PAV1@A ; CvDllGameContext::s_pSingleton

; 161  : }

	ret	0
?GetSingleton@CvDllGameContext@@SAPAV1@XZ ENDP		; CvDllGameContext::GetSingleton
_TEXT	ENDS
PUBLIC	?GetHeap@CvDllGameContext@@QAEPAXXZ		; CvDllGameContext::GetHeap
; Function compile flags: /Ogtpy
;	COMDAT ?GetHeap@CvDllGameContext@@QAEPAXXZ
_TEXT	SEGMENT
?GetHeap@CvDllGameContext@@QAEPAXXZ PROC		; CvDllGameContext::GetHeap, COMDAT
; _this$ = ecx

; 165  : 	return s_hHeap;

	mov	eax, DWORD PTR ?s_hHeap@CvDllGameContext@@0PAXA ; CvDllGameContext::s_hHeap

; 166  : }

	ret	0
?GetHeap@CvDllGameContext@@QAEPAXXZ ENDP		; CvDllGameContext::GetHeap
_TEXT	ENDS
PUBLIC	?Debug_GetHeap@CvDllGameContext@@UBGPAXXZ	; CvDllGameContext::Debug_GetHeap
; Function compile flags: /Ogtpy
;	COMDAT ?Debug_GetHeap@CvDllGameContext@@UBGPAXXZ
_TEXT	SEGMENT
_this$ = 8						; size = 4
?Debug_GetHeap@CvDllGameContext@@UBGPAXXZ PROC		; CvDllGameContext::Debug_GetHeap, COMDAT

; 170  : 	return s_hHeap;

	mov	eax, DWORD PTR ?s_hHeap@CvDllGameContext@@0PAXA ; CvDllGameContext::s_hHeap

; 171  : }

	ret	4
?Debug_GetHeap@CvDllGameContext@@UBGPAXXZ ENDP		; CvDllGameContext::Debug_GetHeap
_TEXT	ENDS
PUBLIC	?Allocate@CvDllGameContext@@SAPAXI@Z		; CvDllGameContext::Allocate
EXTRN	__imp__HeapAlloc@12:PROC
; Function compile flags: /Ogtpy
;	COMDAT ?Allocate@CvDllGameContext@@SAPAXI@Z
_TEXT	SEGMENT
_bytes$ = 8						; size = 4
?Allocate@CvDllGameContext@@SAPAXI@Z PROC		; CvDllGameContext::Allocate, COMDAT

; 179  : 	return HeapAlloc(s_hHeap, 0, bytes);

	mov	eax, DWORD PTR _bytes$[esp-4]
	mov	ecx, DWORD PTR ?s_hHeap@CvDllGameContext@@0PAXA ; CvDllGameContext::s_hHeap
	push	eax
	push	0
	push	ecx
	call	DWORD PTR __imp__HeapAlloc@12

; 180  : }

	ret	0
?Allocate@CvDllGameContext@@SAPAXI@Z ENDP		; CvDllGameContext::Allocate
_TEXT	ENDS
PUBLIC	?Free@CvDllGameContext@@SAXPAX@Z		; CvDllGameContext::Free
EXTRN	__imp__HeapFree@12:PROC
; Function compile flags: /Ogtpy
;	COMDAT ?Free@CvDllGameContext@@SAXPAX@Z
_TEXT	SEGMENT
_p$ = 8							; size = 4
?Free@CvDllGameContext@@SAXPAX@Z PROC			; CvDllGameContext::Free, COMDAT

; 188  : 	HeapFree(s_hHeap, 0, p);

	mov	eax, DWORD PTR _p$[esp-4]
	mov	ecx, DWORD PTR ?s_hHeap@CvDllGameContext@@0PAXA ; CvDllGameContext::s_hHeap
	push	eax
	push	0
	push	ecx
	call	DWORD PTR __imp__HeapFree@12

; 189  : }

	ret	0
?Free@CvDllGameContext@@SAXPAX@Z ENDP			; CvDllGameContext::Free
_TEXT	ENDS
PUBLIC	?GetNetworkSyncronizer@CvDllGameContext@@UAGPAVICvNetworkSyncronization1@@XZ ; CvDllGameContext::GetNetworkSyncronizer
; Function compile flags: /Ogtpy
;	COMDAT ?GetNetworkSyncronizer@CvDllGameContext@@UAGPAVICvNetworkSyncronization1@@XZ
_TEXT	SEGMENT
_this$ = 8						; size = 4
?GetNetworkSyncronizer@CvDllGameContext@@UAGPAVICvNetworkSyncronization1@@XZ PROC ; CvDllGameContext::GetNetworkSyncronizer, COMDAT

; 193  : 	return m_pNetworkSyncronizer;

	mov	eax, DWORD PTR _this$[esp-4]
	mov	eax, DWORD PTR [eax+4]

; 194  : }

	ret	4
?GetNetworkSyncronizer@CvDllGameContext@@UAGPAVICvNetworkSyncronization1@@XZ ENDP ; CvDllGameContext::GetNetworkSyncronizer
_TEXT	ENDS
PUBLIC	?GetWorldBuilderMapLoader@CvDllGameContext@@UAGPAVICvWorldBuilderMapLoader1@@XZ ; CvDllGameContext::GetWorldBuilderMapLoader
; Function compile flags: /Ogtpy
;	COMDAT ?GetWorldBuilderMapLoader@CvDllGameContext@@UAGPAVICvWorldBuilderMapLoader1@@XZ
_TEXT	SEGMENT
_this$ = 8						; size = 4
?GetWorldBuilderMapLoader@CvDllGameContext@@UAGPAVICvWorldBuilderMapLoader1@@XZ PROC ; CvDllGameContext::GetWorldBuilderMapLoader, COMDAT

; 203  : 	return m_pWorldBuilderMapLoader;

	mov	eax, DWORD PTR _this$[esp-4]
	mov	eax, DWORD PTR [eax+16]

; 204  : }

	ret	4
?GetWorldBuilderMapLoader@CvDllGameContext@@UAGPAVICvWorldBuilderMapLoader1@@XZ ENDP ; CvDllGameContext::GetWorldBuilderMapLoader
_TEXT	ENDS
PUBLIC	?GetPreGame@CvDllGameContext@@UAGPAVICvPreGame1@@XZ ; CvDllGameContext::GetPreGame
EXTRN	??3CvDllPreGame@@SAXPAX@Z:PROC			; CvDllPreGame::operator delete
EXTRN	??0CvDllPreGame@@QAE@XZ:PROC			; CvDllPreGame::CvDllPreGame
EXTRN	??2CvDllPreGame@@SAPAXI@Z:PROC			; CvDllPreGame::operator new
EXTRN	___CxxFrameHandler3:PROC
;	COMDAT xdata$x
xdata$x	SEGMENT
__unwindtable$?GetPreGame@CvDllGameContext@@UAGPAVICvPreGame1@@XZ DD 0ffffffffH
	DD	FLAT:__unwindfunclet$?GetPreGame@CvDllGameContext@@UAGPAVICvPreGame1@@XZ$0
__ehfuncinfo$?GetPreGame@CvDllGameContext@@UAGPAVICvPreGame1@@XZ DD 019930522H
	DD	01H
	DD	FLAT:__unwindtable$?GetPreGame@CvDllGameContext@@UAGPAVICvPreGame1@@XZ
	DD	2 DUP(00H)
	DD	2 DUP(00H)
	DD	00H
	DD	01H
; Function compile flags: /Ogtpy
xdata$x	ENDS
;	COMDAT ?GetPreGame@CvDllGameContext@@UAGPAVICvPreGame1@@XZ
_TEXT	SEGMENT
$T227840 = -16						; size = 4
__$EHRec$ = -12						; size = 12
_this$ = 8						; size = 4
?GetPreGame@CvDllGameContext@@UAGPAVICvPreGame1@@XZ PROC ; CvDllGameContext::GetPreGame, COMDAT

; 207  : {

	push	-1
	push	__ehhandler$?GetPreGame@CvDllGameContext@@UAGPAVICvPreGame1@@XZ
	mov	eax, DWORD PTR fs:0
	push	eax
	mov	DWORD PTR fs:0, esp
	push	ecx

; 208  : 	return new CvDllPreGame();

	push	4
	call	??2CvDllPreGame@@SAPAXI@Z		; CvDllPreGame::operator new
	add	esp, 4
	mov	DWORD PTR $T227840[esp+16], eax
	mov	DWORD PTR __$EHRec$[esp+24], 0
	test	eax, eax
	je	SHORT $LN3@GetPreGame
	mov	ecx, eax
	call	??0CvDllPreGame@@QAE@XZ			; CvDllPreGame::CvDllPreGame

; 209  : }

	mov	ecx, DWORD PTR __$EHRec$[esp+16]
	mov	DWORD PTR fs:0, ecx
	add	esp, 16					; 00000010H
	ret	4
$LN3@GetPreGame:
	mov	ecx, DWORD PTR __$EHRec$[esp+16]
	xor	eax, eax
	mov	DWORD PTR fs:0, ecx
	add	esp, 16					; 00000010H
	ret	4
_TEXT	ENDS
;	COMDAT text$x
text$x	SEGMENT
__unwindfunclet$?GetPreGame@CvDllGameContext@@UAGPAVICvPreGame1@@XZ$0:
	mov	eax, DWORD PTR $T227840[ebp]
	push	eax
	call	??3CvDllPreGame@@SAXPAX@Z		; CvDllPreGame::operator delete
	pop	ecx
	ret	0
__ehhandler$?GetPreGame@CvDllGameContext@@UAGPAVICvPreGame1@@XZ:
	mov	eax, OFFSET __ehfuncinfo$?GetPreGame@CvDllGameContext@@UAGPAVICvPreGame1@@XZ
	jmp	___CxxFrameHandler3
text$x	ENDS
?GetPreGame@CvDllGameContext@@UAGPAVICvPreGame1@@XZ ENDP ; CvDllGameContext::GetPreGame
PUBLIC	?GetInfoTypeForString@CvDllGameContext@@UBGHPBD_N@Z ; CvDllGameContext::GetInfoTypeForString
EXTRN	?getInfoTypeForString@CvGlobals@@QBEHPBD_N@Z:PROC ; CvGlobals::getInfoTypeForString
EXTRN	?gGlobals@@3VCvGlobals@@A:BYTE			; gGlobals
; Function compile flags: /Ogtpy
;	COMDAT ?GetInfoTypeForString@CvDllGameContext@@UBGHPBD_N@Z
_TEXT	SEGMENT
_this$ = 8						; size = 4
_szType$ = 12						; size = 4
_hideAssert$ = 16					; size = 1
?GetInfoTypeForString@CvDllGameContext@@UBGHPBD_N@Z PROC ; CvDllGameContext::GetInfoTypeForString, COMDAT

; 248  : 	return GC.getInfoTypeForString(szType, hideAssert);

	mov	eax, DWORD PTR _hideAssert$[esp-4]
	mov	ecx, DWORD PTR _szType$[esp-4]
	push	eax
	push	ecx
	mov	ecx, OFFSET ?gGlobals@@3VCvGlobals@@A	; gGlobals
	call	?getInfoTypeForString@CvGlobals@@QBEHPBD_N@Z ; CvGlobals::getInfoTypeForString

; 249  : }

	ret	12					; 0000000cH
?GetInfoTypeForString@CvDllGameContext@@UBGHPBD_N@Z ENDP ; CvDllGameContext::GetInfoTypeForString
_TEXT	ENDS
PUBLIC	?GetInfoTypeForHash@CvDllGameContext@@UBGHI_N@Z	; CvDllGameContext::GetInfoTypeForHash
EXTRN	?getInfoTypeForHash@CvGlobals@@QBEHI_N@Z:PROC	; CvGlobals::getInfoTypeForHash
; Function compile flags: /Ogtpy
;	COMDAT ?GetInfoTypeForHash@CvDllGameContext@@UBGHI_N@Z
_TEXT	SEGMENT
_this$ = 8						; size = 4
_uiHash$ = 12						; size = 4
_hideAssert$ = 16					; size = 1
?GetInfoTypeForHash@CvDllGameContext@@UBGHI_N@Z PROC	; CvDllGameContext::GetInfoTypeForHash, COMDAT

; 253  : 	return GC.getInfoTypeForHash(uiHash, hideAssert);

	mov	eax, DWORD PTR _hideAssert$[esp-4]
	mov	ecx, DWORD PTR _uiHash$[esp-4]
	push	eax
	push	ecx
	mov	ecx, OFFSET ?gGlobals@@3VCvGlobals@@A	; gGlobals
	call	?getInfoTypeForHash@CvGlobals@@QBEHI_N@Z ; CvGlobals::getInfoTypeForHash

; 254  : }

	ret	12					; 0000000cH
?GetInfoTypeForHash@CvDllGameContext@@UBGHI_N@Z ENDP	; CvDllGameContext::GetInfoTypeForHash
_TEXT	ENDS
PUBLIC	?GetCivilizationInfoIndex@CvDllGameContext@@UAG?AW4CivilizationTypes@@PBD@Z ; CvDllGameContext::GetCivilizationInfoIndex
EXTRN	?getCivilizationInfoIndex@CvGlobals@@QAE?AW4CivilizationTypes@@PBD@Z:PROC ; CvGlobals::getCivilizationInfoIndex
; Function compile flags: /Ogtpy
;	COMDAT ?GetCivilizationInfoIndex@CvDllGameContext@@UAG?AW4CivilizationTypes@@PBD@Z
_TEXT	SEGMENT
_this$ = 8						; size = 4
_pszType$ = 12						; size = 4
?GetCivilizationInfoIndex@CvDllGameContext@@UAG?AW4CivilizationTypes@@PBD@Z PROC ; CvDllGameContext::GetCivilizationInfoIndex, COMDAT

; 258  : 	return GC.getCivilizationInfoIndex(pszType);

	mov	eax, DWORD PTR _pszType$[esp-4]
	push	eax
	mov	ecx, OFFSET ?gGlobals@@3VCvGlobals@@A	; gGlobals
	call	?getCivilizationInfoIndex@CvGlobals@@QAE?AW4CivilizationTypes@@PBD@Z ; CvGlobals::getCivilizationInfoIndex

; 259  : }

	ret	8
?GetCivilizationInfoIndex@CvDllGameContext@@UAG?AW4CivilizationTypes@@PBD@Z ENDP ; CvDllGameContext::GetCivilizationInfoIndex
_TEXT	ENDS
PUBLIC	?GetNumPlayableCivilizationInfos@CvDllGameContext@@UAGHXZ ; CvDllGameContext::GetNumPlayableCivilizationInfos
EXTRN	?getNumPlayableCivilizationInfos@CvGlobals@@QAEAAHXZ:PROC ; CvGlobals::getNumPlayableCivilizationInfos
; Function compile flags: /Ogtpy
;	COMDAT ?GetNumPlayableCivilizationInfos@CvDllGameContext@@UAGHXZ
_TEXT	SEGMENT
_this$ = 8						; size = 4
?GetNumPlayableCivilizationInfos@CvDllGameContext@@UAGHXZ PROC ; CvDllGameContext::GetNumPlayableCivilizationInfos, COMDAT

; 263  : 	return GC.getNumPlayableCivilizationInfos();

	mov	ecx, OFFSET ?gGlobals@@3VCvGlobals@@A	; gGlobals
	call	?getNumPlayableCivilizationInfos@CvGlobals@@QAEAAHXZ ; CvGlobals::getNumPlayableCivilizationInfos
	mov	eax, DWORD PTR [eax]

; 264  : }

	ret	4
?GetNumPlayableCivilizationInfos@CvDllGameContext@@UAGHXZ ENDP ; CvDllGameContext::GetNumPlayableCivilizationInfos
_TEXT	ENDS
PUBLIC	?GetNumAIPlayableCivilizationInfos@CvDllGameContext@@UAGHXZ ; CvDllGameContext::GetNumAIPlayableCivilizationInfos
EXTRN	?getNumAIPlayableCivilizationInfos@CvGlobals@@QAEAAHXZ:PROC ; CvGlobals::getNumAIPlayableCivilizationInfos
; Function compile flags: /Ogtpy
;	COMDAT ?GetNumAIPlayableCivilizationInfos@CvDllGameContext@@UAGHXZ
_TEXT	SEGMENT
_this$ = 8						; size = 4
?GetNumAIPlayableCivilizationInfos@CvDllGameContext@@UAGHXZ PROC ; CvDllGameContext::GetNumAIPlayableCivilizationInfos, COMDAT

; 268  : 	return GC.getNumAIPlayableCivilizationInfos();

	mov	ecx, OFFSET ?gGlobals@@3VCvGlobals@@A	; gGlobals
	call	?getNumAIPlayableCivilizationInfos@CvGlobals@@QAEAAHXZ ; CvGlobals::getNumAIPlayableCivilizationInfos
	mov	eax, DWORD PTR [eax]

; 269  : }

	ret	4
?GetNumAIPlayableCivilizationInfos@CvDllGameContext@@UAGHXZ ENDP ; CvDllGameContext::GetNumAIPlayableCivilizationInfos
_TEXT	ENDS
PUBLIC	?GetNumPlayableMinorCivs@CvDllGameContext@@UAGHXZ ; CvDllGameContext::GetNumPlayableMinorCivs
EXTRN	?GetNumPlayableMinorCivs@CvGlobals@@QBEHXZ:PROC	; CvGlobals::GetNumPlayableMinorCivs
; Function compile flags: /Ogtpy
;	COMDAT ?GetNumPlayableMinorCivs@CvDllGameContext@@UAGHXZ
_TEXT	SEGMENT
_this$ = 8						; size = 4
?GetNumPlayableMinorCivs@CvDllGameContext@@UAGHXZ PROC	; CvDllGameContext::GetNumPlayableMinorCivs, COMDAT

; 273  : 	return GC.GetNumPlayableMinorCivs();

	mov	ecx, OFFSET ?gGlobals@@3VCvGlobals@@A	; gGlobals
	call	?GetNumPlayableMinorCivs@CvGlobals@@QBEHXZ ; CvGlobals::GetNumPlayableMinorCivs

; 274  : }

	ret	4
?GetNumPlayableMinorCivs@CvDllGameContext@@UAGHXZ ENDP	; CvDllGameContext::GetNumPlayableMinorCivs
_TEXT	ENDS
PUBLIC	?GetNumBuildInfos@CvDllGameContext@@UAGHXZ	; CvDllGameContext::GetNumBuildInfos
EXTRN	?getNumBuildInfos@CvGlobals@@QAEHXZ:PROC	; CvGlobals::getNumBuildInfos
; Function compile flags: /Ogtpy
;	COMDAT ?GetNumBuildInfos@CvDllGameContext@@UAGHXZ
_TEXT	SEGMENT
_this$ = 8						; size = 4
?GetNumBuildInfos@CvDllGameContext@@UAGHXZ PROC		; CvDllGameContext::GetNumBuildInfos, COMDAT

; 278  : 	return GC.getNumBuildInfos();

	mov	ecx, OFFSET ?gGlobals@@3VCvGlobals@@A	; gGlobals
	call	?getNumBuildInfos@CvGlobals@@QAEHXZ	; CvGlobals::getNumBuildInfos

; 279  : }

	ret	4
?GetNumBuildInfos@CvDllGameContext@@UAGHXZ ENDP		; CvDllGameContext::GetNumBuildInfos
_TEXT	ENDS
PUBLIC	?GetNumBuildingInfos@CvDllGameContext@@UAGHXZ	; CvDllGameContext::GetNumBuildingInfos
EXTRN	?getNumBuildingInfos@CvGlobals@@QAEHXZ:PROC	; CvGlobals::getNumBuildingInfos
; Function compile flags: /Ogtpy
;	COMDAT ?GetNumBuildingInfos@CvDllGameContext@@UAGHXZ
_TEXT	SEGMENT
_this$ = 8						; size = 4
?GetNumBuildingInfos@CvDllGameContext@@UAGHXZ PROC	; CvDllGameContext::GetNumBuildingInfos, COMDAT

; 283  : 	return GC.getNumBuildingInfos();

	mov	ecx, OFFSET ?gGlobals@@3VCvGlobals@@A	; gGlobals
	call	?getNumBuildingInfos@CvGlobals@@QAEHXZ	; CvGlobals::getNumBuildingInfos

; 284  : }

	ret	4
?GetNumBuildingInfos@CvDllGameContext@@UAGHXZ ENDP	; CvDllGameContext::GetNumBuildingInfos
_TEXT	ENDS
PUBLIC	?GetNumCivilizationInfos@CvDllGameContext@@UAGHXZ ; CvDllGameContext::GetNumCivilizationInfos
EXTRN	?getNumCivilizationInfos@CvGlobals@@QAEHXZ:PROC	; CvGlobals::getNumCivilizationInfos
; Function compile flags: /Ogtpy
;	COMDAT ?GetNumCivilizationInfos@CvDllGameContext@@UAGHXZ
_TEXT	SEGMENT
_this$ = 8						; size = 4
?GetNumCivilizationInfos@CvDllGameContext@@UAGHXZ PROC	; CvDllGameContext::GetNumCivilizationInfos, COMDAT

; 288  : 	return GC.getNumCivilizationInfos();

	mov	ecx, OFFSET ?gGlobals@@3VCvGlobals@@A	; gGlobals
	call	?getNumCivilizationInfos@CvGlobals@@QAEHXZ ; CvGlobals::getNumCivilizationInfos

; 289  : }

	ret	4
?GetNumCivilizationInfos@CvDllGameContext@@UAGHXZ ENDP	; CvDllGameContext::GetNumCivilizationInfos
_TEXT	ENDS
PUBLIC	?GetNumClimateInfos@CvDllGameContext@@UAGHXZ	; CvDllGameContext::GetNumClimateInfos
EXTRN	?getNumClimateInfos@CvGlobals@@QAEHXZ:PROC	; CvGlobals::getNumClimateInfos
; Function compile flags: /Ogtpy
;	COMDAT ?GetNumClimateInfos@CvDllGameContext@@UAGHXZ
_TEXT	SEGMENT
_this$ = 8						; size = 4
?GetNumClimateInfos@CvDllGameContext@@UAGHXZ PROC	; CvDllGameContext::GetNumClimateInfos, COMDAT

; 293  : 	return GC.getNumClimateInfos();

	mov	ecx, OFFSET ?gGlobals@@3VCvGlobals@@A	; gGlobals
	call	?getNumClimateInfos@CvGlobals@@QAEHXZ	; CvGlobals::getNumClimateInfos

; 294  : }

	ret	4
?GetNumClimateInfos@CvDllGameContext@@UAGHXZ ENDP	; CvDllGameContext::GetNumClimateInfos
_TEXT	ENDS
PUBLIC	?GetNumColorInfos@CvDllGameContext@@UAGHXZ	; CvDllGameContext::GetNumColorInfos
EXTRN	?GetNumColorInfos@CvGlobals@@QAEHXZ:PROC	; CvGlobals::GetNumColorInfos
; Function compile flags: /Ogtpy
;	COMDAT ?GetNumColorInfos@CvDllGameContext@@UAGHXZ
_TEXT	SEGMENT
_this$ = 8						; size = 4
?GetNumColorInfos@CvDllGameContext@@UAGHXZ PROC		; CvDllGameContext::GetNumColorInfos, COMDAT

; 298  : 	return GC.GetNumColorInfos();

	mov	ecx, OFFSET ?gGlobals@@3VCvGlobals@@A	; gGlobals
	call	?GetNumColorInfos@CvGlobals@@QAEHXZ	; CvGlobals::GetNumColorInfos

; 299  : }

	ret	4
?GetNumColorInfos@CvDllGameContext@@UAGHXZ ENDP		; CvDllGameContext::GetNumColorInfos
_TEXT	ENDS
PUBLIC	?GetNumEraInfos@CvDllGameContext@@UAGHXZ	; CvDllGameContext::GetNumEraInfos
EXTRN	?getNumEraInfos@CvGlobals@@QAEHXZ:PROC		; CvGlobals::getNumEraInfos
; Function compile flags: /Ogtpy
;	COMDAT ?GetNumEraInfos@CvDllGameContext@@UAGHXZ
_TEXT	SEGMENT
_this$ = 8						; size = 4
?GetNumEraInfos@CvDllGameContext@@UAGHXZ PROC		; CvDllGameContext::GetNumEraInfos, COMDAT

; 303  : 	return GC.getNumEraInfos();

	mov	ecx, OFFSET ?gGlobals@@3VCvGlobals@@A	; gGlobals
	call	?getNumEraInfos@CvGlobals@@QAEHXZ	; CvGlobals::getNumEraInfos

; 304  : }

	ret	4
?GetNumEraInfos@CvDllGameContext@@UAGHXZ ENDP		; CvDllGameContext::GetNumEraInfos
_TEXT	ENDS
PUBLIC	?GetNumFeatureInfos@CvDllGameContext@@UAGHXZ	; CvDllGameContext::GetNumFeatureInfos
EXTRN	?getNumFeatureInfos@CvGlobals@@QAEHXZ:PROC	; CvGlobals::getNumFeatureInfos
; Function compile flags: /Ogtpy
;	COMDAT ?GetNumFeatureInfos@CvDllGameContext@@UAGHXZ
_TEXT	SEGMENT
_this$ = 8						; size = 4
?GetNumFeatureInfos@CvDllGameContext@@UAGHXZ PROC	; CvDllGameContext::GetNumFeatureInfos, COMDAT

; 308  : 	return GC.getNumFeatureInfos();

	mov	ecx, OFFSET ?gGlobals@@3VCvGlobals@@A	; gGlobals
	call	?getNumFeatureInfos@CvGlobals@@QAEHXZ	; CvGlobals::getNumFeatureInfos

; 309  : }

	ret	4
?GetNumFeatureInfos@CvDllGameContext@@UAGHXZ ENDP	; CvDllGameContext::GetNumFeatureInfos
_TEXT	ENDS
PUBLIC	?GetNumGameOptionInfos@CvDllGameContext@@UAGHXZ	; CvDllGameContext::GetNumGameOptionInfos
EXTRN	?getNumGameOptionInfos@CvGlobals@@QAEHXZ:PROC	; CvGlobals::getNumGameOptionInfos
; Function compile flags: /Ogtpy
;	COMDAT ?GetNumGameOptionInfos@CvDllGameContext@@UAGHXZ
_TEXT	SEGMENT
_this$ = 8						; size = 4
?GetNumGameOptionInfos@CvDllGameContext@@UAGHXZ PROC	; CvDllGameContext::GetNumGameOptionInfos, COMDAT

; 313  : 	return GC.getNumGameOptionInfos();

	mov	ecx, OFFSET ?gGlobals@@3VCvGlobals@@A	; gGlobals
	call	?getNumGameOptionInfos@CvGlobals@@QAEHXZ ; CvGlobals::getNumGameOptionInfos

; 314  : }

	ret	4
?GetNumGameOptionInfos@CvDllGameContext@@UAGHXZ ENDP	; CvDllGameContext::GetNumGameOptionInfos
_TEXT	ENDS
PUBLIC	?GetNumGameSpeedInfos@CvDllGameContext@@UAGHXZ	; CvDllGameContext::GetNumGameSpeedInfos
EXTRN	?getNumGameSpeedInfos@CvGlobals@@QAEHXZ:PROC	; CvGlobals::getNumGameSpeedInfos
; Function compile flags: /Ogtpy
;	COMDAT ?GetNumGameSpeedInfos@CvDllGameContext@@UAGHXZ
_TEXT	SEGMENT
_this$ = 8						; size = 4
?GetNumGameSpeedInfos@CvDllGameContext@@UAGHXZ PROC	; CvDllGameContext::GetNumGameSpeedInfos, COMDAT

; 318  : 	return GC.getNumGameSpeedInfos();

	mov	ecx, OFFSET ?gGlobals@@3VCvGlobals@@A	; gGlobals
	call	?getNumGameSpeedInfos@CvGlobals@@QAEHXZ	; CvGlobals::getNumGameSpeedInfos

; 319  : }

	ret	4
?GetNumGameSpeedInfos@CvDllGameContext@@UAGHXZ ENDP	; CvDllGameContext::GetNumGameSpeedInfos
_TEXT	ENDS
PUBLIC	?GetNumHandicapInfos@CvDllGameContext@@UAGHXZ	; CvDllGameContext::GetNumHandicapInfos
EXTRN	?getNumHandicapInfos@CvGlobals@@QAEHXZ:PROC	; CvGlobals::getNumHandicapInfos
; Function compile flags: /Ogtpy
;	COMDAT ?GetNumHandicapInfos@CvDllGameContext@@UAGHXZ
_TEXT	SEGMENT
_this$ = 8						; size = 4
?GetNumHandicapInfos@CvDllGameContext@@UAGHXZ PROC	; CvDllGameContext::GetNumHandicapInfos, COMDAT

; 323  : 	return GC.getNumHandicapInfos();

	mov	ecx, OFFSET ?gGlobals@@3VCvGlobals@@A	; gGlobals
	call	?getNumHandicapInfos@CvGlobals@@QAEHXZ	; CvGlobals::getNumHandicapInfos

; 324  : }

	ret	4
?GetNumHandicapInfos@CvDllGameContext@@UAGHXZ ENDP	; CvDllGameContext::GetNumHandicapInfos
_TEXT	ENDS
PUBLIC	?GetNumImprovementInfos@CvDllGameContext@@UAGHXZ ; CvDllGameContext::GetNumImprovementInfos
EXTRN	?getNumImprovementInfos@CvGlobals@@QAEHXZ:PROC	; CvGlobals::getNumImprovementInfos
; Function compile flags: /Ogtpy
;	COMDAT ?GetNumImprovementInfos@CvDllGameContext@@UAGHXZ
_TEXT	SEGMENT
_this$ = 8						; size = 4
?GetNumImprovementInfos@CvDllGameContext@@UAGHXZ PROC	; CvDllGameContext::GetNumImprovementInfos, COMDAT

; 328  : 	return GC.getNumImprovementInfos();

	mov	ecx, OFFSET ?gGlobals@@3VCvGlobals@@A	; gGlobals
	call	?getNumImprovementInfos@CvGlobals@@QAEHXZ ; CvGlobals::getNumImprovementInfos

; 329  : }

	ret	4
?GetNumImprovementInfos@CvDllGameContext@@UAGHXZ ENDP	; CvDllGameContext::GetNumImprovementInfos
_TEXT	ENDS
PUBLIC	?GetNumLeaderHeadInfos@CvDllGameContext@@UAGHXZ	; CvDllGameContext::GetNumLeaderHeadInfos
EXTRN	?getNumLeaderHeadInfos@CvGlobals@@QAEHXZ:PROC	; CvGlobals::getNumLeaderHeadInfos
; Function compile flags: /Ogtpy
;	COMDAT ?GetNumLeaderHeadInfos@CvDllGameContext@@UAGHXZ
_TEXT	SEGMENT
_this$ = 8						; size = 4
?GetNumLeaderHeadInfos@CvDllGameContext@@UAGHXZ PROC	; CvDllGameContext::GetNumLeaderHeadInfos, COMDAT

; 333  : 	return GC.getNumLeaderHeadInfos();

	mov	ecx, OFFSET ?gGlobals@@3VCvGlobals@@A	; gGlobals
	call	?getNumLeaderHeadInfos@CvGlobals@@QAEHXZ ; CvGlobals::getNumLeaderHeadInfos

; 334  : }

	ret	4
?GetNumLeaderHeadInfos@CvDllGameContext@@UAGHXZ ENDP	; CvDllGameContext::GetNumLeaderHeadInfos
_TEXT	ENDS
PUBLIC	?GetNumMinorCivInfos@CvDllGameContext@@UAGHXZ	; CvDllGameContext::GetNumMinorCivInfos
EXTRN	?getNumMinorCivInfos@CvGlobals@@QAEHXZ:PROC	; CvGlobals::getNumMinorCivInfos
; Function compile flags: /Ogtpy
;	COMDAT ?GetNumMinorCivInfos@CvDllGameContext@@UAGHXZ
_TEXT	SEGMENT
_this$ = 8						; size = 4
?GetNumMinorCivInfos@CvDllGameContext@@UAGHXZ PROC	; CvDllGameContext::GetNumMinorCivInfos, COMDAT

; 338  : 	return GC.getNumMinorCivInfos();

	mov	ecx, OFFSET ?gGlobals@@3VCvGlobals@@A	; gGlobals
	call	?getNumMinorCivInfos@CvGlobals@@QAEHXZ	; CvGlobals::getNumMinorCivInfos

; 339  : }

	ret	4
?GetNumMinorCivInfos@CvDllGameContext@@UAGHXZ ENDP	; CvDllGameContext::GetNumMinorCivInfos
_TEXT	ENDS
PUBLIC	?GetNumPlayerColorInfos@CvDllGameContext@@UAGHXZ ; CvDllGameContext::GetNumPlayerColorInfos
EXTRN	?GetNumPlayerColorInfos@CvGlobals@@QAEHXZ:PROC	; CvGlobals::GetNumPlayerColorInfos
; Function compile flags: /Ogtpy
;	COMDAT ?GetNumPlayerColorInfos@CvDllGameContext@@UAGHXZ
_TEXT	SEGMENT
_this$ = 8						; size = 4
?GetNumPlayerColorInfos@CvDllGameContext@@UAGHXZ PROC	; CvDllGameContext::GetNumPlayerColorInfos, COMDAT

; 343  : 	return GC.GetNumPlayerColorInfos();

	mov	ecx, OFFSET ?gGlobals@@3VCvGlobals@@A	; gGlobals
	call	?GetNumPlayerColorInfos@CvGlobals@@QAEHXZ ; CvGlobals::GetNumPlayerColorInfos

; 344  : }

	ret	4
?GetNumPlayerColorInfos@CvDllGameContext@@UAGHXZ ENDP	; CvDllGameContext::GetNumPlayerColorInfos
_TEXT	ENDS
PUBLIC	?GetNumPolicyInfos@CvDllGameContext@@UAGHXZ	; CvDllGameContext::GetNumPolicyInfos
EXTRN	?getNumPolicyInfos@CvGlobals@@QAEHXZ:PROC	; CvGlobals::getNumPolicyInfos
; Function compile flags: /Ogtpy
;	COMDAT ?GetNumPolicyInfos@CvDllGameContext@@UAGHXZ
_TEXT	SEGMENT
_this$ = 8						; size = 4
?GetNumPolicyInfos@CvDllGameContext@@UAGHXZ PROC	; CvDllGameContext::GetNumPolicyInfos, COMDAT

; 348  : 	return GC.getNumPolicyInfos();

	mov	ecx, OFFSET ?gGlobals@@3VCvGlobals@@A	; gGlobals
	call	?getNumPolicyInfos@CvGlobals@@QAEHXZ	; CvGlobals::getNumPolicyInfos

; 349  : }

	ret	4
?GetNumPolicyInfos@CvDllGameContext@@UAGHXZ ENDP	; CvDllGameContext::GetNumPolicyInfos
_TEXT	ENDS
PUBLIC	?GetNumPromotionInfos@CvDllGameContext@@UAGHXZ	; CvDllGameContext::GetNumPromotionInfos
EXTRN	?getNumPromotionInfos@CvGlobals@@QAEHXZ:PROC	; CvGlobals::getNumPromotionInfos
; Function compile flags: /Ogtpy
;	COMDAT ?GetNumPromotionInfos@CvDllGameContext@@UAGHXZ
_TEXT	SEGMENT
_this$ = 8						; size = 4
?GetNumPromotionInfos@CvDllGameContext@@UAGHXZ PROC	; CvDllGameContext::GetNumPromotionInfos, COMDAT

; 353  : 	return GC.getNumPromotionInfos();

	mov	ecx, OFFSET ?gGlobals@@3VCvGlobals@@A	; gGlobals
	call	?getNumPromotionInfos@CvGlobals@@QAEHXZ	; CvGlobals::getNumPromotionInfos

; 354  : }

	ret	4
?GetNumPromotionInfos@CvDllGameContext@@UAGHXZ ENDP	; CvDllGameContext::GetNumPromotionInfos
_TEXT	ENDS
PUBLIC	?GetNumResourceInfos@CvDllGameContext@@UAGHXZ	; CvDllGameContext::GetNumResourceInfos
EXTRN	?getNumResourceInfos@CvGlobals@@QAEHXZ:PROC	; CvGlobals::getNumResourceInfos
; Function compile flags: /Ogtpy
;	COMDAT ?GetNumResourceInfos@CvDllGameContext@@UAGHXZ
_TEXT	SEGMENT
_this$ = 8						; size = 4
?GetNumResourceInfos@CvDllGameContext@@UAGHXZ PROC	; CvDllGameContext::GetNumResourceInfos, COMDAT

; 358  : 	return GC.getNumResourceInfos();

	mov	ecx, OFFSET ?gGlobals@@3VCvGlobals@@A	; gGlobals
	call	?getNumResourceInfos@CvGlobals@@QAEHXZ	; CvGlobals::getNumResourceInfos

; 359  : }

	ret	4
?GetNumResourceInfos@CvDllGameContext@@UAGHXZ ENDP	; CvDllGameContext::GetNumResourceInfos
_TEXT	ENDS
PUBLIC	?GetNumSeaLevelInfos@CvDllGameContext@@UAGHXZ	; CvDllGameContext::GetNumSeaLevelInfos
EXTRN	?getNumSeaLevelInfos@CvGlobals@@QAEHXZ:PROC	; CvGlobals::getNumSeaLevelInfos
; Function compile flags: /Ogtpy
;	COMDAT ?GetNumSeaLevelInfos@CvDllGameContext@@UAGHXZ
_TEXT	SEGMENT
_this$ = 8						; size = 4
?GetNumSeaLevelInfos@CvDllGameContext@@UAGHXZ PROC	; CvDllGameContext::GetNumSeaLevelInfos, COMDAT

; 363  : 	return GC.getNumSeaLevelInfos();

	mov	ecx, OFFSET ?gGlobals@@3VCvGlobals@@A	; gGlobals
	call	?getNumSeaLevelInfos@CvGlobals@@QAEHXZ	; CvGlobals::getNumSeaLevelInfos

; 364  : }

	ret	4
?GetNumSeaLevelInfos@CvDllGameContext@@UAGHXZ ENDP	; CvDllGameContext::GetNumSeaLevelInfos
_TEXT	ENDS
PUBLIC	?GetNumTechInfos@CvDllGameContext@@UAGHXZ	; CvDllGameContext::GetNumTechInfos
EXTRN	?getNumTechInfos@CvGlobals@@QAEHXZ:PROC		; CvGlobals::getNumTechInfos
; Function compile flags: /Ogtpy
;	COMDAT ?GetNumTechInfos@CvDllGameContext@@UAGHXZ
_TEXT	SEGMENT
_this$ = 8						; size = 4
?GetNumTechInfos@CvDllGameContext@@UAGHXZ PROC		; CvDllGameContext::GetNumTechInfos, COMDAT

; 368  : 	return GC.getNumTechInfos();

	mov	ecx, OFFSET ?gGlobals@@3VCvGlobals@@A	; gGlobals
	call	?getNumTechInfos@CvGlobals@@QAEHXZ	; CvGlobals::getNumTechInfos

; 369  : }

	ret	4
?GetNumTechInfos@CvDllGameContext@@UAGHXZ ENDP		; CvDllGameContext::GetNumTechInfos
_TEXT	ENDS
PUBLIC	?GetNumTerrainInfos@CvDllGameContext@@UAGHXZ	; CvDllGameContext::GetNumTerrainInfos
EXTRN	?getNumTerrainInfos@CvGlobals@@QAEHXZ:PROC	; CvGlobals::getNumTerrainInfos
; Function compile flags: /Ogtpy
;	COMDAT ?GetNumTerrainInfos@CvDllGameContext@@UAGHXZ
_TEXT	SEGMENT
_this$ = 8						; size = 4
?GetNumTerrainInfos@CvDllGameContext@@UAGHXZ PROC	; CvDllGameContext::GetNumTerrainInfos, COMDAT

; 373  : 	return GC.getNumTerrainInfos();

	mov	ecx, OFFSET ?gGlobals@@3VCvGlobals@@A	; gGlobals
	call	?getNumTerrainInfos@CvGlobals@@QAEHXZ	; CvGlobals::getNumTerrainInfos

; 374  : }

	ret	4
?GetNumTerrainInfos@CvDllGameContext@@UAGHXZ ENDP	; CvDllGameContext::GetNumTerrainInfos
_TEXT	ENDS
PUBLIC	?GetNumUnitCombatClassInfos@CvDllGameContext@@UAGHXZ ; CvDllGameContext::GetNumUnitCombatClassInfos
EXTRN	?getNumUnitCombatClassInfos@CvGlobals@@QAEHXZ:PROC ; CvGlobals::getNumUnitCombatClassInfos
; Function compile flags: /Ogtpy
;	COMDAT ?GetNumUnitCombatClassInfos@CvDllGameContext@@UAGHXZ
_TEXT	SEGMENT
_this$ = 8						; size = 4
?GetNumUnitCombatClassInfos@CvDllGameContext@@UAGHXZ PROC ; CvDllGameContext::GetNumUnitCombatClassInfos, COMDAT

; 378  : 	return GC.getNumUnitCombatClassInfos();

	mov	ecx, OFFSET ?gGlobals@@3VCvGlobals@@A	; gGlobals
	call	?getNumUnitCombatClassInfos@CvGlobals@@QAEHXZ ; CvGlobals::getNumUnitCombatClassInfos

; 379  : }

	ret	4
?GetNumUnitCombatClassInfos@CvDllGameContext@@UAGHXZ ENDP ; CvDllGameContext::GetNumUnitCombatClassInfos
_TEXT	ENDS
PUBLIC	?GetNumUnitInfos@CvDllGameContext@@UAGHXZ	; CvDllGameContext::GetNumUnitInfos
EXTRN	?getNumUnitInfos@CvGlobals@@QAEHXZ:PROC		; CvGlobals::getNumUnitInfos
; Function compile flags: /Ogtpy
;	COMDAT ?GetNumUnitInfos@CvDllGameContext@@UAGHXZ
_TEXT	SEGMENT
_this$ = 8						; size = 4
?GetNumUnitInfos@CvDllGameContext@@UAGHXZ PROC		; CvDllGameContext::GetNumUnitInfos, COMDAT

; 383  : 	return GC.getNumUnitInfos();

	mov	ecx, OFFSET ?gGlobals@@3VCvGlobals@@A	; gGlobals
	call	?getNumUnitInfos@CvGlobals@@QAEHXZ	; CvGlobals::getNumUnitInfos

; 384  : }

	ret	4
?GetNumUnitInfos@CvDllGameContext@@UAGHXZ ENDP		; CvDllGameContext::GetNumUnitInfos
_TEXT	ENDS
PUBLIC	?GetNumVictoryInfos@CvDllGameContext@@UAGHXZ	; CvDllGameContext::GetNumVictoryInfos
EXTRN	?getNumVictoryInfos@CvGlobals@@QAEHXZ:PROC	; CvGlobals::getNumVictoryInfos
; Function compile flags: /Ogtpy
;	COMDAT ?GetNumVictoryInfos@CvDllGameContext@@UAGHXZ
_TEXT	SEGMENT
_this$ = 8						; size = 4
?GetNumVictoryInfos@CvDllGameContext@@UAGHXZ PROC	; CvDllGameContext::GetNumVictoryInfos, COMDAT

; 388  : 	return GC.getNumVictoryInfos();

	mov	ecx, OFFSET ?gGlobals@@3VCvGlobals@@A	; gGlobals
	call	?getNumVictoryInfos@CvGlobals@@QAEHXZ	; CvGlobals::getNumVictoryInfos

; 389  : }

	ret	4
?GetNumVictoryInfos@CvDllGameContext@@UAGHXZ ENDP	; CvDllGameContext::GetNumVictoryInfos
_TEXT	ENDS
PUBLIC	?GetNumWorldInfos@CvDllGameContext@@UAGHXZ	; CvDllGameContext::GetNumWorldInfos
EXTRN	?getNumWorldInfos@CvGlobals@@QAEHXZ:PROC	; CvGlobals::getNumWorldInfos
; Function compile flags: /Ogtpy
;	COMDAT ?GetNumWorldInfos@CvDllGameContext@@UAGHXZ
_TEXT	SEGMENT
_this$ = 8						; size = 4
?GetNumWorldInfos@CvDllGameContext@@UAGHXZ PROC		; CvDllGameContext::GetNumWorldInfos, COMDAT

; 393  : 	return GC.getNumWorldInfos();

	mov	ecx, OFFSET ?gGlobals@@3VCvGlobals@@A	; gGlobals
	call	?getNumWorldInfos@CvGlobals@@QAEHXZ	; CvGlobals::getNumWorldInfos

; 394  : }

	ret	4
?GetNumWorldInfos@CvDllGameContext@@UAGHXZ ENDP		; CvDllGameContext::GetNumWorldInfos
_TEXT	ENDS
PUBLIC	?GetBuildInfo@CvDllGameContext@@UAGPAVICvBuildInfo1@@W4BuildTypes@@@Z ; CvDllGameContext::GetBuildInfo
EXTRN	??3CvDllBuildInfo@@SAXPAX@Z:PROC		; CvDllBuildInfo::operator delete
EXTRN	??0CvDllBuildInfo@@QAE@PAVCvBuildInfo@@@Z:PROC	; CvDllBuildInfo::CvDllBuildInfo
EXTRN	??2CvDllBuildInfo@@SAPAXI@Z:PROC		; CvDllBuildInfo::operator new
EXTRN	?getBuildInfo@CvGlobals@@QAEPAVCvBuildInfo@@W4BuildTypes@@@Z:PROC ; CvGlobals::getBuildInfo
;	COMDAT xdata$x
xdata$x	SEGMENT
__unwindtable$?GetBuildInfo@CvDllGameContext@@UAGPAVICvBuildInfo1@@W4BuildTypes@@@Z DD 0ffffffffH
	DD	FLAT:__unwindfunclet$?GetBuildInfo@CvDllGameContext@@UAGPAVICvBuildInfo1@@W4BuildTypes@@@Z$0
__ehfuncinfo$?GetBuildInfo@CvDllGameContext@@UAGPAVICvBuildInfo1@@W4BuildTypes@@@Z DD 019930522H
	DD	01H
	DD	FLAT:__unwindtable$?GetBuildInfo@CvDllGameContext@@UAGPAVICvBuildInfo1@@W4BuildTypes@@@Z
	DD	2 DUP(00H)
	DD	2 DUP(00H)
	DD	00H
	DD	01H
; Function compile flags: /Ogtpy
xdata$x	ENDS
;	COMDAT ?GetBuildInfo@CvDllGameContext@@UAGPAVICvBuildInfo1@@W4BuildTypes@@@Z
_TEXT	SEGMENT
__$EHRec$ = -12						; size = 12
_this$ = 8						; size = 4
$T227947 = 12						; size = 4
_eBuildNum$ = 12					; size = 4
?GetBuildInfo@CvDllGameContext@@UAGPAVICvBuildInfo1@@W4BuildTypes@@@Z PROC ; CvDllGameContext::GetBuildInfo, COMDAT

; 397  : {

	mov	eax, DWORD PTR fs:0
	push	-1
	push	__ehhandler$?GetBuildInfo@CvDllGameContext@@UAGPAVICvBuildInfo1@@W4BuildTypes@@@Z
	push	eax
	mov	DWORD PTR fs:0, esp

; 398  : 	CvBuildInfo* pkInfo = GC.getBuildInfo(eBuildNum);

	mov	eax, DWORD PTR _eBuildNum$[esp+8]
	push	esi
	push	eax
	mov	ecx, OFFSET ?gGlobals@@3VCvGlobals@@A	; gGlobals
	call	?getBuildInfo@CvGlobals@@QAEPAVCvBuildInfo@@W4BuildTypes@@@Z ; CvGlobals::getBuildInfo
	mov	esi, eax

; 399  : 	return (NULL != pkInfo)? new CvDllBuildInfo(pkInfo) : NULL;

	test	esi, esi
	je	SHORT $LN5@GetBuildIn
	push	12					; 0000000cH
	call	??2CvDllBuildInfo@@SAPAXI@Z		; CvDllBuildInfo::operator new
	add	esp, 4
	mov	DWORD PTR $T227947[esp+12], eax
	mov	DWORD PTR __$EHRec$[esp+24], 0
	test	eax, eax
	je	SHORT $LN5@GetBuildIn
	push	esi
	mov	ecx, eax
	call	??0CvDllBuildInfo@@QAE@PAVCvBuildInfo@@@Z ; CvDllBuildInfo::CvDllBuildInfo

; 400  : }

	mov	ecx, DWORD PTR __$EHRec$[esp+16]
	mov	DWORD PTR fs:0, ecx
	pop	esi
	add	esp, 12					; 0000000cH
	ret	8
$LN5@GetBuildIn:
	mov	ecx, DWORD PTR __$EHRec$[esp+16]
	xor	eax, eax
	mov	DWORD PTR fs:0, ecx
	pop	esi
	add	esp, 12					; 0000000cH
	ret	8
_TEXT	ENDS
;	COMDAT text$x
text$x	SEGMENT
__unwindfunclet$?GetBuildInfo@CvDllGameContext@@UAGPAVICvBuildInfo1@@W4BuildTypes@@@Z$0:
	mov	eax, DWORD PTR $T227947[ebp-4]
	push	eax
	call	??3CvDllBuildInfo@@SAXPAX@Z		; CvDllBuildInfo::operator delete
	pop	ecx
	ret	0
__ehhandler$?GetBuildInfo@CvDllGameContext@@UAGPAVICvBuildInfo1@@W4BuildTypes@@@Z:
	mov	eax, OFFSET __ehfuncinfo$?GetBuildInfo@CvDllGameContext@@UAGPAVICvBuildInfo1@@W4BuildTypes@@@Z
	jmp	___CxxFrameHandler3
text$x	ENDS
?GetBuildInfo@CvDllGameContext@@UAGPAVICvBuildInfo1@@W4BuildTypes@@@Z ENDP ; CvDllGameContext::GetBuildInfo
PUBLIC	?GetBuildingInfo@CvDllGameContext@@UAGPAVICvBuildingInfo1@@W4BuildingTypes@@@Z ; CvDllGameContext::GetBuildingInfo
EXTRN	??3CvDllBuildingInfo@@SAXPAX@Z:PROC		; CvDllBuildingInfo::operator delete
EXTRN	??0CvDllBuildingInfo@@QAE@PAVCvBuildingEntry@@@Z:PROC ; CvDllBuildingInfo::CvDllBuildingInfo
EXTRN	??2CvDllBuildingInfo@@SAPAXI@Z:PROC		; CvDllBuildingInfo::operator new
EXTRN	?getBuildingInfo@CvGlobals@@QAEPAVCvBuildingEntry@@W4BuildingTypes@@@Z:PROC ; CvGlobals::getBuildingInfo
;	COMDAT xdata$x
xdata$x	SEGMENT
__unwindtable$?GetBuildingInfo@CvDllGameContext@@UAGPAVICvBuildingInfo1@@W4BuildingTypes@@@Z DD 0ffffffffH
	DD	FLAT:__unwindfunclet$?GetBuildingInfo@CvDllGameContext@@UAGPAVICvBuildingInfo1@@W4BuildingTypes@@@Z$0
__ehfuncinfo$?GetBuildingInfo@CvDllGameContext@@UAGPAVICvBuildingInfo1@@W4BuildingTypes@@@Z DD 019930522H
	DD	01H
	DD	FLAT:__unwindtable$?GetBuildingInfo@CvDllGameContext@@UAGPAVICvBuildingInfo1@@W4BuildingTypes@@@Z
	DD	2 DUP(00H)
	DD	2 DUP(00H)
	DD	00H
	DD	01H
; Function compile flags: /Ogtpy
xdata$x	ENDS
;	COMDAT ?GetBuildingInfo@CvDllGameContext@@UAGPAVICvBuildingInfo1@@W4BuildingTypes@@@Z
_TEXT	SEGMENT
__$EHRec$ = -12						; size = 12
_this$ = 8						; size = 4
$T227963 = 12						; size = 4
_eBuilding$ = 12					; size = 4
?GetBuildingInfo@CvDllGameContext@@UAGPAVICvBuildingInfo1@@W4BuildingTypes@@@Z PROC ; CvDllGameContext::GetBuildingInfo, COMDAT

; 403  : {

	mov	eax, DWORD PTR fs:0
	push	-1
	push	__ehhandler$?GetBuildingInfo@CvDllGameContext@@UAGPAVICvBuildingInfo1@@W4BuildingTypes@@@Z
	push	eax
	mov	DWORD PTR fs:0, esp

; 404  : 	CvBuildingEntry* pkEntry = GC.getBuildingInfo(eBuilding);

	mov	eax, DWORD PTR _eBuilding$[esp+8]
	push	esi
	push	eax
	mov	ecx, OFFSET ?gGlobals@@3VCvGlobals@@A	; gGlobals
	call	?getBuildingInfo@CvGlobals@@QAEPAVCvBuildingEntry@@W4BuildingTypes@@@Z ; CvGlobals::getBuildingInfo
	mov	esi, eax

; 405  : 	return (NULL != pkEntry)? new CvDllBuildingInfo(pkEntry) : NULL;

	test	esi, esi
	je	SHORT $LN5@GetBuildin
	push	12					; 0000000cH
	call	??2CvDllBuildingInfo@@SAPAXI@Z		; CvDllBuildingInfo::operator new
	add	esp, 4
	mov	DWORD PTR $T227963[esp+12], eax
	mov	DWORD PTR __$EHRec$[esp+24], 0
	test	eax, eax
	je	SHORT $LN5@GetBuildin
	push	esi
	mov	ecx, eax
	call	??0CvDllBuildingInfo@@QAE@PAVCvBuildingEntry@@@Z ; CvDllBuildingInfo::CvDllBuildingInfo

; 406  : }

	mov	ecx, DWORD PTR __$EHRec$[esp+16]
	mov	DWORD PTR fs:0, ecx
	pop	esi
	add	esp, 12					; 0000000cH
	ret	8
$LN5@GetBuildin:
	mov	ecx, DWORD PTR __$EHRec$[esp+16]
	xor	eax, eax
	mov	DWORD PTR fs:0, ecx
	pop	esi
	add	esp, 12					; 0000000cH
	ret	8
_TEXT	ENDS
;	COMDAT text$x
text$x	SEGMENT
__unwindfunclet$?GetBuildingInfo@CvDllGameContext@@UAGPAVICvBuildingInfo1@@W4BuildingTypes@@@Z$0:
	mov	eax, DWORD PTR $T227963[ebp-4]
	push	eax
	call	??3CvDllBuildingInfo@@SAXPAX@Z		; CvDllBuildingInfo::operator delete
	pop	ecx
	ret	0
__ehhandler$?GetBuildingInfo@CvDllGameContext@@UAGPAVICvBuildingInfo1@@W4BuildingTypes@@@Z:
	mov	eax, OFFSET __ehfuncinfo$?GetBuildingInfo@CvDllGameContext@@UAGPAVICvBuildingInfo1@@W4BuildingTypes@@@Z
	jmp	___CxxFrameHandler3
text$x	ENDS
?GetBuildingInfo@CvDllGameContext@@UAGPAVICvBuildingInfo1@@W4BuildingTypes@@@Z ENDP ; CvDllGameContext::GetBuildingInfo
PUBLIC	?GetCivilizationInfo@CvDllGameContext@@UAGPAVICvCivilizationInfo1@@W4CivilizationTypes@@@Z ; CvDllGameContext::GetCivilizationInfo
EXTRN	??3CvDllCivilizationInfo@@SAXPAX@Z:PROC		; CvDllCivilizationInfo::operator delete
EXTRN	??0CvDllCivilizationInfo@@QAE@PAVCvCivilizationInfo@@@Z:PROC ; CvDllCivilizationInfo::CvDllCivilizationInfo
EXTRN	??2CvDllCivilizationInfo@@SAPAXI@Z:PROC		; CvDllCivilizationInfo::operator new
EXTRN	?getCivilizationInfo@CvGlobals@@QAEPAVCvCivilizationInfo@@W4CivilizationTypes@@@Z:PROC ; CvGlobals::getCivilizationInfo
;	COMDAT xdata$x
xdata$x	SEGMENT
__unwindtable$?GetCivilizationInfo@CvDllGameContext@@UAGPAVICvCivilizationInfo1@@W4CivilizationTypes@@@Z DD 0ffffffffH
	DD	FLAT:__unwindfunclet$?GetCivilizationInfo@CvDllGameContext@@UAGPAVICvCivilizationInfo1@@W4CivilizationTypes@@@Z$0
__ehfuncinfo$?GetCivilizationInfo@CvDllGameContext@@UAGPAVICvCivilizationInfo1@@W4CivilizationTypes@@@Z DD 019930522H
	DD	01H
	DD	FLAT:__unwindtable$?GetCivilizationInfo@CvDllGameContext@@UAGPAVICvCivilizationInfo1@@W4CivilizationTypes@@@Z
	DD	2 DUP(00H)
	DD	2 DUP(00H)
	DD	00H
	DD	01H
; Function compile flags: /Ogtpy
xdata$x	ENDS
;	COMDAT ?GetCivilizationInfo@CvDllGameContext@@UAGPAVICvCivilizationInfo1@@W4CivilizationTypes@@@Z
_TEXT	SEGMENT
__$EHRec$ = -12						; size = 12
_this$ = 8						; size = 4
$T227979 = 12						; size = 4
_eCivilizationNum$ = 12					; size = 4
?GetCivilizationInfo@CvDllGameContext@@UAGPAVICvCivilizationInfo1@@W4CivilizationTypes@@@Z PROC ; CvDllGameContext::GetCivilizationInfo, COMDAT

; 409  : {

	mov	eax, DWORD PTR fs:0
	push	-1
	push	__ehhandler$?GetCivilizationInfo@CvDllGameContext@@UAGPAVICvCivilizationInfo1@@W4CivilizationTypes@@@Z
	push	eax
	mov	DWORD PTR fs:0, esp

; 410  : 	CvCivilizationInfo* pkInfo = GC.getCivilizationInfo(eCivilizationNum);

	mov	eax, DWORD PTR _eCivilizationNum$[esp+8]
	push	esi
	push	eax
	mov	ecx, OFFSET ?gGlobals@@3VCvGlobals@@A	; gGlobals
	call	?getCivilizationInfo@CvGlobals@@QAEPAVCvCivilizationInfo@@W4CivilizationTypes@@@Z ; CvGlobals::getCivilizationInfo
	mov	esi, eax

; 411  : 	return (NULL != pkInfo)? new CvDllCivilizationInfo(pkInfo) : NULL;

	test	esi, esi
	je	SHORT $LN5@GetCiviliz
	push	12					; 0000000cH
	call	??2CvDllCivilizationInfo@@SAPAXI@Z	; CvDllCivilizationInfo::operator new
	add	esp, 4
	mov	DWORD PTR $T227979[esp+12], eax
	mov	DWORD PTR __$EHRec$[esp+24], 0
	test	eax, eax
	je	SHORT $LN5@GetCiviliz
	push	esi
	mov	ecx, eax
	call	??0CvDllCivilizationInfo@@QAE@PAVCvCivilizationInfo@@@Z ; CvDllCivilizationInfo::CvDllCivilizationInfo

; 412  : }

	mov	ecx, DWORD PTR __$EHRec$[esp+16]
	mov	DWORD PTR fs:0, ecx
	pop	esi
	add	esp, 12					; 0000000cH
	ret	8
$LN5@GetCiviliz:
	mov	ecx, DWORD PTR __$EHRec$[esp+16]
	xor	eax, eax
	mov	DWORD PTR fs:0, ecx
	pop	esi
	add	esp, 12					; 0000000cH
	ret	8
_TEXT	ENDS
;	COMDAT text$x
text$x	SEGMENT
__unwindfunclet$?GetCivilizationInfo@CvDllGameContext@@UAGPAVICvCivilizationInfo1@@W4CivilizationTypes@@@Z$0:
	mov	eax, DWORD PTR $T227979[ebp-4]
	push	eax
	call	??3CvDllCivilizationInfo@@SAXPAX@Z	; CvDllCivilizationInfo::operator delete
	pop	ecx
	ret	0
__ehhandler$?GetCivilizationInfo@CvDllGameContext@@UAGPAVICvCivilizationInfo1@@W4CivilizationTypes@@@Z:
	mov	eax, OFFSET __ehfuncinfo$?GetCivilizationInfo@CvDllGameContext@@UAGPAVICvCivilizationInfo1@@W4CivilizationTypes@@@Z
	jmp	___CxxFrameHandler3
text$x	ENDS
?GetCivilizationInfo@CvDllGameContext@@UAGPAVICvCivilizationInfo1@@W4CivilizationTypes@@@Z ENDP ; CvDllGameContext::GetCivilizationInfo
PUBLIC	?GetColorInfo@CvDllGameContext@@UAGPAVICvColorInfo1@@W4ColorTypes@@@Z ; CvDllGameContext::GetColorInfo
EXTRN	??3CvDllColorInfo@@SAXPAX@Z:PROC		; CvDllColorInfo::operator delete
EXTRN	??0CvDllColorInfo@@QAE@PAVCvColorInfo@@@Z:PROC	; CvDllColorInfo::CvDllColorInfo
EXTRN	??2CvDllColorInfo@@SAPAXI@Z:PROC		; CvDllColorInfo::operator new
EXTRN	?GetColorInfo@CvGlobals@@QAEPAVCvColorInfo@@W4ColorTypes@@@Z:PROC ; CvGlobals::GetColorInfo
;	COMDAT xdata$x
xdata$x	SEGMENT
__unwindtable$?GetColorInfo@CvDllGameContext@@UAGPAVICvColorInfo1@@W4ColorTypes@@@Z DD 0ffffffffH
	DD	FLAT:__unwindfunclet$?GetColorInfo@CvDllGameContext@@UAGPAVICvColorInfo1@@W4ColorTypes@@@Z$0
__ehfuncinfo$?GetColorInfo@CvDllGameContext@@UAGPAVICvColorInfo1@@W4ColorTypes@@@Z DD 019930522H
	DD	01H
	DD	FLAT:__unwindtable$?GetColorInfo@CvDllGameContext@@UAGPAVICvColorInfo1@@W4ColorTypes@@@Z
	DD	2 DUP(00H)
	DD	2 DUP(00H)
	DD	00H
	DD	01H
; Function compile flags: /Ogtpy
xdata$x	ENDS
;	COMDAT ?GetColorInfo@CvDllGameContext@@UAGPAVICvColorInfo1@@W4ColorTypes@@@Z
_TEXT	SEGMENT
__$EHRec$ = -12						; size = 12
_this$ = 8						; size = 4
$T227995 = 12						; size = 4
_e$ = 12						; size = 4
?GetColorInfo@CvDllGameContext@@UAGPAVICvColorInfo1@@W4ColorTypes@@@Z PROC ; CvDllGameContext::GetColorInfo, COMDAT

; 415  : {

	mov	eax, DWORD PTR fs:0
	push	-1
	push	__ehhandler$?GetColorInfo@CvDllGameContext@@UAGPAVICvColorInfo1@@W4ColorTypes@@@Z
	push	eax
	mov	DWORD PTR fs:0, esp

; 416  : 	CvColorInfo* pkInfo = GC.GetColorInfo(e);

	mov	eax, DWORD PTR _e$[esp+8]
	push	esi
	push	eax
	mov	ecx, OFFSET ?gGlobals@@3VCvGlobals@@A	; gGlobals
	call	?GetColorInfo@CvGlobals@@QAEPAVCvColorInfo@@W4ColorTypes@@@Z ; CvGlobals::GetColorInfo
	mov	esi, eax

; 417  : 	return (NULL != pkInfo)? new CvDllColorInfo(pkInfo) : NULL;

	test	esi, esi
	je	SHORT $LN5@GetColorIn
	push	12					; 0000000cH
	call	??2CvDllColorInfo@@SAPAXI@Z		; CvDllColorInfo::operator new
	add	esp, 4
	mov	DWORD PTR $T227995[esp+12], eax
	mov	DWORD PTR __$EHRec$[esp+24], 0
	test	eax, eax
	je	SHORT $LN5@GetColorIn
	push	esi
	mov	ecx, eax
	call	??0CvDllColorInfo@@QAE@PAVCvColorInfo@@@Z ; CvDllColorInfo::CvDllColorInfo

; 418  : }

	mov	ecx, DWORD PTR __$EHRec$[esp+16]
	mov	DWORD PTR fs:0, ecx
	pop	esi
	add	esp, 12					; 0000000cH
	ret	8
$LN5@GetColorIn:
	mov	ecx, DWORD PTR __$EHRec$[esp+16]
	xor	eax, eax
	mov	DWORD PTR fs:0, ecx
	pop	esi
	add	esp, 12					; 0000000cH
	ret	8
_TEXT	ENDS
;	COMDAT text$x
text$x	SEGMENT
__unwindfunclet$?GetColorInfo@CvDllGameContext@@UAGPAVICvColorInfo1@@W4ColorTypes@@@Z$0:
	mov	eax, DWORD PTR $T227995[ebp-4]
	push	eax
	call	??3CvDllColorInfo@@SAXPAX@Z		; CvDllColorInfo::operator delete
	pop	ecx
	ret	0
__ehhandler$?GetColorInfo@CvDllGameContext@@UAGPAVICvColorInfo1@@W4ColorTypes@@@Z:
	mov	eax, OFFSET __ehfuncinfo$?GetColorInfo@CvDllGameContext@@UAGPAVICvColorInfo1@@W4ColorTypes@@@Z
	jmp	___CxxFrameHandler3
text$x	ENDS
?GetColorInfo@CvDllGameContext@@UAGPAVICvColorInfo1@@W4ColorTypes@@@Z ENDP ; CvDllGameContext::GetColorInfo
PUBLIC	?GetEraInfo@CvDllGameContext@@UAGPAVICvEraInfo1@@W4EraTypes@@@Z ; CvDllGameContext::GetEraInfo
EXTRN	??3CvDllEraInfo@@SAXPAX@Z:PROC			; CvDllEraInfo::operator delete
EXTRN	??0CvDllEraInfo@@QAE@PAVCvEraInfo@@@Z:PROC	; CvDllEraInfo::CvDllEraInfo
EXTRN	??2CvDllEraInfo@@SAPAXI@Z:PROC			; CvDllEraInfo::operator new
EXTRN	?getEraInfo@CvGlobals@@QAEPAVCvEraInfo@@W4EraTypes@@@Z:PROC ; CvGlobals::getEraInfo
;	COMDAT xdata$x
xdata$x	SEGMENT
__unwindtable$?GetEraInfo@CvDllGameContext@@UAGPAVICvEraInfo1@@W4EraTypes@@@Z DD 0ffffffffH
	DD	FLAT:__unwindfunclet$?GetEraInfo@CvDllGameContext@@UAGPAVICvEraInfo1@@W4EraTypes@@@Z$0
__ehfuncinfo$?GetEraInfo@CvDllGameContext@@UAGPAVICvEraInfo1@@W4EraTypes@@@Z DD 019930522H
	DD	01H
	DD	FLAT:__unwindtable$?GetEraInfo@CvDllGameContext@@UAGPAVICvEraInfo1@@W4EraTypes@@@Z
	DD	2 DUP(00H)
	DD	2 DUP(00H)
	DD	00H
	DD	01H
; Function compile flags: /Ogtpy
xdata$x	ENDS
;	COMDAT ?GetEraInfo@CvDllGameContext@@UAGPAVICvEraInfo1@@W4EraTypes@@@Z
_TEXT	SEGMENT
__$EHRec$ = -12						; size = 12
_this$ = 8						; size = 4
$T228011 = 12						; size = 4
_eEraNum$ = 12						; size = 4
?GetEraInfo@CvDllGameContext@@UAGPAVICvEraInfo1@@W4EraTypes@@@Z PROC ; CvDllGameContext::GetEraInfo, COMDAT

; 421  : {

	mov	eax, DWORD PTR fs:0
	push	-1
	push	__ehhandler$?GetEraInfo@CvDllGameContext@@UAGPAVICvEraInfo1@@W4EraTypes@@@Z
	push	eax
	mov	DWORD PTR fs:0, esp

; 422  : 	CvEraInfo* pkInfo = GC.getEraInfo(eEraNum);

	mov	eax, DWORD PTR _eEraNum$[esp+8]
	push	esi
	push	eax
	mov	ecx, OFFSET ?gGlobals@@3VCvGlobals@@A	; gGlobals
	call	?getEraInfo@CvGlobals@@QAEPAVCvEraInfo@@W4EraTypes@@@Z ; CvGlobals::getEraInfo
	mov	esi, eax

; 423  : 	return (NULL != pkInfo)? new CvDllEraInfo(pkInfo) : NULL;

	test	esi, esi
	je	SHORT $LN5@GetEraInfo
	push	12					; 0000000cH
	call	??2CvDllEraInfo@@SAPAXI@Z		; CvDllEraInfo::operator new
	add	esp, 4
	mov	DWORD PTR $T228011[esp+12], eax
	mov	DWORD PTR __$EHRec$[esp+24], 0
	test	eax, eax
	je	SHORT $LN5@GetEraInfo
	push	esi
	mov	ecx, eax
	call	??0CvDllEraInfo@@QAE@PAVCvEraInfo@@@Z	; CvDllEraInfo::CvDllEraInfo

; 424  : }

	mov	ecx, DWORD PTR __$EHRec$[esp+16]
	mov	DWORD PTR fs:0, ecx
	pop	esi
	add	esp, 12					; 0000000cH
	ret	8
$LN5@GetEraInfo:
	mov	ecx, DWORD PTR __$EHRec$[esp+16]
	xor	eax, eax
	mov	DWORD PTR fs:0, ecx
	pop	esi
	add	esp, 12					; 0000000cH
	ret	8
_TEXT	ENDS
;	COMDAT text$x
text$x	SEGMENT
__unwindfunclet$?GetEraInfo@CvDllGameContext@@UAGPAVICvEraInfo1@@W4EraTypes@@@Z$0:
	mov	eax, DWORD PTR $T228011[ebp-4]
	push	eax
	call	??3CvDllEraInfo@@SAXPAX@Z		; CvDllEraInfo::operator delete
	pop	ecx
	ret	0
__ehhandler$?GetEraInfo@CvDllGameContext@@UAGPAVICvEraInfo1@@W4EraTypes@@@Z:
	mov	eax, OFFSET __ehfuncinfo$?GetEraInfo@CvDllGameContext@@UAGPAVICvEraInfo1@@W4EraTypes@@@Z
	jmp	___CxxFrameHandler3
text$x	ENDS
?GetEraInfo@CvDllGameContext@@UAGPAVICvEraInfo1@@W4EraTypes@@@Z ENDP ; CvDllGameContext::GetEraInfo
PUBLIC	?GetFeatureInfo@CvDllGameContext@@UAGPAVICvFeatureInfo1@@W4FeatureTypes@@@Z ; CvDllGameContext::GetFeatureInfo
EXTRN	??3CvDllFeatureInfo@@SAXPAX@Z:PROC		; CvDllFeatureInfo::operator delete
EXTRN	??0CvDllFeatureInfo@@QAE@PAVCvFeatureInfo@@@Z:PROC ; CvDllFeatureInfo::CvDllFeatureInfo
EXTRN	??2CvDllFeatureInfo@@SAPAXI@Z:PROC		; CvDllFeatureInfo::operator new
EXTRN	?getFeatureInfo@CvGlobals@@QAEPAVCvFeatureInfo@@W4FeatureTypes@@@Z:PROC ; CvGlobals::getFeatureInfo
;	COMDAT xdata$x
xdata$x	SEGMENT
__unwindtable$?GetFeatureInfo@CvDllGameContext@@UAGPAVICvFeatureInfo1@@W4FeatureTypes@@@Z DD 0ffffffffH
	DD	FLAT:__unwindfunclet$?GetFeatureInfo@CvDllGameContext@@UAGPAVICvFeatureInfo1@@W4FeatureTypes@@@Z$0
__ehfuncinfo$?GetFeatureInfo@CvDllGameContext@@UAGPAVICvFeatureInfo1@@W4FeatureTypes@@@Z DD 019930522H
	DD	01H
	DD	FLAT:__unwindtable$?GetFeatureInfo@CvDllGameContext@@UAGPAVICvFeatureInfo1@@W4FeatureTypes@@@Z
	DD	2 DUP(00H)
	DD	2 DUP(00H)
	DD	00H
	DD	01H
; Function compile flags: /Ogtpy
xdata$x	ENDS
;	COMDAT ?GetFeatureInfo@CvDllGameContext@@UAGPAVICvFeatureInfo1@@W4FeatureTypes@@@Z
_TEXT	SEGMENT
__$EHRec$ = -12						; size = 12
_this$ = 8						; size = 4
$T228027 = 12						; size = 4
_eFeatureNum$ = 12					; size = 4
?GetFeatureInfo@CvDllGameContext@@UAGPAVICvFeatureInfo1@@W4FeatureTypes@@@Z PROC ; CvDllGameContext::GetFeatureInfo, COMDAT

; 427  : {

	mov	eax, DWORD PTR fs:0
	push	-1
	push	__ehhandler$?GetFeatureInfo@CvDllGameContext@@UAGPAVICvFeatureInfo1@@W4FeatureTypes@@@Z
	push	eax
	mov	DWORD PTR fs:0, esp

; 428  : 	CvFeatureInfo* pkInfo = GC.getFeatureInfo(eFeatureNum);

	mov	eax, DWORD PTR _eFeatureNum$[esp+8]
	push	esi
	push	eax
	mov	ecx, OFFSET ?gGlobals@@3VCvGlobals@@A	; gGlobals
	call	?getFeatureInfo@CvGlobals@@QAEPAVCvFeatureInfo@@W4FeatureTypes@@@Z ; CvGlobals::getFeatureInfo
	mov	esi, eax

; 429  : 	return (NULL != pkInfo)? new CvDllFeatureInfo(pkInfo) : NULL;

	test	esi, esi
	je	SHORT $LN5@GetFeature
	push	12					; 0000000cH
	call	??2CvDllFeatureInfo@@SAPAXI@Z		; CvDllFeatureInfo::operator new
	add	esp, 4
	mov	DWORD PTR $T228027[esp+12], eax
	mov	DWORD PTR __$EHRec$[esp+24], 0
	test	eax, eax
	je	SHORT $LN5@GetFeature
	push	esi
	mov	ecx, eax
	call	??0CvDllFeatureInfo@@QAE@PAVCvFeatureInfo@@@Z ; CvDllFeatureInfo::CvDllFeatureInfo

; 430  : }

	mov	ecx, DWORD PTR __$EHRec$[esp+16]
	mov	DWORD PTR fs:0, ecx
	pop	esi
	add	esp, 12					; 0000000cH
	ret	8
$LN5@GetFeature:
	mov	ecx, DWORD PTR __$EHRec$[esp+16]
	xor	eax, eax
	mov	DWORD PTR fs:0, ecx
	pop	esi
	add	esp, 12					; 0000000cH
	ret	8
_TEXT	ENDS
;	COMDAT text$x
text$x	SEGMENT
__unwindfunclet$?GetFeatureInfo@CvDllGameContext@@UAGPAVICvFeatureInfo1@@W4FeatureTypes@@@Z$0:
	mov	eax, DWORD PTR $T228027[ebp-4]
	push	eax
	call	??3CvDllFeatureInfo@@SAXPAX@Z		; CvDllFeatureInfo::operator delete
	pop	ecx
	ret	0
__ehhandler$?GetFeatureInfo@CvDllGameContext@@UAGPAVICvFeatureInfo1@@W4FeatureTypes@@@Z:
	mov	eax, OFFSET __ehfuncinfo$?GetFeatureInfo@CvDllGameContext@@UAGPAVICvFeatureInfo1@@W4FeatureTypes@@@Z
	jmp	___CxxFrameHandler3
text$x	ENDS
?GetFeatureInfo@CvDllGameContext@@UAGPAVICvFeatureInfo1@@W4FeatureTypes@@@Z ENDP ; CvDllGameContext::GetFeatureInfo
PUBLIC	?GetGameOptionInfo@CvDllGameContext@@UAGPAVICvGameOptionInfo1@@W4GameOptionTypes@@@Z ; CvDllGameContext::GetGameOptionInfo
EXTRN	??3CvDllGameOptionInfo@@SAXPAX@Z:PROC		; CvDllGameOptionInfo::operator delete
EXTRN	??0CvDllGameOptionInfo@@QAE@PAVCvGameOptionInfo@@@Z:PROC ; CvDllGameOptionInfo::CvDllGameOptionInfo
EXTRN	??2CvDllGameOptionInfo@@SAPAXI@Z:PROC		; CvDllGameOptionInfo::operator new
EXTRN	?getGameOptionInfo@CvGlobals@@QAEPAVCvGameOptionInfo@@W4GameOptionTypes@@@Z:PROC ; CvGlobals::getGameOptionInfo
;	COMDAT xdata$x
xdata$x	SEGMENT
__unwindtable$?GetGameOptionInfo@CvDllGameContext@@UAGPAVICvGameOptionInfo1@@W4GameOptionTypes@@@Z DD 0ffffffffH
	DD	FLAT:__unwindfunclet$?GetGameOptionInfo@CvDllGameContext@@UAGPAVICvGameOptionInfo1@@W4GameOptionTypes@@@Z$0
__ehfuncinfo$?GetGameOptionInfo@CvDllGameContext@@UAGPAVICvGameOptionInfo1@@W4GameOptionTypes@@@Z DD 019930522H
	DD	01H
	DD	FLAT:__unwindtable$?GetGameOptionInfo@CvDllGameContext@@UAGPAVICvGameOptionInfo1@@W4GameOptionTypes@@@Z
	DD	2 DUP(00H)
	DD	2 DUP(00H)
	DD	00H
	DD	01H
; Function compile flags: /Ogtpy
xdata$x	ENDS
;	COMDAT ?GetGameOptionInfo@CvDllGameContext@@UAGPAVICvGameOptionInfo1@@W4GameOptionTypes@@@Z
_TEXT	SEGMENT
__$EHRec$ = -12						; size = 12
_this$ = 8						; size = 4
$T228043 = 12						; size = 4
_eGameOptionNum$ = 12					; size = 4
?GetGameOptionInfo@CvDllGameContext@@UAGPAVICvGameOptionInfo1@@W4GameOptionTypes@@@Z PROC ; CvDllGameContext::GetGameOptionInfo, COMDAT

; 433  : {

	mov	eax, DWORD PTR fs:0
	push	-1
	push	__ehhandler$?GetGameOptionInfo@CvDllGameContext@@UAGPAVICvGameOptionInfo1@@W4GameOptionTypes@@@Z
	push	eax
	mov	DWORD PTR fs:0, esp

; 434  : 	CvGameOptionInfo* pkInfo = GC.getGameOptionInfo(eGameOptionNum);

	mov	eax, DWORD PTR _eGameOptionNum$[esp+8]
	push	esi
	push	eax
	mov	ecx, OFFSET ?gGlobals@@3VCvGlobals@@A	; gGlobals
	call	?getGameOptionInfo@CvGlobals@@QAEPAVCvGameOptionInfo@@W4GameOptionTypes@@@Z ; CvGlobals::getGameOptionInfo
	mov	esi, eax

; 435  : 	return (NULL != pkInfo)? new CvDllGameOptionInfo(pkInfo) : NULL;

	test	esi, esi
	je	SHORT $LN5@GetGameOpt
	push	12					; 0000000cH
	call	??2CvDllGameOptionInfo@@SAPAXI@Z	; CvDllGameOptionInfo::operator new
	add	esp, 4
	mov	DWORD PTR $T228043[esp+12], eax
	mov	DWORD PTR __$EHRec$[esp+24], 0
	test	eax, eax
	je	SHORT $LN5@GetGameOpt
	push	esi
	mov	ecx, eax
	call	??0CvDllGameOptionInfo@@QAE@PAVCvGameOptionInfo@@@Z ; CvDllGameOptionInfo::CvDllGameOptionInfo

; 436  : }

	mov	ecx, DWORD PTR __$EHRec$[esp+16]
	mov	DWORD PTR fs:0, ecx
	pop	esi
	add	esp, 12					; 0000000cH
	ret	8
$LN5@GetGameOpt:
	mov	ecx, DWORD PTR __$EHRec$[esp+16]
	xor	eax, eax
	mov	DWORD PTR fs:0, ecx
	pop	esi
	add	esp, 12					; 0000000cH
	ret	8
_TEXT	ENDS
;	COMDAT text$x
text$x	SEGMENT
__unwindfunclet$?GetGameOptionInfo@CvDllGameContext@@UAGPAVICvGameOptionInfo1@@W4GameOptionTypes@@@Z$0:
	mov	eax, DWORD PTR $T228043[ebp-4]
	push	eax
	call	??3CvDllGameOptionInfo@@SAXPAX@Z	; CvDllGameOptionInfo::operator delete
	pop	ecx
	ret	0
__ehhandler$?GetGameOptionInfo@CvDllGameContext@@UAGPAVICvGameOptionInfo1@@W4GameOptionTypes@@@Z:
	mov	eax, OFFSET __ehfuncinfo$?GetGameOptionInfo@CvDllGameContext@@UAGPAVICvGameOptionInfo1@@W4GameOptionTypes@@@Z
	jmp	___CxxFrameHandler3
text$x	ENDS
?GetGameOptionInfo@CvDllGameContext@@UAGPAVICvGameOptionInfo1@@W4GameOptionTypes@@@Z ENDP ; CvDllGameContext::GetGameOptionInfo
PUBLIC	?GetGameSpeedInfo@CvDllGameContext@@UAGPAVICvGameSpeedInfo1@@W4GameSpeedTypes@@@Z ; CvDllGameContext::GetGameSpeedInfo
EXTRN	??3CvDllGameSpeedInfo@@SAXPAX@Z:PROC		; CvDllGameSpeedInfo::operator delete
EXTRN	??0CvDllGameSpeedInfo@@QAE@PAVCvGameSpeedInfo@@@Z:PROC ; CvDllGameSpeedInfo::CvDllGameSpeedInfo
EXTRN	??2CvDllGameSpeedInfo@@SAPAXI@Z:PROC		; CvDllGameSpeedInfo::operator new
EXTRN	?getGameSpeedInfo@CvGlobals@@QAEPAVCvGameSpeedInfo@@W4GameSpeedTypes@@@Z:PROC ; CvGlobals::getGameSpeedInfo
;	COMDAT xdata$x
xdata$x	SEGMENT
__unwindtable$?GetGameSpeedInfo@CvDllGameContext@@UAGPAVICvGameSpeedInfo1@@W4GameSpeedTypes@@@Z DD 0ffffffffH
	DD	FLAT:__unwindfunclet$?GetGameSpeedInfo@CvDllGameContext@@UAGPAVICvGameSpeedInfo1@@W4GameSpeedTypes@@@Z$0
__ehfuncinfo$?GetGameSpeedInfo@CvDllGameContext@@UAGPAVICvGameSpeedInfo1@@W4GameSpeedTypes@@@Z DD 019930522H
	DD	01H
	DD	FLAT:__unwindtable$?GetGameSpeedInfo@CvDllGameContext@@UAGPAVICvGameSpeedInfo1@@W4GameSpeedTypes@@@Z
	DD	2 DUP(00H)
	DD	2 DUP(00H)
	DD	00H
	DD	01H
; Function compile flags: /Ogtpy
xdata$x	ENDS
;	COMDAT ?GetGameSpeedInfo@CvDllGameContext@@UAGPAVICvGameSpeedInfo1@@W4GameSpeedTypes@@@Z
_TEXT	SEGMENT
__$EHRec$ = -12						; size = 12
_this$ = 8						; size = 4
$T228059 = 12						; size = 4
_eGameSpeedNum$ = 12					; size = 4
?GetGameSpeedInfo@CvDllGameContext@@UAGPAVICvGameSpeedInfo1@@W4GameSpeedTypes@@@Z PROC ; CvDllGameContext::GetGameSpeedInfo, COMDAT

; 439  : {

	mov	eax, DWORD PTR fs:0
	push	-1
	push	__ehhandler$?GetGameSpeedInfo@CvDllGameContext@@UAGPAVICvGameSpeedInfo1@@W4GameSpeedTypes@@@Z
	push	eax
	mov	DWORD PTR fs:0, esp

; 440  : 	CvGameSpeedInfo* pkInfo = GC.getGameSpeedInfo(eGameSpeedNum);

	mov	eax, DWORD PTR _eGameSpeedNum$[esp+8]
	push	esi
	push	eax
	mov	ecx, OFFSET ?gGlobals@@3VCvGlobals@@A	; gGlobals
	call	?getGameSpeedInfo@CvGlobals@@QAEPAVCvGameSpeedInfo@@W4GameSpeedTypes@@@Z ; CvGlobals::getGameSpeedInfo
	mov	esi, eax

; 441  : 	return (NULL != pkInfo)? new CvDllGameSpeedInfo(pkInfo) : NULL;

	test	esi, esi
	je	SHORT $LN5@GetGameSpe
	push	12					; 0000000cH
	call	??2CvDllGameSpeedInfo@@SAPAXI@Z		; CvDllGameSpeedInfo::operator new
	add	esp, 4
	mov	DWORD PTR $T228059[esp+12], eax
	mov	DWORD PTR __$EHRec$[esp+24], 0
	test	eax, eax
	je	SHORT $LN5@GetGameSpe
	push	esi
	mov	ecx, eax
	call	??0CvDllGameSpeedInfo@@QAE@PAVCvGameSpeedInfo@@@Z ; CvDllGameSpeedInfo::CvDllGameSpeedInfo

; 442  : }

	mov	ecx, DWORD PTR __$EHRec$[esp+16]
	mov	DWORD PTR fs:0, ecx
	pop	esi
	add	esp, 12					; 0000000cH
	ret	8
$LN5@GetGameSpe:
	mov	ecx, DWORD PTR __$EHRec$[esp+16]
	xor	eax, eax
	mov	DWORD PTR fs:0, ecx
	pop	esi
	add	esp, 12					; 0000000cH
	ret	8
_TEXT	ENDS
;	COMDAT text$x
text$x	SEGMENT
__unwindfunclet$?GetGameSpeedInfo@CvDllGameContext@@UAGPAVICvGameSpeedInfo1@@W4GameSpeedTypes@@@Z$0:
	mov	eax, DWORD PTR $T228059[ebp-4]
	push	eax
	call	??3CvDllGameSpeedInfo@@SAXPAX@Z		; CvDllGameSpeedInfo::operator delete
	pop	ecx
	ret	0
__ehhandler$?GetGameSpeedInfo@CvDllGameContext@@UAGPAVICvGameSpeedInfo1@@W4GameSpeedTypes@@@Z:
	mov	eax, OFFSET __ehfuncinfo$?GetGameSpeedInfo@CvDllGameContext@@UAGPAVICvGameSpeedInfo1@@W4GameSpeedTypes@@@Z
	jmp	___CxxFrameHandler3
text$x	ENDS
?GetGameSpeedInfo@CvDllGameContext@@UAGPAVICvGameSpeedInfo1@@W4GameSpeedTypes@@@Z ENDP ; CvDllGameContext::GetGameSpeedInfo
PUBLIC	?GetHandicapInfo@CvDllGameContext@@UAGPAVICvHandicapInfo1@@W4HandicapTypes@@@Z ; CvDllGameContext::GetHandicapInfo
EXTRN	??3CvDllHandicapInfo@@SAXPAX@Z:PROC		; CvDllHandicapInfo::operator delete
EXTRN	??0CvDllHandicapInfo@@QAE@PAVCvHandicapInfo@@@Z:PROC ; CvDllHandicapInfo::CvDllHandicapInfo
EXTRN	??2CvDllHandicapInfo@@SAPAXI@Z:PROC		; CvDllHandicapInfo::operator new
EXTRN	?getHandicapInfo@CvGlobals@@QAEPAVCvHandicapInfo@@W4HandicapTypes@@@Z:PROC ; CvGlobals::getHandicapInfo
;	COMDAT xdata$x
xdata$x	SEGMENT
__unwindtable$?GetHandicapInfo@CvDllGameContext@@UAGPAVICvHandicapInfo1@@W4HandicapTypes@@@Z DD 0ffffffffH
	DD	FLAT:__unwindfunclet$?GetHandicapInfo@CvDllGameContext@@UAGPAVICvHandicapInfo1@@W4HandicapTypes@@@Z$0
__ehfuncinfo$?GetHandicapInfo@CvDllGameContext@@UAGPAVICvHandicapInfo1@@W4HandicapTypes@@@Z DD 019930522H
	DD	01H
	DD	FLAT:__unwindtable$?GetHandicapInfo@CvDllGameContext@@UAGPAVICvHandicapInfo1@@W4HandicapTypes@@@Z
	DD	2 DUP(00H)
	DD	2 DUP(00H)
	DD	00H
	DD	01H
; Function compile flags: /Ogtpy
xdata$x	ENDS
;	COMDAT ?GetHandicapInfo@CvDllGameContext@@UAGPAVICvHandicapInfo1@@W4HandicapTypes@@@Z
_TEXT	SEGMENT
__$EHRec$ = -12						; size = 12
_this$ = 8						; size = 4
$T228075 = 12						; size = 4
_eHandicapNum$ = 12					; size = 4
?GetHandicapInfo@CvDllGameContext@@UAGPAVICvHandicapInfo1@@W4HandicapTypes@@@Z PROC ; CvDllGameContext::GetHandicapInfo, COMDAT

; 445  : {

	mov	eax, DWORD PTR fs:0
	push	-1
	push	__ehhandler$?GetHandicapInfo@CvDllGameContext@@UAGPAVICvHandicapInfo1@@W4HandicapTypes@@@Z
	push	eax
	mov	DWORD PTR fs:0, esp

; 446  : 	CvHandicapInfo* pkInfo = GC.getHandicapInfo(eHandicapNum);

	mov	eax, DWORD PTR _eHandicapNum$[esp+8]
	push	esi
	push	eax
	mov	ecx, OFFSET ?gGlobals@@3VCvGlobals@@A	; gGlobals
	call	?getHandicapInfo@CvGlobals@@QAEPAVCvHandicapInfo@@W4HandicapTypes@@@Z ; CvGlobals::getHandicapInfo
	mov	esi, eax

; 447  : 	return (NULL != pkInfo)? new CvDllHandicapInfo(pkInfo) : NULL;

	test	esi, esi
	je	SHORT $LN5@GetHandica
	push	12					; 0000000cH
	call	??2CvDllHandicapInfo@@SAPAXI@Z		; CvDllHandicapInfo::operator new
	add	esp, 4
	mov	DWORD PTR $T228075[esp+12], eax
	mov	DWORD PTR __$EHRec$[esp+24], 0
	test	eax, eax
	je	SHORT $LN5@GetHandica
	push	esi
	mov	ecx, eax
	call	??0CvDllHandicapInfo@@QAE@PAVCvHandicapInfo@@@Z ; CvDllHandicapInfo::CvDllHandicapInfo

; 448  : }

	mov	ecx, DWORD PTR __$EHRec$[esp+16]
	mov	DWORD PTR fs:0, ecx
	pop	esi
	add	esp, 12					; 0000000cH
	ret	8
$LN5@GetHandica:
	mov	ecx, DWORD PTR __$EHRec$[esp+16]
	xor	eax, eax
	mov	DWORD PTR fs:0, ecx
	pop	esi
	add	esp, 12					; 0000000cH
	ret	8
_TEXT	ENDS
;	COMDAT text$x
text$x	SEGMENT
__unwindfunclet$?GetHandicapInfo@CvDllGameContext@@UAGPAVICvHandicapInfo1@@W4HandicapTypes@@@Z$0:
	mov	eax, DWORD PTR $T228075[ebp-4]
	push	eax
	call	??3CvDllHandicapInfo@@SAXPAX@Z		; CvDllHandicapInfo::operator delete
	pop	ecx
	ret	0
__ehhandler$?GetHandicapInfo@CvDllGameContext@@UAGPAVICvHandicapInfo1@@W4HandicapTypes@@@Z:
	mov	eax, OFFSET __ehfuncinfo$?GetHandicapInfo@CvDllGameContext@@UAGPAVICvHandicapInfo1@@W4HandicapTypes@@@Z
	jmp	___CxxFrameHandler3
text$x	ENDS
?GetHandicapInfo@CvDllGameContext@@UAGPAVICvHandicapInfo1@@W4HandicapTypes@@@Z ENDP ; CvDllGameContext::GetHandicapInfo
PUBLIC	?GetInterfaceModeInfo@CvDllGameContext@@UAGPAVICvInterfaceModeInfo1@@W4InterfaceModeTypes@@@Z ; CvDllGameContext::GetInterfaceModeInfo
EXTRN	??3CvDllInterfaceModeInfo@@SAXPAX@Z:PROC	; CvDllInterfaceModeInfo::operator delete
EXTRN	??0CvDllInterfaceModeInfo@@QAE@PAVCvInterfaceModeInfo@@@Z:PROC ; CvDllInterfaceModeInfo::CvDllInterfaceModeInfo
EXTRN	??2CvDllInterfaceModeInfo@@SAPAXI@Z:PROC	; CvDllInterfaceModeInfo::operator new
EXTRN	?getInterfaceModeInfo@CvGlobals@@QAEPAVCvInterfaceModeInfo@@W4InterfaceModeTypes@@@Z:PROC ; CvGlobals::getInterfaceModeInfo
;	COMDAT xdata$x
xdata$x	SEGMENT
__unwindtable$?GetInterfaceModeInfo@CvDllGameContext@@UAGPAVICvInterfaceModeInfo1@@W4InterfaceModeTypes@@@Z DD 0ffffffffH
	DD	FLAT:__unwindfunclet$?GetInterfaceModeInfo@CvDllGameContext@@UAGPAVICvInterfaceModeInfo1@@W4InterfaceModeTypes@@@Z$0
__ehfuncinfo$?GetInterfaceModeInfo@CvDllGameContext@@UAGPAVICvInterfaceModeInfo1@@W4InterfaceModeTypes@@@Z DD 019930522H
	DD	01H
	DD	FLAT:__unwindtable$?GetInterfaceModeInfo@CvDllGameContext@@UAGPAVICvInterfaceModeInfo1@@W4InterfaceModeTypes@@@Z
	DD	2 DUP(00H)
	DD	2 DUP(00H)
	DD	00H
	DD	01H
; Function compile flags: /Ogtpy
xdata$x	ENDS
;	COMDAT ?GetInterfaceModeInfo@CvDllGameContext@@UAGPAVICvInterfaceModeInfo1@@W4InterfaceModeTypes@@@Z
_TEXT	SEGMENT
__$EHRec$ = -12						; size = 12
_this$ = 8						; size = 4
$T228091 = 12						; size = 4
_e$ = 12						; size = 4
?GetInterfaceModeInfo@CvDllGameContext@@UAGPAVICvInterfaceModeInfo1@@W4InterfaceModeTypes@@@Z PROC ; CvDllGameContext::GetInterfaceModeInfo, COMDAT

; 451  : {

	mov	eax, DWORD PTR fs:0
	push	-1
	push	__ehhandler$?GetInterfaceModeInfo@CvDllGameContext@@UAGPAVICvInterfaceModeInfo1@@W4InterfaceModeTypes@@@Z
	push	eax
	mov	DWORD PTR fs:0, esp

; 452  : 	CvInterfaceModeInfo* pkInfo = GC.getInterfaceModeInfo(e);

	mov	eax, DWORD PTR _e$[esp+8]
	push	esi
	push	eax
	mov	ecx, OFFSET ?gGlobals@@3VCvGlobals@@A	; gGlobals
	call	?getInterfaceModeInfo@CvGlobals@@QAEPAVCvInterfaceModeInfo@@W4InterfaceModeTypes@@@Z ; CvGlobals::getInterfaceModeInfo
	mov	esi, eax

; 453  : 	return (NULL != pkInfo)? new CvDllInterfaceModeInfo(pkInfo) : NULL;

	test	esi, esi
	je	SHORT $LN5@GetInterfa
	push	12					; 0000000cH
	call	??2CvDllInterfaceModeInfo@@SAPAXI@Z	; CvDllInterfaceModeInfo::operator new
	add	esp, 4
	mov	DWORD PTR $T228091[esp+12], eax
	mov	DWORD PTR __$EHRec$[esp+24], 0
	test	eax, eax
	je	SHORT $LN5@GetInterfa
	push	esi
	mov	ecx, eax
	call	??0CvDllInterfaceModeInfo@@QAE@PAVCvInterfaceModeInfo@@@Z ; CvDllInterfaceModeInfo::CvDllInterfaceModeInfo

; 454  : }

	mov	ecx, DWORD PTR __$EHRec$[esp+16]
	mov	DWORD PTR fs:0, ecx
	pop	esi
	add	esp, 12					; 0000000cH
	ret	8
$LN5@GetInterfa:
	mov	ecx, DWORD PTR __$EHRec$[esp+16]
	xor	eax, eax
	mov	DWORD PTR fs:0, ecx
	pop	esi
	add	esp, 12					; 0000000cH
	ret	8
_TEXT	ENDS
;	COMDAT text$x
text$x	SEGMENT
__unwindfunclet$?GetInterfaceModeInfo@CvDllGameContext@@UAGPAVICvInterfaceModeInfo1@@W4InterfaceModeTypes@@@Z$0:
	mov	eax, DWORD PTR $T228091[ebp-4]
	push	eax
	call	??3CvDllInterfaceModeInfo@@SAXPAX@Z	; CvDllInterfaceModeInfo::operator delete
	pop	ecx
	ret	0
__ehhandler$?GetInterfaceModeInfo@CvDllGameContext@@UAGPAVICvInterfaceModeInfo1@@W4InterfaceModeTypes@@@Z:
	mov	eax, OFFSET __ehfuncinfo$?GetInterfaceModeInfo@CvDllGameContext@@UAGPAVICvInterfaceModeInfo1@@W4InterfaceModeTypes@@@Z
	jmp	___CxxFrameHandler3
text$x	ENDS
?GetInterfaceModeInfo@CvDllGameContext@@UAGPAVICvInterfaceModeInfo1@@W4InterfaceModeTypes@@@Z ENDP ; CvDllGameContext::GetInterfaceModeInfo
PUBLIC	?GetImprovementInfo@CvDllGameContext@@UAGPAVICvImprovementInfo1@@W4ImprovementTypes@@@Z ; CvDllGameContext::GetImprovementInfo
EXTRN	??3CvDllImprovementInfo@@SAXPAX@Z:PROC		; CvDllImprovementInfo::operator delete
EXTRN	??0CvDllImprovementInfo@@QAE@PAVCvImprovementEntry@@@Z:PROC ; CvDllImprovementInfo::CvDllImprovementInfo
EXTRN	??2CvDllImprovementInfo@@SAPAXI@Z:PROC		; CvDllImprovementInfo::operator new
EXTRN	?getImprovementInfo@CvGlobals@@QAEPAVCvImprovementEntry@@W4ImprovementTypes@@@Z:PROC ; CvGlobals::getImprovementInfo
;	COMDAT xdata$x
xdata$x	SEGMENT
__unwindtable$?GetImprovementInfo@CvDllGameContext@@UAGPAVICvImprovementInfo1@@W4ImprovementTypes@@@Z DD 0ffffffffH
	DD	FLAT:__unwindfunclet$?GetImprovementInfo@CvDllGameContext@@UAGPAVICvImprovementInfo1@@W4ImprovementTypes@@@Z$0
__ehfuncinfo$?GetImprovementInfo@CvDllGameContext@@UAGPAVICvImprovementInfo1@@W4ImprovementTypes@@@Z DD 019930522H
	DD	01H
	DD	FLAT:__unwindtable$?GetImprovementInfo@CvDllGameContext@@UAGPAVICvImprovementInfo1@@W4ImprovementTypes@@@Z
	DD	2 DUP(00H)
	DD	2 DUP(00H)
	DD	00H
	DD	01H
; Function compile flags: /Ogtpy
xdata$x	ENDS
;	COMDAT ?GetImprovementInfo@CvDllGameContext@@UAGPAVICvImprovementInfo1@@W4ImprovementTypes@@@Z
_TEXT	SEGMENT
__$EHRec$ = -12						; size = 12
_this$ = 8						; size = 4
$T228107 = 12						; size = 4
_eImprovement$ = 12					; size = 4
?GetImprovementInfo@CvDllGameContext@@UAGPAVICvImprovementInfo1@@W4ImprovementTypes@@@Z PROC ; CvDllGameContext::GetImprovementInfo, COMDAT

; 457  : {

	mov	eax, DWORD PTR fs:0
	push	-1
	push	__ehhandler$?GetImprovementInfo@CvDllGameContext@@UAGPAVICvImprovementInfo1@@W4ImprovementTypes@@@Z
	push	eax
	mov	DWORD PTR fs:0, esp

; 458  : 	CvImprovementEntry* pkEntry = GC.getImprovementInfo(eImprovement);

	mov	eax, DWORD PTR _eImprovement$[esp+8]
	push	esi
	push	eax
	mov	ecx, OFFSET ?gGlobals@@3VCvGlobals@@A	; gGlobals
	call	?getImprovementInfo@CvGlobals@@QAEPAVCvImprovementEntry@@W4ImprovementTypes@@@Z ; CvGlobals::getImprovementInfo
	mov	esi, eax

; 459  : 	return (NULL != pkEntry)? new CvDllImprovementInfo(pkEntry) : NULL;

	test	esi, esi
	je	SHORT $LN5@GetImprove
	push	12					; 0000000cH
	call	??2CvDllImprovementInfo@@SAPAXI@Z	; CvDllImprovementInfo::operator new
	add	esp, 4
	mov	DWORD PTR $T228107[esp+12], eax
	mov	DWORD PTR __$EHRec$[esp+24], 0
	test	eax, eax
	je	SHORT $LN5@GetImprove
	push	esi
	mov	ecx, eax
	call	??0CvDllImprovementInfo@@QAE@PAVCvImprovementEntry@@@Z ; CvDllImprovementInfo::CvDllImprovementInfo

; 460  : }

	mov	ecx, DWORD PTR __$EHRec$[esp+16]
	mov	DWORD PTR fs:0, ecx
	pop	esi
	add	esp, 12					; 0000000cH
	ret	8
$LN5@GetImprove:
	mov	ecx, DWORD PTR __$EHRec$[esp+16]
	xor	eax, eax
	mov	DWORD PTR fs:0, ecx
	pop	esi
	add	esp, 12					; 0000000cH
	ret	8
_TEXT	ENDS
;	COMDAT text$x
text$x	SEGMENT
__unwindfunclet$?GetImprovementInfo@CvDllGameContext@@UAGPAVICvImprovementInfo1@@W4ImprovementTypes@@@Z$0:
	mov	eax, DWORD PTR $T228107[ebp-4]
	push	eax
	call	??3CvDllImprovementInfo@@SAXPAX@Z	; CvDllImprovementInfo::operator delete
	pop	ecx
	ret	0
__ehhandler$?GetImprovementInfo@CvDllGameContext@@UAGPAVICvImprovementInfo1@@W4ImprovementTypes@@@Z:
	mov	eax, OFFSET __ehfuncinfo$?GetImprovementInfo@CvDllGameContext@@UAGPAVICvImprovementInfo1@@W4ImprovementTypes@@@Z
	jmp	___CxxFrameHandler3
text$x	ENDS
?GetImprovementInfo@CvDllGameContext@@UAGPAVICvImprovementInfo1@@W4ImprovementTypes@@@Z ENDP ; CvDllGameContext::GetImprovementInfo
PUBLIC	?GetLeaderHeadInfo@CvDllGameContext@@UAGPAVICvLeaderHeadInfo1@@W4LeaderHeadTypes@@@Z ; CvDllGameContext::GetLeaderHeadInfo
EXTRN	??3CvDllLeaderHeadInfo@@SAXPAX@Z:PROC		; CvDllLeaderHeadInfo::operator delete
EXTRN	??0CvDllLeaderHeadInfo@@QAE@PAVCvLeaderHeadInfo@@@Z:PROC ; CvDllLeaderHeadInfo::CvDllLeaderHeadInfo
EXTRN	??2CvDllLeaderHeadInfo@@SAPAXI@Z:PROC		; CvDllLeaderHeadInfo::operator new
EXTRN	?getLeaderHeadInfo@CvGlobals@@QAEPAVCvLeaderHeadInfo@@W4LeaderHeadTypes@@@Z:PROC ; CvGlobals::getLeaderHeadInfo
;	COMDAT xdata$x
xdata$x	SEGMENT
__unwindtable$?GetLeaderHeadInfo@CvDllGameContext@@UAGPAVICvLeaderHeadInfo1@@W4LeaderHeadTypes@@@Z DD 0ffffffffH
	DD	FLAT:__unwindfunclet$?GetLeaderHeadInfo@CvDllGameContext@@UAGPAVICvLeaderHeadInfo1@@W4LeaderHeadTypes@@@Z$0
__ehfuncinfo$?GetLeaderHeadInfo@CvDllGameContext@@UAGPAVICvLeaderHeadInfo1@@W4LeaderHeadTypes@@@Z DD 019930522H
	DD	01H
	DD	FLAT:__unwindtable$?GetLeaderHeadInfo@CvDllGameContext@@UAGPAVICvLeaderHeadInfo1@@W4LeaderHeadTypes@@@Z
	DD	2 DUP(00H)
	DD	2 DUP(00H)
	DD	00H
	DD	01H
; Function compile flags: /Ogtpy
xdata$x	ENDS
;	COMDAT ?GetLeaderHeadInfo@CvDllGameContext@@UAGPAVICvLeaderHeadInfo1@@W4LeaderHeadTypes@@@Z
_TEXT	SEGMENT
__$EHRec$ = -12						; size = 12
_this$ = 8						; size = 4
$T228123 = 12						; size = 4
_eLeaderHeadNum$ = 12					; size = 4
?GetLeaderHeadInfo@CvDllGameContext@@UAGPAVICvLeaderHeadInfo1@@W4LeaderHeadTypes@@@Z PROC ; CvDllGameContext::GetLeaderHeadInfo, COMDAT

; 463  : {

	mov	eax, DWORD PTR fs:0
	push	-1
	push	__ehhandler$?GetLeaderHeadInfo@CvDllGameContext@@UAGPAVICvLeaderHeadInfo1@@W4LeaderHeadTypes@@@Z
	push	eax
	mov	DWORD PTR fs:0, esp

; 464  : 	CvLeaderHeadInfo* pkInfo = GC.getLeaderHeadInfo(eLeaderHeadNum);

	mov	eax, DWORD PTR _eLeaderHeadNum$[esp+8]
	push	esi
	push	eax
	mov	ecx, OFFSET ?gGlobals@@3VCvGlobals@@A	; gGlobals
	call	?getLeaderHeadInfo@CvGlobals@@QAEPAVCvLeaderHeadInfo@@W4LeaderHeadTypes@@@Z ; CvGlobals::getLeaderHeadInfo
	mov	esi, eax

; 465  : 	return (NULL != pkInfo)? new CvDllLeaderHeadInfo(pkInfo) : NULL;

	test	esi, esi
	je	SHORT $LN5@GetLeaderH
	push	12					; 0000000cH
	call	??2CvDllLeaderHeadInfo@@SAPAXI@Z	; CvDllLeaderHeadInfo::operator new
	add	esp, 4
	mov	DWORD PTR $T228123[esp+12], eax
	mov	DWORD PTR __$EHRec$[esp+24], 0
	test	eax, eax
	je	SHORT $LN5@GetLeaderH
	push	esi
	mov	ecx, eax
	call	??0CvDllLeaderHeadInfo@@QAE@PAVCvLeaderHeadInfo@@@Z ; CvDllLeaderHeadInfo::CvDllLeaderHeadInfo

; 466  : }

	mov	ecx, DWORD PTR __$EHRec$[esp+16]
	mov	DWORD PTR fs:0, ecx
	pop	esi
	add	esp, 12					; 0000000cH
	ret	8
$LN5@GetLeaderH:
	mov	ecx, DWORD PTR __$EHRec$[esp+16]
	xor	eax, eax
	mov	DWORD PTR fs:0, ecx
	pop	esi
	add	esp, 12					; 0000000cH
	ret	8
_TEXT	ENDS
;	COMDAT text$x
text$x	SEGMENT
__unwindfunclet$?GetLeaderHeadInfo@CvDllGameContext@@UAGPAVICvLeaderHeadInfo1@@W4LeaderHeadTypes@@@Z$0:
	mov	eax, DWORD PTR $T228123[ebp-4]
	push	eax
	call	??3CvDllLeaderHeadInfo@@SAXPAX@Z	; CvDllLeaderHeadInfo::operator delete
	pop	ecx
	ret	0
__ehhandler$?GetLeaderHeadInfo@CvDllGameContext@@UAGPAVICvLeaderHeadInfo1@@W4LeaderHeadTypes@@@Z:
	mov	eax, OFFSET __ehfuncinfo$?GetLeaderHeadInfo@CvDllGameContext@@UAGPAVICvLeaderHeadInfo1@@W4LeaderHeadTypes@@@Z
	jmp	___CxxFrameHandler3
text$x	ENDS
?GetLeaderHeadInfo@CvDllGameContext@@UAGPAVICvLeaderHeadInfo1@@W4LeaderHeadTypes@@@Z ENDP ; CvDllGameContext::GetLeaderHeadInfo
PUBLIC	?GetMinorCivInfo@CvDllGameContext@@UAGPAVICvMinorCivInfo1@@W4MinorCivTypes@@@Z ; CvDllGameContext::GetMinorCivInfo
EXTRN	??3CvDllMinorCivInfo@@SAXPAX@Z:PROC		; CvDllMinorCivInfo::operator delete
EXTRN	??0CvDllMinorCivInfo@@QAE@PAVCvMinorCivInfo@@@Z:PROC ; CvDllMinorCivInfo::CvDllMinorCivInfo
EXTRN	??2CvDllMinorCivInfo@@SAPAXI@Z:PROC		; CvDllMinorCivInfo::operator new
EXTRN	?getMinorCivInfo@CvGlobals@@QAEPAVCvMinorCivInfo@@W4MinorCivTypes@@@Z:PROC ; CvGlobals::getMinorCivInfo
;	COMDAT xdata$x
xdata$x	SEGMENT
__unwindtable$?GetMinorCivInfo@CvDllGameContext@@UAGPAVICvMinorCivInfo1@@W4MinorCivTypes@@@Z DD 0ffffffffH
	DD	FLAT:__unwindfunclet$?GetMinorCivInfo@CvDllGameContext@@UAGPAVICvMinorCivInfo1@@W4MinorCivTypes@@@Z$0
__ehfuncinfo$?GetMinorCivInfo@CvDllGameContext@@UAGPAVICvMinorCivInfo1@@W4MinorCivTypes@@@Z DD 019930522H
	DD	01H
	DD	FLAT:__unwindtable$?GetMinorCivInfo@CvDllGameContext@@UAGPAVICvMinorCivInfo1@@W4MinorCivTypes@@@Z
	DD	2 DUP(00H)
	DD	2 DUP(00H)
	DD	00H
	DD	01H
; Function compile flags: /Ogtpy
xdata$x	ENDS
;	COMDAT ?GetMinorCivInfo@CvDllGameContext@@UAGPAVICvMinorCivInfo1@@W4MinorCivTypes@@@Z
_TEXT	SEGMENT
__$EHRec$ = -12						; size = 12
_this$ = 8						; size = 4
$T228139 = 12						; size = 4
_eMinorCiv$ = 12					; size = 4
?GetMinorCivInfo@CvDllGameContext@@UAGPAVICvMinorCivInfo1@@W4MinorCivTypes@@@Z PROC ; CvDllGameContext::GetMinorCivInfo, COMDAT

; 469  : {

	mov	eax, DWORD PTR fs:0
	push	-1
	push	__ehhandler$?GetMinorCivInfo@CvDllGameContext@@UAGPAVICvMinorCivInfo1@@W4MinorCivTypes@@@Z
	push	eax
	mov	DWORD PTR fs:0, esp

; 470  : 	CvMinorCivInfo* pkInfo = GC.getMinorCivInfo(eMinorCiv);

	mov	eax, DWORD PTR _eMinorCiv$[esp+8]
	push	esi
	push	eax
	mov	ecx, OFFSET ?gGlobals@@3VCvGlobals@@A	; gGlobals
	call	?getMinorCivInfo@CvGlobals@@QAEPAVCvMinorCivInfo@@W4MinorCivTypes@@@Z ; CvGlobals::getMinorCivInfo
	mov	esi, eax

; 471  : 	return (NULL != pkInfo)? new CvDllMinorCivInfo(pkInfo) : NULL;

	test	esi, esi
	je	SHORT $LN5@GetMinorCi
	push	12					; 0000000cH
	call	??2CvDllMinorCivInfo@@SAPAXI@Z		; CvDllMinorCivInfo::operator new
	add	esp, 4
	mov	DWORD PTR $T228139[esp+12], eax
	mov	DWORD PTR __$EHRec$[esp+24], 0
	test	eax, eax
	je	SHORT $LN5@GetMinorCi
	push	esi
	mov	ecx, eax
	call	??0CvDllMinorCivInfo@@QAE@PAVCvMinorCivInfo@@@Z ; CvDllMinorCivInfo::CvDllMinorCivInfo

; 472  : }

	mov	ecx, DWORD PTR __$EHRec$[esp+16]
	mov	DWORD PTR fs:0, ecx
	pop	esi
	add	esp, 12					; 0000000cH
	ret	8
$LN5@GetMinorCi:
	mov	ecx, DWORD PTR __$EHRec$[esp+16]
	xor	eax, eax
	mov	DWORD PTR fs:0, ecx
	pop	esi
	add	esp, 12					; 0000000cH
	ret	8
_TEXT	ENDS
;	COMDAT text$x
text$x	SEGMENT
__unwindfunclet$?GetMinorCivInfo@CvDllGameContext@@UAGPAVICvMinorCivInfo1@@W4MinorCivTypes@@@Z$0:
	mov	eax, DWORD PTR $T228139[ebp-4]
	push	eax
	call	??3CvDllMinorCivInfo@@SAXPAX@Z		; CvDllMinorCivInfo::operator delete
	pop	ecx
	ret	0
__ehhandler$?GetMinorCivInfo@CvDllGameContext@@UAGPAVICvMinorCivInfo1@@W4MinorCivTypes@@@Z:
	mov	eax, OFFSET __ehfuncinfo$?GetMinorCivInfo@CvDllGameContext@@UAGPAVICvMinorCivInfo1@@W4MinorCivTypes@@@Z
	jmp	___CxxFrameHandler3
text$x	ENDS
?GetMinorCivInfo@CvDllGameContext@@UAGPAVICvMinorCivInfo1@@W4MinorCivTypes@@@Z ENDP ; CvDllGameContext::GetMinorCivInfo
PUBLIC	?GetMissionInfo@CvDllGameContext@@UAGPAVICvMissionInfo1@@W4MissionTypes@@@Z ; CvDllGameContext::GetMissionInfo
EXTRN	??3CvDllMissionInfo@@SAXPAX@Z:PROC		; CvDllMissionInfo::operator delete
EXTRN	??0CvDllMissionInfo@@QAE@PAVCvMissionInfo@@@Z:PROC ; CvDllMissionInfo::CvDllMissionInfo
EXTRN	??2CvDllMissionInfo@@SAPAXI@Z:PROC		; CvDllMissionInfo::operator new
EXTRN	?getMissionInfo@CvGlobals@@QAEPAVCvMissionInfo@@W4MissionTypes@@@Z:PROC ; CvGlobals::getMissionInfo
;	COMDAT xdata$x
xdata$x	SEGMENT
__unwindtable$?GetMissionInfo@CvDllGameContext@@UAGPAVICvMissionInfo1@@W4MissionTypes@@@Z DD 0ffffffffH
	DD	FLAT:__unwindfunclet$?GetMissionInfo@CvDllGameContext@@UAGPAVICvMissionInfo1@@W4MissionTypes@@@Z$0
__ehfuncinfo$?GetMissionInfo@CvDllGameContext@@UAGPAVICvMissionInfo1@@W4MissionTypes@@@Z DD 019930522H
	DD	01H
	DD	FLAT:__unwindtable$?GetMissionInfo@CvDllGameContext@@UAGPAVICvMissionInfo1@@W4MissionTypes@@@Z
	DD	2 DUP(00H)
	DD	2 DUP(00H)
	DD	00H
	DD	01H
; Function compile flags: /Ogtpy
xdata$x	ENDS
;	COMDAT ?GetMissionInfo@CvDllGameContext@@UAGPAVICvMissionInfo1@@W4MissionTypes@@@Z
_TEXT	SEGMENT
__$EHRec$ = -12						; size = 12
_this$ = 8						; size = 4
$T228155 = 12						; size = 4
_eMission$ = 12						; size = 4
?GetMissionInfo@CvDllGameContext@@UAGPAVICvMissionInfo1@@W4MissionTypes@@@Z PROC ; CvDllGameContext::GetMissionInfo, COMDAT

; 475  : {

	mov	eax, DWORD PTR fs:0
	push	-1
	push	__ehhandler$?GetMissionInfo@CvDllGameContext@@UAGPAVICvMissionInfo1@@W4MissionTypes@@@Z
	push	eax
	mov	DWORD PTR fs:0, esp

; 476  : 	CvMissionInfo* pkInfo = GC.getMissionInfo(eMission);

	mov	eax, DWORD PTR _eMission$[esp+8]
	push	esi
	push	eax
	mov	ecx, OFFSET ?gGlobals@@3VCvGlobals@@A	; gGlobals
	call	?getMissionInfo@CvGlobals@@QAEPAVCvMissionInfo@@W4MissionTypes@@@Z ; CvGlobals::getMissionInfo
	mov	esi, eax

; 477  : 	return (NULL != pkInfo)? new CvDllMissionInfo(pkInfo) : NULL;

	test	esi, esi
	je	SHORT $LN5@GetMission
	push	12					; 0000000cH
	call	??2CvDllMissionInfo@@SAPAXI@Z		; CvDllMissionInfo::operator new
	add	esp, 4
	mov	DWORD PTR $T228155[esp+12], eax
	mov	DWORD PTR __$EHRec$[esp+24], 0
	test	eax, eax
	je	SHORT $LN5@GetMission
	push	esi
	mov	ecx, eax
	call	??0CvDllMissionInfo@@QAE@PAVCvMissionInfo@@@Z ; CvDllMissionInfo::CvDllMissionInfo

; 478  : }

	mov	ecx, DWORD PTR __$EHRec$[esp+16]
	mov	DWORD PTR fs:0, ecx
	pop	esi
	add	esp, 12					; 0000000cH
	ret	8
$LN5@GetMission:
	mov	ecx, DWORD PTR __$EHRec$[esp+16]
	xor	eax, eax
	mov	DWORD PTR fs:0, ecx
	pop	esi
	add	esp, 12					; 0000000cH
	ret	8
_TEXT	ENDS
;	COMDAT text$x
text$x	SEGMENT
__unwindfunclet$?GetMissionInfo@CvDllGameContext@@UAGPAVICvMissionInfo1@@W4MissionTypes@@@Z$0:
	mov	eax, DWORD PTR $T228155[ebp-4]
	push	eax
	call	??3CvDllMissionInfo@@SAXPAX@Z		; CvDllMissionInfo::operator delete
	pop	ecx
	ret	0
__ehhandler$?GetMissionInfo@CvDllGameContext@@UAGPAVICvMissionInfo1@@W4MissionTypes@@@Z:
	mov	eax, OFFSET __ehfuncinfo$?GetMissionInfo@CvDllGameContext@@UAGPAVICvMissionInfo1@@W4MissionTypes@@@Z
	jmp	___CxxFrameHandler3
text$x	ENDS
?GetMissionInfo@CvDllGameContext@@UAGPAVICvMissionInfo1@@W4MissionTypes@@@Z ENDP ; CvDllGameContext::GetMissionInfo
PUBLIC	?GetPlayerColorInfo@CvDllGameContext@@UAGPAVICvPlayerColorInfo1@@W4PlayerColorTypes@@@Z ; CvDllGameContext::GetPlayerColorInfo
EXTRN	??3CvDllPlayerColorInfo@@SAXPAX@Z:PROC		; CvDllPlayerColorInfo::operator delete
EXTRN	??0CvDllPlayerColorInfo@@QAE@PAVCvPlayerColorInfo@@@Z:PROC ; CvDllPlayerColorInfo::CvDllPlayerColorInfo
EXTRN	??2CvDllPlayerColorInfo@@SAPAXI@Z:PROC		; CvDllPlayerColorInfo::operator new
EXTRN	?GetPlayerColorInfo@CvGlobals@@QAEPAVCvPlayerColorInfo@@W4PlayerColorTypes@@@Z:PROC ; CvGlobals::GetPlayerColorInfo
;	COMDAT xdata$x
xdata$x	SEGMENT
__unwindtable$?GetPlayerColorInfo@CvDllGameContext@@UAGPAVICvPlayerColorInfo1@@W4PlayerColorTypes@@@Z DD 0ffffffffH
	DD	FLAT:__unwindfunclet$?GetPlayerColorInfo@CvDllGameContext@@UAGPAVICvPlayerColorInfo1@@W4PlayerColorTypes@@@Z$0
__ehfuncinfo$?GetPlayerColorInfo@CvDllGameContext@@UAGPAVICvPlayerColorInfo1@@W4PlayerColorTypes@@@Z DD 019930522H
	DD	01H
	DD	FLAT:__unwindtable$?GetPlayerColorInfo@CvDllGameContext@@UAGPAVICvPlayerColorInfo1@@W4PlayerColorTypes@@@Z
	DD	2 DUP(00H)
	DD	2 DUP(00H)
	DD	00H
	DD	01H
; Function compile flags: /Ogtpy
xdata$x	ENDS
;	COMDAT ?GetPlayerColorInfo@CvDllGameContext@@UAGPAVICvPlayerColorInfo1@@W4PlayerColorTypes@@@Z
_TEXT	SEGMENT
__$EHRec$ = -12						; size = 12
_this$ = 8						; size = 4
$T228171 = 12						; size = 4
_e$ = 12						; size = 4
?GetPlayerColorInfo@CvDllGameContext@@UAGPAVICvPlayerColorInfo1@@W4PlayerColorTypes@@@Z PROC ; CvDllGameContext::GetPlayerColorInfo, COMDAT

; 481  : {

	mov	eax, DWORD PTR fs:0
	push	-1
	push	__ehhandler$?GetPlayerColorInfo@CvDllGameContext@@UAGPAVICvPlayerColorInfo1@@W4PlayerColorTypes@@@Z
	push	eax
	mov	DWORD PTR fs:0, esp

; 482  : 	CvPlayerColorInfo* pkInfo = GC.GetPlayerColorInfo(e);

	mov	eax, DWORD PTR _e$[esp+8]
	push	esi
	push	eax
	mov	ecx, OFFSET ?gGlobals@@3VCvGlobals@@A	; gGlobals
	call	?GetPlayerColorInfo@CvGlobals@@QAEPAVCvPlayerColorInfo@@W4PlayerColorTypes@@@Z ; CvGlobals::GetPlayerColorInfo
	mov	esi, eax

; 483  : 	return (NULL != pkInfo)? new CvDllPlayerColorInfo(pkInfo) : NULL;

	test	esi, esi
	je	SHORT $LN5@GetPlayerC
	push	12					; 0000000cH
	call	??2CvDllPlayerColorInfo@@SAPAXI@Z	; CvDllPlayerColorInfo::operator new
	add	esp, 4
	mov	DWORD PTR $T228171[esp+12], eax
	mov	DWORD PTR __$EHRec$[esp+24], 0
	test	eax, eax
	je	SHORT $LN5@GetPlayerC
	push	esi
	mov	ecx, eax
	call	??0CvDllPlayerColorInfo@@QAE@PAVCvPlayerColorInfo@@@Z ; CvDllPlayerColorInfo::CvDllPlayerColorInfo

; 484  : }

	mov	ecx, DWORD PTR __$EHRec$[esp+16]
	mov	DWORD PTR fs:0, ecx
	pop	esi
	add	esp, 12					; 0000000cH
	ret	8
$LN5@GetPlayerC:
	mov	ecx, DWORD PTR __$EHRec$[esp+16]
	xor	eax, eax
	mov	DWORD PTR fs:0, ecx
	pop	esi
	add	esp, 12					; 0000000cH
	ret	8
_TEXT	ENDS
;	COMDAT text$x
text$x	SEGMENT
__unwindfunclet$?GetPlayerColorInfo@CvDllGameContext@@UAGPAVICvPlayerColorInfo1@@W4PlayerColorTypes@@@Z$0:
	mov	eax, DWORD PTR $T228171[ebp-4]
	push	eax
	call	??3CvDllPlayerColorInfo@@SAXPAX@Z	; CvDllPlayerColorInfo::operator delete
	pop	ecx
	ret	0
__ehhandler$?GetPlayerColorInfo@CvDllGameContext@@UAGPAVICvPlayerColorInfo1@@W4PlayerColorTypes@@@Z:
	mov	eax, OFFSET __ehfuncinfo$?GetPlayerColorInfo@CvDllGameContext@@UAGPAVICvPlayerColorInfo1@@W4PlayerColorTypes@@@Z
	jmp	___CxxFrameHandler3
text$x	ENDS
?GetPlayerColorInfo@CvDllGameContext@@UAGPAVICvPlayerColorInfo1@@W4PlayerColorTypes@@@Z ENDP ; CvDllGameContext::GetPlayerColorInfo
PUBLIC	?GetPlayerOptionInfo@CvDllGameContext@@UAGPAVICvPlayerOptionInfo1@@W4PlayerOptionTypes@@@Z ; CvDllGameContext::GetPlayerOptionInfo
EXTRN	??3CvDllPlayerOptionInfo@@SAXPAX@Z:PROC		; CvDllPlayerOptionInfo::operator delete
EXTRN	??0CvDllPlayerOptionInfo@@QAE@PAVCvPlayerOptionInfo@@@Z:PROC ; CvDllPlayerOptionInfo::CvDllPlayerOptionInfo
EXTRN	??2CvDllPlayerOptionInfo@@SAPAXI@Z:PROC		; CvDllPlayerOptionInfo::operator new
EXTRN	?getPlayerOptionInfo@CvGlobals@@QAEPAVCvPlayerOptionInfo@@W4PlayerOptionTypes@@@Z:PROC ; CvGlobals::getPlayerOptionInfo
;	COMDAT xdata$x
xdata$x	SEGMENT
__unwindtable$?GetPlayerOptionInfo@CvDllGameContext@@UAGPAVICvPlayerOptionInfo1@@W4PlayerOptionTypes@@@Z DD 0ffffffffH
	DD	FLAT:__unwindfunclet$?GetPlayerOptionInfo@CvDllGameContext@@UAGPAVICvPlayerOptionInfo1@@W4PlayerOptionTypes@@@Z$0
__ehfuncinfo$?GetPlayerOptionInfo@CvDllGameContext@@UAGPAVICvPlayerOptionInfo1@@W4PlayerOptionTypes@@@Z DD 019930522H
	DD	01H
	DD	FLAT:__unwindtable$?GetPlayerOptionInfo@CvDllGameContext@@UAGPAVICvPlayerOptionInfo1@@W4PlayerOptionTypes@@@Z
	DD	2 DUP(00H)
	DD	2 DUP(00H)
	DD	00H
	DD	01H
; Function compile flags: /Ogtpy
xdata$x	ENDS
;	COMDAT ?GetPlayerOptionInfo@CvDllGameContext@@UAGPAVICvPlayerOptionInfo1@@W4PlayerOptionTypes@@@Z
_TEXT	SEGMENT
__$EHRec$ = -12						; size = 12
_this$ = 8						; size = 4
$T228187 = 12						; size = 4
_ePlayerOptionNum$ = 12					; size = 4
?GetPlayerOptionInfo@CvDllGameContext@@UAGPAVICvPlayerOptionInfo1@@W4PlayerOptionTypes@@@Z PROC ; CvDllGameContext::GetPlayerOptionInfo, COMDAT

; 487  : {

	mov	eax, DWORD PTR fs:0
	push	-1
	push	__ehhandler$?GetPlayerOptionInfo@CvDllGameContext@@UAGPAVICvPlayerOptionInfo1@@W4PlayerOptionTypes@@@Z
	push	eax
	mov	DWORD PTR fs:0, esp

; 488  : 	CvPlayerOptionInfo* pkInfo = GC.getPlayerOptionInfo(ePlayerOptionNum);

	mov	eax, DWORD PTR _ePlayerOptionNum$[esp+8]
	push	esi
	push	eax
	mov	ecx, OFFSET ?gGlobals@@3VCvGlobals@@A	; gGlobals
	call	?getPlayerOptionInfo@CvGlobals@@QAEPAVCvPlayerOptionInfo@@W4PlayerOptionTypes@@@Z ; CvGlobals::getPlayerOptionInfo
	mov	esi, eax

; 489  : 	return (NULL != pkInfo)? new CvDllPlayerOptionInfo(pkInfo) : NULL;

	test	esi, esi
	je	SHORT $LN5@GetPlayerO
	push	12					; 0000000cH
	call	??2CvDllPlayerOptionInfo@@SAPAXI@Z	; CvDllPlayerOptionInfo::operator new
	add	esp, 4
	mov	DWORD PTR $T228187[esp+12], eax
	mov	DWORD PTR __$EHRec$[esp+24], 0
	test	eax, eax
	je	SHORT $LN5@GetPlayerO
	push	esi
	mov	ecx, eax
	call	??0CvDllPlayerOptionInfo@@QAE@PAVCvPlayerOptionInfo@@@Z ; CvDllPlayerOptionInfo::CvDllPlayerOptionInfo

; 490  : }

	mov	ecx, DWORD PTR __$EHRec$[esp+16]
	mov	DWORD PTR fs:0, ecx
	pop	esi
	add	esp, 12					; 0000000cH
	ret	8
$LN5@GetPlayerO:
	mov	ecx, DWORD PTR __$EHRec$[esp+16]
	xor	eax, eax
	mov	DWORD PTR fs:0, ecx
	pop	esi
	add	esp, 12					; 0000000cH
	ret	8
_TEXT	ENDS
;	COMDAT text$x
text$x	SEGMENT
__unwindfunclet$?GetPlayerOptionInfo@CvDllGameContext@@UAGPAVICvPlayerOptionInfo1@@W4PlayerOptionTypes@@@Z$0:
	mov	eax, DWORD PTR $T228187[ebp-4]
	push	eax
	call	??3CvDllPlayerOptionInfo@@SAXPAX@Z	; CvDllPlayerOptionInfo::operator delete
	pop	ecx
	ret	0
__ehhandler$?GetPlayerOptionInfo@CvDllGameContext@@UAGPAVICvPlayerOptionInfo1@@W4PlayerOptionTypes@@@Z:
	mov	eax, OFFSET __ehfuncinfo$?GetPlayerOptionInfo@CvDllGameContext@@UAGPAVICvPlayerOptionInfo1@@W4PlayerOptionTypes@@@Z
	jmp	___CxxFrameHandler3
text$x	ENDS
?GetPlayerOptionInfo@CvDllGameContext@@UAGPAVICvPlayerOptionInfo1@@W4PlayerOptionTypes@@@Z ENDP ; CvDllGameContext::GetPlayerOptionInfo
PUBLIC	?GetPolicyInfo@CvDllGameContext@@UAGPAVICvPolicyInfo1@@W4PolicyTypes@@@Z ; CvDllGameContext::GetPolicyInfo
EXTRN	??3CvDllPolicyInfo@@SAXPAX@Z:PROC		; CvDllPolicyInfo::operator delete
EXTRN	??0CvDllPolicyInfo@@QAE@PAVCvPolicyEntry@@@Z:PROC ; CvDllPolicyInfo::CvDllPolicyInfo
EXTRN	??2CvDllPolicyInfo@@SAPAXI@Z:PROC		; CvDllPolicyInfo::operator new
EXTRN	?getPolicyInfo@CvGlobals@@QAEPAVCvPolicyEntry@@W4PolicyTypes@@@Z:PROC ; CvGlobals::getPolicyInfo
;	COMDAT xdata$x
xdata$x	SEGMENT
__unwindtable$?GetPolicyInfo@CvDllGameContext@@UAGPAVICvPolicyInfo1@@W4PolicyTypes@@@Z DD 0ffffffffH
	DD	FLAT:__unwindfunclet$?GetPolicyInfo@CvDllGameContext@@UAGPAVICvPolicyInfo1@@W4PolicyTypes@@@Z$0
__ehfuncinfo$?GetPolicyInfo@CvDllGameContext@@UAGPAVICvPolicyInfo1@@W4PolicyTypes@@@Z DD 019930522H
	DD	01H
	DD	FLAT:__unwindtable$?GetPolicyInfo@CvDllGameContext@@UAGPAVICvPolicyInfo1@@W4PolicyTypes@@@Z
	DD	2 DUP(00H)
	DD	2 DUP(00H)
	DD	00H
	DD	01H
; Function compile flags: /Ogtpy
xdata$x	ENDS
;	COMDAT ?GetPolicyInfo@CvDllGameContext@@UAGPAVICvPolicyInfo1@@W4PolicyTypes@@@Z
_TEXT	SEGMENT
__$EHRec$ = -12						; size = 12
_this$ = 8						; size = 4
$T228203 = 12						; size = 4
_ePolicy$ = 12						; size = 4
?GetPolicyInfo@CvDllGameContext@@UAGPAVICvPolicyInfo1@@W4PolicyTypes@@@Z PROC ; CvDllGameContext::GetPolicyInfo, COMDAT

; 493  : {

	mov	eax, DWORD PTR fs:0
	push	-1
	push	__ehhandler$?GetPolicyInfo@CvDllGameContext@@UAGPAVICvPolicyInfo1@@W4PolicyTypes@@@Z
	push	eax
	mov	DWORD PTR fs:0, esp

; 494  : 	CvPolicyEntry* pkInfo = GC.getPolicyInfo(ePolicy);

	mov	eax, DWORD PTR _ePolicy$[esp+8]
	push	esi
	push	eax
	mov	ecx, OFFSET ?gGlobals@@3VCvGlobals@@A	; gGlobals
	call	?getPolicyInfo@CvGlobals@@QAEPAVCvPolicyEntry@@W4PolicyTypes@@@Z ; CvGlobals::getPolicyInfo
	mov	esi, eax

; 495  : 	return (NULL != pkInfo)? new CvDllPolicyInfo(pkInfo) : NULL;

	test	esi, esi
	je	SHORT $LN5@GetPolicyI
	push	12					; 0000000cH
	call	??2CvDllPolicyInfo@@SAPAXI@Z		; CvDllPolicyInfo::operator new
	add	esp, 4
	mov	DWORD PTR $T228203[esp+12], eax
	mov	DWORD PTR __$EHRec$[esp+24], 0
	test	eax, eax
	je	SHORT $LN5@GetPolicyI
	push	esi
	mov	ecx, eax
	call	??0CvDllPolicyInfo@@QAE@PAVCvPolicyEntry@@@Z ; CvDllPolicyInfo::CvDllPolicyInfo

; 496  : }

	mov	ecx, DWORD PTR __$EHRec$[esp+16]
	mov	DWORD PTR fs:0, ecx
	pop	esi
	add	esp, 12					; 0000000cH
	ret	8
$LN5@GetPolicyI:
	mov	ecx, DWORD PTR __$EHRec$[esp+16]
	xor	eax, eax
	mov	DWORD PTR fs:0, ecx
	pop	esi
	add	esp, 12					; 0000000cH
	ret	8
_TEXT	ENDS
;	COMDAT text$x
text$x	SEGMENT
__unwindfunclet$?GetPolicyInfo@CvDllGameContext@@UAGPAVICvPolicyInfo1@@W4PolicyTypes@@@Z$0:
	mov	eax, DWORD PTR $T228203[ebp-4]
	push	eax
	call	??3CvDllPolicyInfo@@SAXPAX@Z		; CvDllPolicyInfo::operator delete
	pop	ecx
	ret	0
__ehhandler$?GetPolicyInfo@CvDllGameContext@@UAGPAVICvPolicyInfo1@@W4PolicyTypes@@@Z:
	mov	eax, OFFSET __ehfuncinfo$?GetPolicyInfo@CvDllGameContext@@UAGPAVICvPolicyInfo1@@W4PolicyTypes@@@Z
	jmp	___CxxFrameHandler3
text$x	ENDS
?GetPolicyInfo@CvDllGameContext@@UAGPAVICvPolicyInfo1@@W4PolicyTypes@@@Z ENDP ; CvDllGameContext::GetPolicyInfo
PUBLIC	?GetPromotionInfo@CvDllGameContext@@UAGPAVICvPromotionInfo1@@W4PromotionTypes@@@Z ; CvDllGameContext::GetPromotionInfo
EXTRN	??3CvDllPromotionInfo@@SAXPAX@Z:PROC		; CvDllPromotionInfo::operator delete
EXTRN	??0CvDllPromotionInfo@@QAE@PAVCvPromotionEntry@@@Z:PROC ; CvDllPromotionInfo::CvDllPromotionInfo
EXTRN	??2CvDllPromotionInfo@@SAPAXI@Z:PROC		; CvDllPromotionInfo::operator new
EXTRN	?getPromotionInfo@CvGlobals@@QAEPAVCvPromotionEntry@@W4PromotionTypes@@@Z:PROC ; CvGlobals::getPromotionInfo
;	COMDAT xdata$x
xdata$x	SEGMENT
__unwindtable$?GetPromotionInfo@CvDllGameContext@@UAGPAVICvPromotionInfo1@@W4PromotionTypes@@@Z DD 0ffffffffH
	DD	FLAT:__unwindfunclet$?GetPromotionInfo@CvDllGameContext@@UAGPAVICvPromotionInfo1@@W4PromotionTypes@@@Z$0
__ehfuncinfo$?GetPromotionInfo@CvDllGameContext@@UAGPAVICvPromotionInfo1@@W4PromotionTypes@@@Z DD 019930522H
	DD	01H
	DD	FLAT:__unwindtable$?GetPromotionInfo@CvDllGameContext@@UAGPAVICvPromotionInfo1@@W4PromotionTypes@@@Z
	DD	2 DUP(00H)
	DD	2 DUP(00H)
	DD	00H
	DD	01H
; Function compile flags: /Ogtpy
xdata$x	ENDS
;	COMDAT ?GetPromotionInfo@CvDllGameContext@@UAGPAVICvPromotionInfo1@@W4PromotionTypes@@@Z
_TEXT	SEGMENT
__$EHRec$ = -12						; size = 12
_this$ = 8						; size = 4
$T228219 = 12						; size = 4
_ePromotion$ = 12					; size = 4
?GetPromotionInfo@CvDllGameContext@@UAGPAVICvPromotionInfo1@@W4PromotionTypes@@@Z PROC ; CvDllGameContext::GetPromotionInfo, COMDAT

; 499  : {

	mov	eax, DWORD PTR fs:0
	push	-1
	push	__ehhandler$?GetPromotionInfo@CvDllGameContext@@UAGPAVICvPromotionInfo1@@W4PromotionTypes@@@Z
	push	eax
	mov	DWORD PTR fs:0, esp

; 500  : 	CvPromotionEntry* pkInfo = GC.getPromotionInfo(ePromotion);

	mov	eax, DWORD PTR _ePromotion$[esp+8]
	push	esi
	push	eax
	mov	ecx, OFFSET ?gGlobals@@3VCvGlobals@@A	; gGlobals
	call	?getPromotionInfo@CvGlobals@@QAEPAVCvPromotionEntry@@W4PromotionTypes@@@Z ; CvGlobals::getPromotionInfo
	mov	esi, eax

; 501  : 	return (NULL != pkInfo)? new CvDllPromotionInfo(pkInfo) : NULL;

	test	esi, esi
	je	SHORT $LN5@GetPromoti
	push	12					; 0000000cH
	call	??2CvDllPromotionInfo@@SAPAXI@Z		; CvDllPromotionInfo::operator new
	add	esp, 4
	mov	DWORD PTR $T228219[esp+12], eax
	mov	DWORD PTR __$EHRec$[esp+24], 0
	test	eax, eax
	je	SHORT $LN5@GetPromoti
	push	esi
	mov	ecx, eax
	call	??0CvDllPromotionInfo@@QAE@PAVCvPromotionEntry@@@Z ; CvDllPromotionInfo::CvDllPromotionInfo

; 502  : }

	mov	ecx, DWORD PTR __$EHRec$[esp+16]
	mov	DWORD PTR fs:0, ecx
	pop	esi
	add	esp, 12					; 0000000cH
	ret	8
$LN5@GetPromoti:
	mov	ecx, DWORD PTR __$EHRec$[esp+16]
	xor	eax, eax
	mov	DWORD PTR fs:0, ecx
	pop	esi
	add	esp, 12					; 0000000cH
	ret	8
_TEXT	ENDS
;	COMDAT text$x
text$x	SEGMENT
__unwindfunclet$?GetPromotionInfo@CvDllGameContext@@UAGPAVICvPromotionInfo1@@W4PromotionTypes@@@Z$0:
	mov	eax, DWORD PTR $T228219[ebp-4]
	push	eax
	call	??3CvDllPromotionInfo@@SAXPAX@Z		; CvDllPromotionInfo::operator delete
	pop	ecx
	ret	0
__ehhandler$?GetPromotionInfo@CvDllGameContext@@UAGPAVICvPromotionInfo1@@W4PromotionTypes@@@Z:
	mov	eax, OFFSET __ehfuncinfo$?GetPromotionInfo@CvDllGameContext@@UAGPAVICvPromotionInfo1@@W4PromotionTypes@@@Z
	jmp	___CxxFrameHandler3
text$x	ENDS
?GetPromotionInfo@CvDllGameContext@@UAGPAVICvPromotionInfo1@@W4PromotionTypes@@@Z ENDP ; CvDllGameContext::GetPromotionInfo
PUBLIC	?GetResourceInfo@CvDllGameContext@@UAGPAVICvResourceInfo1@@W4ResourceTypes@@@Z ; CvDllGameContext::GetResourceInfo
EXTRN	??3CvDllResourceInfo@@SAXPAX@Z:PROC		; CvDllResourceInfo::operator delete
EXTRN	??0CvDllResourceInfo@@QAE@PAVCvResourceInfo@@@Z:PROC ; CvDllResourceInfo::CvDllResourceInfo
EXTRN	??2CvDllResourceInfo@@SAPAXI@Z:PROC		; CvDllResourceInfo::operator new
EXTRN	?getResourceInfo@CvGlobals@@QAEPAVCvResourceInfo@@W4ResourceTypes@@@Z:PROC ; CvGlobals::getResourceInfo
;	COMDAT xdata$x
xdata$x	SEGMENT
__unwindtable$?GetResourceInfo@CvDllGameContext@@UAGPAVICvResourceInfo1@@W4ResourceTypes@@@Z DD 0ffffffffH
	DD	FLAT:__unwindfunclet$?GetResourceInfo@CvDllGameContext@@UAGPAVICvResourceInfo1@@W4ResourceTypes@@@Z$0
__ehfuncinfo$?GetResourceInfo@CvDllGameContext@@UAGPAVICvResourceInfo1@@W4ResourceTypes@@@Z DD 019930522H
	DD	01H
	DD	FLAT:__unwindtable$?GetResourceInfo@CvDllGameContext@@UAGPAVICvResourceInfo1@@W4ResourceTypes@@@Z
	DD	2 DUP(00H)
	DD	2 DUP(00H)
	DD	00H
	DD	01H
; Function compile flags: /Ogtpy
xdata$x	ENDS
;	COMDAT ?GetResourceInfo@CvDllGameContext@@UAGPAVICvResourceInfo1@@W4ResourceTypes@@@Z
_TEXT	SEGMENT
__$EHRec$ = -12						; size = 12
_this$ = 8						; size = 4
$T228235 = 12						; size = 4
_eResourceNum$ = 12					; size = 4
?GetResourceInfo@CvDllGameContext@@UAGPAVICvResourceInfo1@@W4ResourceTypes@@@Z PROC ; CvDllGameContext::GetResourceInfo, COMDAT

; 505  : {

	mov	eax, DWORD PTR fs:0
	push	-1
	push	__ehhandler$?GetResourceInfo@CvDllGameContext@@UAGPAVICvResourceInfo1@@W4ResourceTypes@@@Z
	push	eax
	mov	DWORD PTR fs:0, esp

; 506  : 	CvResourceInfo* pkInfo = GC.getResourceInfo(eResourceNum);

	mov	eax, DWORD PTR _eResourceNum$[esp+8]
	push	esi
	push	eax
	mov	ecx, OFFSET ?gGlobals@@3VCvGlobals@@A	; gGlobals
	call	?getResourceInfo@CvGlobals@@QAEPAVCvResourceInfo@@W4ResourceTypes@@@Z ; CvGlobals::getResourceInfo
	mov	esi, eax

; 507  : 	return (NULL != pkInfo)? new CvDllResourceInfo(pkInfo) : NULL;

	test	esi, esi
	je	SHORT $LN5@GetResourc
	push	12					; 0000000cH
	call	??2CvDllResourceInfo@@SAPAXI@Z		; CvDllResourceInfo::operator new
	add	esp, 4
	mov	DWORD PTR $T228235[esp+12], eax
	mov	DWORD PTR __$EHRec$[esp+24], 0
	test	eax, eax
	je	SHORT $LN5@GetResourc
	push	esi
	mov	ecx, eax
	call	??0CvDllResourceInfo@@QAE@PAVCvResourceInfo@@@Z ; CvDllResourceInfo::CvDllResourceInfo

; 508  : }

	mov	ecx, DWORD PTR __$EHRec$[esp+16]
	mov	DWORD PTR fs:0, ecx
	pop	esi
	add	esp, 12					; 0000000cH
	ret	8
$LN5@GetResourc:
	mov	ecx, DWORD PTR __$EHRec$[esp+16]
	xor	eax, eax
	mov	DWORD PTR fs:0, ecx
	pop	esi
	add	esp, 12					; 0000000cH
	ret	8
_TEXT	ENDS
;	COMDAT text$x
text$x	SEGMENT
__unwindfunclet$?GetResourceInfo@CvDllGameContext@@UAGPAVICvResourceInfo1@@W4ResourceTypes@@@Z$0:
	mov	eax, DWORD PTR $T228235[ebp-4]
	push	eax
	call	??3CvDllResourceInfo@@SAXPAX@Z		; CvDllResourceInfo::operator delete
	pop	ecx
	ret	0
__ehhandler$?GetResourceInfo@CvDllGameContext@@UAGPAVICvResourceInfo1@@W4ResourceTypes@@@Z:
	mov	eax, OFFSET __ehfuncinfo$?GetResourceInfo@CvDllGameContext@@UAGPAVICvResourceInfo1@@W4ResourceTypes@@@Z
	jmp	___CxxFrameHandler3
text$x	ENDS
?GetResourceInfo@CvDllGameContext@@UAGPAVICvResourceInfo1@@W4ResourceTypes@@@Z ENDP ; CvDllGameContext::GetResourceInfo
PUBLIC	?GetTechInfo@CvDllGameContext@@UAGPAVICvTechInfo1@@W4TechTypes@@@Z ; CvDllGameContext::GetTechInfo
EXTRN	??3CvDllTechInfo@@SAXPAX@Z:PROC			; CvDllTechInfo::operator delete
EXTRN	??0CvDllTechInfo@@QAE@PAVCvTechEntry@@@Z:PROC	; CvDllTechInfo::CvDllTechInfo
EXTRN	??2CvDllTechInfo@@SAPAXI@Z:PROC			; CvDllTechInfo::operator new
EXTRN	?getTechInfo@CvGlobals@@QAEPAVCvTechEntry@@W4TechTypes@@@Z:PROC ; CvGlobals::getTechInfo
;	COMDAT xdata$x
xdata$x	SEGMENT
__unwindtable$?GetTechInfo@CvDllGameContext@@UAGPAVICvTechInfo1@@W4TechTypes@@@Z DD 0ffffffffH
	DD	FLAT:__unwindfunclet$?GetTechInfo@CvDllGameContext@@UAGPAVICvTechInfo1@@W4TechTypes@@@Z$0
__ehfuncinfo$?GetTechInfo@CvDllGameContext@@UAGPAVICvTechInfo1@@W4TechTypes@@@Z DD 019930522H
	DD	01H
	DD	FLAT:__unwindtable$?GetTechInfo@CvDllGameContext@@UAGPAVICvTechInfo1@@W4TechTypes@@@Z
	DD	2 DUP(00H)
	DD	2 DUP(00H)
	DD	00H
	DD	01H
; Function compile flags: /Ogtpy
xdata$x	ENDS
;	COMDAT ?GetTechInfo@CvDllGameContext@@UAGPAVICvTechInfo1@@W4TechTypes@@@Z
_TEXT	SEGMENT
__$EHRec$ = -12						; size = 12
_this$ = 8						; size = 4
$T228251 = 12						; size = 4
_eTech$ = 12						; size = 4
?GetTechInfo@CvDllGameContext@@UAGPAVICvTechInfo1@@W4TechTypes@@@Z PROC ; CvDllGameContext::GetTechInfo, COMDAT

; 511  : {

	mov	eax, DWORD PTR fs:0
	push	-1
	push	__ehhandler$?GetTechInfo@CvDllGameContext@@UAGPAVICvTechInfo1@@W4TechTypes@@@Z
	push	eax
	mov	DWORD PTR fs:0, esp

; 512  : 	CvTechEntry* pkEntry = GC.getTechInfo(eTech);

	mov	eax, DWORD PTR _eTech$[esp+8]
	push	esi
	push	eax
	mov	ecx, OFFSET ?gGlobals@@3VCvGlobals@@A	; gGlobals
	call	?getTechInfo@CvGlobals@@QAEPAVCvTechEntry@@W4TechTypes@@@Z ; CvGlobals::getTechInfo
	mov	esi, eax

; 513  : 	return (NULL != pkEntry)? new CvDllTechInfo(pkEntry) : NULL;

	test	esi, esi
	je	SHORT $LN5@GetTechInf
	push	12					; 0000000cH
	call	??2CvDllTechInfo@@SAPAXI@Z		; CvDllTechInfo::operator new
	add	esp, 4
	mov	DWORD PTR $T228251[esp+12], eax
	mov	DWORD PTR __$EHRec$[esp+24], 0
	test	eax, eax
	je	SHORT $LN5@GetTechInf
	push	esi
	mov	ecx, eax
	call	??0CvDllTechInfo@@QAE@PAVCvTechEntry@@@Z ; CvDllTechInfo::CvDllTechInfo

; 514  : }

	mov	ecx, DWORD PTR __$EHRec$[esp+16]
	mov	DWORD PTR fs:0, ecx
	pop	esi
	add	esp, 12					; 0000000cH
	ret	8
$LN5@GetTechInf:
	mov	ecx, DWORD PTR __$EHRec$[esp+16]
	xor	eax, eax
	mov	DWORD PTR fs:0, ecx
	pop	esi
	add	esp, 12					; 0000000cH
	ret	8
_TEXT	ENDS
;	COMDAT text$x
text$x	SEGMENT
__unwindfunclet$?GetTechInfo@CvDllGameContext@@UAGPAVICvTechInfo1@@W4TechTypes@@@Z$0:
	mov	eax, DWORD PTR $T228251[ebp-4]
	push	eax
	call	??3CvDllTechInfo@@SAXPAX@Z		; CvDllTechInfo::operator delete
	pop	ecx
	ret	0
__ehhandler$?GetTechInfo@CvDllGameContext@@UAGPAVICvTechInfo1@@W4TechTypes@@@Z:
	mov	eax, OFFSET __ehfuncinfo$?GetTechInfo@CvDllGameContext@@UAGPAVICvTechInfo1@@W4TechTypes@@@Z
	jmp	___CxxFrameHandler3
text$x	ENDS
?GetTechInfo@CvDllGameContext@@UAGPAVICvTechInfo1@@W4TechTypes@@@Z ENDP ; CvDllGameContext::GetTechInfo
PUBLIC	?GetTerrainInfo@CvDllGameContext@@UAGPAVICvTerrainInfo1@@W4TerrainTypes@@@Z ; CvDllGameContext::GetTerrainInfo
EXTRN	??3CvDllTerrainInfo@@SAXPAX@Z:PROC		; CvDllTerrainInfo::operator delete
EXTRN	??0CvDllTerrainInfo@@QAE@PAVCvTerrainInfo@@@Z:PROC ; CvDllTerrainInfo::CvDllTerrainInfo
EXTRN	??2CvDllTerrainInfo@@SAPAXI@Z:PROC		; CvDllTerrainInfo::operator new
EXTRN	?getTerrainInfo@CvGlobals@@QAEPAVCvTerrainInfo@@W4TerrainTypes@@@Z:PROC ; CvGlobals::getTerrainInfo
;	COMDAT xdata$x
xdata$x	SEGMENT
__unwindtable$?GetTerrainInfo@CvDllGameContext@@UAGPAVICvTerrainInfo1@@W4TerrainTypes@@@Z DD 0ffffffffH
	DD	FLAT:__unwindfunclet$?GetTerrainInfo@CvDllGameContext@@UAGPAVICvTerrainInfo1@@W4TerrainTypes@@@Z$0
__ehfuncinfo$?GetTerrainInfo@CvDllGameContext@@UAGPAVICvTerrainInfo1@@W4TerrainTypes@@@Z DD 019930522H
	DD	01H
	DD	FLAT:__unwindtable$?GetTerrainInfo@CvDllGameContext@@UAGPAVICvTerrainInfo1@@W4TerrainTypes@@@Z
	DD	2 DUP(00H)
	DD	2 DUP(00H)
	DD	00H
	DD	01H
; Function compile flags: /Ogtpy
xdata$x	ENDS
;	COMDAT ?GetTerrainInfo@CvDllGameContext@@UAGPAVICvTerrainInfo1@@W4TerrainTypes@@@Z
_TEXT	SEGMENT
__$EHRec$ = -12						; size = 12
_this$ = 8						; size = 4
$T228267 = 12						; size = 4
_eTerrainNum$ = 12					; size = 4
?GetTerrainInfo@CvDllGameContext@@UAGPAVICvTerrainInfo1@@W4TerrainTypes@@@Z PROC ; CvDllGameContext::GetTerrainInfo, COMDAT

; 517  : {

	mov	eax, DWORD PTR fs:0
	push	-1
	push	__ehhandler$?GetTerrainInfo@CvDllGameContext@@UAGPAVICvTerrainInfo1@@W4TerrainTypes@@@Z
	push	eax
	mov	DWORD PTR fs:0, esp

; 518  : 	CvTerrainInfo* pkInfo = GC.getTerrainInfo(eTerrainNum);

	mov	eax, DWORD PTR _eTerrainNum$[esp+8]
	push	esi
	push	eax
	mov	ecx, OFFSET ?gGlobals@@3VCvGlobals@@A	; gGlobals
	call	?getTerrainInfo@CvGlobals@@QAEPAVCvTerrainInfo@@W4TerrainTypes@@@Z ; CvGlobals::getTerrainInfo
	mov	esi, eax

; 519  : 	return (NULL != pkInfo)? new CvDllTerrainInfo(pkInfo) : NULL;

	test	esi, esi
	je	SHORT $LN5@GetTerrain
	push	12					; 0000000cH
	call	??2CvDllTerrainInfo@@SAPAXI@Z		; CvDllTerrainInfo::operator new
	add	esp, 4
	mov	DWORD PTR $T228267[esp+12], eax
	mov	DWORD PTR __$EHRec$[esp+24], 0
	test	eax, eax
	je	SHORT $LN5@GetTerrain
	push	esi
	mov	ecx, eax
	call	??0CvDllTerrainInfo@@QAE@PAVCvTerrainInfo@@@Z ; CvDllTerrainInfo::CvDllTerrainInfo

; 520  : }

	mov	ecx, DWORD PTR __$EHRec$[esp+16]
	mov	DWORD PTR fs:0, ecx
	pop	esi
	add	esp, 12					; 0000000cH
	ret	8
$LN5@GetTerrain:
	mov	ecx, DWORD PTR __$EHRec$[esp+16]
	xor	eax, eax
	mov	DWORD PTR fs:0, ecx
	pop	esi
	add	esp, 12					; 0000000cH
	ret	8
_TEXT	ENDS
;	COMDAT text$x
text$x	SEGMENT
__unwindfunclet$?GetTerrainInfo@CvDllGameContext@@UAGPAVICvTerrainInfo1@@W4TerrainTypes@@@Z$0:
	mov	eax, DWORD PTR $T228267[ebp-4]
	push	eax
	call	??3CvDllTerrainInfo@@SAXPAX@Z		; CvDllTerrainInfo::operator delete
	pop	ecx
	ret	0
__ehhandler$?GetTerrainInfo@CvDllGameContext@@UAGPAVICvTerrainInfo1@@W4TerrainTypes@@@Z:
	mov	eax, OFFSET __ehfuncinfo$?GetTerrainInfo@CvDllGameContext@@UAGPAVICvTerrainInfo1@@W4TerrainTypes@@@Z
	jmp	___CxxFrameHandler3
text$x	ENDS
?GetTerrainInfo@CvDllGameContext@@UAGPAVICvTerrainInfo1@@W4TerrainTypes@@@Z ENDP ; CvDllGameContext::GetTerrainInfo
PUBLIC	?GetUnitInfo@CvDllGameContext@@UAGPAVICvUnitInfo1@@W4UnitTypes@@@Z ; CvDllGameContext::GetUnitInfo
EXTRN	??3CvDllUnitInfo@@SAXPAX@Z:PROC			; CvDllUnitInfo::operator delete
EXTRN	??0CvDllUnitInfo@@QAE@PAVCvUnitEntry@@@Z:PROC	; CvDllUnitInfo::CvDllUnitInfo
EXTRN	??2CvDllUnitInfo@@SAPAXI@Z:PROC			; CvDllUnitInfo::operator new
EXTRN	?getUnitInfo@CvGlobals@@QAEPAVCvUnitEntry@@W4UnitTypes@@@Z:PROC ; CvGlobals::getUnitInfo
;	COMDAT xdata$x
xdata$x	SEGMENT
__unwindtable$?GetUnitInfo@CvDllGameContext@@UAGPAVICvUnitInfo1@@W4UnitTypes@@@Z DD 0ffffffffH
	DD	FLAT:__unwindfunclet$?GetUnitInfo@CvDllGameContext@@UAGPAVICvUnitInfo1@@W4UnitTypes@@@Z$0
__ehfuncinfo$?GetUnitInfo@CvDllGameContext@@UAGPAVICvUnitInfo1@@W4UnitTypes@@@Z DD 019930522H
	DD	01H
	DD	FLAT:__unwindtable$?GetUnitInfo@CvDllGameContext@@UAGPAVICvUnitInfo1@@W4UnitTypes@@@Z
	DD	2 DUP(00H)
	DD	2 DUP(00H)
	DD	00H
	DD	01H
; Function compile flags: /Ogtpy
xdata$x	ENDS
;	COMDAT ?GetUnitInfo@CvDllGameContext@@UAGPAVICvUnitInfo1@@W4UnitTypes@@@Z
_TEXT	SEGMENT
__$EHRec$ = -12						; size = 12
_this$ = 8						; size = 4
$T228283 = 12						; size = 4
_eUnit$ = 12						; size = 4
?GetUnitInfo@CvDllGameContext@@UAGPAVICvUnitInfo1@@W4UnitTypes@@@Z PROC ; CvDllGameContext::GetUnitInfo, COMDAT

; 523  : {

	mov	eax, DWORD PTR fs:0
	push	-1
	push	__ehhandler$?GetUnitInfo@CvDllGameContext@@UAGPAVICvUnitInfo1@@W4UnitTypes@@@Z
	push	eax
	mov	DWORD PTR fs:0, esp

; 524  : 	CvUnitEntry* pkEntry = GC.getUnitInfo(eUnit);

	mov	eax, DWORD PTR _eUnit$[esp+8]
	push	esi
	push	eax
	mov	ecx, OFFSET ?gGlobals@@3VCvGlobals@@A	; gGlobals
	call	?getUnitInfo@CvGlobals@@QAEPAVCvUnitEntry@@W4UnitTypes@@@Z ; CvGlobals::getUnitInfo
	mov	esi, eax

; 525  : 	return (NULL != pkEntry)? new CvDllUnitInfo(pkEntry) : NULL;

	test	esi, esi
	je	SHORT $LN5@GetUnitInf
	push	12					; 0000000cH
	call	??2CvDllUnitInfo@@SAPAXI@Z		; CvDllUnitInfo::operator new
	add	esp, 4
	mov	DWORD PTR $T228283[esp+12], eax
	mov	DWORD PTR __$EHRec$[esp+24], 0
	test	eax, eax
	je	SHORT $LN5@GetUnitInf
	push	esi
	mov	ecx, eax
	call	??0CvDllUnitInfo@@QAE@PAVCvUnitEntry@@@Z ; CvDllUnitInfo::CvDllUnitInfo

; 526  : }

	mov	ecx, DWORD PTR __$EHRec$[esp+16]
	mov	DWORD PTR fs:0, ecx
	pop	esi
	add	esp, 12					; 0000000cH
	ret	8
$LN5@GetUnitInf:
	mov	ecx, DWORD PTR __$EHRec$[esp+16]
	xor	eax, eax
	mov	DWORD PTR fs:0, ecx
	pop	esi
	add	esp, 12					; 0000000cH
	ret	8
_TEXT	ENDS
;	COMDAT text$x
text$x	SEGMENT
__unwindfunclet$?GetUnitInfo@CvDllGameContext@@UAGPAVICvUnitInfo1@@W4UnitTypes@@@Z$0:
	mov	eax, DWORD PTR $T228283[ebp-4]
	push	eax
	call	??3CvDllUnitInfo@@SAXPAX@Z		; CvDllUnitInfo::operator delete
	pop	ecx
	ret	0
__ehhandler$?GetUnitInfo@CvDllGameContext@@UAGPAVICvUnitInfo1@@W4UnitTypes@@@Z:
	mov	eax, OFFSET __ehfuncinfo$?GetUnitInfo@CvDllGameContext@@UAGPAVICvUnitInfo1@@W4UnitTypes@@@Z
	jmp	___CxxFrameHandler3
text$x	ENDS
?GetUnitInfo@CvDllGameContext@@UAGPAVICvUnitInfo1@@W4UnitTypes@@@Z ENDP ; CvDllGameContext::GetUnitInfo
PUBLIC	?GetUnitCombatClassInfo@CvDllGameContext@@UAGPAVICvUnitCombatClassInfo1@@W4UnitCombatTypes@@@Z ; CvDllGameContext::GetUnitCombatClassInfo
EXTRN	??3CvDllUnitCombatClassInfo@@SAXPAX@Z:PROC	; CvDllUnitCombatClassInfo::operator delete
EXTRN	??0CvDllUnitCombatClassInfo@@QAE@PAVCvBaseInfo@@@Z:PROC ; CvDllUnitCombatClassInfo::CvDllUnitCombatClassInfo
EXTRN	??2CvDllUnitCombatClassInfo@@SAPAXI@Z:PROC	; CvDllUnitCombatClassInfo::operator new
EXTRN	?getUnitCombatClassInfo@CvGlobals@@QAEPAVCvBaseInfo@@W4UnitCombatTypes@@@Z:PROC ; CvGlobals::getUnitCombatClassInfo
;	COMDAT xdata$x
xdata$x	SEGMENT
__unwindtable$?GetUnitCombatClassInfo@CvDllGameContext@@UAGPAVICvUnitCombatClassInfo1@@W4UnitCombatTypes@@@Z DD 0ffffffffH
	DD	FLAT:__unwindfunclet$?GetUnitCombatClassInfo@CvDllGameContext@@UAGPAVICvUnitCombatClassInfo1@@W4UnitCombatTypes@@@Z$0
__ehfuncinfo$?GetUnitCombatClassInfo@CvDllGameContext@@UAGPAVICvUnitCombatClassInfo1@@W4UnitCombatTypes@@@Z DD 019930522H
	DD	01H
	DD	FLAT:__unwindtable$?GetUnitCombatClassInfo@CvDllGameContext@@UAGPAVICvUnitCombatClassInfo1@@W4UnitCombatTypes@@@Z
	DD	2 DUP(00H)
	DD	2 DUP(00H)
	DD	00H
	DD	01H
; Function compile flags: /Ogtpy
xdata$x	ENDS
;	COMDAT ?GetUnitCombatClassInfo@CvDllGameContext@@UAGPAVICvUnitCombatClassInfo1@@W4UnitCombatTypes@@@Z
_TEXT	SEGMENT
__$EHRec$ = -12						; size = 12
_this$ = 8						; size = 4
$T228299 = 12						; size = 4
_eUnitCombat$ = 12					; size = 4
?GetUnitCombatClassInfo@CvDllGameContext@@UAGPAVICvUnitCombatClassInfo1@@W4UnitCombatTypes@@@Z PROC ; CvDllGameContext::GetUnitCombatClassInfo, COMDAT

; 529  : {

	mov	eax, DWORD PTR fs:0
	push	-1
	push	__ehhandler$?GetUnitCombatClassInfo@CvDllGameContext@@UAGPAVICvUnitCombatClassInfo1@@W4UnitCombatTypes@@@Z
	push	eax
	mov	DWORD PTR fs:0, esp

; 530  : 	CvBaseInfo* pkEntry = GC.getUnitCombatClassInfo(eUnitCombat);

	mov	eax, DWORD PTR _eUnitCombat$[esp+8]
	push	esi
	push	eax
	mov	ecx, OFFSET ?gGlobals@@3VCvGlobals@@A	; gGlobals
	call	?getUnitCombatClassInfo@CvGlobals@@QAEPAVCvBaseInfo@@W4UnitCombatTypes@@@Z ; CvGlobals::getUnitCombatClassInfo
	mov	esi, eax

; 531  : 	return (NULL != pkEntry)? new CvDllUnitCombatClassInfo(pkEntry) : NULL;

	test	esi, esi
	je	SHORT $LN5@GetUnitCom
	push	12					; 0000000cH
	call	??2CvDllUnitCombatClassInfo@@SAPAXI@Z	; CvDllUnitCombatClassInfo::operator new
	add	esp, 4
	mov	DWORD PTR $T228299[esp+12], eax
	mov	DWORD PTR __$EHRec$[esp+24], 0
	test	eax, eax
	je	SHORT $LN5@GetUnitCom
	push	esi
	mov	ecx, eax
	call	??0CvDllUnitCombatClassInfo@@QAE@PAVCvBaseInfo@@@Z ; CvDllUnitCombatClassInfo::CvDllUnitCombatClassInfo

; 532  : }

	mov	ecx, DWORD PTR __$EHRec$[esp+16]
	mov	DWORD PTR fs:0, ecx
	pop	esi
	add	esp, 12					; 0000000cH
	ret	8
$LN5@GetUnitCom:
	mov	ecx, DWORD PTR __$EHRec$[esp+16]
	xor	eax, eax
	mov	DWORD PTR fs:0, ecx
	pop	esi
	add	esp, 12					; 0000000cH
	ret	8
_TEXT	ENDS
;	COMDAT text$x
text$x	SEGMENT
__unwindfunclet$?GetUnitCombatClassInfo@CvDllGameContext@@UAGPAVICvUnitCombatClassInfo1@@W4UnitCombatTypes@@@Z$0:
	mov	eax, DWORD PTR $T228299[ebp-4]
	push	eax
	call	??3CvDllUnitCombatClassInfo@@SAXPAX@Z	; CvDllUnitCombatClassInfo::operator delete
	pop	ecx
	ret	0
__ehhandler$?GetUnitCombatClassInfo@CvDllGameContext@@UAGPAVICvUnitCombatClassInfo1@@W4UnitCombatTypes@@@Z:
	mov	eax, OFFSET __ehfuncinfo$?GetUnitCombatClassInfo@CvDllGameContext@@UAGPAVICvUnitCombatClassInfo1@@W4UnitCombatTypes@@@Z
	jmp	___CxxFrameHandler3
text$x	ENDS
?GetUnitCombatClassInfo@CvDllGameContext@@UAGPAVICvUnitCombatClassInfo1@@W4UnitCombatTypes@@@Z ENDP ; CvDllGameContext::GetUnitCombatClassInfo
PUBLIC	??_7bad_alloc@std@@6B@				; std::bad_alloc::`vftable'
PUBLIC	??0bad_alloc@std@@QAE@PBD@Z			; std::bad_alloc::bad_alloc
PUBLIC	??_R4bad_alloc@std@@6B@				; std::bad_alloc::`RTTI Complete Object Locator'
PUBLIC	??_R0?AVbad_alloc@std@@@8			; std::bad_alloc `RTTI Type Descriptor'
PUBLIC	??_R3bad_alloc@std@@8				; std::bad_alloc::`RTTI Class Hierarchy Descriptor'
PUBLIC	??_R2bad_alloc@std@@8				; std::bad_alloc::`RTTI Base Class Array'
PUBLIC	??_R1A@?0A@EA@bad_alloc@std@@8			; std::bad_alloc::`RTTI Base Class Descriptor at (0,-1,0,64)'
PUBLIC	??_R1A@?0A@EA@exception@std@@8			; std::exception::`RTTI Base Class Descriptor at (0,-1,0,64)'
PUBLIC	??_R0?AVexception@std@@@8			; std::exception `RTTI Type Descriptor'
PUBLIC	??_R3exception@std@@8				; std::exception::`RTTI Class Hierarchy Descriptor'
PUBLIC	??_R2exception@std@@8				; std::exception::`RTTI Base Class Array'
EXTRN	__imp_??0exception@std@@QAE@ABQBD@Z:PROC
EXTRN	??_Ebad_alloc@std@@UAEPAXI@Z:PROC		; std::bad_alloc::`vector deleting destructor'
EXTRN	?what@exception@std@@UBEPBDXZ:PROC		; std::exception::what
;	COMDAT ??_R2exception@std@@8
; File c:\program files (x86)\microsoft visual studio 9.0\vc\include\exception
rdata$r	SEGMENT
??_R2exception@std@@8 DD FLAT:??_R1A@?0A@EA@exception@std@@8 ; std::exception::`RTTI Base Class Array'
rdata$r	ENDS
;	COMDAT ??_R3exception@std@@8
rdata$r	SEGMENT
??_R3exception@std@@8 DD 00H				; std::exception::`RTTI Class Hierarchy Descriptor'
	DD	00H
	DD	01H
	DD	FLAT:??_R2exception@std@@8
rdata$r	ENDS
;	COMDAT ??_R0?AVexception@std@@@8
_DATA	SEGMENT
??_R0?AVexception@std@@@8 DD FLAT:??_7type_info@@6B@	; std::exception `RTTI Type Descriptor'
	DD	00H
	DB	'.?AVexception@std@@', 00H
_DATA	ENDS
;	COMDAT ??_R1A@?0A@EA@exception@std@@8
rdata$r	SEGMENT
??_R1A@?0A@EA@exception@std@@8 DD FLAT:??_R0?AVexception@std@@@8 ; std::exception::`RTTI Base Class Descriptor at (0,-1,0,64)'
	DD	00H
	DD	00H
	DD	0ffffffffH
	DD	00H
	DD	040H
	DD	FLAT:??_R3exception@std@@8
rdata$r	ENDS
;	COMDAT ??_R1A@?0A@EA@bad_alloc@std@@8
rdata$r	SEGMENT
??_R1A@?0A@EA@bad_alloc@std@@8 DD FLAT:??_R0?AVbad_alloc@std@@@8 ; std::bad_alloc::`RTTI Base Class Descriptor at (0,-1,0,64)'
	DD	01H
	DD	00H
	DD	0ffffffffH
	DD	00H
	DD	040H
	DD	FLAT:??_R3bad_alloc@std@@8
rdata$r	ENDS
;	COMDAT ??_R2bad_alloc@std@@8
rdata$r	SEGMENT
??_R2bad_alloc@std@@8 DD FLAT:??_R1A@?0A@EA@bad_alloc@std@@8 ; std::bad_alloc::`RTTI Base Class Array'
	DD	FLAT:??_R1A@?0A@EA@exception@std@@8
rdata$r	ENDS
;	COMDAT ??_R3bad_alloc@std@@8
rdata$r	SEGMENT
??_R3bad_alloc@std@@8 DD 00H				; std::bad_alloc::`RTTI Class Hierarchy Descriptor'
	DD	00H
	DD	02H
	DD	FLAT:??_R2bad_alloc@std@@8
rdata$r	ENDS
;	COMDAT ??_R0?AVbad_alloc@std@@@8
_DATA	SEGMENT
??_R0?AVbad_alloc@std@@@8 DD FLAT:??_7type_info@@6B@	; std::bad_alloc `RTTI Type Descriptor'
	DD	00H
	DB	'.?AVbad_alloc@std@@', 00H
_DATA	ENDS
;	COMDAT ??_R4bad_alloc@std@@6B@
rdata$r	SEGMENT
??_R4bad_alloc@std@@6B@ DD 00H				; std::bad_alloc::`RTTI Complete Object Locator'
	DD	00H
	DD	00H
	DD	FLAT:??_R0?AVbad_alloc@std@@@8
	DD	FLAT:??_R3bad_alloc@std@@8
rdata$r	ENDS
;	COMDAT ??_7bad_alloc@std@@6B@
CONST	SEGMENT
??_7bad_alloc@std@@6B@ DD FLAT:??_R4bad_alloc@std@@6B@	; std::bad_alloc::`vftable'
	DD	FLAT:??_Ebad_alloc@std@@UAEPAXI@Z
	DD	FLAT:?what@exception@std@@UBEPBDXZ
; Function compile flags: /Ogtpy
CONST	ENDS
;	COMDAT ??0bad_alloc@std@@QAE@PBD@Z
_TEXT	SEGMENT
__Message$ = 8						; size = 4
??0bad_alloc@std@@QAE@PBD@Z PROC			; std::bad_alloc::bad_alloc, COMDAT
; _this$ = ecx

; 371  : 		{	// construct from message string

	push	esi
	lea	eax, DWORD PTR __Message$[esp]
	push	eax
	mov	esi, ecx
	call	DWORD PTR __imp_??0exception@std@@QAE@ABQBD@Z
	mov	DWORD PTR [esi], OFFSET ??_7bad_alloc@std@@6B@

; 372  : 		}

	mov	eax, esi
	pop	esi
	ret	4
??0bad_alloc@std@@QAE@PBD@Z ENDP			; std::bad_alloc::bad_alloc
_TEXT	ENDS
PUBLIC	?GetVictoryInfo@CvDllGameContext@@UAGPAVICvVictoryInfo1@@W4VictoryTypes@@@Z ; CvDllGameContext::GetVictoryInfo
EXTRN	??3CvDllVictoryInfo@@SAXPAX@Z:PROC		; CvDllVictoryInfo::operator delete
EXTRN	??0CvDllVictoryInfo@@QAE@PAVCvVictoryInfo@@@Z:PROC ; CvDllVictoryInfo::CvDllVictoryInfo
EXTRN	??2CvDllVictoryInfo@@SAPAXI@Z:PROC		; CvDllVictoryInfo::operator new
EXTRN	?getVictoryInfo@CvGlobals@@QAEPAVCvVictoryInfo@@W4VictoryTypes@@@Z:PROC ; CvGlobals::getVictoryInfo
;	COMDAT xdata$x
; File c:\users\enormousapplepie\documents\github\lekmod\lekmod_dll\cvgamecoredll_expansion2\cvdllcontext.cpp
xdata$x	SEGMENT
__unwindtable$?GetVictoryInfo@CvDllGameContext@@UAGPAVICvVictoryInfo1@@W4VictoryTypes@@@Z DD 0ffffffffH
	DD	FLAT:__unwindfunclet$?GetVictoryInfo@CvDllGameContext@@UAGPAVICvVictoryInfo1@@W4VictoryTypes@@@Z$0
__ehfuncinfo$?GetVictoryInfo@CvDllGameContext@@UAGPAVICvVictoryInfo1@@W4VictoryTypes@@@Z DD 019930522H
	DD	01H
	DD	FLAT:__unwindtable$?GetVictoryInfo@CvDllGameContext@@UAGPAVICvVictoryInfo1@@W4VictoryTypes@@@Z
	DD	2 DUP(00H)
	DD	2 DUP(00H)
	DD	00H
	DD	01H
; Function compile flags: /Ogtpy
xdata$x	ENDS
;	COMDAT ?GetVictoryInfo@CvDllGameContext@@UAGPAVICvVictoryInfo1@@W4VictoryTypes@@@Z
_TEXT	SEGMENT
__$EHRec$ = -12						; size = 12
_this$ = 8						; size = 4
$T228318 = 12						; size = 4
_eVictoryType$ = 12					; size = 4
?GetVictoryInfo@CvDllGameContext@@UAGPAVICvVictoryInfo1@@W4VictoryTypes@@@Z PROC ; CvDllGameContext::GetVictoryInfo, COMDAT

; 535  : {

	mov	eax, DWORD PTR fs:0
	push	-1
	push	__ehhandler$?GetVictoryInfo@CvDllGameContext@@UAGPAVICvVictoryInfo1@@W4VictoryTypes@@@Z
	push	eax
	mov	DWORD PTR fs:0, esp

; 536  : 	CvVictoryInfo* pkEntry = GC.getVictoryInfo(eVictoryType);

	mov	eax, DWORD PTR _eVictoryType$[esp+8]
	push	esi
	push	eax
	mov	ecx, OFFSET ?gGlobals@@3VCvGlobals@@A	; gGlobals
	call	?getVictoryInfo@CvGlobals@@QAEPAVCvVictoryInfo@@W4VictoryTypes@@@Z ; CvGlobals::getVictoryInfo
	mov	esi, eax

; 537  : 	return (NULL != pkEntry)? new CvDllVictoryInfo(pkEntry) : NULL;

	test	esi, esi
	je	SHORT $LN5@GetVictory
	push	12					; 0000000cH
	call	??2CvDllVictoryInfo@@SAPAXI@Z		; CvDllVictoryInfo::operator new
	add	esp, 4
	mov	DWORD PTR $T228318[esp+12], eax
	mov	DWORD PTR __$EHRec$[esp+24], 0
	test	eax, eax
	je	SHORT $LN5@GetVictory
	push	esi
	mov	ecx, eax
	call	??0CvDllVictoryInfo@@QAE@PAVCvVictoryInfo@@@Z ; CvDllVictoryInfo::CvDllVictoryInfo

; 538  : }

	mov	ecx, DWORD PTR __$EHRec$[esp+16]
	mov	DWORD PTR fs:0, ecx
	pop	esi
	add	esp, 12					; 0000000cH
	ret	8
$LN5@GetVictory:
	mov	ecx, DWORD PTR __$EHRec$[esp+16]
	xor	eax, eax
	mov	DWORD PTR fs:0, ecx
	pop	esi
	add	esp, 12					; 0000000cH
	ret	8
_TEXT	ENDS
;	COMDAT text$x
text$x	SEGMENT
__unwindfunclet$?GetVictoryInfo@CvDllGameContext@@UAGPAVICvVictoryInfo1@@W4VictoryTypes@@@Z$0:
	mov	eax, DWORD PTR $T228318[ebp-4]
	push	eax
	call	??3CvDllVictoryInfo@@SAXPAX@Z		; CvDllVictoryInfo::operator delete
	pop	ecx
	ret	0
__ehhandler$?GetVictoryInfo@CvDllGameContext@@UAGPAVICvVictoryInfo1@@W4VictoryTypes@@@Z:
	mov	eax, OFFSET __ehfuncinfo$?GetVictoryInfo@CvDllGameContext@@UAGPAVICvVictoryInfo1@@W4VictoryTypes@@@Z
	jmp	___CxxFrameHandler3
text$x	ENDS
?GetVictoryInfo@CvDllGameContext@@UAGPAVICvVictoryInfo1@@W4VictoryTypes@@@Z ENDP ; CvDllGameContext::GetVictoryInfo
PUBLIC	??1bad_alloc@std@@UAE@XZ			; std::bad_alloc::~bad_alloc
EXTRN	__imp_??1exception@std@@UAE@XZ:PROC
; Function compile flags: /Ogtpy
; File c:\program files (x86)\microsoft visual studio 9.0\vc\include\exception
;	COMDAT ??1bad_alloc@std@@UAE@XZ
_TEXT	SEGMENT
??1bad_alloc@std@@UAE@XZ PROC				; std::bad_alloc::~bad_alloc, COMDAT
; _this$ = ecx

; 380  : 		{	// destroy the object

	mov	DWORD PTR [ecx], OFFSET ??_7bad_alloc@std@@6B@

; 381  : 		}

	jmp	DWORD PTR __imp_??1exception@std@@UAE@XZ
??1bad_alloc@std@@UAE@XZ ENDP				; std::bad_alloc::~bad_alloc
_TEXT	ENDS
EXTRN	??3@YAXPAX@Z:PROC				; operator delete
; Function compile flags: /Ogtpy
;	COMDAT ??_Gbad_alloc@std@@UAEPAXI@Z
_TEXT	SEGMENT
___flags$ = 8						; size = 4
??_Gbad_alloc@std@@UAEPAXI@Z PROC			; std::bad_alloc::`scalar deleting destructor', COMDAT
; _this$ = ecx
	push	esi
	mov	esi, ecx
	mov	DWORD PTR [esi], OFFSET ??_7bad_alloc@std@@6B@
	call	DWORD PTR __imp_??1exception@std@@UAE@XZ
	test	BYTE PTR ___flags$[esp], 1
	je	SHORT $LN6@scalar@7
	push	esi
	call	??3@YAXPAX@Z				; operator delete
	add	esp, 4
$LN6@scalar@7:
	mov	eax, esi
	pop	esi
	ret	4
??_Gbad_alloc@std@@UAEPAXI@Z ENDP			; std::bad_alloc::`scalar deleting destructor'
_TEXT	ENDS
PUBLIC	??2@YAPAXIPAX@Z					; operator new
; Function compile flags: /Ogtpy
; File c:\program files (x86)\microsoft visual studio 9.0\vc\include\new
;	COMDAT ??2@YAPAXIPAX@Z
_TEXT	SEGMENT
___formal$ = 8						; size = 4
__Where$ = 12						; size = 4
??2@YAPAXIPAX@Z PROC					; operator new, COMDAT

; 59   : 	return (_Where);

	mov	eax, DWORD PTR __Where$[esp-4]

; 60   : 	}

	ret	0
??2@YAPAXIPAX@Z ENDP					; operator new
_TEXT	ENDS
PUBLIC	?GetNUM_CITY_PLOTS@CvDllGameContext@@UBGHXZ	; CvDllGameContext::GetNUM_CITY_PLOTS
; Function compile flags: /Ogtpy
; File c:\users\enormousapplepie\documents\github\lekmod\lekmod_dll\cvgamecoredll_expansion2\cvdllcontext.cpp
;	COMDAT ?GetNUM_CITY_PLOTS@CvDllGameContext@@UBGHXZ
_TEXT	SEGMENT
_this$ = 8						; size = 4
?GetNUM_CITY_PLOTS@CvDllGameContext@@UBGHXZ PROC	; CvDllGameContext::GetNUM_CITY_PLOTS, COMDAT

; 667  : 	return NUM_CITY_PLOTS;

	mov	eax, 37					; 00000025H

; 668  : }

	ret	4
?GetNUM_CITY_PLOTS@CvDllGameContext@@UBGHXZ ENDP	; CvDllGameContext::GetNUM_CITY_PLOTS
_TEXT	ENDS
PUBLIC	?GetHexDebugLayerNames@CvDllGameContext@@UAGPAPBDXZ ; CvDllGameContext::GetHexDebugLayerNames
EXTRN	?GetHexDebugLayerNames@CvGlobals@@QAEPAPBDXZ:PROC ; CvGlobals::GetHexDebugLayerNames
; Function compile flags: /Ogtpy
;	COMDAT ?GetHexDebugLayerNames@CvDllGameContext@@UAGPAPBDXZ
_TEXT	SEGMENT
_this$ = 8						; size = 4
?GetHexDebugLayerNames@CvDllGameContext@@UAGPAPBDXZ PROC ; CvDllGameContext::GetHexDebugLayerNames, COMDAT

; 672  : 	return GC.GetHexDebugLayerNames();

	mov	ecx, OFFSET ?gGlobals@@3VCvGlobals@@A	; gGlobals
	call	?GetHexDebugLayerNames@CvGlobals@@QAEPAPBDXZ ; CvGlobals::GetHexDebugLayerNames

; 673  : }

	ret	4
?GetHexDebugLayerNames@CvDllGameContext@@UAGPAPBDXZ ENDP ; CvDllGameContext::GetHexDebugLayerNames
_TEXT	ENDS
PUBLIC	?GetHexDebugLayerScale@CvDllGameContext@@UAGMPBD@Z ; CvDllGameContext::GetHexDebugLayerScale
EXTRN	?GetHexDebugLayerScale@CvGlobals@@QAEMPBD@Z:PROC ; CvGlobals::GetHexDebugLayerScale
EXTRN	__fltused:DWORD
; Function compile flags: /Ogtpy
;	COMDAT ?GetHexDebugLayerScale@CvDllGameContext@@UAGMPBD@Z
_TEXT	SEGMENT
_this$ = 8						; size = 4
_szLayerName$ = 12					; size = 4
?GetHexDebugLayerScale@CvDllGameContext@@UAGMPBD@Z PROC	; CvDllGameContext::GetHexDebugLayerScale, COMDAT

; 677  : 	return GC.GetHexDebugLayerScale(szLayerName);

	mov	eax, DWORD PTR _szLayerName$[esp-4]
	push	eax
	mov	ecx, OFFSET ?gGlobals@@3VCvGlobals@@A	; gGlobals
	call	?GetHexDebugLayerScale@CvGlobals@@QAEMPBD@Z ; CvGlobals::GetHexDebugLayerScale

; 678  : }

	ret	8
?GetHexDebugLayerScale@CvDllGameContext@@UAGMPBD@Z ENDP	; CvDllGameContext::GetHexDebugLayerScale
_TEXT	ENDS
PUBLIC	?GetHexDebugLayerString@CvDllGameContext@@UAG_NPAVICvPlot1@@PBDW4PlayerTypes@@PADI@Z ; CvDllGameContext::GetHexDebugLayerString
EXTRN	?GetHexDebugLayerString@CvGlobals@@QAE_NPAVCvPlot@@PBDW4PlayerTypes@@PADI@Z:PROC ; CvGlobals::GetHexDebugLayerString
EXTRN	?GetInstance@CvDllPlot@@QAEPAVCvPlot@@XZ:PROC	; CvDllPlot::GetInstance
; Function compile flags: /Ogtpy
;	COMDAT ?GetHexDebugLayerString@CvDllGameContext@@UAG_NPAVICvPlot1@@PBDW4PlayerTypes@@PADI@Z
_TEXT	SEGMENT
_this$ = 8						; size = 4
_pPlot$ = 12						; size = 4
_szLayerName$ = 16					; size = 4
_ePlayer$ = 20						; size = 4
_szBuffer$ = 24						; size = 4
_uiBufferLength$ = 28					; size = 4
?GetHexDebugLayerString@CvDllGameContext@@UAG_NPAVICvPlot1@@PBDW4PlayerTypes@@PADI@Z PROC ; CvDllGameContext::GetHexDebugLayerString, COMDAT

; 682  : 	CvPlot* pkPlot = (NULL != pPlot)? static_cast<CvDllPlot*>(pPlot)->GetInstance() : NULL;

	mov	ecx, DWORD PTR _pPlot$[esp-4]
	test	ecx, ecx
	je	SHORT $LN1@GetHexDebu
	call	?GetInstance@CvDllPlot@@QAEPAVCvPlot@@XZ ; CvDllPlot::GetInstance

; 683  : 	if(pkPlot != NULL)

	test	eax, eax
	je	SHORT $LN1@GetHexDebu

; 684  : 	{
; 685  : 		return GC.GetHexDebugLayerString(pkPlot, szLayerName, ePlayer, szBuffer, uiBufferLength);

	mov	ecx, DWORD PTR _uiBufferLength$[esp-4]
	mov	edx, DWORD PTR _szBuffer$[esp-4]
	push	ecx
	mov	ecx, DWORD PTR _ePlayer$[esp]
	push	edx
	mov	edx, DWORD PTR _szLayerName$[esp+4]
	push	ecx
	push	edx
	push	eax
	mov	ecx, OFFSET ?gGlobals@@3VCvGlobals@@A	; gGlobals
	call	?GetHexDebugLayerString@CvGlobals@@QAE_NPAVCvPlot@@PBDW4PlayerTypes@@PADI@Z ; CvGlobals::GetHexDebugLayerString

; 689  : }

	ret	24					; 00000018H
$LN1@GetHexDebu:

; 686  : 	}
; 687  : 
; 688  : 	return false;

	xor	al, al

; 689  : }

	ret	24					; 00000018H
?GetHexDebugLayerString@CvDllGameContext@@UAG_NPAVICvPlot1@@PBDW4PlayerTypes@@PADI@Z ENDP ; CvDllGameContext::GetHexDebugLayerString
_TEXT	ENDS
PUBLIC	?Init@CvDllGameContext@@UAGXXZ			; CvDllGameContext::Init
EXTRN	?init@CvGlobals@@QAEXXZ:PROC			; CvGlobals::init
; Function compile flags: /Ogtpy
;	COMDAT ?Init@CvDllGameContext@@UAGXXZ
_TEXT	SEGMENT
_this$ = 8						; size = 4
?Init@CvDllGameContext@@UAGXXZ PROC			; CvDllGameContext::Init, COMDAT

; 693  : 	GC.init();

	mov	ecx, OFFSET ?gGlobals@@3VCvGlobals@@A	; gGlobals
	call	?init@CvGlobals@@QAEXXZ			; CvGlobals::init

; 694  : }

	ret	4
?Init@CvDllGameContext@@UAGXXZ ENDP			; CvDllGameContext::Init
_TEXT	ENDS
PUBLIC	??_7logic_error@std@@6B@			; std::logic_error::`vftable'
PUBLIC	??0logic_error@std@@QAE@ABV?$basic_string@DU?$char_traits@D@std@@V?$allocator@D@2@@1@@Z ; std::logic_error::logic_error
PUBLIC	??_R4logic_error@std@@6B@			; std::logic_error::`RTTI Complete Object Locator'
PUBLIC	??_R0?AVlogic_error@std@@@8			; std::logic_error `RTTI Type Descriptor'
PUBLIC	??_R3logic_error@std@@8				; std::logic_error::`RTTI Class Hierarchy Descriptor'
PUBLIC	??_R2logic_error@std@@8				; std::logic_error::`RTTI Base Class Array'
PUBLIC	??_R1A@?0A@EA@logic_error@std@@8		; std::logic_error::`RTTI Base Class Descriptor at (0,-1,0,64)'
PUBLIC	?what@logic_error@std@@UBEPBDXZ			; std::logic_error::what
EXTRN	__imp_??0?$basic_string@DU?$char_traits@D@std@@V?$allocator@D@2@@std@@QAE@ABV01@@Z:PROC
EXTRN	__imp_??0exception@std@@QAE@XZ:PROC
EXTRN	??_Elogic_error@std@@UAEPAXI@Z:PROC		; std::logic_error::`vector deleting destructor'
;	COMDAT ??_R1A@?0A@EA@logic_error@std@@8
; File c:\program files (x86)\microsoft visual studio 9.0\vc\include\stdexcept
rdata$r	SEGMENT
??_R1A@?0A@EA@logic_error@std@@8 DD FLAT:??_R0?AVlogic_error@std@@@8 ; std::logic_error::`RTTI Base Class Descriptor at (0,-1,0,64)'
	DD	01H
	DD	00H
	DD	0ffffffffH
	DD	00H
	DD	040H
	DD	FLAT:??_R3logic_error@std@@8
rdata$r	ENDS
;	COMDAT ??_R2logic_error@std@@8
rdata$r	SEGMENT
??_R2logic_error@std@@8 DD FLAT:??_R1A@?0A@EA@logic_error@std@@8 ; std::logic_error::`RTTI Base Class Array'
	DD	FLAT:??_R1A@?0A@EA@exception@std@@8
rdata$r	ENDS
;	COMDAT ??_R3logic_error@std@@8
rdata$r	SEGMENT
??_R3logic_error@std@@8 DD 00H				; std::logic_error::`RTTI Class Hierarchy Descriptor'
	DD	00H
	DD	02H
	DD	FLAT:??_R2logic_error@std@@8
rdata$r	ENDS
;	COMDAT ??_R0?AVlogic_error@std@@@8
_DATA	SEGMENT
??_R0?AVlogic_error@std@@@8 DD FLAT:??_7type_info@@6B@	; std::logic_error `RTTI Type Descriptor'
	DD	00H
	DB	'.?AVlogic_error@std@@', 00H
_DATA	ENDS
;	COMDAT ??_R4logic_error@std@@6B@
rdata$r	SEGMENT
??_R4logic_error@std@@6B@ DD 00H			; std::logic_error::`RTTI Complete Object Locator'
	DD	00H
	DD	00H
	DD	FLAT:??_R0?AVlogic_error@std@@@8
	DD	FLAT:??_R3logic_error@std@@8
rdata$r	ENDS
;	COMDAT ??_7logic_error@std@@6B@
CONST	SEGMENT
??_7logic_error@std@@6B@ DD FLAT:??_R4logic_error@std@@6B@ ; std::logic_error::`vftable'
	DD	FLAT:??_Elogic_error@std@@UAEPAXI@Z
	DD	FLAT:?what@logic_error@std@@UBEPBDXZ
CONST	ENDS
;	COMDAT xdata$x
xdata$x	SEGMENT
__unwindtable$??0logic_error@std@@QAE@ABV?$basic_string@DU?$char_traits@D@std@@V?$allocator@D@2@@1@@Z DD 0ffffffffH
	DD	FLAT:__unwindfunclet$??0logic_error@std@@QAE@ABV?$basic_string@DU?$char_traits@D@std@@V?$allocator@D@2@@1@@Z$0
__ehfuncinfo$??0logic_error@std@@QAE@ABV?$basic_string@DU?$char_traits@D@std@@V?$allocator@D@2@@1@@Z DD 019930522H
	DD	01H
	DD	FLAT:__unwindtable$??0logic_error@std@@QAE@ABV?$basic_string@DU?$char_traits@D@std@@V?$allocator@D@2@@1@@Z
	DD	2 DUP(00H)
	DD	2 DUP(00H)
	DD	00H
	DD	01H
; Function compile flags: /Ogtpy
xdata$x	ENDS
;	COMDAT ??0logic_error@std@@QAE@ABV?$basic_string@DU?$char_traits@D@std@@V?$allocator@D@2@@1@@Z
_TEXT	SEGMENT
_this$ = -16						; size = 4
__$EHRec$ = -12						; size = 12
__Message$ = 8						; size = 4
??0logic_error@std@@QAE@ABV?$basic_string@DU?$char_traits@D@std@@V?$allocator@D@2@@1@@Z PROC ; std::logic_error::logic_error, COMDAT
; _this$ = ecx

; 26   : 		{	// construct from message string

	push	-1
	push	__ehhandler$??0logic_error@std@@QAE@ABV?$basic_string@DU?$char_traits@D@std@@V?$allocator@D@2@@1@@Z
	mov	eax, DWORD PTR fs:0
	push	eax
	mov	DWORD PTR fs:0, esp
	push	ecx
	push	esi
	mov	esi, ecx
	mov	DWORD PTR _this$[esp+20], esi
	call	DWORD PTR __imp_??0exception@std@@QAE@XZ
	mov	eax, DWORD PTR __Message$[esp+16]
	push	eax
	lea	ecx, DWORD PTR [esi+12]
	mov	DWORD PTR __$EHRec$[esp+32], 0
	mov	DWORD PTR [esi], OFFSET ??_7logic_error@std@@6B@
	call	DWORD PTR __imp_??0?$basic_string@DU?$char_traits@D@std@@V?$allocator@D@2@@std@@QAE@ABV01@@Z

; 27   : 		}

	mov	ecx, DWORD PTR __$EHRec$[esp+20]
	mov	eax, esi
	pop	esi
	mov	DWORD PTR fs:0, ecx
	add	esp, 16					; 00000010H
	ret	4
_TEXT	ENDS
;	COMDAT text$x
text$x	SEGMENT
__unwindfunclet$??0logic_error@std@@QAE@ABV?$basic_string@DU?$char_traits@D@std@@V?$allocator@D@2@@1@@Z$0:
	mov	ecx, DWORD PTR _this$[ebp]
	jmp	DWORD PTR __imp_??1exception@std@@UAE@XZ
__ehhandler$??0logic_error@std@@QAE@ABV?$basic_string@DU?$char_traits@D@std@@V?$allocator@D@2@@1@@Z:
	mov	eax, OFFSET __ehfuncinfo$??0logic_error@std@@QAE@ABV?$basic_string@DU?$char_traits@D@std@@V?$allocator@D@2@@1@@Z
	jmp	___CxxFrameHandler3
text$x	ENDS
??0logic_error@std@@QAE@ABV?$basic_string@DU?$char_traits@D@std@@V?$allocator@D@2@@1@@Z ENDP ; std::logic_error::logic_error
PUBLIC	?Uninit@CvDllGameContext@@UAGXXZ		; CvDllGameContext::Uninit
EXTRN	?uninit@CvGlobals@@QAEXXZ:PROC			; CvGlobals::uninit
; Function compile flags: /Ogtpy
; File c:\users\enormousapplepie\documents\github\lekmod\lekmod_dll\cvgamecoredll_expansion2\cvdllcontext.cpp
;	COMDAT ?Uninit@CvDllGameContext@@UAGXXZ
_TEXT	SEGMENT
_this$ = 8						; size = 4
?Uninit@CvDllGameContext@@UAGXXZ PROC			; CvDllGameContext::Uninit, COMDAT

; 698  : 	GC.uninit();

	mov	ecx, OFFSET ?gGlobals@@3VCvGlobals@@A	; gGlobals
	call	?uninit@CvGlobals@@QAEXXZ		; CvGlobals::uninit

; 699  : }

	ret	4
?Uninit@CvDllGameContext@@UAGXXZ ENDP			; CvDllGameContext::Uninit
_TEXT	ENDS
PUBLIC	?GetScriptSystemUtility@CvDllGameContext@@UAGPAVICvScriptSystemUtility1@@XZ ; CvDllGameContext::GetScriptSystemUtility
; Function compile flags: /Ogtpy
;	COMDAT ?GetScriptSystemUtility@CvDllGameContext@@UAGPAVICvScriptSystemUtility1@@XZ
_TEXT	SEGMENT
_this$ = 8						; size = 4
?GetScriptSystemUtility@CvDllGameContext@@UAGPAVICvScriptSystemUtility1@@XZ PROC ; CvDllGameContext::GetScriptSystemUtility, COMDAT

; 703  : 	return m_pScriptSystemUtility;

	mov	eax, DWORD PTR _this$[esp-4]
	mov	eax, DWORD PTR [eax+12]

; 704  : }

	ret	4
?GetScriptSystemUtility@CvDllGameContext@@UAGPAVICvScriptSystemUtility1@@XZ ENDP ; CvDllGameContext::GetScriptSystemUtility
_TEXT	ENDS
PUBLIC	??1logic_error@std@@UAE@XZ			; std::logic_error::~logic_error
EXTRN	__imp_??1?$basic_string@DU?$char_traits@D@std@@V?$allocator@D@2@@std@@QAE@XZ:PROC
; Function compile flags: /Ogtpy
; File c:\program files (x86)\microsoft visual studio 9.0\vc\include\stdexcept
;	COMDAT ??1logic_error@std@@UAE@XZ
_TEXT	SEGMENT
??1logic_error@std@@UAE@XZ PROC				; std::logic_error::~logic_error, COMDAT
; _this$ = ecx

; 30   : 		{	// destroy the object

	push	esi
	mov	esi, ecx

; 31   : 		}

	lea	ecx, DWORD PTR [esi+12]
	mov	DWORD PTR [esi], OFFSET ??_7logic_error@std@@6B@
	call	DWORD PTR __imp_??1?$basic_string@DU?$char_traits@D@std@@V?$allocator@D@2@@std@@QAE@XZ
	mov	ecx, esi
	pop	esi
	jmp	DWORD PTR __imp_??1exception@std@@UAE@XZ
??1logic_error@std@@UAE@XZ ENDP				; std::logic_error::~logic_error
_TEXT	ENDS
PUBLIC	?GetNotificationType@CvDllGameContext@@UBGPBDH@Z ; CvDllGameContext::GetNotificationType
EXTRN	?GetTypeName@CvNotificationEntry@@QAEPBDXZ:PROC	; CvNotificationEntry::GetTypeName
EXTRN	?GetEntry@CvNotificationXMLEntries@@QAEPAVCvNotificationEntry@@H@Z:PROC ; CvNotificationXMLEntries::GetEntry
EXTRN	?GetNotificationEntries@CvGlobals@@QAEPAVCvNotificationXMLEntries@@XZ:PROC ; CvGlobals::GetNotificationEntries
; Function compile flags: /Ogtpy
; File c:\users\enormousapplepie\documents\github\lekmod\lekmod_dll\cvgamecoredll_expansion2\cvdllcontext.cpp
;	COMDAT ?GetNotificationType@CvDllGameContext@@UBGPBDH@Z
_TEXT	SEGMENT
_this$ = 8						; size = 4
_NotificationID$ = 12					; size = 4
?GetNotificationType@CvDllGameContext@@UBGPBDH@Z PROC	; CvDllGameContext::GetNotificationType, COMDAT

; 708  : 	CvNotificationXMLEntries* pkEntries = GC.GetNotificationEntries();

	mov	ecx, OFFSET ?gGlobals@@3VCvGlobals@@A	; gGlobals
	call	?GetNotificationEntries@CvGlobals@@QAEPAVCvNotificationXMLEntries@@XZ ; CvGlobals::GetNotificationEntries

; 709  : 	if(pkEntries != NULL)

	test	eax, eax
	je	SHORT $LN1@GetNotific

; 710  : 	{
; 711  : 		CvNotificationEntry* pkEntry = pkEntries->GetEntry(NotificationID);

	mov	ecx, DWORD PTR _NotificationID$[esp-4]
	push	ecx
	mov	ecx, eax
	call	?GetEntry@CvNotificationXMLEntries@@QAEPAVCvNotificationEntry@@H@Z ; CvNotificationXMLEntries::GetEntry

; 712  : 		if(pkEntry != NULL)

	test	eax, eax
	je	SHORT $LN1@GetNotific

; 713  : 			return pkEntry->GetTypeName();

	mov	ecx, eax
	call	?GetTypeName@CvNotificationEntry@@QAEPBDXZ ; CvNotificationEntry::GetTypeName

; 717  : }

	ret	8
$LN1@GetNotific:

; 714  : 	}
; 715  : 
; 716  : 	return NULL;

	xor	eax, eax

; 717  : }

	ret	8
?GetNotificationType@CvDllGameContext@@UBGPBDH@Z ENDP	; CvDllGameContext::GetNotificationType
_TEXT	ENDS
EXTRN	__imp_?c_str@?$basic_string@DU?$char_traits@D@std@@V?$allocator@D@2@@std@@QBEPBDXZ:PROC
; Function compile flags: /Ogtpy
; File c:\program files (x86)\microsoft visual studio 9.0\vc\include\stdexcept
;	COMDAT ?what@logic_error@std@@UBEPBDXZ
_TEXT	SEGMENT
?what@logic_error@std@@UBEPBDXZ PROC			; std::logic_error::what, COMDAT
; _this$ = ecx

; 35   : 		return (_Str.c_str());

	add	ecx, 12					; 0000000cH
	jmp	DWORD PTR __imp_?c_str@?$basic_string@DU?$char_traits@D@std@@V?$allocator@D@2@@std@@QBEPBDXZ
?what@logic_error@std@@UBEPBDXZ ENDP			; std::logic_error::what
_TEXT	ENDS
PUBLIC	?GetLogging@CvDllGameContext@@UAG_NXZ		; CvDllGameContext::GetLogging
EXTRN	?getLogging@CvGlobals@@QAE_NXZ:PROC		; CvGlobals::getLogging
; Function compile flags: /Ogtpy
; File c:\users\enormousapplepie\documents\github\lekmod\lekmod_dll\cvgamecoredll_expansion2\cvdllcontext.cpp
;	COMDAT ?GetLogging@CvDllGameContext@@UAG_NXZ
_TEXT	SEGMENT
_this$ = 8						; size = 4
?GetLogging@CvDllGameContext@@UAG_NXZ PROC		; CvDllGameContext::GetLogging, COMDAT

; 721  : 	return GC.getLogging();

	mov	ecx, OFFSET ?gGlobals@@3VCvGlobals@@A	; gGlobals
	call	?getLogging@CvGlobals@@QAE_NXZ		; CvGlobals::getLogging

; 722  : }

	ret	4
?GetLogging@CvDllGameContext@@UAG_NXZ ENDP		; CvDllGameContext::GetLogging
; Function compile flags: /Ogtpy
_TEXT	ENDS
;	COMDAT ??_Glogic_error@std@@UAEPAXI@Z
_TEXT	SEGMENT
___flags$ = 8						; size = 4
??_Glogic_error@std@@UAEPAXI@Z PROC			; std::logic_error::`scalar deleting destructor', COMDAT
; _this$ = ecx
	push	esi
	mov	esi, ecx
	lea	ecx, DWORD PTR [esi+12]
	mov	DWORD PTR [esi], OFFSET ??_7logic_error@std@@6B@
	call	DWORD PTR __imp_??1?$basic_string@DU?$char_traits@D@std@@V?$allocator@D@2@@std@@QAE@XZ
	mov	ecx, esi
	call	DWORD PTR __imp_??1exception@std@@UAE@XZ
	test	BYTE PTR ___flags$[esp], 1
	je	SHORT $LN6@scalar@8
	push	esi
	call	??3@YAXPAX@Z				; operator delete
	add	esp, 4
$LN6@scalar@8:
	mov	eax, esi
	pop	esi
	ret	4
??_Glogic_error@std@@UAEPAXI@Z ENDP			; std::logic_error::`scalar deleting destructor'
_TEXT	ENDS
PUBLIC	?SetLogging@CvDllGameContext@@UAGX_N@Z		; CvDllGameContext::SetLogging
EXTRN	?setLogging@CvGlobals@@QAEX_N@Z:PROC		; CvGlobals::setLogging
; Function compile flags: /Ogtpy
;	COMDAT ?SetLogging@CvDllGameContext@@UAGX_N@Z
_TEXT	SEGMENT
_this$ = 8						; size = 4
_bEnable$ = 12						; size = 1
?SetLogging@CvDllGameContext@@UAGX_N@Z PROC		; CvDllGameContext::SetLogging, COMDAT

; 726  : 	GC.setLogging(bEnable);

	mov	eax, DWORD PTR _bEnable$[esp-4]
	push	eax
	mov	ecx, OFFSET ?gGlobals@@3VCvGlobals@@A	; gGlobals
	call	?setLogging@CvGlobals@@QAEX_N@Z		; CvGlobals::setLogging

; 727  : }

	ret	8
?SetLogging@CvDllGameContext@@UAGX_N@Z ENDP		; CvDllGameContext::SetLogging
_TEXT	ENDS
PUBLIC	?GetRandLogging@CvDllGameContext@@UAGHXZ	; CvDllGameContext::GetRandLogging
EXTRN	?getRandLogging@CvGlobals@@QAEHXZ:PROC		; CvGlobals::getRandLogging
; Function compile flags: /Ogtpy
;	COMDAT ?GetRandLogging@CvDllGameContext@@UAGHXZ
_TEXT	SEGMENT
_this$ = 8						; size = 4
?GetRandLogging@CvDllGameContext@@UAGHXZ PROC		; CvDllGameContext::GetRandLogging, COMDAT

; 731  : 	return GC.getRandLogging();

	mov	ecx, OFFSET ?gGlobals@@3VCvGlobals@@A	; gGlobals
	call	?getRandLogging@CvGlobals@@QAEHXZ	; CvGlobals::getRandLogging

; 732  : }

	ret	4
?GetRandLogging@CvDllGameContext@@UAGHXZ ENDP		; CvDllGameContext::GetRandLogging
_TEXT	ENDS
PUBLIC	?SetRandLogging@CvDllGameContext@@UAGXH@Z	; CvDllGameContext::SetRandLogging
EXTRN	?setRandLogging@CvGlobals@@QAEXH@Z:PROC		; CvGlobals::setRandLogging
; Function compile flags: /Ogtpy
;	COMDAT ?SetRandLogging@CvDllGameContext@@UAGXH@Z
_TEXT	SEGMENT
_this$ = 8						; size = 4
_iRandLoggingFlags$ = 12				; size = 4
?SetRandLogging@CvDllGameContext@@UAGXH@Z PROC		; CvDllGameContext::SetRandLogging, COMDAT

; 736  : 	GC.setRandLogging(iRandLoggingFlags);

	mov	eax, DWORD PTR _iRandLoggingFlags$[esp-4]
	push	eax
	mov	ecx, OFFSET ?gGlobals@@3VCvGlobals@@A	; gGlobals
	call	?setRandLogging@CvGlobals@@QAEXH@Z	; CvGlobals::setRandLogging

; 737  : }

	ret	8
?SetRandLogging@CvDllGameContext@@UAGXH@Z ENDP		; CvDllGameContext::SetRandLogging
_TEXT	ENDS
PUBLIC	?GetAILogging@CvDllGameContext@@UAG_NXZ		; CvDllGameContext::GetAILogging
EXTRN	?getAILogging@CvGlobals@@QAE_NXZ:PROC		; CvGlobals::getAILogging
; Function compile flags: /Ogtpy
;	COMDAT ?GetAILogging@CvDllGameContext@@UAG_NXZ
_TEXT	SEGMENT
_this$ = 8						; size = 4
?GetAILogging@CvDllGameContext@@UAG_NXZ PROC		; CvDllGameContext::GetAILogging, COMDAT

; 741  : 	return GC.getAILogging();

	mov	ecx, OFFSET ?gGlobals@@3VCvGlobals@@A	; gGlobals
	call	?getAILogging@CvGlobals@@QAE_NXZ	; CvGlobals::getAILogging

; 742  : }

	ret	4
?GetAILogging@CvDllGameContext@@UAG_NXZ ENDP		; CvDllGameContext::GetAILogging
_TEXT	ENDS
PUBLIC	?SetAILogging@CvDllGameContext@@UAGX_N@Z	; CvDllGameContext::SetAILogging
EXTRN	?setAILogging@CvGlobals@@QAEX_N@Z:PROC		; CvGlobals::setAILogging
; Function compile flags: /Ogtpy
;	COMDAT ?SetAILogging@CvDllGameContext@@UAGX_N@Z
_TEXT	SEGMENT
_this$ = 8						; size = 4
_bEnable$ = 12						; size = 1
?SetAILogging@CvDllGameContext@@UAGX_N@Z PROC		; CvDllGameContext::SetAILogging, COMDAT

; 746  : 	GC.setAILogging(bEnable);

	mov	eax, DWORD PTR _bEnable$[esp-4]
	push	eax
	mov	ecx, OFFSET ?gGlobals@@3VCvGlobals@@A	; gGlobals
	call	?setAILogging@CvGlobals@@QAEX_N@Z	; CvGlobals::setAILogging

; 747  : }

	ret	8
?SetAILogging@CvDllGameContext@@UAGX_N@Z ENDP		; CvDllGameContext::SetAILogging
_TEXT	ENDS
PUBLIC	?GetAIPerfLogging@CvDllGameContext@@UAG_NXZ	; CvDllGameContext::GetAIPerfLogging
EXTRN	?getAIPerfLogging@CvGlobals@@QAE_NXZ:PROC	; CvGlobals::getAIPerfLogging
; Function compile flags: /Ogtpy
;	COMDAT ?GetAIPerfLogging@CvDllGameContext@@UAG_NXZ
_TEXT	SEGMENT
_this$ = 8						; size = 4
?GetAIPerfLogging@CvDllGameContext@@UAG_NXZ PROC	; CvDllGameContext::GetAIPerfLogging, COMDAT

; 751  : 	return GC.getAIPerfLogging();

	mov	ecx, OFFSET ?gGlobals@@3VCvGlobals@@A	; gGlobals
	call	?getAIPerfLogging@CvGlobals@@QAE_NXZ	; CvGlobals::getAIPerfLogging

; 752  : }

	ret	4
?GetAIPerfLogging@CvDllGameContext@@UAG_NXZ ENDP	; CvDllGameContext::GetAIPerfLogging
_TEXT	ENDS
PUBLIC	?SetAIPerfLogging@CvDllGameContext@@UAGX_N@Z	; CvDllGameContext::SetAIPerfLogging
EXTRN	?setAIPerfLogging@CvGlobals@@QAEX_N@Z:PROC	; CvGlobals::setAIPerfLogging
; Function compile flags: /Ogtpy
;	COMDAT ?SetAIPerfLogging@CvDllGameContext@@UAGX_N@Z
_TEXT	SEGMENT
_this$ = 8						; size = 4
_bEnable$ = 12						; size = 1
?SetAIPerfLogging@CvDllGameContext@@UAGX_N@Z PROC	; CvDllGameContext::SetAIPerfLogging, COMDAT

; 756  : 	GC.setAIPerfLogging(bEnable);

	mov	eax, DWORD PTR _bEnable$[esp-4]
	push	eax
	mov	ecx, OFFSET ?gGlobals@@3VCvGlobals@@A	; gGlobals
	call	?setAIPerfLogging@CvGlobals@@QAEX_N@Z	; CvGlobals::setAIPerfLogging

; 757  : }

	ret	8
?SetAIPerfLogging@CvDllGameContext@@UAGX_N@Z ENDP	; CvDllGameContext::SetAIPerfLogging
_TEXT	ENDS
PUBLIC	?GetBuilderAILogging@CvDllGameContext@@UAG_NXZ	; CvDllGameContext::GetBuilderAILogging
EXTRN	?GetBuilderAILogging@CvGlobals@@QAE_NXZ:PROC	; CvGlobals::GetBuilderAILogging
; Function compile flags: /Ogtpy
;	COMDAT ?GetBuilderAILogging@CvDllGameContext@@UAG_NXZ
_TEXT	SEGMENT
_this$ = 8						; size = 4
?GetBuilderAILogging@CvDllGameContext@@UAG_NXZ PROC	; CvDllGameContext::GetBuilderAILogging, COMDAT

; 761  : 	return GC.GetBuilderAILogging();

	mov	ecx, OFFSET ?gGlobals@@3VCvGlobals@@A	; gGlobals
	call	?GetBuilderAILogging@CvGlobals@@QAE_NXZ	; CvGlobals::GetBuilderAILogging

; 762  : }

	ret	4
?GetBuilderAILogging@CvDllGameContext@@UAG_NXZ ENDP	; CvDllGameContext::GetBuilderAILogging
_TEXT	ENDS
PUBLIC	?SetBuilderAILogging@CvDllGameContext@@UAGX_N@Z	; CvDllGameContext::SetBuilderAILogging
EXTRN	?SetBuilderAILogging@CvGlobals@@QAEX_N@Z:PROC	; CvGlobals::SetBuilderAILogging
; Function compile flags: /Ogtpy
;	COMDAT ?SetBuilderAILogging@CvDllGameContext@@UAGX_N@Z
_TEXT	SEGMENT
_this$ = 8						; size = 4
_bEnable$ = 12						; size = 1
?SetBuilderAILogging@CvDllGameContext@@UAGX_N@Z PROC	; CvDllGameContext::SetBuilderAILogging, COMDAT

; 766  : 	GC.SetBuilderAILogging(bEnable);

	mov	eax, DWORD PTR _bEnable$[esp-4]
	push	eax
	mov	ecx, OFFSET ?gGlobals@@3VCvGlobals@@A	; gGlobals
	call	?SetBuilderAILogging@CvGlobals@@QAEX_N@Z ; CvGlobals::SetBuilderAILogging

; 767  : }

	ret	8
?SetBuilderAILogging@CvDllGameContext@@UAGX_N@Z ENDP	; CvDllGameContext::SetBuilderAILogging
_TEXT	ENDS
PUBLIC	?GetPlayerAndCityAILogSplit@CvDllGameContext@@UAG_NXZ ; CvDllGameContext::GetPlayerAndCityAILogSplit
EXTRN	?getPlayerAndCityAILogSplit@CvGlobals@@QAE_NXZ:PROC ; CvGlobals::getPlayerAndCityAILogSplit
; Function compile flags: /Ogtpy
;	COMDAT ?GetPlayerAndCityAILogSplit@CvDllGameContext@@UAG_NXZ
_TEXT	SEGMENT
_this$ = 8						; size = 4
?GetPlayerAndCityAILogSplit@CvDllGameContext@@UAG_NXZ PROC ; CvDllGameContext::GetPlayerAndCityAILogSplit, COMDAT

; 771  : 	return GC.getPlayerAndCityAILogSplit();

	mov	ecx, OFFSET ?gGlobals@@3VCvGlobals@@A	; gGlobals
	call	?getPlayerAndCityAILogSplit@CvGlobals@@QAE_NXZ ; CvGlobals::getPlayerAndCityAILogSplit

; 772  : }

	ret	4
?GetPlayerAndCityAILogSplit@CvDllGameContext@@UAG_NXZ ENDP ; CvDllGameContext::GetPlayerAndCityAILogSplit
_TEXT	ENDS
PUBLIC	??_7length_error@std@@6B@			; std::length_error::`vftable'
PUBLIC	??0length_error@std@@QAE@ABV?$basic_string@DU?$char_traits@D@std@@V?$allocator@D@2@@1@@Z ; std::length_error::length_error
PUBLIC	??_R4length_error@std@@6B@			; std::length_error::`RTTI Complete Object Locator'
PUBLIC	??_R0?AVlength_error@std@@@8			; std::length_error `RTTI Type Descriptor'
PUBLIC	??_R3length_error@std@@8			; std::length_error::`RTTI Class Hierarchy Descriptor'
PUBLIC	??_R2length_error@std@@8			; std::length_error::`RTTI Base Class Array'
PUBLIC	??_R1A@?0A@EA@length_error@std@@8		; std::length_error::`RTTI Base Class Descriptor at (0,-1,0,64)'
EXTRN	??_Elength_error@std@@UAEPAXI@Z:PROC		; std::length_error::`vector deleting destructor'
;	COMDAT ??_R1A@?0A@EA@length_error@std@@8
; File c:\program files (x86)\microsoft visual studio 9.0\vc\include\stdexcept
rdata$r	SEGMENT
??_R1A@?0A@EA@length_error@std@@8 DD FLAT:??_R0?AVlength_error@std@@@8 ; std::length_error::`RTTI Base Class Descriptor at (0,-1,0,64)'
	DD	02H
	DD	00H
	DD	0ffffffffH
	DD	00H
	DD	040H
	DD	FLAT:??_R3length_error@std@@8
rdata$r	ENDS
;	COMDAT ??_R2length_error@std@@8
rdata$r	SEGMENT
??_R2length_error@std@@8 DD FLAT:??_R1A@?0A@EA@length_error@std@@8 ; std::length_error::`RTTI Base Class Array'
	DD	FLAT:??_R1A@?0A@EA@logic_error@std@@8
	DD	FLAT:??_R1A@?0A@EA@exception@std@@8
rdata$r	ENDS
;	COMDAT ??_R3length_error@std@@8
rdata$r	SEGMENT
??_R3length_error@std@@8 DD 00H				; std::length_error::`RTTI Class Hierarchy Descriptor'
	DD	00H
	DD	03H
	DD	FLAT:??_R2length_error@std@@8
rdata$r	ENDS
;	COMDAT ??_R0?AVlength_error@std@@@8
_DATA	SEGMENT
??_R0?AVlength_error@std@@@8 DD FLAT:??_7type_info@@6B@	; std::length_error `RTTI Type Descriptor'
	DD	00H
	DB	'.?AVlength_error@std@@', 00H
_DATA	ENDS
;	COMDAT ??_R4length_error@std@@6B@
rdata$r	SEGMENT
??_R4length_error@std@@6B@ DD 00H			; std::length_error::`RTTI Complete Object Locator'
	DD	00H
	DD	00H
	DD	FLAT:??_R0?AVlength_error@std@@@8
	DD	FLAT:??_R3length_error@std@@8
rdata$r	ENDS
;	COMDAT ??_7length_error@std@@6B@
CONST	SEGMENT
??_7length_error@std@@6B@ DD FLAT:??_R4length_error@std@@6B@ ; std::length_error::`vftable'
	DD	FLAT:??_Elength_error@std@@UAEPAXI@Z
	DD	FLAT:?what@logic_error@std@@UBEPBDXZ
; Function compile flags: /Ogtpy
CONST	ENDS
;	COMDAT ??0length_error@std@@QAE@ABV?$basic_string@DU?$char_traits@D@std@@V?$allocator@D@2@@1@@Z
_TEXT	SEGMENT
__Message$ = 8						; size = 4
??0length_error@std@@QAE@ABV?$basic_string@DU?$char_traits@D@std@@V?$allocator@D@2@@1@@Z PROC ; std::length_error::length_error, COMDAT
; _this$ = ecx

; 105  : 		{	// construct from message string

	mov	eax, DWORD PTR __Message$[esp-4]
	push	esi
	push	eax
	mov	esi, ecx
	call	??0logic_error@std@@QAE@ABV?$basic_string@DU?$char_traits@D@std@@V?$allocator@D@2@@1@@Z ; std::logic_error::logic_error
	mov	DWORD PTR [esi], OFFSET ??_7length_error@std@@6B@

; 106  : 		}

	mov	eax, esi
	pop	esi
	ret	4
??0length_error@std@@QAE@ABV?$basic_string@DU?$char_traits@D@std@@V?$allocator@D@2@@1@@Z ENDP ; std::length_error::length_error
_TEXT	ENDS
PUBLIC	?SetPlayerAndCityAILogSplit@CvDllGameContext@@UAGX_N@Z ; CvDllGameContext::SetPlayerAndCityAILogSplit
EXTRN	?setPlayerAndCityAILogSplit@CvGlobals@@QAEX_N@Z:PROC ; CvGlobals::setPlayerAndCityAILogSplit
; Function compile flags: /Ogtpy
; File c:\users\enormousapplepie\documents\github\lekmod\lekmod_dll\cvgamecoredll_expansion2\cvdllcontext.cpp
;	COMDAT ?SetPlayerAndCityAILogSplit@CvDllGameContext@@UAGX_N@Z
_TEXT	SEGMENT
_this$ = 8						; size = 4
_bEnable$ = 12						; size = 1
?SetPlayerAndCityAILogSplit@CvDllGameContext@@UAGX_N@Z PROC ; CvDllGameContext::SetPlayerAndCityAILogSplit, COMDAT

; 776  : 	GC.setPlayerAndCityAILogSplit(bEnable);

	mov	eax, DWORD PTR _bEnable$[esp-4]
	push	eax
	mov	ecx, OFFSET ?gGlobals@@3VCvGlobals@@A	; gGlobals
	call	?setPlayerAndCityAILogSplit@CvGlobals@@QAEX_N@Z ; CvGlobals::setPlayerAndCityAILogSplit

; 777  : }

	ret	8
?SetPlayerAndCityAILogSplit@CvDllGameContext@@UAGX_N@Z ENDP ; CvDllGameContext::SetPlayerAndCityAILogSplit
_TEXT	ENDS
PUBLIC	?GetTutorialLogging@CvDllGameContext@@UAG_NXZ	; CvDllGameContext::GetTutorialLogging
EXTRN	?GetTutorialLogging@CvGlobals@@QAE_NXZ:PROC	; CvGlobals::GetTutorialLogging
; Function compile flags: /Ogtpy
;	COMDAT ?GetTutorialLogging@CvDllGameContext@@UAG_NXZ
_TEXT	SEGMENT
_this$ = 8						; size = 4
?GetTutorialLogging@CvDllGameContext@@UAG_NXZ PROC	; CvDllGameContext::GetTutorialLogging, COMDAT

; 781  : 	return GC.GetTutorialLogging();

	mov	ecx, OFFSET ?gGlobals@@3VCvGlobals@@A	; gGlobals
	call	?GetTutorialLogging@CvGlobals@@QAE_NXZ	; CvGlobals::GetTutorialLogging

; 782  : }

	ret	4
?GetTutorialLogging@CvDllGameContext@@UAG_NXZ ENDP	; CvDllGameContext::GetTutorialLogging
_TEXT	ENDS
PUBLIC	??1length_error@std@@UAE@XZ			; std::length_error::~length_error
; Function compile flags: /Ogtpy
; File c:\program files (x86)\microsoft visual studio 9.0\vc\include\stdexcept
;	COMDAT ??1length_error@std@@UAE@XZ
_TEXT	SEGMENT
??1length_error@std@@UAE@XZ PROC			; std::length_error::~length_error, COMDAT
; _this$ = ecx

; 109  : 		{	// destroy the object

	push	esi
	mov	esi, ecx

; 110  : 		}

	lea	ecx, DWORD PTR [esi+12]
	mov	DWORD PTR [esi], OFFSET ??_7logic_error@std@@6B@
	call	DWORD PTR __imp_??1?$basic_string@DU?$char_traits@D@std@@V?$allocator@D@2@@std@@QAE@XZ
	mov	ecx, esi
	pop	esi
	jmp	DWORD PTR __imp_??1exception@std@@UAE@XZ
??1length_error@std@@UAE@XZ ENDP			; std::length_error::~length_error
_TEXT	ENDS
PUBLIC	?SetTutorialLogging@CvDllGameContext@@UAGX_N@Z	; CvDllGameContext::SetTutorialLogging
EXTRN	?SetTutorialLogging@CvGlobals@@QAEX_N@Z:PROC	; CvGlobals::SetTutorialLogging
; Function compile flags: /Ogtpy
; File c:\users\enormousapplepie\documents\github\lekmod\lekmod_dll\cvgamecoredll_expansion2\cvdllcontext.cpp
;	COMDAT ?SetTutorialLogging@CvDllGameContext@@UAGX_N@Z
_TEXT	SEGMENT
_this$ = 8						; size = 4
_bEnable$ = 12						; size = 1
?SetTutorialLogging@CvDllGameContext@@UAGX_N@Z PROC	; CvDllGameContext::SetTutorialLogging, COMDAT

; 786  : 	GC.SetTutorialLogging(bEnable);

	mov	eax, DWORD PTR _bEnable$[esp-4]
	push	eax
	mov	ecx, OFFSET ?gGlobals@@3VCvGlobals@@A	; gGlobals
	call	?SetTutorialLogging@CvGlobals@@QAEX_N@Z	; CvGlobals::SetTutorialLogging

; 787  : }

	ret	8
?SetTutorialLogging@CvDllGameContext@@UAGX_N@Z ENDP	; CvDllGameContext::SetTutorialLogging
_TEXT	ENDS
PUBLIC	?GetTutorialDebugging@CvDllGameContext@@UAG_NXZ	; CvDllGameContext::GetTutorialDebugging
EXTRN	?GetTutorialDebugging@CvGlobals@@QAE_NXZ:PROC	; CvGlobals::GetTutorialDebugging
; Function compile flags: /Ogtpy
;	COMDAT ?GetTutorialDebugging@CvDllGameContext@@UAG_NXZ
_TEXT	SEGMENT
_this$ = 8						; size = 4
?GetTutorialDebugging@CvDllGameContext@@UAG_NXZ PROC	; CvDllGameContext::GetTutorialDebugging, COMDAT

; 791  : 	return GC.GetTutorialDebugging();

	mov	ecx, OFFSET ?gGlobals@@3VCvGlobals@@A	; gGlobals
	call	?GetTutorialDebugging@CvGlobals@@QAE_NXZ ; CvGlobals::GetTutorialDebugging

; 792  : }

	ret	4
?GetTutorialDebugging@CvDllGameContext@@UAG_NXZ ENDP	; CvDllGameContext::GetTutorialDebugging
; Function compile flags: /Ogtpy
_TEXT	ENDS
;	COMDAT ??_Glength_error@std@@UAEPAXI@Z
_TEXT	SEGMENT
___flags$ = 8						; size = 4
??_Glength_error@std@@UAEPAXI@Z PROC			; std::length_error::`scalar deleting destructor', COMDAT
; _this$ = ecx
	push	esi
	mov	esi, ecx
	lea	ecx, DWORD PTR [esi+12]
	mov	DWORD PTR [esi], OFFSET ??_7logic_error@std@@6B@
	call	DWORD PTR __imp_??1?$basic_string@DU?$char_traits@D@std@@V?$allocator@D@2@@std@@QAE@XZ
	mov	ecx, esi
	call	DWORD PTR __imp_??1exception@std@@UAE@XZ
	test	BYTE PTR ___flags$[esp], 1
	je	SHORT $LN8@scalar@9
	push	esi
	call	??3@YAXPAX@Z				; operator delete
	add	esp, 4
$LN8@scalar@9:
	mov	eax, esi
	pop	esi
	ret	4
??_Glength_error@std@@UAEPAXI@Z ENDP			; std::length_error::`scalar deleting destructor'
_TEXT	ENDS
PUBLIC	?SetTutorialDebugging@CvDllGameContext@@UAGX_N@Z ; CvDllGameContext::SetTutorialDebugging
EXTRN	?SetTutorialDebugging@CvGlobals@@QAEX_N@Z:PROC	; CvGlobals::SetTutorialDebugging
; Function compile flags: /Ogtpy
;	COMDAT ?SetTutorialDebugging@CvDllGameContext@@UAGX_N@Z
_TEXT	SEGMENT
_this$ = 8						; size = 4
_bEnable$ = 12						; size = 1
?SetTutorialDebugging@CvDllGameContext@@UAGX_N@Z PROC	; CvDllGameContext::SetTutorialDebugging, COMDAT

; 796  : 	GC.SetTutorialDebugging(bEnable);

	mov	eax, DWORD PTR _bEnable$[esp-4]
	push	eax
	mov	ecx, OFFSET ?gGlobals@@3VCvGlobals@@A	; gGlobals
	call	?SetTutorialDebugging@CvGlobals@@QAEX_N@Z ; CvGlobals::SetTutorialDebugging

; 797  : }

	ret	8
?SetTutorialDebugging@CvDllGameContext@@UAGX_N@Z ENDP	; CvDllGameContext::SetTutorialDebugging
_TEXT	ENDS
PUBLIC	?GetAllowRClickMovementWhileScrolling@CvDllGameContext@@UAG_NXZ ; CvDllGameContext::GetAllowRClickMovementWhileScrolling
EXTRN	?GetAllowRClickMovementWhileScrolling@CvGlobals@@QAE_NXZ:PROC ; CvGlobals::GetAllowRClickMovementWhileScrolling
; Function compile flags: /Ogtpy
;	COMDAT ?GetAllowRClickMovementWhileScrolling@CvDllGameContext@@UAG_NXZ
_TEXT	SEGMENT
_this$ = 8						; size = 4
?GetAllowRClickMovementWhileScrolling@CvDllGameContext@@UAG_NXZ PROC ; CvDllGameContext::GetAllowRClickMovementWhileScrolling, COMDAT

; 801  : 	return GC.GetAllowRClickMovementWhileScrolling();

	mov	ecx, OFFSET ?gGlobals@@3VCvGlobals@@A	; gGlobals
	call	?GetAllowRClickMovementWhileScrolling@CvGlobals@@QAE_NXZ ; CvGlobals::GetAllowRClickMovementWhileScrolling

; 802  : }

	ret	4
?GetAllowRClickMovementWhileScrolling@CvDllGameContext@@UAG_NXZ ENDP ; CvDllGameContext::GetAllowRClickMovementWhileScrolling
_TEXT	ENDS
PUBLIC	?SetAllowRClickMovementWhileScrolling@CvDllGameContext@@UAGX_N@Z ; CvDllGameContext::SetAllowRClickMovementWhileScrolling
EXTRN	?SetAllowRClickMovementWhileScrolling@CvGlobals@@QAEX_N@Z:PROC ; CvGlobals::SetAllowRClickMovementWhileScrolling
; Function compile flags: /Ogtpy
;	COMDAT ?SetAllowRClickMovementWhileScrolling@CvDllGameContext@@UAGX_N@Z
_TEXT	SEGMENT
_this$ = 8						; size = 4
_bAllow$ = 12						; size = 1
?SetAllowRClickMovementWhileScrolling@CvDllGameContext@@UAGX_N@Z PROC ; CvDllGameContext::SetAllowRClickMovementWhileScrolling, COMDAT

; 806  : 	GC.SetAllowRClickMovementWhileScrolling(bAllow);

	mov	eax, DWORD PTR _bAllow$[esp-4]
	push	eax
	mov	ecx, OFFSET ?gGlobals@@3VCvGlobals@@A	; gGlobals
	call	?SetAllowRClickMovementWhileScrolling@CvGlobals@@QAEX_N@Z ; CvGlobals::SetAllowRClickMovementWhileScrolling

; 807  : }

	ret	8
?SetAllowRClickMovementWhileScrolling@CvDllGameContext@@UAGX_N@Z ENDP ; CvDllGameContext::SetAllowRClickMovementWhileScrolling
_TEXT	ENDS
PUBLIC	?GetPostTurnAutosaves@CvDllGameContext@@UAG_NXZ	; CvDllGameContext::GetPostTurnAutosaves
EXTRN	?GetPostTurnAutosaves@CvGlobals@@QAE_NXZ:PROC	; CvGlobals::GetPostTurnAutosaves
; Function compile flags: /Ogtpy
;	COMDAT ?GetPostTurnAutosaves@CvDllGameContext@@UAG_NXZ
_TEXT	SEGMENT
_this$ = 8						; size = 4
?GetPostTurnAutosaves@CvDllGameContext@@UAG_NXZ PROC	; CvDllGameContext::GetPostTurnAutosaves, COMDAT

; 811  : 	return GC.GetPostTurnAutosaves();

	mov	ecx, OFFSET ?gGlobals@@3VCvGlobals@@A	; gGlobals
	call	?GetPostTurnAutosaves@CvGlobals@@QAE_NXZ ; CvGlobals::GetPostTurnAutosaves

; 812  : }

	ret	4
?GetPostTurnAutosaves@CvDllGameContext@@UAG_NXZ ENDP	; CvDllGameContext::GetPostTurnAutosaves
_TEXT	ENDS
PUBLIC	?SetPostTurnAutosaves@CvDllGameContext@@UAGX_N@Z ; CvDllGameContext::SetPostTurnAutosaves
EXTRN	?SetPostTurnAutosaves@CvGlobals@@QAEX_N@Z:PROC	; CvGlobals::SetPostTurnAutosaves
; Function compile flags: /Ogtpy
;	COMDAT ?SetPostTurnAutosaves@CvDllGameContext@@UAGX_N@Z
_TEXT	SEGMENT
_this$ = 8						; size = 4
_bEnable$ = 12						; size = 1
?SetPostTurnAutosaves@CvDllGameContext@@UAGX_N@Z PROC	; CvDllGameContext::SetPostTurnAutosaves, COMDAT

; 816  : 	GC.SetPostTurnAutosaves(bEnable);

	mov	eax, DWORD PTR _bEnable$[esp-4]
	push	eax
	mov	ecx, OFFSET ?gGlobals@@3VCvGlobals@@A	; gGlobals
	call	?SetPostTurnAutosaves@CvGlobals@@QAEX_N@Z ; CvGlobals::SetPostTurnAutosaves

; 817  : }

	ret	8
?SetPostTurnAutosaves@CvDllGameContext@@UAGX_N@Z ENDP	; CvDllGameContext::SetPostTurnAutosaves
_TEXT	ENDS
PUBLIC	?GetDatabaseLoadUtility@CvDllGameContext@@UAGPAVICvDLLDatabaseUtility1@@XZ ; CvDllGameContext::GetDatabaseLoadUtility
EXTRN	?getDatabaseLoadUtility@CvGlobals@@QAEPAVICvDLLDatabaseUtility1@@XZ:PROC ; CvGlobals::getDatabaseLoadUtility
; Function compile flags: /Ogtpy
;	COMDAT ?GetDatabaseLoadUtility@CvDllGameContext@@UAGPAVICvDLLDatabaseUtility1@@XZ
_TEXT	SEGMENT
_this$ = 8						; size = 4
?GetDatabaseLoadUtility@CvDllGameContext@@UAGPAVICvDLLDatabaseUtility1@@XZ PROC ; CvDllGameContext::GetDatabaseLoadUtility, COMDAT

; 821  : 	return GC.getDatabaseLoadUtility();

	mov	ecx, OFFSET ?gGlobals@@3VCvGlobals@@A	; gGlobals
	call	?getDatabaseLoadUtility@CvGlobals@@QAEPAVICvDLLDatabaseUtility1@@XZ ; CvGlobals::getDatabaseLoadUtility

; 822  : }

	ret	4
?GetDatabaseLoadUtility@CvDllGameContext@@UAGPAVICvDLLDatabaseUtility1@@XZ ENDP ; CvDllGameContext::GetDatabaseLoadUtility
_TEXT	ENDS
PUBLIC	?SetGameDatabase@CvDllGameContext@@UAGXPAVConnection@Database@@@Z ; CvDllGameContext::SetGameDatabase
EXTRN	?SetGameDatabase@CvGlobals@@QAEXPAVConnection@Database@@@Z:PROC ; CvGlobals::SetGameDatabase
; Function compile flags: /Ogtpy
;	COMDAT ?SetGameDatabase@CvDllGameContext@@UAGXPAVConnection@Database@@@Z
_TEXT	SEGMENT
_this$ = 8						; size = 4
_pGameDatabase$ = 12					; size = 4
?SetGameDatabase@CvDllGameContext@@UAGXPAVConnection@Database@@@Z PROC ; CvDllGameContext::SetGameDatabase, COMDAT

; 846  : 	GC.SetGameDatabase(pGameDatabase);

	mov	eax, DWORD PTR _pGameDatabase$[esp-4]
	push	eax
	mov	ecx, OFFSET ?gGlobals@@3VCvGlobals@@A	; gGlobals
	call	?SetGameDatabase@CvGlobals@@QAEXPAVConnection@Database@@@Z ; CvGlobals::SetGameDatabase

; 847  : }

	ret	8
?SetGameDatabase@CvDllGameContext@@UAGXPAVConnection@Database@@@Z ENDP ; CvDllGameContext::SetGameDatabase
_TEXT	ENDS
PUBLIC	?IsGraphicsInitialized@CvDllGameContext@@UBG_NXZ ; CvDllGameContext::IsGraphicsInitialized
EXTRN	?IsGraphicsInitialized@CvGlobals@@QBE_NXZ:PROC	; CvGlobals::IsGraphicsInitialized
; Function compile flags: /Ogtpy
;	COMDAT ?IsGraphicsInitialized@CvDllGameContext@@UBG_NXZ
_TEXT	SEGMENT
_this$ = 8						; size = 4
?IsGraphicsInitialized@CvDllGameContext@@UBG_NXZ PROC	; CvDllGameContext::IsGraphicsInitialized, COMDAT

; 868  : 	return GC.IsGraphicsInitialized();

	mov	ecx, OFFSET ?gGlobals@@3VCvGlobals@@A	; gGlobals
	call	?IsGraphicsInitialized@CvGlobals@@QBE_NXZ ; CvGlobals::IsGraphicsInitialized

; 869  : }

	ret	4
?IsGraphicsInitialized@CvDllGameContext@@UBG_NXZ ENDP	; CvDllGameContext::IsGraphicsInitialized
_TEXT	ENDS
PUBLIC	?SetGraphicsInitialized@CvDllGameContext@@UAGX_N@Z ; CvDllGameContext::SetGraphicsInitialized
EXTRN	?SetGraphicsInitialized@CvGlobals@@QAEX_N@Z:PROC ; CvGlobals::SetGraphicsInitialized
; Function compile flags: /Ogtpy
;	COMDAT ?SetGraphicsInitialized@CvDllGameContext@@UAGX_N@Z
_TEXT	SEGMENT
_this$ = 8						; size = 4
_bVal$ = 12						; size = 1
?SetGraphicsInitialized@CvDllGameContext@@UAGX_N@Z PROC	; CvDllGameContext::SetGraphicsInitialized, COMDAT

; 873  : 	GC.SetGraphicsInitialized(bVal);

	mov	eax, DWORD PTR _bVal$[esp-4]
	push	eax
	mov	ecx, OFFSET ?gGlobals@@3VCvGlobals@@A	; gGlobals
	call	?SetGraphicsInitialized@CvGlobals@@QAEX_N@Z ; CvGlobals::SetGraphicsInitialized

; 874  : }

	ret	8
?SetGraphicsInitialized@CvDllGameContext@@UAGX_N@Z ENDP	; CvDllGameContext::SetGraphicsInitialized
_TEXT	ENDS
PUBLIC	?SetOutOfSyncDebuggingEnabled@CvDllGameContext@@UAGX_N@Z ; CvDllGameContext::SetOutOfSyncDebuggingEnabled
EXTRN	?setOutOfSyncDebuggingEnabled@CvGlobals@@QAEX_N@Z:PROC ; CvGlobals::setOutOfSyncDebuggingEnabled
; Function compile flags: /Ogtpy
;	COMDAT ?SetOutOfSyncDebuggingEnabled@CvDllGameContext@@UAGX_N@Z
_TEXT	SEGMENT
_this$ = 8						; size = 4
_isEnabled$ = 12					; size = 1
?SetOutOfSyncDebuggingEnabled@CvDllGameContext@@UAGX_N@Z PROC ; CvDllGameContext::SetOutOfSyncDebuggingEnabled, COMDAT

; 878  : 	GC.setOutOfSyncDebuggingEnabled(isEnabled);

	mov	eax, DWORD PTR _isEnabled$[esp-4]
	push	eax
	mov	ecx, OFFSET ?gGlobals@@3VCvGlobals@@A	; gGlobals
	call	?setOutOfSyncDebuggingEnabled@CvGlobals@@QAEX_N@Z ; CvGlobals::setOutOfSyncDebuggingEnabled

; 879  : }

	ret	8
?SetOutOfSyncDebuggingEnabled@CvDllGameContext@@UAGX_N@Z ENDP ; CvDllGameContext::SetOutOfSyncDebuggingEnabled
_TEXT	ENDS
PUBLIC	?size@?$vector@V?$basic_string@DU?$char_traits@D@std@@V?$allocator@D@2@@std@@V?$allocator@V?$basic_string@DU?$char_traits@D@std@@V?$allocator@D@2@@std@@@2@@std@@QBEIXZ ; std::vector<std::basic_string<char,std::char_traits<char>,std::allocator<char> >,std::allocator<std::basic_string<char,std::char_traits<char>,std::allocator<char> > > >::size
; Function compile flags: /Ogtpy
; File c:\program files (x86)\microsoft visual studio 9.0\vc\include\vector
;	COMDAT ?size@?$vector@V?$basic_string@DU?$char_traits@D@std@@V?$allocator@D@2@@std@@V?$allocator@V?$basic_string@DU?$char_traits@D@std@@V?$allocator@D@2@@std@@@2@@std@@QBEIXZ
_TEXT	SEGMENT
?size@?$vector@V?$basic_string@DU?$char_traits@D@std@@V?$allocator@D@2@@std@@V?$allocator@V?$basic_string@DU?$char_traits@D@std@@V?$allocator@D@2@@std@@@2@@std@@QBEIXZ PROC ; std::vector<std::basic_string<char,std::char_traits<char>,std::allocator<char> >,std::allocator<std::basic_string<char,std::char_traits<char>,std::allocator<char> > > >::size, COMDAT
; _this$ = ecx

; 725  : 		{	// return length of sequence

	push	esi

; 726  : 		return (_Mylast - _Myfirst);

	mov	esi, DWORD PTR [ecx+8]
	sub	esi, DWORD PTR [ecx+4]
	mov	eax, -1840700269			; 92492493H
	imul	esi
	add	edx, esi
	sar	edx, 4
	mov	eax, edx
	shr	eax, 31					; 0000001fH
	add	eax, edx
	pop	esi

; 727  : 		}

	ret	0
?size@?$vector@V?$basic_string@DU?$char_traits@D@std@@V?$allocator@D@2@@std@@V?$allocator@V?$basic_string@DU?$char_traits@D@std@@V?$allocator@D@2@@std@@@2@@std@@QBEIXZ ENDP ; std::vector<std::basic_string<char,std::char_traits<char>,std::allocator<char> >,std::allocator<std::basic_string<char,std::char_traits<char>,std::allocator<char> > > >::size
_TEXT	ENDS
PUBLIC	??A?$vector@V?$basic_string@DU?$char_traits@D@std@@V?$allocator@D@2@@std@@V?$allocator@V?$basic_string@DU?$char_traits@D@std@@V?$allocator@D@2@@std@@@2@@std@@QBEABV?$basic_string@DU?$char_traits@D@std@@V?$allocator@D@2@@1@I@Z ; std::vector<std::basic_string<char,std::char_traits<char>,std::allocator<char> >,std::allocator<std::basic_string<char,std::char_traits<char>,std::allocator<char> > > >::operator[]
; Function compile flags: /Ogtpy
;	COMDAT ??A?$vector@V?$basic_string@DU?$char_traits@D@std@@V?$allocator@D@2@@std@@V?$allocator@V?$basic_string@DU?$char_traits@D@std@@V?$allocator@D@2@@std@@@2@@std@@QBEABV?$basic_string@DU?$char_traits@D@std@@V?$allocator@D@2@@1@I@Z
_TEXT	SEGMENT
__Pos$ = 8						; size = 4
??A?$vector@V?$basic_string@DU?$char_traits@D@std@@V?$allocator@D@2@@std@@V?$allocator@V?$basic_string@DU?$char_traits@D@std@@V?$allocator@D@2@@std@@@2@@std@@QBEABV?$basic_string@DU?$char_traits@D@std@@V?$allocator@D@2@@1@I@Z PROC ; std::vector<std::basic_string<char,std::char_traits<char>,std::allocator<char> >,std::allocator<std::basic_string<char,std::char_traits<char>,std::allocator<char> > > >::operator[], COMDAT
; _this$ = ecx

; 760  : 
; 761  :  #if _HAS_ITERATOR_DEBUGGING
; 762  : 		if (size() <= _Pos)
; 763  : 			{
; 764  : 			_DEBUG_ERROR("vector subscript out of range");
; 765  : 			_SCL_SECURE_OUT_OF_RANGE;
; 766  : 			}
; 767  :  #endif /* _HAS_ITERATOR_DEBUGGING */
; 768  : 		_SCL_SECURE_VALIDATE_RANGE(_Pos < size());
; 769  : 
; 770  : 		return (*(_Myfirst + _Pos));

	mov	eax, DWORD PTR __Pos$[esp-4]
	lea	edx, DWORD PTR [eax*8]
	sub	edx, eax
	mov	eax, DWORD PTR [ecx+4]
	lea	eax, DWORD PTR [eax+edx*4]

; 771  : 		}

	ret	4
??A?$vector@V?$basic_string@DU?$char_traits@D@std@@V?$allocator@D@2@@std@@V?$allocator@V?$basic_string@DU?$char_traits@D@std@@V?$allocator@D@2@@std@@@2@@std@@QBEABV?$basic_string@DU?$char_traits@D@std@@V?$allocator@D@2@@1@I@Z ENDP ; std::vector<std::basic_string<char,std::char_traits<char>,std::allocator<char> >,std::allocator<std::basic_string<char,std::char_traits<char>,std::allocator<char> > > >::operator[]
_TEXT	ENDS
PUBLIC	??0?$pair@IPAVCvRandom@@@std@@QAE@ABIABQAVCvRandom@@@Z ; std::pair<unsigned int,CvRandom *>::pair<unsigned int,CvRandom *>
; Function compile flags: /Ogtpy
; File c:\program files (x86)\microsoft visual studio 9.0\vc\include\utility
;	COMDAT ??0?$pair@IPAVCvRandom@@@std@@QAE@ABIABQAVCvRandom@@@Z
_TEXT	SEGMENT
__Val1$ = 8						; size = 4
__Val2$ = 12						; size = 4
??0?$pair@IPAVCvRandom@@@std@@QAE@ABIABQAVCvRandom@@@Z PROC ; std::pair<unsigned int,CvRandom *>::pair<unsigned int,CvRandom *>, COMDAT
; _this$ = ecx

; 50   : 		{	// construct from specified values

	mov	eax, ecx
	mov	ecx, DWORD PTR __Val1$[esp-4]
	mov	edx, DWORD PTR [ecx]
	mov	ecx, DWORD PTR __Val2$[esp-4]
	mov	DWORD PTR [eax], edx
	mov	edx, DWORD PTR [ecx]
	mov	DWORD PTR [eax+4], edx

; 51   : 		}

	ret	8
??0?$pair@IPAVCvRandom@@@std@@QAE@ABIABQAVCvRandom@@@Z ENDP ; std::pair<unsigned int,CvRandom *>::pair<unsigned int,CvRandom *>
_TEXT	ENDS
PUBLIC	??0?$pair@IPAVCvDllNetInitInfo@@@std@@QAE@ABIABQAVCvDllNetInitInfo@@@Z ; std::pair<unsigned int,CvDllNetInitInfo *>::pair<unsigned int,CvDllNetInitInfo *>
; Function compile flags: /Ogtpy
;	COMDAT ??0?$pair@IPAVCvDllNetInitInfo@@@std@@QAE@ABIABQAVCvDllNetInitInfo@@@Z
_TEXT	SEGMENT
__Val1$ = 8						; size = 4
__Val2$ = 12						; size = 4
??0?$pair@IPAVCvDllNetInitInfo@@@std@@QAE@ABIABQAVCvDllNetInitInfo@@@Z PROC ; std::pair<unsigned int,CvDllNetInitInfo *>::pair<unsigned int,CvDllNetInitInfo *>, COMDAT
; _this$ = ecx

; 50   : 		{	// construct from specified values

	mov	eax, ecx
	mov	ecx, DWORD PTR __Val1$[esp-4]
	mov	edx, DWORD PTR [ecx]
	mov	ecx, DWORD PTR __Val2$[esp-4]
	mov	DWORD PTR [eax], edx
	mov	edx, DWORD PTR [ecx]
	mov	DWORD PTR [eax+4], edx

; 51   : 		}

	ret	8
??0?$pair@IPAVCvDllNetInitInfo@@@std@@QAE@ABIABQAVCvDllNetInitInfo@@@Z ENDP ; std::pair<unsigned int,CvDllNetInitInfo *>::pair<unsigned int,CvDllNetInitInfo *>
_TEXT	ENDS
PUBLIC	??0?$pair@IPAVCvDllNetLoadGameInfo@@@std@@QAE@ABIABQAVCvDllNetLoadGameInfo@@@Z ; std::pair<unsigned int,CvDllNetLoadGameInfo *>::pair<unsigned int,CvDllNetLoadGameInfo *>
; Function compile flags: /Ogtpy
;	COMDAT ??0?$pair@IPAVCvDllNetLoadGameInfo@@@std@@QAE@ABIABQAVCvDllNetLoadGameInfo@@@Z
_TEXT	SEGMENT
__Val1$ = 8						; size = 4
__Val2$ = 12						; size = 4
??0?$pair@IPAVCvDllNetLoadGameInfo@@@std@@QAE@ABIABQAVCvDllNetLoadGameInfo@@@Z PROC ; std::pair<unsigned int,CvDllNetLoadGameInfo *>::pair<unsigned int,CvDllNetLoadGameInfo *>, COMDAT
; _this$ = ecx

; 50   : 		{	// construct from specified values

	mov	eax, ecx
	mov	ecx, DWORD PTR __Val1$[esp-4]
	mov	edx, DWORD PTR [ecx]
	mov	ecx, DWORD PTR __Val2$[esp-4]
	mov	DWORD PTR [eax], edx
	mov	edx, DWORD PTR [ecx]
	mov	DWORD PTR [eax+4], edx

; 51   : 		}

	ret	8
??0?$pair@IPAVCvDllNetLoadGameInfo@@@std@@QAE@ABIABQAVCvDllNetLoadGameInfo@@@Z ENDP ; std::pair<unsigned int,CvDllNetLoadGameInfo *>::pair<unsigned int,CvDllNetLoadGameInfo *>
_TEXT	ENDS
PUBLIC	?size@?$vector@KV?$allocator@K@std@@@std@@QBEIXZ ; std::vector<unsigned long,std::allocator<unsigned long> >::size
; Function compile flags: /Ogtpy
; File c:\program files (x86)\microsoft visual studio 9.0\vc\include\vector
;	COMDAT ?size@?$vector@KV?$allocator@K@std@@@std@@QBEIXZ
_TEXT	SEGMENT
?size@?$vector@KV?$allocator@K@std@@@std@@QBEIXZ PROC	; std::vector<unsigned long,std::allocator<unsigned long> >::size, COMDAT
; _this$ = ecx

; 726  : 		return (_Mylast - _Myfirst);

	mov	eax, DWORD PTR [ecx+8]
	sub	eax, DWORD PTR [ecx+4]
	sar	eax, 2

; 727  : 		}

	ret	0
?size@?$vector@KV?$allocator@K@std@@@std@@QBEIXZ ENDP	; std::vector<unsigned long,std::allocator<unsigned long> >::size
_TEXT	ENDS
PUBLIC	??D?$_Vector_const_iterator@KV?$allocator@K@std@@@std@@QBEABKXZ ; std::_Vector_const_iterator<unsigned long,std::allocator<unsigned long> >::operator*
; Function compile flags: /Ogtpy
;	COMDAT ??D?$_Vector_const_iterator@KV?$allocator@K@std@@@std@@QBEABKXZ
_TEXT	SEGMENT
??D?$_Vector_const_iterator@KV?$allocator@K@std@@@std@@QBEABKXZ PROC ; std::_Vector_const_iterator<unsigned long,std::allocator<unsigned long> >::operator*, COMDAT
; _this$ = ecx

; 92   : 
; 93   :  #if _HAS_ITERATOR_DEBUGGING
; 94   : 		if (this->_Mycont == 0
; 95   : 			|| _Myptr < ((_Myvec *)this->_Mycont)->_Myfirst
; 96   : 			|| ((_Myvec *)this->_Mycont)->_Mylast <= _Myptr)
; 97   : 			{
; 98   : 			_DEBUG_ERROR("vector iterator not dereferencable");
; 99   : 			_SCL_SECURE_OUT_OF_RANGE;
; 100  : 			}
; 101  :  #else
; 102  :  		_SCL_SECURE_VALIDATE(this->_Has_container());
; 103  : 		_SCL_SECURE_VALIDATE_RANGE(_Myptr < ((_Myvec *)(this->_Getmycont()))->_Mylast);
; 104  :  #endif /* _HAS_ITERATOR_DEBUGGING */
; 105  : 
; 106  : 		return (*_Myptr);

	mov	eax, DWORD PTR [ecx]

; 107  : 		}

	ret	0
??D?$_Vector_const_iterator@KV?$allocator@K@std@@@std@@QBEABKXZ ENDP ; std::_Vector_const_iterator<unsigned long,std::allocator<unsigned long> >::operator*
_TEXT	ENDS
PUBLIC	??E?$_Vector_const_iterator@KV?$allocator@K@std@@@std@@QAEAAV01@XZ ; std::_Vector_const_iterator<unsigned long,std::allocator<unsigned long> >::operator++
; Function compile flags: /Ogtpy
;	COMDAT ??E?$_Vector_const_iterator@KV?$allocator@K@std@@@std@@QAEAAV01@XZ
_TEXT	SEGMENT
??E?$_Vector_const_iterator@KV?$allocator@K@std@@@std@@QAEAAV01@XZ PROC ; std::_Vector_const_iterator<unsigned long,std::allocator<unsigned long> >::operator++, COMDAT
; _this$ = ecx

; 115  : 		{	// preincrement

	mov	eax, ecx

; 116  : 		_SCL_SECURE_VALIDATE(this->_Has_container());
; 117  : 		_SCL_SECURE_VALIDATE_RANGE(_Myptr < ((_Myvec *)(this->_Getmycont()))->_Mylast);
; 118  : 
; 119  :  #if _HAS_ITERATOR_DEBUGGING
; 120  : 		if (this->_Mycont == 0
; 121  : 			|| ((_Myvec *)this->_Mycont)->_Mylast <= _Myptr)
; 122  : 			_DEBUG_ERROR("vector iterator not incrementable");
; 123  :  #endif /* _HAS_ITERATOR_DEBUGGING */
; 124  : 
; 125  : 		++_Myptr;

	add	DWORD PTR [eax], 4

; 126  : 		return (*this);
; 127  : 		}

	ret	0
??E?$_Vector_const_iterator@KV?$allocator@K@std@@@std@@QAEAAV01@XZ ENDP ; std::_Vector_const_iterator<unsigned long,std::allocator<unsigned long> >::operator++
_TEXT	ENDS
PUBLIC	??8?$_Vector_const_iterator@KV?$allocator@K@std@@@std@@QBE_NABV01@@Z ; std::_Vector_const_iterator<unsigned long,std::allocator<unsigned long> >::operator==
; Function compile flags: /Ogtpy
;	COMDAT ??8?$_Vector_const_iterator@KV?$allocator@K@std@@@std@@QBE_NABV01@@Z
_TEXT	SEGMENT
__Right$ = 8						; size = 4
??8?$_Vector_const_iterator@KV?$allocator@K@std@@@std@@QBE_NABV01@@Z PROC ; std::_Vector_const_iterator<unsigned long,std::allocator<unsigned long> >::operator==, COMDAT
; _this$ = ecx

; 204  : 
; 205  :  #if _HAS_ITERATOR_DEBUGGING
; 206  : 		_Compat(_Right);
; 207  :  #else
; 208  : 		_SCL_SECURE_VALIDATE(this->_Has_container() && this->_Same_container(_Right));
; 209  :  #endif /* _HAS_ITERATOR_DEBUGGING */
; 210  : 
; 211  : 		return (_Myptr == _Right._Myptr);

	mov	eax, DWORD PTR [ecx]
	mov	edx, DWORD PTR __Right$[esp-4]
	xor	ecx, ecx
	cmp	eax, DWORD PTR [edx]
	sete	cl
	mov	al, cl

; 212  : 		}

	ret	4
??8?$_Vector_const_iterator@KV?$allocator@K@std@@@std@@QBE_NABV01@@Z ENDP ; std::_Vector_const_iterator<unsigned long,std::allocator<unsigned long> >::operator==
_TEXT	ENDS
PUBLIC	??9?$_Vector_const_iterator@KV?$allocator@K@std@@@std@@QBE_NABV01@@Z ; std::_Vector_const_iterator<unsigned long,std::allocator<unsigned long> >::operator!=
; Function compile flags: /Ogtpy
;	COMDAT ??9?$_Vector_const_iterator@KV?$allocator@K@std@@@std@@QBE_NABV01@@Z
_TEXT	SEGMENT
__Right$ = 8						; size = 4
??9?$_Vector_const_iterator@KV?$allocator@K@std@@@std@@QBE_NABV01@@Z PROC ; std::_Vector_const_iterator<unsigned long,std::allocator<unsigned long> >::operator!=, COMDAT
; _this$ = ecx

; 216  : 		return (!(*this == _Right));

	mov	eax, DWORD PTR [ecx]
	mov	edx, DWORD PTR __Right$[esp-4]
	xor	ecx, ecx
	cmp	eax, DWORD PTR [edx]
	setne	cl
	mov	al, cl

; 217  : 		}

	ret	4
??9?$_Vector_const_iterator@KV?$allocator@K@std@@@std@@QBE_NABV01@@Z ENDP ; std::_Vector_const_iterator<unsigned long,std::allocator<unsigned long> >::operator!=
_TEXT	ENDS
PUBLIC	??0?$_Vector_const_iterator@V?$basic_string@DU?$char_traits@D@std@@V?$allocator@D@2@@std@@V?$allocator@V?$basic_string@DU?$char_traits@D@std@@V?$allocator@D@2@@std@@@2@@std@@QAE@XZ ; std::_Vector_const_iterator<std::basic_string<char,std::char_traits<char>,std::allocator<char> >,std::allocator<std::basic_string<char,std::char_traits<char>,std::allocator<char> > > >::_Vector_const_iterator<std::basic_string<char,std::char_traits<char>,std::allocator<char> >,std::allocator<std::basic_string<char,std::char_traits<char>,std::allocator<char> > > >
; Function compile flags: /Ogtpy
;	COMDAT ??0?$_Vector_const_iterator@V?$basic_string@DU?$char_traits@D@std@@V?$allocator@D@2@@std@@V?$allocator@V?$basic_string@DU?$char_traits@D@std@@V?$allocator@D@2@@std@@@2@@std@@QAE@XZ
_TEXT	SEGMENT
??0?$_Vector_const_iterator@V?$basic_string@DU?$char_traits@D@std@@V?$allocator@D@2@@std@@V?$allocator@V?$basic_string@DU?$char_traits@D@std@@V?$allocator@D@2@@std@@@2@@std@@QAE@XZ PROC ; std::_Vector_const_iterator<std::basic_string<char,std::char_traits<char>,std::allocator<char> >,std::allocator<std::basic_string<char,std::char_traits<char>,std::allocator<char> > > >::_Vector_const_iterator<std::basic_string<char,std::char_traits<char>,std::allocator<char> >,std::allocator<std::basic_string<char,std::char_traits<char>,std::allocator<char> > > >, COMDAT
; _this$ = ecx

; 62   : 	_Vector_const_iterator()

	mov	eax, ecx

; 63   : 		{	// construct with null pointer
; 64   : 		_Myptr = 0;

	mov	DWORD PTR [eax], 0

; 65   : 		}

	ret	0
??0?$_Vector_const_iterator@V?$basic_string@DU?$char_traits@D@std@@V?$allocator@D@2@@std@@V?$allocator@V?$basic_string@DU?$char_traits@D@std@@V?$allocator@D@2@@std@@@2@@std@@QAE@XZ ENDP ; std::_Vector_const_iterator<std::basic_string<char,std::char_traits<char>,std::allocator<char> >,std::allocator<std::basic_string<char,std::char_traits<char>,std::allocator<char> > > >::_Vector_const_iterator<std::basic_string<char,std::char_traits<char>,std::allocator<char> >,std::allocator<std::basic_string<char,std::char_traits<char>,std::allocator<char> > > >
_TEXT	ENDS
PUBLIC	??D?$_Vector_const_iterator@V?$basic_string@DU?$char_traits@D@std@@V?$allocator@D@2@@std@@V?$allocator@V?$basic_string@DU?$char_traits@D@std@@V?$allocator@D@2@@std@@@2@@std@@QBEABV?$basic_string@DU?$char_traits@D@std@@V?$allocator@D@2@@1@XZ ; std::_Vector_const_iterator<std::basic_string<char,std::char_traits<char>,std::allocator<char> >,std::allocator<std::basic_string<char,std::char_traits<char>,std::allocator<char> > > >::operator*
; Function compile flags: /Ogtpy
;	COMDAT ??D?$_Vector_const_iterator@V?$basic_string@DU?$char_traits@D@std@@V?$allocator@D@2@@std@@V?$allocator@V?$basic_string@DU?$char_traits@D@std@@V?$allocator@D@2@@std@@@2@@std@@QBEABV?$basic_string@DU?$char_traits@D@std@@V?$allocator@D@2@@1@XZ
_TEXT	SEGMENT
??D?$_Vector_const_iterator@V?$basic_string@DU?$char_traits@D@std@@V?$allocator@D@2@@std@@V?$allocator@V?$basic_string@DU?$char_traits@D@std@@V?$allocator@D@2@@std@@@2@@std@@QBEABV?$basic_string@DU?$char_traits@D@std@@V?$allocator@D@2@@1@XZ PROC ; std::_Vector_const_iterator<std::basic_string<char,std::char_traits<char>,std::allocator<char> >,std::allocator<std::basic_string<char,std::char_traits<char>,std::allocator<char> > > >::operator*, COMDAT
; _this$ = ecx

; 92   : 
; 93   :  #if _HAS_ITERATOR_DEBUGGING
; 94   : 		if (this->_Mycont == 0
; 95   : 			|| _Myptr < ((_Myvec *)this->_Mycont)->_Myfirst
; 96   : 			|| ((_Myvec *)this->_Mycont)->_Mylast <= _Myptr)
; 97   : 			{
; 98   : 			_DEBUG_ERROR("vector iterator not dereferencable");
; 99   : 			_SCL_SECURE_OUT_OF_RANGE;
; 100  : 			}
; 101  :  #else
; 102  :  		_SCL_SECURE_VALIDATE(this->_Has_container());
; 103  : 		_SCL_SECURE_VALIDATE_RANGE(_Myptr < ((_Myvec *)(this->_Getmycont()))->_Mylast);
; 104  :  #endif /* _HAS_ITERATOR_DEBUGGING */
; 105  : 
; 106  : 		return (*_Myptr);

	mov	eax, DWORD PTR [ecx]

; 107  : 		}

	ret	0
??D?$_Vector_const_iterator@V?$basic_string@DU?$char_traits@D@std@@V?$allocator@D@2@@std@@V?$allocator@V?$basic_string@DU?$char_traits@D@std@@V?$allocator@D@2@@std@@@2@@std@@QBEABV?$basic_string@DU?$char_traits@D@std@@V?$allocator@D@2@@1@XZ ENDP ; std::_Vector_const_iterator<std::basic_string<char,std::char_traits<char>,std::allocator<char> >,std::allocator<std::basic_string<char,std::char_traits<char>,std::allocator<char> > > >::operator*
_TEXT	ENDS
PUBLIC	??E?$_Vector_const_iterator@V?$basic_string@DU?$char_traits@D@std@@V?$allocator@D@2@@std@@V?$allocator@V?$basic_string@DU?$char_traits@D@std@@V?$allocator@D@2@@std@@@2@@std@@QAEAAV01@XZ ; std::_Vector_const_iterator<std::basic_string<char,std::char_traits<char>,std::allocator<char> >,std::allocator<std::basic_string<char,std::char_traits<char>,std::allocator<char> > > >::operator++
; Function compile flags: /Ogtpy
;	COMDAT ??E?$_Vector_const_iterator@V?$basic_string@DU?$char_traits@D@std@@V?$allocator@D@2@@std@@V?$allocator@V?$basic_string@DU?$char_traits@D@std@@V?$allocator@D@2@@std@@@2@@std@@QAEAAV01@XZ
_TEXT	SEGMENT
??E?$_Vector_const_iterator@V?$basic_string@DU?$char_traits@D@std@@V?$allocator@D@2@@std@@V?$allocator@V?$basic_string@DU?$char_traits@D@std@@V?$allocator@D@2@@std@@@2@@std@@QAEAAV01@XZ PROC ; std::_Vector_const_iterator<std::basic_string<char,std::char_traits<char>,std::allocator<char> >,std::allocator<std::basic_string<char,std::char_traits<char>,std::allocator<char> > > >::operator++, COMDAT
; _this$ = ecx

; 115  : 		{	// preincrement

	mov	eax, ecx

; 116  : 		_SCL_SECURE_VALIDATE(this->_Has_container());
; 117  : 		_SCL_SECURE_VALIDATE_RANGE(_Myptr < ((_Myvec *)(this->_Getmycont()))->_Mylast);
; 118  : 
; 119  :  #if _HAS_ITERATOR_DEBUGGING
; 120  : 		if (this->_Mycont == 0
; 121  : 			|| ((_Myvec *)this->_Mycont)->_Mylast <= _Myptr)
; 122  : 			_DEBUG_ERROR("vector iterator not incrementable");
; 123  :  #endif /* _HAS_ITERATOR_DEBUGGING */
; 124  : 
; 125  : 		++_Myptr;

	add	DWORD PTR [eax], 28			; 0000001cH

; 126  : 		return (*this);
; 127  : 		}

	ret	0
??E?$_Vector_const_iterator@V?$basic_string@DU?$char_traits@D@std@@V?$allocator@D@2@@std@@V?$allocator@V?$basic_string@DU?$char_traits@D@std@@V?$allocator@D@2@@std@@@2@@std@@QAEAAV01@XZ ENDP ; std::_Vector_const_iterator<std::basic_string<char,std::char_traits<char>,std::allocator<char> >,std::allocator<std::basic_string<char,std::char_traits<char>,std::allocator<char> > > >::operator++
_TEXT	ENDS
PUBLIC	?capacity@?$vector@U?$pair@IPAVCvRandom@@@std@@V?$allocator@U?$pair@IPAVCvRandom@@@std@@@2@@std@@QBEIXZ ; std::vector<std::pair<unsigned int,CvRandom *>,std::allocator<std::pair<unsigned int,CvRandom *> > >::capacity
; Function compile flags: /Ogtpy
;	COMDAT ?capacity@?$vector@U?$pair@IPAVCvRandom@@@std@@V?$allocator@U?$pair@IPAVCvRandom@@@std@@@2@@std@@QBEIXZ
_TEXT	SEGMENT
?capacity@?$vector@U?$pair@IPAVCvRandom@@@std@@V?$allocator@U?$pair@IPAVCvRandom@@@std@@@2@@std@@QBEIXZ PROC ; std::vector<std::pair<unsigned int,CvRandom *>,std::allocator<std::pair<unsigned int,CvRandom *> > >::capacity, COMDAT
; _this$ = ecx

; 635  : 		return (_Myfirst == 0 ? 0 : _Myend - _Myfirst);

	mov	edx, DWORD PTR [ecx+4]
	test	edx, edx
	jne	SHORT $LN3@capacity
	xor	eax, eax

; 636  : 		}

	ret	0
$LN3@capacity:

; 635  : 		return (_Myfirst == 0 ? 0 : _Myend - _Myfirst);

	mov	eax, DWORD PTR [ecx+12]
	sub	eax, edx
	sar	eax, 3

; 636  : 		}

	ret	0
?capacity@?$vector@U?$pair@IPAVCvRandom@@@std@@V?$allocator@U?$pair@IPAVCvRandom@@@std@@@2@@std@@QBEIXZ ENDP ; std::vector<std::pair<unsigned int,CvRandom *>,std::allocator<std::pair<unsigned int,CvRandom *> > >::capacity
_TEXT	ENDS
PUBLIC	?size@?$vector@U?$pair@IPAVCvRandom@@@std@@V?$allocator@U?$pair@IPAVCvRandom@@@std@@@2@@std@@QBEIXZ ; std::vector<std::pair<unsigned int,CvRandom *>,std::allocator<std::pair<unsigned int,CvRandom *> > >::size
; Function compile flags: /Ogtpy
;	COMDAT ?size@?$vector@U?$pair@IPAVCvRandom@@@std@@V?$allocator@U?$pair@IPAVCvRandom@@@std@@@2@@std@@QBEIXZ
_TEXT	SEGMENT
?size@?$vector@U?$pair@IPAVCvRandom@@@std@@V?$allocator@U?$pair@IPAVCvRandom@@@std@@@2@@std@@QBEIXZ PROC ; std::vector<std::pair<unsigned int,CvRandom *>,std::allocator<std::pair<unsigned int,CvRandom *> > >::size, COMDAT
; _this$ = ecx

; 726  : 		return (_Mylast - _Myfirst);

	mov	eax, DWORD PTR [ecx+8]
	sub	eax, DWORD PTR [ecx+4]
	sar	eax, 3

; 727  : 		}

	ret	0
?size@?$vector@U?$pair@IPAVCvRandom@@@std@@V?$allocator@U?$pair@IPAVCvRandom@@@std@@@2@@std@@QBEIXZ ENDP ; std::vector<std::pair<unsigned int,CvRandom *>,std::allocator<std::pair<unsigned int,CvRandom *> > >::size
_TEXT	ENDS
PUBLIC	??1?$_Container_base_aux_alloc_empty@V?$allocator@U?$pair@IPAVCvRandom@@@std@@@std@@@std@@IAE@XZ ; std::_Container_base_aux_alloc_empty<std::allocator<std::pair<unsigned int,CvRandom *> > >::~_Container_base_aux_alloc_empty<std::allocator<std::pair<unsigned int,CvRandom *> > >
; Function compile flags: /Ogtpy
; File c:\program files (x86)\microsoft visual studio 9.0\vc\include\xutility
;	COMDAT ??1?$_Container_base_aux_alloc_empty@V?$allocator@U?$pair@IPAVCvRandom@@@std@@@std@@@std@@IAE@XZ
_TEXT	SEGMENT
??1?$_Container_base_aux_alloc_empty@V?$allocator@U?$pair@IPAVCvRandom@@@std@@@std@@@std@@IAE@XZ PROC ; std::_Container_base_aux_alloc_empty<std::allocator<std::pair<unsigned int,CvRandom *> > >::~_Container_base_aux_alloc_empty<std::allocator<std::pair<unsigned int,CvRandom *> > >, COMDAT
; _this$ = ecx

; 627  : 	~_Container_base_aux_alloc_empty() { }

	ret	0
??1?$_Container_base_aux_alloc_empty@V?$allocator@U?$pair@IPAVCvRandom@@@std@@@std@@@std@@IAE@XZ ENDP ; std::_Container_base_aux_alloc_empty<std::allocator<std::pair<unsigned int,CvRandom *> > >::~_Container_base_aux_alloc_empty<std::allocator<std::pair<unsigned int,CvRandom *> > >
_TEXT	ENDS
PUBLIC	??0?$allocator@U?$pair@IPAVCvRandom@@@std@@@std@@QAE@XZ ; std::allocator<std::pair<unsigned int,CvRandom *> >::allocator<std::pair<unsigned int,CvRandom *> >
; Function compile flags: /Ogtpy
; File c:\program files (x86)\microsoft visual studio 9.0\vc\include\xmemory
;	COMDAT ??0?$allocator@U?$pair@IPAVCvRandom@@@std@@@std@@QAE@XZ
_TEXT	SEGMENT
??0?$allocator@U?$pair@IPAVCvRandom@@@std@@@std@@QAE@XZ PROC ; std::allocator<std::pair<unsigned int,CvRandom *> >::allocator<std::pair<unsigned int,CvRandom *> >, COMDAT
; _this$ = ecx

; 119  : 	allocator() _THROW0()

	mov	eax, ecx

; 120  : 		{	// construct default allocator (do nothing)
; 121  : 		}

	ret	0
??0?$allocator@U?$pair@IPAVCvRandom@@@std@@@std@@QAE@XZ ENDP ; std::allocator<std::pair<unsigned int,CvRandom *> >::allocator<std::pair<unsigned int,CvRandom *> >
_TEXT	ENDS
PUBLIC	?capacity@?$vector@U?$pair@IPAVCvDllNetInitInfo@@@std@@V?$allocator@U?$pair@IPAVCvDllNetInitInfo@@@std@@@2@@std@@QBEIXZ ; std::vector<std::pair<unsigned int,CvDllNetInitInfo *>,std::allocator<std::pair<unsigned int,CvDllNetInitInfo *> > >::capacity
; Function compile flags: /Ogtpy
; File c:\program files (x86)\microsoft visual studio 9.0\vc\include\vector
;	COMDAT ?capacity@?$vector@U?$pair@IPAVCvDllNetInitInfo@@@std@@V?$allocator@U?$pair@IPAVCvDllNetInitInfo@@@std@@@2@@std@@QBEIXZ
_TEXT	SEGMENT
?capacity@?$vector@U?$pair@IPAVCvDllNetInitInfo@@@std@@V?$allocator@U?$pair@IPAVCvDllNetInitInfo@@@std@@@2@@std@@QBEIXZ PROC ; std::vector<std::pair<unsigned int,CvDllNetInitInfo *>,std::allocator<std::pair<unsigned int,CvDllNetInitInfo *> > >::capacity, COMDAT
; _this$ = ecx

; 635  : 		return (_Myfirst == 0 ? 0 : _Myend - _Myfirst);

	mov	edx, DWORD PTR [ecx+4]
	test	edx, edx
	jne	SHORT $LN3@capacity@2
	xor	eax, eax

; 636  : 		}

	ret	0
$LN3@capacity@2:

; 635  : 		return (_Myfirst == 0 ? 0 : _Myend - _Myfirst);

	mov	eax, DWORD PTR [ecx+12]
	sub	eax, edx
	sar	eax, 3

; 636  : 		}

	ret	0
?capacity@?$vector@U?$pair@IPAVCvDllNetInitInfo@@@std@@V?$allocator@U?$pair@IPAVCvDllNetInitInfo@@@std@@@2@@std@@QBEIXZ ENDP ; std::vector<std::pair<unsigned int,CvDllNetInitInfo *>,std::allocator<std::pair<unsigned int,CvDllNetInitInfo *> > >::capacity
_TEXT	ENDS
PUBLIC	?size@?$vector@U?$pair@IPAVCvDllNetInitInfo@@@std@@V?$allocator@U?$pair@IPAVCvDllNetInitInfo@@@std@@@2@@std@@QBEIXZ ; std::vector<std::pair<unsigned int,CvDllNetInitInfo *>,std::allocator<std::pair<unsigned int,CvDllNetInitInfo *> > >::size
; Function compile flags: /Ogtpy
;	COMDAT ?size@?$vector@U?$pair@IPAVCvDllNetInitInfo@@@std@@V?$allocator@U?$pair@IPAVCvDllNetInitInfo@@@std@@@2@@std@@QBEIXZ
_TEXT	SEGMENT
?size@?$vector@U?$pair@IPAVCvDllNetInitInfo@@@std@@V?$allocator@U?$pair@IPAVCvDllNetInitInfo@@@std@@@2@@std@@QBEIXZ PROC ; std::vector<std::pair<unsigned int,CvDllNetInitInfo *>,std::allocator<std::pair<unsigned int,CvDllNetInitInfo *> > >::size, COMDAT
; _this$ = ecx

; 726  : 		return (_Mylast - _Myfirst);

	mov	eax, DWORD PTR [ecx+8]
	sub	eax, DWORD PTR [ecx+4]
	sar	eax, 3

; 727  : 		}

	ret	0
?size@?$vector@U?$pair@IPAVCvDllNetInitInfo@@@std@@V?$allocator@U?$pair@IPAVCvDllNetInitInfo@@@std@@@2@@std@@QBEIXZ ENDP ; std::vector<std::pair<unsigned int,CvDllNetInitInfo *>,std::allocator<std::pair<unsigned int,CvDllNetInitInfo *> > >::size
_TEXT	ENDS
PUBLIC	??1?$_Container_base_aux_alloc_empty@V?$allocator@U?$pair@IPAVCvDllNetInitInfo@@@std@@@std@@@std@@IAE@XZ ; std::_Container_base_aux_alloc_empty<std::allocator<std::pair<unsigned int,CvDllNetInitInfo *> > >::~_Container_base_aux_alloc_empty<std::allocator<std::pair<unsigned int,CvDllNetInitInfo *> > >
; Function compile flags: /Ogtpy
; File c:\program files (x86)\microsoft visual studio 9.0\vc\include\xutility
;	COMDAT ??1?$_Container_base_aux_alloc_empty@V?$allocator@U?$pair@IPAVCvDllNetInitInfo@@@std@@@std@@@std@@IAE@XZ
_TEXT	SEGMENT
??1?$_Container_base_aux_alloc_empty@V?$allocator@U?$pair@IPAVCvDllNetInitInfo@@@std@@@std@@@std@@IAE@XZ PROC ; std::_Container_base_aux_alloc_empty<std::allocator<std::pair<unsigned int,CvDllNetInitInfo *> > >::~_Container_base_aux_alloc_empty<std::allocator<std::pair<unsigned int,CvDllNetInitInfo *> > >, COMDAT
; _this$ = ecx

; 627  : 	~_Container_base_aux_alloc_empty() { }

	ret	0
??1?$_Container_base_aux_alloc_empty@V?$allocator@U?$pair@IPAVCvDllNetInitInfo@@@std@@@std@@@std@@IAE@XZ ENDP ; std::_Container_base_aux_alloc_empty<std::allocator<std::pair<unsigned int,CvDllNetInitInfo *> > >::~_Container_base_aux_alloc_empty<std::allocator<std::pair<unsigned int,CvDllNetInitInfo *> > >
_TEXT	ENDS
PUBLIC	??0?$allocator@U?$pair@IPAVCvDllNetInitInfo@@@std@@@std@@QAE@XZ ; std::allocator<std::pair<unsigned int,CvDllNetInitInfo *> >::allocator<std::pair<unsigned int,CvDllNetInitInfo *> >
; Function compile flags: /Ogtpy
; File c:\program files (x86)\microsoft visual studio 9.0\vc\include\xmemory
;	COMDAT ??0?$allocator@U?$pair@IPAVCvDllNetInitInfo@@@std@@@std@@QAE@XZ
_TEXT	SEGMENT
??0?$allocator@U?$pair@IPAVCvDllNetInitInfo@@@std@@@std@@QAE@XZ PROC ; std::allocator<std::pair<unsigned int,CvDllNetInitInfo *> >::allocator<std::pair<unsigned int,CvDllNetInitInfo *> >, COMDAT
; _this$ = ecx

; 119  : 	allocator() _THROW0()

	mov	eax, ecx

; 120  : 		{	// construct default allocator (do nothing)
; 121  : 		}

	ret	0
??0?$allocator@U?$pair@IPAVCvDllNetInitInfo@@@std@@@std@@QAE@XZ ENDP ; std::allocator<std::pair<unsigned int,CvDllNetInitInfo *> >::allocator<std::pair<unsigned int,CvDllNetInitInfo *> >
_TEXT	ENDS
PUBLIC	?capacity@?$vector@U?$pair@IPAVCvDllNetLoadGameInfo@@@std@@V?$allocator@U?$pair@IPAVCvDllNetLoadGameInfo@@@std@@@2@@std@@QBEIXZ ; std::vector<std::pair<unsigned int,CvDllNetLoadGameInfo *>,std::allocator<std::pair<unsigned int,CvDllNetLoadGameInfo *> > >::capacity
; Function compile flags: /Ogtpy
; File c:\program files (x86)\microsoft visual studio 9.0\vc\include\vector
;	COMDAT ?capacity@?$vector@U?$pair@IPAVCvDllNetLoadGameInfo@@@std@@V?$allocator@U?$pair@IPAVCvDllNetLoadGameInfo@@@std@@@2@@std@@QBEIXZ
_TEXT	SEGMENT
?capacity@?$vector@U?$pair@IPAVCvDllNetLoadGameInfo@@@std@@V?$allocator@U?$pair@IPAVCvDllNetLoadGameInfo@@@std@@@2@@std@@QBEIXZ PROC ; std::vector<std::pair<unsigned int,CvDllNetLoadGameInfo *>,std::allocator<std::pair<unsigned int,CvDllNetLoadGameInfo *> > >::capacity, COMDAT
; _this$ = ecx

; 635  : 		return (_Myfirst == 0 ? 0 : _Myend - _Myfirst);

	mov	edx, DWORD PTR [ecx+4]
	test	edx, edx
	jne	SHORT $LN3@capacity@3
	xor	eax, eax

; 636  : 		}

	ret	0
$LN3@capacity@3:

; 635  : 		return (_Myfirst == 0 ? 0 : _Myend - _Myfirst);

	mov	eax, DWORD PTR [ecx+12]
	sub	eax, edx
	sar	eax, 3

; 636  : 		}

	ret	0
?capacity@?$vector@U?$pair@IPAVCvDllNetLoadGameInfo@@@std@@V?$allocator@U?$pair@IPAVCvDllNetLoadGameInfo@@@std@@@2@@std@@QBEIXZ ENDP ; std::vector<std::pair<unsigned int,CvDllNetLoadGameInfo *>,std::allocator<std::pair<unsigned int,CvDllNetLoadGameInfo *> > >::capacity
_TEXT	ENDS
PUBLIC	?size@?$vector@U?$pair@IPAVCvDllNetLoadGameInfo@@@std@@V?$allocator@U?$pair@IPAVCvDllNetLoadGameInfo@@@std@@@2@@std@@QBEIXZ ; std::vector<std::pair<unsigned int,CvDllNetLoadGameInfo *>,std::allocator<std::pair<unsigned int,CvDllNetLoadGameInfo *> > >::size
; Function compile flags: /Ogtpy
;	COMDAT ?size@?$vector@U?$pair@IPAVCvDllNetLoadGameInfo@@@std@@V?$allocator@U?$pair@IPAVCvDllNetLoadGameInfo@@@std@@@2@@std@@QBEIXZ
_TEXT	SEGMENT
?size@?$vector@U?$pair@IPAVCvDllNetLoadGameInfo@@@std@@V?$allocator@U?$pair@IPAVCvDllNetLoadGameInfo@@@std@@@2@@std@@QBEIXZ PROC ; std::vector<std::pair<unsigned int,CvDllNetLoadGameInfo *>,std::allocator<std::pair<unsigned int,CvDllNetLoadGameInfo *> > >::size, COMDAT
; _this$ = ecx

; 726  : 		return (_Mylast - _Myfirst);

	mov	eax, DWORD PTR [ecx+8]
	sub	eax, DWORD PTR [ecx+4]
	sar	eax, 3

; 727  : 		}

	ret	0
?size@?$vector@U?$pair@IPAVCvDllNetLoadGameInfo@@@std@@V?$allocator@U?$pair@IPAVCvDllNetLoadGameInfo@@@std@@@2@@std@@QBEIXZ ENDP ; std::vector<std::pair<unsigned int,CvDllNetLoadGameInfo *>,std::allocator<std::pair<unsigned int,CvDllNetLoadGameInfo *> > >::size
_TEXT	ENDS
PUBLIC	??1?$_Container_base_aux_alloc_empty@V?$allocator@U?$pair@IPAVCvDllNetLoadGameInfo@@@std@@@std@@@std@@IAE@XZ ; std::_Container_base_aux_alloc_empty<std::allocator<std::pair<unsigned int,CvDllNetLoadGameInfo *> > >::~_Container_base_aux_alloc_empty<std::allocator<std::pair<unsigned int,CvDllNetLoadGameInfo *> > >
; Function compile flags: /Ogtpy
; File c:\program files (x86)\microsoft visual studio 9.0\vc\include\xutility
;	COMDAT ??1?$_Container_base_aux_alloc_empty@V?$allocator@U?$pair@IPAVCvDllNetLoadGameInfo@@@std@@@std@@@std@@IAE@XZ
_TEXT	SEGMENT
??1?$_Container_base_aux_alloc_empty@V?$allocator@U?$pair@IPAVCvDllNetLoadGameInfo@@@std@@@std@@@std@@IAE@XZ PROC ; std::_Container_base_aux_alloc_empty<std::allocator<std::pair<unsigned int,CvDllNetLoadGameInfo *> > >::~_Container_base_aux_alloc_empty<std::allocator<std::pair<unsigned int,CvDllNetLoadGameInfo *> > >, COMDAT
; _this$ = ecx

; 627  : 	~_Container_base_aux_alloc_empty() { }

	ret	0
??1?$_Container_base_aux_alloc_empty@V?$allocator@U?$pair@IPAVCvDllNetLoadGameInfo@@@std@@@std@@@std@@IAE@XZ ENDP ; std::_Container_base_aux_alloc_empty<std::allocator<std::pair<unsigned int,CvDllNetLoadGameInfo *> > >::~_Container_base_aux_alloc_empty<std::allocator<std::pair<unsigned int,CvDllNetLoadGameInfo *> > >
_TEXT	ENDS
PUBLIC	??0?$allocator@U?$pair@IPAVCvDllNetLoadGameInfo@@@std@@@std@@QAE@XZ ; std::allocator<std::pair<unsigned int,CvDllNetLoadGameInfo *> >::allocator<std::pair<unsigned int,CvDllNetLoadGameInfo *> >
; Function compile flags: /Ogtpy
; File c:\program files (x86)\microsoft visual studio 9.0\vc\include\xmemory
;	COMDAT ??0?$allocator@U?$pair@IPAVCvDllNetLoadGameInfo@@@std@@@std@@QAE@XZ
_TEXT	SEGMENT
??0?$allocator@U?$pair@IPAVCvDllNetLoadGameInfo@@@std@@@std@@QAE@XZ PROC ; std::allocator<std::pair<unsigned int,CvDllNetLoadGameInfo *> >::allocator<std::pair<unsigned int,CvDllNetLoadGameInfo *> >, COMDAT
; _this$ = ecx

; 119  : 	allocator() _THROW0()

	mov	eax, ecx

; 120  : 		{	// construct default allocator (do nothing)
; 121  : 		}

	ret	0
??0?$allocator@U?$pair@IPAVCvDllNetLoadGameInfo@@@std@@@std@@QAE@XZ ENDP ; std::allocator<std::pair<unsigned int,CvDllNetLoadGameInfo *> >::allocator<std::pair<unsigned int,CvDllNetLoadGameInfo *> >
_TEXT	ENDS
PUBLIC	?capacity@?$vector@UCvDllPathFinderUpdateListData@@V?$allocator@UCvDllPathFinderUpdateListData@@@std@@@std@@QBEIXZ ; std::vector<CvDllPathFinderUpdateListData,std::allocator<CvDllPathFinderUpdateListData> >::capacity
; Function compile flags: /Ogtpy
; File c:\program files (x86)\microsoft visual studio 9.0\vc\include\vector
;	COMDAT ?capacity@?$vector@UCvDllPathFinderUpdateListData@@V?$allocator@UCvDllPathFinderUpdateListData@@@std@@@std@@QBEIXZ
_TEXT	SEGMENT
?capacity@?$vector@UCvDllPathFinderUpdateListData@@V?$allocator@UCvDllPathFinderUpdateListData@@@std@@@std@@QBEIXZ PROC ; std::vector<CvDllPathFinderUpdateListData,std::allocator<CvDllPathFinderUpdateListData> >::capacity, COMDAT
; _this$ = ecx

; 635  : 		return (_Myfirst == 0 ? 0 : _Myend - _Myfirst);

	mov	eax, DWORD PTR [ecx+4]
	test	eax, eax
	jne	SHORT $LN3@capacity@4

; 636  : 		}

	ret	0
$LN3@capacity@4:

; 635  : 		return (_Myfirst == 0 ? 0 : _Myend - _Myfirst);

	mov	ecx, DWORD PTR [ecx+12]
	sub	ecx, eax
	mov	eax, 715827883				; 2aaaaaabH
	imul	ecx
	sar	edx, 1
	mov	eax, edx
	shr	eax, 31					; 0000001fH
	add	eax, edx

; 636  : 		}

	ret	0
?capacity@?$vector@UCvDllPathFinderUpdateListData@@V?$allocator@UCvDllPathFinderUpdateListData@@@std@@@std@@QBEIXZ ENDP ; std::vector<CvDllPathFinderUpdateListData,std::allocator<CvDllPathFinderUpdateListData> >::capacity
_TEXT	ENDS
PUBLIC	?size@?$vector@UCvDllPathFinderUpdateListData@@V?$allocator@UCvDllPathFinderUpdateListData@@@std@@@std@@QBEIXZ ; std::vector<CvDllPathFinderUpdateListData,std::allocator<CvDllPathFinderUpdateListData> >::size
; Function compile flags: /Ogtpy
;	COMDAT ?size@?$vector@UCvDllPathFinderUpdateListData@@V?$allocator@UCvDllPathFinderUpdateListData@@@std@@@std@@QBEIXZ
_TEXT	SEGMENT
?size@?$vector@UCvDllPathFinderUpdateListData@@V?$allocator@UCvDllPathFinderUpdateListData@@@std@@@std@@QBEIXZ PROC ; std::vector<CvDllPathFinderUpdateListData,std::allocator<CvDllPathFinderUpdateListData> >::size, COMDAT
; _this$ = ecx

; 726  : 		return (_Mylast - _Myfirst);

	mov	edx, DWORD PTR [ecx+8]
	sub	edx, DWORD PTR [ecx+4]
	mov	eax, 715827883				; 2aaaaaabH
	imul	edx
	sar	edx, 1
	mov	eax, edx
	shr	eax, 31					; 0000001fH
	add	eax, edx

; 727  : 		}

	ret	0
?size@?$vector@UCvDllPathFinderUpdateListData@@V?$allocator@UCvDllPathFinderUpdateListData@@@std@@@std@@QBEIXZ ENDP ; std::vector<CvDllPathFinderUpdateListData,std::allocator<CvDllPathFinderUpdateListData> >::size
_TEXT	ENDS
PUBLIC	__TI3?AVlength_error@std@@
PUBLIC	??_C@_0BD@OLBABOEK@vector?$DMT?$DO?5too?5long?$AA@ ; `string'
PUBLIC	?_Xlen@?$vector@UCvDllPathFinderUpdateListData@@V?$allocator@UCvDllPathFinderUpdateListData@@@std@@@std@@KAXXZ ; std::vector<CvDllPathFinderUpdateListData,std::allocator<CvDllPathFinderUpdateListData> >::_Xlen
PUBLIC	__CTA3?AVlength_error@std@@
PUBLIC	__CT??_R0?AVlength_error@std@@@8??0length_error@std@@QAE@ABV01@@Z40
PUBLIC	??0length_error@std@@QAE@ABV01@@Z		; std::length_error::length_error
PUBLIC	__CT??_R0?AVlogic_error@std@@@8??0logic_error@std@@QAE@ABV01@@Z40
PUBLIC	??0logic_error@std@@QAE@ABV01@@Z		; std::logic_error::logic_error
PUBLIC	__CT??_R0?AVexception@std@@@8??0exception@std@@QAE@ABV01@@Z12
EXTRN	__imp_??0?$basic_string@DU?$char_traits@D@std@@V?$allocator@D@2@@std@@QAE@PBD@Z:PROC
EXTRN	__CxxThrowException@8:PROC
EXTRN	??0exception@std@@QAE@ABV01@@Z:PROC		; std::exception::exception
;	COMDAT __CT??_R0?AVexception@std@@@8??0exception@std@@QAE@ABV01@@Z12
; File c:\program files (x86)\microsoft visual studio 9.0\vc\include\stdexcept
xdata$x	SEGMENT
__CT??_R0?AVexception@std@@@8??0exception@std@@QAE@ABV01@@Z12 DD 00H
	DD	FLAT:??_R0?AVexception@std@@@8
	DD	00H
	DD	0ffffffffH
	ORG $+4
	DD	0cH
	DD	FLAT:??0exception@std@@QAE@ABV01@@Z
xdata$x	ENDS
;	COMDAT __CT??_R0?AVlogic_error@std@@@8??0logic_error@std@@QAE@ABV01@@Z40
xdata$x	SEGMENT
__CT??_R0?AVlogic_error@std@@@8??0logic_error@std@@QAE@ABV01@@Z40 DD 00H
	DD	FLAT:??_R0?AVlogic_error@std@@@8
	DD	00H
	DD	0ffffffffH
	ORG $+4
	DD	028H
	DD	FLAT:??0logic_error@std@@QAE@ABV01@@Z
xdata$x	ENDS
;	COMDAT __CT??_R0?AVlength_error@std@@@8??0length_error@std@@QAE@ABV01@@Z40
xdata$x	SEGMENT
__CT??_R0?AVlength_error@std@@@8??0length_error@std@@QAE@ABV01@@Z40 DD 00H
	DD	FLAT:??_R0?AVlength_error@std@@@8
	DD	00H
	DD	0ffffffffH
	ORG $+4
	DD	028H
	DD	FLAT:??0length_error@std@@QAE@ABV01@@Z
xdata$x	ENDS
;	COMDAT __CTA3?AVlength_error@std@@
xdata$x	SEGMENT
__CTA3?AVlength_error@std@@ DD 03H
	DD	FLAT:__CT??_R0?AVlength_error@std@@@8??0length_error@std@@QAE@ABV01@@Z40
	DD	FLAT:__CT??_R0?AVlogic_error@std@@@8??0logic_error@std@@QAE@ABV01@@Z40
	DD	FLAT:__CT??_R0?AVexception@std@@@8??0exception@std@@QAE@ABV01@@Z12
xdata$x	ENDS
;	COMDAT __TI3?AVlength_error@std@@
xdata$x	SEGMENT
__TI3?AVlength_error@std@@ DD 00H
	DD	FLAT:??1length_error@std@@UAE@XZ
	DD	00H
	DD	FLAT:__CTA3?AVlength_error@std@@
xdata$x	ENDS
;	COMDAT ??_C@_0BD@OLBABOEK@vector?$DMT?$DO?5too?5long?$AA@
CONST	SEGMENT
??_C@_0BD@OLBABOEK@vector?$DMT?$DO?5too?5long?$AA@ DB 'vector<T> too long'
	DB	00H						; `string'
CONST	ENDS
;	COMDAT xdata$x
xdata$x	SEGMENT
__unwindtable$?_Xlen@?$vector@UCvDllPathFinderUpdateListData@@V?$allocator@UCvDllPathFinderUpdateListData@@@std@@@std@@KAXXZ DD 0ffffffffH
	DD	FLAT:__unwindfunclet$?_Xlen@?$vector@UCvDllPathFinderUpdateListData@@V?$allocator@UCvDllPathFinderUpdateListData@@@std@@@std@@KAXXZ$0
	DD	00H
	DD	FLAT:__unwindfunclet$?_Xlen@?$vector@UCvDllPathFinderUpdateListData@@V?$allocator@UCvDllPathFinderUpdateListData@@@std@@@std@@KAXXZ$2
__ehfuncinfo$?_Xlen@?$vector@UCvDllPathFinderUpdateListData@@V?$allocator@UCvDllPathFinderUpdateListData@@@std@@@std@@KAXXZ DD 019930522H
	DD	02H
	DD	FLAT:__unwindtable$?_Xlen@?$vector@UCvDllPathFinderUpdateListData@@V?$allocator@UCvDllPathFinderUpdateListData@@@std@@@std@@KAXXZ
	DD	2 DUP(00H)
	DD	2 DUP(00H)
	DD	00H
	DD	01H
; Function compile flags: /Ogtpy
; File c:\program files (x86)\microsoft visual studio 9.0\vc\include\vector
xdata$x	ENDS
;	COMDAT ?_Xlen@?$vector@UCvDllPathFinderUpdateListData@@V?$allocator@UCvDllPathFinderUpdateListData@@@std@@@std@@KAXXZ
_TEXT	SEGMENT
$T228590 = -80						; size = 28
$T228589 = -52						; size = 40
__$EHRec$ = -12						; size = 12
?_Xlen@?$vector@UCvDllPathFinderUpdateListData@@V?$allocator@UCvDllPathFinderUpdateListData@@@std@@@std@@KAXXZ PROC ; std::vector<CvDllPathFinderUpdateListData,std::allocator<CvDllPathFinderUpdateListData> >::_Xlen, COMDAT

; 1259 : 		{	// report a length_error

	push	-1
	push	__ehhandler$?_Xlen@?$vector@UCvDllPathFinderUpdateListData@@V?$allocator@UCvDllPathFinderUpdateListData@@@std@@@std@@KAXXZ
	mov	eax, DWORD PTR fs:0
	push	eax
	mov	DWORD PTR fs:0, esp
	sub	esp, 68					; 00000044H

; 1260 : 		_THROW(length_error, "vector<T> too long");

	push	OFFSET ??_C@_0BD@OLBABOEK@vector?$DMT?$DO?5too?5long?$AA@
	lea	ecx, DWORD PTR $T228590[esp+84]
	call	DWORD PTR __imp_??0?$basic_string@DU?$char_traits@D@std@@V?$allocator@D@2@@std@@QAE@PBD@Z
	lea	ecx, DWORD PTR $T228589[esp+80]
	mov	DWORD PTR __$EHRec$[esp+88], 0
	call	DWORD PTR __imp_??0exception@std@@QAE@XZ
	lea	eax, DWORD PTR $T228590[esp+80]
	push	eax
	lea	ecx, DWORD PTR $T228589[esp+96]
	mov	BYTE PTR __$EHRec$[esp+92], 1
	mov	DWORD PTR $T228589[esp+84], OFFSET ??_7logic_error@std@@6B@
	call	DWORD PTR __imp_??0?$basic_string@DU?$char_traits@D@std@@V?$allocator@D@2@@std@@QAE@ABV01@@Z
	push	OFFSET __TI3?AVlength_error@std@@
	lea	ecx, DWORD PTR $T228589[esp+84]
	push	ecx
	mov	BYTE PTR __$EHRec$[esp+96], 0
	mov	DWORD PTR $T228589[esp+88], OFFSET ??_7length_error@std@@6B@
	call	__CxxThrowException@8
$LN13@Xlen:
$LN12@Xlen:
	int	3
_TEXT	ENDS
;	COMDAT text$x
text$x	SEGMENT
__unwindfunclet$?_Xlen@?$vector@UCvDllPathFinderUpdateListData@@V?$allocator@UCvDllPathFinderUpdateListData@@@std@@@std@@KAXXZ$0:
	lea	ecx, DWORD PTR $T228590[ebp]
	jmp	DWORD PTR __imp_??1?$basic_string@DU?$char_traits@D@std@@V?$allocator@D@2@@std@@QAE@XZ
__unwindfunclet$?_Xlen@?$vector@UCvDllPathFinderUpdateListData@@V?$allocator@UCvDllPathFinderUpdateListData@@@std@@@std@@KAXXZ$2:
	lea	ecx, DWORD PTR $T228589[ebp]
	jmp	DWORD PTR __imp_??1exception@std@@UAE@XZ
__ehhandler$?_Xlen@?$vector@UCvDllPathFinderUpdateListData@@V?$allocator@UCvDllPathFinderUpdateListData@@@std@@@std@@KAXXZ:
	mov	eax, OFFSET __ehfuncinfo$?_Xlen@?$vector@UCvDllPathFinderUpdateListData@@V?$allocator@UCvDllPathFinderUpdateListData@@@std@@@std@@KAXXZ
	jmp	___CxxFrameHandler3
text$x	ENDS
?_Xlen@?$vector@UCvDllPathFinderUpdateListData@@V?$allocator@UCvDllPathFinderUpdateListData@@@std@@@std@@KAXXZ ENDP ; std::vector<CvDllPathFinderUpdateListData,std::allocator<CvDllPathFinderUpdateListData> >::_Xlen
PUBLIC	??1?$_Container_base_aux_alloc_empty@V?$allocator@UCvDllPathFinderUpdateListData@@@std@@@std@@IAE@XZ ; std::_Container_base_aux_alloc_empty<std::allocator<CvDllPathFinderUpdateListData> >::~_Container_base_aux_alloc_empty<std::allocator<CvDllPathFinderUpdateListData> >
; Function compile flags: /Ogtpy
; File c:\program files (x86)\microsoft visual studio 9.0\vc\include\xutility
;	COMDAT ??1?$_Container_base_aux_alloc_empty@V?$allocator@UCvDllPathFinderUpdateListData@@@std@@@std@@IAE@XZ
_TEXT	SEGMENT
??1?$_Container_base_aux_alloc_empty@V?$allocator@UCvDllPathFinderUpdateListData@@@std@@@std@@IAE@XZ PROC ; std::_Container_base_aux_alloc_empty<std::allocator<CvDllPathFinderUpdateListData> >::~_Container_base_aux_alloc_empty<std::allocator<CvDllPathFinderUpdateListData> >, COMDAT
; _this$ = ecx

; 627  : 	~_Container_base_aux_alloc_empty() { }

	ret	0
??1?$_Container_base_aux_alloc_empty@V?$allocator@UCvDllPathFinderUpdateListData@@@std@@@std@@IAE@XZ ENDP ; std::_Container_base_aux_alloc_empty<std::allocator<CvDllPathFinderUpdateListData> >::~_Container_base_aux_alloc_empty<std::allocator<CvDllPathFinderUpdateListData> >
_TEXT	ENDS
PUBLIC	??0?$allocator@UCvDllPathFinderUpdateListData@@@std@@QAE@XZ ; std::allocator<CvDllPathFinderUpdateListData>::allocator<CvDllPathFinderUpdateListData>
; Function compile flags: /Ogtpy
; File c:\program files (x86)\microsoft visual studio 9.0\vc\include\xmemory
;	COMDAT ??0?$allocator@UCvDllPathFinderUpdateListData@@@std@@QAE@XZ
_TEXT	SEGMENT
??0?$allocator@UCvDllPathFinderUpdateListData@@@std@@QAE@XZ PROC ; std::allocator<CvDllPathFinderUpdateListData>::allocator<CvDllPathFinderUpdateListData>, COMDAT
; _this$ = ecx

; 119  : 	allocator() _THROW0()

	mov	eax, ecx

; 120  : 		{	// construct default allocator (do nothing)
; 121  : 		}

	ret	0
??0?$allocator@UCvDllPathFinderUpdateListData@@@std@@QAE@XZ ENDP ; std::allocator<CvDllPathFinderUpdateListData>::allocator<CvDllPathFinderUpdateListData>
_TEXT	ENDS
PUBLIC	?deallocate@?$allocator@UCvDllPathFinderUpdateListData@@@std@@QAEXPAUCvDllPathFinderUpdateListData@@I@Z ; std::allocator<CvDllPathFinderUpdateListData>::deallocate
; Function compile flags: /Ogtpy
;	COMDAT ?deallocate@?$allocator@UCvDllPathFinderUpdateListData@@@std@@QAEXPAUCvDllPathFinderUpdateListData@@I@Z
_TEXT	SEGMENT
__Ptr$ = 8						; size = 4
___formal$ = 12						; size = 4
?deallocate@?$allocator@UCvDllPathFinderUpdateListData@@@std@@QAEXPAUCvDllPathFinderUpdateListData@@I@Z PROC ; std::allocator<CvDllPathFinderUpdateListData>::deallocate, COMDAT
; _this$ = ecx

; 140  : 		::operator delete(_Ptr);

	mov	eax, DWORD PTR __Ptr$[esp-4]
	push	eax
	call	??3@YAXPAX@Z				; operator delete
	pop	ecx

; 141  : 		}

	ret	8
?deallocate@?$allocator@UCvDllPathFinderUpdateListData@@@std@@QAEXPAUCvDllPathFinderUpdateListData@@I@Z ENDP ; std::allocator<CvDllPathFinderUpdateListData>::deallocate
_TEXT	ENDS
PUBLIC	??D?$_Vector_const_iterator@U?$pair@IPAVCvRandom@@@std@@V?$allocator@U?$pair@IPAVCvRandom@@@std@@@2@@std@@QBEABU?$pair@IPAVCvRandom@@@1@XZ ; std::_Vector_const_iterator<std::pair<unsigned int,CvRandom *>,std::allocator<std::pair<unsigned int,CvRandom *> > >::operator*
; Function compile flags: /Ogtpy
; File c:\program files (x86)\microsoft visual studio 9.0\vc\include\vector
;	COMDAT ??D?$_Vector_const_iterator@U?$pair@IPAVCvRandom@@@std@@V?$allocator@U?$pair@IPAVCvRandom@@@std@@@2@@std@@QBEABU?$pair@IPAVCvRandom@@@1@XZ
_TEXT	SEGMENT
??D?$_Vector_const_iterator@U?$pair@IPAVCvRandom@@@std@@V?$allocator@U?$pair@IPAVCvRandom@@@std@@@2@@std@@QBEABU?$pair@IPAVCvRandom@@@1@XZ PROC ; std::_Vector_const_iterator<std::pair<unsigned int,CvRandom *>,std::allocator<std::pair<unsigned int,CvRandom *> > >::operator*, COMDAT
; _this$ = ecx

; 92   : 
; 93   :  #if _HAS_ITERATOR_DEBUGGING
; 94   : 		if (this->_Mycont == 0
; 95   : 			|| _Myptr < ((_Myvec *)this->_Mycont)->_Myfirst
; 96   : 			|| ((_Myvec *)this->_Mycont)->_Mylast <= _Myptr)
; 97   : 			{
; 98   : 			_DEBUG_ERROR("vector iterator not dereferencable");
; 99   : 			_SCL_SECURE_OUT_OF_RANGE;
; 100  : 			}
; 101  :  #else
; 102  :  		_SCL_SECURE_VALIDATE(this->_Has_container());
; 103  : 		_SCL_SECURE_VALIDATE_RANGE(_Myptr < ((_Myvec *)(this->_Getmycont()))->_Mylast);
; 104  :  #endif /* _HAS_ITERATOR_DEBUGGING */
; 105  : 
; 106  : 		return (*_Myptr);

	mov	eax, DWORD PTR [ecx]

; 107  : 		}

	ret	0
??D?$_Vector_const_iterator@U?$pair@IPAVCvRandom@@@std@@V?$allocator@U?$pair@IPAVCvRandom@@@std@@@2@@std@@QBEABU?$pair@IPAVCvRandom@@@1@XZ ENDP ; std::_Vector_const_iterator<std::pair<unsigned int,CvRandom *>,std::allocator<std::pair<unsigned int,CvRandom *> > >::operator*
_TEXT	ENDS
PUBLIC	??E?$_Vector_const_iterator@U?$pair@IPAVCvRandom@@@std@@V?$allocator@U?$pair@IPAVCvRandom@@@std@@@2@@std@@QAEAAV01@XZ ; std::_Vector_const_iterator<std::pair<unsigned int,CvRandom *>,std::allocator<std::pair<unsigned int,CvRandom *> > >::operator++
; Function compile flags: /Ogtpy
;	COMDAT ??E?$_Vector_const_iterator@U?$pair@IPAVCvRandom@@@std@@V?$allocator@U?$pair@IPAVCvRandom@@@std@@@2@@std@@QAEAAV01@XZ
_TEXT	SEGMENT
??E?$_Vector_const_iterator@U?$pair@IPAVCvRandom@@@std@@V?$allocator@U?$pair@IPAVCvRandom@@@std@@@2@@std@@QAEAAV01@XZ PROC ; std::_Vector_const_iterator<std::pair<unsigned int,CvRandom *>,std::allocator<std::pair<unsigned int,CvRandom *> > >::operator++, COMDAT
; _this$ = ecx

; 115  : 		{	// preincrement

	mov	eax, ecx

; 116  : 		_SCL_SECURE_VALIDATE(this->_Has_container());
; 117  : 		_SCL_SECURE_VALIDATE_RANGE(_Myptr < ((_Myvec *)(this->_Getmycont()))->_Mylast);
; 118  : 
; 119  :  #if _HAS_ITERATOR_DEBUGGING
; 120  : 		if (this->_Mycont == 0
; 121  : 			|| ((_Myvec *)this->_Mycont)->_Mylast <= _Myptr)
; 122  : 			_DEBUG_ERROR("vector iterator not incrementable");
; 123  :  #endif /* _HAS_ITERATOR_DEBUGGING */
; 124  : 
; 125  : 		++_Myptr;

	add	DWORD PTR [eax], 8

; 126  : 		return (*this);
; 127  : 		}

	ret	0
??E?$_Vector_const_iterator@U?$pair@IPAVCvRandom@@@std@@V?$allocator@U?$pair@IPAVCvRandom@@@std@@@2@@std@@QAEAAV01@XZ ENDP ; std::_Vector_const_iterator<std::pair<unsigned int,CvRandom *>,std::allocator<std::pair<unsigned int,CvRandom *> > >::operator++
_TEXT	ENDS
PUBLIC	??8?$_Vector_const_iterator@U?$pair@IPAVCvRandom@@@std@@V?$allocator@U?$pair@IPAVCvRandom@@@std@@@2@@std@@QBE_NABV01@@Z ; std::_Vector_const_iterator<std::pair<unsigned int,CvRandom *>,std::allocator<std::pair<unsigned int,CvRandom *> > >::operator==
; Function compile flags: /Ogtpy
;	COMDAT ??8?$_Vector_const_iterator@U?$pair@IPAVCvRandom@@@std@@V?$allocator@U?$pair@IPAVCvRandom@@@std@@@2@@std@@QBE_NABV01@@Z
_TEXT	SEGMENT
__Right$ = 8						; size = 4
??8?$_Vector_const_iterator@U?$pair@IPAVCvRandom@@@std@@V?$allocator@U?$pair@IPAVCvRandom@@@std@@@2@@std@@QBE_NABV01@@Z PROC ; std::_Vector_const_iterator<std::pair<unsigned int,CvRandom *>,std::allocator<std::pair<unsigned int,CvRandom *> > >::operator==, COMDAT
; _this$ = ecx

; 204  : 
; 205  :  #if _HAS_ITERATOR_DEBUGGING
; 206  : 		_Compat(_Right);
; 207  :  #else
; 208  : 		_SCL_SECURE_VALIDATE(this->_Has_container() && this->_Same_container(_Right));
; 209  :  #endif /* _HAS_ITERATOR_DEBUGGING */
; 210  : 
; 211  : 		return (_Myptr == _Right._Myptr);

	mov	eax, DWORD PTR [ecx]
	mov	edx, DWORD PTR __Right$[esp-4]
	xor	ecx, ecx
	cmp	eax, DWORD PTR [edx]
	sete	cl
	mov	al, cl

; 212  : 		}

	ret	4
??8?$_Vector_const_iterator@U?$pair@IPAVCvRandom@@@std@@V?$allocator@U?$pair@IPAVCvRandom@@@std@@@2@@std@@QBE_NABV01@@Z ENDP ; std::_Vector_const_iterator<std::pair<unsigned int,CvRandom *>,std::allocator<std::pair<unsigned int,CvRandom *> > >::operator==
_TEXT	ENDS
PUBLIC	??D?$_Vector_const_iterator@U?$pair@IPAVCvDllNetInitInfo@@@std@@V?$allocator@U?$pair@IPAVCvDllNetInitInfo@@@std@@@2@@std@@QBEABU?$pair@IPAVCvDllNetInitInfo@@@1@XZ ; std::_Vector_const_iterator<std::pair<unsigned int,CvDllNetInitInfo *>,std::allocator<std::pair<unsigned int,CvDllNetInitInfo *> > >::operator*
; Function compile flags: /Ogtpy
;	COMDAT ??D?$_Vector_const_iterator@U?$pair@IPAVCvDllNetInitInfo@@@std@@V?$allocator@U?$pair@IPAVCvDllNetInitInfo@@@std@@@2@@std@@QBEABU?$pair@IPAVCvDllNetInitInfo@@@1@XZ
_TEXT	SEGMENT
??D?$_Vector_const_iterator@U?$pair@IPAVCvDllNetInitInfo@@@std@@V?$allocator@U?$pair@IPAVCvDllNetInitInfo@@@std@@@2@@std@@QBEABU?$pair@IPAVCvDllNetInitInfo@@@1@XZ PROC ; std::_Vector_const_iterator<std::pair<unsigned int,CvDllNetInitInfo *>,std::allocator<std::pair<unsigned int,CvDllNetInitInfo *> > >::operator*, COMDAT
; _this$ = ecx

; 92   : 
; 93   :  #if _HAS_ITERATOR_DEBUGGING
; 94   : 		if (this->_Mycont == 0
; 95   : 			|| _Myptr < ((_Myvec *)this->_Mycont)->_Myfirst
; 96   : 			|| ((_Myvec *)this->_Mycont)->_Mylast <= _Myptr)
; 97   : 			{
; 98   : 			_DEBUG_ERROR("vector iterator not dereferencable");
; 99   : 			_SCL_SECURE_OUT_OF_RANGE;
; 100  : 			}
; 101  :  #else
; 102  :  		_SCL_SECURE_VALIDATE(this->_Has_container());
; 103  : 		_SCL_SECURE_VALIDATE_RANGE(_Myptr < ((_Myvec *)(this->_Getmycont()))->_Mylast);
; 104  :  #endif /* _HAS_ITERATOR_DEBUGGING */
; 105  : 
; 106  : 		return (*_Myptr);

	mov	eax, DWORD PTR [ecx]

; 107  : 		}

	ret	0
??D?$_Vector_const_iterator@U?$pair@IPAVCvDllNetInitInfo@@@std@@V?$allocator@U?$pair@IPAVCvDllNetInitInfo@@@std@@@2@@std@@QBEABU?$pair@IPAVCvDllNetInitInfo@@@1@XZ ENDP ; std::_Vector_const_iterator<std::pair<unsigned int,CvDllNetInitInfo *>,std::allocator<std::pair<unsigned int,CvDllNetInitInfo *> > >::operator*
_TEXT	ENDS
PUBLIC	??E?$_Vector_const_iterator@U?$pair@IPAVCvDllNetInitInfo@@@std@@V?$allocator@U?$pair@IPAVCvDllNetInitInfo@@@std@@@2@@std@@QAEAAV01@XZ ; std::_Vector_const_iterator<std::pair<unsigned int,CvDllNetInitInfo *>,std::allocator<std::pair<unsigned int,CvDllNetInitInfo *> > >::operator++
; Function compile flags: /Ogtpy
;	COMDAT ??E?$_Vector_const_iterator@U?$pair@IPAVCvDllNetInitInfo@@@std@@V?$allocator@U?$pair@IPAVCvDllNetInitInfo@@@std@@@2@@std@@QAEAAV01@XZ
_TEXT	SEGMENT
??E?$_Vector_const_iterator@U?$pair@IPAVCvDllNetInitInfo@@@std@@V?$allocator@U?$pair@IPAVCvDllNetInitInfo@@@std@@@2@@std@@QAEAAV01@XZ PROC ; std::_Vector_const_iterator<std::pair<unsigned int,CvDllNetInitInfo *>,std::allocator<std::pair<unsigned int,CvDllNetInitInfo *> > >::operator++, COMDAT
; _this$ = ecx

; 115  : 		{	// preincrement

	mov	eax, ecx

; 116  : 		_SCL_SECURE_VALIDATE(this->_Has_container());
; 117  : 		_SCL_SECURE_VALIDATE_RANGE(_Myptr < ((_Myvec *)(this->_Getmycont()))->_Mylast);
; 118  : 
; 119  :  #if _HAS_ITERATOR_DEBUGGING
; 120  : 		if (this->_Mycont == 0
; 121  : 			|| ((_Myvec *)this->_Mycont)->_Mylast <= _Myptr)
; 122  : 			_DEBUG_ERROR("vector iterator not incrementable");
; 123  :  #endif /* _HAS_ITERATOR_DEBUGGING */
; 124  : 
; 125  : 		++_Myptr;

	add	DWORD PTR [eax], 8

; 126  : 		return (*this);
; 127  : 		}

	ret	0
??E?$_Vector_const_iterator@U?$pair@IPAVCvDllNetInitInfo@@@std@@V?$allocator@U?$pair@IPAVCvDllNetInitInfo@@@std@@@2@@std@@QAEAAV01@XZ ENDP ; std::_Vector_const_iterator<std::pair<unsigned int,CvDllNetInitInfo *>,std::allocator<std::pair<unsigned int,CvDllNetInitInfo *> > >::operator++
_TEXT	ENDS
PUBLIC	??8?$_Vector_const_iterator@U?$pair@IPAVCvDllNetInitInfo@@@std@@V?$allocator@U?$pair@IPAVCvDllNetInitInfo@@@std@@@2@@std@@QBE_NABV01@@Z ; std::_Vector_const_iterator<std::pair<unsigned int,CvDllNetInitInfo *>,std::allocator<std::pair<unsigned int,CvDllNetInitInfo *> > >::operator==
; Function compile flags: /Ogtpy
;	COMDAT ??8?$_Vector_const_iterator@U?$pair@IPAVCvDllNetInitInfo@@@std@@V?$allocator@U?$pair@IPAVCvDllNetInitInfo@@@std@@@2@@std@@QBE_NABV01@@Z
_TEXT	SEGMENT
__Right$ = 8						; size = 4
??8?$_Vector_const_iterator@U?$pair@IPAVCvDllNetInitInfo@@@std@@V?$allocator@U?$pair@IPAVCvDllNetInitInfo@@@std@@@2@@std@@QBE_NABV01@@Z PROC ; std::_Vector_const_iterator<std::pair<unsigned int,CvDllNetInitInfo *>,std::allocator<std::pair<unsigned int,CvDllNetInitInfo *> > >::operator==, COMDAT
; _this$ = ecx

; 204  : 
; 205  :  #if _HAS_ITERATOR_DEBUGGING
; 206  : 		_Compat(_Right);
; 207  :  #else
; 208  : 		_SCL_SECURE_VALIDATE(this->_Has_container() && this->_Same_container(_Right));
; 209  :  #endif /* _HAS_ITERATOR_DEBUGGING */
; 210  : 
; 211  : 		return (_Myptr == _Right._Myptr);

	mov	eax, DWORD PTR [ecx]
	mov	edx, DWORD PTR __Right$[esp-4]
	xor	ecx, ecx
	cmp	eax, DWORD PTR [edx]
	sete	cl
	mov	al, cl

; 212  : 		}

	ret	4
??8?$_Vector_const_iterator@U?$pair@IPAVCvDllNetInitInfo@@@std@@V?$allocator@U?$pair@IPAVCvDllNetInitInfo@@@std@@@2@@std@@QBE_NABV01@@Z ENDP ; std::_Vector_const_iterator<std::pair<unsigned int,CvDllNetInitInfo *>,std::allocator<std::pair<unsigned int,CvDllNetInitInfo *> > >::operator==
_TEXT	ENDS
PUBLIC	??D?$_Vector_const_iterator@U?$pair@IPAVCvDllNetLoadGameInfo@@@std@@V?$allocator@U?$pair@IPAVCvDllNetLoadGameInfo@@@std@@@2@@std@@QBEABU?$pair@IPAVCvDllNetLoadGameInfo@@@1@XZ ; std::_Vector_const_iterator<std::pair<unsigned int,CvDllNetLoadGameInfo *>,std::allocator<std::pair<unsigned int,CvDllNetLoadGameInfo *> > >::operator*
; Function compile flags: /Ogtpy
;	COMDAT ??D?$_Vector_const_iterator@U?$pair@IPAVCvDllNetLoadGameInfo@@@std@@V?$allocator@U?$pair@IPAVCvDllNetLoadGameInfo@@@std@@@2@@std@@QBEABU?$pair@IPAVCvDllNetLoadGameInfo@@@1@XZ
_TEXT	SEGMENT
??D?$_Vector_const_iterator@U?$pair@IPAVCvDllNetLoadGameInfo@@@std@@V?$allocator@U?$pair@IPAVCvDllNetLoadGameInfo@@@std@@@2@@std@@QBEABU?$pair@IPAVCvDllNetLoadGameInfo@@@1@XZ PROC ; std::_Vector_const_iterator<std::pair<unsigned int,CvDllNetLoadGameInfo *>,std::allocator<std::pair<unsigned int,CvDllNetLoadGameInfo *> > >::operator*, COMDAT
; _this$ = ecx

; 92   : 
; 93   :  #if _HAS_ITERATOR_DEBUGGING
; 94   : 		if (this->_Mycont == 0
; 95   : 			|| _Myptr < ((_Myvec *)this->_Mycont)->_Myfirst
; 96   : 			|| ((_Myvec *)this->_Mycont)->_Mylast <= _Myptr)
; 97   : 			{
; 98   : 			_DEBUG_ERROR("vector iterator not dereferencable");
; 99   : 			_SCL_SECURE_OUT_OF_RANGE;
; 100  : 			}
; 101  :  #else
; 102  :  		_SCL_SECURE_VALIDATE(this->_Has_container());
; 103  : 		_SCL_SECURE_VALIDATE_RANGE(_Myptr < ((_Myvec *)(this->_Getmycont()))->_Mylast);
; 104  :  #endif /* _HAS_ITERATOR_DEBUGGING */
; 105  : 
; 106  : 		return (*_Myptr);

	mov	eax, DWORD PTR [ecx]

; 107  : 		}

	ret	0
??D?$_Vector_const_iterator@U?$pair@IPAVCvDllNetLoadGameInfo@@@std@@V?$allocator@U?$pair@IPAVCvDllNetLoadGameInfo@@@std@@@2@@std@@QBEABU?$pair@IPAVCvDllNetLoadGameInfo@@@1@XZ ENDP ; std::_Vector_const_iterator<std::pair<unsigned int,CvDllNetLoadGameInfo *>,std::allocator<std::pair<unsigned int,CvDllNetLoadGameInfo *> > >::operator*
_TEXT	ENDS
PUBLIC	??E?$_Vector_const_iterator@U?$pair@IPAVCvDllNetLoadGameInfo@@@std@@V?$allocator@U?$pair@IPAVCvDllNetLoadGameInfo@@@std@@@2@@std@@QAEAAV01@XZ ; std::_Vector_const_iterator<std::pair<unsigned int,CvDllNetLoadGameInfo *>,std::allocator<std::pair<unsigned int,CvDllNetLoadGameInfo *> > >::operator++
; Function compile flags: /Ogtpy
;	COMDAT ??E?$_Vector_const_iterator@U?$pair@IPAVCvDllNetLoadGameInfo@@@std@@V?$allocator@U?$pair@IPAVCvDllNetLoadGameInfo@@@std@@@2@@std@@QAEAAV01@XZ
_TEXT	SEGMENT
??E?$_Vector_const_iterator@U?$pair@IPAVCvDllNetLoadGameInfo@@@std@@V?$allocator@U?$pair@IPAVCvDllNetLoadGameInfo@@@std@@@2@@std@@QAEAAV01@XZ PROC ; std::_Vector_const_iterator<std::pair<unsigned int,CvDllNetLoadGameInfo *>,std::allocator<std::pair<unsigned int,CvDllNetLoadGameInfo *> > >::operator++, COMDAT
; _this$ = ecx

; 115  : 		{	// preincrement

	mov	eax, ecx

; 116  : 		_SCL_SECURE_VALIDATE(this->_Has_container());
; 117  : 		_SCL_SECURE_VALIDATE_RANGE(_Myptr < ((_Myvec *)(this->_Getmycont()))->_Mylast);
; 118  : 
; 119  :  #if _HAS_ITERATOR_DEBUGGING
; 120  : 		if (this->_Mycont == 0
; 121  : 			|| ((_Myvec *)this->_Mycont)->_Mylast <= _Myptr)
; 122  : 			_DEBUG_ERROR("vector iterator not incrementable");
; 123  :  #endif /* _HAS_ITERATOR_DEBUGGING */
; 124  : 
; 125  : 		++_Myptr;

	add	DWORD PTR [eax], 8

; 126  : 		return (*this);
; 127  : 		}

	ret	0
??E?$_Vector_const_iterator@U?$pair@IPAVCvDllNetLoadGameInfo@@@std@@V?$allocator@U?$pair@IPAVCvDllNetLoadGameInfo@@@std@@@2@@std@@QAEAAV01@XZ ENDP ; std::_Vector_const_iterator<std::pair<unsigned int,CvDllNetLoadGameInfo *>,std::allocator<std::pair<unsigned int,CvDllNetLoadGameInfo *> > >::operator++
_TEXT	ENDS
PUBLIC	??8?$_Vector_const_iterator@U?$pair@IPAVCvDllNetLoadGameInfo@@@std@@V?$allocator@U?$pair@IPAVCvDllNetLoadGameInfo@@@std@@@2@@std@@QBE_NABV01@@Z ; std::_Vector_const_iterator<std::pair<unsigned int,CvDllNetLoadGameInfo *>,std::allocator<std::pair<unsigned int,CvDllNetLoadGameInfo *> > >::operator==
; Function compile flags: /Ogtpy
;	COMDAT ??8?$_Vector_const_iterator@U?$pair@IPAVCvDllNetLoadGameInfo@@@std@@V?$allocator@U?$pair@IPAVCvDllNetLoadGameInfo@@@std@@@2@@std@@QBE_NABV01@@Z
_TEXT	SEGMENT
__Right$ = 8						; size = 4
??8?$_Vector_const_iterator@U?$pair@IPAVCvDllNetLoadGameInfo@@@std@@V?$allocator@U?$pair@IPAVCvDllNetLoadGameInfo@@@std@@@2@@std@@QBE_NABV01@@Z PROC ; std::_Vector_const_iterator<std::pair<unsigned int,CvDllNetLoadGameInfo *>,std::allocator<std::pair<unsigned int,CvDllNetLoadGameInfo *> > >::operator==, COMDAT
; _this$ = ecx

; 204  : 
; 205  :  #if _HAS_ITERATOR_DEBUGGING
; 206  : 		_Compat(_Right);
; 207  :  #else
; 208  : 		_SCL_SECURE_VALIDATE(this->_Has_container() && this->_Same_container(_Right));
; 209  :  #endif /* _HAS_ITERATOR_DEBUGGING */
; 210  : 
; 211  : 		return (_Myptr == _Right._Myptr);

	mov	eax, DWORD PTR [ecx]
	mov	edx, DWORD PTR __Right$[esp-4]
	xor	ecx, ecx
	cmp	eax, DWORD PTR [edx]
	sete	cl
	mov	al, cl

; 212  : 		}

	ret	4
??8?$_Vector_const_iterator@U?$pair@IPAVCvDllNetLoadGameInfo@@@std@@V?$allocator@U?$pair@IPAVCvDllNetLoadGameInfo@@@std@@@2@@std@@QBE_NABV01@@Z ENDP ; std::_Vector_const_iterator<std::pair<unsigned int,CvDllNetLoadGameInfo *>,std::allocator<std::pair<unsigned int,CvDllNetLoadGameInfo *> > >::operator==
_TEXT	ENDS
PUBLIC	??0?$_Vector_const_iterator@KV?$allocator@K@std@@@std@@QAE@PAK@Z ; std::_Vector_const_iterator<unsigned long,std::allocator<unsigned long> >::_Vector_const_iterator<unsigned long,std::allocator<unsigned long> >
; Function compile flags: /Ogtpy
;	COMDAT ??0?$_Vector_const_iterator@KV?$allocator@K@std@@@std@@QAE@PAK@Z
_TEXT	SEGMENT
__Ptr$ = 8						; size = 4
??0?$_Vector_const_iterator@KV?$allocator@K@std@@@std@@QAE@PAK@Z PROC ; std::_Vector_const_iterator<unsigned long,std::allocator<unsigned long> >::_Vector_const_iterator<unsigned long,std::allocator<unsigned long> >, COMDAT
; _this$ = ecx

; 84   : 	explicit _Vector_const_iterator(_Tptr _Ptr)

	mov	eax, ecx

; 85   : 		{	// construct with pointer _Ptr
; 86   : 		_Myptr = _Ptr;

	mov	ecx, DWORD PTR __Ptr$[esp-4]
	mov	DWORD PTR [eax], ecx

; 87   : 		}

	ret	4
??0?$_Vector_const_iterator@KV?$allocator@K@std@@@std@@QAE@PAK@Z ENDP ; std::_Vector_const_iterator<unsigned long,std::allocator<unsigned long> >::_Vector_const_iterator<unsigned long,std::allocator<unsigned long> >
_TEXT	ENDS
PUBLIC	??0?$_Vector_const_iterator@V?$basic_string@DU?$char_traits@D@std@@V?$allocator@D@2@@std@@V?$allocator@V?$basic_string@DU?$char_traits@D@std@@V?$allocator@D@2@@std@@@2@@std@@QAE@PAV?$basic_string@DU?$char_traits@D@std@@V?$allocator@D@2@@1@@Z ; std::_Vector_const_iterator<std::basic_string<char,std::char_traits<char>,std::allocator<char> >,std::allocator<std::basic_string<char,std::char_traits<char>,std::allocator<char> > > >::_Vector_const_iterator<std::basic_string<char,std::char_traits<char>,std::allocator<char> >,std::allocator<std::basic_string<char,std::char_traits<char>,std::allocator<char> > > >
; Function compile flags: /Ogtpy
;	COMDAT ??0?$_Vector_const_iterator@V?$basic_string@DU?$char_traits@D@std@@V?$allocator@D@2@@std@@V?$allocator@V?$basic_string@DU?$char_traits@D@std@@V?$allocator@D@2@@std@@@2@@std@@QAE@PAV?$basic_string@DU?$char_traits@D@std@@V?$allocator@D@2@@1@@Z
_TEXT	SEGMENT
__Ptr$ = 8						; size = 4
??0?$_Vector_const_iterator@V?$basic_string@DU?$char_traits@D@std@@V?$allocator@D@2@@std@@V?$allocator@V?$basic_string@DU?$char_traits@D@std@@V?$allocator@D@2@@std@@@2@@std@@QAE@PAV?$basic_string@DU?$char_traits@D@std@@V?$allocator@D@2@@1@@Z PROC ; std::_Vector_const_iterator<std::basic_string<char,std::char_traits<char>,std::allocator<char> >,std::allocator<std::basic_string<char,std::char_traits<char>,std::allocator<char> > > >::_Vector_const_iterator<std::basic_string<char,std::char_traits<char>,std::allocator<char> >,std::allocator<std::basic_string<char,std::char_traits<char>,std::allocator<char> > > >, COMDAT
; _this$ = ecx

; 84   : 	explicit _Vector_const_iterator(_Tptr _Ptr)

	mov	eax, ecx

; 85   : 		{	// construct with pointer _Ptr
; 86   : 		_Myptr = _Ptr;

	mov	ecx, DWORD PTR __Ptr$[esp-4]
	mov	DWORD PTR [eax], ecx

; 87   : 		}

	ret	4
??0?$_Vector_const_iterator@V?$basic_string@DU?$char_traits@D@std@@V?$allocator@D@2@@std@@V?$allocator@V?$basic_string@DU?$char_traits@D@std@@V?$allocator@D@2@@std@@@2@@std@@QAE@PAV?$basic_string@DU?$char_traits@D@std@@V?$allocator@D@2@@1@@Z ENDP ; std::_Vector_const_iterator<std::basic_string<char,std::char_traits<char>,std::allocator<char> >,std::allocator<std::basic_string<char,std::char_traits<char>,std::allocator<char> > > >::_Vector_const_iterator<std::basic_string<char,std::char_traits<char>,std::allocator<char> >,std::allocator<std::basic_string<char,std::char_traits<char>,std::allocator<char> > > >
_TEXT	ENDS
PUBLIC	??8?$_Vector_const_iterator@V?$basic_string@DU?$char_traits@D@std@@V?$allocator@D@2@@std@@V?$allocator@V?$basic_string@DU?$char_traits@D@std@@V?$allocator@D@2@@std@@@2@@std@@QBE_NABV01@@Z ; std::_Vector_const_iterator<std::basic_string<char,std::char_traits<char>,std::allocator<char> >,std::allocator<std::basic_string<char,std::char_traits<char>,std::allocator<char> > > >::operator==
; Function compile flags: /Ogtpy
;	COMDAT ??8?$_Vector_const_iterator@V?$basic_string@DU?$char_traits@D@std@@V?$allocator@D@2@@std@@V?$allocator@V?$basic_string@DU?$char_traits@D@std@@V?$allocator@D@2@@std@@@2@@std@@QBE_NABV01@@Z
_TEXT	SEGMENT
__Right$ = 8						; size = 4
??8?$_Vector_const_iterator@V?$basic_string@DU?$char_traits@D@std@@V?$allocator@D@2@@std@@V?$allocator@V?$basic_string@DU?$char_traits@D@std@@V?$allocator@D@2@@std@@@2@@std@@QBE_NABV01@@Z PROC ; std::_Vector_const_iterator<std::basic_string<char,std::char_traits<char>,std::allocator<char> >,std::allocator<std::basic_string<char,std::char_traits<char>,std::allocator<char> > > >::operator==, COMDAT
; _this$ = ecx

; 204  : 
; 205  :  #if _HAS_ITERATOR_DEBUGGING
; 206  : 		_Compat(_Right);
; 207  :  #else
; 208  : 		_SCL_SECURE_VALIDATE(this->_Has_container() && this->_Same_container(_Right));
; 209  :  #endif /* _HAS_ITERATOR_DEBUGGING */
; 210  : 
; 211  : 		return (_Myptr == _Right._Myptr);

	mov	eax, DWORD PTR [ecx]
	mov	edx, DWORD PTR __Right$[esp-4]
	xor	ecx, ecx
	cmp	eax, DWORD PTR [edx]
	sete	cl
	mov	al, cl

; 212  : 		}

	ret	4
??8?$_Vector_const_iterator@V?$basic_string@DU?$char_traits@D@std@@V?$allocator@D@2@@std@@V?$allocator@V?$basic_string@DU?$char_traits@D@std@@V?$allocator@D@2@@std@@@2@@std@@QBE_NABV01@@Z ENDP ; std::_Vector_const_iterator<std::basic_string<char,std::char_traits<char>,std::allocator<char> >,std::allocator<std::basic_string<char,std::char_traits<char>,std::allocator<char> > > >::operator==
_TEXT	ENDS
PUBLIC	?_Xlen@?$vector@U?$pair@IPAVCvRandom@@@std@@V?$allocator@U?$pair@IPAVCvRandom@@@std@@@2@@std@@KAXXZ ; std::vector<std::pair<unsigned int,CvRandom *>,std::allocator<std::pair<unsigned int,CvRandom *> > >::_Xlen
;	COMDAT xdata$x
; File c:\program files (x86)\microsoft visual studio 9.0\vc\include\stdexcept
xdata$x	SEGMENT
__unwindtable$?_Xlen@?$vector@U?$pair@IPAVCvRandom@@@std@@V?$allocator@U?$pair@IPAVCvRandom@@@std@@@2@@std@@KAXXZ DD 0ffffffffH
	DD	FLAT:__unwindfunclet$?_Xlen@?$vector@U?$pair@IPAVCvRandom@@@std@@V?$allocator@U?$pair@IPAVCvRandom@@@std@@@2@@std@@KAXXZ$0
	DD	00H
	DD	FLAT:__unwindfunclet$?_Xlen@?$vector@U?$pair@IPAVCvRandom@@@std@@V?$allocator@U?$pair@IPAVCvRandom@@@std@@@2@@std@@KAXXZ$2
__ehfuncinfo$?_Xlen@?$vector@U?$pair@IPAVCvRandom@@@std@@V?$allocator@U?$pair@IPAVCvRandom@@@std@@@2@@std@@KAXXZ DD 019930522H
	DD	02H
	DD	FLAT:__unwindtable$?_Xlen@?$vector@U?$pair@IPAVCvRandom@@@std@@V?$allocator@U?$pair@IPAVCvRandom@@@std@@@2@@std@@KAXXZ
	DD	2 DUP(00H)
	DD	2 DUP(00H)
	DD	00H
	DD	01H
; Function compile flags: /Ogtpy
; File c:\program files (x86)\microsoft visual studio 9.0\vc\include\vector
xdata$x	ENDS
;	COMDAT ?_Xlen@?$vector@U?$pair@IPAVCvRandom@@@std@@V?$allocator@U?$pair@IPAVCvRandom@@@std@@@2@@std@@KAXXZ
_TEXT	SEGMENT
$T228661 = -80						; size = 28
$T228660 = -52						; size = 40
__$EHRec$ = -12						; size = 12
?_Xlen@?$vector@U?$pair@IPAVCvRandom@@@std@@V?$allocator@U?$pair@IPAVCvRandom@@@std@@@2@@std@@KAXXZ PROC ; std::vector<std::pair<unsigned int,CvRandom *>,std::allocator<std::pair<unsigned int,CvRandom *> > >::_Xlen, COMDAT

; 1259 : 		{	// report a length_error

	push	-1
	push	__ehhandler$?_Xlen@?$vector@U?$pair@IPAVCvRandom@@@std@@V?$allocator@U?$pair@IPAVCvRandom@@@std@@@2@@std@@KAXXZ
	mov	eax, DWORD PTR fs:0
	push	eax
	mov	DWORD PTR fs:0, esp
	sub	esp, 68					; 00000044H

; 1260 : 		_THROW(length_error, "vector<T> too long");

	push	OFFSET ??_C@_0BD@OLBABOEK@vector?$DMT?$DO?5too?5long?$AA@
	lea	ecx, DWORD PTR $T228661[esp+84]
	call	DWORD PTR __imp_??0?$basic_string@DU?$char_traits@D@std@@V?$allocator@D@2@@std@@QAE@PBD@Z
	lea	ecx, DWORD PTR $T228660[esp+80]
	mov	DWORD PTR __$EHRec$[esp+88], 0
	call	DWORD PTR __imp_??0exception@std@@QAE@XZ
	lea	eax, DWORD PTR $T228661[esp+80]
	push	eax
	lea	ecx, DWORD PTR $T228660[esp+96]
	mov	BYTE PTR __$EHRec$[esp+92], 1
	mov	DWORD PTR $T228660[esp+84], OFFSET ??_7logic_error@std@@6B@
	call	DWORD PTR __imp_??0?$basic_string@DU?$char_traits@D@std@@V?$allocator@D@2@@std@@QAE@ABV01@@Z
	push	OFFSET __TI3?AVlength_error@std@@
	lea	ecx, DWORD PTR $T228660[esp+84]
	push	ecx
	mov	BYTE PTR __$EHRec$[esp+96], 0
	mov	DWORD PTR $T228660[esp+88], OFFSET ??_7length_error@std@@6B@
	call	__CxxThrowException@8
$LN13@Xlen@2:
$LN12@Xlen@2:
	int	3
_TEXT	ENDS
;	COMDAT text$x
text$x	SEGMENT
__unwindfunclet$?_Xlen@?$vector@U?$pair@IPAVCvRandom@@@std@@V?$allocator@U?$pair@IPAVCvRandom@@@std@@@2@@std@@KAXXZ$0:
	lea	ecx, DWORD PTR $T228661[ebp]
	jmp	DWORD PTR __imp_??1?$basic_string@DU?$char_traits@D@std@@V?$allocator@D@2@@std@@QAE@XZ
__unwindfunclet$?_Xlen@?$vector@U?$pair@IPAVCvRandom@@@std@@V?$allocator@U?$pair@IPAVCvRandom@@@std@@@2@@std@@KAXXZ$2:
	lea	ecx, DWORD PTR $T228660[ebp]
	jmp	DWORD PTR __imp_??1exception@std@@UAE@XZ
__ehhandler$?_Xlen@?$vector@U?$pair@IPAVCvRandom@@@std@@V?$allocator@U?$pair@IPAVCvRandom@@@std@@@2@@std@@KAXXZ:
	mov	eax, OFFSET __ehfuncinfo$?_Xlen@?$vector@U?$pair@IPAVCvRandom@@@std@@V?$allocator@U?$pair@IPAVCvRandom@@@std@@@2@@std@@KAXXZ
	jmp	___CxxFrameHandler3
text$x	ENDS
?_Xlen@?$vector@U?$pair@IPAVCvRandom@@@std@@V?$allocator@U?$pair@IPAVCvRandom@@@std@@@2@@std@@KAXXZ ENDP ; std::vector<std::pair<unsigned int,CvRandom *>,std::allocator<std::pair<unsigned int,CvRandom *> > >::_Xlen
PUBLIC	??0?$_Container_base_aux_alloc_empty@V?$allocator@U?$pair@IPAVCvRandom@@@std@@@std@@@std@@IAE@V?$allocator@U?$pair@IPAVCvRandom@@@std@@@1@@Z ; std::_Container_base_aux_alloc_empty<std::allocator<std::pair<unsigned int,CvRandom *> > >::_Container_base_aux_alloc_empty<std::allocator<std::pair<unsigned int,CvRandom *> > >
; Function compile flags: /Ogtpy
; File c:\program files (x86)\microsoft visual studio 9.0\vc\include\xutility
;	COMDAT ??0?$_Container_base_aux_alloc_empty@V?$allocator@U?$pair@IPAVCvRandom@@@std@@@std@@@std@@IAE@V?$allocator@U?$pair@IPAVCvRandom@@@std@@@1@@Z
_TEXT	SEGMENT
___formal$ = 8						; size = 1
??0?$_Container_base_aux_alloc_empty@V?$allocator@U?$pair@IPAVCvRandom@@@std@@@std@@@std@@IAE@V?$allocator@U?$pair@IPAVCvRandom@@@std@@@1@@Z PROC ; std::_Container_base_aux_alloc_empty<std::allocator<std::pair<unsigned int,CvRandom *> > >::_Container_base_aux_alloc_empty<std::allocator<std::pair<unsigned int,CvRandom *> > >, COMDAT
; _this$ = ecx

; 618  : 	explicit _Container_base_aux_alloc_empty(_Alloc) { }

	mov	eax, ecx
	ret	4
??0?$_Container_base_aux_alloc_empty@V?$allocator@U?$pair@IPAVCvRandom@@@std@@@std@@@std@@IAE@V?$allocator@U?$pair@IPAVCvRandom@@@std@@@1@@Z ENDP ; std::_Container_base_aux_alloc_empty<std::allocator<std::pair<unsigned int,CvRandom *> > >::_Container_base_aux_alloc_empty<std::allocator<std::pair<unsigned int,CvRandom *> > >
_TEXT	ENDS
PUBLIC	??0?$allocator@U?$pair@IPAVCvRandom@@@std@@@std@@QAE@ABV01@@Z ; std::allocator<std::pair<unsigned int,CvRandom *> >::allocator<std::pair<unsigned int,CvRandom *> >
; Function compile flags: /Ogtpy
; File c:\program files (x86)\microsoft visual studio 9.0\vc\include\xmemory
;	COMDAT ??0?$allocator@U?$pair@IPAVCvRandom@@@std@@@std@@QAE@ABV01@@Z
_TEXT	SEGMENT
___formal$ = 8						; size = 4
??0?$allocator@U?$pair@IPAVCvRandom@@@std@@@std@@QAE@ABV01@@Z PROC ; std::allocator<std::pair<unsigned int,CvRandom *> >::allocator<std::pair<unsigned int,CvRandom *> >, COMDAT
; _this$ = ecx

; 123  : 	allocator(const allocator<_Ty>&) _THROW0()

	mov	eax, ecx

; 124  : 		{	// construct by copying (do nothing)
; 125  : 		}

	ret	4
??0?$allocator@U?$pair@IPAVCvRandom@@@std@@@std@@QAE@ABV01@@Z ENDP ; std::allocator<std::pair<unsigned int,CvRandom *> >::allocator<std::pair<unsigned int,CvRandom *> >
_TEXT	ENDS
PUBLIC	?deallocate@?$allocator@U?$pair@IPAVCvRandom@@@std@@@std@@QAEXPAU?$pair@IPAVCvRandom@@@2@I@Z ; std::allocator<std::pair<unsigned int,CvRandom *> >::deallocate
; Function compile flags: /Ogtpy
;	COMDAT ?deallocate@?$allocator@U?$pair@IPAVCvRandom@@@std@@@std@@QAEXPAU?$pair@IPAVCvRandom@@@2@I@Z
_TEXT	SEGMENT
__Ptr$ = 8						; size = 4
___formal$ = 12						; size = 4
?deallocate@?$allocator@U?$pair@IPAVCvRandom@@@std@@@std@@QAEXPAU?$pair@IPAVCvRandom@@@2@I@Z PROC ; std::allocator<std::pair<unsigned int,CvRandom *> >::deallocate, COMDAT
; _this$ = ecx

; 140  : 		::operator delete(_Ptr);

	mov	eax, DWORD PTR __Ptr$[esp-4]
	push	eax
	call	??3@YAXPAX@Z				; operator delete
	pop	ecx

; 141  : 		}

	ret	8
?deallocate@?$allocator@U?$pair@IPAVCvRandom@@@std@@@std@@QAEXPAU?$pair@IPAVCvRandom@@@2@I@Z ENDP ; std::allocator<std::pair<unsigned int,CvRandom *> >::deallocate
_TEXT	ENDS
PUBLIC	?_Xlen@?$vector@U?$pair@IPAVCvDllNetInitInfo@@@std@@V?$allocator@U?$pair@IPAVCvDllNetInitInfo@@@std@@@2@@std@@KAXXZ ; std::vector<std::pair<unsigned int,CvDllNetInitInfo *>,std::allocator<std::pair<unsigned int,CvDllNetInitInfo *> > >::_Xlen
;	COMDAT xdata$x
; File c:\program files (x86)\microsoft visual studio 9.0\vc\include\stdexcept
xdata$x	SEGMENT
__unwindtable$?_Xlen@?$vector@U?$pair@IPAVCvDllNetInitInfo@@@std@@V?$allocator@U?$pair@IPAVCvDllNetInitInfo@@@std@@@2@@std@@KAXXZ DD 0ffffffffH
	DD	FLAT:__unwindfunclet$?_Xlen@?$vector@U?$pair@IPAVCvDllNetInitInfo@@@std@@V?$allocator@U?$pair@IPAVCvDllNetInitInfo@@@std@@@2@@std@@KAXXZ$0
	DD	00H
	DD	FLAT:__unwindfunclet$?_Xlen@?$vector@U?$pair@IPAVCvDllNetInitInfo@@@std@@V?$allocator@U?$pair@IPAVCvDllNetInitInfo@@@std@@@2@@std@@KAXXZ$2
__ehfuncinfo$?_Xlen@?$vector@U?$pair@IPAVCvDllNetInitInfo@@@std@@V?$allocator@U?$pair@IPAVCvDllNetInitInfo@@@std@@@2@@std@@KAXXZ DD 019930522H
	DD	02H
	DD	FLAT:__unwindtable$?_Xlen@?$vector@U?$pair@IPAVCvDllNetInitInfo@@@std@@V?$allocator@U?$pair@IPAVCvDllNetInitInfo@@@std@@@2@@std@@KAXXZ
	DD	2 DUP(00H)
	DD	2 DUP(00H)
	DD	00H
	DD	01H
; Function compile flags: /Ogtpy
; File c:\program files (x86)\microsoft visual studio 9.0\vc\include\vector
xdata$x	ENDS
;	COMDAT ?_Xlen@?$vector@U?$pair@IPAVCvDllNetInitInfo@@@std@@V?$allocator@U?$pair@IPAVCvDllNetInitInfo@@@std@@@2@@std@@KAXXZ
_TEXT	SEGMENT
$T228695 = -80						; size = 28
$T228694 = -52						; size = 40
__$EHRec$ = -12						; size = 12
?_Xlen@?$vector@U?$pair@IPAVCvDllNetInitInfo@@@std@@V?$allocator@U?$pair@IPAVCvDllNetInitInfo@@@std@@@2@@std@@KAXXZ PROC ; std::vector<std::pair<unsigned int,CvDllNetInitInfo *>,std::allocator<std::pair<unsigned int,CvDllNetInitInfo *> > >::_Xlen, COMDAT

; 1259 : 		{	// report a length_error

	push	-1
	push	__ehhandler$?_Xlen@?$vector@U?$pair@IPAVCvDllNetInitInfo@@@std@@V?$allocator@U?$pair@IPAVCvDllNetInitInfo@@@std@@@2@@std@@KAXXZ
	mov	eax, DWORD PTR fs:0
	push	eax
	mov	DWORD PTR fs:0, esp
	sub	esp, 68					; 00000044H

; 1260 : 		_THROW(length_error, "vector<T> too long");

	push	OFFSET ??_C@_0BD@OLBABOEK@vector?$DMT?$DO?5too?5long?$AA@
	lea	ecx, DWORD PTR $T228695[esp+84]
	call	DWORD PTR __imp_??0?$basic_string@DU?$char_traits@D@std@@V?$allocator@D@2@@std@@QAE@PBD@Z
	lea	ecx, DWORD PTR $T228694[esp+80]
	mov	DWORD PTR __$EHRec$[esp+88], 0
	call	DWORD PTR __imp_??0exception@std@@QAE@XZ
	lea	eax, DWORD PTR $T228695[esp+80]
	push	eax
	lea	ecx, DWORD PTR $T228694[esp+96]
	mov	BYTE PTR __$EHRec$[esp+92], 1
	mov	DWORD PTR $T228694[esp+84], OFFSET ??_7logic_error@std@@6B@
	call	DWORD PTR __imp_??0?$basic_string@DU?$char_traits@D@std@@V?$allocator@D@2@@std@@QAE@ABV01@@Z
	push	OFFSET __TI3?AVlength_error@std@@
	lea	ecx, DWORD PTR $T228694[esp+84]
	push	ecx
	mov	BYTE PTR __$EHRec$[esp+96], 0
	mov	DWORD PTR $T228694[esp+88], OFFSET ??_7length_error@std@@6B@
	call	__CxxThrowException@8
$LN13@Xlen@3:
$LN12@Xlen@3:
	int	3
_TEXT	ENDS
;	COMDAT text$x
text$x	SEGMENT
__unwindfunclet$?_Xlen@?$vector@U?$pair@IPAVCvDllNetInitInfo@@@std@@V?$allocator@U?$pair@IPAVCvDllNetInitInfo@@@std@@@2@@std@@KAXXZ$0:
	lea	ecx, DWORD PTR $T228695[ebp]
	jmp	DWORD PTR __imp_??1?$basic_string@DU?$char_traits@D@std@@V?$allocator@D@2@@std@@QAE@XZ
__unwindfunclet$?_Xlen@?$vector@U?$pair@IPAVCvDllNetInitInfo@@@std@@V?$allocator@U?$pair@IPAVCvDllNetInitInfo@@@std@@@2@@std@@KAXXZ$2:
	lea	ecx, DWORD PTR $T228694[ebp]
	jmp	DWORD PTR __imp_??1exception@std@@UAE@XZ
__ehhandler$?_Xlen@?$vector@U?$pair@IPAVCvDllNetInitInfo@@@std@@V?$allocator@U?$pair@IPAVCvDllNetInitInfo@@@std@@@2@@std@@KAXXZ:
	mov	eax, OFFSET __ehfuncinfo$?_Xlen@?$vector@U?$pair@IPAVCvDllNetInitInfo@@@std@@V?$allocator@U?$pair@IPAVCvDllNetInitInfo@@@std@@@2@@std@@KAXXZ
	jmp	___CxxFrameHandler3
text$x	ENDS
?_Xlen@?$vector@U?$pair@IPAVCvDllNetInitInfo@@@std@@V?$allocator@U?$pair@IPAVCvDllNetInitInfo@@@std@@@2@@std@@KAXXZ ENDP ; std::vector<std::pair<unsigned int,CvDllNetInitInfo *>,std::allocator<std::pair<unsigned int,CvDllNetInitInfo *> > >::_Xlen
PUBLIC	??0?$_Container_base_aux_alloc_empty@V?$allocator@U?$pair@IPAVCvDllNetInitInfo@@@std@@@std@@@std@@IAE@V?$allocator@U?$pair@IPAVCvDllNetInitInfo@@@std@@@1@@Z ; std::_Container_base_aux_alloc_empty<std::allocator<std::pair<unsigned int,CvDllNetInitInfo *> > >::_Container_base_aux_alloc_empty<std::allocator<std::pair<unsigned int,CvDllNetInitInfo *> > >
; Function compile flags: /Ogtpy
; File c:\program files (x86)\microsoft visual studio 9.0\vc\include\xutility
;	COMDAT ??0?$_Container_base_aux_alloc_empty@V?$allocator@U?$pair@IPAVCvDllNetInitInfo@@@std@@@std@@@std@@IAE@V?$allocator@U?$pair@IPAVCvDllNetInitInfo@@@std@@@1@@Z
_TEXT	SEGMENT
___formal$ = 8						; size = 1
??0?$_Container_base_aux_alloc_empty@V?$allocator@U?$pair@IPAVCvDllNetInitInfo@@@std@@@std@@@std@@IAE@V?$allocator@U?$pair@IPAVCvDllNetInitInfo@@@std@@@1@@Z PROC ; std::_Container_base_aux_alloc_empty<std::allocator<std::pair<unsigned int,CvDllNetInitInfo *> > >::_Container_base_aux_alloc_empty<std::allocator<std::pair<unsigned int,CvDllNetInitInfo *> > >, COMDAT
; _this$ = ecx

; 618  : 	explicit _Container_base_aux_alloc_empty(_Alloc) { }

	mov	eax, ecx
	ret	4
??0?$_Container_base_aux_alloc_empty@V?$allocator@U?$pair@IPAVCvDllNetInitInfo@@@std@@@std@@@std@@IAE@V?$allocator@U?$pair@IPAVCvDllNetInitInfo@@@std@@@1@@Z ENDP ; std::_Container_base_aux_alloc_empty<std::allocator<std::pair<unsigned int,CvDllNetInitInfo *> > >::_Container_base_aux_alloc_empty<std::allocator<std::pair<unsigned int,CvDllNetInitInfo *> > >
_TEXT	ENDS
PUBLIC	??0?$allocator@U?$pair@IPAVCvDllNetInitInfo@@@std@@@std@@QAE@ABV01@@Z ; std::allocator<std::pair<unsigned int,CvDllNetInitInfo *> >::allocator<std::pair<unsigned int,CvDllNetInitInfo *> >
; Function compile flags: /Ogtpy
; File c:\program files (x86)\microsoft visual studio 9.0\vc\include\xmemory
;	COMDAT ??0?$allocator@U?$pair@IPAVCvDllNetInitInfo@@@std@@@std@@QAE@ABV01@@Z
_TEXT	SEGMENT
___formal$ = 8						; size = 4
??0?$allocator@U?$pair@IPAVCvDllNetInitInfo@@@std@@@std@@QAE@ABV01@@Z PROC ; std::allocator<std::pair<unsigned int,CvDllNetInitInfo *> >::allocator<std::pair<unsigned int,CvDllNetInitInfo *> >, COMDAT
; _this$ = ecx

; 123  : 	allocator(const allocator<_Ty>&) _THROW0()

	mov	eax, ecx

; 124  : 		{	// construct by copying (do nothing)
; 125  : 		}

	ret	4
??0?$allocator@U?$pair@IPAVCvDllNetInitInfo@@@std@@@std@@QAE@ABV01@@Z ENDP ; std::allocator<std::pair<unsigned int,CvDllNetInitInfo *> >::allocator<std::pair<unsigned int,CvDllNetInitInfo *> >
_TEXT	ENDS
PUBLIC	?deallocate@?$allocator@U?$pair@IPAVCvDllNetInitInfo@@@std@@@std@@QAEXPAU?$pair@IPAVCvDllNetInitInfo@@@2@I@Z ; std::allocator<std::pair<unsigned int,CvDllNetInitInfo *> >::deallocate
; Function compile flags: /Ogtpy
;	COMDAT ?deallocate@?$allocator@U?$pair@IPAVCvDllNetInitInfo@@@std@@@std@@QAEXPAU?$pair@IPAVCvDllNetInitInfo@@@2@I@Z
_TEXT	SEGMENT
__Ptr$ = 8						; size = 4
___formal$ = 12						; size = 4
?deallocate@?$allocator@U?$pair@IPAVCvDllNetInitInfo@@@std@@@std@@QAEXPAU?$pair@IPAVCvDllNetInitInfo@@@2@I@Z PROC ; std::allocator<std::pair<unsigned int,CvDllNetInitInfo *> >::deallocate, COMDAT
; _this$ = ecx

; 140  : 		::operator delete(_Ptr);

	mov	eax, DWORD PTR __Ptr$[esp-4]
	push	eax
	call	??3@YAXPAX@Z				; operator delete
	pop	ecx

; 141  : 		}

	ret	8
?deallocate@?$allocator@U?$pair@IPAVCvDllNetInitInfo@@@std@@@std@@QAEXPAU?$pair@IPAVCvDllNetInitInfo@@@2@I@Z ENDP ; std::allocator<std::pair<unsigned int,CvDllNetInitInfo *> >::deallocate
_TEXT	ENDS
PUBLIC	?_Xlen@?$vector@U?$pair@IPAVCvDllNetLoadGameInfo@@@std@@V?$allocator@U?$pair@IPAVCvDllNetLoadGameInfo@@@std@@@2@@std@@KAXXZ ; std::vector<std::pair<unsigned int,CvDllNetLoadGameInfo *>,std::allocator<std::pair<unsigned int,CvDllNetLoadGameInfo *> > >::_Xlen
;	COMDAT xdata$x
; File c:\program files (x86)\microsoft visual studio 9.0\vc\include\stdexcept
xdata$x	SEGMENT
__unwindtable$?_Xlen@?$vector@U?$pair@IPAVCvDllNetLoadGameInfo@@@std@@V?$allocator@U?$pair@IPAVCvDllNetLoadGameInfo@@@std@@@2@@std@@KAXXZ DD 0ffffffffH
	DD	FLAT:__unwindfunclet$?_Xlen@?$vector@U?$pair@IPAVCvDllNetLoadGameInfo@@@std@@V?$allocator@U?$pair@IPAVCvDllNetLoadGameInfo@@@std@@@2@@std@@KAXXZ$0
	DD	00H
	DD	FLAT:__unwindfunclet$?_Xlen@?$vector@U?$pair@IPAVCvDllNetLoadGameInfo@@@std@@V?$allocator@U?$pair@IPAVCvDllNetLoadGameInfo@@@std@@@2@@std@@KAXXZ$2
__ehfuncinfo$?_Xlen@?$vector@U?$pair@IPAVCvDllNetLoadGameInfo@@@std@@V?$allocator@U?$pair@IPAVCvDllNetLoadGameInfo@@@std@@@2@@std@@KAXXZ DD 019930522H
	DD	02H
	DD	FLAT:__unwindtable$?_Xlen@?$vector@U?$pair@IPAVCvDllNetLoadGameInfo@@@std@@V?$allocator@U?$pair@IPAVCvDllNetLoadGameInfo@@@std@@@2@@std@@KAXXZ
	DD	2 DUP(00H)
	DD	2 DUP(00H)
	DD	00H
	DD	01H
; Function compile flags: /Ogtpy
; File c:\program files (x86)\microsoft visual studio 9.0\vc\include\vector
xdata$x	ENDS
;	COMDAT ?_Xlen@?$vector@U?$pair@IPAVCvDllNetLoadGameInfo@@@std@@V?$allocator@U?$pair@IPAVCvDllNetLoadGameInfo@@@std@@@2@@std@@KAXXZ
_TEXT	SEGMENT
$T228729 = -80						; size = 28
$T228728 = -52						; size = 40
__$EHRec$ = -12						; size = 12
?_Xlen@?$vector@U?$pair@IPAVCvDllNetLoadGameInfo@@@std@@V?$allocator@U?$pair@IPAVCvDllNetLoadGameInfo@@@std@@@2@@std@@KAXXZ PROC ; std::vector<std::pair<unsigned int,CvDllNetLoadGameInfo *>,std::allocator<std::pair<unsigned int,CvDllNetLoadGameInfo *> > >::_Xlen, COMDAT

; 1259 : 		{	// report a length_error

	push	-1
	push	__ehhandler$?_Xlen@?$vector@U?$pair@IPAVCvDllNetLoadGameInfo@@@std@@V?$allocator@U?$pair@IPAVCvDllNetLoadGameInfo@@@std@@@2@@std@@KAXXZ
	mov	eax, DWORD PTR fs:0
	push	eax
	mov	DWORD PTR fs:0, esp
	sub	esp, 68					; 00000044H

; 1260 : 		_THROW(length_error, "vector<T> too long");

	push	OFFSET ??_C@_0BD@OLBABOEK@vector?$DMT?$DO?5too?5long?$AA@
	lea	ecx, DWORD PTR $T228729[esp+84]
	call	DWORD PTR __imp_??0?$basic_string@DU?$char_traits@D@std@@V?$allocator@D@2@@std@@QAE@PBD@Z
	lea	ecx, DWORD PTR $T228728[esp+80]
	mov	DWORD PTR __$EHRec$[esp+88], 0
	call	DWORD PTR __imp_??0exception@std@@QAE@XZ
	lea	eax, DWORD PTR $T228729[esp+80]
	push	eax
	lea	ecx, DWORD PTR $T228728[esp+96]
	mov	BYTE PTR __$EHRec$[esp+92], 1
	mov	DWORD PTR $T228728[esp+84], OFFSET ??_7logic_error@std@@6B@
	call	DWORD PTR __imp_??0?$basic_string@DU?$char_traits@D@std@@V?$allocator@D@2@@std@@QAE@ABV01@@Z
	push	OFFSET __TI3?AVlength_error@std@@
	lea	ecx, DWORD PTR $T228728[esp+84]
	push	ecx
	mov	BYTE PTR __$EHRec$[esp+96], 0
	mov	DWORD PTR $T228728[esp+88], OFFSET ??_7length_error@std@@6B@
	call	__CxxThrowException@8
$LN13@Xlen@4:
$LN12@Xlen@4:
	int	3
_TEXT	ENDS
;	COMDAT text$x
text$x	SEGMENT
__unwindfunclet$?_Xlen@?$vector@U?$pair@IPAVCvDllNetLoadGameInfo@@@std@@V?$allocator@U?$pair@IPAVCvDllNetLoadGameInfo@@@std@@@2@@std@@KAXXZ$0:
	lea	ecx, DWORD PTR $T228729[ebp]
	jmp	DWORD PTR __imp_??1?$basic_string@DU?$char_traits@D@std@@V?$allocator@D@2@@std@@QAE@XZ
__unwindfunclet$?_Xlen@?$vector@U?$pair@IPAVCvDllNetLoadGameInfo@@@std@@V?$allocator@U?$pair@IPAVCvDllNetLoadGameInfo@@@std@@@2@@std@@KAXXZ$2:
	lea	ecx, DWORD PTR $T228728[ebp]
	jmp	DWORD PTR __imp_??1exception@std@@UAE@XZ
__ehhandler$?_Xlen@?$vector@U?$pair@IPAVCvDllNetLoadGameInfo@@@std@@V?$allocator@U?$pair@IPAVCvDllNetLoadGameInfo@@@std@@@2@@std@@KAXXZ:
	mov	eax, OFFSET __ehfuncinfo$?_Xlen@?$vector@U?$pair@IPAVCvDllNetLoadGameInfo@@@std@@V?$allocator@U?$pair@IPAVCvDllNetLoadGameInfo@@@std@@@2@@std@@KAXXZ
	jmp	___CxxFrameHandler3
text$x	ENDS
?_Xlen@?$vector@U?$pair@IPAVCvDllNetLoadGameInfo@@@std@@V?$allocator@U?$pair@IPAVCvDllNetLoadGameInfo@@@std@@@2@@std@@KAXXZ ENDP ; std::vector<std::pair<unsigned int,CvDllNetLoadGameInfo *>,std::allocator<std::pair<unsigned int,CvDllNetLoadGameInfo *> > >::_Xlen
PUBLIC	??0?$_Container_base_aux_alloc_empty@V?$allocator@U?$pair@IPAVCvDllNetLoadGameInfo@@@std@@@std@@@std@@IAE@V?$allocator@U?$pair@IPAVCvDllNetLoadGameInfo@@@std@@@1@@Z ; std::_Container_base_aux_alloc_empty<std::allocator<std::pair<unsigned int,CvDllNetLoadGameInfo *> > >::_Container_base_aux_alloc_empty<std::allocator<std::pair<unsigned int,CvDllNetLoadGameInfo *> > >
; Function compile flags: /Ogtpy
; File c:\program files (x86)\microsoft visual studio 9.0\vc\include\xutility
;	COMDAT ??0?$_Container_base_aux_alloc_empty@V?$allocator@U?$pair@IPAVCvDllNetLoadGameInfo@@@std@@@std@@@std@@IAE@V?$allocator@U?$pair@IPAVCvDllNetLoadGameInfo@@@std@@@1@@Z
_TEXT	SEGMENT
___formal$ = 8						; size = 1
??0?$_Container_base_aux_alloc_empty@V?$allocator@U?$pair@IPAVCvDllNetLoadGameInfo@@@std@@@std@@@std@@IAE@V?$allocator@U?$pair@IPAVCvDllNetLoadGameInfo@@@std@@@1@@Z PROC ; std::_Container_base_aux_alloc_empty<std::allocator<std::pair<unsigned int,CvDllNetLoadGameInfo *> > >::_Container_base_aux_alloc_empty<std::allocator<std::pair<unsigned int,CvDllNetLoadGameInfo *> > >, COMDAT
; _this$ = ecx

; 618  : 	explicit _Container_base_aux_alloc_empty(_Alloc) { }

	mov	eax, ecx
	ret	4
??0?$_Container_base_aux_alloc_empty@V?$allocator@U?$pair@IPAVCvDllNetLoadGameInfo@@@std@@@std@@@std@@IAE@V?$allocator@U?$pair@IPAVCvDllNetLoadGameInfo@@@std@@@1@@Z ENDP ; std::_Container_base_aux_alloc_empty<std::allocator<std::pair<unsigned int,CvDllNetLoadGameInfo *> > >::_Container_base_aux_alloc_empty<std::allocator<std::pair<unsigned int,CvDllNetLoadGameInfo *> > >
_TEXT	ENDS
PUBLIC	??0?$allocator@U?$pair@IPAVCvDllNetLoadGameInfo@@@std@@@std@@QAE@ABV01@@Z ; std::allocator<std::pair<unsigned int,CvDllNetLoadGameInfo *> >::allocator<std::pair<unsigned int,CvDllNetLoadGameInfo *> >
; Function compile flags: /Ogtpy
; File c:\program files (x86)\microsoft visual studio 9.0\vc\include\xmemory
;	COMDAT ??0?$allocator@U?$pair@IPAVCvDllNetLoadGameInfo@@@std@@@std@@QAE@ABV01@@Z
_TEXT	SEGMENT
___formal$ = 8						; size = 4
