; Listing generated by Microsoft (R) Optimizing Compiler Version 15.00.30729.01 

	TITLE	s:\LEKMOD_DLL\CvGameCoreDLL_Expansion2\CvDllCity.cpp
	.686P
	.XMM
	include listing.inc
	.model	flat

INCLUDELIB MSVCRT
INCLUDELIB OLDNAMES

_DATA	SEGMENT
_CIV5_XP2_DLL_VERSION DD FLAT:$SG217177
_DATA	ENDS
CONST	SEGMENT
$SG217177 DB	'1.0.0', 00H
	ORG $+2
_guidICvUnknown DD 0d89ba82fH
	DW	09fa3H
	DW	04696H
	DB	0b3H
	DB	0f4H
	DB	052H
	DB	0bdH
	DB	0b1H
	DB	01H
	DB	0cfH
	DB	0b2H
_guidICvCity1 DD 0e75ba944H
	DW	05dbH
	DW	04d6cH
	DB	096H
	DB	0a6H
	DB	0a0H
	DB	07bH
	DB	071H
	DB	0cdH
	DB	0beH
	DB	077H
CONST	ENDS
PUBLIC	??_7ICvUnknown@@6B@				; ICvUnknown::`vftable'
PUBLIC	??0ICvUnknown@@QAE@XZ				; ICvUnknown::ICvUnknown
PUBLIC	??_R4ICvUnknown@@6B@				; ICvUnknown::`RTTI Complete Object Locator'
PUBLIC	??_R0?AVICvUnknown@@@8				; ICvUnknown `RTTI Type Descriptor'
PUBLIC	??_R3ICvUnknown@@8				; ICvUnknown::`RTTI Class Hierarchy Descriptor'
PUBLIC	??_R2ICvUnknown@@8				; ICvUnknown::`RTTI Base Class Array'
PUBLIC	??_R1A@?0A@EA@ICvUnknown@@8			; ICvUnknown::`RTTI Base Class Descriptor at (0,-1,0,64)'
EXTRN	??_7type_info@@6B@:QWORD			; type_info::`vftable'
EXTRN	__purecall:PROC
;	COMDAT ??_R1A@?0A@EA@ICvUnknown@@8
rdata$r	SEGMENT
??_R1A@?0A@EA@ICvUnknown@@8 DD FLAT:??_R0?AVICvUnknown@@@8 ; ICvUnknown::`RTTI Base Class Descriptor at (0,-1,0,64)'
	DD	00H
	DD	00H
	DD	0ffffffffH
	DD	00H
	DD	040H
	DD	FLAT:??_R3ICvUnknown@@8
rdata$r	ENDS
;	COMDAT ??_R2ICvUnknown@@8
rdata$r	SEGMENT
??_R2ICvUnknown@@8 DD FLAT:??_R1A@?0A@EA@ICvUnknown@@8	; ICvUnknown::`RTTI Base Class Array'
rdata$r	ENDS
;	COMDAT ??_R3ICvUnknown@@8
rdata$r	SEGMENT
??_R3ICvUnknown@@8 DD 00H				; ICvUnknown::`RTTI Class Hierarchy Descriptor'
	DD	00H
	DD	01H
	DD	FLAT:??_R2ICvUnknown@@8
rdata$r	ENDS
;	COMDAT ??_R0?AVICvUnknown@@@8
_DATA	SEGMENT
??_R0?AVICvUnknown@@@8 DD FLAT:??_7type_info@@6B@	; ICvUnknown `RTTI Type Descriptor'
	DD	00H
	DB	'.?AVICvUnknown@@', 00H
_DATA	ENDS
;	COMDAT ??_R4ICvUnknown@@6B@
rdata$r	SEGMENT
??_R4ICvUnknown@@6B@ DD 00H				; ICvUnknown::`RTTI Complete Object Locator'
	DD	00H
	DD	00H
	DD	FLAT:??_R0?AVICvUnknown@@@8
	DD	FLAT:??_R3ICvUnknown@@8
rdata$r	ENDS
;	COMDAT ??_7ICvUnknown@@6B@
CONST	SEGMENT
??_7ICvUnknown@@6B@ DD FLAT:??_R4ICvUnknown@@6B@	; ICvUnknown::`vftable'
	DD	FLAT:__purecall
	DD	FLAT:__purecall
; Function compile flags: /Ogtpy
CONST	ENDS
;	COMDAT ??0ICvUnknown@@QAE@XZ
_TEXT	SEGMENT
??0ICvUnknown@@QAE@XZ PROC				; ICvUnknown::ICvUnknown, COMDAT
; _this$ = ecx
	mov	eax, ecx
	mov	DWORD PTR [eax], OFFSET ??_7ICvUnknown@@6B@
	ret	0
??0ICvUnknown@@QAE@XZ ENDP				; ICvUnknown::ICvUnknown
_TEXT	ENDS
PUBLIC	??_7CvDllCity@@6B@				; CvDllCity::`vftable'
PUBLIC	??1CvDllCity@@QAE@XZ				; CvDllCity::~CvDllCity
PUBLIC	??_R4CvDllCity@@6B@				; CvDllCity::`RTTI Complete Object Locator'
PUBLIC	??_R0?AVCvDllCity@@@8				; CvDllCity `RTTI Type Descriptor'
PUBLIC	??_R3CvDllCity@@8				; CvDllCity::`RTTI Class Hierarchy Descriptor'
PUBLIC	??_R2CvDllCity@@8				; CvDllCity::`RTTI Base Class Array'
PUBLIC	??_R1A@?0A@EA@CvDllCity@@8			; CvDllCity::`RTTI Base Class Descriptor at (0,-1,0,64)'
PUBLIC	??_R1A@?0A@EA@ICvCity1@@8			; ICvCity1::`RTTI Base Class Descriptor at (0,-1,0,64)'
PUBLIC	??_R0?AVICvCity1@@@8				; ICvCity1 `RTTI Type Descriptor'
PUBLIC	??_R3ICvCity1@@8				; ICvCity1::`RTTI Class Hierarchy Descriptor'
PUBLIC	??_R2ICvCity1@@8				; ICvCity1::`RTTI Base Class Array'
PUBLIC	?QueryInterface@CvDllCity@@UAGPAXU_GUID@@@Z	; CvDllCity::QueryInterface
PUBLIC	?Destroy@CvDllCity@@EAGXXZ			; CvDllCity::Destroy
PUBLIC	?GetID@CvDllCity@@UBGHXZ			; CvDllCity::GetID
PUBLIC	?GetOwner@CvDllCity@@UBG?AW4PlayerTypes@@XZ	; CvDllCity::GetOwner
PUBLIC	?GetMaxHitPoints@CvDllCity@@UBGHXZ		; CvDllCity::GetMaxHitPoints
PUBLIC	?GetPosition@CvDllCity@@UBGXAAH0@Z		; CvDllCity::GetPosition
PUBLIC	?Plot@CvDllCity@@UBGPAVICvPlot1@@XZ		; CvDllCity::Plot
PUBLIC	?GetPopulation@CvDllCity@@UBGHXZ		; CvDllCity::GetPopulation
PUBLIC	?GetName@CvDllCity@@UBGPBDXZ			; CvDllCity::GetName
PUBLIC	?CanBuyPlot@CvDllCity@@UAG_NHH_N@Z		; CvDllCity::CanBuyPlot
PUBLIC	?GetCitySizeType@CvDllCity@@UBG?AW4CitySizeTypes@@XZ ; CvDllCity::GetCitySizeType
PUBLIC	?GetCityBombardEffectTag@CvDllCity@@UBGPBDXZ	; CvDllCity::GetCityBombardEffectTag
PUBLIC	?GetTeam@CvDllCity@@UBG?AW4TeamTypes@@XZ	; CvDllCity::GetTeam
PUBLIC	?IsPuppet@CvDllCity@@UBG_NXZ			; CvDllCity::IsPuppet
PUBLIC	?GetX@CvDllCity@@UBGHXZ				; CvDllCity::GetX
PUBLIC	?GetY@CvDllCity@@UBGHXZ				; CvDllCity::GetY
PUBLIC	?GetStrengthValue@CvDllCity@@UBGH_N@Z		; CvDllCity::GetStrengthValue
PUBLIC	?FoodDifference@CvDllCity@@UBGH_N@Z		; CvDllCity::FoodDifference
PUBLIC	?GetFoodTurnsLeft@CvDllCity@@UBGHXZ		; CvDllCity::GetFoodTurnsLeft
PUBLIC	?GetYieldRate@CvDllCity@@UBGHH@Z		; CvDllCity::GetYieldRate
PUBLIC	?GetJONSCulturePerTurn@CvDllCity@@UBGHXZ	; CvDllCity::GetJONSCulturePerTurn
PUBLIC	?GetIDInfo@CvDllCity@@UBG?AUIDInfo@@XZ		; CvDllCity::GetIDInfo
PUBLIC	?IsWorkingPlot@CvDllCity@@UBG_NPAVICvPlot1@@@Z	; CvDllCity::IsWorkingPlot
PUBLIC	?CanWork@CvDllCity@@UBG_NPAVICvPlot1@@@Z	; CvDllCity::CanWork
PUBLIC	?GetCityPlotFromIndex@CvDllCity@@UBGPAVICvPlot1@@H@Z ; CvDllCity::GetCityPlotFromIndex
PUBLIC	?GetSyncArchive@CvDllCity@@UAGAAVFAutoArchive@@XZ ; CvDllCity::GetSyncArchive
;	COMDAT ??_R2ICvCity1@@8
; File s:\lekmod_dll\cvgamecoredll_expansion2\cvdllcity.cpp
rdata$r	SEGMENT
??_R2ICvCity1@@8 DD FLAT:??_R1A@?0A@EA@ICvCity1@@8	; ICvCity1::`RTTI Base Class Array'
	DD	FLAT:??_R1A@?0A@EA@ICvUnknown@@8
rdata$r	ENDS
;	COMDAT ??_R3ICvCity1@@8
rdata$r	SEGMENT
??_R3ICvCity1@@8 DD 00H					; ICvCity1::`RTTI Class Hierarchy Descriptor'
	DD	00H
	DD	02H
	DD	FLAT:??_R2ICvCity1@@8
rdata$r	ENDS
;	COMDAT ??_R0?AVICvCity1@@@8
_DATA	SEGMENT
??_R0?AVICvCity1@@@8 DD FLAT:??_7type_info@@6B@		; ICvCity1 `RTTI Type Descriptor'
	DD	00H
	DB	'.?AVICvCity1@@', 00H
_DATA	ENDS
;	COMDAT ??_R1A@?0A@EA@ICvCity1@@8
rdata$r	SEGMENT
??_R1A@?0A@EA@ICvCity1@@8 DD FLAT:??_R0?AVICvCity1@@@8	; ICvCity1::`RTTI Base Class Descriptor at (0,-1,0,64)'
	DD	01H
	DD	00H
	DD	0ffffffffH
	DD	00H
	DD	040H
	DD	FLAT:??_R3ICvCity1@@8
rdata$r	ENDS
;	COMDAT ??_R1A@?0A@EA@CvDllCity@@8
rdata$r	SEGMENT
??_R1A@?0A@EA@CvDllCity@@8 DD FLAT:??_R0?AVCvDllCity@@@8 ; CvDllCity::`RTTI Base Class Descriptor at (0,-1,0,64)'
	DD	02H
	DD	00H
	DD	0ffffffffH
	DD	00H
	DD	040H
	DD	FLAT:??_R3CvDllCity@@8
rdata$r	ENDS
;	COMDAT ??_R2CvDllCity@@8
rdata$r	SEGMENT
??_R2CvDllCity@@8 DD FLAT:??_R1A@?0A@EA@CvDllCity@@8	; CvDllCity::`RTTI Base Class Array'
	DD	FLAT:??_R1A@?0A@EA@ICvCity1@@8
	DD	FLAT:??_R1A@?0A@EA@ICvUnknown@@8
rdata$r	ENDS
;	COMDAT ??_R3CvDllCity@@8
rdata$r	SEGMENT
??_R3CvDllCity@@8 DD 00H				; CvDllCity::`RTTI Class Hierarchy Descriptor'
	DD	00H
	DD	03H
	DD	FLAT:??_R2CvDllCity@@8
rdata$r	ENDS
;	COMDAT ??_R0?AVCvDllCity@@@8
_DATA	SEGMENT
??_R0?AVCvDllCity@@@8 DD FLAT:??_7type_info@@6B@	; CvDllCity `RTTI Type Descriptor'
	DD	00H
	DB	'.?AVCvDllCity@@', 00H
_DATA	ENDS
;	COMDAT ??_R4CvDllCity@@6B@
rdata$r	SEGMENT
??_R4CvDllCity@@6B@ DD 00H				; CvDllCity::`RTTI Complete Object Locator'
	DD	00H
	DD	00H
	DD	FLAT:??_R0?AVCvDllCity@@@8
	DD	FLAT:??_R3CvDllCity@@8
rdata$r	ENDS
;	COMDAT ??_7CvDllCity@@6B@
CONST	SEGMENT
??_7CvDllCity@@6B@ DD FLAT:??_R4CvDllCity@@6B@		; CvDllCity::`vftable'
	DD	FLAT:?QueryInterface@CvDllCity@@UAGPAXU_GUID@@@Z
	DD	FLAT:?Destroy@CvDllCity@@EAGXXZ
	DD	FLAT:?GetID@CvDllCity@@UBGHXZ
	DD	FLAT:?GetOwner@CvDllCity@@UBG?AW4PlayerTypes@@XZ
	DD	FLAT:?GetMaxHitPoints@CvDllCity@@UBGHXZ
	DD	FLAT:?GetPosition@CvDllCity@@UBGXAAH0@Z
	DD	FLAT:?Plot@CvDllCity@@UBGPAVICvPlot1@@XZ
	DD	FLAT:?GetPopulation@CvDllCity@@UBGHXZ
	DD	FLAT:?GetName@CvDllCity@@UBGPBDXZ
	DD	FLAT:?CanBuyPlot@CvDllCity@@UAG_NHH_N@Z
	DD	FLAT:?GetCitySizeType@CvDllCity@@UBG?AW4CitySizeTypes@@XZ
	DD	FLAT:?GetCityBombardEffectTag@CvDllCity@@UBGPBDXZ
	DD	FLAT:?GetTeam@CvDllCity@@UBG?AW4TeamTypes@@XZ
	DD	FLAT:?IsPuppet@CvDllCity@@UBG_NXZ
	DD	FLAT:?GetX@CvDllCity@@UBGHXZ
	DD	FLAT:?GetY@CvDllCity@@UBGHXZ
	DD	FLAT:?GetStrengthValue@CvDllCity@@UBGH_N@Z
	DD	FLAT:?FoodDifference@CvDllCity@@UBGH_N@Z
	DD	FLAT:?GetFoodTurnsLeft@CvDllCity@@UBGHXZ
	DD	FLAT:?GetYieldRate@CvDllCity@@UBGHH@Z
	DD	FLAT:?GetJONSCulturePerTurn@CvDllCity@@UBGHXZ
	DD	FLAT:?GetIDInfo@CvDllCity@@UBG?AUIDInfo@@XZ
	DD	FLAT:?IsWorkingPlot@CvDllCity@@UBG_NPAVICvPlot1@@@Z
	DD	FLAT:?CanWork@CvDllCity@@UBG_NPAVICvPlot1@@@Z
	DD	FLAT:?GetCityPlotFromIndex@CvDllCity@@UBGPAVICvPlot1@@H@Z
	DD	FLAT:?GetSyncArchive@CvDllCity@@UAGAAVFAutoArchive@@XZ
; Function compile flags: /Ogtpy
CONST	ENDS
;	COMDAT ??1CvDllCity@@QAE@XZ
_TEXT	SEGMENT
??1CvDllCity@@QAE@XZ PROC				; CvDllCity::~CvDllCity, COMDAT
; _this$ = ecx

; 25   : {

	mov	DWORD PTR [ecx], OFFSET ??_7CvDllCity@@6B@

; 26   : }

	ret	0
??1CvDllCity@@QAE@XZ ENDP				; CvDllCity::~CvDllCity
_TEXT	ENDS
PUBLIC	?IncrementReference@CvDllCity@@QAEIXZ		; CvDllCity::IncrementReference
; Function compile flags: /Ogtpy
;	COMDAT ?IncrementReference@CvDllCity@@QAEIXZ
_TEXT	SEGMENT
?IncrementReference@CvDllCity@@QAEIXZ PROC		; CvDllCity::IncrementReference, COMDAT
; _this$ = ecx

; 42   : 	++m_uiRefCount;

	inc	DWORD PTR [ecx+4]

; 43   : 	return m_uiRefCount;

	mov	eax, DWORD PTR [ecx+4]

; 44   : }

	ret	0
?IncrementReference@CvDllCity@@QAEIXZ ENDP		; CvDllCity::IncrementReference
_TEXT	ENDS
PUBLIC	?GetReferenceCount@CvDllCity@@QAEIXZ		; CvDllCity::GetReferenceCount
; Function compile flags: /Ogtpy
;	COMDAT ?GetReferenceCount@CvDllCity@@QAEIXZ
_TEXT	SEGMENT
?GetReferenceCount@CvDllCity@@QAEIXZ PROC		; CvDllCity::GetReferenceCount, COMDAT
; _this$ = ecx

; 62   : 	return m_uiRefCount;

	mov	eax, DWORD PTR [ecx+4]

; 63   : }

	ret	0
?GetReferenceCount@CvDllCity@@QAEIXZ ENDP		; CvDllCity::GetReferenceCount
_TEXT	ENDS
PUBLIC	??3CvDllCity@@SAXPAX@Z				; CvDllCity::operator delete
EXTRN	?Free@CvDllGameContext@@SAXPAX@Z:PROC		; CvDllGameContext::Free
; Function compile flags: /Ogtpy
;	COMDAT ??3CvDllCity@@SAXPAX@Z
_TEXT	SEGMENT
_p$ = 8							; size = 4
??3CvDllCity@@SAXPAX@Z PROC				; CvDllCity::operator delete, COMDAT

; 72   : 	CvDllGameContext::Free(p);

	jmp	?Free@CvDllGameContext@@SAXPAX@Z	; CvDllGameContext::Free
??3CvDllCity@@SAXPAX@Z ENDP				; CvDllCity::operator delete
_TEXT	ENDS
PUBLIC	??2CvDllCity@@SAPAXI@Z				; CvDllCity::operator new
EXTRN	?Allocate@CvDllGameContext@@SAPAXI@Z:PROC	; CvDllGameContext::Allocate
; Function compile flags: /Ogtpy
;	COMDAT ??2CvDllCity@@SAPAXI@Z
_TEXT	SEGMENT
_bytes$ = 8						; size = 4
??2CvDllCity@@SAPAXI@Z PROC				; CvDllCity::operator new, COMDAT

; 77   : 	return CvDllGameContext::Allocate(bytes);

	jmp	?Allocate@CvDllGameContext@@SAPAXI@Z	; CvDllGameContext::Allocate
??2CvDllCity@@SAPAXI@Z ENDP				; CvDllCity::operator new
_TEXT	ENDS
PUBLIC	?GetInstance@CvDllCity@@QAEPAVCvCity@@XZ	; CvDllCity::GetInstance
; Function compile flags: /Ogtpy
;	COMDAT ?GetInstance@CvDllCity@@QAEPAVCvCity@@XZ
_TEXT	SEGMENT
?GetInstance@CvDllCity@@QAEPAVCvCity@@XZ PROC		; CvDllCity::GetInstance, COMDAT
; _this$ = ecx

; 82   : 	return m_pCity;

	mov	eax, DWORD PTR [ecx+8]

; 83   : }

	ret	0
?GetInstance@CvDllCity@@QAEPAVCvCity@@XZ ENDP		; CvDllCity::GetInstance
_TEXT	ENDS
EXTRN	?GetMaxHitPoints@CvCity@@QBEHXZ:PROC		; CvCity::GetMaxHitPoints
; Function compile flags: /Ogtpy
;	COMDAT ?GetMaxHitPoints@CvDllCity@@UBGHXZ
_TEXT	SEGMENT
_this$ = 8						; size = 4
?GetMaxHitPoints@CvDllCity@@UBGHXZ PROC			; CvDllCity::GetMaxHitPoints, COMDAT

; 97   : 	return m_pCity->GetMaxHitPoints();

	mov	eax, DWORD PTR _this$[esp-4]
	mov	ecx, DWORD PTR [eax+8]
	call	?GetMaxHitPoints@CvCity@@QBEHXZ		; CvCity::GetMaxHitPoints

; 98   : }

	ret	4
?GetMaxHitPoints@CvDllCity@@UBGHXZ ENDP			; CvDllCity::GetMaxHitPoints
_TEXT	ENDS
EXTRN	??3CvDllPlot@@SAXPAX@Z:PROC			; CvDllPlot::operator delete
EXTRN	??0CvDllPlot@@QAE@PAVCvPlot@@@Z:PROC		; CvDllPlot::CvDllPlot
EXTRN	??2CvDllPlot@@SAPAXI@Z:PROC			; CvDllPlot::operator new
EXTRN	?plot@CvCity@@QBEPAVCvPlot@@XZ:PROC		; CvCity::plot
EXTRN	___CxxFrameHandler3:PROC
;	COMDAT xdata$x
xdata$x	SEGMENT
__unwindtable$?Plot@CvDllCity@@UBGPAVICvPlot1@@XZ DD 0ffffffffH
	DD	FLAT:__unwindfunclet$?Plot@CvDllCity@@UBGPAVICvPlot1@@XZ$0
__ehfuncinfo$?Plot@CvDllCity@@UBGPAVICvPlot1@@XZ DD 019930522H
	DD	01H
	DD	FLAT:__unwindtable$?Plot@CvDllCity@@UBGPAVICvPlot1@@XZ
	DD	2 DUP(00H)
	DD	2 DUP(00H)
	DD	00H
	DD	01H
; Function compile flags: /Ogtpy
xdata$x	ENDS
;	COMDAT ?Plot@CvDllCity@@UBGPAVICvPlot1@@XZ
_TEXT	SEGMENT
__$EHRec$ = -12						; size = 12
$T218717 = 8						; size = 4
_this$ = 8						; size = 4
?Plot@CvDllCity@@UBGPAVICvPlot1@@XZ PROC		; CvDllCity::Plot, COMDAT

; 107  : {

	mov	eax, DWORD PTR fs:0
	push	-1
	push	__ehhandler$?Plot@CvDllCity@@UBGPAVICvPlot1@@XZ
	push	eax
	mov	DWORD PTR fs:0, esp

; 108  : 	CvPlot* pkPlot = m_pCity->plot();

	mov	eax, DWORD PTR _this$[esp+8]
	mov	ecx, DWORD PTR [eax+8]
	push	esi
	call	?plot@CvCity@@QBEPAVCvPlot@@XZ		; CvCity::plot
	mov	esi, eax

; 109  : 	return (NULL != pkPlot)? new CvDllPlot(pkPlot) : NULL;

	test	esi, esi
	je	SHORT $LN5@Plot
	push	12					; 0000000cH
	call	??2CvDllPlot@@SAPAXI@Z			; CvDllPlot::operator new
	add	esp, 4
	mov	DWORD PTR $T218717[esp+12], eax
	mov	DWORD PTR __$EHRec$[esp+24], 0
	test	eax, eax
	je	SHORT $LN5@Plot
	push	esi
	mov	ecx, eax
	call	??0CvDllPlot@@QAE@PAVCvPlot@@@Z		; CvDllPlot::CvDllPlot

; 110  : }

	mov	ecx, DWORD PTR __$EHRec$[esp+16]
	mov	DWORD PTR fs:0, ecx
	pop	esi
	add	esp, 12					; 0000000cH
	ret	4
$LN5@Plot:
	mov	ecx, DWORD PTR __$EHRec$[esp+16]
	xor	eax, eax
	mov	DWORD PTR fs:0, ecx
	pop	esi
	add	esp, 12					; 0000000cH
	ret	4
_TEXT	ENDS
;	COMDAT text$x
text$x	SEGMENT
__unwindfunclet$?Plot@CvDllCity@@UBGPAVICvPlot1@@XZ$0:
	mov	eax, DWORD PTR $T218717[ebp-4]
	push	eax
	call	??3CvDllPlot@@SAXPAX@Z			; CvDllPlot::operator delete
	pop	ecx
	ret	0
__ehhandler$?Plot@CvDllCity@@UBGPAVICvPlot1@@XZ:
	mov	eax, OFFSET __ehfuncinfo$?Plot@CvDllCity@@UBGPAVICvPlot1@@XZ
	jmp	___CxxFrameHandler3
text$x	ENDS
?Plot@CvDllCity@@UBGPAVICvPlot1@@XZ ENDP		; CvDllCity::Plot
EXTRN	?getPopulation@CvCity@@QBEHXZ:PROC		; CvCity::getPopulation
; Function compile flags: /Ogtpy
;	COMDAT ?GetPopulation@CvDllCity@@UBGHXZ
_TEXT	SEGMENT
_this$ = 8						; size = 4
?GetPopulation@CvDllCity@@UBGHXZ PROC			; CvDllCity::GetPopulation, COMDAT

; 114  : 	return m_pCity->getPopulation();

	mov	eax, DWORD PTR _this$[esp-4]
	mov	ecx, DWORD PTR [eax+8]
	call	?getPopulation@CvCity@@QBEHXZ		; CvCity::getPopulation

; 115  : }

	ret	4
?GetPopulation@CvDllCity@@UBGHXZ ENDP			; CvDllCity::GetPopulation
_TEXT	ENDS
EXTRN	?getNameKey@CvCity@@QBEPBDXZ:PROC		; CvCity::getNameKey
; Function compile flags: /Ogtpy
;	COMDAT ?GetName@CvDllCity@@UBGPBDXZ
_TEXT	SEGMENT
_this$ = 8						; size = 4
?GetName@CvDllCity@@UBGPBDXZ PROC			; CvDllCity::GetName, COMDAT

; 119  : 	return m_pCity->getNameKey();

	mov	eax, DWORD PTR _this$[esp-4]
	mov	ecx, DWORD PTR [eax+8]
	call	?getNameKey@CvCity@@QBEPBDXZ		; CvCity::getNameKey

; 120  : }

	ret	4
?GetName@CvDllCity@@UBGPBDXZ ENDP			; CvDllCity::GetName
_TEXT	ENDS
EXTRN	?CanBuyPlot@CvCity@@QAE_NHH_N@Z:PROC		; CvCity::CanBuyPlot
; Function compile flags: /Ogtpy
;	COMDAT ?CanBuyPlot@CvDllCity@@UAG_NHH_N@Z
_TEXT	SEGMENT
_this$ = 8						; size = 4
_iPlotX$ = 12						; size = 4
_iPlotY$ = 16						; size = 4
_bIgnoreCost$ = 20					; size = 1
?CanBuyPlot@CvDllCity@@UAG_NHH_N@Z PROC			; CvDllCity::CanBuyPlot, COMDAT

; 124  : 	return m_pCity->CanBuyPlot(iPlotX, iPlotY, bIgnoreCost);

	mov	eax, DWORD PTR _bIgnoreCost$[esp-4]
	mov	ecx, DWORD PTR _iPlotY$[esp-4]
	mov	edx, DWORD PTR _iPlotX$[esp-4]
	push	eax
	mov	eax, DWORD PTR _this$[esp]
	push	ecx
	mov	ecx, DWORD PTR [eax+8]
	push	edx
	call	?CanBuyPlot@CvCity@@QAE_NHH_N@Z		; CvCity::CanBuyPlot

; 125  : }

	ret	16					; 00000010H
?CanBuyPlot@CvDllCity@@UAG_NHH_N@Z ENDP			; CvDllCity::CanBuyPlot
_TEXT	ENDS
EXTRN	?getCitySizeType@CvCity@@QBE?AW4CitySizeTypes@@XZ:PROC ; CvCity::getCitySizeType
; Function compile flags: /Ogtpy
;	COMDAT ?GetCitySizeType@CvDllCity@@UBG?AW4CitySizeTypes@@XZ
_TEXT	SEGMENT
_this$ = 8						; size = 4
?GetCitySizeType@CvDllCity@@UBG?AW4CitySizeTypes@@XZ PROC ; CvDllCity::GetCitySizeType, COMDAT

; 129  : 	return m_pCity->getCitySizeType();

	mov	eax, DWORD PTR _this$[esp-4]
	mov	ecx, DWORD PTR [eax+8]
	call	?getCitySizeType@CvCity@@QBE?AW4CitySizeTypes@@XZ ; CvCity::getCitySizeType

; 130  : }

	ret	4
?GetCitySizeType@CvDllCity@@UBG?AW4CitySizeTypes@@XZ ENDP ; CvDllCity::GetCitySizeType
_TEXT	ENDS
EXTRN	?GetCityBombardEffectTag@CvCity@@QBEPBDXZ:PROC	; CvCity::GetCityBombardEffectTag
; Function compile flags: /Ogtpy
;	COMDAT ?GetCityBombardEffectTag@CvDllCity@@UBGPBDXZ
_TEXT	SEGMENT
_this$ = 8						; size = 4
?GetCityBombardEffectTag@CvDllCity@@UBGPBDXZ PROC	; CvDllCity::GetCityBombardEffectTag, COMDAT

; 134  : 	return m_pCity->GetCityBombardEffectTag();

	mov	eax, DWORD PTR _this$[esp-4]
	mov	ecx, DWORD PTR [eax+8]
	call	?GetCityBombardEffectTag@CvCity@@QBEPBDXZ ; CvCity::GetCityBombardEffectTag

; 135  : }

	ret	4
?GetCityBombardEffectTag@CvDllCity@@UBGPBDXZ ENDP	; CvDllCity::GetCityBombardEffectTag
_TEXT	ENDS
EXTRN	?getTeam@CvCity@@QBE?AW4TeamTypes@@XZ:PROC	; CvCity::getTeam
; Function compile flags: /Ogtpy
;	COMDAT ?GetTeam@CvDllCity@@UBG?AW4TeamTypes@@XZ
_TEXT	SEGMENT
_this$ = 8						; size = 4
?GetTeam@CvDllCity@@UBG?AW4TeamTypes@@XZ PROC		; CvDllCity::GetTeam, COMDAT

; 139  : 	return m_pCity->getTeam();

	mov	eax, DWORD PTR _this$[esp-4]
	mov	ecx, DWORD PTR [eax+8]
	call	?getTeam@CvCity@@QBE?AW4TeamTypes@@XZ	; CvCity::getTeam

; 140  : }

	ret	4
?GetTeam@CvDllCity@@UBG?AW4TeamTypes@@XZ ENDP		; CvDllCity::GetTeam
_TEXT	ENDS
EXTRN	?IsPuppet@CvCity@@QBE_NXZ:PROC			; CvCity::IsPuppet
; Function compile flags: /Ogtpy
;	COMDAT ?IsPuppet@CvDllCity@@UBG_NXZ
_TEXT	SEGMENT
_this$ = 8						; size = 4
?IsPuppet@CvDllCity@@UBG_NXZ PROC			; CvDllCity::IsPuppet, COMDAT

; 144  : 	return m_pCity->IsPuppet();

	mov	eax, DWORD PTR _this$[esp-4]
	mov	ecx, DWORD PTR [eax+8]
	call	?IsPuppet@CvCity@@QBE_NXZ		; CvCity::IsPuppet

; 145  : }

	ret	4
?IsPuppet@CvDllCity@@UBG_NXZ ENDP			; CvDllCity::IsPuppet
_TEXT	ENDS
EXTRN	?getStrengthValue@CvCity@@QBEH_N@Z:PROC		; CvCity::getStrengthValue
; Function compile flags: /Ogtpy
;	COMDAT ?GetStrengthValue@CvDllCity@@UBGH_N@Z
_TEXT	SEGMENT
_this$ = 8						; size = 4
_bForRangeStrike$ = 12					; size = 1
?GetStrengthValue@CvDllCity@@UBGH_N@Z PROC		; CvDllCity::GetStrengthValue, COMDAT

; 159  : 	return m_pCity->getStrengthValue(bForRangeStrike);

	mov	eax, DWORD PTR _bForRangeStrike$[esp-4]
	mov	ecx, DWORD PTR _this$[esp-4]
	mov	ecx, DWORD PTR [ecx+8]
	push	eax
	call	?getStrengthValue@CvCity@@QBEH_N@Z	; CvCity::getStrengthValue

; 160  : }

	ret	8
?GetStrengthValue@CvDllCity@@UBGH_N@Z ENDP		; CvDllCity::GetStrengthValue
_TEXT	ENDS
EXTRN	?foodDifference@CvCity@@QBEH_N@Z:PROC		; CvCity::foodDifference
; Function compile flags: /Ogtpy
;	COMDAT ?FoodDifference@CvDllCity@@UBGH_N@Z
_TEXT	SEGMENT
_this$ = 8						; size = 4
_bBottom$ = 12						; size = 1
?FoodDifference@CvDllCity@@UBGH_N@Z PROC		; CvDllCity::FoodDifference, COMDAT

; 164  : 	return m_pCity->foodDifference(bBottom);

	mov	eax, DWORD PTR _bBottom$[esp-4]
	mov	ecx, DWORD PTR _this$[esp-4]
	mov	ecx, DWORD PTR [ecx+8]
	push	eax
	call	?foodDifference@CvCity@@QBEH_N@Z	; CvCity::foodDifference

; 165  : }

	ret	8
?FoodDifference@CvDllCity@@UBGH_N@Z ENDP		; CvDllCity::FoodDifference
_TEXT	ENDS
EXTRN	?getFoodTurnsLeft@CvCity@@QBEHXZ:PROC		; CvCity::getFoodTurnsLeft
; Function compile flags: /Ogtpy
;	COMDAT ?GetFoodTurnsLeft@CvDllCity@@UBGHXZ
_TEXT	SEGMENT
_this$ = 8						; size = 4
?GetFoodTurnsLeft@CvDllCity@@UBGHXZ PROC		; CvDllCity::GetFoodTurnsLeft, COMDAT

; 169  : 	return m_pCity->getFoodTurnsLeft();

	mov	eax, DWORD PTR _this$[esp-4]
	mov	ecx, DWORD PTR [eax+8]
	call	?getFoodTurnsLeft@CvCity@@QBEHXZ	; CvCity::getFoodTurnsLeft

; 170  : }

	ret	4
?GetFoodTurnsLeft@CvDllCity@@UBGHXZ ENDP		; CvDllCity::GetFoodTurnsLeft
_TEXT	ENDS
PUBLIC	_IsEqualGUID
; Function compile flags: /Ogtpy
; File c:\program files\microsoft sdks\windows\v6.0a\include\guiddef.h
;	COMDAT _IsEqualGUID
_TEXT	SEGMENT
_rguid1$ = 8						; size = 4
_rguid2$ = 12						; size = 4
_IsEqualGUID PROC					; COMDAT

; 161  :     return !memcmp(&rguid1, &rguid2, sizeof(GUID));

	mov	ecx, DWORD PTR _rguid2$[esp-4]
	mov	edx, DWORD PTR _rguid1$[esp-4]
	mov	eax, 16					; 00000010H
	push	esi
	npad	2
$LL4@IsEqualGUI:
	mov	esi, DWORD PTR [edx]
	cmp	esi, DWORD PTR [ecx]
	jne	SHORT $LN5@IsEqualGUI
	sub	eax, 4
	add	ecx, 4
	add	edx, 4
	cmp	eax, 4
	jae	SHORT $LL4@IsEqualGUI
	xor	eax, eax
	xor	edx, edx
	test	eax, eax
	sete	dl
	pop	esi
	mov	eax, edx

; 162  : }

	ret	0
$LN5@IsEqualGUI:

; 161  :     return !memcmp(&rguid1, &rguid2, sizeof(GUID));

	movzx	eax, BYTE PTR [edx]
	movzx	esi, BYTE PTR [ecx]
	sub	eax, esi
	jne	SHORT $LN7@IsEqualGUI
	movzx	eax, BYTE PTR [edx+1]
	movzx	esi, BYTE PTR [ecx+1]
	sub	eax, esi
	jne	SHORT $LN7@IsEqualGUI
	movzx	eax, BYTE PTR [edx+2]
	movzx	esi, BYTE PTR [ecx+2]
	sub	eax, esi
	jne	SHORT $LN7@IsEqualGUI
	movzx	eax, BYTE PTR [edx+3]
	movzx	ecx, BYTE PTR [ecx+3]
	sub	eax, ecx
$LN7@IsEqualGUI:
	sar	eax, 31					; 0000001fH
	or	eax, 1
	xor	edx, edx
	test	eax, eax
	sete	dl
	pop	esi
	mov	eax, edx

; 162  : }

	ret	0
_IsEqualGUID ENDP
_TEXT	ENDS
EXTRN	?getYieldRate@CvCity@@QBEHW4YieldTypes@@_N@Z:PROC ; CvCity::getYieldRate
; Function compile flags: /Ogtpy
; File s:\lekmod_dll\cvgamecoredll_expansion2\cvdllcity.cpp
;	COMDAT ?GetYieldRate@CvDllCity@@UBGHH@Z
_TEXT	SEGMENT
_this$ = 8						; size = 4
_eIndex$ = 12						; size = 4
?GetYieldRate@CvDllCity@@UBGHH@Z PROC			; CvDllCity::GetYieldRate, COMDAT

; 174  : 	if(eIndex >= -1 && eIndex < NUM_YIELD_TYPES)

	mov	eax, DWORD PTR _eIndex$[esp-4]
	lea	ecx, DWORD PTR [eax+1]
	cmp	ecx, 6
	ja	SHORT $LN2@GetYieldRa

; 175  : 		return m_pCity->getYieldRate(static_cast<YieldTypes>(eIndex), false);

	mov	edx, DWORD PTR _this$[esp-4]
	mov	ecx, DWORD PTR [edx+8]
	push	0
	push	eax
	call	?getYieldRate@CvCity@@QBEHW4YieldTypes@@_N@Z ; CvCity::getYieldRate

; 178  : }

	ret	8
$LN2@GetYieldRa:

; 176  : 	else
; 177  : 		return 0;

	xor	eax, eax

; 178  : }

	ret	8
?GetYieldRate@CvDllCity@@UBGHH@Z ENDP			; CvDllCity::GetYieldRate
_TEXT	ENDS
PUBLIC	_==
; Function compile flags: /Ogtpy
; File c:\program files\microsoft sdks\windows\v6.0a\include\guiddef.h
;	COMDAT _==
_TEXT	SEGMENT
_guidOne$ = 8						; size = 4
_guidOther$ = 12					; size = 4
_==	PROC						; COMDAT

; 194  :     return IsEqualGUID(guidOne,guidOther);

	jmp	_IsEqualGUID
_==	ENDP
_TEXT	ENDS
EXTRN	?getJONSCulturePerTurn@CvCity@@QBEHXZ:PROC	; CvCity::getJONSCulturePerTurn
; Function compile flags: /Ogtpy
; File s:\lekmod_dll\cvgamecoredll_expansion2\cvdllcity.cpp
;	COMDAT ?GetJONSCulturePerTurn@CvDllCity@@UBGHXZ
_TEXT	SEGMENT
_this$ = 8						; size = 4
?GetJONSCulturePerTurn@CvDllCity@@UBGHXZ PROC		; CvDllCity::GetJONSCulturePerTurn, COMDAT

; 182  : 	return m_pCity->getJONSCulturePerTurn();

	mov	eax, DWORD PTR _this$[esp-4]
	mov	ecx, DWORD PTR [eax+8]
	call	?getJONSCulturePerTurn@CvCity@@QBEHXZ	; CvCity::getJONSCulturePerTurn

; 183  : }

	ret	4
?GetJONSCulturePerTurn@CvDllCity@@UBGHXZ ENDP		; CvDllCity::GetJONSCulturePerTurn
_TEXT	ENDS
EXTRN	?GetIDInfo@CvCity@@QBE?AUIDInfo@@XZ:PROC	; CvCity::GetIDInfo
; Function compile flags: /Ogtpy
;	COMDAT ?GetIDInfo@CvDllCity@@UBG?AUIDInfo@@XZ
_TEXT	SEGMENT
_this$ = 8						; size = 4
___$ReturnUdt$ = 12					; size = 4
?GetIDInfo@CvDllCity@@UBG?AUIDInfo@@XZ PROC		; CvDllCity::GetIDInfo, COMDAT

; 187  : 	return m_pCity->GetIDInfo();

	mov	eax, DWORD PTR _this$[esp-4]
	mov	ecx, DWORD PTR [eax+8]
	push	esi
	mov	esi, DWORD PTR ___$ReturnUdt$[esp]
	push	esi
	call	?GetIDInfo@CvCity@@QBE?AUIDInfo@@XZ	; CvCity::GetIDInfo
	mov	eax, esi
	pop	esi

; 188  : }

	ret	8
?GetIDInfo@CvDllCity@@UBG?AUIDInfo@@XZ ENDP		; CvDllCity::GetIDInfo
_TEXT	ENDS
EXTRN	?IsWorkingPlot@CvCityCitizens@@QBE_NPBVCvPlot@@@Z:PROC ; CvCityCitizens::IsWorkingPlot
EXTRN	?GetCityCitizens@CvCity@@QBEPAVCvCityCitizens@@XZ:PROC ; CvCity::GetCityCitizens
EXTRN	?GetInstance@CvDllPlot@@QAEPAVCvPlot@@XZ:PROC	; CvDllPlot::GetInstance
; Function compile flags: /Ogtpy
;	COMDAT ?IsWorkingPlot@CvDllCity@@UBG_NPAVICvPlot1@@@Z
_TEXT	SEGMENT
_this$ = 8						; size = 4
_pPlot$ = 12						; size = 4
?IsWorkingPlot@CvDllCity@@UBG_NPAVICvPlot1@@@Z PROC	; CvDllCity::IsWorkingPlot, COMDAT

; 192  : 	CvPlot* pkPlot = (NULL != pPlot)? static_cast<CvDllPlot*>(pPlot)->GetInstance() : NULL;

	mov	ecx, DWORD PTR _pPlot$[esp-4]
	test	ecx, ecx
	je	SHORT $LN5@IsWorkingP
	call	?GetInstance@CvDllPlot@@QAEPAVCvPlot@@XZ ; CvDllPlot::GetInstance

; 193  : 	return (NULL != pkPlot)? m_pCity->GetCityCitizens()->IsWorkingPlot(pkPlot) : NULL;

	test	eax, eax
	je	SHORT $LN5@IsWorkingP
	push	eax
	mov	eax, DWORD PTR _this$[esp]
	mov	ecx, DWORD PTR [eax+8]
	call	?GetCityCitizens@CvCity@@QBEPAVCvCityCitizens@@XZ ; CvCity::GetCityCitizens
	mov	ecx, eax
	call	?IsWorkingPlot@CvCityCitizens@@QBE_NPBVCvPlot@@@Z ; CvCityCitizens::IsWorkingPlot
	movzx	eax, al

; 194  : }

	ret	8
$LN5@IsWorkingP:

; 193  : 	return (NULL != pkPlot)? m_pCity->GetCityCitizens()->IsWorkingPlot(pkPlot) : NULL;

	xor	eax, eax

; 194  : }

	ret	8
?IsWorkingPlot@CvDllCity@@UBG_NPAVICvPlot1@@@Z ENDP	; CvDllCity::IsWorkingPlot
_TEXT	ENDS
EXTRN	?IsCanWork@CvCityCitizens@@QBE_NPAVCvPlot@@@Z:PROC ; CvCityCitizens::IsCanWork
; Function compile flags: /Ogtpy
;	COMDAT ?CanWork@CvDllCity@@UBG_NPAVICvPlot1@@@Z
_TEXT	SEGMENT
_this$ = 8						; size = 4
_pPlot$ = 12						; size = 4
?CanWork@CvDllCity@@UBG_NPAVICvPlot1@@@Z PROC		; CvDllCity::CanWork, COMDAT

; 198  : 	CvPlot* pkPlot = (NULL != pPlot)? static_cast<CvDllPlot*>(pPlot)->GetInstance() : NULL;

	mov	ecx, DWORD PTR _pPlot$[esp-4]
	test	ecx, ecx
	je	SHORT $LN5@CanWork
	call	?GetInstance@CvDllPlot@@QAEPAVCvPlot@@XZ ; CvDllPlot::GetInstance

; 199  : 	return (NULL != pkPlot)? m_pCity->GetCityCitizens()->IsCanWork(pkPlot) : NULL;

	test	eax, eax
	je	SHORT $LN5@CanWork
	push	eax
	mov	eax, DWORD PTR _this$[esp]
	mov	ecx, DWORD PTR [eax+8]
	call	?GetCityCitizens@CvCity@@QBEPAVCvCityCitizens@@XZ ; CvCity::GetCityCitizens
	mov	ecx, eax
	call	?IsCanWork@CvCityCitizens@@QBE_NPAVCvPlot@@@Z ; CvCityCitizens::IsCanWork
	movzx	eax, al

; 200  : }

	ret	8
$LN5@CanWork:

; 199  : 	return (NULL != pkPlot)? m_pCity->GetCityCitizens()->IsCanWork(pkPlot) : NULL;

	xor	eax, eax

; 200  : }

	ret	8
?CanWork@CvDllCity@@UBG_NPAVICvPlot1@@@Z ENDP		; CvDllCity::CanWork
_TEXT	ENDS
EXTRN	?GetCityPlotFromIndex@CvCityCitizens@@QBEPAVCvPlot@@H@Z:PROC ; CvCityCitizens::GetCityPlotFromIndex
;	COMDAT xdata$x
xdata$x	SEGMENT
__unwindtable$?GetCityPlotFromIndex@CvDllCity@@UBGPAVICvPlot1@@H@Z DD 0ffffffffH
	DD	FLAT:__unwindfunclet$?GetCityPlotFromIndex@CvDllCity@@UBGPAVICvPlot1@@H@Z$0
__ehfuncinfo$?GetCityPlotFromIndex@CvDllCity@@UBGPAVICvPlot1@@H@Z DD 019930522H
	DD	01H
	DD	FLAT:__unwindtable$?GetCityPlotFromIndex@CvDllCity@@UBGPAVICvPlot1@@H@Z
	DD	2 DUP(00H)
	DD	2 DUP(00H)
	DD	00H
	DD	01H
; Function compile flags: /Ogtpy
xdata$x	ENDS
;	COMDAT ?GetCityPlotFromIndex@CvDllCity@@UBGPAVICvPlot1@@H@Z
_TEXT	SEGMENT
__$EHRec$ = -12						; size = 12
_this$ = 8						; size = 4
$T218807 = 12						; size = 4
_iIndex$ = 12						; size = 4
?GetCityPlotFromIndex@CvDllCity@@UBGPAVICvPlot1@@H@Z PROC ; CvDllCity::GetCityPlotFromIndex, COMDAT

; 203  : {

	mov	eax, DWORD PTR fs:0

; 204  : 	CvPlot* pkPlot = m_pCity->GetCityCitizens()->GetCityPlotFromIndex(iIndex);

	mov	ecx, DWORD PTR _this$[esp-4]
	push	-1
	push	__ehhandler$?GetCityPlotFromIndex@CvDllCity@@UBGPAVICvPlot1@@H@Z
	push	eax
	mov	DWORD PTR fs:0, esp
	mov	eax, DWORD PTR _iIndex$[esp+8]
	mov	ecx, DWORD PTR [ecx+8]
	push	esi
	push	eax
	call	?GetCityCitizens@CvCity@@QBEPAVCvCityCitizens@@XZ ; CvCity::GetCityCitizens
	mov	ecx, eax
	call	?GetCityPlotFromIndex@CvCityCitizens@@QBEPAVCvPlot@@H@Z ; CvCityCitizens::GetCityPlotFromIndex
	mov	esi, eax

; 205  : 	return (NULL != pkPlot)? new CvDllPlot(pkPlot) : NULL;

	test	esi, esi
	je	SHORT $LN5@GetCityPlo
	push	12					; 0000000cH
	call	??2CvDllPlot@@SAPAXI@Z			; CvDllPlot::operator new
	add	esp, 4
	mov	DWORD PTR $T218807[esp+12], eax
	mov	DWORD PTR __$EHRec$[esp+24], 0
	test	eax, eax
	je	SHORT $LN5@GetCityPlo
	push	esi
	mov	ecx, eax
	call	??0CvDllPlot@@QAE@PAVCvPlot@@@Z		; CvDllPlot::CvDllPlot

; 206  : }

	mov	ecx, DWORD PTR __$EHRec$[esp+16]
	mov	DWORD PTR fs:0, ecx
	pop	esi
	add	esp, 12					; 0000000cH
	ret	8
$LN5@GetCityPlo:
	mov	ecx, DWORD PTR __$EHRec$[esp+16]
	xor	eax, eax
	mov	DWORD PTR fs:0, ecx
	pop	esi
	add	esp, 12					; 0000000cH
	ret	8
_TEXT	ENDS
;	COMDAT text$x
text$x	SEGMENT
__unwindfunclet$?GetCityPlotFromIndex@CvDllCity@@UBGPAVICvPlot1@@H@Z$0:
	mov	eax, DWORD PTR $T218807[ebp-4]
	push	eax
	call	??3CvDllPlot@@SAXPAX@Z			; CvDllPlot::operator delete
	pop	ecx
	ret	0
__ehhandler$?GetCityPlotFromIndex@CvDllCity@@UBGPAVICvPlot1@@H@Z:
	mov	eax, OFFSET __ehfuncinfo$?GetCityPlotFromIndex@CvDllCity@@UBGPAVICvPlot1@@H@Z
	jmp	___CxxFrameHandler3
text$x	ENDS
?GetCityPlotFromIndex@CvDllCity@@UBGPAVICvPlot1@@H@Z ENDP ; CvDllCity::GetCityPlotFromIndex
EXTRN	?getSyncArchive@CvCity@@QAEAAVFAutoArchive@@XZ:PROC ; CvCity::getSyncArchive
; Function compile flags: /Ogtpy
;	COMDAT ?GetSyncArchive@CvDllCity@@UAGAAVFAutoArchive@@XZ
_TEXT	SEGMENT
_this$ = 8						; size = 4
?GetSyncArchive@CvDllCity@@UAGAAVFAutoArchive@@XZ PROC	; CvDllCity::GetSyncArchive, COMDAT

; 210  : 	return m_pCity->getSyncArchive();

	mov	eax, DWORD PTR _this$[esp-4]
	mov	ecx, DWORD PTR [eax+8]
	call	?getSyncArchive@CvCity@@QAEAAVFAutoArchive@@XZ ; CvCity::getSyncArchive

; 211  : }

	ret	4
?GetSyncArchive@CvDllCity@@UAGAAVFAutoArchive@@XZ ENDP	; CvDllCity::GetSyncArchive
_TEXT	ENDS
PUBLIC	?GetInterfaceId@ICvUnknown@@SG?AU_GUID@@XZ	; ICvUnknown::GetInterfaceId
; Function compile flags: /Ogtpy
; File s:\lekmod_dll\cvgamecoredllutil\include\cvdllinterfaces.h
;	COMDAT ?GetInterfaceId@ICvUnknown@@SG?AU_GUID@@XZ
_TEXT	SEGMENT
$T218825 = 8						; size = 4
?GetInterfaceId@ICvUnknown@@SG?AU_GUID@@XZ PROC		; ICvUnknown::GetInterfaceId, COMDAT

; 306  : 	static GUID DLLCALL GetInterfaceId(){ return guidICvUnknown; }

	mov	eax, DWORD PTR $T218825[esp-4]
	mov	ecx, DWORD PTR _guidICvUnknown
	mov	edx, DWORD PTR _guidICvUnknown+4
	mov	DWORD PTR [eax], ecx
	mov	ecx, DWORD PTR _guidICvUnknown+8
	mov	DWORD PTR [eax+4], edx
	mov	edx, DWORD PTR _guidICvUnknown+12
	mov	DWORD PTR [eax+8], ecx
	mov	DWORD PTR [eax+12], edx
	ret	4
?GetInterfaceId@ICvUnknown@@SG?AU_GUID@@XZ ENDP		; ICvUnknown::GetInterfaceId
_TEXT	ENDS
PUBLIC	?GetInterfaceId@ICvCity1@@SG?AU_GUID@@XZ	; ICvCity1::GetInterfaceId
; Function compile flags: /Ogtpy
;	COMDAT ?GetInterfaceId@ICvCity1@@SG?AU_GUID@@XZ
_TEXT	SEGMENT
$T218829 = 8						; size = 4
?GetInterfaceId@ICvCity1@@SG?AU_GUID@@XZ PROC		; ICvCity1::GetInterfaceId, COMDAT

; 855  : 	static GUID DLLCALL GetInterfaceId() { return guidICvCity1; }

	mov	eax, DWORD PTR $T218829[esp-4]
	mov	ecx, DWORD PTR _guidICvCity1
	mov	edx, DWORD PTR _guidICvCity1+4
	mov	DWORD PTR [eax], ecx
	mov	ecx, DWORD PTR _guidICvCity1+8
	mov	DWORD PTR [eax+4], edx
	mov	edx, DWORD PTR _guidICvCity1+12
	mov	DWORD PTR [eax+8], ecx
	mov	DWORD PTR [eax+12], edx
	ret	4
?GetInterfaceId@ICvCity1@@SG?AU_GUID@@XZ ENDP		; ICvCity1::GetInterfaceId
_TEXT	ENDS
PUBLIC	??B?$FAutoVariable@W4PlayerTypes@@VCvCity@@@@QBEABW4PlayerTypes@@XZ ; FAutoVariable<enum PlayerTypes,CvCity>::operator enum PlayerTypes const &
; Function compile flags: /Ogtpy
; File s:\lekmod_dll\fireplace\include\fireworks\fautovariable.h
;	COMDAT ??B?$FAutoVariable@W4PlayerTypes@@VCvCity@@@@QBEABW4PlayerTypes@@XZ
_TEXT	SEGMENT
??B?$FAutoVariable@W4PlayerTypes@@VCvCity@@@@QBEABW4PlayerTypes@@XZ PROC ; FAutoVariable<enum PlayerTypes,CvCity>::operator enum PlayerTypes const &, COMDAT
; _this$ = ecx

; 194  : 	return m_value;

	lea	eax, DWORD PTR [ecx+4]

; 195  : }

	ret	0
??B?$FAutoVariable@W4PlayerTypes@@VCvCity@@@@QBEABW4PlayerTypes@@XZ ENDP ; FAutoVariable<enum PlayerTypes,CvCity>::operator enum PlayerTypes const &
_TEXT	ENDS
PUBLIC	??B?$FAutoVariable@HVCvCity@@@@QBEABHXZ		; FAutoVariable<int,CvCity>::operator int const &
; Function compile flags: /Ogtpy
;	COMDAT ??B?$FAutoVariable@HVCvCity@@@@QBEABHXZ
_TEXT	SEGMENT
??B?$FAutoVariable@HVCvCity@@@@QBEABHXZ PROC		; FAutoVariable<int,CvCity>::operator int const &, COMDAT
; _this$ = ecx

; 194  : 	return m_value;

	lea	eax, DWORD PTR [ecx+4]

; 195  : }

	ret	0
??B?$FAutoVariable@HVCvCity@@@@QBEABHXZ ENDP		; FAutoVariable<int,CvCity>::operator int const &
_TEXT	ENDS
PUBLIC	??_7ICvCity1@@6B@				; ICvCity1::`vftable'
PUBLIC	??0ICvCity1@@QAE@XZ				; ICvCity1::ICvCity1
PUBLIC	??_R4ICvCity1@@6B@				; ICvCity1::`RTTI Complete Object Locator'
;	COMDAT ??_R4ICvCity1@@6B@
rdata$r	SEGMENT
??_R4ICvCity1@@6B@ DD 00H				; ICvCity1::`RTTI Complete Object Locator'
	DD	00H
	DD	00H
	DD	FLAT:??_R0?AVICvCity1@@@8
	DD	FLAT:??_R3ICvCity1@@8
rdata$r	ENDS
;	COMDAT ??_7ICvCity1@@6B@
CONST	SEGMENT
??_7ICvCity1@@6B@ DD FLAT:??_R4ICvCity1@@6B@		; ICvCity1::`vftable'
	DD	FLAT:__purecall
	DD	FLAT:__purecall
	DD	FLAT:__purecall
	DD	FLAT:__purecall
	DD	FLAT:__purecall
	DD	FLAT:__purecall
	DD	FLAT:__purecall
	DD	FLAT:__purecall
	DD	FLAT:__purecall
	DD	FLAT:__purecall
	DD	FLAT:__purecall
	DD	FLAT:__purecall
	DD	FLAT:__purecall
	DD	FLAT:__purecall
	DD	FLAT:__purecall
	DD	FLAT:__purecall
	DD	FLAT:__purecall
	DD	FLAT:__purecall
	DD	FLAT:__purecall
	DD	FLAT:__purecall
	DD	FLAT:__purecall
	DD	FLAT:__purecall
	DD	FLAT:__purecall
	DD	FLAT:__purecall
	DD	FLAT:__purecall
	DD	FLAT:__purecall
; Function compile flags: /Ogtpy
CONST	ENDS
;	COMDAT ??0ICvCity1@@QAE@XZ
_TEXT	SEGMENT
??0ICvCity1@@QAE@XZ PROC				; ICvCity1::ICvCity1, COMDAT
; _this$ = ecx
	mov	eax, ecx
	mov	DWORD PTR [eax], OFFSET ??_7ICvCity1@@6B@
	ret	0
??0ICvCity1@@QAE@XZ ENDP				; ICvCity1::ICvCity1
; Function compile flags: /Ogtpy
; File s:\lekmod_dll\cvgamecoredll_expansion2\cvdllcity.cpp
_TEXT	ENDS
;	COMDAT ?QueryInterface@CvDllCity@@UAGPAXU_GUID@@@Z
_TEXT	SEGMENT
$T218847 = -16						; size = 16
$T218845 = -16						; size = 16
_this$ = 8						; size = 4
_guidInterface$ = 12					; size = 16
?QueryInterface@CvDllCity@@UAGPAXU_GUID@@@Z PROC	; CvDllCity::QueryInterface, COMDAT

; 29   : {

	sub	esp, 16					; 00000010H

; 30   : 	if(guidInterface == ICvUnknown::GetInterfaceId() ||
; 31   : 	        guidInterface == ICvCity1::GetInterfaceId())

	mov	ecx, DWORD PTR _guidICvUnknown+4
	mov	edx, DWORD PTR _guidICvUnknown+8
	mov	eax, DWORD PTR _guidICvUnknown
	mov	DWORD PTR $T218845[esp+20], ecx
	lea	ecx, DWORD PTR $T218845[esp+16]
	mov	DWORD PTR $T218845[esp+24], edx
	mov	DWORD PTR $T218845[esp+16], eax
	mov	eax, DWORD PTR _guidICvUnknown+12
	push	ecx
	lea	edx, DWORD PTR _guidInterface$[esp+16]
	push	edx
	mov	DWORD PTR $T218845[esp+36], eax
	call	_IsEqualGUID
	add	esp, 8
	test	eax, eax
	jne	SHORT $LN1@QueryInter
	mov	ecx, DWORD PTR _guidICvCity1+4
	mov	edx, DWORD PTR _guidICvCity1+8
	mov	eax, DWORD PTR _guidICvCity1
	mov	DWORD PTR $T218847[esp+20], ecx
	lea	ecx, DWORD PTR $T218847[esp+16]
	mov	DWORD PTR $T218847[esp+24], edx
	mov	DWORD PTR $T218847[esp+16], eax
	mov	eax, DWORD PTR _guidICvCity1+12
	push	ecx
	lea	edx, DWORD PTR _guidInterface$[esp+16]
	push	edx
	mov	DWORD PTR $T218847[esp+36], eax
	call	_IsEqualGUID
	add	esp, 8
	test	eax, eax
	jne	SHORT $LN1@QueryInter

; 34   : 		return this;
; 35   : 	}
; 36   : 
; 37   : 	return NULL;
; 38   : }

	add	esp, 16					; 00000010H
	ret	20					; 00000014H
$LN1@QueryInter:

; 32   : 	{
; 33   : 		IncrementReference();

	mov	eax, DWORD PTR _this$[esp+12]
	inc	DWORD PTR [eax+4]

; 34   : 		return this;
; 35   : 	}
; 36   : 
; 37   : 	return NULL;
; 38   : }

	add	esp, 16					; 00000010H
	ret	20					; 00000014H
?QueryInterface@CvDllCity@@UAGPAXU_GUID@@@Z ENDP	; CvDllCity::QueryInterface
_TEXT	ENDS
PUBLIC	??_GCvDllCity@@QAEPAXI@Z			; CvDllCity::`scalar deleting destructor'
; Function compile flags: /Ogtpy
;	COMDAT ??_GCvDllCity@@QAEPAXI@Z
_TEXT	SEGMENT
___flags$ = 8						; size = 4
??_GCvDllCity@@QAEPAXI@Z PROC				; CvDllCity::`scalar deleting destructor', COMDAT
; _this$ = ecx
	test	BYTE PTR ___flags$[esp-4], 1
	push	esi
	mov	esi, ecx
	mov	DWORD PTR [esi], OFFSET ??_7CvDllCity@@6B@
	je	SHORT $LN8@scalar
	push	esi
	call	?Free@CvDllGameContext@@SAXPAX@Z	; CvDllGameContext::Free
	add	esp, 4
$LN8@scalar:
	mov	eax, esi
	pop	esi
	ret	4
??_GCvDllCity@@QAEPAXI@Z ENDP				; CvDllCity::`scalar deleting destructor'
_TEXT	ENDS
PUBLIC	?GetID@CvCity@@QBEHXZ				; CvCity::GetID
; Function compile flags: /Ogtpy
; File s:\lekmod_dll\cvgamecoredll_expansion2\cvcity.h
;	COMDAT ?GetID@CvCity@@QBEHXZ
_TEXT	SEGMENT
?GetID@CvCity@@QBEHXZ PROC				; CvCity::GetID, COMDAT
; _this$ = ecx

; 331  : 		return m_iID;

	mov	eax, DWORD PTR [ecx+120]

; 332  : 	}

	ret	0
?GetID@CvCity@@QBEHXZ ENDP				; CvCity::GetID
_TEXT	ENDS
PUBLIC	?getX@CvCity@@QBEHXZ				; CvCity::getX
; Function compile flags: /Ogtpy
;	COMDAT ?getX@CvCity@@QBEHXZ
_TEXT	SEGMENT
?getX@CvCity@@QBEHXZ PROC				; CvCity::getX, COMDAT
; _this$ = ecx

; 340  : 		return m_iX;

	mov	eax, DWORD PTR [ecx+96]

; 341  : 	}

	ret	0
?getX@CvCity@@QBEHXZ ENDP				; CvCity::getX
_TEXT	ENDS
PUBLIC	?getY@CvCity@@QBEHXZ				; CvCity::getY
; Function compile flags: /Ogtpy
;	COMDAT ?getY@CvCity@@QBEHXZ
_TEXT	SEGMENT
?getY@CvCity@@QBEHXZ PROC				; CvCity::getY, COMDAT
; _this$ = ecx

; 345  : 		return m_iY;

	mov	eax, DWORD PTR [ecx+108]

; 346  : 	}

	ret	0
?getY@CvCity@@QBEHXZ ENDP				; CvCity::getY
_TEXT	ENDS
PUBLIC	?getOwner@CvCity@@QBE?AW4PlayerTypes@@XZ	; CvCity::getOwner
; Function compile flags: /Ogtpy
;	COMDAT ?getOwner@CvCity@@QBE?AW4PlayerTypes@@XZ
_TEXT	SEGMENT
?getOwner@CvCity@@QBE?AW4PlayerTypes@@XZ PROC		; CvCity::getOwner, COMDAT
; _this$ = ecx

; 604  : 		return m_eOwner;

	mov	eax, DWORD PTR [ecx+84]

; 605  : 	}

	ret	0
?getOwner@CvCity@@QBE?AW4PlayerTypes@@XZ ENDP		; CvCity::getOwner
_TEXT	ENDS
PUBLIC	??0CvDllCity@@QAE@PAVCvCity@@@Z			; CvDllCity::CvDllCity
; Function compile flags: /Ogtpy
; File s:\lekmod_dll\cvgamecoredll_expansion2\cvdllcity.cpp
;	COMDAT ??0CvDllCity@@QAE@PAVCvCity@@@Z
_TEXT	SEGMENT
_pCity$ = 8						; size = 4
??0CvDllCity@@QAE@PAVCvCity@@@Z PROC			; CvDllCity::CvDllCity, COMDAT
; _this$ = ecx

; 21   : {

	mov	eax, ecx
	mov	ecx, DWORD PTR _pCity$[esp-4]
	mov	DWORD PTR [eax], OFFSET ??_7CvDllCity@@6B@
	mov	DWORD PTR [eax+4], 1
	mov	DWORD PTR [eax+8], ecx

; 22   : }

	ret	4
??0CvDllCity@@QAE@PAVCvCity@@@Z ENDP			; CvDllCity::CvDllCity
_TEXT	ENDS
PUBLIC	?DecrementReference@CvDllCity@@QAEIXZ		; CvDllCity::DecrementReference
; Function compile flags: /Ogtpy
;	COMDAT ?DecrementReference@CvDllCity@@QAEIXZ
_TEXT	SEGMENT
?DecrementReference@CvDllCity@@QAEIXZ PROC		; CvDllCity::DecrementReference, COMDAT
; _this$ = ecx

; 48   : 	if(m_uiRefCount == 1)

	mov	eax, DWORD PTR [ecx+4]
	cmp	eax, 1
	jne	SHORT $LN2@DecrementR

; 49   : 	{
; 50   : 		delete this;

	push	ecx
	mov	DWORD PTR [ecx], OFFSET ??_7CvDllCity@@6B@
	call	?Free@CvDllGameContext@@SAXPAX@Z	; CvDllGameContext::Free
	add	esp, 4

; 51   : 		return 0;

	xor	eax, eax

; 56   : 		return m_uiRefCount;
; 57   : 	}
; 58   : }

	ret	0
$LN2@DecrementR:

; 52   : 	}
; 53   : 	else
; 54   : 	{
; 55   : 		--m_uiRefCount;

	dec	eax
	mov	DWORD PTR [ecx+4], eax

; 56   : 		return m_uiRefCount;
; 57   : 	}
; 58   : }

	ret	0
?DecrementReference@CvDllCity@@QAEIXZ ENDP		; CvDllCity::DecrementReference
; Function compile flags: /Ogtpy
_TEXT	ENDS
;	COMDAT ?Destroy@CvDllCity@@EAGXXZ
_TEXT	SEGMENT
_this$ = 8						; size = 4
?Destroy@CvDllCity@@EAGXXZ PROC				; CvDllCity::Destroy, COMDAT

; 67   : 	DecrementReference();

	mov	eax, DWORD PTR _this$[esp-4]
	mov	ecx, DWORD PTR [eax+4]
	cmp	ecx, 1
	jne	SHORT $LN4@Destroy
	push	eax
	mov	DWORD PTR [eax], OFFSET ??_7CvDllCity@@6B@
	call	?Free@CvDllGameContext@@SAXPAX@Z	; CvDllGameContext::Free
	add	esp, 4

; 68   : }

	ret	4

; 67   : 	DecrementReference();

$LN4@Destroy:
	dec	ecx
	mov	DWORD PTR [eax+4], ecx

; 68   : }

	ret	4
?Destroy@CvDllCity@@EAGXXZ ENDP				; CvDllCity::Destroy
; Function compile flags: /Ogtpy
_TEXT	ENDS
;	COMDAT ?GetID@CvDllCity@@UBGHXZ
_TEXT	SEGMENT
_this$ = 8						; size = 4
?GetID@CvDllCity@@UBGHXZ PROC				; CvDllCity::GetID, COMDAT

; 87   : 	return m_pCity->GetID();

	mov	eax, DWORD PTR _this$[esp-4]
	mov	ecx, DWORD PTR [eax+8]
	mov	eax, DWORD PTR [ecx+120]

; 88   : }

	ret	4
?GetID@CvDllCity@@UBGHXZ ENDP				; CvDllCity::GetID
; Function compile flags: /Ogtpy
_TEXT	ENDS
;	COMDAT ?GetOwner@CvDllCity@@UBG?AW4PlayerTypes@@XZ
_TEXT	SEGMENT
_this$ = 8						; size = 4
?GetOwner@CvDllCity@@UBG?AW4PlayerTypes@@XZ PROC	; CvDllCity::GetOwner, COMDAT

; 92   : 	return m_pCity->getOwner();

	mov	eax, DWORD PTR _this$[esp-4]
	mov	ecx, DWORD PTR [eax+8]
	mov	eax, DWORD PTR [ecx+84]

; 93   : }

	ret	4
?GetOwner@CvDllCity@@UBG?AW4PlayerTypes@@XZ ENDP	; CvDllCity::GetOwner
; Function compile flags: /Ogtpy
_TEXT	ENDS
;	COMDAT ?GetPosition@CvDllCity@@UBGXAAH0@Z
_TEXT	SEGMENT
_this$ = 8						; size = 4
_iX$ = 12						; size = 4
_iY$ = 16						; size = 4
?GetPosition@CvDllCity@@UBGXAAH0@Z PROC			; CvDllCity::GetPosition, COMDAT

; 102  : 	iX = m_pCity->getX();

	mov	eax, DWORD PTR _this$[esp-4]
	mov	ecx, DWORD PTR [eax+8]
	mov	edx, DWORD PTR [ecx+96]
	mov	ecx, DWORD PTR _iX$[esp-4]
	mov	DWORD PTR [ecx], edx

; 103  : 	iY = m_pCity->getY();

	mov	edx, DWORD PTR [eax+8]
	mov	eax, DWORD PTR [edx+108]
	mov	ecx, DWORD PTR _iY$[esp-4]
	mov	DWORD PTR [ecx], eax

; 104  : }

	ret	12					; 0000000cH
?GetPosition@CvDllCity@@UBGXAAH0@Z ENDP			; CvDllCity::GetPosition
; Function compile flags: /Ogtpy
_TEXT	ENDS
;	COMDAT ?GetX@CvDllCity@@UBGHXZ
_TEXT	SEGMENT
_this$ = 8						; size = 4
?GetX@CvDllCity@@UBGHXZ PROC				; CvDllCity::GetX, COMDAT

; 149  : 	return m_pCity->getX();

	mov	eax, DWORD PTR _this$[esp-4]
	mov	ecx, DWORD PTR [eax+8]
	mov	eax, DWORD PTR [ecx+96]

; 150  : }

	ret	4
?GetX@CvDllCity@@UBGHXZ ENDP				; CvDllCity::GetX
; Function compile flags: /Ogtpy
_TEXT	ENDS
;	COMDAT ?GetY@CvDllCity@@UBGHXZ
_TEXT	SEGMENT
_this$ = 8						; size = 4
?GetY@CvDllCity@@UBGHXZ PROC				; CvDllCity::GetY, COMDAT

; 154  : 	return m_pCity->getY();

	mov	eax, DWORD PTR _this$[esp-4]
	mov	ecx, DWORD PTR [eax+8]
	mov	eax, DWORD PTR [ecx+108]

; 155  : }

	ret	4
?GetY@CvDllCity@@UBGHXZ ENDP				; CvDllCity::GetY
_TEXT	ENDS
END
