; Listing generated by Microsoft (R) Optimizing Compiler Version 15.00.30729.01 

	TITLE	c:\Users\EnormousApplePie\Documents\GitHub\Lekmod\LEKMOD_DLL\CvGameCoreDLL_Expansion2\CvDllNetMessageHandler.cpp
	.686P
	.XMM
	include listing.inc
	.model	flat

INCLUDELIB MSVCRT
INCLUDELIB OLDNAMES

PUBLIC	?NO_QUEST_DATA@CvMinorCivQuest@@2HB		; CvMinorCivQuest::NO_QUEST_DATA
PUBLIC	?NO_TURN@CvMinorCivQuest@@2HB			; CvMinorCivQuest::NO_TURN
;	COMDAT ?NO_TURN@CvMinorCivQuest@@2HB
CONST	SEGMENT
?NO_TURN@CvMinorCivQuest@@2HB DD 0ffffffffH		; CvMinorCivQuest::NO_TURN
CONST	ENDS
;	COMDAT ?NO_QUEST_DATA@CvMinorCivQuest@@2HB
CONST	SEGMENT
?NO_QUEST_DATA@CvMinorCivQuest@@2HB DD 0ffffffffH	; CvMinorCivQuest::NO_QUEST_DATA
CONST	ENDS
_DATA	SEGMENT
_CIV5_XP2_DLL_VERSION DD FLAT:$SG217441
_DATA	ENDS
CONST	SEGMENT
$SG217441 DB	'1.0.0', 00H
	ORG $+2
$SG222883 DB	'TXT_KEY_NOTIFICATION_FOUND_RELIGION', 00H
$SG222886 DB	'TXT_KEY_NOTIFICATION_SUMMARY_FOUND_RELIGION', 00H
$SG222909 DB	'TXT_KEY_NOTIFICATION_ENHANCE_RELIGION', 00H
	ORG $+2
$SG222912 DB	'TXT_KEY_NOTIFICATION_SUMMARY_ENHANCE_RELIGION', 00H
	ORG $+2
$SG223003 DB	'GREAT_WORK_ARTIFACT', 00H
$SG223006 DB	'GREAT_WORK_ART', 00H
	ORG $+1
$SG223009 DB	'GREAT_WORK_LITERATURE', 00H
	ORG $+2
$SG223012 DB	'GREAT_WORK_MUSIC', 00H
	ORG $+3
$SG223016 DB	'GREAT_WORK_ARTIFACT', 00H
$SG223019 DB	'GREAT_WORK_ART', 00H
	ORG $+1
$SG223022 DB	'GREAT_WORK_LITERATURE', 00H
	ORG $+2
$SG223025 DB	'GREAT_WORK_MUSIC', 00H
	ORG $+3
$SG223125 DB	'TXT_KEY_DEAL_EXPIRED', 00H
	ORG $+3
$SG223130 DB	'TXT_KEY_DEAL_EXPIRED_FROM_YOU', 00H
	ORG $+2
$SG223138 DB	'TXT_KEY_DEAL_EXPIRED_FROM_THEM', 00H
	ORG $+1
$SG223146 DB	'TXT_KEY_DEAL_ACCEPTED', 00H
	ORG $+2
$SG223149 DB	'TXT_KEY_DEAL_ACCEPTED_BY_THEM', 00H
	ORG $+2
$SG223152 DB	'TXT_KEY_DEAL_ACCEPTED', 00H
	ORG $+2
$SG223154 DB	'TXT_KEY_DEAL_ACCEPTED_BY_YOU', 00H
	ORG $+3
$SG223160 DB	'TXT_KEY_DEAL_WITHDRAWN', 00H
	ORG $+1
$SG223163 DB	'TXT_KEY_DEAL_WITHDRAWN_BY_YOU', 00H
	ORG $+2
$SG223166 DB	'TXT_KEY_DEAL_WITHDRAWN', 00H
	ORG $+1
$SG223168 DB	'TXT_KEY_DEAL_WITHDRAWN_BY_THEM', 00H
	ORG $+1
$SG223173 DB	'TXT_KEY_DEAL_REJECTED', 00H
	ORG $+2
$SG223176 DB	'TXT_KEY_DEAL_REJECTED_BY_THEM', 00H
	ORG $+2
$SG223179 DB	'TXT_KEY_DEAL_REJECTED', 00H
	ORG $+2
$SG223181 DB	'TXT_KEY_DEAL_REJECTED_BY_YOU', 00H
	ORG $+3
$SG223330 DB	'CitySoldBuilding', 00H
	ORG $+3
_guidICvUnknown DD 0d89ba82fH
	DW	09fa3H
	DW	04696H
	DB	0b3H
	DB	0f4H
	DB	052H
	DB	0bdH
	DB	0b1H
	DB	01H
	DB	0cfH
	DB	0b2H
_guidICvNetMessageHandler1 DD 055b80da7H
	DW	0d175H
	DW	04ea7H
	DB	0b5H
	DB	055H
	DB	0b9H
	DB	088H
	DB	045H
	DB	0ddH
	DB	0dcH
	DB	08eH
_guidICvNetMessageHandler2 DD 0a8d76617H
	DW	0571dH
	DW	040a5H
	DB	0b8H
	DB	02cH
	DB	0ffH
	DB	0cH
	DB	051H
	DB	049H
	DB	07cH
	DB	013H
_guidICvNetMessageHandler3 DD 09b606e9aH
	DW	0670cH
	DW	046fbH
	DB	0beH
	DB	0c9H
	DB	0e6H
	DB	06aH
	DB	02eH
	DB	08eH
	DB	072H
	DB	06bH
CONST	ENDS
PUBLIC	_IsEqualGUID
; Function compile flags: /Ogtpy
; File c:\program files\microsoft sdks\windows\v6.0a\include\guiddef.h
;	COMDAT _IsEqualGUID
_TEXT	SEGMENT
_rguid1$ = 8						; size = 4
_rguid2$ = 12						; size = 4
_IsEqualGUID PROC					; COMDAT

; 161  :     return !memcmp(&rguid1, &rguid2, sizeof(GUID));

	mov	ecx, DWORD PTR _rguid2$[esp-4]
	mov	edx, DWORD PTR _rguid1$[esp-4]
	mov	eax, 16					; 00000010H
	push	esi
	npad	2
$LL4@IsEqualGUI:
	mov	esi, DWORD PTR [edx]
	cmp	esi, DWORD PTR [ecx]
	jne	SHORT $LN5@IsEqualGUI
	sub	eax, 4
	add	ecx, 4
	add	edx, 4
	cmp	eax, 4
	jae	SHORT $LL4@IsEqualGUI
	xor	eax, eax
	xor	edx, edx
	test	eax, eax
	sete	dl
	pop	esi
	mov	eax, edx

; 162  : }

	ret	0
$LN5@IsEqualGUI:

; 161  :     return !memcmp(&rguid1, &rguid2, sizeof(GUID));

	movzx	eax, BYTE PTR [edx]
	movzx	esi, BYTE PTR [ecx]
	sub	eax, esi
	jne	SHORT $LN7@IsEqualGUI
	movzx	eax, BYTE PTR [edx+1]
	movzx	esi, BYTE PTR [ecx+1]
	sub	eax, esi
	jne	SHORT $LN7@IsEqualGUI
	movzx	eax, BYTE PTR [edx+2]
	movzx	esi, BYTE PTR [ecx+2]
	sub	eax, esi
	jne	SHORT $LN7@IsEqualGUI
	movzx	eax, BYTE PTR [edx+3]
	movzx	ecx, BYTE PTR [ecx+3]
	sub	eax, ecx
$LN7@IsEqualGUI:
	sar	eax, 31					; 0000001fH
	or	eax, 1
	xor	edx, edx
	test	eax, eax
	sete	dl
	pop	esi
	mov	eax, edx

; 162  : }

	ret	0
_IsEqualGUID ENDP
_TEXT	ENDS
PUBLIC	_==
; Function compile flags: /Ogtpy
;	COMDAT _==
_TEXT	SEGMENT
_guidOne$ = 8						; size = 4
_guidOther$ = 12					; size = 4
_==	PROC						; COMDAT

; 194  :     return IsEqualGUID(guidOne,guidOther);

	jmp	_IsEqualGUID
_==	ENDP
_TEXT	ENDS
PUBLIC	??_7ICvUnknown@@6B@				; ICvUnknown::`vftable'
PUBLIC	??0ICvUnknown@@QAE@XZ				; ICvUnknown::ICvUnknown
PUBLIC	??_R4ICvUnknown@@6B@				; ICvUnknown::`RTTI Complete Object Locator'
PUBLIC	??_R0?AVICvUnknown@@@8				; ICvUnknown `RTTI Type Descriptor'
PUBLIC	??_R3ICvUnknown@@8				; ICvUnknown::`RTTI Class Hierarchy Descriptor'
PUBLIC	??_R2ICvUnknown@@8				; ICvUnknown::`RTTI Base Class Array'
PUBLIC	??_R1A@?0A@EA@ICvUnknown@@8			; ICvUnknown::`RTTI Base Class Descriptor at (0,-1,0,64)'
EXTRN	??_7type_info@@6B@:QWORD			; type_info::`vftable'
EXTRN	__purecall:PROC
;	COMDAT ??_R1A@?0A@EA@ICvUnknown@@8
rdata$r	SEGMENT
??_R1A@?0A@EA@ICvUnknown@@8 DD FLAT:??_R0?AVICvUnknown@@@8 ; ICvUnknown::`RTTI Base Class Descriptor at (0,-1,0,64)'
	DD	00H
	DD	00H
	DD	0ffffffffH
	DD	00H
	DD	040H
	DD	FLAT:??_R3ICvUnknown@@8
rdata$r	ENDS
;	COMDAT ??_R2ICvUnknown@@8
rdata$r	SEGMENT
??_R2ICvUnknown@@8 DD FLAT:??_R1A@?0A@EA@ICvUnknown@@8	; ICvUnknown::`RTTI Base Class Array'
rdata$r	ENDS
;	COMDAT ??_R3ICvUnknown@@8
rdata$r	SEGMENT
??_R3ICvUnknown@@8 DD 00H				; ICvUnknown::`RTTI Class Hierarchy Descriptor'
	DD	00H
	DD	01H
	DD	FLAT:??_R2ICvUnknown@@8
rdata$r	ENDS
;	COMDAT ??_R0?AVICvUnknown@@@8
_DATA	SEGMENT
??_R0?AVICvUnknown@@@8 DD FLAT:??_7type_info@@6B@	; ICvUnknown `RTTI Type Descriptor'
	DD	00H
	DB	'.?AVICvUnknown@@', 00H
_DATA	ENDS
;	COMDAT ??_R4ICvUnknown@@6B@
rdata$r	SEGMENT
??_R4ICvUnknown@@6B@ DD 00H				; ICvUnknown::`RTTI Complete Object Locator'
	DD	00H
	DD	00H
	DD	FLAT:??_R0?AVICvUnknown@@@8
	DD	FLAT:??_R3ICvUnknown@@8
rdata$r	ENDS
;	COMDAT ??_7ICvUnknown@@6B@
CONST	SEGMENT
??_7ICvUnknown@@6B@ DD FLAT:??_R4ICvUnknown@@6B@	; ICvUnknown::`vftable'
	DD	FLAT:__purecall
	DD	FLAT:__purecall
; Function compile flags: /Ogtpy
CONST	ENDS
;	COMDAT ??0ICvUnknown@@QAE@XZ
_TEXT	SEGMENT
??0ICvUnknown@@QAE@XZ PROC				; ICvUnknown::ICvUnknown, COMDAT
; _this$ = ecx
	mov	eax, ecx
	mov	DWORD PTR [eax], OFFSET ??_7ICvUnknown@@6B@
	ret	0
??0ICvUnknown@@QAE@XZ ENDP				; ICvUnknown::ICvUnknown
_TEXT	ENDS
PUBLIC	??_7CvDllNetMessageHandler@@6B@			; CvDllNetMessageHandler::`vftable'
PUBLIC	??1CvDllNetMessageHandler@@QAE@XZ		; CvDllNetMessageHandler::~CvDllNetMessageHandler
PUBLIC	??_R4CvDllNetMessageHandler@@6B@		; CvDllNetMessageHandler::`RTTI Complete Object Locator'
PUBLIC	??_R0?AVCvDllNetMessageHandler@@@8		; CvDllNetMessageHandler `RTTI Type Descriptor'
PUBLIC	??_R3CvDllNetMessageHandler@@8			; CvDllNetMessageHandler::`RTTI Class Hierarchy Descriptor'
PUBLIC	??_R2CvDllNetMessageHandler@@8			; CvDllNetMessageHandler::`RTTI Base Class Array'
PUBLIC	??_R1A@?0A@EA@CvDllNetMessageHandler@@8		; CvDllNetMessageHandler::`RTTI Base Class Descriptor at (0,-1,0,64)'
PUBLIC	??_R1A@?0A@EA@ICvNetMessageHandler3@@8		; ICvNetMessageHandler3::`RTTI Base Class Descriptor at (0,-1,0,64)'
PUBLIC	??_R0?AVICvNetMessageHandler3@@@8		; ICvNetMessageHandler3 `RTTI Type Descriptor'
PUBLIC	??_R3ICvNetMessageHandler3@@8			; ICvNetMessageHandler3::`RTTI Class Hierarchy Descriptor'
PUBLIC	??_R2ICvNetMessageHandler3@@8			; ICvNetMessageHandler3::`RTTI Base Class Array'
PUBLIC	??_R1A@?0A@EA@ICvNetMessageHandler2@@8		; ICvNetMessageHandler2::`RTTI Base Class Descriptor at (0,-1,0,64)'
PUBLIC	??_R0?AVICvNetMessageHandler2@@@8		; ICvNetMessageHandler2 `RTTI Type Descriptor'
PUBLIC	??_R3ICvNetMessageHandler2@@8			; ICvNetMessageHandler2::`RTTI Class Hierarchy Descriptor'
PUBLIC	??_R2ICvNetMessageHandler2@@8			; ICvNetMessageHandler2::`RTTI Base Class Array'
PUBLIC	??_R1A@?0A@EA@ICvNetMessageHandler1@@8		; ICvNetMessageHandler1::`RTTI Base Class Descriptor at (0,-1,0,64)'
PUBLIC	??_R0?AVICvNetMessageHandler1@@@8		; ICvNetMessageHandler1 `RTTI Type Descriptor'
PUBLIC	??_R3ICvNetMessageHandler1@@8			; ICvNetMessageHandler1::`RTTI Class Hierarchy Descriptor'
PUBLIC	??_R2ICvNetMessageHandler1@@8			; ICvNetMessageHandler1::`RTTI Base Class Array'
PUBLIC	?QueryInterface@CvDllNetMessageHandler@@UAGPAXU_GUID@@@Z ; CvDllNetMessageHandler::QueryInterface
PUBLIC	?Destroy@CvDllNetMessageHandler@@EAGXXZ		; CvDllNetMessageHandler::Destroy
PUBLIC	?ResponseAdvancedStartAction@CvDllNetMessageHandler@@UAGXW4PlayerTypes@@W4AdvancedStartActionTypes@@HHH_N@Z ; CvDllNetMessageHandler::ResponseAdvancedStartAction
PUBLIC	?ResponseAutoMission@CvDllNetMessageHandler@@UAGXW4PlayerTypes@@H@Z ; CvDllNetMessageHandler::ResponseAutoMission
PUBLIC	?ResponseBarbarianRansom@CvDllNetMessageHandler@@UAGXW4PlayerTypes@@HH@Z ; CvDllNetMessageHandler::ResponseBarbarianRansom
PUBLIC	?ResponseChangeWar@CvDllNetMessageHandler@@UAGXW4PlayerTypes@@W4TeamTypes@@_N@Z ; CvDllNetMessageHandler::ResponseChangeWar
PUBLIC	?ResponseCityBuyPlot@CvDllNetMessageHandler@@UAGXW4PlayerTypes@@HHH@Z ; CvDllNetMessageHandler::ResponseCityBuyPlot
PUBLIC	?ResponseCityDoTask@CvDllNetMessageHandler@@UAGXW4PlayerTypes@@HW4TaskTypes@@HH_N222@Z ; CvDllNetMessageHandler::ResponseCityDoTask
PUBLIC	?ResponseCityPopOrder@CvDllNetMessageHandler@@UAGXW4PlayerTypes@@HH@Z ; CvDllNetMessageHandler::ResponseCityPopOrder
PUBLIC	?ResponseCityPurchase@CvDllNetMessageHandler@@UAGXW4PlayerTypes@@HW4UnitTypes@@W4BuildingTypes@@W4ProjectTypes@@@Z ; CvDllNetMessageHandler::ResponseCityPurchase
PUBLIC	?ResponseCityPushOrder@CvDllNetMessageHandler@@UAGXW4PlayerTypes@@HW4OrderTypes@@H_N22@Z ; CvDllNetMessageHandler::ResponseCityPushOrder
PUBLIC	?ResponseCitySwapOrder@CvDllNetMessageHandler@@UAGXW4PlayerTypes@@HH@Z ; CvDllNetMessageHandler::ResponseCitySwapOrder
PUBLIC	?ResponseChooseElection@CvDllNetMessageHandler@@UAGXW4PlayerTypes@@HH@Z ; CvDllNetMessageHandler::ResponseChooseElection
PUBLIC	?ResponseDestroyUnit@CvDllNetMessageHandler@@UAGXW4PlayerTypes@@H@Z ; CvDllNetMessageHandler::ResponseDestroyUnit
PUBLIC	?ResponseDiplomacyFromUI@CvDllNetMessageHandler@@UAGXW4PlayerTypes@@0W4FromUIDiploEventTypes@@HH@Z ; CvDllNetMessageHandler::ResponseDiplomacyFromUI
PUBLIC	?ResponseDiploVote@CvDllNetMessageHandler@@UAGXW4PlayerTypes@@0@Z ; CvDllNetMessageHandler::ResponseDiploVote
PUBLIC	?ResponseDoCommand@CvDllNetMessageHandler@@UAGXW4PlayerTypes@@HW4CommandTypes@@HH_N@Z ; CvDllNetMessageHandler::ResponseDoCommand
PUBLIC	?ResponseExtendedGame@CvDllNetMessageHandler@@UAGXW4PlayerTypes@@@Z ; CvDllNetMessageHandler::ResponseExtendedGame
PUBLIC	?ResponseGiftUnit@CvDllNetMessageHandler@@UAGXW4PlayerTypes@@0H@Z ; CvDllNetMessageHandler::ResponseGiftUnit
PUBLIC	?ResponseGreatPersonChoice@CvDllNetMessageHandler@@UAGXW4PlayerTypes@@W4UnitTypes@@@Z ; CvDllNetMessageHandler::ResponseGreatPersonChoice
PUBLIC	?ResponseLaunchSpaceship@CvDllNetMessageHandler@@UAGXW4PlayerTypes@@W4VictoryTypes@@@Z ; CvDllNetMessageHandler::ResponseLaunchSpaceship
PUBLIC	?ResponseLiberatePlayer@CvDllNetMessageHandler@@UAGXW4PlayerTypes@@0H@Z ; CvDllNetMessageHandler::ResponseLiberatePlayer
PUBLIC	?ResponseMinorCivGiftGold@CvDllNetMessageHandler@@UAGXW4PlayerTypes@@0H@Z ; CvDllNetMessageHandler::ResponseMinorCivGiftGold
PUBLIC	?ResponseMinorNoUnitSpawning@CvDllNetMessageHandler@@UAGXW4PlayerTypes@@0_N@Z ; CvDllNetMessageHandler::ResponseMinorNoUnitSpawning
PUBLIC	?ResponsePlayerDealFinalized@CvDllNetMessageHandler@@UAGXW4PlayerTypes@@00_N@Z ; CvDllNetMessageHandler::ResponsePlayerDealFinalized
PUBLIC	?ResponsePlayerOption@CvDllNetMessageHandler@@UAGXW4PlayerTypes@@W4PlayerOptionTypes@@_N@Z ; CvDllNetMessageHandler::ResponsePlayerOption
PUBLIC	?ResponsePushMission@CvDllNetMessageHandler@@UAGXW4PlayerTypes@@HW4MissionTypes@@HHH_N@Z ; CvDllNetMessageHandler::ResponsePushMission
PUBLIC	?ResponseRenameCity@CvDllNetMessageHandler@@UAGXW4PlayerTypes@@HPBD@Z ; CvDllNetMessageHandler::ResponseRenameCity
PUBLIC	?ResponseRenameUnit@CvDllNetMessageHandler@@UAGXW4PlayerTypes@@HPBD@Z ; CvDllNetMessageHandler::ResponseRenameUnit
PUBLIC	?ResponseResearch@CvDllNetMessageHandler@@UAGXW4PlayerTypes@@W4TechTypes@@H_N@Z ; CvDllNetMessageHandler::ResponseResearch
PUBLIC	?ResponseReturnCivilian@CvDllNetMessageHandler@@UAGXW4PlayerTypes@@0H_N@Z ; CvDllNetMessageHandler::ResponseReturnCivilian
PUBLIC	?ResponseSellBuilding@CvDllNetMessageHandler@@UAGXW4PlayerTypes@@HW4BuildingTypes@@@Z ; CvDllNetMessageHandler::ResponseSellBuilding
PUBLIC	?ResponseSetCityAIFocus@CvDllNetMessageHandler@@UAGXW4PlayerTypes@@HW4CityAIFocusTypes@@@Z ; CvDllNetMessageHandler::ResponseSetCityAIFocus
PUBLIC	?ResponseSetCityAvoidGrowth@CvDllNetMessageHandler@@UAGXW4PlayerTypes@@H_N@Z ; CvDllNetMessageHandler::ResponseSetCityAvoidGrowth
PUBLIC	?ResponseSwapUnits@CvDllNetMessageHandler@@UAGXW4PlayerTypes@@HW4MissionTypes@@HHH_N@Z ; CvDllNetMessageHandler::ResponseSwapUnits
PUBLIC	?ResponseUpdateCityCitizens@CvDllNetMessageHandler@@UAGXW4PlayerTypes@@H@Z ; CvDllNetMessageHandler::ResponseUpdateCityCitizens
PUBLIC	?ResponseUpdatePolicies@CvDllNetMessageHandler@@UAGXW4PlayerTypes@@_NH1@Z ; CvDllNetMessageHandler::ResponseUpdatePolicies
PUBLIC	?ResponseCityPurchase@CvDllNetMessageHandler@@UAGXW4PlayerTypes@@HW4UnitTypes@@W4BuildingTypes@@W4ProjectTypes@@H@Z ; CvDllNetMessageHandler::ResponseCityPurchase
PUBLIC	?ResponseFoundPantheon@CvDllNetMessageHandler@@UAGXW4PlayerTypes@@W4BeliefTypes@@@Z ; CvDllNetMessageHandler::ResponseFoundPantheon
PUBLIC	?ResponseFoundReligion@CvDllNetMessageHandler@@UAGXW4PlayerTypes@@W4ReligionTypes@@PBDW4BeliefTypes@@333HH@Z ; CvDllNetMessageHandler::ResponseFoundReligion
PUBLIC	?ResponseEnhanceReligion@CvDllNetMessageHandler@@UAGXW4PlayerTypes@@W4ReligionTypes@@PBDW4BeliefTypes@@3HH@Z ; CvDllNetMessageHandler::ResponseEnhanceReligion
PUBLIC	?ResponseMayaBonusChoice@CvDllNetMessageHandler@@UAGXW4PlayerTypes@@W4UnitTypes@@@Z ; CvDllNetMessageHandler::ResponseMayaBonusChoice
PUBLIC	?ResponseFaithGreatPersonChoice@CvDllNetMessageHandler@@UAGXW4PlayerTypes@@W4UnitTypes@@@Z ; CvDllNetMessageHandler::ResponseFaithGreatPersonChoice
PUBLIC	?ResponseMoveSpy@CvDllNetMessageHandler@@UAGXW4PlayerTypes@@HHH_N@Z ; CvDllNetMessageHandler::ResponseMoveSpy
PUBLIC	?ResponseStageCoup@CvDllNetMessageHandler@@UAGXW4PlayerTypes@@H@Z ; CvDllNetMessageHandler::ResponseStageCoup
PUBLIC	?ResponseFaithPurchase@CvDllNetMessageHandler@@UAGXW4PlayerTypes@@W4FaithPurchaseTypes@@H@Z ; CvDllNetMessageHandler::ResponseFaithPurchase
PUBLIC	?ResponseMinorCivBullyGold@CvDllNetMessageHandler@@UAGXW4PlayerTypes@@0H@Z ; CvDllNetMessageHandler::ResponseMinorCivBullyGold
PUBLIC	?ResponseMinorCivBullyUnit@CvDllNetMessageHandler@@UAGXW4PlayerTypes@@0W4UnitTypes@@@Z ; CvDllNetMessageHandler::ResponseMinorCivBullyUnit
PUBLIC	?ResponseMinorCivGiftTileImprovement@CvDllNetMessageHandler@@UAGXW4PlayerTypes@@0HH@Z ; CvDllNetMessageHandler::ResponseMinorCivGiftTileImprovement
PUBLIC	?ResponseMinorCivBuyout@CvDllNetMessageHandler@@UAGXW4PlayerTypes@@0@Z ; CvDllNetMessageHandler::ResponseMinorCivBuyout
PUBLIC	?ResponsePledgeMinorProtection@CvDllNetMessageHandler@@UAGXW4PlayerTypes@@0_N1@Z ; CvDllNetMessageHandler::ResponsePledgeMinorProtection
PUBLIC	?ResponseResearch@CvDllNetMessageHandler@@UAGXW4PlayerTypes@@W4TechTypes@@H0_N@Z ; CvDllNetMessageHandler::ResponseResearch
PUBLIC	?ResponseIgnoreWarning@CvDllNetMessageHandler@@UAGXW4PlayerTypes@@W4TeamTypes@@@Z ; CvDllNetMessageHandler::ResponseIgnoreWarning
PUBLIC	?ResponseArchaeologyChoice@CvDllNetMessageHandler@@UAGXW4PlayerTypes@@W4ArchaeologyChoiceType@@@Z ; CvDllNetMessageHandler::ResponseArchaeologyChoice
PUBLIC	?ResponseIdeologyChoice@CvDllNetMessageHandler@@UAGXW4PlayerTypes@@W4PolicyBranchTypes@@@Z ; CvDllNetMessageHandler::ResponseIdeologyChoice
PUBLIC	?ResponseLeagueVoteEnact@CvDllNetMessageHandler@@UAGXW4LeagueTypes@@HW4PlayerTypes@@HH@Z ; CvDllNetMessageHandler::ResponseLeagueVoteEnact
PUBLIC	?ResponseLeagueVoteRepeal@CvDllNetMessageHandler@@UAGXW4LeagueTypes@@HW4PlayerTypes@@HH@Z ; CvDllNetMessageHandler::ResponseLeagueVoteRepeal
PUBLIC	?ResponseLeagueVoteAbstain@CvDllNetMessageHandler@@UAGXW4LeagueTypes@@W4PlayerTypes@@H@Z ; CvDllNetMessageHandler::ResponseLeagueVoteAbstain
PUBLIC	?ResponseLeagueProposeEnact@CvDllNetMessageHandler@@UAGXW4LeagueTypes@@W4ResolutionTypes@@W4PlayerTypes@@H@Z ; CvDllNetMessageHandler::ResponseLeagueProposeEnact
PUBLIC	?ResponseLeagueProposeRepeal@CvDllNetMessageHandler@@UAGXW4LeagueTypes@@HW4PlayerTypes@@@Z ; CvDllNetMessageHandler::ResponseLeagueProposeRepeal
PUBLIC	?ResponseLeagueEditName@CvDllNetMessageHandler@@UAGXW4LeagueTypes@@W4PlayerTypes@@PBD@Z ; CvDllNetMessageHandler::ResponseLeagueEditName
PUBLIC	?ResponseGoodyChoice@CvDllNetMessageHandler@@UAGXW4PlayerTypes@@HHW4GoodyTypes@@H@Z ; CvDllNetMessageHandler::ResponseGoodyChoice
PUBLIC	?ResponseSetSwappableGreatWork@CvDllNetMessageHandler@@UAGXW4PlayerTypes@@HH@Z ; CvDllNetMessageHandler::ResponseSetSwappableGreatWork
PUBLIC	?ResponseSwapGreatWorks@CvDllNetMessageHandler@@UAGXW4PlayerTypes@@H0H@Z ; CvDllNetMessageHandler::ResponseSwapGreatWorks
PUBLIC	?ResponseMoveGreatWorks@CvDllNetMessageHandler@@UAGXW4PlayerTypes@@HHHHHH@Z ; CvDllNetMessageHandler::ResponseMoveGreatWorks
PUBLIC	?ResponseChangeIdeology@CvDllNetMessageHandler@@UAGXW4PlayerTypes@@@Z ; CvDllNetMessageHandler::ResponseChangeIdeology
;	COMDAT ??_R2ICvNetMessageHandler1@@8
; File c:\users\enormousapplepie\documents\github\lekmod\lekmod_dll\cvgamecoredll_expansion2\cvdllnetmessagehandler.cpp
rdata$r	SEGMENT
??_R2ICvNetMessageHandler1@@8 DD FLAT:??_R1A@?0A@EA@ICvNetMessageHandler1@@8 ; ICvNetMessageHandler1::`RTTI Base Class Array'
	DD	FLAT:??_R1A@?0A@EA@ICvUnknown@@8
rdata$r	ENDS
;	COMDAT ??_R3ICvNetMessageHandler1@@8
rdata$r	SEGMENT
??_R3ICvNetMessageHandler1@@8 DD 00H			; ICvNetMessageHandler1::`RTTI Class Hierarchy Descriptor'
	DD	00H
	DD	02H
	DD	FLAT:??_R2ICvNetMessageHandler1@@8
rdata$r	ENDS
;	COMDAT ??_R0?AVICvNetMessageHandler1@@@8
_DATA	SEGMENT
??_R0?AVICvNetMessageHandler1@@@8 DD FLAT:??_7type_info@@6B@ ; ICvNetMessageHandler1 `RTTI Type Descriptor'
	DD	00H
	DB	'.?AVICvNetMessageHandler1@@', 00H
_DATA	ENDS
;	COMDAT ??_R1A@?0A@EA@ICvNetMessageHandler1@@8
rdata$r	SEGMENT
??_R1A@?0A@EA@ICvNetMessageHandler1@@8 DD FLAT:??_R0?AVICvNetMessageHandler1@@@8 ; ICvNetMessageHandler1::`RTTI Base Class Descriptor at (0,-1,0,64)'
	DD	01H
	DD	00H
	DD	0ffffffffH
	DD	00H
	DD	040H
	DD	FLAT:??_R3ICvNetMessageHandler1@@8
rdata$r	ENDS
;	COMDAT ??_R2ICvNetMessageHandler2@@8
rdata$r	SEGMENT
??_R2ICvNetMessageHandler2@@8 DD FLAT:??_R1A@?0A@EA@ICvNetMessageHandler2@@8 ; ICvNetMessageHandler2::`RTTI Base Class Array'
	DD	FLAT:??_R1A@?0A@EA@ICvNetMessageHandler1@@8
	DD	FLAT:??_R1A@?0A@EA@ICvUnknown@@8
rdata$r	ENDS
;	COMDAT ??_R3ICvNetMessageHandler2@@8
rdata$r	SEGMENT
??_R3ICvNetMessageHandler2@@8 DD 00H			; ICvNetMessageHandler2::`RTTI Class Hierarchy Descriptor'
	DD	00H
	DD	03H
	DD	FLAT:??_R2ICvNetMessageHandler2@@8
rdata$r	ENDS
;	COMDAT ??_R0?AVICvNetMessageHandler2@@@8
_DATA	SEGMENT
??_R0?AVICvNetMessageHandler2@@@8 DD FLAT:??_7type_info@@6B@ ; ICvNetMessageHandler2 `RTTI Type Descriptor'
	DD	00H
	DB	'.?AVICvNetMessageHandler2@@', 00H
_DATA	ENDS
;	COMDAT ??_R1A@?0A@EA@ICvNetMessageHandler2@@8
rdata$r	SEGMENT
??_R1A@?0A@EA@ICvNetMessageHandler2@@8 DD FLAT:??_R0?AVICvNetMessageHandler2@@@8 ; ICvNetMessageHandler2::`RTTI Base Class Descriptor at (0,-1,0,64)'
	DD	02H
	DD	00H
	DD	0ffffffffH
	DD	00H
	DD	040H
	DD	FLAT:??_R3ICvNetMessageHandler2@@8
rdata$r	ENDS
;	COMDAT ??_R2ICvNetMessageHandler3@@8
rdata$r	SEGMENT
??_R2ICvNetMessageHandler3@@8 DD FLAT:??_R1A@?0A@EA@ICvNetMessageHandler3@@8 ; ICvNetMessageHandler3::`RTTI Base Class Array'
	DD	FLAT:??_R1A@?0A@EA@ICvNetMessageHandler2@@8
	DD	FLAT:??_R1A@?0A@EA@ICvNetMessageHandler1@@8
	DD	FLAT:??_R1A@?0A@EA@ICvUnknown@@8
rdata$r	ENDS
;	COMDAT ??_R3ICvNetMessageHandler3@@8
rdata$r	SEGMENT
??_R3ICvNetMessageHandler3@@8 DD 00H			; ICvNetMessageHandler3::`RTTI Class Hierarchy Descriptor'
	DD	00H
	DD	04H
	DD	FLAT:??_R2ICvNetMessageHandler3@@8
rdata$r	ENDS
;	COMDAT ??_R0?AVICvNetMessageHandler3@@@8
_DATA	SEGMENT
??_R0?AVICvNetMessageHandler3@@@8 DD FLAT:??_7type_info@@6B@ ; ICvNetMessageHandler3 `RTTI Type Descriptor'
	DD	00H
	DB	'.?AVICvNetMessageHandler3@@', 00H
_DATA	ENDS
;	COMDAT ??_R1A@?0A@EA@ICvNetMessageHandler3@@8
rdata$r	SEGMENT
??_R1A@?0A@EA@ICvNetMessageHandler3@@8 DD FLAT:??_R0?AVICvNetMessageHandler3@@@8 ; ICvNetMessageHandler3::`RTTI Base Class Descriptor at (0,-1,0,64)'
	DD	03H
	DD	00H
	DD	0ffffffffH
	DD	00H
	DD	040H
	DD	FLAT:??_R3ICvNetMessageHandler3@@8
rdata$r	ENDS
;	COMDAT ??_R1A@?0A@EA@CvDllNetMessageHandler@@8
rdata$r	SEGMENT
??_R1A@?0A@EA@CvDllNetMessageHandler@@8 DD FLAT:??_R0?AVCvDllNetMessageHandler@@@8 ; CvDllNetMessageHandler::`RTTI Base Class Descriptor at (0,-1,0,64)'
	DD	04H
	DD	00H
	DD	0ffffffffH
	DD	00H
	DD	040H
	DD	FLAT:??_R3CvDllNetMessageHandler@@8
rdata$r	ENDS
;	COMDAT ??_R2CvDllNetMessageHandler@@8
rdata$r	SEGMENT
??_R2CvDllNetMessageHandler@@8 DD FLAT:??_R1A@?0A@EA@CvDllNetMessageHandler@@8 ; CvDllNetMessageHandler::`RTTI Base Class Array'
	DD	FLAT:??_R1A@?0A@EA@ICvNetMessageHandler3@@8
	DD	FLAT:??_R1A@?0A@EA@ICvNetMessageHandler2@@8
	DD	FLAT:??_R1A@?0A@EA@ICvNetMessageHandler1@@8
	DD	FLAT:??_R1A@?0A@EA@ICvUnknown@@8
rdata$r	ENDS
;	COMDAT ??_R3CvDllNetMessageHandler@@8
rdata$r	SEGMENT
??_R3CvDllNetMessageHandler@@8 DD 00H			; CvDllNetMessageHandler::`RTTI Class Hierarchy Descriptor'
	DD	00H
	DD	05H
	DD	FLAT:??_R2CvDllNetMessageHandler@@8
rdata$r	ENDS
;	COMDAT ??_R0?AVCvDllNetMessageHandler@@@8
_DATA	SEGMENT
??_R0?AVCvDllNetMessageHandler@@@8 DD FLAT:??_7type_info@@6B@ ; CvDllNetMessageHandler `RTTI Type Descriptor'
	DD	00H
	DB	'.?AVCvDllNetMessageHandler@@', 00H
_DATA	ENDS
;	COMDAT ??_R4CvDllNetMessageHandler@@6B@
rdata$r	SEGMENT
??_R4CvDllNetMessageHandler@@6B@ DD 00H			; CvDllNetMessageHandler::`RTTI Complete Object Locator'
	DD	00H
	DD	00H
	DD	FLAT:??_R0?AVCvDllNetMessageHandler@@@8
	DD	FLAT:??_R3CvDllNetMessageHandler@@8
rdata$r	ENDS
;	COMDAT ??_7CvDllNetMessageHandler@@6B@
CONST	SEGMENT
??_7CvDllNetMessageHandler@@6B@ DD FLAT:??_R4CvDllNetMessageHandler@@6B@ ; CvDllNetMessageHandler::`vftable'
	DD	FLAT:?QueryInterface@CvDllNetMessageHandler@@UAGPAXU_GUID@@@Z
	DD	FLAT:?Destroy@CvDllNetMessageHandler@@EAGXXZ
	DD	FLAT:?ResponseAdvancedStartAction@CvDllNetMessageHandler@@UAGXW4PlayerTypes@@W4AdvancedStartActionTypes@@HHH_N@Z
	DD	FLAT:?ResponseAutoMission@CvDllNetMessageHandler@@UAGXW4PlayerTypes@@H@Z
	DD	FLAT:?ResponseBarbarianRansom@CvDllNetMessageHandler@@UAGXW4PlayerTypes@@HH@Z
	DD	FLAT:?ResponseChangeWar@CvDllNetMessageHandler@@UAGXW4PlayerTypes@@W4TeamTypes@@_N@Z
	DD	FLAT:?ResponseCityBuyPlot@CvDllNetMessageHandler@@UAGXW4PlayerTypes@@HHH@Z
	DD	FLAT:?ResponseCityDoTask@CvDllNetMessageHandler@@UAGXW4PlayerTypes@@HW4TaskTypes@@HH_N222@Z
	DD	FLAT:?ResponseCityPopOrder@CvDllNetMessageHandler@@UAGXW4PlayerTypes@@HH@Z
	DD	FLAT:?ResponseCityPurchase@CvDllNetMessageHandler@@UAGXW4PlayerTypes@@HW4UnitTypes@@W4BuildingTypes@@W4ProjectTypes@@@Z
	DD	FLAT:?ResponseCityPushOrder@CvDllNetMessageHandler@@UAGXW4PlayerTypes@@HW4OrderTypes@@H_N22@Z
	DD	FLAT:?ResponseCitySwapOrder@CvDllNetMessageHandler@@UAGXW4PlayerTypes@@HH@Z
	DD	FLAT:?ResponseChooseElection@CvDllNetMessageHandler@@UAGXW4PlayerTypes@@HH@Z
	DD	FLAT:?ResponseDestroyUnit@CvDllNetMessageHandler@@UAGXW4PlayerTypes@@H@Z
	DD	FLAT:?ResponseDiplomacyFromUI@CvDllNetMessageHandler@@UAGXW4PlayerTypes@@0W4FromUIDiploEventTypes@@HH@Z
	DD	FLAT:?ResponseDiploVote@CvDllNetMessageHandler@@UAGXW4PlayerTypes@@0@Z
	DD	FLAT:?ResponseDoCommand@CvDllNetMessageHandler@@UAGXW4PlayerTypes@@HW4CommandTypes@@HH_N@Z
	DD	FLAT:?ResponseExtendedGame@CvDllNetMessageHandler@@UAGXW4PlayerTypes@@@Z
	DD	FLAT:?ResponseGiftUnit@CvDllNetMessageHandler@@UAGXW4PlayerTypes@@0H@Z
	DD	FLAT:?ResponseGreatPersonChoice@CvDllNetMessageHandler@@UAGXW4PlayerTypes@@W4UnitTypes@@@Z
	DD	FLAT:?ResponseLaunchSpaceship@CvDllNetMessageHandler@@UAGXW4PlayerTypes@@W4VictoryTypes@@@Z
	DD	FLAT:?ResponseLiberatePlayer@CvDllNetMessageHandler@@UAGXW4PlayerTypes@@0H@Z
	DD	FLAT:?ResponseMinorCivGiftGold@CvDllNetMessageHandler@@UAGXW4PlayerTypes@@0H@Z
	DD	FLAT:?ResponseMinorNoUnitSpawning@CvDllNetMessageHandler@@UAGXW4PlayerTypes@@0_N@Z
	DD	FLAT:?ResponsePlayerDealFinalized@CvDllNetMessageHandler@@UAGXW4PlayerTypes@@00_N@Z
	DD	FLAT:?ResponsePlayerOption@CvDllNetMessageHandler@@UAGXW4PlayerTypes@@W4PlayerOptionTypes@@_N@Z
	DD	FLAT:?ResponsePushMission@CvDllNetMessageHandler@@UAGXW4PlayerTypes@@HW4MissionTypes@@HHH_N@Z
	DD	FLAT:?ResponseRenameCity@CvDllNetMessageHandler@@UAGXW4PlayerTypes@@HPBD@Z
	DD	FLAT:?ResponseRenameUnit@CvDllNetMessageHandler@@UAGXW4PlayerTypes@@HPBD@Z
	DD	FLAT:?ResponseResearch@CvDllNetMessageHandler@@UAGXW4PlayerTypes@@W4TechTypes@@H_N@Z
	DD	FLAT:?ResponseReturnCivilian@CvDllNetMessageHandler@@UAGXW4PlayerTypes@@0H_N@Z
	DD	FLAT:?ResponseSellBuilding@CvDllNetMessageHandler@@UAGXW4PlayerTypes@@HW4BuildingTypes@@@Z
	DD	FLAT:?ResponseSetCityAIFocus@CvDllNetMessageHandler@@UAGXW4PlayerTypes@@HW4CityAIFocusTypes@@@Z
	DD	FLAT:?ResponseSetCityAvoidGrowth@CvDllNetMessageHandler@@UAGXW4PlayerTypes@@H_N@Z
	DD	FLAT:?ResponseSwapUnits@CvDllNetMessageHandler@@UAGXW4PlayerTypes@@HW4MissionTypes@@HHH_N@Z
	DD	FLAT:?ResponseUpdateCityCitizens@CvDllNetMessageHandler@@UAGXW4PlayerTypes@@H@Z
	DD	FLAT:?ResponseUpdatePolicies@CvDllNetMessageHandler@@UAGXW4PlayerTypes@@_NH1@Z
	DD	FLAT:?ResponseCityPurchase@CvDllNetMessageHandler@@UAGXW4PlayerTypes@@HW4UnitTypes@@W4BuildingTypes@@W4ProjectTypes@@H@Z
	DD	FLAT:?ResponseFoundPantheon@CvDllNetMessageHandler@@UAGXW4PlayerTypes@@W4BeliefTypes@@@Z
	DD	FLAT:?ResponseFoundReligion@CvDllNetMessageHandler@@UAGXW4PlayerTypes@@W4ReligionTypes@@PBDW4BeliefTypes@@333HH@Z
	DD	FLAT:?ResponseEnhanceReligion@CvDllNetMessageHandler@@UAGXW4PlayerTypes@@W4ReligionTypes@@PBDW4BeliefTypes@@3HH@Z
	DD	FLAT:?ResponseMayaBonusChoice@CvDllNetMessageHandler@@UAGXW4PlayerTypes@@W4UnitTypes@@@Z
	DD	FLAT:?ResponseFaithGreatPersonChoice@CvDllNetMessageHandler@@UAGXW4PlayerTypes@@W4UnitTypes@@@Z
	DD	FLAT:?ResponseMoveSpy@CvDllNetMessageHandler@@UAGXW4PlayerTypes@@HHH_N@Z
	DD	FLAT:?ResponseStageCoup@CvDllNetMessageHandler@@UAGXW4PlayerTypes@@H@Z
	DD	FLAT:?ResponseFaithPurchase@CvDllNetMessageHandler@@UAGXW4PlayerTypes@@W4FaithPurchaseTypes@@H@Z
	DD	FLAT:?ResponseMinorCivBullyGold@CvDllNetMessageHandler@@UAGXW4PlayerTypes@@0H@Z
	DD	FLAT:?ResponseMinorCivBullyUnit@CvDllNetMessageHandler@@UAGXW4PlayerTypes@@0W4UnitTypes@@@Z
	DD	FLAT:?ResponseMinorCivGiftTileImprovement@CvDllNetMessageHandler@@UAGXW4PlayerTypes@@0HH@Z
	DD	FLAT:?ResponseMinorCivBuyout@CvDllNetMessageHandler@@UAGXW4PlayerTypes@@0@Z
	DD	FLAT:?ResponsePledgeMinorProtection@CvDllNetMessageHandler@@UAGXW4PlayerTypes@@0_N1@Z
	DD	FLAT:?ResponseResearch@CvDllNetMessageHandler@@UAGXW4PlayerTypes@@W4TechTypes@@H0_N@Z
	DD	FLAT:?ResponseIgnoreWarning@CvDllNetMessageHandler@@UAGXW4PlayerTypes@@W4TeamTypes@@@Z
	DD	FLAT:?ResponseArchaeologyChoice@CvDllNetMessageHandler@@UAGXW4PlayerTypes@@W4ArchaeologyChoiceType@@@Z
	DD	FLAT:?ResponseIdeologyChoice@CvDllNetMessageHandler@@UAGXW4PlayerTypes@@W4PolicyBranchTypes@@@Z
	DD	FLAT:?ResponseLeagueVoteEnact@CvDllNetMessageHandler@@UAGXW4LeagueTypes@@HW4PlayerTypes@@HH@Z
	DD	FLAT:?ResponseLeagueVoteRepeal@CvDllNetMessageHandler@@UAGXW4LeagueTypes@@HW4PlayerTypes@@HH@Z
	DD	FLAT:?ResponseLeagueVoteAbstain@CvDllNetMessageHandler@@UAGXW4LeagueTypes@@W4PlayerTypes@@H@Z
	DD	FLAT:?ResponseLeagueProposeEnact@CvDllNetMessageHandler@@UAGXW4LeagueTypes@@W4ResolutionTypes@@W4PlayerTypes@@H@Z
	DD	FLAT:?ResponseLeagueProposeRepeal@CvDllNetMessageHandler@@UAGXW4LeagueTypes@@HW4PlayerTypes@@@Z
	DD	FLAT:?ResponseLeagueEditName@CvDllNetMessageHandler@@UAGXW4LeagueTypes@@W4PlayerTypes@@PBD@Z
	DD	FLAT:?ResponseGoodyChoice@CvDllNetMessageHandler@@UAGXW4PlayerTypes@@HHW4GoodyTypes@@H@Z
	DD	FLAT:?ResponseSetSwappableGreatWork@CvDllNetMessageHandler@@UAGXW4PlayerTypes@@HH@Z
	DD	FLAT:?ResponseSwapGreatWorks@CvDllNetMessageHandler@@UAGXW4PlayerTypes@@H0H@Z
	DD	FLAT:?ResponseMoveGreatWorks@CvDllNetMessageHandler@@UAGXW4PlayerTypes@@HHHHHH@Z
	DD	FLAT:?ResponseChangeIdeology@CvDllNetMessageHandler@@UAGXW4PlayerTypes@@@Z
; Function compile flags: /Ogtpy
CONST	ENDS
;	COMDAT ??1CvDllNetMessageHandler@@QAE@XZ
_TEXT	SEGMENT
??1CvDllNetMessageHandler@@QAE@XZ PROC			; CvDllNetMessageHandler::~CvDllNetMessageHandler, COMDAT
; _this$ = ecx

; 21   : {

	mov	DWORD PTR [ecx], OFFSET ??_7CvDllNetMessageHandler@@6B@

; 22   : }

	ret	0
??1CvDllNetMessageHandler@@QAE@XZ ENDP			; CvDllNetMessageHandler::~CvDllNetMessageHandler
; Function compile flags: /Ogtpy
_TEXT	ENDS
;	COMDAT ?Destroy@CvDllNetMessageHandler@@EAGXXZ
_TEXT	SEGMENT
_this$ = 8						; size = 4
?Destroy@CvDllNetMessageHandler@@EAGXXZ PROC		; CvDllNetMessageHandler::Destroy, COMDAT

; 39   : 	// Do nothing.
; 40   : 	// This is a static class whose instance is managed externally.
; 41   : }

	ret	4
?Destroy@CvDllNetMessageHandler@@EAGXXZ ENDP		; CvDllNetMessageHandler::Destroy
_TEXT	ENDS
PUBLIC	??3CvDllNetMessageHandler@@SAXPAX@Z		; CvDllNetMessageHandler::operator delete
EXTRN	?Free@CvDllGameContext@@SAXPAX@Z:PROC		; CvDllGameContext::Free
; Function compile flags: /Ogtpy
;	COMDAT ??3CvDllNetMessageHandler@@SAXPAX@Z
_TEXT	SEGMENT
_p$ = 8							; size = 4
??3CvDllNetMessageHandler@@SAXPAX@Z PROC		; CvDllNetMessageHandler::operator delete, COMDAT

; 45   : 	CvDllGameContext::Free(p);

	jmp	?Free@CvDllGameContext@@SAXPAX@Z	; CvDllGameContext::Free
??3CvDllNetMessageHandler@@SAXPAX@Z ENDP		; CvDllNetMessageHandler::operator delete
_TEXT	ENDS
PUBLIC	??2CvDllNetMessageHandler@@SAPAXI@Z		; CvDllNetMessageHandler::operator new
EXTRN	?Allocate@CvDllGameContext@@SAPAXI@Z:PROC	; CvDllGameContext::Allocate
; Function compile flags: /Ogtpy
;	COMDAT ??2CvDllNetMessageHandler@@SAPAXI@Z
_TEXT	SEGMENT
_bytes$ = 8						; size = 4
??2CvDllNetMessageHandler@@SAPAXI@Z PROC		; CvDllNetMessageHandler::operator new, COMDAT

; 50   : 	return CvDllGameContext::Allocate(bytes);

	jmp	?Allocate@CvDllGameContext@@SAPAXI@Z	; CvDllGameContext::Allocate
??2CvDllNetMessageHandler@@SAPAXI@Z ENDP		; CvDllNetMessageHandler::operator new
; Function compile flags: /Ogtpy
_TEXT	ENDS
;	COMDAT ?ResponseCityPurchase@CvDllNetMessageHandler@@UAGXW4PlayerTypes@@HW4UnitTypes@@W4BuildingTypes@@W4ProjectTypes@@@Z
_TEXT	SEGMENT
_this$ = 8						; size = 4
_ePlayer$ = 12						; size = 4
_iCityID$ = 16						; size = 4
_eUnitType$ = 20					; size = 4
_eBuildingType$ = 24					; size = 4
_eProjectType$ = 28					; size = 4
?ResponseCityPurchase@CvDllNetMessageHandler@@UAGXW4PlayerTypes@@HW4UnitTypes@@W4BuildingTypes@@W4ProjectTypes@@@Z PROC ; CvDllNetMessageHandler::ResponseCityPurchase, COMDAT

; 187  : 	ResponseCityPurchase(ePlayer, iCityID, eUnitType, eBuildingType, eProjectType, NO_YIELD);

	mov	edx, DWORD PTR _eProjectType$[esp-4]
	mov	eax, DWORD PTR _this$[esp-4]
	mov	ecx, DWORD PTR [eax]
	push	-1
	push	edx
	mov	edx, DWORD PTR _eBuildingType$[esp+4]
	push	edx
	mov	edx, DWORD PTR _eUnitType$[esp+8]
	push	edx
	mov	edx, DWORD PTR _iCityID$[esp+12]
	push	edx
	mov	edx, DWORD PTR _ePlayer$[esp+16]
	push	edx
	push	eax
	mov	eax, DWORD PTR [ecx+148]
	call	eax

; 188  : }

	ret	24					; 00000018H
?ResponseCityPurchase@CvDllNetMessageHandler@@UAGXW4PlayerTypes@@HW4UnitTypes@@W4BuildingTypes@@W4ProjectTypes@@@Z ENDP ; CvDllNetMessageHandler::ResponseCityPurchase
; Function compile flags: /Ogtpy
_TEXT	ENDS
;	COMDAT ?ResponseChooseElection@CvDllNetMessageHandler@@UAGXW4PlayerTypes@@HH@Z
_TEXT	SEGMENT
_this$ = 8						; size = 4
_ePlayer$ = 12						; size = 4
_iSelection$ = 16					; size = 4
_iVoteId$ = 20						; size = 4
?ResponseChooseElection@CvDllNetMessageHandler@@UAGXW4PlayerTypes@@HH@Z PROC ; CvDllNetMessageHandler::ResponseChooseElection, COMDAT

; 226  : 	// Unused
; 227  : }

	ret	16					; 00000010H
?ResponseChooseElection@CvDllNetMessageHandler@@UAGXW4PlayerTypes@@HH@Z ENDP ; CvDllNetMessageHandler::ResponseChooseElection
; Function compile flags: /Ogtpy
_TEXT	ENDS
;	COMDAT ?ResponseResearch@CvDllNetMessageHandler@@UAGXW4PlayerTypes@@W4TechTypes@@H_N@Z
_TEXT	SEGMENT
_this$ = 8						; size = 4
_ePlayer$ = 12						; size = 4
_eTech$ = 16						; size = 4
_iDiscover$ = 20					; size = 4
_bShift$ = 24						; size = 1
?ResponseResearch@CvDllNetMessageHandler@@UAGXW4PlayerTypes@@W4TechTypes@@H_N@Z PROC ; CvDllNetMessageHandler::ResponseResearch, COMDAT

; 965  : 	ResponseResearch(ePlayer, eTech, iDiscover, NO_PLAYER, bShift);

	mov	edx, DWORD PTR _bShift$[esp-4]
	mov	eax, DWORD PTR _this$[esp-4]
	mov	ecx, DWORD PTR [eax]
	push	edx
	mov	edx, DWORD PTR _iDiscover$[esp]
	push	-1
	push	edx
	mov	edx, DWORD PTR _eTech$[esp+8]
	push	edx
	mov	edx, DWORD PTR _ePlayer$[esp+12]
	push	edx
	push	eax
	mov	eax, DWORD PTR [ecx+204]
	call	eax

; 966  : }

	ret	20					; 00000014H
?ResponseResearch@CvDllNetMessageHandler@@UAGXW4PlayerTypes@@W4TechTypes@@H_N@Z ENDP ; CvDllNetMessageHandler::ResponseResearch
_TEXT	ENDS
PUBLIC	??A?$BaseVector@H$0A@@@QAEAAHI@Z		; BaseVector<int,0>::operator[]
; Function compile flags: /Ogtpy
; File c:\users\enormousapplepie\documents\github\lekmod\lekmod_dll\fireplace\include\fireworks\ffastvector.h
;	COMDAT ??A?$BaseVector@H$0A@@@QAEAAHI@Z
_TEXT	SEGMENT
_ui$ = 8						; size = 4
??A?$BaseVector@H$0A@@@QAEAAHI@Z PROC			; BaseVector<int,0>::operator[], COMDAT
; _this$ = ecx

; 129  : 		FAssert(ui < m_uiCurrSize);
; 130  : 		return m_pData[ui];

	mov	eax, DWORD PTR [ecx]
	mov	ecx, DWORD PTR _ui$[esp-4]
	lea	eax, DWORD PTR [eax+ecx*4]

; 131  : 	};

	ret	4
??A?$BaseVector@H$0A@@@QAEAAHI@Z ENDP			; BaseVector<int,0>::operator[]
_TEXT	ENDS
PUBLIC	??$max@H@std@@YAABHABH0@Z			; std::max<int>
; Function compile flags: /Ogtpy
; File c:\program files (x86)\microsoft visual studio 9.0\vc\include\xutility
;	COMDAT ??$max@H@std@@YAABHABH0@Z
_TEXT	SEGMENT
__Left$ = 8						; size = 4
__Right$ = 12						; size = 4
??$max@H@std@@YAABHABH0@Z PROC				; std::max<int>, COMDAT

; 3384 : 	return (_DEBUG_LT(_Left, _Right) ? _Right : _Left);

	mov	eax, DWORD PTR __Left$[esp-4]
	mov	edx, DWORD PTR [eax]
	mov	ecx, DWORD PTR __Right$[esp-4]
	cmp	edx, DWORD PTR [ecx]
	jge	SHORT $LN4@max
	mov	eax, ecx
$LN4@max:

; 3385 : 	}

	ret	0
??$max@H@std@@YAABHABH0@Z ENDP				; std::max<int>
_TEXT	ENDS
PUBLIC	??$?6PBD@@YAAAVString@Localization@@AAV01@ABQBD@Z ; operator<<<char const *>
EXTRN	__imp_?PushArgument@String@Localization@@QAE_NPBD@Z:PROC
; Function compile flags: /Ogtpy
; File c:\users\enormousapplepie\documents\github\lekmod\lekmod_dll\cvlocalization\include\cvlocalization.h
;	COMDAT ??$?6PBD@@YAAAVString@Localization@@AAV01@ABQBD@Z
_TEXT	SEGMENT
_s$ = 8							; size = 4
_val$ = 12						; size = 4
??$?6PBD@@YAAAVString@Localization@@AAV01@ABQBD@Z PROC	; operator<<<char const *>, COMDAT

; 491  : 	s.PushArgument(val);

	mov	eax, DWORD PTR _val$[esp-4]
	mov	ecx, DWORD PTR [eax]
	push	esi
	mov	esi, DWORD PTR _s$[esp]
	push	ecx
	mov	ecx, esi
	call	DWORD PTR __imp_?PushArgument@String@Localization@@QAE_NPBD@Z

; 492  : 	return s;

	mov	eax, esi
	pop	esi

; 493  : }

	ret	0
??$?6PBD@@YAAAVString@Localization@@AAV01@ABQBD@Z ENDP	; operator<<<char const *>
_TEXT	ENDS
PUBLIC	??0CvString@@QAE@XZ				; CvString::CvString
EXTRN	__imp_??0?$basic_string@DU?$char_traits@D@std@@V?$allocator@D@2@@std@@QAE@XZ:PROC
; Function compile flags: /Ogtpy
; File c:\users\enormousapplepie\documents\github\lekmod\lekmod_dll\cvgamecoredllutil\include\cvstring.h
;	COMDAT ??0CvString@@QAE@XZ
_TEXT	SEGMENT
??0CvString@@QAE@XZ PROC				; CvString::CvString, COMDAT
; _this$ = ecx

; 23   : 	CvString() {}

	push	esi
	mov	esi, ecx
	call	DWORD PTR __imp_??0?$basic_string@DU?$char_traits@D@std@@V?$allocator@D@2@@std@@QAE@XZ
	mov	eax, esi
	pop	esi
	ret	0
??0CvString@@QAE@XZ ENDP				; CvString::CvString
_TEXT	ENDS
PUBLIC	??_C@_00CNPNBAHC@?$AA@				; `string'
PUBLIC	??0CvString@@QAE@PBD@Z				; CvString::CvString
EXTRN	__imp_??0?$basic_string@DU?$char_traits@D@std@@V?$allocator@D@2@@std@@QAE@PBD@Z:PROC
;	COMDAT ??_C@_00CNPNBAHC@?$AA@
CONST	SEGMENT
??_C@_00CNPNBAHC@?$AA@ DB 00H				; `string'
; Function compile flags: /Ogtpy
CONST	ENDS
;	COMDAT ??0CvString@@QAE@PBD@Z
_TEXT	SEGMENT
_s$ = 8							; size = 4
??0CvString@@QAE@PBD@Z PROC				; CvString::CvString, COMDAT
; _this$ = ecx

; 25   : 	CvString(const char* s) : std::string(s ? s : "") {CvAssertMsg(s != NULL, "Passing NULL to std::string; possible heap corruption!");}

	mov	eax, DWORD PTR _s$[esp-4]
	push	esi
	mov	esi, ecx
	test	eax, eax
	jne	SHORT $LN4@CvString
	mov	eax, OFFSET ??_C@_00CNPNBAHC@?$AA@
$LN4@CvString:
	push	eax
	call	DWORD PTR __imp_??0?$basic_string@DU?$char_traits@D@std@@V?$allocator@D@2@@std@@QAE@PBD@Z
	mov	eax, esi
	pop	esi
	ret	4
??0CvString@@QAE@PBD@Z ENDP				; CvString::CvString
_TEXT	ENDS
PUBLIC	??1CvString@@QAE@XZ				; CvString::~CvString
EXTRN	__imp_??1?$basic_string@DU?$char_traits@D@std@@V?$allocator@D@2@@std@@QAE@XZ:PROC
; Function compile flags: /Ogtpy
;	COMDAT ??1CvString@@QAE@XZ
_TEXT	SEGMENT
??1CvString@@QAE@XZ PROC				; CvString::~CvString, COMDAT
; _this$ = ecx

; 28   : 	~CvString() {}

	jmp	DWORD PTR __imp_??1?$basic_string@DU?$char_traits@D@std@@V?$allocator@D@2@@std@@QAE@XZ
??1CvString@@QAE@XZ ENDP				; CvString::~CvString
_TEXT	ENDS
PUBLIC	??BCvString@@QBEPBDXZ				; CvString::operator char const *
EXTRN	__imp_?c_str@?$basic_string@DU?$char_traits@D@std@@V?$allocator@D@2@@std@@QBEPBDXZ:PROC
; Function compile flags: /Ogtpy
;	COMDAT ??BCvString@@QBEPBDXZ
_TEXT	SEGMENT
??BCvString@@QBEPBDXZ PROC				; CvString::operator char const *, COMDAT
; _this$ = ecx

; 31   : 	operator const char*() const 	{ return c_str(); }												

	jmp	DWORD PTR __imp_?c_str@?$basic_string@DU?$char_traits@D@std@@V?$allocator@D@2@@std@@QBEPBDXZ
??BCvString@@QBEPBDXZ ENDP				; CvString::operator char const *
_TEXT	ENDS
PUBLIC	?GetInterfaceId@ICvUnknown@@SG?AU_GUID@@XZ	; ICvUnknown::GetInterfaceId
; Function compile flags: /Ogtpy
; File c:\users\enormousapplepie\documents\github\lekmod\lekmod_dll\cvgamecoredllutil\include\cvdllinterfaces.h
;	COMDAT ?GetInterfaceId@ICvUnknown@@SG?AU_GUID@@XZ
_TEXT	SEGMENT
$T223779 = 8						; size = 4
?GetInterfaceId@ICvUnknown@@SG?AU_GUID@@XZ PROC		; ICvUnknown::GetInterfaceId, COMDAT

; 306  : 	static GUID DLLCALL GetInterfaceId(){ return guidICvUnknown; }

	mov	eax, DWORD PTR $T223779[esp-4]
	mov	ecx, DWORD PTR _guidICvUnknown
	mov	edx, DWORD PTR _guidICvUnknown+4
	mov	DWORD PTR [eax], ecx
	mov	ecx, DWORD PTR _guidICvUnknown+8
	mov	DWORD PTR [eax+4], edx
	mov	edx, DWORD PTR _guidICvUnknown+12
	mov	DWORD PTR [eax+8], ecx
	mov	DWORD PTR [eax+12], edx
	ret	4
?GetInterfaceId@ICvUnknown@@SG?AU_GUID@@XZ ENDP		; ICvUnknown::GetInterfaceId
_TEXT	ENDS
PUBLIC	?GetInterfaceId@ICvNetMessageHandler1@@SG?AU_GUID@@XZ ; ICvNetMessageHandler1::GetInterfaceId
; Function compile flags: /Ogtpy
;	COMDAT ?GetInterfaceId@ICvNetMessageHandler1@@SG?AU_GUID@@XZ
_TEXT	SEGMENT
$T223783 = 8						; size = 4
?GetInterfaceId@ICvNetMessageHandler1@@SG?AU_GUID@@XZ PROC ; ICvNetMessageHandler1::GetInterfaceId, COMDAT

; 1175 : 	static GUID DLLCALL GetInterfaceId() { return guidICvNetMessageHandler1; }

	mov	eax, DWORD PTR $T223783[esp-4]
	mov	ecx, DWORD PTR _guidICvNetMessageHandler1
	mov	edx, DWORD PTR _guidICvNetMessageHandler1+4
	mov	DWORD PTR [eax], ecx
	mov	ecx, DWORD PTR _guidICvNetMessageHandler1+8
	mov	DWORD PTR [eax+4], edx
	mov	edx, DWORD PTR _guidICvNetMessageHandler1+12
	mov	DWORD PTR [eax+8], ecx
	mov	DWORD PTR [eax+12], edx
	ret	4
?GetInterfaceId@ICvNetMessageHandler1@@SG?AU_GUID@@XZ ENDP ; ICvNetMessageHandler1::GetInterfaceId
_TEXT	ENDS
PUBLIC	?GetInterfaceId@ICvNetMessageHandler2@@SG?AU_GUID@@XZ ; ICvNetMessageHandler2::GetInterfaceId
; Function compile flags: /Ogtpy
;	COMDAT ?GetInterfaceId@ICvNetMessageHandler2@@SG?AU_GUID@@XZ
_TEXT	SEGMENT
$T223787 = 8						; size = 4
?GetInterfaceId@ICvNetMessageHandler2@@SG?AU_GUID@@XZ PROC ; ICvNetMessageHandler2::GetInterfaceId, COMDAT

; 1217 : 	static GUID DLLCALL GetInterfaceId() { return guidICvNetMessageHandler2; }

	mov	eax, DWORD PTR $T223787[esp-4]
	mov	ecx, DWORD PTR _guidICvNetMessageHandler2
	mov	edx, DWORD PTR _guidICvNetMessageHandler2+4
	mov	DWORD PTR [eax], ecx
	mov	ecx, DWORD PTR _guidICvNetMessageHandler2+8
	mov	DWORD PTR [eax+4], edx
	mov	edx, DWORD PTR _guidICvNetMessageHandler2+12
	mov	DWORD PTR [eax+8], ecx
	mov	DWORD PTR [eax+12], edx
	ret	4
?GetInterfaceId@ICvNetMessageHandler2@@SG?AU_GUID@@XZ ENDP ; ICvNetMessageHandler2::GetInterfaceId
_TEXT	ENDS
PUBLIC	?GetInterfaceId@ICvNetMessageHandler3@@SG?AU_GUID@@XZ ; ICvNetMessageHandler3::GetInterfaceId
; Function compile flags: /Ogtpy
; File c:\users\enormousapplepie\documents\github\lekmod\lekmod_dll\cvgamecoredllutil\include\cvdllinterfaces2.h
;	COMDAT ?GetInterfaceId@ICvNetMessageHandler3@@SG?AU_GUID@@XZ
_TEXT	SEGMENT
$T223791 = 8						; size = 4
?GetInterfaceId@ICvNetMessageHandler3@@SG?AU_GUID@@XZ PROC ; ICvNetMessageHandler3::GetInterfaceId, COMDAT

; 92   : 	static GUID DLLCALL GetInterfaceId() { return guidICvNetMessageHandler3; }

	mov	eax, DWORD PTR $T223791[esp-4]
	mov	ecx, DWORD PTR _guidICvNetMessageHandler3
	mov	edx, DWORD PTR _guidICvNetMessageHandler3+4
	mov	DWORD PTR [eax], ecx
	mov	ecx, DWORD PTR _guidICvNetMessageHandler3+8
	mov	DWORD PTR [eax+4], edx
	mov	edx, DWORD PTR _guidICvNetMessageHandler3+12
	mov	DWORD PTR [eax+8], ecx
	mov	DWORD PTR [eax+12], edx
	ret	4
?GetInterfaceId@ICvNetMessageHandler3@@SG?AU_GUID@@XZ ENDP ; ICvNetMessageHandler3::GetInterfaceId
_TEXT	ENDS
PUBLIC	??CCvLuaArgsHandle@@QBEPAVICvEngineScriptSystemArgs1@@XZ ; CvLuaArgsHandle::operator->
; Function compile flags: /Ogtpy
; File c:\users\enormousapplepie\documents\github\lekmod\lekmod_dll\cvgamecoredll_expansion2\lua\cvluaargshandle.h
;	COMDAT ??CCvLuaArgsHandle@@QBEPAVICvEngineScriptSystemArgs1@@XZ
_TEXT	SEGMENT
??CCvLuaArgsHandle@@QBEPAVICvEngineScriptSystemArgs1@@XZ PROC ; CvLuaArgsHandle::operator->, COMDAT
; _this$ = ecx

; 40   : 	return m_Ptr;

	mov	eax, DWORD PTR [ecx]

; 41   : }

	ret	0
??CCvLuaArgsHandle@@QBEPAVICvEngineScriptSystemArgs1@@XZ ENDP ; CvLuaArgsHandle::operator->
_TEXT	ENDS
PUBLIC	?get@CvLuaArgsHandle@@QBEPAVICvEngineScriptSystemArgs1@@XZ ; CvLuaArgsHandle::get
; Function compile flags: /Ogtpy
;	COMDAT ?get@CvLuaArgsHandle@@QBEPAVICvEngineScriptSystemArgs1@@XZ
_TEXT	SEGMENT
?get@CvLuaArgsHandle@@QBEPAVICvEngineScriptSystemArgs1@@XZ PROC ; CvLuaArgsHandle::get, COMDAT
; _this$ = ecx

; 45   : 	return m_Ptr;

	mov	eax, DWORD PTR [ecx]

; 46   : }

	ret	0
?get@CvLuaArgsHandle@@QBEPAVICvEngineScriptSystemArgs1@@XZ ENDP ; CvLuaArgsHandle::get
_TEXT	ENDS
PUBLIC	?getMap@CvGlobals@@QAEAAVCvMap@@XZ		; CvGlobals::getMap
; Function compile flags: /Ogtpy
; File c:\users\enormousapplepie\documents\github\lekmod\lekmod_dll\cvgamecoredll_expansion2\cvglobals.h
;	COMDAT ?getMap@CvGlobals@@QAEAAVCvMap@@XZ
_TEXT	SEGMENT
?getMap@CvGlobals@@QAEAAVCvMap@@XZ PROC			; CvGlobals::getMap, COMDAT
; _this$ = ecx

; 175  : 		return *m_map;    // inlined for perf reasons, do not use outside of dll

	mov	eax, DWORD PTR [ecx+52]

; 176  : 	}

	ret	0
?getMap@CvGlobals@@QAEAAVCvMap@@XZ ENDP			; CvGlobals::getMap
_TEXT	ENDS
PUBLIC	?getGame@CvGlobals@@QAEAAVCvGame@@XZ		; CvGlobals::getGame
; Function compile flags: /Ogtpy
;	COMDAT ?getGame@CvGlobals@@QAEAAVCvGame@@XZ
_TEXT	SEGMENT
?getGame@CvGlobals@@QAEAAVCvGame@@XZ PROC		; CvGlobals::getGame, COMDAT
; _this$ = ecx

; 183  : 		return *m_game;    // inlined for perf reasons, do not use outside of dll

	mov	eax, DWORD PTR [ecx+48]

; 184  : 	}

	ret	0
?getGame@CvGlobals@@QAEAAVCvGame@@XZ ENDP		; CvGlobals::getGame
_TEXT	ENDS
PUBLIC	?getBARBARIAN_UNIT_GOLD_RANSOM_exp@CvGlobals@@QAEHXZ ; CvGlobals::getBARBARIAN_UNIT_GOLD_RANSOM_exp
; Function compile flags: /Ogtpy
;	COMDAT ?getBARBARIAN_UNIT_GOLD_RANSOM_exp@CvGlobals@@QAEHXZ
_TEXT	SEGMENT
?getBARBARIAN_UNIT_GOLD_RANSOM_exp@CvGlobals@@QAEHXZ PROC ; CvGlobals::getBARBARIAN_UNIT_GOLD_RANSOM_exp, COMDAT
; _this$ = ecx

; 873  : 		return m_iBARBARIAN_UNIT_GOLD_RANSOM;

	mov	eax, DWORD PTR [ecx+7076]

; 874  : 	}

	ret	0
?getBARBARIAN_UNIT_GOLD_RANSOM_exp@CvGlobals@@QAEHXZ ENDP ; CvGlobals::getBARBARIAN_UNIT_GOLD_RANSOM_exp
_TEXT	ENDS
PUBLIC	?getSWITCH_POLICY_BRANCHES_ANARCHY_TURNS@CvGlobals@@QAEHXZ ; CvGlobals::getSWITCH_POLICY_BRANCHES_ANARCHY_TURNS
; Function compile flags: /Ogtpy
;	COMDAT ?getSWITCH_POLICY_BRANCHES_ANARCHY_TURNS@CvGlobals@@QAEHXZ
_TEXT	SEGMENT
?getSWITCH_POLICY_BRANCHES_ANARCHY_TURNS@CvGlobals@@QAEHXZ PROC ; CvGlobals::getSWITCH_POLICY_BRANCHES_ANARCHY_TURNS, COMDAT
; _this$ = ecx

; 6052 : 		return m_iSWITCH_POLICY_BRANCHES_ANARCHY_TURNS;

	mov	eax, DWORD PTR [ecx+6976]

; 6053 : 	}

	ret	0
?getSWITCH_POLICY_BRANCHES_ANARCHY_TURNS@CvGlobals@@QAEHXZ ENDP ; CvGlobals::getSWITCH_POLICY_BRANCHES_ANARCHY_TURNS
_TEXT	ENDS
PUBLIC	?getDLLIFace@CvGlobals@@QAEPAVICvEngineUtility4@@XZ ; CvGlobals::getDLLIFace
; Function compile flags: /Ogtpy
;	COMDAT ?getDLLIFace@CvGlobals@@QAEPAVICvEngineUtility4@@XZ
_TEXT	SEGMENT
?getDLLIFace@CvGlobals@@QAEPAVICvEngineUtility4@@XZ PROC ; CvGlobals::getDLLIFace, COMDAT
; _this$ = ecx

; 7703 : 		return m_pDLL;

	mov	eax, DWORD PTR [ecx+8564]

; 7704 : 	}

	ret	0
?getDLLIFace@CvGlobals@@QAEPAVICvEngineUtility4@@XZ ENDP ; CvGlobals::getDLLIFace
_TEXT	ENDS
PUBLIC	?GetEngineUserInterface@CvGlobals@@QAEPAVICvUserInterface2@@XZ ; CvGlobals::GetEngineUserInterface
; Function compile flags: /Ogtpy
;	COMDAT ?GetEngineUserInterface@CvGlobals@@QAEPAVICvUserInterface2@@XZ
_TEXT	SEGMENT
?GetEngineUserInterface@CvGlobals@@QAEPAVICvUserInterface2@@XZ PROC ; CvGlobals::GetEngineUserInterface, COMDAT
; _this$ = ecx

; 7713 : 		return m_pEngineUI;

	mov	eax, DWORD PTR [ecx+8568]

; 7714 : 	}

	ret	0
?GetEngineUserInterface@CvGlobals@@QAEPAVICvUserInterface2@@XZ ENDP ; CvGlobals::GetEngineUserInterface
_TEXT	ENDS
PUBLIC	?getPlayer@CvPlayerAI@@SAAAV1@W4PlayerTypes@@@Z	; CvPlayerAI::getPlayer
EXTRN	?m_aPlayers@CvPlayerAI@@1PAV1@A:DWORD		; CvPlayerAI::m_aPlayers
; Function compile flags: /Ogtpy
; File c:\users\enormousapplepie\documents\github\lekmod\lekmod_dll\cvgamecoredll_expansion2\cvplayerai.h
;	COMDAT ?getPlayer@CvPlayerAI@@SAAAV1@W4PlayerTypes@@@Z
_TEXT	SEGMENT
_ePlayer$ = 8						; size = 4
?getPlayer@CvPlayerAI@@SAAAV1@W4PlayerTypes@@@Z PROC	; CvPlayerAI::getPlayer, COMDAT

; 28   : 		CvAssertMsg(ePlayer != NO_PLAYER, "Player is not assigned a valid value");
; 29   : 		CvAssertMsg(ePlayer < MAX_PLAYERS, "Player is not assigned a valid value");
; 30   : 		return m_aPlayers[ePlayer];

	mov	eax, DWORD PTR _ePlayer$[esp-4]
	imul	eax, 63236				; 0000f704H
	add	eax, DWORD PTR ?m_aPlayers@CvPlayerAI@@1PAV1@A ; CvPlayerAI::m_aPlayers

; 31   : 	}

	ret	0
?getPlayer@CvPlayerAI@@SAAAV1@W4PlayerTypes@@@Z ENDP	; CvPlayerAI::getPlayer
_TEXT	ENDS
PUBLIC	?getX@CvPlot@@QBEHXZ				; CvPlot::getX
; Function compile flags: /Ogtpy
; File c:\users\enormousapplepie\documents\github\lekmod\lekmod_dll\cvgamecoredll_expansion2\cvplot.h
;	COMDAT ?getX@CvPlot@@QBEHXZ
_TEXT	SEGMENT
?getX@CvPlot@@QBEHXZ PROC				; CvPlot::getX, COMDAT
; _this$ = ecx

; 307  : 		return m_iX;

	movsx	eax, WORD PTR [ecx]

; 308  : 	}

	ret	0
?getX@CvPlot@@QBEHXZ ENDP				; CvPlot::getX
_TEXT	ENDS
PUBLIC	?getY@CvPlot@@QBEHXZ				; CvPlot::getY
; Function compile flags: /Ogtpy
;	COMDAT ?getY@CvPlot@@QBEHXZ
_TEXT	SEGMENT
?getY@CvPlot@@QBEHXZ PROC				; CvPlot::getY, COMDAT
; _this$ = ecx

; 312  : 		return m_iY;

	movsx	eax, WORD PTR [ecx+2]

; 313  : 	}

	ret	0
?getY@CvPlot@@QBEHXZ ENDP				; CvPlot::getY
_TEXT	ENDS
PUBLIC	?getPlotCity@CvPlot@@QBEPAVCvCity@@XZ		; CvPlot::getPlotCity
EXTRN	?getCity@CvPlayer@@QAEPAVCvCity@@H@Z:PROC	; CvPlayer::getCity
; Function compile flags: /Ogtpy
;	COMDAT ?getPlotCity@CvPlot@@QBEPAVCvCity@@XZ
_TEXT	SEGMENT
?getPlotCity@CvPlot@@QBEPAVCvCity@@XZ PROC		; CvPlot::getPlotCity, COMDAT
; _this$ = ecx

; 533  : 		if((m_plotCity.eOwner >= 0) && m_plotCity.eOwner < MAX_PLAYERS)

	mov	eax, DWORD PTR [ecx+104]
	test	eax, eax
	jl	SHORT $LN1@getPlotCit
	cmp	eax, 64					; 00000040H
	jge	SHORT $LN1@getPlotCit

; 534  : 			return (GET_PLAYER((PlayerTypes)m_plotCity.eOwner).getCity(m_plotCity.iID));

	mov	ecx, DWORD PTR [ecx+108]
	imul	eax, 63236				; 0000f704H
	add	eax, DWORD PTR ?m_aPlayers@CvPlayerAI@@1PAV1@A ; CvPlayerAI::m_aPlayers
	push	ecx
	mov	ecx, eax
	call	?getCity@CvPlayer@@QAEPAVCvCity@@H@Z	; CvPlayer::getCity

; 537  : 	}

	ret	0
$LN1@getPlotCit:

; 535  : 
; 536  : 		return NULL;

	xor	eax, eax

; 537  : 	}

	ret	0
?getPlotCity@CvPlot@@QBEPAVCvCity@@XZ ENDP		; CvPlot::getPlotCity
_TEXT	ENDS
PUBLIC	?coordRange@@YAHHH_N@Z				; coordRange
; Function compile flags: /Ogtpy
; File c:\users\enormousapplepie\documents\github\lekmod\lekmod_dll\cvgamecoredll_expansion2\cvmap.h
;	COMDAT ?coordRange@@YAHHH_N@Z
_TEXT	SEGMENT
_iCoord$ = 8						; size = 4
_iRange$ = 12						; size = 4
_bWrap$ = 16						; size = 1
?coordRange@@YAHHH_N@Z PROC				; coordRange, COMDAT

; 88   : 	if(bWrap)

	cmp	BYTE PTR _bWrap$[esp-4], 0
	mov	eax, DWORD PTR _iCoord$[esp-4]
	je	SHORT $LN5@coordRange

; 89   : 	{
; 90   : 		if(iCoord < 0)
; 91   : 		{
; 92   : 			return (iRange + (iCoord % iRange));

	mov	ecx, DWORD PTR _iRange$[esp-4]
	test	eax, eax
	jge	SHORT $LN3@coordRange
	cdq
	idiv	ecx
	mov	eax, edx
	add	eax, ecx

; 97   : 		}
; 98   : 	}
; 99   : 
; 100  : 	return iCoord;
; 101  : }

	ret	0
$LN3@coordRange:

; 93   : 		}
; 94   : 		else if(iCoord >= iRange)

	cmp	eax, ecx
	jl	SHORT $LN5@coordRange

; 95   : 		{
; 96   : 			return (iCoord % iRange);

	cdq
	idiv	ecx
	mov	eax, edx
$LN5@coordRange:

; 97   : 		}
; 98   : 	}
; 99   : 
; 100  : 	return iCoord;
; 101  : }

	ret	0
?coordRange@@YAHHH_N@Z ENDP				; coordRange
_TEXT	ENDS
PUBLIC	?getGridWidth@CvMap@@QBEHXZ			; CvMap::getGridWidth
; Function compile flags: /Ogtpy
;	COMDAT ?getGridWidth@CvMap@@QBEHXZ
_TEXT	SEGMENT
?getGridWidth@CvMap@@QBEHXZ PROC			; CvMap::getGridWidth, COMDAT
; _this$ = ecx

; 198  : 		return m_iGridWidth;

	mov	eax, DWORD PTR [ecx+4020]

; 199  : 	}

	ret	0
?getGridWidth@CvMap@@QBEHXZ ENDP			; CvMap::getGridWidth
_TEXT	ENDS
PUBLIC	?getGridHeight@CvMap@@QBEHXZ			; CvMap::getGridHeight
; Function compile flags: /Ogtpy
;	COMDAT ?getGridHeight@CvMap@@QBEHXZ
_TEXT	SEGMENT
?getGridHeight@CvMap@@QBEHXZ PROC			; CvMap::getGridHeight, COMDAT
; _this$ = ecx

; 206  : 		return m_iGridHeight;

	mov	eax, DWORD PTR [ecx+4024]

; 207  : 	}

	ret	0
?getGridHeight@CvMap@@QBEHXZ ENDP			; CvMap::getGridHeight
_TEXT	ENDS
PUBLIC	?isWrapX@CvMap@@QBE_NXZ				; CvMap::isWrapX
; Function compile flags: /Ogtpy
;	COMDAT ?isWrapX@CvMap@@QBE_NXZ
_TEXT	SEGMENT
?isWrapX@CvMap@@QBE_NXZ PROC				; CvMap::isWrapX, COMDAT
; _this$ = ecx

; 228  : 		return m_bWrapX;

	mov	al, BYTE PTR [ecx+4056]

; 229  : 	}

	ret	0
?isWrapX@CvMap@@QBE_NXZ ENDP				; CvMap::isWrapX
_TEXT	ENDS
PUBLIC	?isWrapY@CvMap@@QBE_NXZ				; CvMap::isWrapY
; Function compile flags: /Ogtpy
;	COMDAT ?isWrapY@CvMap@@QBE_NXZ
_TEXT	SEGMENT
?isWrapY@CvMap@@QBE_NXZ PROC				; CvMap::isWrapY, COMDAT
; _this$ = ecx

; 233  : 		return m_bWrapY;

	mov	al, BYTE PTR [ecx+4057]

; 234  : 	}

	ret	0
?isWrapY@CvMap@@QBE_NXZ ENDP				; CvMap::isWrapY
_TEXT	ENDS
PUBLIC	?getTeam@CvTeam@@SAAAV1@W4TeamTypes@@@Z		; CvTeam::getTeam
EXTRN	?m_aTeams@CvTeam@@1PAV1@A:DWORD			; CvTeam::m_aTeams
; Function compile flags: /Ogtpy
; File c:\users\enormousapplepie\documents\github\lekmod\lekmod_dll\cvgamecoredll_expansion2\cvteam.h
;	COMDAT ?getTeam@CvTeam@@SAAAV1@W4TeamTypes@@@Z
_TEXT	SEGMENT
_eTeam$ = 8						; size = 4
?getTeam@CvTeam@@SAAAV1@W4TeamTypes@@@Z PROC		; CvTeam::getTeam, COMDAT

; 29   : 		CvAssertMsg(eTeam != NO_TEAM, "eTeam is not assigned a valid value");
; 30   : 		CvAssertMsg(eTeam < MAX_TEAMS, "eTeam is not assigned a valid value");
; 31   : 		return m_aTeams[eTeam];

	mov	eax, DWORD PTR _eTeam$[esp-4]
	imul	eax, 2980				; 00000ba4H
	add	eax, DWORD PTR ?m_aTeams@CvTeam@@1PAV1@A ; CvTeam::m_aTeams

; 32   : 	}

	ret	0
?getTeam@CvTeam@@SAAAV1@W4TeamTypes@@@Z ENDP		; CvTeam::getTeam
_TEXT	ENDS
PUBLIC	??0CvString@@QAE@ABV0@@Z			; CvString::CvString
EXTRN	__imp_??0?$basic_string@DU?$char_traits@D@std@@V?$allocator@D@2@@std@@QAE@ABV01@@Z:PROC
; Function compile flags: /Ogtpy
;	COMDAT ??0CvString@@QAE@ABV0@@Z
_TEXT	SEGMENT
___that$ = 8						; size = 4
??0CvString@@QAE@ABV0@@Z PROC				; CvString::CvString, COMDAT
; _this$ = ecx
	mov	eax, DWORD PTR ___that$[esp-4]
	push	esi
	push	eax
	mov	esi, ecx
	call	DWORD PTR __imp_??0?$basic_string@DU?$char_traits@D@std@@V?$allocator@D@2@@std@@QAE@ABV01@@Z
	mov	eax, esi
	pop	esi
	ret	4
??0CvString@@QAE@ABV0@@Z ENDP				; CvString::CvString
_TEXT	ENDS
PUBLIC	?SetFoundingReligion@CvPlayerReligions@@QAEX_N@Z ; CvPlayerReligions::SetFoundingReligion
; Function compile flags: /Ogtpy
; File c:\users\enormousapplepie\documents\github\lekmod\lekmod_dll\cvgamecoredll_expansion2\cvreligionclasses.h
;	COMDAT ?SetFoundingReligion@CvPlayerReligions@@QAEX_N@Z
_TEXT	SEGMENT
_bNewValue$ = 8						; size = 1
?SetFoundingReligion@CvPlayerReligions@@QAEX_N@Z PROC	; CvPlayerReligions::SetFoundingReligion, COMDAT
; _this$ = ecx

; 320  : 		m_bFoundingReligion = bNewValue;

	movzx	eax, BYTE PTR _bNewValue$[esp-4]
	mov	DWORD PTR [ecx+8], eax

; 321  : 	};

	ret	4
?SetFoundingReligion@CvPlayerReligions@@QAEX_N@Z ENDP	; CvPlayerReligions::SetFoundingReligion
_TEXT	ENDS
PUBLIC	??A?$vector@W4TeamTypes@@V?$allocator@W4TeamTypes@@@std@@@std@@QBEABW4TeamTypes@@I@Z ; std::vector<enum TeamTypes,std::allocator<enum TeamTypes> >::operator[]
; Function compile flags: /Ogtpy
; File c:\program files (x86)\microsoft visual studio 9.0\vc\include\vector
;	COMDAT ??A?$vector@W4TeamTypes@@V?$allocator@W4TeamTypes@@@std@@@std@@QBEABW4TeamTypes@@I@Z
_TEXT	SEGMENT
__Pos$ = 8						; size = 4
??A?$vector@W4TeamTypes@@V?$allocator@W4TeamTypes@@@std@@@std@@QBEABW4TeamTypes@@I@Z PROC ; std::vector<enum TeamTypes,std::allocator<enum TeamTypes> >::operator[], COMDAT
; _this$ = ecx

; 760  : 
; 761  :  #if _HAS_ITERATOR_DEBUGGING
; 762  : 		if (size() <= _Pos)
; 763  : 			{
; 764  : 			_DEBUG_ERROR("vector subscript out of range");
; 765  : 			_SCL_SECURE_OUT_OF_RANGE;
; 766  : 			}
; 767  :  #endif /* _HAS_ITERATOR_DEBUGGING */
; 768  : 		_SCL_SECURE_VALIDATE_RANGE(_Pos < size());
; 769  : 
; 770  : 		return (*(_Myfirst + _Pos));

	mov	eax, DWORD PTR [ecx+4]
	mov	ecx, DWORD PTR __Pos$[esp-4]
	lea	eax, DWORD PTR [eax+ecx*4]

; 771  : 		}

	ret	4
??A?$vector@W4TeamTypes@@V?$allocator@W4TeamTypes@@@std@@@std@@QBEABW4TeamTypes@@I@Z ENDP ; std::vector<enum TeamTypes,std::allocator<enum TeamTypes> >::operator[]
_TEXT	ENDS
PUBLIC	??B?$FAutoVariable@HVCvCity@@@@QBEABHXZ		; FAutoVariable<int,CvCity>::operator int const &
; Function compile flags: /Ogtpy
; File c:\users\enormousapplepie\documents\github\lekmod\lekmod_dll\fireplace\include\fireworks\fautovariable.h
;	COMDAT ??B?$FAutoVariable@HVCvCity@@@@QBEABHXZ
_TEXT	SEGMENT
??B?$FAutoVariable@HVCvCity@@@@QBEABHXZ PROC		; FAutoVariable<int,CvCity>::operator int const &, COMDAT
; _this$ = ecx

; 194  : 	return m_value;

	lea	eax, DWORD PTR [ecx+4]

; 195  : }

	ret	0
??B?$FAutoVariable@HVCvCity@@@@QBEABHXZ ENDP		; FAutoVariable<int,CvCity>::operator int const &
_TEXT	ENDS
PUBLIC	??B?$FAutoVariable@W4PlayerTypes@@VCvPlayer@@@@QBEABW4PlayerTypes@@XZ ; FAutoVariable<enum PlayerTypes,CvPlayer>::operator enum PlayerTypes const &
; Function compile flags: /Ogtpy
;	COMDAT ??B?$FAutoVariable@W4PlayerTypes@@VCvPlayer@@@@QBEABW4PlayerTypes@@XZ
_TEXT	SEGMENT
??B?$FAutoVariable@W4PlayerTypes@@VCvPlayer@@@@QBEABW4PlayerTypes@@XZ PROC ; FAutoVariable<enum PlayerTypes,CvPlayer>::operator enum PlayerTypes const &, COMDAT
; _this$ = ecx

; 194  : 	return m_value;

	lea	eax, DWORD PTR [ecx+4]

; 195  : }

	ret	0
??B?$FAutoVariable@W4PlayerTypes@@VCvPlayer@@@@QBEABW4PlayerTypes@@XZ ENDP ; FAutoVariable<enum PlayerTypes,CvPlayer>::operator enum PlayerTypes const &
_TEXT	ENDS
PUBLIC	??B?$FAutoVariable@_NVCvPlayer@@@@QBEAB_NXZ	; FAutoVariable<bool,CvPlayer>::operator bool const &
; Function compile flags: /Ogtpy
;	COMDAT ??B?$FAutoVariable@_NVCvPlayer@@@@QBEAB_NXZ
_TEXT	SEGMENT
??B?$FAutoVariable@_NVCvPlayer@@@@QBEAB_NXZ PROC	; FAutoVariable<bool,CvPlayer>::operator bool const &, COMDAT
; _this$ = ecx

; 194  : 	return m_value;

	lea	eax, DWORD PTR [ecx+4]

; 195  : }

	ret	0
??B?$FAutoVariable@_NVCvPlayer@@@@QBEAB_NXZ ENDP	; FAutoVariable<bool,CvPlayer>::operator bool const &
_TEXT	ENDS
PUBLIC	?GetLocalizedText@@YA?AVCvString@@PBD@Z		; GetLocalizedText
EXTRN	__imp_??1String@Localization@@UAE@XZ:PROC
EXTRN	__imp_?assign@?$basic_string@DU?$char_traits@D@std@@V?$allocator@D@2@@std@@QAEAAV12@PBDI@Z:PROC
EXTRN	__imp_?toUTF8@String@Localization@@QAEPBDAAIH@Z:PROC
EXTRN	__imp_?Lookup@Localization@@YA?AVString@1@PBD@Z:PROC
EXTRN	___CxxFrameHandler3:PROC
;	COMDAT xdata$x
; File c:\users\enormousapplepie\documents\github\lekmod\lekmod_dll\cvgamecoredllutil\include\cvstring.h
xdata$x	SEGMENT
__unwindtable$?GetLocalizedText@@YA?AVCvString@@PBD@Z DD 0ffffffffH
	DD	FLAT:__unwindfunclet$?GetLocalizedText@@YA?AVCvString@@PBD@Z$1
	DD	00H
	DD	FLAT:__unwindfunclet$?GetLocalizedText@@YA?AVCvString@@PBD@Z$0
__ehfuncinfo$?GetLocalizedText@@YA?AVCvString@@PBD@Z DD 019930522H
	DD	02H
	DD	FLAT:__unwindtable$?GetLocalizedText@@YA?AVCvString@@PBD@Z
	DD	2 DUP(00H)
	DD	2 DUP(00H)
	DD	00H
	DD	01H
; Function compile flags: /Ogtpy
; File c:\users\enormousapplepie\documents\github\lekmod\lekmod_dll\cvgamecoredll_expansion2\cvgamecoreutils.h
xdata$x	ENDS
;	COMDAT ?GetLocalizedText@@YA?AVCvString@@PBD@Z
_TEXT	SEGMENT
_bytes$ = -100						; size = 4
$T223874 = -96						; size = 4
_text$ = -92						; size = 80
__$EHRec$ = -12						; size = 12
___$ReturnUdt$ = 8					; size = 4
_szString$ = 12						; size = 4
?GetLocalizedText@@YA?AVCvString@@PBD@Z PROC		; GetLocalizedText, COMDAT

; 489  : {

	push	-1
	push	__ehhandler$?GetLocalizedText@@YA?AVCvString@@PBD@Z
	mov	eax, DWORD PTR fs:0
	push	eax
	mov	DWORD PTR fs:0, esp
	sub	esp, 88					; 00000058H

; 490  : 	Localization::String text = Localization::Lookup(szString);

	mov	eax, DWORD PTR _szString$[esp+96]
	push	ebx
	push	esi
	push	edi
	push	eax
	lea	ecx, DWORD PTR _text$[esp+116]
	xor	ebx, ebx
	push	ecx
	mov	DWORD PTR __$EHRec$[esp+128], ebx
	mov	DWORD PTR $T223874[esp+120], ebx
	call	DWORD PTR __imp_?Lookup@Localization@@YA?AVString@1@PBD@Z
	add	esp, 8

; 491  : 
; 492  : 	size_t bytes = 0;
; 493  : 	const char* szComposedString = text.toUTF8(bytes);

	push	1
	lea	edx, DWORD PTR _bytes$[esp+116]
	push	edx
	lea	ecx, DWORD PTR _text$[esp+120]
	mov	DWORD PTR __$EHRec$[esp+128], 1
	mov	DWORD PTR _bytes$[esp+120], ebx
	call	DWORD PTR __imp_?toUTF8@String@Localization@@QAEPBDAAIH@Z

; 494  : 	CvString str;

	mov	esi, DWORD PTR ___$ReturnUdt$[esp+108]
	mov	ecx, esi
	mov	edi, eax
	call	DWORD PTR __imp_??0?$basic_string@DU?$char_traits@D@std@@V?$allocator@D@2@@std@@QAE@XZ

; 495  : 	str.assign(szComposedString, bytes);
; 496  : 	return str;

	mov	eax, DWORD PTR _bytes$[esp+112]
	push	eax
	push	edi
	mov	ecx, esi
	mov	DWORD PTR $T223874[esp+120], 1
	call	DWORD PTR __imp_?assign@?$basic_string@DU?$char_traits@D@std@@V?$allocator@D@2@@std@@QAEAAV12@PBDI@Z
	lea	ecx, DWORD PTR _text$[esp+112]
	mov	BYTE PTR __$EHRec$[esp+120], bl
	call	DWORD PTR __imp_??1String@Localization@@UAE@XZ

; 497  : }

	mov	ecx, DWORD PTR __$EHRec$[esp+112]
	pop	edi
	mov	eax, esi
	pop	esi
	pop	ebx
	mov	DWORD PTR fs:0, ecx
	add	esp, 100				; 00000064H
	ret	0
_TEXT	ENDS
;	COMDAT text$x
text$x	SEGMENT
__unwindfunclet$?GetLocalizedText@@YA?AVCvString@@PBD@Z$0:
	lea	ecx, DWORD PTR _text$[ebp]
	jmp	DWORD PTR __imp_??1String@Localization@@UAE@XZ
__unwindfunclet$?GetLocalizedText@@YA?AVCvString@@PBD@Z$1:
	mov	eax, DWORD PTR $T223874[ebp]
	and	eax, 1
	je	$LN5@GetLocaliz
	and	DWORD PTR $T223874[ebp], -2		; fffffffeH
	mov	ecx, DWORD PTR ___$ReturnUdt$[ebp-4]
	jmp	??1CvString@@QAE@XZ			; CvString::~CvString
$LN5@GetLocaliz:
	ret	0
__ehhandler$?GetLocalizedText@@YA?AVCvString@@PBD@Z:
	mov	eax, OFFSET __ehfuncinfo$?GetLocalizedText@@YA?AVCvString@@PBD@Z
	jmp	___CxxFrameHandler3
text$x	ENDS
?GetLocalizedText@@YA?AVCvString@@PBD@Z ENDP		; GetLocalizedText
PUBLIC	??_7ICvNetMessageHandler1@@6B@			; ICvNetMessageHandler1::`vftable'
PUBLIC	??0ICvNetMessageHandler1@@QAE@XZ		; ICvNetMessageHandler1::ICvNetMessageHandler1
PUBLIC	??_R4ICvNetMessageHandler1@@6B@			; ICvNetMessageHandler1::`RTTI Complete Object Locator'
;	COMDAT ??_R4ICvNetMessageHandler1@@6B@
rdata$r	SEGMENT
??_R4ICvNetMessageHandler1@@6B@ DD 00H			; ICvNetMessageHandler1::`RTTI Complete Object Locator'
	DD	00H
	DD	00H
	DD	FLAT:??_R0?AVICvNetMessageHandler1@@@8
	DD	FLAT:??_R3ICvNetMessageHandler1@@8
rdata$r	ENDS
;	COMDAT ??_7ICvNetMessageHandler1@@6B@
CONST	SEGMENT
??_7ICvNetMessageHandler1@@6B@ DD FLAT:??_R4ICvNetMessageHandler1@@6B@ ; ICvNetMessageHandler1::`vftable'
	DD	FLAT:__purecall
	DD	FLAT:__purecall
	DD	FLAT:__purecall
	DD	FLAT:__purecall
	DD	FLAT:__purecall
	DD	FLAT:__purecall
	DD	FLAT:__purecall
	DD	FLAT:__purecall
	DD	FLAT:__purecall
	DD	FLAT:__purecall
	DD	FLAT:__purecall
	DD	FLAT:__purecall
	DD	FLAT:__purecall
	DD	FLAT:__purecall
	DD	FLAT:__purecall
	DD	FLAT:__purecall
	DD	FLAT:__purecall
	DD	FLAT:__purecall
	DD	FLAT:__purecall
	DD	FLAT:__purecall
	DD	FLAT:__purecall
	DD	FLAT:__purecall
	DD	FLAT:__purecall
	DD	FLAT:__purecall
	DD	FLAT:__purecall
	DD	FLAT:__purecall
	DD	FLAT:__purecall
	DD	FLAT:__purecall
	DD	FLAT:__purecall
	DD	FLAT:__purecall
	DD	FLAT:__purecall
	DD	FLAT:__purecall
	DD	FLAT:__purecall
	DD	FLAT:__purecall
	DD	FLAT:__purecall
	DD	FLAT:__purecall
	DD	FLAT:__purecall
; Function compile flags: /Ogtpy
CONST	ENDS
;	COMDAT ??0ICvNetMessageHandler1@@QAE@XZ
_TEXT	SEGMENT
??0ICvNetMessageHandler1@@QAE@XZ PROC			; ICvNetMessageHandler1::ICvNetMessageHandler1, COMDAT
; _this$ = ecx
	mov	eax, ecx
	mov	DWORD PTR [eax], OFFSET ??_7ICvNetMessageHandler1@@6B@
	ret	0
??0ICvNetMessageHandler1@@QAE@XZ ENDP			; ICvNetMessageHandler1::ICvNetMessageHandler1
; Function compile flags: /Ogtpy
; File c:\users\enormousapplepie\documents\github\lekmod\lekmod_dll\cvgamecoredll_expansion2\cvdllnetmessagehandler.cpp
_TEXT	ENDS
;	COMDAT ?QueryInterface@CvDllNetMessageHandler@@UAGPAXU_GUID@@@Z
_TEXT	SEGMENT
$T223904 = -16						; size = 16
$T223902 = -16						; size = 16
$T223900 = -16						; size = 16
$T223898 = -16						; size = 16
_this$ = 8						; size = 4
_guidInterface$ = 12					; size = 16
?QueryInterface@CvDllNetMessageHandler@@UAGPAXU_GUID@@@Z PROC ; CvDllNetMessageHandler::QueryInterface, COMDAT

; 25   : {

	sub	esp, 16					; 00000010H

; 26   : 	if(guidInterface == ICvUnknown::GetInterfaceId() ||
; 27   : 	        guidInterface == ICvNetMessageHandler1::GetInterfaceId() ||
; 28   : 	        guidInterface == ICvNetMessageHandler2::GetInterfaceId() ||
; 29   : 			guidInterface == ICvNetMessageHandler3::GetInterfaceId())

	mov	ecx, DWORD PTR _guidICvUnknown+4
	mov	edx, DWORD PTR _guidICvUnknown+8
	mov	eax, DWORD PTR _guidICvUnknown
	mov	DWORD PTR $T223898[esp+20], ecx
	lea	ecx, DWORD PTR $T223898[esp+16]
	mov	DWORD PTR $T223898[esp+24], edx
	mov	DWORD PTR $T223898[esp+16], eax
	mov	eax, DWORD PTR _guidICvUnknown+12
	push	ecx
	lea	edx, DWORD PTR _guidInterface$[esp+16]
	push	edx
	mov	DWORD PTR $T223898[esp+36], eax
	call	_IsEqualGUID
	add	esp, 8
	test	eax, eax
	jne	$LN1@QueryInter
	mov	ecx, DWORD PTR _guidICvNetMessageHandler1+4
	mov	edx, DWORD PTR _guidICvNetMessageHandler1+8
	mov	eax, DWORD PTR _guidICvNetMessageHandler1
	mov	DWORD PTR $T223900[esp+20], ecx
	lea	ecx, DWORD PTR $T223900[esp+16]
	mov	DWORD PTR $T223900[esp+24], edx
	mov	DWORD PTR $T223900[esp+16], eax
	mov	eax, DWORD PTR _guidICvNetMessageHandler1+12
	push	ecx
	lea	edx, DWORD PTR _guidInterface$[esp+16]
	push	edx
	mov	DWORD PTR $T223900[esp+36], eax
	call	_IsEqualGUID
	add	esp, 8
	test	eax, eax
	jne	SHORT $LN1@QueryInter
	mov	ecx, DWORD PTR _guidICvNetMessageHandler2+4
	mov	edx, DWORD PTR _guidICvNetMessageHandler2+8
	mov	eax, DWORD PTR _guidICvNetMessageHandler2
	mov	DWORD PTR $T223902[esp+20], ecx
	lea	ecx, DWORD PTR $T223902[esp+16]
	mov	DWORD PTR $T223902[esp+24], edx
	mov	DWORD PTR $T223902[esp+16], eax
	mov	eax, DWORD PTR _guidICvNetMessageHandler2+12
	push	ecx
	lea	edx, DWORD PTR _guidInterface$[esp+16]
	push	edx
	mov	DWORD PTR $T223902[esp+36], eax
	call	_IsEqualGUID
	add	esp, 8
	test	eax, eax
	jne	SHORT $LN1@QueryInter
	mov	ecx, DWORD PTR _guidICvNetMessageHandler3+4
	mov	edx, DWORD PTR _guidICvNetMessageHandler3+8
	mov	eax, DWORD PTR _guidICvNetMessageHandler3
	mov	DWORD PTR $T223904[esp+20], ecx
	lea	ecx, DWORD PTR $T223904[esp+16]
	mov	DWORD PTR $T223904[esp+24], edx
	mov	DWORD PTR $T223904[esp+16], eax
	mov	eax, DWORD PTR _guidICvNetMessageHandler3+12
	push	ecx
	lea	edx, DWORD PTR _guidInterface$[esp+16]
	push	edx
	mov	DWORD PTR $T223904[esp+36], eax
	call	_IsEqualGUID
	add	esp, 8
	test	eax, eax
	jne	SHORT $LN1@QueryInter

; 32   : 	}
; 33   : 
; 34   : 	return NULL;
; 35   : }

	add	esp, 16					; 00000010H
	ret	20					; 00000014H
$LN1@QueryInter:

; 30   : 	{
; 31   : 		return this;

	mov	eax, DWORD PTR _this$[esp+12]

; 32   : 	}
; 33   : 
; 34   : 	return NULL;
; 35   : }

	add	esp, 16					; 00000010H
	ret	20					; 00000014H
?QueryInterface@CvDllNetMessageHandler@@UAGPAXU_GUID@@@Z ENDP ; CvDllNetMessageHandler::QueryInterface
_TEXT	ENDS
EXTRN	?doAdvancedStartAction@CvPlayer@@QAEXW4AdvancedStartActionTypes@@HHH_N@Z:PROC ; CvPlayer::doAdvancedStartAction
; Function compile flags: /Ogtpy
;	COMDAT ?ResponseAdvancedStartAction@CvDllNetMessageHandler@@UAGXW4PlayerTypes@@W4AdvancedStartActionTypes@@HHH_N@Z
_TEXT	SEGMENT
_this$ = 8						; size = 4
_ePlayer$ = 12						; size = 4
_eAction$ = 16						; size = 4
_iX$ = 20						; size = 4
_iY$ = 24						; size = 4
_iData$ = 28						; size = 4
_bAdd$ = 32						; size = 1
?ResponseAdvancedStartAction@CvDllNetMessageHandler@@UAGXW4PlayerTypes@@W4AdvancedStartActionTypes@@HHH_N@Z PROC ; CvDllNetMessageHandler::ResponseAdvancedStartAction, COMDAT

; 55   : 	GET_PLAYER(ePlayer).doAdvancedStartAction(eAction, iX, iY, iData, bAdd);

	mov	eax, DWORD PTR _bAdd$[esp-4]
	mov	ecx, DWORD PTR _iData$[esp-4]
	mov	edx, DWORD PTR _iY$[esp-4]
	push	eax
	mov	eax, DWORD PTR _iX$[esp]
	push	ecx
	mov	ecx, DWORD PTR _eAction$[esp+4]
	push	edx
	push	eax
	push	ecx
	mov	ecx, DWORD PTR _ePlayer$[esp+16]
	imul	ecx, 63236				; 0000f704H
	add	ecx, DWORD PTR ?m_aPlayers@CvPlayerAI@@1PAV1@A ; CvPlayerAI::m_aPlayers
	call	?doAdvancedStartAction@CvPlayer@@QAEXW4AdvancedStartActionTypes@@HHH_N@Z ; CvPlayer::doAdvancedStartAction

; 56   : }

	ret	28					; 0000001cH
?ResponseAdvancedStartAction@CvDllNetMessageHandler@@UAGXW4PlayerTypes@@W4AdvancedStartActionTypes@@HHH_N@Z ENDP ; CvDllNetMessageHandler::ResponseAdvancedStartAction
_TEXT	ENDS
EXTRN	?AutoMission@CvUnit@@QAEXXZ:PROC		; CvUnit::AutoMission
EXTRN	?getUnit@CvPlayer@@QAEPAVCvUnit@@H@Z:PROC	; CvPlayer::getUnit
; Function compile flags: /Ogtpy
;	COMDAT ?ResponseAutoMission@CvDllNetMessageHandler@@UAGXW4PlayerTypes@@H@Z
_TEXT	SEGMENT
_this$ = 8						; size = 4
_ePlayer$ = 12						; size = 4
_iUnitID$ = 16						; size = 4
?ResponseAutoMission@CvDllNetMessageHandler@@UAGXW4PlayerTypes@@H@Z PROC ; CvDllNetMessageHandler::ResponseAutoMission, COMDAT

; 60   : 	CvPlayerAI& kPlayer = GET_PLAYER(ePlayer);

	mov	ecx, DWORD PTR _ePlayer$[esp-4]

; 61   : 	CvUnit* pkUnit = kPlayer.getUnit(iUnitID);

	mov	eax, DWORD PTR _iUnitID$[esp-4]
	imul	ecx, 63236				; 0000f704H
	add	ecx, DWORD PTR ?m_aPlayers@CvPlayerAI@@1PAV1@A ; CvPlayerAI::m_aPlayers
	push	eax
	call	?getUnit@CvPlayer@@QAEPAVCvUnit@@H@Z	; CvPlayer::getUnit

; 62   : 	if(pkUnit)

	test	eax, eax
	je	SHORT $LN1@ResponseAu

; 63   : 	{
; 64   : 		pkUnit->AutoMission();

	mov	ecx, eax
	call	?AutoMission@CvUnit@@QAEXXZ		; CvUnit::AutoMission
$LN1@ResponseAu:

; 65   : 	}
; 66   : }

	ret	12					; 0000000cH
?ResponseAutoMission@CvDllNetMessageHandler@@UAGXW4PlayerTypes@@H@Z ENDP ; CvDllNetMessageHandler::ResponseAutoMission
_TEXT	ENDS
EXTRN	?kill@CvUnit@@QAEX_NW4PlayerTypes@@@Z:PROC	; CvUnit::kill
EXTRN	?ChangeGold@CvTreasury@@QAEXH@Z:PROC		; CvTreasury::ChangeGold
EXTRN	?GetGold@CvTreasury@@QBEHXZ:PROC		; CvTreasury::GetGold
EXTRN	?gGlobals@@3VCvGlobals@@A:BYTE			; gGlobals
EXTRN	?GetTreasury@CvPlayer@@QBEPAVCvTreasury@@XZ:PROC ; CvPlayer::GetTreasury
; Function compile flags: /Ogtpy
;	COMDAT ?ResponseBarbarianRansom@CvDllNetMessageHandler@@UAGXW4PlayerTypes@@HH@Z
_TEXT	SEGMENT
_this$ = 8						; size = 4
_ePlayer$ = 12						; size = 4
_iOptionChosen$ = 16					; size = 4
_iUnitID$ = 20						; size = 4
?ResponseBarbarianRansom@CvDllNetMessageHandler@@UAGXW4PlayerTypes@@HH@Z PROC ; CvDllNetMessageHandler::ResponseBarbarianRansom, COMDAT

; 70   : 	CvPlayerAI& kPlayer = GET_PLAYER(ePlayer);

	mov	ecx, DWORD PTR _ePlayer$[esp-4]

; 71   : 
; 72   : 	// Pay ransom
; 73   : 	if(iOptionChosen == 0)

	mov	eax, DWORD PTR _iOptionChosen$[esp-4]
	imul	ecx, 63236				; 0000f704H
	add	ecx, DWORD PTR ?m_aPlayers@CvPlayerAI@@1PAV1@A ; CvPlayerAI::m_aPlayers
	test	eax, eax
	jne	SHORT $LN5@ResponseBa
	push	esi
	push	edi

; 74   : 	{
; 75   : 		CvTreasury* pkTreasury = kPlayer.GetTreasury();

	call	?GetTreasury@CvPlayer@@QBEPAVCvTreasury@@XZ ; CvPlayer::GetTreasury

; 76   : 		int iNumGold = /*100*/ GC.getBARBARIAN_UNIT_GOLD_RANSOM_exp();

	mov	esi, DWORD PTR ?gGlobals@@3VCvGlobals@@A+7076
	mov	edi, eax

; 77   : 		const int iTreasuryGold = pkTreasury->GetGold();

	mov	ecx, edi
	call	?GetGold@CvTreasury@@QBEHXZ		; CvTreasury::GetGold

; 78   : 		if(iNumGold > iTreasuryGold)

	cmp	esi, eax
	jle	SHORT $LN4@ResponseBa

; 79   : 		{
; 80   : 			iNumGold = iTreasuryGold;

	mov	esi, eax
$LN4@ResponseBa:

; 81   : 		}
; 82   : 
; 83   : 		pkTreasury->ChangeGold(-iNumGold);

	neg	esi
	push	esi
	mov	ecx, edi
	call	?ChangeGold@CvTreasury@@QAEXH@Z		; CvTreasury::ChangeGold
	pop	edi
	pop	esi

; 91   : 	}
; 92   : }

	ret	16					; 00000010H
$LN5@ResponseBa:

; 84   : 	}
; 85   : 	// Abandon Unit
; 86   : 	else if(iOptionChosen == 1)

	cmp	eax, 1
	jne	SHORT $LN1@ResponseBa

; 87   : 	{
; 88   : 		CvUnit* pkUnit = kPlayer.getUnit(iUnitID);

	mov	eax, DWORD PTR _iUnitID$[esp-4]
	push	eax
	call	?getUnit@CvPlayer@@QAEPAVCvUnit@@H@Z	; CvPlayer::getUnit

; 89   : 		if(pkUnit != NULL)

	test	eax, eax
	je	SHORT $LN1@ResponseBa

; 90   : 			pkUnit->kill(true, BARBARIAN_PLAYER);

	push	63					; 0000003fH
	push	1
	mov	ecx, eax
	call	?kill@CvUnit@@QAEX_NW4PlayerTypes@@@Z	; CvUnit::kill
$LN1@ResponseBa:

; 91   : 	}
; 92   : }

	ret	16					; 00000010H
?ResponseBarbarianRansom@CvDllNetMessageHandler@@UAGXW4PlayerTypes@@HH@Z ENDP ; CvDllNetMessageHandler::ResponseBarbarianRansom
_TEXT	ENDS
EXTRN	?doTask@CvCity@@QAE?AW4CityTaskResult@@W4TaskTypes@@HH_N111@Z:PROC ; CvCity::doTask
; Function compile flags: /Ogtpy
;	COMDAT ?ResponseCityDoTask@CvDllNetMessageHandler@@UAGXW4PlayerTypes@@HW4TaskTypes@@HH_N222@Z
_TEXT	SEGMENT
_this$ = 8						; size = 4
_ePlayer$ = 12						; size = 4
_iCityID$ = 16						; size = 4
_eTask$ = 20						; size = 4
_iData1$ = 24						; size = 4
_iData2$ = 28						; size = 4
_bOption$ = 32						; size = 1
_bAlt$ = 36						; size = 1
_bShift$ = 40						; size = 1
_bCtrl$ = 44						; size = 1
?ResponseCityDoTask@CvDllNetMessageHandler@@UAGXW4PlayerTypes@@HW4TaskTypes@@HH_N222@Z PROC ; CvDllNetMessageHandler::ResponseCityDoTask, COMDAT

; 166  : 	CvPlayerAI& kPlayer = GET_PLAYER(ePlayer);

	mov	ecx, DWORD PTR _ePlayer$[esp-4]

; 167  : 	CvCity* pkCity = kPlayer.getCity(iCityID);

	mov	eax, DWORD PTR _iCityID$[esp-4]
	imul	ecx, 63236				; 0000f704H
	add	ecx, DWORD PTR ?m_aPlayers@CvPlayerAI@@1PAV1@A ; CvPlayerAI::m_aPlayers
	push	eax
	call	?getCity@CvPlayer@@QAEPAVCvCity@@H@Z	; CvPlayer::getCity

; 168  : 
; 169  : 	if(pkCity != NULL)

	test	eax, eax
	je	SHORT $LN1@ResponseCi

; 170  : 	{
; 171  : 		pkCity->doTask(eTask, iData1, iData2, bOption, bAlt, bShift, bCtrl);

	mov	ecx, DWORD PTR _bCtrl$[esp-4]
	mov	edx, DWORD PTR _bShift$[esp-4]
	push	ecx
	mov	ecx, DWORD PTR _bAlt$[esp]
	push	edx
	mov	edx, DWORD PTR _bOption$[esp+4]
	push	ecx
	mov	ecx, DWORD PTR _iData2$[esp+8]
	push	edx
	mov	edx, DWORD PTR _iData1$[esp+12]
	push	ecx
	mov	ecx, DWORD PTR _eTask$[esp+16]
	push	edx
	push	ecx
	mov	ecx, eax
	call	?doTask@CvCity@@QAE?AW4CityTaskResult@@W4TaskTypes@@HH_N111@Z ; CvCity::doTask
$LN1@ResponseCi:

; 172  : 	}
; 173  : }

	ret	40					; 00000028H
?ResponseCityDoTask@CvDllNetMessageHandler@@UAGXW4PlayerTypes@@HW4TaskTypes@@HH_N222@Z ENDP ; CvDllNetMessageHandler::ResponseCityDoTask
_TEXT	ENDS
EXTRN	?popOrder@CvCity@@QAEXH_N0@Z:PROC		; CvCity::popOrder
; Function compile flags: /Ogtpy
;	COMDAT ?ResponseCityPopOrder@CvDllNetMessageHandler@@UAGXW4PlayerTypes@@HH@Z
_TEXT	SEGMENT
_this$ = 8						; size = 4
_ePlayer$ = 12						; size = 4
_iCityID$ = 16						; size = 4
_iNum$ = 20						; size = 4
?ResponseCityPopOrder@CvDllNetMessageHandler@@UAGXW4PlayerTypes@@HH@Z PROC ; CvDllNetMessageHandler::ResponseCityPopOrder, COMDAT

; 177  : 	CvPlayerAI& kPlayer = GET_PLAYER(ePlayer);

	mov	ecx, DWORD PTR _ePlayer$[esp-4]

; 178  : 	CvCity* pkCity = kPlayer.getCity(iCityID);

	mov	eax, DWORD PTR _iCityID$[esp-4]
	imul	ecx, 63236				; 0000f704H
	add	ecx, DWORD PTR ?m_aPlayers@CvPlayerAI@@1PAV1@A ; CvPlayerAI::m_aPlayers
	push	eax
	call	?getCity@CvPlayer@@QAEPAVCvCity@@H@Z	; CvPlayer::getCity

; 179  : 	if(pkCity != NULL)

	test	eax, eax
	je	SHORT $LN1@ResponseCi@2

; 180  : 	{
; 181  : 		pkCity->popOrder(iNum);

	mov	ecx, DWORD PTR _iNum$[esp-4]
	push	0
	push	0
	push	ecx
	mov	ecx, eax
	call	?popOrder@CvCity@@QAEXH_N0@Z		; CvCity::popOrder
$LN1@ResponseCi@2:

; 182  : 	}
; 183  : }

	ret	16					; 00000010H
?ResponseCityPopOrder@CvDllNetMessageHandler@@UAGXW4PlayerTypes@@HH@Z ENDP ; CvDllNetMessageHandler::ResponseCityPopOrder
_TEXT	ENDS
EXTRN	?Purchase@CvCity@@QAEXW4UnitTypes@@W4BuildingTypes@@W4ProjectTypes@@W4YieldTypes@@@Z:PROC ; CvCity::Purchase
; Function compile flags: /Ogtpy
;	COMDAT ?ResponseCityPurchase@CvDllNetMessageHandler@@UAGXW4PlayerTypes@@HW4UnitTypes@@W4BuildingTypes@@W4ProjectTypes@@H@Z
_TEXT	SEGMENT
_this$ = 8						; size = 4
_ePlayer$ = 12						; size = 4
_iCityID$ = 16						; size = 4
_eUnitType$ = 20					; size = 4
_eBuildingType$ = 24					; size = 4
_eProjectType$ = 28					; size = 4
_ePurchaseYield$ = 32					; size = 4
?ResponseCityPurchase@CvDllNetMessageHandler@@UAGXW4PlayerTypes@@HW4UnitTypes@@W4BuildingTypes@@W4ProjectTypes@@H@Z PROC ; CvDllNetMessageHandler::ResponseCityPurchase, COMDAT

; 192  : 	CvPlayerAI& kPlayer = GET_PLAYER(ePlayer);

	mov	ecx, DWORD PTR _ePlayer$[esp-4]

; 193  : 	CvCity* pkCity = kPlayer.getCity(iCityID);

	mov	eax, DWORD PTR _iCityID$[esp-4]
	imul	ecx, 63236				; 0000f704H
	add	ecx, DWORD PTR ?m_aPlayers@CvPlayerAI@@1PAV1@A ; CvPlayerAI::m_aPlayers
	push	eax
	call	?getCity@CvPlayer@@QAEPAVCvCity@@H@Z	; CvPlayer::getCity

; 194  : 	if(pkCity && ePurchaseYield >= -1 && ePurchaseYield < NUM_YIELD_TYPES)

	test	eax, eax
	je	SHORT $LN1@ResponseCi@3
	mov	ecx, DWORD PTR _ePurchaseYield$[esp-4]
	lea	edx, DWORD PTR [ecx+1]
	cmp	edx, 6
	ja	SHORT $LN1@ResponseCi@3

; 195  : 	{
; 196  : 		pkCity->Purchase(eUnitType, eBuildingType, eProjectType, static_cast<YieldTypes>(ePurchaseYield));

	mov	edx, DWORD PTR _eBuildingType$[esp-4]
	push	ecx
	mov	ecx, DWORD PTR _eProjectType$[esp]
	push	ecx
	mov	ecx, DWORD PTR _eUnitType$[esp+4]
	push	edx
	push	ecx
	mov	ecx, eax
	call	?Purchase@CvCity@@QAEXW4UnitTypes@@W4BuildingTypes@@W4ProjectTypes@@W4YieldTypes@@@Z ; CvCity::Purchase
$LN1@ResponseCi@3:

; 197  : 	}
; 198  : }

	ret	28					; 0000001cH
?ResponseCityPurchase@CvDllNetMessageHandler@@UAGXW4PlayerTypes@@HW4UnitTypes@@W4BuildingTypes@@W4ProjectTypes@@H@Z ENDP ; CvDllNetMessageHandler::ResponseCityPurchase
_TEXT	ENDS
EXTRN	?pushOrder@CvCity@@QAEXW4OrderTypes@@HH_N111@Z:PROC ; CvCity::pushOrder
; Function compile flags: /Ogtpy
;	COMDAT ?ResponseCityPushOrder@CvDllNetMessageHandler@@UAGXW4PlayerTypes@@HW4OrderTypes@@H_N22@Z
_TEXT	SEGMENT
_this$ = 8						; size = 4
_ePlayer$ = 12						; size = 4
_iCityID$ = 16						; size = 4
_eOrder$ = 20						; size = 4
_iData$ = 24						; size = 4
_bAlt$ = 28						; size = 1
_bShift$ = 32						; size = 1
_bCtrl$ = 36						; size = 1
?ResponseCityPushOrder@CvDllNetMessageHandler@@UAGXW4PlayerTypes@@HW4OrderTypes@@H_N22@Z PROC ; CvDllNetMessageHandler::ResponseCityPushOrder, COMDAT

; 202  : 	CvPlayerAI& kPlayer = GET_PLAYER(ePlayer);

	mov	ecx, DWORD PTR _ePlayer$[esp-4]

; 203  : 	CvCity* pkCity = kPlayer.getCity(iCityID);

	mov	eax, DWORD PTR _iCityID$[esp-4]
	imul	ecx, 63236				; 0000f704H
	add	ecx, DWORD PTR ?m_aPlayers@CvPlayerAI@@1PAV1@A ; CvPlayerAI::m_aPlayers
	push	eax
	call	?getCity@CvPlayer@@QAEPAVCvCity@@H@Z	; CvPlayer::getCity

; 204  : 	if(pkCity != NULL)

	test	eax, eax
	je	SHORT $LN1@ResponseCi@4

; 205  : 	{
; 206  : 		pkCity->pushOrder(eOrder, iData, -1, bAlt, bShift, bCtrl);

	mov	ecx, DWORD PTR _bCtrl$[esp-4]
	mov	edx, DWORD PTR _bShift$[esp-4]
	push	0
	push	ecx
	mov	ecx, DWORD PTR _bAlt$[esp+4]
	push	edx
	mov	edx, DWORD PTR _iData$[esp+8]
	push	ecx
	mov	ecx, DWORD PTR _eOrder$[esp+12]
	push	-1
	push	edx
	push	ecx
	mov	ecx, eax
	call	?pushOrder@CvCity@@QAEXW4OrderTypes@@HH_N111@Z ; CvCity::pushOrder
$LN1@ResponseCi@4:

; 207  : 	}
; 208  : }

	ret	32					; 00000020H
?ResponseCityPushOrder@CvDllNetMessageHandler@@UAGXW4PlayerTypes@@HW4OrderTypes@@H_N22@Z ENDP ; CvDllNetMessageHandler::ResponseCityPushOrder
_TEXT	ENDS
EXTRN	?swapOrder@CvCity@@QAEXH@Z:PROC			; CvCity::swapOrder
; Function compile flags: /Ogtpy
;	COMDAT ?ResponseCitySwapOrder@CvDllNetMessageHandler@@UAGXW4PlayerTypes@@HH@Z
_TEXT	SEGMENT
_this$ = 8						; size = 4
_ePlayer$ = 12						; size = 4
_iCityID$ = 16						; size = 4
_iNum$ = 20						; size = 4
?ResponseCitySwapOrder@CvDllNetMessageHandler@@UAGXW4PlayerTypes@@HH@Z PROC ; CvDllNetMessageHandler::ResponseCitySwapOrder, COMDAT

; 212  : 	CvPlayerAI& kPlayer = GET_PLAYER(ePlayer);

	mov	ecx, DWORD PTR _ePlayer$[esp-4]

; 213  : 	CvCity* pkCity = kPlayer.getCity(iCityID);

	mov	eax, DWORD PTR _iCityID$[esp-4]
	imul	ecx, 63236				; 0000f704H
	add	ecx, DWORD PTR ?m_aPlayers@CvPlayerAI@@1PAV1@A ; CvPlayerAI::m_aPlayers
	push	eax
	call	?getCity@CvPlayer@@QAEPAVCvCity@@H@Z	; CvPlayer::getCity

; 214  : 	if(pkCity != NULL)

	test	eax, eax
	je	SHORT $LN1@ResponseCi@5

; 215  : 	{
; 216  : 		pkCity->swapOrder(iNum);

	mov	ecx, DWORD PTR _iNum$[esp-4]
	push	ecx
	mov	ecx, eax
	call	?swapOrder@CvCity@@QAEXH@Z		; CvCity::swapOrder
$LN1@ResponseCi@5:

; 217  : 	}
; 218  : }

	ret	16					; 00000010H
?ResponseCitySwapOrder@CvDllNetMessageHandler@@UAGXW4PlayerTypes@@HH@Z ENDP ; CvDllNetMessageHandler::ResponseCitySwapOrder
; Function compile flags: /Ogtpy
_TEXT	ENDS
;	COMDAT ?ResponseDestroyUnit@CvDllNetMessageHandler@@UAGXW4PlayerTypes@@H@Z
_TEXT	SEGMENT
_this$ = 8						; size = 4
_ePlayer$ = 12						; size = 4
_iUnitID$ = 16						; size = 4
?ResponseDestroyUnit@CvDllNetMessageHandler@@UAGXW4PlayerTypes@@H@Z PROC ; CvDllNetMessageHandler::ResponseDestroyUnit, COMDAT

; 231  : 	CvPlayerAI& kPlayer = GET_PLAYER(ePlayer);
; 232  : 	CvUnit* pkUnit = kPlayer.getUnit(iUnitID);

	mov	eax, DWORD PTR _iUnitID$[esp-4]
	push	esi
	mov	esi, DWORD PTR _ePlayer$[esp]
	mov	ecx, esi
	imul	ecx, 63236				; 0000f704H
	add	ecx, DWORD PTR ?m_aPlayers@CvPlayerAI@@1PAV1@A ; CvPlayerAI::m_aPlayers
	push	eax
	call	?getUnit@CvPlayer@@QAEPAVCvUnit@@H@Z	; CvPlayer::getUnit

; 233  : 
; 234  : 	if(pkUnit)

	test	eax, eax
	je	SHORT $LN1@ResponseDe

; 235  : 	{
; 236  : 		pkUnit->kill(true, ePlayer);

	push	esi
	push	1
	mov	ecx, eax
	call	?kill@CvUnit@@QAEX_NW4PlayerTypes@@@Z	; CvUnit::kill
$LN1@ResponseDe:
	pop	esi

; 237  : 	}
; 238  : }

	ret	12					; 0000000cH
?ResponseDestroyUnit@CvDllNetMessageHandler@@UAGXW4PlayerTypes@@H@Z ENDP ; CvDllNetMessageHandler::ResponseDestroyUnit
_TEXT	ENDS
EXTRN	?DoFromUIDiploEvent@CvDiplomacyAI@@QAEXW4PlayerTypes@@W4FromUIDiploEventTypes@@HH@Z:PROC ; CvDiplomacyAI::DoFromUIDiploEvent
EXTRN	?GetDiplomacyAI@CvPlayer@@QBEPAVCvDiplomacyAI@@XZ:PROC ; CvPlayer::GetDiplomacyAI
; Function compile flags: /Ogtpy
;	COMDAT ?ResponseDiplomacyFromUI@CvDllNetMessageHandler@@UAGXW4PlayerTypes@@0W4FromUIDiploEventTypes@@HH@Z
_TEXT	SEGMENT
_this$ = 8						; size = 4
_ePlayer$ = 12						; size = 4
_eOtherPlayer$ = 16					; size = 4
_eEvent$ = 20						; size = 4
_iArg1$ = 24						; size = 4
_iArg2$ = 28						; size = 4
?ResponseDiplomacyFromUI@CvDllNetMessageHandler@@UAGXW4PlayerTypes@@0W4FromUIDiploEventTypes@@HH@Z PROC ; CvDllNetMessageHandler::ResponseDiplomacyFromUI, COMDAT

; 242  : 	GET_PLAYER(eOtherPlayer).GetDiplomacyAI()->DoFromUIDiploEvent(ePlayer, eEvent, iArg1, iArg2);

	mov	ecx, DWORD PTR _eOtherPlayer$[esp-4]
	mov	eax, DWORD PTR _iArg2$[esp-4]
	imul	ecx, 63236				; 0000f704H
	mov	edx, DWORD PTR _iArg1$[esp-4]
	add	ecx, DWORD PTR ?m_aPlayers@CvPlayerAI@@1PAV1@A ; CvPlayerAI::m_aPlayers
	push	eax
	mov	eax, DWORD PTR _eEvent$[esp]
	push	edx
	mov	edx, DWORD PTR _ePlayer$[esp+4]
	push	eax
	push	edx
	call	?GetDiplomacyAI@CvPlayer@@QBEPAVCvDiplomacyAI@@XZ ; CvPlayer::GetDiplomacyAI
	mov	ecx, eax
	call	?DoFromUIDiploEvent@CvDiplomacyAI@@QAEXW4PlayerTypes@@W4FromUIDiploEventTypes@@HH@Z ; CvDiplomacyAI::DoFromUIDiploEvent

; 243  : }

	ret	24					; 00000018H
?ResponseDiplomacyFromUI@CvDllNetMessageHandler@@UAGXW4PlayerTypes@@0W4FromUIDiploEventTypes@@HH@Z ENDP ; CvDllNetMessageHandler::ResponseDiplomacyFromUI
_TEXT	ENDS
EXTRN	?nextUnit@CvPlayer@@QAEPAVCvUnit@@PAH_N@Z:PROC	; CvPlayer::nextUnit
EXTRN	?doCommand@CvUnit@@QAEXW4CommandTypes@@HH@Z:PROC ; CvUnit::doCommand
EXTRN	?firstUnit@CvPlayer@@QAEPAVCvUnit@@PAH_N@Z:PROC	; CvPlayer::firstUnit
EXTRN	?getUnitType@CvUnit@@QBE?BW4UnitTypes@@XZ:PROC	; CvUnit::getUnitType
EXTRN	?getAll@CvCommandInfo@@QBE_NXZ:PROC		; CvCommandInfo::getAll
EXTRN	?getCommandInfo@CvGlobals@@QAEPAVCvCommandInfo@@W4CommandTypes@@@Z:PROC ; CvGlobals::getCommandInfo
; Function compile flags: /Ogtpy
;	COMDAT ?ResponseDoCommand@CvDllNetMessageHandler@@UAGXW4PlayerTypes@@HW4CommandTypes@@HH_N@Z
_TEXT	SEGMENT
_this$ = 8						; size = 4
_eUnitType$222824 = 12					; size = 4
_ePlayer$ = 12						; size = 4
_iUnitID$ = 16						; size = 4
_eCommand$ = 20						; size = 4
_iData1$ = 24						; size = 4
_iData2$ = 28						; size = 4
_iLoop$222826 = 32					; size = 4
_bAlt$ = 32						; size = 1
?ResponseDoCommand@CvDllNetMessageHandler@@UAGXW4PlayerTypes@@HW4CommandTypes@@HH_N@Z PROC ; CvDllNetMessageHandler::ResponseDoCommand, COMDAT

; 255  : 	CvPlayerAI& kPlayer = GET_PLAYER(ePlayer);
; 256  : 	CvUnit* pkUnit = kPlayer.getUnit(iUnitID);

	mov	eax, DWORD PTR _iUnitID$[esp-4]
	push	esi
	push	edi
	mov	edi, DWORD PTR _ePlayer$[esp+4]
	imul	edi, 63236				; 0000f704H
	add	edi, DWORD PTR ?m_aPlayers@CvPlayerAI@@1PAV1@A ; CvPlayerAI::m_aPlayers
	push	eax
	mov	ecx, edi
	call	?getUnit@CvPlayer@@QAEPAVCvUnit@@H@Z	; CvPlayer::getUnit
	mov	esi, eax

; 257  : 
; 258  : 	if(pkUnit != NULL)

	test	esi, esi
	je	$LN1@ResponseDo

; 259  : 	{
; 260  : #ifdef AUI_WARNING_FIXES
; 261  : 		CvCommandInfo* pCommandInfo = GC.getCommandInfo(eCommand);
; 262  : 		if (bAlt && pCommandInfo && pCommandInfo->getAll())
; 263  : #else
; 264  : 		if(bAlt && GC.getCommandInfo(eCommand)->getAll())

	cmp	BYTE PTR _bAlt$[esp+4], 0
	je	$LN14@ResponseDo
	mov	ecx, DWORD PTR _eCommand$[esp+4]
	push	ecx
	mov	ecx, OFFSET ?gGlobals@@3VCvGlobals@@A	; gGlobals
	call	?getCommandInfo@CvGlobals@@QAEPAVCvCommandInfo@@W4CommandTypes@@@Z ; CvGlobals::getCommandInfo
	mov	ecx, eax
	call	?getAll@CvCommandInfo@@QBE_NXZ		; CvCommandInfo::getAll
	test	al, al
	je	SHORT $LN14@ResponseDo

; 265  : #endif
; 266  : 		{
; 267  : 			const UnitTypes eUnitType = pkUnit->getUnitType();

	mov	ecx, esi
	call	?getUnitType@CvUnit@@QBE?BW4UnitTypes@@XZ ; CvUnit::getUnitType

; 268  : 
; 269  : 			CvUnit* pkLoopUnit = NULL;
; 270  : 			int iLoop = 0;
; 271  : 
; 272  : 			for(pkLoopUnit = kPlayer.firstUnit(&iLoop); pkLoopUnit != NULL; pkLoopUnit = kPlayer.nextUnit(&iLoop))

	push	0
	lea	edx, DWORD PTR _iLoop$222826[esp+8]
	push	edx
	mov	ecx, edi
	mov	DWORD PTR _eUnitType$222824[esp+12], eax
	mov	DWORD PTR _iLoop$222826[esp+12], 0
	call	?firstUnit@CvPlayer@@QAEPAVCvUnit@@PAH_N@Z ; CvPlayer::firstUnit
	mov	esi, eax
	test	esi, esi
	je	SHORT $LN1@ResponseDo
	push	ebx
	mov	ebx, DWORD PTR _iData2$[esp+8]
	push	ebp
	mov	ebp, DWORD PTR _iData1$[esp+12]
	npad	2
$LL5@ResponseDo:

; 273  : 			{
; 274  : 				if(pkLoopUnit->getUnitType() == eUnitType)

	mov	ecx, esi
	call	?getUnitType@CvUnit@@QBE?BW4UnitTypes@@XZ ; CvUnit::getUnitType
	cmp	eax, DWORD PTR _eUnitType$222824[esp+12]
	jne	SHORT $LN4@ResponseDo

; 275  : 				{
; 276  : 					pkLoopUnit->doCommand(eCommand, iData1, iData2);

	mov	eax, DWORD PTR _eCommand$[esp+12]
	push	ebx
	push	ebp
	push	eax
	mov	ecx, esi
	call	?doCommand@CvUnit@@QAEXW4CommandTypes@@HH@Z ; CvUnit::doCommand
$LN4@ResponseDo:
	push	0
	lea	ecx, DWORD PTR _iLoop$222826[esp+16]
	push	ecx
	mov	ecx, edi
	call	?nextUnit@CvPlayer@@QAEPAVCvUnit@@PAH_N@Z ; CvPlayer::nextUnit
	mov	esi, eax
	test	esi, esi
	jne	SHORT $LL5@ResponseDo
	pop	ebp
	pop	ebx
	pop	edi
	pop	esi

; 283  : 		}
; 284  : 	}
; 285  : }

	ret	28					; 0000001cH
$LN14@ResponseDo:

; 277  : 				}
; 278  : 			}
; 279  : 		}
; 280  : 		else
; 281  : 		{
; 282  : 			pkUnit->doCommand(eCommand, iData1, iData2);

	mov	edx, DWORD PTR _iData2$[esp+4]
	mov	eax, DWORD PTR _iData1$[esp+4]
	mov	ecx, DWORD PTR _eCommand$[esp+4]
	push	edx
	push	eax
	push	ecx
	mov	ecx, esi
	call	?doCommand@CvUnit@@QAEXW4CommandTypes@@HH@Z ; CvUnit::doCommand
$LN1@ResponseDo:
	pop	edi
	pop	esi

; 283  : 		}
; 284  : 	}
; 285  : }

	ret	28					; 0000001cH
?ResponseDoCommand@CvDllNetMessageHandler@@UAGXW4PlayerTypes@@HW4CommandTypes@@HH_N@Z ENDP ; CvDllNetMessageHandler::ResponseDoCommand
_TEXT	ENDS
EXTRN	?makeExtendedGame@CvPlayer@@QAEXXZ:PROC		; CvPlayer::makeExtendedGame
; Function compile flags: /Ogtpy
;	COMDAT ?ResponseExtendedGame@CvDllNetMessageHandler@@UAGXW4PlayerTypes@@@Z
_TEXT	SEGMENT
_this$ = 8						; size = 4
_ePlayer$ = 12						; size = 4
?ResponseExtendedGame@CvDllNetMessageHandler@@UAGXW4PlayerTypes@@@Z PROC ; CvDllNetMessageHandler::ResponseExtendedGame, COMDAT

; 289  : 	GET_PLAYER(ePlayer).makeExtendedGame();

	mov	ecx, DWORD PTR _ePlayer$[esp-4]
	imul	ecx, 63236				; 0000f704H
	add	ecx, DWORD PTR ?m_aPlayers@CvPlayerAI@@1PAV1@A ; CvPlayerAI::m_aPlayers
	call	?makeExtendedGame@CvPlayer@@QAEXXZ	; CvPlayer::makeExtendedGame

; 290  : }

	ret	8
?ResponseExtendedGame@CvDllNetMessageHandler@@UAGXW4PlayerTypes@@@Z ENDP ; CvDllNetMessageHandler::ResponseExtendedGame
_TEXT	ENDS
EXTRN	?AddReformationBelief@CvGameReligions@@QAEXW4PlayerTypes@@W4ReligionTypes@@W4BeliefTypes@@@Z:PROC ; CvGameReligions::AddReformationBelief
EXTRN	?GetReligionCreatedByPlayer@CvPlayerReligions@@QBE?AW4ReligionTypes@@XZ:PROC ; CvPlayerReligions::GetReligionCreatedByPlayer
EXTRN	?HasCreatedReligion@CvPlayerReligions@@QBE_NXZ:PROC ; CvPlayerReligions::HasCreatedReligion
EXTRN	?GetReligions@CvPlayer@@QBEPAVCvPlayerReligions@@XZ:PROC ; CvPlayer::GetReligions
EXTRN	?HasAddedReformationBelief@CvGameReligions@@QBE_NW4PlayerTypes@@@Z:PROC ; CvGameReligions::HasAddedReformationBelief
EXTRN	?IsReformationBelief@CvBeliefEntry@@QBE_NXZ:PROC ; CvBeliefEntry::IsReformationBelief
EXTRN	?NotifyPlayer@CvGameReligions@@SAXW4PlayerTypes@@W4FOUNDING_RESULT@1@@Z:PROC ; CvGameReligions::NotifyPlayer
EXTRN	?FoundPantheon@CvGameReligions@@QAEXW4PlayerTypes@@W4BeliefTypes@@@Z:PROC ; CvGameReligions::FoundPantheon
EXTRN	?IsPantheonBeliefAvailable@CvGameReligions@@QAE_NW4BeliefTypes@@@Z:PROC ; CvGameReligions::IsPantheonBeliefAvailable
EXTRN	?CanCreatePantheon@CvGameReligions@@QAE?AW4FOUNDING_RESULT@1@W4PlayerTypes@@_N@Z:PROC ; CvGameReligions::CanCreatePantheon
EXTRN	?IsPantheonBelief@CvBeliefEntry@@QBE_NXZ:PROC	; CvBeliefEntry::IsPantheonBelief
EXTRN	?GetEntry@CvBeliefXMLEntries@@QAEPAVCvBeliefEntry@@H@Z:PROC ; CvBeliefXMLEntries::GetEntry
EXTRN	?GetGameBeliefs@CvGlobals@@QBEPAVCvBeliefXMLEntries@@XZ:PROC ; CvGlobals::GetGameBeliefs
EXTRN	?GetGameReligions@CvGame@@QAEPAVCvGameReligions@@XZ:PROC ; CvGame::GetGameReligions
; Function compile flags: /Ogtpy
;	COMDAT ?ResponseFoundPantheon@CvDllNetMessageHandler@@UAGXW4PlayerTypes@@W4BeliefTypes@@@Z
_TEXT	SEGMENT
_this$ = 8						; size = 4
_ePlayer$ = 12						; size = 4
_eBelief$ = 16						; size = 4
?ResponseFoundPantheon@CvDllNetMessageHandler@@UAGXW4PlayerTypes@@W4BeliefTypes@@@Z PROC ; CvDllNetMessageHandler::ResponseFoundPantheon, COMDAT

; 294  : 	CvGame& kGame(GC.getGame());
; 295  : 	CvGameReligions* pkGameReligions(kGame.GetGameReligions());

	mov	ecx, DWORD PTR ?gGlobals@@3VCvGlobals@@A+48
	push	ebx
	push	ebp
	push	esi
	call	?GetGameReligions@CvGame@@QAEPAVCvGameReligions@@XZ ; CvGame::GetGameReligions

; 296  : 	CvBeliefXMLEntries* pkBeliefs = GC.GetGameBeliefs();

	mov	ecx, OFFSET ?gGlobals@@3VCvGlobals@@A	; gGlobals
	mov	esi, eax
	call	?GetGameBeliefs@CvGlobals@@QBEPAVCvBeliefXMLEntries@@XZ ; CvGlobals::GetGameBeliefs

; 297  : 	CvBeliefEntry* pEntry = pkBeliefs->GetEntry((int)eBelief);

	mov	ebp, DWORD PTR _eBelief$[esp+8]
	push	ebp
	mov	ecx, eax
	call	?GetEntry@CvBeliefXMLEntries@@QAEPAVCvBeliefEntry@@H@Z ; CvBeliefXMLEntries::GetEntry
	mov	ebx, eax

; 298  : 
; 299  : 	// Pantheon belief, or adding one through Reformation?
; 300  : 	if (pEntry && ePlayer != NO_PLAYER)

	test	ebx, ebx
	je	$LN1@ResponseFo
	push	edi
	mov	edi, DWORD PTR _ePlayer$[esp+12]
	cmp	edi, -1
	je	$LN16@ResponseFo

; 301  : 	{
; 302  : 		if (pEntry->IsPantheonBelief())

	mov	ecx, ebx
	call	?IsPantheonBelief@CvBeliefEntry@@QBE_NXZ ; CvBeliefEntry::IsPantheonBelief
	test	al, al
	je	SHORT $LN8@ResponseFo

; 303  : 		{
; 304  : 			CvGameReligions::FOUNDING_RESULT eResult = pkGameReligions->CanCreatePantheon(ePlayer, true);

	push	1
	push	edi
	mov	ecx, esi
	call	?CanCreatePantheon@CvGameReligions@@QAE?AW4FOUNDING_RESULT@1@W4PlayerTypes@@_N@Z ; CvGameReligions::CanCreatePantheon

; 305  : 			if(eResult == CvGameReligions::FOUNDING_OK)

	test	eax, eax
	jne	SHORT $LN7@ResponseFo

; 306  : 			{
; 307  : 				if(pkGameReligions->IsPantheonBeliefAvailable(eBelief))

	push	ebp
	mov	ecx, esi
	call	?IsPantheonBeliefAvailable@CvGameReligions@@QAE_NW4BeliefTypes@@@Z ; CvGameReligions::IsPantheonBeliefAvailable
	test	al, al
	je	SHORT $LN6@ResponseFo

; 308  : 				{
; 309  : 					pkGameReligions->FoundPantheon(ePlayer, eBelief);

	push	ebp
	push	edi
	mov	ecx, esi
	call	?FoundPantheon@CvGameReligions@@QAEXW4PlayerTypes@@W4BeliefTypes@@@Z ; CvGameReligions::FoundPantheon
	pop	edi
	pop	esi
	pop	ebp
	pop	ebx

; 335  : 			}
; 336  : #ifdef AUI_RELIGION_FIX_NO_BELIEFS_AVAILABLE_CHECK_FOR_NON_PANTHEON_MOVED
; 337  : 			else
; 338  : 			{
; 339  : 				CvGameReligions::NotifyPlayer(ePlayer, eResult);
; 340  : 			}
; 341  : #endif
; 342  : 		}
; 343  : 	}
; 344  : }

	ret	12					; 0000000cH
$LN6@ResponseFo:

; 310  : 				}
; 311  : 				else
; 312  : 				{
; 313  : 					CvGameReligions::NotifyPlayer(ePlayer, CvGameReligions::FOUNDING_BELIEF_IN_USE);

	push	1
	push	edi
	call	?NotifyPlayer@CvGameReligions@@SAXW4PlayerTypes@@W4FOUNDING_RESULT@1@@Z ; CvGameReligions::NotifyPlayer
	add	esp, 8
	pop	edi
	pop	esi
	pop	ebp
	pop	ebx

; 335  : 			}
; 336  : #ifdef AUI_RELIGION_FIX_NO_BELIEFS_AVAILABLE_CHECK_FOR_NON_PANTHEON_MOVED
; 337  : 			else
; 338  : 			{
; 339  : 				CvGameReligions::NotifyPlayer(ePlayer, eResult);
; 340  : 			}
; 341  : #endif
; 342  : 		}
; 343  : 	}
; 344  : }

	ret	12					; 0000000cH
$LN7@ResponseFo:

; 314  : 				}
; 315  : 			}
; 316  : 			else
; 317  : 			{
; 318  : 				CvGameReligions::NotifyPlayer(ePlayer, eResult);

	push	eax
	push	edi
	call	?NotifyPlayer@CvGameReligions@@SAXW4PlayerTypes@@W4FOUNDING_RESULT@1@@Z ; CvGameReligions::NotifyPlayer
	add	esp, 8
	pop	edi
	pop	esi
	pop	ebp
	pop	ebx

; 335  : 			}
; 336  : #ifdef AUI_RELIGION_FIX_NO_BELIEFS_AVAILABLE_CHECK_FOR_NON_PANTHEON_MOVED
; 337  : 			else
; 338  : 			{
; 339  : 				CvGameReligions::NotifyPlayer(ePlayer, eResult);
; 340  : 			}
; 341  : #endif
; 342  : 		}
; 343  : 	}
; 344  : }

	ret	12					; 0000000cH
$LN8@ResponseFo:

; 319  : 			}
; 320  : 		}
; 321  : 		else if (pEntry->IsReformationBelief())

	mov	ecx, ebx
	call	?IsReformationBelief@CvBeliefEntry@@QBE_NXZ ; CvBeliefEntry::IsReformationBelief
	test	al, al
	je	SHORT $LN16@ResponseFo

; 322  : 		{
; 323  : #ifdef AUI_RELIGION_FIX_NO_BELIEFS_AVAILABLE_CHECK_FOR_NON_PANTHEON_MOVED
; 324  : 			CvGameReligions::FOUNDING_RESULT eResult = pkGameReligions->CanAddReformationBelief(ePlayer, eBelief);
; 325  : 			if (eResult == CvGameReligions::FOUNDING_OK)
; 326  : 			{
; 327  : 				ReligionTypes eReligion = GET_PLAYER(ePlayer).GetReligions()->GetReligionCreatedByPlayer();
; 328  : #else
; 329  : 			CvPlayerAI& kPlayer = GET_PLAYER(ePlayer);

	mov	ebx, edi
	imul	ebx, 63236				; 0000f704H
	add	ebx, DWORD PTR ?m_aPlayers@CvPlayerAI@@1PAV1@A ; CvPlayerAI::m_aPlayers

; 330  : 			if (!pkGameReligions->HasAddedReformationBelief(ePlayer) && kPlayer.GetReligions()->HasCreatedReligion())

	push	edi
	mov	ecx, esi
	call	?HasAddedReformationBelief@CvGameReligions@@QBE_NW4PlayerTypes@@@Z ; CvGameReligions::HasAddedReformationBelief
	test	al, al
	jne	SHORT $LN16@ResponseFo
	mov	ecx, ebx
	call	?GetReligions@CvPlayer@@QBEPAVCvPlayerReligions@@XZ ; CvPlayer::GetReligions
	mov	ecx, eax
	call	?HasCreatedReligion@CvPlayerReligions@@QBE_NXZ ; CvPlayerReligions::HasCreatedReligion
	test	al, al
	je	SHORT $LN16@ResponseFo

; 331  : 			{
; 332  : 				ReligionTypes eReligion = kPlayer.GetReligions()->GetReligionCreatedByPlayer();

	mov	ecx, ebx
	call	?GetReligions@CvPlayer@@QBEPAVCvPlayerReligions@@XZ ; CvPlayer::GetReligions
	mov	ecx, eax
	call	?GetReligionCreatedByPlayer@CvPlayerReligions@@QBE?AW4ReligionTypes@@XZ ; CvPlayerReligions::GetReligionCreatedByPlayer

; 333  : #endif
; 334  : 				pkGameReligions->AddReformationBelief(ePlayer, eReligion, eBelief);

	push	ebp
	push	eax
	push	edi
	mov	ecx, esi
	call	?AddReformationBelief@CvGameReligions@@QAEXW4PlayerTypes@@W4ReligionTypes@@W4BeliefTypes@@@Z ; CvGameReligions::AddReformationBelief
$LN16@ResponseFo:
	pop	edi
$LN1@ResponseFo:
	pop	esi
	pop	ebp
	pop	ebx

; 335  : 			}
; 336  : #ifdef AUI_RELIGION_FIX_NO_BELIEFS_AVAILABLE_CHECK_FOR_NON_PANTHEON_MOVED
; 337  : 			else
; 338  : 			{
; 339  : 				CvGameReligions::NotifyPlayer(ePlayer, eResult);
; 340  : 			}
; 341  : #endif
; 342  : 		}
; 343  : 	}
; 344  : }

	ret	12					; 0000000cH
?ResponseFoundPantheon@CvDllNetMessageHandler@@UAGXW4PlayerTypes@@W4BeliefTypes@@@Z ENDP ; CvDllNetMessageHandler::ResponseFoundPantheon
_TEXT	ENDS
EXTRN	?MoveSpyTo@CvPlayerEspionage@@QAE_NPAVCvCity@@I_N@Z:PROC ; CvPlayerEspionage::MoveSpyTo
EXTRN	?ExtractSpyFromCity@CvPlayerEspionage@@QAE_NI@Z:PROC ; CvPlayerEspionage::ExtractSpyFromCity
EXTRN	?GetEspionage@CvPlayer@@QBEPAVCvPlayerEspionage@@XZ:PROC ; CvPlayer::GetEspionage
; Function compile flags: /Ogtpy
;	COMDAT ?ResponseMoveSpy@CvDllNetMessageHandler@@UAGXW4PlayerTypes@@HHH_N@Z
_TEXT	SEGMENT
_this$ = 8						; size = 4
_ePlayer$ = 12						; size = 4
_iSpyIndex$ = 16					; size = 4
_iTargetPlayer$ = 20					; size = 4
_iTargetCity$ = 24					; size = 4
_bAsDiplomat$ = 28					; size = 1
?ResponseMoveSpy@CvDllNetMessageHandler@@UAGXW4PlayerTypes@@HHH_N@Z PROC ; CvDllNetMessageHandler::ResponseMoveSpy, COMDAT

; 440  : 	CvPlayerAI& kPlayer = GET_PLAYER(ePlayer);

	mov	ecx, DWORD PTR _ePlayer$[esp-4]
	imul	ecx, 63236				; 0000f704H
	add	ecx, DWORD PTR ?m_aPlayers@CvPlayerAI@@1PAV1@A ; CvPlayerAI::m_aPlayers
	push	esi

; 441  : 	CvPlayerEspionage* pPlayerEspionage = kPlayer.GetEspionage();

	call	?GetEspionage@CvPlayer@@QBEPAVCvPlayerEspionage@@XZ ; CvPlayer::GetEspionage
	mov	esi, eax

; 442  : 
; 443  : 	if(pPlayerEspionage)

	test	esi, esi
	je	SHORT $LN1@ResponseMo

; 444  : 	{
; 445  : 		if(iTargetCity == -1)

	mov	ecx, DWORD PTR _iTargetCity$[esp]
	cmp	ecx, -1
	jne	SHORT $LN4@ResponseMo

; 446  : 		{
; 447  : 			pPlayerEspionage->ExtractSpyFromCity(iSpyIndex);

	mov	eax, DWORD PTR _iSpyIndex$[esp]
	push	eax
	mov	ecx, esi
	call	?ExtractSpyFromCity@CvPlayerEspionage@@QAE_NI@Z ; CvPlayerEspionage::ExtractSpyFromCity

; 448  : 			GC.GetEngineUserInterface()->setDirty(EspionageScreen_DIRTY_BIT, true);

	mov	ecx, DWORD PTR ?gGlobals@@3VCvGlobals@@A+8568
	mov	edx, DWORD PTR [ecx]
	mov	eax, DWORD PTR [edx+260]
	push	1
	push	34					; 00000022H
	call	eax
	pop	esi

; 462  : 				}
; 463  : 			}
; 464  : 		}
; 465  : 	}
; 466  : }

	ret	24					; 00000018H
$LN4@ResponseMo:

; 449  : 		}
; 450  : 		else
; 451  : 		{
; 452  : 			CvAssertMsg(iTargetPlayer != -1, "iTargetPlayer is -1");
; 453  : 			if(iTargetPlayer != -1)

	mov	eax, DWORD PTR _iTargetPlayer$[esp]
	cmp	eax, -1
	je	SHORT $LN1@ResponseMo

; 454  : 			{
; 455  : 				PlayerTypes eTargetPlayer = (PlayerTypes)iTargetPlayer;
; 456  : 				CvCity* pCity = GET_PLAYER(eTargetPlayer).getCity(iTargetCity);

	imul	eax, 63236				; 0000f704H
	add	eax, DWORD PTR ?m_aPlayers@CvPlayerAI@@1PAV1@A ; CvPlayerAI::m_aPlayers
	push	ecx
	mov	ecx, eax
	call	?getCity@CvPlayer@@QAEPAVCvCity@@H@Z	; CvPlayer::getCity

; 457  : 				CvAssertMsg(pCity, "pCity is null");
; 458  : 				if(pCity)

	test	eax, eax
	je	SHORT $LN1@ResponseMo

; 459  : 				{
; 460  : 					pPlayerEspionage->MoveSpyTo(pCity, iSpyIndex, bAsDiplomat);

	mov	ecx, DWORD PTR _bAsDiplomat$[esp]
	mov	edx, DWORD PTR _iSpyIndex$[esp]
	push	ecx
	push	edx
	push	eax
	mov	ecx, esi
	call	?MoveSpyTo@CvPlayerEspionage@@QAE_NPAVCvCity@@I_N@Z ; CvPlayerEspionage::MoveSpyTo

; 461  : 					GC.GetEngineUserInterface()->setDirty(EspionageScreen_DIRTY_BIT, true);

	mov	ecx, DWORD PTR ?gGlobals@@3VCvGlobals@@A+8568
	mov	eax, DWORD PTR [ecx]
	mov	edx, DWORD PTR [eax+260]
	push	1
	push	34					; 00000022H
	call	edx
$LN1@ResponseMo:
	pop	esi

; 462  : 				}
; 463  : 			}
; 464  : 		}
; 465  : 	}
; 466  : }

	ret	24					; 00000018H
?ResponseMoveSpy@CvDllNetMessageHandler@@UAGXW4PlayerTypes@@HHH_N@Z ENDP ; CvDllNetMessageHandler::ResponseMoveSpy
_TEXT	ENDS
EXTRN	?AttemptCoup@CvPlayerEspionage@@QAE_NI@Z:PROC	; CvPlayerEspionage::AttemptCoup
; Function compile flags: /Ogtpy
;	COMDAT ?ResponseStageCoup@CvDllNetMessageHandler@@UAGXW4PlayerTypes@@H@Z
_TEXT	SEGMENT
_this$ = 8						; size = 4
_eSpyPlayer$ = 12					; size = 4
_iSpyIndex$ = 16					; size = 4
?ResponseStageCoup@CvDllNetMessageHandler@@UAGXW4PlayerTypes@@H@Z PROC ; CvDllNetMessageHandler::ResponseStageCoup, COMDAT

; 470  : 	CvAssertMsg(eSpyPlayer != NO_PLAYER, "eSpyPlayer invalid");
; 471  : 	CvAssertMsg(iSpyIndex >= 0, "iSpyIndex invalid");
; 472  : 
; 473  : 	CvPlayerAI& kPlayer = GET_PLAYER(eSpyPlayer);

	mov	ecx, DWORD PTR _eSpyPlayer$[esp-4]
	imul	ecx, 63236				; 0000f704H
	add	ecx, DWORD PTR ?m_aPlayers@CvPlayerAI@@1PAV1@A ; CvPlayerAI::m_aPlayers

; 474  : 	CvPlayerEspionage* pPlayerEspionage = kPlayer.GetEspionage();

	call	?GetEspionage@CvPlayer@@QBEPAVCvPlayerEspionage@@XZ ; CvPlayer::GetEspionage

; 475  : 
; 476  : 	CvAssertMsg(pPlayerEspionage, "pPlayerEspionage is null");
; 477  : 	if(pPlayerEspionage)

	test	eax, eax
	je	SHORT $LN1@ResponseSt

; 478  : 	{
; 479  : #ifdef AUI_WARNING_FIXES
; 480  : 		pPlayerEspionage->AttemptCoup(iSpyIndex);
; 481  : #else
; 482  : 		bool bCoupSuccess = pPlayerEspionage->AttemptCoup(iSpyIndex);

	mov	ecx, DWORD PTR _iSpyIndex$[esp-4]
	push	ecx
	mov	ecx, eax
	call	?AttemptCoup@CvPlayerEspionage@@QAE_NI@Z ; CvPlayerEspionage::AttemptCoup
$LN1@ResponseSt:

; 483  : #endif
; 484  : 	}
; 485  : }

	ret	12					; 0000000cH
?ResponseStageCoup@CvDllNetMessageHandler@@UAGXW4PlayerTypes@@H@Z ENDP ; CvDllNetMessageHandler::ResponseStageCoup
_TEXT	ENDS
EXTRN	?SetFaithPurchaseIndex@CvPlayer@@QAEXH@Z:PROC	; CvPlayer::SetFaithPurchaseIndex
EXTRN	?SetFaithPurchaseType@CvPlayer@@QAEXW4FaithPurchaseTypes@@@Z:PROC ; CvPlayer::SetFaithPurchaseType
; Function compile flags: /Ogtpy
;	COMDAT ?ResponseFaithPurchase@CvDllNetMessageHandler@@UAGXW4PlayerTypes@@W4FaithPurchaseTypes@@H@Z
_TEXT	SEGMENT
_this$ = 8						; size = 4
_ePlayer$ = 12						; size = 4
_eFaithPurchaseType$ = 16				; size = 4
_iFaithPurchaseIndex$ = 20				; size = 4
?ResponseFaithPurchase@CvDllNetMessageHandler@@UAGXW4PlayerTypes@@W4FaithPurchaseTypes@@H@Z PROC ; CvDllNetMessageHandler::ResponseFaithPurchase, COMDAT

; 489  : 	CvAssertMsg(ePlayer != NO_PLAYER, "ePlayer invalid");
; 490  : 	CvAssertMsg(eFaithPurchaseType > -1, "Faith Purchase Type invalid");
; 491  : 	CvAssertMsg(iFaithPurchaseIndex > -1, "Faith Purchase Index invalid");
; 492  : 
; 493  : 	CvPlayerAI& kPlayer = GET_PLAYER(ePlayer);
; 494  : 	kPlayer.SetFaithPurchaseType(eFaithPurchaseType);

	mov	eax, DWORD PTR _eFaithPurchaseType$[esp-4]
	push	esi
	mov	esi, DWORD PTR _ePlayer$[esp]
	imul	esi, 63236				; 0000f704H
	add	esi, DWORD PTR ?m_aPlayers@CvPlayerAI@@1PAV1@A ; CvPlayerAI::m_aPlayers
	push	eax
	mov	ecx, esi
	call	?SetFaithPurchaseType@CvPlayer@@QAEXW4FaithPurchaseTypes@@@Z ; CvPlayer::SetFaithPurchaseType

; 495  : 	kPlayer.SetFaithPurchaseIndex(iFaithPurchaseIndex);

	mov	ecx, DWORD PTR _iFaithPurchaseIndex$[esp]
	push	ecx
	mov	ecx, esi
	call	?SetFaithPurchaseIndex@CvPlayer@@QAEXH@Z ; CvPlayer::SetFaithPurchaseIndex
	pop	esi

; 496  : }

	ret	16					; 00000010H
?ResponseFaithPurchase@CvDllNetMessageHandler@@UAGXW4PlayerTypes@@W4FaithPurchaseTypes@@H@Z ENDP ; CvDllNetMessageHandler::ResponseFaithPurchase
_TEXT	ENDS
EXTRN	?DoVoteEnact@CvLeague@@QAEXHW4PlayerTypes@@HH@Z:PROC ; CvLeague::DoVoteEnact
EXTRN	?GetLeague@CvGameLeagues@@QAEPAVCvLeague@@W4LeagueTypes@@@Z:PROC ; CvGameLeagues::GetLeague
EXTRN	?GetGameLeagues@CvGame@@QAEPAVCvGameLeagues@@XZ:PROC ; CvGame::GetGameLeagues
; Function compile flags: /Ogtpy
;	COMDAT ?ResponseLeagueVoteEnact@CvDllNetMessageHandler@@UAGXW4LeagueTypes@@HW4PlayerTypes@@HH@Z
_TEXT	SEGMENT
_this$ = 8						; size = 4
_eLeague$ = 12						; size = 4
_iResolutionID$ = 16					; size = 4
_eVoter$ = 20						; size = 4
_iNumVotes$ = 24					; size = 4
_iChoice$ = 28						; size = 4
?ResponseLeagueVoteEnact@CvDllNetMessageHandler@@UAGXW4LeagueTypes@@HW4PlayerTypes@@HH@Z PROC ; CvDllNetMessageHandler::ResponseLeagueVoteEnact, COMDAT

; 510  : 	CvAssertMsg(eLeague != NO_LEAGUE, "eLeague invalid");
; 511  : 	CvAssertMsg(eVoter != NO_PLAYER, "eVoter invalid");
; 512  : 
; 513  : 	CvLeague* pLeague = GC.getGame().GetGameLeagues()->GetLeague(eLeague);

	mov	eax, DWORD PTR _eLeague$[esp-4]
	mov	ecx, DWORD PTR ?gGlobals@@3VCvGlobals@@A+48
	push	eax
	call	?GetGameLeagues@CvGame@@QAEPAVCvGameLeagues@@XZ ; CvGame::GetGameLeagues
	mov	ecx, eax
	call	?GetLeague@CvGameLeagues@@QAEPAVCvLeague@@W4LeagueTypes@@@Z ; CvGameLeagues::GetLeague

; 514  : #endif
; 515  : 	CvAssertMsg(pLeague->CanVote(eVoter), "eVoter not allowed to vote. Please send Anton your save file and version.");
; 516  : 	pLeague->DoVoteEnact(iResolutionID, eVoter, iNumVotes, iChoice);

	mov	ecx, DWORD PTR _iChoice$[esp-4]
	mov	edx, DWORD PTR _iNumVotes$[esp-4]
	push	ecx
	mov	ecx, DWORD PTR _eVoter$[esp]
	push	edx
	mov	edx, DWORD PTR _iResolutionID$[esp+4]
	push	ecx
	push	edx
	mov	ecx, eax
	call	?DoVoteEnact@CvLeague@@QAEXHW4PlayerTypes@@HH@Z ; CvLeague::DoVoteEnact

; 517  : }

	ret	24					; 00000018H
?ResponseLeagueVoteEnact@CvDllNetMessageHandler@@UAGXW4LeagueTypes@@HW4PlayerTypes@@HH@Z ENDP ; CvDllNetMessageHandler::ResponseLeagueVoteEnact
_TEXT	ENDS
EXTRN	?DoVoteRepeal@CvLeague@@QAEXHW4PlayerTypes@@HH@Z:PROC ; CvLeague::DoVoteRepeal
; Function compile flags: /Ogtpy
;	COMDAT ?ResponseLeagueVoteRepeal@CvDllNetMessageHandler@@UAGXW4LeagueTypes@@HW4PlayerTypes@@HH@Z
_TEXT	SEGMENT
_this$ = 8						; size = 4
_eLeague$ = 12						; size = 4
_iResolutionID$ = 16					; size = 4
_eVoter$ = 20						; size = 4
_iNumVotes$ = 24					; size = 4
_iChoice$ = 28						; size = 4
?ResponseLeagueVoteRepeal@CvDllNetMessageHandler@@UAGXW4LeagueTypes@@HW4PlayerTypes@@HH@Z PROC ; CvDllNetMessageHandler::ResponseLeagueVoteRepeal, COMDAT

; 531  : 	CvAssertMsg(eLeague != NO_LEAGUE, "eLeague invalid");
; 532  : 	CvAssertMsg(eVoter != NO_PLAYER, "eVoter invalid");
; 533  : 
; 534  : 	CvLeague* pLeague = GC.getGame().GetGameLeagues()->GetLeague(eLeague);

	mov	eax, DWORD PTR _eLeague$[esp-4]
	mov	ecx, DWORD PTR ?gGlobals@@3VCvGlobals@@A+48
	push	eax
	call	?GetGameLeagues@CvGame@@QAEPAVCvGameLeagues@@XZ ; CvGame::GetGameLeagues
	mov	ecx, eax
	call	?GetLeague@CvGameLeagues@@QAEPAVCvLeague@@W4LeagueTypes@@@Z ; CvGameLeagues::GetLeague

; 535  : #endif
; 536  : 	CvAssertMsg(pLeague->CanVote(eVoter), "eVoter not allowed to vote. Please send Anton your save file and version.");
; 537  : 	pLeague->DoVoteRepeal(iResolutionID, eVoter, iNumVotes, iChoice);

	mov	ecx, DWORD PTR _iChoice$[esp-4]
	mov	edx, DWORD PTR _iNumVotes$[esp-4]
	push	ecx
	mov	ecx, DWORD PTR _eVoter$[esp]
	push	edx
	mov	edx, DWORD PTR _iResolutionID$[esp+4]
	push	ecx
	push	edx
	mov	ecx, eax
	call	?DoVoteRepeal@CvLeague@@QAEXHW4PlayerTypes@@HH@Z ; CvLeague::DoVoteRepeal

; 538  : }

	ret	24					; 00000018H
?ResponseLeagueVoteRepeal@CvDllNetMessageHandler@@UAGXW4LeagueTypes@@HW4PlayerTypes@@HH@Z ENDP ; CvDllNetMessageHandler::ResponseLeagueVoteRepeal
_TEXT	ENDS
EXTRN	?DoVoteAbstain@CvLeague@@QAEXW4PlayerTypes@@H@Z:PROC ; CvLeague::DoVoteAbstain
; Function compile flags: /Ogtpy
;	COMDAT ?ResponseLeagueVoteAbstain@CvDllNetMessageHandler@@UAGXW4LeagueTypes@@W4PlayerTypes@@H@Z
_TEXT	SEGMENT
_this$ = 8						; size = 4
_eLeague$ = 12						; size = 4
_eVoter$ = 16						; size = 4
_iNumVotes$ = 20					; size = 4
?ResponseLeagueVoteAbstain@CvDllNetMessageHandler@@UAGXW4LeagueTypes@@W4PlayerTypes@@H@Z PROC ; CvDllNetMessageHandler::ResponseLeagueVoteAbstain, COMDAT

; 552  : 	CvAssertMsg(eLeague != NO_LEAGUE, "eLeague invalid");
; 553  : 	CvAssertMsg(eVoter != NO_PLAYER, "eVoter invalid");
; 554  : 
; 555  : 	CvLeague* pLeague = GC.getGame().GetGameLeagues()->GetLeague(eLeague);

	mov	eax, DWORD PTR _eLeague$[esp-4]
	mov	ecx, DWORD PTR ?gGlobals@@3VCvGlobals@@A+48
	push	eax
	call	?GetGameLeagues@CvGame@@QAEPAVCvGameLeagues@@XZ ; CvGame::GetGameLeagues
	mov	ecx, eax
	call	?GetLeague@CvGameLeagues@@QAEPAVCvLeague@@W4LeagueTypes@@@Z ; CvGameLeagues::GetLeague

; 556  : #endif
; 557  : 	CvAssertMsg(pLeague->CanVote(eVoter), "eVoter not allowed to vote. Please send Anton your save file and version.");
; 558  : 	pLeague->DoVoteAbstain(eVoter, iNumVotes);

	mov	ecx, DWORD PTR _iNumVotes$[esp-4]
	mov	edx, DWORD PTR _eVoter$[esp-4]
	push	ecx
	push	edx
	mov	ecx, eax
	call	?DoVoteAbstain@CvLeague@@QAEXW4PlayerTypes@@H@Z ; CvLeague::DoVoteAbstain

; 559  : }

	ret	16					; 00000010H
?ResponseLeagueVoteAbstain@CvDllNetMessageHandler@@UAGXW4LeagueTypes@@W4PlayerTypes@@H@Z ENDP ; CvDllNetMessageHandler::ResponseLeagueVoteAbstain
_TEXT	ENDS
EXTRN	?DoProposeEnact@CvLeague@@QAEXW4ResolutionTypes@@W4PlayerTypes@@H@Z:PROC ; CvLeague::DoProposeEnact
; Function compile flags: /Ogtpy
;	COMDAT ?ResponseLeagueProposeEnact@CvDllNetMessageHandler@@UAGXW4LeagueTypes@@W4ResolutionTypes@@W4PlayerTypes@@H@Z
_TEXT	SEGMENT
_this$ = 8						; size = 4
_eLeague$ = 12						; size = 4
_eResolution$ = 16					; size = 4
_eProposer$ = 20					; size = 4
_iChoice$ = 24						; size = 4
?ResponseLeagueProposeEnact@CvDllNetMessageHandler@@UAGXW4LeagueTypes@@W4ResolutionTypes@@W4PlayerTypes@@H@Z PROC ; CvDllNetMessageHandler::ResponseLeagueProposeEnact, COMDAT

; 574  : 	CvAssertMsg(eLeague != NO_LEAGUE, "eLeague invalid");
; 575  : 	CvAssertMsg(eResolution != NO_RESOLUTION, "eResolution invalid");
; 576  : 	CvAssertMsg(eProposer != NO_PLAYER, "eProposer invalid");
; 577  : 
; 578  : 	CvLeague* pLeague = GC.getGame().GetGameLeagues()->GetLeague(eLeague);

	mov	eax, DWORD PTR _eLeague$[esp-4]
	mov	ecx, DWORD PTR ?gGlobals@@3VCvGlobals@@A+48
	push	eax
	call	?GetGameLeagues@CvGame@@QAEPAVCvGameLeagues@@XZ ; CvGame::GetGameLeagues
	mov	ecx, eax
	call	?GetLeague@CvGameLeagues@@QAEPAVCvLeague@@W4LeagueTypes@@@Z ; CvGameLeagues::GetLeague

; 579  : #endif
; 580  : 	CvAssertMsg(pLeague->CanProposeEnact(eResolution, eProposer, iChoice), "eProposer not allowed to enact Resolution. Please send Anton your save file and version.");
; 581  : 	pLeague->DoProposeEnact(eResolution, eProposer, iChoice);

	mov	ecx, DWORD PTR _iChoice$[esp-4]
	mov	edx, DWORD PTR _eProposer$[esp-4]
	push	ecx
	mov	ecx, DWORD PTR _eResolution$[esp]
	push	edx
	push	ecx
	mov	ecx, eax
	call	?DoProposeEnact@CvLeague@@QAEXW4ResolutionTypes@@W4PlayerTypes@@H@Z ; CvLeague::DoProposeEnact

; 582  : }

	ret	20					; 00000014H
?ResponseLeagueProposeEnact@CvDllNetMessageHandler@@UAGXW4LeagueTypes@@W4ResolutionTypes@@W4PlayerTypes@@H@Z ENDP ; CvDllNetMessageHandler::ResponseLeagueProposeEnact
_TEXT	ENDS
EXTRN	?DoProposeRepeal@CvLeague@@QAEXHW4PlayerTypes@@@Z:PROC ; CvLeague::DoProposeRepeal
; Function compile flags: /Ogtpy
;	COMDAT ?ResponseLeagueProposeRepeal@CvDllNetMessageHandler@@UAGXW4LeagueTypes@@HW4PlayerTypes@@@Z
_TEXT	SEGMENT
_this$ = 8						; size = 4
_eLeague$ = 12						; size = 4
_iResolutionID$ = 16					; size = 4
_eProposer$ = 20					; size = 4
?ResponseLeagueProposeRepeal@CvDllNetMessageHandler@@UAGXW4LeagueTypes@@HW4PlayerTypes@@@Z PROC ; CvDllNetMessageHandler::ResponseLeagueProposeRepeal, COMDAT

; 596  : 	CvAssertMsg(eLeague != NO_LEAGUE, "eLeague invalid");
; 597  : 	CvAssertMsg(eProposer != NO_PLAYER, "eProposer invalid");
; 598  : 
; 599  : 	CvLeague* pLeague = GC.getGame().GetGameLeagues()->GetLeague(eLeague);

	mov	eax, DWORD PTR _eLeague$[esp-4]
	mov	ecx, DWORD PTR ?gGlobals@@3VCvGlobals@@A+48
	push	eax
	call	?GetGameLeagues@CvGame@@QAEPAVCvGameLeagues@@XZ ; CvGame::GetGameLeagues
	mov	ecx, eax
	call	?GetLeague@CvGameLeagues@@QAEPAVCvLeague@@W4LeagueTypes@@@Z ; CvGameLeagues::GetLeague

; 600  : #endif
; 601  : 	CvAssertMsg(pLeague->CanProposeRepeal(iResolutionID, eProposer), "eProposer not allowed to repeal Resolution. Please send Anton your save file and version.");
; 602  : 	pLeague->DoProposeRepeal(iResolutionID, eProposer);

	mov	ecx, DWORD PTR _eProposer$[esp-4]
	mov	edx, DWORD PTR _iResolutionID$[esp-4]
	push	ecx
	push	edx
	mov	ecx, eax
	call	?DoProposeRepeal@CvLeague@@QAEXHW4PlayerTypes@@@Z ; CvLeague::DoProposeRepeal

; 603  : }

	ret	16					; 00000010H
?ResponseLeagueProposeRepeal@CvDllNetMessageHandler@@UAGXW4LeagueTypes@@HW4PlayerTypes@@@Z ENDP ; CvDllNetMessageHandler::ResponseLeagueProposeRepeal
_TEXT	ENDS
EXTRN	?DoChangeCustomName@CvLeague@@QAEXW4PlayerTypes@@PBD@Z:PROC ; CvLeague::DoChangeCustomName
; Function compile flags: /Ogtpy
;	COMDAT ?ResponseLeagueEditName@CvDllNetMessageHandler@@UAGXW4LeagueTypes@@W4PlayerTypes@@PBD@Z
_TEXT	SEGMENT
_this$ = 8						; size = 4
_eLeague$ = 12						; size = 4
_ePlayer$ = 16						; size = 4
_szCustomName$ = 20					; size = 4
?ResponseLeagueEditName@CvDllNetMessageHandler@@UAGXW4LeagueTypes@@W4PlayerTypes@@PBD@Z PROC ; CvDllNetMessageHandler::ResponseLeagueEditName, COMDAT

; 616  : 	CvAssertMsg(eLeague != NO_LEAGUE, "eLeague invalid");
; 617  : 
; 618  : 	CvLeague* pLeague = GC.getGame().GetGameLeagues()->GetLeague(eLeague);

	mov	eax, DWORD PTR _eLeague$[esp-4]
	mov	ecx, DWORD PTR ?gGlobals@@3VCvGlobals@@A+48
	push	eax
	call	?GetGameLeagues@CvGame@@QAEPAVCvGameLeagues@@XZ ; CvGame::GetGameLeagues
	mov	ecx, eax
	call	?GetLeague@CvGameLeagues@@QAEPAVCvLeague@@W4LeagueTypes@@@Z ; CvGameLeagues::GetLeague

; 619  : #endif
; 620  : 	pLeague->DoChangeCustomName(ePlayer, szCustomName);

	mov	ecx, DWORD PTR _szCustomName$[esp-4]
	mov	edx, DWORD PTR _ePlayer$[esp-4]
	push	ecx
	push	edx
	mov	ecx, eax
	call	?DoChangeCustomName@CvLeague@@QAEXW4PlayerTypes@@PBD@Z ; CvLeague::DoChangeCustomName

; 621  : }

	ret	16					; 00000010H
?ResponseLeagueEditName@CvDllNetMessageHandler@@UAGXW4LeagueTypes@@W4PlayerTypes@@PBD@Z ENDP ; CvDllNetMessageHandler::ResponseLeagueEditName
_TEXT	ENDS
EXTRN	?SwapGreatWorks@CvGameCulture@@QAE_NW4PlayerTypes@@H0H@Z:PROC ; CvGameCulture::SwapGreatWorks
EXTRN	?GetGameCulture@CvGame@@QAEPAVCvGameCulture@@XZ:PROC ; CvGame::GetGameCulture
; Function compile flags: /Ogtpy
;	COMDAT ?ResponseSwapGreatWorks@CvDllNetMessageHandler@@UAGXW4PlayerTypes@@H0H@Z
_TEXT	SEGMENT
_this$ = 8						; size = 4
_ePlayer1$ = 12						; size = 4
_iWorkIndex1$ = 16					; size = 4
_ePlayer2$ = 20						; size = 4
_iWorkIndex2$ = 24					; size = 4
?ResponseSwapGreatWorks@CvDllNetMessageHandler@@UAGXW4PlayerTypes@@H0H@Z PROC ; CvDllNetMessageHandler::ResponseSwapGreatWorks, COMDAT

; 679  : 	GC.getGame().GetGameCulture()->SwapGreatWorks(ePlayer1, iWorkIndex1, ePlayer2, iWorkIndex2);

	mov	eax, DWORD PTR _iWorkIndex2$[esp-4]
	mov	ecx, DWORD PTR _ePlayer2$[esp-4]
	mov	edx, DWORD PTR _iWorkIndex1$[esp-4]
	push	eax
	mov	eax, DWORD PTR _ePlayer1$[esp]
	push	ecx
	mov	ecx, DWORD PTR ?gGlobals@@3VCvGlobals@@A+48
	push	edx
	push	eax
	call	?GetGameCulture@CvGame@@QAEPAVCvGameCulture@@XZ ; CvGame::GetGameCulture
	mov	ecx, eax
	call	?SwapGreatWorks@CvGameCulture@@QAE_NW4PlayerTypes@@H0H@Z ; CvGameCulture::SwapGreatWorks

; 680  : }

	ret	20					; 00000014H
?ResponseSwapGreatWorks@CvDllNetMessageHandler@@UAGXW4PlayerTypes@@H0H@Z ENDP ; CvDllNetMessageHandler::ResponseSwapGreatWorks
_TEXT	ENDS
EXTRN	?MoveGreatWorks@CvGameCulture@@QAEXW4PlayerTypes@@HHHHHH@Z:PROC ; CvGameCulture::MoveGreatWorks
; Function compile flags: /Ogtpy
;	COMDAT ?ResponseMoveGreatWorks@CvDllNetMessageHandler@@UAGXW4PlayerTypes@@HHHHHH@Z
_TEXT	SEGMENT
_this$ = 8						; size = 4
_ePlayer$ = 12						; size = 4
_iCity1$ = 16						; size = 4
_iBuildingClass1$ = 20					; size = 4
_iWorkIndex1$ = 24					; size = 4
_iCity2$ = 28						; size = 4
_iBuildingClass2$ = 32					; size = 4
_iWorkIndex2$ = 36					; size = 4
?ResponseMoveGreatWorks@CvDllNetMessageHandler@@UAGXW4PlayerTypes@@HHHHHH@Z PROC ; CvDllNetMessageHandler::ResponseMoveGreatWorks, COMDAT

; 686  : 	GC.getGame().GetGameCulture()->MoveGreatWorks(ePlayer, iCity1, iBuildingClass1, iWorkIndex1, iCity2, iBuildingClass2, iWorkIndex2);

	mov	eax, DWORD PTR _iWorkIndex2$[esp-4]
	mov	ecx, DWORD PTR _iBuildingClass2$[esp-4]
	mov	edx, DWORD PTR _iCity2$[esp-4]
	push	eax
	mov	eax, DWORD PTR _iWorkIndex1$[esp]
	push	ecx
	mov	ecx, DWORD PTR _iBuildingClass1$[esp+4]
	push	edx
	mov	edx, DWORD PTR _iCity1$[esp+8]
	push	eax
	mov	eax, DWORD PTR _ePlayer$[esp+12]
	push	ecx
	mov	ecx, DWORD PTR ?gGlobals@@3VCvGlobals@@A+48
	push	edx
	push	eax
	call	?GetGameCulture@CvGame@@QAEPAVCvGameCulture@@XZ ; CvGame::GetGameCulture
	mov	ecx, eax
	call	?MoveGreatWorks@CvGameCulture@@QAEXW4PlayerTypes@@HHHHHH@Z ; CvGameCulture::MoveGreatWorks

; 687  : }

	ret	32					; 00000020H
?ResponseMoveGreatWorks@CvDllNetMessageHandler@@UAGXW4PlayerTypes@@HHHHHH@Z ENDP ; CvDllNetMessageHandler::ResponseMoveGreatWorks
_TEXT	ENDS
EXTRN	?DoDistanceGift@CvPlayer@@QAEXW4PlayerTypes@@PAVCvUnit@@@Z:PROC ; CvPlayer::DoDistanceGift
; Function compile flags: /Ogtpy
;	COMDAT ?ResponseGiftUnit@CvDllNetMessageHandler@@UAGXW4PlayerTypes@@0H@Z
_TEXT	SEGMENT
_this$ = 8						; size = 4
_ePlayer$ = 12						; size = 4
_eMinor$ = 16						; size = 4
_iUnitID$ = 20						; size = 4
?ResponseGiftUnit@CvDllNetMessageHandler@@UAGXW4PlayerTypes@@0H@Z PROC ; CvDllNetMessageHandler::ResponseGiftUnit, COMDAT

; 705  : 	CvUnit* pkUnit = GET_PLAYER(ePlayer).getUnit(iUnitID);

	mov	eax, DWORD PTR _iUnitID$[esp-4]
	push	esi
	mov	esi, DWORD PTR _ePlayer$[esp]
	mov	ecx, esi
	imul	ecx, 63236				; 0000f704H
	add	ecx, DWORD PTR ?m_aPlayers@CvPlayerAI@@1PAV1@A ; CvPlayerAI::m_aPlayers
	push	eax
	call	?getUnit@CvPlayer@@QAEPAVCvUnit@@H@Z	; CvPlayer::getUnit

; 706  : 	GET_PLAYER(eMinor).DoDistanceGift(ePlayer, pkUnit);

	mov	ecx, DWORD PTR _eMinor$[esp]
	imul	ecx, 63236				; 0000f704H
	add	ecx, DWORD PTR ?m_aPlayers@CvPlayerAI@@1PAV1@A ; CvPlayerAI::m_aPlayers
	push	eax
	push	esi
	call	?DoDistanceGift@CvPlayer@@QAEXW4PlayerTypes@@PAVCvUnit@@@Z ; CvPlayer::DoDistanceGift
	pop	esi

; 707  : }

	ret	16					; 00000010H
?ResponseGiftUnit@CvDllNetMessageHandler@@UAGXW4PlayerTypes@@0H@Z ENDP ; CvDllNetMessageHandler::ResponseGiftUnit
_TEXT	ENDS
EXTRN	?DoLiberatePlayer@CvPlayer@@QAEXW4PlayerTypes@@H@Z:PROC ; CvPlayer::DoLiberatePlayer
; Function compile flags: /Ogtpy
;	COMDAT ?ResponseLiberatePlayer@CvDllNetMessageHandler@@UAGXW4PlayerTypes@@0H@Z
_TEXT	SEGMENT
_this$ = 8						; size = 4
_ePlayer$ = 12						; size = 4
_eLiberatedPlayer$ = 16					; size = 4
_iCityID$ = 20						; size = 4
?ResponseLiberatePlayer@CvDllNetMessageHandler@@UAGXW4PlayerTypes@@0H@Z PROC ; CvDllNetMessageHandler::ResponseLiberatePlayer, COMDAT

; 722  : 	GET_PLAYER(ePlayer).DoLiberatePlayer(eLiberatedPlayer, iCityID);

	mov	eax, DWORD PTR _iCityID$[esp-4]
	mov	ecx, DWORD PTR _eLiberatedPlayer$[esp-4]
	push	eax
	push	ecx
	mov	ecx, DWORD PTR _ePlayer$[esp+4]
	imul	ecx, 63236				; 0000f704H
	add	ecx, DWORD PTR ?m_aPlayers@CvPlayerAI@@1PAV1@A ; CvPlayerAI::m_aPlayers
	call	?DoLiberatePlayer@CvPlayer@@QAEXW4PlayerTypes@@H@Z ; CvPlayer::DoLiberatePlayer

; 723  : }

	ret	16					; 00000010H
?ResponseLiberatePlayer@CvDllNetMessageHandler@@UAGXW4PlayerTypes@@0H@Z ENDP ; CvDllNetMessageHandler::ResponseLiberatePlayer
_TEXT	ENDS
EXTRN	?DoMajorBullyGold@CvMinorCivAI@@QAEXW4PlayerTypes@@H@Z:PROC ; CvMinorCivAI::DoMajorBullyGold
EXTRN	?GetMinorCivAI@CvPlayer@@QBEPAVCvMinorCivAI@@XZ:PROC ; CvPlayer::GetMinorCivAI
; Function compile flags: /Ogtpy
;	COMDAT ?ResponseMinorCivBullyGold@CvDllNetMessageHandler@@UAGXW4PlayerTypes@@0H@Z
_TEXT	SEGMENT
_this$ = 8						; size = 4
_ePlayer$ = 12						; size = 4
_eMinor$ = 16						; size = 4
_iGold$ = 20						; size = 4
?ResponseMinorCivBullyGold@CvDllNetMessageHandler@@UAGXW4PlayerTypes@@0H@Z PROC ; CvDllNetMessageHandler::ResponseMinorCivBullyGold, COMDAT

; 727  : 	GET_PLAYER(eMinor).GetMinorCivAI()->DoMajorBullyGold(ePlayer, iGold);

	mov	ecx, DWORD PTR _eMinor$[esp-4]
	mov	eax, DWORD PTR _iGold$[esp-4]
	imul	ecx, 63236				; 0000f704H
	mov	edx, DWORD PTR _ePlayer$[esp-4]
	add	ecx, DWORD PTR ?m_aPlayers@CvPlayerAI@@1PAV1@A ; CvPlayerAI::m_aPlayers
	push	eax
	push	edx
	call	?GetMinorCivAI@CvPlayer@@QBEPAVCvMinorCivAI@@XZ ; CvPlayer::GetMinorCivAI
	mov	ecx, eax
	call	?DoMajorBullyGold@CvMinorCivAI@@QAEXW4PlayerTypes@@H@Z ; CvMinorCivAI::DoMajorBullyGold

; 728  : }

	ret	16					; 00000010H
?ResponseMinorCivBullyGold@CvDllNetMessageHandler@@UAGXW4PlayerTypes@@0H@Z ENDP ; CvDllNetMessageHandler::ResponseMinorCivBullyGold
_TEXT	ENDS
EXTRN	?DoMajorBullyUnit@CvMinorCivAI@@QAEXW4PlayerTypes@@W4UnitTypes@@@Z:PROC ; CvMinorCivAI::DoMajorBullyUnit
; Function compile flags: /Ogtpy
;	COMDAT ?ResponseMinorCivBullyUnit@CvDllNetMessageHandler@@UAGXW4PlayerTypes@@0W4UnitTypes@@@Z
_TEXT	SEGMENT
_this$ = 8						; size = 4
_ePlayer$ = 12						; size = 4
_eMinor$ = 16						; size = 4
_eUnitType$ = 20					; size = 4
?ResponseMinorCivBullyUnit@CvDllNetMessageHandler@@UAGXW4PlayerTypes@@0W4UnitTypes@@@Z PROC ; CvDllNetMessageHandler::ResponseMinorCivBullyUnit, COMDAT

; 732  : 	GET_PLAYER(eMinor).GetMinorCivAI()->DoMajorBullyUnit(ePlayer, eUnitType);

	mov	ecx, DWORD PTR _eMinor$[esp-4]
	mov	eax, DWORD PTR _eUnitType$[esp-4]
	imul	ecx, 63236				; 0000f704H
	mov	edx, DWORD PTR _ePlayer$[esp-4]
	add	ecx, DWORD PTR ?m_aPlayers@CvPlayerAI@@1PAV1@A ; CvPlayerAI::m_aPlayers
	push	eax
	push	edx
	call	?GetMinorCivAI@CvPlayer@@QBEPAVCvMinorCivAI@@XZ ; CvPlayer::GetMinorCivAI
	mov	ecx, eax
	call	?DoMajorBullyUnit@CvMinorCivAI@@QAEXW4PlayerTypes@@W4UnitTypes@@@Z ; CvMinorCivAI::DoMajorBullyUnit

; 733  : }

	ret	16					; 00000010H
?ResponseMinorCivBullyUnit@CvDllNetMessageHandler@@UAGXW4PlayerTypes@@0W4UnitTypes@@@Z ENDP ; CvDllNetMessageHandler::ResponseMinorCivBullyUnit
_TEXT	ENDS
EXTRN	?DoGoldGiftFromMajor@CvMinorCivAI@@QAEXW4PlayerTypes@@H@Z:PROC ; CvMinorCivAI::DoGoldGiftFromMajor
EXTRN	?DoFaithGiftFromMajor@CvMinorCivAI@@QAEXW4PlayerTypes@@H@Z:PROC ; CvMinorCivAI::DoFaithGiftFromMajor
EXTRN	?GetFaith@CvPlayer@@QBEHXZ:PROC			; CvPlayer::GetFaith
; Function compile flags: /Ogtpy
;	COMDAT ?ResponseMinorCivGiftGold@CvDllNetMessageHandler@@UAGXW4PlayerTypes@@0H@Z
_TEXT	SEGMENT
_this$ = 8						; size = 4
_ePlayer$ = 12						; size = 4
_eMinor$ = 16						; size = 4
_iGold$ = 20						; size = 4
?ResponseMinorCivGiftGold@CvDllNetMessageHandler@@UAGXW4PlayerTypes@@0H@Z PROC ; CvDllNetMessageHandler::ResponseMinorCivGiftGold, COMDAT

; 736  : {

	push	esi

; 737  : #ifdef NQ_BELIEF_TOGGLE_ALLOW_FAITH_GIFTS_TO_MINORS
; 738  : 	if (iGold > 100000) // HACK!!! ... when sending a faith gift, we still use this function but we add in 100K to clue us in

	mov	esi, DWORD PTR _iGold$[esp]
	push	edi

; 739  : 	{
; 740  : 		int iFaith = iGold - 100000;
; 741  : 		// Enough Faith?
; 742  : 		if(GET_PLAYER(ePlayer).GetFaith() >= iFaith)

	mov	edi, DWORD PTR _ePlayer$[esp+4]
	mov	ecx, edi
	imul	ecx, 63236				; 0000f704H
	add	ecx, DWORD PTR ?m_aPlayers@CvPlayerAI@@1PAV1@A ; CvPlayerAI::m_aPlayers
	cmp	esi, 100000				; 000186a0H
	jle	SHORT $LN4@ResponseMi
	add	esi, -100000				; fffe7960H
	call	?GetFaith@CvPlayer@@QBEHXZ		; CvPlayer::GetFaith
	cmp	eax, esi
	jl	SHORT $LN1@ResponseMi

; 743  : 		{
; 744  : 			GET_PLAYER(eMinor).GetMinorCivAI()->DoFaithGiftFromMajor(ePlayer, iFaith);

	mov	ecx, DWORD PTR _eMinor$[esp+4]
	imul	ecx, 63236				; 0000f704H
	add	ecx, DWORD PTR ?m_aPlayers@CvPlayerAI@@1PAV1@A ; CvPlayerAI::m_aPlayers
	push	esi
	push	edi
	call	?GetMinorCivAI@CvPlayer@@QBEPAVCvMinorCivAI@@XZ ; CvPlayer::GetMinorCivAI
	mov	ecx, eax
	call	?DoFaithGiftFromMajor@CvMinorCivAI@@QAEXW4PlayerTypes@@H@Z ; CvMinorCivAI::DoFaithGiftFromMajor
	pop	edi
	pop	esi

; 753  : 		}
; 754  : 	}
; 755  : #else
; 756  : 	// Enough Gold?
; 757  : 	if(GET_PLAYER(ePlayer).GetTreasury()->GetGold() >= iGold)
; 758  : 	{
; 759  : 		GET_PLAYER(eMinor).GetMinorCivAI()->DoGoldGiftFromMajor(ePlayer, iGold);
; 760  : 	}
; 761  : #endif
; 762  : }

	ret	16					; 00000010H
$LN4@ResponseMi:

; 745  : 		}
; 746  : 	}
; 747  : 	else
; 748  : 	{
; 749  : 		// Enough Gold?
; 750  : 		if(GET_PLAYER(ePlayer).GetTreasury()->GetGold() >= iGold)

	call	?GetTreasury@CvPlayer@@QBEPAVCvTreasury@@XZ ; CvPlayer::GetTreasury
	mov	ecx, eax
	call	?GetGold@CvTreasury@@QBEHXZ		; CvTreasury::GetGold
	cmp	eax, esi
	jl	SHORT $LN1@ResponseMi

; 751  : 		{
; 752  : 			GET_PLAYER(eMinor).GetMinorCivAI()->DoGoldGiftFromMajor(ePlayer, iGold);

	mov	ecx, DWORD PTR _eMinor$[esp+4]
	imul	ecx, 63236				; 0000f704H
	add	ecx, DWORD PTR ?m_aPlayers@CvPlayerAI@@1PAV1@A ; CvPlayerAI::m_aPlayers
	push	esi
	push	edi
	call	?GetMinorCivAI@CvPlayer@@QBEPAVCvMinorCivAI@@XZ ; CvPlayer::GetMinorCivAI
	mov	ecx, eax
	call	?DoGoldGiftFromMajor@CvMinorCivAI@@QAEXW4PlayerTypes@@H@Z ; CvMinorCivAI::DoGoldGiftFromMajor
$LN1@ResponseMi:
	pop	edi
	pop	esi

; 753  : 		}
; 754  : 	}
; 755  : #else
; 756  : 	// Enough Gold?
; 757  : 	if(GET_PLAYER(ePlayer).GetTreasury()->GetGold() >= iGold)
; 758  : 	{
; 759  : 		GET_PLAYER(eMinor).GetMinorCivAI()->DoGoldGiftFromMajor(ePlayer, iGold);
; 760  : 	}
; 761  : #endif
; 762  : }

	ret	16					; 00000010H
?ResponseMinorCivGiftGold@CvDllNetMessageHandler@@UAGXW4PlayerTypes@@0H@Z ENDP ; CvDllNetMessageHandler::ResponseMinorCivGiftGold
_TEXT	ENDS
EXTRN	?DoTileImprovementGiftFromMajor@CvMinorCivAI@@QAEXW4PlayerTypes@@HH@Z:PROC ; CvMinorCivAI::DoTileImprovementGiftFromMajor
; Function compile flags: /Ogtpy
;	COMDAT ?ResponseMinorCivGiftTileImprovement@CvDllNetMessageHandler@@UAGXW4PlayerTypes@@0HH@Z
_TEXT	SEGMENT
_this$ = 8						; size = 4
_eMajor$ = 12						; size = 4
_eMinor$ = 16						; size = 4
_iPlotX$ = 20						; size = 4
_iPlotY$ = 24						; size = 4
?ResponseMinorCivGiftTileImprovement@CvDllNetMessageHandler@@UAGXW4PlayerTypes@@0HH@Z PROC ; CvDllNetMessageHandler::ResponseMinorCivGiftTileImprovement, COMDAT

; 766  : 	GET_PLAYER(eMinor).GetMinorCivAI()->DoTileImprovementGiftFromMajor(eMajor, iPlotX, iPlotY);

	mov	ecx, DWORD PTR _eMinor$[esp-4]
	mov	eax, DWORD PTR _iPlotY$[esp-4]
	imul	ecx, 63236				; 0000f704H
	mov	edx, DWORD PTR _iPlotX$[esp-4]
	add	ecx, DWORD PTR ?m_aPlayers@CvPlayerAI@@1PAV1@A ; CvPlayerAI::m_aPlayers
	push	eax
	mov	eax, DWORD PTR _eMajor$[esp]
	push	edx
	push	eax
	call	?GetMinorCivAI@CvPlayer@@QBEPAVCvMinorCivAI@@XZ ; CvPlayer::GetMinorCivAI
	mov	ecx, eax
	call	?DoTileImprovementGiftFromMajor@CvMinorCivAI@@QAEXW4PlayerTypes@@HH@Z ; CvMinorCivAI::DoTileImprovementGiftFromMajor

; 767  : }

	ret	20					; 00000014H
?ResponseMinorCivGiftTileImprovement@CvDllNetMessageHandler@@UAGXW4PlayerTypes@@0HH@Z ENDP ; CvDllNetMessageHandler::ResponseMinorCivGiftTileImprovement
_TEXT	ENDS
EXTRN	?DoBuyout@CvMinorCivAI@@QAEXW4PlayerTypes@@@Z:PROC ; CvMinorCivAI::DoBuyout
; Function compile flags: /Ogtpy
;	COMDAT ?ResponseMinorCivBuyout@CvDllNetMessageHandler@@UAGXW4PlayerTypes@@0@Z
_TEXT	SEGMENT
_this$ = 8						; size = 4
_eMajor$ = 12						; size = 4
_eMinor$ = 16						; size = 4
?ResponseMinorCivBuyout@CvDllNetMessageHandler@@UAGXW4PlayerTypes@@0@Z PROC ; CvDllNetMessageHandler::ResponseMinorCivBuyout, COMDAT

; 771  : 	GET_PLAYER(eMinor).GetMinorCivAI()->DoBuyout(eMajor);

	mov	ecx, DWORD PTR _eMinor$[esp-4]
	mov	eax, DWORD PTR _eMajor$[esp-4]
	imul	ecx, 63236				; 0000f704H
	add	ecx, DWORD PTR ?m_aPlayers@CvPlayerAI@@1PAV1@A ; CvPlayerAI::m_aPlayers
	push	eax
	call	?GetMinorCivAI@CvPlayer@@QBEPAVCvMinorCivAI@@XZ ; CvPlayer::GetMinorCivAI
	mov	ecx, eax
	call	?DoBuyout@CvMinorCivAI@@QAEXW4PlayerTypes@@@Z ; CvMinorCivAI::DoBuyout

; 772  : }

	ret	12					; 0000000cH
?ResponseMinorCivBuyout@CvDllNetMessageHandler@@UAGXW4PlayerTypes@@0@Z ENDP ; CvDllNetMessageHandler::ResponseMinorCivBuyout
_TEXT	ENDS
EXTRN	?SetUnitSpawningDisabled@CvMinorCivAI@@QAEXW4PlayerTypes@@_N@Z:PROC ; CvMinorCivAI::SetUnitSpawningDisabled
; Function compile flags: /Ogtpy
;	COMDAT ?ResponseMinorNoUnitSpawning@CvDllNetMessageHandler@@UAGXW4PlayerTypes@@0_N@Z
_TEXT	SEGMENT
_this$ = 8						; size = 4
_ePlayer$ = 12						; size = 4
_eMinor$ = 16						; size = 4
_bValue$ = 20						; size = 1
?ResponseMinorNoUnitSpawning@CvDllNetMessageHandler@@UAGXW4PlayerTypes@@0_N@Z PROC ; CvDllNetMessageHandler::ResponseMinorNoUnitSpawning, COMDAT

; 776  : 	GET_PLAYER(eMinor).GetMinorCivAI()->SetUnitSpawningDisabled(ePlayer, bValue);

	mov	ecx, DWORD PTR _eMinor$[esp-4]
	mov	eax, DWORD PTR _bValue$[esp-4]
	imul	ecx, 63236				; 0000f704H
	mov	edx, DWORD PTR _ePlayer$[esp-4]
	add	ecx, DWORD PTR ?m_aPlayers@CvPlayerAI@@1PAV1@A ; CvPlayerAI::m_aPlayers
	push	eax
	push	edx
	call	?GetMinorCivAI@CvPlayer@@QBEPAVCvMinorCivAI@@XZ ; CvPlayer::GetMinorCivAI
	mov	ecx, eax
	call	?SetUnitSpawningDisabled@CvMinorCivAI@@QAEXW4PlayerTypes@@_N@Z ; CvMinorCivAI::SetUnitSpawningDisabled

; 777  : }

	ret	16					; 00000010H
?ResponseMinorNoUnitSpawning@CvDllNetMessageHandler@@UAGXW4PlayerTypes@@0_N@Z ENDP ; CvDllNetMessageHandler::ResponseMinorNoUnitSpawning
_TEXT	ENDS
EXTRN	?Add@CvNotifications@@QAEHW4NotificationTypes@@PBD1HHHH@Z:PROC ; CvNotifications::Add
EXTRN	?GetNotifications@CvPlayer@@QBEPAVCvNotifications@@XZ:PROC ; CvPlayer::GetNotifications
EXTRN	__imp_?toUTF8@String@Localization@@QAEPBDXZ:PROC
EXTRN	?getNickName@CvPlayer@@QBEQBDXZ:PROC		; CvPlayer::getNickName
EXTRN	__imp_??4String@Localization@@QAEAAV01@ABV01@@Z:PROC
EXTRN	__imp_??0String@Localization@@QAE@XZ:PROC
EXTRN	?FinalizeDeal@CvGameDeals@@QAE_NW4PlayerTypes@@0_N@Z:PROC ; CvGameDeals::FinalizeDeal
EXTRN	?GetGameDeals@CvGame@@QAEPAVCvGameDeals@@XZ:PROC ; CvGame::GetGameDeals
EXTRN	?getActivePlayer@CvGame@@QBE?AW4PlayerTypes@@XZ:PROC ; CvGame::getActivePlayer
;	COMDAT xdata$x
; File c:\users\enormousapplepie\documents\github\lekmod\lekmod_dll\cvlocalization\include\cvlocalization.h
xdata$x	SEGMENT
__ehfuncinfo$?ResponsePlayerDealFinalized@CvDllNetMessageHandler@@UAGXW4PlayerTypes@@00_N@Z DD 019930522H
	DD	010H
	DD	FLAT:__unwindtable$?ResponsePlayerDealFinalized@CvDllNetMessageHandler@@UAGXW4PlayerTypes@@00_N@Z
	DD	2 DUP(00H)
	DD	2 DUP(00H)
	DD	00H
	DD	01H
__unwindtable$?ResponsePlayerDealFinalized@CvDllNetMessageHandler@@UAGXW4PlayerTypes@@00_N@Z DD 0ffffffffH
	DD	FLAT:__unwindfunclet$?ResponsePlayerDealFinalized@CvDllNetMessageHandler@@UAGXW4PlayerTypes@@00_N@Z$0
	DD	00H
	DD	FLAT:__unwindfunclet$?ResponsePlayerDealFinalized@CvDllNetMessageHandler@@UAGXW4PlayerTypes@@00_N@Z$1
	DD	01H
	DD	FLAT:__unwindfunclet$?ResponsePlayerDealFinalized@CvDllNetMessageHandler@@UAGXW4PlayerTypes@@00_N@Z$2
	DD	01H
	DD	FLAT:__unwindfunclet$?ResponsePlayerDealFinalized@CvDllNetMessageHandler@@UAGXW4PlayerTypes@@00_N@Z$3
	DD	0ffffffffH
	DD	FLAT:__unwindfunclet$?ResponsePlayerDealFinalized@CvDllNetMessageHandler@@UAGXW4PlayerTypes@@00_N@Z$4
	DD	04H
	DD	FLAT:__unwindfunclet$?ResponsePlayerDealFinalized@CvDllNetMessageHandler@@UAGXW4PlayerTypes@@00_N@Z$5
	DD	05H
	DD	FLAT:__unwindfunclet$?ResponsePlayerDealFinalized@CvDllNetMessageHandler@@UAGXW4PlayerTypes@@00_N@Z$6
	DD	05H
	DD	FLAT:__unwindfunclet$?ResponsePlayerDealFinalized@CvDllNetMessageHandler@@UAGXW4PlayerTypes@@00_N@Z$7
	DD	0ffffffffH
	DD	FLAT:__unwindfunclet$?ResponsePlayerDealFinalized@CvDllNetMessageHandler@@UAGXW4PlayerTypes@@00_N@Z$8
	DD	08H
	DD	FLAT:__unwindfunclet$?ResponsePlayerDealFinalized@CvDllNetMessageHandler@@UAGXW4PlayerTypes@@00_N@Z$9
	DD	09H
	DD	FLAT:__unwindfunclet$?ResponsePlayerDealFinalized@CvDllNetMessageHandler@@UAGXW4PlayerTypes@@00_N@Z$10
	DD	09H
	DD	FLAT:__unwindfunclet$?ResponsePlayerDealFinalized@CvDllNetMessageHandler@@UAGXW4PlayerTypes@@00_N@Z$11
	DD	0ffffffffH
	DD	FLAT:__unwindfunclet$?ResponsePlayerDealFinalized@CvDllNetMessageHandler@@UAGXW4PlayerTypes@@00_N@Z$12
	DD	0cH
	DD	FLAT:__unwindfunclet$?ResponsePlayerDealFinalized@CvDllNetMessageHandler@@UAGXW4PlayerTypes@@00_N@Z$13
	DD	0dH
	DD	FLAT:__unwindfunclet$?ResponsePlayerDealFinalized@CvDllNetMessageHandler@@UAGXW4PlayerTypes@@00_N@Z$14
	DD	0dH
	DD	FLAT:__unwindfunclet$?ResponsePlayerDealFinalized@CvDllNetMessageHandler@@UAGXW4PlayerTypes@@00_N@Z$15
; Function compile flags: /Ogtpy
; File c:\users\enormousapplepie\documents\github\lekmod\lekmod_dll\cvgamecoredll_expansion2\cvdllnetmessagehandler.cpp
xdata$x	ENDS
;	COMDAT ?ResponsePlayerDealFinalized@CvDllNetMessageHandler@@UAGXW4PlayerTypes@@00_N@Z
_TEXT	SEGMENT
_strMessage$223161 = -492				; size = 80
_strMessage$223147 = -492				; size = 80
_strMessage$223122 = -492				; size = 80
_strSummary$223158 = -412				; size = 80
_strSummary$223144 = -412				; size = 80
_strSummary$223123 = -412				; size = 80
$T224195 = -332						; size = 80
$T224192 = -332						; size = 80
$T224191 = -332						; size = 80
$T224188 = -332						; size = 80
$T224187 = -332						; size = 80
$T224184 = -332						; size = 80
$T224182 = -332						; size = 80
_strMessage$223174 = -252				; size = 80
_strSummary$223171 = -172				; size = 80
$T224196 = -92						; size = 80
__$EHRec$ = -12						; size = 12
_this$ = 8						; size = 4
_eFromPlayer$ = 12					; size = 4
_eToPlayer$ = 16					; size = 4
_eActBy$ = 20						; size = 4
_bAccepted$ = 24					; size = 1
?ResponsePlayerDealFinalized@CvDllNetMessageHandler@@UAGXW4PlayerTypes@@00_N@Z PROC ; CvDllNetMessageHandler::ResponsePlayerDealFinalized, COMDAT

; 780  : {

	mov	eax, DWORD PTR fs:0
	push	-1
	push	__ehhandler$?ResponsePlayerDealFinalized@CvDllNetMessageHandler@@UAGXW4PlayerTypes@@00_N@Z
	push	eax
	mov	DWORD PTR fs:0, esp
	sub	esp, 480				; 000001e0H
	push	ebx
	push	ebp
	push	esi

; 781  : 	CvGame& game = GC.getGame();

	mov	esi, DWORD PTR ?gGlobals@@3VCvGlobals@@A+48
	push	edi

; 782  : #ifndef AUI_WARNING_FIXES
; 783  : 	PlayerTypes eActivePlayer = game.getActivePlayer();

	mov	ecx, esi
	call	?getActivePlayer@CvGame@@QBE?AW4PlayerTypes@@XZ ; CvGame::getActivePlayer

; 784  : #endif
; 785  : 
; 786  : 	// is the deal valid?
; 787  : 	if(!game.GetGameDeals()->FinalizeDeal(eFromPlayer, eToPlayer, bAccepted))

	mov	eax, DWORD PTR _bAccepted$[esp+504]
	mov	ebx, DWORD PTR _eToPlayer$[esp+504]
	mov	ebp, DWORD PTR _eFromPlayer$[esp+504]
	push	eax
	push	ebx
	push	ebp
	mov	ecx, esi
	call	?GetGameDeals@CvGame@@QAEPAVCvGameDeals@@XZ ; CvGame::GetGameDeals
	mov	ecx, eax
	call	?FinalizeDeal@CvGameDeals@@QAE_NW4PlayerTypes@@0_N@Z ; CvGameDeals::FinalizeDeal
	test	al, al
	jne	$LN6@ResponsePl

; 788  : 	{
; 789  : 		Localization::String strMessage;

	lea	ecx, DWORD PTR _strMessage$223122[esp+508]
	call	DWORD PTR __imp_??0String@Localization@@QAE@XZ

; 790  : 		Localization::String strSummary = Localization::Lookup("TXT_KEY_DEAL_EXPIRED");

	lea	ecx, DWORD PTR _strSummary$223123[esp+508]
	push	OFFSET $SG223125
	push	ecx
	mov	DWORD PTR __$EHRec$[esp+524], 0
	call	DWORD PTR __imp_?Lookup@Localization@@YA?AVString@1@PBD@Z

; 791  : 
; 792  : 		CvPlayerAI& kToPlayer = GET_PLAYER(eToPlayer);

	mov	eax, DWORD PTR ?m_aPlayers@CvPlayerAI@@1PAV1@A ; CvPlayerAI::m_aPlayers
	mov	esi, ebx

; 793  : 		CvPlayerAI& kFromPlayer = GET_PLAYER(eFromPlayer);

	mov	edi, ebp
	imul	esi, 63236				; 0000f704H
	imul	edi, 63236				; 0000f704H

; 794  : #ifndef AUI_WARNING_FIXES
; 795  : 		CvPlayerAI& kActivePlayer = GET_PLAYER(eActivePlayer);
; 796  : #endif
; 797  : 
; 798  : 		strMessage = Localization::Lookup("TXT_KEY_DEAL_EXPIRED_FROM_YOU");

	lea	edx, DWORD PTR $T224182[esp+516]
	push	OFFSET $SG223130
	push	edx
	mov	BYTE PTR __$EHRec$[esp+532], 1
	add	esi, eax
	add	edi, eax
	call	DWORD PTR __imp_?Lookup@Localization@@YA?AVString@1@PBD@Z
	add	esp, 16					; 00000010H
	push	eax
	lea	ecx, DWORD PTR _strMessage$223122[esp+512]
	mov	BYTE PTR __$EHRec$[esp+520], 2
	call	DWORD PTR __imp_??4String@Localization@@QAEAAV01@ABV01@@Z
	lea	ecx, DWORD PTR $T224182[esp+508]
	mov	BYTE PTR __$EHRec$[esp+516], 1
	call	DWORD PTR __imp_??1String@Localization@@UAE@XZ

; 799  : 		strMessage << kToPlayer.getNickName();

	mov	ecx, esi
	call	?getNickName@CvPlayer@@QBEQBDXZ		; CvPlayer::getNickName
	push	eax
	lea	ecx, DWORD PTR _strMessage$223122[esp+512]
	call	DWORD PTR __imp_?PushArgument@String@Localization@@QAE_NPBD@Z

; 800  : 		kFromPlayer.GetNotifications()->Add(NOTIFICATION_PLAYER_DEAL_RESOLVED, strMessage.toUTF8(), strSummary.toUTF8(), eToPlayer, -1, -1);

	push	-1
	push	-1
	push	-1
	push	ebx
	mov	ebx, DWORD PTR __imp_?toUTF8@String@Localization@@QAEPBDXZ
	lea	ecx, DWORD PTR _strSummary$223123[esp+524]
	call	ebx
	push	eax
	lea	ecx, DWORD PTR _strMessage$223122[esp+528]
	call	ebx
	push	eax
	push	-991884431				; c4e10b71H
	mov	ecx, edi
	call	?GetNotifications@CvPlayer@@QBEPAVCvNotifications@@XZ ; CvPlayer::GetNotifications
	mov	ecx, eax
	call	?Add@CvNotifications@@QAEHW4NotificationTypes@@PBD1HHHH@Z ; CvNotifications::Add

; 801  : 
; 802  : 		strMessage = Localization::Lookup("TXT_KEY_DEAL_EXPIRED_FROM_THEM");

	lea	eax, DWORD PTR $T224184[esp+508]
	push	OFFSET $SG223138
	push	eax
	call	DWORD PTR __imp_?Lookup@Localization@@YA?AVString@1@PBD@Z
	add	esp, 8
	push	eax
	lea	ecx, DWORD PTR _strMessage$223122[esp+512]
	mov	BYTE PTR __$EHRec$[esp+520], 3
	call	DWORD PTR __imp_??4String@Localization@@QAEAAV01@ABV01@@Z
	lea	ecx, DWORD PTR $T224184[esp+508]
	mov	BYTE PTR __$EHRec$[esp+516], 1
	call	DWORD PTR __imp_??1String@Localization@@UAE@XZ

; 803  : 		strMessage << kFromPlayer.getNickName();

	mov	ecx, edi
	call	?getNickName@CvPlayer@@QBEQBDXZ		; CvPlayer::getNickName
	push	eax
	lea	ecx, DWORD PTR _strMessage$223122[esp+512]
	call	DWORD PTR __imp_?PushArgument@String@Localization@@QAE_NPBD@Z

; 804  : 		kToPlayer.GetNotifications()->Add(NOTIFICATION_PLAYER_DEAL_RESOLVED, strMessage.toUTF8(), strSummary.toUTF8(), eFromPlayer, -1, -1);

	push	-1
	push	-1
	push	-1
	push	ebp
	lea	ecx, DWORD PTR _strSummary$223123[esp+524]
	call	ebx
	push	eax
	lea	ecx, DWORD PTR _strMessage$223122[esp+528]
	call	ebx
	push	eax
	push	-991884431				; c4e10b71H
	mov	ecx, esi
	call	?GetNotifications@CvPlayer@@QBEPAVCvNotifications@@XZ ; CvPlayer::GetNotifications
	mov	ecx, eax
	call	?Add@CvNotifications@@QAEHW4NotificationTypes@@PBD1HHHH@Z ; CvNotifications::Add

; 805  : 	}

	mov	esi, DWORD PTR __imp_??1String@Localization@@UAE@XZ
	lea	ecx, DWORD PTR _strSummary$223123[esp+508]
	mov	BYTE PTR __$EHRec$[esp+516], 0
	call	esi
	lea	ecx, DWORD PTR _strMessage$223122[esp+508]

; 806  : 	else

	jmp	$LN54@ResponsePl
$LN6@ResponsePl:

; 807  : 	{
; 808  : 		CvPlayerAI& kToPlayer = GET_PLAYER(eToPlayer);

	mov	eax, DWORD PTR ?m_aPlayers@CvPlayerAI@@1PAV1@A ; CvPlayerAI::m_aPlayers
	mov	esi, ebx

; 809  : 		CvPlayerAI& kFromPlayer = GET_PLAYER(eFromPlayer);

	mov	edi, ebp
	imul	esi, 63236				; 0000f704H
	imul	edi, 63236				; 0000f704H
	add	esi, eax
	add	edi, eax

; 810  : 		if(bAccepted)

	cmp	BYTE PTR _bAccepted$[esp+504], 0
	je	$LN4@ResponsePl

; 811  : 		{
; 812  : 			Localization::String strSummary = Localization::Lookup("TXT_KEY_DEAL_ACCEPTED");

	lea	ecx, DWORD PTR _strSummary$223144[esp+508]
	push	OFFSET $SG223146
	push	ecx
	call	DWORD PTR __imp_?Lookup@Localization@@YA?AVString@1@PBD@Z

; 813  : 			Localization::String strMessage = Localization::Lookup("TXT_KEY_DEAL_ACCEPTED_BY_THEM");

	lea	edx, DWORD PTR _strMessage$223147[esp+516]
	push	OFFSET $SG223149
	push	edx
	mov	DWORD PTR __$EHRec$[esp+532], 4
	call	DWORD PTR __imp_?Lookup@Localization@@YA?AVString@1@PBD@Z
	add	esp, 16					; 00000010H

; 814  : 			strMessage << kToPlayer.getNickName();

	mov	ecx, esi
	mov	BYTE PTR __$EHRec$[esp+516], 5
	call	?getNickName@CvPlayer@@QBEQBDXZ		; CvPlayer::getNickName
	push	eax
	lea	ecx, DWORD PTR _strMessage$223147[esp+512]
	call	DWORD PTR __imp_?PushArgument@String@Localization@@QAE_NPBD@Z

; 815  : 			kFromPlayer.GetNotifications()->Add(NOTIFICATION_PLAYER_DEAL_RESOLVED, strMessage.toUTF8(), strSummary.toUTF8(), eToPlayer, -1, -1);

	push	-1
	push	-1
	push	-1
	push	ebx
	mov	ebx, DWORD PTR __imp_?toUTF8@String@Localization@@QAEPBDXZ
	lea	ecx, DWORD PTR _strSummary$223144[esp+524]
	call	ebx
	push	eax
	lea	ecx, DWORD PTR _strMessage$223147[esp+528]
	call	ebx
	push	eax
	push	-991884431				; c4e10b71H
	mov	ecx, edi
	call	?GetNotifications@CvPlayer@@QBEPAVCvNotifications@@XZ ; CvPlayer::GetNotifications
	mov	ecx, eax
	call	?Add@CvNotifications@@QAEHW4NotificationTypes@@PBD1HHHH@Z ; CvNotifications::Add

; 816  : 
; 817  : 			strSummary = Localization::Lookup("TXT_KEY_DEAL_ACCEPTED");

	lea	eax, DWORD PTR $T224187[esp+508]
	push	OFFSET $SG223152
	push	eax
	call	DWORD PTR __imp_?Lookup@Localization@@YA?AVString@1@PBD@Z
	add	esp, 8
	push	eax
	lea	ecx, DWORD PTR _strSummary$223144[esp+512]
	mov	BYTE PTR __$EHRec$[esp+520], 6
	call	DWORD PTR __imp_??4String@Localization@@QAEAAV01@ABV01@@Z
	lea	ecx, DWORD PTR $T224187[esp+508]
	mov	BYTE PTR __$EHRec$[esp+516], 5
	call	DWORD PTR __imp_??1String@Localization@@UAE@XZ

; 818  : 			strMessage = Localization::Lookup("TXT_KEY_DEAL_ACCEPTED_BY_YOU");

	lea	ecx, DWORD PTR $T224188[esp+508]
	push	OFFSET $SG223154
	push	ecx
	call	DWORD PTR __imp_?Lookup@Localization@@YA?AVString@1@PBD@Z
	add	esp, 8
	push	eax
	lea	ecx, DWORD PTR _strMessage$223147[esp+512]
	mov	BYTE PTR __$EHRec$[esp+520], 7
	call	DWORD PTR __imp_??4String@Localization@@QAEAAV01@ABV01@@Z
	lea	ecx, DWORD PTR $T224188[esp+508]
	mov	BYTE PTR __$EHRec$[esp+516], 5
	call	DWORD PTR __imp_??1String@Localization@@UAE@XZ

; 819  : 			strMessage << kFromPlayer.getNickName();

	mov	ecx, edi
	call	?getNickName@CvPlayer@@QBEQBDXZ		; CvPlayer::getNickName
	push	eax
	lea	ecx, DWORD PTR _strMessage$223147[esp+512]
	call	DWORD PTR __imp_?PushArgument@String@Localization@@QAE_NPBD@Z

; 820  : 			kToPlayer.GetNotifications()->Add(NOTIFICATION_PLAYER_DEAL_RESOLVED, strMessage.toUTF8(), strSummary.toUTF8(), eFromPlayer, -1, -1);

	push	-1
	push	-1
	push	-1
	push	ebp
	lea	ecx, DWORD PTR _strSummary$223144[esp+524]
	call	ebx
	push	eax
	lea	ecx, DWORD PTR _strMessage$223147[esp+528]
	call	ebx
	push	eax
	push	-991884431				; c4e10b71H
	mov	ecx, esi
	call	?GetNotifications@CvPlayer@@QBEPAVCvNotifications@@XZ ; CvPlayer::GetNotifications
	mov	ecx, eax
	call	?Add@CvNotifications@@QAEHW4NotificationTypes@@PBD1HHHH@Z ; CvNotifications::Add

; 821  : 		}

	mov	BYTE PTR __$EHRec$[esp+516], 4
	mov	esi, DWORD PTR __imp_??1String@Localization@@UAE@XZ
	lea	ecx, DWORD PTR _strMessage$223147[esp+508]
	call	esi
	lea	ecx, DWORD PTR _strSummary$223144[esp+508]

; 822  : 		else

	jmp	$LN54@ResponsePl
$LN4@ResponsePl:

; 823  : 		{
; 824  : 			if(eActBy == eFromPlayer)

	cmp	DWORD PTR _eActBy$[esp+504], ebp
	jne	$LN2@ResponsePl

; 825  : 			{
; 826  : 				Localization::String strSummary = Localization::Lookup("TXT_KEY_DEAL_WITHDRAWN");

	lea	edx, DWORD PTR _strSummary$223158[esp+508]
	push	OFFSET $SG223160
	push	edx
	call	DWORD PTR __imp_?Lookup@Localization@@YA?AVString@1@PBD@Z

; 827  : 				Localization::String strMessage = Localization::Lookup("TXT_KEY_DEAL_WITHDRAWN_BY_YOU");

	lea	eax, DWORD PTR _strMessage$223161[esp+516]
	push	OFFSET $SG223163
	push	eax
	mov	DWORD PTR __$EHRec$[esp+532], 8
	call	DWORD PTR __imp_?Lookup@Localization@@YA?AVString@1@PBD@Z
	add	esp, 16					; 00000010H

; 828  : 				strMessage << kToPlayer.getNickName();

	mov	ecx, esi
	mov	BYTE PTR __$EHRec$[esp+516], 9
	call	?getNickName@CvPlayer@@QBEQBDXZ		; CvPlayer::getNickName
	push	eax
	lea	ecx, DWORD PTR _strMessage$223161[esp+512]
	call	DWORD PTR __imp_?PushArgument@String@Localization@@QAE_NPBD@Z

; 829  : 				kFromPlayer.GetNotifications()->Add(NOTIFICATION_PLAYER_DEAL_RESOLVED, strMessage.toUTF8(), strSummary.toUTF8(), eToPlayer, -1, -1);

	push	-1
	push	-1
	push	-1
	push	ebx
	mov	ebx, DWORD PTR __imp_?toUTF8@String@Localization@@QAEPBDXZ
	lea	ecx, DWORD PTR _strSummary$223158[esp+524]
	call	ebx
	push	eax
	lea	ecx, DWORD PTR _strMessage$223161[esp+528]
	call	ebx
	push	eax
	push	-991884431				; c4e10b71H
	mov	ecx, edi
	call	?GetNotifications@CvPlayer@@QBEPAVCvNotifications@@XZ ; CvPlayer::GetNotifications
	mov	ecx, eax
	call	?Add@CvNotifications@@QAEHW4NotificationTypes@@PBD1HHHH@Z ; CvNotifications::Add

; 830  : 
; 831  : 				strSummary = Localization::Lookup("TXT_KEY_DEAL_WITHDRAWN");

	lea	ecx, DWORD PTR $T224191[esp+508]
	push	OFFSET $SG223166
	push	ecx
	call	DWORD PTR __imp_?Lookup@Localization@@YA?AVString@1@PBD@Z
	add	esp, 8
	push	eax
	lea	ecx, DWORD PTR _strSummary$223158[esp+512]
	mov	BYTE PTR __$EHRec$[esp+520], 10		; 0000000aH
	call	DWORD PTR __imp_??4String@Localization@@QAEAAV01@ABV01@@Z
	lea	ecx, DWORD PTR $T224191[esp+508]
	mov	BYTE PTR __$EHRec$[esp+516], 9
	call	DWORD PTR __imp_??1String@Localization@@UAE@XZ

; 832  : 				strMessage = Localization::Lookup("TXT_KEY_DEAL_WITHDRAWN_BY_THEM");

	lea	edx, DWORD PTR $T224192[esp+508]
	push	OFFSET $SG223168
	push	edx
	call	DWORD PTR __imp_?Lookup@Localization@@YA?AVString@1@PBD@Z
	add	esp, 8
	push	eax
	lea	ecx, DWORD PTR _strMessage$223161[esp+512]
	mov	BYTE PTR __$EHRec$[esp+520], 11		; 0000000bH
	call	DWORD PTR __imp_??4String@Localization@@QAEAAV01@ABV01@@Z
	lea	ecx, DWORD PTR $T224192[esp+508]
	mov	BYTE PTR __$EHRec$[esp+516], 9
	call	DWORD PTR __imp_??1String@Localization@@UAE@XZ

; 833  : 				strMessage << kFromPlayer.getNickName();

	mov	ecx, edi
	call	?getNickName@CvPlayer@@QBEQBDXZ		; CvPlayer::getNickName
	push	eax
	lea	ecx, DWORD PTR _strMessage$223161[esp+512]
	call	DWORD PTR __imp_?PushArgument@String@Localization@@QAE_NPBD@Z

; 834  : 				kToPlayer.GetNotifications()->Add(NOTIFICATION_PLAYER_DEAL_RESOLVED, strMessage.toUTF8(), strSummary.toUTF8(), eFromPlayer, -1, -1);

	push	-1
	push	-1
	push	-1
	push	ebp
	lea	ecx, DWORD PTR _strSummary$223158[esp+524]
	call	ebx
	push	eax
	lea	ecx, DWORD PTR _strMessage$223161[esp+528]
	call	ebx
	push	eax
	push	-991884431				; c4e10b71H
	mov	ecx, esi
	call	?GetNotifications@CvPlayer@@QBEPAVCvNotifications@@XZ ; CvPlayer::GetNotifications
	mov	ecx, eax
	call	?Add@CvNotifications@@QAEHW4NotificationTypes@@PBD1HHHH@Z ; CvNotifications::Add

; 835  : 			}

	mov	BYTE PTR __$EHRec$[esp+516], 8
	mov	esi, DWORD PTR __imp_??1String@Localization@@UAE@XZ
	lea	ecx, DWORD PTR _strMessage$223161[esp+508]
	call	esi
	lea	ecx, DWORD PTR _strSummary$223158[esp+508]

; 836  : 			else

	jmp	$LN54@ResponsePl
$LN2@ResponsePl:

; 837  : 			{
; 838  : 				Localization::String strSummary = Localization::Lookup("TXT_KEY_DEAL_REJECTED");

	lea	eax, DWORD PTR _strSummary$223171[esp+508]
	push	OFFSET $SG223173
	push	eax
	call	DWORD PTR __imp_?Lookup@Localization@@YA?AVString@1@PBD@Z

; 839  : 				Localization::String strMessage = Localization::Lookup("TXT_KEY_DEAL_REJECTED_BY_THEM");

	lea	ecx, DWORD PTR _strMessage$223174[esp+516]
	push	OFFSET $SG223176
	push	ecx
	mov	DWORD PTR __$EHRec$[esp+532], 12	; 0000000cH
	call	DWORD PTR __imp_?Lookup@Localization@@YA?AVString@1@PBD@Z
	add	esp, 16					; 00000010H

; 840  : 				strMessage << kToPlayer.getNickName();

	mov	ecx, esi
	mov	BYTE PTR __$EHRec$[esp+516], 13		; 0000000dH
	call	?getNickName@CvPlayer@@QBEQBDXZ		; CvPlayer::getNickName
	push	eax
	lea	ecx, DWORD PTR _strMessage$223174[esp+512]
	call	DWORD PTR __imp_?PushArgument@String@Localization@@QAE_NPBD@Z

; 841  : 				kFromPlayer.GetNotifications()->Add(NOTIFICATION_PLAYER_DEAL_RESOLVED, strMessage.toUTF8(), strSummary.toUTF8(), eToPlayer, -1, -1);

	push	-1
	push	-1
	push	-1
	push	ebx
	mov	ebx, DWORD PTR __imp_?toUTF8@String@Localization@@QAEPBDXZ
	lea	ecx, DWORD PTR _strSummary$223171[esp+524]
	call	ebx
	push	eax
	lea	ecx, DWORD PTR _strMessage$223174[esp+528]
	call	ebx
	push	eax
	push	-991884431				; c4e10b71H
	mov	ecx, edi
	call	?GetNotifications@CvPlayer@@QBEPAVCvNotifications@@XZ ; CvPlayer::GetNotifications
	mov	ecx, eax
	call	?Add@CvNotifications@@QAEHW4NotificationTypes@@PBD1HHHH@Z ; CvNotifications::Add

; 842  : 
; 843  : 				strSummary = Localization::Lookup("TXT_KEY_DEAL_REJECTED");

	lea	edx, DWORD PTR $T224195[esp+508]
	push	OFFSET $SG223179
	push	edx
	call	DWORD PTR __imp_?Lookup@Localization@@YA?AVString@1@PBD@Z
	add	esp, 8
	push	eax
	lea	ecx, DWORD PTR _strSummary$223171[esp+512]
	mov	BYTE PTR __$EHRec$[esp+520], 14		; 0000000eH
	call	DWORD PTR __imp_??4String@Localization@@QAEAAV01@ABV01@@Z
	lea	ecx, DWORD PTR $T224195[esp+508]
	mov	BYTE PTR __$EHRec$[esp+516], 13		; 0000000dH
	call	DWORD PTR __imp_??1String@Localization@@UAE@XZ

; 844  : 				strMessage = Localization::Lookup("TXT_KEY_DEAL_REJECTED_BY_YOU");

	lea	eax, DWORD PTR $T224196[esp+508]
	push	OFFSET $SG223181
	push	eax
	call	DWORD PTR __imp_?Lookup@Localization@@YA?AVString@1@PBD@Z
	add	esp, 8
	push	eax
	lea	ecx, DWORD PTR _strMessage$223174[esp+512]
	mov	BYTE PTR __$EHRec$[esp+520], 15		; 0000000fH
	call	DWORD PTR __imp_??4String@Localization@@QAEAAV01@ABV01@@Z
	lea	ecx, DWORD PTR $T224196[esp+508]
	mov	BYTE PTR __$EHRec$[esp+516], 13		; 0000000dH
	call	DWORD PTR __imp_??1String@Localization@@UAE@XZ

; 845  : 				strMessage << kFromPlayer.getNickName();

	mov	ecx, edi
	call	?getNickName@CvPlayer@@QBEQBDXZ		; CvPlayer::getNickName
	push	eax
	lea	ecx, DWORD PTR _strMessage$223174[esp+512]
	call	DWORD PTR __imp_?PushArgument@String@Localization@@QAE_NPBD@Z

; 846  : 				kToPlayer.GetNotifications()->Add(NOTIFICATION_PLAYER_DEAL_RESOLVED, strMessage.toUTF8(), strSummary.toUTF8(), eFromPlayer, -1, -1);

	push	-1
	push	-1
	push	-1
	push	ebp
	lea	ecx, DWORD PTR _strSummary$223171[esp+524]
	call	ebx
	push	eax
	lea	ecx, DWORD PTR _strMessage$223174[esp+528]
	call	ebx
	push	eax
	push	-991884431				; c4e10b71H
	mov	ecx, esi
	call	?GetNotifications@CvPlayer@@QBEPAVCvNotifications@@XZ ; CvPlayer::GetNotifications
	mov	ecx, eax
	call	?Add@CvNotifications@@QAEHW4NotificationTypes@@PBD1HHHH@Z ; CvNotifications::Add

; 847  : 			}

	mov	BYTE PTR __$EHRec$[esp+516], 12		; 0000000cH
	mov	esi, DWORD PTR __imp_??1String@Localization@@UAE@XZ
	lea	ecx, DWORD PTR _strMessage$223174[esp+508]
	call	esi
	lea	ecx, DWORD PTR _strSummary$223171[esp+508]
$LN54@ResponsePl:
	mov	DWORD PTR __$EHRec$[esp+516], -1
	call	esi

; 848  : 		}
; 849  : 	}
; 850  : }

	mov	ecx, DWORD PTR __$EHRec$[esp+508]
	pop	edi
	pop	esi
	pop	ebp
	pop	ebx
	mov	DWORD PTR fs:0, ecx
	add	esp, 492				; 000001ecH
	ret	20					; 00000014H
_TEXT	ENDS
;	COMDAT text$x
text$x	SEGMENT
__unwindfunclet$?ResponsePlayerDealFinalized@CvDllNetMessageHandler@@UAGXW4PlayerTypes@@00_N@Z$0:
	lea	ecx, DWORD PTR _strMessage$223122[ebp]
	jmp	DWORD PTR __imp_??1String@Localization@@UAE@XZ
__unwindfunclet$?ResponsePlayerDealFinalized@CvDllNetMessageHandler@@UAGXW4PlayerTypes@@00_N@Z$1:
	lea	ecx, DWORD PTR _strSummary$223123[ebp]
	jmp	DWORD PTR __imp_??1String@Localization@@UAE@XZ
__unwindfunclet$?ResponsePlayerDealFinalized@CvDllNetMessageHandler@@UAGXW4PlayerTypes@@00_N@Z$2:
	lea	ecx, DWORD PTR $T224182[ebp]
	jmp	DWORD PTR __imp_??1String@Localization@@UAE@XZ
__unwindfunclet$?ResponsePlayerDealFinalized@CvDllNetMessageHandler@@UAGXW4PlayerTypes@@00_N@Z$3:
	lea	ecx, DWORD PTR $T224184[ebp]
	jmp	DWORD PTR __imp_??1String@Localization@@UAE@XZ
__unwindfunclet$?ResponsePlayerDealFinalized@CvDllNetMessageHandler@@UAGXW4PlayerTypes@@00_N@Z$4:
	lea	ecx, DWORD PTR _strSummary$223144[ebp]
	jmp	DWORD PTR __imp_??1String@Localization@@UAE@XZ
__unwindfunclet$?ResponsePlayerDealFinalized@CvDllNetMessageHandler@@UAGXW4PlayerTypes@@00_N@Z$5:
	lea	ecx, DWORD PTR _strMessage$223147[ebp]
	jmp	DWORD PTR __imp_??1String@Localization@@UAE@XZ
__unwindfunclet$?ResponsePlayerDealFinalized@CvDllNetMessageHandler@@UAGXW4PlayerTypes@@00_N@Z$6:
	lea	ecx, DWORD PTR $T224187[ebp]
	jmp	DWORD PTR __imp_??1String@Localization@@UAE@XZ
__unwindfunclet$?ResponsePlayerDealFinalized@CvDllNetMessageHandler@@UAGXW4PlayerTypes@@00_N@Z$7:
	lea	ecx, DWORD PTR $T224188[ebp]
	jmp	DWORD PTR __imp_??1String@Localization@@UAE@XZ
__unwindfunclet$?ResponsePlayerDealFinalized@CvDllNetMessageHandler@@UAGXW4PlayerTypes@@00_N@Z$8:
	lea	ecx, DWORD PTR _strSummary$223158[ebp]
	jmp	DWORD PTR __imp_??1String@Localization@@UAE@XZ
__unwindfunclet$?ResponsePlayerDealFinalized@CvDllNetMessageHandler@@UAGXW4PlayerTypes@@00_N@Z$9:
	lea	ecx, DWORD PTR _strMessage$223161[ebp]
	jmp	DWORD PTR __imp_??1String@Localization@@UAE@XZ
__unwindfunclet$?ResponsePlayerDealFinalized@CvDllNetMessageHandler@@UAGXW4PlayerTypes@@00_N@Z$10:
	lea	ecx, DWORD PTR $T224191[ebp]
	jmp	DWORD PTR __imp_??1String@Localization@@UAE@XZ
__unwindfunclet$?ResponsePlayerDealFinalized@CvDllNetMessageHandler@@UAGXW4PlayerTypes@@00_N@Z$11:
	lea	ecx, DWORD PTR $T224192[ebp]
	jmp	DWORD PTR __imp_??1String@Localization@@UAE@XZ
__unwindfunclet$?ResponsePlayerDealFinalized@CvDllNetMessageHandler@@UAGXW4PlayerTypes@@00_N@Z$12:
	lea	ecx, DWORD PTR _strSummary$223171[ebp]
	jmp	DWORD PTR __imp_??1String@Localization@@UAE@XZ
__unwindfunclet$?ResponsePlayerDealFinalized@CvDllNetMessageHandler@@UAGXW4PlayerTypes@@00_N@Z$13:
	lea	ecx, DWORD PTR _strMessage$223174[ebp]
	jmp	DWORD PTR __imp_??1String@Localization@@UAE@XZ
__unwindfunclet$?ResponsePlayerDealFinalized@CvDllNetMessageHandler@@UAGXW4PlayerTypes@@00_N@Z$14:
	lea	ecx, DWORD PTR $T224195[ebp]
	jmp	DWORD PTR __imp_??1String@Localization@@UAE@XZ
__unwindfunclet$?ResponsePlayerDealFinalized@CvDllNetMessageHandler@@UAGXW4PlayerTypes@@00_N@Z$15:
	lea	ecx, DWORD PTR $T224196[ebp]
	jmp	DWORD PTR __imp_??1String@Localization@@UAE@XZ
__ehhandler$?ResponsePlayerDealFinalized@CvDllNetMessageHandler@@UAGXW4PlayerTypes@@00_N@Z:
	mov	eax, OFFSET __ehfuncinfo$?ResponsePlayerDealFinalized@CvDllNetMessageHandler@@UAGXW4PlayerTypes@@00_N@Z
	jmp	___CxxFrameHandler3
text$x	ENDS
?ResponsePlayerDealFinalized@CvDllNetMessageHandler@@UAGXW4PlayerTypes@@00_N@Z ENDP ; CvDllNetMessageHandler::ResponsePlayerDealFinalized
EXTRN	?setOption@CvPlayer@@QAEXW4PlayerOptionTypes@@_N@Z:PROC ; CvPlayer::setOption
; Function compile flags: /Ogtpy
;	COMDAT ?ResponsePlayerOption@CvDllNetMessageHandler@@UAGXW4PlayerTypes@@W4PlayerOptionTypes@@_N@Z
_TEXT	SEGMENT
_this$ = 8						; size = 4
_ePlayer$ = 12						; size = 4
_eOption$ = 16						; size = 4
_bValue$ = 20						; size = 1
?ResponsePlayerOption@CvDllNetMessageHandler@@UAGXW4PlayerTypes@@W4PlayerOptionTypes@@_N@Z PROC ; CvDllNetMessageHandler::ResponsePlayerOption, COMDAT

; 854  : 	GET_PLAYER(ePlayer).setOption(eOption, bValue);

	mov	eax, DWORD PTR _bValue$[esp-4]
	mov	ecx, DWORD PTR _eOption$[esp-4]
	push	eax
	push	ecx
	mov	ecx, DWORD PTR _ePlayer$[esp+4]
	imul	ecx, 63236				; 0000f704H
	add	ecx, DWORD PTR ?m_aPlayers@CvPlayerAI@@1PAV1@A ; CvPlayerAI::m_aPlayers
	call	?setOption@CvPlayer@@QAEXW4PlayerOptionTypes@@_N@Z ; CvPlayer::setOption

; 855  : }

	ret	16					; 00000010H
?ResponsePlayerOption@CvDllNetMessageHandler@@UAGXW4PlayerTypes@@W4PlayerOptionTypes@@_N@Z ENDP ; CvDllNetMessageHandler::ResponsePlayerOption
_TEXT	ENDS
EXTRN	?DoChangeProtectionFromMajor@CvMinorCivAI@@QAEXW4PlayerTypes@@_N1@Z:PROC ; CvMinorCivAI::DoChangeProtectionFromMajor
; Function compile flags: /Ogtpy
;	COMDAT ?ResponsePledgeMinorProtection@CvDllNetMessageHandler@@UAGXW4PlayerTypes@@0_N1@Z
_TEXT	SEGMENT
_this$ = 8						; size = 4
_ePlayer$ = 12						; size = 4
_eMinor$ = 16						; size = 4
_bValue$ = 20						; size = 1
_bPledgeNowBroken$ = 24					; size = 1
?ResponsePledgeMinorProtection@CvDllNetMessageHandler@@UAGXW4PlayerTypes@@0_N1@Z PROC ; CvDllNetMessageHandler::ResponsePledgeMinorProtection, COMDAT

; 859  : 	GET_PLAYER(eMinor).GetMinorCivAI()->DoChangeProtectionFromMajor(ePlayer, bValue, bPledgeNowBroken);

	mov	ecx, DWORD PTR _eMinor$[esp-4]
	mov	eax, DWORD PTR _bPledgeNowBroken$[esp-4]
	imul	ecx, 63236				; 0000f704H
	mov	edx, DWORD PTR _bValue$[esp-4]
	add	ecx, DWORD PTR ?m_aPlayers@CvPlayerAI@@1PAV1@A ; CvPlayerAI::m_aPlayers
	push	eax
	mov	eax, DWORD PTR _ePlayer$[esp]
	push	edx
	push	eax
	call	?GetMinorCivAI@CvPlayer@@QBEPAVCvMinorCivAI@@XZ ; CvPlayer::GetMinorCivAI
	mov	ecx, eax
	call	?DoChangeProtectionFromMajor@CvMinorCivAI@@QAEXW4PlayerTypes@@_N1@Z ; CvMinorCivAI::DoChangeProtectionFromMajor

; 860  : }

	ret	20					; 00000014H
?ResponsePledgeMinorProtection@CvDllNetMessageHandler@@UAGXW4PlayerTypes@@0_N1@Z ENDP ; CvDllNetMessageHandler::ResponsePledgeMinorProtection
_TEXT	ENDS
EXTRN	?PushMission@CvUnit@@QAEXW4MissionTypes@@HHH_N1W4MissionAITypes@@PAVCvPlot@@PAV1@@Z:PROC ; CvUnit::PushMission
EXTRN	?dispatchingNetMessage@CvUnit@@SAX_N@Z:PROC	; CvUnit::dispatchingNetMessage
; Function compile flags: /Ogtpy
;	COMDAT ?ResponsePushMission@CvDllNetMessageHandler@@UAGXW4PlayerTypes@@HW4MissionTypes@@HHH_N@Z
_TEXT	SEGMENT
_this$ = 8						; size = 4
_ePlayer$ = 12						; size = 4
_iUnitID$ = 16						; size = 4
_eMission$ = 20						; size = 4
_iData1$ = 24						; size = 4
_iData2$ = 28						; size = 4
_iFlags$ = 32						; size = 4
_bShift$ = 36						; size = 1
?ResponsePushMission@CvDllNetMessageHandler@@UAGXW4PlayerTypes@@HW4MissionTypes@@HHH_N@Z PROC ; CvDllNetMessageHandler::ResponsePushMission, COMDAT

; 864  : 	CvUnit::dispatchingNetMessage(true);

	push	1
	call	?dispatchingNetMessage@CvUnit@@SAX_N@Z	; CvUnit::dispatchingNetMessage

; 865  : 
; 866  : 	CvPlayerAI& kPlayer = GET_PLAYER(ePlayer);

	mov	ecx, DWORD PTR _ePlayer$[esp]

; 867  : 	CvUnit* pkUnit = kPlayer.getUnit(iUnitID);

	mov	eax, DWORD PTR _iUnitID$[esp]
	imul	ecx, 63236				; 0000f704H
	add	ecx, DWORD PTR ?m_aPlayers@CvPlayerAI@@1PAV1@A ; CvPlayerAI::m_aPlayers
	add	esp, 4
	push	eax
	call	?getUnit@CvPlayer@@QAEPAVCvUnit@@H@Z	; CvPlayer::getUnit

; 868  : 
; 869  : 	if(pkUnit != NULL)

	test	eax, eax
	je	SHORT $LN1@ResponsePu

; 870  : 	{
; 871  : 		pkUnit->PushMission(eMission, iData1, iData2, iFlags, bShift, true);

	mov	ecx, DWORD PTR _bShift$[esp-4]
	mov	edx, DWORD PTR _iFlags$[esp-4]
	push	0
	push	0
	push	-1
	push	1
	push	ecx
	mov	ecx, DWORD PTR _iData2$[esp+16]
	push	edx
	mov	edx, DWORD PTR _iData1$[esp+20]
	push	ecx
	mov	ecx, DWORD PTR _eMission$[esp+24]
	push	edx
	push	ecx
	mov	ecx, eax
	call	?PushMission@CvUnit@@QAEXW4MissionTypes@@HHH_N1W4MissionAITypes@@PAVCvPlot@@PAV1@@Z ; CvUnit::PushMission
$LN1@ResponsePu:

; 872  : 	}
; 873  : 
; 874  : 	CvUnit::dispatchingNetMessage(false);

	push	0
	call	?dispatchingNetMessage@CvUnit@@SAX_N@Z	; CvUnit::dispatchingNetMessage
	pop	ecx

; 875  : }

	ret	32					; 00000020H
?ResponsePushMission@CvDllNetMessageHandler@@UAGXW4PlayerTypes@@HW4MissionTypes@@HHH_N@Z ENDP ; CvDllNetMessageHandler::ResponsePushMission
_TEXT	ENDS
EXTRN	?ChangeNumFreeGreatPeople@CvPlayer@@QAEXH@Z:PROC ; CvPlayer::ChangeNumFreeGreatPeople
EXTRN	?DoSpawnGreatPerson@CvCityCitizens@@QAEXW4UnitTypes@@_N1@Z:PROC ; CvCityCitizens::DoSpawnGreatPerson
EXTRN	?GetCityCitizens@CvCity@@QBEPAVCvCityCitizens@@XZ:PROC ; CvCity::GetCityCitizens
EXTRN	?GetGreatPersonSpawnCity@CvPlayer@@QAEPAVCvCity@@W4UnitTypes@@@Z:PROC ; CvPlayer::GetGreatPersonSpawnCity
; Function compile flags: /Ogtpy
;	COMDAT ?ResponseGreatPersonChoice@CvDllNetMessageHandler@@UAGXW4PlayerTypes@@W4UnitTypes@@@Z
_TEXT	SEGMENT
_this$ = 8						; size = 4
_ePlayer$ = 12						; size = 4
_eGreatPersonUnit$ = 16					; size = 4
?ResponseGreatPersonChoice@CvDllNetMessageHandler@@UAGXW4PlayerTypes@@W4UnitTypes@@@Z PROC ; CvDllNetMessageHandler::ResponseGreatPersonChoice, COMDAT

; 878  : {

	push	esi

; 879  : 	CvPlayerAI& kPlayer = GET_PLAYER(ePlayer);

	mov	esi, DWORD PTR _ePlayer$[esp]
	imul	esi, 63236				; 0000f704H
	add	esi, DWORD PTR ?m_aPlayers@CvPlayerAI@@1PAV1@A ; CvPlayerAI::m_aPlayers
	push	edi

; 880  : 	CvCity* pCity = kPlayer.GetGreatPersonSpawnCity(eGreatPersonUnit);

	mov	edi, DWORD PTR _eGreatPersonUnit$[esp+4]
	push	edi
	mov	ecx, esi
	call	?GetGreatPersonSpawnCity@CvPlayer@@QAEPAVCvCity@@W4UnitTypes@@@Z ; CvPlayer::GetGreatPersonSpawnCity

; 881  : 	if(pCity)

	test	eax, eax
	je	SHORT $LN1@ResponseGr

; 882  : 	{
; 883  : 		// GJS NQMP - changed 2nd parameter to false so that "free" Great People from liberty finisher & buildings are actually free
; 884  : 		pCity->GetCityCitizens()->DoSpawnGreatPerson(eGreatPersonUnit, false, false);

	push	0
	push	0
	push	edi
	mov	ecx, eax
	call	?GetCityCitizens@CvCity@@QBEPAVCvCityCitizens@@XZ ; CvCity::GetCityCitizens
	mov	ecx, eax
	call	?DoSpawnGreatPerson@CvCityCitizens@@QAEXW4UnitTypes@@_N1@Z ; CvCityCitizens::DoSpawnGreatPerson
$LN1@ResponseGr:

; 885  : 	}
; 886  : 	kPlayer.ChangeNumFreeGreatPeople(-1);

	push	-1
	mov	ecx, esi
	call	?ChangeNumFreeGreatPeople@CvPlayer@@QAEXH@Z ; CvPlayer::ChangeNumFreeGreatPeople
	pop	edi
	pop	esi

; 887  : }

	ret	12					; 0000000cH
?ResponseGreatPersonChoice@CvDllNetMessageHandler@@UAGXW4PlayerTypes@@W4UnitTypes@@@Z ENDP ; CvDllNetMessageHandler::ResponseGreatPersonChoice
_TEXT	ENDS
EXTRN	?SetUnitBaktun@CvPlayerTraits@@QAEXW4UnitTypes@@@Z:PROC ; CvPlayerTraits::SetUnitBaktun
EXTRN	?GetPlayerTraits@CvPlayer@@QBEPAVCvPlayerTraits@@XZ:PROC ; CvPlayer::GetPlayerTraits
EXTRN	?ChangeNumMayaBoosts@CvPlayer@@QAEXH@Z:PROC	; CvPlayer::ChangeNumMayaBoosts
; Function compile flags: /Ogtpy
;	COMDAT ?ResponseMayaBonusChoice@CvDllNetMessageHandler@@UAGXW4PlayerTypes@@W4UnitTypes@@@Z
_TEXT	SEGMENT
_this$ = 8						; size = 4
_ePlayer$ = 12						; size = 4
_eGreatPersonUnit$ = 16					; size = 4
?ResponseMayaBonusChoice@CvDllNetMessageHandler@@UAGXW4PlayerTypes@@W4UnitTypes@@@Z PROC ; CvDllNetMessageHandler::ResponseMayaBonusChoice, COMDAT

; 890  : {

	push	esi

; 891  : 	CvPlayerAI& kPlayer = GET_PLAYER(ePlayer);

	mov	esi, DWORD PTR _ePlayer$[esp]
	imul	esi, 63236				; 0000f704H
	add	esi, DWORD PTR ?m_aPlayers@CvPlayerAI@@1PAV1@A ; CvPlayerAI::m_aPlayers
	push	edi

; 892  : 	CvCity* pCity = kPlayer.GetGreatPersonSpawnCity(eGreatPersonUnit);

	mov	edi, DWORD PTR _eGreatPersonUnit$[esp+4]
	push	edi
	mov	ecx, esi
	call	?GetGreatPersonSpawnCity@CvPlayer@@QAEPAVCvCity@@W4UnitTypes@@@Z ; CvPlayer::GetGreatPersonSpawnCity

; 893  : 	if(pCity)

	test	eax, eax
	je	SHORT $LN1@ResponseMa

; 894  : 	{
; 895  : 		pCity->GetCityCitizens()->DoSpawnGreatPerson(eGreatPersonUnit, true, false);

	push	0
	push	1
	push	edi
	mov	ecx, eax
	call	?GetCityCitizens@CvCity@@QBEPAVCvCityCitizens@@XZ ; CvCity::GetCityCitizens
	mov	ecx, eax
	call	?DoSpawnGreatPerson@CvCityCitizens@@QAEXW4UnitTypes@@_N1@Z ; CvCityCitizens::DoSpawnGreatPerson
$LN1@ResponseMa:

; 896  : 	}
; 897  : 	kPlayer.ChangeNumMayaBoosts(-1);

	push	-1
	mov	ecx, esi
	call	?ChangeNumMayaBoosts@CvPlayer@@QAEXH@Z	; CvPlayer::ChangeNumMayaBoosts

; 898  : 	kPlayer.GetPlayerTraits()->SetUnitBaktun(eGreatPersonUnit);

	push	edi
	mov	ecx, esi
	call	?GetPlayerTraits@CvPlayer@@QBEPAVCvPlayerTraits@@XZ ; CvPlayer::GetPlayerTraits
	mov	ecx, eax
	call	?SetUnitBaktun@CvPlayerTraits@@QAEXW4UnitTypes@@@Z ; CvPlayerTraits::SetUnitBaktun
	pop	edi
	pop	esi

; 899  : }

	ret	12					; 0000000cH
?ResponseMayaBonusChoice@CvDllNetMessageHandler@@UAGXW4PlayerTypes@@W4UnitTypes@@@Z ENDP ; CvDllNetMessageHandler::ResponseMayaBonusChoice
_TEXT	ENDS
EXTRN	?ChangeNumFaithGreatPeople@CvPlayer@@QAEXH@Z:PROC ; CvPlayer::ChangeNumFaithGreatPeople
; Function compile flags: /Ogtpy
;	COMDAT ?ResponseFaithGreatPersonChoice@CvDllNetMessageHandler@@UAGXW4PlayerTypes@@W4UnitTypes@@@Z
_TEXT	SEGMENT
_this$ = 8						; size = 4
_ePlayer$ = 12						; size = 4
_eGreatPersonUnit$ = 16					; size = 4
?ResponseFaithGreatPersonChoice@CvDllNetMessageHandler@@UAGXW4PlayerTypes@@W4UnitTypes@@@Z PROC ; CvDllNetMessageHandler::ResponseFaithGreatPersonChoice, COMDAT

; 902  : {

	push	esi

; 903  : 	CvPlayerAI& kPlayer = GET_PLAYER(ePlayer);

	mov	esi, DWORD PTR _ePlayer$[esp]
	imul	esi, 63236				; 0000f704H
	add	esi, DWORD PTR ?m_aPlayers@CvPlayerAI@@1PAV1@A ; CvPlayerAI::m_aPlayers
	push	edi

; 904  : 	CvCity* pCity = kPlayer.GetGreatPersonSpawnCity(eGreatPersonUnit);

	mov	edi, DWORD PTR _eGreatPersonUnit$[esp+4]
	push	edi
	mov	ecx, esi
	call	?GetGreatPersonSpawnCity@CvPlayer@@QAEPAVCvCity@@W4UnitTypes@@@Z ; CvPlayer::GetGreatPersonSpawnCity

; 905  : 	if(pCity)

	test	eax, eax
	je	SHORT $LN1@ResponseFa

; 906  : 	{
; 907  : 		pCity->GetCityCitizens()->DoSpawnGreatPerson(eGreatPersonUnit, true, true);

	push	1
	push	1
	push	edi
	mov	ecx, eax
	call	?GetCityCitizens@CvCity@@QBEPAVCvCityCitizens@@XZ ; CvCity::GetCityCitizens
	mov	ecx, eax
	call	?DoSpawnGreatPerson@CvCityCitizens@@QAEXW4UnitTypes@@_N1@Z ; CvCityCitizens::DoSpawnGreatPerson
$LN1@ResponseFa:

; 908  : 	}
; 909  : 	kPlayer.ChangeNumFaithGreatPeople(-1);

	push	-1
	mov	ecx, esi
	call	?ChangeNumFaithGreatPeople@CvPlayer@@QAEXH@Z ; CvPlayer::ChangeNumFaithGreatPeople
	pop	edi
	pop	esi

; 910  : }

	ret	12					; 0000000cH
?ResponseFaithGreatPersonChoice@CvDllNetMessageHandler@@UAGXW4PlayerTypes@@W4UnitTypes@@@Z ENDP ; CvDllNetMessageHandler::ResponseFaithGreatPersonChoice
_TEXT	ENDS
EXTRN	?DoArchaeologyChoice@CvPlayerCulture@@QAEXW4ArchaeologyChoiceType@@@Z:PROC ; CvPlayerCulture::DoArchaeologyChoice
EXTRN	?GetCulture@CvPlayer@@QBEPAVCvPlayerCulture@@XZ:PROC ; CvPlayer::GetCulture
; Function compile flags: /Ogtpy
;	COMDAT ?ResponseArchaeologyChoice@CvDllNetMessageHandler@@UAGXW4PlayerTypes@@W4ArchaeologyChoiceType@@@Z
_TEXT	SEGMENT
_this$ = 8						; size = 4
_ePlayer$ = 12						; size = 4
_eChoice$ = 16						; size = 4
?ResponseArchaeologyChoice@CvDllNetMessageHandler@@UAGXW4PlayerTypes@@W4ArchaeologyChoiceType@@@Z PROC ; CvDllNetMessageHandler::ResponseArchaeologyChoice, COMDAT

; 923  : 	CvPlayerAI& kPlayer = GET_PLAYER(ePlayer);

	mov	ecx, DWORD PTR _ePlayer$[esp-4]

; 924  : 	kPlayer.GetCulture()->DoArchaeologyChoice(eChoice);

	mov	eax, DWORD PTR _eChoice$[esp-4]
	imul	ecx, 63236				; 0000f704H
	add	ecx, DWORD PTR ?m_aPlayers@CvPlayerAI@@1PAV1@A ; CvPlayerAI::m_aPlayers
	push	eax
	call	?GetCulture@CvPlayer@@QBEPAVCvPlayerCulture@@XZ ; CvPlayer::GetCulture
	mov	ecx, eax
	call	?DoArchaeologyChoice@CvPlayerCulture@@QAEXW4ArchaeologyChoiceType@@@Z ; CvPlayerCulture::DoArchaeologyChoice

; 925  : }

	ret	12					; 0000000cH
?ResponseArchaeologyChoice@CvDllNetMessageHandler@@UAGXW4PlayerTypes@@W4ArchaeologyChoiceType@@@Z ENDP ; CvDllNetMessageHandler::ResponseArchaeologyChoice
_TEXT	ENDS
EXTRN	?SetPolicyBranchUnlocked@CvPlayerPolicies@@QAEXW4PolicyBranchTypes@@_N1@Z:PROC ; CvPlayerPolicies::SetPolicyBranchUnlocked
EXTRN	?GetPlayerPolicies@CvPlayer@@QBEPAVCvPlayerPolicies@@XZ:PROC ; CvPlayer::GetPlayerPolicies
; Function compile flags: /Ogtpy
;	COMDAT ?ResponseIdeologyChoice@CvDllNetMessageHandler@@UAGXW4PlayerTypes@@W4PolicyBranchTypes@@@Z
_TEXT	SEGMENT
_this$ = 8						; size = 4
_ePlayer$ = 12						; size = 4
_eChoice$ = 16						; size = 4
?ResponseIdeologyChoice@CvDllNetMessageHandler@@UAGXW4PlayerTypes@@W4PolicyBranchTypes@@@Z PROC ; CvDllNetMessageHandler::ResponseIdeologyChoice, COMDAT

; 929  : 	CvPlayerAI& kPlayer = GET_PLAYER(ePlayer);

	mov	ecx, DWORD PTR _ePlayer$[esp-4]

; 930  : 	kPlayer.GetPlayerPolicies()->SetPolicyBranchUnlocked(eChoice, true, false);

	mov	eax, DWORD PTR _eChoice$[esp-4]
	imul	ecx, 63236				; 0000f704H
	add	ecx, DWORD PTR ?m_aPlayers@CvPlayerAI@@1PAV1@A ; CvPlayerAI::m_aPlayers
	push	0
	push	1
	push	eax
	call	?GetPlayerPolicies@CvPlayer@@QBEPAVCvPlayerPolicies@@XZ ; CvPlayer::GetPlayerPolicies
	mov	ecx, eax
	call	?SetPolicyBranchUnlocked@CvPlayerPolicies@@QAEXW4PolicyBranchTypes@@_N1@Z ; CvPlayerPolicies::SetPolicyBranchUnlocked

; 931  : }

	ret	12					; 0000000cH
?ResponseIdeologyChoice@CvDllNetMessageHandler@@UAGXW4PlayerTypes@@W4PolicyBranchTypes@@@Z ENDP ; CvDllNetMessageHandler::ResponseIdeologyChoice
_TEXT	ENDS
EXTRN	?setName@CvCity@@QAEXPBD_N@Z:PROC		; CvCity::setName
;	COMDAT xdata$x
; File c:\users\enormousapplepie\documents\github\lekmod\lekmod_dll\cvgamecoredllutil\include\cvstring.h
xdata$x	SEGMENT
__unwindtable$?ResponseRenameCity@CvDllNetMessageHandler@@UAGXW4PlayerTypes@@HPBD@Z DD 0ffffffffH
	DD	FLAT:__unwindfunclet$?ResponseRenameCity@CvDllNetMessageHandler@@UAGXW4PlayerTypes@@HPBD@Z$0
__ehfuncinfo$?ResponseRenameCity@CvDllNetMessageHandler@@UAGXW4PlayerTypes@@HPBD@Z DD 019930522H
	DD	01H
	DD	FLAT:__unwindtable$?ResponseRenameCity@CvDllNetMessageHandler@@UAGXW4PlayerTypes@@HPBD@Z
	DD	2 DUP(00H)
	DD	2 DUP(00H)
	DD	00H
	DD	01H
; Function compile flags: /Ogtpy
; File c:\users\enormousapplepie\documents\github\lekmod\lekmod_dll\cvgamecoredll_expansion2\cvdllnetmessagehandler.cpp
xdata$x	ENDS
;	COMDAT ?ResponseRenameCity@CvDllNetMessageHandler@@UAGXW4PlayerTypes@@HPBD@Z
_TEXT	SEGMENT
_strName$223265 = -40					; size = 28
__$EHRec$ = -12						; size = 12
_this$ = 8						; size = 4
_ePlayer$ = 12						; size = 4
_iCityID$ = 16						; size = 4
_szName$ = 20						; size = 4
?ResponseRenameCity@CvDllNetMessageHandler@@UAGXW4PlayerTypes@@HPBD@Z PROC ; CvDllNetMessageHandler::ResponseRenameCity, COMDAT

; 939  : 	CvPlayerAI& kPlayer = GET_PLAYER(ePlayer);

	mov	ecx, DWORD PTR _ePlayer$[esp-4]
	mov	eax, DWORD PTR fs:0
	imul	ecx, 63236				; 0000f704H
	push	-1
	push	__ehhandler$?ResponseRenameCity@CvDllNetMessageHandler@@UAGXW4PlayerTypes@@HPBD@Z
	push	eax

; 940  : 	CvCity* pkCity = kPlayer.getCity(iCityID);

	mov	eax, DWORD PTR _iCityID$[esp+8]
	mov	DWORD PTR fs:0, esp
	add	ecx, DWORD PTR ?m_aPlayers@CvPlayerAI@@1PAV1@A ; CvPlayerAI::m_aPlayers
	sub	esp, 28					; 0000001cH
	push	esi
	push	eax
	call	?getCity@CvPlayer@@QAEPAVCvCity@@H@Z	; CvPlayer::getCity
	mov	esi, eax

; 941  : 	if(pkCity)

	test	esi, esi
	je	SHORT $LN1@ResponseRe

; 942  : 	{
; 943  : 		CvString strName = szName;

	mov	eax, DWORD PTR _szName$[esp+40]
	test	eax, eax
	jne	SHORT $LN10@ResponseRe
	mov	eax, OFFSET ??_C@_00CNPNBAHC@?$AA@
$LN10@ResponseRe:
	push	eax
	lea	ecx, DWORD PTR _strName$223265[esp+48]
	call	DWORD PTR __imp_??0?$basic_string@DU?$char_traits@D@std@@V?$allocator@D@2@@std@@QAE@PBD@Z

; 944  : 		pkCity->setName(strName);

	push	0
	lea	ecx, DWORD PTR _strName$223265[esp+48]
	mov	DWORD PTR __$EHRec$[esp+56], 0
	call	DWORD PTR __imp_?c_str@?$basic_string@DU?$char_traits@D@std@@V?$allocator@D@2@@std@@QBEPBDXZ
	push	eax
	mov	ecx, esi
	call	?setName@CvCity@@QAEXPBD_N@Z		; CvCity::setName

; 945  : 	}

	lea	ecx, DWORD PTR _strName$223265[esp+44]
	mov	DWORD PTR __$EHRec$[esp+52], -1
	call	DWORD PTR __imp_??1?$basic_string@DU?$char_traits@D@std@@V?$allocator@D@2@@std@@QAE@XZ
$LN1@ResponseRe:

; 946  : }

	mov	ecx, DWORD PTR __$EHRec$[esp+44]
	pop	esi
	mov	DWORD PTR fs:0, ecx
	add	esp, 40					; 00000028H
	ret	16					; 00000010H
_TEXT	ENDS
;	COMDAT text$x
text$x	SEGMENT
__unwindfunclet$?ResponseRenameCity@CvDllNetMessageHandler@@UAGXW4PlayerTypes@@HPBD@Z$0:
	lea	ecx, DWORD PTR _strName$223265[ebp]
	jmp	??1CvString@@QAE@XZ			; CvString::~CvString
__ehhandler$?ResponseRenameCity@CvDllNetMessageHandler@@UAGXW4PlayerTypes@@HPBD@Z:
	mov	eax, OFFSET __ehfuncinfo$?ResponseRenameCity@CvDllNetMessageHandler@@UAGXW4PlayerTypes@@HPBD@Z
	jmp	___CxxFrameHandler3
text$x	ENDS
?ResponseRenameCity@CvDllNetMessageHandler@@UAGXW4PlayerTypes@@HPBD@Z ENDP ; CvDllNetMessageHandler::ResponseRenameCity
EXTRN	?setName@CvUnit@@QAEXVCvString@@@Z:PROC		; CvUnit::setName
;	COMDAT xdata$x
; File c:\users\enormousapplepie\documents\github\lekmod\lekmod_dll\cvgamecoredllutil\include\cvstring.h
xdata$x	SEGMENT
__unwindtable$?ResponseRenameUnit@CvDllNetMessageHandler@@UAGXW4PlayerTypes@@HPBD@Z DD 0ffffffffH
	DD	FLAT:__unwindfunclet$?ResponseRenameUnit@CvDllNetMessageHandler@@UAGXW4PlayerTypes@@HPBD@Z$0
__ehfuncinfo$?ResponseRenameUnit@CvDllNetMessageHandler@@UAGXW4PlayerTypes@@HPBD@Z DD 019930522H
	DD	01H
	DD	FLAT:__unwindtable$?ResponseRenameUnit@CvDllNetMessageHandler@@UAGXW4PlayerTypes@@HPBD@Z
	DD	2 DUP(00H)
	DD	2 DUP(00H)
	DD	00H
	DD	01H
; Function compile flags: /Ogtpy
; File c:\users\enormousapplepie\documents\github\lekmod\lekmod_dll\cvgamecoredll_expansion2\cvdllnetmessagehandler.cpp
xdata$x	ENDS
;	COMDAT ?ResponseRenameUnit@CvDllNetMessageHandler@@UAGXW4PlayerTypes@@HPBD@Z
_TEXT	SEGMENT
_strName$223275 = -40					; size = 28
__$EHRec$ = -12						; size = 12
_this$ = 8						; size = 4
$T224343 = 12						; size = 4
_ePlayer$ = 12						; size = 4
_iUnitID$ = 16						; size = 4
_szName$ = 20						; size = 4
?ResponseRenameUnit@CvDllNetMessageHandler@@UAGXW4PlayerTypes@@HPBD@Z PROC ; CvDllNetMessageHandler::ResponseRenameUnit, COMDAT

; 954  : 	CvPlayerAI& kPlayer = GET_PLAYER(ePlayer);

	mov	ecx, DWORD PTR _ePlayer$[esp-4]
	mov	eax, DWORD PTR fs:0
	imul	ecx, 63236				; 0000f704H
	push	-1
	push	__ehhandler$?ResponseRenameUnit@CvDllNetMessageHandler@@UAGXW4PlayerTypes@@HPBD@Z
	push	eax

; 955  : 	CvUnit* pkUnit = kPlayer.getUnit(iUnitID);

	mov	eax, DWORD PTR _iUnitID$[esp+8]
	mov	DWORD PTR fs:0, esp
	add	ecx, DWORD PTR ?m_aPlayers@CvPlayerAI@@1PAV1@A ; CvPlayerAI::m_aPlayers
	sub	esp, 28					; 0000001cH
	push	esi
	push	eax
	call	?getUnit@CvPlayer@@QAEPAVCvUnit@@H@Z	; CvPlayer::getUnit
	mov	esi, eax

; 956  : 	if(pkUnit)

	test	esi, esi
	je	SHORT $LN1@ResponseRe@2

; 957  : 	{
; 958  : 		CvString strName = szName;

	mov	eax, DWORD PTR _szName$[esp+40]
	test	eax, eax
	jne	SHORT $LN11@ResponseRe@2
	mov	eax, OFFSET ??_C@_00CNPNBAHC@?$AA@
$LN11@ResponseRe@2:
	push	eax
	lea	ecx, DWORD PTR _strName$223275[esp+48]
	call	DWORD PTR __imp_??0?$basic_string@DU?$char_traits@D@std@@V?$allocator@D@2@@std@@QAE@PBD@Z

; 959  : 		pkUnit->setName(strName);

	sub	esp, 28					; 0000001cH
	lea	edx, DWORD PTR _strName$223275[esp+72]
	mov	DWORD PTR $T224343[esp+68], esp
	mov	ecx, esp
	push	edx
	mov	DWORD PTR __$EHRec$[esp+84], 0
	call	DWORD PTR __imp_??0?$basic_string@DU?$char_traits@D@std@@V?$allocator@D@2@@std@@QAE@ABV01@@Z
	mov	ecx, esi
	call	?setName@CvUnit@@QAEXVCvString@@@Z	; CvUnit::setName

; 960  : 	}

	lea	ecx, DWORD PTR _strName$223275[esp+44]
	mov	DWORD PTR __$EHRec$[esp+52], -1
	call	DWORD PTR __imp_??1?$basic_string@DU?$char_traits@D@std@@V?$allocator@D@2@@std@@QAE@XZ
$LN1@ResponseRe@2:

; 961  : }

	mov	ecx, DWORD PTR __$EHRec$[esp+44]
	mov	DWORD PTR fs:0, ecx
	pop	esi
	add	esp, 40					; 00000028H
	ret	16					; 00000010H
_TEXT	ENDS
;	COMDAT text$x
text$x	SEGMENT
__unwindfunclet$?ResponseRenameUnit@CvDllNetMessageHandler@@UAGXW4PlayerTypes@@HPBD@Z$0:
	lea	ecx, DWORD PTR _strName$223275[ebp]
	jmp	??1CvString@@QAE@XZ			; CvString::~CvString
__ehhandler$?ResponseRenameUnit@CvDllNetMessageHandler@@UAGXW4PlayerTypes@@HPBD@Z:
	mov	eax, OFFSET __ehfuncinfo$?ResponseRenameUnit@CvDllNetMessageHandler@@UAGXW4PlayerTypes@@HPBD@Z
	jmp	___CxxFrameHandler3
text$x	ENDS
?ResponseRenameUnit@CvDllNetMessageHandler@@UAGXW4PlayerTypes@@HPBD@Z ENDP ; CvDllNetMessageHandler::ResponseRenameUnit
EXTRN	?DoCivilianReturnLogic@CvPlayer@@QAEX_NW4PlayerTypes@@H@Z:PROC ; CvPlayer::DoCivilianReturnLogic
; Function compile flags: /Ogtpy
;	COMDAT ?ResponseReturnCivilian@CvDllNetMessageHandler@@UAGXW4PlayerTypes@@0H_N@Z
_TEXT	SEGMENT
_this$ = 8						; size = 4
_ePlayer$ = 12						; size = 4
_eToPlayer$ = 16					; size = 4
_iUnitID$ = 20						; size = 4
_bReturn$ = 24						; size = 1
?ResponseReturnCivilian@CvDllNetMessageHandler@@UAGXW4PlayerTypes@@0H_N@Z PROC ; CvDllNetMessageHandler::ResponseReturnCivilian, COMDAT

; 1029 : 	GET_PLAYER(ePlayer).DoCivilianReturnLogic(bReturn, eToPlayer, iUnitID);

	mov	eax, DWORD PTR _iUnitID$[esp-4]
	mov	ecx, DWORD PTR _eToPlayer$[esp-4]
	mov	edx, DWORD PTR _bReturn$[esp-4]
	push	eax
	push	ecx
	mov	ecx, DWORD PTR _ePlayer$[esp+4]
	imul	ecx, 63236				; 0000f704H
	add	ecx, DWORD PTR ?m_aPlayers@CvPlayerAI@@1PAV1@A ; CvPlayerAI::m_aPlayers
	push	edx
	call	?DoCivilianReturnLogic@CvPlayer@@QAEX_NW4PlayerTypes@@H@Z ; CvPlayer::DoCivilianReturnLogic

; 1030 : }

	ret	20					; 00000014H
?ResponseReturnCivilian@CvDllNetMessageHandler@@UAGXW4PlayerTypes@@0H_N@Z ENDP ; CvDllNetMessageHandler::ResponseReturnCivilian
_TEXT	ENDS
EXTRN	??1CvLuaArgsHandle@@QAE@XZ:PROC			; CvLuaArgsHandle::~CvLuaArgsHandle
EXTRN	?CallHook@LuaSupport@@YA_NPAVICvEngineScriptSystem1@@PBDPAVICvEngineScriptSystemArgs1@@AA_N@Z:PROC ; LuaSupport::CallHook
EXTRN	??0CvLuaArgsHandle@@QAE@XZ:PROC			; CvLuaArgsHandle::CvLuaArgsHandle
EXTRN	?DoSellBuilding@CvCityBuildings@@QAEXW4BuildingTypes@@@Z:PROC ; CvCityBuildings::DoSellBuilding
EXTRN	?GetCityBuildings@CvCity@@QBEPAVCvCityBuildings@@XZ:PROC ; CvCity::GetCityBuildings
;	COMDAT xdata$x
; File c:\users\enormousapplepie\documents\github\lekmod\lekmod_dll\cvgamecoredll_expansion2\lua\cvluaargshandle.h
xdata$x	SEGMENT
__unwindtable$?ResponseSellBuilding@CvDllNetMessageHandler@@UAGXW4PlayerTypes@@HW4BuildingTypes@@@Z DD 0ffffffffH
	DD	FLAT:__unwindfunclet$?ResponseSellBuilding@CvDllNetMessageHandler@@UAGXW4PlayerTypes@@HW4BuildingTypes@@@Z$0
__ehfuncinfo$?ResponseSellBuilding@CvDllNetMessageHandler@@UAGXW4PlayerTypes@@HW4BuildingTypes@@@Z DD 019930522H
	DD	01H
	DD	FLAT:__unwindtable$?ResponseSellBuilding@CvDllNetMessageHandler@@UAGXW4PlayerTypes@@HW4BuildingTypes@@@Z
	DD	2 DUP(00H)
	DD	2 DUP(00H)
	DD	00H
	DD	01H
; Function compile flags: /Ogtpy
; File c:\users\enormousapplepie\documents\github\lekmod\lekmod_dll\cvgamecoredll_expansion2\cvdllnetmessagehandler.cpp
xdata$x	ENDS
;	COMDAT ?ResponseSellBuilding@CvDllNetMessageHandler@@UAGXW4PlayerTypes@@HW4BuildingTypes@@@Z
_TEXT	SEGMENT
__$EHRec$ = -12						; size = 12
_this$ = 8						; size = 4
_bResult$223329 = 12					; size = 1
_ePlayer$ = 12						; size = 4
_args$223328 = 16					; size = 4
_iCityID$ = 16						; size = 4
_eBuilding$ = 20					; size = 4
?ResponseSellBuilding@CvDllNetMessageHandler@@UAGXW4PlayerTypes@@HW4BuildingTypes@@@Z PROC ; CvDllNetMessageHandler::ResponseSellBuilding, COMDAT

; 1033 : {

	mov	eax, DWORD PTR fs:0
	push	-1
	push	__ehhandler$?ResponseSellBuilding@CvDllNetMessageHandler@@UAGXW4PlayerTypes@@HW4BuildingTypes@@@Z
	push	eax
	mov	DWORD PTR fs:0, esp
	push	ebx

; 1034 : 	CvCity* pCity = GET_PLAYER(ePlayer).getCity(iCityID);

	mov	ebx, DWORD PTR _ePlayer$[esp+12]
	mov	ecx, ebx
	imul	ecx, 63236				; 0000f704H
	add	ecx, DWORD PTR ?m_aPlayers@CvPlayerAI@@1PAV1@A ; CvPlayerAI::m_aPlayers
	push	ebp
	mov	ebp, DWORD PTR _iCityID$[esp+16]
	push	esi
	push	edi
	push	ebp
	call	?getCity@CvPlayer@@QAEPAVCvCity@@H@Z	; CvPlayer::getCity

; 1035 : 	if(pCity)

	test	eax, eax
	je	$LN1@ResponseSe

; 1036 : 	{
; 1037 : 		pCity->GetCityBuildings()->DoSellBuilding(eBuilding);

	mov	edi, DWORD PTR _eBuilding$[esp+24]
	push	edi
	mov	ecx, eax
	call	?GetCityBuildings@CvCity@@QBEPAVCvCityBuildings@@XZ ; CvCity::GetCityBuildings
	mov	ecx, eax
	call	?DoSellBuilding@CvCityBuildings@@QAEXW4BuildingTypes@@@Z ; CvCityBuildings::DoSellBuilding

; 1038 : 
; 1039 : 		ICvEngineScriptSystem1* pkScriptSystem = gDLL->GetScriptSystem();

	mov	ecx, DWORD PTR ?gGlobals@@3VCvGlobals@@A+8564
	mov	eax, DWORD PTR [ecx]
	mov	edx, DWORD PTR [eax+12]
	call	edx
	mov	esi, eax

; 1040 : 		if (pkScriptSystem) 

	test	esi, esi
	je	SHORT $LN1@ResponseSe

; 1041 : 		{
; 1042 : 			CvLuaArgsHandle args;

	lea	ecx, DWORD PTR _args$223328[esp+24]
	call	??0CvLuaArgsHandle@@QAE@XZ		; CvLuaArgsHandle::CvLuaArgsHandle

; 1043 : 			args->Push(ePlayer);

	mov	ecx, DWORD PTR _args$223328[esp+24]
	mov	eax, DWORD PTR [ecx]
	mov	edx, DWORD PTR [eax+8]
	push	ebx
	mov	DWORD PTR __$EHRec$[esp+40], 0
	call	edx

; 1044 : 			args->Push(iCityID);

	mov	ecx, DWORD PTR _args$223328[esp+24]
	mov	eax, DWORD PTR [ecx]
	mov	edx, DWORD PTR [eax+8]
	push	ebp
	call	edx

; 1045 : 			args->Push(eBuilding);

	mov	ecx, DWORD PTR _args$223328[esp+24]
	mov	eax, DWORD PTR [ecx]
	mov	edx, DWORD PTR [eax+8]
	push	edi
	call	edx

; 1046 : 
; 1047 : 			bool bResult;
; 1048 : 			LuaSupport::CallHook(pkScriptSystem, "CitySoldBuilding", args.get(), bResult);

	mov	ecx, DWORD PTR _args$223328[esp+24]
	lea	eax, DWORD PTR _bResult$223329[esp+24]
	push	eax
	push	ecx
	push	OFFSET $SG223330
	push	esi
	call	?CallHook@LuaSupport@@YA_NPAVICvEngineScriptSystem1@@PBDPAVICvEngineScriptSystemArgs1@@AA_N@Z ; LuaSupport::CallHook
	add	esp, 16					; 00000010H

; 1049 : 		}

	lea	ecx, DWORD PTR _args$223328[esp+24]
	mov	DWORD PTR __$EHRec$[esp+36], -1
	call	??1CvLuaArgsHandle@@QAE@XZ		; CvLuaArgsHandle::~CvLuaArgsHandle
$LN1@ResponseSe:

; 1050 : 	}
; 1051 : }

	mov	ecx, DWORD PTR __$EHRec$[esp+28]
	pop	edi
	pop	esi
	pop	ebp
	mov	DWORD PTR fs:0, ecx
	pop	ebx
	add	esp, 12					; 0000000cH
	ret	16					; 00000010H
_TEXT	ENDS
;	COMDAT text$x
text$x	SEGMENT
__unwindfunclet$?ResponseSellBuilding@CvDllNetMessageHandler@@UAGXW4PlayerTypes@@HW4BuildingTypes@@@Z$0:
	lea	ecx, DWORD PTR _args$223328[ebp-4]
	jmp	??1CvLuaArgsHandle@@QAE@XZ		; CvLuaArgsHandle::~CvLuaArgsHandle
__ehhandler$?ResponseSellBuilding@CvDllNetMessageHandler@@UAGXW4PlayerTypes@@HW4BuildingTypes@@@Z:
	mov	eax, OFFSET __ehfuncinfo$?ResponseSellBuilding@CvDllNetMessageHandler@@UAGXW4PlayerTypes@@HW4BuildingTypes@@@Z
	jmp	___CxxFrameHandler3
text$x	ENDS
?ResponseSellBuilding@CvDllNetMessageHandler@@UAGXW4PlayerTypes@@HW4BuildingTypes@@@Z ENDP ; CvDllNetMessageHandler::ResponseSellBuilding
EXTRN	?SetFocusType@CvCityCitizens@@QAEXW4CityAIFocusTypes@@@Z:PROC ; CvCityCitizens::SetFocusType
; Function compile flags: /Ogtpy
;	COMDAT ?ResponseSetCityAIFocus@CvDllNetMessageHandler@@UAGXW4PlayerTypes@@HW4CityAIFocusTypes@@@Z
_TEXT	SEGMENT
_this$ = 8						; size = 4
_ePlayer$ = 12						; size = 4
_iCityID$ = 16						; size = 4
_eFocus$ = 20						; size = 4
?ResponseSetCityAIFocus@CvDllNetMessageHandler@@UAGXW4PlayerTypes@@HW4CityAIFocusTypes@@@Z PROC ; CvDllNetMessageHandler::ResponseSetCityAIFocus, COMDAT

; 1055 : 	CvCity* pCity = GET_PLAYER(ePlayer).getCity(iCityID);

	mov	ecx, DWORD PTR _ePlayer$[esp-4]
	mov	eax, DWORD PTR _iCityID$[esp-4]
	imul	ecx, 63236				; 0000f704H
	add	ecx, DWORD PTR ?m_aPlayers@CvPlayerAI@@1PAV1@A ; CvPlayerAI::m_aPlayers
	push	eax
	call	?getCity@CvPlayer@@QAEPAVCvCity@@H@Z	; CvPlayer::getCity

; 1056 : 	if(pCity != NULL)

	test	eax, eax
	je	SHORT $LN1@ResponseSe@2

; 1057 : 	{
; 1058 : 		CvCityCitizens* pkCitizens = pCity->GetCityCitizens();

	mov	ecx, eax
	call	?GetCityCitizens@CvCity@@QBEPAVCvCityCitizens@@XZ ; CvCity::GetCityCitizens

; 1059 : 		if(pkCitizens != NULL)

	test	eax, eax
	je	SHORT $LN1@ResponseSe@2

; 1060 : 		{
; 1061 : 			pkCitizens->SetFocusType(eFocus);

	mov	ecx, DWORD PTR _eFocus$[esp-4]
	push	ecx
	mov	ecx, eax
	call	?SetFocusType@CvCityCitizens@@QAEXW4CityAIFocusTypes@@@Z ; CvCityCitizens::SetFocusType
$LN1@ResponseSe@2:

; 1062 : 		}
; 1063 : 	}
; 1064 : }

	ret	16					; 00000010H
?ResponseSetCityAIFocus@CvDllNetMessageHandler@@UAGXW4PlayerTypes@@HW4CityAIFocusTypes@@@Z ENDP ; CvDllNetMessageHandler::ResponseSetCityAIFocus
_TEXT	ENDS
EXTRN	?SetForcedAvoidGrowth@CvCityCitizens@@QAEX_N@Z:PROC ; CvCityCitizens::SetForcedAvoidGrowth
; Function compile flags: /Ogtpy
;	COMDAT ?ResponseSetCityAvoidGrowth@CvDllNetMessageHandler@@UAGXW4PlayerTypes@@H_N@Z
_TEXT	SEGMENT
_this$ = 8						; size = 4
_ePlayer$ = 12						; size = 4
_iCityID$ = 16						; size = 4
_bAvoidGrowth$ = 20					; size = 1
?ResponseSetCityAvoidGrowth@CvDllNetMessageHandler@@UAGXW4PlayerTypes@@H_N@Z PROC ; CvDllNetMessageHandler::ResponseSetCityAvoidGrowth, COMDAT

; 1068 : 	CvCity* pCity = GET_PLAYER(ePlayer).getCity(iCityID);

	mov	ecx, DWORD PTR _ePlayer$[esp-4]
	mov	eax, DWORD PTR _iCityID$[esp-4]
	imul	ecx, 63236				; 0000f704H
	add	ecx, DWORD PTR ?m_aPlayers@CvPlayerAI@@1PAV1@A ; CvPlayerAI::m_aPlayers
	push	eax
	call	?getCity@CvPlayer@@QAEPAVCvCity@@H@Z	; CvPlayer::getCity

; 1069 : 	if(pCity != NULL)

	test	eax, eax
	je	SHORT $LN1@ResponseSe@3

; 1070 : 	{
; 1071 : 		CvCityCitizens* pkCitizens = pCity->GetCityCitizens();

	mov	ecx, eax
	call	?GetCityCitizens@CvCity@@QBEPAVCvCityCitizens@@XZ ; CvCity::GetCityCitizens

; 1072 : 		if(pkCitizens != NULL)

	test	eax, eax
	je	SHORT $LN1@ResponseSe@3

; 1073 : 		{
; 1074 : 			pkCitizens->SetForcedAvoidGrowth(bAvoidGrowth);

	mov	ecx, DWORD PTR _bAvoidGrowth$[esp-4]
	push	ecx
	mov	ecx, eax
	call	?SetForcedAvoidGrowth@CvCityCitizens@@QAEX_N@Z ; CvCityCitizens::SetForcedAvoidGrowth
$LN1@ResponseSe@3:

; 1075 : 		}
; 1076 : 	}
; 1077 : }

	ret	16					; 00000010H
?ResponseSetCityAvoidGrowth@CvDllNetMessageHandler@@UAGXW4PlayerTypes@@H_N@Z ENDP ; CvDllNetMessageHandler::ResponseSetCityAvoidGrowth
_TEXT	ENDS
EXTRN	?DoReallocateCitizens@CvCityCitizens@@QAEXXZ:PROC ; CvCityCitizens::DoReallocateCitizens
EXTRN	?DoVerifyWorkingPlots@CvCityCitizens@@QAEXXZ:PROC ; CvCityCitizens::DoVerifyWorkingPlots
; Function compile flags: /Ogtpy
;	COMDAT ?ResponseUpdateCityCitizens@CvDllNetMessageHandler@@UAGXW4PlayerTypes@@H@Z
_TEXT	SEGMENT
_this$ = 8						; size = 4
_ePlayer$ = 12						; size = 4
_iCityID$ = 16						; size = 4
?ResponseUpdateCityCitizens@CvDllNetMessageHandler@@UAGXW4PlayerTypes@@H@Z PROC ; CvDllNetMessageHandler::ResponseUpdateCityCitizens, COMDAT

; 1125 : 	CvCity* pCity = GET_PLAYER(ePlayer).getCity(iCityID);

	mov	ecx, DWORD PTR _ePlayer$[esp-4]
	mov	eax, DWORD PTR _iCityID$[esp-4]
	imul	ecx, 63236				; 0000f704H
	add	ecx, DWORD PTR ?m_aPlayers@CvPlayerAI@@1PAV1@A ; CvPlayerAI::m_aPlayers
	push	esi
	push	eax
	call	?getCity@CvPlayer@@QAEPAVCvCity@@H@Z	; CvPlayer::getCity
	mov	esi, eax

; 1126 : 	if(NULL != pCity && pCity->GetCityCitizens())

	test	esi, esi
	je	SHORT $LN1@ResponseUp
	mov	ecx, esi
	call	?GetCityCitizens@CvCity@@QBEPAVCvCityCitizens@@XZ ; CvCity::GetCityCitizens
	test	eax, eax
	je	SHORT $LN1@ResponseUp

; 1127 : 	{
; 1128 : 		CvCityCitizens* pkCitizens = pCity->GetCityCitizens();

	mov	ecx, esi
	call	?GetCityCitizens@CvCity@@QBEPAVCvCityCitizens@@XZ ; CvCity::GetCityCitizens
	mov	esi, eax

; 1129 : 		if(pkCitizens != NULL)

	test	esi, esi
	je	SHORT $LN1@ResponseUp

; 1130 : 		{
; 1131 : 			pkCitizens->DoVerifyWorkingPlots();

	mov	ecx, esi
	call	?DoVerifyWorkingPlots@CvCityCitizens@@QAEXXZ ; CvCityCitizens::DoVerifyWorkingPlots

; 1132 : 			pkCitizens->DoReallocateCitizens();

	mov	ecx, esi
	call	?DoReallocateCitizens@CvCityCitizens@@QAEXXZ ; CvCityCitizens::DoReallocateCitizens
$LN1@ResponseUp:
	pop	esi

; 1133 : 		}
; 1134 : 	}
; 1135 : }

	ret	12					; 0000000cH
?ResponseUpdateCityCitizens@CvDllNetMessageHandler@@UAGXW4PlayerTypes@@H@Z ENDP ; CvDllNetMessageHandler::ResponseUpdateCityCitizens
_TEXT	ENDS
EXTRN	?DoUnlockPolicyBranch@CvPlayerPolicies@@QAEXW4PolicyBranchTypes@@@Z:PROC ; CvPlayerPolicies::DoUnlockPolicyBranch
EXTRN	?DoSwitchToPolicyBranch@CvPlayerPolicies@@QAEXW4PolicyBranchTypes@@@Z:PROC ; CvPlayerPolicies::DoSwitchToPolicyBranch
EXTRN	?IsPolicyBranchUnlocked@CvPlayerPolicies@@QBE_NW4PolicyBranchTypes@@@Z:PROC ; CvPlayerPolicies::IsPolicyBranchUnlocked
EXTRN	?IsPolicyBranchBlocked@CvPlayerPolicies@@QBE_NW4PolicyBranchTypes@@@Z:PROC ; CvPlayerPolicies::IsPolicyBranchBlocked
EXTRN	?DoUpdateHappiness@CvPlayer@@QAEXXZ:PROC	; CvPlayer::DoUpdateHappiness
EXTRN	?setHasPolicy@CvPlayer@@QAEXW4PolicyTypes@@_N@Z:PROC ; CvPlayer::setHasPolicy
EXTRN	?doAdoptPolicy@CvPlayer@@QAEXW4PolicyTypes@@@Z:PROC ; CvPlayer::doAdoptPolicy
; Function compile flags: /Ogtpy
;	COMDAT ?ResponseUpdatePolicies@CvDllNetMessageHandler@@UAGXW4PlayerTypes@@_NH1@Z
_TEXT	SEGMENT
_this$ = 8						; size = 4
_ePlayer$ = 12						; size = 4
_bNOTPolicyBranch$ = 16					; size = 1
_iPolicyID$ = 20					; size = 4
_bValue$ = 24						; size = 1
?ResponseUpdatePolicies@CvDllNetMessageHandler@@UAGXW4PlayerTypes@@_NH1@Z PROC ; CvDllNetMessageHandler::ResponseUpdatePolicies, COMDAT

; 1138 : {

	push	esi

; 1139 : 	CvPlayerAI& kPlayer = GET_PLAYER(ePlayer);

	mov	esi, DWORD PTR _ePlayer$[esp]
	imul	esi, 63236				; 0000f704H
	add	esi, DWORD PTR ?m_aPlayers@CvPlayerAI@@1PAV1@A ; CvPlayerAI::m_aPlayers

; 1140 : 
; 1141 : 	// Policy Update
; 1142 : 	if(bNOTPolicyBranch)

	cmp	BYTE PTR _bNOTPolicyBranch$[esp], 0
	je	SHORT $LN7@ResponseUp@2

; 1143 : 	{
; 1144 : 		const PolicyTypes ePolicy = static_cast<PolicyTypes>(iPolicyID);
; 1145 : 		if(bValue)

	cmp	BYTE PTR _bValue$[esp], 0
	je	SHORT $LN6@ResponseUp@2

; 1146 : 		{
; 1147 : 			kPlayer.doAdoptPolicy(ePolicy);

	mov	eax, DWORD PTR _iPolicyID$[esp]
	push	eax
	mov	ecx, esi
	call	?doAdoptPolicy@CvPlayer@@QAEXW4PolicyTypes@@@Z ; CvPlayer::doAdoptPolicy
	pop	esi

; 1179 : 		}
; 1180 : 	}
; 1181 : }

	ret	20					; 00000014H
$LN6@ResponseUp@2:

; 1148 : 		}
; 1149 : 		else
; 1150 : 		{
; 1151 : 			kPlayer.setHasPolicy(ePolicy, bValue);

	mov	ecx, DWORD PTR _iPolicyID$[esp]
	push	0
	push	ecx
	mov	ecx, esi
	call	?setHasPolicy@CvPlayer@@QAEXW4PolicyTypes@@_N@Z ; CvPlayer::setHasPolicy

; 1152 : 			kPlayer.DoUpdateHappiness();

	mov	ecx, esi
	call	?DoUpdateHappiness@CvPlayer@@QAEXXZ	; CvPlayer::DoUpdateHappiness
	pop	esi

; 1179 : 		}
; 1180 : 	}
; 1181 : }

	ret	20					; 00000014H
$LN7@ResponseUp@2:
	push	edi

; 1153 : #ifdef AUI_CITIZENS_MID_TURN_ASSIGN_RUNS_SELF_CONSISTENCY
; 1154 : 			kPlayer.doSelfConsistencyCheckAllCities();
; 1155 : #endif
; 1156 : 		}
; 1157 : 	}
; 1158 : 	// Policy Branch Update
; 1159 : 	else
; 1160 : 	{
; 1161 : 		const PolicyBranchTypes eBranch = static_cast<PolicyBranchTypes>(iPolicyID);
; 1162 : 		CvPlayerPolicies* pPlayerPolicies = kPlayer.GetPlayerPolicies();

	mov	ecx, esi
	call	?GetPlayerPolicies@CvPlayer@@QBEPAVCvPlayerPolicies@@XZ ; CvPlayer::GetPlayerPolicies

; 1163 : 
; 1164 : 		// If Branch was blocked by another branch, then unblock this one - this may be the only thing this NetMessage does
; 1165 : 		if(pPlayerPolicies->IsPolicyBranchBlocked(eBranch))

	mov	edi, DWORD PTR _iPolicyID$[esp+4]
	mov	esi, eax
	push	edi
	mov	ecx, esi
	call	?IsPolicyBranchBlocked@CvPlayerPolicies@@QBE_NW4PolicyBranchTypes@@@Z ; CvPlayerPolicies::IsPolicyBranchBlocked
	test	al, al
	je	SHORT $LN2@ResponseUp@2

; 1166 : 		{
; 1167 : 			// Can't switch to a Branch that's still locked. DoUnlockPolicyBranch below will handle this for us
; 1168 : 			if(pPlayerPolicies->IsPolicyBranchUnlocked(eBranch))

	push	edi
	mov	ecx, esi
	call	?IsPolicyBranchUnlocked@CvPlayerPolicies@@QBE_NW4PolicyBranchTypes@@@Z ; CvPlayerPolicies::IsPolicyBranchUnlocked
	test	al, al
	je	SHORT $LN2@ResponseUp@2

; 1169 : 			{
; 1170 : 				//pPlayerPolicies->ChangePolicyBranchBlockedCount(eBranch, -1);
; 1171 : 				pPlayerPolicies->DoSwitchToPolicyBranch(eBranch);

	push	edi
	mov	ecx, esi
	call	?DoSwitchToPolicyBranch@CvPlayerPolicies@@QAEXW4PolicyBranchTypes@@@Z ; CvPlayerPolicies::DoSwitchToPolicyBranch
$LN2@ResponseUp@2:

; 1172 : 			}
; 1173 : 		}
; 1174 : 
; 1175 : 		// Unlock the branch if it hasn't been already
; 1176 : 		if(!pPlayerPolicies->IsPolicyBranchUnlocked(eBranch))

	push	edi
	mov	ecx, esi
	call	?IsPolicyBranchUnlocked@CvPlayerPolicies@@QBE_NW4PolicyBranchTypes@@@Z ; CvPlayerPolicies::IsPolicyBranchUnlocked
	test	al, al
	jne	SHORT $LN12@ResponseUp@2

; 1177 : 		{
; 1178 : 			pPlayerPolicies->DoUnlockPolicyBranch(eBranch);

	push	edi
	mov	ecx, esi
	call	?DoUnlockPolicyBranch@CvPlayerPolicies@@QAEXW4PolicyBranchTypes@@@Z ; CvPlayerPolicies::DoUnlockPolicyBranch
$LN12@ResponseUp@2:
	pop	edi
	pop	esi

; 1179 : 		}
; 1180 : 	}
; 1181 : }

	ret	20					; 00000014H
?ResponseUpdatePolicies@CvDllNetMessageHandler@@UAGXW4PlayerTypes@@_NH1@Z ENDP ; CvDllNetMessageHandler::ResponseUpdatePolicies
_TEXT	ENDS
EXTRN	?sr_TeamTypes@CvPreGame@@3ABV?$vector@W4TeamTypes@@V?$allocator@W4TeamTypes@@@std@@@std@@B:DWORD ; CvPreGame::sr_TeamTypes
; Function compile flags: /Ogtpy
; File c:\users\enormousapplepie\documents\github\lekmod\lekmod_dll\cvgamecoredll_expansion2\cvpregame.h
;	COMDAT ?teamType@CvPreGame@@YA?AW4TeamTypes@@W4PlayerTypes@@@Z
_TEXT	SEGMENT
?teamType@CvPreGame@@YA?AW4TeamTypes@@W4PlayerTypes@@@Z PROC ; CvPreGame::teamType, COMDAT
; _p$ = eax

; 299  : 	if(p >= 0 && p < MAX_PLAYERS)

	cmp	eax, 63					; 0000003fH
	ja	SHORT $LN1@teamType

; 300  : 		return sr_TeamTypes[p];

	mov	ecx, DWORD PTR ?sr_TeamTypes@CvPreGame@@3ABV?$vector@W4TeamTypes@@V?$allocator@W4TeamTypes@@@std@@@std@@B ; CvPreGame::sr_TeamTypes
	mov	edx, DWORD PTR [ecx+4]
	mov	eax, DWORD PTR [edx+eax*4]

; 302  : }

	ret	0
$LN1@teamType:

; 301  : 	return NO_TEAM;

	or	eax, -1

; 302  : }

	ret	0
?teamType@CvPreGame@@YA?AW4TeamTypes@@W4PlayerTypes@@@Z ENDP ; CvPreGame::teamType
_TEXT	ENDS
PUBLIC	?GetID@CvCity@@QBEHXZ				; CvCity::GetID
; Function compile flags: /Ogtpy
; File c:\users\enormousapplepie\documents\github\lekmod\lekmod_dll\cvgamecoredll_expansion2\cvcity.h
;	COMDAT ?GetID@CvCity@@QBEHXZ
_TEXT	SEGMENT
?GetID@CvCity@@QBEHXZ PROC				; CvCity::GetID, COMDAT
; _this$ = ecx

; 331  : 		return m_iID;

	mov	eax, DWORD PTR [ecx+120]

; 332  : 	}

	ret	0
?GetID@CvCity@@QBEHXZ ENDP				; CvCity::GetID
_TEXT	ENDS
PUBLIC	?isAlive@CvPlayer@@QBE_NXZ			; CvPlayer::isAlive
; Function compile flags: /Ogtpy
; File c:\users\enormousapplepie\documents\github\lekmod\lekmod_dll\cvgamecoredll_expansion2\cvplayer.h
;	COMDAT ?isAlive@CvPlayer@@QBE_NXZ
_TEXT	SEGMENT
?isAlive@CvPlayer@@QBE_NXZ PROC				; CvPlayer::isAlive, COMDAT
; _this$ = ecx

; 1092 : 		return m_bAlive;

	mov	al, BYTE PTR [ecx+2256]

; 1093 : 	}

	ret	0
?isAlive@CvPlayer@@QBE_NXZ ENDP				; CvPlayer::isAlive
_TEXT	ENDS
PUBLIC	?getTeam@CvPlayer@@QBE?AW4TeamTypes@@XZ		; CvPlayer::getTeam
; Function compile flags: /Ogtpy
;	COMDAT ?getTeam@CvPlayer@@QBE?AW4TeamTypes@@XZ
_TEXT	SEGMENT
?getTeam@CvPlayer@@QBE?AW4TeamTypes@@XZ PROC		; CvPlayer::getTeam, COMDAT
; _this$ = ecx

; 1178 : 		return CvPreGame::teamType(m_eID);

	mov	eax, DWORD PTR [ecx+44]
	cmp	eax, 63					; 0000003fH
	ja	SHORT $LN5@getTeam
	mov	ecx, DWORD PTR ?sr_TeamTypes@CvPreGame@@3ABV?$vector@W4TeamTypes@@V?$allocator@W4TeamTypes@@@std@@@std@@B ; CvPreGame::sr_TeamTypes
	mov	edx, DWORD PTR [ecx+4]
	mov	eax, DWORD PTR [edx+eax*4]

; 1179 : 	}

	ret	0

; 1178 : 		return CvPreGame::teamType(m_eID);

$LN5@getTeam:
	or	eax, -1

; 1179 : 	}

	ret	0
?getTeam@CvPlayer@@QBE?AW4TeamTypes@@XZ ENDP		; CvPlayer::getTeam
_TEXT	ENDS
PUBLIC	?isPlot@CvMap@@QBEHHH@Z				; CvMap::isPlot
; Function compile flags: /Ogtpy
; File c:\users\enormousapplepie\documents\github\lekmod\lekmod_dll\cvgamecoredll_expansion2\cvmap.h
;	COMDAT ?isPlot@CvMap@@QBEHHH@Z
_TEXT	SEGMENT
_iX$ = 8						; size = 4
_iY$ = 12						; size = 4
?isPlot@CvMap@@QBEHHH@Z PROC				; CvMap::isPlot, COMDAT
; _this$ = ecx

; 157  : #ifdef AUI_WARNING_FIXES
; 158  : 		return ((iX >= 0) && (uint(iX) < getGridWidth()) && (iY >= 0) && (uint(iY) < getGridHeight()));
; 159  : #else
; 160  : 		return ((iX >= 0) && (iX < getGridWidth()) && (iY >= 0) && (iY < getGridHeight()));

	mov	eax, DWORD PTR _iX$[esp-4]
	test	eax, eax
	jl	SHORT $LN3@isPlot
	cmp	eax, DWORD PTR [ecx+4020]
	jge	SHORT $LN3@isPlot
	mov	eax, DWORD PTR _iY$[esp-4]
	test	eax, eax
	jl	SHORT $LN3@isPlot
	cmp	eax, DWORD PTR [ecx+4024]
	jge	SHORT $LN3@isPlot
	mov	eax, 1

; 161  : #endif
; 162  : 	}

	ret	8
$LN3@isPlot:

; 157  : #ifdef AUI_WARNING_FIXES
; 158  : 		return ((iX >= 0) && (uint(iX) < getGridWidth()) && (iY >= 0) && (uint(iY) < getGridHeight()));
; 159  : #else
; 160  : 		return ((iX >= 0) && (iX < getGridWidth()) && (iY >= 0) && (iY < getGridHeight()));

	xor	eax, eax

; 161  : #endif
; 162  : 	}

	ret	8
?isPlot@CvMap@@QBEHHH@Z ENDP				; CvMap::isPlot
_TEXT	ENDS
PUBLIC	?plotNum@CvMap@@QBEHHH@Z			; CvMap::plotNum
; Function compile flags: /Ogtpy
;	COMDAT ?plotNum@CvMap@@QBEHHH@Z
_TEXT	SEGMENT
_iX$ = 8						; size = 4
_iY$ = 12						; size = 4
?plotNum@CvMap@@QBEHHH@Z PROC				; CvMap::plotNum, COMDAT
; _this$ = ecx

; 183  : 		return ((iY * getGridWidth()) + iX);

	mov	eax, DWORD PTR [ecx+4020]
	imul	eax, DWORD PTR _iY$[esp-4]
	add	eax, DWORD PTR _iX$[esp-4]

; 184  : #endif
; 185  : 	}

	ret	8
?plotNum@CvMap@@QBEHHH@Z ENDP				; CvMap::plotNum
_TEXT	ENDS
PUBLIC	?plot@CvMap@@QBEPAVCvPlot@@HH@Z			; CvMap::plot
; Function compile flags: /Ogtpy
;	COMDAT ?plot@CvMap@@QBEPAVCvPlot@@HH@Z
_TEXT	SEGMENT
_iX$ = 8						; size = 4
_iY$ = 12						; size = 4
?plot@CvMap@@QBEPAVCvPlot@@HH@Z PROC			; CvMap::plot, COMDAT
; _this$ = ecx

; 273  : 		if((iX == INVALID_PLOT_COORD) || (iY == INVALID_PLOT_COORD))

	mov	eax, DWORD PTR _iX$[esp-4]
	push	ebp
	cmp	eax, -2147483647			; 80000001H
	je	$LN1@plot
	mov	ebp, DWORD PTR _iY$[esp]
	cmp	ebp, -2147483647			; 80000001H
	je	$LN1@plot

; 276  : 		}
; 277  : 		int iMapX = coordRange(iX, getGridWidth(), isWrapX());

	cmp	BYTE PTR [ecx+4056], 0
	push	ebx
	push	esi
	mov	esi, DWORD PTR [ecx+4020]
	push	edi
	je	SHORT $LN11@plot
	test	eax, eax
	jge	SHORT $LN13@plot
	cdq
	idiv	esi
	mov	edi, edx
	add	edi, esi
	jmp	SHORT $LN15@plot
$LN13@plot:
	cmp	eax, esi
	jl	SHORT $LN11@plot
	cdq
	idiv	esi
	mov	edi, edx
	jmp	SHORT $LN15@plot
$LN11@plot:
	mov	edi, eax
$LN15@plot:

; 278  : 		int iMapY = coordRange(iY, getGridHeight(), isWrapY());

	cmp	BYTE PTR [ecx+4057], 0
	mov	ebx, DWORD PTR [ecx+4024]
	je	SHORT $LN40@plot
	test	ebp, ebp
	jge	SHORT $LN23@plot
	mov	eax, ebp
	cdq
	idiv	ebx
	add	edx, ebx
	jmp	SHORT $LN25@plot
$LN23@plot:
	cmp	ebp, ebx
	jl	SHORT $LN40@plot
	mov	eax, ebp
	cdq
	idiv	ebx
	jmp	SHORT $LN25@plot
$LN40@plot:
	mov	edx, ebp
$LN25@plot:

; 279  : 		return ((isPlot(iMapX, iMapY)) ? &(m_pMapPlots[plotNum(iMapX, iMapY)]) : NULL);

	test	edi, edi
	jl	SHORT $LN5@plot
	cmp	edi, esi
	jge	SHORT $LN5@plot
	test	edx, edx
	jl	SHORT $LN5@plot
	cmp	edx, ebx
	jge	SHORT $LN5@plot
	imul	esi, edx
	add	esi, edi
	imul	esi, 484				; 000001e4H
	add	esi, DWORD PTR [ecx+4068]
	pop	edi
	mov	eax, esi
	pop	esi
	pop	ebx
	pop	ebp

; 280  : 	}

	ret	8
$LN5@plot:
	pop	edi
	pop	esi
	pop	ebx

; 279  : 		return ((isPlot(iMapX, iMapY)) ? &(m_pMapPlots[plotNum(iMapX, iMapY)]) : NULL);

	xor	eax, eax
	pop	ebp

; 280  : 	}

	ret	8
$LN1@plot:

; 274  : 		{
; 275  : 			return NULL;

	xor	eax, eax
	pop	ebp

; 280  : 	}

	ret	8
?plot@CvMap@@QBEPAVCvPlot@@HH@Z ENDP			; CvMap::plot
_TEXT	ENDS
PUBLIC	??_7ICvNetMessageHandler2@@6B@			; ICvNetMessageHandler2::`vftable'
PUBLIC	??0ICvNetMessageHandler2@@QAE@XZ		; ICvNetMessageHandler2::ICvNetMessageHandler2
PUBLIC	??_R4ICvNetMessageHandler2@@6B@			; ICvNetMessageHandler2::`RTTI Complete Object Locator'
;	COMDAT ??_R4ICvNetMessageHandler2@@6B@
rdata$r	SEGMENT
??_R4ICvNetMessageHandler2@@6B@ DD 00H			; ICvNetMessageHandler2::`RTTI Complete Object Locator'
	DD	00H
	DD	00H
	DD	FLAT:??_R0?AVICvNetMessageHandler2@@@8
	DD	FLAT:??_R3ICvNetMessageHandler2@@8
rdata$r	ENDS
;	COMDAT ??_7ICvNetMessageHandler2@@6B@
CONST	SEGMENT
??_7ICvNetMessageHandler2@@6B@ DD FLAT:??_R4ICvNetMessageHandler2@@6B@ ; ICvNetMessageHandler2::`vftable'
	DD	FLAT:__purecall
	DD	FLAT:__purecall
	DD	FLAT:__purecall
	DD	FLAT:__purecall
	DD	FLAT:__purecall
	DD	FLAT:__purecall
	DD	FLAT:__purecall
	DD	FLAT:__purecall
	DD	FLAT:__purecall
	DD	FLAT:__purecall
	DD	FLAT:__purecall
	DD	FLAT:__purecall
	DD	FLAT:__purecall
	DD	FLAT:__purecall
	DD	FLAT:__purecall
	DD	FLAT:__purecall
	DD	FLAT:__purecall
	DD	FLAT:__purecall
	DD	FLAT:__purecall
	DD	FLAT:__purecall
	DD	FLAT:__purecall
	DD	FLAT:__purecall
	DD	FLAT:__purecall
	DD	FLAT:__purecall
	DD	FLAT:__purecall
	DD	FLAT:__purecall
	DD	FLAT:__purecall
	DD	FLAT:__purecall
	DD	FLAT:__purecall
	DD	FLAT:__purecall
	DD	FLAT:__purecall
	DD	FLAT:__purecall
	DD	FLAT:__purecall
	DD	FLAT:__purecall
	DD	FLAT:__purecall
	DD	FLAT:__purecall
	DD	FLAT:__purecall
	DD	FLAT:__purecall
	DD	FLAT:__purecall
	DD	FLAT:__purecall
	DD	FLAT:__purecall
	DD	FLAT:__purecall
	DD	FLAT:__purecall
	DD	FLAT:__purecall
	DD	FLAT:__purecall
	DD	FLAT:__purecall
	DD	FLAT:__purecall
	DD	FLAT:__purecall
	DD	FLAT:__purecall
	DD	FLAT:__purecall
	DD	FLAT:__purecall
	DD	FLAT:__purecall
; Function compile flags: /Ogtpy
CONST	ENDS
;	COMDAT ??0ICvNetMessageHandler2@@QAE@XZ
_TEXT	SEGMENT
??0ICvNetMessageHandler2@@QAE@XZ PROC			; ICvNetMessageHandler2::ICvNetMessageHandler2, COMDAT
; _this$ = ecx
	mov	eax, ecx
	mov	DWORD PTR [eax], OFFSET ??_7ICvNetMessageHandler2@@6B@
	ret	0
??0ICvNetMessageHandler2@@QAE@XZ ENDP			; ICvNetMessageHandler2::ICvNetMessageHandler2
_TEXT	ENDS
EXTRN	?makePeace@CvTeam@@QAEXW4TeamTypes@@_N1@Z:PROC	; CvTeam::makePeace
EXTRN	?declareWar@CvTeam@@QAEXW4TeamTypes@@_N@Z:PROC	; CvTeam::declareWar
; Function compile flags: /Ogtpy
; File c:\users\enormousapplepie\documents\github\lekmod\lekmod_dll\cvgamecoredll_expansion2\cvdllnetmessagehandler.cpp
;	COMDAT ?ResponseChangeWar@CvDllNetMessageHandler@@UAGXW4PlayerTypes@@W4TeamTypes@@_N@Z
_TEXT	SEGMENT
_this$ = 8						; size = 4
_ePlayer$ = 12						; size = 4
_eRivalTeam$ = 16					; size = 4
_bWar$ = 20						; size = 1
?ResponseChangeWar@CvDllNetMessageHandler@@UAGXW4PlayerTypes@@W4TeamTypes@@_N@Z PROC ; CvDllNetMessageHandler::ResponseChangeWar, COMDAT

; 96   : 	CvPlayerAI& kPlayer = GET_PLAYER(ePlayer);

	mov	eax, DWORD PTR _ePlayer$[esp-4]
	imul	eax, 63236				; 0000f704H
	add	eax, DWORD PTR ?m_aPlayers@CvPlayerAI@@1PAV1@A ; CvPlayerAI::m_aPlayers

; 97   : #ifdef AUI_WARNING_FIXES
; 98   : 	const TeamTypes eTeam = kPlayer.getTeam();
; 99   : 	CvTeam& kTeam = GET_TEAM(eTeam);
; 100  : #else
; 101  : 	CvTeam& kTeam = GET_TEAM(kPlayer.getTeam());

	mov	eax, DWORD PTR [eax+44]
	cmp	eax, 63					; 0000003fH
	ja	SHORT $LN11@ResponseCh
	mov	ecx, DWORD PTR ?sr_TeamTypes@CvPreGame@@3ABV?$vector@W4TeamTypes@@V?$allocator@W4TeamTypes@@@std@@@std@@B ; CvPreGame::sr_TeamTypes
	mov	edx, DWORD PTR [ecx+4]
	mov	eax, DWORD PTR [edx+eax*4]
	jmp	SHORT $LN12@ResponseCh
$LN11@ResponseCh:
	or	eax, -1
$LN12@ResponseCh:
	imul	eax, 2980				; 00000ba4H
	add	eax, DWORD PTR ?m_aTeams@CvTeam@@1PAV1@A ; CvTeam::m_aTeams

; 102  : 	const TeamTypes eTeam = kPlayer.getTeam();
; 103  : #endif
; 104  : 
; 105  : 	FAssert(eTeam != eRivalTeam);
; 106  : 
; 107  : 	if(bWar)

	cmp	BYTE PTR _bWar$[esp-4], 0
	mov	ecx, eax

; 108  : 	{
; 109  : 		kTeam.declareWar(eRivalTeam);

	push	0
	je	SHORT $LN2@ResponseCh
	mov	eax, DWORD PTR _eRivalTeam$[esp]
	push	eax
	call	?declareWar@CvTeam@@QAEXW4TeamTypes@@_N@Z ; CvTeam::declareWar

; 114  : 	}
; 115  : }

	ret	16					; 00000010H
$LN2@ResponseCh:

; 110  : 	}
; 111  : 	else
; 112  : 	{
; 113  : 		kTeam.makePeace(eRivalTeam);

	mov	edx, DWORD PTR _eRivalTeam$[esp]
	push	1
	push	edx
	call	?makePeace@CvTeam@@QAEXW4TeamTypes@@_N1@Z ; CvTeam::makePeace

; 114  : 	}
; 115  : }

	ret	16					; 00000010H
?ResponseChangeWar@CvDllNetMessageHandler@@UAGXW4PlayerTypes@@W4TeamTypes@@_N@Z ENDP ; CvDllNetMessageHandler::ResponseChangeWar
_TEXT	ENDS
EXTRN	?PushIgnoreWarning@CvTeam@@QAEXW4TeamTypes@@@Z:PROC ; CvTeam::PushIgnoreWarning
; Function compile flags: /Ogtpy
;	COMDAT ?ResponseIgnoreWarning@CvDllNetMessageHandler@@UAGXW4PlayerTypes@@W4TeamTypes@@@Z
_TEXT	SEGMENT
_this$ = 8						; size = 4
_ePlayer$ = 12						; size = 4
_eRivalTeam$ = 16					; size = 4
?ResponseIgnoreWarning@CvDllNetMessageHandler@@UAGXW4PlayerTypes@@W4TeamTypes@@@Z PROC ; CvDllNetMessageHandler::ResponseIgnoreWarning, COMDAT

; 119  : 	CvPlayerAI& kPlayer = GET_PLAYER(ePlayer);

	mov	eax, DWORD PTR _ePlayer$[esp-4]
	imul	eax, 63236				; 0000f704H
	add	eax, DWORD PTR ?m_aPlayers@CvPlayerAI@@1PAV1@A ; CvPlayerAI::m_aPlayers

; 120  : #ifdef AUI_WARNING_FIXES
; 121  : 	const TeamTypes eTeam = kPlayer.getTeam();
; 122  : 	CvTeam& kTeam = GET_TEAM(eTeam);
; 123  : #else
; 124  : 	CvTeam& kTeam = GET_TEAM(kPlayer.getTeam());

	mov	eax, DWORD PTR [eax+44]
	cmp	eax, 63					; 0000003fH
	ja	SHORT $LN9@ResponseIg
	mov	ecx, DWORD PTR ?sr_TeamTypes@CvPreGame@@3ABV?$vector@W4TeamTypes@@V?$allocator@W4TeamTypes@@@std@@@std@@B ; CvPreGame::sr_TeamTypes
	mov	edx, DWORD PTR [ecx+4]
	mov	eax, DWORD PTR [edx+eax*4]
	jmp	SHORT $LN10@ResponseIg
$LN9@ResponseIg:
	or	eax, -1
$LN10@ResponseIg:

; 125  : 	const TeamTypes eTeam = kPlayer.getTeam();
; 126  : #endif
; 127  : 	FAssert(eTeam != eRivalTeam);
; 128  : 	
; 129  : 	kTeam.PushIgnoreWarning(eRivalTeam);

	mov	ecx, DWORD PTR _eRivalTeam$[esp-4]
	imul	eax, 2980				; 00000ba4H
	add	eax, DWORD PTR ?m_aTeams@CvTeam@@1PAV1@A ; CvTeam::m_aTeams
	push	ecx
	mov	ecx, eax
	call	?PushIgnoreWarning@CvTeam@@QAEXW4TeamTypes@@@Z ; CvTeam::PushIgnoreWarning

; 130  : }

	ret	12					; 0000000cH
?ResponseIgnoreWarning@CvDllNetMessageHandler@@UAGXW4PlayerTypes@@W4TeamTypes@@@Z ENDP ; CvDllNetMessageHandler::ResponseIgnoreWarning
_TEXT	ENDS
EXTRN	?BuyPlot@CvCity@@QAEXHH@Z:PROC			; CvCity::BuyPlot
EXTRN	?CanBuyPlot@CvCity@@QAE_NHH_N@Z:PROC		; CvCity::CanBuyPlot
EXTRN	?GetNextBuyablePlot@CvCity@@QAEPAVCvPlot@@XZ:PROC ; CvCity::GetNextBuyablePlot
; Function compile flags: /Ogtpy
;	COMDAT ?ResponseCityBuyPlot@CvDllNetMessageHandler@@UAGXW4PlayerTypes@@HHH@Z
_TEXT	SEGMENT
_this$ = 8						; size = 4
_ePlayer$ = 12						; size = 4
_pkCity$ = 16						; size = 4
_iCityID$ = 16						; size = 4
_iX$ = 20						; size = 4
_iY$ = 24						; size = 4
?ResponseCityBuyPlot@CvDllNetMessageHandler@@UAGXW4PlayerTypes@@HHH@Z PROC ; CvDllNetMessageHandler::ResponseCityBuyPlot, COMDAT

; 134  : 	CvPlayerAI& kPlayer = GET_PLAYER(ePlayer);

	mov	ecx, DWORD PTR _ePlayer$[esp-4]

; 135  : 	CvCity* pkCity = kPlayer.getCity(iCityID);

	mov	eax, DWORD PTR _iCityID$[esp-4]
	imul	ecx, 63236				; 0000f704H
	add	ecx, DWORD PTR ?m_aPlayers@CvPlayerAI@@1PAV1@A ; CvPlayerAI::m_aPlayers
	push	edi
	push	eax
	call	?getCity@CvPlayer@@QAEPAVCvCity@@H@Z	; CvPlayer::getCity
	mov	edi, eax
	mov	DWORD PTR _pkCity$[esp], edi

; 136  : 	if(pkCity != NULL)

	test	edi, edi
	je	$LN1@ResponseCi@6

; 137  : 	{
; 138  : 		CvPlot* pkPlot = NULL;
; 139  : 
; 140  : 		// (-1,-1) means pick a random plot to buy
; 141  : 		if(iX == -1 && iY == -1)

	mov	eax, DWORD PTR _iX$[esp]
	push	ebx
	mov	ebx, DWORD PTR _iY$[esp+4]
	push	ebp
	push	esi
	cmp	eax, -1
	jne	SHORT $LN5@ResponseCi@6
	cmp	ebx, -1
	jne	SHORT $LN66@ResponseCi@6

; 142  : 		{
; 143  : 			pkPlot = pkCity->GetNextBuyablePlot();

	mov	ecx, edi
	call	?GetNextBuyablePlot@CvCity@@QAEPAVCvPlot@@XZ ; CvCity::GetNextBuyablePlot
	mov	esi, eax

; 144  : 		}
; 145  : 		else

	jmp	$LN15@ResponseCi@6
$LN5@ResponseCi@6:

; 146  : 		{
; 147  : 			pkPlot = GC.getMap().plot(iX, iY);

	cmp	eax, -2147483647			; 80000001H
	je	$LN68@ResponseCi@6
$LN66@ResponseCi@6:
	cmp	ebx, -2147483647			; 80000001H
	je	$LN68@ResponseCi@6
	mov	ebp, DWORD PTR ?gGlobals@@3VCvGlobals@@A+52
	cmp	BYTE PTR [ebp+4056], 0
	mov	ecx, DWORD PTR [ebp+4020]
	je	SHORT $LN23@ResponseCi@6
	test	eax, eax
	jge	SHORT $LN25@ResponseCi@6
	cdq
	idiv	ecx
	mov	esi, edx
	add	esi, ecx
	jmp	SHORT $LN27@ResponseCi@6
$LN25@ResponseCi@6:
	cmp	eax, ecx
	jl	SHORT $LN23@ResponseCi@6
	cdq
	idiv	ecx
	mov	esi, edx
	jmp	SHORT $LN27@ResponseCi@6
$LN23@ResponseCi@6:
	mov	esi, eax
$LN27@ResponseCi@6:
	cmp	BYTE PTR [ebp+4057], 0
	mov	edi, DWORD PTR [ebp+4024]
	je	SHORT $LN67@ResponseCi@6
	test	ebx, ebx
	jge	SHORT $LN35@ResponseCi@6
	mov	eax, ebx
	cdq
	idiv	edi
	add	edx, edi
	jmp	SHORT $LN37@ResponseCi@6
$LN35@ResponseCi@6:
	cmp	ebx, edi
	jl	SHORT $LN67@ResponseCi@6
	mov	eax, ebx
	cdq
	idiv	edi
	jmp	SHORT $LN37@ResponseCi@6
$LN67@ResponseCi@6:
	mov	edx, ebx
$LN37@ResponseCi@6:
	test	esi, esi
	jl	$LN68@ResponseCi@6
	cmp	esi, ecx
	jge	$LN68@ResponseCi@6
	test	edx, edx
	jl	SHORT $LN68@ResponseCi@6
	cmp	edx, edi
	jge	SHORT $LN68@ResponseCi@6
	mov	edi, DWORD PTR _pkCity$[esp+12]
	imul	ecx, edx
	add	ecx, esi
	imul	ecx, 484				; 000001e4H
	add	ecx, DWORD PTR [ebp+4068]
	mov	esi, ecx
$LN15@ResponseCi@6:

; 148  : 		}
; 149  : 
; 150  : 		if(pkPlot != NULL)

	test	esi, esi
	je	SHORT $LN68@ResponseCi@6

; 151  : 		{
; 152  : 			if(pkCity->CanBuyPlot(pkPlot->getX(), pkPlot->getY()))

	movsx	eax, WORD PTR [esi+2]
	movsx	ecx, WORD PTR [esi]
	push	0
	push	eax
	push	ecx
	mov	ecx, edi
	call	?CanBuyPlot@CvCity@@QAE_NHH_N@Z		; CvCity::CanBuyPlot
	test	al, al
	je	SHORT $LN68@ResponseCi@6

; 153  : 			{
; 154  : 				pkCity->BuyPlot(pkPlot->getX(), pkPlot->getY());

	movsx	ecx, WORD PTR [esi+2]
	movsx	edx, WORD PTR [esi]
	push	ecx
	push	edx
	mov	ecx, edi
	call	?BuyPlot@CvCity@@QAEXHH@Z		; CvCity::BuyPlot

; 155  : 				if(ePlayer == GC.getGame().getActivePlayer() && GC.GetEngineUserInterface()->isCityScreenUp())

	mov	ecx, DWORD PTR ?gGlobals@@3VCvGlobals@@A+48
	call	?getActivePlayer@CvGame@@QBE?AW4PlayerTypes@@XZ ; CvGame::getActivePlayer
	cmp	DWORD PTR _ePlayer$[esp+12], eax
	jne	SHORT $LN68@ResponseCi@6
	mov	ecx, DWORD PTR ?gGlobals@@3VCvGlobals@@A+8568
	mov	eax, DWORD PTR [ecx]
	mov	edx, DWORD PTR [eax+312]
	call	edx
	test	al, al
	je	SHORT $LN68@ResponseCi@6

; 156  : 				{
; 157  : 					GC.GetEngineUserInterface()->setDirty(CityScreen_DIRTY_BIT, true);

	mov	ecx, DWORD PTR ?gGlobals@@3VCvGlobals@@A+8568
	mov	eax, DWORD PTR [ecx]
	mov	edx, DWORD PTR [eax+260]
	push	1
	push	21					; 00000015H
	call	edx
$LN68@ResponseCi@6:
	pop	esi
	pop	ebp
	pop	ebx
$LN1@ResponseCi@6:
	pop	edi

; 158  : 				}
; 159  : 			}
; 160  : 		}
; 161  : 	}
; 162  : }

	ret	20					; 00000014H
?ResponseCityBuyPlot@CvDllNetMessageHandler@@UAGXW4PlayerTypes@@HHH@Z ENDP ; CvDllNetMessageHandler::ResponseCityBuyPlot
_TEXT	ENDS
EXTRN	?SetVoteCast@CvGame@@QAEXW4TeamTypes@@0_N@Z:PROC ; CvGame::SetVoteCast
; Function compile flags: /Ogtpy
;	COMDAT ?ResponseDiploVote@CvDllNetMessageHandler@@UAGXW4PlayerTypes@@0@Z
_TEXT	SEGMENT
_this$ = 8						; size = 4
_ePlayer$ = 12						; size = 4
_eVotePlayer$ = 16					; size = 4
?ResponseDiploVote@CvDllNetMessageHandler@@UAGXW4PlayerTypes@@0@Z PROC ; CvDllNetMessageHandler::ResponseDiploVote, COMDAT

; 247  : 	TeamTypes eVotingTeam = GET_PLAYER(ePlayer).getTeam();

	mov	eax, DWORD PTR _ePlayer$[esp-4]
	mov	ecx, DWORD PTR ?m_aPlayers@CvPlayerAI@@1PAV1@A ; CvPlayerAI::m_aPlayers
	imul	eax, 63236				; 0000f704H
	mov	eax, DWORD PTR [eax+ecx+44]
	mov	edx, DWORD PTR ?sr_TeamTypes@CvPreGame@@3ABV?$vector@W4TeamTypes@@V?$allocator@W4TeamTypes@@@std@@@std@@B ; CvPreGame::sr_TeamTypes
	push	esi
	cmp	eax, 63					; 0000003fH
	ja	SHORT $LN9@ResponseDi
	mov	esi, DWORD PTR [edx+4]
	mov	eax, DWORD PTR [esi+eax*4]
	jmp	SHORT $LN10@ResponseDi
$LN9@ResponseDi:
	or	eax, -1
$LN10@ResponseDi:

; 248  : 	TeamTypes eVote = GET_PLAYER(eVotePlayer).getTeam();

	mov	esi, DWORD PTR _eVotePlayer$[esp]
	imul	esi, 63236				; 0000f704H
	mov	ecx, DWORD PTR [esi+ecx+44]
	pop	esi
	cmp	ecx, 63					; 0000003fH
	ja	SHORT $LN20@ResponseDi
	mov	edx, DWORD PTR [edx+4]
	mov	ecx, DWORD PTR [edx+ecx*4]
	jmp	SHORT $LN21@ResponseDi
$LN20@ResponseDi:
	or	ecx, -1
$LN21@ResponseDi:

; 249  : 
; 250  : 	GC.getGame().SetVoteCast(eVotingTeam, eVote);

	mov	DWORD PTR _ePlayer$[esp-4], ecx
	mov	ecx, DWORD PTR ?gGlobals@@3VCvGlobals@@A+48
	mov	DWORD PTR _eVotePlayer$[esp-4], 0
	mov	DWORD PTR _this$[esp-4], eax
	jmp	?SetVoteCast@CvGame@@QAEXW4TeamTypes@@0_N@Z ; CvGame::SetVoteCast
?ResponseDiploVote@CvDllNetMessageHandler@@UAGXW4PlayerTypes@@0@Z ENDP ; CvDllNetMessageHandler::ResponseDiploVote
_TEXT	ENDS
EXTRN	?isHuman@CvPlayer@@QBE_NXZ:PROC			; CvPlayer::isHuman
EXTRN	?FoundReligion@CvGameReligions@@QAEXW4PlayerTypes@@W4ReligionTypes@@PBDW4BeliefTypes@@333PAVCvCity@@@Z:PROC ; CvGameReligions::FoundReligion
EXTRN	?CanFoundReligion@CvGameReligions@@QAE?AW4FOUNDING_RESULT@1@W4PlayerTypes@@W4ReligionTypes@@PBDW4BeliefTypes@@333PAVCvCity@@@Z:PROC ; CvGameReligions::CanFoundReligion
;	COMDAT xdata$x
; File c:\users\enormousapplepie\documents\github\lekmod\lekmod_dll\cvgamecoredll_expansion2\cvreligionclasses.h
xdata$x	SEGMENT
__unwindtable$?ResponseFoundReligion@CvDllNetMessageHandler@@UAGXW4PlayerTypes@@W4ReligionTypes@@PBDW4BeliefTypes@@333HH@Z DD 0ffffffffH
	DD	FLAT:__unwindfunclet$?ResponseFoundReligion@CvDllNetMessageHandler@@UAGXW4PlayerTypes@@W4ReligionTypes@@PBDW4BeliefTypes@@333HH@Z$0
	DD	00H
	DD	FLAT:__unwindfunclet$?ResponseFoundReligion@CvDllNetMessageHandler@@UAGXW4PlayerTypes@@W4ReligionTypes@@PBDW4BeliefTypes@@333HH@Z$1
__ehfuncinfo$?ResponseFoundReligion@CvDllNetMessageHandler@@UAGXW4PlayerTypes@@W4ReligionTypes@@PBDW4BeliefTypes@@333HH@Z DD 019930522H
	DD	02H
	DD	FLAT:__unwindtable$?ResponseFoundReligion@CvDllNetMessageHandler@@UAGXW4PlayerTypes@@W4ReligionTypes@@PBDW4BeliefTypes@@333HH@Z
	DD	2 DUP(00H)
	DD	2 DUP(00H)
	DD	00H
	DD	01H
; Function compile flags: /Ogtpy
; File c:\users\enormousapplepie\documents\github\lekmod\lekmod_dll\cvgamecoredll_expansion2\cvdllnetmessagehandler.cpp
xdata$x	ENDS
;	COMDAT ?ResponseFoundReligion@CvDllNetMessageHandler@@UAGXW4PlayerTypes@@W4ReligionTypes@@PBDW4BeliefTypes@@333HH@Z
_TEXT	SEGMENT
_pkGameReligions$ = -72					; size = 4
_strSummary$222884 = -68				; size = 28
_strBuffer$222881 = -40					; size = 28
__$EHRec$ = -12						; size = 12
_this$ = 8						; size = 4
_ePlayer$ = 12						; size = 4
_eReligion$ = 16					; size = 4
_szCustomName$ = 20					; size = 4
_eBelief1$ = 24						; size = 4
_eBelief2$ = 28						; size = 4
_eBelief3$ = 32						; size = 4
_eBelief4$ = 36						; size = 4
_iCityX$ = 40						; size = 4
_iCityY$ = 44						; size = 4
?ResponseFoundReligion@CvDllNetMessageHandler@@UAGXW4PlayerTypes@@W4ReligionTypes@@PBDW4BeliefTypes@@333HH@Z PROC ; CvDllNetMessageHandler::ResponseFoundReligion, COMDAT

; 347  : {

	push	-1
	push	__ehhandler$?ResponseFoundReligion@CvDllNetMessageHandler@@UAGXW4PlayerTypes@@W4ReligionTypes@@PBDW4BeliefTypes@@333HH@Z
	mov	eax, DWORD PTR fs:0
	push	eax
	mov	DWORD PTR fs:0, esp
	sub	esp, 60					; 0000003cH

; 348  : 	CvGame& kGame(GC.getGame());
; 349  : 	CvGameReligions* pkGameReligions(kGame.GetGameReligions());

	mov	ecx, DWORD PTR ?gGlobals@@3VCvGlobals@@A+48
	push	ebx
	push	ebp
	push	esi
	push	edi
	call	?GetGameReligions@CvGame@@QAEPAVCvGameReligions@@XZ ; CvGame::GetGameReligions
	mov	DWORD PTR _pkGameReligions$[esp+88], eax

; 350  : 
; 351  : 	CvCity* pkCity = GC.getMap().plot(iCityX, iCityY)->getPlotCity();

	mov	eax, DWORD PTR _iCityX$[esp+84]
	cmp	eax, -2147483647			; 80000001H
	je	$LN14@ResponseFo@2
	mov	ebx, DWORD PTR _iCityY$[esp+84]
	cmp	ebx, -2147483647			; 80000001H
	je	SHORT $LN14@ResponseFo@2
	mov	ebp, DWORD PTR ?gGlobals@@3VCvGlobals@@A+52
	mov	dl, BYTE PTR [ebp+4056]
	mov	ecx, DWORD PTR [ebp+4020]
	test	dl, dl
	je	SHORT $LN76@ResponseFo@2
	test	eax, eax
	jge	SHORT $LN26@ResponseFo@2
	cdq
	idiv	ecx
	mov	esi, edx
	add	esi, ecx
	jmp	SHORT $LN28@ResponseFo@2
$LN26@ResponseFo@2:
	cmp	eax, ecx
	jl	SHORT $LN76@ResponseFo@2
	cdq
	idiv	ecx
	mov	esi, edx
	jmp	SHORT $LN28@ResponseFo@2
$LN76@ResponseFo@2:
	mov	esi, eax
$LN28@ResponseFo@2:
	mov	al, BYTE PTR [ebp+4057]
	mov	edi, DWORD PTR [ebp+4024]
	test	al, al
	je	SHORT $LN77@ResponseFo@2
	test	ebx, ebx
	jge	SHORT $LN36@ResponseFo@2
	mov	eax, ebx
	cdq
	idiv	edi
	add	edx, edi
	jmp	SHORT $LN38@ResponseFo@2
$LN36@ResponseFo@2:
	cmp	ebx, edi
	jl	SHORT $LN77@ResponseFo@2
	mov	eax, ebx
	cdq
	idiv	edi
	jmp	SHORT $LN38@ResponseFo@2
$LN77@ResponseFo@2:
	mov	edx, ebx
$LN38@ResponseFo@2:
	test	esi, esi
	jl	SHORT $LN14@ResponseFo@2
	cmp	esi, ecx
	jge	SHORT $LN14@ResponseFo@2
	test	edx, edx
	jl	SHORT $LN14@ResponseFo@2
	cmp	edx, edi
	jge	SHORT $LN14@ResponseFo@2
	imul	ecx, edx
	add	ecx, esi
	imul	ecx, 484				; 000001e4H
	add	ecx, DWORD PTR [ebp+4068]
	jmp	SHORT $LN16@ResponseFo@2
$LN14@ResponseFo@2:
	xor	ecx, ecx
$LN16@ResponseFo@2:
	mov	eax, DWORD PTR [ecx+104]
	test	eax, eax
	jl	$LN73@ResponseFo@2
	cmp	eax, 64					; 00000040H
	jge	$LN73@ResponseFo@2
	mov	ecx, DWORD PTR [ecx+108]
	imul	eax, 63236				; 0000f704H
	add	eax, DWORD PTR ?m_aPlayers@CvPlayerAI@@1PAV1@A ; CvPlayerAI::m_aPlayers
	push	ecx
	mov	ecx, eax
	call	?getCity@CvPlayer@@QAEPAVCvCity@@H@Z	; CvPlayer::getCity
	mov	edi, eax

; 352  : 	if(pkCity && ePlayer != NO_PLAYER)

	test	edi, edi
	je	$LN73@ResponseFo@2
	mov	esi, DWORD PTR _ePlayer$[esp+84]
	cmp	esi, -1
	je	$LN73@ResponseFo@2

; 353  : 	{
; 354  : 		CvGameReligions::FOUNDING_RESULT eResult = pkGameReligions->CanFoundReligion(ePlayer, eReligion, szCustomName, eBelief1, eBelief2, eBelief3, eBelief4, pkCity);

	mov	ebp, DWORD PTR _eBelief4$[esp+84]
	mov	edx, DWORD PTR _eBelief3$[esp+84]
	mov	eax, DWORD PTR _eBelief2$[esp+84]
	mov	ecx, DWORD PTR _eBelief1$[esp+84]
	push	edi
	push	ebp
	push	edx
	mov	edx, DWORD PTR _szCustomName$[esp+96]
	push	eax
	mov	eax, DWORD PTR _eReligion$[esp+100]
	push	ecx
	mov	ecx, DWORD PTR _pkGameReligions$[esp+108]
	push	edx
	push	eax
	push	esi
	call	?CanFoundReligion@CvGameReligions@@QAE?AW4FOUNDING_RESULT@1@W4PlayerTypes@@W4ReligionTypes@@PBDW4BeliefTypes@@333PAVCvCity@@@Z ; CvGameReligions::CanFoundReligion
	mov	ebx, eax

; 355  : 		if(eResult == CvGameReligions::FOUNDING_OK)

	test	ebx, ebx
	jne	SHORT $LN4@ResponseFo@2

; 356  : 			pkGameReligions->FoundReligion(ePlayer, eReligion, szCustomName, eBelief1, eBelief2, eBelief3, eBelief4, pkCity);

	mov	ecx, DWORD PTR _eBelief3$[esp+84]
	mov	edx, DWORD PTR _eBelief2$[esp+84]
	mov	eax, DWORD PTR _eBelief1$[esp+84]
	push	edi
	push	ebp
	push	ecx
	mov	ecx, DWORD PTR _szCustomName$[esp+96]
	push	edx
	mov	edx, DWORD PTR _eReligion$[esp+100]
	push	eax
	push	ecx
	mov	ecx, DWORD PTR _pkGameReligions$[esp+112]
	push	edx
	push	esi
	call	?FoundReligion@CvGameReligions@@QAEXW4PlayerTypes@@W4ReligionTypes@@PBDW4BeliefTypes@@333PAVCvCity@@@Z ; CvGameReligions::FoundReligion
	pop	edi
	pop	esi
	pop	ebp
	pop	ebx

; 377  : 			}
; 378  : #ifdef AUI_DLLNETMESSAGEHANDLER_FIX_RESPAWN_PROPHET_IF_BEATEN_TO_LAST_RELIGION
; 379  : 			else if (kPlayer.getCapitalCity())
; 380  : 			{
; 381  : 				UnitTypes eUnit = (UnitTypes)GC.getInfoTypeForString("UNIT_PROPHET", true);
; 382  : 				if (eUnit != NO_UNIT)
; 383  : 				{
; 384  : 					kPlayer.getCapitalCity()->GetCityCitizens()->DoSpawnGreatPerson(eUnit, false /*bIncrementCount*/, false, true);
; 385  : 				}
; 386  : 			}
; 387  : #endif
; 388  : 		}
; 389  : 	}
; 390  : }

	mov	ecx, DWORD PTR __$EHRec$[esp+72]
	mov	DWORD PTR fs:0, ecx
	add	esp, 72					; 00000048H
	ret	40					; 00000028H
$LN4@ResponseFo@2:

; 357  : 		else
; 358  : 		{
; 359  : 			CvGameReligions::NotifyPlayer(ePlayer, eResult);

	push	ebx
	push	esi
	call	?NotifyPlayer@CvGameReligions@@SAXW4PlayerTypes@@W4FOUNDING_RESULT@1@@Z ; CvGameReligions::NotifyPlayer

; 360  : 			// We don't want them to lose the opportunity to found the religion, and the Great Prophet is already gone so just repost the notification
; 361  : 			// If someone beat them to the last religion, well... tough luck.
; 362  : 			CvPlayerAI& kPlayer = GET_PLAYER(ePlayer);

	imul	esi, 63236				; 0000f704H
	add	esi, DWORD PTR ?m_aPlayers@CvPlayerAI@@1PAV1@A ; CvPlayerAI::m_aPlayers
	add	esp, 8

; 363  : #ifdef AUI_DLLNETMESSAGEHANDLER_FIX_RESPAWN_PROPHET_IF_BEATEN_TO_LAST_RELIGION
; 364  : 			if (kPlayer.isHuman() && eResult != CvGameReligions::FOUNDING_NO_RELIGIONS_AVAILABLE && eResult != CvGameReligions::FOUNDING_NO_BELIEFS_AVAILABLE)
; 365  : #else
; 366  : 			if(kPlayer.isHuman() && eResult != CvGameReligions::FOUNDING_NO_RELIGIONS_AVAILABLE)

	mov	ecx, esi
	call	?isHuman@CvPlayer@@QBE_NXZ		; CvPlayer::isHuman
	test	al, al
	je	$LN73@ResponseFo@2
	cmp	ebx, 4
	je	$LN73@ResponseFo@2

; 367  : #endif
; 368  : 			{
; 369  : 				CvNotifications* pNotifications = kPlayer.GetNotifications();

	mov	ecx, esi
	call	?GetNotifications@CvPlayer@@QBEPAVCvNotifications@@XZ ; CvPlayer::GetNotifications
	mov	ebp, eax

; 370  : 				if(pNotifications)

	mov	ebx, 1
	test	ebp, ebp
	je	$LN1@ResponseFo@2

; 371  : 				{
; 372  : 					CvString strBuffer = GetLocalizedText("TXT_KEY_NOTIFICATION_FOUND_RELIGION");

	lea	eax, DWORD PTR _strBuffer$222881[esp+88]
	push	OFFSET $SG222883
	push	eax
	call	?GetLocalizedText@@YA?AVCvString@@PBD@Z	; GetLocalizedText

; 373  : 					CvString strSummary = GetLocalizedText("TXT_KEY_NOTIFICATION_SUMMARY_FOUND_RELIGION");

	lea	ecx, DWORD PTR _strSummary$222884[esp+96]
	push	OFFSET $SG222886
	push	ecx
	mov	DWORD PTR __$EHRec$[esp+112], 0
	call	?GetLocalizedText@@YA?AVCvString@@PBD@Z	; GetLocalizedText
	add	esp, 16					; 00000010H

; 374  : 					pNotifications->Add(NOTIFICATION_FOUND_RELIGION, strBuffer, strSummary, iCityX, iCityY, -1, pkCity->GetID());

	mov	edi, DWORD PTR [edi+120]
	lea	ecx, DWORD PTR _strSummary$222884[esp+88]
	mov	BYTE PTR __$EHRec$[esp+96], bl
	call	DWORD PTR __imp_?c_str@?$basic_string@DU?$char_traits@D@std@@V?$allocator@D@2@@std@@QBEPBDXZ
	mov	edx, DWORD PTR _iCityY$[esp+84]
	mov	ecx, DWORD PTR _iCityX$[esp+84]
	push	edi
	push	-1
	push	edx
	push	ecx
	push	eax
	lea	ecx, DWORD PTR _strBuffer$222881[esp+108]
	call	DWORD PTR __imp_?c_str@?$basic_string@DU?$char_traits@D@std@@V?$allocator@D@2@@std@@QBEPBDXZ
	push	eax
	push	2128612861				; 7ee00dfdH
	mov	ecx, ebp
	call	?Add@CvNotifications@@QAEHW4NotificationTypes@@PBD1HHHH@Z ; CvNotifications::Add

; 375  : 				}

	lea	ecx, DWORD PTR _strSummary$222884[esp+88]
	mov	BYTE PTR __$EHRec$[esp+96], 0
	call	DWORD PTR __imp_??1?$basic_string@DU?$char_traits@D@std@@V?$allocator@D@2@@std@@QAE@XZ
	lea	ecx, DWORD PTR _strBuffer$222881[esp+88]
	mov	DWORD PTR __$EHRec$[esp+96], -1
	call	DWORD PTR __imp_??1?$basic_string@DU?$char_traits@D@std@@V?$allocator@D@2@@std@@QAE@XZ
$LN1@ResponseFo@2:

; 376  : 				kPlayer.GetReligions()->SetFoundingReligion(true);

	mov	ecx, esi
	call	?GetReligions@CvPlayer@@QBEPAVCvPlayerReligions@@XZ ; CvPlayer::GetReligions
	mov	DWORD PTR [eax+8], ebx
$LN73@ResponseFo@2:

; 377  : 			}
; 378  : #ifdef AUI_DLLNETMESSAGEHANDLER_FIX_RESPAWN_PROPHET_IF_BEATEN_TO_LAST_RELIGION
; 379  : 			else if (kPlayer.getCapitalCity())
; 380  : 			{
; 381  : 				UnitTypes eUnit = (UnitTypes)GC.getInfoTypeForString("UNIT_PROPHET", true);
; 382  : 				if (eUnit != NO_UNIT)
; 383  : 				{
; 384  : 					kPlayer.getCapitalCity()->GetCityCitizens()->DoSpawnGreatPerson(eUnit, false /*bIncrementCount*/, false, true);
; 385  : 				}
; 386  : 			}
; 387  : #endif
; 388  : 		}
; 389  : 	}
; 390  : }

	mov	ecx, DWORD PTR __$EHRec$[esp+88]
	pop	edi
	pop	esi
	pop	ebp
	pop	ebx
	mov	DWORD PTR fs:0, ecx
	add	esp, 72					; 00000048H
	ret	40					; 00000028H
_TEXT	ENDS
;	COMDAT text$x
text$x	SEGMENT
__unwindfunclet$?ResponseFoundReligion@CvDllNetMessageHandler@@UAGXW4PlayerTypes@@W4ReligionTypes@@PBDW4BeliefTypes@@333HH@Z$0:
	lea	ecx, DWORD PTR _strBuffer$222881[ebp]
	jmp	??1CvString@@QAE@XZ			; CvString::~CvString
__unwindfunclet$?ResponseFoundReligion@CvDllNetMessageHandler@@UAGXW4PlayerTypes@@W4ReligionTypes@@PBDW4BeliefTypes@@333HH@Z$1:
	lea	ecx, DWORD PTR _strSummary$222884[ebp]
	jmp	??1CvString@@QAE@XZ			; CvString::~CvString
__ehhandler$?ResponseFoundReligion@CvDllNetMessageHandler@@UAGXW4PlayerTypes@@W4ReligionTypes@@PBDW4BeliefTypes@@333HH@Z:
	mov	eax, OFFSET __ehfuncinfo$?ResponseFoundReligion@CvDllNetMessageHandler@@UAGXW4PlayerTypes@@W4ReligionTypes@@PBDW4BeliefTypes@@333HH@Z
	jmp	___CxxFrameHandler3
text$x	ENDS
?ResponseFoundReligion@CvDllNetMessageHandler@@UAGXW4PlayerTypes@@W4ReligionTypes@@PBDW4BeliefTypes@@333HH@Z ENDP ; CvDllNetMessageHandler::ResponseFoundReligion
EXTRN	?EnhanceReligion@CvGameReligions@@QAEXW4PlayerTypes@@W4ReligionTypes@@W4BeliefTypes@@2@Z:PROC ; CvGameReligions::EnhanceReligion
EXTRN	?CanEnhanceReligion@CvGameReligions@@QAE?AW4FOUNDING_RESULT@1@W4PlayerTypes@@W4ReligionTypes@@W4BeliefTypes@@2@Z:PROC ; CvGameReligions::CanEnhanceReligion
;	COMDAT xdata$x
; File c:\users\enormousapplepie\documents\github\lekmod\lekmod_dll\cvgamecoredll_expansion2\cvreligionclasses.h
xdata$x	SEGMENT
__unwindtable$?ResponseEnhanceReligion@CvDllNetMessageHandler@@UAGXW4PlayerTypes@@W4ReligionTypes@@PBDW4BeliefTypes@@3HH@Z DD 0ffffffffH
	DD	FLAT:__unwindfunclet$?ResponseEnhanceReligion@CvDllNetMessageHandler@@UAGXW4PlayerTypes@@W4ReligionTypes@@PBDW4BeliefTypes@@3HH@Z$0
	DD	00H
	DD	FLAT:__unwindfunclet$?ResponseEnhanceReligion@CvDllNetMessageHandler@@UAGXW4PlayerTypes@@W4ReligionTypes@@PBDW4BeliefTypes@@3HH@Z$1
__ehfuncinfo$?ResponseEnhanceReligion@CvDllNetMessageHandler@@UAGXW4PlayerTypes@@W4ReligionTypes@@PBDW4BeliefTypes@@3HH@Z DD 019930522H
	DD	02H
	DD	FLAT:__unwindtable$?ResponseEnhanceReligion@CvDllNetMessageHandler@@UAGXW4PlayerTypes@@W4ReligionTypes@@PBDW4BeliefTypes@@3HH@Z
	DD	2 DUP(00H)
	DD	2 DUP(00H)
	DD	00H
	DD	01H
; Function compile flags: /Ogtpy
; File c:\users\enormousapplepie\documents\github\lekmod\lekmod_dll\cvgamecoredll_expansion2\cvdllnetmessagehandler.cpp
xdata$x	ENDS
;	COMDAT ?ResponseEnhanceReligion@CvDllNetMessageHandler@@UAGXW4PlayerTypes@@W4ReligionTypes@@PBDW4BeliefTypes@@3HH@Z
_TEXT	SEGMENT
_strSummary$222910 = -68				; size = 28
_strBuffer$222907 = -40					; size = 28
__$EHRec$ = -12						; size = 12
_this$ = 8						; size = 4
_ePlayer$ = 12						; size = 4
_eReligion$ = 16					; size = 4
_szCustomName$ = 20					; size = 4
_eBelief1$ = 24						; size = 4
_eResult$ = 28						; size = 4
_eBelief2$ = 28						; size = 4
_iCityX$ = 32						; size = 4
_iCityY$ = 36						; size = 4
?ResponseEnhanceReligion@CvDllNetMessageHandler@@UAGXW4PlayerTypes@@W4ReligionTypes@@PBDW4BeliefTypes@@3HH@Z PROC ; CvDllNetMessageHandler::ResponseEnhanceReligion, COMDAT

; 397  : {

	push	-1
	push	__ehhandler$?ResponseEnhanceReligion@CvDllNetMessageHandler@@UAGXW4PlayerTypes@@W4ReligionTypes@@PBDW4BeliefTypes@@3HH@Z
	mov	eax, DWORD PTR fs:0
	push	eax
	mov	DWORD PTR fs:0, esp
	sub	esp, 56					; 00000038H

; 398  : 	CvGame& kGame(GC.getGame());
; 399  : 	CvGameReligions* pkGameReligions(kGame.GetGameReligions());

	mov	ecx, DWORD PTR ?gGlobals@@3VCvGlobals@@A+48
	push	ebx
	push	ebp
	push	esi
	push	edi
	call	?GetGameReligions@CvGame@@QAEPAVCvGameReligions@@XZ ; CvGame::GetGameReligions

; 400  : 
; 401  : 	CvGameReligions::FOUNDING_RESULT eResult = pkGameReligions->CanEnhanceReligion(ePlayer, eReligion, eBelief1, eBelief2);

	mov	edi, DWORD PTR _eBelief2$[esp+80]
	mov	ebp, DWORD PTR _eBelief1$[esp+80]
	mov	ebx, DWORD PTR _eReligion$[esp+80]
	push	edi
	push	ebp
	mov	esi, eax
	mov	eax, DWORD PTR _ePlayer$[esp+88]
	push	ebx
	push	eax
	mov	ecx, esi
	call	?CanEnhanceReligion@CvGameReligions@@QAE?AW4FOUNDING_RESULT@1@W4PlayerTypes@@W4ReligionTypes@@W4BeliefTypes@@2@Z ; CvGameReligions::CanEnhanceReligion
	mov	DWORD PTR _eResult$[esp+80], eax

; 402  : 	if(eResult == CvGameReligions::FOUNDING_OK)

	test	eax, eax
	jne	SHORT $LN4@ResponseEn

; 403  : 		pkGameReligions->EnhanceReligion(ePlayer, eReligion, eBelief1, eBelief2);

	mov	ecx, DWORD PTR _ePlayer$[esp+80]
	push	edi
	push	ebp
	push	ebx
	push	ecx
	mov	ecx, esi
	call	?EnhanceReligion@CvGameReligions@@QAEXW4PlayerTypes@@W4ReligionTypes@@W4BeliefTypes@@2@Z ; CvGameReligions::EnhanceReligion
	pop	edi
	pop	esi
	pop	ebp
	pop	ebx

; 424  : 		}
; 425  : #ifdef AUI_DLLNETMESSAGEHANDLER_FIX_RESPAWN_PROPHET_IF_BEATEN_TO_LAST_RELIGION
; 426  : 		else if (kPlayer.getCapitalCity())
; 427  : 		{
; 428  : 			UnitTypes eUnit = (UnitTypes)GC.getInfoTypeForString("UNIT_PROPHET", true);
; 429  : 			if (eUnit != NO_UNIT)
; 430  : 			{
; 431  : 				kPlayer.getCapitalCity()->GetCityCitizens()->DoSpawnGreatPerson(eUnit, false /*bIncrementCount*/, false, true);
; 432  : 			}
; 433  : 		}
; 434  : #endif
; 435  : 	}
; 436  : }

	mov	ecx, DWORD PTR __$EHRec$[esp+68]
	mov	DWORD PTR fs:0, ecx
	add	esp, 68					; 00000044H
	ret	32					; 00000020H
$LN4@ResponseEn:

; 404  : 	else
; 405  : 	{
; 406  : 		CvGameReligions::NotifyPlayer(ePlayer, eResult);

	mov	ebp, DWORD PTR _ePlayer$[esp+80]
	push	eax
	push	ebp
	call	?NotifyPlayer@CvGameReligions@@SAXW4PlayerTypes@@W4FOUNDING_RESULT@1@@Z ; CvGameReligions::NotifyPlayer

; 407  : 		// We don't want them to lose the opportunity to enhance the religion, and the Great Prophet is already gone so just repost the notification
; 408  : 		CvCity* pkCity = GC.getMap().plot(iCityX, iCityY)->getPlotCity();

	mov	esi, DWORD PTR _iCityX$[esp+88]
	add	esp, 8
	cmp	esi, -2147483647			; 80000001H
	je	$LN13@ResponseEn
	cmp	DWORD PTR _iCityY$[esp+80], -2147483647	; 80000001H
	je	SHORT $LN13@ResponseEn
	mov	ebx, DWORD PTR ?gGlobals@@3VCvGlobals@@A+52
	mov	al, BYTE PTR [ebx+4056]
	mov	ecx, DWORD PTR [ebx+4020]
	test	al, al
	je	SHORT $LN75@ResponseEn
	test	esi, esi
	jge	SHORT $LN25@ResponseEn
	mov	eax, esi
	cdq
	idiv	ecx
	mov	esi, edx
	add	esi, ecx
	jmp	SHORT $LN75@ResponseEn
$LN25@ResponseEn:
	cmp	esi, ecx
	jl	SHORT $LN75@ResponseEn
	mov	eax, esi
	cdq
	idiv	ecx
	mov	esi, edx
$LN75@ResponseEn:
	mov	al, BYTE PTR [ebx+4057]
	mov	edi, DWORD PTR [ebx+4024]
	test	al, al
	mov	eax, DWORD PTR _iCityY$[esp+80]
	je	SHORT $LN33@ResponseEn
	test	eax, eax
	jge	SHORT $LN35@ResponseEn
	cdq
	idiv	edi
	add	edx, edi
	jmp	SHORT $LN37@ResponseEn
$LN35@ResponseEn:
	cmp	eax, edi
	jl	SHORT $LN33@ResponseEn
	cdq
	idiv	edi
	jmp	SHORT $LN37@ResponseEn
$LN33@ResponseEn:
	mov	edx, eax
$LN37@ResponseEn:
	test	esi, esi
	jl	SHORT $LN13@ResponseEn
	cmp	esi, ecx
	jge	SHORT $LN13@ResponseEn
	test	edx, edx
	jl	SHORT $LN13@ResponseEn
	cmp	edx, edi
	jge	SHORT $LN13@ResponseEn
	imul	ecx, edx
	add	ecx, esi
	imul	ecx, 484				; 000001e4H
	add	ecx, DWORD PTR [ebx+4068]
	jmp	SHORT $LN15@ResponseEn
$LN13@ResponseEn:
	xor	ecx, ecx
$LN15@ResponseEn:
	mov	eax, DWORD PTR [ecx+104]
	test	eax, eax
	jl	SHORT $LN51@ResponseEn
	cmp	eax, 64					; 00000040H
	jge	SHORT $LN51@ResponseEn
	mov	edx, DWORD PTR [ecx+108]
	imul	eax, 63236				; 0000f704H
	add	eax, DWORD PTR ?m_aPlayers@CvPlayerAI@@1PAV1@A ; CvPlayerAI::m_aPlayers
	push	edx
	mov	ecx, eax
	call	?getCity@CvPlayer@@QAEPAVCvCity@@H@Z	; CvPlayer::getCity
	mov	esi, eax
	jmp	SHORT $LN52@ResponseEn
$LN51@ResponseEn:
	xor	esi, esi
$LN52@ResponseEn:

; 409  : 		CvPlayerAI& kPlayer = GET_PLAYER(ePlayer);

	imul	ebp, 63236				; 0000f704H
	add	ebp, DWORD PTR ?m_aPlayers@CvPlayerAI@@1PAV1@A ; CvPlayerAI::m_aPlayers

; 410  : #ifdef AUI_DLLNETMESSAGEHANDLER_FIX_RESPAWN_PROPHET_IF_BEATEN_TO_LAST_RELIGION
; 411  : 		if (kPlayer.isHuman() && pkCity && eResult != CvGameReligions::FOUNDING_NO_BELIEFS_AVAILABLE)
; 412  : #else
; 413  : 		if(kPlayer.isHuman() && eResult != CvGameReligions::FOUNDING_NO_RELIGIONS_AVAILABLE && pkCity)

	mov	ecx, ebp
	call	?isHuman@CvPlayer@@QBE_NXZ		; CvPlayer::isHuman
	test	al, al
	je	$LN72@ResponseEn
	cmp	DWORD PTR _eResult$[esp+80], 4
	je	$LN72@ResponseEn
	test	esi, esi
	je	$LN72@ResponseEn

; 414  : #endif
; 415  : 		{
; 416  : 			CvNotifications* pNotifications = kPlayer.GetNotifications();

	mov	ecx, ebp
	call	?GetNotifications@CvPlayer@@QBEPAVCvNotifications@@XZ ; CvPlayer::GetNotifications
	mov	edi, eax

; 417  : 			if(pNotifications)

	mov	ebx, 1
	test	edi, edi
	je	$LN1@ResponseEn

; 418  : 			{
; 419  : 				CvString strBuffer = GetLocalizedText("TXT_KEY_NOTIFICATION_ENHANCE_RELIGION");

	lea	eax, DWORD PTR _strBuffer$222907[esp+84]
	push	OFFSET $SG222909
	push	eax
	call	?GetLocalizedText@@YA?AVCvString@@PBD@Z	; GetLocalizedText

; 420  : 				CvString strSummary = GetLocalizedText("TXT_KEY_NOTIFICATION_SUMMARY_ENHANCE_RELIGION");

	lea	ecx, DWORD PTR _strSummary$222910[esp+92]
	push	OFFSET $SG222912
	push	ecx
	mov	DWORD PTR __$EHRec$[esp+108], 0
	call	?GetLocalizedText@@YA?AVCvString@@PBD@Z	; GetLocalizedText
	add	esp, 16					; 00000010H

; 421  : 				pNotifications->Add(NOTIFICATION_ENHANCE_RELIGION, strBuffer, strSummary, iCityX, iCityY, -1, pkCity->GetID());

	mov	esi, DWORD PTR [esi+120]
	lea	ecx, DWORD PTR _strSummary$222910[esp+84]
	mov	BYTE PTR __$EHRec$[esp+92], bl
	call	DWORD PTR __imp_?c_str@?$basic_string@DU?$char_traits@D@std@@V?$allocator@D@2@@std@@QBEPBDXZ
	mov	edx, DWORD PTR _iCityY$[esp+80]
	mov	ecx, DWORD PTR _iCityX$[esp+80]
	push	esi
	push	-1
	push	edx
	push	ecx
	push	eax
	lea	ecx, DWORD PTR _strBuffer$222907[esp+104]
	call	DWORD PTR __imp_?c_str@?$basic_string@DU?$char_traits@D@std@@V?$allocator@D@2@@std@@QBEPBDXZ
	push	eax
	push	-372818113				; e9c73f3fH
	mov	ecx, edi
	call	?Add@CvNotifications@@QAEHW4NotificationTypes@@PBD1HHHH@Z ; CvNotifications::Add

; 422  : 			}

	lea	ecx, DWORD PTR _strSummary$222910[esp+84]
	mov	BYTE PTR __$EHRec$[esp+92], 0
	call	DWORD PTR __imp_??1?$basic_string@DU?$char_traits@D@std@@V?$allocator@D@2@@std@@QAE@XZ
	lea	ecx, DWORD PTR _strBuffer$222907[esp+84]
	mov	DWORD PTR __$EHRec$[esp+92], -1
	call	DWORD PTR __imp_??1?$basic_string@DU?$char_traits@D@std@@V?$allocator@D@2@@std@@QAE@XZ
$LN1@ResponseEn:

; 423  : 			kPlayer.GetReligions()->SetFoundingReligion(true);

	mov	ecx, ebp
	call	?GetReligions@CvPlayer@@QBEPAVCvPlayerReligions@@XZ ; CvPlayer::GetReligions
	mov	DWORD PTR [eax+8], ebx
$LN72@ResponseEn:

; 424  : 		}
; 425  : #ifdef AUI_DLLNETMESSAGEHANDLER_FIX_RESPAWN_PROPHET_IF_BEATEN_TO_LAST_RELIGION
; 426  : 		else if (kPlayer.getCapitalCity())
; 427  : 		{
; 428  : 			UnitTypes eUnit = (UnitTypes)GC.getInfoTypeForString("UNIT_PROPHET", true);
; 429  : 			if (eUnit != NO_UNIT)
; 430  : 			{
; 431  : 				kPlayer.getCapitalCity()->GetCityCitizens()->DoSpawnGreatPerson(eUnit, false /*bIncrementCount*/, false, true);
; 432  : 			}
; 433  : 		}
; 434  : #endif
; 435  : 	}
; 436  : }

	mov	ecx, DWORD PTR __$EHRec$[esp+84]
	pop	edi
	pop	esi
	pop	ebp
	pop	ebx
	mov	DWORD PTR fs:0, ecx
	add	esp, 68					; 00000044H
	ret	32					; 00000020H
_TEXT	ENDS
;	COMDAT text$x
text$x	SEGMENT
__unwindfunclet$?ResponseEnhanceReligion@CvDllNetMessageHandler@@UAGXW4PlayerTypes@@W4ReligionTypes@@PBDW4BeliefTypes@@3HH@Z$0:
	lea	ecx, DWORD PTR _strBuffer$222907[ebp]
	jmp	??1CvString@@QAE@XZ			; CvString::~CvString
__unwindfunclet$?ResponseEnhanceReligion@CvDllNetMessageHandler@@UAGXW4PlayerTypes@@W4ReligionTypes@@PBDW4BeliefTypes@@3HH@Z$1:
	lea	ecx, DWORD PTR _strSummary$222910[ebp]
	jmp	??1CvString@@QAE@XZ			; CvString::~CvString
__ehhandler$?ResponseEnhanceReligion@CvDllNetMessageHandler@@UAGXW4PlayerTypes@@W4ReligionTypes@@PBDW4BeliefTypes@@3HH@Z:
	mov	eax, OFFSET __ehfuncinfo$?ResponseEnhanceReligion@CvDllNetMessageHandler@@UAGXW4PlayerTypes@@W4ReligionTypes@@PBDW4BeliefTypes@@3HH@Z
	jmp	___CxxFrameHandler3
text$x	ENDS
?ResponseEnhanceReligion@CvDllNetMessageHandler@@UAGXW4PlayerTypes@@W4ReligionTypes@@PBDW4BeliefTypes@@3HH@Z ENDP ; CvDllNetMessageHandler::ResponseEnhanceReligion
EXTRN	?ControlsGreatWork@CvPlayerCulture@@QAE_NH@Z:PROC ; CvPlayerCulture::ControlsGreatWork
EXTRN	?SetSwappableMusicIndex@CvPlayerCulture@@QAEXH@Z:PROC ; CvPlayerCulture::SetSwappableMusicIndex
EXTRN	?SetSwappableWritingIndex@CvPlayerCulture@@QAEXH@Z:PROC ; CvPlayerCulture::SetSwappableWritingIndex
EXTRN	?SetSwappableArtIndex@CvPlayerCulture@@QAEXH@Z:PROC ; CvPlayerCulture::SetSwappableArtIndex
EXTRN	?SetSwappableArtifactIndex@CvPlayerCulture@@QAEXH@Z:PROC ; CvPlayerCulture::SetSwappableArtifactIndex
EXTRN	?getInfoTypeForString@CvGlobals@@QBEHPBD_N@Z:PROC ; CvGlobals::getInfoTypeForString
; Function compile flags: /Ogtpy
;	COMDAT ?ResponseSetSwappableGreatWork@CvDllNetMessageHandler@@UAGXW4PlayerTypes@@HH@Z
_TEXT	SEGMENT
_this$ = 8						; size = 4
_ePlayer$ = 12						; size = 4
_iWorkClass$ = 16					; size = 4
_iWorkIndex$ = 20					; size = 4
?ResponseSetSwappableGreatWork@CvDllNetMessageHandler@@UAGXW4PlayerTypes@@HH@Z PROC ; CvDllNetMessageHandler::ResponseSetSwappableGreatWork, COMDAT

; 625  : 	CvAssertMsg(ePlayer != NO_PLAYER, "ePlayer invalid");
; 626  : 	
; 627  : 	// is this player alive
; 628  : 	if (GET_PLAYER(ePlayer).isAlive())

	mov	eax, DWORD PTR ?m_aPlayers@CvPlayerAI@@1PAV1@A ; CvPlayerAI::m_aPlayers
	push	esi
	mov	esi, DWORD PTR _ePlayer$[esp]
	imul	esi, 63236				; 0000f704H
	cmp	BYTE PTR [esi+eax+2256], 0
	lea	ecx, DWORD PTR [esi+eax]
	je	$LN18@ResponseSe@4
	push	edi

; 629  : 	{
; 630  : 		// -1 indicates that they want to clear the slot
; 631  : 		if (iWorkIndex == -1)

	mov	edi, DWORD PTR _iWorkIndex$[esp+4]
	cmp	edi, -1
	jne	$LN17@ResponseSe@4

; 632  : 		{
; 633  : 			if (iWorkClass == GC.getInfoTypeForString("GREAT_WORK_ARTIFACT"))

	push	0
	push	OFFSET $SG223003
	mov	ecx, OFFSET ?gGlobals@@3VCvGlobals@@A	; gGlobals
	call	?getInfoTypeForString@CvGlobals@@QBEHPBD_N@Z ; CvGlobals::getInfoTypeForString
	mov	edi, DWORD PTR _iWorkClass$[esp+4]
	cmp	edi, eax
	jne	SHORT $LN16@ResponseSe@4

; 634  : 			{
; 635  : 				GET_PLAYER(ePlayer).GetCulture()->SetSwappableArtifactIndex(-1);

	mov	ecx, DWORD PTR ?m_aPlayers@CvPlayerAI@@1PAV1@A ; CvPlayerAI::m_aPlayers
	add	ecx, esi
	push	-1
	call	?GetCulture@CvPlayer@@QBEPAVCvPlayerCulture@@XZ ; CvPlayer::GetCulture
	mov	ecx, eax
	call	?SetSwappableArtifactIndex@CvPlayerCulture@@QAEXH@Z ; CvPlayerCulture::SetSwappableArtifactIndex
	jmp	$LN1@ResponseSe@4
$LN16@ResponseSe@4:

; 636  : 			}
; 637  : 			else if (iWorkClass == GC.getInfoTypeForString("GREAT_WORK_ART"))

	push	0
	push	OFFSET $SG223006
	mov	ecx, OFFSET ?gGlobals@@3VCvGlobals@@A	; gGlobals
	call	?getInfoTypeForString@CvGlobals@@QBEHPBD_N@Z ; CvGlobals::getInfoTypeForString
	cmp	edi, eax
	jne	SHORT $LN14@ResponseSe@4

; 638  : 			{
; 639  : 				GET_PLAYER(ePlayer).GetCulture()->SetSwappableArtIndex(-1);

	mov	edx, DWORD PTR ?m_aPlayers@CvPlayerAI@@1PAV1@A ; CvPlayerAI::m_aPlayers
	lea	ecx, DWORD PTR [esi+edx]
	push	-1
	call	?GetCulture@CvPlayer@@QBEPAVCvPlayerCulture@@XZ ; CvPlayer::GetCulture
	mov	ecx, eax
	call	?SetSwappableArtIndex@CvPlayerCulture@@QAEXH@Z ; CvPlayerCulture::SetSwappableArtIndex
	jmp	$LN1@ResponseSe@4
$LN14@ResponseSe@4:

; 640  : 			}
; 641  : 			else if (iWorkClass == GC.getInfoTypeForString("GREAT_WORK_LITERATURE"))

	push	0
	push	OFFSET $SG223009
	mov	ecx, OFFSET ?gGlobals@@3VCvGlobals@@A	; gGlobals
	call	?getInfoTypeForString@CvGlobals@@QBEHPBD_N@Z ; CvGlobals::getInfoTypeForString
	cmp	edi, eax
	jne	SHORT $LN12@ResponseSe@4

; 642  : 			{
; 643  : 				GET_PLAYER(ePlayer).GetCulture()->SetSwappableWritingIndex(-1);

	mov	eax, DWORD PTR ?m_aPlayers@CvPlayerAI@@1PAV1@A ; CvPlayerAI::m_aPlayers
	lea	ecx, DWORD PTR [esi+eax]
	push	-1
	call	?GetCulture@CvPlayer@@QBEPAVCvPlayerCulture@@XZ ; CvPlayer::GetCulture
	mov	ecx, eax
	call	?SetSwappableWritingIndex@CvPlayerCulture@@QAEXH@Z ; CvPlayerCulture::SetSwappableWritingIndex
	jmp	$LN1@ResponseSe@4
$LN12@ResponseSe@4:

; 644  : 			}			
; 645  : 			else if (iWorkClass == GC.getInfoTypeForString("GREAT_WORK_MUSIC"))

	push	0
	push	OFFSET $SG223012
	mov	ecx, OFFSET ?gGlobals@@3VCvGlobals@@A	; gGlobals
	call	?getInfoTypeForString@CvGlobals@@QBEHPBD_N@Z ; CvGlobals::getInfoTypeForString
	cmp	edi, eax
	jne	$LN1@ResponseSe@4

; 646  : 			{
; 647  : 				GET_PLAYER(ePlayer).GetCulture()->SetSwappableMusicIndex(-1);

	mov	ecx, DWORD PTR ?m_aPlayers@CvPlayerAI@@1PAV1@A ; CvPlayerAI::m_aPlayers
	add	ecx, esi
	push	-1
	call	?GetCulture@CvPlayer@@QBEPAVCvPlayerCulture@@XZ ; CvPlayer::GetCulture
	mov	ecx, eax
	call	?SetSwappableMusicIndex@CvPlayerCulture@@QAEXH@Z ; CvPlayerCulture::SetSwappableMusicIndex

; 648  : 			}
; 649  : 		}
; 650  : 		else

	jmp	$LN1@ResponseSe@4
$LN17@ResponseSe@4:

; 651  : 		{
; 652  : 			// does this player control this work
; 653  : 			if (GET_PLAYER(ePlayer).GetCulture()->ControlsGreatWork(iWorkIndex))

	push	edi
	call	?GetCulture@CvPlayer@@QBEPAVCvPlayerCulture@@XZ ; CvPlayer::GetCulture
	mov	ecx, eax
	call	?ControlsGreatWork@CvPlayerCulture@@QAE_NH@Z ; CvPlayerCulture::ControlsGreatWork
	test	al, al
	je	$LN1@ResponseSe@4
	push	ebx

; 654  : 			{
; 655  : 				if (iWorkClass == GC.getInfoTypeForString("GREAT_WORK_ARTIFACT"))

	push	0
	push	OFFSET $SG223016
	mov	ecx, OFFSET ?gGlobals@@3VCvGlobals@@A	; gGlobals
	call	?getInfoTypeForString@CvGlobals@@QBEHPBD_N@Z ; CvGlobals::getInfoTypeForString
	mov	ebx, DWORD PTR _iWorkClass$[esp+8]
	cmp	ebx, eax
	jne	SHORT $LN7@ResponseSe@4

; 656  : 				{
; 657  : 					GET_PLAYER(ePlayer).GetCulture()->SetSwappableArtifactIndex(iWorkIndex);

	mov	edx, DWORD PTR ?m_aPlayers@CvPlayerAI@@1PAV1@A ; CvPlayerAI::m_aPlayers
	lea	ecx, DWORD PTR [esi+edx]
	push	edi
	call	?GetCulture@CvPlayer@@QBEPAVCvPlayerCulture@@XZ ; CvPlayer::GetCulture
	mov	ecx, eax
	call	?SetSwappableArtifactIndex@CvPlayerCulture@@QAEXH@Z ; CvPlayerCulture::SetSwappableArtifactIndex
	jmp	$LN47@ResponseSe@4
$LN7@ResponseSe@4:

; 658  : 				}
; 659  : 				else if (iWorkClass == GC.getInfoTypeForString("GREAT_WORK_ART"))

	push	0
	push	OFFSET $SG223019
	mov	ecx, OFFSET ?gGlobals@@3VCvGlobals@@A	; gGlobals
	call	?getInfoTypeForString@CvGlobals@@QBEHPBD_N@Z ; CvGlobals::getInfoTypeForString
	cmp	ebx, eax
	jne	SHORT $LN5@ResponseSe@4

; 660  : 				{
; 661  : 					GET_PLAYER(ePlayer).GetCulture()->SetSwappableArtIndex(iWorkIndex);

	mov	eax, DWORD PTR ?m_aPlayers@CvPlayerAI@@1PAV1@A ; CvPlayerAI::m_aPlayers
	lea	ecx, DWORD PTR [esi+eax]
	push	edi
	call	?GetCulture@CvPlayer@@QBEPAVCvPlayerCulture@@XZ ; CvPlayer::GetCulture
	mov	ecx, eax
	call	?SetSwappableArtIndex@CvPlayerCulture@@QAEXH@Z ; CvPlayerCulture::SetSwappableArtIndex
	jmp	SHORT $LN47@ResponseSe@4
$LN5@ResponseSe@4:

; 662  : 				}
; 663  : 				else if (iWorkClass == GC.getInfoTypeForString("GREAT_WORK_LITERATURE"))

	push	0
	push	OFFSET $SG223022
	mov	ecx, OFFSET ?gGlobals@@3VCvGlobals@@A	; gGlobals
	call	?getInfoTypeForString@CvGlobals@@QBEHPBD_N@Z ; CvGlobals::getInfoTypeForString
	cmp	ebx, eax
	jne	SHORT $LN3@ResponseSe@4

; 664  : 				{
; 665  : 					GET_PLAYER(ePlayer).GetCulture()->SetSwappableWritingIndex(iWorkIndex);

	mov	ecx, DWORD PTR ?m_aPlayers@CvPlayerAI@@1PAV1@A ; CvPlayerAI::m_aPlayers
	add	ecx, esi
	push	edi
	call	?GetCulture@CvPlayer@@QBEPAVCvPlayerCulture@@XZ ; CvPlayer::GetCulture
	mov	ecx, eax
	call	?SetSwappableWritingIndex@CvPlayerCulture@@QAEXH@Z ; CvPlayerCulture::SetSwappableWritingIndex
	jmp	SHORT $LN47@ResponseSe@4
$LN3@ResponseSe@4:

; 666  : 				}			
; 667  : 				else if (iWorkClass == GC.getInfoTypeForString("GREAT_WORK_MUSIC"))

	push	0
	push	OFFSET $SG223025
	mov	ecx, OFFSET ?gGlobals@@3VCvGlobals@@A	; gGlobals
	call	?getInfoTypeForString@CvGlobals@@QBEHPBD_N@Z ; CvGlobals::getInfoTypeForString
	cmp	ebx, eax
	jne	SHORT $LN47@ResponseSe@4

; 668  : 				{
; 669  : 					GET_PLAYER(ePlayer).GetCulture()->SetSwappableMusicIndex(iWorkIndex);

	mov	edx, DWORD PTR ?m_aPlayers@CvPlayerAI@@1PAV1@A ; CvPlayerAI::m_aPlayers
	lea	ecx, DWORD PTR [esi+edx]
	push	edi
	call	?GetCulture@CvPlayer@@QBEPAVCvPlayerCulture@@XZ ; CvPlayer::GetCulture
	mov	ecx, eax
	call	?SetSwappableMusicIndex@CvPlayerCulture@@QAEXH@Z ; CvPlayerCulture::SetSwappableMusicIndex
$LN47@ResponseSe@4:
	pop	ebx
$LN1@ResponseSe@4:

; 670  : 				}				
; 671  : 			}
; 672  : 		}
; 673  : 		GC.GetEngineUserInterface()->setDirty(GreatWorksScreen_DIRTY_BIT, true);

	mov	ecx, DWORD PTR ?gGlobals@@3VCvGlobals@@A+8568
	mov	eax, DWORD PTR [ecx]
	mov	edx, DWORD PTR [eax+260]
	push	1
	push	36					; 00000024H
	call	edx
	pop	edi
$LN18@ResponseSe@4:
	pop	esi

; 674  : 	}
; 675  : }

	ret	16					; 00000010H
?ResponseSetSwappableGreatWork@CvDllNetMessageHandler@@UAGXW4PlayerTypes@@HH@Z ENDP ; CvDllNetMessageHandler::ResponseSetSwappableGreatWork
_TEXT	ENDS
EXTRN	?DoSwitchIdeologies@CvPlayerPolicies@@QAEXW4PolicyBranchTypes@@@Z:PROC ; CvPlayerPolicies::DoSwitchIdeologies
EXTRN	?SetAnarchyNumTurns@CvPlayer@@QAEXH@Z:PROC	; CvPlayer::SetAnarchyNumTurns
EXTRN	?GetPublicOpinionPreferredIdeology@CvPlayerCulture@@QBE?AW4PolicyBranchTypes@@XZ:PROC ; CvPlayerCulture::GetPublicOpinionPreferredIdeology
; Function compile flags: /Ogtpy
;	COMDAT ?ResponseChangeIdeology@CvDllNetMessageHandler@@UAGXW4PlayerTypes@@@Z
_TEXT	SEGMENT
_this$ = 8						; size = 4
_ePlayer$ = 12						; size = 4
?ResponseChangeIdeology@CvDllNetMessageHandler@@UAGXW4PlayerTypes@@@Z PROC ; CvDllNetMessageHandler::ResponseChangeIdeology, COMDAT

; 690  : {

	push	esi

; 691  : 	CvAssertMsg(ePlayer != NO_PLAYER, "ePlayer invalid");
; 692  : 
; 693  : 	// is this player alive
; 694  : 	CvPlayer &kPlayer = GET_PLAYER(ePlayer);

	mov	esi, DWORD PTR _ePlayer$[esp]
	imul	esi, 63236				; 0000f704H
	add	esi, DWORD PTR ?m_aPlayers@CvPlayerAI@@1PAV1@A ; CvPlayerAI::m_aPlayers

; 695  : 	if (kPlayer.isAlive())

	cmp	BYTE PTR [esi+2256], 0
	je	SHORT $LN1@ResponseCh@2
	push	edi

; 696  : 	{
; 697  : 		PolicyBranchTypes ePreferredIdeology = kPlayer.GetCulture()->GetPublicOpinionPreferredIdeology();

	mov	ecx, esi
	call	?GetCulture@CvPlayer@@QBEPAVCvPlayerCulture@@XZ ; CvPlayer::GetCulture
	mov	ecx, eax
	call	?GetPublicOpinionPreferredIdeology@CvPlayerCulture@@QBE?AW4PolicyBranchTypes@@XZ ; CvPlayerCulture::GetPublicOpinionPreferredIdeology
	mov	edi, eax

; 698  : 		kPlayer.SetAnarchyNumTurns(GC.getSWITCH_POLICY_BRANCHES_ANARCHY_TURNS());

	mov	eax, DWORD PTR ?gGlobals@@3VCvGlobals@@A+6976
	push	eax
	mov	ecx, esi
	call	?SetAnarchyNumTurns@CvPlayer@@QAEXH@Z	; CvPlayer::SetAnarchyNumTurns

; 699  : 		kPlayer.GetPlayerPolicies()->DoSwitchIdeologies(ePreferredIdeology);

	push	edi
	mov	ecx, esi
	call	?GetPlayerPolicies@CvPlayer@@QBEPAVCvPlayerPolicies@@XZ ; CvPlayer::GetPlayerPolicies
	mov	ecx, eax
	call	?DoSwitchIdeologies@CvPlayerPolicies@@QAEXW4PolicyBranchTypes@@@Z ; CvPlayerPolicies::DoSwitchIdeologies
	pop	edi
$LN1@ResponseCh@2:
	pop	esi

; 700  : 	}
; 701  : }

	ret	8
?ResponseChangeIdeology@CvDllNetMessageHandler@@UAGXW4PlayerTypes@@@Z ENDP ; CvDllNetMessageHandler::ResponseChangeIdeology
_TEXT	ENDS
EXTRN	?launch@CvPlayer@@QAEXW4VictoryTypes@@@Z:PROC	; CvPlayer::launch
EXTRN	?canLaunch@CvTeam@@QBE_NW4VictoryTypes@@@Z:PROC	; CvTeam::canLaunch
; Function compile flags: /Ogtpy
;	COMDAT ?ResponseLaunchSpaceship@CvDllNetMessageHandler@@UAGXW4PlayerTypes@@W4VictoryTypes@@@Z
_TEXT	SEGMENT
_this$ = 8						; size = 4
_ePlayer$ = 12						; size = 4
_eVictory$ = 16						; size = 4
?ResponseLaunchSpaceship@CvDllNetMessageHandler@@UAGXW4PlayerTypes@@W4VictoryTypes@@@Z PROC ; CvDllNetMessageHandler::ResponseLaunchSpaceship, COMDAT

; 710  : {

	push	esi

; 711  : 	CvPlayerAI& kPlayer = GET_PLAYER(ePlayer);

	mov	esi, DWORD PTR _ePlayer$[esp]
	imul	esi, 63236				; 0000f704H
	add	esi, DWORD PTR ?m_aPlayers@CvPlayerAI@@1PAV1@A ; CvPlayerAI::m_aPlayers
	push	edi

; 712  : 	CvTeam& kTeam = GET_TEAM(kPlayer.getTeam());

	mov	eax, DWORD PTR [esi+44]
	cmp	eax, 63					; 0000003fH
	ja	SHORT $LN10@ResponseLa
	mov	ecx, DWORD PTR ?sr_TeamTypes@CvPreGame@@3ABV?$vector@W4TeamTypes@@V?$allocator@W4TeamTypes@@@std@@@std@@B ; CvPreGame::sr_TeamTypes
	mov	edx, DWORD PTR [ecx+4]
	mov	eax, DWORD PTR [edx+eax*4]
	jmp	SHORT $LN11@ResponseLa
$LN10@ResponseLa:
	or	eax, -1
$LN11@ResponseLa:

; 713  : 
; 714  : 	if(kTeam.canLaunch(eVictory))

	mov	edi, DWORD PTR _eVictory$[esp+4]
	imul	eax, 2980				; 00000ba4H
	add	eax, DWORD PTR ?m_aTeams@CvTeam@@1PAV1@A ; CvTeam::m_aTeams
	push	edi
	mov	ecx, eax
	call	?canLaunch@CvTeam@@QBE_NW4VictoryTypes@@@Z ; CvTeam::canLaunch
	test	al, al
	je	SHORT $LN1@ResponseLa

; 715  : 	{
; 716  : 		kPlayer.launch(eVictory);

	push	edi
	mov	ecx, esi
	call	?launch@CvPlayer@@QAEXW4VictoryTypes@@@Z ; CvPlayer::launch
$LN1@ResponseLa:
	pop	edi
	pop	esi

; 717  : 	}
; 718  : }

	ret	12					; 0000000cH
?ResponseLaunchSpaceship@CvDllNetMessageHandler@@UAGXW4PlayerTypes@@W4VictoryTypes@@@Z ENDP ; CvDllNetMessageHandler::ResponseLaunchSpaceship
_TEXT	ENDS
EXTRN	?receiveGoody@CvPlayer@@QAEXPAVCvPlot@@W4GoodyTypes@@PAVCvUnit@@@Z:PROC ; CvPlayer::receiveGoody
; Function compile flags: /Ogtpy
;	COMDAT ?ResponseGoodyChoice@CvDllNetMessageHandler@@UAGXW4PlayerTypes@@HHW4GoodyTypes@@H@Z
_TEXT	SEGMENT
_this$ = 8						; size = 4
_kPlayer$ = 12						; size = 4
_ePlayer$ = 12						; size = 4
_iPlotX$ = 16						; size = 4
_iPlotY$ = 20						; size = 4
_eGoody$ = 24						; size = 4
_iUnitID$ = 28						; size = 4
?ResponseGoodyChoice@CvDllNetMessageHandler@@UAGXW4PlayerTypes@@HHW4GoodyTypes@@H@Z PROC ; CvDllNetMessageHandler::ResponseGoodyChoice, COMDAT

; 914  : 	CvPlayerAI& kPlayer = GET_PLAYER(ePlayer);
; 915  : 	CvPlot* pPlot = GC.getMap().plot(iPlotX, iPlotY);

	mov	eax, DWORD PTR _iPlotX$[esp-4]
	push	ebx
	push	ebp
	push	esi
	push	edi
	mov	edi, DWORD PTR _ePlayer$[esp+12]
	imul	edi, 63236				; 0000f704H
	add	edi, DWORD PTR ?m_aPlayers@CvPlayerAI@@1PAV1@A ; CvPlayerAI::m_aPlayers
	mov	DWORD PTR _kPlayer$[esp+12], edi
	cmp	eax, -2147483647			; 80000001H
	je	$LN7@ResponseGo
	mov	ebx, DWORD PTR _iPlotY$[esp+12]
	cmp	ebx, -2147483647			; 80000001H
	je	$LN7@ResponseGo
	mov	ebp, DWORD PTR ?gGlobals@@3VCvGlobals@@A+52
	cmp	BYTE PTR [ebp+4056], 0
	mov	ecx, DWORD PTR [ebp+4020]
	je	SHORT $LN46@ResponseGo
	test	eax, eax
	jge	SHORT $LN19@ResponseGo
	cdq
	idiv	ecx
	mov	esi, edx
	add	esi, ecx
	jmp	SHORT $LN21@ResponseGo
$LN19@ResponseGo:
	cmp	eax, ecx
	jl	SHORT $LN46@ResponseGo
	cdq
	idiv	ecx
	mov	esi, edx
	jmp	SHORT $LN21@ResponseGo
$LN46@ResponseGo:
	mov	esi, eax
$LN21@ResponseGo:
	cmp	BYTE PTR [ebp+4057], 0
	mov	edi, DWORD PTR [ebp+4024]
	je	SHORT $LN47@ResponseGo
	test	ebx, ebx
	jge	SHORT $LN29@ResponseGo
	mov	eax, ebx
	cdq
	idiv	edi
	add	edx, edi
	jmp	SHORT $LN31@ResponseGo
$LN29@ResponseGo:
	cmp	ebx, edi
	jl	SHORT $LN47@ResponseGo
	mov	eax, ebx
	cdq
	idiv	edi
	jmp	SHORT $LN31@ResponseGo
$LN47@ResponseGo:
	mov	edx, ebx
$LN31@ResponseGo:
	test	esi, esi
	jl	SHORT $LN11@ResponseGo
	cmp	esi, ecx
	jge	SHORT $LN11@ResponseGo
	test	edx, edx
	jl	SHORT $LN11@ResponseGo
	cmp	edx, edi
	jge	SHORT $LN11@ResponseGo
	mov	edi, DWORD PTR _kPlayer$[esp+12]
	imul	ecx, edx
	add	ecx, esi
	imul	ecx, 484				; 000001e4H
	add	ecx, DWORD PTR [ebp+4068]
	mov	esi, ecx
	jmp	SHORT $LN9@ResponseGo
$LN11@ResponseGo:
	mov	edi, DWORD PTR _kPlayer$[esp+12]
$LN7@ResponseGo:
	xor	esi, esi
$LN9@ResponseGo:

; 916  : 	CvUnit* pUnit = kPlayer.getUnit(iUnitID);

	mov	eax, DWORD PTR _iUnitID$[esp+12]
	push	eax
	mov	ecx, edi
	call	?getUnit@CvPlayer@@QAEPAVCvUnit@@H@Z	; CvPlayer::getUnit

; 917  : 	kPlayer.receiveGoody(pPlot, eGoody, pUnit);

	mov	ecx, DWORD PTR _eGoody$[esp+12]
	push	eax
	push	ecx
	push	esi
	mov	ecx, edi
	call	?receiveGoody@CvPlayer@@QAEXPAVCvPlot@@W4GoodyTypes@@PAVCvUnit@@@Z ; CvPlayer::receiveGoody
	pop	edi
	pop	esi
	pop	ebp
	pop	ebx

; 918  : }

	ret	24					; 00000018H
?ResponseGoodyChoice@CvDllNetMessageHandler@@UAGXW4PlayerTypes@@HHW4GoodyTypes@@H@Z ENDP ; CvDllNetMessageHandler::ResponseGoodyChoice
_TEXT	ENDS
EXTRN	?pushResearch@CvPlayer@@QAE_NW4TechTypes@@_N@Z:PROC ; CvPlayer::pushResearch
EXTRN	?IsResearchingTech@CvPlayerTechs@@QBE_NW4TechTypes@@@Z:PROC ; CvPlayerTechs::IsResearchingTech
EXTRN	?HasTech@CvTeamTechs@@QBE_NW4TechTypes@@@Z:PROC	; CvTeamTechs::HasTech
EXTRN	?CanEverResearch@CvPlayerTechs@@QBE_NW4TechTypes@@@Z:PROC ; CvPlayerTechs::CanEverResearch
EXTRN	?clearResearchQueue@CvPlayer@@QAEXXZ:PROC	; CvPlayer::clearResearchQueue
EXTRN	?GetTeamTechs@CvTeam@@QBEPAVCvTeamTechs@@XZ:PROC ; CvTeam::GetTeamTechs
EXTRN	?SetNumFreeTechs@CvPlayer@@QAEXH@Z:PROC		; CvPlayer::SetNumFreeTechs
EXTRN	?chooseTech@CvPlayer@@QAEXHPBDW4TechTypes@@@Z:PROC ; CvPlayer::chooseTech
EXTRN	?setHasTech@CvTeam@@QAEXW4TechTypes@@_NW4PlayerTypes@@11@Z:PROC ; CvTeam::setHasTech
EXTRN	?CanResearchForFree@CvPlayerTechs@@QBE_NW4TechTypes@@@Z:PROC ; CvPlayerTechs::CanResearchForFree
EXTRN	?GetPlayerTechs@CvPlayer@@QBEPAVCvPlayerTechs@@XZ:PROC ; CvPlayer::GetPlayerTechs
; Function compile flags: /Ogtpy
;	COMDAT ?ResponseResearch@CvDllNetMessageHandler@@UAGXW4PlayerTypes@@W4TechTypes@@H0_N@Z
_TEXT	SEGMENT
_this$ = 8						; size = 4
_ePlayer$ = 12						; size = 4
$T225440 = 16						; size = 4
_eTech$ = 16						; size = 4
_iDiscover$ = 20					; size = 4
_ePlayerToStealFrom$ = 24				; size = 4
$T225439 = 28						; size = 4
_bShift$ = 28						; size = 1
?ResponseResearch@CvDllNetMessageHandler@@UAGXW4PlayerTypes@@W4TechTypes@@H0_N@Z PROC ; CvDllNetMessageHandler::ResponseResearch, COMDAT

; 969  : {

	push	ebx
	push	ebp

; 970  : 	CvPlayerAI& kPlayer = GET_PLAYER(ePlayer);

	mov	ebp, DWORD PTR _ePlayer$[esp+4]
	push	esi
	mov	esi, ebp
	imul	esi, 63236				; 0000f704H
	add	esi, DWORD PTR ?m_aPlayers@CvPlayerAI@@1PAV1@A ; CvPlayerAI::m_aPlayers
	push	edi

; 971  : 	CvTeam& kTeam = GET_TEAM(kPlayer.getTeam());

	mov	eax, DWORD PTR [esi+44]
	cmp	eax, 63					; 0000003fH
	ja	SHORT $LN22@ResponseRe@3
	mov	ecx, DWORD PTR ?sr_TeamTypes@CvPreGame@@3ABV?$vector@W4TeamTypes@@V?$allocator@W4TeamTypes@@@std@@@std@@B ; CvPreGame::sr_TeamTypes
	mov	edx, DWORD PTR [ecx+4]
	mov	eax, DWORD PTR [edx+eax*4]
	jmp	SHORT $LN23@ResponseRe@3
$LN22@ResponseRe@3:
	or	eax, -1
$LN23@ResponseRe@3:

; 972  : 
; 973  : 	// Free tech
; 974  : 	if(iDiscover > 0)

	mov	ebx, DWORD PTR _iDiscover$[esp+12]
	imul	eax, 2980				; 00000ba4H
	add	eax, DWORD PTR ?m_aTeams@CvTeam@@1PAV1@A ; CvTeam::m_aTeams

; 975  : 	{
; 976  : 		// Make sure we can research this tech for free
; 977  : 		if(kPlayer.GetPlayerTechs()->CanResearchForFree(eTech))

	mov	ecx, esi
	mov	edi, eax
	test	ebx, ebx
	jle	SHORT $LN13@ResponseRe@3
	mov	eax, DWORD PTR _eTech$[esp+12]
	push	eax
	call	?GetPlayerTechs@CvPlayer@@QBEPAVCvPlayerTechs@@XZ ; CvPlayer::GetPlayerTechs
	mov	ecx, eax
	call	?CanResearchForFree@CvPlayerTechs@@QBE_NW4TechTypes@@@Z ; CvPlayerTechs::CanResearchForFree
	test	al, al
	je	$LN3@ResponseRe@3

; 978  : 		{
; 979  : 			kTeam.setHasTech(eTech, true, ePlayer, true, true);

	mov	ecx, DWORD PTR _eTech$[esp+12]
	push	1
	push	1
	push	ebp
	push	1
	push	ecx
	mov	ecx, edi
	call	?setHasTech@CvTeam@@QAEXW4TechTypes@@_NW4PlayerTypes@@11@Z ; CvTeam::setHasTech

; 980  : 
; 981  : 			if(iDiscover > 1)

	cmp	ebx, 1
	jle	SHORT $LN39@ResponseRe@3

; 982  : 			{
; 983  : 				if(ePlayer == GC.getGame().getActivePlayer())

	mov	ecx, DWORD PTR ?gGlobals@@3VCvGlobals@@A+48
	call	?getActivePlayer@CvGame@@QBE?AW4PlayerTypes@@XZ ; CvGame::getActivePlayer
	cmp	ebp, eax
	jne	SHORT $LN39@ResponseRe@3

; 984  : 				{
; 985  : 					kPlayer.chooseTech(iDiscover - 1);

	push	-1
	push	0
	lea	edx, DWORD PTR [ebx-1]
	push	edx
	mov	ecx, esi
	call	?chooseTech@CvPlayer@@QAEXHPBDW4TechTypes@@@Z ; CvPlayer::chooseTech
$LN39@ResponseRe@3:

; 986  : 				}
; 987  : 			}
; 988  : 			kPlayer.SetNumFreeTechs(max(0, iDiscover - 1));

	dec	ebx
	mov	DWORD PTR $T225439[esp+12], ebx
	mov	DWORD PTR $T225440[esp+12], 0
	lea	eax, DWORD PTR $T225439[esp+12]
	test	ebx, ebx
	jg	SHORT $LN34@ResponseRe@3
	lea	eax, DWORD PTR $T225440[esp+12]
$LN34@ResponseRe@3:
	mov	eax, DWORD PTR [eax]
	push	eax
	mov	ecx, esi
	call	?SetNumFreeTechs@CvPlayer@@QAEXH@Z	; CvPlayer::SetNumFreeTechs
	pop	edi
	pop	esi
	pop	ebp
	pop	ebx

; 1023 : 		}
; 1024 : 	}
; 1025 : }

	ret	24					; 00000018H
$LN13@ResponseRe@3:

; 989  : 		}
; 990  : 	}
; 991  : 	// Stealing tech
; 992  : 	else if(ePlayerToStealFrom != NO_PLAYER)

	mov	ebx, DWORD PTR _ePlayerToStealFrom$[esp+12]
	cmp	ebx, -1
	je	SHORT $LN8@ResponseRe@3

; 993  : 	{
; 994  : 		// make sure we can still take a tech
; 995  : 		CvAssertMsg(kPlayer.GetEspionage()->m_aiNumTechsToStealList[ePlayerToStealFrom] > 0, "No techs to steal from player");
; 996  : 		CvAssertMsg(kPlayer.GetEspionage()->m_aaPlayerStealableTechList[ePlayerToStealFrom].size() > 0, "No techs to be stolen from this player");
; 997  : 		CvAssertMsg(kPlayer.GetPlayerTechs()->CanResearch(eTech), "Player can't research this technology");
; 998  : 		CvAssertMsg(GET_TEAM(GET_PLAYER(ePlayerToStealFrom).getTeam()).GetTeamTechs()->HasTech(eTech), "ePlayerToStealFrom does not have the requested tech");
; 999  : 		if (kPlayer.GetEspionage()->m_aiNumTechsToStealList[ePlayerToStealFrom] > 0)

	call	?GetEspionage@CvPlayer@@QBEPAVCvPlayerEspionage@@XZ ; CvPlayer::GetEspionage
	mov	ecx, DWORD PTR [eax+720]
	add	eax, 720				; 000002d0H
	cmp	DWORD PTR [ecx+ebx*4], 0
	jle	$LN3@ResponseRe@3

; 1000 : 		{
; 1001 : 			kTeam.setHasTech(eTech, true, ePlayer, true, true);

	mov	edx, DWORD PTR _eTech$[esp+12]
	push	1
	push	1
	push	ebp
	push	1
	push	edx
	mov	ecx, edi
	call	?setHasTech@CvTeam@@QAEXW4TechTypes@@_NW4PlayerTypes@@11@Z ; CvTeam::setHasTech

; 1002 : 			kPlayer.GetEspionage()->m_aiNumTechsToStealList[ePlayerToStealFrom]--;

	mov	ecx, esi
	call	?GetEspionage@CvPlayer@@QBEPAVCvPlayerEspionage@@XZ ; CvPlayer::GetEspionage
	add	eax, 720				; 000002d0H
	mov	eax, DWORD PTR [eax]
	dec	DWORD PTR [eax+ebx*4]
	pop	edi
	pop	esi
	lea	eax, DWORD PTR [eax+ebx*4]
	pop	ebp
	pop	ebx

; 1023 : 		}
; 1024 : 	}
; 1025 : }

	ret	24					; 00000018H
$LN8@ResponseRe@3:

; 1003 : 		}
; 1004 : 	}
; 1005 : 	// Normal tech
; 1006 : 	else
; 1007 : 	{
; 1008 : 		CvPlayerTechs* pPlayerTechs = kPlayer.GetPlayerTechs();

	call	?GetPlayerTechs@CvPlayer@@QBEPAVCvPlayerTechs@@XZ ; CvPlayer::GetPlayerTechs

; 1009 : 		CvTeamTechs* pTeamTechs = kTeam.GetTeamTechs();

	mov	ecx, edi
	mov	ebp, eax
	call	?GetTeamTechs@CvTeam@@QBEPAVCvTeamTechs@@XZ ; CvTeam::GetTeamTechs

; 1010 : 
; 1011 : 		if(eTech == NO_TECH)

	mov	edi, DWORD PTR _eTech$[esp+12]
	mov	ebx, eax
	cmp	edi, -1
	jne	SHORT $LN5@ResponseRe@3

; 1012 : 		{
; 1013 : 			kPlayer.clearResearchQueue();

	mov	ecx, esi
	call	?clearResearchQueue@CvPlayer@@QAEXXZ	; CvPlayer::clearResearchQueue
	pop	edi
	pop	esi
	pop	ebp
	pop	ebx

; 1023 : 		}
; 1024 : 	}
; 1025 : }

	ret	24					; 00000018H
$LN5@ResponseRe@3:

; 1014 : 		}
; 1015 : 		else if(pPlayerTechs->CanEverResearch(eTech))

	push	edi
	mov	ecx, ebp
	call	?CanEverResearch@CvPlayerTechs@@QBE_NW4TechTypes@@@Z ; CvPlayerTechs::CanEverResearch
	test	al, al
	je	SHORT $LN3@ResponseRe@3

; 1016 : 		{
; 1017 : 			if((pTeamTechs->HasTech(eTech) || pPlayerTechs->IsResearchingTech(eTech)) && !bShift)

	push	edi
	mov	ecx, ebx
	call	?HasTech@CvTeamTechs@@QBE_NW4TechTypes@@@Z ; CvTeamTechs::HasTech
	mov	bl, BYTE PTR _bShift$[esp+12]
	test	al, al
	jne	SHORT $LN1@ResponseRe@3
	push	edi
	mov	ecx, ebp
	call	?IsResearchingTech@CvPlayerTechs@@QBE_NW4TechTypes@@@Z ; CvPlayerTechs::IsResearchingTech
	test	al, al
	je	SHORT $LN2@ResponseRe@3
$LN1@ResponseRe@3:
	test	bl, bl
	jne	SHORT $LN40@ResponseRe@3

; 1018 : 			{
; 1019 : 				kPlayer.clearResearchQueue();

	mov	ecx, esi
	call	?clearResearchQueue@CvPlayer@@QAEXXZ	; CvPlayer::clearResearchQueue
$LN2@ResponseRe@3:

; 1020 : 			}
; 1021 : 
; 1022 : 			kPlayer.pushResearch(eTech, !bShift);

	test	bl, bl
$LN40@ResponseRe@3:
	sete	cl
	movzx	edx, cl
	push	edx
	push	edi
	mov	ecx, esi
	call	?pushResearch@CvPlayer@@QAE_NW4TechTypes@@_N@Z ; CvPlayer::pushResearch
$LN3@ResponseRe@3:
	pop	edi
	pop	esi
	pop	ebp
	pop	ebx

; 1023 : 		}
; 1024 : 	}
; 1025 : }

	ret	24					; 00000018H
?ResponseResearch@CvDllNetMessageHandler@@UAGXW4PlayerTypes@@W4TechTypes@@H0_N@Z ENDP ; CvDllNetMessageHandler::ResponseResearch
_TEXT	ENDS
EXTRN	?getMISSION_MOVE_TO@CvTypes@@YA?BW4MissionTypes@@XZ:PROC ; CvTypes::getMISSION_MOVE_TO
EXTRN	?AreUnitsOfSameType@CvUnit@@QBE_NABV1@_N@Z:PROC	; CvUnit::AreUnitsOfSameType
EXTRN	?getUnitByIndex@CvPlot@@QBEPAVCvUnit@@H@Z:PROC	; CvPlot::getUnitByIndex
EXTRN	?getNumUnits@CvPlot@@QBEHXZ:PROC		; CvPlot::getNumUnits
EXTRN	?plot@CvUnit@@QBEPAVCvPlot@@XZ:PROC		; CvUnit::plot
; Function compile flags: /Ogtpy
;	COMDAT ?ResponseSwapUnits@CvDllNetMessageHandler@@UAGXW4PlayerTypes@@HW4MissionTypes@@HHH_N@Z
_TEXT	SEGMENT
_this$ = 8						; size = 4
_pkUnit$ = 12						; size = 4
_ePlayer$ = 12						; size = 4
_iI$223368 = 16						; size = 4
_iUnitID$ = 16						; size = 4
_eMission$ = 20						; size = 4
_iData1$ = 24						; size = 4
_iData2$ = 28						; size = 4
_iFlags$ = 32						; size = 4
_bShift$ = 36						; size = 1
?ResponseSwapUnits@CvDllNetMessageHandler@@UAGXW4PlayerTypes@@HW4MissionTypes@@HHH_N@Z PROC ; CvDllNetMessageHandler::ResponseSwapUnits, COMDAT

; 1085 : 	CvUnit::dispatchingNetMessage(true);

	push	1
	call	?dispatchingNetMessage@CvUnit@@SAX_N@Z	; CvUnit::dispatchingNetMessage

; 1086 : 
; 1087 : 	CvPlayerAI& kPlayer = GET_PLAYER(ePlayer);

	mov	ecx, DWORD PTR _ePlayer$[esp]

; 1088 : 	CvUnit* pkUnit = kPlayer.getUnit(iUnitID);

	mov	eax, DWORD PTR _iUnitID$[esp]
	imul	ecx, 63236				; 0000f704H
	add	ecx, DWORD PTR ?m_aPlayers@CvPlayerAI@@1PAV1@A ; CvPlayerAI::m_aPlayers
	add	esp, 4
	push	eax
	call	?getUnit@CvPlayer@@QAEPAVCvUnit@@H@Z	; CvPlayer::getUnit
	mov	DWORD PTR _pkUnit$[esp-4], eax

; 1089 : 
; 1090 : 	if(pkUnit != NULL)

	test	eax, eax
	je	$LN60@ResponseSw

; 1091 : 	{
; 1092 : 		// Get target plot
; 1093 : 		CvMap& kMap = GC.getMap();
; 1094 : 		CvPlot* pkTargetPlot = kMap.plot(iData1, iData2);

	mov	eax, DWORD PTR _iData1$[esp-4]
	push	ebp
	mov	ebp, DWORD PTR ?gGlobals@@3VCvGlobals@@A+52
	cmp	eax, -2147483647			; 80000001H
	je	$LN61@ResponseSw
	push	ebx
	mov	ebx, DWORD PTR _iData2$[esp+4]
	cmp	ebx, -2147483647			; 80000001H
	je	$LN62@ResponseSw
	cmp	BYTE PTR [ebp+4056], 0
	mov	ecx, DWORD PTR [ebp+4020]
	push	esi
	je	SHORT $LN23@ResponseSw
	test	eax, eax
	jge	SHORT $LN25@ResponseSw
	cdq
	idiv	ecx
	mov	esi, edx
	add	esi, ecx
	jmp	SHORT $LN27@ResponseSw
$LN25@ResponseSw:
	cmp	eax, ecx
	jl	SHORT $LN23@ResponseSw
	cdq
	idiv	ecx
	mov	esi, edx
	jmp	SHORT $LN27@ResponseSw
$LN23@ResponseSw:
	mov	esi, eax
$LN27@ResponseSw:
	cmp	BYTE PTR [ebp+4057], 0
	push	edi
	mov	edi, DWORD PTR [ebp+4024]
	je	SHORT $LN59@ResponseSw
	test	ebx, ebx
	jge	SHORT $LN35@ResponseSw
	mov	eax, ebx
	cdq
	idiv	edi
	add	edx, edi
	jmp	SHORT $LN37@ResponseSw
$LN35@ResponseSw:
	cmp	ebx, edi
	jl	SHORT $LN59@ResponseSw
	mov	eax, ebx
	cdq
	idiv	edi
	jmp	SHORT $LN37@ResponseSw
$LN59@ResponseSw:
	mov	edx, ebx
$LN37@ResponseSw:
	test	esi, esi
	jl	$LN64@ResponseSw
	cmp	esi, ecx
	jge	$LN64@ResponseSw
	test	edx, edx
	jl	$LN64@ResponseSw
	cmp	edx, edi
	jge	$LN64@ResponseSw
	imul	ecx, edx
	add	ecx, esi
	imul	ecx, 484				; 000001e4H
	add	ecx, DWORD PTR [ebp+4068]
	mov	ebx, ecx

; 1095 : 
; 1096 : 		if(pkTargetPlot != NULL)

	je	$LN64@ResponseSw

; 1097 : 		{
; 1098 : 			CvPlot* pkOriginationPlot = pkUnit->plot();

	mov	ecx, DWORD PTR _pkUnit$[esp+12]
	call	?plot@CvUnit@@QBEPAVCvPlot@@XZ		; CvUnit::plot

; 1099 : 
; 1100 : 			// Find unit to move out
; 1101 : #ifdef AUI_WARNING_FIXES
; 1102 : 			for (uint iI = 0; iI < pkTargetPlot->getNumUnits(); iI++)
; 1103 : #else
; 1104 : 			for(int iI = 0; iI < pkTargetPlot->getNumUnits(); iI++)

	mov	ecx, ebx
	mov	edi, eax
	mov	DWORD PTR _iI$223368[esp+12], 0
	call	?getNumUnits@CvPlot@@QBEHXZ		; CvPlot::getNumUnits
	test	eax, eax
	jle	$LN64@ResponseSw
	mov	ebp, DWORD PTR _bShift$[esp+12]
	npad	6
$LL58@ResponseSw:

; 1105 : #endif
; 1106 : 			{
; 1107 : 				CvUnit* pkUnit2 = pkTargetPlot->getUnitByIndex(iI);

	mov	ecx, DWORD PTR _iI$223368[esp+12]
	push	ecx
	mov	ecx, ebx
	call	?getUnitByIndex@CvPlot@@QBEPAVCvUnit@@H@Z ; CvPlot::getUnitByIndex
	mov	esi, eax

; 1108 : 
; 1109 : 				if(pkUnit2 && pkUnit2->AreUnitsOfSameType(*pkUnit))

	test	esi, esi
	je	SHORT $LN3@ResponseSw
	mov	edx, DWORD PTR _pkUnit$[esp+12]
	push	0
	push	edx
	mov	ecx, esi
	call	?AreUnitsOfSameType@CvUnit@@QBE_NABV1@_N@Z ; CvUnit::AreUnitsOfSameType
	test	al, al
	je	SHORT $LN3@ResponseSw

; 1110 : 				{
; 1111 : 					// Start the swap
; 1112 : 					pkUnit->PushMission(CvTypes::getMISSION_MOVE_TO(), iData1, iData2, MOVE_IGNORE_STACKING, bShift, true);

	mov	eax, DWORD PTR _iData2$[esp+12]
	mov	ecx, DWORD PTR _iData1$[esp+12]
	push	0
	push	0
	push	-1
	push	1
	push	ebp
	push	4
	push	eax
	push	ecx
	call	?getMISSION_MOVE_TO@CvTypes@@YA?BW4MissionTypes@@XZ ; CvTypes::getMISSION_MOVE_TO
	mov	ecx, DWORD PTR _pkUnit$[esp+44]
	push	eax
	call	?PushMission@CvUnit@@QAEXW4MissionTypes@@HHH_N1W4MissionAITypes@@PAVCvPlot@@PAV1@@Z ; CvUnit::PushMission

; 1113 : 
; 1114 : 					// Move the other unit back out, again splitting if necessary
; 1115 : 					pkUnit2->PushMission(CvTypes::getMISSION_MOVE_TO(), pkOriginationPlot->getX(), pkOriginationPlot->getY());

	movsx	eax, WORD PTR [edi+2]
	movsx	ecx, WORD PTR [edi]
	push	0
	push	0
	push	-1
	push	0
	push	0
	push	0
	push	eax
	push	ecx
	call	?getMISSION_MOVE_TO@CvTypes@@YA?BW4MissionTypes@@XZ ; CvTypes::getMISSION_MOVE_TO
	push	eax
	mov	ecx, esi
	call	?PushMission@CvUnit@@QAEXW4MissionTypes@@HHH_N1W4MissionAITypes@@PAVCvPlot@@PAV1@@Z ; CvUnit::PushMission
$LN3@ResponseSw:
	mov	esi, DWORD PTR _iI$223368[esp+12]
	inc	esi
	mov	ecx, ebx
	mov	DWORD PTR _iI$223368[esp+12], esi
	call	?getNumUnits@CvPlot@@QBEHXZ		; CvPlot::getNumUnits
	cmp	esi, eax
	jl	SHORT $LL58@ResponseSw
$LN64@ResponseSw:
	pop	edi
	pop	esi
$LN62@ResponseSw:
	pop	ebx
$LN61@ResponseSw:
	pop	ebp
$LN60@ResponseSw:

; 1116 : 				}
; 1117 : 			}
; 1118 : 		}
; 1119 : 	}
; 1120 : 	CvUnit::dispatchingNetMessage(false);

	push	0
	call	?dispatchingNetMessage@CvUnit@@SAX_N@Z	; CvUnit::dispatchingNetMessage
	pop	ecx

; 1121 : }

	ret	32					; 00000020H
?ResponseSwapUnits@CvDllNetMessageHandler@@UAGXW4PlayerTypes@@HW4MissionTypes@@HHH_N@Z ENDP ; CvDllNetMessageHandler::ResponseSwapUnits
_TEXT	ENDS
PUBLIC	??_7ICvNetMessageHandler3@@6B@			; ICvNetMessageHandler3::`vftable'
PUBLIC	??0ICvNetMessageHandler3@@QAE@XZ		; ICvNetMessageHandler3::ICvNetMessageHandler3
PUBLIC	??_R4ICvNetMessageHandler3@@6B@			; ICvNetMessageHandler3::`RTTI Complete Object Locator'
;	COMDAT ??_R4ICvNetMessageHandler3@@6B@
rdata$r	SEGMENT
??_R4ICvNetMessageHandler3@@6B@ DD 00H			; ICvNetMessageHandler3::`RTTI Complete Object Locator'
	DD	00H
	DD	00H
	DD	FLAT:??_R0?AVICvNetMessageHandler3@@@8
	DD	FLAT:??_R3ICvNetMessageHandler3@@8
rdata$r	ENDS
;	COMDAT ??_7ICvNetMessageHandler3@@6B@
CONST	SEGMENT
??_7ICvNetMessageHandler3@@6B@ DD FLAT:??_R4ICvNetMessageHandler3@@6B@ ; ICvNetMessageHandler3::`vftable'
	DD	FLAT:__purecall
	DD	FLAT:__purecall
	DD	FLAT:__purecall
	DD	FLAT:__purecall
	DD	FLAT:__purecall
	DD	FLAT:__purecall
	DD	FLAT:__purecall
	DD	FLAT:__purecall
	DD	FLAT:__purecall
	DD	FLAT:__purecall
	DD	FLAT:__purecall
	DD	FLAT:__purecall
	DD	FLAT:__purecall
	DD	FLAT:__purecall
	DD	FLAT:__purecall
	DD	FLAT:__purecall
	DD	FLAT:__purecall
	DD	FLAT:__purecall
	DD	FLAT:__purecall
	DD	FLAT:__purecall
	DD	FLAT:__purecall
	DD	FLAT:__purecall
	DD	FLAT:__purecall
	DD	FLAT:__purecall
	DD	FLAT:__purecall
	DD	FLAT:__purecall
	DD	FLAT:__purecall
	DD	FLAT:__purecall
	DD	FLAT:__purecall
	DD	FLAT:__purecall
	DD	FLAT:__purecall
	DD	FLAT:__purecall
	DD	FLAT:__purecall
	DD	FLAT:__purecall
	DD	FLAT:__purecall
	DD	FLAT:__purecall
	DD	FLAT:__purecall
	DD	FLAT:__purecall
	DD	FLAT:__purecall
	DD	FLAT:__purecall
	DD	FLAT:__purecall
	DD	FLAT:__purecall
	DD	FLAT:__purecall
	DD	FLAT:__purecall
	DD	FLAT:__purecall
	DD	FLAT:__purecall
	DD	FLAT:__purecall
	DD	FLAT:__purecall
	DD	FLAT:__purecall
	DD	FLAT:__purecall
	DD	FLAT:__purecall
	DD	FLAT:__purecall
	DD	FLAT:__purecall
	DD	FLAT:__purecall
	DD	FLAT:__purecall
	DD	FLAT:__purecall
	DD	FLAT:__purecall
	DD	FLAT:__purecall
	DD	FLAT:__purecall
	DD	FLAT:__purecall
	DD	FLAT:__purecall
	DD	FLAT:__purecall
	DD	FLAT:__purecall
	DD	FLAT:__purecall
	DD	FLAT:__purecall
	DD	FLAT:__purecall
; Function compile flags: /Ogtpy
CONST	ENDS
;	COMDAT ??0ICvNetMessageHandler3@@QAE@XZ
_TEXT	SEGMENT
??0ICvNetMessageHandler3@@QAE@XZ PROC			; ICvNetMessageHandler3::ICvNetMessageHandler3, COMDAT
; _this$ = ecx
	mov	eax, ecx
	mov	DWORD PTR [eax], OFFSET ??_7ICvNetMessageHandler3@@6B@
	ret	0
??0ICvNetMessageHandler3@@QAE@XZ ENDP			; ICvNetMessageHandler3::ICvNetMessageHandler3
_TEXT	ENDS
PUBLIC	??0CvDllNetMessageHandler@@QAE@XZ		; CvDllNetMessageHandler::CvDllNetMessageHandler
; Function compile flags: /Ogtpy
;	COMDAT ??0CvDllNetMessageHandler@@QAE@XZ
_TEXT	SEGMENT
??0CvDllNetMessageHandler@@QAE@XZ PROC			; CvDllNetMessageHandler::CvDllNetMessageHandler, COMDAT
; _this$ = ecx

; 17   : {

	mov	eax, ecx
	mov	DWORD PTR [eax], OFFSET ??_7CvDllNetMessageHandler@@6B@

; 18   : }

	ret	0
??0CvDllNetMessageHandler@@QAE@XZ ENDP			; CvDllNetMessageHandler::CvDllNetMessageHandler
_TEXT	ENDS
END
