; Listing generated by Microsoft (R) Optimizing Compiler Version 15.00.30729.01 

	TITLE	c:\Users\EnormousApplePie\Documents\GitHub\Lekmod\LEKMOD_DLL\CvGameCoreDLL_Expansion2\CvDllDeal.cpp
	.686P
	.XMM
	include listing.inc
	.model	flat

INCLUDELIB MSVCRT
INCLUDELIB OLDNAMES

_DATA	SEGMENT
_CIV5_XP2_DLL_VERSION DD FLAT:$SG217716
_DATA	ENDS
CONST	SEGMENT
$SG217716 DB	'1.0.0', 00H
	ORG $+2
_guidICvUnknown DD 0d89ba82fH
	DW	09fa3H
	DW	04696H
	DB	0b3H
	DB	0f4H
	DB	052H
	DB	0bdH
	DB	0b1H
	DB	01H
	DB	0cfH
	DB	0b2H
_guidICvDeal1 DD 061ca9e15H
	DW	059faH
	DW	04980H
	DB	0adH
	DB	088H
	DB	027H
	DB	0a7H
	DB	01aH
	DB	0c4H
	DB	025H
	DB	0a5H
CONST	ENDS
PUBLIC	??_7ICvUnknown@@6B@				; ICvUnknown::`vftable'
PUBLIC	??0ICvUnknown@@QAE@XZ				; ICvUnknown::ICvUnknown
PUBLIC	??_R4ICvUnknown@@6B@				; ICvUnknown::`RTTI Complete Object Locator'
PUBLIC	??_R0?AVICvUnknown@@@8				; ICvUnknown `RTTI Type Descriptor'
PUBLIC	??_R3ICvUnknown@@8				; ICvUnknown::`RTTI Class Hierarchy Descriptor'
PUBLIC	??_R2ICvUnknown@@8				; ICvUnknown::`RTTI Base Class Array'
PUBLIC	??_R1A@?0A@EA@ICvUnknown@@8			; ICvUnknown::`RTTI Base Class Descriptor at (0,-1,0,64)'
EXTRN	??_7type_info@@6B@:QWORD			; type_info::`vftable'
EXTRN	__purecall:PROC
;	COMDAT ??_R1A@?0A@EA@ICvUnknown@@8
rdata$r	SEGMENT
??_R1A@?0A@EA@ICvUnknown@@8 DD FLAT:??_R0?AVICvUnknown@@@8 ; ICvUnknown::`RTTI Base Class Descriptor at (0,-1,0,64)'
	DD	00H
	DD	00H
	DD	0ffffffffH
	DD	00H
	DD	040H
	DD	FLAT:??_R3ICvUnknown@@8
rdata$r	ENDS
;	COMDAT ??_R2ICvUnknown@@8
rdata$r	SEGMENT
??_R2ICvUnknown@@8 DD FLAT:??_R1A@?0A@EA@ICvUnknown@@8	; ICvUnknown::`RTTI Base Class Array'
rdata$r	ENDS
;	COMDAT ??_R3ICvUnknown@@8
rdata$r	SEGMENT
??_R3ICvUnknown@@8 DD 00H				; ICvUnknown::`RTTI Class Hierarchy Descriptor'
	DD	00H
	DD	01H
	DD	FLAT:??_R2ICvUnknown@@8
rdata$r	ENDS
;	COMDAT ??_R0?AVICvUnknown@@@8
_DATA	SEGMENT
??_R0?AVICvUnknown@@@8 DD FLAT:??_7type_info@@6B@	; ICvUnknown `RTTI Type Descriptor'
	DD	00H
	DB	'.?AVICvUnknown@@', 00H
_DATA	ENDS
;	COMDAT ??_R4ICvUnknown@@6B@
rdata$r	SEGMENT
??_R4ICvUnknown@@6B@ DD 00H				; ICvUnknown::`RTTI Complete Object Locator'
	DD	00H
	DD	00H
	DD	FLAT:??_R0?AVICvUnknown@@@8
	DD	FLAT:??_R3ICvUnknown@@8
rdata$r	ENDS
;	COMDAT ??_7ICvUnknown@@6B@
CONST	SEGMENT
??_7ICvUnknown@@6B@ DD FLAT:??_R4ICvUnknown@@6B@	; ICvUnknown::`vftable'
	DD	FLAT:__purecall
	DD	FLAT:__purecall
; Function compile flags: /Ogtpy
CONST	ENDS
;	COMDAT ??0ICvUnknown@@QAE@XZ
_TEXT	SEGMENT
??0ICvUnknown@@QAE@XZ PROC				; ICvUnknown::ICvUnknown, COMDAT
; _this$ = ecx
	mov	eax, ecx
	mov	DWORD PTR [eax], OFFSET ??_7ICvUnknown@@6B@
	ret	0
??0ICvUnknown@@QAE@XZ ENDP				; ICvUnknown::ICvUnknown
_TEXT	ENDS
PUBLIC	??_7CvDllDeal@@6B@				; CvDllDeal::`vftable'
PUBLIC	??1CvDllDeal@@QAE@XZ				; CvDllDeal::~CvDllDeal
PUBLIC	??_R4CvDllDeal@@6B@				; CvDllDeal::`RTTI Complete Object Locator'
PUBLIC	??_R0?AVCvDllDeal@@@8				; CvDllDeal `RTTI Type Descriptor'
PUBLIC	??_R3CvDllDeal@@8				; CvDllDeal::`RTTI Class Hierarchy Descriptor'
PUBLIC	??_R2CvDllDeal@@8				; CvDllDeal::`RTTI Base Class Array'
PUBLIC	??_R1A@?0A@EA@CvDllDeal@@8			; CvDllDeal::`RTTI Base Class Descriptor at (0,-1,0,64)'
PUBLIC	??_R1A@?0A@EA@ICvDeal1@@8			; ICvDeal1::`RTTI Base Class Descriptor at (0,-1,0,64)'
PUBLIC	??_R0?AVICvDeal1@@@8				; ICvDeal1 `RTTI Type Descriptor'
PUBLIC	??_R3ICvDeal1@@8				; ICvDeal1::`RTTI Class Hierarchy Descriptor'
PUBLIC	??_R2ICvDeal1@@8				; ICvDeal1::`RTTI Base Class Array'
PUBLIC	?QueryInterface@CvDllDeal@@UAGPAXU_GUID@@@Z	; CvDllDeal::QueryInterface
PUBLIC	?Destroy@CvDllDeal@@EAGXXZ			; CvDllDeal::Destroy
PUBLIC	?GetOtherPlayer@CvDllDeal@@UAG?AW4PlayerTypes@@W42@@Z ; CvDllDeal::GetOtherPlayer
PUBLIC	?GetToPlayer@CvDllDeal@@UAG?AW4PlayerTypes@@XZ	; CvDllDeal::GetToPlayer
PUBLIC	?GetFromPlayer@CvDllDeal@@UAG?AW4PlayerTypes@@XZ ; CvDllDeal::GetFromPlayer
PUBLIC	?GetStartTurn@CvDllDeal@@UAGIXZ			; CvDllDeal::GetStartTurn
PUBLIC	?GetDuration@CvDllDeal@@UAGIXZ			; CvDllDeal::GetDuration
PUBLIC	?GetEndTurn@CvDllDeal@@UAGIXZ			; CvDllDeal::GetEndTurn
PUBLIC	?CopyFrom@CvDllDeal@@UAGXPAVICvDeal1@@@Z	; CvDllDeal::CopyFrom
PUBLIC	?Read@CvDllDeal@@UAGXAAVFDataStream@@@Z		; CvDllDeal::Read
PUBLIC	?Write@CvDllDeal@@UAGXAAVFDataStream@@@Z	; CvDllDeal::Write
;	COMDAT ??_R2ICvDeal1@@8
; File c:\users\enormousapplepie\documents\github\lekmod\lekmod_dll\cvgamecoredll_expansion2\cvdlldeal.cpp
rdata$r	SEGMENT
??_R2ICvDeal1@@8 DD FLAT:??_R1A@?0A@EA@ICvDeal1@@8	; ICvDeal1::`RTTI Base Class Array'
	DD	FLAT:??_R1A@?0A@EA@ICvUnknown@@8
rdata$r	ENDS
;	COMDAT ??_R3ICvDeal1@@8
rdata$r	SEGMENT
??_R3ICvDeal1@@8 DD 00H					; ICvDeal1::`RTTI Class Hierarchy Descriptor'
	DD	00H
	DD	02H
	DD	FLAT:??_R2ICvDeal1@@8
rdata$r	ENDS
;	COMDAT ??_R0?AVICvDeal1@@@8
_DATA	SEGMENT
??_R0?AVICvDeal1@@@8 DD FLAT:??_7type_info@@6B@		; ICvDeal1 `RTTI Type Descriptor'
	DD	00H
	DB	'.?AVICvDeal1@@', 00H
_DATA	ENDS
;	COMDAT ??_R1A@?0A@EA@ICvDeal1@@8
rdata$r	SEGMENT
??_R1A@?0A@EA@ICvDeal1@@8 DD FLAT:??_R0?AVICvDeal1@@@8	; ICvDeal1::`RTTI Base Class Descriptor at (0,-1,0,64)'
	DD	01H
	DD	00H
	DD	0ffffffffH
	DD	00H
	DD	040H
	DD	FLAT:??_R3ICvDeal1@@8
rdata$r	ENDS
;	COMDAT ??_R1A@?0A@EA@CvDllDeal@@8
rdata$r	SEGMENT
??_R1A@?0A@EA@CvDllDeal@@8 DD FLAT:??_R0?AVCvDllDeal@@@8 ; CvDllDeal::`RTTI Base Class Descriptor at (0,-1,0,64)'
	DD	02H
	DD	00H
	DD	0ffffffffH
	DD	00H
	DD	040H
	DD	FLAT:??_R3CvDllDeal@@8
rdata$r	ENDS
;	COMDAT ??_R2CvDllDeal@@8
rdata$r	SEGMENT
??_R2CvDllDeal@@8 DD FLAT:??_R1A@?0A@EA@CvDllDeal@@8	; CvDllDeal::`RTTI Base Class Array'
	DD	FLAT:??_R1A@?0A@EA@ICvDeal1@@8
	DD	FLAT:??_R1A@?0A@EA@ICvUnknown@@8
rdata$r	ENDS
;	COMDAT ??_R3CvDllDeal@@8
rdata$r	SEGMENT
??_R3CvDllDeal@@8 DD 00H				; CvDllDeal::`RTTI Class Hierarchy Descriptor'
	DD	00H
	DD	03H
	DD	FLAT:??_R2CvDllDeal@@8
rdata$r	ENDS
;	COMDAT ??_R0?AVCvDllDeal@@@8
_DATA	SEGMENT
??_R0?AVCvDllDeal@@@8 DD FLAT:??_7type_info@@6B@	; CvDllDeal `RTTI Type Descriptor'
	DD	00H
	DB	'.?AVCvDllDeal@@', 00H
_DATA	ENDS
;	COMDAT ??_R4CvDllDeal@@6B@
rdata$r	SEGMENT
??_R4CvDllDeal@@6B@ DD 00H				; CvDllDeal::`RTTI Complete Object Locator'
	DD	00H
	DD	00H
	DD	FLAT:??_R0?AVCvDllDeal@@@8
	DD	FLAT:??_R3CvDllDeal@@8
rdata$r	ENDS
;	COMDAT ??_7CvDllDeal@@6B@
CONST	SEGMENT
??_7CvDllDeal@@6B@ DD FLAT:??_R4CvDllDeal@@6B@		; CvDllDeal::`vftable'
	DD	FLAT:?QueryInterface@CvDllDeal@@UAGPAXU_GUID@@@Z
	DD	FLAT:?Destroy@CvDllDeal@@EAGXXZ
	DD	FLAT:?GetOtherPlayer@CvDllDeal@@UAG?AW4PlayerTypes@@W42@@Z
	DD	FLAT:?GetToPlayer@CvDllDeal@@UAG?AW4PlayerTypes@@XZ
	DD	FLAT:?GetFromPlayer@CvDllDeal@@UAG?AW4PlayerTypes@@XZ
	DD	FLAT:?GetStartTurn@CvDllDeal@@UAGIXZ
	DD	FLAT:?GetDuration@CvDllDeal@@UAGIXZ
	DD	FLAT:?GetEndTurn@CvDllDeal@@UAGIXZ
	DD	FLAT:?CopyFrom@CvDllDeal@@UAGXPAVICvDeal1@@@Z
	DD	FLAT:?Read@CvDllDeal@@UAGXAAVFDataStream@@@Z
	DD	FLAT:?Write@CvDllDeal@@UAGXAAVFDataStream@@@Z
; Function compile flags: /Ogtpy
CONST	ENDS
;	COMDAT ??1CvDllDeal@@QAE@XZ
_TEXT	SEGMENT
??1CvDllDeal@@QAE@XZ PROC				; CvDllDeal::~CvDllDeal, COMDAT
; _this$ = ecx

; 24   : {

	mov	DWORD PTR [ecx], OFFSET ??_7CvDllDeal@@6B@

; 25   : }

	ret	0
??1CvDllDeal@@QAE@XZ ENDP				; CvDllDeal::~CvDllDeal
_TEXT	ENDS
PUBLIC	?IncrementReference@CvDllDeal@@QAEIXZ		; CvDllDeal::IncrementReference
; Function compile flags: /Ogtpy
;	COMDAT ?IncrementReference@CvDllDeal@@QAEIXZ
_TEXT	SEGMENT
?IncrementReference@CvDllDeal@@QAEIXZ PROC		; CvDllDeal::IncrementReference, COMDAT
; _this$ = ecx

; 41   : 	++m_uiRefCount;

	inc	DWORD PTR [ecx+4]

; 42   : 	return m_uiRefCount;

	mov	eax, DWORD PTR [ecx+4]

; 43   : }

	ret	0
?IncrementReference@CvDllDeal@@QAEIXZ ENDP		; CvDllDeal::IncrementReference
_TEXT	ENDS
PUBLIC	?GetReferenceCount@CvDllDeal@@QAEIXZ		; CvDllDeal::GetReferenceCount
; Function compile flags: /Ogtpy
;	COMDAT ?GetReferenceCount@CvDllDeal@@QAEIXZ
_TEXT	SEGMENT
?GetReferenceCount@CvDllDeal@@QAEIXZ PROC		; CvDllDeal::GetReferenceCount, COMDAT
; _this$ = ecx

; 61   : 	return m_uiRefCount;

	mov	eax, DWORD PTR [ecx+4]

; 62   : }

	ret	0
?GetReferenceCount@CvDllDeal@@QAEIXZ ENDP		; CvDllDeal::GetReferenceCount
_TEXT	ENDS
PUBLIC	??3CvDllDeal@@SAXPAX@Z				; CvDllDeal::operator delete
EXTRN	?Free@CvDllGameContext@@SAXPAX@Z:PROC		; CvDllGameContext::Free
; Function compile flags: /Ogtpy
;	COMDAT ??3CvDllDeal@@SAXPAX@Z
_TEXT	SEGMENT
_p$ = 8							; size = 4
??3CvDllDeal@@SAXPAX@Z PROC				; CvDllDeal::operator delete, COMDAT

; 71   : 	CvDllGameContext::Free(p);

	jmp	?Free@CvDllGameContext@@SAXPAX@Z	; CvDllGameContext::Free
??3CvDllDeal@@SAXPAX@Z ENDP				; CvDllDeal::operator delete
_TEXT	ENDS
PUBLIC	??2CvDllDeal@@SAPAXI@Z				; CvDllDeal::operator new
EXTRN	?Allocate@CvDllGameContext@@SAPAXI@Z:PROC	; CvDllGameContext::Allocate
; Function compile flags: /Ogtpy
;	COMDAT ??2CvDllDeal@@SAPAXI@Z
_TEXT	SEGMENT
_bytes$ = 8						; size = 4
??2CvDllDeal@@SAPAXI@Z PROC				; CvDllDeal::operator new, COMDAT

; 76   : 	return CvDllGameContext::Allocate(bytes);

	jmp	?Allocate@CvDllGameContext@@SAPAXI@Z	; CvDllGameContext::Allocate
??2CvDllDeal@@SAPAXI@Z ENDP				; CvDllDeal::operator new
_TEXT	ENDS
PUBLIC	?GetInstance@CvDllDeal@@QAEPAVCvDeal@@XZ	; CvDllDeal::GetInstance
; Function compile flags: /Ogtpy
;	COMDAT ?GetInstance@CvDllDeal@@QAEPAVCvDeal@@XZ
_TEXT	SEGMENT
?GetInstance@CvDllDeal@@QAEPAVCvDeal@@XZ PROC		; CvDllDeal::GetInstance, COMDAT
; _this$ = ecx

; 81   : 	return m_pDeal;

	mov	eax, DWORD PTR [ecx+8]

; 82   : }

	ret	0
?GetInstance@CvDllDeal@@QAEPAVCvDeal@@XZ ENDP		; CvDllDeal::GetInstance
_TEXT	ENDS
EXTRN	?GetOtherPlayer@CvDeal@@QBE?AW4PlayerTypes@@W42@@Z:PROC ; CvDeal::GetOtherPlayer
; Function compile flags: /Ogtpy
;	COMDAT ?GetOtherPlayer@CvDllDeal@@UAG?AW4PlayerTypes@@W42@@Z
_TEXT	SEGMENT
_this$ = 8						; size = 4
_eFromPlayer$ = 12					; size = 4
?GetOtherPlayer@CvDllDeal@@UAG?AW4PlayerTypes@@W42@@Z PROC ; CvDllDeal::GetOtherPlayer, COMDAT

; 86   : 	return m_pDeal->GetOtherPlayer(eFromPlayer);

	mov	eax, DWORD PTR _eFromPlayer$[esp-4]
	mov	ecx, DWORD PTR _this$[esp-4]
	mov	ecx, DWORD PTR [ecx+8]
	push	eax
	call	?GetOtherPlayer@CvDeal@@QBE?AW4PlayerTypes@@W42@@Z ; CvDeal::GetOtherPlayer

; 87   : }

	ret	8
?GetOtherPlayer@CvDllDeal@@UAG?AW4PlayerTypes@@W42@@Z ENDP ; CvDllDeal::GetOtherPlayer
_TEXT	ENDS
EXTRN	??4CvDeal@@QAEAAV0@ABV0@@Z:PROC			; CvDeal::operator=
EXTRN	?UnwrapDealPointer@CvGlobals@@QAEPAVCvDeal@@PAVICvDeal1@@@Z:PROC ; CvGlobals::UnwrapDealPointer
EXTRN	?gGlobals@@3VCvGlobals@@A:BYTE			; gGlobals
; Function compile flags: /Ogtpy
;	COMDAT ?CopyFrom@CvDllDeal@@UAGXPAVICvDeal1@@@Z
_TEXT	SEGMENT
_this$ = 8						; size = 4
_pOtherDeal$ = 12					; size = 4
?CopyFrom@CvDllDeal@@UAGXPAVICvDeal1@@@Z PROC		; CvDllDeal::CopyFrom, COMDAT

; 116  : 	CvDeal* pkOtherDeal = GC.UnwrapDealPointer(pOtherDeal);

	mov	eax, DWORD PTR _pOtherDeal$[esp-4]
	push	eax
	mov	ecx, OFFSET ?gGlobals@@3VCvGlobals@@A	; gGlobals
	call	?UnwrapDealPointer@CvGlobals@@QAEPAVCvDeal@@PAVICvDeal1@@@Z ; CvGlobals::UnwrapDealPointer

; 117  : 	if(pkOtherDeal != NULL)

	test	eax, eax
	je	SHORT $LN1@CopyFrom

; 118  : 		*m_pDeal = *pkOtherDeal;

	mov	ecx, DWORD PTR _this$[esp-4]
	mov	ecx, DWORD PTR [ecx+8]
	push	eax
	call	??4CvDeal@@QAEAAV0@ABV0@@Z		; CvDeal::operator=
$LN1@CopyFrom:

; 119  : }

	ret	8
?CopyFrom@CvDllDeal@@UAGXPAVICvDeal1@@@Z ENDP		; CvDllDeal::CopyFrom
_TEXT	ENDS
EXTRN	??5@YAAAVFDataStream@@AAV0@AAVCvDeal@@@Z:PROC	; operator>>
; Function compile flags: /Ogtpy
;	COMDAT ?Read@CvDllDeal@@UAGXAAVFDataStream@@@Z
_TEXT	SEGMENT
_this$ = 8						; size = 4
_kStream$ = 12						; size = 4
?Read@CvDllDeal@@UAGXAAVFDataStream@@@Z PROC		; CvDllDeal::Read, COMDAT

; 123  : 	kStream >> *m_pDeal;

	mov	eax, DWORD PTR _this$[esp-4]
	mov	ecx, DWORD PTR [eax+8]
	mov	edx, DWORD PTR _kStream$[esp-4]
	push	ecx
	push	edx
	call	??5@YAAAVFDataStream@@AAV0@AAVCvDeal@@@Z ; operator>>
	add	esp, 8

; 124  : }

	ret	8
?Read@CvDllDeal@@UAGXAAVFDataStream@@@Z ENDP		; CvDllDeal::Read
_TEXT	ENDS
EXTRN	??6@YAAAVFDataStream@@AAV0@ABVCvDeal@@@Z:PROC	; operator<<
; Function compile flags: /Ogtpy
;	COMDAT ?Write@CvDllDeal@@UAGXAAVFDataStream@@@Z
_TEXT	SEGMENT
_this$ = 8						; size = 4
_kStream$ = 12						; size = 4
?Write@CvDllDeal@@UAGXAAVFDataStream@@@Z PROC		; CvDllDeal::Write, COMDAT

; 128  : 	kStream << *m_pDeal;

	mov	eax, DWORD PTR _this$[esp-4]
	mov	ecx, DWORD PTR [eax+8]
	mov	edx, DWORD PTR _kStream$[esp-4]
	push	ecx
	push	edx
	call	??6@YAAAVFDataStream@@AAV0@ABVCvDeal@@@Z ; operator<<
	add	esp, 8

; 129  : }

	ret	8
?Write@CvDllDeal@@UAGXAAVFDataStream@@@Z ENDP		; CvDllDeal::Write
_TEXT	ENDS
PUBLIC	_IsEqualGUID
; Function compile flags: /Ogtpy
; File c:\program files\microsoft sdks\windows\v6.0a\include\guiddef.h
;	COMDAT _IsEqualGUID
_TEXT	SEGMENT
_rguid1$ = 8						; size = 4
_rguid2$ = 12						; size = 4
_IsEqualGUID PROC					; COMDAT

; 161  :     return !memcmp(&rguid1, &rguid2, sizeof(GUID));

	mov	ecx, DWORD PTR _rguid2$[esp-4]
	mov	edx, DWORD PTR _rguid1$[esp-4]
	mov	eax, 16					; 00000010H
	push	esi
	npad	2
$LL4@IsEqualGUI:
	mov	esi, DWORD PTR [edx]
	cmp	esi, DWORD PTR [ecx]
	jne	SHORT $LN5@IsEqualGUI
	sub	eax, 4
	add	ecx, 4
	add	edx, 4
	cmp	eax, 4
	jae	SHORT $LL4@IsEqualGUI
	xor	eax, eax
	xor	edx, edx
	test	eax, eax
	sete	dl
	pop	esi
	mov	eax, edx

; 162  : }

	ret	0
$LN5@IsEqualGUI:

; 161  :     return !memcmp(&rguid1, &rguid2, sizeof(GUID));

	movzx	eax, BYTE PTR [edx]
	movzx	esi, BYTE PTR [ecx]
	sub	eax, esi
	jne	SHORT $LN7@IsEqualGUI
	movzx	eax, BYTE PTR [edx+1]
	movzx	esi, BYTE PTR [ecx+1]
	sub	eax, esi
	jne	SHORT $LN7@IsEqualGUI
	movzx	eax, BYTE PTR [edx+2]
	movzx	esi, BYTE PTR [ecx+2]
	sub	eax, esi
	jne	SHORT $LN7@IsEqualGUI
	movzx	eax, BYTE PTR [edx+3]
	movzx	ecx, BYTE PTR [ecx+3]
	sub	eax, ecx
$LN7@IsEqualGUI:
	sar	eax, 31					; 0000001fH
	or	eax, 1
	xor	edx, edx
	test	eax, eax
	sete	dl
	pop	esi
	mov	eax, edx

; 162  : }

	ret	0
_IsEqualGUID ENDP
_TEXT	ENDS
PUBLIC	_==
; Function compile flags: /Ogtpy
;	COMDAT _==
_TEXT	SEGMENT
_guidOne$ = 8						; size = 4
_guidOther$ = 12					; size = 4
_==	PROC						; COMDAT

; 194  :     return IsEqualGUID(guidOne,guidOther);

	jmp	_IsEqualGUID
_==	ENDP
_TEXT	ENDS
PUBLIC	?GetInterfaceId@ICvUnknown@@SG?AU_GUID@@XZ	; ICvUnknown::GetInterfaceId
; Function compile flags: /Ogtpy
; File c:\users\enormousapplepie\documents\github\lekmod\lekmod_dll\cvgamecoredllutil\include\cvdllinterfaces.h
;	COMDAT ?GetInterfaceId@ICvUnknown@@SG?AU_GUID@@XZ
_TEXT	SEGMENT
$T219102 = 8						; size = 4
?GetInterfaceId@ICvUnknown@@SG?AU_GUID@@XZ PROC		; ICvUnknown::GetInterfaceId, COMDAT

; 306  : 	static GUID DLLCALL GetInterfaceId(){ return guidICvUnknown; }

	mov	eax, DWORD PTR $T219102[esp-4]
	mov	ecx, DWORD PTR _guidICvUnknown
	mov	edx, DWORD PTR _guidICvUnknown+4
	mov	DWORD PTR [eax], ecx
	mov	ecx, DWORD PTR _guidICvUnknown+8
	mov	DWORD PTR [eax+4], edx
	mov	edx, DWORD PTR _guidICvUnknown+12
	mov	DWORD PTR [eax+8], ecx
	mov	DWORD PTR [eax+12], edx
	ret	4
?GetInterfaceId@ICvUnknown@@SG?AU_GUID@@XZ ENDP		; ICvUnknown::GetInterfaceId
_TEXT	ENDS
PUBLIC	?GetInterfaceId@ICvDeal1@@SG?AU_GUID@@XZ	; ICvDeal1::GetInterfaceId
; Function compile flags: /Ogtpy
;	COMDAT ?GetInterfaceId@ICvDeal1@@SG?AU_GUID@@XZ
_TEXT	SEGMENT
$T219106 = 8						; size = 4
?GetInterfaceId@ICvDeal1@@SG?AU_GUID@@XZ PROC		; ICvDeal1::GetInterfaceId, COMDAT

; 931  : 	static GUID DLLCALL GetInterfaceId() { return guidICvDeal1; }

	mov	eax, DWORD PTR $T219106[esp-4]
	mov	ecx, DWORD PTR _guidICvDeal1
	mov	edx, DWORD PTR _guidICvDeal1+4
	mov	DWORD PTR [eax], ecx
	mov	ecx, DWORD PTR _guidICvDeal1+8
	mov	DWORD PTR [eax+4], edx
	mov	edx, DWORD PTR _guidICvDeal1+12
	mov	DWORD PTR [eax+8], ecx
	mov	DWORD PTR [eax+12], edx
	ret	4
?GetInterfaceId@ICvDeal1@@SG?AU_GUID@@XZ ENDP		; ICvDeal1::GetInterfaceId
_TEXT	ENDS
PUBLIC	?GetToPlayer@CvDeal@@QBE?AW4PlayerTypes@@XZ	; CvDeal::GetToPlayer
; Function compile flags: /Ogtpy
; File c:\users\enormousapplepie\documents\github\lekmod\lekmod_dll\cvgamecoredll_expansion2\cvdealclasses.h
;	COMDAT ?GetToPlayer@CvDeal@@QBE?AW4PlayerTypes@@XZ
_TEXT	SEGMENT
?GetToPlayer@CvDeal@@QBE?AW4PlayerTypes@@XZ PROC	; CvDeal::GetToPlayer, COMDAT
; _this$ = ecx

; 135  : 		return m_eToPlayer;

	mov	eax, DWORD PTR [ecx+8]

; 136  : 	};

	ret	0
?GetToPlayer@CvDeal@@QBE?AW4PlayerTypes@@XZ ENDP	; CvDeal::GetToPlayer
_TEXT	ENDS
PUBLIC	?GetFromPlayer@CvDeal@@QBE?AW4PlayerTypes@@XZ	; CvDeal::GetFromPlayer
; Function compile flags: /Ogtpy
;	COMDAT ?GetFromPlayer@CvDeal@@QBE?AW4PlayerTypes@@XZ
_TEXT	SEGMENT
?GetFromPlayer@CvDeal@@QBE?AW4PlayerTypes@@XZ PROC	; CvDeal::GetFromPlayer, COMDAT
; _this$ = ecx

; 139  : 		return m_eFromPlayer;

	mov	eax, DWORD PTR [ecx+4]

; 140  : 	};

	ret	0
?GetFromPlayer@CvDeal@@QBE?AW4PlayerTypes@@XZ ENDP	; CvDeal::GetFromPlayer
_TEXT	ENDS
PUBLIC	?GetStartTurn@CvDeal@@QBEIXZ			; CvDeal::GetStartTurn
; Function compile flags: /Ogtpy
;	COMDAT ?GetStartTurn@CvDeal@@QBEIXZ
_TEXT	SEGMENT
?GetStartTurn@CvDeal@@QBEIXZ PROC			; CvDeal::GetStartTurn, COMDAT
; _this$ = ecx

; 143  : 		return m_iStartTurn;

	mov	eax, DWORD PTR [ecx+12]

; 144  : 	};

	ret	0
?GetStartTurn@CvDeal@@QBEIXZ ENDP			; CvDeal::GetStartTurn
_TEXT	ENDS
PUBLIC	?GetDuration@CvDeal@@QBEIXZ			; CvDeal::GetDuration
; Function compile flags: /Ogtpy
;	COMDAT ?GetDuration@CvDeal@@QBEIXZ
_TEXT	SEGMENT
?GetDuration@CvDeal@@QBEIXZ PROC			; CvDeal::GetDuration, COMDAT
; _this$ = ecx

; 147  : 		return m_iDuration;

	mov	eax, DWORD PTR [ecx+20]

; 148  : 	};

	ret	0
?GetDuration@CvDeal@@QBEIXZ ENDP			; CvDeal::GetDuration
_TEXT	ENDS
PUBLIC	?GetEndTurn@CvDeal@@QBEIXZ			; CvDeal::GetEndTurn
; Function compile flags: /Ogtpy
;	COMDAT ?GetEndTurn@CvDeal@@QBEIXZ
_TEXT	SEGMENT
?GetEndTurn@CvDeal@@QBEIXZ PROC				; CvDeal::GetEndTurn, COMDAT
; _this$ = ecx

; 151  : 		return m_iFinalTurn;

	mov	eax, DWORD PTR [ecx+16]

; 152  : 	};

	ret	0
?GetEndTurn@CvDeal@@QBEIXZ ENDP				; CvDeal::GetEndTurn
_TEXT	ENDS
PUBLIC	??_7ICvDeal1@@6B@				; ICvDeal1::`vftable'
PUBLIC	??0ICvDeal1@@QAE@XZ				; ICvDeal1::ICvDeal1
PUBLIC	??_R4ICvDeal1@@6B@				; ICvDeal1::`RTTI Complete Object Locator'
;	COMDAT ??_R4ICvDeal1@@6B@
rdata$r	SEGMENT
??_R4ICvDeal1@@6B@ DD 00H				; ICvDeal1::`RTTI Complete Object Locator'
	DD	00H
	DD	00H
	DD	FLAT:??_R0?AVICvDeal1@@@8
	DD	FLAT:??_R3ICvDeal1@@8
rdata$r	ENDS
;	COMDAT ??_7ICvDeal1@@6B@
CONST	SEGMENT
??_7ICvDeal1@@6B@ DD FLAT:??_R4ICvDeal1@@6B@		; ICvDeal1::`vftable'
	DD	FLAT:__purecall
	DD	FLAT:__purecall
	DD	FLAT:__purecall
	DD	FLAT:__purecall
	DD	FLAT:__purecall
	DD	FLAT:__purecall
	DD	FLAT:__purecall
	DD	FLAT:__purecall
	DD	FLAT:__purecall
	DD	FLAT:__purecall
	DD	FLAT:__purecall
; Function compile flags: /Ogtpy
CONST	ENDS
;	COMDAT ??0ICvDeal1@@QAE@XZ
_TEXT	SEGMENT
??0ICvDeal1@@QAE@XZ PROC				; ICvDeal1::ICvDeal1, COMDAT
; _this$ = ecx
	mov	eax, ecx
	mov	DWORD PTR [eax], OFFSET ??_7ICvDeal1@@6B@
	ret	0
??0ICvDeal1@@QAE@XZ ENDP				; ICvDeal1::ICvDeal1
; Function compile flags: /Ogtpy
; File c:\users\enormousapplepie\documents\github\lekmod\lekmod_dll\cvgamecoredll_expansion2\cvdlldeal.cpp
_TEXT	ENDS
;	COMDAT ?QueryInterface@CvDllDeal@@UAGPAXU_GUID@@@Z
_TEXT	SEGMENT
$T219133 = -16						; size = 16
$T219131 = -16						; size = 16
_this$ = 8						; size = 4
_guidInterface$ = 12					; size = 16
?QueryInterface@CvDllDeal@@UAGPAXU_GUID@@@Z PROC	; CvDllDeal::QueryInterface, COMDAT

; 28   : {

	sub	esp, 16					; 00000010H

; 29   : 	if(guidInterface == ICvUnknown::GetInterfaceId() ||
; 30   : 	        guidInterface == ICvDeal1::GetInterfaceId())

	mov	ecx, DWORD PTR _guidICvUnknown+4
	mov	edx, DWORD PTR _guidICvUnknown+8
	mov	eax, DWORD PTR _guidICvUnknown
	mov	DWORD PTR $T219131[esp+20], ecx
	lea	ecx, DWORD PTR $T219131[esp+16]
	mov	DWORD PTR $T219131[esp+24], edx
	mov	DWORD PTR $T219131[esp+16], eax
	mov	eax, DWORD PTR _guidICvUnknown+12
	push	ecx
	lea	edx, DWORD PTR _guidInterface$[esp+16]
	push	edx
	mov	DWORD PTR $T219131[esp+36], eax
	call	_IsEqualGUID
	add	esp, 8
	test	eax, eax
	jne	SHORT $LN1@QueryInter
	mov	ecx, DWORD PTR _guidICvDeal1+4
	mov	edx, DWORD PTR _guidICvDeal1+8
	mov	eax, DWORD PTR _guidICvDeal1
	mov	DWORD PTR $T219133[esp+20], ecx
	lea	ecx, DWORD PTR $T219133[esp+16]
	mov	DWORD PTR $T219133[esp+24], edx
	mov	DWORD PTR $T219133[esp+16], eax
	mov	eax, DWORD PTR _guidICvDeal1+12
	push	ecx
	lea	edx, DWORD PTR _guidInterface$[esp+16]
	push	edx
	mov	DWORD PTR $T219133[esp+36], eax
	call	_IsEqualGUID
	add	esp, 8
	test	eax, eax
	jne	SHORT $LN1@QueryInter

; 33   : 		return this;
; 34   : 	}
; 35   : 
; 36   : 	return NULL;
; 37   : }

	add	esp, 16					; 00000010H
	ret	20					; 00000014H
$LN1@QueryInter:

; 31   : 	{
; 32   : 		IncrementReference();

	mov	eax, DWORD PTR _this$[esp+12]
	inc	DWORD PTR [eax+4]

; 33   : 		return this;
; 34   : 	}
; 35   : 
; 36   : 	return NULL;
; 37   : }

	add	esp, 16					; 00000010H
	ret	20					; 00000014H
?QueryInterface@CvDllDeal@@UAGPAXU_GUID@@@Z ENDP	; CvDllDeal::QueryInterface
_TEXT	ENDS
PUBLIC	??_GCvDllDeal@@QAEPAXI@Z			; CvDllDeal::`scalar deleting destructor'
; Function compile flags: /Ogtpy
;	COMDAT ??_GCvDllDeal@@QAEPAXI@Z
_TEXT	SEGMENT
___flags$ = 8						; size = 4
??_GCvDllDeal@@QAEPAXI@Z PROC				; CvDllDeal::`scalar deleting destructor', COMDAT
; _this$ = ecx
	test	BYTE PTR ___flags$[esp-4], 1
	push	esi
	mov	esi, ecx
	mov	DWORD PTR [esi], OFFSET ??_7CvDllDeal@@6B@
	je	SHORT $LN8@scalar
	push	esi
	call	?Free@CvDllGameContext@@SAXPAX@Z	; CvDllGameContext::Free
	add	esp, 4
$LN8@scalar:
	mov	eax, esi
	pop	esi
	ret	4
??_GCvDllDeal@@QAEPAXI@Z ENDP				; CvDllDeal::`scalar deleting destructor'
; Function compile flags: /Ogtpy
_TEXT	ENDS
;	COMDAT ?GetToPlayer@CvDllDeal@@UAG?AW4PlayerTypes@@XZ
_TEXT	SEGMENT
_this$ = 8						; size = 4
?GetToPlayer@CvDllDeal@@UAG?AW4PlayerTypes@@XZ PROC	; CvDllDeal::GetToPlayer, COMDAT

; 91   : 	return m_pDeal->GetToPlayer();

	mov	eax, DWORD PTR _this$[esp-4]
	mov	ecx, DWORD PTR [eax+8]
	mov	eax, DWORD PTR [ecx+8]

; 92   : }

	ret	4
?GetToPlayer@CvDllDeal@@UAG?AW4PlayerTypes@@XZ ENDP	; CvDllDeal::GetToPlayer
; Function compile flags: /Ogtpy
_TEXT	ENDS
;	COMDAT ?GetFromPlayer@CvDllDeal@@UAG?AW4PlayerTypes@@XZ
_TEXT	SEGMENT
_this$ = 8						; size = 4
?GetFromPlayer@CvDllDeal@@UAG?AW4PlayerTypes@@XZ PROC	; CvDllDeal::GetFromPlayer, COMDAT

; 96   : 	return m_pDeal->GetFromPlayer();

	mov	eax, DWORD PTR _this$[esp-4]
	mov	ecx, DWORD PTR [eax+8]
	mov	eax, DWORD PTR [ecx+4]

; 97   : }

	ret	4
?GetFromPlayer@CvDllDeal@@UAG?AW4PlayerTypes@@XZ ENDP	; CvDllDeal::GetFromPlayer
; Function compile flags: /Ogtpy
_TEXT	ENDS
;	COMDAT ?GetStartTurn@CvDllDeal@@UAGIXZ
_TEXT	SEGMENT
_this$ = 8						; size = 4
?GetStartTurn@CvDllDeal@@UAGIXZ PROC			; CvDllDeal::GetStartTurn, COMDAT

; 101  : 	return m_pDeal->GetStartTurn();

	mov	eax, DWORD PTR _this$[esp-4]
	mov	ecx, DWORD PTR [eax+8]
	mov	eax, DWORD PTR [ecx+12]

; 102  : }

	ret	4
?GetStartTurn@CvDllDeal@@UAGIXZ ENDP			; CvDllDeal::GetStartTurn
; Function compile flags: /Ogtpy
_TEXT	ENDS
;	COMDAT ?GetDuration@CvDllDeal@@UAGIXZ
_TEXT	SEGMENT
_this$ = 8						; size = 4
?GetDuration@CvDllDeal@@UAGIXZ PROC			; CvDllDeal::GetDuration, COMDAT

; 106  : 	return m_pDeal->GetDuration();

	mov	eax, DWORD PTR _this$[esp-4]
	mov	ecx, DWORD PTR [eax+8]
	mov	eax, DWORD PTR [ecx+20]

; 107  : }

	ret	4
?GetDuration@CvDllDeal@@UAGIXZ ENDP			; CvDllDeal::GetDuration
; Function compile flags: /Ogtpy
_TEXT	ENDS
;	COMDAT ?GetEndTurn@CvDllDeal@@UAGIXZ
_TEXT	SEGMENT
_this$ = 8						; size = 4
?GetEndTurn@CvDllDeal@@UAGIXZ PROC			; CvDllDeal::GetEndTurn, COMDAT

; 111  : 	return m_pDeal->GetEndTurn();

	mov	eax, DWORD PTR _this$[esp-4]
	mov	ecx, DWORD PTR [eax+8]
	mov	eax, DWORD PTR [ecx+16]

; 112  : }

	ret	4
?GetEndTurn@CvDllDeal@@UAGIXZ ENDP			; CvDllDeal::GetEndTurn
_TEXT	ENDS
PUBLIC	??0CvDllDeal@@QAE@PAVCvDeal@@@Z			; CvDllDeal::CvDllDeal
; Function compile flags: /Ogtpy
;	COMDAT ??0CvDllDeal@@QAE@PAVCvDeal@@@Z
_TEXT	SEGMENT
_pDeal$ = 8						; size = 4
??0CvDllDeal@@QAE@PAVCvDeal@@@Z PROC			; CvDllDeal::CvDllDeal, COMDAT
; _this$ = ecx

; 20   : {

	mov	eax, ecx
	mov	ecx, DWORD PTR _pDeal$[esp-4]
	mov	DWORD PTR [eax], OFFSET ??_7CvDllDeal@@6B@
	mov	DWORD PTR [eax+4], 1
	mov	DWORD PTR [eax+8], ecx

; 21   : }

	ret	4
??0CvDllDeal@@QAE@PAVCvDeal@@@Z ENDP			; CvDllDeal::CvDllDeal
_TEXT	ENDS
PUBLIC	?DecrementReference@CvDllDeal@@QAEIXZ		; CvDllDeal::DecrementReference
; Function compile flags: /Ogtpy
;	COMDAT ?DecrementReference@CvDllDeal@@QAEIXZ
_TEXT	SEGMENT
?DecrementReference@CvDllDeal@@QAEIXZ PROC		; CvDllDeal::DecrementReference, COMDAT
; _this$ = ecx

; 47   : 	if(m_uiRefCount == 1)

	mov	eax, DWORD PTR [ecx+4]
	cmp	eax, 1
	jne	SHORT $LN2@DecrementR

; 48   : 	{
; 49   : 		delete this;

	push	ecx
	mov	DWORD PTR [ecx], OFFSET ??_7CvDllDeal@@6B@
	call	?Free@CvDllGameContext@@SAXPAX@Z	; CvDllGameContext::Free
	add	esp, 4

; 50   : 		return 0;

	xor	eax, eax

; 55   : 		return m_uiRefCount;
; 56   : 	}
; 57   : }

	ret	0
$LN2@DecrementR:

; 51   : 	}
; 52   : 	else
; 53   : 	{
; 54   : 		--m_uiRefCount;

	dec	eax
	mov	DWORD PTR [ecx+4], eax

; 55   : 		return m_uiRefCount;
; 56   : 	}
; 57   : }

	ret	0
?DecrementReference@CvDllDeal@@QAEIXZ ENDP		; CvDllDeal::DecrementReference
; Function compile flags: /Ogtpy
_TEXT	ENDS
;	COMDAT ?Destroy@CvDllDeal@@EAGXXZ
_TEXT	SEGMENT
_this$ = 8						; size = 4
?Destroy@CvDllDeal@@EAGXXZ PROC				; CvDllDeal::Destroy, COMDAT

; 66   : 	DecrementReference();

	mov	eax, DWORD PTR _this$[esp-4]
	mov	ecx, DWORD PTR [eax+4]
	cmp	ecx, 1
	jne	SHORT $LN4@Destroy
	push	eax
	mov	DWORD PTR [eax], OFFSET ??_7CvDllDeal@@6B@
	call	?Free@CvDllGameContext@@SAXPAX@Z	; CvDllGameContext::Free
	add	esp, 4

; 67   : }

	ret	4

; 66   : 	DecrementReference();

$LN4@Destroy:
	dec	ecx
	mov	DWORD PTR [eax+4], ecx

; 67   : }

	ret	4
?Destroy@CvDllDeal@@EAGXXZ ENDP				; CvDllDeal::Destroy
_TEXT	ENDS
END
