; Listing generated by Microsoft (R) Optimizing Compiler Version 15.00.30729.01 

	TITLE	c:\Users\EnormousApplePie\Desktop\Lekmod Files\Lekmod DLL versions\v29\LEKMOD_DLL\CvGameCoreDLL_Expansion2\CvDllPathFinderUpdate.cpp
	.686P
	.XMM
	include listing.inc
	.model	flat

INCLUDELIB MSVCRT
INCLUDELIB OLDNAMES

_DATA	SEGMENT
_CIV5_XP2_DLL_VERSION DD FLAT:$SG217496
_DATA	ENDS
CONST	SEGMENT
$SG217496 DB	'1.0.0', 00H
	ORG $+2
_guidICvUnknown DD 0d89ba82fH
	DW	09fa3H
	DW	04696H
	DB	0b3H
	DB	0f4H
	DB	052H
	DB	0bdH
	DB	0b1H
	DB	01H
	DB	0cfH
	DB	0b2H
_guidICvEnumerator DD 0579a12e9H
	DW	03c70H
	DW	04276H
	DB	084H
	DB	060H
	DB	0c9H
	DB	041H
	DB	0a5H
	DB	0f9H
	DB	058H
	DB	05fH
_guidICvPathFinderUpdate1 DD 0d13f7e42H
	DW	08644H
	DW	04e60H
	DB	084H
	DB	083H
	DB	03aH
	DB	03eH
	DB	0b8H
	DB	0f0H
	DB	0e8H
	DB	0c1H
CONST	ENDS
PUBLIC	??_7ICvUnknown@@6B@				; ICvUnknown::`vftable'
PUBLIC	??0ICvUnknown@@QAE@XZ				; ICvUnknown::ICvUnknown
PUBLIC	??_R4ICvUnknown@@6B@				; ICvUnknown::`RTTI Complete Object Locator'
PUBLIC	??_R0?AVICvUnknown@@@8				; ICvUnknown `RTTI Type Descriptor'
PUBLIC	??_R3ICvUnknown@@8				; ICvUnknown::`RTTI Class Hierarchy Descriptor'
PUBLIC	??_R2ICvUnknown@@8				; ICvUnknown::`RTTI Base Class Array'
PUBLIC	??_R1A@?0A@EA@ICvUnknown@@8			; ICvUnknown::`RTTI Base Class Descriptor at (0,-1,0,64)'
EXTRN	??_7type_info@@6B@:QWORD			; type_info::`vftable'
EXTRN	__purecall:PROC
;	COMDAT ??_R1A@?0A@EA@ICvUnknown@@8
rdata$r	SEGMENT
??_R1A@?0A@EA@ICvUnknown@@8 DD FLAT:??_R0?AVICvUnknown@@@8 ; ICvUnknown::`RTTI Base Class Descriptor at (0,-1,0,64)'
	DD	00H
	DD	00H
	DD	0ffffffffH
	DD	00H
	DD	040H
	DD	FLAT:??_R3ICvUnknown@@8
rdata$r	ENDS
;	COMDAT ??_R2ICvUnknown@@8
rdata$r	SEGMENT
??_R2ICvUnknown@@8 DD FLAT:??_R1A@?0A@EA@ICvUnknown@@8	; ICvUnknown::`RTTI Base Class Array'
rdata$r	ENDS
;	COMDAT ??_R3ICvUnknown@@8
rdata$r	SEGMENT
??_R3ICvUnknown@@8 DD 00H				; ICvUnknown::`RTTI Class Hierarchy Descriptor'
	DD	00H
	DD	01H
	DD	FLAT:??_R2ICvUnknown@@8
rdata$r	ENDS
;	COMDAT ??_R0?AVICvUnknown@@@8
_DATA	SEGMENT
??_R0?AVICvUnknown@@@8 DD FLAT:??_7type_info@@6B@	; ICvUnknown `RTTI Type Descriptor'
	DD	00H
	DB	'.?AVICvUnknown@@', 00H
_DATA	ENDS
;	COMDAT ??_R4ICvUnknown@@6B@
rdata$r	SEGMENT
??_R4ICvUnknown@@6B@ DD 00H				; ICvUnknown::`RTTI Complete Object Locator'
	DD	00H
	DD	00H
	DD	FLAT:??_R0?AVICvUnknown@@@8
	DD	FLAT:??_R3ICvUnknown@@8
rdata$r	ENDS
;	COMDAT ??_7ICvUnknown@@6B@
CONST	SEGMENT
??_7ICvUnknown@@6B@ DD FLAT:??_R4ICvUnknown@@6B@	; ICvUnknown::`vftable'
	DD	FLAT:__purecall
	DD	FLAT:__purecall
; Function compile flags: /Ogtpy
CONST	ENDS
;	COMDAT ??0ICvUnknown@@QAE@XZ
_TEXT	SEGMENT
??0ICvUnknown@@QAE@XZ PROC				; ICvUnknown::ICvUnknown, COMDAT
; _this$ = ecx
	mov	eax, ecx
	mov	DWORD PTR [eax], OFFSET ??_7ICvUnknown@@6B@
	ret	0
??0ICvUnknown@@QAE@XZ ENDP				; ICvUnknown::ICvUnknown
_TEXT	ENDS
PUBLIC	??_7CvDllPathFinderUpdate@@6B@			; CvDllPathFinderUpdate::`vftable'
PUBLIC	??1CvDllPathFinderUpdate@@QAE@XZ		; CvDllPathFinderUpdate::~CvDllPathFinderUpdate
PUBLIC	??_R4CvDllPathFinderUpdate@@6B@			; CvDllPathFinderUpdate::`RTTI Complete Object Locator'
PUBLIC	??_R0?AVCvDllPathFinderUpdate@@@8		; CvDllPathFinderUpdate `RTTI Type Descriptor'
PUBLIC	??_R3CvDllPathFinderUpdate@@8			; CvDllPathFinderUpdate::`RTTI Class Hierarchy Descriptor'
PUBLIC	??_R2CvDllPathFinderUpdate@@8			; CvDllPathFinderUpdate::`RTTI Base Class Array'
PUBLIC	??_R1A@?0A@EA@CvDllPathFinderUpdate@@8		; CvDllPathFinderUpdate::`RTTI Base Class Descriptor at (0,-1,0,64)'
PUBLIC	??_R1A@?0A@EA@ICvPathFinderUpdate1@@8		; ICvPathFinderUpdate1::`RTTI Base Class Descriptor at (0,-1,0,64)'
PUBLIC	??_R0?AVICvPathFinderUpdate1@@@8		; ICvPathFinderUpdate1 `RTTI Type Descriptor'
PUBLIC	??_R3ICvPathFinderUpdate1@@8			; ICvPathFinderUpdate1::`RTTI Class Hierarchy Descriptor'
PUBLIC	??_R2ICvPathFinderUpdate1@@8			; ICvPathFinderUpdate1::`RTTI Base Class Array'
PUBLIC	?QueryInterface@CvDllPathFinderUpdate@@UAGPAXU_GUID@@@Z ; CvDllPathFinderUpdate::QueryInterface
PUBLIC	?Destroy@CvDllPathFinderUpdate@@EAGXXZ		; CvDllPathFinderUpdate::Destroy
PUBLIC	?GetX@CvDllPathFinderUpdate@@UBGHXZ		; CvDllPathFinderUpdate::GetX
PUBLIC	?GetY@CvDllPathFinderUpdate@@UBGHXZ		; CvDllPathFinderUpdate::GetY
PUBLIC	?GetTurnNumber@CvDllPathFinderUpdate@@UBGHXZ	; CvDllPathFinderUpdate::GetTurnNumber
;	COMDAT ??_R2ICvPathFinderUpdate1@@8
; File c:\users\enormousapplepie\desktop\lekmod files\lekmod dll versions\v29\lekmod_dll\cvgamecoredll_expansion2\cvdllpathfinderupdate.cpp
rdata$r	SEGMENT
??_R2ICvPathFinderUpdate1@@8 DD FLAT:??_R1A@?0A@EA@ICvPathFinderUpdate1@@8 ; ICvPathFinderUpdate1::`RTTI Base Class Array'
	DD	FLAT:??_R1A@?0A@EA@ICvUnknown@@8
rdata$r	ENDS
;	COMDAT ??_R3ICvPathFinderUpdate1@@8
rdata$r	SEGMENT
??_R3ICvPathFinderUpdate1@@8 DD 00H			; ICvPathFinderUpdate1::`RTTI Class Hierarchy Descriptor'
	DD	00H
	DD	02H
	DD	FLAT:??_R2ICvPathFinderUpdate1@@8
rdata$r	ENDS
;	COMDAT ??_R0?AVICvPathFinderUpdate1@@@8
_DATA	SEGMENT
??_R0?AVICvPathFinderUpdate1@@@8 DD FLAT:??_7type_info@@6B@ ; ICvPathFinderUpdate1 `RTTI Type Descriptor'
	DD	00H
	DB	'.?AVICvPathFinderUpdate1@@', 00H
_DATA	ENDS
;	COMDAT ??_R1A@?0A@EA@ICvPathFinderUpdate1@@8
rdata$r	SEGMENT
??_R1A@?0A@EA@ICvPathFinderUpdate1@@8 DD FLAT:??_R0?AVICvPathFinderUpdate1@@@8 ; ICvPathFinderUpdate1::`RTTI Base Class Descriptor at (0,-1,0,64)'
	DD	01H
	DD	00H
	DD	0ffffffffH
	DD	00H
	DD	040H
	DD	FLAT:??_R3ICvPathFinderUpdate1@@8
rdata$r	ENDS
;	COMDAT ??_R1A@?0A@EA@CvDllPathFinderUpdate@@8
rdata$r	SEGMENT
??_R1A@?0A@EA@CvDllPathFinderUpdate@@8 DD FLAT:??_R0?AVCvDllPathFinderUpdate@@@8 ; CvDllPathFinderUpdate::`RTTI Base Class Descriptor at (0,-1,0,64)'
	DD	02H
	DD	00H
	DD	0ffffffffH
	DD	00H
	DD	040H
	DD	FLAT:??_R3CvDllPathFinderUpdate@@8
rdata$r	ENDS
;	COMDAT ??_R2CvDllPathFinderUpdate@@8
rdata$r	SEGMENT
??_R2CvDllPathFinderUpdate@@8 DD FLAT:??_R1A@?0A@EA@CvDllPathFinderUpdate@@8 ; CvDllPathFinderUpdate::`RTTI Base Class Array'
	DD	FLAT:??_R1A@?0A@EA@ICvPathFinderUpdate1@@8
	DD	FLAT:??_R1A@?0A@EA@ICvUnknown@@8
rdata$r	ENDS
;	COMDAT ??_R3CvDllPathFinderUpdate@@8
rdata$r	SEGMENT
??_R3CvDllPathFinderUpdate@@8 DD 00H			; CvDllPathFinderUpdate::`RTTI Class Hierarchy Descriptor'
	DD	00H
	DD	03H
	DD	FLAT:??_R2CvDllPathFinderUpdate@@8
rdata$r	ENDS
;	COMDAT ??_R0?AVCvDllPathFinderUpdate@@@8
_DATA	SEGMENT
??_R0?AVCvDllPathFinderUpdate@@@8 DD FLAT:??_7type_info@@6B@ ; CvDllPathFinderUpdate `RTTI Type Descriptor'
	DD	00H
	DB	'.?AVCvDllPathFinderUpdate@@', 00H
_DATA	ENDS
;	COMDAT ??_R4CvDllPathFinderUpdate@@6B@
rdata$r	SEGMENT
??_R4CvDllPathFinderUpdate@@6B@ DD 00H			; CvDllPathFinderUpdate::`RTTI Complete Object Locator'
	DD	00H
	DD	00H
	DD	FLAT:??_R0?AVCvDllPathFinderUpdate@@@8
	DD	FLAT:??_R3CvDllPathFinderUpdate@@8
rdata$r	ENDS
;	COMDAT ??_7CvDllPathFinderUpdate@@6B@
CONST	SEGMENT
??_7CvDllPathFinderUpdate@@6B@ DD FLAT:??_R4CvDllPathFinderUpdate@@6B@ ; CvDllPathFinderUpdate::`vftable'
	DD	FLAT:?QueryInterface@CvDllPathFinderUpdate@@UAGPAXU_GUID@@@Z
	DD	FLAT:?Destroy@CvDllPathFinderUpdate@@EAGXXZ
	DD	FLAT:?GetX@CvDllPathFinderUpdate@@UBGHXZ
	DD	FLAT:?GetY@CvDllPathFinderUpdate@@UBGHXZ
	DD	FLAT:?GetTurnNumber@CvDllPathFinderUpdate@@UBGHXZ
; Function compile flags: /Ogtpy
CONST	ENDS
;	COMDAT ??1CvDllPathFinderUpdate@@QAE@XZ
_TEXT	SEGMENT
??1CvDllPathFinderUpdate@@QAE@XZ PROC			; CvDllPathFinderUpdate::~CvDllPathFinderUpdate, COMDAT
; _this$ = ecx

; 22   : {

	mov	DWORD PTR [ecx], OFFSET ??_7CvDllPathFinderUpdate@@6B@

; 23   : }

	ret	0
??1CvDllPathFinderUpdate@@QAE@XZ ENDP			; CvDllPathFinderUpdate::~CvDllPathFinderUpdate
_TEXT	ENDS
PUBLIC	?IncrementReference@CvDllPathFinderUpdate@@QAEIXZ ; CvDllPathFinderUpdate::IncrementReference
; Function compile flags: /Ogtpy
;	COMDAT ?IncrementReference@CvDllPathFinderUpdate@@QAEIXZ
_TEXT	SEGMENT
?IncrementReference@CvDllPathFinderUpdate@@QAEIXZ PROC	; CvDllPathFinderUpdate::IncrementReference, COMDAT
; _this$ = ecx

; 39   : 	++m_uiRefCount;

	inc	DWORD PTR [ecx+4]

; 40   : 	return m_uiRefCount;

	mov	eax, DWORD PTR [ecx+4]

; 41   : }

	ret	0
?IncrementReference@CvDllPathFinderUpdate@@QAEIXZ ENDP	; CvDllPathFinderUpdate::IncrementReference
_TEXT	ENDS
PUBLIC	?GetReferenceCount@CvDllPathFinderUpdate@@QAEIXZ ; CvDllPathFinderUpdate::GetReferenceCount
; Function compile flags: /Ogtpy
;	COMDAT ?GetReferenceCount@CvDllPathFinderUpdate@@QAEIXZ
_TEXT	SEGMENT
?GetReferenceCount@CvDllPathFinderUpdate@@QAEIXZ PROC	; CvDllPathFinderUpdate::GetReferenceCount, COMDAT
; _this$ = ecx

; 59   : 	return m_uiRefCount;

	mov	eax, DWORD PTR [ecx+4]

; 60   : }

	ret	0
?GetReferenceCount@CvDllPathFinderUpdate@@QAEIXZ ENDP	; CvDllPathFinderUpdate::GetReferenceCount
_TEXT	ENDS
PUBLIC	??3CvDllPathFinderUpdate@@SAXPAX@Z		; CvDllPathFinderUpdate::operator delete
EXTRN	?Free@CvDllGameContext@@SAXPAX@Z:PROC		; CvDllGameContext::Free
; Function compile flags: /Ogtpy
;	COMDAT ??3CvDllPathFinderUpdate@@SAXPAX@Z
_TEXT	SEGMENT
_p$ = 8							; size = 4
??3CvDllPathFinderUpdate@@SAXPAX@Z PROC			; CvDllPathFinderUpdate::operator delete, COMDAT

; 69   : 	CvDllGameContext::Free(p);

	jmp	?Free@CvDllGameContext@@SAXPAX@Z	; CvDllGameContext::Free
??3CvDllPathFinderUpdate@@SAXPAX@Z ENDP			; CvDllPathFinderUpdate::operator delete
_TEXT	ENDS
PUBLIC	??2CvDllPathFinderUpdate@@SAPAXI@Z		; CvDllPathFinderUpdate::operator new
EXTRN	?Allocate@CvDllGameContext@@SAPAXI@Z:PROC	; CvDllGameContext::Allocate
; Function compile flags: /Ogtpy
;	COMDAT ??2CvDllPathFinderUpdate@@SAPAXI@Z
_TEXT	SEGMENT
_bytes$ = 8						; size = 4
??2CvDllPathFinderUpdate@@SAPAXI@Z PROC			; CvDllPathFinderUpdate::operator new, COMDAT

; 74   : 	return CvDllGameContext::Allocate(bytes);

	jmp	?Allocate@CvDllGameContext@@SAPAXI@Z	; CvDllGameContext::Allocate
??2CvDllPathFinderUpdate@@SAPAXI@Z ENDP			; CvDllPathFinderUpdate::operator new
; Function compile flags: /Ogtpy
_TEXT	ENDS
;	COMDAT ?GetX@CvDllPathFinderUpdate@@UBGHXZ
_TEXT	SEGMENT
_this$ = 8						; size = 4
?GetX@CvDllPathFinderUpdate@@UBGHXZ PROC		; CvDllPathFinderUpdate::GetX, COMDAT

; 79   : 	return m_iX;

	mov	eax, DWORD PTR _this$[esp-4]
	mov	eax, DWORD PTR [eax+8]

; 80   : }

	ret	4
?GetX@CvDllPathFinderUpdate@@UBGHXZ ENDP		; CvDllPathFinderUpdate::GetX
; Function compile flags: /Ogtpy
_TEXT	ENDS
;	COMDAT ?GetY@CvDllPathFinderUpdate@@UBGHXZ
_TEXT	SEGMENT
_this$ = 8						; size = 4
?GetY@CvDllPathFinderUpdate@@UBGHXZ PROC		; CvDllPathFinderUpdate::GetY, COMDAT

; 84   : 	return m_iY;

	mov	eax, DWORD PTR _this$[esp-4]
	mov	eax, DWORD PTR [eax+12]

; 85   : }

	ret	4
?GetY@CvDllPathFinderUpdate@@UBGHXZ ENDP		; CvDllPathFinderUpdate::GetY
; Function compile flags: /Ogtpy
_TEXT	ENDS
;	COMDAT ?GetTurnNumber@CvDllPathFinderUpdate@@UBGHXZ
_TEXT	SEGMENT
_this$ = 8						; size = 4
?GetTurnNumber@CvDllPathFinderUpdate@@UBGHXZ PROC	; CvDllPathFinderUpdate::GetTurnNumber, COMDAT

; 89   : 	return m_iTurnNumber;

	mov	eax, DWORD PTR _this$[esp-4]
	mov	eax, DWORD PTR [eax+16]

; 90   : }

	ret	4
?GetTurnNumber@CvDllPathFinderUpdate@@UBGHXZ ENDP	; CvDllPathFinderUpdate::GetTurnNumber
_TEXT	ENDS
PUBLIC	??_7ICvEnumerator@@6B@				; ICvEnumerator::`vftable'
PUBLIC	??0ICvEnumerator@@QAE@XZ			; ICvEnumerator::ICvEnumerator
PUBLIC	??_R4ICvEnumerator@@6B@				; ICvEnumerator::`RTTI Complete Object Locator'
PUBLIC	??_R0?AVICvEnumerator@@@8			; ICvEnumerator `RTTI Type Descriptor'
PUBLIC	??_R3ICvEnumerator@@8				; ICvEnumerator::`RTTI Class Hierarchy Descriptor'
PUBLIC	??_R2ICvEnumerator@@8				; ICvEnumerator::`RTTI Base Class Array'
PUBLIC	??_R1A@?0A@EA@ICvEnumerator@@8			; ICvEnumerator::`RTTI Base Class Descriptor at (0,-1,0,64)'
;	COMDAT ??_R1A@?0A@EA@ICvEnumerator@@8
rdata$r	SEGMENT
??_R1A@?0A@EA@ICvEnumerator@@8 DD FLAT:??_R0?AVICvEnumerator@@@8 ; ICvEnumerator::`RTTI Base Class Descriptor at (0,-1,0,64)'
	DD	01H
	DD	00H
	DD	0ffffffffH
	DD	00H
	DD	040H
	DD	FLAT:??_R3ICvEnumerator@@8
rdata$r	ENDS
;	COMDAT ??_R2ICvEnumerator@@8
rdata$r	SEGMENT
??_R2ICvEnumerator@@8 DD FLAT:??_R1A@?0A@EA@ICvEnumerator@@8 ; ICvEnumerator::`RTTI Base Class Array'
	DD	FLAT:??_R1A@?0A@EA@ICvUnknown@@8
rdata$r	ENDS
;	COMDAT ??_R3ICvEnumerator@@8
rdata$r	SEGMENT
??_R3ICvEnumerator@@8 DD 00H				; ICvEnumerator::`RTTI Class Hierarchy Descriptor'
	DD	00H
	DD	02H
	DD	FLAT:??_R2ICvEnumerator@@8
rdata$r	ENDS
;	COMDAT ??_R0?AVICvEnumerator@@@8
_DATA	SEGMENT
??_R0?AVICvEnumerator@@@8 DD FLAT:??_7type_info@@6B@	; ICvEnumerator `RTTI Type Descriptor'
	DD	00H
	DB	'.?AVICvEnumerator@@', 00H
_DATA	ENDS
;	COMDAT ??_R4ICvEnumerator@@6B@
rdata$r	SEGMENT
??_R4ICvEnumerator@@6B@ DD 00H				; ICvEnumerator::`RTTI Complete Object Locator'
	DD	00H
	DD	00H
	DD	FLAT:??_R0?AVICvEnumerator@@@8
	DD	FLAT:??_R3ICvEnumerator@@8
rdata$r	ENDS
;	COMDAT ??_7ICvEnumerator@@6B@
CONST	SEGMENT
??_7ICvEnumerator@@6B@ DD FLAT:??_R4ICvEnumerator@@6B@	; ICvEnumerator::`vftable'
	DD	FLAT:__purecall
	DD	FLAT:__purecall
	DD	FLAT:__purecall
	DD	FLAT:__purecall
	DD	FLAT:__purecall
; Function compile flags: /Ogtpy
CONST	ENDS
;	COMDAT ??0ICvEnumerator@@QAE@XZ
_TEXT	SEGMENT
??0ICvEnumerator@@QAE@XZ PROC				; ICvEnumerator::ICvEnumerator, COMDAT
; _this$ = ecx
	mov	eax, ecx
	mov	DWORD PTR [eax], OFFSET ??_7ICvEnumerator@@6B@
	ret	0
??0ICvEnumerator@@QAE@XZ ENDP				; ICvEnumerator::ICvEnumerator
_TEXT	ENDS
PUBLIC	?IncrementReference@CvDllPathFinderUpdateList@@QAEIXZ ; CvDllPathFinderUpdateList::IncrementReference
; Function compile flags: /Ogtpy
;	COMDAT ?IncrementReference@CvDllPathFinderUpdateList@@QAEIXZ
_TEXT	SEGMENT
?IncrementReference@CvDllPathFinderUpdateList@@QAEIXZ PROC ; CvDllPathFinderUpdateList::IncrementReference, COMDAT
; _this$ = ecx

; 117  : 	++m_uiRefCount;

	inc	DWORD PTR [ecx+4]

; 118  : 	return m_uiRefCount;

	mov	eax, DWORD PTR [ecx+4]

; 119  : }

	ret	0
?IncrementReference@CvDllPathFinderUpdateList@@QAEIXZ ENDP ; CvDllPathFinderUpdateList::IncrementReference
_TEXT	ENDS
PUBLIC	?GetReferenceCount@CvDllPathFinderUpdateList@@QAEIXZ ; CvDllPathFinderUpdateList::GetReferenceCount
; Function compile flags: /Ogtpy
;	COMDAT ?GetReferenceCount@CvDllPathFinderUpdateList@@QAEIXZ
_TEXT	SEGMENT
?GetReferenceCount@CvDllPathFinderUpdateList@@QAEIXZ PROC ; CvDllPathFinderUpdateList::GetReferenceCount, COMDAT
; _this$ = ecx

; 137  : 	return m_uiRefCount;

	mov	eax, DWORD PTR [ecx+4]

; 138  : }

	ret	0
?GetReferenceCount@CvDllPathFinderUpdateList@@QAEIXZ ENDP ; CvDllPathFinderUpdateList::GetReferenceCount
_TEXT	ENDS
PUBLIC	??3CvDllPathFinderUpdateList@@SAXPAX@Z		; CvDllPathFinderUpdateList::operator delete
; Function compile flags: /Ogtpy
;	COMDAT ??3CvDllPathFinderUpdateList@@SAXPAX@Z
_TEXT	SEGMENT
_p$ = 8							; size = 4
??3CvDllPathFinderUpdateList@@SAXPAX@Z PROC		; CvDllPathFinderUpdateList::operator delete, COMDAT

; 147  : 	CvDllGameContext::Free(p);

	jmp	?Free@CvDllGameContext@@SAXPAX@Z	; CvDllGameContext::Free
??3CvDllPathFinderUpdateList@@SAXPAX@Z ENDP		; CvDllPathFinderUpdateList::operator delete
_TEXT	ENDS
PUBLIC	??2CvDllPathFinderUpdateList@@SAPAXI@Z		; CvDllPathFinderUpdateList::operator new
; Function compile flags: /Ogtpy
;	COMDAT ??2CvDllPathFinderUpdateList@@SAPAXI@Z
_TEXT	SEGMENT
_bytes$ = 8						; size = 4
??2CvDllPathFinderUpdateList@@SAPAXI@Z PROC		; CvDllPathFinderUpdateList::operator new, COMDAT

; 152  : 	return CvDllGameContext::Allocate(bytes);

	jmp	?Allocate@CvDllGameContext@@SAPAXI@Z	; CvDllGameContext::Allocate
??2CvDllPathFinderUpdateList@@SAPAXI@Z ENDP		; CvDllPathFinderUpdateList::operator new
_TEXT	ENDS
PUBLIC	_IsEqualGUID
; Function compile flags: /Ogtpy
; File c:\program files\microsoft sdks\windows\v6.0a\include\guiddef.h
;	COMDAT _IsEqualGUID
_TEXT	SEGMENT
_rguid1$ = 8						; size = 4
_rguid2$ = 12						; size = 4
_IsEqualGUID PROC					; COMDAT

; 161  :     return !memcmp(&rguid1, &rguid2, sizeof(GUID));

	mov	ecx, DWORD PTR _rguid2$[esp-4]
	mov	edx, DWORD PTR _rguid1$[esp-4]
	mov	eax, 16					; 00000010H
	push	esi
	npad	2
$LL4@IsEqualGUI:
	mov	esi, DWORD PTR [edx]
	cmp	esi, DWORD PTR [ecx]
	jne	SHORT $LN5@IsEqualGUI
	sub	eax, 4
	add	ecx, 4
	add	edx, 4
	cmp	eax, 4
	jae	SHORT $LL4@IsEqualGUI
	xor	eax, eax
	xor	edx, edx
	test	eax, eax
	sete	dl
	pop	esi
	mov	eax, edx

; 162  : }

	ret	0
$LN5@IsEqualGUI:

; 161  :     return !memcmp(&rguid1, &rguid2, sizeof(GUID));

	movzx	eax, BYTE PTR [edx]
	movzx	esi, BYTE PTR [ecx]
	sub	eax, esi
	jne	SHORT $LN7@IsEqualGUI
	movzx	eax, BYTE PTR [edx+1]
	movzx	esi, BYTE PTR [ecx+1]
	sub	eax, esi
	jne	SHORT $LN7@IsEqualGUI
	movzx	eax, BYTE PTR [edx+2]
	movzx	esi, BYTE PTR [ecx+2]
	sub	eax, esi
	jne	SHORT $LN7@IsEqualGUI
	movzx	eax, BYTE PTR [edx+3]
	movzx	ecx, BYTE PTR [ecx+3]
	sub	eax, ecx
$LN7@IsEqualGUI:
	sar	eax, 31					; 0000001fH
	or	eax, 1
	xor	edx, edx
	test	eax, eax
	sete	dl
	pop	esi
	mov	eax, edx

; 162  : }

	ret	0
_IsEqualGUID ENDP
_TEXT	ENDS
PUBLIC	_==
; Function compile flags: /Ogtpy
;	COMDAT _==
_TEXT	SEGMENT
_guidOne$ = 8						; size = 4
_guidOther$ = 12					; size = 4
_==	PROC						; COMDAT

; 194  :     return IsEqualGUID(guidOne,guidOther);

	jmp	_IsEqualGUID
_==	ENDP
_TEXT	ENDS
PUBLIC	?Reset@CvDllPathFinderUpdateList@@UAGXXZ	; CvDllPathFinderUpdateList::Reset
; Function compile flags: /Ogtpy
; File c:\users\enormousapplepie\desktop\lekmod files\lekmod dll versions\v29\lekmod_dll\cvgamecoredll_expansion2\cvdllpathfinderupdate.cpp
;	COMDAT ?Reset@CvDllPathFinderUpdateList@@UAGXXZ
_TEXT	SEGMENT
_this$ = 8						; size = 4
?Reset@CvDllPathFinderUpdateList@@UAGXXZ PROC		; CvDllPathFinderUpdateList::Reset, COMDAT

; 176  : 	m_iIndex = -1;

	mov	eax, DWORD PTR _this$[esp-4]
	mov	DWORD PTR [eax+24], -1

; 177  : }

	ret	4
?Reset@CvDllPathFinderUpdateList@@UAGXXZ ENDP		; CvDllPathFinderUpdateList::Reset
_TEXT	ENDS
PUBLIC	?size@?$vector@UCvDllPathFinderUpdateListData@@V?$allocator@UCvDllPathFinderUpdateListData@@@std@@@std@@QBEIXZ ; std::vector<CvDllPathFinderUpdateListData,std::allocator<CvDllPathFinderUpdateListData> >::size
; Function compile flags: /Ogtpy
; File c:\program files (x86)\microsoft visual studio 9.0\vc\include\vector
;	COMDAT ?size@?$vector@UCvDllPathFinderUpdateListData@@V?$allocator@UCvDllPathFinderUpdateListData@@@std@@@std@@QBEIXZ
_TEXT	SEGMENT
?size@?$vector@UCvDllPathFinderUpdateListData@@V?$allocator@UCvDllPathFinderUpdateListData@@@std@@@std@@QBEIXZ PROC ; std::vector<CvDllPathFinderUpdateListData,std::allocator<CvDllPathFinderUpdateListData> >::size, COMDAT
; _this$ = ecx

; 726  : 		return (_Mylast - _Myfirst);

	mov	edx, DWORD PTR [ecx+8]
	sub	edx, DWORD PTR [ecx+4]
	mov	eax, 715827883				; 2aaaaaabH
	imul	edx
	sar	edx, 1
	mov	eax, edx
	shr	eax, 31					; 0000001fH
	add	eax, edx

; 727  : 		}

	ret	0
?size@?$vector@UCvDllPathFinderUpdateListData@@V?$allocator@UCvDllPathFinderUpdateListData@@@std@@@std@@QBEIXZ ENDP ; std::vector<CvDllPathFinderUpdateListData,std::allocator<CvDllPathFinderUpdateListData> >::size
_TEXT	ENDS
PUBLIC	?empty@?$vector@UCvDllPathFinderUpdateListData@@V?$allocator@UCvDllPathFinderUpdateListData@@@std@@@std@@QBE_NXZ ; std::vector<CvDllPathFinderUpdateListData,std::allocator<CvDllPathFinderUpdateListData> >::empty
; Function compile flags: /Ogtpy
;	COMDAT ?empty@?$vector@UCvDllPathFinderUpdateListData@@V?$allocator@UCvDllPathFinderUpdateListData@@@std@@@std@@QBE_NXZ
_TEXT	SEGMENT
?empty@?$vector@UCvDllPathFinderUpdateListData@@V?$allocator@UCvDllPathFinderUpdateListData@@@std@@@std@@QBE_NXZ PROC ; std::vector<CvDllPathFinderUpdateListData,std::allocator<CvDllPathFinderUpdateListData> >::empty, COMDAT
; _this$ = ecx

; 736  : 		return (size() == 0);

	mov	edx, DWORD PTR [ecx+8]
	sub	edx, DWORD PTR [ecx+4]
	mov	eax, 715827883				; 2aaaaaabH
	imul	edx
	sar	edx, 1
	mov	eax, edx
	shr	eax, 31					; 0000001fH
	add	eax, edx
	neg	eax
	sbb	eax, eax
	inc	eax

; 737  : 		}

	ret	0
?empty@?$vector@UCvDllPathFinderUpdateListData@@V?$allocator@UCvDllPathFinderUpdateListData@@@std@@@std@@QBE_NXZ ENDP ; std::vector<CvDllPathFinderUpdateListData,std::allocator<CvDllPathFinderUpdateListData> >::empty
_TEXT	ENDS
PUBLIC	??A?$vector@UCvDllPathFinderUpdateListData@@V?$allocator@UCvDllPathFinderUpdateListData@@@std@@@std@@QBEABUCvDllPathFinderUpdateListData@@I@Z ; std::vector<CvDllPathFinderUpdateListData,std::allocator<CvDllPathFinderUpdateListData> >::operator[]
; Function compile flags: /Ogtpy
;	COMDAT ??A?$vector@UCvDllPathFinderUpdateListData@@V?$allocator@UCvDllPathFinderUpdateListData@@@std@@@std@@QBEABUCvDllPathFinderUpdateListData@@I@Z
_TEXT	SEGMENT
__Pos$ = 8						; size = 4
??A?$vector@UCvDllPathFinderUpdateListData@@V?$allocator@UCvDllPathFinderUpdateListData@@@std@@@std@@QBEABUCvDllPathFinderUpdateListData@@I@Z PROC ; std::vector<CvDllPathFinderUpdateListData,std::allocator<CvDllPathFinderUpdateListData> >::operator[], COMDAT
; _this$ = ecx

; 760  : 
; 761  :  #if _HAS_ITERATOR_DEBUGGING
; 762  : 		if (size() <= _Pos)
; 763  : 			{
; 764  : 			_DEBUG_ERROR("vector subscript out of range");
; 765  : 			_SCL_SECURE_OUT_OF_RANGE;
; 766  : 			}
; 767  :  #endif /* _HAS_ITERATOR_DEBUGGING */
; 768  : 		_SCL_SECURE_VALIDATE_RANGE(_Pos < size());
; 769  : 
; 770  : 		return (*(_Myfirst + _Pos));

	mov	eax, DWORD PTR __Pos$[esp-4]
	mov	ecx, DWORD PTR [ecx+4]
	lea	eax, DWORD PTR [eax+eax*2]
	lea	eax, DWORD PTR [ecx+eax*4]

; 771  : 		}

	ret	4
??A?$vector@UCvDllPathFinderUpdateListData@@V?$allocator@UCvDllPathFinderUpdateListData@@@std@@@std@@QBEABUCvDllPathFinderUpdateListData@@I@Z ENDP ; std::vector<CvDllPathFinderUpdateListData,std::allocator<CvDllPathFinderUpdateListData> >::operator[]
_TEXT	ENDS
PUBLIC	??1?$_Container_base_aux_alloc_empty@V?$allocator@UCvDllPathFinderUpdateListData@@@std@@@std@@IAE@XZ ; std::_Container_base_aux_alloc_empty<std::allocator<CvDllPathFinderUpdateListData> >::~_Container_base_aux_alloc_empty<std::allocator<CvDllPathFinderUpdateListData> >
; Function compile flags: /Ogtpy
; File c:\program files (x86)\microsoft visual studio 9.0\vc\include\xutility
;	COMDAT ??1?$_Container_base_aux_alloc_empty@V?$allocator@UCvDllPathFinderUpdateListData@@@std@@@std@@IAE@XZ
_TEXT	SEGMENT
??1?$_Container_base_aux_alloc_empty@V?$allocator@UCvDllPathFinderUpdateListData@@@std@@@std@@IAE@XZ PROC ; std::_Container_base_aux_alloc_empty<std::allocator<CvDllPathFinderUpdateListData> >::~_Container_base_aux_alloc_empty<std::allocator<CvDllPathFinderUpdateListData> >, COMDAT
; _this$ = ecx

; 627  : 	~_Container_base_aux_alloc_empty() { }

	ret	0
??1?$_Container_base_aux_alloc_empty@V?$allocator@UCvDllPathFinderUpdateListData@@@std@@@std@@IAE@XZ ENDP ; std::_Container_base_aux_alloc_empty<std::allocator<CvDllPathFinderUpdateListData> >::~_Container_base_aux_alloc_empty<std::allocator<CvDllPathFinderUpdateListData> >
_TEXT	ENDS
PUBLIC	??0?$_Vector_const_iterator@UCvDllPathFinderUpdateListData@@V?$allocator@UCvDllPathFinderUpdateListData@@@std@@@std@@QAE@PAUCvDllPathFinderUpdateListData@@@Z ; std::_Vector_const_iterator<CvDllPathFinderUpdateListData,std::allocator<CvDllPathFinderUpdateListData> >::_Vector_const_iterator<CvDllPathFinderUpdateListData,std::allocator<CvDllPathFinderUpdateListData> >
; Function compile flags: /Ogtpy
; File c:\program files (x86)\microsoft visual studio 9.0\vc\include\vector
;	COMDAT ??0?$_Vector_const_iterator@UCvDllPathFinderUpdateListData@@V?$allocator@UCvDllPathFinderUpdateListData@@@std@@@std@@QAE@PAUCvDllPathFinderUpdateListData@@@Z
_TEXT	SEGMENT
__Ptr$ = 8						; size = 4
??0?$_Vector_const_iterator@UCvDllPathFinderUpdateListData@@V?$allocator@UCvDllPathFinderUpdateListData@@@std@@@std@@QAE@PAUCvDllPathFinderUpdateListData@@@Z PROC ; std::_Vector_const_iterator<CvDllPathFinderUpdateListData,std::allocator<CvDllPathFinderUpdateListData> >::_Vector_const_iterator<CvDllPathFinderUpdateListData,std::allocator<CvDllPathFinderUpdateListData> >, COMDAT
; _this$ = ecx

; 84   : 	explicit _Vector_const_iterator(_Tptr _Ptr)

	mov	eax, ecx

; 85   : 		{	// construct with pointer _Ptr
; 86   : 		_Myptr = _Ptr;

	mov	ecx, DWORD PTR __Ptr$[esp-4]
	mov	DWORD PTR [eax], ecx

; 87   : 		}

	ret	4
??0?$_Vector_const_iterator@UCvDllPathFinderUpdateListData@@V?$allocator@UCvDllPathFinderUpdateListData@@@std@@@std@@QAE@PAUCvDllPathFinderUpdateListData@@@Z ENDP ; std::_Vector_const_iterator<CvDllPathFinderUpdateListData,std::allocator<CvDllPathFinderUpdateListData> >::_Vector_const_iterator<CvDllPathFinderUpdateListData,std::allocator<CvDllPathFinderUpdateListData> >
_TEXT	ENDS
PUBLIC	?deallocate@?$allocator@UCvDllPathFinderUpdateListData@@@std@@QAEXPAUCvDllPathFinderUpdateListData@@I@Z ; std::allocator<CvDllPathFinderUpdateListData>::deallocate
EXTRN	??3@YAXPAX@Z:PROC				; operator delete
; Function compile flags: /Ogtpy
; File c:\program files (x86)\microsoft visual studio 9.0\vc\include\xmemory
;	COMDAT ?deallocate@?$allocator@UCvDllPathFinderUpdateListData@@@std@@QAEXPAUCvDllPathFinderUpdateListData@@I@Z
_TEXT	SEGMENT
__Ptr$ = 8						; size = 4
___formal$ = 12						; size = 4
?deallocate@?$allocator@UCvDllPathFinderUpdateListData@@@std@@QAEXPAUCvDllPathFinderUpdateListData@@I@Z PROC ; std::allocator<CvDllPathFinderUpdateListData>::deallocate, COMDAT
; _this$ = ecx

; 140  : 		::operator delete(_Ptr);

	mov	eax, DWORD PTR __Ptr$[esp-4]
	push	eax
	call	??3@YAXPAX@Z				; operator delete
	pop	ecx

; 141  : 		}

	ret	8
?deallocate@?$allocator@UCvDllPathFinderUpdateListData@@@std@@QAEXPAUCvDllPathFinderUpdateListData@@I@Z ENDP ; std::allocator<CvDllPathFinderUpdateListData>::deallocate
_TEXT	ENDS
PUBLIC	??0?$allocator@UCvDllPathFinderUpdateListData@@@std@@QAE@XZ ; std::allocator<CvDllPathFinderUpdateListData>::allocator<CvDllPathFinderUpdateListData>
; Function compile flags: /Ogtpy
;	COMDAT ??0?$allocator@UCvDllPathFinderUpdateListData@@@std@@QAE@XZ
_TEXT	SEGMENT
??0?$allocator@UCvDllPathFinderUpdateListData@@@std@@QAE@XZ PROC ; std::allocator<CvDllPathFinderUpdateListData>::allocator<CvDllPathFinderUpdateListData>, COMDAT
; _this$ = ecx

; 119  : 	allocator() _THROW0()

	mov	eax, ecx

; 120  : 		{	// construct default allocator (do nothing)
; 121  : 		}

	ret	0
??0?$allocator@UCvDllPathFinderUpdateListData@@@std@@QAE@XZ ENDP ; std::allocator<CvDllPathFinderUpdateListData>::allocator<CvDllPathFinderUpdateListData>
_TEXT	ENDS
PUBLIC	??0?$_Container_base_aux_alloc_empty@V?$allocator@UCvDllPathFinderUpdateListData@@@std@@@std@@IAE@V?$allocator@UCvDllPathFinderUpdateListData@@@1@@Z ; std::_Container_base_aux_alloc_empty<std::allocator<CvDllPathFinderUpdateListData> >::_Container_base_aux_alloc_empty<std::allocator<CvDllPathFinderUpdateListData> >
; Function compile flags: /Ogtpy
; File c:\program files (x86)\microsoft visual studio 9.0\vc\include\xutility
;	COMDAT ??0?$_Container_base_aux_alloc_empty@V?$allocator@UCvDllPathFinderUpdateListData@@@std@@@std@@IAE@V?$allocator@UCvDllPathFinderUpdateListData@@@1@@Z
_TEXT	SEGMENT
___formal$ = 8						; size = 1
??0?$_Container_base_aux_alloc_empty@V?$allocator@UCvDllPathFinderUpdateListData@@@std@@@std@@IAE@V?$allocator@UCvDllPathFinderUpdateListData@@@1@@Z PROC ; std::_Container_base_aux_alloc_empty<std::allocator<CvDllPathFinderUpdateListData> >::_Container_base_aux_alloc_empty<std::allocator<CvDllPathFinderUpdateListData> >, COMDAT
; _this$ = ecx

; 618  : 	explicit _Container_base_aux_alloc_empty(_Alloc) { }

	mov	eax, ecx
	ret	4
??0?$_Container_base_aux_alloc_empty@V?$allocator@UCvDllPathFinderUpdateListData@@@std@@@std@@IAE@V?$allocator@UCvDllPathFinderUpdateListData@@@1@@Z ENDP ; std::_Container_base_aux_alloc_empty<std::allocator<CvDllPathFinderUpdateListData> >::_Container_base_aux_alloc_empty<std::allocator<CvDllPathFinderUpdateListData> >
_TEXT	ENDS
PUBLIC	??0?$allocator@UCvDllPathFinderUpdateListData@@@std@@QAE@ABV01@@Z ; std::allocator<CvDllPathFinderUpdateListData>::allocator<CvDllPathFinderUpdateListData>
; Function compile flags: /Ogtpy
; File c:\program files (x86)\microsoft visual studio 9.0\vc\include\xmemory
;	COMDAT ??0?$allocator@UCvDllPathFinderUpdateListData@@@std@@QAE@ABV01@@Z
_TEXT	SEGMENT
___formal$ = 8						; size = 4
??0?$allocator@UCvDllPathFinderUpdateListData@@@std@@QAE@ABV01@@Z PROC ; std::allocator<CvDllPathFinderUpdateListData>::allocator<CvDllPathFinderUpdateListData>, COMDAT
; _this$ = ecx

; 123  : 	allocator(const allocator<_Ty>&) _THROW0()

	mov	eax, ecx

; 124  : 		{	// construct by copying (do nothing)
; 125  : 		}

	ret	4
??0?$allocator@UCvDllPathFinderUpdateListData@@@std@@QAE@ABV01@@Z ENDP ; std::allocator<CvDllPathFinderUpdateListData>::allocator<CvDllPathFinderUpdateListData>
_TEXT	ENDS
PUBLIC	??$_Iter_cat@V?$_Vector_const_iterator@UCvDllPathFinderUpdateListData@@V?$allocator@UCvDllPathFinderUpdateListData@@@std@@@std@@@std@@YA?AUrandom_access_iterator_tag@0@ABV?$_Vector_const_iterator@UCvDllPathFinderUpdateListData@@V?$allocator@UCvDllPathFinderUpdateListData@@@std@@@0@@Z ; std::_Iter_cat<std::_Vector_const_iterator<CvDllPathFinderUpdateListData,std::allocator<CvDllPathFinderUpdateListData> > >
; Function compile flags: /Ogtpy
; File c:\program files (x86)\microsoft visual studio 9.0\vc\include\xutility
;	COMDAT ??$_Iter_cat@V?$_Vector_const_iterator@UCvDllPathFinderUpdateListData@@V?$allocator@UCvDllPathFinderUpdateListData@@@std@@@std@@@std@@YA?AUrandom_access_iterator_tag@0@ABV?$_Vector_const_iterator@UCvDllPathFinderUpdateListData@@V?$allocator@UCvDllPathFinderUpdateListData@@@std@@@0@@Z
_TEXT	SEGMENT
___$ReturnUdt$ = 8					; size = 4
___formal$ = 12						; size = 4
??$_Iter_cat@V?$_Vector_const_iterator@UCvDllPathFinderUpdateListData@@V?$allocator@UCvDllPathFinderUpdateListData@@@std@@@std@@@std@@YA?AUrandom_access_iterator_tag@0@ABV?$_Vector_const_iterator@UCvDllPathFinderUpdateListData@@V?$allocator@UCvDllPathFinderUpdateListData@@@std@@@0@@Z PROC ; std::_Iter_cat<std::_Vector_const_iterator<CvDllPathFinderUpdateListData,std::allocator<CvDllPathFinderUpdateListData> > >, COMDAT

; 953  : 	typename iterator_traits<_Iter>::iterator_category _Cat;
; 954  : 	return (_Cat);

	mov	eax, DWORD PTR ___$ReturnUdt$[esp-4]

; 955  : 	}

	ret	0
??$_Iter_cat@V?$_Vector_const_iterator@UCvDllPathFinderUpdateListData@@V?$allocator@UCvDllPathFinderUpdateListData@@@std@@@std@@@std@@YA?AUrandom_access_iterator_tag@0@ABV?$_Vector_const_iterator@UCvDllPathFinderUpdateListData@@V?$allocator@UCvDllPathFinderUpdateListData@@@std@@@0@@Z ENDP ; std::_Iter_cat<std::_Vector_const_iterator<CvDllPathFinderUpdateListData,std::allocator<CvDllPathFinderUpdateListData> > >
_TEXT	ENDS
PUBLIC	??$_Ptr_cat@PAUCvDllPathFinderUpdateListData@@PAU1@@std@@YA?AU_Nonscalar_ptr_iterator_tag@0@AAPAUCvDllPathFinderUpdateListData@@0@Z ; std::_Ptr_cat<CvDllPathFinderUpdateListData *,CvDllPathFinderUpdateListData *>
; Function compile flags: /Ogtpy
;	COMDAT ??$_Ptr_cat@PAUCvDllPathFinderUpdateListData@@PAU1@@std@@YA?AU_Nonscalar_ptr_iterator_tag@0@AAPAUCvDllPathFinderUpdateListData@@0@Z
_TEXT	SEGMENT
__Cat$ = -1						; size = 1
___formal$ = 8						; size = 4
___formal$ = 12						; size = 4
??$_Ptr_cat@PAUCvDllPathFinderUpdateListData@@PAU1@@std@@YA?AU_Nonscalar_ptr_iterator_tag@0@AAPAUCvDllPathFinderUpdateListData@@0@Z PROC ; std::_Ptr_cat<CvDllPathFinderUpdateListData *,CvDllPathFinderUpdateListData *>, COMDAT

; 1509 : 	{

	push	ecx

; 1510 : 	typename _Ptr_cat_helper<_T1, _T2>::_Ptr_cat _Cat;
; 1511 : 	return (_Cat);

	mov	al, BYTE PTR __Cat$[esp+4]

; 1512 : 	}

	pop	ecx
	ret	0
??$_Ptr_cat@PAUCvDllPathFinderUpdateListData@@PAU1@@std@@YA?AU_Nonscalar_ptr_iterator_tag@0@AAPAUCvDllPathFinderUpdateListData@@0@Z ENDP ; std::_Ptr_cat<CvDllPathFinderUpdateListData *,CvDllPathFinderUpdateListData *>
_TEXT	ENDS
PUBLIC	??0?$_Vector_iterator@UCvDllPathFinderUpdateListData@@V?$allocator@UCvDllPathFinderUpdateListData@@@std@@@std@@QAE@PAUCvDllPathFinderUpdateListData@@@Z ; std::_Vector_iterator<CvDllPathFinderUpdateListData,std::allocator<CvDllPathFinderUpdateListData> >::_Vector_iterator<CvDllPathFinderUpdateListData,std::allocator<CvDllPathFinderUpdateListData> >
; Function compile flags: /Ogtpy
; File c:\program files (x86)\microsoft visual studio 9.0\vc\include\vector
;	COMDAT ??0?$_Vector_iterator@UCvDllPathFinderUpdateListData@@V?$allocator@UCvDllPathFinderUpdateListData@@@std@@@std@@QAE@PAUCvDllPathFinderUpdateListData@@@Z
_TEXT	SEGMENT
__Ptr$ = 8						; size = 4
??0?$_Vector_iterator@UCvDllPathFinderUpdateListData@@V?$allocator@UCvDllPathFinderUpdateListData@@@std@@@std@@QAE@PAUCvDllPathFinderUpdateListData@@@Z PROC ; std::_Vector_iterator<CvDllPathFinderUpdateListData,std::allocator<CvDllPathFinderUpdateListData> >::_Vector_iterator<CvDllPathFinderUpdateListData,std::allocator<CvDllPathFinderUpdateListData> >, COMDAT
; _this$ = ecx

; 333  : 		{	// construct with pointer _Ptr

	mov	eax, ecx
	mov	ecx, DWORD PTR __Ptr$[esp-4]
	mov	DWORD PTR [eax], ecx

; 334  : 		}

	ret	4
??0?$_Vector_iterator@UCvDllPathFinderUpdateListData@@V?$allocator@UCvDllPathFinderUpdateListData@@@std@@@std@@QAE@PAUCvDllPathFinderUpdateListData@@@Z ENDP ; std::_Vector_iterator<CvDllPathFinderUpdateListData,std::allocator<CvDllPathFinderUpdateListData> >::_Vector_iterator<CvDllPathFinderUpdateListData,std::allocator<CvDllPathFinderUpdateListData> >
_TEXT	ENDS
PUBLIC	?max_size@?$allocator@UCvDllPathFinderUpdateListData@@@std@@QBEIXZ ; std::allocator<CvDllPathFinderUpdateListData>::max_size
; Function compile flags: /Ogtpy
; File c:\program files (x86)\microsoft visual studio 9.0\vc\include\xmemory
;	COMDAT ?max_size@?$allocator@UCvDllPathFinderUpdateListData@@@std@@QBEIXZ
_TEXT	SEGMENT
?max_size@?$allocator@UCvDllPathFinderUpdateListData@@@std@@QBEIXZ PROC ; std::allocator<CvDllPathFinderUpdateListData>::max_size, COMDAT
; _this$ = ecx

; 165  : 		_SIZT _Count = (_SIZT)(-1) / sizeof (_Ty);
; 166  : 		return (0 < _Count ? _Count : 1);

	mov	eax, 357913941				; 15555555H

; 167  : 		}

	ret	0
?max_size@?$allocator@UCvDllPathFinderUpdateListData@@@std@@QBEIXZ ENDP ; std::allocator<CvDllPathFinderUpdateListData>::max_size
_TEXT	ENDS
PUBLIC	??$_Destroy@UCvDllPathFinderUpdateListData@@@std@@YAXPAUCvDllPathFinderUpdateListData@@@Z ; std::_Destroy<CvDllPathFinderUpdateListData>
; Function compile flags: /Ogtpy
;	COMDAT ??$_Destroy@UCvDllPathFinderUpdateListData@@@std@@YAXPAUCvDllPathFinderUpdateListData@@@Z
_TEXT	SEGMENT
__Ptr$ = 8						; size = 4
??$_Destroy@UCvDllPathFinderUpdateListData@@@std@@YAXPAUCvDllPathFinderUpdateListData@@@Z PROC ; std::_Destroy<CvDllPathFinderUpdateListData>, COMDAT

; 59   : 	_DESTRUCTOR(_Ty, _Ptr);
; 60   : 	}

	ret	0
??$_Destroy@UCvDllPathFinderUpdateListData@@@std@@YAXPAUCvDllPathFinderUpdateListData@@@Z ENDP ; std::_Destroy<CvDllPathFinderUpdateListData>
_TEXT	ENDS
PUBLIC	?capacity@?$vector@UCvDllPathFinderUpdateListData@@V?$allocator@UCvDllPathFinderUpdateListData@@@std@@@std@@QBEIXZ ; std::vector<CvDllPathFinderUpdateListData,std::allocator<CvDllPathFinderUpdateListData> >::capacity
; Function compile flags: /Ogtpy
; File c:\program files (x86)\microsoft visual studio 9.0\vc\include\vector
;	COMDAT ?capacity@?$vector@UCvDllPathFinderUpdateListData@@V?$allocator@UCvDllPathFinderUpdateListData@@@std@@@std@@QBEIXZ
_TEXT	SEGMENT
?capacity@?$vector@UCvDllPathFinderUpdateListData@@V?$allocator@UCvDllPathFinderUpdateListData@@@std@@@std@@QBEIXZ PROC ; std::vector<CvDllPathFinderUpdateListData,std::allocator<CvDllPathFinderUpdateListData> >::capacity, COMDAT
; _this$ = ecx

; 635  : 		return (_Myfirst == 0 ? 0 : _Myend - _Myfirst);

	mov	eax, DWORD PTR [ecx+4]
	test	eax, eax
	jne	SHORT $LN3@capacity

; 636  : 		}

	ret	0
$LN3@capacity:

; 635  : 		return (_Myfirst == 0 ? 0 : _Myend - _Myfirst);

	mov	ecx, DWORD PTR [ecx+12]
	sub	ecx, eax
	mov	eax, 715827883				; 2aaaaaabH
	imul	ecx
	sar	edx, 1
	mov	eax, edx
	shr	eax, 31					; 0000001fH
	add	eax, edx

; 636  : 		}

	ret	0
?capacity@?$vector@UCvDllPathFinderUpdateListData@@V?$allocator@UCvDllPathFinderUpdateListData@@@std@@@std@@QBEIXZ ENDP ; std::vector<CvDllPathFinderUpdateListData,std::allocator<CvDllPathFinderUpdateListData> >::capacity
_TEXT	ENDS
PUBLIC	??$swap@UCvDllPathFinderUpdateListData@@@std@@YAXAAUCvDllPathFinderUpdateListData@@0@Z ; std::swap<CvDllPathFinderUpdateListData>
; Function compile flags: /Ogtpy
; File c:\program files (x86)\microsoft visual studio 9.0\vc\include\utility
;	COMDAT ??$swap@UCvDllPathFinderUpdateListData@@@std@@YAXAAUCvDllPathFinderUpdateListData@@0@Z
_TEXT	SEGMENT
__Left$ = 8						; size = 4
__Right$ = 12						; size = 4
??$swap@UCvDllPathFinderUpdateListData@@@std@@YAXAAUCvDllPathFinderUpdateListData@@0@Z PROC ; std::swap<CvDllPathFinderUpdateListData>, COMDAT

; 18   : 	if (&_Left != &_Right)

	mov	eax, DWORD PTR __Left$[esp-4]
	mov	ecx, DWORD PTR __Right$[esp-4]
	cmp	eax, ecx
	je	SHORT $LN1@swap

; 19   : 		{	// different, worth swapping
; 20   : 		_Ty _Tmp = _Left;

	mov	edx, DWORD PTR [eax]
	push	ebx

; 21   : 
; 22   : 		_Left = _Right;

	mov	ebx, DWORD PTR [ecx]
	push	esi
	mov	esi, DWORD PTR [eax+4]
	push	edi
	mov	edi, DWORD PTR [eax+8]
	mov	DWORD PTR [eax], ebx
	mov	ebx, DWORD PTR [ecx+4]
	mov	DWORD PTR [eax+4], ebx
	mov	ebx, DWORD PTR [ecx+8]
	mov	DWORD PTR [eax+8], ebx

; 23   : 		_Right = _Tmp;

	mov	DWORD PTR [ecx], edx
	mov	DWORD PTR [ecx+4], esi
	mov	DWORD PTR [ecx+8], edi
	pop	edi
	pop	esi
	pop	ebx
$LN1@swap:

; 24   : 		}
; 25   : 	}

	ret	0
??$swap@UCvDllPathFinderUpdateListData@@@std@@YAXAAUCvDllPathFinderUpdateListData@@0@Z ENDP ; std::swap<CvDllPathFinderUpdateListData>
_TEXT	ENDS
PUBLIC	??G?$_Vector_const_iterator@UCvDllPathFinderUpdateListData@@V?$allocator@UCvDllPathFinderUpdateListData@@@std@@@std@@QBEHABV01@@Z ; std::_Vector_const_iterator<CvDllPathFinderUpdateListData,std::allocator<CvDllPathFinderUpdateListData> >::operator-
; Function compile flags: /Ogtpy
; File c:\program files (x86)\microsoft visual studio 9.0\vc\include\vector
;	COMDAT ??G?$_Vector_const_iterator@UCvDllPathFinderUpdateListData@@V?$allocator@UCvDllPathFinderUpdateListData@@@std@@@std@@QBEHABV01@@Z
_TEXT	SEGMENT
__Right$ = 8						; size = 4
??G?$_Vector_const_iterator@UCvDllPathFinderUpdateListData@@V?$allocator@UCvDllPathFinderUpdateListData@@@std@@@std@@QBEHABV01@@Z PROC ; std::_Vector_const_iterator<CvDllPathFinderUpdateListData,std::allocator<CvDllPathFinderUpdateListData> >::operator-, COMDAT
; _this$ = ecx

; 187  : 
; 188  :  #if _HAS_ITERATOR_DEBUGGING
; 189  : 		_Compat(_Right);
; 190  :  #else
; 191  : 		_SCL_SECURE_VALIDATE(this->_Has_container() && this->_Same_container(_Right));
; 192  :  #endif /* _HAS_ITERATOR_DEBUGGING */
; 193  : 
; 194  : 		return (_Myptr - _Right._Myptr);

	mov	eax, DWORD PTR __Right$[esp-4]
	mov	ecx, DWORD PTR [ecx]
	sub	ecx, DWORD PTR [eax]
	mov	eax, 715827883				; 2aaaaaabH
	imul	ecx
	sar	edx, 1
	mov	eax, edx
	shr	eax, 31					; 0000001fH
	add	eax, edx

; 195  : 		}

	ret	4
??G?$_Vector_const_iterator@UCvDllPathFinderUpdateListData@@V?$allocator@UCvDllPathFinderUpdateListData@@@std@@@std@@QBEHABV01@@Z ENDP ; std::_Vector_const_iterator<CvDllPathFinderUpdateListData,std::allocator<CvDllPathFinderUpdateListData> >::operator-
_TEXT	ENDS
PUBLIC	??$_Move_cat@PAUCvDllPathFinderUpdateListData@@@std@@YA?AU_Undefined_move_tag@0@ABQAUCvDllPathFinderUpdateListData@@@Z ; std::_Move_cat<CvDllPathFinderUpdateListData *>
; Function compile flags: /Ogtpy
; File c:\program files (x86)\microsoft visual studio 9.0\vc\include\xutility
;	COMDAT ??$_Move_cat@PAUCvDllPathFinderUpdateListData@@@std@@YA?AU_Undefined_move_tag@0@ABQAUCvDllPathFinderUpdateListData@@@Z
_TEXT	SEGMENT
__Cat$ = -1						; size = 1
___formal$ = 8						; size = 4
??$_Move_cat@PAUCvDllPathFinderUpdateListData@@@std@@YA?AU_Undefined_move_tag@0@ABQAUCvDllPathFinderUpdateListData@@@Z PROC ; std::_Move_cat<CvDllPathFinderUpdateListData *>, COMDAT

; 1200 : 	{

	push	ecx

; 1201 : 		typename _Move_operation_category<typename iterator_traits<_Iter>::value_type>::_Move_cat _Cat;
; 1202 : 		return (_Cat);

	mov	al, BYTE PTR __Cat$[esp+4]

; 1203 : 	}

	pop	ecx
	ret	0
??$_Move_cat@PAUCvDllPathFinderUpdateListData@@@std@@YA?AU_Undefined_move_tag@0@ABQAUCvDllPathFinderUpdateListData@@@Z ENDP ; std::_Move_cat<CvDllPathFinderUpdateListData *>
_TEXT	ENDS
PUBLIC	??$_Ptr_cat@V?$_Vector_const_iterator@UCvDllPathFinderUpdateListData@@V?$allocator@UCvDllPathFinderUpdateListData@@@std@@@std@@PAUCvDllPathFinderUpdateListData@@@std@@YA?AU_Nonscalar_ptr_iterator_tag@0@AAV?$_Vector_const_iterator@UCvDllPathFinderUpdateListData@@V?$allocator@UCvDllPathFinderUpdateListData@@@std@@@0@AAPAUCvDllPathFinderUpdateListData@@@Z ; std::_Ptr_cat<std::_Vector_const_iterator<CvDllPathFinderUpdateListData,std::allocator<CvDllPathFinderUpdateListData> >,CvDllPathFinderUpdateListData *>
; Function compile flags: /Ogtpy
;	COMDAT ??$_Ptr_cat@V?$_Vector_const_iterator@UCvDllPathFinderUpdateListData@@V?$allocator@UCvDllPathFinderUpdateListData@@@std@@@std@@PAUCvDllPathFinderUpdateListData@@@std@@YA?AU_Nonscalar_ptr_iterator_tag@0@AAV?$_Vector_const_iterator@UCvDllPathFinderUpdateListData@@V?$allocator@UCvDllPathFinderUpdateListData@@@std@@@0@AAPAUCvDllPathFinderUpdateListData@@@Z
_TEXT	SEGMENT
__Cat$ = -1						; size = 1
___formal$ = 8						; size = 4
___formal$ = 12						; size = 4
??$_Ptr_cat@V?$_Vector_const_iterator@UCvDllPathFinderUpdateListData@@V?$allocator@UCvDllPathFinderUpdateListData@@@std@@@std@@PAUCvDllPathFinderUpdateListData@@@std@@YA?AU_Nonscalar_ptr_iterator_tag@0@AAV?$_Vector_const_iterator@UCvDllPathFinderUpdateListData@@V?$allocator@UCvDllPathFinderUpdateListData@@@std@@@0@AAPAUCvDllPathFinderUpdateListData@@@Z PROC ; std::_Ptr_cat<std::_Vector_const_iterator<CvDllPathFinderUpdateListData,std::allocator<CvDllPathFinderUpdateListData> >,CvDllPathFinderUpdateListData *>, COMDAT

; 1509 : 	{

	push	ecx

; 1510 : 	typename _Ptr_cat_helper<_T1, _T2>::_Ptr_cat _Cat;
; 1511 : 	return (_Cat);

	mov	al, BYTE PTR __Cat$[esp+4]

; 1512 : 	}

	pop	ecx
	ret	0
??$_Ptr_cat@V?$_Vector_const_iterator@UCvDllPathFinderUpdateListData@@V?$allocator@UCvDllPathFinderUpdateListData@@@std@@@std@@PAUCvDllPathFinderUpdateListData@@@std@@YA?AU_Nonscalar_ptr_iterator_tag@0@AAV?$_Vector_const_iterator@UCvDllPathFinderUpdateListData@@V?$allocator@UCvDllPathFinderUpdateListData@@@std@@@0@AAPAUCvDllPathFinderUpdateListData@@@Z ENDP ; std::_Ptr_cat<std::_Vector_const_iterator<CvDllPathFinderUpdateListData,std::allocator<CvDllPathFinderUpdateListData> >,CvDllPathFinderUpdateListData *>
_TEXT	ENDS
PUBLIC	??D?$_Vector_const_iterator@UCvDllPathFinderUpdateListData@@V?$allocator@UCvDllPathFinderUpdateListData@@@std@@@std@@QBEABUCvDllPathFinderUpdateListData@@XZ ; std::_Vector_const_iterator<CvDllPathFinderUpdateListData,std::allocator<CvDllPathFinderUpdateListData> >::operator*
; Function compile flags: /Ogtpy
; File c:\program files (x86)\microsoft visual studio 9.0\vc\include\vector
;	COMDAT ??D?$_Vector_const_iterator@UCvDllPathFinderUpdateListData@@V?$allocator@UCvDllPathFinderUpdateListData@@@std@@@std@@QBEABUCvDllPathFinderUpdateListData@@XZ
_TEXT	SEGMENT
??D?$_Vector_const_iterator@UCvDllPathFinderUpdateListData@@V?$allocator@UCvDllPathFinderUpdateListData@@@std@@@std@@QBEABUCvDllPathFinderUpdateListData@@XZ PROC ; std::_Vector_const_iterator<CvDllPathFinderUpdateListData,std::allocator<CvDllPathFinderUpdateListData> >::operator*, COMDAT
; _this$ = ecx

; 92   : 
; 93   :  #if _HAS_ITERATOR_DEBUGGING
; 94   : 		if (this->_Mycont == 0
; 95   : 			|| _Myptr < ((_Myvec *)this->_Mycont)->_Myfirst
; 96   : 			|| ((_Myvec *)this->_Mycont)->_Mylast <= _Myptr)
; 97   : 			{
; 98   : 			_DEBUG_ERROR("vector iterator not dereferencable");
; 99   : 			_SCL_SECURE_OUT_OF_RANGE;
; 100  : 			}
; 101  :  #else
; 102  :  		_SCL_SECURE_VALIDATE(this->_Has_container());
; 103  : 		_SCL_SECURE_VALIDATE_RANGE(_Myptr < ((_Myvec *)(this->_Getmycont()))->_Mylast);
; 104  :  #endif /* _HAS_ITERATOR_DEBUGGING */
; 105  : 
; 106  : 		return (*_Myptr);

	mov	eax, DWORD PTR [ecx]

; 107  : 		}

	ret	0
??D?$_Vector_const_iterator@UCvDllPathFinderUpdateListData@@V?$allocator@UCvDllPathFinderUpdateListData@@@std@@@std@@QBEABUCvDllPathFinderUpdateListData@@XZ ENDP ; std::_Vector_const_iterator<CvDllPathFinderUpdateListData,std::allocator<CvDllPathFinderUpdateListData> >::operator*
_TEXT	ENDS
PUBLIC	??E?$_Vector_const_iterator@UCvDllPathFinderUpdateListData@@V?$allocator@UCvDllPathFinderUpdateListData@@@std@@@std@@QAEAAV01@XZ ; std::_Vector_const_iterator<CvDllPathFinderUpdateListData,std::allocator<CvDllPathFinderUpdateListData> >::operator++
; Function compile flags: /Ogtpy
;	COMDAT ??E?$_Vector_const_iterator@UCvDllPathFinderUpdateListData@@V?$allocator@UCvDllPathFinderUpdateListData@@@std@@@std@@QAEAAV01@XZ
_TEXT	SEGMENT
??E?$_Vector_const_iterator@UCvDllPathFinderUpdateListData@@V?$allocator@UCvDllPathFinderUpdateListData@@@std@@@std@@QAEAAV01@XZ PROC ; std::_Vector_const_iterator<CvDllPathFinderUpdateListData,std::allocator<CvDllPathFinderUpdateListData> >::operator++, COMDAT
; _this$ = ecx

; 115  : 		{	// preincrement

	mov	eax, ecx

; 116  : 		_SCL_SECURE_VALIDATE(this->_Has_container());
; 117  : 		_SCL_SECURE_VALIDATE_RANGE(_Myptr < ((_Myvec *)(this->_Getmycont()))->_Mylast);
; 118  : 
; 119  :  #if _HAS_ITERATOR_DEBUGGING
; 120  : 		if (this->_Mycont == 0
; 121  : 			|| ((_Myvec *)this->_Mycont)->_Mylast <= _Myptr)
; 122  : 			_DEBUG_ERROR("vector iterator not incrementable");
; 123  :  #endif /* _HAS_ITERATOR_DEBUGGING */
; 124  : 
; 125  : 		++_Myptr;

	add	DWORD PTR [eax], 12			; 0000000cH

; 126  : 		return (*this);
; 127  : 		}

	ret	0
??E?$_Vector_const_iterator@UCvDllPathFinderUpdateListData@@V?$allocator@UCvDllPathFinderUpdateListData@@@std@@@std@@QAEAAV01@XZ ENDP ; std::_Vector_const_iterator<CvDllPathFinderUpdateListData,std::allocator<CvDllPathFinderUpdateListData> >::operator++
_TEXT	ENDS
PUBLIC	??8?$_Vector_const_iterator@UCvDllPathFinderUpdateListData@@V?$allocator@UCvDllPathFinderUpdateListData@@@std@@@std@@QBE_NABV01@@Z ; std::_Vector_const_iterator<CvDllPathFinderUpdateListData,std::allocator<CvDllPathFinderUpdateListData> >::operator==
; Function compile flags: /Ogtpy
;	COMDAT ??8?$_Vector_const_iterator@UCvDllPathFinderUpdateListData@@V?$allocator@UCvDllPathFinderUpdateListData@@@std@@@std@@QBE_NABV01@@Z
_TEXT	SEGMENT
__Right$ = 8						; size = 4
??8?$_Vector_const_iterator@UCvDllPathFinderUpdateListData@@V?$allocator@UCvDllPathFinderUpdateListData@@@std@@@std@@QBE_NABV01@@Z PROC ; std::_Vector_const_iterator<CvDllPathFinderUpdateListData,std::allocator<CvDllPathFinderUpdateListData> >::operator==, COMDAT
; _this$ = ecx

; 204  : 
; 205  :  #if _HAS_ITERATOR_DEBUGGING
; 206  : 		_Compat(_Right);
; 207  :  #else
; 208  : 		_SCL_SECURE_VALIDATE(this->_Has_container() && this->_Same_container(_Right));
; 209  :  #endif /* _HAS_ITERATOR_DEBUGGING */
; 210  : 
; 211  : 		return (_Myptr == _Right._Myptr);

	mov	eax, DWORD PTR [ecx]
	mov	edx, DWORD PTR __Right$[esp-4]
	xor	ecx, ecx
	cmp	eax, DWORD PTR [edx]
	sete	cl
	mov	al, cl

; 212  : 		}

	ret	4
??8?$_Vector_const_iterator@UCvDllPathFinderUpdateListData@@V?$allocator@UCvDllPathFinderUpdateListData@@@std@@@std@@QBE_NABV01@@Z ENDP ; std::_Vector_const_iterator<CvDllPathFinderUpdateListData,std::allocator<CvDllPathFinderUpdateListData> >::operator==
_TEXT	ENDS
PUBLIC	??_7bad_alloc@std@@6B@				; std::bad_alloc::`vftable'
PUBLIC	??0bad_alloc@std@@QAE@PBD@Z			; std::bad_alloc::bad_alloc
PUBLIC	??_R4bad_alloc@std@@6B@				; std::bad_alloc::`RTTI Complete Object Locator'
PUBLIC	??_R0?AVbad_alloc@std@@@8			; std::bad_alloc `RTTI Type Descriptor'
PUBLIC	??_R3bad_alloc@std@@8				; std::bad_alloc::`RTTI Class Hierarchy Descriptor'
PUBLIC	??_R2bad_alloc@std@@8				; std::bad_alloc::`RTTI Base Class Array'
PUBLIC	??_R1A@?0A@EA@bad_alloc@std@@8			; std::bad_alloc::`RTTI Base Class Descriptor at (0,-1,0,64)'
PUBLIC	??_R1A@?0A@EA@exception@std@@8			; std::exception::`RTTI Base Class Descriptor at (0,-1,0,64)'
PUBLIC	??_R0?AVexception@std@@@8			; std::exception `RTTI Type Descriptor'
PUBLIC	??_R3exception@std@@8				; std::exception::`RTTI Class Hierarchy Descriptor'
PUBLIC	??_R2exception@std@@8				; std::exception::`RTTI Base Class Array'
EXTRN	__imp_??0exception@std@@QAE@ABQBD@Z:PROC
EXTRN	??_Ebad_alloc@std@@UAEPAXI@Z:PROC		; std::bad_alloc::`vector deleting destructor'
EXTRN	?what@exception@std@@UBEPBDXZ:PROC		; std::exception::what
;	COMDAT ??_R2exception@std@@8
; File c:\program files (x86)\microsoft visual studio 9.0\vc\include\exception
rdata$r	SEGMENT
??_R2exception@std@@8 DD FLAT:??_R1A@?0A@EA@exception@std@@8 ; std::exception::`RTTI Base Class Array'
rdata$r	ENDS
;	COMDAT ??_R3exception@std@@8
rdata$r	SEGMENT
??_R3exception@std@@8 DD 00H				; std::exception::`RTTI Class Hierarchy Descriptor'
	DD	00H
	DD	01H
	DD	FLAT:??_R2exception@std@@8
rdata$r	ENDS
;	COMDAT ??_R0?AVexception@std@@@8
_DATA	SEGMENT
??_R0?AVexception@std@@@8 DD FLAT:??_7type_info@@6B@	; std::exception `RTTI Type Descriptor'
	DD	00H
	DB	'.?AVexception@std@@', 00H
_DATA	ENDS
;	COMDAT ??_R1A@?0A@EA@exception@std@@8
rdata$r	SEGMENT
??_R1A@?0A@EA@exception@std@@8 DD FLAT:??_R0?AVexception@std@@@8 ; std::exception::`RTTI Base Class Descriptor at (0,-1,0,64)'
	DD	00H
	DD	00H
	DD	0ffffffffH
	DD	00H
	DD	040H
	DD	FLAT:??_R3exception@std@@8
rdata$r	ENDS
;	COMDAT ??_R1A@?0A@EA@bad_alloc@std@@8
rdata$r	SEGMENT
??_R1A@?0A@EA@bad_alloc@std@@8 DD FLAT:??_R0?AVbad_alloc@std@@@8 ; std::bad_alloc::`RTTI Base Class Descriptor at (0,-1,0,64)'
	DD	01H
	DD	00H
	DD	0ffffffffH
	DD	00H
	DD	040H
	DD	FLAT:??_R3bad_alloc@std@@8
rdata$r	ENDS
;	COMDAT ??_R2bad_alloc@std@@8
rdata$r	SEGMENT
??_R2bad_alloc@std@@8 DD FLAT:??_R1A@?0A@EA@bad_alloc@std@@8 ; std::bad_alloc::`RTTI Base Class Array'
	DD	FLAT:??_R1A@?0A@EA@exception@std@@8
rdata$r	ENDS
;	COMDAT ??_R3bad_alloc@std@@8
rdata$r	SEGMENT
??_R3bad_alloc@std@@8 DD 00H				; std::bad_alloc::`RTTI Class Hierarchy Descriptor'
	DD	00H
	DD	02H
	DD	FLAT:??_R2bad_alloc@std@@8
rdata$r	ENDS
;	COMDAT ??_R0?AVbad_alloc@std@@@8
_DATA	SEGMENT
??_R0?AVbad_alloc@std@@@8 DD FLAT:??_7type_info@@6B@	; std::bad_alloc `RTTI Type Descriptor'
	DD	00H
	DB	'.?AVbad_alloc@std@@', 00H
_DATA	ENDS
;	COMDAT ??_R4bad_alloc@std@@6B@
rdata$r	SEGMENT
??_R4bad_alloc@std@@6B@ DD 00H				; std::bad_alloc::`RTTI Complete Object Locator'
	DD	00H
	DD	00H
	DD	FLAT:??_R0?AVbad_alloc@std@@@8
	DD	FLAT:??_R3bad_alloc@std@@8
rdata$r	ENDS
;	COMDAT ??_7bad_alloc@std@@6B@
CONST	SEGMENT
??_7bad_alloc@std@@6B@ DD FLAT:??_R4bad_alloc@std@@6B@	; std::bad_alloc::`vftable'
	DD	FLAT:??_Ebad_alloc@std@@UAEPAXI@Z
	DD	FLAT:?what@exception@std@@UBEPBDXZ
; Function compile flags: /Ogtpy
CONST	ENDS
;	COMDAT ??0bad_alloc@std@@QAE@PBD@Z
_TEXT	SEGMENT
__Message$ = 8						; size = 4
??0bad_alloc@std@@QAE@PBD@Z PROC			; std::bad_alloc::bad_alloc, COMDAT
; _this$ = ecx

; 371  : 		{	// construct from message string

	push	esi
	lea	eax, DWORD PTR __Message$[esp]
	push	eax
	mov	esi, ecx
	call	DWORD PTR __imp_??0exception@std@@QAE@ABQBD@Z
	mov	DWORD PTR [esi], OFFSET ??_7bad_alloc@std@@6B@

; 372  : 		}

	mov	eax, esi
	pop	esi
	ret	4
??0bad_alloc@std@@QAE@PBD@Z ENDP			; std::bad_alloc::bad_alloc
_TEXT	ENDS
PUBLIC	??1bad_alloc@std@@UAE@XZ			; std::bad_alloc::~bad_alloc
EXTRN	__imp_??1exception@std@@UAE@XZ:PROC
; Function compile flags: /Ogtpy
;	COMDAT ??1bad_alloc@std@@UAE@XZ
_TEXT	SEGMENT
??1bad_alloc@std@@UAE@XZ PROC				; std::bad_alloc::~bad_alloc, COMDAT
; _this$ = ecx

; 380  : 		{	// destroy the object

	mov	DWORD PTR [ecx], OFFSET ??_7bad_alloc@std@@6B@

; 381  : 		}

	jmp	DWORD PTR __imp_??1exception@std@@UAE@XZ
??1bad_alloc@std@@UAE@XZ ENDP				; std::bad_alloc::~bad_alloc
; Function compile flags: /Ogtpy
_TEXT	ENDS
;	COMDAT ??_Gbad_alloc@std@@UAEPAXI@Z
_TEXT	SEGMENT
___flags$ = 8						; size = 4
??_Gbad_alloc@std@@UAEPAXI@Z PROC			; std::bad_alloc::`scalar deleting destructor', COMDAT
; _this$ = ecx
	push	esi
	mov	esi, ecx
	mov	DWORD PTR [esi], OFFSET ??_7bad_alloc@std@@6B@
	call	DWORD PTR __imp_??1exception@std@@UAE@XZ
	test	BYTE PTR ___flags$[esp], 1
	je	SHORT $LN6@scalar
	push	esi
	call	??3@YAXPAX@Z				; operator delete
	add	esp, 4
$LN6@scalar:
	mov	eax, esi
	pop	esi
	ret	4
??_Gbad_alloc@std@@UAEPAXI@Z ENDP			; std::bad_alloc::`scalar deleting destructor'
_TEXT	ENDS
PUBLIC	??2@YAPAXIPAX@Z					; operator new
; Function compile flags: /Ogtpy
; File c:\program files (x86)\microsoft visual studio 9.0\vc\include\new
;	COMDAT ??2@YAPAXIPAX@Z
_TEXT	SEGMENT
___formal$ = 8						; size = 4
__Where$ = 12						; size = 4
??2@YAPAXIPAX@Z PROC					; operator new, COMDAT

; 59   : 	return (_Where);

	mov	eax, DWORD PTR __Where$[esp-4]

; 60   : 	}

	ret	0
??2@YAPAXIPAX@Z ENDP					; operator new
_TEXT	ENDS
PUBLIC	??_7logic_error@std@@6B@			; std::logic_error::`vftable'
PUBLIC	??0logic_error@std@@QAE@ABV?$basic_string@DU?$char_traits@D@std@@V?$allocator@D@2@@1@@Z ; std::logic_error::logic_error
PUBLIC	??_R4logic_error@std@@6B@			; std::logic_error::`RTTI Complete Object Locator'
PUBLIC	??_R0?AVlogic_error@std@@@8			; std::logic_error `RTTI Type Descriptor'
PUBLIC	??_R3logic_error@std@@8				; std::logic_error::`RTTI Class Hierarchy Descriptor'
PUBLIC	??_R2logic_error@std@@8				; std::logic_error::`RTTI Base Class Array'
PUBLIC	??_R1A@?0A@EA@logic_error@std@@8		; std::logic_error::`RTTI Base Class Descriptor at (0,-1,0,64)'
PUBLIC	?what@logic_error@std@@UBEPBDXZ			; std::logic_error::what
EXTRN	__imp_??0?$basic_string@DU?$char_traits@D@std@@V?$allocator@D@2@@std@@QAE@ABV01@@Z:PROC
EXTRN	__imp_??0exception@std@@QAE@XZ:PROC
EXTRN	___CxxFrameHandler3:PROC
EXTRN	??_Elogic_error@std@@UAEPAXI@Z:PROC		; std::logic_error::`vector deleting destructor'
;	COMDAT ??_R1A@?0A@EA@logic_error@std@@8
; File c:\program files (x86)\microsoft visual studio 9.0\vc\include\stdexcept
rdata$r	SEGMENT
??_R1A@?0A@EA@logic_error@std@@8 DD FLAT:??_R0?AVlogic_error@std@@@8 ; std::logic_error::`RTTI Base Class Descriptor at (0,-1,0,64)'
	DD	01H
	DD	00H
	DD	0ffffffffH
	DD	00H
	DD	040H
	DD	FLAT:??_R3logic_error@std@@8
rdata$r	ENDS
;	COMDAT ??_R2logic_error@std@@8
rdata$r	SEGMENT
??_R2logic_error@std@@8 DD FLAT:??_R1A@?0A@EA@logic_error@std@@8 ; std::logic_error::`RTTI Base Class Array'
	DD	FLAT:??_R1A@?0A@EA@exception@std@@8
rdata$r	ENDS
;	COMDAT ??_R3logic_error@std@@8
rdata$r	SEGMENT
??_R3logic_error@std@@8 DD 00H				; std::logic_error::`RTTI Class Hierarchy Descriptor'
	DD	00H
	DD	02H
	DD	FLAT:??_R2logic_error@std@@8
rdata$r	ENDS
;	COMDAT ??_R0?AVlogic_error@std@@@8
_DATA	SEGMENT
??_R0?AVlogic_error@std@@@8 DD FLAT:??_7type_info@@6B@	; std::logic_error `RTTI Type Descriptor'
	DD	00H
	DB	'.?AVlogic_error@std@@', 00H
_DATA	ENDS
;	COMDAT ??_R4logic_error@std@@6B@
rdata$r	SEGMENT
??_R4logic_error@std@@6B@ DD 00H			; std::logic_error::`RTTI Complete Object Locator'
	DD	00H
	DD	00H
	DD	FLAT:??_R0?AVlogic_error@std@@@8
	DD	FLAT:??_R3logic_error@std@@8
rdata$r	ENDS
;	COMDAT ??_7logic_error@std@@6B@
CONST	SEGMENT
??_7logic_error@std@@6B@ DD FLAT:??_R4logic_error@std@@6B@ ; std::logic_error::`vftable'
	DD	FLAT:??_Elogic_error@std@@UAEPAXI@Z
	DD	FLAT:?what@logic_error@std@@UBEPBDXZ
CONST	ENDS
;	COMDAT xdata$x
xdata$x	SEGMENT
__unwindtable$??0logic_error@std@@QAE@ABV?$basic_string@DU?$char_traits@D@std@@V?$allocator@D@2@@1@@Z DD 0ffffffffH
	DD	FLAT:__unwindfunclet$??0logic_error@std@@QAE@ABV?$basic_string@DU?$char_traits@D@std@@V?$allocator@D@2@@1@@Z$0
__ehfuncinfo$??0logic_error@std@@QAE@ABV?$basic_string@DU?$char_traits@D@std@@V?$allocator@D@2@@1@@Z DD 019930522H
	DD	01H
	DD	FLAT:__unwindtable$??0logic_error@std@@QAE@ABV?$basic_string@DU?$char_traits@D@std@@V?$allocator@D@2@@1@@Z
	DD	2 DUP(00H)
	DD	2 DUP(00H)
	DD	00H
	DD	01H
; Function compile flags: /Ogtpy
xdata$x	ENDS
;	COMDAT ??0logic_error@std@@QAE@ABV?$basic_string@DU?$char_traits@D@std@@V?$allocator@D@2@@1@@Z
_TEXT	SEGMENT
_this$ = -16						; size = 4
__$EHRec$ = -12						; size = 12
__Message$ = 8						; size = 4
??0logic_error@std@@QAE@ABV?$basic_string@DU?$char_traits@D@std@@V?$allocator@D@2@@1@@Z PROC ; std::logic_error::logic_error, COMDAT
; _this$ = ecx

; 26   : 		{	// construct from message string

	push	-1
	push	__ehhandler$??0logic_error@std@@QAE@ABV?$basic_string@DU?$char_traits@D@std@@V?$allocator@D@2@@1@@Z
	mov	eax, DWORD PTR fs:0
	push	eax
	mov	DWORD PTR fs:0, esp
	push	ecx
	push	esi
	mov	esi, ecx
	mov	DWORD PTR _this$[esp+20], esi
	call	DWORD PTR __imp_??0exception@std@@QAE@XZ
	mov	eax, DWORD PTR __Message$[esp+16]
	push	eax
	lea	ecx, DWORD PTR [esi+12]
	mov	DWORD PTR __$EHRec$[esp+32], 0
	mov	DWORD PTR [esi], OFFSET ??_7logic_error@std@@6B@
	call	DWORD PTR __imp_??0?$basic_string@DU?$char_traits@D@std@@V?$allocator@D@2@@std@@QAE@ABV01@@Z

; 27   : 		}

	mov	ecx, DWORD PTR __$EHRec$[esp+20]
	mov	eax, esi
	pop	esi
	mov	DWORD PTR fs:0, ecx
	add	esp, 16					; 00000010H
	ret	4
_TEXT	ENDS
;	COMDAT text$x
text$x	SEGMENT
__unwindfunclet$??0logic_error@std@@QAE@ABV?$basic_string@DU?$char_traits@D@std@@V?$allocator@D@2@@1@@Z$0:
	mov	ecx, DWORD PTR _this$[ebp]
	jmp	DWORD PTR __imp_??1exception@std@@UAE@XZ
__ehhandler$??0logic_error@std@@QAE@ABV?$basic_string@DU?$char_traits@D@std@@V?$allocator@D@2@@1@@Z:
	mov	eax, OFFSET __ehfuncinfo$??0logic_error@std@@QAE@ABV?$basic_string@DU?$char_traits@D@std@@V?$allocator@D@2@@1@@Z
	jmp	___CxxFrameHandler3
text$x	ENDS
??0logic_error@std@@QAE@ABV?$basic_string@DU?$char_traits@D@std@@V?$allocator@D@2@@1@@Z ENDP ; std::logic_error::logic_error
PUBLIC	??1logic_error@std@@UAE@XZ			; std::logic_error::~logic_error
EXTRN	__imp_??1?$basic_string@DU?$char_traits@D@std@@V?$allocator@D@2@@std@@QAE@XZ:PROC
; Function compile flags: /Ogtpy
;	COMDAT ??1logic_error@std@@UAE@XZ
_TEXT	SEGMENT
??1logic_error@std@@UAE@XZ PROC				; std::logic_error::~logic_error, COMDAT
; _this$ = ecx

; 30   : 		{	// destroy the object

	push	esi
	mov	esi, ecx

; 31   : 		}

	lea	ecx, DWORD PTR [esi+12]
	mov	DWORD PTR [esi], OFFSET ??_7logic_error@std@@6B@
	call	DWORD PTR __imp_??1?$basic_string@DU?$char_traits@D@std@@V?$allocator@D@2@@std@@QAE@XZ
	mov	ecx, esi
	pop	esi
	jmp	DWORD PTR __imp_??1exception@std@@UAE@XZ
??1logic_error@std@@UAE@XZ ENDP				; std::logic_error::~logic_error
_TEXT	ENDS
EXTRN	__imp_?c_str@?$basic_string@DU?$char_traits@D@std@@V?$allocator@D@2@@std@@QBEPBDXZ:PROC
; Function compile flags: /Ogtpy
;	COMDAT ?what@logic_error@std@@UBEPBDXZ
_TEXT	SEGMENT
?what@logic_error@std@@UBEPBDXZ PROC			; std::logic_error::what, COMDAT
; _this$ = ecx

; 35   : 		return (_Str.c_str());

	add	ecx, 12					; 0000000cH
	jmp	DWORD PTR __imp_?c_str@?$basic_string@DU?$char_traits@D@std@@V?$allocator@D@2@@std@@QBEPBDXZ
?what@logic_error@std@@UBEPBDXZ ENDP			; std::logic_error::what
; Function compile flags: /Ogtpy
_TEXT	ENDS
;	COMDAT ??_Glogic_error@std@@UAEPAXI@Z
_TEXT	SEGMENT
___flags$ = 8						; size = 4
??_Glogic_error@std@@UAEPAXI@Z PROC			; std::logic_error::`scalar deleting destructor', COMDAT
; _this$ = ecx
	push	esi
	mov	esi, ecx
	lea	ecx, DWORD PTR [esi+12]
	mov	DWORD PTR [esi], OFFSET ??_7logic_error@std@@6B@
	call	DWORD PTR __imp_??1?$basic_string@DU?$char_traits@D@std@@V?$allocator@D@2@@std@@QAE@XZ
	mov	ecx, esi
	call	DWORD PTR __imp_??1exception@std@@UAE@XZ
	test	BYTE PTR ___flags$[esp], 1
	je	SHORT $LN6@scalar@2
	push	esi
	call	??3@YAXPAX@Z				; operator delete
	add	esp, 4
$LN6@scalar@2:
	mov	eax, esi
	pop	esi
	ret	4
??_Glogic_error@std@@UAEPAXI@Z ENDP			; std::logic_error::`scalar deleting destructor'
_TEXT	ENDS
PUBLIC	??_7length_error@std@@6B@			; std::length_error::`vftable'
PUBLIC	??0length_error@std@@QAE@ABV?$basic_string@DU?$char_traits@D@std@@V?$allocator@D@2@@1@@Z ; std::length_error::length_error
PUBLIC	??_R4length_error@std@@6B@			; std::length_error::`RTTI Complete Object Locator'
PUBLIC	??_R0?AVlength_error@std@@@8			; std::length_error `RTTI Type Descriptor'
PUBLIC	??_R3length_error@std@@8			; std::length_error::`RTTI Class Hierarchy Descriptor'
PUBLIC	??_R2length_error@std@@8			; std::length_error::`RTTI Base Class Array'
PUBLIC	??_R1A@?0A@EA@length_error@std@@8		; std::length_error::`RTTI Base Class Descriptor at (0,-1,0,64)'
EXTRN	??_Elength_error@std@@UAEPAXI@Z:PROC		; std::length_error::`vector deleting destructor'
;	COMDAT ??_R1A@?0A@EA@length_error@std@@8
rdata$r	SEGMENT
??_R1A@?0A@EA@length_error@std@@8 DD FLAT:??_R0?AVlength_error@std@@@8 ; std::length_error::`RTTI Base Class Descriptor at (0,-1,0,64)'
	DD	02H
	DD	00H
	DD	0ffffffffH
	DD	00H
	DD	040H
	DD	FLAT:??_R3length_error@std@@8
rdata$r	ENDS
;	COMDAT ??_R2length_error@std@@8
rdata$r	SEGMENT
??_R2length_error@std@@8 DD FLAT:??_R1A@?0A@EA@length_error@std@@8 ; std::length_error::`RTTI Base Class Array'
	DD	FLAT:??_R1A@?0A@EA@logic_error@std@@8
	DD	FLAT:??_R1A@?0A@EA@exception@std@@8
rdata$r	ENDS
;	COMDAT ??_R3length_error@std@@8
rdata$r	SEGMENT
??_R3length_error@std@@8 DD 00H				; std::length_error::`RTTI Class Hierarchy Descriptor'
	DD	00H
	DD	03H
	DD	FLAT:??_R2length_error@std@@8
rdata$r	ENDS
;	COMDAT ??_R0?AVlength_error@std@@@8
_DATA	SEGMENT
??_R0?AVlength_error@std@@@8 DD FLAT:??_7type_info@@6B@	; std::length_error `RTTI Type Descriptor'
	DD	00H
	DB	'.?AVlength_error@std@@', 00H
_DATA	ENDS
;	COMDAT ??_R4length_error@std@@6B@
rdata$r	SEGMENT
??_R4length_error@std@@6B@ DD 00H			; std::length_error::`RTTI Complete Object Locator'
	DD	00H
	DD	00H
	DD	FLAT:??_R0?AVlength_error@std@@@8
	DD	FLAT:??_R3length_error@std@@8
rdata$r	ENDS
;	COMDAT ??_7length_error@std@@6B@
CONST	SEGMENT
??_7length_error@std@@6B@ DD FLAT:??_R4length_error@std@@6B@ ; std::length_error::`vftable'
	DD	FLAT:??_Elength_error@std@@UAEPAXI@Z
	DD	FLAT:?what@logic_error@std@@UBEPBDXZ
; Function compile flags: /Ogtpy
CONST	ENDS
;	COMDAT ??0length_error@std@@QAE@ABV?$basic_string@DU?$char_traits@D@std@@V?$allocator@D@2@@1@@Z
_TEXT	SEGMENT
__Message$ = 8						; size = 4
??0length_error@std@@QAE@ABV?$basic_string@DU?$char_traits@D@std@@V?$allocator@D@2@@1@@Z PROC ; std::length_error::length_error, COMDAT
; _this$ = ecx

; 105  : 		{	// construct from message string

	mov	eax, DWORD PTR __Message$[esp-4]
	push	esi
	push	eax
	mov	esi, ecx
	call	??0logic_error@std@@QAE@ABV?$basic_string@DU?$char_traits@D@std@@V?$allocator@D@2@@1@@Z ; std::logic_error::logic_error
	mov	DWORD PTR [esi], OFFSET ??_7length_error@std@@6B@

; 106  : 		}

	mov	eax, esi
	pop	esi
	ret	4
??0length_error@std@@QAE@ABV?$basic_string@DU?$char_traits@D@std@@V?$allocator@D@2@@1@@Z ENDP ; std::length_error::length_error
_TEXT	ENDS
PUBLIC	??1length_error@std@@UAE@XZ			; std::length_error::~length_error
; Function compile flags: /Ogtpy
;	COMDAT ??1length_error@std@@UAE@XZ
_TEXT	SEGMENT
??1length_error@std@@UAE@XZ PROC			; std::length_error::~length_error, COMDAT
; _this$ = ecx

; 109  : 		{	// destroy the object

	push	esi
	mov	esi, ecx

; 110  : 		}

	lea	ecx, DWORD PTR [esi+12]
	mov	DWORD PTR [esi], OFFSET ??_7logic_error@std@@6B@
	call	DWORD PTR __imp_??1?$basic_string@DU?$char_traits@D@std@@V?$allocator@D@2@@std@@QAE@XZ
	mov	ecx, esi
	pop	esi
	jmp	DWORD PTR __imp_??1exception@std@@UAE@XZ
??1length_error@std@@UAE@XZ ENDP			; std::length_error::~length_error
; Function compile flags: /Ogtpy
_TEXT	ENDS
;	COMDAT ??_Glength_error@std@@UAEPAXI@Z
_TEXT	SEGMENT
___flags$ = 8						; size = 4
??_Glength_error@std@@UAEPAXI@Z PROC			; std::length_error::`scalar deleting destructor', COMDAT
; _this$ = ecx
	push	esi
	mov	esi, ecx
	lea	ecx, DWORD PTR [esi+12]
	mov	DWORD PTR [esi], OFFSET ??_7logic_error@std@@6B@
	call	DWORD PTR __imp_??1?$basic_string@DU?$char_traits@D@std@@V?$allocator@D@2@@std@@QAE@XZ
	mov	ecx, esi
	call	DWORD PTR __imp_??1exception@std@@UAE@XZ
	test	BYTE PTR ___flags$[esp], 1
	je	SHORT $LN8@scalar@3
	push	esi
	call	??3@YAXPAX@Z				; operator delete
	add	esp, 4
$LN8@scalar@3:
	mov	eax, esi
	pop	esi
	ret	4
??_Glength_error@std@@UAEPAXI@Z ENDP			; std::length_error::`scalar deleting destructor'
_TEXT	ENDS
PUBLIC	?GetInterfaceId@ICvUnknown@@SG?AU_GUID@@XZ	; ICvUnknown::GetInterfaceId
; Function compile flags: /Ogtpy
; File c:\users\enormousapplepie\desktop\lekmod files\lekmod dll versions\v29\lekmod_dll\cvgamecoredllutil\include\cvdllinterfaces.h
;	COMDAT ?GetInterfaceId@ICvUnknown@@SG?AU_GUID@@XZ
_TEXT	SEGMENT
$T220007 = 8						; size = 4
?GetInterfaceId@ICvUnknown@@SG?AU_GUID@@XZ PROC		; ICvUnknown::GetInterfaceId, COMDAT

; 306  : 	static GUID DLLCALL GetInterfaceId(){ return guidICvUnknown; }

	mov	eax, DWORD PTR $T220007[esp-4]
	mov	ecx, DWORD PTR _guidICvUnknown
	mov	edx, DWORD PTR _guidICvUnknown+4
	mov	DWORD PTR [eax], ecx
	mov	ecx, DWORD PTR _guidICvUnknown+8
	mov	DWORD PTR [eax+4], edx
	mov	edx, DWORD PTR _guidICvUnknown+12
	mov	DWORD PTR [eax+8], ecx
	mov	DWORD PTR [eax+12], edx
	ret	4
?GetInterfaceId@ICvUnknown@@SG?AU_GUID@@XZ ENDP		; ICvUnknown::GetInterfaceId
_TEXT	ENDS
PUBLIC	?GetInterfaceId@ICvEnumerator@@SG?AU_GUID@@XZ	; ICvEnumerator::GetInterfaceId
; Function compile flags: /Ogtpy
;	COMDAT ?GetInterfaceId@ICvEnumerator@@SG?AU_GUID@@XZ
_TEXT	SEGMENT
$T220011 = 8						; size = 4
?GetInterfaceId@ICvEnumerator@@SG?AU_GUID@@XZ PROC	; ICvEnumerator::GetInterfaceId, COMDAT

; 332  : 	static GUID DLLCALL GetInterfaceId(){ return guidICvEnumerator; }

	mov	eax, DWORD PTR $T220011[esp-4]
	mov	ecx, DWORD PTR _guidICvEnumerator
	mov	edx, DWORD PTR _guidICvEnumerator+4
	mov	DWORD PTR [eax], ecx
	mov	ecx, DWORD PTR _guidICvEnumerator+8
	mov	DWORD PTR [eax+4], edx
	mov	edx, DWORD PTR _guidICvEnumerator+12
	mov	DWORD PTR [eax+8], ecx
	mov	DWORD PTR [eax+12], edx
	ret	4
?GetInterfaceId@ICvEnumerator@@SG?AU_GUID@@XZ ENDP	; ICvEnumerator::GetInterfaceId
_TEXT	ENDS
PUBLIC	?GetInterfaceId@ICvPathFinderUpdate1@@SG?AU_GUID@@XZ ; ICvPathFinderUpdate1::GetInterfaceId
; Function compile flags: /Ogtpy
;	COMDAT ?GetInterfaceId@ICvPathFinderUpdate1@@SG?AU_GUID@@XZ
_TEXT	SEGMENT
$T220015 = 8						; size = 4
?GetInterfaceId@ICvPathFinderUpdate1@@SG?AU_GUID@@XZ PROC ; ICvPathFinderUpdate1::GetInterfaceId, COMDAT

; 1259 : 	static GUID DLLCALL GetInterfaceId() { return guidICvPathFinderUpdate1; }

	mov	eax, DWORD PTR $T220015[esp-4]
	mov	ecx, DWORD PTR _guidICvPathFinderUpdate1
	mov	edx, DWORD PTR _guidICvPathFinderUpdate1+4
	mov	DWORD PTR [eax], ecx
	mov	ecx, DWORD PTR _guidICvPathFinderUpdate1+8
	mov	DWORD PTR [eax+4], edx
	mov	edx, DWORD PTR _guidICvPathFinderUpdate1+12
	mov	DWORD PTR [eax+8], ecx
	mov	DWORD PTR [eax+12], edx
	ret	4
?GetInterfaceId@ICvPathFinderUpdate1@@SG?AU_GUID@@XZ ENDP ; ICvPathFinderUpdate1::GetInterfaceId
_TEXT	ENDS
PUBLIC	??_7ICvPathFinderUpdate1@@6B@			; ICvPathFinderUpdate1::`vftable'
PUBLIC	??0ICvPathFinderUpdate1@@QAE@XZ			; ICvPathFinderUpdate1::ICvPathFinderUpdate1
PUBLIC	??_R4ICvPathFinderUpdate1@@6B@			; ICvPathFinderUpdate1::`RTTI Complete Object Locator'
;	COMDAT ??_R4ICvPathFinderUpdate1@@6B@
rdata$r	SEGMENT
??_R4ICvPathFinderUpdate1@@6B@ DD 00H			; ICvPathFinderUpdate1::`RTTI Complete Object Locator'
	DD	00H
	DD	00H
	DD	FLAT:??_R0?AVICvPathFinderUpdate1@@@8
	DD	FLAT:??_R3ICvPathFinderUpdate1@@8
rdata$r	ENDS
;	COMDAT ??_7ICvPathFinderUpdate1@@6B@
CONST	SEGMENT
??_7ICvPathFinderUpdate1@@6B@ DD FLAT:??_R4ICvPathFinderUpdate1@@6B@ ; ICvPathFinderUpdate1::`vftable'
	DD	FLAT:__purecall
	DD	FLAT:__purecall
	DD	FLAT:__purecall
	DD	FLAT:__purecall
	DD	FLAT:__purecall
; Function compile flags: /Ogtpy
CONST	ENDS
;	COMDAT ??0ICvPathFinderUpdate1@@QAE@XZ
_TEXT	SEGMENT
??0ICvPathFinderUpdate1@@QAE@XZ PROC			; ICvPathFinderUpdate1::ICvPathFinderUpdate1, COMDAT
; _this$ = ecx
	mov	eax, ecx
	mov	DWORD PTR [eax], OFFSET ??_7ICvPathFinderUpdate1@@6B@
	ret	0
??0ICvPathFinderUpdate1@@QAE@XZ ENDP			; ICvPathFinderUpdate1::ICvPathFinderUpdate1
; Function compile flags: /Ogtpy
; File c:\users\enormousapplepie\desktop\lekmod files\lekmod dll versions\v29\lekmod_dll\cvgamecoredll_expansion2\cvdllpathfinderupdate.cpp
_TEXT	ENDS
;	COMDAT ?QueryInterface@CvDllPathFinderUpdate@@UAGPAXU_GUID@@@Z
_TEXT	SEGMENT
$T220027 = -16						; size = 16
$T220025 = -16						; size = 16
_this$ = 8						; size = 4
_guidInterface$ = 12					; size = 16
?QueryInterface@CvDllPathFinderUpdate@@UAGPAXU_GUID@@@Z PROC ; CvDllPathFinderUpdate::QueryInterface, COMDAT

; 26   : {

	sub	esp, 16					; 00000010H

; 27   : 	if(guidInterface == ICvUnknown::GetInterfaceId() ||
; 28   : 	        guidInterface == ICvPathFinderUpdate1::GetInterfaceId())

	mov	ecx, DWORD PTR _guidICvUnknown+4
	mov	edx, DWORD PTR _guidICvUnknown+8
	mov	eax, DWORD PTR _guidICvUnknown
	mov	DWORD PTR $T220025[esp+20], ecx
	lea	ecx, DWORD PTR $T220025[esp+16]
	mov	DWORD PTR $T220025[esp+24], edx
	mov	DWORD PTR $T220025[esp+16], eax
	mov	eax, DWORD PTR _guidICvUnknown+12
	push	ecx
	lea	edx, DWORD PTR _guidInterface$[esp+16]
	push	edx
	mov	DWORD PTR $T220025[esp+36], eax
	call	_IsEqualGUID
	add	esp, 8
	test	eax, eax
	jne	SHORT $LN1@QueryInter
	mov	ecx, DWORD PTR _guidICvPathFinderUpdate1+4
	mov	edx, DWORD PTR _guidICvPathFinderUpdate1+8
	mov	eax, DWORD PTR _guidICvPathFinderUpdate1
	mov	DWORD PTR $T220027[esp+20], ecx
	lea	ecx, DWORD PTR $T220027[esp+16]
	mov	DWORD PTR $T220027[esp+24], edx
	mov	DWORD PTR $T220027[esp+16], eax
	mov	eax, DWORD PTR _guidICvPathFinderUpdate1+12
	push	ecx
	lea	edx, DWORD PTR _guidInterface$[esp+16]
	push	edx
	mov	DWORD PTR $T220027[esp+36], eax
	call	_IsEqualGUID
	add	esp, 8
	test	eax, eax
	jne	SHORT $LN1@QueryInter

; 31   : 		return this;
; 32   : 	}
; 33   : 
; 34   : 	return NULL;
; 35   : }

	add	esp, 16					; 00000010H
	ret	20					; 00000014H
$LN1@QueryInter:

; 29   : 	{
; 30   : 		IncrementReference();

	mov	eax, DWORD PTR _this$[esp+12]
	inc	DWORD PTR [eax+4]

; 31   : 		return this;
; 32   : 	}
; 33   : 
; 34   : 	return NULL;
; 35   : }

	add	esp, 16					; 00000010H
	ret	20					; 00000014H
?QueryInterface@CvDllPathFinderUpdate@@UAGPAXU_GUID@@@Z ENDP ; CvDllPathFinderUpdate::QueryInterface
_TEXT	ENDS
PUBLIC	??_GCvDllPathFinderUpdate@@QAEPAXI@Z		; CvDllPathFinderUpdate::`scalar deleting destructor'
; Function compile flags: /Ogtpy
;	COMDAT ??_GCvDllPathFinderUpdate@@QAEPAXI@Z
_TEXT	SEGMENT
___flags$ = 8						; size = 4
??_GCvDllPathFinderUpdate@@QAEPAXI@Z PROC		; CvDllPathFinderUpdate::`scalar deleting destructor', COMDAT
; _this$ = ecx
	test	BYTE PTR ___flags$[esp-4], 1
	push	esi
	mov	esi, ecx
	mov	DWORD PTR [esi], OFFSET ??_7CvDllPathFinderUpdate@@6B@
	je	SHORT $LN8@scalar@4
	push	esi
	call	?Free@CvDllGameContext@@SAXPAX@Z	; CvDllGameContext::Free
	add	esp, 4
$LN8@scalar@4:
	mov	eax, esi
	pop	esi
	ret	4
??_GCvDllPathFinderUpdate@@QAEPAXI@Z ENDP		; CvDllPathFinderUpdate::`scalar deleting destructor'
_TEXT	ENDS
PUBLIC	?QueryInterface@CvDllPathFinderUpdateList@@UAGPAXU_GUID@@@Z ; CvDllPathFinderUpdateList::QueryInterface
; Function compile flags: /Ogtpy
;	COMDAT ?QueryInterface@CvDllPathFinderUpdateList@@UAGPAXU_GUID@@@Z
_TEXT	SEGMENT
$T220061 = -16						; size = 16
$T220059 = -16						; size = 16
_this$ = 8						; size = 4
_guidInterface$ = 12					; size = 16
?QueryInterface@CvDllPathFinderUpdateList@@UAGPAXU_GUID@@@Z PROC ; CvDllPathFinderUpdateList::QueryInterface, COMDAT

; 104  : {

	sub	esp, 16					; 00000010H

; 105  : 	if(guidInterface == ICvUnknown::GetInterfaceId() ||
; 106  : 	        guidInterface == ICvEnumerator::GetInterfaceId())

	mov	ecx, DWORD PTR _guidICvUnknown+4
	mov	edx, DWORD PTR _guidICvUnknown+8
	mov	eax, DWORD PTR _guidICvUnknown
	mov	DWORD PTR $T220059[esp+20], ecx
	lea	ecx, DWORD PTR $T220059[esp+16]
	mov	DWORD PTR $T220059[esp+24], edx
	mov	DWORD PTR $T220059[esp+16], eax
	mov	eax, DWORD PTR _guidICvUnknown+12
	push	ecx
	lea	edx, DWORD PTR _guidInterface$[esp+16]
	push	edx
	mov	DWORD PTR $T220059[esp+36], eax
	call	_IsEqualGUID
	add	esp, 8
	test	eax, eax
	jne	SHORT $LN1@QueryInter@2
	mov	ecx, DWORD PTR _guidICvEnumerator+4
	mov	edx, DWORD PTR _guidICvEnumerator+8
	mov	eax, DWORD PTR _guidICvEnumerator
	mov	DWORD PTR $T220061[esp+20], ecx
	lea	ecx, DWORD PTR $T220061[esp+16]
	mov	DWORD PTR $T220061[esp+24], edx
	mov	DWORD PTR $T220061[esp+16], eax
	mov	eax, DWORD PTR _guidICvEnumerator+12
	push	ecx
	lea	edx, DWORD PTR _guidInterface$[esp+16]
	push	edx
	mov	DWORD PTR $T220061[esp+36], eax
	call	_IsEqualGUID
	add	esp, 8
	test	eax, eax
	jne	SHORT $LN1@QueryInter@2

; 109  : 		return this;
; 110  : 	}
; 111  : 
; 112  : 	return NULL;
; 113  : }

	add	esp, 16					; 00000010H
	ret	20					; 00000014H
$LN1@QueryInter@2:

; 107  : 	{
; 108  : 		IncrementReference();

	mov	eax, DWORD PTR _this$[esp+12]
	inc	DWORD PTR [eax+4]

; 109  : 		return this;
; 110  : 	}
; 111  : 
; 112  : 	return NULL;
; 113  : }

	add	esp, 16					; 00000010H
	ret	20					; 00000014H
?QueryInterface@CvDllPathFinderUpdateList@@UAGPAXU_GUID@@@Z ENDP ; CvDllPathFinderUpdateList::QueryInterface
_TEXT	ENDS
PUBLIC	?MoveNext@CvDllPathFinderUpdateList@@UAG_NXZ	; CvDllPathFinderUpdateList::MoveNext
; Function compile flags: /Ogtpy
;	COMDAT ?MoveNext@CvDllPathFinderUpdateList@@UAG_NXZ
_TEXT	SEGMENT
_this$ = 8						; size = 4
?MoveNext@CvDllPathFinderUpdateList@@UAG_NXZ PROC	; CvDllPathFinderUpdateList::MoveNext, COMDAT

; 157  : 	if(m_iIndex == -1)	// In the uninitialized state?

	mov	ecx, DWORD PTR _this$[esp-4]

; 158  : 	{
; 159  : 		if(!m_updates.empty())	// Any in the list?

	mov	edx, DWORD PTR [ecx+16]
	sub	edx, DWORD PTR [ecx+12]
	mov	eax, 715827883				; 2aaaaaabH
	imul	edx
	sar	edx, 1
	push	esi
	mov	esi, DWORD PTR [ecx+24]
	mov	eax, edx
	shr	eax, 31					; 0000001fH
	cmp	esi, -1
	jne	SHORT $LN2@MoveNext
	add	eax, edx
	je	SHORT $LN3@MoveNext

; 160  : 		{
; 161  : 			m_iIndex = 0;	// then we can start

	mov	DWORD PTR [ecx+24], 0

; 162  : 			return true;

	mov	al, 1
	pop	esi

; 172  : }

	ret	4
$LN3@MoveNext:

; 163  : 		}
; 164  : 		else
; 165  : 			return false;	// Nope, just leave as -1 and return false

	xor	al, al
	pop	esi

; 172  : }

	ret	4
$LN2@MoveNext:

; 166  : 	}
; 167  : 
; 168  : 	if((size_t)m_iIndex < m_updates.size())

	add	eax, edx
	cmp	esi, eax
	jae	SHORT $LN1@MoveNext

; 169  : 		m_iIndex++;

	inc	esi
	mov	DWORD PTR [ecx+24], esi
$LN1@MoveNext:

; 170  : 
; 171  : 	return (size_t)m_iIndex < m_updates.size();

	mov	edx, DWORD PTR [ecx+16]
	sub	edx, DWORD PTR [ecx+12]
	mov	eax, 715827883				; 2aaaaaabH
	imul	edx
	sar	edx, 1
	mov	eax, edx
	shr	eax, 31					; 0000001fH
	add	eax, edx
	cmp	DWORD PTR [ecx+24], eax
	pop	esi
	sbb	eax, eax
	neg	eax

; 172  : }

	ret	4
?MoveNext@CvDllPathFinderUpdateList@@UAG_NXZ ENDP	; CvDllPathFinderUpdateList::MoveNext
_TEXT	ENDS
PUBLIC	?begin@?$vector@UCvDllPathFinderUpdateListData@@V?$allocator@UCvDllPathFinderUpdateListData@@@std@@@std@@QBE?AV?$_Vector_const_iterator@UCvDllPathFinderUpdateListData@@V?$allocator@UCvDllPathFinderUpdateListData@@@std@@@2@XZ ; std::vector<CvDllPathFinderUpdateListData,std::allocator<CvDllPathFinderUpdateListData> >::begin
; Function compile flags: /Ogtpy
; File c:\program files (x86)\microsoft visual studio 9.0\vc\include\vector
;	COMDAT ?begin@?$vector@UCvDllPathFinderUpdateListData@@V?$allocator@UCvDllPathFinderUpdateListData@@@std@@@std@@QBE?AV?$_Vector_const_iterator@UCvDllPathFinderUpdateListData@@V?$allocator@UCvDllPathFinderUpdateListData@@@std@@@2@XZ
_TEXT	SEGMENT
___$ReturnUdt$ = 8					; size = 4
?begin@?$vector@UCvDllPathFinderUpdateListData@@V?$allocator@UCvDllPathFinderUpdateListData@@@std@@@std@@QBE?AV?$_Vector_const_iterator@UCvDllPathFinderUpdateListData@@V?$allocator@UCvDllPathFinderUpdateListData@@@std@@@2@XZ PROC ; std::vector<CvDllPathFinderUpdateListData,std::allocator<CvDllPathFinderUpdateListData> >::begin, COMDAT
; _this$ = ecx

; 672  : 		return (const_iterator(_Myfirst));

	mov	ecx, DWORD PTR [ecx+4]
	mov	eax, DWORD PTR ___$ReturnUdt$[esp-4]
	mov	DWORD PTR [eax], ecx

; 673  : 		}

	ret	4
?begin@?$vector@UCvDllPathFinderUpdateListData@@V?$allocator@UCvDllPathFinderUpdateListData@@@std@@@std@@QBE?AV?$_Vector_const_iterator@UCvDllPathFinderUpdateListData@@V?$allocator@UCvDllPathFinderUpdateListData@@@std@@@2@XZ ENDP ; std::vector<CvDllPathFinderUpdateListData,std::allocator<CvDllPathFinderUpdateListData> >::begin
_TEXT	ENDS
PUBLIC	?end@?$vector@UCvDllPathFinderUpdateListData@@V?$allocator@UCvDllPathFinderUpdateListData@@@std@@@std@@QBE?AV?$_Vector_const_iterator@UCvDllPathFinderUpdateListData@@V?$allocator@UCvDllPathFinderUpdateListData@@@std@@@2@XZ ; std::vector<CvDllPathFinderUpdateListData,std::allocator<CvDllPathFinderUpdateListData> >::end
; Function compile flags: /Ogtpy
;	COMDAT ?end@?$vector@UCvDllPathFinderUpdateListData@@V?$allocator@UCvDllPathFinderUpdateListData@@@std@@@std@@QBE?AV?$_Vector_const_iterator@UCvDllPathFinderUpdateListData@@V?$allocator@UCvDllPathFinderUpdateListData@@@std@@@2@XZ
_TEXT	SEGMENT
___$ReturnUdt$ = 8					; size = 4
?end@?$vector@UCvDllPathFinderUpdateListData@@V?$allocator@UCvDllPathFinderUpdateListData@@@std@@@std@@QBE?AV?$_Vector_const_iterator@UCvDllPathFinderUpdateListData@@V?$allocator@UCvDllPathFinderUpdateListData@@@std@@@2@XZ PROC ; std::vector<CvDllPathFinderUpdateListData,std::allocator<CvDllPathFinderUpdateListData> >::end, COMDAT
; _this$ = ecx

; 682  : 		return (const_iterator(_Mylast));

	mov	ecx, DWORD PTR [ecx+8]
	mov	eax, DWORD PTR ___$ReturnUdt$[esp-4]
	mov	DWORD PTR [eax], ecx

; 683  : 		}

	ret	4
?end@?$vector@UCvDllPathFinderUpdateListData@@V?$allocator@UCvDllPathFinderUpdateListData@@@std@@@std@@QBE?AV?$_Vector_const_iterator@UCvDllPathFinderUpdateListData@@V?$allocator@UCvDllPathFinderUpdateListData@@@std@@@2@XZ ENDP ; std::vector<CvDllPathFinderUpdateListData,std::allocator<CvDllPathFinderUpdateListData> >::end
_TEXT	ENDS
PUBLIC	??1?$_Vector_val@UCvDllPathFinderUpdateListData@@V?$allocator@UCvDllPathFinderUpdateListData@@@std@@@std@@QAE@XZ ; std::_Vector_val<CvDllPathFinderUpdateListData,std::allocator<CvDllPathFinderUpdateListData> >::~_Vector_val<CvDllPathFinderUpdateListData,std::allocator<CvDllPathFinderUpdateListData> >
; Function compile flags: /Ogtpy
;	COMDAT ??1?$_Vector_val@UCvDllPathFinderUpdateListData@@V?$allocator@UCvDllPathFinderUpdateListData@@@std@@@std@@QAE@XZ
_TEXT	SEGMENT
??1?$_Vector_val@UCvDllPathFinderUpdateListData@@V?$allocator@UCvDllPathFinderUpdateListData@@@std@@@std@@QAE@XZ PROC ; std::_Vector_val<CvDllPathFinderUpdateListData,std::allocator<CvDllPathFinderUpdateListData> >::~_Vector_val<CvDllPathFinderUpdateListData,std::allocator<CvDllPathFinderUpdateListData> >, COMDAT
; _this$ = ecx
	ret	0
??1?$_Vector_val@UCvDllPathFinderUpdateListData@@V?$allocator@UCvDllPathFinderUpdateListData@@@std@@@std@@QAE@XZ ENDP ; std::_Vector_val<CvDllPathFinderUpdateListData,std::allocator<CvDllPathFinderUpdateListData> >::~_Vector_val<CvDllPathFinderUpdateListData,std::allocator<CvDllPathFinderUpdateListData> >
_TEXT	ENDS
PUBLIC	??0?$_Vector_val@UCvDllPathFinderUpdateListData@@V?$allocator@UCvDllPathFinderUpdateListData@@@std@@@std@@IAE@V?$allocator@UCvDllPathFinderUpdateListData@@@1@@Z ; std::_Vector_val<CvDllPathFinderUpdateListData,std::allocator<CvDllPathFinderUpdateListData> >::_Vector_val<CvDllPathFinderUpdateListData,std::allocator<CvDllPathFinderUpdateListData> >
; Function compile flags: /Ogtpy
;	COMDAT ??0?$_Vector_val@UCvDllPathFinderUpdateListData@@V?$allocator@UCvDllPathFinderUpdateListData@@@std@@@std@@IAE@V?$allocator@UCvDllPathFinderUpdateListData@@@1@@Z
_TEXT	SEGMENT
__Al$ = 8						; size = 1
??0?$_Vector_val@UCvDllPathFinderUpdateListData@@V?$allocator@UCvDllPathFinderUpdateListData@@@std@@@std@@IAE@V?$allocator@UCvDllPathFinderUpdateListData@@@1@@Z PROC ; std::_Vector_val<CvDllPathFinderUpdateListData,std::allocator<CvDllPathFinderUpdateListData> >::_Vector_val<CvDllPathFinderUpdateListData,std::allocator<CvDllPathFinderUpdateListData> >, COMDAT
; _this$ = ecx

; 425  : 		{	// construct allocator from _Al

	mov	eax, ecx

; 426  : 		}

	ret	4
??0?$_Vector_val@UCvDllPathFinderUpdateListData@@V?$allocator@UCvDllPathFinderUpdateListData@@@std@@@std@@IAE@V?$allocator@UCvDllPathFinderUpdateListData@@@1@@Z ENDP ; std::_Vector_val<CvDllPathFinderUpdateListData,std::allocator<CvDllPathFinderUpdateListData> >::_Vector_val<CvDllPathFinderUpdateListData,std::allocator<CvDllPathFinderUpdateListData> >
_TEXT	ENDS
PUBLIC	?begin@?$vector@UCvDllPathFinderUpdateListData@@V?$allocator@UCvDllPathFinderUpdateListData@@@std@@@std@@QAE?AV?$_Vector_iterator@UCvDllPathFinderUpdateListData@@V?$allocator@UCvDllPathFinderUpdateListData@@@std@@@2@XZ ; std::vector<CvDllPathFinderUpdateListData,std::allocator<CvDllPathFinderUpdateListData> >::begin
; Function compile flags: /Ogtpy
;	COMDAT ?begin@?$vector@UCvDllPathFinderUpdateListData@@V?$allocator@UCvDllPathFinderUpdateListData@@@std@@@std@@QAE?AV?$_Vector_iterator@UCvDllPathFinderUpdateListData@@V?$allocator@UCvDllPathFinderUpdateListData@@@std@@@2@XZ
_TEXT	SEGMENT
___$ReturnUdt$ = 8					; size = 4
?begin@?$vector@UCvDllPathFinderUpdateListData@@V?$allocator@UCvDllPathFinderUpdateListData@@@std@@@std@@QAE?AV?$_Vector_iterator@UCvDllPathFinderUpdateListData@@V?$allocator@UCvDllPathFinderUpdateListData@@@std@@@2@XZ PROC ; std::vector<CvDllPathFinderUpdateListData,std::allocator<CvDllPathFinderUpdateListData> >::begin, COMDAT
; _this$ = ecx

; 667  : 		return (iterator(_Myfirst));

	mov	ecx, DWORD PTR [ecx+4]
	mov	eax, DWORD PTR ___$ReturnUdt$[esp-4]
	mov	DWORD PTR [eax], ecx

; 668  : 		}

	ret	4
?begin@?$vector@UCvDllPathFinderUpdateListData@@V?$allocator@UCvDllPathFinderUpdateListData@@@std@@@std@@QAE?AV?$_Vector_iterator@UCvDllPathFinderUpdateListData@@V?$allocator@UCvDllPathFinderUpdateListData@@@std@@@2@XZ ENDP ; std::vector<CvDllPathFinderUpdateListData,std::allocator<CvDllPathFinderUpdateListData> >::begin
_TEXT	ENDS
PUBLIC	?destroy@?$allocator@UCvDllPathFinderUpdateListData@@@std@@QAEXPAUCvDllPathFinderUpdateListData@@@Z ; std::allocator<CvDllPathFinderUpdateListData>::destroy
; Function compile flags: /Ogtpy
; File c:\program files (x86)\microsoft visual studio 9.0\vc\include\xmemory
;	COMDAT ?destroy@?$allocator@UCvDllPathFinderUpdateListData@@@std@@QAEXPAUCvDllPathFinderUpdateListData@@@Z
_TEXT	SEGMENT
__Ptr$ = 8						; size = 4
?destroy@?$allocator@UCvDllPathFinderUpdateListData@@@std@@QAEXPAUCvDllPathFinderUpdateListData@@@Z PROC ; std::allocator<CvDllPathFinderUpdateListData>::destroy, COMDAT
; _this$ = ecx

; 160  : 		_Destroy(_Ptr);
; 161  : 		}

	ret	4
?destroy@?$allocator@UCvDllPathFinderUpdateListData@@@std@@QAEXPAUCvDllPathFinderUpdateListData@@@Z ENDP ; std::allocator<CvDllPathFinderUpdateListData>::destroy
_TEXT	ENDS
PUBLIC	?max_size@?$vector@UCvDllPathFinderUpdateListData@@V?$allocator@UCvDllPathFinderUpdateListData@@@std@@@std@@QBEIXZ ; std::vector<CvDllPathFinderUpdateListData,std::allocator<CvDllPathFinderUpdateListData> >::max_size
; Function compile flags: /Ogtpy
; File c:\program files (x86)\microsoft visual studio 9.0\vc\include\vector
;	COMDAT ?max_size@?$vector@UCvDllPathFinderUpdateListData@@V?$allocator@UCvDllPathFinderUpdateListData@@@std@@@std@@QBEIXZ
_TEXT	SEGMENT
?max_size@?$vector@UCvDllPathFinderUpdateListData@@V?$allocator@UCvDllPathFinderUpdateListData@@@std@@@std@@QBEIXZ PROC ; std::vector<CvDllPathFinderUpdateListData,std::allocator<CvDllPathFinderUpdateListData> >::max_size, COMDAT
; _this$ = ecx

; 731  : 		return (this->_Alval.max_size());

	mov	eax, 357913941				; 15555555H

; 732  : 		}

	ret	0
?max_size@?$vector@UCvDllPathFinderUpdateListData@@V?$allocator@UCvDllPathFinderUpdateListData@@@std@@@std@@QBEIXZ ENDP ; std::vector<CvDllPathFinderUpdateListData,std::allocator<CvDllPathFinderUpdateListData> >::max_size
_TEXT	ENDS
PUBLIC	__TI3?AVlength_error@std@@
PUBLIC	??_C@_0BD@OLBABOEK@vector?$DMT?$DO?5too?5long?$AA@ ; `string'
PUBLIC	?_Xlen@?$vector@UCvDllPathFinderUpdateListData@@V?$allocator@UCvDllPathFinderUpdateListData@@@std@@@std@@KAXXZ ; std::vector<CvDllPathFinderUpdateListData,std::allocator<CvDllPathFinderUpdateListData> >::_Xlen
PUBLIC	__CTA3?AVlength_error@std@@
PUBLIC	__CT??_R0?AVlength_error@std@@@8??0length_error@std@@QAE@ABV01@@Z40
PUBLIC	??0length_error@std@@QAE@ABV01@@Z		; std::length_error::length_error
PUBLIC	__CT??_R0?AVlogic_error@std@@@8??0logic_error@std@@QAE@ABV01@@Z40
PUBLIC	??0logic_error@std@@QAE@ABV01@@Z		; std::logic_error::logic_error
PUBLIC	__CT??_R0?AVexception@std@@@8??0exception@std@@QAE@ABV01@@Z12
EXTRN	__imp_??0?$basic_string@DU?$char_traits@D@std@@V?$allocator@D@2@@std@@QAE@PBD@Z:PROC
EXTRN	__CxxThrowException@8:PROC
EXTRN	??0exception@std@@QAE@ABV01@@Z:PROC		; std::exception::exception
;	COMDAT __CT??_R0?AVexception@std@@@8??0exception@std@@QAE@ABV01@@Z12
; File c:\program files (x86)\microsoft visual studio 9.0\vc\include\stdexcept
xdata$x	SEGMENT
__CT??_R0?AVexception@std@@@8??0exception@std@@QAE@ABV01@@Z12 DD 00H
	DD	FLAT:??_R0?AVexception@std@@@8
	DD	00H
	DD	0ffffffffH
	ORG $+4
	DD	0cH
	DD	FLAT:??0exception@std@@QAE@ABV01@@Z
xdata$x	ENDS
;	COMDAT __CT??_R0?AVlogic_error@std@@@8??0logic_error@std@@QAE@ABV01@@Z40
xdata$x	SEGMENT
__CT??_R0?AVlogic_error@std@@@8??0logic_error@std@@QAE@ABV01@@Z40 DD 00H
	DD	FLAT:??_R0?AVlogic_error@std@@@8
	DD	00H
	DD	0ffffffffH
	ORG $+4
	DD	028H
	DD	FLAT:??0logic_error@std@@QAE@ABV01@@Z
xdata$x	ENDS
;	COMDAT __CT??_R0?AVlength_error@std@@@8??0length_error@std@@QAE@ABV01@@Z40
xdata$x	SEGMENT
__CT??_R0?AVlength_error@std@@@8??0length_error@std@@QAE@ABV01@@Z40 DD 00H
	DD	FLAT:??_R0?AVlength_error@std@@@8
	DD	00H
	DD	0ffffffffH
	ORG $+4
	DD	028H
	DD	FLAT:??0length_error@std@@QAE@ABV01@@Z
xdata$x	ENDS
;	COMDAT __CTA3?AVlength_error@std@@
xdata$x	SEGMENT
__CTA3?AVlength_error@std@@ DD 03H
	DD	FLAT:__CT??_R0?AVlength_error@std@@@8??0length_error@std@@QAE@ABV01@@Z40
	DD	FLAT:__CT??_R0?AVlogic_error@std@@@8??0logic_error@std@@QAE@ABV01@@Z40
	DD	FLAT:__CT??_R0?AVexception@std@@@8??0exception@std@@QAE@ABV01@@Z12
xdata$x	ENDS
;	COMDAT __TI3?AVlength_error@std@@
xdata$x	SEGMENT
__TI3?AVlength_error@std@@ DD 00H
	DD	FLAT:??1length_error@std@@UAE@XZ
	DD	00H
	DD	FLAT:__CTA3?AVlength_error@std@@
xdata$x	ENDS
;	COMDAT ??_C@_0BD@OLBABOEK@vector?$DMT?$DO?5too?5long?$AA@
CONST	SEGMENT
??_C@_0BD@OLBABOEK@vector?$DMT?$DO?5too?5long?$AA@ DB 'vector<T> too long'
	DB	00H						; `string'
CONST	ENDS
;	COMDAT xdata$x
xdata$x	SEGMENT
__unwindtable$?_Xlen@?$vector@UCvDllPathFinderUpdateListData@@V?$allocator@UCvDllPathFinderUpdateListData@@@std@@@std@@KAXXZ DD 0ffffffffH
	DD	FLAT:__unwindfunclet$?_Xlen@?$vector@UCvDllPathFinderUpdateListData@@V?$allocator@UCvDllPathFinderUpdateListData@@@std@@@std@@KAXXZ$0
	DD	00H
	DD	FLAT:__unwindfunclet$?_Xlen@?$vector@UCvDllPathFinderUpdateListData@@V?$allocator@UCvDllPathFinderUpdateListData@@@std@@@std@@KAXXZ$2
__ehfuncinfo$?_Xlen@?$vector@UCvDllPathFinderUpdateListData@@V?$allocator@UCvDllPathFinderUpdateListData@@@std@@@std@@KAXXZ DD 019930522H
	DD	02H
	DD	FLAT:__unwindtable$?_Xlen@?$vector@UCvDllPathFinderUpdateListData@@V?$allocator@UCvDllPathFinderUpdateListData@@@std@@@std@@KAXXZ
	DD	2 DUP(00H)
	DD	2 DUP(00H)
	DD	00H
	DD	01H
; Function compile flags: /Ogtpy
; File c:\program files (x86)\microsoft visual studio 9.0\vc\include\vector
xdata$x	ENDS
;	COMDAT ?_Xlen@?$vector@UCvDllPathFinderUpdateListData@@V?$allocator@UCvDllPathFinderUpdateListData@@@std@@@std@@KAXXZ
_TEXT	SEGMENT
$T220168 = -80						; size = 28
$T220167 = -52						; size = 40
__$EHRec$ = -12						; size = 12
?_Xlen@?$vector@UCvDllPathFinderUpdateListData@@V?$allocator@UCvDllPathFinderUpdateListData@@@std@@@std@@KAXXZ PROC ; std::vector<CvDllPathFinderUpdateListData,std::allocator<CvDllPathFinderUpdateListData> >::_Xlen, COMDAT

; 1259 : 		{	// report a length_error

	push	-1
	push	__ehhandler$?_Xlen@?$vector@UCvDllPathFinderUpdateListData@@V?$allocator@UCvDllPathFinderUpdateListData@@@std@@@std@@KAXXZ
	mov	eax, DWORD PTR fs:0
	push	eax
	mov	DWORD PTR fs:0, esp
	sub	esp, 68					; 00000044H

; 1260 : 		_THROW(length_error, "vector<T> too long");

	push	OFFSET ??_C@_0BD@OLBABOEK@vector?$DMT?$DO?5too?5long?$AA@
	lea	ecx, DWORD PTR $T220168[esp+84]
	call	DWORD PTR __imp_??0?$basic_string@DU?$char_traits@D@std@@V?$allocator@D@2@@std@@QAE@PBD@Z
	lea	ecx, DWORD PTR $T220167[esp+80]
	mov	DWORD PTR __$EHRec$[esp+88], 0
	call	DWORD PTR __imp_??0exception@std@@QAE@XZ
	lea	eax, DWORD PTR $T220168[esp+80]
	push	eax
	lea	ecx, DWORD PTR $T220167[esp+96]
	mov	BYTE PTR __$EHRec$[esp+92], 1
	mov	DWORD PTR $T220167[esp+84], OFFSET ??_7logic_error@std@@6B@
	call	DWORD PTR __imp_??0?$basic_string@DU?$char_traits@D@std@@V?$allocator@D@2@@std@@QAE@ABV01@@Z
	push	OFFSET __TI3?AVlength_error@std@@
	lea	ecx, DWORD PTR $T220167[esp+84]
	push	ecx
	mov	BYTE PTR __$EHRec$[esp+96], 0
	mov	DWORD PTR $T220167[esp+88], OFFSET ??_7length_error@std@@6B@
	call	__CxxThrowException@8
$LN13@Xlen:
$LN12@Xlen:
	int	3
_TEXT	ENDS
;	COMDAT text$x
text$x	SEGMENT
__unwindfunclet$?_Xlen@?$vector@UCvDllPathFinderUpdateListData@@V?$allocator@UCvDllPathFinderUpdateListData@@@std@@@std@@KAXXZ$0:
	lea	ecx, DWORD PTR $T220168[ebp]
	jmp	DWORD PTR __imp_??1?$basic_string@DU?$char_traits@D@std@@V?$allocator@D@2@@std@@QAE@XZ
__unwindfunclet$?_Xlen@?$vector@UCvDllPathFinderUpdateListData@@V?$allocator@UCvDllPathFinderUpdateListData@@@std@@@std@@KAXXZ$2:
	lea	ecx, DWORD PTR $T220167[ebp]
	jmp	DWORD PTR __imp_??1exception@std@@UAE@XZ
__ehhandler$?_Xlen@?$vector@UCvDllPathFinderUpdateListData@@V?$allocator@UCvDllPathFinderUpdateListData@@@std@@@std@@KAXXZ:
	mov	eax, OFFSET __ehfuncinfo$?_Xlen@?$vector@UCvDllPathFinderUpdateListData@@V?$allocator@UCvDllPathFinderUpdateListData@@@std@@@std@@KAXXZ
	jmp	___CxxFrameHandler3
text$x	ENDS
?_Xlen@?$vector@UCvDllPathFinderUpdateListData@@V?$allocator@UCvDllPathFinderUpdateListData@@@std@@@std@@KAXXZ ENDP ; std::vector<CvDllPathFinderUpdateListData,std::allocator<CvDllPathFinderUpdateListData> >::_Xlen
EXTRN	__imp_??0exception@std@@QAE@ABV01@@Z:PROC
;	COMDAT xdata$x
xdata$x	SEGMENT
__unwindtable$??0logic_error@std@@QAE@ABV01@@Z DD 0ffffffffH
	DD	FLAT:__unwindfunclet$??0logic_error@std@@QAE@ABV01@@Z$0
__ehfuncinfo$??0logic_error@std@@QAE@ABV01@@Z DD 019930522H
	DD	01H
	DD	FLAT:__unwindtable$??0logic_error@std@@QAE@ABV01@@Z
	DD	2 DUP(00H)
	DD	2 DUP(00H)
	DD	00H
	DD	01H
; Function compile flags: /Ogtpy
xdata$x	ENDS
;	COMDAT ??0logic_error@std@@QAE@ABV01@@Z
_TEXT	SEGMENT
_this$ = -16						; size = 4
__$EHRec$ = -12						; size = 12
___that$ = 8						; size = 4
??0logic_error@std@@QAE@ABV01@@Z PROC			; std::logic_error::logic_error, COMDAT
; _this$ = ecx
	push	-1
	push	__ehhandler$??0logic_error@std@@QAE@ABV01@@Z
	mov	eax, DWORD PTR fs:0
	push	eax
	mov	DWORD PTR fs:0, esp
	push	ecx
	push	esi
	push	edi
	mov	edi, DWORD PTR ___that$[esp+20]
	mov	esi, ecx
	push	edi
	mov	DWORD PTR _this$[esp+28], esi
	call	DWORD PTR __imp_??0exception@std@@QAE@ABV01@@Z
	add	edi, 12					; 0000000cH
	push	edi
	lea	ecx, DWORD PTR [esi+12]
	mov	DWORD PTR __$EHRec$[esp+36], 0
	mov	DWORD PTR [esi], OFFSET ??_7logic_error@std@@6B@
	call	DWORD PTR __imp_??0?$basic_string@DU?$char_traits@D@std@@V?$allocator@D@2@@std@@QAE@ABV01@@Z
	mov	ecx, DWORD PTR __$EHRec$[esp+24]
	pop	edi
	mov	eax, esi
	pop	esi
	mov	DWORD PTR fs:0, ecx
	add	esp, 16					; 00000010H
	ret	4
_TEXT	ENDS
;	COMDAT text$x
text$x	SEGMENT
__unwindfunclet$??0logic_error@std@@QAE@ABV01@@Z$0:
	mov	ecx, DWORD PTR _this$[ebp]
	jmp	DWORD PTR __imp_??1exception@std@@UAE@XZ
__ehhandler$??0logic_error@std@@QAE@ABV01@@Z:
	mov	eax, OFFSET __ehfuncinfo$??0logic_error@std@@QAE@ABV01@@Z
	jmp	___CxxFrameHandler3
text$x	ENDS
??0logic_error@std@@QAE@ABV01@@Z ENDP			; std::logic_error::logic_error
; Function compile flags: /Ogtpy
;	COMDAT ??0length_error@std@@QAE@ABV01@@Z
_TEXT	SEGMENT
___that$ = 8						; size = 4
??0length_error@std@@QAE@ABV01@@Z PROC			; std::length_error::length_error, COMDAT
; _this$ = ecx
	mov	eax, DWORD PTR ___that$[esp-4]
	push	esi
	push	eax
	mov	esi, ecx
	call	??0logic_error@std@@QAE@ABV01@@Z
	mov	DWORD PTR [esi], OFFSET ??_7length_error@std@@6B@
	mov	eax, esi
	pop	esi
	ret	4
??0length_error@std@@QAE@ABV01@@Z ENDP			; std::length_error::length_error
_TEXT	ENDS
PUBLIC	__TI2?AVbad_alloc@std@@
PUBLIC	??$_Allocate@UCvDllPathFinderUpdateListData@@@std@@YAPAUCvDllPathFinderUpdateListData@@IPAU1@@Z ; std::_Allocate<CvDllPathFinderUpdateListData>
PUBLIC	__CTA2?AVbad_alloc@std@@
PUBLIC	__CT??_R0?AVbad_alloc@std@@@8??0bad_alloc@std@@QAE@ABV01@@Z12
PUBLIC	??0bad_alloc@std@@QAE@ABV01@@Z			; std::bad_alloc::bad_alloc
EXTRN	??2@YAPAXI@Z:PROC				; operator new
;	COMDAT __CT??_R0?AVbad_alloc@std@@@8??0bad_alloc@std@@QAE@ABV01@@Z12
; File c:\program files (x86)\microsoft visual studio 9.0\vc\include\exception
xdata$x	SEGMENT
__CT??_R0?AVbad_alloc@std@@@8??0bad_alloc@std@@QAE@ABV01@@Z12 DD 00H
	DD	FLAT:??_R0?AVbad_alloc@std@@@8
	DD	00H
	DD	0ffffffffH
	ORG $+4
	DD	0cH
	DD	FLAT:??0bad_alloc@std@@QAE@ABV01@@Z
xdata$x	ENDS
;	COMDAT __CTA2?AVbad_alloc@std@@
xdata$x	SEGMENT
__CTA2?AVbad_alloc@std@@ DD 02H
	DD	FLAT:__CT??_R0?AVbad_alloc@std@@@8??0bad_alloc@std@@QAE@ABV01@@Z12
	DD	FLAT:__CT??_R0?AVexception@std@@@8??0exception@std@@QAE@ABV01@@Z12
xdata$x	ENDS
;	COMDAT __TI2?AVbad_alloc@std@@
xdata$x	SEGMENT
__TI2?AVbad_alloc@std@@ DD 00H
	DD	FLAT:??1bad_alloc@std@@UAE@XZ
	DD	00H
	DD	FLAT:__CTA2?AVbad_alloc@std@@
; Function compile flags: /Ogtpy
; File c:\program files (x86)\microsoft visual studio 9.0\vc\include\xmemory
xdata$x	ENDS
;	COMDAT ??$_Allocate@UCvDllPathFinderUpdateListData@@@std@@YAPAUCvDllPathFinderUpdateListData@@IPAU1@@Z
_TEXT	SEGMENT
$T220208 = -12						; size = 12
$T220212 = 8						; size = 4
__Count$ = 8						; size = 4
___formal$ = 12						; size = 4
??$_Allocate@UCvDllPathFinderUpdateListData@@@std@@YAPAUCvDllPathFinderUpdateListData@@IPAU1@@Z PROC ; std::_Allocate<CvDllPathFinderUpdateListData>, COMDAT

; 37   : 	if (_Count <= 0)

	mov	ecx, DWORD PTR __Count$[esp-4]
	sub	esp, 12					; 0000000cH
	test	ecx, ecx
	ja	SHORT $LN3@Allocate

; 38   : 		_Count = 0;

	xor	ecx, ecx
$LN1@Allocate:

; 41   : 
; 42   : 		// allocate storage for _Count elements of type _Ty
; 43   : 	return ((_Ty _FARQ *)::operator new(_Count * sizeof (_Ty)));

	lea	edx, DWORD PTR [ecx+ecx*2]
	add	edx, edx
	add	edx, edx
	push	edx
	call	??2@YAPAXI@Z				; operator new
	add	esp, 4

; 44   : 	}

	add	esp, 12					; 0000000cH
	ret	0
$LN3@Allocate:

; 39   : 	else if (((_SIZT)(-1) / _Count) < sizeof (_Ty))

	or	eax, -1
	xor	edx, edx
	div	ecx
	cmp	eax, 12					; 0000000cH
	jae	SHORT $LN1@Allocate

; 40   : 		_THROW_NCEE(std::bad_alloc, NULL);

	lea	eax, DWORD PTR $T220212[esp+8]
	push	eax
	lea	ecx, DWORD PTR $T220208[esp+16]
	mov	DWORD PTR $T220212[esp+12], 0
	call	DWORD PTR __imp_??0exception@std@@QAE@ABQBD@Z
	push	OFFSET __TI2?AVbad_alloc@std@@
	lea	ecx, DWORD PTR $T220208[esp+16]
	push	ecx
	mov	DWORD PTR $T220208[esp+20], OFFSET ??_7bad_alloc@std@@6B@
	call	__CxxThrowException@8
$LN9@Allocate:
$LN8@Allocate:
	int	3
??$_Allocate@UCvDllPathFinderUpdateListData@@@std@@YAPAUCvDllPathFinderUpdateListData@@IPAU1@@Z ENDP ; std::_Allocate<CvDllPathFinderUpdateListData>
; Function compile flags: /Ogtpy
_TEXT	ENDS
;	COMDAT ??0bad_alloc@std@@QAE@ABV01@@Z
_TEXT	SEGMENT
___that$ = 8						; size = 4
??0bad_alloc@std@@QAE@ABV01@@Z PROC			; std::bad_alloc::bad_alloc, COMDAT
; _this$ = ecx
	mov	eax, DWORD PTR ___that$[esp-4]
	push	esi
	push	eax
	mov	esi, ecx
	call	DWORD PTR __imp_??0exception@std@@QAE@ABV01@@Z
	mov	DWORD PTR [esi], OFFSET ??_7bad_alloc@std@@6B@
	mov	eax, esi
	pop	esi
	ret	4
??0bad_alloc@std@@QAE@ABV01@@Z ENDP			; std::bad_alloc::bad_alloc
_TEXT	ENDS
PUBLIC	??$_Swap_adl@UCvDllPathFinderUpdateListData@@@std@@YAXAAUCvDllPathFinderUpdateListData@@0@Z ; std::_Swap_adl<CvDllPathFinderUpdateListData>
; Function compile flags: /Ogtpy
; File c:\program files (x86)\microsoft visual studio 9.0\vc\include\utility
;	COMDAT ??$_Swap_adl@UCvDllPathFinderUpdateListData@@@std@@YAXAAUCvDllPathFinderUpdateListData@@0@Z
_TEXT	SEGMENT
__Left$ = 8						; size = 4
__Right$ = 12						; size = 4
??$_Swap_adl@UCvDllPathFinderUpdateListData@@@std@@YAXAAUCvDllPathFinderUpdateListData@@0@Z PROC ; std::_Swap_adl<CvDllPathFinderUpdateListData>, COMDAT

; 31   : 	swap(_Left, _Right);

	mov	eax, DWORD PTR __Left$[esp-4]
	mov	ecx, DWORD PTR __Right$[esp-4]
	cmp	eax, ecx
	je	SHORT $LN3@Swap_adl
	mov	edx, DWORD PTR [eax]
	push	ebx
	mov	ebx, DWORD PTR [ecx]
	push	esi
	mov	esi, DWORD PTR [eax+4]
	push	edi
	mov	edi, DWORD PTR [eax+8]
	mov	DWORD PTR [eax], ebx
	mov	ebx, DWORD PTR [ecx+4]
	mov	DWORD PTR [eax+4], ebx
	mov	ebx, DWORD PTR [ecx+8]
	mov	DWORD PTR [eax+8], ebx
	mov	DWORD PTR [ecx], edx
	mov	DWORD PTR [ecx+4], esi
	mov	DWORD PTR [ecx+8], edi
	pop	edi
	pop	esi
	pop	ebx
$LN3@Swap_adl:

; 32   : 	}

	ret	0
??$_Swap_adl@UCvDllPathFinderUpdateListData@@@std@@YAXAAUCvDllPathFinderUpdateListData@@0@Z ENDP ; std::_Swap_adl<CvDllPathFinderUpdateListData>
_TEXT	ENDS
PUBLIC	??$_Distance2@V?$_Vector_const_iterator@UCvDllPathFinderUpdateListData@@V?$allocator@UCvDllPathFinderUpdateListData@@@std@@@std@@I@std@@YAXV?$_Vector_const_iterator@UCvDllPathFinderUpdateListData@@V?$allocator@UCvDllPathFinderUpdateListData@@@std@@@0@0AAIUrandom_access_iterator_tag@0@@Z ; std::_Distance2<std::_Vector_const_iterator<CvDllPathFinderUpdateListData,std::allocator<CvDllPathFinderUpdateListData> >,unsigned int>
; Function compile flags: /Ogtpy
; File c:\program files (x86)\microsoft visual studio 9.0\vc\include\xutility
;	COMDAT ??$_Distance2@V?$_Vector_const_iterator@UCvDllPathFinderUpdateListData@@V?$allocator@UCvDllPathFinderUpdateListData@@@std@@@std@@I@std@@YAXV?$_Vector_const_iterator@UCvDllPathFinderUpdateListData@@V?$allocator@UCvDllPathFinderUpdateListData@@@std@@@0@0AAIUrandom_access_iterator_tag@0@@Z
_TEXT	SEGMENT
__First$ = 8						; size = 4
__Last$ = 12						; size = 4
__Off$ = 16						; size = 4
___formal$ = 20						; size = 1
??$_Distance2@V?$_Vector_const_iterator@UCvDllPathFinderUpdateListData@@V?$allocator@UCvDllPathFinderUpdateListData@@@std@@@std@@I@std@@YAXV?$_Vector_const_iterator@UCvDllPathFinderUpdateListData@@V?$allocator@UCvDllPathFinderUpdateListData@@@std@@@0@0AAIUrandom_access_iterator_tag@0@@Z PROC ; std::_Distance2<std::_Vector_const_iterator<CvDllPathFinderUpdateListData,std::allocator<CvDllPathFinderUpdateListData> >,unsigned int>, COMDAT

; 1867 : 
; 1868 :  #if _HAS_ITERATOR_DEBUGGING
; 1869 : 	if (_First != _Last)
; 1870 : 		{	// check for null pointers
; 1871 : 		_DEBUG_POINTER(_First);
; 1872 : 		_DEBUG_POINTER(_Last);
; 1873 : 		}
; 1874 :  #endif /* _HAS_ITERATOR_DEBUGGING */
; 1875 : 
; 1876 : 	_Off += _Last - _First;

	mov	ecx, DWORD PTR __Last$[esp-4]
	sub	ecx, DWORD PTR __First$[esp-4]
	mov	eax, 715827883				; 2aaaaaabH
	imul	ecx
	mov	eax, DWORD PTR __Off$[esp-4]
	sar	edx, 1
	mov	ecx, edx
	shr	ecx, 31					; 0000001fH
	add	ecx, edx
	add	DWORD PTR [eax], ecx

; 1877 : 	}

	ret	0
??$_Distance2@V?$_Vector_const_iterator@UCvDllPathFinderUpdateListData@@V?$allocator@UCvDllPathFinderUpdateListData@@@std@@@std@@I@std@@YAXV?$_Vector_const_iterator@UCvDllPathFinderUpdateListData@@V?$allocator@UCvDllPathFinderUpdateListData@@@std@@@0@0AAIUrandom_access_iterator_tag@0@@Z ENDP ; std::_Distance2<std::_Vector_const_iterator<CvDllPathFinderUpdateListData,std::allocator<CvDllPathFinderUpdateListData> >,unsigned int>
_TEXT	ENDS
PUBLIC	??9?$_Vector_const_iterator@UCvDllPathFinderUpdateListData@@V?$allocator@UCvDllPathFinderUpdateListData@@@std@@@std@@QBE_NABV01@@Z ; std::_Vector_const_iterator<CvDllPathFinderUpdateListData,std::allocator<CvDllPathFinderUpdateListData> >::operator!=
; Function compile flags: /Ogtpy
; File c:\program files (x86)\microsoft visual studio 9.0\vc\include\vector
;	COMDAT ??9?$_Vector_const_iterator@UCvDllPathFinderUpdateListData@@V?$allocator@UCvDllPathFinderUpdateListData@@@std@@@std@@QBE_NABV01@@Z
_TEXT	SEGMENT
__Right$ = 8						; size = 4
??9?$_Vector_const_iterator@UCvDllPathFinderUpdateListData@@V?$allocator@UCvDllPathFinderUpdateListData@@@std@@@std@@QBE_NABV01@@Z PROC ; std::_Vector_const_iterator<CvDllPathFinderUpdateListData,std::allocator<CvDllPathFinderUpdateListData> >::operator!=, COMDAT
; _this$ = ecx

; 216  : 		return (!(*this == _Right));

	mov	eax, DWORD PTR [ecx]
	mov	edx, DWORD PTR __Right$[esp-4]
	xor	ecx, ecx
	cmp	eax, DWORD PTR [edx]
	setne	cl
	mov	al, cl

; 217  : 		}

	ret	4
??9?$_Vector_const_iterator@UCvDllPathFinderUpdateListData@@V?$allocator@UCvDllPathFinderUpdateListData@@@std@@@std@@QBE_NABV01@@Z ENDP ; std::_Vector_const_iterator<CvDllPathFinderUpdateListData,std::allocator<CvDllPathFinderUpdateListData> >::operator!=
_TEXT	ENDS
PUBLIC	??$_Construct@UCvDllPathFinderUpdateListData@@U1@@std@@YAXPAUCvDllPathFinderUpdateListData@@ABU1@@Z ; std::_Construct<CvDllPathFinderUpdateListData,CvDllPathFinderUpdateListData>
; Function compile flags: /Ogtpy
; File c:\program files (x86)\microsoft visual studio 9.0\vc\include\xmemory
;	COMDAT ??$_Construct@UCvDllPathFinderUpdateListData@@U1@@std@@YAXPAUCvDllPathFinderUpdateListData@@ABU1@@Z
_TEXT	SEGMENT
__Ptr$ = 8						; size = 4
__Val$ = 12						; size = 4
??$_Construct@UCvDllPathFinderUpdateListData@@U1@@std@@YAXPAUCvDllPathFinderUpdateListData@@ABU1@@Z PROC ; std::_Construct<CvDllPathFinderUpdateListData,CvDllPathFinderUpdateListData>, COMDAT

; 51   : 	void _FARQ *_Vptr = _Ptr;
; 52   : 	::new (_Vptr) _T1(_Val);

	mov	eax, DWORD PTR __Ptr$[esp-4]
	test	eax, eax
	je	SHORT $LN3@Construct
	mov	ecx, DWORD PTR __Val$[esp-4]
	mov	edx, DWORD PTR [ecx]
	mov	DWORD PTR [eax], edx
	mov	edx, DWORD PTR [ecx+4]
	mov	DWORD PTR [eax+4], edx
	mov	ecx, DWORD PTR [ecx+8]
	mov	DWORD PTR [eax+8], ecx
$LN3@Construct:

; 53   : 	}

	ret	0
??$_Construct@UCvDllPathFinderUpdateListData@@U1@@std@@YAXPAUCvDllPathFinderUpdateListData@@ABU1@@Z ENDP ; std::_Construct<CvDllPathFinderUpdateListData,CvDllPathFinderUpdateListData>
_TEXT	ENDS
PUBLIC	??0CvDllPathFinderUpdate@@QAE@HHH@Z		; CvDllPathFinderUpdate::CvDllPathFinderUpdate
; Function compile flags: /Ogtpy
; File c:\users\enormousapplepie\desktop\lekmod files\lekmod dll versions\v29\lekmod_dll\cvgamecoredll_expansion2\cvdllpathfinderupdate.cpp
;	COMDAT ??0CvDllPathFinderUpdate@@QAE@HHH@Z
_TEXT	SEGMENT
_iX$ = 8						; size = 4
_iY$ = 12						; size = 4
_iTurnNumber$ = 16					; size = 4
??0CvDllPathFinderUpdate@@QAE@HHH@Z PROC		; CvDllPathFinderUpdate::CvDllPathFinderUpdate, COMDAT
; _this$ = ecx

; 18   : {

	mov	edx, DWORD PTR _iY$[esp-4]
	mov	eax, ecx
	mov	ecx, DWORD PTR _iX$[esp-4]
	mov	DWORD PTR [eax+8], ecx
	mov	ecx, DWORD PTR _iTurnNumber$[esp-4]
	mov	DWORD PTR [eax], OFFSET ??_7CvDllPathFinderUpdate@@6B@
	mov	DWORD PTR [eax+4], 1
	mov	DWORD PTR [eax+12], edx
	mov	DWORD PTR [eax+16], ecx

; 19   : }

	ret	12					; 0000000cH
??0CvDllPathFinderUpdate@@QAE@HHH@Z ENDP		; CvDllPathFinderUpdate::CvDllPathFinderUpdate
_TEXT	ENDS
PUBLIC	?DecrementReference@CvDllPathFinderUpdate@@QAEIXZ ; CvDllPathFinderUpdate::DecrementReference
; Function compile flags: /Ogtpy
;	COMDAT ?DecrementReference@CvDllPathFinderUpdate@@QAEIXZ
_TEXT	SEGMENT
?DecrementReference@CvDllPathFinderUpdate@@QAEIXZ PROC	; CvDllPathFinderUpdate::DecrementReference, COMDAT
; _this$ = ecx

; 45   : 	if(m_uiRefCount == 1)

	mov	eax, DWORD PTR [ecx+4]
	cmp	eax, 1
	jne	SHORT $LN2@DecrementR

; 46   : 	{
; 47   : 		delete this;

	push	ecx
	mov	DWORD PTR [ecx], OFFSET ??_7CvDllPathFinderUpdate@@6B@
	call	?Free@CvDllGameContext@@SAXPAX@Z	; CvDllGameContext::Free
	add	esp, 4

; 48   : 		return 0;

	xor	eax, eax

; 53   : 		return m_uiRefCount;
; 54   : 	}
; 55   : }

	ret	0
$LN2@DecrementR:

; 49   : 	}
; 50   : 	else
; 51   : 	{
; 52   : 		--m_uiRefCount;

	dec	eax
	mov	DWORD PTR [ecx+4], eax

; 53   : 		return m_uiRefCount;
; 54   : 	}
; 55   : }

	ret	0
?DecrementReference@CvDllPathFinderUpdate@@QAEIXZ ENDP	; CvDllPathFinderUpdate::DecrementReference
; Function compile flags: /Ogtpy
_TEXT	ENDS
;	COMDAT ?Destroy@CvDllPathFinderUpdate@@EAGXXZ
_TEXT	SEGMENT
_this$ = 8						; size = 4
?Destroy@CvDllPathFinderUpdate@@EAGXXZ PROC		; CvDllPathFinderUpdate::Destroy, COMDAT

; 64   : 	DecrementReference();

	mov	eax, DWORD PTR _this$[esp-4]
	mov	ecx, DWORD PTR [eax+4]
	cmp	ecx, 1
	jne	SHORT $LN4@Destroy
	push	eax
	mov	DWORD PTR [eax], OFFSET ??_7CvDllPathFinderUpdate@@6B@
	call	?Free@CvDllGameContext@@SAXPAX@Z	; CvDllGameContext::Free
	add	esp, 4

; 65   : }

	ret	4

; 64   : 	DecrementReference();

$LN4@Destroy:
	dec	ecx
	mov	DWORD PTR [eax+4], ecx

; 65   : }

	ret	4
?Destroy@CvDllPathFinderUpdate@@EAGXXZ ENDP		; CvDllPathFinderUpdate::Destroy
_TEXT	ENDS
PUBLIC	?GetCurrent@CvDllPathFinderUpdateList@@UAGPAVICvUnknown@@XZ ; CvDllPathFinderUpdateList::GetCurrent
; Function compile flags: /Ogtpy
;	COMDAT ?GetCurrent@CvDllPathFinderUpdateList@@UAGPAVICvUnknown@@XZ
_TEXT	SEGMENT
_this$ = 8						; size = 4
?GetCurrent@CvDllPathFinderUpdateList@@UAGPAVICvUnknown@@XZ PROC ; CvDllPathFinderUpdateList::GetCurrent, COMDAT

; 180  : {

	push	esi

; 181  : 	if(m_iIndex > -1 && (size_t)m_iIndex < m_updates.size())

	mov	esi, DWORD PTR _this$[esp]
	mov	ecx, DWORD PTR [esi+24]
	cmp	ecx, -1
	jle	SHORT $LN1@GetCurrent
	mov	edx, DWORD PTR [esi+16]
	sub	edx, DWORD PTR [esi+12]
	mov	eax, 715827883				; 2aaaaaabH
	imul	edx
	sar	edx, 1
	mov	eax, edx
	shr	eax, 31					; 0000001fH
	add	eax, edx
	cmp	ecx, eax
	jae	SHORT $LN1@GetCurrent

; 182  : 	{
; 183  : 		const CvDllPathFinderUpdateListData& data = m_updates[m_iIndex];

	mov	edx, DWORD PTR [esi+12]
	lea	ecx, DWORD PTR [ecx+ecx*2]

; 184  : 
; 185  : 		return new CvDllPathFinderUpdate(data.iX, data.iY, data.iTurnNumber);

	push	20					; 00000014H
	lea	esi, DWORD PTR [edx+ecx*4]
	call	?Allocate@CvDllGameContext@@SAPAXI@Z	; CvDllGameContext::Allocate
	add	esp, 4
	test	eax, eax
	je	SHORT $LN1@GetCurrent
	mov	ecx, DWORD PTR [esi+8]
	mov	edx, DWORD PTR [esi+4]
	mov	esi, DWORD PTR [esi]
	mov	DWORD PTR [eax+8], esi
	mov	DWORD PTR [eax], OFFSET ??_7CvDllPathFinderUpdate@@6B@
	mov	DWORD PTR [eax+4], 1
	mov	DWORD PTR [eax+12], edx
	mov	DWORD PTR [eax+16], ecx
	pop	esi

; 189  : }

	ret	4
$LN1@GetCurrent:

; 186  : 	}
; 187  : 
; 188  : 	return NULL;

	xor	eax, eax
	pop	esi

; 189  : }

	ret	4
?GetCurrent@CvDllPathFinderUpdateList@@UAGPAVICvUnknown@@XZ ENDP ; CvDllPathFinderUpdateList::GetCurrent
_TEXT	ENDS
PUBLIC	??$_Destroy_range@V?$allocator@UCvDllPathFinderUpdateListData@@@std@@@std@@YAXPAUCvDllPathFinderUpdateListData@@0AAV?$allocator@UCvDllPathFinderUpdateListData@@@0@U_Nonscalar_ptr_iterator_tag@0@@Z ; std::_Destroy_range<std::allocator<CvDllPathFinderUpdateListData> >
; Function compile flags: /Ogtpy
; File c:\program files (x86)\microsoft visual studio 9.0\vc\include\xmemory
;	COMDAT ??$_Destroy_range@V?$allocator@UCvDllPathFinderUpdateListData@@@std@@@std@@YAXPAUCvDllPathFinderUpdateListData@@0AAV?$allocator@UCvDllPathFinderUpdateListData@@@0@U_Nonscalar_ptr_iterator_tag@0@@Z
_TEXT	SEGMENT
__First$ = 8						; size = 4
__Last$ = 12						; size = 4
__Al$ = 16						; size = 4
___formal$ = 20						; size = 1
??$_Destroy_range@V?$allocator@UCvDllPathFinderUpdateListData@@@std@@@std@@YAXPAUCvDllPathFinderUpdateListData@@0AAV?$allocator@UCvDllPathFinderUpdateListData@@@0@U_Nonscalar_ptr_iterator_tag@0@@Z PROC ; std::_Destroy_range<std::allocator<CvDllPathFinderUpdateListData> >, COMDAT

; 233  : 	for (; _First != _Last; ++_First)
; 234  : 		_Al.destroy(_First);
; 235  : 	}

	ret	0
??$_Destroy_range@V?$allocator@UCvDllPathFinderUpdateListData@@@std@@@std@@YAXPAUCvDllPathFinderUpdateListData@@0AAV?$allocator@UCvDllPathFinderUpdateListData@@@0@U_Nonscalar_ptr_iterator_tag@0@@Z ENDP ; std::_Destroy_range<std::allocator<CvDllPathFinderUpdateListData> >
_TEXT	ENDS
PUBLIC	?allocate@?$allocator@UCvDllPathFinderUpdateListData@@@std@@QAEPAUCvDllPathFinderUpdateListData@@I@Z ; std::allocator<CvDllPathFinderUpdateListData>::allocate
; Function compile flags: /Ogtpy
;	COMDAT ?allocate@?$allocator@UCvDllPathFinderUpdateListData@@@std@@QAEPAUCvDllPathFinderUpdateListData@@I@Z
_TEXT	SEGMENT
__Count$ = 8						; size = 4
?allocate@?$allocator@UCvDllPathFinderUpdateListData@@@std@@QAEPAUCvDllPathFinderUpdateListData@@I@Z PROC ; std::allocator<CvDllPathFinderUpdateListData>::allocate, COMDAT
; _this$ = ecx

; 145  : 		return (_Allocate(_Count, (pointer)0));

	mov	eax, DWORD PTR __Count$[esp-4]
	push	0
	push	eax
	call	??$_Allocate@UCvDllPathFinderUpdateListData@@@std@@YAPAUCvDllPathFinderUpdateListData@@IPAU1@@Z ; std::_Allocate<CvDllPathFinderUpdateListData>
	add	esp, 8

; 146  : 		}

	ret	4
?allocate@?$allocator@UCvDllPathFinderUpdateListData@@@std@@QAEPAUCvDllPathFinderUpdateListData@@I@Z ENDP ; std::allocator<CvDllPathFinderUpdateListData>::allocate
_TEXT	ENDS
PUBLIC	?_Reverse@?$vector@UCvDllPathFinderUpdateListData@@V?$allocator@UCvDllPathFinderUpdateListData@@@std@@@std@@QAEXPAUCvDllPathFinderUpdateListData@@0@Z ; std::vector<CvDllPathFinderUpdateListData,std::allocator<CvDllPathFinderUpdateListData> >::_Reverse
; Function compile flags: /Ogtpy
; File c:\program files (x86)\microsoft visual studio 9.0\vc\include\vector
;	COMDAT ?_Reverse@?$vector@UCvDllPathFinderUpdateListData@@V?$allocator@UCvDllPathFinderUpdateListData@@@std@@@std@@QAEXPAUCvDllPathFinderUpdateListData@@0@Z
_TEXT	SEGMENT
__First$ = 8						; size = 4
__Last$ = 12						; size = 4
?_Reverse@?$vector@UCvDllPathFinderUpdateListData@@V?$allocator@UCvDllPathFinderUpdateListData@@@std@@@std@@QAEXPAUCvDllPathFinderUpdateListData@@0@Z PROC ; std::vector<CvDllPathFinderUpdateListData,std::allocator<CvDllPathFinderUpdateListData> >::_Reverse, COMDAT
; _this$ = ecx

; 998  : 		for (; _First != _Last && _First != --_Last; ++_First)

	mov	eax, DWORD PTR __First$[esp-4]
	mov	ecx, DWORD PTR __Last$[esp-4]
	cmp	eax, ecx
	je	SHORT $LN1@Reverse
	push	ebx
	push	esi
	push	edi
	npad	1
$LL3@Reverse:
	sub	ecx, 12					; 0000000cH
	cmp	eax, ecx
	je	SHORT $LN14@Reverse

; 999  : 			_STD _Swap_adl(*_First, *_Last);

	mov	ebx, DWORD PTR [ecx]
	mov	edx, DWORD PTR [eax]
	mov	esi, DWORD PTR [eax+4]
	mov	edi, DWORD PTR [eax+8]
	mov	DWORD PTR [eax], ebx
	mov	ebx, DWORD PTR [ecx+4]
	mov	DWORD PTR [eax+4], ebx
	mov	ebx, DWORD PTR [ecx+8]
	mov	DWORD PTR [eax+8], ebx
	mov	DWORD PTR [ecx], edx
	add	eax, 12					; 0000000cH
	mov	DWORD PTR [ecx+4], esi
	mov	DWORD PTR [ecx+8], edi
	cmp	eax, ecx
	jne	SHORT $LL3@Reverse
$LN14@Reverse:
	pop	edi
	pop	esi
	pop	ebx
$LN1@Reverse:

; 1000 : 		}

	ret	8
?_Reverse@?$vector@UCvDllPathFinderUpdateListData@@V?$allocator@UCvDllPathFinderUpdateListData@@@std@@@std@@QAEXPAUCvDllPathFinderUpdateListData@@0@Z ENDP ; std::vector<CvDllPathFinderUpdateListData,std::allocator<CvDllPathFinderUpdateListData> >::_Reverse
_TEXT	ENDS
PUBLIC	??$_Distance@V?$_Vector_const_iterator@UCvDllPathFinderUpdateListData@@V?$allocator@UCvDllPathFinderUpdateListData@@@std@@@std@@I@std@@YAXV?$_Vector_const_iterator@UCvDllPathFinderUpdateListData@@V?$allocator@UCvDllPathFinderUpdateListData@@@std@@@0@0AAI@Z ; std::_Distance<std::_Vector_const_iterator<CvDllPathFinderUpdateListData,std::allocator<CvDllPathFinderUpdateListData> >,unsigned int>
; Function compile flags: /Ogtpy
; File c:\program files (x86)\microsoft visual studio 9.0\vc\include\xutility
;	COMDAT ??$_Distance@V?$_Vector_const_iterator@UCvDllPathFinderUpdateListData@@V?$allocator@UCvDllPathFinderUpdateListData@@@std@@@std@@I@std@@YAXV?$_Vector_const_iterator@UCvDllPathFinderUpdateListData@@V?$allocator@UCvDllPathFinderUpdateListData@@@std@@@0@0AAI@Z
_TEXT	SEGMENT
__First$ = 8						; size = 4
__Last$ = 12						; size = 4
__Off$ = 16						; size = 4
??$_Distance@V?$_Vector_const_iterator@UCvDllPathFinderUpdateListData@@V?$allocator@UCvDllPathFinderUpdateListData@@@std@@@std@@I@std@@YAXV?$_Vector_const_iterator@UCvDllPathFinderUpdateListData@@V?$allocator@UCvDllPathFinderUpdateListData@@@std@@@0@0AAI@Z PROC ; std::_Distance<std::_Vector_const_iterator<CvDllPathFinderUpdateListData,std::allocator<CvDllPathFinderUpdateListData> >,unsigned int>, COMDAT

; 1893 : 	_Distance2(_First, _Last, _Off, _Iter_cat(_First));

	mov	ecx, DWORD PTR __Last$[esp-4]
	sub	ecx, DWORD PTR __First$[esp-4]
	mov	eax, 715827883				; 2aaaaaabH
	imul	ecx
	mov	eax, DWORD PTR __Off$[esp-4]
	sar	edx, 1
	mov	ecx, edx
	shr	ecx, 31					; 0000001fH
	add	ecx, edx
	add	DWORD PTR [eax], ecx

; 1894 : 	}

	ret	0
??$_Distance@V?$_Vector_const_iterator@UCvDllPathFinderUpdateListData@@V?$allocator@UCvDllPathFinderUpdateListData@@@std@@@std@@I@std@@YAXV?$_Vector_const_iterator@UCvDllPathFinderUpdateListData@@V?$allocator@UCvDllPathFinderUpdateListData@@@std@@@0@0AAI@Z ENDP ; std::_Distance<std::_Vector_const_iterator<CvDllPathFinderUpdateListData,std::allocator<CvDllPathFinderUpdateListData> >,unsigned int>
_TEXT	ENDS
PUBLIC	?construct@?$allocator@UCvDllPathFinderUpdateListData@@@std@@QAEXPAUCvDllPathFinderUpdateListData@@ABU3@@Z ; std::allocator<CvDllPathFinderUpdateListData>::construct
; Function compile flags: /Ogtpy
; File c:\program files (x86)\microsoft visual studio 9.0\vc\include\xmemory
;	COMDAT ?construct@?$allocator@UCvDllPathFinderUpdateListData@@@std@@QAEXPAUCvDllPathFinderUpdateListData@@ABU3@@Z
_TEXT	SEGMENT
__Ptr$ = 8						; size = 4
__Val$ = 12						; size = 4
?construct@?$allocator@UCvDllPathFinderUpdateListData@@@std@@QAEXPAUCvDllPathFinderUpdateListData@@ABU3@@Z PROC ; std::allocator<CvDllPathFinderUpdateListData>::construct, COMDAT
; _this$ = ecx

; 155  : 		_Construct(_Ptr, _Val);

	mov	eax, DWORD PTR __Ptr$[esp-4]
	test	eax, eax
	je	SHORT $LN5@construct
	mov	ecx, DWORD PTR __Val$[esp-4]
	mov	edx, DWORD PTR [ecx]
	mov	DWORD PTR [eax], edx
	mov	edx, DWORD PTR [ecx+4]
	mov	DWORD PTR [eax+4], edx
	mov	ecx, DWORD PTR [ecx+8]
	mov	DWORD PTR [eax+8], ecx
$LN5@construct:

; 156  : 		}

	ret	8
?construct@?$allocator@UCvDllPathFinderUpdateListData@@@std@@QAEXPAUCvDllPathFinderUpdateListData@@ABU3@@Z ENDP ; std::allocator<CvDllPathFinderUpdateListData>::construct
_TEXT	ENDS
PUBLIC	??$_Uninit_copy@PAUCvDllPathFinderUpdateListData@@PAU1@V?$allocator@UCvDllPathFinderUpdateListData@@@std@@@std@@YAPAUCvDllPathFinderUpdateListData@@PAU1@00AAV?$allocator@UCvDllPathFinderUpdateListData@@@0@U_Nonscalar_ptr_iterator_tag@0@U_Range_checked_iterator_tag@0@@Z ; std::_Uninit_copy<CvDllPathFinderUpdateListData *,CvDllPathFinderUpdateListData *,std::allocator<CvDllPathFinderUpdateListData> >
; Function compile flags: /Ogtpy
; File c:\program files (x86)\microsoft visual studio 9.0\vc\include\memory
;	COMDAT ??$_Uninit_copy@PAUCvDllPathFinderUpdateListData@@PAU1@V?$allocator@UCvDllPathFinderUpdateListData@@@std@@@std@@YAPAUCvDllPathFinderUpdateListData@@PAU1@00AAV?$allocator@UCvDllPathFinderUpdateListData@@@0@U_Nonscalar_ptr_iterator_tag@0@U_Range_checked_iterator_tag@0@@Z
_TEXT	SEGMENT
__First$ = 8						; size = 4
__Last$ = 12						; size = 4
__Dest$ = 16						; size = 4
__Al$ = 20						; size = 4
___formal$ = 24						; size = 1
___formal$ = 28						; size = 1
??$_Uninit_copy@PAUCvDllPathFinderUpdateListData@@PAU1@V?$allocator@UCvDllPathFinderUpdateListData@@@std@@@std@@YAPAUCvDllPathFinderUpdateListData@@PAU1@00AAV?$allocator@UCvDllPathFinderUpdateListData@@@0@U_Nonscalar_ptr_iterator_tag@0@U_Range_checked_iterator_tag@0@@Z PROC ; std::_Uninit_copy<CvDllPathFinderUpdateListData *,CvDllPathFinderUpdateListData *,std::allocator<CvDllPathFinderUpdateListData> >, COMDAT

; 125  : 	_DEBUG_RANGE(_First, _Last);
; 126  : 	_DEBUG_POINTER(_Dest);
; 127  : 	_FwdIt _Next = _Dest;
; 128  : 
; 129  : 	_TRY_BEGIN
; 130  : 	for (; _First != _Last; ++_Dest, ++_First)

	mov	ecx, DWORD PTR __First$[esp-4]
	mov	edx, DWORD PTR __Last$[esp-4]
	mov	eax, DWORD PTR __Dest$[esp-4]
	cmp	ecx, edx
	je	SHORT $LN4@Uninit_cop
	push	esi
$LL6@Uninit_cop:

; 131  : 		_Al.construct(_Dest, *_First);

	test	eax, eax
	je	SHORT $LN5@Uninit_cop
	mov	esi, DWORD PTR [ecx]
	mov	DWORD PTR [eax], esi
	mov	esi, DWORD PTR [ecx+4]
	mov	DWORD PTR [eax+4], esi
	mov	esi, DWORD PTR [ecx+8]
	mov	DWORD PTR [eax+8], esi
$LN5@Uninit_cop:
	add	ecx, 12					; 0000000cH
	add	eax, 12					; 0000000cH
	cmp	ecx, edx
	jne	SHORT $LL6@Uninit_cop
	pop	esi
$LN4@Uninit_cop:

; 132  : 	_CATCH_ALL
; 133  : 	for (; _Next != _Dest; ++_Next)
; 134  : 		_Al.destroy(_Next);
; 135  : 	_RERAISE;
; 136  : 	_CATCH_END
; 137  : 	return (_Dest);
; 138  : 	}

	ret	0
??$_Uninit_copy@PAUCvDllPathFinderUpdateListData@@PAU1@V?$allocator@UCvDllPathFinderUpdateListData@@@std@@@std@@YAPAUCvDllPathFinderUpdateListData@@PAU1@00AAV?$allocator@UCvDllPathFinderUpdateListData@@@0@U_Nonscalar_ptr_iterator_tag@0@U_Range_checked_iterator_tag@0@@Z ENDP ; std::_Uninit_copy<CvDllPathFinderUpdateListData *,CvDllPathFinderUpdateListData *,std::allocator<CvDllPathFinderUpdateListData> >
_TEXT	ENDS
PUBLIC	??$_Destroy_range@V?$allocator@UCvDllPathFinderUpdateListData@@@std@@@std@@YAXPAUCvDllPathFinderUpdateListData@@0AAV?$allocator@UCvDllPathFinderUpdateListData@@@0@@Z ; std::_Destroy_range<std::allocator<CvDllPathFinderUpdateListData> >
; Function compile flags: /Ogtpy
; File c:\program files (x86)\microsoft visual studio 9.0\vc\include\xmemory
;	COMDAT ??$_Destroy_range@V?$allocator@UCvDllPathFinderUpdateListData@@@std@@@std@@YAXPAUCvDllPathFinderUpdateListData@@0AAV?$allocator@UCvDllPathFinderUpdateListData@@@0@@Z
_TEXT	SEGMENT
__First$ = 8						; size = 4
__Last$ = 12						; size = 4
__Al$ = 16						; size = 4
??$_Destroy_range@V?$allocator@UCvDllPathFinderUpdateListData@@@std@@@std@@YAXPAUCvDllPathFinderUpdateListData@@0AAV?$allocator@UCvDllPathFinderUpdateListData@@@0@@Z PROC ; std::_Destroy_range<std::allocator<CvDllPathFinderUpdateListData> >, COMDAT

; 225  : 	_Destroy_range(_First, _Last, _Al, _Ptr_cat(_First, _Last));
; 226  : 	}

	ret	0
??$_Destroy_range@V?$allocator@UCvDllPathFinderUpdateListData@@@std@@@std@@YAXPAUCvDllPathFinderUpdateListData@@0AAV?$allocator@UCvDllPathFinderUpdateListData@@@0@@Z ENDP ; std::_Destroy_range<std::allocator<CvDllPathFinderUpdateListData> >
_TEXT	ENDS
PUBLIC	?_Buy@?$vector@UCvDllPathFinderUpdateListData@@V?$allocator@UCvDllPathFinderUpdateListData@@@std@@@std@@IAE_NI@Z ; std::vector<CvDllPathFinderUpdateListData,std::allocator<CvDllPathFinderUpdateListData> >::_Buy
; Function compile flags: /Ogtpy
; File c:\program files (x86)\microsoft visual studio 9.0\vc\include\vector
;	COMDAT ?_Buy@?$vector@UCvDllPathFinderUpdateListData@@V?$allocator@UCvDllPathFinderUpdateListData@@@std@@@std@@IAE_NI@Z
_TEXT	SEGMENT
__Capacity$ = 8						; size = 4
?_Buy@?$vector@UCvDllPathFinderUpdateListData@@V?$allocator@UCvDllPathFinderUpdateListData@@@std@@@std@@IAE_NI@Z PROC ; std::vector<CvDllPathFinderUpdateListData,std::allocator<CvDllPathFinderUpdateListData> >::_Buy, COMDAT
; _this$ = ecx

; 1102 : 		{	// allocate array with _Capacity elements

	push	esi

; 1103 : 		_Myfirst = 0, _Mylast = 0, _Myend = 0;

	xor	eax, eax
	push	edi

; 1104 : 		if (_Capacity == 0)

	mov	edi, DWORD PTR __Capacity$[esp+4]
	mov	esi, ecx
	mov	DWORD PTR [esi+4], eax
	mov	DWORD PTR [esi+8], eax
	mov	DWORD PTR [esi+12], eax
	cmp	edi, eax
	jne	SHORT $LN4@Buy
	pop	edi

; 1105 : 			return (false);

	xor	al, al
	pop	esi

; 1115 : 		}

	ret	4
$LN4@Buy:

; 1106 : 		else if (max_size() < _Capacity)

	cmp	edi, 357913941				; 15555555H
	jbe	SHORT $LN2@Buy

; 1107 : 			_Xlen();	// result too long

	call	?_Xlen@?$vector@UCvDllPathFinderUpdateListData@@V?$allocator@UCvDllPathFinderUpdateListData@@@std@@@std@@KAXXZ ; std::vector<CvDllPathFinderUpdateListData,std::allocator<CvDllPathFinderUpdateListData> >::_Xlen
$LN16@Buy:
$LN2@Buy:

; 1108 : 		else
; 1109 : 			{	// nonempty array, allocate storage
; 1110 : 			_Myfirst = this->_Alval.allocate(_Capacity);

	push	eax
	push	edi
	call	??$_Allocate@UCvDllPathFinderUpdateListData@@@std@@YAPAUCvDllPathFinderUpdateListData@@IPAU1@@Z ; std::_Allocate<CvDllPathFinderUpdateListData>

; 1111 : 			_Mylast = _Myfirst;
; 1112 : 			_Myend = _Myfirst + _Capacity;

	lea	ecx, DWORD PTR [edi+edi*2]
	add	esp, 8
	lea	edx, DWORD PTR [eax+ecx*4]
	mov	DWORD PTR [esi+4], eax
	mov	DWORD PTR [esi+8], eax
	pop	edi
	mov	DWORD PTR [esi+12], edx

; 1113 : 			}
; 1114 : 		return (true);

	mov	al, 1
	pop	esi

; 1115 : 		}

	ret	4
$LN15@Buy:
?_Buy@?$vector@UCvDllPathFinderUpdateListData@@V?$allocator@UCvDllPathFinderUpdateListData@@@std@@@std@@IAE_NI@Z ENDP ; std::vector<CvDllPathFinderUpdateListData,std::allocator<CvDllPathFinderUpdateListData> >::_Buy
_TEXT	ENDS
PUBLIC	??$_Uninit_copy@V?$_Vector_const_iterator@UCvDllPathFinderUpdateListData@@V?$allocator@UCvDllPathFinderUpdateListData@@@std@@@std@@PAUCvDllPathFinderUpdateListData@@V?$allocator@UCvDllPathFinderUpdateListData@@@2@@std@@YAPAUCvDllPathFinderUpdateListData@@V?$_Vector_const_iterator@UCvDllPathFinderUpdateListData@@V?$allocator@UCvDllPathFinderUpdateListData@@@std@@@0@0PAU1@AAV?$allocator@UCvDllPathFinderUpdateListData@@@0@U_Nonscalar_ptr_iterator_tag@0@U_Range_checked_iterator_tag@0@@Z ; std::_Uninit_copy<std::_Vector_const_iterator<CvDllPathFinderUpdateListData,std::allocator<CvDllPathFinderUpdateListData> >,CvDllPathFinderUpdateListData *,std::allocator<CvDllPathFinderUpdateListData> >
; Function compile flags: /Ogtpy
; File c:\program files (x86)\microsoft visual studio 9.0\vc\include\memory
;	COMDAT ??$_Uninit_copy@V?$_Vector_const_iterator@UCvDllPathFinderUpdateListData@@V?$allocator@UCvDllPathFinderUpdateListData@@@std@@@std@@PAUCvDllPathFinderUpdateListData@@V?$allocator@UCvDllPathFinderUpdateListData@@@2@@std@@YAPAUCvDllPathFinderUpdateListData@@V?$_Vector_const_iterator@UCvDllPathFinderUpdateListData@@V?$allocator@UCvDllPathFinderUpdateListData@@@std@@@0@0PAU1@AAV?$allocator@UCvDllPathFinderUpdateListData@@@0@U_Nonscalar_ptr_iterator_tag@0@U_Range_checked_iterator_tag@0@@Z
_TEXT	SEGMENT
__First$ = 8						; size = 4
__Last$ = 12						; size = 4
__Dest$ = 16						; size = 4
__Al$ = 20						; size = 4
___formal$ = 24						; size = 1
___formal$ = 28						; size = 1
??$_Uninit_copy@V?$_Vector_const_iterator@UCvDllPathFinderUpdateListData@@V?$allocator@UCvDllPathFinderUpdateListData@@@std@@@std@@PAUCvDllPathFinderUpdateListData@@V?$allocator@UCvDllPathFinderUpdateListData@@@2@@std@@YAPAUCvDllPathFinderUpdateListData@@V?$_Vector_const_iterator@UCvDllPathFinderUpdateListData@@V?$allocator@UCvDllPathFinderUpdateListData@@@std@@@0@0PAU1@AAV?$allocator@UCvDllPathFinderUpdateListData@@@0@U_Nonscalar_ptr_iterator_tag@0@U_Range_checked_iterator_tag@0@@Z PROC ; std::_Uninit_copy<std::_Vector_const_iterator<CvDllPathFinderUpdateListData,std::allocator<CvDllPathFinderUpdateListData> >,CvDllPathFinderUpdateListData *,std::allocator<CvDllPathFinderUpdateListData> >, COMDAT

; 125  : 	_DEBUG_RANGE(_First, _Last);
; 126  : 	_DEBUG_POINTER(_Dest);
; 127  : 	_FwdIt _Next = _Dest;
; 128  : 
; 129  : 	_TRY_BEGIN
; 130  : 	for (; _First != _Last; ++_Dest, ++_First)

	mov	ecx, DWORD PTR __First$[esp-4]
	mov	edx, DWORD PTR __Last$[esp-4]
	mov	eax, DWORD PTR __Dest$[esp-4]
	cmp	ecx, edx
	je	SHORT $LN4@Uninit_cop@2
	push	esi
$LL14@Uninit_cop@2:

; 131  : 		_Al.construct(_Dest, *_First);

	test	eax, eax
	je	SHORT $LN5@Uninit_cop@2
	mov	esi, DWORD PTR [ecx]
	mov	DWORD PTR [eax], esi
	mov	esi, DWORD PTR [ecx+4]
	mov	DWORD PTR [eax+4], esi
	mov	esi, DWORD PTR [ecx+8]
	mov	DWORD PTR [eax+8], esi
$LN5@Uninit_cop@2:
	add	ecx, 12					; 0000000cH
	add	eax, 12					; 0000000cH
	mov	DWORD PTR __First$[esp], ecx
	cmp	ecx, edx
	jne	SHORT $LL14@Uninit_cop@2
	pop	esi
$LN4@Uninit_cop@2:

; 132  : 	_CATCH_ALL
; 133  : 	for (; _Next != _Dest; ++_Next)
; 134  : 		_Al.destroy(_Next);
; 135  : 	_RERAISE;
; 136  : 	_CATCH_END
; 137  : 	return (_Dest);
; 138  : 	}

	ret	0
??$_Uninit_copy@V?$_Vector_const_iterator@UCvDllPathFinderUpdateListData@@V?$allocator@UCvDllPathFinderUpdateListData@@@std@@@std@@PAUCvDllPathFinderUpdateListData@@V?$allocator@UCvDllPathFinderUpdateListData@@@2@@std@@YAPAUCvDllPathFinderUpdateListData@@V?$_Vector_const_iterator@UCvDllPathFinderUpdateListData@@V?$allocator@UCvDllPathFinderUpdateListData@@@std@@@0@0PAU1@AAV?$allocator@UCvDllPathFinderUpdateListData@@@0@U_Nonscalar_ptr_iterator_tag@0@U_Range_checked_iterator_tag@0@@Z ENDP ; std::_Uninit_copy<std::_Vector_const_iterator<CvDllPathFinderUpdateListData,std::allocator<CvDllPathFinderUpdateListData> >,CvDllPathFinderUpdateListData *,std::allocator<CvDllPathFinderUpdateListData> >
_TEXT	ENDS
PUBLIC	??$unchecked_uninitialized_copy@PAUCvDllPathFinderUpdateListData@@PAU1@V?$allocator@UCvDllPathFinderUpdateListData@@@std@@@stdext@@YAPAUCvDllPathFinderUpdateListData@@PAU1@00AAV?$allocator@UCvDllPathFinderUpdateListData@@@std@@@Z ; stdext::unchecked_uninitialized_copy<CvDllPathFinderUpdateListData *,CvDllPathFinderUpdateListData *,std::allocator<CvDllPathFinderUpdateListData> >
; Function compile flags: /Ogtpy
;	COMDAT ??$unchecked_uninitialized_copy@PAUCvDllPathFinderUpdateListData@@PAU1@V?$allocator@UCvDllPathFinderUpdateListData@@@std@@@stdext@@YAPAUCvDllPathFinderUpdateListData@@PAU1@00AAV?$allocator@UCvDllPathFinderUpdateListData@@@std@@@Z
_TEXT	SEGMENT
$T220547 = -4						; size = 1
__Cat$220552 = -4					; size = 1
__First$ = 8						; size = 4
__Last$ = 12						; size = 4
__Dest$ = 16						; size = 4
__Al$ = 20						; size = 4
??$unchecked_uninitialized_copy@PAUCvDllPathFinderUpdateListData@@PAU1@V?$allocator@UCvDllPathFinderUpdateListData@@@std@@@stdext@@YAPAUCvDllPathFinderUpdateListData@@PAU1@00AAV?$allocator@UCvDllPathFinderUpdateListData@@@std@@@Z PROC ; stdext::unchecked_uninitialized_copy<CvDllPathFinderUpdateListData *,CvDllPathFinderUpdateListData *,std::allocator<CvDllPathFinderUpdateListData> >, COMDAT

; 819  : 	{	// copy [_First, _Last) to raw _Dest, using _Al

	push	ecx

; 820  : 	return (_STD _Uninit_copy(_CHECKED_BASE(_First),
; 821  : 		_CHECKED_BASE(_Last), _Dest, _Al,
; 822  : 		_STD _Ptr_cat(_First, _Dest), _STD _Range_checked_iterator_tag()));

	mov	edx, DWORD PTR __Al$[esp]
	mov	BYTE PTR $T220547[esp+4], 0
	mov	eax, DWORD PTR $T220547[esp+4]
	mov	ecx, DWORD PTR __Cat$220552[esp+4]
	push	eax
	mov	eax, DWORD PTR __Dest$[esp+4]
	push	ecx
	mov	ecx, DWORD PTR __Last$[esp+8]
	push	edx
	mov	edx, DWORD PTR __First$[esp+12]
	push	eax
	push	ecx
	push	edx
	call	??$_Uninit_copy@PAUCvDllPathFinderUpdateListData@@PAU1@V?$allocator@UCvDllPathFinderUpdateListData@@@std@@@std@@YAPAUCvDllPathFinderUpdateListData@@PAU1@00AAV?$allocator@UCvDllPathFinderUpdateListData@@@0@U_Nonscalar_ptr_iterator_tag@0@U_Range_checked_iterator_tag@0@@Z ; std::_Uninit_copy<CvDllPathFinderUpdateListData *,CvDllPathFinderUpdateListData *,std::allocator<CvDllPathFinderUpdateListData> >

; 823  : 	}

	add	esp, 28					; 0000001cH
	ret	0
??$unchecked_uninitialized_copy@PAUCvDllPathFinderUpdateListData@@PAU1@V?$allocator@UCvDllPathFinderUpdateListData@@@std@@@stdext@@YAPAUCvDllPathFinderUpdateListData@@PAU1@00AAV?$allocator@UCvDllPathFinderUpdateListData@@@std@@@Z ENDP ; stdext::unchecked_uninitialized_copy<CvDllPathFinderUpdateListData *,CvDllPathFinderUpdateListData *,std::allocator<CvDllPathFinderUpdateListData> >
_TEXT	ENDS
PUBLIC	?_Destroy@?$vector@UCvDllPathFinderUpdateListData@@V?$allocator@UCvDllPathFinderUpdateListData@@@std@@@std@@IAEXPAUCvDllPathFinderUpdateListData@@0@Z ; std::vector<CvDllPathFinderUpdateListData,std::allocator<CvDllPathFinderUpdateListData> >::_Destroy
; Function compile flags: /Ogtpy
; File c:\program files (x86)\microsoft visual studio 9.0\vc\include\vector
;	COMDAT ?_Destroy@?$vector@UCvDllPathFinderUpdateListData@@V?$allocator@UCvDllPathFinderUpdateListData@@@std@@@std@@IAEXPAUCvDllPathFinderUpdateListData@@0@Z
_TEXT	SEGMENT
__First$ = 8						; size = 4
__Last$ = 12						; size = 4
?_Destroy@?$vector@UCvDllPathFinderUpdateListData@@V?$allocator@UCvDllPathFinderUpdateListData@@@std@@@std@@IAEXPAUCvDllPathFinderUpdateListData@@0@Z PROC ; std::vector<CvDllPathFinderUpdateListData,std::allocator<CvDllPathFinderUpdateListData> >::_Destroy, COMDAT
; _this$ = ecx

; 1119 : 		_Destroy_range(_First, _Last, this->_Alval);
; 1120 : 		}

	ret	8
?_Destroy@?$vector@UCvDllPathFinderUpdateListData@@V?$allocator@UCvDllPathFinderUpdateListData@@@std@@@std@@IAEXPAUCvDllPathFinderUpdateListData@@0@Z ENDP ; std::vector<CvDllPathFinderUpdateListData,std::allocator<CvDllPathFinderUpdateListData> >::_Destroy
_TEXT	ENDS
PUBLIC	??$unchecked_uninitialized_copy@V?$_Vector_const_iterator@UCvDllPathFinderUpdateListData@@V?$allocator@UCvDllPathFinderUpdateListData@@@std@@@std@@PAUCvDllPathFinderUpdateListData@@V?$allocator@UCvDllPathFinderUpdateListData@@@2@@stdext@@YAPAUCvDllPathFinderUpdateListData@@V?$_Vector_const_iterator@UCvDllPathFinderUpdateListData@@V?$allocator@UCvDllPathFinderUpdateListData@@@std@@@std@@0PAU1@AAV?$allocator@UCvDllPathFinderUpdateListData@@@3@@Z ; stdext::unchecked_uninitialized_copy<std::_Vector_const_iterator<CvDllPathFinderUpdateListData,std::allocator<CvDllPathFinderUpdateListData> >,CvDllPathFinderUpdateListData *,std::allocator<CvDllPathFinderUpdateListData> >
; Function compile flags: /Ogtpy
; File c:\program files (x86)\microsoft visual studio 9.0\vc\include\memory
;	COMDAT ??$unchecked_uninitialized_copy@V?$_Vector_const_iterator@UCvDllPathFinderUpdateListData@@V?$allocator@UCvDllPathFinderUpdateListData@@@std@@@std@@PAUCvDllPathFinderUpdateListData@@V?$allocator@UCvDllPathFinderUpdateListData@@@2@@stdext@@YAPAUCvDllPathFinderUpdateListData@@V?$_Vector_const_iterator@UCvDllPathFinderUpdateListData@@V?$allocator@UCvDllPathFinderUpdateListData@@@std@@@std@@0PAU1@AAV?$allocator@UCvDllPathFinderUpdateListData@@@3@@Z
_TEXT	SEGMENT
$T220559 = -4						; size = 1
__Cat$220563 = -4					; size = 1
__First$ = 8						; size = 4
__Last$ = 12						; size = 4
__Dest$ = 16						; size = 4
__Al$ = 20						; size = 4
??$unchecked_uninitialized_copy@V?$_Vector_const_iterator@UCvDllPathFinderUpdateListData@@V?$allocator@UCvDllPathFinderUpdateListData@@@std@@@std@@PAUCvDllPathFinderUpdateListData@@V?$allocator@UCvDllPathFinderUpdateListData@@@2@@stdext@@YAPAUCvDllPathFinderUpdateListData@@V?$_Vector_const_iterator@UCvDllPathFinderUpdateListData@@V?$allocator@UCvDllPathFinderUpdateListData@@@std@@@std@@0PAU1@AAV?$allocator@UCvDllPathFinderUpdateListData@@@3@@Z PROC ; stdext::unchecked_uninitialized_copy<std::_Vector_const_iterator<CvDllPathFinderUpdateListData,std::allocator<CvDllPathFinderUpdateListData> >,CvDllPathFinderUpdateListData *,std::allocator<CvDllPathFinderUpdateListData> >, COMDAT

; 819  : 	{	// copy [_First, _Last) to raw _Dest, using _Al

	push	ecx

; 820  : 	return (_STD _Uninit_copy(_CHECKED_BASE(_First),
; 821  : 		_CHECKED_BASE(_Last), _Dest, _Al,
; 822  : 		_STD _Ptr_cat(_First, _Dest), _STD _Range_checked_iterator_tag()));

	mov	edx, DWORD PTR __Al$[esp]
	mov	BYTE PTR $T220559[esp+4], 0
	mov	eax, DWORD PTR $T220559[esp+4]
	mov	ecx, DWORD PTR __Cat$220563[esp+4]
	push	eax
	mov	eax, DWORD PTR __Dest$[esp+4]
	push	ecx
	mov	ecx, DWORD PTR __Last$[esp+8]
	push	edx
	mov	edx, DWORD PTR __First$[esp+12]
	push	eax
	push	ecx
	push	edx
	call	??$_Uninit_copy@V?$_Vector_const_iterator@UCvDllPathFinderUpdateListData@@V?$allocator@UCvDllPathFinderUpdateListData@@@std@@@std@@PAUCvDllPathFinderUpdateListData@@V?$allocator@UCvDllPathFinderUpdateListData@@@2@@std@@YAPAUCvDllPathFinderUpdateListData@@V?$_Vector_const_iterator@UCvDllPathFinderUpdateListData@@V?$allocator@UCvDllPathFinderUpdateListData@@@std@@@0@0PAU1@AAV?$allocator@UCvDllPathFinderUpdateListData@@@0@U_Nonscalar_ptr_iterator_tag@0@U_Range_checked_iterator_tag@0@@Z ; std::_Uninit_copy<std::_Vector_const_iterator<CvDllPathFinderUpdateListData,std::allocator<CvDllPathFinderUpdateListData> >,CvDllPathFinderUpdateListData *,std::allocator<CvDllPathFinderUpdateListData> >

; 823  : 	}

	add	esp, 28					; 0000001cH
	ret	0
??$unchecked_uninitialized_copy@V?$_Vector_const_iterator@UCvDllPathFinderUpdateListData@@V?$allocator@UCvDllPathFinderUpdateListData@@@std@@@std@@PAUCvDllPathFinderUpdateListData@@V?$allocator@UCvDllPathFinderUpdateListData@@@2@@stdext@@YAPAUCvDllPathFinderUpdateListData@@V?$_Vector_const_iterator@UCvDllPathFinderUpdateListData@@V?$allocator@UCvDllPathFinderUpdateListData@@@std@@@std@@0PAU1@AAV?$allocator@UCvDllPathFinderUpdateListData@@@3@@Z ENDP ; stdext::unchecked_uninitialized_copy<std::_Vector_const_iterator<CvDllPathFinderUpdateListData,std::allocator<CvDllPathFinderUpdateListData> >,CvDllPathFinderUpdateListData *,std::allocator<CvDllPathFinderUpdateListData> >
_TEXT	ENDS
PUBLIC	??$_Uninit_move@PAUCvDllPathFinderUpdateListData@@PAU1@V?$allocator@UCvDllPathFinderUpdateListData@@@std@@U_Undefined_move_tag@3@@std@@YAPAUCvDllPathFinderUpdateListData@@PAU1@00AAV?$allocator@UCvDllPathFinderUpdateListData@@@0@U_Undefined_move_tag@0@U_Range_checked_iterator_tag@0@@Z ; std::_Uninit_move<CvDllPathFinderUpdateListData *,CvDllPathFinderUpdateListData *,std::allocator<CvDllPathFinderUpdateListData>,std::_Undefined_move_tag>
; Function compile flags: /Ogtpy
;	COMDAT ??$_Uninit_move@PAUCvDllPathFinderUpdateListData@@PAU1@V?$allocator@UCvDllPathFinderUpdateListData@@@std@@U_Undefined_move_tag@3@@std@@YAPAUCvDllPathFinderUpdateListData@@PAU1@00AAV?$allocator@UCvDllPathFinderUpdateListData@@@0@U_Undefined_move_tag@0@U_Range_checked_iterator_tag@0@@Z
_TEXT	SEGMENT
$T220577 = -4						; size = 1
__First$ = 8						; size = 4
__Last$ = 12						; size = 4
__Cat$220581 = 16					; size = 1
__Dest$ = 16						; size = 4
__Al$ = 20						; size = 4
___formal$ = 24						; size = 1
___formal$ = 28						; size = 1
??$_Uninit_move@PAUCvDllPathFinderUpdateListData@@PAU1@V?$allocator@UCvDllPathFinderUpdateListData@@@std@@U_Undefined_move_tag@3@@std@@YAPAUCvDllPathFinderUpdateListData@@PAU1@00AAV?$allocator@UCvDllPathFinderUpdateListData@@@0@U_Undefined_move_tag@0@U_Range_checked_iterator_tag@0@@Z PROC ; std::_Uninit_move<CvDllPathFinderUpdateListData *,CvDllPathFinderUpdateListData *,std::allocator<CvDllPathFinderUpdateListData>,std::_Undefined_move_tag>, COMDAT

; 206  : 	{	// move defaults to copy if there is not a more effecient way

	push	ecx

; 207  : 	return (_STDEXT unchecked_uninitialized_copy(_First, _Last, _Dest, _Al));

	mov	ecx, DWORD PTR __Cat$220581[esp]
	mov	edx, DWORD PTR __Al$[esp]
	mov	BYTE PTR $T220577[esp+4], 0
	mov	eax, DWORD PTR $T220577[esp+4]
	push	eax
	mov	eax, DWORD PTR __Dest$[esp+4]
	push	ecx
	mov	ecx, DWORD PTR __Last$[esp+8]
	push	edx
	mov	edx, DWORD PTR __First$[esp+12]
	push	eax
	push	ecx
	push	edx
	call	??$_Uninit_copy@PAUCvDllPathFinderUpdateListData@@PAU1@V?$allocator@UCvDllPathFinderUpdateListData@@@std@@@std@@YAPAUCvDllPathFinderUpdateListData@@PAU1@00AAV?$allocator@UCvDllPathFinderUpdateListData@@@0@U_Nonscalar_ptr_iterator_tag@0@U_Range_checked_iterator_tag@0@@Z ; std::_Uninit_copy<CvDllPathFinderUpdateListData *,CvDllPathFinderUpdateListData *,std::allocator<CvDllPathFinderUpdateListData> >

; 208  : 	}

	add	esp, 28					; 0000001cH
	ret	0
??$_Uninit_move@PAUCvDllPathFinderUpdateListData@@PAU1@V?$allocator@UCvDllPathFinderUpdateListData@@@std@@U_Undefined_move_tag@3@@std@@YAPAUCvDllPathFinderUpdateListData@@PAU1@00AAV?$allocator@UCvDllPathFinderUpdateListData@@@0@U_Undefined_move_tag@0@U_Range_checked_iterator_tag@0@@Z ENDP ; std::_Uninit_move<CvDllPathFinderUpdateListData *,CvDllPathFinderUpdateListData *,std::allocator<CvDllPathFinderUpdateListData>,std::_Undefined_move_tag>
_TEXT	ENDS
PUBLIC	?_Tidy@?$vector@UCvDllPathFinderUpdateListData@@V?$allocator@UCvDllPathFinderUpdateListData@@@std@@@std@@IAEXXZ ; std::vector<CvDllPathFinderUpdateListData,std::allocator<CvDllPathFinderUpdateListData> >::_Tidy
; Function compile flags: /Ogtpy
; File c:\program files (x86)\microsoft visual studio 9.0\vc\include\vector
;	COMDAT ?_Tidy@?$vector@UCvDllPathFinderUpdateListData@@V?$allocator@UCvDllPathFinderUpdateListData@@@std@@@std@@IAEXXZ
_TEXT	SEGMENT
?_Tidy@?$vector@UCvDllPathFinderUpdateListData@@V?$allocator@UCvDllPathFinderUpdateListData@@@std@@@std@@IAEXXZ PROC ; std::vector<CvDllPathFinderUpdateListData,std::allocator<CvDllPathFinderUpdateListData> >::_Tidy, COMDAT
; _this$ = ecx

; 1123 : 		{	// free all storage

	push	esi
	mov	esi, ecx

; 1124 : 		if (_Myfirst != 0)

	mov	eax, DWORD PTR [esi+4]
	test	eax, eax
	je	SHORT $LN4@Tidy

; 1125 : 			{	// something to free, destroy and deallocate it
; 1126 : 
; 1127 :  #if _HAS_ITERATOR_DEBUGGING
; 1128 : 			this->_Orphan_all();
; 1129 :  #endif /* _HAS_ITERATOR_DEBUGGING */
; 1130 : 
; 1131 : 			_Destroy(_Myfirst, _Mylast);
; 1132 : 			this->_Alval.deallocate(_Myfirst, _Myend - _Myfirst);

	push	eax
	call	??3@YAXPAX@Z				; operator delete
	add	esp, 4
$LN4@Tidy:

; 1133 : 			}
; 1134 : 		_Myfirst = 0, _Mylast = 0, _Myend = 0;

	mov	DWORD PTR [esi+4], 0
	mov	DWORD PTR [esi+8], 0
	mov	DWORD PTR [esi+12], 0
	pop	esi

; 1135 : 		}

	ret	0
?_Tidy@?$vector@UCvDllPathFinderUpdateListData@@V?$allocator@UCvDllPathFinderUpdateListData@@@std@@@std@@IAEXXZ ENDP ; std::vector<CvDllPathFinderUpdateListData,std::allocator<CvDllPathFinderUpdateListData> >::_Tidy
_TEXT	ENDS
PUBLIC	??$_Ucopy@V?$_Vector_const_iterator@UCvDllPathFinderUpdateListData@@V?$allocator@UCvDllPathFinderUpdateListData@@@std@@@std@@@?$vector@UCvDllPathFinderUpdateListData@@V?$allocator@UCvDllPathFinderUpdateListData@@@std@@@std@@IAEPAUCvDllPathFinderUpdateListData@@V?$_Vector_const_iterator@UCvDllPathFinderUpdateListData@@V?$allocator@UCvDllPathFinderUpdateListData@@@std@@@1@0PAU2@@Z ; std::vector<CvDllPathFinderUpdateListData,std::allocator<CvDllPathFinderUpdateListData> >::_Ucopy<std::_Vector_const_iterator<CvDllPathFinderUpdateListData,std::allocator<CvDllPathFinderUpdateListData> > >
; Function compile flags: /Ogtpy
;	COMDAT ??$_Ucopy@V?$_Vector_const_iterator@UCvDllPathFinderUpdateListData@@V?$allocator@UCvDllPathFinderUpdateListData@@@std@@@std@@@?$vector@UCvDllPathFinderUpdateListData@@V?$allocator@UCvDllPathFinderUpdateListData@@@std@@@std@@IAEPAUCvDllPathFinderUpdateListData@@V?$_Vector_const_iterator@UCvDllPathFinderUpdateListData@@V?$allocator@UCvDllPathFinderUpdateListData@@@std@@@1@0PAU2@@Z
_TEXT	SEGMENT
$T220604 = -4						; size = 1
__First$ = 8						; size = 4
__Last$ = 12						; size = 4
__Cat$220607 = 16					; size = 1
__Ptr$ = 16						; size = 4
??$_Ucopy@V?$_Vector_const_iterator@UCvDllPathFinderUpdateListData@@V?$allocator@UCvDllPathFinderUpdateListData@@@std@@@std@@@?$vector@UCvDllPathFinderUpdateListData@@V?$allocator@UCvDllPathFinderUpdateListData@@@std@@@std@@IAEPAUCvDllPathFinderUpdateListData@@V?$_Vector_const_iterator@UCvDllPathFinderUpdateListData@@V?$allocator@UCvDllPathFinderUpdateListData@@@std@@@1@0PAU2@@Z PROC ; std::vector<CvDllPathFinderUpdateListData,std::allocator<CvDllPathFinderUpdateListData> >::_Ucopy<std::_Vector_const_iterator<CvDllPathFinderUpdateListData,std::allocator<CvDllPathFinderUpdateListData> > >, COMDAT
; _this$ = ecx

; 1138 : 		pointer _Ucopy(_Iter _First, _Iter _Last, pointer _Ptr)

	push	ecx

; 1139 : 		{	// copy initializing [_First, _Last), using allocator
; 1140 : 		return (_STDEXT unchecked_uninitialized_copy(_First, _Last,
; 1141 : 			_Ptr, this->_Alval));

	mov	edx, DWORD PTR __Cat$220607[esp]
	mov	BYTE PTR $T220604[esp+4], 0
	mov	eax, DWORD PTR $T220604[esp+4]
	push	eax
	mov	eax, DWORD PTR __Ptr$[esp+4]
	push	edx
	mov	edx, DWORD PTR __First$[esp+8]
	push	ecx
	mov	ecx, DWORD PTR __Last$[esp+12]
	push	eax
	push	ecx
	push	edx
	call	??$_Uninit_copy@V?$_Vector_const_iterator@UCvDllPathFinderUpdateListData@@V?$allocator@UCvDllPathFinderUpdateListData@@@std@@@std@@PAUCvDllPathFinderUpdateListData@@V?$allocator@UCvDllPathFinderUpdateListData@@@2@@std@@YAPAUCvDllPathFinderUpdateListData@@V?$_Vector_const_iterator@UCvDllPathFinderUpdateListData@@V?$allocator@UCvDllPathFinderUpdateListData@@@std@@@0@0PAU1@AAV?$allocator@UCvDllPathFinderUpdateListData@@@0@U_Nonscalar_ptr_iterator_tag@0@U_Range_checked_iterator_tag@0@@Z ; std::_Uninit_copy<std::_Vector_const_iterator<CvDllPathFinderUpdateListData,std::allocator<CvDllPathFinderUpdateListData> >,CvDllPathFinderUpdateListData *,std::allocator<CvDllPathFinderUpdateListData> >

; 1142 : 		}

	add	esp, 28					; 0000001cH
	ret	12					; 0000000cH
??$_Ucopy@V?$_Vector_const_iterator@UCvDllPathFinderUpdateListData@@V?$allocator@UCvDllPathFinderUpdateListData@@@std@@@std@@@?$vector@UCvDllPathFinderUpdateListData@@V?$allocator@UCvDllPathFinderUpdateListData@@@std@@@std@@IAEPAUCvDllPathFinderUpdateListData@@V?$_Vector_const_iterator@UCvDllPathFinderUpdateListData@@V?$allocator@UCvDllPathFinderUpdateListData@@@std@@@1@0PAU2@@Z ENDP ; std::vector<CvDllPathFinderUpdateListData,std::allocator<CvDllPathFinderUpdateListData> >::_Ucopy<std::_Vector_const_iterator<CvDllPathFinderUpdateListData,std::allocator<CvDllPathFinderUpdateListData> > >
_TEXT	ENDS
PUBLIC	??$_Unchecked_uninitialized_move@PAUCvDllPathFinderUpdateListData@@PAU1@V?$allocator@UCvDllPathFinderUpdateListData@@@std@@@stdext@@YAPAUCvDllPathFinderUpdateListData@@PAU1@00AAV?$allocator@UCvDllPathFinderUpdateListData@@@std@@@Z ; stdext::_Unchecked_uninitialized_move<CvDllPathFinderUpdateListData *,CvDllPathFinderUpdateListData *,std::allocator<CvDllPathFinderUpdateListData> >
; Function compile flags: /Ogtpy
; File c:\program files (x86)\microsoft visual studio 9.0\vc\include\memory
;	COMDAT ??$_Unchecked_uninitialized_move@PAUCvDllPathFinderUpdateListData@@PAU1@V?$allocator@UCvDllPathFinderUpdateListData@@@std@@@stdext@@YAPAUCvDllPathFinderUpdateListData@@PAU1@00AAV?$allocator@UCvDllPathFinderUpdateListData@@@std@@@Z
_TEXT	SEGMENT
$T220641 = -4						; size = 1
__First$ = 8						; size = 4
__Last$ = 12						; size = 4
__Cat$220645 = 16					; size = 1
__Dest$ = 16						; size = 4
__Al$ = 20						; size = 4
??$_Unchecked_uninitialized_move@PAUCvDllPathFinderUpdateListData@@PAU1@V?$allocator@UCvDllPathFinderUpdateListData@@@std@@@stdext@@YAPAUCvDllPathFinderUpdateListData@@PAU1@00AAV?$allocator@UCvDllPathFinderUpdateListData@@@std@@@Z PROC ; stdext::_Unchecked_uninitialized_move<CvDllPathFinderUpdateListData *,CvDllPathFinderUpdateListData *,std::allocator<CvDllPathFinderUpdateListData> >, COMDAT

; 861  : 	{	// move [_First, _Last) to raw _Dest, using _Al

	push	ecx

; 862  : 	return (_STD _Uninit_move(_CHECKED_BASE(_First),
; 863  : 		_CHECKED_BASE(_Last), _Dest, _Al,
; 864  : 		_STD _Move_cat(_Dest), _STD _Range_checked_iterator_tag()));

	mov	ecx, DWORD PTR __Cat$220645[esp]
	mov	edx, DWORD PTR __Al$[esp]
	mov	BYTE PTR $T220641[esp+4], 0
	mov	eax, DWORD PTR $T220641[esp+4]
	push	eax
	mov	eax, DWORD PTR __Dest$[esp+4]
	push	ecx
	mov	ecx, DWORD PTR __Last$[esp+8]
	push	edx
	mov	edx, DWORD PTR __First$[esp+12]
	push	eax
	push	ecx
	push	edx
	call	??$_Uninit_copy@PAUCvDllPathFinderUpdateListData@@PAU1@V?$allocator@UCvDllPathFinderUpdateListData@@@std@@@std@@YAPAUCvDllPathFinderUpdateListData@@PAU1@00AAV?$allocator@UCvDllPathFinderUpdateListData@@@0@U_Nonscalar_ptr_iterator_tag@0@U_Range_checked_iterator_tag@0@@Z ; std::_Uninit_copy<CvDllPathFinderUpdateListData *,CvDllPathFinderUpdateListData *,std::allocator<CvDllPathFinderUpdateListData> >

; 865  : 	}

	add	esp, 28					; 0000001cH
	ret	0
??$_Unchecked_uninitialized_move@PAUCvDllPathFinderUpdateListData@@PAU1@V?$allocator@UCvDllPathFinderUpdateListData@@@std@@@stdext@@YAPAUCvDllPathFinderUpdateListData@@PAU1@00AAV?$allocator@UCvDllPathFinderUpdateListData@@@std@@@Z ENDP ; stdext::_Unchecked_uninitialized_move<CvDllPathFinderUpdateListData *,CvDllPathFinderUpdateListData *,std::allocator<CvDllPathFinderUpdateListData> >
_TEXT	ENDS
PUBLIC	??1?$vector@UCvDllPathFinderUpdateListData@@V?$allocator@UCvDllPathFinderUpdateListData@@@std@@@std@@QAE@XZ ; std::vector<CvDllPathFinderUpdateListData,std::allocator<CvDllPathFinderUpdateListData> >::~vector<CvDllPathFinderUpdateListData,std::allocator<CvDllPathFinderUpdateListData> >
; Function compile flags: /Ogtpy
; File c:\program files (x86)\microsoft visual studio 9.0\vc\include\vector
;	COMDAT ??1?$vector@UCvDllPathFinderUpdateListData@@V?$allocator@UCvDllPathFinderUpdateListData@@@std@@@std@@QAE@XZ
_TEXT	SEGMENT
??1?$vector@UCvDllPathFinderUpdateListData@@V?$allocator@UCvDllPathFinderUpdateListData@@@std@@@std@@QAE@XZ PROC ; std::vector<CvDllPathFinderUpdateListData,std::allocator<CvDllPathFinderUpdateListData> >::~vector<CvDllPathFinderUpdateListData,std::allocator<CvDllPathFinderUpdateListData> >, COMDAT
; _this$ = ecx

; 558  : 		{	// destroy the object

	push	esi
	mov	esi, ecx

; 559  : 		_Tidy();

	mov	eax, DWORD PTR [esi+4]
	test	eax, eax
	je	SHORT $LN6@vector
	push	eax
	call	??3@YAXPAX@Z				; operator delete
	add	esp, 4
$LN6@vector:
	mov	DWORD PTR [esi+4], 0
	mov	DWORD PTR [esi+8], 0
	mov	DWORD PTR [esi+12], 0
	pop	esi

; 560  : 		}

	ret	0
??1?$vector@UCvDllPathFinderUpdateListData@@V?$allocator@UCvDllPathFinderUpdateListData@@@std@@@std@@QAE@XZ ENDP ; std::vector<CvDllPathFinderUpdateListData,std::allocator<CvDllPathFinderUpdateListData> >::~vector<CvDllPathFinderUpdateListData,std::allocator<CvDllPathFinderUpdateListData> >
_TEXT	ENDS
PUBLIC	??$_Umove@PAUCvDllPathFinderUpdateListData@@@?$vector@UCvDllPathFinderUpdateListData@@V?$allocator@UCvDllPathFinderUpdateListData@@@std@@@std@@IAEPAUCvDllPathFinderUpdateListData@@PAU2@00@Z ; std::vector<CvDllPathFinderUpdateListData,std::allocator<CvDllPathFinderUpdateListData> >::_Umove<CvDllPathFinderUpdateListData *>
; Function compile flags: /Ogtpy
;	COMDAT ??$_Umove@PAUCvDllPathFinderUpdateListData@@@?$vector@UCvDllPathFinderUpdateListData@@V?$allocator@UCvDllPathFinderUpdateListData@@@std@@@std@@IAEPAUCvDllPathFinderUpdateListData@@PAU2@00@Z
_TEXT	SEGMENT
$T220711 = -4						; size = 1
__First$ = 8						; size = 4
__Last$ = 12						; size = 4
__Cat$220715 = 16					; size = 1
__Ptr$ = 16						; size = 4
??$_Umove@PAUCvDllPathFinderUpdateListData@@@?$vector@UCvDllPathFinderUpdateListData@@V?$allocator@UCvDllPathFinderUpdateListData@@@std@@@std@@IAEPAUCvDllPathFinderUpdateListData@@PAU2@00@Z PROC ; std::vector<CvDllPathFinderUpdateListData,std::allocator<CvDllPathFinderUpdateListData> >::_Umove<CvDllPathFinderUpdateListData *>, COMDAT
; _this$ = ecx

; 1145 : 		pointer _Umove(_Iter _First, _Iter _Last, pointer _Ptr)

	push	ecx

; 1146 : 		{	// move initializing [_First, _Last), using allocator
; 1147 : 		return (_STDEXT _Unchecked_uninitialized_move(_First, _Last,
; 1148 : 			_Ptr, this->_Alval));

	mov	edx, DWORD PTR __Cat$220715[esp]
	mov	BYTE PTR $T220711[esp+4], 0
	mov	eax, DWORD PTR $T220711[esp+4]
	push	eax
	mov	eax, DWORD PTR __Ptr$[esp+4]
	push	edx
	mov	edx, DWORD PTR __First$[esp+8]
	push	ecx
	mov	ecx, DWORD PTR __Last$[esp+12]
	push	eax
	push	ecx
	push	edx
	call	??$_Uninit_copy@PAUCvDllPathFinderUpdateListData@@PAU1@V?$allocator@UCvDllPathFinderUpdateListData@@@std@@@std@@YAPAUCvDllPathFinderUpdateListData@@PAU1@00AAV?$allocator@UCvDllPathFinderUpdateListData@@@0@U_Nonscalar_ptr_iterator_tag@0@U_Range_checked_iterator_tag@0@@Z ; std::_Uninit_copy<CvDllPathFinderUpdateListData *,CvDllPathFinderUpdateListData *,std::allocator<CvDllPathFinderUpdateListData> >

; 1149 : 		}

	add	esp, 28					; 0000001cH
	ret	12					; 0000000cH
??$_Umove@PAUCvDllPathFinderUpdateListData@@@?$vector@UCvDllPathFinderUpdateListData@@V?$allocator@UCvDllPathFinderUpdateListData@@@std@@@std@@IAEPAUCvDllPathFinderUpdateListData@@PAU2@00@Z ENDP ; std::vector<CvDllPathFinderUpdateListData,std::allocator<CvDllPathFinderUpdateListData> >::_Umove<CvDllPathFinderUpdateListData *>
_TEXT	ENDS
PUBLIC	??_7CvDllPathFinderUpdateList@@6B@		; CvDllPathFinderUpdateList::`vftable'
PUBLIC	??1CvDllPathFinderUpdateList@@QAE@XZ		; CvDllPathFinderUpdateList::~CvDllPathFinderUpdateList
PUBLIC	??_R4CvDllPathFinderUpdateList@@6B@		; CvDllPathFinderUpdateList::`RTTI Complete Object Locator'
PUBLIC	??_R0?AVCvDllPathFinderUpdateList@@@8		; CvDllPathFinderUpdateList `RTTI Type Descriptor'
PUBLIC	??_R3CvDllPathFinderUpdateList@@8		; CvDllPathFinderUpdateList::`RTTI Class Hierarchy Descriptor'
PUBLIC	??_R2CvDllPathFinderUpdateList@@8		; CvDllPathFinderUpdateList::`RTTI Base Class Array'
PUBLIC	??_R1A@?0A@EA@CvDllPathFinderUpdateList@@8	; CvDllPathFinderUpdateList::`RTTI Base Class Descriptor at (0,-1,0,64)'
PUBLIC	?Destroy@CvDllPathFinderUpdateList@@EAGXXZ	; CvDllPathFinderUpdateList::Destroy
;	COMDAT ??_R1A@?0A@EA@CvDllPathFinderUpdateList@@8
; File c:\program files (x86)\microsoft visual studio 9.0\vc\include\xmemory
rdata$r	SEGMENT
??_R1A@?0A@EA@CvDllPathFinderUpdateList@@8 DD FLAT:??_R0?AVCvDllPathFinderUpdateList@@@8 ; CvDllPathFinderUpdateList::`RTTI Base Class Descriptor at (0,-1,0,64)'
	DD	02H
	DD	00H
	DD	0ffffffffH
	DD	00H
	DD	040H
	DD	FLAT:??_R3CvDllPathFinderUpdateList@@8
rdata$r	ENDS
;	COMDAT ??_R2CvDllPathFinderUpdateList@@8
rdata$r	SEGMENT
??_R2CvDllPathFinderUpdateList@@8 DD FLAT:??_R1A@?0A@EA@CvDllPathFinderUpdateList@@8 ; CvDllPathFinderUpdateList::`RTTI Base Class Array'
	DD	FLAT:??_R1A@?0A@EA@ICvEnumerator@@8
	DD	FLAT:??_R1A@?0A@EA@ICvUnknown@@8
rdata$r	ENDS
;	COMDAT ??_R3CvDllPathFinderUpdateList@@8
rdata$r	SEGMENT
??_R3CvDllPathFinderUpdateList@@8 DD 00H		; CvDllPathFinderUpdateList::`RTTI Class Hierarchy Descriptor'
	DD	00H
	DD	03H
	DD	FLAT:??_R2CvDllPathFinderUpdateList@@8
rdata$r	ENDS
;	COMDAT ??_R0?AVCvDllPathFinderUpdateList@@@8
_DATA	SEGMENT
??_R0?AVCvDllPathFinderUpdateList@@@8 DD FLAT:??_7type_info@@6B@ ; CvDllPathFinderUpdateList `RTTI Type Descriptor'
	DD	00H
	DB	'.?AVCvDllPathFinderUpdateList@@', 00H
_DATA	ENDS
;	COMDAT ??_R4CvDllPathFinderUpdateList@@6B@
rdata$r	SEGMENT
??_R4CvDllPathFinderUpdateList@@6B@ DD 00H		; CvDllPathFinderUpdateList::`RTTI Complete Object Locator'
	DD	00H
	DD	00H
	DD	FLAT:??_R0?AVCvDllPathFinderUpdateList@@@8
	DD	FLAT:??_R3CvDllPathFinderUpdateList@@8
rdata$r	ENDS
;	COMDAT ??_7CvDllPathFinderUpdateList@@6B@
CONST	SEGMENT
??_7CvDllPathFinderUpdateList@@6B@ DD FLAT:??_R4CvDllPathFinderUpdateList@@6B@ ; CvDllPathFinderUpdateList::`vftable'
	DD	FLAT:?QueryInterface@CvDllPathFinderUpdateList@@UAGPAXU_GUID@@@Z
	DD	FLAT:?Destroy@CvDllPathFinderUpdateList@@EAGXXZ
	DD	FLAT:?MoveNext@CvDllPathFinderUpdateList@@UAG_NXZ
	DD	FLAT:?Reset@CvDllPathFinderUpdateList@@UAGXXZ
	DD	FLAT:?GetCurrent@CvDllPathFinderUpdateList@@UAGPAVICvUnknown@@XZ
; Function compile flags: /Ogtpy
; File c:\users\enormousapplepie\desktop\lekmod files\lekmod dll versions\v29\lekmod_dll\cvgamecoredll_expansion2\cvdllpathfinderupdate.cpp
CONST	ENDS
;	COMDAT ??1CvDllPathFinderUpdateList@@QAE@XZ
_TEXT	SEGMENT
??1CvDllPathFinderUpdateList@@QAE@XZ PROC		; CvDllPathFinderUpdateList::~CvDllPathFinderUpdateList, COMDAT
; _this$ = ecx

; 100  : {

	push	esi
	mov	esi, ecx
	mov	DWORD PTR [esi], OFFSET ??_7CvDllPathFinderUpdateList@@6B@

; 101  : }

	mov	eax, DWORD PTR [esi+12]
	test	eax, eax
	je	SHORT $LN9@CvDllPathF
	push	eax
	call	??3@YAXPAX@Z				; operator delete
	add	esp, 4
$LN9@CvDllPathF:
	mov	DWORD PTR [esi+12], 0
	mov	DWORD PTR [esi+16], 0
	mov	DWORD PTR [esi+20], 0
	pop	esi
	ret	0
??1CvDllPathFinderUpdateList@@QAE@XZ ENDP		; CvDllPathFinderUpdateList::~CvDllPathFinderUpdateList
_TEXT	ENDS
PUBLIC	??_GCvDllPathFinderUpdateList@@QAEPAXI@Z	; CvDllPathFinderUpdateList::`scalar deleting destructor'
; Function compile flags: /Ogtpy
;	COMDAT ??_GCvDllPathFinderUpdateList@@QAEPAXI@Z
_TEXT	SEGMENT
___flags$ = 8						; size = 4
??_GCvDllPathFinderUpdateList@@QAEPAXI@Z PROC		; CvDllPathFinderUpdateList::`scalar deleting destructor', COMDAT
; _this$ = ecx
	push	esi
	mov	esi, ecx
	mov	DWORD PTR [esi], OFFSET ??_7CvDllPathFinderUpdateList@@6B@
	mov	eax, DWORD PTR [esi+12]
	test	eax, eax
	je	SHORT $LN11@scalar@5
	push	eax
	call	??3@YAXPAX@Z				; operator delete
	add	esp, 4
$LN11@scalar@5:
	test	BYTE PTR ___flags$[esp], 1
	mov	DWORD PTR [esi+12], 0
	mov	DWORD PTR [esi+16], 0
	mov	DWORD PTR [esi+20], 0
	je	SHORT $LN15@scalar@5
	push	esi
	call	?Free@CvDllGameContext@@SAXPAX@Z	; CvDllGameContext::Free
	add	esp, 4
$LN15@scalar@5:
	mov	eax, esi
	pop	esi
	ret	4
??_GCvDllPathFinderUpdateList@@QAEPAXI@Z ENDP		; CvDllPathFinderUpdateList::`scalar deleting destructor'
_TEXT	ENDS
PUBLIC	??$_Insert@V?$_Vector_const_iterator@UCvDllPathFinderUpdateListData@@V?$allocator@UCvDllPathFinderUpdateListData@@@std@@@std@@@?$vector@UCvDllPathFinderUpdateListData@@V?$allocator@UCvDllPathFinderUpdateListData@@@std@@@std@@QAEXV?$_Vector_const_iterator@UCvDllPathFinderUpdateListData@@V?$allocator@UCvDllPathFinderUpdateListData@@@std@@@1@00Uforward_iterator_tag@1@@Z ; std::vector<CvDllPathFinderUpdateListData,std::allocator<CvDllPathFinderUpdateListData> >::_Insert<std::_Vector_const_iterator<CvDllPathFinderUpdateListData,std::allocator<CvDllPathFinderUpdateListData> > >
;	COMDAT xdata$x
; File c:\program files (x86)\microsoft visual studio 9.0\vc\include\xutility
xdata$x	SEGMENT
__catchsym$??$_Insert@V?$_Vector_const_iterator@UCvDllPathFinderUpdateListData@@V?$allocator@UCvDllPathFinderUpdateListData@@@std@@@std@@@?$vector@UCvDllPathFinderUpdateListData@@V?$allocator@UCvDllPathFinderUpdateListData@@@std@@@std@@QAEXV?$_Vector_const_iterator@UCvDllPathFinderUpdateListData@@V?$allocator@UCvDllPathFinderUpdateListData@@@std@@@1@00Uforward_iterator_tag@1@@Z$2 DD 040H
	DD	00H
	DD	00H
	DD	FLAT:__catch$??$_Insert@V?$_Vector_const_iterator@UCvDllPathFinderUpdateListData@@V?$allocator@UCvDllPathFinderUpdateListData@@@std@@@std@@@?$vector@UCvDllPathFinderUpdateListData@@V?$allocator@UCvDllPathFinderUpdateListData@@@std@@@std@@QAEXV?$_Vector_const_iterator@UCvDllPathFinderUpdateListData@@V?$allocator@UCvDllPathFinderUpdateListData@@@std@@@1@00Uforward_iterator_tag@1@@Z$0
__unwindtable$??$_Insert@V?$_Vector_const_iterator@UCvDllPathFinderUpdateListData@@V?$allocator@UCvDllPathFinderUpdateListData@@@std@@@std@@@?$vector@UCvDllPathFinderUpdateListData@@V?$allocator@UCvDllPathFinderUpdateListData@@@std@@@std@@QAEXV?$_Vector_const_iterator@UCvDllPathFinderUpdateListData@@V?$allocator@UCvDllPathFinderUpdateListData@@@std@@@1@00Uforward_iterator_tag@1@@Z DD 0ffffffffH
	DD	00H
	DD	0ffffffffH
	DD	00H
__tryblocktable$??$_Insert@V?$_Vector_const_iterator@UCvDllPathFinderUpdateListData@@V?$allocator@UCvDllPathFinderUpdateListData@@@std@@@std@@@?$vector@UCvDllPathFinderUpdateListData@@V?$allocator@UCvDllPathFinderUpdateListData@@@std@@@std@@QAEXV?$_Vector_const_iterator@UCvDllPathFinderUpdateListData@@V?$allocator@UCvDllPathFinderUpdateListData@@@std@@@1@00Uforward_iterator_tag@1@@Z DD 00H
	DD	00H
	DD	01H
	DD	01H
	DD	FLAT:__catchsym$??$_Insert@V?$_Vector_const_iterator@UCvDllPathFinderUpdateListData@@V?$allocator@UCvDllPathFinderUpdateListData@@@std@@@std@@@?$vector@UCvDllPathFinderUpdateListData@@V?$allocator@UCvDllPathFinderUpdateListData@@@std@@@std@@QAEXV?$_Vector_const_iterator@UCvDllPathFinderUpdateListData@@V?$allocator@UCvDllPathFinderUpdateListData@@@std@@@1@00Uforward_iterator_tag@1@@Z$2
__ehfuncinfo$??$_Insert@V?$_Vector_const_iterator@UCvDllPathFinderUpdateListData@@V?$allocator@UCvDllPathFinderUpdateListData@@@std@@@std@@@?$vector@UCvDllPathFinderUpdateListData@@V?$allocator@UCvDllPathFinderUpdateListData@@@std@@@std@@QAEXV?$_Vector_const_iterator@UCvDllPathFinderUpdateListData@@V?$allocator@UCvDllPathFinderUpdateListData@@@std@@@1@00Uforward_iterator_tag@1@@Z DD 019930522H
	DD	02H
	DD	FLAT:__unwindtable$??$_Insert@V?$_Vector_const_iterator@UCvDllPathFinderUpdateListData@@V?$allocator@UCvDllPathFinderUpdateListData@@@std@@@std@@@?$vector@UCvDllPathFinderUpdateListData@@V?$allocator@UCvDllPathFinderUpdateListData@@@std@@@std@@QAEXV?$_Vector_const_iterator@UCvDllPathFinderUpdateListData@@V?$allocator@UCvDllPathFinderUpdateListData@@@std@@@1@00Uforward_iterator_tag@1@@Z
	DD	01H
	DD	FLAT:__tryblocktable$??$_Insert@V?$_Vector_const_iterator@UCvDllPathFinderUpdateListData@@V?$allocator@UCvDllPathFinderUpdateListData@@@std@@@std@@@?$vector@UCvDllPathFinderUpdateListData@@V?$allocator@UCvDllPathFinderUpdateListData@@@std@@@std@@QAEXV?$_Vector_const_iterator@UCvDllPathFinderUpdateListData@@V?$allocator@UCvDllPathFinderUpdateListData@@@std@@@1@00Uforward_iterator_tag@1@@Z
	DD	2 DUP(00H)
	DD	00H
	DD	01H
; Function compile flags: /Ogtpy
; File c:\program files (x86)\microsoft visual studio 9.0\vc\include\vector
xdata$x	ENDS
;	COMDAT ??$_Insert@V?$_Vector_const_iterator@UCvDllPathFinderUpdateListData@@V?$allocator@UCvDllPathFinderUpdateListData@@@std@@@std@@@?$vector@UCvDllPathFinderUpdateListData@@V?$allocator@UCvDllPathFinderUpdateListData@@@std@@@std@@QAEXV?$_Vector_const_iterator@UCvDllPathFinderUpdateListData@@V?$allocator@UCvDllPathFinderUpdateListData@@@std@@@1@00Uforward_iterator_tag@1@@Z
_TEXT	SEGMENT
$T221070 = -24						; size = 1
$T221032 = -24						; size = 1
$T220961 = -24						; size = 1
$T220934 = -24						; size = 1
__Newvec$219209 = -20					; size = 4
__$EHRec$ = -16						; size = 16
__Cat$221073 = 8					; size = 1
__Cat$221036 = 8					; size = 1
__Cat$220964 = 8					; size = 1
__Cat$220938 = 8					; size = 1
__Where$ = 8						; size = 4
__First$ = 12						; size = 4
__Last$ = 16						; size = 4
___formal$ = 20						; size = 1
??$_Insert@V?$_Vector_const_iterator@UCvDllPathFinderUpdateListData@@V?$allocator@UCvDllPathFinderUpdateListData@@@std@@@std@@@?$vector@UCvDllPathFinderUpdateListData@@V?$allocator@UCvDllPathFinderUpdateListData@@@std@@@std@@QAEXV?$_Vector_const_iterator@UCvDllPathFinderUpdateListData@@V?$allocator@UCvDllPathFinderUpdateListData@@@std@@@1@00Uforward_iterator_tag@1@@Z PROC ; std::vector<CvDllPathFinderUpdateListData,std::allocator<CvDllPathFinderUpdateListData> >::_Insert<std::_Vector_const_iterator<CvDllPathFinderUpdateListData,std::allocator<CvDllPathFinderUpdateListData> > >, COMDAT
; _this$ = ecx

; 925  : 		void _Insert(const_iterator _Where,

	push	ebp
	mov	ebp, esp
	push	-1
	push	__ehhandler$??$_Insert@V?$_Vector_const_iterator@UCvDllPathFinderUpdateListData@@V?$allocator@UCvDllPathFinderUpdateListData@@@std@@@std@@@?$vector@UCvDllPathFinderUpdateListData@@V?$allocator@UCvDllPathFinderUpdateListData@@@std@@@std@@QAEXV?$_Vector_const_iterator@UCvDllPathFinderUpdateListData@@V?$allocator@UCvDllPathFinderUpdateListData@@@std@@@1@00Uforward_iterator_tag@1@@Z
	mov	eax, DWORD PTR fs:0
	push	eax
	mov	DWORD PTR fs:0, esp
	sub	esp, 12					; 0000000cH

; 926  : 			_Iter _First, _Iter _Last, forward_iterator_tag)
; 927  : 		{	// insert [_First, _Last) at _Where, forward iterators
; 928  : 
; 929  :  #if _HAS_ITERATOR_DEBUGGING
; 930  : 		if (_Where._Mycont != this
; 931  : 			|| _Where._Myptr < _Myfirst || _Mylast < _Where._Myptr)
; 932  : 			_DEBUG_ERROR("vector insert iterator outside range");
; 933  : 		_DEBUG_RANGE(_First, _Last);
; 934  :  #endif /* _HAS_ITERATOR_DEBUGGING */
; 935  : 
; 936  : 		size_type _Count = 0;
; 937  : 		_Distance(_First, _Last, _Count);

	mov	edx, DWORD PTR __Last$[ebp]
	sub	edx, DWORD PTR __First$[ebp]
	mov	eax, 715827883				; 2aaaaaabH
	imul	edx
	push	ebx
	push	esi
	push	edi
	sar	edx, 1
	mov	edi, edx
	mov	esi, ecx

; 938  : 		size_type _Capacity = capacity();

	mov	ecx, DWORD PTR [esi+4]
	shr	edi, 31					; 0000001fH
	add	edi, edx
	mov	DWORD PTR __$EHRec$[ebp], esp
	test	ecx, ecx
	jne	SHORT $LN28@Insert
	xor	ebx, ebx
	jmp	SHORT $LN29@Insert
$LN28@Insert:
	mov	edx, DWORD PTR [esi+12]
	sub	edx, ecx
	mov	eax, 715827883				; 2aaaaaabH
	imul	edx
	sar	edx, 1
	mov	ebx, edx
	shr	ebx, 31					; 0000001fH
	add	ebx, edx
$LN29@Insert:

; 939  : 
; 940  : 		if (_Count == 0)

	test	edi, edi
	je	$LN1@Insert

; 941  : 			;
; 942  : 		else if (max_size() - size() < _Count)

	mov	edx, DWORD PTR [esi+8]
	sub	edx, ecx
	mov	eax, 715827883				; 2aaaaaabH
	imul	edx
	sar	edx, 1
	mov	eax, edx
	shr	eax, 31					; 0000001fH
	add	eax, edx
	mov	ecx, 357913941				; 15555555H
	sub	ecx, eax
	cmp	ecx, edi
	jae	SHORT $LN7@Insert

; 943  : 			_Xlen();	// result too long

	call	?_Xlen@?$vector@UCvDllPathFinderUpdateListData@@V?$allocator@UCvDllPathFinderUpdateListData@@@std@@@std@@KAXXZ ; std::vector<CvDllPathFinderUpdateListData,std::allocator<CvDllPathFinderUpdateListData> >::_Xlen
$LN97@Insert:
$LN7@Insert:

; 944  : 		else if (_Capacity < size() + _Count)

	add	eax, edi
	cmp	ebx, eax
	jae	$LN5@Insert

; 945  : 			{	// not enough room, reallocate
; 946  : 			_Capacity = max_size() - _Capacity / 2 < _Capacity
; 947  : 				? 0 : _Capacity + _Capacity / 2;	// try to grow by 50%

	mov	ecx, ebx
	shr	ecx, 1
	mov	edx, 357913941				; 15555555H
	sub	edx, ecx
	cmp	edx, ebx
	jae	SHORT $LN12@Insert
	xor	ebx, ebx
	jmp	SHORT $LN13@Insert
$LN12@Insert:
	add	ebx, ecx
$LN13@Insert:

; 948  : 			if (_Capacity < size() + _Count)

	cmp	ebx, eax
	jae	SHORT $LN4@Insert

; 949  : 				_Capacity = size() + _Count;

	mov	ebx, eax
$LN4@Insert:

; 950  : 			pointer _Newvec = this->_Alval.allocate(_Capacity);

	push	0
	push	ebx
	call	??$_Allocate@UCvDllPathFinderUpdateListData@@@std@@YAPAUCvDllPathFinderUpdateListData@@IPAU1@@Z ; std::_Allocate<CvDllPathFinderUpdateListData>

; 951  : 			pointer _Ptr = _Newvec;
; 952  : 
; 953  : 			_TRY_BEGIN
; 954  : 			_Ptr = _Umove(_Myfirst, _VEC_ITER_BASE(_Where),
; 955  : 				_Newvec);	// copy prefix

	mov	ecx, DWORD PTR [esi+4]
	mov	BYTE PTR $T220934[ebp], 0
	mov	edx, DWORD PTR $T220934[ebp]
	push	edx
	mov	edx, DWORD PTR __Cat$220938[ebp]
	push	edx
	push	esi
	push	eax
	mov	DWORD PTR __Newvec$219209[ebp], eax
	mov	eax, DWORD PTR __Where$[ebp]
	push	eax
	push	ecx
	mov	DWORD PTR __$EHRec$[ebp+12], 0
	call	??$_Uninit_copy@PAUCvDllPathFinderUpdateListData@@PAU1@V?$allocator@UCvDllPathFinderUpdateListData@@@std@@@std@@YAPAUCvDllPathFinderUpdateListData@@PAU1@00AAV?$allocator@UCvDllPathFinderUpdateListData@@@0@U_Nonscalar_ptr_iterator_tag@0@U_Range_checked_iterator_tag@0@@Z ; std::_Uninit_copy<CvDllPathFinderUpdateListData *,CvDllPathFinderUpdateListData *,std::allocator<CvDllPathFinderUpdateListData> >

; 956  : 			_Ptr = _Ucopy(_First, _Last, _Ptr);	// add new stuff

	mov	edx, DWORD PTR __Cat$220964[ebp]
	add	esp, 32					; 00000020H
	mov	BYTE PTR $T220961[ebp], 0
	mov	ecx, DWORD PTR $T220961[ebp]
	push	ecx
	mov	ecx, DWORD PTR __First$[ebp]
	push	edx
	push	esi
	push	eax
	mov	eax, DWORD PTR __Last$[ebp]
	push	eax
	push	ecx
	call	??$_Uninit_copy@V?$_Vector_const_iterator@UCvDllPathFinderUpdateListData@@V?$allocator@UCvDllPathFinderUpdateListData@@@std@@@std@@PAUCvDllPathFinderUpdateListData@@V?$allocator@UCvDllPathFinderUpdateListData@@@2@@std@@YAPAUCvDllPathFinderUpdateListData@@V?$_Vector_const_iterator@UCvDllPathFinderUpdateListData@@V?$allocator@UCvDllPathFinderUpdateListData@@@std@@@0@0PAU1@AAV?$allocator@UCvDllPathFinderUpdateListData@@@0@U_Nonscalar_ptr_iterator_tag@0@U_Range_checked_iterator_tag@0@@Z ; std::_Uninit_copy<std::_Vector_const_iterator<CvDllPathFinderUpdateListData,std::allocator<CvDllPathFinderUpdateListData> >,CvDllPathFinderUpdateListData *,std::allocator<CvDllPathFinderUpdateListData> >

; 957  : 			_Umove(_VEC_ITER_BASE(_Where), _Mylast, _Ptr);	// copy suffix

	mov	ecx, DWORD PTR [esi+8]
	add	esp, 24					; 00000018H
	mov	BYTE PTR $T221032[ebp], 0
	mov	edx, DWORD PTR $T221032[ebp]
	push	edx
	mov	edx, DWORD PTR __Cat$221036[ebp]
	push	edx
	push	esi
	push	eax
	mov	eax, DWORD PTR __Where$[ebp]
	push	ecx
	push	eax
	call	??$_Uninit_copy@PAUCvDllPathFinderUpdateListData@@PAU1@V?$allocator@UCvDllPathFinderUpdateListData@@@std@@@std@@YAPAUCvDllPathFinderUpdateListData@@PAU1@00AAV?$allocator@UCvDllPathFinderUpdateListData@@@0@U_Nonscalar_ptr_iterator_tag@0@U_Range_checked_iterator_tag@0@@Z ; std::_Uninit_copy<CvDllPathFinderUpdateListData *,CvDllPathFinderUpdateListData *,std::allocator<CvDllPathFinderUpdateListData> >

; 962  : 			_CATCH_END
; 963  : 
; 964  : 			_Count += size();

	mov	ecx, DWORD PTR [esi+4]
	mov	edx, DWORD PTR [esi+8]
	sub	edx, ecx
	mov	eax, 715827883				; 2aaaaaabH
	imul	edx
	sar	edx, 1
	mov	eax, edx
	shr	eax, 31					; 0000001fH
	add	eax, edx
	add	esp, 24					; 00000018H
	add	edi, eax

; 965  : 			if (_Myfirst != 0)

	test	ecx, ecx
	je	SHORT $LN86@Insert

; 966  : 				{	// destroy and deallocate old array
; 967  : 				_Destroy(_Myfirst, _Mylast);
; 968  : 				this->_Alval.deallocate(_Myfirst, _Myend - _Myfirst);

	push	ecx
	call	??3@YAXPAX@Z				; operator delete
	add	esp, 4
$LN86@Insert:

; 969  : 				}
; 970  : 
; 971  :  #if _HAS_ITERATOR_DEBUGGING
; 972  : 			this->_Orphan_all();
; 973  :  #endif /* _HAS_ITERATOR_DEBUGGING */
; 974  : 
; 975  : 			_Myend = _Newvec + _Capacity;

	mov	eax, DWORD PTR __Newvec$219209[ebp]
	lea	ecx, DWORD PTR [ebx+ebx*2]
	lea	edx, DWORD PTR [eax+ecx*4]

; 976  : 			_Mylast = _Newvec + _Count;

	lea	ecx, DWORD PTR [edi+edi*2]
	mov	DWORD PTR [esi+12], edx
	lea	edx, DWORD PTR [eax+ecx*4]
	mov	DWORD PTR [esi+8], edx

; 977  : 			_Myfirst = _Newvec;

	mov	DWORD PTR [esi+4], eax

; 988  : 
; 989  :  #if _HAS_ITERATOR_DEBUGGING
; 990  : 			_Orphan_range(_Where._Myptr, _Mylast);
; 991  :  #endif /* _HAS_ITERATOR_DEBUGGING */
; 992  : 
; 993  : 			}
; 994  : 		}

	mov	ecx, DWORD PTR __$EHRec$[ebp+4]
	mov	DWORD PTR fs:0, ecx
	pop	edi
	pop	esi
	pop	ebx
	mov	esp, ebp
	pop	ebp
	ret	16					; 00000010H
__catch$??$_Insert@V?$_Vector_const_iterator@UCvDllPathFinderUpdateListData@@V?$allocator@UCvDllPathFinderUpdateListData@@@std@@@std@@@?$vector@UCvDllPathFinderUpdateListData@@V?$allocator@UCvDllPathFinderUpdateListData@@@std@@@std@@QAEXV?$_Vector_const_iterator@UCvDllPathFinderUpdateListData@@V?$allocator@UCvDllPathFinderUpdateListData@@@std@@@1@00Uforward_iterator_tag@1@@Z$0:

; 958  : 			_CATCH_ALL
; 959  : 			_Destroy(_Newvec, _Ptr);
; 960  : 			this->_Alval.deallocate(_Newvec, _Capacity);

	mov	eax, DWORD PTR __Newvec$219209[ebp]
	push	eax
	call	??3@YAXPAX@Z				; operator delete
	add	esp, 4

; 961  : 			_RERAISE;

	push	0
	push	0
	call	__CxxThrowException@8
$LN98@Insert:
$LN5@Insert:

; 978  : 			}
; 979  : 		else
; 980  : 			{	// new stuff fits, append and rotate into place
; 981  : 			_Ucopy(_First, _Last, _Mylast);

	mov	edx, DWORD PTR __Cat$221073[ebp]
	mov	eax, DWORD PTR [esi+8]
	mov	BYTE PTR $T221070[ebp], 0
	mov	ecx, DWORD PTR $T221070[ebp]
	push	ecx
	mov	ecx, DWORD PTR __First$[ebp]
	push	edx
	push	esi
	push	eax
	mov	eax, DWORD PTR __Last$[ebp]
	push	eax
	push	ecx
	call	??$_Uninit_copy@V?$_Vector_const_iterator@UCvDllPathFinderUpdateListData@@V?$allocator@UCvDllPathFinderUpdateListData@@@std@@@std@@PAUCvDllPathFinderUpdateListData@@V?$allocator@UCvDllPathFinderUpdateListData@@@2@@std@@YAPAUCvDllPathFinderUpdateListData@@V?$_Vector_const_iterator@UCvDllPathFinderUpdateListData@@V?$allocator@UCvDllPathFinderUpdateListData@@@std@@@0@0PAU1@AAV?$allocator@UCvDllPathFinderUpdateListData@@@0@U_Nonscalar_ptr_iterator_tag@0@U_Range_checked_iterator_tag@0@@Z ; std::_Uninit_copy<std::_Vector_const_iterator<CvDllPathFinderUpdateListData,std::allocator<CvDllPathFinderUpdateListData> >,CvDllPathFinderUpdateListData *,std::allocator<CvDllPathFinderUpdateListData> >

; 982  : 
; 983  : 			_Reverse(_Where._Myptr, _Mylast);

	mov	edx, DWORD PTR [esi+8]
	mov	eax, DWORD PTR __Where$[ebp]
	add	esp, 24					; 00000018H
	push	edx
	push	eax
	mov	ecx, esi
	call	?_Reverse@?$vector@UCvDllPathFinderUpdateListData@@V?$allocator@UCvDllPathFinderUpdateListData@@@std@@@std@@QAEXPAUCvDllPathFinderUpdateListData@@0@Z ; std::vector<CvDllPathFinderUpdateListData,std::allocator<CvDllPathFinderUpdateListData> >::_Reverse

; 984  : 			_Reverse(_Mylast, _Mylast + _Count);

	mov	eax, DWORD PTR [esi+8]
	lea	edi, DWORD PTR [edi+edi*2]
	add	edi, edi
	add	edi, edi
	lea	ecx, DWORD PTR [edi+eax]
	push	ecx
	push	eax
	mov	ecx, esi
	call	?_Reverse@?$vector@UCvDllPathFinderUpdateListData@@V?$allocator@UCvDllPathFinderUpdateListData@@@std@@@std@@QAEXPAUCvDllPathFinderUpdateListData@@0@Z ; std::vector<CvDllPathFinderUpdateListData,std::allocator<CvDllPathFinderUpdateListData> >::_Reverse

; 985  : 			_Reverse(_Where._Myptr, _Mylast + _Count);

	mov	edx, DWORD PTR [esi+8]
	mov	eax, DWORD PTR __Where$[ebp]
	add	edx, edi
	push	edx
	push	eax
	mov	ecx, esi
	call	?_Reverse@?$vector@UCvDllPathFinderUpdateListData@@V?$allocator@UCvDllPathFinderUpdateListData@@@std@@@std@@QAEXPAUCvDllPathFinderUpdateListData@@0@Z ; std::vector<CvDllPathFinderUpdateListData,std::allocator<CvDllPathFinderUpdateListData> >::_Reverse

; 986  : 
; 987  : 			_Mylast += _Count;

	add	DWORD PTR [esi+8], edi
$LN1@Insert:

; 988  : 
; 989  :  #if _HAS_ITERATOR_DEBUGGING
; 990  : 			_Orphan_range(_Where._Myptr, _Mylast);
; 991  :  #endif /* _HAS_ITERATOR_DEBUGGING */
; 992  : 
; 993  : 			}
; 994  : 		}

	mov	ecx, DWORD PTR __$EHRec$[ebp+4]
	pop	edi
	pop	esi
	mov	DWORD PTR fs:0, ecx
	pop	ebx
	mov	esp, ebp
	pop	ebp
	ret	16					; 00000010H
$LN96@Insert:
_TEXT	ENDS
;	COMDAT text$x
text$x	SEGMENT
__ehhandler$??$_Insert@V?$_Vector_const_iterator@UCvDllPathFinderUpdateListData@@V?$allocator@UCvDllPathFinderUpdateListData@@@std@@@std@@@?$vector@UCvDllPathFinderUpdateListData@@V?$allocator@UCvDllPathFinderUpdateListData@@@std@@@std@@QAEXV?$_Vector_const_iterator@UCvDllPathFinderUpdateListData@@V?$allocator@UCvDllPathFinderUpdateListData@@@std@@@1@00Uforward_iterator_tag@1@@Z:
	mov	eax, OFFSET __ehfuncinfo$??$_Insert@V?$_Vector_const_iterator@UCvDllPathFinderUpdateListData@@V?$allocator@UCvDllPathFinderUpdateListData@@@std@@@std@@@?$vector@UCvDllPathFinderUpdateListData@@V?$allocator@UCvDllPathFinderUpdateListData@@@std@@@std@@QAEXV?$_Vector_const_iterator@UCvDllPathFinderUpdateListData@@V?$allocator@UCvDllPathFinderUpdateListData@@@std@@@1@00Uforward_iterator_tag@1@@Z
	jmp	___CxxFrameHandler3
text$x	ENDS
??$_Insert@V?$_Vector_const_iterator@UCvDllPathFinderUpdateListData@@V?$allocator@UCvDllPathFinderUpdateListData@@@std@@@std@@@?$vector@UCvDllPathFinderUpdateListData@@V?$allocator@UCvDllPathFinderUpdateListData@@@std@@@std@@QAEXV?$_Vector_const_iterator@UCvDllPathFinderUpdateListData@@V?$allocator@UCvDllPathFinderUpdateListData@@@std@@@1@00Uforward_iterator_tag@1@@Z ENDP ; std::vector<CvDllPathFinderUpdateListData,std::allocator<CvDllPathFinderUpdateListData> >::_Insert<std::_Vector_const_iterator<CvDllPathFinderUpdateListData,std::allocator<CvDllPathFinderUpdateListData> > >
PUBLIC	?DecrementReference@CvDllPathFinderUpdateList@@QAEIXZ ; CvDllPathFinderUpdateList::DecrementReference
; Function compile flags: /Ogtpy
; File c:\users\enormousapplepie\desktop\lekmod files\lekmod dll versions\v29\lekmod_dll\cvgamecoredll_expansion2\cvdllpathfinderupdate.cpp
;	COMDAT ?DecrementReference@CvDllPathFinderUpdateList@@QAEIXZ
_TEXT	SEGMENT
?DecrementReference@CvDllPathFinderUpdateList@@QAEIXZ PROC ; CvDllPathFinderUpdateList::DecrementReference, COMDAT
; _this$ = ecx

; 122  : {

	push	esi
	mov	esi, ecx

; 123  : 	if(m_uiRefCount == 1)

	mov	eax, DWORD PTR [esi+4]
	cmp	eax, 1
	jne	SHORT $LN2@DecrementR@2

; 124  : 	{
; 125  : 		delete this;

	mov	DWORD PTR [esi], OFFSET ??_7CvDllPathFinderUpdateList@@6B@
	mov	eax, DWORD PTR [esi+12]
	test	eax, eax
	je	SHORT $LN17@DecrementR@2
	push	eax
	call	??3@YAXPAX@Z				; operator delete
	add	esp, 4
$LN17@DecrementR@2:
	push	esi
	mov	DWORD PTR [esi+12], 0
	mov	DWORD PTR [esi+16], 0
	mov	DWORD PTR [esi+20], 0
	call	?Free@CvDllGameContext@@SAXPAX@Z	; CvDllGameContext::Free
	add	esp, 4

; 126  : 		return 0;

	xor	eax, eax
	pop	esi

; 131  : 		return m_uiRefCount;
; 132  : 	}
; 133  : }

	ret	0
$LN2@DecrementR@2:

; 127  : 	}
; 128  : 	else
; 129  : 	{
; 130  : 		--m_uiRefCount;

	dec	eax
	mov	DWORD PTR [esi+4], eax
	pop	esi

; 131  : 		return m_uiRefCount;
; 132  : 	}
; 133  : }

	ret	0
?DecrementReference@CvDllPathFinderUpdateList@@QAEIXZ ENDP ; CvDllPathFinderUpdateList::DecrementReference
; Function compile flags: /Ogtpy
_TEXT	ENDS
;	COMDAT ?Destroy@CvDllPathFinderUpdateList@@EAGXXZ
_TEXT	SEGMENT
_this$ = 8						; size = 4
?Destroy@CvDllPathFinderUpdateList@@EAGXXZ PROC		; CvDllPathFinderUpdateList::Destroy, COMDAT

; 141  : {

	push	esi

; 142  : 	DecrementReference();

	mov	esi, DWORD PTR _this$[esp]
	mov	eax, DWORD PTR [esi+4]
	cmp	eax, 1
	jne	SHORT $LN4@Destroy@2
	mov	DWORD PTR [esi], OFFSET ??_7CvDllPathFinderUpdateList@@6B@
	mov	eax, DWORD PTR [esi+12]
	test	eax, eax
	je	SHORT $LN19@Destroy@2
	push	eax
	call	??3@YAXPAX@Z				; operator delete
	add	esp, 4
$LN19@Destroy@2:
	push	esi
	mov	DWORD PTR [esi+12], 0
	mov	DWORD PTR [esi+16], 0
	mov	DWORD PTR [esi+20], 0
	call	?Free@CvDllGameContext@@SAXPAX@Z	; CvDllGameContext::Free
	add	esp, 4
	pop	esi

; 143  : }

	ret	4

; 142  : 	DecrementReference();

$LN4@Destroy@2:
	dec	eax
	mov	DWORD PTR [esi+4], eax
	pop	esi

; 143  : }

	ret	4
?Destroy@CvDllPathFinderUpdateList@@EAGXXZ ENDP		; CvDllPathFinderUpdateList::Destroy
_TEXT	ENDS
PUBLIC	??$insert@V?$_Vector_const_iterator@UCvDllPathFinderUpdateListData@@V?$allocator@UCvDllPathFinderUpdateListData@@@std@@@std@@@?$vector@UCvDllPathFinderUpdateListData@@V?$allocator@UCvDllPathFinderUpdateListData@@@std@@@std@@QAEXV?$_Vector_const_iterator@UCvDllPathFinderUpdateListData@@V?$allocator@UCvDllPathFinderUpdateListData@@@std@@@1@00@Z ; std::vector<CvDllPathFinderUpdateListData,std::allocator<CvDllPathFinderUpdateListData> >::insert<std::_Vector_const_iterator<CvDllPathFinderUpdateListData,std::allocator<CvDllPathFinderUpdateListData> > >
; Function compile flags: /Ogtpy
; File c:\program files (x86)\microsoft visual studio 9.0\vc\include\vector
;	COMDAT ??$insert@V?$_Vector_const_iterator@UCvDllPathFinderUpdateListData@@V?$allocator@UCvDllPathFinderUpdateListData@@@std@@@std@@@?$vector@UCvDllPathFinderUpdateListData@@V?$allocator@UCvDllPathFinderUpdateListData@@@std@@@std@@QAEXV?$_Vector_const_iterator@UCvDllPathFinderUpdateListData@@V?$allocator@UCvDllPathFinderUpdateListData@@@std@@@1@00@Z
_TEXT	SEGMENT
__Where$ = 8						; size = 4
__First$ = 12						; size = 4
$T221224 = 16						; size = 1
__Last$ = 16						; size = 4
??$insert@V?$_Vector_const_iterator@UCvDllPathFinderUpdateListData@@V?$allocator@UCvDllPathFinderUpdateListData@@@std@@@std@@@?$vector@UCvDllPathFinderUpdateListData@@V?$allocator@UCvDllPathFinderUpdateListData@@@std@@@std@@QAEXV?$_Vector_const_iterator@UCvDllPathFinderUpdateListData@@V?$allocator@UCvDllPathFinderUpdateListData@@@std@@@1@00@Z PROC ; std::vector<CvDllPathFinderUpdateListData,std::allocator<CvDllPathFinderUpdateListData> >::insert<std::_Vector_const_iterator<CvDllPathFinderUpdateListData,std::allocator<CvDllPathFinderUpdateListData> > >, COMDAT
; _this$ = ecx

; 888  : 		{	// insert [_First, _Last) at _Where
; 889  : 		_Insert(_Where, _First, _Last, _Iter_cat(_First));

	mov	eax, DWORD PTR $T221224[esp-4]
	mov	edx, DWORD PTR __Last$[esp-4]
	push	eax
	mov	eax, DWORD PTR __First$[esp]
	push	edx
	mov	edx, DWORD PTR __Where$[esp+4]
	push	eax
	push	edx
	call	??$_Insert@V?$_Vector_const_iterator@UCvDllPathFinderUpdateListData@@V?$allocator@UCvDllPathFinderUpdateListData@@@std@@@std@@@?$vector@UCvDllPathFinderUpdateListData@@V?$allocator@UCvDllPathFinderUpdateListData@@@std@@@std@@QAEXV?$_Vector_const_iterator@UCvDllPathFinderUpdateListData@@V?$allocator@UCvDllPathFinderUpdateListData@@@std@@@1@00Uforward_iterator_tag@1@@Z ; std::vector<CvDllPathFinderUpdateListData,std::allocator<CvDllPathFinderUpdateListData> >::_Insert<std::_Vector_const_iterator<CvDllPathFinderUpdateListData,std::allocator<CvDllPathFinderUpdateListData> > >

; 890  : 		}

	ret	12					; 0000000cH
??$insert@V?$_Vector_const_iterator@UCvDllPathFinderUpdateListData@@V?$allocator@UCvDllPathFinderUpdateListData@@@std@@@std@@@?$vector@UCvDllPathFinderUpdateListData@@V?$allocator@UCvDllPathFinderUpdateListData@@@std@@@std@@QAEXV?$_Vector_const_iterator@UCvDllPathFinderUpdateListData@@V?$allocator@UCvDllPathFinderUpdateListData@@@std@@@1@00@Z ENDP ; std::vector<CvDllPathFinderUpdateListData,std::allocator<CvDllPathFinderUpdateListData> >::insert<std::_Vector_const_iterator<CvDllPathFinderUpdateListData,std::allocator<CvDllPathFinderUpdateListData> > >
_TEXT	ENDS
PUBLIC	??$_Construct@V?$_Vector_const_iterator@UCvDllPathFinderUpdateListData@@V?$allocator@UCvDllPathFinderUpdateListData@@@std@@@std@@@?$vector@UCvDllPathFinderUpdateListData@@V?$allocator@UCvDllPathFinderUpdateListData@@@std@@@std@@QAEXV?$_Vector_const_iterator@UCvDllPathFinderUpdateListData@@V?$allocator@UCvDllPathFinderUpdateListData@@@std@@@1@0Uinput_iterator_tag@1@@Z ; std::vector<CvDllPathFinderUpdateListData,std::allocator<CvDllPathFinderUpdateListData> >::_Construct<std::_Vector_const_iterator<CvDllPathFinderUpdateListData,std::allocator<CvDllPathFinderUpdateListData> > >
;	COMDAT xdata$x
; File c:\program files (x86)\microsoft visual studio 9.0\vc\include\xutility
xdata$x	SEGMENT
__catchsym$??$_Construct@V?$_Vector_const_iterator@UCvDllPathFinderUpdateListData@@V?$allocator@UCvDllPathFinderUpdateListData@@@std@@@std@@@?$vector@UCvDllPathFinderUpdateListData@@V?$allocator@UCvDllPathFinderUpdateListData@@@std@@@std@@QAEXV?$_Vector_const_iterator@UCvDllPathFinderUpdateListData@@V?$allocator@UCvDllPathFinderUpdateListData@@@std@@@1@0Uinput_iterator_tag@1@@Z$2 DD 040H
	DD	00H
	DD	00H
	DD	FLAT:__catch$??$_Construct@V?$_Vector_const_iterator@UCvDllPathFinderUpdateListData@@V?$allocator@UCvDllPathFinderUpdateListData@@@std@@@std@@@?$vector@UCvDllPathFinderUpdateListData@@V?$allocator@UCvDllPathFinderUpdateListData@@@std@@@std@@QAEXV?$_Vector_const_iterator@UCvDllPathFinderUpdateListData@@V?$allocator@UCvDllPathFinderUpdateListData@@@std@@@1@0Uinput_iterator_tag@1@@Z$0
__unwindtable$??$_Construct@V?$_Vector_const_iterator@UCvDllPathFinderUpdateListData@@V?$allocator@UCvDllPathFinderUpdateListData@@@std@@@std@@@?$vector@UCvDllPathFinderUpdateListData@@V?$allocator@UCvDllPathFinderUpdateListData@@@std@@@std@@QAEXV?$_Vector_const_iterator@UCvDllPathFinderUpdateListData@@V?$allocator@UCvDllPathFinderUpdateListData@@@std@@@1@0Uinput_iterator_tag@1@@Z DD 0ffffffffH
	DD	00H
	DD	0ffffffffH
	DD	00H
__tryblocktable$??$_Construct@V?$_Vector_const_iterator@UCvDllPathFinderUpdateListData@@V?$allocator@UCvDllPathFinderUpdateListData@@@std@@@std@@@?$vector@UCvDllPathFinderUpdateListData@@V?$allocator@UCvDllPathFinderUpdateListData@@@std@@@std@@QAEXV?$_Vector_const_iterator@UCvDllPathFinderUpdateListData@@V?$allocator@UCvDllPathFinderUpdateListData@@@std@@@1@0Uinput_iterator_tag@1@@Z DD 00H
	DD	00H
	DD	01H
	DD	01H
	DD	FLAT:__catchsym$??$_Construct@V?$_Vector_const_iterator@UCvDllPathFinderUpdateListData@@V?$allocator@UCvDllPathFinderUpdateListData@@@std@@@std@@@?$vector@UCvDllPathFinderUpdateListData@@V?$allocator@UCvDllPathFinderUpdateListData@@@std@@@std@@QAEXV?$_Vector_const_iterator@UCvDllPathFinderUpdateListData@@V?$allocator@UCvDllPathFinderUpdateListData@@@std@@@1@0Uinput_iterator_tag@1@@Z$2
__ehfuncinfo$??$_Construct@V?$_Vector_const_iterator@UCvDllPathFinderUpdateListData@@V?$allocator@UCvDllPathFinderUpdateListData@@@std@@@std@@@?$vector@UCvDllPathFinderUpdateListData@@V?$allocator@UCvDllPathFinderUpdateListData@@@std@@@std@@QAEXV?$_Vector_const_iterator@UCvDllPathFinderUpdateListData@@V?$allocator@UCvDllPathFinderUpdateListData@@@std@@@1@0Uinput_iterator_tag@1@@Z DD 019930522H
	DD	02H
	DD	FLAT:__unwindtable$??$_Construct@V?$_Vector_const_iterator@UCvDllPathFinderUpdateListData@@V?$allocator@UCvDllPathFinderUpdateListData@@@std@@@std@@@?$vector@UCvDllPathFinderUpdateListData@@V?$allocator@UCvDllPathFinderUpdateListData@@@std@@@std@@QAEXV?$_Vector_const_iterator@UCvDllPathFinderUpdateListData@@V?$allocator@UCvDllPathFinderUpdateListData@@@std@@@1@0Uinput_iterator_tag@1@@Z
	DD	01H
	DD	FLAT:__tryblocktable$??$_Construct@V?$_Vector_const_iterator@UCvDllPathFinderUpdateListData@@V?$allocator@UCvDllPathFinderUpdateListData@@@std@@@std@@@?$vector@UCvDllPathFinderUpdateListData@@V?$allocator@UCvDllPathFinderUpdateListData@@@std@@@std@@QAEXV?$_Vector_const_iterator@UCvDllPathFinderUpdateListData@@V?$allocator@UCvDllPathFinderUpdateListData@@@std@@@1@0Uinput_iterator_tag@1@@Z
	DD	2 DUP(00H)
	DD	00H
	DD	01H
; Function compile flags: /Ogtpy
; File c:\program files (x86)\microsoft visual studio 9.0\vc\include\vector
xdata$x	ENDS
;	COMDAT ??$_Construct@V?$_Vector_const_iterator@UCvDllPathFinderUpdateListData@@V?$allocator@UCvDllPathFinderUpdateListData@@@std@@@std@@@?$vector@UCvDllPathFinderUpdateListData@@V?$allocator@UCvDllPathFinderUpdateListData@@@std@@@std@@QAEXV?$_Vector_const_iterator@UCvDllPathFinderUpdateListData@@V?$allocator@UCvDllPathFinderUpdateListData@@@std@@@1@0Uinput_iterator_tag@1@@Z
_TEXT	SEGMENT
_this$ = -20						; size = 4
__$EHRec$ = -16						; size = 16
__First$ = 8						; size = 4
$T221335 = 12						; size = 1
__Last$ = 12						; size = 4
___formal$ = 16						; size = 1
??$_Construct@V?$_Vector_const_iterator@UCvDllPathFinderUpdateListData@@V?$allocator@UCvDllPathFinderUpdateListData@@@std@@@std@@@?$vector@UCvDllPathFinderUpdateListData@@V?$allocator@UCvDllPathFinderUpdateListData@@@std@@@std@@QAEXV?$_Vector_const_iterator@UCvDllPathFinderUpdateListData@@V?$allocator@UCvDllPathFinderUpdateListData@@@std@@@1@0Uinput_iterator_tag@1@@Z PROC ; std::vector<CvDllPathFinderUpdateListData,std::allocator<CvDllPathFinderUpdateListData> >::_Construct<std::_Vector_const_iterator<CvDllPathFinderUpdateListData,std::allocator<CvDllPathFinderUpdateListData> > >, COMDAT
; _this$ = ecx

; 532  : 		void _Construct(_Iter _First,

	push	ebp
	mov	ebp, esp
	push	-1
	push	__ehhandler$??$_Construct@V?$_Vector_const_iterator@UCvDllPathFinderUpdateListData@@V?$allocator@UCvDllPathFinderUpdateListData@@@std@@@std@@@?$vector@UCvDllPathFinderUpdateListData@@V?$allocator@UCvDllPathFinderUpdateListData@@@std@@@std@@QAEXV?$_Vector_const_iterator@UCvDllPathFinderUpdateListData@@V?$allocator@UCvDllPathFinderUpdateListData@@@std@@@1@0Uinput_iterator_tag@1@@Z
	mov	eax, DWORD PTR fs:0
	push	eax
	mov	DWORD PTR fs:0, esp
	sub	esp, 8

; 533  : 			_Iter _Last, input_iterator_tag)
; 534  : 		{	// initialize with [_First, _Last), input iterators
; 535  : 		_Buy(0);
; 536  : 		_TRY_BEGIN
; 537  : 		insert(begin(), _First, _Last);

	mov	edx, DWORD PTR $T221335[ebp]
	push	ebx
	push	esi
	push	edi
	mov	DWORD PTR __$EHRec$[ebp], esp
	push	edx
	mov	edx, DWORD PTR __Last$[ebp]
	push	edx
	mov	edx, DWORD PTR __First$[ebp]
	xor	eax, eax
	push	edx
	push	eax
	mov	DWORD PTR _this$[ebp], ecx
	mov	DWORD PTR [ecx+4], eax
	mov	DWORD PTR [ecx+8], eax
	mov	DWORD PTR [ecx+12], eax
	mov	DWORD PTR __$EHRec$[ebp+12], eax
	call	??$_Insert@V?$_Vector_const_iterator@UCvDllPathFinderUpdateListData@@V?$allocator@UCvDllPathFinderUpdateListData@@@std@@@std@@@?$vector@UCvDllPathFinderUpdateListData@@V?$allocator@UCvDllPathFinderUpdateListData@@@std@@@std@@QAEXV?$_Vector_const_iterator@UCvDllPathFinderUpdateListData@@V?$allocator@UCvDllPathFinderUpdateListData@@@std@@@1@00Uforward_iterator_tag@1@@Z ; std::vector<CvDllPathFinderUpdateListData,std::allocator<CvDllPathFinderUpdateListData> >::_Insert<std::_Vector_const_iterator<CvDllPathFinderUpdateListData,std::allocator<CvDllPathFinderUpdateListData> > >

; 541  : 		_CATCH_END
; 542  : 		}

	mov	ecx, DWORD PTR __$EHRec$[ebp+4]
	pop	edi
	pop	esi
	mov	DWORD PTR fs:0, ecx
	pop	ebx
	mov	esp, ebp
	pop	ebp
	ret	12					; 0000000cH
__catch$??$_Construct@V?$_Vector_const_iterator@UCvDllPathFinderUpdateListData@@V?$allocator@UCvDllPathFinderUpdateListData@@@std@@@std@@@?$vector@UCvDllPathFinderUpdateListData@@V?$allocator@UCvDllPathFinderUpdateListData@@@std@@@std@@QAEXV?$_Vector_const_iterator@UCvDllPathFinderUpdateListData@@V?$allocator@UCvDllPathFinderUpdateListData@@@std@@@1@0Uinput_iterator_tag@1@@Z$0:

; 538  : 		_CATCH_ALL
; 539  : 		_Tidy();

	mov	ecx, DWORD PTR _this$[ebp]
	call	?_Tidy@?$vector@UCvDllPathFinderUpdateListData@@V?$allocator@UCvDllPathFinderUpdateListData@@@std@@@std@@IAEXXZ ; std::vector<CvDllPathFinderUpdateListData,std::allocator<CvDllPathFinderUpdateListData> >::_Tidy

; 540  : 		_RERAISE;

	xor	eax, eax
	push	eax
	push	eax
	call	__CxxThrowException@8
$LN45@Construct@2:
$LN44@Construct@2:
	int	3
_TEXT	ENDS
;	COMDAT text$x
text$x	SEGMENT
__ehhandler$??$_Construct@V?$_Vector_const_iterator@UCvDllPathFinderUpdateListData@@V?$allocator@UCvDllPathFinderUpdateListData@@@std@@@std@@@?$vector@UCvDllPathFinderUpdateListData@@V?$allocator@UCvDllPathFinderUpdateListData@@@std@@@std@@QAEXV?$_Vector_const_iterator@UCvDllPathFinderUpdateListData@@V?$allocator@UCvDllPathFinderUpdateListData@@@std@@@1@0Uinput_iterator_tag@1@@Z:
	mov	eax, OFFSET __ehfuncinfo$??$_Construct@V?$_Vector_const_iterator@UCvDllPathFinderUpdateListData@@V?$allocator@UCvDllPathFinderUpdateListData@@@std@@@std@@@?$vector@UCvDllPathFinderUpdateListData@@V?$allocator@UCvDllPathFinderUpdateListData@@@std@@@std@@QAEXV?$_Vector_const_iterator@UCvDllPathFinderUpdateListData@@V?$allocator@UCvDllPathFinderUpdateListData@@@std@@@1@0Uinput_iterator_tag@1@@Z
	jmp	___CxxFrameHandler3
text$x	ENDS
??$_Construct@V?$_Vector_const_iterator@UCvDllPathFinderUpdateListData@@V?$allocator@UCvDllPathFinderUpdateListData@@@std@@@std@@@?$vector@UCvDllPathFinderUpdateListData@@V?$allocator@UCvDllPathFinderUpdateListData@@@std@@@std@@QAEXV?$_Vector_const_iterator@UCvDllPathFinderUpdateListData@@V?$allocator@UCvDllPathFinderUpdateListData@@@std@@@1@0Uinput_iterator_tag@1@@Z ENDP ; std::vector<CvDllPathFinderUpdateListData,std::allocator<CvDllPathFinderUpdateListData> >::_Construct<std::_Vector_const_iterator<CvDllPathFinderUpdateListData,std::allocator<CvDllPathFinderUpdateListData> > >
PUBLIC	??$?0V?$_Vector_const_iterator@UCvDllPathFinderUpdateListData@@V?$allocator@UCvDllPathFinderUpdateListData@@@std@@@std@@@?$vector@UCvDllPathFinderUpdateListData@@V?$allocator@UCvDllPathFinderUpdateListData@@@std@@@std@@QAE@V?$_Vector_const_iterator@UCvDllPathFinderUpdateListData@@V?$allocator@UCvDllPathFinderUpdateListData@@@std@@@1@0@Z ; std::vector<CvDllPathFinderUpdateListData,std::allocator<CvDllPathFinderUpdateListData> >::vector<CvDllPathFinderUpdateListData,std::allocator<CvDllPathFinderUpdateListData> ><std::_Vector_const_iterator<CvDllPathFinderUpdateListData,std::allocator<CvDllPathFinderUpdateListData> > >
; Function compile flags: /Ogtpy
;	COMDAT ??$?0V?$_Vector_const_iterator@UCvDllPathFinderUpdateListData@@V?$allocator@UCvDllPathFinderUpdateListData@@@std@@@std@@@?$vector@UCvDllPathFinderUpdateListData@@V?$allocator@UCvDllPathFinderUpdateListData@@@std@@@std@@QAE@V?$_Vector_const_iterator@UCvDllPathFinderUpdateListData@@V?$allocator@UCvDllPathFinderUpdateListData@@@std@@@1@0@Z
_TEXT	SEGMENT
__First$ = 8						; size = 4
$T221355 = 12						; size = 1
__Last$ = 12						; size = 4
??$?0V?$_Vector_const_iterator@UCvDllPathFinderUpdateListData@@V?$allocator@UCvDllPathFinderUpdateListData@@@std@@@std@@@?$vector@UCvDllPathFinderUpdateListData@@V?$allocator@UCvDllPathFinderUpdateListData@@@std@@@std@@QAE@V?$_Vector_const_iterator@UCvDllPathFinderUpdateListData@@V?$allocator@UCvDllPathFinderUpdateListData@@@std@@@1@0@Z PROC ; std::vector<CvDllPathFinderUpdateListData,std::allocator<CvDllPathFinderUpdateListData> >::vector<CvDllPathFinderUpdateListData,std::allocator<CvDllPathFinderUpdateListData> ><std::_Vector_const_iterator<CvDllPathFinderUpdateListData,std::allocator<CvDllPathFinderUpdateListData> > >, COMDAT
; _this$ = ecx

; 514  : 		_Construct(_First, _Last, _Iter_cat(_First));

	mov	eax, DWORD PTR $T221355[esp-4]
	mov	edx, DWORD PTR __First$[esp-4]
	push	esi
	mov	esi, ecx
	mov	ecx, DWORD PTR __Last$[esp]
	push	eax
	push	ecx
	push	edx
	mov	ecx, esi
	call	??$_Construct@V?$_Vector_const_iterator@UCvDllPathFinderUpdateListData@@V?$allocator@UCvDllPathFinderUpdateListData@@@std@@@std@@@?$vector@UCvDllPathFinderUpdateListData@@V?$allocator@UCvDllPathFinderUpdateListData@@@std@@@std@@QAEXV?$_Vector_const_iterator@UCvDllPathFinderUpdateListData@@V?$allocator@UCvDllPathFinderUpdateListData@@@std@@@1@0Uinput_iterator_tag@1@@Z ; std::vector<CvDllPathFinderUpdateListData,std::allocator<CvDllPathFinderUpdateListData> >::_Construct<std::_Vector_const_iterator<CvDllPathFinderUpdateListData,std::allocator<CvDllPathFinderUpdateListData> > >

; 515  : 		}

	mov	eax, esi
	pop	esi
	ret	8
??$?0V?$_Vector_const_iterator@UCvDllPathFinderUpdateListData@@V?$allocator@UCvDllPathFinderUpdateListData@@@std@@@std@@@?$vector@UCvDllPathFinderUpdateListData@@V?$allocator@UCvDllPathFinderUpdateListData@@@std@@@std@@QAE@V?$_Vector_const_iterator@UCvDllPathFinderUpdateListData@@V?$allocator@UCvDllPathFinderUpdateListData@@@std@@@1@0@Z ENDP ; std::vector<CvDllPathFinderUpdateListData,std::allocator<CvDllPathFinderUpdateListData> >::vector<CvDllPathFinderUpdateListData,std::allocator<CvDllPathFinderUpdateListData> ><std::_Vector_const_iterator<CvDllPathFinderUpdateListData,std::allocator<CvDllPathFinderUpdateListData> > >
_TEXT	ENDS
PUBLIC	??0CvDllPathFinderUpdateList@@QAE@ABV?$vector@UCvDllPathFinderUpdateListData@@V?$allocator@UCvDllPathFinderUpdateListData@@@std@@@std@@@Z ; CvDllPathFinderUpdateList::CvDllPathFinderUpdateList
; Function compile flags: /Ogtpy
; File c:\users\enormousapplepie\desktop\lekmod files\lekmod dll versions\v29\lekmod_dll\cvgamecoredll_expansion2\cvdllpathfinderupdate.cpp
;	COMDAT ??0CvDllPathFinderUpdateList@@QAE@ABV?$vector@UCvDllPathFinderUpdateListData@@V?$allocator@UCvDllPathFinderUpdateListData@@@std@@@std@@@Z
_TEXT	SEGMENT
$T221457 = 8						; size = 1
_updates$ = 8						; size = 4
??0CvDllPathFinderUpdateList@@QAE@ABV?$vector@UCvDllPathFinderUpdateListData@@V?$allocator@UCvDllPathFinderUpdateListData@@@std@@@std@@@Z PROC ; CvDllPathFinderUpdateList::CvDllPathFinderUpdateList, COMDAT
; _this$ = ecx

; 96   : {

	mov	eax, DWORD PTR _updates$[esp-4]
	mov	edx, DWORD PTR $T221457[esp-4]
	push	esi
	mov	esi, ecx
	mov	DWORD PTR [esi], OFFSET ??_7CvDllPathFinderUpdateList@@6B@
	mov	DWORD PTR [esi+4], 1
	mov	ecx, DWORD PTR [eax+8]
	mov	eax, DWORD PTR [eax+4]
	push	edx
	push	ecx
	push	eax
	lea	ecx, DWORD PTR [esi+8]
	call	??$_Construct@V?$_Vector_const_iterator@UCvDllPathFinderUpdateListData@@V?$allocator@UCvDllPathFinderUpdateListData@@@std@@@std@@@?$vector@UCvDllPathFinderUpdateListData@@V?$allocator@UCvDllPathFinderUpdateListData@@@std@@@std@@QAEXV?$_Vector_const_iterator@UCvDllPathFinderUpdateListData@@V?$allocator@UCvDllPathFinderUpdateListData@@@std@@@1@0Uinput_iterator_tag@1@@Z ; std::vector<CvDllPathFinderUpdateListData,std::allocator<CvDllPathFinderUpdateListData> >::_Construct<std::_Vector_const_iterator<CvDllPathFinderUpdateListData,std::allocator<CvDllPathFinderUpdateListData> > >
	mov	DWORD PTR [esi+24], -1

; 97   : }

	mov	eax, esi
	pop	esi
	ret	4
??0CvDllPathFinderUpdateList@@QAE@ABV?$vector@UCvDllPathFinderUpdateListData@@V?$allocator@UCvDllPathFinderUpdateListData@@@std@@@std@@@Z ENDP ; CvDllPathFinderUpdateList::CvDllPathFinderUpdateList
_TEXT	ENDS
END
