; Listing generated by Microsoft (R) Optimizing Compiler Version 15.00.30729.01 

	TITLE	c:\Users\EnormousApplePie\Desktop\Lekmod Files\Lekmod DLL versions\v29\LEKMOD_DLL\CvGameCoreDLL_Expansion2\CvDllResourceInfo.cpp
	.686P
	.XMM
	include listing.inc
	.model	flat

INCLUDELIB MSVCRT
INCLUDELIB OLDNAMES

_DATA	SEGMENT
_CIV5_XP2_DLL_VERSION DD FLAT:$SG217157
_DATA	ENDS
CONST	SEGMENT
$SG217157 DB	'1.0.0', 00H
	ORG $+2
_guidICvUnknown DD 0d89ba82fH
	DW	09fa3H
	DW	04696H
	DB	0b3H
	DB	0f4H
	DB	052H
	DB	0bdH
	DB	0b1H
	DB	01H
	DB	0cfH
	DB	0b2H
_guidICvResourceInfo1 DD 020415753H
	DW	0638dH
	DW	04a6dH
	DB	092H
	DB	02fH
	DB	08aH
	DB	09dH
	DB	011H
	DB	0f6H
	DB	00H
	DB	08eH
CONST	ENDS
PUBLIC	??_7ICvUnknown@@6B@				; ICvUnknown::`vftable'
PUBLIC	??0ICvUnknown@@QAE@XZ				; ICvUnknown::ICvUnknown
PUBLIC	??_R4ICvUnknown@@6B@				; ICvUnknown::`RTTI Complete Object Locator'
PUBLIC	??_R0?AVICvUnknown@@@8				; ICvUnknown `RTTI Type Descriptor'
PUBLIC	??_R3ICvUnknown@@8				; ICvUnknown::`RTTI Class Hierarchy Descriptor'
PUBLIC	??_R2ICvUnknown@@8				; ICvUnknown::`RTTI Base Class Array'
PUBLIC	??_R1A@?0A@EA@ICvUnknown@@8			; ICvUnknown::`RTTI Base Class Descriptor at (0,-1,0,64)'
EXTRN	??_7type_info@@6B@:QWORD			; type_info::`vftable'
EXTRN	__purecall:PROC
;	COMDAT ??_R1A@?0A@EA@ICvUnknown@@8
rdata$r	SEGMENT
??_R1A@?0A@EA@ICvUnknown@@8 DD FLAT:??_R0?AVICvUnknown@@@8 ; ICvUnknown::`RTTI Base Class Descriptor at (0,-1,0,64)'
	DD	00H
	DD	00H
	DD	0ffffffffH
	DD	00H
	DD	040H
	DD	FLAT:??_R3ICvUnknown@@8
rdata$r	ENDS
;	COMDAT ??_R2ICvUnknown@@8
rdata$r	SEGMENT
??_R2ICvUnknown@@8 DD FLAT:??_R1A@?0A@EA@ICvUnknown@@8	; ICvUnknown::`RTTI Base Class Array'
rdata$r	ENDS
;	COMDAT ??_R3ICvUnknown@@8
rdata$r	SEGMENT
??_R3ICvUnknown@@8 DD 00H				; ICvUnknown::`RTTI Class Hierarchy Descriptor'
	DD	00H
	DD	01H
	DD	FLAT:??_R2ICvUnknown@@8
rdata$r	ENDS
;	COMDAT ??_R0?AVICvUnknown@@@8
_DATA	SEGMENT
??_R0?AVICvUnknown@@@8 DD FLAT:??_7type_info@@6B@	; ICvUnknown `RTTI Type Descriptor'
	DD	00H
	DB	'.?AVICvUnknown@@', 00H
_DATA	ENDS
;	COMDAT ??_R4ICvUnknown@@6B@
rdata$r	SEGMENT
??_R4ICvUnknown@@6B@ DD 00H				; ICvUnknown::`RTTI Complete Object Locator'
	DD	00H
	DD	00H
	DD	FLAT:??_R0?AVICvUnknown@@@8
	DD	FLAT:??_R3ICvUnknown@@8
rdata$r	ENDS
;	COMDAT ??_7ICvUnknown@@6B@
CONST	SEGMENT
??_7ICvUnknown@@6B@ DD FLAT:??_R4ICvUnknown@@6B@	; ICvUnknown::`vftable'
	DD	FLAT:__purecall
	DD	FLAT:__purecall
; Function compile flags: /Ogtpy
CONST	ENDS
;	COMDAT ??0ICvUnknown@@QAE@XZ
_TEXT	SEGMENT
??0ICvUnknown@@QAE@XZ PROC				; ICvUnknown::ICvUnknown, COMDAT
; _this$ = ecx
	mov	eax, ecx
	mov	DWORD PTR [eax], OFFSET ??_7ICvUnknown@@6B@
	ret	0
??0ICvUnknown@@QAE@XZ ENDP				; ICvUnknown::ICvUnknown
_TEXT	ENDS
PUBLIC	??_7CvDllResourceInfo@@6B@			; CvDllResourceInfo::`vftable'
PUBLIC	??1CvDllResourceInfo@@QAE@XZ			; CvDllResourceInfo::~CvDllResourceInfo
PUBLIC	??_R4CvDllResourceInfo@@6B@			; CvDllResourceInfo::`RTTI Complete Object Locator'
PUBLIC	??_R0?AVCvDllResourceInfo@@@8			; CvDllResourceInfo `RTTI Type Descriptor'
PUBLIC	??_R3CvDllResourceInfo@@8			; CvDllResourceInfo::`RTTI Class Hierarchy Descriptor'
PUBLIC	??_R2CvDllResourceInfo@@8			; CvDllResourceInfo::`RTTI Base Class Array'
PUBLIC	??_R1A@?0A@EA@CvDllResourceInfo@@8		; CvDllResourceInfo::`RTTI Base Class Descriptor at (0,-1,0,64)'
PUBLIC	??_R1A@?0A@EA@ICvResourceInfo1@@8		; ICvResourceInfo1::`RTTI Base Class Descriptor at (0,-1,0,64)'
PUBLIC	??_R0?AVICvResourceInfo1@@@8			; ICvResourceInfo1 `RTTI Type Descriptor'
PUBLIC	??_R3ICvResourceInfo1@@8			; ICvResourceInfo1::`RTTI Class Hierarchy Descriptor'
PUBLIC	??_R2ICvResourceInfo1@@8			; ICvResourceInfo1::`RTTI Base Class Array'
PUBLIC	?QueryInterface@CvDllResourceInfo@@UAGPAXU_GUID@@@Z ; CvDllResourceInfo::QueryInterface
PUBLIC	?Destroy@CvDllResourceInfo@@EAGXXZ		; CvDllResourceInfo::Destroy
PUBLIC	?GetType@CvDllResourceInfo@@UAGPBDXZ		; CvDllResourceInfo::GetType
PUBLIC	?GetDescription@CvDllResourceInfo@@UAGPBDXZ	; CvDllResourceInfo::GetDescription
PUBLIC	?GetResourceClassType@CvDllResourceInfo@@UAGHXZ	; CvDllResourceInfo::GetResourceClassType
PUBLIC	?GetResourceUsage@CvDllResourceInfo@@UAG?AW4ResourceUsageTypes@@XZ ; CvDllResourceInfo::GetResourceUsage
PUBLIC	?GetIconString@CvDllResourceInfo@@UAGPBDXZ	; CvDllResourceInfo::GetIconString
PUBLIC	?GetArtDefineTag@CvDllResourceInfo@@UAGPBDXZ	; CvDllResourceInfo::GetArtDefineTag
PUBLIC	?GetArtDefineTagHeavy@CvDllResourceInfo@@UAGPBDXZ ; CvDllResourceInfo::GetArtDefineTagHeavy
PUBLIC	?GetAltArtDefineTag@CvDllResourceInfo@@UAGPBDXZ	; CvDllResourceInfo::GetAltArtDefineTag
PUBLIC	?GetAltArtDefineTagHeavy@CvDllResourceInfo@@UAGPBDXZ ; CvDllResourceInfo::GetAltArtDefineTagHeavy
PUBLIC	?IsTerrain@CvDllResourceInfo@@UAG_NH@Z		; CvDllResourceInfo::IsTerrain
PUBLIC	?IsFeature@CvDllResourceInfo@@UAG_NH@Z		; CvDllResourceInfo::IsFeature
PUBLIC	?IsFeatureTerrain@CvDllResourceInfo@@UAG_NH@Z	; CvDllResourceInfo::IsFeatureTerrain
;	COMDAT ??_R2ICvResourceInfo1@@8
; File c:\users\enormousapplepie\desktop\lekmod files\lekmod dll versions\v29\lekmod_dll\cvgamecoredll_expansion2\cvdllresourceinfo.cpp
rdata$r	SEGMENT
??_R2ICvResourceInfo1@@8 DD FLAT:??_R1A@?0A@EA@ICvResourceInfo1@@8 ; ICvResourceInfo1::`RTTI Base Class Array'
	DD	FLAT:??_R1A@?0A@EA@ICvUnknown@@8
rdata$r	ENDS
;	COMDAT ??_R3ICvResourceInfo1@@8
rdata$r	SEGMENT
??_R3ICvResourceInfo1@@8 DD 00H				; ICvResourceInfo1::`RTTI Class Hierarchy Descriptor'
	DD	00H
	DD	02H
	DD	FLAT:??_R2ICvResourceInfo1@@8
rdata$r	ENDS
;	COMDAT ??_R0?AVICvResourceInfo1@@@8
_DATA	SEGMENT
??_R0?AVICvResourceInfo1@@@8 DD FLAT:??_7type_info@@6B@	; ICvResourceInfo1 `RTTI Type Descriptor'
	DD	00H
	DB	'.?AVICvResourceInfo1@@', 00H
_DATA	ENDS
;	COMDAT ??_R1A@?0A@EA@ICvResourceInfo1@@8
rdata$r	SEGMENT
??_R1A@?0A@EA@ICvResourceInfo1@@8 DD FLAT:??_R0?AVICvResourceInfo1@@@8 ; ICvResourceInfo1::`RTTI Base Class Descriptor at (0,-1,0,64)'
	DD	01H
	DD	00H
	DD	0ffffffffH
	DD	00H
	DD	040H
	DD	FLAT:??_R3ICvResourceInfo1@@8
rdata$r	ENDS
;	COMDAT ??_R1A@?0A@EA@CvDllResourceInfo@@8
rdata$r	SEGMENT
??_R1A@?0A@EA@CvDllResourceInfo@@8 DD FLAT:??_R0?AVCvDllResourceInfo@@@8 ; CvDllResourceInfo::`RTTI Base Class Descriptor at (0,-1,0,64)'
	DD	02H
	DD	00H
	DD	0ffffffffH
	DD	00H
	DD	040H
	DD	FLAT:??_R3CvDllResourceInfo@@8
rdata$r	ENDS
;	COMDAT ??_R2CvDllResourceInfo@@8
rdata$r	SEGMENT
??_R2CvDllResourceInfo@@8 DD FLAT:??_R1A@?0A@EA@CvDllResourceInfo@@8 ; CvDllResourceInfo::`RTTI Base Class Array'
	DD	FLAT:??_R1A@?0A@EA@ICvResourceInfo1@@8
	DD	FLAT:??_R1A@?0A@EA@ICvUnknown@@8
rdata$r	ENDS
;	COMDAT ??_R3CvDllResourceInfo@@8
rdata$r	SEGMENT
??_R3CvDllResourceInfo@@8 DD 00H			; CvDllResourceInfo::`RTTI Class Hierarchy Descriptor'
	DD	00H
	DD	03H
	DD	FLAT:??_R2CvDllResourceInfo@@8
rdata$r	ENDS
;	COMDAT ??_R0?AVCvDllResourceInfo@@@8
_DATA	SEGMENT
??_R0?AVCvDllResourceInfo@@@8 DD FLAT:??_7type_info@@6B@ ; CvDllResourceInfo `RTTI Type Descriptor'
	DD	00H
	DB	'.?AVCvDllResourceInfo@@', 00H
_DATA	ENDS
;	COMDAT ??_R4CvDllResourceInfo@@6B@
rdata$r	SEGMENT
??_R4CvDllResourceInfo@@6B@ DD 00H			; CvDllResourceInfo::`RTTI Complete Object Locator'
	DD	00H
	DD	00H
	DD	FLAT:??_R0?AVCvDllResourceInfo@@@8
	DD	FLAT:??_R3CvDllResourceInfo@@8
rdata$r	ENDS
;	COMDAT ??_7CvDllResourceInfo@@6B@
CONST	SEGMENT
??_7CvDllResourceInfo@@6B@ DD FLAT:??_R4CvDllResourceInfo@@6B@ ; CvDllResourceInfo::`vftable'
	DD	FLAT:?QueryInterface@CvDllResourceInfo@@UAGPAXU_GUID@@@Z
	DD	FLAT:?Destroy@CvDllResourceInfo@@EAGXXZ
	DD	FLAT:?GetType@CvDllResourceInfo@@UAGPBDXZ
	DD	FLAT:?GetDescription@CvDllResourceInfo@@UAGPBDXZ
	DD	FLAT:?GetResourceClassType@CvDllResourceInfo@@UAGHXZ
	DD	FLAT:?GetResourceUsage@CvDllResourceInfo@@UAG?AW4ResourceUsageTypes@@XZ
	DD	FLAT:?GetIconString@CvDllResourceInfo@@UAGPBDXZ
	DD	FLAT:?GetArtDefineTag@CvDllResourceInfo@@UAGPBDXZ
	DD	FLAT:?GetArtDefineTagHeavy@CvDllResourceInfo@@UAGPBDXZ
	DD	FLAT:?GetAltArtDefineTag@CvDllResourceInfo@@UAGPBDXZ
	DD	FLAT:?GetAltArtDefineTagHeavy@CvDllResourceInfo@@UAGPBDXZ
	DD	FLAT:?IsTerrain@CvDllResourceInfo@@UAG_NH@Z
	DD	FLAT:?IsFeature@CvDllResourceInfo@@UAG_NH@Z
	DD	FLAT:?IsFeatureTerrain@CvDllResourceInfo@@UAG_NH@Z
; Function compile flags: /Ogtpy
CONST	ENDS
;	COMDAT ??1CvDllResourceInfo@@QAE@XZ
_TEXT	SEGMENT
??1CvDllResourceInfo@@QAE@XZ PROC			; CvDllResourceInfo::~CvDllResourceInfo, COMDAT
; _this$ = ecx

; 24   : {

	mov	DWORD PTR [ecx], OFFSET ??_7CvDllResourceInfo@@6B@

; 25   : }

	ret	0
??1CvDllResourceInfo@@QAE@XZ ENDP			; CvDllResourceInfo::~CvDllResourceInfo
_TEXT	ENDS
PUBLIC	?IncrementReference@CvDllResourceInfo@@QAEIXZ	; CvDllResourceInfo::IncrementReference
; Function compile flags: /Ogtpy
;	COMDAT ?IncrementReference@CvDllResourceInfo@@QAEIXZ
_TEXT	SEGMENT
?IncrementReference@CvDllResourceInfo@@QAEIXZ PROC	; CvDllResourceInfo::IncrementReference, COMDAT
; _this$ = ecx

; 41   : 	++m_uiRefCount;

	inc	DWORD PTR [ecx+4]

; 42   : 	return m_uiRefCount;

	mov	eax, DWORD PTR [ecx+4]

; 43   : }

	ret	0
?IncrementReference@CvDllResourceInfo@@QAEIXZ ENDP	; CvDllResourceInfo::IncrementReference
_TEXT	ENDS
PUBLIC	?GetReferenceCount@CvDllResourceInfo@@QAEIXZ	; CvDllResourceInfo::GetReferenceCount
; Function compile flags: /Ogtpy
;	COMDAT ?GetReferenceCount@CvDllResourceInfo@@QAEIXZ
_TEXT	SEGMENT
?GetReferenceCount@CvDllResourceInfo@@QAEIXZ PROC	; CvDllResourceInfo::GetReferenceCount, COMDAT
; _this$ = ecx

; 61   : 	return m_uiRefCount;

	mov	eax, DWORD PTR [ecx+4]

; 62   : }

	ret	0
?GetReferenceCount@CvDllResourceInfo@@QAEIXZ ENDP	; CvDllResourceInfo::GetReferenceCount
_TEXT	ENDS
PUBLIC	??3CvDllResourceInfo@@SAXPAX@Z			; CvDllResourceInfo::operator delete
EXTRN	?Free@CvDllGameContext@@SAXPAX@Z:PROC		; CvDllGameContext::Free
; Function compile flags: /Ogtpy
;	COMDAT ??3CvDllResourceInfo@@SAXPAX@Z
_TEXT	SEGMENT
_p$ = 8							; size = 4
??3CvDllResourceInfo@@SAXPAX@Z PROC			; CvDllResourceInfo::operator delete, COMDAT

; 71   : 	CvDllGameContext::Free(p);

	jmp	?Free@CvDllGameContext@@SAXPAX@Z	; CvDllGameContext::Free
??3CvDllResourceInfo@@SAXPAX@Z ENDP			; CvDllResourceInfo::operator delete
_TEXT	ENDS
PUBLIC	??2CvDllResourceInfo@@SAPAXI@Z			; CvDllResourceInfo::operator new
EXTRN	?Allocate@CvDllGameContext@@SAPAXI@Z:PROC	; CvDllGameContext::Allocate
; Function compile flags: /Ogtpy
;	COMDAT ??2CvDllResourceInfo@@SAPAXI@Z
_TEXT	SEGMENT
_bytes$ = 8						; size = 4
??2CvDllResourceInfo@@SAPAXI@Z PROC			; CvDllResourceInfo::operator new, COMDAT

; 76   : 	return CvDllGameContext::Allocate(bytes);

	jmp	?Allocate@CvDllGameContext@@SAPAXI@Z	; CvDllGameContext::Allocate
??2CvDllResourceInfo@@SAPAXI@Z ENDP			; CvDllResourceInfo::operator new
_TEXT	ENDS
PUBLIC	?GetInstance@CvDllResourceInfo@@QAEPAVCvResourceInfo@@XZ ; CvDllResourceInfo::GetInstance
; Function compile flags: /Ogtpy
;	COMDAT ?GetInstance@CvDllResourceInfo@@QAEPAVCvResourceInfo@@XZ
_TEXT	SEGMENT
?GetInstance@CvDllResourceInfo@@QAEPAVCvResourceInfo@@XZ PROC ; CvDllResourceInfo::GetInstance, COMDAT
; _this$ = ecx

; 81   : 	return m_pResourceInfo;

	mov	eax, DWORD PTR [ecx+8]

; 82   : }

	ret	0
?GetInstance@CvDllResourceInfo@@QAEPAVCvResourceInfo@@XZ ENDP ; CvDllResourceInfo::GetInstance
_TEXT	ENDS
EXTRN	?getResourceClassType@CvResourceInfo@@QBEHXZ:PROC ; CvResourceInfo::getResourceClassType
; Function compile flags: /Ogtpy
;	COMDAT ?GetResourceClassType@CvDllResourceInfo@@UAGHXZ
_TEXT	SEGMENT
_this$ = 8						; size = 4
?GetResourceClassType@CvDllResourceInfo@@UAGHXZ PROC	; CvDllResourceInfo::GetResourceClassType, COMDAT

; 96   : 	return m_pResourceInfo->getResourceClassType();

	mov	eax, DWORD PTR _this$[esp-4]
	mov	ecx, DWORD PTR [eax+8]
	call	?getResourceClassType@CvResourceInfo@@QBEHXZ ; CvResourceInfo::getResourceClassType

; 97   : }

	ret	4
?GetResourceClassType@CvDllResourceInfo@@UAGHXZ ENDP	; CvDllResourceInfo::GetResourceClassType
_TEXT	ENDS
EXTRN	?getResourceUsage@CvResourceInfo@@QBE?AW4ResourceUsageTypes@@XZ:PROC ; CvResourceInfo::getResourceUsage
; Function compile flags: /Ogtpy
;	COMDAT ?GetResourceUsage@CvDllResourceInfo@@UAG?AW4ResourceUsageTypes@@XZ
_TEXT	SEGMENT
_this$ = 8						; size = 4
?GetResourceUsage@CvDllResourceInfo@@UAG?AW4ResourceUsageTypes@@XZ PROC ; CvDllResourceInfo::GetResourceUsage, COMDAT

; 101  : 	return m_pResourceInfo->getResourceUsage();

	mov	eax, DWORD PTR _this$[esp-4]
	mov	ecx, DWORD PTR [eax+8]
	call	?getResourceUsage@CvResourceInfo@@QBE?AW4ResourceUsageTypes@@XZ ; CvResourceInfo::getResourceUsage

; 102  : }

	ret	4
?GetResourceUsage@CvDllResourceInfo@@UAG?AW4ResourceUsageTypes@@XZ ENDP ; CvDllResourceInfo::GetResourceUsage
_TEXT	ENDS
EXTRN	?GetIconString@CvResourceInfo@@QBEPBDXZ:PROC	; CvResourceInfo::GetIconString
; Function compile flags: /Ogtpy
;	COMDAT ?GetIconString@CvDllResourceInfo@@UAGPBDXZ
_TEXT	SEGMENT
_this$ = 8						; size = 4
?GetIconString@CvDllResourceInfo@@UAGPBDXZ PROC		; CvDllResourceInfo::GetIconString, COMDAT

; 106  : 	return m_pResourceInfo->GetIconString();

	mov	eax, DWORD PTR _this$[esp-4]
	mov	ecx, DWORD PTR [eax+8]
	call	?GetIconString@CvResourceInfo@@QBEPBDXZ	; CvResourceInfo::GetIconString

; 107  : }

	ret	4
?GetIconString@CvDllResourceInfo@@UAGPBDXZ ENDP		; CvDllResourceInfo::GetIconString
_TEXT	ENDS
EXTRN	?getArtDefineTag@CvResourceInfo@@QBEPBDXZ:PROC	; CvResourceInfo::getArtDefineTag
; Function compile flags: /Ogtpy
;	COMDAT ?GetArtDefineTag@CvDllResourceInfo@@UAGPBDXZ
_TEXT	SEGMENT
_this$ = 8						; size = 4
?GetArtDefineTag@CvDllResourceInfo@@UAGPBDXZ PROC	; CvDllResourceInfo::GetArtDefineTag, COMDAT

; 111  : 	return m_pResourceInfo->getArtDefineTag();

	mov	eax, DWORD PTR _this$[esp-4]
	mov	ecx, DWORD PTR [eax+8]
	call	?getArtDefineTag@CvResourceInfo@@QBEPBDXZ ; CvResourceInfo::getArtDefineTag

; 112  : }

	ret	4
?GetArtDefineTag@CvDllResourceInfo@@UAGPBDXZ ENDP	; CvDllResourceInfo::GetArtDefineTag
_TEXT	ENDS
EXTRN	?getArtDefineTagHeavy@CvResourceInfo@@QBEPBDXZ:PROC ; CvResourceInfo::getArtDefineTagHeavy
; Function compile flags: /Ogtpy
;	COMDAT ?GetArtDefineTagHeavy@CvDllResourceInfo@@UAGPBDXZ
_TEXT	SEGMENT
_this$ = 8						; size = 4
?GetArtDefineTagHeavy@CvDllResourceInfo@@UAGPBDXZ PROC	; CvDllResourceInfo::GetArtDefineTagHeavy, COMDAT

; 116  : 	return m_pResourceInfo->getArtDefineTagHeavy();

	mov	eax, DWORD PTR _this$[esp-4]
	mov	ecx, DWORD PTR [eax+8]
	call	?getArtDefineTagHeavy@CvResourceInfo@@QBEPBDXZ ; CvResourceInfo::getArtDefineTagHeavy

; 117  : }

	ret	4
?GetArtDefineTagHeavy@CvDllResourceInfo@@UAGPBDXZ ENDP	; CvDllResourceInfo::GetArtDefineTagHeavy
_TEXT	ENDS
EXTRN	?getAltArtDefineTag@CvResourceInfo@@QBEPBDXZ:PROC ; CvResourceInfo::getAltArtDefineTag
; Function compile flags: /Ogtpy
;	COMDAT ?GetAltArtDefineTag@CvDllResourceInfo@@UAGPBDXZ
_TEXT	SEGMENT
_this$ = 8						; size = 4
?GetAltArtDefineTag@CvDllResourceInfo@@UAGPBDXZ PROC	; CvDllResourceInfo::GetAltArtDefineTag, COMDAT

; 121  : 	return m_pResourceInfo->getAltArtDefineTag();

	mov	eax, DWORD PTR _this$[esp-4]
	mov	ecx, DWORD PTR [eax+8]
	call	?getAltArtDefineTag@CvResourceInfo@@QBEPBDXZ ; CvResourceInfo::getAltArtDefineTag

; 122  : }

	ret	4
?GetAltArtDefineTag@CvDllResourceInfo@@UAGPBDXZ ENDP	; CvDllResourceInfo::GetAltArtDefineTag
_TEXT	ENDS
EXTRN	?getAltArtDefineTagHeavy@CvResourceInfo@@QBEPBDXZ:PROC ; CvResourceInfo::getAltArtDefineTagHeavy
; Function compile flags: /Ogtpy
;	COMDAT ?GetAltArtDefineTagHeavy@CvDllResourceInfo@@UAGPBDXZ
_TEXT	SEGMENT
_this$ = 8						; size = 4
?GetAltArtDefineTagHeavy@CvDllResourceInfo@@UAGPBDXZ PROC ; CvDllResourceInfo::GetAltArtDefineTagHeavy, COMDAT

; 126  : 	return m_pResourceInfo->getAltArtDefineTagHeavy();

	mov	eax, DWORD PTR _this$[esp-4]
	mov	ecx, DWORD PTR [eax+8]
	call	?getAltArtDefineTagHeavy@CvResourceInfo@@QBEPBDXZ ; CvResourceInfo::getAltArtDefineTagHeavy

; 127  : }

	ret	4
?GetAltArtDefineTagHeavy@CvDllResourceInfo@@UAGPBDXZ ENDP ; CvDllResourceInfo::GetAltArtDefineTagHeavy
_TEXT	ENDS
EXTRN	?isTerrain@CvResourceInfo@@QBE_NH@Z:PROC	; CvResourceInfo::isTerrain
; Function compile flags: /Ogtpy
;	COMDAT ?IsTerrain@CvDllResourceInfo@@UAG_NH@Z
_TEXT	SEGMENT
_this$ = 8						; size = 4
_i$ = 12						; size = 4
?IsTerrain@CvDllResourceInfo@@UAG_NH@Z PROC		; CvDllResourceInfo::IsTerrain, COMDAT

; 131  : 	return m_pResourceInfo->isTerrain(i);

	mov	eax, DWORD PTR _i$[esp-4]
	mov	ecx, DWORD PTR _this$[esp-4]
	mov	ecx, DWORD PTR [ecx+8]
	push	eax
	call	?isTerrain@CvResourceInfo@@QBE_NH@Z	; CvResourceInfo::isTerrain

; 132  : }

	ret	8
?IsTerrain@CvDllResourceInfo@@UAG_NH@Z ENDP		; CvDllResourceInfo::IsTerrain
_TEXT	ENDS
EXTRN	?isFeature@CvResourceInfo@@QBE_NH@Z:PROC	; CvResourceInfo::isFeature
; Function compile flags: /Ogtpy
;	COMDAT ?IsFeature@CvDllResourceInfo@@UAG_NH@Z
_TEXT	SEGMENT
_this$ = 8						; size = 4
_i$ = 12						; size = 4
?IsFeature@CvDllResourceInfo@@UAG_NH@Z PROC		; CvDllResourceInfo::IsFeature, COMDAT

; 136  : 	return m_pResourceInfo->isFeature(i);

	mov	eax, DWORD PTR _i$[esp-4]
	mov	ecx, DWORD PTR _this$[esp-4]
	mov	ecx, DWORD PTR [ecx+8]
	push	eax
	call	?isFeature@CvResourceInfo@@QBE_NH@Z	; CvResourceInfo::isFeature

; 137  : }

	ret	8
?IsFeature@CvDllResourceInfo@@UAG_NH@Z ENDP		; CvDllResourceInfo::IsFeature
_TEXT	ENDS
EXTRN	?isFeatureTerrain@CvResourceInfo@@QBE_NH@Z:PROC	; CvResourceInfo::isFeatureTerrain
; Function compile flags: /Ogtpy
;	COMDAT ?IsFeatureTerrain@CvDllResourceInfo@@UAG_NH@Z
_TEXT	SEGMENT
_this$ = 8						; size = 4
_i$ = 12						; size = 4
?IsFeatureTerrain@CvDllResourceInfo@@UAG_NH@Z PROC	; CvDllResourceInfo::IsFeatureTerrain, COMDAT

; 141  : 	return m_pResourceInfo->isFeatureTerrain(i);

	mov	eax, DWORD PTR _i$[esp-4]
	mov	ecx, DWORD PTR _this$[esp-4]
	mov	ecx, DWORD PTR [ecx+8]
	push	eax
	call	?isFeatureTerrain@CvResourceInfo@@QBE_NH@Z ; CvResourceInfo::isFeatureTerrain

; 142  : }

	ret	8
?IsFeatureTerrain@CvDllResourceInfo@@UAG_NH@Z ENDP	; CvDllResourceInfo::IsFeatureTerrain
_TEXT	ENDS
PUBLIC	_IsEqualGUID
; Function compile flags: /Ogtpy
; File c:\program files\microsoft sdks\windows\v6.0a\include\guiddef.h
;	COMDAT _IsEqualGUID
_TEXT	SEGMENT
_rguid1$ = 8						; size = 4
_rguid2$ = 12						; size = 4
_IsEqualGUID PROC					; COMDAT

; 161  :     return !memcmp(&rguid1, &rguid2, sizeof(GUID));

	mov	ecx, DWORD PTR _rguid2$[esp-4]
	mov	edx, DWORD PTR _rguid1$[esp-4]
	mov	eax, 16					; 00000010H
	push	esi
	npad	2
$LL4@IsEqualGUI:
	mov	esi, DWORD PTR [edx]
	cmp	esi, DWORD PTR [ecx]
	jne	SHORT $LN5@IsEqualGUI
	sub	eax, 4
	add	ecx, 4
	add	edx, 4
	cmp	eax, 4
	jae	SHORT $LL4@IsEqualGUI
	xor	eax, eax
	xor	edx, edx
	test	eax, eax
	sete	dl
	pop	esi
	mov	eax, edx

; 162  : }

	ret	0
$LN5@IsEqualGUI:

; 161  :     return !memcmp(&rguid1, &rguid2, sizeof(GUID));

	movzx	eax, BYTE PTR [edx]
	movzx	esi, BYTE PTR [ecx]
	sub	eax, esi
	jne	SHORT $LN7@IsEqualGUI
	movzx	eax, BYTE PTR [edx+1]
	movzx	esi, BYTE PTR [ecx+1]
	sub	eax, esi
	jne	SHORT $LN7@IsEqualGUI
	movzx	eax, BYTE PTR [edx+2]
	movzx	esi, BYTE PTR [ecx+2]
	sub	eax, esi
	jne	SHORT $LN7@IsEqualGUI
	movzx	eax, BYTE PTR [edx+3]
	movzx	ecx, BYTE PTR [ecx+3]
	sub	eax, ecx
$LN7@IsEqualGUI:
	sar	eax, 31					; 0000001fH
	or	eax, 1
	xor	edx, edx
	test	eax, eax
	sete	dl
	pop	esi
	mov	eax, edx

; 162  : }

	ret	0
_IsEqualGUID ENDP
_TEXT	ENDS
PUBLIC	_==
; Function compile flags: /Ogtpy
;	COMDAT _==
_TEXT	SEGMENT
_guidOne$ = 8						; size = 4
_guidOther$ = 12					; size = 4
_==	PROC						; COMDAT

; 194  :     return IsEqualGUID(guidOne,guidOther);

	jmp	_IsEqualGUID
_==	ENDP
_TEXT	ENDS
PUBLIC	?GetInterfaceId@ICvUnknown@@SG?AU_GUID@@XZ	; ICvUnknown::GetInterfaceId
; Function compile flags: /Ogtpy
; File c:\users\enormousapplepie\desktop\lekmod files\lekmod dll versions\v29\lekmod_dll\cvgamecoredllutil\include\cvdllinterfaces.h
;	COMDAT ?GetInterfaceId@ICvUnknown@@SG?AU_GUID@@XZ
_TEXT	SEGMENT
$T218560 = 8						; size = 4
?GetInterfaceId@ICvUnknown@@SG?AU_GUID@@XZ PROC		; ICvUnknown::GetInterfaceId, COMDAT

; 306  : 	static GUID DLLCALL GetInterfaceId(){ return guidICvUnknown; }

	mov	eax, DWORD PTR $T218560[esp-4]
	mov	ecx, DWORD PTR _guidICvUnknown
	mov	edx, DWORD PTR _guidICvUnknown+4
	mov	DWORD PTR [eax], ecx
	mov	ecx, DWORD PTR _guidICvUnknown+8
	mov	DWORD PTR [eax+4], edx
	mov	edx, DWORD PTR _guidICvUnknown+12
	mov	DWORD PTR [eax+8], ecx
	mov	DWORD PTR [eax+12], edx
	ret	4
?GetInterfaceId@ICvUnknown@@SG?AU_GUID@@XZ ENDP		; ICvUnknown::GetInterfaceId
_TEXT	ENDS
PUBLIC	?GetInterfaceId@ICvResourceInfo1@@SG?AU_GUID@@XZ ; ICvResourceInfo1::GetInterfaceId
; Function compile flags: /Ogtpy
;	COMDAT ?GetInterfaceId@ICvResourceInfo1@@SG?AU_GUID@@XZ
_TEXT	SEGMENT
$T218564 = 8						; size = 4
?GetInterfaceId@ICvResourceInfo1@@SG?AU_GUID@@XZ PROC	; ICvResourceInfo1::GetInterfaceId, COMDAT

; 576  : 	static GUID DLLCALL GetInterfaceId() { return guidICvResourceInfo1; }

	mov	eax, DWORD PTR $T218564[esp-4]
	mov	ecx, DWORD PTR _guidICvResourceInfo1
	mov	edx, DWORD PTR _guidICvResourceInfo1+4
	mov	DWORD PTR [eax], ecx
	mov	ecx, DWORD PTR _guidICvResourceInfo1+8
	mov	DWORD PTR [eax+4], edx
	mov	edx, DWORD PTR _guidICvResourceInfo1+12
	mov	DWORD PTR [eax+8], ecx
	mov	DWORD PTR [eax+12], edx
	ret	4
?GetInterfaceId@ICvResourceInfo1@@SG?AU_GUID@@XZ ENDP	; ICvResourceInfo1::GetInterfaceId
_TEXT	ENDS
PUBLIC	?GetDescription@CvBaseInfo@@QBEPBDXZ		; CvBaseInfo::GetDescription
EXTRN	__imp_?c_str@?$basic_string@DU?$char_traits@D@std@@V?$allocator@D@2@@std@@QBEPBDXZ:PROC
; Function compile flags: /Ogtpy
; File c:\users\enormousapplepie\desktop\lekmod files\lekmod dll versions\v29\lekmod_dll\cvgamecoredll_expansion2\cvinfos.h
;	COMDAT ?GetDescription@CvBaseInfo@@QBEPBDXZ
_TEXT	SEGMENT
?GetDescription@CvBaseInfo@@QBEPBDXZ PROC		; CvBaseInfo::GetDescription, COMDAT
; _this$ = ecx

; 64   : 		return m_strDescription.c_str();

	add	ecx, 36					; 00000024H
	jmp	DWORD PTR __imp_?c_str@?$basic_string@DU?$char_traits@D@std@@V?$allocator@D@2@@std@@QBEPBDXZ
?GetDescription@CvBaseInfo@@QBEPBDXZ ENDP		; CvBaseInfo::GetDescription
_TEXT	ENDS
PUBLIC	?GetType@CvBaseInfo@@QBEPBDXZ			; CvBaseInfo::GetType
; Function compile flags: /Ogtpy
;	COMDAT ?GetType@CvBaseInfo@@QBEPBDXZ
_TEXT	SEGMENT
?GetType@CvBaseInfo@@QBEPBDXZ PROC			; CvBaseInfo::GetType, COMDAT
; _this$ = ecx

; 92   : 		return m_strType.c_str();

	add	ecx, 176				; 000000b0H
	jmp	DWORD PTR __imp_?c_str@?$basic_string@DU?$char_traits@D@std@@V?$allocator@D@2@@std@@QBEPBDXZ
?GetType@CvBaseInfo@@QBEPBDXZ ENDP			; CvBaseInfo::GetType
_TEXT	ENDS
PUBLIC	??_7ICvResourceInfo1@@6B@			; ICvResourceInfo1::`vftable'
PUBLIC	??0ICvResourceInfo1@@QAE@XZ			; ICvResourceInfo1::ICvResourceInfo1
PUBLIC	??_R4ICvResourceInfo1@@6B@			; ICvResourceInfo1::`RTTI Complete Object Locator'
;	COMDAT ??_R4ICvResourceInfo1@@6B@
rdata$r	SEGMENT
??_R4ICvResourceInfo1@@6B@ DD 00H			; ICvResourceInfo1::`RTTI Complete Object Locator'
	DD	00H
	DD	00H
	DD	FLAT:??_R0?AVICvResourceInfo1@@@8
	DD	FLAT:??_R3ICvResourceInfo1@@8
rdata$r	ENDS
;	COMDAT ??_7ICvResourceInfo1@@6B@
CONST	SEGMENT
??_7ICvResourceInfo1@@6B@ DD FLAT:??_R4ICvResourceInfo1@@6B@ ; ICvResourceInfo1::`vftable'
	DD	FLAT:__purecall
	DD	FLAT:__purecall
	DD	FLAT:__purecall
	DD	FLAT:__purecall
	DD	FLAT:__purecall
	DD	FLAT:__purecall
	DD	FLAT:__purecall
	DD	FLAT:__purecall
	DD	FLAT:__purecall
	DD	FLAT:__purecall
	DD	FLAT:__purecall
	DD	FLAT:__purecall
	DD	FLAT:__purecall
	DD	FLAT:__purecall
; Function compile flags: /Ogtpy
CONST	ENDS
;	COMDAT ??0ICvResourceInfo1@@QAE@XZ
_TEXT	SEGMENT
??0ICvResourceInfo1@@QAE@XZ PROC			; ICvResourceInfo1::ICvResourceInfo1, COMDAT
; _this$ = ecx
	mov	eax, ecx
	mov	DWORD PTR [eax], OFFSET ??_7ICvResourceInfo1@@6B@
	ret	0
??0ICvResourceInfo1@@QAE@XZ ENDP			; ICvResourceInfo1::ICvResourceInfo1
; Function compile flags: /Ogtpy
; File c:\users\enormousapplepie\desktop\lekmod files\lekmod dll versions\v29\lekmod_dll\cvgamecoredll_expansion2\cvdllresourceinfo.cpp
_TEXT	ENDS
;	COMDAT ?QueryInterface@CvDllResourceInfo@@UAGPAXU_GUID@@@Z
_TEXT	SEGMENT
$T218584 = -16						; size = 16
$T218582 = -16						; size = 16
_this$ = 8						; size = 4
_guidInterface$ = 12					; size = 16
?QueryInterface@CvDllResourceInfo@@UAGPAXU_GUID@@@Z PROC ; CvDllResourceInfo::QueryInterface, COMDAT

; 28   : {

	sub	esp, 16					; 00000010H

; 29   : 	if(guidInterface == ICvUnknown::GetInterfaceId() ||
; 30   : 	        guidInterface == ICvResourceInfo1::GetInterfaceId())

	mov	ecx, DWORD PTR _guidICvUnknown+4
	mov	edx, DWORD PTR _guidICvUnknown+8
	mov	eax, DWORD PTR _guidICvUnknown
	mov	DWORD PTR $T218582[esp+20], ecx
	lea	ecx, DWORD PTR $T218582[esp+16]
	mov	DWORD PTR $T218582[esp+24], edx
	mov	DWORD PTR $T218582[esp+16], eax
	mov	eax, DWORD PTR _guidICvUnknown+12
	push	ecx
	lea	edx, DWORD PTR _guidInterface$[esp+16]
	push	edx
	mov	DWORD PTR $T218582[esp+36], eax
	call	_IsEqualGUID
	add	esp, 8
	test	eax, eax
	jne	SHORT $LN1@QueryInter
	mov	ecx, DWORD PTR _guidICvResourceInfo1+4
	mov	edx, DWORD PTR _guidICvResourceInfo1+8
	mov	eax, DWORD PTR _guidICvResourceInfo1
	mov	DWORD PTR $T218584[esp+20], ecx
	lea	ecx, DWORD PTR $T218584[esp+16]
	mov	DWORD PTR $T218584[esp+24], edx
	mov	DWORD PTR $T218584[esp+16], eax
	mov	eax, DWORD PTR _guidICvResourceInfo1+12
	push	ecx
	lea	edx, DWORD PTR _guidInterface$[esp+16]
	push	edx
	mov	DWORD PTR $T218584[esp+36], eax
	call	_IsEqualGUID
	add	esp, 8
	test	eax, eax
	jne	SHORT $LN1@QueryInter

; 33   : 		return this;
; 34   : 	}
; 35   : 
; 36   : 	return NULL;
; 37   : }

	add	esp, 16					; 00000010H
	ret	20					; 00000014H
$LN1@QueryInter:

; 31   : 	{
; 32   : 		IncrementReference();

	mov	eax, DWORD PTR _this$[esp+12]
	inc	DWORD PTR [eax+4]

; 33   : 		return this;
; 34   : 	}
; 35   : 
; 36   : 	return NULL;
; 37   : }

	add	esp, 16					; 00000010H
	ret	20					; 00000014H
?QueryInterface@CvDllResourceInfo@@UAGPAXU_GUID@@@Z ENDP ; CvDllResourceInfo::QueryInterface
_TEXT	ENDS
PUBLIC	??_GCvDllResourceInfo@@QAEPAXI@Z		; CvDllResourceInfo::`scalar deleting destructor'
; Function compile flags: /Ogtpy
;	COMDAT ??_GCvDllResourceInfo@@QAEPAXI@Z
_TEXT	SEGMENT
___flags$ = 8						; size = 4
??_GCvDllResourceInfo@@QAEPAXI@Z PROC			; CvDllResourceInfo::`scalar deleting destructor', COMDAT
; _this$ = ecx
	test	BYTE PTR ___flags$[esp-4], 1
	push	esi
	mov	esi, ecx
	mov	DWORD PTR [esi], OFFSET ??_7CvDllResourceInfo@@6B@
	je	SHORT $LN8@scalar
	push	esi
	call	?Free@CvDllGameContext@@SAXPAX@Z	; CvDllGameContext::Free
	add	esp, 4
$LN8@scalar:
	mov	eax, esi
	pop	esi
	ret	4
??_GCvDllResourceInfo@@QAEPAXI@Z ENDP			; CvDllResourceInfo::`scalar deleting destructor'
; Function compile flags: /Ogtpy
_TEXT	ENDS
;	COMDAT ?GetType@CvDllResourceInfo@@UAGPBDXZ
_TEXT	SEGMENT
_this$ = 8						; size = 4
?GetType@CvDllResourceInfo@@UAGPBDXZ PROC		; CvDllResourceInfo::GetType, COMDAT

; 86   : 	return m_pResourceInfo->GetType();

	mov	eax, DWORD PTR _this$[esp-4]
	mov	eax, DWORD PTR [eax+8]
	lea	ecx, DWORD PTR [eax+176]
	call	DWORD PTR __imp_?c_str@?$basic_string@DU?$char_traits@D@std@@V?$allocator@D@2@@std@@QBEPBDXZ

; 87   : }

	ret	4
?GetType@CvDllResourceInfo@@UAGPBDXZ ENDP		; CvDllResourceInfo::GetType
; Function compile flags: /Ogtpy
_TEXT	ENDS
;	COMDAT ?GetDescription@CvDllResourceInfo@@UAGPBDXZ
_TEXT	SEGMENT
_this$ = 8						; size = 4
?GetDescription@CvDllResourceInfo@@UAGPBDXZ PROC	; CvDllResourceInfo::GetDescription, COMDAT

; 91   : 	return m_pResourceInfo->GetDescription();

	mov	eax, DWORD PTR _this$[esp-4]
	mov	eax, DWORD PTR [eax+8]
	lea	ecx, DWORD PTR [eax+36]
	call	DWORD PTR __imp_?c_str@?$basic_string@DU?$char_traits@D@std@@V?$allocator@D@2@@std@@QBEPBDXZ

; 92   : }

	ret	4
?GetDescription@CvDllResourceInfo@@UAGPBDXZ ENDP	; CvDllResourceInfo::GetDescription
_TEXT	ENDS
PUBLIC	??0CvDllResourceInfo@@QAE@PAVCvResourceInfo@@@Z	; CvDllResourceInfo::CvDllResourceInfo
; Function compile flags: /Ogtpy
;	COMDAT ??0CvDllResourceInfo@@QAE@PAVCvResourceInfo@@@Z
_TEXT	SEGMENT
_pResourceInfo$ = 8					; size = 4
??0CvDllResourceInfo@@QAE@PAVCvResourceInfo@@@Z PROC	; CvDllResourceInfo::CvDllResourceInfo, COMDAT
; _this$ = ecx

; 19   : {

	mov	eax, ecx
	mov	ecx, DWORD PTR _pResourceInfo$[esp-4]
	mov	DWORD PTR [eax], OFFSET ??_7CvDllResourceInfo@@6B@
	mov	DWORD PTR [eax+4], 1
	mov	DWORD PTR [eax+8], ecx

; 20   : 	FAssertMsg(pResourceInfo != NULL, "SHOULD NOT HAPPEN");
; 21   : }

	ret	4
??0CvDllResourceInfo@@QAE@PAVCvResourceInfo@@@Z ENDP	; CvDllResourceInfo::CvDllResourceInfo
_TEXT	ENDS
PUBLIC	?DecrementReference@CvDllResourceInfo@@QAEIXZ	; CvDllResourceInfo::DecrementReference
; Function compile flags: /Ogtpy
;	COMDAT ?DecrementReference@CvDllResourceInfo@@QAEIXZ
_TEXT	SEGMENT
?DecrementReference@CvDllResourceInfo@@QAEIXZ PROC	; CvDllResourceInfo::DecrementReference, COMDAT
; _this$ = ecx

; 47   : 	if(m_uiRefCount == 1)

	mov	eax, DWORD PTR [ecx+4]
	cmp	eax, 1
	jne	SHORT $LN2@DecrementR

; 48   : 	{
; 49   : 		delete this;

	push	ecx
	mov	DWORD PTR [ecx], OFFSET ??_7CvDllResourceInfo@@6B@
	call	?Free@CvDllGameContext@@SAXPAX@Z	; CvDllGameContext::Free
	add	esp, 4

; 50   : 		return 0;

	xor	eax, eax

; 55   : 		return m_uiRefCount;
; 56   : 	}
; 57   : }

	ret	0
$LN2@DecrementR:

; 51   : 	}
; 52   : 	else
; 53   : 	{
; 54   : 		--m_uiRefCount;

	dec	eax
	mov	DWORD PTR [ecx+4], eax

; 55   : 		return m_uiRefCount;
; 56   : 	}
; 57   : }

	ret	0
?DecrementReference@CvDllResourceInfo@@QAEIXZ ENDP	; CvDllResourceInfo::DecrementReference
; Function compile flags: /Ogtpy
_TEXT	ENDS
;	COMDAT ?Destroy@CvDllResourceInfo@@EAGXXZ
_TEXT	SEGMENT
_this$ = 8						; size = 4
?Destroy@CvDllResourceInfo@@EAGXXZ PROC			; CvDllResourceInfo::Destroy, COMDAT

; 66   : 	DecrementReference();

	mov	eax, DWORD PTR _this$[esp-4]
	mov	ecx, DWORD PTR [eax+4]
	cmp	ecx, 1
	jne	SHORT $LN4@Destroy
	push	eax
	mov	DWORD PTR [eax], OFFSET ??_7CvDllResourceInfo@@6B@
	call	?Free@CvDllGameContext@@SAXPAX@Z	; CvDllGameContext::Free
	add	esp, 4

; 67   : }

	ret	4

; 66   : 	DecrementReference();

$LN4@Destroy:
	dec	ecx
	mov	DWORD PTR [eax+4], ecx

; 67   : }

	ret	4
?Destroy@CvDllResourceInfo@@EAGXXZ ENDP			; CvDllResourceInfo::Destroy
_TEXT	ENDS
END
