; Listing generated by Microsoft (R) Optimizing Compiler Version 15.00.30729.01 

	TITLE	c:\Users\EnormousApplePie\Documents\GitHub\Lekmod\LEKMOD_DLL\CvGameCoreDLL_Expansion2\CvDllGameDeals.cpp
	.686P
	.XMM
	include listing.inc
	.model	flat

INCLUDELIB MSVCRT
INCLUDELIB OLDNAMES

_DATA	SEGMENT
_CIV5_XP2_DLL_VERSION DD FLAT:$SG217776
_DATA	ENDS
CONST	SEGMENT
$SG217776 DB	'1.0.0', 00H
	ORG $+2
_guidICvUnknown DD 0d89ba82fH
	DW	09fa3H
	DW	04696H
	DB	0b3H
	DB	0f4H
	DB	052H
	DB	0bdH
	DB	0b1H
	DB	01H
	DB	0cfH
	DB	0b2H
_guidICvGameDeals1 DD 04e021163H
	DW	0b771H
	DW	04cfbH
	DB	098H
	DB	0aaH
	DB	04fH
	DB	07aH
	DB	0d9H
	DB	0bcH
	DB	0a3H
	DB	07eH
CONST	ENDS
PUBLIC	??_7ICvUnknown@@6B@				; ICvUnknown::`vftable'
PUBLIC	??0ICvUnknown@@QAE@XZ				; ICvUnknown::ICvUnknown
PUBLIC	??_R4ICvUnknown@@6B@				; ICvUnknown::`RTTI Complete Object Locator'
PUBLIC	??_R0?AVICvUnknown@@@8				; ICvUnknown `RTTI Type Descriptor'
PUBLIC	??_R3ICvUnknown@@8				; ICvUnknown::`RTTI Class Hierarchy Descriptor'
PUBLIC	??_R2ICvUnknown@@8				; ICvUnknown::`RTTI Base Class Array'
PUBLIC	??_R1A@?0A@EA@ICvUnknown@@8			; ICvUnknown::`RTTI Base Class Descriptor at (0,-1,0,64)'
EXTRN	??_7type_info@@6B@:QWORD			; type_info::`vftable'
EXTRN	__purecall:PROC
;	COMDAT ??_R1A@?0A@EA@ICvUnknown@@8
rdata$r	SEGMENT
??_R1A@?0A@EA@ICvUnknown@@8 DD FLAT:??_R0?AVICvUnknown@@@8 ; ICvUnknown::`RTTI Base Class Descriptor at (0,-1,0,64)'
	DD	00H
	DD	00H
	DD	0ffffffffH
	DD	00H
	DD	040H
	DD	FLAT:??_R3ICvUnknown@@8
rdata$r	ENDS
;	COMDAT ??_R2ICvUnknown@@8
rdata$r	SEGMENT
??_R2ICvUnknown@@8 DD FLAT:??_R1A@?0A@EA@ICvUnknown@@8	; ICvUnknown::`RTTI Base Class Array'
rdata$r	ENDS
;	COMDAT ??_R3ICvUnknown@@8
rdata$r	SEGMENT
??_R3ICvUnknown@@8 DD 00H				; ICvUnknown::`RTTI Class Hierarchy Descriptor'
	DD	00H
	DD	01H
	DD	FLAT:??_R2ICvUnknown@@8
rdata$r	ENDS
;	COMDAT ??_R0?AVICvUnknown@@@8
_DATA	SEGMENT
??_R0?AVICvUnknown@@@8 DD FLAT:??_7type_info@@6B@	; ICvUnknown `RTTI Type Descriptor'
	DD	00H
	DB	'.?AVICvUnknown@@', 00H
_DATA	ENDS
;	COMDAT ??_R4ICvUnknown@@6B@
rdata$r	SEGMENT
??_R4ICvUnknown@@6B@ DD 00H				; ICvUnknown::`RTTI Complete Object Locator'
	DD	00H
	DD	00H
	DD	FLAT:??_R0?AVICvUnknown@@@8
	DD	FLAT:??_R3ICvUnknown@@8
rdata$r	ENDS
;	COMDAT ??_7ICvUnknown@@6B@
CONST	SEGMENT
??_7ICvUnknown@@6B@ DD FLAT:??_R4ICvUnknown@@6B@	; ICvUnknown::`vftable'
	DD	FLAT:__purecall
	DD	FLAT:__purecall
; Function compile flags: /Ogtpy
CONST	ENDS
;	COMDAT ??0ICvUnknown@@QAE@XZ
_TEXT	SEGMENT
??0ICvUnknown@@QAE@XZ PROC				; ICvUnknown::ICvUnknown, COMDAT
; _this$ = ecx
	mov	eax, ecx
	mov	DWORD PTR [eax], OFFSET ??_7ICvUnknown@@6B@
	ret	0
??0ICvUnknown@@QAE@XZ ENDP				; ICvUnknown::ICvUnknown
_TEXT	ENDS
PUBLIC	??_7CvDllGameDeals@@6B@				; CvDllGameDeals::`vftable'
PUBLIC	??1CvDllGameDeals@@QAE@XZ			; CvDllGameDeals::~CvDllGameDeals
PUBLIC	??_R4CvDllGameDeals@@6B@			; CvDllGameDeals::`RTTI Complete Object Locator'
PUBLIC	??_R0?AVCvDllGameDeals@@@8			; CvDllGameDeals `RTTI Type Descriptor'
PUBLIC	??_R3CvDllGameDeals@@8				; CvDllGameDeals::`RTTI Class Hierarchy Descriptor'
PUBLIC	??_R2CvDllGameDeals@@8				; CvDllGameDeals::`RTTI Base Class Array'
PUBLIC	??_R1A@?0A@EA@CvDllGameDeals@@8			; CvDllGameDeals::`RTTI Base Class Descriptor at (0,-1,0,64)'
PUBLIC	??_R1A@?0A@EA@ICvGameDeals1@@8			; ICvGameDeals1::`RTTI Base Class Descriptor at (0,-1,0,64)'
PUBLIC	??_R0?AVICvGameDeals1@@@8			; ICvGameDeals1 `RTTI Type Descriptor'
PUBLIC	??_R3ICvGameDeals1@@8				; ICvGameDeals1::`RTTI Class Hierarchy Descriptor'
PUBLIC	??_R2ICvGameDeals1@@8				; ICvGameDeals1::`RTTI Base Class Array'
PUBLIC	?QueryInterface@CvDllGameDeals@@UAGPAXU_GUID@@@Z ; CvDllGameDeals::QueryInterface
PUBLIC	?Destroy@CvDllGameDeals@@EAGXXZ			; CvDllGameDeals::Destroy
PUBLIC	?AddProposedDeal@CvDllGameDeals@@UAGXPAVICvDeal1@@@Z ; CvDllGameDeals::AddProposedDeal
PUBLIC	?FinalizeDeal@CvDllGameDeals@@UAG_NW4PlayerTypes@@0_N@Z ; CvDllGameDeals::FinalizeDeal
PUBLIC	?GetTempDeal@CvDllGameDeals@@UAGPAVICvDeal1@@XZ	; CvDllGameDeals::GetTempDeal
PUBLIC	?SetTempDeal@CvDllGameDeals@@UAGXPAVICvDeal1@@@Z ; CvDllGameDeals::SetTempDeal
PUBLIC	?HasMadeProposal@CvDllGameDeals@@UAG?AW4PlayerTypes@@W42@@Z ; CvDllGameDeals::HasMadeProposal
PUBLIC	?ProposedDealExists@CvDllGameDeals@@UAG_NW4PlayerTypes@@0@Z ; CvDllGameDeals::ProposedDealExists
PUBLIC	?GetProposedDeal@CvDllGameDeals@@UAGPAVICvDeal1@@W4PlayerTypes@@0@Z ; CvDllGameDeals::GetProposedDeal
PUBLIC	?GetCurrentDeal@CvDllGameDeals@@UAGPAVICvDeal1@@W4PlayerTypes@@I@Z ; CvDllGameDeals::GetCurrentDeal
PUBLIC	?GetHistoricDeal@CvDllGameDeals@@UAGPAVICvDeal1@@W4PlayerTypes@@I@Z ; CvDllGameDeals::GetHistoricDeal
PUBLIC	?GetNumCurrentDeals@CvDllGameDeals@@UAGIW4PlayerTypes@@@Z ; CvDllGameDeals::GetNumCurrentDeals
PUBLIC	?GetNumHistoricDeals@CvDllGameDeals@@UAGIW4PlayerTypes@@@Z ; CvDllGameDeals::GetNumHistoricDeals
PUBLIC	?CreateDeal@CvDllGameDeals@@UAGIXZ		; CvDllGameDeals::CreateDeal
PUBLIC	?GetDeal@CvDllGameDeals@@UAGPAVICvDeal1@@I@Z	; CvDllGameDeals::GetDeal
PUBLIC	?DestroyDeal@CvDllGameDeals@@UAGXI@Z		; CvDllGameDeals::DestroyDeal
;	COMDAT ??_R2ICvGameDeals1@@8
; File c:\users\enormousapplepie\documents\github\lekmod\lekmod_dll\cvgamecoredll_expansion2\cvdllgamedeals.cpp
rdata$r	SEGMENT
??_R2ICvGameDeals1@@8 DD FLAT:??_R1A@?0A@EA@ICvGameDeals1@@8 ; ICvGameDeals1::`RTTI Base Class Array'
	DD	FLAT:??_R1A@?0A@EA@ICvUnknown@@8
rdata$r	ENDS
;	COMDAT ??_R3ICvGameDeals1@@8
rdata$r	SEGMENT
??_R3ICvGameDeals1@@8 DD 00H				; ICvGameDeals1::`RTTI Class Hierarchy Descriptor'
	DD	00H
	DD	02H
	DD	FLAT:??_R2ICvGameDeals1@@8
rdata$r	ENDS
;	COMDAT ??_R0?AVICvGameDeals1@@@8
_DATA	SEGMENT
??_R0?AVICvGameDeals1@@@8 DD FLAT:??_7type_info@@6B@	; ICvGameDeals1 `RTTI Type Descriptor'
	DD	00H
	DB	'.?AVICvGameDeals1@@', 00H
_DATA	ENDS
;	COMDAT ??_R1A@?0A@EA@ICvGameDeals1@@8
rdata$r	SEGMENT
??_R1A@?0A@EA@ICvGameDeals1@@8 DD FLAT:??_R0?AVICvGameDeals1@@@8 ; ICvGameDeals1::`RTTI Base Class Descriptor at (0,-1,0,64)'
	DD	01H
	DD	00H
	DD	0ffffffffH
	DD	00H
	DD	040H
	DD	FLAT:??_R3ICvGameDeals1@@8
rdata$r	ENDS
;	COMDAT ??_R1A@?0A@EA@CvDllGameDeals@@8
rdata$r	SEGMENT
??_R1A@?0A@EA@CvDllGameDeals@@8 DD FLAT:??_R0?AVCvDllGameDeals@@@8 ; CvDllGameDeals::`RTTI Base Class Descriptor at (0,-1,0,64)'
	DD	02H
	DD	00H
	DD	0ffffffffH
	DD	00H
	DD	040H
	DD	FLAT:??_R3CvDllGameDeals@@8
rdata$r	ENDS
;	COMDAT ??_R2CvDllGameDeals@@8
rdata$r	SEGMENT
??_R2CvDllGameDeals@@8 DD FLAT:??_R1A@?0A@EA@CvDllGameDeals@@8 ; CvDllGameDeals::`RTTI Base Class Array'
	DD	FLAT:??_R1A@?0A@EA@ICvGameDeals1@@8
	DD	FLAT:??_R1A@?0A@EA@ICvUnknown@@8
rdata$r	ENDS
;	COMDAT ??_R3CvDllGameDeals@@8
rdata$r	SEGMENT
??_R3CvDllGameDeals@@8 DD 00H				; CvDllGameDeals::`RTTI Class Hierarchy Descriptor'
	DD	00H
	DD	03H
	DD	FLAT:??_R2CvDllGameDeals@@8
rdata$r	ENDS
;	COMDAT ??_R0?AVCvDllGameDeals@@@8
_DATA	SEGMENT
??_R0?AVCvDllGameDeals@@@8 DD FLAT:??_7type_info@@6B@	; CvDllGameDeals `RTTI Type Descriptor'
	DD	00H
	DB	'.?AVCvDllGameDeals@@', 00H
_DATA	ENDS
;	COMDAT ??_R4CvDllGameDeals@@6B@
rdata$r	SEGMENT
??_R4CvDllGameDeals@@6B@ DD 00H				; CvDllGameDeals::`RTTI Complete Object Locator'
	DD	00H
	DD	00H
	DD	FLAT:??_R0?AVCvDllGameDeals@@@8
	DD	FLAT:??_R3CvDllGameDeals@@8
rdata$r	ENDS
;	COMDAT ??_7CvDllGameDeals@@6B@
CONST	SEGMENT
??_7CvDllGameDeals@@6B@ DD FLAT:??_R4CvDllGameDeals@@6B@ ; CvDllGameDeals::`vftable'
	DD	FLAT:?QueryInterface@CvDllGameDeals@@UAGPAXU_GUID@@@Z
	DD	FLAT:?Destroy@CvDllGameDeals@@EAGXXZ
	DD	FLAT:?AddProposedDeal@CvDllGameDeals@@UAGXPAVICvDeal1@@@Z
	DD	FLAT:?FinalizeDeal@CvDllGameDeals@@UAG_NW4PlayerTypes@@0_N@Z
	DD	FLAT:?GetTempDeal@CvDllGameDeals@@UAGPAVICvDeal1@@XZ
	DD	FLAT:?SetTempDeal@CvDllGameDeals@@UAGXPAVICvDeal1@@@Z
	DD	FLAT:?HasMadeProposal@CvDllGameDeals@@UAG?AW4PlayerTypes@@W42@@Z
	DD	FLAT:?ProposedDealExists@CvDllGameDeals@@UAG_NW4PlayerTypes@@0@Z
	DD	FLAT:?GetProposedDeal@CvDllGameDeals@@UAGPAVICvDeal1@@W4PlayerTypes@@0@Z
	DD	FLAT:?GetCurrentDeal@CvDllGameDeals@@UAGPAVICvDeal1@@W4PlayerTypes@@I@Z
	DD	FLAT:?GetHistoricDeal@CvDllGameDeals@@UAGPAVICvDeal1@@W4PlayerTypes@@I@Z
	DD	FLAT:?GetNumCurrentDeals@CvDllGameDeals@@UAGIW4PlayerTypes@@@Z
	DD	FLAT:?GetNumHistoricDeals@CvDllGameDeals@@UAGIW4PlayerTypes@@@Z
	DD	FLAT:?CreateDeal@CvDllGameDeals@@UAGIXZ
	DD	FLAT:?GetDeal@CvDllGameDeals@@UAGPAVICvDeal1@@I@Z
	DD	FLAT:?DestroyDeal@CvDllGameDeals@@UAGXI@Z
; Function compile flags: /Ogtpy
CONST	ENDS
;	COMDAT ??1CvDllGameDeals@@QAE@XZ
_TEXT	SEGMENT
??1CvDllGameDeals@@QAE@XZ PROC				; CvDllGameDeals::~CvDllGameDeals, COMDAT
; _this$ = ecx

; 25   : {

	mov	DWORD PTR [ecx], OFFSET ??_7CvDllGameDeals@@6B@

; 26   : }

	ret	0
??1CvDllGameDeals@@QAE@XZ ENDP				; CvDllGameDeals::~CvDllGameDeals
_TEXT	ENDS
PUBLIC	?IncrementReference@CvDllGameDeals@@QAEIXZ	; CvDllGameDeals::IncrementReference
; Function compile flags: /Ogtpy
;	COMDAT ?IncrementReference@CvDllGameDeals@@QAEIXZ
_TEXT	SEGMENT
?IncrementReference@CvDllGameDeals@@QAEIXZ PROC		; CvDllGameDeals::IncrementReference, COMDAT
; _this$ = ecx

; 42   : 	++m_uiRefCount;

	inc	DWORD PTR [ecx+4]

; 43   : 	return m_uiRefCount;

	mov	eax, DWORD PTR [ecx+4]

; 44   : }

	ret	0
?IncrementReference@CvDllGameDeals@@QAEIXZ ENDP		; CvDllGameDeals::IncrementReference
_TEXT	ENDS
PUBLIC	?GetReferenceCount@CvDllGameDeals@@QAEIXZ	; CvDllGameDeals::GetReferenceCount
; Function compile flags: /Ogtpy
;	COMDAT ?GetReferenceCount@CvDllGameDeals@@QAEIXZ
_TEXT	SEGMENT
?GetReferenceCount@CvDllGameDeals@@QAEIXZ PROC		; CvDllGameDeals::GetReferenceCount, COMDAT
; _this$ = ecx

; 62   : 	return m_uiRefCount;

	mov	eax, DWORD PTR [ecx+4]

; 63   : }

	ret	0
?GetReferenceCount@CvDllGameDeals@@QAEIXZ ENDP		; CvDllGameDeals::GetReferenceCount
_TEXT	ENDS
PUBLIC	??3CvDllGameDeals@@SAXPAX@Z			; CvDllGameDeals::operator delete
EXTRN	?Free@CvDllGameContext@@SAXPAX@Z:PROC		; CvDllGameContext::Free
; Function compile flags: /Ogtpy
;	COMDAT ??3CvDllGameDeals@@SAXPAX@Z
_TEXT	SEGMENT
_p$ = 8							; size = 4
??3CvDllGameDeals@@SAXPAX@Z PROC			; CvDllGameDeals::operator delete, COMDAT

; 72   : 	CvDllGameContext::Free(p);

	jmp	?Free@CvDllGameContext@@SAXPAX@Z	; CvDllGameContext::Free
??3CvDllGameDeals@@SAXPAX@Z ENDP			; CvDllGameDeals::operator delete
_TEXT	ENDS
PUBLIC	??2CvDllGameDeals@@SAPAXI@Z			; CvDllGameDeals::operator new
EXTRN	?Allocate@CvDllGameContext@@SAPAXI@Z:PROC	; CvDllGameContext::Allocate
; Function compile flags: /Ogtpy
;	COMDAT ??2CvDllGameDeals@@SAPAXI@Z
_TEXT	SEGMENT
_bytes$ = 8						; size = 4
??2CvDllGameDeals@@SAPAXI@Z PROC			; CvDllGameDeals::operator new, COMDAT

; 77   : 	return CvDllGameContext::Allocate(bytes);

	jmp	?Allocate@CvDllGameContext@@SAPAXI@Z	; CvDllGameContext::Allocate
??2CvDllGameDeals@@SAPAXI@Z ENDP			; CvDllGameDeals::operator new
_TEXT	ENDS
PUBLIC	?GetInstance@CvDllGameDeals@@QAEPAVCvGameDeals@@XZ ; CvDllGameDeals::GetInstance
; Function compile flags: /Ogtpy
;	COMDAT ?GetInstance@CvDllGameDeals@@QAEPAVCvGameDeals@@XZ
_TEXT	SEGMENT
?GetInstance@CvDllGameDeals@@QAEPAVCvGameDeals@@XZ PROC	; CvDllGameDeals::GetInstance, COMDAT
; _this$ = ecx

; 82   : 	return m_pGameDeals;

	mov	eax, DWORD PTR [ecx+8]

; 83   : }

	ret	0
?GetInstance@CvDllGameDeals@@QAEPAVCvGameDeals@@XZ ENDP	; CvDllGameDeals::GetInstance
_TEXT	ENDS
EXTRN	?AddProposedDeal@CvGameDeals@@QAEXVCvDeal@@@Z:PROC ; CvGameDeals::AddProposedDeal
EXTRN	??0CvDeal@@QAE@ABV0@@Z:PROC			; CvDeal::CvDeal
EXTRN	?GetInstance@CvDllDeal@@QAEPAVCvDeal@@XZ:PROC	; CvDllDeal::GetInstance
; Function compile flags: /Ogtpy
;	COMDAT ?AddProposedDeal@CvDllGameDeals@@UAGXPAVICvDeal1@@@Z
_TEXT	SEGMENT
_this$ = 8						; size = 4
$T219181 = 12						; size = 4
_pDeal$ = 12						; size = 4
?AddProposedDeal@CvDllGameDeals@@UAGXPAVICvDeal1@@@Z PROC ; CvDllGameDeals::AddProposedDeal, COMDAT

; 87   : 	CvDeal* pkDeal = (NULL != pDeal)? static_cast<CvDllDeal*>(pDeal)->GetInstance() : NULL;

	mov	ecx, DWORD PTR _pDeal$[esp-4]
	test	ecx, ecx
	je	SHORT $LN1@AddPropose
	call	?GetInstance@CvDllDeal@@QAEPAVCvDeal@@XZ ; CvDllDeal::GetInstance

; 88   : 	if(pkDeal != NULL)

	test	eax, eax
	je	SHORT $LN1@AddPropose

; 89   : 	{
; 90   : 		m_pGameDeals->AddProposedDeal(*pkDeal);

	sub	esp, 76					; 0000004cH
	mov	ecx, esp
	mov	DWORD PTR $T219181[esp+72], esp
	push	eax
	call	??0CvDeal@@QAE@ABV0@@Z			; CvDeal::CvDeal
	mov	eax, DWORD PTR _this$[esp+72]
	mov	ecx, DWORD PTR [eax+8]
	call	?AddProposedDeal@CvGameDeals@@QAEXVCvDeal@@@Z ; CvGameDeals::AddProposedDeal
$LN1@AddPropose:

; 91   : 	}
; 92   : }

	ret	8
?AddProposedDeal@CvDllGameDeals@@UAGXPAVICvDeal1@@@Z ENDP ; CvDllGameDeals::AddProposedDeal
_TEXT	ENDS
EXTRN	?FinalizeDeal@CvGameDeals@@QAE_NW4PlayerTypes@@0_N@Z:PROC ; CvGameDeals::FinalizeDeal
; Function compile flags: /Ogtpy
;	COMDAT ?FinalizeDeal@CvDllGameDeals@@UAG_NW4PlayerTypes@@0_N@Z
_TEXT	SEGMENT
_this$ = 8						; size = 4
_eFromPlayer$ = 12					; size = 4
_eToPlayer$ = 16					; size = 4
_bAccepted$ = 20					; size = 1
?FinalizeDeal@CvDllGameDeals@@UAG_NW4PlayerTypes@@0_N@Z PROC ; CvDllGameDeals::FinalizeDeal, COMDAT

; 96   : 	return m_pGameDeals->FinalizeDeal(eFromPlayer, eToPlayer, bAccepted);

	mov	eax, DWORD PTR _bAccepted$[esp-4]
	mov	ecx, DWORD PTR _eToPlayer$[esp-4]
	mov	edx, DWORD PTR _eFromPlayer$[esp-4]
	push	eax
	mov	eax, DWORD PTR _this$[esp]
	push	ecx
	mov	ecx, DWORD PTR [eax+8]
	push	edx
	call	?FinalizeDeal@CvGameDeals@@QAE_NW4PlayerTypes@@0_N@Z ; CvGameDeals::FinalizeDeal

; 97   : }

	ret	16					; 00000010H
?FinalizeDeal@CvDllGameDeals@@UAG_NW4PlayerTypes@@0_N@Z ENDP ; CvDllGameDeals::FinalizeDeal
_TEXT	ENDS
EXTRN	??3CvDllDeal@@SAXPAX@Z:PROC			; CvDllDeal::operator delete
EXTRN	??0CvDllDeal@@QAE@PAVCvDeal@@@Z:PROC		; CvDllDeal::CvDllDeal
EXTRN	??2CvDllDeal@@SAPAXI@Z:PROC			; CvDllDeal::operator new
EXTRN	?GetTempDeal@CvGameDeals@@QAEPAVCvDeal@@XZ:PROC	; CvGameDeals::GetTempDeal
EXTRN	___CxxFrameHandler3:PROC
;	COMDAT xdata$x
xdata$x	SEGMENT
__unwindtable$?GetTempDeal@CvDllGameDeals@@UAGPAVICvDeal1@@XZ DD 0ffffffffH
	DD	FLAT:__unwindfunclet$?GetTempDeal@CvDllGameDeals@@UAGPAVICvDeal1@@XZ$0
__ehfuncinfo$?GetTempDeal@CvDllGameDeals@@UAGPAVICvDeal1@@XZ DD 019930522H
	DD	01H
	DD	FLAT:__unwindtable$?GetTempDeal@CvDllGameDeals@@UAGPAVICvDeal1@@XZ
	DD	2 DUP(00H)
	DD	2 DUP(00H)
	DD	00H
	DD	01H
; Function compile flags: /Ogtpy
xdata$x	ENDS
;	COMDAT ?GetTempDeal@CvDllGameDeals@@UAGPAVICvDeal1@@XZ
_TEXT	SEGMENT
__$EHRec$ = -12						; size = 12
$T219190 = 8						; size = 4
_this$ = 8						; size = 4
?GetTempDeal@CvDllGameDeals@@UAGPAVICvDeal1@@XZ PROC	; CvDllGameDeals::GetTempDeal, COMDAT

; 100  : {

	mov	eax, DWORD PTR fs:0
	push	-1
	push	__ehhandler$?GetTempDeal@CvDllGameDeals@@UAGPAVICvDeal1@@XZ
	push	eax
	mov	DWORD PTR fs:0, esp

; 101  : 	CvDeal* pDeal = m_pGameDeals->GetTempDeal();

	mov	eax, DWORD PTR _this$[esp+8]
	mov	ecx, DWORD PTR [eax+8]
	push	esi
	call	?GetTempDeal@CvGameDeals@@QAEPAVCvDeal@@XZ ; CvGameDeals::GetTempDeal
	mov	esi, eax

; 102  : 	return (NULL != pDeal)? new CvDllDeal(pDeal) : NULL;

	test	esi, esi
	je	SHORT $LN5@GetTempDea
	push	12					; 0000000cH
	call	??2CvDllDeal@@SAPAXI@Z			; CvDllDeal::operator new
	add	esp, 4
	mov	DWORD PTR $T219190[esp+12], eax
	mov	DWORD PTR __$EHRec$[esp+24], 0
	test	eax, eax
	je	SHORT $LN5@GetTempDea
	push	esi
	mov	ecx, eax
	call	??0CvDllDeal@@QAE@PAVCvDeal@@@Z		; CvDllDeal::CvDllDeal

; 103  : }

	mov	ecx, DWORD PTR __$EHRec$[esp+16]
	mov	DWORD PTR fs:0, ecx
	pop	esi
	add	esp, 12					; 0000000cH
	ret	4
$LN5@GetTempDea:
	mov	ecx, DWORD PTR __$EHRec$[esp+16]
	xor	eax, eax
	mov	DWORD PTR fs:0, ecx
	pop	esi
	add	esp, 12					; 0000000cH
	ret	4
_TEXT	ENDS
;	COMDAT text$x
text$x	SEGMENT
__unwindfunclet$?GetTempDeal@CvDllGameDeals@@UAGPAVICvDeal1@@XZ$0:
	mov	eax, DWORD PTR $T219190[ebp-4]
	push	eax
	call	??3CvDllDeal@@SAXPAX@Z			; CvDllDeal::operator delete
	pop	ecx
	ret	0
__ehhandler$?GetTempDeal@CvDllGameDeals@@UAGPAVICvDeal1@@XZ:
	mov	eax, OFFSET __ehfuncinfo$?GetTempDeal@CvDllGameDeals@@UAGPAVICvDeal1@@XZ
	jmp	___CxxFrameHandler3
text$x	ENDS
?GetTempDeal@CvDllGameDeals@@UAGPAVICvDeal1@@XZ ENDP	; CvDllGameDeals::GetTempDeal
EXTRN	?SetTempDeal@CvGameDeals@@QAEXPAVCvDeal@@@Z:PROC ; CvGameDeals::SetTempDeal
; Function compile flags: /Ogtpy
;	COMDAT ?SetTempDeal@CvDllGameDeals@@UAGXPAVICvDeal1@@@Z
_TEXT	SEGMENT
_this$ = 8						; size = 4
_pDeal$ = 12						; size = 4
?SetTempDeal@CvDllGameDeals@@UAGXPAVICvDeal1@@@Z PROC	; CvDllGameDeals::SetTempDeal, COMDAT

; 107  : 	CvDeal* pkDeal = (NULL != pDeal)? static_cast<CvDllDeal*>(pDeal)->GetInstance() : NULL;

	mov	ecx, DWORD PTR _pDeal$[esp-4]
	test	ecx, ecx
	je	SHORT $LN3@SetTempDea
	call	?GetInstance@CvDllDeal@@QAEPAVCvDeal@@XZ ; CvDllDeal::GetInstance

; 108  : 	m_pGameDeals->SetTempDeal(pkDeal);

	push	eax
	mov	eax, DWORD PTR _this$[esp]
	mov	ecx, DWORD PTR [eax+8]
	call	?SetTempDeal@CvGameDeals@@QAEXPAVCvDeal@@@Z ; CvGameDeals::SetTempDeal

; 109  : }

	ret	8
$LN3@SetTempDea:

; 107  : 	CvDeal* pkDeal = (NULL != pDeal)? static_cast<CvDllDeal*>(pDeal)->GetInstance() : NULL;

	xor	eax, eax

; 108  : 	m_pGameDeals->SetTempDeal(pkDeal);

	push	eax
	mov	eax, DWORD PTR _this$[esp]
	mov	ecx, DWORD PTR [eax+8]
	call	?SetTempDeal@CvGameDeals@@QAEXPAVCvDeal@@@Z ; CvGameDeals::SetTempDeal

; 109  : }

	ret	8
?SetTempDeal@CvDllGameDeals@@UAGXPAVICvDeal1@@@Z ENDP	; CvDllGameDeals::SetTempDeal
_TEXT	ENDS
EXTRN	?HasMadeProposal@CvGameDeals@@QAE?AW4PlayerTypes@@W42@@Z:PROC ; CvGameDeals::HasMadeProposal
; Function compile flags: /Ogtpy
;	COMDAT ?HasMadeProposal@CvDllGameDeals@@UAG?AW4PlayerTypes@@W42@@Z
_TEXT	SEGMENT
_this$ = 8						; size = 4
_eFromPlayer$ = 12					; size = 4
?HasMadeProposal@CvDllGameDeals@@UAG?AW4PlayerTypes@@W42@@Z PROC ; CvDllGameDeals::HasMadeProposal, COMDAT

; 113  : 	return m_pGameDeals->HasMadeProposal(eFromPlayer);

	mov	eax, DWORD PTR _eFromPlayer$[esp-4]
	mov	ecx, DWORD PTR _this$[esp-4]
	mov	ecx, DWORD PTR [ecx+8]
	push	eax
	call	?HasMadeProposal@CvGameDeals@@QAE?AW4PlayerTypes@@W42@@Z ; CvGameDeals::HasMadeProposal

; 114  : }

	ret	8
?HasMadeProposal@CvDllGameDeals@@UAG?AW4PlayerTypes@@W42@@Z ENDP ; CvDllGameDeals::HasMadeProposal
_TEXT	ENDS
EXTRN	?ProposedDealExists@CvGameDeals@@QAE_NW4PlayerTypes@@0@Z:PROC ; CvGameDeals::ProposedDealExists
; Function compile flags: /Ogtpy
;	COMDAT ?ProposedDealExists@CvDllGameDeals@@UAG_NW4PlayerTypes@@0@Z
_TEXT	SEGMENT
_this$ = 8						; size = 4
_eFromPlayer$ = 12					; size = 4
_eToPlayer$ = 16					; size = 4
?ProposedDealExists@CvDllGameDeals@@UAG_NW4PlayerTypes@@0@Z PROC ; CvDllGameDeals::ProposedDealExists, COMDAT

; 118  : 	return m_pGameDeals->ProposedDealExists(eFromPlayer, eToPlayer);

	mov	eax, DWORD PTR _eToPlayer$[esp-4]
	mov	ecx, DWORD PTR _eFromPlayer$[esp-4]
	mov	edx, DWORD PTR _this$[esp-4]
	push	eax
	push	ecx
	mov	ecx, DWORD PTR [edx+8]
	call	?ProposedDealExists@CvGameDeals@@QAE_NW4PlayerTypes@@0@Z ; CvGameDeals::ProposedDealExists

; 119  : }

	ret	12					; 0000000cH
?ProposedDealExists@CvDllGameDeals@@UAG_NW4PlayerTypes@@0@Z ENDP ; CvDllGameDeals::ProposedDealExists
_TEXT	ENDS
EXTRN	?GetProposedDeal@CvGameDeals@@QAEPAVCvDeal@@W4PlayerTypes@@0@Z:PROC ; CvGameDeals::GetProposedDeal
;	COMDAT xdata$x
xdata$x	SEGMENT
__unwindtable$?GetProposedDeal@CvDllGameDeals@@UAGPAVICvDeal1@@W4PlayerTypes@@0@Z DD 0ffffffffH
	DD	FLAT:__unwindfunclet$?GetProposedDeal@CvDllGameDeals@@UAGPAVICvDeal1@@W4PlayerTypes@@0@Z$0
__ehfuncinfo$?GetProposedDeal@CvDllGameDeals@@UAGPAVICvDeal1@@W4PlayerTypes@@0@Z DD 019930522H
	DD	01H
	DD	FLAT:__unwindtable$?GetProposedDeal@CvDllGameDeals@@UAGPAVICvDeal1@@W4PlayerTypes@@0@Z
	DD	2 DUP(00H)
	DD	2 DUP(00H)
	DD	00H
	DD	01H
; Function compile flags: /Ogtpy
xdata$x	ENDS
;	COMDAT ?GetProposedDeal@CvDllGameDeals@@UAGPAVICvDeal1@@W4PlayerTypes@@0@Z
_TEXT	SEGMENT
__$EHRec$ = -12						; size = 12
_this$ = 8						; size = 4
_eFromPlayer$ = 12					; size = 4
$T219220 = 16						; size = 4
_eToPlayer$ = 16					; size = 4
?GetProposedDeal@CvDllGameDeals@@UAGPAVICvDeal1@@W4PlayerTypes@@0@Z PROC ; CvDllGameDeals::GetProposedDeal, COMDAT

; 122  : {

	mov	eax, DWORD PTR fs:0

; 123  : 	CvDeal* pDeal = m_pGameDeals->GetProposedDeal(eFromPlayer, eToPlayer);

	mov	ecx, DWORD PTR _eFromPlayer$[esp-4]
	mov	edx, DWORD PTR _this$[esp-4]
	push	-1
	push	__ehhandler$?GetProposedDeal@CvDllGameDeals@@UAGPAVICvDeal1@@W4PlayerTypes@@0@Z
	push	eax
	mov	DWORD PTR fs:0, esp
	mov	eax, DWORD PTR _eToPlayer$[esp+8]
	push	esi
	push	eax
	push	ecx
	mov	ecx, DWORD PTR [edx+8]
	call	?GetProposedDeal@CvGameDeals@@QAEPAVCvDeal@@W4PlayerTypes@@0@Z ; CvGameDeals::GetProposedDeal
	mov	esi, eax

; 124  : 	return (NULL != pDeal)? new CvDllDeal(pDeal) : NULL;

	test	esi, esi
	je	SHORT $LN5@GetPropose
	push	12					; 0000000cH
	call	??2CvDllDeal@@SAPAXI@Z			; CvDllDeal::operator new
	add	esp, 4
	mov	DWORD PTR $T219220[esp+12], eax
	mov	DWORD PTR __$EHRec$[esp+24], 0
	test	eax, eax
	je	SHORT $LN5@GetPropose
	push	esi
	mov	ecx, eax
	call	??0CvDllDeal@@QAE@PAVCvDeal@@@Z		; CvDllDeal::CvDllDeal

; 125  : }

	mov	ecx, DWORD PTR __$EHRec$[esp+16]
	mov	DWORD PTR fs:0, ecx
	pop	esi
	add	esp, 12					; 0000000cH
	ret	12					; 0000000cH
$LN5@GetPropose:
	mov	ecx, DWORD PTR __$EHRec$[esp+16]
	xor	eax, eax
	mov	DWORD PTR fs:0, ecx
	pop	esi
	add	esp, 12					; 0000000cH
	ret	12					; 0000000cH
_TEXT	ENDS
;	COMDAT text$x
text$x	SEGMENT
__unwindfunclet$?GetProposedDeal@CvDllGameDeals@@UAGPAVICvDeal1@@W4PlayerTypes@@0@Z$0:
	mov	eax, DWORD PTR $T219220[ebp-4]
	push	eax
	call	??3CvDllDeal@@SAXPAX@Z			; CvDllDeal::operator delete
	pop	ecx
	ret	0
__ehhandler$?GetProposedDeal@CvDllGameDeals@@UAGPAVICvDeal1@@W4PlayerTypes@@0@Z:
	mov	eax, OFFSET __ehfuncinfo$?GetProposedDeal@CvDllGameDeals@@UAGPAVICvDeal1@@W4PlayerTypes@@0@Z
	jmp	___CxxFrameHandler3
text$x	ENDS
?GetProposedDeal@CvDllGameDeals@@UAGPAVICvDeal1@@W4PlayerTypes@@0@Z ENDP ; CvDllGameDeals::GetProposedDeal
EXTRN	?GetCurrentDeal@CvGameDeals@@QAEPAVCvDeal@@W4PlayerTypes@@I@Z:PROC ; CvGameDeals::GetCurrentDeal
;	COMDAT xdata$x
xdata$x	SEGMENT
__unwindtable$?GetCurrentDeal@CvDllGameDeals@@UAGPAVICvDeal1@@W4PlayerTypes@@I@Z DD 0ffffffffH
	DD	FLAT:__unwindfunclet$?GetCurrentDeal@CvDllGameDeals@@UAGPAVICvDeal1@@W4PlayerTypes@@I@Z$0
__ehfuncinfo$?GetCurrentDeal@CvDllGameDeals@@UAGPAVICvDeal1@@W4PlayerTypes@@I@Z DD 019930522H
	DD	01H
	DD	FLAT:__unwindtable$?GetCurrentDeal@CvDllGameDeals@@UAGPAVICvDeal1@@W4PlayerTypes@@I@Z
	DD	2 DUP(00H)
	DD	2 DUP(00H)
	DD	00H
	DD	01H
; Function compile flags: /Ogtpy
xdata$x	ENDS
;	COMDAT ?GetCurrentDeal@CvDllGameDeals@@UAGPAVICvDeal1@@W4PlayerTypes@@I@Z
_TEXT	SEGMENT
__$EHRec$ = -12						; size = 12
_this$ = 8						; size = 4
_ePlayer$ = 12						; size = 4
$T219236 = 16						; size = 4
_index$ = 16						; size = 4
?GetCurrentDeal@CvDllGameDeals@@UAGPAVICvDeal1@@W4PlayerTypes@@I@Z PROC ; CvDllGameDeals::GetCurrentDeal, COMDAT

; 129  : {

	mov	eax, DWORD PTR fs:0

; 130  : 	CvDeal* pDeal = m_pGameDeals->GetCurrentDeal(ePlayer, index);

	mov	ecx, DWORD PTR _ePlayer$[esp-4]
	mov	edx, DWORD PTR _this$[esp-4]
	push	-1
	push	__ehhandler$?GetCurrentDeal@CvDllGameDeals@@UAGPAVICvDeal1@@W4PlayerTypes@@I@Z
	push	eax
	mov	DWORD PTR fs:0, esp
	mov	eax, DWORD PTR _index$[esp+8]
	push	esi
	push	eax
	push	ecx
	mov	ecx, DWORD PTR [edx+8]
	call	?GetCurrentDeal@CvGameDeals@@QAEPAVCvDeal@@W4PlayerTypes@@I@Z ; CvGameDeals::GetCurrentDeal
	mov	esi, eax

; 131  : 	return (NULL != pDeal)? new CvDllDeal(pDeal) : NULL;

	test	esi, esi
	je	SHORT $LN5@GetCurrent
	push	12					; 0000000cH
	call	??2CvDllDeal@@SAPAXI@Z			; CvDllDeal::operator new
	add	esp, 4
	mov	DWORD PTR $T219236[esp+12], eax
	mov	DWORD PTR __$EHRec$[esp+24], 0
	test	eax, eax
	je	SHORT $LN5@GetCurrent
	push	esi
	mov	ecx, eax
	call	??0CvDllDeal@@QAE@PAVCvDeal@@@Z		; CvDllDeal::CvDllDeal

; 132  : }

	mov	ecx, DWORD PTR __$EHRec$[esp+16]
	mov	DWORD PTR fs:0, ecx
	pop	esi
	add	esp, 12					; 0000000cH
	ret	12					; 0000000cH
$LN5@GetCurrent:
	mov	ecx, DWORD PTR __$EHRec$[esp+16]
	xor	eax, eax
	mov	DWORD PTR fs:0, ecx
	pop	esi
	add	esp, 12					; 0000000cH
	ret	12					; 0000000cH
_TEXT	ENDS
;	COMDAT text$x
text$x	SEGMENT
__unwindfunclet$?GetCurrentDeal@CvDllGameDeals@@UAGPAVICvDeal1@@W4PlayerTypes@@I@Z$0:
	mov	eax, DWORD PTR $T219236[ebp-4]
	push	eax
	call	??3CvDllDeal@@SAXPAX@Z			; CvDllDeal::operator delete
	pop	ecx
	ret	0
__ehhandler$?GetCurrentDeal@CvDllGameDeals@@UAGPAVICvDeal1@@W4PlayerTypes@@I@Z:
	mov	eax, OFFSET __ehfuncinfo$?GetCurrentDeal@CvDllGameDeals@@UAGPAVICvDeal1@@W4PlayerTypes@@I@Z
	jmp	___CxxFrameHandler3
text$x	ENDS
?GetCurrentDeal@CvDllGameDeals@@UAGPAVICvDeal1@@W4PlayerTypes@@I@Z ENDP ; CvDllGameDeals::GetCurrentDeal
EXTRN	?GetHistoricDeal@CvGameDeals@@QAEPAVCvDeal@@W4PlayerTypes@@I@Z:PROC ; CvGameDeals::GetHistoricDeal
;	COMDAT xdata$x
xdata$x	SEGMENT
__unwindtable$?GetHistoricDeal@CvDllGameDeals@@UAGPAVICvDeal1@@W4PlayerTypes@@I@Z DD 0ffffffffH
	DD	FLAT:__unwindfunclet$?GetHistoricDeal@CvDllGameDeals@@UAGPAVICvDeal1@@W4PlayerTypes@@I@Z$0
__ehfuncinfo$?GetHistoricDeal@CvDllGameDeals@@UAGPAVICvDeal1@@W4PlayerTypes@@I@Z DD 019930522H
	DD	01H
	DD	FLAT:__unwindtable$?GetHistoricDeal@CvDllGameDeals@@UAGPAVICvDeal1@@W4PlayerTypes@@I@Z
	DD	2 DUP(00H)
	DD	2 DUP(00H)
	DD	00H
	DD	01H
; Function compile flags: /Ogtpy
xdata$x	ENDS
;	COMDAT ?GetHistoricDeal@CvDllGameDeals@@UAGPAVICvDeal1@@W4PlayerTypes@@I@Z
_TEXT	SEGMENT
__$EHRec$ = -12						; size = 12
_this$ = 8						; size = 4
_ePlayer$ = 12						; size = 4
$T219252 = 16						; size = 4
_indx$ = 16						; size = 4
?GetHistoricDeal@CvDllGameDeals@@UAGPAVICvDeal1@@W4PlayerTypes@@I@Z PROC ; CvDllGameDeals::GetHistoricDeal, COMDAT

; 135  : {

	mov	eax, DWORD PTR fs:0

; 136  : 	CvDeal* pDeal = m_pGameDeals->GetHistoricDeal(ePlayer, indx);

	mov	ecx, DWORD PTR _ePlayer$[esp-4]
	mov	edx, DWORD PTR _this$[esp-4]
	push	-1
	push	__ehhandler$?GetHistoricDeal@CvDllGameDeals@@UAGPAVICvDeal1@@W4PlayerTypes@@I@Z
	push	eax
	mov	DWORD PTR fs:0, esp
	mov	eax, DWORD PTR _indx$[esp+8]
	push	esi
	push	eax
	push	ecx
	mov	ecx, DWORD PTR [edx+8]
	call	?GetHistoricDeal@CvGameDeals@@QAEPAVCvDeal@@W4PlayerTypes@@I@Z ; CvGameDeals::GetHistoricDeal
	mov	esi, eax

; 137  : 	return (NULL != pDeal)? new CvDllDeal(pDeal) : NULL;

	test	esi, esi
	je	SHORT $LN5@GetHistori
	push	12					; 0000000cH
	call	??2CvDllDeal@@SAPAXI@Z			; CvDllDeal::operator new
	add	esp, 4
	mov	DWORD PTR $T219252[esp+12], eax
	mov	DWORD PTR __$EHRec$[esp+24], 0
	test	eax, eax
	je	SHORT $LN5@GetHistori
	push	esi
	mov	ecx, eax
	call	??0CvDllDeal@@QAE@PAVCvDeal@@@Z		; CvDllDeal::CvDllDeal

; 138  : }

	mov	ecx, DWORD PTR __$EHRec$[esp+16]
	mov	DWORD PTR fs:0, ecx
	pop	esi
	add	esp, 12					; 0000000cH
	ret	12					; 0000000cH
$LN5@GetHistori:
	mov	ecx, DWORD PTR __$EHRec$[esp+16]
	xor	eax, eax
	mov	DWORD PTR fs:0, ecx
	pop	esi
	add	esp, 12					; 0000000cH
	ret	12					; 0000000cH
_TEXT	ENDS
;	COMDAT text$x
text$x	SEGMENT
__unwindfunclet$?GetHistoricDeal@CvDllGameDeals@@UAGPAVICvDeal1@@W4PlayerTypes@@I@Z$0:
	mov	eax, DWORD PTR $T219252[ebp-4]
	push	eax
	call	??3CvDllDeal@@SAXPAX@Z			; CvDllDeal::operator delete
	pop	ecx
	ret	0
__ehhandler$?GetHistoricDeal@CvDllGameDeals@@UAGPAVICvDeal1@@W4PlayerTypes@@I@Z:
	mov	eax, OFFSET __ehfuncinfo$?GetHistoricDeal@CvDllGameDeals@@UAGPAVICvDeal1@@W4PlayerTypes@@I@Z
	jmp	___CxxFrameHandler3
text$x	ENDS
?GetHistoricDeal@CvDllGameDeals@@UAGPAVICvDeal1@@W4PlayerTypes@@I@Z ENDP ; CvDllGameDeals::GetHistoricDeal
PUBLIC	_IsEqualGUID
; Function compile flags: /Ogtpy
; File c:\program files\microsoft sdks\windows\v6.0a\include\guiddef.h
;	COMDAT _IsEqualGUID
_TEXT	SEGMENT
_rguid1$ = 8						; size = 4
_rguid2$ = 12						; size = 4
_IsEqualGUID PROC					; COMDAT

; 161  :     return !memcmp(&rguid1, &rguid2, sizeof(GUID));

	mov	ecx, DWORD PTR _rguid2$[esp-4]
	mov	edx, DWORD PTR _rguid1$[esp-4]
	mov	eax, 16					; 00000010H
	push	esi
	npad	2
$LL4@IsEqualGUI:
	mov	esi, DWORD PTR [edx]
	cmp	esi, DWORD PTR [ecx]
	jne	SHORT $LN5@IsEqualGUI
	sub	eax, 4
	add	ecx, 4
	add	edx, 4
	cmp	eax, 4
	jae	SHORT $LL4@IsEqualGUI
	xor	eax, eax
	xor	edx, edx
	test	eax, eax
	sete	dl
	pop	esi
	mov	eax, edx

; 162  : }

	ret	0
$LN5@IsEqualGUI:

; 161  :     return !memcmp(&rguid1, &rguid2, sizeof(GUID));

	movzx	eax, BYTE PTR [edx]
	movzx	esi, BYTE PTR [ecx]
	sub	eax, esi
	jne	SHORT $LN7@IsEqualGUI
	movzx	eax, BYTE PTR [edx+1]
	movzx	esi, BYTE PTR [ecx+1]
	sub	eax, esi
	jne	SHORT $LN7@IsEqualGUI
	movzx	eax, BYTE PTR [edx+2]
	movzx	esi, BYTE PTR [ecx+2]
	sub	eax, esi
	jne	SHORT $LN7@IsEqualGUI
	movzx	eax, BYTE PTR [edx+3]
	movzx	ecx, BYTE PTR [ecx+3]
	sub	eax, ecx
$LN7@IsEqualGUI:
	sar	eax, 31					; 0000001fH
	or	eax, 1
	xor	edx, edx
	test	eax, eax
	sete	dl
	pop	esi
	mov	eax, edx

; 162  : }

	ret	0
_IsEqualGUID ENDP
_TEXT	ENDS
PUBLIC	_==
; Function compile flags: /Ogtpy
;	COMDAT _==
_TEXT	SEGMENT
_guidOne$ = 8						; size = 4
_guidOther$ = 12					; size = 4
_==	PROC						; COMDAT

; 194  :     return IsEqualGUID(guidOne,guidOther);

	jmp	_IsEqualGUID
_==	ENDP
_TEXT	ENDS
EXTRN	?GetNumCurrentDeals@CvGameDeals@@QAEIW4PlayerTypes@@@Z:PROC ; CvGameDeals::GetNumCurrentDeals
; Function compile flags: /Ogtpy
; File c:\users\enormousapplepie\documents\github\lekmod\lekmod_dll\cvgamecoredll_expansion2\cvdllgamedeals.cpp
;	COMDAT ?GetNumCurrentDeals@CvDllGameDeals@@UAGIW4PlayerTypes@@@Z
_TEXT	SEGMENT
_this$ = 8						; size = 4
_ePlayer$ = 12						; size = 4
?GetNumCurrentDeals@CvDllGameDeals@@UAGIW4PlayerTypes@@@Z PROC ; CvDllGameDeals::GetNumCurrentDeals, COMDAT

; 142  : 	return m_pGameDeals->GetNumCurrentDeals(ePlayer);

	mov	eax, DWORD PTR _ePlayer$[esp-4]
	mov	ecx, DWORD PTR _this$[esp-4]
	mov	ecx, DWORD PTR [ecx+8]
	push	eax
	call	?GetNumCurrentDeals@CvGameDeals@@QAEIW4PlayerTypes@@@Z ; CvGameDeals::GetNumCurrentDeals

; 143  : }

	ret	8
?GetNumCurrentDeals@CvDllGameDeals@@UAGIW4PlayerTypes@@@Z ENDP ; CvDllGameDeals::GetNumCurrentDeals
_TEXT	ENDS
EXTRN	?GetNumHistoricDeals@CvGameDeals@@QAEIW4PlayerTypes@@@Z:PROC ; CvGameDeals::GetNumHistoricDeals
; Function compile flags: /Ogtpy
;	COMDAT ?GetNumHistoricDeals@CvDllGameDeals@@UAGIW4PlayerTypes@@@Z
_TEXT	SEGMENT
_this$ = 8						; size = 4
_ePlayer$ = 12						; size = 4
?GetNumHistoricDeals@CvDllGameDeals@@UAGIW4PlayerTypes@@@Z PROC ; CvDllGameDeals::GetNumHistoricDeals, COMDAT

; 147  : 	return m_pGameDeals->GetNumHistoricDeals(ePlayer);

	mov	eax, DWORD PTR _ePlayer$[esp-4]
	mov	ecx, DWORD PTR _this$[esp-4]
	mov	ecx, DWORD PTR [ecx+8]
	push	eax
	call	?GetNumHistoricDeals@CvGameDeals@@QAEIW4PlayerTypes@@@Z ; CvGameDeals::GetNumHistoricDeals

; 148  : }

	ret	8
?GetNumHistoricDeals@CvDllGameDeals@@UAGIW4PlayerTypes@@@Z ENDP ; CvDllGameDeals::GetNumHistoricDeals
_TEXT	ENDS
EXTRN	?CreateDeal@CvGameDeals@@QAEIXZ:PROC		; CvGameDeals::CreateDeal
; Function compile flags: /Ogtpy
;	COMDAT ?CreateDeal@CvDllGameDeals@@UAGIXZ
_TEXT	SEGMENT
_this$ = 8						; size = 4
?CreateDeal@CvDllGameDeals@@UAGIXZ PROC			; CvDllGameDeals::CreateDeal, COMDAT

; 152  : 	return m_pGameDeals->CreateDeal();

	mov	eax, DWORD PTR _this$[esp-4]
	mov	ecx, DWORD PTR [eax+8]
	call	?CreateDeal@CvGameDeals@@QAEIXZ		; CvGameDeals::CreateDeal

; 153  : }

	ret	4
?CreateDeal@CvDllGameDeals@@UAGIXZ ENDP			; CvDllGameDeals::CreateDeal
_TEXT	ENDS
EXTRN	?GetDeal@CvGameDeals@@QAEPAVCvDeal@@I@Z:PROC	; CvGameDeals::GetDeal
;	COMDAT xdata$x
xdata$x	SEGMENT
__unwindtable$?GetDeal@CvDllGameDeals@@UAGPAVICvDeal1@@I@Z DD 0ffffffffH
	DD	FLAT:__unwindfunclet$?GetDeal@CvDllGameDeals@@UAGPAVICvDeal1@@I@Z$0
__ehfuncinfo$?GetDeal@CvDllGameDeals@@UAGPAVICvDeal1@@I@Z DD 019930522H
	DD	01H
	DD	FLAT:__unwindtable$?GetDeal@CvDllGameDeals@@UAGPAVICvDeal1@@I@Z
	DD	2 DUP(00H)
	DD	2 DUP(00H)
	DD	00H
	DD	01H
; Function compile flags: /Ogtpy
xdata$x	ENDS
;	COMDAT ?GetDeal@CvDllGameDeals@@UAGPAVICvDeal1@@I@Z
_TEXT	SEGMENT
__$EHRec$ = -12						; size = 12
_this$ = 8						; size = 4
$T219295 = 12						; size = 4
_index$ = 12						; size = 4
?GetDeal@CvDllGameDeals@@UAGPAVICvDeal1@@I@Z PROC	; CvDllGameDeals::GetDeal, COMDAT

; 156  : {

	mov	eax, DWORD PTR fs:0

; 157  : 	CvDeal* pDeal = m_pGameDeals->GetDeal(index);

	mov	ecx, DWORD PTR _this$[esp-4]
	push	-1
	push	__ehhandler$?GetDeal@CvDllGameDeals@@UAGPAVICvDeal1@@I@Z
	push	eax
	mov	DWORD PTR fs:0, esp
	mov	eax, DWORD PTR _index$[esp+8]
	mov	ecx, DWORD PTR [ecx+8]
	push	esi
	push	eax
	call	?GetDeal@CvGameDeals@@QAEPAVCvDeal@@I@Z	; CvGameDeals::GetDeal
	mov	esi, eax

; 158  : 	return (NULL != pDeal)? new CvDllDeal(pDeal) : NULL;

	test	esi, esi
	je	SHORT $LN5@GetDeal
	push	12					; 0000000cH
	call	??2CvDllDeal@@SAPAXI@Z			; CvDllDeal::operator new
	add	esp, 4
	mov	DWORD PTR $T219295[esp+12], eax
	mov	DWORD PTR __$EHRec$[esp+24], 0
	test	eax, eax
	je	SHORT $LN5@GetDeal
	push	esi
	mov	ecx, eax
	call	??0CvDllDeal@@QAE@PAVCvDeal@@@Z		; CvDllDeal::CvDllDeal

; 159  : }

	mov	ecx, DWORD PTR __$EHRec$[esp+16]
	mov	DWORD PTR fs:0, ecx
	pop	esi
	add	esp, 12					; 0000000cH
	ret	8
$LN5@GetDeal:
	mov	ecx, DWORD PTR __$EHRec$[esp+16]
	xor	eax, eax
	mov	DWORD PTR fs:0, ecx
	pop	esi
	add	esp, 12					; 0000000cH
	ret	8
_TEXT	ENDS
;	COMDAT text$x
text$x	SEGMENT
__unwindfunclet$?GetDeal@CvDllGameDeals@@UAGPAVICvDeal1@@I@Z$0:
	mov	eax, DWORD PTR $T219295[ebp-4]
	push	eax
	call	??3CvDllDeal@@SAXPAX@Z			; CvDllDeal::operator delete
	pop	ecx
	ret	0
__ehhandler$?GetDeal@CvDllGameDeals@@UAGPAVICvDeal1@@I@Z:
	mov	eax, OFFSET __ehfuncinfo$?GetDeal@CvDllGameDeals@@UAGPAVICvDeal1@@I@Z
	jmp	___CxxFrameHandler3
text$x	ENDS
?GetDeal@CvDllGameDeals@@UAGPAVICvDeal1@@I@Z ENDP	; CvDllGameDeals::GetDeal
EXTRN	?DestroyDeal@CvGameDeals@@QAEXI@Z:PROC		; CvGameDeals::DestroyDeal
; Function compile flags: /Ogtpy
;	COMDAT ?DestroyDeal@CvDllGameDeals@@UAGXI@Z
_TEXT	SEGMENT
_this$ = 8						; size = 4
_index$ = 12						; size = 4
?DestroyDeal@CvDllGameDeals@@UAGXI@Z PROC		; CvDllGameDeals::DestroyDeal, COMDAT

; 163  : 	m_pGameDeals->DestroyDeal(index);

	mov	eax, DWORD PTR _index$[esp-4]
	mov	ecx, DWORD PTR _this$[esp-4]
	mov	ecx, DWORD PTR [ecx+8]
	push	eax
	call	?DestroyDeal@CvGameDeals@@QAEXI@Z	; CvGameDeals::DestroyDeal

; 164  : }

	ret	8
?DestroyDeal@CvDllGameDeals@@UAGXI@Z ENDP		; CvDllGameDeals::DestroyDeal
_TEXT	ENDS
PUBLIC	?GetInterfaceId@ICvUnknown@@SG?AU_GUID@@XZ	; ICvUnknown::GetInterfaceId
; Function compile flags: /Ogtpy
; File c:\users\enormousapplepie\documents\github\lekmod\lekmod_dll\cvgamecoredllutil\include\cvdllinterfaces.h
;	COMDAT ?GetInterfaceId@ICvUnknown@@SG?AU_GUID@@XZ
_TEXT	SEGMENT
$T219313 = 8						; size = 4
?GetInterfaceId@ICvUnknown@@SG?AU_GUID@@XZ PROC		; ICvUnknown::GetInterfaceId, COMDAT

; 306  : 	static GUID DLLCALL GetInterfaceId(){ return guidICvUnknown; }

	mov	eax, DWORD PTR $T219313[esp-4]
	mov	ecx, DWORD PTR _guidICvUnknown
	mov	edx, DWORD PTR _guidICvUnknown+4
	mov	DWORD PTR [eax], ecx
	mov	ecx, DWORD PTR _guidICvUnknown+8
	mov	DWORD PTR [eax+4], edx
	mov	edx, DWORD PTR _guidICvUnknown+12
	mov	DWORD PTR [eax+8], ecx
	mov	DWORD PTR [eax+12], edx
	ret	4
?GetInterfaceId@ICvUnknown@@SG?AU_GUID@@XZ ENDP		; ICvUnknown::GetInterfaceId
_TEXT	ENDS
PUBLIC	?GetInterfaceId@ICvGameDeals1@@SG?AU_GUID@@XZ	; ICvGameDeals1::GetInterfaceId
; Function compile flags: /Ogtpy
;	COMDAT ?GetInterfaceId@ICvGameDeals1@@SG?AU_GUID@@XZ
_TEXT	SEGMENT
$T219317 = 8						; size = 4
?GetInterfaceId@ICvGameDeals1@@SG?AU_GUID@@XZ PROC	; ICvGameDeals1::GetInterfaceId, COMDAT

; 423  : 	static GUID DLLCALL GetInterfaceId() { return guidICvGameDeals1; }

	mov	eax, DWORD PTR $T219317[esp-4]
	mov	ecx, DWORD PTR _guidICvGameDeals1
	mov	edx, DWORD PTR _guidICvGameDeals1+4
	mov	DWORD PTR [eax], ecx
	mov	ecx, DWORD PTR _guidICvGameDeals1+8
	mov	DWORD PTR [eax+4], edx
	mov	edx, DWORD PTR _guidICvGameDeals1+12
	mov	DWORD PTR [eax+8], ecx
	mov	DWORD PTR [eax+12], edx
	ret	4
?GetInterfaceId@ICvGameDeals1@@SG?AU_GUID@@XZ ENDP	; ICvGameDeals1::GetInterfaceId
_TEXT	ENDS
PUBLIC	??_7ICvGameDeals1@@6B@				; ICvGameDeals1::`vftable'
PUBLIC	??0ICvGameDeals1@@QAE@XZ			; ICvGameDeals1::ICvGameDeals1
PUBLIC	??_R4ICvGameDeals1@@6B@				; ICvGameDeals1::`RTTI Complete Object Locator'
;	COMDAT ??_R4ICvGameDeals1@@6B@
rdata$r	SEGMENT
??_R4ICvGameDeals1@@6B@ DD 00H				; ICvGameDeals1::`RTTI Complete Object Locator'
	DD	00H
	DD	00H
	DD	FLAT:??_R0?AVICvGameDeals1@@@8
	DD	FLAT:??_R3ICvGameDeals1@@8
rdata$r	ENDS
;	COMDAT ??_7ICvGameDeals1@@6B@
CONST	SEGMENT
??_7ICvGameDeals1@@6B@ DD FLAT:??_R4ICvGameDeals1@@6B@	; ICvGameDeals1::`vftable'
	DD	FLAT:__purecall
	DD	FLAT:__purecall
	DD	FLAT:__purecall
	DD	FLAT:__purecall
	DD	FLAT:__purecall
	DD	FLAT:__purecall
	DD	FLAT:__purecall
	DD	FLAT:__purecall
	DD	FLAT:__purecall
	DD	FLAT:__purecall
	DD	FLAT:__purecall
	DD	FLAT:__purecall
	DD	FLAT:__purecall
	DD	FLAT:__purecall
	DD	FLAT:__purecall
	DD	FLAT:__purecall
; Function compile flags: /Ogtpy
CONST	ENDS
;	COMDAT ??0ICvGameDeals1@@QAE@XZ
_TEXT	SEGMENT
??0ICvGameDeals1@@QAE@XZ PROC				; ICvGameDeals1::ICvGameDeals1, COMDAT
; _this$ = ecx
	mov	eax, ecx
	mov	DWORD PTR [eax], OFFSET ??_7ICvGameDeals1@@6B@
	ret	0
??0ICvGameDeals1@@QAE@XZ ENDP				; ICvGameDeals1::ICvGameDeals1
; Function compile flags: /Ogtpy
; File c:\users\enormousapplepie\documents\github\lekmod\lekmod_dll\cvgamecoredll_expansion2\cvdllgamedeals.cpp
_TEXT	ENDS
;	COMDAT ?QueryInterface@CvDllGameDeals@@UAGPAXU_GUID@@@Z
_TEXT	SEGMENT
$T219329 = -16						; size = 16
$T219327 = -16						; size = 16
_this$ = 8						; size = 4
_guidInterface$ = 12					; size = 16
?QueryInterface@CvDllGameDeals@@UAGPAXU_GUID@@@Z PROC	; CvDllGameDeals::QueryInterface, COMDAT

; 29   : {

	sub	esp, 16					; 00000010H

; 30   : 	if(guidInterface == ICvUnknown::GetInterfaceId() ||
; 31   : 	        guidInterface == ICvGameDeals1::GetInterfaceId())

	mov	ecx, DWORD PTR _guidICvUnknown+4
	mov	edx, DWORD PTR _guidICvUnknown+8
	mov	eax, DWORD PTR _guidICvUnknown
	mov	DWORD PTR $T219327[esp+20], ecx
	lea	ecx, DWORD PTR $T219327[esp+16]
	mov	DWORD PTR $T219327[esp+24], edx
	mov	DWORD PTR $T219327[esp+16], eax
	mov	eax, DWORD PTR _guidICvUnknown+12
	push	ecx
	lea	edx, DWORD PTR _guidInterface$[esp+16]
	push	edx
	mov	DWORD PTR $T219327[esp+36], eax
	call	_IsEqualGUID
	add	esp, 8
	test	eax, eax
	jne	SHORT $LN1@QueryInter
	mov	ecx, DWORD PTR _guidICvGameDeals1+4
	mov	edx, DWORD PTR _guidICvGameDeals1+8
	mov	eax, DWORD PTR _guidICvGameDeals1
	mov	DWORD PTR $T219329[esp+20], ecx
	lea	ecx, DWORD PTR $T219329[esp+16]
	mov	DWORD PTR $T219329[esp+24], edx
	mov	DWORD PTR $T219329[esp+16], eax
	mov	eax, DWORD PTR _guidICvGameDeals1+12
	push	ecx
	lea	edx, DWORD PTR _guidInterface$[esp+16]
	push	edx
	mov	DWORD PTR $T219329[esp+36], eax
	call	_IsEqualGUID
	add	esp, 8
	test	eax, eax
	jne	SHORT $LN1@QueryInter

; 34   : 		return this;
; 35   : 	}
; 36   : 
; 37   : 	return NULL;
; 38   : }

	add	esp, 16					; 00000010H
	ret	20					; 00000014H
$LN1@QueryInter:

; 32   : 	{
; 33   : 		IncrementReference();

	mov	eax, DWORD PTR _this$[esp+12]
	inc	DWORD PTR [eax+4]

; 34   : 		return this;
; 35   : 	}
; 36   : 
; 37   : 	return NULL;
; 38   : }

	add	esp, 16					; 00000010H
	ret	20					; 00000014H
?QueryInterface@CvDllGameDeals@@UAGPAXU_GUID@@@Z ENDP	; CvDllGameDeals::QueryInterface
_TEXT	ENDS
PUBLIC	??_GCvDllGameDeals@@QAEPAXI@Z			; CvDllGameDeals::`scalar deleting destructor'
; Function compile flags: /Ogtpy
;	COMDAT ??_GCvDllGameDeals@@QAEPAXI@Z
_TEXT	SEGMENT
___flags$ = 8						; size = 4
??_GCvDllGameDeals@@QAEPAXI@Z PROC			; CvDllGameDeals::`scalar deleting destructor', COMDAT
; _this$ = ecx
	test	BYTE PTR ___flags$[esp-4], 1
	push	esi
	mov	esi, ecx
	mov	DWORD PTR [esi], OFFSET ??_7CvDllGameDeals@@6B@
	je	SHORT $LN8@scalar
	push	esi
	call	?Free@CvDllGameContext@@SAXPAX@Z	; CvDllGameContext::Free
	add	esp, 4
$LN8@scalar:
	mov	eax, esi
	pop	esi
	ret	4
??_GCvDllGameDeals@@QAEPAXI@Z ENDP			; CvDllGameDeals::`scalar deleting destructor'
_TEXT	ENDS
PUBLIC	??0CvDllGameDeals@@QAE@PAVCvGameDeals@@@Z	; CvDllGameDeals::CvDllGameDeals
; Function compile flags: /Ogtpy
;	COMDAT ??0CvDllGameDeals@@QAE@PAVCvGameDeals@@@Z
_TEXT	SEGMENT
_pGameDeals$ = 8					; size = 4
??0CvDllGameDeals@@QAE@PAVCvGameDeals@@@Z PROC		; CvDllGameDeals::CvDllGameDeals, COMDAT
; _this$ = ecx

; 21   : {

	mov	eax, ecx
	mov	ecx, DWORD PTR _pGameDeals$[esp-4]
	mov	DWORD PTR [eax], OFFSET ??_7CvDllGameDeals@@6B@
	mov	DWORD PTR [eax+4], 1
	mov	DWORD PTR [eax+8], ecx

; 22   : }

	ret	4
??0CvDllGameDeals@@QAE@PAVCvGameDeals@@@Z ENDP		; CvDllGameDeals::CvDllGameDeals
_TEXT	ENDS
PUBLIC	?DecrementReference@CvDllGameDeals@@QAEIXZ	; CvDllGameDeals::DecrementReference
; Function compile flags: /Ogtpy
;	COMDAT ?DecrementReference@CvDllGameDeals@@QAEIXZ
_TEXT	SEGMENT
?DecrementReference@CvDllGameDeals@@QAEIXZ PROC		; CvDllGameDeals::DecrementReference, COMDAT
; _this$ = ecx

; 48   : 	if(m_uiRefCount == 1)

	mov	eax, DWORD PTR [ecx+4]
	cmp	eax, 1
	jne	SHORT $LN2@DecrementR

; 49   : 	{
; 50   : 		delete this;

	push	ecx
	mov	DWORD PTR [ecx], OFFSET ??_7CvDllGameDeals@@6B@
	call	?Free@CvDllGameContext@@SAXPAX@Z	; CvDllGameContext::Free
	add	esp, 4

; 51   : 		return 0;

	xor	eax, eax

; 56   : 		return m_uiRefCount;
; 57   : 	}
; 58   : }

	ret	0
$LN2@DecrementR:

; 52   : 	}
; 53   : 	else
; 54   : 	{
; 55   : 		--m_uiRefCount;

	dec	eax
	mov	DWORD PTR [ecx+4], eax

; 56   : 		return m_uiRefCount;
; 57   : 	}
; 58   : }

	ret	0
?DecrementReference@CvDllGameDeals@@QAEIXZ ENDP		; CvDllGameDeals::DecrementReference
; Function compile flags: /Ogtpy
_TEXT	ENDS
;	COMDAT ?Destroy@CvDllGameDeals@@EAGXXZ
_TEXT	SEGMENT
_this$ = 8						; size = 4
?Destroy@CvDllGameDeals@@EAGXXZ PROC			; CvDllGameDeals::Destroy, COMDAT

; 67   : 	DecrementReference();

	mov	eax, DWORD PTR _this$[esp-4]
	mov	ecx, DWORD PTR [eax+4]
	cmp	ecx, 1
	jne	SHORT $LN4@Destroy
	push	eax
	mov	DWORD PTR [eax], OFFSET ??_7CvDllGameDeals@@6B@
	call	?Free@CvDllGameContext@@SAXPAX@Z	; CvDllGameContext::Free
	add	esp, 4

; 68   : }

	ret	4

; 67   : 	DecrementReference();

$LN4@Destroy:
	dec	ecx
	mov	DWORD PTR [eax+4], ecx

; 68   : }

	ret	4
?Destroy@CvDllGameDeals@@EAGXXZ ENDP			; CvDllGameDeals::Destroy
_TEXT	ENDS
END
