; Listing generated by Microsoft (R) Optimizing Compiler Version 15.00.30729.01 

	TITLE	s:\LEKMOD_DLL\CvGameCoreDLL_Expansion2\CvDllWorldInfo.cpp
	.686P
	.XMM
	include listing.inc
	.model	flat

INCLUDELIB MSVCRT
INCLUDELIB OLDNAMES

_DATA	SEGMENT
_CIV5_XP2_DLL_VERSION DD FLAT:$SG217146
_DATA	ENDS
CONST	SEGMENT
$SG217146 DB	'1.0.0', 00H
	ORG $+2
_guidICvUnknown DD 0d89ba82fH
	DW	09fa3H
	DW	04696H
	DB	0b3H
	DB	0f4H
	DB	052H
	DB	0bdH
	DB	0b1H
	DB	01H
	DB	0cfH
	DB	0b2H
_guidICvWorldInfo1 DD 053507549H
	DW	01614H
	DW	0428eH
	DB	089H
	DB	09fH
	DB	025H
	DB	0ffH
	DB	0acH
	DB	080H
	DB	039H
	DB	038H
CONST	ENDS
PUBLIC	??_7ICvUnknown@@6B@				; ICvUnknown::`vftable'
PUBLIC	??0ICvUnknown@@QAE@XZ				; ICvUnknown::ICvUnknown
PUBLIC	??_R4ICvUnknown@@6B@				; ICvUnknown::`RTTI Complete Object Locator'
PUBLIC	??_R0?AVICvUnknown@@@8				; ICvUnknown `RTTI Type Descriptor'
PUBLIC	??_R3ICvUnknown@@8				; ICvUnknown::`RTTI Class Hierarchy Descriptor'
PUBLIC	??_R2ICvUnknown@@8				; ICvUnknown::`RTTI Base Class Array'
PUBLIC	??_R1A@?0A@EA@ICvUnknown@@8			; ICvUnknown::`RTTI Base Class Descriptor at (0,-1,0,64)'
EXTRN	??_7type_info@@6B@:QWORD			; type_info::`vftable'
EXTRN	__purecall:PROC
;	COMDAT ??_R1A@?0A@EA@ICvUnknown@@8
rdata$r	SEGMENT
??_R1A@?0A@EA@ICvUnknown@@8 DD FLAT:??_R0?AVICvUnknown@@@8 ; ICvUnknown::`RTTI Base Class Descriptor at (0,-1,0,64)'
	DD	00H
	DD	00H
	DD	0ffffffffH
	DD	00H
	DD	040H
	DD	FLAT:??_R3ICvUnknown@@8
rdata$r	ENDS
;	COMDAT ??_R2ICvUnknown@@8
rdata$r	SEGMENT
??_R2ICvUnknown@@8 DD FLAT:??_R1A@?0A@EA@ICvUnknown@@8	; ICvUnknown::`RTTI Base Class Array'
rdata$r	ENDS
;	COMDAT ??_R3ICvUnknown@@8
rdata$r	SEGMENT
??_R3ICvUnknown@@8 DD 00H				; ICvUnknown::`RTTI Class Hierarchy Descriptor'
	DD	00H
	DD	01H
	DD	FLAT:??_R2ICvUnknown@@8
rdata$r	ENDS
;	COMDAT ??_R0?AVICvUnknown@@@8
_DATA	SEGMENT
??_R0?AVICvUnknown@@@8 DD FLAT:??_7type_info@@6B@	; ICvUnknown `RTTI Type Descriptor'
	DD	00H
	DB	'.?AVICvUnknown@@', 00H
_DATA	ENDS
;	COMDAT ??_R4ICvUnknown@@6B@
rdata$r	SEGMENT
??_R4ICvUnknown@@6B@ DD 00H				; ICvUnknown::`RTTI Complete Object Locator'
	DD	00H
	DD	00H
	DD	FLAT:??_R0?AVICvUnknown@@@8
	DD	FLAT:??_R3ICvUnknown@@8
rdata$r	ENDS
;	COMDAT ??_7ICvUnknown@@6B@
CONST	SEGMENT
??_7ICvUnknown@@6B@ DD FLAT:??_R4ICvUnknown@@6B@	; ICvUnknown::`vftable'
	DD	FLAT:__purecall
	DD	FLAT:__purecall
; Function compile flags: /Ogtpy
CONST	ENDS
;	COMDAT ??0ICvUnknown@@QAE@XZ
_TEXT	SEGMENT
??0ICvUnknown@@QAE@XZ PROC				; ICvUnknown::ICvUnknown, COMDAT
; _this$ = ecx
	mov	eax, ecx
	mov	DWORD PTR [eax], OFFSET ??_7ICvUnknown@@6B@
	ret	0
??0ICvUnknown@@QAE@XZ ENDP				; ICvUnknown::ICvUnknown
_TEXT	ENDS
PUBLIC	??_7CvDllWorldInfo@@6B@				; CvDllWorldInfo::`vftable'
PUBLIC	??1CvDllWorldInfo@@QAE@XZ			; CvDllWorldInfo::~CvDllWorldInfo
PUBLIC	??_R4CvDllWorldInfo@@6B@			; CvDllWorldInfo::`RTTI Complete Object Locator'
PUBLIC	??_R0?AVCvDllWorldInfo@@@8			; CvDllWorldInfo `RTTI Type Descriptor'
PUBLIC	??_R3CvDllWorldInfo@@8				; CvDllWorldInfo::`RTTI Class Hierarchy Descriptor'
PUBLIC	??_R2CvDllWorldInfo@@8				; CvDllWorldInfo::`RTTI Base Class Array'
PUBLIC	??_R1A@?0A@EA@CvDllWorldInfo@@8			; CvDllWorldInfo::`RTTI Base Class Descriptor at (0,-1,0,64)'
PUBLIC	??_R1A@?0A@EA@ICvWorldInfo1@@8			; ICvWorldInfo1::`RTTI Base Class Descriptor at (0,-1,0,64)'
PUBLIC	??_R0?AVICvWorldInfo1@@@8			; ICvWorldInfo1 `RTTI Type Descriptor'
PUBLIC	??_R3ICvWorldInfo1@@8				; ICvWorldInfo1::`RTTI Class Hierarchy Descriptor'
PUBLIC	??_R2ICvWorldInfo1@@8				; ICvWorldInfo1::`RTTI Base Class Array'
PUBLIC	?QueryInterface@CvDllWorldInfo@@UAGPAXU_GUID@@@Z ; CvDllWorldInfo::QueryInterface
PUBLIC	?Destroy@CvDllWorldInfo@@EAGXXZ			; CvDllWorldInfo::Destroy
PUBLIC	?GetType@CvDllWorldInfo@@UAGPBDXZ		; CvDllWorldInfo::GetType
PUBLIC	?GetDescriptionKey@CvDllWorldInfo@@UAGPBDXZ	; CvDllWorldInfo::GetDescriptionKey
PUBLIC	?GetDefaultPlayers@CvDllWorldInfo@@UAGHXZ	; CvDllWorldInfo::GetDefaultPlayers
PUBLIC	?GetDefaultMinorCivs@CvDllWorldInfo@@UAGHXZ	; CvDllWorldInfo::GetDefaultMinorCivs
;	COMDAT ??_R2ICvWorldInfo1@@8
; File s:\lekmod_dll\cvgamecoredll_expansion2\cvdllworldinfo.cpp
rdata$r	SEGMENT
??_R2ICvWorldInfo1@@8 DD FLAT:??_R1A@?0A@EA@ICvWorldInfo1@@8 ; ICvWorldInfo1::`RTTI Base Class Array'
	DD	FLAT:??_R1A@?0A@EA@ICvUnknown@@8
rdata$r	ENDS
;	COMDAT ??_R3ICvWorldInfo1@@8
rdata$r	SEGMENT
??_R3ICvWorldInfo1@@8 DD 00H				; ICvWorldInfo1::`RTTI Class Hierarchy Descriptor'
	DD	00H
	DD	02H
	DD	FLAT:??_R2ICvWorldInfo1@@8
rdata$r	ENDS
;	COMDAT ??_R0?AVICvWorldInfo1@@@8
_DATA	SEGMENT
??_R0?AVICvWorldInfo1@@@8 DD FLAT:??_7type_info@@6B@	; ICvWorldInfo1 `RTTI Type Descriptor'
	DD	00H
	DB	'.?AVICvWorldInfo1@@', 00H
_DATA	ENDS
;	COMDAT ??_R1A@?0A@EA@ICvWorldInfo1@@8
rdata$r	SEGMENT
??_R1A@?0A@EA@ICvWorldInfo1@@8 DD FLAT:??_R0?AVICvWorldInfo1@@@8 ; ICvWorldInfo1::`RTTI Base Class Descriptor at (0,-1,0,64)'
	DD	01H
	DD	00H
	DD	0ffffffffH
	DD	00H
	DD	040H
	DD	FLAT:??_R3ICvWorldInfo1@@8
rdata$r	ENDS
;	COMDAT ??_R1A@?0A@EA@CvDllWorldInfo@@8
rdata$r	SEGMENT
??_R1A@?0A@EA@CvDllWorldInfo@@8 DD FLAT:??_R0?AVCvDllWorldInfo@@@8 ; CvDllWorldInfo::`RTTI Base Class Descriptor at (0,-1,0,64)'
	DD	02H
	DD	00H
	DD	0ffffffffH
	DD	00H
	DD	040H
	DD	FLAT:??_R3CvDllWorldInfo@@8
rdata$r	ENDS
;	COMDAT ??_R2CvDllWorldInfo@@8
rdata$r	SEGMENT
??_R2CvDllWorldInfo@@8 DD FLAT:??_R1A@?0A@EA@CvDllWorldInfo@@8 ; CvDllWorldInfo::`RTTI Base Class Array'
	DD	FLAT:??_R1A@?0A@EA@ICvWorldInfo1@@8
	DD	FLAT:??_R1A@?0A@EA@ICvUnknown@@8
rdata$r	ENDS
;	COMDAT ??_R3CvDllWorldInfo@@8
rdata$r	SEGMENT
??_R3CvDllWorldInfo@@8 DD 00H				; CvDllWorldInfo::`RTTI Class Hierarchy Descriptor'
	DD	00H
	DD	03H
	DD	FLAT:??_R2CvDllWorldInfo@@8
rdata$r	ENDS
;	COMDAT ??_R0?AVCvDllWorldInfo@@@8
_DATA	SEGMENT
??_R0?AVCvDllWorldInfo@@@8 DD FLAT:??_7type_info@@6B@	; CvDllWorldInfo `RTTI Type Descriptor'
	DD	00H
	DB	'.?AVCvDllWorldInfo@@', 00H
_DATA	ENDS
;	COMDAT ??_R4CvDllWorldInfo@@6B@
rdata$r	SEGMENT
??_R4CvDllWorldInfo@@6B@ DD 00H				; CvDllWorldInfo::`RTTI Complete Object Locator'
	DD	00H
	DD	00H
	DD	FLAT:??_R0?AVCvDllWorldInfo@@@8
	DD	FLAT:??_R3CvDllWorldInfo@@8
rdata$r	ENDS
;	COMDAT ??_7CvDllWorldInfo@@6B@
CONST	SEGMENT
??_7CvDllWorldInfo@@6B@ DD FLAT:??_R4CvDllWorldInfo@@6B@ ; CvDllWorldInfo::`vftable'
	DD	FLAT:?QueryInterface@CvDllWorldInfo@@UAGPAXU_GUID@@@Z
	DD	FLAT:?Destroy@CvDllWorldInfo@@EAGXXZ
	DD	FLAT:?GetType@CvDllWorldInfo@@UAGPBDXZ
	DD	FLAT:?GetDescriptionKey@CvDllWorldInfo@@UAGPBDXZ
	DD	FLAT:?GetDefaultPlayers@CvDllWorldInfo@@UAGHXZ
	DD	FLAT:?GetDefaultMinorCivs@CvDllWorldInfo@@UAGHXZ
; Function compile flags: /Ogtpy
CONST	ENDS
;	COMDAT ??1CvDllWorldInfo@@QAE@XZ
_TEXT	SEGMENT
??1CvDllWorldInfo@@QAE@XZ PROC				; CvDllWorldInfo::~CvDllWorldInfo, COMDAT
; _this$ = ecx

; 25   : {

	mov	DWORD PTR [ecx], OFFSET ??_7CvDllWorldInfo@@6B@

; 26   : }

	ret	0
??1CvDllWorldInfo@@QAE@XZ ENDP				; CvDllWorldInfo::~CvDllWorldInfo
_TEXT	ENDS
PUBLIC	?IncrementReference@CvDllWorldInfo@@QAEIXZ	; CvDllWorldInfo::IncrementReference
; Function compile flags: /Ogtpy
;	COMDAT ?IncrementReference@CvDllWorldInfo@@QAEIXZ
_TEXT	SEGMENT
?IncrementReference@CvDllWorldInfo@@QAEIXZ PROC		; CvDllWorldInfo::IncrementReference, COMDAT
; _this$ = ecx

; 42   : 	++m_uiRefCount;

	inc	DWORD PTR [ecx+4]

; 43   : 	return m_uiRefCount;

	mov	eax, DWORD PTR [ecx+4]

; 44   : }

	ret	0
?IncrementReference@CvDllWorldInfo@@QAEIXZ ENDP		; CvDllWorldInfo::IncrementReference
_TEXT	ENDS
PUBLIC	?GetReferenceCount@CvDllWorldInfo@@QAEIXZ	; CvDllWorldInfo::GetReferenceCount
; Function compile flags: /Ogtpy
;	COMDAT ?GetReferenceCount@CvDllWorldInfo@@QAEIXZ
_TEXT	SEGMENT
?GetReferenceCount@CvDllWorldInfo@@QAEIXZ PROC		; CvDllWorldInfo::GetReferenceCount, COMDAT
; _this$ = ecx

; 62   : 	return m_uiRefCount;

	mov	eax, DWORD PTR [ecx+4]

; 63   : }

	ret	0
?GetReferenceCount@CvDllWorldInfo@@QAEIXZ ENDP		; CvDllWorldInfo::GetReferenceCount
_TEXT	ENDS
PUBLIC	??3CvDllWorldInfo@@SAXPAX@Z			; CvDllWorldInfo::operator delete
EXTRN	?Free@CvDllGameContext@@SAXPAX@Z:PROC		; CvDllGameContext::Free
; Function compile flags: /Ogtpy
;	COMDAT ??3CvDllWorldInfo@@SAXPAX@Z
_TEXT	SEGMENT
_p$ = 8							; size = 4
??3CvDllWorldInfo@@SAXPAX@Z PROC			; CvDllWorldInfo::operator delete, COMDAT

; 72   : 	CvDllGameContext::Free(p);

	jmp	?Free@CvDllGameContext@@SAXPAX@Z	; CvDllGameContext::Free
??3CvDllWorldInfo@@SAXPAX@Z ENDP			; CvDllWorldInfo::operator delete
_TEXT	ENDS
PUBLIC	??2CvDllWorldInfo@@SAPAXI@Z			; CvDllWorldInfo::operator new
EXTRN	?Allocate@CvDllGameContext@@SAPAXI@Z:PROC	; CvDllGameContext::Allocate
; Function compile flags: /Ogtpy
;	COMDAT ??2CvDllWorldInfo@@SAPAXI@Z
_TEXT	SEGMENT
_bytes$ = 8						; size = 4
??2CvDllWorldInfo@@SAPAXI@Z PROC			; CvDllWorldInfo::operator new, COMDAT

; 77   : 	return CvDllGameContext::Allocate(bytes);

	jmp	?Allocate@CvDllGameContext@@SAPAXI@Z	; CvDllGameContext::Allocate
??2CvDllWorldInfo@@SAPAXI@Z ENDP			; CvDllWorldInfo::operator new
_TEXT	ENDS
PUBLIC	?GetInstance@CvDllWorldInfo@@QAEPAVCvWorldInfo@@XZ ; CvDllWorldInfo::GetInstance
; Function compile flags: /Ogtpy
;	COMDAT ?GetInstance@CvDllWorldInfo@@QAEPAVCvWorldInfo@@XZ
_TEXT	SEGMENT
?GetInstance@CvDllWorldInfo@@QAEPAVCvWorldInfo@@XZ PROC	; CvDllWorldInfo::GetInstance, COMDAT
; _this$ = ecx

; 82   : 	return m_pWorldInfo;

	mov	eax, DWORD PTR [ecx+8]

; 83   : }

	ret	0
?GetInstance@CvDllWorldInfo@@QAEPAVCvWorldInfo@@XZ ENDP	; CvDllWorldInfo::GetInstance
_TEXT	ENDS
EXTRN	?getDefaultPlayers@CvWorldInfo@@QBEHXZ:PROC	; CvWorldInfo::getDefaultPlayers
; Function compile flags: /Ogtpy
;	COMDAT ?GetDefaultPlayers@CvDllWorldInfo@@UAGHXZ
_TEXT	SEGMENT
_this$ = 8						; size = 4
?GetDefaultPlayers@CvDllWorldInfo@@UAGHXZ PROC		; CvDllWorldInfo::GetDefaultPlayers, COMDAT

; 97   : 	return m_pWorldInfo->getDefaultPlayers();

	mov	eax, DWORD PTR _this$[esp-4]
	mov	ecx, DWORD PTR [eax+8]
	call	?getDefaultPlayers@CvWorldInfo@@QBEHXZ	; CvWorldInfo::getDefaultPlayers

; 98   : }

	ret	4
?GetDefaultPlayers@CvDllWorldInfo@@UAGHXZ ENDP		; CvDllWorldInfo::GetDefaultPlayers
_TEXT	ENDS
EXTRN	?getDefaultMinorCivs@CvWorldInfo@@QBEHXZ:PROC	; CvWorldInfo::getDefaultMinorCivs
; Function compile flags: /Ogtpy
;	COMDAT ?GetDefaultMinorCivs@CvDllWorldInfo@@UAGHXZ
_TEXT	SEGMENT
_this$ = 8						; size = 4
?GetDefaultMinorCivs@CvDllWorldInfo@@UAGHXZ PROC	; CvDllWorldInfo::GetDefaultMinorCivs, COMDAT

; 102  : 	return m_pWorldInfo->getDefaultMinorCivs();

	mov	eax, DWORD PTR _this$[esp-4]
	mov	ecx, DWORD PTR [eax+8]
	call	?getDefaultMinorCivs@CvWorldInfo@@QBEHXZ ; CvWorldInfo::getDefaultMinorCivs

; 103  : }

	ret	4
?GetDefaultMinorCivs@CvDllWorldInfo@@UAGHXZ ENDP	; CvDllWorldInfo::GetDefaultMinorCivs
_TEXT	ENDS
PUBLIC	_IsEqualGUID
; Function compile flags: /Ogtpy
; File c:\program files\microsoft sdks\windows\v6.0a\include\guiddef.h
;	COMDAT _IsEqualGUID
_TEXT	SEGMENT
_rguid1$ = 8						; size = 4
_rguid2$ = 12						; size = 4
_IsEqualGUID PROC					; COMDAT

; 161  :     return !memcmp(&rguid1, &rguid2, sizeof(GUID));

	mov	ecx, DWORD PTR _rguid2$[esp-4]
	mov	edx, DWORD PTR _rguid1$[esp-4]
	mov	eax, 16					; 00000010H
	push	esi
	npad	2
$LL4@IsEqualGUI:
	mov	esi, DWORD PTR [edx]
	cmp	esi, DWORD PTR [ecx]
	jne	SHORT $LN5@IsEqualGUI
	sub	eax, 4
	add	ecx, 4
	add	edx, 4
	cmp	eax, 4
	jae	SHORT $LL4@IsEqualGUI
	xor	eax, eax
	xor	edx, edx
	test	eax, eax
	sete	dl
	pop	esi
	mov	eax, edx

; 162  : }

	ret	0
$LN5@IsEqualGUI:

; 161  :     return !memcmp(&rguid1, &rguid2, sizeof(GUID));

	movzx	eax, BYTE PTR [edx]
	movzx	esi, BYTE PTR [ecx]
	sub	eax, esi
	jne	SHORT $LN7@IsEqualGUI
	movzx	eax, BYTE PTR [edx+1]
	movzx	esi, BYTE PTR [ecx+1]
	sub	eax, esi
	jne	SHORT $LN7@IsEqualGUI
	movzx	eax, BYTE PTR [edx+2]
	movzx	esi, BYTE PTR [ecx+2]
	sub	eax, esi
	jne	SHORT $LN7@IsEqualGUI
	movzx	eax, BYTE PTR [edx+3]
	movzx	ecx, BYTE PTR [ecx+3]
	sub	eax, ecx
$LN7@IsEqualGUI:
	sar	eax, 31					; 0000001fH
	or	eax, 1
	xor	edx, edx
	test	eax, eax
	sete	dl
	pop	esi
	mov	eax, edx

; 162  : }

	ret	0
_IsEqualGUID ENDP
_TEXT	ENDS
PUBLIC	_==
; Function compile flags: /Ogtpy
;	COMDAT _==
_TEXT	SEGMENT
_guidOne$ = 8						; size = 4
_guidOther$ = 12					; size = 4
_==	PROC						; COMDAT

; 194  :     return IsEqualGUID(guidOne,guidOther);

	jmp	_IsEqualGUID
_==	ENDP
_TEXT	ENDS
PUBLIC	?GetInterfaceId@ICvUnknown@@SG?AU_GUID@@XZ	; ICvUnknown::GetInterfaceId
; Function compile flags: /Ogtpy
; File s:\lekmod_dll\cvgamecoredllutil\include\cvdllinterfaces.h
;	COMDAT ?GetInterfaceId@ICvUnknown@@SG?AU_GUID@@XZ
_TEXT	SEGMENT
$T218490 = 8						; size = 4
?GetInterfaceId@ICvUnknown@@SG?AU_GUID@@XZ PROC		; ICvUnknown::GetInterfaceId, COMDAT

; 306  : 	static GUID DLLCALL GetInterfaceId(){ return guidICvUnknown; }

	mov	eax, DWORD PTR $T218490[esp-4]
	mov	ecx, DWORD PTR _guidICvUnknown
	mov	edx, DWORD PTR _guidICvUnknown+4
	mov	DWORD PTR [eax], ecx
	mov	ecx, DWORD PTR _guidICvUnknown+8
	mov	DWORD PTR [eax+4], edx
	mov	edx, DWORD PTR _guidICvUnknown+12
	mov	DWORD PTR [eax+8], ecx
	mov	DWORD PTR [eax+12], edx
	ret	4
?GetInterfaceId@ICvUnknown@@SG?AU_GUID@@XZ ENDP		; ICvUnknown::GetInterfaceId
_TEXT	ENDS
PUBLIC	?GetInterfaceId@ICvWorldInfo1@@SG?AU_GUID@@XZ	; ICvWorldInfo1::GetInterfaceId
; Function compile flags: /Ogtpy
;	COMDAT ?GetInterfaceId@ICvWorldInfo1@@SG?AU_GUID@@XZ
_TEXT	SEGMENT
$T218494 = 8						; size = 4
?GetInterfaceId@ICvWorldInfo1@@SG?AU_GUID@@XZ PROC	; ICvWorldInfo1::GetInterfaceId, COMDAT

; 626  : 	static GUID DLLCALL GetInterfaceId() { return guidICvWorldInfo1; }

	mov	eax, DWORD PTR $T218494[esp-4]
	mov	ecx, DWORD PTR _guidICvWorldInfo1
	mov	edx, DWORD PTR _guidICvWorldInfo1+4
	mov	DWORD PTR [eax], ecx
	mov	ecx, DWORD PTR _guidICvWorldInfo1+8
	mov	DWORD PTR [eax+4], edx
	mov	edx, DWORD PTR _guidICvWorldInfo1+12
	mov	DWORD PTR [eax+8], ecx
	mov	DWORD PTR [eax+12], edx
	ret	4
?GetInterfaceId@ICvWorldInfo1@@SG?AU_GUID@@XZ ENDP	; ICvWorldInfo1::GetInterfaceId
_TEXT	ENDS
PUBLIC	?GetDescriptionKey@CvBaseInfo@@QBEPBDXZ		; CvBaseInfo::GetDescriptionKey
EXTRN	__imp_?c_str@?$basic_string@DU?$char_traits@D@std@@V?$allocator@D@2@@std@@QBEPBDXZ:PROC
; Function compile flags: /Ogtpy
; File s:\lekmod_dll\cvgamecoredll_expansion2\cvinfos.h
;	COMDAT ?GetDescriptionKey@CvBaseInfo@@QBEPBDXZ
_TEXT	SEGMENT
?GetDescriptionKey@CvBaseInfo@@QBEPBDXZ PROC		; CvBaseInfo::GetDescriptionKey, COMDAT
; _this$ = ecx

; 69   : 		return m_strDescriptionKey.c_str();

	add	ecx, 64					; 00000040H
	jmp	DWORD PTR __imp_?c_str@?$basic_string@DU?$char_traits@D@std@@V?$allocator@D@2@@std@@QBEPBDXZ
?GetDescriptionKey@CvBaseInfo@@QBEPBDXZ ENDP		; CvBaseInfo::GetDescriptionKey
_TEXT	ENDS
PUBLIC	?GetType@CvBaseInfo@@QBEPBDXZ			; CvBaseInfo::GetType
; Function compile flags: /Ogtpy
;	COMDAT ?GetType@CvBaseInfo@@QBEPBDXZ
_TEXT	SEGMENT
?GetType@CvBaseInfo@@QBEPBDXZ PROC			; CvBaseInfo::GetType, COMDAT
; _this$ = ecx

; 92   : 		return m_strType.c_str();

	add	ecx, 176				; 000000b0H
	jmp	DWORD PTR __imp_?c_str@?$basic_string@DU?$char_traits@D@std@@V?$allocator@D@2@@std@@QBEPBDXZ
?GetType@CvBaseInfo@@QBEPBDXZ ENDP			; CvBaseInfo::GetType
_TEXT	ENDS
PUBLIC	??_7ICvWorldInfo1@@6B@				; ICvWorldInfo1::`vftable'
PUBLIC	??0ICvWorldInfo1@@QAE@XZ			; ICvWorldInfo1::ICvWorldInfo1
PUBLIC	??_R4ICvWorldInfo1@@6B@				; ICvWorldInfo1::`RTTI Complete Object Locator'
;	COMDAT ??_R4ICvWorldInfo1@@6B@
rdata$r	SEGMENT
??_R4ICvWorldInfo1@@6B@ DD 00H				; ICvWorldInfo1::`RTTI Complete Object Locator'
	DD	00H
	DD	00H
	DD	FLAT:??_R0?AVICvWorldInfo1@@@8
	DD	FLAT:??_R3ICvWorldInfo1@@8
rdata$r	ENDS
;	COMDAT ??_7ICvWorldInfo1@@6B@
CONST	SEGMENT
??_7ICvWorldInfo1@@6B@ DD FLAT:??_R4ICvWorldInfo1@@6B@	; ICvWorldInfo1::`vftable'
	DD	FLAT:__purecall
	DD	FLAT:__purecall
	DD	FLAT:__purecall
	DD	FLAT:__purecall
	DD	FLAT:__purecall
	DD	FLAT:__purecall
; Function compile flags: /Ogtpy
CONST	ENDS
;	COMDAT ??0ICvWorldInfo1@@QAE@XZ
_TEXT	SEGMENT
??0ICvWorldInfo1@@QAE@XZ PROC				; ICvWorldInfo1::ICvWorldInfo1, COMDAT
; _this$ = ecx
	mov	eax, ecx
	mov	DWORD PTR [eax], OFFSET ??_7ICvWorldInfo1@@6B@
	ret	0
??0ICvWorldInfo1@@QAE@XZ ENDP				; ICvWorldInfo1::ICvWorldInfo1
; Function compile flags: /Ogtpy
; File s:\lekmod_dll\cvgamecoredll_expansion2\cvdllworldinfo.cpp
_TEXT	ENDS
;	COMDAT ?QueryInterface@CvDllWorldInfo@@UAGPAXU_GUID@@@Z
_TEXT	SEGMENT
$T218514 = -16						; size = 16
$T218512 = -16						; size = 16
_this$ = 8						; size = 4
_guidInterface$ = 12					; size = 16
?QueryInterface@CvDllWorldInfo@@UAGPAXU_GUID@@@Z PROC	; CvDllWorldInfo::QueryInterface, COMDAT

; 29   : {

	sub	esp, 16					; 00000010H

; 30   : 	if(guidInterface == ICvUnknown::GetInterfaceId() ||
; 31   : 	        guidInterface == ICvWorldInfo1::GetInterfaceId())

	mov	ecx, DWORD PTR _guidICvUnknown+4
	mov	edx, DWORD PTR _guidICvUnknown+8
	mov	eax, DWORD PTR _guidICvUnknown
	mov	DWORD PTR $T218512[esp+20], ecx
	lea	ecx, DWORD PTR $T218512[esp+16]
	mov	DWORD PTR $T218512[esp+24], edx
	mov	DWORD PTR $T218512[esp+16], eax
	mov	eax, DWORD PTR _guidICvUnknown+12
	push	ecx
	lea	edx, DWORD PTR _guidInterface$[esp+16]
	push	edx
	mov	DWORD PTR $T218512[esp+36], eax
	call	_IsEqualGUID
	add	esp, 8
	test	eax, eax
	jne	SHORT $LN1@QueryInter
	mov	ecx, DWORD PTR _guidICvWorldInfo1+4
	mov	edx, DWORD PTR _guidICvWorldInfo1+8
	mov	eax, DWORD PTR _guidICvWorldInfo1
	mov	DWORD PTR $T218514[esp+20], ecx
	lea	ecx, DWORD PTR $T218514[esp+16]
	mov	DWORD PTR $T218514[esp+24], edx
	mov	DWORD PTR $T218514[esp+16], eax
	mov	eax, DWORD PTR _guidICvWorldInfo1+12
	push	ecx
	lea	edx, DWORD PTR _guidInterface$[esp+16]
	push	edx
	mov	DWORD PTR $T218514[esp+36], eax
	call	_IsEqualGUID
	add	esp, 8
	test	eax, eax
	jne	SHORT $LN1@QueryInter

; 34   : 		return this;
; 35   : 	}
; 36   : 
; 37   : 	return NULL;
; 38   : }

	add	esp, 16					; 00000010H
	ret	20					; 00000014H
$LN1@QueryInter:

; 32   : 	{
; 33   : 		IncrementReference();

	mov	eax, DWORD PTR _this$[esp+12]
	inc	DWORD PTR [eax+4]

; 34   : 		return this;
; 35   : 	}
; 36   : 
; 37   : 	return NULL;
; 38   : }

	add	esp, 16					; 00000010H
	ret	20					; 00000014H
?QueryInterface@CvDllWorldInfo@@UAGPAXU_GUID@@@Z ENDP	; CvDllWorldInfo::QueryInterface
_TEXT	ENDS
PUBLIC	??_GCvDllWorldInfo@@QAEPAXI@Z			; CvDllWorldInfo::`scalar deleting destructor'
; Function compile flags: /Ogtpy
;	COMDAT ??_GCvDllWorldInfo@@QAEPAXI@Z
_TEXT	SEGMENT
___flags$ = 8						; size = 4
??_GCvDllWorldInfo@@QAEPAXI@Z PROC			; CvDllWorldInfo::`scalar deleting destructor', COMDAT
; _this$ = ecx
	test	BYTE PTR ___flags$[esp-4], 1
	push	esi
	mov	esi, ecx
	mov	DWORD PTR [esi], OFFSET ??_7CvDllWorldInfo@@6B@
	je	SHORT $LN8@scalar
	push	esi
	call	?Free@CvDllGameContext@@SAXPAX@Z	; CvDllGameContext::Free
	add	esp, 4
$LN8@scalar:
	mov	eax, esi
	pop	esi
	ret	4
??_GCvDllWorldInfo@@QAEPAXI@Z ENDP			; CvDllWorldInfo::`scalar deleting destructor'
; Function compile flags: /Ogtpy
_TEXT	ENDS
;	COMDAT ?GetType@CvDllWorldInfo@@UAGPBDXZ
_TEXT	SEGMENT
_this$ = 8						; size = 4
?GetType@CvDllWorldInfo@@UAGPBDXZ PROC			; CvDllWorldInfo::GetType, COMDAT

; 87   : 	return m_pWorldInfo->GetType();

	mov	eax, DWORD PTR _this$[esp-4]
	mov	eax, DWORD PTR [eax+8]
	lea	ecx, DWORD PTR [eax+176]
	call	DWORD PTR __imp_?c_str@?$basic_string@DU?$char_traits@D@std@@V?$allocator@D@2@@std@@QBEPBDXZ

; 88   : }

	ret	4
?GetType@CvDllWorldInfo@@UAGPBDXZ ENDP			; CvDllWorldInfo::GetType
; Function compile flags: /Ogtpy
_TEXT	ENDS
;	COMDAT ?GetDescriptionKey@CvDllWorldInfo@@UAGPBDXZ
_TEXT	SEGMENT
_this$ = 8						; size = 4
?GetDescriptionKey@CvDllWorldInfo@@UAGPBDXZ PROC	; CvDllWorldInfo::GetDescriptionKey, COMDAT

; 92   : 	return m_pWorldInfo->GetDescriptionKey();

	mov	eax, DWORD PTR _this$[esp-4]
	mov	eax, DWORD PTR [eax+8]
	lea	ecx, DWORD PTR [eax+64]
	call	DWORD PTR __imp_?c_str@?$basic_string@DU?$char_traits@D@std@@V?$allocator@D@2@@std@@QBEPBDXZ

; 93   : }

	ret	4
?GetDescriptionKey@CvDllWorldInfo@@UAGPBDXZ ENDP	; CvDllWorldInfo::GetDescriptionKey
_TEXT	ENDS
PUBLIC	??0CvDllWorldInfo@@QAE@PAVCvWorldInfo@@@Z	; CvDllWorldInfo::CvDllWorldInfo
; Function compile flags: /Ogtpy
;	COMDAT ??0CvDllWorldInfo@@QAE@PAVCvWorldInfo@@@Z
_TEXT	SEGMENT
_pWorldInfo$ = 8					; size = 4
??0CvDllWorldInfo@@QAE@PAVCvWorldInfo@@@Z PROC		; CvDllWorldInfo::CvDllWorldInfo, COMDAT
; _this$ = ecx

; 20   : {

	mov	eax, ecx
	mov	ecx, DWORD PTR _pWorldInfo$[esp-4]
	mov	DWORD PTR [eax], OFFSET ??_7CvDllWorldInfo@@6B@
	mov	DWORD PTR [eax+4], 1
	mov	DWORD PTR [eax+8], ecx

; 21   : 	FAssertMsg(pWorldInfo != NULL, "SHOULD NOT HAPPEN");
; 22   : }

	ret	4
??0CvDllWorldInfo@@QAE@PAVCvWorldInfo@@@Z ENDP		; CvDllWorldInfo::CvDllWorldInfo
_TEXT	ENDS
PUBLIC	?DecrementReference@CvDllWorldInfo@@QAEIXZ	; CvDllWorldInfo::DecrementReference
; Function compile flags: /Ogtpy
;	COMDAT ?DecrementReference@CvDllWorldInfo@@QAEIXZ
_TEXT	SEGMENT
?DecrementReference@CvDllWorldInfo@@QAEIXZ PROC		; CvDllWorldInfo::DecrementReference, COMDAT
; _this$ = ecx

; 48   : 	if(m_uiRefCount == 1)

	mov	eax, DWORD PTR [ecx+4]
	cmp	eax, 1
	jne	SHORT $LN2@DecrementR

; 49   : 	{
; 50   : 		delete this;

	push	ecx
	mov	DWORD PTR [ecx], OFFSET ??_7CvDllWorldInfo@@6B@
	call	?Free@CvDllGameContext@@SAXPAX@Z	; CvDllGameContext::Free
	add	esp, 4

; 51   : 		return 0;

	xor	eax, eax

; 56   : 		return m_uiRefCount;
; 57   : 	}
; 58   : }

	ret	0
$LN2@DecrementR:

; 52   : 	}
; 53   : 	else
; 54   : 	{
; 55   : 		--m_uiRefCount;

	dec	eax
	mov	DWORD PTR [ecx+4], eax

; 56   : 		return m_uiRefCount;
; 57   : 	}
; 58   : }

	ret	0
?DecrementReference@CvDllWorldInfo@@QAEIXZ ENDP		; CvDllWorldInfo::DecrementReference
; Function compile flags: /Ogtpy
_TEXT	ENDS
;	COMDAT ?Destroy@CvDllWorldInfo@@EAGXXZ
_TEXT	SEGMENT
_this$ = 8						; size = 4
?Destroy@CvDllWorldInfo@@EAGXXZ PROC			; CvDllWorldInfo::Destroy, COMDAT

; 67   : 	DecrementReference();

	mov	eax, DWORD PTR _this$[esp-4]
	mov	ecx, DWORD PTR [eax+4]
	cmp	ecx, 1
	jne	SHORT $LN4@Destroy
	push	eax
	mov	DWORD PTR [eax], OFFSET ??_7CvDllWorldInfo@@6B@
	call	?Free@CvDllGameContext@@SAXPAX@Z	; CvDllGameContext::Free
	add	esp, 4

; 68   : }

	ret	4

; 67   : 	DecrementReference();

$LN4@Destroy:
	dec	ecx
	mov	DWORD PTR [eax+4], ecx

; 68   : }

	ret	4
?Destroy@CvDllWorldInfo@@EAGXXZ ENDP			; CvDllWorldInfo::Destroy
_TEXT	ENDS
END
