; Listing generated by Microsoft (R) Optimizing Compiler Version 15.00.30729.01 

	TITLE	c:\Users\EnormousApplePie\Documents\GitHub\Lekmod\LEKMOD_DLL\CvGameCoreDLL_Expansion2\CvDllInterfaceModeInfo.cpp
	.686P
	.XMM
	include listing.inc
	.model	flat

INCLUDELIB MSVCRT
INCLUDELIB OLDNAMES

_DATA	SEGMENT
_CIV5_XP2_DLL_VERSION DD FLAT:$SG217666
_DATA	ENDS
CONST	SEGMENT
$SG217666 DB	'1.0.0', 00H
	ORG $+2
_guidICvUnknown DD 0d89ba82fH
	DW	09fa3H
	DW	04696H
	DB	0b3H
	DB	0f4H
	DB	052H
	DB	0bdH
	DB	0b1H
	DB	01H
	DB	0cfH
	DB	0b2H
_guidICvUnit1 DD 09f157e04H
	DW	04b2dH
	DW	04797H
	DB	09aH
	DB	0a5H
	DB	013H
	DB	025H
	DB	0deH
	DB	022H
	DB	016H
	DB	07H
CONST	ENDS
PUBLIC	??_7ICvUnknown@@6B@				; ICvUnknown::`vftable'
PUBLIC	??0ICvUnknown@@QAE@XZ				; ICvUnknown::ICvUnknown
PUBLIC	??_R4ICvUnknown@@6B@				; ICvUnknown::`RTTI Complete Object Locator'
PUBLIC	??_R0?AVICvUnknown@@@8				; ICvUnknown `RTTI Type Descriptor'
PUBLIC	??_R3ICvUnknown@@8				; ICvUnknown::`RTTI Class Hierarchy Descriptor'
PUBLIC	??_R2ICvUnknown@@8				; ICvUnknown::`RTTI Base Class Array'
PUBLIC	??_R1A@?0A@EA@ICvUnknown@@8			; ICvUnknown::`RTTI Base Class Descriptor at (0,-1,0,64)'
EXTRN	??_7type_info@@6B@:QWORD			; type_info::`vftable'
EXTRN	__purecall:PROC
;	COMDAT ??_R1A@?0A@EA@ICvUnknown@@8
rdata$r	SEGMENT
??_R1A@?0A@EA@ICvUnknown@@8 DD FLAT:??_R0?AVICvUnknown@@@8 ; ICvUnknown::`RTTI Base Class Descriptor at (0,-1,0,64)'
	DD	00H
	DD	00H
	DD	0ffffffffH
	DD	00H
	DD	040H
	DD	FLAT:??_R3ICvUnknown@@8
rdata$r	ENDS
;	COMDAT ??_R2ICvUnknown@@8
rdata$r	SEGMENT
??_R2ICvUnknown@@8 DD FLAT:??_R1A@?0A@EA@ICvUnknown@@8	; ICvUnknown::`RTTI Base Class Array'
rdata$r	ENDS
;	COMDAT ??_R3ICvUnknown@@8
rdata$r	SEGMENT
??_R3ICvUnknown@@8 DD 00H				; ICvUnknown::`RTTI Class Hierarchy Descriptor'
	DD	00H
	DD	01H
	DD	FLAT:??_R2ICvUnknown@@8
rdata$r	ENDS
;	COMDAT ??_R0?AVICvUnknown@@@8
_DATA	SEGMENT
??_R0?AVICvUnknown@@@8 DD FLAT:??_7type_info@@6B@	; ICvUnknown `RTTI Type Descriptor'
	DD	00H
	DB	'.?AVICvUnknown@@', 00H
_DATA	ENDS
;	COMDAT ??_R4ICvUnknown@@6B@
rdata$r	SEGMENT
??_R4ICvUnknown@@6B@ DD 00H				; ICvUnknown::`RTTI Complete Object Locator'
	DD	00H
	DD	00H
	DD	FLAT:??_R0?AVICvUnknown@@@8
	DD	FLAT:??_R3ICvUnknown@@8
rdata$r	ENDS
;	COMDAT ??_7ICvUnknown@@6B@
CONST	SEGMENT
??_7ICvUnknown@@6B@ DD FLAT:??_R4ICvUnknown@@6B@	; ICvUnknown::`vftable'
	DD	FLAT:__purecall
	DD	FLAT:__purecall
; Function compile flags: /Ogtpy
CONST	ENDS
;	COMDAT ??0ICvUnknown@@QAE@XZ
_TEXT	SEGMENT
??0ICvUnknown@@QAE@XZ PROC				; ICvUnknown::ICvUnknown, COMDAT
; _this$ = ecx
	mov	eax, ecx
	mov	DWORD PTR [eax], OFFSET ??_7ICvUnknown@@6B@
	ret	0
??0ICvUnknown@@QAE@XZ ENDP				; ICvUnknown::ICvUnknown
_TEXT	ENDS
PUBLIC	??_7CvDllInterfaceModeInfo@@6B@			; CvDllInterfaceModeInfo::`vftable'
PUBLIC	??1CvDllInterfaceModeInfo@@QAE@XZ		; CvDllInterfaceModeInfo::~CvDllInterfaceModeInfo
PUBLIC	??_R4CvDllInterfaceModeInfo@@6B@		; CvDllInterfaceModeInfo::`RTTI Complete Object Locator'
PUBLIC	??_R0?AVCvDllInterfaceModeInfo@@@8		; CvDllInterfaceModeInfo `RTTI Type Descriptor'
PUBLIC	??_R3CvDllInterfaceModeInfo@@8			; CvDllInterfaceModeInfo::`RTTI Class Hierarchy Descriptor'
PUBLIC	??_R2CvDllInterfaceModeInfo@@8			; CvDllInterfaceModeInfo::`RTTI Base Class Array'
PUBLIC	??_R1A@?0A@EA@CvDllInterfaceModeInfo@@8		; CvDllInterfaceModeInfo::`RTTI Base Class Descriptor at (0,-1,0,64)'
PUBLIC	??_R1A@?0A@EA@ICvInterfaceModeInfo1@@8		; ICvInterfaceModeInfo1::`RTTI Base Class Descriptor at (0,-1,0,64)'
PUBLIC	??_R0?AVICvInterfaceModeInfo1@@@8		; ICvInterfaceModeInfo1 `RTTI Type Descriptor'
PUBLIC	??_R3ICvInterfaceModeInfo1@@8			; ICvInterfaceModeInfo1::`RTTI Class Hierarchy Descriptor'
PUBLIC	??_R2ICvInterfaceModeInfo1@@8			; ICvInterfaceModeInfo1::`RTTI Base Class Array'
PUBLIC	?QueryInterface@CvDllInterfaceModeInfo@@UAGPAXU_GUID@@@Z ; CvDllInterfaceModeInfo::QueryInterface
PUBLIC	?Destroy@CvDllInterfaceModeInfo@@EAGXXZ		; CvDllInterfaceModeInfo::Destroy
PUBLIC	?GetMissionType@CvDllInterfaceModeInfo@@UAGHXZ	; CvDllInterfaceModeInfo::GetMissionType
;	COMDAT ??_R2ICvInterfaceModeInfo1@@8
; File c:\users\enormousapplepie\documents\github\lekmod\lekmod_dll\cvgamecoredll_expansion2\cvdllinterfacemodeinfo.cpp
rdata$r	SEGMENT
??_R2ICvInterfaceModeInfo1@@8 DD FLAT:??_R1A@?0A@EA@ICvInterfaceModeInfo1@@8 ; ICvInterfaceModeInfo1::`RTTI Base Class Array'
	DD	FLAT:??_R1A@?0A@EA@ICvUnknown@@8
rdata$r	ENDS
;	COMDAT ??_R3ICvInterfaceModeInfo1@@8
rdata$r	SEGMENT
??_R3ICvInterfaceModeInfo1@@8 DD 00H			; ICvInterfaceModeInfo1::`RTTI Class Hierarchy Descriptor'
	DD	00H
	DD	02H
	DD	FLAT:??_R2ICvInterfaceModeInfo1@@8
rdata$r	ENDS
;	COMDAT ??_R0?AVICvInterfaceModeInfo1@@@8
_DATA	SEGMENT
??_R0?AVICvInterfaceModeInfo1@@@8 DD FLAT:??_7type_info@@6B@ ; ICvInterfaceModeInfo1 `RTTI Type Descriptor'
	DD	00H
	DB	'.?AVICvInterfaceModeInfo1@@', 00H
_DATA	ENDS
;	COMDAT ??_R1A@?0A@EA@ICvInterfaceModeInfo1@@8
rdata$r	SEGMENT
??_R1A@?0A@EA@ICvInterfaceModeInfo1@@8 DD FLAT:??_R0?AVICvInterfaceModeInfo1@@@8 ; ICvInterfaceModeInfo1::`RTTI Base Class Descriptor at (0,-1,0,64)'
	DD	01H
	DD	00H
	DD	0ffffffffH
	DD	00H
	DD	040H
	DD	FLAT:??_R3ICvInterfaceModeInfo1@@8
rdata$r	ENDS
;	COMDAT ??_R1A@?0A@EA@CvDllInterfaceModeInfo@@8
rdata$r	SEGMENT
??_R1A@?0A@EA@CvDllInterfaceModeInfo@@8 DD FLAT:??_R0?AVCvDllInterfaceModeInfo@@@8 ; CvDllInterfaceModeInfo::`RTTI Base Class Descriptor at (0,-1,0,64)'
	DD	02H
	DD	00H
	DD	0ffffffffH
	DD	00H
	DD	040H
	DD	FLAT:??_R3CvDllInterfaceModeInfo@@8
rdata$r	ENDS
;	COMDAT ??_R2CvDllInterfaceModeInfo@@8
rdata$r	SEGMENT
??_R2CvDllInterfaceModeInfo@@8 DD FLAT:??_R1A@?0A@EA@CvDllInterfaceModeInfo@@8 ; CvDllInterfaceModeInfo::`RTTI Base Class Array'
	DD	FLAT:??_R1A@?0A@EA@ICvInterfaceModeInfo1@@8
	DD	FLAT:??_R1A@?0A@EA@ICvUnknown@@8
rdata$r	ENDS
;	COMDAT ??_R3CvDllInterfaceModeInfo@@8
rdata$r	SEGMENT
??_R3CvDllInterfaceModeInfo@@8 DD 00H			; CvDllInterfaceModeInfo::`RTTI Class Hierarchy Descriptor'
	DD	00H
	DD	03H
	DD	FLAT:??_R2CvDllInterfaceModeInfo@@8
rdata$r	ENDS
;	COMDAT ??_R0?AVCvDllInterfaceModeInfo@@@8
_DATA	SEGMENT
??_R0?AVCvDllInterfaceModeInfo@@@8 DD FLAT:??_7type_info@@6B@ ; CvDllInterfaceModeInfo `RTTI Type Descriptor'
	DD	00H
	DB	'.?AVCvDllInterfaceModeInfo@@', 00H
_DATA	ENDS
;	COMDAT ??_R4CvDllInterfaceModeInfo@@6B@
rdata$r	SEGMENT
??_R4CvDllInterfaceModeInfo@@6B@ DD 00H			; CvDllInterfaceModeInfo::`RTTI Complete Object Locator'
	DD	00H
	DD	00H
	DD	FLAT:??_R0?AVCvDllInterfaceModeInfo@@@8
	DD	FLAT:??_R3CvDllInterfaceModeInfo@@8
rdata$r	ENDS
;	COMDAT ??_7CvDllInterfaceModeInfo@@6B@
CONST	SEGMENT
??_7CvDllInterfaceModeInfo@@6B@ DD FLAT:??_R4CvDllInterfaceModeInfo@@6B@ ; CvDllInterfaceModeInfo::`vftable'
	DD	FLAT:?QueryInterface@CvDllInterfaceModeInfo@@UAGPAXU_GUID@@@Z
	DD	FLAT:?Destroy@CvDllInterfaceModeInfo@@EAGXXZ
	DD	FLAT:?GetMissionType@CvDllInterfaceModeInfo@@UAGHXZ
; Function compile flags: /Ogtpy
CONST	ENDS
;	COMDAT ??1CvDllInterfaceModeInfo@@QAE@XZ
_TEXT	SEGMENT
??1CvDllInterfaceModeInfo@@QAE@XZ PROC			; CvDllInterfaceModeInfo::~CvDllInterfaceModeInfo, COMDAT
; _this$ = ecx

; 24   : {

	mov	DWORD PTR [ecx], OFFSET ??_7CvDllInterfaceModeInfo@@6B@

; 25   : }

	ret	0
??1CvDllInterfaceModeInfo@@QAE@XZ ENDP			; CvDllInterfaceModeInfo::~CvDllInterfaceModeInfo
_TEXT	ENDS
PUBLIC	?IncrementReference@CvDllInterfaceModeInfo@@QAEIXZ ; CvDllInterfaceModeInfo::IncrementReference
; Function compile flags: /Ogtpy
;	COMDAT ?IncrementReference@CvDllInterfaceModeInfo@@QAEIXZ
_TEXT	SEGMENT
?IncrementReference@CvDllInterfaceModeInfo@@QAEIXZ PROC	; CvDllInterfaceModeInfo::IncrementReference, COMDAT
; _this$ = ecx

; 41   : 	++m_uiRefCount;

	inc	DWORD PTR [ecx+4]

; 42   : 	return m_uiRefCount;

	mov	eax, DWORD PTR [ecx+4]

; 43   : }

	ret	0
?IncrementReference@CvDllInterfaceModeInfo@@QAEIXZ ENDP	; CvDllInterfaceModeInfo::IncrementReference
_TEXT	ENDS
PUBLIC	?GetReferenceCount@CvDllInterfaceModeInfo@@QAEIXZ ; CvDllInterfaceModeInfo::GetReferenceCount
; Function compile flags: /Ogtpy
;	COMDAT ?GetReferenceCount@CvDllInterfaceModeInfo@@QAEIXZ
_TEXT	SEGMENT
?GetReferenceCount@CvDllInterfaceModeInfo@@QAEIXZ PROC	; CvDllInterfaceModeInfo::GetReferenceCount, COMDAT
; _this$ = ecx

; 61   : 	return m_uiRefCount;

	mov	eax, DWORD PTR [ecx+4]

; 62   : }

	ret	0
?GetReferenceCount@CvDllInterfaceModeInfo@@QAEIXZ ENDP	; CvDllInterfaceModeInfo::GetReferenceCount
_TEXT	ENDS
PUBLIC	??3CvDllInterfaceModeInfo@@SAXPAX@Z		; CvDllInterfaceModeInfo::operator delete
EXTRN	?Free@CvDllGameContext@@SAXPAX@Z:PROC		; CvDllGameContext::Free
; Function compile flags: /Ogtpy
;	COMDAT ??3CvDllInterfaceModeInfo@@SAXPAX@Z
_TEXT	SEGMENT
_p$ = 8							; size = 4
??3CvDllInterfaceModeInfo@@SAXPAX@Z PROC		; CvDllInterfaceModeInfo::operator delete, COMDAT

; 71   : 	CvDllGameContext::Free(p);

	jmp	?Free@CvDllGameContext@@SAXPAX@Z	; CvDllGameContext::Free
??3CvDllInterfaceModeInfo@@SAXPAX@Z ENDP		; CvDllInterfaceModeInfo::operator delete
_TEXT	ENDS
PUBLIC	??2CvDllInterfaceModeInfo@@SAPAXI@Z		; CvDllInterfaceModeInfo::operator new
EXTRN	?Allocate@CvDllGameContext@@SAPAXI@Z:PROC	; CvDllGameContext::Allocate
; Function compile flags: /Ogtpy
;	COMDAT ??2CvDllInterfaceModeInfo@@SAPAXI@Z
_TEXT	SEGMENT
_bytes$ = 8						; size = 4
??2CvDllInterfaceModeInfo@@SAPAXI@Z PROC		; CvDllInterfaceModeInfo::operator new, COMDAT

; 76   : 	return CvDllGameContext::Allocate(bytes);

	jmp	?Allocate@CvDllGameContext@@SAPAXI@Z	; CvDllGameContext::Allocate
??2CvDllInterfaceModeInfo@@SAPAXI@Z ENDP		; CvDllInterfaceModeInfo::operator new
_TEXT	ENDS
PUBLIC	?GetInstance@CvDllInterfaceModeInfo@@QAEPAVCvInterfaceModeInfo@@XZ ; CvDllInterfaceModeInfo::GetInstance
; Function compile flags: /Ogtpy
;	COMDAT ?GetInstance@CvDllInterfaceModeInfo@@QAEPAVCvInterfaceModeInfo@@XZ
_TEXT	SEGMENT
?GetInstance@CvDllInterfaceModeInfo@@QAEPAVCvInterfaceModeInfo@@XZ PROC ; CvDllInterfaceModeInfo::GetInstance, COMDAT
; _this$ = ecx

; 81   : 	return m_pInterfaceModeInfo;

	mov	eax, DWORD PTR [ecx+8]

; 82   : }

	ret	0
?GetInstance@CvDllInterfaceModeInfo@@QAEPAVCvInterfaceModeInfo@@XZ ENDP ; CvDllInterfaceModeInfo::GetInstance
_TEXT	ENDS
EXTRN	?getMissionType@CvInterfaceModeInfo@@QBEHXZ:PROC ; CvInterfaceModeInfo::getMissionType
; Function compile flags: /Ogtpy
;	COMDAT ?GetMissionType@CvDllInterfaceModeInfo@@UAGHXZ
_TEXT	SEGMENT
_this$ = 8						; size = 4
?GetMissionType@CvDllInterfaceModeInfo@@UAGHXZ PROC	; CvDllInterfaceModeInfo::GetMissionType, COMDAT

; 86   : 	return m_pInterfaceModeInfo->getMissionType();

	mov	eax, DWORD PTR _this$[esp-4]
	mov	ecx, DWORD PTR [eax+8]
	call	?getMissionType@CvInterfaceModeInfo@@QBEHXZ ; CvInterfaceModeInfo::getMissionType

; 87   : }

	ret	4
?GetMissionType@CvDllInterfaceModeInfo@@UAGHXZ ENDP	; CvDllInterfaceModeInfo::GetMissionType
_TEXT	ENDS
PUBLIC	_IsEqualGUID
; Function compile flags: /Ogtpy
; File c:\program files\microsoft sdks\windows\v6.0a\include\guiddef.h
;	COMDAT _IsEqualGUID
_TEXT	SEGMENT
_rguid1$ = 8						; size = 4
_rguid2$ = 12						; size = 4
_IsEqualGUID PROC					; COMDAT

; 161  :     return !memcmp(&rguid1, &rguid2, sizeof(GUID));

	mov	ecx, DWORD PTR _rguid2$[esp-4]
	mov	edx, DWORD PTR _rguid1$[esp-4]
	mov	eax, 16					; 00000010H
	push	esi
	npad	2
$LL4@IsEqualGUI:
	mov	esi, DWORD PTR [edx]
	cmp	esi, DWORD PTR [ecx]
	jne	SHORT $LN5@IsEqualGUI
	sub	eax, 4
	add	ecx, 4
	add	edx, 4
	cmp	eax, 4
	jae	SHORT $LL4@IsEqualGUI
	xor	eax, eax
	xor	edx, edx
	test	eax, eax
	sete	dl
	pop	esi
	mov	eax, edx

; 162  : }

	ret	0
$LN5@IsEqualGUI:

; 161  :     return !memcmp(&rguid1, &rguid2, sizeof(GUID));

	movzx	eax, BYTE PTR [edx]
	movzx	esi, BYTE PTR [ecx]
	sub	eax, esi
	jne	SHORT $LN7@IsEqualGUI
	movzx	eax, BYTE PTR [edx+1]
	movzx	esi, BYTE PTR [ecx+1]
	sub	eax, esi
	jne	SHORT $LN7@IsEqualGUI
	movzx	eax, BYTE PTR [edx+2]
	movzx	esi, BYTE PTR [ecx+2]
	sub	eax, esi
	jne	SHORT $LN7@IsEqualGUI
	movzx	eax, BYTE PTR [edx+3]
	movzx	ecx, BYTE PTR [ecx+3]
	sub	eax, ecx
$LN7@IsEqualGUI:
	sar	eax, 31					; 0000001fH
	or	eax, 1
	xor	edx, edx
	test	eax, eax
	sete	dl
	pop	esi
	mov	eax, edx

; 162  : }

	ret	0
_IsEqualGUID ENDP
_TEXT	ENDS
PUBLIC	_==
; Function compile flags: /Ogtpy
;	COMDAT _==
_TEXT	SEGMENT
_guidOne$ = 8						; size = 4
_guidOther$ = 12					; size = 4
_==	PROC						; COMDAT

; 194  :     return IsEqualGUID(guidOne,guidOther);

	jmp	_IsEqualGUID
_==	ENDP
_TEXT	ENDS
PUBLIC	?GetInterfaceId@ICvUnknown@@SG?AU_GUID@@XZ	; ICvUnknown::GetInterfaceId
; Function compile flags: /Ogtpy
; File c:\users\enormousapplepie\documents\github\lekmod\lekmod_dll\cvgamecoredllutil\include\cvdllinterfaces.h
;	COMDAT ?GetInterfaceId@ICvUnknown@@SG?AU_GUID@@XZ
_TEXT	SEGMENT
$T218989 = 8						; size = 4
?GetInterfaceId@ICvUnknown@@SG?AU_GUID@@XZ PROC		; ICvUnknown::GetInterfaceId, COMDAT

; 306  : 	static GUID DLLCALL GetInterfaceId(){ return guidICvUnknown; }

	mov	eax, DWORD PTR $T218989[esp-4]
	mov	ecx, DWORD PTR _guidICvUnknown
	mov	edx, DWORD PTR _guidICvUnknown+4
	mov	DWORD PTR [eax], ecx
	mov	ecx, DWORD PTR _guidICvUnknown+8
	mov	DWORD PTR [eax+4], edx
	mov	edx, DWORD PTR _guidICvUnknown+12
	mov	DWORD PTR [eax+8], ecx
	mov	DWORD PTR [eax+12], edx
	ret	4
?GetInterfaceId@ICvUnknown@@SG?AU_GUID@@XZ ENDP		; ICvUnknown::GetInterfaceId
_TEXT	ENDS
PUBLIC	?GetInterfaceId@ICvUnit1@@SG?AU_GUID@@XZ	; ICvUnit1::GetInterfaceId
; Function compile flags: /Ogtpy
;	COMDAT ?GetInterfaceId@ICvUnit1@@SG?AU_GUID@@XZ
_TEXT	SEGMENT
$T218993 = 8						; size = 4
?GetInterfaceId@ICvUnit1@@SG?AU_GUID@@XZ PROC		; ICvUnit1::GetInterfaceId, COMDAT

; 1711 : 	static GUID DLLCALL GetInterfaceId() { return guidICvUnit1; }

	mov	eax, DWORD PTR $T218993[esp-4]
	mov	ecx, DWORD PTR _guidICvUnit1
	mov	edx, DWORD PTR _guidICvUnit1+4
	mov	DWORD PTR [eax], ecx
	mov	ecx, DWORD PTR _guidICvUnit1+8
	mov	DWORD PTR [eax+4], edx
	mov	edx, DWORD PTR _guidICvUnit1+12
	mov	DWORD PTR [eax+8], ecx
	mov	DWORD PTR [eax+12], edx
	ret	4
?GetInterfaceId@ICvUnit1@@SG?AU_GUID@@XZ ENDP		; ICvUnit1::GetInterfaceId
_TEXT	ENDS
PUBLIC	??_7ICvInterfaceModeInfo1@@6B@			; ICvInterfaceModeInfo1::`vftable'
PUBLIC	??0ICvInterfaceModeInfo1@@QAE@XZ		; ICvInterfaceModeInfo1::ICvInterfaceModeInfo1
PUBLIC	??_R4ICvInterfaceModeInfo1@@6B@			; ICvInterfaceModeInfo1::`RTTI Complete Object Locator'
;	COMDAT ??_R4ICvInterfaceModeInfo1@@6B@
rdata$r	SEGMENT
??_R4ICvInterfaceModeInfo1@@6B@ DD 00H			; ICvInterfaceModeInfo1::`RTTI Complete Object Locator'
	DD	00H
	DD	00H
	DD	FLAT:??_R0?AVICvInterfaceModeInfo1@@@8
	DD	FLAT:??_R3ICvInterfaceModeInfo1@@8
rdata$r	ENDS
;	COMDAT ??_7ICvInterfaceModeInfo1@@6B@
CONST	SEGMENT
??_7ICvInterfaceModeInfo1@@6B@ DD FLAT:??_R4ICvInterfaceModeInfo1@@6B@ ; ICvInterfaceModeInfo1::`vftable'
	DD	FLAT:__purecall
	DD	FLAT:__purecall
	DD	FLAT:__purecall
; Function compile flags: /Ogtpy
CONST	ENDS
;	COMDAT ??0ICvInterfaceModeInfo1@@QAE@XZ
_TEXT	SEGMENT
??0ICvInterfaceModeInfo1@@QAE@XZ PROC			; ICvInterfaceModeInfo1::ICvInterfaceModeInfo1, COMDAT
; _this$ = ecx
	mov	eax, ecx
	mov	DWORD PTR [eax], OFFSET ??_7ICvInterfaceModeInfo1@@6B@
	ret	0
??0ICvInterfaceModeInfo1@@QAE@XZ ENDP			; ICvInterfaceModeInfo1::ICvInterfaceModeInfo1
; Function compile flags: /Ogtpy
; File c:\users\enormousapplepie\documents\github\lekmod\lekmod_dll\cvgamecoredll_expansion2\cvdllinterfacemodeinfo.cpp
_TEXT	ENDS
;	COMDAT ?QueryInterface@CvDllInterfaceModeInfo@@UAGPAXU_GUID@@@Z
_TEXT	SEGMENT
$T219005 = -16						; size = 16
$T219003 = -16						; size = 16
_this$ = 8						; size = 4
_guidInterface$ = 12					; size = 16
?QueryInterface@CvDllInterfaceModeInfo@@UAGPAXU_GUID@@@Z PROC ; CvDllInterfaceModeInfo::QueryInterface, COMDAT

; 28   : {

	sub	esp, 16					; 00000010H

; 29   : 	if(guidInterface == ICvUnknown::GetInterfaceId() ||
; 30   : 	        guidInterface == ICvUnit1::GetInterfaceId())

	mov	ecx, DWORD PTR _guidICvUnknown+4
	mov	edx, DWORD PTR _guidICvUnknown+8
	mov	eax, DWORD PTR _guidICvUnknown
	mov	DWORD PTR $T219003[esp+20], ecx
	lea	ecx, DWORD PTR $T219003[esp+16]
	mov	DWORD PTR $T219003[esp+24], edx
	mov	DWORD PTR $T219003[esp+16], eax
	mov	eax, DWORD PTR _guidICvUnknown+12
	push	ecx
	lea	edx, DWORD PTR _guidInterface$[esp+16]
	push	edx
	mov	DWORD PTR $T219003[esp+36], eax
	call	_IsEqualGUID
	add	esp, 8
	test	eax, eax
	jne	SHORT $LN1@QueryInter
	mov	ecx, DWORD PTR _guidICvUnit1+4
	mov	edx, DWORD PTR _guidICvUnit1+8
	mov	eax, DWORD PTR _guidICvUnit1
	mov	DWORD PTR $T219005[esp+20], ecx
	lea	ecx, DWORD PTR $T219005[esp+16]
	mov	DWORD PTR $T219005[esp+24], edx
	mov	DWORD PTR $T219005[esp+16], eax
	mov	eax, DWORD PTR _guidICvUnit1+12
	push	ecx
	lea	edx, DWORD PTR _guidInterface$[esp+16]
	push	edx
	mov	DWORD PTR $T219005[esp+36], eax
	call	_IsEqualGUID
	add	esp, 8
	test	eax, eax
	jne	SHORT $LN1@QueryInter

; 33   : 		return this;
; 34   : 	}
; 35   : 
; 36   : 	return NULL;
; 37   : }

	add	esp, 16					; 00000010H
	ret	20					; 00000014H
$LN1@QueryInter:

; 31   : 	{
; 32   : 		IncrementReference();

	mov	eax, DWORD PTR _this$[esp+12]
	inc	DWORD PTR [eax+4]

; 33   : 		return this;
; 34   : 	}
; 35   : 
; 36   : 	return NULL;
; 37   : }

	add	esp, 16					; 00000010H
	ret	20					; 00000014H
?QueryInterface@CvDllInterfaceModeInfo@@UAGPAXU_GUID@@@Z ENDP ; CvDllInterfaceModeInfo::QueryInterface
_TEXT	ENDS
PUBLIC	??_GCvDllInterfaceModeInfo@@QAEPAXI@Z		; CvDllInterfaceModeInfo::`scalar deleting destructor'
; Function compile flags: /Ogtpy
;	COMDAT ??_GCvDllInterfaceModeInfo@@QAEPAXI@Z
_TEXT	SEGMENT
___flags$ = 8						; size = 4
??_GCvDllInterfaceModeInfo@@QAEPAXI@Z PROC		; CvDllInterfaceModeInfo::`scalar deleting destructor', COMDAT
; _this$ = ecx
	test	BYTE PTR ___flags$[esp-4], 1
	push	esi
	mov	esi, ecx
	mov	DWORD PTR [esi], OFFSET ??_7CvDllInterfaceModeInfo@@6B@
	je	SHORT $LN8@scalar
	push	esi
	call	?Free@CvDllGameContext@@SAXPAX@Z	; CvDllGameContext::Free
	add	esp, 4
$LN8@scalar:
	mov	eax, esi
	pop	esi
	ret	4
??_GCvDllInterfaceModeInfo@@QAEPAXI@Z ENDP		; CvDllInterfaceModeInfo::`scalar deleting destructor'
_TEXT	ENDS
PUBLIC	??0CvDllInterfaceModeInfo@@QAE@PAVCvInterfaceModeInfo@@@Z ; CvDllInterfaceModeInfo::CvDllInterfaceModeInfo
; Function compile flags: /Ogtpy
;	COMDAT ??0CvDllInterfaceModeInfo@@QAE@PAVCvInterfaceModeInfo@@@Z
_TEXT	SEGMENT
_pInterfaceModeInfo$ = 8				; size = 4
??0CvDllInterfaceModeInfo@@QAE@PAVCvInterfaceModeInfo@@@Z PROC ; CvDllInterfaceModeInfo::CvDllInterfaceModeInfo, COMDAT
; _this$ = ecx

; 19   : {

	mov	eax, ecx
	mov	ecx, DWORD PTR _pInterfaceModeInfo$[esp-4]
	mov	DWORD PTR [eax], OFFSET ??_7CvDllInterfaceModeInfo@@6B@
	mov	DWORD PTR [eax+4], 1
	mov	DWORD PTR [eax+8], ecx

; 20   : 	FAssertMsg(pInterfaceModeInfo != NULL, "SHOULD NOT HAPPEN");
; 21   : }

	ret	4
??0CvDllInterfaceModeInfo@@QAE@PAVCvInterfaceModeInfo@@@Z ENDP ; CvDllInterfaceModeInfo::CvDllInterfaceModeInfo
_TEXT	ENDS
PUBLIC	?DecrementReference@CvDllInterfaceModeInfo@@QAEIXZ ; CvDllInterfaceModeInfo::DecrementReference
; Function compile flags: /Ogtpy
;	COMDAT ?DecrementReference@CvDllInterfaceModeInfo@@QAEIXZ
_TEXT	SEGMENT
?DecrementReference@CvDllInterfaceModeInfo@@QAEIXZ PROC	; CvDllInterfaceModeInfo::DecrementReference, COMDAT
; _this$ = ecx

; 47   : 	if(m_uiRefCount == 1)

	mov	eax, DWORD PTR [ecx+4]
	cmp	eax, 1
	jne	SHORT $LN2@DecrementR

; 48   : 	{
; 49   : 		delete this;

	push	ecx
	mov	DWORD PTR [ecx], OFFSET ??_7CvDllInterfaceModeInfo@@6B@
	call	?Free@CvDllGameContext@@SAXPAX@Z	; CvDllGameContext::Free
	add	esp, 4

; 50   : 		return 0;

	xor	eax, eax

; 55   : 		return m_uiRefCount;
; 56   : 	}
; 57   : }

	ret	0
$LN2@DecrementR:

; 51   : 	}
; 52   : 	else
; 53   : 	{
; 54   : 		--m_uiRefCount;

	dec	eax
	mov	DWORD PTR [ecx+4], eax

; 55   : 		return m_uiRefCount;
; 56   : 	}
; 57   : }

	ret	0
?DecrementReference@CvDllInterfaceModeInfo@@QAEIXZ ENDP	; CvDllInterfaceModeInfo::DecrementReference
; Function compile flags: /Ogtpy
_TEXT	ENDS
;	COMDAT ?Destroy@CvDllInterfaceModeInfo@@EAGXXZ
_TEXT	SEGMENT
_this$ = 8						; size = 4
?Destroy@CvDllInterfaceModeInfo@@EAGXXZ PROC		; CvDllInterfaceModeInfo::Destroy, COMDAT

; 66   : 	DecrementReference();

	mov	eax, DWORD PTR _this$[esp-4]
	mov	ecx, DWORD PTR [eax+4]
	cmp	ecx, 1
	jne	SHORT $LN4@Destroy
	push	eax
	mov	DWORD PTR [eax], OFFSET ??_7CvDllInterfaceModeInfo@@6B@
	call	?Free@CvDllGameContext@@SAXPAX@Z	; CvDllGameContext::Free
	add	esp, 4

; 67   : }

	ret	4

; 66   : 	DecrementReference();

$LN4@Destroy:
	dec	ecx
	mov	DWORD PTR [eax+4], ecx

; 67   : }

	ret	4
?Destroy@CvDllInterfaceModeInfo@@EAGXXZ ENDP		; CvDllInterfaceModeInfo::Destroy
_TEXT	ENDS
END
