; Listing generated by Microsoft (R) Optimizing Compiler Version 15.00.30729.01 

	TITLE	c:\Users\EnormousApplePie\Documents\GitHub\Lekmod\LEKMOD_DLL\CvGameCoreDLL_Expansion2\CvDllMissionInfo.cpp
	.686P
	.XMM
	include listing.inc
	.model	flat

INCLUDELIB MSVCRT
INCLUDELIB OLDNAMES

_DATA	SEGMENT
_CIV5_XP2_DLL_VERSION DD FLAT:$SG217148
_DATA	ENDS
CONST	SEGMENT
$SG217148 DB	'1.0.0', 00H
	ORG $+2
_guidICvUnknown DD 0d89ba82fH
	DW	09fa3H
	DW	04696H
	DB	0b3H
	DB	0f4H
	DB	052H
	DB	0bdH
	DB	0b1H
	DB	01H
	DB	0cfH
	DB	0b2H
_guidICvMissionInfo1 DD 0f3328352H
	DW	0ccfaH
	DW	04d41H
	DB	085H
	DB	03fH
	DB	0d9H
	DB	0e3H
	DB	074H
	DB	0d0H
	DB	060H
	DB	013H
CONST	ENDS
PUBLIC	??_7ICvUnknown@@6B@				; ICvUnknown::`vftable'
PUBLIC	??0ICvUnknown@@QAE@XZ				; ICvUnknown::ICvUnknown
PUBLIC	??_R4ICvUnknown@@6B@				; ICvUnknown::`RTTI Complete Object Locator'
PUBLIC	??_R0?AVICvUnknown@@@8				; ICvUnknown `RTTI Type Descriptor'
PUBLIC	??_R3ICvUnknown@@8				; ICvUnknown::`RTTI Class Hierarchy Descriptor'
PUBLIC	??_R2ICvUnknown@@8				; ICvUnknown::`RTTI Base Class Array'
PUBLIC	??_R1A@?0A@EA@ICvUnknown@@8			; ICvUnknown::`RTTI Base Class Descriptor at (0,-1,0,64)'
EXTRN	??_7type_info@@6B@:QWORD			; type_info::`vftable'
EXTRN	__purecall:PROC
;	COMDAT ??_R1A@?0A@EA@ICvUnknown@@8
rdata$r	SEGMENT
??_R1A@?0A@EA@ICvUnknown@@8 DD FLAT:??_R0?AVICvUnknown@@@8 ; ICvUnknown::`RTTI Base Class Descriptor at (0,-1,0,64)'
	DD	00H
	DD	00H
	DD	0ffffffffH
	DD	00H
	DD	040H
	DD	FLAT:??_R3ICvUnknown@@8
rdata$r	ENDS
;	COMDAT ??_R2ICvUnknown@@8
rdata$r	SEGMENT
??_R2ICvUnknown@@8 DD FLAT:??_R1A@?0A@EA@ICvUnknown@@8	; ICvUnknown::`RTTI Base Class Array'
rdata$r	ENDS
;	COMDAT ??_R3ICvUnknown@@8
rdata$r	SEGMENT
??_R3ICvUnknown@@8 DD 00H				; ICvUnknown::`RTTI Class Hierarchy Descriptor'
	DD	00H
	DD	01H
	DD	FLAT:??_R2ICvUnknown@@8
rdata$r	ENDS
;	COMDAT ??_R0?AVICvUnknown@@@8
_DATA	SEGMENT
??_R0?AVICvUnknown@@@8 DD FLAT:??_7type_info@@6B@	; ICvUnknown `RTTI Type Descriptor'
	DD	00H
	DB	'.?AVICvUnknown@@', 00H
_DATA	ENDS
;	COMDAT ??_R4ICvUnknown@@6B@
rdata$r	SEGMENT
??_R4ICvUnknown@@6B@ DD 00H				; ICvUnknown::`RTTI Complete Object Locator'
	DD	00H
	DD	00H
	DD	FLAT:??_R0?AVICvUnknown@@@8
	DD	FLAT:??_R3ICvUnknown@@8
rdata$r	ENDS
;	COMDAT ??_7ICvUnknown@@6B@
CONST	SEGMENT
??_7ICvUnknown@@6B@ DD FLAT:??_R4ICvUnknown@@6B@	; ICvUnknown::`vftable'
	DD	FLAT:__purecall
	DD	FLAT:__purecall
; Function compile flags: /Ogtpy
CONST	ENDS
;	COMDAT ??0ICvUnknown@@QAE@XZ
_TEXT	SEGMENT
??0ICvUnknown@@QAE@XZ PROC				; ICvUnknown::ICvUnknown, COMDAT
; _this$ = ecx
	mov	eax, ecx
	mov	DWORD PTR [eax], OFFSET ??_7ICvUnknown@@6B@
	ret	0
??0ICvUnknown@@QAE@XZ ENDP				; ICvUnknown::ICvUnknown
_TEXT	ENDS
PUBLIC	??_7CvDllMissionInfo@@6B@			; CvDllMissionInfo::`vftable'
PUBLIC	??1CvDllMissionInfo@@QAE@XZ			; CvDllMissionInfo::~CvDllMissionInfo
PUBLIC	??_R4CvDllMissionInfo@@6B@			; CvDllMissionInfo::`RTTI Complete Object Locator'
PUBLIC	??_R0?AVCvDllMissionInfo@@@8			; CvDllMissionInfo `RTTI Type Descriptor'
PUBLIC	??_R3CvDllMissionInfo@@8			; CvDllMissionInfo::`RTTI Class Hierarchy Descriptor'
PUBLIC	??_R2CvDllMissionInfo@@8			; CvDllMissionInfo::`RTTI Base Class Array'
PUBLIC	??_R1A@?0A@EA@CvDllMissionInfo@@8		; CvDllMissionInfo::`RTTI Base Class Descriptor at (0,-1,0,64)'
PUBLIC	??_R1A@?0A@EA@ICvMissionInfo1@@8		; ICvMissionInfo1::`RTTI Base Class Descriptor at (0,-1,0,64)'
PUBLIC	??_R0?AVICvMissionInfo1@@@8			; ICvMissionInfo1 `RTTI Type Descriptor'
PUBLIC	??_R3ICvMissionInfo1@@8				; ICvMissionInfo1::`RTTI Class Hierarchy Descriptor'
PUBLIC	??_R2ICvMissionInfo1@@8				; ICvMissionInfo1::`RTTI Base Class Array'
PUBLIC	?QueryInterface@CvDllMissionInfo@@UAGPAXU_GUID@@@Z ; CvDllMissionInfo::QueryInterface
PUBLIC	?Destroy@CvDllMissionInfo@@EAGXXZ		; CvDllMissionInfo::Destroy
PUBLIC	?GetType@CvDllMissionInfo@@UAGPBDXZ		; CvDllMissionInfo::GetType
PUBLIC	?GetDescription@CvDllMissionInfo@@UAGPBDXZ	; CvDllMissionInfo::GetDescription
;	COMDAT ??_R2ICvMissionInfo1@@8
; File c:\users\enormousapplepie\documents\github\lekmod\lekmod_dll\cvgamecoredll_expansion2\cvdllmissioninfo.cpp
rdata$r	SEGMENT
??_R2ICvMissionInfo1@@8 DD FLAT:??_R1A@?0A@EA@ICvMissionInfo1@@8 ; ICvMissionInfo1::`RTTI Base Class Array'
	DD	FLAT:??_R1A@?0A@EA@ICvUnknown@@8
rdata$r	ENDS
;	COMDAT ??_R3ICvMissionInfo1@@8
rdata$r	SEGMENT
??_R3ICvMissionInfo1@@8 DD 00H				; ICvMissionInfo1::`RTTI Class Hierarchy Descriptor'
	DD	00H
	DD	02H
	DD	FLAT:??_R2ICvMissionInfo1@@8
rdata$r	ENDS
;	COMDAT ??_R0?AVICvMissionInfo1@@@8
_DATA	SEGMENT
??_R0?AVICvMissionInfo1@@@8 DD FLAT:??_7type_info@@6B@	; ICvMissionInfo1 `RTTI Type Descriptor'
	DD	00H
	DB	'.?AVICvMissionInfo1@@', 00H
_DATA	ENDS
;	COMDAT ??_R1A@?0A@EA@ICvMissionInfo1@@8
rdata$r	SEGMENT
??_R1A@?0A@EA@ICvMissionInfo1@@8 DD FLAT:??_R0?AVICvMissionInfo1@@@8 ; ICvMissionInfo1::`RTTI Base Class Descriptor at (0,-1,0,64)'
	DD	01H
	DD	00H
	DD	0ffffffffH
	DD	00H
	DD	040H
	DD	FLAT:??_R3ICvMissionInfo1@@8
rdata$r	ENDS
;	COMDAT ??_R1A@?0A@EA@CvDllMissionInfo@@8
rdata$r	SEGMENT
??_R1A@?0A@EA@CvDllMissionInfo@@8 DD FLAT:??_R0?AVCvDllMissionInfo@@@8 ; CvDllMissionInfo::`RTTI Base Class Descriptor at (0,-1,0,64)'
	DD	02H
	DD	00H
	DD	0ffffffffH
	DD	00H
	DD	040H
	DD	FLAT:??_R3CvDllMissionInfo@@8
rdata$r	ENDS
;	COMDAT ??_R2CvDllMissionInfo@@8
rdata$r	SEGMENT
??_R2CvDllMissionInfo@@8 DD FLAT:??_R1A@?0A@EA@CvDllMissionInfo@@8 ; CvDllMissionInfo::`RTTI Base Class Array'
	DD	FLAT:??_R1A@?0A@EA@ICvMissionInfo1@@8
	DD	FLAT:??_R1A@?0A@EA@ICvUnknown@@8
rdata$r	ENDS
;	COMDAT ??_R3CvDllMissionInfo@@8
rdata$r	SEGMENT
??_R3CvDllMissionInfo@@8 DD 00H				; CvDllMissionInfo::`RTTI Class Hierarchy Descriptor'
	DD	00H
	DD	03H
	DD	FLAT:??_R2CvDllMissionInfo@@8
rdata$r	ENDS
;	COMDAT ??_R0?AVCvDllMissionInfo@@@8
_DATA	SEGMENT
??_R0?AVCvDllMissionInfo@@@8 DD FLAT:??_7type_info@@6B@	; CvDllMissionInfo `RTTI Type Descriptor'
	DD	00H
	DB	'.?AVCvDllMissionInfo@@', 00H
_DATA	ENDS
;	COMDAT ??_R4CvDllMissionInfo@@6B@
rdata$r	SEGMENT
??_R4CvDllMissionInfo@@6B@ DD 00H			; CvDllMissionInfo::`RTTI Complete Object Locator'
	DD	00H
	DD	00H
	DD	FLAT:??_R0?AVCvDllMissionInfo@@@8
	DD	FLAT:??_R3CvDllMissionInfo@@8
rdata$r	ENDS
;	COMDAT ??_7CvDllMissionInfo@@6B@
CONST	SEGMENT
??_7CvDllMissionInfo@@6B@ DD FLAT:??_R4CvDllMissionInfo@@6B@ ; CvDllMissionInfo::`vftable'
	DD	FLAT:?QueryInterface@CvDllMissionInfo@@UAGPAXU_GUID@@@Z
	DD	FLAT:?Destroy@CvDllMissionInfo@@EAGXXZ
	DD	FLAT:?GetType@CvDllMissionInfo@@UAGPBDXZ
	DD	FLAT:?GetDescription@CvDllMissionInfo@@UAGPBDXZ
; Function compile flags: /Ogtpy
CONST	ENDS
;	COMDAT ??1CvDllMissionInfo@@QAE@XZ
_TEXT	SEGMENT
??1CvDllMissionInfo@@QAE@XZ PROC			; CvDllMissionInfo::~CvDllMissionInfo, COMDAT
; _this$ = ecx

; 24   : {

	mov	DWORD PTR [ecx], OFFSET ??_7CvDllMissionInfo@@6B@

; 25   : }

	ret	0
??1CvDllMissionInfo@@QAE@XZ ENDP			; CvDllMissionInfo::~CvDllMissionInfo
_TEXT	ENDS
PUBLIC	?IncrementReference@CvDllMissionInfo@@QAEIXZ	; CvDllMissionInfo::IncrementReference
; Function compile flags: /Ogtpy
;	COMDAT ?IncrementReference@CvDllMissionInfo@@QAEIXZ
_TEXT	SEGMENT
?IncrementReference@CvDllMissionInfo@@QAEIXZ PROC	; CvDllMissionInfo::IncrementReference, COMDAT
; _this$ = ecx

; 41   : 	++m_uiRefCount;

	inc	DWORD PTR [ecx+4]

; 42   : 	return m_uiRefCount;

	mov	eax, DWORD PTR [ecx+4]

; 43   : }

	ret	0
?IncrementReference@CvDllMissionInfo@@QAEIXZ ENDP	; CvDllMissionInfo::IncrementReference
_TEXT	ENDS
PUBLIC	?GetReferenceCount@CvDllMissionInfo@@QAEIXZ	; CvDllMissionInfo::GetReferenceCount
; Function compile flags: /Ogtpy
;	COMDAT ?GetReferenceCount@CvDllMissionInfo@@QAEIXZ
_TEXT	SEGMENT
?GetReferenceCount@CvDllMissionInfo@@QAEIXZ PROC	; CvDllMissionInfo::GetReferenceCount, COMDAT
; _this$ = ecx

; 61   : 	return m_uiRefCount;

	mov	eax, DWORD PTR [ecx+4]

; 62   : }

	ret	0
?GetReferenceCount@CvDllMissionInfo@@QAEIXZ ENDP	; CvDllMissionInfo::GetReferenceCount
_TEXT	ENDS
PUBLIC	??3CvDllMissionInfo@@SAXPAX@Z			; CvDllMissionInfo::operator delete
EXTRN	?Free@CvDllGameContext@@SAXPAX@Z:PROC		; CvDllGameContext::Free
; Function compile flags: /Ogtpy
;	COMDAT ??3CvDllMissionInfo@@SAXPAX@Z
_TEXT	SEGMENT
_p$ = 8							; size = 4
??3CvDllMissionInfo@@SAXPAX@Z PROC			; CvDllMissionInfo::operator delete, COMDAT

; 71   : 	CvDllGameContext::Free(p);

	jmp	?Free@CvDllGameContext@@SAXPAX@Z	; CvDllGameContext::Free
??3CvDllMissionInfo@@SAXPAX@Z ENDP			; CvDllMissionInfo::operator delete
_TEXT	ENDS
PUBLIC	??2CvDllMissionInfo@@SAPAXI@Z			; CvDllMissionInfo::operator new
EXTRN	?Allocate@CvDllGameContext@@SAPAXI@Z:PROC	; CvDllGameContext::Allocate
; Function compile flags: /Ogtpy
;	COMDAT ??2CvDllMissionInfo@@SAPAXI@Z
_TEXT	SEGMENT
_bytes$ = 8						; size = 4
??2CvDllMissionInfo@@SAPAXI@Z PROC			; CvDllMissionInfo::operator new, COMDAT

; 76   : 	return CvDllGameContext::Allocate(bytes);

	jmp	?Allocate@CvDllGameContext@@SAPAXI@Z	; CvDllGameContext::Allocate
??2CvDllMissionInfo@@SAPAXI@Z ENDP			; CvDllMissionInfo::operator new
_TEXT	ENDS
PUBLIC	?GetInstance@CvDllMissionInfo@@QAEPAVCvMissionInfo@@XZ ; CvDllMissionInfo::GetInstance
; Function compile flags: /Ogtpy
;	COMDAT ?GetInstance@CvDllMissionInfo@@QAEPAVCvMissionInfo@@XZ
_TEXT	SEGMENT
?GetInstance@CvDllMissionInfo@@QAEPAVCvMissionInfo@@XZ PROC ; CvDllMissionInfo::GetInstance, COMDAT
; _this$ = ecx

; 81   : 	return m_pMissionInfo;

	mov	eax, DWORD PTR [ecx+8]

; 82   : }

	ret	0
?GetInstance@CvDllMissionInfo@@QAEPAVCvMissionInfo@@XZ ENDP ; CvDllMissionInfo::GetInstance
_TEXT	ENDS
PUBLIC	_IsEqualGUID
; Function compile flags: /Ogtpy
; File c:\program files\microsoft sdks\windows\v6.0a\include\guiddef.h
;	COMDAT _IsEqualGUID
_TEXT	SEGMENT
_rguid1$ = 8						; size = 4
_rguid2$ = 12						; size = 4
_IsEqualGUID PROC					; COMDAT

; 161  :     return !memcmp(&rguid1, &rguid2, sizeof(GUID));

	mov	ecx, DWORD PTR _rguid2$[esp-4]
	mov	edx, DWORD PTR _rguid1$[esp-4]
	mov	eax, 16					; 00000010H
	push	esi
	npad	2
$LL4@IsEqualGUI:
	mov	esi, DWORD PTR [edx]
	cmp	esi, DWORD PTR [ecx]
	jne	SHORT $LN5@IsEqualGUI
	sub	eax, 4
	add	ecx, 4
	add	edx, 4
	cmp	eax, 4
	jae	SHORT $LL4@IsEqualGUI
	xor	eax, eax
	xor	edx, edx
	test	eax, eax
	sete	dl
	pop	esi
	mov	eax, edx

; 162  : }

	ret	0
$LN5@IsEqualGUI:

; 161  :     return !memcmp(&rguid1, &rguid2, sizeof(GUID));

	movzx	eax, BYTE PTR [edx]
	movzx	esi, BYTE PTR [ecx]
	sub	eax, esi
	jne	SHORT $LN7@IsEqualGUI
	movzx	eax, BYTE PTR [edx+1]
	movzx	esi, BYTE PTR [ecx+1]
	sub	eax, esi
	jne	SHORT $LN7@IsEqualGUI
	movzx	eax, BYTE PTR [edx+2]
	movzx	esi, BYTE PTR [ecx+2]
	sub	eax, esi
	jne	SHORT $LN7@IsEqualGUI
	movzx	eax, BYTE PTR [edx+3]
	movzx	ecx, BYTE PTR [ecx+3]
	sub	eax, ecx
$LN7@IsEqualGUI:
	sar	eax, 31					; 0000001fH
	or	eax, 1
	xor	edx, edx
	test	eax, eax
	sete	dl
	pop	esi
	mov	eax, edx

; 162  : }

	ret	0
_IsEqualGUID ENDP
_TEXT	ENDS
PUBLIC	_==
; Function compile flags: /Ogtpy
;	COMDAT _==
_TEXT	SEGMENT
_guidOne$ = 8						; size = 4
_guidOther$ = 12					; size = 4
_==	PROC						; COMDAT

; 194  :     return IsEqualGUID(guidOne,guidOther);

	jmp	_IsEqualGUID
_==	ENDP
_TEXT	ENDS
PUBLIC	?GetInterfaceId@ICvUnknown@@SG?AU_GUID@@XZ	; ICvUnknown::GetInterfaceId
; Function compile flags: /Ogtpy
; File c:\users\enormousapplepie\documents\github\lekmod\lekmod_dll\cvgamecoredllutil\include\cvdllinterfaces.h
;	COMDAT ?GetInterfaceId@ICvUnknown@@SG?AU_GUID@@XZ
_TEXT	SEGMENT
$T218478 = 8						; size = 4
?GetInterfaceId@ICvUnknown@@SG?AU_GUID@@XZ PROC		; ICvUnknown::GetInterfaceId, COMDAT

; 306  : 	static GUID DLLCALL GetInterfaceId(){ return guidICvUnknown; }

	mov	eax, DWORD PTR $T218478[esp-4]
	mov	ecx, DWORD PTR _guidICvUnknown
	mov	edx, DWORD PTR _guidICvUnknown+4
	mov	DWORD PTR [eax], ecx
	mov	ecx, DWORD PTR _guidICvUnknown+8
	mov	DWORD PTR [eax+4], edx
	mov	edx, DWORD PTR _guidICvUnknown+12
	mov	DWORD PTR [eax+8], ecx
	mov	DWORD PTR [eax+12], edx
	ret	4
?GetInterfaceId@ICvUnknown@@SG?AU_GUID@@XZ ENDP		; ICvUnknown::GetInterfaceId
_TEXT	ENDS
PUBLIC	?GetInterfaceId@ICvMissionInfo1@@SG?AU_GUID@@XZ	; ICvMissionInfo1::GetInterfaceId
; Function compile flags: /Ogtpy
;	COMDAT ?GetInterfaceId@ICvMissionInfo1@@SG?AU_GUID@@XZ
_TEXT	SEGMENT
$T218482 = 8						; size = 4
?GetInterfaceId@ICvMissionInfo1@@SG?AU_GUID@@XZ PROC	; ICvMissionInfo1::GetInterfaceId, COMDAT

; 510  : 	static GUID DLLCALL GetInterfaceId() { return guidICvMissionInfo1; }

	mov	eax, DWORD PTR $T218482[esp-4]
	mov	ecx, DWORD PTR _guidICvMissionInfo1
	mov	edx, DWORD PTR _guidICvMissionInfo1+4
	mov	DWORD PTR [eax], ecx
	mov	ecx, DWORD PTR _guidICvMissionInfo1+8
	mov	DWORD PTR [eax+4], edx
	mov	edx, DWORD PTR _guidICvMissionInfo1+12
	mov	DWORD PTR [eax+8], ecx
	mov	DWORD PTR [eax+12], edx
	ret	4
?GetInterfaceId@ICvMissionInfo1@@SG?AU_GUID@@XZ ENDP	; ICvMissionInfo1::GetInterfaceId
_TEXT	ENDS
PUBLIC	?GetDescription@CvBaseInfo@@QBEPBDXZ		; CvBaseInfo::GetDescription
EXTRN	__imp_?c_str@?$basic_string@DU?$char_traits@D@std@@V?$allocator@D@2@@std@@QBEPBDXZ:PROC
; Function compile flags: /Ogtpy
; File c:\users\enormousapplepie\documents\github\lekmod\lekmod_dll\cvgamecoredll_expansion2\cvinfos.h
;	COMDAT ?GetDescription@CvBaseInfo@@QBEPBDXZ
_TEXT	SEGMENT
?GetDescription@CvBaseInfo@@QBEPBDXZ PROC		; CvBaseInfo::GetDescription, COMDAT
; _this$ = ecx

; 64   : 		return m_strDescription.c_str();

	add	ecx, 36					; 00000024H
	jmp	DWORD PTR __imp_?c_str@?$basic_string@DU?$char_traits@D@std@@V?$allocator@D@2@@std@@QBEPBDXZ
?GetDescription@CvBaseInfo@@QBEPBDXZ ENDP		; CvBaseInfo::GetDescription
_TEXT	ENDS
PUBLIC	?GetType@CvBaseInfo@@QBEPBDXZ			; CvBaseInfo::GetType
; Function compile flags: /Ogtpy
;	COMDAT ?GetType@CvBaseInfo@@QBEPBDXZ
_TEXT	SEGMENT
?GetType@CvBaseInfo@@QBEPBDXZ PROC			; CvBaseInfo::GetType, COMDAT
; _this$ = ecx

; 92   : 		return m_strType.c_str();

	add	ecx, 176				; 000000b0H
	jmp	DWORD PTR __imp_?c_str@?$basic_string@DU?$char_traits@D@std@@V?$allocator@D@2@@std@@QBEPBDXZ
?GetType@CvBaseInfo@@QBEPBDXZ ENDP			; CvBaseInfo::GetType
_TEXT	ENDS
PUBLIC	??_7ICvMissionInfo1@@6B@			; ICvMissionInfo1::`vftable'
PUBLIC	??0ICvMissionInfo1@@QAE@XZ			; ICvMissionInfo1::ICvMissionInfo1
PUBLIC	??_R4ICvMissionInfo1@@6B@			; ICvMissionInfo1::`RTTI Complete Object Locator'
;	COMDAT ??_R4ICvMissionInfo1@@6B@
rdata$r	SEGMENT
??_R4ICvMissionInfo1@@6B@ DD 00H			; ICvMissionInfo1::`RTTI Complete Object Locator'
	DD	00H
	DD	00H
	DD	FLAT:??_R0?AVICvMissionInfo1@@@8
	DD	FLAT:??_R3ICvMissionInfo1@@8
rdata$r	ENDS
;	COMDAT ??_7ICvMissionInfo1@@6B@
CONST	SEGMENT
??_7ICvMissionInfo1@@6B@ DD FLAT:??_R4ICvMissionInfo1@@6B@ ; ICvMissionInfo1::`vftable'
	DD	FLAT:__purecall
	DD	FLAT:__purecall
	DD	FLAT:__purecall
	DD	FLAT:__purecall
; Function compile flags: /Ogtpy
CONST	ENDS
;	COMDAT ??0ICvMissionInfo1@@QAE@XZ
_TEXT	SEGMENT
??0ICvMissionInfo1@@QAE@XZ PROC				; ICvMissionInfo1::ICvMissionInfo1, COMDAT
; _this$ = ecx
	mov	eax, ecx
	mov	DWORD PTR [eax], OFFSET ??_7ICvMissionInfo1@@6B@
	ret	0
??0ICvMissionInfo1@@QAE@XZ ENDP				; ICvMissionInfo1::ICvMissionInfo1
; Function compile flags: /Ogtpy
; File c:\users\enormousapplepie\documents\github\lekmod\lekmod_dll\cvgamecoredll_expansion2\cvdllmissioninfo.cpp
_TEXT	ENDS
;	COMDAT ?QueryInterface@CvDllMissionInfo@@UAGPAXU_GUID@@@Z
_TEXT	SEGMENT
$T218502 = -16						; size = 16
$T218500 = -16						; size = 16
_this$ = 8						; size = 4
_guidInterface$ = 12					; size = 16
?QueryInterface@CvDllMissionInfo@@UAGPAXU_GUID@@@Z PROC	; CvDllMissionInfo::QueryInterface, COMDAT

; 28   : {

	sub	esp, 16					; 00000010H

; 29   : 	if(guidInterface == ICvUnknown::GetInterfaceId() ||
; 30   : 	        guidInterface == ICvMissionInfo1::GetInterfaceId())

	mov	ecx, DWORD PTR _guidICvUnknown+4
	mov	edx, DWORD PTR _guidICvUnknown+8
	mov	eax, DWORD PTR _guidICvUnknown
	mov	DWORD PTR $T218500[esp+20], ecx
	lea	ecx, DWORD PTR $T218500[esp+16]
	mov	DWORD PTR $T218500[esp+24], edx
	mov	DWORD PTR $T218500[esp+16], eax
	mov	eax, DWORD PTR _guidICvUnknown+12
	push	ecx
	lea	edx, DWORD PTR _guidInterface$[esp+16]
	push	edx
	mov	DWORD PTR $T218500[esp+36], eax
	call	_IsEqualGUID
	add	esp, 8
	test	eax, eax
	jne	SHORT $LN1@QueryInter
	mov	ecx, DWORD PTR _guidICvMissionInfo1+4
	mov	edx, DWORD PTR _guidICvMissionInfo1+8
	mov	eax, DWORD PTR _guidICvMissionInfo1
	mov	DWORD PTR $T218502[esp+20], ecx
	lea	ecx, DWORD PTR $T218502[esp+16]
	mov	DWORD PTR $T218502[esp+24], edx
	mov	DWORD PTR $T218502[esp+16], eax
	mov	eax, DWORD PTR _guidICvMissionInfo1+12
	push	ecx
	lea	edx, DWORD PTR _guidInterface$[esp+16]
	push	edx
	mov	DWORD PTR $T218502[esp+36], eax
	call	_IsEqualGUID
	add	esp, 8
	test	eax, eax
	jne	SHORT $LN1@QueryInter

; 33   : 		return this;
; 34   : 	}
; 35   : 
; 36   : 	return NULL;
; 37   : }

	add	esp, 16					; 00000010H
	ret	20					; 00000014H
$LN1@QueryInter:

; 31   : 	{
; 32   : 		IncrementReference();

	mov	eax, DWORD PTR _this$[esp+12]
	inc	DWORD PTR [eax+4]

; 33   : 		return this;
; 34   : 	}
; 35   : 
; 36   : 	return NULL;
; 37   : }

	add	esp, 16					; 00000010H
	ret	20					; 00000014H
?QueryInterface@CvDllMissionInfo@@UAGPAXU_GUID@@@Z ENDP	; CvDllMissionInfo::QueryInterface
_TEXT	ENDS
PUBLIC	??_GCvDllMissionInfo@@QAEPAXI@Z			; CvDllMissionInfo::`scalar deleting destructor'
; Function compile flags: /Ogtpy
;	COMDAT ??_GCvDllMissionInfo@@QAEPAXI@Z
_TEXT	SEGMENT
___flags$ = 8						; size = 4
??_GCvDllMissionInfo@@QAEPAXI@Z PROC			; CvDllMissionInfo::`scalar deleting destructor', COMDAT
; _this$ = ecx
	test	BYTE PTR ___flags$[esp-4], 1
	push	esi
	mov	esi, ecx
	mov	DWORD PTR [esi], OFFSET ??_7CvDllMissionInfo@@6B@
	je	SHORT $LN8@scalar
	push	esi
	call	?Free@CvDllGameContext@@SAXPAX@Z	; CvDllGameContext::Free
	add	esp, 4
$LN8@scalar:
	mov	eax, esi
	pop	esi
	ret	4
??_GCvDllMissionInfo@@QAEPAXI@Z ENDP			; CvDllMissionInfo::`scalar deleting destructor'
; Function compile flags: /Ogtpy
_TEXT	ENDS
;	COMDAT ?GetType@CvDllMissionInfo@@UAGPBDXZ
_TEXT	SEGMENT
_this$ = 8						; size = 4
?GetType@CvDllMissionInfo@@UAGPBDXZ PROC		; CvDllMissionInfo::GetType, COMDAT

; 86   : 	return m_pMissionInfo->GetType();

	mov	eax, DWORD PTR _this$[esp-4]
	mov	eax, DWORD PTR [eax+8]
	lea	ecx, DWORD PTR [eax+176]
	call	DWORD PTR __imp_?c_str@?$basic_string@DU?$char_traits@D@std@@V?$allocator@D@2@@std@@QBEPBDXZ

; 87   : }

	ret	4
?GetType@CvDllMissionInfo@@UAGPBDXZ ENDP		; CvDllMissionInfo::GetType
; Function compile flags: /Ogtpy
_TEXT	ENDS
;	COMDAT ?GetDescription@CvDllMissionInfo@@UAGPBDXZ
_TEXT	SEGMENT
_this$ = 8						; size = 4
?GetDescription@CvDllMissionInfo@@UAGPBDXZ PROC		; CvDllMissionInfo::GetDescription, COMDAT

; 91   : 	return m_pMissionInfo->GetDescription();

	mov	eax, DWORD PTR _this$[esp-4]
	mov	eax, DWORD PTR [eax+8]
	lea	ecx, DWORD PTR [eax+36]
	call	DWORD PTR __imp_?c_str@?$basic_string@DU?$char_traits@D@std@@V?$allocator@D@2@@std@@QBEPBDXZ

; 92   : }

	ret	4
?GetDescription@CvDllMissionInfo@@UAGPBDXZ ENDP		; CvDllMissionInfo::GetDescription
_TEXT	ENDS
PUBLIC	??0CvDllMissionInfo@@QAE@PAVCvMissionInfo@@@Z	; CvDllMissionInfo::CvDllMissionInfo
; Function compile flags: /Ogtpy
;	COMDAT ??0CvDllMissionInfo@@QAE@PAVCvMissionInfo@@@Z
_TEXT	SEGMENT
_pMissionInfo$ = 8					; size = 4
??0CvDllMissionInfo@@QAE@PAVCvMissionInfo@@@Z PROC	; CvDllMissionInfo::CvDllMissionInfo, COMDAT
; _this$ = ecx

; 19   : {

	mov	eax, ecx
	mov	ecx, DWORD PTR _pMissionInfo$[esp-4]
	mov	DWORD PTR [eax], OFFSET ??_7CvDllMissionInfo@@6B@
	mov	DWORD PTR [eax+4], 1
	mov	DWORD PTR [eax+8], ecx

; 20   : 	FAssertMsg(pMissionInfo != NULL, "SHOULD NOT HAPPEN");
; 21   : }

	ret	4
??0CvDllMissionInfo@@QAE@PAVCvMissionInfo@@@Z ENDP	; CvDllMissionInfo::CvDllMissionInfo
_TEXT	ENDS
PUBLIC	?DecrementReference@CvDllMissionInfo@@QAEIXZ	; CvDllMissionInfo::DecrementReference
; Function compile flags: /Ogtpy
;	COMDAT ?DecrementReference@CvDllMissionInfo@@QAEIXZ
_TEXT	SEGMENT
?DecrementReference@CvDllMissionInfo@@QAEIXZ PROC	; CvDllMissionInfo::DecrementReference, COMDAT
; _this$ = ecx

; 47   : 	if(m_uiRefCount == 1)

	mov	eax, DWORD PTR [ecx+4]
	cmp	eax, 1
	jne	SHORT $LN2@DecrementR

; 48   : 	{
; 49   : 		delete this;

	push	ecx
	mov	DWORD PTR [ecx], OFFSET ??_7CvDllMissionInfo@@6B@
	call	?Free@CvDllGameContext@@SAXPAX@Z	; CvDllGameContext::Free
	add	esp, 4

; 50   : 		return 0;

	xor	eax, eax

; 55   : 		return m_uiRefCount;
; 56   : 	}
; 57   : }

	ret	0
$LN2@DecrementR:

; 51   : 	}
; 52   : 	else
; 53   : 	{
; 54   : 		--m_uiRefCount;

	dec	eax
	mov	DWORD PTR [ecx+4], eax

; 55   : 		return m_uiRefCount;
; 56   : 	}
; 57   : }

	ret	0
?DecrementReference@CvDllMissionInfo@@QAEIXZ ENDP	; CvDllMissionInfo::DecrementReference
; Function compile flags: /Ogtpy
_TEXT	ENDS
;	COMDAT ?Destroy@CvDllMissionInfo@@EAGXXZ
_TEXT	SEGMENT
_this$ = 8						; size = 4
?Destroy@CvDllMissionInfo@@EAGXXZ PROC			; CvDllMissionInfo::Destroy, COMDAT

; 66   : 	DecrementReference();

	mov	eax, DWORD PTR _this$[esp-4]
	mov	ecx, DWORD PTR [eax+4]
	cmp	ecx, 1
	jne	SHORT $LN4@Destroy
	push	eax
	mov	DWORD PTR [eax], OFFSET ??_7CvDllMissionInfo@@6B@
	call	?Free@CvDllGameContext@@SAXPAX@Z	; CvDllGameContext::Free
	add	esp, 4

; 67   : }

	ret	4

; 66   : 	DecrementReference();

$LN4@Destroy:
	dec	ecx
	mov	DWORD PTR [eax+4], ecx

; 67   : }

	ret	4
?Destroy@CvDllMissionInfo@@EAGXXZ ENDP			; CvDllMissionInfo::Destroy
_TEXT	ENDS
END
