; Listing generated by Microsoft (R) Optimizing Compiler Version 15.00.30729.01 

	TITLE	c:\Users\EnormousApplePie\Documents\GitHub\Lekmod\LEKMOD_DLL\CvGameCoreDLL_Expansion2\CvDllNetInitInfo.cpp
	.686P
	.XMM
	include listing.inc
	.model	flat

INCLUDELIB MSVCRT
INCLUDELIB OLDNAMES

_DATA	SEGMENT
_CIV5_XP2_DLL_VERSION DD FLAT:$SG218012
_DATA	ENDS
CONST	SEGMENT
$SG218012 DB	'1.0.0', 00H
	ORG $+2
$SG219236 DB	'true', 00H
	ORG $+3
$SG219237 DB	'false', 00H
	ORG $+2
$SG219238 DB	'NetInitInfo : m_szLoadFileName="%s", m_szMapScriptName="'
	DB	'%s", m_bWBMapNoPlayers="%s", m_eWorldSize=%d, m_eClimate=%d m'
	DB	'_eSeaLevel=%d m_eEra=%d m_eCalendar=%d m_iGameTurn=%d m_bGame'
	DB	'Started=%i m_eGameSpeed=%d m_eTurnTimer=%d m_szGameName="%s" '
	DB	'm_uiSyncRandSeed=%d m_uiMapRandSeed=%d', 00H
	ORG $+2
$SG219379 DB	'net_message_debug.log', 00H
	ORG $+2
$SG219383 DB	'Success', 00H
$SG219384 DB	'Failed', 00H
	ORG $+1
$SG219385 DB	'Evaluating Map Path: (%s)', 0aH, 'Original Path: %s', 0aH
	DB	'New Path: %s', 00H
	ORG $+3
_guidICvUnknown DD 0d89ba82fH
	DW	09fa3H
	DW	04696H
	DB	0b3H
	DB	0f4H
	DB	052H
	DB	0bdH
	DB	0b1H
	DB	01H
	DB	0cfH
	DB	0b2H
_guidICvNetInitInfo1 DD 07917c933H
	DW	02edcH
	DW	049afH
	DB	0b7H
	DB	0f3H
	DB	0c0H
	DB	065H
	DB	0cbH
	DB	0b5H
	DB	0ebH
	DB	02cH
CONST	ENDS
PUBLIC	??_7ICvUnknown@@6B@				; ICvUnknown::`vftable'
PUBLIC	??0ICvUnknown@@QAE@XZ				; ICvUnknown::ICvUnknown
PUBLIC	??_R4ICvUnknown@@6B@				; ICvUnknown::`RTTI Complete Object Locator'
PUBLIC	??_R0?AVICvUnknown@@@8				; ICvUnknown `RTTI Type Descriptor'
PUBLIC	??_R3ICvUnknown@@8				; ICvUnknown::`RTTI Class Hierarchy Descriptor'
PUBLIC	??_R2ICvUnknown@@8				; ICvUnknown::`RTTI Base Class Array'
PUBLIC	??_R1A@?0A@EA@ICvUnknown@@8			; ICvUnknown::`RTTI Base Class Descriptor at (0,-1,0,64)'
EXTRN	??_7type_info@@6B@:QWORD			; type_info::`vftable'
EXTRN	__purecall:PROC
;	COMDAT ??_R1A@?0A@EA@ICvUnknown@@8
rdata$r	SEGMENT
??_R1A@?0A@EA@ICvUnknown@@8 DD FLAT:??_R0?AVICvUnknown@@@8 ; ICvUnknown::`RTTI Base Class Descriptor at (0,-1,0,64)'
	DD	00H
	DD	00H
	DD	0ffffffffH
	DD	00H
	DD	040H
	DD	FLAT:??_R3ICvUnknown@@8
rdata$r	ENDS
;	COMDAT ??_R2ICvUnknown@@8
rdata$r	SEGMENT
??_R2ICvUnknown@@8 DD FLAT:??_R1A@?0A@EA@ICvUnknown@@8	; ICvUnknown::`RTTI Base Class Array'
rdata$r	ENDS
;	COMDAT ??_R3ICvUnknown@@8
rdata$r	SEGMENT
??_R3ICvUnknown@@8 DD 00H				; ICvUnknown::`RTTI Class Hierarchy Descriptor'
	DD	00H
	DD	01H
	DD	FLAT:??_R2ICvUnknown@@8
rdata$r	ENDS
;	COMDAT ??_R0?AVICvUnknown@@@8
_DATA	SEGMENT
??_R0?AVICvUnknown@@@8 DD FLAT:??_7type_info@@6B@	; ICvUnknown `RTTI Type Descriptor'
	DD	00H
	DB	'.?AVICvUnknown@@', 00H
_DATA	ENDS
;	COMDAT ??_R4ICvUnknown@@6B@
rdata$r	SEGMENT
??_R4ICvUnknown@@6B@ DD 00H				; ICvUnknown::`RTTI Complete Object Locator'
	DD	00H
	DD	00H
	DD	FLAT:??_R0?AVICvUnknown@@@8
	DD	FLAT:??_R3ICvUnknown@@8
rdata$r	ENDS
;	COMDAT ??_7ICvUnknown@@6B@
CONST	SEGMENT
??_7ICvUnknown@@6B@ DD FLAT:??_R4ICvUnknown@@6B@	; ICvUnknown::`vftable'
	DD	FLAT:__purecall
	DD	FLAT:__purecall
; Function compile flags: /Ogtpy
CONST	ENDS
;	COMDAT ??0ICvUnknown@@QAE@XZ
_TEXT	SEGMENT
??0ICvUnknown@@QAE@XZ PROC				; ICvUnknown::ICvUnknown, COMDAT
; _this$ = ecx
	mov	eax, ecx
	mov	DWORD PTR [eax], OFFSET ??_7ICvUnknown@@6B@
	ret	0
??0ICvUnknown@@QAE@XZ ENDP				; ICvUnknown::ICvUnknown
_TEXT	ENDS
PUBLIC	?IncrementReference@CvDllNetInitInfo@@QAEIXZ	; CvDllNetInitInfo::IncrementReference
; Function compile flags: /Ogtpy
; File c:\users\enormousapplepie\documents\github\lekmod\lekmod_dll\cvgamecoredll_expansion2\cvdllnetinitinfo.cpp
;	COMDAT ?IncrementReference@CvDllNetInitInfo@@QAEIXZ
_TEXT	SEGMENT
?IncrementReference@CvDllNetInitInfo@@QAEIXZ PROC	; CvDllNetInitInfo::IncrementReference, COMDAT
; _this$ = ecx

; 76   : 	++m_uiRefCount;

	inc	DWORD PTR [ecx+760]

; 77   : 	return m_uiRefCount;

	mov	eax, DWORD PTR [ecx+760]

; 78   : }

	ret	0
?IncrementReference@CvDllNetInitInfo@@QAEIXZ ENDP	; CvDllNetInitInfo::IncrementReference
_TEXT	ENDS
PUBLIC	?GetReferenceCount@CvDllNetInitInfo@@QAEIXZ	; CvDllNetInitInfo::GetReferenceCount
; Function compile flags: /Ogtpy
;	COMDAT ?GetReferenceCount@CvDllNetInitInfo@@QAEIXZ
_TEXT	SEGMENT
?GetReferenceCount@CvDllNetInitInfo@@QAEIXZ PROC	; CvDllNetInitInfo::GetReferenceCount, COMDAT
; _this$ = ecx

; 96   : 	return m_uiRefCount;

	mov	eax, DWORD PTR [ecx+760]

; 97   : }

	ret	0
?GetReferenceCount@CvDllNetInitInfo@@QAEIXZ ENDP	; CvDllNetInitInfo::GetReferenceCount
_TEXT	ENDS
PUBLIC	??3CvDllNetInitInfo@@SAXPAX@Z			; CvDllNetInitInfo::operator delete
EXTRN	?Free@CvDllGameContext@@SAXPAX@Z:PROC		; CvDllGameContext::Free
; Function compile flags: /Ogtpy
;	COMDAT ??3CvDllNetInitInfo@@SAXPAX@Z
_TEXT	SEGMENT
_p$ = 8							; size = 4
??3CvDllNetInitInfo@@SAXPAX@Z PROC			; CvDllNetInitInfo::operator delete, COMDAT

; 106  : 	CvDllGameContext::Free(p);

	jmp	?Free@CvDllGameContext@@SAXPAX@Z	; CvDllGameContext::Free
??3CvDllNetInitInfo@@SAXPAX@Z ENDP			; CvDllNetInitInfo::operator delete
_TEXT	ENDS
PUBLIC	??2CvDllNetInitInfo@@SAPAXI@Z			; CvDllNetInitInfo::operator new
EXTRN	?Allocate@CvDllGameContext@@SAPAXI@Z:PROC	; CvDllGameContext::Allocate
; Function compile flags: /Ogtpy
;	COMDAT ??2CvDllNetInitInfo@@SAPAXI@Z
_TEXT	SEGMENT
_bytes$ = 8						; size = 4
??2CvDllNetInitInfo@@SAPAXI@Z PROC			; CvDllNetInitInfo::operator new, COMDAT

; 111  : 	return CvDllGameContext::Allocate(bytes);

	jmp	?Allocate@CvDllGameContext@@SAPAXI@Z	; CvDllGameContext::Allocate
??2CvDllNetInitInfo@@SAPAXI@Z ENDP			; CvDllNetInitInfo::operator new
_TEXT	ENDS
PUBLIC	?GetDebugString@CvDllNetInitInfo@@UAGPBDXZ	; CvDllNetInitInfo::GetDebugString
EXTRN	__imp__sprintf:PROC
EXTRN	?loadFileName@CvPreGame@@YAABVCvString@@XZ:PROC	; CvPreGame::loadFileName
EXTRN	?mapScriptName@CvPreGame@@YAABVCvString@@XZ:PROC ; CvPreGame::mapScriptName
EXTRN	?worldSize@CvPreGame@@YA?AW4WorldSizeTypes@@XZ:PROC ; CvPreGame::worldSize
EXTRN	?climate@CvPreGame@@YA?AW4ClimateTypes@@XZ:PROC	; CvPreGame::climate
EXTRN	?seaLevel@CvPreGame@@YA?AW4SeaLevelTypes@@XZ:PROC ; CvPreGame::seaLevel
EXTRN	?era@CvPreGame@@YA?AW4EraTypes@@XZ:PROC		; CvPreGame::era
EXTRN	?calendar@CvPreGame@@YA?AW4CalendarTypes@@XZ:PROC ; CvPreGame::calendar
EXTRN	?gameTurn@CvPreGame@@YAHXZ:PROC			; CvPreGame::gameTurn
EXTRN	?gameStarted@CvPreGame@@YA_NXZ:PROC		; CvPreGame::gameStarted
EXTRN	?gameSpeed@CvPreGame@@YA?AW4GameSpeedTypes@@XZ:PROC ; CvPreGame::gameSpeed
EXTRN	?turnTimer@CvPreGame@@YA?AW4TurnTimerTypes@@XZ:PROC ; CvPreGame::turnTimer
EXTRN	__imp_?c_str@?$basic_string@DU?$char_traits@D@std@@V?$allocator@D@2@@std@@QBEPBDXZ:PROC
EXTRN	?gameName@CvPreGame@@YAABVCvString@@XZ:PROC	; CvPreGame::gameName
EXTRN	?syncRandomSeed@CvPreGame@@YAIXZ:PROC		; CvPreGame::syncRandomSeed
EXTRN	?mapRandomSeed@CvPreGame@@YAIXZ:PROC		; CvPreGame::mapRandomSeed
EXTRN	?mapNoPlayers@CvPreGame@@YA_NXZ:PROC		; CvPreGame::mapNoPlayers
; Function compile flags: /Ogtpy
;	COMDAT ?GetDebugString@CvDllNetInitInfo@@UAGPBDXZ
_TEXT	SEGMENT
_this$ = 8						; size = 4
?GetDebugString@CvDllNetInitInfo@@UAGPBDXZ PROC		; CvDllNetInitInfo::GetDebugString, COMDAT

; 115  : {

	push	esi
	push	edi

; 116  : 	sprintf(m_szDebugString, "NetInitInfo : m_szLoadFileName=\"%s\", "\
; 117  : 	        "m_szMapScriptName=\"%s\", "\
; 118  : 	        "m_bWBMapNoPlayers=\"%s\", "\
; 119  : 	        "m_eWorldSize=%d, "\
; 120  : 	        "m_eClimate=%d "\
; 121  : 	        "m_eSeaLevel=%d "\
; 122  : 	        "m_eEra=%d "\
; 123  : 	        "m_eCalendar=%d "\
; 124  : 	        "m_iGameTurn=%d "\
; 125  : 					"m_bGameStarted=%i "\
; 126  : 	        "m_eGameSpeed=%d "\
; 127  : 	        "m_eTurnTimer=%d "\
; 128  : 	        "m_szGameName=\"%s\" "\
; 129  : 	        "m_uiSyncRandSeed=%d "\
; 130  : 	        "m_uiMapRandSeed=%d"
; 131  : 	        , CvPreGame::loadFileName().c_str()
; 132  : 	        , CvPreGame::mapScriptName().c_str()
; 133  : 	        , CvPreGame::mapNoPlayers() ? "true" : "false"
; 134  : 	        , static_cast<int>(CvPreGame::worldSize())
; 135  : 	        , static_cast<int>(CvPreGame::climate())
; 136  : 	        , static_cast<int>(CvPreGame::seaLevel())
; 137  : 	        , static_cast<int>(CvPreGame::era())
; 138  : 	        , static_cast<int>(CvPreGame::calendar())
; 139  : 	        , CvPreGame::gameTurn()
; 140  : #ifdef AUI_WARNING_FIXES
; 141  : 		, CvPreGame::gameStarted() ? 1 : 0
; 142  : #else
; 143  : 					, CvPreGame::gameStarted()
; 144  : #endif
; 145  : 	        , static_cast<int>(CvPreGame::gameSpeed())
; 146  : 	        , static_cast<int>(CvPreGame::turnTimer())
; 147  : 	        , CvPreGame::gameName().c_str()
; 148  : #ifdef AUI_WARNING_FIXES
; 149  : 		, (int)CvPreGame::syncRandomSeed()
; 150  : 		, (int)CvPreGame::mapRandomSeed()
; 151  : #else
; 152  : 	        , CvPreGame::syncRandomSeed()
; 153  : 	        , CvPreGame::mapRandomSeed()
; 154  : #endif
; 155  : 	       );

	call	?mapNoPlayers@CvPreGame@@YA_NXZ		; CvPreGame::mapNoPlayers
	mov	edi, OFFSET $SG219236
	test	al, al
	jne	SHORT $LN4@GetDebugSt
	mov	edi, OFFSET $SG219237
$LN4@GetDebugSt:
	mov	esi, DWORD PTR _this$[esp+4]
	add	esi, 245				; 000000f5H
	call	?mapRandomSeed@CvPreGame@@YAIXZ		; CvPreGame::mapRandomSeed
	push	eax
	call	?syncRandomSeed@CvPreGame@@YAIXZ	; CvPreGame::syncRandomSeed
	push	eax
	call	?gameName@CvPreGame@@YAABVCvString@@XZ	; CvPreGame::gameName
	mov	ecx, eax
	call	DWORD PTR __imp_?c_str@?$basic_string@DU?$char_traits@D@std@@V?$allocator@D@2@@std@@QBEPBDXZ
	push	eax
	call	?turnTimer@CvPreGame@@YA?AW4TurnTimerTypes@@XZ ; CvPreGame::turnTimer
	push	eax
	call	?gameSpeed@CvPreGame@@YA?AW4GameSpeedTypes@@XZ ; CvPreGame::gameSpeed
	push	eax
	call	?gameStarted@CvPreGame@@YA_NXZ		; CvPreGame::gameStarted
	movzx	eax, al
	push	eax
	call	?gameTurn@CvPreGame@@YAHXZ		; CvPreGame::gameTurn
	push	eax
	call	?calendar@CvPreGame@@YA?AW4CalendarTypes@@XZ ; CvPreGame::calendar
	push	eax
	call	?era@CvPreGame@@YA?AW4EraTypes@@XZ	; CvPreGame::era
	push	eax
	call	?seaLevel@CvPreGame@@YA?AW4SeaLevelTypes@@XZ ; CvPreGame::seaLevel
	push	eax
	call	?climate@CvPreGame@@YA?AW4ClimateTypes@@XZ ; CvPreGame::climate
	push	eax
	call	?worldSize@CvPreGame@@YA?AW4WorldSizeTypes@@XZ ; CvPreGame::worldSize
	push	eax
	push	edi
	call	?mapScriptName@CvPreGame@@YAABVCvString@@XZ ; CvPreGame::mapScriptName
	mov	ecx, eax
	call	DWORD PTR __imp_?c_str@?$basic_string@DU?$char_traits@D@std@@V?$allocator@D@2@@std@@QBEPBDXZ
	push	eax
	call	?loadFileName@CvPreGame@@YAABVCvString@@XZ ; CvPreGame::loadFileName
	mov	ecx, eax
	call	DWORD PTR __imp_?c_str@?$basic_string@DU?$char_traits@D@std@@V?$allocator@D@2@@std@@QBEPBDXZ
	push	eax
	push	OFFSET $SG219238
	push	esi
	call	DWORD PTR __imp__sprintf
	add	esp, 68					; 00000044H
	pop	edi

; 156  : 
; 157  : 	return m_szDebugString;

	mov	eax, esi
	pop	esi

; 158  : }

	ret	4
?GetDebugString@CvDllNetInitInfo@@UAGPBDXZ ENDP		; CvDllNetInitInfo::GetDebugString
_TEXT	ENDS
PUBLIC	_IsEqualGUID
; Function compile flags: /Ogtpy
; File c:\program files\microsoft sdks\windows\v6.0a\include\guiddef.h
;	COMDAT _IsEqualGUID
_TEXT	SEGMENT
_rguid1$ = 8						; size = 4
_rguid2$ = 12						; size = 4
_IsEqualGUID PROC					; COMDAT

; 161  :     return !memcmp(&rguid1, &rguid2, sizeof(GUID));

	mov	ecx, DWORD PTR _rguid2$[esp-4]
	mov	edx, DWORD PTR _rguid1$[esp-4]
	mov	eax, 16					; 00000010H
	push	esi
	npad	2
$LL4@IsEqualGUI:
	mov	esi, DWORD PTR [edx]
	cmp	esi, DWORD PTR [ecx]
	jne	SHORT $LN5@IsEqualGUI
	sub	eax, 4
	add	ecx, 4
	add	edx, 4
	cmp	eax, 4
	jae	SHORT $LL4@IsEqualGUI
	xor	eax, eax
	xor	edx, edx
	test	eax, eax
	sete	dl
	pop	esi
	mov	eax, edx

; 162  : }

	ret	0
$LN5@IsEqualGUI:

; 161  :     return !memcmp(&rguid1, &rguid2, sizeof(GUID));

	movzx	eax, BYTE PTR [edx]
	movzx	esi, BYTE PTR [ecx]
	sub	eax, esi
	jne	SHORT $LN7@IsEqualGUI
	movzx	eax, BYTE PTR [edx+1]
	movzx	esi, BYTE PTR [ecx+1]
	sub	eax, esi
	jne	SHORT $LN7@IsEqualGUI
	movzx	eax, BYTE PTR [edx+2]
	movzx	esi, BYTE PTR [ecx+2]
	sub	eax, esi
	jne	SHORT $LN7@IsEqualGUI
	movzx	eax, BYTE PTR [edx+3]
	movzx	ecx, BYTE PTR [ecx+3]
	sub	eax, ecx
$LN7@IsEqualGUI:
	sar	eax, 31					; 0000001fH
	or	eax, 1
	xor	edx, edx
	test	eax, eax
	sete	dl
	pop	esi
	mov	eax, edx

; 162  : }

	ret	0
_IsEqualGUID ENDP
_TEXT	ENDS
PUBLIC	_==
; Function compile flags: /Ogtpy
;	COMDAT _==
_TEXT	SEGMENT
_guidOne$ = 8						; size = 4
_guidOther$ = 12					; size = 4
_==	PROC						; COMDAT

; 194  :     return IsEqualGUID(guidOne,guidOther);

	jmp	_IsEqualGUID
_==	ENDP
_TEXT	ENDS
PUBLIC	??4?$_Container_base_aux_alloc_empty@V?$allocator@_N@std@@@std@@IAEAAV01@ABV01@@Z ; std::_Container_base_aux_alloc_empty<std::allocator<bool> >::operator=
; Function compile flags: /Ogtpy
; File c:\program files (x86)\microsoft visual studio 9.0\vc\include\xutility
;	COMDAT ??4?$_Container_base_aux_alloc_empty@V?$allocator@_N@std@@@std@@IAEAAV01@ABV01@@Z
_TEXT	SEGMENT
___formal$ = 8						; size = 4
??4?$_Container_base_aux_alloc_empty@V?$allocator@_N@std@@@std@@IAEAAV01@ABV01@@Z PROC ; std::_Container_base_aux_alloc_empty<std::allocator<bool> >::operator=, COMDAT
; _this$ = ecx

; 623  : 		{

	mov	eax, ecx

; 624  : 		return *this;
; 625  : 		}

	ret	4
??4?$_Container_base_aux_alloc_empty@V?$allocator@_N@std@@@std@@IAEAAV01@ABV01@@Z ENDP ; std::_Container_base_aux_alloc_empty<std::allocator<bool> >::operator=
_TEXT	ENDS
PUBLIC	?capacity@?$vector@VCustomOption@CvPreGame@@V?$allocator@VCustomOption@CvPreGame@@@std@@@std@@QBEIXZ ; std::vector<CvPreGame::CustomOption,std::allocator<CvPreGame::CustomOption> >::capacity
; Function compile flags: /Ogtpy
; File c:\program files (x86)\microsoft visual studio 9.0\vc\include\vector
;	COMDAT ?capacity@?$vector@VCustomOption@CvPreGame@@V?$allocator@VCustomOption@CvPreGame@@@std@@@std@@QBEIXZ
_TEXT	SEGMENT
?capacity@?$vector@VCustomOption@CvPreGame@@V?$allocator@VCustomOption@CvPreGame@@@std@@@std@@QBEIXZ PROC ; std::vector<CvPreGame::CustomOption,std::allocator<CvPreGame::CustomOption> >::capacity, COMDAT
; _this$ = ecx

; 635  : 		return (_Myfirst == 0 ? 0 : _Myend - _Myfirst);

	mov	eax, DWORD PTR [ecx+4]
	test	eax, eax
	jne	SHORT $LN3@capacity

; 636  : 		}

	ret	0
$LN3@capacity:

; 635  : 		return (_Myfirst == 0 ? 0 : _Myend - _Myfirst);

	mov	ecx, DWORD PTR [ecx+12]
	sub	ecx, eax
	mov	eax, 2021161081				; 78787879H
	imul	ecx
	sar	edx, 5
	mov	eax, edx
	shr	eax, 31					; 0000001fH
	add	eax, edx

; 636  : 		}

	ret	0
?capacity@?$vector@VCustomOption@CvPreGame@@V?$allocator@VCustomOption@CvPreGame@@@std@@@std@@QBEIXZ ENDP ; std::vector<CvPreGame::CustomOption,std::allocator<CvPreGame::CustomOption> >::capacity
_TEXT	ENDS
PUBLIC	?size@?$vector@VCustomOption@CvPreGame@@V?$allocator@VCustomOption@CvPreGame@@@std@@@std@@QBEIXZ ; std::vector<CvPreGame::CustomOption,std::allocator<CvPreGame::CustomOption> >::size
; Function compile flags: /Ogtpy
;	COMDAT ?size@?$vector@VCustomOption@CvPreGame@@V?$allocator@VCustomOption@CvPreGame@@@std@@@std@@QBEIXZ
_TEXT	SEGMENT
?size@?$vector@VCustomOption@CvPreGame@@V?$allocator@VCustomOption@CvPreGame@@@std@@@std@@QBEIXZ PROC ; std::vector<CvPreGame::CustomOption,std::allocator<CvPreGame::CustomOption> >::size, COMDAT
; _this$ = ecx

; 726  : 		return (_Mylast - _Myfirst);

	mov	edx, DWORD PTR [ecx+8]
	sub	edx, DWORD PTR [ecx+4]
	mov	eax, 2021161081				; 78787879H
	imul	edx
	sar	edx, 5
	mov	eax, edx
	shr	eax, 31					; 0000001fH
	add	eax, edx

; 727  : 		}

	ret	0
?size@?$vector@VCustomOption@CvPreGame@@V?$allocator@VCustomOption@CvPreGame@@@std@@@std@@QBEIXZ ENDP ; std::vector<CvPreGame::CustomOption,std::allocator<CvPreGame::CustomOption> >::size
_TEXT	ENDS
PUBLIC	??1?$_Container_base_aux_alloc_empty@V?$allocator@VCustomOption@CvPreGame@@@std@@@std@@IAE@XZ ; std::_Container_base_aux_alloc_empty<std::allocator<CvPreGame::CustomOption> >::~_Container_base_aux_alloc_empty<std::allocator<CvPreGame::CustomOption> >
; Function compile flags: /Ogtpy
; File c:\program files (x86)\microsoft visual studio 9.0\vc\include\xutility
;	COMDAT ??1?$_Container_base_aux_alloc_empty@V?$allocator@VCustomOption@CvPreGame@@@std@@@std@@IAE@XZ
_TEXT	SEGMENT
??1?$_Container_base_aux_alloc_empty@V?$allocator@VCustomOption@CvPreGame@@@std@@@std@@IAE@XZ PROC ; std::_Container_base_aux_alloc_empty<std::allocator<CvPreGame::CustomOption> >::~_Container_base_aux_alloc_empty<std::allocator<CvPreGame::CustomOption> >, COMDAT
; _this$ = ecx

; 627  : 	~_Container_base_aux_alloc_empty() { }

	ret	0
??1?$_Container_base_aux_alloc_empty@V?$allocator@VCustomOption@CvPreGame@@@std@@@std@@IAE@XZ ENDP ; std::_Container_base_aux_alloc_empty<std::allocator<CvPreGame::CustomOption> >::~_Container_base_aux_alloc_empty<std::allocator<CvPreGame::CustomOption> >
_TEXT	ENDS
PUBLIC	??0?$allocator@VCustomOption@CvPreGame@@@std@@QAE@XZ ; std::allocator<CvPreGame::CustomOption>::allocator<CvPreGame::CustomOption>
; Function compile flags: /Ogtpy
; File c:\program files (x86)\microsoft visual studio 9.0\vc\include\xmemory
;	COMDAT ??0?$allocator@VCustomOption@CvPreGame@@@std@@QAE@XZ
_TEXT	SEGMENT
??0?$allocator@VCustomOption@CvPreGame@@@std@@QAE@XZ PROC ; std::allocator<CvPreGame::CustomOption>::allocator<CvPreGame::CustomOption>, COMDAT
; _this$ = ecx

; 119  : 	allocator() _THROW0()

	mov	eax, ecx

; 120  : 		{	// construct default allocator (do nothing)
; 121  : 		}

	ret	0
??0?$allocator@VCustomOption@CvPreGame@@@std@@QAE@XZ ENDP ; std::allocator<CvPreGame::CustomOption>::allocator<CvPreGame::CustomOption>
_TEXT	ENDS
PUBLIC	?deallocate@?$allocator@VCustomOption@CvPreGame@@@std@@QAEXPAVCustomOption@CvPreGame@@I@Z ; std::allocator<CvPreGame::CustomOption>::deallocate
EXTRN	??3@YAXPAX@Z:PROC				; operator delete
; Function compile flags: /Ogtpy
;	COMDAT ?deallocate@?$allocator@VCustomOption@CvPreGame@@@std@@QAEXPAVCustomOption@CvPreGame@@I@Z
_TEXT	SEGMENT
__Ptr$ = 8						; size = 4
___formal$ = 12						; size = 4
?deallocate@?$allocator@VCustomOption@CvPreGame@@@std@@QAEXPAVCustomOption@CvPreGame@@I@Z PROC ; std::allocator<CvPreGame::CustomOption>::deallocate, COMDAT
; _this$ = ecx

; 140  : 		::operator delete(_Ptr);

	mov	eax, DWORD PTR __Ptr$[esp-4]
	push	eax
	call	??3@YAXPAX@Z				; operator delete
	pop	ecx

; 141  : 		}

	ret	8
?deallocate@?$allocator@VCustomOption@CvPreGame@@@std@@QAEXPAVCustomOption@CvPreGame@@I@Z ENDP ; std::allocator<CvPreGame::CustomOption>::deallocate
_TEXT	ENDS
PUBLIC	??0?$_Container_base_aux_alloc_empty@V?$allocator@VCustomOption@CvPreGame@@@std@@@std@@IAE@V?$allocator@VCustomOption@CvPreGame@@@1@@Z ; std::_Container_base_aux_alloc_empty<std::allocator<CvPreGame::CustomOption> >::_Container_base_aux_alloc_empty<std::allocator<CvPreGame::CustomOption> >
; Function compile flags: /Ogtpy
; File c:\program files (x86)\microsoft visual studio 9.0\vc\include\xutility
;	COMDAT ??0?$_Container_base_aux_alloc_empty@V?$allocator@VCustomOption@CvPreGame@@@std@@@std@@IAE@V?$allocator@VCustomOption@CvPreGame@@@1@@Z
_TEXT	SEGMENT
___formal$ = 8						; size = 1
??0?$_Container_base_aux_alloc_empty@V?$allocator@VCustomOption@CvPreGame@@@std@@@std@@IAE@V?$allocator@VCustomOption@CvPreGame@@@1@@Z PROC ; std::_Container_base_aux_alloc_empty<std::allocator<CvPreGame::CustomOption> >::_Container_base_aux_alloc_empty<std::allocator<CvPreGame::CustomOption> >, COMDAT
; _this$ = ecx

; 618  : 	explicit _Container_base_aux_alloc_empty(_Alloc) { }

	mov	eax, ecx
	ret	4
??0?$_Container_base_aux_alloc_empty@V?$allocator@VCustomOption@CvPreGame@@@std@@@std@@IAE@V?$allocator@VCustomOption@CvPreGame@@@1@@Z ENDP ; std::_Container_base_aux_alloc_empty<std::allocator<CvPreGame::CustomOption> >::_Container_base_aux_alloc_empty<std::allocator<CvPreGame::CustomOption> >
_TEXT	ENDS
PUBLIC	??0?$allocator@VCustomOption@CvPreGame@@@std@@QAE@ABV01@@Z ; std::allocator<CvPreGame::CustomOption>::allocator<CvPreGame::CustomOption>
; Function compile flags: /Ogtpy
; File c:\program files (x86)\microsoft visual studio 9.0\vc\include\xmemory
;	COMDAT ??0?$allocator@VCustomOption@CvPreGame@@@std@@QAE@ABV01@@Z
_TEXT	SEGMENT
___formal$ = 8						; size = 4
??0?$allocator@VCustomOption@CvPreGame@@@std@@QAE@ABV01@@Z PROC ; std::allocator<CvPreGame::CustomOption>::allocator<CvPreGame::CustomOption>, COMDAT
; _this$ = ecx

; 123  : 	allocator(const allocator<_Ty>&) _THROW0()

	mov	eax, ecx

; 124  : 		{	// construct by copying (do nothing)
; 125  : 		}

	ret	4
??0?$allocator@VCustomOption@CvPreGame@@@std@@QAE@ABV01@@Z ENDP ; std::allocator<CvPreGame::CustomOption>::allocator<CvPreGame::CustomOption>
_TEXT	ENDS
PUBLIC	?max_size@?$allocator@VCustomOption@CvPreGame@@@std@@QBEIXZ ; std::allocator<CvPreGame::CustomOption>::max_size
; Function compile flags: /Ogtpy
;	COMDAT ?max_size@?$allocator@VCustomOption@CvPreGame@@@std@@QBEIXZ
_TEXT	SEGMENT
?max_size@?$allocator@VCustomOption@CvPreGame@@@std@@QBEIXZ PROC ; std::allocator<CvPreGame::CustomOption>::max_size, COMDAT
; _this$ = ecx

; 165  : 		_SIZT _Count = (_SIZT)(-1) / sizeof (_Ty);
; 166  : 		return (0 < _Count ? _Count : 1);

	mov	eax, 63161283				; 03c3c3c3H

; 167  : 		}

	ret	0
?max_size@?$allocator@VCustomOption@CvPreGame@@@std@@QBEIXZ ENDP ; std::allocator<CvPreGame::CustomOption>::max_size
_TEXT	ENDS
PUBLIC	??0?$_Vector_const_iterator@VCustomOption@CvPreGame@@V?$allocator@VCustomOption@CvPreGame@@@std@@@std@@QAE@PAVCustomOption@CvPreGame@@@Z ; std::_Vector_const_iterator<CvPreGame::CustomOption,std::allocator<CvPreGame::CustomOption> >::_Vector_const_iterator<CvPreGame::CustomOption,std::allocator<CvPreGame::CustomOption> >
; Function compile flags: /Ogtpy
; File c:\program files (x86)\microsoft visual studio 9.0\vc\include\vector
;	COMDAT ??0?$_Vector_const_iterator@VCustomOption@CvPreGame@@V?$allocator@VCustomOption@CvPreGame@@@std@@@std@@QAE@PAVCustomOption@CvPreGame@@@Z
_TEXT	SEGMENT
__Ptr$ = 8						; size = 4
??0?$_Vector_const_iterator@VCustomOption@CvPreGame@@V?$allocator@VCustomOption@CvPreGame@@@std@@@std@@QAE@PAVCustomOption@CvPreGame@@@Z PROC ; std::_Vector_const_iterator<CvPreGame::CustomOption,std::allocator<CvPreGame::CustomOption> >::_Vector_const_iterator<CvPreGame::CustomOption,std::allocator<CvPreGame::CustomOption> >, COMDAT
; _this$ = ecx

; 84   : 	explicit _Vector_const_iterator(_Tptr _Ptr)

	mov	eax, ecx

; 85   : 		{	// construct with pointer _Ptr
; 86   : 		_Myptr = _Ptr;

	mov	ecx, DWORD PTR __Ptr$[esp-4]
	mov	DWORD PTR [eax], ecx

; 87   : 		}

	ret	4
??0?$_Vector_const_iterator@VCustomOption@CvPreGame@@V?$allocator@VCustomOption@CvPreGame@@@std@@@std@@QAE@PAVCustomOption@CvPreGame@@@Z ENDP ; std::_Vector_const_iterator<CvPreGame::CustomOption,std::allocator<CvPreGame::CustomOption> >::_Vector_const_iterator<CvPreGame::CustomOption,std::allocator<CvPreGame::CustomOption> >
_TEXT	ENDS
PUBLIC	??8?$_Vector_const_iterator@VCustomOption@CvPreGame@@V?$allocator@VCustomOption@CvPreGame@@@std@@@std@@QBE_NABV01@@Z ; std::_Vector_const_iterator<CvPreGame::CustomOption,std::allocator<CvPreGame::CustomOption> >::operator==
; Function compile flags: /Ogtpy
;	COMDAT ??8?$_Vector_const_iterator@VCustomOption@CvPreGame@@V?$allocator@VCustomOption@CvPreGame@@@std@@@std@@QBE_NABV01@@Z
_TEXT	SEGMENT
__Right$ = 8						; size = 4
??8?$_Vector_const_iterator@VCustomOption@CvPreGame@@V?$allocator@VCustomOption@CvPreGame@@@std@@@std@@QBE_NABV01@@Z PROC ; std::_Vector_const_iterator<CvPreGame::CustomOption,std::allocator<CvPreGame::CustomOption> >::operator==, COMDAT
; _this$ = ecx

; 204  : 
; 205  :  #if _HAS_ITERATOR_DEBUGGING
; 206  : 		_Compat(_Right);
; 207  :  #else
; 208  : 		_SCL_SECURE_VALIDATE(this->_Has_container() && this->_Same_container(_Right));
; 209  :  #endif /* _HAS_ITERATOR_DEBUGGING */
; 210  : 
; 211  : 		return (_Myptr == _Right._Myptr);

	mov	eax, DWORD PTR [ecx]
	mov	edx, DWORD PTR __Right$[esp-4]
	xor	ecx, ecx
	cmp	eax, DWORD PTR [edx]
	sete	cl
	mov	al, cl

; 212  : 		}

	ret	4
??8?$_Vector_const_iterator@VCustomOption@CvPreGame@@V?$allocator@VCustomOption@CvPreGame@@@std@@@std@@QBE_NABV01@@Z ENDP ; std::_Vector_const_iterator<CvPreGame::CustomOption,std::allocator<CvPreGame::CustomOption> >::operator==
_TEXT	ENDS
PUBLIC	??_7bad_alloc@std@@6B@				; std::bad_alloc::`vftable'
PUBLIC	??0bad_alloc@std@@QAE@PBD@Z			; std::bad_alloc::bad_alloc
PUBLIC	??_R4bad_alloc@std@@6B@				; std::bad_alloc::`RTTI Complete Object Locator'
PUBLIC	??_R0?AVbad_alloc@std@@@8			; std::bad_alloc `RTTI Type Descriptor'
PUBLIC	??_R3bad_alloc@std@@8				; std::bad_alloc::`RTTI Class Hierarchy Descriptor'
PUBLIC	??_R2bad_alloc@std@@8				; std::bad_alloc::`RTTI Base Class Array'
PUBLIC	??_R1A@?0A@EA@bad_alloc@std@@8			; std::bad_alloc::`RTTI Base Class Descriptor at (0,-1,0,64)'
PUBLIC	??_R1A@?0A@EA@exception@std@@8			; std::exception::`RTTI Base Class Descriptor at (0,-1,0,64)'
PUBLIC	??_R0?AVexception@std@@@8			; std::exception `RTTI Type Descriptor'
PUBLIC	??_R3exception@std@@8				; std::exception::`RTTI Class Hierarchy Descriptor'
PUBLIC	??_R2exception@std@@8				; std::exception::`RTTI Base Class Array'
EXTRN	__imp_??0exception@std@@QAE@ABQBD@Z:PROC
EXTRN	??_Ebad_alloc@std@@UAEPAXI@Z:PROC		; std::bad_alloc::`vector deleting destructor'
EXTRN	?what@exception@std@@UBEPBDXZ:PROC		; std::exception::what
;	COMDAT ??_R2exception@std@@8
; File c:\program files (x86)\microsoft visual studio 9.0\vc\include\exception
rdata$r	SEGMENT
??_R2exception@std@@8 DD FLAT:??_R1A@?0A@EA@exception@std@@8 ; std::exception::`RTTI Base Class Array'
rdata$r	ENDS
;	COMDAT ??_R3exception@std@@8
rdata$r	SEGMENT
??_R3exception@std@@8 DD 00H				; std::exception::`RTTI Class Hierarchy Descriptor'
	DD	00H
	DD	01H
	DD	FLAT:??_R2exception@std@@8
rdata$r	ENDS
;	COMDAT ??_R0?AVexception@std@@@8
_DATA	SEGMENT
??_R0?AVexception@std@@@8 DD FLAT:??_7type_info@@6B@	; std::exception `RTTI Type Descriptor'
	DD	00H
	DB	'.?AVexception@std@@', 00H
_DATA	ENDS
;	COMDAT ??_R1A@?0A@EA@exception@std@@8
rdata$r	SEGMENT
??_R1A@?0A@EA@exception@std@@8 DD FLAT:??_R0?AVexception@std@@@8 ; std::exception::`RTTI Base Class Descriptor at (0,-1,0,64)'
	DD	00H
	DD	00H
	DD	0ffffffffH
	DD	00H
	DD	040H
	DD	FLAT:??_R3exception@std@@8
rdata$r	ENDS
;	COMDAT ??_R1A@?0A@EA@bad_alloc@std@@8
rdata$r	SEGMENT
??_R1A@?0A@EA@bad_alloc@std@@8 DD FLAT:??_R0?AVbad_alloc@std@@@8 ; std::bad_alloc::`RTTI Base Class Descriptor at (0,-1,0,64)'
	DD	01H
	DD	00H
	DD	0ffffffffH
	DD	00H
	DD	040H
	DD	FLAT:??_R3bad_alloc@std@@8
rdata$r	ENDS
;	COMDAT ??_R2bad_alloc@std@@8
rdata$r	SEGMENT
??_R2bad_alloc@std@@8 DD FLAT:??_R1A@?0A@EA@bad_alloc@std@@8 ; std::bad_alloc::`RTTI Base Class Array'
	DD	FLAT:??_R1A@?0A@EA@exception@std@@8
rdata$r	ENDS
;	COMDAT ??_R3bad_alloc@std@@8
rdata$r	SEGMENT
??_R3bad_alloc@std@@8 DD 00H				; std::bad_alloc::`RTTI Class Hierarchy Descriptor'
	DD	00H
	DD	02H
	DD	FLAT:??_R2bad_alloc@std@@8
rdata$r	ENDS
;	COMDAT ??_R0?AVbad_alloc@std@@@8
_DATA	SEGMENT
??_R0?AVbad_alloc@std@@@8 DD FLAT:??_7type_info@@6B@	; std::bad_alloc `RTTI Type Descriptor'
	DD	00H
	DB	'.?AVbad_alloc@std@@', 00H
_DATA	ENDS
;	COMDAT ??_R4bad_alloc@std@@6B@
rdata$r	SEGMENT
??_R4bad_alloc@std@@6B@ DD 00H				; std::bad_alloc::`RTTI Complete Object Locator'
	DD	00H
	DD	00H
	DD	FLAT:??_R0?AVbad_alloc@std@@@8
	DD	FLAT:??_R3bad_alloc@std@@8
rdata$r	ENDS
;	COMDAT ??_7bad_alloc@std@@6B@
CONST	SEGMENT
??_7bad_alloc@std@@6B@ DD FLAT:??_R4bad_alloc@std@@6B@	; std::bad_alloc::`vftable'
	DD	FLAT:??_Ebad_alloc@std@@UAEPAXI@Z
	DD	FLAT:?what@exception@std@@UBEPBDXZ
; Function compile flags: /Ogtpy
CONST	ENDS
;	COMDAT ??0bad_alloc@std@@QAE@PBD@Z
_TEXT	SEGMENT
__Message$ = 8						; size = 4
??0bad_alloc@std@@QAE@PBD@Z PROC			; std::bad_alloc::bad_alloc, COMDAT
; _this$ = ecx

; 371  : 		{	// construct from message string

	push	esi
	lea	eax, DWORD PTR __Message$[esp]
	push	eax
	mov	esi, ecx
	call	DWORD PTR __imp_??0exception@std@@QAE@ABQBD@Z
	mov	DWORD PTR [esi], OFFSET ??_7bad_alloc@std@@6B@

; 372  : 		}

	mov	eax, esi
	pop	esi
	ret	4
??0bad_alloc@std@@QAE@PBD@Z ENDP			; std::bad_alloc::bad_alloc
_TEXT	ENDS
PUBLIC	?begin@?$vector@VCustomOption@CvPreGame@@V?$allocator@VCustomOption@CvPreGame@@@std@@@std@@QBE?AV?$_Vector_const_iterator@VCustomOption@CvPreGame@@V?$allocator@VCustomOption@CvPreGame@@@std@@@2@XZ ; std::vector<CvPreGame::CustomOption,std::allocator<CvPreGame::CustomOption> >::begin
; Function compile flags: /Ogtpy
; File c:\program files (x86)\microsoft visual studio 9.0\vc\include\vector
;	COMDAT ?begin@?$vector@VCustomOption@CvPreGame@@V?$allocator@VCustomOption@CvPreGame@@@std@@@std@@QBE?AV?$_Vector_const_iterator@VCustomOption@CvPreGame@@V?$allocator@VCustomOption@CvPreGame@@@std@@@2@XZ
_TEXT	SEGMENT
___$ReturnUdt$ = 8					; size = 4
?begin@?$vector@VCustomOption@CvPreGame@@V?$allocator@VCustomOption@CvPreGame@@@std@@@std@@QBE?AV?$_Vector_const_iterator@VCustomOption@CvPreGame@@V?$allocator@VCustomOption@CvPreGame@@@std@@@2@XZ PROC ; std::vector<CvPreGame::CustomOption,std::allocator<CvPreGame::CustomOption> >::begin, COMDAT
; _this$ = ecx

; 672  : 		return (const_iterator(_Myfirst));

	mov	ecx, DWORD PTR [ecx+4]
	mov	eax, DWORD PTR ___$ReturnUdt$[esp-4]
	mov	DWORD PTR [eax], ecx

; 673  : 		}

	ret	4
?begin@?$vector@VCustomOption@CvPreGame@@V?$allocator@VCustomOption@CvPreGame@@@std@@@std@@QBE?AV?$_Vector_const_iterator@VCustomOption@CvPreGame@@V?$allocator@VCustomOption@CvPreGame@@@std@@@2@XZ ENDP ; std::vector<CvPreGame::CustomOption,std::allocator<CvPreGame::CustomOption> >::begin
_TEXT	ENDS
PUBLIC	?end@?$vector@VCustomOption@CvPreGame@@V?$allocator@VCustomOption@CvPreGame@@@std@@@std@@QBE?AV?$_Vector_const_iterator@VCustomOption@CvPreGame@@V?$allocator@VCustomOption@CvPreGame@@@std@@@2@XZ ; std::vector<CvPreGame::CustomOption,std::allocator<CvPreGame::CustomOption> >::end
; Function compile flags: /Ogtpy
;	COMDAT ?end@?$vector@VCustomOption@CvPreGame@@V?$allocator@VCustomOption@CvPreGame@@@std@@@std@@QBE?AV?$_Vector_const_iterator@VCustomOption@CvPreGame@@V?$allocator@VCustomOption@CvPreGame@@@std@@@2@XZ
_TEXT	SEGMENT
___$ReturnUdt$ = 8					; size = 4
?end@?$vector@VCustomOption@CvPreGame@@V?$allocator@VCustomOption@CvPreGame@@@std@@@std@@QBE?AV?$_Vector_const_iterator@VCustomOption@CvPreGame@@V?$allocator@VCustomOption@CvPreGame@@@std@@@2@XZ PROC ; std::vector<CvPreGame::CustomOption,std::allocator<CvPreGame::CustomOption> >::end, COMDAT
; _this$ = ecx

; 682  : 		return (const_iterator(_Mylast));

	mov	ecx, DWORD PTR [ecx+8]
	mov	eax, DWORD PTR ___$ReturnUdt$[esp-4]
	mov	DWORD PTR [eax], ecx

; 683  : 		}

	ret	4
?end@?$vector@VCustomOption@CvPreGame@@V?$allocator@VCustomOption@CvPreGame@@@std@@@std@@QBE?AV?$_Vector_const_iterator@VCustomOption@CvPreGame@@V?$allocator@VCustomOption@CvPreGame@@@std@@@2@XZ ENDP ; std::vector<CvPreGame::CustomOption,std::allocator<CvPreGame::CustomOption> >::end
_TEXT	ENDS
PUBLIC	??1bad_alloc@std@@UAE@XZ			; std::bad_alloc::~bad_alloc
EXTRN	__imp_??1exception@std@@UAE@XZ:PROC
; Function compile flags: /Ogtpy
; File c:\program files (x86)\microsoft visual studio 9.0\vc\include\exception
;	COMDAT ??1bad_alloc@std@@UAE@XZ
_TEXT	SEGMENT
??1bad_alloc@std@@UAE@XZ PROC				; std::bad_alloc::~bad_alloc, COMDAT
; _this$ = ecx

; 380  : 		{	// destroy the object

	mov	DWORD PTR [ecx], OFFSET ??_7bad_alloc@std@@6B@

; 381  : 		}

	jmp	DWORD PTR __imp_??1exception@std@@UAE@XZ
??1bad_alloc@std@@UAE@XZ ENDP				; std::bad_alloc::~bad_alloc
; Function compile flags: /Ogtpy
_TEXT	ENDS
;	COMDAT ??_Gbad_alloc@std@@UAEPAXI@Z
_TEXT	SEGMENT
___flags$ = 8						; size = 4
??_Gbad_alloc@std@@UAEPAXI@Z PROC			; std::bad_alloc::`scalar deleting destructor', COMDAT
; _this$ = ecx
	push	esi
	mov	esi, ecx
	mov	DWORD PTR [esi], OFFSET ??_7bad_alloc@std@@6B@
	call	DWORD PTR __imp_??1exception@std@@UAE@XZ
	test	BYTE PTR ___flags$[esp], 1
	je	SHORT $LN6@scalar
	push	esi
	call	??3@YAXPAX@Z				; operator delete
	add	esp, 4
$LN6@scalar:
	mov	eax, esi
	pop	esi
	ret	4
??_Gbad_alloc@std@@UAEPAXI@Z ENDP			; std::bad_alloc::`scalar deleting destructor'
_TEXT	ENDS
PUBLIC	??2@YAPAXIPAX@Z					; operator new
; Function compile flags: /Ogtpy
; File c:\program files (x86)\microsoft visual studio 9.0\vc\include\new
;	COMDAT ??2@YAPAXIPAX@Z
_TEXT	SEGMENT
___formal$ = 8						; size = 4
__Where$ = 12						; size = 4
??2@YAPAXIPAX@Z PROC					; operator new, COMDAT

; 59   : 	return (_Where);

	mov	eax, DWORD PTR __Where$[esp-4]

; 60   : 	}

	ret	0
??2@YAPAXIPAX@Z ENDP					; operator new
_TEXT	ENDS
PUBLIC	??3@YAXPAX0@Z					; operator delete
; Function compile flags: /Ogtpy
;	COMDAT ??3@YAXPAX0@Z
_TEXT	SEGMENT
___formal$ = 8						; size = 4
___formal$ = 12						; size = 4
??3@YAXPAX0@Z PROC					; operator delete, COMDAT

; 64   : 	}

	ret	0
??3@YAXPAX0@Z ENDP					; operator delete
_TEXT	ENDS
PUBLIC	??$_Iter_random@PAVCustomOption@CvPreGame@@PAV12@@std@@YA?AUrandom_access_iterator_tag@0@ABQAVCustomOption@CvPreGame@@0@Z ; std::_Iter_random<CvPreGame::CustomOption *,CvPreGame::CustomOption *>
; Function compile flags: /Ogtpy
; File c:\program files (x86)\microsoft visual studio 9.0\vc\include\xutility
;	COMDAT ??$_Iter_random@PAVCustomOption@CvPreGame@@PAV12@@std@@YA?AUrandom_access_iterator_tag@0@ABQAVCustomOption@CvPreGame@@0@Z
_TEXT	SEGMENT
___$ReturnUdt$ = 8					; size = 4
___formal$ = 12						; size = 4
___formal$ = 16						; size = 4
??$_Iter_random@PAVCustomOption@CvPreGame@@PAV12@@std@@YA?AUrandom_access_iterator_tag@0@ABQAVCustomOption@CvPreGame@@0@Z PROC ; std::_Iter_random<CvPreGame::CustomOption *,CvPreGame::CustomOption *>, COMDAT

; 994  : 	typename _Iter_random_helper<
; 995  : 		iterator_traits<_Iter1>::iterator_category, 
; 996  : 		iterator_traits<_Iter2>::iterator_category>::_Iter_random_cat _Cat;
; 997  : 	return (_Cat);

	mov	eax, DWORD PTR ___$ReturnUdt$[esp-4]

; 998  : 	}

	ret	0
??$_Iter_random@PAVCustomOption@CvPreGame@@PAV12@@std@@YA?AUrandom_access_iterator_tag@0@ABQAVCustomOption@CvPreGame@@0@Z ENDP ; std::_Iter_random<CvPreGame::CustomOption *,CvPreGame::CustomOption *>
_TEXT	ENDS
PUBLIC	??$_Ptr_cat@PAVCustomOption@CvPreGame@@PAV12@@std@@YA?AU_Nonscalar_ptr_iterator_tag@0@AAPAVCustomOption@CvPreGame@@0@Z ; std::_Ptr_cat<CvPreGame::CustomOption *,CvPreGame::CustomOption *>
; Function compile flags: /Ogtpy
;	COMDAT ??$_Ptr_cat@PAVCustomOption@CvPreGame@@PAV12@@std@@YA?AU_Nonscalar_ptr_iterator_tag@0@AAPAVCustomOption@CvPreGame@@0@Z
_TEXT	SEGMENT
__Cat$ = -1						; size = 1
___formal$ = 8						; size = 4
___formal$ = 12						; size = 4
??$_Ptr_cat@PAVCustomOption@CvPreGame@@PAV12@@std@@YA?AU_Nonscalar_ptr_iterator_tag@0@AAPAVCustomOption@CvPreGame@@0@Z PROC ; std::_Ptr_cat<CvPreGame::CustomOption *,CvPreGame::CustomOption *>, COMDAT

; 1509 : 	{

	push	ecx

; 1510 : 	typename _Ptr_cat_helper<_T1, _T2>::_Ptr_cat _Cat;
; 1511 : 	return (_Cat);

	mov	al, BYTE PTR __Cat$[esp+4]

; 1512 : 	}

	pop	ecx
	ret	0
??$_Ptr_cat@PAVCustomOption@CvPreGame@@PAV12@@std@@YA?AU_Nonscalar_ptr_iterator_tag@0@AAPAVCustomOption@CvPreGame@@0@Z ENDP ; std::_Ptr_cat<CvPreGame::CustomOption *,CvPreGame::CustomOption *>
_TEXT	ENDS
PUBLIC	??$_Copy_opt@PAVCustomOption@CvPreGame@@PAV12@Urandom_access_iterator_tag@std@@@std@@YAPAVCustomOption@CvPreGame@@PAV12@00Urandom_access_iterator_tag@0@U_Nonscalar_ptr_iterator_tag@0@U_Range_checked_iterator_tag@0@@Z ; std::_Copy_opt<CvPreGame::CustomOption *,CvPreGame::CustomOption *,std::random_access_iterator_tag>
EXTRN	??4CustomOption@CvPreGame@@QAEAAV01@ABV01@@Z:PROC ; CvPreGame::CustomOption::operator=
; Function compile flags: /Ogtpy
;	COMDAT ??$_Copy_opt@PAVCustomOption@CvPreGame@@PAV12@Urandom_access_iterator_tag@std@@@std@@YAPAVCustomOption@CvPreGame@@PAV12@00Urandom_access_iterator_tag@0@U_Nonscalar_ptr_iterator_tag@0@U_Range_checked_iterator_tag@0@@Z
_TEXT	SEGMENT
__First$ = 8						; size = 4
__Last$ = 12						; size = 4
__Dest$ = 16						; size = 4
___formal$ = 20						; size = 1
___formal$ = 24						; size = 1
___formal$ = 28						; size = 1
??$_Copy_opt@PAVCustomOption@CvPreGame@@PAV12@Urandom_access_iterator_tag@std@@@std@@YAPAVCustomOption@CvPreGame@@PAV12@00Urandom_access_iterator_tag@0@U_Nonscalar_ptr_iterator_tag@0@U_Range_checked_iterator_tag@0@@Z PROC ; std::_Copy_opt<CvPreGame::CustomOption *,CvPreGame::CustomOption *,std::random_access_iterator_tag>, COMDAT

; 2469 : 	{	// copy [_First, _Last) to [_Dest, ...), arbitrary iterators

	push	ebx

; 2470 : 	_DEBUG_RANGE(_First, _Last);
; 2471 : 	for (; _First != _Last; ++_Dest, ++_First)

	mov	ebx, DWORD PTR __Last$[esp]
	push	esi
	mov	esi, DWORD PTR __First$[esp+4]
	cmp	esi, ebx
	je	SHORT $LN8@Copy_opt
	push	edi
	mov	edi, DWORD PTR __Dest$[esp+8]
$LL3@Copy_opt:

; 2472 : 		*_Dest = *_First;

	push	esi
	mov	ecx, edi
	call	??4CustomOption@CvPreGame@@QAEAAV01@ABV01@@Z ; CvPreGame::CustomOption::operator=
	add	esi, 68					; 00000044H
	add	edi, 68					; 00000044H
	cmp	esi, ebx
	jne	SHORT $LL3@Copy_opt

; 2473 : 	return (_Dest);

	mov	eax, edi
	pop	edi
	pop	esi
	pop	ebx

; 2474 : 	}

	ret	0
$LN8@Copy_opt:

; 2473 : 	return (_Dest);

	mov	eax, DWORD PTR __Dest$[esp+4]
	pop	esi
	pop	ebx

; 2474 : 	}

	ret	0
??$_Copy_opt@PAVCustomOption@CvPreGame@@PAV12@Urandom_access_iterator_tag@std@@@std@@YAPAVCustomOption@CvPreGame@@PAV12@00Urandom_access_iterator_tag@0@U_Nonscalar_ptr_iterator_tag@0@U_Range_checked_iterator_tag@0@@Z ENDP ; std::_Copy_opt<CvPreGame::CustomOption *,CvPreGame::CustomOption *,std::random_access_iterator_tag>
_TEXT	ENDS
PUBLIC	??D?$_Vector_const_iterator@VCustomOption@CvPreGame@@V?$allocator@VCustomOption@CvPreGame@@@std@@@std@@QBEABVCustomOption@CvPreGame@@XZ ; std::_Vector_const_iterator<CvPreGame::CustomOption,std::allocator<CvPreGame::CustomOption> >::operator*
; Function compile flags: /Ogtpy
; File c:\program files (x86)\microsoft visual studio 9.0\vc\include\vector
;	COMDAT ??D?$_Vector_const_iterator@VCustomOption@CvPreGame@@V?$allocator@VCustomOption@CvPreGame@@@std@@@std@@QBEABVCustomOption@CvPreGame@@XZ
_TEXT	SEGMENT
??D?$_Vector_const_iterator@VCustomOption@CvPreGame@@V?$allocator@VCustomOption@CvPreGame@@@std@@@std@@QBEABVCustomOption@CvPreGame@@XZ PROC ; std::_Vector_const_iterator<CvPreGame::CustomOption,std::allocator<CvPreGame::CustomOption> >::operator*, COMDAT
; _this$ = ecx

; 92   : 
; 93   :  #if _HAS_ITERATOR_DEBUGGING
; 94   : 		if (this->_Mycont == 0
; 95   : 			|| _Myptr < ((_Myvec *)this->_Mycont)->_Myfirst
; 96   : 			|| ((_Myvec *)this->_Mycont)->_Mylast <= _Myptr)
; 97   : 			{
; 98   : 			_DEBUG_ERROR("vector iterator not dereferencable");
; 99   : 			_SCL_SECURE_OUT_OF_RANGE;
; 100  : 			}
; 101  :  #else
; 102  :  		_SCL_SECURE_VALIDATE(this->_Has_container());
; 103  : 		_SCL_SECURE_VALIDATE_RANGE(_Myptr < ((_Myvec *)(this->_Getmycont()))->_Mylast);
; 104  :  #endif /* _HAS_ITERATOR_DEBUGGING */
; 105  : 
; 106  : 		return (*_Myptr);

	mov	eax, DWORD PTR [ecx]

; 107  : 		}

	ret	0
??D?$_Vector_const_iterator@VCustomOption@CvPreGame@@V?$allocator@VCustomOption@CvPreGame@@@std@@@std@@QBEABVCustomOption@CvPreGame@@XZ ENDP ; std::_Vector_const_iterator<CvPreGame::CustomOption,std::allocator<CvPreGame::CustomOption> >::operator*
_TEXT	ENDS
PUBLIC	??E?$_Vector_const_iterator@VCustomOption@CvPreGame@@V?$allocator@VCustomOption@CvPreGame@@@std@@@std@@QAEAAV01@XZ ; std::_Vector_const_iterator<CvPreGame::CustomOption,std::allocator<CvPreGame::CustomOption> >::operator++
; Function compile flags: /Ogtpy
;	COMDAT ??E?$_Vector_const_iterator@VCustomOption@CvPreGame@@V?$allocator@VCustomOption@CvPreGame@@@std@@@std@@QAEAAV01@XZ
_TEXT	SEGMENT
??E?$_Vector_const_iterator@VCustomOption@CvPreGame@@V?$allocator@VCustomOption@CvPreGame@@@std@@@std@@QAEAAV01@XZ PROC ; std::_Vector_const_iterator<CvPreGame::CustomOption,std::allocator<CvPreGame::CustomOption> >::operator++, COMDAT
; _this$ = ecx

; 115  : 		{	// preincrement

	mov	eax, ecx

; 116  : 		_SCL_SECURE_VALIDATE(this->_Has_container());
; 117  : 		_SCL_SECURE_VALIDATE_RANGE(_Myptr < ((_Myvec *)(this->_Getmycont()))->_Mylast);
; 118  : 
; 119  :  #if _HAS_ITERATOR_DEBUGGING
; 120  : 		if (this->_Mycont == 0
; 121  : 			|| ((_Myvec *)this->_Mycont)->_Mylast <= _Myptr)
; 122  : 			_DEBUG_ERROR("vector iterator not incrementable");
; 123  :  #endif /* _HAS_ITERATOR_DEBUGGING */
; 124  : 
; 125  : 		++_Myptr;

	add	DWORD PTR [eax], 68			; 00000044H

; 126  : 		return (*this);
; 127  : 		}

	ret	0
??E?$_Vector_const_iterator@VCustomOption@CvPreGame@@V?$allocator@VCustomOption@CvPreGame@@@std@@@std@@QAEAAV01@XZ ENDP ; std::_Vector_const_iterator<CvPreGame::CustomOption,std::allocator<CvPreGame::CustomOption> >::operator++
_TEXT	ENDS
PUBLIC	??R?$SerializeFromSequenceContainer@$$CBVCustomOption@CvPreGame@@$$CBV?$vector@VCustomOption@CvPreGame@@V?$allocator@VCustomOption@CvPreGame@@@std@@@std@@@@QAEXABVCustomOption@CvPreGame@@@Z ; SerializeFromSequenceContainer<CvPreGame::CustomOption const ,std::vector<CvPreGame::CustomOption,std::allocator<CvPreGame::CustomOption> > const >::operator()
EXTRN	??6CvPreGame@@YAAAVFDataStream@@AAV1@ABVCustomOption@0@@Z:PROC ; CvPreGame::operator<<
; Function compile flags: /Ogtpy
; File c:\users\enormousapplepie\documents\github\lekmod\lekmod_dll\fireplace\include\fireworks\fstlcontainerserialization.h
;	COMDAT ??R?$SerializeFromSequenceContainer@$$CBVCustomOption@CvPreGame@@$$CBV?$vector@VCustomOption@CvPreGame@@V?$allocator@VCustomOption@CvPreGame@@@std@@@std@@@@QAEXABVCustomOption@CvPreGame@@@Z
_TEXT	SEGMENT
_i$ = 8							; size = 4
??R?$SerializeFromSequenceContainer@$$CBVCustomOption@CvPreGame@@$$CBV?$vector@VCustomOption@CvPreGame@@V?$allocator@VCustomOption@CvPreGame@@@std@@@std@@@@QAEXABVCustomOption@CvPreGame@@@Z PROC ; SerializeFromSequenceContainer<CvPreGame::CustomOption const ,std::vector<CvPreGame::CustomOption,std::allocator<CvPreGame::CustomOption> > const >::operator(), COMDAT
; _this$ = ecx

; 75   : 		m_saveTo << i;

	mov	eax, DWORD PTR _i$[esp-4]
	mov	ecx, DWORD PTR [ecx]
	push	eax
	push	ecx
	call	??6CvPreGame@@YAAAVFDataStream@@AAV1@ABVCustomOption@0@@Z ; CvPreGame::operator<<
	add	esp, 8

; 76   : 	}

	ret	4
??R?$SerializeFromSequenceContainer@$$CBVCustomOption@CvPreGame@@$$CBV?$vector@VCustomOption@CvPreGame@@V?$allocator@VCustomOption@CvPreGame@@@std@@@std@@@@QAEXABVCustomOption@CvPreGame@@@Z ENDP ; SerializeFromSequenceContainer<CvPreGame::CustomOption const ,std::vector<CvPreGame::CustomOption,std::allocator<CvPreGame::CustomOption> > const >::operator()
_TEXT	ENDS
PUBLIC	??_7logic_error@std@@6B@			; std::logic_error::`vftable'
PUBLIC	??0logic_error@std@@QAE@ABV?$basic_string@DU?$char_traits@D@std@@V?$allocator@D@2@@1@@Z ; std::logic_error::logic_error
PUBLIC	??_R4logic_error@std@@6B@			; std::logic_error::`RTTI Complete Object Locator'
PUBLIC	??_R0?AVlogic_error@std@@@8			; std::logic_error `RTTI Type Descriptor'
PUBLIC	??_R3logic_error@std@@8				; std::logic_error::`RTTI Class Hierarchy Descriptor'
PUBLIC	??_R2logic_error@std@@8				; std::logic_error::`RTTI Base Class Array'
PUBLIC	??_R1A@?0A@EA@logic_error@std@@8		; std::logic_error::`RTTI Base Class Descriptor at (0,-1,0,64)'
PUBLIC	?what@logic_error@std@@UBEPBDXZ			; std::logic_error::what
EXTRN	__imp_??0?$basic_string@DU?$char_traits@D@std@@V?$allocator@D@2@@std@@QAE@ABV01@@Z:PROC
EXTRN	__imp_??0exception@std@@QAE@XZ:PROC
EXTRN	___CxxFrameHandler3:PROC
EXTRN	??_Elogic_error@std@@UAEPAXI@Z:PROC		; std::logic_error::`vector deleting destructor'
;	COMDAT ??_R1A@?0A@EA@logic_error@std@@8
; File c:\program files (x86)\microsoft visual studio 9.0\vc\include\stdexcept
rdata$r	SEGMENT
??_R1A@?0A@EA@logic_error@std@@8 DD FLAT:??_R0?AVlogic_error@std@@@8 ; std::logic_error::`RTTI Base Class Descriptor at (0,-1,0,64)'
	DD	01H
	DD	00H
	DD	0ffffffffH
	DD	00H
	DD	040H
	DD	FLAT:??_R3logic_error@std@@8
rdata$r	ENDS
;	COMDAT ??_R2logic_error@std@@8
rdata$r	SEGMENT
??_R2logic_error@std@@8 DD FLAT:??_R1A@?0A@EA@logic_error@std@@8 ; std::logic_error::`RTTI Base Class Array'
	DD	FLAT:??_R1A@?0A@EA@exception@std@@8
rdata$r	ENDS
;	COMDAT ??_R3logic_error@std@@8
rdata$r	SEGMENT
??_R3logic_error@std@@8 DD 00H				; std::logic_error::`RTTI Class Hierarchy Descriptor'
	DD	00H
	DD	02H
	DD	FLAT:??_R2logic_error@std@@8
rdata$r	ENDS
;	COMDAT ??_R0?AVlogic_error@std@@@8
_DATA	SEGMENT
??_R0?AVlogic_error@std@@@8 DD FLAT:??_7type_info@@6B@	; std::logic_error `RTTI Type Descriptor'
	DD	00H
	DB	'.?AVlogic_error@std@@', 00H
_DATA	ENDS
;	COMDAT ??_R4logic_error@std@@6B@
rdata$r	SEGMENT
??_R4logic_error@std@@6B@ DD 00H			; std::logic_error::`RTTI Complete Object Locator'
	DD	00H
	DD	00H
	DD	FLAT:??_R0?AVlogic_error@std@@@8
	DD	FLAT:??_R3logic_error@std@@8
rdata$r	ENDS
;	COMDAT ??_7logic_error@std@@6B@
CONST	SEGMENT
??_7logic_error@std@@6B@ DD FLAT:??_R4logic_error@std@@6B@ ; std::logic_error::`vftable'
	DD	FLAT:??_Elogic_error@std@@UAEPAXI@Z
	DD	FLAT:?what@logic_error@std@@UBEPBDXZ
CONST	ENDS
;	COMDAT xdata$x
xdata$x	SEGMENT
__unwindtable$??0logic_error@std@@QAE@ABV?$basic_string@DU?$char_traits@D@std@@V?$allocator@D@2@@1@@Z DD 0ffffffffH
	DD	FLAT:__unwindfunclet$??0logic_error@std@@QAE@ABV?$basic_string@DU?$char_traits@D@std@@V?$allocator@D@2@@1@@Z$0
__ehfuncinfo$??0logic_error@std@@QAE@ABV?$basic_string@DU?$char_traits@D@std@@V?$allocator@D@2@@1@@Z DD 019930522H
	DD	01H
	DD	FLAT:__unwindtable$??0logic_error@std@@QAE@ABV?$basic_string@DU?$char_traits@D@std@@V?$allocator@D@2@@1@@Z
	DD	2 DUP(00H)
	DD	2 DUP(00H)
	DD	00H
	DD	01H
; Function compile flags: /Ogtpy
xdata$x	ENDS
;	COMDAT ??0logic_error@std@@QAE@ABV?$basic_string@DU?$char_traits@D@std@@V?$allocator@D@2@@1@@Z
_TEXT	SEGMENT
_this$ = -16						; size = 4
__$EHRec$ = -12						; size = 12
__Message$ = 8						; size = 4
??0logic_error@std@@QAE@ABV?$basic_string@DU?$char_traits@D@std@@V?$allocator@D@2@@1@@Z PROC ; std::logic_error::logic_error, COMDAT
; _this$ = ecx

; 26   : 		{	// construct from message string

	push	-1
	push	__ehhandler$??0logic_error@std@@QAE@ABV?$basic_string@DU?$char_traits@D@std@@V?$allocator@D@2@@1@@Z
	mov	eax, DWORD PTR fs:0
	push	eax
	mov	DWORD PTR fs:0, esp
	push	ecx
	push	esi
	mov	esi, ecx
	mov	DWORD PTR _this$[esp+20], esi
	call	DWORD PTR __imp_??0exception@std@@QAE@XZ
	mov	eax, DWORD PTR __Message$[esp+16]
	push	eax
	lea	ecx, DWORD PTR [esi+12]
	mov	DWORD PTR __$EHRec$[esp+32], 0
	mov	DWORD PTR [esi], OFFSET ??_7logic_error@std@@6B@
	call	DWORD PTR __imp_??0?$basic_string@DU?$char_traits@D@std@@V?$allocator@D@2@@std@@QAE@ABV01@@Z

; 27   : 		}

	mov	ecx, DWORD PTR __$EHRec$[esp+20]
	mov	eax, esi
	pop	esi
	mov	DWORD PTR fs:0, ecx
	add	esp, 16					; 00000010H
	ret	4
_TEXT	ENDS
;	COMDAT text$x
text$x	SEGMENT
__unwindfunclet$??0logic_error@std@@QAE@ABV?$basic_string@DU?$char_traits@D@std@@V?$allocator@D@2@@1@@Z$0:
	mov	ecx, DWORD PTR _this$[ebp]
	jmp	DWORD PTR __imp_??1exception@std@@UAE@XZ
__ehhandler$??0logic_error@std@@QAE@ABV?$basic_string@DU?$char_traits@D@std@@V?$allocator@D@2@@1@@Z:
	mov	eax, OFFSET __ehfuncinfo$??0logic_error@std@@QAE@ABV?$basic_string@DU?$char_traits@D@std@@V?$allocator@D@2@@1@@Z
	jmp	___CxxFrameHandler3
text$x	ENDS
??0logic_error@std@@QAE@ABV?$basic_string@DU?$char_traits@D@std@@V?$allocator@D@2@@1@@Z ENDP ; std::logic_error::logic_error
PUBLIC	??1logic_error@std@@UAE@XZ			; std::logic_error::~logic_error
EXTRN	__imp_??1?$basic_string@DU?$char_traits@D@std@@V?$allocator@D@2@@std@@QAE@XZ:PROC
; Function compile flags: /Ogtpy
;	COMDAT ??1logic_error@std@@UAE@XZ
_TEXT	SEGMENT
??1logic_error@std@@UAE@XZ PROC				; std::logic_error::~logic_error, COMDAT
; _this$ = ecx

; 30   : 		{	// destroy the object

	push	esi
	mov	esi, ecx

; 31   : 		}

	lea	ecx, DWORD PTR [esi+12]
	mov	DWORD PTR [esi], OFFSET ??_7logic_error@std@@6B@
	call	DWORD PTR __imp_??1?$basic_string@DU?$char_traits@D@std@@V?$allocator@D@2@@std@@QAE@XZ
	mov	ecx, esi
	pop	esi
	jmp	DWORD PTR __imp_??1exception@std@@UAE@XZ
??1logic_error@std@@UAE@XZ ENDP				; std::logic_error::~logic_error
; Function compile flags: /Ogtpy
_TEXT	ENDS
;	COMDAT ?what@logic_error@std@@UBEPBDXZ
_TEXT	SEGMENT
?what@logic_error@std@@UBEPBDXZ PROC			; std::logic_error::what, COMDAT
; _this$ = ecx

; 35   : 		return (_Str.c_str());

	add	ecx, 12					; 0000000cH
	jmp	DWORD PTR __imp_?c_str@?$basic_string@DU?$char_traits@D@std@@V?$allocator@D@2@@std@@QBEPBDXZ
?what@logic_error@std@@UBEPBDXZ ENDP			; std::logic_error::what
; Function compile flags: /Ogtpy
_TEXT	ENDS
;	COMDAT ??_Glogic_error@std@@UAEPAXI@Z
_TEXT	SEGMENT
___flags$ = 8						; size = 4
??_Glogic_error@std@@UAEPAXI@Z PROC			; std::logic_error::`scalar deleting destructor', COMDAT
; _this$ = ecx
	push	esi
	mov	esi, ecx
	lea	ecx, DWORD PTR [esi+12]
	mov	DWORD PTR [esi], OFFSET ??_7logic_error@std@@6B@
	call	DWORD PTR __imp_??1?$basic_string@DU?$char_traits@D@std@@V?$allocator@D@2@@std@@QAE@XZ
	mov	ecx, esi
	call	DWORD PTR __imp_??1exception@std@@UAE@XZ
	test	BYTE PTR ___flags$[esp], 1
	je	SHORT $LN6@scalar@2
	push	esi
	call	??3@YAXPAX@Z				; operator delete
	add	esp, 4
$LN6@scalar@2:
	mov	eax, esi
	pop	esi
	ret	4
??_Glogic_error@std@@UAEPAXI@Z ENDP			; std::logic_error::`scalar deleting destructor'
_TEXT	ENDS
PUBLIC	??_7length_error@std@@6B@			; std::length_error::`vftable'
PUBLIC	??0length_error@std@@QAE@ABV?$basic_string@DU?$char_traits@D@std@@V?$allocator@D@2@@1@@Z ; std::length_error::length_error
PUBLIC	??_R4length_error@std@@6B@			; std::length_error::`RTTI Complete Object Locator'
PUBLIC	??_R0?AVlength_error@std@@@8			; std::length_error `RTTI Type Descriptor'
PUBLIC	??_R3length_error@std@@8			; std::length_error::`RTTI Class Hierarchy Descriptor'
PUBLIC	??_R2length_error@std@@8			; std::length_error::`RTTI Base Class Array'
PUBLIC	??_R1A@?0A@EA@length_error@std@@8		; std::length_error::`RTTI Base Class Descriptor at (0,-1,0,64)'
EXTRN	??_Elength_error@std@@UAEPAXI@Z:PROC		; std::length_error::`vector deleting destructor'
;	COMDAT ??_R1A@?0A@EA@length_error@std@@8
rdata$r	SEGMENT
??_R1A@?0A@EA@length_error@std@@8 DD FLAT:??_R0?AVlength_error@std@@@8 ; std::length_error::`RTTI Base Class Descriptor at (0,-1,0,64)'
	DD	02H
	DD	00H
	DD	0ffffffffH
	DD	00H
	DD	040H
	DD	FLAT:??_R3length_error@std@@8
rdata$r	ENDS
;	COMDAT ??_R2length_error@std@@8
rdata$r	SEGMENT
??_R2length_error@std@@8 DD FLAT:??_R1A@?0A@EA@length_error@std@@8 ; std::length_error::`RTTI Base Class Array'
	DD	FLAT:??_R1A@?0A@EA@logic_error@std@@8
	DD	FLAT:??_R1A@?0A@EA@exception@std@@8
rdata$r	ENDS
;	COMDAT ??_R3length_error@std@@8
rdata$r	SEGMENT
??_R3length_error@std@@8 DD 00H				; std::length_error::`RTTI Class Hierarchy Descriptor'
	DD	00H
	DD	03H
	DD	FLAT:??_R2length_error@std@@8
rdata$r	ENDS
;	COMDAT ??_R0?AVlength_error@std@@@8
_DATA	SEGMENT
??_R0?AVlength_error@std@@@8 DD FLAT:??_7type_info@@6B@	; std::length_error `RTTI Type Descriptor'
	DD	00H
	DB	'.?AVlength_error@std@@', 00H
_DATA	ENDS
;	COMDAT ??_R4length_error@std@@6B@
rdata$r	SEGMENT
??_R4length_error@std@@6B@ DD 00H			; std::length_error::`RTTI Complete Object Locator'
	DD	00H
	DD	00H
	DD	FLAT:??_R0?AVlength_error@std@@@8
	DD	FLAT:??_R3length_error@std@@8
rdata$r	ENDS
;	COMDAT ??_7length_error@std@@6B@
CONST	SEGMENT
??_7length_error@std@@6B@ DD FLAT:??_R4length_error@std@@6B@ ; std::length_error::`vftable'
	DD	FLAT:??_Elength_error@std@@UAEPAXI@Z
	DD	FLAT:?what@logic_error@std@@UBEPBDXZ
; Function compile flags: /Ogtpy
CONST	ENDS
;	COMDAT ??0length_error@std@@QAE@ABV?$basic_string@DU?$char_traits@D@std@@V?$allocator@D@2@@1@@Z
_TEXT	SEGMENT
__Message$ = 8						; size = 4
??0length_error@std@@QAE@ABV?$basic_string@DU?$char_traits@D@std@@V?$allocator@D@2@@1@@Z PROC ; std::length_error::length_error, COMDAT
; _this$ = ecx

; 105  : 		{	// construct from message string

	mov	eax, DWORD PTR __Message$[esp-4]
	push	esi
	push	eax
	mov	esi, ecx
	call	??0logic_error@std@@QAE@ABV?$basic_string@DU?$char_traits@D@std@@V?$allocator@D@2@@1@@Z ; std::logic_error::logic_error
	mov	DWORD PTR [esi], OFFSET ??_7length_error@std@@6B@

; 106  : 		}

	mov	eax, esi
	pop	esi
	ret	4
??0length_error@std@@QAE@ABV?$basic_string@DU?$char_traits@D@std@@V?$allocator@D@2@@1@@Z ENDP ; std::length_error::length_error
_TEXT	ENDS
PUBLIC	??1length_error@std@@UAE@XZ			; std::length_error::~length_error
; Function compile flags: /Ogtpy
;	COMDAT ??1length_error@std@@UAE@XZ
_TEXT	SEGMENT
??1length_error@std@@UAE@XZ PROC			; std::length_error::~length_error, COMDAT
; _this$ = ecx

; 109  : 		{	// destroy the object

	push	esi
	mov	esi, ecx

; 110  : 		}

	lea	ecx, DWORD PTR [esi+12]
	mov	DWORD PTR [esi], OFFSET ??_7logic_error@std@@6B@
	call	DWORD PTR __imp_??1?$basic_string@DU?$char_traits@D@std@@V?$allocator@D@2@@std@@QAE@XZ
	mov	ecx, esi
	pop	esi
	jmp	DWORD PTR __imp_??1exception@std@@UAE@XZ
??1length_error@std@@UAE@XZ ENDP			; std::length_error::~length_error
; Function compile flags: /Ogtpy
_TEXT	ENDS
;	COMDAT ??_Glength_error@std@@UAEPAXI@Z
_TEXT	SEGMENT
___flags$ = 8						; size = 4
??_Glength_error@std@@UAEPAXI@Z PROC			; std::length_error::`scalar deleting destructor', COMDAT
; _this$ = ecx
	push	esi
	mov	esi, ecx
	lea	ecx, DWORD PTR [esi+12]
	mov	DWORD PTR [esi], OFFSET ??_7logic_error@std@@6B@
	call	DWORD PTR __imp_??1?$basic_string@DU?$char_traits@D@std@@V?$allocator@D@2@@std@@QAE@XZ
	mov	ecx, esi
	call	DWORD PTR __imp_??1exception@std@@UAE@XZ
	test	BYTE PTR ___flags$[esp], 1
	je	SHORT $LN8@scalar@3
	push	esi
	call	??3@YAXPAX@Z				; operator delete
	add	esp, 4
$LN8@scalar@3:
	mov	eax, esi
	pop	esi
	ret	4
??_Glength_error@std@@UAEPAXI@Z ENDP			; std::length_error::`scalar deleting destructor'
_TEXT	ENDS
PUBLIC	??G?$_Vector_const_iterator@VCustomOption@CvPreGame@@V?$allocator@VCustomOption@CvPreGame@@@std@@@std@@QBEHABV01@@Z ; std::_Vector_const_iterator<CvPreGame::CustomOption,std::allocator<CvPreGame::CustomOption> >::operator-
; Function compile flags: /Ogtpy
; File c:\program files (x86)\microsoft visual studio 9.0\vc\include\vector
;	COMDAT ??G?$_Vector_const_iterator@VCustomOption@CvPreGame@@V?$allocator@VCustomOption@CvPreGame@@@std@@@std@@QBEHABV01@@Z
_TEXT	SEGMENT
__Right$ = 8						; size = 4
??G?$_Vector_const_iterator@VCustomOption@CvPreGame@@V?$allocator@VCustomOption@CvPreGame@@@std@@@std@@QBEHABV01@@Z PROC ; std::_Vector_const_iterator<CvPreGame::CustomOption,std::allocator<CvPreGame::CustomOption> >::operator-, COMDAT
; _this$ = ecx

; 187  : 
; 188  :  #if _HAS_ITERATOR_DEBUGGING
; 189  : 		_Compat(_Right);
; 190  :  #else
; 191  : 		_SCL_SECURE_VALIDATE(this->_Has_container() && this->_Same_container(_Right));
; 192  :  #endif /* _HAS_ITERATOR_DEBUGGING */
; 193  : 
; 194  : 		return (_Myptr - _Right._Myptr);

	mov	eax, DWORD PTR __Right$[esp-4]
	mov	ecx, DWORD PTR [ecx]
	sub	ecx, DWORD PTR [eax]
	mov	eax, 2021161081				; 78787879H
	imul	ecx
	sar	edx, 5
	mov	eax, edx
	shr	eax, 31					; 0000001fH
	add	eax, edx

; 195  : 		}

	ret	4
??G?$_Vector_const_iterator@VCustomOption@CvPreGame@@V?$allocator@VCustomOption@CvPreGame@@@std@@@std@@QBEHABV01@@Z ENDP ; std::_Vector_const_iterator<CvPreGame::CustomOption,std::allocator<CvPreGame::CustomOption> >::operator-
_TEXT	ENDS
PUBLIC	??Y?$_Vector_const_iterator@VCustomOption@CvPreGame@@V?$allocator@VCustomOption@CvPreGame@@@std@@@std@@QAEAAV01@H@Z ; std::_Vector_const_iterator<CvPreGame::CustomOption,std::allocator<CvPreGame::CustomOption> >::operator+=
; Function compile flags: /Ogtpy
;	COMDAT ??Y?$_Vector_const_iterator@VCustomOption@CvPreGame@@V?$allocator@VCustomOption@CvPreGame@@@std@@@std@@QAEAAV01@H@Z
_TEXT	SEGMENT
__Off$ = 8						; size = 4
??Y?$_Vector_const_iterator@VCustomOption@CvPreGame@@V?$allocator@VCustomOption@CvPreGame@@@std@@@std@@QAEAAV01@H@Z PROC ; std::_Vector_const_iterator<CvPreGame::CustomOption,std::allocator<CvPreGame::CustomOption> >::operator+=, COMDAT
; _this$ = ecx

; 159  : 		{	// increment by integer

	mov	eax, ecx

; 160  : 		_SCL_SECURE_VALIDATE(this->_Has_container());
; 161  : 		_SCL_SECURE_VALIDATE_RANGE(
; 162  : 			_Myptr + _Off <= ((_Myvec *)(this->_Getmycont()))->_Mylast &&
; 163  : 			_Myptr + _Off >= ((_Myvec *)(this->_Getmycont()))->_Myfirst);
; 164  : 		_Myptr += _Off;

	mov	ecx, DWORD PTR __Off$[esp-4]
	mov	edx, ecx
	shl	edx, 4
	add	edx, ecx
	add	edx, edx
	add	edx, edx
	add	DWORD PTR [eax], edx

; 165  : 		return (*this);
; 166  : 		}

	ret	4
??Y?$_Vector_const_iterator@VCustomOption@CvPreGame@@V?$allocator@VCustomOption@CvPreGame@@@std@@@std@@QAEAAV01@H@Z ENDP ; std::_Vector_const_iterator<CvPreGame::CustomOption,std::allocator<CvPreGame::CustomOption> >::operator+=
_TEXT	ENDS
PUBLIC	??$_Destroy@VCustomOption@CvPreGame@@@std@@YAXPAVCustomOption@CvPreGame@@@Z ; std::_Destroy<CvPreGame::CustomOption>
; Function compile flags: /Ogtpy
; File c:\program files (x86)\microsoft visual studio 9.0\vc\include\xmemory
;	COMDAT ??$_Destroy@VCustomOption@CvPreGame@@@std@@YAXPAVCustomOption@CvPreGame@@@Z
_TEXT	SEGMENT
__Ptr$ = 8						; size = 4
??$_Destroy@VCustomOption@CvPreGame@@@std@@YAXPAVCustomOption@CvPreGame@@@Z PROC ; std::_Destroy<CvPreGame::CustomOption>, COMDAT

; 59   : 	_DESTRUCTOR(_Ty, _Ptr);
; 60   : 	}

	ret	0
??$_Destroy@VCustomOption@CvPreGame@@@std@@YAXPAVCustomOption@CvPreGame@@@Z ENDP ; std::_Destroy<CvPreGame::CustomOption>
_TEXT	ENDS
PUBLIC	??$_Fill@PAVCustomOption@CvPreGame@@V12@@std@@YAXPAVCustomOption@CvPreGame@@0ABV12@@Z ; std::_Fill<CvPreGame::CustomOption *,CvPreGame::CustomOption>
; Function compile flags: /Ogtpy
; File c:\program files (x86)\microsoft visual studio 9.0\vc\include\xutility
;	COMDAT ??$_Fill@PAVCustomOption@CvPreGame@@V12@@std@@YAXPAVCustomOption@CvPreGame@@0ABV12@@Z
_TEXT	SEGMENT
__First$ = 8						; size = 4
__Last$ = 12						; size = 4
__Val$ = 16						; size = 4
??$_Fill@PAVCustomOption@CvPreGame@@V12@@std@@YAXPAVCustomOption@CvPreGame@@0ABV12@@Z PROC ; std::_Fill<CvPreGame::CustomOption *,CvPreGame::CustomOption>, COMDAT

; 3156 : 	{	// copy _Val through [_First, _Last)

	push	esi

; 3157 : 	_DEBUG_RANGE(_First, _Last);
; 3158 : 	for (; _First != _Last; ++_First)

	mov	esi, DWORD PTR __First$[esp]
	push	edi
	mov	edi, DWORD PTR __Last$[esp+4]
	cmp	esi, edi
	je	SHORT $LN1@Fill
	push	ebx
	mov	ebx, DWORD PTR __Val$[esp+8]
$LL3@Fill:

; 3159 : 		*_First = _Val;

	push	ebx
	mov	ecx, esi
	call	??4CustomOption@CvPreGame@@QAEAAV01@ABV01@@Z ; CvPreGame::CustomOption::operator=
	add	esi, 68					; 00000044H
	cmp	esi, edi
	jne	SHORT $LL3@Fill
	pop	ebx
$LN1@Fill:
	pop	edi
	pop	esi

; 3160 : 	}

	ret	0
??$_Fill@PAVCustomOption@CvPreGame@@V12@@std@@YAXPAVCustomOption@CvPreGame@@0ABV12@@Z ENDP ; std::_Fill<CvPreGame::CustomOption *,CvPreGame::CustomOption>
_TEXT	ENDS
PUBLIC	??$_Move_cat@PAVCustomOption@CvPreGame@@@std@@YA?AU_Undefined_move_tag@0@ABQAVCustomOption@CvPreGame@@@Z ; std::_Move_cat<CvPreGame::CustomOption *>
; Function compile flags: /Ogtpy
;	COMDAT ??$_Move_cat@PAVCustomOption@CvPreGame@@@std@@YA?AU_Undefined_move_tag@0@ABQAVCustomOption@CvPreGame@@@Z
_TEXT	SEGMENT
__Cat$ = -1						; size = 1
___formal$ = 8						; size = 4
??$_Move_cat@PAVCustomOption@CvPreGame@@@std@@YA?AU_Undefined_move_tag@0@ABQAVCustomOption@CvPreGame@@@Z PROC ; std::_Move_cat<CvPreGame::CustomOption *>, COMDAT

; 1200 : 	{

	push	ecx

; 1201 : 		typename _Move_operation_category<typename iterator_traits<_Iter>::value_type>::_Move_cat _Cat;
; 1202 : 		return (_Cat);

	mov	al, BYTE PTR __Cat$[esp+4]

; 1203 : 	}

	pop	ecx
	ret	0
??$_Move_cat@PAVCustomOption@CvPreGame@@@std@@YA?AU_Undefined_move_tag@0@ABQAVCustomOption@CvPreGame@@@Z ENDP ; std::_Move_cat<CvPreGame::CustomOption *>
_TEXT	ENDS
PUBLIC	??$_Construct@VCustomOption@CvPreGame@@V12@@std@@YAXPAVCustomOption@CvPreGame@@ABV12@@Z ; std::_Construct<CvPreGame::CustomOption,CvPreGame::CustomOption>
EXTRN	??0CustomOption@CvPreGame@@QAE@ABV01@@Z:PROC	; CvPreGame::CustomOption::CustomOption
;	COMDAT xdata$x
; File c:\program files (x86)\microsoft visual studio 9.0\vc\include\new
xdata$x	SEGMENT
__unwindtable$??$_Construct@VCustomOption@CvPreGame@@V12@@std@@YAXPAVCustomOption@CvPreGame@@ABV12@@Z DD 0ffffffffH
	DD	FLAT:__unwindfunclet$??$_Construct@VCustomOption@CvPreGame@@V12@@std@@YAXPAVCustomOption@CvPreGame@@ABV12@@Z$0
__ehfuncinfo$??$_Construct@VCustomOption@CvPreGame@@V12@@std@@YAXPAVCustomOption@CvPreGame@@ABV12@@Z DD 019930522H
	DD	01H
	DD	FLAT:__unwindtable$??$_Construct@VCustomOption@CvPreGame@@V12@@std@@YAXPAVCustomOption@CvPreGame@@ABV12@@Z
	DD	2 DUP(00H)
	DD	2 DUP(00H)
	DD	00H
	DD	01H
; Function compile flags: /Ogtpy
; File c:\program files (x86)\microsoft visual studio 9.0\vc\include\xmemory
xdata$x	ENDS
;	COMDAT ??$_Construct@VCustomOption@CvPreGame@@V12@@std@@YAXPAVCustomOption@CvPreGame@@ABV12@@Z
_TEXT	SEGMENT
$T220834 = -16						; size = 4
__$EHRec$ = -12						; size = 12
__Vptr$ = 8						; size = 4
__Ptr$ = 8						; size = 4
__Val$ = 12						; size = 4
??$_Construct@VCustomOption@CvPreGame@@V12@@std@@YAXPAVCustomOption@CvPreGame@@ABV12@@Z PROC ; std::_Construct<CvPreGame::CustomOption,CvPreGame::CustomOption>, COMDAT

; 50   : 	{	// construct object at _Ptr with value _Val

	push	-1
	push	__ehhandler$??$_Construct@VCustomOption@CvPreGame@@V12@@std@@YAXPAVCustomOption@CvPreGame@@ABV12@@Z
	mov	eax, DWORD PTR fs:0
	push	eax
	mov	DWORD PTR fs:0, esp
	push	ecx

; 51   : 	void _FARQ *_Vptr = _Ptr;

	mov	ecx, DWORD PTR __Ptr$[esp+12]
	mov	DWORD PTR __Vptr$[esp+12], ecx

; 52   : 	::new (_Vptr) _T1(_Val);

	mov	DWORD PTR $T220834[esp+16], ecx
	mov	DWORD PTR __$EHRec$[esp+24], 0
	test	ecx, ecx
	je	SHORT $LN3@Construct
	mov	eax, DWORD PTR __Val$[esp+12]
	push	eax
	call	??0CustomOption@CvPreGame@@QAE@ABV01@@Z	; CvPreGame::CustomOption::CustomOption
$LN3@Construct:

; 53   : 	}

	mov	ecx, DWORD PTR __$EHRec$[esp+16]
	mov	DWORD PTR fs:0, ecx
	add	esp, 16					; 00000010H
	ret	0
_TEXT	ENDS
;	COMDAT text$x
text$x	SEGMENT
__unwindfunclet$??$_Construct@VCustomOption@CvPreGame@@V12@@std@@YAXPAVCustomOption@CvPreGame@@ABV12@@Z$0:
	mov	eax, DWORD PTR __Vptr$[ebp-4]
	push	eax
	mov	ecx, DWORD PTR $T220834[ebp]
	push	ecx
	call	??3@YAXPAX0@Z				; operator delete
	add	esp, 8
	ret	0
__ehhandler$??$_Construct@VCustomOption@CvPreGame@@V12@@std@@YAXPAVCustomOption@CvPreGame@@ABV12@@Z:
	mov	eax, OFFSET __ehfuncinfo$??$_Construct@VCustomOption@CvPreGame@@V12@@std@@YAXPAVCustomOption@CvPreGame@@ABV12@@Z
	jmp	___CxxFrameHandler3
text$x	ENDS
??$_Construct@VCustomOption@CvPreGame@@V12@@std@@YAXPAVCustomOption@CvPreGame@@ABV12@@Z ENDP ; std::_Construct<CvPreGame::CustomOption,CvPreGame::CustomOption>
PUBLIC	??$_Copy_backward_opt@PAVCustomOption@CvPreGame@@PAV12@Urandom_access_iterator_tag@std@@@std@@YAPAVCustomOption@CvPreGame@@PAV12@00Urandom_access_iterator_tag@0@U_Nonscalar_ptr_iterator_tag@0@U_Range_checked_iterator_tag@0@@Z ; std::_Copy_backward_opt<CvPreGame::CustomOption *,CvPreGame::CustomOption *,std::random_access_iterator_tag>
; Function compile flags: /Ogtpy
; File c:\program files (x86)\microsoft visual studio 9.0\vc\include\xutility
;	COMDAT ??$_Copy_backward_opt@PAVCustomOption@CvPreGame@@PAV12@Urandom_access_iterator_tag@std@@@std@@YAPAVCustomOption@CvPreGame@@PAV12@00Urandom_access_iterator_tag@0@U_Nonscalar_ptr_iterator_tag@0@U_Range_checked_iterator_tag@0@@Z
_TEXT	SEGMENT
__First$ = 8						; size = 4
__Last$ = 12						; size = 4
__Dest$ = 16						; size = 4
___formal$ = 20						; size = 1
___formal$ = 24						; size = 1
___formal$ = 28						; size = 1
??$_Copy_backward_opt@PAVCustomOption@CvPreGame@@PAV12@Urandom_access_iterator_tag@std@@@std@@YAPAVCustomOption@CvPreGame@@PAV12@00Urandom_access_iterator_tag@0@U_Nonscalar_ptr_iterator_tag@0@U_Range_checked_iterator_tag@0@@Z PROC ; std::_Copy_backward_opt<CvPreGame::CustomOption *,CvPreGame::CustomOption *,std::random_access_iterator_tag>, COMDAT

; 2673 : 	{	// copy [_First, _Last) backwards to [..., _Dest), arbitrary iterators

	push	ebx

; 2674 : 	_DEBUG_RANGE(_First, _Last);
; 2675 : 	while (_First != _Last)

	mov	ebx, DWORD PTR __First$[esp]
	push	esi
	mov	esi, DWORD PTR __Last$[esp+4]
	cmp	ebx, esi
	je	SHORT $LN7@Copy_backw
	push	edi
	mov	edi, DWORD PTR __Dest$[esp+8]
$LL2@Copy_backw:

; 2676 : 		*--_Dest = *--_Last;

	sub	esi, 68					; 00000044H
	sub	edi, 68					; 00000044H
	push	esi
	mov	ecx, edi
	call	??4CustomOption@CvPreGame@@QAEAAV01@ABV01@@Z ; CvPreGame::CustomOption::operator=
	cmp	esi, ebx
	jne	SHORT $LL2@Copy_backw

; 2677 : 	return (_Dest);

	mov	eax, edi
	pop	edi
	pop	esi
	pop	ebx

; 2678 : 	}

	ret	0
$LN7@Copy_backw:

; 2677 : 	return (_Dest);

	mov	eax, DWORD PTR __Dest$[esp+4]
	pop	esi
	pop	ebx

; 2678 : 	}

	ret	0
??$_Copy_backward_opt@PAVCustomOption@CvPreGame@@PAV12@Urandom_access_iterator_tag@std@@@std@@YAPAVCustomOption@CvPreGame@@PAV12@00Urandom_access_iterator_tag@0@U_Nonscalar_ptr_iterator_tag@0@U_Range_checked_iterator_tag@0@@Z ENDP ; std::_Copy_backward_opt<CvPreGame::CustomOption *,CvPreGame::CustomOption *,std::random_access_iterator_tag>
_TEXT	ENDS
PUBLIC	??0CvString@@QAE@XZ				; CvString::CvString
EXTRN	__imp_??0?$basic_string@DU?$char_traits@D@std@@V?$allocator@D@2@@std@@QAE@XZ:PROC
; Function compile flags: /Ogtpy
; File c:\users\enormousapplepie\documents\github\lekmod\lekmod_dll\cvgamecoredllutil\include\cvstring.h
;	COMDAT ??0CvString@@QAE@XZ
_TEXT	SEGMENT
??0CvString@@QAE@XZ PROC				; CvString::CvString, COMDAT
; _this$ = ecx

; 23   : 	CvString() {}

	push	esi
	mov	esi, ecx
	call	DWORD PTR __imp_??0?$basic_string@DU?$char_traits@D@std@@V?$allocator@D@2@@std@@QAE@XZ
	mov	eax, esi
	pop	esi
	ret	0
??0CvString@@QAE@XZ ENDP				; CvString::CvString
_TEXT	ENDS
PUBLIC	??_C@_00CNPNBAHC@?$AA@				; `string'
PUBLIC	??0CvString@@QAE@PBD@Z				; CvString::CvString
EXTRN	__imp_??0?$basic_string@DU?$char_traits@D@std@@V?$allocator@D@2@@std@@QAE@PBD@Z:PROC
;	COMDAT ??_C@_00CNPNBAHC@?$AA@
CONST	SEGMENT
??_C@_00CNPNBAHC@?$AA@ DB 00H				; `string'
; Function compile flags: /Ogtpy
CONST	ENDS
;	COMDAT ??0CvString@@QAE@PBD@Z
_TEXT	SEGMENT
_s$ = 8							; size = 4
??0CvString@@QAE@PBD@Z PROC				; CvString::CvString, COMDAT
; _this$ = ecx

; 25   : 	CvString(const char* s) : std::string(s ? s : "") {CvAssertMsg(s != NULL, "Passing NULL to std::string; possible heap corruption!");}

	mov	eax, DWORD PTR _s$[esp-4]
	push	esi
	mov	esi, ecx
	test	eax, eax
	jne	SHORT $LN4@CvString
	mov	eax, OFFSET ??_C@_00CNPNBAHC@?$AA@
$LN4@CvString:
	push	eax
	call	DWORD PTR __imp_??0?$basic_string@DU?$char_traits@D@std@@V?$allocator@D@2@@std@@QAE@PBD@Z
	mov	eax, esi
	pop	esi
	ret	4
??0CvString@@QAE@PBD@Z ENDP				; CvString::CvString
_TEXT	ENDS
PUBLIC	??1CvString@@QAE@XZ				; CvString::~CvString
; Function compile flags: /Ogtpy
;	COMDAT ??1CvString@@QAE@XZ
_TEXT	SEGMENT
??1CvString@@QAE@XZ PROC				; CvString::~CvString, COMDAT
; _this$ = ecx

; 28   : 	~CvString() {}

	jmp	DWORD PTR __imp_??1?$basic_string@DU?$char_traits@D@std@@V?$allocator@D@2@@std@@QAE@XZ
??1CvString@@QAE@XZ ENDP				; CvString::~CvString
_TEXT	ENDS
PUBLIC	?GetInterfaceId@ICvUnknown@@SG?AU_GUID@@XZ	; ICvUnknown::GetInterfaceId
; Function compile flags: /Ogtpy
; File c:\users\enormousapplepie\documents\github\lekmod\lekmod_dll\cvgamecoredllutil\include\cvdllinterfaces.h
;	COMDAT ?GetInterfaceId@ICvUnknown@@SG?AU_GUID@@XZ
_TEXT	SEGMENT
$T220870 = 8						; size = 4
?GetInterfaceId@ICvUnknown@@SG?AU_GUID@@XZ PROC		; ICvUnknown::GetInterfaceId, COMDAT

; 306  : 	static GUID DLLCALL GetInterfaceId(){ return guidICvUnknown; }

	mov	eax, DWORD PTR $T220870[esp-4]
	mov	ecx, DWORD PTR _guidICvUnknown
	mov	edx, DWORD PTR _guidICvUnknown+4
	mov	DWORD PTR [eax], ecx
	mov	ecx, DWORD PTR _guidICvUnknown+8
	mov	DWORD PTR [eax+4], edx
	mov	edx, DWORD PTR _guidICvUnknown+12
	mov	DWORD PTR [eax+8], ecx
	mov	DWORD PTR [eax+12], edx
	ret	4
?GetInterfaceId@ICvUnknown@@SG?AU_GUID@@XZ ENDP		; ICvUnknown::GetInterfaceId
_TEXT	ENDS
PUBLIC	?GetInterfaceId@ICvNetInitInfo1@@SG?AU_GUID@@XZ	; ICvNetInitInfo1::GetInterfaceId
; Function compile flags: /Ogtpy
;	COMDAT ?GetInterfaceId@ICvNetInitInfo1@@SG?AU_GUID@@XZ
_TEXT	SEGMENT
$T220874 = 8						; size = 4
?GetInterfaceId@ICvNetInitInfo1@@SG?AU_GUID@@XZ PROC	; ICvNetInitInfo1::GetInterfaceId, COMDAT

; 519  : 	static GUID DLLCALL GetInterfaceId() { return guidICvNetInitInfo1; }

	mov	eax, DWORD PTR $T220874[esp-4]
	mov	ecx, DWORD PTR _guidICvNetInitInfo1
	mov	edx, DWORD PTR _guidICvNetInitInfo1+4
	mov	DWORD PTR [eax], ecx
	mov	ecx, DWORD PTR _guidICvNetInitInfo1+8
	mov	DWORD PTR [eax+4], edx
	mov	edx, DWORD PTR _guidICvNetInitInfo1+12
	mov	DWORD PTR [eax+8], ecx
	mov	DWORD PTR [eax+12], edx
	ret	4
?GetInterfaceId@ICvNetInitInfo1@@SG?AU_GUID@@XZ ENDP	; ICvNetInitInfo1::GetInterfaceId
_TEXT	ENDS
PUBLIC	?getDLLIFace@CvGlobals@@QAEPAVICvEngineUtility4@@XZ ; CvGlobals::getDLLIFace
; Function compile flags: /Ogtpy
; File c:\users\enormousapplepie\documents\github\lekmod\lekmod_dll\cvgamecoredll_expansion2\cvglobals.h
;	COMDAT ?getDLLIFace@CvGlobals@@QAEPAVICvEngineUtility4@@XZ
_TEXT	SEGMENT
?getDLLIFace@CvGlobals@@QAEPAVICvEngineUtility4@@XZ PROC ; CvGlobals::getDLLIFace, COMDAT
; _this$ = ecx

; 7703 : 		return m_pDLL;

	mov	eax, DWORD PTR [ecx+8564]

; 7704 : 	}

	ret	0
?getDLLIFace@CvGlobals@@QAEPAVICvEngineUtility4@@XZ ENDP ; CvGlobals::getDLLIFace
_TEXT	ENDS
PUBLIC	??4CvString@@QAEAAV0@ABV0@@Z			; CvString::operator=
EXTRN	__imp_??4?$basic_string@DU?$char_traits@D@std@@V?$allocator@D@2@@std@@QAEAAV01@ABV01@@Z:PROC
; Function compile flags: /Ogtpy
;	COMDAT ??4CvString@@QAEAAV0@ABV0@@Z
_TEXT	SEGMENT
___that$ = 8						; size = 4
??4CvString@@QAEAAV0@ABV0@@Z PROC			; CvString::operator=, COMDAT
; _this$ = ecx
	mov	eax, DWORD PTR ___that$[esp-4]
	push	esi
	push	eax
	mov	esi, ecx
	call	DWORD PTR __imp_??4?$basic_string@DU?$char_traits@D@std@@V?$allocator@D@2@@std@@QAEAAV01@ABV01@@Z
	mov	eax, esi
	pop	esi
	ret	4
??4CvString@@QAEAAV0@ABV0@@Z ENDP			; CvString::operator=
_TEXT	ENDS
PUBLIC	??$?6H@FDataStream@@QAEAAV0@ABH@Z		; FDataStream::operator<<<int>
EXTRN	?Write@FDataStream@@IAEXABH@Z:PROC		; FDataStream::Write
; Function compile flags: /Ogtpy
; File c:\users\enormousapplepie\documents\github\lekmod\lekmod_dll\fireplace\include\fireworks\fdatastream.h
;	COMDAT ??$?6H@FDataStream@@QAEAAV0@ABH@Z
_TEXT	SEGMENT
_kData$ = 8						; size = 4
??$?6H@FDataStream@@QAEAAV0@ABH@Z PROC			; FDataStream::operator<<<int>, COMDAT
; _this$ = ecx

; 246  : 	// If the compiler produces an error here complaining about 
; 247  : 	// YouMustImplementASerializeOperatorForThisTypeError then
; 248  : 	// it could not find a specialization for the type supplied
; 249  : 	// in scope. If a specialization exists, be sure to include
; 250  : 	// the header (FStlContainerSerialization.h, for example), 
; 251  : 	// if not, implement :
; 252  : 	// FDataStream & operator<<(FDataStream &, YourCustomType &)
; 253  : 	Write( kData );

	mov	eax, DWORD PTR _kData$[esp-4]
	push	esi
	push	eax
	mov	esi, ecx
	call	?Write@FDataStream@@IAEXABH@Z		; FDataStream::Write

; 254  : 	return ( *this );

	mov	eax, esi
	pop	esi

; 255  : }

	ret	4
??$?6H@FDataStream@@QAEAAV0@ABH@Z ENDP			; FDataStream::operator<<<int>
_TEXT	ENDS
PUBLIC	??$?5H@FDataStream@@QAEAAV0@AAH@Z		; FDataStream::operator>><int>
EXTRN	?Read@FDataStream@@IAEXAAH@Z:PROC		; FDataStream::Read
; Function compile flags: /Ogtpy
;	COMDAT ??$?5H@FDataStream@@QAEAAV0@AAH@Z
_TEXT	SEGMENT
_kData$ = 8						; size = 4
??$?5H@FDataStream@@QAEAAV0@AAH@Z PROC			; FDataStream::operator>><int>, COMDAT
; _this$ = ecx

; 260  : 	// If the compiler produces an error here complaining about 
; 261  : 	// YouMustImplementASerializeOperatorForThisTypeError then
; 262  : 	// it could not find a specialization for the type supplied
; 263  : 	// in scope. If a specialization exists, be sure to include
; 264  : 	// the header (FStlContainerSerialization.h, for example), 
; 265  : 	// if not, implement :
; 266  : 	// FDataStream & operator>>(FDataStream &, YourCustomType &)
; 267  : 	Read( kData );

	mov	eax, DWORD PTR _kData$[esp-4]
	push	esi
	push	eax
	mov	esi, ecx
	call	?Read@FDataStream@@IAEXAAH@Z		; FDataStream::Read

; 268  : 	return ( *this );

	mov	eax, esi
	pop	esi

; 269  : }

	ret	4
??$?5H@FDataStream@@QAEAAV0@AAH@Z ENDP			; FDataStream::operator>><int>
_TEXT	ENDS
PUBLIC	??0?$_Container_base_aux_alloc_empty@V?$allocator@_N@std@@@std@@IAE@V?$allocator@_N@1@@Z ; std::_Container_base_aux_alloc_empty<std::allocator<bool> >::_Container_base_aux_alloc_empty<std::allocator<bool> >
; Function compile flags: /Ogtpy
; File c:\program files (x86)\microsoft visual studio 9.0\vc\include\xutility
;	COMDAT ??0?$_Container_base_aux_alloc_empty@V?$allocator@_N@std@@@std@@IAE@V?$allocator@_N@1@@Z
_TEXT	SEGMENT
___formal$ = 8						; size = 1
??0?$_Container_base_aux_alloc_empty@V?$allocator@_N@std@@@std@@IAE@V?$allocator@_N@1@@Z PROC ; std::_Container_base_aux_alloc_empty<std::allocator<bool> >::_Container_base_aux_alloc_empty<std::allocator<bool> >, COMDAT
; _this$ = ecx

; 618  : 	explicit _Container_base_aux_alloc_empty(_Alloc) { }

	mov	eax, ecx
	ret	4
??0?$_Container_base_aux_alloc_empty@V?$allocator@_N@std@@@std@@IAE@V?$allocator@_N@1@@Z ENDP ; std::_Container_base_aux_alloc_empty<std::allocator<bool> >::_Container_base_aux_alloc_empty<std::allocator<bool> >
_TEXT	ENDS
PUBLIC	??1?$_Container_base_aux_alloc_empty@V?$allocator@_N@std@@@std@@IAE@XZ ; std::_Container_base_aux_alloc_empty<std::allocator<bool> >::~_Container_base_aux_alloc_empty<std::allocator<bool> >
; Function compile flags: /Ogtpy
;	COMDAT ??1?$_Container_base_aux_alloc_empty@V?$allocator@_N@std@@@std@@IAE@XZ
_TEXT	SEGMENT
??1?$_Container_base_aux_alloc_empty@V?$allocator@_N@std@@@std@@IAE@XZ PROC ; std::_Container_base_aux_alloc_empty<std::allocator<bool> >::~_Container_base_aux_alloc_empty<std::allocator<bool> >, COMDAT
; _this$ = ecx

; 627  : 	~_Container_base_aux_alloc_empty() { }

	ret	0
??1?$_Container_base_aux_alloc_empty@V?$allocator@_N@std@@@std@@IAE@XZ ENDP ; std::_Container_base_aux_alloc_empty<std::allocator<bool> >::~_Container_base_aux_alloc_empty<std::allocator<bool> >
_TEXT	ENDS
PUBLIC	??0?$allocator@_N@std@@QAE@XZ			; std::allocator<bool>::allocator<bool>
; Function compile flags: /Ogtpy
; File c:\program files (x86)\microsoft visual studio 9.0\vc\include\xmemory
;	COMDAT ??0?$allocator@_N@std@@QAE@XZ
_TEXT	SEGMENT
??0?$allocator@_N@std@@QAE@XZ PROC			; std::allocator<bool>::allocator<bool>, COMDAT
; _this$ = ecx

; 119  : 	allocator() _THROW0()

	mov	eax, ecx

; 120  : 		{	// construct default allocator (do nothing)
; 121  : 		}

	ret	0
??0?$allocator@_N@std@@QAE@XZ ENDP			; std::allocator<bool>::allocator<bool>
_TEXT	ENDS
PUBLIC	??1?$_Container_base_aux_alloc_empty@V?$allocator@I@std@@@std@@IAE@XZ ; std::_Container_base_aux_alloc_empty<std::allocator<unsigned int> >::~_Container_base_aux_alloc_empty<std::allocator<unsigned int> >
; Function compile flags: /Ogtpy
; File c:\program files (x86)\microsoft visual studio 9.0\vc\include\xutility
;	COMDAT ??1?$_Container_base_aux_alloc_empty@V?$allocator@I@std@@@std@@IAE@XZ
_TEXT	SEGMENT
??1?$_Container_base_aux_alloc_empty@V?$allocator@I@std@@@std@@IAE@XZ PROC ; std::_Container_base_aux_alloc_empty<std::allocator<unsigned int> >::~_Container_base_aux_alloc_empty<std::allocator<unsigned int> >, COMDAT
; _this$ = ecx

; 627  : 	~_Container_base_aux_alloc_empty() { }

	ret	0
??1?$_Container_base_aux_alloc_empty@V?$allocator@I@std@@@std@@IAE@XZ ENDP ; std::_Container_base_aux_alloc_empty<std::allocator<unsigned int> >::~_Container_base_aux_alloc_empty<std::allocator<unsigned int> >
_TEXT	ENDS
PUBLIC	??0?$allocator@I@std@@QAE@XZ			; std::allocator<unsigned int>::allocator<unsigned int>
; Function compile flags: /Ogtpy
; File c:\program files (x86)\microsoft visual studio 9.0\vc\include\xmemory
;	COMDAT ??0?$allocator@I@std@@QAE@XZ
_TEXT	SEGMENT
??0?$allocator@I@std@@QAE@XZ PROC			; std::allocator<unsigned int>::allocator<unsigned int>, COMDAT
; _this$ = ecx

; 119  : 	allocator() _THROW0()

	mov	eax, ecx

; 120  : 		{	// construct default allocator (do nothing)
; 121  : 		}

	ret	0
??0?$allocator@I@std@@QAE@XZ ENDP			; std::allocator<unsigned int>::allocator<unsigned int>
_TEXT	ENDS
PUBLIC	?_Nw@?$vector@_NV?$allocator@_N@std@@@std@@KAII@Z ; std::vector<bool,std::allocator<bool> >::_Nw
; Function compile flags: /Ogtpy
; File c:\program files (x86)\microsoft visual studio 9.0\vc\include\vector
;	COMDAT ?_Nw@?$vector@_NV?$allocator@_N@std@@@std@@KAII@Z
_TEXT	SEGMENT
__Count$ = 8						; size = 4
?_Nw@?$vector@_NV?$allocator@_N@std@@@std@@KAII@Z PROC	; std::vector<bool,std::allocator<bool> >::_Nw, COMDAT

; 2331 : 		return ((_Count + _VBITS - 1) / _VBITS);

	mov	eax, DWORD PTR __Count$[esp-4]
	add	eax, 31					; 0000001fH
	shr	eax, 5

; 2332 : 		}

	ret	0
?_Nw@?$vector@_NV?$allocator@_N@std@@@std@@KAII@Z ENDP	; std::vector<bool,std::allocator<bool> >::_Nw
_TEXT	ENDS
PUBLIC	__TI3?AVlength_error@std@@
PUBLIC	??_C@_0BG@EOMJEIFA@vector?$DMbool?$DO?5too?5long?$AA@ ; `string'
PUBLIC	?_Xlen@?$vector@_NV?$allocator@_N@std@@@std@@IBEXXZ ; std::vector<bool,std::allocator<bool> >::_Xlen
PUBLIC	__CTA3?AVlength_error@std@@
PUBLIC	__CT??_R0?AVlength_error@std@@@8??0length_error@std@@QAE@ABV01@@Z40
PUBLIC	??0length_error@std@@QAE@ABV01@@Z		; std::length_error::length_error
PUBLIC	__CT??_R0?AVlogic_error@std@@@8??0logic_error@std@@QAE@ABV01@@Z40
PUBLIC	??0logic_error@std@@QAE@ABV01@@Z		; std::logic_error::logic_error
PUBLIC	__CT??_R0?AVexception@std@@@8??0exception@std@@QAE@ABV01@@Z12
EXTRN	__CxxThrowException@8:PROC
EXTRN	??0exception@std@@QAE@ABV01@@Z:PROC		; std::exception::exception
;	COMDAT __CT??_R0?AVexception@std@@@8??0exception@std@@QAE@ABV01@@Z12
; File c:\program files (x86)\microsoft visual studio 9.0\vc\include\stdexcept
xdata$x	SEGMENT
__CT??_R0?AVexception@std@@@8??0exception@std@@QAE@ABV01@@Z12 DD 00H
	DD	FLAT:??_R0?AVexception@std@@@8
	DD	00H
	DD	0ffffffffH
	ORG $+4
	DD	0cH
	DD	FLAT:??0exception@std@@QAE@ABV01@@Z
xdata$x	ENDS
;	COMDAT __CT??_R0?AVlogic_error@std@@@8??0logic_error@std@@QAE@ABV01@@Z40
xdata$x	SEGMENT
__CT??_R0?AVlogic_error@std@@@8??0logic_error@std@@QAE@ABV01@@Z40 DD 00H
	DD	FLAT:??_R0?AVlogic_error@std@@@8
	DD	00H
	DD	0ffffffffH
	ORG $+4
	DD	028H
	DD	FLAT:??0logic_error@std@@QAE@ABV01@@Z
xdata$x	ENDS
;	COMDAT __CT??_R0?AVlength_error@std@@@8??0length_error@std@@QAE@ABV01@@Z40
xdata$x	SEGMENT
__CT??_R0?AVlength_error@std@@@8??0length_error@std@@QAE@ABV01@@Z40 DD 00H
	DD	FLAT:??_R0?AVlength_error@std@@@8
	DD	00H
	DD	0ffffffffH
	ORG $+4
	DD	028H
	DD	FLAT:??0length_error@std@@QAE@ABV01@@Z
xdata$x	ENDS
;	COMDAT __CTA3?AVlength_error@std@@
xdata$x	SEGMENT
__CTA3?AVlength_error@std@@ DD 03H
	DD	FLAT:__CT??_R0?AVlength_error@std@@@8??0length_error@std@@QAE@ABV01@@Z40
	DD	FLAT:__CT??_R0?AVlogic_error@std@@@8??0logic_error@std@@QAE@ABV01@@Z40
	DD	FLAT:__CT??_R0?AVexception@std@@@8??0exception@std@@QAE@ABV01@@Z12
xdata$x	ENDS
;	COMDAT __TI3?AVlength_error@std@@
xdata$x	SEGMENT
__TI3?AVlength_error@std@@ DD 00H
	DD	FLAT:??1length_error@std@@UAE@XZ
	DD	00H
	DD	FLAT:__CTA3?AVlength_error@std@@
xdata$x	ENDS
;	COMDAT ??_C@_0BG@EOMJEIFA@vector?$DMbool?$DO?5too?5long?$AA@
CONST	SEGMENT
??_C@_0BG@EOMJEIFA@vector?$DMbool?$DO?5too?5long?$AA@ DB 'vector<bool> to'
	DB	'o long', 00H				; `string'
CONST	ENDS
;	COMDAT xdata$x
xdata$x	SEGMENT
__unwindtable$?_Xlen@?$vector@_NV?$allocator@_N@std@@@std@@IBEXXZ DD 0ffffffffH
	DD	FLAT:__unwindfunclet$?_Xlen@?$vector@_NV?$allocator@_N@std@@@std@@IBEXXZ$0
	DD	00H
	DD	FLAT:__unwindfunclet$?_Xlen@?$vector@_NV?$allocator@_N@std@@@std@@IBEXXZ$2
__ehfuncinfo$?_Xlen@?$vector@_NV?$allocator@_N@std@@@std@@IBEXXZ DD 019930522H
	DD	02H
	DD	FLAT:__unwindtable$?_Xlen@?$vector@_NV?$allocator@_N@std@@@std@@IBEXXZ
	DD	2 DUP(00H)
	DD	2 DUP(00H)
	DD	00H
	DD	01H
; Function compile flags: /Ogtpy
; File c:\program files (x86)\microsoft visual studio 9.0\vc\include\vector
xdata$x	ENDS
;	COMDAT ?_Xlen@?$vector@_NV?$allocator@_N@std@@@std@@IBEXXZ
_TEXT	SEGMENT
$T220909 = -80						; size = 28
$T220908 = -52						; size = 40
__$EHRec$ = -12						; size = 12
?_Xlen@?$vector@_NV?$allocator@_N@std@@@std@@IBEXXZ PROC ; std::vector<bool,std::allocator<bool> >::_Xlen, COMDAT
; _this$ = ecx

; 2374 : 		{	// report a length_error

	push	-1
	push	__ehhandler$?_Xlen@?$vector@_NV?$allocator@_N@std@@@std@@IBEXXZ
	mov	eax, DWORD PTR fs:0
	push	eax
	mov	DWORD PTR fs:0, esp
	sub	esp, 68					; 00000044H

; 2375 : 		_THROW(length_error, "vector<bool> too long");

	push	OFFSET ??_C@_0BG@EOMJEIFA@vector?$DMbool?$DO?5too?5long?$AA@
	lea	ecx, DWORD PTR $T220909[esp+84]
	call	DWORD PTR __imp_??0?$basic_string@DU?$char_traits@D@std@@V?$allocator@D@2@@std@@QAE@PBD@Z
	lea	ecx, DWORD PTR $T220908[esp+80]
	mov	DWORD PTR __$EHRec$[esp+88], 0
	call	DWORD PTR __imp_??0exception@std@@QAE@XZ
	lea	eax, DWORD PTR $T220909[esp+80]
	push	eax
	lea	ecx, DWORD PTR $T220908[esp+96]
	mov	BYTE PTR __$EHRec$[esp+92], 1
	mov	DWORD PTR $T220908[esp+84], OFFSET ??_7logic_error@std@@6B@
	call	DWORD PTR __imp_??0?$basic_string@DU?$char_traits@D@std@@V?$allocator@D@2@@std@@QAE@ABV01@@Z
	push	OFFSET __TI3?AVlength_error@std@@
	lea	ecx, DWORD PTR $T220908[esp+84]
	push	ecx
	mov	BYTE PTR __$EHRec$[esp+96], 0
	mov	DWORD PTR $T220908[esp+88], OFFSET ??_7length_error@std@@6B@
	call	__CxxThrowException@8
$LN13@Xlen:
$LN12@Xlen:
	int	3
_TEXT	ENDS
;	COMDAT text$x
text$x	SEGMENT
__unwindfunclet$?_Xlen@?$vector@_NV?$allocator@_N@std@@@std@@IBEXXZ$0:
	lea	ecx, DWORD PTR $T220909[ebp]
	jmp	DWORD PTR __imp_??1?$basic_string@DU?$char_traits@D@std@@V?$allocator@D@2@@std@@QAE@XZ
__unwindfunclet$?_Xlen@?$vector@_NV?$allocator@_N@std@@@std@@IBEXXZ$2:
	lea	ecx, DWORD PTR $T220908[ebp]
	jmp	DWORD PTR __imp_??1exception@std@@UAE@XZ
__ehhandler$?_Xlen@?$vector@_NV?$allocator@_N@std@@@std@@IBEXXZ:
	mov	eax, OFFSET __ehfuncinfo$?_Xlen@?$vector@_NV?$allocator@_N@std@@@std@@IBEXXZ
	jmp	___CxxFrameHandler3
text$x	ENDS
?_Xlen@?$vector@_NV?$allocator@_N@std@@@std@@IBEXXZ ENDP ; std::vector<bool,std::allocator<bool> >::_Xlen
EXTRN	__imp_??0exception@std@@QAE@ABV01@@Z:PROC
;	COMDAT xdata$x
xdata$x	SEGMENT
__unwindtable$??0logic_error@std@@QAE@ABV01@@Z DD 0ffffffffH
	DD	FLAT:__unwindfunclet$??0logic_error@std@@QAE@ABV01@@Z$0
__ehfuncinfo$??0logic_error@std@@QAE@ABV01@@Z DD 019930522H
	DD	01H
	DD	FLAT:__unwindtable$??0logic_error@std@@QAE@ABV01@@Z
	DD	2 DUP(00H)
	DD	2 DUP(00H)
	DD	00H
	DD	01H
; Function compile flags: /Ogtpy
xdata$x	ENDS
;	COMDAT ??0logic_error@std@@QAE@ABV01@@Z
_TEXT	SEGMENT
_this$ = -16						; size = 4
__$EHRec$ = -12						; size = 12
___that$ = 8						; size = 4
??0logic_error@std@@QAE@ABV01@@Z PROC			; std::logic_error::logic_error, COMDAT
; _this$ = ecx
	push	-1
	push	__ehhandler$??0logic_error@std@@QAE@ABV01@@Z
	mov	eax, DWORD PTR fs:0
	push	eax
	mov	DWORD PTR fs:0, esp
	push	ecx
	push	esi
	push	edi
	mov	edi, DWORD PTR ___that$[esp+20]
	mov	esi, ecx
	push	edi
	mov	DWORD PTR _this$[esp+28], esi
	call	DWORD PTR __imp_??0exception@std@@QAE@ABV01@@Z
	add	edi, 12					; 0000000cH
	push	edi
	lea	ecx, DWORD PTR [esi+12]
	mov	DWORD PTR __$EHRec$[esp+36], 0
	mov	DWORD PTR [esi], OFFSET ??_7logic_error@std@@6B@
	call	DWORD PTR __imp_??0?$basic_string@DU?$char_traits@D@std@@V?$allocator@D@2@@std@@QAE@ABV01@@Z
	mov	ecx, DWORD PTR __$EHRec$[esp+24]
	pop	edi
	mov	eax, esi
	pop	esi
	mov	DWORD PTR fs:0, ecx
	add	esp, 16					; 00000010H
	ret	4
_TEXT	ENDS
;	COMDAT text$x
text$x	SEGMENT
__unwindfunclet$??0logic_error@std@@QAE@ABV01@@Z$0:
	mov	ecx, DWORD PTR _this$[ebp]
	jmp	DWORD PTR __imp_??1exception@std@@UAE@XZ
__ehhandler$??0logic_error@std@@QAE@ABV01@@Z:
	mov	eax, OFFSET __ehfuncinfo$??0logic_error@std@@QAE@ABV01@@Z
	jmp	___CxxFrameHandler3
text$x	ENDS
??0logic_error@std@@QAE@ABV01@@Z ENDP			; std::logic_error::logic_error
; Function compile flags: /Ogtpy
;	COMDAT ??0length_error@std@@QAE@ABV01@@Z
_TEXT	SEGMENT
___that$ = 8						; size = 4
??0length_error@std@@QAE@ABV01@@Z PROC			; std::length_error::length_error, COMDAT
; _this$ = ecx
	mov	eax, DWORD PTR ___that$[esp-4]
	push	esi
	push	eax
	mov	esi, ecx
	call	??0logic_error@std@@QAE@ABV01@@Z
	mov	DWORD PTR [esi], OFFSET ??_7length_error@std@@6B@
	mov	eax, esi
	pop	esi
	ret	4
??0length_error@std@@QAE@ABV01@@Z ENDP			; std::length_error::length_error
_TEXT	ENDS
PUBLIC	?size@?$vector@IV?$allocator@I@std@@@std@@QBEIXZ ; std::vector<unsigned int,std::allocator<unsigned int> >::size
; Function compile flags: /Ogtpy
;	COMDAT ?size@?$vector@IV?$allocator@I@std@@@std@@QBEIXZ
_TEXT	SEGMENT
?size@?$vector@IV?$allocator@I@std@@@std@@QBEIXZ PROC	; std::vector<unsigned int,std::allocator<unsigned int> >::size, COMDAT
; _this$ = ecx

; 726  : 		return (_Mylast - _Myfirst);

	mov	eax, DWORD PTR [ecx+8]
	sub	eax, DWORD PTR [ecx+4]
	sar	eax, 2

; 727  : 		}

	ret	0
?size@?$vector@IV?$allocator@I@std@@@std@@QBEIXZ ENDP	; std::vector<unsigned int,std::allocator<unsigned int> >::size
_TEXT	ENDS
PUBLIC	??A?$vector@IV?$allocator@I@std@@@std@@QAEAAII@Z ; std::vector<unsigned int,std::allocator<unsigned int> >::operator[]
; Function compile flags: /Ogtpy
;	COMDAT ??A?$vector@IV?$allocator@I@std@@@std@@QAEAAII@Z
_TEXT	SEGMENT
__Pos$ = 8						; size = 4
??A?$vector@IV?$allocator@I@std@@@std@@QAEAAII@Z PROC	; std::vector<unsigned int,std::allocator<unsigned int> >::operator[], COMDAT
; _this$ = ecx

; 775  : 
; 776  :  #if _HAS_ITERATOR_DEBUGGING
; 777  : 		if (size() <= _Pos)
; 778  : 			{
; 779  : 			_DEBUG_ERROR("vector subscript out of range");
; 780  : 			_SCL_SECURE_OUT_OF_RANGE;
; 781  : 			}
; 782  :  #endif /* _HAS_ITERATOR_DEBUGGING */
; 783  : 		_SCL_SECURE_VALIDATE_RANGE(_Pos < size());
; 784  : 
; 785  : 		return (*(_Myfirst + _Pos));

	mov	eax, DWORD PTR [ecx+4]
	mov	ecx, DWORD PTR __Pos$[esp-4]
	lea	eax, DWORD PTR [eax+ecx*4]

; 786  : 		}

	ret	4
??A?$vector@IV?$allocator@I@std@@@std@@QAEAAII@Z ENDP	; std::vector<unsigned int,std::allocator<unsigned int> >::operator[]
_TEXT	ENDS
PUBLIC	??_C@_0BD@OLBABOEK@vector?$DMT?$DO?5too?5long?$AA@ ; `string'
PUBLIC	?_Xlen@?$vector@IV?$allocator@I@std@@@std@@KAXXZ ; std::vector<unsigned int,std::allocator<unsigned int> >::_Xlen
;	COMDAT ??_C@_0BD@OLBABOEK@vector?$DMT?$DO?5too?5long?$AA@
; File c:\program files (x86)\microsoft visual studio 9.0\vc\include\stdexcept
CONST	SEGMENT
??_C@_0BD@OLBABOEK@vector?$DMT?$DO?5too?5long?$AA@ DB 'vector<T> too long'
	DB	00H						; `string'
CONST	ENDS
;	COMDAT xdata$x
xdata$x	SEGMENT
__unwindtable$?_Xlen@?$vector@IV?$allocator@I@std@@@std@@KAXXZ DD 0ffffffffH
	DD	FLAT:__unwindfunclet$?_Xlen@?$vector@IV?$allocator@I@std@@@std@@KAXXZ$0
	DD	00H
	DD	FLAT:__unwindfunclet$?_Xlen@?$vector@IV?$allocator@I@std@@@std@@KAXXZ$2
__ehfuncinfo$?_Xlen@?$vector@IV?$allocator@I@std@@@std@@KAXXZ DD 019930522H
	DD	02H
	DD	FLAT:__unwindtable$?_Xlen@?$vector@IV?$allocator@I@std@@@std@@KAXXZ
	DD	2 DUP(00H)
	DD	2 DUP(00H)
	DD	00H
	DD	01H
; Function compile flags: /Ogtpy
; File c:\program files (x86)\microsoft visual studio 9.0\vc\include\vector
xdata$x	ENDS
;	COMDAT ?_Xlen@?$vector@IV?$allocator@I@std@@@std@@KAXXZ
_TEXT	SEGMENT
$T220956 = -80						; size = 28
$T220955 = -52						; size = 40
__$EHRec$ = -12						; size = 12
?_Xlen@?$vector@IV?$allocator@I@std@@@std@@KAXXZ PROC	; std::vector<unsigned int,std::allocator<unsigned int> >::_Xlen, COMDAT

; 1259 : 		{	// report a length_error

	push	-1
	push	__ehhandler$?_Xlen@?$vector@IV?$allocator@I@std@@@std@@KAXXZ
	mov	eax, DWORD PTR fs:0
	push	eax
	mov	DWORD PTR fs:0, esp
	sub	esp, 68					; 00000044H

; 1260 : 		_THROW(length_error, "vector<T> too long");

	push	OFFSET ??_C@_0BD@OLBABOEK@vector?$DMT?$DO?5too?5long?$AA@
	lea	ecx, DWORD PTR $T220956[esp+84]
	call	DWORD PTR __imp_??0?$basic_string@DU?$char_traits@D@std@@V?$allocator@D@2@@std@@QAE@PBD@Z
	lea	ecx, DWORD PTR $T220955[esp+80]
	mov	DWORD PTR __$EHRec$[esp+88], 0
	call	DWORD PTR __imp_??0exception@std@@QAE@XZ
	lea	eax, DWORD PTR $T220956[esp+80]
	push	eax
	lea	ecx, DWORD PTR $T220955[esp+96]
	mov	BYTE PTR __$EHRec$[esp+92], 1
	mov	DWORD PTR $T220955[esp+84], OFFSET ??_7logic_error@std@@6B@
	call	DWORD PTR __imp_??0?$basic_string@DU?$char_traits@D@std@@V?$allocator@D@2@@std@@QAE@ABV01@@Z
	push	OFFSET __TI3?AVlength_error@std@@
	lea	ecx, DWORD PTR $T220955[esp+84]
	push	ecx
	mov	BYTE PTR __$EHRec$[esp+96], 0
	mov	DWORD PTR $T220955[esp+88], OFFSET ??_7length_error@std@@6B@
	call	__CxxThrowException@8
$LN13@Xlen@2:
$LN12@Xlen@2:
	int	3
_TEXT	ENDS
;	COMDAT text$x
text$x	SEGMENT
__unwindfunclet$?_Xlen@?$vector@IV?$allocator@I@std@@@std@@KAXXZ$0:
	lea	ecx, DWORD PTR $T220956[ebp]
	jmp	DWORD PTR __imp_??1?$basic_string@DU?$char_traits@D@std@@V?$allocator@D@2@@std@@QAE@XZ
__unwindfunclet$?_Xlen@?$vector@IV?$allocator@I@std@@@std@@KAXXZ$2:
	lea	ecx, DWORD PTR $T220955[ebp]
	jmp	DWORD PTR __imp_??1exception@std@@UAE@XZ
__ehhandler$?_Xlen@?$vector@IV?$allocator@I@std@@@std@@KAXXZ:
	mov	eax, OFFSET __ehfuncinfo$?_Xlen@?$vector@IV?$allocator@I@std@@@std@@KAXXZ
	jmp	___CxxFrameHandler3
text$x	ENDS
?_Xlen@?$vector@IV?$allocator@I@std@@@std@@KAXXZ ENDP	; std::vector<unsigned int,std::allocator<unsigned int> >::_Xlen
PUBLIC	??0?$_Container_base_aux_alloc_empty@V?$allocator@I@std@@@std@@IAE@V?$allocator@I@1@@Z ; std::_Container_base_aux_alloc_empty<std::allocator<unsigned int> >::_Container_base_aux_alloc_empty<std::allocator<unsigned int> >
; Function compile flags: /Ogtpy
; File c:\program files (x86)\microsoft visual studio 9.0\vc\include\xutility
;	COMDAT ??0?$_Container_base_aux_alloc_empty@V?$allocator@I@std@@@std@@IAE@V?$allocator@I@1@@Z
_TEXT	SEGMENT
___formal$ = 8						; size = 1
??0?$_Container_base_aux_alloc_empty@V?$allocator@I@std@@@std@@IAE@V?$allocator@I@1@@Z PROC ; std::_Container_base_aux_alloc_empty<std::allocator<unsigned int> >::_Container_base_aux_alloc_empty<std::allocator<unsigned int> >, COMDAT
; _this$ = ecx

; 618  : 	explicit _Container_base_aux_alloc_empty(_Alloc) { }

	mov	eax, ecx
	ret	4
??0?$_Container_base_aux_alloc_empty@V?$allocator@I@std@@@std@@IAE@V?$allocator@I@1@@Z ENDP ; std::_Container_base_aux_alloc_empty<std::allocator<unsigned int> >::_Container_base_aux_alloc_empty<std::allocator<unsigned int> >
_TEXT	ENDS
PUBLIC	??0?$allocator@I@std@@QAE@ABV01@@Z		; std::allocator<unsigned int>::allocator<unsigned int>
; Function compile flags: /Ogtpy
; File c:\program files (x86)\microsoft visual studio 9.0\vc\include\xmemory
;	COMDAT ??0?$allocator@I@std@@QAE@ABV01@@Z
_TEXT	SEGMENT
___formal$ = 8						; size = 4
??0?$allocator@I@std@@QAE@ABV01@@Z PROC			; std::allocator<unsigned int>::allocator<unsigned int>, COMDAT
; _this$ = ecx

; 123  : 	allocator(const allocator<_Ty>&) _THROW0()

	mov	eax, ecx

; 124  : 		{	// construct by copying (do nothing)
; 125  : 		}

	ret	4
??0?$allocator@I@std@@QAE@ABV01@@Z ENDP			; std::allocator<unsigned int>::allocator<unsigned int>
_TEXT	ENDS
PUBLIC	?deallocate@?$allocator@I@std@@QAEXPAII@Z	; std::allocator<unsigned int>::deallocate
; Function compile flags: /Ogtpy
;	COMDAT ?deallocate@?$allocator@I@std@@QAEXPAII@Z
_TEXT	SEGMENT
__Ptr$ = 8						; size = 4
___formal$ = 12						; size = 4
?deallocate@?$allocator@I@std@@QAEXPAII@Z PROC		; std::allocator<unsigned int>::deallocate, COMDAT
; _this$ = ecx

; 140  : 		::operator delete(_Ptr);

	mov	eax, DWORD PTR __Ptr$[esp-4]
	push	eax
	call	??3@YAXPAX@Z				; operator delete
	pop	ecx

; 141  : 		}

	ret	8
?deallocate@?$allocator@I@std@@QAEXPAII@Z ENDP		; std::allocator<unsigned int>::deallocate
_TEXT	ENDS
PUBLIC	??Y?$_Vb_const_iterator@IHV?$vector@_NV?$allocator@_N@std@@@std@@@std@@QAEAAV01@H@Z ; std::_Vb_const_iterator<unsigned int,int,std::vector<bool,std::allocator<bool> > >::operator+=
; Function compile flags: /Ogtpy
; File c:\program files (x86)\microsoft visual studio 9.0\vc\include\vector
;	COMDAT ??Y?$_Vb_const_iterator@IHV?$vector@_NV?$allocator@_N@std@@@std@@@std@@QAEAAV01@H@Z
_TEXT	SEGMENT
__Off$ = 8						; size = 4
??Y?$_Vb_const_iterator@IHV?$vector@_NV?$allocator@_N@std@@@std@@@std@@QAEAAV01@H@Z PROC ; std::_Vb_const_iterator<unsigned int,int,std::vector<bool,std::allocator<bool> > >::operator+=, COMDAT
; _this$ = ecx

; 1602 : 		{	// increment by integer

	mov	eax, ecx

; 1603 : 		if (_Off == 0)

	mov	ecx, DWORD PTR __Off$[esp-4]
	test	ecx, ecx

; 1604 : 			return (*this); // early out

	je	SHORT $LN6@operator
	push	esi

; 1605 : 		_SCL_SECURE_VALIDATE(this->_Has_container() && this->_Myptr != NULL);
; 1606 : 		if (_Off < 0)
; 1607 : 			{
; 1608 : 			_SCL_SECURE_VALIDATE_RANGE(this->_My_actual_offset() >= ((size_type)-_Off));
; 1609 : 			}
; 1610 : 		else
; 1611 : 			{
; 1612 : 			_SCL_SECURE_VALIDATE_RANGE((this->_My_actual_offset() + _Off) <= ((_MycontTy *)this->_Getmycont())->_Mysize);
; 1613 : 			}
; 1614 : 		if (_Off < 0 && this->_Myoff < 0 - (size_type)_Off)

	jge	SHORT $LN2@operator
	mov	edx, DWORD PTR [eax+4]
	mov	esi, ecx
	neg	esi
	cmp	edx, esi
	jae	SHORT $LN2@operator

; 1615 : 			{	/* add negative increment */
; 1616 : 			this->_Myoff += _Off;

	add	ecx, edx

; 1617 : 			this->_Myptr -= 1 + ((size_type)(-1) - this->_Myoff) / _VBITS;

	or	edx, -1
	sub	edx, ecx
	shr	edx, 5
	add	edx, edx
	add	edx, edx
	mov	esi, -4					; fffffffcH
	sub	esi, edx
	add	DWORD PTR [eax], esi

; 1624 : 			this->_Myoff %= _VBITS;

	and	ecx, 31					; 0000001fH
	mov	DWORD PTR [eax+4], ecx
	pop	esi

; 1625 : 			}
; 1626 : 		return (*this);
; 1627 : 		}

	ret	4
$LN2@operator:

; 1618 : 			this->_Myoff %= _VBITS;
; 1619 : 			}
; 1620 : 		else
; 1621 : 			{	/* add non-negative increment */
; 1622 : 			this->_Myoff += _Off;

	mov	edx, DWORD PTR [eax+4]
	add	ecx, edx

; 1623 : 			this->_Myptr += this->_Myoff / _VBITS;

	mov	edx, ecx
	shr	edx, 5
	add	edx, edx
	add	edx, edx
	add	DWORD PTR [eax], edx

; 1624 : 			this->_Myoff %= _VBITS;

	and	ecx, 31					; 0000001fH
	mov	DWORD PTR [eax+4], ecx
	pop	esi
$LN6@operator:

; 1625 : 			}
; 1626 : 		return (*this);
; 1627 : 		}

	ret	4
??Y?$_Vb_const_iterator@IHV?$vector@_NV?$allocator@_N@std@@@std@@@std@@QAEAAV01@H@Z ENDP ; std::_Vb_const_iterator<unsigned int,int,std::vector<bool,std::allocator<bool> > >::operator+=
_TEXT	ENDS
PUBLIC	??G?$_Vb_const_iterator@IHV?$vector@_NV?$allocator@_N@std@@@std@@@std@@QBEHABV01@@Z ; std::_Vb_const_iterator<unsigned int,int,std::vector<bool,std::allocator<bool> > >::operator-
; Function compile flags: /Ogtpy
;	COMDAT ??G?$_Vb_const_iterator@IHV?$vector@_NV?$allocator@_N@std@@@std@@@std@@QBEHABV01@@Z
_TEXT	SEGMENT
__Right$ = 8						; size = 4
??G?$_Vb_const_iterator@IHV?$vector@_NV?$allocator@_N@std@@@std@@@std@@QBEHABV01@@Z PROC ; std::_Vb_const_iterator<unsigned int,int,std::vector<bool,std::allocator<bool> > >::operator-, COMDAT
; _this$ = ecx

; 1649 : 
; 1650 :  #if _HAS_ITERATOR_DEBUGGING
; 1651 : 		_Compat(_Right);
; 1652 :  #endif /* _HAS_ITERATOR_DEBUGGING */
; 1653 : 
; 1654 : 		return (_VBITS * (this->_Myptr - _Right._Myptr)
; 1655 : 			+ (difference_type)this->_Myoff
; 1656 : 			- (difference_type)_Right._Myoff);

	mov	edx, DWORD PTR __Right$[esp-4]
	mov	eax, DWORD PTR [ecx]
	sub	eax, DWORD PTR [edx]
	sar	eax, 2
	shl	eax, 5
	sub	eax, DWORD PTR [edx+4]
	add	eax, DWORD PTR [ecx+4]

; 1657 : 		}

	ret	4
??G?$_Vb_const_iterator@IHV?$vector@_NV?$allocator@_N@std@@@std@@@std@@QBEHABV01@@Z ENDP ; std::_Vb_const_iterator<unsigned int,int,std::vector<bool,std::allocator<bool> > >::operator-
_TEXT	ENDS
PUBLIC	?max_size@?$allocator@I@std@@QBEIXZ		; std::allocator<unsigned int>::max_size
; Function compile flags: /Ogtpy
; File c:\program files (x86)\microsoft visual studio 9.0\vc\include\xmemory
;	COMDAT ?max_size@?$allocator@I@std@@QBEIXZ
_TEXT	SEGMENT
?max_size@?$allocator@I@std@@QBEIXZ PROC		; std::allocator<unsigned int>::max_size, COMDAT
; _this$ = ecx

; 165  : 		_SIZT _Count = (_SIZT)(-1) / sizeof (_Ty);
; 166  : 		return (0 < _Count ? _Count : 1);

	mov	eax, 1073741823				; 3fffffffH

; 167  : 		}

	ret	0
?max_size@?$allocator@I@std@@QBEIXZ ENDP		; std::allocator<unsigned int>::max_size
_TEXT	ENDS
PUBLIC	??0?$_Vb_iter_base@IHV?$vector@_NV?$allocator@_N@std@@@std@@@std@@QAE@PAII@Z ; std::_Vb_iter_base<unsigned int,int,std::vector<bool,std::allocator<bool> > >::_Vb_iter_base<unsigned int,int,std::vector<bool,std::allocator<bool> > >
; Function compile flags: /Ogtpy
; File c:\program files (x86)\microsoft visual studio 9.0\vc\include\vector
;	COMDAT ??0?$_Vb_iter_base@IHV?$vector@_NV?$allocator@_N@std@@@std@@@std@@QAE@PAII@Z
_TEXT	SEGMENT
__Ptr$ = 8						; size = 4
__Off$ = 12						; size = 4
??0?$_Vb_iter_base@IHV?$vector@_NV?$allocator@_N@std@@@std@@@std@@QAE@PAII@Z PROC ; std::_Vb_iter_base<unsigned int,int,std::vector<bool,std::allocator<bool> > >::_Vb_iter_base<unsigned int,int,std::vector<bool,std::allocator<bool> > >, COMDAT
; _this$ = ecx

; 1403 : 		{	// construct with offset and pointer

	mov	edx, DWORD PTR __Off$[esp-4]
	mov	eax, ecx
	mov	ecx, DWORD PTR __Ptr$[esp-4]
	mov	DWORD PTR [eax], ecx
	mov	DWORD PTR [eax+4], edx

; 1404 : 		}

	ret	8
??0?$_Vb_iter_base@IHV?$vector@_NV?$allocator@_N@std@@@std@@@std@@QAE@PAII@Z ENDP ; std::_Vb_iter_base<unsigned int,int,std::vector<bool,std::allocator<bool> > >::_Vb_iter_base<unsigned int,int,std::vector<bool,std::allocator<bool> > >
_TEXT	ENDS
PUBLIC	??0?$_Vector_const_iterator@IV?$allocator@I@std@@@std@@QAE@PAI@Z ; std::_Vector_const_iterator<unsigned int,std::allocator<unsigned int> >::_Vector_const_iterator<unsigned int,std::allocator<unsigned int> >
; Function compile flags: /Ogtpy
;	COMDAT ??0?$_Vector_const_iterator@IV?$allocator@I@std@@@std@@QAE@PAI@Z
_TEXT	SEGMENT
__Ptr$ = 8						; size = 4
??0?$_Vector_const_iterator@IV?$allocator@I@std@@@std@@QAE@PAI@Z PROC ; std::_Vector_const_iterator<unsigned int,std::allocator<unsigned int> >::_Vector_const_iterator<unsigned int,std::allocator<unsigned int> >, COMDAT
; _this$ = ecx

; 84   : 	explicit _Vector_const_iterator(_Tptr _Ptr)

	mov	eax, ecx

; 85   : 		{	// construct with pointer _Ptr
; 86   : 		_Myptr = _Ptr;

	mov	ecx, DWORD PTR __Ptr$[esp-4]
	mov	DWORD PTR [eax], ecx

; 87   : 		}

	ret	4
??0?$_Vector_const_iterator@IV?$allocator@I@std@@@std@@QAE@PAI@Z ENDP ; std::_Vector_const_iterator<unsigned int,std::allocator<unsigned int> >::_Vector_const_iterator<unsigned int,std::allocator<unsigned int> >
_TEXT	ENDS
PUBLIC	??Y?$_Vector_const_iterator@IV?$allocator@I@std@@@std@@QAEAAV01@H@Z ; std::_Vector_const_iterator<unsigned int,std::allocator<unsigned int> >::operator+=
; Function compile flags: /Ogtpy
;	COMDAT ??Y?$_Vector_const_iterator@IV?$allocator@I@std@@@std@@QAEAAV01@H@Z
_TEXT	SEGMENT
__Off$ = 8						; size = 4
??Y?$_Vector_const_iterator@IV?$allocator@I@std@@@std@@QAEAAV01@H@Z PROC ; std::_Vector_const_iterator<unsigned int,std::allocator<unsigned int> >::operator+=, COMDAT
; _this$ = ecx

; 159  : 		{	// increment by integer

	mov	eax, ecx

; 160  : 		_SCL_SECURE_VALIDATE(this->_Has_container());
; 161  : 		_SCL_SECURE_VALIDATE_RANGE(
; 162  : 			_Myptr + _Off <= ((_Myvec *)(this->_Getmycont()))->_Mylast &&
; 163  : 			_Myptr + _Off >= ((_Myvec *)(this->_Getmycont()))->_Myfirst);
; 164  : 		_Myptr += _Off;

	mov	ecx, DWORD PTR __Off$[esp-4]
	lea	edx, DWORD PTR [ecx*4]
	add	DWORD PTR [eax], edx

; 165  : 		return (*this);
; 166  : 		}

	ret	4
??Y?$_Vector_const_iterator@IV?$allocator@I@std@@@std@@QAEAAV01@H@Z ENDP ; std::_Vector_const_iterator<unsigned int,std::allocator<unsigned int> >::operator+=
_TEXT	ENDS
PUBLIC	??8?$_Vector_const_iterator@IV?$allocator@I@std@@@std@@QBE_NABV01@@Z ; std::_Vector_const_iterator<unsigned int,std::allocator<unsigned int> >::operator==
; Function compile flags: /Ogtpy
;	COMDAT ??8?$_Vector_const_iterator@IV?$allocator@I@std@@@std@@QBE_NABV01@@Z
_TEXT	SEGMENT
__Right$ = 8						; size = 4
??8?$_Vector_const_iterator@IV?$allocator@I@std@@@std@@QBE_NABV01@@Z PROC ; std::_Vector_const_iterator<unsigned int,std::allocator<unsigned int> >::operator==, COMDAT
; _this$ = ecx

; 204  : 
; 205  :  #if _HAS_ITERATOR_DEBUGGING
; 206  : 		_Compat(_Right);
; 207  :  #else
; 208  : 		_SCL_SECURE_VALIDATE(this->_Has_container() && this->_Same_container(_Right));
; 209  :  #endif /* _HAS_ITERATOR_DEBUGGING */
; 210  : 
; 211  : 		return (_Myptr == _Right._Myptr);

	mov	eax, DWORD PTR [ecx]
	mov	edx, DWORD PTR __Right$[esp-4]
	xor	ecx, ecx
	cmp	eax, DWORD PTR [edx]
	sete	cl
	mov	al, cl

; 212  : 		}

	ret	4
??8?$_Vector_const_iterator@IV?$allocator@I@std@@@std@@QBE_NABV01@@Z ENDP ; std::_Vector_const_iterator<unsigned int,std::allocator<unsigned int> >::operator==
_TEXT	ENDS
PUBLIC	??$?5_N@FDataStream@@QAEAAV0@AA_N@Z		; FDataStream::operator>><bool>
EXTRN	?Read@FDataStream@@IAEXAA_N@Z:PROC		; FDataStream::Read
; Function compile flags: /Ogtpy
; File c:\users\enormousapplepie\documents\github\lekmod\lekmod_dll\fireplace\include\fireworks\fdatastream.h
;	COMDAT ??$?5_N@FDataStream@@QAEAAV0@AA_N@Z
_TEXT	SEGMENT
_kData$ = 8						; size = 4
??$?5_N@FDataStream@@QAEAAV0@AA_N@Z PROC		; FDataStream::operator>><bool>, COMDAT
; _this$ = ecx

; 260  : 	// If the compiler produces an error here complaining about 
; 261  : 	// YouMustImplementASerializeOperatorForThisTypeError then
; 262  : 	// it could not find a specialization for the type supplied
; 263  : 	// in scope. If a specialization exists, be sure to include
; 264  : 	// the header (FStlContainerSerialization.h, for example), 
; 265  : 	// if not, implement :
; 266  : 	// FDataStream & operator>>(FDataStream &, YourCustomType &)
; 267  : 	Read( kData );

	mov	eax, DWORD PTR _kData$[esp-4]
	push	esi
	push	eax
	mov	esi, ecx
	call	?Read@FDataStream@@IAEXAA_N@Z		; FDataStream::Read

; 268  : 	return ( *this );

	mov	eax, esi
	pop	esi

; 269  : }

	ret	4
??$?5_N@FDataStream@@QAEAAV0@AA_N@Z ENDP		; FDataStream::operator>><bool>
_TEXT	ENDS
PUBLIC	??$?6_N@FDataStream@@QAEAAV0@AB_N@Z		; FDataStream::operator<<<bool>
EXTRN	?Write@FDataStream@@IAEXAB_N@Z:PROC		; FDataStream::Write
; Function compile flags: /Ogtpy
;	COMDAT ??$?6_N@FDataStream@@QAEAAV0@AB_N@Z
_TEXT	SEGMENT
_kData$ = 8						; size = 4
??$?6_N@FDataStream@@QAEAAV0@AB_N@Z PROC		; FDataStream::operator<<<bool>, COMDAT
; _this$ = ecx

; 246  : 	// If the compiler produces an error here complaining about 
; 247  : 	// YouMustImplementASerializeOperatorForThisTypeError then
; 248  : 	// it could not find a specialization for the type supplied
; 249  : 	// in scope. If a specialization exists, be sure to include
; 250  : 	// the header (FStlContainerSerialization.h, for example), 
; 251  : 	// if not, implement :
; 252  : 	// FDataStream & operator<<(FDataStream &, YourCustomType &)
; 253  : 	Write( kData );

	mov	eax, DWORD PTR _kData$[esp-4]
	push	esi
	push	eax
	mov	esi, ecx
	call	?Write@FDataStream@@IAEXAB_N@Z		; FDataStream::Write

; 254  : 	return ( *this );

	mov	eax, esi
	pop	esi

; 255  : }

	ret	4
??$?6_N@FDataStream@@QAEAAV0@AB_N@Z ENDP		; FDataStream::operator<<<bool>
_TEXT	ENDS
PUBLIC	??$?5VCvString@@@FDataStream@@QAEAAV0@AAVCvString@@@Z ; FDataStream::operator>><CvString>
EXTRN	?Read@FDataStream@@IAEXAAV?$basic_string@DU?$char_traits@D@std@@V?$allocator@D@2@@std@@@Z:PROC ; FDataStream::Read
; Function compile flags: /Ogtpy
;	COMDAT ??$?5VCvString@@@FDataStream@@QAEAAV0@AAVCvString@@@Z
_TEXT	SEGMENT
_kData$ = 8						; size = 4
??$?5VCvString@@@FDataStream@@QAEAAV0@AAVCvString@@@Z PROC ; FDataStream::operator>><CvString>, COMDAT
; _this$ = ecx

; 260  : 	// If the compiler produces an error here complaining about 
; 261  : 	// YouMustImplementASerializeOperatorForThisTypeError then
; 262  : 	// it could not find a specialization for the type supplied
; 263  : 	// in scope. If a specialization exists, be sure to include
; 264  : 	// the header (FStlContainerSerialization.h, for example), 
; 265  : 	// if not, implement :
; 266  : 	// FDataStream & operator>>(FDataStream &, YourCustomType &)
; 267  : 	Read( kData );

	mov	eax, DWORD PTR _kData$[esp-4]
	push	esi
	push	eax
	mov	esi, ecx
	call	?Read@FDataStream@@IAEXAAV?$basic_string@DU?$char_traits@D@std@@V?$allocator@D@2@@std@@@Z ; FDataStream::Read

; 268  : 	return ( *this );

	mov	eax, esi
	pop	esi

; 269  : }

	ret	4
??$?5VCvString@@@FDataStream@@QAEAAV0@AAVCvString@@@Z ENDP ; FDataStream::operator>><CvString>
_TEXT	ENDS
PUBLIC	??$?6VCvString@@@FDataStream@@QAEAAV0@ABVCvString@@@Z ; FDataStream::operator<<<CvString>
EXTRN	?Write@FDataStream@@IAEXABV?$basic_string@DU?$char_traits@D@std@@V?$allocator@D@2@@std@@@Z:PROC ; FDataStream::Write
; Function compile flags: /Ogtpy
;	COMDAT ??$?6VCvString@@@FDataStream@@QAEAAV0@ABVCvString@@@Z
_TEXT	SEGMENT
_kData$ = 8						; size = 4
??$?6VCvString@@@FDataStream@@QAEAAV0@ABVCvString@@@Z PROC ; FDataStream::operator<<<CvString>, COMDAT
; _this$ = ecx

; 246  : 	// If the compiler produces an error here complaining about 
; 247  : 	// YouMustImplementASerializeOperatorForThisTypeError then
; 248  : 	// it could not find a specialization for the type supplied
; 249  : 	// in scope. If a specialization exists, be sure to include
; 250  : 	// the header (FStlContainerSerialization.h, for example), 
; 251  : 	// if not, implement :
; 252  : 	// FDataStream & operator<<(FDataStream &, YourCustomType &)
; 253  : 	Write( kData );

	mov	eax, DWORD PTR _kData$[esp-4]
	push	esi
	push	eax
	mov	esi, ecx
	call	?Write@FDataStream@@IAEXABV?$basic_string@DU?$char_traits@D@std@@V?$allocator@D@2@@std@@@Z ; FDataStream::Write

; 254  : 	return ( *this );

	mov	eax, esi
	pop	esi

; 255  : }

	ret	4
??$?6VCvString@@@FDataStream@@QAEAAV0@ABVCvString@@@Z ENDP ; FDataStream::operator<<<CvString>
_TEXT	ENDS
PUBLIC	??$?5I@FDataStream@@QAEAAV0@AAI@Z		; FDataStream::operator>><unsigned int>
EXTRN	?Read@FDataStream@@IAEXAAI@Z:PROC		; FDataStream::Read
; Function compile flags: /Ogtpy
;	COMDAT ??$?5I@FDataStream@@QAEAAV0@AAI@Z
_TEXT	SEGMENT
_kData$ = 8						; size = 4
??$?5I@FDataStream@@QAEAAV0@AAI@Z PROC			; FDataStream::operator>><unsigned int>, COMDAT
; _this$ = ecx

; 260  : 	// If the compiler produces an error here complaining about 
; 261  : 	// YouMustImplementASerializeOperatorForThisTypeError then
; 262  : 	// it could not find a specialization for the type supplied
; 263  : 	// in scope. If a specialization exists, be sure to include
; 264  : 	// the header (FStlContainerSerialization.h, for example), 
; 265  : 	// if not, implement :
; 266  : 	// FDataStream & operator>>(FDataStream &, YourCustomType &)
; 267  : 	Read( kData );

	mov	eax, DWORD PTR _kData$[esp-4]
	push	esi
	push	eax
	mov	esi, ecx
	call	?Read@FDataStream@@IAEXAAI@Z		; FDataStream::Read

; 268  : 	return ( *this );

	mov	eax, esi
	pop	esi

; 269  : }

	ret	4
??$?5I@FDataStream@@QAEAAV0@AAI@Z ENDP			; FDataStream::operator>><unsigned int>
_TEXT	ENDS
PUBLIC	??$?6I@FDataStream@@QAEAAV0@ABI@Z		; FDataStream::operator<<<unsigned int>
EXTRN	?Write@FDataStream@@IAEXABI@Z:PROC		; FDataStream::Write
; Function compile flags: /Ogtpy
;	COMDAT ??$?6I@FDataStream@@QAEAAV0@ABI@Z
_TEXT	SEGMENT
_kData$ = 8						; size = 4
??$?6I@FDataStream@@QAEAAV0@ABI@Z PROC			; FDataStream::operator<<<unsigned int>, COMDAT
; _this$ = ecx

; 246  : 	// If the compiler produces an error here complaining about 
; 247  : 	// YouMustImplementASerializeOperatorForThisTypeError then
; 248  : 	// it could not find a specialization for the type supplied
; 249  : 	// in scope. If a specialization exists, be sure to include
; 250  : 	// the header (FStlContainerSerialization.h, for example), 
; 251  : 	// if not, implement :
; 252  : 	// FDataStream & operator<<(FDataStream &, YourCustomType &)
; 253  : 	Write( kData );

	mov	eax, DWORD PTR _kData$[esp-4]
	push	esi
	push	eax
	mov	esi, ecx
	call	?Write@FDataStream@@IAEXABI@Z		; FDataStream::Write

; 254  : 	return ( *this );

	mov	eax, esi
	pop	esi

; 255  : }

	ret	4
??$?6I@FDataStream@@QAEAAV0@ABI@Z ENDP			; FDataStream::operator<<<unsigned int>
_TEXT	ENDS
PUBLIC	__TI2?AVbad_alloc@std@@
PUBLIC	??$_Allocate@I@std@@YAPAIIPAI@Z			; std::_Allocate<unsigned int>
PUBLIC	__CTA2?AVbad_alloc@std@@
PUBLIC	__CT??_R0?AVbad_alloc@std@@@8??0bad_alloc@std@@QAE@ABV01@@Z12
PUBLIC	??0bad_alloc@std@@QAE@ABV01@@Z			; std::bad_alloc::bad_alloc
EXTRN	??2@YAPAXI@Z:PROC				; operator new
;	COMDAT __CT??_R0?AVbad_alloc@std@@@8??0bad_alloc@std@@QAE@ABV01@@Z12
; File c:\program files (x86)\microsoft visual studio 9.0\vc\include\exception
xdata$x	SEGMENT
__CT??_R0?AVbad_alloc@std@@@8??0bad_alloc@std@@QAE@ABV01@@Z12 DD 00H
	DD	FLAT:??_R0?AVbad_alloc@std@@@8
	DD	00H
	DD	0ffffffffH
	ORG $+4
	DD	0cH
	DD	FLAT:??0bad_alloc@std@@QAE@ABV01@@Z
xdata$x	ENDS
;	COMDAT __CTA2?AVbad_alloc@std@@
xdata$x	SEGMENT
__CTA2?AVbad_alloc@std@@ DD 02H
	DD	FLAT:__CT??_R0?AVbad_alloc@std@@@8??0bad_alloc@std@@QAE@ABV01@@Z12
	DD	FLAT:__CT??_R0?AVexception@std@@@8??0exception@std@@QAE@ABV01@@Z12
xdata$x	ENDS
;	COMDAT __TI2?AVbad_alloc@std@@
xdata$x	SEGMENT
__TI2?AVbad_alloc@std@@ DD 00H
	DD	FLAT:??1bad_alloc@std@@UAE@XZ
	DD	00H
	DD	FLAT:__CTA2?AVbad_alloc@std@@
; Function compile flags: /Ogtpy
; File c:\program files (x86)\microsoft visual studio 9.0\vc\include\xmemory
xdata$x	ENDS
;	COMDAT ??$_Allocate@I@std@@YAPAIIPAI@Z
_TEXT	SEGMENT
$T221031 = -12						; size = 12
$T221035 = 8						; size = 4
__Count$ = 8						; size = 4
___formal$ = 12						; size = 4
??$_Allocate@I@std@@YAPAIIPAI@Z PROC			; std::_Allocate<unsigned int>, COMDAT

; 37   : 	if (_Count <= 0)

	mov	ecx, DWORD PTR __Count$[esp-4]
	sub	esp, 12					; 0000000cH
	test	ecx, ecx
	ja	SHORT $LN3@Allocate

; 38   : 		_Count = 0;

	xor	ecx, ecx
$LN1@Allocate:

; 41   : 
; 42   : 		// allocate storage for _Count elements of type _Ty
; 43   : 	return ((_Ty _FARQ *)::operator new(_Count * sizeof (_Ty)));

	lea	edx, DWORD PTR [ecx*4]
	push	edx
	call	??2@YAPAXI@Z				; operator new
	add	esp, 4

; 44   : 	}

	add	esp, 12					; 0000000cH
	ret	0
$LN3@Allocate:

; 39   : 	else if (((_SIZT)(-1) / _Count) < sizeof (_Ty))

	or	eax, -1
	xor	edx, edx
	div	ecx
	cmp	eax, 4
	jae	SHORT $LN1@Allocate

; 40   : 		_THROW_NCEE(std::bad_alloc, NULL);

	lea	eax, DWORD PTR $T221035[esp+8]
	push	eax
	lea	ecx, DWORD PTR $T221031[esp+16]
	mov	DWORD PTR $T221035[esp+12], 0
	call	DWORD PTR __imp_??0exception@std@@QAE@ABQBD@Z
	push	OFFSET __TI2?AVbad_alloc@std@@
	lea	ecx, DWORD PTR $T221031[esp+16]
	push	ecx
	mov	DWORD PTR $T221031[esp+20], OFFSET ??_7bad_alloc@std@@6B@
	call	__CxxThrowException@8
$LN9@Allocate:
$LN8@Allocate:
	int	3
??$_Allocate@I@std@@YAPAIIPAI@Z ENDP			; std::_Allocate<unsigned int>
; Function compile flags: /Ogtpy
_TEXT	ENDS
;	COMDAT ??0bad_alloc@std@@QAE@ABV01@@Z
_TEXT	SEGMENT
___that$ = 8						; size = 4
??0bad_alloc@std@@QAE@ABV01@@Z PROC			; std::bad_alloc::bad_alloc, COMDAT
; _this$ = ecx
	mov	eax, DWORD PTR ___that$[esp-4]
	push	esi
	push	eax
	mov	esi, ecx
	call	DWORD PTR __imp_??0exception@std@@QAE@ABV01@@Z
	mov	DWORD PTR [esi], OFFSET ??_7bad_alloc@std@@6B@
	mov	eax, esi
	pop	esi
	ret	4
??0bad_alloc@std@@QAE@ABV01@@Z ENDP			; std::bad_alloc::bad_alloc
_TEXT	ENDS
PUBLIC	?size@?$vector@_NV?$allocator@_N@std@@@std@@QBEIXZ ; std::vector<bool,std::allocator<bool> >::size
; Function compile flags: /Ogtpy
; File c:\program files (x86)\microsoft visual studio 9.0\vc\include\vector
;	COMDAT ?size@?$vector@_NV?$allocator@_N@std@@@std@@QBEIXZ
_TEXT	SEGMENT
?size@?$vector@_NV?$allocator@_N@std@@@std@@QBEIXZ PROC	; std::vector<bool,std::allocator<bool> >::size, COMDAT
; _this$ = ecx

; 2048 : 		return (_Mysize);

	mov	eax, DWORD PTR [ecx]

; 2049 : 		}

	ret	0
?size@?$vector@_NV?$allocator@_N@std@@@std@@QBEIXZ ENDP	; std::vector<bool,std::allocator<bool> >::size
_TEXT	ENDS
PUBLIC	??0?$SerializeFromSequenceContainer@$$CB_N$$CBV?$vector@_NV?$allocator@_N@std@@@std@@@@QAE@AAVFDataStream@@ABV?$vector@_NV?$allocator@_N@std@@@std@@@Z ; SerializeFromSequenceContainer<bool const ,std::vector<bool,std::allocator<bool> > const >::SerializeFromSequenceContainer<bool const ,std::vector<bool,std::allocator<bool> > const >
; Function compile flags: /Ogtpy
; File c:\users\enormousapplepie\documents\github\lekmod\lekmod_dll\fireplace\include\fireworks\fstlcontainerserialization.h
;	COMDAT ??0?$SerializeFromSequenceContainer@$$CB_N$$CBV?$vector@_NV?$allocator@_N@std@@@std@@@@QAE@AAVFDataStream@@ABV?$vector@_NV?$allocator@_N@std@@@std@@@Z
_TEXT	SEGMENT
$T221048 = 8						; size = 4
_saveTo$ = 8						; size = 4
_container$ = 12					; size = 4
??0?$SerializeFromSequenceContainer@$$CB_N$$CBV?$vector@_NV?$allocator@_N@std@@@std@@@@QAE@AAVFDataStream@@ABV?$vector@_NV?$allocator@_N@std@@@std@@@Z PROC ; SerializeFromSequenceContainer<bool const ,std::vector<bool,std::allocator<bool> > const >::SerializeFromSequenceContainer<bool const ,std::vector<bool,std::allocator<bool> > const >, COMDAT
; _this$ = ecx

; 69   : 	{

	mov	eax, DWORD PTR _container$[esp-4]
	push	esi
	mov	esi, ecx
	mov	ecx, DWORD PTR _saveTo$[esp]
	mov	DWORD PTR [esi], ecx
	mov	DWORD PTR [esi+4], eax

; 70   : 		m_saveTo << container.size();

	mov	eax, DWORD PTR [eax]
	lea	edx, DWORD PTR $T221048[esp]
	push	edx
	mov	DWORD PTR $T221048[esp+4], eax
	call	?Write@FDataStream@@IAEXABI@Z		; FDataStream::Write

; 71   : 	}

	mov	eax, esi
	pop	esi
	ret	8
??0?$SerializeFromSequenceContainer@$$CB_N$$CBV?$vector@_NV?$allocator@_N@std@@@std@@@@QAE@AAVFDataStream@@ABV?$vector@_NV?$allocator@_N@std@@@std@@@Z ENDP ; SerializeFromSequenceContainer<bool const ,std::vector<bool,std::allocator<bool> > const >::SerializeFromSequenceContainer<bool const ,std::vector<bool,std::allocator<bool> > const >
_TEXT	ENDS
PUBLIC	?begin@?$vector@IV?$allocator@I@std@@@std@@QBE?AV?$_Vector_const_iterator@IV?$allocator@I@std@@@2@XZ ; std::vector<unsigned int,std::allocator<unsigned int> >::begin
; Function compile flags: /Ogtpy
; File c:\program files (x86)\microsoft visual studio 9.0\vc\include\vector
;	COMDAT ?begin@?$vector@IV?$allocator@I@std@@@std@@QBE?AV?$_Vector_const_iterator@IV?$allocator@I@std@@@2@XZ
_TEXT	SEGMENT
___$ReturnUdt$ = 8					; size = 4
?begin@?$vector@IV?$allocator@I@std@@@std@@QBE?AV?$_Vector_const_iterator@IV?$allocator@I@std@@@2@XZ PROC ; std::vector<unsigned int,std::allocator<unsigned int> >::begin, COMDAT
; _this$ = ecx

; 672  : 		return (const_iterator(_Myfirst));

	mov	ecx, DWORD PTR [ecx+4]
	mov	eax, DWORD PTR ___$ReturnUdt$[esp-4]
	mov	DWORD PTR [eax], ecx

; 673  : 		}

	ret	4
?begin@?$vector@IV?$allocator@I@std@@@std@@QBE?AV?$_Vector_const_iterator@IV?$allocator@I@std@@@2@XZ ENDP ; std::vector<unsigned int,std::allocator<unsigned int> >::begin
_TEXT	ENDS
PUBLIC	??8?$_Vb_const_iterator@IHV?$vector@_NV?$allocator@_N@std@@@std@@@std@@QBE_NABV01@@Z ; std::_Vb_const_iterator<unsigned int,int,std::vector<bool,std::allocator<bool> > >::operator==
; Function compile flags: /Ogtpy
;	COMDAT ??8?$_Vb_const_iterator@IHV?$vector@_NV?$allocator@_N@std@@@std@@@std@@QBE_NABV01@@Z
_TEXT	SEGMENT
__Right$ = 8						; size = 4
??8?$_Vb_const_iterator@IHV?$vector@_NV?$allocator@_N@std@@@std@@@std@@QBE_NABV01@@Z PROC ; std::_Vb_const_iterator<unsigned int,int,std::vector<bool,std::allocator<bool> > >::operator==, COMDAT
; _this$ = ecx

; 1666 : 
; 1667 :  #if _HAS_ITERATOR_DEBUGGING
; 1668 : 		_Compat(_Right);
; 1669 :  #endif /* _HAS_ITERATOR_DEBUGGING */
; 1670 : 
; 1671 : 		return (this->_Myptr == _Right._Myptr
; 1672 : 			&& this->_Myoff == _Right._Myoff);

	mov	edx, DWORD PTR [ecx]
	mov	eax, DWORD PTR __Right$[esp-4]
	cmp	edx, DWORD PTR [eax]
	jne	SHORT $LN3@operator@2
	mov	ecx, DWORD PTR [ecx+4]
	cmp	ecx, DWORD PTR [eax+4]
	jne	SHORT $LN3@operator@2
	mov	eax, 1

; 1673 : 		}

	ret	4
$LN3@operator@2:

; 1666 : 
; 1667 :  #if _HAS_ITERATOR_DEBUGGING
; 1668 : 		_Compat(_Right);
; 1669 :  #endif /* _HAS_ITERATOR_DEBUGGING */
; 1670 : 
; 1671 : 		return (this->_Myptr == _Right._Myptr
; 1672 : 			&& this->_Myoff == _Right._Myoff);

	xor	eax, eax

; 1673 : 		}

	ret	4
??8?$_Vb_const_iterator@IHV?$vector@_NV?$allocator@_N@std@@@std@@@std@@QBE_NABV01@@Z ENDP ; std::_Vb_const_iterator<unsigned int,int,std::vector<bool,std::allocator<bool> > >::operator==
_TEXT	ENDS
PUBLIC	?_Inc@?$_Vb_const_iterator@IHV?$vector@_NV?$allocator@_N@std@@@std@@@std@@IAEXXZ ; std::_Vb_const_iterator<unsigned int,int,std::vector<bool,std::allocator<bool> > >::_Inc
; Function compile flags: /Ogtpy
;	COMDAT ?_Inc@?$_Vb_const_iterator@IHV?$vector@_NV?$allocator@_N@std@@@std@@@std@@IAEXXZ
_TEXT	SEGMENT
?_Inc@?$_Vb_const_iterator@IHV?$vector@_NV?$allocator@_N@std@@@std@@@std@@IAEXXZ PROC ; std::_Vb_const_iterator<unsigned int,int,std::vector<bool,std::allocator<bool> > >::_Inc, COMDAT
; _this$ = ecx

; 1734 : 		_SCL_SECURE_VALIDATE(this->_Has_container() && this->_Myptr != NULL);
; 1735 : 		_SCL_SECURE_VALIDATE_RANGE((this->_My_actual_offset() + 1) <= ((_MycontTy *)this->_Getmycont())->_Mysize);
; 1736 : 		if (this->_Myoff < _VBITS - 1)

	mov	eax, DWORD PTR [ecx+4]
	cmp	eax, 31					; 0000001fH
	jae	SHORT $LN2@Inc

; 1737 : 			++this->_Myoff;

	inc	eax
	mov	DWORD PTR [ecx+4], eax

; 1740 : 		}

	ret	0
$LN2@Inc:

; 1738 : 		else
; 1739 : 			this->_Myoff = 0, ++this->_Myptr;

	add	DWORD PTR [ecx], 4
	mov	DWORD PTR [ecx+4], 0

; 1740 : 		}

	ret	0
?_Inc@?$_Vb_const_iterator@IHV?$vector@_NV?$allocator@_N@std@@@std@@@std@@IAEXXZ ENDP ; std::_Vb_const_iterator<unsigned int,int,std::vector<bool,std::allocator<bool> > >::_Inc
_TEXT	ENDS
PUBLIC	??0?$_Vb_reference@IHV?$vector@_NV?$allocator@_N@std@@@std@@@std@@QAE@ABV?$_Vb_iter_base@IHV?$vector@_NV?$allocator@_N@std@@@std@@@1@@Z ; std::_Vb_reference<unsigned int,int,std::vector<bool,std::allocator<bool> > >::_Vb_reference<unsigned int,int,std::vector<bool,std::allocator<bool> > >
; Function compile flags: /Ogtpy
;	COMDAT ??0?$_Vb_reference@IHV?$vector@_NV?$allocator@_N@std@@@std@@@std@@QAE@ABV?$_Vb_iter_base@IHV?$vector@_NV?$allocator@_N@std@@@std@@@1@@Z
_TEXT	SEGMENT
__Right$ = 8						; size = 4
??0?$_Vb_reference@IHV?$vector@_NV?$allocator@_N@std@@@std@@@std@@QAE@ABV?$_Vb_iter_base@IHV?$vector@_NV?$allocator@_N@std@@@std@@@1@@Z PROC ; std::_Vb_reference<unsigned int,int,std::vector<bool,std::allocator<bool> > >::_Vb_reference<unsigned int,int,std::vector<bool,std::allocator<bool> > >, COMDAT
; _this$ = ecx

; 1465 : 		{	// construct with base

	mov	eax, ecx
	mov	ecx, DWORD PTR __Right$[esp-4]
	mov	edx, DWORD PTR [ecx+4]
	mov	ecx, DWORD PTR [ecx]
	mov	DWORD PTR [eax], ecx
	mov	DWORD PTR [eax+4], edx

; 1466 : 		}

	ret	4
??0?$_Vb_reference@IHV?$vector@_NV?$allocator@_N@std@@@std@@@std@@QAE@ABV?$_Vb_iter_base@IHV?$vector@_NV?$allocator@_N@std@@@std@@@1@@Z ENDP ; std::_Vb_reference<unsigned int,int,std::vector<bool,std::allocator<bool> > >::_Vb_reference<unsigned int,int,std::vector<bool,std::allocator<bool> > >
_TEXT	ENDS
PUBLIC	?_Getptr@?$_Vb_reference@IHV?$vector@_NV?$allocator@_N@std@@@std@@@std@@QBEPAIXZ ; std::_Vb_reference<unsigned int,int,std::vector<bool,std::allocator<bool> > >::_Getptr
; Function compile flags: /Ogtpy
;	COMDAT ?_Getptr@?$_Vb_reference@IHV?$vector@_NV?$allocator@_N@std@@@std@@@std@@QBEPAIXZ
_TEXT	SEGMENT
?_Getptr@?$_Vb_reference@IHV?$vector@_NV?$allocator@_N@std@@@std@@@std@@QBEPAIXZ PROC ; std::_Vb_reference<unsigned int,int,std::vector<bool,std::allocator<bool> > >::_Getptr, COMDAT
; _this$ = ecx

; 1500 : 
; 1501 :  #if _HAS_ITERATOR_DEBUGGING
; 1502 : 		if (this->_Mycont == 0 || this->_Myptr == 0)
; 1503 : 			{
; 1504 : 			_DEBUG_ERROR("vector<bool> iterator not dereferencable");
; 1505 : 			_SCL_SECURE_OUT_OF_RANGE;
; 1506 : 			}
; 1507 :  #else /* _HAS_ITERATOR_DEBUGGING */
; 1508 :  		_SCL_SECURE_VALIDATE(this->_Has_container() && this->_Myptr != NULL);
; 1509 : 		_SCL_SECURE_VALIDATE_RANGE(this->_My_actual_offset() < ((_MycontTy *)this->_Getmycont())->_Mysize);
; 1510 :  #endif /* _HAS_ITERATOR_DEBUGGING */
; 1511 : 
; 1512 : 		return (this->_Myptr);

	mov	eax, DWORD PTR [ecx]

; 1513 : 		}

	ret	0
?_Getptr@?$_Vb_reference@IHV?$vector@_NV?$allocator@_N@std@@@std@@@std@@QBEPAIXZ ENDP ; std::_Vb_reference<unsigned int,int,std::vector<bool,std::allocator<bool> > >::_Getptr
_TEXT	ENDS
PUBLIC	?_Mask@?$_Vb_reference@IHV?$vector@_NV?$allocator@_N@std@@@std@@@std@@IBEIXZ ; std::_Vb_reference<unsigned int,int,std::vector<bool,std::allocator<bool> > >::_Mask
; Function compile flags: /Ogtpy
;	COMDAT ?_Mask@?$_Vb_reference@IHV?$vector@_NV?$allocator@_N@std@@@std@@@std@@IBEIXZ
_TEXT	SEGMENT
?_Mask@?$_Vb_reference@IHV?$vector@_NV?$allocator@_N@std@@@std@@@std@@IBEIXZ PROC ; std::_Vb_reference<unsigned int,int,std::vector<bool,std::allocator<bool> > >::_Mask, COMDAT
; _this$ = ecx

; 1518 : 		return ((_Vbase)(1 << this->_Myoff));

	mov	ecx, DWORD PTR [ecx+4]
	mov	eax, 1
	shl	eax, cl

; 1519 : 		}

	ret	0
?_Mask@?$_Vb_reference@IHV?$vector@_NV?$allocator@_N@std@@@std@@@std@@IBEIXZ ENDP ; std::_Vb_reference<unsigned int,int,std::vector<bool,std::allocator<bool> > >::_Mask
_TEXT	ENDS
PUBLIC	??$_Iter_random@V?$_Vb_iterator@IHV?$vector@_NV?$allocator@_N@std@@@std@@@std@@V12@@std@@YA?AUrandom_access_iterator_tag@0@ABV?$_Vb_iterator@IHV?$vector@_NV?$allocator@_N@std@@@std@@@0@0@Z ; std::_Iter_random<std::_Vb_iterator<unsigned int,int,std::vector<bool,std::allocator<bool> > >,std::_Vb_iterator<unsigned int,int,std::vector<bool,std::allocator<bool> > > >
; Function compile flags: /Ogtpy
; File c:\program files (x86)\microsoft visual studio 9.0\vc\include\xutility
;	COMDAT ??$_Iter_random@V?$_Vb_iterator@IHV?$vector@_NV?$allocator@_N@std@@@std@@@std@@V12@@std@@YA?AUrandom_access_iterator_tag@0@ABV?$_Vb_iterator@IHV?$vector@_NV?$allocator@_N@std@@@std@@@0@0@Z
_TEXT	SEGMENT
___$ReturnUdt$ = 8					; size = 4
___formal$ = 12						; size = 4
___formal$ = 16						; size = 4
??$_Iter_random@V?$_Vb_iterator@IHV?$vector@_NV?$allocator@_N@std@@@std@@@std@@V12@@std@@YA?AUrandom_access_iterator_tag@0@ABV?$_Vb_iterator@IHV?$vector@_NV?$allocator@_N@std@@@std@@@0@0@Z PROC ; std::_Iter_random<std::_Vb_iterator<unsigned int,int,std::vector<bool,std::allocator<bool> > >,std::_Vb_iterator<unsigned int,int,std::vector<bool,std::allocator<bool> > > >, COMDAT

; 994  : 	typename _Iter_random_helper<
; 995  : 		iterator_traits<_Iter1>::iterator_category, 
; 996  : 		iterator_traits<_Iter2>::iterator_category>::_Iter_random_cat _Cat;
; 997  : 	return (_Cat);

	mov	eax, DWORD PTR ___$ReturnUdt$[esp-4]

; 998  : 	}

	ret	0
??$_Iter_random@V?$_Vb_iterator@IHV?$vector@_NV?$allocator@_N@std@@@std@@@std@@V12@@std@@YA?AUrandom_access_iterator_tag@0@ABV?$_Vb_iterator@IHV?$vector@_NV?$allocator@_N@std@@@std@@@0@0@Z ENDP ; std::_Iter_random<std::_Vb_iterator<unsigned int,int,std::vector<bool,std::allocator<bool> > >,std::_Vb_iterator<unsigned int,int,std::vector<bool,std::allocator<bool> > > >
_TEXT	ENDS
PUBLIC	??$_Ptr_cat@V?$_Vb_iterator@IHV?$vector@_NV?$allocator@_N@std@@@std@@@std@@V12@@std@@YA?AU_Nonscalar_ptr_iterator_tag@0@AAV?$_Vb_iterator@IHV?$vector@_NV?$allocator@_N@std@@@std@@@0@0@Z ; std::_Ptr_cat<std::_Vb_iterator<unsigned int,int,std::vector<bool,std::allocator<bool> > >,std::_Vb_iterator<unsigned int,int,std::vector<bool,std::allocator<bool> > > >
; Function compile flags: /Ogtpy
;	COMDAT ??$_Ptr_cat@V?$_Vb_iterator@IHV?$vector@_NV?$allocator@_N@std@@@std@@@std@@V12@@std@@YA?AU_Nonscalar_ptr_iterator_tag@0@AAV?$_Vb_iterator@IHV?$vector@_NV?$allocator@_N@std@@@std@@@0@0@Z
_TEXT	SEGMENT
__Cat$ = -1						; size = 1
___formal$ = 8						; size = 4
___formal$ = 12						; size = 4
??$_Ptr_cat@V?$_Vb_iterator@IHV?$vector@_NV?$allocator@_N@std@@@std@@@std@@V12@@std@@YA?AU_Nonscalar_ptr_iterator_tag@0@AAV?$_Vb_iterator@IHV?$vector@_NV?$allocator@_N@std@@@std@@@0@0@Z PROC ; std::_Ptr_cat<std::_Vb_iterator<unsigned int,int,std::vector<bool,std::allocator<bool> > >,std::_Vb_iterator<unsigned int,int,std::vector<bool,std::allocator<bool> > > >, COMDAT

; 1509 : 	{

	push	ecx

; 1510 : 	typename _Ptr_cat_helper<_T1, _T2>::_Ptr_cat _Cat;
; 1511 : 	return (_Cat);

	mov	al, BYTE PTR __Cat$[esp+4]

; 1512 : 	}

	pop	ecx
	ret	0
??$_Ptr_cat@V?$_Vb_iterator@IHV?$vector@_NV?$allocator@_N@std@@@std@@@std@@V12@@std@@YA?AU_Nonscalar_ptr_iterator_tag@0@AAV?$_Vb_iterator@IHV?$vector@_NV?$allocator@_N@std@@@std@@@0@0@Z ENDP ; std::_Ptr_cat<std::_Vb_iterator<unsigned int,int,std::vector<bool,std::allocator<bool> > >,std::_Vb_iterator<unsigned int,int,std::vector<bool,std::allocator<bool> > > >
_TEXT	ENDS
PUBLIC	??$_Iter_random@PAIPAI@std@@YA?AUrandom_access_iterator_tag@0@ABQAI0@Z ; std::_Iter_random<unsigned int *,unsigned int *>
; Function compile flags: /Ogtpy
;	COMDAT ??$_Iter_random@PAIPAI@std@@YA?AUrandom_access_iterator_tag@0@ABQAI0@Z
_TEXT	SEGMENT
___$ReturnUdt$ = 8					; size = 4
___formal$ = 12						; size = 4
___formal$ = 16						; size = 4
??$_Iter_random@PAIPAI@std@@YA?AUrandom_access_iterator_tag@0@ABQAI0@Z PROC ; std::_Iter_random<unsigned int *,unsigned int *>, COMDAT

; 994  : 	typename _Iter_random_helper<
; 995  : 		iterator_traits<_Iter1>::iterator_category, 
; 996  : 		iterator_traits<_Iter2>::iterator_category>::_Iter_random_cat _Cat;
; 997  : 	return (_Cat);

	mov	eax, DWORD PTR ___$ReturnUdt$[esp-4]

; 998  : 	}

	ret	0
??$_Iter_random@PAIPAI@std@@YA?AUrandom_access_iterator_tag@0@ABQAI0@Z ENDP ; std::_Iter_random<unsigned int *,unsigned int *>
_TEXT	ENDS
PUBLIC	??$_Ptr_cat@PAIPAI@std@@YA?AU_Scalar_ptr_iterator_tag@0@AAPAI0@Z ; std::_Ptr_cat<unsigned int *,unsigned int *>
; Function compile flags: /Ogtpy
;	COMDAT ??$_Ptr_cat@PAIPAI@std@@YA?AU_Scalar_ptr_iterator_tag@0@AAPAI0@Z
_TEXT	SEGMENT
__Cat$ = -1						; size = 1
___formal$ = 8						; size = 4
___formal$ = 12						; size = 4
??$_Ptr_cat@PAIPAI@std@@YA?AU_Scalar_ptr_iterator_tag@0@AAPAI0@Z PROC ; std::_Ptr_cat<unsigned int *,unsigned int *>, COMDAT

; 1509 : 	{

	push	ecx

; 1510 : 	typename _Ptr_cat_helper<_T1, _T2>::_Ptr_cat _Cat;
; 1511 : 	return (_Cat);

	mov	al, BYTE PTR __Cat$[esp+4]

; 1512 : 	}

	pop	ecx
	ret	0
??$_Ptr_cat@PAIPAI@std@@YA?AU_Scalar_ptr_iterator_tag@0@AAPAI0@Z ENDP ; std::_Ptr_cat<unsigned int *,unsigned int *>
_TEXT	ENDS
PUBLIC	??$_Copy_opt@PAIPAIUrandom_access_iterator_tag@std@@@std@@YAPAIPAI00Urandom_access_iterator_tag@0@U_Scalar_ptr_iterator_tag@0@U_Range_checked_iterator_tag@0@@Z ; std::_Copy_opt<unsigned int *,unsigned int *,std::random_access_iterator_tag>
EXTRN	__imp__memmove_s:PROC
; Function compile flags: /Ogtpy
;	COMDAT ??$_Copy_opt@PAIPAIUrandom_access_iterator_tag@std@@@std@@YAPAIPAI00Urandom_access_iterator_tag@0@U_Scalar_ptr_iterator_tag@0@U_Range_checked_iterator_tag@0@@Z
_TEXT	SEGMENT
__First$ = 8						; size = 4
__Last$ = 12						; size = 4
__Dest$ = 16						; size = 4
___formal$ = 20						; size = 1
___formal$ = 24						; size = 1
___formal$ = 28						; size = 1
??$_Copy_opt@PAIPAIUrandom_access_iterator_tag@std@@@std@@YAPAIPAI00Urandom_access_iterator_tag@0@U_Scalar_ptr_iterator_tag@0@U_Range_checked_iterator_tag@0@@Z PROC ; std::_Copy_opt<unsigned int *,unsigned int *,std::random_access_iterator_tag>, COMDAT

; 2495 : 
; 2496 :  #if _HAS_ITERATOR_DEBUGGING
; 2497 : 	_DEBUG_RANGE(_First, _Last);
; 2498 : 	if (_First != _Last)
; 2499 : 		_DEBUG_POINTER(_Dest);
; 2500 :  #endif /* _HAS_ITERATOR_DEBUGGING */
; 2501 : 
; 2502 : 	ptrdiff_t _Off = _Last - _First;	// NB: non-overlapping move

	mov	eax, DWORD PTR __Last$[esp-4]
	mov	edx, DWORD PTR __First$[esp-4]
	sub	eax, edx
	push	esi
	sar	eax, 2
	push	edi

; 2503 : 	// if _OutIt is range checked, this will make sure there is enough space for the memmove
; 2504 : 	_OutIt _Result = _Dest + _Off;

	mov	edi, DWORD PTR __Dest$[esp+4]
	lea	ecx, DWORD PTR [eax*4]
	lea	esi, DWORD PTR [ecx+edi]

; 2505 : 	if (_Off > 0)

	test	eax, eax
	jle	SHORT $LN4@Copy_opt@2

; 2506 : 		_CRT_SECURE_MEMMOVE(&*_Dest, _Off * sizeof (*_First), &*_First, _Off * sizeof (*_First));

	push	ecx
	push	edx
	push	ecx
	push	edi
	call	DWORD PTR __imp__memmove_s
	add	esp, 16					; 00000010H
$LN4@Copy_opt@2:
	pop	edi

; 2507 : 	return _Result;

	mov	eax, esi
	pop	esi

; 2508 : 	}

	ret	0
??$_Copy_opt@PAIPAIUrandom_access_iterator_tag@std@@@std@@YAPAIPAI00Urandom_access_iterator_tag@0@U_Scalar_ptr_iterator_tag@0@U_Range_checked_iterator_tag@0@@Z ENDP ; std::_Copy_opt<unsigned int *,unsigned int *,std::random_access_iterator_tag>
_TEXT	ENDS
PUBLIC	??$_Destroy_range@V?$allocator@I@std@@@std@@YAXPAI0AAV?$allocator@I@0@U_Scalar_ptr_iterator_tag@0@@Z ; std::_Destroy_range<std::allocator<unsigned int> >
; Function compile flags: /Ogtpy
; File c:\program files (x86)\microsoft visual studio 9.0\vc\include\xmemory
;	COMDAT ??$_Destroy_range@V?$allocator@I@std@@@std@@YAXPAI0AAV?$allocator@I@0@U_Scalar_ptr_iterator_tag@0@@Z
_TEXT	SEGMENT
__First$ = 8						; size = 4
__Last$ = 12						; size = 4
__Al$ = 16						; size = 4
___formal$ = 20						; size = 1
??$_Destroy_range@V?$allocator@I@std@@@std@@YAXPAI0AAV?$allocator@I@0@U_Scalar_ptr_iterator_tag@0@@Z PROC ; std::_Destroy_range<std::allocator<unsigned int> >, COMDAT

; 242  : 	}

	ret	0
??$_Destroy_range@V?$allocator@I@std@@@std@@YAXPAI0AAV?$allocator@I@0@U_Scalar_ptr_iterator_tag@0@@Z ENDP ; std::_Destroy_range<std::allocator<unsigned int> >
_TEXT	ENDS
PUBLIC	??D?$_Vb_iterator@IHV?$vector@_NV?$allocator@_N@std@@@std@@@std@@QBE?AV?$_Vb_reference@IHV?$vector@_NV?$allocator@_N@std@@@std@@@1@XZ ; std::_Vb_iterator<unsigned int,int,std::vector<bool,std::allocator<bool> > >::operator*
; Function compile flags: /Ogtpy
; File c:\program files (x86)\microsoft visual studio 9.0\vc\include\vector
;	COMDAT ??D?$_Vb_iterator@IHV?$vector@_NV?$allocator@_N@std@@@std@@@std@@QBE?AV?$_Vb_reference@IHV?$vector@_NV?$allocator@_N@std@@@std@@@1@XZ
_TEXT	SEGMENT
___$ReturnUdt$ = 8					; size = 4
??D?$_Vb_iterator@IHV?$vector@_NV?$allocator@_N@std@@@std@@@std@@QBE?AV?$_Vb_reference@IHV?$vector@_NV?$allocator@_N@std@@@std@@@1@XZ PROC ; std::_Vb_iterator<unsigned int,int,std::vector<bool,std::allocator<bool> > >::operator*, COMDAT
; _this$ = ecx

; 1791 : 		return (_Reft(*this));

	mov	edx, DWORD PTR [ecx]
	mov	eax, DWORD PTR ___$ReturnUdt$[esp-4]
	mov	ecx, DWORD PTR [ecx+4]
	mov	DWORD PTR [eax], edx
	mov	DWORD PTR [eax+4], ecx

; 1792 : 		}

	ret	4
??D?$_Vb_iterator@IHV?$vector@_NV?$allocator@_N@std@@@std@@@std@@QBE?AV?$_Vb_reference@IHV?$vector@_NV?$allocator@_N@std@@@std@@@1@XZ ENDP ; std::_Vb_iterator<unsigned int,int,std::vector<bool,std::allocator<bool> > >::operator*
_TEXT	ENDS
PUBLIC	??R?$SerializeFromSequenceContainer@$$CB_N$$CBV?$vector@_NV?$allocator@_N@std@@@std@@@@QAEXAB_N@Z ; SerializeFromSequenceContainer<bool const ,std::vector<bool,std::allocator<bool> > const >::operator()
; Function compile flags: /Ogtpy
; File c:\users\enormousapplepie\documents\github\lekmod\lekmod_dll\fireplace\include\fireworks\fstlcontainerserialization.h
;	COMDAT ??R?$SerializeFromSequenceContainer@$$CB_N$$CBV?$vector@_NV?$allocator@_N@std@@@std@@@@QAEXAB_N@Z
_TEXT	SEGMENT
_i$ = 8							; size = 4
??R?$SerializeFromSequenceContainer@$$CB_N$$CBV?$vector@_NV?$allocator@_N@std@@@std@@@@QAEXAB_N@Z PROC ; SerializeFromSequenceContainer<bool const ,std::vector<bool,std::allocator<bool> > const >::operator(), COMDAT
; _this$ = ecx

; 75   : 		m_saveTo << i;

	mov	ecx, DWORD PTR [ecx]
	jmp	?Write@FDataStream@@IAEXAB_N@Z		; FDataStream::Write
??R?$SerializeFromSequenceContainer@$$CB_N$$CBV?$vector@_NV?$allocator@_N@std@@@std@@@@QAEXAB_N@Z ENDP ; SerializeFromSequenceContainer<bool const ,std::vector<bool,std::allocator<bool> > const >::operator()
_TEXT	ENDS
PUBLIC	??4?$_Vb_reference@IHV?$vector@_NV?$allocator@_N@std@@@std@@@std@@QAEAAV01@_N@Z ; std::_Vb_reference<unsigned int,int,std::vector<bool,std::allocator<bool> > >::operator=
; Function compile flags: /Ogtpy
; File c:\program files (x86)\microsoft visual studio 9.0\vc\include\vector
;	COMDAT ??4?$_Vb_reference@IHV?$vector@_NV?$allocator@_N@std@@@std@@@std@@QAEAAV01@_N@Z
_TEXT	SEGMENT
__Val$ = 8						; size = 1
??4?$_Vb_reference@IHV?$vector@_NV?$allocator@_N@std@@@std@@@std@@QAEAAV01@_N@Z PROC ; std::_Vb_reference<unsigned int,int,std::vector<bool,std::allocator<bool> > >::operator=, COMDAT
; _this$ = ecx

; 1475 : 		{	// assign _Val to bit

	mov	eax, ecx

; 1476 : 		if (_Val)
; 1477 : 			*_Getptr() |= _Mask();

	mov	ecx, DWORD PTR [eax+4]
	mov	edx, DWORD PTR [eax]
	push	esi
	mov	esi, 1
	shl	esi, cl
	cmp	BYTE PTR __Val$[esp], 0
	je	SHORT $LN2@operator@3
	or	DWORD PTR [edx], esi
	pop	esi

; 1480 : 		return (*this);
; 1481 : 		}

	ret	4
$LN2@operator@3:

; 1478 : 		else
; 1479 : 			*_Getptr() &= ~_Mask();

	not	esi
	and	DWORD PTR [edx], esi
	pop	esi

; 1480 : 		return (*this);
; 1481 : 		}

	ret	4
??4?$_Vb_reference@IHV?$vector@_NV?$allocator@_N@std@@@std@@@std@@QAEAAV01@_N@Z ENDP ; std::_Vb_reference<unsigned int,int,std::vector<bool,std::allocator<bool> > >::operator=
_TEXT	ENDS
PUBLIC	?capacity@?$vector@IV?$allocator@I@std@@@std@@QBEIXZ ; std::vector<unsigned int,std::allocator<unsigned int> >::capacity
; Function compile flags: /Ogtpy
;	COMDAT ?capacity@?$vector@IV?$allocator@I@std@@@std@@QBEIXZ
_TEXT	SEGMENT
?capacity@?$vector@IV?$allocator@I@std@@@std@@QBEIXZ PROC ; std::vector<unsigned int,std::allocator<unsigned int> >::capacity, COMDAT
; _this$ = ecx

; 635  : 		return (_Myfirst == 0 ? 0 : _Myend - _Myfirst);

	mov	edx, DWORD PTR [ecx+4]
	test	edx, edx
	jne	SHORT $LN3@capacity@2
	xor	eax, eax

; 636  : 		}

	ret	0
$LN3@capacity@2:

; 635  : 		return (_Myfirst == 0 ? 0 : _Myend - _Myfirst);

	mov	eax, DWORD PTR [ecx+12]
	sub	eax, edx
	sar	eax, 2

; 636  : 		}

	ret	0
?capacity@?$vector@IV?$allocator@I@std@@@std@@QBEIXZ ENDP ; std::vector<unsigned int,std::allocator<unsigned int> >::capacity
_TEXT	ENDS
PUBLIC	??$_Fill@PAII@std@@YAXPAI0ABI@Z			; std::_Fill<unsigned int *,unsigned int>
; Function compile flags: /Ogtpy
; File c:\program files (x86)\microsoft visual studio 9.0\vc\include\xutility
;	COMDAT ??$_Fill@PAII@std@@YAXPAI0ABI@Z
_TEXT	SEGMENT
__First$ = 8						; size = 4
__Last$ = 12						; size = 4
__Val$ = 16						; size = 4
??$_Fill@PAII@std@@YAXPAI0ABI@Z PROC			; std::_Fill<unsigned int *,unsigned int>, COMDAT

; 3157 : 	_DEBUG_RANGE(_First, _Last);
; 3158 : 	for (; _First != _Last; ++_First)

	mov	eax, DWORD PTR __First$[esp-4]
	mov	ecx, DWORD PTR __Last$[esp-4]
	cmp	eax, ecx
	je	SHORT $LN1@Fill@2
	mov	edx, DWORD PTR __Val$[esp-4]
	push	esi
$LL3@Fill@2:

; 3159 : 		*_First = _Val;

	mov	esi, DWORD PTR [edx]
	mov	DWORD PTR [eax], esi
	add	eax, 4
	cmp	eax, ecx
	jne	SHORT $LL3@Fill@2
	pop	esi
$LN1@Fill@2:

; 3160 : 	}

	ret	0
??$_Fill@PAII@std@@YAXPAI0ABI@Z ENDP			; std::_Fill<unsigned int *,unsigned int>
_TEXT	ENDS
PUBLIC	??$_Move_cat@PAI@std@@YA?AU_Undefined_move_tag@0@ABQAI@Z ; std::_Move_cat<unsigned int *>
; Function compile flags: /Ogtpy
;	COMDAT ??$_Move_cat@PAI@std@@YA?AU_Undefined_move_tag@0@ABQAI@Z
_TEXT	SEGMENT
__Cat$ = -1						; size = 1
___formal$ = 8						; size = 4
??$_Move_cat@PAI@std@@YA?AU_Undefined_move_tag@0@ABQAI@Z PROC ; std::_Move_cat<unsigned int *>, COMDAT

; 1200 : 	{

	push	ecx

; 1201 : 		typename _Move_operation_category<typename iterator_traits<_Iter>::value_type>::_Move_cat _Cat;
; 1202 : 		return (_Cat);

	mov	al, BYTE PTR __Cat$[esp+4]

; 1203 : 	}

	pop	ecx
	ret	0
??$_Move_cat@PAI@std@@YA?AU_Undefined_move_tag@0@ABQAI@Z ENDP ; std::_Move_cat<unsigned int *>
_TEXT	ENDS
PUBLIC	?_Dec@?$_Vb_const_iterator@IHV?$vector@_NV?$allocator@_N@std@@@std@@@std@@IAEXXZ ; std::_Vb_const_iterator<unsigned int,int,std::vector<bool,std::allocator<bool> > >::_Dec
; Function compile flags: /Ogtpy
; File c:\program files (x86)\microsoft visual studio 9.0\vc\include\vector
;	COMDAT ?_Dec@?$_Vb_const_iterator@IHV?$vector@_NV?$allocator@_N@std@@@std@@@std@@IAEXXZ
_TEXT	SEGMENT
?_Dec@?$_Vb_const_iterator@IHV?$vector@_NV?$allocator@_N@std@@@std@@@std@@IAEXXZ PROC ; std::_Vb_const_iterator<unsigned int,int,std::vector<bool,std::allocator<bool> > >::_Dec, COMDAT
; _this$ = ecx

; 1719 : 		if (this->_Myoff != 0)

	mov	eax, DWORD PTR [ecx+4]
	test	eax, eax
	je	SHORT $LN2@Dec

; 1720 : 			{
; 1721 : 			--this->_Myoff;

	dec	eax
	mov	DWORD PTR [ecx+4], eax

; 1729 : 			}
; 1730 : 		}

	ret	0
$LN2@Dec:

; 1722 : 			}
; 1723 : 		else
; 1724 : 			{
; 1725 : 			_SCL_SECURE_VALIDATE(this->_Has_container() && this->_Myptr != NULL);
; 1726 : 			_SCL_SECURE_VALIDATE_RANGE(this->_Myptr > this->_My_cont_begin());
; 1727 : 			--this->_Myptr;

	add	DWORD PTR [ecx], -4			; fffffffcH

; 1728 : 			this->_Myoff = _VBITS - 1;

	mov	DWORD PTR [ecx+4], 31			; 0000001fH

; 1729 : 			}
; 1730 : 		}

	ret	0
?_Dec@?$_Vb_const_iterator@IHV?$vector@_NV?$allocator@_N@std@@@std@@@std@@IAEXXZ ENDP ; std::_Vb_const_iterator<unsigned int,int,std::vector<bool,std::allocator<bool> > >::_Dec
_TEXT	ENDS
PUBLIC	??$_Copy_backward_opt@PAIPAIUrandom_access_iterator_tag@std@@@std@@YAPAIPAI00Urandom_access_iterator_tag@0@U_Scalar_ptr_iterator_tag@0@U_Range_checked_iterator_tag@0@@Z ; std::_Copy_backward_opt<unsigned int *,unsigned int *,std::random_access_iterator_tag>
; Function compile flags: /Ogtpy
; File c:\program files (x86)\microsoft visual studio 9.0\vc\include\xutility
;	COMDAT ??$_Copy_backward_opt@PAIPAIUrandom_access_iterator_tag@std@@@std@@YAPAIPAI00Urandom_access_iterator_tag@0@U_Scalar_ptr_iterator_tag@0@U_Range_checked_iterator_tag@0@@Z
_TEXT	SEGMENT
__First$ = 8						; size = 4
__Last$ = 12						; size = 4
__Dest$ = 16						; size = 4
___formal$ = 20						; size = 1
___formal$ = 24						; size = 1
___formal$ = 28						; size = 1
??$_Copy_backward_opt@PAIPAIUrandom_access_iterator_tag@std@@@std@@YAPAIPAI00Urandom_access_iterator_tag@0@U_Scalar_ptr_iterator_tag@0@U_Range_checked_iterator_tag@0@@Z PROC ; std::_Copy_backward_opt<unsigned int *,unsigned int *,std::random_access_iterator_tag>, COMDAT

; 2699 : 
; 2700 :  #if _HAS_ITERATOR_DEBUGGING
; 2701 : 	_DEBUG_RANGE(_First, _Last);
; 2702 : 	if (_First != _Last)
; 2703 : 		_DEBUG_POINTER(_Dest);
; 2704 :  #endif /* _HAS_ITERATOR_DEBUGGING */
; 2705 : 
; 2706 : 	ptrdiff_t _Off = _Last - _First;	// NB: non-overlapping move

	mov	eax, DWORD PTR __Last$[esp-4]
	mov	edx, DWORD PTR __First$[esp-4]
	sub	eax, edx
	sar	eax, 2
	push	esi

; 2707 : 	/* if _OutIt is range checked, this will make sure there is enough space for 
; 2708 : 	 * the memmove
; 2709 : 	 */
; 2710 : 	_OutIt _Result = _Dest - _Off;

	mov	esi, DWORD PTR __Dest$[esp]
	lea	ecx, DWORD PTR [eax*4]
	sub	esi, ecx

; 2711 : 	if (_Off > 0)

	test	eax, eax
	jle	SHORT $LN4@Copy_backw@2

; 2712 : 		_CRT_SECURE_MEMMOVE(&*_Result, _Off * sizeof (*_First), &*_First, _Off * sizeof (*_First));

	push	ecx
	push	edx
	push	ecx
	push	esi
	call	DWORD PTR __imp__memmove_s
	add	esp, 16					; 00000010H
$LN4@Copy_backw@2:

; 2713 : 	return _Result;

	mov	eax, esi
	pop	esi

; 2714 : 	}

	ret	0
??$_Copy_backward_opt@PAIPAIUrandom_access_iterator_tag@std@@@std@@YAPAIPAI00Urandom_access_iterator_tag@0@U_Scalar_ptr_iterator_tag@0@U_Range_checked_iterator_tag@0@@Z ENDP ; std::_Copy_backward_opt<unsigned int *,unsigned int *,std::random_access_iterator_tag>
_TEXT	ENDS
PUBLIC	??$_Iter_cat@PAI@std@@YA?AUrandom_access_iterator_tag@0@ABQAI@Z ; std::_Iter_cat<unsigned int *>
; Function compile flags: /Ogtpy
;	COMDAT ??$_Iter_cat@PAI@std@@YA?AUrandom_access_iterator_tag@0@ABQAI@Z
_TEXT	SEGMENT
___$ReturnUdt$ = 8					; size = 4
___formal$ = 12						; size = 4
??$_Iter_cat@PAI@std@@YA?AUrandom_access_iterator_tag@0@ABQAI@Z PROC ; std::_Iter_cat<unsigned int *>, COMDAT

; 953  : 	typename iterator_traits<_Iter>::iterator_category _Cat;
; 954  : 	return (_Cat);

	mov	eax, DWORD PTR ___$ReturnUdt$[esp-4]

; 955  : 	}

	ret	0
??$_Iter_cat@PAI@std@@YA?AUrandom_access_iterator_tag@0@ABQAI@Z ENDP ; std::_Iter_cat<unsigned int *>
_TEXT	ENDS
PUBLIC	??$_Uninit_copy@PAIPAIV?$allocator@I@std@@@std@@YAPAIPAI00AAV?$allocator@I@0@U_Scalar_ptr_iterator_tag@0@U_Range_checked_iterator_tag@0@@Z ; std::_Uninit_copy<unsigned int *,unsigned int *,std::allocator<unsigned int> >
; Function compile flags: /Ogtpy
; File c:\program files (x86)\microsoft visual studio 9.0\vc\include\memory
;	COMDAT ??$_Uninit_copy@PAIPAIV?$allocator@I@std@@@std@@YAPAIPAI00AAV?$allocator@I@0@U_Scalar_ptr_iterator_tag@0@U_Range_checked_iterator_tag@0@@Z
_TEXT	SEGMENT
__First$ = 8						; size = 4
__Last$ = 12						; size = 4
__Dest$ = 16						; size = 4
___formal$ = 20						; size = 4
___formal$ = 24						; size = 1
___formal$ = 28						; size = 1
??$_Uninit_copy@PAIPAIV?$allocator@I@std@@@std@@YAPAIPAI00AAV?$allocator@I@0@U_Scalar_ptr_iterator_tag@0@U_Range_checked_iterator_tag@0@@Z PROC ; std::_Uninit_copy<unsigned int *,unsigned int *,std::allocator<unsigned int> >, COMDAT

; 146  : 	_DEBUG_RANGE(_First, _Last);
; 147  : 	_DEBUG_POINTER(_Dest);
; 148  : 	size_t _Count = (size_t)(_Last - _First);

	mov	eax, DWORD PTR __Last$[esp-4]
	mov	edx, DWORD PTR __First$[esp-4]
	sub	eax, edx
	push	esi
	sar	eax, 2
	push	edi

; 149  : 	_FwdIt _Result = _Dest + _Count;

	mov	edi, DWORD PTR __Dest$[esp+4]
	lea	ecx, DWORD PTR [eax*4]
	lea	esi, DWORD PTR [ecx+edi]

; 150  : 	if (_Count > 0)

	test	eax, eax
	jbe	SHORT $LN4@Uninit_cop

; 151  : 		_CRT_SECURE_MEMMOVE(&*_Dest, _Count * sizeof (*_First), &*_First, _Count * sizeof (*_First));	// NB: non-overlapping move

	push	ecx
	push	edx
	push	ecx
	push	edi
	call	DWORD PTR __imp__memmove_s
	add	esp, 16					; 00000010H
$LN4@Uninit_cop:
	pop	edi

; 152  : 	return (_Result);

	mov	eax, esi
	pop	esi

; 153  : 	}

	ret	0
??$_Uninit_copy@PAIPAIV?$allocator@I@std@@@std@@YAPAIPAI00AAV?$allocator@I@0@U_Scalar_ptr_iterator_tag@0@U_Range_checked_iterator_tag@0@@Z ENDP ; std::_Uninit_copy<unsigned int *,unsigned int *,std::allocator<unsigned int> >
_TEXT	ENDS
PUBLIC	??$_Fill_n@PAIII@std@@YAXPAIIABIU_Range_checked_iterator_tag@0@@Z ; std::_Fill_n<unsigned int *,unsigned int,unsigned int>
; Function compile flags: /Ogtpy
; File c:\program files (x86)\microsoft visual studio 9.0\vc\include\xutility
;	COMDAT ??$_Fill_n@PAIII@std@@YAXPAIIABIU_Range_checked_iterator_tag@0@@Z
_TEXT	SEGMENT
__First$ = 8						; size = 4
__Count$ = 12						; size = 4
__Val$ = 16						; size = 4
___formal$ = 20						; size = 1
??$_Fill_n@PAIII@std@@YAXPAIIABIU_Range_checked_iterator_tag@0@@Z PROC ; std::_Fill_n<unsigned int *,unsigned int,unsigned int>, COMDAT

; 3197 : 	for (; 0 < _Count; --_Count, ++_First)

	mov	eax, DWORD PTR __Count$[esp-4]
	test	eax, eax
	jbe	SHORT $LN1@Fill_n
	mov	edx, DWORD PTR __Val$[esp-4]
	mov	ecx, DWORD PTR __First$[esp-4]
	push	esi
$LL3@Fill_n:

; 3198 : 		*_First = _Val;

	mov	esi, DWORD PTR [edx]
	mov	DWORD PTR [ecx], esi
	dec	eax
	add	ecx, 4
	test	eax, eax
	ja	SHORT $LL3@Fill_n
	pop	esi
$LN1@Fill_n:

; 3199 : 	}

	ret	0
??$_Fill_n@PAIII@std@@YAXPAIIABIU_Range_checked_iterator_tag@0@@Z ENDP ; std::_Fill_n<unsigned int *,unsigned int,unsigned int>
_TEXT	ENDS
PUBLIC	??_7ICvNetInitInfo1@@6B@			; ICvNetInitInfo1::`vftable'
PUBLIC	??0ICvNetInitInfo1@@QAE@XZ			; ICvNetInitInfo1::ICvNetInitInfo1
PUBLIC	??_R4ICvNetInitInfo1@@6B@			; ICvNetInitInfo1::`RTTI Complete Object Locator'
PUBLIC	??_R0?AVICvNetInitInfo1@@@8			; ICvNetInitInfo1 `RTTI Type Descriptor'
PUBLIC	??_R3ICvNetInitInfo1@@8				; ICvNetInitInfo1::`RTTI Class Hierarchy Descriptor'
PUBLIC	??_R2ICvNetInitInfo1@@8				; ICvNetInitInfo1::`RTTI Base Class Array'
PUBLIC	??_R1A@?0A@EA@ICvNetInitInfo1@@8		; ICvNetInitInfo1::`RTTI Base Class Descriptor at (0,-1,0,64)'
;	COMDAT ??_R1A@?0A@EA@ICvNetInitInfo1@@8
rdata$r	SEGMENT
??_R1A@?0A@EA@ICvNetInitInfo1@@8 DD FLAT:??_R0?AVICvNetInitInfo1@@@8 ; ICvNetInitInfo1::`RTTI Base Class Descriptor at (0,-1,0,64)'
	DD	01H
	DD	00H
	DD	0ffffffffH
	DD	00H
	DD	040H
	DD	FLAT:??_R3ICvNetInitInfo1@@8
rdata$r	ENDS
;	COMDAT ??_R2ICvNetInitInfo1@@8
rdata$r	SEGMENT
??_R2ICvNetInitInfo1@@8 DD FLAT:??_R1A@?0A@EA@ICvNetInitInfo1@@8 ; ICvNetInitInfo1::`RTTI Base Class Array'
	DD	FLAT:??_R1A@?0A@EA@ICvUnknown@@8
rdata$r	ENDS
;	COMDAT ??_R3ICvNetInitInfo1@@8
rdata$r	SEGMENT
??_R3ICvNetInitInfo1@@8 DD 00H				; ICvNetInitInfo1::`RTTI Class Hierarchy Descriptor'
	DD	00H
	DD	02H
	DD	FLAT:??_R2ICvNetInitInfo1@@8
rdata$r	ENDS
;	COMDAT ??_R0?AVICvNetInitInfo1@@@8
_DATA	SEGMENT
??_R0?AVICvNetInitInfo1@@@8 DD FLAT:??_7type_info@@6B@	; ICvNetInitInfo1 `RTTI Type Descriptor'
	DD	00H
	DB	'.?AVICvNetInitInfo1@@', 00H
_DATA	ENDS
;	COMDAT ??_R4ICvNetInitInfo1@@6B@
rdata$r	SEGMENT
??_R4ICvNetInitInfo1@@6B@ DD 00H			; ICvNetInitInfo1::`RTTI Complete Object Locator'
	DD	00H
	DD	00H
	DD	FLAT:??_R0?AVICvNetInitInfo1@@@8
	DD	FLAT:??_R3ICvNetInitInfo1@@8
rdata$r	ENDS
;	COMDAT ??_7ICvNetInitInfo1@@6B@
CONST	SEGMENT
??_7ICvNetInitInfo1@@6B@ DD FLAT:??_R4ICvNetInitInfo1@@6B@ ; ICvNetInitInfo1::`vftable'
	DD	FLAT:__purecall
	DD	FLAT:__purecall
	DD	FLAT:__purecall
	DD	FLAT:__purecall
	DD	FLAT:__purecall
	DD	FLAT:__purecall
; Function compile flags: /Ogtpy
CONST	ENDS
;	COMDAT ??0ICvNetInitInfo1@@QAE@XZ
_TEXT	SEGMENT
??0ICvNetInitInfo1@@QAE@XZ PROC				; ICvNetInitInfo1::ICvNetInitInfo1, COMDAT
; _this$ = ecx
	mov	eax, ecx
	mov	DWORD PTR [eax], OFFSET ??_7ICvNetInitInfo1@@6B@
	ret	0
??0ICvNetInitInfo1@@QAE@XZ ENDP				; ICvNetInitInfo1::ICvNetInitInfo1
_TEXT	ENDS
PUBLIC	?QueryInterface@CvDllNetInitInfo@@UAGPAXU_GUID@@@Z ; CvDllNetInitInfo::QueryInterface
; Function compile flags: /Ogtpy
; File c:\users\enormousapplepie\documents\github\lekmod\lekmod_dll\cvgamecoredll_expansion2\cvdllnetinitinfo.cpp
;	COMDAT ?QueryInterface@CvDllNetInitInfo@@UAGPAXU_GUID@@@Z
_TEXT	SEGMENT
$T221186 = -16						; size = 16
$T221184 = -16						; size = 16
_this$ = 8						; size = 4
_guidInterface$ = 12					; size = 16
?QueryInterface@CvDllNetInitInfo@@UAGPAXU_GUID@@@Z PROC	; CvDllNetInitInfo::QueryInterface, COMDAT

; 63   : {

	sub	esp, 16					; 00000010H

; 64   : 	if(guidInterface == ICvUnknown::GetInterfaceId() ||
; 65   : 	        guidInterface == ICvNetInitInfo1::GetInterfaceId())

	mov	ecx, DWORD PTR _guidICvUnknown+4
	mov	edx, DWORD PTR _guidICvUnknown+8
	mov	eax, DWORD PTR _guidICvUnknown
	mov	DWORD PTR $T221184[esp+20], ecx
	lea	ecx, DWORD PTR $T221184[esp+16]
	mov	DWORD PTR $T221184[esp+24], edx
	mov	DWORD PTR $T221184[esp+16], eax
	mov	eax, DWORD PTR _guidICvUnknown+12
	push	ecx
	lea	edx, DWORD PTR _guidInterface$[esp+16]
	push	edx
	mov	DWORD PTR $T221184[esp+36], eax
	call	_IsEqualGUID
	add	esp, 8
	test	eax, eax
	jne	SHORT $LN1@QueryInter
	mov	ecx, DWORD PTR _guidICvNetInitInfo1+4
	mov	edx, DWORD PTR _guidICvNetInitInfo1+8
	mov	eax, DWORD PTR _guidICvNetInitInfo1
	mov	DWORD PTR $T221186[esp+20], ecx
	lea	ecx, DWORD PTR $T221186[esp+16]
	mov	DWORD PTR $T221186[esp+24], edx
	mov	DWORD PTR $T221186[esp+16], eax
	mov	eax, DWORD PTR _guidICvNetInitInfo1+12
	push	ecx
	lea	edx, DWORD PTR _guidInterface$[esp+16]
	push	edx
	mov	DWORD PTR $T221186[esp+36], eax
	call	_IsEqualGUID
	add	esp, 8
	test	eax, eax
	jne	SHORT $LN1@QueryInter

; 68   : 		return this;
; 69   : 	}
; 70   : 
; 71   : 	return NULL;
; 72   : }

	add	esp, 16					; 00000010H
	ret	20					; 00000014H
$LN1@QueryInter:

; 66   : 	{
; 67   : 		IncrementReference();

	mov	eax, DWORD PTR _this$[esp+12]
	inc	DWORD PTR [eax+760]

; 68   : 		return this;
; 69   : 	}
; 70   : 
; 71   : 	return NULL;
; 72   : }

	add	esp, 16					; 00000010H
	ret	20					; 00000014H
?QueryInterface@CvDllNetInitInfo@@UAGPAXU_GUID@@@Z ENDP	; CvDllNetInitInfo::QueryInterface
_TEXT	ENDS
PUBLIC	?Commit@CvDllNetInitInfo@@UAG_NXZ		; CvDllNetInitInfo::Commit
EXTRN	?setGameMode@CvPreGame@@YAXW4GameMode@@@Z:PROC	; CvPreGame::setGameMode
EXTRN	?setAdvancedStartPoints@CvPreGame@@YAXH@Z:PROC	; CvPreGame::setAdvancedStartPoints
EXTRN	?setNumMinorCivs@CvPreGame@@YAXH@Z:PROC		; CvPreGame::setNumMinorCivs
EXTRN	?setMaxCityElimination@CvPreGame@@YAXH@Z:PROC	; CvPreGame::setMaxCityElimination
EXTRN	?setMaxTurns@CvPreGame@@YAXH@Z:PROC		; CvPreGame::setMaxTurns
EXTRN	?setMultiplayerOptions@CvPreGame@@YAXABV?$vector@_NV?$allocator@_N@std@@@std@@@Z:PROC ; CvPreGame::setMultiplayerOptions
EXTRN	?SetMapOptions@CvPreGame@@YA_NABV?$vector@VCustomOption@CvPreGame@@V?$allocator@VCustomOption@CvPreGame@@@std@@@std@@@Z:PROC ; CvPreGame::SetMapOptions
EXTRN	?SetGameOptions@CvPreGame@@YA_NABV?$vector@VCustomOption@CvPreGame@@V?$allocator@VCustomOption@CvPreGame@@@std@@@std@@@Z:PROC ; CvPreGame::SetGameOptions
EXTRN	?setVictories@CvPreGame@@YAXABV?$vector@_NV?$allocator@_N@std@@@std@@@Z:PROC ; CvPreGame::setVictories
EXTRN	?setMapRandomSeed@CvPreGame@@YAXI@Z:PROC	; CvPreGame::setMapRandomSeed
EXTRN	?setSyncRandomSeed@CvPreGame@@YAXI@Z:PROC	; CvPreGame::setSyncRandomSeed
EXTRN	?setGameName@CvPreGame@@YAXABVCvString@@@Z:PROC	; CvPreGame::setGameName
EXTRN	?setPitBossTurnTime@CvPreGame@@YAXH@Z:PROC	; CvPreGame::setPitBossTurnTime
EXTRN	?setTurnTimer@CvPreGame@@YAXW4TurnTimerTypes@@@Z:PROC ; CvPreGame::setTurnTimer
EXTRN	?setGameSpeed@CvPreGame@@YAXW4GameSpeedTypes@@@Z:PROC ; CvPreGame::setGameSpeed
EXTRN	?setGameStarted@CvPreGame@@YAX_N@Z:PROC		; CvPreGame::setGameStarted
EXTRN	?setGameTurn@CvPreGame@@YAXH@Z:PROC		; CvPreGame::setGameTurn
EXTRN	?setCalendar@CvPreGame@@YAXW4CalendarTypes@@@Z:PROC ; CvPreGame::setCalendar
EXTRN	?setEra@CvPreGame@@YAXW4EraTypes@@@Z:PROC	; CvPreGame::setEra
EXTRN	?setSeaLevel@CvPreGame@@YAXW4SeaLevelTypes@@@Z:PROC ; CvPreGame::setSeaLevel
EXTRN	?setClimate@CvPreGame@@YAXW4ClimateTypes@@@Z:PROC ; CvPreGame::setClimate
EXTRN	?setRandomWorldSize@CvPreGame@@YAX_N@Z:PROC	; CvPreGame::setRandomWorldSize
EXTRN	?setWorldSize@CvPreGame@@YAXW4WorldSizeTypes@@_N@Z:PROC ; CvPreGame::setWorldSize
EXTRN	?setMapNoPlayers@CvPreGame@@YAX_N@Z:PROC	; CvPreGame::setMapNoPlayers
EXTRN	?setLoadFileName@CvPreGame@@YAXABVCvString@@W4StorageLocation@@@Z:PROC ; CvPreGame::setLoadFileName
EXTRN	?setTransferredMap@CvPreGame@@YAX_N@Z:PROC	; CvPreGame::setTransferredMap
EXTRN	?setRandomMapScript@CvPreGame@@YAX_N@Z:PROC	; CvPreGame::setRandomMapScript
EXTRN	?setMapScriptName@CvPreGame@@YAXABVCvString@@@Z:PROC ; CvPreGame::setMapScriptName
EXTRN	?gGlobals@@3VCvGlobals@@A:BYTE			; gGlobals
EXTRN	?GetInstance@FILogFileMgr@@SAAAV1@XZ:PROC	; FILogFileMgr::GetInstance
EXTRN	_memset:PROC
;	COMDAT xdata$x
; File c:\users\enormousapplepie\documents\github\lekmod\lekmod_dll\cvgamecoredllutil\include\cvstring.h
xdata$x	SEGMENT
__unwindtable$?Commit@CvDllNetInitInfo@@UAG_NXZ DD 0ffffffffH
	DD	FLAT:__unwindfunclet$?Commit@CvDllNetInitInfo@@UAG_NXZ$0
__ehfuncinfo$?Commit@CvDllNetInitInfo@@UAG_NXZ DD 019930522H
	DD	01H
	DD	FLAT:__unwindtable$?Commit@CvDllNetInitInfo@@UAG_NXZ
	DD	2 DUP(00H)
	DD	2 DUP(00H)
	DD	00H
	DD	01H
; Function compile flags: /Ogtpy
; File c:\users\enormousapplepie\documents\github\lekmod\lekmod_dll\cvgamecoredll_expansion2\cvdllnetinitinfo.cpp
xdata$x	ENDS
;	COMDAT ?Commit@CvDllNetInitInfo@@UAG_NXZ
_TEXT	SEGMENT
_bResult$ = -1085					; size = 1
tv361 = -1084						; size = 4
tv149 = -1084						; size = 4
_strMapScriptPath$ = -1080				; size = 28
_szMapScriptPath$ = -1052				; size = 1040
__$EHRec$ = -12						; size = 12
_this$ = 8						; size = 4
?Commit@CvDllNetInitInfo@@UAG_NXZ PROC			; CvDllNetInitInfo::Commit, COMDAT

; 239  : {

	push	-1
	push	__ehhandler$?Commit@CvDllNetInitInfo@@UAG_NXZ
	mov	eax, DWORD PTR fs:0
	push	eax
	mov	DWORD PTR fs:0, esp
	sub	esp, 1076				; 00000434H
	push	ebx
	push	ebp
	push	esi
	push	edi

; 240  : 	// Copy the settings into our initialization data structure
; 241  : 
; 242  : 	//The map script path cannot be trusted since this structure is sent over the network.
; 243  : 	//Have the app search for the best candidate.
; 244  : 	FILogFile* logFile = LOGFILEMGR.GetLog("net_message_debug.log", 0);

	call	?GetInstance@FILogFileMgr@@SAAAV1@XZ	; FILogFileMgr::GetInstance
	mov	edx, DWORD PTR [eax]
	push	0
	push	0
	mov	ecx, eax
	mov	eax, DWORD PTR [edx+12]
	push	OFFSET $SG219379
	call	eax

; 245  : 
; 246  : 	char szMapScriptPath[1040] = {0};

	push	1039					; 0000040fH
	lea	ecx, DWORD PTR _szMapScriptPath$[esp+1109]
	push	0
	push	ecx
	mov	ebx, eax
	mov	BYTE PTR _szMapScriptPath$[esp+1116], 0
	call	_memset

; 247  : 	const bool bResult = gDLL->GetEvaluatedMapScriptPath(m_szMapScriptName.c_str(), szMapScriptPath, 1040);

	mov	edi, DWORD PTR ?gGlobals@@3VCvGlobals@@A+8564
	mov	esi, DWORD PTR _this$[esp+1112]
	mov	edx, DWORD PTR [edi]
	add	esp, 12					; 0000000cH
	push	1040					; 00000410H
	lea	eax, DWORD PTR _szMapScriptPath$[esp+1108]
	lea	ebp, DWORD PTR [esi+36]
	push	eax
	mov	ecx, ebp
	mov	DWORD PTR tv361[esp+1112], edx
	call	DWORD PTR __imp_?c_str@?$basic_string@DU?$char_traits@D@std@@V?$allocator@D@2@@std@@QBEPBDXZ
	mov	ecx, DWORD PTR tv361[esp+1112]
	mov	edx, DWORD PTR [ecx+1036]
	push	eax
	push	edi
	call	edx
	mov	BYTE PTR _bResult$[esp+1104], al

; 248  : 
; 249  : 	CvString strMapScriptPath = szMapScriptPath;

	lea	eax, DWORD PTR _szMapScriptPath$[esp+1104]
	push	eax
	lea	ecx, DWORD PTR _strMapScriptPath$[esp+1108]
	call	DWORD PTR __imp_??0?$basic_string@DU?$char_traits@D@std@@V?$allocator@D@2@@std@@QAE@PBD@Z

; 250  : 
; 251  : 	logFile->DebugMsg("Evaluating Map Path: (%s)\nOriginal Path: %s\nNew Path: %s", (bResult)? "Success": "Failed", m_szMapScriptName.c_str(), strMapScriptPath.c_str());

	cmp	BYTE PTR _bResult$[esp+1104], 0
	mov	DWORD PTR __$EHRec$[esp+1112], 0
	mov	DWORD PTR tv149[esp+1104], OFFSET $SG219383
	jne	SHORT $LN4@Commit
	mov	DWORD PTR tv149[esp+1104], OFFSET $SG219384
$LN4@Commit:
	mov	edi, DWORD PTR [ebx]
	lea	ecx, DWORD PTR _strMapScriptPath$[esp+1104]
	call	DWORD PTR __imp_?c_str@?$basic_string@DU?$char_traits@D@std@@V?$allocator@D@2@@std@@QBEPBDXZ
	push	eax
	mov	ecx, ebp
	call	DWORD PTR __imp_?c_str@?$basic_string@DU?$char_traits@D@std@@V?$allocator@D@2@@std@@QBEPBDXZ
	mov	ecx, DWORD PTR tv149[esp+1108]
	mov	edx, DWORD PTR [edi+4]
	push	eax
	push	ecx
	push	OFFSET $SG219385
	push	ebx
	call	edx

; 252  : 
; 253  : 	CvPreGame::setMapScriptName(strMapScriptPath);

	lea	eax, DWORD PTR _strMapScriptPath$[esp+1124]
	push	eax
	call	?setMapScriptName@CvPreGame@@YAXABVCvString@@@Z ; CvPreGame::setMapScriptName

; 254  : 	CvPreGame::setRandomMapScript(m_bIsRandomMapScript);

	movzx	ecx, BYTE PTR [esi+65]
	push	ecx
	call	?setRandomMapScript@CvPreGame@@YAX_N@Z	; CvPreGame::setRandomMapScript

; 255  : 	CvPreGame::setTransferredMap(false);		// We'll always set this manually

	push	0
	call	?setTransferredMap@CvPreGame@@YAX_N@Z	; CvPreGame::setTransferredMap

; 256  : 	CvPreGame::setLoadFileName(m_szLoadFileName, m_eLoadFileStorage);

	mov	edx, DWORD PTR [esi+32]
	push	edx
	lea	eax, DWORD PTR [esi+4]
	push	eax
	call	?setLoadFileName@CvPreGame@@YAXABVCvString@@W4StorageLocation@@@Z ; CvPreGame::setLoadFileName

; 257  : 	CvPreGame::setMapNoPlayers(m_bWBMapNoPlayers);

	movzx	ecx, BYTE PTR [esi+67]
	push	ecx
	call	?setMapNoPlayers@CvPreGame@@YAX_N@Z	; CvPreGame::setMapNoPlayers

; 258  : 	CvPreGame::setWorldSize(m_eWorldSize,false);

	mov	edx, DWORD PTR [esi+68]
	push	0
	push	edx
	call	?setWorldSize@CvPreGame@@YAXW4WorldSizeTypes@@_N@Z ; CvPreGame::setWorldSize

; 259  : 	CvPreGame::setRandomWorldSize(m_bIsRandomWorldSize);

	movzx	eax, BYTE PTR [esi+66]
	push	eax
	call	?setRandomWorldSize@CvPreGame@@YAX_N@Z	; CvPreGame::setRandomWorldSize

; 260  : 	CvPreGame::setClimate(m_eClimate);

	mov	ecx, DWORD PTR [esi+72]
	push	ecx
	call	?setClimate@CvPreGame@@YAXW4ClimateTypes@@@Z ; CvPreGame::setClimate

; 261  : 	CvPreGame::setSeaLevel(m_eSeaLevel);

	mov	edx, DWORD PTR [esi+76]
	push	edx
	call	?setSeaLevel@CvPreGame@@YAXW4SeaLevelTypes@@@Z ; CvPreGame::setSeaLevel

; 262  : 	CvPreGame::setEra(m_eEra);

	mov	eax, DWORD PTR [esi+80]
	add	esp, 64					; 00000040H
	push	eax
	call	?setEra@CvPreGame@@YAXW4EraTypes@@@Z	; CvPreGame::setEra

; 263  : 	CvPreGame::setCalendar(m_eCalendar);

	mov	ecx, DWORD PTR [esi+84]
	push	ecx
	call	?setCalendar@CvPreGame@@YAXW4CalendarTypes@@@Z ; CvPreGame::setCalendar

; 264  : 	CvPreGame::setGameTurn(m_iGameTurn);

	mov	edx, DWORD PTR [esi+88]
	push	edx
	call	?setGameTurn@CvPreGame@@YAXH@Z		; CvPreGame::setGameTurn

; 265  : 	CvPreGame::setGameStarted(m_bGameStarted);

	movzx	eax, BYTE PTR [esi+92]
	push	eax
	call	?setGameStarted@CvPreGame@@YAX_N@Z	; CvPreGame::setGameStarted

; 266  : 	CvPreGame::setGameSpeed(m_eGameSpeed);

	mov	ecx, DWORD PTR [esi+96]
	push	ecx
	call	?setGameSpeed@CvPreGame@@YAXW4GameSpeedTypes@@@Z ; CvPreGame::setGameSpeed

; 267  : 	CvPreGame::setTurnTimer(m_eTurnTimerEnabled);

	mov	edx, DWORD PTR [esi+100]
	push	edx
	call	?setTurnTimer@CvPreGame@@YAXW4TurnTimerTypes@@@Z ; CvPreGame::setTurnTimer

; 268  : 	CvPreGame::setPitBossTurnTime(m_iTurnTimerTime);

	mov	eax, DWORD PTR [esi+104]
	push	eax
	call	?setPitBossTurnTime@CvPreGame@@YAXH@Z	; CvPreGame::setPitBossTurnTime

; 269  : 	CvPreGame::setGameName(m_szGameName);

	lea	ecx, DWORD PTR [esi+108]
	push	ecx
	call	?setGameName@CvPreGame@@YAXABVCvString@@@Z ; CvPreGame::setGameName

; 270  : 	CvPreGame::setSyncRandomSeed(m_uiSyncRandSeed);

	mov	edx, DWORD PTR [esi+136]
	push	edx
	call	?setSyncRandomSeed@CvPreGame@@YAXI@Z	; CvPreGame::setSyncRandomSeed

; 271  : 	CvPreGame::setMapRandomSeed(m_uiMapRandSeed);

	mov	eax, DWORD PTR [esi+140]
	push	eax
	call	?setMapRandomSeed@CvPreGame@@YAXI@Z	; CvPreGame::setMapRandomSeed

; 272  : 	CvPreGame::setVictories(m_abVictories);

	lea	ecx, DWORD PTR [esi+148]
	push	ecx
	call	?setVictories@CvPreGame@@YAXABV?$vector@_NV?$allocator@_N@std@@@std@@@Z ; CvPreGame::setVictories

; 273  : 	CvPreGame::SetGameOptions(m_aGameOptions);

	lea	edx, DWORD PTR [esi+168]
	push	edx
	call	?SetGameOptions@CvPreGame@@YA_NABV?$vector@VCustomOption@CvPreGame@@V?$allocator@VCustomOption@CvPreGame@@@std@@@std@@@Z ; CvPreGame::SetGameOptions

; 274  : 	CvPreGame::SetMapOptions(m_aMapOptions);

	lea	eax, DWORD PTR [esi+184]
	push	eax
	call	?SetMapOptions@CvPreGame@@YA_NABV?$vector@VCustomOption@CvPreGame@@V?$allocator@VCustomOption@CvPreGame@@@std@@@std@@@Z ; CvPreGame::SetMapOptions

; 275  : 	CvPreGame::setMultiplayerOptions(m_abMPOptions);

	lea	ecx, DWORD PTR [esi+200]
	push	ecx
	call	?setMultiplayerOptions@CvPreGame@@YAXABV?$vector@_NV?$allocator@_N@std@@@std@@@Z ; CvPreGame::setMultiplayerOptions

; 276  : 	CvPreGame::setMaxTurns(m_iMaxTurns);

	mov	edx, DWORD PTR [esi+220]
	push	edx
	call	?setMaxTurns@CvPreGame@@YAXH@Z		; CvPreGame::setMaxTurns

; 277  : 	CvPreGame::setMaxCityElimination(m_iMaxCityElimination);

	mov	eax, DWORD PTR [esi+228]
	push	eax
	call	?setMaxCityElimination@CvPreGame@@YAXH@Z ; CvPreGame::setMaxCityElimination

; 278  : 	CvPreGame::setNumMinorCivs(m_iNumMinorCivs);

	mov	ecx, DWORD PTR [esi+232]
	add	esp, 64					; 00000040H
	push	ecx
	call	?setNumMinorCivs@CvPreGame@@YAXH@Z	; CvPreGame::setNumMinorCivs

; 279  : 	CvPreGame::setAdvancedStartPoints(m_iNumAdvancedStartPoints);

	mov	edx, DWORD PTR [esi+236]
	push	edx
	call	?setAdvancedStartPoints@CvPreGame@@YAXH@Z ; CvPreGame::setAdvancedStartPoints

; 280  : 	CvPreGame::setGameMode(m_eMode);

	mov	eax, DWORD PTR [esi+240]
	push	eax
	call	?setGameMode@CvPreGame@@YAXW4GameMode@@@Z ; CvPreGame::setGameMode
	add	esp, 12					; 0000000cH

; 281  : 
; 282  : 	return true;

	lea	ecx, DWORD PTR _strMapScriptPath$[esp+1104]
	mov	DWORD PTR __$EHRec$[esp+1112], -1
	call	DWORD PTR __imp_??1?$basic_string@DU?$char_traits@D@std@@V?$allocator@D@2@@std@@QAE@XZ

; 283  : }

	mov	ecx, DWORD PTR __$EHRec$[esp+1104]
	pop	edi
	pop	esi
	pop	ebp
	mov	al, 1
	pop	ebx
	mov	DWORD PTR fs:0, ecx
	add	esp, 1088				; 00000440H
	ret	4
_TEXT	ENDS
;	COMDAT text$x
text$x	SEGMENT
__unwindfunclet$?Commit@CvDllNetInitInfo@@UAG_NXZ$0:
	lea	ecx, DWORD PTR _strMapScriptPath$[ebp]
	jmp	??1CvString@@QAE@XZ			; CvString::~CvString
__ehhandler$?Commit@CvDllNetInitInfo@@UAG_NXZ:
	mov	eax, OFFSET __ehfuncinfo$?Commit@CvDllNetInitInfo@@UAG_NXZ
	jmp	___CxxFrameHandler3
text$x	ENDS
?Commit@CvDllNetInitInfo@@UAG_NXZ ENDP			; CvDllNetInitInfo::Commit
PUBLIC	??1?$_Vector_val@VCustomOption@CvPreGame@@V?$allocator@VCustomOption@CvPreGame@@@std@@@std@@QAE@XZ ; std::_Vector_val<CvPreGame::CustomOption,std::allocator<CvPreGame::CustomOption> >::~_Vector_val<CvPreGame::CustomOption,std::allocator<CvPreGame::CustomOption> >
; Function compile flags: /Ogtpy
;	COMDAT ??1?$_Vector_val@VCustomOption@CvPreGame@@V?$allocator@VCustomOption@CvPreGame@@@std@@@std@@QAE@XZ
_TEXT	SEGMENT
??1?$_Vector_val@VCustomOption@CvPreGame@@V?$allocator@VCustomOption@CvPreGame@@@std@@@std@@QAE@XZ PROC ; std::_Vector_val<CvPreGame::CustomOption,std::allocator<CvPreGame::CustomOption> >::~_Vector_val<CvPreGame::CustomOption,std::allocator<CvPreGame::CustomOption> >, COMDAT
; _this$ = ecx
	ret	0
??1?$_Vector_val@VCustomOption@CvPreGame@@V?$allocator@VCustomOption@CvPreGame@@@std@@@std@@QAE@XZ ENDP ; std::_Vector_val<CvPreGame::CustomOption,std::allocator<CvPreGame::CustomOption> >::~_Vector_val<CvPreGame::CustomOption,std::allocator<CvPreGame::CustomOption> >
_TEXT	ENDS
PUBLIC	??0?$_Vector_val@VCustomOption@CvPreGame@@V?$allocator@VCustomOption@CvPreGame@@@std@@@std@@IAE@V?$allocator@VCustomOption@CvPreGame@@@1@@Z ; std::_Vector_val<CvPreGame::CustomOption,std::allocator<CvPreGame::CustomOption> >::_Vector_val<CvPreGame::CustomOption,std::allocator<CvPreGame::CustomOption> >
; Function compile flags: /Ogtpy
; File c:\program files (x86)\microsoft visual studio 9.0\vc\include\vector
;	COMDAT ??0?$_Vector_val@VCustomOption@CvPreGame@@V?$allocator@VCustomOption@CvPreGame@@@std@@@std@@IAE@V?$allocator@VCustomOption@CvPreGame@@@1@@Z
_TEXT	SEGMENT
__Al$ = 8						; size = 1
??0?$_Vector_val@VCustomOption@CvPreGame@@V?$allocator@VCustomOption@CvPreGame@@@std@@@std@@IAE@V?$allocator@VCustomOption@CvPreGame@@@1@@Z PROC ; std::_Vector_val<CvPreGame::CustomOption,std::allocator<CvPreGame::CustomOption> >::_Vector_val<CvPreGame::CustomOption,std::allocator<CvPreGame::CustomOption> >, COMDAT
; _this$ = ecx

; 425  : 		{	// construct allocator from _Al

	mov	eax, ecx

; 426  : 		}

	ret	4
??0?$_Vector_val@VCustomOption@CvPreGame@@V?$allocator@VCustomOption@CvPreGame@@@std@@@std@@IAE@V?$allocator@VCustomOption@CvPreGame@@@1@@Z ENDP ; std::_Vector_val<CvPreGame::CustomOption,std::allocator<CvPreGame::CustomOption> >::_Vector_val<CvPreGame::CustomOption,std::allocator<CvPreGame::CustomOption> >
_TEXT	ENDS
PUBLIC	?max_size@?$vector@VCustomOption@CvPreGame@@V?$allocator@VCustomOption@CvPreGame@@@std@@@std@@QBEIXZ ; std::vector<CvPreGame::CustomOption,std::allocator<CvPreGame::CustomOption> >::max_size
; Function compile flags: /Ogtpy
;	COMDAT ?max_size@?$vector@VCustomOption@CvPreGame@@V?$allocator@VCustomOption@CvPreGame@@@std@@@std@@QBEIXZ
_TEXT	SEGMENT
?max_size@?$vector@VCustomOption@CvPreGame@@V?$allocator@VCustomOption@CvPreGame@@@std@@@std@@QBEIXZ PROC ; std::vector<CvPreGame::CustomOption,std::allocator<CvPreGame::CustomOption> >::max_size, COMDAT
; _this$ = ecx

; 731  : 		return (this->_Alval.max_size());

	mov	eax, 63161283				; 03c3c3c3H

; 732  : 		}

	ret	0
?max_size@?$vector@VCustomOption@CvPreGame@@V?$allocator@VCustomOption@CvPreGame@@@std@@@std@@QBEIXZ ENDP ; std::vector<CvPreGame::CustomOption,std::allocator<CvPreGame::CustomOption> >::max_size
_TEXT	ENDS
PUBLIC	?_Xlen@?$vector@VCustomOption@CvPreGame@@V?$allocator@VCustomOption@CvPreGame@@@std@@@std@@KAXXZ ; std::vector<CvPreGame::CustomOption,std::allocator<CvPreGame::CustomOption> >::_Xlen
;	COMDAT xdata$x
; File c:\program files (x86)\microsoft visual studio 9.0\vc\include\stdexcept
xdata$x	SEGMENT
__unwindtable$?_Xlen@?$vector@VCustomOption@CvPreGame@@V?$allocator@VCustomOption@CvPreGame@@@std@@@std@@KAXXZ DD 0ffffffffH
	DD	FLAT:__unwindfunclet$?_Xlen@?$vector@VCustomOption@CvPreGame@@V?$allocator@VCustomOption@CvPreGame@@@std@@@std@@KAXXZ$0
	DD	00H
	DD	FLAT:__unwindfunclet$?_Xlen@?$vector@VCustomOption@CvPreGame@@V?$allocator@VCustomOption@CvPreGame@@@std@@@std@@KAXXZ$2
__ehfuncinfo$?_Xlen@?$vector@VCustomOption@CvPreGame@@V?$allocator@VCustomOption@CvPreGame@@@std@@@std@@KAXXZ DD 019930522H
	DD	02H
	DD	FLAT:__unwindtable$?_Xlen@?$vector@VCustomOption@CvPreGame@@V?$allocator@VCustomOption@CvPreGame@@@std@@@std@@KAXXZ
	DD	2 DUP(00H)
	DD	2 DUP(00H)
	DD	00H
	DD	01H
; Function compile flags: /Ogtpy
; File c:\program files (x86)\microsoft visual studio 9.0\vc\include\vector
xdata$x	ENDS
;	COMDAT ?_Xlen@?$vector@VCustomOption@CvPreGame@@V?$allocator@VCustomOption@CvPreGame@@@std@@@std@@KAXXZ
_TEXT	SEGMENT
$T221271 = -80						; size = 28
$T221270 = -52						; size = 40
__$EHRec$ = -12						; size = 12
?_Xlen@?$vector@VCustomOption@CvPreGame@@V?$allocator@VCustomOption@CvPreGame@@@std@@@std@@KAXXZ PROC ; std::vector<CvPreGame::CustomOption,std::allocator<CvPreGame::CustomOption> >::_Xlen, COMDAT

; 1259 : 		{	// report a length_error

	push	-1
	push	__ehhandler$?_Xlen@?$vector@VCustomOption@CvPreGame@@V?$allocator@VCustomOption@CvPreGame@@@std@@@std@@KAXXZ
	mov	eax, DWORD PTR fs:0
	push	eax
	mov	DWORD PTR fs:0, esp
	sub	esp, 68					; 00000044H

; 1260 : 		_THROW(length_error, "vector<T> too long");

	push	OFFSET ??_C@_0BD@OLBABOEK@vector?$DMT?$DO?5too?5long?$AA@
	lea	ecx, DWORD PTR $T221271[esp+84]
	call	DWORD PTR __imp_??0?$basic_string@DU?$char_traits@D@std@@V?$allocator@D@2@@std@@QAE@PBD@Z
	lea	ecx, DWORD PTR $T221270[esp+80]
	mov	DWORD PTR __$EHRec$[esp+88], 0
	call	DWORD PTR __imp_??0exception@std@@QAE@XZ
	lea	eax, DWORD PTR $T221271[esp+80]
	push	eax
	lea	ecx, DWORD PTR $T221270[esp+96]
	mov	BYTE PTR __$EHRec$[esp+92], 1
	mov	DWORD PTR $T221270[esp+84], OFFSET ??_7logic_error@std@@6B@
	call	DWORD PTR __imp_??0?$basic_string@DU?$char_traits@D@std@@V?$allocator@D@2@@std@@QAE@ABV01@@Z
	push	OFFSET __TI3?AVlength_error@std@@
	lea	ecx, DWORD PTR $T221270[esp+84]
	push	ecx
	mov	BYTE PTR __$EHRec$[esp+96], 0
	mov	DWORD PTR $T221270[esp+88], OFFSET ??_7length_error@std@@6B@
	call	__CxxThrowException@8
$LN13@Xlen@3:
$LN12@Xlen@3:
	int	3
_TEXT	ENDS
;	COMDAT text$x
text$x	SEGMENT
__unwindfunclet$?_Xlen@?$vector@VCustomOption@CvPreGame@@V?$allocator@VCustomOption@CvPreGame@@@std@@@std@@KAXXZ$0:
	lea	ecx, DWORD PTR $T221271[ebp]
	jmp	DWORD PTR __imp_??1?$basic_string@DU?$char_traits@D@std@@V?$allocator@D@2@@std@@QAE@XZ
__unwindfunclet$?_Xlen@?$vector@VCustomOption@CvPreGame@@V?$allocator@VCustomOption@CvPreGame@@@std@@@std@@KAXXZ$2:
	lea	ecx, DWORD PTR $T221270[ebp]
	jmp	DWORD PTR __imp_??1exception@std@@UAE@XZ
__ehhandler$?_Xlen@?$vector@VCustomOption@CvPreGame@@V?$allocator@VCustomOption@CvPreGame@@@std@@@std@@KAXXZ:
	mov	eax, OFFSET __ehfuncinfo$?_Xlen@?$vector@VCustomOption@CvPreGame@@V?$allocator@VCustomOption@CvPreGame@@@std@@@std@@KAXXZ
	jmp	___CxxFrameHandler3
text$x	ENDS
?_Xlen@?$vector@VCustomOption@CvPreGame@@V?$allocator@VCustomOption@CvPreGame@@@std@@@std@@KAXXZ ENDP ; std::vector<CvPreGame::CustomOption,std::allocator<CvPreGame::CustomOption> >::_Xlen
PUBLIC	??0?$_Vector_iterator@VCustomOption@CvPreGame@@V?$allocator@VCustomOption@CvPreGame@@@std@@@std@@QAE@PAVCustomOption@CvPreGame@@@Z ; std::_Vector_iterator<CvPreGame::CustomOption,std::allocator<CvPreGame::CustomOption> >::_Vector_iterator<CvPreGame::CustomOption,std::allocator<CvPreGame::CustomOption> >
; Function compile flags: /Ogtpy
;	COMDAT ??0?$_Vector_iterator@VCustomOption@CvPreGame@@V?$allocator@VCustomOption@CvPreGame@@@std@@@std@@QAE@PAVCustomOption@CvPreGame@@@Z
_TEXT	SEGMENT
__Ptr$ = 8						; size = 4
??0?$_Vector_iterator@VCustomOption@CvPreGame@@V?$allocator@VCustomOption@CvPreGame@@@std@@@std@@QAE@PAVCustomOption@CvPreGame@@@Z PROC ; std::_Vector_iterator<CvPreGame::CustomOption,std::allocator<CvPreGame::CustomOption> >::_Vector_iterator<CvPreGame::CustomOption,std::allocator<CvPreGame::CustomOption> >, COMDAT
; _this$ = ecx

; 333  : 		{	// construct with pointer _Ptr

	mov	eax, ecx
	mov	ecx, DWORD PTR __Ptr$[esp-4]
	mov	DWORD PTR [eax], ecx

; 334  : 		}

	ret	4
??0?$_Vector_iterator@VCustomOption@CvPreGame@@V?$allocator@VCustomOption@CvPreGame@@@std@@@std@@QAE@PAVCustomOption@CvPreGame@@@Z ENDP ; std::_Vector_iterator<CvPreGame::CustomOption,std::allocator<CvPreGame::CustomOption> >::_Vector_iterator<CvPreGame::CustomOption,std::allocator<CvPreGame::CustomOption> >
_TEXT	ENDS
PUBLIC	??9?$_Vector_const_iterator@VCustomOption@CvPreGame@@V?$allocator@VCustomOption@CvPreGame@@@std@@@std@@QBE_NABV01@@Z ; std::_Vector_const_iterator<CvPreGame::CustomOption,std::allocator<CvPreGame::CustomOption> >::operator!=
; Function compile flags: /Ogtpy
;	COMDAT ??9?$_Vector_const_iterator@VCustomOption@CvPreGame@@V?$allocator@VCustomOption@CvPreGame@@@std@@@std@@QBE_NABV01@@Z
_TEXT	SEGMENT
__Right$ = 8						; size = 4
??9?$_Vector_const_iterator@VCustomOption@CvPreGame@@V?$allocator@VCustomOption@CvPreGame@@@std@@@std@@QBE_NABV01@@Z PROC ; std::_Vector_const_iterator<CvPreGame::CustomOption,std::allocator<CvPreGame::CustomOption> >::operator!=, COMDAT
; _this$ = ecx

; 216  : 		return (!(*this == _Right));

	mov	eax, DWORD PTR [ecx]
	mov	edx, DWORD PTR __Right$[esp-4]
	xor	ecx, ecx
	cmp	eax, DWORD PTR [edx]
	setne	cl
	mov	al, cl

; 217  : 		}

	ret	4
??9?$_Vector_const_iterator@VCustomOption@CvPreGame@@V?$allocator@VCustomOption@CvPreGame@@@std@@@std@@QBE_NABV01@@Z ENDP ; std::_Vector_const_iterator<CvPreGame::CustomOption,std::allocator<CvPreGame::CustomOption> >::operator!=
_TEXT	ENDS
PUBLIC	??$unchecked_copy@PAVCustomOption@CvPreGame@@PAV12@@stdext@@YAPAVCustomOption@CvPreGame@@PAV12@00@Z ; stdext::unchecked_copy<CvPreGame::CustomOption *,CvPreGame::CustomOption *>
; Function compile flags: /Ogtpy
; File c:\program files (x86)\microsoft visual studio 9.0\vc\include\xutility
;	COMDAT ??$unchecked_copy@PAVCustomOption@CvPreGame@@PAV12@@stdext@@YAPAVCustomOption@CvPreGame@@PAV12@00@Z
_TEXT	SEGMENT
__First$ = 8						; size = 4
__Last$ = 12						; size = 4
__Dest$ = 16						; size = 4
??$unchecked_copy@PAVCustomOption@CvPreGame@@PAV12@@stdext@@YAPAVCustomOption@CvPreGame@@PAV12@00@Z PROC ; stdext::unchecked_copy<CvPreGame::CustomOption *,CvPreGame::CustomOption *>, COMDAT

; 3604 : 	{	// copy [_First, _Last) to [_Dest, ...)

	push	ebx

; 3605 : 		return (_STD _Copy_opt(_CHECKED_BASE(_First), _CHECKED_BASE(_Last), _Dest,
; 3606 : 			_STD _Iter_random(_First, _Dest), _STD _Ptr_cat(_First, _Dest), _STD _Range_checked_iterator_tag()));

	mov	ebx, DWORD PTR __Last$[esp]
	push	esi
	mov	esi, DWORD PTR __First$[esp+4]
	push	edi
	mov	edi, DWORD PTR __Dest$[esp+8]
	cmp	esi, ebx
	je	SHORT $LN14@unchecked_
$LL9@unchecked_:
	push	esi
	mov	ecx, edi
	call	??4CustomOption@CvPreGame@@QAEAAV01@ABV01@@Z ; CvPreGame::CustomOption::operator=
	add	esi, 68					; 00000044H
	add	edi, 68					; 00000044H
	cmp	esi, ebx
	jne	SHORT $LL9@unchecked_
$LN14@unchecked_:
	mov	eax, edi
	pop	edi
	pop	esi
	pop	ebx

; 3607 : 	}

	ret	0
??$unchecked_copy@PAVCustomOption@CvPreGame@@PAV12@@stdext@@YAPAVCustomOption@CvPreGame@@PAV12@00@Z ENDP ; stdext::unchecked_copy<CvPreGame::CustomOption *,CvPreGame::CustomOption *>
_TEXT	ENDS
PUBLIC	??$_Allocate@VCustomOption@CvPreGame@@@std@@YAPAVCustomOption@CvPreGame@@IPAV12@@Z ; std::_Allocate<CvPreGame::CustomOption>
; Function compile flags: /Ogtpy
; File c:\program files (x86)\microsoft visual studio 9.0\vc\include\xmemory
;	COMDAT ??$_Allocate@VCustomOption@CvPreGame@@@std@@YAPAVCustomOption@CvPreGame@@IPAV12@@Z
_TEXT	SEGMENT
$T221334 = -12						; size = 12
$T221338 = 8						; size = 4
__Count$ = 8						; size = 4
___formal$ = 12						; size = 4
??$_Allocate@VCustomOption@CvPreGame@@@std@@YAPAVCustomOption@CvPreGame@@IPAV12@@Z PROC ; std::_Allocate<CvPreGame::CustomOption>, COMDAT

; 37   : 	if (_Count <= 0)

	mov	ecx, DWORD PTR __Count$[esp-4]
	sub	esp, 12					; 0000000cH
	test	ecx, ecx
	ja	SHORT $LN3@Allocate@2

; 38   : 		_Count = 0;

	xor	ecx, ecx
$LN1@Allocate@2:

; 41   : 
; 42   : 		// allocate storage for _Count elements of type _Ty
; 43   : 	return ((_Ty _FARQ *)::operator new(_Count * sizeof (_Ty)));

	mov	edx, ecx
	shl	edx, 4
	add	edx, ecx
	add	edx, edx
	add	edx, edx
	push	edx
	call	??2@YAPAXI@Z				; operator new
	add	esp, 4

; 44   : 	}

	add	esp, 12					; 0000000cH
	ret	0
$LN3@Allocate@2:

; 39   : 	else if (((_SIZT)(-1) / _Count) < sizeof (_Ty))

	or	eax, -1
	xor	edx, edx
	div	ecx
	cmp	eax, 68					; 00000044H
	jae	SHORT $LN1@Allocate@2

; 40   : 		_THROW_NCEE(std::bad_alloc, NULL);

	lea	eax, DWORD PTR $T221338[esp+8]
	push	eax
	lea	ecx, DWORD PTR $T221334[esp+16]
	mov	DWORD PTR $T221338[esp+12], 0
	call	DWORD PTR __imp_??0exception@std@@QAE@ABQBD@Z
	push	OFFSET __TI2?AVbad_alloc@std@@
	lea	ecx, DWORD PTR $T221334[esp+16]
	push	ecx
	mov	DWORD PTR $T221334[esp+20], OFFSET ??_7bad_alloc@std@@6B@
	call	__CxxThrowException@8
$LN9@Allocate@2:
$LN8@Allocate@2:
	int	3
??$_Allocate@VCustomOption@CvPreGame@@@std@@YAPAVCustomOption@CvPreGame@@IPAV12@@Z ENDP ; std::_Allocate<CvPreGame::CustomOption>
_TEXT	ENDS
PUBLIC	??0?$SerializeFromSequenceContainer@$$CBVCustomOption@CvPreGame@@$$CBV?$vector@VCustomOption@CvPreGame@@V?$allocator@VCustomOption@CvPreGame@@@std@@@std@@@@QAE@AAVFDataStream@@ABV?$vector@VCustomOption@CvPreGame@@V?$allocator@VCustomOption@CvPreGame@@@std@@@std@@@Z ; SerializeFromSequenceContainer<CvPreGame::CustomOption const ,std::vector<CvPreGame::CustomOption,std::allocator<CvPreGame::CustomOption> > const >::SerializeFromSequenceContainer<CvPreGame::CustomOption const ,std::vector<CvPreGame::CustomOption,std::allocator<CvPreGame::CustomOption> > const >
; Function compile flags: /Ogtpy
; File c:\users\enormousapplepie\documents\github\lekmod\lekmod_dll\fireplace\include\fireworks\fstlcontainerserialization.h
;	COMDAT ??0?$SerializeFromSequenceContainer@$$CBVCustomOption@CvPreGame@@$$CBV?$vector@VCustomOption@CvPreGame@@V?$allocator@VCustomOption@CvPreGame@@@std@@@std@@@@QAE@AAVFDataStream@@ABV?$vector@VCustomOption@CvPreGame@@V?$allocator@VCustomOption@CvPreGame@@@std@@@std@@@Z
_TEXT	SEGMENT
$T221344 = 8						; size = 4
_saveTo$ = 8						; size = 4
_container$ = 12					; size = 4
??0?$SerializeFromSequenceContainer@$$CBVCustomOption@CvPreGame@@$$CBV?$vector@VCustomOption@CvPreGame@@V?$allocator@VCustomOption@CvPreGame@@@std@@@std@@@@QAE@AAVFDataStream@@ABV?$vector@VCustomOption@CvPreGame@@V?$allocator@VCustomOption@CvPreGame@@@std@@@std@@@Z PROC ; SerializeFromSequenceContainer<CvPreGame::CustomOption const ,std::vector<CvPreGame::CustomOption,std::allocator<CvPreGame::CustomOption> > const >::SerializeFromSequenceContainer<CvPreGame::CustomOption const ,std::vector<CvPreGame::CustomOption,std::allocator<CvPreGame::CustomOption> > const >, COMDAT
; _this$ = ecx

; 69   : 	{

	mov	eax, DWORD PTR _container$[esp-4]
	push	esi
	mov	esi, ecx
	mov	ecx, DWORD PTR _saveTo$[esp]
	mov	DWORD PTR [esi+4], eax
	mov	DWORD PTR [esi], ecx

; 70   : 		m_saveTo << container.size();

	mov	edx, DWORD PTR [eax+8]
	sub	edx, DWORD PTR [eax+4]
	mov	eax, 2021161081				; 78787879H
	imul	edx
	sar	edx, 5
	mov	eax, edx
	shr	eax, 31					; 0000001fH
	add	eax, edx
	lea	edx, DWORD PTR $T221344[esp]
	push	edx
	mov	DWORD PTR $T221344[esp+4], eax
	call	?Write@FDataStream@@IAEXABI@Z		; FDataStream::Write

; 71   : 	}

	mov	eax, esi
	pop	esi
	ret	8
??0?$SerializeFromSequenceContainer@$$CBVCustomOption@CvPreGame@@$$CBV?$vector@VCustomOption@CvPreGame@@V?$allocator@VCustomOption@CvPreGame@@@std@@@std@@@@QAE@AAVFDataStream@@ABV?$vector@VCustomOption@CvPreGame@@V?$allocator@VCustomOption@CvPreGame@@@std@@@std@@@Z ENDP ; SerializeFromSequenceContainer<CvPreGame::CustomOption const ,std::vector<CvPreGame::CustomOption,std::allocator<CvPreGame::CustomOption> > const >::SerializeFromSequenceContainer<CvPreGame::CustomOption const ,std::vector<CvPreGame::CustomOption,std::allocator<CvPreGame::CustomOption> > const >
_TEXT	ENDS
PUBLIC	??$for_each@V?$_Vector_const_iterator@VCustomOption@CvPreGame@@V?$allocator@VCustomOption@CvPreGame@@@std@@@std@@U?$SerializeFromSequenceContainer@$$CBVCustomOption@CvPreGame@@$$CBV?$vector@VCustomOption@CvPreGame@@V?$allocator@VCustomOption@CvPreGame@@@std@@@std@@@@@std@@YA?AU?$SerializeFromSequenceContainer@$$CBVCustomOption@CvPreGame@@$$CBV?$vector@VCustomOption@CvPreGame@@V?$allocator@VCustomOption@CvPreGame@@@std@@@std@@@@V?$_Vector_const_iterator@VCustomOption@CvPreGame@@V?$allocator@VCustomOption@CvPreGame@@@std@@@0@0U1@@Z ; std::for_each<std::_Vector_const_iterator<CvPreGame::CustomOption,std::allocator<CvPreGame::CustomOption> >,SerializeFromSequenceContainer<CvPreGame::CustomOption const ,std::vector<CvPreGame::CustomOption,std::allocator<CvPreGame::CustomOption> > const > >
; Function compile flags: /Ogtpy
; File c:\program files (x86)\microsoft visual studio 9.0\vc\include\algorithm
;	COMDAT ??$for_each@V?$_Vector_const_iterator@VCustomOption@CvPreGame@@V?$allocator@VCustomOption@CvPreGame@@@std@@@std@@U?$SerializeFromSequenceContainer@$$CBVCustomOption@CvPreGame@@$$CBV?$vector@VCustomOption@CvPreGame@@V?$allocator@VCustomOption@CvPreGame@@@std@@@std@@@@@std@@YA?AU?$SerializeFromSequenceContainer@$$CBVCustomOption@CvPreGame@@$$CBV?$vector@VCustomOption@CvPreGame@@V?$allocator@VCustomOption@CvPreGame@@@std@@@std@@@@V?$_Vector_const_iterator@VCustomOption@CvPreGame@@V?$allocator@VCustomOption@CvPreGame@@@std@@@0@0U1@@Z
_TEXT	SEGMENT
___$ReturnUdt$ = 8					; size = 4
__First$ = 12						; size = 4
__Last$ = 16						; size = 4
__Func$ = 20						; size = 8
??$for_each@V?$_Vector_const_iterator@VCustomOption@CvPreGame@@V?$allocator@VCustomOption@CvPreGame@@@std@@@std@@U?$SerializeFromSequenceContainer@$$CBVCustomOption@CvPreGame@@$$CBV?$vector@VCustomOption@CvPreGame@@V?$allocator@VCustomOption@CvPreGame@@@std@@@std@@@@@std@@YA?AU?$SerializeFromSequenceContainer@$$CBVCustomOption@CvPreGame@@$$CBV?$vector@VCustomOption@CvPreGame@@V?$allocator@VCustomOption@CvPreGame@@@std@@@std@@@@V?$_Vector_const_iterator@VCustomOption@CvPreGame@@V?$allocator@VCustomOption@CvPreGame@@@std@@@0@0U1@@Z PROC ; std::for_each<std::_Vector_const_iterator<CvPreGame::CustomOption,std::allocator<CvPreGame::CustomOption> >,SerializeFromSequenceContainer<CvPreGame::CustomOption const ,std::vector<CvPreGame::CustomOption,std::allocator<CvPreGame::CustomOption> > const > >, COMDAT

; 23   : 	{	// perform function for each element

	push	esi

; 24   : 	_DEBUG_RANGE(_First, _Last);
; 25   : 	_DEBUG_POINTER(_Func);
; 26   : 	_CHECKED_BASE_TYPE(_InIt) _ChkFirst(_CHECKED_BASE(_First));

	mov	esi, DWORD PTR __First$[esp]
	push	edi

; 27   : 	_CHECKED_BASE_TYPE(_InIt) _ChkLast(_CHECKED_BASE(_Last));

	mov	edi, DWORD PTR __Last$[esp+4]

; 28   : 	for (; _ChkFirst != _ChkLast; ++_ChkFirst)

	cmp	esi, edi
	je	SHORT $LN1@for_each
	npad	2
$LL6@for_each:

; 29   : 		_Func(*_ChkFirst);

	mov	eax, DWORD PTR __Func$[esp+4]
	push	esi
	push	eax
	call	??6CvPreGame@@YAAAVFDataStream@@AAV1@ABVCustomOption@0@@Z ; CvPreGame::operator<<
	add	esi, 68					; 00000044H
	add	esp, 8
	cmp	esi, edi
	jne	SHORT $LL6@for_each
$LN1@for_each:

; 30   : 	return (_Func);

	mov	eax, DWORD PTR ___$ReturnUdt$[esp+4]
	mov	ecx, DWORD PTR __Func$[esp+4]
	mov	edx, DWORD PTR __Func$[esp+8]
	pop	edi
	mov	DWORD PTR [eax], ecx
	mov	DWORD PTR [eax+4], edx
	pop	esi

; 31   : 	}

	ret	0
??$for_each@V?$_Vector_const_iterator@VCustomOption@CvPreGame@@V?$allocator@VCustomOption@CvPreGame@@@std@@@std@@U?$SerializeFromSequenceContainer@$$CBVCustomOption@CvPreGame@@$$CBV?$vector@VCustomOption@CvPreGame@@V?$allocator@VCustomOption@CvPreGame@@@std@@@std@@@@@std@@YA?AU?$SerializeFromSequenceContainer@$$CBVCustomOption@CvPreGame@@$$CBV?$vector@VCustomOption@CvPreGame@@V?$allocator@VCustomOption@CvPreGame@@@std@@@std@@@@V?$_Vector_const_iterator@VCustomOption@CvPreGame@@V?$allocator@VCustomOption@CvPreGame@@@std@@@0@0U1@@Z ENDP ; std::for_each<std::_Vector_const_iterator<CvPreGame::CustomOption,std::allocator<CvPreGame::CustomOption> >,SerializeFromSequenceContainer<CvPreGame::CustomOption const ,std::vector<CvPreGame::CustomOption,std::allocator<CvPreGame::CustomOption> > const > >
_TEXT	ENDS
PUBLIC	?destroy@?$allocator@VCustomOption@CvPreGame@@@std@@QAEXPAVCustomOption@CvPreGame@@@Z ; std::allocator<CvPreGame::CustomOption>::destroy
; Function compile flags: /Ogtpy
; File c:\program files (x86)\microsoft visual studio 9.0\vc\include\xmemory
;	COMDAT ?destroy@?$allocator@VCustomOption@CvPreGame@@@std@@QAEXPAVCustomOption@CvPreGame@@@Z
_TEXT	SEGMENT
__Ptr$ = 8						; size = 4
?destroy@?$allocator@VCustomOption@CvPreGame@@@std@@QAEXPAVCustomOption@CvPreGame@@@Z PROC ; std::allocator<CvPreGame::CustomOption>::destroy, COMDAT
; _this$ = ecx

; 160  : 		_Destroy(_Ptr);
; 161  : 		}

	ret	4
?destroy@?$allocator@VCustomOption@CvPreGame@@@std@@QAEXPAVCustomOption@CvPreGame@@@Z ENDP ; std::allocator<CvPreGame::CustomOption>::destroy
_TEXT	ENDS
PUBLIC	??Y?$_Vector_iterator@VCustomOption@CvPreGame@@V?$allocator@VCustomOption@CvPreGame@@@std@@@std@@QAEAAV01@H@Z ; std::_Vector_iterator<CvPreGame::CustomOption,std::allocator<CvPreGame::CustomOption> >::operator+=
; Function compile flags: /Ogtpy
; File c:\program files (x86)\microsoft visual studio 9.0\vc\include\vector
;	COMDAT ??Y?$_Vector_iterator@VCustomOption@CvPreGame@@V?$allocator@VCustomOption@CvPreGame@@@std@@@std@@QAEAAV01@H@Z
_TEXT	SEGMENT
__Off$ = 8						; size = 4
??Y?$_Vector_iterator@VCustomOption@CvPreGame@@V?$allocator@VCustomOption@CvPreGame@@@std@@@std@@QAEAAV01@H@Z PROC ; std::_Vector_iterator<CvPreGame::CustomOption,std::allocator<CvPreGame::CustomOption> >::operator+=, COMDAT
; _this$ = ecx

; 374  : 		{	// increment by integer

	mov	eax, ecx

; 375  : 		(*(_Mybase *)this) += _Off;

	mov	ecx, DWORD PTR __Off$[esp-4]
	mov	edx, ecx
	shl	edx, 4
	add	edx, ecx
	add	edx, edx
	add	edx, edx
	add	DWORD PTR [eax], edx

; 376  : 		return (*this);
; 377  : 		}

	ret	4
??Y?$_Vector_iterator@VCustomOption@CvPreGame@@V?$allocator@VCustomOption@CvPreGame@@@std@@@std@@QAEAAV01@H@Z ENDP ; std::_Vector_iterator<CvPreGame::CustomOption,std::allocator<CvPreGame::CustomOption> >::operator+=
_TEXT	ENDS
PUBLIC	??$fill@PAVCustomOption@CvPreGame@@V12@@std@@YAXPAVCustomOption@CvPreGame@@0ABV12@@Z ; std::fill<CvPreGame::CustomOption *,CvPreGame::CustomOption>
; Function compile flags: /Ogtpy
; File c:\program files (x86)\microsoft visual studio 9.0\vc\include\xutility
;	COMDAT ??$fill@PAVCustomOption@CvPreGame@@V12@@std@@YAXPAVCustomOption@CvPreGame@@0ABV12@@Z
_TEXT	SEGMENT
__First$ = 8						; size = 4
__Last$ = 12						; size = 4
__Val$ = 16						; size = 4
??$fill@PAVCustomOption@CvPreGame@@V12@@std@@YAXPAVCustomOption@CvPreGame@@0ABV12@@Z PROC ; std::fill<CvPreGame::CustomOption *,CvPreGame::CustomOption>, COMDAT

; 3186 : 	{	// copy _Val through [_First, _Last)

	push	esi

; 3187 : 	_Fill(_CHECKED_BASE(_First), _CHECKED_BASE(_Last), _Val);

	mov	esi, DWORD PTR __First$[esp]
	push	edi
	mov	edi, DWORD PTR __Last$[esp+4]
	cmp	esi, edi
	je	SHORT $LN3@fill
	push	ebx
	mov	ebx, DWORD PTR __Val$[esp+8]
$LL5@fill:
	push	ebx
	mov	ecx, esi
	call	??4CustomOption@CvPreGame@@QAEAAV01@ABV01@@Z ; CvPreGame::CustomOption::operator=
	add	esi, 68					; 00000044H
	cmp	esi, edi
	jne	SHORT $LL5@fill
	pop	ebx
$LN3@fill:
	pop	edi
	pop	esi

; 3188 : 	}

	ret	0
??$fill@PAVCustomOption@CvPreGame@@V12@@std@@YAXPAVCustomOption@CvPreGame@@0ABV12@@Z ENDP ; std::fill<CvPreGame::CustomOption *,CvPreGame::CustomOption>
_TEXT	ENDS
PUBLIC	?construct@?$allocator@VCustomOption@CvPreGame@@@std@@QAEXPAVCustomOption@CvPreGame@@ABV34@@Z ; std::allocator<CvPreGame::CustomOption>::construct
;	COMDAT xdata$x
; File c:\program files (x86)\microsoft visual studio 9.0\vc\include\new
xdata$x	SEGMENT
__unwindtable$?construct@?$allocator@VCustomOption@CvPreGame@@@std@@QAEXPAVCustomOption@CvPreGame@@ABV34@@Z DD 0ffffffffH
	DD	FLAT:__unwindfunclet$?construct@?$allocator@VCustomOption@CvPreGame@@@std@@QAEXPAVCustomOption@CvPreGame@@ABV34@@Z$0
__ehfuncinfo$?construct@?$allocator@VCustomOption@CvPreGame@@@std@@QAEXPAVCustomOption@CvPreGame@@ABV34@@Z DD 019930522H
	DD	01H
	DD	FLAT:__unwindtable$?construct@?$allocator@VCustomOption@CvPreGame@@@std@@QAEXPAVCustomOption@CvPreGame@@ABV34@@Z
	DD	2 DUP(00H)
	DD	2 DUP(00H)
	DD	00H
	DD	01H
; Function compile flags: /Ogtpy
; File c:\program files (x86)\microsoft visual studio 9.0\vc\include\xmemory
xdata$x	ENDS
;	COMDAT ?construct@?$allocator@VCustomOption@CvPreGame@@@std@@QAEXPAVCustomOption@CvPreGame@@ABV34@@Z
_TEXT	SEGMENT
$T221415 = -16						; size = 4
__$EHRec$ = -12						; size = 12
__Vptr$221412 = 8					; size = 4
__Ptr$ = 8						; size = 4
__Val$ = 12						; size = 4
?construct@?$allocator@VCustomOption@CvPreGame@@@std@@QAEXPAVCustomOption@CvPreGame@@ABV34@@Z PROC ; std::allocator<CvPreGame::CustomOption>::construct, COMDAT
; _this$ = ecx

; 154  : 		{	// construct object at _Ptr with value _Val

	push	-1
	push	__ehhandler$?construct@?$allocator@VCustomOption@CvPreGame@@@std@@QAEXPAVCustomOption@CvPreGame@@ABV34@@Z
	mov	eax, DWORD PTR fs:0
	push	eax
	mov	DWORD PTR fs:0, esp
	push	ecx

; 155  : 		_Construct(_Ptr, _Val);

	mov	ecx, DWORD PTR __Ptr$[esp+12]
	mov	DWORD PTR __Vptr$221412[esp+12], ecx
	mov	DWORD PTR $T221415[esp+16], ecx
	mov	DWORD PTR __$EHRec$[esp+24], 0
	test	ecx, ecx
	je	SHORT $LN5@construct
	mov	eax, DWORD PTR __Val$[esp+12]
	push	eax
	call	??0CustomOption@CvPreGame@@QAE@ABV01@@Z	; CvPreGame::CustomOption::CustomOption
$LN5@construct:

; 156  : 		}

	mov	ecx, DWORD PTR __$EHRec$[esp+16]
	mov	DWORD PTR fs:0, ecx
	add	esp, 16					; 00000010H
	ret	8
_TEXT	ENDS
;	COMDAT text$x
text$x	SEGMENT
__unwindfunclet$?construct@?$allocator@VCustomOption@CvPreGame@@@std@@QAEXPAVCustomOption@CvPreGame@@ABV34@@Z$0:
	mov	eax, DWORD PTR __Vptr$221412[ebp-4]
	push	eax
	mov	ecx, DWORD PTR $T221415[ebp]
	push	ecx
	call	??3@YAXPAX0@Z				; operator delete
	add	esp, 8
	ret	0
__ehhandler$?construct@?$allocator@VCustomOption@CvPreGame@@@std@@QAEXPAVCustomOption@CvPreGame@@ABV34@@Z:
	mov	eax, OFFSET __ehfuncinfo$?construct@?$allocator@VCustomOption@CvPreGame@@@std@@QAEXPAVCustomOption@CvPreGame@@ABV34@@Z
	jmp	___CxxFrameHandler3
text$x	ENDS
?construct@?$allocator@VCustomOption@CvPreGame@@@std@@QAEXPAVCustomOption@CvPreGame@@ABV34@@Z ENDP ; std::allocator<CvPreGame::CustomOption>::construct
PUBLIC	??$_Uninit_fill_n@PAVCustomOption@CvPreGame@@IV12@V?$allocator@VCustomOption@CvPreGame@@@std@@@std@@YAXPAVCustomOption@CvPreGame@@IABV12@AAV?$allocator@VCustomOption@CvPreGame@@@0@U_Nonscalar_ptr_iterator_tag@0@U_Range_checked_iterator_tag@0@@Z ; std::_Uninit_fill_n<CvPreGame::CustomOption *,unsigned int,CvPreGame::CustomOption,std::allocator<CvPreGame::CustomOption> >
;	COMDAT xdata$x
; File c:\program files (x86)\microsoft visual studio 9.0\vc\include\new
xdata$x	SEGMENT
__catchsym$??$_Uninit_fill_n@PAVCustomOption@CvPreGame@@IV12@V?$allocator@VCustomOption@CvPreGame@@@std@@@std@@YAXPAVCustomOption@CvPreGame@@IABV12@AAV?$allocator@VCustomOption@CvPreGame@@@0@U_Nonscalar_ptr_iterator_tag@0@U_Range_checked_iterator_tag@0@@Z$3 DD 040H
	DD	00H
	DD	00H
	DD	FLAT:__catch$??$_Uninit_fill_n@PAVCustomOption@CvPreGame@@IV12@V?$allocator@VCustomOption@CvPreGame@@@std@@@std@@YAXPAVCustomOption@CvPreGame@@IABV12@AAV?$allocator@VCustomOption@CvPreGame@@@0@U_Nonscalar_ptr_iterator_tag@0@U_Range_checked_iterator_tag@0@@Z$0
__tryblocktable$??$_Uninit_fill_n@PAVCustomOption@CvPreGame@@IV12@V?$allocator@VCustomOption@CvPreGame@@@std@@@std@@YAXPAVCustomOption@CvPreGame@@IABV12@AAV?$allocator@VCustomOption@CvPreGame@@@0@U_Nonscalar_ptr_iterator_tag@0@U_Range_checked_iterator_tag@0@@Z DD 00H
	DD	01H
	DD	02H
	DD	01H
	DD	FLAT:__catchsym$??$_Uninit_fill_n@PAVCustomOption@CvPreGame@@IV12@V?$allocator@VCustomOption@CvPreGame@@@std@@@std@@YAXPAVCustomOption@CvPreGame@@IABV12@AAV?$allocator@VCustomOption@CvPreGame@@@0@U_Nonscalar_ptr_iterator_tag@0@U_Range_checked_iterator_tag@0@@Z$3
__unwindtable$??$_Uninit_fill_n@PAVCustomOption@CvPreGame@@IV12@V?$allocator@VCustomOption@CvPreGame@@@std@@@std@@YAXPAVCustomOption@CvPreGame@@IABV12@AAV?$allocator@VCustomOption@CvPreGame@@@0@U_Nonscalar_ptr_iterator_tag@0@U_Range_checked_iterator_tag@0@@Z DD 0ffffffffH
	DD	00H
	DD	00H
	DD	FLAT:__unwindfunclet$??$_Uninit_fill_n@PAVCustomOption@CvPreGame@@IV12@V?$allocator@VCustomOption@CvPreGame@@@std@@@std@@YAXPAVCustomOption@CvPreGame@@IABV12@AAV?$allocator@VCustomOption@CvPreGame@@@0@U_Nonscalar_ptr_iterator_tag@0@U_Range_checked_iterator_tag@0@@Z$2
	DD	0ffffffffH
	DD	00H
__ehfuncinfo$??$_Uninit_fill_n@PAVCustomOption@CvPreGame@@IV12@V?$allocator@VCustomOption@CvPreGame@@@std@@@std@@YAXPAVCustomOption@CvPreGame@@IABV12@AAV?$allocator@VCustomOption@CvPreGame@@@0@U_Nonscalar_ptr_iterator_tag@0@U_Range_checked_iterator_tag@0@@Z DD 019930522H
	DD	03H
	DD	FLAT:__unwindtable$??$_Uninit_fill_n@PAVCustomOption@CvPreGame@@IV12@V?$allocator@VCustomOption@CvPreGame@@@std@@@std@@YAXPAVCustomOption@CvPreGame@@IABV12@AAV?$allocator@VCustomOption@CvPreGame@@@0@U_Nonscalar_ptr_iterator_tag@0@U_Range_checked_iterator_tag@0@@Z
	DD	01H
	DD	FLAT:__tryblocktable$??$_Uninit_fill_n@PAVCustomOption@CvPreGame@@IV12@V?$allocator@VCustomOption@CvPreGame@@@std@@@std@@YAXPAVCustomOption@CvPreGame@@IABV12@AAV?$allocator@VCustomOption@CvPreGame@@@0@U_Nonscalar_ptr_iterator_tag@0@U_Range_checked_iterator_tag@0@@Z
	DD	2 DUP(00H)
	DD	00H
	DD	01H
; Function compile flags: /Ogtpy
; File c:\program files (x86)\microsoft visual studio 9.0\vc\include\memory
xdata$x	ENDS
;	COMDAT ??$_Uninit_fill_n@PAVCustomOption@CvPreGame@@IV12@V?$allocator@VCustomOption@CvPreGame@@@std@@@std@@YAXPAVCustomOption@CvPreGame@@IABV12@AAV?$allocator@VCustomOption@CvPreGame@@@0@U_Nonscalar_ptr_iterator_tag@0@U_Range_checked_iterator_tag@0@@Z
_TEXT	SEGMENT
__$EHRec$ = -16						; size = 16
__Vptr$221454 = 8					; size = 4
__First$ = 8						; size = 4
$T221457 = 12						; size = 4
__Count$ = 12						; size = 4
__Val$ = 16						; size = 4
__Al$ = 20						; size = 4
___formal$ = 24						; size = 1
___formal$ = 28						; size = 1
??$_Uninit_fill_n@PAVCustomOption@CvPreGame@@IV12@V?$allocator@VCustomOption@CvPreGame@@@std@@@std@@YAXPAVCustomOption@CvPreGame@@IABV12@AAV?$allocator@VCustomOption@CvPreGame@@@0@U_Nonscalar_ptr_iterator_tag@0@U_Range_checked_iterator_tag@0@@Z PROC ; std::_Uninit_fill_n<CvPreGame::CustomOption *,unsigned int,CvPreGame::CustomOption,std::allocator<CvPreGame::CustomOption> >, COMDAT

; 393  : 	{	// copy _Count *_Val to raw _First, using _Al, arbitrary type

	push	ebp
	mov	ebp, esp
	push	-1
	push	__ehhandler$??$_Uninit_fill_n@PAVCustomOption@CvPreGame@@IV12@V?$allocator@VCustomOption@CvPreGame@@@std@@@std@@YAXPAVCustomOption@CvPreGame@@IABV12@AAV?$allocator@VCustomOption@CvPreGame@@@0@U_Nonscalar_ptr_iterator_tag@0@U_Range_checked_iterator_tag@0@@Z
	mov	eax, DWORD PTR fs:0
	push	eax
	mov	DWORD PTR fs:0, esp
	push	ecx
	push	ebx
	push	esi

; 394  : 
; 395  :  #if _HAS_ITERATOR_DEBUGGING
; 396  : //	if (_Count < 0)
; 397  : //		_DEBUG_ERROR("negative count in uninitialized fill");
; 398  :  #endif /* _HAS_ITERATOR_DEBUGGING */
; 399  : 
; 400  : 	_FwdIt _Next = _First;

	mov	esi, DWORD PTR __First$[ebp]
	push	edi

; 401  : 
; 402  : 	_TRY_BEGIN

	mov	edi, DWORD PTR __Count$[ebp]
	xor	ebx, ebx
	mov	DWORD PTR __$EHRec$[ebp], esp
	mov	DWORD PTR __$EHRec$[ebp+12], ebx
	npad	6
$LL6@Uninit_fil:

; 403  : 	for (; 0 < _Count; --_Count, ++_First)

	cmp	edi, ebx
	jbe	SHORT $LN4@Uninit_fil

; 404  : 		_Al.construct(_First, _Val);

	mov	DWORD PTR __Vptr$221454[ebp], esi
	mov	DWORD PTR $T221457[ebp], esi
	mov	BYTE PTR __$EHRec$[ebp+12], 1
	cmp	esi, ebx
	je	SHORT $LN18@Uninit_fil
	mov	eax, DWORD PTR __Val$[ebp]
	push	eax
	mov	ecx, esi
	call	??0CustomOption@CvPreGame@@QAE@ABV01@@Z	; CvPreGame::CustomOption::CustomOption
$LN18@Uninit_fil:
	dec	edi
	mov	BYTE PTR __$EHRec$[ebp+12], bl
	add	esi, 68					; 00000044H
	jmp	SHORT $LL6@Uninit_fil
__catch$??$_Uninit_fill_n@PAVCustomOption@CvPreGame@@IV12@V?$allocator@VCustomOption@CvPreGame@@@std@@@std@@YAXPAVCustomOption@CvPreGame@@IABV12@AAV?$allocator@VCustomOption@CvPreGame@@@0@U_Nonscalar_ptr_iterator_tag@0@U_Range_checked_iterator_tag@0@@Z$0:

; 405  : 	_CATCH_ALL
; 406  : 	for (; _Next != _First; ++_Next)
; 407  : 		_Al.destroy(_Next);
; 408  : 	_RERAISE;

	xor	ebx, ebx
	push	ebx
	push	ebx
	call	__CxxThrowException@8
$LN29@Uninit_fil:
$LN4@Uninit_fil:

; 409  : 	_CATCH_END
; 410  : 	}

	mov	ecx, DWORD PTR __$EHRec$[ebp+4]
	pop	edi
	pop	esi
	mov	DWORD PTR fs:0, ecx
	pop	ebx
	mov	esp, ebp
	pop	ebp
	ret	0
$LN28@Uninit_fil:
_TEXT	ENDS
;	COMDAT text$x
text$x	SEGMENT
__unwindfunclet$??$_Uninit_fill_n@PAVCustomOption@CvPreGame@@IV12@V?$allocator@VCustomOption@CvPreGame@@@std@@@std@@YAXPAVCustomOption@CvPreGame@@IABV12@AAV?$allocator@VCustomOption@CvPreGame@@@0@U_Nonscalar_ptr_iterator_tag@0@U_Range_checked_iterator_tag@0@@Z$2:
	mov	eax, DWORD PTR __Vptr$221454[ebp]
	push	eax
	mov	ecx, DWORD PTR $T221457[ebp]
	push	ecx
	call	??3@YAXPAX0@Z				; operator delete
	add	esp, 8
	ret	0
__ehhandler$??$_Uninit_fill_n@PAVCustomOption@CvPreGame@@IV12@V?$allocator@VCustomOption@CvPreGame@@@std@@@std@@YAXPAVCustomOption@CvPreGame@@IABV12@AAV?$allocator@VCustomOption@CvPreGame@@@0@U_Nonscalar_ptr_iterator_tag@0@U_Range_checked_iterator_tag@0@@Z:
	mov	eax, OFFSET __ehfuncinfo$??$_Uninit_fill_n@PAVCustomOption@CvPreGame@@IV12@V?$allocator@VCustomOption@CvPreGame@@@std@@@std@@YAXPAVCustomOption@CvPreGame@@IABV12@AAV?$allocator@VCustomOption@CvPreGame@@@0@U_Nonscalar_ptr_iterator_tag@0@U_Range_checked_iterator_tag@0@@Z
	jmp	___CxxFrameHandler3
text$x	ENDS
??$_Uninit_fill_n@PAVCustomOption@CvPreGame@@IV12@V?$allocator@VCustomOption@CvPreGame@@@std@@@std@@YAXPAVCustomOption@CvPreGame@@IABV12@AAV?$allocator@VCustomOption@CvPreGame@@@0@U_Nonscalar_ptr_iterator_tag@0@U_Range_checked_iterator_tag@0@@Z ENDP ; std::_Uninit_fill_n<CvPreGame::CustomOption *,unsigned int,CvPreGame::CustomOption,std::allocator<CvPreGame::CustomOption> >
PUBLIC	??$_Move_backward_opt@PAVCustomOption@CvPreGame@@PAV12@Urandom_access_iterator_tag@std@@U_Undefined_move_tag@4@@std@@YAPAVCustomOption@CvPreGame@@PAV12@00Urandom_access_iterator_tag@0@U_Undefined_move_tag@0@U_Range_checked_iterator_tag@0@@Z ; std::_Move_backward_opt<CvPreGame::CustomOption *,CvPreGame::CustomOption *,std::random_access_iterator_tag,std::_Undefined_move_tag>
; Function compile flags: /Ogtpy
; File c:\program files (x86)\microsoft visual studio 9.0\vc\include\xutility
;	COMDAT ??$_Move_backward_opt@PAVCustomOption@CvPreGame@@PAV12@Urandom_access_iterator_tag@std@@U_Undefined_move_tag@4@@std@@YAPAVCustomOption@CvPreGame@@PAV12@00Urandom_access_iterator_tag@0@U_Undefined_move_tag@0@U_Range_checked_iterator_tag@0@@Z
_TEXT	SEGMENT
__First$ = 8						; size = 4
__Last$ = 12						; size = 4
__Dest$ = 16						; size = 4
__First_dest_cat$ = 20					; size = 1
___formal$ = 24						; size = 1
___formal$ = 28						; size = 1
??$_Move_backward_opt@PAVCustomOption@CvPreGame@@PAV12@Urandom_access_iterator_tag@std@@U_Undefined_move_tag@4@@std@@YAPAVCustomOption@CvPreGame@@PAV12@00Urandom_access_iterator_tag@0@U_Undefined_move_tag@0@U_Range_checked_iterator_tag@0@@Z PROC ; std::_Move_backward_opt<CvPreGame::CustomOption *,CvPreGame::CustomOption *,std::random_access_iterator_tag,std::_Undefined_move_tag>, COMDAT

; 2752 : 	{	// move defaults to copy if there is not a more effecient way

	push	ebx

; 2753 : 	return _Copy_backward_opt(_First, _Last, _Dest,
; 2754 : 		_First_dest_cat, _Ptr_cat(_First, _Dest), _Range_checked_iterator_tag());

	mov	ebx, DWORD PTR __First$[esp]
	push	esi
	mov	esi, DWORD PTR __Last$[esp+4]
	push	edi
	mov	edi, DWORD PTR __Dest$[esp+8]
	cmp	ebx, esi
	je	SHORT $LN11@Move_backw
$LL6@Move_backw:
	sub	esi, 68					; 00000044H
	sub	edi, 68					; 00000044H
	push	esi
	mov	ecx, edi
	call	??4CustomOption@CvPreGame@@QAEAAV01@ABV01@@Z ; CvPreGame::CustomOption::operator=
	cmp	esi, ebx
	jne	SHORT $LL6@Move_backw
$LN11@Move_backw:
	mov	eax, edi
	pop	edi
	pop	esi
	pop	ebx

; 2755 : 	}

	ret	0
??$_Move_backward_opt@PAVCustomOption@CvPreGame@@PAV12@Urandom_access_iterator_tag@std@@U_Undefined_move_tag@4@@std@@YAPAVCustomOption@CvPreGame@@PAV12@00Urandom_access_iterator_tag@0@U_Undefined_move_tag@0@U_Range_checked_iterator_tag@0@@Z ENDP ; std::_Move_backward_opt<CvPreGame::CustomOption *,CvPreGame::CustomOption *,std::random_access_iterator_tag,std::_Undefined_move_tag>
_TEXT	ENDS
PUBLIC	??1?$_Vector_val@IV?$allocator@I@std@@@std@@QAE@XZ ; std::_Vector_val<unsigned int,std::allocator<unsigned int> >::~_Vector_val<unsigned int,std::allocator<unsigned int> >
; Function compile flags: /Ogtpy
;	COMDAT ??1?$_Vector_val@IV?$allocator@I@std@@@std@@QAE@XZ
_TEXT	SEGMENT
??1?$_Vector_val@IV?$allocator@I@std@@@std@@QAE@XZ PROC	; std::_Vector_val<unsigned int,std::allocator<unsigned int> >::~_Vector_val<unsigned int,std::allocator<unsigned int> >, COMDAT
; _this$ = ecx
	ret	0
??1?$_Vector_val@IV?$allocator@I@std@@@std@@QAE@XZ ENDP	; std::_Vector_val<unsigned int,std::allocator<unsigned int> >::~_Vector_val<unsigned int,std::allocator<unsigned int> >
_TEXT	ENDS
PUBLIC	??0?$_Vector_val@IV?$allocator@I@std@@@std@@IAE@V?$allocator@I@1@@Z ; std::_Vector_val<unsigned int,std::allocator<unsigned int> >::_Vector_val<unsigned int,std::allocator<unsigned int> >
; Function compile flags: /Ogtpy
; File c:\program files (x86)\microsoft visual studio 9.0\vc\include\vector
;	COMDAT ??0?$_Vector_val@IV?$allocator@I@std@@@std@@IAE@V?$allocator@I@1@@Z
_TEXT	SEGMENT
__Al$ = 8						; size = 1
??0?$_Vector_val@IV?$allocator@I@std@@@std@@IAE@V?$allocator@I@1@@Z PROC ; std::_Vector_val<unsigned int,std::allocator<unsigned int> >::_Vector_val<unsigned int,std::allocator<unsigned int> >, COMDAT
; _this$ = ecx

; 425  : 		{	// construct allocator from _Al

	mov	eax, ecx

; 426  : 		}

	ret	4
??0?$_Vector_val@IV?$allocator@I@std@@@std@@IAE@V?$allocator@I@1@@Z ENDP ; std::_Vector_val<unsigned int,std::allocator<unsigned int> >::_Vector_val<unsigned int,std::allocator<unsigned int> >
_TEXT	ENDS
PUBLIC	??Y?$_Vb_iterator@IHV?$vector@_NV?$allocator@_N@std@@@std@@@std@@QAEAAV01@H@Z ; std::_Vb_iterator<unsigned int,int,std::vector<bool,std::allocator<bool> > >::operator+=
; Function compile flags: /Ogtpy
;	COMDAT ??Y?$_Vb_iterator@IHV?$vector@_NV?$allocator@_N@std@@@std@@@std@@QAEAAV01@H@Z
_TEXT	SEGMENT
__Off$ = 8						; size = 4
??Y?$_Vb_iterator@IHV?$vector@_NV?$allocator@_N@std@@@std@@@std@@QAEAAV01@H@Z PROC ; std::_Vb_iterator<unsigned int,int,std::vector<bool,std::allocator<bool> > >::operator+=, COMDAT
; _this$ = ecx

; 1822 : 		*(_Mybase *)this += _Off;

	mov	eax, DWORD PTR __Off$[esp-4]
	push	esi
	push	eax
	mov	esi, ecx
	call	??Y?$_Vb_const_iterator@IHV?$vector@_NV?$allocator@_N@std@@@std@@@std@@QAEAAV01@H@Z ; std::_Vb_const_iterator<unsigned int,int,std::vector<bool,std::allocator<bool> > >::operator+=

; 1823 : 		return (*this);

	mov	eax, esi
	pop	esi

; 1824 : 		}

	ret	4
??Y?$_Vb_iterator@IHV?$vector@_NV?$allocator@_N@std@@@std@@@std@@QAEAAV01@H@Z ENDP ; std::_Vb_iterator<unsigned int,int,std::vector<bool,std::allocator<bool> > >::operator+=
_TEXT	ENDS
PUBLIC	??H?$_Vb_iterator@IHV?$vector@_NV?$allocator@_N@std@@@std@@@std@@QBE?AV01@H@Z ; std::_Vb_iterator<unsigned int,int,std::vector<bool,std::allocator<bool> > >::operator+
; Function compile flags: /Ogtpy
;	COMDAT ??H?$_Vb_iterator@IHV?$vector@_NV?$allocator@_N@std@@@std@@@std@@QBE?AV01@H@Z
_TEXT	SEGMENT
__Tmp$ = -8						; size = 8
___$ReturnUdt$ = 8					; size = 4
__Off$ = 12						; size = 4
??H?$_Vb_iterator@IHV?$vector@_NV?$allocator@_N@std@@@std@@@std@@QBE?AV01@H@Z PROC ; std::_Vb_iterator<unsigned int,int,std::vector<bool,std::allocator<bool> > >::operator+, COMDAT
; _this$ = ecx

; 1827 : 		{	// return this + integer

	sub	esp, 8

; 1828 : 		_Mytype _Tmp = *this;

	mov	eax, DWORD PTR [ecx]
	mov	ecx, DWORD PTR [ecx+4]

; 1829 : 		return (_Tmp += _Off);

	mov	edx, DWORD PTR __Off$[esp+4]
	mov	DWORD PTR __Tmp$[esp+12], ecx
	push	edx
	lea	ecx, DWORD PTR __Tmp$[esp+12]
	mov	DWORD PTR __Tmp$[esp+12], eax
	call	??Y?$_Vb_const_iterator@IHV?$vector@_NV?$allocator@_N@std@@@std@@@std@@QAEAAV01@H@Z ; std::_Vb_const_iterator<unsigned int,int,std::vector<bool,std::allocator<bool> > >::operator+=
	mov	eax, DWORD PTR ___$ReturnUdt$[esp+4]
	mov	ecx, DWORD PTR __Tmp$[esp+8]
	mov	edx, DWORD PTR __Tmp$[esp+12]
	mov	DWORD PTR [eax], ecx
	mov	DWORD PTR [eax+4], edx

; 1830 : 		}

	add	esp, 8
	ret	8
??H?$_Vb_iterator@IHV?$vector@_NV?$allocator@_N@std@@@std@@@std@@QBE?AV01@H@Z ENDP ; std::_Vb_iterator<unsigned int,int,std::vector<bool,std::allocator<bool> > >::operator+
_TEXT	ENDS
PUBLIC	??G?$_Vb_iterator@IHV?$vector@_NV?$allocator@_N@std@@@std@@@std@@QBEHABV?$_Vb_const_iterator@IHV?$vector@_NV?$allocator@_N@std@@@std@@@1@@Z ; std::_Vb_iterator<unsigned int,int,std::vector<bool,std::allocator<bool> > >::operator-
; Function compile flags: /Ogtpy
;	COMDAT ??G?$_Vb_iterator@IHV?$vector@_NV?$allocator@_N@std@@@std@@@std@@QBEHABV?$_Vb_const_iterator@IHV?$vector@_NV?$allocator@_N@std@@@std@@@1@@Z
_TEXT	SEGMENT
__Right$ = 8						; size = 4
??G?$_Vb_iterator@IHV?$vector@_NV?$allocator@_N@std@@@std@@@std@@QBEHABV?$_Vb_const_iterator@IHV?$vector@_NV?$allocator@_N@std@@@std@@@1@@Z PROC ; std::_Vb_iterator<unsigned int,int,std::vector<bool,std::allocator<bool> > >::operator-, COMDAT
; _this$ = ecx

; 1845 : 		return (*(_Mybase *)this - _Right);

	mov	edx, DWORD PTR __Right$[esp-4]
	mov	eax, DWORD PTR [ecx]
	sub	eax, DWORD PTR [edx]
	sar	eax, 2
	shl	eax, 5
	sub	eax, DWORD PTR [edx+4]
	add	eax, DWORD PTR [ecx+4]

; 1846 : 		}

	ret	4
??G?$_Vb_iterator@IHV?$vector@_NV?$allocator@_N@std@@@std@@@std@@QBEHABV?$_Vb_const_iterator@IHV?$vector@_NV?$allocator@_N@std@@@std@@@1@@Z ENDP ; std::_Vb_iterator<unsigned int,int,std::vector<bool,std::allocator<bool> > >::operator-
_TEXT	ENDS
PUBLIC	?max_size@?$vector@IV?$allocator@I@std@@@std@@QBEIXZ ; std::vector<unsigned int,std::allocator<unsigned int> >::max_size
; Function compile flags: /Ogtpy
;	COMDAT ?max_size@?$vector@IV?$allocator@I@std@@@std@@QBEIXZ
_TEXT	SEGMENT
?max_size@?$vector@IV?$allocator@I@std@@@std@@QBEIXZ PROC ; std::vector<unsigned int,std::allocator<unsigned int> >::max_size, COMDAT
; _this$ = ecx

; 731  : 		return (this->_Alval.max_size());

	mov	eax, 1073741823				; 3fffffffH

; 732  : 		}

	ret	0
?max_size@?$vector@IV?$allocator@I@std@@@std@@QBEIXZ ENDP ; std::vector<unsigned int,std::allocator<unsigned int> >::max_size
_TEXT	ENDS
PUBLIC	?allocate@?$allocator@I@std@@QAEPAII@Z		; std::allocator<unsigned int>::allocate
; Function compile flags: /Ogtpy
; File c:\program files (x86)\microsoft visual studio 9.0\vc\include\xmemory
;	COMDAT ?allocate@?$allocator@I@std@@QAEPAII@Z
_TEXT	SEGMENT
__Count$ = 8						; size = 4
?allocate@?$allocator@I@std@@QAEPAII@Z PROC		; std::allocator<unsigned int>::allocate, COMDAT
; _this$ = ecx

; 145  : 		return (_Allocate(_Count, (pointer)0));

	mov	eax, DWORD PTR __Count$[esp-4]
	push	0
	push	eax
	call	??$_Allocate@I@std@@YAPAIIPAI@Z		; std::_Allocate<unsigned int>
	add	esp, 8

; 146  : 		}

	ret	4
?allocate@?$allocator@I@std@@QAEPAII@Z ENDP		; std::allocator<unsigned int>::allocate
_TEXT	ENDS
PUBLIC	??0?$_Vb_const_iterator@IHV?$vector@_NV?$allocator@_N@std@@@std@@@std@@QAE@PBI@Z ; std::_Vb_const_iterator<unsigned int,int,std::vector<bool,std::allocator<bool> > >::_Vb_const_iterator<unsigned int,int,std::vector<bool,std::allocator<bool> > >
; Function compile flags: /Ogtpy
; File c:\program files (x86)\microsoft visual studio 9.0\vc\include\vector
;	COMDAT ??0?$_Vb_const_iterator@IHV?$vector@_NV?$allocator@_N@std@@@std@@@std@@QAE@PBI@Z
_TEXT	SEGMENT
__Ptr$ = 8						; size = 4
??0?$_Vb_const_iterator@IHV?$vector@_NV?$allocator@_N@std@@@std@@@std@@QAE@PBI@Z PROC ; std::_Vb_const_iterator<unsigned int,int,std::vector<bool,std::allocator<bool> > >::_Vb_const_iterator<unsigned int,int,std::vector<bool,std::allocator<bool> > >, COMDAT
; _this$ = ecx

; 1567 : 		{	// construct with offset and pointer

	mov	eax, ecx
	mov	ecx, DWORD PTR __Ptr$[esp-4]
	mov	DWORD PTR [eax], ecx
	mov	DWORD PTR [eax+4], 0

; 1568 : 		}

	ret	4
??0?$_Vb_const_iterator@IHV?$vector@_NV?$allocator@_N@std@@@std@@@std@@QAE@PBI@Z ENDP ; std::_Vb_const_iterator<unsigned int,int,std::vector<bool,std::allocator<bool> > >::_Vb_const_iterator<unsigned int,int,std::vector<bool,std::allocator<bool> > >
_TEXT	ENDS
PUBLIC	??0?$_Vector_iterator@IV?$allocator@I@std@@@std@@QAE@PAI@Z ; std::_Vector_iterator<unsigned int,std::allocator<unsigned int> >::_Vector_iterator<unsigned int,std::allocator<unsigned int> >
; Function compile flags: /Ogtpy
;	COMDAT ??0?$_Vector_iterator@IV?$allocator@I@std@@@std@@QAE@PAI@Z
_TEXT	SEGMENT
__Ptr$ = 8						; size = 4
??0?$_Vector_iterator@IV?$allocator@I@std@@@std@@QAE@PAI@Z PROC ; std::_Vector_iterator<unsigned int,std::allocator<unsigned int> >::_Vector_iterator<unsigned int,std::allocator<unsigned int> >, COMDAT
; _this$ = ecx

; 333  : 		{	// construct with pointer _Ptr

	mov	eax, ecx
	mov	ecx, DWORD PTR __Ptr$[esp-4]
	mov	DWORD PTR [eax], ecx

; 334  : 		}

	ret	4
??0?$_Vector_iterator@IV?$allocator@I@std@@@std@@QAE@PAI@Z ENDP ; std::_Vector_iterator<unsigned int,std::allocator<unsigned int> >::_Vector_iterator<unsigned int,std::allocator<unsigned int> >
_TEXT	ENDS
PUBLIC	?_Make_iter@?$vector@IV?$allocator@I@std@@@std@@QBE?AV?$_Vector_iterator@IV?$allocator@I@std@@@2@V?$_Vector_const_iterator@IV?$allocator@I@std@@@2@@Z ; std::vector<unsigned int,std::allocator<unsigned int> >::_Make_iter
; Function compile flags: /Ogtpy
;	COMDAT ?_Make_iter@?$vector@IV?$allocator@I@std@@@std@@QBE?AV?$_Vector_iterator@IV?$allocator@I@std@@@2@V?$_Vector_const_iterator@IV?$allocator@I@std@@@2@@Z
_TEXT	SEGMENT
___$ReturnUdt$ = 8					; size = 4
__Where$ = 12						; size = 4
?_Make_iter@?$vector@IV?$allocator@I@std@@@std@@QBE?AV?$_Vector_iterator@IV?$allocator@I@std@@@2@V?$_Vector_const_iterator@IV?$allocator@I@std@@@2@@Z PROC ; std::vector<unsigned int,std::allocator<unsigned int> >::_Make_iter, COMDAT
; _this$ = ecx

; 687  : 		return (iterator(_Where._Myptr));

	mov	eax, DWORD PTR ___$ReturnUdt$[esp-4]
	mov	ecx, DWORD PTR __Where$[esp-4]
	mov	DWORD PTR [eax], ecx

; 688  : 		}

	ret	8
?_Make_iter@?$vector@IV?$allocator@I@std@@@std@@QBE?AV?$_Vector_iterator@IV?$allocator@I@std@@@2@V?$_Vector_const_iterator@IV?$allocator@I@std@@@2@@Z ENDP ; std::vector<unsigned int,std::allocator<unsigned int> >::_Make_iter
_TEXT	ENDS
PUBLIC	??Y?$_Vector_iterator@IV?$allocator@I@std@@@std@@QAEAAV01@H@Z ; std::_Vector_iterator<unsigned int,std::allocator<unsigned int> >::operator+=
; Function compile flags: /Ogtpy
;	COMDAT ??Y?$_Vector_iterator@IV?$allocator@I@std@@@std@@QAEAAV01@H@Z
_TEXT	SEGMENT
__Off$ = 8						; size = 4
??Y?$_Vector_iterator@IV?$allocator@I@std@@@std@@QAEAAV01@H@Z PROC ; std::_Vector_iterator<unsigned int,std::allocator<unsigned int> >::operator+=, COMDAT
; _this$ = ecx

; 374  : 		{	// increment by integer

	mov	eax, ecx

; 375  : 		(*(_Mybase *)this) += _Off;

	mov	ecx, DWORD PTR __Off$[esp-4]
	lea	edx, DWORD PTR [ecx*4]
	add	DWORD PTR [eax], edx

; 376  : 		return (*this);
; 377  : 		}

	ret	4
??Y?$_Vector_iterator@IV?$allocator@I@std@@@std@@QAEAAV01@H@Z ENDP ; std::_Vector_iterator<unsigned int,std::allocator<unsigned int> >::operator+=
_TEXT	ENDS
PUBLIC	??9?$_Vector_const_iterator@IV?$allocator@I@std@@@std@@QBE_NABV01@@Z ; std::_Vector_const_iterator<unsigned int,std::allocator<unsigned int> >::operator!=
; Function compile flags: /Ogtpy
;	COMDAT ??9?$_Vector_const_iterator@IV?$allocator@I@std@@@std@@QBE_NABV01@@Z
_TEXT	SEGMENT
__Right$ = 8						; size = 4
??9?$_Vector_const_iterator@IV?$allocator@I@std@@@std@@QBE_NABV01@@Z PROC ; std::_Vector_const_iterator<unsigned int,std::allocator<unsigned int> >::operator!=, COMDAT
; _this$ = ecx

; 216  : 		return (!(*this == _Right));

	mov	eax, DWORD PTR [ecx]
	mov	edx, DWORD PTR __Right$[esp-4]
	xor	ecx, ecx
	cmp	eax, DWORD PTR [edx]
	setne	cl
	mov	al, cl

; 217  : 		}

	ret	4
??9?$_Vector_const_iterator@IV?$allocator@I@std@@@std@@QBE_NABV01@@Z ENDP ; std::_Vector_const_iterator<unsigned int,std::allocator<unsigned int> >::operator!=
_TEXT	ENDS
PUBLIC	??$unchecked_copy@PAIPAI@stdext@@YAPAIPAI00@Z	; stdext::unchecked_copy<unsigned int *,unsigned int *>
; Function compile flags: /Ogtpy
; File c:\program files (x86)\microsoft visual studio 9.0\vc\include\xutility
;	COMDAT ??$unchecked_copy@PAIPAI@stdext@@YAPAIPAI00@Z
_TEXT	SEGMENT
__First$ = 8						; size = 4
__Last$ = 12						; size = 4
__Dest$ = 16						; size = 4
??$unchecked_copy@PAIPAI@stdext@@YAPAIPAI00@Z PROC	; stdext::unchecked_copy<unsigned int *,unsigned int *>, COMDAT

; 3605 : 		return (_STD _Copy_opt(_CHECKED_BASE(_First), _CHECKED_BASE(_Last), _Dest,
; 3606 : 			_STD _Iter_random(_First, _Dest), _STD _Ptr_cat(_First, _Dest), _STD _Range_checked_iterator_tag()));

	mov	eax, DWORD PTR __Last$[esp-4]
	mov	edx, DWORD PTR __First$[esp-4]
	sub	eax, edx
	push	esi
	sar	eax, 2
	push	edi
	mov	edi, DWORD PTR __Dest$[esp+4]
	lea	ecx, DWORD PTR [eax*4]
	lea	esi, DWORD PTR [ecx+edi]
	test	eax, eax
	jle	SHORT $LN10@unchecked_@2
	push	ecx
	push	edx
	push	ecx
	push	edi
	call	DWORD PTR __imp__memmove_s
	add	esp, 16					; 00000010H
$LN10@unchecked_@2:
	pop	edi
	mov	eax, esi
	pop	esi

; 3607 : 	}

	ret	0
??$unchecked_copy@PAIPAI@stdext@@YAPAIPAI00@Z ENDP	; stdext::unchecked_copy<unsigned int *,unsigned int *>
_TEXT	ENDS
PUBLIC	??$_Destroy_range@V?$allocator@I@std@@@std@@YAXPAI0AAV?$allocator@I@0@@Z ; std::_Destroy_range<std::allocator<unsigned int> >
; Function compile flags: /Ogtpy
; File c:\program files (x86)\microsoft visual studio 9.0\vc\include\xmemory
;	COMDAT ??$_Destroy_range@V?$allocator@I@std@@@std@@YAXPAI0AAV?$allocator@I@0@@Z
_TEXT	SEGMENT
__First$ = 8						; size = 4
__Last$ = 12						; size = 4
__Al$ = 16						; size = 4
??$_Destroy_range@V?$allocator@I@std@@@std@@YAXPAI0AAV?$allocator@I@0@@Z PROC ; std::_Destroy_range<std::allocator<unsigned int> >, COMDAT

; 225  : 	_Destroy_range(_First, _Last, _Al, _Ptr_cat(_First, _Last));
; 226  : 	}

	ret	0
??$_Destroy_range@V?$allocator@I@std@@@std@@YAXPAI0AAV?$allocator@I@0@@Z ENDP ; std::_Destroy_range<std::allocator<unsigned int> >
_TEXT	ENDS
PUBLIC	?begin@?$vector@_NV?$allocator@_N@std@@@std@@QBE?AV?$_Vb_const_iterator@IHV?$vector@_NV?$allocator@_N@std@@@std@@@2@XZ ; std::vector<bool,std::allocator<bool> >::begin
; Function compile flags: /Ogtpy
; File c:\program files (x86)\microsoft visual studio 9.0\vc\include\vector
;	COMDAT ?begin@?$vector@_NV?$allocator@_N@std@@@std@@QBE?AV?$_Vb_const_iterator@IHV?$vector@_NV?$allocator@_N@std@@@std@@@2@XZ
_TEXT	SEGMENT
___$ReturnUdt$ = 8					; size = 4
?begin@?$vector@_NV?$allocator@_N@std@@@std@@QBE?AV?$_Vb_const_iterator@IHV?$vector@_NV?$allocator@_N@std@@@std@@@2@XZ PROC ; std::vector<bool,std::allocator<bool> >::begin, COMDAT
; _this$ = ecx

; 1990 : 		return (const_iterator(_VEC_ITER_BASE(_Myvec.begin())));

	mov	eax, DWORD PTR ___$ReturnUdt$[esp-4]
	mov	ecx, DWORD PTR [ecx+8]
	mov	DWORD PTR [eax], ecx
	mov	DWORD PTR [eax+4], 0

; 1991 : 		}

	ret	4
?begin@?$vector@_NV?$allocator@_N@std@@@std@@QBE?AV?$_Vb_const_iterator@IHV?$vector@_NV?$allocator@_N@std@@@std@@@2@XZ ENDP ; std::vector<bool,std::allocator<bool> >::begin
_TEXT	ENDS
PUBLIC	?end@?$vector@_NV?$allocator@_N@std@@@std@@QBE?AV?$_Vb_const_iterator@IHV?$vector@_NV?$allocator@_N@std@@@std@@@2@XZ ; std::vector<bool,std::allocator<bool> >::end
; Function compile flags: /Ogtpy
;	COMDAT ?end@?$vector@_NV?$allocator@_N@std@@@std@@QBE?AV?$_Vb_const_iterator@IHV?$vector@_NV?$allocator@_N@std@@@std@@@2@XZ
_TEXT	SEGMENT
___$ReturnUdt$ = 8					; size = 4
?end@?$vector@_NV?$allocator@_N@std@@@std@@QBE?AV?$_Vb_const_iterator@IHV?$vector@_NV?$allocator@_N@std@@@std@@@2@XZ PROC ; std::vector<bool,std::allocator<bool> >::end, COMDAT
; _this$ = ecx

; 2004 : 		const_iterator _Tmp = begin();

	mov	eax, DWORD PTR [ecx+8]
	push	esi
	mov	esi, DWORD PTR ___$ReturnUdt$[esp]
	mov	DWORD PTR [esi], eax
	mov	DWORD PTR [esi+4], 0

; 2005 : 		if (0 < _Mysize)

	mov	ecx, DWORD PTR [ecx]
	test	ecx, ecx
	jbe	SHORT $LN14@end

; 2006 : 			_Tmp += _Mysize;

	push	ecx
	mov	ecx, esi
	call	??Y?$_Vb_const_iterator@IHV?$vector@_NV?$allocator@_N@std@@@std@@@std@@QAEAAV01@H@Z ; std::_Vb_const_iterator<unsigned int,int,std::vector<bool,std::allocator<bool> > >::operator+=
$LN14@end:

; 2007 : 		return (_Tmp);

	mov	eax, esi
	pop	esi

; 2008 : 		}

	ret	4
?end@?$vector@_NV?$allocator@_N@std@@@std@@QBE?AV?$_Vb_const_iterator@IHV?$vector@_NV?$allocator@_N@std@@@std@@@2@XZ ENDP ; std::vector<bool,std::allocator<bool> >::end
_TEXT	ENDS
PUBLIC	??E?$_Vb_const_iterator@IHV?$vector@_NV?$allocator@_N@std@@@std@@@std@@QAEAAV01@XZ ; std::_Vb_const_iterator<unsigned int,int,std::vector<bool,std::allocator<bool> > >::operator++
; Function compile flags: /Ogtpy
;	COMDAT ??E?$_Vb_const_iterator@IHV?$vector@_NV?$allocator@_N@std@@@std@@@std@@QAEAAV01@XZ
_TEXT	SEGMENT
??E?$_Vb_const_iterator@IHV?$vector@_NV?$allocator@_N@std@@@std@@@std@@QAEAAV01@XZ PROC ; std::_Vb_const_iterator<unsigned int,int,std::vector<bool,std::allocator<bool> > >::operator++, COMDAT
; _this$ = ecx

; 1576 : 		{	// preincrement

	mov	eax, ecx

; 1577 : 		_Inc();

	mov	ecx, DWORD PTR [eax+4]
	cmp	ecx, 31					; 0000001fH
	jae	SHORT $LN4@operator@4
	inc	ecx
	mov	DWORD PTR [eax+4], ecx

; 1578 : 		return (*this);
; 1579 : 		}

	ret	0

; 1577 : 		_Inc();

$LN4@operator@4:
	add	DWORD PTR [eax], 4
	mov	DWORD PTR [eax+4], 0

; 1578 : 		return (*this);
; 1579 : 		}

	ret	0
??E?$_Vb_const_iterator@IHV?$vector@_NV?$allocator@_N@std@@@std@@@std@@QAEAAV01@XZ ENDP ; std::_Vb_const_iterator<unsigned int,int,std::vector<bool,std::allocator<bool> > >::operator++
_TEXT	ENDS
PUBLIC	??9?$_Vb_const_iterator@IHV?$vector@_NV?$allocator@_N@std@@@std@@@std@@QBE_NABV01@@Z ; std::_Vb_const_iterator<unsigned int,int,std::vector<bool,std::allocator<bool> > >::operator!=
; Function compile flags: /Ogtpy
;	COMDAT ??9?$_Vb_const_iterator@IHV?$vector@_NV?$allocator@_N@std@@@std@@@std@@QBE_NABV01@@Z
_TEXT	SEGMENT
__Right$ = 8						; size = 4
??9?$_Vb_const_iterator@IHV?$vector@_NV?$allocator@_N@std@@@std@@@std@@QBE_NABV01@@Z PROC ; std::_Vb_const_iterator<unsigned int,int,std::vector<bool,std::allocator<bool> > >::operator!=, COMDAT
; _this$ = ecx

; 1677 : 		return (!(*this == _Right));

	mov	edx, DWORD PTR [ecx]
	mov	eax, DWORD PTR __Right$[esp-4]
	cmp	edx, DWORD PTR [eax]
	jne	SHORT $LN5@operator@5
	mov	ecx, DWORD PTR [ecx+4]
	cmp	ecx, DWORD PTR [eax+4]
	jne	SHORT $LN5@operator@5
	mov	eax, 1
	xor	edx, edx
	test	al, al
	sete	dl
	mov	al, dl

; 1678 : 		}

	ret	4

; 1677 : 		return (!(*this == _Right));

$LN5@operator@5:
	xor	eax, eax
	xor	edx, edx
	test	al, al
	sete	dl
	mov	al, dl

; 1678 : 		}

	ret	4
??9?$_Vb_const_iterator@IHV?$vector@_NV?$allocator@_N@std@@@std@@@std@@QBE_NABV01@@Z ENDP ; std::_Vb_const_iterator<unsigned int,int,std::vector<bool,std::allocator<bool> > >::operator!=
_TEXT	ENDS
PUBLIC	??B?$_Vb_reference@IHV?$vector@_NV?$allocator@_N@std@@@std@@@std@@QBE_NXZ ; std::_Vb_reference<unsigned int,int,std::vector<bool,std::allocator<bool> > >::operator bool
; Function compile flags: /Ogtpy
;	COMDAT ??B?$_Vb_reference@IHV?$vector@_NV?$allocator@_N@std@@@std@@@std@@QBE_NXZ
_TEXT	SEGMENT
??B?$_Vb_reference@IHV?$vector@_NV?$allocator@_N@std@@@std@@@std@@QBE_NXZ PROC ; std::_Vb_reference<unsigned int,int,std::vector<bool,std::allocator<bool> > >::operator bool, COMDAT
; _this$ = ecx

; 1494 : 		{	// test if bit is set

	mov	edx, ecx

; 1495 : 		return ((*_Getptr() & _Mask()) != 0);

	mov	ecx, DWORD PTR [edx+4]
	mov	eax, 1
	shl	eax, cl
	mov	ecx, DWORD PTR [edx]
	and	eax, DWORD PTR [ecx]
	neg	eax
	sbb	eax, eax
	neg	eax

; 1496 : 		}

	ret	0
??B?$_Vb_reference@IHV?$vector@_NV?$allocator@_N@std@@@std@@@std@@QBE_NXZ ENDP ; std::_Vb_reference<unsigned int,int,std::vector<bool,std::allocator<bool> > >::operator bool
_TEXT	ENDS
PUBLIC	??E?$_Vb_iterator@IHV?$vector@_NV?$allocator@_N@std@@@std@@@std@@QAEAAV01@XZ ; std::_Vb_iterator<unsigned int,int,std::vector<bool,std::allocator<bool> > >::operator++
; Function compile flags: /Ogtpy
;	COMDAT ??E?$_Vb_iterator@IHV?$vector@_NV?$allocator@_N@std@@@std@@@std@@QAEAAV01@XZ
_TEXT	SEGMENT
??E?$_Vb_iterator@IHV?$vector@_NV?$allocator@_N@std@@@std@@@std@@QAEAAV01@XZ PROC ; std::_Vb_iterator<unsigned int,int,std::vector<bool,std::allocator<bool> > >::operator++, COMDAT
; _this$ = ecx

; 1795 : 		{	// preincrement

	mov	eax, ecx

; 1796 : 		++*(_Mybase *)this;

	mov	ecx, DWORD PTR [eax+4]
	cmp	ecx, 31					; 0000001fH
	jae	SHORT $LN6@operator@6
	inc	ecx
	mov	DWORD PTR [eax+4], ecx

; 1797 : 		return (*this);
; 1798 : 		}

	ret	0

; 1796 : 		++*(_Mybase *)this;

$LN6@operator@6:
	add	DWORD PTR [eax], 4
	mov	DWORD PTR [eax+4], 0

; 1797 : 		return (*this);
; 1798 : 		}

	ret	0
??E?$_Vb_iterator@IHV?$vector@_NV?$allocator@_N@std@@@std@@@std@@QAEAAV01@XZ ENDP ; std::_Vb_iterator<unsigned int,int,std::vector<bool,std::allocator<bool> > >::operator++
_TEXT	ENDS
PUBLIC	??4?$_Vb_reference@IHV?$vector@_NV?$allocator@_N@std@@@std@@@std@@QAEAAV01@ABV01@@Z ; std::_Vb_reference<unsigned int,int,std::vector<bool,std::allocator<bool> > >::operator=
; Function compile flags: /Ogtpy
;	COMDAT ??4?$_Vb_reference@IHV?$vector@_NV?$allocator@_N@std@@@std@@@std@@QAEAAV01@ABV01@@Z
_TEXT	SEGMENT
__Right$ = 8						; size = 4
??4?$_Vb_reference@IHV?$vector@_NV?$allocator@_N@std@@@std@@@std@@QAEAAV01@ABV01@@Z PROC ; std::_Vb_reference<unsigned int,int,std::vector<bool,std::allocator<bool> > >::operator=, COMDAT
; _this$ = ecx

; 1471 : 		return (*this = bool(_Right));

	mov	edx, DWORD PTR __Right$[esp-4]
	mov	eax, ecx
	mov	ecx, DWORD PTR [edx+4]
	push	esi
	mov	esi, 1
	shl	esi, cl
	mov	ecx, DWORD PTR [edx]
	mov	edx, DWORD PTR [eax]
	test	esi, DWORD PTR [ecx]
	mov	ecx, DWORD PTR [eax+4]
	mov	esi, 1
	je	SHORT $LN10@operator@7
	shl	esi, cl
	or	DWORD PTR [edx], esi
	pop	esi

; 1472 : 		}

	ret	4

; 1471 : 		return (*this = bool(_Right));

$LN10@operator@7:
	shl	esi, cl
	not	esi
	and	DWORD PTR [edx], esi
	pop	esi

; 1472 : 		}

	ret	4
??4?$_Vb_reference@IHV?$vector@_NV?$allocator@_N@std@@@std@@@std@@QAEAAV01@ABV01@@Z ENDP ; std::_Vb_reference<unsigned int,int,std::vector<bool,std::allocator<bool> > >::operator=
_TEXT	ENDS
PUBLIC	??$fill@PAII@std@@YAXPAI0ABI@Z			; std::fill<unsigned int *,unsigned int>
; Function compile flags: /Ogtpy
; File c:\program files (x86)\microsoft visual studio 9.0\vc\include\xutility
;	COMDAT ??$fill@PAII@std@@YAXPAI0ABI@Z
_TEXT	SEGMENT
__First$ = 8						; size = 4
__Last$ = 12						; size = 4
__Val$ = 16						; size = 4
??$fill@PAII@std@@YAXPAI0ABI@Z PROC			; std::fill<unsigned int *,unsigned int>, COMDAT

; 3187 : 	_Fill(_CHECKED_BASE(_First), _CHECKED_BASE(_Last), _Val);

	mov	eax, DWORD PTR __First$[esp-4]
	mov	ecx, DWORD PTR __Last$[esp-4]
	cmp	eax, ecx
	je	SHORT $LN3@fill@2
	mov	edx, DWORD PTR __Val$[esp-4]
	push	esi
$LL5@fill@2:
	mov	esi, DWORD PTR [edx]
	mov	DWORD PTR [eax], esi
	add	eax, 4
	cmp	eax, ecx
	jne	SHORT $LL5@fill@2
	pop	esi
$LN3@fill@2:

; 3188 : 	}

	ret	0
??$fill@PAII@std@@YAXPAI0ABI@Z ENDP			; std::fill<unsigned int *,unsigned int>
_TEXT	ENDS
PUBLIC	??$_Fill@V?$_Vb_iterator@IHV?$vector@_NV?$allocator@_N@std@@@std@@@std@@_N@std@@YAXV?$_Vb_iterator@IHV?$vector@_NV?$allocator@_N@std@@@std@@@0@0AB_N@Z ; std::_Fill<std::_Vb_iterator<unsigned int,int,std::vector<bool,std::allocator<bool> > >,bool>
; Function compile flags: /Ogtpy
;	COMDAT ??$_Fill@V?$_Vb_iterator@IHV?$vector@_NV?$allocator@_N@std@@@std@@@std@@_N@std@@YAXV?$_Vb_iterator@IHV?$vector@_NV?$allocator@_N@std@@@std@@@0@0AB_N@Z
_TEXT	SEGMENT
__First$ = 8						; size = 8
__Last$ = 16						; size = 8
__Val$ = 24						; size = 4
??$_Fill@V?$_Vb_iterator@IHV?$vector@_NV?$allocator@_N@std@@@std@@@std@@_N@std@@YAXV?$_Vb_iterator@IHV?$vector@_NV?$allocator@_N@std@@@std@@@0@0AB_N@Z PROC ; std::_Fill<std::_Vb_iterator<unsigned int,int,std::vector<bool,std::allocator<bool> > >,bool>, COMDAT

; 3156 : 	{	// copy _Val through [_First, _Last)

	mov	edx, DWORD PTR __Val$[esp-4]
	mov	ecx, DWORD PTR __First$[esp]
	mov	eax, DWORD PTR __First$[esp-4]
	push	esi
	npad	3

; 3157 : 	_DEBUG_RANGE(_First, _Last);
; 3158 : 	for (; _First != _Last; ++_First)

$LL10@Fill@3:
	cmp	eax, DWORD PTR __Last$[esp]
	jne	SHORT $LN18@Fill@3
	cmp	ecx, DWORD PTR __Last$[esp+4]
	je	SHORT $LN40@Fill@3
$LN18@Fill@3:

; 3159 : 		*_First = _Val;

	mov	esi, 1
	shl	esi, cl
	cmp	BYTE PTR [edx], 0
	je	SHORT $LN27@Fill@3
	or	DWORD PTR [eax], esi
	jmp	SHORT $LN2@Fill@3
$LN27@Fill@3:
	not	esi
	and	DWORD PTR [eax], esi
$LN2@Fill@3:
	mov	ecx, DWORD PTR __First$[esp+4]
	mov	eax, DWORD PTR __First$[esp]
	cmp	ecx, 31					; 0000001fH
	jae	SHORT $LN11@Fill@3
	inc	ecx
	mov	DWORD PTR __First$[esp+4], ecx
	jmp	SHORT $LL10@Fill@3

; 3157 : 	_DEBUG_RANGE(_First, _Last);
; 3158 : 	for (; _First != _Last; ++_First)

$LN11@Fill@3:
	xor	ecx, ecx
	add	eax, 4
	mov	DWORD PTR __First$[esp+4], ecx
	mov	DWORD PTR __First$[esp], eax
	jmp	SHORT $LL10@Fill@3
$LN40@Fill@3:
	pop	esi

; 3160 : 	}

	ret	0
??$_Fill@V?$_Vb_iterator@IHV?$vector@_NV?$allocator@_N@std@@@std@@@std@@_N@std@@YAXV?$_Vb_iterator@IHV?$vector@_NV?$allocator@_N@std@@@std@@@0@0AB_N@Z ENDP ; std::_Fill<std::_Vb_iterator<unsigned int,int,std::vector<bool,std::allocator<bool> > >,bool>
_TEXT	ENDS
PUBLIC	??$_Move_backward_opt@PAIPAIUrandom_access_iterator_tag@std@@U_Undefined_move_tag@2@@std@@YAPAIPAI00Urandom_access_iterator_tag@0@U_Undefined_move_tag@0@U_Range_checked_iterator_tag@0@@Z ; std::_Move_backward_opt<unsigned int *,unsigned int *,std::random_access_iterator_tag,std::_Undefined_move_tag>
; Function compile flags: /Ogtpy
;	COMDAT ??$_Move_backward_opt@PAIPAIUrandom_access_iterator_tag@std@@U_Undefined_move_tag@2@@std@@YAPAIPAI00Urandom_access_iterator_tag@0@U_Undefined_move_tag@0@U_Range_checked_iterator_tag@0@@Z
_TEXT	SEGMENT
__First$ = 8						; size = 4
__Last$ = 12						; size = 4
__Dest$ = 16						; size = 4
__First_dest_cat$ = 20					; size = 1
___formal$ = 24						; size = 1
___formal$ = 28						; size = 1
??$_Move_backward_opt@PAIPAIUrandom_access_iterator_tag@std@@U_Undefined_move_tag@2@@std@@YAPAIPAI00Urandom_access_iterator_tag@0@U_Undefined_move_tag@0@U_Range_checked_iterator_tag@0@@Z PROC ; std::_Move_backward_opt<unsigned int *,unsigned int *,std::random_access_iterator_tag,std::_Undefined_move_tag>, COMDAT

; 2753 : 	return _Copy_backward_opt(_First, _Last, _Dest,
; 2754 : 		_First_dest_cat, _Ptr_cat(_First, _Dest), _Range_checked_iterator_tag());

	mov	eax, DWORD PTR __Last$[esp-4]
	mov	edx, DWORD PTR __First$[esp-4]
	sub	eax, edx
	sar	eax, 2
	push	esi
	mov	esi, DWORD PTR __Dest$[esp]
	lea	ecx, DWORD PTR [eax*4]
	sub	esi, ecx
	test	eax, eax
	jle	SHORT $LN8@Move_backw@2
	push	ecx
	push	edx
	push	ecx
	push	esi
	call	DWORD PTR __imp__memmove_s
	add	esp, 16					; 00000010H
$LN8@Move_backw@2:
	mov	eax, esi
	pop	esi

; 2755 : 	}

	ret	0
??$_Move_backward_opt@PAIPAIUrandom_access_iterator_tag@std@@U_Undefined_move_tag@2@@std@@YAPAIPAI00Urandom_access_iterator_tag@0@U_Undefined_move_tag@0@U_Range_checked_iterator_tag@0@@Z ENDP ; std::_Move_backward_opt<unsigned int *,unsigned int *,std::random_access_iterator_tag,std::_Undefined_move_tag>
_TEXT	ENDS
PUBLIC	??F?$_Vb_const_iterator@IHV?$vector@_NV?$allocator@_N@std@@@std@@@std@@QAEAAV01@XZ ; std::_Vb_const_iterator<unsigned int,int,std::vector<bool,std::allocator<bool> > >::operator--
; Function compile flags: /Ogtpy
; File c:\program files (x86)\microsoft visual studio 9.0\vc\include\vector
;	COMDAT ??F?$_Vb_const_iterator@IHV?$vector@_NV?$allocator@_N@std@@@std@@@std@@QAEAAV01@XZ
_TEXT	SEGMENT
??F?$_Vb_const_iterator@IHV?$vector@_NV?$allocator@_N@std@@@std@@@std@@QAEAAV01@XZ PROC ; std::_Vb_const_iterator<unsigned int,int,std::vector<bool,std::allocator<bool> > >::operator--, COMDAT
; _this$ = ecx

; 1589 : 		{	// predecrement

	mov	eax, ecx

; 1590 : 		_Dec();

	mov	ecx, DWORD PTR [eax+4]
	test	ecx, ecx
	je	SHORT $LN4@operator@8
	dec	ecx
	mov	DWORD PTR [eax+4], ecx

; 1591 : 		return (*this);
; 1592 : 		}

	ret	0

; 1590 : 		_Dec();

$LN4@operator@8:
	add	DWORD PTR [eax], -4			; fffffffcH
	mov	DWORD PTR [eax+4], 31			; 0000001fH

; 1591 : 		return (*this);
; 1592 : 		}

	ret	0
??F?$_Vb_const_iterator@IHV?$vector@_NV?$allocator@_N@std@@@std@@@std@@QAEAAV01@XZ ENDP ; std::_Vb_const_iterator<unsigned int,int,std::vector<bool,std::allocator<bool> > >::operator--
_TEXT	ENDS
PUBLIC	??$unchecked_uninitialized_copy@PAIPAIV?$allocator@I@std@@@stdext@@YAPAIPAI00AAV?$allocator@I@std@@@Z ; stdext::unchecked_uninitialized_copy<unsigned int *,unsigned int *,std::allocator<unsigned int> >
; Function compile flags: /Ogtpy
; File c:\program files (x86)\microsoft visual studio 9.0\vc\include\memory
;	COMDAT ??$unchecked_uninitialized_copy@PAIPAIV?$allocator@I@std@@@stdext@@YAPAIPAI00AAV?$allocator@I@std@@@Z
_TEXT	SEGMENT
__First$ = 8						; size = 4
__Last$ = 12						; size = 4
__Dest$ = 16						; size = 4
__Al$ = 20						; size = 4
??$unchecked_uninitialized_copy@PAIPAIV?$allocator@I@std@@@stdext@@YAPAIPAI00AAV?$allocator@I@std@@@Z PROC ; stdext::unchecked_uninitialized_copy<unsigned int *,unsigned int *,std::allocator<unsigned int> >, COMDAT

; 820  : 	return (_STD _Uninit_copy(_CHECKED_BASE(_First),
; 821  : 		_CHECKED_BASE(_Last), _Dest, _Al,
; 822  : 		_STD _Ptr_cat(_First, _Dest), _STD _Range_checked_iterator_tag()));

	mov	eax, DWORD PTR __Last$[esp-4]
	mov	edx, DWORD PTR __First$[esp-4]
	sub	eax, edx
	push	esi
	sar	eax, 2
	push	edi
	mov	edi, DWORD PTR __Dest$[esp+4]
	lea	ecx, DWORD PTR [eax*4]
	lea	esi, DWORD PTR [ecx+edi]
	test	eax, eax
	jbe	SHORT $LN8@unchecked_@3
	push	ecx
	push	edx
	push	ecx
	push	edi
	call	DWORD PTR __imp__memmove_s
	add	esp, 16					; 00000010H
$LN8@unchecked_@3:
	pop	edi
	mov	eax, esi
	pop	esi

; 823  : 	}

	ret	0
??$unchecked_uninitialized_copy@PAIPAIV?$allocator@I@std@@@stdext@@YAPAIPAI00AAV?$allocator@I@std@@@Z ENDP ; stdext::unchecked_uninitialized_copy<unsigned int *,unsigned int *,std::allocator<unsigned int> >
_TEXT	ENDS
PUBLIC	??$_Fill_n@PAIIIUrandom_access_iterator_tag@std@@@std@@YAXPAIIABIUrandom_access_iterator_tag@0@U_Range_checked_iterator_tag@0@@Z ; std::_Fill_n<unsigned int *,unsigned int,unsigned int,std::random_access_iterator_tag>
; Function compile flags: /Ogtpy
; File c:\program files (x86)\microsoft visual studio 9.0\vc\include\xutility
;	COMDAT ??$_Fill_n@PAIIIUrandom_access_iterator_tag@std@@@std@@YAXPAIIABIUrandom_access_iterator_tag@0@U_Range_checked_iterator_tag@0@@Z
_TEXT	SEGMENT
__First$ = 8						; size = 4
__Count$ = 12						; size = 4
__Val$ = 16						; size = 4
___formal$ = 20						; size = 1
___formal$ = 24						; size = 1
??$_Fill_n@PAIIIUrandom_access_iterator_tag@std@@@std@@YAXPAIIABIUrandom_access_iterator_tag@0@U_Range_checked_iterator_tag@0@@Z PROC ; std::_Fill_n<unsigned int *,unsigned int,unsigned int,std::random_access_iterator_tag>, COMDAT

; 3242 : 		_Fill_n(_First, _Count, _Val, _Range_checked_iterator_tag());

	mov	eax, DWORD PTR __Count$[esp-4]
	mov	ecx, DWORD PTR __First$[esp-4]
	test	eax, eax
	jbe	SHORT $LN3@Fill_n@2
	mov	edx, DWORD PTR __Val$[esp-4]
	push	esi
$LL5@Fill_n@2:
	mov	esi, DWORD PTR [edx]
	mov	DWORD PTR [ecx], esi
	dec	eax
	add	ecx, 4
	test	eax, eax
	ja	SHORT $LL5@Fill_n@2
	pop	esi
$LN3@Fill_n@2:

; 3243 : 	}

	ret	0
??$_Fill_n@PAIIIUrandom_access_iterator_tag@std@@@std@@YAXPAIIABIUrandom_access_iterator_tag@0@U_Range_checked_iterator_tag@0@@Z ENDP ; std::_Fill_n<unsigned int *,unsigned int,unsigned int,std::random_access_iterator_tag>
_TEXT	ENDS
PUBLIC	?begin@?$vector@VCustomOption@CvPreGame@@V?$allocator@VCustomOption@CvPreGame@@@std@@@std@@QAE?AV?$_Vector_iterator@VCustomOption@CvPreGame@@V?$allocator@VCustomOption@CvPreGame@@@std@@@2@XZ ; std::vector<CvPreGame::CustomOption,std::allocator<CvPreGame::CustomOption> >::begin
; Function compile flags: /Ogtpy
; File c:\program files (x86)\microsoft visual studio 9.0\vc\include\vector
;	COMDAT ?begin@?$vector@VCustomOption@CvPreGame@@V?$allocator@VCustomOption@CvPreGame@@@std@@@std@@QAE?AV?$_Vector_iterator@VCustomOption@CvPreGame@@V?$allocator@VCustomOption@CvPreGame@@@std@@@2@XZ
_TEXT	SEGMENT
___$ReturnUdt$ = 8					; size = 4
?begin@?$vector@VCustomOption@CvPreGame@@V?$allocator@VCustomOption@CvPreGame@@@std@@@std@@QAE?AV?$_Vector_iterator@VCustomOption@CvPreGame@@V?$allocator@VCustomOption@CvPreGame@@@std@@@2@XZ PROC ; std::vector<CvPreGame::CustomOption,std::allocator<CvPreGame::CustomOption> >::begin, COMDAT
; _this$ = ecx

; 667  : 		return (iterator(_Myfirst));

	mov	ecx, DWORD PTR [ecx+4]
	mov	eax, DWORD PTR ___$ReturnUdt$[esp-4]
	mov	DWORD PTR [eax], ecx

; 668  : 		}

	ret	4
?begin@?$vector@VCustomOption@CvPreGame@@V?$allocator@VCustomOption@CvPreGame@@@std@@@std@@QAE?AV?$_Vector_iterator@VCustomOption@CvPreGame@@V?$allocator@VCustomOption@CvPreGame@@@std@@@2@XZ ENDP ; std::vector<CvPreGame::CustomOption,std::allocator<CvPreGame::CustomOption> >::begin
_TEXT	ENDS
PUBLIC	?end@?$vector@VCustomOption@CvPreGame@@V?$allocator@VCustomOption@CvPreGame@@@std@@@std@@QAE?AV?$_Vector_iterator@VCustomOption@CvPreGame@@V?$allocator@VCustomOption@CvPreGame@@@std@@@2@XZ ; std::vector<CvPreGame::CustomOption,std::allocator<CvPreGame::CustomOption> >::end
; Function compile flags: /Ogtpy
;	COMDAT ?end@?$vector@VCustomOption@CvPreGame@@V?$allocator@VCustomOption@CvPreGame@@@std@@@std@@QAE?AV?$_Vector_iterator@VCustomOption@CvPreGame@@V?$allocator@VCustomOption@CvPreGame@@@std@@@2@XZ
_TEXT	SEGMENT
___$ReturnUdt$ = 8					; size = 4
?end@?$vector@VCustomOption@CvPreGame@@V?$allocator@VCustomOption@CvPreGame@@@std@@@std@@QAE?AV?$_Vector_iterator@VCustomOption@CvPreGame@@V?$allocator@VCustomOption@CvPreGame@@@std@@@2@XZ PROC ; std::vector<CvPreGame::CustomOption,std::allocator<CvPreGame::CustomOption> >::end, COMDAT
; _this$ = ecx

; 677  : 		return (iterator(_Mylast));

	mov	ecx, DWORD PTR [ecx+8]
	mov	eax, DWORD PTR ___$ReturnUdt$[esp-4]
	mov	DWORD PTR [eax], ecx

; 678  : 		}

	ret	4
?end@?$vector@VCustomOption@CvPreGame@@V?$allocator@VCustomOption@CvPreGame@@@std@@@std@@QAE?AV?$_Vector_iterator@VCustomOption@CvPreGame@@V?$allocator@VCustomOption@CvPreGame@@@std@@@2@XZ ENDP ; std::vector<CvPreGame::CustomOption,std::allocator<CvPreGame::CustomOption> >::end
_TEXT	ENDS
PUBLIC	?allocate@?$allocator@VCustomOption@CvPreGame@@@std@@QAEPAVCustomOption@CvPreGame@@I@Z ; std::allocator<CvPreGame::CustomOption>::allocate
; Function compile flags: /Ogtpy
; File c:\program files (x86)\microsoft visual studio 9.0\vc\include\xmemory
;	COMDAT ?allocate@?$allocator@VCustomOption@CvPreGame@@@std@@QAEPAVCustomOption@CvPreGame@@I@Z
_TEXT	SEGMENT
__Count$ = 8						; size = 4
?allocate@?$allocator@VCustomOption@CvPreGame@@@std@@QAEPAVCustomOption@CvPreGame@@I@Z PROC ; std::allocator<CvPreGame::CustomOption>::allocate, COMDAT
; _this$ = ecx

; 145  : 		return (_Allocate(_Count, (pointer)0));

	mov	eax, DWORD PTR __Count$[esp-4]
	push	0
	push	eax
	call	??$_Allocate@VCustomOption@CvPreGame@@@std@@YAPAVCustomOption@CvPreGame@@IPAV12@@Z ; std::_Allocate<CvPreGame::CustomOption>
	add	esp, 8

; 146  : 		}

	ret	4
?allocate@?$allocator@VCustomOption@CvPreGame@@@std@@QAEPAVCustomOption@CvPreGame@@I@Z ENDP ; std::allocator<CvPreGame::CustomOption>::allocate
_TEXT	ENDS
PUBLIC	?_Make_iter@?$vector@VCustomOption@CvPreGame@@V?$allocator@VCustomOption@CvPreGame@@@std@@@std@@QBE?AV?$_Vector_iterator@VCustomOption@CvPreGame@@V?$allocator@VCustomOption@CvPreGame@@@std@@@2@V?$_Vector_const_iterator@VCustomOption@CvPreGame@@V?$allocator@VCustomOption@CvPreGame@@@std@@@2@@Z ; std::vector<CvPreGame::CustomOption,std::allocator<CvPreGame::CustomOption> >::_Make_iter
; Function compile flags: /Ogtpy
; File c:\program files (x86)\microsoft visual studio 9.0\vc\include\vector
;	COMDAT ?_Make_iter@?$vector@VCustomOption@CvPreGame@@V?$allocator@VCustomOption@CvPreGame@@@std@@@std@@QBE?AV?$_Vector_iterator@VCustomOption@CvPreGame@@V?$allocator@VCustomOption@CvPreGame@@@std@@@2@V?$_Vector_const_iterator@VCustomOption@CvPreGame@@V?$allocator@VCustomOption@CvPreGame@@@std@@@2@@Z
_TEXT	SEGMENT
___$ReturnUdt$ = 8					; size = 4
__Where$ = 12						; size = 4
?_Make_iter@?$vector@VCustomOption@CvPreGame@@V?$allocator@VCustomOption@CvPreGame@@@std@@@std@@QBE?AV?$_Vector_iterator@VCustomOption@CvPreGame@@V?$allocator@VCustomOption@CvPreGame@@@std@@@2@V?$_Vector_const_iterator@VCustomOption@CvPreGame@@V?$allocator@VCustomOption@CvPreGame@@@std@@@2@@Z PROC ; std::vector<CvPreGame::CustomOption,std::allocator<CvPreGame::CustomOption> >::_Make_iter, COMDAT
; _this$ = ecx

; 687  : 		return (iterator(_Where._Myptr));

	mov	eax, DWORD PTR ___$ReturnUdt$[esp-4]
	mov	ecx, DWORD PTR __Where$[esp-4]
	mov	DWORD PTR [eax], ecx

; 688  : 		}

	ret	8
?_Make_iter@?$vector@VCustomOption@CvPreGame@@V?$allocator@VCustomOption@CvPreGame@@@std@@@std@@QBE?AV?$_Vector_iterator@VCustomOption@CvPreGame@@V?$allocator@VCustomOption@CvPreGame@@@std@@@2@V?$_Vector_const_iterator@VCustomOption@CvPreGame@@V?$allocator@VCustomOption@CvPreGame@@@std@@@2@@Z ENDP ; std::vector<CvPreGame::CustomOption,std::allocator<CvPreGame::CustomOption> >::_Make_iter
_TEXT	ENDS
PUBLIC	??$?6VCustomOption@CvPreGame@@@@YAAAVFDataStream@@AAV0@ABV?$vector@VCustomOption@CvPreGame@@V?$allocator@VCustomOption@CvPreGame@@@std@@@std@@@Z ; operator<<<CvPreGame::CustomOption>
; Function compile flags: /Ogtpy
; File c:\users\enormousapplepie\documents\github\lekmod\lekmod_dll\fireplace\include\fireworks\fstlcontainerserialization.h
;	COMDAT ??$?6VCustomOption@CvPreGame@@@@YAAAVFDataStream@@AAV0@ABV?$vector@VCustomOption@CvPreGame@@V?$allocator@VCustomOption@CvPreGame@@@std@@@std@@@Z
_TEXT	SEGMENT
_saveTo$ = 8						; size = 4
$T221977 = 12						; size = 4
_readFrom$ = 12						; size = 4
??$?6VCustomOption@CvPreGame@@@@YAAAVFDataStream@@AAV0@ABV?$vector@VCustomOption@CvPreGame@@V?$allocator@VCustomOption@CvPreGame@@@std@@@std@@@Z PROC ; operator<<<CvPreGame::CustomOption>, COMDAT

; 198  : {

	push	ebx

; 199  : 	std::for_each(readFrom.begin(), readFrom.end(), SerializeFromSequenceContainer<const ElementType, const std::vector<ElementType> >(saveTo, readFrom));

	mov	ebx, DWORD PTR _saveTo$[esp]
	push	esi
	mov	esi, DWORD PTR _readFrom$[esp+4]
	mov	ecx, DWORD PTR [esi+8]
	sub	ecx, DWORD PTR [esi+4]
	mov	eax, 2021161081				; 78787879H
	imul	ecx
	sar	edx, 5
	mov	eax, edx
	push	edi
	shr	eax, 31					; 0000001fH
	lea	ecx, DWORD PTR $T221977[esp+8]
	add	eax, edx
	push	ecx
	mov	ecx, ebx
	mov	DWORD PTR $T221977[esp+12], eax
	call	?Write@FDataStream@@IAEXABI@Z		; FDataStream::Write
	mov	edi, DWORD PTR [esi+8]
	mov	esi, DWORD PTR [esi+4]
	cmp	esi, edi
	je	SHORT $LN34@operator@9
	npad	4
$LL22@operator@9:
	push	esi
	push	ebx
	call	??6CvPreGame@@YAAAVFDataStream@@AAV1@ABVCustomOption@0@@Z ; CvPreGame::operator<<
	add	esi, 68					; 00000044H
	add	esp, 8
	cmp	esi, edi
	jne	SHORT $LL22@operator@9
$LN34@operator@9:
	pop	edi
	pop	esi

; 200  : 	return saveTo;

	mov	eax, ebx
	pop	ebx

; 201  : }

	ret	0
??$?6VCustomOption@CvPreGame@@@@YAAAVFDataStream@@AAV0@ABV?$vector@VCustomOption@CvPreGame@@V?$allocator@VCustomOption@CvPreGame@@@std@@@std@@@Z ENDP ; operator<<<CvPreGame::CustomOption>
_TEXT	ENDS
PUBLIC	??$_Ucopy@PAI@?$vector@IV?$allocator@I@std@@@std@@IAEPAIPAI00@Z ; std::vector<unsigned int,std::allocator<unsigned int> >::_Ucopy<unsigned int *>
; Function compile flags: /Ogtpy
; File c:\program files (x86)\microsoft visual studio 9.0\vc\include\vector
;	COMDAT ??$_Ucopy@PAI@?$vector@IV?$allocator@I@std@@@std@@IAEPAIPAI00@Z
_TEXT	SEGMENT
__First$ = 8						; size = 4
__Last$ = 12						; size = 4
__Ptr$ = 16						; size = 4
??$_Ucopy@PAI@?$vector@IV?$allocator@I@std@@@std@@IAEPAIPAI00@Z PROC ; std::vector<unsigned int,std::allocator<unsigned int> >::_Ucopy<unsigned int *>, COMDAT
; _this$ = ecx

; 1139 : 		{	// copy initializing [_First, _Last), using allocator
; 1140 : 		return (_STDEXT unchecked_uninitialized_copy(_First, _Last,
; 1141 : 			_Ptr, this->_Alval));

	mov	eax, DWORD PTR __Last$[esp-4]
	mov	edx, DWORD PTR __First$[esp-4]
	sub	eax, edx
	push	esi
	sar	eax, 2
	push	edi
	mov	edi, DWORD PTR __Ptr$[esp+4]
	lea	ecx, DWORD PTR [eax*4]
	lea	esi, DWORD PTR [ecx+edi]
	test	eax, eax
	jbe	SHORT $LN10@Ucopy
	push	ecx
	push	edx
	push	ecx
	push	edi
	call	DWORD PTR __imp__memmove_s
	add	esp, 16					; 00000010H
$LN10@Ucopy:
	pop	edi
	mov	eax, esi
	pop	esi

; 1142 : 		}

	ret	12					; 0000000cH
??$_Ucopy@PAI@?$vector@IV?$allocator@I@std@@@std@@IAEPAIPAI00@Z ENDP ; std::vector<unsigned int,std::allocator<unsigned int> >::_Ucopy<unsigned int *>
_TEXT	ENDS
PUBLIC	??$_Destroy_range@V?$allocator@VCustomOption@CvPreGame@@@std@@@std@@YAXPAVCustomOption@CvPreGame@@0AAV?$allocator@VCustomOption@CvPreGame@@@0@U_Nonscalar_ptr_iterator_tag@0@@Z ; std::_Destroy_range<std::allocator<CvPreGame::CustomOption> >
; Function compile flags: /Ogtpy
; File c:\program files (x86)\microsoft visual studio 9.0\vc\include\xmemory
;	COMDAT ??$_Destroy_range@V?$allocator@VCustomOption@CvPreGame@@@std@@@std@@YAXPAVCustomOption@CvPreGame@@0AAV?$allocator@VCustomOption@CvPreGame@@@0@U_Nonscalar_ptr_iterator_tag@0@@Z
_TEXT	SEGMENT
__First$ = 8						; size = 4
__Last$ = 12						; size = 4
__Al$ = 16						; size = 4
___formal$ = 20						; size = 1
??$_Destroy_range@V?$allocator@VCustomOption@CvPreGame@@@std@@@std@@YAXPAVCustomOption@CvPreGame@@0AAV?$allocator@VCustomOption@CvPreGame@@@0@U_Nonscalar_ptr_iterator_tag@0@@Z PROC ; std::_Destroy_range<std::allocator<CvPreGame::CustomOption> >, COMDAT

; 233  : 	for (; _First != _Last; ++_First)
; 234  : 		_Al.destroy(_First);
; 235  : 	}

	ret	0
??$_Destroy_range@V?$allocator@VCustomOption@CvPreGame@@@std@@@std@@YAXPAVCustomOption@CvPreGame@@0AAV?$allocator@VCustomOption@CvPreGame@@@0@U_Nonscalar_ptr_iterator_tag@0@@Z ENDP ; std::_Destroy_range<std::allocator<CvPreGame::CustomOption> >
_TEXT	ENDS
PUBLIC	??H?$_Vector_iterator@VCustomOption@CvPreGame@@V?$allocator@VCustomOption@CvPreGame@@@std@@@std@@QBE?AV01@H@Z ; std::_Vector_iterator<CvPreGame::CustomOption,std::allocator<CvPreGame::CustomOption> >::operator+
; Function compile flags: /Ogtpy
; File c:\program files (x86)\microsoft visual studio 9.0\vc\include\vector
;	COMDAT ??H?$_Vector_iterator@VCustomOption@CvPreGame@@V?$allocator@VCustomOption@CvPreGame@@@std@@@std@@QBE?AV01@H@Z
_TEXT	SEGMENT
___$ReturnUdt$ = 8					; size = 4
__Off$ = 12						; size = 4
??H?$_Vector_iterator@VCustomOption@CvPreGame@@V?$allocator@VCustomOption@CvPreGame@@@std@@@std@@QBE?AV01@H@Z PROC ; std::_Vector_iterator<CvPreGame::CustomOption,std::allocator<CvPreGame::CustomOption> >::operator+, COMDAT
; _this$ = ecx

; 381  : 		_Myt _Tmp = *this;
; 382  : 		return (_Tmp += _Off);

	mov	eax, DWORD PTR __Off$[esp-4]
	mov	edx, eax
	shl	edx, 4
	add	edx, eax
	mov	eax, DWORD PTR [ecx]
	lea	ecx, DWORD PTR [eax+edx*4]
	mov	eax, DWORD PTR ___$ReturnUdt$[esp-4]
	mov	DWORD PTR [eax], ecx

; 383  : 		}

	ret	8
??H?$_Vector_iterator@VCustomOption@CvPreGame@@V?$allocator@VCustomOption@CvPreGame@@@std@@@std@@QBE?AV01@H@Z ENDP ; std::_Vector_iterator<CvPreGame::CustomOption,std::allocator<CvPreGame::CustomOption> >::operator+
_TEXT	ENDS
PUBLIC	??$_Uninit_copy@PAVCustomOption@CvPreGame@@PAV12@V?$allocator@VCustomOption@CvPreGame@@@std@@@std@@YAPAVCustomOption@CvPreGame@@PAV12@00AAV?$allocator@VCustomOption@CvPreGame@@@0@U_Nonscalar_ptr_iterator_tag@0@U_Range_checked_iterator_tag@0@@Z ; std::_Uninit_copy<CvPreGame::CustomOption *,CvPreGame::CustomOption *,std::allocator<CvPreGame::CustomOption> >
;	COMDAT xdata$x
; File c:\program files (x86)\microsoft visual studio 9.0\vc\include\new
xdata$x	SEGMENT
__catchsym$??$_Uninit_copy@PAVCustomOption@CvPreGame@@PAV12@V?$allocator@VCustomOption@CvPreGame@@@std@@@std@@YAPAVCustomOption@CvPreGame@@PAV12@00AAV?$allocator@VCustomOption@CvPreGame@@@0@U_Nonscalar_ptr_iterator_tag@0@U_Range_checked_iterator_tag@0@@Z$3 DD 040H
	DD	00H
	DD	00H
	DD	FLAT:__catch$??$_Uninit_copy@PAVCustomOption@CvPreGame@@PAV12@V?$allocator@VCustomOption@CvPreGame@@@std@@@std@@YAPAVCustomOption@CvPreGame@@PAV12@00AAV?$allocator@VCustomOption@CvPreGame@@@0@U_Nonscalar_ptr_iterator_tag@0@U_Range_checked_iterator_tag@0@@Z$0
__tryblocktable$??$_Uninit_copy@PAVCustomOption@CvPreGame@@PAV12@V?$allocator@VCustomOption@CvPreGame@@@std@@@std@@YAPAVCustomOption@CvPreGame@@PAV12@00AAV?$allocator@VCustomOption@CvPreGame@@@0@U_Nonscalar_ptr_iterator_tag@0@U_Range_checked_iterator_tag@0@@Z DD 00H
	DD	01H
	DD	02H
	DD	01H
	DD	FLAT:__catchsym$??$_Uninit_copy@PAVCustomOption@CvPreGame@@PAV12@V?$allocator@VCustomOption@CvPreGame@@@std@@@std@@YAPAVCustomOption@CvPreGame@@PAV12@00AAV?$allocator@VCustomOption@CvPreGame@@@0@U_Nonscalar_ptr_iterator_tag@0@U_Range_checked_iterator_tag@0@@Z$3
__unwindtable$??$_Uninit_copy@PAVCustomOption@CvPreGame@@PAV12@V?$allocator@VCustomOption@CvPreGame@@@std@@@std@@YAPAVCustomOption@CvPreGame@@PAV12@00AAV?$allocator@VCustomOption@CvPreGame@@@0@U_Nonscalar_ptr_iterator_tag@0@U_Range_checked_iterator_tag@0@@Z DD 0ffffffffH
	DD	00H
	DD	00H
	DD	FLAT:__unwindfunclet$??$_Uninit_copy@PAVCustomOption@CvPreGame@@PAV12@V?$allocator@VCustomOption@CvPreGame@@@std@@@std@@YAPAVCustomOption@CvPreGame@@PAV12@00AAV?$allocator@VCustomOption@CvPreGame@@@0@U_Nonscalar_ptr_iterator_tag@0@U_Range_checked_iterator_tag@0@@Z$2
	DD	0ffffffffH
	DD	00H
__ehfuncinfo$??$_Uninit_copy@PAVCustomOption@CvPreGame@@PAV12@V?$allocator@VCustomOption@CvPreGame@@@std@@@std@@YAPAVCustomOption@CvPreGame@@PAV12@00AAV?$allocator@VCustomOption@CvPreGame@@@0@U_Nonscalar_ptr_iterator_tag@0@U_Range_checked_iterator_tag@0@@Z DD 019930522H
	DD	03H
	DD	FLAT:__unwindtable$??$_Uninit_copy@PAVCustomOption@CvPreGame@@PAV12@V?$allocator@VCustomOption@CvPreGame@@@std@@@std@@YAPAVCustomOption@CvPreGame@@PAV12@00AAV?$allocator@VCustomOption@CvPreGame@@@0@U_Nonscalar_ptr_iterator_tag@0@U_Range_checked_iterator_tag@0@@Z
	DD	01H
	DD	FLAT:__tryblocktable$??$_Uninit_copy@PAVCustomOption@CvPreGame@@PAV12@V?$allocator@VCustomOption@CvPreGame@@@std@@@std@@YAPAVCustomOption@CvPreGame@@PAV12@00AAV?$allocator@VCustomOption@CvPreGame@@@0@U_Nonscalar_ptr_iterator_tag@0@U_Range_checked_iterator_tag@0@@Z
	DD	2 DUP(00H)
	DD	00H
	DD	01H
; Function compile flags: /Ogtpy
; File c:\program files (x86)\microsoft visual studio 9.0\vc\include\memory
xdata$x	ENDS
;	COMDAT ??$_Uninit_copy@PAVCustomOption@CvPreGame@@PAV12@V?$allocator@VCustomOption@CvPreGame@@@std@@@std@@YAPAVCustomOption@CvPreGame@@PAV12@00AAV?$allocator@VCustomOption@CvPreGame@@@0@U_Nonscalar_ptr_iterator_tag@0@U_Range_checked_iterator_tag@0@@Z
_TEXT	SEGMENT
__$EHRec$ = -16						; size = 16
$T222123 = 8						; size = 4
__First$ = 8						; size = 4
__Last$ = 12						; size = 4
__Vptr$222120 = 16					; size = 4
__Dest$ = 16						; size = 4
__Al$ = 20						; size = 4
___formal$ = 24						; size = 1
___formal$ = 28						; size = 1
??$_Uninit_copy@PAVCustomOption@CvPreGame@@PAV12@V?$allocator@VCustomOption@CvPreGame@@@std@@@std@@YAPAVCustomOption@CvPreGame@@PAV12@00AAV?$allocator@VCustomOption@CvPreGame@@@0@U_Nonscalar_ptr_iterator_tag@0@U_Range_checked_iterator_tag@0@@Z PROC ; std::_Uninit_copy<CvPreGame::CustomOption *,CvPreGame::CustomOption *,std::allocator<CvPreGame::CustomOption> >, COMDAT

; 124  : 	{	// copy [_First, _Last) to raw _Dest, using _Al, arbitrary type

	push	ebp
	mov	ebp, esp
	push	-1
	push	__ehhandler$??$_Uninit_copy@PAVCustomOption@CvPreGame@@PAV12@V?$allocator@VCustomOption@CvPreGame@@@std@@@std@@YAPAVCustomOption@CvPreGame@@PAV12@00AAV?$allocator@VCustomOption@CvPreGame@@@0@U_Nonscalar_ptr_iterator_tag@0@U_Range_checked_iterator_tag@0@@Z
	mov	eax, DWORD PTR fs:0
	push	eax
	mov	DWORD PTR fs:0, esp
	push	ecx
	push	ebx
	push	esi

; 125  : 	_DEBUG_RANGE(_First, _Last);
; 126  : 	_DEBUG_POINTER(_Dest);
; 127  : 	_FwdIt _Next = _Dest;

	mov	esi, DWORD PTR __Dest$[ebp]
	push	edi

; 128  : 
; 129  : 	_TRY_BEGIN

	mov	edi, DWORD PTR __First$[ebp]
	xor	ebx, ebx
	mov	DWORD PTR __$EHRec$[ebp], esp
	mov	DWORD PTR __$EHRec$[ebp+12], ebx
	npad	6
$LL6@Uninit_cop@2:

; 130  : 	for (; _First != _Last; ++_Dest, ++_First)

	cmp	edi, DWORD PTR __Last$[ebp]
	je	SHORT $LN4@Uninit_cop@2

; 131  : 		_Al.construct(_Dest, *_First);

	mov	DWORD PTR __Vptr$222120[ebp], esi
	mov	DWORD PTR $T222123[ebp], esi
	mov	BYTE PTR __$EHRec$[ebp+12], 1
	cmp	esi, ebx
	je	SHORT $LN18@Uninit_cop@2
	push	edi
	mov	ecx, esi
	call	??0CustomOption@CvPreGame@@QAE@ABV01@@Z	; CvPreGame::CustomOption::CustomOption
$LN18@Uninit_cop@2:
	add	esi, 68					; 00000044H
	mov	BYTE PTR __$EHRec$[ebp+12], bl
	add	edi, 68					; 00000044H
	jmp	SHORT $LL6@Uninit_cop@2
__catch$??$_Uninit_copy@PAVCustomOption@CvPreGame@@PAV12@V?$allocator@VCustomOption@CvPreGame@@@std@@@std@@YAPAVCustomOption@CvPreGame@@PAV12@00AAV?$allocator@VCustomOption@CvPreGame@@@0@U_Nonscalar_ptr_iterator_tag@0@U_Range_checked_iterator_tag@0@@Z$0:

; 132  : 	_CATCH_ALL
; 133  : 	for (; _Next != _Dest; ++_Next)
; 134  : 		_Al.destroy(_Next);
; 135  : 	_RERAISE;

	xor	ebx, ebx
	push	ebx
	push	ebx
	call	__CxxThrowException@8
$LN29@Uninit_cop@2:
$LN4@Uninit_cop@2:

; 136  : 	_CATCH_END
; 137  : 	return (_Dest);
; 138  : 	}

	mov	ecx, DWORD PTR __$EHRec$[ebp+4]
	pop	edi
	mov	eax, esi
	pop	esi
	mov	DWORD PTR fs:0, ecx
	pop	ebx
	mov	esp, ebp
	pop	ebp
	ret	0
$LN28@Uninit_cop@2:
_TEXT	ENDS
;	COMDAT text$x
text$x	SEGMENT
__unwindfunclet$??$_Uninit_copy@PAVCustomOption@CvPreGame@@PAV12@V?$allocator@VCustomOption@CvPreGame@@@std@@@std@@YAPAVCustomOption@CvPreGame@@PAV12@00AAV?$allocator@VCustomOption@CvPreGame@@@0@U_Nonscalar_ptr_iterator_tag@0@U_Range_checked_iterator_tag@0@@Z$2:
	mov	eax, DWORD PTR __Vptr$222120[ebp]
	push	eax
	mov	ecx, DWORD PTR $T222123[ebp]
	push	ecx
	call	??3@YAXPAX0@Z				; operator delete
	add	esp, 8
	ret	0
__ehhandler$??$_Uninit_copy@PAVCustomOption@CvPreGame@@PAV12@V?$allocator@VCustomOption@CvPreGame@@@std@@@std@@YAPAVCustomOption@CvPreGame@@PAV12@00AAV?$allocator@VCustomOption@CvPreGame@@@0@U_Nonscalar_ptr_iterator_tag@0@U_Range_checked_iterator_tag@0@@Z:
	mov	eax, OFFSET __ehfuncinfo$??$_Uninit_copy@PAVCustomOption@CvPreGame@@PAV12@V?$allocator@VCustomOption@CvPreGame@@@std@@@std@@YAPAVCustomOption@CvPreGame@@PAV12@00AAV?$allocator@VCustomOption@CvPreGame@@@0@U_Nonscalar_ptr_iterator_tag@0@U_Range_checked_iterator_tag@0@@Z
	jmp	___CxxFrameHandler3
text$x	ENDS
??$_Uninit_copy@PAVCustomOption@CvPreGame@@PAV12@V?$allocator@VCustomOption@CvPreGame@@@std@@@std@@YAPAVCustomOption@CvPreGame@@PAV12@00AAV?$allocator@VCustomOption@CvPreGame@@@0@U_Nonscalar_ptr_iterator_tag@0@U_Range_checked_iterator_tag@0@@Z ENDP ; std::_Uninit_copy<CvPreGame::CustomOption *,CvPreGame::CustomOption *,std::allocator<CvPreGame::CustomOption> >
PUBLIC	??$unchecked_uninitialized_fill_n@PAVCustomOption@CvPreGame@@IV12@V?$allocator@VCustomOption@CvPreGame@@@std@@@stdext@@YAXPAVCustomOption@CvPreGame@@IABV12@AAV?$allocator@VCustomOption@CvPreGame@@@std@@@Z ; stdext::unchecked_uninitialized_fill_n<CvPreGame::CustomOption *,unsigned int,CvPreGame::CustomOption,std::allocator<CvPreGame::CustomOption> >
; Function compile flags: /Ogtpy
;	COMDAT ??$unchecked_uninitialized_fill_n@PAVCustomOption@CvPreGame@@IV12@V?$allocator@VCustomOption@CvPreGame@@@std@@@stdext@@YAXPAVCustomOption@CvPreGame@@IABV12@AAV?$allocator@VCustomOption@CvPreGame@@@std@@@Z
_TEXT	SEGMENT
$T222145 = -4						; size = 1
__Cat$222149 = -4					; size = 1
__First$ = 8						; size = 4
__Count$ = 12						; size = 4
__Val$ = 16						; size = 4
__Al$ = 20						; size = 4
??$unchecked_uninitialized_fill_n@PAVCustomOption@CvPreGame@@IV12@V?$allocator@VCustomOption@CvPreGame@@@std@@@stdext@@YAXPAVCustomOption@CvPreGame@@IABV12@AAV?$allocator@VCustomOption@CvPreGame@@@std@@@Z PROC ; stdext::unchecked_uninitialized_fill_n<CvPreGame::CustomOption *,unsigned int,CvPreGame::CustomOption,std::allocator<CvPreGame::CustomOption> >, COMDAT

; 940  : 	{	// copy _Count *_Val to raw _First, using _Al

	push	ecx

; 941  : 	_STD _Uninit_fill_n(_First, _Count, _Val, _Al,
; 942  : 		_STD _Ptr_cat(_First, _First), _STD _Range_checked_iterator_tag());

	mov	edx, DWORD PTR __Al$[esp]
	mov	BYTE PTR $T222145[esp+4], 0
	mov	eax, DWORD PTR $T222145[esp+4]
	mov	ecx, DWORD PTR __Cat$222149[esp+4]
	push	eax
	mov	eax, DWORD PTR __Val$[esp+4]
	push	ecx
	mov	ecx, DWORD PTR __Count$[esp+8]
	push	edx
	mov	edx, DWORD PTR __First$[esp+12]
	push	eax
	push	ecx
	push	edx
	call	??$_Uninit_fill_n@PAVCustomOption@CvPreGame@@IV12@V?$allocator@VCustomOption@CvPreGame@@@std@@@std@@YAXPAVCustomOption@CvPreGame@@IABV12@AAV?$allocator@VCustomOption@CvPreGame@@@0@U_Nonscalar_ptr_iterator_tag@0@U_Range_checked_iterator_tag@0@@Z ; std::_Uninit_fill_n<CvPreGame::CustomOption *,unsigned int,CvPreGame::CustomOption,std::allocator<CvPreGame::CustomOption> >

; 943  : 	}

	add	esp, 28					; 0000001cH
	ret	0
??$unchecked_uninitialized_fill_n@PAVCustomOption@CvPreGame@@IV12@V?$allocator@VCustomOption@CvPreGame@@@std@@@stdext@@YAXPAVCustomOption@CvPreGame@@IABV12@AAV?$allocator@VCustomOption@CvPreGame@@@std@@@Z ENDP ; stdext::unchecked_uninitialized_fill_n<CvPreGame::CustomOption *,unsigned int,CvPreGame::CustomOption,std::allocator<CvPreGame::CustomOption> >
_TEXT	ENDS
PUBLIC	??$_Unchecked_move_backward@PAVCustomOption@CvPreGame@@PAV12@@stdext@@YAPAVCustomOption@CvPreGame@@PAV12@00@Z ; stdext::_Unchecked_move_backward<CvPreGame::CustomOption *,CvPreGame::CustomOption *>
; Function compile flags: /Ogtpy
; File c:\program files (x86)\microsoft visual studio 9.0\vc\include\xutility
;	COMDAT ??$_Unchecked_move_backward@PAVCustomOption@CvPreGame@@PAV12@@stdext@@YAPAVCustomOption@CvPreGame@@PAV12@00@Z
_TEXT	SEGMENT
__First$ = 8						; size = 4
__Last$ = 12						; size = 4
__Dest$ = 16						; size = 4
??$_Unchecked_move_backward@PAVCustomOption@CvPreGame@@PAV12@@stdext@@YAPAVCustomOption@CvPreGame@@PAV12@00@Z PROC ; stdext::_Unchecked_move_backward<CvPreGame::CustomOption *,CvPreGame::CustomOption *>, COMDAT

; 3694 : 	{	// move [_First, _Last) backwards to [..., _Dest)

	push	ebx

; 3695 : 		return (_STD _Move_backward_opt(_CHECKED_BASE(_First), _CHECKED_BASE(_Last), _Dest,
; 3696 : 			_STD _Iter_random(_First, _Dest), _STD _Move_cat(_Dest), _STD _Range_checked_iterator_tag()));

	mov	ebx, DWORD PTR __First$[esp]
	push	esi
	mov	esi, DWORD PTR __Last$[esp+4]
	push	edi
	mov	edi, DWORD PTR __Dest$[esp+8]
	cmp	ebx, esi
	je	SHORT $LN17@Unchecked_
$LL12@Unchecked_:
	sub	esi, 68					; 00000044H
	sub	edi, 68					; 00000044H
	push	esi
	mov	ecx, edi
	call	??4CustomOption@CvPreGame@@QAEAAV01@ABV01@@Z ; CvPreGame::CustomOption::operator=
	cmp	esi, ebx
	jne	SHORT $LL12@Unchecked_
$LN17@Unchecked_:
	mov	eax, edi
	pop	edi
	pop	esi
	pop	ebx

; 3697 : 	}

	ret	0
??$_Unchecked_move_backward@PAVCustomOption@CvPreGame@@PAV12@@stdext@@YAPAVCustomOption@CvPreGame@@PAV12@00@Z ENDP ; stdext::_Unchecked_move_backward<CvPreGame::CustomOption *,CvPreGame::CustomOption *>
_TEXT	ENDS
PUBLIC	?begin@?$vector@IV?$allocator@I@std@@@std@@QAE?AV?$_Vector_iterator@IV?$allocator@I@std@@@2@XZ ; std::vector<unsigned int,std::allocator<unsigned int> >::begin
; Function compile flags: /Ogtpy
; File c:\program files (x86)\microsoft visual studio 9.0\vc\include\vector
;	COMDAT ?begin@?$vector@IV?$allocator@I@std@@@std@@QAE?AV?$_Vector_iterator@IV?$allocator@I@std@@@2@XZ
_TEXT	SEGMENT
___$ReturnUdt$ = 8					; size = 4
?begin@?$vector@IV?$allocator@I@std@@@std@@QAE?AV?$_Vector_iterator@IV?$allocator@I@std@@@2@XZ PROC ; std::vector<unsigned int,std::allocator<unsigned int> >::begin, COMDAT
; _this$ = ecx

; 667  : 		return (iterator(_Myfirst));

	mov	ecx, DWORD PTR [ecx+4]
	mov	eax, DWORD PTR ___$ReturnUdt$[esp-4]
	mov	DWORD PTR [eax], ecx

; 668  : 		}

	ret	4
?begin@?$vector@IV?$allocator@I@std@@@std@@QAE?AV?$_Vector_iterator@IV?$allocator@I@std@@@2@XZ ENDP ; std::vector<unsigned int,std::allocator<unsigned int> >::begin
_TEXT	ENDS
PUBLIC	?_Buy@?$vector@IV?$allocator@I@std@@@std@@IAE_NI@Z ; std::vector<unsigned int,std::allocator<unsigned int> >::_Buy
; Function compile flags: /Ogtpy
;	COMDAT ?_Buy@?$vector@IV?$allocator@I@std@@@std@@IAE_NI@Z
_TEXT	SEGMENT
__Capacity$ = 8						; size = 4
?_Buy@?$vector@IV?$allocator@I@std@@@std@@IAE_NI@Z PROC	; std::vector<unsigned int,std::allocator<unsigned int> >::_Buy, COMDAT
; _this$ = ecx

; 1102 : 		{	// allocate array with _Capacity elements

	push	esi

; 1103 : 		_Myfirst = 0, _Mylast = 0, _Myend = 0;

	xor	eax, eax
	push	edi

; 1104 : 		if (_Capacity == 0)

	mov	edi, DWORD PTR __Capacity$[esp+4]
	mov	esi, ecx
	mov	DWORD PTR [esi+4], eax
	mov	DWORD PTR [esi+8], eax
	mov	DWORD PTR [esi+12], eax
	cmp	edi, eax
	jne	SHORT $LN4@Buy
	pop	edi

; 1105 : 			return (false);

	xor	al, al
	pop	esi

; 1115 : 		}

	ret	4
$LN4@Buy:

; 1106 : 		else if (max_size() < _Capacity)

	cmp	edi, 1073741823				; 3fffffffH
	jbe	SHORT $LN2@Buy

; 1107 : 			_Xlen();	// result too long

