; Listing generated by Microsoft (R) Optimizing Compiler Version 15.00.30729.01 

	TITLE	c:\Users\EnormousApplePie\Desktop\Cleanup (v1)\Lekmod Files\Lekmod DLL versions\v30\LEKMOD_DLL\CvGameCoreDLL_Expansion2\CvDllTechInfo.cpp
	.686P
	.XMM
	include listing.inc
	.model	flat

INCLUDELIB MSVCRT
INCLUDELIB OLDNAMES

_DATA	SEGMENT
_CIV5_XP2_DLL_VERSION DD FLAT:$SG217151
_DATA	ENDS
CONST	SEGMENT
$SG217151 DB	'1.0.0', 00H
	ORG $+2
_guidICvUnknown DD 0d89ba82fH
	DW	09fa3H
	DW	04696H
	DB	0b3H
	DB	0f4H
	DB	052H
	DB	0bdH
	DB	0b1H
	DB	01H
	DB	0cfH
	DB	0b2H
_guidICvTechInfo1 DD 0e0b39559H
	DW	0b03dH
	DW	04338H
	DB	0bbH
	DB	0e3H
	DB	024H
	DB	0c0H
	DB	08dH
	DB	0adH
	DB	0d5H
	DB	04eH
CONST	ENDS
PUBLIC	??_7ICvUnknown@@6B@				; ICvUnknown::`vftable'
PUBLIC	??0ICvUnknown@@QAE@XZ				; ICvUnknown::ICvUnknown
PUBLIC	??_R4ICvUnknown@@6B@				; ICvUnknown::`RTTI Complete Object Locator'
PUBLIC	??_R0?AVICvUnknown@@@8				; ICvUnknown `RTTI Type Descriptor'
PUBLIC	??_R3ICvUnknown@@8				; ICvUnknown::`RTTI Class Hierarchy Descriptor'
PUBLIC	??_R2ICvUnknown@@8				; ICvUnknown::`RTTI Base Class Array'
PUBLIC	??_R1A@?0A@EA@ICvUnknown@@8			; ICvUnknown::`RTTI Base Class Descriptor at (0,-1,0,64)'
EXTRN	??_7type_info@@6B@:QWORD			; type_info::`vftable'
EXTRN	__purecall:PROC
;	COMDAT ??_R1A@?0A@EA@ICvUnknown@@8
rdata$r	SEGMENT
??_R1A@?0A@EA@ICvUnknown@@8 DD FLAT:??_R0?AVICvUnknown@@@8 ; ICvUnknown::`RTTI Base Class Descriptor at (0,-1,0,64)'
	DD	00H
	DD	00H
	DD	0ffffffffH
	DD	00H
	DD	040H
	DD	FLAT:??_R3ICvUnknown@@8
rdata$r	ENDS
;	COMDAT ??_R2ICvUnknown@@8
rdata$r	SEGMENT
??_R2ICvUnknown@@8 DD FLAT:??_R1A@?0A@EA@ICvUnknown@@8	; ICvUnknown::`RTTI Base Class Array'
rdata$r	ENDS
;	COMDAT ??_R3ICvUnknown@@8
rdata$r	SEGMENT
??_R3ICvUnknown@@8 DD 00H				; ICvUnknown::`RTTI Class Hierarchy Descriptor'
	DD	00H
	DD	01H
	DD	FLAT:??_R2ICvUnknown@@8
rdata$r	ENDS
;	COMDAT ??_R0?AVICvUnknown@@@8
_DATA	SEGMENT
??_R0?AVICvUnknown@@@8 DD FLAT:??_7type_info@@6B@	; ICvUnknown `RTTI Type Descriptor'
	DD	00H
	DB	'.?AVICvUnknown@@', 00H
_DATA	ENDS
;	COMDAT ??_R4ICvUnknown@@6B@
rdata$r	SEGMENT
??_R4ICvUnknown@@6B@ DD 00H				; ICvUnknown::`RTTI Complete Object Locator'
	DD	00H
	DD	00H
	DD	FLAT:??_R0?AVICvUnknown@@@8
	DD	FLAT:??_R3ICvUnknown@@8
rdata$r	ENDS
;	COMDAT ??_7ICvUnknown@@6B@
CONST	SEGMENT
??_7ICvUnknown@@6B@ DD FLAT:??_R4ICvUnknown@@6B@	; ICvUnknown::`vftable'
	DD	FLAT:__purecall
	DD	FLAT:__purecall
; Function compile flags: /Ogtpy
CONST	ENDS
;	COMDAT ??0ICvUnknown@@QAE@XZ
_TEXT	SEGMENT
??0ICvUnknown@@QAE@XZ PROC				; ICvUnknown::ICvUnknown, COMDAT
; _this$ = ecx
	mov	eax, ecx
	mov	DWORD PTR [eax], OFFSET ??_7ICvUnknown@@6B@
	ret	0
??0ICvUnknown@@QAE@XZ ENDP				; ICvUnknown::ICvUnknown
_TEXT	ENDS
PUBLIC	??_7CvDllTechInfo@@6B@				; CvDllTechInfo::`vftable'
PUBLIC	??1CvDllTechInfo@@QAE@XZ			; CvDllTechInfo::~CvDllTechInfo
PUBLIC	??_R4CvDllTechInfo@@6B@				; CvDllTechInfo::`RTTI Complete Object Locator'
PUBLIC	??_R0?AVCvDllTechInfo@@@8			; CvDllTechInfo `RTTI Type Descriptor'
PUBLIC	??_R3CvDllTechInfo@@8				; CvDllTechInfo::`RTTI Class Hierarchy Descriptor'
PUBLIC	??_R2CvDllTechInfo@@8				; CvDllTechInfo::`RTTI Base Class Array'
PUBLIC	??_R1A@?0A@EA@CvDllTechInfo@@8			; CvDllTechInfo::`RTTI Base Class Descriptor at (0,-1,0,64)'
PUBLIC	??_R1A@?0A@EA@ICvTechInfo1@@8			; ICvTechInfo1::`RTTI Base Class Descriptor at (0,-1,0,64)'
PUBLIC	??_R0?AVICvTechInfo1@@@8			; ICvTechInfo1 `RTTI Type Descriptor'
PUBLIC	??_R3ICvTechInfo1@@8				; ICvTechInfo1::`RTTI Class Hierarchy Descriptor'
PUBLIC	??_R2ICvTechInfo1@@8				; ICvTechInfo1::`RTTI Base Class Array'
PUBLIC	?QueryInterface@CvDllTechInfo@@UAGPAXU_GUID@@@Z	; CvDllTechInfo::QueryInterface
PUBLIC	?Destroy@CvDllTechInfo@@EAGXXZ			; CvDllTechInfo::Destroy
PUBLIC	?GetDescription@CvDllTechInfo@@UBGPBDXZ		; CvDllTechInfo::GetDescription
PUBLIC	?GetType@CvDllTechInfo@@UBGPBDXZ		; CvDllTechInfo::GetType
PUBLIC	?GetText@CvDllTechInfo@@UBGPBDXZ		; CvDllTechInfo::GetText
PUBLIC	?GetEra@CvDllTechInfo@@UBGHXZ			; CvDllTechInfo::GetEra
PUBLIC	?GetSound@CvDllTechInfo@@UBGPBDXZ		; CvDllTechInfo::GetSound
PUBLIC	?GetSoundMP@CvDllTechInfo@@UBGPBDXZ		; CvDllTechInfo::GetSoundMP
;	COMDAT ??_R2ICvTechInfo1@@8
; File c:\users\enormousapplepie\desktop\cleanup (v1)\lekmod files\lekmod dll versions\v30\lekmod_dll\cvgamecoredll_expansion2\cvdlltechinfo.cpp
rdata$r	SEGMENT
??_R2ICvTechInfo1@@8 DD FLAT:??_R1A@?0A@EA@ICvTechInfo1@@8 ; ICvTechInfo1::`RTTI Base Class Array'
	DD	FLAT:??_R1A@?0A@EA@ICvUnknown@@8
rdata$r	ENDS
;	COMDAT ??_R3ICvTechInfo1@@8
rdata$r	SEGMENT
??_R3ICvTechInfo1@@8 DD 00H				; ICvTechInfo1::`RTTI Class Hierarchy Descriptor'
	DD	00H
	DD	02H
	DD	FLAT:??_R2ICvTechInfo1@@8
rdata$r	ENDS
;	COMDAT ??_R0?AVICvTechInfo1@@@8
_DATA	SEGMENT
??_R0?AVICvTechInfo1@@@8 DD FLAT:??_7type_info@@6B@	; ICvTechInfo1 `RTTI Type Descriptor'
	DD	00H
	DB	'.?AVICvTechInfo1@@', 00H
_DATA	ENDS
;	COMDAT ??_R1A@?0A@EA@ICvTechInfo1@@8
rdata$r	SEGMENT
??_R1A@?0A@EA@ICvTechInfo1@@8 DD FLAT:??_R0?AVICvTechInfo1@@@8 ; ICvTechInfo1::`RTTI Base Class Descriptor at (0,-1,0,64)'
	DD	01H
	DD	00H
	DD	0ffffffffH
	DD	00H
	DD	040H
	DD	FLAT:??_R3ICvTechInfo1@@8
rdata$r	ENDS
;	COMDAT ??_R1A@?0A@EA@CvDllTechInfo@@8
rdata$r	SEGMENT
??_R1A@?0A@EA@CvDllTechInfo@@8 DD FLAT:??_R0?AVCvDllTechInfo@@@8 ; CvDllTechInfo::`RTTI Base Class Descriptor at (0,-1,0,64)'
	DD	02H
	DD	00H
	DD	0ffffffffH
	DD	00H
	DD	040H
	DD	FLAT:??_R3CvDllTechInfo@@8
rdata$r	ENDS
;	COMDAT ??_R2CvDllTechInfo@@8
rdata$r	SEGMENT
??_R2CvDllTechInfo@@8 DD FLAT:??_R1A@?0A@EA@CvDllTechInfo@@8 ; CvDllTechInfo::`RTTI Base Class Array'
	DD	FLAT:??_R1A@?0A@EA@ICvTechInfo1@@8
	DD	FLAT:??_R1A@?0A@EA@ICvUnknown@@8
rdata$r	ENDS
;	COMDAT ??_R3CvDllTechInfo@@8
rdata$r	SEGMENT
??_R3CvDllTechInfo@@8 DD 00H				; CvDllTechInfo::`RTTI Class Hierarchy Descriptor'
	DD	00H
	DD	03H
	DD	FLAT:??_R2CvDllTechInfo@@8
rdata$r	ENDS
;	COMDAT ??_R0?AVCvDllTechInfo@@@8
_DATA	SEGMENT
??_R0?AVCvDllTechInfo@@@8 DD FLAT:??_7type_info@@6B@	; CvDllTechInfo `RTTI Type Descriptor'
	DD	00H
	DB	'.?AVCvDllTechInfo@@', 00H
_DATA	ENDS
;	COMDAT ??_R4CvDllTechInfo@@6B@
rdata$r	SEGMENT
??_R4CvDllTechInfo@@6B@ DD 00H				; CvDllTechInfo::`RTTI Complete Object Locator'
	DD	00H
	DD	00H
	DD	FLAT:??_R0?AVCvDllTechInfo@@@8
	DD	FLAT:??_R3CvDllTechInfo@@8
rdata$r	ENDS
;	COMDAT ??_7CvDllTechInfo@@6B@
CONST	SEGMENT
??_7CvDllTechInfo@@6B@ DD FLAT:??_R4CvDllTechInfo@@6B@	; CvDllTechInfo::`vftable'
	DD	FLAT:?QueryInterface@CvDllTechInfo@@UAGPAXU_GUID@@@Z
	DD	FLAT:?Destroy@CvDllTechInfo@@EAGXXZ
	DD	FLAT:?GetDescription@CvDllTechInfo@@UBGPBDXZ
	DD	FLAT:?GetType@CvDllTechInfo@@UBGPBDXZ
	DD	FLAT:?GetText@CvDllTechInfo@@UBGPBDXZ
	DD	FLAT:?GetEra@CvDllTechInfo@@UBGHXZ
	DD	FLAT:?GetSound@CvDllTechInfo@@UBGPBDXZ
	DD	FLAT:?GetSoundMP@CvDllTechInfo@@UBGPBDXZ
; Function compile flags: /Ogtpy
CONST	ENDS
;	COMDAT ??1CvDllTechInfo@@QAE@XZ
_TEXT	SEGMENT
??1CvDllTechInfo@@QAE@XZ PROC				; CvDllTechInfo::~CvDllTechInfo, COMDAT
; _this$ = ecx

; 23   : {

	mov	DWORD PTR [ecx], OFFSET ??_7CvDllTechInfo@@6B@

; 24   : }

	ret	0
??1CvDllTechInfo@@QAE@XZ ENDP				; CvDllTechInfo::~CvDllTechInfo
_TEXT	ENDS
PUBLIC	?IncrementReference@CvDllTechInfo@@QAEIXZ	; CvDllTechInfo::IncrementReference
; Function compile flags: /Ogtpy
;	COMDAT ?IncrementReference@CvDllTechInfo@@QAEIXZ
_TEXT	SEGMENT
?IncrementReference@CvDllTechInfo@@QAEIXZ PROC		; CvDllTechInfo::IncrementReference, COMDAT
; _this$ = ecx

; 40   : 	++m_uiRefCount;

	inc	DWORD PTR [ecx+4]

; 41   : 	return m_uiRefCount;

	mov	eax, DWORD PTR [ecx+4]

; 42   : }

	ret	0
?IncrementReference@CvDllTechInfo@@QAEIXZ ENDP		; CvDllTechInfo::IncrementReference
_TEXT	ENDS
PUBLIC	?GetReferenceCount@CvDllTechInfo@@QAEIXZ	; CvDllTechInfo::GetReferenceCount
; Function compile flags: /Ogtpy
;	COMDAT ?GetReferenceCount@CvDllTechInfo@@QAEIXZ
_TEXT	SEGMENT
?GetReferenceCount@CvDllTechInfo@@QAEIXZ PROC		; CvDllTechInfo::GetReferenceCount, COMDAT
; _this$ = ecx

; 60   : 	return m_uiRefCount;

	mov	eax, DWORD PTR [ecx+4]

; 61   : }

	ret	0
?GetReferenceCount@CvDllTechInfo@@QAEIXZ ENDP		; CvDllTechInfo::GetReferenceCount
_TEXT	ENDS
PUBLIC	??3CvDllTechInfo@@SAXPAX@Z			; CvDllTechInfo::operator delete
EXTRN	?Free@CvDllGameContext@@SAXPAX@Z:PROC		; CvDllGameContext::Free
; Function compile flags: /Ogtpy
;	COMDAT ??3CvDllTechInfo@@SAXPAX@Z
_TEXT	SEGMENT
_p$ = 8							; size = 4
??3CvDllTechInfo@@SAXPAX@Z PROC				; CvDllTechInfo::operator delete, COMDAT

; 70   : 	CvDllGameContext::Free(p);

	jmp	?Free@CvDllGameContext@@SAXPAX@Z	; CvDllGameContext::Free
??3CvDllTechInfo@@SAXPAX@Z ENDP				; CvDllTechInfo::operator delete
_TEXT	ENDS
PUBLIC	??2CvDllTechInfo@@SAPAXI@Z			; CvDllTechInfo::operator new
EXTRN	?Allocate@CvDllGameContext@@SAPAXI@Z:PROC	; CvDllGameContext::Allocate
; Function compile flags: /Ogtpy
;	COMDAT ??2CvDllTechInfo@@SAPAXI@Z
_TEXT	SEGMENT
_bytes$ = 8						; size = 4
??2CvDllTechInfo@@SAPAXI@Z PROC				; CvDllTechInfo::operator new, COMDAT

; 75   : 	return CvDllGameContext::Allocate(bytes);

	jmp	?Allocate@CvDllGameContext@@SAPAXI@Z	; CvDllGameContext::Allocate
??2CvDllTechInfo@@SAPAXI@Z ENDP				; CvDllTechInfo::operator new
_TEXT	ENDS
EXTRN	?GetEra@CvTechEntry@@QBEHXZ:PROC		; CvTechEntry::GetEra
; Function compile flags: /Ogtpy
;	COMDAT ?GetEra@CvDllTechInfo@@UBGHXZ
_TEXT	SEGMENT
_this$ = 8						; size = 4
?GetEra@CvDllTechInfo@@UBGHXZ PROC			; CvDllTechInfo::GetEra, COMDAT

; 85   : 	return m_pTechInfo->GetEra();

	mov	eax, DWORD PTR _this$[esp-4]
	mov	ecx, DWORD PTR [eax+8]
	call	?GetEra@CvTechEntry@@QBEHXZ		; CvTechEntry::GetEra

; 86   : }

	ret	4
?GetEra@CvDllTechInfo@@UBGHXZ ENDP			; CvDllTechInfo::GetEra
_TEXT	ENDS
EXTRN	?GetSound@CvTechEntry@@QBEPBDXZ:PROC		; CvTechEntry::GetSound
; Function compile flags: /Ogtpy
;	COMDAT ?GetSound@CvDllTechInfo@@UBGPBDXZ
_TEXT	SEGMENT
_this$ = 8						; size = 4
?GetSound@CvDllTechInfo@@UBGPBDXZ PROC			; CvDllTechInfo::GetSound, COMDAT

; 90   : 	return m_pTechInfo->GetSound();

	mov	eax, DWORD PTR _this$[esp-4]
	mov	ecx, DWORD PTR [eax+8]
	call	?GetSound@CvTechEntry@@QBEPBDXZ		; CvTechEntry::GetSound

; 91   : }

	ret	4
?GetSound@CvDllTechInfo@@UBGPBDXZ ENDP			; CvDllTechInfo::GetSound
_TEXT	ENDS
EXTRN	?GetSoundMP@CvTechEntry@@QBEPBDXZ:PROC		; CvTechEntry::GetSoundMP
; Function compile flags: /Ogtpy
;	COMDAT ?GetSoundMP@CvDllTechInfo@@UBGPBDXZ
_TEXT	SEGMENT
_this$ = 8						; size = 4
?GetSoundMP@CvDllTechInfo@@UBGPBDXZ PROC		; CvDllTechInfo::GetSoundMP, COMDAT

; 95   : 	return m_pTechInfo->GetSoundMP();

	mov	eax, DWORD PTR _this$[esp-4]
	mov	ecx, DWORD PTR [eax+8]
	call	?GetSoundMP@CvTechEntry@@QBEPBDXZ	; CvTechEntry::GetSoundMP

; 96   : }

	ret	4
?GetSoundMP@CvDllTechInfo@@UBGPBDXZ ENDP		; CvDllTechInfo::GetSoundMP
_TEXT	ENDS
EXTRN	?GetText@CvBaseInfo@@QBEPBDXZ:PROC		; CvBaseInfo::GetText
; Function compile flags: /Ogtpy
;	COMDAT ?GetText@CvDllTechInfo@@UBGPBDXZ
_TEXT	SEGMENT
_this$ = 8						; size = 4
?GetText@CvDllTechInfo@@UBGPBDXZ PROC			; CvDllTechInfo::GetText, COMDAT

; 105  : 	return m_pTechInfo->GetText();

	mov	eax, DWORD PTR _this$[esp-4]
	mov	ecx, DWORD PTR [eax+8]
	call	?GetText@CvBaseInfo@@QBEPBDXZ		; CvBaseInfo::GetText

; 106  : }

	ret	4
?GetText@CvDllTechInfo@@UBGPBDXZ ENDP			; CvDllTechInfo::GetText
_TEXT	ENDS
PUBLIC	_IsEqualGUID
; Function compile flags: /Ogtpy
; File c:\program files\microsoft sdks\windows\v6.0a\include\guiddef.h
;	COMDAT _IsEqualGUID
_TEXT	SEGMENT
_rguid1$ = 8						; size = 4
_rguid2$ = 12						; size = 4
_IsEqualGUID PROC					; COMDAT

; 161  :     return !memcmp(&rguid1, &rguid2, sizeof(GUID));

	mov	ecx, DWORD PTR _rguid2$[esp-4]
	mov	edx, DWORD PTR _rguid1$[esp-4]
	mov	eax, 16					; 00000010H
	push	esi
	npad	2
$LL4@IsEqualGUI:
	mov	esi, DWORD PTR [edx]
	cmp	esi, DWORD PTR [ecx]
	jne	SHORT $LN5@IsEqualGUI
	sub	eax, 4
	add	ecx, 4
	add	edx, 4
	cmp	eax, 4
	jae	SHORT $LL4@IsEqualGUI
	xor	eax, eax
	xor	edx, edx
	test	eax, eax
	sete	dl
	pop	esi
	mov	eax, edx

; 162  : }

	ret	0
$LN5@IsEqualGUI:

; 161  :     return !memcmp(&rguid1, &rguid2, sizeof(GUID));

	movzx	eax, BYTE PTR [edx]
	movzx	esi, BYTE PTR [ecx]
	sub	eax, esi
	jne	SHORT $LN7@IsEqualGUI
	movzx	eax, BYTE PTR [edx+1]
	movzx	esi, BYTE PTR [ecx+1]
	sub	eax, esi
	jne	SHORT $LN7@IsEqualGUI
	movzx	eax, BYTE PTR [edx+2]
	movzx	esi, BYTE PTR [ecx+2]
	sub	eax, esi
	jne	SHORT $LN7@IsEqualGUI
	movzx	eax, BYTE PTR [edx+3]
	movzx	ecx, BYTE PTR [ecx+3]
	sub	eax, ecx
$LN7@IsEqualGUI:
	sar	eax, 31					; 0000001fH
	or	eax, 1
	xor	edx, edx
	test	eax, eax
	sete	dl
	pop	esi
	mov	eax, edx

; 162  : }

	ret	0
_IsEqualGUID ENDP
_TEXT	ENDS
PUBLIC	_==
; Function compile flags: /Ogtpy
;	COMDAT _==
_TEXT	SEGMENT
_guidOne$ = 8						; size = 4
_guidOther$ = 12					; size = 4
_==	PROC						; COMDAT

; 194  :     return IsEqualGUID(guidOne,guidOther);

	jmp	_IsEqualGUID
_==	ENDP
_TEXT	ENDS
PUBLIC	?GetInterfaceId@ICvUnknown@@SG?AU_GUID@@XZ	; ICvUnknown::GetInterfaceId
; Function compile flags: /Ogtpy
; File c:\users\enormousapplepie\desktop\cleanup (v1)\lekmod files\lekmod dll versions\v30\lekmod_dll\cvgamecoredllutil\include\cvdllinterfaces.h
;	COMDAT ?GetInterfaceId@ICvUnknown@@SG?AU_GUID@@XZ
_TEXT	SEGMENT
$T218502 = 8						; size = 4
?GetInterfaceId@ICvUnknown@@SG?AU_GUID@@XZ PROC		; ICvUnknown::GetInterfaceId, COMDAT

; 306  : 	static GUID DLLCALL GetInterfaceId(){ return guidICvUnknown; }

	mov	eax, DWORD PTR $T218502[esp-4]
	mov	ecx, DWORD PTR _guidICvUnknown
	mov	edx, DWORD PTR _guidICvUnknown+4
	mov	DWORD PTR [eax], ecx
	mov	ecx, DWORD PTR _guidICvUnknown+8
	mov	DWORD PTR [eax+4], edx
	mov	edx, DWORD PTR _guidICvUnknown+12
	mov	DWORD PTR [eax+8], ecx
	mov	DWORD PTR [eax+12], edx
	ret	4
?GetInterfaceId@ICvUnknown@@SG?AU_GUID@@XZ ENDP		; ICvUnknown::GetInterfaceId
_TEXT	ENDS
PUBLIC	?GetInterfaceId@ICvTechInfo1@@SG?AU_GUID@@XZ	; ICvTechInfo1::GetInterfaceId
; Function compile flags: /Ogtpy
;	COMDAT ?GetInterfaceId@ICvTechInfo1@@SG?AU_GUID@@XZ
_TEXT	SEGMENT
$T218506 = 8						; size = 4
?GetInterfaceId@ICvTechInfo1@@SG?AU_GUID@@XZ PROC	; ICvTechInfo1::GetInterfaceId, COMDAT

; 1695 : 	static GUID DLLCALL GetInterfaceId() { return guidICvTechInfo1; }

	mov	eax, DWORD PTR $T218506[esp-4]
	mov	ecx, DWORD PTR _guidICvTechInfo1
	mov	edx, DWORD PTR _guidICvTechInfo1+4
	mov	DWORD PTR [eax], ecx
	mov	ecx, DWORD PTR _guidICvTechInfo1+8
	mov	DWORD PTR [eax+4], edx
	mov	edx, DWORD PTR _guidICvTechInfo1+12
	mov	DWORD PTR [eax+8], ecx
	mov	DWORD PTR [eax+12], edx
	ret	4
?GetInterfaceId@ICvTechInfo1@@SG?AU_GUID@@XZ ENDP	; ICvTechInfo1::GetInterfaceId
_TEXT	ENDS
PUBLIC	?GetDescription@CvBaseInfo@@QBEPBDXZ		; CvBaseInfo::GetDescription
EXTRN	__imp_?c_str@?$basic_string@DU?$char_traits@D@std@@V?$allocator@D@2@@std@@QBEPBDXZ:PROC
; Function compile flags: /Ogtpy
; File c:\users\enormousapplepie\desktop\cleanup (v1)\lekmod files\lekmod dll versions\v30\lekmod_dll\cvgamecoredll_expansion2\cvinfos.h
;	COMDAT ?GetDescription@CvBaseInfo@@QBEPBDXZ
_TEXT	SEGMENT
?GetDescription@CvBaseInfo@@QBEPBDXZ PROC		; CvBaseInfo::GetDescription, COMDAT
; _this$ = ecx

; 64   : 		return m_strDescription.c_str();

	add	ecx, 36					; 00000024H
	jmp	DWORD PTR __imp_?c_str@?$basic_string@DU?$char_traits@D@std@@V?$allocator@D@2@@std@@QBEPBDXZ
?GetDescription@CvBaseInfo@@QBEPBDXZ ENDP		; CvBaseInfo::GetDescription
_TEXT	ENDS
PUBLIC	?GetType@CvBaseInfo@@QBEPBDXZ			; CvBaseInfo::GetType
; Function compile flags: /Ogtpy
;	COMDAT ?GetType@CvBaseInfo@@QBEPBDXZ
_TEXT	SEGMENT
?GetType@CvBaseInfo@@QBEPBDXZ PROC			; CvBaseInfo::GetType, COMDAT
; _this$ = ecx

; 92   : 		return m_strType.c_str();

	add	ecx, 176				; 000000b0H
	jmp	DWORD PTR __imp_?c_str@?$basic_string@DU?$char_traits@D@std@@V?$allocator@D@2@@std@@QBEPBDXZ
?GetType@CvBaseInfo@@QBEPBDXZ ENDP			; CvBaseInfo::GetType
_TEXT	ENDS
PUBLIC	??_7ICvTechInfo1@@6B@				; ICvTechInfo1::`vftable'
PUBLIC	??0ICvTechInfo1@@QAE@XZ				; ICvTechInfo1::ICvTechInfo1
PUBLIC	??_R4ICvTechInfo1@@6B@				; ICvTechInfo1::`RTTI Complete Object Locator'
;	COMDAT ??_R4ICvTechInfo1@@6B@
rdata$r	SEGMENT
??_R4ICvTechInfo1@@6B@ DD 00H				; ICvTechInfo1::`RTTI Complete Object Locator'
	DD	00H
	DD	00H
	DD	FLAT:??_R0?AVICvTechInfo1@@@8
	DD	FLAT:??_R3ICvTechInfo1@@8
rdata$r	ENDS
;	COMDAT ??_7ICvTechInfo1@@6B@
CONST	SEGMENT
??_7ICvTechInfo1@@6B@ DD FLAT:??_R4ICvTechInfo1@@6B@	; ICvTechInfo1::`vftable'
	DD	FLAT:__purecall
	DD	FLAT:__purecall
	DD	FLAT:__purecall
	DD	FLAT:__purecall
	DD	FLAT:__purecall
	DD	FLAT:__purecall
	DD	FLAT:__purecall
	DD	FLAT:__purecall
; Function compile flags: /Ogtpy
CONST	ENDS
;	COMDAT ??0ICvTechInfo1@@QAE@XZ
_TEXT	SEGMENT
??0ICvTechInfo1@@QAE@XZ PROC				; ICvTechInfo1::ICvTechInfo1, COMDAT
; _this$ = ecx
	mov	eax, ecx
	mov	DWORD PTR [eax], OFFSET ??_7ICvTechInfo1@@6B@
	ret	0
??0ICvTechInfo1@@QAE@XZ ENDP				; ICvTechInfo1::ICvTechInfo1
; Function compile flags: /Ogtpy
; File c:\users\enormousapplepie\desktop\cleanup (v1)\lekmod files\lekmod dll versions\v30\lekmod_dll\cvgamecoredll_expansion2\cvdlltechinfo.cpp
_TEXT	ENDS
;	COMDAT ?QueryInterface@CvDllTechInfo@@UAGPAXU_GUID@@@Z
_TEXT	SEGMENT
$T218526 = -16						; size = 16
$T218524 = -16						; size = 16
_this$ = 8						; size = 4
_guidInterface$ = 12					; size = 16
?QueryInterface@CvDllTechInfo@@UAGPAXU_GUID@@@Z PROC	; CvDllTechInfo::QueryInterface, COMDAT

; 27   : {

	sub	esp, 16					; 00000010H

; 28   : 	if(guidInterface == ICvUnknown::GetInterfaceId() ||
; 29   : 	        guidInterface == ICvTechInfo1::GetInterfaceId())

	mov	ecx, DWORD PTR _guidICvUnknown+4
	mov	edx, DWORD PTR _guidICvUnknown+8
	mov	eax, DWORD PTR _guidICvUnknown
	mov	DWORD PTR $T218524[esp+20], ecx
	lea	ecx, DWORD PTR $T218524[esp+16]
	mov	DWORD PTR $T218524[esp+24], edx
	mov	DWORD PTR $T218524[esp+16], eax
	mov	eax, DWORD PTR _guidICvUnknown+12
	push	ecx
	lea	edx, DWORD PTR _guidInterface$[esp+16]
	push	edx
	mov	DWORD PTR $T218524[esp+36], eax
	call	_IsEqualGUID
	add	esp, 8
	test	eax, eax
	jne	SHORT $LN1@QueryInter
	mov	ecx, DWORD PTR _guidICvTechInfo1+4
	mov	edx, DWORD PTR _guidICvTechInfo1+8
	mov	eax, DWORD PTR _guidICvTechInfo1
	mov	DWORD PTR $T218526[esp+20], ecx
	lea	ecx, DWORD PTR $T218526[esp+16]
	mov	DWORD PTR $T218526[esp+24], edx
	mov	DWORD PTR $T218526[esp+16], eax
	mov	eax, DWORD PTR _guidICvTechInfo1+12
	push	ecx
	lea	edx, DWORD PTR _guidInterface$[esp+16]
	push	edx
	mov	DWORD PTR $T218526[esp+36], eax
	call	_IsEqualGUID
	add	esp, 8
	test	eax, eax
	jne	SHORT $LN1@QueryInter

; 32   : 		return this;
; 33   : 	}
; 34   : 
; 35   : 	return NULL;
; 36   : }

	add	esp, 16					; 00000010H
	ret	20					; 00000014H
$LN1@QueryInter:

; 30   : 	{
; 31   : 		IncrementReference();

	mov	eax, DWORD PTR _this$[esp+12]
	inc	DWORD PTR [eax+4]

; 32   : 		return this;
; 33   : 	}
; 34   : 
; 35   : 	return NULL;
; 36   : }

	add	esp, 16					; 00000010H
	ret	20					; 00000014H
?QueryInterface@CvDllTechInfo@@UAGPAXU_GUID@@@Z ENDP	; CvDllTechInfo::QueryInterface
_TEXT	ENDS
PUBLIC	??_GCvDllTechInfo@@QAEPAXI@Z			; CvDllTechInfo::`scalar deleting destructor'
; Function compile flags: /Ogtpy
;	COMDAT ??_GCvDllTechInfo@@QAEPAXI@Z
_TEXT	SEGMENT
___flags$ = 8						; size = 4
??_GCvDllTechInfo@@QAEPAXI@Z PROC			; CvDllTechInfo::`scalar deleting destructor', COMDAT
; _this$ = ecx
	test	BYTE PTR ___flags$[esp-4], 1
	push	esi
	mov	esi, ecx
	mov	DWORD PTR [esi], OFFSET ??_7CvDllTechInfo@@6B@
	je	SHORT $LN8@scalar
	push	esi
	call	?Free@CvDllGameContext@@SAXPAX@Z	; CvDllGameContext::Free
	add	esp, 4
$LN8@scalar:
	mov	eax, esi
	pop	esi
	ret	4
??_GCvDllTechInfo@@QAEPAXI@Z ENDP			; CvDllTechInfo::`scalar deleting destructor'
; Function compile flags: /Ogtpy
_TEXT	ENDS
;	COMDAT ?GetDescription@CvDllTechInfo@@UBGPBDXZ
_TEXT	SEGMENT
_this$ = 8						; size = 4
?GetDescription@CvDllTechInfo@@UBGPBDXZ PROC		; CvDllTechInfo::GetDescription, COMDAT

; 80   : 	return m_pTechInfo->GetDescription();

	mov	eax, DWORD PTR _this$[esp-4]
	mov	eax, DWORD PTR [eax+8]
	lea	ecx, DWORD PTR [eax+36]
	call	DWORD PTR __imp_?c_str@?$basic_string@DU?$char_traits@D@std@@V?$allocator@D@2@@std@@QBEPBDXZ

; 81   : }

	ret	4
?GetDescription@CvDllTechInfo@@UBGPBDXZ ENDP		; CvDllTechInfo::GetDescription
; Function compile flags: /Ogtpy
_TEXT	ENDS
;	COMDAT ?GetType@CvDllTechInfo@@UBGPBDXZ
_TEXT	SEGMENT
_this$ = 8						; size = 4
?GetType@CvDllTechInfo@@UBGPBDXZ PROC			; CvDllTechInfo::GetType, COMDAT

; 100  : 	return m_pTechInfo->GetType();

	mov	eax, DWORD PTR _this$[esp-4]
	mov	eax, DWORD PTR [eax+8]
	lea	ecx, DWORD PTR [eax+176]
	call	DWORD PTR __imp_?c_str@?$basic_string@DU?$char_traits@D@std@@V?$allocator@D@2@@std@@QBEPBDXZ

; 101  : }

	ret	4
?GetType@CvDllTechInfo@@UBGPBDXZ ENDP			; CvDllTechInfo::GetType
_TEXT	ENDS
PUBLIC	??0CvDllTechInfo@@QAE@PAVCvTechEntry@@@Z	; CvDllTechInfo::CvDllTechInfo
; Function compile flags: /Ogtpy
;	COMDAT ??0CvDllTechInfo@@QAE@PAVCvTechEntry@@@Z
_TEXT	SEGMENT
_pTechInfo$ = 8						; size = 4
??0CvDllTechInfo@@QAE@PAVCvTechEntry@@@Z PROC		; CvDllTechInfo::CvDllTechInfo, COMDAT
; _this$ = ecx

; 19   : {

	mov	eax, ecx
	mov	ecx, DWORD PTR _pTechInfo$[esp-4]
	mov	DWORD PTR [eax], OFFSET ??_7CvDllTechInfo@@6B@
	mov	DWORD PTR [eax+4], 1
	mov	DWORD PTR [eax+8], ecx

; 20   : }

	ret	4
??0CvDllTechInfo@@QAE@PAVCvTechEntry@@@Z ENDP		; CvDllTechInfo::CvDllTechInfo
_TEXT	ENDS
PUBLIC	?DecrementReference@CvDllTechInfo@@QAEIXZ	; CvDllTechInfo::DecrementReference
; Function compile flags: /Ogtpy
;	COMDAT ?DecrementReference@CvDllTechInfo@@QAEIXZ
_TEXT	SEGMENT
?DecrementReference@CvDllTechInfo@@QAEIXZ PROC		; CvDllTechInfo::DecrementReference, COMDAT
; _this$ = ecx

; 46   : 	if(m_uiRefCount == 1)

	mov	eax, DWORD PTR [ecx+4]
	cmp	eax, 1
	jne	SHORT $LN2@DecrementR

; 47   : 	{
; 48   : 		delete this;

	push	ecx
	mov	DWORD PTR [ecx], OFFSET ??_7CvDllTechInfo@@6B@
	call	?Free@CvDllGameContext@@SAXPAX@Z	; CvDllGameContext::Free
	add	esp, 4

; 49   : 		return 0;

	xor	eax, eax

; 54   : 		return m_uiRefCount;
; 55   : 	}
; 56   : }

	ret	0
$LN2@DecrementR:

; 50   : 	}
; 51   : 	else
; 52   : 	{
; 53   : 		--m_uiRefCount;

	dec	eax
	mov	DWORD PTR [ecx+4], eax

; 54   : 		return m_uiRefCount;
; 55   : 	}
; 56   : }

	ret	0
?DecrementReference@CvDllTechInfo@@QAEIXZ ENDP		; CvDllTechInfo::DecrementReference
; Function compile flags: /Ogtpy
_TEXT	ENDS
;	COMDAT ?Destroy@CvDllTechInfo@@EAGXXZ
_TEXT	SEGMENT
_this$ = 8						; size = 4
?Destroy@CvDllTechInfo@@EAGXXZ PROC			; CvDllTechInfo::Destroy, COMDAT

; 65   : 	DecrementReference();

	mov	eax, DWORD PTR _this$[esp-4]
	mov	ecx, DWORD PTR [eax+4]
	cmp	ecx, 1
	jne	SHORT $LN4@Destroy
	push	eax
	mov	DWORD PTR [eax], OFFSET ??_7CvDllTechInfo@@6B@
	call	?Free@CvDllGameContext@@SAXPAX@Z	; CvDllGameContext::Free
	add	esp, 4

; 66   : }

	ret	4

; 65   : 	DecrementReference();

$LN4@Destroy:
	dec	ecx
	mov	DWORD PTR [eax+4], ecx

; 66   : }

	ret	4
?Destroy@CvDllTechInfo@@EAGXXZ ENDP			; CvDllTechInfo::Destroy
_TEXT	ENDS
END
