; Listing generated by Microsoft (R) Optimizing Compiler Version 15.00.30729.01 

	TITLE	s:\LEKMOD_DLL\CvGameCoreDLL_Expansion2\CvDllGame.cpp
	.686P
	.XMM
	include listing.inc
	.model	flat

INCLUDELIB MSVCRT
INCLUDELIB OLDNAMES

_DATA	SEGMENT
_CIV5_XP2_DLL_VERSION DD FLAT:$SG217295
_DATA	ENDS
CONST	SEGMENT
$SG217295 DB	'1.0.0', 00H
	ORG $+2
_guidICvUnknown DD 0d89ba82fH
	DW	09fa3H
	DW	04696H
	DB	0b3H
	DB	0f4H
	DB	052H
	DB	0bdH
	DB	0b1H
	DB	01H
	DB	0cfH
	DB	0b2H
_guidICvGame1 DD 0dc39d22cH
	DW	012aeH
	DW	04395H
	DB	08aH
	DB	020H
	DB	0eeH
	DB	0f1H
	DB	045H
	DB	0a7H
	DB	07dH
	DB	0d0H
_guidICvGame2 DD 019ee7781H
	DW	0c484H
	DW	0414eH
	DB	097H
	DB	0c9H
	DB	0b7H
	DB	04eH
	DB	0bfH
	DB	04H
	DB	06eH
	DB	07eH
CONST	ENDS
PUBLIC	??_7ICvUnknown@@6B@				; ICvUnknown::`vftable'
PUBLIC	??0ICvUnknown@@QAE@XZ				; ICvUnknown::ICvUnknown
PUBLIC	??_R4ICvUnknown@@6B@				; ICvUnknown::`RTTI Complete Object Locator'
PUBLIC	??_R0?AVICvUnknown@@@8				; ICvUnknown `RTTI Type Descriptor'
PUBLIC	??_R3ICvUnknown@@8				; ICvUnknown::`RTTI Class Hierarchy Descriptor'
PUBLIC	??_R2ICvUnknown@@8				; ICvUnknown::`RTTI Base Class Array'
PUBLIC	??_R1A@?0A@EA@ICvUnknown@@8			; ICvUnknown::`RTTI Base Class Descriptor at (0,-1,0,64)'
EXTRN	??_7type_info@@6B@:QWORD			; type_info::`vftable'
EXTRN	__purecall:PROC
;	COMDAT ??_R1A@?0A@EA@ICvUnknown@@8
rdata$r	SEGMENT
??_R1A@?0A@EA@ICvUnknown@@8 DD FLAT:??_R0?AVICvUnknown@@@8 ; ICvUnknown::`RTTI Base Class Descriptor at (0,-1,0,64)'
	DD	00H
	DD	00H
	DD	0ffffffffH
	DD	00H
	DD	040H
	DD	FLAT:??_R3ICvUnknown@@8
rdata$r	ENDS
;	COMDAT ??_R2ICvUnknown@@8
rdata$r	SEGMENT
??_R2ICvUnknown@@8 DD FLAT:??_R1A@?0A@EA@ICvUnknown@@8	; ICvUnknown::`RTTI Base Class Array'
rdata$r	ENDS
;	COMDAT ??_R3ICvUnknown@@8
rdata$r	SEGMENT
??_R3ICvUnknown@@8 DD 00H				; ICvUnknown::`RTTI Class Hierarchy Descriptor'
	DD	00H
	DD	01H
	DD	FLAT:??_R2ICvUnknown@@8
rdata$r	ENDS
;	COMDAT ??_R0?AVICvUnknown@@@8
_DATA	SEGMENT
??_R0?AVICvUnknown@@@8 DD FLAT:??_7type_info@@6B@	; ICvUnknown `RTTI Type Descriptor'
	DD	00H
	DB	'.?AVICvUnknown@@', 00H
_DATA	ENDS
;	COMDAT ??_R4ICvUnknown@@6B@
rdata$r	SEGMENT
??_R4ICvUnknown@@6B@ DD 00H				; ICvUnknown::`RTTI Complete Object Locator'
	DD	00H
	DD	00H
	DD	FLAT:??_R0?AVICvUnknown@@@8
	DD	FLAT:??_R3ICvUnknown@@8
rdata$r	ENDS
;	COMDAT ??_7ICvUnknown@@6B@
CONST	SEGMENT
??_7ICvUnknown@@6B@ DD FLAT:??_R4ICvUnknown@@6B@	; ICvUnknown::`vftable'
	DD	FLAT:__purecall
	DD	FLAT:__purecall
; Function compile flags: /Ogtpy
CONST	ENDS
;	COMDAT ??0ICvUnknown@@QAE@XZ
_TEXT	SEGMENT
??0ICvUnknown@@QAE@XZ PROC				; ICvUnknown::ICvUnknown, COMDAT
; _this$ = ecx
	mov	eax, ecx
	mov	DWORD PTR [eax], OFFSET ??_7ICvUnknown@@6B@
	ret	0
??0ICvUnknown@@QAE@XZ ENDP				; ICvUnknown::ICvUnknown
_TEXT	ENDS
PUBLIC	?IncrementReference@CvDllGame@@QAEIXZ		; CvDllGame::IncrementReference
; Function compile flags: /Ogtpy
; File s:\lekmod_dll\cvgamecoredll_expansion2\cvdllgame.cpp
;	COMDAT ?IncrementReference@CvDllGame@@QAEIXZ
_TEXT	SEGMENT
?IncrementReference@CvDllGame@@QAEIXZ PROC		; CvDllGame::IncrementReference, COMDAT
; _this$ = ecx

; 50   : 	++m_uiRefCount;

	inc	DWORD PTR [ecx+4]

; 51   : 	return m_uiRefCount;

	mov	eax, DWORD PTR [ecx+4]

; 52   : }

	ret	0
?IncrementReference@CvDllGame@@QAEIXZ ENDP		; CvDllGame::IncrementReference
_TEXT	ENDS
PUBLIC	?GetReferenceCount@CvDllGame@@QAEIXZ		; CvDllGame::GetReferenceCount
; Function compile flags: /Ogtpy
;	COMDAT ?GetReferenceCount@CvDllGame@@QAEIXZ
_TEXT	SEGMENT
?GetReferenceCount@CvDllGame@@QAEIXZ PROC		; CvDllGame::GetReferenceCount, COMDAT
; _this$ = ecx

; 70   : 	return m_uiRefCount;

	mov	eax, DWORD PTR [ecx+4]

; 71   : }

	ret	0
?GetReferenceCount@CvDllGame@@QAEIXZ ENDP		; CvDllGame::GetReferenceCount
_TEXT	ENDS
PUBLIC	??3CvDllGame@@SAXPAX@Z				; CvDllGame::operator delete
EXTRN	?Free@CvDllGameContext@@SAXPAX@Z:PROC		; CvDllGameContext::Free
; Function compile flags: /Ogtpy
;	COMDAT ??3CvDllGame@@SAXPAX@Z
_TEXT	SEGMENT
_p$ = 8							; size = 4
??3CvDllGame@@SAXPAX@Z PROC				; CvDllGame::operator delete, COMDAT

; 80   : 	CvDllGameContext::Free(p);

	jmp	?Free@CvDllGameContext@@SAXPAX@Z	; CvDllGameContext::Free
??3CvDllGame@@SAXPAX@Z ENDP				; CvDllGame::operator delete
_TEXT	ENDS
PUBLIC	??2CvDllGame@@SAPAXI@Z				; CvDllGame::operator new
EXTRN	?Allocate@CvDllGameContext@@SAPAXI@Z:PROC	; CvDllGameContext::Allocate
; Function compile flags: /Ogtpy
;	COMDAT ??2CvDllGame@@SAPAXI@Z
_TEXT	SEGMENT
_bytes$ = 8						; size = 4
??2CvDllGame@@SAPAXI@Z PROC				; CvDllGame::operator new, COMDAT

; 85   : 	return CvDllGameContext::Allocate(bytes);

	jmp	?Allocate@CvDllGameContext@@SAPAXI@Z	; CvDllGameContext::Allocate
??2CvDllGame@@SAPAXI@Z ENDP				; CvDllGame::operator new
_TEXT	ENDS
PUBLIC	?GetInstance@CvDllGame@@QAEPAVCvGame@@XZ	; CvDllGame::GetInstance
; Function compile flags: /Ogtpy
;	COMDAT ?GetInstance@CvDllGame@@QAEPAVCvGame@@XZ
_TEXT	SEGMENT
?GetInstance@CvDllGame@@QAEPAVCvGame@@XZ PROC		; CvDllGame::GetInstance, COMDAT
; _this$ = ecx

; 95   : 	return m_pGame;

	mov	eax, DWORD PTR [ecx+8]

; 96   : }

	ret	0
?GetInstance@CvDllGame@@QAEPAVCvGame@@XZ ENDP		; CvDllGame::GetInstance
_TEXT	ENDS
PUBLIC	?GetActivePlayer@CvDllGame@@UAG?AW4PlayerTypes@@XZ ; CvDllGame::GetActivePlayer
EXTRN	?getActivePlayer@CvGame@@QBE?AW4PlayerTypes@@XZ:PROC ; CvGame::getActivePlayer
; Function compile flags: /Ogtpy
;	COMDAT ?GetActivePlayer@CvDllGame@@UAG?AW4PlayerTypes@@XZ
_TEXT	SEGMENT
_this$ = 8						; size = 4
?GetActivePlayer@CvDllGame@@UAG?AW4PlayerTypes@@XZ PROC	; CvDllGame::GetActivePlayer, COMDAT

; 100  : 	return m_pGame->getActivePlayer();

	mov	eax, DWORD PTR _this$[esp-4]
	mov	ecx, DWORD PTR [eax+8]
	call	?getActivePlayer@CvGame@@QBE?AW4PlayerTypes@@XZ ; CvGame::getActivePlayer

; 101  : }

	ret	4
?GetActivePlayer@CvDllGame@@UAG?AW4PlayerTypes@@XZ ENDP	; CvDllGame::GetActivePlayer
_TEXT	ENDS
PUBLIC	?GetActiveTeam@CvDllGame@@UAG?AW4TeamTypes@@XZ	; CvDllGame::GetActiveTeam
EXTRN	?getActiveTeam@CvGame@@QAE?AW4TeamTypes@@XZ:PROC ; CvGame::getActiveTeam
; Function compile flags: /Ogtpy
;	COMDAT ?GetActiveTeam@CvDllGame@@UAG?AW4TeamTypes@@XZ
_TEXT	SEGMENT
_this$ = 8						; size = 4
?GetActiveTeam@CvDllGame@@UAG?AW4TeamTypes@@XZ PROC	; CvDllGame::GetActiveTeam, COMDAT

; 105  : 	return m_pGame->getActiveTeam();

	mov	eax, DWORD PTR _this$[esp-4]
	mov	ecx, DWORD PTR [eax+8]
	call	?getActiveTeam@CvGame@@QAE?AW4TeamTypes@@XZ ; CvGame::getActiveTeam

; 106  : }

	ret	4
?GetActiveTeam@CvDllGame@@UAG?AW4TeamTypes@@XZ ENDP	; CvDllGame::GetActiveTeam
_TEXT	ENDS
PUBLIC	?GetGameTurn@CvDllGame@@UBGHXZ			; CvDllGame::GetGameTurn
EXTRN	?getGameTurn@CvGame@@QAEHXZ:PROC		; CvGame::getGameTurn
; Function compile flags: /Ogtpy
;	COMDAT ?GetGameTurn@CvDllGame@@UBGHXZ
_TEXT	SEGMENT
_this$ = 8						; size = 4
?GetGameTurn@CvDllGame@@UBGHXZ PROC			; CvDllGame::GetGameTurn, COMDAT

; 110  : 	return m_pGame->getGameTurn();

	mov	eax, DWORD PTR _this$[esp-4]
	mov	ecx, DWORD PTR [eax+8]
	call	?getGameTurn@CvGame@@QAEHXZ		; CvGame::getGameTurn

; 111  : }

	ret	4
?GetGameTurn@CvDllGame@@UBGHXZ ENDP			; CvDllGame::GetGameTurn
_TEXT	ENDS
PUBLIC	?ChangeNumGameTurnActive@CvDllGame@@UAGXHPBD@Z	; CvDllGame::ChangeNumGameTurnActive
EXTRN	__imp_??1?$basic_string@DU?$char_traits@D@std@@V?$allocator@D@2@@std@@QAE@XZ:PROC
EXTRN	?changeNumGameTurnActive@CvGame@@QAEXHABV?$basic_string@DU?$char_traits@D@std@@V?$allocator@D@2@@std@@@Z:PROC ; CvGame::changeNumGameTurnActive
EXTRN	__imp_??4?$basic_string@DU?$char_traits@D@std@@V?$allocator@D@2@@std@@QAEAAV01@PBD@Z:PROC
EXTRN	__imp_??0?$basic_string@DU?$char_traits@D@std@@V?$allocator@D@2@@std@@QAE@XZ:PROC
EXTRN	___CxxFrameHandler3:PROC
;	COMDAT xdata$x
xdata$x	SEGMENT
__unwindtable$?ChangeNumGameTurnActive@CvDllGame@@UAGXHPBD@Z DD 0ffffffffH
	DD	FLAT:__unwindfunclet$?ChangeNumGameTurnActive@CvDllGame@@UAGXHPBD@Z$0
__ehfuncinfo$?ChangeNumGameTurnActive@CvDllGame@@UAGXHPBD@Z DD 019930522H
	DD	01H
	DD	FLAT:__unwindtable$?ChangeNumGameTurnActive@CvDllGame@@UAGXHPBD@Z
	DD	2 DUP(00H)
	DD	2 DUP(00H)
	DD	00H
	DD	01H
; Function compile flags: /Ogtpy
xdata$x	ENDS
;	COMDAT ?ChangeNumGameTurnActive@CvDllGame@@UAGXHPBD@Z
_TEXT	SEGMENT
_strWhy$ = -40						; size = 28
__$EHRec$ = -12						; size = 12
_this$ = 8						; size = 4
_iChange$ = 12						; size = 4
tv70 = 16						; size = 4
_why$ = 16						; size = 4
?ChangeNumGameTurnActive@CvDllGame@@UAGXHPBD@Z PROC	; CvDllGame::ChangeNumGameTurnActive, COMDAT

; 114  : {

	push	-1
	push	__ehhandler$?ChangeNumGameTurnActive@CvDllGame@@UAGXHPBD@Z
	mov	eax, DWORD PTR fs:0
	push	eax
	mov	DWORD PTR fs:0, esp
	sub	esp, 28					; 0000001cH
	push	esi

; 115  : 	std::string strWhy;

	lea	ecx, DWORD PTR _strWhy$[esp+44]
	call	DWORD PTR __imp_??0?$basic_string@DU?$char_traits@D@std@@V?$allocator@D@2@@std@@QAE@XZ

; 116  : 	if(why != NULL && strlen(why) > 0)

	mov	esi, DWORD PTR _why$[esp+40]
	mov	DWORD PTR __$EHRec$[esp+52], 0
	test	esi, esi
	je	SHORT $LN1@ChangeNumG
	mov	eax, esi
	lea	edx, DWORD PTR [eax+1]
$LL5@ChangeNumG:
	mov	cl, BYTE PTR [eax]
	inc	eax
	test	cl, cl
	jne	SHORT $LL5@ChangeNumG
	sub	eax, edx
	je	SHORT $LN1@ChangeNumG

; 117  : 		strWhy = why;

	push	esi
	lea	ecx, DWORD PTR _strWhy$[esp+48]
	call	DWORD PTR __imp_??4?$basic_string@DU?$char_traits@D@std@@V?$allocator@D@2@@std@@QAEAAV01@PBD@Z
$LN1@ChangeNumG:

; 118  : 
; 119  : 	m_pGame->changeNumGameTurnActive(iChange, strWhy);

	mov	ecx, DWORD PTR _iChange$[esp+40]
	mov	edx, DWORD PTR _this$[esp+40]
	lea	eax, DWORD PTR _strWhy$[esp+44]
	push	eax
	push	ecx
	mov	ecx, DWORD PTR [edx+8]
	call	?changeNumGameTurnActive@CvGame@@QAEXHABV?$basic_string@DU?$char_traits@D@std@@V?$allocator@D@2@@std@@@Z ; CvGame::changeNumGameTurnActive

; 120  : }

	lea	ecx, DWORD PTR _strWhy$[esp+44]
	mov	DWORD PTR __$EHRec$[esp+52], -1
	call	DWORD PTR __imp_??1?$basic_string@DU?$char_traits@D@std@@V?$allocator@D@2@@std@@QAE@XZ
	mov	ecx, DWORD PTR __$EHRec$[esp+44]
	pop	esi
	mov	DWORD PTR fs:0, ecx
	add	esp, 40					; 00000028H
	ret	12					; 0000000cH
_TEXT	ENDS
;	COMDAT text$x
text$x	SEGMENT
__unwindfunclet$?ChangeNumGameTurnActive@CvDllGame@@UAGXHPBD@Z$0:
	lea	ecx, DWORD PTR _strWhy$[ebp]
	jmp	DWORD PTR __imp_??1?$basic_string@DU?$char_traits@D@std@@V?$allocator@D@2@@std@@QAE@XZ
__ehhandler$?ChangeNumGameTurnActive@CvDllGame@@UAGXHPBD@Z:
	mov	eax, OFFSET __ehfuncinfo$?ChangeNumGameTurnActive@CvDllGame@@UAGXHPBD@Z
	jmp	___CxxFrameHandler3
text$x	ENDS
?ChangeNumGameTurnActive@CvDllGame@@UAGXHPBD@Z ENDP	; CvDllGame::ChangeNumGameTurnActive
PUBLIC	?CountHumanPlayersAlive@CvDllGame@@UBGHXZ	; CvDllGame::CountHumanPlayersAlive
EXTRN	?countHumanPlayersAlive@CvGame@@QBEHXZ:PROC	; CvGame::countHumanPlayersAlive
; Function compile flags: /Ogtpy
;	COMDAT ?CountHumanPlayersAlive@CvDllGame@@UBGHXZ
_TEXT	SEGMENT
_this$ = 8						; size = 4
?CountHumanPlayersAlive@CvDllGame@@UBGHXZ PROC		; CvDllGame::CountHumanPlayersAlive, COMDAT

; 124  : 	return m_pGame->countHumanPlayersAlive();

	mov	eax, DWORD PTR _this$[esp-4]
	mov	ecx, DWORD PTR [eax+8]
	call	?countHumanPlayersAlive@CvGame@@QBEHXZ	; CvGame::countHumanPlayersAlive

; 125  : }

	ret	4
?CountHumanPlayersAlive@CvDllGame@@UBGHXZ ENDP		; CvDllGame::CountHumanPlayersAlive
_TEXT	ENDS
PUBLIC	?CountNumHumanGameTurnActive@CvDllGame@@UAGHXZ	; CvDllGame::CountNumHumanGameTurnActive
EXTRN	?countNumHumanGameTurnActive@CvGame@@QAEHXZ:PROC ; CvGame::countNumHumanGameTurnActive
; Function compile flags: /Ogtpy
;	COMDAT ?CountNumHumanGameTurnActive@CvDllGame@@UAGHXZ
_TEXT	SEGMENT
_this$ = 8						; size = 4
?CountNumHumanGameTurnActive@CvDllGame@@UAGHXZ PROC	; CvDllGame::CountNumHumanGameTurnActive, COMDAT

; 129  : 	return m_pGame->countNumHumanGameTurnActive();

	mov	eax, DWORD PTR _this$[esp-4]
	mov	ecx, DWORD PTR [eax+8]
	call	?countNumHumanGameTurnActive@CvGame@@QAEHXZ ; CvGame::countNumHumanGameTurnActive

; 130  : }

	ret	4
?CountNumHumanGameTurnActive@CvDllGame@@UAGHXZ ENDP	; CvDllGame::CountNumHumanGameTurnActive
_TEXT	ENDS
PUBLIC	?CyclePlotUnits@CvDllGame@@UAG_NPAVICvPlot1@@_N1H@Z ; CvDllGame::CyclePlotUnits
EXTRN	?cyclePlotUnits@CvGame@@QAE_NPAVCvPlot@@_N1H@Z:PROC ; CvGame::cyclePlotUnits
EXTRN	?GetInstance@CvDllPlot@@QAEPAVCvPlot@@XZ:PROC	; CvDllPlot::GetInstance
; Function compile flags: /Ogtpy
;	COMDAT ?CyclePlotUnits@CvDllGame@@UAG_NPAVICvPlot1@@_N1H@Z
_TEXT	SEGMENT
_this$ = 8						; size = 4
_pPlot$ = 12						; size = 4
_bForward$ = 16						; size = 1
_bAuto$ = 20						; size = 1
_iCount$ = 24						; size = 4
?CyclePlotUnits@CvDllGame@@UAG_NPAVICvPlot1@@_N1H@Z PROC ; CvDllGame::CyclePlotUnits, COMDAT

; 134  : 	CvPlot* pkPlot = (NULL != pPlot)? static_cast<CvDllPlot*>(pPlot)->GetInstance() : NULL;

	mov	ecx, DWORD PTR _pPlot$[esp-4]
	test	ecx, ecx
	je	SHORT $LN3@CyclePlotU
	call	?GetInstance@CvDllPlot@@QAEPAVCvPlot@@XZ ; CvDllPlot::GetInstance
	jmp	SHORT $LN4@CyclePlotU
$LN3@CyclePlotU:
	xor	eax, eax
$LN4@CyclePlotU:

; 135  : 	return m_pGame->cyclePlotUnits(pkPlot, bForward, bAuto, iCount);

	mov	ecx, DWORD PTR _iCount$[esp-4]
	mov	edx, DWORD PTR _bAuto$[esp-4]
	push	ecx
	mov	ecx, DWORD PTR _bForward$[esp]
	push	edx
	mov	edx, DWORD PTR _this$[esp+4]
	push	ecx
	mov	ecx, DWORD PTR [edx+8]
	push	eax
	call	?cyclePlotUnits@CvGame@@QAE_NPAVCvPlot@@_N1H@Z ; CvGame::cyclePlotUnits

; 136  : }

	ret	20					; 00000014H
?CyclePlotUnits@CvDllGame@@UAG_NPAVICvPlot1@@_N1H@Z ENDP ; CvDllGame::CyclePlotUnits
_TEXT	ENDS
PUBLIC	?CycleUnits@CvDllGame@@UAGX_N00@Z		; CvDllGame::CycleUnits
EXTRN	?cycleUnits@CvGame@@QAEX_N00@Z:PROC		; CvGame::cycleUnits
; Function compile flags: /Ogtpy
;	COMDAT ?CycleUnits@CvDllGame@@UAGX_N00@Z
_TEXT	SEGMENT
_this$ = 8						; size = 4
_bClear$ = 12						; size = 1
_bForward$ = 16						; size = 1
_bWorkers$ = 20						; size = 1
?CycleUnits@CvDllGame@@UAGX_N00@Z PROC			; CvDllGame::CycleUnits, COMDAT

; 140  : 	m_pGame->cycleUnits(bClear, bForward, bWorkers);

	mov	eax, DWORD PTR _bWorkers$[esp-4]
	mov	ecx, DWORD PTR _bForward$[esp-4]
	mov	edx, DWORD PTR _bClear$[esp-4]
	push	eax
	mov	eax, DWORD PTR _this$[esp]
	push	ecx
	mov	ecx, DWORD PTR [eax+8]
	push	edx
	call	?cycleUnits@CvGame@@QAEX_N00@Z		; CvGame::cycleUnits

; 141  : }

	ret	16					; 00000010H
?CycleUnits@CvDllGame@@UAGX_N00@Z ENDP			; CvDllGame::CycleUnits
_TEXT	ENDS
PUBLIC	?DoGameStarted@CvDllGame@@UAGXXZ		; CvDllGame::DoGameStarted
EXTRN	?DoGameStarted@CvGame@@QAEXXZ:PROC		; CvGame::DoGameStarted
; Function compile flags: /Ogtpy
;	COMDAT ?DoGameStarted@CvDllGame@@UAGXXZ
_TEXT	SEGMENT
_this$ = 8						; size = 4
?DoGameStarted@CvDllGame@@UAGXXZ PROC			; CvDllGame::DoGameStarted, COMDAT

; 145  : 	m_pGame->DoGameStarted();

	mov	eax, DWORD PTR _this$[esp-4]
	mov	ecx, DWORD PTR [eax+8]
	call	?DoGameStarted@CvGame@@QAEXXZ		; CvGame::DoGameStarted

; 146  : }

	ret	4
?DoGameStarted@CvDllGame@@UAGXXZ ENDP			; CvDllGame::DoGameStarted
_TEXT	ENDS
PUBLIC	_IsEqualGUID
; Function compile flags: /Ogtpy
; File c:\program files\microsoft sdks\windows\v6.0a\include\guiddef.h
;	COMDAT _IsEqualGUID
_TEXT	SEGMENT
_rguid1$ = 8						; size = 4
_rguid2$ = 12						; size = 4
_IsEqualGUID PROC					; COMDAT

; 161  :     return !memcmp(&rguid1, &rguid2, sizeof(GUID));

	mov	ecx, DWORD PTR _rguid2$[esp-4]
	mov	edx, DWORD PTR _rguid1$[esp-4]
	mov	eax, 16					; 00000010H
	push	esi
	npad	2
$LL4@IsEqualGUI:
	mov	esi, DWORD PTR [edx]
	cmp	esi, DWORD PTR [ecx]
	jne	SHORT $LN5@IsEqualGUI
	sub	eax, 4
	add	ecx, 4
	add	edx, 4
	cmp	eax, 4
	jae	SHORT $LL4@IsEqualGUI
	xor	eax, eax
	xor	edx, edx
	test	eax, eax
	sete	dl
	pop	esi
	mov	eax, edx

; 162  : }

	ret	0
$LN5@IsEqualGUI:

; 161  :     return !memcmp(&rguid1, &rguid2, sizeof(GUID));

	movzx	eax, BYTE PTR [edx]
	movzx	esi, BYTE PTR [ecx]
	sub	eax, esi
	jne	SHORT $LN7@IsEqualGUI
	movzx	eax, BYTE PTR [edx+1]
	movzx	esi, BYTE PTR [ecx+1]
	sub	eax, esi
	jne	SHORT $LN7@IsEqualGUI
	movzx	eax, BYTE PTR [edx+2]
	movzx	esi, BYTE PTR [ecx+2]
	sub	eax, esi
	jne	SHORT $LN7@IsEqualGUI
	movzx	eax, BYTE PTR [edx+3]
	movzx	ecx, BYTE PTR [ecx+3]
	sub	eax, ecx
$LN7@IsEqualGUI:
	sar	eax, 31					; 0000001fH
	or	eax, 1
	xor	edx, edx
	test	eax, eax
	sete	dl
	pop	esi
	mov	eax, edx

; 162  : }

	ret	0
_IsEqualGUID ENDP
_TEXT	ENDS
PUBLIC	?EndTurnTimerReset@CvDllGame@@UAGXXZ		; CvDllGame::EndTurnTimerReset
EXTRN	?endTurnTimerReset@CvGame@@QAEXXZ:PROC		; CvGame::endTurnTimerReset
; Function compile flags: /Ogtpy
; File s:\lekmod_dll\cvgamecoredll_expansion2\cvdllgame.cpp
;	COMDAT ?EndTurnTimerReset@CvDllGame@@UAGXXZ
_TEXT	SEGMENT
_this$ = 8						; size = 4
?EndTurnTimerReset@CvDllGame@@UAGXXZ PROC		; CvDllGame::EndTurnTimerReset, COMDAT

; 150  : 	m_pGame->endTurnTimerReset();

	mov	eax, DWORD PTR _this$[esp-4]
	mov	ecx, DWORD PTR [eax+8]
	call	?endTurnTimerReset@CvGame@@QAEXXZ	; CvGame::endTurnTimerReset

; 151  : }

	ret	4
?EndTurnTimerReset@CvDllGame@@UAGXXZ ENDP		; CvDllGame::EndTurnTimerReset
_TEXT	ENDS
PUBLIC	_==
; Function compile flags: /Ogtpy
; File c:\program files\microsoft sdks\windows\v6.0a\include\guiddef.h
;	COMDAT _==
_TEXT	SEGMENT
_guidOne$ = 8						; size = 4
_guidOther$ = 12					; size = 4
_==	PROC						; COMDAT

; 194  :     return IsEqualGUID(guidOne,guidOther);

	jmp	_IsEqualGUID
_==	ENDP
_TEXT	ENDS
PUBLIC	?EndTurnTimerSemaphoreDecrement@CvDllGame@@UAGXXZ ; CvDllGame::EndTurnTimerSemaphoreDecrement
EXTRN	?endTurnTimerSemaphoreDecrement@CvGame@@QAEXXZ:PROC ; CvGame::endTurnTimerSemaphoreDecrement
; Function compile flags: /Ogtpy
; File s:\lekmod_dll\cvgamecoredll_expansion2\cvdllgame.cpp
;	COMDAT ?EndTurnTimerSemaphoreDecrement@CvDllGame@@UAGXXZ
_TEXT	SEGMENT
_this$ = 8						; size = 4
?EndTurnTimerSemaphoreDecrement@CvDllGame@@UAGXXZ PROC	; CvDllGame::EndTurnTimerSemaphoreDecrement, COMDAT

; 155  : 	m_pGame->endTurnTimerSemaphoreDecrement();

	mov	eax, DWORD PTR _this$[esp-4]
	mov	ecx, DWORD PTR [eax+8]
	call	?endTurnTimerSemaphoreDecrement@CvGame@@QAEXXZ ; CvGame::endTurnTimerSemaphoreDecrement

; 156  : }

	ret	4
?EndTurnTimerSemaphoreDecrement@CvDllGame@@UAGXXZ ENDP	; CvDllGame::EndTurnTimerSemaphoreDecrement
_TEXT	ENDS
PUBLIC	?EndTurnTimerSemaphoreIncrement@CvDllGame@@UAGXXZ ; CvDllGame::EndTurnTimerSemaphoreIncrement
EXTRN	?endTurnTimerSemaphoreIncrement@CvGame@@QAEXXZ:PROC ; CvGame::endTurnTimerSemaphoreIncrement
; Function compile flags: /Ogtpy
;	COMDAT ?EndTurnTimerSemaphoreIncrement@CvDllGame@@UAGXXZ
_TEXT	SEGMENT
_this$ = 8						; size = 4
?EndTurnTimerSemaphoreIncrement@CvDllGame@@UAGXXZ PROC	; CvDllGame::EndTurnTimerSemaphoreIncrement, COMDAT

; 160  : 	m_pGame->endTurnTimerSemaphoreIncrement();

	mov	eax, DWORD PTR _this$[esp-4]
	mov	ecx, DWORD PTR [eax+8]
	call	?endTurnTimerSemaphoreIncrement@CvGame@@QAEXXZ ; CvGame::endTurnTimerSemaphoreIncrement

; 161  : }

	ret	4
?EndTurnTimerSemaphoreIncrement@CvDllGame@@UAGXXZ ENDP	; CvDllGame::EndTurnTimerSemaphoreIncrement
_TEXT	ENDS
PUBLIC	?GetAction@CvDllGame@@UAGHH_N00@Z		; CvDllGame::GetAction
EXTRN	?GetAction@CvGame@@QAEHH_N00@Z:PROC		; CvGame::GetAction
; Function compile flags: /Ogtpy
;	COMDAT ?GetAction@CvDllGame@@UAGHH_N00@Z
_TEXT	SEGMENT
_this$ = 8						; size = 4
_iKeyStroke$ = 12					; size = 4
_bAlt$ = 16						; size = 1
_bShift$ = 20						; size = 1
_bCtrl$ = 24						; size = 1
?GetAction@CvDllGame@@UAGHH_N00@Z PROC			; CvDllGame::GetAction, COMDAT

; 165  : 	return m_pGame->GetAction(iKeyStroke, bAlt, bShift, bCtrl);

	mov	eax, DWORD PTR _bCtrl$[esp-4]
	mov	ecx, DWORD PTR _bShift$[esp-4]
	mov	edx, DWORD PTR _bAlt$[esp-4]
	push	eax
	mov	eax, DWORD PTR _iKeyStroke$[esp]
	push	ecx
	mov	ecx, DWORD PTR _this$[esp+4]
	mov	ecx, DWORD PTR [ecx+8]
	push	edx
	push	eax
	call	?GetAction@CvGame@@QAEHH_N00@Z		; CvGame::GetAction

; 166  : }

	ret	20					; 00000014H
?GetAction@CvDllGame@@UAGHH_N00@Z ENDP			; CvDllGame::GetAction
_TEXT	ENDS
PUBLIC	?IsAction@CvDllGame@@UAGHH_N00@Z		; CvDllGame::IsAction
EXTRN	?IsAction@CvGame@@QAEHH_N00@Z:PROC		; CvGame::IsAction
; Function compile flags: /Ogtpy
;	COMDAT ?IsAction@CvDllGame@@UAGHH_N00@Z
_TEXT	SEGMENT
_this$ = 8						; size = 4
_iKeyStroke$ = 12					; size = 4
_bAlt$ = 16						; size = 1
_bShift$ = 20						; size = 1
_bCtrl$ = 24						; size = 1
?IsAction@CvDllGame@@UAGHH_N00@Z PROC			; CvDllGame::IsAction, COMDAT

; 170  : 	return m_pGame->IsAction(iKeyStroke, bAlt, bShift, bCtrl);

	mov	eax, DWORD PTR _bCtrl$[esp-4]
	mov	ecx, DWORD PTR _bShift$[esp-4]
	mov	edx, DWORD PTR _bAlt$[esp-4]
	push	eax
	mov	eax, DWORD PTR _iKeyStroke$[esp]
	push	ecx
	mov	ecx, DWORD PTR _this$[esp+4]
	mov	ecx, DWORD PTR [ecx+8]
	push	edx
	push	eax
	call	?IsAction@CvGame@@QAEHH_N00@Z		; CvGame::IsAction

; 171  : }

	ret	20					; 00000014H
?IsAction@CvDllGame@@UAGHH_N00@Z ENDP			; CvDllGame::IsAction
_TEXT	ENDS
PUBLIC	?GetBarbarianCampImprovementType@CvDllGame@@UAG?AW4ImprovementTypes@@XZ ; CvDllGame::GetBarbarianCampImprovementType
EXTRN	?GetBarbarianCampImprovementType@CvGame@@QAE?AW4ImprovementTypes@@XZ:PROC ; CvGame::GetBarbarianCampImprovementType
; Function compile flags: /Ogtpy
;	COMDAT ?GetBarbarianCampImprovementType@CvDllGame@@UAG?AW4ImprovementTypes@@XZ
_TEXT	SEGMENT
_this$ = 8						; size = 4
?GetBarbarianCampImprovementType@CvDllGame@@UAG?AW4ImprovementTypes@@XZ PROC ; CvDllGame::GetBarbarianCampImprovementType, COMDAT

; 175  : 	return m_pGame->GetBarbarianCampImprovementType();

	mov	eax, DWORD PTR _this$[esp-4]
	mov	ecx, DWORD PTR [eax+8]
	call	?GetBarbarianCampImprovementType@CvGame@@QAE?AW4ImprovementTypes@@XZ ; CvGame::GetBarbarianCampImprovementType

; 176  : }

	ret	4
?GetBarbarianCampImprovementType@CvDllGame@@UAG?AW4ImprovementTypes@@XZ ENDP ; CvDllGame::GetBarbarianCampImprovementType
_TEXT	ENDS
PUBLIC	?GetElapsedGameTurns@CvDllGame@@UBGHXZ		; CvDllGame::GetElapsedGameTurns
EXTRN	?getElapsedGameTurns@CvGame@@QBEHXZ:PROC	; CvGame::getElapsedGameTurns
; Function compile flags: /Ogtpy
;	COMDAT ?GetElapsedGameTurns@CvDllGame@@UBGHXZ
_TEXT	SEGMENT
_this$ = 8						; size = 4
?GetElapsedGameTurns@CvDllGame@@UBGHXZ PROC		; CvDllGame::GetElapsedGameTurns, COMDAT

; 180  : 	return m_pGame->getElapsedGameTurns();

	mov	eax, DWORD PTR _this$[esp-4]
	mov	ecx, DWORD PTR [eax+8]
	call	?getElapsedGameTurns@CvGame@@QBEHXZ	; CvGame::getElapsedGameTurns

; 181  : }

	ret	4
?GetElapsedGameTurns@CvDllGame@@UBGHXZ ENDP		; CvDllGame::GetElapsedGameTurns
_TEXT	ENDS
PUBLIC	?GetFOW@CvDllGame@@UAG_NXZ			; CvDllGame::GetFOW
EXTRN	?getFOW@CvGame@@QAE_NXZ:PROC			; CvGame::getFOW
; Function compile flags: /Ogtpy
;	COMDAT ?GetFOW@CvDllGame@@UAG_NXZ
_TEXT	SEGMENT
_this$ = 8						; size = 4
?GetFOW@CvDllGame@@UAG_NXZ PROC				; CvDllGame::GetFOW, COMDAT

; 185  : 	return m_pGame->getFOW();

	mov	eax, DWORD PTR _this$[esp-4]
	mov	ecx, DWORD PTR [eax+8]
	call	?getFOW@CvGame@@QAE_NXZ			; CvGame::getFOW

; 186  : }

	ret	4
?GetFOW@CvDllGame@@UAG_NXZ ENDP				; CvDllGame::GetFOW
_TEXT	ENDS
PUBLIC	?GetGameDeals@CvDllGame@@UAGPAVICvGameDeals1@@XZ ; CvDllGame::GetGameDeals
EXTRN	??3CvDllGameDeals@@SAXPAX@Z:PROC		; CvDllGameDeals::operator delete
EXTRN	??0CvDllGameDeals@@QAE@PAVCvGameDeals@@@Z:PROC	; CvDllGameDeals::CvDllGameDeals
EXTRN	??2CvDllGameDeals@@SAPAXI@Z:PROC		; CvDllGameDeals::operator new
EXTRN	?GetGameDeals@CvGame@@QAEPAVCvGameDeals@@XZ:PROC ; CvGame::GetGameDeals
;	COMDAT xdata$x
xdata$x	SEGMENT
__unwindtable$?GetGameDeals@CvDllGame@@UAGPAVICvGameDeals1@@XZ DD 0ffffffffH
	DD	FLAT:__unwindfunclet$?GetGameDeals@CvDllGame@@UAGPAVICvGameDeals1@@XZ$0
__ehfuncinfo$?GetGameDeals@CvDllGame@@UAGPAVICvGameDeals1@@XZ DD 019930522H
	DD	01H
	DD	FLAT:__unwindtable$?GetGameDeals@CvDllGame@@UAGPAVICvGameDeals1@@XZ
	DD	2 DUP(00H)
	DD	2 DUP(00H)
	DD	00H
	DD	01H
; Function compile flags: /Ogtpy
xdata$x	ENDS
;	COMDAT ?GetGameDeals@CvDllGame@@UAGPAVICvGameDeals1@@XZ
_TEXT	SEGMENT
__$EHRec$ = -12						; size = 12
$T219770 = 8						; size = 4
_this$ = 8						; size = 4
?GetGameDeals@CvDllGame@@UAGPAVICvGameDeals1@@XZ PROC	; CvDllGame::GetGameDeals, COMDAT

; 189  : {

	mov	eax, DWORD PTR fs:0
	push	-1
	push	__ehhandler$?GetGameDeals@CvDllGame@@UAGPAVICvGameDeals1@@XZ
	push	eax
	mov	DWORD PTR fs:0, esp

; 190  : 	CvGameDeals* pGameDeals = m_pGame->GetGameDeals();

	mov	eax, DWORD PTR _this$[esp+8]
	mov	ecx, DWORD PTR [eax+8]
	push	esi
	call	?GetGameDeals@CvGame@@QAEPAVCvGameDeals@@XZ ; CvGame::GetGameDeals
	mov	esi, eax

; 191  : 	return (NULL != pGameDeals)? new CvDllGameDeals(pGameDeals) : NULL;

	test	esi, esi
	je	SHORT $LN5@GetGameDea
	push	12					; 0000000cH
	call	??2CvDllGameDeals@@SAPAXI@Z		; CvDllGameDeals::operator new
	add	esp, 4
	mov	DWORD PTR $T219770[esp+12], eax
	mov	DWORD PTR __$EHRec$[esp+24], 0
	test	eax, eax
	je	SHORT $LN5@GetGameDea
	push	esi
	mov	ecx, eax
	call	??0CvDllGameDeals@@QAE@PAVCvGameDeals@@@Z ; CvDllGameDeals::CvDllGameDeals

; 192  : }

	mov	ecx, DWORD PTR __$EHRec$[esp+16]
	mov	DWORD PTR fs:0, ecx
	pop	esi
	add	esp, 12					; 0000000cH
	ret	4
$LN5@GetGameDea:
	mov	ecx, DWORD PTR __$EHRec$[esp+16]
	xor	eax, eax
	mov	DWORD PTR fs:0, ecx
	pop	esi
	add	esp, 12					; 0000000cH
	ret	4
_TEXT	ENDS
;	COMDAT text$x
text$x	SEGMENT
__unwindfunclet$?GetGameDeals@CvDllGame@@UAGPAVICvGameDeals1@@XZ$0:
	mov	eax, DWORD PTR $T219770[ebp-4]
	push	eax
	call	??3CvDllGameDeals@@SAXPAX@Z		; CvDllGameDeals::operator delete
	pop	ecx
	ret	0
__ehhandler$?GetGameDeals@CvDllGame@@UAGPAVICvGameDeals1@@XZ:
	mov	eax, OFFSET __ehfuncinfo$?GetGameDeals@CvDllGame@@UAGPAVICvGameDeals1@@XZ
	jmp	___CxxFrameHandler3
text$x	ENDS
?GetGameDeals@CvDllGame@@UAGPAVICvGameDeals1@@XZ ENDP	; CvDllGame::GetGameDeals
PUBLIC	?GetGameSpeedType@CvDllGame@@UBG?AW4GameSpeedTypes@@XZ ; CvDllGame::GetGameSpeedType
EXTRN	?getGameSpeedType@CvGame@@QBE?AW4GameSpeedTypes@@XZ:PROC ; CvGame::getGameSpeedType
; Function compile flags: /Ogtpy
;	COMDAT ?GetGameSpeedType@CvDllGame@@UBG?AW4GameSpeedTypes@@XZ
_TEXT	SEGMENT
_this$ = 8						; size = 4
?GetGameSpeedType@CvDllGame@@UBG?AW4GameSpeedTypes@@XZ PROC ; CvDllGame::GetGameSpeedType, COMDAT

; 196  : 	return m_pGame->getGameSpeedType();

	mov	eax, DWORD PTR _this$[esp-4]
	mov	ecx, DWORD PTR [eax+8]
	call	?getGameSpeedType@CvGame@@QBE?AW4GameSpeedTypes@@XZ ; CvGame::getGameSpeedType

; 197  : }

	ret	4
?GetGameSpeedType@CvDllGame@@UBG?AW4GameSpeedTypes@@XZ ENDP ; CvDllGame::GetGameSpeedType
_TEXT	ENDS
PUBLIC	?GetGameState@CvDllGame@@UAG?AW4GameStateTypes@@XZ ; CvDllGame::GetGameState
EXTRN	?getGameState@CvGame@@QAE?AW4GameStateTypes@@XZ:PROC ; CvGame::getGameState
; Function compile flags: /Ogtpy
;	COMDAT ?GetGameState@CvDllGame@@UAG?AW4GameStateTypes@@XZ
_TEXT	SEGMENT
_this$ = 8						; size = 4
?GetGameState@CvDllGame@@UAG?AW4GameStateTypes@@XZ PROC	; CvDllGame::GetGameState, COMDAT

; 201  : 	return m_pGame->getGameState();

	mov	eax, DWORD PTR _this$[esp-4]
	mov	ecx, DWORD PTR [eax+8]
	call	?getGameState@CvGame@@QAE?AW4GameStateTypes@@XZ ; CvGame::getGameState

; 202  : }

	ret	4
?GetGameState@CvDllGame@@UAG?AW4GameStateTypes@@XZ ENDP	; CvDllGame::GetGameState
_TEXT	ENDS
PUBLIC	?GetHandicapType@CvDllGame@@UBG?AW4HandicapTypes@@XZ ; CvDllGame::GetHandicapType
EXTRN	?getHandicapType@CvGame@@QBE?AW4HandicapTypes@@XZ:PROC ; CvGame::getHandicapType
; Function compile flags: /Ogtpy
;	COMDAT ?GetHandicapType@CvDllGame@@UBG?AW4HandicapTypes@@XZ
_TEXT	SEGMENT
_this$ = 8						; size = 4
?GetHandicapType@CvDllGame@@UBG?AW4HandicapTypes@@XZ PROC ; CvDllGame::GetHandicapType, COMDAT

; 206  : 	return m_pGame->getHandicapType();

	mov	eax, DWORD PTR _this$[esp-4]
	mov	ecx, DWORD PTR [eax+8]
	call	?getHandicapType@CvGame@@QBE?AW4HandicapTypes@@XZ ; CvGame::getHandicapType

; 207  : }

	ret	4
?GetHandicapType@CvDllGame@@UBG?AW4HandicapTypes@@XZ ENDP ; CvDllGame::GetHandicapType
_TEXT	ENDS
PUBLIC	?GetRandomNumberGenerator@CvDllGame@@UAGPAVICvRandom1@@XZ ; CvDllGame::GetRandomNumberGenerator
EXTRN	??3CvDllRandom@@SAXPAX@Z:PROC			; CvDllRandom::operator delete
EXTRN	??0CvDllRandom@@QAE@PAVCvRandom@@@Z:PROC	; CvDllRandom::CvDllRandom
EXTRN	?getJonRand@CvGame@@QAEAAVCvRandom@@XZ:PROC	; CvGame::getJonRand
EXTRN	??2CvDllRandom@@SAPAXI@Z:PROC			; CvDllRandom::operator new
;	COMDAT xdata$x
xdata$x	SEGMENT
__unwindtable$?GetRandomNumberGenerator@CvDllGame@@UAGPAVICvRandom1@@XZ DD 0ffffffffH
	DD	FLAT:__unwindfunclet$?GetRandomNumberGenerator@CvDllGame@@UAGPAVICvRandom1@@XZ$0
__ehfuncinfo$?GetRandomNumberGenerator@CvDllGame@@UAGPAVICvRandom1@@XZ DD 019930522H
	DD	01H
	DD	FLAT:__unwindtable$?GetRandomNumberGenerator@CvDllGame@@UAGPAVICvRandom1@@XZ
	DD	2 DUP(00H)
	DD	2 DUP(00H)
	DD	00H
	DD	01H
; Function compile flags: /Ogtpy
xdata$x	ENDS
;	COMDAT ?GetRandomNumberGenerator@CvDllGame@@UAGPAVICvRandom1@@XZ
_TEXT	SEGMENT
$T219795 = -16						; size = 4
__$EHRec$ = -12						; size = 12
_this$ = 8						; size = 4
?GetRandomNumberGenerator@CvDllGame@@UAGPAVICvRandom1@@XZ PROC ; CvDllGame::GetRandomNumberGenerator, COMDAT

; 210  : {

	push	-1
	push	__ehhandler$?GetRandomNumberGenerator@CvDllGame@@UAGPAVICvRandom1@@XZ
	mov	eax, DWORD PTR fs:0
	push	eax
	mov	DWORD PTR fs:0, esp
	push	ecx
	push	esi

; 211  : 	return new CvDllRandom(&m_pGame->getJonRand());

	push	12					; 0000000cH
	call	??2CvDllRandom@@SAPAXI@Z		; CvDllRandom::operator new
	mov	esi, eax
	add	esp, 4
	mov	DWORD PTR $T219795[esp+20], esi
	xor	eax, eax
	mov	DWORD PTR __$EHRec$[esp+28], eax
	cmp	esi, eax
	je	SHORT $LN4@GetRandomN
	mov	eax, DWORD PTR _this$[esp+16]
	mov	ecx, DWORD PTR [eax+8]
	call	?getJonRand@CvGame@@QAEAAVCvRandom@@XZ	; CvGame::getJonRand
	push	eax
	mov	ecx, esi
	call	??0CvDllRandom@@QAE@PAVCvRandom@@@Z	; CvDllRandom::CvDllRandom
$LN4@GetRandomN:

; 212  : }

	mov	ecx, DWORD PTR __$EHRec$[esp+20]
	pop	esi
	mov	DWORD PTR fs:0, ecx
	add	esp, 16					; 00000010H
	ret	4
_TEXT	ENDS
;	COMDAT text$x
text$x	SEGMENT
__unwindfunclet$?GetRandomNumberGenerator@CvDllGame@@UAGPAVICvRandom1@@XZ$0:
	mov	eax, DWORD PTR $T219795[ebp]
	push	eax
	call	??3CvDllRandom@@SAXPAX@Z		; CvDllRandom::operator delete
	pop	ecx
	ret	0
__ehhandler$?GetRandomNumberGenerator@CvDllGame@@UAGPAVICvRandom1@@XZ:
	mov	eax, OFFSET __ehfuncinfo$?GetRandomNumberGenerator@CvDllGame@@UAGPAVICvRandom1@@XZ
	jmp	___CxxFrameHandler3
text$x	ENDS
?GetRandomNumberGenerator@CvDllGame@@UAGPAVICvRandom1@@XZ ENDP ; CvDllGame::GetRandomNumberGenerator
PUBLIC	?GetJonRandNum@CvDllGame@@UAGHHPBD@Z		; CvDllGame::GetJonRandNum
EXTRN	?getJonRandNum@CvGame@@QAEHHPBD@Z:PROC		; CvGame::getJonRandNum
; Function compile flags: /Ogtpy
;	COMDAT ?GetJonRandNum@CvDllGame@@UAGHHPBD@Z
_TEXT	SEGMENT
_this$ = 8						; size = 4
_iNum$ = 12						; size = 4
_pszLog$ = 16						; size = 4
?GetJonRandNum@CvDllGame@@UAGHHPBD@Z PROC		; CvDllGame::GetJonRandNum, COMDAT

; 216  : 	return m_pGame->getJonRandNum(iNum, pszLog);

	mov	eax, DWORD PTR _pszLog$[esp-4]
	mov	ecx, DWORD PTR _iNum$[esp-4]
	mov	edx, DWORD PTR _this$[esp-4]
	push	eax
	push	ecx
	mov	ecx, DWORD PTR [edx+8]
	call	?getJonRandNum@CvGame@@QAEHHPBD@Z	; CvGame::getJonRandNum

; 217  : }

	ret	12					; 0000000cH
?GetJonRandNum@CvDllGame@@UAGHHPBD@Z ENDP		; CvDllGame::GetJonRandNum
_TEXT	ENDS
PUBLIC	?GetMaxTurns@CvDllGame@@UBGHXZ			; CvDllGame::GetMaxTurns
EXTRN	?getMaxTurns@CvGame@@QBEHXZ:PROC		; CvGame::getMaxTurns
; Function compile flags: /Ogtpy
;	COMDAT ?GetMaxTurns@CvDllGame@@UBGHXZ
_TEXT	SEGMENT
_this$ = 8						; size = 4
?GetMaxTurns@CvDllGame@@UBGHXZ PROC			; CvDllGame::GetMaxTurns, COMDAT

; 221  : 	return m_pGame->getMaxTurns();

	mov	eax, DWORD PTR _this$[esp-4]
	mov	ecx, DWORD PTR [eax+8]
	call	?getMaxTurns@CvGame@@QBEHXZ		; CvGame::getMaxTurns

; 222  : }

	ret	4
?GetMaxTurns@CvDllGame@@UBGHXZ ENDP			; CvDllGame::GetMaxTurns
_TEXT	ENDS
PUBLIC	?GetNumGameTurnActive@CvDllGame@@UAGHXZ		; CvDllGame::GetNumGameTurnActive
EXTRN	?getNumGameTurnActive@CvGame@@QAEHXZ:PROC	; CvGame::getNumGameTurnActive
; Function compile flags: /Ogtpy
;	COMDAT ?GetNumGameTurnActive@CvDllGame@@UAGHXZ
_TEXT	SEGMENT
_this$ = 8						; size = 4
?GetNumGameTurnActive@CvDllGame@@UAGHXZ PROC		; CvDllGame::GetNumGameTurnActive, COMDAT

; 226  : 	return m_pGame->getNumGameTurnActive();

	mov	eax, DWORD PTR _this$[esp-4]
	mov	ecx, DWORD PTR [eax+8]
	call	?getNumGameTurnActive@CvGame@@QAEHXZ	; CvGame::getNumGameTurnActive

; 227  : }

	ret	4
?GetNumGameTurnActive@CvDllGame@@UAGHXZ ENDP		; CvDllGame::GetNumGameTurnActive
_TEXT	ENDS
PUBLIC	?GetPausePlayer@CvDllGame@@UAG?AW4PlayerTypes@@XZ ; CvDllGame::GetPausePlayer
EXTRN	?getPausePlayer@CvGame@@QAE?AW4PlayerTypes@@XZ:PROC ; CvGame::getPausePlayer
; Function compile flags: /Ogtpy
;	COMDAT ?GetPausePlayer@CvDllGame@@UAG?AW4PlayerTypes@@XZ
_TEXT	SEGMENT
_this$ = 8						; size = 4
?GetPausePlayer@CvDllGame@@UAG?AW4PlayerTypes@@XZ PROC	; CvDllGame::GetPausePlayer, COMDAT

; 231  : 	return m_pGame->getPausePlayer();

	mov	eax, DWORD PTR _this$[esp-4]
	mov	ecx, DWORD PTR [eax+8]
	call	?getPausePlayer@CvGame@@QAE?AW4PlayerTypes@@XZ ; CvGame::getPausePlayer

; 232  : }

	ret	4
?GetPausePlayer@CvDllGame@@UAG?AW4PlayerTypes@@XZ ENDP	; CvDllGame::GetPausePlayer
_TEXT	ENDS
PUBLIC	?GetPbemTurnSent@CvDllGame@@UBG_NXZ		; CvDllGame::GetPbemTurnSent
EXTRN	?getPbemTurnSent@CvGame@@QBE_NXZ:PROC		; CvGame::getPbemTurnSent
; Function compile flags: /Ogtpy
;	COMDAT ?GetPbemTurnSent@CvDllGame@@UBG_NXZ
_TEXT	SEGMENT
_this$ = 8						; size = 4
?GetPbemTurnSent@CvDllGame@@UBG_NXZ PROC		; CvDllGame::GetPbemTurnSent, COMDAT

; 236  : 	return m_pGame->getPbemTurnSent();

	mov	eax, DWORD PTR _this$[esp-4]
	mov	ecx, DWORD PTR [eax+8]
	call	?getPbemTurnSent@CvGame@@QBE_NXZ	; CvGame::getPbemTurnSent

; 237  : }

	ret	4
?GetPbemTurnSent@CvDllGame@@UBG_NXZ ENDP		; CvDllGame::GetPbemTurnSent
_TEXT	ENDS
PUBLIC	?GetPlotUnit@CvDllGame@@UAGPAVICvUnit1@@PAVICvPlot1@@H@Z ; CvDllGame::GetPlotUnit
EXTRN	??3CvDllUnit@@SAXPAX@Z:PROC			; CvDllUnit::operator delete
EXTRN	??0CvDllUnit@@QAE@PAVCvUnit@@@Z:PROC		; CvDllUnit::CvDllUnit
EXTRN	??2CvDllUnit@@SAPAXI@Z:PROC			; CvDllUnit::operator new
EXTRN	?getPlotUnit@CvGame@@QAEPAVCvUnit@@PAVCvPlot@@H@Z:PROC ; CvGame::getPlotUnit
;	COMDAT xdata$x
xdata$x	SEGMENT
__unwindtable$?GetPlotUnit@CvDllGame@@UAGPAVICvUnit1@@PAVICvPlot1@@H@Z DD 0ffffffffH
	DD	FLAT:__unwindfunclet$?GetPlotUnit@CvDllGame@@UAGPAVICvUnit1@@PAVICvPlot1@@H@Z$0
__ehfuncinfo$?GetPlotUnit@CvDllGame@@UAGPAVICvUnit1@@PAVICvPlot1@@H@Z DD 019930522H
	DD	01H
	DD	FLAT:__unwindtable$?GetPlotUnit@CvDllGame@@UAGPAVICvUnit1@@PAVICvPlot1@@H@Z
	DD	2 DUP(00H)
	DD	2 DUP(00H)
	DD	00H
	DD	01H
; Function compile flags: /Ogtpy
xdata$x	ENDS
;	COMDAT ?GetPlotUnit@CvDllGame@@UAGPAVICvUnit1@@PAVICvPlot1@@H@Z
_TEXT	SEGMENT
__$EHRec$ = -12						; size = 12
_this$ = 8						; size = 4
$T219826 = 12						; size = 4
_pPlot$ = 12						; size = 4
_iIndex$ = 16						; size = 4
?GetPlotUnit@CvDllGame@@UAGPAVICvUnit1@@PAVICvPlot1@@H@Z PROC ; CvDllGame::GetPlotUnit, COMDAT

; 240  : {

	mov	eax, DWORD PTR fs:0
	push	-1
	push	__ehhandler$?GetPlotUnit@CvDllGame@@UAGPAVICvUnit1@@PAVICvPlot1@@H@Z
	push	eax
	mov	DWORD PTR fs:0, esp

; 241  : 	CvPlot* pkPlot = (NULL != pPlot)? static_cast<CvDllPlot*>(pPlot)->GetInstance() : NULL;

	mov	ecx, DWORD PTR _pPlot$[esp+8]
	push	esi
	test	ecx, ecx
	je	SHORT $LN3@GetPlotUni
	call	?GetInstance@CvDllPlot@@QAEPAVCvPlot@@XZ ; CvDllPlot::GetInstance
	jmp	SHORT $LN4@GetPlotUni
$LN3@GetPlotUni:
	xor	eax, eax
$LN4@GetPlotUni:

; 242  : 	CvUnit* pkUnit = m_pGame->getPlotUnit(pkPlot, iIndex);

	mov	ecx, DWORD PTR _iIndex$[esp+12]
	mov	edx, DWORD PTR _this$[esp+12]
	push	ecx
	mov	ecx, DWORD PTR [edx+8]
	push	eax
	call	?getPlotUnit@CvGame@@QAEPAVCvUnit@@PAVCvPlot@@H@Z ; CvGame::getPlotUnit
	mov	esi, eax

; 243  : 
; 244  : 	return (NULL != pkUnit)? new CvDllUnit(pkUnit) : NULL;

	test	esi, esi
	je	SHORT $LN7@GetPlotUni
	push	12					; 0000000cH
	call	??2CvDllUnit@@SAPAXI@Z			; CvDllUnit::operator new
	add	esp, 4
	mov	DWORD PTR $T219826[esp+12], eax
	mov	DWORD PTR __$EHRec$[esp+24], 0
	test	eax, eax
	je	SHORT $LN7@GetPlotUni
	push	esi
	mov	ecx, eax
	call	??0CvDllUnit@@QAE@PAVCvUnit@@@Z		; CvDllUnit::CvDllUnit

; 245  : }

	mov	ecx, DWORD PTR __$EHRec$[esp+16]
	mov	DWORD PTR fs:0, ecx
	pop	esi
	add	esp, 12					; 0000000cH
	ret	12					; 0000000cH
$LN7@GetPlotUni:
	mov	ecx, DWORD PTR __$EHRec$[esp+16]
	xor	eax, eax
	mov	DWORD PTR fs:0, ecx
	pop	esi
	add	esp, 12					; 0000000cH
	ret	12					; 0000000cH
_TEXT	ENDS
;	COMDAT text$x
text$x	SEGMENT
__unwindfunclet$?GetPlotUnit@CvDllGame@@UAGPAVICvUnit1@@PAVICvPlot1@@H@Z$0:
	mov	eax, DWORD PTR $T219826[ebp-4]
	push	eax
	call	??3CvDllUnit@@SAXPAX@Z			; CvDllUnit::operator delete
	pop	ecx
	ret	0
__ehhandler$?GetPlotUnit@CvDllGame@@UAGPAVICvUnit1@@PAVICvPlot1@@H@Z:
	mov	eax, OFFSET __ehfuncinfo$?GetPlotUnit@CvDllGame@@UAGPAVICvUnit1@@PAVICvPlot1@@H@Z
	jmp	___CxxFrameHandler3
text$x	ENDS
?GetPlotUnit@CvDllGame@@UAGPAVICvUnit1@@PAVICvPlot1@@H@Z ENDP ; CvDllGame::GetPlotUnit
PUBLIC	?GetVariableCitySizeFromPopulation@CvDllGame@@UAGII@Z ; CvDllGame::GetVariableCitySizeFromPopulation
EXTRN	?GetVariableCitySizeFromPopulation@CvGame@@QAEII@Z:PROC ; CvGame::GetVariableCitySizeFromPopulation
; Function compile flags: /Ogtpy
;	COMDAT ?GetVariableCitySizeFromPopulation@CvDllGame@@UAGII@Z
_TEXT	SEGMENT
_this$ = 8						; size = 4
_nPopulation$ = 12					; size = 4
?GetVariableCitySizeFromPopulation@CvDllGame@@UAGII@Z PROC ; CvDllGame::GetVariableCitySizeFromPopulation, COMDAT

; 249  : 	return m_pGame->GetVariableCitySizeFromPopulation(nPopulation);

	mov	eax, DWORD PTR _nPopulation$[esp-4]
	mov	ecx, DWORD PTR _this$[esp-4]
	mov	ecx, DWORD PTR [ecx+8]
	push	eax
	call	?GetVariableCitySizeFromPopulation@CvGame@@QAEII@Z ; CvGame::GetVariableCitySizeFromPopulation

; 250  : }

	ret	8
?GetVariableCitySizeFromPopulation@CvDllGame@@UAGII@Z ENDP ; CvDllGame::GetVariableCitySizeFromPopulation
_TEXT	ENDS
PUBLIC	?GetVictory@CvDllGame@@UBG?AW4VictoryTypes@@XZ	; CvDllGame::GetVictory
EXTRN	?getVictory@CvGame@@QBE?AW4VictoryTypes@@XZ:PROC ; CvGame::getVictory
; Function compile flags: /Ogtpy
;	COMDAT ?GetVictory@CvDllGame@@UBG?AW4VictoryTypes@@XZ
_TEXT	SEGMENT
_this$ = 8						; size = 4
?GetVictory@CvDllGame@@UBG?AW4VictoryTypes@@XZ PROC	; CvDllGame::GetVictory, COMDAT

; 254  : 	return m_pGame->getVictory();

	mov	eax, DWORD PTR _this$[esp-4]
	mov	ecx, DWORD PTR [eax+8]
	call	?getVictory@CvGame@@QBE?AW4VictoryTypes@@XZ ; CvGame::getVictory

; 255  : }

	ret	4
?GetVictory@CvDllGame@@UBG?AW4VictoryTypes@@XZ ENDP	; CvDllGame::GetVictory
_TEXT	ENDS
PUBLIC	?GetVotesNeededForDiploVictory@CvDllGame@@UBGHXZ ; CvDllGame::GetVotesNeededForDiploVictory
EXTRN	?GetVotesNeededForDiploVictory@CvGame@@QBEHXZ:PROC ; CvGame::GetVotesNeededForDiploVictory
; Function compile flags: /Ogtpy
;	COMDAT ?GetVotesNeededForDiploVictory@CvDllGame@@UBGHXZ
_TEXT	SEGMENT
_this$ = 8						; size = 4
?GetVotesNeededForDiploVictory@CvDllGame@@UBGHXZ PROC	; CvDllGame::GetVotesNeededForDiploVictory, COMDAT

; 259  : 	return m_pGame->GetVotesNeededForDiploVictory();

	mov	eax, DWORD PTR _this$[esp-4]
	mov	ecx, DWORD PTR [eax+8]
	call	?GetVotesNeededForDiploVictory@CvGame@@QBEHXZ ; CvGame::GetVotesNeededForDiploVictory

; 260  : }

	ret	4
?GetVotesNeededForDiploVictory@CvDllGame@@UBGHXZ ENDP	; CvDllGame::GetVotesNeededForDiploVictory
_TEXT	ENDS
PUBLIC	?GetWinner@CvDllGame@@UBG?AW4TeamTypes@@XZ	; CvDllGame::GetWinner
EXTRN	?getWinner@CvGame@@QBE?AW4TeamTypes@@XZ:PROC	; CvGame::getWinner
; Function compile flags: /Ogtpy
;	COMDAT ?GetWinner@CvDllGame@@UBG?AW4TeamTypes@@XZ
_TEXT	SEGMENT
_this$ = 8						; size = 4
?GetWinner@CvDllGame@@UBG?AW4TeamTypes@@XZ PROC		; CvDllGame::GetWinner, COMDAT

; 264  : 	return m_pGame->getWinner();

	mov	eax, DWORD PTR _this$[esp-4]
	mov	ecx, DWORD PTR [eax+8]
	call	?getWinner@CvGame@@QBE?AW4TeamTypes@@XZ	; CvGame::getWinner

; 265  : }

	ret	4
?GetWinner@CvDllGame@@UBG?AW4TeamTypes@@XZ ENDP		; CvDllGame::GetWinner
_TEXT	ENDS
PUBLIC	?GetWinningTurn@CvDllGame@@UBGHXZ		; CvDllGame::GetWinningTurn
EXTRN	?GetWinningTurn@CvGame@@QBEHXZ:PROC		; CvGame::GetWinningTurn
; Function compile flags: /Ogtpy
;	COMDAT ?GetWinningTurn@CvDllGame@@UBGHXZ
_TEXT	SEGMENT
_this$ = 8						; size = 4
?GetWinningTurn@CvDllGame@@UBGHXZ PROC			; CvDllGame::GetWinningTurn, COMDAT

; 269  : 	return m_pGame->GetWinningTurn();

	mov	eax, DWORD PTR _this$[esp-4]
	mov	ecx, DWORD PTR [eax+8]
	call	?GetWinningTurn@CvGame@@QBEHXZ		; CvGame::GetWinningTurn

; 270  : }

	ret	4
?GetWinningTurn@CvDllGame@@UBGHXZ ENDP			; CvDllGame::GetWinningTurn
_TEXT	ENDS
PUBLIC	?HandleAction@CvDllGame@@UAGXH@Z		; CvDllGame::HandleAction
EXTRN	?handleAction@CvGame@@QAEXH@Z:PROC		; CvGame::handleAction
; Function compile flags: /Ogtpy
;	COMDAT ?HandleAction@CvDllGame@@UAGXH@Z
_TEXT	SEGMENT
_this$ = 8						; size = 4
_iAction$ = 12						; size = 4
?HandleAction@CvDllGame@@UAGXH@Z PROC			; CvDllGame::HandleAction, COMDAT

; 274  : 	m_pGame->handleAction(iAction);

	mov	eax, DWORD PTR _iAction$[esp-4]
	mov	ecx, DWORD PTR _this$[esp-4]
	mov	ecx, DWORD PTR [ecx+8]
	push	eax
	call	?handleAction@CvGame@@QAEXH@Z		; CvGame::handleAction

; 275  : }

	ret	8
?HandleAction@CvDllGame@@UAGXH@Z ENDP			; CvDllGame::HandleAction
_TEXT	ENDS
PUBLIC	?HasTurnTimerExpired@CvDllGame@@UAG_NXZ		; CvDllGame::HasTurnTimerExpired
; Function compile flags: /Ogtpy
;	COMDAT ?HasTurnTimerExpired@CvDllGame@@UAG_NXZ
_TEXT	SEGMENT
_this$ = 8						; size = 4
?HasTurnTimerExpired@CvDllGame@@UAG_NXZ PROC		; CvDllGame::HasTurnTimerExpired, COMDAT

; 279  : 	CvAssertMsg(0, "Obsolete");
; 280  : 	return false;

	xor	al, al

; 281  : }

	ret	4
?HasTurnTimerExpired@CvDllGame@@UAG_NXZ ENDP		; CvDllGame::HasTurnTimerExpired
_TEXT	ENDS
PUBLIC	?HasTurnTimerExpired@CvDllGame@@UAG_NW4PlayerTypes@@@Z ; CvDllGame::HasTurnTimerExpired
EXTRN	?hasTurnTimerExpired@CvGame@@QAE_NW4PlayerTypes@@@Z:PROC ; CvGame::hasTurnTimerExpired
; Function compile flags: /Ogtpy
;	COMDAT ?HasTurnTimerExpired@CvDllGame@@UAG_NW4PlayerTypes@@@Z
_TEXT	SEGMENT
_this$ = 8						; size = 4
_playerID$ = 12						; size = 4
?HasTurnTimerExpired@CvDllGame@@UAG_NW4PlayerTypes@@@Z PROC ; CvDllGame::HasTurnTimerExpired, COMDAT

; 285  : 	return m_pGame->hasTurnTimerExpired(playerID);

	mov	eax, DWORD PTR _playerID$[esp-4]
	mov	ecx, DWORD PTR _this$[esp-4]
	mov	ecx, DWORD PTR [ecx+8]
	push	eax
	call	?hasTurnTimerExpired@CvGame@@QAE_NW4PlayerTypes@@@Z ; CvGame::hasTurnTimerExpired

; 286  : }

	ret	8
?HasTurnTimerExpired@CvDllGame@@UAG_NW4PlayerTypes@@@Z ENDP ; CvDllGame::HasTurnTimerExpired
_TEXT	ENDS
PUBLIC	?TurnTimerSync@CvDllGame@@UAGXMM@Z		; CvDllGame::TurnTimerSync
EXTRN	?TurnTimerSync@CvGame@@QAEXMM@Z:PROC		; CvGame::TurnTimerSync
EXTRN	__fltused:DWORD
; Function compile flags: /Ogtpy
;	COMDAT ?TurnTimerSync@CvDllGame@@UAGXMM@Z
_TEXT	SEGMENT
_this$ = 8						; size = 4
_fCurTurnTime$ = 12					; size = 4
_fTurnStartTime$ = 16					; size = 4
?TurnTimerSync@CvDllGame@@UAGXMM@Z PROC			; CvDllGame::TurnTimerSync, COMDAT

; 290  : 	return m_pGame->TurnTimerSync(fCurTurnTime, fTurnStartTime);

	mov	eax, DWORD PTR _fTurnStartTime$[esp-4]
	mov	ecx, DWORD PTR _fCurTurnTime$[esp-4]
	mov	edx, DWORD PTR _this$[esp-4]
	sub	esp, 8
	mov	DWORD PTR [esp+4], eax
	mov	DWORD PTR [esp], ecx
	mov	ecx, DWORD PTR [edx+8]
	call	?TurnTimerSync@CvGame@@QAEXMM@Z		; CvGame::TurnTimerSync

; 291  : }

	ret	12					; 0000000cH
?TurnTimerSync@CvDllGame@@UAGXMM@Z ENDP			; CvDllGame::TurnTimerSync
_TEXT	ENDS
PUBLIC	?GetTurnTimerData@CvDllGame@@UAGXAAM0@Z		; CvDllGame::GetTurnTimerData
EXTRN	?GetTurnTimerData@CvGame@@QAEXAAM0@Z:PROC	; CvGame::GetTurnTimerData
; Function compile flags: /Ogtpy
;	COMDAT ?GetTurnTimerData@CvDllGame@@UAGXAAM0@Z
_TEXT	SEGMENT
_this$ = 8						; size = 4
_fCurTurnTime$ = 12					; size = 4
_fTurnStartTime$ = 16					; size = 4
?GetTurnTimerData@CvDllGame@@UAGXAAM0@Z PROC		; CvDllGame::GetTurnTimerData, COMDAT

; 295  : 	return m_pGame->GetTurnTimerData(fCurTurnTime, fTurnStartTime);

	mov	eax, DWORD PTR _fTurnStartTime$[esp-4]
	mov	ecx, DWORD PTR _fCurTurnTime$[esp-4]
	mov	edx, DWORD PTR _this$[esp-4]
	push	eax
	push	ecx
	mov	ecx, DWORD PTR [edx+8]
	call	?GetTurnTimerData@CvGame@@QAEXAAM0@Z	; CvGame::GetTurnTimerData

; 296  : }

	ret	12					; 0000000cH
?GetTurnTimerData@CvDllGame@@UAGXAAM0@Z ENDP		; CvDllGame::GetTurnTimerData
_TEXT	ENDS
PUBLIC	?Init@CvDllGame@@UAGXW4HandicapTypes@@@Z	; CvDllGame::Init
EXTRN	?init@CvGame@@QAEXW4HandicapTypes@@@Z:PROC	; CvGame::init
; Function compile flags: /Ogtpy
;	COMDAT ?Init@CvDllGame@@UAGXW4HandicapTypes@@@Z
_TEXT	SEGMENT
_this$ = 8						; size = 4
_eHandicap$ = 12					; size = 4
?Init@CvDllGame@@UAGXW4HandicapTypes@@@Z PROC		; CvDllGame::Init, COMDAT

; 300  : 	m_pGame->init(eHandicap);

	mov	eax, DWORD PTR _eHandicap$[esp-4]
	mov	ecx, DWORD PTR _this$[esp-4]
	mov	ecx, DWORD PTR [ecx+8]
	push	eax
	call	?init@CvGame@@QAEXW4HandicapTypes@@@Z	; CvGame::init

; 301  : }

	ret	8
?Init@CvDllGame@@UAGXW4HandicapTypes@@@Z ENDP		; CvDllGame::Init
_TEXT	ENDS
PUBLIC	?Init2@CvDllGame@@UAG_NXZ			; CvDllGame::Init2
EXTRN	?init2@CvGame@@QAE_NXZ:PROC			; CvGame::init2
; Function compile flags: /Ogtpy
;	COMDAT ?Init2@CvDllGame@@UAG_NXZ
_TEXT	SEGMENT
_this$ = 8						; size = 4
?Init2@CvDllGame@@UAG_NXZ PROC				; CvDllGame::Init2, COMDAT

; 305  : 	return m_pGame->init2();

	mov	eax, DWORD PTR _this$[esp-4]
	mov	ecx, DWORD PTR [eax+8]
	call	?init2@CvGame@@QAE_NXZ			; CvGame::init2

; 306  : }

	ret	4
?Init2@CvDllGame@@UAG_NXZ ENDP				; CvDllGame::Init2
_TEXT	ENDS
PUBLIC	?InitScoreCalculation@CvDllGame@@UAGXXZ		; CvDllGame::InitScoreCalculation
EXTRN	?initScoreCalculation@CvGame@@QAEXXZ:PROC	; CvGame::initScoreCalculation
; Function compile flags: /Ogtpy
;	COMDAT ?InitScoreCalculation@CvDllGame@@UAGXXZ
_TEXT	SEGMENT
_this$ = 8						; size = 4
?InitScoreCalculation@CvDllGame@@UAGXXZ PROC		; CvDllGame::InitScoreCalculation, COMDAT

; 310  : 	m_pGame->initScoreCalculation();

	mov	eax, DWORD PTR _this$[esp-4]
	mov	ecx, DWORD PTR [eax+8]
	call	?initScoreCalculation@CvGame@@QAEXXZ	; CvGame::initScoreCalculation

; 311  : }

	ret	4
?InitScoreCalculation@CvDllGame@@UAGXXZ ENDP		; CvDllGame::InitScoreCalculation
_TEXT	ENDS
PUBLIC	?InitTacticalAnalysisMap@CvDllGame@@UAGXH@Z	; CvDllGame::InitTacticalAnalysisMap
EXTRN	?Init@CvTacticalAnalysisMap@@QAEXH@Z:PROC	; CvTacticalAnalysisMap::Init
EXTRN	?GetTacticalAnalysisMap@CvGame@@QAEPAVCvTacticalAnalysisMap@@XZ:PROC ; CvGame::GetTacticalAnalysisMap
; Function compile flags: /Ogtpy
;	COMDAT ?InitTacticalAnalysisMap@CvDllGame@@UAGXH@Z
_TEXT	SEGMENT
_this$ = 8						; size = 4
_iNumPlots$ = 12					; size = 4
?InitTacticalAnalysisMap@CvDllGame@@UAGXH@Z PROC	; CvDllGame::InitTacticalAnalysisMap, COMDAT

; 315  : 	m_pGame->GetTacticalAnalysisMap()->Init(iNumPlots);

	mov	eax, DWORD PTR _iNumPlots$[esp-4]
	mov	ecx, DWORD PTR _this$[esp-4]
	mov	ecx, DWORD PTR [ecx+8]
	push	eax
	call	?GetTacticalAnalysisMap@CvGame@@QAEPAVCvTacticalAnalysisMap@@XZ ; CvGame::GetTacticalAnalysisMap
	mov	ecx, eax
	call	?Init@CvTacticalAnalysisMap@@QAEXH@Z	; CvTacticalAnalysisMap::Init

; 316  : }

	ret	8
?InitTacticalAnalysisMap@CvDllGame@@UAGXH@Z ENDP	; CvDllGame::InitTacticalAnalysisMap
_TEXT	ENDS
PUBLIC	?IsCityScreenBlocked@CvDllGame@@UAG_NXZ		; CvDllGame::IsCityScreenBlocked
EXTRN	?IsCityScreenBlocked@CvGame@@QAE_NXZ:PROC	; CvGame::IsCityScreenBlocked
; Function compile flags: /Ogtpy
;	COMDAT ?IsCityScreenBlocked@CvDllGame@@UAG_NXZ
_TEXT	SEGMENT
_this$ = 8						; size = 4
?IsCityScreenBlocked@CvDllGame@@UAG_NXZ PROC		; CvDllGame::IsCityScreenBlocked, COMDAT

; 320  : 	return m_pGame->IsCityScreenBlocked();

	mov	eax, DWORD PTR _this$[esp-4]
	mov	ecx, DWORD PTR [eax+8]
	call	?IsCityScreenBlocked@CvGame@@QAE_NXZ	; CvGame::IsCityScreenBlocked

; 321  : }

	ret	4
?IsCityScreenBlocked@CvDllGame@@UAG_NXZ ENDP		; CvDllGame::IsCityScreenBlocked
_TEXT	ENDS
PUBLIC	?CanOpenCityScreen@CvDllGame@@UAG_NW4PlayerTypes@@PAVICvCity1@@@Z ; CvDllGame::CanOpenCityScreen
EXTRN	?CanOpenCityScreen@CvGame@@QAE_NW4PlayerTypes@@PAVCvCity@@@Z:PROC ; CvGame::CanOpenCityScreen
EXTRN	?UnwrapCityPointer@CvGlobals@@QAEPAVCvCity@@PAVICvCity1@@@Z:PROC ; CvGlobals::UnwrapCityPointer
EXTRN	?gGlobals@@3VCvGlobals@@A:BYTE			; gGlobals
; Function compile flags: /Ogtpy
;	COMDAT ?CanOpenCityScreen@CvDllGame@@UAG_NW4PlayerTypes@@PAVICvCity1@@@Z
_TEXT	SEGMENT
_this$ = 8						; size = 4
_eOpener$ = 12						; size = 4
_pkCity$ = 16						; size = 4
?CanOpenCityScreen@CvDllGame@@UAG_NW4PlayerTypes@@PAVICvCity1@@@Z PROC ; CvDllGame::CanOpenCityScreen, COMDAT

; 325  : 	CvCity* pCity = GC.UnwrapCityPointer(pkCity);

	mov	eax, DWORD PTR _pkCity$[esp-4]
	push	eax
	mov	ecx, OFFSET ?gGlobals@@3VCvGlobals@@A	; gGlobals
	call	?UnwrapCityPointer@CvGlobals@@QAEPAVCvCity@@PAVICvCity1@@@Z ; CvGlobals::UnwrapCityPointer

; 326  : 	return m_pGame->CanOpenCityScreen(eOpener, pCity);

	mov	ecx, DWORD PTR _eOpener$[esp-4]
	mov	edx, DWORD PTR _this$[esp-4]
	push	eax
	push	ecx
	mov	ecx, DWORD PTR [edx+8]
	call	?CanOpenCityScreen@CvGame@@QAE_NW4PlayerTypes@@PAVCvCity@@@Z ; CvGame::CanOpenCityScreen

; 327  : }

	ret	12					; 0000000cH
?CanOpenCityScreen@CvDllGame@@UAG_NW4PlayerTypes@@PAVICvCity1@@@Z ENDP ; CvDllGame::CanOpenCityScreen
_TEXT	ENDS
PUBLIC	?IsDebugMode@CvDllGame@@UBG_NXZ			; CvDllGame::IsDebugMode
EXTRN	?isDebugMode@CvGame@@QBE_NXZ:PROC		; CvGame::isDebugMode
; Function compile flags: /Ogtpy
;	COMDAT ?IsDebugMode@CvDllGame@@UBG_NXZ
_TEXT	SEGMENT
_this$ = 8						; size = 4
?IsDebugMode@CvDllGame@@UBG_NXZ PROC			; CvDllGame::IsDebugMode, COMDAT

; 331  : 	return m_pGame->isDebugMode();

	mov	eax, DWORD PTR _this$[esp-4]
	mov	ecx, DWORD PTR [eax+8]
	call	?isDebugMode@CvGame@@QBE_NXZ		; CvGame::isDebugMode

; 332  : }

	ret	4
?IsDebugMode@CvDllGame@@UBG_NXZ ENDP			; CvDllGame::IsDebugMode
_TEXT	ENDS
PUBLIC	?IsFinalInitialized@CvDllGame@@UBG_NXZ		; CvDllGame::IsFinalInitialized
EXTRN	?isFinalInitialized@CvGame@@QBE_NXZ:PROC	; CvGame::isFinalInitialized
; Function compile flags: /Ogtpy
;	COMDAT ?IsFinalInitialized@CvDllGame@@UBG_NXZ
_TEXT	SEGMENT
_this$ = 8						; size = 4
?IsFinalInitialized@CvDllGame@@UBG_NXZ PROC		; CvDllGame::IsFinalInitialized, COMDAT

; 336  : 	return m_pGame->isFinalInitialized();

	mov	eax, DWORD PTR _this$[esp-4]
	mov	ecx, DWORD PTR [eax+8]
	call	?isFinalInitialized@CvGame@@QBE_NXZ	; CvGame::isFinalInitialized

; 337  : }

	ret	4
?IsFinalInitialized@CvDllGame@@UBG_NXZ ENDP		; CvDllGame::IsFinalInitialized
_TEXT	ENDS
PUBLIC	?IsGameMultiPlayer@CvDllGame@@UBG_NXZ		; CvDllGame::IsGameMultiPlayer
EXTRN	?isGameMultiPlayer@CvGame@@QBE_NXZ:PROC		; CvGame::isGameMultiPlayer
; Function compile flags: /Ogtpy
;	COMDAT ?IsGameMultiPlayer@CvDllGame@@UBG_NXZ
_TEXT	SEGMENT
_this$ = 8						; size = 4
?IsGameMultiPlayer@CvDllGame@@UBG_NXZ PROC		; CvDllGame::IsGameMultiPlayer, COMDAT

; 341  : 	return m_pGame->isGameMultiPlayer();

	mov	eax, DWORD PTR _this$[esp-4]
	mov	ecx, DWORD PTR [eax+8]
	call	?isGameMultiPlayer@CvGame@@QBE_NXZ	; CvGame::isGameMultiPlayer

; 342  : }

	ret	4
?IsGameMultiPlayer@CvDllGame@@UBG_NXZ ENDP		; CvDllGame::IsGameMultiPlayer
_TEXT	ENDS
PUBLIC	?IsHotSeat@CvDllGame@@UBG_NXZ			; CvDllGame::IsHotSeat
EXTRN	?isHotSeat@CvGame@@QBE_NXZ:PROC			; CvGame::isHotSeat
; Function compile flags: /Ogtpy
;	COMDAT ?IsHotSeat@CvDllGame@@UBG_NXZ
_TEXT	SEGMENT
_this$ = 8						; size = 4
?IsHotSeat@CvDllGame@@UBG_NXZ PROC			; CvDllGame::IsHotSeat, COMDAT

; 346  : 	return m_pGame->isHotSeat();

	mov	eax, DWORD PTR _this$[esp-4]
	mov	ecx, DWORD PTR [eax+8]
	call	?isHotSeat@CvGame@@QBE_NXZ		; CvGame::isHotSeat

; 347  : }

	ret	4
?IsHotSeat@CvDllGame@@UBG_NXZ ENDP			; CvDllGame::IsHotSeat
_TEXT	ENDS
PUBLIC	?IsMPOption@CvDllGame@@UBE_NW4MultiplayerOptionTypes@@@Z ; CvDllGame::IsMPOption
EXTRN	?isMPOption@CvGame@@QBE_NW4MultiplayerOptionTypes@@@Z:PROC ; CvGame::isMPOption
; Function compile flags: /Ogtpy
;	COMDAT ?IsMPOption@CvDllGame@@UBE_NW4MultiplayerOptionTypes@@@Z
_TEXT	SEGMENT
_eIndex$ = 8						; size = 4
?IsMPOption@CvDllGame@@UBE_NW4MultiplayerOptionTypes@@@Z PROC ; CvDllGame::IsMPOption, COMDAT
; _this$ = ecx

; 351  : 	return m_pGame->isMPOption(eIndex);

	mov	ecx, DWORD PTR [ecx+8]
	jmp	?isMPOption@CvGame@@QBE_NW4MultiplayerOptionTypes@@@Z ; CvGame::isMPOption
?IsMPOption@CvDllGame@@UBE_NW4MultiplayerOptionTypes@@@Z ENDP ; CvDllGame::IsMPOption
_TEXT	ENDS
PUBLIC	?IsNetworkMultiPlayer@CvDllGame@@UBG_NXZ	; CvDllGame::IsNetworkMultiPlayer
EXTRN	?isNetworkMultiPlayer@CvGame@@QBE_NXZ:PROC	; CvGame::isNetworkMultiPlayer
; Function compile flags: /Ogtpy
;	COMDAT ?IsNetworkMultiPlayer@CvDllGame@@UBG_NXZ
_TEXT	SEGMENT
_this$ = 8						; size = 4
?IsNetworkMultiPlayer@CvDllGame@@UBG_NXZ PROC		; CvDllGame::IsNetworkMultiPlayer, COMDAT

; 356  : 	return m_pGame->isNetworkMultiPlayer();

	mov	eax, DWORD PTR _this$[esp-4]
	mov	ecx, DWORD PTR [eax+8]
	call	?isNetworkMultiPlayer@CvGame@@QBE_NXZ	; CvGame::isNetworkMultiPlayer

; 357  : }

	ret	4
?IsNetworkMultiPlayer@CvDllGame@@UBG_NXZ ENDP		; CvDllGame::IsNetworkMultiPlayer
_TEXT	ENDS
PUBLIC	?IsOption@CvDllGame@@UBE_NW4GameOptionTypes@@@Z	; CvDllGame::IsOption
EXTRN	?isOption@CvGame@@QBE_NW4GameOptionTypes@@@Z:PROC ; CvGame::isOption
; Function compile flags: /Ogtpy
;	COMDAT ?IsOption@CvDllGame@@UBE_NW4GameOptionTypes@@@Z
_TEXT	SEGMENT
_eIndex$ = 8						; size = 4
?IsOption@CvDllGame@@UBE_NW4GameOptionTypes@@@Z PROC	; CvDllGame::IsOption, COMDAT
; _this$ = ecx

; 361  : 	return m_pGame->isOption(eIndex);

	mov	ecx, DWORD PTR [ecx+8]
	jmp	?isOption@CvGame@@QBE_NW4GameOptionTypes@@@Z ; CvGame::isOption
?IsOption@CvDllGame@@UBE_NW4GameOptionTypes@@@Z ENDP	; CvDllGame::IsOption
_TEXT	ENDS
PUBLIC	?IsPaused@CvDllGame@@UAG_NXZ			; CvDllGame::IsPaused
EXTRN	?isPaused@CvGame@@QAE_NXZ:PROC			; CvGame::isPaused
; Function compile flags: /Ogtpy
;	COMDAT ?IsPaused@CvDllGame@@UAG_NXZ
_TEXT	SEGMENT
_this$ = 8						; size = 4
?IsPaused@CvDllGame@@UAG_NXZ PROC			; CvDllGame::IsPaused, COMDAT

; 366  : 	return m_pGame->isPaused();

	mov	eax, DWORD PTR _this$[esp-4]
	mov	ecx, DWORD PTR [eax+8]
	call	?isPaused@CvGame@@QAE_NXZ		; CvGame::isPaused

; 367  : }

	ret	4
?IsPaused@CvDllGame@@UAG_NXZ ENDP			; CvDllGame::IsPaused
_TEXT	ENDS
PUBLIC	?IsPbem@CvDllGame@@UBG_NXZ			; CvDllGame::IsPbem
EXTRN	?isPbem@CvGame@@QBE_NXZ:PROC			; CvGame::isPbem
; Function compile flags: /Ogtpy
;	COMDAT ?IsPbem@CvDllGame@@UBG_NXZ
_TEXT	SEGMENT
_this$ = 8						; size = 4
?IsPbem@CvDllGame@@UBG_NXZ PROC				; CvDllGame::IsPbem, COMDAT

; 371  : 	return m_pGame->isPbem();

	mov	eax, DWORD PTR _this$[esp-4]
	mov	ecx, DWORD PTR [eax+8]
	call	?isPbem@CvGame@@QBE_NXZ			; CvGame::isPbem

; 372  : }

	ret	4
?IsPbem@CvDllGame@@UBG_NXZ ENDP				; CvDllGame::IsPbem
_TEXT	ENDS
PUBLIC	?IsTeamGame@CvDllGame@@UBG_NXZ			; CvDllGame::IsTeamGame
EXTRN	?isTeamGame@CvGame@@QBE_NXZ:PROC		; CvGame::isTeamGame
; Function compile flags: /Ogtpy
;	COMDAT ?IsTeamGame@CvDllGame@@UBG_NXZ
_TEXT	SEGMENT
_this$ = 8						; size = 4
?IsTeamGame@CvDllGame@@UBG_NXZ PROC			; CvDllGame::IsTeamGame, COMDAT

; 376  : 	return m_pGame->isTeamGame();

	mov	eax, DWORD PTR _this$[esp-4]
	mov	ecx, DWORD PTR [eax+8]
	call	?isTeamGame@CvGame@@QBE_NXZ		; CvGame::isTeamGame

; 377  : }

	ret	4
?IsTeamGame@CvDllGame@@UBG_NXZ ENDP			; CvDllGame::IsTeamGame
_TEXT	ENDS
PUBLIC	?LogGameState@CvDllGame@@UAGX_N@Z		; CvDllGame::LogGameState
EXTRN	?LogGameState@CvGame@@QAEX_N@Z:PROC		; CvGame::LogGameState
; Function compile flags: /Ogtpy
;	COMDAT ?LogGameState@CvDllGame@@UAGX_N@Z
_TEXT	SEGMENT
_this$ = 8						; size = 4
_bLogHeaders$ = 12					; size = 1
?LogGameState@CvDllGame@@UAGX_N@Z PROC			; CvDllGame::LogGameState, COMDAT

; 381  : 	m_pGame->LogGameState(bLogHeaders);

	mov	eax, DWORD PTR _bLogHeaders$[esp-4]
	mov	ecx, DWORD PTR _this$[esp-4]
	mov	ecx, DWORD PTR [ecx+8]
	push	eax
	call	?LogGameState@CvGame@@QAEX_N@Z		; CvGame::LogGameState

; 382  : }

	ret	8
?LogGameState@CvDllGame@@UAGX_N@Z ENDP			; CvDllGame::LogGameState
_TEXT	ENDS
PUBLIC	?ResetTurnTimer@CvDllGame@@UAGXXZ		; CvDllGame::ResetTurnTimer
EXTRN	?resetTurnTimer@CvGame@@QAEX_N@Z:PROC		; CvGame::resetTurnTimer
; Function compile flags: /Ogtpy
;	COMDAT ?ResetTurnTimer@CvDllGame@@UAGXXZ
_TEXT	SEGMENT
_this$ = 8						; size = 4
?ResetTurnTimer@CvDllGame@@UAGXXZ PROC			; CvDllGame::ResetTurnTimer, COMDAT

; 386  : 	m_pGame->resetTurnTimer();

	mov	eax, DWORD PTR _this$[esp-4]
	mov	ecx, DWORD PTR [eax+8]
	push	1
	call	?resetTurnTimer@CvGame@@QAEX_N@Z	; CvGame::resetTurnTimer

; 387  : }

	ret	4
?ResetTurnTimer@CvDllGame@@UAGXXZ ENDP			; CvDllGame::ResetTurnTimer
_TEXT	ENDS
PUBLIC	?SelectAll@CvDllGame@@UAGXPAVICvPlot1@@@Z	; CvDllGame::SelectAll
EXTRN	?selectAll@CvGame@@QAEXPAVCvPlot@@@Z:PROC	; CvGame::selectAll
; Function compile flags: /Ogtpy
;	COMDAT ?SelectAll@CvDllGame@@UAGXPAVICvPlot1@@@Z
_TEXT	SEGMENT
_this$ = 8						; size = 4
_pPlot$ = 12						; size = 4
?SelectAll@CvDllGame@@UAGXPAVICvPlot1@@@Z PROC		; CvDllGame::SelectAll, COMDAT

; 391  : 	CvPlot* pkPlot = (NULL != pPlot)? static_cast<CvDllPlot*>(pPlot)->GetInstance() : NULL;

	mov	ecx, DWORD PTR _pPlot$[esp-4]
	test	ecx, ecx
	je	SHORT $LN3@SelectAll
	call	?GetInstance@CvDllPlot@@QAEPAVCvPlot@@XZ ; CvDllPlot::GetInstance

; 392  : 	m_pGame->selectAll(pkPlot);

	push	eax
	mov	eax, DWORD PTR _this$[esp]
	mov	ecx, DWORD PTR [eax+8]
	call	?selectAll@CvGame@@QAEXPAVCvPlot@@@Z	; CvGame::selectAll

; 393  : }

	ret	8
$LN3@SelectAll:

; 391  : 	CvPlot* pkPlot = (NULL != pPlot)? static_cast<CvDllPlot*>(pPlot)->GetInstance() : NULL;

	xor	eax, eax

; 392  : 	m_pGame->selectAll(pkPlot);

	push	eax
	mov	eax, DWORD PTR _this$[esp]
	mov	ecx, DWORD PTR [eax+8]
	call	?selectAll@CvGame@@QAEXPAVCvPlot@@@Z	; CvGame::selectAll

; 393  : }

	ret	8
?SelectAll@CvDllGame@@UAGXPAVICvPlot1@@@Z ENDP		; CvDllGame::SelectAll
_TEXT	ENDS
PUBLIC	?SelectGroup@CvDllGame@@UAGXPAVICvUnit1@@_N11@Z	; CvDllGame::SelectGroup
EXTRN	?selectGroup@CvGame@@QAEXPAVCvUnit@@_N11@Z:PROC	; CvGame::selectGroup
EXTRN	?GetInstance@CvDllUnit@@QAEPAVCvUnit@@XZ:PROC	; CvDllUnit::GetInstance
; Function compile flags: /Ogtpy
;	COMDAT ?SelectGroup@CvDllGame@@UAGXPAVICvUnit1@@_N11@Z
_TEXT	SEGMENT
_this$ = 8						; size = 4
_pUnit$ = 12						; size = 4
_bShift$ = 16						; size = 1
_bCtrl$ = 20						; size = 1
_bAlt$ = 24						; size = 1
?SelectGroup@CvDllGame@@UAGXPAVICvUnit1@@_N11@Z PROC	; CvDllGame::SelectGroup, COMDAT

; 397  : 	CvUnit* pkUnit = (NULL != pUnit)? static_cast<CvDllUnit*>(pUnit)->GetInstance() : NULL;

	mov	ecx, DWORD PTR _pUnit$[esp-4]
	test	ecx, ecx
	je	SHORT $LN3@SelectGrou
	call	?GetInstance@CvDllUnit@@QAEPAVCvUnit@@XZ ; CvDllUnit::GetInstance
	jmp	SHORT $LN4@SelectGrou
$LN3@SelectGrou:
	xor	eax, eax
$LN4@SelectGrou:

; 398  : 	m_pGame->selectGroup(pkUnit, bShift, bCtrl, bAlt);

	mov	ecx, DWORD PTR _bAlt$[esp-4]
	mov	edx, DWORD PTR _bCtrl$[esp-4]
	push	ecx
	mov	ecx, DWORD PTR _bShift$[esp]
	push	edx
	mov	edx, DWORD PTR _this$[esp+4]
	push	ecx
	mov	ecx, DWORD PTR [edx+8]
	push	eax
	call	?selectGroup@CvGame@@QAEXPAVCvUnit@@_N11@Z ; CvGame::selectGroup

; 399  : }

	ret	20					; 00000014H
?SelectGroup@CvDllGame@@UAGXPAVICvUnit1@@_N11@Z ENDP	; CvDllGame::SelectGroup
_TEXT	ENDS
PUBLIC	?SelectionListIgnoreBuildingDefense@CvDllGame@@UAG_NXZ ; CvDllGame::SelectionListIgnoreBuildingDefense
EXTRN	?selectionListIgnoreBuildingDefense@CvGame@@QAE_NXZ:PROC ; CvGame::selectionListIgnoreBuildingDefense
; Function compile flags: /Ogtpy
;	COMDAT ?SelectionListIgnoreBuildingDefense@CvDllGame@@UAG_NXZ
_TEXT	SEGMENT
_this$ = 8						; size = 4
?SelectionListIgnoreBuildingDefense@CvDllGame@@UAG_NXZ PROC ; CvDllGame::SelectionListIgnoreBuildingDefense, COMDAT

; 403  : 	return m_pGame->selectionListIgnoreBuildingDefense();

	mov	eax, DWORD PTR _this$[esp-4]
	mov	ecx, DWORD PTR [eax+8]
	call	?selectionListIgnoreBuildingDefense@CvGame@@QAE_NXZ ; CvGame::selectionListIgnoreBuildingDefense

; 404  : }

	ret	4
?SelectionListIgnoreBuildingDefense@CvDllGame@@UAG_NXZ ENDP ; CvDllGame::SelectionListIgnoreBuildingDefense
_TEXT	ENDS
PUBLIC	?SelectionListMove@CvDllGame@@UAGXPAVICvPlot1@@_N@Z ; CvDllGame::SelectionListMove
EXTRN	?selectionListMove@CvGame@@QAEXPAVCvPlot@@_N@Z:PROC ; CvGame::selectionListMove
; Function compile flags: /Ogtpy
;	COMDAT ?SelectionListMove@CvDllGame@@UAGXPAVICvPlot1@@_N@Z
_TEXT	SEGMENT
_this$ = 8						; size = 4
_pPlot$ = 12						; size = 4
_bShift$ = 16						; size = 1
?SelectionListMove@CvDllGame@@UAGXPAVICvPlot1@@_N@Z PROC ; CvDllGame::SelectionListMove, COMDAT

; 408  : 	CvPlot* pkPlot = (NULL != pPlot)? static_cast<CvDllPlot*>(pPlot)->GetInstance() : NULL;

	mov	ecx, DWORD PTR _pPlot$[esp-4]
	test	ecx, ecx
	je	SHORT $LN3@SelectionL
	call	?GetInstance@CvDllPlot@@QAEPAVCvPlot@@XZ ; CvDllPlot::GetInstance

; 409  : 	m_pGame->selectionListMove(pkPlot, bShift);

	mov	ecx, DWORD PTR _bShift$[esp-4]
	mov	edx, DWORD PTR _this$[esp-4]
	push	ecx
	mov	ecx, DWORD PTR [edx+8]
	push	eax
	call	?selectionListMove@CvGame@@QAEXPAVCvPlot@@_N@Z ; CvGame::selectionListMove

; 410  : }

	ret	12					; 0000000cH
$LN3@SelectionL:

; 409  : 	m_pGame->selectionListMove(pkPlot, bShift);

	mov	ecx, DWORD PTR _bShift$[esp-4]
	mov	edx, DWORD PTR _this$[esp-4]
	push	ecx
	mov	ecx, DWORD PTR [edx+8]
	xor	eax, eax
	push	eax
	call	?selectionListMove@CvGame@@QAEXPAVCvPlot@@_N@Z ; CvGame::selectionListMove

; 410  : }

	ret	12					; 0000000cH
?SelectionListMove@CvDllGame@@UAGXPAVICvPlot1@@_N@Z ENDP ; CvDllGame::SelectionListMove
_TEXT	ENDS
PUBLIC	?SelectSettler@CvDllGame@@UAGXXZ		; CvDllGame::SelectSettler
EXTRN	?SelectSettler@CvGame@@QAEXXZ:PROC		; CvGame::SelectSettler
; Function compile flags: /Ogtpy
;	COMDAT ?SelectSettler@CvDllGame@@UAGXXZ
_TEXT	SEGMENT
_this$ = 8						; size = 4
?SelectSettler@CvDllGame@@UAGXXZ PROC			; CvDllGame::SelectSettler, COMDAT

; 414  : 	m_pGame->SelectSettler();

	mov	eax, DWORD PTR _this$[esp-4]
	mov	ecx, DWORD PTR [eax+8]
	call	?SelectSettler@CvGame@@QAEXXZ		; CvGame::SelectSettler

; 415  : }

	ret	4
?SelectSettler@CvDllGame@@UAGXXZ ENDP			; CvDllGame::SelectSettler
_TEXT	ENDS
PUBLIC	?SelectUnit@CvDllGame@@UAGXPAVICvUnit1@@_N11@Z	; CvDllGame::SelectUnit
EXTRN	?selectUnit@CvGame@@QAEXPAVCvUnit@@_N11@Z:PROC	; CvGame::selectUnit
; Function compile flags: /Ogtpy
;	COMDAT ?SelectUnit@CvDllGame@@UAGXPAVICvUnit1@@_N11@Z
_TEXT	SEGMENT
_this$ = 8						; size = 4
_pUnit$ = 12						; size = 4
_bClear$ = 16						; size = 1
_bToggle$ = 20						; size = 1
_bSound$ = 24						; size = 1
?SelectUnit@CvDllGame@@UAGXPAVICvUnit1@@_N11@Z PROC	; CvDllGame::SelectUnit, COMDAT

; 419  : 	CvUnit* pkUnit = (NULL != pUnit)? static_cast<CvDllUnit*>(pUnit)->GetInstance() : NULL;

	mov	ecx, DWORD PTR _pUnit$[esp-4]
	test	ecx, ecx
	je	SHORT $LN3@SelectUnit
	call	?GetInstance@CvDllUnit@@QAEPAVCvUnit@@XZ ; CvDllUnit::GetInstance
	jmp	SHORT $LN4@SelectUnit
$LN3@SelectUnit:
	xor	eax, eax
$LN4@SelectUnit:

; 420  : 	m_pGame->selectUnit(pkUnit, bClear, bToggle, bSound);

	mov	ecx, DWORD PTR _bSound$[esp-4]
	mov	edx, DWORD PTR _bToggle$[esp-4]
	push	ecx
	mov	ecx, DWORD PTR _bClear$[esp]
	push	edx
	mov	edx, DWORD PTR _this$[esp+4]
	push	ecx
	mov	ecx, DWORD PTR [edx+8]
	push	eax
	call	?selectUnit@CvGame@@QAEXPAVCvUnit@@_N11@Z ; CvGame::selectUnit

; 421  : }

	ret	20					; 00000014H
?SelectUnit@CvDllGame@@UAGXPAVICvUnit1@@_N11@Z ENDP	; CvDllGame::SelectUnit
_TEXT	ENDS
PUBLIC	?SendPlayerOptions@CvDllGame@@UAGX_N@Z		; CvDllGame::SendPlayerOptions
EXTRN	?sendPlayerOptions@CvGame@@QAEX_N@Z:PROC	; CvGame::sendPlayerOptions
; Function compile flags: /Ogtpy
;	COMDAT ?SendPlayerOptions@CvDllGame@@UAGX_N@Z
_TEXT	SEGMENT
_this$ = 8						; size = 4
_bForce$ = 12						; size = 1
?SendPlayerOptions@CvDllGame@@UAGX_N@Z PROC		; CvDllGame::SendPlayerOptions, COMDAT

; 425  : 	m_pGame->sendPlayerOptions(bForce);

	mov	eax, DWORD PTR _bForce$[esp-4]
	mov	ecx, DWORD PTR _this$[esp-4]
	mov	ecx, DWORD PTR [ecx+8]
	push	eax
	call	?sendPlayerOptions@CvGame@@QAEX_N@Z	; CvGame::sendPlayerOptions

; 426  : }

	ret	8
?SendPlayerOptions@CvDllGame@@UAGX_N@Z ENDP		; CvDllGame::SendPlayerOptions
_TEXT	ENDS
PUBLIC	?SetDebugMode@CvDllGame@@UAGX_N@Z		; CvDllGame::SetDebugMode
EXTRN	?setDebugMode@CvGame@@QAEX_N@Z:PROC		; CvGame::setDebugMode
; Function compile flags: /Ogtpy
;	COMDAT ?SetDebugMode@CvDllGame@@UAGX_N@Z
_TEXT	SEGMENT
_this$ = 8						; size = 4
_bDebugMode$ = 12					; size = 1
?SetDebugMode@CvDllGame@@UAGX_N@Z PROC			; CvDllGame::SetDebugMode, COMDAT

; 430  : 	m_pGame->setDebugMode(bDebugMode);

	mov	eax, DWORD PTR _bDebugMode$[esp-4]
	mov	ecx, DWORD PTR _this$[esp-4]
	mov	ecx, DWORD PTR [ecx+8]
	push	eax
	call	?setDebugMode@CvGame@@QAEX_N@Z		; CvGame::setDebugMode

; 431  : }

	ret	8
?SetDebugMode@CvDllGame@@UAGX_N@Z ENDP			; CvDllGame::SetDebugMode
_TEXT	ENDS
PUBLIC	?SetFinalInitialized@CvDllGame@@UAGX_N@Z	; CvDllGame::SetFinalInitialized
EXTRN	?setFinalInitialized@CvGame@@QAEX_N@Z:PROC	; CvGame::setFinalInitialized
; Function compile flags: /Ogtpy
;	COMDAT ?SetFinalInitialized@CvDllGame@@UAGX_N@Z
_TEXT	SEGMENT
_this$ = 8						; size = 4
_bNewValue$ = 12					; size = 1
?SetFinalInitialized@CvDllGame@@UAGX_N@Z PROC		; CvDllGame::SetFinalInitialized, COMDAT

; 435  : 	m_pGame->setFinalInitialized(bNewValue);

	mov	eax, DWORD PTR _bNewValue$[esp-4]
	mov	ecx, DWORD PTR _this$[esp-4]
	mov	ecx, DWORD PTR [ecx+8]
	push	eax
	call	?setFinalInitialized@CvGame@@QAEX_N@Z	; CvGame::setFinalInitialized

; 436  : }

	ret	8
?SetFinalInitialized@CvDllGame@@UAGX_N@Z ENDP		; CvDllGame::SetFinalInitialized
_TEXT	ENDS
PUBLIC	?SetInitialTime@CvDllGame@@UAGXI@Z		; CvDllGame::SetInitialTime
EXTRN	?setInitialTime@CvGame@@QAEXI@Z:PROC		; CvGame::setInitialTime
; Function compile flags: /Ogtpy
;	COMDAT ?SetInitialTime@CvDllGame@@UAGXI@Z
_TEXT	SEGMENT
_this$ = 8						; size = 4
_uiNewValue$ = 12					; size = 4
?SetInitialTime@CvDllGame@@UAGXI@Z PROC			; CvDllGame::SetInitialTime, COMDAT

; 440  : 	m_pGame->setInitialTime(uiNewValue);

	mov	eax, DWORD PTR _uiNewValue$[esp-4]
	mov	ecx, DWORD PTR _this$[esp-4]
	mov	ecx, DWORD PTR [ecx+8]
	push	eax
	call	?setInitialTime@CvGame@@QAEXI@Z		; CvGame::setInitialTime

; 441  : }

	ret	8
?SetInitialTime@CvDllGame@@UAGXI@Z ENDP			; CvDllGame::SetInitialTime
_TEXT	ENDS
PUBLIC	?SetMPOption@CvDllGame@@UAEXW4MultiplayerOptionTypes@@_N@Z ; CvDllGame::SetMPOption
EXTRN	?setMPOption@CvGame@@QAEXW4MultiplayerOptionTypes@@_N@Z:PROC ; CvGame::setMPOption
; Function compile flags: /Ogtpy
;	COMDAT ?SetMPOption@CvDllGame@@UAEXW4MultiplayerOptionTypes@@_N@Z
_TEXT	SEGMENT
_eIndex$ = 8						; size = 4
_bEnabled$ = 12						; size = 1
?SetMPOption@CvDllGame@@UAEXW4MultiplayerOptionTypes@@_N@Z PROC ; CvDllGame::SetMPOption, COMDAT
; _this$ = ecx

; 445  : 	m_pGame->setMPOption(eIndex, bEnabled);

	mov	ecx, DWORD PTR [ecx+8]
	jmp	?setMPOption@CvGame@@QAEXW4MultiplayerOptionTypes@@_N@Z ; CvGame::setMPOption
?SetMPOption@CvDllGame@@UAEXW4MultiplayerOptionTypes@@_N@Z ENDP ; CvDllGame::SetMPOption
_TEXT	ENDS
PUBLIC	?SetPausePlayer@CvDllGame@@UAGXW4PlayerTypes@@@Z ; CvDllGame::SetPausePlayer
EXTRN	?setPausePlayer@CvGame@@QAEXW4PlayerTypes@@@Z:PROC ; CvGame::setPausePlayer
; Function compile flags: /Ogtpy
;	COMDAT ?SetPausePlayer@CvDllGame@@UAGXW4PlayerTypes@@@Z
_TEXT	SEGMENT
_this$ = 8						; size = 4
_eNewValue$ = 12					; size = 4
?SetPausePlayer@CvDllGame@@UAGXW4PlayerTypes@@@Z PROC	; CvDllGame::SetPausePlayer, COMDAT

; 450  : 	m_pGame->setPausePlayer(eNewValue);

	mov	eax, DWORD PTR _eNewValue$[esp-4]
	mov	ecx, DWORD PTR _this$[esp-4]
	mov	ecx, DWORD PTR [ecx+8]
	push	eax
	call	?setPausePlayer@CvGame@@QAEXW4PlayerTypes@@@Z ; CvGame::setPausePlayer

; 451  : }

	ret	8
?SetPausePlayer@CvDllGame@@UAGXW4PlayerTypes@@@Z ENDP	; CvDllGame::SetPausePlayer
_TEXT	ENDS
PUBLIC	?TunerEverConnected@CvDllGame@@UBG_NXZ		; CvDllGame::TunerEverConnected
EXTRN	?TunerEverConnected@CvGame@@QBE_NXZ:PROC	; CvGame::TunerEverConnected
; Function compile flags: /Ogtpy
;	COMDAT ?TunerEverConnected@CvDllGame@@UBG_NXZ
_TEXT	SEGMENT
_this$ = 8						; size = 4
?TunerEverConnected@CvDllGame@@UBG_NXZ PROC		; CvDllGame::TunerEverConnected, COMDAT

; 471  : 	return m_pGame->TunerEverConnected();

	mov	eax, DWORD PTR _this$[esp-4]
	mov	ecx, DWORD PTR [eax+8]
	call	?TunerEverConnected@CvGame@@QBE_NXZ	; CvGame::TunerEverConnected

; 472  : }

	ret	4
?TunerEverConnected@CvDllGame@@UBG_NXZ ENDP		; CvDllGame::TunerEverConnected
_TEXT	ENDS
PUBLIC	?Uninit@CvDllGame@@UAGXXZ			; CvDllGame::Uninit
EXTRN	?uninit@CvGame@@QAEXXZ:PROC			; CvGame::uninit
; Function compile flags: /Ogtpy
;	COMDAT ?Uninit@CvDllGame@@UAGXXZ
_TEXT	SEGMENT
_this$ = 8						; size = 4
?Uninit@CvDllGame@@UAGXXZ PROC				; CvDllGame::Uninit, COMDAT

; 476  : 	m_pGame->uninit();

	mov	eax, DWORD PTR _this$[esp-4]
	mov	ecx, DWORD PTR [eax+8]
	call	?uninit@CvGame@@QAEXXZ			; CvGame::uninit

; 477  : }

	ret	4
?Uninit@CvDllGame@@UAGXXZ ENDP				; CvDllGame::Uninit
_TEXT	ENDS
PUBLIC	?UnitIsMoving@CvDllGame@@UAGXXZ			; CvDllGame::UnitIsMoving
EXTRN	?unitIsMoving@CvGame@@QAEXXZ:PROC		; CvGame::unitIsMoving
; Function compile flags: /Ogtpy
;	COMDAT ?UnitIsMoving@CvDllGame@@UAGXXZ
_TEXT	SEGMENT
_this$ = 8						; size = 4
?UnitIsMoving@CvDllGame@@UAGXXZ PROC			; CvDllGame::UnitIsMoving, COMDAT

; 481  : 	m_pGame->unitIsMoving();

	mov	eax, DWORD PTR _this$[esp-4]
	mov	ecx, DWORD PTR [eax+8]
	call	?unitIsMoving@CvGame@@QAEXXZ		; CvGame::unitIsMoving

; 482  : }

	ret	4
?UnitIsMoving@CvDllGame@@UAGXXZ ENDP			; CvDllGame::UnitIsMoving
_TEXT	ENDS
PUBLIC	?Update@CvDllGame@@UAGXXZ			; CvDllGame::Update
EXTRN	?update@CvGame@@QAEXXZ:PROC			; CvGame::update
; Function compile flags: /Ogtpy
;	COMDAT ?Update@CvDllGame@@UAGXXZ
_TEXT	SEGMENT
_this$ = 8						; size = 4
?Update@CvDllGame@@UAGXXZ PROC				; CvDllGame::Update, COMDAT

; 486  : 	m_pGame->update();

	mov	eax, DWORD PTR _this$[esp-4]
	mov	ecx, DWORD PTR [eax+8]
	call	?update@CvGame@@QAEXXZ			; CvGame::update

; 487  : }

	ret	4
?Update@CvDllGame@@UAGXXZ ENDP				; CvDllGame::Update
_TEXT	ENDS
PUBLIC	?UpdateSelectionList@CvDllGame@@UAGXXZ		; CvDllGame::UpdateSelectionList
EXTRN	?updateSelectionList@CvGame@@QAEXXZ:PROC	; CvGame::updateSelectionList
; Function compile flags: /Ogtpy
;	COMDAT ?UpdateSelectionList@CvDllGame@@UAGXXZ
_TEXT	SEGMENT
_this$ = 8						; size = 4
?UpdateSelectionList@CvDllGame@@UAGXXZ PROC		; CvDllGame::UpdateSelectionList, COMDAT

; 491  : 	m_pGame->updateSelectionList();

	mov	eax, DWORD PTR _this$[esp-4]
	mov	ecx, DWORD PTR [eax+8]
	call	?updateSelectionList@CvGame@@QAEXXZ	; CvGame::updateSelectionList

; 492  : }

	ret	4
?UpdateSelectionList@CvDllGame@@UAGXXZ ENDP		; CvDllGame::UpdateSelectionList
_TEXT	ENDS
PUBLIC	?UpdateTestEndTurn@CvDllGame@@UAGXXZ		; CvDllGame::UpdateTestEndTurn
EXTRN	?updateTestEndTurn@CvGame@@QAEXXZ:PROC		; CvGame::updateTestEndTurn
; Function compile flags: /Ogtpy
;	COMDAT ?UpdateTestEndTurn@CvDllGame@@UAGXXZ
_TEXT	SEGMENT
_this$ = 8						; size = 4
?UpdateTestEndTurn@CvDllGame@@UAGXXZ PROC		; CvDllGame::UpdateTestEndTurn, COMDAT

; 496  : 	m_pGame->updateTestEndTurn();

	mov	eax, DWORD PTR _this$[esp-4]
	mov	ecx, DWORD PTR [eax+8]
	call	?updateTestEndTurn@CvGame@@QAEXXZ	; CvGame::updateTestEndTurn

; 497  : }

	ret	4
?UpdateTestEndTurn@CvDllGame@@UAGXXZ ENDP		; CvDllGame::UpdateTestEndTurn
_TEXT	ENDS
PUBLIC	?Read@CvDllGame@@UAGXAAVFDataStream@@@Z		; CvDllGame::Read
EXTRN	?Read@CvGame@@QAEXAAVFDataStream@@@Z:PROC	; CvGame::Read
; Function compile flags: /Ogtpy
;	COMDAT ?Read@CvDllGame@@UAGXAAVFDataStream@@@Z
_TEXT	SEGMENT
_this$ = 8						; size = 4
_kStream$ = 12						; size = 4
?Read@CvDllGame@@UAGXAAVFDataStream@@@Z PROC		; CvDllGame::Read, COMDAT

; 501  : 	m_pGame->Read(kStream);

	mov	eax, DWORD PTR _kStream$[esp-4]
	mov	ecx, DWORD PTR _this$[esp-4]
	mov	ecx, DWORD PTR [ecx+8]
	push	eax
	call	?Read@CvGame@@QAEXAAVFDataStream@@@Z	; CvGame::Read

; 502  : }

	ret	8
?Read@CvDllGame@@UAGXAAVFDataStream@@@Z ENDP		; CvDllGame::Read
_TEXT	ENDS
PUBLIC	?Write@CvDllGame@@UBGXAAVFDataStream@@@Z	; CvDllGame::Write
EXTRN	?Write@CvGame@@QBEXAAVFDataStream@@@Z:PROC	; CvGame::Write
; Function compile flags: /Ogtpy
;	COMDAT ?Write@CvDllGame@@UBGXAAVFDataStream@@@Z
_TEXT	SEGMENT
_this$ = 8						; size = 4
_kStream$ = 12						; size = 4
?Write@CvDllGame@@UBGXAAVFDataStream@@@Z PROC		; CvDllGame::Write, COMDAT

; 506  : 	m_pGame->Write(kStream);

	mov	eax, DWORD PTR _kStream$[esp-4]
	mov	ecx, DWORD PTR _this$[esp-4]
	mov	ecx, DWORD PTR [ecx+8]
	push	eax
	call	?Write@CvGame@@QBEXAAVFDataStream@@@Z	; CvGame::Write

; 507  : }

	ret	8
?Write@CvDllGame@@UBGXAAVFDataStream@@@Z ENDP		; CvDllGame::Write
_TEXT	ENDS
PUBLIC	?ReadSupportingClassData@CvDllGame@@UAGXAAVFDataStream@@@Z ; CvDllGame::ReadSupportingClassData
EXTRN	?ReadSupportingClassData@CvGame@@QAEXAAVFDataStream@@@Z:PROC ; CvGame::ReadSupportingClassData
; Function compile flags: /Ogtpy
;	COMDAT ?ReadSupportingClassData@CvDllGame@@UAGXAAVFDataStream@@@Z
_TEXT	SEGMENT
_this$ = 8						; size = 4
_kStream$ = 12						; size = 4
?ReadSupportingClassData@CvDllGame@@UAGXAAVFDataStream@@@Z PROC ; CvDllGame::ReadSupportingClassData, COMDAT

; 511  : 	m_pGame->ReadSupportingClassData(kStream);

	mov	eax, DWORD PTR _kStream$[esp-4]
	mov	ecx, DWORD PTR _this$[esp-4]
	mov	ecx, DWORD PTR [ecx+8]
	push	eax
	call	?ReadSupportingClassData@CvGame@@QAEXAAVFDataStream@@@Z ; CvGame::ReadSupportingClassData

; 512  : }

	ret	8
?ReadSupportingClassData@CvDllGame@@UAGXAAVFDataStream@@@Z ENDP ; CvDllGame::ReadSupportingClassData
_TEXT	ENDS
PUBLIC	?WriteSupportingClassData@CvDllGame@@UBGXAAVFDataStream@@@Z ; CvDllGame::WriteSupportingClassData
EXTRN	?WriteSupportingClassData@CvGame@@QAEXAAVFDataStream@@@Z:PROC ; CvGame::WriteSupportingClassData
; Function compile flags: /Ogtpy
;	COMDAT ?WriteSupportingClassData@CvDllGame@@UBGXAAVFDataStream@@@Z
_TEXT	SEGMENT
_this$ = 8						; size = 4
_kStream$ = 12						; size = 4
?WriteSupportingClassData@CvDllGame@@UBGXAAVFDataStream@@@Z PROC ; CvDllGame::WriteSupportingClassData, COMDAT

; 516  : 	m_pGame->WriteSupportingClassData(kStream);

	mov	eax, DWORD PTR _kStream$[esp-4]
	mov	ecx, DWORD PTR _this$[esp-4]
	mov	ecx, DWORD PTR [ecx+8]
	push	eax
	call	?WriteSupportingClassData@CvGame@@QAEXAAVFDataStream@@@Z ; CvGame::WriteSupportingClassData

; 517  : }

	ret	8
?WriteSupportingClassData@CvDllGame@@UBGXAAVFDataStream@@@Z ENDP ; CvDllGame::WriteSupportingClassData
_TEXT	ENDS
PUBLIC	?WriteReplay@CvDllGame@@UBGXAAVFDataStream@@@Z	; CvDllGame::WriteReplay
EXTRN	?writeReplay@CvGame@@QAEXAAVFDataStream@@@Z:PROC ; CvGame::writeReplay
; Function compile flags: /Ogtpy
;	COMDAT ?WriteReplay@CvDllGame@@UBGXAAVFDataStream@@@Z
_TEXT	SEGMENT
_this$ = 8						; size = 4
_kStream$ = 12						; size = 4
?WriteReplay@CvDllGame@@UBGXAAVFDataStream@@@Z PROC	; CvDllGame::WriteReplay, COMDAT

; 521  : 	m_pGame->writeReplay(kStream);

	mov	eax, DWORD PTR _kStream$[esp-4]
	mov	ecx, DWORD PTR _this$[esp-4]
	mov	ecx, DWORD PTR [ecx+8]
	push	eax
	call	?writeReplay@CvGame@@QAEXAAVFDataStream@@@Z ; CvGame::writeReplay

; 522  : }

	ret	8
?WriteReplay@CvDllGame@@UBGXAAVFDataStream@@@Z ENDP	; CvDllGame::WriteReplay
_TEXT	ENDS
PUBLIC	?NetMessageStaticsReset@CvDllGame@@UAGXXZ	; CvDllGame::NetMessageStaticsReset
EXTRN	?NetMessageStaticsReset@CvGame@@QAEXXZ:PROC	; CvGame::NetMessageStaticsReset
; Function compile flags: /Ogtpy
;	COMDAT ?NetMessageStaticsReset@CvDllGame@@UAGXXZ
_TEXT	SEGMENT
_this$ = 8						; size = 4
?NetMessageStaticsReset@CvDllGame@@UAGXXZ PROC		; CvDllGame::NetMessageStaticsReset, COMDAT

; 562  : 	m_pGame->NetMessageStaticsReset();

	mov	eax, DWORD PTR _this$[esp-4]
	mov	ecx, DWORD PTR [eax+8]
	call	?NetMessageStaticsReset@CvGame@@QAEXXZ	; CvGame::NetMessageStaticsReset

; 563  : }

	ret	4
?NetMessageStaticsReset@CvDllGame@@UAGXXZ ENDP		; CvDllGame::NetMessageStaticsReset
_TEXT	ENDS
PUBLIC	?SetLastTurnAICivsProcessed@CvDllGame@@UAGXXZ	; CvDllGame::SetLastTurnAICivsProcessed
EXTRN	?SetLastTurnAICivsProcessed@CvGame@@QAEXXZ:PROC	; CvGame::SetLastTurnAICivsProcessed
; Function compile flags: /Ogtpy
;	COMDAT ?SetLastTurnAICivsProcessed@CvDllGame@@UAGXXZ
_TEXT	SEGMENT
_this$ = 8						; size = 4
?SetLastTurnAICivsProcessed@CvDllGame@@UAGXXZ PROC	; CvDllGame::SetLastTurnAICivsProcessed, COMDAT

; 591  : 	m_pGame->SetLastTurnAICivsProcessed();

	mov	eax, DWORD PTR _this$[esp-4]
	mov	ecx, DWORD PTR [eax+8]
	call	?SetLastTurnAICivsProcessed@CvGame@@QAEXXZ ; CvGame::SetLastTurnAICivsProcessed

; 592  : }

	ret	4
?SetLastTurnAICivsProcessed@CvDllGame@@UAGXXZ ENDP	; CvDllGame::SetLastTurnAICivsProcessed
_TEXT	ENDS
PUBLIC	??0CvString@@QAE@XZ				; CvString::CvString
; Function compile flags: /Ogtpy
; File s:\lekmod_dll\cvgamecoredllutil\include\cvstring.h
;	COMDAT ??0CvString@@QAE@XZ
_TEXT	SEGMENT
??0CvString@@QAE@XZ PROC				; CvString::CvString, COMDAT
; _this$ = ecx

; 23   : 	CvString() {}

	push	esi
	mov	esi, ecx
	call	DWORD PTR __imp_??0?$basic_string@DU?$char_traits@D@std@@V?$allocator@D@2@@std@@QAE@XZ
	mov	eax, esi
	pop	esi
	ret	0
??0CvString@@QAE@XZ ENDP				; CvString::CvString
_TEXT	ENDS
PUBLIC	??1CvString@@QAE@XZ				; CvString::~CvString
; Function compile flags: /Ogtpy
;	COMDAT ??1CvString@@QAE@XZ
_TEXT	SEGMENT
??1CvString@@QAE@XZ PROC				; CvString::~CvString, COMDAT
; _this$ = ecx

; 28   : 	~CvString() {}

	jmp	DWORD PTR __imp_??1?$basic_string@DU?$char_traits@D@std@@V?$allocator@D@2@@std@@QAE@XZ
??1CvString@@QAE@XZ ENDP				; CvString::~CvString
_TEXT	ENDS
PUBLIC	?GetLength@CvString@@QBEHXZ			; CvString::GetLength
EXTRN	__imp_?size@?$basic_string@DU?$char_traits@D@std@@V?$allocator@D@2@@std@@QBEIXZ:PROC
; Function compile flags: /Ogtpy
;	COMDAT ?GetLength@CvString@@QBEHXZ
_TEXT	SEGMENT
?GetLength@CvString@@QBEHXZ PROC			; CvString::GetLength, COMDAT
; _this$ = ecx

; 46   : 	int GetLength() const { return (int) size(); }

	jmp	DWORD PTR __imp_?size@?$basic_string@DU?$char_traits@D@std@@V?$allocator@D@2@@std@@QBEIXZ
?GetLength@CvString@@QBEHXZ ENDP			; CvString::GetLength
_TEXT	ENDS
PUBLIC	?GetInterfaceId@ICvUnknown@@SG?AU_GUID@@XZ	; ICvUnknown::GetInterfaceId
; Function compile flags: /Ogtpy
; File s:\lekmod_dll\cvgamecoredllutil\include\cvdllinterfaces.h
;	COMDAT ?GetInterfaceId@ICvUnknown@@SG?AU_GUID@@XZ
_TEXT	SEGMENT
$T220026 = 8						; size = 4
?GetInterfaceId@ICvUnknown@@SG?AU_GUID@@XZ PROC		; ICvUnknown::GetInterfaceId, COMDAT

; 306  : 	static GUID DLLCALL GetInterfaceId(){ return guidICvUnknown; }

	mov	eax, DWORD PTR $T220026[esp-4]
	mov	ecx, DWORD PTR _guidICvUnknown
	mov	edx, DWORD PTR _guidICvUnknown+4
	mov	DWORD PTR [eax], ecx
	mov	ecx, DWORD PTR _guidICvUnknown+8
	mov	DWORD PTR [eax+4], edx
	mov	edx, DWORD PTR _guidICvUnknown+12
	mov	DWORD PTR [eax+8], ecx
	mov	DWORD PTR [eax+12], edx
	ret	4
?GetInterfaceId@ICvUnknown@@SG?AU_GUID@@XZ ENDP		; ICvUnknown::GetInterfaceId
_TEXT	ENDS
PUBLIC	?GetInterfaceId@ICvGame1@@SG?AU_GUID@@XZ	; ICvGame1::GetInterfaceId
; Function compile flags: /Ogtpy
;	COMDAT ?GetInterfaceId@ICvGame1@@SG?AU_GUID@@XZ
_TEXT	SEGMENT
$T220030 = 8						; size = 4
?GetInterfaceId@ICvGame1@@SG?AU_GUID@@XZ PROC		; ICvGame1::GetInterfaceId, COMDAT

; 982  : 	static GUID DLLCALL GetInterfaceId() { return guidICvGame1; }

	mov	eax, DWORD PTR $T220030[esp-4]
	mov	ecx, DWORD PTR _guidICvGame1
	mov	edx, DWORD PTR _guidICvGame1+4
	mov	DWORD PTR [eax], ecx
	mov	ecx, DWORD PTR _guidICvGame1+8
	mov	DWORD PTR [eax+4], edx
	mov	edx, DWORD PTR _guidICvGame1+12
	mov	DWORD PTR [eax+8], ecx
	mov	DWORD PTR [eax+12], edx
	ret	4
?GetInterfaceId@ICvGame1@@SG?AU_GUID@@XZ ENDP		; ICvGame1::GetInterfaceId
_TEXT	ENDS
PUBLIC	?GetInterfaceId@ICvGame2@@SG?AU_GUID@@XZ	; ICvGame2::GetInterfaceId
; Function compile flags: /Ogtpy
; File s:\lekmod_dll\cvgamecoredllutil\include\cvdllinterfaces2.h
;	COMDAT ?GetInterfaceId@ICvGame2@@SG?AU_GUID@@XZ
_TEXT	SEGMENT
$T220034 = 8						; size = 4
?GetInterfaceId@ICvGame2@@SG?AU_GUID@@XZ PROC		; ICvGame2::GetInterfaceId, COMDAT

; 79   : 	static GUID DLLCALL GetInterfaceId() { return guidICvGame2; }

	mov	eax, DWORD PTR $T220034[esp-4]
	mov	ecx, DWORD PTR _guidICvGame2
	mov	edx, DWORD PTR _guidICvGame2+4
	mov	DWORD PTR [eax], ecx
	mov	ecx, DWORD PTR _guidICvGame2+8
	mov	DWORD PTR [eax+4], edx
	mov	edx, DWORD PTR _guidICvGame2+12
	mov	DWORD PTR [eax+8], ecx
	mov	DWORD PTR [eax+12], edx
	ret	4
?GetInterfaceId@ICvGame2@@SG?AU_GUID@@XZ ENDP		; ICvGame2::GetInterfaceId
_TEXT	ENDS
PUBLIC	?getDLLIFace@CvGlobals@@QAEPAVICvEngineUtility4@@XZ ; CvGlobals::getDLLIFace
; Function compile flags: /Ogtpy
; File s:\lekmod_dll\cvgamecoredll_expansion2\cvglobals.h
;	COMDAT ?getDLLIFace@CvGlobals@@QAEPAVICvEngineUtility4@@XZ
_TEXT	SEGMENT
?getDLLIFace@CvGlobals@@QAEPAVICvEngineUtility4@@XZ PROC ; CvGlobals::getDLLIFace, COMDAT
; _this$ = ecx

; 7703 : 		return m_pDLL;

	mov	eax, DWORD PTR [ecx+8564]

; 7704 : 	}

	ret	0
?getDLLIFace@CvGlobals@@QAEPAVICvEngineUtility4@@XZ ENDP ; CvGlobals::getDLLIFace
_TEXT	ENDS
PUBLIC	?getPlayer@CvPlayerAI@@SAAAV1@W4PlayerTypes@@@Z	; CvPlayerAI::getPlayer
EXTRN	?m_aPlayers@CvPlayerAI@@1PAV1@A:DWORD		; CvPlayerAI::m_aPlayers
; Function compile flags: /Ogtpy
; File s:\lekmod_dll\cvgamecoredll_expansion2\cvplayerai.h
;	COMDAT ?getPlayer@CvPlayerAI@@SAAAV1@W4PlayerTypes@@@Z
_TEXT	SEGMENT
_ePlayer$ = 8						; size = 4
?getPlayer@CvPlayerAI@@SAAAV1@W4PlayerTypes@@@Z PROC	; CvPlayerAI::getPlayer, COMDAT

; 28   : 		CvAssertMsg(ePlayer != NO_PLAYER, "Player is not assigned a valid value");
; 29   : 		CvAssertMsg(ePlayer < MAX_PLAYERS, "Player is not assigned a valid value");
; 30   : 		return m_aPlayers[ePlayer];

	mov	eax, DWORD PTR _ePlayer$[esp-4]
	imul	eax, 63236				; 0000f704H
	add	eax, DWORD PTR ?m_aPlayers@CvPlayerAI@@1PAV1@A ; CvPlayerAI::m_aPlayers

; 31   : 	}

	ret	0
?getPlayer@CvPlayerAI@@SAAAV1@W4PlayerTypes@@@Z ENDP	; CvPlayerAI::getPlayer
_TEXT	ENDS
PUBLIC	?getX@CvPlot@@QBEHXZ				; CvPlot::getX
; Function compile flags: /Ogtpy
; File s:\lekmod_dll\cvgamecoredll_expansion2\cvplot.h
;	COMDAT ?getX@CvPlot@@QBEHXZ
_TEXT	SEGMENT
?getX@CvPlot@@QBEHXZ PROC				; CvPlot::getX, COMDAT
; _this$ = ecx

; 307  : 		return m_iX;

	movsx	eax, WORD PTR [ecx]

; 308  : 	}

	ret	0
?getX@CvPlot@@QBEHXZ ENDP				; CvPlot::getX
_TEXT	ENDS
PUBLIC	?getY@CvPlot@@QBEHXZ				; CvPlot::getY
; Function compile flags: /Ogtpy
;	COMDAT ?getY@CvPlot@@QBEHXZ
_TEXT	SEGMENT
?getY@CvPlot@@QBEHXZ PROC				; CvPlot::getY, COMDAT
; _this$ = ecx

; 312  : 		return m_iY;

	movsx	eax, WORD PTR [ecx+2]

; 313  : 	}

	ret	0
?getY@CvPlot@@QBEHXZ ENDP				; CvPlot::getY
_TEXT	ENDS
PUBLIC	?GetLastNode@CvAStar@@QAEPAVCvAStarNode@@XZ	; CvAStar::GetLastNode
; Function compile flags: /Ogtpy
; File s:\lekmod_dll\cvgamecoredll_expansion2\cvastar.h
;	COMDAT ?GetLastNode@CvAStar@@QAEPAVCvAStarNode@@XZ
_TEXT	SEGMENT
?GetLastNode@CvAStar@@QAEPAVCvAStarNode@@XZ PROC	; CvAStar::GetLastNode, COMDAT
; _this$ = ecx

; 98   : 		return m_pBest;

	mov	eax, DWORD PTR [ecx+96]

; 99   : 	}

	ret	0
?GetLastNode@CvAStar@@QAEPAVCvAStarNode@@XZ ENDP	; CvAStar::GetLastNode
_TEXT	ENDS
PUBLIC	?SetData@CvAStar@@QAEXPBX@Z			; CvAStar::SetData
; Function compile flags: /Ogtpy
;	COMDAT ?SetData@CvAStar@@QAEXPBX@Z
_TEXT	SEGMENT
_pData$ = 8						; size = 4
?SetData@CvAStar@@QAEXPBX@Z PROC			; CvAStar::SetData, COMDAT
; _this$ = ecx

; 202  : 		if(m_bDataChangeInvalidatesCache && m_pData != pData)

	cmp	BYTE PTR [ecx+80], 0
	mov	eax, DWORD PTR _pData$[esp-4]
	je	SHORT $LN4@SetData
	cmp	DWORD PTR [ecx+44], eax

; 205  : 		m_pData = pData;

	mov	DWORD PTR [ecx+44], eax
	je	SHORT $LN1@SetData

; 203  : #endif
; 204  : 			m_bForceReset = true;

	mov	BYTE PTR [ecx+78], 1

; 206  : #ifdef AUI_ASTAR_TURN_LIMITER
; 207  : 		m_iMaxTurns = iMaxTurns;
; 208  : #endif
; 209  : 	}

	ret	4
$LN4@SetData:

; 205  : 		m_pData = pData;

	mov	DWORD PTR [ecx+44], eax
$LN1@SetData:

; 206  : #ifdef AUI_ASTAR_TURN_LIMITER
; 207  : 		m_iMaxTurns = iMaxTurns;
; 208  : #endif
; 209  : 	}

	ret	4
?SetData@CvAStar@@QAEXPBX@Z ENDP			; CvAStar::SetData
_TEXT	ENDS
PUBLIC	?get@?$FAutoVariable@HVCvUnit@@@@QBEABHXZ	; FAutoVariable<int,CvUnit>::get
; Function compile flags: /Ogtpy
; File s:\lekmod_dll\fireplace\include\fireworks\fautovariable.h
;	COMDAT ?get@?$FAutoVariable@HVCvUnit@@@@QBEABHXZ
_TEXT	SEGMENT
?get@?$FAutoVariable@HVCvUnit@@@@QBEABHXZ PROC		; FAutoVariable<int,CvUnit>::get, COMDAT
; _this$ = ecx

; 177  : 	return m_value;

	lea	eax, DWORD PTR [ecx+4]

; 178  : }

	ret	0
?get@?$FAutoVariable@HVCvUnit@@@@QBEABHXZ ENDP		; FAutoVariable<int,CvUnit>::get
_TEXT	ENDS
PUBLIC	??_7ICvGame1@@6B@				; ICvGame1::`vftable'
PUBLIC	??0ICvGame1@@QAE@XZ				; ICvGame1::ICvGame1
PUBLIC	??_R4ICvGame1@@6B@				; ICvGame1::`RTTI Complete Object Locator'
PUBLIC	??_R0?AVICvGame1@@@8				; ICvGame1 `RTTI Type Descriptor'
PUBLIC	??_R3ICvGame1@@8				; ICvGame1::`RTTI Class Hierarchy Descriptor'
PUBLIC	??_R2ICvGame1@@8				; ICvGame1::`RTTI Base Class Array'
PUBLIC	??_R1A@?0A@EA@ICvGame1@@8			; ICvGame1::`RTTI Base Class Descriptor at (0,-1,0,64)'
;	COMDAT ??_R1A@?0A@EA@ICvGame1@@8
rdata$r	SEGMENT
??_R1A@?0A@EA@ICvGame1@@8 DD FLAT:??_R0?AVICvGame1@@@8	; ICvGame1::`RTTI Base Class Descriptor at (0,-1,0,64)'
	DD	01H
	DD	00H
	DD	0ffffffffH
	DD	00H
	DD	040H
	DD	FLAT:??_R3ICvGame1@@8
rdata$r	ENDS
;	COMDAT ??_R2ICvGame1@@8
rdata$r	SEGMENT
??_R2ICvGame1@@8 DD FLAT:??_R1A@?0A@EA@ICvGame1@@8	; ICvGame1::`RTTI Base Class Array'
	DD	FLAT:??_R1A@?0A@EA@ICvUnknown@@8
rdata$r	ENDS
;	COMDAT ??_R3ICvGame1@@8
rdata$r	SEGMENT
??_R3ICvGame1@@8 DD 00H					; ICvGame1::`RTTI Class Hierarchy Descriptor'
	DD	00H
	DD	02H
	DD	FLAT:??_R2ICvGame1@@8
rdata$r	ENDS
;	COMDAT ??_R0?AVICvGame1@@@8
_DATA	SEGMENT
??_R0?AVICvGame1@@@8 DD FLAT:??_7type_info@@6B@		; ICvGame1 `RTTI Type Descriptor'
	DD	00H
	DB	'.?AVICvGame1@@', 00H
_DATA	ENDS
;	COMDAT ??_R4ICvGame1@@6B@
rdata$r	SEGMENT
??_R4ICvGame1@@6B@ DD 00H				; ICvGame1::`RTTI Complete Object Locator'
	DD	00H
	DD	00H
	DD	FLAT:??_R0?AVICvGame1@@@8
	DD	FLAT:??_R3ICvGame1@@8
rdata$r	ENDS
;	COMDAT ??_7ICvGame1@@6B@
CONST	SEGMENT
??_7ICvGame1@@6B@ DD FLAT:??_R4ICvGame1@@6B@		; ICvGame1::`vftable'
	DD	FLAT:__purecall
	DD	FLAT:__purecall
	DD	FLAT:__purecall
	DD	FLAT:__purecall
	DD	FLAT:__purecall
	DD	FLAT:__purecall
	DD	FLAT:__purecall
	DD	FLAT:__purecall
	DD	FLAT:__purecall
	DD	FLAT:__purecall
	DD	FLAT:__purecall
	DD	FLAT:__purecall
	DD	FLAT:__purecall
	DD	FLAT:__purecall
	DD	FLAT:__purecall
	DD	FLAT:__purecall
	DD	FLAT:__purecall
	DD	FLAT:__purecall
	DD	FLAT:__purecall
	DD	FLAT:__purecall
	DD	FLAT:__purecall
	DD	FLAT:__purecall
	DD	FLAT:__purecall
	DD	FLAT:__purecall
	DD	FLAT:__purecall
	DD	FLAT:__purecall
	DD	FLAT:__purecall
	DD	FLAT:__purecall
	DD	FLAT:__purecall
	DD	FLAT:__purecall
	DD	FLAT:__purecall
	DD	FLAT:__purecall
	DD	FLAT:__purecall
	DD	FLAT:__purecall
	DD	FLAT:__purecall
	DD	FLAT:__purecall
	DD	FLAT:__purecall
	DD	FLAT:__purecall
	DD	FLAT:__purecall
	DD	FLAT:__purecall
	DD	FLAT:__purecall
	DD	FLAT:__purecall
	DD	FLAT:__purecall
	DD	FLAT:__purecall
	DD	FLAT:__purecall
	DD	FLAT:__purecall
	DD	FLAT:__purecall
	DD	FLAT:__purecall
	DD	FLAT:__purecall
	DD	FLAT:__purecall
	DD	FLAT:__purecall
	DD	FLAT:__purecall
	DD	FLAT:__purecall
	DD	FLAT:__purecall
	DD	FLAT:__purecall
	DD	FLAT:__purecall
	DD	FLAT:__purecall
	DD	FLAT:__purecall
	DD	FLAT:__purecall
	DD	FLAT:__purecall
	DD	FLAT:__purecall
	DD	FLAT:__purecall
	DD	FLAT:__purecall
	DD	FLAT:__purecall
	DD	FLAT:__purecall
	DD	FLAT:__purecall
	DD	FLAT:__purecall
	DD	FLAT:__purecall
	DD	FLAT:__purecall
	DD	FLAT:__purecall
	DD	FLAT:__purecall
	DD	FLAT:__purecall
	DD	FLAT:__purecall
	DD	FLAT:__purecall
	DD	FLAT:__purecall
	DD	FLAT:__purecall
	DD	FLAT:__purecall
	DD	FLAT:__purecall
	DD	FLAT:__purecall
	DD	FLAT:__purecall
	DD	FLAT:__purecall
; Function compile flags: /Ogtpy
CONST	ENDS
;	COMDAT ??0ICvGame1@@QAE@XZ
_TEXT	SEGMENT
??0ICvGame1@@QAE@XZ PROC				; ICvGame1::ICvGame1, COMDAT
; _this$ = ecx
	mov	eax, ecx
	mov	DWORD PTR [eax], OFFSET ??_7ICvGame1@@6B@
	ret	0
??0ICvGame1@@QAE@XZ ENDP				; ICvGame1::ICvGame1
_TEXT	ENDS
PUBLIC	??_7CvDllGame@@6B@				; CvDllGame::`vftable'
PUBLIC	??1CvDllGame@@QAE@XZ				; CvDllGame::~CvDllGame
PUBLIC	??_R4CvDllGame@@6B@				; CvDllGame::`RTTI Complete Object Locator'
PUBLIC	??_R0?AVCvDllGame@@@8				; CvDllGame `RTTI Type Descriptor'
PUBLIC	??_R3CvDllGame@@8				; CvDllGame::`RTTI Class Hierarchy Descriptor'
PUBLIC	??_R2CvDllGame@@8				; CvDllGame::`RTTI Base Class Array'
PUBLIC	??_R1A@?0A@EA@CvDllGame@@8			; CvDllGame::`RTTI Base Class Descriptor at (0,-1,0,64)'
PUBLIC	??_R1A@?0A@EA@ICvGame2@@8			; ICvGame2::`RTTI Base Class Descriptor at (0,-1,0,64)'
PUBLIC	??_R0?AVICvGame2@@@8				; ICvGame2 `RTTI Type Descriptor'
PUBLIC	??_R3ICvGame2@@8				; ICvGame2::`RTTI Class Hierarchy Descriptor'
PUBLIC	??_R2ICvGame2@@8				; ICvGame2::`RTTI Base Class Array'
PUBLIC	?QueryInterface@CvDllGame@@UAGPAXU_GUID@@@Z	; CvDllGame::QueryInterface
PUBLIC	?Destroy@CvDllGame@@EAGXXZ			; CvDllGame::Destroy
PUBLIC	?GetPlayer@CvDllGame@@UAGPAVICvPlayer1@@W4PlayerTypes@@@Z ; CvDllGame::GetPlayer
PUBLIC	?SetTimeStr@CvDllGame@@UAGXPADH_N@Z		; CvDllGame::SetTimeStr
PUBLIC	?CanMoveUnitTo@CvDllGame@@UBG_NPAVICvUnit1@@PAVICvPlot1@@@Z ; CvDllGame::CanMoveUnitTo
PUBLIC	?GetGreatWorkAudio@CvDllGame@@UAG_NHPADH@Z	; CvDllGame::GetGreatWorkAudio
;	COMDAT ??_R2ICvGame2@@8
; File s:\lekmod_dll\cvgamecoredll_expansion2\cvglobals.h
rdata$r	SEGMENT
??_R2ICvGame2@@8 DD FLAT:??_R1A@?0A@EA@ICvGame2@@8	; ICvGame2::`RTTI Base Class Array'
	DD	FLAT:??_R1A@?0A@EA@ICvGame1@@8
	DD	FLAT:??_R1A@?0A@EA@ICvUnknown@@8
rdata$r	ENDS
;	COMDAT ??_R3ICvGame2@@8
rdata$r	SEGMENT
??_R3ICvGame2@@8 DD 00H					; ICvGame2::`RTTI Class Hierarchy Descriptor'
	DD	00H
	DD	03H
	DD	FLAT:??_R2ICvGame2@@8
rdata$r	ENDS
;	COMDAT ??_R0?AVICvGame2@@@8
_DATA	SEGMENT
??_R0?AVICvGame2@@@8 DD FLAT:??_7type_info@@6B@		; ICvGame2 `RTTI Type Descriptor'
	DD	00H
	DB	'.?AVICvGame2@@', 00H
_DATA	ENDS
;	COMDAT ??_R1A@?0A@EA@ICvGame2@@8
rdata$r	SEGMENT
??_R1A@?0A@EA@ICvGame2@@8 DD FLAT:??_R0?AVICvGame2@@@8	; ICvGame2::`RTTI Base Class Descriptor at (0,-1,0,64)'
	DD	02H
	DD	00H
	DD	0ffffffffH
	DD	00H
	DD	040H
	DD	FLAT:??_R3ICvGame2@@8
rdata$r	ENDS
;	COMDAT ??_R1A@?0A@EA@CvDllGame@@8
rdata$r	SEGMENT
??_R1A@?0A@EA@CvDllGame@@8 DD FLAT:??_R0?AVCvDllGame@@@8 ; CvDllGame::`RTTI Base Class Descriptor at (0,-1,0,64)'
	DD	03H
	DD	00H
	DD	0ffffffffH
	DD	00H
	DD	040H
	DD	FLAT:??_R3CvDllGame@@8
rdata$r	ENDS
;	COMDAT ??_R2CvDllGame@@8
rdata$r	SEGMENT
??_R2CvDllGame@@8 DD FLAT:??_R1A@?0A@EA@CvDllGame@@8	; CvDllGame::`RTTI Base Class Array'
	DD	FLAT:??_R1A@?0A@EA@ICvGame2@@8
	DD	FLAT:??_R1A@?0A@EA@ICvGame1@@8
	DD	FLAT:??_R1A@?0A@EA@ICvUnknown@@8
rdata$r	ENDS
;	COMDAT ??_R3CvDllGame@@8
rdata$r	SEGMENT
??_R3CvDllGame@@8 DD 00H				; CvDllGame::`RTTI Class Hierarchy Descriptor'
	DD	00H
	DD	04H
	DD	FLAT:??_R2CvDllGame@@8
rdata$r	ENDS
;	COMDAT ??_R0?AVCvDllGame@@@8
_DATA	SEGMENT
??_R0?AVCvDllGame@@@8 DD FLAT:??_7type_info@@6B@	; CvDllGame `RTTI Type Descriptor'
	DD	00H
	DB	'.?AVCvDllGame@@', 00H
_DATA	ENDS
;	COMDAT ??_R4CvDllGame@@6B@
rdata$r	SEGMENT
??_R4CvDllGame@@6B@ DD 00H				; CvDllGame::`RTTI Complete Object Locator'
	DD	00H
	DD	00H
	DD	FLAT:??_R0?AVCvDllGame@@@8
	DD	FLAT:??_R3CvDllGame@@8
rdata$r	ENDS
;	COMDAT ??_7CvDllGame@@6B@
CONST	SEGMENT
??_7CvDllGame@@6B@ DD FLAT:??_R4CvDllGame@@6B@		; CvDllGame::`vftable'
	DD	FLAT:?QueryInterface@CvDllGame@@UAGPAXU_GUID@@@Z
	DD	FLAT:?Destroy@CvDllGame@@EAGXXZ
	DD	FLAT:?GetPlayer@CvDllGame@@UAGPAVICvPlayer1@@W4PlayerTypes@@@Z
	DD	FLAT:?GetActivePlayer@CvDllGame@@UAG?AW4PlayerTypes@@XZ
	DD	FLAT:?GetActiveTeam@CvDllGame@@UAG?AW4TeamTypes@@XZ
	DD	FLAT:?GetGameTurn@CvDllGame@@UBGHXZ
	DD	FLAT:?ChangeNumGameTurnActive@CvDllGame@@UAGXHPBD@Z
	DD	FLAT:?CountHumanPlayersAlive@CvDllGame@@UBGHXZ
	DD	FLAT:?CountNumHumanGameTurnActive@CvDllGame@@UAGHXZ
	DD	FLAT:?CyclePlotUnits@CvDllGame@@UAG_NPAVICvPlot1@@_N1H@Z
	DD	FLAT:?CycleUnits@CvDllGame@@UAGX_N00@Z
	DD	FLAT:?DoGameStarted@CvDllGame@@UAGXXZ
	DD	FLAT:?EndTurnTimerReset@CvDllGame@@UAGXXZ
	DD	FLAT:?EndTurnTimerSemaphoreDecrement@CvDllGame@@UAGXXZ
	DD	FLAT:?EndTurnTimerSemaphoreIncrement@CvDllGame@@UAGXXZ
	DD	FLAT:?GetAction@CvDllGame@@UAGHH_N00@Z
	DD	FLAT:?IsAction@CvDllGame@@UAGHH_N00@Z
	DD	FLAT:?GetBarbarianCampImprovementType@CvDllGame@@UAG?AW4ImprovementTypes@@XZ
	DD	FLAT:?GetElapsedGameTurns@CvDllGame@@UBGHXZ
	DD	FLAT:?GetFOW@CvDllGame@@UAG_NXZ
	DD	FLAT:?GetGameDeals@CvDllGame@@UAGPAVICvGameDeals1@@XZ
	DD	FLAT:?GetGameSpeedType@CvDllGame@@UBG?AW4GameSpeedTypes@@XZ
	DD	FLAT:?GetGameState@CvDllGame@@UAG?AW4GameStateTypes@@XZ
	DD	FLAT:?GetHandicapType@CvDllGame@@UBG?AW4HandicapTypes@@XZ
	DD	FLAT:?GetRandomNumberGenerator@CvDllGame@@UAGPAVICvRandom1@@XZ
	DD	FLAT:?GetJonRandNum@CvDllGame@@UAGHHPBD@Z
	DD	FLAT:?GetMaxTurns@CvDllGame@@UBGHXZ
	DD	FLAT:?GetNumGameTurnActive@CvDllGame@@UAGHXZ
	DD	FLAT:?GetPausePlayer@CvDllGame@@UAG?AW4PlayerTypes@@XZ
	DD	FLAT:?GetPbemTurnSent@CvDllGame@@UBG_NXZ
	DD	FLAT:?GetPlotUnit@CvDllGame@@UAGPAVICvUnit1@@PAVICvPlot1@@H@Z
	DD	FLAT:?GetVariableCitySizeFromPopulation@CvDllGame@@UAGII@Z
	DD	FLAT:?GetVictory@CvDllGame@@UBG?AW4VictoryTypes@@XZ
	DD	FLAT:?GetVotesNeededForDiploVictory@CvDllGame@@UBGHXZ
	DD	FLAT:?GetWinner@CvDllGame@@UBG?AW4TeamTypes@@XZ
	DD	FLAT:?GetWinningTurn@CvDllGame@@UBGHXZ
	DD	FLAT:?HandleAction@CvDllGame@@UAGXH@Z
	DD	FLAT:?HasTurnTimerExpired@CvDllGame@@UAG_NXZ
	DD	FLAT:?Init@CvDllGame@@UAGXW4HandicapTypes@@@Z
	DD	FLAT:?Init2@CvDllGame@@UAG_NXZ
	DD	FLAT:?InitScoreCalculation@CvDllGame@@UAGXXZ
	DD	FLAT:?InitTacticalAnalysisMap@CvDllGame@@UAGXH@Z
	DD	FLAT:?IsCityScreenBlocked@CvDllGame@@UAG_NXZ
	DD	FLAT:?CanOpenCityScreen@CvDllGame@@UAG_NW4PlayerTypes@@PAVICvCity1@@@Z
	DD	FLAT:?IsDebugMode@CvDllGame@@UBG_NXZ
	DD	FLAT:?IsFinalInitialized@CvDllGame@@UBG_NXZ
	DD	FLAT:?IsGameMultiPlayer@CvDllGame@@UBG_NXZ
	DD	FLAT:?IsHotSeat@CvDllGame@@UBG_NXZ
	DD	FLAT:?IsMPOption@CvDllGame@@UBE_NW4MultiplayerOptionTypes@@@Z
	DD	FLAT:?IsNetworkMultiPlayer@CvDllGame@@UBG_NXZ
	DD	FLAT:?IsOption@CvDllGame@@UBE_NW4GameOptionTypes@@@Z
	DD	FLAT:?IsPaused@CvDllGame@@UAG_NXZ
	DD	FLAT:?IsPbem@CvDllGame@@UBG_NXZ
	DD	FLAT:?IsTeamGame@CvDllGame@@UBG_NXZ
	DD	FLAT:?LogGameState@CvDllGame@@UAGX_N@Z
	DD	FLAT:?ResetTurnTimer@CvDllGame@@UAGXXZ
	DD	FLAT:?SelectAll@CvDllGame@@UAGXPAVICvPlot1@@@Z
	DD	FLAT:?SelectGroup@CvDllGame@@UAGXPAVICvUnit1@@_N11@Z
	DD	FLAT:?SelectionListIgnoreBuildingDefense@CvDllGame@@UAG_NXZ
	DD	FLAT:?SelectionListMove@CvDllGame@@UAGXPAVICvPlot1@@_N@Z
	DD	FLAT:?SelectSettler@CvDllGame@@UAGXXZ
	DD	FLAT:?SelectUnit@CvDllGame@@UAGXPAVICvUnit1@@_N11@Z
	DD	FLAT:?SendPlayerOptions@CvDllGame@@UAGX_N@Z
	DD	FLAT:?SetDebugMode@CvDllGame@@UAGX_N@Z
	DD	FLAT:?SetFinalInitialized@CvDllGame@@UAGX_N@Z
	DD	FLAT:?SetInitialTime@CvDllGame@@UAGXI@Z
	DD	FLAT:?SetMPOption@CvDllGame@@UAEXW4MultiplayerOptionTypes@@_N@Z
	DD	FLAT:?SetPausePlayer@CvDllGame@@UAGXW4PlayerTypes@@@Z
	DD	FLAT:?SetTimeStr@CvDllGame@@UAGXPADH_N@Z
	DD	FLAT:?TunerEverConnected@CvDllGame@@UBG_NXZ
	DD	FLAT:?Uninit@CvDllGame@@UAGXXZ
	DD	FLAT:?UnitIsMoving@CvDllGame@@UAGXXZ
	DD	FLAT:?Update@CvDllGame@@UAGXXZ
	DD	FLAT:?UpdateSelectionList@CvDllGame@@UAGXXZ
	DD	FLAT:?UpdateTestEndTurn@CvDllGame@@UAGXXZ
	DD	FLAT:?Read@CvDllGame@@UAGXAAVFDataStream@@@Z
	DD	FLAT:?Write@CvDllGame@@UBGXAAVFDataStream@@@Z
	DD	FLAT:?ReadSupportingClassData@CvDllGame@@UAGXAAVFDataStream@@@Z
	DD	FLAT:?WriteSupportingClassData@CvDllGame@@UBGXAAVFDataStream@@@Z
	DD	FLAT:?WriteReplay@CvDllGame@@UBGXAAVFDataStream@@@Z
	DD	FLAT:?CanMoveUnitTo@CvDllGame@@UBG_NPAVICvUnit1@@PAVICvPlot1@@@Z
	DD	FLAT:?HasTurnTimerExpired@CvDllGame@@UAG_NW4PlayerTypes@@@Z
	DD	FLAT:?TurnTimerSync@CvDllGame@@UAGXMM@Z
	DD	FLAT:?GetTurnTimerData@CvDllGame@@UAGXAAM0@Z
	DD	FLAT:?NetMessageStaticsReset@CvDllGame@@UAGXXZ
	DD	FLAT:?SetLastTurnAICivsProcessed@CvDllGame@@UAGXXZ
	DD	FLAT:?GetGreatWorkAudio@CvDllGame@@UAG_NHPADH@Z
; Function compile flags: /Ogtpy
; File s:\lekmod_dll\cvgamecoredll_expansion2\cvdllgame.cpp
CONST	ENDS
;	COMDAT ??1CvDllGame@@QAE@XZ
_TEXT	SEGMENT
??1CvDllGame@@QAE@XZ PROC				; CvDllGame::~CvDllGame, COMDAT
; _this$ = ecx

; 30   : {

	mov	DWORD PTR [ecx], OFFSET ??_7CvDllGame@@6B@

; 31   : 	if(gDLL)

	mov	ecx, DWORD PTR ?gGlobals@@3VCvGlobals@@A+8564
	test	ecx, ecx
	je	SHORT $LN1@CvDllGame

; 32   : 		gDLL->ReleaseGameCoreLock();

	mov	eax, DWORD PTR [ecx]
	mov	edx, DWORD PTR [eax+916]
	jmp	edx
$LN1@CvDllGame:

; 33   : }

	ret	0
??1CvDllGame@@QAE@XZ ENDP				; CvDllGame::~CvDllGame
; Function compile flags: /Ogtpy
_TEXT	ENDS
;	COMDAT ?QueryInterface@CvDllGame@@UAGPAXU_GUID@@@Z
_TEXT	SEGMENT
$T220082 = -16						; size = 16
$T220080 = -16						; size = 16
$T220078 = -16						; size = 16
_this$ = 8						; size = 4
_guidInterface$ = 12					; size = 16
?QueryInterface@CvDllGame@@UAGPAXU_GUID@@@Z PROC	; CvDllGame::QueryInterface, COMDAT

; 36   : {

	sub	esp, 16					; 00000010H

; 37   : 	if(guidInterface == ICvUnknown::GetInterfaceId() ||
; 38   : 		guidInterface == ICvGame1::GetInterfaceId()	 ||
; 39   : 		guidInterface == ICvGame2::GetInterfaceId())

	mov	ecx, DWORD PTR _guidICvUnknown+4
	mov	edx, DWORD PTR _guidICvUnknown+8
	mov	eax, DWORD PTR _guidICvUnknown
	mov	DWORD PTR $T220078[esp+20], ecx
	lea	ecx, DWORD PTR $T220078[esp+16]
	mov	DWORD PTR $T220078[esp+24], edx
	mov	DWORD PTR $T220078[esp+16], eax
	mov	eax, DWORD PTR _guidICvUnknown+12
	push	ecx
	lea	edx, DWORD PTR _guidInterface$[esp+16]
	push	edx
	mov	DWORD PTR $T220078[esp+36], eax
	call	_IsEqualGUID
	add	esp, 8
	test	eax, eax
	jne	SHORT $LN1@QueryInter
	mov	ecx, DWORD PTR _guidICvGame1+4
	mov	edx, DWORD PTR _guidICvGame1+8
	mov	eax, DWORD PTR _guidICvGame1
	mov	DWORD PTR $T220080[esp+20], ecx
	lea	ecx, DWORD PTR $T220080[esp+16]
	mov	DWORD PTR $T220080[esp+24], edx
	mov	DWORD PTR $T220080[esp+16], eax
	mov	eax, DWORD PTR _guidICvGame1+12
	push	ecx
	lea	edx, DWORD PTR _guidInterface$[esp+16]
	push	edx
	mov	DWORD PTR $T220080[esp+36], eax
	call	_IsEqualGUID
	add	esp, 8
	test	eax, eax
	jne	SHORT $LN1@QueryInter
	mov	ecx, DWORD PTR _guidICvGame2+4
	mov	edx, DWORD PTR _guidICvGame2+8
	mov	eax, DWORD PTR _guidICvGame2
	mov	DWORD PTR $T220082[esp+20], ecx
	lea	ecx, DWORD PTR $T220082[esp+16]
	mov	DWORD PTR $T220082[esp+24], edx
	mov	DWORD PTR $T220082[esp+16], eax
	mov	eax, DWORD PTR _guidICvGame2+12
	push	ecx
	lea	edx, DWORD PTR _guidInterface$[esp+16]
	push	edx
	mov	DWORD PTR $T220082[esp+36], eax
	call	_IsEqualGUID
	add	esp, 8
	test	eax, eax
	jne	SHORT $LN1@QueryInter

; 42   : 		return this;
; 43   : 	}
; 44   : 
; 45   : 	return NULL;
; 46   : }

	add	esp, 16					; 00000010H
	ret	20					; 00000014H
$LN1@QueryInter:

; 40   : 	{
; 41   : 		IncrementReference();

	mov	eax, DWORD PTR _this$[esp+12]
	inc	DWORD PTR [eax+4]

; 42   : 		return this;
; 43   : 	}
; 44   : 
; 45   : 	return NULL;
; 46   : }

	add	esp, 16					; 00000010H
	ret	20					; 00000014H
?QueryInterface@CvDllGame@@UAGPAXU_GUID@@@Z ENDP	; CvDllGame::QueryInterface
_TEXT	ENDS
PUBLIC	??_GCvDllGame@@QAEPAXI@Z			; CvDllGame::`scalar deleting destructor'
; Function compile flags: /Ogtpy
;	COMDAT ??_GCvDllGame@@QAEPAXI@Z
_TEXT	SEGMENT
___flags$ = 8						; size = 4
??_GCvDllGame@@QAEPAXI@Z PROC				; CvDllGame::`scalar deleting destructor', COMDAT
; _this$ = ecx
	push	esi
	mov	esi, ecx
	mov	DWORD PTR [esi], OFFSET ??_7CvDllGame@@6B@
	mov	ecx, DWORD PTR ?gGlobals@@3VCvGlobals@@A+8564
	test	ecx, ecx
	je	SHORT $LN4@scalar
	mov	eax, DWORD PTR [ecx]
	mov	edx, DWORD PTR [eax+916]
	call	edx
$LN4@scalar:
	test	BYTE PTR ___flags$[esp], 1
	je	SHORT $LN13@scalar
	push	esi
	call	?Free@CvDllGameContext@@SAXPAX@Z	; CvDllGameContext::Free
	add	esp, 4
$LN13@scalar:
	mov	eax, esi
	pop	esi
	ret	4
??_GCvDllGame@@QAEPAXI@Z ENDP				; CvDllGame::`scalar deleting destructor'
_TEXT	ENDS
EXTRN	??3CvDllPlayer@@SAXPAX@Z:PROC			; CvDllPlayer::operator delete
EXTRN	??0CvDllPlayer@@QAE@PAVCvPlayerAI@@@Z:PROC	; CvDllPlayer::CvDllPlayer
EXTRN	??2CvDllPlayer@@SAPAXI@Z:PROC			; CvDllPlayer::operator new
;	COMDAT xdata$x
; File s:\lekmod_dll\cvgamecoredll_expansion2\cvplayerai.h
xdata$x	SEGMENT
__unwindtable$?GetPlayer@CvDllGame@@UAGPAVICvPlayer1@@W4PlayerTypes@@@Z DD 0ffffffffH
	DD	FLAT:__unwindfunclet$?GetPlayer@CvDllGame@@UAGPAVICvPlayer1@@W4PlayerTypes@@@Z$0
__ehfuncinfo$?GetPlayer@CvDllGame@@UAGPAVICvPlayer1@@W4PlayerTypes@@@Z DD 019930522H
	DD	01H
	DD	FLAT:__unwindtable$?GetPlayer@CvDllGame@@UAGPAVICvPlayer1@@W4PlayerTypes@@@Z
	DD	2 DUP(00H)
	DD	2 DUP(00H)
	DD	00H
	DD	01H
; Function compile flags: /Ogtpy
; File s:\lekmod_dll\cvgamecoredll_expansion2\cvdllgame.cpp
xdata$x	ENDS
;	COMDAT ?GetPlayer@CvDllGame@@UAGPAVICvPlayer1@@W4PlayerTypes@@@Z
_TEXT	SEGMENT
$T220135 = -16						; size = 4
__$EHRec$ = -12						; size = 12
_this$ = 8						; size = 4
_ePlayer$ = 12						; size = 4
?GetPlayer@CvDllGame@@UAGPAVICvPlayer1@@W4PlayerTypes@@@Z PROC ; CvDllGame::GetPlayer, COMDAT

; 89   : {

	push	-1
	push	__ehhandler$?GetPlayer@CvDllGame@@UAGPAVICvPlayer1@@W4PlayerTypes@@@Z
	mov	eax, DWORD PTR fs:0
	push	eax
	mov	DWORD PTR fs:0, esp
	push	ecx

; 90   : 	return new CvDllPlayer(&CvPlayerAI::getPlayer(ePlayer));

	push	12					; 0000000cH
	call	??2CvDllPlayer@@SAPAXI@Z		; CvDllPlayer::operator new
	add	esp, 4
	mov	DWORD PTR $T220135[esp+16], eax
	mov	DWORD PTR __$EHRec$[esp+24], 0
	test	eax, eax
	je	SHORT $LN3@GetPlayer
	mov	edx, DWORD PTR _ePlayer$[esp+12]
	imul	edx, 63236				; 0000f704H
	add	edx, DWORD PTR ?m_aPlayers@CvPlayerAI@@1PAV1@A ; CvPlayerAI::m_aPlayers
	mov	ecx, eax
	push	edx
	call	??0CvDllPlayer@@QAE@PAVCvPlayerAI@@@Z	; CvDllPlayer::CvDllPlayer

; 91   : }

	mov	ecx, DWORD PTR __$EHRec$[esp+16]
	mov	DWORD PTR fs:0, ecx
	add	esp, 16					; 00000010H
	ret	8
$LN3@GetPlayer:
	mov	ecx, DWORD PTR __$EHRec$[esp+16]
	xor	eax, eax
	mov	DWORD PTR fs:0, ecx
	add	esp, 16					; 00000010H
	ret	8
_TEXT	ENDS
;	COMDAT text$x
text$x	SEGMENT
__unwindfunclet$?GetPlayer@CvDllGame@@UAGPAVICvPlayer1@@W4PlayerTypes@@@Z$0:
	mov	eax, DWORD PTR $T220135[ebp]
	push	eax
	call	??3CvDllPlayer@@SAXPAX@Z		; CvDllPlayer::operator delete
	pop	ecx
	ret	0
__ehhandler$?GetPlayer@CvDllGame@@UAGPAVICvPlayer1@@W4PlayerTypes@@@Z:
	mov	eax, OFFSET __ehfuncinfo$?GetPlayer@CvDllGame@@UAGPAVICvPlayer1@@W4PlayerTypes@@@Z
	jmp	___CxxFrameHandler3
text$x	ENDS
?GetPlayer@CvDllGame@@UAGPAVICvPlayer1@@W4PlayerTypes@@@Z ENDP ; CvDllGame::GetPlayer
EXTRN	__imp__strcpy_s:PROC
EXTRN	__imp_?c_str@?$basic_string@DU?$char_traits@D@std@@V?$allocator@D@2@@std@@QBEPBDXZ:PROC
EXTRN	?setDateStr@CvGameTextMgr@@SAXAAVCvString@@H_NW4CalendarTypes@@HW4GameSpeedTypes@@@Z:PROC ; CvGameTextMgr::setDateStr
EXTRN	?getCalendar@CvGame@@QBE?AW4CalendarTypes@@XZ:PROC ; CvGame::getCalendar
EXTRN	?getStartYear@CvGame@@QBEHXZ:PROC		; CvGame::getStartYear
;	COMDAT xdata$x
; File s:\lekmod_dll\cvgamecoredllutil\include\cvstring.h
xdata$x	SEGMENT
__unwindtable$?SetTimeStr@CvDllGame@@UAGXPADH_N@Z DD 0ffffffffH
	DD	FLAT:__unwindfunclet$?SetTimeStr@CvDllGame@@UAGXPADH_N@Z$0
__ehfuncinfo$?SetTimeStr@CvDllGame@@UAGXPADH_N@Z DD 019930522H
	DD	01H
	DD	FLAT:__unwindtable$?SetTimeStr@CvDllGame@@UAGXPADH_N@Z
	DD	2 DUP(00H)
	DD	2 DUP(00H)
	DD	00H
	DD	01H
; Function compile flags: /Ogtpy
; File s:\lekmod_dll\cvgamecoredll_expansion2\cvdllgame.cpp
xdata$x	ENDS
;	COMDAT ?SetTimeStr@CvDllGame@@UAGXPADH_N@Z
_TEXT	SEGMENT
_strString$219337 = -40					; size = 28
__$EHRec$ = -12						; size = 12
_this$ = 8						; size = 4
_szString$ = 12						; size = 4
_iGameTurn$ = 16					; size = 4
_bSave$ = 20						; size = 1
?SetTimeStr@CvDllGame@@UAGXPADH_N@Z PROC		; CvDllGame::SetTimeStr, COMDAT

; 454  : {

	mov	eax, DWORD PTR fs:0
	push	-1
	push	__ehhandler$?SetTimeStr@CvDllGame@@UAGXPADH_N@Z
	push	eax
	mov	DWORD PTR fs:0, esp
	sub	esp, 28					; 0000001cH
	push	edi

; 455  : 	if(szString)

	mov	edi, DWORD PTR _szString$[esp+40]
	test	edi, edi
	je	SHORT $LN1@SetTimeStr
	push	esi

; 456  : 	{
; 457  : 		CvString strString;

	lea	ecx, DWORD PTR _strString$219337[esp+48]
	call	DWORD PTR __imp_??0?$basic_string@DU?$char_traits@D@std@@V?$allocator@D@2@@std@@QAE@XZ

; 458  : 		CvGameTextMgr::setDateStr(strString,
; 459  : 		                          iGameTurn,
; 460  : 		                          bSave,
; 461  : 		                          m_pGame->getCalendar(),
; 462  : 		                          m_pGame->getStartYear(),
; 463  : 		                          m_pGame->getGameSpeedType());

	mov	esi, DWORD PTR _this$[esp+44]
	mov	ecx, DWORD PTR [esi+8]
	mov	DWORD PTR __$EHRec$[esp+56], 0
	call	?getGameSpeedType@CvGame@@QBE?AW4GameSpeedTypes@@XZ ; CvGame::getGameSpeedType
	mov	ecx, DWORD PTR [esi+8]
	push	eax
	call	?getStartYear@CvGame@@QBEHXZ		; CvGame::getStartYear
	mov	ecx, DWORD PTR [esi+8]
	push	eax
	call	?getCalendar@CvGame@@QBE?AW4CalendarTypes@@XZ ; CvGame::getCalendar
	mov	ecx, DWORD PTR _iGameTurn$[esp+52]
	push	eax
	mov	eax, DWORD PTR _bSave$[esp+56]
	push	eax
	push	ecx
	lea	edx, DWORD PTR _strString$219337[esp+68]
	push	edx
	call	?setDateStr@CvGameTextMgr@@SAXAAVCvString@@H_NW4CalendarTypes@@HW4GameSpeedTypes@@@Z ; CvGameTextMgr::setDateStr
	add	esp, 24					; 00000018H

; 464  : 
; 465  : 		strcpy_s(szString, 256, strString.c_str());

	lea	ecx, DWORD PTR _strString$219337[esp+48]
	call	DWORD PTR __imp_?c_str@?$basic_string@DU?$char_traits@D@std@@V?$allocator@D@2@@std@@QBEPBDXZ
	push	eax
	push	256					; 00000100H
	push	edi
	call	DWORD PTR __imp__strcpy_s
	add	esp, 12					; 0000000cH

; 466  : 	}

	lea	ecx, DWORD PTR _strString$219337[esp+48]
	mov	DWORD PTR __$EHRec$[esp+56], -1
	call	DWORD PTR __imp_??1?$basic_string@DU?$char_traits@D@std@@V?$allocator@D@2@@std@@QAE@XZ
	pop	esi
$LN1@SetTimeStr:

; 467  : }

	mov	ecx, DWORD PTR __$EHRec$[esp+44]
	pop	edi
	mov	DWORD PTR fs:0, ecx
	add	esp, 40					; 00000028H
	ret	16					; 00000010H
_TEXT	ENDS
;	COMDAT text$x
text$x	SEGMENT
__unwindfunclet$?SetTimeStr@CvDllGame@@UAGXPADH_N@Z$0:
	lea	ecx, DWORD PTR _strString$219337[ebp]
	jmp	??1CvString@@QAE@XZ			; CvString::~CvString
__ehhandler$?SetTimeStr@CvDllGame@@UAGXPADH_N@Z:
	mov	eax, OFFSET __ehfuncinfo$?SetTimeStr@CvDllGame@@UAGXPADH_N@Z
	jmp	___CxxFrameHandler3
text$x	ENDS
?SetTimeStr@CvDllGame@@UAGXPADH_N@Z ENDP		; CvDllGame::SetTimeStr
EXTRN	?GetGreatWorkAudio@CultureHelpers@@YA?AVCvString@@W4GreatWorkType@@@Z:PROC ; CultureHelpers::GetGreatWorkAudio
EXTRN	?GetGreatWorkType@CvGameCulture@@QBE?AW4GreatWorkType@@H@Z:PROC ; CvGameCulture::GetGreatWorkType
EXTRN	?GetGameCulture@CvGame@@QAEPAVCvGameCulture@@XZ:PROC ; CvGame::GetGameCulture
;	COMDAT xdata$x
; File s:\lekmod_dll\cvgamecoredllutil\include\cvstring.h
xdata$x	SEGMENT
__unwindtable$?GetGreatWorkAudio@CvDllGame@@UAG_NHPADH@Z DD 0ffffffffH
	DD	FLAT:__unwindfunclet$?GetGreatWorkAudio@CvDllGame@@UAG_NHPADH@Z$0
__ehfuncinfo$?GetGreatWorkAudio@CvDllGame@@UAG_NHPADH@Z DD 019930522H
	DD	01H
	DD	FLAT:__unwindtable$?GetGreatWorkAudio@CvDllGame@@UAG_NHPADH@Z
	DD	2 DUP(00H)
	DD	2 DUP(00H)
	DD	00H
	DD	01H
; Function compile flags: /Ogtpy
; File s:\lekmod_dll\cvgamecoredll_expansion2\cvdllgame.cpp
xdata$x	ENDS
;	COMDAT ?GetGreatWorkAudio@CvDllGame@@UAG_NHPADH@Z
_TEXT	SEGMENT
_audio$219402 = -40					; size = 28
__$EHRec$ = -12						; size = 12
_this$ = 8						; size = 4
_GreatWorkIndex$ = 12					; size = 4
_strSound$ = 16						; size = 4
_length$ = 20						; size = 4
?GetGreatWorkAudio@CvDllGame@@UAG_NHPADH@Z PROC		; CvDllGame::GetGreatWorkAudio, COMDAT

; 566  : {

	mov	eax, DWORD PTR fs:0
	push	-1
	push	__ehhandler$?GetGreatWorkAudio@CvDllGame@@UAG_NHPADH@Z
	push	eax

; 567  : 	if (GreatWorkIndex == -1)

	mov	eax, DWORD PTR _GreatWorkIndex$[esp+8]
	mov	DWORD PTR fs:0, esp
	sub	esp, 28					; 0000001cH
	cmp	eax, -1
	jne	SHORT $LN4@GetGreatWo

; 568  : 	{
; 569  : 		return false;

	xor	al, al

; 585  : 
; 586  : 	return false;
; 587  : }

	mov	ecx, DWORD PTR __$EHRec$[esp+40]
	mov	DWORD PTR fs:0, ecx
	add	esp, 40					; 00000028H
	ret	16					; 00000010H
$LN4@GetGreatWo:
	push	esi

; 570  : 	}
; 571  : 
; 572  : 	const GreatWorkType eType = m_pGame->GetGameCulture()->GetGreatWorkType(GreatWorkIndex);

	push	eax
	mov	eax, DWORD PTR _this$[esp+44]
	mov	ecx, DWORD PTR [eax+8]
	call	?GetGameCulture@CvGame@@QAEPAVCvGameCulture@@XZ ; CvGame::GetGameCulture
	mov	ecx, eax
	call	?GetGreatWorkType@CvGameCulture@@QBE?AW4GreatWorkType@@H@Z ; CvGameCulture::GetGreatWorkType

; 573  : 	if(eType != NO_GREAT_WORK)

	cmp	eax, -1
	je	SHORT $LN3@GetGreatWo

; 574  : 	{
; 575  : 		const CvString audio = CultureHelpers::GetGreatWorkAudio(eType);

	push	eax
	lea	ecx, DWORD PTR _audio$219402[esp+48]
	push	ecx
	call	?GetGreatWorkAudio@CultureHelpers@@YA?AVCvString@@W4GreatWorkType@@@Z ; CultureHelpers::GetGreatWorkAudio
	add	esp, 8

; 576  : 
; 577  : 		if(audio.GetLength() <= length)

	lea	ecx, DWORD PTR _audio$219402[esp+44]
	mov	DWORD PTR __$EHRec$[esp+52], 0
	call	DWORD PTR __imp_?size@?$basic_string@DU?$char_traits@D@std@@V?$allocator@D@2@@std@@QBEIXZ
	mov	esi, DWORD PTR _length$[esp+40]
	cmp	eax, esi
	jg	SHORT $LN1@GetGreatWo

; 578  : 		{
; 579  : 			if(strcpy_s(strSound, length, audio.c_str()) == 0)

	lea	ecx, DWORD PTR _audio$219402[esp+44]
	call	DWORD PTR __imp_?c_str@?$basic_string@DU?$char_traits@D@std@@V?$allocator@D@2@@std@@QBEPBDXZ
	mov	edx, DWORD PTR _strSound$[esp+40]
	push	eax
	push	esi
	push	edx
	call	DWORD PTR __imp__strcpy_s
	add	esp, 12					; 0000000cH
	test	eax, eax
	jne	SHORT $LN1@GetGreatWo

; 580  : 			{
; 581  : 				return true;

	lea	ecx, DWORD PTR _audio$219402[esp+44]
	mov	DWORD PTR __$EHRec$[esp+52], -1
	call	DWORD PTR __imp_??1?$basic_string@DU?$char_traits@D@std@@V?$allocator@D@2@@std@@QAE@XZ
	mov	al, 1
	pop	esi

; 585  : 
; 586  : 	return false;
; 587  : }

	mov	ecx, DWORD PTR __$EHRec$[esp+40]
	mov	DWORD PTR fs:0, ecx
	add	esp, 40					; 00000028H
	ret	16					; 00000010H
$LN1@GetGreatWo:

; 582  : 			}
; 583  : 		}
; 584  : 	}

	lea	ecx, DWORD PTR _audio$219402[esp+44]
	mov	DWORD PTR __$EHRec$[esp+52], -1
	call	DWORD PTR __imp_??1?$basic_string@DU?$char_traits@D@std@@V?$allocator@D@2@@std@@QAE@XZ
$LN3@GetGreatWo:

; 585  : 
; 586  : 	return false;
; 587  : }

	mov	ecx, DWORD PTR __$EHRec$[esp+44]
	xor	al, al
	pop	esi
	mov	DWORD PTR fs:0, ecx
	add	esp, 40					; 00000028H
	ret	16					; 00000010H
_TEXT	ENDS
;	COMDAT text$x
text$x	SEGMENT
__unwindfunclet$?GetGreatWorkAudio@CvDllGame@@UAG_NHPADH@Z$0:
	lea	ecx, DWORD PTR _audio$219402[ebp]
	jmp	??1CvString@@QAE@XZ			; CvString::~CvString
__ehhandler$?GetGreatWorkAudio@CvDllGame@@UAG_NHPADH@Z:
	mov	eax, OFFSET __ehfuncinfo$?GetGreatWorkAudio@CvDllGame@@UAG_NHPADH@Z
	jmp	___CxxFrameHandler3
text$x	ENDS
?GetGreatWorkAudio@CvDllGame@@UAG_NHPADH@Z ENDP		; CvDllGame::GetGreatWorkAudio
PUBLIC	?getX@CvUnit@@QBEHXZ				; CvUnit::getX
; Function compile flags: /Ogtpy
; File s:\lekmod_dll\cvgamecoredll_expansion2\cvunit.h
;	COMDAT ?getX@CvUnit@@QBEHXZ
_TEXT	SEGMENT
?getX@CvUnit@@QBEHXZ PROC				; CvUnit::getX, COMDAT
; _this$ = ecx

; 673  : 		return m_iX.get();

	mov	eax, DWORD PTR [ecx+76]

; 674  : 	}

	ret	0
?getX@CvUnit@@QBEHXZ ENDP				; CvUnit::getX
_TEXT	ENDS
PUBLIC	?getY@CvUnit@@QBEHXZ				; CvUnit::getY
; Function compile flags: /Ogtpy
;	COMDAT ?getY@CvUnit@@QBEHXZ
_TEXT	SEGMENT
?getY@CvUnit@@QBEHXZ PROC				; CvUnit::getY, COMDAT
; _this$ = ecx

; 678  : 		return m_iY.get();

	mov	eax, DWORD PTR [ecx+88]

; 679  : 	}

	ret	0
?getY@CvUnit@@QBEHXZ ENDP				; CvUnit::getY
_TEXT	ENDS
PUBLIC	??_7ICvGame2@@6B@				; ICvGame2::`vftable'
PUBLIC	??0ICvGame2@@QAE@XZ				; ICvGame2::ICvGame2
PUBLIC	??_R4ICvGame2@@6B@				; ICvGame2::`RTTI Complete Object Locator'
;	COMDAT ??_R4ICvGame2@@6B@
rdata$r	SEGMENT
??_R4ICvGame2@@6B@ DD 00H				; ICvGame2::`RTTI Complete Object Locator'
	DD	00H
	DD	00H
	DD	FLAT:??_R0?AVICvGame2@@@8
	DD	FLAT:??_R3ICvGame2@@8
rdata$r	ENDS
;	COMDAT ??_7ICvGame2@@6B@
CONST	SEGMENT
??_7ICvGame2@@6B@ DD FLAT:??_R4ICvGame2@@6B@		; ICvGame2::`vftable'
	DD	FLAT:__purecall
	DD	FLAT:__purecall
	DD	FLAT:__purecall
	DD	FLAT:__purecall
	DD	FLAT:__purecall
	DD	FLAT:__purecall
	DD	FLAT:__purecall
	DD	FLAT:__purecall
	DD	FLAT:__purecall
	DD	FLAT:__purecall
	DD	FLAT:__purecall
	DD	FLAT:__purecall
	DD	FLAT:__purecall
	DD	FLAT:__purecall
	DD	FLAT:__purecall
	DD	FLAT:__purecall
	DD	FLAT:__purecall
	DD	FLAT:__purecall
	DD	FLAT:__purecall
	DD	FLAT:__purecall
	DD	FLAT:__purecall
	DD	FLAT:__purecall
	DD	FLAT:__purecall
	DD	FLAT:__purecall
	DD	FLAT:__purecall
	DD	FLAT:__purecall
	DD	FLAT:__purecall
	DD	FLAT:__purecall
	DD	FLAT:__purecall
	DD	FLAT:__purecall
	DD	FLAT:__purecall
	DD	FLAT:__purecall
	DD	FLAT:__purecall
	DD	FLAT:__purecall
	DD	FLAT:__purecall
	DD	FLAT:__purecall
	DD	FLAT:__purecall
	DD	FLAT:__purecall
	DD	FLAT:__purecall
	DD	FLAT:__purecall
	DD	FLAT:__purecall
	DD	FLAT:__purecall
	DD	FLAT:__purecall
	DD	FLAT:__purecall
	DD	FLAT:__purecall
	DD	FLAT:__purecall
	DD	FLAT:__purecall
	DD	FLAT:__purecall
	DD	FLAT:__purecall
	DD	FLAT:__purecall
	DD	FLAT:__purecall
	DD	FLAT:__purecall
	DD	FLAT:__purecall
	DD	FLAT:__purecall
	DD	FLAT:__purecall
	DD	FLAT:__purecall
	DD	FLAT:__purecall
	DD	FLAT:__purecall
	DD	FLAT:__purecall
	DD	FLAT:__purecall
	DD	FLAT:__purecall
	DD	FLAT:__purecall
	DD	FLAT:__purecall
	DD	FLAT:__purecall
	DD	FLAT:__purecall
	DD	FLAT:__purecall
	DD	FLAT:__purecall
	DD	FLAT:__purecall
	DD	FLAT:__purecall
	DD	FLAT:__purecall
	DD	FLAT:__purecall
	DD	FLAT:__purecall
	DD	FLAT:__purecall
	DD	FLAT:__purecall
	DD	FLAT:__purecall
	DD	FLAT:__purecall
	DD	FLAT:__purecall
	DD	FLAT:__purecall
	DD	FLAT:__purecall
	DD	FLAT:__purecall
	DD	FLAT:__purecall
	DD	FLAT:__purecall
	DD	FLAT:__purecall
	DD	FLAT:__purecall
	DD	FLAT:__purecall
	DD	FLAT:__purecall
	DD	FLAT:__purecall
; Function compile flags: /Ogtpy
CONST	ENDS
;	COMDAT ??0ICvGame2@@QAE@XZ
_TEXT	SEGMENT
??0ICvGame2@@QAE@XZ PROC				; ICvGame2::ICvGame2, COMDAT
; _this$ = ecx
	mov	eax, ecx
	mov	DWORD PTR [eax], OFFSET ??_7ICvGame2@@6B@
	ret	0
??0ICvGame2@@QAE@XZ ENDP				; ICvGame2::ICvGame2
_TEXT	ENDS
PUBLIC	?DecrementReference@CvDllGame@@QAEIXZ		; CvDllGame::DecrementReference
; Function compile flags: /Ogtpy
; File s:\lekmod_dll\cvgamecoredll_expansion2\cvdllgame.cpp
;	COMDAT ?DecrementReference@CvDllGame@@QAEIXZ
_TEXT	SEGMENT
?DecrementReference@CvDllGame@@QAEIXZ PROC		; CvDllGame::DecrementReference, COMDAT
; _this$ = ecx

; 55   : {

	push	esi
	mov	esi, ecx

; 56   : 	if(m_uiRefCount == 1)

	mov	eax, DWORD PTR [esi+4]
	cmp	eax, 1
	jne	SHORT $LN2@DecrementR

; 57   : 	{
; 58   : 		delete this;

	mov	DWORD PTR [esi], OFFSET ??_7CvDllGame@@6B@
	mov	ecx, DWORD PTR ?gGlobals@@3VCvGlobals@@A+8564
	test	ecx, ecx
	je	SHORT $LN10@DecrementR
	mov	eax, DWORD PTR [ecx]
	mov	edx, DWORD PTR [eax+916]
	call	edx
$LN10@DecrementR:
	push	esi
	call	?Free@CvDllGameContext@@SAXPAX@Z	; CvDllGameContext::Free
	add	esp, 4

; 59   : 		return 0;

	xor	eax, eax
	pop	esi

; 64   : 		return m_uiRefCount;
; 65   : 	}
; 66   : }

	ret	0
$LN2@DecrementR:

; 60   : 	}
; 61   : 	else
; 62   : 	{
; 63   : 		--m_uiRefCount;

	dec	eax
	mov	DWORD PTR [esi+4], eax
	pop	esi

; 64   : 		return m_uiRefCount;
; 65   : 	}
; 66   : }

	ret	0
?DecrementReference@CvDllGame@@QAEIXZ ENDP		; CvDllGame::DecrementReference
; Function compile flags: /Ogtpy
_TEXT	ENDS
;	COMDAT ?Destroy@CvDllGame@@EAGXXZ
_TEXT	SEGMENT
_this$ = 8						; size = 4
?Destroy@CvDllGame@@EAGXXZ PROC				; CvDllGame::Destroy, COMDAT

; 74   : {

	push	esi

; 75   : 	DecrementReference();

	mov	esi, DWORD PTR _this$[esp]
	mov	eax, DWORD PTR [esi+4]
	cmp	eax, 1
	jne	SHORT $LN4@Destroy
	mov	DWORD PTR [esi], OFFSET ??_7CvDllGame@@6B@
	mov	ecx, DWORD PTR ?gGlobals@@3VCvGlobals@@A+8564
	test	ecx, ecx
	je	SHORT $LN12@Destroy
	mov	eax, DWORD PTR [ecx]
	mov	edx, DWORD PTR [eax+916]
	call	edx
$LN12@Destroy:
	push	esi
	call	?Free@CvDllGameContext@@SAXPAX@Z	; CvDllGameContext::Free
	add	esp, 4
	pop	esi

; 76   : }

	ret	4

; 75   : 	DecrementReference();

$LN4@Destroy:
	dec	eax
	mov	DWORD PTR [esi+4], eax
	pop	esi

; 76   : }

	ret	4
?Destroy@CvDllGame@@EAGXXZ ENDP				; CvDllGame::Destroy
_TEXT	ENDS
EXTRN	?GeneratePath@CvAStar@@QAE_NHHHHH_N@Z:PROC	; CvAStar::GeneratePath
EXTRN	?getInterfacePathFinder@CvGlobals@@QAEAAVCvTwoLayerPathFinder@@XZ:PROC ; CvGlobals::getInterfacePathFinder
EXTRN	?UnwrapPlotPointer@CvGlobals@@QAEPAVCvPlot@@PAVICvPlot1@@@Z:PROC ; CvGlobals::UnwrapPlotPointer
EXTRN	?UnwrapUnitPointer@CvGlobals@@QAEPAVCvUnit@@PAVICvUnit1@@@Z:PROC ; CvGlobals::UnwrapUnitPointer
; Function compile flags: /Ogtpy
;	COMDAT ?CanMoveUnitTo@CvDllGame@@UBG_NPAVICvUnit1@@PAVICvPlot1@@@Z
_TEXT	SEGMENT
_this$ = 8						; size = 4
_pUnit$ = 12						; size = 4
_pPlot$ = 16						; size = 4
?CanMoveUnitTo@CvDllGame@@UBG_NPAVICvUnit1@@PAVICvPlot1@@@Z PROC ; CvDllGame::CanMoveUnitTo, COMDAT

; 526  : 	if(pUnit == NULL || pPlot == NULL)

	mov	eax, DWORD PTR _pUnit$[esp-4]
	push	edi
	test	eax, eax
	je	$LN4@CanMoveUni
	mov	edi, DWORD PTR _pPlot$[esp]
	test	edi, edi
	je	SHORT $LN4@CanMoveUni
	push	esi

; 529  : 	}
; 530  : 
; 531  : 	CvUnit* pkUnit = GC.UnwrapUnitPointer(pUnit);

	push	eax
	mov	ecx, OFFSET ?gGlobals@@3VCvGlobals@@A	; gGlobals
	call	?UnwrapUnitPointer@CvGlobals@@QAEPAVCvUnit@@PAVICvUnit1@@@Z ; CvGlobals::UnwrapUnitPointer

; 532  : 	CvPlot* pkPlot = GC.UnwrapPlotPointer(pPlot);

	push	edi
	mov	ecx, OFFSET ?gGlobals@@3VCvGlobals@@A	; gGlobals
	mov	esi, eax
	call	?UnwrapPlotPointer@CvGlobals@@QAEPAVCvPlot@@PAVICvPlot1@@@Z ; CvGlobals::UnwrapPlotPointer

; 533  : 
; 534  : 	GC.getInterfacePathFinder().SetData(pkUnit);

	mov	ecx, OFFSET ?gGlobals@@3VCvGlobals@@A	; gGlobals
	mov	edi, eax
	call	?getInterfacePathFinder@CvGlobals@@QAEAAVCvTwoLayerPathFinder@@XZ ; CvGlobals::getInterfacePathFinder
	cmp	BYTE PTR [eax+80], 0
	je	SHORT $LN8@CanMoveUni
	cmp	DWORD PTR [eax+44], esi
	je	SHORT $LN8@CanMoveUni
	mov	BYTE PTR [eax+78], 1
$LN8@CanMoveUni:
	mov	DWORD PTR [eax+44], esi

; 535  : 
; 536  : 	// can the unit actually walk there
; 537  : 	bool bCanFindPath = GC.getInterfacePathFinder().GeneratePath(pkUnit->getX(), pkUnit->getY(), pkPlot->getX(), pkPlot->getY(), MOVE_UNITS_IGNORE_DANGER | MOVE_UNITS_THROUGH_ENEMY /*iFlags*/, true/*bReuse*/);

	movsx	eax, WORD PTR [edi+2]
	movsx	ecx, WORD PTR [edi]
	mov	edx, DWORD PTR [esi+88]
	mov	esi, DWORD PTR [esi+76]
	push	1
	push	24					; 00000018H
	push	eax
	push	ecx
	push	edx
	push	esi
	mov	ecx, OFFSET ?gGlobals@@3VCvGlobals@@A	; gGlobals
	call	?getInterfacePathFinder@CvGlobals@@QAEAAVCvTwoLayerPathFinder@@XZ ; CvGlobals::getInterfacePathFinder
	mov	ecx, eax
	call	?GeneratePath@CvAStar@@QAE_NHHHHH_N@Z	; CvAStar::GeneratePath
	pop	esi

; 538  : 	if(!bCanFindPath)

	test	al, al

; 539  : 	{
; 540  : 		return false;

	je	SHORT $LN4@CanMoveUni

; 541  : 	}
; 542  : 
; 543  : 	CvAStarNode* pNode = GC.getInterfacePathFinder().GetLastNode();

	mov	ecx, OFFSET ?gGlobals@@3VCvGlobals@@A	; gGlobals
	call	?getInterfacePathFinder@CvGlobals@@QAEAAVCvTwoLayerPathFinder@@XZ ; CvGlobals::getInterfacePathFinder
	mov	eax, DWORD PTR [eax+96]

; 544  : 	FAssertMsg(pNode, "Invalid node. What?");
; 545  : 	if(!pNode)

	test	eax, eax

; 546  : 	{
; 547  : 		return false;

	je	SHORT $LN4@CanMoveUni

; 548  : 	}
; 549  : 
; 550  : 	// move is too far away
; 551  : 	if(pNode->m_iData2 >= 2)

	cmp	DWORD PTR [eax+16], 2
	pop	edi
	setl	al

; 552  : 	{
; 553  : 		return false;
; 554  : 	}
; 555  : 
; 556  : 	return true;
; 557  : }

	ret	12					; 0000000cH
$LN4@CanMoveUni:

; 527  : 	{
; 528  : 		return false;

	xor	al, al
	pop	edi

; 552  : 	{
; 553  : 		return false;
; 554  : 	}
; 555  : 
; 556  : 	return true;
; 557  : }

	ret	12					; 0000000cH
?CanMoveUnitTo@CvDllGame@@UBG_NPAVICvUnit1@@PAVICvPlot1@@@Z ENDP ; CvDllGame::CanMoveUnitTo
_TEXT	ENDS
PUBLIC	??0CvDllGame@@QAE@PAVCvGame@@@Z			; CvDllGame::CvDllGame
; Function compile flags: /Ogtpy
;	COMDAT ??0CvDllGame@@QAE@PAVCvGame@@@Z
_TEXT	SEGMENT
_pGame$ = 8						; size = 4
??0CvDllGame@@QAE@PAVCvGame@@@Z PROC			; CvDllGame::CvDllGame, COMDAT
; _this$ = ecx

; 24   : {

	mov	eax, DWORD PTR _pGame$[esp-4]
	push	esi
	mov	esi, ecx
	mov	DWORD PTR [esi], OFFSET ??_7CvDllGame@@6B@
	mov	DWORD PTR [esi+4], 1
	mov	DWORD PTR [esi+8], eax

; 25   : 	if(gDLL)

	mov	ecx, DWORD PTR ?gGlobals@@3VCvGlobals@@A+8564
	test	ecx, ecx
	je	SHORT $LN14@CvDllGame@2

; 26   : 		gDLL->GetGameCoreLock();

	mov	edx, DWORD PTR [ecx]
	mov	eax, DWORD PTR [edx+912]
	call	eax
$LN14@CvDllGame@2:

; 27   : }

	mov	eax, esi
	pop	esi
	ret	4
??0CvDllGame@@QAE@PAVCvGame@@@Z ENDP			; CvDllGame::CvDllGame
_TEXT	ENDS
END
