; Listing generated by Microsoft (R) Optimizing Compiler Version 15.00.30729.01 

	TITLE	c:\Users\EnormousApplePie\Documents\GitHub\Lekmod\LEKMOD_DLL\CvGameCoreDLL_Expansion2\CvDllVictoryInfo.cpp
	.686P
	.XMM
	include listing.inc
	.model	flat

INCLUDELIB MSVCRT
INCLUDELIB OLDNAMES

_DATA	SEGMENT
_CIV5_XP2_DLL_VERSION DD FLAT:$SG217705
_DATA	ENDS
CONST	SEGMENT
$SG217705 DB	'1.0.0', 00H
	ORG $+2
_guidICvUnknown DD 0d89ba82fH
	DW	09fa3H
	DW	04696H
	DB	0b3H
	DB	0f4H
	DB	052H
	DB	0bdH
	DB	0b1H
	DB	01H
	DB	0cfH
	DB	0b2H
_guidICvVictoryInfo1 DD 0afefdf63H
	DW	0db01H
	DW	0412aH
	DB	0b3H
	DB	070H
	DB	016H
	DB	02dH
	DB	0bbH
	DB	045H
	DB	02fH
	DB	0cH
CONST	ENDS
PUBLIC	??_7ICvUnknown@@6B@				; ICvUnknown::`vftable'
PUBLIC	??0ICvUnknown@@QAE@XZ				; ICvUnknown::ICvUnknown
PUBLIC	??_R4ICvUnknown@@6B@				; ICvUnknown::`RTTI Complete Object Locator'
PUBLIC	??_R0?AVICvUnknown@@@8				; ICvUnknown `RTTI Type Descriptor'
PUBLIC	??_R3ICvUnknown@@8				; ICvUnknown::`RTTI Class Hierarchy Descriptor'
PUBLIC	??_R2ICvUnknown@@8				; ICvUnknown::`RTTI Base Class Array'
PUBLIC	??_R1A@?0A@EA@ICvUnknown@@8			; ICvUnknown::`RTTI Base Class Descriptor at (0,-1,0,64)'
EXTRN	??_7type_info@@6B@:QWORD			; type_info::`vftable'
EXTRN	__purecall:PROC
;	COMDAT ??_R1A@?0A@EA@ICvUnknown@@8
rdata$r	SEGMENT
??_R1A@?0A@EA@ICvUnknown@@8 DD FLAT:??_R0?AVICvUnknown@@@8 ; ICvUnknown::`RTTI Base Class Descriptor at (0,-1,0,64)'
	DD	00H
	DD	00H
	DD	0ffffffffH
	DD	00H
	DD	040H
	DD	FLAT:??_R3ICvUnknown@@8
rdata$r	ENDS
;	COMDAT ??_R2ICvUnknown@@8
rdata$r	SEGMENT
??_R2ICvUnknown@@8 DD FLAT:??_R1A@?0A@EA@ICvUnknown@@8	; ICvUnknown::`RTTI Base Class Array'
rdata$r	ENDS
;	COMDAT ??_R3ICvUnknown@@8
rdata$r	SEGMENT
??_R3ICvUnknown@@8 DD 00H				; ICvUnknown::`RTTI Class Hierarchy Descriptor'
	DD	00H
	DD	01H
	DD	FLAT:??_R2ICvUnknown@@8
rdata$r	ENDS
;	COMDAT ??_R0?AVICvUnknown@@@8
_DATA	SEGMENT
??_R0?AVICvUnknown@@@8 DD FLAT:??_7type_info@@6B@	; ICvUnknown `RTTI Type Descriptor'
	DD	00H
	DB	'.?AVICvUnknown@@', 00H
_DATA	ENDS
;	COMDAT ??_R4ICvUnknown@@6B@
rdata$r	SEGMENT
??_R4ICvUnknown@@6B@ DD 00H				; ICvUnknown::`RTTI Complete Object Locator'
	DD	00H
	DD	00H
	DD	FLAT:??_R0?AVICvUnknown@@@8
	DD	FLAT:??_R3ICvUnknown@@8
rdata$r	ENDS
;	COMDAT ??_7ICvUnknown@@6B@
CONST	SEGMENT
??_7ICvUnknown@@6B@ DD FLAT:??_R4ICvUnknown@@6B@	; ICvUnknown::`vftable'
	DD	FLAT:__purecall
	DD	FLAT:__purecall
; Function compile flags: /Ogtpy
CONST	ENDS
;	COMDAT ??0ICvUnknown@@QAE@XZ
_TEXT	SEGMENT
??0ICvUnknown@@QAE@XZ PROC				; ICvUnknown::ICvUnknown, COMDAT
; _this$ = ecx
	mov	eax, ecx
	mov	DWORD PTR [eax], OFFSET ??_7ICvUnknown@@6B@
	ret	0
??0ICvUnknown@@QAE@XZ ENDP				; ICvUnknown::ICvUnknown
_TEXT	ENDS
PUBLIC	??_7CvDllVictoryInfo@@6B@			; CvDllVictoryInfo::`vftable'
PUBLIC	??1CvDllVictoryInfo@@QAE@XZ			; CvDllVictoryInfo::~CvDllVictoryInfo
PUBLIC	??_R4CvDllVictoryInfo@@6B@			; CvDllVictoryInfo::`RTTI Complete Object Locator'
PUBLIC	??_R0?AVCvDllVictoryInfo@@@8			; CvDllVictoryInfo `RTTI Type Descriptor'
PUBLIC	??_R3CvDllVictoryInfo@@8			; CvDllVictoryInfo::`RTTI Class Hierarchy Descriptor'
PUBLIC	??_R2CvDllVictoryInfo@@8			; CvDllVictoryInfo::`RTTI Base Class Array'
PUBLIC	??_R1A@?0A@EA@CvDllVictoryInfo@@8		; CvDllVictoryInfo::`RTTI Base Class Descriptor at (0,-1,0,64)'
PUBLIC	??_R1A@?0A@EA@ICvVictoryInfo1@@8		; ICvVictoryInfo1::`RTTI Base Class Descriptor at (0,-1,0,64)'
PUBLIC	??_R0?AVICvVictoryInfo1@@@8			; ICvVictoryInfo1 `RTTI Type Descriptor'
PUBLIC	??_R3ICvVictoryInfo1@@8				; ICvVictoryInfo1::`RTTI Class Hierarchy Descriptor'
PUBLIC	??_R2ICvVictoryInfo1@@8				; ICvVictoryInfo1::`RTTI Base Class Array'
PUBLIC	?QueryInterface@CvDllVictoryInfo@@UAGPAXU_GUID@@@Z ; CvDllVictoryInfo::QueryInterface
PUBLIC	?Destroy@CvDllVictoryInfo@@EAGXXZ		; CvDllVictoryInfo::Destroy
PUBLIC	?GetType@CvDllVictoryInfo@@UAGPBDXZ		; CvDllVictoryInfo::GetType
PUBLIC	?GetDescription@CvDllVictoryInfo@@UAGPBDXZ	; CvDllVictoryInfo::GetDescription
;	COMDAT ??_R2ICvVictoryInfo1@@8
; File c:\users\enormousapplepie\documents\github\lekmod\lekmod_dll\cvgamecoredll_expansion2\cvdllvictoryinfo.cpp
rdata$r	SEGMENT
??_R2ICvVictoryInfo1@@8 DD FLAT:??_R1A@?0A@EA@ICvVictoryInfo1@@8 ; ICvVictoryInfo1::`RTTI Base Class Array'
	DD	FLAT:??_R1A@?0A@EA@ICvUnknown@@8
rdata$r	ENDS
;	COMDAT ??_R3ICvVictoryInfo1@@8
rdata$r	SEGMENT
??_R3ICvVictoryInfo1@@8 DD 00H				; ICvVictoryInfo1::`RTTI Class Hierarchy Descriptor'
	DD	00H
	DD	02H
	DD	FLAT:??_R2ICvVictoryInfo1@@8
rdata$r	ENDS
;	COMDAT ??_R0?AVICvVictoryInfo1@@@8
_DATA	SEGMENT
??_R0?AVICvVictoryInfo1@@@8 DD FLAT:??_7type_info@@6B@	; ICvVictoryInfo1 `RTTI Type Descriptor'
	DD	00H
	DB	'.?AVICvVictoryInfo1@@', 00H
_DATA	ENDS
;	COMDAT ??_R1A@?0A@EA@ICvVictoryInfo1@@8
rdata$r	SEGMENT
??_R1A@?0A@EA@ICvVictoryInfo1@@8 DD FLAT:??_R0?AVICvVictoryInfo1@@@8 ; ICvVictoryInfo1::`RTTI Base Class Descriptor at (0,-1,0,64)'
	DD	01H
	DD	00H
	DD	0ffffffffH
	DD	00H
	DD	040H
	DD	FLAT:??_R3ICvVictoryInfo1@@8
rdata$r	ENDS
;	COMDAT ??_R1A@?0A@EA@CvDllVictoryInfo@@8
rdata$r	SEGMENT
??_R1A@?0A@EA@CvDllVictoryInfo@@8 DD FLAT:??_R0?AVCvDllVictoryInfo@@@8 ; CvDllVictoryInfo::`RTTI Base Class Descriptor at (0,-1,0,64)'
	DD	02H
	DD	00H
	DD	0ffffffffH
	DD	00H
	DD	040H
	DD	FLAT:??_R3CvDllVictoryInfo@@8
rdata$r	ENDS
;	COMDAT ??_R2CvDllVictoryInfo@@8
rdata$r	SEGMENT
??_R2CvDllVictoryInfo@@8 DD FLAT:??_R1A@?0A@EA@CvDllVictoryInfo@@8 ; CvDllVictoryInfo::`RTTI Base Class Array'
	DD	FLAT:??_R1A@?0A@EA@ICvVictoryInfo1@@8
	DD	FLAT:??_R1A@?0A@EA@ICvUnknown@@8
rdata$r	ENDS
;	COMDAT ??_R3CvDllVictoryInfo@@8
rdata$r	SEGMENT
??_R3CvDllVictoryInfo@@8 DD 00H				; CvDllVictoryInfo::`RTTI Class Hierarchy Descriptor'
	DD	00H
	DD	03H
	DD	FLAT:??_R2CvDllVictoryInfo@@8
rdata$r	ENDS
;	COMDAT ??_R0?AVCvDllVictoryInfo@@@8
_DATA	SEGMENT
??_R0?AVCvDllVictoryInfo@@@8 DD FLAT:??_7type_info@@6B@	; CvDllVictoryInfo `RTTI Type Descriptor'
	DD	00H
	DB	'.?AVCvDllVictoryInfo@@', 00H
_DATA	ENDS
;	COMDAT ??_R4CvDllVictoryInfo@@6B@
rdata$r	SEGMENT
??_R4CvDllVictoryInfo@@6B@ DD 00H			; CvDllVictoryInfo::`RTTI Complete Object Locator'
	DD	00H
	DD	00H
	DD	FLAT:??_R0?AVCvDllVictoryInfo@@@8
	DD	FLAT:??_R3CvDllVictoryInfo@@8
rdata$r	ENDS
;	COMDAT ??_7CvDllVictoryInfo@@6B@
CONST	SEGMENT
??_7CvDllVictoryInfo@@6B@ DD FLAT:??_R4CvDllVictoryInfo@@6B@ ; CvDllVictoryInfo::`vftable'
	DD	FLAT:?QueryInterface@CvDllVictoryInfo@@UAGPAXU_GUID@@@Z
	DD	FLAT:?Destroy@CvDllVictoryInfo@@EAGXXZ
	DD	FLAT:?GetType@CvDllVictoryInfo@@UAGPBDXZ
	DD	FLAT:?GetDescription@CvDllVictoryInfo@@UAGPBDXZ
; Function compile flags: /Ogtpy
CONST	ENDS
;	COMDAT ??1CvDllVictoryInfo@@QAE@XZ
_TEXT	SEGMENT
??1CvDllVictoryInfo@@QAE@XZ PROC			; CvDllVictoryInfo::~CvDllVictoryInfo, COMDAT
; _this$ = ecx

; 25   : {

	mov	DWORD PTR [ecx], OFFSET ??_7CvDllVictoryInfo@@6B@

; 26   : }

	ret	0
??1CvDllVictoryInfo@@QAE@XZ ENDP			; CvDllVictoryInfo::~CvDllVictoryInfo
_TEXT	ENDS
PUBLIC	?IncrementReference@CvDllVictoryInfo@@QAEIXZ	; CvDllVictoryInfo::IncrementReference
; Function compile flags: /Ogtpy
;	COMDAT ?IncrementReference@CvDllVictoryInfo@@QAEIXZ
_TEXT	SEGMENT
?IncrementReference@CvDllVictoryInfo@@QAEIXZ PROC	; CvDllVictoryInfo::IncrementReference, COMDAT
; _this$ = ecx

; 42   : 	++m_uiRefCount;

	inc	DWORD PTR [ecx+4]

; 43   : 	return m_uiRefCount;

	mov	eax, DWORD PTR [ecx+4]

; 44   : }

	ret	0
?IncrementReference@CvDllVictoryInfo@@QAEIXZ ENDP	; CvDllVictoryInfo::IncrementReference
_TEXT	ENDS
PUBLIC	?GetReferenceCount@CvDllVictoryInfo@@QAEIXZ	; CvDllVictoryInfo::GetReferenceCount
; Function compile flags: /Ogtpy
;	COMDAT ?GetReferenceCount@CvDllVictoryInfo@@QAEIXZ
_TEXT	SEGMENT
?GetReferenceCount@CvDllVictoryInfo@@QAEIXZ PROC	; CvDllVictoryInfo::GetReferenceCount, COMDAT
; _this$ = ecx

; 62   : 	return m_uiRefCount;

	mov	eax, DWORD PTR [ecx+4]

; 63   : }

	ret	0
?GetReferenceCount@CvDllVictoryInfo@@QAEIXZ ENDP	; CvDllVictoryInfo::GetReferenceCount
_TEXT	ENDS
PUBLIC	??3CvDllVictoryInfo@@SAXPAX@Z			; CvDllVictoryInfo::operator delete
EXTRN	?Free@CvDllGameContext@@SAXPAX@Z:PROC		; CvDllGameContext::Free
; Function compile flags: /Ogtpy
;	COMDAT ??3CvDllVictoryInfo@@SAXPAX@Z
_TEXT	SEGMENT
_p$ = 8							; size = 4
??3CvDllVictoryInfo@@SAXPAX@Z PROC			; CvDllVictoryInfo::operator delete, COMDAT

; 72   : 	CvDllGameContext::Free(p);

	jmp	?Free@CvDllGameContext@@SAXPAX@Z	; CvDllGameContext::Free
??3CvDllVictoryInfo@@SAXPAX@Z ENDP			; CvDllVictoryInfo::operator delete
_TEXT	ENDS
PUBLIC	??2CvDllVictoryInfo@@SAPAXI@Z			; CvDllVictoryInfo::operator new
EXTRN	?Allocate@CvDllGameContext@@SAPAXI@Z:PROC	; CvDllGameContext::Allocate
; Function compile flags: /Ogtpy
;	COMDAT ??2CvDllVictoryInfo@@SAPAXI@Z
_TEXT	SEGMENT
_bytes$ = 8						; size = 4
??2CvDllVictoryInfo@@SAPAXI@Z PROC			; CvDllVictoryInfo::operator new, COMDAT

; 77   : 	return CvDllGameContext::Allocate(bytes);

	jmp	?Allocate@CvDllGameContext@@SAPAXI@Z	; CvDllGameContext::Allocate
??2CvDllVictoryInfo@@SAPAXI@Z ENDP			; CvDllVictoryInfo::operator new
_TEXT	ENDS
PUBLIC	?GetInstance@CvDllVictoryInfo@@QAEPAVCvVictoryInfo@@XZ ; CvDllVictoryInfo::GetInstance
; Function compile flags: /Ogtpy
;	COMDAT ?GetInstance@CvDllVictoryInfo@@QAEPAVCvVictoryInfo@@XZ
_TEXT	SEGMENT
?GetInstance@CvDllVictoryInfo@@QAEPAVCvVictoryInfo@@XZ PROC ; CvDllVictoryInfo::GetInstance, COMDAT
; _this$ = ecx

; 82   : 	return m_pVictoryInfo;

	mov	eax, DWORD PTR [ecx+8]

; 83   : }

	ret	0
?GetInstance@CvDllVictoryInfo@@QAEPAVCvVictoryInfo@@XZ ENDP ; CvDllVictoryInfo::GetInstance
_TEXT	ENDS
PUBLIC	_IsEqualGUID
; Function compile flags: /Ogtpy
; File c:\program files\microsoft sdks\windows\v6.0a\include\guiddef.h
;	COMDAT _IsEqualGUID
_TEXT	SEGMENT
_rguid1$ = 8						; size = 4
_rguid2$ = 12						; size = 4
_IsEqualGUID PROC					; COMDAT

; 161  :     return !memcmp(&rguid1, &rguid2, sizeof(GUID));

	mov	ecx, DWORD PTR _rguid2$[esp-4]
	mov	edx, DWORD PTR _rguid1$[esp-4]
	mov	eax, 16					; 00000010H
	push	esi
	npad	2
$LL4@IsEqualGUI:
	mov	esi, DWORD PTR [edx]
	cmp	esi, DWORD PTR [ecx]
	jne	SHORT $LN5@IsEqualGUI
	sub	eax, 4
	add	ecx, 4
	add	edx, 4
	cmp	eax, 4
	jae	SHORT $LL4@IsEqualGUI
	xor	eax, eax
	xor	edx, edx
	test	eax, eax
	sete	dl
	pop	esi
	mov	eax, edx

; 162  : }

	ret	0
$LN5@IsEqualGUI:

; 161  :     return !memcmp(&rguid1, &rguid2, sizeof(GUID));

	movzx	eax, BYTE PTR [edx]
	movzx	esi, BYTE PTR [ecx]
	sub	eax, esi
	jne	SHORT $LN7@IsEqualGUI
	movzx	eax, BYTE PTR [edx+1]
	movzx	esi, BYTE PTR [ecx+1]
	sub	eax, esi
	jne	SHORT $LN7@IsEqualGUI
	movzx	eax, BYTE PTR [edx+2]
	movzx	esi, BYTE PTR [ecx+2]
	sub	eax, esi
	jne	SHORT $LN7@IsEqualGUI
	movzx	eax, BYTE PTR [edx+3]
	movzx	ecx, BYTE PTR [ecx+3]
	sub	eax, ecx
$LN7@IsEqualGUI:
	sar	eax, 31					; 0000001fH
	or	eax, 1
	xor	edx, edx
	test	eax, eax
	sete	dl
	pop	esi
	mov	eax, edx

; 162  : }

	ret	0
_IsEqualGUID ENDP
_TEXT	ENDS
PUBLIC	_==
; Function compile flags: /Ogtpy
;	COMDAT _==
_TEXT	SEGMENT
_guidOne$ = 8						; size = 4
_guidOther$ = 12					; size = 4
_==	PROC						; COMDAT

; 194  :     return IsEqualGUID(guidOne,guidOther);

	jmp	_IsEqualGUID
_==	ENDP
_TEXT	ENDS
PUBLIC	?GetInterfaceId@ICvUnknown@@SG?AU_GUID@@XZ	; ICvUnknown::GetInterfaceId
; Function compile flags: /Ogtpy
; File c:\users\enormousapplepie\documents\github\lekmod\lekmod_dll\cvgamecoredllutil\include\cvdllinterfaces.h
;	COMDAT ?GetInterfaceId@ICvUnknown@@SG?AU_GUID@@XZ
_TEXT	SEGMENT
$T219035 = 8						; size = 4
?GetInterfaceId@ICvUnknown@@SG?AU_GUID@@XZ PROC		; ICvUnknown::GetInterfaceId, COMDAT

; 306  : 	static GUID DLLCALL GetInterfaceId(){ return guidICvUnknown; }

	mov	eax, DWORD PTR $T219035[esp-4]
	mov	ecx, DWORD PTR _guidICvUnknown
	mov	edx, DWORD PTR _guidICvUnknown+4
	mov	DWORD PTR [eax], ecx
	mov	ecx, DWORD PTR _guidICvUnknown+8
	mov	DWORD PTR [eax+4], edx
	mov	edx, DWORD PTR _guidICvUnknown+12
	mov	DWORD PTR [eax+8], ecx
	mov	DWORD PTR [eax+12], edx
	ret	4
?GetInterfaceId@ICvUnknown@@SG?AU_GUID@@XZ ENDP		; ICvUnknown::GetInterfaceId
_TEXT	ENDS
PUBLIC	?GetInterfaceId@ICvVictoryInfo1@@SG?AU_GUID@@XZ	; ICvVictoryInfo1::GetInterfaceId
; Function compile flags: /Ogtpy
;	COMDAT ?GetInterfaceId@ICvVictoryInfo1@@SG?AU_GUID@@XZ
_TEXT	SEGMENT
$T219039 = 8						; size = 4
?GetInterfaceId@ICvVictoryInfo1@@SG?AU_GUID@@XZ PROC	; ICvVictoryInfo1::GetInterfaceId, COMDAT

; 617  : 	static GUID DLLCALL GetInterfaceId() { return guidICvVictoryInfo1; }

	mov	eax, DWORD PTR $T219039[esp-4]
	mov	ecx, DWORD PTR _guidICvVictoryInfo1
	mov	edx, DWORD PTR _guidICvVictoryInfo1+4
	mov	DWORD PTR [eax], ecx
	mov	ecx, DWORD PTR _guidICvVictoryInfo1+8
	mov	DWORD PTR [eax+4], edx
	mov	edx, DWORD PTR _guidICvVictoryInfo1+12
	mov	DWORD PTR [eax+8], ecx
	mov	DWORD PTR [eax+12], edx
	ret	4
?GetInterfaceId@ICvVictoryInfo1@@SG?AU_GUID@@XZ ENDP	; ICvVictoryInfo1::GetInterfaceId
_TEXT	ENDS
PUBLIC	?GetDescription@CvBaseInfo@@QBEPBDXZ		; CvBaseInfo::GetDescription
EXTRN	__imp_?c_str@?$basic_string@DU?$char_traits@D@std@@V?$allocator@D@2@@std@@QBEPBDXZ:PROC
; Function compile flags: /Ogtpy
; File c:\users\enormousapplepie\documents\github\lekmod\lekmod_dll\cvgamecoredll_expansion2\cvinfos.h
;	COMDAT ?GetDescription@CvBaseInfo@@QBEPBDXZ
_TEXT	SEGMENT
?GetDescription@CvBaseInfo@@QBEPBDXZ PROC		; CvBaseInfo::GetDescription, COMDAT
; _this$ = ecx

; 64   : 		return m_strDescription.c_str();

	add	ecx, 36					; 00000024H
	jmp	DWORD PTR __imp_?c_str@?$basic_string@DU?$char_traits@D@std@@V?$allocator@D@2@@std@@QBEPBDXZ
?GetDescription@CvBaseInfo@@QBEPBDXZ ENDP		; CvBaseInfo::GetDescription
_TEXT	ENDS
PUBLIC	?GetType@CvBaseInfo@@QBEPBDXZ			; CvBaseInfo::GetType
; Function compile flags: /Ogtpy
;	COMDAT ?GetType@CvBaseInfo@@QBEPBDXZ
_TEXT	SEGMENT
?GetType@CvBaseInfo@@QBEPBDXZ PROC			; CvBaseInfo::GetType, COMDAT
; _this$ = ecx

; 92   : 		return m_strType.c_str();

	add	ecx, 176				; 000000b0H
	jmp	DWORD PTR __imp_?c_str@?$basic_string@DU?$char_traits@D@std@@V?$allocator@D@2@@std@@QBEPBDXZ
?GetType@CvBaseInfo@@QBEPBDXZ ENDP			; CvBaseInfo::GetType
_TEXT	ENDS
PUBLIC	??_7ICvVictoryInfo1@@6B@			; ICvVictoryInfo1::`vftable'
PUBLIC	??0ICvVictoryInfo1@@QAE@XZ			; ICvVictoryInfo1::ICvVictoryInfo1
PUBLIC	??_R4ICvVictoryInfo1@@6B@			; ICvVictoryInfo1::`RTTI Complete Object Locator'
;	COMDAT ??_R4ICvVictoryInfo1@@6B@
rdata$r	SEGMENT
??_R4ICvVictoryInfo1@@6B@ DD 00H			; ICvVictoryInfo1::`RTTI Complete Object Locator'
	DD	00H
	DD	00H
	DD	FLAT:??_R0?AVICvVictoryInfo1@@@8
	DD	FLAT:??_R3ICvVictoryInfo1@@8
rdata$r	ENDS
;	COMDAT ??_7ICvVictoryInfo1@@6B@
CONST	SEGMENT
??_7ICvVictoryInfo1@@6B@ DD FLAT:??_R4ICvVictoryInfo1@@6B@ ; ICvVictoryInfo1::`vftable'
	DD	FLAT:__purecall
	DD	FLAT:__purecall
	DD	FLAT:__purecall
	DD	FLAT:__purecall
; Function compile flags: /Ogtpy
CONST	ENDS
;	COMDAT ??0ICvVictoryInfo1@@QAE@XZ
_TEXT	SEGMENT
??0ICvVictoryInfo1@@QAE@XZ PROC				; ICvVictoryInfo1::ICvVictoryInfo1, COMDAT
; _this$ = ecx
	mov	eax, ecx
	mov	DWORD PTR [eax], OFFSET ??_7ICvVictoryInfo1@@6B@
	ret	0
??0ICvVictoryInfo1@@QAE@XZ ENDP				; ICvVictoryInfo1::ICvVictoryInfo1
; Function compile flags: /Ogtpy
; File c:\users\enormousapplepie\documents\github\lekmod\lekmod_dll\cvgamecoredll_expansion2\cvdllvictoryinfo.cpp
_TEXT	ENDS
;	COMDAT ?QueryInterface@CvDllVictoryInfo@@UAGPAXU_GUID@@@Z
_TEXT	SEGMENT
$T219059 = -16						; size = 16
$T219057 = -16						; size = 16
_this$ = 8						; size = 4
_guidInterface$ = 12					; size = 16
?QueryInterface@CvDllVictoryInfo@@UAGPAXU_GUID@@@Z PROC	; CvDllVictoryInfo::QueryInterface, COMDAT

; 29   : {

	sub	esp, 16					; 00000010H

; 30   : 	if(guidInterface == ICvUnknown::GetInterfaceId() ||
; 31   : 	        guidInterface == ICvVictoryInfo1::GetInterfaceId())

	mov	ecx, DWORD PTR _guidICvUnknown+4
	mov	edx, DWORD PTR _guidICvUnknown+8
	mov	eax, DWORD PTR _guidICvUnknown
	mov	DWORD PTR $T219057[esp+20], ecx
	lea	ecx, DWORD PTR $T219057[esp+16]
	mov	DWORD PTR $T219057[esp+24], edx
	mov	DWORD PTR $T219057[esp+16], eax
	mov	eax, DWORD PTR _guidICvUnknown+12
	push	ecx
	lea	edx, DWORD PTR _guidInterface$[esp+16]
	push	edx
	mov	DWORD PTR $T219057[esp+36], eax
	call	_IsEqualGUID
	add	esp, 8
	test	eax, eax
	jne	SHORT $LN1@QueryInter
	mov	ecx, DWORD PTR _guidICvVictoryInfo1+4
	mov	edx, DWORD PTR _guidICvVictoryInfo1+8
	mov	eax, DWORD PTR _guidICvVictoryInfo1
	mov	DWORD PTR $T219059[esp+20], ecx
	lea	ecx, DWORD PTR $T219059[esp+16]
	mov	DWORD PTR $T219059[esp+24], edx
	mov	DWORD PTR $T219059[esp+16], eax
	mov	eax, DWORD PTR _guidICvVictoryInfo1+12
	push	ecx
	lea	edx, DWORD PTR _guidInterface$[esp+16]
	push	edx
	mov	DWORD PTR $T219059[esp+36], eax
	call	_IsEqualGUID
	add	esp, 8
	test	eax, eax
	jne	SHORT $LN1@QueryInter

; 34   : 		return this;
; 35   : 	}
; 36   : 
; 37   : 	return NULL;
; 38   : }

	add	esp, 16					; 00000010H
	ret	20					; 00000014H
$LN1@QueryInter:

; 32   : 	{
; 33   : 		IncrementReference();

	mov	eax, DWORD PTR _this$[esp+12]
	inc	DWORD PTR [eax+4]

; 34   : 		return this;
; 35   : 	}
; 36   : 
; 37   : 	return NULL;
; 38   : }

	add	esp, 16					; 00000010H
	ret	20					; 00000014H
?QueryInterface@CvDllVictoryInfo@@UAGPAXU_GUID@@@Z ENDP	; CvDllVictoryInfo::QueryInterface
_TEXT	ENDS
PUBLIC	??_GCvDllVictoryInfo@@QAEPAXI@Z			; CvDllVictoryInfo::`scalar deleting destructor'
; Function compile flags: /Ogtpy
;	COMDAT ??_GCvDllVictoryInfo@@QAEPAXI@Z
_TEXT	SEGMENT
___flags$ = 8						; size = 4
??_GCvDllVictoryInfo@@QAEPAXI@Z PROC			; CvDllVictoryInfo::`scalar deleting destructor', COMDAT
; _this$ = ecx
	test	BYTE PTR ___flags$[esp-4], 1
	push	esi
	mov	esi, ecx
	mov	DWORD PTR [esi], OFFSET ??_7CvDllVictoryInfo@@6B@
	je	SHORT $LN8@scalar
	push	esi
	call	?Free@CvDllGameContext@@SAXPAX@Z	; CvDllGameContext::Free
	add	esp, 4
$LN8@scalar:
	mov	eax, esi
	pop	esi
	ret	4
??_GCvDllVictoryInfo@@QAEPAXI@Z ENDP			; CvDllVictoryInfo::`scalar deleting destructor'
; Function compile flags: /Ogtpy
_TEXT	ENDS
;	COMDAT ?GetType@CvDllVictoryInfo@@UAGPBDXZ
_TEXT	SEGMENT
_this$ = 8						; size = 4
?GetType@CvDllVictoryInfo@@UAGPBDXZ PROC		; CvDllVictoryInfo::GetType, COMDAT

; 87   : 	return m_pVictoryInfo->GetType();

	mov	eax, DWORD PTR _this$[esp-4]
	mov	eax, DWORD PTR [eax+8]
	lea	ecx, DWORD PTR [eax+176]
	call	DWORD PTR __imp_?c_str@?$basic_string@DU?$char_traits@D@std@@V?$allocator@D@2@@std@@QBEPBDXZ

; 88   : }

	ret	4
?GetType@CvDllVictoryInfo@@UAGPBDXZ ENDP		; CvDllVictoryInfo::GetType
; Function compile flags: /Ogtpy
_TEXT	ENDS
;	COMDAT ?GetDescription@CvDllVictoryInfo@@UAGPBDXZ
_TEXT	SEGMENT
_this$ = 8						; size = 4
?GetDescription@CvDllVictoryInfo@@UAGPBDXZ PROC		; CvDllVictoryInfo::GetDescription, COMDAT

; 92   : 	return m_pVictoryInfo->GetDescription();

	mov	eax, DWORD PTR _this$[esp-4]
	mov	eax, DWORD PTR [eax+8]
	lea	ecx, DWORD PTR [eax+36]
	call	DWORD PTR __imp_?c_str@?$basic_string@DU?$char_traits@D@std@@V?$allocator@D@2@@std@@QBEPBDXZ

; 93   : }

	ret	4
?GetDescription@CvDllVictoryInfo@@UAGPBDXZ ENDP		; CvDllVictoryInfo::GetDescription
_TEXT	ENDS
PUBLIC	??0CvDllVictoryInfo@@QAE@PAVCvVictoryInfo@@@Z	; CvDllVictoryInfo::CvDllVictoryInfo
; Function compile flags: /Ogtpy
;	COMDAT ??0CvDllVictoryInfo@@QAE@PAVCvVictoryInfo@@@Z
_TEXT	SEGMENT
_pVictoryInfo$ = 8					; size = 4
??0CvDllVictoryInfo@@QAE@PAVCvVictoryInfo@@@Z PROC	; CvDllVictoryInfo::CvDllVictoryInfo, COMDAT
; _this$ = ecx

; 20   : {

	mov	eax, ecx
	mov	ecx, DWORD PTR _pVictoryInfo$[esp-4]
	mov	DWORD PTR [eax], OFFSET ??_7CvDllVictoryInfo@@6B@
	mov	DWORD PTR [eax+4], 1
	mov	DWORD PTR [eax+8], ecx

; 21   : 	FAssertMsg(pVictoryInfo != NULL, "SHOULD NOT HAPPEN");
; 22   : }

	ret	4
??0CvDllVictoryInfo@@QAE@PAVCvVictoryInfo@@@Z ENDP	; CvDllVictoryInfo::CvDllVictoryInfo
_TEXT	ENDS
PUBLIC	?DecrementReference@CvDllVictoryInfo@@QAEIXZ	; CvDllVictoryInfo::DecrementReference
; Function compile flags: /Ogtpy
;	COMDAT ?DecrementReference@CvDllVictoryInfo@@QAEIXZ
_TEXT	SEGMENT
?DecrementReference@CvDllVictoryInfo@@QAEIXZ PROC	; CvDllVictoryInfo::DecrementReference, COMDAT
; _this$ = ecx

; 48   : 	if(m_uiRefCount == 1)

	mov	eax, DWORD PTR [ecx+4]
	cmp	eax, 1
	jne	SHORT $LN2@DecrementR

; 49   : 	{
; 50   : 		delete this;

	push	ecx
	mov	DWORD PTR [ecx], OFFSET ??_7CvDllVictoryInfo@@6B@
	call	?Free@CvDllGameContext@@SAXPAX@Z	; CvDllGameContext::Free
	add	esp, 4

; 51   : 		return 0;

	xor	eax, eax

; 56   : 		return m_uiRefCount;
; 57   : 	}
; 58   : }

	ret	0
$LN2@DecrementR:

; 52   : 	}
; 53   : 	else
; 54   : 	{
; 55   : 		--m_uiRefCount;

	dec	eax
	mov	DWORD PTR [ecx+4], eax

; 56   : 		return m_uiRefCount;
; 57   : 	}
; 58   : }

	ret	0
?DecrementReference@CvDllVictoryInfo@@QAEIXZ ENDP	; CvDllVictoryInfo::DecrementReference
; Function compile flags: /Ogtpy
_TEXT	ENDS
;	COMDAT ?Destroy@CvDllVictoryInfo@@EAGXXZ
_TEXT	SEGMENT
_this$ = 8						; size = 4
?Destroy@CvDllVictoryInfo@@EAGXXZ PROC			; CvDllVictoryInfo::Destroy, COMDAT

; 67   : 	DecrementReference();

	mov	eax, DWORD PTR _this$[esp-4]
	mov	ecx, DWORD PTR [eax+4]
	cmp	ecx, 1
	jne	SHORT $LN4@Destroy
	push	eax
	mov	DWORD PTR [eax], OFFSET ??_7CvDllVictoryInfo@@6B@
	call	?Free@CvDllGameContext@@SAXPAX@Z	; CvDllGameContext::Free
	add	esp, 4

; 68   : }

	ret	4

; 67   : 	DecrementReference();

$LN4@Destroy:
	dec	ecx
	mov	DWORD PTR [eax+4], ecx

; 68   : }

	ret	4
?Destroy@CvDllVictoryInfo@@EAGXXZ ENDP			; CvDllVictoryInfo::Destroy
_TEXT	ENDS
END
