; Listing generated by Microsoft (R) Optimizing Compiler Version 15.00.30729.01 

	TITLE	c:\Users\EnormousApplePie\Documents\GitHub\Lekmod\LEKMOD_DLL\CvGameCoreDLL_Expansion2\CvDllDealAI.cpp
	.686P
	.XMM
	include listing.inc
	.model	flat

INCLUDELIB MSVCRT
INCLUDELIB OLDNAMES

_DATA	SEGMENT
_CIV5_XP2_DLL_VERSION DD FLAT:$SG217723
_DATA	ENDS
CONST	SEGMENT
$SG217723 DB	'1.0.0', 00H
	ORG $+2
_guidICvUnknown DD 0d89ba82fH
	DW	09fa3H
	DW	04696H
	DB	0b3H
	DB	0f4H
	DB	052H
	DB	0bdH
	DB	0b1H
	DB	01H
	DB	0cfH
	DB	0b2H
_guidICvDealAI1 DD 033320cc0H
	DW	047fdH
	DW	04b67H
	DB	0a0H
	DB	024H
	DB	0ffH
	DB	0f3H
	DB	0aaH
	DB	04fH
	DB	066H
	DB	0c1H
CONST	ENDS
PUBLIC	??_7ICvUnknown@@6B@				; ICvUnknown::`vftable'
PUBLIC	??0ICvUnknown@@QAE@XZ				; ICvUnknown::ICvUnknown
PUBLIC	??_R4ICvUnknown@@6B@				; ICvUnknown::`RTTI Complete Object Locator'
PUBLIC	??_R0?AVICvUnknown@@@8				; ICvUnknown `RTTI Type Descriptor'
PUBLIC	??_R3ICvUnknown@@8				; ICvUnknown::`RTTI Class Hierarchy Descriptor'
PUBLIC	??_R2ICvUnknown@@8				; ICvUnknown::`RTTI Base Class Array'
PUBLIC	??_R1A@?0A@EA@ICvUnknown@@8			; ICvUnknown::`RTTI Base Class Descriptor at (0,-1,0,64)'
EXTRN	??_7type_info@@6B@:QWORD			; type_info::`vftable'
EXTRN	__purecall:PROC
;	COMDAT ??_R1A@?0A@EA@ICvUnknown@@8
rdata$r	SEGMENT
??_R1A@?0A@EA@ICvUnknown@@8 DD FLAT:??_R0?AVICvUnknown@@@8 ; ICvUnknown::`RTTI Base Class Descriptor at (0,-1,0,64)'
	DD	00H
	DD	00H
	DD	0ffffffffH
	DD	00H
	DD	040H
	DD	FLAT:??_R3ICvUnknown@@8
rdata$r	ENDS
;	COMDAT ??_R2ICvUnknown@@8
rdata$r	SEGMENT
??_R2ICvUnknown@@8 DD FLAT:??_R1A@?0A@EA@ICvUnknown@@8	; ICvUnknown::`RTTI Base Class Array'
rdata$r	ENDS
;	COMDAT ??_R3ICvUnknown@@8
rdata$r	SEGMENT
??_R3ICvUnknown@@8 DD 00H				; ICvUnknown::`RTTI Class Hierarchy Descriptor'
	DD	00H
	DD	01H
	DD	FLAT:??_R2ICvUnknown@@8
rdata$r	ENDS
;	COMDAT ??_R0?AVICvUnknown@@@8
_DATA	SEGMENT
??_R0?AVICvUnknown@@@8 DD FLAT:??_7type_info@@6B@	; ICvUnknown `RTTI Type Descriptor'
	DD	00H
	DB	'.?AVICvUnknown@@', 00H
_DATA	ENDS
;	COMDAT ??_R4ICvUnknown@@6B@
rdata$r	SEGMENT
??_R4ICvUnknown@@6B@ DD 00H				; ICvUnknown::`RTTI Complete Object Locator'
	DD	00H
	DD	00H
	DD	FLAT:??_R0?AVICvUnknown@@@8
	DD	FLAT:??_R3ICvUnknown@@8
rdata$r	ENDS
;	COMDAT ??_7ICvUnknown@@6B@
CONST	SEGMENT
??_7ICvUnknown@@6B@ DD FLAT:??_R4ICvUnknown@@6B@	; ICvUnknown::`vftable'
	DD	FLAT:__purecall
	DD	FLAT:__purecall
; Function compile flags: /Ogtpy
CONST	ENDS
;	COMDAT ??0ICvUnknown@@QAE@XZ
_TEXT	SEGMENT
??0ICvUnknown@@QAE@XZ PROC				; ICvUnknown::ICvUnknown, COMDAT
; _this$ = ecx
	mov	eax, ecx
	mov	DWORD PTR [eax], OFFSET ??_7ICvUnknown@@6B@
	ret	0
??0ICvUnknown@@QAE@XZ ENDP				; ICvUnknown::ICvUnknown
_TEXT	ENDS
PUBLIC	??_7CvDllDealAI@@6B@				; CvDllDealAI::`vftable'
PUBLIC	??1CvDllDealAI@@QAE@XZ				; CvDllDealAI::~CvDllDealAI
PUBLIC	??_R4CvDllDealAI@@6B@				; CvDllDealAI::`RTTI Complete Object Locator'
PUBLIC	??_R0?AVCvDllDealAI@@@8				; CvDllDealAI `RTTI Type Descriptor'
PUBLIC	??_R3CvDllDealAI@@8				; CvDllDealAI::`RTTI Class Hierarchy Descriptor'
PUBLIC	??_R2CvDllDealAI@@8				; CvDllDealAI::`RTTI Base Class Array'
PUBLIC	??_R1A@?0A@EA@CvDllDealAI@@8			; CvDllDealAI::`RTTI Base Class Descriptor at (0,-1,0,64)'
PUBLIC	??_R1A@?0A@EA@ICvDealAI1@@8			; ICvDealAI1::`RTTI Base Class Descriptor at (0,-1,0,64)'
PUBLIC	??_R0?AVICvDealAI1@@@8				; ICvDealAI1 `RTTI Type Descriptor'
PUBLIC	??_R3ICvDealAI1@@8				; ICvDealAI1::`RTTI Class Hierarchy Descriptor'
PUBLIC	??_R2ICvDealAI1@@8				; ICvDealAI1::`RTTI Base Class Array'
PUBLIC	?QueryInterface@CvDllDealAI@@UAGPAXU_GUID@@@Z	; CvDllDealAI::QueryInterface
PUBLIC	?Destroy@CvDllDealAI@@EAGXXZ			; CvDllDealAI::Destroy
PUBLIC	?GetPlayer@CvDllDealAI@@UAGPAVICvPlayer1@@XZ	; CvDllDealAI::GetPlayer
PUBLIC	?DoHumanOfferDealToThisAI@CvDllDealAI@@UAGHPAVICvDeal1@@@Z ; CvDllDealAI::DoHumanOfferDealToThisAI
PUBLIC	?DoAcceptedDeal@CvDllDealAI@@UAGXW4PlayerTypes@@PAVICvDeal1@@HHH@Z ; CvDllDealAI::DoAcceptedDeal
PUBLIC	?DoHumanDemand@CvDllDealAI@@UAGHPAVICvDeal1@@@Z	; CvDllDealAI::DoHumanDemand
PUBLIC	?DoAcceptedDemand@CvDllDealAI@@UAGXW4PlayerTypes@@PAVICvDeal1@@@Z ; CvDllDealAI::DoAcceptedDemand
PUBLIC	?DoEqualizeDealWithHuman@CvDllDealAI@@UAG_NPAVICvDeal1@@W4PlayerTypes@@_N2AA_N3@Z ; CvDllDealAI::DoEqualizeDealWithHuman
;	COMDAT ??_R2ICvDealAI1@@8
; File c:\users\enormousapplepie\documents\github\lekmod\lekmod_dll\cvgamecoredll_expansion2\cvdlldealai.cpp
rdata$r	SEGMENT
??_R2ICvDealAI1@@8 DD FLAT:??_R1A@?0A@EA@ICvDealAI1@@8	; ICvDealAI1::`RTTI Base Class Array'
	DD	FLAT:??_R1A@?0A@EA@ICvUnknown@@8
rdata$r	ENDS
;	COMDAT ??_R3ICvDealAI1@@8
rdata$r	SEGMENT
??_R3ICvDealAI1@@8 DD 00H				; ICvDealAI1::`RTTI Class Hierarchy Descriptor'
	DD	00H
	DD	02H
	DD	FLAT:??_R2ICvDealAI1@@8
rdata$r	ENDS
;	COMDAT ??_R0?AVICvDealAI1@@@8
_DATA	SEGMENT
??_R0?AVICvDealAI1@@@8 DD FLAT:??_7type_info@@6B@	; ICvDealAI1 `RTTI Type Descriptor'
	DD	00H
	DB	'.?AVICvDealAI1@@', 00H
_DATA	ENDS
;	COMDAT ??_R1A@?0A@EA@ICvDealAI1@@8
rdata$r	SEGMENT
??_R1A@?0A@EA@ICvDealAI1@@8 DD FLAT:??_R0?AVICvDealAI1@@@8 ; ICvDealAI1::`RTTI Base Class Descriptor at (0,-1,0,64)'
	DD	01H
	DD	00H
	DD	0ffffffffH
	DD	00H
	DD	040H
	DD	FLAT:??_R3ICvDealAI1@@8
rdata$r	ENDS
;	COMDAT ??_R1A@?0A@EA@CvDllDealAI@@8
rdata$r	SEGMENT
??_R1A@?0A@EA@CvDllDealAI@@8 DD FLAT:??_R0?AVCvDllDealAI@@@8 ; CvDllDealAI::`RTTI Base Class Descriptor at (0,-1,0,64)'
	DD	02H
	DD	00H
	DD	0ffffffffH
	DD	00H
	DD	040H
	DD	FLAT:??_R3CvDllDealAI@@8
rdata$r	ENDS
;	COMDAT ??_R2CvDllDealAI@@8
rdata$r	SEGMENT
??_R2CvDllDealAI@@8 DD FLAT:??_R1A@?0A@EA@CvDllDealAI@@8 ; CvDllDealAI::`RTTI Base Class Array'
	DD	FLAT:??_R1A@?0A@EA@ICvDealAI1@@8
	DD	FLAT:??_R1A@?0A@EA@ICvUnknown@@8
rdata$r	ENDS
;	COMDAT ??_R3CvDllDealAI@@8
rdata$r	SEGMENT
??_R3CvDllDealAI@@8 DD 00H				; CvDllDealAI::`RTTI Class Hierarchy Descriptor'
	DD	00H
	DD	03H
	DD	FLAT:??_R2CvDllDealAI@@8
rdata$r	ENDS
;	COMDAT ??_R0?AVCvDllDealAI@@@8
_DATA	SEGMENT
??_R0?AVCvDllDealAI@@@8 DD FLAT:??_7type_info@@6B@	; CvDllDealAI `RTTI Type Descriptor'
	DD	00H
	DB	'.?AVCvDllDealAI@@', 00H
_DATA	ENDS
;	COMDAT ??_R4CvDllDealAI@@6B@
rdata$r	SEGMENT
??_R4CvDllDealAI@@6B@ DD 00H				; CvDllDealAI::`RTTI Complete Object Locator'
	DD	00H
	DD	00H
	DD	FLAT:??_R0?AVCvDllDealAI@@@8
	DD	FLAT:??_R3CvDllDealAI@@8
rdata$r	ENDS
;	COMDAT ??_7CvDllDealAI@@6B@
CONST	SEGMENT
??_7CvDllDealAI@@6B@ DD FLAT:??_R4CvDllDealAI@@6B@	; CvDllDealAI::`vftable'
	DD	FLAT:?QueryInterface@CvDllDealAI@@UAGPAXU_GUID@@@Z
	DD	FLAT:?Destroy@CvDllDealAI@@EAGXXZ
	DD	FLAT:?GetPlayer@CvDllDealAI@@UAGPAVICvPlayer1@@XZ
	DD	FLAT:?DoHumanOfferDealToThisAI@CvDllDealAI@@UAGHPAVICvDeal1@@@Z
	DD	FLAT:?DoAcceptedDeal@CvDllDealAI@@UAGXW4PlayerTypes@@PAVICvDeal1@@HHH@Z
	DD	FLAT:?DoHumanDemand@CvDllDealAI@@UAGHPAVICvDeal1@@@Z
	DD	FLAT:?DoAcceptedDemand@CvDllDealAI@@UAGXW4PlayerTypes@@PAVICvDeal1@@@Z
	DD	FLAT:?DoEqualizeDealWithHuman@CvDllDealAI@@UAG_NPAVICvDeal1@@W4PlayerTypes@@_N2AA_N3@Z
; Function compile flags: /Ogtpy
CONST	ENDS
;	COMDAT ??1CvDllDealAI@@QAE@XZ
_TEXT	SEGMENT
??1CvDllDealAI@@QAE@XZ PROC				; CvDllDealAI::~CvDllDealAI, COMDAT
; _this$ = ecx

; 27   : {

	mov	DWORD PTR [ecx], OFFSET ??_7CvDllDealAI@@6B@

; 28   : }

	ret	0
??1CvDllDealAI@@QAE@XZ ENDP				; CvDllDealAI::~CvDllDealAI
_TEXT	ENDS
PUBLIC	?IncrementReference@CvDllDealAI@@QAEIXZ		; CvDllDealAI::IncrementReference
; Function compile flags: /Ogtpy
;	COMDAT ?IncrementReference@CvDllDealAI@@QAEIXZ
_TEXT	SEGMENT
?IncrementReference@CvDllDealAI@@QAEIXZ PROC		; CvDllDealAI::IncrementReference, COMDAT
; _this$ = ecx

; 44   : 	++m_uiRefCount;

	inc	DWORD PTR [ecx+4]

; 45   : 	return m_uiRefCount;

	mov	eax, DWORD PTR [ecx+4]

; 46   : }

	ret	0
?IncrementReference@CvDllDealAI@@QAEIXZ ENDP		; CvDllDealAI::IncrementReference
_TEXT	ENDS
PUBLIC	?GetReferenceCount@CvDllDealAI@@QAEIXZ		; CvDllDealAI::GetReferenceCount
; Function compile flags: /Ogtpy
;	COMDAT ?GetReferenceCount@CvDllDealAI@@QAEIXZ
_TEXT	SEGMENT
?GetReferenceCount@CvDllDealAI@@QAEIXZ PROC		; CvDllDealAI::GetReferenceCount, COMDAT
; _this$ = ecx

; 64   : 	return m_uiRefCount;

	mov	eax, DWORD PTR [ecx+4]

; 65   : }

	ret	0
?GetReferenceCount@CvDllDealAI@@QAEIXZ ENDP		; CvDllDealAI::GetReferenceCount
_TEXT	ENDS
PUBLIC	??3CvDllDealAI@@SAXPAX@Z			; CvDllDealAI::operator delete
EXTRN	?Free@CvDllGameContext@@SAXPAX@Z:PROC		; CvDllGameContext::Free
; Function compile flags: /Ogtpy
;	COMDAT ??3CvDllDealAI@@SAXPAX@Z
_TEXT	SEGMENT
_p$ = 8							; size = 4
??3CvDllDealAI@@SAXPAX@Z PROC				; CvDllDealAI::operator delete, COMDAT

; 74   : 	CvDllGameContext::Free(p);

	jmp	?Free@CvDllGameContext@@SAXPAX@Z	; CvDllGameContext::Free
??3CvDllDealAI@@SAXPAX@Z ENDP				; CvDllDealAI::operator delete
_TEXT	ENDS
PUBLIC	??2CvDllDealAI@@SAPAXI@Z			; CvDllDealAI::operator new
EXTRN	?Allocate@CvDllGameContext@@SAPAXI@Z:PROC	; CvDllGameContext::Allocate
; Function compile flags: /Ogtpy
;	COMDAT ??2CvDllDealAI@@SAPAXI@Z
_TEXT	SEGMENT
_bytes$ = 8						; size = 4
??2CvDllDealAI@@SAPAXI@Z PROC				; CvDllDealAI::operator new, COMDAT

; 79   : 	return CvDllGameContext::Allocate(bytes);

	jmp	?Allocate@CvDllGameContext@@SAPAXI@Z	; CvDllGameContext::Allocate
??2CvDllDealAI@@SAPAXI@Z ENDP				; CvDllDealAI::operator new
_TEXT	ENDS
PUBLIC	?GetInstance@CvDllDealAI@@QAEPAVCvDealAI@@XZ	; CvDllDealAI::GetInstance
; Function compile flags: /Ogtpy
;	COMDAT ?GetInstance@CvDllDealAI@@QAEPAVCvDealAI@@XZ
_TEXT	SEGMENT
?GetInstance@CvDllDealAI@@QAEPAVCvDealAI@@XZ PROC	; CvDllDealAI::GetInstance, COMDAT
; _this$ = ecx

; 84   : 	return m_pDealAI;

	mov	eax, DWORD PTR [ecx+8]

; 85   : }

	ret	0
?GetInstance@CvDllDealAI@@QAEPAVCvDealAI@@XZ ENDP	; CvDllDealAI::GetInstance
_TEXT	ENDS
EXTRN	??3CvDllPlayer@@SAXPAX@Z:PROC			; CvDllPlayer::operator delete
EXTRN	??0CvDllPlayer@@QAE@PAVCvPlayerAI@@@Z:PROC	; CvDllPlayer::CvDllPlayer
EXTRN	??2CvDllPlayer@@SAPAXI@Z:PROC			; CvDllPlayer::operator new
EXTRN	?GetPlayer@CvDealAI@@QAEPAVCvPlayer@@XZ:PROC	; CvDealAI::GetPlayer
EXTRN	___CxxFrameHandler3:PROC
;	COMDAT xdata$x
xdata$x	SEGMENT
__unwindtable$?GetPlayer@CvDllDealAI@@UAGPAVICvPlayer1@@XZ DD 0ffffffffH
	DD	FLAT:__unwindfunclet$?GetPlayer@CvDllDealAI@@UAGPAVICvPlayer1@@XZ$0
__ehfuncinfo$?GetPlayer@CvDllDealAI@@UAGPAVICvPlayer1@@XZ DD 019930522H
	DD	01H
	DD	FLAT:__unwindtable$?GetPlayer@CvDllDealAI@@UAGPAVICvPlayer1@@XZ
	DD	2 DUP(00H)
	DD	2 DUP(00H)
	DD	00H
	DD	01H
; Function compile flags: /Ogtpy
xdata$x	ENDS
;	COMDAT ?GetPlayer@CvDllDealAI@@UAGPAVICvPlayer1@@XZ
_TEXT	SEGMENT
__$EHRec$ = -12						; size = 12
$T219576 = 8						; size = 4
_this$ = 8						; size = 4
?GetPlayer@CvDllDealAI@@UAGPAVICvPlayer1@@XZ PROC	; CvDllDealAI::GetPlayer, COMDAT

; 88   : {

	mov	eax, DWORD PTR fs:0
	push	-1
	push	__ehhandler$?GetPlayer@CvDllDealAI@@UAGPAVICvPlayer1@@XZ
	push	eax
	mov	DWORD PTR fs:0, esp

; 89   : 	CvPlayerAI* pkPlayer = (CvPlayerAI*)m_pDealAI->GetPlayer();

	mov	eax, DWORD PTR _this$[esp+8]
	mov	ecx, DWORD PTR [eax+8]
	push	esi
	call	?GetPlayer@CvDealAI@@QAEPAVCvPlayer@@XZ	; CvDealAI::GetPlayer
	mov	esi, eax

; 90   : 	return (NULL != pkPlayer)? new CvDllPlayer(pkPlayer) : NULL;

	test	esi, esi
	je	SHORT $LN5@GetPlayer
	push	12					; 0000000cH
	call	??2CvDllPlayer@@SAPAXI@Z		; CvDllPlayer::operator new
	add	esp, 4
	mov	DWORD PTR $T219576[esp+12], eax
	mov	DWORD PTR __$EHRec$[esp+24], 0
	test	eax, eax
	je	SHORT $LN5@GetPlayer
	push	esi
	mov	ecx, eax
	call	??0CvDllPlayer@@QAE@PAVCvPlayerAI@@@Z	; CvDllPlayer::CvDllPlayer

; 91   : }

	mov	ecx, DWORD PTR __$EHRec$[esp+16]
	mov	DWORD PTR fs:0, ecx
	pop	esi
	add	esp, 12					; 0000000cH
	ret	4
$LN5@GetPlayer:
	mov	ecx, DWORD PTR __$EHRec$[esp+16]
	xor	eax, eax
	mov	DWORD PTR fs:0, ecx
	pop	esi
	add	esp, 12					; 0000000cH
	ret	4
_TEXT	ENDS
;	COMDAT text$x
text$x	SEGMENT
__unwindfunclet$?GetPlayer@CvDllDealAI@@UAGPAVICvPlayer1@@XZ$0:
	mov	eax, DWORD PTR $T219576[ebp-4]
	push	eax
	call	??3CvDllPlayer@@SAXPAX@Z		; CvDllPlayer::operator delete
	pop	ecx
	ret	0
__ehhandler$?GetPlayer@CvDllDealAI@@UAGPAVICvPlayer1@@XZ:
	mov	eax, OFFSET __ehfuncinfo$?GetPlayer@CvDllDealAI@@UAGPAVICvPlayer1@@XZ
	jmp	___CxxFrameHandler3
text$x	ENDS
?GetPlayer@CvDllDealAI@@UAGPAVICvPlayer1@@XZ ENDP	; CvDllDealAI::GetPlayer
EXTRN	?DoHumanOfferDealToThisAI@CvDealAI@@QAE?AW4DealOfferResponseTypes@@PAVCvDeal@@@Z:PROC ; CvDealAI::DoHumanOfferDealToThisAI
EXTRN	?GetInstance@CvDllDeal@@QAEPAVCvDeal@@XZ:PROC	; CvDllDeal::GetInstance
; Function compile flags: /Ogtpy
;	COMDAT ?DoHumanOfferDealToThisAI@CvDllDealAI@@UAGHPAVICvDeal1@@@Z
_TEXT	SEGMENT
_this$ = 8						; size = 4
_pDeal$ = 12						; size = 4
?DoHumanOfferDealToThisAI@CvDllDealAI@@UAGHPAVICvDeal1@@@Z PROC ; CvDllDealAI::DoHumanOfferDealToThisAI, COMDAT

; 95   : 	CvDeal* pkDeal = (NULL != pDeal)? static_cast<CvDllDeal*>(pDeal)->GetInstance() : NULL;

	mov	ecx, DWORD PTR _pDeal$[esp-4]
	test	ecx, ecx
	je	SHORT $LN3@DoHumanOff
	call	?GetInstance@CvDllDeal@@QAEPAVCvDeal@@XZ ; CvDllDeal::GetInstance

; 96   : 	return m_pDealAI->DoHumanOfferDealToThisAI(pkDeal);

	push	eax
	mov	eax, DWORD PTR _this$[esp]
	mov	ecx, DWORD PTR [eax+8]
	call	?DoHumanOfferDealToThisAI@CvDealAI@@QAE?AW4DealOfferResponseTypes@@PAVCvDeal@@@Z ; CvDealAI::DoHumanOfferDealToThisAI

; 97   : }

	ret	8
$LN3@DoHumanOff:

; 95   : 	CvDeal* pkDeal = (NULL != pDeal)? static_cast<CvDllDeal*>(pDeal)->GetInstance() : NULL;

	xor	eax, eax

; 96   : 	return m_pDealAI->DoHumanOfferDealToThisAI(pkDeal);

	push	eax
	mov	eax, DWORD PTR _this$[esp]
	mov	ecx, DWORD PTR [eax+8]
	call	?DoHumanOfferDealToThisAI@CvDealAI@@QAE?AW4DealOfferResponseTypes@@PAVCvDeal@@@Z ; CvDealAI::DoHumanOfferDealToThisAI

; 97   : }

	ret	8
?DoHumanOfferDealToThisAI@CvDllDealAI@@UAGHPAVICvDeal1@@@Z ENDP ; CvDllDealAI::DoHumanOfferDealToThisAI
_TEXT	ENDS
EXTRN	?DoAcceptedDeal@CvDealAI@@QAEXW4PlayerTypes@@ABVCvDeal@@HHH@Z:PROC ; CvDealAI::DoAcceptedDeal
; Function compile flags: /Ogtpy
;	COMDAT ?DoAcceptedDeal@CvDllDealAI@@UAGXW4PlayerTypes@@PAVICvDeal1@@HHH@Z
_TEXT	SEGMENT
_this$ = 8						; size = 4
_eFromPlayer$ = 12					; size = 4
_pDeal$ = 16						; size = 4
_iDealValueToMe$ = 20					; size = 4
_iValueImOffering$ = 24					; size = 4
_iValueTheyreOffering$ = 28				; size = 4
?DoAcceptedDeal@CvDllDealAI@@UAGXW4PlayerTypes@@PAVICvDeal1@@HHH@Z PROC ; CvDllDealAI::DoAcceptedDeal, COMDAT

; 101  : 	CvDeal* pkDeal = (NULL != pDeal)? static_cast<CvDllDeal*>(pDeal)->GetInstance() : NULL;

	mov	ecx, DWORD PTR _pDeal$[esp-4]
	test	ecx, ecx
	je	SHORT $LN1@DoAccepted
	call	?GetInstance@CvDllDeal@@QAEPAVCvDeal@@XZ ; CvDllDeal::GetInstance

; 102  : 	if(pkDeal != NULL)

	test	eax, eax
	je	SHORT $LN1@DoAccepted

; 103  : 		m_pDealAI->DoAcceptedDeal(eFromPlayer, *pkDeal, iDealValueToMe, iValueImOffering, iValueTheyreOffering);

	mov	ecx, DWORD PTR _iValueTheyreOffering$[esp-4]
	mov	edx, DWORD PTR _iValueImOffering$[esp-4]
	push	ecx
	mov	ecx, DWORD PTR _iDealValueToMe$[esp]
	push	edx
	mov	edx, DWORD PTR _eFromPlayer$[esp+4]
	push	ecx
	push	eax
	mov	eax, DWORD PTR _this$[esp+12]
	mov	ecx, DWORD PTR [eax+8]
	push	edx
	call	?DoAcceptedDeal@CvDealAI@@QAEXW4PlayerTypes@@ABVCvDeal@@HHH@Z ; CvDealAI::DoAcceptedDeal
$LN1@DoAccepted:

; 104  : }

	ret	24					; 00000018H
?DoAcceptedDeal@CvDllDealAI@@UAGXW4PlayerTypes@@PAVICvDeal1@@HHH@Z ENDP ; CvDllDealAI::DoAcceptedDeal
_TEXT	ENDS
EXTRN	?DoHumanDemand@CvDealAI@@QAE?AW4DemandResponseTypes@@PAVCvDeal@@@Z:PROC ; CvDealAI::DoHumanDemand
; Function compile flags: /Ogtpy
;	COMDAT ?DoHumanDemand@CvDllDealAI@@UAGHPAVICvDeal1@@@Z
_TEXT	SEGMENT
_this$ = 8						; size = 4
_pDeal$ = 12						; size = 4
?DoHumanDemand@CvDllDealAI@@UAGHPAVICvDeal1@@@Z PROC	; CvDllDealAI::DoHumanDemand, COMDAT

; 108  : 	CvDeal* pkDeal = (NULL != pDeal)? static_cast<CvDllDeal*>(pDeal)->GetInstance() : NULL;

	mov	ecx, DWORD PTR _pDeal$[esp-4]
	test	ecx, ecx
	je	SHORT $LN3@DoHumanDem
	call	?GetInstance@CvDllDeal@@QAEPAVCvDeal@@XZ ; CvDllDeal::GetInstance

; 109  : 	return m_pDealAI->DoHumanDemand(pkDeal);

	push	eax
	mov	eax, DWORD PTR _this$[esp]
	mov	ecx, DWORD PTR [eax+8]
	call	?DoHumanDemand@CvDealAI@@QAE?AW4DemandResponseTypes@@PAVCvDeal@@@Z ; CvDealAI::DoHumanDemand

; 110  : }

	ret	8
$LN3@DoHumanDem:

; 108  : 	CvDeal* pkDeal = (NULL != pDeal)? static_cast<CvDllDeal*>(pDeal)->GetInstance() : NULL;

	xor	eax, eax

; 109  : 	return m_pDealAI->DoHumanDemand(pkDeal);

	push	eax
	mov	eax, DWORD PTR _this$[esp]
	mov	ecx, DWORD PTR [eax+8]
	call	?DoHumanDemand@CvDealAI@@QAE?AW4DemandResponseTypes@@PAVCvDeal@@@Z ; CvDealAI::DoHumanDemand

; 110  : }

	ret	8
?DoHumanDemand@CvDllDealAI@@UAGHPAVICvDeal1@@@Z ENDP	; CvDllDealAI::DoHumanDemand
_TEXT	ENDS
EXTRN	?DoAcceptedDemand@CvDealAI@@QAEXW4PlayerTypes@@ABVCvDeal@@@Z:PROC ; CvDealAI::DoAcceptedDemand
; Function compile flags: /Ogtpy
;	COMDAT ?DoAcceptedDemand@CvDllDealAI@@UAGXW4PlayerTypes@@PAVICvDeal1@@@Z
_TEXT	SEGMENT
_this$ = 8						; size = 4
_eFromPlayer$ = 12					; size = 4
_pDeal$ = 16						; size = 4
?DoAcceptedDemand@CvDllDealAI@@UAGXW4PlayerTypes@@PAVICvDeal1@@@Z PROC ; CvDllDealAI::DoAcceptedDemand, COMDAT

; 114  : 	CvDeal* pkDeal = (NULL != pDeal)? static_cast<CvDllDeal*>(pDeal)->GetInstance() : NULL;

	mov	ecx, DWORD PTR _pDeal$[esp-4]
	test	ecx, ecx
	je	SHORT $LN1@DoAccepted@2
	call	?GetInstance@CvDllDeal@@QAEPAVCvDeal@@XZ ; CvDllDeal::GetInstance

; 115  : 	if(pkDeal != NULL)

	test	eax, eax
	je	SHORT $LN1@DoAccepted@2

; 116  : 		m_pDealAI->DoAcceptedDemand(eFromPlayer, *pkDeal);

	mov	ecx, DWORD PTR _this$[esp-4]
	mov	ecx, DWORD PTR [ecx+8]
	push	eax
	mov	eax, DWORD PTR _eFromPlayer$[esp]
	push	eax
	call	?DoAcceptedDemand@CvDealAI@@QAEXW4PlayerTypes@@ABVCvDeal@@@Z ; CvDealAI::DoAcceptedDemand
$LN1@DoAccepted@2:

; 117  : }

	ret	12					; 0000000cH
?DoAcceptedDemand@CvDllDealAI@@UAGXW4PlayerTypes@@PAVICvDeal1@@@Z ENDP ; CvDllDealAI::DoAcceptedDemand
_TEXT	ENDS
EXTRN	?DoEqualizeDealWithHuman@CvDealAI@@QAE_NPAVCvDeal@@W4PlayerTypes@@_N2AA_N3@Z:PROC ; CvDealAI::DoEqualizeDealWithHuman
; Function compile flags: /Ogtpy
;	COMDAT ?DoEqualizeDealWithHuman@CvDllDealAI@@UAG_NPAVICvDeal1@@W4PlayerTypes@@_N2AA_N3@Z
_TEXT	SEGMENT
_this$ = 8						; size = 4
_pDeal$ = 12						; size = 4
_eOtherPlayer$ = 16					; size = 4
_bDontChangeMyExistingItems$ = 20			; size = 1
_bDontChangeTheirExistingItems$ = 24			; size = 1
_bDealGoodToBeginWith$ = 28				; size = 4
_bCantMatchOffer$ = 32					; size = 4
?DoEqualizeDealWithHuman@CvDllDealAI@@UAG_NPAVICvDeal1@@W4PlayerTypes@@_N2AA_N3@Z PROC ; CvDllDealAI::DoEqualizeDealWithHuman, COMDAT

; 121  : 	CvDeal* pkDeal = (NULL != pDeal)? static_cast<CvDllDeal*>(pDeal)->GetInstance() : NULL;

	mov	ecx, DWORD PTR _pDeal$[esp-4]
	test	ecx, ecx
	je	SHORT $LN3@DoEqualize
	call	?GetInstance@CvDllDeal@@QAEPAVCvDeal@@XZ ; CvDllDeal::GetInstance
	jmp	SHORT $LN4@DoEqualize
$LN3@DoEqualize:
	xor	eax, eax
$LN4@DoEqualize:

; 122  : 	return m_pDealAI->DoEqualizeDealWithHuman(pkDeal, eOtherPlayer, bDontChangeMyExistingItems, bDontChangeTheirExistingItems, bDealGoodToBeginWith, bCantMatchOffer);

	mov	ecx, DWORD PTR _bCantMatchOffer$[esp-4]
	mov	edx, DWORD PTR _bDealGoodToBeginWith$[esp-4]
	push	ecx
	mov	ecx, DWORD PTR _bDontChangeTheirExistingItems$[esp]
	push	edx
	mov	edx, DWORD PTR _bDontChangeMyExistingItems$[esp+4]
	push	ecx
	mov	ecx, DWORD PTR _eOtherPlayer$[esp+8]
	push	edx
	mov	edx, DWORD PTR _this$[esp+12]
	push	ecx
	mov	ecx, DWORD PTR [edx+8]
	push	eax
	call	?DoEqualizeDealWithHuman@CvDealAI@@QAE_NPAVCvDeal@@W4PlayerTypes@@_N2AA_N3@Z ; CvDealAI::DoEqualizeDealWithHuman

; 123  : }

	ret	28					; 0000001cH
?DoEqualizeDealWithHuman@CvDllDealAI@@UAG_NPAVICvDeal1@@W4PlayerTypes@@_N2AA_N3@Z ENDP ; CvDllDealAI::DoEqualizeDealWithHuman
_TEXT	ENDS
PUBLIC	_IsEqualGUID
; Function compile flags: /Ogtpy
; File c:\program files\microsoft sdks\windows\v6.0a\include\guiddef.h
;	COMDAT _IsEqualGUID
_TEXT	SEGMENT
_rguid1$ = 8						; size = 4
_rguid2$ = 12						; size = 4
_IsEqualGUID PROC					; COMDAT

; 161  :     return !memcmp(&rguid1, &rguid2, sizeof(GUID));

	mov	ecx, DWORD PTR _rguid2$[esp-4]
	mov	edx, DWORD PTR _rguid1$[esp-4]
	mov	eax, 16					; 00000010H
	push	esi
	npad	2
$LL4@IsEqualGUI:
	mov	esi, DWORD PTR [edx]
	cmp	esi, DWORD PTR [ecx]
	jne	SHORT $LN5@IsEqualGUI
	sub	eax, 4
	add	ecx, 4
	add	edx, 4
	cmp	eax, 4
	jae	SHORT $LL4@IsEqualGUI
	xor	eax, eax
	xor	edx, edx
	test	eax, eax
	sete	dl
	pop	esi
	mov	eax, edx

; 162  : }

	ret	0
$LN5@IsEqualGUI:

; 161  :     return !memcmp(&rguid1, &rguid2, sizeof(GUID));

	movzx	eax, BYTE PTR [edx]
	movzx	esi, BYTE PTR [ecx]
	sub	eax, esi
	jne	SHORT $LN7@IsEqualGUI
	movzx	eax, BYTE PTR [edx+1]
	movzx	esi, BYTE PTR [ecx+1]
	sub	eax, esi
	jne	SHORT $LN7@IsEqualGUI
	movzx	eax, BYTE PTR [edx+2]
	movzx	esi, BYTE PTR [ecx+2]
	sub	eax, esi
	jne	SHORT $LN7@IsEqualGUI
	movzx	eax, BYTE PTR [edx+3]
	movzx	ecx, BYTE PTR [ecx+3]
	sub	eax, ecx
$LN7@IsEqualGUI:
	sar	eax, 31					; 0000001fH
	or	eax, 1
	xor	edx, edx
	test	eax, eax
	sete	dl
	pop	esi
	mov	eax, edx

; 162  : }

	ret	0
_IsEqualGUID ENDP
_TEXT	ENDS
PUBLIC	_==
; Function compile flags: /Ogtpy
;	COMDAT _==
_TEXT	SEGMENT
_guidOne$ = 8						; size = 4
_guidOther$ = 12					; size = 4
_==	PROC						; COMDAT

; 194  :     return IsEqualGUID(guidOne,guidOther);

	jmp	_IsEqualGUID
_==	ENDP
_TEXT	ENDS
PUBLIC	?GetInterfaceId@ICvUnknown@@SG?AU_GUID@@XZ	; ICvUnknown::GetInterfaceId
; Function compile flags: /Ogtpy
; File c:\users\enormousapplepie\documents\github\lekmod\lekmod_dll\cvgamecoredllutil\include\cvdllinterfaces.h
;	COMDAT ?GetInterfaceId@ICvUnknown@@SG?AU_GUID@@XZ
_TEXT	SEGMENT
$T219637 = 8						; size = 4
?GetInterfaceId@ICvUnknown@@SG?AU_GUID@@XZ PROC		; ICvUnknown::GetInterfaceId, COMDAT

; 306  : 	static GUID DLLCALL GetInterfaceId(){ return guidICvUnknown; }

	mov	eax, DWORD PTR $T219637[esp-4]
	mov	ecx, DWORD PTR _guidICvUnknown
	mov	edx, DWORD PTR _guidICvUnknown+4
	mov	DWORD PTR [eax], ecx
	mov	ecx, DWORD PTR _guidICvUnknown+8
	mov	DWORD PTR [eax+4], edx
	mov	edx, DWORD PTR _guidICvUnknown+12
	mov	DWORD PTR [eax+8], ecx
	mov	DWORD PTR [eax+12], edx
	ret	4
?GetInterfaceId@ICvUnknown@@SG?AU_GUID@@XZ ENDP		; ICvUnknown::GetInterfaceId
_TEXT	ENDS
PUBLIC	?GetInterfaceId@ICvDealAI1@@SG?AU_GUID@@XZ	; ICvDealAI1::GetInterfaceId
; Function compile flags: /Ogtpy
;	COMDAT ?GetInterfaceId@ICvDealAI1@@SG?AU_GUID@@XZ
_TEXT	SEGMENT
$T219641 = 8						; size = 4
?GetInterfaceId@ICvDealAI1@@SG?AU_GUID@@XZ PROC		; ICvDealAI1::GetInterfaceId, COMDAT

; 952  : 	static GUID DLLCALL GetInterfaceId() { return guidICvDealAI1; }

	mov	eax, DWORD PTR $T219641[esp-4]
	mov	ecx, DWORD PTR _guidICvDealAI1
	mov	edx, DWORD PTR _guidICvDealAI1+4
	mov	DWORD PTR [eax], ecx
	mov	ecx, DWORD PTR _guidICvDealAI1+8
	mov	DWORD PTR [eax+4], edx
	mov	edx, DWORD PTR _guidICvDealAI1+12
	mov	DWORD PTR [eax+8], ecx
	mov	DWORD PTR [eax+12], edx
	ret	4
?GetInterfaceId@ICvDealAI1@@SG?AU_GUID@@XZ ENDP		; ICvDealAI1::GetInterfaceId
_TEXT	ENDS
PUBLIC	??_7ICvDealAI1@@6B@				; ICvDealAI1::`vftable'
PUBLIC	??0ICvDealAI1@@QAE@XZ				; ICvDealAI1::ICvDealAI1
PUBLIC	??_R4ICvDealAI1@@6B@				; ICvDealAI1::`RTTI Complete Object Locator'
;	COMDAT ??_R4ICvDealAI1@@6B@
rdata$r	SEGMENT
??_R4ICvDealAI1@@6B@ DD 00H				; ICvDealAI1::`RTTI Complete Object Locator'
	DD	00H
	DD	00H
	DD	FLAT:??_R0?AVICvDealAI1@@@8
	DD	FLAT:??_R3ICvDealAI1@@8
rdata$r	ENDS
;	COMDAT ??_7ICvDealAI1@@6B@
CONST	SEGMENT
??_7ICvDealAI1@@6B@ DD FLAT:??_R4ICvDealAI1@@6B@	; ICvDealAI1::`vftable'
	DD	FLAT:__purecall
	DD	FLAT:__purecall
	DD	FLAT:__purecall
	DD	FLAT:__purecall
	DD	FLAT:__purecall
	DD	FLAT:__purecall
	DD	FLAT:__purecall
	DD	FLAT:__purecall
; Function compile flags: /Ogtpy
CONST	ENDS
;	COMDAT ??0ICvDealAI1@@QAE@XZ
_TEXT	SEGMENT
??0ICvDealAI1@@QAE@XZ PROC				; ICvDealAI1::ICvDealAI1, COMDAT
; _this$ = ecx
	mov	eax, ecx
	mov	DWORD PTR [eax], OFFSET ??_7ICvDealAI1@@6B@
	ret	0
??0ICvDealAI1@@QAE@XZ ENDP				; ICvDealAI1::ICvDealAI1
; Function compile flags: /Ogtpy
; File c:\users\enormousapplepie\documents\github\lekmod\lekmod_dll\cvgamecoredll_expansion2\cvdlldealai.cpp
_TEXT	ENDS
;	COMDAT ?QueryInterface@CvDllDealAI@@UAGPAXU_GUID@@@Z
_TEXT	SEGMENT
$T219653 = -16						; size = 16
$T219651 = -16						; size = 16
_this$ = 8						; size = 4
_guidInterface$ = 12					; size = 16
?QueryInterface@CvDllDealAI@@UAGPAXU_GUID@@@Z PROC	; CvDllDealAI::QueryInterface, COMDAT

; 31   : {

	sub	esp, 16					; 00000010H

; 32   : 	if(guidInterface == ICvUnknown::GetInterfaceId() ||
; 33   : 	        guidInterface == ICvDealAI1::GetInterfaceId())

	mov	ecx, DWORD PTR _guidICvUnknown+4
	mov	edx, DWORD PTR _guidICvUnknown+8
	mov	eax, DWORD PTR _guidICvUnknown
	mov	DWORD PTR $T219651[esp+20], ecx
	lea	ecx, DWORD PTR $T219651[esp+16]
	mov	DWORD PTR $T219651[esp+24], edx
	mov	DWORD PTR $T219651[esp+16], eax
	mov	eax, DWORD PTR _guidICvUnknown+12
	push	ecx
	lea	edx, DWORD PTR _guidInterface$[esp+16]
	push	edx
	mov	DWORD PTR $T219651[esp+36], eax
	call	_IsEqualGUID
	add	esp, 8
	test	eax, eax
	jne	SHORT $LN1@QueryInter
	mov	ecx, DWORD PTR _guidICvDealAI1+4
	mov	edx, DWORD PTR _guidICvDealAI1+8
	mov	eax, DWORD PTR _guidICvDealAI1
	mov	DWORD PTR $T219653[esp+20], ecx
	lea	ecx, DWORD PTR $T219653[esp+16]
	mov	DWORD PTR $T219653[esp+24], edx
	mov	DWORD PTR $T219653[esp+16], eax
	mov	eax, DWORD PTR _guidICvDealAI1+12
	push	ecx
	lea	edx, DWORD PTR _guidInterface$[esp+16]
	push	edx
	mov	DWORD PTR $T219653[esp+36], eax
	call	_IsEqualGUID
	add	esp, 8
	test	eax, eax
	jne	SHORT $LN1@QueryInter

; 36   : 		return this;
; 37   : 	}
; 38   : 
; 39   : 	return NULL;
; 40   : }

	add	esp, 16					; 00000010H
	ret	20					; 00000014H
$LN1@QueryInter:

; 34   : 	{
; 35   : 		IncrementReference();

	mov	eax, DWORD PTR _this$[esp+12]
	inc	DWORD PTR [eax+4]

; 36   : 		return this;
; 37   : 	}
; 38   : 
; 39   : 	return NULL;
; 40   : }

	add	esp, 16					; 00000010H
	ret	20					; 00000014H
?QueryInterface@CvDllDealAI@@UAGPAXU_GUID@@@Z ENDP	; CvDllDealAI::QueryInterface
_TEXT	ENDS
PUBLIC	??_GCvDllDealAI@@QAEPAXI@Z			; CvDllDealAI::`scalar deleting destructor'
; Function compile flags: /Ogtpy
;	COMDAT ??_GCvDllDealAI@@QAEPAXI@Z
_TEXT	SEGMENT
___flags$ = 8						; size = 4
??_GCvDllDealAI@@QAEPAXI@Z PROC				; CvDllDealAI::`scalar deleting destructor', COMDAT
; _this$ = ecx
	test	BYTE PTR ___flags$[esp-4], 1
	push	esi
	mov	esi, ecx
	mov	DWORD PTR [esi], OFFSET ??_7CvDllDealAI@@6B@
	je	SHORT $LN8@scalar
	push	esi
	call	?Free@CvDllGameContext@@SAXPAX@Z	; CvDllGameContext::Free
	add	esp, 4
$LN8@scalar:
	mov	eax, esi
	pop	esi
	ret	4
??_GCvDllDealAI@@QAEPAXI@Z ENDP				; CvDllDealAI::`scalar deleting destructor'
_TEXT	ENDS
PUBLIC	??0CvDllDealAI@@QAE@PAVCvDealAI@@@Z		; CvDllDealAI::CvDllDealAI
; Function compile flags: /Ogtpy
;	COMDAT ??0CvDllDealAI@@QAE@PAVCvDealAI@@@Z
_TEXT	SEGMENT
_pDealAI$ = 8						; size = 4
??0CvDllDealAI@@QAE@PAVCvDealAI@@@Z PROC		; CvDllDealAI::CvDllDealAI, COMDAT
; _this$ = ecx

; 23   : {

	mov	eax, ecx
	mov	ecx, DWORD PTR _pDealAI$[esp-4]
	mov	DWORD PTR [eax], OFFSET ??_7CvDllDealAI@@6B@
	mov	DWORD PTR [eax+4], 1
	mov	DWORD PTR [eax+8], ecx

; 24   : }

	ret	4
??0CvDllDealAI@@QAE@PAVCvDealAI@@@Z ENDP		; CvDllDealAI::CvDllDealAI
_TEXT	ENDS
PUBLIC	?DecrementReference@CvDllDealAI@@QAEIXZ		; CvDllDealAI::DecrementReference
; Function compile flags: /Ogtpy
;	COMDAT ?DecrementReference@CvDllDealAI@@QAEIXZ
_TEXT	SEGMENT
?DecrementReference@CvDllDealAI@@QAEIXZ PROC		; CvDllDealAI::DecrementReference, COMDAT
; _this$ = ecx

; 50   : 	if(m_uiRefCount == 1)

	mov	eax, DWORD PTR [ecx+4]
	cmp	eax, 1
	jne	SHORT $LN2@DecrementR

; 51   : 	{
; 52   : 		delete this;

	push	ecx
	mov	DWORD PTR [ecx], OFFSET ??_7CvDllDealAI@@6B@
	call	?Free@CvDllGameContext@@SAXPAX@Z	; CvDllGameContext::Free
	add	esp, 4

; 53   : 		return 0;

	xor	eax, eax

; 58   : 		return m_uiRefCount;
; 59   : 	}
; 60   : }

	ret	0
$LN2@DecrementR:

; 54   : 	}
; 55   : 	else
; 56   : 	{
; 57   : 		--m_uiRefCount;

	dec	eax
	mov	DWORD PTR [ecx+4], eax

; 58   : 		return m_uiRefCount;
; 59   : 	}
; 60   : }

	ret	0
?DecrementReference@CvDllDealAI@@QAEIXZ ENDP		; CvDllDealAI::DecrementReference
; Function compile flags: /Ogtpy
_TEXT	ENDS
;	COMDAT ?Destroy@CvDllDealAI@@EAGXXZ
_TEXT	SEGMENT
_this$ = 8						; size = 4
?Destroy@CvDllDealAI@@EAGXXZ PROC			; CvDllDealAI::Destroy, COMDAT

; 69   : 	DecrementReference();

	mov	eax, DWORD PTR _this$[esp-4]
	mov	ecx, DWORD PTR [eax+4]
	cmp	ecx, 1
	jne	SHORT $LN4@Destroy
	push	eax
	mov	DWORD PTR [eax], OFFSET ??_7CvDllDealAI@@6B@
	call	?Free@CvDllGameContext@@SAXPAX@Z	; CvDllGameContext::Free
	add	esp, 4

; 70   : }

	ret	4

; 69   : 	DecrementReference();

$LN4@Destroy:
	dec	ecx
	mov	DWORD PTR [eax+4], ecx

; 70   : }

	ret	4
?Destroy@CvDllDealAI@@EAGXXZ ENDP			; CvDllDealAI::Destroy
_TEXT	ENDS
END
