; Listing generated by Microsoft (R) Optimizing Compiler Version 15.00.30729.01 

	TITLE	c:\Users\EnormousApplePie\Documents\GitHub\Lekmod\LEKMOD_DLL\CvGameCoreDLL_Expansion2\CvDllWorldBuilderMapLoader.cpp
	.686P
	.XMM
	include listing.inc
	.model	flat

INCLUDELIB MSVCRT
INCLUDELIB OLDNAMES

_DATA	SEGMENT
_CIV5_XP2_DLL_VERSION DD FLAT:$SG217179
_DATA	ENDS
CONST	SEGMENT
$SG217179 DB	'1.0.0', 00H
	ORG $+2
_guidICvUnknown DD 0d89ba82fH
	DW	09fa3H
	DW	04696H
	DB	0b3H
	DB	0f4H
	DB	052H
	DB	0bdH
	DB	0b1H
	DB	01H
	DB	0cfH
	DB	0b2H
_guidICvWorldBuilderMapLoader1 DD 039474804H
	DW	014f7H
	DW	044e3H
	DB	0b5H
	DB	051H
	DB	0a2H
	DB	049H
	DB	08dH
	DB	0caH
	DB	0d1H
	DB	01cH
_guidICvWorldBuilderMapLoader2 DD 06f009d2aH
	DW	0247eH
	DW	04818H
	DB	0acH
	DB	01cH
	DB	051H
	DB	097H
	DB	0a8H
	DB	0a7H
	DB	095H
	DB	059H
CONST	ENDS
PUBLIC	??_7ICvUnknown@@6B@				; ICvUnknown::`vftable'
PUBLIC	??0ICvUnknown@@QAE@XZ				; ICvUnknown::ICvUnknown
PUBLIC	??_R4ICvUnknown@@6B@				; ICvUnknown::`RTTI Complete Object Locator'
PUBLIC	??_R0?AVICvUnknown@@@8				; ICvUnknown `RTTI Type Descriptor'
PUBLIC	??_R3ICvUnknown@@8				; ICvUnknown::`RTTI Class Hierarchy Descriptor'
PUBLIC	??_R2ICvUnknown@@8				; ICvUnknown::`RTTI Base Class Array'
PUBLIC	??_R1A@?0A@EA@ICvUnknown@@8			; ICvUnknown::`RTTI Base Class Descriptor at (0,-1,0,64)'
EXTRN	??_7type_info@@6B@:QWORD			; type_info::`vftable'
EXTRN	__purecall:PROC
;	COMDAT ??_R1A@?0A@EA@ICvUnknown@@8
rdata$r	SEGMENT
??_R1A@?0A@EA@ICvUnknown@@8 DD FLAT:??_R0?AVICvUnknown@@@8 ; ICvUnknown::`RTTI Base Class Descriptor at (0,-1,0,64)'
	DD	00H
	DD	00H
	DD	0ffffffffH
	DD	00H
	DD	040H
	DD	FLAT:??_R3ICvUnknown@@8
rdata$r	ENDS
;	COMDAT ??_R2ICvUnknown@@8
rdata$r	SEGMENT
??_R2ICvUnknown@@8 DD FLAT:??_R1A@?0A@EA@ICvUnknown@@8	; ICvUnknown::`RTTI Base Class Array'
rdata$r	ENDS
;	COMDAT ??_R3ICvUnknown@@8
rdata$r	SEGMENT
??_R3ICvUnknown@@8 DD 00H				; ICvUnknown::`RTTI Class Hierarchy Descriptor'
	DD	00H
	DD	01H
	DD	FLAT:??_R2ICvUnknown@@8
rdata$r	ENDS
;	COMDAT ??_R0?AVICvUnknown@@@8
_DATA	SEGMENT
??_R0?AVICvUnknown@@@8 DD FLAT:??_7type_info@@6B@	; ICvUnknown `RTTI Type Descriptor'
	DD	00H
	DB	'.?AVICvUnknown@@', 00H
_DATA	ENDS
;	COMDAT ??_R4ICvUnknown@@6B@
rdata$r	SEGMENT
??_R4ICvUnknown@@6B@ DD 00H				; ICvUnknown::`RTTI Complete Object Locator'
	DD	00H
	DD	00H
	DD	FLAT:??_R0?AVICvUnknown@@@8
	DD	FLAT:??_R3ICvUnknown@@8
rdata$r	ENDS
;	COMDAT ??_7ICvUnknown@@6B@
CONST	SEGMENT
??_7ICvUnknown@@6B@ DD FLAT:??_R4ICvUnknown@@6B@	; ICvUnknown::`vftable'
	DD	FLAT:__purecall
	DD	FLAT:__purecall
; Function compile flags: /Ogtpy
CONST	ENDS
;	COMDAT ??0ICvUnknown@@QAE@XZ
_TEXT	SEGMENT
??0ICvUnknown@@QAE@XZ PROC				; ICvUnknown::ICvUnknown, COMDAT
; _this$ = ecx
	mov	eax, ecx
	mov	DWORD PTR [eax], OFFSET ??_7ICvUnknown@@6B@
	ret	0
??0ICvUnknown@@QAE@XZ ENDP				; ICvUnknown::ICvUnknown
_TEXT	ENDS
PUBLIC	??_7CvDllWorldBuilderMapLoader@@6B@		; CvDllWorldBuilderMapLoader::`vftable'
PUBLIC	??1CvDllWorldBuilderMapLoader@@QAE@XZ		; CvDllWorldBuilderMapLoader::~CvDllWorldBuilderMapLoader
PUBLIC	??_R4CvDllWorldBuilderMapLoader@@6B@		; CvDllWorldBuilderMapLoader::`RTTI Complete Object Locator'
PUBLIC	??_R0?AVCvDllWorldBuilderMapLoader@@@8		; CvDllWorldBuilderMapLoader `RTTI Type Descriptor'
PUBLIC	??_R3CvDllWorldBuilderMapLoader@@8		; CvDllWorldBuilderMapLoader::`RTTI Class Hierarchy Descriptor'
PUBLIC	??_R2CvDllWorldBuilderMapLoader@@8		; CvDllWorldBuilderMapLoader::`RTTI Base Class Array'
PUBLIC	??_R1A@?0A@EA@CvDllWorldBuilderMapLoader@@8	; CvDllWorldBuilderMapLoader::`RTTI Base Class Descriptor at (0,-1,0,64)'
PUBLIC	??_R1A@?0A@EA@ICvWorldBuilderMapLoader2@@8	; ICvWorldBuilderMapLoader2::`RTTI Base Class Descriptor at (0,-1,0,64)'
PUBLIC	??_R0?AVICvWorldBuilderMapLoader2@@@8		; ICvWorldBuilderMapLoader2 `RTTI Type Descriptor'
PUBLIC	??_R3ICvWorldBuilderMapLoader2@@8		; ICvWorldBuilderMapLoader2::`RTTI Class Hierarchy Descriptor'
PUBLIC	??_R2ICvWorldBuilderMapLoader2@@8		; ICvWorldBuilderMapLoader2::`RTTI Base Class Array'
PUBLIC	??_R1A@?0A@EA@ICvWorldBuilderMapLoader1@@8	; ICvWorldBuilderMapLoader1::`RTTI Base Class Descriptor at (0,-1,0,64)'
PUBLIC	??_R0?AVICvWorldBuilderMapLoader1@@@8		; ICvWorldBuilderMapLoader1 `RTTI Type Descriptor'
PUBLIC	??_R3ICvWorldBuilderMapLoader1@@8		; ICvWorldBuilderMapLoader1::`RTTI Class Hierarchy Descriptor'
PUBLIC	??_R2ICvWorldBuilderMapLoader1@@8		; ICvWorldBuilderMapLoader1::`RTTI Base Class Array'
PUBLIC	?QueryInterface@CvDllWorldBuilderMapLoader@@UAGPAXU_GUID@@@Z ; CvDllWorldBuilderMapLoader::QueryInterface
PUBLIC	?Destroy@CvDllWorldBuilderMapLoader@@EAGXXZ	; CvDllWorldBuilderMapLoader::Destroy
PUBLIC	?GetCurrentMapInfo@CvDllWorldBuilderMapLoader@@UAGABUCvWorldBuilderMapLoaderMapInfo@@XZ ; CvDllWorldBuilderMapLoader::GetCurrentMapInfo
PUBLIC	?Preload@CvDllWorldBuilderMapLoader@@UAG_NPB_W_N@Z ; CvDllWorldBuilderMapLoader::Preload
PUBLIC	?SetupGameOptions@CvDllWorldBuilderMapLoader@@UAGXXZ ; CvDllWorldBuilderMapLoader::SetupGameOptions
PUBLIC	?SetupPlayers@CvDllWorldBuilderMapLoader@@UAGXXZ ; CvDllWorldBuilderMapLoader::SetupPlayers
PUBLIC	?SetInitialItems@CvDllWorldBuilderMapLoader@@UAGX_N@Z ; CvDllWorldBuilderMapLoader::SetInitialItems
PUBLIC	?InitMap@CvDllWorldBuilderMapLoader@@UAG_NXZ	; CvDllWorldBuilderMapLoader::InitMap
PUBLIC	?Save@CvDllWorldBuilderMapLoader@@UAG_NPB_WPBD@Z ; CvDllWorldBuilderMapLoader::Save
PUBLIC	?LoadModData@CvDllWorldBuilderMapLoader@@UAGHPAUlua_State@@@Z ; CvDllWorldBuilderMapLoader::LoadModData
PUBLIC	?ValidateTerrain@CvDllWorldBuilderMapLoader@@UAGXXZ ; CvDllWorldBuilderMapLoader::ValidateTerrain
PUBLIC	?ValidateCoast@CvDllWorldBuilderMapLoader@@UAGXXZ ; CvDllWorldBuilderMapLoader::ValidateCoast
PUBLIC	?ClearResources@CvDllWorldBuilderMapLoader@@UAGXXZ ; CvDllWorldBuilderMapLoader::ClearResources
PUBLIC	?ClearGoodies@CvDllWorldBuilderMapLoader@@UAGXXZ ; CvDllWorldBuilderMapLoader::ClearGoodies
PUBLIC	?ResetPlayerSlots@CvDllWorldBuilderMapLoader@@UAGXXZ ; CvDllWorldBuilderMapLoader::ResetPlayerSlots
PUBLIC	?MapPlayerToSlot@CvDllWorldBuilderMapLoader@@UAGXIW4PlayerTypes@@@Z ; CvDllWorldBuilderMapLoader::MapPlayerToSlot
PUBLIC	?PreviewPlayableCivCount@CvDllWorldBuilderMapLoader@@UAGIPB_W@Z ; CvDllWorldBuilderMapLoader::PreviewPlayableCivCount
PUBLIC	?GetMapPreview@CvDllWorldBuilderMapLoader@@UAGHPAUlua_State@@@Z ; CvDllWorldBuilderMapLoader::GetMapPreview
PUBLIC	?GetMapPlayers@CvDllWorldBuilderMapLoader@@UAGHPAUlua_State@@@Z ; CvDllWorldBuilderMapLoader::GetMapPlayers
PUBLIC	?AddRandomItems@CvDllWorldBuilderMapLoader@@UAGHPAUlua_State@@@Z ; CvDllWorldBuilderMapLoader::AddRandomItems
PUBLIC	?ScatterResources@CvDllWorldBuilderMapLoader@@UAGHPAUlua_State@@@Z ; CvDllWorldBuilderMapLoader::ScatterResources
PUBLIC	?ScatterGoodies@CvDllWorldBuilderMapLoader@@UAGHPAUlua_State@@@Z ; CvDllWorldBuilderMapLoader::ScatterGoodies
PUBLIC	?GetMapPlayerSlot@CvDllWorldBuilderMapLoader@@UAG?AW4PlayerTypes@@I@Z ; CvDllWorldBuilderMapLoader::GetMapPlayerSlot
PUBLIC	?GetMapPlayerCount@CvDllWorldBuilderMapLoader@@UAGHXZ ; CvDllWorldBuilderMapLoader::GetMapPlayerCount
PUBLIC	?GenerateRandomMap@CvDllWorldBuilderMapLoader@@UAGXPBD@Z ; CvDllWorldBuilderMapLoader::GenerateRandomMap
PUBLIC	?GetWorldSizeType@CvDllWorldBuilderMapLoader@@UBG?AW4WorldSizeTypes@@XZ ; CvDllWorldBuilderMapLoader::GetWorldSizeType
;	COMDAT ??_R2ICvWorldBuilderMapLoader1@@8
; File c:\users\enormousapplepie\documents\github\lekmod\lekmod_dll\cvgamecoredll_expansion2\cvdllworldbuildermaploader.cpp
rdata$r	SEGMENT
??_R2ICvWorldBuilderMapLoader1@@8 DD FLAT:??_R1A@?0A@EA@ICvWorldBuilderMapLoader1@@8 ; ICvWorldBuilderMapLoader1::`RTTI Base Class Array'
	DD	FLAT:??_R1A@?0A@EA@ICvUnknown@@8
rdata$r	ENDS
;	COMDAT ??_R3ICvWorldBuilderMapLoader1@@8
rdata$r	SEGMENT
??_R3ICvWorldBuilderMapLoader1@@8 DD 00H		; ICvWorldBuilderMapLoader1::`RTTI Class Hierarchy Descriptor'
	DD	00H
	DD	02H
	DD	FLAT:??_R2ICvWorldBuilderMapLoader1@@8
rdata$r	ENDS
;	COMDAT ??_R0?AVICvWorldBuilderMapLoader1@@@8
_DATA	SEGMENT
??_R0?AVICvWorldBuilderMapLoader1@@@8 DD FLAT:??_7type_info@@6B@ ; ICvWorldBuilderMapLoader1 `RTTI Type Descriptor'
	DD	00H
	DB	'.?AVICvWorldBuilderMapLoader1@@', 00H
_DATA	ENDS
;	COMDAT ??_R1A@?0A@EA@ICvWorldBuilderMapLoader1@@8
rdata$r	SEGMENT
??_R1A@?0A@EA@ICvWorldBuilderMapLoader1@@8 DD FLAT:??_R0?AVICvWorldBuilderMapLoader1@@@8 ; ICvWorldBuilderMapLoader1::`RTTI Base Class Descriptor at (0,-1,0,64)'
	DD	01H
	DD	00H
	DD	0ffffffffH
	DD	00H
	DD	040H
	DD	FLAT:??_R3ICvWorldBuilderMapLoader1@@8
rdata$r	ENDS
;	COMDAT ??_R2ICvWorldBuilderMapLoader2@@8
rdata$r	SEGMENT
??_R2ICvWorldBuilderMapLoader2@@8 DD FLAT:??_R1A@?0A@EA@ICvWorldBuilderMapLoader2@@8 ; ICvWorldBuilderMapLoader2::`RTTI Base Class Array'
	DD	FLAT:??_R1A@?0A@EA@ICvWorldBuilderMapLoader1@@8
	DD	FLAT:??_R1A@?0A@EA@ICvUnknown@@8
rdata$r	ENDS
;	COMDAT ??_R3ICvWorldBuilderMapLoader2@@8
rdata$r	SEGMENT
??_R3ICvWorldBuilderMapLoader2@@8 DD 00H		; ICvWorldBuilderMapLoader2::`RTTI Class Hierarchy Descriptor'
	DD	00H
	DD	03H
	DD	FLAT:??_R2ICvWorldBuilderMapLoader2@@8
rdata$r	ENDS
;	COMDAT ??_R0?AVICvWorldBuilderMapLoader2@@@8
_DATA	SEGMENT
??_R0?AVICvWorldBuilderMapLoader2@@@8 DD FLAT:??_7type_info@@6B@ ; ICvWorldBuilderMapLoader2 `RTTI Type Descriptor'
	DD	00H
	DB	'.?AVICvWorldBuilderMapLoader2@@', 00H
_DATA	ENDS
;	COMDAT ??_R1A@?0A@EA@ICvWorldBuilderMapLoader2@@8
rdata$r	SEGMENT
??_R1A@?0A@EA@ICvWorldBuilderMapLoader2@@8 DD FLAT:??_R0?AVICvWorldBuilderMapLoader2@@@8 ; ICvWorldBuilderMapLoader2::`RTTI Base Class Descriptor at (0,-1,0,64)'
	DD	02H
	DD	00H
	DD	0ffffffffH
	DD	00H
	DD	040H
	DD	FLAT:??_R3ICvWorldBuilderMapLoader2@@8
rdata$r	ENDS
;	COMDAT ??_R1A@?0A@EA@CvDllWorldBuilderMapLoader@@8
rdata$r	SEGMENT
??_R1A@?0A@EA@CvDllWorldBuilderMapLoader@@8 DD FLAT:??_R0?AVCvDllWorldBuilderMapLoader@@@8 ; CvDllWorldBuilderMapLoader::`RTTI Base Class Descriptor at (0,-1,0,64)'
	DD	03H
	DD	00H
	DD	0ffffffffH
	DD	00H
	DD	040H
	DD	FLAT:??_R3CvDllWorldBuilderMapLoader@@8
rdata$r	ENDS
;	COMDAT ??_R2CvDllWorldBuilderMapLoader@@8
rdata$r	SEGMENT
??_R2CvDllWorldBuilderMapLoader@@8 DD FLAT:??_R1A@?0A@EA@CvDllWorldBuilderMapLoader@@8 ; CvDllWorldBuilderMapLoader::`RTTI Base Class Array'
	DD	FLAT:??_R1A@?0A@EA@ICvWorldBuilderMapLoader2@@8
	DD	FLAT:??_R1A@?0A@EA@ICvWorldBuilderMapLoader1@@8
	DD	FLAT:??_R1A@?0A@EA@ICvUnknown@@8
rdata$r	ENDS
;	COMDAT ??_R3CvDllWorldBuilderMapLoader@@8
rdata$r	SEGMENT
??_R3CvDllWorldBuilderMapLoader@@8 DD 00H		; CvDllWorldBuilderMapLoader::`RTTI Class Hierarchy Descriptor'
	DD	00H
	DD	04H
	DD	FLAT:??_R2CvDllWorldBuilderMapLoader@@8
rdata$r	ENDS
;	COMDAT ??_R0?AVCvDllWorldBuilderMapLoader@@@8
_DATA	SEGMENT
??_R0?AVCvDllWorldBuilderMapLoader@@@8 DD FLAT:??_7type_info@@6B@ ; CvDllWorldBuilderMapLoader `RTTI Type Descriptor'
	DD	00H
	DB	'.?AVCvDllWorldBuilderMapLoader@@', 00H
_DATA	ENDS
;	COMDAT ??_R4CvDllWorldBuilderMapLoader@@6B@
rdata$r	SEGMENT
??_R4CvDllWorldBuilderMapLoader@@6B@ DD 00H		; CvDllWorldBuilderMapLoader::`RTTI Complete Object Locator'
	DD	00H
	DD	00H
	DD	FLAT:??_R0?AVCvDllWorldBuilderMapLoader@@@8
	DD	FLAT:??_R3CvDllWorldBuilderMapLoader@@8
rdata$r	ENDS
;	COMDAT ??_7CvDllWorldBuilderMapLoader@@6B@
CONST	SEGMENT
??_7CvDllWorldBuilderMapLoader@@6B@ DD FLAT:??_R4CvDllWorldBuilderMapLoader@@6B@ ; CvDllWorldBuilderMapLoader::`vftable'
	DD	FLAT:?QueryInterface@CvDllWorldBuilderMapLoader@@UAGPAXU_GUID@@@Z
	DD	FLAT:?Destroy@CvDllWorldBuilderMapLoader@@EAGXXZ
	DD	FLAT:?GetCurrentMapInfo@CvDllWorldBuilderMapLoader@@UAGABUCvWorldBuilderMapLoaderMapInfo@@XZ
	DD	FLAT:?Preload@CvDllWorldBuilderMapLoader@@UAG_NPB_W_N@Z
	DD	FLAT:?SetupGameOptions@CvDllWorldBuilderMapLoader@@UAGXXZ
	DD	FLAT:?SetupPlayers@CvDllWorldBuilderMapLoader@@UAGXXZ
	DD	FLAT:?SetInitialItems@CvDllWorldBuilderMapLoader@@UAGX_N@Z
	DD	FLAT:?InitMap@CvDllWorldBuilderMapLoader@@UAG_NXZ
	DD	FLAT:?Save@CvDllWorldBuilderMapLoader@@UAG_NPB_WPBD@Z
	DD	FLAT:?LoadModData@CvDllWorldBuilderMapLoader@@UAGHPAUlua_State@@@Z
	DD	FLAT:?ValidateTerrain@CvDllWorldBuilderMapLoader@@UAGXXZ
	DD	FLAT:?ValidateCoast@CvDllWorldBuilderMapLoader@@UAGXXZ
	DD	FLAT:?ClearResources@CvDllWorldBuilderMapLoader@@UAGXXZ
	DD	FLAT:?ClearGoodies@CvDllWorldBuilderMapLoader@@UAGXXZ
	DD	FLAT:?ResetPlayerSlots@CvDllWorldBuilderMapLoader@@UAGXXZ
	DD	FLAT:?MapPlayerToSlot@CvDllWorldBuilderMapLoader@@UAGXIW4PlayerTypes@@@Z
	DD	FLAT:?PreviewPlayableCivCount@CvDllWorldBuilderMapLoader@@UAGIPB_W@Z
	DD	FLAT:?GetMapPreview@CvDllWorldBuilderMapLoader@@UAGHPAUlua_State@@@Z
	DD	FLAT:?GetMapPlayers@CvDllWorldBuilderMapLoader@@UAGHPAUlua_State@@@Z
	DD	FLAT:?AddRandomItems@CvDllWorldBuilderMapLoader@@UAGHPAUlua_State@@@Z
	DD	FLAT:?ScatterResources@CvDllWorldBuilderMapLoader@@UAGHPAUlua_State@@@Z
	DD	FLAT:?ScatterGoodies@CvDllWorldBuilderMapLoader@@UAGHPAUlua_State@@@Z
	DD	FLAT:?GetMapPlayerSlot@CvDllWorldBuilderMapLoader@@UAG?AW4PlayerTypes@@I@Z
	DD	FLAT:?GetMapPlayerCount@CvDllWorldBuilderMapLoader@@UAGHXZ
	DD	FLAT:?GenerateRandomMap@CvDllWorldBuilderMapLoader@@UAGXPBD@Z
	DD	FLAT:?GetWorldSizeType@CvDllWorldBuilderMapLoader@@UBG?AW4WorldSizeTypes@@XZ
; Function compile flags: /Ogtpy
CONST	ENDS
;	COMDAT ??1CvDllWorldBuilderMapLoader@@QAE@XZ
_TEXT	SEGMENT
??1CvDllWorldBuilderMapLoader@@QAE@XZ PROC		; CvDllWorldBuilderMapLoader::~CvDllWorldBuilderMapLoader, COMDAT
; _this$ = ecx

; 21   : {

	mov	DWORD PTR [ecx], OFFSET ??_7CvDllWorldBuilderMapLoader@@6B@

; 22   : }

	ret	0
??1CvDllWorldBuilderMapLoader@@QAE@XZ ENDP		; CvDllWorldBuilderMapLoader::~CvDllWorldBuilderMapLoader
; Function compile flags: /Ogtpy
_TEXT	ENDS
;	COMDAT ?Destroy@CvDllWorldBuilderMapLoader@@EAGXXZ
_TEXT	SEGMENT
_this$ = 8						; size = 4
?Destroy@CvDllWorldBuilderMapLoader@@EAGXXZ PROC	; CvDllWorldBuilderMapLoader::Destroy, COMDAT

; 38   : 	// Do nothing.
; 39   : 	// This is a static class whose instance is managed externally.
; 40   : }

	ret	4
?Destroy@CvDllWorldBuilderMapLoader@@EAGXXZ ENDP	; CvDllWorldBuilderMapLoader::Destroy
_TEXT	ENDS
PUBLIC	??3CvDllWorldBuilderMapLoader@@SAXPAX@Z		; CvDllWorldBuilderMapLoader::operator delete
EXTRN	?Free@CvDllGameContext@@SAXPAX@Z:PROC		; CvDllGameContext::Free
; Function compile flags: /Ogtpy
;	COMDAT ??3CvDllWorldBuilderMapLoader@@SAXPAX@Z
_TEXT	SEGMENT
_p$ = 8							; size = 4
??3CvDllWorldBuilderMapLoader@@SAXPAX@Z PROC		; CvDllWorldBuilderMapLoader::operator delete, COMDAT

; 44   : 	CvDllGameContext::Free(p);

	jmp	?Free@CvDllGameContext@@SAXPAX@Z	; CvDllGameContext::Free
??3CvDllWorldBuilderMapLoader@@SAXPAX@Z ENDP		; CvDllWorldBuilderMapLoader::operator delete
_TEXT	ENDS
PUBLIC	??2CvDllWorldBuilderMapLoader@@SAPAXI@Z		; CvDllWorldBuilderMapLoader::operator new
EXTRN	?Allocate@CvDllGameContext@@SAPAXI@Z:PROC	; CvDllGameContext::Allocate
; Function compile flags: /Ogtpy
;	COMDAT ??2CvDllWorldBuilderMapLoader@@SAPAXI@Z
_TEXT	SEGMENT
_bytes$ = 8						; size = 4
??2CvDllWorldBuilderMapLoader@@SAPAXI@Z PROC		; CvDllWorldBuilderMapLoader::operator new, COMDAT

; 49   : 	return CvDllGameContext::Allocate(bytes);

	jmp	?Allocate@CvDllGameContext@@SAPAXI@Z	; CvDllGameContext::Allocate
??2CvDllWorldBuilderMapLoader@@SAPAXI@Z ENDP		; CvDllWorldBuilderMapLoader::operator new
_TEXT	ENDS
EXTRN	?GetCurrentMapInfo@CvWorldBuilderMapLoader@@SAABUCvWorldBuilderMapLoaderMapInfo@@XZ:PROC ; CvWorldBuilderMapLoader::GetCurrentMapInfo
; Function compile flags: /Ogtpy
;	COMDAT ?GetCurrentMapInfo@CvDllWorldBuilderMapLoader@@UAGABUCvWorldBuilderMapLoaderMapInfo@@XZ
_TEXT	SEGMENT
_this$ = 8						; size = 4
?GetCurrentMapInfo@CvDllWorldBuilderMapLoader@@UAGABUCvWorldBuilderMapLoaderMapInfo@@XZ PROC ; CvDllWorldBuilderMapLoader::GetCurrentMapInfo, COMDAT

; 54   : 	return CvWorldBuilderMapLoader::GetCurrentMapInfo();

	call	?GetCurrentMapInfo@CvWorldBuilderMapLoader@@SAABUCvWorldBuilderMapLoaderMapInfo@@XZ ; CvWorldBuilderMapLoader::GetCurrentMapInfo

; 55   : }

	ret	4
?GetCurrentMapInfo@CvDllWorldBuilderMapLoader@@UAGABUCvWorldBuilderMapLoaderMapInfo@@XZ ENDP ; CvDllWorldBuilderMapLoader::GetCurrentMapInfo
_TEXT	ENDS
EXTRN	?Preload@CvWorldBuilderMapLoader@@SA_NPB_W_N@Z:PROC ; CvWorldBuilderMapLoader::Preload
; Function compile flags: /Ogtpy
;	COMDAT ?Preload@CvDllWorldBuilderMapLoader@@UAG_NPB_W_N@Z
_TEXT	SEGMENT
_this$ = 8						; size = 4
_wszFilename$ = 12					; size = 4
_bScenario$ = 16					; size = 1
?Preload@CvDllWorldBuilderMapLoader@@UAG_NPB_W_N@Z PROC	; CvDllWorldBuilderMapLoader::Preload, COMDAT

; 63   : 	return CvWorldBuilderMapLoader::Preload(wszFilename, bScenario);

	mov	eax, DWORD PTR _bScenario$[esp-4]
	mov	ecx, DWORD PTR _wszFilename$[esp-4]
	push	eax
	push	ecx
	call	?Preload@CvWorldBuilderMapLoader@@SA_NPB_W_N@Z ; CvWorldBuilderMapLoader::Preload
	add	esp, 8

; 64   : }

	ret	12					; 0000000cH
?Preload@CvDllWorldBuilderMapLoader@@UAG_NPB_W_N@Z ENDP	; CvDllWorldBuilderMapLoader::Preload
_TEXT	ENDS
EXTRN	?SetupGameOptions@CvWorldBuilderMapLoader@@SAXXZ:PROC ; CvWorldBuilderMapLoader::SetupGameOptions
; Function compile flags: /Ogtpy
;	COMDAT ?SetupGameOptions@CvDllWorldBuilderMapLoader@@UAGXXZ
_TEXT	SEGMENT
_this$ = 8						; size = 4
?SetupGameOptions@CvDllWorldBuilderMapLoader@@UAGXXZ PROC ; CvDllWorldBuilderMapLoader::SetupGameOptions, COMDAT

; 68   : 	CvWorldBuilderMapLoader::SetupGameOptions();

	call	?SetupGameOptions@CvWorldBuilderMapLoader@@SAXXZ ; CvWorldBuilderMapLoader::SetupGameOptions

; 69   : }

	ret	4
?SetupGameOptions@CvDllWorldBuilderMapLoader@@UAGXXZ ENDP ; CvDllWorldBuilderMapLoader::SetupGameOptions
_TEXT	ENDS
EXTRN	?SetupPlayers@CvWorldBuilderMapLoader@@SAXXZ:PROC ; CvWorldBuilderMapLoader::SetupPlayers
; Function compile flags: /Ogtpy
;	COMDAT ?SetupPlayers@CvDllWorldBuilderMapLoader@@UAGXXZ
_TEXT	SEGMENT
_this$ = 8						; size = 4
?SetupPlayers@CvDllWorldBuilderMapLoader@@UAGXXZ PROC	; CvDllWorldBuilderMapLoader::SetupPlayers, COMDAT

; 73   : 	CvWorldBuilderMapLoader::SetupPlayers();

	call	?SetupPlayers@CvWorldBuilderMapLoader@@SAXXZ ; CvWorldBuilderMapLoader::SetupPlayers

; 74   : }

	ret	4
?SetupPlayers@CvDllWorldBuilderMapLoader@@UAGXXZ ENDP	; CvDllWorldBuilderMapLoader::SetupPlayers
_TEXT	ENDS
EXTRN	?SetInitialItems@CvWorldBuilderMapLoader@@SAX_N@Z:PROC ; CvWorldBuilderMapLoader::SetInitialItems
; Function compile flags: /Ogtpy
;	COMDAT ?SetInitialItems@CvDllWorldBuilderMapLoader@@UAGX_N@Z
_TEXT	SEGMENT
_this$ = 8						; size = 4
_bFirstCall$ = 12					; size = 1
?SetInitialItems@CvDllWorldBuilderMapLoader@@UAGX_N@Z PROC ; CvDllWorldBuilderMapLoader::SetInitialItems, COMDAT

; 78   : 	CvWorldBuilderMapLoader::SetInitialItems(bFirstCall);

	mov	eax, DWORD PTR _bFirstCall$[esp-4]
	push	eax
	call	?SetInitialItems@CvWorldBuilderMapLoader@@SAX_N@Z ; CvWorldBuilderMapLoader::SetInitialItems
	pop	ecx

; 79   : }

	ret	8
?SetInitialItems@CvDllWorldBuilderMapLoader@@UAGX_N@Z ENDP ; CvDllWorldBuilderMapLoader::SetInitialItems
_TEXT	ENDS
EXTRN	?InitMap@CvWorldBuilderMapLoader@@SA_NXZ:PROC	; CvWorldBuilderMapLoader::InitMap
; Function compile flags: /Ogtpy
;	COMDAT ?InitMap@CvDllWorldBuilderMapLoader@@UAG_NXZ
_TEXT	SEGMENT
_this$ = 8						; size = 4
?InitMap@CvDllWorldBuilderMapLoader@@UAG_NXZ PROC	; CvDllWorldBuilderMapLoader::InitMap, COMDAT

; 83   : 	return CvWorldBuilderMapLoader::InitMap();

	call	?InitMap@CvWorldBuilderMapLoader@@SA_NXZ ; CvWorldBuilderMapLoader::InitMap

; 84   : }

	ret	4
?InitMap@CvDllWorldBuilderMapLoader@@UAG_NXZ ENDP	; CvDllWorldBuilderMapLoader::InitMap
_TEXT	ENDS
EXTRN	?Save@CvWorldBuilderMapLoader@@SA_NPB_WPBD@Z:PROC ; CvWorldBuilderMapLoader::Save
; Function compile flags: /Ogtpy
;	COMDAT ?Save@CvDllWorldBuilderMapLoader@@UAG_NPB_WPBD@Z
_TEXT	SEGMENT
_this$ = 8						; size = 4
_wszFilename$ = 12					; size = 4
_szMapName$ = 16					; size = 4
?Save@CvDllWorldBuilderMapLoader@@UAG_NPB_WPBD@Z PROC	; CvDllWorldBuilderMapLoader::Save, COMDAT

; 92   : 	return CvWorldBuilderMapLoader::Save(wszFilename, szMapName);

	mov	eax, DWORD PTR _szMapName$[esp-4]
	mov	ecx, DWORD PTR _wszFilename$[esp-4]
	push	eax
	push	ecx
	call	?Save@CvWorldBuilderMapLoader@@SA_NPB_WPBD@Z ; CvWorldBuilderMapLoader::Save
	add	esp, 8

; 93   : }

	ret	12					; 0000000cH
?Save@CvDllWorldBuilderMapLoader@@UAG_NPB_WPBD@Z ENDP	; CvDllWorldBuilderMapLoader::Save
_TEXT	ENDS
EXTRN	?LoadModData@CvWorldBuilderMapLoader@@SAHPAUlua_State@@@Z:PROC ; CvWorldBuilderMapLoader::LoadModData
; Function compile flags: /Ogtpy
;	COMDAT ?LoadModData@CvDllWorldBuilderMapLoader@@UAGHPAUlua_State@@@Z
_TEXT	SEGMENT
_this$ = 8						; size = 4
_L$ = 12						; size = 4
?LoadModData@CvDllWorldBuilderMapLoader@@UAGHPAUlua_State@@@Z PROC ; CvDllWorldBuilderMapLoader::LoadModData, COMDAT

; 97   : 	return CvWorldBuilderMapLoader::LoadModData(L);

	mov	eax, DWORD PTR _L$[esp-4]
	push	eax
	call	?LoadModData@CvWorldBuilderMapLoader@@SAHPAUlua_State@@@Z ; CvWorldBuilderMapLoader::LoadModData
	add	esp, 4

; 98   : }

	ret	8
?LoadModData@CvDllWorldBuilderMapLoader@@UAGHPAUlua_State@@@Z ENDP ; CvDllWorldBuilderMapLoader::LoadModData
_TEXT	ENDS
EXTRN	?ValidateTerrain@CvWorldBuilderMapLoader@@SAXXZ:PROC ; CvWorldBuilderMapLoader::ValidateTerrain
; Function compile flags: /Ogtpy
;	COMDAT ?ValidateTerrain@CvDllWorldBuilderMapLoader@@UAGXXZ
_TEXT	SEGMENT
_this$ = 8						; size = 4
?ValidateTerrain@CvDllWorldBuilderMapLoader@@UAGXXZ PROC ; CvDllWorldBuilderMapLoader::ValidateTerrain, COMDAT

; 102  : 	CvWorldBuilderMapLoader::ValidateTerrain();

	call	?ValidateTerrain@CvWorldBuilderMapLoader@@SAXXZ ; CvWorldBuilderMapLoader::ValidateTerrain

; 103  : }

	ret	4
?ValidateTerrain@CvDllWorldBuilderMapLoader@@UAGXXZ ENDP ; CvDllWorldBuilderMapLoader::ValidateTerrain
_TEXT	ENDS
EXTRN	?ValidateCoast@CvWorldBuilderMapLoader@@SAXXZ:PROC ; CvWorldBuilderMapLoader::ValidateCoast
; Function compile flags: /Ogtpy
;	COMDAT ?ValidateCoast@CvDllWorldBuilderMapLoader@@UAGXXZ
_TEXT	SEGMENT
_this$ = 8						; size = 4
?ValidateCoast@CvDllWorldBuilderMapLoader@@UAGXXZ PROC	; CvDllWorldBuilderMapLoader::ValidateCoast, COMDAT

; 107  : 	CvWorldBuilderMapLoader::ValidateCoast();

	call	?ValidateCoast@CvWorldBuilderMapLoader@@SAXXZ ; CvWorldBuilderMapLoader::ValidateCoast

; 108  : }

	ret	4
?ValidateCoast@CvDllWorldBuilderMapLoader@@UAGXXZ ENDP	; CvDllWorldBuilderMapLoader::ValidateCoast
_TEXT	ENDS
EXTRN	?ClearResources@CvWorldBuilderMapLoader@@SAXXZ:PROC ; CvWorldBuilderMapLoader::ClearResources
; Function compile flags: /Ogtpy
;	COMDAT ?ClearResources@CvDllWorldBuilderMapLoader@@UAGXXZ
_TEXT	SEGMENT
_this$ = 8						; size = 4
?ClearResources@CvDllWorldBuilderMapLoader@@UAGXXZ PROC	; CvDllWorldBuilderMapLoader::ClearResources, COMDAT

; 112  : 	CvWorldBuilderMapLoader::ClearResources();

	call	?ClearResources@CvWorldBuilderMapLoader@@SAXXZ ; CvWorldBuilderMapLoader::ClearResources

; 113  : }

	ret	4
?ClearResources@CvDllWorldBuilderMapLoader@@UAGXXZ ENDP	; CvDllWorldBuilderMapLoader::ClearResources
_TEXT	ENDS
EXTRN	?ClearGoodies@CvWorldBuilderMapLoader@@SAXXZ:PROC ; CvWorldBuilderMapLoader::ClearGoodies
; Function compile flags: /Ogtpy
;	COMDAT ?ClearGoodies@CvDllWorldBuilderMapLoader@@UAGXXZ
_TEXT	SEGMENT
_this$ = 8						; size = 4
?ClearGoodies@CvDllWorldBuilderMapLoader@@UAGXXZ PROC	; CvDllWorldBuilderMapLoader::ClearGoodies, COMDAT

; 117  : 	CvWorldBuilderMapLoader::ClearGoodies();

	call	?ClearGoodies@CvWorldBuilderMapLoader@@SAXXZ ; CvWorldBuilderMapLoader::ClearGoodies

; 118  : }

	ret	4
?ClearGoodies@CvDllWorldBuilderMapLoader@@UAGXXZ ENDP	; CvDllWorldBuilderMapLoader::ClearGoodies
_TEXT	ENDS
EXTRN	?ResetPlayerSlots@CvWorldBuilderMapLoader@@SAXXZ:PROC ; CvWorldBuilderMapLoader::ResetPlayerSlots
; Function compile flags: /Ogtpy
;	COMDAT ?ResetPlayerSlots@CvDllWorldBuilderMapLoader@@UAGXXZ
_TEXT	SEGMENT
_this$ = 8						; size = 4
?ResetPlayerSlots@CvDllWorldBuilderMapLoader@@UAGXXZ PROC ; CvDllWorldBuilderMapLoader::ResetPlayerSlots, COMDAT

; 122  : 	CvWorldBuilderMapLoader::ResetPlayerSlots();

	call	?ResetPlayerSlots@CvWorldBuilderMapLoader@@SAXXZ ; CvWorldBuilderMapLoader::ResetPlayerSlots

; 123  : }

	ret	4
?ResetPlayerSlots@CvDllWorldBuilderMapLoader@@UAGXXZ ENDP ; CvDllWorldBuilderMapLoader::ResetPlayerSlots
_TEXT	ENDS
EXTRN	?MapPlayerToSlot@CvWorldBuilderMapLoader@@SAXIW4PlayerTypes@@@Z:PROC ; CvWorldBuilderMapLoader::MapPlayerToSlot
; Function compile flags: /Ogtpy
;	COMDAT ?MapPlayerToSlot@CvDllWorldBuilderMapLoader@@UAGXIW4PlayerTypes@@@Z
_TEXT	SEGMENT
_this$ = 8						; size = 4
_uiPlayer$ = 12						; size = 4
_ePlayerSlot$ = 16					; size = 4
?MapPlayerToSlot@CvDllWorldBuilderMapLoader@@UAGXIW4PlayerTypes@@@Z PROC ; CvDllWorldBuilderMapLoader::MapPlayerToSlot, COMDAT

; 127  : 	CvWorldBuilderMapLoader::MapPlayerToSlot(uiPlayer, ePlayerSlot);

	mov	eax, DWORD PTR _ePlayerSlot$[esp-4]
	mov	ecx, DWORD PTR _uiPlayer$[esp-4]
	push	eax
	push	ecx
	call	?MapPlayerToSlot@CvWorldBuilderMapLoader@@SAXIW4PlayerTypes@@@Z ; CvWorldBuilderMapLoader::MapPlayerToSlot
	add	esp, 8

; 128  : }

	ret	12					; 0000000cH
?MapPlayerToSlot@CvDllWorldBuilderMapLoader@@UAGXIW4PlayerTypes@@@Z ENDP ; CvDllWorldBuilderMapLoader::MapPlayerToSlot
_TEXT	ENDS
EXTRN	?PreviewPlayableCivCount@CvWorldBuilderMapLoader@@SAIPB_W@Z:PROC ; CvWorldBuilderMapLoader::PreviewPlayableCivCount
; Function compile flags: /Ogtpy
;	COMDAT ?PreviewPlayableCivCount@CvDllWorldBuilderMapLoader@@UAGIPB_W@Z
_TEXT	SEGMENT
_this$ = 8						; size = 4
_wszFilename$ = 12					; size = 4
?PreviewPlayableCivCount@CvDllWorldBuilderMapLoader@@UAGIPB_W@Z PROC ; CvDllWorldBuilderMapLoader::PreviewPlayableCivCount, COMDAT

; 136  : 	return CvWorldBuilderMapLoader::PreviewPlayableCivCount(wszFilename);

	mov	eax, DWORD PTR _wszFilename$[esp-4]
	push	eax
	call	?PreviewPlayableCivCount@CvWorldBuilderMapLoader@@SAIPB_W@Z ; CvWorldBuilderMapLoader::PreviewPlayableCivCount
	add	esp, 4

; 137  : }

	ret	8
?PreviewPlayableCivCount@CvDllWorldBuilderMapLoader@@UAGIPB_W@Z ENDP ; CvDllWorldBuilderMapLoader::PreviewPlayableCivCount
_TEXT	ENDS
EXTRN	?GetMapPreview@CvWorldBuilderMapLoader@@SAHPAUlua_State@@@Z:PROC ; CvWorldBuilderMapLoader::GetMapPreview
; Function compile flags: /Ogtpy
;	COMDAT ?GetMapPreview@CvDllWorldBuilderMapLoader@@UAGHPAUlua_State@@@Z
_TEXT	SEGMENT
_this$ = 8						; size = 4
_L$ = 12						; size = 4
?GetMapPreview@CvDllWorldBuilderMapLoader@@UAGHPAUlua_State@@@Z PROC ; CvDllWorldBuilderMapLoader::GetMapPreview, COMDAT

; 141  : 	return CvWorldBuilderMapLoader::GetMapPreview(L);

	mov	eax, DWORD PTR _L$[esp-4]
	push	eax
	call	?GetMapPreview@CvWorldBuilderMapLoader@@SAHPAUlua_State@@@Z ; CvWorldBuilderMapLoader::GetMapPreview
	add	esp, 4

; 142  : }

	ret	8
?GetMapPreview@CvDllWorldBuilderMapLoader@@UAGHPAUlua_State@@@Z ENDP ; CvDllWorldBuilderMapLoader::GetMapPreview
_TEXT	ENDS
EXTRN	?GetMapPlayers@CvWorldBuilderMapLoader@@SAHPAUlua_State@@@Z:PROC ; CvWorldBuilderMapLoader::GetMapPlayers
; Function compile flags: /Ogtpy
;	COMDAT ?GetMapPlayers@CvDllWorldBuilderMapLoader@@UAGHPAUlua_State@@@Z
_TEXT	SEGMENT
_this$ = 8						; size = 4
_L$ = 12						; size = 4
?GetMapPlayers@CvDllWorldBuilderMapLoader@@UAGHPAUlua_State@@@Z PROC ; CvDllWorldBuilderMapLoader::GetMapPlayers, COMDAT

; 146  : 	return CvWorldBuilderMapLoader::GetMapPlayers(L);

	mov	eax, DWORD PTR _L$[esp-4]
	push	eax
	call	?GetMapPlayers@CvWorldBuilderMapLoader@@SAHPAUlua_State@@@Z ; CvWorldBuilderMapLoader::GetMapPlayers
	add	esp, 4

; 147  : }

	ret	8
?GetMapPlayers@CvDllWorldBuilderMapLoader@@UAGHPAUlua_State@@@Z ENDP ; CvDllWorldBuilderMapLoader::GetMapPlayers
_TEXT	ENDS
EXTRN	?AddRandomItems@CvWorldBuilderMapLoader@@SAHPAUlua_State@@@Z:PROC ; CvWorldBuilderMapLoader::AddRandomItems
; Function compile flags: /Ogtpy
;	COMDAT ?AddRandomItems@CvDllWorldBuilderMapLoader@@UAGHPAUlua_State@@@Z
_TEXT	SEGMENT
_this$ = 8						; size = 4
_L$ = 12						; size = 4
?AddRandomItems@CvDllWorldBuilderMapLoader@@UAGHPAUlua_State@@@Z PROC ; CvDllWorldBuilderMapLoader::AddRandomItems, COMDAT

; 151  : 	return CvWorldBuilderMapLoader::AddRandomItems(L);

	mov	eax, DWORD PTR _L$[esp-4]
	push	eax
	call	?AddRandomItems@CvWorldBuilderMapLoader@@SAHPAUlua_State@@@Z ; CvWorldBuilderMapLoader::AddRandomItems
	add	esp, 4

; 152  : }

	ret	8
?AddRandomItems@CvDllWorldBuilderMapLoader@@UAGHPAUlua_State@@@Z ENDP ; CvDllWorldBuilderMapLoader::AddRandomItems
_TEXT	ENDS
EXTRN	?ScatterResources@CvWorldBuilderMapLoader@@SAHPAUlua_State@@@Z:PROC ; CvWorldBuilderMapLoader::ScatterResources
; Function compile flags: /Ogtpy
;	COMDAT ?ScatterResources@CvDllWorldBuilderMapLoader@@UAGHPAUlua_State@@@Z
_TEXT	SEGMENT
_this$ = 8						; size = 4
_L$ = 12						; size = 4
?ScatterResources@CvDllWorldBuilderMapLoader@@UAGHPAUlua_State@@@Z PROC ; CvDllWorldBuilderMapLoader::ScatterResources, COMDAT

; 156  : 	return CvWorldBuilderMapLoader::ScatterResources(L);

	mov	eax, DWORD PTR _L$[esp-4]
	push	eax
	call	?ScatterResources@CvWorldBuilderMapLoader@@SAHPAUlua_State@@@Z ; CvWorldBuilderMapLoader::ScatterResources
	add	esp, 4

; 157  : }

	ret	8
?ScatterResources@CvDllWorldBuilderMapLoader@@UAGHPAUlua_State@@@Z ENDP ; CvDllWorldBuilderMapLoader::ScatterResources
_TEXT	ENDS
EXTRN	?ScatterGoodies@CvWorldBuilderMapLoader@@SAHPAUlua_State@@@Z:PROC ; CvWorldBuilderMapLoader::ScatterGoodies
; Function compile flags: /Ogtpy
;	COMDAT ?ScatterGoodies@CvDllWorldBuilderMapLoader@@UAGHPAUlua_State@@@Z
_TEXT	SEGMENT
_this$ = 8						; size = 4
_L$ = 12						; size = 4
?ScatterGoodies@CvDllWorldBuilderMapLoader@@UAGHPAUlua_State@@@Z PROC ; CvDllWorldBuilderMapLoader::ScatterGoodies, COMDAT

; 161  : 	return CvWorldBuilderMapLoader::ScatterGoodies(L);

	mov	eax, DWORD PTR _L$[esp-4]
	push	eax
	call	?ScatterGoodies@CvWorldBuilderMapLoader@@SAHPAUlua_State@@@Z ; CvWorldBuilderMapLoader::ScatterGoodies
	add	esp, 4

; 162  : }

	ret	8
?ScatterGoodies@CvDllWorldBuilderMapLoader@@UAGHPAUlua_State@@@Z ENDP ; CvDllWorldBuilderMapLoader::ScatterGoodies
_TEXT	ENDS
EXTRN	?GetMapPlayerSlot@CvWorldBuilderMapLoader@@SA?AW4PlayerTypes@@I@Z:PROC ; CvWorldBuilderMapLoader::GetMapPlayerSlot
; Function compile flags: /Ogtpy
;	COMDAT ?GetMapPlayerSlot@CvDllWorldBuilderMapLoader@@UAG?AW4PlayerTypes@@I@Z
_TEXT	SEGMENT
_this$ = 8						; size = 4
_uiPlayer$ = 12						; size = 4
?GetMapPlayerSlot@CvDllWorldBuilderMapLoader@@UAG?AW4PlayerTypes@@I@Z PROC ; CvDllWorldBuilderMapLoader::GetMapPlayerSlot, COMDAT

; 166  : 	return CvWorldBuilderMapLoader::GetMapPlayerSlot(uiPlayer);

	mov	eax, DWORD PTR _uiPlayer$[esp-4]
	push	eax
	call	?GetMapPlayerSlot@CvWorldBuilderMapLoader@@SA?AW4PlayerTypes@@I@Z ; CvWorldBuilderMapLoader::GetMapPlayerSlot
	add	esp, 4

; 167  : }

	ret	8
?GetMapPlayerSlot@CvDllWorldBuilderMapLoader@@UAG?AW4PlayerTypes@@I@Z ENDP ; CvDllWorldBuilderMapLoader::GetMapPlayerSlot
_TEXT	ENDS
EXTRN	?GetMapPlayerCount@CvWorldBuilderMapLoader@@SAHXZ:PROC ; CvWorldBuilderMapLoader::GetMapPlayerCount
; Function compile flags: /Ogtpy
;	COMDAT ?GetMapPlayerCount@CvDllWorldBuilderMapLoader@@UAGHXZ
_TEXT	SEGMENT
_this$ = 8						; size = 4
?GetMapPlayerCount@CvDllWorldBuilderMapLoader@@UAGHXZ PROC ; CvDllWorldBuilderMapLoader::GetMapPlayerCount, COMDAT

; 171  : 	return CvWorldBuilderMapLoader::GetMapPlayerCount();

	call	?GetMapPlayerCount@CvWorldBuilderMapLoader@@SAHXZ ; CvWorldBuilderMapLoader::GetMapPlayerCount

; 172  : }

	ret	4
?GetMapPlayerCount@CvDllWorldBuilderMapLoader@@UAGHXZ ENDP ; CvDllWorldBuilderMapLoader::GetMapPlayerCount
_TEXT	ENDS
EXTRN	??1CvMapGenerator@@UAE@XZ:PROC			; CvMapGenerator::~CvMapGenerator
EXTRN	?GenerateRandomMap@CvMapGenerator@@QAEXXZ:PROC	; CvMapGenerator::GenerateRandomMap
EXTRN	??0CvMapGenerator@@QAE@PBD@Z:PROC		; CvMapGenerator::CvMapGenerator
EXTRN	___CxxFrameHandler3:PROC
;	COMDAT xdata$x
xdata$x	SEGMENT
__unwindtable$?GenerateRandomMap@CvDllWorldBuilderMapLoader@@UAGXPBD@Z DD 0ffffffffH
	DD	FLAT:__unwindfunclet$?GenerateRandomMap@CvDllWorldBuilderMapLoader@@UAGXPBD@Z$0
__ehfuncinfo$?GenerateRandomMap@CvDllWorldBuilderMapLoader@@UAGXPBD@Z DD 019930522H
	DD	01H
	DD	FLAT:__unwindtable$?GenerateRandomMap@CvDllWorldBuilderMapLoader@@UAGXPBD@Z
	DD	2 DUP(00H)
	DD	2 DUP(00H)
	DD	00H
	DD	01H
; Function compile flags: /Ogtpy
xdata$x	ENDS
;	COMDAT ?GenerateRandomMap@CvDllWorldBuilderMapLoader@@UAGXPBD@Z
_TEXT	SEGMENT
_kGenerator$ = -20					; size = 8
__$EHRec$ = -12						; size = 12
_this$ = 8						; size = 4
_szMapScript$ = 12					; size = 4
?GenerateRandomMap@CvDllWorldBuilderMapLoader@@UAGXPBD@Z PROC ; CvDllWorldBuilderMapLoader::GenerateRandomMap, COMDAT

; 175  : {

	push	-1
	push	__ehhandler$?GenerateRandomMap@CvDllWorldBuilderMapLoader@@UAGXPBD@Z
	mov	eax, DWORD PTR fs:0
	push	eax
	mov	DWORD PTR fs:0, esp
	sub	esp, 8

; 176  : 	CvMapGenerator kGenerator(szMapScript);

	mov	eax, DWORD PTR _szMapScript$[esp+16]
	push	eax
	lea	ecx, DWORD PTR _kGenerator$[esp+24]
	call	??0CvMapGenerator@@QAE@PBD@Z		; CvMapGenerator::CvMapGenerator

; 177  : 	kGenerator.GenerateRandomMap();

	lea	ecx, DWORD PTR _kGenerator$[esp+20]
	mov	DWORD PTR __$EHRec$[esp+28], 0
	call	?GenerateRandomMap@CvMapGenerator@@QAEXXZ ; CvMapGenerator::GenerateRandomMap

; 178  : }

	lea	ecx, DWORD PTR _kGenerator$[esp+20]
	mov	DWORD PTR __$EHRec$[esp+28], -1
	call	??1CvMapGenerator@@UAE@XZ		; CvMapGenerator::~CvMapGenerator
	mov	ecx, DWORD PTR __$EHRec$[esp+20]
	mov	DWORD PTR fs:0, ecx
	add	esp, 20					; 00000014H
	ret	8
_TEXT	ENDS
;	COMDAT text$x
text$x	SEGMENT
__unwindfunclet$?GenerateRandomMap@CvDllWorldBuilderMapLoader@@UAGXPBD@Z$0:
	lea	ecx, DWORD PTR _kGenerator$[ebp]
	jmp	??1CvMapGenerator@@UAE@XZ		; CvMapGenerator::~CvMapGenerator
__ehhandler$?GenerateRandomMap@CvDllWorldBuilderMapLoader@@UAGXPBD@Z:
	mov	eax, OFFSET __ehfuncinfo$?GenerateRandomMap@CvDllWorldBuilderMapLoader@@UAGXPBD@Z
	jmp	___CxxFrameHandler3
text$x	ENDS
?GenerateRandomMap@CvDllWorldBuilderMapLoader@@UAGXPBD@Z ENDP ; CvDllWorldBuilderMapLoader::GenerateRandomMap
EXTRN	?GetCurrentWorldSizeType@CvWorldBuilderMapLoader@@SA?AW4WorldSizeTypes@@XZ:PROC ; CvWorldBuilderMapLoader::GetCurrentWorldSizeType
; Function compile flags: /Ogtpy
;	COMDAT ?GetWorldSizeType@CvDllWorldBuilderMapLoader@@UBG?AW4WorldSizeTypes@@XZ
_TEXT	SEGMENT
_this$ = 8						; size = 4
?GetWorldSizeType@CvDllWorldBuilderMapLoader@@UBG?AW4WorldSizeTypes@@XZ PROC ; CvDllWorldBuilderMapLoader::GetWorldSizeType, COMDAT

; 182  : 	return CvWorldBuilderMapLoader::GetCurrentWorldSizeType();

	call	?GetCurrentWorldSizeType@CvWorldBuilderMapLoader@@SA?AW4WorldSizeTypes@@XZ ; CvWorldBuilderMapLoader::GetCurrentWorldSizeType

; 183  : }

	ret	4
?GetWorldSizeType@CvDllWorldBuilderMapLoader@@UBG?AW4WorldSizeTypes@@XZ ENDP ; CvDllWorldBuilderMapLoader::GetWorldSizeType
_TEXT	ENDS
PUBLIC	_IsEqualGUID
; Function compile flags: /Ogtpy
; File c:\program files\microsoft sdks\windows\v6.0a\include\guiddef.h
;	COMDAT _IsEqualGUID
_TEXT	SEGMENT
_rguid1$ = 8						; size = 4
_rguid2$ = 12						; size = 4
_IsEqualGUID PROC					; COMDAT

; 161  :     return !memcmp(&rguid1, &rguid2, sizeof(GUID));

	mov	ecx, DWORD PTR _rguid2$[esp-4]
	mov	edx, DWORD PTR _rguid1$[esp-4]
	mov	eax, 16					; 00000010H
	push	esi
	npad	2
$LL4@IsEqualGUI:
	mov	esi, DWORD PTR [edx]
	cmp	esi, DWORD PTR [ecx]
	jne	SHORT $LN5@IsEqualGUI
	sub	eax, 4
	add	ecx, 4
	add	edx, 4
	cmp	eax, 4
	jae	SHORT $LL4@IsEqualGUI
	xor	eax, eax
	xor	edx, edx
	test	eax, eax
	sete	dl
	pop	esi
	mov	eax, edx

; 162  : }

	ret	0
$LN5@IsEqualGUI:

; 161  :     return !memcmp(&rguid1, &rguid2, sizeof(GUID));

	movzx	eax, BYTE PTR [edx]
	movzx	esi, BYTE PTR [ecx]
	sub	eax, esi
	jne	SHORT $LN7@IsEqualGUI
	movzx	eax, BYTE PTR [edx+1]
	movzx	esi, BYTE PTR [ecx+1]
	sub	eax, esi
	jne	SHORT $LN7@IsEqualGUI
	movzx	eax, BYTE PTR [edx+2]
	movzx	esi, BYTE PTR [ecx+2]
	sub	eax, esi
	jne	SHORT $LN7@IsEqualGUI
	movzx	eax, BYTE PTR [edx+3]
	movzx	ecx, BYTE PTR [ecx+3]
	sub	eax, ecx
$LN7@IsEqualGUI:
	sar	eax, 31					; 0000001fH
	or	eax, 1
	xor	edx, edx
	test	eax, eax
	sete	dl
	pop	esi
	mov	eax, edx

; 162  : }

	ret	0
_IsEqualGUID ENDP
_TEXT	ENDS
PUBLIC	_==
; Function compile flags: /Ogtpy
;	COMDAT _==
_TEXT	SEGMENT
_guidOne$ = 8						; size = 4
_guidOther$ = 12					; size = 4
_==	PROC						; COMDAT

; 194  :     return IsEqualGUID(guidOne,guidOther);

	jmp	_IsEqualGUID
_==	ENDP
_TEXT	ENDS
PUBLIC	?GetInterfaceId@ICvUnknown@@SG?AU_GUID@@XZ	; ICvUnknown::GetInterfaceId
; Function compile flags: /Ogtpy
; File c:\users\enormousapplepie\documents\github\lekmod\lekmod_dll\cvgamecoredllutil\include\cvdllinterfaces.h
;	COMDAT ?GetInterfaceId@ICvUnknown@@SG?AU_GUID@@XZ
_TEXT	SEGMENT
$T218755 = 8						; size = 4
?GetInterfaceId@ICvUnknown@@SG?AU_GUID@@XZ PROC		; ICvUnknown::GetInterfaceId, COMDAT

; 306  : 	static GUID DLLCALL GetInterfaceId(){ return guidICvUnknown; }

	mov	eax, DWORD PTR $T218755[esp-4]
	mov	ecx, DWORD PTR _guidICvUnknown
	mov	edx, DWORD PTR _guidICvUnknown+4
	mov	DWORD PTR [eax], ecx
	mov	ecx, DWORD PTR _guidICvUnknown+8
	mov	DWORD PTR [eax+4], edx
	mov	edx, DWORD PTR _guidICvUnknown+12
	mov	DWORD PTR [eax+8], ecx
	mov	DWORD PTR [eax+12], edx
	ret	4
?GetInterfaceId@ICvUnknown@@SG?AU_GUID@@XZ ENDP		; ICvUnknown::GetInterfaceId
_TEXT	ENDS
PUBLIC	?GetInterfaceId@ICvWorldBuilderMapLoader1@@SG?AU_GUID@@XZ ; ICvWorldBuilderMapLoader1::GetInterfaceId
; Function compile flags: /Ogtpy
;	COMDAT ?GetInterfaceId@ICvWorldBuilderMapLoader1@@SG?AU_GUID@@XZ
_TEXT	SEGMENT
$T218759 = 8						; size = 4
?GetInterfaceId@ICvWorldBuilderMapLoader1@@SG?AU_GUID@@XZ PROC ; ICvWorldBuilderMapLoader1::GetInterfaceId, COMDAT

; 1804 : 	static GUID DLLCALL GetInterfaceId() { return guidICvWorldBuilderMapLoader1; }

	mov	eax, DWORD PTR $T218759[esp-4]
	mov	ecx, DWORD PTR _guidICvWorldBuilderMapLoader1
	mov	edx, DWORD PTR _guidICvWorldBuilderMapLoader1+4
	mov	DWORD PTR [eax], ecx
	mov	ecx, DWORD PTR _guidICvWorldBuilderMapLoader1+8
	mov	DWORD PTR [eax+4], edx
	mov	edx, DWORD PTR _guidICvWorldBuilderMapLoader1+12
	mov	DWORD PTR [eax+8], ecx
	mov	DWORD PTR [eax+12], edx
	ret	4
?GetInterfaceId@ICvWorldBuilderMapLoader1@@SG?AU_GUID@@XZ ENDP ; ICvWorldBuilderMapLoader1::GetInterfaceId
_TEXT	ENDS
PUBLIC	?GetInterfaceId@ICvWorldBuilderMapLoader2@@SG?AU_GUID@@XZ ; ICvWorldBuilderMapLoader2::GetInterfaceId
; Function compile flags: /Ogtpy
; File c:\users\enormousapplepie\documents\github\lekmod\lekmod_dll\cvgamecoredllutil\include\cvdllinterfaces2.h
;	COMDAT ?GetInterfaceId@ICvWorldBuilderMapLoader2@@SG?AU_GUID@@XZ
_TEXT	SEGMENT
$T218763 = 8						; size = 4
?GetInterfaceId@ICvWorldBuilderMapLoader2@@SG?AU_GUID@@XZ PROC ; ICvWorldBuilderMapLoader2::GetInterfaceId, COMDAT

; 178  : 	static GUID DLLCALL GetInterfaceId() {return guidICvWorldBuilderMapLoader2; }

	mov	eax, DWORD PTR $T218763[esp-4]
	mov	ecx, DWORD PTR _guidICvWorldBuilderMapLoader2
	mov	edx, DWORD PTR _guidICvWorldBuilderMapLoader2+4
	mov	DWORD PTR [eax], ecx
	mov	ecx, DWORD PTR _guidICvWorldBuilderMapLoader2+8
	mov	DWORD PTR [eax+4], edx
	mov	edx, DWORD PTR _guidICvWorldBuilderMapLoader2+12
	mov	DWORD PTR [eax+8], ecx
	mov	DWORD PTR [eax+12], edx
	ret	4
?GetInterfaceId@ICvWorldBuilderMapLoader2@@SG?AU_GUID@@XZ ENDP ; ICvWorldBuilderMapLoader2::GetInterfaceId
_TEXT	ENDS
PUBLIC	??_7ICvWorldBuilderMapLoader1@@6B@		; ICvWorldBuilderMapLoader1::`vftable'
PUBLIC	??0ICvWorldBuilderMapLoader1@@QAE@XZ		; ICvWorldBuilderMapLoader1::ICvWorldBuilderMapLoader1
PUBLIC	??_R4ICvWorldBuilderMapLoader1@@6B@		; ICvWorldBuilderMapLoader1::`RTTI Complete Object Locator'
;	COMDAT ??_R4ICvWorldBuilderMapLoader1@@6B@
rdata$r	SEGMENT
??_R4ICvWorldBuilderMapLoader1@@6B@ DD 00H		; ICvWorldBuilderMapLoader1::`RTTI Complete Object Locator'
	DD	00H
	DD	00H
	DD	FLAT:??_R0?AVICvWorldBuilderMapLoader1@@@8
	DD	FLAT:??_R3ICvWorldBuilderMapLoader1@@8
rdata$r	ENDS
;	COMDAT ??_7ICvWorldBuilderMapLoader1@@6B@
CONST	SEGMENT
??_7ICvWorldBuilderMapLoader1@@6B@ DD FLAT:??_R4ICvWorldBuilderMapLoader1@@6B@ ; ICvWorldBuilderMapLoader1::`vftable'
	DD	FLAT:__purecall
	DD	FLAT:__purecall
	DD	FLAT:__purecall
	DD	FLAT:__purecall
	DD	FLAT:__purecall
	DD	FLAT:__purecall
	DD	FLAT:__purecall
	DD	FLAT:__purecall
	DD	FLAT:__purecall
	DD	FLAT:__purecall
	DD	FLAT:__purecall
	DD	FLAT:__purecall
	DD	FLAT:__purecall
	DD	FLAT:__purecall
	DD	FLAT:__purecall
	DD	FLAT:__purecall
	DD	FLAT:__purecall
	DD	FLAT:__purecall
	DD	FLAT:__purecall
	DD	FLAT:__purecall
	DD	FLAT:__purecall
	DD	FLAT:__purecall
	DD	FLAT:__purecall
	DD	FLAT:__purecall
	DD	FLAT:__purecall
; Function compile flags: /Ogtpy
CONST	ENDS
;	COMDAT ??0ICvWorldBuilderMapLoader1@@QAE@XZ
_TEXT	SEGMENT
??0ICvWorldBuilderMapLoader1@@QAE@XZ PROC		; ICvWorldBuilderMapLoader1::ICvWorldBuilderMapLoader1, COMDAT
; _this$ = ecx
	mov	eax, ecx
	mov	DWORD PTR [eax], OFFSET ??_7ICvWorldBuilderMapLoader1@@6B@
	ret	0
??0ICvWorldBuilderMapLoader1@@QAE@XZ ENDP		; ICvWorldBuilderMapLoader1::ICvWorldBuilderMapLoader1
; Function compile flags: /Ogtpy
; File c:\users\enormousapplepie\documents\github\lekmod\lekmod_dll\cvgamecoredll_expansion2\cvdllworldbuildermaploader.cpp
_TEXT	ENDS
;	COMDAT ?QueryInterface@CvDllWorldBuilderMapLoader@@UAGPAXU_GUID@@@Z
_TEXT	SEGMENT
$T218777 = -16						; size = 16
$T218775 = -16						; size = 16
$T218773 = -16						; size = 16
_this$ = 8						; size = 4
_guidInterface$ = 12					; size = 16
?QueryInterface@CvDllWorldBuilderMapLoader@@UAGPAXU_GUID@@@Z PROC ; CvDllWorldBuilderMapLoader::QueryInterface, COMDAT

; 25   : {

	sub	esp, 16					; 00000010H

; 26   : 	if(	guidInterface == ICvUnknown::GetInterfaceId() ||
; 27   : 	    guidInterface == ICvWorldBuilderMapLoader1::GetInterfaceId() || 
; 28   : 		guidInterface == ICvWorldBuilderMapLoader2::GetInterfaceId())

	mov	ecx, DWORD PTR _guidICvUnknown+4
	mov	edx, DWORD PTR _guidICvUnknown+8
	mov	eax, DWORD PTR _guidICvUnknown
	mov	DWORD PTR $T218773[esp+20], ecx
	lea	ecx, DWORD PTR $T218773[esp+16]
	mov	DWORD PTR $T218773[esp+24], edx
	mov	DWORD PTR $T218773[esp+16], eax
	mov	eax, DWORD PTR _guidICvUnknown+12
	push	ecx
	lea	edx, DWORD PTR _guidInterface$[esp+16]
	push	edx
	mov	DWORD PTR $T218773[esp+36], eax
	call	_IsEqualGUID
	add	esp, 8
	test	eax, eax
	jne	SHORT $LN1@QueryInter
	mov	ecx, DWORD PTR _guidICvWorldBuilderMapLoader1+4
	mov	edx, DWORD PTR _guidICvWorldBuilderMapLoader1+8
	mov	eax, DWORD PTR _guidICvWorldBuilderMapLoader1
	mov	DWORD PTR $T218775[esp+20], ecx
	lea	ecx, DWORD PTR $T218775[esp+16]
	mov	DWORD PTR $T218775[esp+24], edx
	mov	DWORD PTR $T218775[esp+16], eax
	mov	eax, DWORD PTR _guidICvWorldBuilderMapLoader1+12
	push	ecx
	lea	edx, DWORD PTR _guidInterface$[esp+16]
	push	edx
	mov	DWORD PTR $T218775[esp+36], eax
	call	_IsEqualGUID
	add	esp, 8
	test	eax, eax
	jne	SHORT $LN1@QueryInter
	mov	ecx, DWORD PTR _guidICvWorldBuilderMapLoader2+4
	mov	edx, DWORD PTR _guidICvWorldBuilderMapLoader2+8
	mov	eax, DWORD PTR _guidICvWorldBuilderMapLoader2
	mov	DWORD PTR $T218777[esp+20], ecx
	lea	ecx, DWORD PTR $T218777[esp+16]
	mov	DWORD PTR $T218777[esp+24], edx
	mov	DWORD PTR $T218777[esp+16], eax
	mov	eax, DWORD PTR _guidICvWorldBuilderMapLoader2+12
	push	ecx
	lea	edx, DWORD PTR _guidInterface$[esp+16]
	push	edx
	mov	DWORD PTR $T218777[esp+36], eax
	call	_IsEqualGUID
	add	esp, 8
	test	eax, eax
	jne	SHORT $LN1@QueryInter

; 31   : 	}
; 32   : 
; 33   : 	return NULL;
; 34   : }

	add	esp, 16					; 00000010H
	ret	20					; 00000014H
$LN1@QueryInter:

; 29   : 	{
; 30   : 		return this;

	mov	eax, DWORD PTR _this$[esp+12]

; 31   : 	}
; 32   : 
; 33   : 	return NULL;
; 34   : }

	add	esp, 16					; 00000010H
	ret	20					; 00000014H
?QueryInterface@CvDllWorldBuilderMapLoader@@UAGPAXU_GUID@@@Z ENDP ; CvDllWorldBuilderMapLoader::QueryInterface
_TEXT	ENDS
PUBLIC	??_7ICvWorldBuilderMapLoader2@@6B@		; ICvWorldBuilderMapLoader2::`vftable'
PUBLIC	??0ICvWorldBuilderMapLoader2@@QAE@XZ		; ICvWorldBuilderMapLoader2::ICvWorldBuilderMapLoader2
PUBLIC	??_R4ICvWorldBuilderMapLoader2@@6B@		; ICvWorldBuilderMapLoader2::`RTTI Complete Object Locator'
;	COMDAT ??_R4ICvWorldBuilderMapLoader2@@6B@
rdata$r	SEGMENT
??_R4ICvWorldBuilderMapLoader2@@6B@ DD 00H		; ICvWorldBuilderMapLoader2::`RTTI Complete Object Locator'
	DD	00H
	DD	00H
	DD	FLAT:??_R0?AVICvWorldBuilderMapLoader2@@@8
	DD	FLAT:??_R3ICvWorldBuilderMapLoader2@@8
rdata$r	ENDS
;	COMDAT ??_7ICvWorldBuilderMapLoader2@@6B@
CONST	SEGMENT
??_7ICvWorldBuilderMapLoader2@@6B@ DD FLAT:??_R4ICvWorldBuilderMapLoader2@@6B@ ; ICvWorldBuilderMapLoader2::`vftable'
	DD	FLAT:__purecall
	DD	FLAT:__purecall
	DD	FLAT:__purecall
	DD	FLAT:__purecall
	DD	FLAT:__purecall
	DD	FLAT:__purecall
	DD	FLAT:__purecall
	DD	FLAT:__purecall
	DD	FLAT:__purecall
	DD	FLAT:__purecall
	DD	FLAT:__purecall
	DD	FLAT:__purecall
	DD	FLAT:__purecall
	DD	FLAT:__purecall
	DD	FLAT:__purecall
	DD	FLAT:__purecall
	DD	FLAT:__purecall
	DD	FLAT:__purecall
	DD	FLAT:__purecall
	DD	FLAT:__purecall
	DD	FLAT:__purecall
	DD	FLAT:__purecall
	DD	FLAT:__purecall
	DD	FLAT:__purecall
	DD	FLAT:__purecall
	DD	FLAT:__purecall
; Function compile flags: /Ogtpy
CONST	ENDS
;	COMDAT ??0ICvWorldBuilderMapLoader2@@QAE@XZ
_TEXT	SEGMENT
??0ICvWorldBuilderMapLoader2@@QAE@XZ PROC		; ICvWorldBuilderMapLoader2::ICvWorldBuilderMapLoader2, COMDAT
; _this$ = ecx
	mov	eax, ecx
	mov	DWORD PTR [eax], OFFSET ??_7ICvWorldBuilderMapLoader2@@6B@
	ret	0
??0ICvWorldBuilderMapLoader2@@QAE@XZ ENDP		; ICvWorldBuilderMapLoader2::ICvWorldBuilderMapLoader2
_TEXT	ENDS
PUBLIC	??0CvDllWorldBuilderMapLoader@@QAE@XZ		; CvDllWorldBuilderMapLoader::CvDllWorldBuilderMapLoader
; Function compile flags: /Ogtpy
;	COMDAT ??0CvDllWorldBuilderMapLoader@@QAE@XZ
_TEXT	SEGMENT
??0CvDllWorldBuilderMapLoader@@QAE@XZ PROC		; CvDllWorldBuilderMapLoader::CvDllWorldBuilderMapLoader, COMDAT
; _this$ = ecx

; 17   : {

	mov	eax, ecx
	mov	DWORD PTR [eax], OFFSET ??_7CvDllWorldBuilderMapLoader@@6B@

; 18   : }

	ret	0
??0CvDllWorldBuilderMapLoader@@QAE@XZ ENDP		; CvDllWorldBuilderMapLoader::CvDllWorldBuilderMapLoader
_TEXT	ENDS
END
