; Listing generated by Microsoft (R) Optimizing Compiler Version 15.00.30729.01 

	TITLE	c:\Users\EnormousApplePie\Documents\GitHub\Lekmod\LEKMOD_DLL\CvGameCoreDLL_Expansion2\CvDllGameSpeedInfo.cpp
	.686P
	.XMM
	include listing.inc
	.model	flat

INCLUDELIB MSVCRT
INCLUDELIB OLDNAMES

_DATA	SEGMENT
_CIV5_XP2_DLL_VERSION DD FLAT:$SG217706
_DATA	ENDS
CONST	SEGMENT
$SG217706 DB	'1.0.0', 00H
	ORG $+2
_guidICvUnknown DD 0d89ba82fH
	DW	09fa3H
	DW	04696H
	DB	0b3H
	DB	0f4H
	DB	052H
	DB	0bdH
	DB	0b1H
	DB	01H
	DB	0cfH
	DB	0b2H
_guidICvGameSpeedInfo1 DD 0f1319991H
	DW	0d469H
	DW	04202H
	DB	09eH
	DB	095H
	DB	0c3H
	DB	0aeH
	DB	01H
	DB	0aeH
	DB	056H
	DB	046H
CONST	ENDS
PUBLIC	??_7ICvUnknown@@6B@				; ICvUnknown::`vftable'
PUBLIC	??0ICvUnknown@@QAE@XZ				; ICvUnknown::ICvUnknown
PUBLIC	??_R4ICvUnknown@@6B@				; ICvUnknown::`RTTI Complete Object Locator'
PUBLIC	??_R0?AVICvUnknown@@@8				; ICvUnknown `RTTI Type Descriptor'
PUBLIC	??_R3ICvUnknown@@8				; ICvUnknown::`RTTI Class Hierarchy Descriptor'
PUBLIC	??_R2ICvUnknown@@8				; ICvUnknown::`RTTI Base Class Array'
PUBLIC	??_R1A@?0A@EA@ICvUnknown@@8			; ICvUnknown::`RTTI Base Class Descriptor at (0,-1,0,64)'
EXTRN	??_7type_info@@6B@:QWORD			; type_info::`vftable'
EXTRN	__purecall:PROC
;	COMDAT ??_R1A@?0A@EA@ICvUnknown@@8
rdata$r	SEGMENT
??_R1A@?0A@EA@ICvUnknown@@8 DD FLAT:??_R0?AVICvUnknown@@@8 ; ICvUnknown::`RTTI Base Class Descriptor at (0,-1,0,64)'
	DD	00H
	DD	00H
	DD	0ffffffffH
	DD	00H
	DD	040H
	DD	FLAT:??_R3ICvUnknown@@8
rdata$r	ENDS
;	COMDAT ??_R2ICvUnknown@@8
rdata$r	SEGMENT
??_R2ICvUnknown@@8 DD FLAT:??_R1A@?0A@EA@ICvUnknown@@8	; ICvUnknown::`RTTI Base Class Array'
rdata$r	ENDS
;	COMDAT ??_R3ICvUnknown@@8
rdata$r	SEGMENT
??_R3ICvUnknown@@8 DD 00H				; ICvUnknown::`RTTI Class Hierarchy Descriptor'
	DD	00H
	DD	01H
	DD	FLAT:??_R2ICvUnknown@@8
rdata$r	ENDS
;	COMDAT ??_R0?AVICvUnknown@@@8
_DATA	SEGMENT
??_R0?AVICvUnknown@@@8 DD FLAT:??_7type_info@@6B@	; ICvUnknown `RTTI Type Descriptor'
	DD	00H
	DB	'.?AVICvUnknown@@', 00H
_DATA	ENDS
;	COMDAT ??_R4ICvUnknown@@6B@
rdata$r	SEGMENT
??_R4ICvUnknown@@6B@ DD 00H				; ICvUnknown::`RTTI Complete Object Locator'
	DD	00H
	DD	00H
	DD	FLAT:??_R0?AVICvUnknown@@@8
	DD	FLAT:??_R3ICvUnknown@@8
rdata$r	ENDS
;	COMDAT ??_7ICvUnknown@@6B@
CONST	SEGMENT
??_7ICvUnknown@@6B@ DD FLAT:??_R4ICvUnknown@@6B@	; ICvUnknown::`vftable'
	DD	FLAT:__purecall
	DD	FLAT:__purecall
; Function compile flags: /Ogtpy
CONST	ENDS
;	COMDAT ??0ICvUnknown@@QAE@XZ
_TEXT	SEGMENT
??0ICvUnknown@@QAE@XZ PROC				; ICvUnknown::ICvUnknown, COMDAT
; _this$ = ecx
	mov	eax, ecx
	mov	DWORD PTR [eax], OFFSET ??_7ICvUnknown@@6B@
	ret	0
??0ICvUnknown@@QAE@XZ ENDP				; ICvUnknown::ICvUnknown
_TEXT	ENDS
PUBLIC	??_7CvDllGameSpeedInfo@@6B@			; CvDllGameSpeedInfo::`vftable'
PUBLIC	??1CvDllGameSpeedInfo@@QAE@XZ			; CvDllGameSpeedInfo::~CvDllGameSpeedInfo
PUBLIC	??_R4CvDllGameSpeedInfo@@6B@			; CvDllGameSpeedInfo::`RTTI Complete Object Locator'
PUBLIC	??_R0?AVCvDllGameSpeedInfo@@@8			; CvDllGameSpeedInfo `RTTI Type Descriptor'
PUBLIC	??_R3CvDllGameSpeedInfo@@8			; CvDllGameSpeedInfo::`RTTI Class Hierarchy Descriptor'
PUBLIC	??_R2CvDllGameSpeedInfo@@8			; CvDllGameSpeedInfo::`RTTI Base Class Array'
PUBLIC	??_R1A@?0A@EA@CvDllGameSpeedInfo@@8		; CvDllGameSpeedInfo::`RTTI Base Class Descriptor at (0,-1,0,64)'
PUBLIC	??_R1A@?0A@EA@ICvGameSpeedInfo1@@8		; ICvGameSpeedInfo1::`RTTI Base Class Descriptor at (0,-1,0,64)'
PUBLIC	??_R0?AVICvGameSpeedInfo1@@@8			; ICvGameSpeedInfo1 `RTTI Type Descriptor'
PUBLIC	??_R3ICvGameSpeedInfo1@@8			; ICvGameSpeedInfo1::`RTTI Class Hierarchy Descriptor'
PUBLIC	??_R2ICvGameSpeedInfo1@@8			; ICvGameSpeedInfo1::`RTTI Base Class Array'
PUBLIC	?QueryInterface@CvDllGameSpeedInfo@@UAGPAXU_GUID@@@Z ; CvDllGameSpeedInfo::QueryInterface
PUBLIC	?Destroy@CvDllGameSpeedInfo@@EAGXXZ		; CvDllGameSpeedInfo::Destroy
PUBLIC	?GetType@CvDllGameSpeedInfo@@UAGPBDXZ		; CvDllGameSpeedInfo::GetType
PUBLIC	?GetDescription@CvDllGameSpeedInfo@@UAGPBDXZ	; CvDllGameSpeedInfo::GetDescription
PUBLIC	?GetBarbPercent@CvDllGameSpeedInfo@@UAGHXZ	; CvDllGameSpeedInfo::GetBarbPercent
;	COMDAT ??_R2ICvGameSpeedInfo1@@8
; File c:\users\enormousapplepie\documents\github\lekmod\lekmod_dll\cvgamecoredll_expansion2\cvdllgamespeedinfo.cpp
rdata$r	SEGMENT
??_R2ICvGameSpeedInfo1@@8 DD FLAT:??_R1A@?0A@EA@ICvGameSpeedInfo1@@8 ; ICvGameSpeedInfo1::`RTTI Base Class Array'
	DD	FLAT:??_R1A@?0A@EA@ICvUnknown@@8
rdata$r	ENDS
;	COMDAT ??_R3ICvGameSpeedInfo1@@8
rdata$r	SEGMENT
??_R3ICvGameSpeedInfo1@@8 DD 00H			; ICvGameSpeedInfo1::`RTTI Class Hierarchy Descriptor'
	DD	00H
	DD	02H
	DD	FLAT:??_R2ICvGameSpeedInfo1@@8
rdata$r	ENDS
;	COMDAT ??_R0?AVICvGameSpeedInfo1@@@8
_DATA	SEGMENT
??_R0?AVICvGameSpeedInfo1@@@8 DD FLAT:??_7type_info@@6B@ ; ICvGameSpeedInfo1 `RTTI Type Descriptor'
	DD	00H
	DB	'.?AVICvGameSpeedInfo1@@', 00H
_DATA	ENDS
;	COMDAT ??_R1A@?0A@EA@ICvGameSpeedInfo1@@8
rdata$r	SEGMENT
??_R1A@?0A@EA@ICvGameSpeedInfo1@@8 DD FLAT:??_R0?AVICvGameSpeedInfo1@@@8 ; ICvGameSpeedInfo1::`RTTI Base Class Descriptor at (0,-1,0,64)'
	DD	01H
	DD	00H
	DD	0ffffffffH
	DD	00H
	DD	040H
	DD	FLAT:??_R3ICvGameSpeedInfo1@@8
rdata$r	ENDS
;	COMDAT ??_R1A@?0A@EA@CvDllGameSpeedInfo@@8
rdata$r	SEGMENT
??_R1A@?0A@EA@CvDllGameSpeedInfo@@8 DD FLAT:??_R0?AVCvDllGameSpeedInfo@@@8 ; CvDllGameSpeedInfo::`RTTI Base Class Descriptor at (0,-1,0,64)'
	DD	02H
	DD	00H
	DD	0ffffffffH
	DD	00H
	DD	040H
	DD	FLAT:??_R3CvDllGameSpeedInfo@@8
rdata$r	ENDS
;	COMDAT ??_R2CvDllGameSpeedInfo@@8
rdata$r	SEGMENT
??_R2CvDllGameSpeedInfo@@8 DD FLAT:??_R1A@?0A@EA@CvDllGameSpeedInfo@@8 ; CvDllGameSpeedInfo::`RTTI Base Class Array'
	DD	FLAT:??_R1A@?0A@EA@ICvGameSpeedInfo1@@8
	DD	FLAT:??_R1A@?0A@EA@ICvUnknown@@8
rdata$r	ENDS
;	COMDAT ??_R3CvDllGameSpeedInfo@@8
rdata$r	SEGMENT
??_R3CvDllGameSpeedInfo@@8 DD 00H			; CvDllGameSpeedInfo::`RTTI Class Hierarchy Descriptor'
	DD	00H
	DD	03H
	DD	FLAT:??_R2CvDllGameSpeedInfo@@8
rdata$r	ENDS
;	COMDAT ??_R0?AVCvDllGameSpeedInfo@@@8
_DATA	SEGMENT
??_R0?AVCvDllGameSpeedInfo@@@8 DD FLAT:??_7type_info@@6B@ ; CvDllGameSpeedInfo `RTTI Type Descriptor'
	DD	00H
	DB	'.?AVCvDllGameSpeedInfo@@', 00H
_DATA	ENDS
;	COMDAT ??_R4CvDllGameSpeedInfo@@6B@
rdata$r	SEGMENT
??_R4CvDllGameSpeedInfo@@6B@ DD 00H			; CvDllGameSpeedInfo::`RTTI Complete Object Locator'
	DD	00H
	DD	00H
	DD	FLAT:??_R0?AVCvDllGameSpeedInfo@@@8
	DD	FLAT:??_R3CvDllGameSpeedInfo@@8
rdata$r	ENDS
;	COMDAT ??_7CvDllGameSpeedInfo@@6B@
CONST	SEGMENT
??_7CvDllGameSpeedInfo@@6B@ DD FLAT:??_R4CvDllGameSpeedInfo@@6B@ ; CvDllGameSpeedInfo::`vftable'
	DD	FLAT:?QueryInterface@CvDllGameSpeedInfo@@UAGPAXU_GUID@@@Z
	DD	FLAT:?Destroy@CvDllGameSpeedInfo@@EAGXXZ
	DD	FLAT:?GetType@CvDllGameSpeedInfo@@UAGPBDXZ
	DD	FLAT:?GetDescription@CvDllGameSpeedInfo@@UAGPBDXZ
	DD	FLAT:?GetBarbPercent@CvDllGameSpeedInfo@@UAGHXZ
; Function compile flags: /Ogtpy
CONST	ENDS
;	COMDAT ??1CvDllGameSpeedInfo@@QAE@XZ
_TEXT	SEGMENT
??1CvDllGameSpeedInfo@@QAE@XZ PROC			; CvDllGameSpeedInfo::~CvDllGameSpeedInfo, COMDAT
; _this$ = ecx

; 24   : {

	mov	DWORD PTR [ecx], OFFSET ??_7CvDllGameSpeedInfo@@6B@

; 25   : }

	ret	0
??1CvDllGameSpeedInfo@@QAE@XZ ENDP			; CvDllGameSpeedInfo::~CvDllGameSpeedInfo
_TEXT	ENDS
PUBLIC	?IncrementReference@CvDllGameSpeedInfo@@QAEIXZ	; CvDllGameSpeedInfo::IncrementReference
; Function compile flags: /Ogtpy
;	COMDAT ?IncrementReference@CvDllGameSpeedInfo@@QAEIXZ
_TEXT	SEGMENT
?IncrementReference@CvDllGameSpeedInfo@@QAEIXZ PROC	; CvDllGameSpeedInfo::IncrementReference, COMDAT
; _this$ = ecx

; 41   : 	++m_uiRefCount;

	inc	DWORD PTR [ecx+4]

; 42   : 	return m_uiRefCount;

	mov	eax, DWORD PTR [ecx+4]

; 43   : }

	ret	0
?IncrementReference@CvDllGameSpeedInfo@@QAEIXZ ENDP	; CvDllGameSpeedInfo::IncrementReference
_TEXT	ENDS
PUBLIC	?GetReferenceCount@CvDllGameSpeedInfo@@QAEIXZ	; CvDllGameSpeedInfo::GetReferenceCount
; Function compile flags: /Ogtpy
;	COMDAT ?GetReferenceCount@CvDllGameSpeedInfo@@QAEIXZ
_TEXT	SEGMENT
?GetReferenceCount@CvDllGameSpeedInfo@@QAEIXZ PROC	; CvDllGameSpeedInfo::GetReferenceCount, COMDAT
; _this$ = ecx

; 61   : 	return m_uiRefCount;

	mov	eax, DWORD PTR [ecx+4]

; 62   : }

	ret	0
?GetReferenceCount@CvDllGameSpeedInfo@@QAEIXZ ENDP	; CvDllGameSpeedInfo::GetReferenceCount
_TEXT	ENDS
PUBLIC	??3CvDllGameSpeedInfo@@SAXPAX@Z			; CvDllGameSpeedInfo::operator delete
EXTRN	?Free@CvDllGameContext@@SAXPAX@Z:PROC		; CvDllGameContext::Free
; Function compile flags: /Ogtpy
;	COMDAT ??3CvDllGameSpeedInfo@@SAXPAX@Z
_TEXT	SEGMENT
_p$ = 8							; size = 4
??3CvDllGameSpeedInfo@@SAXPAX@Z PROC			; CvDllGameSpeedInfo::operator delete, COMDAT

; 71   : 	CvDllGameContext::Free(p);

	jmp	?Free@CvDllGameContext@@SAXPAX@Z	; CvDllGameContext::Free
??3CvDllGameSpeedInfo@@SAXPAX@Z ENDP			; CvDllGameSpeedInfo::operator delete
_TEXT	ENDS
PUBLIC	??2CvDllGameSpeedInfo@@SAPAXI@Z			; CvDllGameSpeedInfo::operator new
EXTRN	?Allocate@CvDllGameContext@@SAPAXI@Z:PROC	; CvDllGameContext::Allocate
; Function compile flags: /Ogtpy
;	COMDAT ??2CvDllGameSpeedInfo@@SAPAXI@Z
_TEXT	SEGMENT
_bytes$ = 8						; size = 4
??2CvDllGameSpeedInfo@@SAPAXI@Z PROC			; CvDllGameSpeedInfo::operator new, COMDAT

; 76   : 	return CvDllGameContext::Allocate(bytes);

	jmp	?Allocate@CvDllGameContext@@SAPAXI@Z	; CvDllGameContext::Allocate
??2CvDllGameSpeedInfo@@SAPAXI@Z ENDP			; CvDllGameSpeedInfo::operator new
_TEXT	ENDS
PUBLIC	?GetInstance@CvDllGameSpeedInfo@@QAEPAVCvGameSpeedInfo@@XZ ; CvDllGameSpeedInfo::GetInstance
; Function compile flags: /Ogtpy
;	COMDAT ?GetInstance@CvDllGameSpeedInfo@@QAEPAVCvGameSpeedInfo@@XZ
_TEXT	SEGMENT
?GetInstance@CvDllGameSpeedInfo@@QAEPAVCvGameSpeedInfo@@XZ PROC ; CvDllGameSpeedInfo::GetInstance, COMDAT
; _this$ = ecx

; 81   : 	return m_pGameSpeedInfo;

	mov	eax, DWORD PTR [ecx+8]

; 82   : }

	ret	0
?GetInstance@CvDllGameSpeedInfo@@QAEPAVCvGameSpeedInfo@@XZ ENDP ; CvDllGameSpeedInfo::GetInstance
_TEXT	ENDS
EXTRN	?getBarbPercent@CvGameSpeedInfo@@QBEHXZ:PROC	; CvGameSpeedInfo::getBarbPercent
; Function compile flags: /Ogtpy
;	COMDAT ?GetBarbPercent@CvDllGameSpeedInfo@@UAGHXZ
_TEXT	SEGMENT
_this$ = 8						; size = 4
?GetBarbPercent@CvDllGameSpeedInfo@@UAGHXZ PROC		; CvDllGameSpeedInfo::GetBarbPercent, COMDAT

; 96   : 	return m_pGameSpeedInfo->getBarbPercent();

	mov	eax, DWORD PTR _this$[esp-4]
	mov	ecx, DWORD PTR [eax+8]
	call	?getBarbPercent@CvGameSpeedInfo@@QBEHXZ	; CvGameSpeedInfo::getBarbPercent

; 97   : }

	ret	4
?GetBarbPercent@CvDllGameSpeedInfo@@UAGHXZ ENDP		; CvDllGameSpeedInfo::GetBarbPercent
_TEXT	ENDS
PUBLIC	_IsEqualGUID
; Function compile flags: /Ogtpy
; File c:\program files\microsoft sdks\windows\v6.0a\include\guiddef.h
;	COMDAT _IsEqualGUID
_TEXT	SEGMENT
_rguid1$ = 8						; size = 4
_rguid2$ = 12						; size = 4
_IsEqualGUID PROC					; COMDAT

; 161  :     return !memcmp(&rguid1, &rguid2, sizeof(GUID));

	mov	ecx, DWORD PTR _rguid2$[esp-4]
	mov	edx, DWORD PTR _rguid1$[esp-4]
	mov	eax, 16					; 00000010H
	push	esi
	npad	2
$LL4@IsEqualGUI:
	mov	esi, DWORD PTR [edx]
	cmp	esi, DWORD PTR [ecx]
	jne	SHORT $LN5@IsEqualGUI
	sub	eax, 4
	add	ecx, 4
	add	edx, 4
	cmp	eax, 4
	jae	SHORT $LL4@IsEqualGUI
	xor	eax, eax
	xor	edx, edx
	test	eax, eax
	sete	dl
	pop	esi
	mov	eax, edx

; 162  : }

	ret	0
$LN5@IsEqualGUI:

; 161  :     return !memcmp(&rguid1, &rguid2, sizeof(GUID));

	movzx	eax, BYTE PTR [edx]
	movzx	esi, BYTE PTR [ecx]
	sub	eax, esi
	jne	SHORT $LN7@IsEqualGUI
	movzx	eax, BYTE PTR [edx+1]
	movzx	esi, BYTE PTR [ecx+1]
	sub	eax, esi
	jne	SHORT $LN7@IsEqualGUI
	movzx	eax, BYTE PTR [edx+2]
	movzx	esi, BYTE PTR [ecx+2]
	sub	eax, esi
	jne	SHORT $LN7@IsEqualGUI
	movzx	eax, BYTE PTR [edx+3]
	movzx	ecx, BYTE PTR [ecx+3]
	sub	eax, ecx
$LN7@IsEqualGUI:
	sar	eax, 31					; 0000001fH
	or	eax, 1
	xor	edx, edx
	test	eax, eax
	sete	dl
	pop	esi
	mov	eax, edx

; 162  : }

	ret	0
_IsEqualGUID ENDP
_TEXT	ENDS
PUBLIC	_==
; Function compile flags: /Ogtpy
;	COMDAT _==
_TEXT	SEGMENT
_guidOne$ = 8						; size = 4
_guidOther$ = 12					; size = 4
_==	PROC						; COMDAT

; 194  :     return IsEqualGUID(guidOne,guidOther);

	jmp	_IsEqualGUID
_==	ENDP
_TEXT	ENDS
PUBLIC	?GetInterfaceId@ICvUnknown@@SG?AU_GUID@@XZ	; ICvUnknown::GetInterfaceId
; Function compile flags: /Ogtpy
; File c:\users\enormousapplepie\documents\github\lekmod\lekmod_dll\cvgamecoredllutil\include\cvdllinterfaces.h
;	COMDAT ?GetInterfaceId@ICvUnknown@@SG?AU_GUID@@XZ
_TEXT	SEGMENT
$T219043 = 8						; size = 4
?GetInterfaceId@ICvUnknown@@SG?AU_GUID@@XZ PROC		; ICvUnknown::GetInterfaceId, COMDAT

; 306  : 	static GUID DLLCALL GetInterfaceId(){ return guidICvUnknown; }

	mov	eax, DWORD PTR $T219043[esp-4]
	mov	ecx, DWORD PTR _guidICvUnknown
	mov	edx, DWORD PTR _guidICvUnknown+4
	mov	DWORD PTR [eax], ecx
	mov	ecx, DWORD PTR _guidICvUnknown+8
	mov	DWORD PTR [eax+4], edx
	mov	edx, DWORD PTR _guidICvUnknown+12
	mov	DWORD PTR [eax+8], ecx
	mov	DWORD PTR [eax+12], edx
	ret	4
?GetInterfaceId@ICvUnknown@@SG?AU_GUID@@XZ ENDP		; ICvUnknown::GetInterfaceId
_TEXT	ENDS
PUBLIC	?GetInterfaceId@ICvGameSpeedInfo1@@SG?AU_GUID@@XZ ; ICvGameSpeedInfo1::GetInterfaceId
; Function compile flags: /Ogtpy
;	COMDAT ?GetInterfaceId@ICvGameSpeedInfo1@@SG?AU_GUID@@XZ
_TEXT	SEGMENT
$T219047 = 8						; size = 4
?GetInterfaceId@ICvGameSpeedInfo1@@SG?AU_GUID@@XZ PROC	; ICvGameSpeedInfo1::GetInterfaceId, COMDAT

; 458  : 	static GUID DLLCALL GetInterfaceId() { return guidICvGameSpeedInfo1; }

	mov	eax, DWORD PTR $T219047[esp-4]
	mov	ecx, DWORD PTR _guidICvGameSpeedInfo1
	mov	edx, DWORD PTR _guidICvGameSpeedInfo1+4
	mov	DWORD PTR [eax], ecx
	mov	ecx, DWORD PTR _guidICvGameSpeedInfo1+8
	mov	DWORD PTR [eax+4], edx
	mov	edx, DWORD PTR _guidICvGameSpeedInfo1+12
	mov	DWORD PTR [eax+8], ecx
	mov	DWORD PTR [eax+12], edx
	ret	4
?GetInterfaceId@ICvGameSpeedInfo1@@SG?AU_GUID@@XZ ENDP	; ICvGameSpeedInfo1::GetInterfaceId
_TEXT	ENDS
PUBLIC	?GetDescription@CvBaseInfo@@QBEPBDXZ		; CvBaseInfo::GetDescription
EXTRN	__imp_?c_str@?$basic_string@DU?$char_traits@D@std@@V?$allocator@D@2@@std@@QBEPBDXZ:PROC
; Function compile flags: /Ogtpy
; File c:\users\enormousapplepie\documents\github\lekmod\lekmod_dll\cvgamecoredll_expansion2\cvinfos.h
;	COMDAT ?GetDescription@CvBaseInfo@@QBEPBDXZ
_TEXT	SEGMENT
?GetDescription@CvBaseInfo@@QBEPBDXZ PROC		; CvBaseInfo::GetDescription, COMDAT
; _this$ = ecx

; 64   : 		return m_strDescription.c_str();

	add	ecx, 36					; 00000024H
	jmp	DWORD PTR __imp_?c_str@?$basic_string@DU?$char_traits@D@std@@V?$allocator@D@2@@std@@QBEPBDXZ
?GetDescription@CvBaseInfo@@QBEPBDXZ ENDP		; CvBaseInfo::GetDescription
_TEXT	ENDS
PUBLIC	?GetType@CvBaseInfo@@QBEPBDXZ			; CvBaseInfo::GetType
; Function compile flags: /Ogtpy
;	COMDAT ?GetType@CvBaseInfo@@QBEPBDXZ
_TEXT	SEGMENT
?GetType@CvBaseInfo@@QBEPBDXZ PROC			; CvBaseInfo::GetType, COMDAT
; _this$ = ecx

; 92   : 		return m_strType.c_str();

	add	ecx, 176				; 000000b0H
	jmp	DWORD PTR __imp_?c_str@?$basic_string@DU?$char_traits@D@std@@V?$allocator@D@2@@std@@QBEPBDXZ
?GetType@CvBaseInfo@@QBEPBDXZ ENDP			; CvBaseInfo::GetType
_TEXT	ENDS
PUBLIC	??_7ICvGameSpeedInfo1@@6B@			; ICvGameSpeedInfo1::`vftable'
PUBLIC	??0ICvGameSpeedInfo1@@QAE@XZ			; ICvGameSpeedInfo1::ICvGameSpeedInfo1
PUBLIC	??_R4ICvGameSpeedInfo1@@6B@			; ICvGameSpeedInfo1::`RTTI Complete Object Locator'
;	COMDAT ??_R4ICvGameSpeedInfo1@@6B@
rdata$r	SEGMENT
??_R4ICvGameSpeedInfo1@@6B@ DD 00H			; ICvGameSpeedInfo1::`RTTI Complete Object Locator'
	DD	00H
	DD	00H
	DD	FLAT:??_R0?AVICvGameSpeedInfo1@@@8
	DD	FLAT:??_R3ICvGameSpeedInfo1@@8
rdata$r	ENDS
;	COMDAT ??_7ICvGameSpeedInfo1@@6B@
CONST	SEGMENT
??_7ICvGameSpeedInfo1@@6B@ DD FLAT:??_R4ICvGameSpeedInfo1@@6B@ ; ICvGameSpeedInfo1::`vftable'
	DD	FLAT:__purecall
	DD	FLAT:__purecall
	DD	FLAT:__purecall
	DD	FLAT:__purecall
	DD	FLAT:__purecall
; Function compile flags: /Ogtpy
CONST	ENDS
;	COMDAT ??0ICvGameSpeedInfo1@@QAE@XZ
_TEXT	SEGMENT
??0ICvGameSpeedInfo1@@QAE@XZ PROC			; ICvGameSpeedInfo1::ICvGameSpeedInfo1, COMDAT
; _this$ = ecx
	mov	eax, ecx
	mov	DWORD PTR [eax], OFFSET ??_7ICvGameSpeedInfo1@@6B@
	ret	0
??0ICvGameSpeedInfo1@@QAE@XZ ENDP			; ICvGameSpeedInfo1::ICvGameSpeedInfo1
; Function compile flags: /Ogtpy
; File c:\users\enormousapplepie\documents\github\lekmod\lekmod_dll\cvgamecoredll_expansion2\cvdllgamespeedinfo.cpp
_TEXT	ENDS
;	COMDAT ?QueryInterface@CvDllGameSpeedInfo@@UAGPAXU_GUID@@@Z
_TEXT	SEGMENT
$T219067 = -16						; size = 16
$T219065 = -16						; size = 16
_this$ = 8						; size = 4
_guidInterface$ = 12					; size = 16
?QueryInterface@CvDllGameSpeedInfo@@UAGPAXU_GUID@@@Z PROC ; CvDllGameSpeedInfo::QueryInterface, COMDAT

; 28   : {

	sub	esp, 16					; 00000010H

; 29   : 	if(guidInterface == ICvUnknown::GetInterfaceId() ||
; 30   : 	        guidInterface == ICvGameSpeedInfo1::GetInterfaceId())

	mov	ecx, DWORD PTR _guidICvUnknown+4
	mov	edx, DWORD PTR _guidICvUnknown+8
	mov	eax, DWORD PTR _guidICvUnknown
	mov	DWORD PTR $T219065[esp+20], ecx
	lea	ecx, DWORD PTR $T219065[esp+16]
	mov	DWORD PTR $T219065[esp+24], edx
	mov	DWORD PTR $T219065[esp+16], eax
	mov	eax, DWORD PTR _guidICvUnknown+12
	push	ecx
	lea	edx, DWORD PTR _guidInterface$[esp+16]
	push	edx
	mov	DWORD PTR $T219065[esp+36], eax
	call	_IsEqualGUID
	add	esp, 8
	test	eax, eax
	jne	SHORT $LN1@QueryInter
	mov	ecx, DWORD PTR _guidICvGameSpeedInfo1+4
	mov	edx, DWORD PTR _guidICvGameSpeedInfo1+8
	mov	eax, DWORD PTR _guidICvGameSpeedInfo1
	mov	DWORD PTR $T219067[esp+20], ecx
	lea	ecx, DWORD PTR $T219067[esp+16]
	mov	DWORD PTR $T219067[esp+24], edx
	mov	DWORD PTR $T219067[esp+16], eax
	mov	eax, DWORD PTR _guidICvGameSpeedInfo1+12
	push	ecx
	lea	edx, DWORD PTR _guidInterface$[esp+16]
	push	edx
	mov	DWORD PTR $T219067[esp+36], eax
	call	_IsEqualGUID
	add	esp, 8
	test	eax, eax
	jne	SHORT $LN1@QueryInter

; 33   : 		return this;
; 34   : 	}
; 35   : 
; 36   : 	return NULL;
; 37   : }

	add	esp, 16					; 00000010H
	ret	20					; 00000014H
$LN1@QueryInter:

; 31   : 	{
; 32   : 		IncrementReference();

	mov	eax, DWORD PTR _this$[esp+12]
	inc	DWORD PTR [eax+4]

; 33   : 		return this;
; 34   : 	}
; 35   : 
; 36   : 	return NULL;
; 37   : }

	add	esp, 16					; 00000010H
	ret	20					; 00000014H
?QueryInterface@CvDllGameSpeedInfo@@UAGPAXU_GUID@@@Z ENDP ; CvDllGameSpeedInfo::QueryInterface
_TEXT	ENDS
PUBLIC	??_GCvDllGameSpeedInfo@@QAEPAXI@Z		; CvDllGameSpeedInfo::`scalar deleting destructor'
; Function compile flags: /Ogtpy
;	COMDAT ??_GCvDllGameSpeedInfo@@QAEPAXI@Z
_TEXT	SEGMENT
___flags$ = 8						; size = 4
??_GCvDllGameSpeedInfo@@QAEPAXI@Z PROC			; CvDllGameSpeedInfo::`scalar deleting destructor', COMDAT
; _this$ = ecx
	test	BYTE PTR ___flags$[esp-4], 1
	push	esi
	mov	esi, ecx
	mov	DWORD PTR [esi], OFFSET ??_7CvDllGameSpeedInfo@@6B@
	je	SHORT $LN8@scalar
	push	esi
	call	?Free@CvDllGameContext@@SAXPAX@Z	; CvDllGameContext::Free
	add	esp, 4
$LN8@scalar:
	mov	eax, esi
	pop	esi
	ret	4
??_GCvDllGameSpeedInfo@@QAEPAXI@Z ENDP			; CvDllGameSpeedInfo::`scalar deleting destructor'
; Function compile flags: /Ogtpy
_TEXT	ENDS
;	COMDAT ?GetType@CvDllGameSpeedInfo@@UAGPBDXZ
_TEXT	SEGMENT
_this$ = 8						; size = 4
?GetType@CvDllGameSpeedInfo@@UAGPBDXZ PROC		; CvDllGameSpeedInfo::GetType, COMDAT

; 86   : 	return m_pGameSpeedInfo->GetType();

	mov	eax, DWORD PTR _this$[esp-4]
	mov	eax, DWORD PTR [eax+8]
	lea	ecx, DWORD PTR [eax+176]
	call	DWORD PTR __imp_?c_str@?$basic_string@DU?$char_traits@D@std@@V?$allocator@D@2@@std@@QBEPBDXZ

; 87   : }

	ret	4
?GetType@CvDllGameSpeedInfo@@UAGPBDXZ ENDP		; CvDllGameSpeedInfo::GetType
; Function compile flags: /Ogtpy
_TEXT	ENDS
;	COMDAT ?GetDescription@CvDllGameSpeedInfo@@UAGPBDXZ
_TEXT	SEGMENT
_this$ = 8						; size = 4
?GetDescription@CvDllGameSpeedInfo@@UAGPBDXZ PROC	; CvDllGameSpeedInfo::GetDescription, COMDAT

; 91   : 	return m_pGameSpeedInfo->GetDescription();

	mov	eax, DWORD PTR _this$[esp-4]
	mov	eax, DWORD PTR [eax+8]
	lea	ecx, DWORD PTR [eax+36]
	call	DWORD PTR __imp_?c_str@?$basic_string@DU?$char_traits@D@std@@V?$allocator@D@2@@std@@QBEPBDXZ

; 92   : }

	ret	4
?GetDescription@CvDllGameSpeedInfo@@UAGPBDXZ ENDP	; CvDllGameSpeedInfo::GetDescription
_TEXT	ENDS
PUBLIC	??0CvDllGameSpeedInfo@@QAE@PAVCvGameSpeedInfo@@@Z ; CvDllGameSpeedInfo::CvDllGameSpeedInfo
; Function compile flags: /Ogtpy
;	COMDAT ??0CvDllGameSpeedInfo@@QAE@PAVCvGameSpeedInfo@@@Z
_TEXT	SEGMENT
_pGameSpeedInfo$ = 8					; size = 4
??0CvDllGameSpeedInfo@@QAE@PAVCvGameSpeedInfo@@@Z PROC	; CvDllGameSpeedInfo::CvDllGameSpeedInfo, COMDAT
; _this$ = ecx

; 19   : {

	mov	eax, ecx
	mov	ecx, DWORD PTR _pGameSpeedInfo$[esp-4]
	mov	DWORD PTR [eax], OFFSET ??_7CvDllGameSpeedInfo@@6B@
	mov	DWORD PTR [eax+4], 1
	mov	DWORD PTR [eax+8], ecx

; 20   : 	FAssertMsg(pGameSpeedInfo != NULL, "SHOULD NOT HAPPEN");
; 21   : }

	ret	4
??0CvDllGameSpeedInfo@@QAE@PAVCvGameSpeedInfo@@@Z ENDP	; CvDllGameSpeedInfo::CvDllGameSpeedInfo
_TEXT	ENDS
PUBLIC	?DecrementReference@CvDllGameSpeedInfo@@QAEIXZ	; CvDllGameSpeedInfo::DecrementReference
; Function compile flags: /Ogtpy
;	COMDAT ?DecrementReference@CvDllGameSpeedInfo@@QAEIXZ
_TEXT	SEGMENT
?DecrementReference@CvDllGameSpeedInfo@@QAEIXZ PROC	; CvDllGameSpeedInfo::DecrementReference, COMDAT
; _this$ = ecx

; 47   : 	if(m_uiRefCount == 1)

	mov	eax, DWORD PTR [ecx+4]
	cmp	eax, 1
	jne	SHORT $LN2@DecrementR

; 48   : 	{
; 49   : 		delete this;

	push	ecx
	mov	DWORD PTR [ecx], OFFSET ??_7CvDllGameSpeedInfo@@6B@
	call	?Free@CvDllGameContext@@SAXPAX@Z	; CvDllGameContext::Free
	add	esp, 4

; 50   : 		return 0;

	xor	eax, eax

; 55   : 		return m_uiRefCount;
; 56   : 	}
; 57   : }

	ret	0
$LN2@DecrementR:

; 51   : 	}
; 52   : 	else
; 53   : 	{
; 54   : 		--m_uiRefCount;

	dec	eax
	mov	DWORD PTR [ecx+4], eax

; 55   : 		return m_uiRefCount;
; 56   : 	}
; 57   : }

	ret	0
?DecrementReference@CvDllGameSpeedInfo@@QAEIXZ ENDP	; CvDllGameSpeedInfo::DecrementReference
; Function compile flags: /Ogtpy
_TEXT	ENDS
;	COMDAT ?Destroy@CvDllGameSpeedInfo@@EAGXXZ
_TEXT	SEGMENT
_this$ = 8						; size = 4
?Destroy@CvDllGameSpeedInfo@@EAGXXZ PROC		; CvDllGameSpeedInfo::Destroy, COMDAT

; 66   : 	DecrementReference();

	mov	eax, DWORD PTR _this$[esp-4]
	mov	ecx, DWORD PTR [eax+4]
	cmp	ecx, 1
	jne	SHORT $LN4@Destroy
	push	eax
	mov	DWORD PTR [eax], OFFSET ??_7CvDllGameSpeedInfo@@6B@
	call	?Free@CvDllGameContext@@SAXPAX@Z	; CvDllGameContext::Free
	add	esp, 4

; 67   : }

	ret	4

; 66   : 	DecrementReference();

$LN4@Destroy:
	dec	ecx
	mov	DWORD PTR [eax+4], ecx

; 67   : }

	ret	4
?Destroy@CvDllGameSpeedInfo@@EAGXXZ ENDP		; CvDllGameSpeedInfo::Destroy
_TEXT	ENDS
END
