; Listing generated by Microsoft (R) Optimizing Compiler Version 15.00.30729.01 

	TITLE	c:\Users\EnormousApplePie\Documents\GitHub\Lekmod\LEKMOD_DLL\CvGameCoreDLL_Expansion2\CvDllFeatureInfo.cpp
	.686P
	.XMM
	include listing.inc
	.model	flat

INCLUDELIB MSVCRT
INCLUDELIB OLDNAMES

_DATA	SEGMENT
_CIV5_XP2_DLL_VERSION DD FLAT:$SG217201
_DATA	ENDS
CONST	SEGMENT
$SG217201 DB	'1.0.0', 00H
	ORG $+2
_guidICvUnknown DD 0d89ba82fH
	DW	09fa3H
	DW	04696H
	DB	0b3H
	DB	0f4H
	DB	052H
	DB	0bdH
	DB	0b1H
	DB	01H
	DB	0cfH
	DB	0b2H
_guidICvFeatureInfo1 DD 0cca94937H
	DW	0d8f5H
	DW	04755H
	DB	0bcH
	DB	01dH
	DB	04dH
	DB	0aeH
	DB	0dH
	DB	0d7H
	DB	010H
	DB	08H
CONST	ENDS
PUBLIC	??_7ICvUnknown@@6B@				; ICvUnknown::`vftable'
PUBLIC	??0ICvUnknown@@QAE@XZ				; ICvUnknown::ICvUnknown
PUBLIC	??_R4ICvUnknown@@6B@				; ICvUnknown::`RTTI Complete Object Locator'
PUBLIC	??_R0?AVICvUnknown@@@8				; ICvUnknown `RTTI Type Descriptor'
PUBLIC	??_R3ICvUnknown@@8				; ICvUnknown::`RTTI Class Hierarchy Descriptor'
PUBLIC	??_R2ICvUnknown@@8				; ICvUnknown::`RTTI Base Class Array'
PUBLIC	??_R1A@?0A@EA@ICvUnknown@@8			; ICvUnknown::`RTTI Base Class Descriptor at (0,-1,0,64)'
EXTRN	??_7type_info@@6B@:QWORD			; type_info::`vftable'
EXTRN	__purecall:PROC
;	COMDAT ??_R1A@?0A@EA@ICvUnknown@@8
rdata$r	SEGMENT
??_R1A@?0A@EA@ICvUnknown@@8 DD FLAT:??_R0?AVICvUnknown@@@8 ; ICvUnknown::`RTTI Base Class Descriptor at (0,-1,0,64)'
	DD	00H
	DD	00H
	DD	0ffffffffH
	DD	00H
	DD	040H
	DD	FLAT:??_R3ICvUnknown@@8
rdata$r	ENDS
;	COMDAT ??_R2ICvUnknown@@8
rdata$r	SEGMENT
??_R2ICvUnknown@@8 DD FLAT:??_R1A@?0A@EA@ICvUnknown@@8	; ICvUnknown::`RTTI Base Class Array'
rdata$r	ENDS
;	COMDAT ??_R3ICvUnknown@@8
rdata$r	SEGMENT
??_R3ICvUnknown@@8 DD 00H				; ICvUnknown::`RTTI Class Hierarchy Descriptor'
	DD	00H
	DD	01H
	DD	FLAT:??_R2ICvUnknown@@8
rdata$r	ENDS
;	COMDAT ??_R0?AVICvUnknown@@@8
_DATA	SEGMENT
??_R0?AVICvUnknown@@@8 DD FLAT:??_7type_info@@6B@	; ICvUnknown `RTTI Type Descriptor'
	DD	00H
	DB	'.?AVICvUnknown@@', 00H
_DATA	ENDS
;	COMDAT ??_R4ICvUnknown@@6B@
rdata$r	SEGMENT
??_R4ICvUnknown@@6B@ DD 00H				; ICvUnknown::`RTTI Complete Object Locator'
	DD	00H
	DD	00H
	DD	FLAT:??_R0?AVICvUnknown@@@8
	DD	FLAT:??_R3ICvUnknown@@8
rdata$r	ENDS
;	COMDAT ??_7ICvUnknown@@6B@
CONST	SEGMENT
??_7ICvUnknown@@6B@ DD FLAT:??_R4ICvUnknown@@6B@	; ICvUnknown::`vftable'
	DD	FLAT:__purecall
	DD	FLAT:__purecall
; Function compile flags: /Ogtpy
CONST	ENDS
;	COMDAT ??0ICvUnknown@@QAE@XZ
_TEXT	SEGMENT
??0ICvUnknown@@QAE@XZ PROC				; ICvUnknown::ICvUnknown, COMDAT
; _this$ = ecx
	mov	eax, ecx
	mov	DWORD PTR [eax], OFFSET ??_7ICvUnknown@@6B@
	ret	0
??0ICvUnknown@@QAE@XZ ENDP				; ICvUnknown::ICvUnknown
_TEXT	ENDS
PUBLIC	??_7CvDllFeatureInfo@@6B@			; CvDllFeatureInfo::`vftable'
PUBLIC	??1CvDllFeatureInfo@@QAE@XZ			; CvDllFeatureInfo::~CvDllFeatureInfo
PUBLIC	??_R4CvDllFeatureInfo@@6B@			; CvDllFeatureInfo::`RTTI Complete Object Locator'
PUBLIC	??_R0?AVCvDllFeatureInfo@@@8			; CvDllFeatureInfo `RTTI Type Descriptor'
PUBLIC	??_R3CvDllFeatureInfo@@8			; CvDllFeatureInfo::`RTTI Class Hierarchy Descriptor'
PUBLIC	??_R2CvDllFeatureInfo@@8			; CvDllFeatureInfo::`RTTI Base Class Array'
PUBLIC	??_R1A@?0A@EA@CvDllFeatureInfo@@8		; CvDllFeatureInfo::`RTTI Base Class Descriptor at (0,-1,0,64)'
PUBLIC	??_R1A@?0A@EA@ICvFeatureInfo1@@8		; ICvFeatureInfo1::`RTTI Base Class Descriptor at (0,-1,0,64)'
PUBLIC	??_R0?AVICvFeatureInfo1@@@8			; ICvFeatureInfo1 `RTTI Type Descriptor'
PUBLIC	??_R3ICvFeatureInfo1@@8				; ICvFeatureInfo1::`RTTI Class Hierarchy Descriptor'
PUBLIC	??_R2ICvFeatureInfo1@@8				; ICvFeatureInfo1::`RTTI Base Class Array'
PUBLIC	?QueryInterface@CvDllFeatureInfo@@UAGPAXU_GUID@@@Z ; CvDllFeatureInfo::QueryInterface
PUBLIC	?Destroy@CvDllFeatureInfo@@EAGXXZ		; CvDllFeatureInfo::Destroy
PUBLIC	?GetType@CvDllFeatureInfo@@UAGPBDXZ		; CvDllFeatureInfo::GetType
PUBLIC	?GetDescription@CvDllFeatureInfo@@UAGPBDXZ	; CvDllFeatureInfo::GetDescription
PUBLIC	?IsNoCoast@CvDllFeatureInfo@@UAG_NXZ		; CvDllFeatureInfo::IsNoCoast
PUBLIC	?IsNoRiver@CvDllFeatureInfo@@UAG_NXZ		; CvDllFeatureInfo::IsNoRiver
PUBLIC	?IsNoAdjacent@CvDllFeatureInfo@@UAG_NXZ		; CvDllFeatureInfo::IsNoAdjacent
PUBLIC	?IsRequiresFlatlands@CvDllFeatureInfo@@UAG_NXZ	; CvDllFeatureInfo::IsRequiresFlatlands
PUBLIC	?IsRequiresRiver@CvDllFeatureInfo@@UAG_NXZ	; CvDllFeatureInfo::IsRequiresRiver
PUBLIC	?IsNaturalWonder@CvDllFeatureInfo@@UAG_NXZ	; CvDllFeatureInfo::IsNaturalWonder
PUBLIC	?GetArtDefineTag@CvDllFeatureInfo@@UAGPBDXZ	; CvDllFeatureInfo::GetArtDefineTag
PUBLIC	?GetWorldSoundscapeScriptId@CvDllFeatureInfo@@UAGHXZ ; CvDllFeatureInfo::GetWorldSoundscapeScriptId
PUBLIC	?GetEffectTypeTag@CvDllFeatureInfo@@UAGPBDXZ	; CvDllFeatureInfo::GetEffectTypeTag
PUBLIC	?IsTerrain@CvDllFeatureInfo@@UAG_NH@Z		; CvDllFeatureInfo::IsTerrain
;	COMDAT ??_R2ICvFeatureInfo1@@8
; File c:\users\enormousapplepie\documents\github\lekmod\lekmod_dll\cvgamecoredll_expansion2\cvdllfeatureinfo.cpp
rdata$r	SEGMENT
??_R2ICvFeatureInfo1@@8 DD FLAT:??_R1A@?0A@EA@ICvFeatureInfo1@@8 ; ICvFeatureInfo1::`RTTI Base Class Array'
	DD	FLAT:??_R1A@?0A@EA@ICvUnknown@@8
rdata$r	ENDS
;	COMDAT ??_R3ICvFeatureInfo1@@8
rdata$r	SEGMENT
??_R3ICvFeatureInfo1@@8 DD 00H				; ICvFeatureInfo1::`RTTI Class Hierarchy Descriptor'
	DD	00H
	DD	02H
	DD	FLAT:??_R2ICvFeatureInfo1@@8
rdata$r	ENDS
;	COMDAT ??_R0?AVICvFeatureInfo1@@@8
_DATA	SEGMENT
??_R0?AVICvFeatureInfo1@@@8 DD FLAT:??_7type_info@@6B@	; ICvFeatureInfo1 `RTTI Type Descriptor'
	DD	00H
	DB	'.?AVICvFeatureInfo1@@', 00H
_DATA	ENDS
;	COMDAT ??_R1A@?0A@EA@ICvFeatureInfo1@@8
rdata$r	SEGMENT
??_R1A@?0A@EA@ICvFeatureInfo1@@8 DD FLAT:??_R0?AVICvFeatureInfo1@@@8 ; ICvFeatureInfo1::`RTTI Base Class Descriptor at (0,-1,0,64)'
	DD	01H
	DD	00H
	DD	0ffffffffH
	DD	00H
	DD	040H
	DD	FLAT:??_R3ICvFeatureInfo1@@8
rdata$r	ENDS
;	COMDAT ??_R1A@?0A@EA@CvDllFeatureInfo@@8
rdata$r	SEGMENT
??_R1A@?0A@EA@CvDllFeatureInfo@@8 DD FLAT:??_R0?AVCvDllFeatureInfo@@@8 ; CvDllFeatureInfo::`RTTI Base Class Descriptor at (0,-1,0,64)'
	DD	02H
	DD	00H
	DD	0ffffffffH
	DD	00H
	DD	040H
	DD	FLAT:??_R3CvDllFeatureInfo@@8
rdata$r	ENDS
;	COMDAT ??_R2CvDllFeatureInfo@@8
rdata$r	SEGMENT
??_R2CvDllFeatureInfo@@8 DD FLAT:??_R1A@?0A@EA@CvDllFeatureInfo@@8 ; CvDllFeatureInfo::`RTTI Base Class Array'
	DD	FLAT:??_R1A@?0A@EA@ICvFeatureInfo1@@8
	DD	FLAT:??_R1A@?0A@EA@ICvUnknown@@8
rdata$r	ENDS
;	COMDAT ??_R3CvDllFeatureInfo@@8
rdata$r	SEGMENT
??_R3CvDllFeatureInfo@@8 DD 00H				; CvDllFeatureInfo::`RTTI Class Hierarchy Descriptor'
	DD	00H
	DD	03H
	DD	FLAT:??_R2CvDllFeatureInfo@@8
rdata$r	ENDS
;	COMDAT ??_R0?AVCvDllFeatureInfo@@@8
_DATA	SEGMENT
??_R0?AVCvDllFeatureInfo@@@8 DD FLAT:??_7type_info@@6B@	; CvDllFeatureInfo `RTTI Type Descriptor'
	DD	00H
	DB	'.?AVCvDllFeatureInfo@@', 00H
_DATA	ENDS
;	COMDAT ??_R4CvDllFeatureInfo@@6B@
rdata$r	SEGMENT
??_R4CvDllFeatureInfo@@6B@ DD 00H			; CvDllFeatureInfo::`RTTI Complete Object Locator'
	DD	00H
	DD	00H
	DD	FLAT:??_R0?AVCvDllFeatureInfo@@@8
	DD	FLAT:??_R3CvDllFeatureInfo@@8
rdata$r	ENDS
;	COMDAT ??_7CvDllFeatureInfo@@6B@
CONST	SEGMENT
??_7CvDllFeatureInfo@@6B@ DD FLAT:??_R4CvDllFeatureInfo@@6B@ ; CvDllFeatureInfo::`vftable'
	DD	FLAT:?QueryInterface@CvDllFeatureInfo@@UAGPAXU_GUID@@@Z
	DD	FLAT:?Destroy@CvDllFeatureInfo@@EAGXXZ
	DD	FLAT:?GetType@CvDllFeatureInfo@@UAGPBDXZ
	DD	FLAT:?GetDescription@CvDllFeatureInfo@@UAGPBDXZ
	DD	FLAT:?IsNoCoast@CvDllFeatureInfo@@UAG_NXZ
	DD	FLAT:?IsNoRiver@CvDllFeatureInfo@@UAG_NXZ
	DD	FLAT:?IsNoAdjacent@CvDllFeatureInfo@@UAG_NXZ
	DD	FLAT:?IsRequiresFlatlands@CvDllFeatureInfo@@UAG_NXZ
	DD	FLAT:?IsRequiresRiver@CvDllFeatureInfo@@UAG_NXZ
	DD	FLAT:?IsNaturalWonder@CvDllFeatureInfo@@UAG_NXZ
	DD	FLAT:?GetArtDefineTag@CvDllFeatureInfo@@UAGPBDXZ
	DD	FLAT:?GetWorldSoundscapeScriptId@CvDllFeatureInfo@@UAGHXZ
	DD	FLAT:?GetEffectTypeTag@CvDllFeatureInfo@@UAGPBDXZ
	DD	FLAT:?IsTerrain@CvDllFeatureInfo@@UAG_NH@Z
; Function compile flags: /Ogtpy
CONST	ENDS
;	COMDAT ??1CvDllFeatureInfo@@QAE@XZ
_TEXT	SEGMENT
??1CvDllFeatureInfo@@QAE@XZ PROC			; CvDllFeatureInfo::~CvDllFeatureInfo, COMDAT
; _this$ = ecx

; 24   : {

	mov	DWORD PTR [ecx], OFFSET ??_7CvDllFeatureInfo@@6B@

; 25   : }

	ret	0
??1CvDllFeatureInfo@@QAE@XZ ENDP			; CvDllFeatureInfo::~CvDllFeatureInfo
_TEXT	ENDS
PUBLIC	?IncrementReference@CvDllFeatureInfo@@QAEIXZ	; CvDllFeatureInfo::IncrementReference
; Function compile flags: /Ogtpy
;	COMDAT ?IncrementReference@CvDllFeatureInfo@@QAEIXZ
_TEXT	SEGMENT
?IncrementReference@CvDllFeatureInfo@@QAEIXZ PROC	; CvDllFeatureInfo::IncrementReference, COMDAT
; _this$ = ecx

; 41   : 	++m_uiRefCount;

	inc	DWORD PTR [ecx+4]

; 42   : 	return m_uiRefCount;

	mov	eax, DWORD PTR [ecx+4]

; 43   : }

	ret	0
?IncrementReference@CvDllFeatureInfo@@QAEIXZ ENDP	; CvDllFeatureInfo::IncrementReference
_TEXT	ENDS
PUBLIC	?GetReferenceCount@CvDllFeatureInfo@@QAEIXZ	; CvDllFeatureInfo::GetReferenceCount
; Function compile flags: /Ogtpy
;	COMDAT ?GetReferenceCount@CvDllFeatureInfo@@QAEIXZ
_TEXT	SEGMENT
?GetReferenceCount@CvDllFeatureInfo@@QAEIXZ PROC	; CvDllFeatureInfo::GetReferenceCount, COMDAT
; _this$ = ecx

; 61   : 	return m_uiRefCount;

	mov	eax, DWORD PTR [ecx+4]

; 62   : }

	ret	0
?GetReferenceCount@CvDllFeatureInfo@@QAEIXZ ENDP	; CvDllFeatureInfo::GetReferenceCount
_TEXT	ENDS
PUBLIC	??3CvDllFeatureInfo@@SAXPAX@Z			; CvDllFeatureInfo::operator delete
EXTRN	?Free@CvDllGameContext@@SAXPAX@Z:PROC		; CvDllGameContext::Free
; Function compile flags: /Ogtpy
;	COMDAT ??3CvDllFeatureInfo@@SAXPAX@Z
_TEXT	SEGMENT
_p$ = 8							; size = 4
??3CvDllFeatureInfo@@SAXPAX@Z PROC			; CvDllFeatureInfo::operator delete, COMDAT

; 71   : 	CvDllGameContext::Free(p);

	jmp	?Free@CvDllGameContext@@SAXPAX@Z	; CvDllGameContext::Free
??3CvDllFeatureInfo@@SAXPAX@Z ENDP			; CvDllFeatureInfo::operator delete
_TEXT	ENDS
PUBLIC	??2CvDllFeatureInfo@@SAPAXI@Z			; CvDllFeatureInfo::operator new
EXTRN	?Allocate@CvDllGameContext@@SAPAXI@Z:PROC	; CvDllGameContext::Allocate
; Function compile flags: /Ogtpy
;	COMDAT ??2CvDllFeatureInfo@@SAPAXI@Z
_TEXT	SEGMENT
_bytes$ = 8						; size = 4
??2CvDllFeatureInfo@@SAPAXI@Z PROC			; CvDllFeatureInfo::operator new, COMDAT

; 76   : 	return CvDllGameContext::Allocate(bytes);

	jmp	?Allocate@CvDllGameContext@@SAPAXI@Z	; CvDllGameContext::Allocate
??2CvDllFeatureInfo@@SAPAXI@Z ENDP			; CvDllFeatureInfo::operator new
_TEXT	ENDS
PUBLIC	?GetInstance@CvDllFeatureInfo@@QAEPAVCvFeatureInfo@@XZ ; CvDllFeatureInfo::GetInstance
; Function compile flags: /Ogtpy
;	COMDAT ?GetInstance@CvDllFeatureInfo@@QAEPAVCvFeatureInfo@@XZ
_TEXT	SEGMENT
?GetInstance@CvDllFeatureInfo@@QAEPAVCvFeatureInfo@@XZ PROC ; CvDllFeatureInfo::GetInstance, COMDAT
; _this$ = ecx

; 81   : 	return m_pFeatureInfo;

	mov	eax, DWORD PTR [ecx+8]

; 82   : }

	ret	0
?GetInstance@CvDllFeatureInfo@@QAEPAVCvFeatureInfo@@XZ ENDP ; CvDllFeatureInfo::GetInstance
_TEXT	ENDS
EXTRN	?isNoCoast@CvFeatureInfo@@QBE_NXZ:PROC		; CvFeatureInfo::isNoCoast
; Function compile flags: /Ogtpy
;	COMDAT ?IsNoCoast@CvDllFeatureInfo@@UAG_NXZ
_TEXT	SEGMENT
_this$ = 8						; size = 4
?IsNoCoast@CvDllFeatureInfo@@UAG_NXZ PROC		; CvDllFeatureInfo::IsNoCoast, COMDAT

; 96   : 	return m_pFeatureInfo->isNoCoast();

	mov	eax, DWORD PTR _this$[esp-4]
	mov	ecx, DWORD PTR [eax+8]
	call	?isNoCoast@CvFeatureInfo@@QBE_NXZ	; CvFeatureInfo::isNoCoast

; 97   : }

	ret	4
?IsNoCoast@CvDllFeatureInfo@@UAG_NXZ ENDP		; CvDllFeatureInfo::IsNoCoast
_TEXT	ENDS
EXTRN	?isNoRiver@CvFeatureInfo@@QBE_NXZ:PROC		; CvFeatureInfo::isNoRiver
; Function compile flags: /Ogtpy
;	COMDAT ?IsNoRiver@CvDllFeatureInfo@@UAG_NXZ
_TEXT	SEGMENT
_this$ = 8						; size = 4
?IsNoRiver@CvDllFeatureInfo@@UAG_NXZ PROC		; CvDllFeatureInfo::IsNoRiver, COMDAT

; 101  : 	return m_pFeatureInfo->isNoRiver();

	mov	eax, DWORD PTR _this$[esp-4]
	mov	ecx, DWORD PTR [eax+8]
	call	?isNoRiver@CvFeatureInfo@@QBE_NXZ	; CvFeatureInfo::isNoRiver

; 102  : }

	ret	4
?IsNoRiver@CvDllFeatureInfo@@UAG_NXZ ENDP		; CvDllFeatureInfo::IsNoRiver
_TEXT	ENDS
EXTRN	?isNoAdjacent@CvFeatureInfo@@QBE_NXZ:PROC	; CvFeatureInfo::isNoAdjacent
; Function compile flags: /Ogtpy
;	COMDAT ?IsNoAdjacent@CvDllFeatureInfo@@UAG_NXZ
_TEXT	SEGMENT
_this$ = 8						; size = 4
?IsNoAdjacent@CvDllFeatureInfo@@UAG_NXZ PROC		; CvDllFeatureInfo::IsNoAdjacent, COMDAT

; 106  : 	return m_pFeatureInfo->isNoAdjacent();

	mov	eax, DWORD PTR _this$[esp-4]
	mov	ecx, DWORD PTR [eax+8]
	call	?isNoAdjacent@CvFeatureInfo@@QBE_NXZ	; CvFeatureInfo::isNoAdjacent

; 107  : }

	ret	4
?IsNoAdjacent@CvDllFeatureInfo@@UAG_NXZ ENDP		; CvDllFeatureInfo::IsNoAdjacent
_TEXT	ENDS
EXTRN	?isRequiresFlatlands@CvFeatureInfo@@QBE_NXZ:PROC ; CvFeatureInfo::isRequiresFlatlands
; Function compile flags: /Ogtpy
;	COMDAT ?IsRequiresFlatlands@CvDllFeatureInfo@@UAG_NXZ
_TEXT	SEGMENT
_this$ = 8						; size = 4
?IsRequiresFlatlands@CvDllFeatureInfo@@UAG_NXZ PROC	; CvDllFeatureInfo::IsRequiresFlatlands, COMDAT

; 111  : 	return m_pFeatureInfo->isRequiresFlatlands();

	mov	eax, DWORD PTR _this$[esp-4]
	mov	ecx, DWORD PTR [eax+8]
	call	?isRequiresFlatlands@CvFeatureInfo@@QBE_NXZ ; CvFeatureInfo::isRequiresFlatlands

; 112  : }

	ret	4
?IsRequiresFlatlands@CvDllFeatureInfo@@UAG_NXZ ENDP	; CvDllFeatureInfo::IsRequiresFlatlands
_TEXT	ENDS
EXTRN	?isRequiresRiver@CvFeatureInfo@@QBE_NXZ:PROC	; CvFeatureInfo::isRequiresRiver
; Function compile flags: /Ogtpy
;	COMDAT ?IsRequiresRiver@CvDllFeatureInfo@@UAG_NXZ
_TEXT	SEGMENT
_this$ = 8						; size = 4
?IsRequiresRiver@CvDllFeatureInfo@@UAG_NXZ PROC		; CvDllFeatureInfo::IsRequiresRiver, COMDAT

; 116  : 	return m_pFeatureInfo->isRequiresRiver();

	mov	eax, DWORD PTR _this$[esp-4]
	mov	ecx, DWORD PTR [eax+8]
	call	?isRequiresRiver@CvFeatureInfo@@QBE_NXZ	; CvFeatureInfo::isRequiresRiver

; 117  : }

	ret	4
?IsRequiresRiver@CvDllFeatureInfo@@UAG_NXZ ENDP		; CvDllFeatureInfo::IsRequiresRiver
_TEXT	ENDS
EXTRN	?IsNaturalWonder@CvFeatureInfo@@QBE_NXZ:PROC	; CvFeatureInfo::IsNaturalWonder
; Function compile flags: /Ogtpy
;	COMDAT ?IsNaturalWonder@CvDllFeatureInfo@@UAG_NXZ
_TEXT	SEGMENT
_this$ = 8						; size = 4
?IsNaturalWonder@CvDllFeatureInfo@@UAG_NXZ PROC		; CvDllFeatureInfo::IsNaturalWonder, COMDAT

; 121  : 	return m_pFeatureInfo->IsNaturalWonder();

	mov	eax, DWORD PTR _this$[esp-4]
	mov	ecx, DWORD PTR [eax+8]
	call	?IsNaturalWonder@CvFeatureInfo@@QBE_NXZ	; CvFeatureInfo::IsNaturalWonder

; 122  : }

	ret	4
?IsNaturalWonder@CvDllFeatureInfo@@UAG_NXZ ENDP		; CvDllFeatureInfo::IsNaturalWonder
_TEXT	ENDS
EXTRN	?getArtDefineTag@CvFeatureInfo@@QBEPBDXZ:PROC	; CvFeatureInfo::getArtDefineTag
; Function compile flags: /Ogtpy
;	COMDAT ?GetArtDefineTag@CvDllFeatureInfo@@UAGPBDXZ
_TEXT	SEGMENT
_this$ = 8						; size = 4
?GetArtDefineTag@CvDllFeatureInfo@@UAGPBDXZ PROC	; CvDllFeatureInfo::GetArtDefineTag, COMDAT

; 126  : 	return m_pFeatureInfo->getArtDefineTag();

	mov	eax, DWORD PTR _this$[esp-4]
	mov	ecx, DWORD PTR [eax+8]
	call	?getArtDefineTag@CvFeatureInfo@@QBEPBDXZ ; CvFeatureInfo::getArtDefineTag

; 127  : }

	ret	4
?GetArtDefineTag@CvDllFeatureInfo@@UAGPBDXZ ENDP	; CvDllFeatureInfo::GetArtDefineTag
_TEXT	ENDS
EXTRN	?getWorldSoundscapeScriptId@CvFeatureInfo@@QBEHXZ:PROC ; CvFeatureInfo::getWorldSoundscapeScriptId
; Function compile flags: /Ogtpy
;	COMDAT ?GetWorldSoundscapeScriptId@CvDllFeatureInfo@@UAGHXZ
_TEXT	SEGMENT
_this$ = 8						; size = 4
?GetWorldSoundscapeScriptId@CvDllFeatureInfo@@UAGHXZ PROC ; CvDllFeatureInfo::GetWorldSoundscapeScriptId, COMDAT

; 131  : 	return m_pFeatureInfo->getWorldSoundscapeScriptId();

	mov	eax, DWORD PTR _this$[esp-4]
	mov	ecx, DWORD PTR [eax+8]
	call	?getWorldSoundscapeScriptId@CvFeatureInfo@@QBEHXZ ; CvFeatureInfo::getWorldSoundscapeScriptId

; 132  : }

	ret	4
?GetWorldSoundscapeScriptId@CvDllFeatureInfo@@UAGHXZ ENDP ; CvDllFeatureInfo::GetWorldSoundscapeScriptId
_TEXT	ENDS
EXTRN	?getEffectTypeTag@CvFeatureInfo@@QBEPBDXZ:PROC	; CvFeatureInfo::getEffectTypeTag
; Function compile flags: /Ogtpy
;	COMDAT ?GetEffectTypeTag@CvDllFeatureInfo@@UAGPBDXZ
_TEXT	SEGMENT
_this$ = 8						; size = 4
?GetEffectTypeTag@CvDllFeatureInfo@@UAGPBDXZ PROC	; CvDllFeatureInfo::GetEffectTypeTag, COMDAT

; 136  : 	return m_pFeatureInfo->getEffectTypeTag();

	mov	eax, DWORD PTR _this$[esp-4]
	mov	ecx, DWORD PTR [eax+8]
	call	?getEffectTypeTag@CvFeatureInfo@@QBEPBDXZ ; CvFeatureInfo::getEffectTypeTag

; 137  : }

	ret	4
?GetEffectTypeTag@CvDllFeatureInfo@@UAGPBDXZ ENDP	; CvDllFeatureInfo::GetEffectTypeTag
_TEXT	ENDS
EXTRN	?isTerrain@CvFeatureInfo@@QBE_NH@Z:PROC		; CvFeatureInfo::isTerrain
; Function compile flags: /Ogtpy
;	COMDAT ?IsTerrain@CvDllFeatureInfo@@UAG_NH@Z
_TEXT	SEGMENT
_this$ = 8						; size = 4
_i$ = 12						; size = 4
?IsTerrain@CvDllFeatureInfo@@UAG_NH@Z PROC		; CvDllFeatureInfo::IsTerrain, COMDAT

; 141  : 	return m_pFeatureInfo->isTerrain(i);

	mov	eax, DWORD PTR _i$[esp-4]
	mov	ecx, DWORD PTR _this$[esp-4]
	mov	ecx, DWORD PTR [ecx+8]
	push	eax
	call	?isTerrain@CvFeatureInfo@@QBE_NH@Z	; CvFeatureInfo::isTerrain

; 142  : }

	ret	8
?IsTerrain@CvDllFeatureInfo@@UAG_NH@Z ENDP		; CvDllFeatureInfo::IsTerrain
_TEXT	ENDS
PUBLIC	_IsEqualGUID
; Function compile flags: /Ogtpy
; File c:\program files\microsoft sdks\windows\v6.0a\include\guiddef.h
;	COMDAT _IsEqualGUID
_TEXT	SEGMENT
_rguid1$ = 8						; size = 4
_rguid2$ = 12						; size = 4
_IsEqualGUID PROC					; COMDAT

; 161  :     return !memcmp(&rguid1, &rguid2, sizeof(GUID));

	mov	ecx, DWORD PTR _rguid2$[esp-4]
	mov	edx, DWORD PTR _rguid1$[esp-4]
	mov	eax, 16					; 00000010H
	push	esi
	npad	2
$LL4@IsEqualGUI:
	mov	esi, DWORD PTR [edx]
	cmp	esi, DWORD PTR [ecx]
	jne	SHORT $LN5@IsEqualGUI
	sub	eax, 4
	add	ecx, 4
	add	edx, 4
	cmp	eax, 4
	jae	SHORT $LL4@IsEqualGUI
	xor	eax, eax
	xor	edx, edx
	test	eax, eax
	sete	dl
	pop	esi
	mov	eax, edx

; 162  : }

	ret	0
$LN5@IsEqualGUI:

; 161  :     return !memcmp(&rguid1, &rguid2, sizeof(GUID));

	movzx	eax, BYTE PTR [edx]
	movzx	esi, BYTE PTR [ecx]
	sub	eax, esi
	jne	SHORT $LN7@IsEqualGUI
	movzx	eax, BYTE PTR [edx+1]
	movzx	esi, BYTE PTR [ecx+1]
	sub	eax, esi
	jne	SHORT $LN7@IsEqualGUI
	movzx	eax, BYTE PTR [edx+2]
	movzx	esi, BYTE PTR [ecx+2]
	sub	eax, esi
	jne	SHORT $LN7@IsEqualGUI
	movzx	eax, BYTE PTR [edx+3]
	movzx	ecx, BYTE PTR [ecx+3]
	sub	eax, ecx
$LN7@IsEqualGUI:
	sar	eax, 31					; 0000001fH
	or	eax, 1
	xor	edx, edx
	test	eax, eax
	sete	dl
	pop	esi
	mov	eax, edx

; 162  : }

	ret	0
_IsEqualGUID ENDP
_TEXT	ENDS
PUBLIC	_==
; Function compile flags: /Ogtpy
;	COMDAT _==
_TEXT	SEGMENT
_guidOne$ = 8						; size = 4
_guidOther$ = 12					; size = 4
_==	PROC						; COMDAT

; 194  :     return IsEqualGUID(guidOne,guidOther);

	jmp	_IsEqualGUID
_==	ENDP
_TEXT	ENDS
PUBLIC	?GetInterfaceId@ICvUnknown@@SG?AU_GUID@@XZ	; ICvUnknown::GetInterfaceId
; Function compile flags: /Ogtpy
; File c:\users\enormousapplepie\documents\github\lekmod\lekmod_dll\cvgamecoredllutil\include\cvdllinterfaces.h
;	COMDAT ?GetInterfaceId@ICvUnknown@@SG?AU_GUID@@XZ
_TEXT	SEGMENT
$T218602 = 8						; size = 4
?GetInterfaceId@ICvUnknown@@SG?AU_GUID@@XZ PROC		; ICvUnknown::GetInterfaceId, COMDAT

; 306  : 	static GUID DLLCALL GetInterfaceId(){ return guidICvUnknown; }

	mov	eax, DWORD PTR $T218602[esp-4]
	mov	ecx, DWORD PTR _guidICvUnknown
	mov	edx, DWORD PTR _guidICvUnknown+4
	mov	DWORD PTR [eax], ecx
	mov	ecx, DWORD PTR _guidICvUnknown+8
	mov	DWORD PTR [eax+4], edx
	mov	edx, DWORD PTR _guidICvUnknown+12
	mov	DWORD PTR [eax+8], ecx
	mov	DWORD PTR [eax+12], edx
	ret	4
?GetInterfaceId@ICvUnknown@@SG?AU_GUID@@XZ ENDP		; ICvUnknown::GetInterfaceId
_TEXT	ENDS
PUBLIC	?GetInterfaceId@ICvFeatureInfo1@@SG?AU_GUID@@XZ	; ICvFeatureInfo1::GetInterfaceId
; Function compile flags: /Ogtpy
;	COMDAT ?GetInterfaceId@ICvFeatureInfo1@@SG?AU_GUID@@XZ
_TEXT	SEGMENT
$T218606 = 8						; size = 4
?GetInterfaceId@ICvFeatureInfo1@@SG?AU_GUID@@XZ PROC	; ICvFeatureInfo1::GetInterfaceId, COMDAT

; 404  : 	static GUID DLLCALL GetInterfaceId() { return guidICvFeatureInfo1; }

	mov	eax, DWORD PTR $T218606[esp-4]
	mov	ecx, DWORD PTR _guidICvFeatureInfo1
	mov	edx, DWORD PTR _guidICvFeatureInfo1+4
	mov	DWORD PTR [eax], ecx
	mov	ecx, DWORD PTR _guidICvFeatureInfo1+8
	mov	DWORD PTR [eax+4], edx
	mov	edx, DWORD PTR _guidICvFeatureInfo1+12
	mov	DWORD PTR [eax+8], ecx
	mov	DWORD PTR [eax+12], edx
	ret	4
?GetInterfaceId@ICvFeatureInfo1@@SG?AU_GUID@@XZ ENDP	; ICvFeatureInfo1::GetInterfaceId
_TEXT	ENDS
PUBLIC	?GetDescription@CvBaseInfo@@QBEPBDXZ		; CvBaseInfo::GetDescription
EXTRN	__imp_?c_str@?$basic_string@DU?$char_traits@D@std@@V?$allocator@D@2@@std@@QBEPBDXZ:PROC
; Function compile flags: /Ogtpy
; File c:\users\enormousapplepie\documents\github\lekmod\lekmod_dll\cvgamecoredll_expansion2\cvinfos.h
;	COMDAT ?GetDescription@CvBaseInfo@@QBEPBDXZ
_TEXT	SEGMENT
?GetDescription@CvBaseInfo@@QBEPBDXZ PROC		; CvBaseInfo::GetDescription, COMDAT
; _this$ = ecx

; 64   : 		return m_strDescription.c_str();

	add	ecx, 36					; 00000024H
	jmp	DWORD PTR __imp_?c_str@?$basic_string@DU?$char_traits@D@std@@V?$allocator@D@2@@std@@QBEPBDXZ
?GetDescription@CvBaseInfo@@QBEPBDXZ ENDP		; CvBaseInfo::GetDescription
_TEXT	ENDS
PUBLIC	?GetType@CvBaseInfo@@QBEPBDXZ			; CvBaseInfo::GetType
; Function compile flags: /Ogtpy
;	COMDAT ?GetType@CvBaseInfo@@QBEPBDXZ
_TEXT	SEGMENT
?GetType@CvBaseInfo@@QBEPBDXZ PROC			; CvBaseInfo::GetType, COMDAT
; _this$ = ecx

; 92   : 		return m_strType.c_str();

	add	ecx, 176				; 000000b0H
	jmp	DWORD PTR __imp_?c_str@?$basic_string@DU?$char_traits@D@std@@V?$allocator@D@2@@std@@QBEPBDXZ
?GetType@CvBaseInfo@@QBEPBDXZ ENDP			; CvBaseInfo::GetType
_TEXT	ENDS
PUBLIC	??_7ICvFeatureInfo1@@6B@			; ICvFeatureInfo1::`vftable'
PUBLIC	??0ICvFeatureInfo1@@QAE@XZ			; ICvFeatureInfo1::ICvFeatureInfo1
PUBLIC	??_R4ICvFeatureInfo1@@6B@			; ICvFeatureInfo1::`RTTI Complete Object Locator'
;	COMDAT ??_R4ICvFeatureInfo1@@6B@
rdata$r	SEGMENT
??_R4ICvFeatureInfo1@@6B@ DD 00H			; ICvFeatureInfo1::`RTTI Complete Object Locator'
	DD	00H
	DD	00H
	DD	FLAT:??_R0?AVICvFeatureInfo1@@@8
	DD	FLAT:??_R3ICvFeatureInfo1@@8
rdata$r	ENDS
;	COMDAT ??_7ICvFeatureInfo1@@6B@
CONST	SEGMENT
??_7ICvFeatureInfo1@@6B@ DD FLAT:??_R4ICvFeatureInfo1@@6B@ ; ICvFeatureInfo1::`vftable'
	DD	FLAT:__purecall
	DD	FLAT:__purecall
	DD	FLAT:__purecall
	DD	FLAT:__purecall
	DD	FLAT:__purecall
	DD	FLAT:__purecall
	DD	FLAT:__purecall
	DD	FLAT:__purecall
	DD	FLAT:__purecall
	DD	FLAT:__purecall
	DD	FLAT:__purecall
	DD	FLAT:__purecall
	DD	FLAT:__purecall
	DD	FLAT:__purecall
; Function compile flags: /Ogtpy
CONST	ENDS
;	COMDAT ??0ICvFeatureInfo1@@QAE@XZ
_TEXT	SEGMENT
??0ICvFeatureInfo1@@QAE@XZ PROC				; ICvFeatureInfo1::ICvFeatureInfo1, COMDAT
; _this$ = ecx
	mov	eax, ecx
	mov	DWORD PTR [eax], OFFSET ??_7ICvFeatureInfo1@@6B@
	ret	0
??0ICvFeatureInfo1@@QAE@XZ ENDP				; ICvFeatureInfo1::ICvFeatureInfo1
; Function compile flags: /Ogtpy
; File c:\users\enormousapplepie\documents\github\lekmod\lekmod_dll\cvgamecoredll_expansion2\cvdllfeatureinfo.cpp
_TEXT	ENDS
;	COMDAT ?QueryInterface@CvDllFeatureInfo@@UAGPAXU_GUID@@@Z
_TEXT	SEGMENT
$T218626 = -16						; size = 16
$T218624 = -16						; size = 16
_this$ = 8						; size = 4
_guidInterface$ = 12					; size = 16
?QueryInterface@CvDllFeatureInfo@@UAGPAXU_GUID@@@Z PROC	; CvDllFeatureInfo::QueryInterface, COMDAT

; 28   : {

	sub	esp, 16					; 00000010H

; 29   : 	if(guidInterface == ICvUnknown::GetInterfaceId() ||
; 30   : 	        guidInterface == ICvFeatureInfo1::GetInterfaceId())

	mov	ecx, DWORD PTR _guidICvUnknown+4
	mov	edx, DWORD PTR _guidICvUnknown+8
	mov	eax, DWORD PTR _guidICvUnknown
	mov	DWORD PTR $T218624[esp+20], ecx
	lea	ecx, DWORD PTR $T218624[esp+16]
	mov	DWORD PTR $T218624[esp+24], edx
	mov	DWORD PTR $T218624[esp+16], eax
	mov	eax, DWORD PTR _guidICvUnknown+12
	push	ecx
	lea	edx, DWORD PTR _guidInterface$[esp+16]
	push	edx
	mov	DWORD PTR $T218624[esp+36], eax
	call	_IsEqualGUID
	add	esp, 8
	test	eax, eax
	jne	SHORT $LN1@QueryInter
	mov	ecx, DWORD PTR _guidICvFeatureInfo1+4
	mov	edx, DWORD PTR _guidICvFeatureInfo1+8
	mov	eax, DWORD PTR _guidICvFeatureInfo1
	mov	DWORD PTR $T218626[esp+20], ecx
	lea	ecx, DWORD PTR $T218626[esp+16]
	mov	DWORD PTR $T218626[esp+24], edx
	mov	DWORD PTR $T218626[esp+16], eax
	mov	eax, DWORD PTR _guidICvFeatureInfo1+12
	push	ecx
	lea	edx, DWORD PTR _guidInterface$[esp+16]
	push	edx
	mov	DWORD PTR $T218626[esp+36], eax
	call	_IsEqualGUID
	add	esp, 8
	test	eax, eax
	jne	SHORT $LN1@QueryInter

; 33   : 		return this;
; 34   : 	}
; 35   : 
; 36   : 	return NULL;
; 37   : }

	add	esp, 16					; 00000010H
	ret	20					; 00000014H
$LN1@QueryInter:

; 31   : 	{
; 32   : 		IncrementReference();

	mov	eax, DWORD PTR _this$[esp+12]
	inc	DWORD PTR [eax+4]

; 33   : 		return this;
; 34   : 	}
; 35   : 
; 36   : 	return NULL;
; 37   : }

	add	esp, 16					; 00000010H
	ret	20					; 00000014H
?QueryInterface@CvDllFeatureInfo@@UAGPAXU_GUID@@@Z ENDP	; CvDllFeatureInfo::QueryInterface
_TEXT	ENDS
PUBLIC	??_GCvDllFeatureInfo@@QAEPAXI@Z			; CvDllFeatureInfo::`scalar deleting destructor'
; Function compile flags: /Ogtpy
;	COMDAT ??_GCvDllFeatureInfo@@QAEPAXI@Z
_TEXT	SEGMENT
___flags$ = 8						; size = 4
??_GCvDllFeatureInfo@@QAEPAXI@Z PROC			; CvDllFeatureInfo::`scalar deleting destructor', COMDAT
; _this$ = ecx
	test	BYTE PTR ___flags$[esp-4], 1
	push	esi
	mov	esi, ecx
	mov	DWORD PTR [esi], OFFSET ??_7CvDllFeatureInfo@@6B@
	je	SHORT $LN8@scalar
	push	esi
	call	?Free@CvDllGameContext@@SAXPAX@Z	; CvDllGameContext::Free
	add	esp, 4
$LN8@scalar:
	mov	eax, esi
	pop	esi
	ret	4
??_GCvDllFeatureInfo@@QAEPAXI@Z ENDP			; CvDllFeatureInfo::`scalar deleting destructor'
; Function compile flags: /Ogtpy
_TEXT	ENDS
;	COMDAT ?GetType@CvDllFeatureInfo@@UAGPBDXZ
_TEXT	SEGMENT
_this$ = 8						; size = 4
?GetType@CvDllFeatureInfo@@UAGPBDXZ PROC		; CvDllFeatureInfo::GetType, COMDAT

; 86   : 	return m_pFeatureInfo->GetType();

	mov	eax, DWORD PTR _this$[esp-4]
	mov	eax, DWORD PTR [eax+8]
	lea	ecx, DWORD PTR [eax+176]
	call	DWORD PTR __imp_?c_str@?$basic_string@DU?$char_traits@D@std@@V?$allocator@D@2@@std@@QBEPBDXZ

; 87   : }

	ret	4
?GetType@CvDllFeatureInfo@@UAGPBDXZ ENDP		; CvDllFeatureInfo::GetType
; Function compile flags: /Ogtpy
_TEXT	ENDS
;	COMDAT ?GetDescription@CvDllFeatureInfo@@UAGPBDXZ
_TEXT	SEGMENT
_this$ = 8						; size = 4
?GetDescription@CvDllFeatureInfo@@UAGPBDXZ PROC		; CvDllFeatureInfo::GetDescription, COMDAT

; 91   : 	return m_pFeatureInfo->GetDescription();

	mov	eax, DWORD PTR _this$[esp-4]
	mov	eax, DWORD PTR [eax+8]
	lea	ecx, DWORD PTR [eax+36]
	call	DWORD PTR __imp_?c_str@?$basic_string@DU?$char_traits@D@std@@V?$allocator@D@2@@std@@QBEPBDXZ

; 92   : }

	ret	4
?GetDescription@CvDllFeatureInfo@@UAGPBDXZ ENDP		; CvDllFeatureInfo::GetDescription
_TEXT	ENDS
PUBLIC	??0CvDllFeatureInfo@@QAE@PAVCvFeatureInfo@@@Z	; CvDllFeatureInfo::CvDllFeatureInfo
; Function compile flags: /Ogtpy
;	COMDAT ??0CvDllFeatureInfo@@QAE@PAVCvFeatureInfo@@@Z
_TEXT	SEGMENT
_pFeatureInfo$ = 8					; size = 4
??0CvDllFeatureInfo@@QAE@PAVCvFeatureInfo@@@Z PROC	; CvDllFeatureInfo::CvDllFeatureInfo, COMDAT
; _this$ = ecx

; 19   : {

	mov	eax, ecx
	mov	ecx, DWORD PTR _pFeatureInfo$[esp-4]
	mov	DWORD PTR [eax], OFFSET ??_7CvDllFeatureInfo@@6B@
	mov	DWORD PTR [eax+4], 1
	mov	DWORD PTR [eax+8], ecx

; 20   : 	FAssertMsg(pFeatureInfo != NULL, "SHOULD NOT HAPPEN");
; 21   : }

	ret	4
??0CvDllFeatureInfo@@QAE@PAVCvFeatureInfo@@@Z ENDP	; CvDllFeatureInfo::CvDllFeatureInfo
_TEXT	ENDS
PUBLIC	?DecrementReference@CvDllFeatureInfo@@QAEIXZ	; CvDllFeatureInfo::DecrementReference
; Function compile flags: /Ogtpy
;	COMDAT ?DecrementReference@CvDllFeatureInfo@@QAEIXZ
_TEXT	SEGMENT
?DecrementReference@CvDllFeatureInfo@@QAEIXZ PROC	; CvDllFeatureInfo::DecrementReference, COMDAT
; _this$ = ecx

; 47   : 	if(m_uiRefCount == 1)

	mov	eax, DWORD PTR [ecx+4]
	cmp	eax, 1
	jne	SHORT $LN2@DecrementR

; 48   : 	{
; 49   : 		delete this;

	push	ecx
	mov	DWORD PTR [ecx], OFFSET ??_7CvDllFeatureInfo@@6B@
	call	?Free@CvDllGameContext@@SAXPAX@Z	; CvDllGameContext::Free
	add	esp, 4

; 50   : 		return 0;

	xor	eax, eax

; 55   : 		return m_uiRefCount;
; 56   : 	}
; 57   : }

	ret	0
$LN2@DecrementR:

; 51   : 	}
; 52   : 	else
; 53   : 	{
; 54   : 		--m_uiRefCount;

	dec	eax
	mov	DWORD PTR [ecx+4], eax

; 55   : 		return m_uiRefCount;
; 56   : 	}
; 57   : }

	ret	0
?DecrementReference@CvDllFeatureInfo@@QAEIXZ ENDP	; CvDllFeatureInfo::DecrementReference
; Function compile flags: /Ogtpy
_TEXT	ENDS
;	COMDAT ?Destroy@CvDllFeatureInfo@@EAGXXZ
_TEXT	SEGMENT
_this$ = 8						; size = 4
?Destroy@CvDllFeatureInfo@@EAGXXZ PROC			; CvDllFeatureInfo::Destroy, COMDAT

; 66   : 	DecrementReference();

	mov	eax, DWORD PTR _this$[esp-4]
	mov	ecx, DWORD PTR [eax+4]
	cmp	ecx, 1
	jne	SHORT $LN4@Destroy
	push	eax
	mov	DWORD PTR [eax], OFFSET ??_7CvDllFeatureInfo@@6B@
	call	?Free@CvDllGameContext@@SAXPAX@Z	; CvDllGameContext::Free
	add	esp, 4

; 67   : }

	ret	4

; 66   : 	DecrementReference();

$LN4@Destroy:
	dec	ecx
	mov	DWORD PTR [eax+4], ecx

; 67   : }

	ret	4
?Destroy@CvDllFeatureInfo@@EAGXXZ ENDP			; CvDllFeatureInfo::Destroy
_TEXT	ENDS
END
