; Listing generated by Microsoft (R) Optimizing Compiler Version 15.00.30729.01 

	TITLE	c:\Users\EnormousApplePie\Desktop\Cleanup (v1)\Lekmod Files\Lekmod DLL versions\v30\LEKMOD_DLL\CvGameCoreDLL_Expansion2\CvGlobals.cpp
	.686P
	.XMM
	include listing.inc
	.model	flat

INCLUDELIB MSVCRT
INCLUDELIB OLDNAMES

PUBLIC	?NO_QUEST_DATA@CvMinorCivQuest@@2HB		; CvMinorCivQuest::NO_QUEST_DATA
PUBLIC	?NO_TURN@CvMinorCivQuest@@2HB			; CvMinorCivQuest::NO_TURN
_DATA	SEGMENT
_CIV5_XP2_DLL_VERSION DD FLAT:$SG226693
_DATA	ENDS
CONST	SEGMENT
$SG226693 DB	'1.0.0', 00H
	ORG $+2
$SG228460 DB	'SELECT Value from Defines where Name = ? LIMIT 1', 00H
	ORG $+3
$SG229207 DB	'Worlds', 00H
	ORG $+1
$SG229211 DB	'Climates', 00H
	ORG $+3
$SG229215 DB	'SeaLevels', 00H
	ORG $+2
$SG230472 DB	'GameCore.log', 00H
	ORG $+3
$SG230496 DB	'TargetingPathLayer', 00H
	ORG $+1
$SG230495 DB	'ArtifactLayer', 00H
	ORG $+2
$SG230494 DB	'TacticalAnalysisLayer', 00H
	ORG $+2
$SG230493 DB	'DangerLayer', 00H
$SG230492 DB	'RevealedLayer', 00H
	ORG $+2
$SG230491 DB	'VisibilityLayer', 00H
$SG230490 DB	'SettlerSiteEvaluationLayer', 00H
	ORG $+1
$SG230489 DB	'StartSiteEvaluationLayer', 00H
	ORG $+3
$SG230504 DB	'SettlerSiteEvaluationLayer', 00H
	ORG $+1
$SG230506 DB	'ArtifactLayer', 00H
	ORG $+2
$SG230518 DB	'StartSiteEvaluationLayer', 00H
	ORG $+3
$SG230521 DB	'%d', 00H
	ORG $+1
$SG230524 DB	'SettlerSiteEvaluationLayer', 00H
	ORG $+1
$SG230528 DB	'%d', 00H
	ORG $+1
$SG230531 DB	'VisibilityLayer', 00H
$SG230536 DB	'Vis %d', 00H
	ORG $+1
$SG230539 DB	'RevealedLayer', 00H
	ORG $+2
$SG230544 DB	'Rev %d', 00H
	ORG $+1
$SG230547 DB	'DangerLayer', 00H
$SG230551 DB	'%d', 00H
	ORG $+1
$SG230554 DB	'ArtifactLayer', 00H
	ORG $+2
$SG230557 DB	'%d', 00H
	ORG $+1
$SG230560 DB	'TacticalAnalysisLayer', 00H
	ORG $+2
$SG230566 DB	'X Terrain', 00H
	ORG $+2
$SG230569 DB	'X Territory', 00H
$SG230572 DB	'R ', 00H
	ORG $+1
$SG230574 DB	'V ', 00H
	ORG $+1
$SG230576 DB	'A+ ', 00H
$SG230579 DB	'N ', 00H
	ORG $+1
$SG230582 DB	'A ', 00H
	ORG $+1
$SG230584 DB	'E ', 00H
	ORG $+1
$SG230586 DB	'T ', 00H
	ORG $+1
$SG230588 DB	'F ', 00H
	ORG $+1
$SG230590 DB	'D ', 00H
	ORG $+1
$SG230598 DB	'%d ', 00H
$SG230602 DB	'[S%d] ', 00H
	ORG $+1
$SG230604 DB	'[%d] ', 00H
	ORG $+2
$SG230605 DB	'%s', 00H
	ORG $+1
$SG230608 DB	'TargetingPathLayer', 00H
	ORG $+1
$SG230611 DB	'%d', 00H
	ORG $+1
$SG230616 DB	'NEW_SCORE_CITY_MULTIPLIER', 00H
	ORG $+2
$SG230617 DB	'NEW_SCORE_POPULATION_MULTIPLIER', 00H
$SG230618 DB	'NEW_SCORE_WONDER_MULTIPLIER', 00H
$SG230619 DB	'NEW_SCORE_TECH_MULTIPLIER', 00H
	ORG $+2
$SG230620 DB	'NEW_SCORE_FUTURE_TECH_MULTIPLIER', 00H
	ORG $+3
$SG230621 DB	'NEW_SCORE_POLICY_MULTIPLIER', 00H
$SG230622 DB	'NEW_SCORE_GREAT_WORK_MULTIPLIER', 00H
$SG230623 DB	'NEW_SCORE_BELIEF_MULTIPLIER', 00H
$SG230624 DB	'AI_ATTEMPT_RUSH_OVER_X_TURNS_TO_BUILD', 00H
	ORG $+2
$SG230625 DB	'INITIAL_AI_CITY_PRODUCTION', 00H
	ORG $+1
$SG230626 DB	'AI_CAN_DISBAND_UNITS', 00H
	ORG $+3
$SG230627 DB	'AI_SHOULDNT_MANAGE_PLOT_ASSIGNMENT', 00H
	ORG $+1
$SG230628 DB	'POLICY_WEIGHT_PROPAGATION_PERCENT', 00H
	ORG $+2
$SG230629 DB	'POLICY_WEIGHT_PROPAGATION_LEVELS', 00H
	ORG $+3
$SG230630 DB	'POLICY_WEIGHT_PERCENT_DROP_NEW_BRANCH', 00H
	ORG $+2
$SG230631 DB	'TECH_WEIGHT_PROPAGATION_PERCENT', 00H
$SG230632 DB	'TECH_WEIGHT_PROPAGATION_LEVELS', 00H
	ORG $+1
$SG230633 DB	'TECH_PRIORITY_UNIQUE_ITEM', 00H
	ORG $+2
$SG230634 DB	'TECH_PRIORITY_MAYA_CALENDAR_BONUS', 00H
	ORG $+2
$SG230635 DB	'AI_VALUE_OF_YIELD_GOLD', 00H
	ORG $+1
$SG230636 DB	'AI_VALUE_OF_YIELD_PRODUCTION', 00H
	ORG $+3
$SG230637 DB	'AI_VALUE_OF_YIELD_SCIENCE', 00H
	ORG $+2
$SG230638 DB	'DEFAULT_FLAVOR_VALUE', 00H
	ORG $+3
$SG230639 DB	'PERSONALITY_FLAVOR_MAX_VALUE', 00H
	ORG $+3
$SG230640 DB	'PERSONALITY_FLAVOR_MIN_VALUE', 00H
	ORG $+3
$SG230641 DB	'FLAVOR_MIN_VALUE', 00H
	ORG $+3
$SG230642 DB	'FLAVOR_MAX_VALUE', 00H
	ORG $+3
$SG230643 DB	'FLAVOR_RANDOMIZATION_RANGE', 00H
	ORG $+1
$SG230644 DB	'FLAVOR_EXPANDGROW_COEFFICIENT', 00H
	ORG $+2
$SG230645 DB	'AI_GRAND_STRATEGY_NUM_TURNS_STRATEGY_MUST_BE_ACTIVE', 00H
$SG230646 DB	'AI_GS_RAND_ROLL', 00H
$SG230647 DB	'AI_GRAND_STRATEGY_CURRENT_STRATEGY_WEIGHT', 00H
	ORG $+2
$SG230648 DB	'AI_GRAND_STRATEGY_GUESS_NO_CLUE_WEIGHT', 00H
	ORG $+1
$SG230649 DB	'AI_GRAND_STRATEGY_GUESS_POSITIVE_THRESHOLD', 00H
	ORG $+1
$SG230650 DB	'AI_GRAND_STRATEGY_GUESS_LIKELY_THRESHOLD', 00H
	ORG $+3
$SG230651 DB	'AI_GRAND_STRATEGY_OTHER_PLAYERS_GS_MULTIPLIER', 00H
	ORG $+2
$SG230652 DB	'AI_GS_CONQUEST_NOBODY_MET_FIRST_TURN', 00H
	ORG $+3
$SG230653 DB	'AI_GRAND_STRATEGY_CONQUEST_NOBODY_MET_WEIGHT', 00H
	ORG $+3
$SG230654 DB	'AI_GRAND_STRATEGY_CONQUEST_AT_WAR_WEIGHT', 00H
	ORG $+3
$SG230655 DB	'AI_GS_CONQUEST_MILITARY_STRENGTH_FIRST_TURN', 00H
$SG230656 DB	'AI_GRAND_STRATEGY_CONQUEST_POWER_RATIO_MULTIPLIER', 00H
	ORG $+2
$SG230657 DB	'AI_GRAND_STRATEGY_CONQUEST_CRAMPED_WEIGHT', 00H
	ORG $+2
$SG230658 DB	'AI_GRAND_STRATEGY_CONQUEST_WEIGHT_PER_MINOR_ATTACKED', 00H
	ORG $+3
$SG230659 DB	'AI_GRAND_STRATEGY_CONQUEST_WEIGHT_PER_MINOR_CONQUERED', 00H
	ORG $+2
$SG230660 DB	'AI_GRAND_STRATEGY_CONQUEST_WEIGHT_PER_MAJOR_ATTACKED', 00H
	ORG $+3
$SG230661 DB	'AI_GRAND_STRATEGY_CONQUEST_WEIGHT_PER_MAJOR_CONQUERED', 00H
	ORG $+2
$SG230662 DB	'AI_GS_CULTURE_RATIO_MULTIPLIER', 00H
	ORG $+1
$SG230663 DB	'AI_GS_TOURISM_RATIO_MULTIPLIER', 00H
	ORG $+1
$SG230664 DB	'AI_GS_CULTURE_AHEAD_WEIGHT', 00H
	ORG $+1
$SG230665 DB	'AI_GS_CULTURE_TOURISM_AHEAD_WEIGHT', 00H
	ORG $+1
$SG230666 DB	'AI_GS_CULTURE_INFLUENTIAL_CIV_MOD', 00H
	ORG $+2
$SG230667 DB	'AI_GRAND_STRATEGY_UN_EACH_MINOR_ATTACKED_WEIGHT', 00H
$SG230668 DB	'AI_GS_UN_SECURED_VOTE_MOD', 00H
	ORG $+2
$SG230669 DB	'AI_GS_SS_HAS_APOLLO_PROGRAM', 00H
$SG230670 DB	'AI_GS_SS_TECH_PROGRESS_MOD', 00H
	ORG $+1
$SG230671 DB	'AI_STRATEGY_EARLY_EXPLORATION_STARTING_WEIGHT', 00H
	ORG $+2
$SG230672 DB	'AI_STRATEGY_EARLY_EXPLORATION_EXPLORERS_WEIGHT_DIVISOR', 00H
	ORG $+1
$SG230673 DB	'AI_STRATEGY_EARLY_EXPLORATION_WEIGHT_PER_FLAVOR', 00H
$SG230674 DB	'AI_STRATEGY_EARLY_EXPANSION_NUM_UNOWNED_TILES_REQUIRED', 00H
	ORG $+1
$SG230675 DB	'AI_STRATEGY_EARLY_EXPANSION_NUM_CITIES_LIMIT', 00H
	ORG $+3
$SG230676 DB	'AI_STRATEGY_NEED_IMPROVEMENT_CITY_RATIO', 00H
$SG230677 DB	'AI_STRATEGY_ISLAND_START_COAST_REVEAL_PERCENT', 00H
	ORG $+2
$SG230678 DB	'AI_STRATEGY_AREA_IS_FULL_PERCENT', 00H
	ORG $+3
$SG230679 DB	'AI_STRATEGY_MINIMUM_SETTLE_FERTILITY', 00H
	ORG $+3
$SG230680 DB	'AI_BUY_PLOT_TEST_PROBES', 00H
$SG230681 DB	'AI_PLOT_VALUE_STRATEGIC_RESOURCE', 00H
	ORG $+3
$SG230682 DB	'AI_PLOT_VALUE_LUXURY_RESOURCE', 00H
	ORG $+2
$SG230683 DB	'AI_PLOT_VALUE_SPECIALIZATION_MULTIPLIER', 00H
$SG230684 DB	'AI_PLOT_VALUE_YIELD_MULTIPLIER', 00H
	ORG $+1
$SG230685 DB	'AI_PLOT_VALUE_DEFICIENT_YIELD_MULTIPLIER', 00H
	ORG $+3
$SG230686 DB	'AI_PLOT_VALUE_FIERCE_DISPUTE', 00H
	ORG $+3
$SG230687 DB	'AI_PLOT_VALUE_STRONG_DISPUTE', 00H
	ORG $+3
$SG230688 DB	'AI_PLOT_VALUE_WEAK_DISPUTE', 00H
	ORG $+1
$SG230689 DB	'AI_GOLD_PRIORITY_MINIMUM_PLOT_BUY_VALUE', 00H
$SG230690 DB	'AI_GOLD_BALANCE_TO_HALVE_PLOT_BUY_MINIMUM', 00H
	ORG $+2
$SG230691 DB	'AI_GOLD_PRIORITY_UPGRADE_BASE', 00H
	ORG $+2
$SG230692 DB	'AI_GOLD_PRIORITY_UPGRADE_PER_FLAVOR_POINT', 00H
	ORG $+2
$SG230693 DB	'AI_GOLD_PRIORITY_DIPLOMACY_BASE', 00H
$SG230694 DB	'AI_GOLD_PRIORITY_DIPLOMACY_PER_FLAVOR_POINT', 00H
$SG230695 DB	'AI_GOLD_PRIORITY_UNIT', 00H
	ORG $+2
$SG230696 DB	'AI_GOLD_PRIORITY_DEFENSIVE_BUILDING', 00H
$SG230697 DB	'AI_GOLD_PRIORITY_BUYOUT_CITY_STATE', 00H
	ORG $+1
$SG230698 DB	'BUILDER_TASKING_PLOT_EVAL_MULTIPLIER_FOOD', 00H
	ORG $+2
$SG230699 DB	'BUILDER_TASKING_PLOT_EVAL_MULTIPLIER_PRODUCTION', 00H
$SG230700 DB	'BUILDER_TASKING_PLOT_EVAL_MULTIPLIER_GOLD', 00H
	ORG $+2
$SG230701 DB	'BUILDER_TASKING_PLOT_EVAL_MULTIPLIER_SCIENCE', 00H
	ORG $+3
$SG230702 DB	'BUILDER_TASKING_PLOT_EVAL_MULTIPLIER_CULTURE', 00H
	ORG $+3
$SG230703 DB	'BUILDER_TASKING_PLOT_EVAL_MULTIPLIER_LUXURY_RESOURCE', 00H
	ORG $+3
$SG230704 DB	'BUILDER_TASKING_IMPROVE_RESOURCE_TENDENCY', 00H
	ORG $+2
$SG230705 DB	'BUILDER_TASKING_BUILD_ROUTE_TENDENCY', 00H
	ORG $+3
$SG230706 DB	'BUILDER_TASKING_DIRECTIVES_TO_EVALUATE', 00H
	ORG $+1
$SG230707 DB	'BUILDER_TASKING_BASELINE_BUILD_IMPROVEMENTS', 00H
$SG230708 DB	'BUILDER_TASKING_BASELINE_BUILD_RESOURCE_IMPROVEMENTS', 00H
	ORG $+3
$SG230709 DB	'BUILDER_TASKING_BASELINE_BUILD_ROUTES', 00H
	ORG $+2
$SG230710 DB	'BUILDER_TASKING_BASELINE_REPAIR', 00H
$SG230711 DB	'BUILDER_TASKING_BASELINE_SCRUB_FALLOUT', 00H
	ORG $+1
$SG230712 DB	'BUILDER_TASKING_BASELINE_ADDS_CULTURE', 00H
	ORG $+2
$SG230713 DB	'AI_MILITARY_THREAT_WEIGHT_MINOR', 00H
$SG230714 DB	'AI_MILITARY_THREAT_WEIGHT_MAJOR', 00H
$SG230715 DB	'AI_MILITARY_THREAT_WEIGHT_SEVERE', 00H
	ORG $+3
$SG230716 DB	'AI_MILITARY_THREAT_WEIGHT_CRITICAL', 00H
	ORG $+1
$SG230717 DB	'AI_STRATEGY_DEFEND_MY_LANDS_BASE_UNITS', 00H
	ORG $+1
$SG230718 DB	'AI_STRATEGY_MILITARY_RESERVE_PERCENTAGE', 00H
$SG230719 DB	'AI_MILITARY_CITY_THREAT_WEIGHT_CAPITAL', 00H
	ORG $+1
$SG230720 DB	'AI_MILITARY_BARBARIANS_FOR_MINOR_THREAT', 00H
$SG230721 DB	'AI_MILITARY_IGNORE_BAD_ODDS', 00H
$SG230722 DB	'AI_MILITARY_RECAPTURING_OWN_CITY', 00H
	ORG $+3
$SG230723 DB	'AI_MILITARY_CAPTURING_ORIGINAL_CAPITAL', 00H
	ORG $+1
$SG230724 DB	'AI_CITY_SPECIALIZATION_EARLIEST_TURN', 00H
	ORG $+3
$SG230725 DB	'AI_CITY_SPECIALIZATION_REEVALUATION_INTERVAL', 00H
	ORG $+3
$SG230726 DB	'AI_CITY_SPECIALIZATION_GENERAL_ECONOMIC_WEIGHT', 00H
	ORG $+1
$SG230727 DB	'AI_CITY_SPECIALIZATION_FOOD_WEIGHT_FLAVOR_EXPANSION', 00H
$SG230728 DB	'AI_CITY_SPECIALIZATION_FOOD_WEIGHT_PERCENT_CONTINENT_UNO'
	DB	'WNED', 00H
	ORG $+3
$SG230729 DB	'AI_CITY_SPECIALIZATION_FOOD_WEIGHT_NUM_CITIES', 00H
	ORG $+2
$SG230730 DB	'AI_CITY_SPECIALIZATION_FOOD_WEIGHT_NUM_SETTLERS', 00H
$SG230731 DB	'AI_CITY_SPECIALIZATION_FOOD_WEIGHT_EARLY_EXPANSION', 00H
	ORG $+5
$SG230732 DB	'AI_CITY_SPECIALIZATION_PRODUCTION_WEIGHT_OPERATIONAL_UNI'
	DB	'TS_REQUESTED', 00H
	ORG $+3
$SG230733 DB	'AI_CITY_SPECIALIZATION_PRODUCTION_WEIGHT_CIVS_AT_WAR_WIT'
	DB	'H', 00H
	ORG $+2
$SG230734 DB	'AI_CITY_SPECIALIZATION_PRODUCTION_WEIGHT_WAR_MOBILIZATIO'
	DB	'N', 00H
	ORG $+2
$SG230735 DB	'AI_CITY_SPECIALIZATION_PRODUCTION_WEIGHT_EMPIRE_DEFENSE', 00H
$SG230736 DB	'AI_CITY_SPECIALIZATION_PRODUCTION_WEIGHT_EMPIRE_DEFENSE_'
	DB	'CRITICAL', 00H
	ORG $+3
$SG230737 DB	'AI_CITY_SPECIALIZATION_PRODUCTION_WEIGHT_CAPITAL_THREAT', 00H
$SG230738 DB	'AI_CITY_SPECIALIZATION_PRODUCTION_WEIGHT_NEED_NAVAL_UNIT'
	DB	'S', 00H
	ORG $+2
$SG230739 DB	'AI_CITY_SPECIALIZATION_PRODUCTION_WEIGHT_NEED_NAVAL_UNIT'
	DB	'S_CRITICAL', 00H
	ORG $+1
$SG230740 DB	'AI_CITY_SPECIALIZATION_PRODUCTION_WEIGHT_FLAVOR_WONDER', 00H
	ORG $+1
$SG230741 DB	'AI_CITY_SPECIALIZATION_PRODUCTION_WEIGHT_FLAVOR_SPACESHI'
	DB	'P', 00H
	ORG $+2
$SG230742 DB	'AI_CITY_SPECIALIZATION_PRODUCTION_TRAINING_PER_OFFENSE', 00H
	ORG $+1
$SG230743 DB	'AI_CITY_SPECIALIZATION_PRODUCTION_TRAINING_PER_PERSONALI'
	DB	'TY', 00H
	ORG $+1
$SG230744 DB	'AI_CITY_SPECIALIZATION_GOLD_WEIGHT_FLAVOR_GOLD', 00H
	ORG $+1
$SG230745 DB	'AI_CITY_SPECIALIZATION_GOLD_WEIGHT_LAND_DISPUTE', 00H
$SG230746 DB	'AI_CITY_SPECIALIZATION_SCIENCE_WEIGHT_FLAVOR_SCIENCE', 00H
	ORG $+3
$SG230747 DB	'AI_CITY_SPECIALIZATION_SCIENCE_WEIGHT_FLAVOR_SPACESHIP', 00H
	ORG $+1
$SG230748 DB	'AI_CITY_SPECIALIZATION_YIELD_WEIGHT_FIRST_RING', 00H
	ORG $+1
$SG230749 DB	'AI_CITY_SPECIALIZATION_YIELD_WEIGHT_SECOND_RING', 00H
$SG230750 DB	'AI_CITY_SPECIALIZATION_YIELD_WEIGHT_THIRD_RING', 00H
	ORG $+1
$SG230751 DB	'AI_CITY_SPECIALIZATION_YIELD_NUM_TILES_CONSIDERED', 00H
	ORG $+2
$SG230752 DB	'AI_CITYSTRATEGY_SMALL_CITY_POP_THRESHOLD', 00H
	ORG $+3
$SG230753 DB	'AI_CITYSTRATEGY_MEDIUM_CITY_POP_THRESHOLD', 00H
	ORG $+2
$SG230754 DB	'AI_CITYSTRATEGY_LARGE_CITY_POP_THRESHOLD', 00H
	ORG $+3
$SG230755 DB	'AI_CITYSTRATEGY_NEED_TILE_IMPROVERS_CITY_THRESHOLD', 00H
	ORG $+1
$SG230756 DB	'AI_CITYSTRATEGY_NEED_TILE_IMPROVERS_WORKER_MOD', 00H
	ORG $+1
$SG230757 DB	'AI_CITYSTRATEGY_NEED_TILE_IMPROVERS_DESPERATE_TURN', 00H
	ORG $+1
$SG230758 DB	'AI_CITYSTRATEGY_WANT_TILE_IMPROVERS_MINIMUM_SIZE', 00H
	ORG $+3
$SG230759 DB	'AI_CITYSTRATEGY_YIELD_DEFICIENT_FOOD', 00H
	ORG $+3
$SG230760 DB	'AI_CITYSTRATEGY_YIELD_DEFICIENT_PRODUCTION', 00H
	ORG $+1
$SG230761 DB	'AI_CITYSTRATEGY_YIELD_DEFICIENT_GOLD', 00H
	ORG $+3
$SG230762 DB	'AI_CITYSTRATEGY_YIELD_DEFICIENT_SCIENCE', 00H
$SG230763 DB	'AI_CITYSTRATEGY_OPERATION_UNIT_BASE_WEIGHT', 00H
	ORG $+1
$SG230764 DB	'AI_CITYSTRATEGY_OPERATION_UNIT_FLAVOR_MULTIPLIER', 00H
	ORG $+3
$SG230765 DB	'AI_CITYSTRATEGY_ARMY_UNIT_BASE_WEIGHT', 00H
	ORG $+2
$SG230766 DB	'AI_CITIZEN_VALUE_FOOD', 00H
	ORG $+2
$SG230767 DB	'AI_CITIZEN_VALUE_PRODUCTION', 00H
$SG230768 DB	'AI_CITIZEN_VALUE_GOLD', 00H
	ORG $+2
$SG230769 DB	'AI_CITIZEN_VALUE_SCIENCE', 00H
	ORG $+3
$SG230770 DB	'AI_CITIZEN_VALUE_CULTURE', 00H
	ORG $+3
$SG230771 DB	'AI_CITIZEN_VALUE_FAITH', 00H
	ORG $+1
$SG230772 DB	'AI_CITIZEN_FOOD_MOD_SIZE_CUTOFF', 00H
$SG230773 DB	'AI_CITIZEN_FOOD_MOD_SIZE_EXPONENT', 00H
	ORG $+2
$SG230774 DB	'AI_CITIZEN_MOD_FOOD_DEFICIT', 00H
$SG230775 DB	'AI_CITIZEN_MOD_PRODUCTION_DEFICIT', 00H
	ORG $+2
$SG230776 DB	'AI_OPERATIONAL_BARBARIAN_CAMP_DEPLOY_RANGE', 00H
	ORG $+1
$SG230777 DB	'AI_OPERATIONAL_CITY_ATTACK_DEPLOY_RANGE', 00H
$SG230778 DB	'AI_OPERATIONAL_PILLAGE_ENEMY_DEPLOY_RANGE', 00H
	ORG $+2
$SG230779 DB	'AI_OPERATIONAL_NAVAL_BOMBARDMENT_DEPLOY_RANGE', 00H
	ORG $+2
$SG230780 DB	'AI_OPERATIONAL_PERCENT_DANGER_FOR_FORWARD_MUSTER', 00H
	ORG $+3
$SG230781 DB	'AI_OPERATIONAL_PERCENT_HEALTH_FOR_OPERATION', 00H
$SG230782 DB	'AI_TACTICAL_MAP_UNIT_STRENGTH_MULTIPLIER', 00H
	ORG $+3
$SG230783 DB	'AI_TACTICAL_MAP_DOMINANCE_PERCENTAGE', 00H
	ORG $+3
$SG230784 DB	'AI_TACTICAL_MAP_TEMP_ZONE_RADIUS', 00H
	ORG $+3
$SG230785 DB	'AI_TACTICAL_MAP_TEMP_ZONE_TURNS', 00H
$SG230786 DB	'AI_TACTICAL_MAP_BOMBARDMENT_ZONE_TURNS', 00H
	ORG $+1
$SG230787 DB	'AI_TACTICAL_RECRUIT_RANGE', 00H
	ORG $+2
$SG230788 DB	'AI_TACTICAL_REPOSITION_RANGE', 00H
	ORG $+3
$SG230789 DB	'AI_TACTICAL_OVERKILL_PERCENT', 00H
	ORG $+3
$SG230790 DB	'AI_TACTICAL_BARBARIAN_RELEASE_VARIATION', 00H
$SG230791 DB	'AI_TACTICAL_MOVE_PRIORITY_RANDOMNESS', 00H
	ORG $+3
$SG230792 DB	'AI_TACTICAL_BARBARIAN_PRIORITY_CAPTURE_CITY', 00H
$SG230793 DB	'AI_TACTICAL_BARBARIAN_PRIORITY_DAMAGE_CITY', 00H
	ORG $+1
$SG230794 DB	'AI_TACTICAL_BARBARIAN_PRIORITY_DESTROY_HIGH_UNIT', 00H
	ORG $+3
$SG230795 DB	'AI_TACTICAL_BARBARIAN_PRIORITY_DESTROY_MEDIUM_UNIT', 00H
	ORG $+1
$SG230796 DB	'AI_TACTICAL_BARBARIAN_PRIORITY_DESTROY_LOW_UNIT', 00H
$SG230797 DB	'AI_TACTICAL_BARBARIAN_PRIORITY_TO_SAFETY', 00H
	ORG $+3
$SG230798 DB	'AI_TACTICAL_BARBARIAN_PRIORITY_ATTRIT_HIGH_UNIT', 00H
$SG230799 DB	'AI_TACTICAL_BARBARIAN_PRIORITY_ATTRIT_MEDIUM_UNIT', 00H
	ORG $+2
$SG230800 DB	'AI_TACTICAL_BARBARIAN_PRIORITY_ATTRIT_LOW_UNIT', 00H
	ORG $+1
$SG230801 DB	'AI_TACTICAL_BARBARIAN_PRIORITY_DESPERATE_ATTACK', 00H
$SG230802 DB	'AI_TACTICAL_BARBARIAN_PRIORITY_PILLAGE', 00H
	ORG $+1
$SG230803 DB	'AI_TACTICAL_BARBARIAN_PRIORITY_PILLAGE_CITADEL', 00H
	ORG $+1
$SG230804 DB	'AI_TACTICAL_BARBARIAN_PRIORITY_PILLAGE_NEXT_TURN', 00H
	ORG $+3
$SG230805 DB	'AI_TACTICAL_BARBARIAN_PRIORITY_BLOCKADE_RESOURCE', 00H
	ORG $+3
$SG230806 DB	'AI_TACTICAL_BARBARIAN_PRIORITY_CIVILIAN_ATTACK', 00H
	ORG $+1
$SG230807 DB	'AI_TACTICAL_BARBARIAN_PRIORITY_PASSIVE_MOVE', 00H
$SG230808 DB	'AI_TACTICAL_BARBARIAN_PRIORITY_AGGRESSIVE_MOVE', 00H
	ORG $+1
$SG230809 DB	'AI_TACTICAL_BARBARIAN_PRIORITY_CAMP_DEFENSE', 00H
$SG230810 DB	'AI_TACTICAL_BARBARIAN_PRIORITY_ESCORT_CIVILIAN', 00H
	ORG $+1
$SG230811 DB	'AI_TACTICAL_BARBARIAN_PRIORITY_PLUNDER_TRADE_UNIT', 00H
	ORG $+2
$SG230812 DB	'AI_HOMELAND_MOVE_PRIORITY_RANDOMNESS', 00H
	ORG $+3
$SG230813 DB	'AI_HOMELAND_MAX_UPGRADE_MOVE_TURNS', 00H
	ORG $+1
$SG230814 DB	'AI_HOMELAND_MAX_DEFENSIVE_MOVE_TURNS', 00H
	ORG $+3
$SG230815 DB	'AI_HOMELAND_ESTIMATE_TURNS_DISTANCE', 00H
$SG230816 DB	'AI_HOMELAND_MOVE_PRIORITY_SETTLE', 00H
	ORG $+3
$SG230817 DB	'AI_HOMELAND_MOVE_PRIORITY_HEAL', 00H
	ORG $+1
$SG230818 DB	'AI_HOMELAND_MOVE_PRIORITY_TO_SAFETY', 00H
$SG230819 DB	'AI_HOMELAND_MOVE_PRIORITY_WORKER', 00H
	ORG $+3
$SG230820 DB	'AI_HOMELAND_MOVE_PRIORITY_WORKER_SEA', 00H
	ORG $+3
$SG230821 DB	'AI_HOMELAND_MOVE_PRIORITY_EXPLORE', 00H
	ORG $+2
$SG230822 DB	'AI_HOMELAND_MOVE_PRIORITY_EXPLORE_SEA', 00H
	ORG $+2
$SG230823 DB	'AI_HOMELAND_MOVE_PRIORITY_SENTRY', 00H
	ORG $+3
$SG230824 DB	'AI_HOMELAND_MOVE_PRIORITY_MOBILE_RESERVE', 00H
	ORG $+3
$SG230825 DB	'AI_HOMELAND_MOVE_PRIORITY_GARRISON', 00H
	ORG $+1
$SG230826 DB	'AI_HOMELAND_MOVE_PRIORITY_PATROL', 00H
	ORG $+3
$SG230827 DB	'AI_HOMELAND_MOVE_PRIORITY_UPGRADE', 00H
	ORG $+2
$SG230828 DB	'AI_HOMELAND_MOVE_PRIORITY_ANCIENT_RUINS', 00H
$SG230829 DB	'AI_HOMELAND_MOVE_PRIORITY_GARRISON_CITY_STATE', 00H
	ORG $+2
$SG230830 DB	'AI_HOMELAND_MOVE_PRIORITY_WRITER', 00H
	ORG $+3
$SG230831 DB	'AI_HOMELAND_MOVE_PRIORITY_ARTIST', 00H
	ORG $+3
$SG230832 DB	'AI_HOMELAND_MOVE_PRIORITY_MUSICIAN', 00H
	ORG $+1
$SG230833 DB	'AI_HOMELAND_MOVE_PRIORITY_SCIENTIST_FREE_TECH', 00H
	ORG $+2
$SG230834 DB	'AI_HOMELAND_MOVE_PRIORITY_ENGINEER_HURRY', 00H
	ORG $+3
$SG230835 DB	'AI_HOMELAND_MOVE_PRIORITY_GENERAL_GARRISON', 00H
	ORG $+1
$SG230836 DB	'AI_HOMELAND_MOVE_PRIORITY_ADMIRAL_GARRISON', 00H
	ORG $+1
$SG230837 DB	'AI_HOMELAND_MOVE_PRIORITY_PROPHET_RELIGION', 00H
	ORG $+1
$SG230838 DB	'AI_HOMELAND_MOVE_PRIORITY_MISSIONARY', 00H
	ORG $+3
$SG230839 DB	'AI_HOMELAND_MOVE_PRIORITY_INQUISITOR', 00H
	ORG $+3
$SG230840 DB	'AI_HOMELAND_MOVE_PRIORITY_AIRCRAFT_TO_THE_FRONT', 00H
$SG230841 DB	'AI_HOMELAND_MOVE_PRIORITY_SPACESHIP_PART', 00H
	ORG $+3
$SG230842 DB	'AI_HOMELAND_MOVE_PRIORITY_ADD_SPACESHIP_PART', 00H
	ORG $+3
$SG230843 DB	'AI_HOMELAND_MOVE_PRIORITY_TREASURE', 00H
	ORG $+1
$SG230844 DB	'AI_HOMELAND_MOVE_PRIORITY_TRADE_UNIT', 00H
	ORG $+3
$SG230845 DB	'AI_HOMELAND_MOVE_PRIORITY_ARCHAEOLOGIST', 00H
$SG230846 DB	'AI_HOMELAND_MOVE_PRIORITY_AIRLIFT', 00H
	ORG $+2
$SG230847 DB	'AI_HOMELAND_GREAT_PERSON_TURNS_TO_WAIT', 00H
	ORG $+1
$SG230848 DB	'AI_DIPLO_PLOT_RANGE_FROM_CITY_HOME_FRONT', 00H
	ORG $+3
$SG230849 DB	'AI_DIPLO_LAND_DISPUTE_WEIGHT_WEAK', 00H
	ORG $+2
$SG230850 DB	'AI_DIPLO_LAND_DISPUTE_WEIGHT_STRONG', 00H
$SG230851 DB	'AI_DIPLO_LAND_DISPUTE_WEIGHT_FIERCE', 00H
$SG230852 DB	'MINOR_BULLY_GOLD', 00H
	ORG $+3
$SG230853 DB	'MINOR_FRIENDSHIP_RATE_MOD_MAXIMUM', 00H
	ORG $+2
$SG230854 DB	'MINOR_FRIENDSHIP_RATE_MOD_SHARED_RELIGION', 00H
	ORG $+2
$SG230855 DB	'MINOR_FRIENDSHIP_DROP_PER_TURN', 00H
	ORG $+1
$SG230856 DB	'MINOR_FRIENDSHIP_DROP_PER_TURN_HOSTILE', 00H
	ORG $+1
$SG230857 DB	'MINOR_FRIENDSHIP_DROP_PER_TURN_AGGRESSOR', 00H
	ORG $+3
$SG230858 DB	'MINOR_FRIENDSHIP_DROP_DISHONOR_PLEDGE_TO_PROTECT', 00H
	ORG $+3
$SG230859 DB	'MINOR_FRIENDSHIP_DROP_BULLY_GOLD_SUCCESS', 00H
	ORG $+3
$SG230860 DB	'MINOR_FRIENDSHIP_DROP_BULLY_GOLD_FAILURE', 00H
	ORG $+3
$SG230861 DB	'MINOR_FRIENDSHIP_DROP_BULLY_WORKER_SUCCESS', 00H
	ORG $+1
$SG230862 DB	'MINOR_FRIENDSHIP_DROP_BULLY_WORKER_FAILURE', 00H
	ORG $+1
$SG230863 DB	'MINOR_FRIENDSHIP_NEGATIVE_INCREASE_PER_TURN', 00H
$SG230864 DB	'MINOR_FRIENDSHIP_AT_WAR', 00H
$SG230865 DB	'MINOR_CIV_AGGRESSOR_THRESHOLD', 00H
	ORG $+2
$SG230866 DB	'MINOR_CIV_WARMONGER_THRESHOLD', 00H
	ORG $+2
$SG230867 DB	'PERMANENT_WAR_AGGRESSOR_CHANCE', 00H
	ORG $+1
$SG230868 DB	'PERMANENT_WAR_OTHER_WARMONGER_CHANCE_DISTANT', 00H
	ORG $+3
$SG230869 DB	'PERMANENT_WAR_OTHER_WARMONGER_CHANCE_FAR', 00H
	ORG $+3
$SG230870 DB	'PERMANENT_WAR_OTHER_WARMONGER_CHANCE_CLOSE', 00H
	ORG $+1
$SG230871 DB	'PERMANENT_WAR_OTHER_WARMONGER_CHANCE_NEIGHBORS', 00H
	ORG $+1
$SG230872 DB	'PERMANENT_WAR_OTHER_CHANCE_DISTANT', 00H
	ORG $+1
$SG230873 DB	'PERMANENT_WAR_OTHER_CHANCE_FAR', 00H
	ORG $+1
$SG230874 DB	'PERMANENT_WAR_OTHER_CHANCE_CLOSE', 00H
	ORG $+3
$SG230875 DB	'PERMANENT_WAR_OTHER_CHANCE_NEIGHBORS', 00H
	ORG $+3
$SG230876 DB	'PERMANENT_WAR_OTHER_AT_WAR', 00H
	ORG $+1
$SG230877 DB	'FRIENDSHIP_NEUTRAL_ON_DEATH', 00H
$SG230878 DB	'FRIENDSHIP_THRESHOLD_NEUTRAL', 00H
	ORG $+3
$SG230879 DB	'FRIENDSHIP_FRIENDS_ON_DEATH', 00H
$SG230880 DB	'FRIENDSHIP_THRESHOLD_FRIENDS', 00H
	ORG $+3
$SG230881 DB	'FRIENDSHIP_ALLIES_ON_DEATH', 00H
	ORG $+1
$SG230882 DB	'FRIENDSHIP_THRESHOLD_ALLIES', 00H
$SG230883 DB	'FRIENDSHIP_THRESHOLD_MAX', 00H
	ORG $+3
$SG230884 DB	'FRIENDSHIP_THRESHOLD_CAN_BULLY', 00H
	ORG $+1
$SG230885 DB	'FRIENDSHIP_THRESHOLD_CAN_PLEDGE_TO_PROTECT', 00H
	ORG $+1
$SG230886 DB	'MINOR_FRIENDSHIP_CLOSE_AMOUNT', 00H
	ORG $+2
$SG230887 DB	'MINOR_CIV_SCIENCE_BONUS_MULTIPLIER', 00H
	ORG $+1
$SG230888 DB	'FRIENDS_CULTURE_BONUS_AMOUNT_ANCIENT', 00H
	ORG $+3
$SG230889 DB	'FRIENDS_CULTURE_BONUS_AMOUNT_MEDIEVAL', 00H
	ORG $+2
$SG230890 DB	'FRIENDS_CULTURE_BONUS_AMOUNT_INDUSTRIAL', 00H
$SG230891 DB	'ALLIES_CULTURE_BONUS_AMOUNT_ANCIENT', 00H
$SG230892 DB	'ALLIES_CULTURE_BONUS_AMOUNT_MEDIEVAL', 00H
	ORG $+3
$SG230893 DB	'ALLIES_CULTURE_BONUS_AMOUNT_INDUSTRIAL', 00H
	ORG $+1
$SG230894 DB	'FRIENDS_CAPITAL_FOOD_BONUS_AMOUNT_PRE_RENAISSANCE', 00H
	ORG $+2
$SG230895 DB	'FRIENDS_CAPITAL_FOOD_BONUS_AMOUNT_POST_RENAISSANCE', 00H
	ORG $+1
$SG230896 DB	'FRIENDS_OTHER_CITIES_FOOD_BONUS_AMOUNT_PRE_RENAISSANCE', 00H
	ORG $+1
$SG230897 DB	'FRIENDS_OTHER_CITIES_FOOD_BONUS_AMOUNT_POST_RENAISSANCE', 00H
$SG230898 DB	'ALLIES_CAPITAL_FOOD_BONUS_AMOUNT', 00H
	ORG $+3
$SG230899 DB	'ALLIES_OTHER_CITIES_FOOD_BONUS_AMOUNT', 00H
	ORG $+2
$SG230900 DB	'FRIENDS_BASE_TURNS_UNIT_SPAWN', 00H
	ORG $+2
$SG230901 DB	'FRIENDS_RAND_TURNS_UNIT_SPAWN', 00H
	ORG $+2
$SG230902 DB	'ALLIES_EXTRA_TURNS_UNIT_SPAWN', 00H
	ORG $+2
$SG230903 DB	'UNIT_SPAWN_BIAS_MULTIPLIER', 00H
	ORG $+1
$SG230904 DB	'UNIT_SPAWN_NUM_CHOICES', 00H
	ORG $+1
$SG230905 DB	'FRIENDS_HAPPINESS_FLAT_BONUS_AMOUNT_ANCIENT', 00H
$SG230906 DB	'FRIENDS_HAPPINESS_FLAT_BONUS_AMOUNT_MEDIEVAL', 00H
	ORG $+3
$SG230907 DB	'FRIENDS_HAPPINESS_FLAT_BONUS_AMOUNT_INDUSTRIAL', 00H
	ORG $+1
$SG230908 DB	'ALLIES_HAPPINESS_FLAT_BONUS_AMOUNT_ANCIENT', 00H
	ORG $+1
$SG230909 DB	'ALLIES_HAPPINESS_FLAT_BONUS_AMOUNT_MEDIEVAL', 00H
$SG230910 DB	'ALLIES_HAPPINESS_FLAT_BONUS_AMOUNT_INDUSTRIAL', 00H
	ORG $+2
$SG230911 DB	'FRIENDS_HAPPINESS_PER_LUXURY_BONUS_AMOUNT_ANCIENT', 00H
	ORG $+2
$SG230912 DB	'FRIENDS_HAPPINESS_PER_LUXURY_BONUS_AMOUNT_MEDIEVAL', 00H
	ORG $+1
$SG230913 DB	'FRIENDS_HAPPINESS_PER_LUXURY_BONUS_AMOUNT_INDUSTRIAL', 00H
	ORG $+3
$SG230914 DB	'ALLIES_HAPPINESS_PER_LUXURY_BONUS_AMOUNT_ANCIENT', 00H
	ORG $+3
$SG230915 DB	'ALLIES_HAPPINESS_PER_LUXURY_BONUS_AMOUNT_MEDIEVAL', 00H
	ORG $+2
$SG230916 DB	'ALLIES_HAPPINESS_PER_LUXURY_BONUS_AMOUNT_INDUSTRIAL', 00H
$SG230917 DB	'FRIENDS_FAITH_FLAT_BONUS_AMOUNT_INDUSTRIAL', 00H
	ORG $+1
$SG230918 DB	'FRIENDS_FAITH_FLAT_BONUS_AMOUNT_RENAISSANCE', 00H
$SG230919 DB	'FRIENDS_FAITH_FLAT_BONUS_AMOUNT_MEDIEVAL', 00H
	ORG $+3
$SG230920 DB	'FRIENDS_FAITH_FLAT_BONUS_AMOUNT_CLASSICAL', 00H
	ORG $+2
$SG230921 DB	'FRIENDS_FAITH_FLAT_BONUS_AMOUNT_ANCIENT', 00H
$SG230922 DB	'ALLIES_FAITH_FLAT_BONUS_AMOUNT_INDUSTRIAL', 00H
	ORG $+2
$SG230923 DB	'ALLIES_FAITH_FLAT_BONUS_AMOUNT_RENAISSANCE', 00H
	ORG $+1
$SG230924 DB	'ALLIES_FAITH_FLAT_BONUS_AMOUNT_MEDIEVAL', 00H
$SG230925 DB	'ALLIES_FAITH_FLAT_BONUS_AMOUNT_CLASSICAL', 00H
	ORG $+3
$SG230926 DB	'ALLIES_FAITH_FLAT_BONUS_AMOUNT_ANCIENT', 00H
	ORG $+1
$SG230927 DB	'MINOR_TURNS_GREAT_PEOPLE_SPAWN_BASE', 00H
$SG230928 DB	'MINOR_TURNS_GREAT_PEOPLE_SPAWN_RAND', 00H
$SG230929 DB	'MINOR_TURNS_GREAT_PEOPLE_SPAWN_BIAS_MULTIPLY', 00H
	ORG $+3
$SG230930 DB	'MINOR_ADDITIONAL_ALLIES_GP_CHANGE', 00H
	ORG $+2
$SG230931 DB	'MAX_MINOR_ADDITIONAL_ALLIES_GP_CHANGE', 00H
	ORG $+2
$SG230932 DB	'MAX_DISTANCE_MINORS_BARB_QUEST', 00H
	ORG $+1
$SG230933 DB	'TXT_KEY_MINOR_GIFT_UNITS_REMINDER', 00H
	ORG $+2
$SG230934 DB	'WAR_QUEST_COMPLETE_FRIENDSHIP', 00H
	ORG $+2
$SG230935 DB	'WAR_QUEST_UNITS_TO_KILL_DIVISOR', 00H
$SG230936 DB	'WAR_QUEST_MIN_UNITS_TO_KILL', 00H
$SG230937 DB	'MINOR_QUEST_FRIENDSHIP_ROUTE', 00H
	ORG $+3
$SG230938 DB	'MINOR_QUEST_FRIENDSHIP_KILL_CAMP', 00H
	ORG $+3
$SG230939 DB	'MINOR_QUEST_FRIENDSHIP_CONNECT_RESOURCE', 00H
$SG230940 DB	'MINOR_QUEST_FRIENDSHIP_CONSTRUCT_WONDER', 00H
$SG230941 DB	'MINOR_QUEST_FRIENDSHIP_GREAT_PERSON', 00H
$SG230942 DB	'MINOR_QUEST_FRIENDSHIP_KILL_CITY_STATE', 00H
	ORG $+1
$SG230943 DB	'MINOR_QUEST_FRIENDSHIP_FIND_PLAYER', 00H
	ORG $+1
$SG230944 DB	'MINOR_QUEST_FRIENDSHIP_FIND_NATURAL_WONDER', 00H
	ORG $+1
$SG230945 DB	'MINOR_QUEST_FRIENDSHIP_GIVE_GOLD', 00H
	ORG $+3
$SG230946 DB	'MINOR_QUEST_FRIENDSHIP_PLEDGE_TO_PROTECT', 00H
	ORG $+3
$SG230947 DB	'MINOR_QUEST_FRIENDSHIP_CONTEST_CULTURE', 00H
	ORG $+1
$SG230948 DB	'MINOR_QUEST_FRIENDSHIP_CONTEST_FAITH', 00H
	ORG $+3
$SG230949 DB	'MINOR_QUEST_FRIENDSHIP_CONTEST_TECHS', 00H
	ORG $+3
$SG230950 DB	'MINOR_QUEST_FRIENDSHIP_INVEST', 00H
	ORG $+2
$SG230951 DB	'MINOR_QUEST_FRIENDSHIP_BULLY_CITY_STATE', 00H
$SG230952 DB	'MINOR_QUEST_FRIENDSHIP_DENOUNCE_MAJOR', 00H
	ORG $+2
$SG230953 DB	'MINOR_QUEST_FRIENDSHIP_SPREAD_RELIGION', 00H
	ORG $+1
$SG230954 DB	'MINOR_QUEST_FRIENDSHIP_TRADE_ROUTE', 00H
	ORG $+1
$SG230955 DB	'MINOR_QUEST_STANDARD_CONTEST_LENGTH', 00H
$SG230956 DB	'MINOR_CIV_GOLD_GIFT_GAME_MULTIPLIER', 00H
$SG230957 DB	'MINOR_CIV_GOLD_GIFT_GAME_DIVISOR', 00H
	ORG $+3
$SG230958 DB	'MINOR_CIV_GOLD_GIFT_VISIBLE_DIVISOR', 00H
$SG230959 DB	'MINOR_CIV_GOLD_GIFT_MINIMUM_FRIENDSHIP_REWARD', 00H
	ORG $+2
$SG230960 DB	'MINOR_CIV_BEST_RELATIONS_HAPPINESS_BONUS', 00H
	ORG $+3
$SG230961 DB	'MINOR_CIV_RESOURCE_SEARCH_RADIUS', 00H
	ORG $+3
$SG230962 DB	'FRIENDSHIP_PER_UNIT_INTRUDING', 00H
	ORG $+2
$SG230963 DB	'FRIENDSHIP_PER_BARB_KILLED', 00H
	ORG $+1
$SG230964 DB	'FRIENDSHIP_PER_UNIT_GIFTED', 00H
	ORG $+1
$SG230965 DB	'MAX_INFLUENCE_FROM_MINOR_GIFTS', 00H
	ORG $+1
$SG230966 DB	'MINOR_LIBERATION_FRIENDSHIP', 00H
$SG230967 DB	'RETURN_CIVILIAN_FRIENDSHIP', 00H
	ORG $+1
$SG230968 DB	'MINOR_CIV_MAX_GLOBAL_QUESTS_FOR_PLAYER', 00H
	ORG $+1
$SG230969 DB	'MINOR_CIV_MAX_PERSONAL_QUESTS_FOR_PLAYER', 00H
	ORG $+3
$SG230970 DB	'MINOR_CIV_GLOBAL_QUEST_FIRST_POSSIBLE_TURN', 00H
	ORG $+1
$SG230971 DB	'MINOR_CIV_GLOBAL_QUEST_FIRST_POSSIBLE_TURN_RAND', 00H
$SG230972 DB	'MINOR_CIV_GLOBAL_QUEST_MIN_TURNS_BETWEEN', 00H
	ORG $+3
$SG230973 DB	'MINOR_CIV_GLOBAL_QUEST_RAND_TURNS_BETWEEN', 00H
	ORG $+2
$SG230974 DB	'MINOR_CIV_GLOBAL_QUEST_RAND_TURNS_BETWEEN_HOSTILE_MULTIP'
	DB	'LIER', 00H
	ORG $+3
$SG230975 DB	'MINOR_CIV_PERSONAL_QUEST_FIRST_POSSIBLE_TURN', 00H
	ORG $+3
$SG230976 DB	'MINOR_CIV_PERSONAL_QUEST_FIRST_POSSIBLE_TURN_RAND', 00H
	ORG $+2
$SG230977 DB	'MINOR_CIV_PERSONAL_QUEST_MIN_TURNS_BETWEEN', 00H
	ORG $+1
$SG230978 DB	'MINOR_CIV_PERSONAL_QUEST_RAND_TURNS_BETWEEN', 00H
$SG230979 DB	'MINOR_CIV_PERSONAL_QUEST_RAND_TURNS_BETWEEN_HOSTILE_MULT'
	DB	'IPLIER', 00H
	ORG $+1
$SG230980 DB	'MINOR_CIV_QUEST_KILL_CAMP_RANGE', 00H
$SG230981 DB	'MINOR_CIV_QUEST_WONDER_COMPLETION_THRESHOLD', 00H
$SG230982 DB	'MINOR_CIV_THREATENED_BY_BARBS_NOTIF_THRESHOLD', 00H
	ORG $+2
$SG230983 DB	'MINOR_CIV_MERCANTILE_RESOURCES_QUANTITY', 00H
$SG230984 DB	'MINOR_CIV_MERCANTILE_RESOURCES_KEEP_ON_CAPTURE_DISABLED', 00H
$SG230985 DB	'QUEST_DISABLED_ROUTE', 00H
	ORG $+3
$SG230986 DB	'QUEST_DISABLED_KILL_CAMP', 00H
	ORG $+3
$SG230987 DB	'QUEST_DISABLED_CONNECT_RESOURCE', 00H
$SG230988 DB	'QUEST_DISABLED_CONSTRUCT_WONDER', 00H
$SG230989 DB	'QUEST_DISABLED_GREAT_PERSON', 00H
$SG230990 DB	'QUEST_DISABLED_KILL_CITY_STATE', 00H
	ORG $+1
$SG230991 DB	'QUEST_DISABLED_FIND_PLAYER', 00H
	ORG $+1
$SG230992 DB	'QUEST_DISABLED_NATURAL_WONDER', 00H
	ORG $+2
$SG230993 DB	'QUEST_DISABLED_GIVE_GOLD', 00H
	ORG $+3
$SG230994 DB	'QUEST_DISABLED_PLEDGE_TO_PROTECT', 00H
	ORG $+3
$SG230995 DB	'QUEST_DISABLED_CONTEST_CULTURE', 00H
	ORG $+1
$SG230996 DB	'QUEST_DISABLED_CONTEST_FAITH', 00H
	ORG $+3
$SG230997 DB	'QUEST_DISABLED_CONTEST_TECHS', 00H
	ORG $+3
$SG230998 DB	'QUEST_DISABLED_INVEST', 00H
	ORG $+2
$SG230999 DB	'QUEST_DISABLED_BULLY_CITY_STATE', 00H
$SG231000 DB	'QUEST_DISABLED_DENOUNCE_MAJOR', 00H
	ORG $+2
$SG231001 DB	'QUEST_DISABLED_SPREAD_RELIGION', 00H
	ORG $+1
$SG231002 DB	'QUEST_DISABLED_TRADE_ROUTE', 00H
	ORG $+1
$SG231003 DB	'MINOR_CIV_QUEST_WEIGHT_DEFAULT', 00H
	ORG $+1
$SG231004 DB	'MINOR_CIV_QUEST_WEIGHT_MULTIPLIER_FRIENDLY_ROUTE', 00H
	ORG $+3
$SG231005 DB	'MINOR_CIV_QUEST_WEIGHT_MULTIPLIER_HOSTILE_ROUTE', 00H
$SG231006 DB	'MINOR_CIV_QUEST_WEIGHT_MULTIPLIER_MARITIME_ROUTE', 00H
	ORG $+3
$SG231007 DB	'MINOR_CIV_QUEST_WEIGHT_MULTIPLIER_MERCANTILE_ROUTE', 00H
	ORG $+1
$SG231008 DB	'MINOR_CIV_QUEST_WEIGHT_MULTIPLIER_MILITARISTIC_KILL_CAMP'
	DB	00H
	ORG $+3
$SG231009 DB	'MINOR_CIV_QUEST_WEIGHT_MULTIPLIER_MARITIME_CONNECT_RESOU'
	DB	'RCE', 00H
$SG231010 DB	'MINOR_CIV_QUEST_WEIGHT_MULTIPLIER_MERCANTILE_CONNECT_RES'
	DB	'OURCE', 00H
	ORG $+2
$SG231011 DB	'MINOR_CIV_QUEST_WEIGHT_MULTIPLIER_CULTURED_CONSTRUCT_WON'
	DB	'DER', 00H
$SG231012 DB	'MINOR_CIV_QUEST_WEIGHT_MULTIPLIER_CULTURED_GREAT_PERSON', 00H
$SG231013 DB	'MINOR_CIV_QUEST_WEIGHT_MULTIPLIER_MILITARISTIC_KILL_CITY'
	DB	'_STATE', 00H
	ORG $+1
$SG231014 DB	'MINOR_CIV_QUEST_WEIGHT_MULTIPLIER_HOSTILE_KILL_CITY_STAT'
	DB	'E', 00H
	ORG $+2
$SG231015 DB	'MINOR_CIV_QUEST_WEIGHT_MULTIPLIER_NEUTRAL_KILL_CITY_STAT'
	DB	'E', 00H
	ORG $+2
$SG231016 DB	'MINOR_CIV_QUEST_WEIGHT_MULTIPLIER_MARITIME_FIND_PLAYER', 00H
	ORG $+1
$SG231017 DB	'MINOR_CIV_QUEST_WEIGHT_MULTIPLIER_MERCANTILE_FIND_PLAYER'
	DB	00H
	ORG $+7
$SG231018 DB	'MINOR_CIV_QUEST_WEIGHT_MULTIPLIER_MILITARISTIC_FIND_NATU'
	DB	'RAL_WONDER', 00H
	ORG $+1
$SG231019 DB	'MINOR_CIV_QUEST_WEIGHT_MULTIPLIER_HOSTILE_FIND_NATURAL_W'
	DB	'ONDER', 00H
	ORG $+2
$SG231020 DB	'MINOR_CIV_QUEST_WEIGHT_MULTIPLIER_MILITARISTIC_GIVE_GOLD'
	DB	00H
	ORG $+3
$SG231021 DB	'MINOR_CIV_QUEST_WEIGHT_MULTIPLIER_MERCANTILE_GIVE_GOLD', 00H
	ORG $+1
$SG231022 DB	'MINOR_CIV_QUEST_WEIGHT_MULTIPLIER_OTHER_GIVE_GOLD', 00H
	ORG $+6
$SG231023 DB	'MINOR_CIV_QUEST_WEIGHT_MULTIPLIER_MILITARISTIC_PLEDGE_TO'
	DB	'_PROTECT', 00H
	ORG $+3
$SG231024 DB	'MINOR_CIV_QUEST_WEIGHT_MULTIPLIER_CULTURED_PLEDGE_TO_PRO'
	DB	'TECT', 00H
	ORG $+3
$SG231025 DB	'MINOR_CIV_QUEST_WEIGHT_MULTIPLIER_OTHER_PLEDGE_TO_PROTEC'
	DB	'T', 00H
	ORG $+2
$SG231026 DB	'RELIGION_BELIEF_SCORE_CITY_MULTIPLIER', 00H
	ORG $+2
$SG231027 DB	'RELIGION_BELIEF_SCORE_WORKED_PLOT_MULTIPLIER', 00H
	ORG $+3
$SG231028 DB	'RELIGION_BELIEF_SCORE_OWNED_PLOT_MULTIPLIER', 00H
$SG231029 DB	'RELIGION_BELIEF_SCORE_UNOWNED_PLOT_MULTIPLIER', 00H
	ORG $+2
$SG231030 DB	'RELIGION_MISSIONARY_RANGE_IN_TURNS', 00H
	ORG $+1
$SG231031 DB	'RELIGION_MAX_MISSIONARIES', 00H
	ORG $+2
$SG231032 DB	'NORMAL_ANNEX', 00H
	ORG $+3
$SG231033 DB	'AGGRESSIVE_ANNEX', 00H
	ORG $+3
$SG231034 DB	'MC_GIFT_WEIGHT_THRESHOLD', 00H
	ORG $+3
$SG231035 DB	'MC_ALWAYS_GIFT_DIPLO_THRESHOLD', 00H
	ORG $+1
$SG231036 DB	'MC_SOMETIMES_GIFT_RAND_MULTIPLIER', 00H
	ORG $+2
$SG231037 DB	'MC_SMALL_GIFT_WEIGHT_PASS_OTHER_PLAYER', 00H
	ORG $+1
$SG231038 DB	'MC_GIFT_WEIGHT_PASS_OTHER_PLAYER', 00H
	ORG $+3
$SG231039 DB	'MC_GIFT_WEIGHT_MARITIME_GROWTH', 00H
	ORG $+1
$SG231040 DB	'MC_GIFT_WEIGHT_DIPLO_VICTORY', 00H
	ORG $+3
$SG231041 DB	'MC_GIFT_WEIGHT_CULTURE_VICTORY', 00H
	ORG $+1
$SG231042 DB	'MC_GIFT_WEIGHT_CONQUEST_VICTORY', 00H
$SG231043 DB	'MC_GIFT_WEIGHT_MILITARISTIC', 00H
$SG231044 DB	'MC_GIFT_WEIGHT_RESOURCE_WE_NEED', 00H
$SG231045 DB	'MC_GIFT_WEIGHT_NEUTRAL_VICTORY_ROLL', 00H
$SG231046 DB	'MC_GIFT_WEIGHT_PROTECTIVE', 00H
	ORG $+2
$SG231047 DB	'MC_GIFT_WEIGHT_HOSTILE', 00H
	ORG $+1
$SG231048 DB	'MC_GIFT_WEIGHT_NEIGHBORS', 00H
	ORG $+3
$SG231049 DB	'MC_GIFT_WEIGHT_CLOSE', 00H
	ORG $+3
$SG231050 DB	'MC_GIFT_WEIGHT_FAR', 00H
	ORG $+1
$SG231051 DB	'MC_GIFT_WEIGHT_ALMOST_NOT_ALLIES', 00H
	ORG $+3
$SG231052 DB	'MC_GIFT_WEIGHT_ALMOST_NOT_FRIENDS', 00H
	ORG $+2
$SG231053 DB	'OPINION_WEIGHT_LAND_FIERCE', 00H
	ORG $+1
$SG231054 DB	'OPINION_WEIGHT_LAND_STRONG', 00H
	ORG $+1
$SG231055 DB	'OPINION_WEIGHT_LAND_WEAK', 00H
	ORG $+3
$SG231056 DB	'OPINION_WEIGHT_LAND_NONE', 00H
	ORG $+3
$SG231057 DB	'OPINION_WEIGHT_VICTORY_FIERCE', 00H
	ORG $+2
$SG231058 DB	'OPINION_WEIGHT_VICTORY_STRONG', 00H
	ORG $+2
$SG231059 DB	'OPINION_WEIGHT_VICTORY_WEAK', 00H
$SG231060 DB	'OPINION_WEIGHT_VICTORY_NONE', 00H
$SG231061 DB	'OPINION_WEIGHT_WONDER_FIERCE', 00H
	ORG $+3
$SG231062 DB	'OPINION_WEIGHT_WONDER_STRONG', 00H
	ORG $+3
$SG231063 DB	'OPINION_WEIGHT_WONDER_WEAK', 00H
	ORG $+1
$SG231064 DB	'OPINION_WEIGHT_WONDER_NONE', 00H
	ORG $+1
$SG231065 DB	'OPINION_WEIGHT_MINOR_CIV_FIERCE', 00H
$SG231066 DB	'OPINION_WEIGHT_MINOR_CIV_STRONG', 00H
$SG231067 DB	'OPINION_WEIGHT_MINOR_CIV_WEAK', 00H
	ORG $+2
$SG231068 DB	'OPINION_WEIGHT_MINOR_CIV_NONE', 00H
	ORG $+2
$SG231069 DB	'OPINION_WEIGHT_WARMONGER_CRITICAL', 00H
	ORG $+2
$SG231070 DB	'OPINION_WEIGHT_WARMONGER_SEVERE', 00H
$SG231071 DB	'OPINION_WEIGHT_WARMONGER_MAJOR', 00H
	ORG $+1
$SG231072 DB	'OPINION_WEIGHT_WARMONGER_MINOR', 00H
	ORG $+1
$SG231073 DB	'OPINION_WEIGHT_WARMONGER_NONE', 00H
	ORG $+2
$SG231074 DB	'OPINION_WEIGHT_ASKED_NO_SETTLE', 00H
	ORG $+1
$SG231075 DB	'OPINION_WEIGHT_ASKED_STOP_SPYING', 00H
	ORG $+3
$SG231076 DB	'OPINION_WEIGHT_MADE_DEMAND_OF_US', 00H
	ORG $+3
$SG231077 DB	'OPINION_WEIGHT_RETURNED_CIVILIAN', 00H
	ORG $+3
$SG231078 DB	'OPINION_WEIGHT_BUILT_LANDMARK', 00H
	ORG $+2
$SG231079 DB	'OPINION_WEIGHT_RESURRECTED', 00H
	ORG $+1
$SG231080 DB	'OPINION_WEIGHT_LIBERATED_ONE_CITY', 00H
	ORG $+2
$SG231081 DB	'OPINION_WEIGHT_LIBERATED_TWO_CITIES', 00H
$SG231082 DB	'OPINION_WEIGHT_LIBERATED_THREE_CITIES', 00H
	ORG $+2
$SG231083 DB	'OPINION_WEIGHT_EMBASSY', 00H
	ORG $+1
$SG231084 DB	'OPINION_WEIGHT_CULTURE_BOMBED', 00H
	ORG $+2
$SG231085 DB	'OPINION_WEIGHT_PER_NEGATIVE_CONVERSION', 00H
	ORG $+1
$SG231086 DB	'OPINION_WEIGHT_ADOPTING_HIS_RELIGION', 00H
	ORG $+3
$SG231087 DB	'OPINION_WEIGHT_ADOPTING_MY_RELIGION', 00H
$SG231088 DB	'OPINION_WEIGHT_SAME_LATE_POLICIES', 00H
	ORG $+2
$SG231089 DB	'OPINION_WEIGHT_DIFFERENT_LATE_POLICIES', 00H
	ORG $+1
$SG231090 DB	'OPINION_WEIGHT_BROKEN_MILITARY_PROMISE', 00H
	ORG $+1
$SG231091 DB	'OPINION_WEIGHT_BROKEN_MILITARY_PROMISE_WORLD', 00H
	ORG $+3
$SG231092 DB	'OPINION_WEIGHT_IGNORED_MILITARY_PROMISE', 00H
$SG231093 DB	'OPINION_WEIGHT_BROKEN_EXPANSION_PROMISE', 00H
$SG231094 DB	'OPINION_WEIGHT_IGNORED_EXPANSION_PROMISE', 00H
	ORG $+3
$SG231095 DB	'OPINION_WEIGHT_BROKEN_BORDER_PROMISE', 00H
	ORG $+3
$SG231096 DB	'OPINION_WEIGHT_IGNORED_BORDER_PROMISE', 00H
	ORG $+2
$SG231097 DB	'OPINION_WEIGHT_BROKEN_CITY_STATE_PROMISE', 00H
	ORG $+3
$SG231098 DB	'OPINION_WEIGHT_BROKEN_CITY_STATE_PROMISE_WORLD', 00H
	ORG $+1
$SG231099 DB	'OPINION_WEIGHT_IGNORED_CITY_STATE_PROMISE', 00H
	ORG $+2
$SG231100 DB	'OPINION_WEIGHT_BROKEN_SPY_PROMISE', 00H
	ORG $+2
$SG231101 DB	'OPINION_WEIGHT_IGNORED_SPY_PROMISE', 00H
	ORG $+1
$SG231102 DB	'OPINION_WEIGHT_FORGAVE_FOR_SPYING', 00H
	ORG $+2
$SG231103 DB	'OPINION_WEIGHT_BROKEN_NO_CONVERT_PROMISE', 00H
	ORG $+3
$SG231104 DB	'OPINION_WEIGHT_IGNORED_NO_CONVERT_PROMISE', 00H
	ORG $+2
$SG231105 DB	'OPINION_WEIGHT_BROKEN_NO_DIG_PROMISE', 00H
	ORG $+3
$SG231106 DB	'OPINION_WEIGHT_IGNORED_NO_DIG_PROMISE', 00H
	ORG $+2
$SG231107 DB	'OPINION_WEIGHT_BROKEN_COOP_WAR_PROMISE', 00H
	ORG $+1
$SG231108 DB	'OPINION_WEIGHT_KILLED_PROTECTED_MINOR_NUM_TURNS_UNTIL_FO'
	DB	'RGIVEN', 00H
	ORG $+1
$SG231109 DB	'OPINION_WEIGHT_KILLED_PROTECTED_MINOR', 00H
	ORG $+2
$SG231110 DB	'OPINION_WEIGHT_KILLED_MANY_PROTECTED_MINORS', 00H
$SG231111 DB	'OPINION_WEIGHT_ATTACKED_PROTECTED_MINOR_NUM_TURNS_UNTIL_'
	DB	'FORGIVEN', 00H
	ORG $+3
$SG231112 DB	'OPINION_WEIGHT_ATTACKED_PROTECTED_MINOR_RECENTLY_NUM_TUR'
	DB	'NS', 00H
	ORG $+1
$SG231113 DB	'OPINION_WEIGHT_ATTACKED_PROTECTED_MINOR_RECENTLY', 00H
	ORG $+3
$SG231114 DB	'OPINION_WEIGHT_ATTACKED_PROTECTED_MINOR_WHILE_AGO', 00H
	ORG $+2
$SG231115 DB	'OPINION_WEIGHT_ATTACKED_MANY_PROTECTED_MINORS', 00H
	ORG $+2
$SG231116 DB	'OPINION_WEIGHT_BULLIED_PROTECTED_MINOR_NUM_TURNS_UNTIL_F'
	DB	'ORGIVEN', 00H
$SG231117 DB	'OPINION_WEIGHT_BULLIED_PROTECTED_MINOR_RECENTLY_NUM_TURN'
	DB	'S', 00H
	ORG $+2
$SG231118 DB	'OPINION_WEIGHT_BULLIED_PROTECTED_MINOR_RECENTLY', 00H
$SG231119 DB	'OPINION_WEIGHT_BULLIED_PROTECTED_MINOR_WHILE_AGO', 00H
	ORG $+3
$SG231120 DB	'OPINION_WEIGHT_BULLIED_MANY_PROTECTED_MINORS', 00H
	ORG $+3
$SG231121 DB	'OPINION_WEIGHT_SIDED_WITH_THEIR_MINOR_NUM_TURNS_UNTIL_FO'
	DB	'RGIVEN', 00H
	ORG $+1
$SG231122 DB	'OPINION_WEIGHT_SIDED_WITH_THEIR_MINOR', 00H
	ORG $+2
$SG231123 DB	'OPINION_WEIGHT_DOF', 00H
	ORG $+1
$SG231124 DB	'OPINION_WEIGHT_DOF_WITH_FRIEND', 00H
	ORG $+1
$SG231125 DB	'OPINION_WEIGHT_DOF_WITH_ENEMY', 00H
	ORG $+2
$SG231126 DB	'OPINION_WEIGHT_DENOUNCED_BY_FRIEND_EACH', 00H
$SG231127 DB	'OPINION_WEIGHT_DENOUNCED_BY_FRIEND_DONT_LIKE', 00H
	ORG $+3
$SG231128 DB	'OPINION_WEIGHT_DENOUNCED_FRIEND_EACH', 00H
	ORG $+3
$SG231129 DB	'OPINION_WEIGHT_DENOUNCED_ME_FRIENDS', 00H
$SG231130 DB	'OPINION_WEIGHT_WAR_FRIEND_EACH', 00H
	ORG $+1
$SG231131 DB	'OPINION_WEIGHT_WAR_ME_FRIENDS', 00H
	ORG $+2
$SG231132 DB	'OPINION_WEIGHT_REFUSED_REQUEST_EACH', 00H
$SG231133 DB	'OPINION_WEIGHT_DENOUNCED_ME', 00H
$SG231134 DB	'OPINION_WEIGHT_DENOUNCED_THEM', 00H
	ORG $+2
$SG231135 DB	'OPINION_WEIGHT_DENOUNCED_FRIEND', 00H
$SG231136 DB	'OPINION_WEIGHT_DENOUNCED_ENEMY', 00H
	ORG $+1
$SG231137 DB	'OPINION_WEIGHT_RECKLESS_EXPANDER', 00H
	ORG $+3
$SG231138 DB	'OPINION_WEIGHT_TRADE_MAX', 00H
	ORG $+3
$SG231139 DB	'OPINION_WEIGHT_COMMON_FOE_MAX', 00H
	ORG $+2
$SG231140 DB	'OPINION_WEIGHT_ASSIST_MAX', 00H
	ORG $+2
$SG231141 DB	'OPINION_WEIGHT_LIBERATED_CAPITAL', 00H
	ORG $+3
$SG231142 DB	'OPINION_WEIGHT_LIBERATED_CITY', 00H
	ORG $+2
$SG231143 DB	'OPINION_WEIGHT_GAVE_ASSISTANCE', 00H
	ORG $+1
$SG231144 DB	'OPINION_WEIGHT_PAID_TRIBUTE', 00H
$SG231145 DB	'OPINION_WEIGHT_NUKED_MAX', 00H
	ORG $+3
$SG231146 DB	'OPINION_WEIGHT_ROBBED_BY', 00H
	ORG $+3
$SG231147 DB	'OPINION_WEIGHT_INTRIGUE_SHARED_BY', 00H
	ORG $+2
$SG231148 DB	'OPINION_WEIGHT_CAPTURED_CAPITAL', 00H
$SG231149 DB	'OPINION_WEIGHT_WE_LIKED_THEIR_PROPOSAL', 00H
	ORG $+1
$SG231150 DB	'OPINION_WEIGHT_WE_LIKED_THEIR_PROPOSAL_NUM_TURNS', 00H
	ORG $+3
$SG231151 DB	'OPINION_WEIGHT_WE_DISLIKED_THEIR_PROPOSAL', 00H
	ORG $+2
$SG231152 DB	'OPINION_WEIGHT_WE_DISLIKED_THEIR_PROPOSAL_NUM_TURNS', 00H
$SG231153 DB	'OPINION_WEIGHT_THEY_SUPPORTED_OUR_PROPOSAL', 00H
	ORG $+1
$SG231154 DB	'OPINION_WEIGHT_THEY_SUPPORTED_OUR_PROPOSAL_NUM_TURNS', 00H
	ORG $+3
$SG231155 DB	'OPINION_WEIGHT_THEY_FOILED_OUR_PROPOSAL', 00H
$SG231156 DB	'OPINION_WEIGHT_THEY_FOILED_OUR_PROPOSAL_NUM_TURNS', 00H
	ORG $+2
$SG231157 DB	'OPINION_WEIGHT_THEY_SUPPORTED_OUR_HOSTING', 00H
	ORG $+2
$SG231158 DB	'OPINION_WEIGHT_THEY_SUPPORTED_OUR_HOSTING_NUM_TURNS', 00H
$SG231159 DB	'OPINION_THRESHOLD_UNFORGIVABLE', 00H
	ORG $+1
$SG231160 DB	'OPINION_THRESHOLD_ENEMY', 00H
$SG231161 DB	'OPINION_THRESHOLD_COMPETITOR', 00H
	ORG $+3
$SG231162 DB	'OPINION_THRESHOLD_FAVORABLE', 00H
$SG231163 DB	'OPINION_THRESHOLD_FRIEND', 00H
	ORG $+3
$SG231164 DB	'OPINION_THRESHOLD_ALLY', 00H
	ORG $+1
$SG231165 DB	'APPROACH_NEUTRAL_DEFAULT', 00H
	ORG $+3
$SG231166 DB	'APPROACH_BIAS_FOR_CURRENT', 00H
	ORG $+2
$SG231167 DB	'APPROACH_WAR_CURRENTLY_DECEPTIVE', 00H
	ORG $+3
$SG231168 DB	'APPROACH_HOSTILE_CURRENTLY_HOSTILE', 00H
	ORG $+1
$SG231169 DB	'APPROACH_WAR_CURRENTLY_WAR', 00H
	ORG $+1
$SG231170 DB	'APPROACH_RANDOM_PERCENT', 00H
$SG231171 DB	'APPROACH_WAR_CONQUEST_GRAND_STRATEGY', 00H
	ORG $+3
$SG231172 DB	'APPROACH_OPINION_UNFORGIVABLE_WAR', 00H
	ORG $+2
$SG231173 DB	'APPROACH_OPINION_UNFORGIVABLE_HOSTILE', 00H
	ORG $+2
$SG231174 DB	'APPROACH_OPINION_UNFORGIVABLE_DECEPTIVE', 00H
$SG231175 DB	'APPROACH_OPINION_UNFORGIVABLE_GUARDED', 00H
	ORG $+2
$SG231176 DB	'APPROACH_OPINION_ENEMY_WAR', 00H
	ORG $+1
$SG231177 DB	'APPROACH_OPINION_ENEMY_HOSTILE', 00H
	ORG $+1
$SG231178 DB	'APPROACH_OPINION_ENEMY_DECEPTIVE', 00H
	ORG $+3
$SG231179 DB	'APPROACH_OPINION_ENEMY_GUARDED', 00H
	ORG $+1
$SG231180 DB	'APPROACH_OPINION_COMPETITOR_WAR', 00H
$SG231181 DB	'APPROACH_OPINION_COMPETITOR_HOSTILE', 00H
$SG231182 DB	'APPROACH_OPINION_COMPETITOR_DECEPTIVE', 00H
	ORG $+2
$SG231183 DB	'APPROACH_OPINION_COMPETITOR_GUARDED', 00H
$SG231184 DB	'APPROACH_OPINION_NEUTRAL_DECEPTIVE', 00H
	ORG $+1
$SG231185 DB	'APPROACH_OPINION_NEUTRAL_FRIENDLY', 00H
	ORG $+2
$SG231186 DB	'APPROACH_OPINION_FAVORABLE_HOSTILE', 00H
	ORG $+1
$SG231187 DB	'APPROACH_OPINION_FAVORABLE_DECEPTIVE', 00H
	ORG $+3
$SG231188 DB	'APPROACH_OPINION_FAVORABLE_FRIENDLY', 00H
$SG231189 DB	'APPROACH_OPINION_FRIEND_HOSTILE', 00H
$SG231190 DB	'APPROACH_OPINION_FRIEND_FRIENDLY', 00H
	ORG $+3
$SG231191 DB	'APPROACH_OPINION_ALLY_FRIENDLY', 00H
	ORG $+1
$SG231192 DB	'APPROACH_DECEPTIVE_WORKING_WITH_PLAYER', 00H
	ORG $+1
$SG231193 DB	'APPROACH_FRIENDLY_WORKING_WITH_PLAYER', 00H
	ORG $+2
$SG231194 DB	'APPROACH_HOSTILE_WORKING_WITH_PLAYER', 00H
	ORG $+3
$SG231195 DB	'APPROACH_GUARDED_WORKING_WITH_PLAYER', 00H
	ORG $+3
$SG231196 DB	'APPROACH_DECEPTIVE_WORKING_AGAINST_PLAYER', 00H
	ORG $+2
$SG231197 DB	'APPROACH_HOSTILE_WORKING_AGAINST_PLAYER', 00H
$SG231198 DB	'APPROACH_WAR_WORKING_AGAINST_PLAYER', 00H
$SG231199 DB	'APPROACH_WAR_DENOUNCED', 00H
	ORG $+1
$SG231200 DB	'APPROACH_HOSTILE_DENOUNCED', 00H
	ORG $+1
$SG231201 DB	'APPROACH_GUARDED_DENOUNCED', 00H
	ORG $+1
$SG231202 DB	'APPROACH_FRIENDLY_DENOUNCED', 00H
$SG231203 DB	'APPROACH_DECEPTIVE_DENOUNCED', 00H
	ORG $+3
$SG231204 DB	'APPROACH_ATTACKED_PROTECTED_MINOR_WAR', 00H
	ORG $+2
$SG231205 DB	'APPROACH_ATTACKED_PROTECTED_MINOR_HOSTILE', 00H
	ORG $+2
$SG231206 DB	'APPROACH_ATTACKED_PROTECTED_MINOR_GUARDED', 00H
	ORG $+2
$SG231207 DB	'APPROACH_ATTACKED_PROTECTED_MINOR_PAST_WAR', 00H
	ORG $+1
$SG231208 DB	'APPROACH_ATTACKED_PROTECTED_MINOR_PAST_HOSTILE', 00H
	ORG $+1
$SG231209 DB	'APPROACH_ATTACKED_PROTECTED_MINOR_PAST_GUARDED', 00H
	ORG $+1
$SG231210 DB	'APPROACH_DECEPTIVE_MILITARY_THREAT_CRITICAL', 00H
$SG231211 DB	'APPROACH_GUARDED_MILITARY_THREAT_CRITICAL', 00H
	ORG $+2
$SG231212 DB	'APPROACH_AFRAID_MILITARY_THREAT_CRITICAL', 00H
	ORG $+3
$SG231213 DB	'APPROACH_DECEPTIVE_DEMAND', 00H
	ORG $+2
$SG231214 DB	'APPROACH_FRIENDLY_DEMAND', 00H
	ORG $+3
$SG231215 DB	'APPROACH_WAR_BROKEN_MILITARY_PROMISE', 00H
	ORG $+3
$SG231216 DB	'APPROACH_DECEPTIVE_BROKEN_MILITARY_PROMISE', 00H
	ORG $+1
$SG231217 DB	'APPROACH_FRIENDLY_BROKEN_MILITARY_PROMISE', 00H
	ORG $+2
$SG231218 DB	'APPROACH_WAR_BROKEN_MILITARY_PROMISE_WORLD', 00H
	ORG $+1
$SG231219 DB	'APPROACH_DECEPTIVE_BROKEN_MILITARY_PROMISE_WORLD', 00H
	ORG $+3
$SG231220 DB	'APPROACH_FRIENDLY_BROKEN_MILITARY_PROMISE_WORLD', 00H
$SG231221 DB	'APPROACH_DECEPTIVE_IGNORED_MILITARY_PROMISE', 00H
$SG231222 DB	'APPROACH_FRIENDLY_IGNORED_MILITARY_PROMISE', 00H
	ORG $+1
$SG231223 DB	'APPROACH_WAR_BROKEN_EXPANSION_PROMISE', 00H
	ORG $+2
$SG231224 DB	'APPROACH_DECEPTIVE_BROKEN_EXPANSION_PROMISE', 00H
$SG231225 DB	'APPROACH_FRIENDLY_BROKEN_EXPANSION_PROMISE', 00H
	ORG $+1
$SG231226 DB	'APPROACH_WAR_IGNORED_EXPANSION_PROMISE', 00H
	ORG $+1
$SG231227 DB	'APPROACH_DECEPTIVE_IGNORED_EXPANSION_PROMISE', 00H
	ORG $+3
$SG231228 DB	'APPROACH_FRIENDLY_IGNORED_EXPANSION_PROMISE', 00H
$SG231229 DB	'APPROACH_WAR_BROKEN_BORDER_PROMISE', 00H
	ORG $+1
$SG231230 DB	'APPROACH_DECEPTIVE_BROKEN_BORDER_PROMISE', 00H
	ORG $+3
$SG231231 DB	'APPROACH_FRIENDLY_BROKEN_BORDER_PROMISE', 00H
$SG231232 DB	'APPROACH_WAR_IGNORED_BORDER_PROMISE', 00H
$SG231233 DB	'APPROACH_DECEPTIVE_IGNORED_BORDER_PROMISE', 00H
	ORG $+2
$SG231234 DB	'APPROACH_FRIENDLY_IGNORED_BORDER_PROMISE', 00H
	ORG $+3
$SG231235 DB	'APPROACH_WAR_BROKEN_CITY_STATE_PROMISE', 00H
	ORG $+1
$SG231236 DB	'APPROACH_DECEPTIVE_BROKEN_CITY_STATE_PROMISE', 00H
	ORG $+3
$SG231237 DB	'APPROACH_FRIENDLY_BROKEN_CITY_STATE_PROMISE', 00H
$SG231238 DB	'APPROACH_WAR_BROKEN_CITY_STATE_PROMISE_WORLD', 00H
	ORG $+3
$SG231239 DB	'APPROACH_DECEPTIVE_BROKEN_CITY_STATE_PROMISE_WORLD', 00H
	ORG $+1
$SG231240 DB	'APPROACH_FRIENDLY_BROKEN_CITY_STATE_PROMISE_WORLD', 00H
	ORG $+2
$SG231241 DB	'APPROACH_WAR_IGNORED_CITY_STATE_PROMISE', 00H
$SG231242 DB	'APPROACH_DECEPTIVE_IGNORED_CITY_STATE_PROMISE', 00H
	ORG $+2
$SG231243 DB	'APPROACH_FRIENDLY_IGNORED_CITY_STATE_PROMISE', 00H
	ORG $+3
$SG231244 DB	'APPROACH_FRIENDLY_MILITARY_THREAT_CRITICAL', 00H
	ORG $+1
$SG231245 DB	'APPROACH_DECEPTIVE_MILITARY_THREAT_SEVERE', 00H
	ORG $+2
$SG231246 DB	'APPROACH_GUARDED_MILITARY_THREAT_SEVERE', 00H
$SG231247 DB	'APPROACH_AFRAID_MILITARY_THREAT_SEVERE', 00H
	ORG $+1
$SG231248 DB	'APPROACH_FRIENDLY_MILITARY_THREAT_SEVERE', 00H
	ORG $+3
$SG231249 DB	'APPROACH_DECEPTIVE_MILITARY_THREAT_MAJOR', 00H
	ORG $+3
$SG231250 DB	'APPROACH_GUARDED_MILITARY_THREAT_MAJOR', 00H
	ORG $+1
$SG231251 DB	'APPROACH_AFRAID_MILITARY_THREAT_MAJOR', 00H
	ORG $+2
$SG231252 DB	'APPROACH_FRIENDLY_MILITARY_THREAT_MAJOR', 00H
$SG231253 DB	'APPROACH_DECEPTIVE_MILITARY_THREAT_MINOR', 00H
	ORG $+3
$SG231254 DB	'APPROACH_GUARDED_MILITARY_THREAT_MINOR', 00H
	ORG $+1
$SG231255 DB	'APPROACH_AFRAID_MILITARY_THREAT_MINOR', 00H
	ORG $+2
$SG231256 DB	'APPROACH_FRIENDLY_MILITARY_THREAT_MINOR', 00H
$SG231257 DB	'APPROACH_HOSTILE_MILITARY_THREAT_NONE', 00H
	ORG $+2
$SG231258 DB	'APPROACH_WAR_AT_WAR_WITH_PLAYER_WARS_NEUTRAL', 00H
	ORG $+3
$SG231259 DB	'APPROACH_WAR_AT_WAR_WITH_PLAYER_WARS_WINNING', 00H
	ORG $+3
$SG231260 DB	'APPROACH_WAR_AT_WAR_WITH_PLAYER_WARS_LOSING', 00H
$SG231261 DB	'APPROACH_HOSTILE_AT_WAR_WITH_PLAYER', 00H
$SG231262 DB	'APPROACH_DECEPTIVE_AT_WAR_WITH_PLAYER', 00H
	ORG $+2
$SG231263 DB	'APPROACH_GUARDED_AT_WAR_WITH_PLAYER', 00H
$SG231264 DB	'APPROACH_FRIENDLY_AT_WAR_WITH_PLAYER', 00H
	ORG $+3
$SG231265 DB	'APPROACH_WAR_PLANNING_WAR_WITH_ANOTHER_PLAYER', 00H
	ORG $+2
$SG231266 DB	'APPROACH_HOSTILE_PLANNING_WAR_WITH_ANOTHER_PLAYER', 00H
	ORG $+2
$SG231267 DB	'APPROACH_DECEPTIVE_PLANNING_WAR_WITH_ANOTHER_PLAYER', 00H
$SG231268 DB	'APPROACH_GUARDED_PLANNING_WAR_WITH_ANOTHER_PLAYER', 00H
	ORG $+2
$SG231269 DB	'APPROACH_FRIENDLY_PLANNING_WAR_WITH_ANOTHER_PLAYER', 00H
	ORG $+1
$SG231270 DB	'APPROACH_WAR_HOSTILE_WITH_ANOTHER_PLAYER', 00H
	ORG $+3
$SG231271 DB	'APPROACH_HOSTILE_HOSTILE_WITH_ANOTHER_PLAYER', 00H
	ORG $+3
$SG231272 DB	'APPROACH_DECEPTIVE_HOSTILE_WITH_ANOTHER_PLAYER', 00H
	ORG $+1
$SG231273 DB	'APPROACH_FRIENDLY_HOSTILE_WITH_ANOTHER_PLAYER', 00H
	ORG $+2
$SG231274 DB	'APPROACH_WAR_AFRAID_WITH_ANOTHER_PLAYER', 00H
$SG231275 DB	'APPROACH_HOSTILE_AFRAID_WITH_ANOTHER_PLAYER', 00H
$SG231276 DB	'APPROACH_DECEPTIVE_AFRAID_WITH_ANOTHER_PLAYER', 00H
	ORG $+2
$SG231277 DB	'APPROACH_FRIENDLY_AFRAID_WITH_ANOTHER_PLAYER', 00H
	ORG $+3
$SG231278 DB	'APPROACH_WAR_PROJECTION_DESTRUCTION_PERCENT', 00H
$SG231279 DB	'APPROACH_WAR_PROJECTION_DEFEAT_PERCENT', 00H
	ORG $+1
$SG231280 DB	'APPROACH_WAR_PROJECTION_STALEMATE_PERCENT', 00H
	ORG $+2
$SG231281 DB	'APPROACH_WAR_PROJECTION_UNKNOWN_PERCENT', 00H
$SG231282 DB	'APPROACH_WAR_PROJECTION_GOOD_PERCENT', 00H
	ORG $+3
$SG231283 DB	'APPROACH_WAR_PROJECTION_VERY_GOOD_PERCENT', 00H
	ORG $+2
$SG231284 DB	'APPROACH_GUARDED_PROJECTION_DESTRUCTION_PERCENT', 00H
$SG231285 DB	'APPROACH_GUARDED_PROJECTION_DEFEAT_PERCENT', 00H
	ORG $+1
$SG231286 DB	'APPROACH_GUARDED_PROJECTION_STALEMATE_PERCENT', 00H
	ORG $+2
$SG231287 DB	'APPROACH_GUARDED_PROJECTION_UNKNOWN_PERCENT', 00H
$SG231288 DB	'APPROACH_GUARDED_PROJECTION_GOOD_PERCENT', 00H
	ORG $+3
$SG231289 DB	'APPROACH_GUARDED_PROJECTION_VERY_GOOD_PERCENT', 00H
	ORG $+2
$SG231290 DB	'TURNS_SINCE_PEACE_WEIGHT_DAMPENER', 00H
	ORG $+2
$SG231291 DB	'APPROACH_WAR_HAS_MADE_PEACE_BEFORE_PERCENT', 00H
	ORG $+1
$SG231292 DB	'APPROACH_WAR_RECKLESS_EXPANDER', 00H
	ORG $+1
$SG231293 DB	'APPROACH_WAR_PROXIMITY_NEIGHBORS', 00H
	ORG $+3
$SG231294 DB	'APPROACH_WAR_PROXIMITY_CLOSE', 00H
	ORG $+3
$SG231295 DB	'APPROACH_WAR_PROXIMITY_FAR', 00H
	ORG $+1
$SG231296 DB	'APPROACH_WAR_PROXIMITY_DISTANT', 00H
	ORG $+1
$SG231297 DB	'MINOR_APPROACH_IGNORE_DEFAULT', 00H
	ORG $+2
$SG231298 DB	'MINOR_APPROACH_BIAS_FOR_CURRENT', 00H
$SG231299 DB	'MINOR_APPROACH_IGNORE_CURRENTLY_WAR', 00H
$SG231300 DB	'MINOR_APPROACH_WAR_CONQUEST_GRAND_STRATEGY', 00H
	ORG $+1
$SG231301 DB	'MINOR_APPROACH_PROTECTIVE_CONQUEST_GRAND_STRATEGY', 00H
	ORG $+2
$SG231302 DB	'MINOR_APPROACH_FRIENDLY_CONQUEST_GRAND_STRATEGY', 00H
$SG231303 DB	'MINOR_APPROACH_WAR_CONQUEST_GRAND_STRATEGY_NEIGHBORS', 00H
	ORG $+3
$SG231304 DB	'MINOR_APPROACH_WAR_DIPLO_GRAND_STRATEGY', 00H
$SG231305 DB	'MINOR_APPROACH_IGNORE_DIPLO_GRAND_STRATEGY', 00H
	ORG $+1
$SG231306 DB	'MINOR_APPROACH_PROTECTIVE_DIPLO_GRAND_STRATEGY_NEIGHBORS'
	DB	00H
	ORG $+3
$SG231307 DB	'MINOR_APPROACH_WAR_CULTURE_GRAND_STRATEGY', 00H
	ORG $+2
$SG231308 DB	'MINOR_APPROACH_IGNORE_CULTURE_GRAND_STRATEGY', 00H
	ORG $+3
$SG231309 DB	'MINOR_APPROACH_PROTECTIVE_CULTURE_GRAND_STRATEGY_CST', 00H
	ORG $+3
$SG231310 DB	'MINOR_APPROACH_WAR_CURRENTLY_PROTECTIVE', 00H
$SG231311 DB	'MINOR_APPROACH_PROTECTIVE_CURRENTLY_PROTECTIVE', 00H
	ORG $+1
$SG231312 DB	'MINOR_APPROACH_PROTECTIVE_CURRENTLY_WAR', 00H
$SG231313 DB	'MINOR_APPROACH_FRIENDLY_CURRENTLY_WAR', 00H
	ORG $+2
$SG231314 DB	'MINOR_APPROACH_FRIENDLY_RESOURCES', 00H
	ORG $+2
$SG231315 DB	'MINOR_APPROACH_PROTECTIVE_RESOURCES', 00H
$SG231316 DB	'MINOR_APPROACH_WAR_FRIENDS', 00H
	ORG $+1
$SG231317 DB	'MINOR_APPROACH_FRIENDLY_FRIENDS', 00H
$SG231318 DB	'MINOR_APPROACH_PROTECTIVE_FRIENDS', 00H
	ORG $+2
$SG231319 DB	'MINOR_APPROACH_IGNORE_PROXIMITY_NEIGHBORS', 00H
	ORG $+2
$SG231320 DB	'MINOR_APPROACH_FRIENDLY_PROXIMITY_NEIGHBORS', 00H
$SG231321 DB	'MINOR_APPROACH_PROTECTIVE_PROXIMITY_NEIGHBORS', 00H
	ORG $+2
$SG231322 DB	'MINOR_APPROACH_CONQUEST_PROXIMITY_NEIGHBORS', 00H
$SG231323 DB	'MINOR_APPROACH_IGNORE_PROXIMITY_CLOSE', 00H
	ORG $+2
$SG231324 DB	'MINOR_APPROACH_PROTECTIVE_PROXIMITY_CLOSE', 00H
	ORG $+2
$SG231325 DB	'MINOR_APPROACH_CONQUEST_PROXIMITY_CLOSE', 00H
$SG231326 DB	'MINOR_APPROACH_FRIENDLY_PROXIMITY_FAR', 00H
	ORG $+2
$SG231327 DB	'MINOR_APPROACH_CONQUEST_PROXIMITY_FAR', 00H
	ORG $+2
$SG231328 DB	'MINOR_APPROACH_FRIENDLY_PROXIMITY_DISTANT', 00H
	ORG $+2
$SG231329 DB	'MINOR_APPROACH_CONQUEST_PROXIMITY_DISTANT', 00H
	ORG $+2
$SG231330 DB	'MINOR_APPROACH_FRIENDLY_PERSONALITY_FRIENDLY', 00H
	ORG $+3
$SG231331 DB	'MINOR_APPROACH_PROTECTIVE_PERSONALITY_PROTECTIVE', 00H
	ORG $+3
$SG231332 DB	'MINOR_APPROACH_FRIENDLY_PERSONALITY_NEUTRAL', 00H
$SG231333 DB	'MINOR_APPROACH_PROTECTIVE_PERSONALITY_NEUTRAL', 00H
	ORG $+2
$SG231334 DB	'MINOR_APPROACH_FRIENDLY_PERSONALITY_HOSTILE', 00H
$SG231335 DB	'MINOR_APPROACH_PROTECTIVE_PERSONALITY_HOSTILE', 00H
	ORG $+2
$SG231336 DB	'MINOR_APPROACH_CONQUEST_PERSONALITY_HOSTILE', 00H
$SG231337 DB	'MINOR_APPROACH_FRIENDLY_PERSONALITY_IRRATIONAL', 00H
	ORG $+1
$SG231338 DB	'MINOR_APPROACH_PROTECTIVE_PERSONALITY_IRRATIONAL', 00H
	ORG $+3
$SG231339 DB	'MINOR_APPROACH_WAR_PLANNING_WAR_WITH_ANOTHER_PLAYER', 00H
$SG231340 DB	'MINOR_APPROACH_PROTECTIVE_WITH_ANOTHER_PLAYER', 00H
	ORG $+2
$SG231341 DB	'MINOR_APPROACH_WAR_TARGET_IMPOSSIBLE', 00H
	ORG $+3
$SG231342 DB	'MINOR_APPROACH_WAR_TARGET_BAD', 00H
	ORG $+2
$SG231343 DB	'MINOR_APPROACH_WAR_TARGET_AVERAGE', 00H
	ORG $+2
$SG231344 DB	'MINOR_APPROACH_WAR_TARGET_FAVORABLE', 00H
$SG231345 DB	'MINOR_APPROACH_WAR_TARGET_SOFT', 00H
	ORG $+1
$SG231346 DB	'COOPERATION_DESIRE_THRESHOLD_EAGER', 00H
	ORG $+1
$SG231347 DB	'COOPERATION_DESIRE_THRESHOLD_STRONG', 00H
$SG231348 DB	'COOPERATION_DESIRE_THRESHOLD_DECENT', 00H
$SG231349 DB	'COOPERATION_DESIRE_THRESHOLD_WEAK', 00H
	ORG $+2
$SG231350 DB	'COOPERATION_DESIRE_WAR_STATE_CALM', 00H
	ORG $+2
$SG231351 DB	'COOPERATION_DESIRE_WAR_STATE_NEARLY_WON', 00H
$SG231352 DB	'COOPERATION_DESIRE_WAR_STATE_OFFENSIVE', 00H
	ORG $+1
$SG231353 DB	'COOPERATION_DESIRE_WAR_STATE_STALEMATE', 00H
	ORG $+1
$SG231354 DB	'COOPERATION_DESIRE_WAR_STATE_DEFENSIVE', 00H
	ORG $+1
$SG231355 DB	'COOPERATION_DESIRE_WAR_STATE_NEARLY_DEFEATED', 00H
	ORG $+3
$SG231356 DB	'COOPERATION_DESIRE_MILITARY_STRENGTH_IMMENSE', 00H
	ORG $+3
$SG231357 DB	'COOPERATION_DESIRE_MILITARY_STRENGTH_POWERFUL', 00H
	ORG $+2
$SG231358 DB	'COOPERATION_DESIRE_MILITARY_STRENGTH_STRONG', 00H
$SG231359 DB	'COOPERATION_DESIRE_MILITARY_STRENGTH_AVERAGE', 00H
	ORG $+3
$SG231360 DB	'COOPERATION_DESIRE_MILITARY_STRENGTH_POOR', 00H
	ORG $+2
$SG231361 DB	'COOPERATION_DESIRE_MILITARY_STRENGTH_WEAK', 00H
	ORG $+2
$SG231362 DB	'COOPERATION_DESIRE_MILITARY_STRENGTH_PATHETIC', 00H
	ORG $+2
$SG231363 DB	'COOPERATION_DESIRE_OPINION_ALLY', 00H
$SG231364 DB	'COOPERATION_DESIRE_OPINION_FRIEND', 00H
	ORG $+2
$SG231365 DB	'COOPERATION_DESIRE_OPINION_NEUTRAL', 00H
	ORG $+1
$SG231366 DB	'COOPERATION_DESIRE_OPINION_COMPETITOR', 00H
	ORG $+2
$SG231367 DB	'COOPERATION_DESIRE_OPINION_ENEMY', 00H
	ORG $+3
$SG231368 DB	'COOPERATION_DESIRE_GAME_THREAT_CRITICAL', 00H
$SG231369 DB	'COOPERATION_DESIRE_GAME_THREAT_SEVERE', 00H
	ORG $+2
$SG231370 DB	'COOPERATION_DESIRE_GAME_THREAT_MAJOR', 00H
	ORG $+3
$SG231371 DB	'COOPERATION_DESIRE_GAME_THREAT_MINOR', 00H
	ORG $+3
$SG231372 DB	'COOPERATION_DESIRE_GAME_THREAT_NONE', 00H
$SG231373 DB	'COOPERATION_DESIRE_THEM_US_SAME_COMPETITOR', 00H
	ORG $+1
$SG231374 DB	'COOPERATION_DESIRE_THEM_US_COMPETITOR_ENEMY', 00H
$SG231375 DB	'COOPERATION_DESIRE_THEM_US_ENEMY_COMPETITOR', 00H
$SG231376 DB	'COOPERATION_DESIRE_THEM_US_SAME_ENEMY', 00H
	ORG $+2
$SG231377 DB	'EVALUATE_WAR_PLAYER_THRESHOLD', 00H
	ORG $+2
$SG231378 DB	'EVALUATE_WAR_WILLING_TO_DECLARE_THRESHOLD', 00H
	ORG $+2
$SG231379 DB	'EVALUATE_WAR_CONQUEST_GRAND_STRATEGY', 00H
	ORG $+3
$SG231380 DB	'EVALUATE_WAR_NOT_PREPARED', 00H
	ORG $+2
$SG231381 DB	'EVALUATE_WAR_ALREADY_FIGHTING', 00H
	ORG $+2
$SG231382 DB	'EVALUATE_WAR_GAME_THREAT_CRITICAL', 00H
	ORG $+2
$SG231383 DB	'EVALUATE_WAR_GAME_THREAT_SEVERE', 00H
$SG231384 DB	'EVALUATE_WAR_GAME_THREAT_MAJOR', 00H
	ORG $+1
$SG231385 DB	'EVALUATE_WAR_GAME_THREAT_MINOR', 00H
	ORG $+1
$SG231386 DB	'EVALUATE_WAR_GAME_THREAT_NONE', 00H
	ORG $+2
$SG231387 DB	'EVALUATE_WAR_SOFT_TARGET', 00H
	ORG $+3
$SG231388 DB	'EVALUATE_WAR_FAVORABLE_TARGET', 00H
	ORG $+2
$SG231389 DB	'EVALUATE_WAR_AVERAGE_TARGET', 00H
$SG231390 DB	'EVALUATE_WAR_BAD_TARGET', 00H
$SG231391 DB	'EVALUATE_WAR_IMPOSSIBLE_TARGET', 00H
	ORG $+1
$SG231392 DB	'REQUEST_PEACE_TURN_THRESHOLD', 00H
	ORG $+3
$SG231393 DB	'PEACE_WILLINGNESS_OFFER_PROJECTION_DESTRUCTION', 00H
	ORG $+1
$SG231394 DB	'PEACE_WILLINGNESS_OFFER_PROJECTION_DEFEAT', 00H
	ORG $+2
$SG231395 DB	'PEACE_WILLINGNESS_OFFER_PROJECTION_STALEMATE', 00H
	ORG $+3
$SG231396 DB	'PEACE_WILLINGNESS_OFFER_PROJECTION_UNKNOWN', 00H
	ORG $+1
$SG231397 DB	'PEACE_WILLINGNESS_OFFER_PROJECTION_GOOD', 00H
$SG231398 DB	'PEACE_WILLINGNESS_OFFER_PROJECTION_VERY_GOOD', 00H
	ORG $+3
$SG231399 DB	'PEACE_WILLINGNESS_OFFER_WAR_DAMAGE_NONE', 00H
$SG231400 DB	'PEACE_WILLINGNESS_OFFER_WAR_DAMAGE_MINOR', 00H
	ORG $+3
$SG231401 DB	'PEACE_WILLINGNESS_OFFER_WAR_DAMAGE_MAJOR', 00H
	ORG $+3
$SG231402 DB	'PEACE_WILLINGNESS_OFFER_WAR_DAMAGE_SERIOUS', 00H
	ORG $+1
$SG231403 DB	'PEACE_WILLINGNESS_OFFER_WAR_DAMAGE_CRIPPLED', 00H
$SG231404 DB	'PEACE_WILLINGNESS_OFFER_THRESHOLD_UN_SURRENDER', 00H
	ORG $+1
$SG231405 DB	'PEACE_WILLINGNESS_OFFER_THRESHOLD_CAPITULATION', 00H
	ORG $+1
$SG231406 DB	'PEACE_WILLINGNESS_OFFER_THRESHOLD_CESSION', 00H
	ORG $+2
$SG231407 DB	'PEACE_WILLINGNESS_OFFER_THRESHOLD_SURRENDER', 00H
$SG231408 DB	'PEACE_WILLINGNESS_OFFER_THRESHOLD_SUBMISSION', 00H
	ORG $+3
$SG231409 DB	'PEACE_WILLINGNESS_OFFER_THRESHOLD_BACKDOWN', 00H
	ORG $+1
$SG231410 DB	'PEACE_WILLINGNESS_OFFER_THRESHOLD_SETTLEMENT', 00H
	ORG $+3
$SG231411 DB	'PEACE_WILLINGNESS_OFFER_THRESHOLD_ARMISTICE', 00H
$SG231412 DB	'PEACE_WILLINGNESS_ACCEPT_PROJECTION_DESTRUCTION', 00H
$SG231413 DB	'PEACE_WILLINGNESS_ACCEPT_PROJECTION_DEFEAT', 00H
	ORG $+1
$SG231414 DB	'PEACE_WILLINGNESS_ACCEPT_PROJECTION_STALEMATE', 00H
	ORG $+2
$SG231415 DB	'PEACE_WILLINGNESS_ACCEPT_PROJECTION_UNKNOWN', 00H
$SG231416 DB	'PEACE_WILLINGNESS_ACCEPT_PROJECTION_GOOD', 00H
	ORG $+3
$SG231417 DB	'PEACE_WILLINGNESS_ACCEPT_PROJECTION_VERY_GOOD', 00H
	ORG $+2
$SG231418 DB	'PEACE_WILLINGNESS_ACCEPT_TARGET_IMPOSSIBLE', 00H
	ORG $+1
$SG231419 DB	'PEACE_WILLINGNESS_ACCEPT_TARGET_BAD', 00H
$SG231420 DB	'PEACE_WILLINGNESS_ACCEPT_TARGET_AVERAGE', 00H
$SG231421 DB	'PEACE_WILLINGNESS_ACCEPT_TARGET_FAVORABLE', 00H
	ORG $+2
$SG231422 DB	'PEACE_WILLINGNESS_ACCEPT_TARGET_SOFT', 00H
	ORG $+3
$SG231423 DB	'PEACE_WILLINGNESS_ACCEPT_THRESHOLD_UN_SURRENDER', 00H
$SG231424 DB	'PEACE_WILLINGNESS_ACCEPT_THRESHOLD_CAPITULATION', 00H
$SG231425 DB	'PEACE_WILLINGNESS_ACCEPT_THRESHOLD_CESSION', 00H
	ORG $+1
$SG231426 DB	'PEACE_WILLINGNESS_ACCEPT_THRESHOLD_SURRENDER', 00H
	ORG $+3
$SG231427 DB	'PEACE_WILLINGNESS_ACCEPT_THRESHOLD_SUBMISSION', 00H
	ORG $+2
$SG231428 DB	'PEACE_WILLINGNESS_ACCEPT_THRESHOLD_BACKDOWN', 00H
$SG231429 DB	'PEACE_WILLINGNESS_ACCEPT_THRESHOLD_SETTLEMENT', 00H
	ORG $+2
$SG231430 DB	'PEACE_WILLINGNESS_ACCEPT_THRESHOLD_ARMISTICE', 00H
	ORG $+3
$SG231431 DB	'ARMISTICE_GPT_DIVISOR', 00H
	ORG $+2
$SG231432 DB	'ARMISTICE_MIN_GOLD', 00H
	ORG $+1
$SG231433 DB	'WAR_GOAL_THRESHOLD_CONQUEST', 00H
$SG231434 DB	'WAR_GOAL_THRESHOLD_DAMAGE', 00H
	ORG $+2
$SG231435 DB	'WAR_GOAL_THRESHOLD_PEACE', 00H
	ORG $+3
$SG231436 DB	'WAR_GOAL_STATE_CALM', 00H
$SG231437 DB	'WAR_GOAL_STATE_NEARLY_WON', 00H
	ORG $+2
$SG231438 DB	'WAR_GOAL_STATE_OFFENSIVE', 00H
	ORG $+3
$SG231439 DB	'WAR_GOAL_STATE_STALEMATE', 00H
	ORG $+3
$SG231440 DB	'WAR_GOAL_STATE_DEFENSIVE', 00H
	ORG $+3
$SG231441 DB	'WAR_GOAL_STATE_NEARLY_DEFEATED', 00H
	ORG $+1
$SG231442 DB	'WAR_GOAL_ANOTHER_PLAYER_STATE_CALM', 00H
	ORG $+1
$SG231443 DB	'WAR_GOAL_ANOTHER_PLAYER_STATE_NEARLY_WON', 00H
	ORG $+3
$SG231444 DB	'WAR_GOAL_ANOTHER_PLAYER_STATE_OFFENSIVE', 00H
$SG231445 DB	'WAR_GOAL_ANOTHER_PLAYER_STATE_STALEMATE', 00H
$SG231446 DB	'WAR_GOAL_ANOTHER_PLAYER_STATE_DEFENSIVE', 00H
$SG231447 DB	'WAR_GOAL_ANOTHER_PLAYER_STATE_NEARLY_DEFEATED', 00H
	ORG $+2
$SG231448 DB	'WAR_GOAL_DAMAGE_CRIPPLED', 00H
	ORG $+3
$SG231449 DB	'WAR_GOAL_DAMAGE_SERIOUS', 00H
$SG231450 DB	'WAR_GOAL_DAMAGE_MAJOR', 00H
	ORG $+2
$SG231451 DB	'WAR_GOAL_DAMAGE_MINOR', 00H
	ORG $+2
$SG231452 DB	'WAR_GOAL_DAMAGE_NONE', 00H
	ORG $+3
$SG231453 DB	'WAR_GOAL_GAME_THREAT_CRITICAL', 00H
	ORG $+2
$SG231454 DB	'WAR_GOAL_GAME_THREAT_SEVERE', 00H
$SG231455 DB	'WAR_GOAL_GAME_THREAT_MAJOR', 00H
	ORG $+1
$SG231456 DB	'WAR_GOAL_GAME_THREAT_MINOR', 00H
	ORG $+1
$SG231457 DB	'WAR_GOAL_GAME_THREAT_NONE', 00H
	ORG $+2
$SG231458 DB	'WAR_GOAL_TARGET_SOFT', 00H
	ORG $+3
$SG231459 DB	'WAR_GOAL_TARGET_FAVORABLE', 00H
	ORG $+2
$SG231460 DB	'WAR_GOAL_TARGET_AVERAGE', 00H
$SG231461 DB	'WAR_GOAL_TARGET_BAD', 00H
$SG231462 DB	'WAR_GOAL_TARGET_IMPOSSIBLE', 00H
	ORG $+1
$SG231463 DB	'WAR_PROJECTION_THRESHOLD_VERY_GOOD', 00H
	ORG $+1
$SG231464 DB	'WAR_PROJECTION_THRESHOLD_GOOD', 00H
	ORG $+2
$SG231465 DB	'WAR_PROJECTION_THRESHOLD_DESTRUCTION', 00H
	ORG $+3
$SG231466 DB	'WAR_PROJECTION_THRESHOLD_DEFEAT', 00H
$SG231467 DB	'WAR_PROJECTION_THRESHOLD_STALEMATE', 00H
	ORG $+1
$SG231468 DB	'WAR_PROJECTION_THEIR_MILITARY_STRENGTH_PATHETIC', 00H
$SG231469 DB	'WAR_PROJECTION_THEIR_MILITARY_STRENGTH_WEAK', 00H
$SG231470 DB	'WAR_PROJECTION_RECKLESS_EXPANDER', 00H
	ORG $+3
$SG231471 DB	'WAR_PROJECTION_THEIR_MILITARY_STRENGTH_POOR', 00H
$SG231472 DB	'WAR_PROJECTION_THEIR_MILITARY_STRENGTH_AVERAGE', 00H
	ORG $+1
$SG231473 DB	'WAR_PROJECTION_THEIR_MILITARY_STRENGTH_STRONG', 00H
	ORG $+2
$SG231474 DB	'WAR_PROJECTION_THEIR_MILITARY_STRENGTH_POWERFUL', 00H
$SG231475 DB	'WAR_PROJECTION_THEIR_MILITARY_STRENGTH_IMMENSE', 00H
	ORG $+1
$SG231476 DB	'WAR_PROJECTION_THEIR_ECONOMIC_STRENGTH_PATHETIC', 00H
$SG231477 DB	'WAR_PROJECTION_THEIR_ECONOMIC_STRENGTH_WEAK', 00H
$SG231478 DB	'WAR_PROJECTION_THEIR_ECONOMIC_STRENGTH_POOR', 00H
$SG231479 DB	'WAR_PROJECTION_THEIR_ECONOMIC_STRENGTH_AVERAGE', 00H
	ORG $+1
$SG231480 DB	'WAR_PROJECTION_THEIR_ECONOMIC_STRENGTH_STRONG', 00H
	ORG $+2
$SG231481 DB	'WAR_PROJECTION_THEIR_ECONOMIC_STRENGTH_POWERFUL', 00H
$SG231482 DB	'WAR_PROJECTION_THEIR_ECONOMIC_STRENGTH_IMMENSE', 00H
	ORG $+1
$SG231483 DB	'WAR_PROJECTION_WAR_DAMAGE_US_NONE', 00H
	ORG $+2
$SG231484 DB	'WAR_PROJECTION_WAR_DAMAGE_US_MINOR', 00H
	ORG $+1
$SG231485 DB	'WAR_PROJECTION_WAR_DAMAGE_US_MAJOR', 00H
	ORG $+1
$SG231486 DB	'WAR_PROJECTION_WAR_DAMAGE_US_SERIOUS', 00H
	ORG $+3
$SG231487 DB	'WAR_PROJECTION_WAR_DAMAGE_US_CRIPPLED', 00H
	ORG $+2
$SG231488 DB	'WAR_PROJECTION_WAR_DAMAGE_THEM_NONE', 00H
$SG231489 DB	'WAR_PROJECTION_WAR_DAMAGE_THEM_MINOR', 00H
	ORG $+3
$SG231490 DB	'WAR_PROJECTION_WAR_DAMAGE_THEM_MAJOR', 00H
	ORG $+3
$SG231491 DB	'WAR_PROJECTION_WAR_DAMAGE_THEM_SERIOUS', 00H
	ORG $+1
$SG231492 DB	'WAR_PROJECTION_WAR_DAMAGE_THEM_CRIPPLED', 00H
$SG231493 DB	'WAR_PROJECTION_WAR_DURATION_SCORE_CAP', 00H
	ORG $+2
$SG231494 DB	'WAR_STATE_CALM_THRESHOLD_FOREIGN_FORCES', 00H
$SG231495 DB	'WAR_STATE_THRESHOLD_NEARLY_WON', 00H
	ORG $+1
$SG231496 DB	'WAR_STATE_THRESHOLD_OFFENSIVE', 00H
	ORG $+2
$SG231497 DB	'WAR_STATE_THRESHOLD_STALEMATE', 00H
	ORG $+2
$SG231498 DB	'WAR_STATE_THRESHOLD_DEFENSIVE', 00H
	ORG $+2
$SG231499 DB	'WAR_DAMAGE_LEVEL_THRESHOLD_CRIPPLED', 00H
$SG231500 DB	'WAR_DAMAGE_LEVEL_THRESHOLD_SERIOUS', 00H
	ORG $+1
$SG231501 DB	'WAR_DAMAGE_LEVEL_THRESHOLD_MAJOR', 00H
	ORG $+3
$SG231502 DB	'WAR_DAMAGE_LEVEL_THRESHOLD_MINOR', 00H
	ORG $+3
$SG231503 DB	'WAR_DAMAGE_LEVEL_CITY_WEIGHT', 00H
	ORG $+3
$SG231504 DB	'WAR_DAMAGE_LEVEL_INVOLVED_CITY_POP_MULTIPLIER', 00H
	ORG $+2
$SG231505 DB	'WAR_DAMAGE_LEVEL_UNINVOLVED_CITY_POP_MULTIPLIER', 00H
$SG231506 DB	'MILITARY_AGGRESSIVE_POSTURE_THRESHOLD_INCREDIBLE', 00H
	ORG $+3
$SG231507 DB	'MILITARY_AGGRESSIVE_POSTURE_THRESHOLD_HIGH', 00H
	ORG $+1
$SG231508 DB	'MILITARY_AGGRESSIVE_POSTURE_THRESHOLD_MEDIUM', 00H
	ORG $+3
$SG231509 DB	'MILITARY_AGGRESSIVE_POSTURE_THRESHOLD_LOW', 00H
	ORG $+2
$SG231510 DB	'EXPANSION_CAPITAL_DISTANCE_AGGRESSIVE_POSTURE_HIGH', 00H
	ORG $+1
$SG231511 DB	'EXPANSION_CAPITAL_DISTANCE_AGGRESSIVE_POSTURE_MEDIUM', 00H
	ORG $+3
$SG231512 DB	'EXPANSION_CAPITAL_DISTANCE_AGGRESSIVE_POSTURE_LOW', 00H
	ORG $+2
$SG231513 DB	'PLOT_BUYING_POSTURE_INCREDIBLE_THRESHOLD', 00H
	ORG $+3
$SG231514 DB	'PLOT_BUYING_POSTURE_HIGH_THRESHOLD', 00H
	ORG $+1
$SG231515 DB	'PLOT_BUYING_POSTURE_MEDIUM_THRESHOLD', 00H
	ORG $+3
$SG231516 DB	'PLOT_BUYING_POSTURE_LOW_THRESHOLD', 00H
	ORG $+2
$SG231517 DB	'MILITARY_STRENGTH_BASE', 00H
	ORG $+1
$SG231518 DB	'MILITARY_STRENGTH_RATIO_MULTIPLIER', 00H
	ORG $+1
$SG231519 DB	'MILITARY_STRENGTH_CITY_MOD', 00H
	ORG $+1
$SG231520 DB	'MILITARY_STRENGTH_IMMENSE_THRESHOLD', 00H
$SG231521 DB	'MILITARY_STRENGTH_POWERFUL_THRESHOLD', 00H
	ORG $+3
$SG231522 DB	'MILITARY_STRENGTH_STRONG_THRESHOLD', 00H
	ORG $+1
$SG231523 DB	'MILITARY_STRENGTH_AVERAGE_THRESHOLD', 00H
$SG231524 DB	'MILITARY_STRENGTH_POOR_THRESHOLD', 00H
	ORG $+3
$SG231525 DB	'MILITARY_STRENGTH_WEAK_THRESHOLD', 00H
	ORG $+3
$SG231526 DB	'ECONOMIC_STRENGTH_RATIO_MULTIPLIER', 00H
	ORG $+1
$SG231527 DB	'ECONOMIC_STRENGTH_IMMENSE_THRESHOLD', 00H
$SG231528 DB	'ECONOMIC_STRENGTH_POWERFUL_THRESHOLD', 00H
	ORG $+3
$SG231529 DB	'ECONOMIC_STRENGTH_STRONG_THRESHOLD', 00H
	ORG $+1
$SG231530 DB	'ECONOMIC_STRENGTH_AVERAGE_THRESHOLD', 00H
$SG231531 DB	'ECONOMIC_STRENGTH_POOR_THRESHOLD', 00H
	ORG $+3
$SG231532 DB	'ECONOMIC_STRENGTH_WEAK_THRESHOLD', 00H
	ORG $+3
$SG231533 DB	'TARGET_IMPOSSIBLE_THRESHOLD', 00H
$SG231534 DB	'TARGET_BAD_THRESHOLD', 00H
	ORG $+3
$SG231535 DB	'TARGET_AVERAGE_THRESHOLD', 00H
	ORG $+3
$SG231536 DB	'TARGET_FAVORABLE_THRESHOLD', 00H
	ORG $+1
$SG231537 DB	'TARGET_INCREASE_WAR_TURNS', 00H
	ORG $+2
$SG231538 DB	'TARGET_MILITARY_STRENGTH_IMMENSE', 00H
	ORG $+3
$SG231539 DB	'TARGET_MILITARY_STRENGTH_POWERFUL', 00H
	ORG $+2
$SG231540 DB	'TARGET_MILITARY_STRENGTH_STRONG', 00H
$SG231541 DB	'TARGET_MILITARY_STRENGTH_AVERAGE', 00H
	ORG $+3
$SG231542 DB	'TARGET_MILITARY_STRENGTH_POOR', 00H
	ORG $+2
$SG231543 DB	'TARGET_MILITARY_STRENGTH_WEAK', 00H
	ORG $+2
$SG231544 DB	'TARGET_MILITARY_STRENGTH_PATHETIC', 00H
	ORG $+2
$SG231545 DB	'TARGET_ALREADY_WAR_EACH_PLAYER', 00H
	ORG $+1
$SG231546 DB	'TARGET_NEIGHBORS', 00H
	ORG $+3
$SG231547 DB	'TARGET_CLOSE', 00H
	ORG $+3
$SG231548 DB	'TARGET_FAR', 00H
	ORG $+1
$SG231549 DB	'TARGET_DISTANT', 00H
	ORG $+1
$SG231550 DB	'TARGET_MINOR_BACKUP_PATHETIC', 00H
	ORG $+3
$SG231551 DB	'TARGET_MINOR_BACKUP_WEAK', 00H
	ORG $+3
$SG231552 DB	'TARGET_MINOR_BACKUP_POOR', 00H
	ORG $+3
$SG231553 DB	'TARGET_MINOR_BACKUP_AVERAGE', 00H
$SG231554 DB	'TARGET_MINOR_BACKUP_STRONG', 00H
	ORG $+1
$SG231555 DB	'TARGET_MINOR_BACKUP_POWERFUL', 00H
	ORG $+3
$SG231556 DB	'TARGET_MINOR_BACKUP_IMMENSE', 00H
$SG231557 DB	'TARGET_MINOR_BACKUP_DISTANT', 00H
$SG231558 DB	'TARGET_MINOR_BACKUP_FAR', 00H
$SG231559 DB	'TARGET_MINOR_BACKUP_CLOSE', 00H
	ORG $+2
$SG231560 DB	'TARGET_MINOR_BACKUP_NEIGHBORS', 00H
	ORG $+2
$SG231561 DB	'GAME_THREAT_CRITICAL_THRESHOLD', 00H
	ORG $+1
$SG231562 DB	'GAME_THREAT_SEVERE_THRESHOLD', 00H
	ORG $+3
$SG231563 DB	'GAME_THREAT_MAJOR_THRESHOLD', 00H
$SG231564 DB	'GAME_THREAT_MINOR_THRESHOLD', 00H
$SG231565 DB	'GAME_THREAT_AT_WAR_STALEMATE', 00H
	ORG $+3
$SG231566 DB	'GAME_THREAT_AT_WAR_DEFENSIVE', 00H
	ORG $+3
$SG231567 DB	'GAME_THREAT_AT_WAR_NEARLY_DEFEATED', 00H
	ORG $+1
$SG231568 DB	'GAME_THREAT_AT_WAR_MILITARY_STRENGTH_IMMENSE', 00H
	ORG $+3
$SG231569 DB	'GAME_THREAT_AT_WAR_MILITARY_STRENGTH_POWERFUL', 00H
	ORG $+2
$SG231570 DB	'GAME_THREAT_AT_WAR_MILITARY_STRENGTH_STRONG', 00H
$SG231571 DB	'GAME_THREAT_AT_WAR_MILITARY_STRENGTH_AVERAGE', 00H
	ORG $+3
$SG231572 DB	'GAME_THREAT_GUESS_AT_WAR', 00H
	ORG $+3
$SG231573 DB	'GAME_THREAT_GUESS_AT_WAR_MILITARY_STRENGTH_IMMENSE', 00H
	ORG $+1
$SG231574 DB	'GAME_THREAT_GUESS_AT_WAR_MILITARY_STRENGTH_POWERFUL', 00H
$SG231575 DB	'GAME_THREAT_GUESS_AT_WAR_MILITARY_STRENGTH_STRONG', 00H
	ORG $+2
$SG231576 DB	'GAME_THREAT_GUESS_AT_WAR_MILITARY_STRENGTH_AVERAGE', 00H
	ORG $+1
$SG231577 DB	'MILITARY_THREAT_CRITICAL_THRESHOLD', 00H
	ORG $+1
$SG231578 DB	'MILITARY_THREAT_SEVERE_THRESHOLD', 00H
	ORG $+3
$SG231579 DB	'MILITARY_THREAT_MAJOR_THRESHOLD', 00H
$SG231580 DB	'MILITARY_THREAT_MINOR_THRESHOLD', 00H
$SG231581 DB	'MILITARY_THREAT_STRENGTH_IMMENSE', 00H
	ORG $+3
$SG231582 DB	'MILITARY_THREAT_STRENGTH_POWERFUL', 00H
	ORG $+2
$SG231583 DB	'MILITARY_THREAT_STRENGTH_STRONG', 00H
$SG231584 DB	'MILITARY_THREAT_STRENGTH_AVERAGE', 00H
	ORG $+3
$SG231585 DB	'MILITARY_THREAT_STRENGTH_POOR', 00H
	ORG $+2
$SG231586 DB	'MILITARY_THREAT_STRENGTH_WEAK', 00H
	ORG $+2
$SG231587 DB	'MILITARY_THREAT_STRENGTH_PATHETIC', 00H
	ORG $+2
$SG231588 DB	'MILITARY_THREAT_WAR_STATE_CALM', 00H
	ORG $+1
$SG231589 DB	'MILITARY_THREAT_WAR_STATE_NEARLY_WON', 00H
	ORG $+3
$SG231590 DB	'MILITARY_THREAT_WAR_STATE_OFFENSIVE', 00H
$SG231591 DB	'MILITARY_THREAT_WAR_STATE_STALEMATE', 00H
$SG231592 DB	'MILITARY_THREAT_WAR_STATE_DEFENSIVE', 00H
$SG231593 DB	'MILITARY_THREAT_WAR_STATE_NEARLY_DEFEATED', 00H
	ORG $+2
$SG231594 DB	'MILITARY_THREAT_NEIGHBORS', 00H
	ORG $+2
$SG231595 DB	'MILITARY_THREAT_CLOSE', 00H
	ORG $+2
$SG231596 DB	'MILITARY_THREAT_FAR', 00H
$SG231597 DB	'MILITARY_THREAT_DISTANT', 00H
$SG231598 DB	'MILITARY_THREAT_PER_MINOR_ATTACKED', 00H
	ORG $+1
$SG231599 DB	'MILITARY_THREAT_PER_MINOR_CONQUERED', 00H
$SG231600 DB	'MILITARY_THREAT_PER_MAJOR_ATTACKED', 00H
	ORG $+1
$SG231601 DB	'MILITARY_THREAT_PER_MAJOR_CONQUERED', 00H
$SG231602 DB	'MILITARY_THREAT_ALREADY_WAR_EACH_PLAYER_MULTIPLIER', 00H
	ORG $+1
$SG231603 DB	'WARMONGER_THREAT_CRITICAL_THRESHOLD', 00H
$SG231604 DB	'WARMONGER_THREAT_SEVERE_THRESHOLD', 00H
	ORG $+2
$SG231605 DB	'WARMONGER_THREAT_MAJOR_THRESHOLD', 00H
	ORG $+3
$SG231606 DB	'WARMONGER_THREAT_MINOR_THRESHOLD', 00H
	ORG $+3
$SG231607 DB	'WARMONGER_THREAT_MINOR_ATTACKED_WEIGHT', 00H
	ORG $+1
$SG231608 DB	'WARMONGER_THREAT_MINOR_CONQUERED_WEIGHT', 00H
$SG231609 DB	'WARMONGER_THREAT_MAJOR_ATTACKED_WEIGHT', 00H
	ORG $+1
$SG231610 DB	'WARMONGER_THREAT_MAJOR_CONQUERED_WEIGHT', 00H
$SG231611 DB	'WARMONGER_THREAT_PER_TURN_DECAY', 00H
$SG231612 DB	'WARMONGER_THREAT_PERSONALITY_MOD', 00H
	ORG $+3
$SG231613 DB	'WARMONGER_THREAT_CRITICAL_PERCENT_THRESHOLD', 00H
$SG231614 DB	'WARMONGER_THREAT_SEVERE_PERCENT_THRESHOLD', 00H
	ORG $+2
$SG231615 DB	'WARMONGER_ON_CITY_STATE_MULTIPLIER', 00H
	ORG $+1
$SG231616 DB	'LAND_DISPUTE_FIERCE_THRESHOLD', 00H
	ORG $+2
$SG231617 DB	'LAND_DISPUTE_STRONG_THRESHOLD', 00H
	ORG $+2
$SG231618 DB	'LAND_DISPUTE_WEAK_THRESHOLD', 00H
$SG231619 DB	'VICTORY_DISPUTE_FIERCE_THRESHOLD', 00H
	ORG $+3
$SG231620 DB	'VICTORY_DISPUTE_STRONG_THRESHOLD', 00H
	ORG $+3
$SG231621 DB	'VICTORY_DISPUTE_WEAK_THRESHOLD', 00H
	ORG $+1
$SG231622 DB	'WONDER_DISPUTE_FIERCE_THRESHOLD', 00H
$SG231623 DB	'WONDER_DISPUTE_STRONG_THRESHOLD', 00H
$SG231624 DB	'WONDER_DISPUTE_WEAK_THRESHOLD', 00H
	ORG $+2
$SG231625 DB	'MINOR_CIV_DISPUTE_FIERCE_THRESHOLD', 00H
	ORG $+1
$SG231626 DB	'MINOR_CIV_DISPUTE_STRONG_THRESHOLD', 00H
	ORG $+1
$SG231627 DB	'MINOR_CIV_DISPUTE_WEAK_THRESHOLD', 00H
	ORG $+3
$SG231628 DB	'MINOR_CIV_DISPUTE_ALLIES_WEIGHT', 00H
$SG231629 DB	'MINOR_CIV_DISPUTE_FRIENDS_WEIGHT', 00H
	ORG $+3
$SG231630 DB	'LAND_DISPUTE_EXP_AGGRESSIVE_POSTURE_NONE', 00H
	ORG $+3
$SG231631 DB	'LAND_DISPUTE_EXP_AGGRESSIVE_POSTURE_LOW', 00H
$SG231632 DB	'LAND_DISPUTE_EXP_AGGRESSIVE_POSTURE_MEDIUM', 00H
	ORG $+1
$SG231633 DB	'LAND_DISPUTE_EXP_AGGRESSIVE_POSTURE_HIGH', 00H
	ORG $+3
$SG231634 DB	'LAND_DISPUTE_EXP_AGGRESSIVE_POSTURE_INCREDIBLE', 00H
	ORG $+1
$SG231635 DB	'LAND_DISPUTE_PLOT_BUY_AGGRESSIVE_POSTURE_NONE', 00H
	ORG $+2
$SG231636 DB	'LAND_DISPUTE_PLOT_BUY_AGGRESSIVE_POSTURE_LOW', 00H
	ORG $+3
$SG231637 DB	'LAND_DISPUTE_PLOT_BUY_AGGRESSIVE_POSTURE_MEDIUM', 00H
$SG231638 DB	'LAND_DISPUTE_PLOT_BUY_AGGRESSIVE_POSTURE_HIGH', 00H
	ORG $+2
$SG231639 DB	'LAND_DISPUTE_PLOT_BUY_AGGRESSIVE_POSTURE_INCREDIBLE', 00H
$SG231640 DB	'LAND_DISPUTE_DISTANT', 00H
	ORG $+3
$SG231641 DB	'LAND_DISPUTE_FAR', 00H
	ORG $+3
$SG231642 DB	'LAND_DISPUTE_CLOSE', 00H
	ORG $+1
$SG231643 DB	'LAND_DISPUTE_NEIGHBORS', 00H
	ORG $+1
$SG231644 DB	'LAND_DISPUTE_CRAMPED_MULTIPLIER', 00H
$SG231645 DB	'LAND_DISPUTE_NO_EXPANSION_STRATEGY', 00H
	ORG $+1
$SG231646 DB	'VICTORY_DISPUTE_GRAND_STRATEGY_MATCH_POSITIVE', 00H
	ORG $+2
$SG231647 DB	'VICTORY_DISPUTE_GRAND_STRATEGY_MATCH_LIKELY', 00H
$SG231648 DB	'VICTORY_DISPUTE_GRAND_STRATEGY_MATCH_UNSURE', 00H
$SG231649 DB	'LAND_DISPUTE_CITY_RATIO_EXPANSION_GUESS_10', 00H
	ORG $+1
$SG231650 DB	'LAND_DISPUTE_CITY_RATIO_EXPANSION_GUESS_9', 00H
	ORG $+2
$SG231651 DB	'LAND_DISPUTE_CITY_RATIO_EXPANSION_GUESS_8', 00H
	ORG $+2
$SG231652 DB	'LAND_DISPUTE_CITY_RATIO_EXPANSION_GUESS_7', 00H
	ORG $+2
$SG231653 DB	'LAND_DISPUTE_CITY_RATIO_EXPANSION_GUESS_6', 00H
	ORG $+2
$SG231654 DB	'LAND_DISPUTE_CITY_RATIO_EXPANSION_GUESS_5', 00H
	ORG $+2
$SG231655 DB	'LAND_DISPUTE_CITY_RATIO_EXPANSION_GUESS_4', 00H
	ORG $+2
$SG231656 DB	'LAND_DISPUTE_CITY_RATIO_EXPANSION_GUESS_3', 00H
	ORG $+2
$SG231657 DB	'LAND_DISPUTE_CITY_RATIO_EXPANSION_GUESS_2', 00H
	ORG $+2
$SG231658 DB	'VICTORY_DISPUTE_OTHER_PLAYER_FIERCE_THRESHOLD', 00H
	ORG $+2
$SG231659 DB	'VICTORY_DISPUTE_OTHER_PLAYER_STRONG_THRESHOLD', 00H
	ORG $+2
$SG231660 DB	'VICTORY_DISPUTE_OTHER_PLAYER_WEAK_THRESHOLD', 00H
$SG231661 DB	'VICTORY_DISPUTE_OTHER_PLAYER_GRAND_STRATEGY_MATCH_POSITI'
	DB	'VE', 00H
	ORG $+1
$SG231662 DB	'VICTORY_DISPUTE_OTHER_PLAYER_GRAND_STRATEGY_MATCH_LIKELY'
	DB	00H
	ORG $+3
$SG231663 DB	'VICTORY_DISPUTE_OTHER_PLAYER_GRAND_STRATEGY_MATCH_UNSURE'
	DB	00H
	ORG $+3
$SG231664 DB	'IC_MEMORY_TURN_EXPIRATION', 00H
	ORG $+2
$SG231665 DB	'STOP_SPYING_MEMORY_TURN_EXPIRATION', 00H
	ORG $+1
$SG231666 DB	'COOP_WAR_SOON_COUNTER', 00H
	ORG $+2
$SG231667 DB	'COOP_WAR_LOCKED_TURNS', 00H
	ORG $+2
$SG231668 DB	'COOP_WAR_LOCKED_TURNS_WAR_WEIGHT', 00H
	ORG $+3
$SG231669 DB	'DEMAND_TURN_LIMIT_MIN', 00H
	ORG $+2
$SG231670 DB	'DEMAND_TURN_LIMIT_RAND', 00H
	ORG $+1
$SG231671 DB	'DONT_SETTLE_RAND', 00H
	ORG $+3
$SG231672 DB	'DONT_SETTLE_FLAVOR_BASE', 00H
$SG231673 DB	'DONT_SETTLE_FLAVOR_MULTIPLIER', 00H
	ORG $+2
$SG231674 DB	'DONT_SETTLE_FRIENDLY', 00H
	ORG $+3
$SG231675 DB	'DONT_SETTLE_STRENGTH_PATHETIC', 00H
	ORG $+2
$SG231676 DB	'DONT_SETTLE_STRENGTH_WEAK', 00H
	ORG $+2
$SG231677 DB	'DONT_SETTLE_STRENGTH_POOR', 00H
	ORG $+2
$SG231678 DB	'DONT_SETTLE_STRENGTH_AVERAGE', 00H
	ORG $+3
$SG231679 DB	'DONT_SETTLE_STRENGTH_STRONG', 00H
$SG231680 DB	'DONT_SETTLE_STRENGTH_POWERFUL', 00H
	ORG $+2
$SG231681 DB	'DONT_SETTLE_STRENGTH_IMMENSE', 00H
	ORG $+3
$SG231682 DB	'DONT_SETTLE_MOD_MILITARY_POSTURE_NONE', 00H
	ORG $+2
$SG231683 DB	'DONT_SETTLE_MOD_MILITARY_POSTURE_LOW', 00H
	ORG $+3
$SG231684 DB	'DONT_SETTLE_MOD_MILITARY_POSTURE_MEDIUM', 00H
$SG231685 DB	'DONT_SETTLE_MOD_MILITARY_POSTURE_HIGH', 00H
	ORG $+2
$SG231686 DB	'DONT_SETTLE_MOD_MILITARY_POSTURE_INCREDIBLE', 00H
$SG231687 DB	'DOF_TURN_BUFFER', 00H
$SG231688 DB	'DOF_THRESHOLD', 00H
	ORG $+2
$SG231689 DB	'DENUNCIATION_EXPIRATION_TIME', 00H
	ORG $+3
$SG231690 DB	'DOF_EXPIRATION_TIME', 00H
$SG231691 DB	'EACH_GOLD_VALUE_PERCENT', 00H
$SG231692 DB	'EACH_GOLD_PER_TURN_VALUE_PERCENT', 00H
	ORG $+3
$SG231693 DB	'EXPANSION_BICKER_TIMEOUT', 00H
	ORG $+3
$SG231694 DB	'EXPANSION_PROMISE_TURNS_EFFECTIVE', 00H
	ORG $+2
$SG231695 DB	'EXPANSION_PROMISE_BROKEN_PER_TURN_DECAY', 00H
$SG231696 DB	'BROKEN_EXPANSION_PROMISE_PER_OPINION_WEIGHT', 00H
$SG231697 DB	'OPINION_WEIGHT_EXPANSION_PROMISE_BROKE_MAX', 00H
	ORG $+1
$SG231698 DB	'EXPANSION_PROMISE_IGNORED_PER_TURN_DECAY', 00H
	ORG $+3
$SG231699 DB	'IGNORED_EXPANSION_PROMISE_PER_OPINION_WEIGHT', 00H
	ORG $+3
$SG231700 DB	'OPINION_WEIGHT_EXPANSION_PROMISE_IGNORED_MAX', 00H
	ORG $+3
$SG231701 DB	'BORDER_PROMISE_TURNS_EFFECTIVE', 00H
	ORG $+1
$SG231702 DB	'BORDER_PROMISE_BROKEN_PER_TURN_DECAY', 00H
	ORG $+3
$SG231703 DB	'BROKEN_BORDER_PROMISE_PER_OPINION_WEIGHT', 00H
	ORG $+3
$SG231704 DB	'OPINION_WEIGHT_BORDER_PROMISE_BROKE_MAX', 00H
$SG231705 DB	'BORDER_PROMISE_IGNORED_PER_TURN_DECAY', 00H
	ORG $+2
$SG231706 DB	'IGNORED_BORDER_PROMISE_PER_OPINION_WEIGHT', 00H
	ORG $+2
$SG231707 DB	'OPINION_WEIGHT_BORDER_PROMISE_IGNORED_MAX', 00H
	ORG $+2
$SG231708 DB	'DECLARED_WAR_ON_FRIEND_PER_TURN_DECAY', 00H
	ORG $+2
$SG231709 DB	'DECLARED_WAR_ON_FRIEND_PER_OPINION_WEIGHT', 00H
	ORG $+2
$SG231710 DB	'DEAL_VALUE_PER_TURN_DECAY', 00H
	ORG $+2
$SG231711 DB	'DEAL_VALUE_PER_OPINION_WEIGHT', 00H
	ORG $+2
$SG231712 DB	'COMMON_FOE_VALUE_PER_TURN_DECAY', 00H
$SG231713 DB	'COMMON_FOE_VALUE_PER_OPINION_WEIGHT', 00H
$SG231714 DB	'WANT_RESEARCH_AGREEMENT_RAND', 00H
	ORG $+3
$SG231715 DB	'DEMAND_RAND', 00H
$SG231716 DB	'CAN_WORK_WATER_FROM_GAME_START', 00H
	ORG $+1
$SG231717 DB	'NAVAL_PLOT_BLOCKADE_RANGE', 00H
	ORG $+2
$SG231718 DB	'EVENT_MESSAGE_TIME', 00H
	ORG $+1
$SG231719 DB	'START_YEAR', 00H
	ORG $+1
$SG231720 DB	'WEEKS_PER_MONTHS', 00H
	ORG $+3
$SG231721 DB	'HIDDEN_START_TURN_OFFSET', 00H
	ORG $+3
$SG231722 DB	'RECON_VISIBILITY_RANGE', 00H
	ORG $+1
$SG231723 DB	'PLOT_VISIBILITY_RANGE', 00H
	ORG $+2
$SG231724 DB	'UNIT_VISIBILITY_RANGE', 00H
	ORG $+2
$SG231725 DB	'AIR_UNIT_REBASE_RANGE_MULTIPLIER', 00H
	ORG $+3
$SG231726 DB	'MOUNTAIN_SEE_FROM_CHANGE', 00H
	ORG $+3
$SG231727 DB	'MOUNTAIN_SEE_THROUGH_CHANGE', 00H
$SG231728 DB	'HILLS_SEE_FROM_CHANGE', 00H
	ORG $+2
$SG231729 DB	'HILLS_SEE_THROUGH_CHANGE', 00H
	ORG $+3
$SG231730 DB	'SEAWATER_SEE_FROM_CHANGE', 00H
	ORG $+3
$SG231731 DB	'SEAWATER_SEE_THROUGH_CHANGE', 00H
$SG231732 DB	'MAX_YIELD_STACK', 00H
$SG231733 DB	'MOVE_DENOMINATOR', 00H
	ORG $+3
$SG231734 DB	'STARTING_DISTANCE_PERCENT', 00H
	ORG $+2
$SG231735 DB	'MIN_CIV_STARTING_DISTANCE', 00H
	ORG $+2
$SG231736 DB	'MIN_CITY_RANGE', 00H
	ORG $+1
$SG231737 DB	'OWNERSHIP_SCORE_DURATION_THRESHOLD', 00H
	ORG $+1
$SG231738 DB	'NUM_POLICY_BRANCHES_ALLOWED', 00H
$SG231739 DB	'VICTORY_POINTS_NEEDED_TO_WIN', 00H
	ORG $+3
$SG231740 DB	'NUM_VICTORY_POINT_AWARDS', 00H
	ORG $+3
$SG231741 DB	'NUM_OR_TECH_PREREQS', 00H
$SG231742 DB	'NUM_AND_TECH_PREREQS', 00H
	ORG $+3
$SG231743 DB	'NUM_UNIT_AND_TECH_PREREQS', 00H
	ORG $+2
$SG231744 DB	'NUM_BUILDING_AND_TECH_PREREQS', 00H
	ORG $+2
$SG231745 DB	'NUM_BUILDING_RESOURCE_PREREQS', 00H
	ORG $+2
$SG231746 DB	'BASE_RESEARCH_RATE', 00H
	ORG $+1
$SG231747 DB	'MAX_WORLD_WONDERS_PER_CITY', 00H
	ORG $+1
$SG231748 DB	'MAX_TEAM_WONDERS_PER_CITY', 00H
	ORG $+2
$SG231749 DB	'MAX_NATIONAL_WONDERS_PER_CITY', 00H
	ORG $+2
$SG231750 DB	'MAX_NATIONAL_WONDERS_PER_CITY_FOR_OCC', 00H
	ORG $+2
$SG231751 DB	'MAX_BUILDINGS_PER_CITY', 00H
	ORG $+1
$SG231752 DB	'INITIAL_CITY_POPULATION', 00H
$SG231753 DB	'BASE_CITY_AIR_STACKING', 00H
	ORG $+1
$SG231754 DB	'CITY_CAPTURE_POPULATION_PERCENT', 00H
$SG231755 DB	'BASE_CITY_GROWTH_THRESHOLD', 00H
	ORG $+1
$SG231756 DB	'FOOD_CONSUMPTION_PER_POPULATION', 00H
$SG231757 DB	'HAPPINESS_PER_CITY_WITH_STATE_RELIGION', 00H
	ORG $+1
$SG231758 DB	'HAPPINESS_PER_NATURAL_WONDER', 00H
	ORG $+3
$SG231759 DB	'HAPPINESS_PER_EXTRA_LUXURY', 00H
	ORG $+1
$SG231760 DB	'UNHAPPINESS_PER_POPULATION', 00H
	ORG $+1
$SG231761 DB	'UNHAPPINESS_PER_OCCUPIED_POPULATION', 00H
$SG231762 DB	'UNHAPPINESS_PER_CITY', 00H
	ORG $+3
$SG231763 DB	'UNHAPPINESS_PER_CAPTURED_CITY', 00H
	ORG $+2
$SG231764 DB	'UNHAPPY_GROWTH_PENALTY', 00H
	ORG $+1
$SG231765 DB	'VERY_UNHAPPY_GROWTH_PENALTY', 00H
$SG231766 DB	'VERY_UNHAPPY_CANT_TRAIN_SETTLERS', 00H
	ORG $+3
$SG231767 DB	'VERY_UNHAPPY_THRESHOLD', 00H
	ORG $+1
$SG231768 DB	'SUPER_UNHAPPY_THRESHOLD', 00H
$SG231769 DB	'UPRISING_COUNTER_MIN', 00H
	ORG $+3
$SG231770 DB	'UPRISING_COUNTER_POSSIBLE', 00H
	ORG $+2
$SG231771 DB	'UPRISING_NUM_BASE', 00H
	ORG $+2
$SG231772 DB	'UPRISING_NUM_CITY_COUNT', 00H
$SG231773 DB	'REVOLT_COUNTER_MIN', 00H
	ORG $+1
$SG231774 DB	'VERY_UNHAPPY_COMBAT_PENALTY_PER_UNHAPPY', 00H
$SG231775 DB	'VERY_UNHAPPY_MAX_COMBAT_PENALTY', 00H
$SG231776 DB	'STRATEGIC_RESOURCE_EXHAUSTED_PENALTY', 00H
	ORG $+3
$SG231777 DB	'VERY_UNHAPPY_PRODUCTION_PENALTY_PER_UNHAPPY', 00H
$SG231778 DB	'VERY_UNHAPPY_MAX_PRODUCTION_PENALTY', 00H
$SG231779 DB	'VERY_UNHAPPY_GOLD_PENALTY_PER_UNHAPPY', 00H
	ORG $+2
$SG231780 DB	'VERY_UNHAPPY_MAX_GOLD_PENALTY', 00H
	ORG $+2
$SG231781 DB	'WLTKD_GROWTH_MULTIPLIER', 00H
$SG231782 DB	'INDUSTRIAL_ROUTE_PRODUCTION_MOD', 00H
$SG231783 DB	'RESOURCE_DEMAND_COUNTDOWN_BASE', 00H
	ORG $+1
$SG231784 DB	'RESOURCE_DEMAND_COUNTDOWN_CAPITAL_ADD', 00H
	ORG $+2
$SG231785 DB	'RESOURCE_DEMAND_COUNTDOWN_RAND', 00H
	ORG $+1
$SG231786 DB	'NEW_HURRY_MODIFIER', 00H
	ORG $+1
$SG231787 DB	'GREAT_GENERAL_RANGE', 00H
$SG231788 DB	'GREAT_GENERAL_STRENGTH_MOD', 00H
	ORG $+1
$SG231789 DB	'BONUS_PER_ADJACENT_FRIEND', 00H
	ORG $+2
$SG231790 DB	'POLICY_ATTACK_BONUS_MOD', 00H
$SG231791 DB	'CONSCRIPT_MIN_CITY_POPULATION', 00H
	ORG $+2
$SG231792 DB	'CONSCRIPT_POPULATION_PER_COST', 00H
	ORG $+2
$SG231793 DB	'MIN_TIMER_UNIT_DOUBLE_MOVES', 00H
$SG231794 DB	'COMBAT_DAMAGE', 00H
	ORG $+2
$SG231795 DB	'NONCOMBAT_UNIT_RANGED_DAMAGE', 00H
	ORG $+3
$SG231796 DB	'NAVAL_COMBAT_DEFENDER_STRENGTH_MULTIPLIER', 00H
	ORG $+2
$SG231797 DB	'LAKE_PLOT_RAND', 00H
	ORG $+1
$SG231798 DB	'PLOTS_PER_RIVER_EDGE', 00H
	ORG $+3
$SG231799 DB	'RIVER_SOURCE_MIN_RIVER_RANGE', 00H
	ORG $+3
$SG231800 DB	'RIVER_SOURCE_MIN_SEAWATER_RANGE', 00H
$SG231801 DB	'LAKE_MAX_AREA_SIZE', 00H
	ORG $+1
$SG231802 DB	'INITIAL_GOLD_PER_UNIT_TIMES_100', 00H
$SG231803 DB	'INITIAL_FREE_OUTSIDE_UNITS', 00H
	ORG $+1
$SG231804 DB	'INITIAL_OUTSIDE_UNIT_GOLD_PERCENT', 00H
	ORG $+2
$SG231805 DB	'UNIT_MAINTENANCE_GAME_MULTIPLIER', 00H
	ORG $+3
$SG231806 DB	'UNIT_MAINTENANCE_GAME_EXPONENT_DIVISOR', 00H
	ORG $+1
$SG231807 DB	'FREE_UNIT_HAPPINESS', 00H
$SG231808 DB	'TRADE_ROUTE_BASE_GOLD', 00H
	ORG $+2
$SG231809 DB	'TRADE_ROUTE_CAPITAL_POP_GOLD_MULTIPLIER', 00H
$SG231810 DB	'TRADE_ROUTE_CITY_POP_GOLD_MULTIPLIER', 00H
	ORG $+3
$SG231811 DB	'DEFICIT_UNIT_DISBANDING_THRESHOLD', 00H
	ORG $+2
$SG231812 DB	'GOLDEN_AGE_BASE_THRESHOLD_HAPPINESS', 00H
$SG231813 DB	'GOLDEN_AGE_THRESHOLD_CITY_MULTIPLIER', 00H
	ORG $+3
$SG231814 DB	'GOLDEN_AGE_EACH_GA_ADDITIONAL_HAPPINESS', 00H
$SG231815 DB	'GOLDEN_AGE_VISIBLE_THRESHOLD_DIVISOR', 00H
	ORG $+3
$SG231816 DB	'BASE_GOLDEN_AGE_UNITS', 00H
	ORG $+2
$SG231817 DB	'GOLDEN_AGE_UNITS_MULTIPLIER', 00H
$SG231818 DB	'GOLDEN_AGE_LENGTH', 00H
	ORG $+2
$SG231819 DB	'GOLDEN_AGE_GREAT_PEOPLE_MODIFIER', 00H
	ORG $+3
$SG231820 DB	'MIN_UNIT_GOLDEN_AGE_TURNS', 00H
	ORG $+2
$SG231821 DB	'GOLDEN_AGE_CULTURE_MODIFIER', 00H
$SG231822 DB	'HILLS_EXTRA_MOVEMENT', 00H
	ORG $+3
$SG231823 DB	'RIVER_EXTRA_MOVEMENT', 00H
	ORG $+3
$SG231824 DB	'FEATURE_GROWTH_MODIFIER', 00H
$SG231825 DB	'ROUTE_FEATURE_GROWTH_MODIFIER', 00H
	ORG $+2
$SG231826 DB	'EXTRA_YIELD', 00H
$SG231827 DB	'FORTIFY_MODIFIER_PER_TURN', 00H
	ORG $+2
$SG231828 DB	'MAX_FORTIFY_TURNS', 00H
	ORG $+2
$SG231829 DB	'NUKE_FALLOUT_PROB', 00H
	ORG $+2
$SG231830 DB	'NUKE_UNIT_DAMAGE_BASE', 00H
	ORG $+2
$SG231831 DB	'NUKE_UNIT_DAMAGE_RAND_1', 00H
$SG231832 DB	'NUKE_UNIT_DAMAGE_RAND_2', 00H
$SG231833 DB	'NUKE_NON_COMBAT_DEATH_THRESHOLD', 00H
$SG231834 DB	'NUKE_LEVEL1_POPULATION_DEATH_BASE', 00H
	ORG $+2
$SG231835 DB	'NUKE_LEVEL1_POPULATION_DEATH_RAND_1', 00H
$SG231836 DB	'NUKE_LEVEL1_POPULATION_DEATH_RAND_2', 00H
$SG231837 DB	'NUKE_LEVEL2_POPULATION_DEATH_BASE', 00H
	ORG $+2
$SG231838 DB	'NUKE_LEVEL2_POPULATION_DEATH_RAND_1', 00H
$SG231839 DB	'NUKE_LEVEL2_POPULATION_DEATH_RAND_2', 00H
$SG231840 DB	'NUKE_LEVEL2_ELIM_POPULATION_THRESHOLD', 00H
	ORG $+2
$SG231841 DB	'NUKE_CITY_HIT_POINT_DAMAGE', 00H
	ORG $+1
$SG231842 DB	'NUKE_BLAST_RADIUS', 00H
	ORG $+2
$SG231843 DB	'TECH_COST_EXTRA_TEAM_MEMBER_MODIFIER', 00H
	ORG $+3
$SG231844 DB	'TECH_COST_TOTAL_KNOWN_TEAM_MODIFIER', 00H
$SG231845 DB	'TECH_COST_KNOWN_PREREQ_MODIFIER', 00H
$SG231846 DB	'PEACE_TREATY_LENGTH', 00H
$SG231847 DB	'COOP_WAR_LOCKED_LENGTH', 00H
	ORG $+1
$SG231848 DB	'BASE_FEATURE_PRODUCTION_PERCENT', 00H
$SG231849 DB	'FEATURE_PRODUCTION_PERCENT_MULTIPLIER', 00H
	ORG $+2
$SG231850 DB	'DIFFERENT_TEAM_FEATURE_PRODUCTION_PERCENT', 00H
	ORG $+2
$SG231851 DB	'DEFAULT_WAR_VALUE_FOR_UNIT', 00H
	ORG $+1
$SG231852 DB	'UNIT_PRODUCTION_PERCENT', 00H
$SG231853 DB	'MAX_UNIT_SUPPLY_PRODMOD', 00H
$SG231854 DB	'BUILDING_PRODUCTION_PERCENT', 00H
$SG231855 DB	'PROJECT_PRODUCTION_PERCENT', 00H
	ORG $+1
$SG231856 DB	'MAXED_UNIT_GOLD_PERCENT', 00H
$SG231857 DB	'MAXED_BUILDING_GOLD_PERCENT', 00H
$SG231858 DB	'MAXED_PROJECT_GOLD_PERCENT', 00H
	ORG $+1
$SG231859 DB	'MAX_CITY_DEFENSE_DAMAGE', 00H
$SG231860 DB	'CIRCUMNAVIGATE_FREE_MOVES', 00H
	ORG $+2
$SG231861 DB	'BASE_CAPTURE_GOLD', 00H
	ORG $+2
$SG231862 DB	'CAPTURE_GOLD_PER_POPULATION', 00H
$SG231863 DB	'CAPTURE_GOLD_RAND1', 00H
	ORG $+1
$SG231864 DB	'CAPTURE_GOLD_RAND2', 00H
	ORG $+1
$SG231865 DB	'CAPTURE_GOLD_MAX_TURNS', 00H
	ORG $+1
$SG231866 DB	'BARBARIAN_CITY_ATTACK_MODIFIER', 00H
	ORG $+1
$SG231867 DB	'BUILDING_PRODUCTION_DECAY_TIME', 00H
	ORG $+1
$SG231868 DB	'BUILDING_PRODUCTION_DECAY_PERCENT', 00H
	ORG $+2
$SG231869 DB	'UNIT_PRODUCTION_DECAY_TIME', 00H
	ORG $+1
$SG231870 DB	'UNIT_PRODUCTION_DECAY_PERCENT', 00H
	ORG $+2
$SG231871 DB	'BASE_UNIT_UPGRADE_COST', 00H
	ORG $+1
$SG231872 DB	'UNIT_UPGRADE_COST_PER_PRODUCTION', 00H
	ORG $+3
$SG231873 DB	'UNIT_UPGRADE_COST_VISIBLE_DIVISOR', 00H
	ORG $+2
$SG231874 DB	'UNIT_UPGRADE_COST_DISCOUNT_MAX', 00H
	ORG $+1
$SG231875 DB	'WAR_SUCCESS_UNIT_CAPTURING', 00H
	ORG $+1
$SG231876 DB	'WAR_SUCCESS_CITY_CAPTURING', 00H
	ORG $+1
$SG231877 DB	'DIPLO_VOTE_SECRETARY_GENERAL_INTERVAL', 00H
	ORG $+2
$SG231878 DB	'TEAM_VOTE_MIN_CANDIDATES', 00H
	ORG $+3
$SG231879 DB	'RESEARCH_AGREEMENT_TIMER', 00H
	ORG $+3
$SG231880 DB	'RESEARCH_AGREEMENT_BOOST_DIVISOR', 00H
	ORG $+3
$SG231881 DB	'SCORE_POPULATION_FACTOR', 00H
$SG231882 DB	'SCORE_LAND_FACTOR', 00H
	ORG $+2
$SG231883 DB	'SCORE_WONDER_FACTOR', 00H
$SG231884 DB	'SCORE_TECH_FACTOR', 00H
	ORG $+2
$SG231885 DB	'SCORE_FREE_PERCENT', 00H
	ORG $+1
$SG231886 DB	'SCORE_VICTORY_PERCENT', 00H
	ORG $+2
$SG231887 DB	'SCORE_HANDICAP_PERCENT_OFFSET', 00H
	ORG $+2
$SG231888 DB	'SCORE_HANDICAP_PERCENT_PER', 00H
	ORG $+1
$SG231889 DB	'MINIMAP_RENDER_SIZE', 00H
$SG231890 DB	'MAX_INTERCEPTION_PROBABILITY', 00H
	ORG $+3
$SG231891 DB	'MAX_EVASION_PROBABILITY', 00H
$SG231892 DB	'PLAYER_ALWAYS_RAZES_CITIES', 00H
	ORG $+1
$SG231893 DB	'MIN_WATER_SIZE_FOR_OCEAN', 00H
	ORG $+3
$SG231894 DB	'CITY_SCREEN_CLICK_WILL_EXIT', 00H
$SG231895 DB	'WATER_POTENTIAL_CITY_WORK_FOR_AREA', 00H
	ORG $+1
$SG231896 DB	'LAND_UNITS_CAN_ATTACK_WATER_CITIES', 00H
	ORG $+1
$SG231897 DB	'CITY_MAX_NUM_BUILDINGS', 00H
	ORG $+1
$SG231898 DB	'CITY_MIN_SIZE_FOR_SETTLERS', 00H
	ORG $+1
$SG231899 DB	'RANGED_ATTACKS_USE_MOVES', 00H
	ORG $+3
$SG231900 DB	'ADVANCED_START_ALLOW_UNITS_OUTSIDE_CITIES', 00H
	ORG $+2
$SG231901 DB	'ADVANCED_START_MAX_UNITS_PER_CITY', 00H
	ORG $+2
$SG231902 DB	'ADVANCED_START_CITY_COST', 00H
	ORG $+3
$SG231903 DB	'ADVANCED_START_CITY_COST_INCREASE', 00H
	ORG $+2
$SG231904 DB	'ADVANCED_START_POPULATION_COST', 00H
	ORG $+1
$SG231905 DB	'ADVANCED_START_POPULATION_COST_INCREASE', 00H
$SG231906 DB	'ADVANCED_START_VISIBILITY_COST', 00H
	ORG $+1
$SG231907 DB	'ADVANCED_START_VISIBILITY_COST_INCREASE', 00H
$SG231908 DB	'ADVANCED_START_CITY_PLACEMENT_MAX_RANGE', 00H
$SG231909 DB	'NEW_CITY_BUILDING_VALUE_MODIFIER', 00H
	ORG $+3
$SG231910 DB	'PATH_DAMAGE_WEIGHT', 00H
	ORG $+1
$SG231911 DB	'PUPPET_SCIENCE_MODIFIER', 00H
$SG231912 DB	'PUPPET_CULTURE_MODIFIER', 00H
$SG231913 DB	'PUPPET_GOLD_MODIFIER', 00H
	ORG $+3
$SG231914 DB	'PUPPET_FAITH_MODIFIER', 00H
	ORG $+2
$SG231915 DB	'BASE_POLICY_COST', 00H
	ORG $+3
$SG231916 DB	'POLICY_COST_INCREASE_TO_BE_EXPONENTED', 00H
	ORG $+2
$SG231917 DB	'POLICY_COST_VISIBLE_DIVISOR', 00H
$SG231918 DB	'SWITCH_POLICY_BRANCHES_ANARCHY_TURNS', 00H
	ORG $+3
$SG231919 DB	'SWITCH_POLICY_BRANCHES_TENETS_LOST', 00H
	ORG $+1
$SG231920 DB	'POLICY_COST_DISCOUNT_MAX', 00H
	ORG $+3
$SG231921 DB	'GOLD_PURCHASE_GOLD_PER_PRODUCTION', 00H
	ORG $+2
$SG231922 DB	'GOLD_PURCHASE_VISIBLE_DIVISOR', 00H
	ORG $+2
$SG231923 DB	'PROJECT_PURCHASING_DISABLED', 00H
$SG231924 DB	'INFLUENCE_MOUNTAIN_COST', 00H
$SG231925 DB	'INFLUENCE_HILL_COST', 00H
$SG231926 DB	'INFLUENCE_RIVER_COST', 00H
	ORG $+3
$SG231927 DB	'USE_FIRST_RING_INFLUENCE_TERRAIN_COST', 00H
	ORG $+2
$SG231928 DB	'NUM_RESOURCE_QUANTITY_TYPES', 00H
$SG231929 DB	'SPECIALISTS_DIVERT_POPULATION_ENABLED', 00H
	ORG $+2
$SG231930 DB	'SCIENCE_PER_POPULATION', 00H
	ORG $+1
$SG231931 DB	'RESEARCH_AGREEMENT_MOD', 00H
	ORG $+1
$SG231932 DB	'BARBARIAN_CAMP_FIRST_TURN_PERCENT_OF_TARGET_TO_ADD', 00H
	ORG $+1
$SG231933 DB	'BARBARIAN_CAMP_ODDS_OF_NEW_CAMP_SPAWNING', 00H
	ORG $+3
$SG231934 DB	'BARBARIAN_CAMP_MINIMUM_DISTANCE_CAPITAL', 00H
$SG231935 DB	'BARBARIAN_CAMP_MINIMUM_DISTANCE_ANOTHER_CAMP', 00H
	ORG $+3
$SG231936 DB	'BARBARIAN_CAMP_COASTAL_SPAWN_ROLL', 00H
	ORG $+2
$SG231937 DB	'BARBARIAN_EXTRA_RAGING_UNIT_SPAWN_CHANCE', 00H
	ORG $+3
$SG231938 DB	'BARBARIAN_NAVAL_UNIT_START_TURN_SPAWN', 00H
	ORG $+2
$SG231939 DB	'MAX_BARBARIANS_FROM_CAMP_NEARBY', 00H
$SG231940 DB	'MAX_BARBARIANS_FROM_CAMP_NEARBY_RANGE', 00H
	ORG $+2
$SG231941 DB	'GOLD_FROM_BARBARIAN_CONVERSION', 00H
	ORG $+1
$SG231942 DB	'BARBARIAN_CITY_GOLD_RANSOM', 00H
	ORG $+1
$SG231943 DB	'BARBARIAN_UNIT_GOLD_RANSOM', 00H
	ORG $+1
$SG231944 DB	'EMBARKED_UNIT_MOVEMENT', 00H
	ORG $+1
$SG231945 DB	'EMBARKED_VISIBILITY_RANGE', 00H
	ORG $+2
$SG231946 DB	'DEFAULT_MAX_NUM_BUILDERS', 00H
	ORG $+3
$SG231947 DB	'BARBARIAN_TECH_PERCENT', 00H
	ORG $+1
$SG231948 DB	'CITY_RESOURCE_WLTKD_TURNS', 00H
	ORG $+2
$SG231949 DB	'MAX_SPECIALISTS_FROM_BUILDING', 00H
	ORG $+2
$SG231950 DB	'GREAT_PERSON_THRESHOLD_BASE', 00H
$SG231951 DB	'GREAT_PERSON_THRESHOLD_INCREASE', 00H
$SG231952 DB	'CULTURE_BOMB_COOLDOWN', 00H
	ORG $+2
$SG231953 DB	'CULTURE_BOMB_MINOR_FRIENDSHIP_CHANGE', 00H
	ORG $+3
$SG231954 DB	'LANDMARK_MINOR_FRIENDSHIP_CHANGE', 00H
	ORG $+3
$SG231955 DB	'UNIT_AUTO_EXPLORE_DISABLED', 00H
	ORG $+1
$SG231956 DB	'UNIT_AUTO_EXPLORE_FULL_DISABLED', 00H
$SG231957 DB	'UNIT_WORKER_AUTOMATION_DISABLED', 00H
$SG231958 DB	'UNIT_DELETE_DISABLED', 00H
	ORG $+3
$SG231959 DB	'MIN_START_AREA_TILES', 00H
	ORG $+3
$SG231960 DB	'MIN_DISTANCE_OTHER_AREA_PERCENT', 00H
$SG231961 DB	'MINOR_CIV_FOOD_REQUIREMENT', 00H
	ORG $+1
$SG231962 DB	'MAJOR_CIV_FOOD_REQUIREMENT', 00H
	ORG $+1
$SG231963 DB	'MIN_START_FOUND_VALUE_AS_PERCENT_OF_BEST', 00H
	ORG $+3
$SG231964 DB	'START_AREA_FOOD_MULTIPLIER', 00H
	ORG $+1
$SG231965 DB	'START_AREA_HAPPINESS_MULTIPLIER', 00H
$SG231966 DB	'START_AREA_PRODUCTION_MULTIPLIER', 00H
	ORG $+3
$SG231967 DB	'START_AREA_GOLD_MULTIPLIER', 00H
	ORG $+1
$SG231968 DB	'START_AREA_SCIENCE_MULTIPLIER', 00H
	ORG $+2
$SG231969 DB	'START_AREA_FAITH_MULTIPLIER', 00H
$SG231970 DB	'START_AREA_RESOURCE_MULTIPLIER', 00H
	ORG $+1
$SG231971 DB	'START_AREA_STRATEGIC_MULTIPLIER', 00H
$SG231972 DB	'START_AREA_BUILD_ON_COAST_PERCENT', 00H
	ORG $+2
$SG231973 DB	'SETTLER_FOOD_MULTIPLIER', 00H
$SG231974 DB	'SETTLER_HAPPINESS_MULTIPLIER', 00H
	ORG $+3
$SG231975 DB	'SETTLER_PRODUCTION_MULTIPLIER', 00H
	ORG $+2
$SG231976 DB	'SETTLER_GOLD_MULTIPLIER', 00H
$SG231977 DB	'SETTLER_SCIENCE_MULTIPLIER', 00H
	ORG $+1
$SG231978 DB	'SETTLER_FAITH_MULTIPLIER', 00H
	ORG $+3
$SG231979 DB	'SETTLER_RESOURCE_MULTIPLIER', 00H
$SG231980 DB	'SETTLER_STRATEGIC_MULTIPLIER', 00H
	ORG $+3
$SG231981 DB	'SETTLER_BUILD_ON_COAST_PERCENT', 00H
	ORG $+1
$SG231982 DB	'CITY_RING_1_MULTIPLIER', 00H
	ORG $+1
$SG231983 DB	'CITY_RING_2_MULTIPLIER', 00H
	ORG $+1
$SG231984 DB	'CITY_RING_3_MULTIPLIER', 00H
	ORG $+1
$SG231985 DB	'CITY_RING_4_MULTIPLIER', 00H
	ORG $+1
$SG231986 DB	'CITY_RING_5_MULTIPLIER', 00H
	ORG $+1
$SG231987 DB	'SETTLER_EVALUATION_DISTANCE', 00H
$SG231988 DB	'SETTLER_DISTANCE_DROPOFF_MODIFIER', 00H
	ORG $+2
$SG231989 DB	'BUILD_ON_RESOURCE_PERCENT', 00H
	ORG $+2
$SG231990 DB	'BUILD_ON_RIVER_PERCENT', 00H
	ORG $+1
$SG231991 DB	'CHOKEPOINT_STRATEGIC_VALUE', 00H
	ORG $+1
$SG231992 DB	'HILL_STRATEGIC_VALUE', 00H
	ORG $+3
$SG231993 DB	'ALREADY_OWNED_STRATEGIC_VALUE', 00H
	ORG $+2
$SG231994 DB	'MINOR_CIV_CONTACT_GOLD_FIRST', 00H
	ORG $+3
$SG231995 DB	'MINOR_CIV_CONTACT_GOLD_OTHER', 00H
	ORG $+3
$SG231996 DB	'MINOR_CIV_GROWTH_PERCENT', 00H
	ORG $+3
$SG231997 DB	'MINOR_CIV_PRODUCTION_PERCENT', 00H
	ORG $+3
$SG231998 DB	'MINOR_CIV_GOLD_PERCENT', 00H
	ORG $+1
$SG231999 DB	'MINOR_CIV_TECH_PERCENT', 00H
	ORG $+1
$SG232000 DB	'MINOR_POLICY_RESOURCE_MULTIPLIER', 00H
	ORG $+3
$SG232001 DB	'MINOR_POLICY_RESOURCE_HAPPINESS_MULTIPLIER', 00H
	ORG $+1
$SG232002 DB	'MINOR_GOLD_GIFT_LARGE', 00H
	ORG $+2
$SG232003 DB	'MINOR_GOLD_GIFT_MEDIUM', 00H
	ORG $+1
$SG232004 DB	'MINOR_GOLD_GIFT_SMALL', 00H
	ORG $+2
$SG232005 DB	'MINOR_CIV_TILE_IMPROVEMENT_GIFT_COST', 00H
	ORG $+3
$SG232006 DB	'MINOR_CIV_BUYOUT_COST', 00H
	ORG $+2
$SG232007 DB	'MINOR_CIV_BUYOUT_TURNS', 00H
	ORG $+1
$SG232008 DB	'MINOR_FRIENDSHIP_FROM_TRADE_MISSION', 00H
$SG232009 DB	'MINOR_FRIENDSHIP_ANCHOR_DEFAULT', 00H
$SG232010 DB	'MINOR_FRIENDSHIP_ANCHOR_MOD_PROTECTED', 00H
	ORG $+2
$SG232011 DB	'MINOR_FRIENDSHIP_ANCHOR_MOD_WARY_OF', 00H
$SG232012 DB	'MINOR_UNIT_GIFT_TRAVEL_TURNS', 00H
	ORG $+3
$SG232013 DB	'PLOT_UNIT_LIMIT', 00H
$SG232014 DB	'ZONE_OF_CONTROL_ENABLED', 00H
$SG232015 DB	'FIRE_SUPPORT_DISABLED', 00H
	ORG $+2
$SG232016 DB	'MAX_HIT_POINTS', 00H
	ORG $+1
$SG232017 DB	'MAX_CITY_HIT_POINTS', 00H
$SG232018 DB	'CITY_HIT_POINTS_HEALED_PER_TURN', 00H
$SG232019 DB	'FLAT_LAND_EXTRA_DEFENSE', 00H
$SG232020 DB	'HILLS_EXTRA_DEFENSE', 00H
$SG232021 DB	'RIVER_ATTACK_MODIFIER', 00H
	ORG $+2
$SG232022 DB	'AMPHIB_ATTACK_MODIFIER', 00H
	ORG $+1
$SG232023 DB	'ENEMY_HEAL_RATE', 00H
$SG232024 DB	'NEUTRAL_HEAL_RATE', 00H
	ORG $+2
$SG232025 DB	'FRIENDLY_HEAL_RATE', 00H
	ORG $+1
$SG232026 DB	'INSTA_HEAL_RATE', 00H
$SG232027 DB	'CITY_HEAL_RATE', 00H
	ORG $+1
$SG232028 DB	'ATTACK_SAME_STRENGTH_MIN_DAMAGE', 00H
$SG232029 DB	'RANGE_ATTACK_RANGED_DEFENDER_MOD', 00H
	ORG $+3
$SG232030 DB	'ATTACK_SAME_STRENGTH_POSSIBLE_EXTRA_DAMAGE', 00H
	ORG $+1
$SG232031 DB	'RANGE_ATTACK_SAME_STRENGTH_MIN_DAMAGE', 00H
	ORG $+2
$SG232032 DB	'RANGE_ATTACK_SAME_STRENGTH_POSSIBLE_EXTRA_DAMAGE', 00H
	ORG $+3
$SG232033 DB	'AIR_STRIKE_SAME_STRENGTH_MIN_DEFENSE_DAMAGE', 00H
$SG232034 DB	'AIR_STRIKE_SAME_STRENGTH_POSSIBLE_EXTRA_DEFENSE_DAMAGE', 00H
	ORG $+1
$SG232035 DB	'INTERCEPTION_SAME_STRENGTH_MIN_DAMAGE', 00H
	ORG $+2
$SG232036 DB	'INTERCEPTION_SAME_STRENGTH_POSSIBLE_EXTRA_DAMAGE', 00H
	ORG $+3
$SG232037 DB	'AIR_SWEEP_INTERCEPTION_DAMAGE_MOD', 00H
	ORG $+2
$SG232038 DB	'WOUNDED_DAMAGE_MULTIPLIER', 00H
	ORG $+2
$SG232039 DB	'TRAIT_WOUNDED_DAMAGE_MOD', 00H
	ORG $+3
$SG232040 DB	'CITY_STRENGTH_DEFAULT', 00H
	ORG $+2
$SG232041 DB	'CITY_STRENGTH_POPULATION_CHANGE', 00H
$SG232042 DB	'CITY_STRENGTH_UNIT_DIVISOR', 00H
	ORG $+1
$SG232043 DB	'CITY_STRENGTH_HILL_CHANGE', 00H
	ORG $+2
$SG232044 DB	'CITY_ATTACKING_DAMAGE_MOD', 00H
	ORG $+2
$SG232045 DB	'ATTACKING_CITY_MELEE_DAMAGE_MOD', 00H
$SG232046 DB	'CITY_ATTACK_RANGE', 00H
	ORG $+2
$SG232047 DB	'CAN_CITY_USE_INDIRECT_FIRE', 00H
	ORG $+1
$SG232048 DB	'CITY_RANGED_ATTACK_STRENGTH_MULTIPLIER', 00H
	ORG $+1
$SG232049 DB	'MIN_CITY_STRIKE_DAMAGE', 00H
	ORG $+1
$SG232050 DB	'CITY_CAPTURE_DAMAGE_PERCENT', 00H
$SG232051 DB	'EXPERIENCE_PER_LEVEL', 00H
	ORG $+3
$SG232052 DB	'EXPERIENCE_ATTACKING_UNIT_MELEE', 00H
$SG232053 DB	'EXPERIENCE_DEFENDING_UNIT_MELEE', 00H
$SG232054 DB	'EXPERIENCE_ATTACKING_UNIT_AIR', 00H
	ORG $+2
$SG232055 DB	'EXPERIENCE_DEFENDING_UNIT_AIR', 00H
	ORG $+2
$SG232056 DB	'EXPERIENCE_ATTACKING_UNIT_RANGED', 00H
	ORG $+3
$SG232057 DB	'EXPERIENCE_DEFENDING_UNIT_RANGED', 00H
	ORG $+3
$SG232058 DB	'EXPERIENCE_ATTACKING_AIR_SWEEP', 00H
	ORG $+1
$SG232059 DB	'EXPERIENCE_DEFENDING_AIR_SWEEP_AIR', 00H
	ORG $+1
$SG232060 DB	'EXPERIENCE_DEFENDING_AIR_SWEEP_GROUND', 00H
	ORG $+2
$SG232061 DB	'EXPERIENCE_ATTACKING_CITY_MELEE', 00H
$SG232062 DB	'EXPERIENCE_ATTACKING_CITY_RANGED', 00H
	ORG $+3
$SG232063 DB	'EXPERIENCE_ATTACKING_CITY_AIR', 00H
	ORG $+2
$SG232064 DB	'BARBARIAN_MAX_XP_VALUE', 00H
	ORG $+1
$SG232065 DB	'COMBAT_EXPERIENCE_IN_BORDERS_PERCENT', 00H
	ORG $+3
$SG232066 DB	'GREAT_GENERALS_THRESHOLD_INCREASE', 00H
	ORG $+2
$SG232067 DB	'GREAT_GENERALS_THRESHOLD_INCREASE_TEAM', 00H
	ORG $+1
$SG232068 DB	'GREAT_GENERALS_THRESHOLD', 00H
	ORG $+3
$SG232069 DB	'UNIT_DEATH_XP_GREAT_GENERAL_LOSS', 00H
	ORG $+3
$SG232070 DB	'MIN_EXPERIENCE_PER_COMBAT', 00H
	ORG $+2
$SG232071 DB	'MAX_EXPERIENCE_PER_COMBAT', 00H
	ORG $+2
$SG232072 DB	'CRAMPED_RANGE_FROM_CITY', 00H
$SG232073 DB	'CRAMPED_USABLE_PLOT_PERCENT', 00H
$SG232074 DB	'PROXIMITY_NEIGHBORS_CLOSEST_CITY_REQUIREMENT', 00H
	ORG $+3
$SG232075 DB	'PROXIMITY_CLOSE_CLOSEST_CITY_POSSIBILITY', 00H
	ORG $+3
$SG232076 DB	'PROXIMITY_CLOSE_DISTANCE_MAP_MULTIPLIER', 00H
$SG232077 DB	'PROXIMITY_CLOSE_DISTANCE_MAX', 00H
	ORG $+3
$SG232078 DB	'PROXIMITY_CLOSE_DISTANCE_MIN', 00H
	ORG $+3
$SG232079 DB	'PROXIMITY_FAR_DISTANCE_MAP_MULTIPLIER', 00H
	ORG $+2
$SG232080 DB	'PROXIMITY_FAR_DISTANCE_MAX', 00H
	ORG $+1
$SG232081 DB	'PROXIMITY_FAR_DISTANCE_MIN', 00H
	ORG $+1
$SG232082 DB	'PLOT_BASE_COST', 00H
	ORG $+1
$SG232083 DB	'PLOT_ADDITIONAL_COST_PER_PLOT', 00H
	ORG $+2
$SG232084 DB	'PLOT_COST_APPEARANCE_DIVISOR', 00H
	ORG $+3
$SG232085 DB	'CULTURE_COST_FIRST_PLOT', 00H
$SG232086 DB	'CULTURE_COST_LATER_PLOT_MULTIPLIER', 00H
	ORG $+1
$SG232087 DB	'CULTURE_COST_VISIBLE_DIVISOR', 00H
	ORG $+3
$SG232088 DB	'CULTURE_PLOT_COST_MOD_MINIMUM', 00H
	ORG $+2
$SG232089 DB	'MINOR_CIV_PLOT_CULTURE_COST_MULTIPLIER', 00H
	ORG $+1
$SG232090 DB	'MAXIMUM_BUY_PLOT_DISTANCE', 00H
	ORG $+2
$SG232091 DB	'MAXIMUM_ACQUIRE_PLOT_DISTANCE', 00H
	ORG $+2
$SG232092 DB	'PLOT_INFLUENCE_BASE_MULTIPLIER', 00H
	ORG $+1
$SG232093 DB	'PLOT_INFLUENCE_DISTANCE_MULTIPLIER', 00H
	ORG $+1
$SG232094 DB	'PLOT_INFLUENCE_DISTANCE_DIVISOR', 00H
$SG232095 DB	'PLOT_INFLUENCE_RING_COST', 00H
	ORG $+3
$SG232096 DB	'PLOT_INFLUENCE_WATER_COST', 00H
	ORG $+2
$SG232097 DB	'PLOT_INFLUENCE_IMPROVEMENT_COST', 00H
$SG232098 DB	'PLOT_INFLUENCE_ROUTE_COST', 00H
	ORG $+2
$SG232099 DB	'PLOT_INFLUENCE_RESOURCE_COST', 00H
	ORG $+3
$SG232100 DB	'PLOT_INFLUENCE_NW_COST', 00H
	ORG $+1
$SG232101 DB	'PLOT_BUY_RESOURCE_COST', 00H
	ORG $+1
$SG232102 DB	'PLOT_BUY_YIELD_COST', 00H
$SG232103 DB	'PLOT_INFLUENCE_YIELD_POINT_COST', 00H
$SG232104 DB	'PLOT_INFLUENCE_NO_ADJACENT_OWNED_COST', 00H
	ORG $+2
$SG232105 DB	'UNITED_NATIONS_COUNTDOWN_TURNS', 00H
	ORG $+1
$SG232106 DB	'OWN_UNITED_NATIONS_VOTE_BONUS', 00H
	ORG $+2
$SG232107 DB	'DIPLO_VICTORY_ALGORITHM_THRESHOLD', 00H
	ORG $+2
$SG232108 DB	'DIPLO_VICTORY_BEYOND_ALGORITHM_MULTIPLIER', 00H
	ORG $+2
$SG232109 DB	'DIPLO_VICTORY_DEFAULT_VOTE_PERCENT', 00H
	ORG $+1
$SG232110 DB	'SCORE_CITY_MULTIPLIER', 00H
	ORG $+2
$SG232111 DB	'SCORE_POPULATION_MULTIPLIER', 00H
$SG232112 DB	'SCORE_LAND_MULTIPLIER', 00H
	ORG $+2
$SG232113 DB	'SCORE_WONDER_MULTIPLIER', 00H
$SG232114 DB	'SCORE_TECH_MULTIPLIER', 00H
	ORG $+2
$SG232115 DB	'SCORE_FUTURE_TECH_MULTIPLIER', 00H
	ORG $+3
$SG232116 DB	'SCORE_POLICY_MULTIPLIER', 00H
$SG232117 DB	'SCORE_GREAT_WORK_MULTIPLIER', 00H
$SG232118 DB	'SCORE_BELIEF_MULTIPLIER', 00H
$SG232119 DB	'SCORE_RELIGION_CITIES_MULTIPLIER', 00H
	ORG $+3
$SG232120 DB	'VICTORY_POINTS_PER_ERA', 00H
	ORG $+1
$SG232121 DB	'MIN_GAME_TURNS_ELAPSED_TO_TEST_VICTORY', 00H
	ORG $+1
$SG232122 DB	'ZERO_SUM_COMPETITION_WONDERS_VICTORY_POINTS', 00H
$SG232123 DB	'ZERO_SUM_COMPETITION_POLICIES_VICTORY_POINTS', 00H
	ORG $+3
$SG232124 DB	'ZERO_SUM_COMPETITION_GREAT_PEOPLE_VICTORY_POINTS', 00H
	ORG $+3
$SG232125 DB	'MAX_CITY_DIST_HIGHWATER_MARK', 00H
	ORG $+3
$SG232126 DB	'HEAVY_RESOURCE_THRESHOLD', 00H
	ORG $+3
$SG232127 DB	'PROGRESS_POPUP_TURN_FREQUENCY', 00H
	ORG $+2
$SG232128 DB	'SETTLER_PRODUCTION_SPEED', 00H
	ORG $+3
$SG232129 DB	'BUY_PLOTS_DISABLED', 00H
	ORG $+1
$SG232130 DB	'CITY_STRENGTH_TECH_MULTIPLIER', 00H
	ORG $+2
$SG232131 DB	'WARLORD_EXTRA_EXPERIENCE_PER_UNIT_PERCENT', 00H
	ORG $+2
$SG232132 DB	'BUILDING_SALE_DIVISOR', 00H
	ORG $+2
$SG232133 DB	'DISBAND_UNIT_REFUND_PERCENT', 00H
$SG232134 DB	'MINOR_CIV_ROUTE_QUEST_WEIGHT', 00H
	ORG $+3
$SG232135 DB	'WITHDRAW_MOD_ENEMY_MOVES', 00H
	ORG $+3
$SG232136 DB	'WITHDRAW_MOD_BLOCKED_TILE', 00H
	ORG $+2
$SG232137 DB	'AI_OPERATIONAL_MAX_RECRUIT_TURNS_DEFAULT', 00H
	ORG $+3
$SG232138 DB	'AI_OPERATIONAL_MAX_RECRUIT_TURNS_ENEMY_TERRITORY', 00H
	ORG $+3
$SG232139 DB	'DIPLO_VICTORY_CIV_DELEGATES_COEFFICIENT', 00H
$SG232140 DB	'DIPLO_VICTORY_CIV_DELEGATES_CONSTANT', 00H
	ORG $+3
$SG232141 DB	'DIPLO_VICTORY_CS_DELEGATES_COEFFICIENT', 00H
	ORG $+1
$SG232142 DB	'DIPLO_VICTORY_CS_DELEGATES_CONSTANT', 00H
$SG232143 DB	'AI_PRODUCTION_WEIGHT_MOD_PER_TURN_LEFT', 00H
	ORG $+1
$SG232144 DB	'AI_PRODUCTION_WEIGHT_BASE_MOD', 00H
	ORG $+2
$SG232145 DB	'AI_RESEARCH_WEIGHT_MOD_PER_TURN_LEFT', 00H
	ORG $+3
$SG232146 DB	'AI_RESEARCH_WEIGHT_BASE_MOD', 00H
$SG232147 DB	'HURRY_GOLD_PRODUCTION_EXPONENT', 00H
	ORG $+1
$SG232148 DB	'CITY_ZOOM_LEVEL_1', 00H
	ORG $+2
$SG232149 DB	'CITY_ZOOM_LEVEL_2', 00H
	ORG $+2
$SG232150 DB	'CITY_ZOOM_LEVEL_3', 00H
	ORG $+2
$SG232151 DB	'CITY_ZOOM_OFFSET', 00H
	ORG $+3
$SG232152 DB	'CULTURE_COST_LATER_PLOT_EXPONENT', 00H
	ORG $+3
$SG232153 DB	'POST_COMBAT_TEXT_DELAY', 00H
	ORG $+1
$SG232154 DB	'AI_CITY_SPECIALIZATION_PRODUCTION_WEIGHT_NEXT_WONDER', 00H
	ORG $+3
$SG232155 DB	'AI_DANGER_MAJOR_APPROACH_WAR', 00H
	ORG $+3
$SG232156 DB	'AI_DANGER_MAJOR_APPROACH_HOSTILE', 00H
	ORG $+3
$SG232157 DB	'AI_DANGER_MAJOR_APPROACH_DECEPTIVE', 00H
	ORG $+1
$SG232158 DB	'AI_DANGER_MAJOR_APPROACH_GUARDED', 00H
	ORG $+3
$SG232159 DB	'AI_DANGER_MAJOR_APPROACH_AFRAID', 00H
$SG232160 DB	'AI_DANGER_MAJOR_APPROACH_FRIENDLY', 00H
	ORG $+2
$SG232161 DB	'AI_DANGER_MAJOR_APPROACH_NEUTRAL', 00H
	ORG $+3
$SG232162 DB	'AI_DANGER_MINOR_APPROACH_NEUTRAL', 00H
	ORG $+3
$SG232163 DB	'AI_DANGER_MINOR_APPROACH_FRIENDLY', 00H
	ORG $+2
$SG232164 DB	'AI_DANGER_MINOR_APPROACH_BULLY', 00H
	ORG $+1
$SG232165 DB	'AI_DANGER_MINOR_APPROACH_CONQUEST', 00H
	ORG $+2
$SG232166 DB	'FLAVOR_STANDARD_LOG10_TILES_PER_PLAYER', 00H
	ORG $+1
$SG232167 DB	'DIPLO_VICTORY_TEAM_MULTIPLIER', 00H
	ORG $+2
$SG232168 DB	'AI_TACTICAL_FLAVOR_DAMPENING_FOR_MOVE_PRIORITIZATION', 00H
	ORG $+3
$SG232169 DB	'AI_STRATEGY_DEFEND_MY_LANDS_UNITS_PER_CITY', 00H
	ORG $+1
$SG232170 DB	'AI_STRATEGY_NAVAL_UNITS_PER_CITY', 00H
	ORG $+3
$SG232171 DB	'GOLD_GIFT_FRIENDSHIP_EXPONENT', 00H
	ORG $+2
$SG232172 DB	'GOLD_GIFT_FRIENDSHIP_DIVISOR', 00H
	ORG $+3
$SG232173 DB	'HURRY_GOLD_TECH_EXPONENT', 00H
	ORG $+3
$SG232174 DB	'HURRY_GOLD_CULTURE_EXPONENT', 00H
$SG232175 DB	'CITY_GROWTH_MULTIPLIER', 00H
	ORG $+1
$SG232176 DB	'CITY_GROWTH_EXPONENT', 00H
	ORG $+3
$SG232177 DB	'POLICY_COST_EXPONENT', 00H
	ORG $+3
$SG232178 DB	'UNIT_UPGRADE_COST_MULTIPLIER_PER_ERA', 00H
	ORG $+3
$SG232179 DB	'UNIT_UPGRADE_COST_EXPONENT', 00H
	ORG $+1
$SG232180 DB	'CITY_STRENGTH_TECH_BASE', 00H
$SG232181 DB	'CITY_STRENGTH_TECH_EXPONENT', 00H
$SG232182 DB	'ESPIONAGE_COUP_NOBODY_BONUS', 00H
$SG232183 DB	'ESPIONAGE_COUP_MULTIPLY_CONSTANT', 00H
	ORG $+3
$SG232184 DB	'ESPIONAGE_COUP_SPY_LEVEL_DELTA_ZERO', 00H
$SG232185 DB	'ESPIONAGE_COUP_SPY_LEVEL_DELTA_ONE', 00H
	ORG $+1
$SG232186 DB	'ESPIONAGE_COUP_SPY_LEVEL_DELTA_TWO', 00H
	ORG $+1
$SG232187 DB	'ESPIONAGE_COUP_SPY_LEVEL_DELTA_THREE', 00H
	ORG $+3
$SG232188 DB	'ESPIONAGE_COUP_SPY_LEVEL_DELTA_FOUR', 00H
$SG232189 DB	'INTERNATIONAL_TRADE_BASE', 00H
	ORG $+3
$SG232190 DB	'INTERNATIONAL_TRADE_EXCLUSIVE_CONNECTION', 00H
	ORG $+3
$SG232191 DB	'INTERNATIONAL_TRADE_CITY_GPT_DIVISOR', 00H
	ORG $+3
$SG232192 DB	'PILLAGE_HEAL_AMOUNT', 00H
$SG232193 DB	'CITY_CONNECTIONS_CONNECT_TO_CAPITAL', 00H
$SG232194 DB	'UNRESEARCHED_TECH_BONUS_FROM_KILLS_SLOPE', 00H
	ORG $+3
$SG232195 DB	'UNRESEARCHED_TECH_BONUS_FROM_KILLS_INTERCEPT', 00H
	ORG $+3
$SG232196 DB	'BASE_CULTURE_PER_GREAT_WORK', 00H
$SG232197 DB	'BASE_TOURISM_PER_GREAT_WORK', 00H
$SG232198 DB	'TOURISM_MODIFIER_SHARED_RELIGION', 00H
	ORG $+3
$SG232199 DB	'TOURISM_MODIFIER_TRADE_ROUTE', 00H
	ORG $+3
$SG232200 DB	'TOURISM_MODIFIER_OPEN_BORDERS', 00H
	ORG $+2
$SG232201 DB	'TOURISM_MODIFIER_DIFFERENT_IDEOLOGIES', 00H
	ORG $+2
$SG232202 DB	'TOURISM_MODIFIER_DIPLOMAT', 00H
	ORG $+2
$SG232203 DB	'MINIUMUM_TOURISM_BLAST_STRENGTH', 00H
$SG232204 DB	'CULTURE_LEVEL_EXOTIC', 00H
	ORG $+3
$SG232205 DB	'CULTURE_LEVEL_FAMILIAR', 00H
	ORG $+1
$SG232206 DB	'CULTURE_LEVEL_POPULAR', 00H
	ORG $+2
$SG232207 DB	'CULTURE_LEVEL_INFLUENTIAL', 00H
	ORG $+2
$SG232208 DB	'CULTURE_LEVEL_DOMINANT', 00H
	ORG $+1
$SG232209 DB	'MIN_DIG_SITES_PER_MAJOR_CIV', 00H
$SG232210 DB	'MAX_DIG_SITES_PER_MAJOR_CIV', 00H
$SG232211 DB	'PERCENT_SITES_HIDDEN', 00H
	ORG $+3
$SG232212 DB	'PERCENT_HIDDEN_SITES_WRITING', 00H
	ORG $+3
$SG232213 DB	'SAPPED_CITY_ATTACK_MODIFIER', 00H
$SG232214 DB	'SAPPER_BONUS_RANGE', 00H
	ORG $+1
$SG232215 DB	'EXOTIC_GOODS_GOLD_MIN', 00H
	ORG $+2
$SG232216 DB	'EXOTIC_GOODS_GOLD_MAX', 00H
	ORG $+2
$SG232217 DB	'EXOTIC_GOODS_XP_MIN', 00H
$SG232218 DB	'EXOTIC_GOODS_XP_MAX', 00H
$SG232219 DB	'TEMPORARY_CULTURE_BOOST_MOD', 00H
$SG232220 DB	'TEMPORARY_TOURISM_BOOST_MOD', 00H
$SG232221 DB	'LEAGUE_SESSION_INTERVAL_BASE_TURNS', 00H
	ORG $+1
$SG232222 DB	'LEAGUE_SESSION_SOON_WARNING_TURNS', 00H
	ORG $+2
$SG232223 DB	'LEAGUE_MEMBER_PROPOSALS_BASE', 00H
	ORG $+3
$SG232224 DB	'LEAGUE_MEMBER_VOTES_BASE', 00H
	ORG $+3
$SG232225 DB	'LEAGUE_MEMBER_VOTES_FOR_HOST', 00H
	ORG $+3
$SG232226 DB	'LEAGUE_MEMBER_VOTES_PER_CITY_STATE_ALLY', 00H
$SG232227 DB	'LEAGUE_PROJECT_REWARD_TIER_1_THRESHOLD', 00H
	ORG $+1
$SG232228 DB	'LEAGUE_PROJECT_REWARD_TIER_2_THRESHOLD', 00H
	ORG $+1
$SG232229 DB	'LAND_TERRAIN', 00H
	ORG $+3
$SG232230 DB	'DEEP_WATER_TERRAIN', 00H
	ORG $+1
$SG232231 DB	'SHALLOW_WATER_TERRAIN', 00H
	ORG $+2
$SG232232 DB	'RUINS_IMPROVEMENT', 00H
	ORG $+2
$SG232233 DB	'NUKE_FEATURE', 00H
	ORG $+3
$SG232234 DB	'ARTIFACT_RESOURCE', 00H
	ORG $+2
$SG232235 DB	'HIDDEN_ARTIFACT_RESOURCE', 00H
	ORG $+3
$SG232236 DB	'CAPITAL_BUILDINGCLASS', 00H
	ORG $+2
$SG232237 DB	'DEFAULT_SPECIALIST', 00H
	ORG $+1
$SG232238 DB	'SPACE_RACE_TRIGGER_PROJECT', 00H
	ORG $+1
$SG232239 DB	'SPACESHIP_CAPSULE', 00H
	ORG $+2
$SG232240 DB	'SPACESHIP_BOOSTER', 00H
	ORG $+2
$SG232241 DB	'SPACESHIP_STASIS', 00H
	ORG $+3
$SG232242 DB	'SPACESHIP_ENGINE', 00H
	ORG $+3
$SG232243 DB	'MANHATTAN_PROJECT', 00H
	ORG $+2
$SG232244 DB	'INITIAL_CITY_ROUTE_TYPE', 00H
$SG232245 DB	'STANDARD_HANDICAP', 00H
	ORG $+2
$SG232246 DB	'MULTIPLAYER_HANDICAP', 00H
	ORG $+3
$SG232247 DB	'STANDARD_HANDICAP_QUICK', 00H
$SG232248 DB	'STANDARD_GAMESPEED', 00H
	ORG $+1
$SG232249 DB	'STANDARD_TURNTIMER', 00H
	ORG $+1
$SG232250 DB	'STANDARD_CLIMATE', 00H
	ORG $+3
$SG232251 DB	'STANDARD_WORLD_SIZE', 00H
$SG232252 DB	'STANDARD_SEALEVEL', 00H
	ORG $+2
$SG232253 DB	'STANDARD_ERA', 00H
	ORG $+3
$SG232254 DB	'LAST_EMBARK_ART_ERA', 00H
$SG232255 DB	'LAST_UNIT_ART_ERA', 00H
	ORG $+2
$SG232256 DB	'LAST_BRIDGE_ART_ERA', 00H
$SG232257 DB	'STANDARD_CALENDAR', 00H
	ORG $+2
$SG232258 DB	'BARBARIAN_HANDICAP', 00H
	ORG $+1
$SG232259 DB	'BARBARIAN_CIVILIZATION', 00H
	ORG $+1
$SG232260 DB	'BARBARIAN_LEADER', 00H
	ORG $+3
$SG232261 DB	'MINOR_CIV_HANDICAP', 00H
	ORG $+1
$SG232262 DB	'MINOR_CIVILIZATION', 00H
	ORG $+1
$SG232263 DB	'PROMOTION_EMBARKATION', 00H
	ORG $+2
$SG232264 DB	'PROMOTION_DEFENSIVE_EMBARKATION', 00H
$SG232265 DB	'PROMOTION_ALLWATER_EMBARKATION', 00H
	ORG $+1
$SG232266 DB	'PROMOTION_OCEAN_IMPASSABLE_UNTIL_ASTRONOMY', 00H
	ORG $+1
$SG232267 DB	'PROMOTION_OCEAN_IMPASSABLE', 00H
	ORG $+1
$SG232268 DB	'AI_HANDICAP', 00H
$SG232269 DB	'BARBARIAN_CAMP_IMPROVEMENT', 00H
	ORG $+1
$SG232270 DB	'WALLS_BUILDINGCLASS', 00H
$SG232271 DB	'PROMOTION_ONLY_DEFENSIVE', 00H
	ORG $+3
$SG232272 DB	'PROMOTION_UNWELCOME_EVANGELIST', 00H
	ORG $+1
$SG232273 DB	'COMBAT_CAPTURE_HEALTH', 00H
	ORG $+2
$SG232274 DB	'COMBAT_CAPTURE_MIN_CHANCE', 00H
	ORG $+2
$SG232275 DB	'COMBAT_CAPTURE_MAX_CHANCE', 00H
	ORG $+2
$SG232276 DB	'COMBAT_CAPTURE_RATIO_MULTIPLIER', 00H
$SG232277 DB	'RELIGION_MIN_FAITH_FIRST_PANTHEON', 00H
	ORG $+2
$SG232278 DB	'RELIGION_MIN_FAITH_FIRST_PROPHET', 00H
	ORG $+3
$SG232279 DB	'RELIGION_MIN_FAITH_FIRST_GREAT_PERSON', 00H
	ORG $+2
$SG232280 DB	'RELIGION_GAME_FAITH_DELTA_NEXT_PANTHEON', 00H
$SG232281 DB	'RELIGION_FAITH_DELTA_NEXT_PROPHET', 00H
	ORG $+2
$SG232282 DB	'RELIGION_FAITH_DELTA_NEXT_GREAT_PERSON', 00H
	ORG $+1
$SG232283 DB	'RELIGION_BASE_CHANCE_PROPHET_SPAWN', 00H
	ORG $+1
$SG232284 DB	'RELIGION_ATHEISM_PRESSURE_PER_POP', 00H
	ORG $+2
$SG232285 DB	'RELIGION_INITIAL_FOUNDING_CITY_PRESSURE', 00H
$SG232286 DB	'RELIGION_PER_TURN_FOUNDING_CITY_PRESSURE', 00H
	ORG $+3
$SG232287 DB	'RELIGION_MISSIONARY_PRESSURE_MULTIPLIER', 00H
$SG232288 DB	'RELIGION_ADJACENT_CITY_DISTANCE', 00H
$SG232289 DB	'RELIGION_DIPLO_HIT_INITIAL_CONVERT_FRIENDLY_CITY', 00H
	ORG $+3
$SG232290 DB	'RELIGION_DIPLO_HIT_RELIGIOUS_FLIP_FRIENDLY_CITY', 00H
$SG232291 DB	'RELIGION_DIPLO_HIT_CONVERT_HOLY_CITY', 00H
	ORG $+3
$SG232292 DB	'RELIGION_DIPLO_HIT_THRESHOLD', 00H
	ORG $+3
$SG232293 DB	'ESPIONAGE_GATHERING_INTEL_COST_PERCENT', 00H
	ORG $+1
$SG232294 DB	'ESPIONAGE_GATHERING_INTEL_RATE_BY_SPY_RANK_PERCENT', 00H
	ORG $+1
$SG232295 DB	'ESPIONAGE_GATHERING_INTEL_RATE_BASE_PERCENT', 00H
$SG232296 DB	'ESPIONAGE_TURNS_BETWEEN_CITY_STATE_ELECTIONS', 00H
	ORG $+3
$SG232297 DB	'ESPIONAGE_INFLUENCE_GAINED_FOR_RIGGED_ELECTION', 00H
	ORG $+1
$SG232298 DB	'ESPIONAGE_INFLUENCE_LOST_FOR_RIGGED_ELECTION', 00H
	ORG $+3
$SG232299 DB	'ESPIONAGE_SURVEILLANCE_SIGHT_RANGE', 00H
	ORG $+1
$SG232300 DB	'ESPIONAGE_COUP_OTHER_PLAYERS_INFLUENCE_DROP', 00H
$SG232301 DB	'PROMOTION_GOODY_HUT_PICKER', 00H
	ORG $+1
$SG232302 DB	'IDEOLOGY_PERCENT_CLEAR_VICTORY_PREF', 00H
$SG232303 DB	'IDEOLOGY_SCORE_GRAND_STRATS', 00H
$SG232304 DB	'IDEOLOGY_SCORE_HAPPINESS', 00H
	ORG $+3
$SG232305 DB	'IDEOLOGY_SCORE_PER_FREE_TENET', 00H
	ORG $+2
$SG232306 DB	'IDEOLOGY_SCORE_HOSTILE', 00H
	ORG $+1
$SG232307 DB	'IDEOLOGY_SCORE_GUARDED', 00H
	ORG $+1
$SG232308 DB	'IDEOLOGY_SCORE_AFRAID', 00H
	ORG $+2
$SG232309 DB	'IDEOLOGY_SCORE_FRIENDLY', 00H
$SG232310 DB	'POLICY_BRANCH_FREEDOM', 00H
	ORG $+2
$SG232312 DB	'POLICY_BRANCH_AUTOCRACY', 00H
$SG232314 DB	'POLICY_BRANCH_ORDER', 00H
$SG232793 DB	'Info type %s not found.', 00H
_guidICvDLLDatabaseUtility1 DD 0ae87f7bdH
	DW	08510H
	DW	0444fH
	DB	09dH
	DB	054H
	DB	098H
	DB	03dH
	DB	077H
	DB	064H
	DB	085H
	DB	0a6H
CONST	ENDS
;	COMDAT ?NO_TURN@CvMinorCivQuest@@2HB
CONST	SEGMENT
?NO_TURN@CvMinorCivQuest@@2HB DD 0ffffffffH		; CvMinorCivQuest::NO_TURN
CONST	ENDS
;	COMDAT ?NO_QUEST_DATA@CvMinorCivQuest@@2HB
CONST	SEGMENT
?NO_QUEST_DATA@CvMinorCivQuest@@2HB DD 0ffffffffH	; CvMinorCivQuest::NO_QUEST_DATA
CONST	ENDS
PUBLIC	?GetInterfaceId@ICvDLLDatabaseUtility1@@SG?AU_GUID@@XZ ; ICvDLLDatabaseUtility1::GetInterfaceId
; Function compile flags: /Ogtpy
; File c:\users\enormousapplepie\desktop\cleanup (v1)\lekmod files\lekmod dll versions\v30\lekmod_dll\cvgamecoredllutil\include\icvdlldatabaseutility.h
;	COMDAT ?GetInterfaceId@ICvDLLDatabaseUtility1@@SG?AU_GUID@@XZ
_TEXT	SEGMENT
$T252556 = 8						; size = 4
?GetInterfaceId@ICvDLLDatabaseUtility1@@SG?AU_GUID@@XZ PROC ; ICvDLLDatabaseUtility1::GetInterfaceId, COMDAT

; 12   : 	static GUID DLLCALL GetInterfaceId() { return guidICvDLLDatabaseUtility1; }

	mov	eax, DWORD PTR $T252556[esp-4]
	mov	ecx, DWORD PTR _guidICvDLLDatabaseUtility1
	mov	edx, DWORD PTR _guidICvDLLDatabaseUtility1+4
	mov	DWORD PTR [eax], ecx
	mov	ecx, DWORD PTR _guidICvDLLDatabaseUtility1+8
	mov	DWORD PTR [eax+4], edx
	mov	edx, DWORD PTR _guidICvDLLDatabaseUtility1+12
	mov	DWORD PTR [eax+8], ecx
	mov	DWORD PTR [eax+12], edx
	ret	4
?GetInterfaceId@ICvDLLDatabaseUtility1@@SG?AU_GUID@@XZ ENDP ; ICvDLLDatabaseUtility1::GetInterfaceId
_TEXT	ENDS
PUBLIC	??_7bad_alloc@std@@6B@				; std::bad_alloc::`vftable'
PUBLIC	??0bad_alloc@std@@QAE@PBD@Z			; std::bad_alloc::bad_alloc
PUBLIC	??_R4bad_alloc@std@@6B@				; std::bad_alloc::`RTTI Complete Object Locator'
PUBLIC	??_R0?AVbad_alloc@std@@@8			; std::bad_alloc `RTTI Type Descriptor'
PUBLIC	??_R3bad_alloc@std@@8				; std::bad_alloc::`RTTI Class Hierarchy Descriptor'
PUBLIC	??_R2bad_alloc@std@@8				; std::bad_alloc::`RTTI Base Class Array'
PUBLIC	??_R1A@?0A@EA@bad_alloc@std@@8			; std::bad_alloc::`RTTI Base Class Descriptor at (0,-1,0,64)'
PUBLIC	??_R1A@?0A@EA@exception@std@@8			; std::exception::`RTTI Base Class Descriptor at (0,-1,0,64)'
PUBLIC	??_R0?AVexception@std@@@8			; std::exception `RTTI Type Descriptor'
PUBLIC	??_R3exception@std@@8				; std::exception::`RTTI Class Hierarchy Descriptor'
PUBLIC	??_R2exception@std@@8				; std::exception::`RTTI Base Class Array'
EXTRN	__imp_??0exception@std@@QAE@ABQBD@Z:PROC
EXTRN	??_7type_info@@6B@:QWORD			; type_info::`vftable'
EXTRN	??_Ebad_alloc@std@@UAEPAXI@Z:PROC		; std::bad_alloc::`vector deleting destructor'
EXTRN	?what@exception@std@@UBEPBDXZ:PROC		; std::exception::what
;	COMDAT ??_R2exception@std@@8
; File c:\program files (x86)\microsoft visual studio 9.0\vc\include\exception
rdata$r	SEGMENT
??_R2exception@std@@8 DD FLAT:??_R1A@?0A@EA@exception@std@@8 ; std::exception::`RTTI Base Class Array'
rdata$r	ENDS
;	COMDAT ??_R3exception@std@@8
rdata$r	SEGMENT
??_R3exception@std@@8 DD 00H				; std::exception::`RTTI Class Hierarchy Descriptor'
	DD	00H
	DD	01H
	DD	FLAT:??_R2exception@std@@8
rdata$r	ENDS
;	COMDAT ??_R0?AVexception@std@@@8
_DATA	SEGMENT
??_R0?AVexception@std@@@8 DD FLAT:??_7type_info@@6B@	; std::exception `RTTI Type Descriptor'
	DD	00H
	DB	'.?AVexception@std@@', 00H
_DATA	ENDS
;	COMDAT ??_R1A@?0A@EA@exception@std@@8
rdata$r	SEGMENT
??_R1A@?0A@EA@exception@std@@8 DD FLAT:??_R0?AVexception@std@@@8 ; std::exception::`RTTI Base Class Descriptor at (0,-1,0,64)'
	DD	00H
	DD	00H
	DD	0ffffffffH
	DD	00H
	DD	040H
	DD	FLAT:??_R3exception@std@@8
rdata$r	ENDS
;	COMDAT ??_R1A@?0A@EA@bad_alloc@std@@8
rdata$r	SEGMENT
??_R1A@?0A@EA@bad_alloc@std@@8 DD FLAT:??_R0?AVbad_alloc@std@@@8 ; std::bad_alloc::`RTTI Base Class Descriptor at (0,-1,0,64)'
	DD	01H
	DD	00H
	DD	0ffffffffH
	DD	00H
	DD	040H
	DD	FLAT:??_R3bad_alloc@std@@8
rdata$r	ENDS
;	COMDAT ??_R2bad_alloc@std@@8
rdata$r	SEGMENT
??_R2bad_alloc@std@@8 DD FLAT:??_R1A@?0A@EA@bad_alloc@std@@8 ; std::bad_alloc::`RTTI Base Class Array'
	DD	FLAT:??_R1A@?0A@EA@exception@std@@8
rdata$r	ENDS
;	COMDAT ??_R3bad_alloc@std@@8
rdata$r	SEGMENT
??_R3bad_alloc@std@@8 DD 00H				; std::bad_alloc::`RTTI Class Hierarchy Descriptor'
	DD	00H
	DD	02H
	DD	FLAT:??_R2bad_alloc@std@@8
rdata$r	ENDS
;	COMDAT ??_R0?AVbad_alloc@std@@@8
_DATA	SEGMENT
??_R0?AVbad_alloc@std@@@8 DD FLAT:??_7type_info@@6B@	; std::bad_alloc `RTTI Type Descriptor'
	DD	00H
	DB	'.?AVbad_alloc@std@@', 00H
_DATA	ENDS
;	COMDAT ??_R4bad_alloc@std@@6B@
rdata$r	SEGMENT
??_R4bad_alloc@std@@6B@ DD 00H				; std::bad_alloc::`RTTI Complete Object Locator'
	DD	00H
	DD	00H
	DD	FLAT:??_R0?AVbad_alloc@std@@@8
	DD	FLAT:??_R3bad_alloc@std@@8
rdata$r	ENDS
;	COMDAT ??_7bad_alloc@std@@6B@
CONST	SEGMENT
??_7bad_alloc@std@@6B@ DD FLAT:??_R4bad_alloc@std@@6B@	; std::bad_alloc::`vftable'
	DD	FLAT:??_Ebad_alloc@std@@UAEPAXI@Z
	DD	FLAT:?what@exception@std@@UBEPBDXZ
; Function compile flags: /Ogtpy
CONST	ENDS
;	COMDAT ??0bad_alloc@std@@QAE@PBD@Z
_TEXT	SEGMENT
__Message$ = 8						; size = 4
??0bad_alloc@std@@QAE@PBD@Z PROC			; std::bad_alloc::bad_alloc, COMDAT
; _this$ = ecx

; 371  : 		{	// construct from message string

	push	esi
	lea	eax, DWORD PTR __Message$[esp]
	push	eax
	mov	esi, ecx
	call	DWORD PTR __imp_??0exception@std@@QAE@ABQBD@Z
	mov	DWORD PTR [esi], OFFSET ??_7bad_alloc@std@@6B@

; 372  : 		}

	mov	eax, esi
	pop	esi
	ret	4
??0bad_alloc@std@@QAE@PBD@Z ENDP			; std::bad_alloc::bad_alloc
_TEXT	ENDS
PUBLIC	??1bad_alloc@std@@UAE@XZ			; std::bad_alloc::~bad_alloc
EXTRN	__imp_??1exception@std@@UAE@XZ:PROC
; Function compile flags: /Ogtpy
;	COMDAT ??1bad_alloc@std@@UAE@XZ
_TEXT	SEGMENT
??1bad_alloc@std@@UAE@XZ PROC				; std::bad_alloc::~bad_alloc, COMDAT
; _this$ = ecx

; 380  : 		{	// destroy the object

	mov	DWORD PTR [ecx], OFFSET ??_7bad_alloc@std@@6B@

; 381  : 		}

	jmp	DWORD PTR __imp_??1exception@std@@UAE@XZ
??1bad_alloc@std@@UAE@XZ ENDP				; std::bad_alloc::~bad_alloc
_TEXT	ENDS
EXTRN	??3@YAXPAX@Z:PROC				; operator delete
; Function compile flags: /Ogtpy
;	COMDAT ??_Gbad_alloc@std@@UAEPAXI@Z
_TEXT	SEGMENT
___flags$ = 8						; size = 4
??_Gbad_alloc@std@@UAEPAXI@Z PROC			; std::bad_alloc::`scalar deleting destructor', COMDAT
; _this$ = ecx
	push	esi
	mov	esi, ecx
	mov	DWORD PTR [esi], OFFSET ??_7bad_alloc@std@@6B@
	call	DWORD PTR __imp_??1exception@std@@UAE@XZ
	test	BYTE PTR ___flags$[esp], 1
	je	SHORT $LN6@scalar
	push	esi
	call	??3@YAXPAX@Z				; operator delete
	add	esp, 4
$LN6@scalar:
	mov	eax, esi
	pop	esi
	ret	4
??_Gbad_alloc@std@@UAEPAXI@Z ENDP			; std::bad_alloc::`scalar deleting destructor'
_TEXT	ENDS
PUBLIC	??2@YAPAXIPAX@Z					; operator new
; Function compile flags: /Ogtpy
; File c:\program files (x86)\microsoft visual studio 9.0\vc\include\new
;	COMDAT ??2@YAPAXIPAX@Z
_TEXT	SEGMENT
___formal$ = 8						; size = 4
__Where$ = 12						; size = 4
??2@YAPAXIPAX@Z PROC					; operator new, COMDAT

; 59   : 	return (_Where);

	mov	eax, DWORD PTR __Where$[esp-4]

; 60   : 	}

	ret	0
??2@YAPAXIPAX@Z ENDP					; operator new
_TEXT	ENDS
PUBLIC	??3@YAXPAX0@Z					; operator delete
; Function compile flags: /Ogtpy
;	COMDAT ??3@YAXPAX0@Z
_TEXT	SEGMENT
___formal$ = 8						; size = 4
___formal$ = 12						; size = 4
??3@YAXPAX0@Z PROC					; operator delete, COMDAT

; 64   : 	}

	ret	0
??3@YAXPAX0@Z ENDP					; operator delete
_TEXT	ENDS
PUBLIC	??_7logic_error@std@@6B@			; std::logic_error::`vftable'
PUBLIC	??0logic_error@std@@QAE@ABV?$basic_string@DU?$char_traits@D@std@@V?$allocator@D@2@@1@@Z ; std::logic_error::logic_error
PUBLIC	??_R4logic_error@std@@6B@			; std::logic_error::`RTTI Complete Object Locator'
PUBLIC	??_R0?AVlogic_error@std@@@8			; std::logic_error `RTTI Type Descriptor'
PUBLIC	??_R3logic_error@std@@8				; std::logic_error::`RTTI Class Hierarchy Descriptor'
PUBLIC	??_R2logic_error@std@@8				; std::logic_error::`RTTI Base Class Array'
PUBLIC	??_R1A@?0A@EA@logic_error@std@@8		; std::logic_error::`RTTI Base Class Descriptor at (0,-1,0,64)'
PUBLIC	?what@logic_error@std@@UBEPBDXZ			; std::logic_error::what
EXTRN	__imp_??0?$basic_string@DU?$char_traits@D@std@@V?$allocator@D@2@@std@@QAE@ABV01@@Z:PROC
EXTRN	__imp_??0exception@std@@QAE@XZ:PROC
EXTRN	___CxxFrameHandler3:PROC
EXTRN	??_Elogic_error@std@@UAEPAXI@Z:PROC		; std::logic_error::`vector deleting destructor'
;	COMDAT ??_R1A@?0A@EA@logic_error@std@@8
; File c:\program files (x86)\microsoft visual studio 9.0\vc\include\stdexcept
rdata$r	SEGMENT
??_R1A@?0A@EA@logic_error@std@@8 DD FLAT:??_R0?AVlogic_error@std@@@8 ; std::logic_error::`RTTI Base Class Descriptor at (0,-1,0,64)'
	DD	01H
	DD	00H
	DD	0ffffffffH
	DD	00H
	DD	040H
	DD	FLAT:??_R3logic_error@std@@8
rdata$r	ENDS
;	COMDAT ??_R2logic_error@std@@8
rdata$r	SEGMENT
??_R2logic_error@std@@8 DD FLAT:??_R1A@?0A@EA@logic_error@std@@8 ; std::logic_error::`RTTI Base Class Array'
	DD	FLAT:??_R1A@?0A@EA@exception@std@@8
rdata$r	ENDS
;	COMDAT ??_R3logic_error@std@@8
rdata$r	SEGMENT
??_R3logic_error@std@@8 DD 00H				; std::logic_error::`RTTI Class Hierarchy Descriptor'
	DD	00H
	DD	02H
	DD	FLAT:??_R2logic_error@std@@8
rdata$r	ENDS
;	COMDAT ??_R0?AVlogic_error@std@@@8
_DATA	SEGMENT
??_R0?AVlogic_error@std@@@8 DD FLAT:??_7type_info@@6B@	; std::logic_error `RTTI Type Descriptor'
	DD	00H
	DB	'.?AVlogic_error@std@@', 00H
_DATA	ENDS
;	COMDAT ??_R4logic_error@std@@6B@
rdata$r	SEGMENT
??_R4logic_error@std@@6B@ DD 00H			; std::logic_error::`RTTI Complete Object Locator'
	DD	00H
	DD	00H
	DD	FLAT:??_R0?AVlogic_error@std@@@8
	DD	FLAT:??_R3logic_error@std@@8
rdata$r	ENDS
;	COMDAT ??_7logic_error@std@@6B@
CONST	SEGMENT
??_7logic_error@std@@6B@ DD FLAT:??_R4logic_error@std@@6B@ ; std::logic_error::`vftable'
	DD	FLAT:??_Elogic_error@std@@UAEPAXI@Z
	DD	FLAT:?what@logic_error@std@@UBEPBDXZ
CONST	ENDS
;	COMDAT xdata$x
xdata$x	SEGMENT
__unwindtable$??0logic_error@std@@QAE@ABV?$basic_string@DU?$char_traits@D@std@@V?$allocator@D@2@@1@@Z DD 0ffffffffH
	DD	FLAT:__unwindfunclet$??0logic_error@std@@QAE@ABV?$basic_string@DU?$char_traits@D@std@@V?$allocator@D@2@@1@@Z$0
__ehfuncinfo$??0logic_error@std@@QAE@ABV?$basic_string@DU?$char_traits@D@std@@V?$allocator@D@2@@1@@Z DD 019930522H
	DD	01H
	DD	FLAT:__unwindtable$??0logic_error@std@@QAE@ABV?$basic_string@DU?$char_traits@D@std@@V?$allocator@D@2@@1@@Z
	DD	2 DUP(00H)
	DD	2 DUP(00H)
	DD	00H
	DD	01H
; Function compile flags: /Ogtpy
xdata$x	ENDS
;	COMDAT ??0logic_error@std@@QAE@ABV?$basic_string@DU?$char_traits@D@std@@V?$allocator@D@2@@1@@Z
_TEXT	SEGMENT
_this$ = -16						; size = 4
__$EHRec$ = -12						; size = 12
__Message$ = 8						; size = 4
??0logic_error@std@@QAE@ABV?$basic_string@DU?$char_traits@D@std@@V?$allocator@D@2@@1@@Z PROC ; std::logic_error::logic_error, COMDAT
; _this$ = ecx

; 26   : 		{	// construct from message string

	push	-1
	push	__ehhandler$??0logic_error@std@@QAE@ABV?$basic_string@DU?$char_traits@D@std@@V?$allocator@D@2@@1@@Z
	mov	eax, DWORD PTR fs:0
	push	eax
	mov	DWORD PTR fs:0, esp
	push	ecx
	push	esi
	mov	esi, ecx
	mov	DWORD PTR _this$[esp+20], esi
	call	DWORD PTR __imp_??0exception@std@@QAE@XZ
	mov	eax, DWORD PTR __Message$[esp+16]
	push	eax
	lea	ecx, DWORD PTR [esi+12]
	mov	DWORD PTR __$EHRec$[esp+32], 0
	mov	DWORD PTR [esi], OFFSET ??_7logic_error@std@@6B@
	call	DWORD PTR __imp_??0?$basic_string@DU?$char_traits@D@std@@V?$allocator@D@2@@std@@QAE@ABV01@@Z

; 27   : 		}

	mov	ecx, DWORD PTR __$EHRec$[esp+20]
	mov	eax, esi
	pop	esi
	mov	DWORD PTR fs:0, ecx
	add	esp, 16					; 00000010H
	ret	4
_TEXT	ENDS
;	COMDAT text$x
text$x	SEGMENT
__unwindfunclet$??0logic_error@std@@QAE@ABV?$basic_string@DU?$char_traits@D@std@@V?$allocator@D@2@@1@@Z$0:
	mov	ecx, DWORD PTR _this$[ebp]
	jmp	DWORD PTR __imp_??1exception@std@@UAE@XZ
__ehhandler$??0logic_error@std@@QAE@ABV?$basic_string@DU?$char_traits@D@std@@V?$allocator@D@2@@1@@Z:
	mov	eax, OFFSET __ehfuncinfo$??0logic_error@std@@QAE@ABV?$basic_string@DU?$char_traits@D@std@@V?$allocator@D@2@@1@@Z
	jmp	___CxxFrameHandler3
text$x	ENDS
??0logic_error@std@@QAE@ABV?$basic_string@DU?$char_traits@D@std@@V?$allocator@D@2@@1@@Z ENDP ; std::logic_error::logic_error
PUBLIC	??1logic_error@std@@UAE@XZ			; std::logic_error::~logic_error
EXTRN	__imp_??1?$basic_string@DU?$char_traits@D@std@@V?$allocator@D@2@@std@@QAE@XZ:PROC
; Function compile flags: /Ogtpy
;	COMDAT ??1logic_error@std@@UAE@XZ
_TEXT	SEGMENT
??1logic_error@std@@UAE@XZ PROC				; std::logic_error::~logic_error, COMDAT
; _this$ = ecx

; 30   : 		{	// destroy the object

	push	esi
	mov	esi, ecx

; 31   : 		}

	lea	ecx, DWORD PTR [esi+12]
	mov	DWORD PTR [esi], OFFSET ??_7logic_error@std@@6B@
	call	DWORD PTR __imp_??1?$basic_string@DU?$char_traits@D@std@@V?$allocator@D@2@@std@@QAE@XZ
	mov	ecx, esi
	pop	esi
	jmp	DWORD PTR __imp_??1exception@std@@UAE@XZ
??1logic_error@std@@UAE@XZ ENDP				; std::logic_error::~logic_error
_TEXT	ENDS
EXTRN	__imp_?c_str@?$basic_string@DU?$char_traits@D@std@@V?$allocator@D@2@@std@@QBEPBDXZ:PROC
; Function compile flags: /Ogtpy
;	COMDAT ?what@logic_error@std@@UBEPBDXZ
_TEXT	SEGMENT
?what@logic_error@std@@UBEPBDXZ PROC			; std::logic_error::what, COMDAT
; _this$ = ecx

; 35   : 		return (_Str.c_str());

	add	ecx, 12					; 0000000cH
	jmp	DWORD PTR __imp_?c_str@?$basic_string@DU?$char_traits@D@std@@V?$allocator@D@2@@std@@QBEPBDXZ
?what@logic_error@std@@UBEPBDXZ ENDP			; std::logic_error::what
; Function compile flags: /Ogtpy
_TEXT	ENDS
;	COMDAT ??_Glogic_error@std@@UAEPAXI@Z
_TEXT	SEGMENT
___flags$ = 8						; size = 4
??_Glogic_error@std@@UAEPAXI@Z PROC			; std::logic_error::`scalar deleting destructor', COMDAT
; _this$ = ecx
	push	esi
	mov	esi, ecx
	lea	ecx, DWORD PTR [esi+12]
	mov	DWORD PTR [esi], OFFSET ??_7logic_error@std@@6B@
	call	DWORD PTR __imp_??1?$basic_string@DU?$char_traits@D@std@@V?$allocator@D@2@@std@@QAE@XZ
	mov	ecx, esi
	call	DWORD PTR __imp_??1exception@std@@UAE@XZ
	test	BYTE PTR ___flags$[esp], 1
	je	SHORT $LN6@scalar@2
	push	esi
	call	??3@YAXPAX@Z				; operator delete
	add	esp, 4
$LN6@scalar@2:
	mov	eax, esi
	pop	esi
	ret	4
??_Glogic_error@std@@UAEPAXI@Z ENDP			; std::logic_error::`scalar deleting destructor'
_TEXT	ENDS
PUBLIC	??_7length_error@std@@6B@			; std::length_error::`vftable'
PUBLIC	??0length_error@std@@QAE@ABV?$basic_string@DU?$char_traits@D@std@@V?$allocator@D@2@@1@@Z ; std::length_error::length_error
PUBLIC	??_R4length_error@std@@6B@			; std::length_error::`RTTI Complete Object Locator'
PUBLIC	??_R0?AVlength_error@std@@@8			; std::length_error `RTTI Type Descriptor'
PUBLIC	??_R3length_error@std@@8			; std::length_error::`RTTI Class Hierarchy Descriptor'
PUBLIC	??_R2length_error@std@@8			; std::length_error::`RTTI Base Class Array'
PUBLIC	??_R1A@?0A@EA@length_error@std@@8		; std::length_error::`RTTI Base Class Descriptor at (0,-1,0,64)'
EXTRN	??_Elength_error@std@@UAEPAXI@Z:PROC		; std::length_error::`vector deleting destructor'
;	COMDAT ??_R1A@?0A@EA@length_error@std@@8
rdata$r	SEGMENT
??_R1A@?0A@EA@length_error@std@@8 DD FLAT:??_R0?AVlength_error@std@@@8 ; std::length_error::`RTTI Base Class Descriptor at (0,-1,0,64)'
	DD	02H
	DD	00H
	DD	0ffffffffH
	DD	00H
	DD	040H
	DD	FLAT:??_R3length_error@std@@8
rdata$r	ENDS
;	COMDAT ??_R2length_error@std@@8
rdata$r	SEGMENT
??_R2length_error@std@@8 DD FLAT:??_R1A@?0A@EA@length_error@std@@8 ; std::length_error::`RTTI Base Class Array'
	DD	FLAT:??_R1A@?0A@EA@logic_error@std@@8
	DD	FLAT:??_R1A@?0A@EA@exception@std@@8
rdata$r	ENDS
;	COMDAT ??_R3length_error@std@@8
rdata$r	SEGMENT
??_R3length_error@std@@8 DD 00H				; std::length_error::`RTTI Class Hierarchy Descriptor'
	DD	00H
	DD	03H
	DD	FLAT:??_R2length_error@std@@8
rdata$r	ENDS
;	COMDAT ??_R0?AVlength_error@std@@@8
_DATA	SEGMENT
??_R0?AVlength_error@std@@@8 DD FLAT:??_7type_info@@6B@	; std::length_error `RTTI Type Descriptor'
	DD	00H
	DB	'.?AVlength_error@std@@', 00H
_DATA	ENDS
;	COMDAT ??_R4length_error@std@@6B@
rdata$r	SEGMENT
??_R4length_error@std@@6B@ DD 00H			; std::length_error::`RTTI Complete Object Locator'
	DD	00H
	DD	00H
	DD	FLAT:??_R0?AVlength_error@std@@@8
	DD	FLAT:??_R3length_error@std@@8
rdata$r	ENDS
;	COMDAT ??_7length_error@std@@6B@
CONST	SEGMENT
??_7length_error@std@@6B@ DD FLAT:??_R4length_error@std@@6B@ ; std::length_error::`vftable'
	DD	FLAT:??_Elength_error@std@@UAEPAXI@Z
	DD	FLAT:?what@logic_error@std@@UBEPBDXZ
; Function compile flags: /Ogtpy
CONST	ENDS
;	COMDAT ??0length_error@std@@QAE@ABV?$basic_string@DU?$char_traits@D@std@@V?$allocator@D@2@@1@@Z
_TEXT	SEGMENT
__Message$ = 8						; size = 4
??0length_error@std@@QAE@ABV?$basic_string@DU?$char_traits@D@std@@V?$allocator@D@2@@1@@Z PROC ; std::length_error::length_error, COMDAT
; _this$ = ecx

; 105  : 		{	// construct from message string

	mov	eax, DWORD PTR __Message$[esp-4]
	push	esi
	push	eax
	mov	esi, ecx
	call	??0logic_error@std@@QAE@ABV?$basic_string@DU?$char_traits@D@std@@V?$allocator@D@2@@1@@Z ; std::logic_error::logic_error
	mov	DWORD PTR [esi], OFFSET ??_7length_error@std@@6B@

; 106  : 		}

	mov	eax, esi
	pop	esi
	ret	4
??0length_error@std@@QAE@ABV?$basic_string@DU?$char_traits@D@std@@V?$allocator@D@2@@1@@Z ENDP ; std::length_error::length_error
_TEXT	ENDS
PUBLIC	??1length_error@std@@UAE@XZ			; std::length_error::~length_error
; Function compile flags: /Ogtpy
;	COMDAT ??1length_error@std@@UAE@XZ
_TEXT	SEGMENT
??1length_error@std@@UAE@XZ PROC			; std::length_error::~length_error, COMDAT
; _this$ = ecx

; 109  : 		{	// destroy the object

	push	esi
	mov	esi, ecx

; 110  : 		}

	lea	ecx, DWORD PTR [esi+12]
	mov	DWORD PTR [esi], OFFSET ??_7logic_error@std@@6B@
	call	DWORD PTR __imp_??1?$basic_string@DU?$char_traits@D@std@@V?$allocator@D@2@@std@@QAE@XZ
	mov	ecx, esi
	pop	esi
	jmp	DWORD PTR __imp_??1exception@std@@UAE@XZ
??1length_error@std@@UAE@XZ ENDP			; std::length_error::~length_error
; Function compile flags: /Ogtpy
_TEXT	ENDS
;	COMDAT ??_Glength_error@std@@UAEPAXI@Z
_TEXT	SEGMENT
___flags$ = 8						; size = 4
??_Glength_error@std@@UAEPAXI@Z PROC			; std::length_error::`scalar deleting destructor', COMDAT
; _this$ = ecx
	push	esi
	mov	esi, ecx
	lea	ecx, DWORD PTR [esi+12]
	mov	DWORD PTR [esi], OFFSET ??_7logic_error@std@@6B@
	call	DWORD PTR __imp_??1?$basic_string@DU?$char_traits@D@std@@V?$allocator@D@2@@std@@QAE@XZ
	mov	ecx, esi
	call	DWORD PTR __imp_??1exception@std@@UAE@XZ
	test	BYTE PTR ___flags$[esp], 1
	je	SHORT $LN8@scalar@3
	push	esi
	call	??3@YAXPAX@Z				; operator delete
	add	esp, 4
$LN8@scalar@3:
	mov	eax, esi
	pop	esi
	ret	4
??_Glength_error@std@@UAEPAXI@Z ENDP			; std::length_error::`scalar deleting destructor'
_TEXT	ENDS
PUBLIC	??_7out_of_range@std@@6B@			; std::out_of_range::`vftable'
PUBLIC	??0out_of_range@std@@QAE@ABV?$basic_string@DU?$char_traits@D@std@@V?$allocator@D@2@@1@@Z ; std::out_of_range::out_of_range
PUBLIC	??_R4out_of_range@std@@6B@			; std::out_of_range::`RTTI Complete Object Locator'
PUBLIC	??_R0?AVout_of_range@std@@@8			; std::out_of_range `RTTI Type Descriptor'
PUBLIC	??_R3out_of_range@std@@8			; std::out_of_range::`RTTI Class Hierarchy Descriptor'
PUBLIC	??_R2out_of_range@std@@8			; std::out_of_range::`RTTI Base Class Array'
PUBLIC	??_R1A@?0A@EA@out_of_range@std@@8		; std::out_of_range::`RTTI Base Class Descriptor at (0,-1,0,64)'
EXTRN	??_Eout_of_range@std@@UAEPAXI@Z:PROC		; std::out_of_range::`vector deleting destructor'
;	COMDAT ??_R1A@?0A@EA@out_of_range@std@@8
rdata$r	SEGMENT
??_R1A@?0A@EA@out_of_range@std@@8 DD FLAT:??_R0?AVout_of_range@std@@@8 ; std::out_of_range::`RTTI Base Class Descriptor at (0,-1,0,64)'
	DD	02H
	DD	00H
	DD	0ffffffffH
	DD	00H
	DD	040H
	DD	FLAT:??_R3out_of_range@std@@8
rdata$r	ENDS
;	COMDAT ??_R2out_of_range@std@@8
rdata$r	SEGMENT
??_R2out_of_range@std@@8 DD FLAT:??_R1A@?0A@EA@out_of_range@std@@8 ; std::out_of_range::`RTTI Base Class Array'
	DD	FLAT:??_R1A@?0A@EA@logic_error@std@@8
	DD	FLAT:??_R1A@?0A@EA@exception@std@@8
rdata$r	ENDS
;	COMDAT ??_R3out_of_range@std@@8
rdata$r	SEGMENT
??_R3out_of_range@std@@8 DD 00H				; std::out_of_range::`RTTI Class Hierarchy Descriptor'
	DD	00H
	DD	03H
	DD	FLAT:??_R2out_of_range@std@@8
rdata$r	ENDS
;	COMDAT ??_R0?AVout_of_range@std@@@8
_DATA	SEGMENT
??_R0?AVout_of_range@std@@@8 DD FLAT:??_7type_info@@6B@	; std::out_of_range `RTTI Type Descriptor'
	DD	00H
	DB	'.?AVout_of_range@std@@', 00H
_DATA	ENDS
;	COMDAT ??_R4out_of_range@std@@6B@
rdata$r	SEGMENT
??_R4out_of_range@std@@6B@ DD 00H			; std::out_of_range::`RTTI Complete Object Locator'
	DD	00H
	DD	00H
	DD	FLAT:??_R0?AVout_of_range@std@@@8
	DD	FLAT:??_R3out_of_range@std@@8
rdata$r	ENDS
;	COMDAT ??_7out_of_range@std@@6B@
CONST	SEGMENT
??_7out_of_range@std@@6B@ DD FLAT:??_R4out_of_range@std@@6B@ ; std::out_of_range::`vftable'
	DD	FLAT:??_Eout_of_range@std@@UAEPAXI@Z
	DD	FLAT:?what@logic_error@std@@UBEPBDXZ
; Function compile flags: /Ogtpy
CONST	ENDS
;	COMDAT ??0out_of_range@std@@QAE@ABV?$basic_string@DU?$char_traits@D@std@@V?$allocator@D@2@@1@@Z
_TEXT	SEGMENT
__Message$ = 8						; size = 4
??0out_of_range@std@@QAE@ABV?$basic_string@DU?$char_traits@D@std@@V?$allocator@D@2@@1@@Z PROC ; std::out_of_range::out_of_range, COMDAT
; _this$ = ecx

; 129  : 		{	// construct from message string

	mov	eax, DWORD PTR __Message$[esp-4]
	push	esi
	push	eax
	mov	esi, ecx
	call	??0logic_error@std@@QAE@ABV?$basic_string@DU?$char_traits@D@std@@V?$allocator@D@2@@1@@Z ; std::logic_error::logic_error
	mov	DWORD PTR [esi], OFFSET ??_7out_of_range@std@@6B@

; 130  : 		}

	mov	eax, esi
	pop	esi
	ret	4
??0out_of_range@std@@QAE@ABV?$basic_string@DU?$char_traits@D@std@@V?$allocator@D@2@@1@@Z ENDP ; std::out_of_range::out_of_range
_TEXT	ENDS
PUBLIC	??1out_of_range@std@@UAE@XZ			; std::out_of_range::~out_of_range
; Function compile flags: /Ogtpy
;	COMDAT ??1out_of_range@std@@UAE@XZ
_TEXT	SEGMENT
??1out_of_range@std@@UAE@XZ PROC			; std::out_of_range::~out_of_range, COMDAT
; _this$ = ecx

; 133  : 		{	// destroy the object

	push	esi
	mov	esi, ecx

; 134  : 		}

	lea	ecx, DWORD PTR [esi+12]
	mov	DWORD PTR [esi], OFFSET ??_7logic_error@std@@6B@
	call	DWORD PTR __imp_??1?$basic_string@DU?$char_traits@D@std@@V?$allocator@D@2@@std@@QAE@XZ
	mov	ecx, esi
	pop	esi
	jmp	DWORD PTR __imp_??1exception@std@@UAE@XZ
??1out_of_range@std@@UAE@XZ ENDP			; std::out_of_range::~out_of_range
; Function compile flags: /Ogtpy
_TEXT	ENDS
;	COMDAT ??_Gout_of_range@std@@UAEPAXI@Z
_TEXT	SEGMENT
___flags$ = 8						; size = 4
??_Gout_of_range@std@@UAEPAXI@Z PROC			; std::out_of_range::`scalar deleting destructor', COMDAT
; _this$ = ecx
	push	esi
	mov	esi, ecx
	lea	ecx, DWORD PTR [esi+12]
	mov	DWORD PTR [esi], OFFSET ??_7logic_error@std@@6B@
	call	DWORD PTR __imp_??1?$basic_string@DU?$char_traits@D@std@@V?$allocator@D@2@@std@@QAE@XZ
	mov	ecx, esi
	call	DWORD PTR __imp_??1exception@std@@UAE@XZ
	test	BYTE PTR ___flags$[esp], 1
	je	SHORT $LN8@scalar@4
	push	esi
	call	??3@YAXPAX@Z				; operator delete
	add	esp, 4
$LN8@scalar@4:
	mov	eax, esi
	pop	esi
	ret	4
??_Gout_of_range@std@@UAEPAXI@Z ENDP			; std::out_of_range::`scalar deleting destructor'
_TEXT	ENDS
PUBLIC	??0CvIgnoreUnitsPathFinder@@QAE@XZ		; CvIgnoreUnitsPathFinder::CvIgnoreUnitsPathFinder
EXTRN	??0CvAStar@@QAE@XZ:PROC				; CvAStar::CvAStar
; Function compile flags: /Ogtpy
;	COMDAT ??0CvIgnoreUnitsPathFinder@@QAE@XZ
_TEXT	SEGMENT
??0CvIgnoreUnitsPathFinder@@QAE@XZ PROC			; CvIgnoreUnitsPathFinder::CvIgnoreUnitsPathFinder, COMDAT
; _this$ = ecx
	push	esi
	mov	esi, ecx
	call	??0CvAStar@@QAE@XZ			; CvAStar::CvAStar
	mov	eax, esi
	pop	esi
	ret	0
??0CvIgnoreUnitsPathFinder@@QAE@XZ ENDP			; CvIgnoreUnitsPathFinder::CvIgnoreUnitsPathFinder
_TEXT	ENDS
PUBLIC	??0CvStepPathFinder@@QAE@XZ			; CvStepPathFinder::CvStepPathFinder
; Function compile flags: /Ogtpy
;	COMDAT ??0CvStepPathFinder@@QAE@XZ
_TEXT	SEGMENT
??0CvStepPathFinder@@QAE@XZ PROC			; CvStepPathFinder::CvStepPathFinder, COMDAT
; _this$ = ecx
	push	esi
	mov	esi, ecx
	call	??0CvAStar@@QAE@XZ			; CvAStar::CvAStar
	mov	eax, esi
	pop	esi
	ret	0
??0CvStepPathFinder@@QAE@XZ ENDP			; CvStepPathFinder::CvStepPathFinder
_TEXT	ENDS
PUBLIC	?UnwrapCityPointer@CvGlobals@@QAEPAVCvCity@@PAVICvCity1@@@Z ; CvGlobals::UnwrapCityPointer
EXTRN	?GetInstance@CvDllCity@@QAEPAVCvCity@@XZ:PROC	; CvDllCity::GetInstance
; Function compile flags: /Ogtpy
; File c:\users\enormousapplepie\desktop\cleanup (v1)\lekmod files\lekmod dll versions\v30\lekmod_dll\cvgamecoredll_expansion2\cvglobals.cpp
;	COMDAT ?UnwrapCityPointer@CvGlobals@@QAEPAVCvCity@@PAVICvCity1@@@Z
_TEXT	SEGMENT
_pCity$ = 8						; size = 4
?UnwrapCityPointer@CvGlobals@@QAEPAVCvCity@@PAVICvCity1@@@Z PROC ; CvGlobals::UnwrapCityPointer, COMDAT
; _this$ = ecx

; 2297 : 	return (NULL != pCity)? static_cast<CvDllCity*>(pCity)->GetInstance() : NULL;

	mov	ecx, DWORD PTR _pCity$[esp-4]
	test	ecx, ecx
	je	SHORT $LN3@UnwrapCity
	call	?GetInstance@CvDllCity@@QAEPAVCvCity@@XZ ; CvDllCity::GetInstance

; 2298 : }

	ret	4
$LN3@UnwrapCity:

; 2297 : 	return (NULL != pCity)? static_cast<CvDllCity*>(pCity)->GetInstance() : NULL;

	xor	eax, eax

; 2298 : }

	ret	4
?UnwrapCityPointer@CvGlobals@@QAEPAVCvCity@@PAVICvCity1@@@Z ENDP ; CvGlobals::UnwrapCityPointer
_TEXT	ENDS
PUBLIC	?UnwrapDealPointer@CvGlobals@@QAEPAVCvDeal@@PAVICvDeal1@@@Z ; CvGlobals::UnwrapDealPointer
EXTRN	?GetInstance@CvDllDeal@@QAEPAVCvDeal@@XZ:PROC	; CvDllDeal::GetInstance
; Function compile flags: /Ogtpy
;	COMDAT ?UnwrapDealPointer@CvGlobals@@QAEPAVCvDeal@@PAVICvDeal1@@@Z
_TEXT	SEGMENT
_pDeal$ = 8						; size = 4
?UnwrapDealPointer@CvGlobals@@QAEPAVCvDeal@@PAVICvDeal1@@@Z PROC ; CvGlobals::UnwrapDealPointer, COMDAT
; _this$ = ecx

; 2307 : 	return (NULL != pDeal)? static_cast<CvDllDeal*>(pDeal)->GetInstance() : NULL;

	mov	ecx, DWORD PTR _pDeal$[esp-4]
	test	ecx, ecx
	je	SHORT $LN3@UnwrapDeal
	call	?GetInstance@CvDllDeal@@QAEPAVCvDeal@@XZ ; CvDllDeal::GetInstance

; 2308 : }

	ret	4
$LN3@UnwrapDeal:

; 2307 : 	return (NULL != pDeal)? static_cast<CvDllDeal*>(pDeal)->GetInstance() : NULL;

	xor	eax, eax

; 2308 : }

	ret	4
?UnwrapDealPointer@CvGlobals@@QAEPAVCvDeal@@PAVICvDeal1@@@Z ENDP ; CvGlobals::UnwrapDealPointer
_TEXT	ENDS
PUBLIC	?UnwrapPlotPointer@CvGlobals@@QAEPAVCvPlot@@PAVICvPlot1@@@Z ; CvGlobals::UnwrapPlotPointer
EXTRN	?GetInstance@CvDllPlot@@QAEPAVCvPlot@@XZ:PROC	; CvDllPlot::GetInstance
; Function compile flags: /Ogtpy
;	COMDAT ?UnwrapPlotPointer@CvGlobals@@QAEPAVCvPlot@@PAVICvPlot1@@@Z
_TEXT	SEGMENT
_pPlot$ = 8						; size = 4
?UnwrapPlotPointer@CvGlobals@@QAEPAVCvPlot@@PAVICvPlot1@@@Z PROC ; CvGlobals::UnwrapPlotPointer, COMDAT
; _this$ = ecx

; 2317 : 	return (NULL != pPlot)? static_cast<CvDllPlot*>(pPlot)->GetInstance() : NULL;

	mov	ecx, DWORD PTR _pPlot$[esp-4]
	test	ecx, ecx
	je	SHORT $LN3@UnwrapPlot
	call	?GetInstance@CvDllPlot@@QAEPAVCvPlot@@XZ ; CvDllPlot::GetInstance

; 2318 : }

	ret	4
$LN3@UnwrapPlot:

; 2317 : 	return (NULL != pPlot)? static_cast<CvDllPlot*>(pPlot)->GetInstance() : NULL;

	xor	eax, eax

; 2318 : }

	ret	4
?UnwrapPlotPointer@CvGlobals@@QAEPAVCvPlot@@PAVICvPlot1@@@Z ENDP ; CvGlobals::UnwrapPlotPointer
_TEXT	ENDS
PUBLIC	?UnwrapRandomPointer@CvGlobals@@QAEPAVCvRandom@@PAVICvRandom1@@@Z ; CvGlobals::UnwrapRandomPointer
EXTRN	?GetInstance@CvDllRandom@@QAEPAVCvRandom@@XZ:PROC ; CvDllRandom::GetInstance
; Function compile flags: /Ogtpy
;	COMDAT ?UnwrapRandomPointer@CvGlobals@@QAEPAVCvRandom@@PAVICvRandom1@@@Z
_TEXT	SEGMENT
_pRandom$ = 8						; size = 4
?UnwrapRandomPointer@CvGlobals@@QAEPAVCvRandom@@PAVICvRandom1@@@Z PROC ; CvGlobals::UnwrapRandomPointer, COMDAT
; _this$ = ecx

; 2327 : 	return (NULL != pRandom)? static_cast<CvDllRandom*>(pRandom)->GetInstance() : NULL;

	mov	ecx, DWORD PTR _pRandom$[esp-4]
	test	ecx, ecx
	je	SHORT $LN3@UnwrapRand
	call	?GetInstance@CvDllRandom@@QAEPAVCvRandom@@XZ ; CvDllRandom::GetInstance

; 2328 : }

	ret	4
$LN3@UnwrapRand:

; 2327 : 	return (NULL != pRandom)? static_cast<CvDllRandom*>(pRandom)->GetInstance() : NULL;

	xor	eax, eax

; 2328 : }

	ret	4
?UnwrapRandomPointer@CvGlobals@@QAEPAVCvRandom@@PAVICvRandom1@@@Z ENDP ; CvGlobals::UnwrapRandomPointer
_TEXT	ENDS
PUBLIC	?UnwrapUnitPointer@CvGlobals@@QAEPAVCvUnit@@PAVICvUnit1@@@Z ; CvGlobals::UnwrapUnitPointer
EXTRN	?GetInstance@CvDllUnit@@QAEPAVCvUnit@@XZ:PROC	; CvDllUnit::GetInstance
; Function compile flags: /Ogtpy
;	COMDAT ?UnwrapUnitPointer@CvGlobals@@QAEPAVCvUnit@@PAVICvUnit1@@@Z
_TEXT	SEGMENT
_pUnit$ = 8						; size = 4
?UnwrapUnitPointer@CvGlobals@@QAEPAVCvUnit@@PAVICvUnit1@@@Z PROC ; CvGlobals::UnwrapUnitPointer, COMDAT
; _this$ = ecx

; 2342 : 	return (NULL != pUnit)? static_cast<CvDllUnit*>(pUnit)->GetInstance() : NULL;

	mov	ecx, DWORD PTR _pUnit$[esp-4]
	test	ecx, ecx
	je	SHORT $LN3@UnwrapUnit
	call	?GetInstance@CvDllUnit@@QAEPAVCvUnit@@XZ ; CvDllUnit::GetInstance

; 2343 : }

	ret	4
$LN3@UnwrapUnit:

; 2342 : 	return (NULL != pUnit)? static_cast<CvDllUnit*>(pUnit)->GetInstance() : NULL;

	xor	eax, eax

; 2343 : }

	ret	4
?UnwrapUnitPointer@CvGlobals@@QAEPAVCvUnit@@PAVICvUnit1@@@Z ENDP ; CvGlobals::UnwrapUnitPointer
_TEXT	ENDS
PUBLIC	?getInstance@CvGlobals@@SAAAV1@XZ		; CvGlobals::getInstance
; Function compile flags: /Ogtpy
;	COMDAT ?getInstance@CvGlobals@@SAAAV1@XZ
_TEXT	SEGMENT
?getInstance@CvGlobals@@SAAAV1@XZ PROC			; CvGlobals::getInstance, COMDAT

; 2347 : 	return gGlobals;

	mov	eax, OFFSET ?gGlobals@@3VCvGlobals@@A	; gGlobals

; 2348 : }

	ret	0
?getInstance@CvGlobals@@SAAAV1@XZ ENDP			; CvGlobals::getInstance
_TEXT	ENDS
PUBLIC	?getASyncRand@CvGlobals@@QAEAAVCvRandom@@XZ	; CvGlobals::getASyncRand
; Function compile flags: /Ogtpy
;	COMDAT ?getASyncRand@CvGlobals@@QAEAAVCvRandom@@XZ
_TEXT	SEGMENT
?getASyncRand@CvGlobals@@QAEAAVCvRandom@@XZ PROC	; CvGlobals::getASyncRand, COMDAT
; _this$ = ecx

; 2352 : 	return *m_asyncRand;

	mov	eax, DWORD PTR [ecx+44]

; 2353 : }

	ret	0
?getASyncRand@CvGlobals@@QAEAAVCvRandom@@XZ ENDP	; CvGlobals::getASyncRand
_TEXT	ENDS
PUBLIC	?getPathFinder@CvGlobals@@QAEAAVCvTwoLayerPathFinder@@XZ ; CvGlobals::getPathFinder
; Function compile flags: /Ogtpy
;	COMDAT ?getPathFinder@CvGlobals@@QAEAAVCvTwoLayerPathFinder@@XZ
_TEXT	SEGMENT
?getPathFinder@CvGlobals@@QAEAAVCvTwoLayerPathFinder@@XZ PROC ; CvGlobals::getPathFinder, COMDAT
; _this$ = ecx

; 2357 : 	return *m_pathFinder;

	mov	eax, DWORD PTR [ecx+56]

; 2358 : }

	ret	0
?getPathFinder@CvGlobals@@QAEAAVCvTwoLayerPathFinder@@XZ ENDP ; CvGlobals::getPathFinder
_TEXT	ENDS
PUBLIC	?getInterfacePathFinder@CvGlobals@@QAEAAVCvTwoLayerPathFinder@@XZ ; CvGlobals::getInterfacePathFinder
; Function compile flags: /Ogtpy
;	COMDAT ?getInterfacePathFinder@CvGlobals@@QAEAAVCvTwoLayerPathFinder@@XZ
_TEXT	SEGMENT
?getInterfacePathFinder@CvGlobals@@QAEAAVCvTwoLayerPathFinder@@XZ PROC ; CvGlobals::getInterfacePathFinder, COMDAT
; _this$ = ecx

; 2362 : 	return *m_interfacePathFinder;

	mov	eax, DWORD PTR [ecx+60]

; 2363 : }

	ret	0
?getInterfacePathFinder@CvGlobals@@QAEAAVCvTwoLayerPathFinder@@XZ ENDP ; CvGlobals::getInterfacePathFinder
_TEXT	ENDS
PUBLIC	?getIgnoreUnitsPathFinder@CvGlobals@@QAEAAVCvIgnoreUnitsPathFinder@@XZ ; CvGlobals::getIgnoreUnitsPathFinder
; Function compile flags: /Ogtpy
;	COMDAT ?getIgnoreUnitsPathFinder@CvGlobals@@QAEAAVCvIgnoreUnitsPathFinder@@XZ
_TEXT	SEGMENT
?getIgnoreUnitsPathFinder@CvGlobals@@QAEAAVCvIgnoreUnitsPathFinder@@XZ PROC ; CvGlobals::getIgnoreUnitsPathFinder, COMDAT
; _this$ = ecx

; 2367 : 	return *m_ignoreUnitsPathFinder;

	mov	eax, DWORD PTR [ecx+64]

; 2368 : }

	ret	0
?getIgnoreUnitsPathFinder@CvGlobals@@QAEAAVCvIgnoreUnitsPathFinder@@XZ ENDP ; CvGlobals::getIgnoreUnitsPathFinder
_TEXT	ENDS
PUBLIC	?getStepFinder@CvGlobals@@QAEAAVCvStepPathFinder@@XZ ; CvGlobals::getStepFinder
; Function compile flags: /Ogtpy
;	COMDAT ?getStepFinder@CvGlobals@@QAEAAVCvStepPathFinder@@XZ
_TEXT	SEGMENT
?getStepFinder@CvGlobals@@QAEAAVCvStepPathFinder@@XZ PROC ; CvGlobals::getStepFinder, COMDAT
; _this$ = ecx

; 2372 : 	return *m_stepFinder;

	mov	eax, DWORD PTR [ecx+68]

; 2373 : }

	ret	0
?getStepFinder@CvGlobals@@QAEAAVCvStepPathFinder@@XZ ENDP ; CvGlobals::getStepFinder
_TEXT	ENDS
PUBLIC	?getRouteFinder@CvGlobals@@QAEAAVCvAStar@@XZ	; CvGlobals::getRouteFinder
; Function compile flags: /Ogtpy
;	COMDAT ?getRouteFinder@CvGlobals@@QAEAAVCvAStar@@XZ
_TEXT	SEGMENT
?getRouteFinder@CvGlobals@@QAEAAVCvAStar@@XZ PROC	; CvGlobals::getRouteFinder, COMDAT
; _this$ = ecx

; 2377 : 	return *m_routeFinder;

	mov	eax, DWORD PTR [ecx+72]

; 2378 : }

	ret	0
?getRouteFinder@CvGlobals@@QAEAAVCvAStar@@XZ ENDP	; CvGlobals::getRouteFinder
_TEXT	ENDS
PUBLIC	?GetWaterRouteFinder@CvGlobals@@QAEAAVCvAStar@@XZ ; CvGlobals::GetWaterRouteFinder
; Function compile flags: /Ogtpy
;	COMDAT ?GetWaterRouteFinder@CvGlobals@@QAEAAVCvAStar@@XZ
_TEXT	SEGMENT
?GetWaterRouteFinder@CvGlobals@@QAEAAVCvAStar@@XZ PROC	; CvGlobals::GetWaterRouteFinder, COMDAT
; _this$ = ecx

; 2382 : 	return *m_waterRouteFinder;

	mov	eax, DWORD PTR [ecx+76]

; 2383 : }

	ret	0
?GetWaterRouteFinder@CvGlobals@@QAEAAVCvAStar@@XZ ENDP	; CvGlobals::GetWaterRouteFinder
_TEXT	ENDS
PUBLIC	?getAreaFinder@CvGlobals@@QAEAAVCvAStar@@XZ	; CvGlobals::getAreaFinder
; Function compile flags: /Ogtpy
;	COMDAT ?getAreaFinder@CvGlobals@@QAEAAVCvAStar@@XZ
_TEXT	SEGMENT
?getAreaFinder@CvGlobals@@QAEAAVCvAStar@@XZ PROC	; CvGlobals::getAreaFinder, COMDAT
; _this$ = ecx

; 2387 : 	return *m_areaFinder;

	mov	eax, DWORD PTR [ecx+84]

; 2388 : }

	ret	0
?getAreaFinder@CvGlobals@@QAEAAVCvAStar@@XZ ENDP	; CvGlobals::getAreaFinder
_TEXT	ENDS
PUBLIC	?getInfluenceFinder@CvGlobals@@QAEAAVCvAStar@@XZ ; CvGlobals::getInfluenceFinder
; Function compile flags: /Ogtpy
;	COMDAT ?getInfluenceFinder@CvGlobals@@QAEAAVCvAStar@@XZ
_TEXT	SEGMENT
?getInfluenceFinder@CvGlobals@@QAEAAVCvAStar@@XZ PROC	; CvGlobals::getInfluenceFinder, COMDAT
; _this$ = ecx

; 2392 : 	return *m_influenceFinder;

	mov	eax, DWORD PTR [ecx+88]

; 2393 : }

	ret	0
?getInfluenceFinder@CvGlobals@@QAEAAVCvAStar@@XZ ENDP	; CvGlobals::getInfluenceFinder
_TEXT	ENDS
PUBLIC	?GetBuildRouteFinder@CvGlobals@@QAEAAVCvAStar@@XZ ; CvGlobals::GetBuildRouteFinder
; Function compile flags: /Ogtpy
;	COMDAT ?GetBuildRouteFinder@CvGlobals@@QAEAAVCvAStar@@XZ
_TEXT	SEGMENT
?GetBuildRouteFinder@CvGlobals@@QAEAAVCvAStar@@XZ PROC	; CvGlobals::GetBuildRouteFinder, COMDAT
; _this$ = ecx

; 2397 : 	return *m_buildRouteFinder;

	mov	eax, DWORD PTR [ecx+92]

; 2398 : }

	ret	0
?GetBuildRouteFinder@CvGlobals@@QAEAAVCvAStar@@XZ ENDP	; CvGlobals::GetBuildRouteFinder
_TEXT	ENDS
PUBLIC	?GetInternationalTradeRouteLandFinder@CvGlobals@@QAEAAVCvAStar@@XZ ; CvGlobals::GetInternationalTradeRouteLandFinder
; Function compile flags: /Ogtpy
;	COMDAT ?GetInternationalTradeRouteLandFinder@CvGlobals@@QAEAAVCvAStar@@XZ
_TEXT	SEGMENT
?GetInternationalTradeRouteLandFinder@CvGlobals@@QAEAAVCvAStar@@XZ PROC ; CvGlobals::GetInternationalTradeRouteLandFinder, COMDAT
; _this$ = ecx

; 2402 : 	return *m_internationalTradeRouteLandFinder;

	mov	eax, DWORD PTR [ecx+96]

; 2403 : }

	ret	0
?GetInternationalTradeRouteLandFinder@CvGlobals@@QAEAAVCvAStar@@XZ ENDP ; CvGlobals::GetInternationalTradeRouteLandFinder
_TEXT	ENDS
PUBLIC	?GetInternationalTradeRouteWaterFinder@CvGlobals@@QAEAAVCvAStar@@XZ ; CvGlobals::GetInternationalTradeRouteWaterFinder
; Function compile flags: /Ogtpy
;	COMDAT ?GetInternationalTradeRouteWaterFinder@CvGlobals@@QAEAAVCvAStar@@XZ
_TEXT	SEGMENT
?GetInternationalTradeRouteWaterFinder@CvGlobals@@QAEAAVCvAStar@@XZ PROC ; CvGlobals::GetInternationalTradeRouteWaterFinder, COMDAT
; _this$ = ecx

; 2407 : 	return *m_internationalTradeRouteWaterFinder;

	mov	eax, DWORD PTR [ecx+100]

; 2408 : }

	ret	0
?GetInternationalTradeRouteWaterFinder@CvGlobals@@QAEAAVCvAStar@@XZ ENDP ; CvGlobals::GetInternationalTradeRouteWaterFinder
_TEXT	ENDS
PUBLIC	?GetTacticalAnalysisMapFinder@CvGlobals@@QAEAAVCvTwoLayerPathFinder@@XZ ; CvGlobals::GetTacticalAnalysisMapFinder
; Function compile flags: /Ogtpy
;	COMDAT ?GetTacticalAnalysisMapFinder@CvGlobals@@QAEAAVCvTwoLayerPathFinder@@XZ
_TEXT	SEGMENT
?GetTacticalAnalysisMapFinder@CvGlobals@@QAEAAVCvTwoLayerPathFinder@@XZ PROC ; CvGlobals::GetTacticalAnalysisMapFinder, COMDAT
; _this$ = ecx

; 2412 : 	return *m_tacticalAnalysisMapFinder;

	mov	eax, DWORD PTR [ecx+104]

; 2413 : }

	ret	0
?GetTacticalAnalysisMapFinder@CvGlobals@@QAEAAVCvTwoLayerPathFinder@@XZ ENDP ; CvGlobals::GetTacticalAnalysisMapFinder
_TEXT	ENDS
PUBLIC	?getInterfaceModeInfo@CvGlobals@@QAEAAV?$vector@PAVCvInterfaceModeInfo@@V?$allocator@PAVCvInterfaceModeInfo@@@std@@@std@@XZ ; CvGlobals::getInterfaceModeInfo
; Function compile flags: /Ogtpy
;	COMDAT ?getInterfaceModeInfo@CvGlobals@@QAEAAV?$vector@PAVCvInterfaceModeInfo@@V?$allocator@PAVCvInterfaceModeInfo@@@std@@@std@@XZ
_TEXT	SEGMENT
?getInterfaceModeInfo@CvGlobals@@QAEAAV?$vector@PAVCvInterfaceModeInfo@@V?$allocator@PAVCvInterfaceModeInfo@@@std@@@std@@XZ PROC ; CvGlobals::getInterfaceModeInfo, COMDAT
; _this$ = ecx

; 2434 : 	return m_paInterfaceModeInfo;

	lea	eax, DWORD PTR [ecx+896]

; 2435 : }

	ret	0
?getInterfaceModeInfo@CvGlobals@@QAEAAV?$vector@PAVCvInterfaceModeInfo@@V?$allocator@PAVCvInterfaceModeInfo@@@std@@@std@@XZ ENDP ; CvGlobals::getInterfaceModeInfo
_TEXT	ENDS
PUBLIC	?getLogging@CvGlobals@@QAE_NXZ			; CvGlobals::getLogging
; Function compile flags: /Ogtpy
;	COMDAT ?getLogging@CvGlobals@@QAE_NXZ
_TEXT	SEGMENT
?getLogging@CvGlobals@@QAE_NXZ PROC			; CvGlobals::getLogging, COMDAT
; _this$ = ecx

; 2449 : 	return m_bLogging;

	mov	al, BYTE PTR [ecx+7]

; 2450 : }

	ret	0
?getLogging@CvGlobals@@QAE_NXZ ENDP			; CvGlobals::getLogging
_TEXT	ENDS
PUBLIC	?setLogging@CvGlobals@@QAEX_N@Z			; CvGlobals::setLogging
; Function compile flags: /Ogtpy
;	COMDAT ?setLogging@CvGlobals@@QAEX_N@Z
_TEXT	SEGMENT
_bLoggingEnabled$ = 8					; size = 1
?setLogging@CvGlobals@@QAEX_N@Z PROC			; CvGlobals::setLogging, COMDAT
; _this$ = ecx

; 2454 : 	m_bLogging = bLoggingEnabled;

	mov	al, BYTE PTR _bLoggingEnabled$[esp-4]
	mov	BYTE PTR [ecx+7], al

; 2455 : }

	ret	4
?setLogging@CvGlobals@@QAEX_N@Z ENDP			; CvGlobals::setLogging
_TEXT	ENDS
PUBLIC	?getRandLogging@CvGlobals@@QAEHXZ		; CvGlobals::getRandLogging
; Function compile flags: /Ogtpy
;	COMDAT ?getRandLogging@CvGlobals@@QAEHXZ
_TEXT	SEGMENT
?getRandLogging@CvGlobals@@QAEHXZ PROC			; CvGlobals::getRandLogging, COMDAT
; _this$ = ecx

; 2459 : 	return m_iRandLogging;

	mov	eax, DWORD PTR [ecx+8]

; 2460 : }

	ret	0
?getRandLogging@CvGlobals@@QAEHXZ ENDP			; CvGlobals::getRandLogging
_TEXT	ENDS
PUBLIC	?setRandLogging@CvGlobals@@QAEXH@Z		; CvGlobals::setRandLogging
; Function compile flags: /Ogtpy
;	COMDAT ?setRandLogging@CvGlobals@@QAEXH@Z
_TEXT	SEGMENT
_iRandLoggingFlags$ = 8					; size = 4
?setRandLogging@CvGlobals@@QAEXH@Z PROC			; CvGlobals::setRandLogging, COMDAT
; _this$ = ecx

; 2464 : 	m_iRandLogging = iRandLoggingFlags;

	mov	eax, DWORD PTR _iRandLoggingFlags$[esp-4]
	mov	DWORD PTR [ecx+8], eax

; 2465 : }

	ret	4
?setRandLogging@CvGlobals@@QAEXH@Z ENDP			; CvGlobals::setRandLogging
_TEXT	ENDS
PUBLIC	?getAILogging@CvGlobals@@QAE_NXZ		; CvGlobals::getAILogging
; Function compile flags: /Ogtpy
;	COMDAT ?getAILogging@CvGlobals@@QAE_NXZ
_TEXT	SEGMENT
?getAILogging@CvGlobals@@QAE_NXZ PROC			; CvGlobals::getAILogging, COMDAT
; _this$ = ecx

; 2469 : 	return m_bAILogging;

	mov	al, BYTE PTR [ecx+13]

; 2470 : }

	ret	0
?getAILogging@CvGlobals@@QAE_NXZ ENDP			; CvGlobals::getAILogging
_TEXT	ENDS
PUBLIC	?setAILogging@CvGlobals@@QAEX_N@Z		; CvGlobals::setAILogging
; Function compile flags: /Ogtpy
;	COMDAT ?setAILogging@CvGlobals@@QAEX_N@Z
_TEXT	SEGMENT
_bEnable$ = 8						; size = 1
?setAILogging@CvGlobals@@QAEX_N@Z PROC			; CvGlobals::setAILogging, COMDAT
; _this$ = ecx

; 2474 : 	m_bAILogging = bEnable;

	mov	al, BYTE PTR _bEnable$[esp-4]
	mov	BYTE PTR [ecx+13], al

; 2475 : }

	ret	4
?setAILogging@CvGlobals@@QAEX_N@Z ENDP			; CvGlobals::setAILogging
_TEXT	ENDS
PUBLIC	?getAIPerfLogging@CvGlobals@@QAE_NXZ		; CvGlobals::getAIPerfLogging
; Function compile flags: /Ogtpy
;	COMDAT ?getAIPerfLogging@CvGlobals@@QAE_NXZ
_TEXT	SEGMENT
?getAIPerfLogging@CvGlobals@@QAE_NXZ PROC		; CvGlobals::getAIPerfLogging, COMDAT
; _this$ = ecx

; 2479 : 	return m_bAIPerfLogging;

	mov	al, BYTE PTR [ecx+14]

; 2480 : }

	ret	0
?getAIPerfLogging@CvGlobals@@QAE_NXZ ENDP		; CvGlobals::getAIPerfLogging
_TEXT	ENDS
PUBLIC	?setAIPerfLogging@CvGlobals@@QAEX_N@Z		; CvGlobals::setAIPerfLogging
; Function compile flags: /Ogtpy
;	COMDAT ?setAIPerfLogging@CvGlobals@@QAEX_N@Z
_TEXT	SEGMENT
_bEnable$ = 8						; size = 1
?setAIPerfLogging@CvGlobals@@QAEX_N@Z PROC		; CvGlobals::setAIPerfLogging, COMDAT
; _this$ = ecx

; 2484 : 	m_bAIPerfLogging = bEnable;

	mov	al, BYTE PTR _bEnable$[esp-4]
	mov	BYTE PTR [ecx+14], al

; 2485 : }

	ret	4
?setAIPerfLogging@CvGlobals@@QAEX_N@Z ENDP		; CvGlobals::setAIPerfLogging
_TEXT	ENDS
PUBLIC	?GetBuilderAILogging@CvGlobals@@QAE_NXZ		; CvGlobals::GetBuilderAILogging
; Function compile flags: /Ogtpy
;	COMDAT ?GetBuilderAILogging@CvGlobals@@QAE_NXZ
_TEXT	SEGMENT
?GetBuilderAILogging@CvGlobals@@QAE_NXZ PROC		; CvGlobals::GetBuilderAILogging, COMDAT
; _this$ = ecx

; 2489 : 	return m_bBuilderAILogging;

	mov	al, BYTE PTR [ecx+15]

; 2490 : }

	ret	0
?GetBuilderAILogging@CvGlobals@@QAE_NXZ ENDP		; CvGlobals::GetBuilderAILogging
_TEXT	ENDS
PUBLIC	?SetBuilderAILogging@CvGlobals@@QAEX_N@Z	; CvGlobals::SetBuilderAILogging
; Function compile flags: /Ogtpy
;	COMDAT ?SetBuilderAILogging@CvGlobals@@QAEX_N@Z
_TEXT	SEGMENT
_bEnable$ = 8						; size = 1
?SetBuilderAILogging@CvGlobals@@QAEX_N@Z PROC		; CvGlobals::SetBuilderAILogging, COMDAT
; _this$ = ecx

; 2494 : 	m_bBuilderAILogging = bEnable;

	mov	al, BYTE PTR _bEnable$[esp-4]
	mov	BYTE PTR [ecx+15], al

; 2495 : }

	ret	4
?SetBuilderAILogging@CvGlobals@@QAEX_N@Z ENDP		; CvGlobals::SetBuilderAILogging
_TEXT	ENDS
PUBLIC	?getPlayerAndCityAILogSplit@CvGlobals@@QAE_NXZ	; CvGlobals::getPlayerAndCityAILogSplit
; Function compile flags: /Ogtpy
;	COMDAT ?getPlayerAndCityAILogSplit@CvGlobals@@QAE_NXZ
_TEXT	SEGMENT
?getPlayerAndCityAILogSplit@CvGlobals@@QAE_NXZ PROC	; CvGlobals::getPlayerAndCityAILogSplit, COMDAT
; _this$ = ecx

; 2499 : 	return m_bPlayerAndCityAILogSplit;

	mov	al, BYTE PTR [ecx+17]

; 2500 : }

	ret	0
?getPlayerAndCityAILogSplit@CvGlobals@@QAE_NXZ ENDP	; CvGlobals::getPlayerAndCityAILogSplit
_TEXT	ENDS
PUBLIC	?setPlayerAndCityAILogSplit@CvGlobals@@QAEX_N@Z	; CvGlobals::setPlayerAndCityAILogSplit
; Function compile flags: /Ogtpy
;	COMDAT ?setPlayerAndCityAILogSplit@CvGlobals@@QAEX_N@Z
_TEXT	SEGMENT
_bEnable$ = 8						; size = 1
?setPlayerAndCityAILogSplit@CvGlobals@@QAEX_N@Z PROC	; CvGlobals::setPlayerAndCityAILogSplit, COMDAT
; _this$ = ecx

; 2504 : 	m_bPlayerAndCityAILogSplit = bEnable;

	mov	al, BYTE PTR _bEnable$[esp-4]
	mov	BYTE PTR [ecx+17], al

; 2505 : }

	ret	4
?setPlayerAndCityAILogSplit@CvGlobals@@QAEX_N@Z ENDP	; CvGlobals::setPlayerAndCityAILogSplit
_TEXT	ENDS
PUBLIC	?GetTutorialLogging@CvGlobals@@QAE_NXZ		; CvGlobals::GetTutorialLogging
; Function compile flags: /Ogtpy
;	COMDAT ?GetTutorialLogging@CvGlobals@@QAE_NXZ
_TEXT	SEGMENT
?GetTutorialLogging@CvGlobals@@QAE_NXZ PROC		; CvGlobals::GetTutorialLogging, COMDAT
; _this$ = ecx

; 2509 : 	return m_bTutorialLogging;

	mov	al, BYTE PTR [ecx+18]

; 2510 : }

	ret	0
?GetTutorialLogging@CvGlobals@@QAE_NXZ ENDP		; CvGlobals::GetTutorialLogging
_TEXT	ENDS
PUBLIC	?SetTutorialLogging@CvGlobals@@QAEX_N@Z		; CvGlobals::SetTutorialLogging
; Function compile flags: /Ogtpy
;	COMDAT ?SetTutorialLogging@CvGlobals@@QAEX_N@Z
_TEXT	SEGMENT
_bEnable$ = 8						; size = 1
?SetTutorialLogging@CvGlobals@@QAEX_N@Z PROC		; CvGlobals::SetTutorialLogging, COMDAT
; _this$ = ecx

; 2514 : 	m_bTutorialLogging = bEnable;

	mov	al, BYTE PTR _bEnable$[esp-4]
	mov	BYTE PTR [ecx+18], al

; 2515 : }

	ret	4
?SetTutorialLogging@CvGlobals@@QAEX_N@Z ENDP		; CvGlobals::SetTutorialLogging
_TEXT	ENDS
PUBLIC	?GetTutorialDebugging@CvGlobals@@QAE_NXZ	; CvGlobals::GetTutorialDebugging
; Function compile flags: /Ogtpy
;	COMDAT ?GetTutorialDebugging@CvGlobals@@QAE_NXZ
_TEXT	SEGMENT
?GetTutorialDebugging@CvGlobals@@QAE_NXZ PROC		; CvGlobals::GetTutorialDebugging, COMDAT
; _this$ = ecx

; 2519 : 	return m_bTutorialDebugging;

	mov	al, BYTE PTR [ecx+19]

; 2520 : }

	ret	0
?GetTutorialDebugging@CvGlobals@@QAE_NXZ ENDP		; CvGlobals::GetTutorialDebugging
_TEXT	ENDS
PUBLIC	?SetTutorialDebugging@CvGlobals@@QAEX_N@Z	; CvGlobals::SetTutorialDebugging
; Function compile flags: /Ogtpy
;	COMDAT ?SetTutorialDebugging@CvGlobals@@QAEX_N@Z
_TEXT	SEGMENT
_bEnable$ = 8						; size = 1
?SetTutorialDebugging@CvGlobals@@QAEX_N@Z PROC		; CvGlobals::SetTutorialDebugging, COMDAT
; _this$ = ecx

; 2524 : 	m_bTutorialDebugging = bEnable;

	mov	al, BYTE PTR _bEnable$[esp-4]
	mov	BYTE PTR [ecx+19], al

; 2525 : }

	ret	4
?SetTutorialDebugging@CvGlobals@@QAEX_N@Z ENDP		; CvGlobals::SetTutorialDebugging
_TEXT	ENDS
PUBLIC	?GetAllowRClickMovementWhileScrolling@CvGlobals@@QAE_NXZ ; CvGlobals::GetAllowRClickMovementWhileScrolling
; Function compile flags: /Ogtpy
;	COMDAT ?GetAllowRClickMovementWhileScrolling@CvGlobals@@QAE_NXZ
_TEXT	SEGMENT
?GetAllowRClickMovementWhileScrolling@CvGlobals@@QAE_NXZ PROC ; CvGlobals::GetAllowRClickMovementWhileScrolling, COMDAT
; _this$ = ecx

; 2529 : 	return m_bAllowRClickMovementWhileCameraScrolling;

	mov	al, BYTE PTR [ecx+20]

; 2530 : }

	ret	0
?GetAllowRClickMovementWhileScrolling@CvGlobals@@QAE_NXZ ENDP ; CvGlobals::GetAllowRClickMovementWhileScrolling
_TEXT	ENDS
PUBLIC	?SetAllowRClickMovementWhileScrolling@CvGlobals@@QAEX_N@Z ; CvGlobals::SetAllowRClickMovementWhileScrolling
; Function compile flags: /Ogtpy
;	COMDAT ?SetAllowRClickMovementWhileScrolling@CvGlobals@@QAEX_N@Z
_TEXT	SEGMENT
_bAllow$ = 8						; size = 1
?SetAllowRClickMovementWhileScrolling@CvGlobals@@QAEX_N@Z PROC ; CvGlobals::SetAllowRClickMovementWhileScrolling, COMDAT
; _this$ = ecx

; 2534 : 	m_bAllowRClickMovementWhileCameraScrolling = bAllow;

	mov	al, BYTE PTR _bAllow$[esp-4]
	mov	BYTE PTR [ecx+20], al

; 2535 : }

	ret	4
?SetAllowRClickMovementWhileScrolling@CvGlobals@@QAEX_N@Z ENDP ; CvGlobals::SetAllowRClickMovementWhileScrolling
_TEXT	ENDS
PUBLIC	?GetPostTurnAutosaves@CvGlobals@@QAE_NXZ	; CvGlobals::GetPostTurnAutosaves
; Function compile flags: /Ogtpy
;	COMDAT ?GetPostTurnAutosaves@CvGlobals@@QAE_NXZ
_TEXT	SEGMENT
?GetPostTurnAutosaves@CvGlobals@@QAE_NXZ PROC		; CvGlobals::GetPostTurnAutosaves, COMDAT
; _this$ = ecx

; 2539 : 	return m_bPostTurnAutosaves;

	mov	al, BYTE PTR [ecx+21]

; 2540 : }

	ret	0
?GetPostTurnAutosaves@CvGlobals@@QAE_NXZ ENDP		; CvGlobals::GetPostTurnAutosaves
_TEXT	ENDS
PUBLIC	?SetPostTurnAutosaves@CvGlobals@@QAEX_N@Z	; CvGlobals::SetPostTurnAutosaves
; Function compile flags: /Ogtpy
;	COMDAT ?SetPostTurnAutosaves@CvGlobals@@QAEX_N@Z
_TEXT	SEGMENT
_bEnable$ = 8						; size = 1
?SetPostTurnAutosaves@CvGlobals@@QAEX_N@Z PROC		; CvGlobals::SetPostTurnAutosaves, COMDAT
; _this$ = ecx

; 2544 : 	m_bPostTurnAutosaves = bEnable;

	mov	al, BYTE PTR _bEnable$[esp-4]
	mov	BYTE PTR [ecx+21], al

; 2545 : }

	ret	4
?SetPostTurnAutosaves@CvGlobals@@QAEX_N@Z ENDP		; CvGlobals::SetPostTurnAutosaves
_TEXT	ENDS
PUBLIC	?getCityPlotPriority@CvGlobals@@QAEPAHXZ	; CvGlobals::getCityPlotPriority
; Function compile flags: /Ogtpy
;	COMDAT ?getCityPlotPriority@CvGlobals@@QAEPAHXZ
_TEXT	SEGMENT
?getCityPlotPriority@CvGlobals@@QAEPAHXZ PROC		; CvGlobals::getCityPlotPriority, COMDAT
; _this$ = ecx

; 2550 : 	return m_aiCityPlotPriority;

	lea	eax, DWORD PTR [ecx+456]

; 2551 : }

	ret	0
?getCityPlotPriority@CvGlobals@@QAEPAHXZ ENDP		; CvGlobals::getCityPlotPriority
_TEXT	ENDS
PUBLIC	?getXYCityPlot@CvGlobals@@QAEHHH@Z		; CvGlobals::getXYCityPlot
; Function compile flags: /Ogtpy
;	COMDAT ?getXYCityPlot@CvGlobals@@QAEHHH@Z
_TEXT	SEGMENT
_i$ = 8							; size = 4
_j$ = 12						; size = 4
?getXYCityPlot@CvGlobals@@QAEHHH@Z PROC			; CvGlobals::getXYCityPlot, COMDAT
; _this$ = ecx

; 2555 : 	CvAssertMsg(i < CITY_PLOTS_DIAMETER, "Index out of bounds");
; 2556 : 	CvAssertMsg(i > -1, "Index out of bounds");
; 2557 : 	if(i < 0 || i >= CITY_PLOTS_DIAMETER) return -1;

	mov	eax, DWORD PTR _i$[esp-4]
	cmp	eax, 6
	ja	SHORT $LN3@getXYCityP

; 2558 : 
; 2559 : 	CvAssertMsg(j < CITY_PLOTS_DIAMETER, "Index out of bounds");
; 2560 : 	CvAssertMsg(j > -1, "Index out of bounds");
; 2561 : 	if(j < 0 || j >= CITY_PLOTS_DIAMETER) return -1;

	mov	edx, DWORD PTR _j$[esp-4]
	cmp	edx, 6
	ja	SHORT $LN3@getXYCityP
	push	esi

; 2562 : 
; 2563 : 	return m_aaiXYCityPlot[i][j];

	lea	esi, DWORD PTR [eax*8]
	sub	esi, eax
	add	esi, edx
	mov	eax, DWORD PTR [ecx+esi*4+604]
	pop	esi

; 2564 : }

	ret	8
$LN3@getXYCityP:

; 2555 : 	CvAssertMsg(i < CITY_PLOTS_DIAMETER, "Index out of bounds");
; 2556 : 	CvAssertMsg(i > -1, "Index out of bounds");
; 2557 : 	if(i < 0 || i >= CITY_PLOTS_DIAMETER) return -1;

	or	eax, -1

; 2564 : }

	ret	8
?getXYCityPlot@CvGlobals@@QAEHHH@Z ENDP			; CvGlobals::getXYCityPlot
_TEXT	ENDS
PUBLIC	?getTurnLeftDirection@CvGlobals@@QAEPAW4DirectionTypes@@XZ ; CvGlobals::getTurnLeftDirection
; Function compile flags: /Ogtpy
;	COMDAT ?getTurnLeftDirection@CvGlobals@@QAEPAW4DirectionTypes@@XZ
_TEXT	SEGMENT
?getTurnLeftDirection@CvGlobals@@QAEPAW4DirectionTypes@@XZ PROC ; CvGlobals::getTurnLeftDirection, COMDAT
; _this$ = ecx

; 2568 : 	return m_aeTurnLeftDirection;

	lea	eax, DWORD PTR [ecx+800]

; 2569 : }

	ret	0
?getTurnLeftDirection@CvGlobals@@QAEPAW4DirectionTypes@@XZ ENDP ; CvGlobals::getTurnLeftDirection
_TEXT	ENDS
PUBLIC	?getTurnLeftDirection@CvGlobals@@QAE?AW4DirectionTypes@@H@Z ; CvGlobals::getTurnLeftDirection
; Function compile flags: /Ogtpy
;	COMDAT ?getTurnLeftDirection@CvGlobals@@QAE?AW4DirectionTypes@@H@Z
_TEXT	SEGMENT
_i$ = 8							; size = 4
?getTurnLeftDirection@CvGlobals@@QAE?AW4DirectionTypes@@H@Z PROC ; CvGlobals::getTurnLeftDirection, COMDAT
; _this$ = ecx

; 2573 : 	CvAssertMsg(i < NUM_DIRECTION_TYPES, "Index out of bounds");
; 2574 : 	CvAssertMsg(i > -1, "Index out of bounds");
; 2575 : 
; 2576 : 	if(i < 0 || i >= NUM_DIRECTION_TYPES) return NO_DIRECTION;

	mov	eax, DWORD PTR _i$[esp-4]
	cmp	eax, 5
	ja	SHORT $LN1@getTurnLef

; 2577 : 
; 2578 : 	return m_aeTurnLeftDirection[i];

	mov	eax, DWORD PTR [ecx+eax*4+800]

; 2579 : }

	ret	4
$LN1@getTurnLef:

; 2573 : 	CvAssertMsg(i < NUM_DIRECTION_TYPES, "Index out of bounds");
; 2574 : 	CvAssertMsg(i > -1, "Index out of bounds");
; 2575 : 
; 2576 : 	if(i < 0 || i >= NUM_DIRECTION_TYPES) return NO_DIRECTION;

	or	eax, -1

; 2579 : }

	ret	4
?getTurnLeftDirection@CvGlobals@@QAE?AW4DirectionTypes@@H@Z ENDP ; CvGlobals::getTurnLeftDirection
_TEXT	ENDS
PUBLIC	?getTurnRightDirection@CvGlobals@@QAEPAW4DirectionTypes@@XZ ; CvGlobals::getTurnRightDirection
; Function compile flags: /Ogtpy
;	COMDAT ?getTurnRightDirection@CvGlobals@@QAEPAW4DirectionTypes@@XZ
_TEXT	SEGMENT
?getTurnRightDirection@CvGlobals@@QAEPAW4DirectionTypes@@XZ PROC ; CvGlobals::getTurnRightDirection, COMDAT
; _this$ = ecx

; 2583 : 	return m_aeTurnRightDirection;

	lea	eax, DWORD PTR [ecx+824]

; 2584 : }

	ret	0
?getTurnRightDirection@CvGlobals@@QAEPAW4DirectionTypes@@XZ ENDP ; CvGlobals::getTurnRightDirection
_TEXT	ENDS
PUBLIC	?getTurnRightDirection@CvGlobals@@QAE?AW4DirectionTypes@@H@Z ; CvGlobals::getTurnRightDirection
; Function compile flags: /Ogtpy
;	COMDAT ?getTurnRightDirection@CvGlobals@@QAE?AW4DirectionTypes@@H@Z
_TEXT	SEGMENT
_i$ = 8							; size = 4
?getTurnRightDirection@CvGlobals@@QAE?AW4DirectionTypes@@H@Z PROC ; CvGlobals::getTurnRightDirection, COMDAT
; _this$ = ecx

; 2588 : 	CvAssertMsg(i < NUM_DIRECTION_TYPES, "Index out of bounds");
; 2589 : 	CvAssertMsg(i > -1, "Index out of bounds");
; 2590 : 
; 2591 : 	if(i < 0 || i >= NUM_DIRECTION_TYPES) return NO_DIRECTION;

	mov	eax, DWORD PTR _i$[esp-4]
	cmp	eax, 5
	ja	SHORT $LN1@getTurnRig

; 2592 : 
; 2593 : 	return m_aeTurnRightDirection[i];

	mov	eax, DWORD PTR [ecx+eax*4+824]

; 2594 : }

	ret	4
$LN1@getTurnRig:

; 2588 : 	CvAssertMsg(i < NUM_DIRECTION_TYPES, "Index out of bounds");
; 2589 : 	CvAssertMsg(i > -1, "Index out of bounds");
; 2590 : 
; 2591 : 	if(i < 0 || i >= NUM_DIRECTION_TYPES) return NO_DIRECTION;

	or	eax, -1

; 2594 : }

	ret	4
?getTurnRightDirection@CvGlobals@@QAE?AW4DirectionTypes@@H@Z ENDP ; CvGlobals::getTurnRightDirection
_TEXT	ENDS
PUBLIC	?GetColorInfo@CvGlobals@@QAEAAV?$vector@PAVCvColorInfo@@V?$allocator@PAVCvColorInfo@@@std@@@std@@XZ ; CvGlobals::GetColorInfo
; Function compile flags: /Ogtpy
;	COMDAT ?GetColorInfo@CvGlobals@@QAEAAV?$vector@PAVCvColorInfo@@V?$allocator@PAVCvColorInfo@@@std@@@std@@XZ
_TEXT	SEGMENT
?GetColorInfo@CvGlobals@@QAEAAV?$vector@PAVCvColorInfo@@V?$allocator@PAVCvColorInfo@@@std@@@std@@XZ PROC ; CvGlobals::GetColorInfo, COMDAT
; _this$ = ecx

; 2624 : 	return m_paColorInfo;

	lea	eax, DWORD PTR [ecx+1036]

; 2625 : }

	ret	0
?GetColorInfo@CvGlobals@@QAEAAV?$vector@PAVCvColorInfo@@V?$allocator@PAVCvColorInfo@@@std@@@std@@XZ ENDP ; CvGlobals::GetColorInfo
_TEXT	ENDS
PUBLIC	?GetPlayerColorInfo@CvGlobals@@QAEAAV?$vector@PAVCvPlayerColorInfo@@V?$allocator@PAVCvPlayerColorInfo@@@std@@@std@@XZ ; CvGlobals::GetPlayerColorInfo
; Function compile flags: /Ogtpy
;	COMDAT ?GetPlayerColorInfo@CvGlobals@@QAEAAV?$vector@PAVCvPlayerColorInfo@@V?$allocator@PAVCvPlayerColorInfo@@@std@@@std@@XZ
_TEXT	SEGMENT
?GetPlayerColorInfo@CvGlobals@@QAEAAV?$vector@PAVCvPlayerColorInfo@@V?$allocator@PAVCvPlayerColorInfo@@@std@@@std@@XZ PROC ; CvGlobals::GetPlayerColorInfo, COMDAT
; _this$ = ecx

; 2655 : 	return m_paPlayerColorInfo;

	lea	eax, DWORD PTR [ecx+1052]

; 2656 : }

	ret	0
?GetPlayerColorInfo@CvGlobals@@QAEAAV?$vector@PAVCvPlayerColorInfo@@V?$allocator@PAVCvPlayerColorInfo@@@std@@@std@@XZ ENDP ; CvGlobals::GetPlayerColorInfo
_TEXT	ENDS
PUBLIC	?getEntityEventInfo@CvGlobals@@QAEAAV?$vector@PAVCvEntityEventInfo@@V?$allocator@PAVCvEntityEventInfo@@@std@@@std@@XZ ; CvGlobals::getEntityEventInfo
; Function compile flags: /Ogtpy
;	COMDAT ?getEntityEventInfo@CvGlobals@@QAEAAV?$vector@PAVCvEntityEventInfo@@V?$allocator@PAVCvEntityEventInfo@@@std@@@std@@XZ
_TEXT	SEGMENT
?getEntityEventInfo@CvGlobals@@QAEAAV?$vector@PAVCvEntityEventInfo@@V?$allocator@PAVCvEntityEventInfo@@@std@@@std@@XZ PROC ; CvGlobals::getEntityEventInfo, COMDAT
; _this$ = ecx

; 2685 : 	return m_paEntityEventInfo;

	lea	eax, DWORD PTR [ecx+1620]

; 2686 : }

	ret	0
?getEntityEventInfo@CvGlobals@@QAEAAV?$vector@PAVCvEntityEventInfo@@V?$allocator@PAVCvEntityEventInfo@@@std@@@std@@XZ ENDP ; CvGlobals::getEntityEventInfo
_TEXT	ENDS
PUBLIC	?getMultiUnitFormationInfo@CvGlobals@@QAEAAV?$vector@PAVCvMultiUnitFormationInfo@@V?$allocator@PAVCvMultiUnitFormationInfo@@@std@@@std@@XZ ; CvGlobals::getMultiUnitFormationInfo
; Function compile flags: /Ogtpy
;	COMDAT ?getMultiUnitFormationInfo@CvGlobals@@QAEAAV?$vector@PAVCvMultiUnitFormationInfo@@V?$allocator@PAVCvMultiUnitFormationInfo@@@std@@@std@@XZ
_TEXT	SEGMENT
?getMultiUnitFormationInfo@CvGlobals@@QAEAAV?$vector@PAVCvMultiUnitFormationInfo@@V?$allocator@PAVCvMultiUnitFormationInfo@@@std@@@std@@XZ PROC ; CvGlobals::getMultiUnitFormationInfo, COMDAT
; _this$ = ecx

; 2715 : 	return m_paMultiUnitFormationInfo;

	lea	eax, DWORD PTR [ecx+1652]

; 2716 : }

	ret	0
?getMultiUnitFormationInfo@CvGlobals@@QAEAAV?$vector@PAVCvMultiUnitFormationInfo@@V?$allocator@PAVCvMultiUnitFormationInfo@@@std@@@std@@XZ ENDP ; CvGlobals::getMultiUnitFormationInfo
_TEXT	ENDS
PUBLIC	?getTerrainInfo@CvGlobals@@QAEAAV?$vector@PAVCvTerrainInfo@@V?$allocator@PAVCvTerrainInfo@@@std@@@std@@XZ ; CvGlobals::getTerrainInfo
; Function compile flags: /Ogtpy
;	COMDAT ?getTerrainInfo@CvGlobals@@QAEAAV?$vector@PAVCvTerrainInfo@@V?$allocator@PAVCvTerrainInfo@@@std@@@std@@XZ
_TEXT	SEGMENT
?getTerrainInfo@CvGlobals@@QAEAAV?$vector@PAVCvTerrainInfo@@V?$allocator@PAVCvTerrainInfo@@@std@@@std@@XZ PROC ; CvGlobals::getTerrainInfo, COMDAT
; _this$ = ecx

; 2745 : 	return m_paTerrainInfo;

	lea	eax, DWORD PTR [ecx+1068]

; 2746 : }

	ret	0
?getTerrainInfo@CvGlobals@@QAEAAV?$vector@PAVCvTerrainInfo@@V?$allocator@PAVCvTerrainInfo@@@std@@@std@@XZ ENDP ; CvGlobals::getTerrainInfo
_TEXT	ENDS
PUBLIC	?getResourceClassInfo@CvGlobals@@QAEAAV?$vector@PAVCvResourceClassInfo@@V?$allocator@PAVCvResourceClassInfo@@@std@@@std@@XZ ; CvGlobals::getResourceClassInfo
; Function compile flags: /Ogtpy
;	COMDAT ?getResourceClassInfo@CvGlobals@@QAEAAV?$vector@PAVCvResourceClassInfo@@V?$allocator@PAVCvResourceClassInfo@@@std@@@std@@XZ
_TEXT	SEGMENT
?getResourceClassInfo@CvGlobals@@QAEAAV?$vector@PAVCvResourceClassInfo@@V?$allocator@PAVCvResourceClassInfo@@@std@@@std@@XZ PROC ; CvGlobals::getResourceClassInfo, COMDAT
; _this$ = ecx

; 2771 : 	return m_paResourceClassInfo;

	lea	eax, DWORD PTR [ecx+1132]

; 2772 : }

	ret	0
?getResourceClassInfo@CvGlobals@@QAEAAV?$vector@PAVCvResourceClassInfo@@V?$allocator@PAVCvResourceClassInfo@@@std@@@std@@XZ ENDP ; CvGlobals::getResourceClassInfo
_TEXT	ENDS
PUBLIC	?getResourceInfo@CvGlobals@@QAEAAV?$vector@PAVCvResourceInfo@@V?$allocator@PAVCvResourceInfo@@@std@@@std@@XZ ; CvGlobals::getResourceInfo
; Function compile flags: /Ogtpy
;	COMDAT ?getResourceInfo@CvGlobals@@QAEAAV?$vector@PAVCvResourceInfo@@V?$allocator@PAVCvResourceInfo@@@std@@@std@@XZ
_TEXT	SEGMENT
?getResourceInfo@CvGlobals@@QAEAAV?$vector@PAVCvResourceInfo@@V?$allocator@PAVCvResourceInfo@@@std@@@std@@XZ PROC ; CvGlobals::getResourceInfo, COMDAT
; _this$ = ecx

; 2802 : 	return m_paResourceInfo;

	lea	eax, DWORD PTR [ecx+1148]

; 2803 : }

	ret	0
?getResourceInfo@CvGlobals@@QAEAAV?$vector@PAVCvResourceInfo@@V?$allocator@PAVCvResourceInfo@@@std@@@std@@XZ ENDP ; CvGlobals::getResourceInfo
_TEXT	ENDS
PUBLIC	?getFeatureInfo@CvGlobals@@QAEAAV?$vector@PAVCvFeatureInfo@@V?$allocator@PAVCvFeatureInfo@@@std@@@std@@XZ ; CvGlobals::getFeatureInfo
; Function compile flags: /Ogtpy
;	COMDAT ?getFeatureInfo@CvGlobals@@QAEAAV?$vector@PAVCvFeatureInfo@@V?$allocator@PAVCvFeatureInfo@@@std@@@std@@XZ
_TEXT	SEGMENT
?getFeatureInfo@CvGlobals@@QAEAAV?$vector@PAVCvFeatureInfo@@V?$allocator@PAVCvFeatureInfo@@@std@@@std@@XZ PROC ; CvGlobals::getFeatureInfo, COMDAT
; _this$ = ecx

; 2828 : 	return m_paFeatureInfo;

	lea	eax, DWORD PTR [ecx+1116]

; 2829 : }

	ret	0
?getFeatureInfo@CvGlobals@@QAEAAV?$vector@PAVCvFeatureInfo@@V?$allocator@PAVCvFeatureInfo@@@std@@@std@@XZ ENDP ; CvGlobals::getFeatureInfo
_TEXT	ENDS
PUBLIC	?getNumPlayableCivilizationInfos@CvGlobals@@QAEAAHXZ ; CvGlobals::getNumPlayableCivilizationInfos
; Function compile flags: /Ogtpy
;	COMDAT ?getNumPlayableCivilizationInfos@CvGlobals@@QAEAAHXZ
_TEXT	SEGMENT
?getNumPlayableCivilizationInfos@CvGlobals@@QAEAAHXZ PROC ; CvGlobals::getNumPlayableCivilizationInfos, COMDAT
; _this$ = ecx

; 2843 : 	return m_iNumPlayableCivilizationInfos;

	lea	eax, DWORD PTR [ecx+1244]

; 2844 : }

	ret	0
?getNumPlayableCivilizationInfos@CvGlobals@@QAEAAHXZ ENDP ; CvGlobals::getNumPlayableCivilizationInfos
_TEXT	ENDS
PUBLIC	?getNumAIPlayableCivilizationInfos@CvGlobals@@QAEAAHXZ ; CvGlobals::getNumAIPlayableCivilizationInfos
; Function compile flags: /Ogtpy
;	COMDAT ?getNumAIPlayableCivilizationInfos@CvGlobals@@QAEAAHXZ
_TEXT	SEGMENT
?getNumAIPlayableCivilizationInfos@CvGlobals@@QAEAAHXZ PROC ; CvGlobals::getNumAIPlayableCivilizationInfos, COMDAT
; _this$ = ecx

; 2848 : 	return m_iNumAIPlayableCivilizationInfos;

	lea	eax, DWORD PTR [ecx+1248]

; 2849 : }

	ret	0
?getNumAIPlayableCivilizationInfos@CvGlobals@@QAEAAHXZ ENDP ; CvGlobals::getNumAIPlayableCivilizationInfos
_TEXT	ENDS
PUBLIC	?getCivilizationInfo@CvGlobals@@QAEAAV?$vector@PAVCvCivilizationInfo@@V?$allocator@PAVCvCivilizationInfo@@@std@@@std@@XZ ; CvGlobals::getCivilizationInfo
; Function compile flags: /Ogtpy
;	COMDAT ?getCivilizationInfo@CvGlobals@@QAEAAV?$vector@PAVCvCivilizationInfo@@V?$allocator@PAVCvCivilizationInfo@@@std@@@std@@XZ
_TEXT	SEGMENT
?getCivilizationInfo@CvGlobals@@QAEAAV?$vector@PAVCvCivilizationInfo@@V?$allocator@PAVCvCivilizationInfo@@@std@@@std@@XZ PROC ; CvGlobals::getCivilizationInfo, COMDAT
; _this$ = ecx

; 2864 : 	return m_paCivilizationInfo;

	lea	eax, DWORD PTR [ecx+1228]

; 2865 : }

	ret	0
?getCivilizationInfo@CvGlobals@@QAEAAV?$vector@PAVCvCivilizationInfo@@V?$allocator@PAVCvCivilizationInfo@@@std@@@std@@XZ ENDP ; CvGlobals::getCivilizationInfo
_TEXT	ENDS
PUBLIC	?getMinorCivInfo@CvGlobals@@QAEAAV?$vector@PAVCvMinorCivInfo@@V?$allocator@PAVCvMinorCivInfo@@@std@@@std@@XZ ; CvGlobals::getMinorCivInfo
; Function compile flags: /Ogtpy
;	COMDAT ?getMinorCivInfo@CvGlobals@@QAEAAV?$vector@PAVCvMinorCivInfo@@V?$allocator@PAVCvMinorCivInfo@@@std@@@std@@XZ
_TEXT	SEGMENT
?getMinorCivInfo@CvGlobals@@QAEAAV?$vector@PAVCvMinorCivInfo@@V?$allocator@PAVCvMinorCivInfo@@@std@@@std@@XZ PROC ; CvGlobals::getMinorCivInfo, COMDAT
; _this$ = ecx

; 2934 : 	return m_paMinorCivInfo;

	lea	eax, DWORD PTR [ecx+1252]

; 2935 : }

	ret	0
?getMinorCivInfo@CvGlobals@@QAEAAV?$vector@PAVCvMinorCivInfo@@V?$allocator@PAVCvMinorCivInfo@@@std@@@std@@XZ ENDP ; CvGlobals::getMinorCivInfo
_TEXT	ENDS
PUBLIC	?getLeaderHeadInfo@CvGlobals@@QAEAAV?$vector@PAVCvLeaderHeadInfo@@V?$allocator@PAVCvLeaderHeadInfo@@@std@@@std@@XZ ; CvGlobals::getLeaderHeadInfo
; Function compile flags: /Ogtpy
;	COMDAT ?getLeaderHeadInfo@CvGlobals@@QAEAAV?$vector@PAVCvLeaderHeadInfo@@V?$allocator@PAVCvLeaderHeadInfo@@@std@@@std@@XZ
_TEXT	SEGMENT
?getLeaderHeadInfo@CvGlobals@@QAEAAV?$vector@PAVCvLeaderHeadInfo@@V?$allocator@PAVCvLeaderHeadInfo@@@std@@@std@@XZ PROC ; CvGlobals::getLeaderHeadInfo, COMDAT
; _this$ = ecx

; 2960 : 	return m_paLeaderHeadInfo;

	lea	eax, DWORD PTR [ecx+1268]

; 2961 : }

	ret	0
?getLeaderHeadInfo@CvGlobals@@QAEAAV?$vector@PAVCvLeaderHeadInfo@@V?$allocator@PAVCvLeaderHeadInfo@@@std@@@std@@XZ ENDP ; CvGlobals::getLeaderHeadInfo
_TEXT	ENDS
PUBLIC	?getNumUnitInfos@CvGlobals@@QAEHXZ		; CvGlobals::getNumUnitInfos
EXTRN	?GetNumUnits@CvUnitXMLEntries@@QAEHXZ:PROC	; CvUnitXMLEntries::GetNumUnits
; Function compile flags: /Ogtpy
;	COMDAT ?getNumUnitInfos@CvGlobals@@QAEHXZ
_TEXT	SEGMENT
?getNumUnitInfos@CvGlobals@@QAEHXZ PROC			; CvGlobals::getNumUnitInfos, COMDAT
; _this$ = ecx

; 2983 : 	return m_pUnits->GetNumUnits();

	mov	ecx, DWORD PTR [ecx+1704]
	jmp	?GetNumUnits@CvUnitXMLEntries@@QAEHXZ	; CvUnitXMLEntries::GetNumUnits
?getNumUnitInfos@CvGlobals@@QAEHXZ ENDP			; CvGlobals::getNumUnitInfos
_TEXT	ENDS
PUBLIC	?getUnitInfo@CvGlobals@@QAEAAV?$vector@PAVCvUnitEntry@@V?$allocator@PAVCvUnitEntry@@@std@@@std@@XZ ; CvGlobals::getUnitInfo
EXTRN	?GetUnitEntries@CvUnitXMLEntries@@QAEAAV?$vector@PAVCvUnitEntry@@V?$allocator@PAVCvUnitEntry@@@std@@@std@@XZ:PROC ; CvUnitXMLEntries::GetUnitEntries
; Function compile flags: /Ogtpy
;	COMDAT ?getUnitInfo@CvGlobals@@QAEAAV?$vector@PAVCvUnitEntry@@V?$allocator@PAVCvUnitEntry@@@std@@@std@@XZ
_TEXT	SEGMENT
?getUnitInfo@CvGlobals@@QAEAAV?$vector@PAVCvUnitEntry@@V?$allocator@PAVCvUnitEntry@@@std@@@std@@XZ PROC ; CvGlobals::getUnitInfo, COMDAT
; _this$ = ecx

; 2988 : 	return m_pUnits->GetUnitEntries();

	mov	ecx, DWORD PTR [ecx+1704]
	jmp	?GetUnitEntries@CvUnitXMLEntries@@QAEAAV?$vector@PAVCvUnitEntry@@V?$allocator@PAVCvUnitEntry@@@std@@@std@@XZ ; CvUnitXMLEntries::GetUnitEntries
?getUnitInfo@CvGlobals@@QAEAAV?$vector@PAVCvUnitEntry@@V?$allocator@PAVCvUnitEntry@@@std@@@std@@XZ ENDP ; CvGlobals::getUnitInfo
_TEXT	ENDS
PUBLIC	?GetGameUnits@CvGlobals@@QBEPAVCvUnitXMLEntries@@XZ ; CvGlobals::GetGameUnits
; Function compile flags: /Ogtpy
;	COMDAT ?GetGameUnits@CvGlobals@@QBEPAVCvUnitXMLEntries@@XZ
_TEXT	SEGMENT
?GetGameUnits@CvGlobals@@QBEPAVCvUnitXMLEntries@@XZ PROC ; CvGlobals::GetGameUnits, COMDAT
; _this$ = ecx

; 3014 : 	return m_pUnits;

	mov	eax, DWORD PTR [ecx+1704]

; 3015 : }

	ret	0
?GetGameUnits@CvGlobals@@QBEPAVCvUnitXMLEntries@@XZ ENDP ; CvGlobals::GetGameUnits
_TEXT	ENDS
PUBLIC	?getSpecialUnitInfo@CvGlobals@@QAEAAV?$vector@PAVCvSpecialUnitInfo@@V?$allocator@PAVCvSpecialUnitInfo@@@std@@@std@@XZ ; CvGlobals::getSpecialUnitInfo
; Function compile flags: /Ogtpy
;	COMDAT ?getSpecialUnitInfo@CvGlobals@@QAEAAV?$vector@PAVCvSpecialUnitInfo@@V?$allocator@PAVCvSpecialUnitInfo@@@std@@@std@@XZ
_TEXT	SEGMENT
?getSpecialUnitInfo@CvGlobals@@QAEAAV?$vector@PAVCvSpecialUnitInfo@@V?$allocator@PAVCvSpecialUnitInfo@@@std@@@std@@XZ PROC ; CvGlobals::getSpecialUnitInfo, COMDAT
; _this$ = ecx

; 3030 : 	return m_paSpecialUnitInfo;

	lea	eax, DWORD PTR [ecx+1348]

; 3031 : }

	ret	0
?getSpecialUnitInfo@CvGlobals@@QAEAAV?$vector@PAVCvSpecialUnitInfo@@V?$allocator@PAVCvSpecialUnitInfo@@@std@@@std@@XZ ENDP ; CvGlobals::getSpecialUnitInfo
_TEXT	ENDS
PUBLIC	?getVoteSourceInfo@CvGlobals@@QAEAAV?$vector@PAVCvVoteSourceInfo@@V?$allocator@PAVCvVoteSourceInfo@@@std@@@std@@XZ ; CvGlobals::getVoteSourceInfo
; Function compile flags: /Ogtpy
;	COMDAT ?getVoteSourceInfo@CvGlobals@@QAEAAV?$vector@PAVCvVoteSourceInfo@@V?$allocator@PAVCvVoteSourceInfo@@@std@@@std@@XZ
_TEXT	SEGMENT
?getVoteSourceInfo@CvGlobals@@QAEAAV?$vector@PAVCvVoteSourceInfo@@V?$allocator@PAVCvVoteSourceInfo@@@std@@@std@@XZ PROC ; CvGlobals::getVoteSourceInfo, COMDAT
; _this$ = ecx

; 3065 : 	return m_paVoteSourceInfo;

	lea	eax, DWORD PTR [ecx+1364]

; 3066 : }

	ret	0
?getVoteSourceInfo@CvGlobals@@QAEAAV?$vector@PAVCvVoteSourceInfo@@V?$allocator@PAVCvVoteSourceInfo@@@std@@@std@@XZ ENDP ; CvGlobals::getVoteSourceInfo
_TEXT	ENDS
PUBLIC	?getUnitCombatClassInfo@CvGlobals@@QAEAAV?$vector@PAVCvBaseInfo@@V?$allocator@PAVCvBaseInfo@@@std@@@std@@XZ ; CvGlobals::getUnitCombatClassInfo
; Function compile flags: /Ogtpy
;	COMDAT ?getUnitCombatClassInfo@CvGlobals@@QAEAAV?$vector@PAVCvBaseInfo@@V?$allocator@PAVCvBaseInfo@@@std@@@std@@XZ
_TEXT	SEGMENT
?getUnitCombatClassInfo@CvGlobals@@QAEAAV?$vector@PAVCvBaseInfo@@V?$allocator@PAVCvBaseInfo@@@std@@@std@@XZ PROC ; CvGlobals::getUnitCombatClassInfo, COMDAT
; _this$ = ecx

; 3100 : 	return m_paUnitCombatClassInfo;

	lea	eax, DWORD PTR [ecx+1380]

; 3101 : }

	ret	0
?getUnitCombatClassInfo@CvGlobals@@QAEAAV?$vector@PAVCvBaseInfo@@V?$allocator@PAVCvBaseInfo@@@std@@@std@@XZ ENDP ; CvGlobals::getUnitCombatClassInfo
_TEXT	ENDS
PUBLIC	?getUnitAIInfo@CvGlobals@@QAEAAV?$vector@PAVCvBaseInfo@@V?$allocator@PAVCvBaseInfo@@@std@@@std@@XZ ; CvGlobals::getUnitAIInfo
; Function compile flags: /Ogtpy
;	COMDAT ?getUnitAIInfo@CvGlobals@@QAEAAV?$vector@PAVCvBaseInfo@@V?$allocator@PAVCvBaseInfo@@@std@@@std@@XZ
_TEXT	SEGMENT
?getUnitAIInfo@CvGlobals@@QAEAAV?$vector@PAVCvBaseInfo@@V?$allocator@PAVCvBaseInfo@@@std@@@std@@XZ PROC ; CvGlobals::getUnitAIInfo, COMDAT
; _this$ = ecx

; 3124 : 	return m_paUnitAIInfos;

	lea	eax, DWORD PTR [ecx+1396]

; 3125 : }

	ret	0
?getUnitAIInfo@CvGlobals@@QAEAAV?$vector@PAVCvBaseInfo@@V?$allocator@PAVCvBaseInfo@@@std@@@std@@XZ ENDP ; CvGlobals::getUnitAIInfo
_TEXT	ENDS
PUBLIC	?getGameOptionInfo@CvGlobals@@QAEAAV?$vector@PAVCvGameOptionInfo@@V?$allocator@PAVCvGameOptionInfo@@@std@@@std@@XZ ; CvGlobals::getGameOptionInfo
; Function compile flags: /Ogtpy
;	COMDAT ?getGameOptionInfo@CvGlobals@@QAEAAV?$vector@PAVCvGameOptionInfo@@V?$allocator@PAVCvGameOptionInfo@@@std@@@std@@XZ
_TEXT	SEGMENT
?getGameOptionInfo@CvGlobals@@QAEAAV?$vector@PAVCvGameOptionInfo@@V?$allocator@PAVCvGameOptionInfo@@@std@@@std@@XZ PROC ; CvGlobals::getGameOptionInfo, COMDAT
; _this$ = ecx

; 3159 : 	return m_paGameOptionInfos;

	lea	eax, DWORD PTR [ecx+1412]

; 3160 : }

	ret	0
?getGameOptionInfo@CvGlobals@@QAEAAV?$vector@PAVCvGameOptionInfo@@V?$allocator@PAVCvGameOptionInfo@@@std@@@std@@XZ ENDP ; CvGlobals::getGameOptionInfo
_TEXT	ENDS
PUBLIC	?getMPOptionInfo@CvGlobals@@QAEAAV?$vector@PAVCvMPOptionInfo@@V?$allocator@PAVCvMPOptionInfo@@@std@@@std@@XZ ; CvGlobals::getMPOptionInfo
; Function compile flags: /Ogtpy
;	COMDAT ?getMPOptionInfo@CvGlobals@@QAEAAV?$vector@PAVCvMPOptionInfo@@V?$allocator@PAVCvMPOptionInfo@@@std@@@std@@XZ
_TEXT	SEGMENT
?getMPOptionInfo@CvGlobals@@QAEAAV?$vector@PAVCvMPOptionInfo@@V?$allocator@PAVCvMPOptionInfo@@@std@@@std@@XZ PROC ; CvGlobals::getMPOptionInfo, COMDAT
; _this$ = ecx

; 3194 : 	return m_paMPOptionInfos;

	lea	eax, DWORD PTR [ecx+1428]

; 3195 : }

	ret	0
?getMPOptionInfo@CvGlobals@@QAEAAV?$vector@PAVCvMPOptionInfo@@V?$allocator@PAVCvMPOptionInfo@@@std@@@std@@XZ ENDP ; CvGlobals::getMPOptionInfo
_TEXT	ENDS
PUBLIC	?getPlayerOptionInfo@CvGlobals@@QAEAAV?$vector@PAVCvPlayerOptionInfo@@V?$allocator@PAVCvPlayerOptionInfo@@@std@@@std@@XZ ; CvGlobals::getPlayerOptionInfo
; Function compile flags: /Ogtpy
;	COMDAT ?getPlayerOptionInfo@CvGlobals@@QAEAAV?$vector@PAVCvPlayerOptionInfo@@V?$allocator@PAVCvPlayerOptionInfo@@@std@@@std@@XZ
_TEXT	SEGMENT
?getPlayerOptionInfo@CvGlobals@@QAEAAV?$vector@PAVCvPlayerOptionInfo@@V?$allocator@PAVCvPlayerOptionInfo@@@std@@@std@@XZ PROC ; CvGlobals::getPlayerOptionInfo, COMDAT
; _this$ = ecx

; 3218 : 	return m_paPlayerOptionInfos;

	lea	eax, DWORD PTR [ecx+1444]

; 3219 : }

	ret	0
?getPlayerOptionInfo@CvGlobals@@QAEAAV?$vector@PAVCvPlayerOptionInfo@@V?$allocator@PAVCvPlayerOptionInfo@@@std@@@std@@XZ ENDP ; CvGlobals::getPlayerOptionInfo
_TEXT	ENDS
PUBLIC	?getYieldInfo@CvGlobals@@QAEAAV?$vector@PAVCvYieldInfo@@V?$allocator@PAVCvYieldInfo@@@std@@@std@@XZ ; CvGlobals::getYieldInfo
; Function compile flags: /Ogtpy
;	COMDAT ?getYieldInfo@CvGlobals@@QAEAAV?$vector@PAVCvYieldInfo@@V?$allocator@PAVCvYieldInfo@@@std@@@std@@XZ
_TEXT	SEGMENT
?getYieldInfo@CvGlobals@@QAEAAV?$vector@PAVCvYieldInfo@@V?$allocator@PAVCvYieldInfo@@@std@@@std@@XZ PROC ; CvGlobals::getYieldInfo, COMDAT
; _this$ = ecx

; 3241 : 	return m_paYieldInfo;

	lea	eax, DWORD PTR [ecx+1084]

; 3242 : }

	ret	0
?getYieldInfo@CvGlobals@@QAEAAV?$vector@PAVCvYieldInfo@@V?$allocator@PAVCvYieldInfo@@@std@@@std@@XZ ENDP ; CvGlobals::getYieldInfo
_TEXT	ENDS
PUBLIC	?getRouteInfo@CvGlobals@@QAEAAV?$vector@PAVCvRouteInfo@@V?$allocator@PAVCvRouteInfo@@@std@@@std@@XZ ; CvGlobals::getRouteInfo
; Function compile flags: /Ogtpy
;	COMDAT ?getRouteInfo@CvGlobals@@QAEAAV?$vector@PAVCvRouteInfo@@V?$allocator@PAVCvRouteInfo@@@std@@@std@@XZ
_TEXT	SEGMENT
?getRouteInfo@CvGlobals@@QAEAAV?$vector@PAVCvRouteInfo@@V?$allocator@PAVCvRouteInfo@@@std@@@std@@XZ PROC ; CvGlobals::getRouteInfo, COMDAT
; _this$ = ecx

; 3280 : 	return m_paRouteInfo;

	lea	eax, DWORD PTR [ecx+1100]

; 3281 : }

	ret	0
?getRouteInfo@CvGlobals@@QAEAAV?$vector@PAVCvRouteInfo@@V?$allocator@PAVCvRouteInfo@@@std@@@std@@XZ ENDP ; CvGlobals::getRouteInfo
_TEXT	ENDS
PUBLIC	?getNumImprovementInfos@CvGlobals@@QAEHXZ	; CvGlobals::getNumImprovementInfos
EXTRN	?GetNumImprovements@CvImprovementXMLEntries@@QAEHXZ:PROC ; CvImprovementXMLEntries::GetNumImprovements
; Function compile flags: /Ogtpy
;	COMDAT ?getNumImprovementInfos@CvGlobals@@QAEHXZ
_TEXT	SEGMENT
?getNumImprovementInfos@CvGlobals@@QAEHXZ PROC		; CvGlobals::getNumImprovementInfos, COMDAT
; _this$ = ecx

; 3308 : 	return m_pImprovements->GetNumImprovements();

	mov	ecx, DWORD PTR [ecx+1716]
	jmp	?GetNumImprovements@CvImprovementXMLEntries@@QAEHXZ ; CvImprovementXMLEntries::GetNumImprovements
?getNumImprovementInfos@CvGlobals@@QAEHXZ ENDP		; CvGlobals::getNumImprovementInfos
_TEXT	ENDS
PUBLIC	?getImprovementInfo@CvGlobals@@QAEAAV?$vector@PAVCvImprovementEntry@@V?$allocator@PAVCvImprovementEntry@@@std@@@std@@XZ ; CvGlobals::getImprovementInfo
EXTRN	?GetImprovementEntries@CvImprovementXMLEntries@@QAEAAV?$vector@PAVCvImprovementEntry@@V?$allocator@PAVCvImprovementEntry@@@std@@@std@@XZ:PROC ; CvImprovementXMLEntries::GetImprovementEntries
; Function compile flags: /Ogtpy
;	COMDAT ?getImprovementInfo@CvGlobals@@QAEAAV?$vector@PAVCvImprovementEntry@@V?$allocator@PAVCvImprovementEntry@@@std@@@std@@XZ
_TEXT	SEGMENT
?getImprovementInfo@CvGlobals@@QAEAAV?$vector@PAVCvImprovementEntry@@V?$allocator@PAVCvImprovementEntry@@@std@@@std@@XZ PROC ; CvGlobals::getImprovementInfo, COMDAT
; _this$ = ecx

; 3313 : 	return m_pImprovements->GetImprovementEntries();

	mov	ecx, DWORD PTR [ecx+1716]
	jmp	?GetImprovementEntries@CvImprovementXMLEntries@@QAEAAV?$vector@PAVCvImprovementEntry@@V?$allocator@PAVCvImprovementEntry@@@std@@@std@@XZ ; CvImprovementXMLEntries::GetImprovementEntries
?getImprovementInfo@CvGlobals@@QAEAAV?$vector@PAVCvImprovementEntry@@V?$allocator@PAVCvImprovementEntry@@@std@@@std@@XZ ENDP ; CvGlobals::getImprovementInfo
_TEXT	ENDS
PUBLIC	?GetGameImprovements@CvGlobals@@QBEPAVCvImprovementXMLEntries@@XZ ; CvGlobals::GetGameImprovements
; Function compile flags: /Ogtpy
;	COMDAT ?GetGameImprovements@CvGlobals@@QBEPAVCvImprovementXMLEntries@@XZ
_TEXT	SEGMENT
?GetGameImprovements@CvGlobals@@QBEPAVCvImprovementXMLEntries@@XZ PROC ; CvGlobals::GetGameImprovements, COMDAT
; _this$ = ecx

; 3335 : 	return m_pImprovements;

	mov	eax, DWORD PTR [ecx+1716]

; 3336 : }

	ret	0
?GetGameImprovements@CvGlobals@@QBEPAVCvImprovementXMLEntries@@XZ ENDP ; CvGlobals::GetGameImprovements
_TEXT	ENDS
PUBLIC	?getBuildInfo@CvGlobals@@QAEAAV?$vector@PAVCvBuildInfo@@V?$allocator@PAVCvBuildInfo@@@std@@@std@@XZ ; CvGlobals::getBuildInfo
; Function compile flags: /Ogtpy
;	COMDAT ?getBuildInfo@CvGlobals@@QAEAAV?$vector@PAVCvBuildInfo@@V?$allocator@PAVCvBuildInfo@@@std@@@std@@XZ
_TEXT	SEGMENT
?getBuildInfo@CvGlobals@@QAEAAV?$vector@PAVCvBuildInfo@@V?$allocator@PAVCvBuildInfo@@@std@@@std@@XZ PROC ; CvGlobals::getBuildInfo, COMDAT
; _this$ = ecx

; 3351 : 	return m_paBuildInfo;

	lea	eax, DWORD PTR [ecx+1164]

; 3352 : }

	ret	0
?getBuildInfo@CvGlobals@@QAEAAV?$vector@PAVCvBuildInfo@@V?$allocator@PAVCvBuildInfo@@@std@@@std@@XZ ENDP ; CvGlobals::getBuildInfo
_TEXT	ENDS
PUBLIC	?getHandicapInfo@CvGlobals@@QAEAAV?$vector@PAVCvHandicapInfo@@V?$allocator@PAVCvHandicapInfo@@@std@@@std@@XZ ; CvGlobals::getHandicapInfo
; Function compile flags: /Ogtpy
;	COMDAT ?getHandicapInfo@CvGlobals@@QAEAAV?$vector@PAVCvHandicapInfo@@V?$allocator@PAVCvHandicapInfo@@@std@@@std@@XZ
_TEXT	SEGMENT
?getHandicapInfo@CvGlobals@@QAEAAV?$vector@PAVCvHandicapInfo@@V?$allocator@PAVCvHandicapInfo@@@std@@@std@@XZ PROC ; CvGlobals::getHandicapInfo, COMDAT
; _this$ = ecx

; 3384 : 	return m_paHandicapInfo;

	lea	eax, DWORD PTR [ecx+1180]

; 3385 : }

	ret	0
?getHandicapInfo@CvGlobals@@QAEAAV?$vector@PAVCvHandicapInfo@@V?$allocator@PAVCvHandicapInfo@@@std@@@std@@XZ ENDP ; CvGlobals::getHandicapInfo
_TEXT	ENDS
PUBLIC	?getGameSpeedInfo@CvGlobals@@QAEAAV?$vector@PAVCvGameSpeedInfo@@V?$allocator@PAVCvGameSpeedInfo@@@std@@@std@@XZ ; CvGlobals::getGameSpeedInfo
; Function compile flags: /Ogtpy
;	COMDAT ?getGameSpeedInfo@CvGlobals@@QAEAAV?$vector@PAVCvGameSpeedInfo@@V?$allocator@PAVCvGameSpeedInfo@@@std@@@std@@XZ
_TEXT	SEGMENT
?getGameSpeedInfo@CvGlobals@@QAEAAV?$vector@PAVCvGameSpeedInfo@@V?$allocator@PAVCvGameSpeedInfo@@@std@@@std@@XZ PROC ; CvGlobals::getGameSpeedInfo, COMDAT
; _this$ = ecx

; 3419 : 	return m_paGameSpeedInfo;

	lea	eax, DWORD PTR [ecx+1196]

; 3420 : }

	ret	0
?getGameSpeedInfo@CvGlobals@@QAEAAV?$vector@PAVCvGameSpeedInfo@@V?$allocator@PAVCvGameSpeedInfo@@@std@@@std@@XZ ENDP ; CvGlobals::getGameSpeedInfo
_TEXT	ENDS
PUBLIC	?getProcessInfo@CvGlobals@@QAEAAV?$vector@PAVCvProcessInfo@@V?$allocator@PAVCvProcessInfo@@@std@@@std@@XZ ; CvGlobals::getProcessInfo
; Function compile flags: /Ogtpy
;	COMDAT ?getProcessInfo@CvGlobals@@QAEAAV?$vector@PAVCvProcessInfo@@V?$allocator@PAVCvProcessInfo@@@std@@@std@@XZ
_TEXT	SEGMENT
?getProcessInfo@CvGlobals@@QAEAAV?$vector@PAVCvProcessInfo@@V?$allocator@PAVCvProcessInfo@@@std@@@std@@XZ PROC ; CvGlobals::getProcessInfo, COMDAT
; _this$ = ecx

; 3454 : 	return m_paProcessInfo;

	lea	eax, DWORD PTR [ecx+1284]

; 3455 : }

	ret	0
?getProcessInfo@CvGlobals@@QAEAAV?$vector@PAVCvProcessInfo@@V?$allocator@PAVCvProcessInfo@@@std@@@std@@XZ ENDP ; CvGlobals::getProcessInfo
_TEXT	ENDS
PUBLIC	?getVoteInfo@CvGlobals@@QAEAAV?$vector@PAVCvVoteInfo@@V?$allocator@PAVCvVoteInfo@@@std@@@std@@XZ ; CvGlobals::getVoteInfo
; Function compile flags: /Ogtpy
;	COMDAT ?getVoteInfo@CvGlobals@@QAEAAV?$vector@PAVCvVoteInfo@@V?$allocator@PAVCvVoteInfo@@@std@@@std@@XZ
_TEXT	SEGMENT
?getVoteInfo@CvGlobals@@QAEAAV?$vector@PAVCvVoteInfo@@V?$allocator@PAVCvVoteInfo@@@std@@@std@@XZ PROC ; CvGlobals::getVoteInfo, COMDAT
; _this$ = ecx

; 3487 : 	return m_paVoteInfo;

	lea	eax, DWORD PTR [ecx+1300]

; 3488 : }

	ret	0
?getVoteInfo@CvGlobals@@QAEAAV?$vector@PAVCvVoteInfo@@V?$allocator@PAVCvVoteInfo@@@std@@@std@@XZ ENDP ; CvGlobals::getVoteInfo
_TEXT	ENDS
PUBLIC	?getNumProjectInfos@CvGlobals@@QAEHXZ		; CvGlobals::getNumProjectInfos
EXTRN	?GetNumProjects@CvProjectXMLEntries@@QAEHXZ:PROC ; CvProjectXMLEntries::GetNumProjects
; Function compile flags: /Ogtpy
;	COMDAT ?getNumProjectInfos@CvGlobals@@QAEHXZ
_TEXT	SEGMENT
?getNumProjectInfos@CvGlobals@@QAEHXZ PROC		; CvGlobals::getNumProjectInfos, COMDAT
; _this$ = ecx

; 3513 : 	return m_pProjects->GetNumProjects();

	mov	ecx, DWORD PTR [ecx+1708]
	jmp	?GetNumProjects@CvProjectXMLEntries@@QAEHXZ ; CvProjectXMLEntries::GetNumProjects
?getNumProjectInfos@CvGlobals@@QAEHXZ ENDP		; CvGlobals::getNumProjectInfos
_TEXT	ENDS
PUBLIC	?getProjectInfo@CvGlobals@@QAEAAV?$vector@PAVCvProjectEntry@@V?$allocator@PAVCvProjectEntry@@@std@@@std@@XZ ; CvGlobals::getProjectInfo
EXTRN	?GetProjectEntries@CvProjectXMLEntries@@QAEAAV?$vector@PAVCvProjectEntry@@V?$allocator@PAVCvProjectEntry@@@std@@@std@@XZ:PROC ; CvProjectXMLEntries::GetProjectEntries
; Function compile flags: /Ogtpy
;	COMDAT ?getProjectInfo@CvGlobals@@QAEAAV?$vector@PAVCvProjectEntry@@V?$allocator@PAVCvProjectEntry@@@std@@@std@@XZ
_TEXT	SEGMENT
?getProjectInfo@CvGlobals@@QAEAAV?$vector@PAVCvProjectEntry@@V?$allocator@PAVCvProjectEntry@@@std@@@std@@XZ PROC ; CvGlobals::getProjectInfo, COMDAT
; _this$ = ecx

; 3518 : 	return m_pProjects->GetProjectEntries();

	mov	ecx, DWORD PTR [ecx+1708]
	jmp	?GetProjectEntries@CvProjectXMLEntries@@QAEAAV?$vector@PAVCvProjectEntry@@V?$allocator@PAVCvProjectEntry@@@std@@@std@@XZ ; CvProjectXMLEntries::GetProjectEntries
?getProjectInfo@CvGlobals@@QAEAAV?$vector@PAVCvProjectEntry@@V?$allocator@PAVCvProjectEntry@@@std@@@std@@XZ ENDP ; CvGlobals::getProjectInfo
_TEXT	ENDS
PUBLIC	?GetGameProjects@CvGlobals@@QBEPAVCvProjectXMLEntries@@XZ ; CvGlobals::GetGameProjects
; Function compile flags: /Ogtpy
;	COMDAT ?GetGameProjects@CvGlobals@@QBEPAVCvProjectXMLEntries@@XZ
_TEXT	SEGMENT
?GetGameProjects@CvGlobals@@QBEPAVCvProjectXMLEntries@@XZ PROC ; CvGlobals::GetGameProjects, COMDAT
; _this$ = ecx

; 3540 : 	return m_pProjects;

	mov	eax, DWORD PTR [ecx+1708]

; 3541 : }

	ret	0
?GetGameProjects@CvGlobals@@QBEPAVCvProjectXMLEntries@@XZ ENDP ; CvGlobals::GetGameProjects
_TEXT	ENDS
PUBLIC	?getBuildingClassInfo@CvGlobals@@QAEAAV?$vector@PAVCvBuildingClassInfo@@V?$allocator@PAVCvBuildingClassInfo@@@std@@@std@@XZ ; CvGlobals::getBuildingClassInfo
; Function compile flags: /Ogtpy
;	COMDAT ?getBuildingClassInfo@CvGlobals@@QAEAAV?$vector@PAVCvBuildingClassInfo@@V?$allocator@PAVCvBuildingClassInfo@@@std@@@std@@XZ
_TEXT	SEGMENT
?getBuildingClassInfo@CvGlobals@@QAEAAV?$vector@PAVCvBuildingClassInfo@@V?$allocator@PAVCvBuildingClassInfo@@@std@@@std@@XZ PROC ; CvGlobals::getBuildingClassInfo, COMDAT
; _this$ = ecx

; 3556 : 	return m_paBuildingClassInfo;

	lea	eax, DWORD PTR [ecx+1316]

; 3557 : }

	ret	0
?getBuildingClassInfo@CvGlobals@@QAEAAV?$vector@PAVCvBuildingClassInfo@@V?$allocator@PAVCvBuildingClassInfo@@@std@@@std@@XZ ENDP ; CvGlobals::getBuildingClassInfo
_TEXT	ENDS
PUBLIC	?getNumBuildingInfos@CvGlobals@@QAEHXZ		; CvGlobals::getNumBuildingInfos
EXTRN	?GetNumBuildings@CvBuildingXMLEntries@@QAEHXZ:PROC ; CvBuildingXMLEntries::GetNumBuildings
; Function compile flags: /Ogtpy
;	COMDAT ?getNumBuildingInfos@CvGlobals@@QAEHXZ
_TEXT	SEGMENT
?getNumBuildingInfos@CvGlobals@@QAEHXZ PROC		; CvGlobals::getNumBuildingInfos, COMDAT
; _this$ = ecx

; 3584 : 	return m_pBuildings->GetNumBuildings();

	mov	ecx, DWORD PTR [ecx+1700]
	jmp	?GetNumBuildings@CvBuildingXMLEntries@@QAEHXZ ; CvBuildingXMLEntries::GetNumBuildings
?getNumBuildingInfos@CvGlobals@@QAEHXZ ENDP		; CvGlobals::getNumBuildingInfos
_TEXT	ENDS
PUBLIC	?getBuildingInfo@CvGlobals@@QAEAAV?$vector@PAVCvBuildingEntry@@V?$allocator@PAVCvBuildingEntry@@@std@@@std@@XZ ; CvGlobals::getBuildingInfo
EXTRN	?GetBuildingEntries@CvBuildingXMLEntries@@QAEAAV?$vector@PAVCvBuildingEntry@@V?$allocator@PAVCvBuildingEntry@@@std@@@std@@XZ:PROC ; CvBuildingXMLEntries::GetBuildingEntries
; Function compile flags: /Ogtpy
;	COMDAT ?getBuildingInfo@CvGlobals@@QAEAAV?$vector@PAVCvBuildingEntry@@V?$allocator@PAVCvBuildingEntry@@@std@@@std@@XZ
_TEXT	SEGMENT
?getBuildingInfo@CvGlobals@@QAEAAV?$vector@PAVCvBuildingEntry@@V?$allocator@PAVCvBuildingEntry@@@std@@@std@@XZ PROC ; CvGlobals::getBuildingInfo, COMDAT
; _this$ = ecx

; 3589 : 	return m_pBuildings->GetBuildingEntries();

	mov	ecx, DWORD PTR [ecx+1700]
	jmp	?GetBuildingEntries@CvBuildingXMLEntries@@QAEAAV?$vector@PAVCvBuildingEntry@@V?$allocator@PAVCvBuildingEntry@@@std@@@std@@XZ ; CvBuildingXMLEntries::GetBuildingEntries
?getBuildingInfo@CvGlobals@@QAEAAV?$vector@PAVCvBuildingEntry@@V?$allocator@PAVCvBuildingEntry@@@std@@@std@@XZ ENDP ; CvGlobals::getBuildingInfo
_TEXT	ENDS
PUBLIC	?GetGameBuildings@CvGlobals@@QBEPAVCvBuildingXMLEntries@@XZ ; CvGlobals::GetGameBuildings
; Function compile flags: /Ogtpy
;	COMDAT ?GetGameBuildings@CvGlobals@@QBEPAVCvBuildingXMLEntries@@XZ
_TEXT	SEGMENT
?GetGameBuildings@CvGlobals@@QBEPAVCvBuildingXMLEntries@@XZ PROC ; CvGlobals::GetGameBuildings, COMDAT
; _this$ = ecx

; 3613 : 	return m_pBuildings;

	mov	eax, DWORD PTR [ecx+1700]

; 3614 : }

	ret	0
?GetGameBuildings@CvGlobals@@QBEPAVCvBuildingXMLEntries@@XZ ENDP ; CvGlobals::GetGameBuildings
_TEXT	ENDS
PUBLIC	?getUnitClassInfo@CvGlobals@@QAEAAV?$vector@PAVCvUnitClassInfo@@V?$allocator@PAVCvUnitClassInfo@@@std@@@std@@XZ ; CvGlobals::getUnitClassInfo
; Function compile flags: /Ogtpy
;	COMDAT ?getUnitClassInfo@CvGlobals@@QAEAAV?$vector@PAVCvUnitClassInfo@@V?$allocator@PAVCvUnitClassInfo@@@std@@@std@@XZ
_TEXT	SEGMENT
?getUnitClassInfo@CvGlobals@@QAEAAV?$vector@PAVCvUnitClassInfo@@V?$allocator@PAVCvUnitClassInfo@@@std@@@std@@XZ PROC ; CvGlobals::getUnitClassInfo, COMDAT
; _this$ = ecx

; 3629 : 	return m_paUnitClassInfo;

	lea	eax, DWORD PTR [ecx+1332]

; 3630 : }

	ret	0
?getUnitClassInfo@CvGlobals@@QAEAAV?$vector@PAVCvUnitClassInfo@@V?$allocator@PAVCvUnitClassInfo@@@std@@@std@@XZ ENDP ; CvGlobals::getUnitClassInfo
_TEXT	ENDS
PUBLIC	?getActionInfo@CvGlobals@@QAEAAV?$vector@PAVCvActionInfo@@V?$allocator@PAVCvActionInfo@@@std@@@std@@XZ ; CvGlobals::getActionInfo
; Function compile flags: /Ogtpy
;	COMDAT ?getActionInfo@CvGlobals@@QAEAAV?$vector@PAVCvActionInfo@@V?$allocator@PAVCvActionInfo@@@std@@@std@@XZ
_TEXT	SEGMENT
?getActionInfo@CvGlobals@@QAEAAV?$vector@PAVCvActionInfo@@V?$allocator@PAVCvActionInfo@@@std@@@std@@XZ PROC ; CvGlobals::getActionInfo, COMDAT
; _this$ = ecx

; 3666 : 	return m_paActionInfo;

	lea	eax, DWORD PTR [ecx+1476]

; 3667 : }

	ret	0
?getActionInfo@CvGlobals@@QAEAAV?$vector@PAVCvActionInfo@@V?$allocator@PAVCvActionInfo@@@std@@@std@@XZ ENDP ; CvGlobals::getActionInfo
_TEXT	ENDS
PUBLIC	?getMissionInfo@CvGlobals@@QAEAAV?$vector@PAVCvMissionInfo@@V?$allocator@PAVCvMissionInfo@@@std@@@std@@XZ ; CvGlobals::getMissionInfo
; Function compile flags: /Ogtpy
;	COMDAT ?getMissionInfo@CvGlobals@@QAEAAV?$vector@PAVCvMissionInfo@@V?$allocator@PAVCvMissionInfo@@@std@@@std@@XZ
_TEXT	SEGMENT
?getMissionInfo@CvGlobals@@QAEAAV?$vector@PAVCvMissionInfo@@V?$allocator@PAVCvMissionInfo@@@std@@@std@@XZ PROC ; CvGlobals::getMissionInfo, COMDAT
; _this$ = ecx

; 3688 : 	return m_paMissionInfo;

	lea	eax, DWORD PTR [ecx+1492]

; 3689 : }

	ret	0
?getMissionInfo@CvGlobals@@QAEAAV?$vector@PAVCvMissionInfo@@V?$allocator@PAVCvMissionInfo@@@std@@@std@@XZ ENDP ; CvGlobals::getMissionInfo
_TEXT	ENDS
PUBLIC	?getControlInfo@CvGlobals@@QAEAAV?$vector@PAVCvControlInfo@@V?$allocator@PAVCvControlInfo@@@std@@@std@@XZ ; CvGlobals::getControlInfo
; Function compile flags: /Ogtpy
;	COMDAT ?getControlInfo@CvGlobals@@QAEAAV?$vector@PAVCvControlInfo@@V?$allocator@PAVCvControlInfo@@@std@@@std@@XZ
_TEXT	SEGMENT
?getControlInfo@CvGlobals@@QAEAAV?$vector@PAVCvControlInfo@@V?$allocator@PAVCvControlInfo@@@std@@@std@@XZ PROC ; CvGlobals::getControlInfo, COMDAT
; _this$ = ecx

; 3712 : 	return m_paControlInfo;

	lea	eax, DWORD PTR [ecx+1508]

; 3713 : }

	ret	0
?getControlInfo@CvGlobals@@QAEAAV?$vector@PAVCvControlInfo@@V?$allocator@PAVCvControlInfo@@@std@@@std@@XZ ENDP ; CvGlobals::getControlInfo
_TEXT	ENDS
PUBLIC	?getCommandInfo@CvGlobals@@QAEAAV?$vector@PAVCvCommandInfo@@V?$allocator@PAVCvCommandInfo@@@std@@@std@@XZ ; CvGlobals::getCommandInfo
; Function compile flags: /Ogtpy
;	COMDAT ?getCommandInfo@CvGlobals@@QAEAAV?$vector@PAVCvCommandInfo@@V?$allocator@PAVCvCommandInfo@@@std@@@std@@XZ
_TEXT	SEGMENT
?getCommandInfo@CvGlobals@@QAEAAV?$vector@PAVCvCommandInfo@@V?$allocator@PAVCvCommandInfo@@@std@@@std@@XZ PROC ; CvGlobals::getCommandInfo, COMDAT
; _this$ = ecx

; 3736 : 	return m_paCommandInfo;

	lea	eax, DWORD PTR [ecx+1524]

; 3737 : }

	ret	0
?getCommandInfo@CvGlobals@@QAEAAV?$vector@PAVCvCommandInfo@@V?$allocator@PAVCvCommandInfo@@@std@@@std@@XZ ENDP ; CvGlobals::getCommandInfo
_TEXT	ENDS
PUBLIC	?getAutomateInfo@CvGlobals@@QAEAAV?$vector@PAVCvAutomateInfo@@V?$allocator@PAVCvAutomateInfo@@@std@@@std@@XZ ; CvGlobals::getAutomateInfo
; Function compile flags: /Ogtpy
;	COMDAT ?getAutomateInfo@CvGlobals@@QAEAAV?$vector@PAVCvAutomateInfo@@V?$allocator@PAVCvAutomateInfo@@@std@@@std@@XZ
_TEXT	SEGMENT
?getAutomateInfo@CvGlobals@@QAEAAV?$vector@PAVCvAutomateInfo@@V?$allocator@PAVCvAutomateInfo@@@std@@@std@@XZ PROC ; CvGlobals::getAutomateInfo, COMDAT
; _this$ = ecx

; 3771 : 	return m_paAutomateInfo;

	lea	eax, DWORD PTR [ecx+1540]

; 3772 : }

	ret	0
?getAutomateInfo@CvGlobals@@QAEAAV?$vector@PAVCvAutomateInfo@@V?$allocator@PAVCvAutomateInfo@@@std@@@std@@XZ ENDP ; CvGlobals::getAutomateInfo
_TEXT	ENDS
PUBLIC	?getPromotionInfo@CvGlobals@@QAEAAV?$vector@PAVCvPromotionEntry@@V?$allocator@PAVCvPromotionEntry@@@std@@@std@@XZ ; CvGlobals::getPromotionInfo
EXTRN	?GetPromotionEntries@CvPromotionXMLEntries@@QAEAAV?$vector@PAVCvPromotionEntry@@V?$allocator@PAVCvPromotionEntry@@@std@@@std@@XZ:PROC ; CvPromotionXMLEntries::GetPromotionEntries
; Function compile flags: /Ogtpy
;	COMDAT ?getPromotionInfo@CvGlobals@@QAEAAV?$vector@PAVCvPromotionEntry@@V?$allocator@PAVCvPromotionEntry@@@std@@@std@@XZ
_TEXT	SEGMENT
?getPromotionInfo@CvGlobals@@QAEAAV?$vector@PAVCvPromotionEntry@@V?$allocator@PAVCvPromotionEntry@@@std@@@std@@XZ PROC ; CvGlobals::getPromotionInfo, COMDAT
; _this$ = ecx

; 3805 : 	return m_pPromotions->GetPromotionEntries();

	mov	ecx, DWORD PTR [ecx+1712]
	jmp	?GetPromotionEntries@CvPromotionXMLEntries@@QAEAAV?$vector@PAVCvPromotionEntry@@V?$allocator@PAVCvPromotionEntry@@@std@@@std@@XZ ; CvPromotionXMLEntries::GetPromotionEntries
?getPromotionInfo@CvGlobals@@QAEAAV?$vector@PAVCvPromotionEntry@@V?$allocator@PAVCvPromotionEntry@@@std@@@std@@XZ ENDP ; CvGlobals::getPromotionInfo
_TEXT	ENDS
PUBLIC	?GetGamePromotions@CvGlobals@@QBEPAVCvPromotionXMLEntries@@XZ ; CvGlobals::GetGamePromotions
; Function compile flags: /Ogtpy
;	COMDAT ?GetGamePromotions@CvGlobals@@QBEPAVCvPromotionXMLEntries@@XZ
_TEXT	SEGMENT
?GetGamePromotions@CvGlobals@@QBEPAVCvPromotionXMLEntries@@XZ PROC ; CvGlobals::GetGamePromotions, COMDAT
; _this$ = ecx

; 3829 : 	return m_pPromotions;

	mov	eax, DWORD PTR [ecx+1712]

; 3830 : }

	ret	0
?GetGamePromotions@CvGlobals@@QBEPAVCvPromotionXMLEntries@@XZ ENDP ; CvGlobals::GetGamePromotions
_TEXT	ENDS
PUBLIC	?getSpecialistInfo@CvGlobals@@QAEAAV?$vector@PAVCvSpecialistInfo@@V?$allocator@PAVCvSpecialistInfo@@@std@@@std@@XZ ; CvGlobals::getSpecialistInfo
; Function compile flags: /Ogtpy
;	COMDAT ?getSpecialistInfo@CvGlobals@@QAEAAV?$vector@PAVCvSpecialistInfo@@V?$allocator@PAVCvSpecialistInfo@@@std@@@std@@XZ
_TEXT	SEGMENT
?getSpecialistInfo@CvGlobals@@QAEAAV?$vector@PAVCvSpecialistInfo@@V?$allocator@PAVCvSpecialistInfo@@@std@@@std@@XZ PROC ; CvGlobals::getSpecialistInfo, COMDAT
; _this$ = ecx

; 3845 : 	return m_paSpecialistInfo;

	lea	eax, DWORD PTR [ecx+1460]

; 3846 : }

	ret	0
?getSpecialistInfo@CvGlobals@@QAEAAV?$vector@PAVCvSpecialistInfo@@V?$allocator@PAVCvSpecialistInfo@@@std@@@std@@XZ ENDP ; CvGlobals::getSpecialistInfo
_TEXT	ENDS
PUBLIC	?getEconomicAIStrategyInfo@CvGlobals@@QAEAAV?$vector@PAVCvEconomicAIStrategyXMLEntry@@V?$allocator@PAVCvEconomicAIStrategyXMLEntry@@@std@@@std@@XZ ; CvGlobals::getEconomicAIStrategyInfo
EXTRN	?GetEconomicAIStrategyEntries@CvEconomicAIStrategyXMLEntries@@QAEAAV?$vector@PAVCvEconomicAIStrategyXMLEntry@@V?$allocator@PAVCvEconomicAIStrategyXMLEntry@@@std@@@std@@XZ:PROC ; CvEconomicAIStrategyXMLEntries::GetEconomicAIStrategyEntries
; Function compile flags: /Ogtpy
;	COMDAT ?getEconomicAIStrategyInfo@CvGlobals@@QAEAAV?$vector@PAVCvEconomicAIStrategyXMLEntry@@V?$allocator@PAVCvEconomicAIStrategyXMLEntry@@@std@@@std@@XZ
_TEXT	SEGMENT
?getEconomicAIStrategyInfo@CvGlobals@@QAEAAV?$vector@PAVCvEconomicAIStrategyXMLEntry@@V?$allocator@PAVCvEconomicAIStrategyXMLEntry@@@std@@@std@@XZ PROC ; CvGlobals::getEconomicAIStrategyInfo, COMDAT
; _this$ = ecx

; 3880 : 	return m_pEconomicAIStrategies->GetEconomicAIStrategyEntries();

	mov	ecx, DWORD PTR [ecx+1668]
	jmp	?GetEconomicAIStrategyEntries@CvEconomicAIStrategyXMLEntries@@QAEAAV?$vector@PAVCvEconomicAIStrategyXMLEntry@@V?$allocator@PAVCvEconomicAIStrategyXMLEntry@@@std@@@std@@XZ ; CvEconomicAIStrategyXMLEntries::GetEconomicAIStrategyEntries
?getEconomicAIStrategyInfo@CvGlobals@@QAEAAV?$vector@PAVCvEconomicAIStrategyXMLEntry@@V?$allocator@PAVCvEconomicAIStrategyXMLEntry@@@std@@@std@@XZ ENDP ; CvGlobals::getEconomicAIStrategyInfo
_TEXT	ENDS
PUBLIC	?GetGameEconomicAIStrategies@CvGlobals@@QBEPAVCvEconomicAIStrategyXMLEntries@@XZ ; CvGlobals::GetGameEconomicAIStrategies
; Function compile flags: /Ogtpy
;	COMDAT ?GetGameEconomicAIStrategies@CvGlobals@@QBEPAVCvEconomicAIStrategyXMLEntries@@XZ
_TEXT	SEGMENT
?GetGameEconomicAIStrategies@CvGlobals@@QBEPAVCvEconomicAIStrategyXMLEntries@@XZ PROC ; CvGlobals::GetGameEconomicAIStrategies, COMDAT
; _this$ = ecx

; 3904 : 	return m_pEconomicAIStrategies;

	mov	eax, DWORD PTR [ecx+1668]

; 3905 : }

	ret	0
?GetGameEconomicAIStrategies@CvGlobals@@QBEPAVCvEconomicAIStrategyXMLEntries@@XZ ENDP ; CvGlobals::GetGameEconomicAIStrategies
_TEXT	ENDS
PUBLIC	?getCitySpecializationInfo@CvGlobals@@QAEAAV?$vector@PAVCvCitySpecializationXMLEntry@@V?$allocator@PAVCvCitySpecializationXMLEntry@@@std@@@std@@XZ ; CvGlobals::getCitySpecializationInfo
EXTRN	?GetCitySpecializationEntries@CvCitySpecializationXMLEntries@@QAEAAV?$vector@PAVCvCitySpecializationXMLEntry@@V?$allocator@PAVCvCitySpecializationXMLEntry@@@std@@@std@@XZ:PROC ; CvCitySpecializationXMLEntries::GetCitySpecializationEntries
; Function compile flags: /Ogtpy
;	COMDAT ?getCitySpecializationInfo@CvGlobals@@QAEAAV?$vector@PAVCvCitySpecializationXMLEntry@@V?$allocator@PAVCvCitySpecializationXMLEntry@@@std@@@std@@XZ
_TEXT	SEGMENT
?getCitySpecializationInfo@CvGlobals@@QAEAAV?$vector@PAVCvCitySpecializationXMLEntry@@V?$allocator@PAVCvCitySpecializationXMLEntry@@@std@@@std@@XZ PROC ; CvGlobals::getCitySpecializationInfo, COMDAT
; _this$ = ecx

; 3920 : 	return m_pCitySpecializations->GetCitySpecializationEntries();

	mov	ecx, DWORD PTR [ecx+1672]
	jmp	?GetCitySpecializationEntries@CvCitySpecializationXMLEntries@@QAEAAV?$vector@PAVCvCitySpecializationXMLEntry@@V?$allocator@PAVCvCitySpecializationXMLEntry@@@std@@@std@@XZ ; CvCitySpecializationXMLEntries::GetCitySpecializationEntries
?getCitySpecializationInfo@CvGlobals@@QAEAAV?$vector@PAVCvCitySpecializationXMLEntry@@V?$allocator@PAVCvCitySpecializationXMLEntry@@@std@@@std@@XZ ENDP ; CvGlobals::getCitySpecializationInfo
_TEXT	ENDS
PUBLIC	?GetGameCitySpecializations@CvGlobals@@QBEPAVCvCitySpecializationXMLEntries@@XZ ; CvGlobals::GetGameCitySpecializations
; Function compile flags: /Ogtpy
;	COMDAT ?GetGameCitySpecializations@CvGlobals@@QBEPAVCvCitySpecializationXMLEntries@@XZ
_TEXT	SEGMENT
?GetGameCitySpecializations@CvGlobals@@QBEPAVCvCitySpecializationXMLEntries@@XZ PROC ; CvGlobals::GetGameCitySpecializations, COMDAT
; _this$ = ecx

; 3944 : 	return m_pCitySpecializations;

	mov	eax, DWORD PTR [ecx+1672]

; 3945 : }

	ret	0
?GetGameCitySpecializations@CvGlobals@@QBEPAVCvCitySpecializationXMLEntries@@XZ ENDP ; CvGlobals::GetGameCitySpecializations
_TEXT	ENDS
PUBLIC	?getTacticalMoveInfo@CvGlobals@@QAEAAV?$vector@PAVCvTacticalMoveXMLEntry@@V?$allocator@PAVCvTacticalMoveXMLEntry@@@std@@@std@@XZ ; CvGlobals::getTacticalMoveInfo
EXTRN	?GetTacticalMoveEntries@CvTacticalMoveXMLEntries@@QAEAAV?$vector@PAVCvTacticalMoveXMLEntry@@V?$allocator@PAVCvTacticalMoveXMLEntry@@@std@@@std@@XZ:PROC ; CvTacticalMoveXMLEntries::GetTacticalMoveEntries
; Function compile flags: /Ogtpy
;	COMDAT ?getTacticalMoveInfo@CvGlobals@@QAEAAV?$vector@PAVCvTacticalMoveXMLEntry@@V?$allocator@PAVCvTacticalMoveXMLEntry@@@std@@@std@@XZ
_TEXT	SEGMENT
?getTacticalMoveInfo@CvGlobals@@QAEAAV?$vector@PAVCvTacticalMoveXMLEntry@@V?$allocator@PAVCvTacticalMoveXMLEntry@@@std@@@std@@XZ PROC ; CvGlobals::getTacticalMoveInfo, COMDAT
; _this$ = ecx

; 3960 : 	return m_pTacticalMoves->GetTacticalMoveEntries();

	mov	ecx, DWORD PTR [ecx+1676]
	jmp	?GetTacticalMoveEntries@CvTacticalMoveXMLEntries@@QAEAAV?$vector@PAVCvTacticalMoveXMLEntry@@V?$allocator@PAVCvTacticalMoveXMLEntry@@@std@@@std@@XZ ; CvTacticalMoveXMLEntries::GetTacticalMoveEntries
?getTacticalMoveInfo@CvGlobals@@QAEAAV?$vector@PAVCvTacticalMoveXMLEntry@@V?$allocator@PAVCvTacticalMoveXMLEntry@@@std@@@std@@XZ ENDP ; CvGlobals::getTacticalMoveInfo
_TEXT	ENDS
PUBLIC	?GetGameTacticalMoves@CvGlobals@@QBEPAVCvTacticalMoveXMLEntries@@XZ ; CvGlobals::GetGameTacticalMoves
; Function compile flags: /Ogtpy
;	COMDAT ?GetGameTacticalMoves@CvGlobals@@QBEPAVCvTacticalMoveXMLEntries@@XZ
_TEXT	SEGMENT
?GetGameTacticalMoves@CvGlobals@@QBEPAVCvTacticalMoveXMLEntries@@XZ PROC ; CvGlobals::GetGameTacticalMoves, COMDAT
; _this$ = ecx

; 3984 : 	return m_pTacticalMoves;

	mov	eax, DWORD PTR [ecx+1676]

; 3985 : }

	ret	0
?GetGameTacticalMoves@CvGlobals@@QBEPAVCvTacticalMoveXMLEntries@@XZ ENDP ; CvGlobals::GetGameTacticalMoves
_TEXT	ENDS
PUBLIC	?getMilitaryAIStrategyInfo@CvGlobals@@QAEAAV?$vector@PAVCvMilitaryAIStrategyXMLEntry@@V?$allocator@PAVCvMilitaryAIStrategyXMLEntry@@@std@@@std@@XZ ; CvGlobals::getMilitaryAIStrategyInfo
EXTRN	?GetMilitaryAIStrategyEntries@CvMilitaryAIStrategyXMLEntries@@QAEAAV?$vector@PAVCvMilitaryAIStrategyXMLEntry@@V?$allocator@PAVCvMilitaryAIStrategyXMLEntry@@@std@@@std@@XZ:PROC ; CvMilitaryAIStrategyXMLEntries::GetMilitaryAIStrategyEntries
; Function compile flags: /Ogtpy
;	COMDAT ?getMilitaryAIStrategyInfo@CvGlobals@@QAEAAV?$vector@PAVCvMilitaryAIStrategyXMLEntry@@V?$allocator@PAVCvMilitaryAIStrategyXMLEntry@@@std@@@std@@XZ
_TEXT	SEGMENT
?getMilitaryAIStrategyInfo@CvGlobals@@QAEAAV?$vector@PAVCvMilitaryAIStrategyXMLEntry@@V?$allocator@PAVCvMilitaryAIStrategyXMLEntry@@@std@@@std@@XZ PROC ; CvGlobals::getMilitaryAIStrategyInfo, COMDAT
; _this$ = ecx

; 4000 : 	return m_pMilitaryAIStrategies->GetMilitaryAIStrategyEntries();

	mov	ecx, DWORD PTR [ecx+1680]
	jmp	?GetMilitaryAIStrategyEntries@CvMilitaryAIStrategyXMLEntries@@QAEAAV?$vector@PAVCvMilitaryAIStrategyXMLEntry@@V?$allocator@PAVCvMilitaryAIStrategyXMLEntry@@@std@@@std@@XZ ; CvMilitaryAIStrategyXMLEntries::GetMilitaryAIStrategyEntries
?getMilitaryAIStrategyInfo@CvGlobals@@QAEAAV?$vector@PAVCvMilitaryAIStrategyXMLEntry@@V?$allocator@PAVCvMilitaryAIStrategyXMLEntry@@@std@@@std@@XZ ENDP ; CvGlobals::getMilitaryAIStrategyInfo
_TEXT	ENDS
PUBLIC	?GetGameMilitaryAIStrategies@CvGlobals@@QBEPAVCvMilitaryAIStrategyXMLEntries@@XZ ; CvGlobals::GetGameMilitaryAIStrategies
; Function compile flags: /Ogtpy
;	COMDAT ?GetGameMilitaryAIStrategies@CvGlobals@@QBEPAVCvMilitaryAIStrategyXMLEntries@@XZ
_TEXT	SEGMENT
?GetGameMilitaryAIStrategies@CvGlobals@@QBEPAVCvMilitaryAIStrategyXMLEntries@@XZ PROC ; CvGlobals::GetGameMilitaryAIStrategies, COMDAT
; _this$ = ecx

; 4022 : 	return m_pMilitaryAIStrategies;

	mov	eax, DWORD PTR [ecx+1680]

; 4023 : }

	ret	0
?GetGameMilitaryAIStrategies@CvGlobals@@QBEPAVCvMilitaryAIStrategyXMLEntries@@XZ ENDP ; CvGlobals::GetGameMilitaryAIStrategies
_TEXT	ENDS
PUBLIC	?getAIGrandStrategyInfo@CvGlobals@@QAEAAV?$vector@PAVCvAIGrandStrategyXMLEntry@@V?$allocator@PAVCvAIGrandStrategyXMLEntry@@@std@@@std@@XZ ; CvGlobals::getAIGrandStrategyInfo
EXTRN	?GetAIGrandStrategyEntries@CvAIGrandStrategyXMLEntries@@QAEAAV?$vector@PAVCvAIGrandStrategyXMLEntry@@V?$allocator@PAVCvAIGrandStrategyXMLEntry@@@std@@@std@@XZ:PROC ; CvAIGrandStrategyXMLEntries::GetAIGrandStrategyEntries
; Function compile flags: /Ogtpy
;	COMDAT ?getAIGrandStrategyInfo@CvGlobals@@QAEAAV?$vector@PAVCvAIGrandStrategyXMLEntry@@V?$allocator@PAVCvAIGrandStrategyXMLEntry@@@std@@@std@@XZ
_TEXT	SEGMENT
?getAIGrandStrategyInfo@CvGlobals@@QAEAAV?$vector@PAVCvAIGrandStrategyXMLEntry@@V?$allocator@PAVCvAIGrandStrategyXMLEntry@@@std@@@std@@XZ PROC ; CvGlobals::getAIGrandStrategyInfo, COMDAT
; _this$ = ecx

; 4038 : 	return m_pAIGrandStrategies->GetAIGrandStrategyEntries();

	mov	ecx, DWORD PTR [ecx+1684]
	jmp	?GetAIGrandStrategyEntries@CvAIGrandStrategyXMLEntries@@QAEAAV?$vector@PAVCvAIGrandStrategyXMLEntry@@V?$allocator@PAVCvAIGrandStrategyXMLEntry@@@std@@@std@@XZ ; CvAIGrandStrategyXMLEntries::GetAIGrandStrategyEntries
?getAIGrandStrategyInfo@CvGlobals@@QAEAAV?$vector@PAVCvAIGrandStrategyXMLEntry@@V?$allocator@PAVCvAIGrandStrategyXMLEntry@@@std@@@std@@XZ ENDP ; CvGlobals::getAIGrandStrategyInfo
_TEXT	ENDS
PUBLIC	?GetGameAIGrandStrategies@CvGlobals@@QBEPAVCvAIGrandStrategyXMLEntries@@XZ ; CvGlobals::GetGameAIGrandStrategies
; Function compile flags: /Ogtpy
;	COMDAT ?GetGameAIGrandStrategies@CvGlobals@@QBEPAVCvAIGrandStrategyXMLEntries@@XZ
_TEXT	SEGMENT
?GetGameAIGrandStrategies@CvGlobals@@QBEPAVCvAIGrandStrategyXMLEntries@@XZ PROC ; CvGlobals::GetGameAIGrandStrategies, COMDAT
; _this$ = ecx

; 4061 : 	return m_pAIGrandStrategies;

	mov	eax, DWORD PTR [ecx+1684]

; 4062 : }

	ret	0
?GetGameAIGrandStrategies@CvGlobals@@QBEPAVCvAIGrandStrategyXMLEntries@@XZ ENDP ; CvGlobals::GetGameAIGrandStrategies
_TEXT	ENDS
PUBLIC	?getAICityStrategyInfo@CvGlobals@@QAEAAV?$vector@PAVCvAICityStrategyEntry@@V?$allocator@PAVCvAICityStrategyEntry@@@std@@@std@@XZ ; CvGlobals::getAICityStrategyInfo
EXTRN	?GetAICityStrategyEntries@CvAICityStrategies@@QAEAAV?$vector@PAVCvAICityStrategyEntry@@V?$allocator@PAVCvAICityStrategyEntry@@@std@@@std@@XZ:PROC ; CvAICityStrategies::GetAICityStrategyEntries
; Function compile flags: /Ogtpy
;	COMDAT ?getAICityStrategyInfo@CvGlobals@@QAEAAV?$vector@PAVCvAICityStrategyEntry@@V?$allocator@PAVCvAICityStrategyEntry@@@std@@@std@@XZ
_TEXT	SEGMENT
?getAICityStrategyInfo@CvGlobals@@QAEAAV?$vector@PAVCvAICityStrategyEntry@@V?$allocator@PAVCvAICityStrategyEntry@@@std@@@std@@XZ PROC ; CvGlobals::getAICityStrategyInfo, COMDAT
; _this$ = ecx

; 4077 : 	return m_pAICityStrategies->GetAICityStrategyEntries();

	mov	ecx, DWORD PTR [ecx+1688]
	jmp	?GetAICityStrategyEntries@CvAICityStrategies@@QAEAAV?$vector@PAVCvAICityStrategyEntry@@V?$allocator@PAVCvAICityStrategyEntry@@@std@@@std@@XZ ; CvAICityStrategies::GetAICityStrategyEntries
?getAICityStrategyInfo@CvGlobals@@QAEAAV?$vector@PAVCvAICityStrategyEntry@@V?$allocator@PAVCvAICityStrategyEntry@@@std@@@std@@XZ ENDP ; CvGlobals::getAICityStrategyInfo
_TEXT	ENDS
PUBLIC	?GetGameAICityStrategies@CvGlobals@@QBEPAVCvAICityStrategies@@XZ ; CvGlobals::GetGameAICityStrategies
; Function compile flags: /Ogtpy
;	COMDAT ?GetGameAICityStrategies@CvGlobals@@QBEPAVCvAICityStrategies@@XZ
_TEXT	SEGMENT
?GetGameAICityStrategies@CvGlobals@@QBEPAVCvAICityStrategies@@XZ PROC ; CvGlobals::GetGameAICityStrategies, COMDAT
; _this$ = ecx

; 4100 : 	return m_pAICityStrategies;

	mov	eax, DWORD PTR [ecx+1688]

; 4101 : }

	ret	0
?GetGameAICityStrategies@CvGlobals@@QBEPAVCvAICityStrategies@@XZ ENDP ; CvGlobals::GetGameAICityStrategies
_TEXT	ENDS
PUBLIC	?getPolicyInfo@CvGlobals@@QAEAAV?$vector@PAVCvPolicyEntry@@V?$allocator@PAVCvPolicyEntry@@@std@@@std@@XZ ; CvGlobals::getPolicyInfo
EXTRN	?GetPolicyEntries@CvPolicyXMLEntries@@QAEAAV?$vector@PAVCvPolicyEntry@@V?$allocator@PAVCvPolicyEntry@@@std@@@std@@XZ:PROC ; CvPolicyXMLEntries::GetPolicyEntries
; Function compile flags: /Ogtpy
;	COMDAT ?getPolicyInfo@CvGlobals@@QAEAAV?$vector@PAVCvPolicyEntry@@V?$allocator@PAVCvPolicyEntry@@@std@@@std@@XZ
_TEXT	SEGMENT
?getPolicyInfo@CvGlobals@@QAEAAV?$vector@PAVCvPolicyEntry@@V?$allocator@PAVCvPolicyEntry@@@std@@@std@@XZ PROC ; CvGlobals::getPolicyInfo, COMDAT
; _this$ = ecx

; 4116 : 	return m_pPolicies->GetPolicyEntries();

	mov	ecx, DWORD PTR [ecx+1692]
	jmp	?GetPolicyEntries@CvPolicyXMLEntries@@QAEAAV?$vector@PAVCvPolicyEntry@@V?$allocator@PAVCvPolicyEntry@@@std@@@std@@XZ ; CvPolicyXMLEntries::GetPolicyEntries
?getPolicyInfo@CvGlobals@@QAEAAV?$vector@PAVCvPolicyEntry@@V?$allocator@PAVCvPolicyEntry@@@std@@@std@@XZ ENDP ; CvGlobals::getPolicyInfo
_TEXT	ENDS
PUBLIC	?GetGamePolicies@CvGlobals@@QBEPAVCvPolicyXMLEntries@@XZ ; CvGlobals::GetGamePolicies
; Function compile flags: /Ogtpy
;	COMDAT ?GetGamePolicies@CvGlobals@@QBEPAVCvPolicyXMLEntries@@XZ
_TEXT	SEGMENT
?GetGamePolicies@CvGlobals@@QBEPAVCvPolicyXMLEntries@@XZ PROC ; CvGlobals::GetGamePolicies, COMDAT
; _this$ = ecx

; 4139 : 	return m_pPolicies;

	mov	eax, DWORD PTR [ecx+1692]

; 4140 : }

	ret	0
?GetGamePolicies@CvGlobals@@QBEPAVCvPolicyXMLEntries@@XZ ENDP ; CvGlobals::GetGamePolicies
_TEXT	ENDS
PUBLIC	?getPolicyBranchInfo@CvGlobals@@QAEAAV?$vector@PAVCvPolicyBranchEntry@@V?$allocator@PAVCvPolicyBranchEntry@@@std@@@std@@XZ ; CvGlobals::getPolicyBranchInfo
EXTRN	?GetPolicyBranchEntries@CvPolicyXMLEntries@@QAEAAV?$vector@PAVCvPolicyBranchEntry@@V?$allocator@PAVCvPolicyBranchEntry@@@std@@@std@@XZ:PROC ; CvPolicyXMLEntries::GetPolicyBranchEntries
; Function compile flags: /Ogtpy
;	COMDAT ?getPolicyBranchInfo@CvGlobals@@QAEAAV?$vector@PAVCvPolicyBranchEntry@@V?$allocator@PAVCvPolicyBranchEntry@@@std@@@std@@XZ
_TEXT	SEGMENT
?getPolicyBranchInfo@CvGlobals@@QAEAAV?$vector@PAVCvPolicyBranchEntry@@V?$allocator@PAVCvPolicyBranchEntry@@@std@@@std@@XZ PROC ; CvGlobals::getPolicyBranchInfo, COMDAT
; _this$ = ecx

; 4155 : 	return m_pPolicies->GetPolicyBranchEntries();

	mov	ecx, DWORD PTR [ecx+1692]
	jmp	?GetPolicyBranchEntries@CvPolicyXMLEntries@@QAEAAV?$vector@PAVCvPolicyBranchEntry@@V?$allocator@PAVCvPolicyBranchEntry@@@std@@@std@@XZ ; CvPolicyXMLEntries::GetPolicyBranchEntries
?getPolicyBranchInfo@CvGlobals@@QAEAAV?$vector@PAVCvPolicyBranchEntry@@V?$allocator@PAVCvPolicyBranchEntry@@@std@@@std@@XZ ENDP ; CvGlobals::getPolicyBranchInfo
_TEXT	ENDS
PUBLIC	?getEmphasisInfo@CvGlobals@@QAEAAV?$vector@PAVCvEmphasisEntry@@V?$allocator@PAVCvEmphasisEntry@@@std@@@std@@XZ ; CvGlobals::getEmphasisInfo
EXTRN	?GetEmphasisEntries@CvEmphasisXMLEntries@@QAEAAV?$vector@PAVCvEmphasisEntry@@V?$allocator@PAVCvEmphasisEntry@@@std@@@std@@XZ:PROC ; CvEmphasisXMLEntries::GetEmphasisEntries
; Function compile flags: /Ogtpy
;	COMDAT ?getEmphasisInfo@CvGlobals@@QAEAAV?$vector@PAVCvEmphasisEntry@@V?$allocator@PAVCvEmphasisEntry@@@std@@@std@@XZ
_TEXT	SEGMENT
?getEmphasisInfo@CvGlobals@@QAEAAV?$vector@PAVCvEmphasisEntry@@V?$allocator@PAVCvEmphasisEntry@@@std@@@std@@XZ PROC ; CvGlobals::getEmphasisInfo, COMDAT
; _this$ = ecx

; 4189 : 	return m_pEmphases->GetEmphasisEntries();

	mov	ecx, DWORD PTR [ecx+1720]
	jmp	?GetEmphasisEntries@CvEmphasisXMLEntries@@QAEAAV?$vector@PAVCvEmphasisEntry@@V?$allocator@PAVCvEmphasisEntry@@@std@@@std@@XZ ; CvEmphasisXMLEntries::GetEmphasisEntries
?getEmphasisInfo@CvGlobals@@QAEAAV?$vector@PAVCvEmphasisEntry@@V?$allocator@PAVCvEmphasisEntry@@@std@@@std@@XZ ENDP ; CvGlobals::getEmphasisInfo
_TEXT	ENDS
PUBLIC	?GetGameEmphases@CvGlobals@@QBEPAVCvEmphasisXMLEntries@@XZ ; CvGlobals::GetGameEmphases
; Function compile flags: /Ogtpy
;	COMDAT ?GetGameEmphases@CvGlobals@@QBEPAVCvEmphasisXMLEntries@@XZ
_TEXT	SEGMENT
?GetGameEmphases@CvGlobals@@QBEPAVCvEmphasisXMLEntries@@XZ PROC ; CvGlobals::GetGameEmphases, COMDAT
; _this$ = ecx

; 4212 : 	return m_pEmphases;

	mov	eax, DWORD PTR [ecx+1720]

; 4213 : }

	ret	0
?GetGameEmphases@CvGlobals@@QBEPAVCvEmphasisXMLEntries@@XZ ENDP ; CvGlobals::GetGameEmphases
_TEXT	ENDS
PUBLIC	?getTraitInfo@CvGlobals@@QAEAAV?$vector@PAVCvTraitEntry@@V?$allocator@PAVCvTraitEntry@@@std@@@std@@XZ ; CvGlobals::getTraitInfo
EXTRN	?GetTraitEntries@CvTraitXMLEntries@@QAEAAV?$vector@PAVCvTraitEntry@@V?$allocator@PAVCvTraitEntry@@@std@@@std@@XZ:PROC ; CvTraitXMLEntries::GetTraitEntries
; Function compile flags: /Ogtpy
;	COMDAT ?getTraitInfo@CvGlobals@@QAEAAV?$vector@PAVCvTraitEntry@@V?$allocator@PAVCvTraitEntry@@@std@@@std@@XZ
_TEXT	SEGMENT
?getTraitInfo@CvGlobals@@QAEAAV?$vector@PAVCvTraitEntry@@V?$allocator@PAVCvTraitEntry@@@std@@@std@@XZ PROC ; CvGlobals::getTraitInfo, COMDAT
; _this$ = ecx

; 4228 : 	return m_pTraits->GetTraitEntries();

	mov	ecx, DWORD PTR [ecx+1724]
	jmp	?GetTraitEntries@CvTraitXMLEntries@@QAEAAV?$vector@PAVCvTraitEntry@@V?$allocator@PAVCvTraitEntry@@@std@@@std@@XZ ; CvTraitXMLEntries::GetTraitEntries
?getTraitInfo@CvGlobals@@QAEAAV?$vector@PAVCvTraitEntry@@V?$allocator@PAVCvTraitEntry@@@std@@@std@@XZ ENDP ; CvGlobals::getTraitInfo
_TEXT	ENDS
PUBLIC	?GetGameTraits@CvGlobals@@QBEPAVCvTraitXMLEntries@@XZ ; CvGlobals::GetGameTraits
; Function compile flags: /Ogtpy
;	COMDAT ?GetGameTraits@CvGlobals@@QBEPAVCvTraitXMLEntries@@XZ
_TEXT	SEGMENT
?GetGameTraits@CvGlobals@@QBEPAVCvTraitXMLEntries@@XZ PROC ; CvGlobals::GetGameTraits, COMDAT
; _this$ = ecx

; 4251 : 	return m_pTraits;

	mov	eax, DWORD PTR [ecx+1724]

; 4252 : }

	ret	0
?GetGameTraits@CvGlobals@@QBEPAVCvTraitXMLEntries@@XZ ENDP ; CvGlobals::GetGameTraits
_TEXT	ENDS
PUBLIC	?getReligionInfo@CvGlobals@@QAEAAV?$vector@PAVCvReligionEntry@@V?$allocator@PAVCvReligionEntry@@@std@@@std@@XZ ; CvGlobals::getReligionInfo
EXTRN	?GetReligionEntries@CvReligionXMLEntries@@QAEAAV?$vector@PAVCvReligionEntry@@V?$allocator@PAVCvReligionEntry@@@std@@@std@@XZ:PROC ; CvReligionXMLEntries::GetReligionEntries
; Function compile flags: /Ogtpy
;	COMDAT ?getReligionInfo@CvGlobals@@QAEAAV?$vector@PAVCvReligionEntry@@V?$allocator@PAVCvReligionEntry@@@std@@@std@@XZ
_TEXT	SEGMENT
?getReligionInfo@CvGlobals@@QAEAAV?$vector@PAVCvReligionEntry@@V?$allocator@PAVCvReligionEntry@@@std@@@std@@XZ PROC ; CvGlobals::getReligionInfo, COMDAT
; _this$ = ecx

; 4267 : 	return m_pReligions->GetReligionEntries();

	mov	ecx, DWORD PTR [ecx+1728]
	jmp	?GetReligionEntries@CvReligionXMLEntries@@QAEAAV?$vector@PAVCvReligionEntry@@V?$allocator@PAVCvReligionEntry@@@std@@@std@@XZ ; CvReligionXMLEntries::GetReligionEntries
?getReligionInfo@CvGlobals@@QAEAAV?$vector@PAVCvReligionEntry@@V?$allocator@PAVCvReligionEntry@@@std@@@std@@XZ ENDP ; CvGlobals::getReligionInfo
_TEXT	ENDS
PUBLIC	?GetGameReligions@CvGlobals@@QBEPAVCvReligionXMLEntries@@XZ ; CvGlobals::GetGameReligions
; Function compile flags: /Ogtpy
;	COMDAT ?GetGameReligions@CvGlobals@@QBEPAVCvReligionXMLEntries@@XZ
_TEXT	SEGMENT
?GetGameReligions@CvGlobals@@QBEPAVCvReligionXMLEntries@@XZ PROC ; CvGlobals::GetGameReligions, COMDAT
; _this$ = ecx

; 4290 : 	return m_pReligions;

	mov	eax, DWORD PTR [ecx+1728]

; 4291 : }

	ret	0
?GetGameReligions@CvGlobals@@QBEPAVCvReligionXMLEntries@@XZ ENDP ; CvGlobals::GetGameReligions
_TEXT	ENDS
PUBLIC	?getBeliefInfo@CvGlobals@@QAEAAV?$vector@PAVCvBeliefEntry@@V?$allocator@PAVCvBeliefEntry@@@std@@@std@@XZ ; CvGlobals::getBeliefInfo
EXTRN	?GetBeliefEntries@CvBeliefXMLEntries@@QAEAAV?$vector@PAVCvBeliefEntry@@V?$allocator@PAVCvBeliefEntry@@@std@@@std@@XZ:PROC ; CvBeliefXMLEntries::GetBeliefEntries
; Function compile flags: /Ogtpy
;	COMDAT ?getBeliefInfo@CvGlobals@@QAEAAV?$vector@PAVCvBeliefEntry@@V?$allocator@PAVCvBeliefEntry@@@std@@@std@@XZ
_TEXT	SEGMENT
?getBeliefInfo@CvGlobals@@QAEAAV?$vector@PAVCvBeliefEntry@@V?$allocator@PAVCvBeliefEntry@@@std@@@std@@XZ PROC ; CvGlobals::getBeliefInfo, COMDAT
; _this$ = ecx

; 4306 : 	return m_pBeliefs->GetBeliefEntries();

	mov	ecx, DWORD PTR [ecx+1732]
	jmp	?GetBeliefEntries@CvBeliefXMLEntries@@QAEAAV?$vector@PAVCvBeliefEntry@@V?$allocator@PAVCvBeliefEntry@@@std@@@std@@XZ ; CvBeliefXMLEntries::GetBeliefEntries
?getBeliefInfo@CvGlobals@@QAEAAV?$vector@PAVCvBeliefEntry@@V?$allocator@PAVCvBeliefEntry@@@std@@@std@@XZ ENDP ; CvGlobals::getBeliefInfo
_TEXT	ENDS
PUBLIC	?GetGameBeliefs@CvGlobals@@QBEPAVCvBeliefXMLEntries@@XZ ; CvGlobals::GetGameBeliefs
; Function compile flags: /Ogtpy
;	COMDAT ?GetGameBeliefs@CvGlobals@@QBEPAVCvBeliefXMLEntries@@XZ
_TEXT	SEGMENT
?GetGameBeliefs@CvGlobals@@QBEPAVCvBeliefXMLEntries@@XZ PROC ; CvGlobals::GetGameBeliefs, COMDAT
; _this$ = ecx

; 4329 : 	return m_pBeliefs;

	mov	eax, DWORD PTR [ecx+1732]

; 4330 : }

	ret	0
?GetGameBeliefs@CvGlobals@@QBEPAVCvBeliefXMLEntries@@XZ ENDP ; CvGlobals::GetGameBeliefs
_TEXT	ENDS
PUBLIC	?getLeagueSpecialSessionInfo@CvGlobals@@QAEAAV?$vector@PAVCvLeagueSpecialSessionEntry@@V?$allocator@PAVCvLeagueSpecialSessionEntry@@@std@@@std@@XZ ; CvGlobals::getLeagueSpecialSessionInfo
EXTRN	?GetLeagueSpecialSessionEntries@CvLeagueSpecialSessionXMLEntries@@QAEAAV?$vector@PAVCvLeagueSpecialSessionEntry@@V?$allocator@PAVCvLeagueSpecialSessionEntry@@@std@@@std@@XZ:PROC ; CvLeagueSpecialSessionXMLEntries::GetLeagueSpecialSessionEntries
; Function compile flags: /Ogtpy
;	COMDAT ?getLeagueSpecialSessionInfo@CvGlobals@@QAEAAV?$vector@PAVCvLeagueSpecialSessionEntry@@V?$allocator@PAVCvLeagueSpecialSessionEntry@@@std@@@std@@XZ
_TEXT	SEGMENT
?getLeagueSpecialSessionInfo@CvGlobals@@QAEAAV?$vector@PAVCvLeagueSpecialSessionEntry@@V?$allocator@PAVCvLeagueSpecialSessionEntry@@@std@@@std@@XZ PROC ; CvGlobals::getLeagueSpecialSessionInfo, COMDAT
; _this$ = ecx

; 4345 : 	return m_pLeagueSpecialSessions->GetLeagueSpecialSessionEntries();

	mov	ecx, DWORD PTR [ecx+1736]
	jmp	?GetLeagueSpecialSessionEntries@CvLeagueSpecialSessionXMLEntries@@QAEAAV?$vector@PAVCvLeagueSpecialSessionEntry@@V?$allocator@PAVCvLeagueSpecialSessionEntry@@@std@@@std@@XZ ; CvLeagueSpecialSessionXMLEntries::GetLeagueSpecialSessionEntries
?getLeagueSpecialSessionInfo@CvGlobals@@QAEAAV?$vector@PAVCvLeagueSpecialSessionEntry@@V?$allocator@PAVCvLeagueSpecialSessionEntry@@@std@@@std@@XZ ENDP ; CvGlobals::getLeagueSpecialSessionInfo
_TEXT	ENDS
PUBLIC	?GetGameLeagueSpecialSessions@CvGlobals@@QBEPAVCvLeagueSpecialSessionXMLEntries@@XZ ; CvGlobals::GetGameLeagueSpecialSessions
; Function compile flags: /Ogtpy
;	COMDAT ?GetGameLeagueSpecialSessions@CvGlobals@@QBEPAVCvLeagueSpecialSessionXMLEntries@@XZ
_TEXT	SEGMENT
?GetGameLeagueSpecialSessions@CvGlobals@@QBEPAVCvLeagueSpecialSessionXMLEntries@@XZ PROC ; CvGlobals::GetGameLeagueSpecialSessions, COMDAT
; _this$ = ecx

; 4366 : 	return m_pLeagueSpecialSessions;

	mov	eax, DWORD PTR [ecx+1736]

; 4367 : }

	ret	0
?GetGameLeagueSpecialSessions@CvGlobals@@QBEPAVCvLeagueSpecialSessionXMLEntries@@XZ ENDP ; CvGlobals::GetGameLeagueSpecialSessions
_TEXT	ENDS
PUBLIC	?getLeagueNameInfo@CvGlobals@@QAEAAV?$vector@PAVCvLeagueNameEntry@@V?$allocator@PAVCvLeagueNameEntry@@@std@@@std@@XZ ; CvGlobals::getLeagueNameInfo
EXTRN	?GetLeagueNameEntries@CvLeagueNameXMLEntries@@QAEAAV?$vector@PAVCvLeagueNameEntry@@V?$allocator@PAVCvLeagueNameEntry@@@std@@@std@@XZ:PROC ; CvLeagueNameXMLEntries::GetLeagueNameEntries
; Function compile flags: /Ogtpy
;	COMDAT ?getLeagueNameInfo@CvGlobals@@QAEAAV?$vector@PAVCvLeagueNameEntry@@V?$allocator@PAVCvLeagueNameEntry@@@std@@@std@@XZ
_TEXT	SEGMENT
?getLeagueNameInfo@CvGlobals@@QAEAAV?$vector@PAVCvLeagueNameEntry@@V?$allocator@PAVCvLeagueNameEntry@@@std@@@std@@XZ PROC ; CvGlobals::getLeagueNameInfo, COMDAT
; _this$ = ecx

; 4382 : 	return m_pLeagueNames->GetLeagueNameEntries();

	mov	ecx, DWORD PTR [ecx+1740]
	jmp	?GetLeagueNameEntries@CvLeagueNameXMLEntries@@QAEAAV?$vector@PAVCvLeagueNameEntry@@V?$allocator@PAVCvLeagueNameEntry@@@std@@@std@@XZ ; CvLeagueNameXMLEntries::GetLeagueNameEntries
?getLeagueNameInfo@CvGlobals@@QAEAAV?$vector@PAVCvLeagueNameEntry@@V?$allocator@PAVCvLeagueNameEntry@@@std@@@std@@XZ ENDP ; CvGlobals::getLeagueNameInfo
_TEXT	ENDS
PUBLIC	?GetGameLeagueNames@CvGlobals@@QBEPAVCvLeagueNameXMLEntries@@XZ ; CvGlobals::GetGameLeagueNames
; Function compile flags: /Ogtpy
;	COMDAT ?GetGameLeagueNames@CvGlobals@@QBEPAVCvLeagueNameXMLEntries@@XZ
_TEXT	SEGMENT
?GetGameLeagueNames@CvGlobals@@QBEPAVCvLeagueNameXMLEntries@@XZ PROC ; CvGlobals::GetGameLeagueNames, COMDAT
; _this$ = ecx

; 4405 : 	return m_pLeagueNames;

	mov	eax, DWORD PTR [ecx+1740]

; 4406 : }

	ret	0
?GetGameLeagueNames@CvGlobals@@QBEPAVCvLeagueNameXMLEntries@@XZ ENDP ; CvGlobals::GetGameLeagueNames
_TEXT	ENDS
PUBLIC	?getLeagueProjectInfo@CvGlobals@@QAEAAV?$vector@PAVCvLeagueProjectEntry@@V?$allocator@PAVCvLeagueProjectEntry@@@std@@@std@@XZ ; CvGlobals::getLeagueProjectInfo
EXTRN	?GetLeagueProjectEntries@CvLeagueProjectXMLEntries@@QAEAAV?$vector@PAVCvLeagueProjectEntry@@V?$allocator@PAVCvLeagueProjectEntry@@@std@@@std@@XZ:PROC ; CvLeagueProjectXMLEntries::GetLeagueProjectEntries
; Function compile flags: /Ogtpy
;	COMDAT ?getLeagueProjectInfo@CvGlobals@@QAEAAV?$vector@PAVCvLeagueProjectEntry@@V?$allocator@PAVCvLeagueProjectEntry@@@std@@@std@@XZ
_TEXT	SEGMENT
?getLeagueProjectInfo@CvGlobals@@QAEAAV?$vector@PAVCvLeagueProjectEntry@@V?$allocator@PAVCvLeagueProjectEntry@@@std@@@std@@XZ PROC ; CvGlobals::getLeagueProjectInfo, COMDAT
; _this$ = ecx

; 4421 : 	return m_pLeagueProjects->GetLeagueProjectEntries();

	mov	ecx, DWORD PTR [ecx+1744]
	jmp	?GetLeagueProjectEntries@CvLeagueProjectXMLEntries@@QAEAAV?$vector@PAVCvLeagueProjectEntry@@V?$allocator@PAVCvLeagueProjectEntry@@@std@@@std@@XZ ; CvLeagueProjectXMLEntries::GetLeagueProjectEntries
?getLeagueProjectInfo@CvGlobals@@QAEAAV?$vector@PAVCvLeagueProjectEntry@@V?$allocator@PAVCvLeagueProjectEntry@@@std@@@std@@XZ ENDP ; CvGlobals::getLeagueProjectInfo
_TEXT	ENDS
PUBLIC	?GetGameLeagueProjects@CvGlobals@@QBEPAVCvLeagueProjectXMLEntries@@XZ ; CvGlobals::GetGameLeagueProjects
; Function compile flags: /Ogtpy
;	COMDAT ?GetGameLeagueProjects@CvGlobals@@QBEPAVCvLeagueProjectXMLEntries@@XZ
_TEXT	SEGMENT
?GetGameLeagueProjects@CvGlobals@@QBEPAVCvLeagueProjectXMLEntries@@XZ PROC ; CvGlobals::GetGameLeagueProjects, COMDAT
; _this$ = ecx

; 4444 : 	return m_pLeagueProjects;

	mov	eax, DWORD PTR [ecx+1744]

; 4445 : }

	ret	0
?GetGameLeagueProjects@CvGlobals@@QBEPAVCvLeagueProjectXMLEntries@@XZ ENDP ; CvGlobals::GetGameLeagueProjects
_TEXT	ENDS
PUBLIC	?getLeagueProjectRewardInfo@CvGlobals@@QAEAAV?$vector@PAVCvLeagueProjectRewardEntry@@V?$allocator@PAVCvLeagueProjectRewardEntry@@@std@@@std@@XZ ; CvGlobals::getLeagueProjectRewardInfo
EXTRN	?GetLeagueProjectRewardEntries@CvLeagueProjectRewardXMLEntries@@QAEAAV?$vector@PAVCvLeagueProjectRewardEntry@@V?$allocator@PAVCvLeagueProjectRewardEntry@@@std@@@std@@XZ:PROC ; CvLeagueProjectRewardXMLEntries::GetLeagueProjectRewardEntries
; Function compile flags: /Ogtpy
;	COMDAT ?getLeagueProjectRewardInfo@CvGlobals@@QAEAAV?$vector@PAVCvLeagueProjectRewardEntry@@V?$allocator@PAVCvLeagueProjectRewardEntry@@@std@@@std@@XZ
_TEXT	SEGMENT
?getLeagueProjectRewardInfo@CvGlobals@@QAEAAV?$vector@PAVCvLeagueProjectRewardEntry@@V?$allocator@PAVCvLeagueProjectRewardEntry@@@std@@@std@@XZ PROC ; CvGlobals::getLeagueProjectRewardInfo, COMDAT
; _this$ = ecx

; 4460 : 	return m_pLeagueProjectRewards->GetLeagueProjectRewardEntries();

	mov	ecx, DWORD PTR [ecx+1748]
	jmp	?GetLeagueProjectRewardEntries@CvLeagueProjectRewardXMLEntries@@QAEAAV?$vector@PAVCvLeagueProjectRewardEntry@@V?$allocator@PAVCvLeagueProjectRewardEntry@@@std@@@std@@XZ ; CvLeagueProjectRewardXMLEntries::GetLeagueProjectRewardEntries
?getLeagueProjectRewardInfo@CvGlobals@@QAEAAV?$vector@PAVCvLeagueProjectRewardEntry@@V?$allocator@PAVCvLeagueProjectRewardEntry@@@std@@@std@@XZ ENDP ; CvGlobals::getLeagueProjectRewardInfo
_TEXT	ENDS
PUBLIC	?GetGameLeagueProjectRewards@CvGlobals@@QBEPAVCvLeagueProjectRewardXMLEntries@@XZ ; CvGlobals::GetGameLeagueProjectRewards
; Function compile flags: /Ogtpy
;	COMDAT ?GetGameLeagueProjectRewards@CvGlobals@@QBEPAVCvLeagueProjectRewardXMLEntries@@XZ
_TEXT	SEGMENT
?GetGameLeagueProjectRewards@CvGlobals@@QBEPAVCvLeagueProjectRewardXMLEntries@@XZ PROC ; CvGlobals::GetGameLeagueProjectRewards, COMDAT
; _this$ = ecx

; 4483 : 	return m_pLeagueProjectRewards;

	mov	eax, DWORD PTR [ecx+1748]

; 4484 : }

	ret	0
?GetGameLeagueProjectRewards@CvGlobals@@QBEPAVCvLeagueProjectRewardXMLEntries@@XZ ENDP ; CvGlobals::GetGameLeagueProjectRewards
_TEXT	ENDS
PUBLIC	?getResolutionInfo@CvGlobals@@QAEAAV?$vector@PAVCvResolutionEntry@@V?$allocator@PAVCvResolutionEntry@@@std@@@std@@XZ ; CvGlobals::getResolutionInfo
EXTRN	?GetResolutionEntries@CvResolutionXMLEntries@@QAEAAV?$vector@PAVCvResolutionEntry@@V?$allocator@PAVCvResolutionEntry@@@std@@@std@@XZ:PROC ; CvResolutionXMLEntries::GetResolutionEntries
; Function compile flags: /Ogtpy
;	COMDAT ?getResolutionInfo@CvGlobals@@QAEAAV?$vector@PAVCvResolutionEntry@@V?$allocator@PAVCvResolutionEntry@@@std@@@std@@XZ
_TEXT	SEGMENT
?getResolutionInfo@CvGlobals@@QAEAAV?$vector@PAVCvResolutionEntry@@V?$allocator@PAVCvResolutionEntry@@@std@@@std@@XZ PROC ; CvGlobals::getResolutionInfo, COMDAT
; _this$ = ecx

; 4499 : 	return m_pResolutions->GetResolutionEntries();

	mov	ecx, DWORD PTR [ecx+1752]
	jmp	?GetResolutionEntries@CvResolutionXMLEntries@@QAEAAV?$vector@PAVCvResolutionEntry@@V?$allocator@PAVCvResolutionEntry@@@std@@@std@@XZ ; CvResolutionXMLEntries::GetResolutionEntries
?getResolutionInfo@CvGlobals@@QAEAAV?$vector@PAVCvResolutionEntry@@V?$allocator@PAVCvResolutionEntry@@@std@@@std@@XZ ENDP ; CvGlobals::getResolutionInfo
_TEXT	ENDS
PUBLIC	?GetGameResolutions@CvGlobals@@QBEPAVCvResolutionXMLEntries@@XZ ; CvGlobals::GetGameResolutions
; Function compile flags: /Ogtpy
;	COMDAT ?GetGameResolutions@CvGlobals@@QBEPAVCvResolutionXMLEntries@@XZ
_TEXT	SEGMENT
?GetGameResolutions@CvGlobals@@QBEPAVCvResolutionXMLEntries@@XZ PROC ; CvGlobals::GetGameResolutions, COMDAT
; _this$ = ecx

; 4522 : 	return m_pResolutions;

	mov	eax, DWORD PTR [ecx+1752]

; 4523 : }

	ret	0
?GetGameResolutions@CvGlobals@@QBEPAVCvResolutionXMLEntries@@XZ ENDP ; CvGlobals::GetGameResolutions
_TEXT	ENDS
PUBLIC	?getTechInfo@CvGlobals@@QAEAAV?$vector@PAVCvTechEntry@@V?$allocator@PAVCvTechEntry@@@std@@@std@@XZ ; CvGlobals::getTechInfo
EXTRN	?GetTechEntries@CvTechXMLEntries@@QAEAAV?$vector@PAVCvTechEntry@@V?$allocator@PAVCvTechEntry@@@std@@@std@@XZ:PROC ; CvTechXMLEntries::GetTechEntries
; Function compile flags: /Ogtpy
;	COMDAT ?getTechInfo@CvGlobals@@QAEAAV?$vector@PAVCvTechEntry@@V?$allocator@PAVCvTechEntry@@@std@@@std@@XZ
_TEXT	SEGMENT
?getTechInfo@CvGlobals@@QAEAAV?$vector@PAVCvTechEntry@@V?$allocator@PAVCvTechEntry@@@std@@@std@@XZ PROC ; CvGlobals::getTechInfo, COMDAT
; _this$ = ecx

; 4538 : 	return m_pTechs->GetTechEntries();

	mov	ecx, DWORD PTR [ecx+1696]
	jmp	?GetTechEntries@CvTechXMLEntries@@QAEAAV?$vector@PAVCvTechEntry@@V?$allocator@PAVCvTechEntry@@@std@@@std@@XZ ; CvTechXMLEntries::GetTechEntries
?getTechInfo@CvGlobals@@QAEAAV?$vector@PAVCvTechEntry@@V?$allocator@PAVCvTechEntry@@@std@@@std@@XZ ENDP ; CvGlobals::getTechInfo
_TEXT	ENDS
PUBLIC	?GetGameTechs@CvGlobals@@QBEPAVCvTechXMLEntries@@XZ ; CvGlobals::GetGameTechs
; Function compile flags: /Ogtpy
;	COMDAT ?GetGameTechs@CvGlobals@@QBEPAVCvTechXMLEntries@@XZ
_TEXT	SEGMENT
?GetGameTechs@CvGlobals@@QBEPAVCvTechXMLEntries@@XZ PROC ; CvGlobals::GetGameTechs, COMDAT
; _this$ = ecx

; 4561 : 	return m_pTechs;

	mov	eax, DWORD PTR [ecx+1696]

; 4562 : }

	ret	0
?GetGameTechs@CvGlobals@@QBEPAVCvTechXMLEntries@@XZ ENDP ; CvGlobals::GetGameTechs
_TEXT	ENDS
PUBLIC	?getEraInfo@CvGlobals@@QAEAAV?$vector@PAVCvEraInfo@@V?$allocator@PAVCvEraInfo@@@std@@@std@@XZ ; CvGlobals::getEraInfo
; Function compile flags: /Ogtpy
;	COMDAT ?getEraInfo@CvGlobals@@QAEAAV?$vector@PAVCvEraInfo@@V?$allocator@PAVCvEraInfo@@@std@@@std@@XZ
_TEXT	SEGMENT
?getEraInfo@CvGlobals@@QAEAAV?$vector@PAVCvEraInfo@@V?$allocator@PAVCvEraInfo@@@std@@@std@@XZ PROC ; CvGlobals::getEraInfo, COMDAT
; _this$ = ecx

; 4577 : 	return m_aEraInfo;

	lea	eax, DWORD PTR [ecx+1556]

; 4578 : }

	ret	0
?getEraInfo@CvGlobals@@QAEAAV?$vector@PAVCvEraInfo@@V?$allocator@PAVCvEraInfo@@@std@@@std@@XZ ENDP ; CvGlobals::getEraInfo
_TEXT	ENDS
PUBLIC	?getHurryInfo@CvGlobals@@QAEAAV?$vector@PAVCvHurryInfo@@V?$allocator@PAVCvHurryInfo@@@std@@@std@@XZ ; CvGlobals::getHurryInfo
; Function compile flags: /Ogtpy
;	COMDAT ?getHurryInfo@CvGlobals@@QAEAAV?$vector@PAVCvHurryInfo@@V?$allocator@PAVCvHurryInfo@@@std@@@std@@XZ
_TEXT	SEGMENT
?getHurryInfo@CvGlobals@@QAEAAV?$vector@PAVCvHurryInfo@@V?$allocator@PAVCvHurryInfo@@@std@@@std@@XZ PROC ; CvGlobals::getHurryInfo, COMDAT
; _this$ = ecx

; 4609 : 	return m_paHurryInfo;

	lea	eax, DWORD PTR [ecx+1572]

; 4610 : }

	ret	0
?getHurryInfo@CvGlobals@@QAEAAV?$vector@PAVCvHurryInfo@@V?$allocator@PAVCvHurryInfo@@@std@@@std@@XZ ENDP ; CvGlobals::getHurryInfo
_TEXT	ENDS
PUBLIC	?getVictoryInfo@CvGlobals@@QAEAAV?$vector@PAVCvVictoryInfo@@V?$allocator@PAVCvVictoryInfo@@@std@@@std@@XZ ; CvGlobals::getVictoryInfo
; Function compile flags: /Ogtpy
;	COMDAT ?getVictoryInfo@CvGlobals@@QAEAAV?$vector@PAVCvVictoryInfo@@V?$allocator@PAVCvVictoryInfo@@@std@@@std@@XZ
_TEXT	SEGMENT
?getVictoryInfo@CvGlobals@@QAEAAV?$vector@PAVCvVictoryInfo@@V?$allocator@PAVCvVictoryInfo@@@std@@@std@@XZ PROC ; CvGlobals::getVictoryInfo, COMDAT
; _this$ = ecx

; 4643 : 	return m_paVictoryInfo;

	lea	eax, DWORD PTR [ecx+1588]

; 4644 : }

	ret	0
?getVictoryInfo@CvGlobals@@QAEAAV?$vector@PAVCvVictoryInfo@@V?$allocator@PAVCvVictoryInfo@@@std@@@std@@XZ ENDP ; CvGlobals::getVictoryInfo
_TEXT	ENDS
PUBLIC	?getSmallAwardInfo@CvGlobals@@QAEAAV?$vector@PAVCvSmallAwardInfo@@V?$allocator@PAVCvSmallAwardInfo@@@std@@@std@@XZ ; CvGlobals::getSmallAwardInfo
; Function compile flags: /Ogtpy
;	COMDAT ?getSmallAwardInfo@CvGlobals@@QAEAAV?$vector@PAVCvSmallAwardInfo@@V?$allocator@PAVCvSmallAwardInfo@@@std@@@std@@XZ
_TEXT	SEGMENT
?getSmallAwardInfo@CvGlobals@@QAEAAV?$vector@PAVCvSmallAwardInfo@@V?$allocator@PAVCvSmallAwardInfo@@@std@@@std@@XZ PROC ; CvGlobals::getSmallAwardInfo, COMDAT
; _this$ = ecx

; 4677 : 	return m_paSmallAwardInfo;

	lea	eax, DWORD PTR [ecx+1604]

; 4678 : }

	ret	0
?getSmallAwardInfo@CvGlobals@@QAEAAV?$vector@PAVCvSmallAwardInfo@@V?$allocator@PAVCvSmallAwardInfo@@@std@@@std@@XZ ENDP ; CvGlobals::getSmallAwardInfo
_TEXT	ENDS
PUBLIC	?getUnitDomainInfo@CvGlobals@@QAEAAV?$vector@PAVCvBaseInfo@@V?$allocator@PAVCvBaseInfo@@@std@@@std@@XZ ; CvGlobals::getUnitDomainInfo
; Function compile flags: /Ogtpy
;	COMDAT ?getUnitDomainInfo@CvGlobals@@QAEAAV?$vector@PAVCvBaseInfo@@V?$allocator@PAVCvBaseInfo@@@std@@@std@@XZ
_TEXT	SEGMENT
?getUnitDomainInfo@CvGlobals@@QAEAAV?$vector@PAVCvBaseInfo@@V?$allocator@PAVCvBaseInfo@@@std@@@std@@XZ PROC ; CvGlobals::getUnitDomainInfo, COMDAT
; _this$ = ecx

; 4712 : 	return m_paUnitDomainInfo;

	lea	eax, DWORD PTR [ecx+1636]

; 4713 : }

	ret	0
?getUnitDomainInfo@CvGlobals@@QAEAAV?$vector@PAVCvBaseInfo@@V?$allocator@PAVCvBaseInfo@@@std@@@std@@XZ ENDP ; CvGlobals::getUnitDomainInfo
_TEXT	ENDS
PUBLIC	?LogMessage@CvGlobals@@QAEXPBD@Z		; CvGlobals::LogMessage
EXTRN	?GetInstance@FILogFileMgr@@SAAAV1@XZ:PROC	; FILogFileMgr::GetInstance
; Function compile flags: /Ogtpy
;	COMDAT ?LogMessage@CvGlobals@@QAEXPBD@Z
_TEXT	SEGMENT
_szMessage$ = 8						; size = 4
?LogMessage@CvGlobals@@QAEXPBD@Z PROC			; CvGlobals::LogMessage, COMDAT
; _this$ = ecx

; 4736 : 	if(getLogging())

	cmp	BYTE PTR [ecx+7], 0
	je	SHORT $LN1@LogMessage

; 4737 : 	{
; 4738 : 		FILogFile* pLog = LOGFILEMGR.GetLog("GameCore.log", 0);

	call	?GetInstance@FILogFileMgr@@SAAAV1@XZ	; FILogFileMgr::GetInstance
	mov	edx, DWORD PTR [eax]
	push	0
	push	0
	mov	ecx, eax
	mov	eax, DWORD PTR [edx+12]
	push	OFFSET $SG230472
	call	eax

; 4739 : 		if(pLog)

	test	eax, eax
	je	SHORT $LN1@LogMessage

; 4740 : 			pLog->Msg(szMessage);

	mov	edx, DWORD PTR _szMessage$[esp-4]
	mov	ecx, DWORD PTR [eax]
	push	edx
	push	eax
	mov	eax, DWORD PTR [ecx]
	call	eax
	add	esp, 8
$LN1@LogMessage:

; 4741 : 	}
; 4742 : }

	ret	4
?LogMessage@CvGlobals@@QAEXPBD@Z ENDP			; CvGlobals::LogMessage
_TEXT	ENDS
PUBLIC	?GetNotificationEntries@CvGlobals@@QAEPAVCvNotificationXMLEntries@@XZ ; CvGlobals::GetNotificationEntries
; Function compile flags: /Ogtpy
;	COMDAT ?GetNotificationEntries@CvGlobals@@QAEPAVCvNotificationXMLEntries@@XZ
_TEXT	SEGMENT
?GetNotificationEntries@CvGlobals@@QAEPAVCvNotificationXMLEntries@@XZ PROC ; CvGlobals::GetNotificationEntries, COMDAT
; _this$ = ecx

; 4746 : 	return m_pNotifications;

	mov	eax, DWORD PTR [ecx+1756]

; 4747 : }

	ret	0
?GetNotificationEntries@CvGlobals@@QAEPAVCvNotificationXMLEntries@@XZ ENDP ; CvGlobals::GetNotificationEntries
_TEXT	ENDS
PUBLIC	?getFootstepAudioTags@CvGlobals@@QAEAAPAVCvString@@XZ ; CvGlobals::getFootstepAudioTags
; Function compile flags: /Ogtpy
;	COMDAT ?getFootstepAudioTags@CvGlobals@@QAEAAPAVCvString@@XZ
_TEXT	SEGMENT
?getFootstepAudioTags@CvGlobals@@QAEAAPAVCvString@@XZ PROC ; CvGlobals::getFootstepAudioTags, COMDAT
; _this$ = ecx

; 4751 : 	return m_paszFootstepAudioTags;

	lea	eax, DWORD PTR [ecx+1768]

; 4752 : }

	ret	0
?getFootstepAudioTags@CvGlobals@@QAEAAPAVCvString@@XZ ENDP ; CvGlobals::getFootstepAudioTags
_TEXT	ENDS
PUBLIC	?getFootstepAudioTags@CvGlobals@@QAEAAVCvString@@H@Z ; CvGlobals::getFootstepAudioTags
; Function compile flags: /Ogtpy
;	COMDAT ?getFootstepAudioTags@CvGlobals@@QAEAAVCvString@@H@Z
_TEXT	SEGMENT
_i$ = 8							; size = 4
?getFootstepAudioTags@CvGlobals@@QAEAAVCvString@@H@Z PROC ; CvGlobals::getFootstepAudioTags, COMDAT
; _this$ = ecx

; 4756 : //	CvAssertMsg(i < getNumFootstepAudioTags(), "Index out of bounds")
; 4757 : 	CvAssertMsg(i > -1, "Index out of bounds");
; 4758 : 	return m_paszFootstepAudioTags[i];

	mov	eax, DWORD PTR _i$[esp-4]
	lea	edx, DWORD PTR [eax*8]
	sub	edx, eax
	mov	eax, DWORD PTR [ecx+1768]
	lea	eax, DWORD PTR [eax+edx*4]

; 4759 : }

	ret	4
?getFootstepAudioTags@CvGlobals@@QAEAAVCvString@@H@Z ENDP ; CvGlobals::getFootstepAudioTags
_TEXT	ENDS
PUBLIC	?GetHexDebugLayerNames@CvGlobals@@QAEPAPBDXZ	; CvGlobals::GetHexDebugLayerNames
;	COMDAT ?hexDebugLayerNames@?1??GetHexDebugLayerNames@CvGlobals@@QAEPAPBDXZ@4PAPBDA
_DATA	SEGMENT
?hexDebugLayerNames@?1??GetHexDebugLayerNames@CvGlobals@@QAEPAPBDXZ@4PAPBDA DD FLAT:$SG230489 ; `CvGlobals::GetHexDebugLayerNames'::`2'::hexDebugLayerNames
	DD	FLAT:$SG230490
	DD	FLAT:$SG230491
	DD	FLAT:$SG230492
	DD	FLAT:$SG230493
	DD	FLAT:$SG230494
	DD	FLAT:$SG230495
	DD	FLAT:$SG230496
	DD	00H
; Function compile flags: /Ogtpy
_DATA	ENDS
;	COMDAT ?GetHexDebugLayerNames@CvGlobals@@QAEPAPBDXZ
_TEXT	SEGMENT
?GetHexDebugLayerNames@CvGlobals@@QAEPAPBDXZ PROC	; CvGlobals::GetHexDebugLayerNames, COMDAT
; _this$ = ecx

; 4763 : 	static const char* hexDebugLayerNames[] =
; 4764 : 	{
; 4765 : 		"StartSiteEvaluationLayer",
; 4766 : 		"SettlerSiteEvaluationLayer",
; 4767 : 		"VisibilityLayer",
; 4768 : 		"RevealedLayer",
; 4769 : 		"DangerLayer",
; 4770 : 		"TacticalAnalysisLayer",
; 4771 : 		"ArtifactLayer",
; 4772 : 		"TargetingPathLayer",
; 4773 : 		NULL
; 4774 : 	};
; 4775 : 	return hexDebugLayerNames;

	mov	eax, OFFSET ?hexDebugLayerNames@?1??GetHexDebugLayerNames@CvGlobals@@QAEPAPBDXZ@4PAPBDA

; 4776 : }

	ret	0
?GetHexDebugLayerNames@CvGlobals@@QAEPAPBDXZ ENDP	; CvGlobals::GetHexDebugLayerNames
_TEXT	ENDS
PUBLIC	?GetHexDebugLayerScale@CvGlobals@@QAEMPBD@Z	; CvGlobals::GetHexDebugLayerScale
EXTRN	__imp_??$?8DU?$char_traits@D@std@@V?$allocator@D@1@@std@@YA_NABV?$basic_string@DU?$char_traits@D@std@@V?$allocator@D@2@@0@PBD@Z:PROC
EXTRN	__imp_??0?$basic_string@DU?$char_traits@D@std@@V?$allocator@D@2@@std@@QAE@PBD@Z:PROC
EXTRN	__fltused:DWORD
;	COMDAT xdata$x
xdata$x	SEGMENT
__unwindtable$?GetHexDebugLayerScale@CvGlobals@@QAEMPBD@Z DD 0ffffffffH
	DD	FLAT:__unwindfunclet$?GetHexDebugLayerScale@CvGlobals@@QAEMPBD@Z$0
__ehfuncinfo$?GetHexDebugLayerScale@CvGlobals@@QAEMPBD@Z DD 019930522H
	DD	01H
	DD	FLAT:__unwindtable$?GetHexDebugLayerScale@CvGlobals@@QAEMPBD@Z
	DD	2 DUP(00H)
	DD	2 DUP(00H)
	DD	00H
	DD	01H
; Function compile flags: /Ogtpy
xdata$x	ENDS
;	COMDAT ?GetHexDebugLayerScale@CvGlobals@@QAEMPBD@Z
_TEXT	SEGMENT
_strLayerName$ = -40					; size = 28
__$EHRec$ = -12						; size = 12
_fScale$ = 8						; size = 4
_szLayerName$ = 8					; size = 4
?GetHexDebugLayerScale@CvGlobals@@QAEMPBD@Z PROC	; CvGlobals::GetHexDebugLayerScale, COMDAT
; _this$ = ecx

; 4779 : {

	push	-1
	push	__ehhandler$?GetHexDebugLayerScale@CvGlobals@@QAEMPBD@Z
	mov	eax, DWORD PTR fs:0
	push	eax
	mov	DWORD PTR fs:0, esp
	sub	esp, 28					; 0000001cH

; 4780 : 	std::string strLayerName = szLayerName;

	mov	eax, DWORD PTR _szLayerName$[esp+36]
	push	esi
	push	eax
	lea	ecx, DWORD PTR _strLayerName$[esp+48]
	call	DWORD PTR __imp_??0?$basic_string@DU?$char_traits@D@std@@V?$allocator@D@2@@std@@QAE@PBD@Z

; 4781 : 	float fScale = 1.0f;
; 4782 : 
; 4783 : 	if(strLayerName == "SettlerSiteEvaluationLayer")

	mov	esi, DWORD PTR __imp_??$?8DU?$char_traits@D@std@@V?$allocator@D@1@@std@@YA_NABV?$basic_string@DU?$char_traits@D@std@@V?$allocator@D@2@@0@PBD@Z
	lea	ecx, DWORD PTR _strLayerName$[esp+44]
	push	OFFSET $SG230504
	push	ecx
	mov	DWORD PTR __$EHRec$[esp+60], 0
	mov	DWORD PTR _fScale$[esp+48], 1065353216	; 3f800000H
	call	esi
	add	esp, 8
	test	al, al
	je	SHORT $LN2@GetHexDebu

; 4784 : 	{
; 4785 : 		fScale = 1.5f;

	mov	DWORD PTR _fScale$[esp+40], 1069547520	; 3fc00000H
$LN2@GetHexDebu:

; 4786 : 	}
; 4787 : 	if(strLayerName == "ArtifactLayer")

	lea	edx, DWORD PTR _strLayerName$[esp+44]
	push	OFFSET $SG230506
	push	edx
	call	esi
	add	esp, 8
	pop	esi
	test	al, al
	je	SHORT $LN1@GetHexDebu

; 4788 : 	{
; 4789 : 		fScale = 2.0f;

	mov	DWORD PTR _fScale$[esp+36], 1073741824	; 40000000H
$LN1@GetHexDebu:

; 4790 : 	}
; 4791 : 
; 4792 : 	return fScale;

	lea	ecx, DWORD PTR _strLayerName$[esp+40]
	mov	DWORD PTR __$EHRec$[esp+48], -1
	call	DWORD PTR __imp_??1?$basic_string@DU?$char_traits@D@std@@V?$allocator@D@2@@std@@QAE@XZ
	fld	DWORD PTR _fScale$[esp+36]

; 4793 : }

	mov	ecx, DWORD PTR __$EHRec$[esp+40]
	mov	DWORD PTR fs:0, ecx
	add	esp, 40					; 00000028H
	ret	4
_TEXT	ENDS
;	COMDAT text$x
text$x	SEGMENT
__unwindfunclet$?GetHexDebugLayerScale@CvGlobals@@QAEMPBD@Z$0:
	lea	ecx, DWORD PTR _strLayerName$[ebp]
	jmp	DWORD PTR __imp_??1?$basic_string@DU?$char_traits@D@std@@V?$allocator@D@2@@std@@QAE@XZ
__ehhandler$?GetHexDebugLayerScale@CvGlobals@@QAEMPBD@Z:
	mov	eax, OFFSET __ehfuncinfo$?GetHexDebugLayerScale@CvGlobals@@QAEMPBD@Z
	jmp	___CxxFrameHandler3
text$x	ENDS
?GetHexDebugLayerScale@CvGlobals@@QAEMPBD@Z ENDP	; CvGlobals::GetHexDebugLayerScale
PUBLIC	?SafeStrlen@FStringA@@SAHPBD@Z			; FStringA::SafeStrlen
; Function compile flags: /Ogtpy
; File c:\users\enormousapplepie\desktop\cleanup (v1)\lekmod files\lekmod dll versions\v30\lekmod_dll\fireplace\include\fireworks\fstringa.inl
;	COMDAT ?SafeStrlen@FStringA@@SAHPBD@Z
_TEXT	SEGMENT
_lpsz$ = 8						; size = 4
?SafeStrlen@FStringA@@SAHPBD@Z PROC			; FStringA::SafeStrlen, COMDAT

; 1030 : 	return ( lpsz ? ( int )strlen( lpsz ) : 0 );

	mov	eax, DWORD PTR _lpsz$[esp-4]
	test	eax, eax
	je	SHORT $LN3@SafeStrlen
	lea	edx, DWORD PTR [eax+1]
	npad	5
$LL5@SafeStrlen:
	mov	cl, BYTE PTR [eax]
	inc	eax
	test	cl, cl
	jne	SHORT $LL5@SafeStrlen
	sub	eax, edx

; 1031 : }

	ret	0
$LN3@SafeStrlen:

; 1030 : 	return ( lpsz ? ( int )strlen( lpsz ) : 0 );

	xor	eax, eax

; 1031 : }

	ret	0
?SafeStrlen@FStringA@@SAHPBD@Z ENDP			; FStringA::SafeStrlen
_TEXT	ENDS
PUBLIC	??0CvString@@QAE@XZ				; CvString::CvString
EXTRN	__imp_??0?$basic_string@DU?$char_traits@D@std@@V?$allocator@D@2@@std@@QAE@XZ:PROC
; Function compile flags: /Ogtpy
; File c:\users\enormousapplepie\desktop\cleanup (v1)\lekmod files\lekmod dll versions\v30\lekmod_dll\cvgamecoredllutil\include\cvstring.h
;	COMDAT ??0CvString@@QAE@XZ
_TEXT	SEGMENT
??0CvString@@QAE@XZ PROC				; CvString::CvString, COMDAT
; _this$ = ecx

; 23   : 	CvString() {}

	push	esi
	mov	esi, ecx
	call	DWORD PTR __imp_??0?$basic_string@DU?$char_traits@D@std@@V?$allocator@D@2@@std@@QAE@XZ
	mov	eax, esi
	pop	esi
	ret	0
??0CvString@@QAE@XZ ENDP				; CvString::CvString
_TEXT	ENDS
PUBLIC	??1CvString@@QAE@XZ				; CvString::~CvString
; Function compile flags: /Ogtpy
;	COMDAT ??1CvString@@QAE@XZ
_TEXT	SEGMENT
??1CvString@@QAE@XZ PROC				; CvString::~CvString, COMDAT
; _this$ = ecx

; 28   : 	~CvString() {}

	jmp	DWORD PTR __imp_??1?$basic_string@DU?$char_traits@D@std@@V?$allocator@D@2@@std@@QAE@XZ
??1CvString@@QAE@XZ ENDP				; CvString::~CvString
_TEXT	ENDS
PUBLIC	??4CvString@@QAEAAV0@PBD@Z			; CvString::operator=
EXTRN	__imp_?clear@?$basic_string@DU?$char_traits@D@std@@V?$allocator@D@2@@std@@QAEXXZ:PROC
EXTRN	__imp_?assign@?$basic_string@DU?$char_traits@D@std@@V?$allocator@D@2@@std@@QAEAAV12@PBD@Z:PROC
; Function compile flags: /Ogtpy
;	COMDAT ??4CvString@@QAEAAV0@PBD@Z
_TEXT	SEGMENT
_s$ = 8							; size = 4
??4CvString@@QAEAAV0@PBD@Z PROC				; CvString::operator=, COMDAT
; _this$ = ecx

; 37   : 	CvString& operator=( const char* s) { if (s) assign(s); else clear();	return *this; }	

	mov	eax, DWORD PTR _s$[esp-4]
	push	esi
	mov	esi, ecx
	test	eax, eax
	je	SHORT $LN2@operator
	push	eax
	call	DWORD PTR __imp_?assign@?$basic_string@DU?$char_traits@D@std@@V?$allocator@D@2@@std@@QAEAAV12@PBD@Z
	mov	eax, esi
	pop	esi
	ret	4
$LN2@operator:
	call	DWORD PTR __imp_?clear@?$basic_string@DU?$char_traits@D@std@@V?$allocator@D@2@@std@@QAEXXZ
	mov	eax, esi
	pop	esi
	ret	4
??4CvString@@QAEAAV0@PBD@Z ENDP				; CvString::operator=
_TEXT	ENDS
PUBLIC	??4CvString@@QAEAAV0@ABV?$basic_string@DU?$char_traits@D@std@@V?$allocator@D@2@@std@@@Z ; CvString::operator=
; Function compile flags: /Ogtpy
;	COMDAT ??4CvString@@QAEAAV0@ABV?$basic_string@DU?$char_traits@D@std@@V?$allocator@D@2@@std@@@Z
_TEXT	SEGMENT
_s$ = 8							; size = 4
??4CvString@@QAEAAV0@ABV?$basic_string@DU?$char_traits@D@std@@V?$allocator@D@2@@std@@@Z PROC ; CvString::operator=, COMDAT
; _this$ = ecx

; 38   : 	CvString& operator=( const std::string& s) { assign(s.c_str());	return *this; }	

	push	esi
	mov	esi, ecx
	mov	ecx, DWORD PTR _s$[esp]
	call	DWORD PTR __imp_?c_str@?$basic_string@DU?$char_traits@D@std@@V?$allocator@D@2@@std@@QBEPBDXZ
	push	eax
	mov	ecx, esi
	call	DWORD PTR __imp_?assign@?$basic_string@DU?$char_traits@D@std@@V?$allocator@D@2@@std@@QAEAAV12@PBD@Z
	mov	eax, esi
	pop	esi
	ret	4
??4CvString@@QAEAAV0@ABV?$basic_string@DU?$char_traits@D@std@@V?$allocator@D@2@@std@@@Z ENDP ; CvString::operator=
_TEXT	ENDS
PUBLIC	?getDefineValue@CvGlobals@@IAE_NPBDAAH_N@Z	; CvGlobals::getDefineValue
EXTRN	__imp_?Reset@Results@Database@@QAE_NXZ:PROC
EXTRN	__imp_?GetInt@Results@Database@@QAEHH@Z:PROC
EXTRN	__imp_?Step@Results@Database@@QAE_NXZ:PROC
EXTRN	__imp_?Bind@Results@Database@@QAE_NHPBD_N@Z:PROC
; Function compile flags: /Ogtpy
; File c:\users\enormousapplepie\desktop\cleanup (v1)\lekmod files\lekmod dll versions\v30\lekmod_dll\cvgamecoredll_expansion2\cvglobals.cpp
;	COMDAT ?getDefineValue@CvGlobals@@IAE_NPBDAAH_N@Z
_TEXT	SEGMENT
_szName$ = 8						; size = 4
_iValue$ = 12						; size = 4
_bReportErrors$ = 16					; size = 1
?getDefineValue@CvGlobals@@IAE_NPBDAAH_N@Z PROC		; CvGlobals::getDefineValue, COMDAT
; _this$ = ecx

; 6780 : 	bool bSuccess = false;
; 6781 : 	if(m_kGlobalDefinesLookup.Bind(1, szName))

	mov	eax, DWORD PTR _szName$[esp-4]
	push	ebx
	push	esi
	push	1
	lea	esi, DWORD PTR [ecx+916]
	push	eax
	push	1
	mov	ecx, esi
	xor	bl, bl
	call	DWORD PTR __imp_?Bind@Results@Database@@QAE_NHPBD_N@Z
	test	al, al
	je	SHORT $LN2@getDefineV

; 6782 : 	{
; 6783 : 		if(m_kGlobalDefinesLookup.Step())

	mov	ecx, esi
	call	DWORD PTR __imp_?Step@Results@Database@@QAE_NXZ
	test	al, al
	je	SHORT $LN2@getDefineV

; 6784 : 		{
; 6785 : 			iValue = m_kGlobalDefinesLookup.GetInt(0);

	push	0
	mov	ecx, esi
	call	DWORD PTR __imp_?GetInt@Results@Database@@QAEHH@Z
	mov	ecx, DWORD PTR _iValue$[esp+4]
	mov	DWORD PTR [ecx], eax

; 6786 : 			bSuccess = true;

	mov	bl, 1
$LN2@getDefineV:

; 6787 : 		}
; 6788 : 	}
; 6789 : 
; 6790 : 	m_kGlobalDefinesLookup.Reset();

	mov	ecx, esi
	call	DWORD PTR __imp_?Reset@Results@Database@@QAE_NXZ
	pop	esi

; 6791 : 
; 6792 : 	if(bReportErrors)
; 6793 : 	{
; 6794 : 		CvAssertFmt(bSuccess, "Integer Define Value not found for %s", szName);
; 6795 : 	}
; 6796 : 
; 6797 : 	return bSuccess;

	mov	al, bl
	pop	ebx

; 6798 : }

	ret	12					; 0000000cH
?getDefineValue@CvGlobals@@IAE_NPBDAAH_N@Z ENDP		; CvGlobals::getDefineValue
_TEXT	ENDS
PUBLIC	?getDefineValue@CvGlobals@@IAE_NPBDAAM_N@Z	; CvGlobals::getDefineValue
EXTRN	__imp_?GetFloat@Results@Database@@QAEMH@Z:PROC
; Function compile flags: /Ogtpy
;	COMDAT ?getDefineValue@CvGlobals@@IAE_NPBDAAM_N@Z
_TEXT	SEGMENT
_szName$ = 8						; size = 4
_fValue$ = 12						; size = 4
_bReportErrors$ = 16					; size = 1
?getDefineValue@CvGlobals@@IAE_NPBDAAM_N@Z PROC		; CvGlobals::getDefineValue, COMDAT
; _this$ = ecx

; 6802 : 	bool bSuccess = false;
; 6803 : 	if(m_kGlobalDefinesLookup.Bind(1, szName))

	mov	eax, DWORD PTR _szName$[esp-4]
	push	ebx
	push	esi
	push	1
	lea	esi, DWORD PTR [ecx+916]
	push	eax
	push	1
	mov	ecx, esi
	xor	bl, bl
	call	DWORD PTR __imp_?Bind@Results@Database@@QAE_NHPBD_N@Z
	test	al, al
	je	SHORT $LN2@getDefineV@2

; 6804 : 	{
; 6805 : 		if(m_kGlobalDefinesLookup.Step())

	mov	ecx, esi
	call	DWORD PTR __imp_?Step@Results@Database@@QAE_NXZ
	test	al, al
	je	SHORT $LN2@getDefineV@2

; 6806 : 		{
; 6807 : 			fValue = m_kGlobalDefinesLookup.GetFloat(0);

	push	0
	mov	ecx, esi
	call	DWORD PTR __imp_?GetFloat@Results@Database@@QAEMH@Z
	mov	ecx, DWORD PTR _fValue$[esp+4]
	fstp	DWORD PTR [ecx]

; 6808 : 			bSuccess = true;

	mov	bl, 1
$LN2@getDefineV@2:

; 6809 : 		}
; 6810 : 	}
; 6811 : 
; 6812 : 	m_kGlobalDefinesLookup.Reset();

	mov	ecx, esi
	call	DWORD PTR __imp_?Reset@Results@Database@@QAE_NXZ
	pop	esi

; 6813 : 
; 6814 : 	if(bReportErrors)
; 6815 : 	{
; 6816 : 		CvAssertFmt(bSuccess, "Float Define Value not found for %s", szName);
; 6817 : 	}
; 6818 : 
; 6819 : 	return bSuccess;

	mov	al, bl
	pop	ebx

; 6820 : }

	ret	12					; 0000000cH
?getDefineValue@CvGlobals@@IAE_NPBDAAM_N@Z ENDP		; CvGlobals::getDefineValue
_TEXT	ENDS
PUBLIC	?getDefineValue@CvGlobals@@IAE_NPBDAAVCvString@@_N@Z ; CvGlobals::getDefineValue
EXTRN	__imp_?GetText@Results@Database@@QAEPBDH@Z:PROC
; Function compile flags: /Ogtpy
;	COMDAT ?getDefineValue@CvGlobals@@IAE_NPBDAAVCvString@@_N@Z
_TEXT	SEGMENT
_szName$ = 8						; size = 4
_strValue$ = 12						; size = 4
_bReportErrors$ = 16					; size = 1
?getDefineValue@CvGlobals@@IAE_NPBDAAVCvString@@_N@Z PROC ; CvGlobals::getDefineValue, COMDAT
; _this$ = ecx

; 6848 : 	bool bSuccess = false;
; 6849 : 	if(m_kGlobalDefinesLookup.Bind(1, szName))

	mov	eax, DWORD PTR _szName$[esp-4]
	push	ebx
	push	esi
	push	1
	lea	esi, DWORD PTR [ecx+916]
	push	eax
	push	1
	mov	ecx, esi
	xor	bl, bl
	call	DWORD PTR __imp_?Bind@Results@Database@@QAE_NHPBD_N@Z
	test	al, al
	je	SHORT $LN2@getDefineV@3

; 6850 : 	{
; 6851 : 		if(m_kGlobalDefinesLookup.Step())

	mov	ecx, esi
	call	DWORD PTR __imp_?Step@Results@Database@@QAE_NXZ
	test	al, al
	je	SHORT $LN2@getDefineV@3

; 6852 : 		{
; 6853 : 			strValue = m_kGlobalDefinesLookup.GetText(0);

	push	0
	mov	ecx, esi
	call	DWORD PTR __imp_?GetText@Results@Database@@QAEPBDH@Z
	mov	ecx, DWORD PTR _strValue$[esp+4]
	test	eax, eax
	je	SHORT $LN7@getDefineV@3
	push	eax
	call	DWORD PTR __imp_?assign@?$basic_string@DU?$char_traits@D@std@@V?$allocator@D@2@@std@@QAEAAV12@PBD@Z

; 6855 : 		}
; 6856 : 	}
; 6857 : 
; 6858 : 	m_kGlobalDefinesLookup.Reset();

	mov	ecx, esi
	mov	bl, 1
	call	DWORD PTR __imp_?Reset@Results@Database@@QAE_NXZ
	pop	esi

; 6859 : 
; 6860 : 	if(bReportErrors)
; 6861 : 	{
; 6862 : 		CvAssertFmt(bSuccess, "String Define Value not found for %s", szName);
; 6863 : 	}
; 6864 : 
; 6865 : 	return bSuccess;

	mov	al, bl
	pop	ebx

; 6866 : }

	ret	12					; 0000000cH

; 6852 : 		{
; 6853 : 			strValue = m_kGlobalDefinesLookup.GetText(0);

$LN7@getDefineV@3:
	call	DWORD PTR __imp_?clear@?$basic_string@DU?$char_traits@D@std@@V?$allocator@D@2@@std@@QAEXXZ

; 6854 : 			bSuccess = true;

	mov	bl, 1
$LN2@getDefineV@3:

; 6855 : 		}
; 6856 : 	}
; 6857 : 
; 6858 : 	m_kGlobalDefinesLookup.Reset();

	mov	ecx, esi
	call	DWORD PTR __imp_?Reset@Results@Database@@QAE_NXZ
	pop	esi

; 6859 : 
; 6860 : 	if(bReportErrors)
; 6861 : 	{
; 6862 : 		CvAssertFmt(bSuccess, "String Define Value not found for %s", szName);
; 6863 : 	}
; 6864 : 
; 6865 : 	return bSuccess;

	mov	al, bl
	pop	ebx

; 6866 : }

	ret	12					; 0000000cH
?getDefineValue@CvGlobals@@IAE_NPBDAAVCvString@@_N@Z ENDP ; CvGlobals::getDefineValue
_TEXT	ENDS
PUBLIC	?getNUM_YIELD_TYPES@CvGlobals@@QBEHXZ		; CvGlobals::getNUM_YIELD_TYPES
; Function compile flags: /Ogtpy
;	COMDAT ?getNUM_YIELD_TYPES@CvGlobals@@QBEHXZ
_TEXT	SEGMENT
?getNUM_YIELD_TYPES@CvGlobals@@QBEHXZ PROC		; CvGlobals::getNUM_YIELD_TYPES, COMDAT
; _this$ = ecx

; 6870 : 	return NUM_YIELD_TYPES;

	mov	eax, 6

; 6871 : }

	ret	0
?getNUM_YIELD_TYPES@CvGlobals@@QBEHXZ ENDP		; CvGlobals::getNUM_YIELD_TYPES
_TEXT	ENDS
PUBLIC	?getNUM_CONTROL_TYPES@CvGlobals@@QBEHXZ		; CvGlobals::getNUM_CONTROL_TYPES
; Function compile flags: /Ogtpy
;	COMDAT ?getNUM_CONTROL_TYPES@CvGlobals@@QBEHXZ
_TEXT	SEGMENT
?getNUM_CONTROL_TYPES@CvGlobals@@QBEHXZ PROC		; CvGlobals::getNUM_CONTROL_TYPES, COMDAT
; _this$ = ecx

; 6875 : 	return NUM_CONTROL_TYPES;

	mov	eax, 44					; 0000002cH

; 6876 : }

	ret	0
?getNUM_CONTROL_TYPES@CvGlobals@@QBEHXZ ENDP		; CvGlobals::getNUM_CONTROL_TYPES
_TEXT	ENDS
PUBLIC	??_C@_00CNPNBAHC@?$AA@				; `string'
PUBLIC	?formatv@CvString@@SA_NAAV?$basic_string@DU?$char_traits@D@std@@V?$allocator@D@2@@std@@PBDPAD@Z ; CvString::formatv
EXTRN	__imp_??4?$basic_string@DU?$char_traits@D@std@@V?$allocator@D@2@@std@@QAEAAV01@PBD@Z:PROC
EXTRN	??_U@YAPAXI@Z:PROC				; operator new[]
EXTRN	??_V@YAXPAX@Z:PROC				; operator delete[]
EXTRN	__imp___vsnprintf:PROC
;	COMDAT ??_C@_00CNPNBAHC@?$AA@
; File c:\users\enormousapplepie\desktop\cleanup (v1)\lekmod files\lekmod dll versions\v30\lekmod_dll\cvgamecoredllutil\include\cvstring.h
CONST	SEGMENT
??_C@_00CNPNBAHC@?$AA@ DB 00H				; `string'
; Function compile flags: /Ogtpy
CONST	ENDS
;	COMDAT ?formatv@CvString@@SA_NAAV?$basic_string@DU?$char_traits@D@std@@V?$allocator@D@2@@std@@PBDPAD@Z
_TEXT	SEGMENT
_buf$ = -2048						; size = 2048
_out$ = 8						; size = 4
_fmt$ = 12						; size = 4
_args$ = 16						; size = 4
?formatv@CvString@@SA_NAAV?$basic_string@DU?$char_traits@D@std@@V?$allocator@D@2@@std@@PBDPAD@Z PROC ; CvString::formatv, COMDAT

; 191  : {

	sub	esp, 2048				; 00000800H
	push	ebx
	push	ebp

; 192  : 	char buf[2048];
; 193  : 	char * pbuf = buf;

	mov	ebp, DWORD PTR _args$[esp+2052]
	push	esi
	push	edi
	lea	edi, DWORD PTR _buf$[esp+2064]
	mov	esi, 2047				; 000007ffH
	npad	6
$LL10@formatv:

; 194  : 	int len = 0;
; 195  : 	int attempts = 0;
; 196  : 	bool success = false;
; 197  : 	const int kMaxAttempts = 40;
; 198  : 
; 199  : 	do
; 200  : 	{
; 201  : 		int maxlen = 2047+2048*attempts;
; 202  : 		len = _vsnprintf(pbuf,maxlen,fmt,args);

	mov	eax, DWORD PTR _fmt$[esp+2060]
	push	ebp
	push	eax
	push	esi
	push	edi
	mov	ebx, esi
	call	DWORD PTR __imp___vsnprintf
	add	esp, 16					; 00000010H

; 203  : 		attempts++;

	add	esi, 2048				; 00000800H

; 204  : 		success = (len>=0 && len<=maxlen);

	test	eax, eax
	jl	SHORT $LN13@formatv
	cmp	eax, ebx
	jle	SHORT $LN18@formatv
$LN13@formatv:

; 205  : 		if (!success)
; 206  : 		{
; 207  : 			if (pbuf!=buf)

	lea	ecx, DWORD PTR _buf$[esp+2064]
	xor	bl, bl
	cmp	edi, ecx
	je	SHORT $LN6@formatv

; 208  : 				delete [] pbuf;

	push	edi
	call	??_V@YAXPAX@Z				; operator delete[]
	add	esp, 4
$LN6@formatv:

; 209  : 			pbuf = new char[2048+2048*attempts];

	lea	edx, DWORD PTR [esi+1]
	push	edx
	call	??_U@YAPAXI@Z				; operator new[]
	add	esp, 4

; 210  : 		}
; 211  : 	}
; 212  : 	while (!success && attempts<kMaxAttempts);

	cmp	esi, 83967				; 000147ffH
	mov	edi, eax
	jl	SHORT $LL10@formatv

; 222  : 		out = "";

	push	OFFSET ??_C@_00CNPNBAHC@?$AA@
$LN21@formatv:
	mov	ecx, DWORD PTR _out$[esp+2064]
	call	DWORD PTR __imp_??4?$basic_string@DU?$char_traits@D@std@@V?$allocator@D@2@@std@@QAEAAV01@PBD@Z

; 223  : 
; 224  : 	if (pbuf!=buf)

	lea	eax, DWORD PTR _buf$[esp+2064]
	cmp	edi, eax
	je	SHORT $LN20@formatv

; 225  : 		delete [] pbuf;

	push	edi
	call	??_V@YAXPAX@Z				; operator delete[]
	add	esp, 4
$LN20@formatv:
	pop	edi
	pop	esi
	pop	ebp

; 226  : 
; 227  : 	return success;

	mov	al, bl
	pop	ebx

; 228  : }

	add	esp, 2048				; 00000800H
	ret	0
$LN18@formatv:

