; Listing generated by Microsoft (R) Optimizing Compiler Version 15.00.30729.01 

	TITLE	s:\LEKMOD_DLL\CvGameCoreDLL_Expansion2\CvHomelandAI.cpp
	.686P
	.XMM
	include listing.inc
	.model	flat

INCLUDELIB MSVCRT
INCLUDELIB OLDNAMES

PUBLIC	?m_CurrentBestHighPriorityMoveUnit@@3PAVCvUnit@@A ; m_CurrentBestHighPriorityMoveUnit
PUBLIC	?m_iCurrentBestHighPriorityMoveUnitTurns@@3HA	; m_iCurrentBestHighPriorityMoveUnitTurns
PUBLIC	?NO_QUEST_DATA@CvMinorCivQuest@@2HB		; CvMinorCivQuest::NO_QUEST_DATA
PUBLIC	?NO_TURN@CvMinorCivQuest@@2HB			; CvMinorCivQuest::NO_TURN
_BSS	SEGMENT
?m_CurrentBestHighPriorityMoveUnit@@3PAVCvUnit@@A DD 01H DUP (?) ; m_CurrentBestHighPriorityMoveUnit
?m_iCurrentBestHighPriorityMoveUnitTurns@@3HA DD 01H DUP (?) ; m_iCurrentBestHighPriorityMoveUnitTurns
_BSS	ENDS
CONST	SEGMENT
$SG224977 DB	'FLAVOR_DEFENSE', 00H
	ORG $+1
$SG224983 DB	'FLAVOR_OFFENSE', 00H
	ORG $+1
$SG224990 DB	'FLAVOR_EXPANSION', 00H
	ORG $+3
$SG224995 DB	'FLAVOR_RECON', 00H
	ORG $+3
$SG225002 DB	'FLAVOR_GOLD', 00H
$SG225007 DB	'FLAVOR_SCIENCE', 00H
	ORG $+1
$SG225012 DB	'FLAVOR_WONDER', 00H
	ORG $+2
$SG225017 DB	'FLAVOR_MILITARY_TRAINING', 00H
	ORG $+3
$SG225022 DB	'FLAVOR_CULTURE', 00H
	ORG $+1
$SG225600 DB	'Moving to garrison, X: %d, Y: %d, Priority: %d', 00H
	ORG $+1
$SG225624 DB	'%s healing at, X: %d, Y: %d', 00H
$SG225675 DB	'Moving to mobile reserve muster pt, X: %d, Y: %d', 00H
	ORG $+3
$SG225690 DB	'Moving to sentry point, X: %d, Y: %d, Priority: %d', 00H
	ORG $+1
$SG225759 DB	'Harvesting naval resource at, X: %d, Y: %d', 00H
	ORG $+1
$SG225763 DB	'Moving toward naval resource at, X: %d, Y: %d', 00H
	ORG $+6
$SG225785 DB	'%s (%d) patrolling to, X: %d, Y: %d, Current X: %d, Curr'
	DB	'ent Y: %d', 00H
	ORG $+2
$SG225844 DB	'FLAVOR_MILITARY_TRAINING', 00H
	ORG $+3
$SG225862 DB	'Upgrading unit from type %s to type %s, X: %d, Y: %d', 00H
	ORG $+3
$SG225877 DB	'FLAVOR_MILITARY_TRAINING', 00H
	ORG $+7
$SG225884 DB	'Need gold for %s upgrade, GOLD: Available = %d, Needed ='
	DB	' %d, Priority = %d', 00H
	ORG $+5
$SG225902 DB	'Moving %s for upgrade at %s, GOLD: Available = %d, Neede'
	DB	'd = %d, Priority = %d, Dist = %d', 00H
	ORG $+3
$SG225916 DB	'Moving to goody hut (non-explorer), X: %d, Y: %d', 00H
	ORG $+3
$SG226727 DB	'Remaining in place for future airlift - %s, X: %d, Y: %d'
	DB	00H
	ORG $+3
$SG226892 DB	'Moving to airlift origin plot, X: %d, Y: %d', 00H
$SG226912 DB	'Unassigned %s at, X: %d, Y: %d', 00H
	ORG $+1
$SG226925 DB	'Founded city at, X: %d, Y: %d', 00H
	ORG $+2
$SG227161 DB	'UnitGetSpecialExploreTarget', 00H
$SG227168 DB	'UnitID: %d used Sell Exotic Goods, X: %d, Y: %d', 00H
$SG227176 DB	'UnitID: %d has goody target, X: %d, Y: %d', 00H
	ORG $+2
$SG227189 DB	'UnitID: %d Moving to goody hut, X: %d, Y: %d, from X: %d'
	DB	' Y: %d', 00H
	ORG $+1
$SG227193 DB	'UnitID: %d No end turn plot to goody from, X: %d, Y: %d', 00H
$SG227197 DB	'UnitID: %d Can''t find path to goody from, X: %d, Y: %d', 00H
	ORG $+1
$SG227296 DB	'UnitID: %d Explored to nearby target, To X: %d, Y: %d, F'
	DB	'rom X: %d, Y: %d', 00H
	ORG $+7
$SG227298 DB	'UnitID: %d Explored to distant target, To X: %d, Y: %d, '
	DB	'From X: %d, Y: %d', 00H
	ORG $+2
$SG227303 DB	'UnitID: %d Explorer (human) found no target, X: %d, Y: %'
	DB	'd', 00H
	ORG $+2
$SG227308 DB	'UnitID: %d Explorer (AI) found no target, X: %d, Y: %d', 00H
	ORG $+1
$SG227318 DB	'UnitID: %d Disbanding explorer, X: %d, Y: %d', 00H
	ORG $+3
$SG227323 DB	'UnitID: %d Sea explorer (AI) found no target, X: %d, Y: '
	DB	'%d', 00H
	ORG $+1
$SG227343 DB	'BuilderTaskingLog.csv', 00H
	ORG $+2
$SG227348 DB	',', 00H
	ORG $+2
$SG227349 DB	'%d,', 00H
$SG227350 DB	'%d,', 00H
$SG227351 DB	'1st Safety,', 00H
$SG227357 DB	'BuilderTaskingLog.csv', 00H
	ORG $+2
$SG227362 DB	',', 00H
	ORG $+2
$SG227363 DB	'%d,', 00H
$SG227364 DB	'%d,', 00H
$SG227365 DB	'2nd Safety,', 00H
$SG227444 DB	'Moving %s to safety, X: %d, Y: %d', 00H
	ORG $+2
$SG227513 DB	'Great writer can''t find a Great Work slot. Running to s'
	DB	'afety', 00H
	ORG $+3
$SG227518 DB	'Creating Great Work at, X: %d, Y: %d', 00H
	ORG $+3
$SG227538 DB	'Moving and creating Great Work at, X: %d, Y: %d', 00H
$SG227542 DB	'Moving Great Writer toward Great Work city at, X: %d, Y:'
	DB	' %d', 00H
$SG227546 DB	'Could not find a target for Great Writer at, X: %d, Y: %'
	DB	'd', 00H
	ORG $+2
$SG227570 DB	'Great artist can''t find a Great Work slot. Running to s'
	DB	'afety', 00H
	ORG $+3
$SG227575 DB	'Creating Great Work at, X: %d, Y: %d', 00H
	ORG $+3
$SG227595 DB	'Moving and creating Great Work at, X: %d, Y: %d', 00H
$SG227599 DB	'Moving Great Artist toward Great Work city at, X: %d, Y:'
	DB	' %d', 00H
$SG227603 DB	'Could not find a target for Great Artist at, X: %d, Y: %'
	DB	'd', 00H
	ORG $+2
$SG227627 DB	'Great musician can''t find a Great Work slot. Running to'
	DB	' safety', 00H
	ORG $+1
$SG227632 DB	'Creating Great Work at, X: %d, Y: %d', 00H
	ORG $+3
$SG227652 DB	'Moving and creating Great Work at, X: %d, Y: %d', 00H
$SG227656 DB	'Moving Great Musician toward Great Work city at, X: %d, '
	DB	'Y: %d', 00H
	ORG $+2
$SG227660 DB	'Could not find a target for Great Musician at, X: %d, Y:'
	DB	' %d', 00H
$SG227681 DB	'Great scientist discovered free tech at, X: %d, Y: %d', 00H
	ORG $+6
$SG227710 DB	'Great builder can''t find a good wonder to build. Runnin'
	DB	'g to safety', 00H
	ORG $+5
$SG227723 DB	'Great Engineer hurrying wonder chosen by city specializa'
	DB	'tion AI at, X: %d, Y: %d', 00H
	ORG $+7
$SG227728 DB	'Moving Great Engineer to city specialization wonder city'
	DB	' at, X: %d, Y: %d', 00H
	ORG $+2
$SG227736 DB	'Great Engineer hurrying free wonder at, X: %d, Y: %d', 00H
	ORG $+7
$SG227740 DB	'Great Engineer not needed to hurry 1-turn wonder at, X: '
	DB	'%d, Y: %d', 00H
	ORG $+2
$SG227745 DB	'Moving Great Engineer for free wonder to city at, X: %d,'
	DB	' Y: %d', 00H
	ORG $+1
$SG227785 DB	'Great Prophet founding a religion, X: %d, Y: %d', 00H
$SG227789 DB	'Great Prophet enhancing a religion, X: %d, Y: %d', 00H
	ORG $+3
$SG227812 DB	'Moving Great Prophet to nearest city without civilian, X'
	DB	': %d, Y: %d', 00H
$SG227816 DB	'No place to move Great Prophet at, X: %d, Y: %d', 00H
$SG227825 DB	'Spreading religion, X: %d, Y: %d', 00H
	ORG $+3
$SG227831 DB	'Move to spread religion, X: %d, Y: %d', 00H
	ORG $+2
$SG227836 DB	'Moving to plot adjacent to conversion city, X: %d, Y: %d'
	DB	', Currently at, X: %d, Y: %d', 00H
	ORG $+3
$SG227879 DB	'Great General culture bombed/citadel''d at, X: %d, Y: %d'
	DB	00H
$SG227883 DB	'Great general moving to culture bomb/citadel at, X: %d, '
	DB	'Y: %d', 00H
	ORG $+2
$SG227892 DB	'Great General remaining as garrison for %s, X: %d, Y: %d'
	DB	00H
	ORG $+3
$SG227919 DB	'Moving Great General to city garrison, X: %d, Y: %d', 00H
$SG227923 DB	'No place to move Great General at, X: %d, Y: %d', 00H
$SG228197 DB	'Great Admiral still in most favored city of %s, X: %d, Y'
	DB	': %d', 00H
	ORG $+3
$SG228203 DB	'Transferring Great Admiral to city of %s, X: %d, Y: %d', 00H
	ORG $+1
$SG228208 DB	'Moving Great Admiral normally to city of %s, X: %d, Y: %'
	DB	'd', 00H
	ORG $+2
$SG228212 DB	'No place to move Great Admiral at, X: %d, Y: %d', 00H
$SG228230 DB	'Spreading religion, X: %d, Y: %d', 00H
	ORG $+3
$SG228236 DB	'Move to spread religion, X: %d, Y: %d', 00H
	ORG $+2
$SG228241 DB	'Moving to plot adjacent to conversion city, X: %d, Y: %d'
	DB	', Currently at, X: %d, Y: %d', 00H
	ORG $+3
$SG228259 DB	'Removing heresy, X: %d, Y: %d', 00H
	ORG $+2
$SG228265 DB	'Move to remove heresy, X: %d, Y: %d', 00H
$SG228323 DB	'Moving %s to spaceship and adding it directly in', 00H
	ORG $+3
$SG228270 DB	'Moving to plot adjacent to heresy removal city, X: %d, Y'
	DB	': %d, Currently at, X: %d, Y: %d', 00H
	ORG $+3
$SG228293 DB	'Moving %s to spaceship - now at, X: %d, Y: %d', 00H
	ORG $+2
$SG228316 DB	'Adding %s to spaceship, X: %d, Y: %d', 00H
	ORG $+3
$SG228345 DB	'Moving %s to capital - now at, X: %d, Y: %d', 00H
$SG228390 DB	'Rebasing %s to city garrison, X: %d, Y: %d', 00H
	ORG $+1
$SG228392 DB	'Rebasing %s onto %s, X: %d, Y: %d', 00H
	ORG $+2
$SG228397 DB	'No better place to move %s at, X: %d, Y: %d', 00H
$SG228516 DB	'Establishing trade route, X: %d, Y: %d, production', 00H
	ORG $+1
$SG228450 DB	'%s (%d) tried to move to safety but is at the best spot,'
	DB	' X: %d, Y: %d', 00H
	ORG $+2
$SG228456 DB	'%s (%d) tried to move to safety but cannot hold in curre'
	DB	'nt location, X: %d, Y: %d', 00H
	ORG $+2
$SG228461 DB	'%s (%d) moving to safety, X: %d, Y: %d', 00H
	ORG $+5
$SG228467 DB	'%s (%d) tried to move to a safe point but couldn''t find'
	DB	' a good place to go', 00H
	ORG $+5
$SG228495 DB	'Disbanding unit because we want different domains for ou'
	DB	'r trade units', 00H
	ORG $+2
$SG228502 DB	'Changing trade route home city, X: %d, Y: %d', 00H
	ORG $+3
$SG228512 DB	'Establishing trade route, X: %d, Y: %d, food', 00H
	ORG $+3
$SG228514 DB	'Establishing trade route, X: %d, Y: %d, gold', 00H
	ORG $+3
$SG228520 DB	'Trade unit idling', 00H
	ORG $+2
$SG228536 DB	'BUILD_ARCHAEOLOGY_DIG', 00H
	ORG $+2
$SG228540 DB	'Archaeologist moving to site at, X: %d, Y: %d', 00H
	ORG $+2
$SG228544 DB	'Archaeologist creating dig at, X: %d, Y: %d', 00H
$SG228728 DB	'AI Patrol', 00H
	ORG $+2
$SG228732 DB	'Adjacent Patrol Plot Score, %i, %i, %i', 00H
	ORG $+1
$SG228737 DB	'Adjacent Patrol Plot !GeneratePath(), , %i, %i', 00H
	ORG $+1
$SG228741 DB	'Adjacent Patrol Plot !isVisibleEnemyUnit(), , %i, %i', 00H
	ORG $+3
$SG228745 DB	'Adjacent Patrol Plot not valid, , %i, %i', 00H
	ORG $+3
$SG228749 DB	'Adjacent Patrol Plot not found', 00H
	ORG $+1
$SG228753 DB	'Patrol Target FOUND, %i, %i, %i', 00H
$SG228757 DB	'Patrol Target NOT FOUND', 00H
$SG228899 DB	'%03d, ', 00H
	ORG $+1
$SG228901 DB	', ', 00H
	ORG $+1
$SG228912 DB	'PlayerHomelandAIPatrolLog.csv', 00H
	ORG $+2
$SG228917 DB	',', 00H
	ORG $+2
$SG228918 DB	'%d,', 00H
$SG228919 DB	'%s (%d),', 00H
	ORG $+3
$SG228946 DB	'BuilderTaskingLog.csv', 00H
	ORG $+2
$SG228951 DB	',', 00H
	ORG $+2
$SG228952 DB	'%d,', 00H
$SG228953 DB	'%d,', 00H
$SG228959 DB	'On resource,', 00H
	ORG $+3
$SG228961 DB	'On plot,', 00H
	ORG $+3
$SG228963 DB	'Repairing,', 00H
	ORG $+1
$SG228965 DB	'Building route,', 00H
$SG228967 DB	'Removing resource for production,', 00H
	ORG $+2
$SG228969 DB	'Removing road,', 00H
	ORG $+1
$SG228973 DB	'Repairing improvement', 00H
	ORG $+2
$SG228975 DB	'Repairing route', 00H
$SG228978 DB	'Building route,', 00H
$SG228982 DB	'Building improvement,', 00H
	ORG $+2
$SG228985 DB	'Removing feature for production,', 00H
	ORG $+3
$SG228987 DB	'Removing road,', 00H
	ORG $+1
$SG228989 DB	'Moving to location,', 00H
$SG229001 DB	'BuilderTaskingLog.csv', 00H
	ORG $+2
$SG229003 DB	'builder has no directive', 00H
	ORG $+3
$SG229023 DB	'%s blasted culture with unit at, X: %d, Y: %d', 00H
	ORG $+2
$SG229033 DB	'%s started golden age with unit at, X: %d, Y: %d', 00H
	ORG $+3
$SG229061 DB	'UnitID: %d Moving to script explore target, X: %d, Y: %d'
	DB	', from X: %d Y: %d', 00H
	ORG $+1
$SG229071 DB	'.csv', 00H
	ORG $+3
$SG229072 DB	'PlayerHomelandAILog_', 00H
	ORG $+3
$SG229074 DB	'PlayerHomelandAILog.csv', 00H
CONST	ENDS
;	COMDAT ?NO_TURN@CvMinorCivQuest@@2HB
CONST	SEGMENT
?NO_TURN@CvMinorCivQuest@@2HB DD 0ffffffffH		; CvMinorCivQuest::NO_TURN
CONST	ENDS
;	COMDAT ?NO_QUEST_DATA@CvMinorCivQuest@@2HB
CONST	SEGMENT
?NO_QUEST_DATA@CvMinorCivQuest@@2HB DD 0ffffffffH	; CvMinorCivQuest::NO_QUEST_DATA
CONST	ENDS
PUBLIC	?wrapCoordDifference@@YAHHI_N@Z			; wrapCoordDifference
; Function compile flags: /Ogtpy
; File s:\lekmod_dll\cvgamecoredll_expansion2\cvgamecoreutils.h
;	COMDAT ?wrapCoordDifference@@YAHHI_N@Z
_TEXT	SEGMENT
_iDiff$ = 8						; size = 4
_uiRange$ = 12						; size = 4
_bWrap$ = 16						; size = 1
?wrapCoordDifference@@YAHHI_N@Z PROC			; wrapCoordDifference, COMDAT

; 57   : 	if(bWrap)

	cmp	BYTE PTR _bWrap$[esp-4], 0
	mov	eax, DWORD PTR _iDiff$[esp-4]
	je	SHORT $LN5@wrapCoordD

; 58   : 	{
; 59   : 		if(iDiff > (int)(uiRange >> 1))		// Using an unsigned int so we can safely assume that value >> 1 == value / 2

	mov	edx, DWORD PTR _uiRange$[esp-4]
	mov	ecx, edx
	shr	ecx, 1
	cmp	eax, ecx
	jle	SHORT $LN3@wrapCoordD

; 60   : 		{
; 61   : 			return (iDiff - (int)uiRange);

	sub	eax, edx

; 66   : 		}
; 67   : 	}
; 68   : 
; 69   : 	return iDiff;
; 70   : }

	ret	0
$LN3@wrapCoordD:

; 62   : 		}
; 63   : 		else if(iDiff < -(int)(uiRange >> 1))

	neg	ecx
	cmp	eax, ecx
	jge	SHORT $LN5@wrapCoordD

; 64   : 		{
; 65   : 			return (iDiff + (int)uiRange);

	add	eax, edx
$LN5@wrapCoordD:

; 66   : 		}
; 67   : 	}
; 68   : 
; 69   : 	return iDiff;
; 70   : }

	ret	0
?wrapCoordDifference@@YAHHI_N@Z ENDP			; wrapCoordDifference
_TEXT	ENDS
PUBLIC	?xToHexspaceX@@YAHHH@Z				; xToHexspaceX
; Function compile flags: /Ogtpy
;	COMDAT ?xToHexspaceX@@YAHHH@Z
_TEXT	SEGMENT
_iX$ = 8						; size = 4
_iY$ = 12						; size = 4
?xToHexspaceX@@YAHHH@Z PROC				; xToHexspaceX, COMDAT

; 86   : 	return iX - ((iY >= 0) ? (iY>>1) : ((iY - 1)/2));

	mov	ecx, DWORD PTR _iY$[esp-4]
	test	ecx, ecx
	jge	SHORT $LN5@xToHexspac
	lea	eax, DWORD PTR [ecx-1]
	cdq
	sub	eax, edx
	mov	ecx, eax
$LN5@xToHexspac:
	mov	eax, DWORD PTR _iX$[esp-4]
	sar	ecx, 1
	sub	eax, ecx

; 87   : }

	ret	0
?xToHexspaceX@@YAHHH@Z ENDP				; xToHexspaceX
_TEXT	ENDS
PUBLIC	?hexspaceXToX@@YAHHH@Z				; hexspaceXToX
; Function compile flags: /Ogtpy
;	COMDAT ?hexspaceXToX@@YAHHH@Z
_TEXT	SEGMENT
_iHexspaceX$ = 8					; size = 4
_iHexspaceY$ = 12					; size = 4
?hexspaceXToX@@YAHHH@Z PROC				; hexspaceXToX, COMDAT

; 91   : 	return iHexspaceX + ((iHexspaceY >= 0) ? (iHexspaceY>>1) : ((iHexspaceY - 1)/2));

	mov	eax, DWORD PTR _iHexspaceY$[esp-4]
	test	eax, eax
	jl	SHORT $LN3@hexspaceXT
	mov	ecx, DWORD PTR _iHexspaceX$[esp-4]
	sar	eax, 1
	add	eax, ecx

; 92   : }

	ret	0
$LN3@hexspaceXT:

; 91   : 	return iHexspaceX + ((iHexspaceY >= 0) ? (iHexspaceY>>1) : ((iHexspaceY - 1)/2));

	dec	eax
	cdq
	sub	eax, edx
	mov	edx, DWORD PTR _iHexspaceX$[esp-4]
	sar	eax, 1
	add	eax, edx

; 92   : }

	ret	0
?hexspaceXToX@@YAHHH@Z ENDP				; hexspaceXToX
_TEXT	ENDS
PUBLIC	?GetReconState@CvEconomicAI@@QBE?AW4ReconState@@XZ ; CvEconomicAI::GetReconState
; Function compile flags: /Ogtpy
; File s:\lekmod_dll\cvgamecoredll_expansion2\cveconomicai.h
;	COMDAT ?GetReconState@CvEconomicAI@@QBE?AW4ReconState@@XZ
_TEXT	SEGMENT
?GetReconState@CvEconomicAI@@QBE?AW4ReconState@@XZ PROC	; CvEconomicAI::GetReconState, COMDAT
; _this$ = ecx

; 216  : 		return m_eReconState;

	mov	eax, DWORD PTR [ecx+28]

; 217  : 	};

	ret	0
?GetReconState@CvEconomicAI@@QBE?AW4ReconState@@XZ ENDP	; CvEconomicAI::GetReconState
_TEXT	ENDS
PUBLIC	?IncrementExplorersDisbanded@CvEconomicAI@@QAEXXZ ; CvEconomicAI::IncrementExplorersDisbanded
; Function compile flags: /Ogtpy
;	COMDAT ?IncrementExplorersDisbanded@CvEconomicAI@@QAEXXZ
_TEXT	SEGMENT
?IncrementExplorersDisbanded@CvEconomicAI@@QAEXXZ PROC	; CvEconomicAI::IncrementExplorersDisbanded, COMDAT
; _this$ = ecx

; 224  : 		m_iExplorersDisbanded++;

	inc	DWORD PTR [ecx+36]

; 225  : 	};

	ret	0
?IncrementExplorersDisbanded@CvEconomicAI@@QAEXXZ ENDP	; CvEconomicAI::IncrementExplorersDisbanded
_TEXT	ENDS
PUBLIC	??0CvHomelandUnit@@QAE@XZ			; CvHomelandUnit::CvHomelandUnit
; Function compile flags: /Ogtpy
; File s:\lekmod_dll\cvgamecoredll_expansion2\cvhomelandai.cpp
;	COMDAT ??0CvHomelandUnit@@QAE@XZ
_TEXT	SEGMENT
??0CvHomelandUnit@@QAE@XZ PROC				; CvHomelandUnit::CvHomelandUnit, COMDAT
; _this$ = ecx

; 28   : {

	mov	eax, ecx
	xor	ecx, ecx
	mov	DWORD PTR [eax], ecx
	mov	DWORD PTR [eax+4], ecx
	mov	DWORD PTR [eax+8], ecx
	mov	DWORD PTR [eax+12], ecx

; 29   : }

	ret	0
??0CvHomelandUnit@@QAE@XZ ENDP				; CvHomelandUnit::CvHomelandUnit
_TEXT	ENDS
PUBLIC	?Uninit@CvHomelandAI@@QAEXXZ			; CvHomelandAI::Uninit
; Function compile flags: /Ogtpy
;	COMDAT ?Uninit@CvHomelandAI@@QAEXXZ
_TEXT	SEGMENT
?Uninit@CvHomelandAI@@QAEXXZ PROC			; CvHomelandAI::Uninit, COMDAT
; _this$ = ecx

; 72   : }

	ret	0
?Uninit@CvHomelandAI@@QAEXXZ ENDP			; CvHomelandAI::Uninit
_TEXT	ENDS
PUBLIC	?Reset@CvHomelandAI@@QAEXXZ			; CvHomelandAI::Reset
; Function compile flags: /Ogtpy
;	COMDAT ?Reset@CvHomelandAI@@QAEXXZ
_TEXT	SEGMENT
?Reset@CvHomelandAI@@QAEXXZ PROC			; CvHomelandAI::Reset, COMDAT
; _this$ = ecx

; 77   : 	m_MovePriorityTurn = -1;
; 78   : 	m_CurrentBestMoveUnit = NULL;

	xor	eax, eax
	mov	DWORD PTR [ecx+2396], eax

; 79   : 	m_CurrentBestMoveHighPriorityUnit = NULL;

	mov	DWORD PTR [ecx+2404], eax

; 80   : 	m_iCurrentBestMoveUnitTurns = MAX_INT;

	mov	eax, 2147483647				; 7fffffffH
	mov	DWORD PTR [ecx+2392], -1
	mov	DWORD PTR [ecx+2400], eax

; 81   : 	m_iCurrentBestMoveHighPriorityUnitTurns = MAX_INT;

	mov	DWORD PTR [ecx+2408], eax

; 82   : }

	ret	0
?Reset@CvHomelandAI@@QAEXXZ ENDP			; CvHomelandAI::Reset
_TEXT	ENDS
PUBLIC	?DoTurn@CvHomelandAI@@QAEXXZ			; CvHomelandAI::DoTurn
; Function compile flags: /Ogtpy
;	COMDAT ?DoTurn@CvHomelandAI@@QAEXXZ
_TEXT	SEGMENT
?DoTurn@CvHomelandAI@@QAEXXZ PROC			; CvHomelandAI::DoTurn, COMDAT
; _this$ = ecx

; 144  : }

	ret	0
?DoTurn@CvHomelandAI@@QAEXXZ ENDP			; CvHomelandAI::DoTurn
; Function compile flags: /Ogtpy
_TEXT	ENDS
;	COMDAT ?SortUnitDistance@@YA_NABU?$pair@HPAVCvPlot@@@std@@0@Z
_TEXT	SEGMENT
_kEntry1$ = 8						; size = 4
_kEntry2$ = 12						; size = 4
?SortUnitDistance@@YA_NABU?$pair@HPAVCvPlot@@@std@@0@Z PROC ; SortUnitDistance, COMDAT

; 175  : 	return kEntry1.first < kEntry2.first;

	mov	eax, DWORD PTR _kEntry1$[esp-4]
	mov	ecx, DWORD PTR [eax]
	mov	edx, DWORD PTR _kEntry2$[esp-4]
	xor	eax, eax
	cmp	ecx, DWORD PTR [edx]
	setl	al

; 176  : }

	ret	0
?SortUnitDistance@@YA_NABU?$pair@HPAVCvPlot@@@std@@0@Z ENDP ; SortUnitDistance
_TEXT	ENDS
PUBLIC	??_7bad_alloc@std@@6B@				; std::bad_alloc::`vftable'
PUBLIC	??0bad_alloc@std@@QAE@PBD@Z			; std::bad_alloc::bad_alloc
PUBLIC	??_R4bad_alloc@std@@6B@				; std::bad_alloc::`RTTI Complete Object Locator'
PUBLIC	??_R0?AVbad_alloc@std@@@8			; std::bad_alloc `RTTI Type Descriptor'
PUBLIC	??_R3bad_alloc@std@@8				; std::bad_alloc::`RTTI Class Hierarchy Descriptor'
PUBLIC	??_R2bad_alloc@std@@8				; std::bad_alloc::`RTTI Base Class Array'
PUBLIC	??_R1A@?0A@EA@bad_alloc@std@@8			; std::bad_alloc::`RTTI Base Class Descriptor at (0,-1,0,64)'
PUBLIC	??_R1A@?0A@EA@exception@std@@8			; std::exception::`RTTI Base Class Descriptor at (0,-1,0,64)'
PUBLIC	??_R0?AVexception@std@@@8			; std::exception `RTTI Type Descriptor'
PUBLIC	??_R3exception@std@@8				; std::exception::`RTTI Class Hierarchy Descriptor'
PUBLIC	??_R2exception@std@@8				; std::exception::`RTTI Base Class Array'
EXTRN	__imp_??0exception@std@@QAE@ABQBD@Z:PROC
EXTRN	??_7type_info@@6B@:QWORD			; type_info::`vftable'
EXTRN	??_Ebad_alloc@std@@UAEPAXI@Z:PROC		; std::bad_alloc::`vector deleting destructor'
EXTRN	?what@exception@std@@UBEPBDXZ:PROC		; std::exception::what
;	COMDAT ??_R2exception@std@@8
; File s:\msvs2008\vc\include\exception
rdata$r	SEGMENT
??_R2exception@std@@8 DD FLAT:??_R1A@?0A@EA@exception@std@@8 ; std::exception::`RTTI Base Class Array'
rdata$r	ENDS
;	COMDAT ??_R3exception@std@@8
rdata$r	SEGMENT
??_R3exception@std@@8 DD 00H				; std::exception::`RTTI Class Hierarchy Descriptor'
	DD	00H
	DD	01H
	DD	FLAT:??_R2exception@std@@8
rdata$r	ENDS
;	COMDAT ??_R0?AVexception@std@@@8
_DATA	SEGMENT
??_R0?AVexception@std@@@8 DD FLAT:??_7type_info@@6B@	; std::exception `RTTI Type Descriptor'
	DD	00H
	DB	'.?AVexception@std@@', 00H
_DATA	ENDS
;	COMDAT ??_R1A@?0A@EA@exception@std@@8
rdata$r	SEGMENT
??_R1A@?0A@EA@exception@std@@8 DD FLAT:??_R0?AVexception@std@@@8 ; std::exception::`RTTI Base Class Descriptor at (0,-1,0,64)'
	DD	00H
	DD	00H
	DD	0ffffffffH
	DD	00H
	DD	040H
	DD	FLAT:??_R3exception@std@@8
rdata$r	ENDS
;	COMDAT ??_R1A@?0A@EA@bad_alloc@std@@8
rdata$r	SEGMENT
??_R1A@?0A@EA@bad_alloc@std@@8 DD FLAT:??_R0?AVbad_alloc@std@@@8 ; std::bad_alloc::`RTTI Base Class Descriptor at (0,-1,0,64)'
	DD	01H
	DD	00H
	DD	0ffffffffH
	DD	00H
	DD	040H
	DD	FLAT:??_R3bad_alloc@std@@8
rdata$r	ENDS
;	COMDAT ??_R2bad_alloc@std@@8
rdata$r	SEGMENT
??_R2bad_alloc@std@@8 DD FLAT:??_R1A@?0A@EA@bad_alloc@std@@8 ; std::bad_alloc::`RTTI Base Class Array'
	DD	FLAT:??_R1A@?0A@EA@exception@std@@8
rdata$r	ENDS
;	COMDAT ??_R3bad_alloc@std@@8
rdata$r	SEGMENT
??_R3bad_alloc@std@@8 DD 00H				; std::bad_alloc::`RTTI Class Hierarchy Descriptor'
	DD	00H
	DD	02H
	DD	FLAT:??_R2bad_alloc@std@@8
rdata$r	ENDS
;	COMDAT ??_R0?AVbad_alloc@std@@@8
_DATA	SEGMENT
??_R0?AVbad_alloc@std@@@8 DD FLAT:??_7type_info@@6B@	; std::bad_alloc `RTTI Type Descriptor'
	DD	00H
	DB	'.?AVbad_alloc@std@@', 00H
_DATA	ENDS
;	COMDAT ??_R4bad_alloc@std@@6B@
rdata$r	SEGMENT
??_R4bad_alloc@std@@6B@ DD 00H				; std::bad_alloc::`RTTI Complete Object Locator'
	DD	00H
	DD	00H
	DD	FLAT:??_R0?AVbad_alloc@std@@@8
	DD	FLAT:??_R3bad_alloc@std@@8
rdata$r	ENDS
;	COMDAT ??_7bad_alloc@std@@6B@
CONST	SEGMENT
??_7bad_alloc@std@@6B@ DD FLAT:??_R4bad_alloc@std@@6B@	; std::bad_alloc::`vftable'
	DD	FLAT:??_Ebad_alloc@std@@UAEPAXI@Z
	DD	FLAT:?what@exception@std@@UBEPBDXZ
; Function compile flags: /Ogtpy
CONST	ENDS
;	COMDAT ??0bad_alloc@std@@QAE@PBD@Z
_TEXT	SEGMENT
__Message$ = 8						; size = 4
??0bad_alloc@std@@QAE@PBD@Z PROC			; std::bad_alloc::bad_alloc, COMDAT
; _this$ = ecx

; 371  : 		{	// construct from message string

	push	esi
	lea	eax, DWORD PTR __Message$[esp]
	push	eax
	mov	esi, ecx
	call	DWORD PTR __imp_??0exception@std@@QAE@ABQBD@Z
	mov	DWORD PTR [esi], OFFSET ??_7bad_alloc@std@@6B@

; 372  : 		}

	mov	eax, esi
	pop	esi
	ret	4
??0bad_alloc@std@@QAE@PBD@Z ENDP			; std::bad_alloc::bad_alloc
_TEXT	ENDS
PUBLIC	??1bad_alloc@std@@UAE@XZ			; std::bad_alloc::~bad_alloc
EXTRN	__imp_??1exception@std@@UAE@XZ:PROC
; Function compile flags: /Ogtpy
;	COMDAT ??1bad_alloc@std@@UAE@XZ
_TEXT	SEGMENT
??1bad_alloc@std@@UAE@XZ PROC				; std::bad_alloc::~bad_alloc, COMDAT
; _this$ = ecx

; 380  : 		{	// destroy the object

	mov	DWORD PTR [ecx], OFFSET ??_7bad_alloc@std@@6B@

; 381  : 		}

	jmp	DWORD PTR __imp_??1exception@std@@UAE@XZ
??1bad_alloc@std@@UAE@XZ ENDP				; std::bad_alloc::~bad_alloc
_TEXT	ENDS
EXTRN	??3@YAXPAX@Z:PROC				; operator delete
; Function compile flags: /Ogtpy
;	COMDAT ??_Gbad_alloc@std@@UAEPAXI@Z
_TEXT	SEGMENT
___flags$ = 8						; size = 4
??_Gbad_alloc@std@@UAEPAXI@Z PROC			; std::bad_alloc::`scalar deleting destructor', COMDAT
; _this$ = ecx
	push	esi
	mov	esi, ecx
	mov	DWORD PTR [esi], OFFSET ??_7bad_alloc@std@@6B@
	call	DWORD PTR __imp_??1exception@std@@UAE@XZ
	test	BYTE PTR ___flags$[esp], 1
	je	SHORT $LN6@scalar
	push	esi
	call	??3@YAXPAX@Z				; operator delete
	add	esp, 4
$LN6@scalar:
	mov	eax, esi
	pop	esi
	ret	4
??_Gbad_alloc@std@@UAEPAXI@Z ENDP			; std::bad_alloc::`scalar deleting destructor'
_TEXT	ENDS
PUBLIC	??2@YAPAXIPAX@Z					; operator new
; Function compile flags: /Ogtpy
; File s:\msvs2008\vc\include\new
;	COMDAT ??2@YAPAXIPAX@Z
_TEXT	SEGMENT
___formal$ = 8						; size = 4
__Where$ = 12						; size = 4
??2@YAPAXIPAX@Z PROC					; operator new, COMDAT

; 59   : 	return (_Where);

	mov	eax, DWORD PTR __Where$[esp-4]

; 60   : 	}

	ret	0
??2@YAPAXIPAX@Z ENDP					; operator new
_TEXT	ENDS
PUBLIC	??3@YAXPAX0@Z					; operator delete
; Function compile flags: /Ogtpy
;	COMDAT ??3@YAXPAX0@Z
_TEXT	SEGMENT
___formal$ = 8						; size = 4
___formal$ = 12						; size = 4
??3@YAXPAX0@Z PROC					; operator delete, COMDAT

; 64   : 	}

	ret	0
??3@YAXPAX0@Z ENDP					; operator delete
_TEXT	ENDS
PUBLIC	??_7logic_error@std@@6B@			; std::logic_error::`vftable'
PUBLIC	??0logic_error@std@@QAE@ABV?$basic_string@DU?$char_traits@D@std@@V?$allocator@D@2@@1@@Z ; std::logic_error::logic_error
PUBLIC	??_R4logic_error@std@@6B@			; std::logic_error::`RTTI Complete Object Locator'
PUBLIC	??_R0?AVlogic_error@std@@@8			; std::logic_error `RTTI Type Descriptor'
PUBLIC	??_R3logic_error@std@@8				; std::logic_error::`RTTI Class Hierarchy Descriptor'
PUBLIC	??_R2logic_error@std@@8				; std::logic_error::`RTTI Base Class Array'
PUBLIC	??_R1A@?0A@EA@logic_error@std@@8		; std::logic_error::`RTTI Base Class Descriptor at (0,-1,0,64)'
PUBLIC	?what@logic_error@std@@UBEPBDXZ			; std::logic_error::what
EXTRN	__imp_??0?$basic_string@DU?$char_traits@D@std@@V?$allocator@D@2@@std@@QAE@ABV01@@Z:PROC
EXTRN	__imp_??0exception@std@@QAE@XZ:PROC
EXTRN	___CxxFrameHandler3:PROC
EXTRN	??_Elogic_error@std@@UAEPAXI@Z:PROC		; std::logic_error::`vector deleting destructor'
;	COMDAT ??_R1A@?0A@EA@logic_error@std@@8
; File s:\msvs2008\vc\include\stdexcept
rdata$r	SEGMENT
??_R1A@?0A@EA@logic_error@std@@8 DD FLAT:??_R0?AVlogic_error@std@@@8 ; std::logic_error::`RTTI Base Class Descriptor at (0,-1,0,64)'
	DD	01H
	DD	00H
	DD	0ffffffffH
	DD	00H
	DD	040H
	DD	FLAT:??_R3logic_error@std@@8
rdata$r	ENDS
;	COMDAT ??_R2logic_error@std@@8
rdata$r	SEGMENT
??_R2logic_error@std@@8 DD FLAT:??_R1A@?0A@EA@logic_error@std@@8 ; std::logic_error::`RTTI Base Class Array'
	DD	FLAT:??_R1A@?0A@EA@exception@std@@8
rdata$r	ENDS
;	COMDAT ??_R3logic_error@std@@8
rdata$r	SEGMENT
??_R3logic_error@std@@8 DD 00H				; std::logic_error::`RTTI Class Hierarchy Descriptor'
	DD	00H
	DD	02H
	DD	FLAT:??_R2logic_error@std@@8
rdata$r	ENDS
;	COMDAT ??_R0?AVlogic_error@std@@@8
_DATA	SEGMENT
??_R0?AVlogic_error@std@@@8 DD FLAT:??_7type_info@@6B@	; std::logic_error `RTTI Type Descriptor'
	DD	00H
	DB	'.?AVlogic_error@std@@', 00H
_DATA	ENDS
;	COMDAT ??_R4logic_error@std@@6B@
rdata$r	SEGMENT
??_R4logic_error@std@@6B@ DD 00H			; std::logic_error::`RTTI Complete Object Locator'
	DD	00H
	DD	00H
	DD	FLAT:??_R0?AVlogic_error@std@@@8
	DD	FLAT:??_R3logic_error@std@@8
rdata$r	ENDS
;	COMDAT ??_7logic_error@std@@6B@
CONST	SEGMENT
??_7logic_error@std@@6B@ DD FLAT:??_R4logic_error@std@@6B@ ; std::logic_error::`vftable'
	DD	FLAT:??_Elogic_error@std@@UAEPAXI@Z
	DD	FLAT:?what@logic_error@std@@UBEPBDXZ
CONST	ENDS
;	COMDAT xdata$x
xdata$x	SEGMENT
__unwindtable$??0logic_error@std@@QAE@ABV?$basic_string@DU?$char_traits@D@std@@V?$allocator@D@2@@1@@Z DD 0ffffffffH
	DD	FLAT:__unwindfunclet$??0logic_error@std@@QAE@ABV?$basic_string@DU?$char_traits@D@std@@V?$allocator@D@2@@1@@Z$0
__ehfuncinfo$??0logic_error@std@@QAE@ABV?$basic_string@DU?$char_traits@D@std@@V?$allocator@D@2@@1@@Z DD 019930522H
	DD	01H
	DD	FLAT:__unwindtable$??0logic_error@std@@QAE@ABV?$basic_string@DU?$char_traits@D@std@@V?$allocator@D@2@@1@@Z
	DD	2 DUP(00H)
	DD	2 DUP(00H)
	DD	00H
	DD	01H
; Function compile flags: /Ogtpy
xdata$x	ENDS
;	COMDAT ??0logic_error@std@@QAE@ABV?$basic_string@DU?$char_traits@D@std@@V?$allocator@D@2@@1@@Z
_TEXT	SEGMENT
_this$ = -16						; size = 4
__$EHRec$ = -12						; size = 12
__Message$ = 8						; size = 4
??0logic_error@std@@QAE@ABV?$basic_string@DU?$char_traits@D@std@@V?$allocator@D@2@@1@@Z PROC ; std::logic_error::logic_error, COMDAT
; _this$ = ecx

; 26   : 		{	// construct from message string

	push	-1
	push	__ehhandler$??0logic_error@std@@QAE@ABV?$basic_string@DU?$char_traits@D@std@@V?$allocator@D@2@@1@@Z
	mov	eax, DWORD PTR fs:0
	push	eax
	mov	DWORD PTR fs:0, esp
	push	ecx
	push	esi
	mov	esi, ecx
	mov	DWORD PTR _this$[esp+20], esi
	call	DWORD PTR __imp_??0exception@std@@QAE@XZ
	mov	eax, DWORD PTR __Message$[esp+16]
	push	eax
	lea	ecx, DWORD PTR [esi+12]
	mov	DWORD PTR __$EHRec$[esp+32], 0
	mov	DWORD PTR [esi], OFFSET ??_7logic_error@std@@6B@
	call	DWORD PTR __imp_??0?$basic_string@DU?$char_traits@D@std@@V?$allocator@D@2@@std@@QAE@ABV01@@Z

; 27   : 		}

	mov	ecx, DWORD PTR __$EHRec$[esp+20]
	mov	eax, esi
	pop	esi
	mov	DWORD PTR fs:0, ecx
	add	esp, 16					; 00000010H
	ret	4
_TEXT	ENDS
;	COMDAT text$x
text$x	SEGMENT
__unwindfunclet$??0logic_error@std@@QAE@ABV?$basic_string@DU?$char_traits@D@std@@V?$allocator@D@2@@1@@Z$0:
	mov	ecx, DWORD PTR _this$[ebp]
	jmp	DWORD PTR __imp_??1exception@std@@UAE@XZ
__ehhandler$??0logic_error@std@@QAE@ABV?$basic_string@DU?$char_traits@D@std@@V?$allocator@D@2@@1@@Z:
	mov	eax, OFFSET __ehfuncinfo$??0logic_error@std@@QAE@ABV?$basic_string@DU?$char_traits@D@std@@V?$allocator@D@2@@1@@Z
	jmp	___CxxFrameHandler3
text$x	ENDS
??0logic_error@std@@QAE@ABV?$basic_string@DU?$char_traits@D@std@@V?$allocator@D@2@@1@@Z ENDP ; std::logic_error::logic_error
PUBLIC	??1logic_error@std@@UAE@XZ			; std::logic_error::~logic_error
EXTRN	__imp_??1?$basic_string@DU?$char_traits@D@std@@V?$allocator@D@2@@std@@QAE@XZ:PROC
; Function compile flags: /Ogtpy
;	COMDAT ??1logic_error@std@@UAE@XZ
_TEXT	SEGMENT
??1logic_error@std@@UAE@XZ PROC				; std::logic_error::~logic_error, COMDAT
; _this$ = ecx

; 30   : 		{	// destroy the object

	push	esi
	mov	esi, ecx

; 31   : 		}

	lea	ecx, DWORD PTR [esi+12]
	mov	DWORD PTR [esi], OFFSET ??_7logic_error@std@@6B@
	call	DWORD PTR __imp_??1?$basic_string@DU?$char_traits@D@std@@V?$allocator@D@2@@std@@QAE@XZ
	mov	ecx, esi
	pop	esi
	jmp	DWORD PTR __imp_??1exception@std@@UAE@XZ
??1logic_error@std@@UAE@XZ ENDP				; std::logic_error::~logic_error
_TEXT	ENDS
EXTRN	__imp_?c_str@?$basic_string@DU?$char_traits@D@std@@V?$allocator@D@2@@std@@QBEPBDXZ:PROC
; Function compile flags: /Ogtpy
;	COMDAT ?what@logic_error@std@@UBEPBDXZ
_TEXT	SEGMENT
?what@logic_error@std@@UBEPBDXZ PROC			; std::logic_error::what, COMDAT
; _this$ = ecx

; 35   : 		return (_Str.c_str());

	add	ecx, 12					; 0000000cH
	jmp	DWORD PTR __imp_?c_str@?$basic_string@DU?$char_traits@D@std@@V?$allocator@D@2@@std@@QBEPBDXZ
?what@logic_error@std@@UBEPBDXZ ENDP			; std::logic_error::what
; Function compile flags: /Ogtpy
_TEXT	ENDS
;	COMDAT ??_Glogic_error@std@@UAEPAXI@Z
_TEXT	SEGMENT
___flags$ = 8						; size = 4
??_Glogic_error@std@@UAEPAXI@Z PROC			; std::logic_error::`scalar deleting destructor', COMDAT
; _this$ = ecx
	push	esi
	mov	esi, ecx
	lea	ecx, DWORD PTR [esi+12]
	mov	DWORD PTR [esi], OFFSET ??_7logic_error@std@@6B@
	call	DWORD PTR __imp_??1?$basic_string@DU?$char_traits@D@std@@V?$allocator@D@2@@std@@QAE@XZ
	mov	ecx, esi
	call	DWORD PTR __imp_??1exception@std@@UAE@XZ
	test	BYTE PTR ___flags$[esp], 1
	je	SHORT $LN6@scalar@2
	push	esi
	call	??3@YAXPAX@Z				; operator delete
	add	esp, 4
$LN6@scalar@2:
	mov	eax, esi
	pop	esi
	ret	4
??_Glogic_error@std@@UAEPAXI@Z ENDP			; std::logic_error::`scalar deleting destructor'
_TEXT	ENDS
PUBLIC	??_7length_error@std@@6B@			; std::length_error::`vftable'
PUBLIC	??0length_error@std@@QAE@ABV?$basic_string@DU?$char_traits@D@std@@V?$allocator@D@2@@1@@Z ; std::length_error::length_error
PUBLIC	??_R4length_error@std@@6B@			; std::length_error::`RTTI Complete Object Locator'
PUBLIC	??_R0?AVlength_error@std@@@8			; std::length_error `RTTI Type Descriptor'
PUBLIC	??_R3length_error@std@@8			; std::length_error::`RTTI Class Hierarchy Descriptor'
PUBLIC	??_R2length_error@std@@8			; std::length_error::`RTTI Base Class Array'
PUBLIC	??_R1A@?0A@EA@length_error@std@@8		; std::length_error::`RTTI Base Class Descriptor at (0,-1,0,64)'
EXTRN	??_Elength_error@std@@UAEPAXI@Z:PROC		; std::length_error::`vector deleting destructor'
;	COMDAT ??_R1A@?0A@EA@length_error@std@@8
rdata$r	SEGMENT
??_R1A@?0A@EA@length_error@std@@8 DD FLAT:??_R0?AVlength_error@std@@@8 ; std::length_error::`RTTI Base Class Descriptor at (0,-1,0,64)'
	DD	02H
	DD	00H
	DD	0ffffffffH
	DD	00H
	DD	040H
	DD	FLAT:??_R3length_error@std@@8
rdata$r	ENDS
;	COMDAT ??_R2length_error@std@@8
rdata$r	SEGMENT
??_R2length_error@std@@8 DD FLAT:??_R1A@?0A@EA@length_error@std@@8 ; std::length_error::`RTTI Base Class Array'
	DD	FLAT:??_R1A@?0A@EA@logic_error@std@@8
	DD	FLAT:??_R1A@?0A@EA@exception@std@@8
rdata$r	ENDS
;	COMDAT ??_R3length_error@std@@8
rdata$r	SEGMENT
??_R3length_error@std@@8 DD 00H				; std::length_error::`RTTI Class Hierarchy Descriptor'
	DD	00H
	DD	03H
	DD	FLAT:??_R2length_error@std@@8
rdata$r	ENDS
;	COMDAT ??_R0?AVlength_error@std@@@8
_DATA	SEGMENT
??_R0?AVlength_error@std@@@8 DD FLAT:??_7type_info@@6B@	; std::length_error `RTTI Type Descriptor'
	DD	00H
	DB	'.?AVlength_error@std@@', 00H
_DATA	ENDS
;	COMDAT ??_R4length_error@std@@6B@
rdata$r	SEGMENT
??_R4length_error@std@@6B@ DD 00H			; std::length_error::`RTTI Complete Object Locator'
	DD	00H
	DD	00H
	DD	FLAT:??_R0?AVlength_error@std@@@8
	DD	FLAT:??_R3length_error@std@@8
rdata$r	ENDS
;	COMDAT ??_7length_error@std@@6B@
CONST	SEGMENT
??_7length_error@std@@6B@ DD FLAT:??_R4length_error@std@@6B@ ; std::length_error::`vftable'
	DD	FLAT:??_Elength_error@std@@UAEPAXI@Z
	DD	FLAT:?what@logic_error@std@@UBEPBDXZ
; Function compile flags: /Ogtpy
CONST	ENDS
;	COMDAT ??0length_error@std@@QAE@ABV?$basic_string@DU?$char_traits@D@std@@V?$allocator@D@2@@1@@Z
_TEXT	SEGMENT
__Message$ = 8						; size = 4
??0length_error@std@@QAE@ABV?$basic_string@DU?$char_traits@D@std@@V?$allocator@D@2@@1@@Z PROC ; std::length_error::length_error, COMDAT
; _this$ = ecx

; 105  : 		{	// construct from message string

	mov	eax, DWORD PTR __Message$[esp-4]
	push	esi
	push	eax
	mov	esi, ecx
	call	??0logic_error@std@@QAE@ABV?$basic_string@DU?$char_traits@D@std@@V?$allocator@D@2@@1@@Z ; std::logic_error::logic_error
	mov	DWORD PTR [esi], OFFSET ??_7length_error@std@@6B@

; 106  : 		}

	mov	eax, esi
	pop	esi
	ret	4
??0length_error@std@@QAE@ABV?$basic_string@DU?$char_traits@D@std@@V?$allocator@D@2@@1@@Z ENDP ; std::length_error::length_error
_TEXT	ENDS
PUBLIC	??1length_error@std@@UAE@XZ			; std::length_error::~length_error
; Function compile flags: /Ogtpy
;	COMDAT ??1length_error@std@@UAE@XZ
_TEXT	SEGMENT
??1length_error@std@@UAE@XZ PROC			; std::length_error::~length_error, COMDAT
; _this$ = ecx

; 109  : 		{	// destroy the object

	push	esi
	mov	esi, ecx

; 110  : 		}

	lea	ecx, DWORD PTR [esi+12]
	mov	DWORD PTR [esi], OFFSET ??_7logic_error@std@@6B@
	call	DWORD PTR __imp_??1?$basic_string@DU?$char_traits@D@std@@V?$allocator@D@2@@std@@QAE@XZ
	mov	ecx, esi
	pop	esi
	jmp	DWORD PTR __imp_??1exception@std@@UAE@XZ
??1length_error@std@@UAE@XZ ENDP			; std::length_error::~length_error
; Function compile flags: /Ogtpy
_TEXT	ENDS
;	COMDAT ??_Glength_error@std@@UAEPAXI@Z
_TEXT	SEGMENT
___flags$ = 8						; size = 4
??_Glength_error@std@@UAEPAXI@Z PROC			; std::length_error::`scalar deleting destructor', COMDAT
; _this$ = ecx
	push	esi
	mov	esi, ecx
	lea	ecx, DWORD PTR [esi+12]
	mov	DWORD PTR [esi], OFFSET ??_7logic_error@std@@6B@
	call	DWORD PTR __imp_??1?$basic_string@DU?$char_traits@D@std@@V?$allocator@D@2@@std@@QAE@XZ
	mov	ecx, esi
	call	DWORD PTR __imp_??1exception@std@@UAE@XZ
	test	BYTE PTR ___flags$[esp], 1
	je	SHORT $LN8@scalar@3
	push	esi
	call	??3@YAXPAX@Z				; operator delete
	add	esp, 4
$LN8@scalar@3:
	mov	eax, esi
	pop	esi
	ret	4
??_Glength_error@std@@UAEPAXI@Z ENDP			; std::length_error::`scalar deleting destructor'
_TEXT	ENDS
PUBLIC	??_H@YGXPAXIHP6EPAX0@Z@Z			; `vector constructor iterator'
; Function compile flags: /Ogtpy
;	COMDAT ??_H@YGXPAXIHP6EPAX0@Z@Z
_TEXT	SEGMENT
___t$ = 8						; size = 4
___s$ = 12						; size = 4
___n$ = 16						; size = 4
___f$ = 20						; size = 4
??_H@YGXPAXIHP6EPAX0@Z@Z PROC				; `vector constructor iterator', COMDAT
	push	edi
	mov	edi, DWORD PTR ___n$[esp]
	sub	edi, 1
	js	SHORT $LN1@vector
	push	ebx
	mov	ebx, DWORD PTR ___f$[esp+4]
	push	ebp
	mov	ebp, DWORD PTR ___s$[esp+8]
	push	esi
	mov	esi, DWORD PTR ___t$[esp+12]
	npad	7
$LL2@vector:
	mov	ecx, esi
	call	ebx
	add	esi, ebp
	sub	edi, 1
	jns	SHORT $LL2@vector
	pop	esi
	pop	ebp
	pop	ebx
$LN1@vector:
	pop	edi
	ret	16					; 00000010H
??_H@YGXPAXIHP6EPAX0@Z@Z ENDP				; `vector constructor iterator'
_TEXT	ENDS
PUBLIC	?pointer@?$FObjectHandle@VCvUnit@@@@QAEPAVCvUnit@@XZ ; FObjectHandle<CvUnit>::pointer
; Function compile flags: /Ogtpy
; File s:\lekmod_dll\fireplace\include\fireworks\fobjecthandle.h
;	COMDAT ?pointer@?$FObjectHandle@VCvUnit@@@@QAEPAVCvUnit@@XZ
_TEXT	SEGMENT
?pointer@?$FObjectHandle@VCvUnit@@@@QAEPAVCvUnit@@XZ PROC ; FObjectHandle<CvUnit>::pointer, COMDAT
; _this$ = ecx

; 78   : 		return m_target;

	mov	eax, DWORD PTR [ecx]

; 79   : 	}

	ret	0
?pointer@?$FObjectHandle@VCvUnit@@@@QAEPAVCvUnit@@XZ ENDP ; FObjectHandle<CvUnit>::pointer
_TEXT	ENDS
PUBLIC	??C?$FObjectHandle@VCvUnit@@@@QAEPAVCvUnit@@XZ	; FObjectHandle<CvUnit>::operator->
; Function compile flags: /Ogtpy
;	COMDAT ??C?$FObjectHandle@VCvUnit@@@@QAEPAVCvUnit@@XZ
_TEXT	SEGMENT
??C?$FObjectHandle@VCvUnit@@@@QAEPAVCvUnit@@XZ PROC	; FObjectHandle<CvUnit>::operator->, COMDAT
; _this$ = ecx

; 88   : 		return m_target;

	mov	eax, DWORD PTR [ecx]

; 89   : 	}

	ret	0
??C?$FObjectHandle@VCvUnit@@@@QAEPAVCvUnit@@XZ ENDP	; FObjectHandle<CvUnit>::operator->
_TEXT	ENDS
PUBLIC	??D?$FObjectHandle@VCvUnit@@@@QAEAAVCvUnit@@XZ	; FObjectHandle<CvUnit>::operator*
; Function compile flags: /Ogtpy
;	COMDAT ??D?$FObjectHandle@VCvUnit@@@@QAEAAVCvUnit@@XZ
_TEXT	SEGMENT
??D?$FObjectHandle@VCvUnit@@@@QAEAAVCvUnit@@XZ PROC	; FObjectHandle<CvUnit>::operator*, COMDAT
; _this$ = ecx

; 98   : 		return *m_target;

	mov	eax, DWORD PTR [ecx]

; 99   : 	}

	ret	0
??D?$FObjectHandle@VCvUnit@@@@QAEAAVCvUnit@@XZ ENDP	; FObjectHandle<CvUnit>::operator*
_TEXT	ENDS
PUBLIC	??B?$FObjectHandle@VCvUnit@@@@QBE_NXZ		; FObjectHandle<CvUnit>::operator bool
; Function compile flags: /Ogtpy
;	COMDAT ??B?$FObjectHandle@VCvUnit@@@@QBE_NXZ
_TEXT	SEGMENT
??B?$FObjectHandle@VCvUnit@@@@QBE_NXZ PROC		; FObjectHandle<CvUnit>::operator bool, COMDAT
; _this$ = ecx

; 108  : 		return m_target != 0;

	xor	eax, eax
	cmp	DWORD PTR [ecx], eax
	setne	al

; 109  : 	}

	ret	0
??B?$FObjectHandle@VCvUnit@@@@QBE_NXZ ENDP		; FObjectHandle<CvUnit>::operator bool
_TEXT	ENDS
PUBLIC	??7?$FObjectHandle@VCvUnit@@@@QBE_NXZ		; FObjectHandle<CvUnit>::operator!
; Function compile flags: /Ogtpy
;	COMDAT ??7?$FObjectHandle@VCvUnit@@@@QBE_NXZ
_TEXT	SEGMENT
??7?$FObjectHandle@VCvUnit@@@@QBE_NXZ PROC		; FObjectHandle<CvUnit>::operator!, COMDAT
; _this$ = ecx

; 113  : 		return m_target == 0;

	xor	eax, eax
	cmp	DWORD PTR [ecx], eax
	sete	al

; 114  : 	}

	ret	0
??7?$FObjectHandle@VCvUnit@@@@QBE_NXZ ENDP		; FObjectHandle<CvUnit>::operator!
_TEXT	ENDS
PUBLIC	??0?$FObjectHandle@VCvUnit@@@@QAE@XZ		; FObjectHandle<CvUnit>::FObjectHandle<CvUnit>
; Function compile flags: /Ogtpy
;	COMDAT ??0?$FObjectHandle@VCvUnit@@@@QAE@XZ
_TEXT	SEGMENT
??0?$FObjectHandle@VCvUnit@@@@QAE@XZ PROC		; FObjectHandle<CvUnit>::FObjectHandle<CvUnit>, COMDAT
; _this$ = ecx

; 215  : 	{

	mov	eax, ecx
	mov	DWORD PTR [eax], 0
	mov	BYTE PTR [eax+4], 0

; 216  : 		OBJECT_HANDLE_STACK;
; 217  : 	}

	ret	0
??0?$FObjectHandle@VCvUnit@@@@QAE@XZ ENDP		; FObjectHandle<CvUnit>::FObjectHandle<CvUnit>
_TEXT	ENDS
PUBLIC	?empty@?$list@HV?$allocator@H@std@@@std@@QBE_NXZ ; std::list<int,std::allocator<int> >::empty
; Function compile flags: /Ogtpy
; File s:\msvs2008\vc\include\list
;	COMDAT ?empty@?$list@HV?$allocator@H@std@@@std@@QBE_NXZ
_TEXT	SEGMENT
?empty@?$list@HV?$allocator@H@std@@@std@@QBE_NXZ PROC	; std::list<int,std::allocator<int> >::empty, COMDAT
; _this$ = ecx

; 630  : 		return (_Mysize == 0);

	xor	eax, eax
	cmp	DWORD PTR [ecx+8], eax
	sete	al

; 631  : 		}

	ret	0
?empty@?$list@HV?$allocator@H@std@@@std@@QBE_NXZ ENDP	; std::list<int,std::allocator<int> >::empty
_TEXT	ENDS
PUBLIC	??A?$BaseVector@VCvHomelandUnit@@$00@@QAEAAVCvHomelandUnit@@I@Z ; BaseVector<CvHomelandUnit,1>::operator[]
; Function compile flags: /Ogtpy
; File s:\lekmod_dll\fireplace\include\fireworks\ffastvector.h
;	COMDAT ??A?$BaseVector@VCvHomelandUnit@@$00@@QAEAAVCvHomelandUnit@@I@Z
_TEXT	SEGMENT
_ui$ = 8						; size = 4
??A?$BaseVector@VCvHomelandUnit@@$00@@QAEAAVCvHomelandUnit@@I@Z PROC ; BaseVector<CvHomelandUnit,1>::operator[], COMDAT
; _this$ = ecx

; 129  : 		FAssert(ui < m_uiCurrSize);
; 130  : 		return m_pData[ui];

	mov	eax, DWORD PTR _ui$[esp-4]
	shl	eax, 4
	add	eax, DWORD PTR [ecx]

; 131  : 	};

	ret	4
??A?$BaseVector@VCvHomelandUnit@@$00@@QAEAAVCvHomelandUnit@@I@Z ENDP ; BaseVector<CvHomelandUnit,1>::operator[]
_TEXT	ENDS
PUBLIC	?size@?$BaseVector@VCvHomelandUnit@@$00@@QBEIXZ	; BaseVector<CvHomelandUnit,1>::size
; Function compile flags: /Ogtpy
;	COMDAT ?size@?$BaseVector@VCvHomelandUnit@@$00@@QBEIXZ
_TEXT	SEGMENT
?size@?$BaseVector@VCvHomelandUnit@@$00@@QBEIXZ PROC	; BaseVector<CvHomelandUnit,1>::size, COMDAT
; _this$ = ecx

; 169  : 		return m_uiCurrSize;

	mov	eax, DWORD PTR [ecx+4]

; 170  : 	};

	ret	0
?size@?$BaseVector@VCvHomelandUnit@@$00@@QBEIXZ ENDP	; BaseVector<CvHomelandUnit,1>::size
_TEXT	ENDS
PUBLIC	?begin@?$BaseVector@VCvHomelandUnit@@$00@@QAEPAVCvHomelandUnit@@XZ ; BaseVector<CvHomelandUnit,1>::begin
; Function compile flags: /Ogtpy
;	COMDAT ?begin@?$BaseVector@VCvHomelandUnit@@$00@@QAEPAVCvHomelandUnit@@XZ
_TEXT	SEGMENT
?begin@?$BaseVector@VCvHomelandUnit@@$00@@QAEPAVCvHomelandUnit@@XZ PROC ; BaseVector<CvHomelandUnit,1>::begin, COMDAT
; _this$ = ecx

; 194  :         return m_pData; 

	mov	eax, DWORD PTR [ecx]

; 195  :     };

	ret	0
?begin@?$BaseVector@VCvHomelandUnit@@$00@@QAEPAVCvHomelandUnit@@XZ ENDP ; BaseVector<CvHomelandUnit,1>::begin
_TEXT	ENDS
PUBLIC	?end@?$BaseVector@VCvHomelandUnit@@$00@@QAEPAVCvHomelandUnit@@XZ ; BaseVector<CvHomelandUnit,1>::end
; Function compile flags: /Ogtpy
;	COMDAT ?end@?$BaseVector@VCvHomelandUnit@@$00@@QAEPAVCvHomelandUnit@@XZ
_TEXT	SEGMENT
?end@?$BaseVector@VCvHomelandUnit@@$00@@QAEPAVCvHomelandUnit@@XZ PROC ; BaseVector<CvHomelandUnit,1>::end, COMDAT
; _this$ = ecx

; 197  :         return m_pData+m_uiCurrSize; 

	mov	eax, DWORD PTR [ecx+4]
	shl	eax, 4
	add	eax, DWORD PTR [ecx]

; 198  :     };

	ret	0
?end@?$BaseVector@VCvHomelandUnit@@$00@@QAEPAVCvHomelandUnit@@XZ ENDP ; BaseVector<CvHomelandUnit,1>::end
_TEXT	ENDS
PUBLIC	?begin@?$BaseVector@VCvHomelandMove@@$00@@QAEPAVCvHomelandMove@@XZ ; BaseVector<CvHomelandMove,1>::begin
; Function compile flags: /Ogtpy
;	COMDAT ?begin@?$BaseVector@VCvHomelandMove@@$00@@QAEPAVCvHomelandMove@@XZ
_TEXT	SEGMENT
?begin@?$BaseVector@VCvHomelandMove@@$00@@QAEPAVCvHomelandMove@@XZ PROC ; BaseVector<CvHomelandMove,1>::begin, COMDAT
; _this$ = ecx

; 194  :         return m_pData; 

	mov	eax, DWORD PTR [ecx]

; 195  :     };

	ret	0
?begin@?$BaseVector@VCvHomelandMove@@$00@@QAEPAVCvHomelandMove@@XZ ENDP ; BaseVector<CvHomelandMove,1>::begin
_TEXT	ENDS
PUBLIC	?end@?$BaseVector@VCvHomelandMove@@$00@@QAEPAVCvHomelandMove@@XZ ; BaseVector<CvHomelandMove,1>::end
; Function compile flags: /Ogtpy
;	COMDAT ?end@?$BaseVector@VCvHomelandMove@@$00@@QAEPAVCvHomelandMove@@XZ
_TEXT	SEGMENT
?end@?$BaseVector@VCvHomelandMove@@$00@@QAEPAVCvHomelandMove@@XZ PROC ; BaseVector<CvHomelandMove,1>::end, COMDAT
; _this$ = ecx

; 197  :         return m_pData+m_uiCurrSize; 

	mov	eax, DWORD PTR [ecx+4]
	mov	ecx, DWORD PTR [ecx]
	lea	eax, DWORD PTR [ecx+eax*8]

; 198  :     };

	ret	0
?end@?$BaseVector@VCvHomelandMove@@$00@@QAEPAVCvHomelandMove@@XZ ENDP ; BaseVector<CvHomelandMove,1>::end
_TEXT	ENDS
PUBLIC	?size@?$vector@VCvHomelandTarget@@V?$allocator@VCvHomelandTarget@@@std@@@std@@QBEIXZ ; std::vector<CvHomelandTarget,std::allocator<CvHomelandTarget> >::size
; Function compile flags: /Ogtpy
; File s:\msvs2008\vc\include\vector
;	COMDAT ?size@?$vector@VCvHomelandTarget@@V?$allocator@VCvHomelandTarget@@@std@@@std@@QBEIXZ
_TEXT	SEGMENT
?size@?$vector@VCvHomelandTarget@@V?$allocator@VCvHomelandTarget@@@std@@@std@@QBEIXZ PROC ; std::vector<CvHomelandTarget,std::allocator<CvHomelandTarget> >::size, COMDAT
; _this$ = ecx

; 726  : 		return (_Mylast - _Myfirst);

	mov	edx, DWORD PTR [ecx+8]
	sub	edx, DWORD PTR [ecx+4]
	mov	eax, 1717986919				; 66666667H
	imul	edx
	sar	edx, 3
	mov	eax, edx
	shr	eax, 31					; 0000001fH
	add	eax, edx

; 727  : 		}

	ret	0
?size@?$vector@VCvHomelandTarget@@V?$allocator@VCvHomelandTarget@@@std@@@std@@QBEIXZ ENDP ; std::vector<CvHomelandTarget,std::allocator<CvHomelandTarget> >::size
_TEXT	ENDS
PUBLIC	?empty@?$vector@VCvHomelandTarget@@V?$allocator@VCvHomelandTarget@@@std@@@std@@QBE_NXZ ; std::vector<CvHomelandTarget,std::allocator<CvHomelandTarget> >::empty
; Function compile flags: /Ogtpy
;	COMDAT ?empty@?$vector@VCvHomelandTarget@@V?$allocator@VCvHomelandTarget@@@std@@@std@@QBE_NXZ
_TEXT	SEGMENT
?empty@?$vector@VCvHomelandTarget@@V?$allocator@VCvHomelandTarget@@@std@@@std@@QBE_NXZ PROC ; std::vector<CvHomelandTarget,std::allocator<CvHomelandTarget> >::empty, COMDAT
; _this$ = ecx

; 736  : 		return (size() == 0);

	mov	edx, DWORD PTR [ecx+8]
	sub	edx, DWORD PTR [ecx+4]
	mov	eax, 1717986919				; 66666667H
	imul	edx
	sar	edx, 3
	mov	eax, edx
	shr	eax, 31					; 0000001fH
	add	eax, edx
	neg	eax
	sbb	eax, eax
	inc	eax

; 737  : 		}

	ret	0
?empty@?$vector@VCvHomelandTarget@@V?$allocator@VCvHomelandTarget@@@std@@@std@@QBE_NXZ ENDP ; std::vector<CvHomelandTarget,std::allocator<CvHomelandTarget> >::empty
_TEXT	ENDS
PUBLIC	??A?$vector@VCvHomelandTarget@@V?$allocator@VCvHomelandTarget@@@std@@@std@@QAEAAVCvHomelandTarget@@I@Z ; std::vector<CvHomelandTarget,std::allocator<CvHomelandTarget> >::operator[]
; Function compile flags: /Ogtpy
;	COMDAT ??A?$vector@VCvHomelandTarget@@V?$allocator@VCvHomelandTarget@@@std@@@std@@QAEAAVCvHomelandTarget@@I@Z
_TEXT	SEGMENT
__Pos$ = 8						; size = 4
??A?$vector@VCvHomelandTarget@@V?$allocator@VCvHomelandTarget@@@std@@@std@@QAEAAVCvHomelandTarget@@I@Z PROC ; std::vector<CvHomelandTarget,std::allocator<CvHomelandTarget> >::operator[], COMDAT
; _this$ = ecx

; 775  : 
; 776  :  #if _HAS_ITERATOR_DEBUGGING
; 777  : 		if (size() <= _Pos)
; 778  : 			{
; 779  : 			_DEBUG_ERROR("vector subscript out of range");
; 780  : 			_SCL_SECURE_OUT_OF_RANGE;
; 781  : 			}
; 782  :  #endif /* _HAS_ITERATOR_DEBUGGING */
; 783  : 		_SCL_SECURE_VALIDATE_RANGE(_Pos < size());
; 784  : 
; 785  : 		return (*(_Myfirst + _Pos));

	mov	eax, DWORD PTR __Pos$[esp-4]
	mov	ecx, DWORD PTR [ecx+4]
	lea	eax, DWORD PTR [eax+eax*4]
	lea	eax, DWORD PTR [ecx+eax*4]

; 786  : 		}

	ret	4
??A?$vector@VCvHomelandTarget@@V?$allocator@VCvHomelandTarget@@@std@@@std@@QAEAAVCvHomelandTarget@@I@Z ENDP ; std::vector<CvHomelandTarget,std::allocator<CvHomelandTarget> >::operator[]
_TEXT	ENDS
PUBLIC	??A?$BaseVector@H$0A@@@QAEAAHI@Z		; BaseVector<int,0>::operator[]
; Function compile flags: /Ogtpy
; File s:\lekmod_dll\fireplace\include\fireworks\ffastvector.h
;	COMDAT ??A?$BaseVector@H$0A@@@QAEAAHI@Z
_TEXT	SEGMENT
_ui$ = 8						; size = 4
??A?$BaseVector@H$0A@@@QAEAAHI@Z PROC			; BaseVector<int,0>::operator[], COMDAT
; _this$ = ecx

; 129  : 		FAssert(ui < m_uiCurrSize);
; 130  : 		return m_pData[ui];

	mov	eax, DWORD PTR [ecx]
	mov	ecx, DWORD PTR _ui$[esp-4]
	lea	eax, DWORD PTR [eax+ecx*4]

; 131  : 	};

	ret	4
??A?$BaseVector@H$0A@@@QAEAAHI@Z ENDP			; BaseVector<int,0>::operator[]
_TEXT	ENDS
PUBLIC	?size@?$BaseVector@H$0A@@@QBEIXZ		; BaseVector<int,0>::size
; Function compile flags: /Ogtpy
;	COMDAT ?size@?$BaseVector@H$0A@@@QBEIXZ
_TEXT	SEGMENT
?size@?$BaseVector@H$0A@@@QBEIXZ PROC			; BaseVector<int,0>::size, COMDAT
; _this$ = ecx

; 169  : 		return m_uiCurrSize;

	mov	eax, DWORD PTR [ecx+4]

; 170  : 	};

	ret	0
?size@?$BaseVector@H$0A@@@QBEIXZ ENDP			; BaseVector<int,0>::size
_TEXT	ENDS
PUBLIC	?size@?$BaseVector@U?$pair@HPAVCvPlot@@@std@@$0A@@@QBEIXZ ; BaseVector<std::pair<int,CvPlot *>,0>::size
; Function compile flags: /Ogtpy
;	COMDAT ?size@?$BaseVector@U?$pair@HPAVCvPlot@@@std@@$0A@@@QBEIXZ
_TEXT	SEGMENT
?size@?$BaseVector@U?$pair@HPAVCvPlot@@@std@@$0A@@@QBEIXZ PROC ; BaseVector<std::pair<int,CvPlot *>,0>::size, COMDAT
; _this$ = ecx

; 169  : 		return m_uiCurrSize;

	mov	eax, DWORD PTR [ecx+4]

; 170  : 	};

	ret	0
?size@?$BaseVector@U?$pair@HPAVCvPlot@@@std@@$0A@@@QBEIXZ ENDP ; BaseVector<std::pair<int,CvPlot *>,0>::size
_TEXT	ENDS
PUBLIC	?begin@?$BaseVector@U?$pair@HPAVCvPlot@@@std@@$0A@@@QAEPAU?$pair@HPAVCvPlot@@@std@@XZ ; BaseVector<std::pair<int,CvPlot *>,0>::begin
; Function compile flags: /Ogtpy
;	COMDAT ?begin@?$BaseVector@U?$pair@HPAVCvPlot@@@std@@$0A@@@QAEPAU?$pair@HPAVCvPlot@@@std@@XZ
_TEXT	SEGMENT
?begin@?$BaseVector@U?$pair@HPAVCvPlot@@@std@@$0A@@@QAEPAU?$pair@HPAVCvPlot@@@std@@XZ PROC ; BaseVector<std::pair<int,CvPlot *>,0>::begin, COMDAT
; _this$ = ecx

; 194  :         return m_pData; 

	mov	eax, DWORD PTR [ecx]

; 195  :     };

	ret	0
?begin@?$BaseVector@U?$pair@HPAVCvPlot@@@std@@$0A@@@QAEPAU?$pair@HPAVCvPlot@@@std@@XZ ENDP ; BaseVector<std::pair<int,CvPlot *>,0>::begin
_TEXT	ENDS
PUBLIC	?end@?$BaseVector@U?$pair@HPAVCvPlot@@@std@@$0A@@@QAEPAU?$pair@HPAVCvPlot@@@std@@XZ ; BaseVector<std::pair<int,CvPlot *>,0>::end
; Function compile flags: /Ogtpy
;	COMDAT ?end@?$BaseVector@U?$pair@HPAVCvPlot@@@std@@$0A@@@QAEPAU?$pair@HPAVCvPlot@@@std@@XZ
_TEXT	SEGMENT
?end@?$BaseVector@U?$pair@HPAVCvPlot@@@std@@$0A@@@QAEPAU?$pair@HPAVCvPlot@@@std@@XZ PROC ; BaseVector<std::pair<int,CvPlot *>,0>::end, COMDAT
; _this$ = ecx

; 197  :         return m_pData+m_uiCurrSize; 

	mov	eax, DWORD PTR [ecx+4]
	mov	ecx, DWORD PTR [ecx]
	lea	eax, DWORD PTR [ecx+eax*8]

; 198  :     };

	ret	0
?end@?$BaseVector@U?$pair@HPAVCvPlot@@@std@@$0A@@@QAEPAU?$pair@HPAVCvPlot@@@std@@XZ ENDP ; BaseVector<std::pair<int,CvPlot *>,0>::end
_TEXT	ENDS
PUBLIC	??0?$pair@HPAVCvPlot@@@std@@QAE@ABHABQAVCvPlot@@@Z ; std::pair<int,CvPlot *>::pair<int,CvPlot *>
; Function compile flags: /Ogtpy
; File s:\msvs2008\vc\include\utility
;	COMDAT ??0?$pair@HPAVCvPlot@@@std@@QAE@ABHABQAVCvPlot@@@Z
_TEXT	SEGMENT
__Val1$ = 8						; size = 4
__Val2$ = 12						; size = 4
??0?$pair@HPAVCvPlot@@@std@@QAE@ABHABQAVCvPlot@@@Z PROC	; std::pair<int,CvPlot *>::pair<int,CvPlot *>, COMDAT
; _this$ = ecx

; 50   : 		{	// construct from specified values

	mov	eax, ecx
	mov	ecx, DWORD PTR __Val1$[esp-4]
	mov	edx, DWORD PTR [ecx]
	mov	ecx, DWORD PTR __Val2$[esp-4]
	mov	DWORD PTR [eax], edx
	mov	edx, DWORD PTR [ecx]
	mov	DWORD PTR [eax+4], edx

; 51   : 		}

	ret	8
??0?$pair@HPAVCvPlot@@@std@@QAE@ABHABQAVCvPlot@@@Z ENDP	; std::pair<int,CvPlot *>::pair<int,CvPlot *>
_TEXT	ENDS
PUBLIC	?size@?$vector@PAVCvCity@@V?$allocator@PAVCvCity@@@std@@@std@@QBEIXZ ; std::vector<CvCity *,std::allocator<CvCity *> >::size
; Function compile flags: /Ogtpy
; File s:\msvs2008\vc\include\vector
;	COMDAT ?size@?$vector@PAVCvCity@@V?$allocator@PAVCvCity@@@std@@@std@@QBEIXZ
_TEXT	SEGMENT
?size@?$vector@PAVCvCity@@V?$allocator@PAVCvCity@@@std@@@std@@QBEIXZ PROC ; std::vector<CvCity *,std::allocator<CvCity *> >::size, COMDAT
; _this$ = ecx

; 726  : 		return (_Mylast - _Myfirst);

	mov	eax, DWORD PTR [ecx+8]
	sub	eax, DWORD PTR [ecx+4]
	sar	eax, 2

; 727  : 		}

	ret	0
?size@?$vector@PAVCvCity@@V?$allocator@PAVCvCity@@@std@@@std@@QBEIXZ ENDP ; std::vector<CvCity *,std::allocator<CvCity *> >::size
_TEXT	ENDS
PUBLIC	??0?$_Vector_const_iterator@PAVCvCity@@V?$allocator@PAVCvCity@@@std@@@std@@QAE@XZ ; std::_Vector_const_iterator<CvCity *,std::allocator<CvCity *> >::_Vector_const_iterator<CvCity *,std::allocator<CvCity *> >
; Function compile flags: /Ogtpy
;	COMDAT ??0?$_Vector_const_iterator@PAVCvCity@@V?$allocator@PAVCvCity@@@std@@@std@@QAE@XZ
_TEXT	SEGMENT
??0?$_Vector_const_iterator@PAVCvCity@@V?$allocator@PAVCvCity@@@std@@@std@@QAE@XZ PROC ; std::_Vector_const_iterator<CvCity *,std::allocator<CvCity *> >::_Vector_const_iterator<CvCity *,std::allocator<CvCity *> >, COMDAT
; _this$ = ecx

; 62   : 	_Vector_const_iterator()

	mov	eax, ecx

; 63   : 		{	// construct with null pointer
; 64   : 		_Myptr = 0;

	mov	DWORD PTR [eax], 0

; 65   : 		}

	ret	0
??0?$_Vector_const_iterator@PAVCvCity@@V?$allocator@PAVCvCity@@@std@@@std@@QAE@XZ ENDP ; std::_Vector_const_iterator<CvCity *,std::allocator<CvCity *> >::_Vector_const_iterator<CvCity *,std::allocator<CvCity *> >
_TEXT	ENDS
PUBLIC	??D?$_Vector_const_iterator@PAVCvCity@@V?$allocator@PAVCvCity@@@std@@@std@@QBEABQAVCvCity@@XZ ; std::_Vector_const_iterator<CvCity *,std::allocator<CvCity *> >::operator*
; Function compile flags: /Ogtpy
;	COMDAT ??D?$_Vector_const_iterator@PAVCvCity@@V?$allocator@PAVCvCity@@@std@@@std@@QBEABQAVCvCity@@XZ
_TEXT	SEGMENT
??D?$_Vector_const_iterator@PAVCvCity@@V?$allocator@PAVCvCity@@@std@@@std@@QBEABQAVCvCity@@XZ PROC ; std::_Vector_const_iterator<CvCity *,std::allocator<CvCity *> >::operator*, COMDAT
; _this$ = ecx

; 92   : 
; 93   :  #if _HAS_ITERATOR_DEBUGGING
; 94   : 		if (this->_Mycont == 0
; 95   : 			|| _Myptr < ((_Myvec *)this->_Mycont)->_Myfirst
; 96   : 			|| ((_Myvec *)this->_Mycont)->_Mylast <= _Myptr)
; 97   : 			{
; 98   : 			_DEBUG_ERROR("vector iterator not dereferencable");
; 99   : 			_SCL_SECURE_OUT_OF_RANGE;
; 100  : 			}
; 101  :  #else
; 102  :  		_SCL_SECURE_VALIDATE(this->_Has_container());
; 103  : 		_SCL_SECURE_VALIDATE_RANGE(_Myptr < ((_Myvec *)(this->_Getmycont()))->_Mylast);
; 104  :  #endif /* _HAS_ITERATOR_DEBUGGING */
; 105  : 
; 106  : 		return (*_Myptr);

	mov	eax, DWORD PTR [ecx]

; 107  : 		}

	ret	0
??D?$_Vector_const_iterator@PAVCvCity@@V?$allocator@PAVCvCity@@@std@@@std@@QBEABQAVCvCity@@XZ ENDP ; std::_Vector_const_iterator<CvCity *,std::allocator<CvCity *> >::operator*
_TEXT	ENDS
PUBLIC	??0?$_Vector_const_iterator@PAVCvPlot@@V?$allocator@PAVCvPlot@@@std@@@std@@QAE@XZ ; std::_Vector_const_iterator<CvPlot *,std::allocator<CvPlot *> >::_Vector_const_iterator<CvPlot *,std::allocator<CvPlot *> >
; Function compile flags: /Ogtpy
;	COMDAT ??0?$_Vector_const_iterator@PAVCvPlot@@V?$allocator@PAVCvPlot@@@std@@@std@@QAE@XZ
_TEXT	SEGMENT
??0?$_Vector_const_iterator@PAVCvPlot@@V?$allocator@PAVCvPlot@@@std@@@std@@QAE@XZ PROC ; std::_Vector_const_iterator<CvPlot *,std::allocator<CvPlot *> >::_Vector_const_iterator<CvPlot *,std::allocator<CvPlot *> >, COMDAT
; _this$ = ecx

; 62   : 	_Vector_const_iterator()

	mov	eax, ecx

; 63   : 		{	// construct with null pointer
; 64   : 		_Myptr = 0;

	mov	DWORD PTR [eax], 0

; 65   : 		}

	ret	0
??0?$_Vector_const_iterator@PAVCvPlot@@V?$allocator@PAVCvPlot@@@std@@@std@@QAE@XZ ENDP ; std::_Vector_const_iterator<CvPlot *,std::allocator<CvPlot *> >::_Vector_const_iterator<CvPlot *,std::allocator<CvPlot *> >
_TEXT	ENDS
PUBLIC	??D?$_Vector_const_iterator@PAVCvPlot@@V?$allocator@PAVCvPlot@@@std@@@std@@QBEABQAVCvPlot@@XZ ; std::_Vector_const_iterator<CvPlot *,std::allocator<CvPlot *> >::operator*
; Function compile flags: /Ogtpy
;	COMDAT ??D?$_Vector_const_iterator@PAVCvPlot@@V?$allocator@PAVCvPlot@@@std@@@std@@QBEABQAVCvPlot@@XZ
_TEXT	SEGMENT
??D?$_Vector_const_iterator@PAVCvPlot@@V?$allocator@PAVCvPlot@@@std@@@std@@QBEABQAVCvPlot@@XZ PROC ; std::_Vector_const_iterator<CvPlot *,std::allocator<CvPlot *> >::operator*, COMDAT
; _this$ = ecx

; 92   : 
; 93   :  #if _HAS_ITERATOR_DEBUGGING
; 94   : 		if (this->_Mycont == 0
; 95   : 			|| _Myptr < ((_Myvec *)this->_Mycont)->_Myfirst
; 96   : 			|| ((_Myvec *)this->_Mycont)->_Mylast <= _Myptr)
; 97   : 			{
; 98   : 			_DEBUG_ERROR("vector iterator not dereferencable");
; 99   : 			_SCL_SECURE_OUT_OF_RANGE;
; 100  : 			}
; 101  :  #else
; 102  :  		_SCL_SECURE_VALIDATE(this->_Has_container());
; 103  : 		_SCL_SECURE_VALIDATE_RANGE(_Myptr < ((_Myvec *)(this->_Getmycont()))->_Mylast);
; 104  :  #endif /* _HAS_ITERATOR_DEBUGGING */
; 105  : 
; 106  : 		return (*_Myptr);

	mov	eax, DWORD PTR [ecx]

; 107  : 		}

	ret	0
??D?$_Vector_const_iterator@PAVCvPlot@@V?$allocator@PAVCvPlot@@@std@@@std@@QBEABQAVCvPlot@@XZ ENDP ; std::_Vector_const_iterator<CvPlot *,std::allocator<CvPlot *> >::operator*
_TEXT	ENDS
PUBLIC	?addTarget@?$DestructionNotification@V?$FObjectHandle@VCvUnit@@@@@@QAEXABV?$FObjectHandle@VCvUnit@@@@@Z ; DestructionNotification<FObjectHandle<CvUnit> >::addTarget
; Function compile flags: /Ogtpy
; File s:\lekmod_dll\fireplace\include\fireworks\fobjecthandle.h
;	COMDAT ?addTarget@?$DestructionNotification@V?$FObjectHandle@VCvUnit@@@@@@QAEXABV?$FObjectHandle@VCvUnit@@@@@Z
_TEXT	SEGMENT
_target$ = 8						; size = 4
?addTarget@?$DestructionNotification@V?$FObjectHandle@VCvUnit@@@@@@QAEXABV?$FObjectHandle@VCvUnit@@@@@Z PROC ; DestructionNotification<FObjectHandle<CvUnit> >::addTarget, COMDAT
; _this$ = ecx

; 52   : #ifdef TRACK_DESTRUCTION_NOTIFICATION
; 53   : 		m_targets.insert(&target);
; 54   : #endif
; 55   : 	}

	ret	4
?addTarget@?$DestructionNotification@V?$FObjectHandle@VCvUnit@@@@@@QAEXABV?$FObjectHandle@VCvUnit@@@@@Z ENDP ; DestructionNotification<FObjectHandle<CvUnit> >::addTarget
_TEXT	ENDS
PUBLIC	?removeTarget@?$DestructionNotification@V?$FObjectHandle@VCvUnit@@@@@@QAEXABV?$FObjectHandle@VCvUnit@@@@@Z ; DestructionNotification<FObjectHandle<CvUnit> >::removeTarget
; Function compile flags: /Ogtpy
;	COMDAT ?removeTarget@?$DestructionNotification@V?$FObjectHandle@VCvUnit@@@@@@QAEXABV?$FObjectHandle@VCvUnit@@@@@Z
_TEXT	SEGMENT
_target$ = 8						; size = 4
?removeTarget@?$DestructionNotification@V?$FObjectHandle@VCvUnit@@@@@@QAEXABV?$FObjectHandle@VCvUnit@@@@@Z PROC ; DestructionNotification<FObjectHandle<CvUnit> >::removeTarget, COMDAT
; _this$ = ecx

; 63   : #ifdef TRACK_DESTRUCTION_NOTIFICATION
; 64   : 		m_targets.erase(&target);
; 65   : #endif
; 66   : 	}

	ret	4
?removeTarget@?$DestructionNotification@V?$FObjectHandle@VCvUnit@@@@@@QAEXABV?$FObjectHandle@VCvUnit@@@@@Z ENDP ; DestructionNotification<FObjectHandle<CvUnit> >::removeTarget
_TEXT	ENDS
PUBLIC	?_Nextnode@?$list@HV?$allocator@H@std@@@std@@KAAAPAU_Node@?$_List_nod@HV?$allocator@H@std@@@2@PAU342@@Z ; std::list<int,std::allocator<int> >::_Nextnode
; Function compile flags: /Ogtpy
; File s:\msvs2008\vc\include\list
;	COMDAT ?_Nextnode@?$list@HV?$allocator@H@std@@@std@@KAAAPAU_Node@?$_List_nod@HV?$allocator@H@std@@@2@PAU342@@Z
_TEXT	SEGMENT
__Pnode$ = 8						; size = 4
?_Nextnode@?$list@HV?$allocator@H@std@@@std@@KAAAPAU_Node@?$_List_nod@HV?$allocator@H@std@@@2@PAU342@@Z PROC ; std::list<int,std::allocator<int> >::_Nextnode, COMDAT

; 115  : 		return ((_Nodepref)(*_Pnode)._Next);

	mov	eax, DWORD PTR __Pnode$[esp-4]

; 116  : 		}

	ret	0
?_Nextnode@?$list@HV?$allocator@H@std@@@std@@KAAAPAU_Node@?$_List_nod@HV?$allocator@H@std@@@2@PAU342@@Z ENDP ; std::list<int,std::allocator<int> >::_Nextnode
_TEXT	ENDS
PUBLIC	?_Prevnode@?$list@HV?$allocator@H@std@@@std@@KAAAPAU_Node@?$_List_nod@HV?$allocator@H@std@@@2@PAU342@@Z ; std::list<int,std::allocator<int> >::_Prevnode
; Function compile flags: /Ogtpy
;	COMDAT ?_Prevnode@?$list@HV?$allocator@H@std@@@std@@KAAAPAU_Node@?$_List_nod@HV?$allocator@H@std@@@2@PAU342@@Z
_TEXT	SEGMENT
__Pnode$ = 8						; size = 4
?_Prevnode@?$list@HV?$allocator@H@std@@@std@@KAAAPAU_Node@?$_List_nod@HV?$allocator@H@std@@@2@PAU342@@Z PROC ; std::list<int,std::allocator<int> >::_Prevnode, COMDAT

; 120  : 		return ((_Nodepref)(*_Pnode)._Prev);

	mov	eax, DWORD PTR __Pnode$[esp-4]
	add	eax, 4

; 121  : 		}

	ret	0
?_Prevnode@?$list@HV?$allocator@H@std@@@std@@KAAAPAU_Node@?$_List_nod@HV?$allocator@H@std@@@2@PAU342@@Z ENDP ; std::list<int,std::allocator<int> >::_Prevnode
_TEXT	ENDS
PUBLIC	?deallocate@?$allocator@U_Node@?$_List_nod@HV?$allocator@H@std@@@std@@@std@@QAEXPAU_Node@?$_List_nod@HV?$allocator@H@std@@@2@I@Z ; std::allocator<std::_List_nod<int,std::allocator<int> >::_Node>::deallocate
; Function compile flags: /Ogtpy
; File s:\msvs2008\vc\include\xmemory
;	COMDAT ?deallocate@?$allocator@U_Node@?$_List_nod@HV?$allocator@H@std@@@std@@@std@@QAEXPAU_Node@?$_List_nod@HV?$allocator@H@std@@@2@I@Z
_TEXT	SEGMENT
__Ptr$ = 8						; size = 4
___formal$ = 12						; size = 4
?deallocate@?$allocator@U_Node@?$_List_nod@HV?$allocator@H@std@@@std@@@std@@QAEXPAU_Node@?$_List_nod@HV?$allocator@H@std@@@2@I@Z PROC ; std::allocator<std::_List_nod<int,std::allocator<int> >::_Node>::deallocate, COMDAT
; _this$ = ecx

; 140  : 		::operator delete(_Ptr);

	mov	eax, DWORD PTR __Ptr$[esp-4]
	push	eax
	call	??3@YAXPAX@Z				; operator delete
	pop	ecx

; 141  : 		}

	ret	8
?deallocate@?$allocator@U_Node@?$_List_nod@HV?$allocator@H@std@@@std@@@std@@QAEXPAU_Node@?$_List_nod@HV?$allocator@H@std@@@2@I@Z ENDP ; std::allocator<std::_List_nod<int,std::allocator<int> >::_Node>::deallocate
_TEXT	ENDS
PUBLIC	??_C@_0DI@OIPOBLCO@s?3?2lekmod_dll?2fireplace?2include?2@ ; `string'
PUBLIC	?Alloc@?$FStaticVector@VCvHomelandUnit@@$0EA@$00$0BCJ@$0A@@@IAEPAVCvHomelandUnit@@I@Z ; FStaticVector<CvHomelandUnit,64,1,297,0>::Alloc
EXTRN	?FireMallocAlignedNoTracking@@YAPAXIIPBDH@Z:PROC ; FireMallocAlignedNoTracking
;	COMDAT ??_C@_0DI@OIPOBLCO@s?3?2lekmod_dll?2fireplace?2include?2@
; File s:\lekmod_dll\fireplace\include\fireworks\ffastvector.h
CONST	SEGMENT
??_C@_0DI@OIPOBLCO@s?3?2lekmod_dll?2fireplace?2include?2@ DB 's:\lekmod_d'
	DB	'll\fireplace\include\fireworks\FFastVector.h', 00H ; `string'
; Function compile flags: /Ogtpy
CONST	ENDS
;	COMDAT ?Alloc@?$FStaticVector@VCvHomelandUnit@@$0EA@$00$0BCJ@$0A@@@IAEPAVCvHomelandUnit@@I@Z
_TEXT	SEGMENT
_uiSize$ = 8						; size = 4
?Alloc@?$FStaticVector@VCvHomelandUnit@@$0EA@$00$0BCJ@$0A@@@IAEPAVCvHomelandUnit@@I@Z PROC ; FStaticVector<CvHomelandUnit,64,1,297,0>::Alloc, COMDAT
; _this$ = ecx

; 795  : 	T* Alloc(unsigned int uiSize){

	push	esi
	push	edi

; 796  : 		T* pRet;
; 797  : 		if( uiSize > L ){

	mov	edi, DWORD PTR _uiSize$[esp+4]
	mov	esi, ecx
	cmp	edi, 64					; 00000040H
	jbe	SHORT $LN2@Alloc

; 798  : 			pRet = (T*)FMALLOCALIGNED( uiSize*sizeof(T), __alignof(T), AllocPool, nSubID );

	push	798					; 0000031eH
	push	OFFSET ??_C@_0DI@OIPOBLCO@s?3?2lekmod_dll?2fireplace?2include?2@
	mov	eax, edi
	shl	eax, 4
	push	4
	push	eax
	call	?FireMallocAlignedNoTracking@@YAPAXIIPBDH@Z ; FireMallocAlignedNoTracking
	add	esp, 16					; 00000010H

; 799  : 			m_uiCurrMaxSize = uiSize;

	mov	DWORD PTR [esi+8], edi
	pop	edi
	pop	esi

; 803  : 		}
; 804  : 		return pRet;
; 805  : 	};

	ret	4
$LN2@Alloc:
	pop	edi

; 800  : 		}else{
; 801  : 			pRet = (T*)m_aData;

	lea	eax, DWORD PTR [esi+12]

; 802  : 			m_uiCurrMaxSize = L;

	mov	DWORD PTR [esi+8], 64			; 00000040H
	pop	esi

; 803  : 		}
; 804  : 		return pRet;
; 805  : 	};

	ret	4
?Alloc@?$FStaticVector@VCvHomelandUnit@@$0EA@$00$0BCJ@$0A@@@IAEPAVCvHomelandUnit@@I@Z ENDP ; FStaticVector<CvHomelandUnit,64,1,297,0>::Alloc
_TEXT	ENDS
PUBLIC	??1?$BaseVector@VCvHomelandUnit@@$00@@QAE@XZ	; BaseVector<CvHomelandUnit,1>::~BaseVector<CvHomelandUnit,1>
; Function compile flags: /Ogtpy
;	COMDAT ??1?$BaseVector@VCvHomelandUnit@@$00@@QAE@XZ
_TEXT	SEGMENT
??1?$BaseVector@VCvHomelandUnit@@$00@@QAE@XZ PROC	; BaseVector<CvHomelandUnit,1>::~BaseVector<CvHomelandUnit,1>, COMDAT
; _this$ = ecx

; 111  : 	~BaseVector(){};

	ret	0
??1?$BaseVector@VCvHomelandUnit@@$00@@QAE@XZ ENDP	; BaseVector<CvHomelandUnit,1>::~BaseVector<CvHomelandUnit,1>
_TEXT	ENDS
PUBLIC	??0?$BaseVector@VCvHomelandUnit@@$00@@IAE@XZ	; BaseVector<CvHomelandUnit,1>::BaseVector<CvHomelandUnit,1>
; Function compile flags: /Ogtpy
;	COMDAT ??0?$BaseVector@VCvHomelandUnit@@$00@@IAE@XZ
_TEXT	SEGMENT
??0?$BaseVector@VCvHomelandUnit@@$00@@IAE@XZ PROC	; BaseVector<CvHomelandUnit,1>::BaseVector<CvHomelandUnit,1>, COMDAT
; _this$ = ecx

; 216  : 	BaseVector() : m_uiCurrSize(0), m_uiCurrMaxSize(0), m_pData(NULL) {};

	mov	eax, ecx
	xor	ecx, ecx
	mov	DWORD PTR [eax], ecx
	mov	DWORD PTR [eax+4], ecx
	mov	DWORD PTR [eax+8], ecx
	ret	0
??0?$BaseVector@VCvHomelandUnit@@$00@@IAE@XZ ENDP	; BaseVector<CvHomelandUnit,1>::BaseVector<CvHomelandUnit,1>
_TEXT	ENDS
PUBLIC	?Destroy@?$BaseVector@VCvHomelandUnit@@$00@@IAEXPAVCvHomelandUnit@@I@Z ; BaseVector<CvHomelandUnit,1>::Destroy
; Function compile flags: /Ogtpy
;	COMDAT ?Destroy@?$BaseVector@VCvHomelandUnit@@$00@@IAEXPAVCvHomelandUnit@@I@Z
_TEXT	SEGMENT
_pVal$ = 8						; size = 4
_uiNumElements$ = 12					; size = 4
?Destroy@?$BaseVector@VCvHomelandUnit@@$00@@IAEXPAVCvHomelandUnit@@I@Z PROC ; BaseVector<CvHomelandUnit,1>::Destroy, COMDAT
; _this$ = ecx

; 221  : 		if( !bPODType){
; 222  : 			for(unsigned int i = 0; i < uiNumElements; ++i){
; 223  : 				pVal[i].~T();
; 224  : 			}
; 225  : 		}
; 226  : 	};

	ret	8
?Destroy@?$BaseVector@VCvHomelandUnit@@$00@@IAEXPAVCvHomelandUnit@@I@Z ENDP ; BaseVector<CvHomelandUnit,1>::Destroy
_TEXT	ENDS
PUBLIC	?Copy@?$BaseVector@VCvHomelandUnit@@$00@@IAEXABV1@@Z ; BaseVector<CvHomelandUnit,1>::Copy
EXTRN	_memcpy:PROC
; Function compile flags: /Ogtpy
;	COMDAT ?Copy@?$BaseVector@VCvHomelandUnit@@$00@@IAEXABV1@@Z
_TEXT	SEGMENT
_RHS$ = 8						; size = 4
?Copy@?$BaseVector@VCvHomelandUnit@@$00@@IAEXABV1@@Z PROC ; BaseVector<CvHomelandUnit,1>::Copy, COMDAT
; _this$ = ecx

; 230  : 		m_uiCurrSize = RHS.m_uiCurrSize;

	mov	eax, DWORD PTR _RHS$[esp-4]
	mov	edx, DWORD PTR [eax+4]
	mov	DWORD PTR [ecx+4], edx

; 231  : 		if( bPODType ){
; 232  : 			memcpy( (void*)m_pData, (void*)RHS.m_pData, sizeof(T)*RHS.m_uiCurrSize);

	mov	edx, DWORD PTR [eax+4]
	mov	eax, DWORD PTR [eax]
	mov	ecx, DWORD PTR [ecx]
	shl	edx, 4
	push	edx
	push	eax
	push	ecx
	call	_memcpy
	add	esp, 12					; 0000000cH

; 233  : 		}else{
; 234  : 			for(unsigned int i = 0; i < m_uiCurrSize; ++i){
; 235  : 				new( (void*)&m_pData[i] )T( RHS.m_pData[i] );
; 236  : 			}
; 237  : 		}
; 238  : 	};

	ret	4
?Copy@?$BaseVector@VCvHomelandUnit@@$00@@IAEXABV1@@Z ENDP ; BaseVector<CvHomelandUnit,1>::Copy
_TEXT	ENDS
PUBLIC	??0CvString@@QAE@XZ				; CvString::CvString
EXTRN	__imp_??0?$basic_string@DU?$char_traits@D@std@@V?$allocator@D@2@@std@@QAE@XZ:PROC
; Function compile flags: /Ogtpy
; File s:\lekmod_dll\cvgamecoredllutil\include\cvstring.h
;	COMDAT ??0CvString@@QAE@XZ
_TEXT	SEGMENT
??0CvString@@QAE@XZ PROC				; CvString::CvString, COMDAT
; _this$ = ecx

; 23   : 	CvString() {}

	push	esi
	mov	esi, ecx
	call	DWORD PTR __imp_??0?$basic_string@DU?$char_traits@D@std@@V?$allocator@D@2@@std@@QAE@XZ
	mov	eax, esi
	pop	esi
	ret	0
??0CvString@@QAE@XZ ENDP				; CvString::CvString
_TEXT	ENDS
PUBLIC	??_C@_00CNPNBAHC@?$AA@				; `string'
PUBLIC	??0CvString@@QAE@PBD@Z				; CvString::CvString
EXTRN	__imp_??0?$basic_string@DU?$char_traits@D@std@@V?$allocator@D@2@@std@@QAE@PBD@Z:PROC
;	COMDAT ??_C@_00CNPNBAHC@?$AA@
CONST	SEGMENT
??_C@_00CNPNBAHC@?$AA@ DB 00H				; `string'
; Function compile flags: /Ogtpy
CONST	ENDS
;	COMDAT ??0CvString@@QAE@PBD@Z
_TEXT	SEGMENT
_s$ = 8							; size = 4
??0CvString@@QAE@PBD@Z PROC				; CvString::CvString, COMDAT
; _this$ = ecx

; 25   : 	CvString(const char* s) : std::string(s ? s : "") {CvAssertMsg(s != NULL, "Passing NULL to std::string; possible heap corruption!");}

	mov	eax, DWORD PTR _s$[esp-4]
	push	esi
	mov	esi, ecx
	test	eax, eax
	jne	SHORT $LN4@CvString
	mov	eax, OFFSET ??_C@_00CNPNBAHC@?$AA@
$LN4@CvString:
	push	eax
	call	DWORD PTR __imp_??0?$basic_string@DU?$char_traits@D@std@@V?$allocator@D@2@@std@@QAE@PBD@Z
	mov	eax, esi
	pop	esi
	ret	4
??0CvString@@QAE@PBD@Z ENDP				; CvString::CvString
_TEXT	ENDS
PUBLIC	??1CvString@@QAE@XZ				; CvString::~CvString
; Function compile flags: /Ogtpy
;	COMDAT ??1CvString@@QAE@XZ
_TEXT	SEGMENT
??1CvString@@QAE@XZ PROC				; CvString::~CvString, COMDAT
; _this$ = ecx

; 28   : 	~CvString() {}

	jmp	DWORD PTR __imp_??1?$basic_string@DU?$char_traits@D@std@@V?$allocator@D@2@@std@@QAE@XZ
??1CvString@@QAE@XZ ENDP				; CvString::~CvString
_TEXT	ENDS
PUBLIC	??BCvString@@QBEPBDXZ				; CvString::operator char const *
; Function compile flags: /Ogtpy
;	COMDAT ??BCvString@@QBEPBDXZ
_TEXT	SEGMENT
??BCvString@@QBEPBDXZ PROC				; CvString::operator char const *, COMDAT
; _this$ = ecx

; 31   : 	operator const char*() const 	{ return c_str(); }												

	jmp	DWORD PTR __imp_?c_str@?$basic_string@DU?$char_traits@D@std@@V?$allocator@D@2@@std@@QBEPBDXZ
??BCvString@@QBEPBDXZ ENDP				; CvString::operator char const *
_TEXT	ENDS
PUBLIC	?Alloc@?$FStaticVector@VCvHomelandMove@@$0CD@$00$0BCJ@$0A@@@IAEPAVCvHomelandMove@@I@Z ; FStaticVector<CvHomelandMove,35,1,297,0>::Alloc
; Function compile flags: /Ogtpy
; File s:\lekmod_dll\fireplace\include\fireworks\ffastvector.h
;	COMDAT ?Alloc@?$FStaticVector@VCvHomelandMove@@$0CD@$00$0BCJ@$0A@@@IAEPAVCvHomelandMove@@I@Z
_TEXT	SEGMENT
_uiSize$ = 8						; size = 4
?Alloc@?$FStaticVector@VCvHomelandMove@@$0CD@$00$0BCJ@$0A@@@IAEPAVCvHomelandMove@@I@Z PROC ; FStaticVector<CvHomelandMove,35,1,297,0>::Alloc, COMDAT
; _this$ = ecx

; 795  : 	T* Alloc(unsigned int uiSize){

	push	esi
	push	edi

; 796  : 		T* pRet;
; 797  : 		if( uiSize > L ){

	mov	edi, DWORD PTR _uiSize$[esp+4]
	mov	esi, ecx
	cmp	edi, 35					; 00000023H
	jbe	SHORT $LN2@Alloc@2

; 798  : 			pRet = (T*)FMALLOCALIGNED( uiSize*sizeof(T), __alignof(T), AllocPool, nSubID );

	push	798					; 0000031eH
	push	OFFSET ??_C@_0DI@OIPOBLCO@s?3?2lekmod_dll?2fireplace?2include?2@
	lea	eax, DWORD PTR [edi*8]
	push	4
	push	eax
	call	?FireMallocAlignedNoTracking@@YAPAXIIPBDH@Z ; FireMallocAlignedNoTracking
	add	esp, 16					; 00000010H

; 799  : 			m_uiCurrMaxSize = uiSize;

	mov	DWORD PTR [esi+8], edi
	pop	edi
	pop	esi

; 803  : 		}
; 804  : 		return pRet;
; 805  : 	};

	ret	4
$LN2@Alloc@2:
	pop	edi

; 800  : 		}else{
; 801  : 			pRet = (T*)m_aData;

	lea	eax, DWORD PTR [esi+12]

; 802  : 			m_uiCurrMaxSize = L;

	mov	DWORD PTR [esi+8], 35			; 00000023H
	pop	esi

; 803  : 		}
; 804  : 		return pRet;
; 805  : 	};

	ret	4
?Alloc@?$FStaticVector@VCvHomelandMove@@$0CD@$00$0BCJ@$0A@@@IAEPAVCvHomelandMove@@I@Z ENDP ; FStaticVector<CvHomelandMove,35,1,297,0>::Alloc
_TEXT	ENDS
PUBLIC	??4CvString@@QAEAAV0@PBD@Z			; CvString::operator=
EXTRN	__imp_?clear@?$basic_string@DU?$char_traits@D@std@@V?$allocator@D@2@@std@@QAEXXZ:PROC
EXTRN	__imp_?assign@?$basic_string@DU?$char_traits@D@std@@V?$allocator@D@2@@std@@QAEAAV12@PBD@Z:PROC
; Function compile flags: /Ogtpy
; File s:\lekmod_dll\cvgamecoredllutil\include\cvstring.h
;	COMDAT ??4CvString@@QAEAAV0@PBD@Z
_TEXT	SEGMENT
_s$ = 8							; size = 4
??4CvString@@QAEAAV0@PBD@Z PROC				; CvString::operator=, COMDAT
; _this$ = ecx

; 37   : 	CvString& operator=( const char* s) { if (s) assign(s); else clear();	return *this; }	

	mov	eax, DWORD PTR _s$[esp-4]
	push	esi
	mov	esi, ecx
	test	eax, eax
	je	SHORT $LN2@operator
	push	eax
	call	DWORD PTR __imp_?assign@?$basic_string@DU?$char_traits@D@std@@V?$allocator@D@2@@std@@QAEAAV12@PBD@Z
	mov	eax, esi
	pop	esi
	ret	4
$LN2@operator:
	call	DWORD PTR __imp_?clear@?$basic_string@DU?$char_traits@D@std@@V?$allocator@D@2@@std@@QAEXXZ
	mov	eax, esi
	pop	esi
	ret	4
??4CvString@@QAEAAV0@PBD@Z ENDP				; CvString::operator=
_TEXT	ENDS
PUBLIC	??4CvString@@QAEAAV0@ABV?$basic_string@DU?$char_traits@D@std@@V?$allocator@D@2@@std@@@Z ; CvString::operator=
; Function compile flags: /Ogtpy
;	COMDAT ??4CvString@@QAEAAV0@ABV?$basic_string@DU?$char_traits@D@std@@V?$allocator@D@2@@std@@@Z
_TEXT	SEGMENT
_s$ = 8							; size = 4
??4CvString@@QAEAAV0@ABV?$basic_string@DU?$char_traits@D@std@@V?$allocator@D@2@@std@@@Z PROC ; CvString::operator=, COMDAT
; _this$ = ecx

; 38   : 	CvString& operator=( const std::string& s) { assign(s.c_str());	return *this; }	

	push	esi
	mov	esi, ecx
	mov	ecx, DWORD PTR _s$[esp]
	call	DWORD PTR __imp_?c_str@?$basic_string@DU?$char_traits@D@std@@V?$allocator@D@2@@std@@QBEPBDXZ
	push	eax
	mov	ecx, esi
	call	DWORD PTR __imp_?assign@?$basic_string@DU?$char_traits@D@std@@V?$allocator@D@2@@std@@QAEAAV12@PBD@Z
	mov	eax, esi
	pop	esi
	ret	4
??4CvString@@QAEAAV0@ABV?$basic_string@DU?$char_traits@D@std@@V?$allocator@D@2@@std@@@Z ENDP ; CvString::operator=
_TEXT	ENDS
PUBLIC	??1?$BaseVector@VCvHomelandMove@@$00@@QAE@XZ	; BaseVector<CvHomelandMove,1>::~BaseVector<CvHomelandMove,1>
; Function compile flags: /Ogtpy
; File s:\lekmod_dll\fireplace\include\fireworks\ffastvector.h
;	COMDAT ??1?$BaseVector@VCvHomelandMove@@$00@@QAE@XZ
_TEXT	SEGMENT
??1?$BaseVector@VCvHomelandMove@@$00@@QAE@XZ PROC	; BaseVector<CvHomelandMove,1>::~BaseVector<CvHomelandMove,1>, COMDAT
; _this$ = ecx

; 111  : 	~BaseVector(){};

	ret	0
??1?$BaseVector@VCvHomelandMove@@$00@@QAE@XZ ENDP	; BaseVector<CvHomelandMove,1>::~BaseVector<CvHomelandMove,1>
_TEXT	ENDS
PUBLIC	?GetCString@CvString@@QBEPBDXZ			; CvString::GetCString
; Function compile flags: /Ogtpy
; File s:\lekmod_dll\cvgamecoredllutil\include\cvstring.h
;	COMDAT ?GetCString@CvString@@QBEPBDXZ
_TEXT	SEGMENT
?GetCString@CvString@@QBEPBDXZ PROC			; CvString::GetCString, COMDAT
; _this$ = ecx

; 42   : 	const char* GetCString() const 	{ return c_str(); }

	jmp	DWORD PTR __imp_?c_str@?$basic_string@DU?$char_traits@D@std@@V?$allocator@D@2@@std@@QBEPBDXZ
?GetCString@CvString@@QBEPBDXZ ENDP			; CvString::GetCString
_TEXT	ENDS
PUBLIC	??0?$BaseVector@VCvHomelandMove@@$00@@IAE@XZ	; BaseVector<CvHomelandMove,1>::BaseVector<CvHomelandMove,1>
; Function compile flags: /Ogtpy
; File s:\lekmod_dll\fireplace\include\fireworks\ffastvector.h
;	COMDAT ??0?$BaseVector@VCvHomelandMove@@$00@@IAE@XZ
_TEXT	SEGMENT
??0?$BaseVector@VCvHomelandMove@@$00@@IAE@XZ PROC	; BaseVector<CvHomelandMove,1>::BaseVector<CvHomelandMove,1>, COMDAT
; _this$ = ecx

; 216  : 	BaseVector() : m_uiCurrSize(0), m_uiCurrMaxSize(0), m_pData(NULL) {};

	mov	eax, ecx
	xor	ecx, ecx
	mov	DWORD PTR [eax], ecx
	mov	DWORD PTR [eax+4], ecx
	mov	DWORD PTR [eax+8], ecx
	ret	0
??0?$BaseVector@VCvHomelandMove@@$00@@IAE@XZ ENDP	; BaseVector<CvHomelandMove,1>::BaseVector<CvHomelandMove,1>
_TEXT	ENDS
PUBLIC	?Destroy@?$BaseVector@VCvHomelandMove@@$00@@IAEXPAVCvHomelandMove@@I@Z ; BaseVector<CvHomelandMove,1>::Destroy
; Function compile flags: /Ogtpy
;	COMDAT ?Destroy@?$BaseVector@VCvHomelandMove@@$00@@IAEXPAVCvHomelandMove@@I@Z
_TEXT	SEGMENT
_pVal$ = 8						; size = 4
_uiNumElements$ = 12					; size = 4
?Destroy@?$BaseVector@VCvHomelandMove@@$00@@IAEXPAVCvHomelandMove@@I@Z PROC ; BaseVector<CvHomelandMove,1>::Destroy, COMDAT
; _this$ = ecx

; 221  : 		if( !bPODType){
; 222  : 			for(unsigned int i = 0; i < uiNumElements; ++i){
; 223  : 				pVal[i].~T();
; 224  : 			}
; 225  : 		}
; 226  : 	};

	ret	8
?Destroy@?$BaseVector@VCvHomelandMove@@$00@@IAEXPAVCvHomelandMove@@I@Z ENDP ; BaseVector<CvHomelandMove,1>::Destroy
_TEXT	ENDS
PUBLIC	?capacity@?$vector@VCvHomelandTarget@@V?$allocator@VCvHomelandTarget@@@std@@@std@@QBEIXZ ; std::vector<CvHomelandTarget,std::allocator<CvHomelandTarget> >::capacity
; Function compile flags: /Ogtpy
; File s:\msvs2008\vc\include\vector
;	COMDAT ?capacity@?$vector@VCvHomelandTarget@@V?$allocator@VCvHomelandTarget@@@std@@@std@@QBEIXZ
_TEXT	SEGMENT
?capacity@?$vector@VCvHomelandTarget@@V?$allocator@VCvHomelandTarget@@@std@@@std@@QBEIXZ PROC ; std::vector<CvHomelandTarget,std::allocator<CvHomelandTarget> >::capacity, COMDAT
; _this$ = ecx

; 635  : 		return (_Myfirst == 0 ? 0 : _Myend - _Myfirst);

	mov	eax, DWORD PTR [ecx+4]
	test	eax, eax
	jne	SHORT $LN3@capacity

; 636  : 		}

	ret	0
$LN3@capacity:

; 635  : 		return (_Myfirst == 0 ? 0 : _Myend - _Myfirst);

	mov	ecx, DWORD PTR [ecx+12]
	sub	ecx, eax
	mov	eax, 1717986919				; 66666667H
	imul	ecx
	sar	edx, 3
	mov	eax, edx
	shr	eax, 31					; 0000001fH
	add	eax, edx

; 636  : 		}

	ret	0
?capacity@?$vector@VCvHomelandTarget@@V?$allocator@VCvHomelandTarget@@@std@@@std@@QBEIXZ ENDP ; std::vector<CvHomelandTarget,std::allocator<CvHomelandTarget> >::capacity
_TEXT	ENDS
PUBLIC	??1?$_Container_base_aux_alloc_empty@V?$allocator@VCvHomelandTarget@@@std@@@std@@IAE@XZ ; std::_Container_base_aux_alloc_empty<std::allocator<CvHomelandTarget> >::~_Container_base_aux_alloc_empty<std::allocator<CvHomelandTarget> >
; Function compile flags: /Ogtpy
; File s:\msvs2008\vc\include\xutility
;	COMDAT ??1?$_Container_base_aux_alloc_empty@V?$allocator@VCvHomelandTarget@@@std@@@std@@IAE@XZ
_TEXT	SEGMENT
??1?$_Container_base_aux_alloc_empty@V?$allocator@VCvHomelandTarget@@@std@@@std@@IAE@XZ PROC ; std::_Container_base_aux_alloc_empty<std::allocator<CvHomelandTarget> >::~_Container_base_aux_alloc_empty<std::allocator<CvHomelandTarget> >, COMDAT
; _this$ = ecx

; 627  : 	~_Container_base_aux_alloc_empty() { }

	ret	0
??1?$_Container_base_aux_alloc_empty@V?$allocator@VCvHomelandTarget@@@std@@@std@@IAE@XZ ENDP ; std::_Container_base_aux_alloc_empty<std::allocator<CvHomelandTarget> >::~_Container_base_aux_alloc_empty<std::allocator<CvHomelandTarget> >
_TEXT	ENDS
PUBLIC	??0?$allocator@VCvHomelandTarget@@@std@@QAE@XZ	; std::allocator<CvHomelandTarget>::allocator<CvHomelandTarget>
; Function compile flags: /Ogtpy
; File s:\msvs2008\vc\include\xmemory
;	COMDAT ??0?$allocator@VCvHomelandTarget@@@std@@QAE@XZ
_TEXT	SEGMENT
??0?$allocator@VCvHomelandTarget@@@std@@QAE@XZ PROC	; std::allocator<CvHomelandTarget>::allocator<CvHomelandTarget>, COMDAT
; _this$ = ecx

; 119  : 	allocator() _THROW0()

	mov	eax, ecx

; 120  : 		{	// construct default allocator (do nothing)
; 121  : 		}

	ret	0
??0?$allocator@VCvHomelandTarget@@@std@@QAE@XZ ENDP	; std::allocator<CvHomelandTarget>::allocator<CvHomelandTarget>
_TEXT	ENDS
PUBLIC	?formatv@CvString@@SA_NAAV?$basic_string@DU?$char_traits@D@std@@V?$allocator@D@2@@std@@PBDPAD@Z ; CvString::formatv
EXTRN	__imp_??4?$basic_string@DU?$char_traits@D@std@@V?$allocator@D@2@@std@@QAEAAV01@PBD@Z:PROC
EXTRN	??_U@YAPAXI@Z:PROC				; operator new[]
EXTRN	??_V@YAXPAX@Z:PROC				; operator delete[]
EXTRN	__imp___vsnprintf:PROC
; Function compile flags: /Ogtpy
; File s:\lekmod_dll\cvgamecoredllutil\include\cvstring.h
;	COMDAT ?formatv@CvString@@SA_NAAV?$basic_string@DU?$char_traits@D@std@@V?$allocator@D@2@@std@@PBDPAD@Z
_TEXT	SEGMENT
_buf$ = -2048						; size = 2048
_out$ = 8						; size = 4
_fmt$ = 12						; size = 4
_args$ = 16						; size = 4
?formatv@CvString@@SA_NAAV?$basic_string@DU?$char_traits@D@std@@V?$allocator@D@2@@std@@PBDPAD@Z PROC ; CvString::formatv, COMDAT

; 191  : {

	sub	esp, 2048				; 00000800H
	push	ebx
	push	ebp

; 192  : 	char buf[2048];
; 193  : 	char * pbuf = buf;

	mov	ebp, DWORD PTR _args$[esp+2052]
	push	esi
	push	edi
	lea	edi, DWORD PTR _buf$[esp+2064]
	mov	esi, 2047				; 000007ffH
	npad	6
$LL10@formatv:

; 194  : 	int len = 0;
; 195  : 	int attempts = 0;
; 196  : 	bool success = false;
; 197  : 	const int kMaxAttempts = 40;
; 198  : 
; 199  : 	do
; 200  : 	{
; 201  : 		int maxlen = 2047+2048*attempts;
; 202  : 		len = _vsnprintf(pbuf,maxlen,fmt,args);

	mov	eax, DWORD PTR _fmt$[esp+2060]
	push	ebp
	push	eax
	push	esi
	push	edi
	mov	ebx, esi
	call	DWORD PTR __imp___vsnprintf
	add	esp, 16					; 00000010H

; 203  : 		attempts++;

	add	esi, 2048				; 00000800H

; 204  : 		success = (len>=0 && len<=maxlen);

	test	eax, eax
	jl	SHORT $LN13@formatv
	cmp	eax, ebx
	jle	SHORT $LN18@formatv
$LN13@formatv:

; 205  : 		if (!success)
; 206  : 		{
; 207  : 			if (pbuf!=buf)

	lea	ecx, DWORD PTR _buf$[esp+2064]
	xor	bl, bl
	cmp	edi, ecx
	je	SHORT $LN6@formatv

; 208  : 				delete [] pbuf;

	push	edi
	call	??_V@YAXPAX@Z				; operator delete[]
	add	esp, 4
$LN6@formatv:

; 209  : 			pbuf = new char[2048+2048*attempts];

	lea	edx, DWORD PTR [esi+1]
	push	edx
	call	??_U@YAPAXI@Z				; operator new[]
	add	esp, 4

; 210  : 		}
; 211  : 	}
; 212  : 	while (!success && attempts<kMaxAttempts);

	cmp	esi, 83967				; 000147ffH
	mov	edi, eax
	jl	SHORT $LL10@formatv

; 222  : 		out = "";

	push	OFFSET ??_C@_00CNPNBAHC@?$AA@
$LN21@formatv:
	mov	ecx, DWORD PTR _out$[esp+2064]
	call	DWORD PTR __imp_??4?$basic_string@DU?$char_traits@D@std@@V?$allocator@D@2@@std@@QAEAAV01@PBD@Z

; 223  : 
; 224  : 	if (pbuf!=buf)

	lea	eax, DWORD PTR _buf$[esp+2064]
	cmp	edi, eax
	je	SHORT $LN20@formatv

; 225  : 		delete [] pbuf;

	push	edi
	call	??_V@YAXPAX@Z				; operator delete[]
	add	esp, 4
$LN20@formatv:
	pop	edi
	pop	esi
	pop	ebp

; 226  : 
; 227  : 	return success;

	mov	al, bl
	pop	ebx

; 228  : }

	add	esp, 2048				; 00000800H
	ret	0
$LN18@formatv:

; 204  : 		success = (len>=0 && len<=maxlen);

	mov	bl, 1

; 213  : 
; 214  : 	if ( attempts==kMaxAttempts )
; 215  : 	{
; 216  : 		// dxPrintNL( "CvString::formatv - Max reallocs occurred while formatting string. Result is likely truncated!", 0 );
; 217  : 	}
; 218  : 
; 219  : 	if (success)
; 220  : 		out = pbuf;

	push	edi

; 221  : 	else

	jmp	SHORT $LN21@formatv
?formatv@CvString@@SA_NAAV?$basic_string@DU?$char_traits@D@std@@V?$allocator@D@2@@std@@PBDPAD@Z ENDP ; CvString::formatv
_TEXT	ENDS
PUBLIC	?deallocate@?$allocator@VCvHomelandTarget@@@std@@QAEXPAVCvHomelandTarget@@I@Z ; std::allocator<CvHomelandTarget>::deallocate
; Function compile flags: /Ogtpy
; File s:\msvs2008\vc\include\xmemory
;	COMDAT ?deallocate@?$allocator@VCvHomelandTarget@@@std@@QAEXPAVCvHomelandTarget@@I@Z
_TEXT	SEGMENT
__Ptr$ = 8						; size = 4
___formal$ = 12						; size = 4
?deallocate@?$allocator@VCvHomelandTarget@@@std@@QAEXPAVCvHomelandTarget@@I@Z PROC ; std::allocator<CvHomelandTarget>::deallocate, COMDAT
; _this$ = ecx

; 140  : 		::operator delete(_Ptr);

	mov	eax, DWORD PTR __Ptr$[esp-4]
	push	eax
	call	??3@YAXPAX@Z				; operator delete
	pop	ecx

; 141  : 		}

	ret	8
?deallocate@?$allocator@VCvHomelandTarget@@@std@@QAEXPAVCvHomelandTarget@@I@Z ENDP ; std::allocator<CvHomelandTarget>::deallocate
_TEXT	ENDS
PUBLIC	?Alloc@?$FStaticVector@UTradeConnection@@$0KI@$0A@$0BCJ@$0A@@@IAEPAUTradeConnection@@I@Z ; FStaticVector<TradeConnection,168,0,297,0>::Alloc
; Function compile flags: /Ogtpy
; File s:\lekmod_dll\fireplace\include\fireworks\ffastvector.h
;	COMDAT ?Alloc@?$FStaticVector@UTradeConnection@@$0KI@$0A@$0BCJ@$0A@@@IAEPAUTradeConnection@@I@Z
_TEXT	SEGMENT
_uiSize$ = 8						; size = 4
?Alloc@?$FStaticVector@UTradeConnection@@$0KI@$0A@$0BCJ@$0A@@@IAEPAUTradeConnection@@I@Z PROC ; FStaticVector<TradeConnection,168,0,297,0>::Alloc, COMDAT
; _this$ = ecx

; 795  : 	T* Alloc(unsigned int uiSize){

	push	esi
	push	edi

; 796  : 		T* pRet;
; 797  : 		if( uiSize > L ){

	mov	edi, DWORD PTR _uiSize$[esp+4]
	mov	esi, ecx
	cmp	edi, 168				; 000000a8H
	jbe	SHORT $LN2@Alloc@3

; 798  : 			pRet = (T*)FMALLOCALIGNED( uiSize*sizeof(T), __alignof(T), AllocPool, nSubID );

	mov	eax, edi
	imul	eax, 444				; 000001bcH
	push	798					; 0000031eH
	push	OFFSET ??_C@_0DI@OIPOBLCO@s?3?2lekmod_dll?2fireplace?2include?2@
	push	4
	push	eax
	call	?FireMallocAlignedNoTracking@@YAPAXIIPBDH@Z ; FireMallocAlignedNoTracking
	add	esp, 16					; 00000010H

; 799  : 			m_uiCurrMaxSize = uiSize;

	mov	DWORD PTR [esi+8], edi
	pop	edi
	pop	esi

; 803  : 		}
; 804  : 		return pRet;
; 805  : 	};

	ret	4
$LN2@Alloc@3:
	pop	edi

; 800  : 		}else{
; 801  : 			pRet = (T*)m_aData;

	lea	eax, DWORD PTR [esi+12]

; 802  : 			m_uiCurrMaxSize = L;

	mov	DWORD PTR [esi+8], 168			; 000000a8H
	pop	esi

; 803  : 		}
; 804  : 		return pRet;
; 805  : 	};

	ret	4
?Alloc@?$FStaticVector@UTradeConnection@@$0KI@$0A@$0BCJ@$0A@@@IAEPAUTradeConnection@@I@Z ENDP ; FStaticVector<TradeConnection,168,0,297,0>::Alloc
_TEXT	ENDS
PUBLIC	??1?$BaseVector@UTradeConnection@@$0A@@@QAE@XZ	; BaseVector<TradeConnection,0>::~BaseVector<TradeConnection,0>
; Function compile flags: /Ogtpy
;	COMDAT ??1?$BaseVector@UTradeConnection@@$0A@@@QAE@XZ
_TEXT	SEGMENT
??1?$BaseVector@UTradeConnection@@$0A@@@QAE@XZ PROC	; BaseVector<TradeConnection,0>::~BaseVector<TradeConnection,0>, COMDAT
; _this$ = ecx

; 111  : 	~BaseVector(){};

	ret	0
??1?$BaseVector@UTradeConnection@@$0A@@@QAE@XZ ENDP	; BaseVector<TradeConnection,0>::~BaseVector<TradeConnection,0>
_TEXT	ENDS
PUBLIC	??0?$BaseVector@UTradeConnection@@$0A@@@IAE@XZ	; BaseVector<TradeConnection,0>::BaseVector<TradeConnection,0>
; Function compile flags: /Ogtpy
;	COMDAT ??0?$BaseVector@UTradeConnection@@$0A@@@IAE@XZ
_TEXT	SEGMENT
??0?$BaseVector@UTradeConnection@@$0A@@@IAE@XZ PROC	; BaseVector<TradeConnection,0>::BaseVector<TradeConnection,0>, COMDAT
; _this$ = ecx

; 216  : 	BaseVector() : m_uiCurrSize(0), m_uiCurrMaxSize(0), m_pData(NULL) {};

	mov	eax, ecx
	xor	ecx, ecx
	mov	DWORD PTR [eax], ecx
	mov	DWORD PTR [eax+4], ecx
	mov	DWORD PTR [eax+8], ecx
	ret	0
??0?$BaseVector@UTradeConnection@@$0A@@@IAE@XZ ENDP	; BaseVector<TradeConnection,0>::BaseVector<TradeConnection,0>
_TEXT	ENDS
PUBLIC	?capacity@?$vector@PAVCvPlot@@V?$allocator@PAVCvPlot@@@std@@@std@@QBEIXZ ; std::vector<CvPlot *,std::allocator<CvPlot *> >::capacity
; Function compile flags: /Ogtpy
; File s:\msvs2008\vc\include\vector
;	COMDAT ?capacity@?$vector@PAVCvPlot@@V?$allocator@PAVCvPlot@@@std@@@std@@QBEIXZ
_TEXT	SEGMENT
?capacity@?$vector@PAVCvPlot@@V?$allocator@PAVCvPlot@@@std@@@std@@QBEIXZ PROC ; std::vector<CvPlot *,std::allocator<CvPlot *> >::capacity, COMDAT
; _this$ = ecx

; 635  : 		return (_Myfirst == 0 ? 0 : _Myend - _Myfirst);

	mov	edx, DWORD PTR [ecx+4]
	test	edx, edx
	jne	SHORT $LN3@capacity@2
	xor	eax, eax

; 636  : 		}

	ret	0
$LN3@capacity@2:

; 635  : 		return (_Myfirst == 0 ? 0 : _Myend - _Myfirst);

	mov	eax, DWORD PTR [ecx+12]
	sub	eax, edx
	sar	eax, 2

; 636  : 		}

	ret	0
?capacity@?$vector@PAVCvPlot@@V?$allocator@PAVCvPlot@@@std@@@std@@QBEIXZ ENDP ; std::vector<CvPlot *,std::allocator<CvPlot *> >::capacity
_TEXT	ENDS
PUBLIC	?size@?$vector@PAVCvPlot@@V?$allocator@PAVCvPlot@@@std@@@std@@QBEIXZ ; std::vector<CvPlot *,std::allocator<CvPlot *> >::size
; Function compile flags: /Ogtpy
;	COMDAT ?size@?$vector@PAVCvPlot@@V?$allocator@PAVCvPlot@@@std@@@std@@QBEIXZ
_TEXT	SEGMENT
?size@?$vector@PAVCvPlot@@V?$allocator@PAVCvPlot@@@std@@@std@@QBEIXZ PROC ; std::vector<CvPlot *,std::allocator<CvPlot *> >::size, COMDAT
; _this$ = ecx

; 726  : 		return (_Mylast - _Myfirst);

	mov	eax, DWORD PTR [ecx+8]
	sub	eax, DWORD PTR [ecx+4]
	sar	eax, 2

; 727  : 		}

	ret	0
?size@?$vector@PAVCvPlot@@V?$allocator@PAVCvPlot@@@std@@@std@@QBEIXZ ENDP ; std::vector<CvPlot *,std::allocator<CvPlot *> >::size
_TEXT	ENDS
PUBLIC	?Format@CvString@@QAAXPBDZZ			; CvString::Format
;	COMDAT xdata$x
; File s:\lekmod_dll\cvgamecoredllutil\include\cvstring.h
xdata$x	SEGMENT
__unwindtable$?Format@CvString@@QAAXPBDZZ DD 0ffffffffH
	DD	FLAT:__unwindfunclet$?Format@CvString@@QAAXPBDZZ$0
__ehfuncinfo$?Format@CvString@@QAAXPBDZZ DD 019930522H
	DD	01H
	DD	FLAT:__unwindtable$?Format@CvString@@QAAXPBDZZ
	DD	2 DUP(00H)
	DD	2 DUP(00H)
	DD	00H
	DD	01H
; Function compile flags: /Ogtpy
xdata$x	ENDS
;	COMDAT ?Format@CvString@@QAAXPBDZZ
_TEXT	SEGMENT
_result$ = -40						; size = 28
__$EHRec$ = -12						; size = 12
_this$ = 8						; size = 4
_lpszFormat$ = 12					; size = 4
?Format@CvString@@QAAXPBDZZ PROC			; CvString::Format, COMDAT

; 269  : {

	push	-1
	push	__ehhandler$?Format@CvString@@QAAXPBDZZ
	mov	eax, DWORD PTR fs:0
	push	eax
	mov	DWORD PTR fs:0, esp
	sub	esp, 28					; 0000001cH

; 270  : 	std::string result;

	lea	ecx, DWORD PTR _result$[esp+40]
	call	DWORD PTR __imp_??0?$basic_string@DU?$char_traits@D@std@@V?$allocator@D@2@@std@@QAE@XZ

; 271  : 	va_list args;
; 272  : 	va_start(args,lpszFormat);
; 273  : 	formatv(result,lpszFormat,args);

	mov	ecx, DWORD PTR _lpszFormat$[esp+36]
	lea	eax, DWORD PTR _lpszFormat$[esp+40]
	push	eax
	push	ecx
	lea	edx, DWORD PTR _result$[esp+48]
	push	edx
	mov	DWORD PTR __$EHRec$[esp+60], 0
	call	?formatv@CvString@@SA_NAAV?$basic_string@DU?$char_traits@D@std@@V?$allocator@D@2@@std@@PBDPAD@Z ; CvString::formatv
	add	esp, 12					; 0000000cH

; 274  : 	va_end(args);
; 275  : 	*this = result;

	lea	ecx, DWORD PTR _result$[esp+40]
	call	DWORD PTR __imp_?c_str@?$basic_string@DU?$char_traits@D@std@@V?$allocator@D@2@@std@@QBEPBDXZ
	mov	ecx, DWORD PTR _this$[esp+36]
	push	eax
	call	DWORD PTR __imp_?assign@?$basic_string@DU?$char_traits@D@std@@V?$allocator@D@2@@std@@QAEAAV12@PBD@Z

; 276  : }

	lea	ecx, DWORD PTR _result$[esp+40]
	mov	DWORD PTR __$EHRec$[esp+48], -1
	call	DWORD PTR __imp_??1?$basic_string@DU?$char_traits@D@std@@V?$allocator@D@2@@std@@QAE@XZ
	mov	ecx, DWORD PTR __$EHRec$[esp+40]
	mov	DWORD PTR fs:0, ecx
	add	esp, 40					; 00000028H
	ret	0
_TEXT	ENDS
;	COMDAT text$x
text$x	SEGMENT
__unwindfunclet$?Format@CvString@@QAAXPBDZZ$0:
	lea	ecx, DWORD PTR _result$[ebp]
	jmp	DWORD PTR __imp_??1?$basic_string@DU?$char_traits@D@std@@V?$allocator@D@2@@std@@QAE@XZ
__ehhandler$?Format@CvString@@QAAXPBDZZ:
	mov	eax, OFFSET __ehfuncinfo$?Format@CvString@@QAAXPBDZZ
	jmp	___CxxFrameHandler3
text$x	ENDS
?Format@CvString@@QAAXPBDZZ ENDP			; CvString::Format
PUBLIC	??1?$_Container_base_aux_alloc_empty@V?$allocator@PAVCvPlot@@@std@@@std@@IAE@XZ ; std::_Container_base_aux_alloc_empty<std::allocator<CvPlot *> >::~_Container_base_aux_alloc_empty<std::allocator<CvPlot *> >
; Function compile flags: /Ogtpy
; File s:\msvs2008\vc\include\xutility
;	COMDAT ??1?$_Container_base_aux_alloc_empty@V?$allocator@PAVCvPlot@@@std@@@std@@IAE@XZ
_TEXT	SEGMENT
??1?$_Container_base_aux_alloc_empty@V?$allocator@PAVCvPlot@@@std@@@std@@IAE@XZ PROC ; std::_Container_base_aux_alloc_empty<std::allocator<CvPlot *> >::~_Container_base_aux_alloc_empty<std::allocator<CvPlot *> >, COMDAT
; _this$ = ecx

; 627  : 	~_Container_base_aux_alloc_empty() { }

	ret	0
??1?$_Container_base_aux_alloc_empty@V?$allocator@PAVCvPlot@@@std@@@std@@IAE@XZ ENDP ; std::_Container_base_aux_alloc_empty<std::allocator<CvPlot *> >::~_Container_base_aux_alloc_empty<std::allocator<CvPlot *> >
_TEXT	ENDS
PUBLIC	??0?$allocator@PAVCvPlot@@@std@@QAE@XZ		; std::allocator<CvPlot *>::allocator<CvPlot *>
; Function compile flags: /Ogtpy
; File s:\msvs2008\vc\include\xmemory
;	COMDAT ??0?$allocator@PAVCvPlot@@@std@@QAE@XZ
_TEXT	SEGMENT
??0?$allocator@PAVCvPlot@@@std@@QAE@XZ PROC		; std::allocator<CvPlot *>::allocator<CvPlot *>, COMDAT
; _this$ = ecx

; 119  : 	allocator() _THROW0()

	mov	eax, ecx

; 120  : 		{	// construct default allocator (do nothing)
; 121  : 		}

	ret	0
??0?$allocator@PAVCvPlot@@@std@@QAE@XZ ENDP		; std::allocator<CvPlot *>::allocator<CvPlot *>
_TEXT	ENDS
PUBLIC	??1?$BaseVector@U?$pair@HPAVCvPlot@@@std@@$0A@@@QAE@XZ ; BaseVector<std::pair<int,CvPlot *>,0>::~BaseVector<std::pair<int,CvPlot *>,0>
; Function compile flags: /Ogtpy
; File s:\lekmod_dll\fireplace\include\fireworks\ffastvector.h
;	COMDAT ??1?$BaseVector@U?$pair@HPAVCvPlot@@@std@@$0A@@@QAE@XZ
_TEXT	SEGMENT
??1?$BaseVector@U?$pair@HPAVCvPlot@@@std@@$0A@@@QAE@XZ PROC ; BaseVector<std::pair<int,CvPlot *>,0>::~BaseVector<std::pair<int,CvPlot *>,0>, COMDAT
; _this$ = ecx

; 111  : 	~BaseVector(){};

	ret	0
??1?$BaseVector@U?$pair@HPAVCvPlot@@@std@@$0A@@@QAE@XZ ENDP ; BaseVector<std::pair<int,CvPlot *>,0>::~BaseVector<std::pair<int,CvPlot *>,0>
_TEXT	ENDS
PUBLIC	??0?$BaseVector@U?$pair@HPAVCvPlot@@@std@@$0A@@@IAE@XZ ; BaseVector<std::pair<int,CvPlot *>,0>::BaseVector<std::pair<int,CvPlot *>,0>
; Function compile flags: /Ogtpy
;	COMDAT ??0?$BaseVector@U?$pair@HPAVCvPlot@@@std@@$0A@@@IAE@XZ
_TEXT	SEGMENT
??0?$BaseVector@U?$pair@HPAVCvPlot@@@std@@$0A@@@IAE@XZ PROC ; BaseVector<std::pair<int,CvPlot *>,0>::BaseVector<std::pair<int,CvPlot *>,0>, COMDAT
; _this$ = ecx

; 216  : 	BaseVector() : m_uiCurrSize(0), m_uiCurrMaxSize(0), m_pData(NULL) {};

	mov	eax, ecx
	xor	ecx, ecx
	mov	DWORD PTR [eax], ecx
	mov	DWORD PTR [eax+4], ecx
	mov	DWORD PTR [eax+8], ecx
	ret	0
??0?$BaseVector@U?$pair@HPAVCvPlot@@@std@@$0A@@@IAE@XZ ENDP ; BaseVector<std::pair<int,CvPlot *>,0>::BaseVector<std::pair<int,CvPlot *>,0>
_TEXT	ENDS
PUBLIC	??0?$_Vector_const_iterator@VCvHomelandTarget@@V?$allocator@VCvHomelandTarget@@@std@@@std@@QAE@XZ ; std::_Vector_const_iterator<CvHomelandTarget,std::allocator<CvHomelandTarget> >::_Vector_const_iterator<CvHomelandTarget,std::allocator<CvHomelandTarget> >
; Function compile flags: /Ogtpy
; File s:\msvs2008\vc\include\vector
;	COMDAT ??0?$_Vector_const_iterator@VCvHomelandTarget@@V?$allocator@VCvHomelandTarget@@@std@@@std@@QAE@XZ
_TEXT	SEGMENT
??0?$_Vector_const_iterator@VCvHomelandTarget@@V?$allocator@VCvHomelandTarget@@@std@@@std@@QAE@XZ PROC ; std::_Vector_const_iterator<CvHomelandTarget,std::allocator<CvHomelandTarget> >::_Vector_const_iterator<CvHomelandTarget,std::allocator<CvHomelandTarget> >, COMDAT
; _this$ = ecx

; 62   : 	_Vector_const_iterator()

	mov	eax, ecx

; 63   : 		{	// construct with null pointer
; 64   : 		_Myptr = 0;

	mov	DWORD PTR [eax], 0

; 65   : 		}

	ret	0
??0?$_Vector_const_iterator@VCvHomelandTarget@@V?$allocator@VCvHomelandTarget@@@std@@@std@@QAE@XZ ENDP ; std::_Vector_const_iterator<CvHomelandTarget,std::allocator<CvHomelandTarget> >::_Vector_const_iterator<CvHomelandTarget,std::allocator<CvHomelandTarget> >
_TEXT	ENDS
PUBLIC	??D?$_Vector_const_iterator@VCvHomelandTarget@@V?$allocator@VCvHomelandTarget@@@std@@@std@@QBEABVCvHomelandTarget@@XZ ; std::_Vector_const_iterator<CvHomelandTarget,std::allocator<CvHomelandTarget> >::operator*
; Function compile flags: /Ogtpy
;	COMDAT ??D?$_Vector_const_iterator@VCvHomelandTarget@@V?$allocator@VCvHomelandTarget@@@std@@@std@@QBEABVCvHomelandTarget@@XZ
_TEXT	SEGMENT
??D?$_Vector_const_iterator@VCvHomelandTarget@@V?$allocator@VCvHomelandTarget@@@std@@@std@@QBEABVCvHomelandTarget@@XZ PROC ; std::_Vector_const_iterator<CvHomelandTarget,std::allocator<CvHomelandTarget> >::operator*, COMDAT
; _this$ = ecx

; 92   : 
; 93   :  #if _HAS_ITERATOR_DEBUGGING
; 94   : 		if (this->_Mycont == 0
; 95   : 			|| _Myptr < ((_Myvec *)this->_Mycont)->_Myfirst
; 96   : 			|| ((_Myvec *)this->_Mycont)->_Mylast <= _Myptr)
; 97   : 			{
; 98   : 			_DEBUG_ERROR("vector iterator not dereferencable");
; 99   : 			_SCL_SECURE_OUT_OF_RANGE;
; 100  : 			}
; 101  :  #else
; 102  :  		_SCL_SECURE_VALIDATE(this->_Has_container());
; 103  : 		_SCL_SECURE_VALIDATE_RANGE(_Myptr < ((_Myvec *)(this->_Getmycont()))->_Mylast);
; 104  :  #endif /* _HAS_ITERATOR_DEBUGGING */
; 105  : 
; 106  : 		return (*_Myptr);

	mov	eax, DWORD PTR [ecx]

; 107  : 		}

	ret	0
??D?$_Vector_const_iterator@VCvHomelandTarget@@V?$allocator@VCvHomelandTarget@@@std@@@std@@QBEABVCvHomelandTarget@@XZ ENDP ; std::_Vector_const_iterator<CvHomelandTarget,std::allocator<CvHomelandTarget> >::operator*
_TEXT	ENDS
PUBLIC	??E?$_Vector_const_iterator@VCvHomelandTarget@@V?$allocator@VCvHomelandTarget@@@std@@@std@@QAEAAV01@XZ ; std::_Vector_const_iterator<CvHomelandTarget,std::allocator<CvHomelandTarget> >::operator++
; Function compile flags: /Ogtpy
;	COMDAT ??E?$_Vector_const_iterator@VCvHomelandTarget@@V?$allocator@VCvHomelandTarget@@@std@@@std@@QAEAAV01@XZ
_TEXT	SEGMENT
??E?$_Vector_const_iterator@VCvHomelandTarget@@V?$allocator@VCvHomelandTarget@@@std@@@std@@QAEAAV01@XZ PROC ; std::_Vector_const_iterator<CvHomelandTarget,std::allocator<CvHomelandTarget> >::operator++, COMDAT
; _this$ = ecx

; 115  : 		{	// preincrement

	mov	eax, ecx

; 116  : 		_SCL_SECURE_VALIDATE(this->_Has_container());
; 117  : 		_SCL_SECURE_VALIDATE_RANGE(_Myptr < ((_Myvec *)(this->_Getmycont()))->_Mylast);
; 118  : 
; 119  :  #if _HAS_ITERATOR_DEBUGGING
; 120  : 		if (this->_Mycont == 0
; 121  : 			|| ((_Myvec *)this->_Mycont)->_Mylast <= _Myptr)
; 122  : 			_DEBUG_ERROR("vector iterator not incrementable");
; 123  :  #endif /* _HAS_ITERATOR_DEBUGGING */
; 124  : 
; 125  : 		++_Myptr;

	add	DWORD PTR [eax], 20			; 00000014H

; 126  : 		return (*this);
; 127  : 		}

	ret	0
??E?$_Vector_const_iterator@VCvHomelandTarget@@V?$allocator@VCvHomelandTarget@@@std@@@std@@QAEAAV01@XZ ENDP ; std::_Vector_const_iterator<CvHomelandTarget,std::allocator<CvHomelandTarget> >::operator++
_TEXT	ENDS
PUBLIC	??8?$_Vector_const_iterator@VCvHomelandTarget@@V?$allocator@VCvHomelandTarget@@@std@@@std@@QBE_NABV01@@Z ; std::_Vector_const_iterator<CvHomelandTarget,std::allocator<CvHomelandTarget> >::operator==
; Function compile flags: /Ogtpy
;	COMDAT ??8?$_Vector_const_iterator@VCvHomelandTarget@@V?$allocator@VCvHomelandTarget@@@std@@@std@@QBE_NABV01@@Z
_TEXT	SEGMENT
__Right$ = 8						; size = 4
??8?$_Vector_const_iterator@VCvHomelandTarget@@V?$allocator@VCvHomelandTarget@@@std@@@std@@QBE_NABV01@@Z PROC ; std::_Vector_const_iterator<CvHomelandTarget,std::allocator<CvHomelandTarget> >::operator==, COMDAT
; _this$ = ecx

; 204  : 
; 205  :  #if _HAS_ITERATOR_DEBUGGING
; 206  : 		_Compat(_Right);
; 207  :  #else
; 208  : 		_SCL_SECURE_VALIDATE(this->_Has_container() && this->_Same_container(_Right));
; 209  :  #endif /* _HAS_ITERATOR_DEBUGGING */
; 210  : 
; 211  : 		return (_Myptr == _Right._Myptr);

	mov	eax, DWORD PTR [ecx]
	mov	edx, DWORD PTR __Right$[esp-4]
	xor	ecx, ecx
	cmp	eax, DWORD PTR [edx]
	sete	cl
	mov	al, cl

; 212  : 		}

	ret	4
??8?$_Vector_const_iterator@VCvHomelandTarget@@V?$allocator@VCvHomelandTarget@@@std@@@std@@QBE_NABV01@@Z ENDP ; std::_Vector_const_iterator<CvHomelandTarget,std::allocator<CvHomelandTarget> >::operator==
_TEXT	ENDS
PUBLIC	??0?$_Const_iterator@$0A@@?$list@HV?$allocator@H@std@@@std@@QAE@XZ ; std::list<int,std::allocator<int> >::_Const_iterator<0>::_Const_iterator<0>
; Function compile flags: /Ogtpy
; File s:\msvs2008\vc\include\list
;	COMDAT ??0?$_Const_iterator@$0A@@?$list@HV?$allocator@H@std@@@std@@QAE@XZ
_TEXT	SEGMENT
??0?$_Const_iterator@$0A@@?$list@HV?$allocator@H@std@@@std@@QAE@XZ PROC ; std::list<int,std::allocator<int> >::_Const_iterator<0>::_Const_iterator<0>, COMDAT
; _this$ = ecx

; 163  : 			{	// construct with null node pointer

	mov	eax, ecx
	mov	DWORD PTR [eax], 0

; 164  : 			}

	ret	0
??0?$_Const_iterator@$0A@@?$list@HV?$allocator@H@std@@@std@@QAE@XZ ENDP ; std::list<int,std::allocator<int> >::_Const_iterator<0>::_Const_iterator<0>
_TEXT	ENDS
PUBLIC	??E?$_Const_iterator@$0A@@?$list@HV?$allocator@H@std@@@std@@QAEAAV012@XZ ; std::list<int,std::allocator<int> >::_Const_iterator<0>::operator++
; Function compile flags: /Ogtpy
;	COMDAT ??E?$_Const_iterator@$0A@@?$list@HV?$allocator@H@std@@@std@@QAEAAV012@XZ
_TEXT	SEGMENT
??E?$_Const_iterator@$0A@@?$list@HV?$allocator@H@std@@@std@@QAEAAV012@XZ PROC ; std::list<int,std::allocator<int> >::_Const_iterator<0>::operator++, COMDAT
; _this$ = ecx

; 235  : 			{	// preincrement

	mov	eax, ecx

; 236  : 
; 237  :  #if _HAS_ITERATOR_DEBUGGING
; 238  : 			if (this->_Mycont == 0
; 239  : 				|| _Ptr == 0
; 240  : 				|| _Ptr == ((_Myt *)this->_Mycont)->_Myhead)
; 241  : 				{
; 242  : 				_DEBUG_ERROR("list iterator not incrementable");
; 243  : 				_SCL_SECURE_TRAITS_OUT_OF_RANGE;
; 244  : 				}
; 245  :  #else
; 246  : 			_SCL_SECURE_TRAITS_VALIDATE(this->_Has_container());
; 247  : 			_SCL_SECURE_TRAITS_VALIDATE_RANGE(_Ptr != ((_Myt *)(this->_Getmycont()))->_Myhead);
; 248  :  #endif /* _HAS_ITERATOR_DEBUGGING */
; 249  : 
; 250  : 			_Ptr = _Nextnode(_Ptr);

	mov	ecx, DWORD PTR [eax]
	mov	edx, DWORD PTR [ecx]
	mov	DWORD PTR [eax], edx

; 251  : 			return (*this);
; 252  : 			}

	ret	0
??E?$_Const_iterator@$0A@@?$list@HV?$allocator@H@std@@@std@@QAEAAV012@XZ ENDP ; std::list<int,std::allocator<int> >::_Const_iterator<0>::operator++
_TEXT	ENDS
PUBLIC	??8?$_Const_iterator@$0A@@?$list@HV?$allocator@H@std@@@std@@QBE_NABV012@@Z ; std::list<int,std::allocator<int> >::_Const_iterator<0>::operator==
; Function compile flags: /Ogtpy
;	COMDAT ??8?$_Const_iterator@$0A@@?$list@HV?$allocator@H@std@@@std@@QBE_NABV012@@Z
_TEXT	SEGMENT
__Right$ = 8						; size = 4
??8?$_Const_iterator@$0A@@?$list@HV?$allocator@H@std@@@std@@QBE_NABV012@@Z PROC ; std::list<int,std::allocator<int> >::_Const_iterator<0>::operator==, COMDAT
; _this$ = ecx

; 291  : 
; 292  :  #if _HAS_ITERATOR_DEBUGGING
; 293  : 			_Compat(_Right);
; 294  :  #else
; 295  : 			_SCL_SECURE_TRAITS_VALIDATE(this->_Has_container() && this->_Same_container(_Right));
; 296  :  #endif /* _HAS_ITERATOR_DEBUGGING */
; 297  : 
; 298  : 			return (_Ptr == _Right._Ptr);

	mov	eax, DWORD PTR [ecx]
	mov	edx, DWORD PTR __Right$[esp-4]
	xor	ecx, ecx
	cmp	eax, DWORD PTR [edx]
	sete	cl
	mov	al, cl

; 299  : 			}

	ret	4
??8?$_Const_iterator@$0A@@?$list@HV?$allocator@H@std@@@std@@QBE_NABV012@@Z ENDP ; std::list<int,std::allocator<int> >::_Const_iterator<0>::operator==
_TEXT	ENDS
PUBLIC	?capacity@?$vector@PAVCvCity@@V?$allocator@PAVCvCity@@@std@@@std@@QBEIXZ ; std::vector<CvCity *,std::allocator<CvCity *> >::capacity
; Function compile flags: /Ogtpy
; File s:\msvs2008\vc\include\vector
;	COMDAT ?capacity@?$vector@PAVCvCity@@V?$allocator@PAVCvCity@@@std@@@std@@QBEIXZ
_TEXT	SEGMENT
?capacity@?$vector@PAVCvCity@@V?$allocator@PAVCvCity@@@std@@@std@@QBEIXZ PROC ; std::vector<CvCity *,std::allocator<CvCity *> >::capacity, COMDAT
; _this$ = ecx

; 635  : 		return (_Myfirst == 0 ? 0 : _Myend - _Myfirst);

	mov	edx, DWORD PTR [ecx+4]
	test	edx, edx
	jne	SHORT $LN3@capacity@3
	xor	eax, eax

; 636  : 		}

	ret	0
$LN3@capacity@3:

; 635  : 		return (_Myfirst == 0 ? 0 : _Myend - _Myfirst);

	mov	eax, DWORD PTR [ecx+12]
	sub	eax, edx
	sar	eax, 2

; 636  : 		}

	ret	0
?capacity@?$vector@PAVCvCity@@V?$allocator@PAVCvCity@@@std@@@std@@QBEIXZ ENDP ; std::vector<CvCity *,std::allocator<CvCity *> >::capacity
_TEXT	ENDS
PUBLIC	??1?$_Container_base_aux_alloc_empty@V?$allocator@PAVCvCity@@@std@@@std@@IAE@XZ ; std::_Container_base_aux_alloc_empty<std::allocator<CvCity *> >::~_Container_base_aux_alloc_empty<std::allocator<CvCity *> >
; Function compile flags: /Ogtpy
; File s:\msvs2008\vc\include\xutility
;	COMDAT ??1?$_Container_base_aux_alloc_empty@V?$allocator@PAVCvCity@@@std@@@std@@IAE@XZ
_TEXT	SEGMENT
??1?$_Container_base_aux_alloc_empty@V?$allocator@PAVCvCity@@@std@@@std@@IAE@XZ PROC ; std::_Container_base_aux_alloc_empty<std::allocator<CvCity *> >::~_Container_base_aux_alloc_empty<std::allocator<CvCity *> >, COMDAT
; _this$ = ecx

; 627  : 	~_Container_base_aux_alloc_empty() { }

	ret	0
??1?$_Container_base_aux_alloc_empty@V?$allocator@PAVCvCity@@@std@@@std@@IAE@XZ ENDP ; std::_Container_base_aux_alloc_empty<std::allocator<CvCity *> >::~_Container_base_aux_alloc_empty<std::allocator<CvCity *> >
_TEXT	ENDS
PUBLIC	??0?$allocator@PAVCvCity@@@std@@QAE@XZ		; std::allocator<CvCity *>::allocator<CvCity *>
; Function compile flags: /Ogtpy
; File s:\msvs2008\vc\include\xmemory
;	COMDAT ??0?$allocator@PAVCvCity@@@std@@QAE@XZ
_TEXT	SEGMENT
??0?$allocator@PAVCvCity@@@std@@QAE@XZ PROC		; std::allocator<CvCity *>::allocator<CvCity *>, COMDAT
; _this$ = ecx

; 119  : 	allocator() _THROW0()

	mov	eax, ecx

; 120  : 		{	// construct default allocator (do nothing)
; 121  : 		}

	ret	0
??0?$allocator@PAVCvCity@@@std@@QAE@XZ ENDP		; std::allocator<CvCity *>::allocator<CvCity *>
_TEXT	ENDS
PUBLIC	??E?$_Vector_const_iterator@PAVCvCity@@V?$allocator@PAVCvCity@@@std@@@std@@QAEAAV01@XZ ; std::_Vector_const_iterator<CvCity *,std::allocator<CvCity *> >::operator++
; Function compile flags: /Ogtpy
; File s:\msvs2008\vc\include\vector
;	COMDAT ??E?$_Vector_const_iterator@PAVCvCity@@V?$allocator@PAVCvCity@@@std@@@std@@QAEAAV01@XZ
_TEXT	SEGMENT
??E?$_Vector_const_iterator@PAVCvCity@@V?$allocator@PAVCvCity@@@std@@@std@@QAEAAV01@XZ PROC ; std::_Vector_const_iterator<CvCity *,std::allocator<CvCity *> >::operator++, COMDAT
; _this$ = ecx

; 115  : 		{	// preincrement

	mov	eax, ecx

; 116  : 		_SCL_SECURE_VALIDATE(this->_Has_container());
; 117  : 		_SCL_SECURE_VALIDATE_RANGE(_Myptr < ((_Myvec *)(this->_Getmycont()))->_Mylast);
; 118  : 
; 119  :  #if _HAS_ITERATOR_DEBUGGING
; 120  : 		if (this->_Mycont == 0
; 121  : 			|| ((_Myvec *)this->_Mycont)->_Mylast <= _Myptr)
; 122  : 			_DEBUG_ERROR("vector iterator not incrementable");
; 123  :  #endif /* _HAS_ITERATOR_DEBUGGING */
; 124  : 
; 125  : 		++_Myptr;

	add	DWORD PTR [eax], 4

; 126  : 		return (*this);
; 127  : 		}

	ret	0
??E?$_Vector_const_iterator@PAVCvCity@@V?$allocator@PAVCvCity@@@std@@@std@@QAEAAV01@XZ ENDP ; std::_Vector_const_iterator<CvCity *,std::allocator<CvCity *> >::operator++
_TEXT	ENDS
PUBLIC	??8?$_Vector_const_iterator@PAVCvCity@@V?$allocator@PAVCvCity@@@std@@@std@@QBE_NABV01@@Z ; std::_Vector_const_iterator<CvCity *,std::allocator<CvCity *> >::operator==
; Function compile flags: /Ogtpy
;	COMDAT ??8?$_Vector_const_iterator@PAVCvCity@@V?$allocator@PAVCvCity@@@std@@@std@@QBE_NABV01@@Z
_TEXT	SEGMENT
__Right$ = 8						; size = 4
??8?$_Vector_const_iterator@PAVCvCity@@V?$allocator@PAVCvCity@@@std@@@std@@QBE_NABV01@@Z PROC ; std::_Vector_const_iterator<CvCity *,std::allocator<CvCity *> >::operator==, COMDAT
; _this$ = ecx

; 204  : 
; 205  :  #if _HAS_ITERATOR_DEBUGGING
; 206  : 		_Compat(_Right);
; 207  :  #else
; 208  : 		_SCL_SECURE_VALIDATE(this->_Has_container() && this->_Same_container(_Right));
; 209  :  #endif /* _HAS_ITERATOR_DEBUGGING */
; 210  : 
; 211  : 		return (_Myptr == _Right._Myptr);

	mov	eax, DWORD PTR [ecx]
	mov	edx, DWORD PTR __Right$[esp-4]
	xor	ecx, ecx
	cmp	eax, DWORD PTR [edx]
	sete	cl
	mov	al, cl

; 212  : 		}

	ret	4
??8?$_Vector_const_iterator@PAVCvCity@@V?$allocator@PAVCvCity@@@std@@@std@@QBE_NABV01@@Z ENDP ; std::_Vector_const_iterator<CvCity *,std::allocator<CvCity *> >::operator==
_TEXT	ENDS
PUBLIC	??E?$_Vector_const_iterator@PAVCvPlot@@V?$allocator@PAVCvPlot@@@std@@@std@@QAEAAV01@XZ ; std::_Vector_const_iterator<CvPlot *,std::allocator<CvPlot *> >::operator++
; Function compile flags: /Ogtpy
;	COMDAT ??E?$_Vector_const_iterator@PAVCvPlot@@V?$allocator@PAVCvPlot@@@std@@@std@@QAEAAV01@XZ
_TEXT	SEGMENT
??E?$_Vector_const_iterator@PAVCvPlot@@V?$allocator@PAVCvPlot@@@std@@@std@@QAEAAV01@XZ PROC ; std::_Vector_const_iterator<CvPlot *,std::allocator<CvPlot *> >::operator++, COMDAT
; _this$ = ecx

; 115  : 		{	// preincrement

	mov	eax, ecx

; 116  : 		_SCL_SECURE_VALIDATE(this->_Has_container());
; 117  : 		_SCL_SECURE_VALIDATE_RANGE(_Myptr < ((_Myvec *)(this->_Getmycont()))->_Mylast);
; 118  : 
; 119  :  #if _HAS_ITERATOR_DEBUGGING
; 120  : 		if (this->_Mycont == 0
; 121  : 			|| ((_Myvec *)this->_Mycont)->_Mylast <= _Myptr)
; 122  : 			_DEBUG_ERROR("vector iterator not incrementable");
; 123  :  #endif /* _HAS_ITERATOR_DEBUGGING */
; 124  : 
; 125  : 		++_Myptr;

	add	DWORD PTR [eax], 4

; 126  : 		return (*this);
; 127  : 		}

	ret	0
??E?$_Vector_const_iterator@PAVCvPlot@@V?$allocator@PAVCvPlot@@@std@@@std@@QAEAAV01@XZ ENDP ; std::_Vector_const_iterator<CvPlot *,std::allocator<CvPlot *> >::operator++
_TEXT	ENDS
PUBLIC	??8?$_Vector_const_iterator@PAVCvPlot@@V?$allocator@PAVCvPlot@@@std@@@std@@QBE_NABV01@@Z ; std::_Vector_const_iterator<CvPlot *,std::allocator<CvPlot *> >::operator==
; Function compile flags: /Ogtpy
;	COMDAT ??8?$_Vector_const_iterator@PAVCvPlot@@V?$allocator@PAVCvPlot@@@std@@@std@@QBE_NABV01@@Z
_TEXT	SEGMENT
__Right$ = 8						; size = 4
??8?$_Vector_const_iterator@PAVCvPlot@@V?$allocator@PAVCvPlot@@@std@@@std@@QBE_NABV01@@Z PROC ; std::_Vector_const_iterator<CvPlot *,std::allocator<CvPlot *> >::operator==, COMDAT
; _this$ = ecx

; 204  : 
; 205  :  #if _HAS_ITERATOR_DEBUGGING
; 206  : 		_Compat(_Right);
; 207  :  #else
; 208  : 		_SCL_SECURE_VALIDATE(this->_Has_container() && this->_Same_container(_Right));
; 209  :  #endif /* _HAS_ITERATOR_DEBUGGING */
; 210  : 
; 211  : 		return (_Myptr == _Right._Myptr);

	mov	eax, DWORD PTR [ecx]
	mov	edx, DWORD PTR __Right$[esp-4]
	xor	ecx, ecx
	cmp	eax, DWORD PTR [edx]
	sete	cl
	mov	al, cl

; 212  : 		}

	ret	4
??8?$_Vector_const_iterator@PAVCvPlot@@V?$allocator@PAVCvPlot@@@std@@@std@@QBE_NABV01@@Z ENDP ; std::_Vector_const_iterator<CvPlot *,std::allocator<CvPlot *> >::operator==
_TEXT	ENDS
PUBLIC	??A?$BaseVector@UWeightedElement@?$CvWeightedVector@PAVCvPlot@@$0GE@$00@@$00@@QBEABUWeightedElement@?$CvWeightedVector@PAVCvPlot@@$0GE@$00@@I@Z ; BaseVector<CvWeightedVector<CvPlot *,100,1>::WeightedElement,1>::operator[]
; Function compile flags: /Ogtpy
; File s:\lekmod_dll\fireplace\include\fireworks\ffastvector.h
;	COMDAT ??A?$BaseVector@UWeightedElement@?$CvWeightedVector@PAVCvPlot@@$0GE@$00@@$00@@QBEABUWeightedElement@?$CvWeightedVector@PAVCvPlot@@$0GE@$00@@I@Z
_TEXT	SEGMENT
_ui$ = 8						; size = 4
??A?$BaseVector@UWeightedElement@?$CvWeightedVector@PAVCvPlot@@$0GE@$00@@$00@@QBEABUWeightedElement@?$CvWeightedVector@PAVCvPlot@@$0GE@$00@@I@Z PROC ; BaseVector<CvWeightedVector<CvPlot *,100,1>::WeightedElement,1>::operator[], COMDAT
; _this$ = ecx

; 135  : 		FAssert(ui < m_uiCurrSize);
; 136  : 		return m_pData[ui];

	mov	eax, DWORD PTR [ecx]
	mov	ecx, DWORD PTR _ui$[esp-4]
	lea	eax, DWORD PTR [eax+ecx*8]

; 137  : 	};

	ret	4
??A?$BaseVector@UWeightedElement@?$CvWeightedVector@PAVCvPlot@@$0GE@$00@@$00@@QBEABUWeightedElement@?$CvWeightedVector@PAVCvPlot@@$0GE@$00@@I@Z ENDP ; BaseVector<CvWeightedVector<CvPlot *,100,1>::WeightedElement,1>::operator[]
_TEXT	ENDS
PUBLIC	?size@?$BaseVector@UWeightedElement@?$CvWeightedVector@PAVCvPlot@@$0GE@$00@@$00@@QBEIXZ ; BaseVector<CvWeightedVector<CvPlot *,100,1>::WeightedElement,1>::size
; Function compile flags: /Ogtpy
;	COMDAT ?size@?$BaseVector@UWeightedElement@?$CvWeightedVector@PAVCvPlot@@$0GE@$00@@$00@@QBEIXZ
_TEXT	SEGMENT
?size@?$BaseVector@UWeightedElement@?$CvWeightedVector@PAVCvPlot@@$0GE@$00@@$00@@QBEIXZ PROC ; BaseVector<CvWeightedVector<CvPlot *,100,1>::WeightedElement,1>::size, COMDAT
; _this$ = ecx

; 169  : 		return m_uiCurrSize;

	mov	eax, DWORD PTR [ecx+4]

; 170  : 	};

	ret	0
?size@?$BaseVector@UWeightedElement@?$CvWeightedVector@PAVCvPlot@@$0GE@$00@@$00@@QBEIXZ ENDP ; BaseVector<CvWeightedVector<CvPlot *,100,1>::WeightedElement,1>::size
_TEXT	ENDS
PUBLIC	?begin@?$BaseVector@UWeightedElement@?$CvWeightedVector@PAVCvPlot@@$0GE@$00@@$00@@QAEPAUWeightedElement@?$CvWeightedVector@PAVCvPlot@@$0GE@$00@@XZ ; BaseVector<CvWeightedVector<CvPlot *,100,1>::WeightedElement,1>::begin
; Function compile flags: /Ogtpy
;	COMDAT ?begin@?$BaseVector@UWeightedElement@?$CvWeightedVector@PAVCvPlot@@$0GE@$00@@$00@@QAEPAUWeightedElement@?$CvWeightedVector@PAVCvPlot@@$0GE@$00@@XZ
_TEXT	SEGMENT
?begin@?$BaseVector@UWeightedElement@?$CvWeightedVector@PAVCvPlot@@$0GE@$00@@$00@@QAEPAUWeightedElement@?$CvWeightedVector@PAVCvPlot@@$0GE@$00@@XZ PROC ; BaseVector<CvWeightedVector<CvPlot *,100,1>::WeightedElement,1>::begin, COMDAT
; _this$ = ecx

; 194  :         return m_pData; 

	mov	eax, DWORD PTR [ecx]

; 195  :     };

	ret	0
?begin@?$BaseVector@UWeightedElement@?$CvWeightedVector@PAVCvPlot@@$0GE@$00@@$00@@QAEPAUWeightedElement@?$CvWeightedVector@PAVCvPlot@@$0GE@$00@@XZ ENDP ; BaseVector<CvWeightedVector<CvPlot *,100,1>::WeightedElement,1>::begin
_TEXT	ENDS
PUBLIC	?end@?$BaseVector@UWeightedElement@?$CvWeightedVector@PAVCvPlot@@$0GE@$00@@$00@@QAEPAUWeightedElement@?$CvWeightedVector@PAVCvPlot@@$0GE@$00@@XZ ; BaseVector<CvWeightedVector<CvPlot *,100,1>::WeightedElement,1>::end
; Function compile flags: /Ogtpy
;	COMDAT ?end@?$BaseVector@UWeightedElement@?$CvWeightedVector@PAVCvPlot@@$0GE@$00@@$00@@QAEPAUWeightedElement@?$CvWeightedVector@PAVCvPlot@@$0GE@$00@@XZ
_TEXT	SEGMENT
?end@?$BaseVector@UWeightedElement@?$CvWeightedVector@PAVCvPlot@@$0GE@$00@@$00@@QAEPAUWeightedElement@?$CvWeightedVector@PAVCvPlot@@$0GE@$00@@XZ PROC ; BaseVector<CvWeightedVector<CvPlot *,100,1>::WeightedElement,1>::end, COMDAT
; _this$ = ecx

; 197  :         return m_pData+m_uiCurrSize; 

	mov	eax, DWORD PTR [ecx+4]
	mov	ecx, DWORD PTR [ecx]
	lea	eax, DWORD PTR [ecx+eax*8]

; 198  :     };

	ret	0
?end@?$BaseVector@UWeightedElement@?$CvWeightedVector@PAVCvPlot@@$0GE@$00@@$00@@QAEPAUWeightedElement@?$CvWeightedVector@PAVCvPlot@@$0GE@$00@@XZ ENDP ; BaseVector<CvWeightedVector<CvPlot *,100,1>::WeightedElement,1>::end
_TEXT	ENDS
PUBLIC	??0WeightedElement@?$CvWeightedVector@PAVCvPlot@@$0GE@$00@@QAE@XZ ; CvWeightedVector<CvPlot *,100,1>::WeightedElement::WeightedElement
; Function compile flags: /Ogtpy
; File s:\lekmod_dll\cvgamecoredllutil\include\cvweightedvector.h
;	COMDAT ??0WeightedElement@?$CvWeightedVector@PAVCvPlot@@$0GE@$00@@QAE@XZ
_TEXT	SEGMENT
??0WeightedElement@?$CvWeightedVector@PAVCvPlot@@$0GE@$00@@QAE@XZ PROC ; CvWeightedVector<CvPlot *,100,1>::WeightedElement::WeightedElement, COMDAT
; _this$ = ecx

; 31   : 		{

	mov	eax, ecx
	mov	DWORD PTR [eax], 0
	mov	DWORD PTR [eax+4], 0

; 32   : 		}

	ret	0
??0WeightedElement@?$CvWeightedVector@PAVCvPlot@@$0GE@$00@@QAE@XZ ENDP ; CvWeightedVector<CvPlot *,100,1>::WeightedElement::WeightedElement
_TEXT	ENDS
PUBLIC	??A?$BaseVector@UWeightedElement@?$CvWeightedVector@PAVCvCity@@$0EA@$00@@$00@@QBEABUWeightedElement@?$CvWeightedVector@PAVCvCity@@$0EA@$00@@I@Z ; BaseVector<CvWeightedVector<CvCity *,64,1>::WeightedElement,1>::operator[]
; Function compile flags: /Ogtpy
; File s:\lekmod_dll\fireplace\include\fireworks\ffastvector.h
;	COMDAT ??A?$BaseVector@UWeightedElement@?$CvWeightedVector@PAVCvCity@@$0EA@$00@@$00@@QBEABUWeightedElement@?$CvWeightedVector@PAVCvCity@@$0EA@$00@@I@Z
_TEXT	SEGMENT
_ui$ = 8						; size = 4
??A?$BaseVector@UWeightedElement@?$CvWeightedVector@PAVCvCity@@$0EA@$00@@$00@@QBEABUWeightedElement@?$CvWeightedVector@PAVCvCity@@$0EA@$00@@I@Z PROC ; BaseVector<CvWeightedVector<CvCity *,64,1>::WeightedElement,1>::operator[], COMDAT
; _this$ = ecx

; 135  : 		FAssert(ui < m_uiCurrSize);
; 136  : 		return m_pData[ui];

	mov	eax, DWORD PTR [ecx]
	mov	ecx, DWORD PTR _ui$[esp-4]
	lea	eax, DWORD PTR [eax+ecx*8]

; 137  : 	};

	ret	4
??A?$BaseVector@UWeightedElement@?$CvWeightedVector@PAVCvCity@@$0EA@$00@@$00@@QBEABUWeightedElement@?$CvWeightedVector@PAVCvCity@@$0EA@$00@@I@Z ENDP ; BaseVector<CvWeightedVector<CvCity *,64,1>::WeightedElement,1>::operator[]
_TEXT	ENDS
PUBLIC	?size@?$BaseVector@UWeightedElement@?$CvWeightedVector@PAVCvCity@@$0EA@$00@@$00@@QBEIXZ ; BaseVector<CvWeightedVector<CvCity *,64,1>::WeightedElement,1>::size
; Function compile flags: /Ogtpy
;	COMDAT ?size@?$BaseVector@UWeightedElement@?$CvWeightedVector@PAVCvCity@@$0EA@$00@@$00@@QBEIXZ
_TEXT	SEGMENT
?size@?$BaseVector@UWeightedElement@?$CvWeightedVector@PAVCvCity@@$0EA@$00@@$00@@QBEIXZ PROC ; BaseVector<CvWeightedVector<CvCity *,64,1>::WeightedElement,1>::size, COMDAT
; _this$ = ecx

; 169  : 		return m_uiCurrSize;

	mov	eax, DWORD PTR [ecx+4]

; 170  : 	};

	ret	0
?size@?$BaseVector@UWeightedElement@?$CvWeightedVector@PAVCvCity@@$0EA@$00@@$00@@QBEIXZ ENDP ; BaseVector<CvWeightedVector<CvCity *,64,1>::WeightedElement,1>::size
_TEXT	ENDS
PUBLIC	?begin@?$BaseVector@UWeightedElement@?$CvWeightedVector@PAVCvCity@@$0EA@$00@@$00@@QAEPAUWeightedElement@?$CvWeightedVector@PAVCvCity@@$0EA@$00@@XZ ; BaseVector<CvWeightedVector<CvCity *,64,1>::WeightedElement,1>::begin
; Function compile flags: /Ogtpy
;	COMDAT ?begin@?$BaseVector@UWeightedElement@?$CvWeightedVector@PAVCvCity@@$0EA@$00@@$00@@QAEPAUWeightedElement@?$CvWeightedVector@PAVCvCity@@$0EA@$00@@XZ
_TEXT	SEGMENT
?begin@?$BaseVector@UWeightedElement@?$CvWeightedVector@PAVCvCity@@$0EA@$00@@$00@@QAEPAUWeightedElement@?$CvWeightedVector@PAVCvCity@@$0EA@$00@@XZ PROC ; BaseVector<CvWeightedVector<CvCity *,64,1>::WeightedElement,1>::begin, COMDAT
; _this$ = ecx

; 194  :         return m_pData; 

	mov	eax, DWORD PTR [ecx]

; 195  :     };

	ret	0
?begin@?$BaseVector@UWeightedElement@?$CvWeightedVector@PAVCvCity@@$0EA@$00@@$00@@QAEPAUWeightedElement@?$CvWeightedVector@PAVCvCity@@$0EA@$00@@XZ ENDP ; BaseVector<CvWeightedVector<CvCity *,64,1>::WeightedElement,1>::begin
_TEXT	ENDS
PUBLIC	?end@?$BaseVector@UWeightedElement@?$CvWeightedVector@PAVCvCity@@$0EA@$00@@$00@@QAEPAUWeightedElement@?$CvWeightedVector@PAVCvCity@@$0EA@$00@@XZ ; BaseVector<CvWeightedVector<CvCity *,64,1>::WeightedElement,1>::end
; Function compile flags: /Ogtpy
;	COMDAT ?end@?$BaseVector@UWeightedElement@?$CvWeightedVector@PAVCvCity@@$0EA@$00@@$00@@QAEPAUWeightedElement@?$CvWeightedVector@PAVCvCity@@$0EA@$00@@XZ
_TEXT	SEGMENT
?end@?$BaseVector@UWeightedElement@?$CvWeightedVector@PAVCvCity@@$0EA@$00@@$00@@QAEPAUWeightedElement@?$CvWeightedVector@PAVCvCity@@$0EA@$00@@XZ PROC ; BaseVector<CvWeightedVector<CvCity *,64,1>::WeightedElement,1>::end, COMDAT
; _this$ = ecx

; 197  :         return m_pData+m_uiCurrSize; 

	mov	eax, DWORD PTR [ecx+4]
	mov	ecx, DWORD PTR [ecx]
	lea	eax, DWORD PTR [ecx+eax*8]

; 198  :     };

	ret	0
?end@?$BaseVector@UWeightedElement@?$CvWeightedVector@PAVCvCity@@$0EA@$00@@$00@@QAEPAUWeightedElement@?$CvWeightedVector@PAVCvCity@@$0EA@$00@@XZ ENDP ; BaseVector<CvWeightedVector<CvCity *,64,1>::WeightedElement,1>::end
_TEXT	ENDS
PUBLIC	??0WeightedElement@?$CvWeightedVector@PAVCvCity@@$0EA@$00@@QAE@XZ ; CvWeightedVector<CvCity *,64,1>::WeightedElement::WeightedElement
; Function compile flags: /Ogtpy
; File s:\lekmod_dll\cvgamecoredllutil\include\cvweightedvector.h
;	COMDAT ??0WeightedElement@?$CvWeightedVector@PAVCvCity@@$0EA@$00@@QAE@XZ
_TEXT	SEGMENT
??0WeightedElement@?$CvWeightedVector@PAVCvCity@@$0EA@$00@@QAE@XZ PROC ; CvWeightedVector<CvCity *,64,1>::WeightedElement::WeightedElement, COMDAT
; _this$ = ecx

; 31   : 		{

	mov	eax, ecx
	mov	DWORD PTR [eax], 0
	mov	DWORD PTR [eax+4], 0

; 32   : 		}

	ret	0
??0WeightedElement@?$CvWeightedVector@PAVCvCity@@$0EA@$00@@QAE@XZ ENDP ; CvWeightedVector<CvCity *,64,1>::WeightedElement::WeightedElement
_TEXT	ENDS
PUBLIC	?_Myval@?$list@HV?$allocator@H@std@@@std@@KAAAHPAU_Node@?$_List_nod@HV?$allocator@H@std@@@2@@Z ; std::list<int,std::allocator<int> >::_Myval
; Function compile flags: /Ogtpy
; File s:\msvs2008\vc\include\list
;	COMDAT ?_Myval@?$list@HV?$allocator@H@std@@@std@@KAAAHPAU_Node@?$_List_nod@HV?$allocator@H@std@@@2@@Z
_TEXT	SEGMENT
__Pnode$ = 8						; size = 4
?_Myval@?$list@HV?$allocator@H@std@@@std@@KAAAHPAU_Node@?$_List_nod@HV?$allocator@H@std@@@2@@Z PROC ; std::list<int,std::allocator<int> >::_Myval, COMDAT

; 125  : 		return ((_Vref)(*_Pnode)._Myval);

	mov	eax, DWORD PTR __Pnode$[esp-4]
	add	eax, 8

; 126  : 		}

	ret	0
?_Myval@?$list@HV?$allocator@H@std@@@std@@KAAAHPAU_Node@?$_List_nod@HV?$allocator@H@std@@@2@@Z ENDP ; std::list<int,std::allocator<int> >::_Myval
_TEXT	ENDS
PUBLIC	__TI3?AVlength_error@std@@
PUBLIC	??_C@_0BD@OLBABOEK@vector?$DMT?$DO?5too?5long?$AA@ ; `string'
PUBLIC	?_Xlen@?$vector@VCvHomelandTarget@@V?$allocator@VCvHomelandTarget@@@std@@@std@@KAXXZ ; std::vector<CvHomelandTarget,std::allocator<CvHomelandTarget> >::_Xlen
PUBLIC	__CTA3?AVlength_error@std@@
PUBLIC	__CT??_R0?AVlength_error@std@@@8??0length_error@std@@QAE@ABV01@@Z40
PUBLIC	??0length_error@std@@QAE@ABV01@@Z		; std::length_error::length_error
PUBLIC	__CT??_R0?AVlogic_error@std@@@8??0logic_error@std@@QAE@ABV01@@Z40
PUBLIC	??0logic_error@std@@QAE@ABV01@@Z		; std::logic_error::logic_error
PUBLIC	__CT??_R0?AVexception@std@@@8??0exception@std@@QAE@ABV01@@Z12
EXTRN	__CxxThrowException@8:PROC
EXTRN	??0exception@std@@QAE@ABV01@@Z:PROC		; std::exception::exception
;	COMDAT __CT??_R0?AVexception@std@@@8??0exception@std@@QAE@ABV01@@Z12
; File s:\msvs2008\vc\include\stdexcept
xdata$x	SEGMENT
__CT??_R0?AVexception@std@@@8??0exception@std@@QAE@ABV01@@Z12 DD 00H
	DD	FLAT:??_R0?AVexception@std@@@8
	DD	00H
	DD	0ffffffffH
	ORG $+4
	DD	0cH
	DD	FLAT:??0exception@std@@QAE@ABV01@@Z
xdata$x	ENDS
;	COMDAT __CT??_R0?AVlogic_error@std@@@8??0logic_error@std@@QAE@ABV01@@Z40
xdata$x	SEGMENT
__CT??_R0?AVlogic_error@std@@@8??0logic_error@std@@QAE@ABV01@@Z40 DD 00H
	DD	FLAT:??_R0?AVlogic_error@std@@@8
	DD	00H
	DD	0ffffffffH
	ORG $+4
	DD	028H
	DD	FLAT:??0logic_error@std@@QAE@ABV01@@Z
xdata$x	ENDS
;	COMDAT __CT??_R0?AVlength_error@std@@@8??0length_error@std@@QAE@ABV01@@Z40
xdata$x	SEGMENT
__CT??_R0?AVlength_error@std@@@8??0length_error@std@@QAE@ABV01@@Z40 DD 00H
	DD	FLAT:??_R0?AVlength_error@std@@@8
	DD	00H
	DD	0ffffffffH
	ORG $+4
	DD	028H
	DD	FLAT:??0length_error@std@@QAE@ABV01@@Z
xdata$x	ENDS
;	COMDAT __CTA3?AVlength_error@std@@
xdata$x	SEGMENT
__CTA3?AVlength_error@std@@ DD 03H
	DD	FLAT:__CT??_R0?AVlength_error@std@@@8??0length_error@std@@QAE@ABV01@@Z40
	DD	FLAT:__CT??_R0?AVlogic_error@std@@@8??0logic_error@std@@QAE@ABV01@@Z40
	DD	FLAT:__CT??_R0?AVexception@std@@@8??0exception@std@@QAE@ABV01@@Z12
xdata$x	ENDS
;	COMDAT __TI3?AVlength_error@std@@
xdata$x	SEGMENT
__TI3?AVlength_error@std@@ DD 00H
	DD	FLAT:??1length_error@std@@UAE@XZ
	DD	00H
	DD	FLAT:__CTA3?AVlength_error@std@@
xdata$x	ENDS
;	COMDAT ??_C@_0BD@OLBABOEK@vector?$DMT?$DO?5too?5long?$AA@
CONST	SEGMENT
??_C@_0BD@OLBABOEK@vector?$DMT?$DO?5too?5long?$AA@ DB 'vector<T> too long'
	DB	00H						; `string'
CONST	ENDS
;	COMDAT xdata$x
xdata$x	SEGMENT
__unwindtable$?_Xlen@?$vector@VCvHomelandTarget@@V?$allocator@VCvHomelandTarget@@@std@@@std@@KAXXZ DD 0ffffffffH
	DD	FLAT:__unwindfunclet$?_Xlen@?$vector@VCvHomelandTarget@@V?$allocator@VCvHomelandTarget@@@std@@@std@@KAXXZ$0
	DD	00H
	DD	FLAT:__unwindfunclet$?_Xlen@?$vector@VCvHomelandTarget@@V?$allocator@VCvHomelandTarget@@@std@@@std@@KAXXZ$2
__ehfuncinfo$?_Xlen@?$vector@VCvHomelandTarget@@V?$allocator@VCvHomelandTarget@@@std@@@std@@KAXXZ DD 019930522H
	DD	02H
	DD	FLAT:__unwindtable$?_Xlen@?$vector@VCvHomelandTarget@@V?$allocator@VCvHomelandTarget@@@std@@@std@@KAXXZ
	DD	2 DUP(00H)
	DD	2 DUP(00H)
	DD	00H
	DD	01H
; Function compile flags: /Ogtpy
; File s:\msvs2008\vc\include\vector
xdata$x	ENDS
;	COMDAT ?_Xlen@?$vector@VCvHomelandTarget@@V?$allocator@VCvHomelandTarget@@@std@@@std@@KAXXZ
_TEXT	SEGMENT
$T238251 = -80						; size = 28
$T238250 = -52						; size = 40
__$EHRec$ = -12						; size = 12
?_Xlen@?$vector@VCvHomelandTarget@@V?$allocator@VCvHomelandTarget@@@std@@@std@@KAXXZ PROC ; std::vector<CvHomelandTarget,std::allocator<CvHomelandTarget> >::_Xlen, COMDAT

; 1259 : 		{	// report a length_error

	push	-1
	push	__ehhandler$?_Xlen@?$vector@VCvHomelandTarget@@V?$allocator@VCvHomelandTarget@@@std@@@std@@KAXXZ
	mov	eax, DWORD PTR fs:0
	push	eax
	mov	DWORD PTR fs:0, esp
	sub	esp, 68					; 00000044H

; 1260 : 		_THROW(length_error, "vector<T> too long");

	push	OFFSET ??_C@_0BD@OLBABOEK@vector?$DMT?$DO?5too?5long?$AA@
	lea	ecx, DWORD PTR $T238251[esp+84]
	call	DWORD PTR __imp_??0?$basic_string@DU?$char_traits@D@std@@V?$allocator@D@2@@std@@QAE@PBD@Z
	lea	ecx, DWORD PTR $T238250[esp+80]
	mov	DWORD PTR __$EHRec$[esp+88], 0
	call	DWORD PTR __imp_??0exception@std@@QAE@XZ
	lea	eax, DWORD PTR $T238251[esp+80]
	push	eax
	lea	ecx, DWORD PTR $T238250[esp+96]
	mov	BYTE PTR __$EHRec$[esp+92], 1
	mov	DWORD PTR $T238250[esp+84], OFFSET ??_7logic_error@std@@6B@
	call	DWORD PTR __imp_??0?$basic_string@DU?$char_traits@D@std@@V?$allocator@D@2@@std@@QAE@ABV01@@Z
	push	OFFSET __TI3?AVlength_error@std@@
	lea	ecx, DWORD PTR $T238250[esp+84]
	push	ecx
	mov	BYTE PTR __$EHRec$[esp+96], 0
	mov	DWORD PTR $T238250[esp+88], OFFSET ??_7length_error@std@@6B@
	call	__CxxThrowException@8
$LN13@Xlen:
$LN12@Xlen:
	int	3
_TEXT	ENDS
;	COMDAT text$x
text$x	SEGMENT
__unwindfunclet$?_Xlen@?$vector@VCvHomelandTarget@@V?$allocator@VCvHomelandTarget@@@std@@@std@@KAXXZ$0:
	lea	ecx, DWORD PTR $T238251[ebp]
	jmp	DWORD PTR __imp_??1?$basic_string@DU?$char_traits@D@std@@V?$allocator@D@2@@std@@QAE@XZ
__unwindfunclet$?_Xlen@?$vector@VCvHomelandTarget@@V?$allocator@VCvHomelandTarget@@@std@@@std@@KAXXZ$2:
	lea	ecx, DWORD PTR $T238250[ebp]
	jmp	DWORD PTR __imp_??1exception@std@@UAE@XZ
__ehhandler$?_Xlen@?$vector@VCvHomelandTarget@@V?$allocator@VCvHomelandTarget@@@std@@@std@@KAXXZ:
	mov	eax, OFFSET __ehfuncinfo$?_Xlen@?$vector@VCvHomelandTarget@@V?$allocator@VCvHomelandTarget@@@std@@@std@@KAXXZ
	jmp	___CxxFrameHandler3
text$x	ENDS
?_Xlen@?$vector@VCvHomelandTarget@@V?$allocator@VCvHomelandTarget@@@std@@@std@@KAXXZ ENDP ; std::vector<CvHomelandTarget,std::allocator<CvHomelandTarget> >::_Xlen
EXTRN	__imp_??0exception@std@@QAE@ABV01@@Z:PROC
;	COMDAT xdata$x
xdata$x	SEGMENT
__unwindtable$??0logic_error@std@@QAE@ABV01@@Z DD 0ffffffffH
	DD	FLAT:__unwindfunclet$??0logic_error@std@@QAE@ABV01@@Z$0
__ehfuncinfo$??0logic_error@std@@QAE@ABV01@@Z DD 019930522H
	DD	01H
	DD	FLAT:__unwindtable$??0logic_error@std@@QAE@ABV01@@Z
	DD	2 DUP(00H)
	DD	2 DUP(00H)
	DD	00H
	DD	01H
; Function compile flags: /Ogtpy
xdata$x	ENDS
;	COMDAT ??0logic_error@std@@QAE@ABV01@@Z
_TEXT	SEGMENT
_this$ = -16						; size = 4
__$EHRec$ = -12						; size = 12
___that$ = 8						; size = 4
??0logic_error@std@@QAE@ABV01@@Z PROC			; std::logic_error::logic_error, COMDAT
; _this$ = ecx
	push	-1
	push	__ehhandler$??0logic_error@std@@QAE@ABV01@@Z
	mov	eax, DWORD PTR fs:0
	push	eax
	mov	DWORD PTR fs:0, esp
	push	ecx
	push	esi
	push	edi
	mov	edi, DWORD PTR ___that$[esp+20]
	mov	esi, ecx
	push	edi
	mov	DWORD PTR _this$[esp+28], esi
	call	DWORD PTR __imp_??0exception@std@@QAE@ABV01@@Z
	add	edi, 12					; 0000000cH
	push	edi
	lea	ecx, DWORD PTR [esi+12]
	mov	DWORD PTR __$EHRec$[esp+36], 0
	mov	DWORD PTR [esi], OFFSET ??_7logic_error@std@@6B@
	call	DWORD PTR __imp_??0?$basic_string@DU?$char_traits@D@std@@V?$allocator@D@2@@std@@QAE@ABV01@@Z
	mov	ecx, DWORD PTR __$EHRec$[esp+24]
	pop	edi
	mov	eax, esi
	pop	esi
	mov	DWORD PTR fs:0, ecx
	add	esp, 16					; 00000010H
	ret	4
_TEXT	ENDS
;	COMDAT text$x
text$x	SEGMENT
__unwindfunclet$??0logic_error@std@@QAE@ABV01@@Z$0:
	mov	ecx, DWORD PTR _this$[ebp]
	jmp	DWORD PTR __imp_??1exception@std@@UAE@XZ
__ehhandler$??0logic_error@std@@QAE@ABV01@@Z:
	mov	eax, OFFSET __ehfuncinfo$??0logic_error@std@@QAE@ABV01@@Z
	jmp	___CxxFrameHandler3
text$x	ENDS
??0logic_error@std@@QAE@ABV01@@Z ENDP			; std::logic_error::logic_error
PUBLIC	??0?$_Container_base_aux_alloc_empty@V?$allocator@VCvHomelandTarget@@@std@@@std@@IAE@V?$allocator@VCvHomelandTarget@@@1@@Z ; std::_Container_base_aux_alloc_empty<std::allocator<CvHomelandTarget> >::_Container_base_aux_alloc_empty<std::allocator<CvHomelandTarget> >
; Function compile flags: /Ogtpy
; File s:\msvs2008\vc\include\xutility
;	COMDAT ??0?$_Container_base_aux_alloc_empty@V?$allocator@VCvHomelandTarget@@@std@@@std@@IAE@V?$allocator@VCvHomelandTarget@@@1@@Z
_TEXT	SEGMENT
___formal$ = 8						; size = 1
??0?$_Container_base_aux_alloc_empty@V?$allocator@VCvHomelandTarget@@@std@@@std@@IAE@V?$allocator@VCvHomelandTarget@@@1@@Z PROC ; std::_Container_base_aux_alloc_empty<std::allocator<CvHomelandTarget> >::_Container_base_aux_alloc_empty<std::allocator<CvHomelandTarget> >, COMDAT
; _this$ = ecx

; 618  : 	explicit _Container_base_aux_alloc_empty(_Alloc) { }

	mov	eax, ecx
	ret	4
??0?$_Container_base_aux_alloc_empty@V?$allocator@VCvHomelandTarget@@@std@@@std@@IAE@V?$allocator@VCvHomelandTarget@@@1@@Z ENDP ; std::_Container_base_aux_alloc_empty<std::allocator<CvHomelandTarget> >::_Container_base_aux_alloc_empty<std::allocator<CvHomelandTarget> >
_TEXT	ENDS
PUBLIC	??0?$allocator@VCvHomelandTarget@@@std@@QAE@ABV01@@Z ; std::allocator<CvHomelandTarget>::allocator<CvHomelandTarget>
; Function compile flags: /Ogtpy
; File s:\msvs2008\vc\include\xmemory
;	COMDAT ??0?$allocator@VCvHomelandTarget@@@std@@QAE@ABV01@@Z
_TEXT	SEGMENT
___formal$ = 8						; size = 4
??0?$allocator@VCvHomelandTarget@@@std@@QAE@ABV01@@Z PROC ; std::allocator<CvHomelandTarget>::allocator<CvHomelandTarget>, COMDAT
; _this$ = ecx

; 123  : 	allocator(const allocator<_Ty>&) _THROW0()

	mov	eax, ecx

; 124  : 		{	// construct by copying (do nothing)
; 125  : 		}

	ret	4
??0?$allocator@VCvHomelandTarget@@@std@@QAE@ABV01@@Z ENDP ; std::allocator<CvHomelandTarget>::allocator<CvHomelandTarget>
_TEXT	ENDS
PUBLIC	?_Xlen@?$vector@PAVCvPlot@@V?$allocator@PAVCvPlot@@@std@@@std@@KAXXZ ; std::vector<CvPlot *,std::allocator<CvPlot *> >::_Xlen
;	COMDAT xdata$x
; File s:\msvs2008\vc\include\stdexcept
xdata$x	SEGMENT
__unwindtable$?_Xlen@?$vector@PAVCvPlot@@V?$allocator@PAVCvPlot@@@std@@@std@@KAXXZ DD 0ffffffffH
	DD	FLAT:__unwindfunclet$?_Xlen@?$vector@PAVCvPlot@@V?$allocator@PAVCvPlot@@@std@@@std@@KAXXZ$0
	DD	00H
	DD	FLAT:__unwindfunclet$?_Xlen@?$vector@PAVCvPlot@@V?$allocator@PAVCvPlot@@@std@@@std@@KAXXZ$2
__ehfuncinfo$?_Xlen@?$vector@PAVCvPlot@@V?$allocator@PAVCvPlot@@@std@@@std@@KAXXZ DD 019930522H
	DD	02H
	DD	FLAT:__unwindtable$?_Xlen@?$vector@PAVCvPlot@@V?$allocator@PAVCvPlot@@@std@@@std@@KAXXZ
	DD	2 DUP(00H)
	DD	2 DUP(00H)
	DD	00H
	DD	01H
; Function compile flags: /Ogtpy
; File s:\msvs2008\vc\include\vector
xdata$x	ENDS
;	COMDAT ?_Xlen@?$vector@PAVCvPlot@@V?$allocator@PAVCvPlot@@@std@@@std@@KAXXZ
_TEXT	SEGMENT
$T238294 = -80						; size = 28
$T238293 = -52						; size = 40
__$EHRec$ = -12						; size = 12
?_Xlen@?$vector@PAVCvPlot@@V?$allocator@PAVCvPlot@@@std@@@std@@KAXXZ PROC ; std::vector<CvPlot *,std::allocator<CvPlot *> >::_Xlen, COMDAT

; 1259 : 		{	// report a length_error

	push	-1
	push	__ehhandler$?_Xlen@?$vector@PAVCvPlot@@V?$allocator@PAVCvPlot@@@std@@@std@@KAXXZ
	mov	eax, DWORD PTR fs:0
	push	eax
	mov	DWORD PTR fs:0, esp
	sub	esp, 68					; 00000044H

; 1260 : 		_THROW(length_error, "vector<T> too long");

	push	OFFSET ??_C@_0BD@OLBABOEK@vector?$DMT?$DO?5too?5long?$AA@
	lea	ecx, DWORD PTR $T238294[esp+84]
	call	DWORD PTR __imp_??0?$basic_string@DU?$char_traits@D@std@@V?$allocator@D@2@@std@@QAE@PBD@Z
	lea	ecx, DWORD PTR $T238293[esp+80]
	mov	DWORD PTR __$EHRec$[esp+88], 0
	call	DWORD PTR __imp_??0exception@std@@QAE@XZ
	lea	eax, DWORD PTR $T238294[esp+80]
	push	eax
	lea	ecx, DWORD PTR $T238293[esp+96]
	mov	BYTE PTR __$EHRec$[esp+92], 1
	mov	DWORD PTR $T238293[esp+84], OFFSET ??_7logic_error@std@@6B@
	call	DWORD PTR __imp_??0?$basic_string@DU?$char_traits@D@std@@V?$allocator@D@2@@std@@QAE@ABV01@@Z
	push	OFFSET __TI3?AVlength_error@std@@
	lea	ecx, DWORD PTR $T238293[esp+84]
	push	ecx
	mov	BYTE PTR __$EHRec$[esp+96], 0
	mov	DWORD PTR $T238293[esp+88], OFFSET ??_7length_error@std@@6B@
	call	__CxxThrowException@8
$LN13@Xlen@2:
$LN12@Xlen@2:
	int	3
_TEXT	ENDS
;	COMDAT text$x
text$x	SEGMENT
__unwindfunclet$?_Xlen@?$vector@PAVCvPlot@@V?$allocator@PAVCvPlot@@@std@@@std@@KAXXZ$0:
	lea	ecx, DWORD PTR $T238294[ebp]
	jmp	DWORD PTR __imp_??1?$basic_string@DU?$char_traits@D@std@@V?$allocator@D@2@@std@@QAE@XZ
__unwindfunclet$?_Xlen@?$vector@PAVCvPlot@@V?$allocator@PAVCvPlot@@@std@@@std@@KAXXZ$2:
	lea	ecx, DWORD PTR $T238293[ebp]
	jmp	DWORD PTR __imp_??1exception@std@@UAE@XZ
__ehhandler$?_Xlen@?$vector@PAVCvPlot@@V?$allocator@PAVCvPlot@@@std@@@std@@KAXXZ:
	mov	eax, OFFSET __ehfuncinfo$?_Xlen@?$vector@PAVCvPlot@@V?$allocator@PAVCvPlot@@@std@@@std@@KAXXZ
	jmp	___CxxFrameHandler3
text$x	ENDS
?_Xlen@?$vector@PAVCvPlot@@V?$allocator@PAVCvPlot@@@std@@@std@@KAXXZ ENDP ; std::vector<CvPlot *,std::allocator<CvPlot *> >::_Xlen
PUBLIC	??0?$_Container_base_aux_alloc_empty@V?$allocator@PAVCvPlot@@@std@@@std@@IAE@V?$allocator@PAVCvPlot@@@1@@Z ; std::_Container_base_aux_alloc_empty<std::allocator<CvPlot *> >::_Container_base_aux_alloc_empty<std::allocator<CvPlot *> >
; Function compile flags: /Ogtpy
; File s:\msvs2008\vc\include\xutility
;	COMDAT ??0?$_Container_base_aux_alloc_empty@V?$allocator@PAVCvPlot@@@std@@@std@@IAE@V?$allocator@PAVCvPlot@@@1@@Z
_TEXT	SEGMENT
___formal$ = 8						; size = 1
??0?$_Container_base_aux_alloc_empty@V?$allocator@PAVCvPlot@@@std@@@std@@IAE@V?$allocator@PAVCvPlot@@@1@@Z PROC ; std::_Container_base_aux_alloc_empty<std::allocator<CvPlot *> >::_Container_base_aux_alloc_empty<std::allocator<CvPlot *> >, COMDAT
; _this$ = ecx

; 618  : 	explicit _Container_base_aux_alloc_empty(_Alloc) { }

	mov	eax, ecx
	ret	4
??0?$_Container_base_aux_alloc_empty@V?$allocator@PAVCvPlot@@@std@@@std@@IAE@V?$allocator@PAVCvPlot@@@1@@Z ENDP ; std::_Container_base_aux_alloc_empty<std::allocator<CvPlot *> >::_Container_base_aux_alloc_empty<std::allocator<CvPlot *> >
_TEXT	ENDS
PUBLIC	??0?$allocator@PAVCvPlot@@@std@@QAE@ABV01@@Z	; std::allocator<CvPlot *>::allocator<CvPlot *>
; Function compile flags: /Ogtpy
; File s:\msvs2008\vc\include\xmemory
;	COMDAT ??0?$allocator@PAVCvPlot@@@std@@QAE@ABV01@@Z
_TEXT	SEGMENT
___formal$ = 8						; size = 4
??0?$allocator@PAVCvPlot@@@std@@QAE@ABV01@@Z PROC	; std::allocator<CvPlot *>::allocator<CvPlot *>, COMDAT
; _this$ = ecx

; 123  : 	allocator(const allocator<_Ty>&) _THROW0()

	mov	eax, ecx

; 124  : 		{	// construct by copying (do nothing)
; 125  : 		}

	ret	4
??0?$allocator@PAVCvPlot@@@std@@QAE@ABV01@@Z ENDP	; std::allocator<CvPlot *>::allocator<CvPlot *>
_TEXT	ENDS
PUBLIC	?deallocate@?$allocator@PAVCvPlot@@@std@@QAEXPAPAVCvPlot@@I@Z ; std::allocator<CvPlot *>::deallocate
; Function compile flags: /Ogtpy
;	COMDAT ?deallocate@?$allocator@PAVCvPlot@@@std@@QAEXPAPAVCvPlot@@I@Z
_TEXT	SEGMENT
__Ptr$ = 8						; size = 4
___formal$ = 12						; size = 4
?deallocate@?$allocator@PAVCvPlot@@@std@@QAEXPAPAVCvPlot@@I@Z PROC ; std::allocator<CvPlot *>::deallocate, COMDAT
; _this$ = ecx

; 140  : 		::operator delete(_Ptr);

	mov	eax, DWORD PTR __Ptr$[esp-4]
	push	eax
	call	??3@YAXPAX@Z				; operator delete
	pop	ecx

; 141  : 		}

	ret	8
?deallocate@?$allocator@PAVCvPlot@@@std@@QAEXPAPAVCvPlot@@I@Z ENDP ; std::allocator<CvPlot *>::deallocate
_TEXT	ENDS
PUBLIC	?Destroy@?$BaseVector@U?$pair@HPAVCvPlot@@@std@@$0A@@@IAEXPAU?$pair@HPAVCvPlot@@@std@@I@Z ; BaseVector<std::pair<int,CvPlot *>,0>::Destroy
; Function compile flags: /Ogtpy
; File s:\lekmod_dll\fireplace\include\fireworks\ffastvector.h
;	COMDAT ?Destroy@?$BaseVector@U?$pair@HPAVCvPlot@@@std@@$0A@@@IAEXPAU?$pair@HPAVCvPlot@@@std@@I@Z
_TEXT	SEGMENT
_pVal$ = 8						; size = 4
_uiNumElements$ = 12					; size = 4
?Destroy@?$BaseVector@U?$pair@HPAVCvPlot@@@std@@$0A@@@IAEXPAU?$pair@HPAVCvPlot@@@std@@I@Z PROC ; BaseVector<std::pair<int,CvPlot *>,0>::Destroy, COMDAT
; _this$ = ecx

; 221  : 		if( !bPODType){
; 222  : 			for(unsigned int i = 0; i < uiNumElements; ++i){
; 223  : 				pVal[i].~T();
; 224  : 			}
; 225  : 		}
; 226  : 	};

	ret	8
?Destroy@?$BaseVector@U?$pair@HPAVCvPlot@@@std@@$0A@@@IAEXPAU?$pair@HPAVCvPlot@@@std@@I@Z ENDP ; BaseVector<std::pair<int,CvPlot *>,0>::Destroy
_TEXT	ENDS
PUBLIC	??0?$_Vector_const_iterator@VCvHomelandTarget@@V?$allocator@VCvHomelandTarget@@@std@@@std@@QAE@PAVCvHomelandTarget@@@Z ; std::_Vector_const_iterator<CvHomelandTarget,std::allocator<CvHomelandTarget> >::_Vector_const_iterator<CvHomelandTarget,std::allocator<CvHomelandTarget> >
; Function compile flags: /Ogtpy
; File s:\msvs2008\vc\include\vector
;	COMDAT ??0?$_Vector_const_iterator@VCvHomelandTarget@@V?$allocator@VCvHomelandTarget@@@std@@@std@@QAE@PAVCvHomelandTarget@@@Z
_TEXT	SEGMENT
__Ptr$ = 8						; size = 4
??0?$_Vector_const_iterator@VCvHomelandTarget@@V?$allocator@VCvHomelandTarget@@@std@@@std@@QAE@PAVCvHomelandTarget@@@Z PROC ; std::_Vector_const_iterator<CvHomelandTarget,std::allocator<CvHomelandTarget> >::_Vector_const_iterator<CvHomelandTarget,std::allocator<CvHomelandTarget> >, COMDAT
; _this$ = ecx

; 84   : 	explicit _Vector_const_iterator(_Tptr _Ptr)

	mov	eax, ecx

; 85   : 		{	// construct with pointer _Ptr
; 86   : 		_Myptr = _Ptr;

	mov	ecx, DWORD PTR __Ptr$[esp-4]
	mov	DWORD PTR [eax], ecx

; 87   : 		}

	ret	4
??0?$_Vector_const_iterator@VCvHomelandTarget@@V?$allocator@VCvHomelandTarget@@@std@@@std@@QAE@PAVCvHomelandTarget@@@Z ENDP ; std::_Vector_const_iterator<CvHomelandTarget,std::allocator<CvHomelandTarget> >::_Vector_const_iterator<CvHomelandTarget,std::allocator<CvHomelandTarget> >
_TEXT	ENDS
PUBLIC	??G?$_Vector_const_iterator@VCvHomelandTarget@@V?$allocator@VCvHomelandTarget@@@std@@@std@@QBEHABV01@@Z ; std::_Vector_const_iterator<CvHomelandTarget,std::allocator<CvHomelandTarget> >::operator-
; Function compile flags: /Ogtpy
;	COMDAT ??G?$_Vector_const_iterator@VCvHomelandTarget@@V?$allocator@VCvHomelandTarget@@@std@@@std@@QBEHABV01@@Z
_TEXT	SEGMENT
__Right$ = 8						; size = 4
??G?$_Vector_const_iterator@VCvHomelandTarget@@V?$allocator@VCvHomelandTarget@@@std@@@std@@QBEHABV01@@Z PROC ; std::_Vector_const_iterator<CvHomelandTarget,std::allocator<CvHomelandTarget> >::operator-, COMDAT
; _this$ = ecx

; 187  : 
; 188  :  #if _HAS_ITERATOR_DEBUGGING
; 189  : 		_Compat(_Right);
; 190  :  #else
; 191  : 		_SCL_SECURE_VALIDATE(this->_Has_container() && this->_Same_container(_Right));
; 192  :  #endif /* _HAS_ITERATOR_DEBUGGING */
; 193  : 
; 194  : 		return (_Myptr - _Right._Myptr);

	mov	eax, DWORD PTR __Right$[esp-4]
	mov	ecx, DWORD PTR [ecx]
	sub	ecx, DWORD PTR [eax]
	mov	eax, 1717986919				; 66666667H
	imul	ecx
	sar	edx, 3
	mov	eax, edx
	shr	eax, 31					; 0000001fH
	add	eax, edx

; 195  : 		}

	ret	4
??G?$_Vector_const_iterator@VCvHomelandTarget@@V?$allocator@VCvHomelandTarget@@@std@@@std@@QBEHABV01@@Z ENDP ; std::_Vector_const_iterator<CvHomelandTarget,std::allocator<CvHomelandTarget> >::operator-
_TEXT	ENDS
PUBLIC	??0?$_Const_iterator@$0A@@?$list@HV?$allocator@H@std@@@std@@QAE@PAU_Node@?$_List_nod@HV?$allocator@H@std@@@2@@Z ; std::list<int,std::allocator<int> >::_Const_iterator<0>::_Const_iterator<0>
; Function compile flags: /Ogtpy
; File s:\msvs2008\vc\include\list
;	COMDAT ??0?$_Const_iterator@$0A@@?$list@HV?$allocator@H@std@@@std@@QAE@PAU_Node@?$_List_nod@HV?$allocator@H@std@@@2@@Z
_TEXT	SEGMENT
__Pnode$ = 8						; size = 4
??0?$_Const_iterator@$0A@@?$list@HV?$allocator@H@std@@@std@@QAE@PAU_Node@?$_List_nod@HV?$allocator@H@std@@@2@@Z PROC ; std::list<int,std::allocator<int> >::_Const_iterator<0>::_Const_iterator<0>, COMDAT
; _this$ = ecx

; 184  : 			{	// construct with node pointer _Pnode

	mov	eax, ecx
	mov	ecx, DWORD PTR __Pnode$[esp-4]
	mov	DWORD PTR [eax], ecx

; 185  : 			}

	ret	4
??0?$_Const_iterator@$0A@@?$list@HV?$allocator@H@std@@@std@@QAE@PAU_Node@?$_List_nod@HV?$allocator@H@std@@@2@@Z ENDP ; std::list<int,std::allocator<int> >::_Const_iterator<0>::_Const_iterator<0>
_TEXT	ENDS
PUBLIC	??E?$_Const_iterator@$0A@@?$list@HV?$allocator@H@std@@@std@@QAE?AV012@H@Z ; std::list<int,std::allocator<int> >::_Const_iterator<0>::operator++
; Function compile flags: /Ogtpy
;	COMDAT ??E?$_Const_iterator@$0A@@?$list@HV?$allocator@H@std@@@std@@QAE?AV012@H@Z
_TEXT	SEGMENT
___$ReturnUdt$ = 8					; size = 4
___formal$ = 12						; size = 4
??E?$_Const_iterator@$0A@@?$list@HV?$allocator@H@std@@@std@@QAE?AV012@H@Z PROC ; std::list<int,std::allocator<int> >::_Const_iterator<0>::operator++, COMDAT
; _this$ = ecx

; 256  : 			_Myt_iter _Tmp = *this;

	mov	edx, DWORD PTR [ecx]
	mov	eax, DWORD PTR ___$ReturnUdt$[esp-4]
	mov	DWORD PTR [eax], edx

; 257  : 			++*this;

	mov	edx, DWORD PTR [edx]
	mov	DWORD PTR [ecx], edx

; 258  : 			return (_Tmp);
; 259  : 			}

	ret	8
??E?$_Const_iterator@$0A@@?$list@HV?$allocator@H@std@@@std@@QAE?AV012@H@Z ENDP ; std::list<int,std::allocator<int> >::_Const_iterator<0>::operator++
_TEXT	ENDS
PUBLIC	?_Mynode@?$_Const_iterator@$0A@@?$list@HV?$allocator@H@std@@@std@@QBEPAU_Node@?$_List_nod@HV?$allocator@H@std@@@3@XZ ; std::list<int,std::allocator<int> >::_Const_iterator<0>::_Mynode
; Function compile flags: /Ogtpy
;	COMDAT ?_Mynode@?$_Const_iterator@$0A@@?$list@HV?$allocator@H@std@@@std@@QBEPAU_Node@?$_List_nod@HV?$allocator@H@std@@@3@XZ
_TEXT	SEGMENT
?_Mynode@?$_Const_iterator@$0A@@?$list@HV?$allocator@H@std@@@std@@QBEPAU_Node@?$_List_nod@HV?$allocator@H@std@@@3@XZ PROC ; std::list<int,std::allocator<int> >::_Const_iterator<0>::_Mynode, COMDAT
; _this$ = ecx

; 308  : 			return (_Ptr);

	mov	eax, DWORD PTR [ecx]

; 309  : 			}

	ret	0
?_Mynode@?$_Const_iterator@$0A@@?$list@HV?$allocator@H@std@@@std@@QBEPAU_Node@?$_List_nod@HV?$allocator@H@std@@@3@XZ ENDP ; std::list<int,std::allocator<int> >::_Const_iterator<0>::_Mynode
_TEXT	ENDS
PUBLIC	?_Xlen@?$vector@PAVCvCity@@V?$allocator@PAVCvCity@@@std@@@std@@KAXXZ ; std::vector<CvCity *,std::allocator<CvCity *> >::_Xlen
;	COMDAT xdata$x
; File s:\msvs2008\vc\include\stdexcept
xdata$x	SEGMENT
__unwindtable$?_Xlen@?$vector@PAVCvCity@@V?$allocator@PAVCvCity@@@std@@@std@@KAXXZ DD 0ffffffffH
	DD	FLAT:__unwindfunclet$?_Xlen@?$vector@PAVCvCity@@V?$allocator@PAVCvCity@@@std@@@std@@KAXXZ$0
	DD	00H
	DD	FLAT:__unwindfunclet$?_Xlen@?$vector@PAVCvCity@@V?$allocator@PAVCvCity@@@std@@@std@@KAXXZ$2
__ehfuncinfo$?_Xlen@?$vector@PAVCvCity@@V?$allocator@PAVCvCity@@@std@@@std@@KAXXZ DD 019930522H
	DD	02H
	DD	FLAT:__unwindtable$?_Xlen@?$vector@PAVCvCity@@V?$allocator@PAVCvCity@@@std@@@std@@KAXXZ
	DD	2 DUP(00H)
	DD	2 DUP(00H)
	DD	00H
	DD	01H
; Function compile flags: /Ogtpy
; File s:\msvs2008\vc\include\vector
xdata$x	ENDS
;	COMDAT ?_Xlen@?$vector@PAVCvCity@@V?$allocator@PAVCvCity@@@std@@@std@@KAXXZ
_TEXT	SEGMENT
$T238357 = -80						; size = 28
$T238356 = -52						; size = 40
__$EHRec$ = -12						; size = 12
?_Xlen@?$vector@PAVCvCity@@V?$allocator@PAVCvCity@@@std@@@std@@KAXXZ PROC ; std::vector<CvCity *,std::allocator<CvCity *> >::_Xlen, COMDAT

; 1259 : 		{	// report a length_error

	push	-1
	push	__ehhandler$?_Xlen@?$vector@PAVCvCity@@V?$allocator@PAVCvCity@@@std@@@std@@KAXXZ
	mov	eax, DWORD PTR fs:0
	push	eax
	mov	DWORD PTR fs:0, esp
	sub	esp, 68					; 00000044H

; 1260 : 		_THROW(length_error, "vector<T> too long");

	push	OFFSET ??_C@_0BD@OLBABOEK@vector?$DMT?$DO?5too?5long?$AA@
	lea	ecx, DWORD PTR $T238357[esp+84]
	call	DWORD PTR __imp_??0?$basic_string@DU?$char_traits@D@std@@V?$allocator@D@2@@std@@QAE@PBD@Z
	lea	ecx, DWORD PTR $T238356[esp+80]
	mov	DWORD PTR __$EHRec$[esp+88], 0
	call	DWORD PTR __imp_??0exception@std@@QAE@XZ
	lea	eax, DWORD PTR $T238357[esp+80]
	push	eax
	lea	ecx, DWORD PTR $T238356[esp+96]
	mov	BYTE PTR __$EHRec$[esp+92], 1
	mov	DWORD PTR $T238356[esp+84], OFFSET ??_7logic_error@std@@6B@
	call	DWORD PTR __imp_??0?$basic_string@DU?$char_traits@D@std@@V?$allocator@D@2@@std@@QAE@ABV01@@Z
	push	OFFSET __TI3?AVlength_error@std@@
	lea	ecx, DWORD PTR $T238356[esp+84]
	push	ecx
	mov	BYTE PTR __$EHRec$[esp+96], 0
	mov	DWORD PTR $T238356[esp+88], OFFSET ??_7length_error@std@@6B@
	call	__CxxThrowException@8
$LN13@Xlen@3:
$LN12@Xlen@3:
	int	3
_TEXT	ENDS
;	COMDAT text$x
text$x	SEGMENT
__unwindfunclet$?_Xlen@?$vector@PAVCvCity@@V?$allocator@PAVCvCity@@@std@@@std@@KAXXZ$0:
	lea	ecx, DWORD PTR $T238357[ebp]
	jmp	DWORD PTR __imp_??1?$basic_string@DU?$char_traits@D@std@@V?$allocator@D@2@@std@@QAE@XZ
__unwindfunclet$?_Xlen@?$vector@PAVCvCity@@V?$allocator@PAVCvCity@@@std@@@std@@KAXXZ$2:
	lea	ecx, DWORD PTR $T238356[ebp]
	jmp	DWORD PTR __imp_??1exception@std@@UAE@XZ
__ehhandler$?_Xlen@?$vector@PAVCvCity@@V?$allocator@PAVCvCity@@@std@@@std@@KAXXZ:
	mov	eax, OFFSET __ehfuncinfo$?_Xlen@?$vector@PAVCvCity@@V?$allocator@PAVCvCity@@@std@@@std@@KAXXZ
	jmp	___CxxFrameHandler3
text$x	ENDS
?_Xlen@?$vector@PAVCvCity@@V?$allocator@PAVCvCity@@@std@@@std@@KAXXZ ENDP ; std::vector<CvCity *,std::allocator<CvCity *> >::_Xlen
PUBLIC	??0?$_Container_base_aux_alloc_empty@V?$allocator@PAVCvCity@@@std@@@std@@IAE@V?$allocator@PAVCvCity@@@1@@Z ; std::_Container_base_aux_alloc_empty<std::allocator<CvCity *> >::_Container_base_aux_alloc_empty<std::allocator<CvCity *> >
; Function compile flags: /Ogtpy
; File s:\msvs2008\vc\include\xutility
;	COMDAT ??0?$_Container_base_aux_alloc_empty@V?$allocator@PAVCvCity@@@std@@@std@@IAE@V?$allocator@PAVCvCity@@@1@@Z
_TEXT	SEGMENT
___formal$ = 8						; size = 1
??0?$_Container_base_aux_alloc_empty@V?$allocator@PAVCvCity@@@std@@@std@@IAE@V?$allocator@PAVCvCity@@@1@@Z PROC ; std::_Container_base_aux_alloc_empty<std::allocator<CvCity *> >::_Container_base_aux_alloc_empty<std::allocator<CvCity *> >, COMDAT
; _this$ = ecx

; 618  : 	explicit _Container_base_aux_alloc_empty(_Alloc) { }

	mov	eax, ecx
	ret	4
??0?$_Container_base_aux_alloc_empty@V?$allocator@PAVCvCity@@@std@@@std@@IAE@V?$allocator@PAVCvCity@@@1@@Z ENDP ; std::_Container_base_aux_alloc_empty<std::allocator<CvCity *> >::_Container_base_aux_alloc_empty<std::allocator<CvCity *> >
_TEXT	ENDS
PUBLIC	??0?$allocator@PAVCvCity@@@std@@QAE@ABV01@@Z	; std::allocator<CvCity *>::allocator<CvCity *>
; Function compile flags: /Ogtpy
; File s:\msvs2008\vc\include\xmemory
;	COMDAT ??0?$allocator@PAVCvCity@@@std@@QAE@ABV01@@Z
_TEXT	SEGMENT
___formal$ = 8						; size = 4
??0?$allocator@PAVCvCity@@@std@@QAE@ABV01@@Z PROC	; std::allocator<CvCity *>::allocator<CvCity *>, COMDAT
; _this$ = ecx

; 123  : 	allocator(const allocator<_Ty>&) _THROW0()

	mov	eax, ecx

; 124  : 		{	// construct by copying (do nothing)
; 125  : 		}

	ret	4
??0?$allocator@PAVCvCity@@@std@@QAE@ABV01@@Z ENDP	; std::allocator<CvCity *>::allocator<CvCity *>
_TEXT	ENDS
PUBLIC	?deallocate@?$allocator@PAVCvCity@@@std@@QAEXPAPAVCvCity@@I@Z ; std::allocator<CvCity *>::deallocate
; Function compile flags: /Ogtpy
;	COMDAT ?deallocate@?$allocator@PAVCvCity@@@std@@QAEXPAPAVCvCity@@I@Z
_TEXT	SEGMENT
__Ptr$ = 8						; size = 4
___formal$ = 12						; size = 4
?deallocate@?$allocator@PAVCvCity@@@std@@QAEXPAPAVCvCity@@I@Z PROC ; std::allocator<CvCity *>::deallocate, COMDAT
; _this$ = ecx

; 140  : 		::operator delete(_Ptr);

	mov	eax, DWORD PTR __Ptr$[esp-4]
	push	eax
	call	??3@YAXPAX@Z				; operator delete
	pop	ecx

; 141  : 		}

	ret	8
?deallocate@?$allocator@PAVCvCity@@@std@@QAEXPAPAVCvCity@@I@Z ENDP ; std::allocator<CvCity *>::deallocate
_TEXT	ENDS
PUBLIC	??0?$_Vector_const_iterator@PAVCvCity@@V?$allocator@PAVCvCity@@@std@@@std@@QAE@PAPAVCvCity@@@Z ; std::_Vector_const_iterator<CvCity *,std::allocator<CvCity *> >::_Vector_const_iterator<CvCity *,std::allocator<CvCity *> >
; Function compile flags: /Ogtpy
; File s:\msvs2008\vc\include\vector
;	COMDAT ??0?$_Vector_const_iterator@PAVCvCity@@V?$allocator@PAVCvCity@@@std@@@std@@QAE@PAPAVCvCity@@@Z
_TEXT	SEGMENT
__Ptr$ = 8						; size = 4
??0?$_Vector_const_iterator@PAVCvCity@@V?$allocator@PAVCvCity@@@std@@@std@@QAE@PAPAVCvCity@@@Z PROC ; std::_Vector_const_iterator<CvCity *,std::allocator<CvCity *> >::_Vector_const_iterator<CvCity *,std::allocator<CvCity *> >, COMDAT
; _this$ = ecx

; 84   : 	explicit _Vector_const_iterator(_Tptr _Ptr)

	mov	eax, ecx

; 85   : 		{	// construct with pointer _Ptr
; 86   : 		_Myptr = _Ptr;

	mov	ecx, DWORD PTR __Ptr$[esp-4]
	mov	DWORD PTR [eax], ecx

; 87   : 		}

	ret	4
??0?$_Vector_const_iterator@PAVCvCity@@V?$allocator@PAVCvCity@@@std@@@std@@QAE@PAPAVCvCity@@@Z ENDP ; std::_Vector_const_iterator<CvCity *,std::allocator<CvCity *> >::_Vector_const_iterator<CvCity *,std::allocator<CvCity *> >
_TEXT	ENDS
PUBLIC	??G?$_Vector_const_iterator@PAVCvCity@@V?$allocator@PAVCvCity@@@std@@@std@@QBEHABV01@@Z ; std::_Vector_const_iterator<CvCity *,std::allocator<CvCity *> >::operator-
; Function compile flags: /Ogtpy
;	COMDAT ??G?$_Vector_const_iterator@PAVCvCity@@V?$allocator@PAVCvCity@@@std@@@std@@QBEHABV01@@Z
_TEXT	SEGMENT
__Right$ = 8						; size = 4
??G?$_Vector_const_iterator@PAVCvCity@@V?$allocator@PAVCvCity@@@std@@@std@@QBEHABV01@@Z PROC ; std::_Vector_const_iterator<CvCity *,std::allocator<CvCity *> >::operator-, COMDAT
; _this$ = ecx

; 187  : 
; 188  :  #if _HAS_ITERATOR_DEBUGGING
; 189  : 		_Compat(_Right);
; 190  :  #else
; 191  : 		_SCL_SECURE_VALIDATE(this->_Has_container() && this->_Same_container(_Right));
; 192  :  #endif /* _HAS_ITERATOR_DEBUGGING */
; 193  : 
; 194  : 		return (_Myptr - _Right._Myptr);

	mov	eax, DWORD PTR [ecx]
	mov	ecx, DWORD PTR __Right$[esp-4]
	sub	eax, DWORD PTR [ecx]
	sar	eax, 2

; 195  : 		}

	ret	4
??G?$_Vector_const_iterator@PAVCvCity@@V?$allocator@PAVCvCity@@@std@@@std@@QBEHABV01@@Z ENDP ; std::_Vector_const_iterator<CvCity *,std::allocator<CvCity *> >::operator-
_TEXT	ENDS
PUBLIC	??0?$_Vector_const_iterator@PAVCvPlot@@V?$allocator@PAVCvPlot@@@std@@@std@@QAE@PAPAVCvPlot@@@Z ; std::_Vector_const_iterator<CvPlot *,std::allocator<CvPlot *> >::_Vector_const_iterator<CvPlot *,std::allocator<CvPlot *> >
; Function compile flags: /Ogtpy
;	COMDAT ??0?$_Vector_const_iterator@PAVCvPlot@@V?$allocator@PAVCvPlot@@@std@@@std@@QAE@PAPAVCvPlot@@@Z
_TEXT	SEGMENT
__Ptr$ = 8						; size = 4
??0?$_Vector_const_iterator@PAVCvPlot@@V?$allocator@PAVCvPlot@@@std@@@std@@QAE@PAPAVCvPlot@@@Z PROC ; std::_Vector_const_iterator<CvPlot *,std::allocator<CvPlot *> >::_Vector_const_iterator<CvPlot *,std::allocator<CvPlot *> >, COMDAT
; _this$ = ecx

; 84   : 	explicit _Vector_const_iterator(_Tptr _Ptr)

	mov	eax, ecx

; 85   : 		{	// construct with pointer _Ptr
; 86   : 		_Myptr = _Ptr;

	mov	ecx, DWORD PTR __Ptr$[esp-4]
	mov	DWORD PTR [eax], ecx

; 87   : 		}

	ret	4
??0?$_Vector_const_iterator@PAVCvPlot@@V?$allocator@PAVCvPlot@@@std@@@std@@QAE@PAPAVCvPlot@@@Z ENDP ; std::_Vector_const_iterator<CvPlot *,std::allocator<CvPlot *> >::_Vector_const_iterator<CvPlot *,std::allocator<CvPlot *> >
_TEXT	ENDS
PUBLIC	??G?$_Vector_const_iterator@PAVCvPlot@@V?$allocator@PAVCvPlot@@@std@@@std@@QBEHABV01@@Z ; std::_Vector_const_iterator<CvPlot *,std::allocator<CvPlot *> >::operator-
; Function compile flags: /Ogtpy
;	COMDAT ??G?$_Vector_const_iterator@PAVCvPlot@@V?$allocator@PAVCvPlot@@@std@@@std@@QBEHABV01@@Z
_TEXT	SEGMENT
__Right$ = 8						; size = 4
??G?$_Vector_const_iterator@PAVCvPlot@@V?$allocator@PAVCvPlot@@@std@@@std@@QBEHABV01@@Z PROC ; std::_Vector_const_iterator<CvPlot *,std::allocator<CvPlot *> >::operator-, COMDAT
; _this$ = ecx

; 187  : 
; 188  :  #if _HAS_ITERATOR_DEBUGGING
; 189  : 		_Compat(_Right);
; 190  :  #else
; 191  : 		_SCL_SECURE_VALIDATE(this->_Has_container() && this->_Same_container(_Right));
; 192  :  #endif /* _HAS_ITERATOR_DEBUGGING */
; 193  : 
; 194  : 		return (_Myptr - _Right._Myptr);

	mov	eax, DWORD PTR [ecx]
	mov	ecx, DWORD PTR __Right$[esp-4]
	sub	eax, DWORD PTR [ecx]
	sar	eax, 2

; 195  : 		}

	ret	4
??G?$_Vector_const_iterator@PAVCvPlot@@V?$allocator@PAVCvPlot@@@std@@@std@@QBEHABV01@@Z ENDP ; std::_Vector_const_iterator<CvPlot *,std::allocator<CvPlot *> >::operator-
_TEXT	ENDS
PUBLIC	?Alloc@?$FStaticVector@UWeightedElement@?$CvWeightedVector@PAVCvPlot@@$0GE@$00@@$0GE@$00$0A@$0A@@@IAEPAUWeightedElement@?$CvWeightedVector@PAVCvPlot@@$0GE@$00@@I@Z ; FStaticVector<CvWeightedVector<CvPlot *,100,1>::WeightedElement,100,1,0,0>::Alloc
; Function compile flags: /Ogtpy
; File s:\lekmod_dll\fireplace\include\fireworks\ffastvector.h
;	COMDAT ?Alloc@?$FStaticVector@UWeightedElement@?$CvWeightedVector@PAVCvPlot@@$0GE@$00@@$0GE@$00$0A@$0A@@@IAEPAUWeightedElement@?$CvWeightedVector@PAVCvPlot@@$0GE@$00@@I@Z
_TEXT	SEGMENT
_uiSize$ = 8						; size = 4
?Alloc@?$FStaticVector@UWeightedElement@?$CvWeightedVector@PAVCvPlot@@$0GE@$00@@$0GE@$00$0A@$0A@@@IAEPAUWeightedElement@?$CvWeightedVector@PAVCvPlot@@$0GE@$00@@I@Z PROC ; FStaticVector<CvWeightedVector<CvPlot *,100,1>::WeightedElement,100,1,0,0>::Alloc, COMDAT
; _this$ = ecx

; 795  : 	T* Alloc(unsigned int uiSize){

	push	esi
	push	edi

; 796  : 		T* pRet;
; 797  : 		if( uiSize > L ){

	mov	edi, DWORD PTR _uiSize$[esp+4]
	mov	esi, ecx
	cmp	edi, 100				; 00000064H
	jbe	SHORT $LN2@Alloc@4

; 798  : 			pRet = (T*)FMALLOCALIGNED( uiSize*sizeof(T), __alignof(T), AllocPool, nSubID );

	push	798					; 0000031eH
	push	OFFSET ??_C@_0DI@OIPOBLCO@s?3?2lekmod_dll?2fireplace?2include?2@
	lea	eax, DWORD PTR [edi*8]
	push	4
	push	eax
	call	?FireMallocAlignedNoTracking@@YAPAXIIPBDH@Z ; FireMallocAlignedNoTracking
	add	esp, 16					; 00000010H

; 799  : 			m_uiCurrMaxSize = uiSize;

	mov	DWORD PTR [esi+8], edi
	pop	edi
	pop	esi

; 803  : 		}
; 804  : 		return pRet;
; 805  : 	};

	ret	4
$LN2@Alloc@4:
	pop	edi

; 800  : 		}else{
; 801  : 			pRet = (T*)m_aData;

	lea	eax, DWORD PTR [esi+12]

; 802  : 			m_uiCurrMaxSize = L;

	mov	DWORD PTR [esi+8], 100			; 00000064H
	pop	esi

; 803  : 		}
; 804  : 		return pRet;
; 805  : 	};

	ret	4
?Alloc@?$FStaticVector@UWeightedElement@?$CvWeightedVector@PAVCvPlot@@$0GE@$00@@$0GE@$00$0A@$0A@@@IAEPAUWeightedElement@?$CvWeightedVector@PAVCvPlot@@$0GE@$00@@I@Z ENDP ; FStaticVector<CvWeightedVector<CvPlot *,100,1>::WeightedElement,100,1,0,0>::Alloc
_TEXT	ENDS
PUBLIC	??1?$BaseVector@UWeightedElement@?$CvWeightedVector@PAVCvPlot@@$0GE@$00@@$00@@QAE@XZ ; BaseVector<CvWeightedVector<CvPlot *,100,1>::WeightedElement,1>::~BaseVector<CvWeightedVector<CvPlot *,100,1>::WeightedElement,1>
; Function compile flags: /Ogtpy
;	COMDAT ??1?$BaseVector@UWeightedElement@?$CvWeightedVector@PAVCvPlot@@$0GE@$00@@$00@@QAE@XZ
_TEXT	SEGMENT
??1?$BaseVector@UWeightedElement@?$CvWeightedVector@PAVCvPlot@@$0GE@$00@@$00@@QAE@XZ PROC ; BaseVector<CvWeightedVector<CvPlot *,100,1>::WeightedElement,1>::~BaseVector<CvWeightedVector<CvPlot *,100,1>::WeightedElement,1>, COMDAT
; _this$ = ecx

; 111  : 	~BaseVector(){};

	ret	0
??1?$BaseVector@UWeightedElement@?$CvWeightedVector@PAVCvPlot@@$0GE@$00@@$00@@QAE@XZ ENDP ; BaseVector<CvWeightedVector<CvPlot *,100,1>::WeightedElement,1>::~BaseVector<CvWeightedVector<CvPlot *,100,1>::WeightedElement,1>
_TEXT	ENDS
PUBLIC	??0?$BaseVector@UWeightedElement@?$CvWeightedVector@PAVCvPlot@@$0GE@$00@@$00@@IAE@XZ ; BaseVector<CvWeightedVector<CvPlot *,100,1>::WeightedElement,1>::BaseVector<CvWeightedVector<CvPlot *,100,1>::WeightedElement,1>
; Function compile flags: /Ogtpy
;	COMDAT ??0?$BaseVector@UWeightedElement@?$CvWeightedVector@PAVCvPlot@@$0GE@$00@@$00@@IAE@XZ
_TEXT	SEGMENT
??0?$BaseVector@UWeightedElement@?$CvWeightedVector@PAVCvPlot@@$0GE@$00@@$00@@IAE@XZ PROC ; BaseVector<CvWeightedVector<CvPlot *,100,1>::WeightedElement,1>::BaseVector<CvWeightedVector<CvPlot *,100,1>::WeightedElement,1>, COMDAT
; _this$ = ecx

; 216  : 	BaseVector() : m_uiCurrSize(0), m_uiCurrMaxSize(0), m_pData(NULL) {};

	mov	eax, ecx
	xor	ecx, ecx
	mov	DWORD PTR [eax], ecx
	mov	DWORD PTR [eax+4], ecx
	mov	DWORD PTR [eax+8], ecx
	ret	0
??0?$BaseVector@UWeightedElement@?$CvWeightedVector@PAVCvPlot@@$0GE@$00@@$00@@IAE@XZ ENDP ; BaseVector<CvWeightedVector<CvPlot *,100,1>::WeightedElement,1>::BaseVector<CvWeightedVector<CvPlot *,100,1>::WeightedElement,1>
_TEXT	ENDS
PUBLIC	?Destroy@?$BaseVector@UWeightedElement@?$CvWeightedVector@PAVCvPlot@@$0GE@$00@@$00@@IAEXPAUWeightedElement@?$CvWeightedVector@PAVCvPlot@@$0GE@$00@@I@Z ; BaseVector<CvWeightedVector<CvPlot *,100,1>::WeightedElement,1>::Destroy
; Function compile flags: /Ogtpy
;	COMDAT ?Destroy@?$BaseVector@UWeightedElement@?$CvWeightedVector@PAVCvPlot@@$0GE@$00@@$00@@IAEXPAUWeightedElement@?$CvWeightedVector@PAVCvPlot@@$0GE@$00@@I@Z
_TEXT	SEGMENT
_pVal$ = 8						; size = 4
_uiNumElements$ = 12					; size = 4
?Destroy@?$BaseVector@UWeightedElement@?$CvWeightedVector@PAVCvPlot@@$0GE@$00@@$00@@IAEXPAUWeightedElement@?$CvWeightedVector@PAVCvPlot@@$0GE@$00@@I@Z PROC ; BaseVector<CvWeightedVector<CvPlot *,100,1>::WeightedElement,1>::Destroy, COMDAT
; _this$ = ecx

; 221  : 		if( !bPODType){
; 222  : 			for(unsigned int i = 0; i < uiNumElements; ++i){
; 223  : 				pVal[i].~T();
; 224  : 			}
; 225  : 		}
; 226  : 	};

	ret	8
?Destroy@?$BaseVector@UWeightedElement@?$CvWeightedVector@PAVCvPlot@@$0GE@$00@@$00@@IAEXPAUWeightedElement@?$CvWeightedVector@PAVCvPlot@@$0GE@$00@@I@Z ENDP ; BaseVector<CvWeightedVector<CvPlot *,100,1>::WeightedElement,1>::Destroy
_TEXT	ENDS
PUBLIC	??0WeightedElement@?$CvWeightedVector@PAVCvPlot@@$0GE@$00@@QAE@ABU01@@Z ; CvWeightedVector<CvPlot *,100,1>::WeightedElement::WeightedElement
; Function compile flags: /Ogtpy
; File s:\lekmod_dll\cvgamecoredllutil\include\cvweightedvector.h
;	COMDAT ??0WeightedElement@?$CvWeightedVector@PAVCvPlot@@$0GE@$00@@QAE@ABU01@@Z
_TEXT	SEGMENT
_source$ = 8						; size = 4
??0WeightedElement@?$CvWeightedVector@PAVCvPlot@@$0GE@$00@@QAE@ABU01@@Z PROC ; CvWeightedVector<CvPlot *,100,1>::WeightedElement::WeightedElement, COMDAT
; _this$ = ecx

; 37   : 		{

	mov	eax, ecx
	mov	ecx, DWORD PTR _source$[esp-4]
	mov	edx, DWORD PTR [ecx]
	mov	DWORD PTR [eax], edx
	mov	ecx, DWORD PTR [ecx+4]
	mov	DWORD PTR [eax+4], ecx

; 38   : 		}

	ret	4
??0WeightedElement@?$CvWeightedVector@PAVCvPlot@@$0GE@$00@@QAE@ABU01@@Z ENDP ; CvWeightedVector<CvPlot *,100,1>::WeightedElement::WeightedElement
_TEXT	ENDS
PUBLIC	?Alloc@?$FStaticVector@UWeightedElement@?$CvWeightedVector@PAVCvCity@@$0EA@$00@@$0EA@$00$0A@$0A@@@IAEPAUWeightedElement@?$CvWeightedVector@PAVCvCity@@$0EA@$00@@I@Z ; FStaticVector<CvWeightedVector<CvCity *,64,1>::WeightedElement,64,1,0,0>::Alloc
; Function compile flags: /Ogtpy
; File s:\lekmod_dll\fireplace\include\fireworks\ffastvector.h
;	COMDAT ?Alloc@?$FStaticVector@UWeightedElement@?$CvWeightedVector@PAVCvCity@@$0EA@$00@@$0EA@$00$0A@$0A@@@IAEPAUWeightedElement@?$CvWeightedVector@PAVCvCity@@$0EA@$00@@I@Z
_TEXT	SEGMENT
_uiSize$ = 8						; size = 4
?Alloc@?$FStaticVector@UWeightedElement@?$CvWeightedVector@PAVCvCity@@$0EA@$00@@$0EA@$00$0A@$0A@@@IAEPAUWeightedElement@?$CvWeightedVector@PAVCvCity@@$0EA@$00@@I@Z PROC ; FStaticVector<CvWeightedVector<CvCity *,64,1>::WeightedElement,64,1,0,0>::Alloc, COMDAT
; _this$ = ecx

; 795  : 	T* Alloc(unsigned int uiSize){

	push	esi
	push	edi

; 796  : 		T* pRet;
; 797  : 		if( uiSize > L ){

	mov	edi, DWORD PTR _uiSize$[esp+4]
	mov	esi, ecx
	cmp	edi, 64					; 00000040H
	jbe	SHORT $LN2@Alloc@5

; 798  : 			pRet = (T*)FMALLOCALIGNED( uiSize*sizeof(T), __alignof(T), AllocPool, nSubID );

	push	798					; 0000031eH
	push	OFFSET ??_C@_0DI@OIPOBLCO@s?3?2lekmod_dll?2fireplace?2include?2@
	lea	eax, DWORD PTR [edi*8]
	push	4
	push	eax
	call	?FireMallocAlignedNoTracking@@YAPAXIIPBDH@Z ; FireMallocAlignedNoTracking
	add	esp, 16					; 00000010H

; 799  : 			m_uiCurrMaxSize = uiSize;

	mov	DWORD PTR [esi+8], edi
	pop	edi
	pop	esi

; 803  : 		}
; 804  : 		return pRet;
; 805  : 	};

	ret	4
$LN2@Alloc@5:
	pop	edi

; 800  : 		}else{
; 801  : 			pRet = (T*)m_aData;

	lea	eax, DWORD PTR [esi+12]

; 802  : 			m_uiCurrMaxSize = L;

	mov	DWORD PTR [esi+8], 64			; 00000040H
	pop	esi

; 803  : 		}
; 804  : 		return pRet;
; 805  : 	};

	ret	4
?Alloc@?$FStaticVector@UWeightedElement@?$CvWeightedVector@PAVCvCity@@$0EA@$00@@$0EA@$00$0A@$0A@@@IAEPAUWeightedElement@?$CvWeightedVector@PAVCvCity@@$0EA@$00@@I@Z ENDP ; FStaticVector<CvWeightedVector<CvCity *,64,1>::WeightedElement,64,1,0,0>::Alloc
_TEXT	ENDS
PUBLIC	??1?$BaseVector@UWeightedElement@?$CvWeightedVector@PAVCvCity@@$0EA@$00@@$00@@QAE@XZ ; BaseVector<CvWeightedVector<CvCity *,64,1>::WeightedElement,1>::~BaseVector<CvWeightedVector<CvCity *,64,1>::WeightedElement,1>
; Function compile flags: /Ogtpy
;	COMDAT ??1?$BaseVector@UWeightedElement@?$CvWeightedVector@PAVCvCity@@$0EA@$00@@$00@@QAE@XZ
_TEXT	SEGMENT
??1?$BaseVector@UWeightedElement@?$CvWeightedVector@PAVCvCity@@$0EA@$00@@$00@@QAE@XZ PROC ; BaseVector<CvWeightedVector<CvCity *,64,1>::WeightedElement,1>::~BaseVector<CvWeightedVector<CvCity *,64,1>::WeightedElement,1>, COMDAT
; _this$ = ecx

; 111  : 	~BaseVector(){};

	ret	0
??1?$BaseVector@UWeightedElement@?$CvWeightedVector@PAVCvCity@@$0EA@$00@@$00@@QAE@XZ ENDP ; BaseVector<CvWeightedVector<CvCity *,64,1>::WeightedElement,1>::~BaseVector<CvWeightedVector<CvCity *,64,1>::WeightedElement,1>
_TEXT	ENDS
PUBLIC	??0?$BaseVector@UWeightedElement@?$CvWeightedVector@PAVCvCity@@$0EA@$00@@$00@@IAE@XZ ; BaseVector<CvWeightedVector<CvCity *,64,1>::WeightedElement,1>::BaseVector<CvWeightedVector<CvCity *,64,1>::WeightedElement,1>
; Function compile flags: /Ogtpy
;	COMDAT ??0?$BaseVector@UWeightedElement@?$CvWeightedVector@PAVCvCity@@$0EA@$00@@$00@@IAE@XZ
_TEXT	SEGMENT
??0?$BaseVector@UWeightedElement@?$CvWeightedVector@PAVCvCity@@$0EA@$00@@$00@@IAE@XZ PROC ; BaseVector<CvWeightedVector<CvCity *,64,1>::WeightedElement,1>::BaseVector<CvWeightedVector<CvCity *,64,1>::WeightedElement,1>, COMDAT
; _this$ = ecx

; 216  : 	BaseVector() : m_uiCurrSize(0), m_uiCurrMaxSize(0), m_pData(NULL) {};

	mov	eax, ecx
	xor	ecx, ecx
	mov	DWORD PTR [eax], ecx
	mov	DWORD PTR [eax+4], ecx
	mov	DWORD PTR [eax+8], ecx
	ret	0
??0?$BaseVector@UWeightedElement@?$CvWeightedVector@PAVCvCity@@$0EA@$00@@$00@@IAE@XZ ENDP ; BaseVector<CvWeightedVector<CvCity *,64,1>::WeightedElement,1>::BaseVector<CvWeightedVector<CvCity *,64,1>::WeightedElement,1>
_TEXT	ENDS
PUBLIC	??0WeightedElement@?$CvWeightedVector@PAVCvCity@@$0EA@$00@@QAE@ABU01@@Z ; CvWeightedVector<CvCity *,64,1>::WeightedElement::WeightedElement
; Function compile flags: /Ogtpy
; File s:\lekmod_dll\cvgamecoredllutil\include\cvweightedvector.h
;	COMDAT ??0WeightedElement@?$CvWeightedVector@PAVCvCity@@$0EA@$00@@QAE@ABU01@@Z
_TEXT	SEGMENT
_source$ = 8						; size = 4
??0WeightedElement@?$CvWeightedVector@PAVCvCity@@$0EA@$00@@QAE@ABU01@@Z PROC ; CvWeightedVector<CvCity *,64,1>::WeightedElement::WeightedElement, COMDAT
; _this$ = ecx

; 37   : 		{

	mov	eax, ecx
	mov	ecx, DWORD PTR _source$[esp-4]
	mov	edx, DWORD PTR [ecx]
	mov	DWORD PTR [eax], edx
	mov	ecx, DWORD PTR [ecx+4]
	mov	DWORD PTR [eax+4], ecx

; 38   : 		}

	ret	4
??0WeightedElement@?$CvWeightedVector@PAVCvCity@@$0EA@$00@@QAE@ABU01@@Z ENDP ; CvWeightedVector<CvCity *,64,1>::WeightedElement::WeightedElement
_TEXT	ENDS
PUBLIC	?AllocAligned@FDefaultFastVectorAllocator@?$BaseVector@U?$pair@HPAVCvPlot@@@std@@$0A@@@SAPAXIIII@Z ; BaseVector<std::pair<int,CvPlot *>,0>::FDefaultFastVectorAllocator::AllocAligned
; Function compile flags: /Ogtpy
; File s:\lekmod_dll\fireplace\include\fireworks\ffastvector.h
;	COMDAT ?AllocAligned@FDefaultFastVectorAllocator@?$BaseVector@U?$pair@HPAVCvPlot@@@std@@$0A@@@SAPAXIIII@Z
_TEXT	SEGMENT
_nBytes$ = 8						; size = 4
_nAlign$ = 12						; size = 4
_nAllocPool$ = 16					; size = 4
_nAllocSubID$ = 20					; size = 4
?AllocAligned@FDefaultFastVectorAllocator@?$BaseVector@U?$pair@HPAVCvPlot@@@std@@$0A@@@SAPAXIIII@Z PROC ; BaseVector<std::pair<int,CvPlot *>,0>::FDefaultFastVectorAllocator::AllocAligned, COMDAT

; 85   : 			return FMALLOCALIGNED( nBytes, nAlign, nAllocPool, nAllocSubID );

	mov	DWORD PTR _nAllocSubID$[esp-4], 85	; 00000055H
	mov	DWORD PTR _nAllocPool$[esp-4], OFFSET ??_C@_0DI@OIPOBLCO@s?3?2lekmod_dll?2fireplace?2include?2@
	jmp	?FireMallocAlignedNoTracking@@YAPAXIIPBDH@Z ; FireMallocAlignedNoTracking
?AllocAligned@FDefaultFastVectorAllocator@?$BaseVector@U?$pair@HPAVCvPlot@@@std@@$0A@@@SAPAXIIII@Z ENDP ; BaseVector<std::pair<int,CvPlot *>,0>::FDefaultFastVectorAllocator::AllocAligned
_TEXT	ENDS
PUBLIC	?FreeAligned@FDefaultFastVectorAllocator@?$BaseVector@U?$pair@HPAVCvPlot@@@std@@$0A@@@SAXPAX@Z ; BaseVector<std::pair<int,CvPlot *>,0>::FDefaultFastVectorAllocator::FreeAligned
EXTRN	?FireFreeAlignedNoTracking@@YAXPAX@Z:PROC	; FireFreeAlignedNoTracking
; Function compile flags: /Ogtpy
;	COMDAT ?FreeAligned@FDefaultFastVectorAllocator@?$BaseVector@U?$pair@HPAVCvPlot@@@std@@$0A@@@SAXPAX@Z
_TEXT	SEGMENT
_pBlock$ = 8						; size = 4
?FreeAligned@FDefaultFastVectorAllocator@?$BaseVector@U?$pair@HPAVCvPlot@@@std@@$0A@@@SAXPAX@Z PROC ; BaseVector<std::pair<int,CvPlot *>,0>::FDefaultFastVectorAllocator::FreeAligned, COMDAT

; 90   : 			FFREEALIGNED( pBlock );

	jmp	?FireFreeAlignedNoTracking@@YAXPAX@Z	; FireFreeAlignedNoTracking
?FreeAligned@FDefaultFastVectorAllocator@?$BaseVector@U?$pair@HPAVCvPlot@@@std@@$0A@@@SAXPAX@Z ENDP ; BaseVector<std::pair<int,CvPlot *>,0>::FDefaultFastVectorAllocator::FreeAligned
_TEXT	ENDS
PUBLIC	?max_size@?$allocator@VCvHomelandTarget@@@std@@QBEIXZ ; std::allocator<CvHomelandTarget>::max_size
; Function compile flags: /Ogtpy
; File s:\msvs2008\vc\include\xmemory
;	COMDAT ?max_size@?$allocator@VCvHomelandTarget@@@std@@QBEIXZ
_TEXT	SEGMENT
?max_size@?$allocator@VCvHomelandTarget@@@std@@QBEIXZ PROC ; std::allocator<CvHomelandTarget>::max_size, COMDAT
; _this$ = ecx

; 165  : 		_SIZT _Count = (_SIZT)(-1) / sizeof (_Ty);
; 166  : 		return (0 < _Count ? _Count : 1);

	mov	eax, 214748364				; 0cccccccH

; 167  : 		}

	ret	0
?max_size@?$allocator@VCvHomelandTarget@@@std@@QBEIXZ ENDP ; std::allocator<CvHomelandTarget>::max_size
_TEXT	ENDS
PUBLIC	?max_size@?$allocator@PAVCvPlot@@@std@@QBEIXZ	; std::allocator<CvPlot *>::max_size
; Function compile flags: /Ogtpy
;	COMDAT ?max_size@?$allocator@PAVCvPlot@@@std@@QBEIXZ
_TEXT	SEGMENT
?max_size@?$allocator@PAVCvPlot@@@std@@QBEIXZ PROC	; std::allocator<CvPlot *>::max_size, COMDAT
; _this$ = ecx

; 165  : 		_SIZT _Count = (_SIZT)(-1) / sizeof (_Ty);
; 166  : 		return (0 < _Count ? _Count : 1);

	mov	eax, 1073741823				; 3fffffffH

; 167  : 		}

	ret	0
?max_size@?$allocator@PAVCvPlot@@@std@@QBEIXZ ENDP	; std::allocator<CvPlot *>::max_size
_TEXT	ENDS
PUBLIC	?max_size@?$allocator@PAVCvCity@@@std@@QBEIXZ	; std::allocator<CvCity *>::max_size
; Function compile flags: /Ogtpy
;	COMDAT ?max_size@?$allocator@PAVCvCity@@@std@@QBEIXZ
_TEXT	SEGMENT
?max_size@?$allocator@PAVCvCity@@@std@@QBEIXZ PROC	; std::allocator<CvCity *>::max_size, COMDAT
; _this$ = ecx

; 165  : 		_SIZT _Count = (_SIZT)(-1) / sizeof (_Ty);
; 166  : 		return (0 < _Count ? _Count : 1);

	mov	eax, 1073741823				; 3fffffffH

; 167  : 		}

	ret	0
?max_size@?$allocator@PAVCvCity@@@std@@QBEIXZ ENDP	; std::allocator<CvCity *>::max_size
_TEXT	ENDS
PUBLIC	?Destroy@?$BaseVector@UWeightedElement@?$CvWeightedVector@PAVCvCity@@$0EA@$00@@$00@@IAEXPAUWeightedElement@?$CvWeightedVector@PAVCvCity@@$0EA@$00@@I@Z ; BaseVector<CvWeightedVector<CvCity *,64,1>::WeightedElement,1>::Destroy
; Function compile flags: /Ogtpy
; File s:\lekmod_dll\fireplace\include\fireworks\ffastvector.h
;	COMDAT ?Destroy@?$BaseVector@UWeightedElement@?$CvWeightedVector@PAVCvCity@@$0EA@$00@@$00@@IAEXPAUWeightedElement@?$CvWeightedVector@PAVCvCity@@$0EA@$00@@I@Z
_TEXT	SEGMENT
_pVal$ = 8						; size = 4
_uiNumElements$ = 12					; size = 4
?Destroy@?$BaseVector@UWeightedElement@?$CvWeightedVector@PAVCvCity@@$0EA@$00@@$00@@IAEXPAUWeightedElement@?$CvWeightedVector@PAVCvCity@@$0EA@$00@@I@Z PROC ; BaseVector<CvWeightedVector<CvCity *,64,1>::WeightedElement,1>::Destroy, COMDAT
; _this$ = ecx

; 221  : 		if( !bPODType){
; 222  : 			for(unsigned int i = 0; i < uiNumElements; ++i){
; 223  : 				pVal[i].~T();
; 224  : 			}
; 225  : 		}
; 226  : 	};

	ret	8
?Destroy@?$BaseVector@UWeightedElement@?$CvWeightedVector@PAVCvCity@@$0EA@$00@@$00@@IAEXPAUWeightedElement@?$CvWeightedVector@PAVCvCity@@$0EA@$00@@I@Z ENDP ; BaseVector<CvWeightedVector<CvCity *,64,1>::WeightedElement,1>::Destroy
_TEXT	ENDS
PUBLIC	??1?$BaseVector@UTradeConnectionPlot@@$0A@@@QAE@XZ ; BaseVector<TradeConnectionPlot,0>::~BaseVector<TradeConnectionPlot,0>
; Function compile flags: /Ogtpy
;	COMDAT ??1?$BaseVector@UTradeConnectionPlot@@$0A@@@QAE@XZ
_TEXT	SEGMENT
??1?$BaseVector@UTradeConnectionPlot@@$0A@@@QAE@XZ PROC	; BaseVector<TradeConnectionPlot,0>::~BaseVector<TradeConnectionPlot,0>, COMDAT
; _this$ = ecx

; 111  : 	~BaseVector(){};

	ret	0
??1?$BaseVector@UTradeConnectionPlot@@$0A@@@QAE@XZ ENDP	; BaseVector<TradeConnectionPlot,0>::~BaseVector<TradeConnectionPlot,0>
_TEXT	ENDS
PUBLIC	??Y?$_Vector_const_iterator@VCvHomelandTarget@@V?$allocator@VCvHomelandTarget@@@std@@@std@@QAEAAV01@H@Z ; std::_Vector_const_iterator<CvHomelandTarget,std::allocator<CvHomelandTarget> >::operator+=
; Function compile flags: /Ogtpy
; File s:\msvs2008\vc\include\vector
;	COMDAT ??Y?$_Vector_const_iterator@VCvHomelandTarget@@V?$allocator@VCvHomelandTarget@@@std@@@std@@QAEAAV01@H@Z
_TEXT	SEGMENT
__Off$ = 8						; size = 4
??Y?$_Vector_const_iterator@VCvHomelandTarget@@V?$allocator@VCvHomelandTarget@@@std@@@std@@QAEAAV01@H@Z PROC ; std::_Vector_const_iterator<CvHomelandTarget,std::allocator<CvHomelandTarget> >::operator+=, COMDAT
; _this$ = ecx

; 159  : 		{	// increment by integer

	mov	eax, ecx

; 160  : 		_SCL_SECURE_VALIDATE(this->_Has_container());
; 161  : 		_SCL_SECURE_VALIDATE_RANGE(
; 162  : 			_Myptr + _Off <= ((_Myvec *)(this->_Getmycont()))->_Mylast &&
; 163  : 			_Myptr + _Off >= ((_Myvec *)(this->_Getmycont()))->_Myfirst);
; 164  : 		_Myptr += _Off;

	mov	ecx, DWORD PTR __Off$[esp-4]
	lea	ecx, DWORD PTR [ecx+ecx*4]
	add	ecx, ecx
	add	ecx, ecx
	add	DWORD PTR [eax], ecx

; 165  : 		return (*this);
; 166  : 		}

	ret	4
??Y?$_Vector_const_iterator@VCvHomelandTarget@@V?$allocator@VCvHomelandTarget@@@std@@@std@@QAEAAV01@H@Z ENDP ; std::_Vector_const_iterator<CvHomelandTarget,std::allocator<CvHomelandTarget> >::operator+=
_TEXT	ENDS
PUBLIC	??Y?$_Vector_const_iterator@PAVCvCity@@V?$allocator@PAVCvCity@@@std@@@std@@QAEAAV01@H@Z ; std::_Vector_const_iterator<CvCity *,std::allocator<CvCity *> >::operator+=
; Function compile flags: /Ogtpy
;	COMDAT ??Y?$_Vector_const_iterator@PAVCvCity@@V?$allocator@PAVCvCity@@@std@@@std@@QAEAAV01@H@Z
_TEXT	SEGMENT
__Off$ = 8						; size = 4
??Y?$_Vector_const_iterator@PAVCvCity@@V?$allocator@PAVCvCity@@@std@@@std@@QAEAAV01@H@Z PROC ; std::_Vector_const_iterator<CvCity *,std::allocator<CvCity *> >::operator+=, COMDAT
; _this$ = ecx

; 159  : 		{	// increment by integer

	mov	eax, ecx

; 160  : 		_SCL_SECURE_VALIDATE(this->_Has_container());
; 161  : 		_SCL_SECURE_VALIDATE_RANGE(
; 162  : 			_Myptr + _Off <= ((_Myvec *)(this->_Getmycont()))->_Mylast &&
; 163  : 			_Myptr + _Off >= ((_Myvec *)(this->_Getmycont()))->_Myfirst);
; 164  : 		_Myptr += _Off;

	mov	ecx, DWORD PTR __Off$[esp-4]
	lea	edx, DWORD PTR [ecx*4]
	add	DWORD PTR [eax], edx

; 165  : 		return (*this);
; 166  : 		}

	ret	4
??Y?$_Vector_const_iterator@PAVCvCity@@V?$allocator@PAVCvCity@@@std@@@std@@QAEAAV01@H@Z ENDP ; std::_Vector_const_iterator<CvCity *,std::allocator<CvCity *> >::operator+=
_TEXT	ENDS
PUBLIC	??Y?$_Vector_const_iterator@PAVCvPlot@@V?$allocator@PAVCvPlot@@@std@@@std@@QAEAAV01@H@Z ; std::_Vector_const_iterator<CvPlot *,std::allocator<CvPlot *> >::operator+=
; Function compile flags: /Ogtpy
;	COMDAT ??Y?$_Vector_const_iterator@PAVCvPlot@@V?$allocator@PAVCvPlot@@@std@@@std@@QAEAAV01@H@Z
_TEXT	SEGMENT
__Off$ = 8						; size = 4
??Y?$_Vector_const_iterator@PAVCvPlot@@V?$allocator@PAVCvPlot@@@std@@@std@@QAEAAV01@H@Z PROC ; std::_Vector_const_iterator<CvPlot *,std::allocator<CvPlot *> >::operator+=, COMDAT
; _this$ = ecx

; 159  : 		{	// increment by integer

	mov	eax, ecx

; 160  : 		_SCL_SECURE_VALIDATE(this->_Has_container());
; 161  : 		_SCL_SECURE_VALIDATE_RANGE(
; 162  : 			_Myptr + _Off <= ((_Myvec *)(this->_Getmycont()))->_Mylast &&
; 163  : 			_Myptr + _Off >= ((_Myvec *)(this->_Getmycont()))->_Myfirst);
; 164  : 		_Myptr += _Off;

	mov	ecx, DWORD PTR __Off$[esp-4]
	lea	edx, DWORD PTR [ecx*4]
	add	DWORD PTR [eax], edx

; 165  : 		return (*this);
; 166  : 		}

	ret	4
??Y?$_Vector_const_iterator@PAVCvPlot@@V?$allocator@PAVCvPlot@@@std@@@std@@QAEAAV01@H@Z ENDP ; std::_Vector_const_iterator<CvPlot *,std::allocator<CvPlot *> >::operator+=
_TEXT	ENDS
PUBLIC	?Destroy@?$BaseVector@UTradeConnectionPlot@@$0A@@@IAEXPAUTradeConnectionPlot@@I@Z ; BaseVector<TradeConnectionPlot,0>::Destroy
; Function compile flags: /Ogtpy
; File s:\lekmod_dll\fireplace\include\fireworks\ffastvector.h
;	COMDAT ?Destroy@?$BaseVector@UTradeConnectionPlot@@$0A@@@IAEXPAUTradeConnectionPlot@@I@Z
_TEXT	SEGMENT
_pVal$ = 8						; size = 4
_uiNumElements$ = 12					; size = 4
?Destroy@?$BaseVector@UTradeConnectionPlot@@$0A@@@IAEXPAUTradeConnectionPlot@@I@Z PROC ; BaseVector<TradeConnectionPlot,0>::Destroy, COMDAT
; _this$ = ecx

; 221  : 		if( !bPODType){
; 222  : 			for(unsigned int i = 0; i < uiNumElements; ++i){
; 223  : 				pVal[i].~T();
; 224  : 			}
; 225  : 		}
; 226  : 	};

	ret	8
?Destroy@?$BaseVector@UTradeConnectionPlot@@$0A@@@IAEXPAUTradeConnectionPlot@@I@Z ENDP ; BaseVector<TradeConnectionPlot,0>::Destroy
_TEXT	ENDS
PUBLIC	??$max@H@std@@YAABHABH0@Z			; std::max<int>
; Function compile flags: /Ogtpy
; File s:\msvs2008\vc\include\xutility
;	COMDAT ??$max@H@std@@YAABHABH0@Z
_TEXT	SEGMENT
__Left$ = 8						; size = 4
__Right$ = 12						; size = 4
??$max@H@std@@YAABHABH0@Z PROC				; std::max<int>, COMDAT

; 3384 : 	return (_DEBUG_LT(_Left, _Right) ? _Right : _Left);

	mov	eax, DWORD PTR __Left$[esp-4]
	mov	edx, DWORD PTR [eax]
	mov	ecx, DWORD PTR __Right$[esp-4]
	cmp	edx, DWORD PTR [ecx]
	jge	SHORT $LN4@max
	mov	eax, ecx
$LN4@max:

; 3385 : 	}

	ret	0
??$max@H@std@@YAABHABH0@Z ENDP				; std::max<int>
_TEXT	ENDS
PUBLIC	??$_Destroy@U_Node@?$_List_nod@HV?$allocator@H@std@@@std@@@std@@YAXPAU_Node@?$_List_nod@HV?$allocator@H@std@@@0@@Z ; std::_Destroy<std::_List_nod<int,std::allocator<int> >::_Node>
; Function compile flags: /Ogtpy
; File s:\msvs2008\vc\include\xmemory
;	COMDAT ??$_Destroy@U_Node@?$_List_nod@HV?$allocator@H@std@@@std@@@std@@YAXPAU_Node@?$_List_nod@HV?$allocator@H@std@@@0@@Z
_TEXT	SEGMENT
__Ptr$ = 8						; size = 4
??$_Destroy@U_Node@?$_List_nod@HV?$allocator@H@std@@@std@@@std@@YAXPAU_Node@?$_List_nod@HV?$allocator@H@std@@@0@@Z PROC ; std::_Destroy<std::_List_nod<int,std::allocator<int> >::_Node>, COMDAT

; 59   : 	_DESTRUCTOR(_Ty, _Ptr);
; 60   : 	}

	ret	0
??$_Destroy@U_Node@?$_List_nod@HV?$allocator@H@std@@@std@@@std@@YAXPAU_Node@?$_List_nod@HV?$allocator@H@std@@@0@@Z ENDP ; std::_Destroy<std::_List_nod<int,std::allocator<int> >::_Node>
_TEXT	ENDS
PUBLIC	??$?0H@?$allocator@PAU_Node@?$_List_nod@HV?$allocator@H@std@@@std@@@std@@QAE@ABV?$allocator@H@1@@Z ; std::allocator<std::_List_nod<int,std::allocator<int> >::_Node *>::allocator<std::_List_nod<int,std::allocator<int> >::_Node *><int>
; Function compile flags: /Ogtpy
;	COMDAT ??$?0H@?$allocator@PAU_Node@?$_List_nod@HV?$allocator@H@std@@@std@@@std@@QAE@ABV?$allocator@H@1@@Z
_TEXT	SEGMENT
___formal$ = 8						; size = 4
??$?0H@?$allocator@PAU_Node@?$_List_nod@HV?$allocator@H@std@@@std@@@std@@QAE@ABV?$allocator@H@1@@Z PROC ; std::allocator<std::_List_nod<int,std::allocator<int> >::_Node *>::allocator<std::_List_nod<int,std::allocator<int> >::_Node *><int>, COMDAT
; _this$ = ecx

; 128  : 		allocator(const allocator<_Other>&) _THROW0()

	mov	eax, ecx

; 129  : 		{	// construct from a related allocator (do nothing)
; 130  : 		}

	ret	4
??$?0H@?$allocator@PAU_Node@?$_List_nod@HV?$allocator@H@std@@@std@@@std@@QAE@ABV?$allocator@H@1@@Z ENDP ; std::allocator<std::_List_nod<int,std::allocator<int> >::_Node *>::allocator<std::_List_nod<int,std::allocator<int> >::_Node *><int>
_TEXT	ENDS
PUBLIC	__TI2?AVbad_alloc@std@@
PUBLIC	??$_Allocate@U_Node@?$_List_nod@HV?$allocator@H@std@@@std@@@std@@YAPAU_Node@?$_List_nod@HV?$allocator@H@std@@@0@IPAU120@@Z ; std::_Allocate<std::_List_nod<int,std::allocator<int> >::_Node>
PUBLIC	__CTA2?AVbad_alloc@std@@
PUBLIC	__CT??_R0?AVbad_alloc@std@@@8??0bad_alloc@std@@QAE@ABV01@@Z12
PUBLIC	??0bad_alloc@std@@QAE@ABV01@@Z			; std::bad_alloc::bad_alloc
EXTRN	??2@YAPAXI@Z:PROC				; operator new
;	COMDAT __CT??_R0?AVbad_alloc@std@@@8??0bad_alloc@std@@QAE@ABV01@@Z12
; File s:\msvs2008\vc\include\exception
xdata$x	SEGMENT
__CT??_R0?AVbad_alloc@std@@@8??0bad_alloc@std@@QAE@ABV01@@Z12 DD 00H
	DD	FLAT:??_R0?AVbad_alloc@std@@@8
	DD	00H
	DD	0ffffffffH
	ORG $+4
	DD	0cH
	DD	FLAT:??0bad_alloc@std@@QAE@ABV01@@Z
xdata$x	ENDS
;	COMDAT __CTA2?AVbad_alloc@std@@
xdata$x	SEGMENT
__CTA2?AVbad_alloc@std@@ DD 02H
	DD	FLAT:__CT??_R0?AVbad_alloc@std@@@8??0bad_alloc@std@@QAE@ABV01@@Z12
	DD	FLAT:__CT??_R0?AVexception@std@@@8??0exception@std@@QAE@ABV01@@Z12
xdata$x	ENDS
;	COMDAT __TI2?AVbad_alloc@std@@
xdata$x	SEGMENT
__TI2?AVbad_alloc@std@@ DD 00H
	DD	FLAT:??1bad_alloc@std@@UAE@XZ
	DD	00H
	DD	FLAT:__CTA2?AVbad_alloc@std@@
; Function compile flags: /Ogtpy
; File s:\msvs2008\vc\include\xmemory
xdata$x	ENDS
;	COMDAT ??$_Allocate@U_Node@?$_List_nod@HV?$allocator@H@std@@@std@@@std@@YAPAU_Node@?$_List_nod@HV?$allocator@H@std@@@0@IPAU120@@Z
_TEXT	SEGMENT
$T238485 = -12						; size = 12
$T238489 = 8						; size = 4
__Count$ = 8						; size = 4
___formal$ = 12						; size = 4
??$_Allocate@U_Node@?$_List_nod@HV?$allocator@H@std@@@std@@@std@@YAPAU_Node@?$_List_nod@HV?$allocator@H@std@@@0@IPAU120@@Z PROC ; std::_Allocate<std::_List_nod<int,std::allocator<int> >::_Node>, COMDAT

; 37   : 	if (_Count <= 0)

	mov	ecx, DWORD PTR __Count$[esp-4]
	sub	esp, 12					; 0000000cH
	test	ecx, ecx
	ja	SHORT $LN3@Allocate

; 38   : 		_Count = 0;

	xor	ecx, ecx
$LN1@Allocate:

; 41   : 
; 42   : 		// allocate storage for _Count elements of type _Ty
; 43   : 	return ((_Ty _FARQ *)::operator new(_Count * sizeof (_Ty)));

	lea	edx, DWORD PTR [ecx+ecx*2]
	add	edx, edx
	add	edx, edx
	push	edx
	call	??2@YAPAXI@Z				; operator new
	add	esp, 4

; 44   : 	}

	add	esp, 12					; 0000000cH
	ret	0
$LN3@Allocate:

; 39   : 	else if (((_SIZT)(-1) / _Count) < sizeof (_Ty))

	or	eax, -1
	xor	edx, edx
	div	ecx
	cmp	eax, 12					; 0000000cH
	jae	SHORT $LN1@Allocate

; 40   : 		_THROW_NCEE(std::bad_alloc, NULL);

	lea	eax, DWORD PTR $T238489[esp+8]
	push	eax
	lea	ecx, DWORD PTR $T238485[esp+16]
	mov	DWORD PTR $T238489[esp+12], 0
	call	DWORD PTR __imp_??0exception@std@@QAE@ABQBD@Z
	push	OFFSET __TI2?AVbad_alloc@std@@
	lea	ecx, DWORD PTR $T238485[esp+16]
	push	ecx
	mov	DWORD PTR $T238485[esp+20], OFFSET ??_7bad_alloc@std@@6B@
	call	__CxxThrowException@8
$LN9@Allocate:
$LN8@Allocate:
	int	3
??$_Allocate@U_Node@?$_List_nod@HV?$allocator@H@std@@@std@@@std@@YAPAU_Node@?$_List_nod@HV?$allocator@H@std@@@0@IPAU120@@Z ENDP ; std::_Allocate<std::_List_nod<int,std::allocator<int> >::_Node>
_TEXT	ENDS
PUBLIC	??$_Construct@PAU_Node@?$_List_nod@HV?$allocator@H@std@@@std@@PAU123@@std@@YAXPAPAU_Node@?$_List_nod@HV?$allocator@H@std@@@0@ABQAU120@@Z ; std::_Construct<std::_List_nod<int,std::allocator<int> >::_Node *,std::_List_nod<int,std::allocator<int> >::_Node *>
; Function compile flags: /Ogtpy
;	COMDAT ??$_Construct@PAU_Node@?$_List_nod@HV?$allocator@H@std@@@std@@PAU123@@std@@YAXPAPAU_Node@?$_List_nod@HV?$allocator@H@std@@@0@ABQAU120@@Z
_TEXT	SEGMENT
__Ptr$ = 8						; size = 4
__Val$ = 12						; size = 4
??$_Construct@PAU_Node@?$_List_nod@HV?$allocator@H@std@@@std@@PAU123@@std@@YAXPAPAU_Node@?$_List_nod@HV?$allocator@H@std@@@0@ABQAU120@@Z PROC ; std::_Construct<std::_List_nod<int,std::allocator<int> >::_Node *,std::_List_nod<int,std::allocator<int> >::_Node *>, COMDAT

; 51   : 	void _FARQ *_Vptr = _Ptr;
; 52   : 	::new (_Vptr) _T1(_Val);

	mov	eax, DWORD PTR __Ptr$[esp-4]
	test	eax, eax
	je	SHORT $LN3@Construct
	mov	ecx, DWORD PTR __Val$[esp-4]
	mov	edx, DWORD PTR [ecx]
	mov	DWORD PTR [eax], edx
$LN3@Construct:

; 53   : 	}

	ret	0
??$_Construct@PAU_Node@?$_List_nod@HV?$allocator@H@std@@@std@@PAU123@@std@@YAXPAPAU_Node@?$_List_nod@HV?$allocator@H@std@@@0@ABQAU120@@Z ENDP ; std::_Construct<std::_List_nod<int,std::allocator<int> >::_Node *,std::_List_nod<int,std::allocator<int> >::_Node *>
_TEXT	ENDS
PUBLIC	??$_Destroy@PAU_Node@?$_List_nod@HV?$allocator@H@std@@@std@@@std@@YAXPAPAU_Node@?$_List_nod@HV?$allocator@H@std@@@0@@Z ; std::_Destroy<std::_List_nod<int,std::allocator<int> >::_Node *>
; Function compile flags: /Ogtpy
;	COMDAT ??$_Destroy@PAU_Node@?$_List_nod@HV?$allocator@H@std@@@std@@@std@@YAXPAPAU_Node@?$_List_nod@HV?$allocator@H@std@@@0@@Z
_TEXT	SEGMENT
__Ptr$ = 8						; size = 4
??$_Destroy@PAU_Node@?$_List_nod@HV?$allocator@H@std@@@std@@@std@@YAXPAPAU_Node@?$_List_nod@HV?$allocator@H@std@@@0@@Z PROC ; std::_Destroy<std::_List_nod<int,std::allocator<int> >::_Node *>, COMDAT

; 59   : 	_DESTRUCTOR(_Ty, _Ptr);
; 60   : 	}

	ret	0
??$_Destroy@PAU_Node@?$_List_nod@HV?$allocator@H@std@@@std@@@std@@YAXPAPAU_Node@?$_List_nod@HV?$allocator@H@std@@@0@@Z ENDP ; std::_Destroy<std::_List_nod<int,std::allocator<int> >::_Node *>
_TEXT	ENDS
PUBLIC	??$_Allocate@VCvHomelandTarget@@@std@@YAPAVCvHomelandTarget@@IPAV1@@Z ; std::_Allocate<CvHomelandTarget>
; Function compile flags: /Ogtpy
;	COMDAT ??$_Allocate@VCvHomelandTarget@@@std@@YAPAVCvHomelandTarget@@IPAV1@@Z
_TEXT	SEGMENT
$T238507 = -12						; size = 12
$T238511 = 8						; size = 4
__Count$ = 8						; size = 4
___formal$ = 12						; size = 4
??$_Allocate@VCvHomelandTarget@@@std@@YAPAVCvHomelandTarget@@IPAV1@@Z PROC ; std::_Allocate<CvHomelandTarget>, COMDAT

; 37   : 	if (_Count <= 0)

	mov	ecx, DWORD PTR __Count$[esp-4]
	sub	esp, 12					; 0000000cH
	test	ecx, ecx
	ja	SHORT $LN3@Allocate@2

; 38   : 		_Count = 0;

	xor	ecx, ecx
$LN1@Allocate@2:

; 41   : 
; 42   : 		// allocate storage for _Count elements of type _Ty
; 43   : 	return ((_Ty _FARQ *)::operator new(_Count * sizeof (_Ty)));

	lea	edx, DWORD PTR [ecx+ecx*4]
	add	edx, edx
	add	edx, edx
	push	edx
	call	??2@YAPAXI@Z				; operator new
	add	esp, 4

; 44   : 	}

	add	esp, 12					; 0000000cH
	ret	0
$LN3@Allocate@2:

; 39   : 	else if (((_SIZT)(-1) / _Count) < sizeof (_Ty))

	or	eax, -1
	xor	edx, edx
	div	ecx
	cmp	eax, 20					; 00000014H
	jae	SHORT $LN1@Allocate@2

; 40   : 		_THROW_NCEE(std::bad_alloc, NULL);

	lea	eax, DWORD PTR $T238511[esp+8]
	push	eax
	lea	ecx, DWORD PTR $T238507[esp+16]
	mov	DWORD PTR $T238511[esp+12], 0
	call	DWORD PTR __imp_??0exception@std@@QAE@ABQBD@Z
	push	OFFSET __TI2?AVbad_alloc@std@@
	lea	ecx, DWORD PTR $T238507[esp+16]
	push	ecx
	mov	DWORD PTR $T238507[esp+20], OFFSET ??_7bad_alloc@std@@6B@
	call	__CxxThrowException@8
$LN9@Allocate@2:
$LN8@Allocate@2:
	int	3
??$_Allocate@VCvHomelandTarget@@@std@@YAPAVCvHomelandTarget@@IPAV1@@Z ENDP ; std::_Allocate<CvHomelandTarget>
_TEXT	ENDS
PUBLIC	??$_Allocate@PAVCvPlot@@@std@@YAPAPAVCvPlot@@IPAPAV1@@Z ; std::_Allocate<CvPlot *>
; Function compile flags: /Ogtpy
;	COMDAT ??$_Allocate@PAVCvPlot@@@std@@YAPAPAVCvPlot@@IPAPAV1@@Z
_TEXT	SEGMENT
$T238517 = -12						; size = 12
$T238521 = 8						; size = 4
__Count$ = 8						; size = 4
___formal$ = 12						; size = 4
??$_Allocate@PAVCvPlot@@@std@@YAPAPAVCvPlot@@IPAPAV1@@Z PROC ; std::_Allocate<CvPlot *>, COMDAT

; 37   : 	if (_Count <= 0)

	mov	ecx, DWORD PTR __Count$[esp-4]
	sub	esp, 12					; 0000000cH
	test	ecx, ecx
	ja	SHORT $LN3@Allocate@3

; 38   : 		_Count = 0;

	xor	ecx, ecx
$LN1@Allocate@3:

; 41   : 
; 42   : 		// allocate storage for _Count elements of type _Ty
; 43   : 	return ((_Ty _FARQ *)::operator new(_Count * sizeof (_Ty)));

	lea	edx, DWORD PTR [ecx*4]
	push	edx
	call	??2@YAPAXI@Z				; operator new
	add	esp, 4

; 44   : 	}

	add	esp, 12					; 0000000cH
	ret	0
$LN3@Allocate@3:

; 39   : 	else if (((_SIZT)(-1) / _Count) < sizeof (_Ty))

	or	eax, -1
	xor	edx, edx
	div	ecx
	cmp	eax, 4
	jae	SHORT $LN1@Allocate@3

; 40   : 		_THROW_NCEE(std::bad_alloc, NULL);

	lea	eax, DWORD PTR $T238521[esp+8]
	push	eax
	lea	ecx, DWORD PTR $T238517[esp+16]
	mov	DWORD PTR $T238521[esp+12], 0
	call	DWORD PTR __imp_??0exception@std@@QAE@ABQBD@Z
	push	OFFSET __TI2?AVbad_alloc@std@@
	lea	ecx, DWORD PTR $T238517[esp+16]
	push	ecx
	mov	DWORD PTR $T238517[esp+20], OFFSET ??_7bad_alloc@std@@6B@
	call	__CxxThrowException@8
$LN9@Allocate@3:
$LN8@Allocate@3:
	int	3
??$_Allocate@PAVCvPlot@@@std@@YAPAPAVCvPlot@@IPAPAV1@@Z ENDP ; std::_Allocate<CvPlot *>
_TEXT	ENDS
PUBLIC	??$min@I@std@@YAABIABI0@Z			; std::min<unsigned int>
; Function compile flags: /Ogtpy
; File s:\msvs2008\vc\include\xutility
;	COMDAT ??$min@I@std@@YAABIABI0@Z
_TEXT	SEGMENT
__Left$ = 8						; size = 4
__Right$ = 12						; size = 4
??$min@I@std@@YAABIABI0@Z PROC				; std::min<unsigned int>, COMDAT

; 3399 : 	return (_DEBUG_LT(_Right, _Left) ? _Right : _Left);

	mov	eax, DWORD PTR __Right$[esp-4]
	mov	edx, DWORD PTR [eax]
	mov	ecx, DWORD PTR __Left$[esp-4]
	cmp	edx, DWORD PTR [ecx]
	jb	SHORT $LN4@min
	mov	eax, ecx
$LN4@min:

; 3400 : 	}

	ret	0
??$min@I@std@@YAABIABI0@Z ENDP				; std::min<unsigned int>
_TEXT	ENDS
PUBLIC	??$_Allocate@PAVCvCity@@@std@@YAPAPAVCvCity@@IPAPAV1@@Z ; std::_Allocate<CvCity *>
; Function compile flags: /Ogtpy
; File s:\msvs2008\vc\include\xmemory
;	COMDAT ??$_Allocate@PAVCvCity@@@std@@YAPAPAVCvCity@@IPAPAV1@@Z
_TEXT	SEGMENT
$T238533 = -12						; size = 12
$T238537 = 8						; size = 4
__Count$ = 8						; size = 4
___formal$ = 12						; size = 4
??$_Allocate@PAVCvCity@@@std@@YAPAPAVCvCity@@IPAPAV1@@Z PROC ; std::_Allocate<CvCity *>, COMDAT

; 37   : 	if (_Count <= 0)

	mov	ecx, DWORD PTR __Count$[esp-4]
	sub	esp, 12					; 0000000cH
	test	ecx, ecx
	ja	SHORT $LN3@Allocate@4

; 38   : 		_Count = 0;

	xor	ecx, ecx
$LN1@Allocate@4:

; 41   : 
; 42   : 		// allocate storage for _Count elements of type _Ty
; 43   : 	return ((_Ty _FARQ *)::operator new(_Count * sizeof (_Ty)));

	lea	edx, DWORD PTR [ecx*4]
	push	edx
	call	??2@YAPAXI@Z				; operator new
	add	esp, 4

; 44   : 	}

	add	esp, 12					; 0000000cH
	ret	0
$LN3@Allocate@4:

; 39   : 	else if (((_SIZT)(-1) / _Count) < sizeof (_Ty))

	or	eax, -1
	xor	edx, edx
	div	ecx
	cmp	eax, 4
	jae	SHORT $LN1@Allocate@4

; 40   : 		_THROW_NCEE(std::bad_alloc, NULL);

	lea	eax, DWORD PTR $T238537[esp+8]
	push	eax
	lea	ecx, DWORD PTR $T238533[esp+16]
	mov	DWORD PTR $T238537[esp+12], 0
	call	DWORD PTR __imp_??0exception@std@@QAE@ABQBD@Z
	push	OFFSET __TI2?AVbad_alloc@std@@
	lea	ecx, DWORD PTR $T238533[esp+16]
	push	ecx
	mov	DWORD PTR $T238533[esp+20], OFFSET ??_7bad_alloc@std@@6B@
	call	__CxxThrowException@8
$LN9@Allocate@4:
$LN8@Allocate@4:
	int	3
??$_Allocate@PAVCvCity@@@std@@YAPAPAVCvCity@@IPAPAV1@@Z ENDP ; std::_Allocate<CvCity *>
_TEXT	ENDS
PUBLIC	??$_Construct@HH@std@@YAXPAHABH@Z		; std::_Construct<int,int>
; Function compile flags: /Ogtpy
;	COMDAT ??$_Construct@HH@std@@YAXPAHABH@Z
_TEXT	SEGMENT
__Ptr$ = 8						; size = 4
__Val$ = 12						; size = 4
??$_Construct@HH@std@@YAXPAHABH@Z PROC			; std::_Construct<int,int>, COMDAT

; 51   : 	void _FARQ *_Vptr = _Ptr;
; 52   : 	::new (_Vptr) _T1(_Val);

	mov	eax, DWORD PTR __Ptr$[esp-4]
	test	eax, eax
	je	SHORT $LN3@Construct@2
	mov	ecx, DWORD PTR __Val$[esp-4]
	mov	edx, DWORD PTR [ecx]
	mov	DWORD PTR [eax], edx
$LN3@Construct@2:

; 53   : 	}

	ret	0
??$_Construct@HH@std@@YAXPAHABH@Z ENDP			; std::_Construct<int,int>
_TEXT	ENDS
PUBLIC	??$?0H@?$allocator@U_Node@?$_List_nod@HV?$allocator@H@std@@@std@@@std@@QAE@ABV?$allocator@H@1@@Z ; std::allocator<std::_List_nod<int,std::allocator<int> >::_Node>::allocator<std::_List_nod<int,std::allocator<int> >::_Node><int>
; Function compile flags: /Ogtpy
;	COMDAT ??$?0H@?$allocator@U_Node@?$_List_nod@HV?$allocator@H@std@@@std@@@std@@QAE@ABV?$allocator@H@1@@Z
_TEXT	SEGMENT
___formal$ = 8						; size = 4
??$?0H@?$allocator@U_Node@?$_List_nod@HV?$allocator@H@std@@@std@@@std@@QAE@ABV?$allocator@H@1@@Z PROC ; std::allocator<std::_List_nod<int,std::allocator<int> >::_Node>::allocator<std::_List_nod<int,std::allocator<int> >::_Node><int>, COMDAT
; _this$ = ecx

; 128  : 		allocator(const allocator<_Other>&) _THROW0()

	mov	eax, ecx

; 129  : 		{	// construct from a related allocator (do nothing)
; 130  : 		}

	ret	4
??$?0H@?$allocator@U_Node@?$_List_nod@HV?$allocator@H@std@@@std@@@std@@QAE@ABV?$allocator@H@1@@Z ENDP ; std::allocator<std::_List_nod<int,std::allocator<int> >::_Node>::allocator<std::_List_nod<int,std::allocator<int> >::_Node><int>
_TEXT	ENDS
PUBLIC	??$_Dist_type@PAVCvHomelandMove@@@std@@YAPAHPAVCvHomelandMove@@@Z ; std::_Dist_type<CvHomelandMove *>
; Function compile flags: /Ogtpy
; File s:\msvs2008\vc\include\xutility
;	COMDAT ??$_Dist_type@PAVCvHomelandMove@@@std@@YAPAHPAVCvHomelandMove@@@Z
_TEXT	SEGMENT
___formal$ = 8						; size = 4
??$_Dist_type@PAVCvHomelandMove@@@std@@YAPAHPAVCvHomelandMove@@@Z PROC ; std::_Dist_type<CvHomelandMove *>, COMDAT

; 1831 : 	return (0);

	xor	eax, eax

; 1832 : 	}

	ret	0
??$_Dist_type@PAVCvHomelandMove@@@std@@YAPAHPAVCvHomelandMove@@@Z ENDP ; std::_Dist_type<CvHomelandMove *>
_TEXT	ENDS
PUBLIC	??$_Val_type@PAVCvHomelandMove@@@std@@YAPAVCvHomelandMove@@PAV1@@Z ; std::_Val_type<CvHomelandMove *>
; Function compile flags: /Ogtpy
;	COMDAT ??$_Val_type@PAVCvHomelandMove@@@std@@YAPAVCvHomelandMove@@PAV1@@Z
_TEXT	SEGMENT
___formal$ = 8						; size = 4
??$_Val_type@PAVCvHomelandMove@@@std@@YAPAVCvHomelandMove@@PAV1@@Z PROC ; std::_Val_type<CvHomelandMove *>, COMDAT

; 1766 : 	return (0);

	xor	eax, eax

; 1767 : 	}

	ret	0
??$_Val_type@PAVCvHomelandMove@@@std@@YAPAVCvHomelandMove@@PAV1@@Z ENDP ; std::_Val_type<CvHomelandMove *>
_TEXT	ENDS
PUBLIC	??$_Dist_type@V?$_Vector_iterator@VCvHomelandTarget@@V?$allocator@VCvHomelandTarget@@@std@@@std@@@std@@YAPAHV?$_Vector_iterator@VCvHomelandTarget@@V?$allocator@VCvHomelandTarget@@@std@@@0@@Z ; std::_Dist_type<std::_Vector_iterator<CvHomelandTarget,std::allocator<CvHomelandTarget> > >
; Function compile flags: /Ogtpy
;	COMDAT ??$_Dist_type@V?$_Vector_iterator@VCvHomelandTarget@@V?$allocator@VCvHomelandTarget@@@std@@@std@@@std@@YAPAHV?$_Vector_iterator@VCvHomelandTarget@@V?$allocator@VCvHomelandTarget@@@std@@@0@@Z
_TEXT	SEGMENT
___formal$ = 8						; size = 4
??$_Dist_type@V?$_Vector_iterator@VCvHomelandTarget@@V?$allocator@VCvHomelandTarget@@@std@@@std@@@std@@YAPAHV?$_Vector_iterator@VCvHomelandTarget@@V?$allocator@VCvHomelandTarget@@@std@@@0@@Z PROC ; std::_Dist_type<std::_Vector_iterator<CvHomelandTarget,std::allocator<CvHomelandTarget> > >, COMDAT

; 1831 : 	return (0);

	xor	eax, eax

; 1832 : 	}

	ret	0
??$_Dist_type@V?$_Vector_iterator@VCvHomelandTarget@@V?$allocator@VCvHomelandTarget@@@std@@@std@@@std@@YAPAHV?$_Vector_iterator@VCvHomelandTarget@@V?$allocator@VCvHomelandTarget@@@std@@@0@@Z ENDP ; std::_Dist_type<std::_Vector_iterator<CvHomelandTarget,std::allocator<CvHomelandTarget> > >
_TEXT	ENDS
PUBLIC	??$_Val_type@V?$_Vector_iterator@VCvHomelandTarget@@V?$allocator@VCvHomelandTarget@@@std@@@std@@@std@@YAPAVCvHomelandTarget@@V?$_Vector_iterator@VCvHomelandTarget@@V?$allocator@VCvHomelandTarget@@@std@@@0@@Z ; std::_Val_type<std::_Vector_iterator<CvHomelandTarget,std::allocator<CvHomelandTarget> > >
; Function compile flags: /Ogtpy
;	COMDAT ??$_Val_type@V?$_Vector_iterator@VCvHomelandTarget@@V?$allocator@VCvHomelandTarget@@@std@@@std@@@std@@YAPAVCvHomelandTarget@@V?$_Vector_iterator@VCvHomelandTarget@@V?$allocator@VCvHomelandTarget@@@std@@@0@@Z
_TEXT	SEGMENT
___formal$ = 8						; size = 4
??$_Val_type@V?$_Vector_iterator@VCvHomelandTarget@@V?$allocator@VCvHomelandTarget@@@std@@@std@@@std@@YAPAVCvHomelandTarget@@V?$_Vector_iterator@VCvHomelandTarget@@V?$allocator@VCvHomelandTarget@@@std@@@0@@Z PROC ; std::_Val_type<std::_Vector_iterator<CvHomelandTarget,std::allocator<CvHomelandTarget> > >, COMDAT

; 1766 : 	return (0);

	xor	eax, eax

; 1767 : 	}

	ret	0
??$_Val_type@V?$_Vector_iterator@VCvHomelandTarget@@V?$allocator@VCvHomelandTarget@@@std@@@std@@@std@@YAPAVCvHomelandTarget@@V?$_Vector_iterator@VCvHomelandTarget@@V?$allocator@VCvHomelandTarget@@@std@@@0@@Z ENDP ; std::_Val_type<std::_Vector_iterator<CvHomelandTarget,std::allocator<CvHomelandTarget> > >
_TEXT	ENDS
PUBLIC	??$_Dist_type@PAVCvHomelandUnit@@@std@@YAPAHPAVCvHomelandUnit@@@Z ; std::_Dist_type<CvHomelandUnit *>
; Function compile flags: /Ogtpy
;	COMDAT ??$_Dist_type@PAVCvHomelandUnit@@@std@@YAPAHPAVCvHomelandUnit@@@Z
_TEXT	SEGMENT
___formal$ = 8						; size = 4
??$_Dist_type@PAVCvHomelandUnit@@@std@@YAPAHPAVCvHomelandUnit@@@Z PROC ; std::_Dist_type<CvHomelandUnit *>, COMDAT

; 1831 : 	return (0);

	xor	eax, eax

; 1832 : 	}

	ret	0
??$_Dist_type@PAVCvHomelandUnit@@@std@@YAPAHPAVCvHomelandUnit@@@Z ENDP ; std::_Dist_type<CvHomelandUnit *>
_TEXT	ENDS
PUBLIC	??$_Val_type@PAVCvHomelandUnit@@@std@@YAPAVCvHomelandUnit@@PAV1@@Z ; std::_Val_type<CvHomelandUnit *>
; Function compile flags: /Ogtpy
;	COMDAT ??$_Val_type@PAVCvHomelandUnit@@@std@@YAPAVCvHomelandUnit@@PAV1@@Z
_TEXT	SEGMENT
___formal$ = 8						; size = 4
??$_Val_type@PAVCvHomelandUnit@@@std@@YAPAVCvHomelandUnit@@PAV1@@Z PROC ; std::_Val_type<CvHomelandUnit *>, COMDAT

; 1766 : 	return (0);

	xor	eax, eax

; 1767 : 	}

	ret	0
??$_Val_type@PAVCvHomelandUnit@@@std@@YAPAVCvHomelandUnit@@PAV1@@Z ENDP ; std::_Val_type<CvHomelandUnit *>
_TEXT	ENDS
PUBLIC	??$_Iter_random@PAVCvHomelandTarget@@PAV1@@std@@YA?AUrandom_access_iterator_tag@0@ABQAVCvHomelandTarget@@0@Z ; std::_Iter_random<CvHomelandTarget *,CvHomelandTarget *>
; Function compile flags: /Ogtpy
;	COMDAT ??$_Iter_random@PAVCvHomelandTarget@@PAV1@@std@@YA?AUrandom_access_iterator_tag@0@ABQAVCvHomelandTarget@@0@Z
_TEXT	SEGMENT
___$ReturnUdt$ = 8					; size = 4
___formal$ = 12						; size = 4
___formal$ = 16						; size = 4
??$_Iter_random@PAVCvHomelandTarget@@PAV1@@std@@YA?AUrandom_access_iterator_tag@0@ABQAVCvHomelandTarget@@0@Z PROC ; std::_Iter_random<CvHomelandTarget *,CvHomelandTarget *>, COMDAT

; 994  : 	typename _Iter_random_helper<
; 995  : 		iterator_traits<_Iter1>::iterator_category, 
; 996  : 		iterator_traits<_Iter2>::iterator_category>::_Iter_random_cat _Cat;
; 997  : 	return (_Cat);

	mov	eax, DWORD PTR ___$ReturnUdt$[esp-4]

; 998  : 	}

	ret	0
??$_Iter_random@PAVCvHomelandTarget@@PAV1@@std@@YA?AUrandom_access_iterator_tag@0@ABQAVCvHomelandTarget@@0@Z ENDP ; std::_Iter_random<CvHomelandTarget *,CvHomelandTarget *>
_TEXT	ENDS
PUBLIC	??$_Ptr_cat@PAVCvHomelandTarget@@PAV1@@std@@YA?AU_Nonscalar_ptr_iterator_tag@0@AAPAVCvHomelandTarget@@0@Z ; std::_Ptr_cat<CvHomelandTarget *,CvHomelandTarget *>
; Function compile flags: /Ogtpy
;	COMDAT ??$_Ptr_cat@PAVCvHomelandTarget@@PAV1@@std@@YA?AU_Nonscalar_ptr_iterator_tag@0@AAPAVCvHomelandTarget@@0@Z
_TEXT	SEGMENT
__Cat$ = -1						; size = 1
___formal$ = 8						; size = 4
___formal$ = 12						; size = 4
??$_Ptr_cat@PAVCvHomelandTarget@@PAV1@@std@@YA?AU_Nonscalar_ptr_iterator_tag@0@AAPAVCvHomelandTarget@@0@Z PROC ; std::_Ptr_cat<CvHomelandTarget *,CvHomelandTarget *>, COMDAT

; 1509 : 	{

	push	ecx

; 1510 : 	typename _Ptr_cat_helper<_T1, _T2>::_Ptr_cat _Cat;
; 1511 : 	return (_Cat);

	mov	al, BYTE PTR __Cat$[esp+4]

; 1512 : 	}

	pop	ecx
	ret	0
??$_Ptr_cat@PAVCvHomelandTarget@@PAV1@@std@@YA?AU_Nonscalar_ptr_iterator_tag@0@AAPAVCvHomelandTarget@@0@Z ENDP ; std::_Ptr_cat<CvHomelandTarget *,CvHomelandTarget *>
_TEXT	ENDS
PUBLIC	??$_Copy_opt@PAVCvHomelandTarget@@PAV1@Urandom_access_iterator_tag@std@@@std@@YAPAVCvHomelandTarget@@PAV1@00Urandom_access_iterator_tag@0@U_Nonscalar_ptr_iterator_tag@0@U_Range_checked_iterator_tag@0@@Z ; std::_Copy_opt<CvHomelandTarget *,CvHomelandTarget *,std::random_access_iterator_tag>
; Function compile flags: /Ogtpy
;	COMDAT ??$_Copy_opt@PAVCvHomelandTarget@@PAV1@Urandom_access_iterator_tag@std@@@std@@YAPAVCvHomelandTarget@@PAV1@00Urandom_access_iterator_tag@0@U_Nonscalar_ptr_iterator_tag@0@U_Range_checked_iterator_tag@0@@Z
_TEXT	SEGMENT
__First$ = 8						; size = 4
__Last$ = 12						; size = 4
__Dest$ = 16						; size = 4
___formal$ = 20						; size = 1
___formal$ = 24						; size = 1
___formal$ = 28						; size = 1
??$_Copy_opt@PAVCvHomelandTarget@@PAV1@Urandom_access_iterator_tag@std@@@std@@YAPAVCvHomelandTarget@@PAV1@00Urandom_access_iterator_tag@0@U_Nonscalar_ptr_iterator_tag@0@U_Range_checked_iterator_tag@0@@Z PROC ; std::_Copy_opt<CvHomelandTarget *,CvHomelandTarget *,std::random_access_iterator_tag>, COMDAT

; 2470 : 	_DEBUG_RANGE(_First, _Last);
; 2471 : 	for (; _First != _Last; ++_Dest, ++_First)

	mov	ecx, DWORD PTR __First$[esp-4]
	mov	edx, DWORD PTR __Last$[esp-4]
	mov	eax, DWORD PTR __Dest$[esp-4]
	cmp	ecx, edx
	je	SHORT $LN1@Copy_opt
	push	esi
$LL3@Copy_opt:

; 2472 : 		*_Dest = *_First;

	mov	esi, DWORD PTR [ecx]
	mov	DWORD PTR [eax], esi
	mov	esi, DWORD PTR [ecx+4]
	mov	DWORD PTR [eax+4], esi
	mov	esi, DWORD PTR [ecx+8]
	mov	DWORD PTR [eax+8], esi
	mov	esi, DWORD PTR [ecx+12]
	mov	DWORD PTR [eax+12], esi
	mov	esi, DWORD PTR [ecx+16]
	mov	DWORD PTR [eax+16], esi
	add	ecx, 20					; 00000014H
	add	eax, 20					; 00000014H
	cmp	ecx, edx
	jne	SHORT $LL3@Copy_opt
	pop	esi
$LN1@Copy_opt:

; 2473 : 	return (_Dest);
; 2474 : 	}

	ret	0
??$_Copy_opt@PAVCvHomelandTarget@@PAV1@Urandom_access_iterator_tag@std@@@std@@YAPAVCvHomelandTarget@@PAV1@00Urandom_access_iterator_tag@0@U_Nonscalar_ptr_iterator_tag@0@U_Range_checked_iterator_tag@0@@Z ENDP ; std::_Copy_opt<CvHomelandTarget *,CvHomelandTarget *,std::random_access_iterator_tag>
_TEXT	ENDS
PUBLIC	??CCvLuaArgsHandle@@QBEPAVICvEngineScriptSystemArgs1@@XZ ; CvLuaArgsHandle::operator->
; Function compile flags: /Ogtpy
; File s:\lekmod_dll\cvgamecoredll_expansion2\lua\cvluaargshandle.h
;	COMDAT ??CCvLuaArgsHandle@@QBEPAVICvEngineScriptSystemArgs1@@XZ
_TEXT	SEGMENT
??CCvLuaArgsHandle@@QBEPAVICvEngineScriptSystemArgs1@@XZ PROC ; CvLuaArgsHandle::operator->, COMDAT
; _this$ = ecx

; 40   : 	return m_Ptr;

	mov	eax, DWORD PTR [ecx]

; 41   : }

	ret	0
??CCvLuaArgsHandle@@QBEPAVICvEngineScriptSystemArgs1@@XZ ENDP ; CvLuaArgsHandle::operator->
_TEXT	ENDS
PUBLIC	?get@CvLuaArgsHandle@@QBEPAVICvEngineScriptSystemArgs1@@XZ ; CvLuaArgsHandle::get
; Function compile flags: /Ogtpy
;	COMDAT ?get@CvLuaArgsHandle@@QBEPAVICvEngineScriptSystemArgs1@@XZ
_TEXT	SEGMENT
?get@CvLuaArgsHandle@@QBEPAVICvEngineScriptSystemArgs1@@XZ PROC ; CvLuaArgsHandle::get, COMDAT
; _this$ = ecx

; 45   : 	return m_Ptr;

	mov	eax, DWORD PTR [ecx]

; 46   : }

	ret	0
?get@CvLuaArgsHandle@@QBEPAVICvEngineScriptSystemArgs1@@XZ ENDP ; CvLuaArgsHandle::get
_TEXT	ENDS
PUBLIC	?GetID@CvBaseInfo@@QBEHXZ			; CvBaseInfo::GetID
; Function compile flags: /Ogtpy
; File s:\lekmod_dll\cvgamecoredll_expansion2\cvinfos.h
;	COMDAT ?GetID@CvBaseInfo@@QBEHXZ
_TEXT	SEGMENT
?GetID@CvBaseInfo@@QBEHXZ PROC				; CvBaseInfo::GetID, COMDAT
; _this$ = ecx

; 54   : 		return m_iID;

	mov	eax, DWORD PTR [ecx+4]

; 55   : 	}

	ret	0
?GetID@CvBaseInfo@@QBEHXZ ENDP				; CvBaseInfo::GetID
_TEXT	ENDS
PUBLIC	??$_Ptr_cat@PAPAVCvPlot@@PAPAV1@@std@@YA?AU_Scalar_ptr_iterator_tag@0@AAPAPAVCvPlot@@0@Z ; std::_Ptr_cat<CvPlot * *,CvPlot * *>
; Function compile flags: /Ogtpy
; File s:\msvs2008\vc\include\xutility
;	COMDAT ??$_Ptr_cat@PAPAVCvPlot@@PAPAV1@@std@@YA?AU_Scalar_ptr_iterator_tag@0@AAPAPAVCvPlot@@0@Z
_TEXT	SEGMENT
__Cat$ = -1						; size = 1
___formal$ = 8						; size = 4
___formal$ = 12						; size = 4
??$_Ptr_cat@PAPAVCvPlot@@PAPAV1@@std@@YA?AU_Scalar_ptr_iterator_tag@0@AAPAPAVCvPlot@@0@Z PROC ; std::_Ptr_cat<CvPlot * *,CvPlot * *>, COMDAT

; 1509 : 	{

	push	ecx

; 1510 : 	typename _Ptr_cat_helper<_T1, _T2>::_Ptr_cat _Cat;
; 1511 : 	return (_Cat);

	mov	al, BYTE PTR __Cat$[esp+4]

; 1512 : 	}

	pop	ecx
	ret	0
??$_Ptr_cat@PAPAVCvPlot@@PAPAV1@@std@@YA?AU_Scalar_ptr_iterator_tag@0@AAPAPAVCvPlot@@0@Z ENDP ; std::_Ptr_cat<CvPlot * *,CvPlot * *>
_TEXT	ENDS
PUBLIC	?GetDescription@CvBaseInfo@@QBEPBDXZ		; CvBaseInfo::GetDescription
; Function compile flags: /Ogtpy
; File s:\lekmod_dll\cvgamecoredll_expansion2\cvinfos.h
;	COMDAT ?GetDescription@CvBaseInfo@@QBEPBDXZ
_TEXT	SEGMENT
?GetDescription@CvBaseInfo@@QBEPBDXZ PROC		; CvBaseInfo::GetDescription, COMDAT
; _this$ = ecx

; 64   : 		return m_strDescription.c_str();

	add	ecx, 36					; 00000024H
	jmp	DWORD PTR __imp_?c_str@?$basic_string@DU?$char_traits@D@std@@V?$allocator@D@2@@std@@QBEPBDXZ
?GetDescription@CvBaseInfo@@QBEPBDXZ ENDP		; CvBaseInfo::GetDescription
_TEXT	ENDS
PUBLIC	??$_Ptr_cat@PAPAVCvCity@@PAPAV1@@std@@YA?AU_Scalar_ptr_iterator_tag@0@AAPAPAVCvCity@@0@Z ; std::_Ptr_cat<CvCity * *,CvCity * *>
; Function compile flags: /Ogtpy
; File s:\msvs2008\vc\include\xutility
;	COMDAT ??$_Ptr_cat@PAPAVCvCity@@PAPAV1@@std@@YA?AU_Scalar_ptr_iterator_tag@0@AAPAPAVCvCity@@0@Z
_TEXT	SEGMENT
__Cat$ = -1						; size = 1
___formal$ = 8						; size = 4
___formal$ = 12						; size = 4
??$_Ptr_cat@PAPAVCvCity@@PAPAV1@@std@@YA?AU_Scalar_ptr_iterator_tag@0@AAPAPAVCvCity@@0@Z PROC ; std::_Ptr_cat<CvCity * *,CvCity * *>, COMDAT

; 1509 : 	{

	push	ecx

; 1510 : 	typename _Ptr_cat_helper<_T1, _T2>::_Ptr_cat _Cat;
; 1511 : 	return (_Cat);

	mov	al, BYTE PTR __Cat$[esp+4]

; 1512 : 	}

	pop	ecx
	ret	0
??$_Ptr_cat@PAPAVCvCity@@PAPAV1@@std@@YA?AU_Scalar_ptr_iterator_tag@0@AAPAPAVCvCity@@0@Z ENDP ; std::_Ptr_cat<CvCity * *,CvCity * *>
_TEXT	ENDS
PUBLIC	??$_Fill@PAVCvHomelandTarget@@V1@@std@@YAXPAVCvHomelandTarget@@0ABV1@@Z ; std::_Fill<CvHomelandTarget *,CvHomelandTarget>
; Function compile flags: /Ogtpy
;	COMDAT ??$_Fill@PAVCvHomelandTarget@@V1@@std@@YAXPAVCvHomelandTarget@@0ABV1@@Z
_TEXT	SEGMENT
__First$ = 8						; size = 4
__Last$ = 12						; size = 4
__Val$ = 16						; size = 4
??$_Fill@PAVCvHomelandTarget@@V1@@std@@YAXPAVCvHomelandTarget@@0ABV1@@Z PROC ; std::_Fill<CvHomelandTarget *,CvHomelandTarget>, COMDAT

; 3157 : 	_DEBUG_RANGE(_First, _Last);
; 3158 : 	for (; _First != _Last; ++_First)

	mov	eax, DWORD PTR __First$[esp-4]
	mov	edx, DWORD PTR __Last$[esp-4]
	cmp	eax, edx
	je	SHORT $LN1@Fill
	mov	ecx, DWORD PTR __Val$[esp-4]
	push	esi
$LL3@Fill:

; 3159 : 		*_First = _Val;

	mov	esi, DWORD PTR [ecx]
	mov	DWORD PTR [eax], esi
	mov	esi, DWORD PTR [ecx+4]
	mov	DWORD PTR [eax+4], esi
	mov	esi, DWORD PTR [ecx+8]
	mov	DWORD PTR [eax+8], esi
	mov	esi, DWORD PTR [ecx+12]
	mov	DWORD PTR [eax+12], esi
	mov	esi, DWORD PTR [ecx+16]
	mov	DWORD PTR [eax+16], esi
	add	eax, 20					; 00000014H
	cmp	eax, edx
	jne	SHORT $LL3@Fill
	pop	esi
$LN1@Fill:

; 3160 : 	}

	ret	0
??$_Fill@PAVCvHomelandTarget@@V1@@std@@YAXPAVCvHomelandTarget@@0ABV1@@Z ENDP ; std::_Fill<CvHomelandTarget *,CvHomelandTarget>
_TEXT	ENDS
PUBLIC	??$_Move_cat@PAVCvHomelandTarget@@@std@@YA?AU_Undefined_move_tag@0@ABQAVCvHomelandTarget@@@Z ; std::_Move_cat<CvHomelandTarget *>
; Function compile flags: /Ogtpy
;	COMDAT ??$_Move_cat@PAVCvHomelandTarget@@@std@@YA?AU_Undefined_move_tag@0@ABQAVCvHomelandTarget@@@Z
_TEXT	SEGMENT
__Cat$ = -1						; size = 1
___formal$ = 8						; size = 4
??$_Move_cat@PAVCvHomelandTarget@@@std@@YA?AU_Undefined_move_tag@0@ABQAVCvHomelandTarget@@@Z PROC ; std::_Move_cat<CvHomelandTarget *>, COMDAT

; 1200 : 	{

	push	ecx

; 1201 : 		typename _Move_operation_category<typename iterator_traits<_Iter>::value_type>::_Move_cat _Cat;
; 1202 : 		return (_Cat);

	mov	al, BYTE PTR __Cat$[esp+4]

; 1203 : 	}

	pop	ecx
	ret	0
??$_Move_cat@PAVCvHomelandTarget@@@std@@YA?AU_Undefined_move_tag@0@ABQAVCvHomelandTarget@@@Z ENDP ; std::_Move_cat<CvHomelandTarget *>
_TEXT	ENDS
PUBLIC	??$_Destroy_range@V?$allocator@PAVCvPlot@@@std@@@std@@YAXPAPAVCvPlot@@0AAV?$allocator@PAVCvPlot@@@0@U_Scalar_ptr_iterator_tag@0@@Z ; std::_Destroy_range<std::allocator<CvPlot *> >
; Function compile flags: /Ogtpy
; File s:\msvs2008\vc\include\xmemory
;	COMDAT ??$_Destroy_range@V?$allocator@PAVCvPlot@@@std@@@std@@YAXPAPAVCvPlot@@0AAV?$allocator@PAVCvPlot@@@0@U_Scalar_ptr_iterator_tag@0@@Z
_TEXT	SEGMENT
__First$ = 8						; size = 4
__Last$ = 12						; size = 4
__Al$ = 16						; size = 4
___formal$ = 20						; size = 1
??$_Destroy_range@V?$allocator@PAVCvPlot@@@std@@@std@@YAXPAPAVCvPlot@@0AAV?$allocator@PAVCvPlot@@@0@U_Scalar_ptr_iterator_tag@0@@Z PROC ; std::_Destroy_range<std::allocator<CvPlot *> >, COMDAT

; 242  : 	}

	ret	0
??$_Destroy_range@V?$allocator@PAVCvPlot@@@std@@@std@@YAXPAPAVCvPlot@@0AAV?$allocator@PAVCvPlot@@@0@U_Scalar_ptr_iterator_tag@0@@Z ENDP ; std::_Destroy_range<std::allocator<CvPlot *> >
_TEXT	ENDS
PUBLIC	??$_Fill@PAPAVCvPlot@@PAV1@@std@@YAXPAPAVCvPlot@@0ABQAV1@@Z ; std::_Fill<CvPlot * *,CvPlot *>
; Function compile flags: /Ogtpy
; File s:\msvs2008\vc\include\xutility
;	COMDAT ??$_Fill@PAPAVCvPlot@@PAV1@@std@@YAXPAPAVCvPlot@@0ABQAV1@@Z
_TEXT	SEGMENT
__First$ = 8						; size = 4
__Last$ = 12						; size = 4
__Val$ = 16						; size = 4
??$_Fill@PAPAVCvPlot@@PAV1@@std@@YAXPAPAVCvPlot@@0ABQAV1@@Z PROC ; std::_Fill<CvPlot * *,CvPlot *>, COMDAT

; 3157 : 	_DEBUG_RANGE(_First, _Last);
; 3158 : 	for (; _First != _Last; ++_First)

	mov	eax, DWORD PTR __First$[esp-4]
	mov	ecx, DWORD PTR __Last$[esp-4]
	cmp	eax, ecx
	je	SHORT $LN1@Fill@2
	mov	edx, DWORD PTR __Val$[esp-4]
	push	esi
$LL3@Fill@2:

; 3159 : 		*_First = _Val;

	mov	esi, DWORD PTR [edx]
	mov	DWORD PTR [eax], esi
	add	eax, 4
	cmp	eax, ecx
	jne	SHORT $LL3@Fill@2
	pop	esi
$LN1@Fill@2:

; 3160 : 	}

	ret	0
??$_Fill@PAPAVCvPlot@@PAV1@@std@@YAXPAPAVCvPlot@@0ABQAV1@@Z ENDP ; std::_Fill<CvPlot * *,CvPlot *>
_TEXT	ENDS
PUBLIC	??$_Iter_random@PAPAVCvPlot@@PAPAV1@@std@@YA?AUrandom_access_iterator_tag@0@ABQAPAVCvPlot@@0@Z ; std::_Iter_random<CvPlot * *,CvPlot * *>
; Function compile flags: /Ogtpy
;	COMDAT ??$_Iter_random@PAPAVCvPlot@@PAPAV1@@std@@YA?AUrandom_access_iterator_tag@0@ABQAPAVCvPlot@@0@Z
_TEXT	SEGMENT
___$ReturnUdt$ = 8					; size = 4
___formal$ = 12						; size = 4
___formal$ = 16						; size = 4
??$_Iter_random@PAPAVCvPlot@@PAPAV1@@std@@YA?AUrandom_access_iterator_tag@0@ABQAPAVCvPlot@@0@Z PROC ; std::_Iter_random<CvPlot * *,CvPlot * *>, COMDAT

; 994  : 	typename _Iter_random_helper<
; 995  : 		iterator_traits<_Iter1>::iterator_category, 
; 996  : 		iterator_traits<_Iter2>::iterator_category>::_Iter_random_cat _Cat;
; 997  : 	return (_Cat);

	mov	eax, DWORD PTR ___$ReturnUdt$[esp-4]

; 998  : 	}

	ret	0
??$_Iter_random@PAPAVCvPlot@@PAPAV1@@std@@YA?AUrandom_access_iterator_tag@0@ABQAPAVCvPlot@@0@Z ENDP ; std::_Iter_random<CvPlot * *,CvPlot * *>
_TEXT	ENDS
PUBLIC	??$_Move_cat@PAPAVCvPlot@@@std@@YA?AU_Undefined_move_tag@0@ABQAPAVCvPlot@@@Z ; std::_Move_cat<CvPlot * *>
; Function compile flags: /Ogtpy
;	COMDAT ??$_Move_cat@PAPAVCvPlot@@@std@@YA?AU_Undefined_move_tag@0@ABQAPAVCvPlot@@@Z
_TEXT	SEGMENT
__Cat$ = -1						; size = 1
___formal$ = 8						; size = 4
??$_Move_cat@PAPAVCvPlot@@@std@@YA?AU_Undefined_move_tag@0@ABQAPAVCvPlot@@@Z PROC ; std::_Move_cat<CvPlot * *>, COMDAT

; 1200 : 	{

	push	ecx

; 1201 : 		typename _Move_operation_category<typename iterator_traits<_Iter>::value_type>::_Move_cat _Cat;
; 1202 : 		return (_Cat);

	mov	al, BYTE PTR __Cat$[esp+4]

; 1203 : 	}

	pop	ecx
	ret	0
??$_Move_cat@PAPAVCvPlot@@@std@@YA?AU_Undefined_move_tag@0@ABQAPAVCvPlot@@@Z ENDP ; std::_Move_cat<CvPlot * *>
_TEXT	ENDS
PUBLIC	??$_Destroy_range@V?$allocator@PAVCvCity@@@std@@@std@@YAXPAPAVCvCity@@0AAV?$allocator@PAVCvCity@@@0@U_Scalar_ptr_iterator_tag@0@@Z ; std::_Destroy_range<std::allocator<CvCity *> >
; Function compile flags: /Ogtpy
; File s:\msvs2008\vc\include\xmemory
;	COMDAT ??$_Destroy_range@V?$allocator@PAVCvCity@@@std@@@std@@YAXPAPAVCvCity@@0AAV?$allocator@PAVCvCity@@@0@U_Scalar_ptr_iterator_tag@0@@Z
_TEXT	SEGMENT
__First$ = 8						; size = 4
__Last$ = 12						; size = 4
__Al$ = 16						; size = 4
___formal$ = 20						; size = 1
??$_Destroy_range@V?$allocator@PAVCvCity@@@std@@@std@@YAXPAPAVCvCity@@0AAV?$allocator@PAVCvCity@@@0@U_Scalar_ptr_iterator_tag@0@@Z PROC ; std::_Destroy_range<std::allocator<CvCity *> >, COMDAT

; 242  : 	}

	ret	0
??$_Destroy_range@V?$allocator@PAVCvCity@@@std@@@std@@YAXPAPAVCvCity@@0AAV?$allocator@PAVCvCity@@@0@U_Scalar_ptr_iterator_tag@0@@Z ENDP ; std::_Destroy_range<std::allocator<CvCity *> >
_TEXT	ENDS
PUBLIC	??$_Fill@PAPAVCvCity@@PAV1@@std@@YAXPAPAVCvCity@@0ABQAV1@@Z ; std::_Fill<CvCity * *,CvCity *>
; Function compile flags: /Ogtpy
; File s:\msvs2008\vc\include\xutility
;	COMDAT ??$_Fill@PAPAVCvCity@@PAV1@@std@@YAXPAPAVCvCity@@0ABQAV1@@Z
_TEXT	SEGMENT
__First$ = 8						; size = 4
__Last$ = 12						; size = 4
__Val$ = 16						; size = 4
??$_Fill@PAPAVCvCity@@PAV1@@std@@YAXPAPAVCvCity@@0ABQAV1@@Z PROC ; std::_Fill<CvCity * *,CvCity *>, COMDAT

; 3157 : 	_DEBUG_RANGE(_First, _Last);
; 3158 : 	for (; _First != _Last; ++_First)

	mov	eax, DWORD PTR __First$[esp-4]
	mov	ecx, DWORD PTR __Last$[esp-4]
	cmp	eax, ecx
	je	SHORT $LN1@Fill@3
	mov	edx, DWORD PTR __Val$[esp-4]
	push	esi
$LL3@Fill@3:

; 3159 : 		*_First = _Val;

	mov	esi, DWORD PTR [edx]
	mov	DWORD PTR [eax], esi
	add	eax, 4
	cmp	eax, ecx
	jne	SHORT $LL3@Fill@3
	pop	esi
$LN1@Fill@3:

; 3160 : 	}

	ret	0
??$_Fill@PAPAVCvCity@@PAV1@@std@@YAXPAPAVCvCity@@0ABQAV1@@Z ENDP ; std::_Fill<CvCity * *,CvCity *>
_TEXT	ENDS
PUBLIC	??$_Iter_random@PAPAVCvCity@@PAPAV1@@std@@YA?AUrandom_access_iterator_tag@0@ABQAPAVCvCity@@0@Z ; std::_Iter_random<CvCity * *,CvCity * *>
; Function compile flags: /Ogtpy
;	COMDAT ??$_Iter_random@PAPAVCvCity@@PAPAV1@@std@@YA?AUrandom_access_iterator_tag@0@ABQAPAVCvCity@@0@Z
_TEXT	SEGMENT
___$ReturnUdt$ = 8					; size = 4
___formal$ = 12						; size = 4
___formal$ = 16						; size = 4
??$_Iter_random@PAPAVCvCity@@PAPAV1@@std@@YA?AUrandom_access_iterator_tag@0@ABQAPAVCvCity@@0@Z PROC ; std::_Iter_random<CvCity * *,CvCity * *>, COMDAT

; 994  : 	typename _Iter_random_helper<
; 995  : 		iterator_traits<_Iter1>::iterator_category, 
; 996  : 		iterator_traits<_Iter2>::iterator_category>::_Iter_random_cat _Cat;
; 997  : 	return (_Cat);

	mov	eax, DWORD PTR ___$ReturnUdt$[esp-4]

; 998  : 	}

	ret	0
??$_Iter_random@PAPAVCvCity@@PAPAV1@@std@@YA?AUrandom_access_iterator_tag@0@ABQAPAVCvCity@@0@Z ENDP ; std::_Iter_random<CvCity * *,CvCity * *>
_TEXT	ENDS
PUBLIC	??$_Move_cat@PAPAVCvCity@@@std@@YA?AU_Undefined_move_tag@0@ABQAPAVCvCity@@@Z ; std::_Move_cat<CvCity * *>
; Function compile flags: /Ogtpy
;	COMDAT ??$_Move_cat@PAPAVCvCity@@@std@@YA?AU_Undefined_move_tag@0@ABQAPAVCvCity@@@Z
_TEXT	SEGMENT
__Cat$ = -1						; size = 1
___formal$ = 8						; size = 4
??$_Move_cat@PAPAVCvCity@@@std@@YA?AU_Undefined_move_tag@0@ABQAPAVCvCity@@@Z PROC ; std::_Move_cat<CvCity * *>, COMDAT

; 1200 : 	{

	push	ecx

; 1201 : 		typename _Move_operation_category<typename iterator_traits<_Iter>::value_type>::_Move_cat _Cat;
; 1202 : 		return (_Cat);

	mov	al, BYTE PTR __Cat$[esp+4]

; 1203 : 	}

	pop	ecx
	ret	0
??$_Move_cat@PAPAVCvCity@@@std@@YA?AU_Undefined_move_tag@0@ABQAPAVCvCity@@@Z ENDP ; std::_Move_cat<CvCity * *>
_TEXT	ENDS
PUBLIC	??0?$_Temp_iterator@VCvHomelandMove@@@std@@QAE@H@Z ; std::_Temp_iterator<CvHomelandMove>::_Temp_iterator<CvHomelandMove>
; Function compile flags: /Ogtpy
; File s:\msvs2008\vc\include\memory
;	COMDAT ??0?$_Temp_iterator@VCvHomelandMove@@@std@@QAE@H@Z
_TEXT	SEGMENT
__Count$ = 8						; size = 4
??0?$_Temp_iterator@VCvHomelandMove@@@std@@QAE@H@Z PROC	; std::_Temp_iterator<CvHomelandMove>::_Temp_iterator<CvHomelandMove>, COMDAT
; _this$ = ecx

; 526  : 	_Temp_iterator(_PDFT _Count = 0)

	mov	eax, ecx

; 527  : 		{	// construct from desired temporary buffer size
; 528  : 		_Buf._Begin = 0;

	xor	ecx, ecx
	mov	DWORD PTR [eax], ecx

; 529  : 		_Buf._Current = 0;

	mov	DWORD PTR [eax+4], ecx

; 530  : 		_Buf._Hiwater = 0;

	mov	DWORD PTR [eax+8], ecx

; 531  : 		_Buf._Size = _Count;	// memorize size for lazy allocation

	mov	ecx, DWORD PTR __Count$[esp-4]
	mov	DWORD PTR [eax+12], ecx

; 532  : 		_Pbuf = &_Buf;

	mov	DWORD PTR [eax+16], eax

; 533  : 		}

	ret	4
??0?$_Temp_iterator@VCvHomelandMove@@@std@@QAE@H@Z ENDP	; std::_Temp_iterator<CvHomelandMove>::_Temp_iterator<CvHomelandMove>
_TEXT	ENDS
PUBLIC	??0?$_Temp_iterator@VCvHomelandTarget@@@std@@QAE@H@Z ; std::_Temp_iterator<CvHomelandTarget>::_Temp_iterator<CvHomelandTarget>
; Function compile flags: /Ogtpy
;	COMDAT ??0?$_Temp_iterator@VCvHomelandTarget@@@std@@QAE@H@Z
_TEXT	SEGMENT
__Count$ = 8						; size = 4
??0?$_Temp_iterator@VCvHomelandTarget@@@std@@QAE@H@Z PROC ; std::_Temp_iterator<CvHomelandTarget>::_Temp_iterator<CvHomelandTarget>, COMDAT
; _this$ = ecx

; 526  : 	_Temp_iterator(_PDFT _Count = 0)

	mov	eax, ecx

; 527  : 		{	// construct from desired temporary buffer size
; 528  : 		_Buf._Begin = 0;

	xor	ecx, ecx
	mov	DWORD PTR [eax], ecx

; 529  : 		_Buf._Current = 0;

	mov	DWORD PTR [eax+4], ecx

; 530  : 		_Buf._Hiwater = 0;

	mov	DWORD PTR [eax+8], ecx

; 531  : 		_Buf._Size = _Count;	// memorize size for lazy allocation

	mov	ecx, DWORD PTR __Count$[esp-4]
	mov	DWORD PTR [eax+12], ecx

; 532  : 		_Pbuf = &_Buf;

	mov	DWORD PTR [eax+16], eax

; 533  : 		}

	ret	4
??0?$_Temp_iterator@VCvHomelandTarget@@@std@@QAE@H@Z ENDP ; std::_Temp_iterator<CvHomelandTarget>::_Temp_iterator<CvHomelandTarget>
_TEXT	ENDS
PUBLIC	??0?$_Temp_iterator@VCvHomelandUnit@@@std@@QAE@H@Z ; std::_Temp_iterator<CvHomelandUnit>::_Temp_iterator<CvHomelandUnit>
; Function compile flags: /Ogtpy
;	COMDAT ??0?$_Temp_iterator@VCvHomelandUnit@@@std@@QAE@H@Z
_TEXT	SEGMENT
__Count$ = 8						; size = 4
??0?$_Temp_iterator@VCvHomelandUnit@@@std@@QAE@H@Z PROC	; std::_Temp_iterator<CvHomelandUnit>::_Temp_iterator<CvHomelandUnit>, COMDAT
; _this$ = ecx

; 526  : 	_Temp_iterator(_PDFT _Count = 0)

	mov	eax, ecx

; 527  : 		{	// construct from desired temporary buffer size
; 528  : 		_Buf._Begin = 0;

	xor	ecx, ecx
	mov	DWORD PTR [eax], ecx

; 529  : 		_Buf._Current = 0;

	mov	DWORD PTR [eax+4], ecx

; 530  : 		_Buf._Hiwater = 0;

	mov	DWORD PTR [eax+8], ecx

; 531  : 		_Buf._Size = _Count;	// memorize size for lazy allocation

	mov	ecx, DWORD PTR __Count$[esp-4]
	mov	DWORD PTR [eax+12], ecx

; 532  : 		_Pbuf = &_Buf;

	mov	DWORD PTR [eax+16], eax

; 533  : 		}

	ret	4
??0?$_Temp_iterator@VCvHomelandUnit@@@std@@QAE@H@Z ENDP	; std::_Temp_iterator<CvHomelandUnit>::_Temp_iterator<CvHomelandUnit>
_TEXT	ENDS
PUBLIC	?getMap@CvGlobals@@QAEAAVCvMap@@XZ		; CvGlobals::getMap
; Function compile flags: /Ogtpy
; File s:\lekmod_dll\cvgamecoredll_expansion2\cvglobals.h
;	COMDAT ?getMap@CvGlobals@@QAEAAVCvMap@@XZ
_TEXT	SEGMENT
?getMap@CvGlobals@@QAEAAVCvMap@@XZ PROC			; CvGlobals::getMap, COMDAT
; _this$ = ecx

; 175  : 		return *m_map;    // inlined for perf reasons, do not use outside of dll

	mov	eax, DWORD PTR [ecx+52]

; 176  : 	}

	ret	0
?getMap@CvGlobals@@QAEAAVCvMap@@XZ ENDP			; CvGlobals::getMap
_TEXT	ENDS
PUBLIC	?getGame@CvGlobals@@QAEAAVCvGame@@XZ		; CvGlobals::getGame
; Function compile flags: /Ogtpy
;	COMDAT ?getGame@CvGlobals@@QAEAAVCvGame@@XZ
_TEXT	SEGMENT
?getGame@CvGlobals@@QAEAAVCvGame@@XZ PROC		; CvGlobals::getGame, COMDAT
; _this$ = ecx

; 183  : 		return *m_game;    // inlined for perf reasons, do not use outside of dll

	mov	eax, DWORD PTR [ecx+48]

; 184  : 	}

	ret	0
?getGame@CvGlobals@@QAEAAVCvGame@@XZ ENDP		; CvGlobals::getGame
_TEXT	ENDS
PUBLIC	?getPlotDirectionX@CvGlobals@@QAEPAHXZ		; CvGlobals::getPlotDirectionX
; Function compile flags: /Ogtpy
;	COMDAT ?getPlotDirectionX@CvGlobals@@QAEPAHXZ
_TEXT	SEGMENT
?getPlotDirectionX@CvGlobals@@QAEPAHXZ PROC		; CvGlobals::getPlotDirectionX, COMDAT
; _this$ = ecx

; 191  : 		return m_aiPlotDirectionX;

	lea	eax, DWORD PTR [ecx+112]

; 192  : 	}

	ret	0
?getPlotDirectionX@CvGlobals@@QAEPAHXZ ENDP		; CvGlobals::getPlotDirectionX
_TEXT	ENDS
PUBLIC	?getPlotDirectionY@CvGlobals@@QAEPAHXZ		; CvGlobals::getPlotDirectionY
; Function compile flags: /Ogtpy
;	COMDAT ?getPlotDirectionY@CvGlobals@@QAEPAHXZ
_TEXT	SEGMENT
?getPlotDirectionY@CvGlobals@@QAEPAHXZ PROC		; CvGlobals::getPlotDirectionY, COMDAT
; _this$ = ecx

; 195  : 		return m_aiPlotDirectionY;

	lea	eax, DWORD PTR [ecx+136]

; 196  : 	}

	ret	0
?getPlotDirectionY@CvGlobals@@QAEPAHXZ ENDP		; CvGlobals::getPlotDirectionY
_TEXT	ENDS
PUBLIC	?getNumFlavorTypes@CvGlobals@@QAEHXZ		; CvGlobals::getNumFlavorTypes
; Function compile flags: /Ogtpy
;	COMDAT ?getNumFlavorTypes@CvGlobals@@QAEHXZ
_TEXT	SEGMENT
?getNumFlavorTypes@CvGlobals@@QAEHXZ PROC		; CvGlobals::getNumFlavorTypes, COMDAT
; _this$ = ecx

; 804  : 		return m_iNumFlavorTypes;

	mov	eax, DWORD PTR [ecx+1764]

; 805  : 	}

	ret	0
?getNumFlavorTypes@CvGlobals@@QAEHXZ ENDP		; CvGlobals::getNumFlavorTypes
_TEXT	ENDS
PUBLIC	?getFlavorTypes@CvGlobals@@QAEAAVCvString@@W4FlavorTypes@@@Z ; CvGlobals::getFlavorTypes
; Function compile flags: /Ogtpy
;	COMDAT ?getFlavorTypes@CvGlobals@@QAEAAVCvString@@W4FlavorTypes@@@Z
_TEXT	SEGMENT
_e$ = 8							; size = 4
?getFlavorTypes@CvGlobals@@QAEAAVCvString@@W4FlavorTypes@@@Z PROC ; CvGlobals::getFlavorTypes, COMDAT
; _this$ = ecx

; 812  : 		CvAssert(e > -1); /*CvAssert(e < GC.getNumFlavorTypes())*/;
; 813  : 		return m_paszFlavorTypes[e];

	mov	eax, DWORD PTR _e$[esp-4]
	lea	edx, DWORD PTR [eax*8]
	sub	edx, eax
	mov	eax, DWORD PTR [ecx+1760]
	lea	eax, DWORD PTR [eax+edx*4]

; 814  : 	}

	ret	4
?getFlavorTypes@CvGlobals@@QAEAAVCvString@@W4FlavorTypes@@@Z ENDP ; CvGlobals::getFlavorTypes
_TEXT	ENDS
PUBLIC	??$_Copy_backward_opt@PAVCvHomelandTarget@@PAV1@Urandom_access_iterator_tag@std@@@std@@YAPAVCvHomelandTarget@@PAV1@00Urandom_access_iterator_tag@0@U_Nonscalar_ptr_iterator_tag@0@U_Range_checked_iterator_tag@0@@Z ; std::_Copy_backward_opt<CvHomelandTarget *,CvHomelandTarget *,std::random_access_iterator_tag>
; Function compile flags: /Ogtpy
; File s:\msvs2008\vc\include\xutility
;	COMDAT ??$_Copy_backward_opt@PAVCvHomelandTarget@@PAV1@Urandom_access_iterator_tag@std@@@std@@YAPAVCvHomelandTarget@@PAV1@00Urandom_access_iterator_tag@0@U_Nonscalar_ptr_iterator_tag@0@U_Range_checked_iterator_tag@0@@Z
_TEXT	SEGMENT
__First$ = 8						; size = 4
__Last$ = 12						; size = 4
__Dest$ = 16						; size = 4
___formal$ = 20						; size = 1
___formal$ = 24						; size = 1
___formal$ = 28						; size = 1
??$_Copy_backward_opt@PAVCvHomelandTarget@@PAV1@Urandom_access_iterator_tag@std@@@std@@YAPAVCvHomelandTarget@@PAV1@00Urandom_access_iterator_tag@0@U_Nonscalar_ptr_iterator_tag@0@U_Range_checked_iterator_tag@0@@Z PROC ; std::_Copy_backward_opt<CvHomelandTarget *,CvHomelandTarget *,std::random_access_iterator_tag>, COMDAT

; 2674 : 	_DEBUG_RANGE(_First, _Last);
; 2675 : 	while (_First != _Last)

	mov	edx, DWORD PTR __First$[esp-4]
	mov	ecx, DWORD PTR __Last$[esp-4]
	mov	eax, DWORD PTR __Dest$[esp-4]
	cmp	edx, ecx
	je	SHORT $LN1@Copy_backw
	push	esi
$LL2@Copy_backw:

; 2676 : 		*--_Dest = *--_Last;

	mov	esi, DWORD PTR [ecx-20]
	sub	ecx, 20					; 00000014H
	sub	eax, 20					; 00000014H
	mov	DWORD PTR [eax], esi
	mov	esi, DWORD PTR [ecx+4]
	mov	DWORD PTR [eax+4], esi
	mov	esi, DWORD PTR [ecx+8]
	mov	DWORD PTR [eax+8], esi
	mov	esi, DWORD PTR [ecx+12]
	mov	DWORD PTR [eax+12], esi
	mov	esi, DWORD PTR [ecx+16]
	mov	DWORD PTR [eax+16], esi
	cmp	ecx, edx
	jne	SHORT $LL2@Copy_backw
	pop	esi
$LN1@Copy_backw:

; 2677 : 	return (_Dest);
; 2678 : 	}

	ret	0
??$_Copy_backward_opt@PAVCvHomelandTarget@@PAV1@Urandom_access_iterator_tag@std@@@std@@YAPAVCvHomelandTarget@@PAV1@00Urandom_access_iterator_tag@0@U_Nonscalar_ptr_iterator_tag@0@U_Range_checked_iterator_tag@0@@Z ENDP ; std::_Copy_backward_opt<CvHomelandTarget *,CvHomelandTarget *,std::random_access_iterator_tag>
_TEXT	ENDS
PUBLIC	??$_Copy_backward_opt@PAPAVCvPlot@@PAPAV1@Urandom_access_iterator_tag@std@@@std@@YAPAPAVCvPlot@@PAPAV1@00Urandom_access_iterator_tag@0@U_Scalar_ptr_iterator_tag@0@U_Range_checked_iterator_tag@0@@Z ; std::_Copy_backward_opt<CvPlot * *,CvPlot * *,std::random_access_iterator_tag>
EXTRN	__imp__memmove_s:PROC
; Function compile flags: /Ogtpy
;	COMDAT ??$_Copy_backward_opt@PAPAVCvPlot@@PAPAV1@Urandom_access_iterator_tag@std@@@std@@YAPAPAVCvPlot@@PAPAV1@00Urandom_access_iterator_tag@0@U_Scalar_ptr_iterator_tag@0@U_Range_checked_iterator_tag@0@@Z
_TEXT	SEGMENT
__First$ = 8						; size = 4
__Last$ = 12						; size = 4
__Dest$ = 16						; size = 4
___formal$ = 20						; size = 1
___formal$ = 24						; size = 1
___formal$ = 28						; size = 1
??$_Copy_backward_opt@PAPAVCvPlot@@PAPAV1@Urandom_access_iterator_tag@std@@@std@@YAPAPAVCvPlot@@PAPAV1@00Urandom_access_iterator_tag@0@U_Scalar_ptr_iterator_tag@0@U_Range_checked_iterator_tag@0@@Z PROC ; std::_Copy_backward_opt<CvPlot * *,CvPlot * *,std::random_access_iterator_tag>, COMDAT

; 2699 : 
; 2700 :  #if _HAS_ITERATOR_DEBUGGING
; 2701 : 	_DEBUG_RANGE(_First, _Last);
; 2702 : 	if (_First != _Last)
; 2703 : 		_DEBUG_POINTER(_Dest);
; 2704 :  #endif /* _HAS_ITERATOR_DEBUGGING */
; 2705 : 
; 2706 : 	ptrdiff_t _Off = _Last - _First;	// NB: non-overlapping move

	mov	eax, DWORD PTR __Last$[esp-4]
	mov	edx, DWORD PTR __First$[esp-4]
	sub	eax, edx
	sar	eax, 2
	push	esi

; 2707 : 	/* if _OutIt is range checked, this will make sure there is enough space for 
; 2708 : 	 * the memmove
; 2709 : 	 */
; 2710 : 	_OutIt _Result = _Dest - _Off;

	mov	esi, DWORD PTR __Dest$[esp]
	lea	ecx, DWORD PTR [eax*4]
	sub	esi, ecx

; 2711 : 	if (_Off > 0)

	test	eax, eax
	jle	SHORT $LN4@Copy_backw@2

; 2712 : 		_CRT_SECURE_MEMMOVE(&*_Result, _Off * sizeof (*_First), &*_First, _Off * sizeof (*_First));

	push	ecx
	push	edx
	push	ecx
	push	esi
	call	DWORD PTR __imp__memmove_s
	add	esp, 16					; 00000010H
$LN4@Copy_backw@2:

; 2713 : 	return _Result;

	mov	eax, esi
	pop	esi

; 2714 : 	}

	ret	0
??$_Copy_backward_opt@PAPAVCvPlot@@PAPAV1@Urandom_access_iterator_tag@std@@@std@@YAPAPAVCvPlot@@PAPAV1@00Urandom_access_iterator_tag@0@U_Scalar_ptr_iterator_tag@0@U_Range_checked_iterator_tag@0@@Z ENDP ; std::_Copy_backward_opt<CvPlot * *,CvPlot * *,std::random_access_iterator_tag>
_TEXT	ENDS
PUBLIC	??$_Copy_backward_opt@PAPAVCvCity@@PAPAV1@Urandom_access_iterator_tag@std@@@std@@YAPAPAVCvCity@@PAPAV1@00Urandom_access_iterator_tag@0@U_Scalar_ptr_iterator_tag@0@U_Range_checked_iterator_tag@0@@Z ; std::_Copy_backward_opt<CvCity * *,CvCity * *,std::random_access_iterator_tag>
; Function compile flags: /Ogtpy
;	COMDAT ??$_Copy_backward_opt@PAPAVCvCity@@PAPAV1@Urandom_access_iterator_tag@std@@@std@@YAPAPAVCvCity@@PAPAV1@00Urandom_access_iterator_tag@0@U_Scalar_ptr_iterator_tag@0@U_Range_checked_iterator_tag@0@@Z
_TEXT	SEGMENT
__First$ = 8						; size = 4
__Last$ = 12						; size = 4
__Dest$ = 16						; size = 4
___formal$ = 20						; size = 1
___formal$ = 24						; size = 1
___formal$ = 28						; size = 1
??$_Copy_backward_opt@PAPAVCvCity@@PAPAV1@Urandom_access_iterator_tag@std@@@std@@YAPAPAVCvCity@@PAPAV1@00Urandom_access_iterator_tag@0@U_Scalar_ptr_iterator_tag@0@U_Range_checked_iterator_tag@0@@Z PROC ; std::_Copy_backward_opt<CvCity * *,CvCity * *,std::random_access_iterator_tag>, COMDAT

; 2699 : 
; 2700 :  #if _HAS_ITERATOR_DEBUGGING
; 2701 : 	_DEBUG_RANGE(_First, _Last);
; 2702 : 	if (_First != _Last)
; 2703 : 		_DEBUG_POINTER(_Dest);
; 2704 :  #endif /* _HAS_ITERATOR_DEBUGGING */
; 2705 : 
; 2706 : 	ptrdiff_t _Off = _Last - _First;	// NB: non-overlapping move

	mov	eax, DWORD PTR __Last$[esp-4]
	mov	edx, DWORD PTR __First$[esp-4]
	sub	eax, edx
	sar	eax, 2
	push	esi

; 2707 : 	/* if _OutIt is range checked, this will make sure there is enough space for 
; 2708 : 	 * the memmove
; 2709 : 	 */
; 2710 : 	_OutIt _Result = _Dest - _Off;

	mov	esi, DWORD PTR __Dest$[esp]
	lea	ecx, DWORD PTR [eax*4]
	sub	esi, ecx

; 2711 : 	if (_Off > 0)

	test	eax, eax
	jle	SHORT $LN4@Copy_backw@3

; 2712 : 		_CRT_SECURE_MEMMOVE(&*_Result, _Off * sizeof (*_First), &*_First, _Off * sizeof (*_First));

	push	ecx
	push	edx
	push	ecx
	push	esi
	call	DWORD PTR __imp__memmove_s
	add	esp, 16					; 00000010H
$LN4@Copy_backw@3:

; 2713 : 	return _Result;

	mov	eax, esi
	pop	esi

; 2714 : 	}

	ret	0
??$_Copy_backward_opt@PAPAVCvCity@@PAPAV1@Urandom_access_iterator_tag@std@@@std@@YAPAPAVCvCity@@PAPAV1@00Urandom_access_iterator_tag@0@U_Scalar_ptr_iterator_tag@0@U_Range_checked_iterator_tag@0@@Z ENDP ; std::_Copy_backward_opt<CvCity * *,CvCity * *,std::random_access_iterator_tag>
_TEXT	ENDS
PUBLIC	??$_Construct@VCvHomelandTarget@@V1@@std@@YAXPAVCvHomelandTarget@@ABV1@@Z ; std::_Construct<CvHomelandTarget,CvHomelandTarget>
; Function compile flags: /Ogtpy
; File s:\msvs2008\vc\include\xmemory
;	COMDAT ??$_Construct@VCvHomelandTarget@@V1@@std@@YAXPAVCvHomelandTarget@@ABV1@@Z
_TEXT	SEGMENT
__Ptr$ = 8						; size = 4
__Val$ = 12						; size = 4
??$_Construct@VCvHomelandTarget@@V1@@std@@YAXPAVCvHomelandTarget@@ABV1@@Z PROC ; std::_Construct<CvHomelandTarget,CvHomelandTarget>, COMDAT

; 51   : 	void _FARQ *_Vptr = _Ptr;
; 52   : 	::new (_Vptr) _T1(_Val);

	mov	eax, DWORD PTR __Ptr$[esp-4]
	test	eax, eax
	je	SHORT $LN3@Construct@3
	mov	ecx, DWORD PTR __Val$[esp-4]
	mov	edx, DWORD PTR [ecx]
	mov	DWORD PTR [eax], edx
	mov	edx, DWORD PTR [ecx+4]
	mov	DWORD PTR [eax+4], edx
	mov	edx, DWORD PTR [ecx+8]
	mov	DWORD PTR [eax+8], edx
	mov	edx, DWORD PTR [ecx+12]
	mov	DWORD PTR [eax+12], edx
	mov	ecx, DWORD PTR [ecx+16]
	mov	DWORD PTR [eax+16], ecx
$LN3@Construct@3:

; 53   : 	}

	ret	0
??$_Construct@VCvHomelandTarget@@V1@@std@@YAXPAVCvHomelandTarget@@ABV1@@Z ENDP ; std::_Construct<CvHomelandTarget,CvHomelandTarget>
_TEXT	ENDS
PUBLIC	??$_Destroy@VCvHomelandTarget@@@std@@YAXPAVCvHomelandTarget@@@Z ; std::_Destroy<CvHomelandTarget>
; Function compile flags: /Ogtpy
;	COMDAT ??$_Destroy@VCvHomelandTarget@@@std@@YAXPAVCvHomelandTarget@@@Z
_TEXT	SEGMENT
__Ptr$ = 8						; size = 4
??$_Destroy@VCvHomelandTarget@@@std@@YAXPAVCvHomelandTarget@@@Z PROC ; std::_Destroy<CvHomelandTarget>, COMDAT

; 59   : 	_DESTRUCTOR(_Ty, _Ptr);
; 60   : 	}

	ret	0
??$_Destroy@VCvHomelandTarget@@@std@@YAXPAVCvHomelandTarget@@@Z ENDP ; std::_Destroy<CvHomelandTarget>
_TEXT	ENDS
PUBLIC	??$_Destroy@VCvHomelandMove@@@std@@YAXPAVCvHomelandMove@@@Z ; std::_Destroy<CvHomelandMove>
; Function compile flags: /Ogtpy
;	COMDAT ??$_Destroy@VCvHomelandMove@@@std@@YAXPAVCvHomelandMove@@@Z
_TEXT	SEGMENT
__Ptr$ = 8						; size = 4
??$_Destroy@VCvHomelandMove@@@std@@YAXPAVCvHomelandMove@@@Z PROC ; std::_Destroy<CvHomelandMove>, COMDAT

; 59   : 	_DESTRUCTOR(_Ty, _Ptr);
; 60   : 	}

	ret	0
??$_Destroy@VCvHomelandMove@@@std@@YAXPAVCvHomelandMove@@@Z ENDP ; std::_Destroy<CvHomelandMove>
_TEXT	ENDS
PUBLIC	??$return_temporary_buffer@VCvHomelandMove@@@std@@YAXPAVCvHomelandMove@@@Z ; std::return_temporary_buffer<CvHomelandMove>
; Function compile flags: /Ogtpy
; File s:\msvs2008\vc\include\memory
;	COMDAT ??$return_temporary_buffer@VCvHomelandMove@@@std@@YAXPAVCvHomelandMove@@@Z
_TEXT	SEGMENT
__Pbuf$ = 8						; size = 4
??$return_temporary_buffer@VCvHomelandMove@@@std@@YAXPAVCvHomelandMove@@@Z PROC ; std::return_temporary_buffer<CvHomelandMove>, COMDAT

; 39   : 	operator delete(_Pbuf);

	jmp	??3@YAXPAX@Z				; operator delete
??$return_temporary_buffer@VCvHomelandMove@@@std@@YAXPAVCvHomelandMove@@@Z ENDP ; std::return_temporary_buffer<CvHomelandMove>
_TEXT	ENDS
PUBLIC	??$return_temporary_buffer@VCvHomelandTarget@@@std@@YAXPAVCvHomelandTarget@@@Z ; std::return_temporary_buffer<CvHomelandTarget>
; Function compile flags: /Ogtpy
;	COMDAT ??$return_temporary_buffer@VCvHomelandTarget@@@std@@YAXPAVCvHomelandTarget@@@Z
_TEXT	SEGMENT
__Pbuf$ = 8						; size = 4
??$return_temporary_buffer@VCvHomelandTarget@@@std@@YAXPAVCvHomelandTarget@@@Z PROC ; std::return_temporary_buffer<CvHomelandTarget>, COMDAT

; 39   : 	operator delete(_Pbuf);

	jmp	??3@YAXPAX@Z				; operator delete
??$return_temporary_buffer@VCvHomelandTarget@@@std@@YAXPAVCvHomelandTarget@@@Z ENDP ; std::return_temporary_buffer<CvHomelandTarget>
_TEXT	ENDS
PUBLIC	??$_Destroy@VCvHomelandUnit@@@std@@YAXPAVCvHomelandUnit@@@Z ; std::_Destroy<CvHomelandUnit>
; Function compile flags: /Ogtpy
; File s:\msvs2008\vc\include\xmemory
;	COMDAT ??$_Destroy@VCvHomelandUnit@@@std@@YAXPAVCvHomelandUnit@@@Z
_TEXT	SEGMENT
__Ptr$ = 8						; size = 4
??$_Destroy@VCvHomelandUnit@@@std@@YAXPAVCvHomelandUnit@@@Z PROC ; std::_Destroy<CvHomelandUnit>, COMDAT

; 59   : 	_DESTRUCTOR(_Ty, _Ptr);
; 60   : 	}

	ret	0
??$_Destroy@VCvHomelandUnit@@@std@@YAXPAVCvHomelandUnit@@@Z ENDP ; std::_Destroy<CvHomelandUnit>
_TEXT	ENDS
PUBLIC	??$return_temporary_buffer@VCvHomelandUnit@@@std@@YAXPAVCvHomelandUnit@@@Z ; std::return_temporary_buffer<CvHomelandUnit>
; Function compile flags: /Ogtpy
; File s:\msvs2008\vc\include\memory
;	COMDAT ??$return_temporary_buffer@VCvHomelandUnit@@@std@@YAXPAVCvHomelandUnit@@@Z
_TEXT	SEGMENT
__Pbuf$ = 8						; size = 4
??$return_temporary_buffer@VCvHomelandUnit@@@std@@YAXPAVCvHomelandUnit@@@Z PROC ; std::return_temporary_buffer<CvHomelandUnit>, COMDAT

; 39   : 	operator delete(_Pbuf);

	jmp	??3@YAXPAX@Z				; operator delete
??$return_temporary_buffer@VCvHomelandUnit@@@std@@YAXPAVCvHomelandUnit@@@Z ENDP ; std::return_temporary_buffer<CvHomelandUnit>
_TEXT	ENDS
PUBLIC	??MWeightedElement@?$CvWeightedVector@PAVCvPlot@@$0GE@$00@@QBE_NABU01@@Z ; CvWeightedVector<CvPlot *,100,1>::WeightedElement::operator<
; Function compile flags: /Ogtpy
; File s:\lekmod_dll\cvgamecoredllutil\include\cvweightedvector.h
;	COMDAT ??MWeightedElement@?$CvWeightedVector@PAVCvPlot@@$0GE@$00@@QBE_NABU01@@Z
_TEXT	SEGMENT
_b2$ = 8						; size = 4
??MWeightedElement@?$CvWeightedVector@PAVCvPlot@@$0GE@$00@@QBE_NABU01@@Z PROC ; CvWeightedVector<CvPlot *,100,1>::WeightedElement::operator<, COMDAT
; _this$ = ecx

; 45   : 			// Reverse of the normal direction because we want highest weight first in our list
; 46   : 			return m_iWeight > b2.m_iWeight;

	mov	eax, DWORD PTR [ecx+4]
	mov	edx, DWORD PTR _b2$[esp-4]
	xor	ecx, ecx
	cmp	eax, DWORD PTR [edx+4]
	setg	cl
	mov	al, cl

; 47   : 		};

	ret	4
??MWeightedElement@?$CvWeightedVector@PAVCvPlot@@$0GE@$00@@QBE_NABU01@@Z ENDP ; CvWeightedVector<CvPlot *,100,1>::WeightedElement::operator<
_TEXT	ENDS
PUBLIC	??MWeightedElement@?$CvWeightedVector@PAVCvCity@@$0EA@$00@@QBE_NABU01@@Z ; CvWeightedVector<CvCity *,64,1>::WeightedElement::operator<
; Function compile flags: /Ogtpy
;	COMDAT ??MWeightedElement@?$CvWeightedVector@PAVCvCity@@$0EA@$00@@QBE_NABU01@@Z
_TEXT	SEGMENT
_b2$ = 8						; size = 4
??MWeightedElement@?$CvWeightedVector@PAVCvCity@@$0EA@$00@@QBE_NABU01@@Z PROC ; CvWeightedVector<CvCity *,64,1>::WeightedElement::operator<, COMDAT
; _this$ = ecx

; 45   : 			// Reverse of the normal direction because we want highest weight first in our list
; 46   : 			return m_iWeight > b2.m_iWeight;

	mov	eax, DWORD PTR [ecx+4]
	mov	edx, DWORD PTR _b2$[esp-4]
	xor	ecx, ecx
	cmp	eax, DWORD PTR [edx+4]
	setg	cl
	mov	al, cl

; 47   : 		};

	ret	4
??MWeightedElement@?$CvWeightedVector@PAVCvCity@@$0EA@$00@@QBE_NABU01@@Z ENDP ; CvWeightedVector<CvCity *,64,1>::WeightedElement::operator<
_TEXT	ENDS
PUBLIC	?getAI_GOLD_PRIORITY_UPGRADE_BASE@CvGlobals@@QAEHXZ ; CvGlobals::getAI_GOLD_PRIORITY_UPGRADE_BASE
; Function compile flags: /Ogtpy
; File s:\lekmod_dll\cvgamecoredll_expansion2\cvglobals.h
;	COMDAT ?getAI_GOLD_PRIORITY_UPGRADE_BASE@CvGlobals@@QAEHXZ
_TEXT	SEGMENT
?getAI_GOLD_PRIORITY_UPGRADE_BASE@CvGlobals@@QAEHXZ PROC ; CvGlobals::getAI_GOLD_PRIORITY_UPGRADE_BASE, COMDAT
; _this$ = ecx

; 1141 : 		return m_iAI_GOLD_PRIORITY_UPGRADE_BASE;

	mov	eax, DWORD PTR [ecx+2076]

; 1142 : 	}

	ret	0
?getAI_GOLD_PRIORITY_UPGRADE_BASE@CvGlobals@@QAEHXZ ENDP ; CvGlobals::getAI_GOLD_PRIORITY_UPGRADE_BASE
_TEXT	ENDS
PUBLIC	??0?$pair@PAU?$pair@HPAVCvPlot@@@std@@PAU12@@std@@QAE@ABQAU?$pair@HPAVCvPlot@@@1@0@Z ; std::pair<std::pair<int,CvPlot *> *,std::pair<int,CvPlot *> *>::pair<std::pair<int,CvPlot *> *,std::pair<int,CvPlot *> *>
; Function compile flags: /Ogtpy
; File s:\msvs2008\vc\include\utility
;	COMDAT ??0?$pair@PAU?$pair@HPAVCvPlot@@@std@@PAU12@@std@@QAE@ABQAU?$pair@HPAVCvPlot@@@1@0@Z
_TEXT	SEGMENT
__Val1$ = 8						; size = 4
__Val2$ = 12						; size = 4
??0?$pair@PAU?$pair@HPAVCvPlot@@@std@@PAU12@@std@@QAE@ABQAU?$pair@HPAVCvPlot@@@1@0@Z PROC ; std::pair<std::pair<int,CvPlot *> *,std::pair<int,CvPlot *> *>::pair<std::pair<int,CvPlot *> *,std::pair<int,CvPlot *> *>, COMDAT
; _this$ = ecx

; 50   : 		{	// construct from specified values

	mov	eax, ecx
	mov	ecx, DWORD PTR __Val1$[esp-4]
	mov	edx, DWORD PTR [ecx]
	mov	ecx, DWORD PTR __Val2$[esp-4]
	mov	DWORD PTR [eax], edx
	mov	edx, DWORD PTR [ecx]
	mov	DWORD PTR [eax+4], edx

; 51   : 		}

	ret	8
??0?$pair@PAU?$pair@HPAVCvPlot@@@std@@PAU12@@std@@QAE@ABQAU?$pair@HPAVCvPlot@@@1@0@Z ENDP ; std::pair<std::pair<int,CvPlot *> *,std::pair<int,CvPlot *> *>::pair<std::pair<int,CvPlot *> *,std::pair<int,CvPlot *> *>
_TEXT	ENDS
PUBLIC	?getAI_GOLD_PRIORITY_UPGRADE_PER_FLAVOR_POINT@CvGlobals@@QAEHXZ ; CvGlobals::getAI_GOLD_PRIORITY_UPGRADE_PER_FLAVOR_POINT
; Function compile flags: /Ogtpy
; File s:\lekmod_dll\cvgamecoredll_expansion2\cvglobals.h
;	COMDAT ?getAI_GOLD_PRIORITY_UPGRADE_PER_FLAVOR_POINT@CvGlobals@@QAEHXZ
_TEXT	SEGMENT
?getAI_GOLD_PRIORITY_UPGRADE_PER_FLAVOR_POINT@CvGlobals@@QAEHXZ PROC ; CvGlobals::getAI_GOLD_PRIORITY_UPGRADE_PER_FLAVOR_POINT, COMDAT
; _this$ = ecx

; 1145 : 		return m_iAI_GOLD_PRIORITY_UPGRADE_PER_FLAVOR_POINT;

	mov	eax, DWORD PTR [ecx+2080]

; 1146 : 	}

	ret	0
?getAI_GOLD_PRIORITY_UPGRADE_PER_FLAVOR_POINT@CvGlobals@@QAEHXZ ENDP ; CvGlobals::getAI_GOLD_PRIORITY_UPGRADE_PER_FLAVOR_POINT
_TEXT	ENDS
PUBLIC	??0?$pair@PAUWeightedElement@?$CvWeightedVector@PAVCvPlot@@$0GE@$00@@PAU12@@std@@QAE@ABQAUWeightedElement@?$CvWeightedVector@PAVCvPlot@@$0GE@$00@@0@Z ; std::pair<CvWeightedVector<CvPlot *,100,1>::WeightedElement *,CvWeightedVector<CvPlot *,100,1>::WeightedElement *>::pair<CvWeightedVector<CvPlot *,100,1>::WeightedElement *,CvWeightedVector<CvPlot *,100,1>::WeightedElement *>
; Function compile flags: /Ogtpy
; File s:\msvs2008\vc\include\utility
;	COMDAT ??0?$pair@PAUWeightedElement@?$CvWeightedVector@PAVCvPlot@@$0GE@$00@@PAU12@@std@@QAE@ABQAUWeightedElement@?$CvWeightedVector@PAVCvPlot@@$0GE@$00@@0@Z
_TEXT	SEGMENT
__Val1$ = 8						; size = 4
__Val2$ = 12						; size = 4
??0?$pair@PAUWeightedElement@?$CvWeightedVector@PAVCvPlot@@$0GE@$00@@PAU12@@std@@QAE@ABQAUWeightedElement@?$CvWeightedVector@PAVCvPlot@@$0GE@$00@@0@Z PROC ; std::pair<CvWeightedVector<CvPlot *,100,1>::WeightedElement *,CvWeightedVector<CvPlot *,100,1>::WeightedElement *>::pair<CvWeightedVector<CvPlot *,100,1>::WeightedElement *,CvWeightedVector<CvPlot *,100,1>::WeightedElement *>, COMDAT
; _this$ = ecx

; 50   : 		{	// construct from specified values

	mov	eax, ecx
	mov	ecx, DWORD PTR __Val1$[esp-4]
	mov	edx, DWORD PTR [ecx]
	mov	ecx, DWORD PTR __Val2$[esp-4]
	mov	DWORD PTR [eax], edx
	mov	edx, DWORD PTR [ecx]
	mov	DWORD PTR [eax+4], edx

; 51   : 		}

	ret	8
??0?$pair@PAUWeightedElement@?$CvWeightedVector@PAVCvPlot@@$0GE@$00@@PAU12@@std@@QAE@ABQAUWeightedElement@?$CvWeightedVector@PAVCvPlot@@$0GE@$00@@0@Z ENDP ; std::pair<CvWeightedVector<CvPlot *,100,1>::WeightedElement *,CvWeightedVector<CvPlot *,100,1>::WeightedElement *>::pair<CvWeightedVector<CvPlot *,100,1>::WeightedElement *,CvWeightedVector<CvPlot *,100,1>::WeightedElement *>
_TEXT	ENDS
PUBLIC	??0?$pair@PAUWeightedElement@?$CvWeightedVector@PAVCvCity@@$0EA@$00@@PAU12@@std@@QAE@ABQAUWeightedElement@?$CvWeightedVector@PAVCvCity@@$0EA@$00@@0@Z ; std::pair<CvWeightedVector<CvCity *,64,1>::WeightedElement *,CvWeightedVector<CvCity *,64,1>::WeightedElement *>::pair<CvWeightedVector<CvCity *,64,1>::WeightedElement *,CvWeightedVector<CvCity *,64,1>::WeightedElement *>
; Function compile flags: /Ogtpy
;	COMDAT ??0?$pair@PAUWeightedElement@?$CvWeightedVector@PAVCvCity@@$0EA@$00@@PAU12@@std@@QAE@ABQAUWeightedElement@?$CvWeightedVector@PAVCvCity@@$0EA@$00@@0@Z
_TEXT	SEGMENT
__Val1$ = 8						; size = 4
__Val2$ = 12						; size = 4
??0?$pair@PAUWeightedElement@?$CvWeightedVector@PAVCvCity@@$0EA@$00@@PAU12@@std@@QAE@ABQAUWeightedElement@?$CvWeightedVector@PAVCvCity@@$0EA@$00@@0@Z PROC ; std::pair<CvWeightedVector<CvCity *,64,1>::WeightedElement *,CvWeightedVector<CvCity *,64,1>::WeightedElement *>::pair<CvWeightedVector<CvCity *,64,1>::WeightedElement *,CvWeightedVector<CvCity *,64,1>::WeightedElement *>, COMDAT
; _this$ = ecx

; 50   : 		{	// construct from specified values

	mov	eax, ecx
	mov	ecx, DWORD PTR __Val1$[esp-4]
	mov	edx, DWORD PTR [ecx]
	mov	ecx, DWORD PTR __Val2$[esp-4]
	mov	DWORD PTR [eax], edx
	mov	edx, DWORD PTR [ecx]
	mov	DWORD PTR [eax+4], edx

; 51   : 		}

	ret	8
??0?$pair@PAUWeightedElement@?$CvWeightedVector@PAVCvCity@@$0EA@$00@@PAU12@@std@@QAE@ABQAUWeightedElement@?$CvWeightedVector@PAVCvCity@@$0EA@$00@@0@Z ENDP ; std::pair<CvWeightedVector<CvCity *,64,1>::WeightedElement *,CvWeightedVector<CvCity *,64,1>::WeightedElement *>::pair<CvWeightedVector<CvCity *,64,1>::WeightedElement *,CvWeightedVector<CvCity *,64,1>::WeightedElement *>
_TEXT	ENDS
PUBLIC	??$_Dist_type@PAU?$pair@HPAVCvPlot@@@std@@@std@@YAPAHPAU?$pair@HPAVCvPlot@@@0@@Z ; std::_Dist_type<std::pair<int,CvPlot *> *>
; Function compile flags: /Ogtpy
; File s:\msvs2008\vc\include\xutility
;	COMDAT ??$_Dist_type@PAU?$pair@HPAVCvPlot@@@std@@@std@@YAPAHPAU?$pair@HPAVCvPlot@@@0@@Z
_TEXT	SEGMENT
___formal$ = 8						; size = 4
??$_Dist_type@PAU?$pair@HPAVCvPlot@@@std@@@std@@YAPAHPAU?$pair@HPAVCvPlot@@@0@@Z PROC ; std::_Dist_type<std::pair<int,CvPlot *> *>, COMDAT

; 1831 : 	return (0);

	xor	eax, eax

; 1832 : 	}

	ret	0
??$_Dist_type@PAU?$pair@HPAVCvPlot@@@std@@@std@@YAPAHPAU?$pair@HPAVCvPlot@@@0@@Z ENDP ; std::_Dist_type<std::pair<int,CvPlot *> *>
_TEXT	ENDS
PUBLIC	??$_Val_type@PAU?$pair@HPAVCvPlot@@@std@@@std@@YAPAU?$pair@HPAVCvPlot@@@0@PAU10@@Z ; std::_Val_type<std::pair<int,CvPlot *> *>
; Function compile flags: /Ogtpy
;	COMDAT ??$_Val_type@PAU?$pair@HPAVCvPlot@@@std@@@std@@YAPAU?$pair@HPAVCvPlot@@@0@PAU10@@Z
_TEXT	SEGMENT
___formal$ = 8						; size = 4
??$_Val_type@PAU?$pair@HPAVCvPlot@@@std@@@std@@YAPAU?$pair@HPAVCvPlot@@@0@PAU10@@Z PROC ; std::_Val_type<std::pair<int,CvPlot *> *>, COMDAT

; 1766 : 	return (0);

	xor	eax, eax

; 1767 : 	}

	ret	0
??$_Val_type@PAU?$pair@HPAVCvPlot@@@std@@@std@@YAPAU?$pair@HPAVCvPlot@@@0@PAU10@@Z ENDP ; std::_Val_type<std::pair<int,CvPlot *> *>
_TEXT	ENDS
PUBLIC	?getAI_MILITARY_CITY_THREAT_WEIGHT_CAPITAL@CvGlobals@@QAEHXZ ; CvGlobals::getAI_MILITARY_CITY_THREAT_WEIGHT_CAPITAL
; Function compile flags: /Ogtpy
; File s:\lekmod_dll\cvgamecoredll_expansion2\cvglobals.h
;	COMDAT ?getAI_MILITARY_CITY_THREAT_WEIGHT_CAPITAL@CvGlobals@@QAEHXZ
_TEXT	SEGMENT
?getAI_MILITARY_CITY_THREAT_WEIGHT_CAPITAL@CvGlobals@@QAEHXZ PROC ; CvGlobals::getAI_MILITARY_CITY_THREAT_WEIGHT_CAPITAL, COMDAT
; _this$ = ecx

; 1253 : 		return m_iAI_MILITARY_CITY_THREAT_WEIGHT_CAPITAL;

	mov	eax, DWORD PTR [ecx+2188]

; 1254 : 	}

	ret	0
?getAI_MILITARY_CITY_THREAT_WEIGHT_CAPITAL@CvGlobals@@QAEHXZ ENDP ; CvGlobals::getAI_MILITARY_CITY_THREAT_WEIGHT_CAPITAL
_TEXT	ENDS
PUBLIC	??$_Iter_cat@PAVCvHomelandMove@@@std@@YA?AUrandom_access_iterator_tag@0@ABQAVCvHomelandMove@@@Z ; std::_Iter_cat<CvHomelandMove *>
; Function compile flags: /Ogtpy
; File s:\msvs2008\vc\include\xutility
;	COMDAT ??$_Iter_cat@PAVCvHomelandMove@@@std@@YA?AUrandom_access_iterator_tag@0@ABQAVCvHomelandMove@@@Z
_TEXT	SEGMENT
___$ReturnUdt$ = 8					; size = 4
___formal$ = 12						; size = 4
??$_Iter_cat@PAVCvHomelandMove@@@std@@YA?AUrandom_access_iterator_tag@0@ABQAVCvHomelandMove@@@Z PROC ; std::_Iter_cat<CvHomelandMove *>, COMDAT

; 953  : 	typename iterator_traits<_Iter>::iterator_category _Cat;
; 954  : 	return (_Cat);

	mov	eax, DWORD PTR ___$ReturnUdt$[esp-4]

; 955  : 	}

	ret	0
??$_Iter_cat@PAVCvHomelandMove@@@std@@YA?AUrandom_access_iterator_tag@0@ABQAVCvHomelandMove@@@Z ENDP ; std::_Iter_cat<CvHomelandMove *>
_TEXT	ENDS
PUBLIC	??$_Distance2@PAVCvHomelandMove@@H@std@@YAXPAVCvHomelandMove@@0AAHUrandom_access_iterator_tag@0@@Z ; std::_Distance2<CvHomelandMove *,int>
; Function compile flags: /Ogtpy
;	COMDAT ??$_Distance2@PAVCvHomelandMove@@H@std@@YAXPAVCvHomelandMove@@0AAHUrandom_access_iterator_tag@0@@Z
_TEXT	SEGMENT
__First$ = 8						; size = 4
__Last$ = 12						; size = 4
__Off$ = 16						; size = 4
___formal$ = 20						; size = 1
??$_Distance2@PAVCvHomelandMove@@H@std@@YAXPAVCvHomelandMove@@0AAHUrandom_access_iterator_tag@0@@Z PROC ; std::_Distance2<CvHomelandMove *,int>, COMDAT

; 1867 : 
; 1868 :  #if _HAS_ITERATOR_DEBUGGING
; 1869 : 	if (_First != _Last)
; 1870 : 		{	// check for null pointers
; 1871 : 		_DEBUG_POINTER(_First);
; 1872 : 		_DEBUG_POINTER(_Last);
; 1873 : 		}
; 1874 :  #endif /* _HAS_ITERATOR_DEBUGGING */
; 1875 : 
; 1876 : 	_Off += _Last - _First;

	mov	ecx, DWORD PTR __Last$[esp-4]
	sub	ecx, DWORD PTR __First$[esp-4]
	mov	eax, DWORD PTR __Off$[esp-4]
	sar	ecx, 3
	add	DWORD PTR [eax], ecx

; 1877 : 	}

	ret	0
??$_Distance2@PAVCvHomelandMove@@H@std@@YAXPAVCvHomelandMove@@0AAHUrandom_access_iterator_tag@0@@Z ENDP ; std::_Distance2<CvHomelandMove *,int>
_TEXT	ENDS
PUBLIC	??$_Iter_cat@V?$_Vector_iterator@VCvHomelandTarget@@V?$allocator@VCvHomelandTarget@@@std@@@std@@@std@@YA?AUrandom_access_iterator_tag@0@ABV?$_Vector_iterator@VCvHomelandTarget@@V?$allocator@VCvHomelandTarget@@@std@@@0@@Z ; std::_Iter_cat<std::_Vector_iterator<CvHomelandTarget,std::allocator<CvHomelandTarget> > >
; Function compile flags: /Ogtpy
;	COMDAT ??$_Iter_cat@V?$_Vector_iterator@VCvHomelandTarget@@V?$allocator@VCvHomelandTarget@@@std@@@std@@@std@@YA?AUrandom_access_iterator_tag@0@ABV?$_Vector_iterator@VCvHomelandTarget@@V?$allocator@VCvHomelandTarget@@@std@@@0@@Z
_TEXT	SEGMENT
___$ReturnUdt$ = 8					; size = 4
___formal$ = 12						; size = 4
??$_Iter_cat@V?$_Vector_iterator@VCvHomelandTarget@@V?$allocator@VCvHomelandTarget@@@std@@@std@@@std@@YA?AUrandom_access_iterator_tag@0@ABV?$_Vector_iterator@VCvHomelandTarget@@V?$allocator@VCvHomelandTarget@@@std@@@0@@Z PROC ; std::_Iter_cat<std::_Vector_iterator<CvHomelandTarget,std::allocator<CvHomelandTarget> > >, COMDAT

; 953  : 	typename iterator_traits<_Iter>::iterator_category _Cat;
; 954  : 	return (_Cat);

	mov	eax, DWORD PTR ___$ReturnUdt$[esp-4]

; 955  : 	}

	ret	0
??$_Iter_cat@V?$_Vector_iterator@VCvHomelandTarget@@V?$allocator@VCvHomelandTarget@@@std@@@std@@@std@@YA?AUrandom_access_iterator_tag@0@ABV?$_Vector_iterator@VCvHomelandTarget@@V?$allocator@VCvHomelandTarget@@@std@@@0@@Z ENDP ; std::_Iter_cat<std::_Vector_iterator<CvHomelandTarget,std::allocator<CvHomelandTarget> > >
_TEXT	ENDS
PUBLIC	??$_Iter_cat@PAVCvHomelandUnit@@@std@@YA?AUrandom_access_iterator_tag@0@ABQAVCvHomelandUnit@@@Z ; std::_Iter_cat<CvHomelandUnit *>
; Function compile flags: /Ogtpy
;	COMDAT ??$_Iter_cat@PAVCvHomelandUnit@@@std@@YA?AUrandom_access_iterator_tag@0@ABQAVCvHomelandUnit@@@Z
_TEXT	SEGMENT
___$ReturnUdt$ = 8					; size = 4
___formal$ = 12						; size = 4
??$_Iter_cat@PAVCvHomelandUnit@@@std@@YA?AUrandom_access_iterator_tag@0@ABQAVCvHomelandUnit@@@Z PROC ; std::_Iter_cat<CvHomelandUnit *>, COMDAT

; 953  : 	typename iterator_traits<_Iter>::iterator_category _Cat;
; 954  : 	return (_Cat);

	mov	eax, DWORD PTR ___$ReturnUdt$[esp-4]

; 955  : 	}

	ret	0
??$_Iter_cat@PAVCvHomelandUnit@@@std@@YA?AUrandom_access_iterator_tag@0@ABQAVCvHomelandUnit@@@Z ENDP ; std::_Iter_cat<CvHomelandUnit *>
_TEXT	ENDS
PUBLIC	??$_Distance2@PAVCvHomelandUnit@@H@std@@YAXPAVCvHomelandUnit@@0AAHUrandom_access_iterator_tag@0@@Z ; std::_Distance2<CvHomelandUnit *,int>
; Function compile flags: /Ogtpy
;	COMDAT ??$_Distance2@PAVCvHomelandUnit@@H@std@@YAXPAVCvHomelandUnit@@0AAHUrandom_access_iterator_tag@0@@Z
_TEXT	SEGMENT
__First$ = 8						; size = 4
__Last$ = 12						; size = 4
__Off$ = 16						; size = 4
___formal$ = 20						; size = 1
??$_Distance2@PAVCvHomelandUnit@@H@std@@YAXPAVCvHomelandUnit@@0AAHUrandom_access_iterator_tag@0@@Z PROC ; std::_Distance2<CvHomelandUnit *,int>, COMDAT

; 1867 : 
; 1868 :  #if _HAS_ITERATOR_DEBUGGING
; 1869 : 	if (_First != _Last)
; 1870 : 		{	// check for null pointers
; 1871 : 		_DEBUG_POINTER(_First);
; 1872 : 		_DEBUG_POINTER(_Last);
; 1873 : 		}
; 1874 :  #endif /* _HAS_ITERATOR_DEBUGGING */
; 1875 : 
; 1876 : 	_Off += _Last - _First;

	mov	ecx, DWORD PTR __Last$[esp-4]
	sub	ecx, DWORD PTR __First$[esp-4]
	mov	eax, DWORD PTR __Off$[esp-4]
	sar	ecx, 4
	add	DWORD PTR [eax], ecx

; 1877 : 	}

	ret	0
??$_Distance2@PAVCvHomelandUnit@@H@std@@YAXPAVCvHomelandUnit@@0AAHUrandom_access_iterator_tag@0@@Z ENDP ; std::_Distance2<CvHomelandUnit *,int>
_TEXT	ENDS
PUBLIC	?getAI_HOMELAND_MOVE_PRIORITY_RANDOMNESS@CvGlobals@@QAEHXZ ; CvGlobals::getAI_HOMELAND_MOVE_PRIORITY_RANDOMNESS
; Function compile flags: /Ogtpy
; File s:\lekmod_dll\cvgamecoredll_expansion2\cvglobals.h
;	COMDAT ?getAI_HOMELAND_MOVE_PRIORITY_RANDOMNESS@CvGlobals@@QAEHXZ
_TEXT	SEGMENT
?getAI_HOMELAND_MOVE_PRIORITY_RANDOMNESS@CvGlobals@@QAEHXZ PROC ; CvGlobals::getAI_HOMELAND_MOVE_PRIORITY_RANDOMNESS, COMDAT
; _this$ = ecx

; 1625 : 		return m_iAI_HOMELAND_MOVE_PRIORITY_RANDOMNESS;

	mov	eax, DWORD PTR [ecx+2560]

; 1626 : 	}

	ret	0
?getAI_HOMELAND_MOVE_PRIORITY_RANDOMNESS@CvGlobals@@QAEHXZ ENDP ; CvGlobals::getAI_HOMELAND_MOVE_PRIORITY_RANDOMNESS
_TEXT	ENDS
PUBLIC	?getAI_HOMELAND_MAX_UPGRADE_MOVE_TURNS@CvGlobals@@QAEHXZ ; CvGlobals::getAI_HOMELAND_MAX_UPGRADE_MOVE_TURNS
; Function compile flags: /Ogtpy
;	COMDAT ?getAI_HOMELAND_MAX_UPGRADE_MOVE_TURNS@CvGlobals@@QAEHXZ
_TEXT	SEGMENT
?getAI_HOMELAND_MAX_UPGRADE_MOVE_TURNS@CvGlobals@@QAEHXZ PROC ; CvGlobals::getAI_HOMELAND_MAX_UPGRADE_MOVE_TURNS, COMDAT
; _this$ = ecx

; 1629 : 		return m_iAI_HOMELAND_MAX_UPGRADE_MOVE_TURNS;

	mov	eax, DWORD PTR [ecx+2564]

; 1630 : 	}

	ret	0
?getAI_HOMELAND_MAX_UPGRADE_MOVE_TURNS@CvGlobals@@QAEHXZ ENDP ; CvGlobals::getAI_HOMELAND_MAX_UPGRADE_MOVE_TURNS
_TEXT	ENDS
PUBLIC	?getAI_HOMELAND_MAX_DEFENSIVE_MOVE_TURNS@CvGlobals@@QAEHXZ ; CvGlobals::getAI_HOMELAND_MAX_DEFENSIVE_MOVE_TURNS
; Function compile flags: /Ogtpy
;	COMDAT ?getAI_HOMELAND_MAX_DEFENSIVE_MOVE_TURNS@CvGlobals@@QAEHXZ
_TEXT	SEGMENT
?getAI_HOMELAND_MAX_DEFENSIVE_MOVE_TURNS@CvGlobals@@QAEHXZ PROC ; CvGlobals::getAI_HOMELAND_MAX_DEFENSIVE_MOVE_TURNS, COMDAT
; _this$ = ecx

; 1633 : 		return m_iAI_HOMELAND_MAX_DEFENSIVE_MOVE_TURNS;

	mov	eax, DWORD PTR [ecx+2568]

; 1634 : 	}

	ret	0
?getAI_HOMELAND_MAX_DEFENSIVE_MOVE_TURNS@CvGlobals@@QAEHXZ ENDP ; CvGlobals::getAI_HOMELAND_MAX_DEFENSIVE_MOVE_TURNS
_TEXT	ENDS
PUBLIC	?getAI_HOMELAND_ESTIMATE_TURNS_DISTANCE@CvGlobals@@QAEHXZ ; CvGlobals::getAI_HOMELAND_ESTIMATE_TURNS_DISTANCE
; Function compile flags: /Ogtpy
;	COMDAT ?getAI_HOMELAND_ESTIMATE_TURNS_DISTANCE@CvGlobals@@QAEHXZ
_TEXT	SEGMENT
?getAI_HOMELAND_ESTIMATE_TURNS_DISTANCE@CvGlobals@@QAEHXZ PROC ; CvGlobals::getAI_HOMELAND_ESTIMATE_TURNS_DISTANCE, COMDAT
; _this$ = ecx

; 1637 : 		return m_iAI_HOMELAND_ESTIMATE_TURNS_DISTANCE;

	mov	eax, DWORD PTR [ecx+2572]

; 1638 : 	}

	ret	0
?getAI_HOMELAND_ESTIMATE_TURNS_DISTANCE@CvGlobals@@QAEHXZ ENDP ; CvGlobals::getAI_HOMELAND_ESTIMATE_TURNS_DISTANCE
_TEXT	ENDS
PUBLIC	?getAI_HOMELAND_MOVE_PRIORITY_SETTLE@CvGlobals@@QAEHXZ ; CvGlobals::getAI_HOMELAND_MOVE_PRIORITY_SETTLE
; Function compile flags: /Ogtpy
;	COMDAT ?getAI_HOMELAND_MOVE_PRIORITY_SETTLE@CvGlobals@@QAEHXZ
_TEXT	SEGMENT
?getAI_HOMELAND_MOVE_PRIORITY_SETTLE@CvGlobals@@QAEHXZ PROC ; CvGlobals::getAI_HOMELAND_MOVE_PRIORITY_SETTLE, COMDAT
; _this$ = ecx

; 1641 : 		return m_iAI_HOMELAND_MOVE_PRIORITY_SETTLE;

	mov	eax, DWORD PTR [ecx+2576]

; 1642 : 	}

	ret	0
?getAI_HOMELAND_MOVE_PRIORITY_SETTLE@CvGlobals@@QAEHXZ ENDP ; CvGlobals::getAI_HOMELAND_MOVE_PRIORITY_SETTLE
_TEXT	ENDS
PUBLIC	?getAI_HOMELAND_MOVE_PRIORITY_HEAL@CvGlobals@@QAEHXZ ; CvGlobals::getAI_HOMELAND_MOVE_PRIORITY_HEAL
; Function compile flags: /Ogtpy
;	COMDAT ?getAI_HOMELAND_MOVE_PRIORITY_HEAL@CvGlobals@@QAEHXZ
_TEXT	SEGMENT
?getAI_HOMELAND_MOVE_PRIORITY_HEAL@CvGlobals@@QAEHXZ PROC ; CvGlobals::getAI_HOMELAND_MOVE_PRIORITY_HEAL, COMDAT
; _this$ = ecx

; 1645 : 		return m_iAI_HOMELAND_MOVE_PRIORITY_HEAL;

	mov	eax, DWORD PTR [ecx+2580]

; 1646 : 	}

	ret	0
?getAI_HOMELAND_MOVE_PRIORITY_HEAL@CvGlobals@@QAEHXZ ENDP ; CvGlobals::getAI_HOMELAND_MOVE_PRIORITY_HEAL
_TEXT	ENDS
PUBLIC	?getAI_HOMELAND_MOVE_PRIORITY_TO_SAFETY@CvGlobals@@QAEHXZ ; CvGlobals::getAI_HOMELAND_MOVE_PRIORITY_TO_SAFETY
; Function compile flags: /Ogtpy
;	COMDAT ?getAI_HOMELAND_MOVE_PRIORITY_TO_SAFETY@CvGlobals@@QAEHXZ
_TEXT	SEGMENT
?getAI_HOMELAND_MOVE_PRIORITY_TO_SAFETY@CvGlobals@@QAEHXZ PROC ; CvGlobals::getAI_HOMELAND_MOVE_PRIORITY_TO_SAFETY, COMDAT
; _this$ = ecx

; 1649 : 		return m_iAI_HOMELAND_MOVE_PRIORITY_TO_SAFETY;

	mov	eax, DWORD PTR [ecx+2584]

; 1650 : 	}

	ret	0
?getAI_HOMELAND_MOVE_PRIORITY_TO_SAFETY@CvGlobals@@QAEHXZ ENDP ; CvGlobals::getAI_HOMELAND_MOVE_PRIORITY_TO_SAFETY
_TEXT	ENDS
PUBLIC	?getAI_HOMELAND_MOVE_PRIORITY_WORKER@CvGlobals@@QAEHXZ ; CvGlobals::getAI_HOMELAND_MOVE_PRIORITY_WORKER
; Function compile flags: /Ogtpy
;	COMDAT ?getAI_HOMELAND_MOVE_PRIORITY_WORKER@CvGlobals@@QAEHXZ
_TEXT	SEGMENT
?getAI_HOMELAND_MOVE_PRIORITY_WORKER@CvGlobals@@QAEHXZ PROC ; CvGlobals::getAI_HOMELAND_MOVE_PRIORITY_WORKER, COMDAT
; _this$ = ecx

; 1653 : 		return m_iAI_HOMELAND_MOVE_PRIORITY_WORKER;

	mov	eax, DWORD PTR [ecx+2588]

; 1654 : 	}

	ret	0
?getAI_HOMELAND_MOVE_PRIORITY_WORKER@CvGlobals@@QAEHXZ ENDP ; CvGlobals::getAI_HOMELAND_MOVE_PRIORITY_WORKER
_TEXT	ENDS
PUBLIC	?getAI_HOMELAND_MOVE_PRIORITY_WORKER_SEA@CvGlobals@@QAEHXZ ; CvGlobals::getAI_HOMELAND_MOVE_PRIORITY_WORKER_SEA
; Function compile flags: /Ogtpy
;	COMDAT ?getAI_HOMELAND_MOVE_PRIORITY_WORKER_SEA@CvGlobals@@QAEHXZ
_TEXT	SEGMENT
?getAI_HOMELAND_MOVE_PRIORITY_WORKER_SEA@CvGlobals@@QAEHXZ PROC ; CvGlobals::getAI_HOMELAND_MOVE_PRIORITY_WORKER_SEA, COMDAT
; _this$ = ecx

; 1657 : 		return m_iAI_HOMELAND_MOVE_PRIORITY_WORKER_SEA;

	mov	eax, DWORD PTR [ecx+2592]

; 1658 : 	}

	ret	0
?getAI_HOMELAND_MOVE_PRIORITY_WORKER_SEA@CvGlobals@@QAEHXZ ENDP ; CvGlobals::getAI_HOMELAND_MOVE_PRIORITY_WORKER_SEA
_TEXT	ENDS
PUBLIC	?getAI_HOMELAND_MOVE_PRIORITY_EXPLORE@CvGlobals@@QAEHXZ ; CvGlobals::getAI_HOMELAND_MOVE_PRIORITY_EXPLORE
; Function compile flags: /Ogtpy
;	COMDAT ?getAI_HOMELAND_MOVE_PRIORITY_EXPLORE@CvGlobals@@QAEHXZ
_TEXT	SEGMENT
?getAI_HOMELAND_MOVE_PRIORITY_EXPLORE@CvGlobals@@QAEHXZ PROC ; CvGlobals::getAI_HOMELAND_MOVE_PRIORITY_EXPLORE, COMDAT
; _this$ = ecx

; 1661 : 		return m_iAI_HOMELAND_MOVE_PRIORITY_EXPLORE;

	mov	eax, DWORD PTR [ecx+2596]

; 1662 : 	}

	ret	0
?getAI_HOMELAND_MOVE_PRIORITY_EXPLORE@CvGlobals@@QAEHXZ ENDP ; CvGlobals::getAI_HOMELAND_MOVE_PRIORITY_EXPLORE
_TEXT	ENDS
PUBLIC	?getAI_HOMELAND_MOVE_PRIORITY_EXPLORE_SEA@CvGlobals@@QAEHXZ ; CvGlobals::getAI_HOMELAND_MOVE_PRIORITY_EXPLORE_SEA
; Function compile flags: /Ogtpy
;	COMDAT ?getAI_HOMELAND_MOVE_PRIORITY_EXPLORE_SEA@CvGlobals@@QAEHXZ
_TEXT	SEGMENT
?getAI_HOMELAND_MOVE_PRIORITY_EXPLORE_SEA@CvGlobals@@QAEHXZ PROC ; CvGlobals::getAI_HOMELAND_MOVE_PRIORITY_EXPLORE_SEA, COMDAT
; _this$ = ecx

; 1665 : 		return m_iAI_HOMELAND_MOVE_PRIORITY_EXPLORE_SEA;

	mov	eax, DWORD PTR [ecx+2600]

; 1666 : 	}

	ret	0
?getAI_HOMELAND_MOVE_PRIORITY_EXPLORE_SEA@CvGlobals@@QAEHXZ ENDP ; CvGlobals::getAI_HOMELAND_MOVE_PRIORITY_EXPLORE_SEA
_TEXT	ENDS
PUBLIC	?getAI_HOMELAND_MOVE_PRIORITY_SENTRY@CvGlobals@@QAEHXZ ; CvGlobals::getAI_HOMELAND_MOVE_PRIORITY_SENTRY
; Function compile flags: /Ogtpy
;	COMDAT ?getAI_HOMELAND_MOVE_PRIORITY_SENTRY@CvGlobals@@QAEHXZ
_TEXT	SEGMENT
?getAI_HOMELAND_MOVE_PRIORITY_SENTRY@CvGlobals@@QAEHXZ PROC ; CvGlobals::getAI_HOMELAND_MOVE_PRIORITY_SENTRY, COMDAT
; _this$ = ecx

; 1669 : 		return m_iAI_HOMELAND_MOVE_PRIORITY_SENTRY;

	mov	eax, DWORD PTR [ecx+2604]

; 1670 : 	}

	ret	0
?getAI_HOMELAND_MOVE_PRIORITY_SENTRY@CvGlobals@@QAEHXZ ENDP ; CvGlobals::getAI_HOMELAND_MOVE_PRIORITY_SENTRY
_TEXT	ENDS
PUBLIC	?getAI_HOMELAND_MOVE_PRIORITY_MOBILE_RESERVE@CvGlobals@@QAEHXZ ; CvGlobals::getAI_HOMELAND_MOVE_PRIORITY_MOBILE_RESERVE
; Function compile flags: /Ogtpy
;	COMDAT ?getAI_HOMELAND_MOVE_PRIORITY_MOBILE_RESERVE@CvGlobals@@QAEHXZ
_TEXT	SEGMENT
?getAI_HOMELAND_MOVE_PRIORITY_MOBILE_RESERVE@CvGlobals@@QAEHXZ PROC ; CvGlobals::getAI_HOMELAND_MOVE_PRIORITY_MOBILE_RESERVE, COMDAT
; _this$ = ecx

; 1673 : 		return m_iAI_HOMELAND_MOVE_PRIORITY_MOBILE_RESERVE;

	mov	eax, DWORD PTR [ecx+2608]

; 1674 : 	}

	ret	0
?getAI_HOMELAND_MOVE_PRIORITY_MOBILE_RESERVE@CvGlobals@@QAEHXZ ENDP ; CvGlobals::getAI_HOMELAND_MOVE_PRIORITY_MOBILE_RESERVE
_TEXT	ENDS
PUBLIC	?getAI_HOMELAND_MOVE_PRIORITY_GARRISON@CvGlobals@@QAEHXZ ; CvGlobals::getAI_HOMELAND_MOVE_PRIORITY_GARRISON
; Function compile flags: /Ogtpy
;	COMDAT ?getAI_HOMELAND_MOVE_PRIORITY_GARRISON@CvGlobals@@QAEHXZ
_TEXT	SEGMENT
?getAI_HOMELAND_MOVE_PRIORITY_GARRISON@CvGlobals@@QAEHXZ PROC ; CvGlobals::getAI_HOMELAND_MOVE_PRIORITY_GARRISON, COMDAT
; _this$ = ecx

; 1677 : 		return m_iAI_HOMELAND_MOVE_PRIORITY_GARRISON;

	mov	eax, DWORD PTR [ecx+2612]

; 1678 : 	}

	ret	0
?getAI_HOMELAND_MOVE_PRIORITY_GARRISON@CvGlobals@@QAEHXZ ENDP ; CvGlobals::getAI_HOMELAND_MOVE_PRIORITY_GARRISON
_TEXT	ENDS
PUBLIC	?getAI_HOMELAND_MOVE_PRIORITY_PATROL@CvGlobals@@QAEHXZ ; CvGlobals::getAI_HOMELAND_MOVE_PRIORITY_PATROL
; Function compile flags: /Ogtpy
;	COMDAT ?getAI_HOMELAND_MOVE_PRIORITY_PATROL@CvGlobals@@QAEHXZ
_TEXT	SEGMENT
?getAI_HOMELAND_MOVE_PRIORITY_PATROL@CvGlobals@@QAEHXZ PROC ; CvGlobals::getAI_HOMELAND_MOVE_PRIORITY_PATROL, COMDAT
; _this$ = ecx

; 1681 : 		return m_iAI_HOMELAND_MOVE_PRIORITY_PATROL;

	mov	eax, DWORD PTR [ecx+2616]

; 1682 : 	}

	ret	0
?getAI_HOMELAND_MOVE_PRIORITY_PATROL@CvGlobals@@QAEHXZ ENDP ; CvGlobals::getAI_HOMELAND_MOVE_PRIORITY_PATROL
_TEXT	ENDS
PUBLIC	?getAI_HOMELAND_MOVE_PRIORITY_UPGRADE@CvGlobals@@QAEHXZ ; CvGlobals::getAI_HOMELAND_MOVE_PRIORITY_UPGRADE
; Function compile flags: /Ogtpy
;	COMDAT ?getAI_HOMELAND_MOVE_PRIORITY_UPGRADE@CvGlobals@@QAEHXZ
_TEXT	SEGMENT
?getAI_HOMELAND_MOVE_PRIORITY_UPGRADE@CvGlobals@@QAEHXZ PROC ; CvGlobals::getAI_HOMELAND_MOVE_PRIORITY_UPGRADE, COMDAT
; _this$ = ecx

; 1685 : 		return m_iAI_HOMELAND_MOVE_PRIORITY_UPGRADE;

	mov	eax, DWORD PTR [ecx+2620]

; 1686 : 	}

	ret	0
?getAI_HOMELAND_MOVE_PRIORITY_UPGRADE@CvGlobals@@QAEHXZ ENDP ; CvGlobals::getAI_HOMELAND_MOVE_PRIORITY_UPGRADE
_TEXT	ENDS
PUBLIC	?getAI_HOMELAND_MOVE_PRIORITY_ANCIENT_RUINS@CvGlobals@@QAEHXZ ; CvGlobals::getAI_HOMELAND_MOVE_PRIORITY_ANCIENT_RUINS
; Function compile flags: /Ogtpy
;	COMDAT ?getAI_HOMELAND_MOVE_PRIORITY_ANCIENT_RUINS@CvGlobals@@QAEHXZ
_TEXT	SEGMENT
?getAI_HOMELAND_MOVE_PRIORITY_ANCIENT_RUINS@CvGlobals@@QAEHXZ PROC ; CvGlobals::getAI_HOMELAND_MOVE_PRIORITY_ANCIENT_RUINS, COMDAT
; _this$ = ecx

; 1689 : 		return m_iAI_HOMELAND_MOVE_PRIORITY_ANCIENT_RUINS;

	mov	eax, DWORD PTR [ecx+2624]

; 1690 : 	}

	ret	0
?getAI_HOMELAND_MOVE_PRIORITY_ANCIENT_RUINS@CvGlobals@@QAEHXZ ENDP ; CvGlobals::getAI_HOMELAND_MOVE_PRIORITY_ANCIENT_RUINS
_TEXT	ENDS
PUBLIC	?getAI_HOMELAND_MOVE_PRIORITY_GARRISON_CITY_STATE@CvGlobals@@QAEHXZ ; CvGlobals::getAI_HOMELAND_MOVE_PRIORITY_GARRISON_CITY_STATE
; Function compile flags: /Ogtpy
;	COMDAT ?getAI_HOMELAND_MOVE_PRIORITY_GARRISON_CITY_STATE@CvGlobals@@QAEHXZ
_TEXT	SEGMENT
?getAI_HOMELAND_MOVE_PRIORITY_GARRISON_CITY_STATE@CvGlobals@@QAEHXZ PROC ; CvGlobals::getAI_HOMELAND_MOVE_PRIORITY_GARRISON_CITY_STATE, COMDAT
; _this$ = ecx

; 1693 : 		return m_iAI_HOMELAND_MOVE_PRIORITY_GARRISON_CITY_STATE;

	mov	eax, DWORD PTR [ecx+2628]

; 1694 : 	}

	ret	0
?getAI_HOMELAND_MOVE_PRIORITY_GARRISON_CITY_STATE@CvGlobals@@QAEHXZ ENDP ; CvGlobals::getAI_HOMELAND_MOVE_PRIORITY_GARRISON_CITY_STATE
_TEXT	ENDS
PUBLIC	?getAI_HOMELAND_MOVE_PRIORITY_WRITER@CvGlobals@@QAEHXZ ; CvGlobals::getAI_HOMELAND_MOVE_PRIORITY_WRITER
; Function compile flags: /Ogtpy
;	COMDAT ?getAI_HOMELAND_MOVE_PRIORITY_WRITER@CvGlobals@@QAEHXZ
_TEXT	SEGMENT
?getAI_HOMELAND_MOVE_PRIORITY_WRITER@CvGlobals@@QAEHXZ PROC ; CvGlobals::getAI_HOMELAND_MOVE_PRIORITY_WRITER, COMDAT
; _this$ = ecx

; 1697 : 		return m_iAI_HOMELAND_MOVE_PRIORITY_WRITER;

	mov	eax, DWORD PTR [ecx+2632]

; 1698 : 	}

	ret	0
?getAI_HOMELAND_MOVE_PRIORITY_WRITER@CvGlobals@@QAEHXZ ENDP ; CvGlobals::getAI_HOMELAND_MOVE_PRIORITY_WRITER
_TEXT	ENDS
PUBLIC	?getAI_HOMELAND_MOVE_PRIORITY_ARTIST@CvGlobals@@QAEHXZ ; CvGlobals::getAI_HOMELAND_MOVE_PRIORITY_ARTIST
; Function compile flags: /Ogtpy
;	COMDAT ?getAI_HOMELAND_MOVE_PRIORITY_ARTIST@CvGlobals@@QAEHXZ
_TEXT	SEGMENT
