; Listing generated by Microsoft (R) Optimizing Compiler Version 15.00.30729.01 

	TITLE	c:\Users\EnormousApplePie\Documents\GitHub\Lekmod\LEKMOD_DLL\CvGameCoreDLL_Expansion2\CvInfos.cpp
	.686P
	.XMM
	include listing.inc
	.model	flat

INCLUDELIB MSVCRT
INCLUDELIB OLDNAMES

CONST	SEGMENT
$SG218616 DB	'ID', 00H
$SG218809 DB	00H
$SG218617 DB	'Type', 00H
$SG219059 DB	00H
$SG219555 DB	00H
$SG219560 DB	00H
$SG218618 DB	'Text', 00H
$SG219565 DB	00H
$SG219570 DB	00H
$SG219575 DB	00H
$SG218619 DB	'Civilopedia', 00H
$SG218620 DB	'Strategy', 00H
$SG219638 DB	00H
$SG219643 DB	00H
$SG220307 DB	00H
$SG218621 DB	'Help', 00H
$SG220308 DB	00H
	ORG $+2
$SG218622 DB	'DisabledHelp', 00H
	ORG $+3
$SG218626 DB	'Description', 00H
$SG218686 DB	'KB_ESCAPE', 00H
	ORG $+2
$SG218687 DB	'KB_0', 00H
	ORG $+3
$SG218688 DB	'KB_1', 00H
	ORG $+3
$SG218689 DB	'KB_2', 00H
	ORG $+3
$SG218690 DB	'KB_3', 00H
	ORG $+3
$SG218691 DB	'KB_4', 00H
	ORG $+3
$SG218692 DB	'KB_5', 00H
	ORG $+3
$SG218693 DB	'KB_6', 00H
	ORG $+3
$SG218694 DB	'KB_7', 00H
	ORG $+3
$SG218695 DB	'KB_8', 00H
	ORG $+3
$SG218696 DB	'KB_9', 00H
	ORG $+3
$SG218697 DB	'KB_MINUS', 00H
	ORG $+3
$SG218698 DB	'KB_A', 00H
	ORG $+3
$SG218699 DB	'KB_B', 00H
	ORG $+3
$SG218700 DB	'KB_C', 00H
	ORG $+3
$SG218701 DB	'KB_D', 00H
	ORG $+3
$SG218702 DB	'KB_E', 00H
	ORG $+3
$SG218703 DB	'KB_F', 00H
	ORG $+3
$SG218704 DB	'KB_G', 00H
	ORG $+3
$SG218705 DB	'KB_H', 00H
	ORG $+3
$SG218706 DB	'KB_I', 00H
	ORG $+3
$SG218707 DB	'KB_J', 00H
	ORG $+3
$SG218708 DB	'KB_K', 00H
	ORG $+3
$SG218709 DB	'KB_L', 00H
	ORG $+3
$SG218710 DB	'KB_M', 00H
	ORG $+3
$SG218711 DB	'KB_N', 00H
	ORG $+3
$SG218712 DB	'KB_O', 00H
	ORG $+3
$SG218713 DB	'KB_P', 00H
	ORG $+3
$SG218714 DB	'KB_Q', 00H
	ORG $+3
$SG218715 DB	'KB_R', 00H
	ORG $+3
$SG218716 DB	'KB_S', 00H
	ORG $+3
$SG218717 DB	'KB_T', 00H
	ORG $+3
$SG218718 DB	'KB_U', 00H
	ORG $+3
$SG218719 DB	'KB_V', 00H
	ORG $+3
$SG218720 DB	'KB_W', 00H
	ORG $+3
$SG218721 DB	'KB_X', 00H
	ORG $+3
$SG218722 DB	'KB_Y', 00H
	ORG $+3
$SG218723 DB	'KB_Z', 00H
	ORG $+3
$SG218724 DB	'KB_EQUALS', 00H
	ORG $+2
$SG218725 DB	'KB_BACKSPACE', 00H
	ORG $+3
$SG218726 DB	'KB_TAB', 00H
	ORG $+1
$SG218727 DB	'KB_LBRACKET', 00H
$SG218728 DB	'KB_RBRACKET', 00H
$SG218729 DB	'KB_RETURN', 00H
	ORG $+2
$SG218730 DB	'KB_LCONTROL', 00H
$SG218731 DB	'KB_SEMICOLON', 00H
	ORG $+3
$SG218732 DB	'KB_APOSTROPHE', 00H
	ORG $+2
$SG218733 DB	'KB_GRAVE', 00H
	ORG $+3
$SG218734 DB	'KB_LSHIFT', 00H
	ORG $+2
$SG218735 DB	'KB_BACKSLASH', 00H
	ORG $+3
$SG218736 DB	'KB_COMMA', 00H
	ORG $+3
$SG218737 DB	'KB_PERIOD', 00H
	ORG $+2
$SG218738 DB	'KB_SLASH', 00H
	ORG $+3
$SG218739 DB	'KB_RSHIFT', 00H
	ORG $+2
$SG218740 DB	'KB_NUMPADSTAR', 00H
	ORG $+2
$SG218741 DB	'KB_LALT', 00H
$SG218742 DB	'KB_SPACE', 00H
	ORG $+3
$SG218743 DB	'KB_CAPSLOCK', 00H
$SG218744 DB	'KB_F1', 00H
	ORG $+2
$SG218745 DB	'KB_F2', 00H
	ORG $+2
$SG218746 DB	'KB_F3', 00H
	ORG $+2
$SG218747 DB	'KB_F4', 00H
	ORG $+2
$SG218748 DB	'KB_F5', 00H
	ORG $+2
$SG218749 DB	'KB_F6', 00H
	ORG $+2
$SG218750 DB	'KB_F7', 00H
	ORG $+2
$SG218751 DB	'KB_F8', 00H
	ORG $+2
$SG218752 DB	'KB_F9', 00H
	ORG $+2
$SG218753 DB	'KB_F10', 00H
	ORG $+1
$SG218754 DB	'KB_NUMLOCK', 00H
	ORG $+1
$SG218755 DB	'KB_SCROLL', 00H
	ORG $+2
$SG218756 DB	'KB_NUMPAD7', 00H
	ORG $+1
$SG218757 DB	'KB_NUMPAD8', 00H
	ORG $+1
$SG218758 DB	'KB_NUMPAD9', 00H
	ORG $+1
$SG218759 DB	'KB_NUMPADMINUS', 00H
	ORG $+1
$SG218760 DB	'KB_NUMPAD4', 00H
	ORG $+1
$SG218761 DB	'KB_NUMPAD5', 00H
	ORG $+1
$SG218762 DB	'KB_NUMPAD6', 00H
	ORG $+1
$SG218763 DB	'KB_NUMPADPLUS', 00H
	ORG $+2
$SG218764 DB	'KB_NUMPAD1', 00H
	ORG $+1
$SG218765 DB	'KB_NUMPAD2', 00H
	ORG $+1
$SG218766 DB	'KB_NUMPAD3', 00H
	ORG $+1
$SG218767 DB	'KB_NUMPAD0', 00H
	ORG $+1
$SG218768 DB	'KB_NUMPADPERIOD', 00H
$SG218769 DB	'KB_F11', 00H
	ORG $+1
$SG218770 DB	'KB_F12', 00H
	ORG $+1
$SG218771 DB	'KB_NUMPADEQUALS', 00H
$SG218772 DB	'KB_AT', 00H
	ORG $+2
$SG218773 DB	'KB_UNDERLINE', 00H
	ORG $+3
$SG218774 DB	'KB_COLON', 00H
	ORG $+3
$SG218775 DB	'KB_NUMPADENTER', 00H
	ORG $+1
$SG218776 DB	'KB_RCONTROL', 00H
$SG218777 DB	'KB_VOLUMEDOWN', 00H
	ORG $+2
$SG218778 DB	'KB_VOLUMEUP', 00H
$SG218779 DB	'KB_NUMPADCOMMA', 00H
	ORG $+1
$SG218780 DB	'KB_NUMPADSLASH', 00H
	ORG $+1
$SG218781 DB	'KB_SYSRQ', 00H
	ORG $+3
$SG218782 DB	'KB_RALT', 00H
$SG218783 DB	'KB_PAUSE', 00H
	ORG $+3
$SG218784 DB	'KB_HOME', 00H
$SG218785 DB	'KB_UP', 00H
	ORG $+2
$SG218786 DB	'KB_PGUP', 00H
$SG218787 DB	'KB_LEFT', 00H
$SG218788 DB	'KB_RIGHT', 00H
	ORG $+3
$SG218789 DB	'KB_END', 00H
	ORG $+1
$SG218790 DB	'KB_DOWN', 00H
$SG218791 DB	'KB_PGDN', 00H
$SG218792 DB	'KB_INSERT', 00H
	ORG $+2
$SG218793 DB	'KB_DELETE', 00H
	ORG $+2
$SG218812 DB	'TXT_KEY_SHIFT', 00H
	ORG $+2
$SG218815 DB	'TXT_KEY_ALT', 00H
$SG218818 DB	'TXT_KEY_CTRL', 00H
	ORG $+3
$SG218835 DB	'KB_ESCAPE', 00H
	ORG $+2
$SG218836 DB	'TXT_KEY_KEYBOARD_ESCAPE', 00H
$SG218837 DB	'KB_0', 00H
	ORG $+3
$SG218838 DB	'0', 00H
	ORG $+2
$SG218839 DB	'KB_1', 00H
	ORG $+3
$SG218840 DB	'1', 00H
	ORG $+2
$SG218841 DB	'KB_2', 00H
	ORG $+3
$SG218842 DB	'2', 00H
	ORG $+2
$SG218843 DB	'KB_3', 00H
	ORG $+3
$SG218844 DB	'3', 00H
	ORG $+2
$SG218845 DB	'KB_4', 00H
	ORG $+3
$SG218846 DB	'4', 00H
	ORG $+2
$SG218847 DB	'KB_5', 00H
	ORG $+3
$SG218848 DB	'5', 00H
	ORG $+2
$SG218849 DB	'KB_6', 00H
	ORG $+3
$SG218850 DB	'6', 00H
	ORG $+2
$SG218851 DB	'KB_7', 00H
	ORG $+3
$SG218852 DB	'7', 00H
	ORG $+2
$SG218853 DB	'KB_8', 00H
	ORG $+3
$SG218854 DB	'8', 00H
	ORG $+2
$SG218855 DB	'KB_9', 00H
	ORG $+3
$SG218856 DB	'9', 00H
	ORG $+2
$SG218857 DB	'KB_MINUS', 00H
	ORG $+3
$SG218858 DB	'-', 00H
	ORG $+2
$SG218859 DB	'KB_A', 00H
	ORG $+3
$SG218860 DB	'A', 00H
	ORG $+2
$SG218861 DB	'KB_B', 00H
	ORG $+3
$SG218862 DB	'B', 00H
	ORG $+2
$SG218863 DB	'KB_C', 00H
	ORG $+3
$SG218864 DB	'C', 00H
	ORG $+2
$SG218865 DB	'KB_D', 00H
	ORG $+3
$SG218866 DB	'D', 00H
	ORG $+2
$SG218867 DB	'KB_E', 00H
	ORG $+3
$SG218868 DB	'E', 00H
	ORG $+2
$SG218869 DB	'KB_F', 00H
	ORG $+3
$SG218870 DB	'F', 00H
	ORG $+2
$SG218871 DB	'KB_G', 00H
	ORG $+3
$SG218872 DB	'G', 00H
	ORG $+2
$SG218873 DB	'KB_H', 00H
	ORG $+3
$SG218874 DB	'H', 00H
	ORG $+2
$SG218875 DB	'KB_I', 00H
	ORG $+3
$SG218876 DB	'I', 00H
	ORG $+2
$SG218877 DB	'KB_J', 00H
	ORG $+3
$SG218878 DB	'J', 00H
	ORG $+2
$SG218879 DB	'KB_K', 00H
	ORG $+3
$SG218880 DB	'K', 00H
	ORG $+2
$SG218881 DB	'KB_L', 00H
	ORG $+3
$SG218882 DB	'L', 00H
	ORG $+2
$SG218883 DB	'KB_M', 00H
	ORG $+3
$SG218884 DB	'M', 00H
	ORG $+2
$SG218885 DB	'KB_N', 00H
	ORG $+3
$SG218886 DB	'N', 00H
	ORG $+2
$SG218887 DB	'KB_O', 00H
	ORG $+3
$SG218888 DB	'O', 00H
	ORG $+2
$SG218889 DB	'KB_P', 00H
	ORG $+3
$SG218890 DB	'P', 00H
	ORG $+2
$SG218891 DB	'KB_Q', 00H
	ORG $+3
$SG218892 DB	'Q', 00H
	ORG $+2
$SG218893 DB	'KB_R', 00H
	ORG $+3
$SG218894 DB	'R', 00H
	ORG $+2
$SG218895 DB	'KB_S', 00H
	ORG $+3
$SG218896 DB	'S', 00H
	ORG $+2
$SG218897 DB	'KB_T', 00H
	ORG $+3
$SG218898 DB	'T', 00H
	ORG $+2
$SG218899 DB	'KB_U', 00H
	ORG $+3
$SG218900 DB	'U', 00H
	ORG $+2
$SG218901 DB	'KB_V', 00H
	ORG $+3
$SG218902 DB	'V', 00H
	ORG $+2
$SG218903 DB	'KB_W', 00H
	ORG $+3
$SG218904 DB	'W', 00H
	ORG $+2
$SG218905 DB	'KB_X', 00H
	ORG $+3
$SG218906 DB	'X', 00H
	ORG $+2
$SG218907 DB	'KB_Y', 00H
	ORG $+3
$SG218908 DB	'Y', 00H
	ORG $+2
$SG218909 DB	'KB_Z', 00H
	ORG $+3
$SG218910 DB	'Z', 00H
	ORG $+2
$SG218911 DB	'KB_EQUALS', 00H
	ORG $+2
$SG218912 DB	'=', 00H
	ORG $+2
$SG218913 DB	'KB_BACKSPACE', 00H
	ORG $+3
$SG218914 DB	'TXT_KEY_KEYBOARD_BACKSPACE', 00H
	ORG $+1
$SG218915 DB	'KB_TAB', 00H
	ORG $+1
$SG218916 DB	'TAB', 00H
$SG218917 DB	'KB_LBRACKET', 00H
$SG218918 DB	'[', 00H
	ORG $+2
$SG218919 DB	'KB_RBRACKET', 00H
$SG218920 DB	']', 00H
	ORG $+2
$SG218921 DB	'KB_RETURN', 00H
	ORG $+2
$SG218922 DB	'TXT_KEY_KEYBOARD_ENTER', 00H
	ORG $+1
$SG218923 DB	'KB_LCONTROL', 00H
$SG218924 DB	'TXT_KEY_KEYBOARD_LEFT_CONTROL_KEY', 00H
	ORG $+2
$SG218925 DB	'KB_SEMICOLON', 00H
	ORG $+3
$SG218926 DB	';', 00H
	ORG $+2
$SG218927 DB	'KB_APOSTROPHE', 00H
	ORG $+2
$SG218928 DB	'''', 00H
	ORG $+2
$SG218929 DB	'KB_GRAVE', 00H
	ORG $+3
$SG218930 DB	'`', 00H
	ORG $+2
$SG218931 DB	'KB_LSHIFT', 00H
	ORG $+2
$SG218932 DB	'TXT_KEY_KEYBOARD_LEFT_SHIFT_KEY', 00H
$SG218933 DB	'KB_BACKSLASH', 00H
	ORG $+3
$SG218934 DB	'\', 00H
	ORG $+2
$SG218935 DB	'KB_COMMA', 00H
	ORG $+3
$SG218936 DB	',', 00H
	ORG $+2
$SG218937 DB	'KB_PERIOD', 00H
	ORG $+2
$SG218938 DB	'.', 00H
	ORG $+2
$SG218939 DB	'KB_SLASH', 00H
	ORG $+3
$SG218940 DB	'/', 00H
	ORG $+2
$SG218941 DB	'KB_RSHIFT', 00H
	ORG $+2
$SG218942 DB	'TXT_KEY_KEYBOARD_RIGHT_SHIFT_KEY', 00H
	ORG $+3
$SG218943 DB	'KB_NUMPADSTAR', 00H
	ORG $+2
$SG218944 DB	'TXT_KEY_KEYBOARD_NUM_PAD_STAR', 00H
	ORG $+2
$SG218945 DB	'KB_LALT', 00H
$SG218946 DB	'TXT_KEY_KEYBOARD_LEFT_ALT_KEY', 00H
	ORG $+2
$SG218947 DB	'KB_SPACE', 00H
	ORG $+3
$SG218948 DB	'TXT_KEY_KEYBOARD_SPACE_KEY', 00H
	ORG $+1
$SG218949 DB	'KB_CAPSLOCK', 00H
$SG218950 DB	'TXT_KEY_KEYBOARD_CAPS_LOCK', 00H
	ORG $+1
$SG218951 DB	'KB_F1', 00H
	ORG $+2
$SG218952 DB	'F1', 00H
	ORG $+1
$SG218953 DB	'KB_F2', 00H
	ORG $+2
$SG218954 DB	'F2', 00H
	ORG $+1
$SG218955 DB	'KB_F3', 00H
	ORG $+2
$SG218956 DB	'F3', 00H
	ORG $+1
$SG218957 DB	'KB_F4', 00H
	ORG $+2
$SG218958 DB	'F4', 00H
	ORG $+1
$SG218959 DB	'KB_F5', 00H
	ORG $+2
$SG218960 DB	'F5', 00H
	ORG $+1
$SG218961 DB	'KB_F6', 00H
	ORG $+2
$SG218962 DB	'F6', 00H
	ORG $+1
$SG218963 DB	'KB_F7', 00H
	ORG $+2
$SG218964 DB	'F7', 00H
	ORG $+1
$SG218965 DB	'KB_F8', 00H
	ORG $+2
$SG218966 DB	'F8', 00H
	ORG $+1
$SG218967 DB	'KB_F9', 00H
	ORG $+2
$SG218968 DB	'F9', 00H
	ORG $+1
$SG218969 DB	'KB_F10', 00H
	ORG $+1
$SG218970 DB	'F10', 00H
$SG218971 DB	'KB_NUMLOCK', 00H
	ORG $+1
$SG218972 DB	'TXT_KEY_KEYBOARD_NUM_LOCK', 00H
	ORG $+2
$SG218973 DB	'KB_SCROLL', 00H
	ORG $+2
$SG218974 DB	'TXT_KEY_KEYBOARD_SCROLL_KEY', 00H
$SG218975 DB	'KB_NUMPAD7', 00H
	ORG $+1
$SG218976 DB	'TXT_KEY_KEYBOARD_NUMPAD_NUMBER7', 00H
$SG218977 DB	'KB_NUMPAD8', 00H
	ORG $+1
$SG218978 DB	'TXT_KEY_KEYBOARD_NUMPAD_NUMBER8', 00H
$SG218979 DB	'KB_NUMPAD9', 00H
	ORG $+1
$SG218980 DB	'TXT_KEY_KEYBOARD_NUMPAD_NUMBER9', 00H
$SG218981 DB	'KB_NUMPADMINUS', 00H
	ORG $+1
$SG218982 DB	'TXT_KEY_KEYBOARD_NUMPAD_MINUS', 00H
	ORG $+2
$SG218983 DB	'KB_NUMPAD4', 00H
	ORG $+1
$SG218984 DB	'TXT_KEY_KEYBOARD_NUMPAD_NUMBER4', 00H
$SG218985 DB	'KB_NUMPAD5', 00H
	ORG $+1
$SG218986 DB	'TXT_KEY_KEYBOARD_NUMPAD_NUMBER5', 00H
$SG218987 DB	'KB_NUMPAD6', 00H
	ORG $+1
$SG218988 DB	'TXT_KEY_KEYBOARD_NUMPAD_NUMBER6', 00H
$SG218989 DB	'KB_NUMPADPLUS', 00H
	ORG $+2
$SG218990 DB	'TXT_KEY_KEYBOARD_NUMPAD_PLUS', 00H
	ORG $+3
$SG218991 DB	'KB_NUMPAD1', 00H
	ORG $+1
$SG218992 DB	'TXT_KEY_KEYBOARD_NUMPAD_NUMBER1', 00H
$SG218993 DB	'KB_NUMPAD2', 00H
	ORG $+1
$SG218994 DB	'TXT_KEY_KEYBOARD_NUMPAD_NUMBER2', 00H
$SG218995 DB	'KB_NUMPAD3', 00H
	ORG $+1
$SG218996 DB	'TXT_KEY_KEYBOARD_NUMPAD_NUMBER3', 00H
$SG218997 DB	'KB_NUMPAD0', 00H
	ORG $+1
$SG218998 DB	'TXT_KEY_KEYBOARD_NUMPAD_NUMBER0', 00H
$SG218999 DB	'KB_NUMPADPERIOD', 00H
$SG219000 DB	'TXT_KEY_KEYBOARD_NUMPAD_PERIOD', 00H
	ORG $+1
$SG219001 DB	'KB_F11', 00H
	ORG $+1
$SG219002 DB	'F11', 00H
$SG219003 DB	'KB_F12', 00H
	ORG $+1
$SG219004 DB	'F12', 00H
$SG219005 DB	'KB_NUMPADEQUALS', 00H
$SG219006 DB	'TXT_KEY_KEYBOARD_NUMPAD_EQUALS', 00H
	ORG $+1
$SG219007 DB	'KB_AT', 00H
	ORG $+2
$SG219008 DB	'@', 00H
	ORG $+2
$SG219009 DB	'KB_UNDERLINE', 00H
	ORG $+3
$SG219010 DB	'_', 00H
	ORG $+2
$SG219011 DB	'KB_COLON', 00H
	ORG $+3
$SG219012 DB	':', 00H
	ORG $+2
$SG219013 DB	'KB_NUMPADENTER', 00H
	ORG $+1
$SG219014 DB	'TXT_KEY_KEYBOARD_NUMPAD_ENTER_KEY', 00H
	ORG $+2
$SG219015 DB	'KB_RCONTROL', 00H
$SG219016 DB	'TXT_KEY_KEYBOARD_RIGHT_CONTROL_KEY', 00H
	ORG $+1
$SG219017 DB	'KB_VOLUMEDOWN', 00H
	ORG $+2
$SG219018 DB	'TXT_KEY_KEYBOARD_VOLUME_DOWN', 00H
	ORG $+3
$SG219019 DB	'KB_VOLUMEUP', 00H
$SG219020 DB	'TXT_KEY_KEYBOARD_VOLUME_UP', 00H
	ORG $+1
$SG219021 DB	'KB_NUMPADCOMMA', 00H
	ORG $+1
$SG219022 DB	'TXT_KEY_KEYBOARD_NUMPAD_COMMA', 00H
	ORG $+2
$SG219023 DB	'KB_NUMPADSLASH', 00H
	ORG $+1
$SG219024 DB	'TXT_KEY_KEYBOARD_NUMPAD_SLASH', 00H
	ORG $+2
$SG219025 DB	'KB_SYSRQ', 00H
	ORG $+3
$SG219026 DB	'TXT_KEY_KEYBOARD_SYSRQ', 00H
	ORG $+1
$SG219027 DB	'KB_RALT', 00H
$SG219028 DB	'TXT_KEY_KEYBOARD_RIGHT_ALT_KEY', 00H
	ORG $+1
$SG219029 DB	'KB_PAUSE', 00H
	ORG $+3
$SG219030 DB	'TXT_KEY_KEYBOARD_PAUSE_KEY', 00H
	ORG $+1
$SG219031 DB	'KB_HOME', 00H
$SG219032 DB	'TXT_KEY_KEYBOARD_HOME_KEY', 00H
	ORG $+2
$SG219033 DB	'KB_UP', 00H
	ORG $+2
$SG219034 DB	'TXT_KEY_KEYBOARD_UP_ARROW', 00H
	ORG $+2
$SG219035 DB	'KB_PGUP', 00H
$SG219036 DB	'TXT_KEY_KEYBOARD_PAGE_UP', 00H
	ORG $+3
$SG219037 DB	'KB_LEFT', 00H
$SG219038 DB	'TXT_KEY_KEYBOARD_LEFT_ARROW', 00H
$SG219039 DB	'KB_RIGHT', 00H
	ORG $+3
$SG219040 DB	'TXT_KEY_KEYBOARD_RIGHT_ARROW', 00H
	ORG $+3
$SG219041 DB	'KB_END', 00H
	ORG $+1
$SG219042 DB	'TXT_KEY_KEYBOARD_END_KEY', 00H
	ORG $+3
$SG219043 DB	'KB_DOWN', 00H
$SG219044 DB	'TXT_KEY_KEYBOARD_DOWN_ARROW', 00H
$SG219045 DB	'KB_PGDN', 00H
$SG219046 DB	'TXT_KEY_KEYBOARD_PAGE_DOWN', 00H
	ORG $+1
$SG219047 DB	'KB_INSERT', 00H
	ORG $+2
$SG219048 DB	'TXT_KEY_KEYBOARD_INSERT_KEY', 00H
$SG219049 DB	'KB_DELETE', 00H
	ORG $+2
$SG219050 DB	'TXT_KEY_KEYBOARD_DELETE_KEY', 00H
$SG219066 DB	'HotKey', 00H
	ORG $+1
$SG219068 DB	'HotKey', 00H
	ORG $+1
$SG219069 DB	'HotKeyPriority', 00H
	ORG $+1
$SG219071 DB	'HotKeyAlt', 00H
	ORG $+2
$SG219072 DB	'HotKeyPriorityAlt', 00H
	ORG $+2
$SG219073 DB	'AltDown', 00H
$SG219074 DB	'AltDownAlt', 00H
	ORG $+1
$SG219075 DB	'ShiftDown', 00H
	ORG $+2
$SG219076 DB	'ShiftDownAlt', 00H
	ORG $+3
$SG219077 DB	'CtrlDown', 00H
	ORG $+3
$SG219078 DB	'CtrlDownAlt', 00H
$SG219079 DB	'OrderPriority', 00H
	ORG $+2
$SG219081 DB	'Help', 00H
	ORG $+3
$SG219084 DB	'DisabledHelp', 00H
	ORG $+3
$SG219191 DB	'{1: textkey} ({2: textkey})', 00H
$SG219276 DB	'Visible', 00H
$SG219277 DB	'Cost', 00H
	ORG $+3
$SG219278 DB	'Experience', 00H
	ORG $+1
$SG219279 DB	'GreatPeopleRateChange', 00H
	ORG $+2
$SG219280 DB	'CulturePerTurn', 00H
	ORG $+1
$SG219281 DB	'Texture', 00H
$SG219283 DB	'GreatPeopleUnitClass', 00H
	ORG $+3
$SG219285 DB	'SpecialistType', 00H
	ORG $+1
$SG219286 DB	'SpecialistFlavors', 00H
	ORG $+2
$SG219287 DB	'SpecialistType', 00H
	ORG $+1
$SG219288 DB	'SpecialistYields', 00H
	ORG $+3
$SG219319 DB	'Waypoint', 00H
	ORG $+3
$SG219320 DB	'Time', 00H
	ORG $+3
$SG219321 DB	'Sound', 00H
	ORG $+2
$SG219322 DB	'Target', 00H
	ORG $+1
$SG219323 DB	'Build', 00H
	ORG $+2
$SG219324 DB	'Visible', 00H
$SG219326 DB	'EntityEventType', 00H
$SG219356 DB	'Automate', 00H
	ORG $+3
$SG219358 DB	'ConfirmCommand', 00H
	ORG $+1
$SG219359 DB	'Visible', 00H
$SG219360 DB	'All', 00H
$SG219391 DB	'Command', 00H
$SG219393 DB	'Automate', 00H
	ORG $+3
$SG219394 DB	'ConfirmCommand', 00H
	ORG $+1
$SG219395 DB	'Visible', 00H
$SG219667 DB	'Name', 00H
	ORG $+3
$SG219668 DB	'RequiresNavalUnitConsistency', 00H
	ORG $+3
$SG219671 DB	'MultiUnitFormationType', 00H
	ORG $+1
$SG219672 DB	'MultiUnitFormation_SlotEntries', 00H
	ORG $+1
$SG219677 DB	'RequiredSlot', 00H
	ORG $+3
$SG219679 DB	'MultiUnitPositionType', 00H
	ORG $+2
$SG219681 DB	'PrimaryUnitType', 00H
$SG219682 DB	'SecondaryUnitType', 00H
	ORG $+2
$SG219717 DB	'Valid', 00H
	ORG $+2
$SG219718 DB	'CityLoad', 00H
	ORG $+3
$SG219720 DB	'SpecialUnitType', 00H
$SG219721 DB	'UnitAIType', 00H
	ORG $+1
$SG219722 DB	'SpecialUnit_CarrierUnitAI', 00H
	ORG $+2
$SG219723 DB	'UnitAIInfos', 00H
$SG219724 DB	'Trait', 00H
	ORG $+2
$SG219725 DB	'SpecialUnitType', 00H
$SG219726 DB	'TraitType', 00H
	ORG $+2
$SG219727 DB	'SpecialUnit_ProductionTraits', 00H
	ORG $+3
$SG219728 DB	'Traits', 00H
	ORG $+1
$SG219757 DB	'MaxGlobalInstances', 00H
	ORG $+1
$SG219758 DB	'MaxTeamInstances', 00H
	ORG $+3
$SG219759 DB	'MaxPlayerInstances', 00H
	ORG $+1
$SG219760 DB	'InstanceCostModifier', 00H
	ORG $+3
$SG219761 DB	'DefaultUnit', 00H
$SG219807 DB	'MaxGlobalInstances', 00H
	ORG $+1
$SG219808 DB	'MaxTeamInstances', 00H
	ORG $+3
$SG219809 DB	'MaxPlayerInstances', 00H
	ORG $+1
$SG219810 DB	'ExtraPlayerInstances', 00H
	ORG $+3
$SG219811 DB	'NoLimit', 00H
$SG219812 DB	'Monument', 00H
	ORG $+3
$SG219814 DB	'DefaultBuilding', 00H
$SG219815 DB	'Threshold', 00H
	ORG $+2
$SG219816 DB	'BuildingClassType', 00H
	ORG $+2
$SG219817 DB	'VictoryType', 00H
$SG219818 DB	'BuildingClass_VictoryThresholds', 00H
$SG219819 DB	'Victories', 00H
	ORG $+2
$SG219836 DB	'LOAD ERROR: Building Class Type not found', 00H
	ORG $+2
$SG219870 DB	'LOAD ERROR: Unit Class Type not found', 00H
	ORG $+2
$SG219926 DB	'Playable', 00H
	ORG $+3
$SG219927 DB	'AIPlayable', 00H
	ORG $+1
$SG219928 DB	'ShortDescription', 00H
	ORG $+3
$SG219929 DB	'PackageID', 00H
	ORG $+2
$SG219951 DB	'BuildingClasses', 00H
$SG219953 DB	'InitBuildingDefaults', 00H
	ORG $+7
$SG219956 DB	'select BuildingClasses.ID, Buildings.ID as BuildingID fr'
	DB	'om BuildingClasses inner join Buildings on Buildings.Type = D'
	DB	'efaultBuilding', 00H
$SG219967 DB	'UnitClasses', 00H
$SG219969 DB	'InitUnitDefaults', 00H
	ORG $+7
$SG219972 DB	'select UnitClasses.ID, Units.ID as UnitID from UnitClass'
	DB	'es inner join Units on Units.Type = DefaultUnit', 00H
$SG220104 DB	'UnitClasses', 00H
$SG220106 DB	'BuildingClasses', 00H
$SG220108 DB	'Adjective', 00H
	ORG $+2
$SG220109 DB	'DefaultPlayerColor', 00H
	ORG $+1
$SG220110 DB	'ArtDefineTag', 00H
	ORG $+3
$SG220111 DB	'ArtStyleType', 00H
	ORG $+3
$SG220112 DB	'ArtStylePrefix', 00H
	ORG $+1
$SG220113 DB	'ArtStyleSuffix', 00H
	ORG $+1
$SG220114 DB	'DawnOfManAudio', 00H
	ORG $+1
$SG220115 DB	'SoundtrackTag', 00H
	ORG $+2
$SG220118 DB	'Civilization_Start_Along_Ocean', 00H
	ORG $+5
$SG220121 DB	'select StartAlongOcean from Civilization_Start_Along_Oce'
	DB	'an where CivilizationType = ?', 00H
	ORG $+2
$SG220126 DB	'Civilization_Start_Place_First', 00H
	ORG $+1
$SG220129 DB	'select PlaceFirst from Civilization_Start_Place_First_Al'
	DB	'ong_Ocean where CivilizationType = ?', 00H
	ORG $+3
$SG220134 DB	'Civilization - CityNames', 00H
	ORG $+7
$SG220137 DB	'select CityName from Civilization_CityNames where Civili'
	DB	'zationType = ?', 00H
	ORG $+1
$SG220143 DB	'Civilization_BuildingClassOverrides', 00H
$SG220165 DB	'Civilizations - FreeUnits', 00H
	ORG $+2
$SG220146 DB	'select BuildingClasses.ID, coalesce(Buildings.ID, -1) fr'
	DB	'om Civilization_BuildingClassOverrides inner join BuildingCla'
	DB	'sses on BuildingClassType = BuildingClasses.Type left outer j'
	DB	'oin Buildings on BuildingType = Buildings.Type where Civiliza'
	DB	'tionType = ?', 00H
$SG220154 DB	'Civilization_UnitClassOverrides', 00H
$SG220175 DB	'CivilizationType', 00H
	ORG $+3
$SG220157 DB	'select UnitClasses.ID, coalesce(Units.ID, -1) from Civil'
	DB	'ization_UnitClassOverrides inner join UnitClasses on UnitClas'
	DB	'sType = UnitClasses.Type left outer join Units on UnitType = '
	DB	'Units.Type where CivilizationType = ?', 00H
$SG220168 DB	'select UnitClasses.ID as UnitClassID, UnitAIInfos.ID as '
	DB	'UnitAITypeID, Count from Civilization_FreeUnits inner join Un'
	DB	'itClasses on UnitClassType = UnitClasses.Type inner join Unit'
	DB	'AIInfos on UnitAIType = UnitAIInfos.Type where CivilizationTy'
	DB	'pe = ?', 00H
	ORG $+2
$SG220176 DB	'BuildingClassType', 00H
	ORG $+2
$SG220177 DB	'Civilization_FreeBuildingClasses', 00H
	ORG $+3
$SG220178 DB	'BuildingClasses', 00H
$SG220179 DB	'CivilizationType', 00H
	ORG $+3
$SG220180 DB	'TechType', 00H
	ORG $+3
$SG220181 DB	'Civilization_FreeTechs', 00H
	ORG $+1
$SG220182 DB	'Technologies', 00H
	ORG $+3
$SG220183 DB	'CivilizationType', 00H
	ORG $+3
$SG220184 DB	'TechType', 00H
	ORG $+3
$SG220185 DB	'Civilization_DisableTechs', 00H
	ORG $+2
$SG220186 DB	'Technologies', 00H
	ORG $+3
$SG220187 DB	'CivilizationType', 00H
	ORG $+3
$SG220188 DB	'LeaderheadType', 00H
	ORG $+1
$SG220189 DB	'Civilization_Leaders', 00H
	ORG $+3
$SG220190 DB	'Leaders', 00H
$SG220191 DB	'CivilizationType', 00H
	ORG $+3
$SG220192 DB	'ReligionType', 00H
	ORG $+3
$SG220193 DB	'Civilization_Religions', 00H
	ORG $+1
$SG220194 DB	'Religions', 00H
	ORG $+2
$SG220196 DB	'Civilization - SpyNames', 00H
$SG220199 DB	'select SpyName from Civilization_SpyNames where Civiliza'
	DB	'tionType = ?', 00H
	ORG $+3
$SG220275 DB	'WinsGame', 00H
	ORG $+3
$SG220276 DB	'TargetScore', 00H
$SG220277 DB	'EndScore', 00H
	ORG $+3
$SG220278 DB	'Conquest', 00H
	ORG $+3
$SG220279 DB	'Influential', 00H
$SG220280 DB	'DiploVote', 00H
	ORG $+2
$SG220281 DB	'Permanent', 00H
	ORG $+2
$SG220282 DB	'ReligionInAllCities', 00H
$SG220283 DB	'FindAllNaturalWonders', 00H
	ORG $+2
$SG220284 DB	'PopulationPercentLead', 00H
	ORG $+2
$SG220285 DB	'LandPercent', 00H
$SG220286 DB	'MinLandPercent', 00H
	ORG $+1
$SG220287 DB	'NumCultureCities', 00H
	ORG $+3
$SG220288 DB	'TotalCultureRatio', 00H
	ORG $+2
$SG220289 DB	'VictoryDelayTurns', 00H
	ORG $+2
$SG220290 DB	'VictoryMovie', 00H
	ORG $+3
$SG220292 DB	'CityCulture', 00H
$SG220296 DB	'CvVictoryInfo_VictoryPointAwards', 00H
	ORG $+3
$SG220299 DB	'select VictoryPoints from VictoryPointAwards where Victo'
	DB	'ryType == ? order by VictoryPoints desc;', 00H
	ORG $+3
$SG220339 DB	'Notification', 00H
	ORG $+3
$SG220340 DB	'TeamNotification', 00H
	ORG $+3
$SG220341 DB	'NumVictoryPoints', 00H
	ORG $+3
$SG220342 DB	'NumCities', 00H
	ORG $+2
$SG220343 DB	'CityPopulation', 00H
	ORG $+1
$SG220368 DB	'GoldPerProduction', 00H
	ORG $+2
$SG220369 DB	'ProductionPerPopulation', 00H
$SG220370 DB	'GoldPerBeaker', 00H
	ORG $+2
$SG220371 DB	'GoldPerCulture', 00H
	ORG $+1
$SG220373 DB	'PolicyPrereq', 00H
	ORG $+3
$SG220582 DB	'StartingLocPercent', 00H
	ORG $+1
$SG220583 DB	'AdvancedStartPointsMod', 00H
	ORG $+1
$SG220584 DB	'StartingPolicyPoints', 00H
	ORG $+3
$SG220585 DB	'HappinessDefault', 00H
	ORG $+3
$SG220586 DB	'ExtraHappinessPerLuxury', 00H
$SG220587 DB	'NumCitiesUnhappinessMod', 00H
$SG220588 DB	'PopulationUnhappinessMod', 00H
	ORG $+3
$SG220589 DB	'Gold', 00H
	ORG $+3
$SG220590 DB	'GoldFreeUnits', 00H
	ORG $+2
$SG220591 DB	'ProductionFreeUnits', 00H
$SG220592 DB	'ProductionFreeUnitsPerCity', 00H
	ORG $+1
$SG220593 DB	'ProductionFreeUnitsPopulationPercent', 00H
	ORG $+3
$SG220594 DB	'RouteCostPercent', 00H
	ORG $+3
$SG220595 DB	'UnitCostPercent', 00H
$SG220596 DB	'BuildingCostPercent', 00H
$SG220597 DB	'ResearchPercent', 00H
$SG220598 DB	'PolicyPercent', 00H
	ORG $+2
$SG220599 DB	'ImprovementCostPercent', 00H
	ORG $+1
$SG220600 DB	'CityProductionNumOptionsConsidered', 00H
	ORG $+1
$SG220601 DB	'TechNumOptionsConsidered', 00H
	ORG $+3
$SG220602 DB	'PolicyNumOptionsConsidered', 00H
	ORG $+1
$SG220603 DB	'InflationPercent', 00H
	ORG $+3
$SG220604 DB	'FreeCulturePerTurn', 00H
	ORG $+1
$SG220605 DB	'AttitudeChange', 00H
	ORG $+1
$SG220606 DB	'NoTechTradeModifier', 00H
$SG220607 DB	'TechTradeKnownModifier', 00H
	ORG $+1
$SG220608 DB	'BarbCampGold', 00H
	ORG $+3
$SG220609 DB	'BarbSpawnMod', 00H
	ORG $+3
$SG220610 DB	'BarbarianBonus', 00H
	ORG $+1
$SG220611 DB	'AIBarbarianBonus', 00H
	ORG $+3
$SG220612 DB	'EarliestBarbarianReleaseTurn', 00H
	ORG $+3
$SG220613 DB	'BarbarianLandTargetRange', 00H
	ORG $+3
$SG220614 DB	'BarbarianSeaTargetRange', 00H
$SG220615 DB	'StartingDefenseUnits', 00H
	ORG $+3
$SG220616 DB	'StartingWorkerUnits', 00H
$SG220617 DB	'StartingExploreUnits', 00H
	ORG $+3
$SG220618 DB	'AIStartingUnitMultiplier', 00H
	ORG $+3
$SG220619 DB	'AIStartingDefenseUnits', 00H
	ORG $+1
$SG220620 DB	'AIStartingWorkerUnits', 00H
	ORG $+2
$SG220621 DB	'AIStartingExploreUnits', 00H
	ORG $+1
$SG220622 DB	'AIDeclareWarProb', 00H
	ORG $+3
$SG220623 DB	'AIWorkRateModifier', 00H
	ORG $+1
$SG220624 DB	'AIUnhappinessPercent', 00H
	ORG $+3
$SG220625 DB	'AIGrowthPercent', 00H
$SG220626 DB	'AITrainPercent', 00H
	ORG $+1
$SG220627 DB	'AIWorldTrainPercent', 00H
$SG220628 DB	'AIConstructPercent', 00H
	ORG $+1
$SG220629 DB	'AIWorldConstructPercent', 00H
$SG220630 DB	'AICreatePercent', 00H
$SG220631 DB	'AIWorldCreatePercent', 00H
	ORG $+3
$SG220632 DB	'AIBuildingCostPercent', 00H
	ORG $+2
$SG220633 DB	'AIUnitCostPercent', 00H
	ORG $+2
$SG220634 DB	'AIUnitSupplyPercent', 00H
$SG220635 DB	'AIUnitUpgradePercent', 00H
	ORG $+3
$SG220636 DB	'AIInflationPercent', 00H
	ORG $+1
$SG220637 DB	'AIPerEraModifier', 00H
	ORG $+3
$SG220638 DB	'AIAdvancedStartPercent', 00H
	ORG $+1
$SG220639 DB	'AIFreeXP', 00H
	ORG $+3
$SG220640 DB	'AIFreeXPPercent', 00H
$SG220643 DB	'count(*)', 00H
	ORG $+3
$SG220645 DB	'HandicapType', 00H
	ORG $+3
$SG220646 DB	'HandicapInfo_Goodies', 00H
	ORG $+3
$SG220656 DB	'select GoodyHuts.ID from HandicapInfo_Goodies inner join'
	DB	' GoodyHuts on GoodyType = GoodyHuts.Type where HandicapType ='
	DB	' ''%s'';', 00H
$SG220662 DB	'HandicapType', 00H
	ORG $+3
$SG220663 DB	'TechType', 00H
	ORG $+3
$SG220664 DB	'HandicapInfo_FreeTechs', 00H
	ORG $+1
$SG220665 DB	'Technologies', 00H
	ORG $+3
$SG220666 DB	'HandicapType', 00H
	ORG $+3
$SG220667 DB	'TechType', 00H
	ORG $+3
$SG220668 DB	'HandicapInfo_AIFreeTechs', 00H
	ORG $+3
$SG220669 DB	'Technologies', 00H
	ORG $+3
$SG220795 DB	'DealDuration', 00H
	ORG $+3
$SG220796 DB	'GrowthPercent', 00H
	ORG $+2
$SG220797 DB	'TrainPercent', 00H
	ORG $+3
$SG220798 DB	'ConstructPercent', 00H
	ORG $+3
$SG220799 DB	'CreatePercent', 00H
	ORG $+2
$SG220800 DB	'ResearchPercent', 00H
$SG220801 DB	'GoldPercent', 00H
$SG220802 DB	'GoldGiftMod', 00H
$SG220803 DB	'BuildPercent', 00H
	ORG $+3
$SG220804 DB	'ImprovementPercent', 00H
	ORG $+1
$SG220805 DB	'GreatPeoplePercent', 00H
	ORG $+1
$SG220806 DB	'CulturePercent', 00H
	ORG $+1
$SG220807 DB	'FaithPercent', 00H
	ORG $+3
$SG220808 DB	'BarbPercent', 00H
$SG220809 DB	'FeatureProductionPercent', 00H
	ORG $+3
$SG220810 DB	'UnitDiscoverPercent', 00H
$SG220811 DB	'UnitHurryPercent', 00H
	ORG $+3
$SG220812 DB	'UnitTradePercent', 00H
	ORG $+3
$SG220813 DB	'GoldenAgePercent', 00H
	ORG $+3
$SG220814 DB	'HurryPercent', 00H
	ORG $+3
$SG220815 DB	'InflationOffset', 00H
$SG220816 DB	'InflationPercent', 00H
	ORG $+3
$SG220817 DB	'ReligiousPressureAdjacentCity', 00H
	ORG $+2
$SG220818 DB	'VictoryDelayPercent', 00H
$SG220819 DB	'MinorCivElectionFreqMod', 00H
$SG220820 DB	'OpinionDurationPercent', 00H
	ORG $+1
$SG220821 DB	'SpyRatePercent', 00H
	ORG $+1
$SG220822 DB	'PeaceDealDuration', 00H
	ORG $+2
$SG220823 DB	'RelationshipDuration', 00H
	ORG $+3
$SG220824 DB	'LeaguePercent', 00H
	ORG $+2
$SG220832 DB	'select count(*) from GameSpeed_Turns where GameSpeedType'
	DB	' = ''%s''', 00H
$SG220836 DB	'select * from GameSpeed_Turns where GameSpeedType = ''%s'
	DB	'''', 00H
	ORG $+3
$SG220844 DB	'MonthIncrement', 00H
	ORG $+1
$SG220845 DB	'TurnsPerIncrement', 00H
	ORG $+2
$SG220867 DB	'BaseTime', 00H
	ORG $+3
$SG220868 DB	'CityResource', 00H
	ORG $+3
$SG220869 DB	'UnitResource', 00H
	ORG $+3
$SG220870 DB	'FirstTurnMultiplier', 00H
$SG220990 DB	'Time', 00H
	ORG $+3
$SG220991 DB	'Cost', 00H
	ORG $+3
$SG220992 DB	'CostIncreasePerImprovement', 00H
	ORG $+1
$SG220993 DB	'Kill', 00H
	ORG $+3
$SG220994 DB	'Repair', 00H
	ORG $+1
$SG220995 DB	'RemoveRoute', 00H
$SG220996 DB	'Water', 00H
	ORG $+2
$SG220997 DB	'CanBeEmbarked', 00H
	ORG $+2
$SG220998 DB	'SpecificCivRequired', 00H
$SG221000 DB	'CivilizationType', 00H
	ORG $+3
$SG221003 DB	'PrereqTech', 00H
	ORG $+1
$SG221005 DB	'ImprovementType', 00H
$SG221007 DB	'RouteType', 00H
	ORG $+2
$SG221009 DB	'EntityEvent', 00H
$SG221011 DB	'Features', 00H
	ORG $+3
$SG221012 DB	'Features', 00H
	ORG $+3
$SG221013 DB	'Features', 00H
	ORG $+3
$SG221014 DB	'Features', 00H
	ORG $+3
$SG221015 DB	'Features', 00H
	ORG $+3
$SG221021 DB	'Features', 00H
	ORG $+3
$SG221024 DB	'select * from BuildFeatures where BuildType = ''%s''', 00H
	ORG $+1
$SG221031 DB	'FeatureType', 00H
$SG221034 DB	'PrereqTech', 00H
	ORG $+1
$SG221035 DB	'Time', 00H
	ORG $+3
$SG221036 DB	'Production', 00H
	ORG $+1
$SG221037 DB	'Food', 00H
	ORG $+3
$SG221038 DB	'Cost', 00H
	ORG $+3
$SG221039 DB	'Remove', 00H
	ORG $+1
$SG221041 DB	'TimeChange', 00H
	ORG $+1
$SG221042 DB	'BuildType', 00H
	ORG $+2
$SG221043 DB	'TechType', 00H
	ORG $+3
$SG221044 DB	'Build_TechTimeChanges', 00H
	ORG $+2
$SG221045 DB	'Technologies', 00H
	ORG $+3
$SG221065 DB	'LOAD ERROR: Build Type not found', 00H
	ORG $+3
$SG221184 DB	'ChooseDescription', 00H
	ORG $+2
$SG221187 DB	'Sound', 00H
	ORG $+2
$SG221189 DB	'Gold', 00H
	ORG $+3
$SG221190 DB	'NumGoldRandRolls', 00H
	ORG $+3
$SG221191 DB	'GoldRandAmount', 00H
	ORG $+1
$SG221192 DB	'MapOffset', 00H
	ORG $+2
$SG221193 DB	'MapRange', 00H
	ORG $+3
$SG221194 DB	'MapProb', 00H
$SG221195 DB	'Experience', 00H
	ORG $+1
$SG221196 DB	'Healing', 00H
$SG221197 DB	'DamagePrereq', 00H
	ORG $+3
$SG221198 DB	'Population', 00H
	ORG $+1
$SG221199 DB	'Culture', 00H
$SG221200 DB	'Faith', 00H
	ORG $+2
$SG221201 DB	'ProphetPercent', 00H
	ORG $+1
$SG221202 DB	'RevealNearbyBarbariansRange', 00H
$SG221203 DB	'BarbarianUnitProb', 00H
	ORG $+2
$SG221204 DB	'MinBarbarians', 00H
	ORG $+2
$SG221205 DB	'Tech', 00H
	ORG $+3
$SG221206 DB	'Bad', 00H
$SG221207 DB	'RevealUnknownResource', 00H
	ORG $+2
$SG221208 DB	'UpgradeUnit', 00H
$SG221209 DB	'PantheonFaith', 00H
	ORG $+2
$SG221210 DB	'UnitClass', 00H
	ORG $+2
$SG221211 DB	'BarbarianUnitClass', 00H
	ORG $+1
$SG221258 DB	'GoldMaintenance', 00H
$SG221259 DB	'AdvancedStartCost', 00H
	ORG $+2
$SG221260 DB	'Value', 00H
	ORG $+2
$SG221261 DB	'Movement', 00H
	ORG $+3
$SG221262 DB	'FlatMovement', 00H
	ORG $+3
$SG221263 DB	'Industrial', 00H
	ORG $+1
$SG221265 DB	'RouteType', 00H
	ORG $+2
$SG221266 DB	'Route_Yields', 00H
	ORG $+3
$SG221267 DB	'MovementChange', 00H
	ORG $+1
$SG221268 DB	'RouteType', 00H
	ORG $+2
$SG221269 DB	'TechType', 00H
	ORG $+3
$SG221270 DB	'Route_TechMovementChanges', 00H
	ORG $+2
$SG221271 DB	'Technologies', 00H
	ORG $+3
$SG221272 DB	'Cost', 00H
	ORG $+3
$SG221273 DB	'RouteType', 00H
	ORG $+2
$SG221274 DB	'ResourceType', 00H
	ORG $+3
$SG221275 DB	'Route_ResourceQuantityRequirements', 00H
	ORG $+1
$SG221276 DB	'Resources', 00H
	ORG $+2
$SG221289 DB	'UniqueRange', 00H
$SG221818 DB	'StartingResourceQuantity', 00H
	ORG $+3
$SG221819 DB	'AITradeModifier', 00H
$SG221820 DB	'AIObjective', 00H
$SG221821 DB	'Happiness', 00H
	ORG $+2
$SG221822 DB	'WonderProductionMod', 00H
$SG221824 DB	'WonderProductionModObsoleteEra', 00H
	ORG $+1
$SG221826 DB	'MinAreaSize', 00H
$SG221827 DB	'MinLatitude', 00H
$SG221828 DB	'MaxLatitude', 00H
$SG221829 DB	'PlacementOrder', 00H
	ORG $+1
$SG221830 DB	'ConstAppearance', 00H
$SG221831 DB	'Player', 00H
	ORG $+1
$SG221832 DB	'TilesPer', 00H
	ORG $+3
$SG221833 DB	'MinLandPercent', 00H
	ORG $+1
$SG221834 DB	'Unique', 00H
	ORG $+1
$SG221835 DB	'GroupRange', 00H
	ORG $+1
$SG221836 DB	'GroupRand', 00H
	ORG $+2
$SG221837 DB	'PresentOnAllValidPlots', 00H
	ORG $+1
$SG221838 DB	'Area', 00H
	ORG $+3
$SG221839 DB	'Hills', 00H
	ORG $+2
$SG221840 DB	'Flatlands', 00H
	ORG $+2
$SG221841 DB	'NoRiverSide', 00H
$SG221842 DB	'Normalize', 00H
	ORG $+2
$SG221843 DB	'OnlyMinorCivs', 00H
	ORG $+2
$SG221845 DB	'CivilizationType', 00H
	ORG $+3
$SG221847 DB	'RandApp1', 00H
	ORG $+3
$SG221848 DB	'RandApp2', 00H
	ORG $+3
$SG221849 DB	'RandApp3', 00H
	ORG $+3
$SG221850 DB	'RandApp4', 00H
	ORG $+3
$SG221852 DB	'ResourceUsage', 00H
	ORG $+2
$SG221854 DB	'ResourceClassType', 00H
	ORG $+2
$SG221856 DB	'IconString', 00H
	ORG $+1
$SG221858 DB	'ArtDefineTag', 00H
	ORG $+3
$SG221860 DB	'ArtDefineTagHeavy', 00H
	ORG $+2
$SG221862 DB	'AltArtDefineTag', 00H
$SG221864 DB	'AltArtDefineTagHeavy', 00H
	ORG $+3
$SG221866 DB	'TechReveal', 00H
	ORG $+1
$SG221868 DB	'PolicyReveal', 00H
	ORG $+3
$SG221870 DB	'TechCityTrade', 00H
	ORG $+2
$SG221872 DB	'TechObsolete', 00H
	ORG $+3
$SG221874 DB	'AIStopTradingEra', 00H
	ORG $+3
$SG221876 DB	'ResourceType', 00H
	ORG $+3
$SG221877 DB	'Resource_YieldChanges', 00H
	ORG $+2
$SG221878 DB	'ResourceType', 00H
	ORG $+3
$SG221879 DB	'Resource_Flavors', 00H
	ORG $+3
$SG221880 DB	'ResourceType', 00H
	ORG $+3
$SG221881 DB	'TerrainType', 00H
$SG221882 DB	'Resource_TerrainBooleans', 00H
	ORG $+3
$SG221883 DB	'Terrains', 00H
	ORG $+3
$SG221884 DB	'ResourceType', 00H
	ORG $+3
$SG221885 DB	'FeatureType', 00H
$SG221886 DB	'Resource_FeatureBooleans', 00H
	ORG $+3
$SG221887 DB	'Features', 00H
	ORG $+3
$SG221888 DB	'ResourceType', 00H
	ORG $+3
$SG221889 DB	'TerrainType', 00H
$SG221890 DB	'Resource_FeatureTerrainBooleans', 00H
$SG221891 DB	'Terrains', 00H
	ORG $+3
$SG221895 DB	'select Quantity from Resource_QuantityTypes where Resour'
	DB	'ceType = ''%s'';', 00H
	ORG $+1
$SG221903 DB	'Resource_UnitCombatProductionCostModifiersLocal', 00H
$SG221907 DB	'select UnitCombatInfos.ID as UnitCombatInfosID, Required'
	DB	'Era, ObsoleteEra, CostModifier from Resource_UnitCombatProduc'
	DB	'tionCostModifiersLocal inner join UnitCombatInfos on UnitComb'
	DB	'atType = UnitCombatInfos.Type where ResourceType = ?', 00H
	ORG $+1
$SG221935 DB	'Resource_BuildingProductionCostModifiersLocal', 00H
	ORG $+2
$SG221939 DB	'select RequiredEra, ObsoleteEra, CostModifier from Resou'
	DB	'rce_BuildingProductionCostModifiersLocal where ResourceType ='
	DB	' ?', 00H
$SG222100 DB	'ArtDefineTag', 00H
	ORG $+3
$SG222101 DB	'StartingLocationWeight', 00H
	ORG $+1
$SG222102 DB	'Movement', 00H
	ORG $+3
$SG222103 DB	'SeeThrough', 00H
	ORG $+1
$SG222104 DB	'Defense', 00H
$SG222105 DB	'InfluenceCost', 00H
	ORG $+2
$SG222106 DB	'AdvancedStartRemoveCost', 00H
$SG222107 DB	'TurnDamage', 00H
	ORG $+1
$SG222108 DB	'AppearanceProbability', 00H
	ORG $+2
$SG222109 DB	'DisappearanceProbability', 00H
	ORG $+3
$SG222110 DB	'Growth', 00H
	ORG $+1
$SG222111 DB	'FirstFinderGold', 00H
$SG222112 DB	'InBorderHappiness', 00H
	ORG $+2
$SG222113 DB	'OccurrenceFrequency', 00H
$SG222115 DB	'AdjacentUnitFreePromotion', 00H
	ORG $+2
$SG222117 DB	'GrowthTerrainType', 00H
	ORG $+2
$SG222119 DB	'EffectProbability', 00H
	ORG $+2
$SG222120 DB	'YieldNotAdditive', 00H
	ORG $+3
$SG222121 DB	'NoCoast', 00H
$SG222122 DB	'NoRiver', 00H
$SG222123 DB	'NoAdjacent', 00H
	ORG $+1
$SG222124 DB	'RequiresFlatlands', 00H
	ORG $+2
$SG222125 DB	'RequiresRiver', 00H
	ORG $+2
$SG222126 DB	'AddsFreshWater', 00H
	ORG $+1
$SG222127 DB	'Impassable', 00H
	ORG $+1
$SG222128 DB	'NoCity', 00H
	ORG $+1
$SG222129 DB	'NoImprovement', 00H
	ORG $+2
$SG222130 DB	'VisibleAlways', 00H
	ORG $+2
$SG222131 DB	'NukeImmune', 00H
	ORG $+1
$SG222132 DB	'Rough', 00H
	ORG $+2
$SG222133 DB	'NaturalWonder', 00H
	ORG $+2
$SG222134 DB	'EffectType', 00H
	ORG $+1
$SG222135 DB	'EffectTypeTag', 00H
	ORG $+2
$SG222137 DB	'WorldSoundscapeAudioScript', 00H
	ORG $+1
$SG222140 DB	'Warning: Missing soundscape definition in XML for featur'
	DB	'e: ''%s''', 00H
$SG222142 DB	'FeatureType', 00H
$SG222143 DB	'Feature_YieldChanges', 00H
	ORG $+3
$SG222144 DB	'FeatureType', 00H
$SG222145 DB	'Feature_RiverYieldChanges', 00H
	ORG $+2
$SG222146 DB	'FeatureType', 00H
$SG222147 DB	'Feature_HillsYieldChanges', 00H
	ORG $+2
$SG222148 DB	'FeatureType', 00H
$SG222149 DB	'TerrainType', 00H
$SG222150 DB	'Feature_TerrainBooleans', 00H
$SG222151 DB	'Terrains', 00H
	ORG $+3
$SG222197 DB	'HillsChange', 00H
$SG222198 DB	'MountainChange', 00H
	ORG $+1
$SG222199 DB	'LakeChange', 00H
	ORG $+1
$SG222200 DB	'CityChange', 00H
	ORG $+1
$SG222201 DB	'PopulationChangeOffset', 00H
	ORG $+1
$SG222202 DB	'PopulationChangeDivisor', 00H
$SG222203 DB	'MinCity', 00H
$SG222204 DB	'MinCityOnHillsAdjust', 00H
	ORG $+3
$SG222205 DB	'GoldenAgeYield', 00H
	ORG $+1
$SG222206 DB	'GoldenAgeYieldThreshold', 00H
$SG222207 DB	'GoldenAgeYieldMod', 00H
	ORG $+2
$SG222208 DB	'AIWeightPercent', 00H
$SG222287 DB	'ArtDefineTag', 00H
	ORG $+3
$SG222288 DB	'Water', 00H
	ORG $+2
$SG222289 DB	'Impassable', 00H
	ORG $+1
$SG222290 DB	'Found', 00H
	ORG $+2
$SG222291 DB	'FoundCoast', 00H
	ORG $+1
$SG222292 DB	'FoundFreshWater', 00H
$SG222293 DB	'Movement', 00H
	ORG $+3
$SG222294 DB	'SeeFrom', 00H
$SG222295 DB	'SeeThrough', 00H
	ORG $+1
$SG222296 DB	'BuildModifier', 00H
	ORG $+2
$SG222297 DB	'Defense', 00H
$SG222298 DB	'InfluenceCost', 00H
	ORG $+2
$SG222300 DB	'WorldSoundscapeAudioScript', 00H
	ORG $+5
$SG222303 DB	'Warning: Missing soundscape definition in XML for featur'
	DB	'e: ''%s''', 00H
$SG222305 DB	'TerrainType', 00H
$SG222306 DB	'Terrain_Yields', 00H
	ORG $+1
$SG222307 DB	'TerrainType', 00H
$SG222308 DB	'Terrain_RiverYieldChanges', 00H
	ORG $+2
$SG222309 DB	'TerrainType', 00H
$SG222310 DB	'Terrain_HillsYieldChanges', 00H
	ORG $+2
$SG222311 DB	'EffectTypeTag', 00H
	ORG $+2
$SG222340 DB	'CursorType', 00H
	ORG $+1
$SG222342 DB	'Mission', 00H
$SG222343 DB	'Visible', 00H
$SG222344 DB	'HighlightPlot', 00H
	ORG $+2
$SG222345 DB	'SelectType', 00H
	ORG $+1
$SG222346 DB	'SelectAll', 00H
	ORG $+2
$SG222429 DB	'ArtDefineTag', 00H
	ORG $+3
$SG222430 DB	'VictoryCompetitiveness', 00H
	ORG $+1
$SG222431 DB	'WonderCompetitiveness', 00H
	ORG $+2
$SG222432 DB	'MinorCivCompetitiveness', 00H
$SG222433 DB	'Boldness', 00H
	ORG $+3
$SG222434 DB	'DiploBalance', 00H
	ORG $+3
$SG222435 DB	'WarmongerHate', 00H
	ORG $+2
$SG222436 DB	'DenounceWillingness', 00H
$SG222437 DB	'DoFWillingness', 00H
	ORG $+1
$SG222438 DB	'Loyalty', 00H
$SG222439 DB	'Neediness', 00H
	ORG $+2
$SG222440 DB	'Forgiveness', 00H
$SG222441 DB	'Chattiness', 00H
	ORG $+1
$SG222442 DB	'Meanness', 00H
	ORG $+3
$SG222444 DB	'LeaderType', 00H
	ORG $+1
$SG222445 DB	'Leader_Flavors', 00H
	ORG $+1
$SG222446 DB	'Bias', 00H
	ORG $+3
$SG222447 DB	'LeaderType', 00H
	ORG $+1
$SG222448 DB	'MajorCivApproachType', 00H
	ORG $+3
$SG222449 DB	'Leader_MajorCivApproachBiases', 00H
	ORG $+2
$SG222450 DB	'MajorCivApproachTypes', 00H
	ORG $+2
$SG222451 DB	'Bias', 00H
	ORG $+3
$SG222452 DB	'LeaderType', 00H
	ORG $+1
$SG222453 DB	'MinorCivApproachType', 00H
	ORG $+3
$SG222454 DB	'Leader_MinorCivApproachBiases', 00H
	ORG $+2
$SG222455 DB	'MinorCivApproachTypes', 00H
	ORG $+2
$SG222456 DB	'LeaderType', 00H
	ORG $+1
$SG222457 DB	'TraitType', 00H
	ORG $+2
$SG222458 DB	'Leader_Traits', 00H
	ORG $+2
$SG222459 DB	'Traits', 00H
	ORG $+1
$SG222500 DB	'GAMEOPTION_ALLOW_EXTRA_RELIGIONS', 00H
	ORG $+3
$SG222555 DB	'DefaultPlayers', 00H
	ORG $+1
$SG222556 DB	'DefaultMinorCivs', 00H
	ORG $+3
$SG222557 DB	'FogTilesPerBarbarianCamp', 00H
	ORG $+3
$SG222558 DB	'NumNaturalWonders', 00H
	ORG $+2
$SG222559 DB	'UnitNameModifier', 00H
	ORG $+3
$SG222560 DB	'TargetNumCities', 00H
$SG222561 DB	'NumFreeBuildingResources', 00H
	ORG $+3
$SG222562 DB	'BuildingClassPrereqModifier', 00H
$SG222563 DB	'MaxConscriptModifier', 00H
	ORG $+3
$SG222564 DB	'GridWidth', 00H
	ORG $+2
$SG222565 DB	'GridHeight', 00H
	ORG $+1
$SG222566 DB	'MaxActiveReligions', 00H
	ORG $+1
$SG222567 DB	'TerrainGrainChange', 00H
	ORG $+1
$SG222568 DB	'FeatureGrainChange', 00H
	ORG $+1
$SG222569 DB	'ResearchPercent', 00H
$SG222570 DB	'AdvancedStartPointsMod', 00H
	ORG $+1
$SG222571 DB	'NumCitiesUnhappinessPercent', 00H
$SG222572 DB	'NumCitiesPolicyCostMod', 00H
	ORG $+1
$SG222573 DB	'NumCitiesTechCostMod', 00H
	ORG $+3
$SG222574 DB	'EstimatedNumCities', 00H
	ORG $+1
$SG222637 DB	'DesertPercentChange', 00H
$SG222638 DB	'JungleLatitude', 00H
	ORG $+1
$SG222639 DB	'HillRange', 00H
	ORG $+2
$SG222640 DB	'MountainPercent', 00H
$SG222641 DB	'SnowLatitudeChange', 00H
	ORG $+1
$SG222642 DB	'TundraLatitudeChange', 00H
	ORG $+3
$SG222643 DB	'GrassLatitudeChange', 00H
$SG222644 DB	'DesertBottomLatitudeChange', 00H
	ORG $+1
$SG222645 DB	'DesertTopLatitudeChange', 00H
$SG222646 DB	'IceLatitude', 00H
$SG222647 DB	'RandIceLatitude', 00H
$SG222684 DB	'SeaLevelChange', 00H
	ORG $+1
$SG222729 DB	'TechPrereq', 00H
	ORG $+1
$SG222731 DB	'ProcessType', 00H
$SG222732 DB	'Process_ProductionYields', 00H
	ORG $+3
$SG222733 DB	'ProcessType', 00H
$SG222734 DB	'Process_Flavors', 00H
$SG222794 DB	'PopulationThreshold', 00H
$SG222795 DB	'MinVoters', 00H
	ORG $+2
$SG222796 DB	'SecretaryGeneral', 00H
	ORG $+3
$SG222797 DB	'Victory', 00H
$SG222798 DB	'NoNukes', 00H
$SG222799 DB	'CityVoting', 00H
	ORG $+1
$SG222800 DB	'CivVoting', 00H
	ORG $+2
$SG222801 DB	'DefensivePact', 00H
	ORG $+2
$SG222802 DB	'OpenBorders', 00H
$SG222803 DB	'ForcePeace', 00H
	ORG $+1
$SG222804 DB	'ForceNoTrade', 00H
	ORG $+3
$SG222805 DB	'ForceWar', 00H
	ORG $+3
$SG222806 DB	'AssignCity', 00H
	ORG $+1
$SG222808 DB	'VoteType', 00H
	ORG $+3
$SG222809 DB	'DiploVoteType', 00H
	ORG $+2
$SG222810 DB	'Vote_DiploVotes', 00H
$SG222811 DB	'VoteSources', 00H
$SG222821 DB	'UpdateFormation', 00H
$SG222824 DB	'EntityEventInfo - AnimationPaths', 00H
	ORG $+7
$SG222827 DB	'select AnimationPaths.ID from EntityEvent_AnimationPaths'
	DB	' inner join AnimationPaths on AnimationPathType = AnimationPa'
	DB	'ths.Type where EntityEventType = ?', 00H
$SG222987 DB	'NoGoodies', 00H
	ORG $+2
$SG222988 DB	'NoBarbUnits', 00H
$SG222989 DB	'NoReligion', 00H
	ORG $+1
$SG222990 DB	'StartingUnitMultiplier', 00H
	ORG $+1
$SG222991 DB	'StartingDefenseUnits', 00H
	ORG $+3
$SG222992 DB	'StartingWorkerUnits', 00H
$SG222993 DB	'StartingExploreUnits', 00H
	ORG $+3
$SG222994 DB	'ResearchAgreementCost', 00H
	ORG $+2
$SG222995 DB	'EmbarkedUnitDefense', 00H
$SG222996 DB	'StartingGold', 00H
	ORG $+3
$SG222997 DB	'StartingCulture', 00H
$SG222998 DB	'FreePopulation', 00H
	ORG $+1
$SG222999 DB	'LaterEraBuildingConstructMod', 00H
	ORG $+3
$SG223000 DB	'StartPercent', 00H
	ORG $+3
$SG223001 DB	'BuildingMaintenancePercent', 00H
	ORG $+1
$SG223002 DB	'GrowthPercent', 00H
	ORG $+2
$SG223003 DB	'TrainPercent', 00H
	ORG $+3
$SG223004 DB	'ConstructPercent', 00H
	ORG $+3
$SG223005 DB	'CreatePercent', 00H
	ORG $+2
$SG223006 DB	'ResearchPercent', 00H
$SG223007 DB	'BuildPercent', 00H
	ORG $+3
$SG223008 DB	'ImprovementPercent', 00H
	ORG $+1
$SG223009 DB	'GreatPeoplePercent', 00H
	ORG $+1
$SG223010 DB	'EventChancePerTurn', 00H
	ORG $+1
$SG223011 DB	'SpiesGrantedForPlayer', 00H
	ORG $+2
$SG223012 DB	'SpiesGrantedForEveryone', 00H
$SG223013 DB	'FaithCostMultiplier', 00H
$SG223014 DB	'DiploEmphasisReligion', 00H
	ORG $+2
$SG223015 DB	'DiploEmphasisLatePolicies', 00H
	ORG $+2
$SG223016 DB	'TradeRouteFoodBonusTimes100', 00H
$SG223017 DB	'TradeRouteProductionBonusTimes100', 00H
	ORG $+2
$SG223018 DB	'LeaguePercent', 00H
	ORG $+2
$SG223019 DB	'WarmongerPercent', 00H
	ORG $+3
$SG223020 DB	'CityBombardEffectTag', 00H
	ORG $+3
$SG223021 DB	'AudioUnitVictoryScript', 00H
	ORG $+1
$SG223022 DB	'AudioUnitDefeatScript', 00H
	ORG $+2
$SG223023 DB	'ArtPrefix', 00H
	ORG $+2
$SG223024 DB	'ShortDescription', 00H
	ORG $+3
$SG223025 DB	'Abbreviation', 00H
	ORG $+3
$SG223027 DB	'Era - NewEraVOs', 00H
$SG223030 DB	'select VOScript from Era_NewEraVOs where EraType = ?', 00H
	ORG $+3
$SG223045 DB	'Alpha', 00H
	ORG $+2
$SG223046 DB	'Blue', 00H
	ORG $+3
$SG223047 DB	'Green', 00H
	ORG $+2
$SG223048 DB	'Red', 00H
$SG223068 DB	'select PrimaryColor.ID, SecondaryColor.ID, TextColor.ID '
	DB	'FROM PlayerColors INNER JOIN Colors As PrimaryColor ON Player'
	DB	'Colors.PrimaryColor = PrimaryColor.Type, Colors AS SecondaryC'
	DB	'olor ON PlayerColors.SecondaryColor = SecondaryColor.Type, Co'
	DB	'lors AS TextColor ON PlayerColors.TextColor = TextColor.Type '
	DB	'where PlayerColors.ID = ? LIMIT 1; ', 00H
$SG223070 DB	'ColorsLookup', 00H
	ORG $+3
$SG223092 DB	'Default', 00H
$SG223093 DB	'Visible', 00H
$SG223106 DB	'Default', 00H
$SG223119 DB	'Default', 00H
$SG223151 DB	'VoteInterval', 00H
	ORG $+3
$SG223153 DB	'PopupText', 00H
	ORG $+2
$SG223155 DB	'SecretaryGeneralText', 00H
	ORG $+3
$SG223158 DB	'FreeSpecialist', 00H
	ORG $+1
$SG223160 DB	'Policy', 00H
CONST	ENDS
PUBLIC	?Remark@@YA_NHPBDZZ				; Remark
; Function compile flags: /Ogtpy
; File c:\users\enormousapplepie\documents\github\lekmod\lekmod_dll\cvgamecoredll_expansion2\cvinfos.cpp
;	COMDAT ?Remark@@YA_NHPBDZZ
_TEXT	SEGMENT
___formal$ = 8						; size = 4
___formal$ = 12						; size = 4
?Remark@@YA_NHPBDZZ PROC				; Remark, COMDAT

; 32   : REMARK_GROUP("CvInfos");

	xor	al, al
	ret	0
?Remark@@YA_NHPBDZZ ENDP				; Remark
_TEXT	ENDS
PUBLIC	?CacheResult@CvBaseInfo@@QAE_NAAVResults@Database@@@Z ; CvBaseInfo::CacheResult
EXTRN	??1CvDatabaseUtility@@QAE@XZ:PROC		; CvDatabaseUtility::~CvDatabaseUtility
EXTRN	??0CvDatabaseUtility@@QAE@XZ:PROC		; CvDatabaseUtility::CvDatabaseUtility
EXTRN	___CxxFrameHandler3:PROC
;	COMDAT xdata$x
xdata$x	SEGMENT
__unwindtable$?CacheResult@CvBaseInfo@@QAE_NAAVResults@Database@@@Z DD 0ffffffffH
	DD	FLAT:__unwindfunclet$?CacheResult@CvBaseInfo@@QAE_NAAVResults@Database@@@Z$0
__ehfuncinfo$?CacheResult@CvBaseInfo@@QAE_NAAVResults@Database@@@Z DD 019930522H
	DD	01H
	DD	FLAT:__unwindtable$?CacheResult@CvBaseInfo@@QAE_NAAVResults@Database@@@Z
	DD	2 DUP(00H)
	DD	2 DUP(00H)
	DD	00H
	DD	01H
; Function compile flags: /Ogtpy
xdata$x	ENDS
;	COMDAT ?CacheResult@CvBaseInfo@@QAE_NAAVResults@Database@@@Z
_TEXT	SEGMENT
_kUtility$ = -56					; size = 44
__$EHRec$ = -12						; size = 12
_kResults$ = 8						; size = 4
?CacheResult@CvBaseInfo@@QAE_NAAVResults@Database@@@Z PROC ; CvBaseInfo::CacheResult, COMDAT
; _this$ = ecx

; 42   : {

	push	-1
	push	__ehhandler$?CacheResult@CvBaseInfo@@QAE_NAAVResults@Database@@@Z
	mov	eax, DWORD PTR fs:0
	push	eax
	mov	DWORD PTR fs:0, esp
	sub	esp, 44					; 0000002cH
	push	ebx
	push	esi
	mov	esi, ecx

; 43   : 	CvDatabaseUtility kUtility;

	lea	ecx, DWORD PTR _kUtility$[esp+64]
	call	??0CvDatabaseUtility@@QAE@XZ		; CvDatabaseUtility::CvDatabaseUtility

; 44   : 	return CacheResults(kResults, kUtility);

	mov	eax, DWORD PTR [esi]
	mov	edx, DWORD PTR _kResults$[esp+60]
	mov	eax, DWORD PTR [eax]
	lea	ecx, DWORD PTR _kUtility$[esp+64]
	push	ecx
	push	edx
	mov	ecx, esi
	mov	DWORD PTR __$EHRec$[esp+80], 0
	call	eax
	lea	ecx, DWORD PTR _kUtility$[esp+64]
	mov	bl, al
	mov	DWORD PTR __$EHRec$[esp+72], -1
	call	??1CvDatabaseUtility@@QAE@XZ		; CvDatabaseUtility::~CvDatabaseUtility

; 45   : }

	mov	ecx, DWORD PTR __$EHRec$[esp+64]
	pop	esi
	mov	al, bl
	pop	ebx
	mov	DWORD PTR fs:0, ecx
	add	esp, 56					; 00000038H
	ret	4
_TEXT	ENDS
;	COMDAT text$x
text$x	SEGMENT
__unwindfunclet$?CacheResult@CvBaseInfo@@QAE_NAAVResults@Database@@@Z$0:
	lea	ecx, DWORD PTR _kUtility$[ebp]
	jmp	??1CvDatabaseUtility@@QAE@XZ		; CvDatabaseUtility::~CvDatabaseUtility
__ehhandler$?CacheResult@CvBaseInfo@@QAE_NAAVResults@Database@@@Z:
	mov	eax, OFFSET __ehfuncinfo$?CacheResult@CvBaseInfo@@QAE_NAAVResults@Database@@@Z
	jmp	___CxxFrameHandler3
text$x	ENDS
?CacheResult@CvBaseInfo@@QAE_NAAVResults@Database@@@Z ENDP ; CvBaseInfo::CacheResult
PUBLIC	?GetText@CvBaseInfo@@QBEPBDXZ			; CvBaseInfo::GetText
EXTRN	__imp_?c_str@?$basic_string@DU?$char_traits@D@std@@V?$allocator@D@2@@std@@QBEPBDXZ:PROC
EXTRN	__imp_?empty@?$basic_string@DU?$char_traits@D@std@@V?$allocator@D@2@@std@@QBE_NXZ:PROC
; Function compile flags: /Ogtpy
;	COMDAT ?GetText@CvBaseInfo@@QBEPBDXZ
_TEXT	SEGMENT
?GetText@CvBaseInfo@@QBEPBDXZ PROC			; CvBaseInfo::GetText, COMDAT
; _this$ = ecx

; 79   : {

	push	esi

; 80   : 	return (m_strText.empty())? NULL : m_strText.c_str();

	lea	esi, DWORD PTR [ecx+232]
	mov	ecx, esi
	call	DWORD PTR __imp_?empty@?$basic_string@DU?$char_traits@D@std@@V?$allocator@D@2@@std@@QBE_NXZ
	test	al, al
	je	SHORT $LN3@GetText
	xor	eax, eax
	pop	esi

; 81   : }

	ret	0
$LN3@GetText:

; 80   : 	return (m_strText.empty())? NULL : m_strText.c_str();

	mov	ecx, esi
	pop	esi
	jmp	DWORD PTR __imp_?c_str@?$basic_string@DU?$char_traits@D@std@@V?$allocator@D@2@@std@@QBEPBDXZ
?GetText@CvBaseInfo@@QBEPBDXZ ENDP			; CvBaseInfo::GetText
_TEXT	ENDS
PUBLIC	?GetTextKey@CvBaseInfo@@QBEPBDXZ		; CvBaseInfo::GetTextKey
; Function compile flags: /Ogtpy
;	COMDAT ?GetTextKey@CvBaseInfo@@QBEPBDXZ
_TEXT	SEGMENT
?GetTextKey@CvBaseInfo@@QBEPBDXZ PROC			; CvBaseInfo::GetTextKey, COMDAT
; _this$ = ecx

; 84   : {

	push	esi

; 85   : 	return (m_strTextKey.empty())? NULL : m_strTextKey.c_str();

	lea	esi, DWORD PTR [ecx+204]
	mov	ecx, esi
	call	DWORD PTR __imp_?empty@?$basic_string@DU?$char_traits@D@std@@V?$allocator@D@2@@std@@QBE_NXZ
	test	al, al
	je	SHORT $LN3@GetTextKey
	xor	eax, eax
	pop	esi

; 86   : }

	ret	0
$LN3@GetTextKey:

; 85   : 	return (m_strTextKey.empty())? NULL : m_strTextKey.c_str();

	mov	ecx, esi
	pop	esi
	jmp	DWORD PTR __imp_?c_str@?$basic_string@DU?$char_traits@D@std@@V?$allocator@D@2@@std@@QBEPBDXZ
?GetTextKey@CvBaseInfo@@QBEPBDXZ ENDP			; CvBaseInfo::GetTextKey
_TEXT	ENDS
PUBLIC	??8CvBaseInfo@@UBE_NABV0@@Z			; CvBaseInfo::operator==
EXTRN	__imp_??$?9DU?$char_traits@D@std@@V?$allocator@D@1@@std@@YA_NABV?$basic_string@DU?$char_traits@D@std@@V?$allocator@D@2@@0@0@Z:PROC
; Function compile flags: /Ogtpy
;	COMDAT ??8CvBaseInfo@@UBE_NABV0@@Z
_TEXT	SEGMENT
_rhs$ = 8						; size = 4
??8CvBaseInfo@@UBE_NABV0@@Z PROC			; CvBaseInfo::operator==, COMDAT
; _this$ = ecx

; 89   : {

	push	esi
	push	edi

; 90   : 	if(this == &rhs) return true;

	mov	edi, DWORD PTR _rhs$[esp+4]
	mov	esi, ecx
	cmp	esi, edi
	jne	SHORT $LN10@operator
	pop	edi
	mov	al, 1
	pop	esi

; 100  : 	return true;
; 101  : }

	ret	4
$LN10@operator:

; 91   : 	if(m_iID != rhs.m_iID) return false;

	mov	eax, DWORD PTR [esi+4]
	cmp	eax, DWORD PTR [edi+4]
	je	SHORT $LN9@operator
	pop	edi
	xor	al, al
	pop	esi

; 100  : 	return true;
; 101  : }

	ret	4
$LN9@operator:
	push	ebx

; 92   : 	if(m_strCivilopedia != rhs.m_strCivilopedia) return false;

	mov	ebx, DWORD PTR __imp_??$?9DU?$char_traits@D@std@@V?$allocator@D@1@@std@@YA_NABV?$basic_string@DU?$char_traits@D@std@@V?$allocator@D@2@@0@0@Z
	lea	ecx, DWORD PTR [edi+8]
	push	ecx
	lea	edx, DWORD PTR [esi+8]
	push	edx
	call	ebx
	add	esp, 8
	test	al, al
	jne	SHORT $LN14@operator

; 93   : 	if(m_strDescription != rhs.m_strDescription) return false;

	lea	eax, DWORD PTR [edi+36]
	push	eax
	lea	ecx, DWORD PTR [esi+36]
	push	ecx
	call	ebx
	add	esp, 8
	test	al, al
	jne	SHORT $LN14@operator

; 94   : 	if(m_strHelp != rhs.m_strHelp) return false;

	lea	edx, DWORD PTR [edi+92]
	push	edx
	lea	eax, DWORD PTR [esi+92]
	push	eax
	call	ebx
	add	esp, 8
	test	al, al
	jne	SHORT $LN14@operator

; 95   : 	if(m_strDisabledHelp != rhs.m_strDisabledHelp) return false;

	lea	ecx, DWORD PTR [edi+120]
	push	ecx
	lea	edx, DWORD PTR [esi+120]
	push	edx
	call	ebx
	add	esp, 8
	test	al, al
	jne	SHORT $LN14@operator

; 96   : 	if(m_strStrategy != rhs.m_strStrategy) return false;

	lea	eax, DWORD PTR [edi+148]
	push	eax
	lea	ecx, DWORD PTR [esi+148]
	push	ecx
	call	ebx
	add	esp, 8
	test	al, al
	jne	SHORT $LN14@operator

; 97   : 	if(m_strType != rhs.m_strType) return false;

	lea	edx, DWORD PTR [edi+176]
	push	edx
	lea	eax, DWORD PTR [esi+176]
	push	eax
	call	ebx
	add	esp, 8
	test	al, al
	jne	SHORT $LN14@operator

; 98   : 	if(m_strTextKey != rhs.m_strTextKey) return false;

	lea	ecx, DWORD PTR [edi+204]
	push	ecx
	lea	edx, DWORD PTR [esi+204]
	push	edx
	call	ebx
	add	esp, 8
	test	al, al
	je	SHORT $LN2@operator
$LN14@operator:
	pop	ebx
	pop	edi
	xor	al, al
	pop	esi

; 100  : 	return true;
; 101  : }

	ret	4
$LN2@operator:

; 99   : 	if(m_strText != rhs.m_strText) return false;

	add	edi, 232				; 000000e8H
	push	edi
	add	esi, 232				; 000000e8H
	push	esi
	call	ebx
	add	esp, 8
	pop	ebx
	test	al, al
	pop	edi
	sete	al
	pop	esi

; 100  : 	return true;
; 101  : }

	ret	4
??8CvBaseInfo@@UBE_NABV0@@Z ENDP			; CvBaseInfo::operator==
_TEXT	ENDS
PUBLIC	??6@YAAAVFDataStream@@AAV0@ABVCvBaseInfo@@@Z	; operator<<
; Function compile flags: /Ogtpy
;	COMDAT ??6@YAAAVFDataStream@@AAV0@ABVCvBaseInfo@@@Z
_TEXT	SEGMENT
_saveTo$ = 8						; size = 4
_readFrom$ = 12						; size = 4
??6@YAAAVFDataStream@@AAV0@ABVCvBaseInfo@@@Z PROC	; operator<<, COMDAT

; 131  : 	readFrom.writeTo(saveTo);

	mov	ecx, DWORD PTR _readFrom$[esp-4]
	mov	eax, DWORD PTR [ecx]
	mov	edx, DWORD PTR [eax+12]
	push	esi
	mov	esi, DWORD PTR _saveTo$[esp]
	push	esi
	call	edx

; 132  : 	return saveTo;

	mov	eax, esi
	pop	esi

; 133  : }

	ret	0
??6@YAAAVFDataStream@@AAV0@ABVCvBaseInfo@@@Z ENDP	; operator<<
_TEXT	ENDS
PUBLIC	??5@YAAAVFDataStream@@AAV0@AAVCvBaseInfo@@@Z	; operator>>
; Function compile flags: /Ogtpy
;	COMDAT ??5@YAAAVFDataStream@@AAV0@AAVCvBaseInfo@@@Z
_TEXT	SEGMENT
_loadFrom$ = 8						; size = 4
_writeTo$ = 12						; size = 4
??5@YAAAVFDataStream@@AAV0@AAVCvBaseInfo@@@Z PROC	; operator>>, COMDAT

; 137  : 	writeTo.readFrom(loadFrom);

	mov	ecx, DWORD PTR _writeTo$[esp-4]
	mov	eax, DWORD PTR [ecx]
	mov	edx, DWORD PTR [eax+8]
	push	esi
	mov	esi, DWORD PTR _loadFrom$[esp]
	push	esi
	call	edx

; 138  : 	return loadFrom;

	mov	eax, esi
	pop	esi

; 139  : }

	ret	0
??5@YAAAVFDataStream@@AAV0@AAVCvBaseInfo@@@Z ENDP	; operator>>
_TEXT	ENDS
PUBLIC	?GetHotKeyInt@CvHotKeyInfo@@IAEHPBD@Z		; CvHotKeyInfo::GetHotKeyInt
; Function compile flags: /Ogtpy
;	COMDAT ?GetHotKeyInt@CvHotKeyInfo@@IAEHPBD@Z
_TEXT	SEGMENT
_asCvKeyBoardMapping$ = -3456				; size = 3456
_pszHotKeyVal$ = 8					; size = 4
?GetHotKeyInt@CvHotKeyInfo@@IAEHPBD@Z PROC		; CvHotKeyInfo::GetHotKeyInt, COMDAT
; _this$ = ecx

; 169  : {

	sub	esp, 3456				; 00000d80H

; 186  : 		{"KB_4",FKBInputDevice::KB_4},

	push	ebx

; 187  : 		{"KB_5",FKBInputDevice::KB_5},

	push	esi

; 188  : 		{"KB_6",FKBInputDevice::KB_6},

	push	edi

; 170  : 	// SPEEDUP
; 171  : 	struct CvKeyBoardMapping
; 172  : 	{
; 173  : 		char szDefineString[25];
; 174  : 		int iIntVal;
; 175  : 	};
; 176  : 
; 177  : 
; 178  : 	const int iNumKeyBoardMappings=108;
; 179  : 	const CvKeyBoardMapping asCvKeyBoardMapping[iNumKeyBoardMappings] =
; 180  : 	{
; 181  : 		{"KB_ESCAPE",FKBInputDevice::KB_ESCAPE},

	mov	eax, DWORD PTR $SG218686
	movzx	edx, WORD PTR $SG218686+8
	mov	ecx, DWORD PTR $SG218686+4
	mov	DWORD PTR _asCvKeyBoardMapping$[esp+3468], eax
	xor	eax, eax
	mov	DWORD PTR _asCvKeyBoardMapping$[esp+3478], eax
	mov	DWORD PTR _asCvKeyBoardMapping$[esp+3482], eax
	mov	DWORD PTR _asCvKeyBoardMapping$[esp+3486], eax
	mov	WORD PTR _asCvKeyBoardMapping$[esp+3490], ax
	mov	BYTE PTR _asCvKeyBoardMapping$[esp+3492], al

; 182  : 		{"KB_0",FKBInputDevice::KB_0},

	mov	eax, DWORD PTR $SG218687
	mov	DWORD PTR _asCvKeyBoardMapping$[esp+3500], eax
	xor	eax, eax
	mov	DWORD PTR _asCvKeyBoardMapping$[esp+3505], eax
	mov	DWORD PTR _asCvKeyBoardMapping$[esp+3509], eax
	mov	DWORD PTR _asCvKeyBoardMapping$[esp+3513], eax
	mov	DWORD PTR _asCvKeyBoardMapping$[esp+3517], eax
	mov	DWORD PTR _asCvKeyBoardMapping$[esp+3521], eax

; 183  : 		{"KB_1",FKBInputDevice::KB_1},

	movzx	eax, BYTE PTR $SG218688+4
	mov	BYTE PTR _asCvKeyBoardMapping$[esp+3536], al
	xor	eax, eax
	mov	DWORD PTR _asCvKeyBoardMapping$[esp+3472], ecx
	movzx	ecx, BYTE PTR $SG218687+4
	mov	WORD PTR _asCvKeyBoardMapping$[esp+3476], dx
	mov	edx, DWORD PTR $SG218688
	mov	DWORD PTR _asCvKeyBoardMapping$[esp+3537], eax
	mov	DWORD PTR _asCvKeyBoardMapping$[esp+3541], eax
	mov	DWORD PTR _asCvKeyBoardMapping$[esp+3545], eax
	mov	DWORD PTR _asCvKeyBoardMapping$[esp+3549], eax
	mov	DWORD PTR _asCvKeyBoardMapping$[esp+3553], eax

; 184  : 		{"KB_2",FKBInputDevice::KB_2},

	mov	DWORD PTR _asCvKeyBoardMapping$[esp+3569], eax
	mov	DWORD PTR _asCvKeyBoardMapping$[esp+3573], eax
	mov	DWORD PTR _asCvKeyBoardMapping$[esp+3577], eax
	mov	DWORD PTR _asCvKeyBoardMapping$[esp+3581], eax
	mov	DWORD PTR _asCvKeyBoardMapping$[esp+3585], eax

; 185  : 		{"KB_3",FKBInputDevice::KB_3},

	mov	eax, DWORD PTR $SG218690
	mov	DWORD PTR _asCvKeyBoardMapping$[esp+3532], edx
	movzx	edx, BYTE PTR $SG218689+4
	mov	DWORD PTR _asCvKeyBoardMapping$[esp+3596], eax
	xor	eax, eax
	mov	BYTE PTR _asCvKeyBoardMapping$[esp+3504], cl
	mov	ecx, DWORD PTR $SG218689
	mov	DWORD PTR _asCvKeyBoardMapping$[esp+3601], eax
	mov	DWORD PTR _asCvKeyBoardMapping$[esp+3605], eax
	mov	DWORD PTR _asCvKeyBoardMapping$[esp+3609], eax
	mov	DWORD PTR _asCvKeyBoardMapping$[esp+3613], eax
	mov	DWORD PTR _asCvKeyBoardMapping$[esp+3617], eax

; 186  : 		{"KB_4",FKBInputDevice::KB_4},

	movzx	eax, BYTE PTR $SG218691+4
	mov	DWORD PTR _asCvKeyBoardMapping$[esp+3564], ecx
	movzx	ecx, BYTE PTR $SG218690+4
	mov	BYTE PTR _asCvKeyBoardMapping$[esp+3568], dl
	mov	edx, DWORD PTR $SG218691
	mov	DWORD PTR _asCvKeyBoardMapping$[esp+3628], edx

; 187  : 		{"KB_5",FKBInputDevice::KB_5},

	movzx	edx, BYTE PTR $SG218692+4
	mov	BYTE PTR _asCvKeyBoardMapping$[esp+3632], al
	xor	eax, eax
	mov	BYTE PTR _asCvKeyBoardMapping$[esp+3600], cl
	mov	ecx, DWORD PTR $SG218692
	mov	DWORD PTR _asCvKeyBoardMapping$[esp+3633], eax
	mov	DWORD PTR _asCvKeyBoardMapping$[esp+3637], eax
	mov	DWORD PTR _asCvKeyBoardMapping$[esp+3641], eax
	mov	DWORD PTR _asCvKeyBoardMapping$[esp+3645], eax
	mov	DWORD PTR _asCvKeyBoardMapping$[esp+3649], eax
	mov	DWORD PTR _asCvKeyBoardMapping$[esp+3665], eax
	mov	DWORD PTR _asCvKeyBoardMapping$[esp+3669], eax
	mov	DWORD PTR _asCvKeyBoardMapping$[esp+3673], eax
	mov	DWORD PTR _asCvKeyBoardMapping$[esp+3677], eax
	mov	DWORD PTR _asCvKeyBoardMapping$[esp+3681], eax

; 188  : 		{"KB_6",FKBInputDevice::KB_6},

	mov	eax, DWORD PTR $SG218693
	mov	DWORD PTR _asCvKeyBoardMapping$[esp+3496], 1
	mov	DWORD PTR _asCvKeyBoardMapping$[esp+3528], 2
	mov	DWORD PTR _asCvKeyBoardMapping$[esp+3560], 3
	mov	DWORD PTR _asCvKeyBoardMapping$[esp+3592], 4
	mov	DWORD PTR _asCvKeyBoardMapping$[esp+3624], 5
	mov	DWORD PTR _asCvKeyBoardMapping$[esp+3656], 6
	mov	DWORD PTR _asCvKeyBoardMapping$[esp+3660], ecx
	mov	BYTE PTR _asCvKeyBoardMapping$[esp+3664], dl
	mov	DWORD PTR _asCvKeyBoardMapping$[esp+3688], 7
	movzx	ecx, BYTE PTR $SG218693+4

; 189  : 		{"KB_7",FKBInputDevice::KB_7},

	mov	edx, DWORD PTR $SG218694
	mov	DWORD PTR _asCvKeyBoardMapping$[esp+3692], eax
	xor	eax, eax
	mov	DWORD PTR _asCvKeyBoardMapping$[esp+3697], eax
	mov	DWORD PTR _asCvKeyBoardMapping$[esp+3701], eax
	mov	DWORD PTR _asCvKeyBoardMapping$[esp+3705], eax
	mov	DWORD PTR _asCvKeyBoardMapping$[esp+3709], eax
	mov	DWORD PTR _asCvKeyBoardMapping$[esp+3713], eax
	movzx	eax, BYTE PTR $SG218694+4
	mov	BYTE PTR _asCvKeyBoardMapping$[esp+3728], al
	xor	eax, eax
	mov	DWORD PTR _asCvKeyBoardMapping$[esp+3729], eax
	mov	DWORD PTR _asCvKeyBoardMapping$[esp+3733], eax
	mov	DWORD PTR _asCvKeyBoardMapping$[esp+3737], eax
	mov	DWORD PTR _asCvKeyBoardMapping$[esp+3741], eax
	mov	DWORD PTR _asCvKeyBoardMapping$[esp+3745], eax

; 190  : 		{"KB_8",FKBInputDevice::KB_8},

	mov	DWORD PTR _asCvKeyBoardMapping$[esp+3761], eax
	mov	DWORD PTR _asCvKeyBoardMapping$[esp+3765], eax
	mov	DWORD PTR _asCvKeyBoardMapping$[esp+3769], eax
	mov	DWORD PTR _asCvKeyBoardMapping$[esp+3773], eax
	mov	DWORD PTR _asCvKeyBoardMapping$[esp+3777], eax

; 191  : 		{"KB_9",FKBInputDevice::KB_9},

	mov	eax, DWORD PTR $SG218696
	mov	DWORD PTR _asCvKeyBoardMapping$[esp+3788], eax
	xor	eax, eax
	mov	BYTE PTR _asCvKeyBoardMapping$[esp+3696], cl
	mov	ecx, DWORD PTR $SG218695
	mov	DWORD PTR _asCvKeyBoardMapping$[esp+3793], eax
	mov	DWORD PTR _asCvKeyBoardMapping$[esp+3797], eax
	mov	DWORD PTR _asCvKeyBoardMapping$[esp+3801], eax
	mov	DWORD PTR _asCvKeyBoardMapping$[esp+3805], eax
	mov	DWORD PTR _asCvKeyBoardMapping$[esp+3809], eax

; 192  : 		{"KB_MINUS",FKBInputDevice::KB_MINUS},	    /* - on main keyboard */

	mov	eax, DWORD PTR $SG218697+4
	mov	DWORD PTR _asCvKeyBoardMapping$[esp+3756], ecx
	movzx	ecx, BYTE PTR $SG218696+4
	mov	DWORD PTR _asCvKeyBoardMapping$[esp+3824], eax
	xor	eax, eax
	mov	DWORD PTR _asCvKeyBoardMapping$[esp+3724], edx
	movzx	edx, BYTE PTR $SG218695+4
	mov	DWORD PTR _asCvKeyBoardMapping$[esp+3829], eax
	mov	DWORD PTR _asCvKeyBoardMapping$[esp+3833], eax
	mov	DWORD PTR _asCvKeyBoardMapping$[esp+3837], eax
	mov	DWORD PTR _asCvKeyBoardMapping$[esp+3841], eax

; 193  : 		{"KB_A",FKBInputDevice::KB_A},

	movzx	eax, BYTE PTR $SG218698+4
	mov	BYTE PTR _asCvKeyBoardMapping$[esp+3792], cl
	movzx	ecx, BYTE PTR $SG218697+8
	mov	BYTE PTR _asCvKeyBoardMapping$[esp+3760], dl
	mov	edx, DWORD PTR $SG218697
	mov	BYTE PTR _asCvKeyBoardMapping$[esp+3856], al
	xor	eax, eax
	mov	DWORD PTR _asCvKeyBoardMapping$[esp+3820], edx
	mov	edx, DWORD PTR $SG218698
	mov	BYTE PTR _asCvKeyBoardMapping$[esp+3828], cl

; 194  : 		{"KB_B",FKBInputDevice::KB_B},

	mov	ecx, DWORD PTR $SG218699
	mov	DWORD PTR _asCvKeyBoardMapping$[esp+3857], eax
	mov	DWORD PTR _asCvKeyBoardMapping$[esp+3861], eax
	mov	DWORD PTR _asCvKeyBoardMapping$[esp+3865], eax
	mov	DWORD PTR _asCvKeyBoardMapping$[esp+3869], eax
	mov	DWORD PTR _asCvKeyBoardMapping$[esp+3873], eax
	mov	DWORD PTR _asCvKeyBoardMapping$[esp+3889], eax
	mov	DWORD PTR _asCvKeyBoardMapping$[esp+3893], eax
	mov	DWORD PTR _asCvKeyBoardMapping$[esp+3897], eax
	mov	DWORD PTR _asCvKeyBoardMapping$[esp+3901], eax
	mov	DWORD PTR _asCvKeyBoardMapping$[esp+3905], eax

; 195  : 		{"KB_C",FKBInputDevice::KB_C},

	mov	eax, DWORD PTR $SG218700
	mov	DWORD PTR _asCvKeyBoardMapping$[esp+3852], edx
	movzx	edx, BYTE PTR $SG218699+4
	mov	DWORD PTR _asCvKeyBoardMapping$[esp+3884], ecx
	movzx	ecx, BYTE PTR $SG218700+4
	mov	DWORD PTR _asCvKeyBoardMapping$[esp+3916], eax
	xor	eax, eax
	mov	DWORD PTR _asCvKeyBoardMapping$[esp+3720], 8
	mov	DWORD PTR _asCvKeyBoardMapping$[esp+3752], 9
	mov	DWORD PTR _asCvKeyBoardMapping$[esp+3784], 10 ; 0000000aH
	mov	DWORD PTR _asCvKeyBoardMapping$[esp+3816], 11 ; 0000000bH
	mov	DWORD PTR _asCvKeyBoardMapping$[esp+3848], 12 ; 0000000cH
	mov	DWORD PTR _asCvKeyBoardMapping$[esp+3880], 13 ; 0000000dH
	mov	BYTE PTR _asCvKeyBoardMapping$[esp+3888], dl
	mov	DWORD PTR _asCvKeyBoardMapping$[esp+3912], 14 ; 0000000eH
	mov	BYTE PTR _asCvKeyBoardMapping$[esp+3920], cl
	mov	DWORD PTR _asCvKeyBoardMapping$[esp+3921], eax

; 196  : 		{"KB_D",FKBInputDevice::KB_D},

	mov	edx, DWORD PTR $SG218701

; 197  : 		{"KB_E",FKBInputDevice::KB_E},

	mov	ecx, DWORD PTR $SG218702
	mov	DWORD PTR _asCvKeyBoardMapping$[esp+3925], eax
	mov	DWORD PTR _asCvKeyBoardMapping$[esp+3929], eax
	mov	DWORD PTR _asCvKeyBoardMapping$[esp+3933], eax
	mov	DWORD PTR _asCvKeyBoardMapping$[esp+3937], eax
	movzx	eax, BYTE PTR $SG218701+4
	mov	BYTE PTR _asCvKeyBoardMapping$[esp+3952], al
	xor	eax, eax
	mov	DWORD PTR _asCvKeyBoardMapping$[esp+3953], eax
	mov	DWORD PTR _asCvKeyBoardMapping$[esp+3957], eax
	mov	DWORD PTR _asCvKeyBoardMapping$[esp+3961], eax
	mov	DWORD PTR _asCvKeyBoardMapping$[esp+3965], eax
	mov	DWORD PTR _asCvKeyBoardMapping$[esp+3969], eax
	mov	DWORD PTR _asCvKeyBoardMapping$[esp+3985], eax
	mov	DWORD PTR _asCvKeyBoardMapping$[esp+3989], eax
	mov	DWORD PTR _asCvKeyBoardMapping$[esp+3993], eax
	mov	DWORD PTR _asCvKeyBoardMapping$[esp+3997], eax
	mov	DWORD PTR _asCvKeyBoardMapping$[esp+4001], eax

; 198  : 		{"KB_F",FKBInputDevice::KB_F},

	mov	eax, DWORD PTR $SG218703
	mov	DWORD PTR _asCvKeyBoardMapping$[esp+4012], eax
	xor	eax, eax
	mov	DWORD PTR _asCvKeyBoardMapping$[esp+4017], eax
	mov	DWORD PTR _asCvKeyBoardMapping$[esp+4021], eax
	mov	DWORD PTR _asCvKeyBoardMapping$[esp+4025], eax
	mov	DWORD PTR _asCvKeyBoardMapping$[esp+4029], eax
	mov	DWORD PTR _asCvKeyBoardMapping$[esp+4033], eax

; 199  : 		{"KB_G",FKBInputDevice::KB_G},

	movzx	eax, BYTE PTR $SG218704+4
	mov	BYTE PTR _asCvKeyBoardMapping$[esp+4048], al
	xor	eax, eax
	mov	DWORD PTR _asCvKeyBoardMapping$[esp+3948], edx
	movzx	edx, BYTE PTR $SG218702+4
	mov	DWORD PTR _asCvKeyBoardMapping$[esp+3980], ecx
	movzx	ecx, BYTE PTR $SG218703+4
	mov	DWORD PTR _asCvKeyBoardMapping$[esp+4049], eax
	mov	DWORD PTR _asCvKeyBoardMapping$[esp+4053], eax
	mov	DWORD PTR _asCvKeyBoardMapping$[esp+4057], eax
	mov	DWORD PTR _asCvKeyBoardMapping$[esp+4061], eax
	mov	DWORD PTR _asCvKeyBoardMapping$[esp+4065], eax

; 200  : 		{"KB_H",FKBInputDevice::KB_H},

	mov	DWORD PTR _asCvKeyBoardMapping$[esp+4081], eax
	mov	DWORD PTR _asCvKeyBoardMapping$[esp+4085], eax
	mov	DWORD PTR _asCvKeyBoardMapping$[esp+4089], eax
	mov	DWORD PTR _asCvKeyBoardMapping$[esp+4093], eax
	mov	DWORD PTR _asCvKeyBoardMapping$[esp+4097], eax

; 201  : 		{"KB_I",FKBInputDevice::KB_I},

	mov	eax, DWORD PTR $SG218706
	mov	BYTE PTR _asCvKeyBoardMapping$[esp+3984], dl
	mov	edx, DWORD PTR $SG218704
	mov	DWORD PTR _asCvKeyBoardMapping$[esp+4108], eax
	xor	eax, eax
	mov	BYTE PTR _asCvKeyBoardMapping$[esp+4016], cl
	mov	ecx, DWORD PTR $SG218705
	mov	DWORD PTR _asCvKeyBoardMapping$[esp+4044], edx
	movzx	edx, BYTE PTR $SG218705+4
	mov	DWORD PTR _asCvKeyBoardMapping$[esp+4113], eax
	mov	DWORD PTR _asCvKeyBoardMapping$[esp+4117], eax
	mov	DWORD PTR _asCvKeyBoardMapping$[esp+4121], eax
	mov	DWORD PTR _asCvKeyBoardMapping$[esp+4125], eax
	mov	DWORD PTR _asCvKeyBoardMapping$[esp+4129], eax

; 202  : 		{"KB_J",FKBInputDevice::KB_J},

	movzx	eax, BYTE PTR $SG218707+4
	mov	DWORD PTR _asCvKeyBoardMapping$[esp+4076], ecx
	movzx	ecx, BYTE PTR $SG218706+4
	mov	BYTE PTR _asCvKeyBoardMapping$[esp+4080], dl
	mov	edx, DWORD PTR $SG218707
	mov	BYTE PTR _asCvKeyBoardMapping$[esp+4144], al
	xor	eax, eax
	mov	BYTE PTR _asCvKeyBoardMapping$[esp+4112], cl

; 203  : 		{"KB_K",FKBInputDevice::KB_K},

	mov	ecx, DWORD PTR $SG218708
	mov	DWORD PTR _asCvKeyBoardMapping$[esp+3944], 15 ; 0000000fH
	mov	DWORD PTR _asCvKeyBoardMapping$[esp+3976], 16 ; 00000010H
	mov	DWORD PTR _asCvKeyBoardMapping$[esp+4008], 17 ; 00000011H
	mov	DWORD PTR _asCvKeyBoardMapping$[esp+4040], 18 ; 00000012H
	mov	DWORD PTR _asCvKeyBoardMapping$[esp+4072], 19 ; 00000013H
	mov	DWORD PTR _asCvKeyBoardMapping$[esp+4104], 20 ; 00000014H
	mov	DWORD PTR _asCvKeyBoardMapping$[esp+4136], 21 ; 00000015H
	mov	DWORD PTR _asCvKeyBoardMapping$[esp+4140], edx
	mov	DWORD PTR _asCvKeyBoardMapping$[esp+4145], eax
	mov	DWORD PTR _asCvKeyBoardMapping$[esp+4149], eax
	mov	DWORD PTR _asCvKeyBoardMapping$[esp+4153], eax
	mov	DWORD PTR _asCvKeyBoardMapping$[esp+4157], eax
	mov	DWORD PTR _asCvKeyBoardMapping$[esp+4161], eax
	mov	DWORD PTR _asCvKeyBoardMapping$[esp+4168], 22 ; 00000016H
	movzx	edx, BYTE PTR $SG218708+4
	mov	DWORD PTR _asCvKeyBoardMapping$[esp+4177], eax
	mov	DWORD PTR _asCvKeyBoardMapping$[esp+4181], eax
	mov	DWORD PTR _asCvKeyBoardMapping$[esp+4185], eax
	mov	DWORD PTR _asCvKeyBoardMapping$[esp+4189], eax
	mov	DWORD PTR _asCvKeyBoardMapping$[esp+4193], eax

; 204  : 		{"KB_L",FKBInputDevice::KB_L},

	mov	eax, DWORD PTR $SG218709
	mov	DWORD PTR _asCvKeyBoardMapping$[esp+4204], eax
	xor	eax, eax
	mov	DWORD PTR _asCvKeyBoardMapping$[esp+4209], eax
	mov	DWORD PTR _asCvKeyBoardMapping$[esp+4213], eax
	mov	DWORD PTR _asCvKeyBoardMapping$[esp+4217], eax
	mov	DWORD PTR _asCvKeyBoardMapping$[esp+4221], eax
	mov	DWORD PTR _asCvKeyBoardMapping$[esp+4225], eax

; 205  : 		{"KB_M",FKBInputDevice::KB_M},

	movzx	eax, BYTE PTR $SG218710+4
	mov	BYTE PTR _asCvKeyBoardMapping$[esp+4240], al
	xor	eax, eax
	mov	DWORD PTR _asCvKeyBoardMapping$[esp+4172], ecx
	movzx	ecx, BYTE PTR $SG218709+4
	mov	DWORD PTR _asCvKeyBoardMapping$[esp+4241], eax
	mov	DWORD PTR _asCvKeyBoardMapping$[esp+4245], eax
	mov	DWORD PTR _asCvKeyBoardMapping$[esp+4249], eax
	mov	DWORD PTR _asCvKeyBoardMapping$[esp+4253], eax
	mov	DWORD PTR _asCvKeyBoardMapping$[esp+4257], eax

; 206  : 		{"KB_N",FKBInputDevice::KB_N},

	mov	DWORD PTR _asCvKeyBoardMapping$[esp+4273], eax
	mov	DWORD PTR _asCvKeyBoardMapping$[esp+4277], eax
	mov	DWORD PTR _asCvKeyBoardMapping$[esp+4281], eax
	mov	DWORD PTR _asCvKeyBoardMapping$[esp+4285], eax
	mov	DWORD PTR _asCvKeyBoardMapping$[esp+4289], eax

; 207  : 		{"KB_O",FKBInputDevice::KB_O},

	mov	eax, DWORD PTR $SG218712
	mov	DWORD PTR _asCvKeyBoardMapping$[esp+4300], eax
	xor	eax, eax
	mov	BYTE PTR _asCvKeyBoardMapping$[esp+4176], dl
	mov	edx, DWORD PTR $SG218710
	mov	BYTE PTR _asCvKeyBoardMapping$[esp+4208], cl
	mov	ecx, DWORD PTR $SG218711
	mov	DWORD PTR _asCvKeyBoardMapping$[esp+4305], eax
	mov	DWORD PTR _asCvKeyBoardMapping$[esp+4309], eax
	mov	DWORD PTR _asCvKeyBoardMapping$[esp+4313], eax
	mov	DWORD PTR _asCvKeyBoardMapping$[esp+4317], eax
	mov	DWORD PTR _asCvKeyBoardMapping$[esp+4321], eax

; 208  : 		{"KB_P",FKBInputDevice::KB_P},

	movzx	eax, BYTE PTR $SG218713+4
	mov	DWORD PTR _asCvKeyBoardMapping$[esp+4236], edx
	movzx	edx, BYTE PTR $SG218711+4
	mov	DWORD PTR _asCvKeyBoardMapping$[esp+4268], ecx
	movzx	ecx, BYTE PTR $SG218712+4
	mov	BYTE PTR _asCvKeyBoardMapping$[esp+4336], al
	xor	eax, eax
	mov	BYTE PTR _asCvKeyBoardMapping$[esp+4272], dl
	mov	edx, DWORD PTR $SG218713
	mov	BYTE PTR _asCvKeyBoardMapping$[esp+4304], cl

; 209  : 		{"KB_Q",FKBInputDevice::KB_Q},

	mov	ecx, DWORD PTR $SG218714
	mov	DWORD PTR _asCvKeyBoardMapping$[esp+4337], eax
	mov	DWORD PTR _asCvKeyBoardMapping$[esp+4341], eax
	mov	DWORD PTR _asCvKeyBoardMapping$[esp+4345], eax
	mov	DWORD PTR _asCvKeyBoardMapping$[esp+4349], eax
	mov	DWORD PTR _asCvKeyBoardMapping$[esp+4353], eax
	mov	DWORD PTR _asCvKeyBoardMapping$[esp+4369], eax
	mov	DWORD PTR _asCvKeyBoardMapping$[esp+4373], eax
	mov	DWORD PTR _asCvKeyBoardMapping$[esp+4377], eax
	mov	DWORD PTR _asCvKeyBoardMapping$[esp+4381], eax
	mov	DWORD PTR _asCvKeyBoardMapping$[esp+4385], eax

; 210  : 		{"KB_R",FKBInputDevice::KB_R},

	mov	eax, DWORD PTR $SG218715
	mov	DWORD PTR _asCvKeyBoardMapping$[esp+4332], edx
	movzx	edx, BYTE PTR $SG218714+4
	mov	DWORD PTR _asCvKeyBoardMapping$[esp+4364], ecx
	movzx	ecx, BYTE PTR $SG218715+4
	mov	DWORD PTR _asCvKeyBoardMapping$[esp+4396], eax
	xor	eax, eax
	mov	DWORD PTR _asCvKeyBoardMapping$[esp+4200], 23 ; 00000017H
	mov	DWORD PTR _asCvKeyBoardMapping$[esp+4232], 24 ; 00000018H
	mov	DWORD PTR _asCvKeyBoardMapping$[esp+4264], 25 ; 00000019H
	mov	DWORD PTR _asCvKeyBoardMapping$[esp+4296], 26 ; 0000001aH
	mov	DWORD PTR _asCvKeyBoardMapping$[esp+4328], 27 ; 0000001bH
	mov	DWORD PTR _asCvKeyBoardMapping$[esp+4360], 28 ; 0000001cH
	mov	BYTE PTR _asCvKeyBoardMapping$[esp+4368], dl
	mov	DWORD PTR _asCvKeyBoardMapping$[esp+4392], 29 ; 0000001dH
	mov	BYTE PTR _asCvKeyBoardMapping$[esp+4400], cl
	mov	DWORD PTR _asCvKeyBoardMapping$[esp+4401], eax
	mov	DWORD PTR _asCvKeyBoardMapping$[esp+4405], eax
	mov	DWORD PTR _asCvKeyBoardMapping$[esp+4409], eax

; 211  : 		{"KB_S",FKBInputDevice::KB_S},

	mov	edx, DWORD PTR $SG218716

; 212  : 		{"KB_T",FKBInputDevice::KB_T},

	mov	ecx, DWORD PTR $SG218717
	mov	DWORD PTR _asCvKeyBoardMapping$[esp+4413], eax
	mov	DWORD PTR _asCvKeyBoardMapping$[esp+4417], eax
	movzx	eax, BYTE PTR $SG218716+4
	mov	BYTE PTR _asCvKeyBoardMapping$[esp+4432], al
	xor	eax, eax
	mov	DWORD PTR _asCvKeyBoardMapping$[esp+4433], eax
	mov	DWORD PTR _asCvKeyBoardMapping$[esp+4437], eax
	mov	DWORD PTR _asCvKeyBoardMapping$[esp+4441], eax
	mov	DWORD PTR _asCvKeyBoardMapping$[esp+4445], eax
	mov	DWORD PTR _asCvKeyBoardMapping$[esp+4449], eax
	mov	DWORD PTR _asCvKeyBoardMapping$[esp+4465], eax
	mov	DWORD PTR _asCvKeyBoardMapping$[esp+4469], eax
	mov	DWORD PTR _asCvKeyBoardMapping$[esp+4473], eax
	mov	DWORD PTR _asCvKeyBoardMapping$[esp+4477], eax
	mov	DWORD PTR _asCvKeyBoardMapping$[esp+4481], eax

; 213  : 		{"KB_U",FKBInputDevice::KB_U},

	mov	eax, DWORD PTR $SG218718
	mov	DWORD PTR _asCvKeyBoardMapping$[esp+4492], eax
	xor	eax, eax
	mov	DWORD PTR _asCvKeyBoardMapping$[esp+4497], eax
	mov	DWORD PTR _asCvKeyBoardMapping$[esp+4501], eax
	mov	DWORD PTR _asCvKeyBoardMapping$[esp+4505], eax
	mov	DWORD PTR _asCvKeyBoardMapping$[esp+4509], eax
	mov	DWORD PTR _asCvKeyBoardMapping$[esp+4513], eax

; 214  : 		{"KB_V",FKBInputDevice::KB_V},

	movzx	eax, BYTE PTR $SG218719+4
	mov	DWORD PTR _asCvKeyBoardMapping$[esp+4428], edx
	movzx	edx, BYTE PTR $SG218717+4
	mov	BYTE PTR _asCvKeyBoardMapping$[esp+4528], al
	xor	eax, eax
	mov	DWORD PTR _asCvKeyBoardMapping$[esp+4460], ecx
	movzx	ecx, BYTE PTR $SG218718+4
	mov	DWORD PTR _asCvKeyBoardMapping$[esp+4529], eax
	mov	DWORD PTR _asCvKeyBoardMapping$[esp+4533], eax
	mov	DWORD PTR _asCvKeyBoardMapping$[esp+4537], eax
	mov	DWORD PTR _asCvKeyBoardMapping$[esp+4541], eax
	mov	DWORD PTR _asCvKeyBoardMapping$[esp+4545], eax

; 215  : 		{"KB_W",FKBInputDevice::KB_W},

	mov	DWORD PTR _asCvKeyBoardMapping$[esp+4561], eax
	mov	DWORD PTR _asCvKeyBoardMapping$[esp+4565], eax
	mov	DWORD PTR _asCvKeyBoardMapping$[esp+4569], eax
	mov	DWORD PTR _asCvKeyBoardMapping$[esp+4573], eax
	mov	DWORD PTR _asCvKeyBoardMapping$[esp+4577], eax

; 216  : 		{"KB_X",FKBInputDevice::KB_X},

	mov	eax, DWORD PTR $SG218721
	mov	BYTE PTR _asCvKeyBoardMapping$[esp+4464], dl
	mov	edx, DWORD PTR $SG218719
	mov	BYTE PTR _asCvKeyBoardMapping$[esp+4496], cl
	mov	ecx, DWORD PTR $SG218720
	mov	DWORD PTR _asCvKeyBoardMapping$[esp+4588], eax
	xor	eax, eax
	mov	DWORD PTR _asCvKeyBoardMapping$[esp+4524], edx
	movzx	edx, BYTE PTR $SG218720+4
	mov	DWORD PTR _asCvKeyBoardMapping$[esp+4556], ecx
	movzx	ecx, BYTE PTR $SG218721+4
	mov	DWORD PTR _asCvKeyBoardMapping$[esp+4593], eax
	mov	DWORD PTR _asCvKeyBoardMapping$[esp+4597], eax
	mov	DWORD PTR _asCvKeyBoardMapping$[esp+4601], eax
	mov	DWORD PTR _asCvKeyBoardMapping$[esp+4605], eax
	mov	DWORD PTR _asCvKeyBoardMapping$[esp+4609], eax

; 217  : 		{"KB_Y",FKBInputDevice::KB_Y},

	movzx	eax, BYTE PTR $SG218722+4
	mov	BYTE PTR _asCvKeyBoardMapping$[esp+4560], dl
	mov	edx, DWORD PTR $SG218722
	mov	BYTE PTR _asCvKeyBoardMapping$[esp+4592], cl

; 218  : 		{"KB_Z",FKBInputDevice::KB_Z},

	mov	ecx, DWORD PTR $SG218723
	mov	BYTE PTR _asCvKeyBoardMapping$[esp+4624], al
	xor	eax, eax
	mov	DWORD PTR _asCvKeyBoardMapping$[esp+4620], edx
	movzx	edx, BYTE PTR $SG218723+4
	mov	DWORD PTR _asCvKeyBoardMapping$[esp+4424], 30 ; 0000001eH
	mov	DWORD PTR _asCvKeyBoardMapping$[esp+4456], 31 ; 0000001fH
	mov	DWORD PTR _asCvKeyBoardMapping$[esp+4488], 32 ; 00000020H
	mov	DWORD PTR _asCvKeyBoardMapping$[esp+4520], 33 ; 00000021H
	mov	DWORD PTR _asCvKeyBoardMapping$[esp+4552], 34 ; 00000022H
	mov	DWORD PTR _asCvKeyBoardMapping$[esp+4584], 35 ; 00000023H
	mov	DWORD PTR _asCvKeyBoardMapping$[esp+4616], 36 ; 00000024H
	mov	DWORD PTR _asCvKeyBoardMapping$[esp+4625], eax
	mov	DWORD PTR _asCvKeyBoardMapping$[esp+4629], eax
	mov	DWORD PTR _asCvKeyBoardMapping$[esp+4633], eax
	mov	DWORD PTR _asCvKeyBoardMapping$[esp+4637], eax
	mov	DWORD PTR _asCvKeyBoardMapping$[esp+4641], eax
	mov	DWORD PTR _asCvKeyBoardMapping$[esp+4648], 37 ; 00000025H
	mov	DWORD PTR _asCvKeyBoardMapping$[esp+4652], ecx
	mov	DWORD PTR _asCvKeyBoardMapping$[esp+4657], eax
	mov	DWORD PTR _asCvKeyBoardMapping$[esp+4661], eax
	mov	DWORD PTR _asCvKeyBoardMapping$[esp+4665], eax
	mov	DWORD PTR _asCvKeyBoardMapping$[esp+4669], eax
	mov	DWORD PTR _asCvKeyBoardMapping$[esp+4673], eax

; 219  : 		{"KB_EQUALS",FKBInputDevice::KB_EQUALS},

	mov	eax, DWORD PTR $SG218724
	mov	DWORD PTR _asCvKeyBoardMapping$[esp+4684], eax
	xor	eax, eax
	mov	ecx, DWORD PTR $SG218724+4
	mov	DWORD PTR _asCvKeyBoardMapping$[esp+4694], eax
	mov	DWORD PTR _asCvKeyBoardMapping$[esp+4698], eax
	mov	DWORD PTR _asCvKeyBoardMapping$[esp+4702], eax
	mov	WORD PTR _asCvKeyBoardMapping$[esp+4706], ax
	mov	BYTE PTR _asCvKeyBoardMapping$[esp+4708], al

; 220  : 		{"KB_BACKSPACE",FKBInputDevice::KB_BACKSPACE},

	mov	eax, DWORD PTR $SG218725
	mov	DWORD PTR _asCvKeyBoardMapping$[esp+4716], eax
	movzx	eax, BYTE PTR $SG218725+12
	mov	BYTE PTR _asCvKeyBoardMapping$[esp+4728], al
	xor	eax, eax
	mov	DWORD PTR _asCvKeyBoardMapping$[esp+4729], eax
	mov	DWORD PTR _asCvKeyBoardMapping$[esp+4733], eax
	mov	DWORD PTR _asCvKeyBoardMapping$[esp+4737], eax

; 221  : 		{"KB_TAB",FKBInputDevice::KB_TAB},

	movzx	eax, BYTE PTR $SG218726+6
	mov	BYTE PTR _asCvKeyBoardMapping$[esp+4754], al
	xor	eax, eax
	mov	BYTE PTR _asCvKeyBoardMapping$[esp+4656], dl
	movzx	edx, WORD PTR $SG218724+8
	mov	DWORD PTR _asCvKeyBoardMapping$[esp+4755], eax
	mov	DWORD PTR _asCvKeyBoardMapping$[esp+4759], eax
	mov	DWORD PTR _asCvKeyBoardMapping$[esp+4763], eax
	mov	DWORD PTR _asCvKeyBoardMapping$[esp+4767], eax
	mov	WORD PTR _asCvKeyBoardMapping$[esp+4771], ax

; 222  : 		{"KB_LBRACKET",FKBInputDevice::KB_LBRACKET},

	mov	eax, DWORD PTR $SG218727+8
	mov	WORD PTR _asCvKeyBoardMapping$[esp+4692], dx
	mov	edx, DWORD PTR $SG218725+8
	mov	DWORD PTR _asCvKeyBoardMapping$[esp+4788], eax
	xor	eax, eax
	mov	DWORD PTR _asCvKeyBoardMapping$[esp+4688], ecx
	mov	ecx, DWORD PTR $SG218725+4
	mov	DWORD PTR _asCvKeyBoardMapping$[esp+4724], edx
	movzx	edx, WORD PTR $SG218726+4
	mov	DWORD PTR _asCvKeyBoardMapping$[esp+4792], eax
	mov	DWORD PTR _asCvKeyBoardMapping$[esp+4796], eax
	mov	DWORD PTR _asCvKeyBoardMapping$[esp+4800], eax
	mov	BYTE PTR _asCvKeyBoardMapping$[esp+4804], al

; 223  : 		{"KB_RBRACKET",FKBInputDevice::KB_RBRACKET},

	mov	eax, DWORD PTR $SG218728+8
	mov	DWORD PTR _asCvKeyBoardMapping$[esp+4720], ecx
	mov	ecx, DWORD PTR $SG218726
	mov	DWORD PTR _asCvKeyBoardMapping$[esp+4820], eax
	xor	eax, eax
	mov	DWORD PTR _asCvKeyBoardMapping$[esp+4748], ecx
	mov	ecx, DWORD PTR $SG218727
	mov	WORD PTR _asCvKeyBoardMapping$[esp+4752], dx
	mov	edx, DWORD PTR $SG218727+4
	mov	DWORD PTR _asCvKeyBoardMapping$[esp+4824], eax
	mov	DWORD PTR _asCvKeyBoardMapping$[esp+4828], eax
	mov	DWORD PTR _asCvKeyBoardMapping$[esp+4832], eax
	mov	BYTE PTR _asCvKeyBoardMapping$[esp+4836], al

; 224  : 		{"KB_RETURN",FKBInputDevice::KB_RETURN},		/* Enter on main keyboard */

	movzx	eax, WORD PTR $SG218729+8
	mov	DWORD PTR _asCvKeyBoardMapping$[esp+4780], ecx
	mov	ecx, DWORD PTR $SG218728
	mov	DWORD PTR _asCvKeyBoardMapping$[esp+4784], edx
	mov	edx, DWORD PTR $SG218728+4
	mov	DWORD PTR _asCvKeyBoardMapping$[esp+4812], ecx
	mov	ecx, DWORD PTR $SG218729
	mov	DWORD PTR _asCvKeyBoardMapping$[esp+4816], edx
	mov	edx, DWORD PTR $SG218729+4
	mov	WORD PTR _asCvKeyBoardMapping$[esp+4852], ax
	xor	eax, eax
	mov	DWORD PTR _asCvKeyBoardMapping$[esp+4680], 38 ; 00000026H
	mov	DWORD PTR _asCvKeyBoardMapping$[esp+4712], 39 ; 00000027H
	mov	DWORD PTR _asCvKeyBoardMapping$[esp+4744], 40 ; 00000028H
	mov	DWORD PTR _asCvKeyBoardMapping$[esp+4776], 41 ; 00000029H
	mov	DWORD PTR _asCvKeyBoardMapping$[esp+4808], 42 ; 0000002aH
	mov	DWORD PTR _asCvKeyBoardMapping$[esp+4840], 43 ; 0000002bH
	mov	DWORD PTR _asCvKeyBoardMapping$[esp+4844], ecx
	mov	DWORD PTR _asCvKeyBoardMapping$[esp+4848], edx
	mov	DWORD PTR _asCvKeyBoardMapping$[esp+4854], eax
	mov	DWORD PTR _asCvKeyBoardMapping$[esp+4858], eax
	mov	DWORD PTR _asCvKeyBoardMapping$[esp+4862], eax
	mov	WORD PTR _asCvKeyBoardMapping$[esp+4866], ax

; 225  : 		{"KB_LCONTROL",FKBInputDevice::KB_LCONTROL},

	mov	edx, DWORD PTR $SG218730+4
	mov	ecx, DWORD PTR $SG218730
	mov	BYTE PTR _asCvKeyBoardMapping$[esp+4868], al
	mov	eax, DWORD PTR $SG218730+8
	mov	DWORD PTR _asCvKeyBoardMapping$[esp+4884], eax
	xor	eax, eax
	mov	DWORD PTR _asCvKeyBoardMapping$[esp+4888], eax
	mov	DWORD PTR _asCvKeyBoardMapping$[esp+4892], eax
	mov	DWORD PTR _asCvKeyBoardMapping$[esp+4896], eax
	mov	BYTE PTR _asCvKeyBoardMapping$[esp+4900], al

; 226  : 		{"KB_SEMICOLON",FKBInputDevice::KB_SEMICOLON},

	mov	eax, DWORD PTR $SG218731+8
	mov	DWORD PTR _asCvKeyBoardMapping$[esp+4916], eax
	xor	eax, eax
	mov	DWORD PTR _asCvKeyBoardMapping$[esp+4921], eax
	mov	DWORD PTR _asCvKeyBoardMapping$[esp+4925], eax
	mov	DWORD PTR _asCvKeyBoardMapping$[esp+4929], eax

; 227  : 		{"KB_APOSTROPHE",FKBInputDevice::KB_APOSTROPHE},

	mov	eax, DWORD PTR $SG218732+4
	mov	DWORD PTR _asCvKeyBoardMapping$[esp+4944], eax
	xor	eax, eax
	mov	DWORD PTR _asCvKeyBoardMapping$[esp+4876], ecx
	mov	ecx, DWORD PTR $SG218731
	mov	DWORD PTR _asCvKeyBoardMapping$[esp+4880], edx
	mov	edx, DWORD PTR $SG218731+4
	mov	DWORD PTR _asCvKeyBoardMapping$[esp+4954], eax
	mov	DWORD PTR _asCvKeyBoardMapping$[esp+4958], eax
	mov	WORD PTR _asCvKeyBoardMapping$[esp+4962], ax
	mov	BYTE PTR _asCvKeyBoardMapping$[esp+4964], al

; 228  : 		{"KB_GRAVE",FKBInputDevice::KB_GRAVE},		/* accent grave */

	mov	eax, DWORD PTR $SG218733
	mov	DWORD PTR _asCvKeyBoardMapping$[esp+4908], ecx
	movzx	ecx, BYTE PTR $SG218731+12
	mov	DWORD PTR _asCvKeyBoardMapping$[esp+4912], edx
	mov	edx, DWORD PTR $SG218732
	mov	DWORD PTR _asCvKeyBoardMapping$[esp+4972], eax
	xor	eax, eax
	mov	DWORD PTR _asCvKeyBoardMapping$[esp+4940], edx
	movzx	edx, WORD PTR $SG218732+12
	mov	DWORD PTR _asCvKeyBoardMapping$[esp+4981], eax
	mov	DWORD PTR _asCvKeyBoardMapping$[esp+4985], eax
	mov	DWORD PTR _asCvKeyBoardMapping$[esp+4989], eax
	mov	DWORD PTR _asCvKeyBoardMapping$[esp+4993], eax

; 229  : 		{"KB_LSHIFT",FKBInputDevice::KB_LSHIFT},

	mov	eax, DWORD PTR $SG218734
	mov	BYTE PTR _asCvKeyBoardMapping$[esp+4920], cl
	mov	ecx, DWORD PTR $SG218732+8
	mov	DWORD PTR _asCvKeyBoardMapping$[esp+5004], eax
	xor	eax, eax
	mov	DWORD PTR _asCvKeyBoardMapping$[esp+4948], ecx
	mov	ecx, DWORD PTR $SG218733+4
	mov	WORD PTR _asCvKeyBoardMapping$[esp+4952], dx
	movzx	edx, BYTE PTR $SG218733+8
	mov	DWORD PTR _asCvKeyBoardMapping$[esp+5014], eax
	mov	DWORD PTR _asCvKeyBoardMapping$[esp+5018], eax
	mov	DWORD PTR _asCvKeyBoardMapping$[esp+5022], eax
	mov	WORD PTR _asCvKeyBoardMapping$[esp+5026], ax
	mov	BYTE PTR _asCvKeyBoardMapping$[esp+5028], al

; 230  : 		{"KB_BACKSLASH",FKBInputDevice::KB_BACKSLASH},

	mov	eax, DWORD PTR $SG218735
	mov	DWORD PTR _asCvKeyBoardMapping$[esp+4976], ecx
	mov	ecx, DWORD PTR $SG218734+4
	mov	BYTE PTR _asCvKeyBoardMapping$[esp+4980], dl
	movzx	edx, WORD PTR $SG218734+8
	mov	DWORD PTR _asCvKeyBoardMapping$[esp+5036], eax
	movzx	eax, BYTE PTR $SG218735+12
	mov	DWORD PTR _asCvKeyBoardMapping$[esp+5008], ecx
	mov	ecx, DWORD PTR $SG218735+4
	mov	WORD PTR _asCvKeyBoardMapping$[esp+5012], dx
	mov	edx, DWORD PTR $SG218735+8
	mov	DWORD PTR _asCvKeyBoardMapping$[esp+5040], ecx

; 231  : 		{"KB_COMMA",FKBInputDevice::KB_COMMA},

	mov	ecx, DWORD PTR $SG218736
	mov	BYTE PTR _asCvKeyBoardMapping$[esp+5048], al
	xor	eax, eax
	mov	DWORD PTR _asCvKeyBoardMapping$[esp+4872], 44 ; 0000002cH
	mov	DWORD PTR _asCvKeyBoardMapping$[esp+4904], 45 ; 0000002dH
	mov	DWORD PTR _asCvKeyBoardMapping$[esp+4936], 46 ; 0000002eH
	mov	DWORD PTR _asCvKeyBoardMapping$[esp+4968], 47 ; 0000002fH
	mov	DWORD PTR _asCvKeyBoardMapping$[esp+5000], 48 ; 00000030H
	mov	DWORD PTR _asCvKeyBoardMapping$[esp+5032], 49 ; 00000031H
	mov	DWORD PTR _asCvKeyBoardMapping$[esp+5044], edx
	mov	DWORD PTR _asCvKeyBoardMapping$[esp+5049], eax
	mov	DWORD PTR _asCvKeyBoardMapping$[esp+5053], eax
	mov	DWORD PTR _asCvKeyBoardMapping$[esp+5057], eax
	mov	DWORD PTR _asCvKeyBoardMapping$[esp+5064], 50 ; 00000032H
	mov	DWORD PTR _asCvKeyBoardMapping$[esp+5068], ecx
	movzx	eax, BYTE PTR $SG218736+8
	mov	BYTE PTR _asCvKeyBoardMapping$[esp+5076], al
	xor	eax, eax
	mov	DWORD PTR _asCvKeyBoardMapping$[esp+5077], eax
	mov	DWORD PTR _asCvKeyBoardMapping$[esp+5081], eax
	mov	DWORD PTR _asCvKeyBoardMapping$[esp+5085], eax
	mov	DWORD PTR _asCvKeyBoardMapping$[esp+5089], eax

; 232  : 		{"KB_PERIOD",FKBInputDevice::KB_PERIOD},

	movzx	eax, WORD PTR $SG218737+8
	mov	edx, DWORD PTR $SG218736+4
	mov	ecx, DWORD PTR $SG218737
	mov	WORD PTR _asCvKeyBoardMapping$[esp+5108], ax
	xor	eax, eax
	mov	DWORD PTR _asCvKeyBoardMapping$[esp+5110], eax
	mov	DWORD PTR _asCvKeyBoardMapping$[esp+5114], eax
	mov	DWORD PTR _asCvKeyBoardMapping$[esp+5118], eax
	mov	WORD PTR _asCvKeyBoardMapping$[esp+5122], ax
	mov	BYTE PTR _asCvKeyBoardMapping$[esp+5124], al

; 233  : 		{"KB_SLASH",FKBInputDevice::KB_SLASH},

	movzx	eax, BYTE PTR $SG218738+8
	mov	BYTE PTR _asCvKeyBoardMapping$[esp+5140], al
	xor	eax, eax
	mov	DWORD PTR _asCvKeyBoardMapping$[esp+5141], eax
	mov	DWORD PTR _asCvKeyBoardMapping$[esp+5145], eax
	mov	DWORD PTR _asCvKeyBoardMapping$[esp+5149], eax
	mov	DWORD PTR _asCvKeyBoardMapping$[esp+5153], eax

; 234  : 		{"KB_RSHIFT",FKBInputDevice::KB_RSHIFT},

	movzx	eax, WORD PTR $SG218739+8
	mov	WORD PTR _asCvKeyBoardMapping$[esp+5172], ax
	xor	eax, eax
	mov	DWORD PTR _asCvKeyBoardMapping$[esp+5174], eax
	mov	DWORD PTR _asCvKeyBoardMapping$[esp+5178], eax
	mov	DWORD PTR _asCvKeyBoardMapping$[esp+5182], eax
	mov	WORD PTR _asCvKeyBoardMapping$[esp+5186], ax
	mov	BYTE PTR _asCvKeyBoardMapping$[esp+5188], al

; 235  : 		{"KB_NUMPADSTAR",FKBInputDevice::KB_NUMPADSTAR},

	mov	eax, DWORD PTR $SG218740+8
	mov	DWORD PTR _asCvKeyBoardMapping$[esp+5072], edx
	mov	edx, DWORD PTR $SG218737+4
	mov	DWORD PTR _asCvKeyBoardMapping$[esp+5100], ecx
	mov	ecx, DWORD PTR $SG218738
	mov	DWORD PTR _asCvKeyBoardMapping$[esp+5204], eax
	xor	eax, eax
	mov	DWORD PTR _asCvKeyBoardMapping$[esp+5104], edx
	mov	edx, DWORD PTR $SG218738+4
	mov	DWORD PTR _asCvKeyBoardMapping$[esp+5132], ecx
	mov	ecx, DWORD PTR $SG218739
	mov	DWORD PTR _asCvKeyBoardMapping$[esp+5210], eax
	mov	DWORD PTR _asCvKeyBoardMapping$[esp+5214], eax
	mov	WORD PTR _asCvKeyBoardMapping$[esp+5218], ax
	mov	BYTE PTR _asCvKeyBoardMapping$[esp+5220], al

; 236  : 		{"KB_LALT",FKBInputDevice::KB_LALT},

	mov	eax, DWORD PTR $SG218741+4
	mov	DWORD PTR _asCvKeyBoardMapping$[esp+5136], edx
	mov	edx, DWORD PTR $SG218739+4
	mov	DWORD PTR _asCvKeyBoardMapping$[esp+5164], ecx
	mov	ecx, DWORD PTR $SG218740
	mov	DWORD PTR _asCvKeyBoardMapping$[esp+5232], eax
	xor	eax, eax
	mov	DWORD PTR _asCvKeyBoardMapping$[esp+5168], edx
	mov	edx, DWORD PTR $SG218740+4
	mov	DWORD PTR _asCvKeyBoardMapping$[esp+5196], ecx
	movzx	ecx, WORD PTR $SG218740+12
	mov	DWORD PTR _asCvKeyBoardMapping$[esp+5236], eax
	mov	DWORD PTR _asCvKeyBoardMapping$[esp+5240], eax
	mov	DWORD PTR _asCvKeyBoardMapping$[esp+5244], eax
	mov	DWORD PTR _asCvKeyBoardMapping$[esp+5248], eax
	mov	BYTE PTR _asCvKeyBoardMapping$[esp+5252], al

; 237  : 		{"KB_SPACE",FKBInputDevice::KB_SPACE},

	movzx	eax, BYTE PTR $SG218742+8
	mov	DWORD PTR _asCvKeyBoardMapping$[esp+5200], edx
	mov	edx, DWORD PTR $SG218741
	mov	WORD PTR _asCvKeyBoardMapping$[esp+5208], cx
	mov	ecx, DWORD PTR $SG218742
	mov	DWORD PTR _asCvKeyBoardMapping$[esp+5228], edx
	mov	edx, DWORD PTR $SG218742+4
	mov	BYTE PTR _asCvKeyBoardMapping$[esp+5268], al
	xor	eax, eax
	mov	DWORD PTR _asCvKeyBoardMapping$[esp+5096], 51 ; 00000033H
	mov	DWORD PTR _asCvKeyBoardMapping$[esp+5128], 52 ; 00000034H
	mov	DWORD PTR _asCvKeyBoardMapping$[esp+5160], 53 ; 00000035H
	mov	DWORD PTR _asCvKeyBoardMapping$[esp+5192], 54 ; 00000036H
	mov	DWORD PTR _asCvKeyBoardMapping$[esp+5224], 55 ; 00000037H
	mov	DWORD PTR _asCvKeyBoardMapping$[esp+5256], 56 ; 00000038H
	mov	DWORD PTR _asCvKeyBoardMapping$[esp+5260], ecx
	mov	DWORD PTR _asCvKeyBoardMapping$[esp+5264], edx
	mov	DWORD PTR _asCvKeyBoardMapping$[esp+5269], eax

; 238  : 		{"KB_CAPSLOCK",FKBInputDevice::KB_CAPSLOCK},

	mov	ecx, DWORD PTR $SG218743
	mov	edx, DWORD PTR $SG218743+4
	mov	DWORD PTR _asCvKeyBoardMapping$[esp+5273], eax
	mov	DWORD PTR _asCvKeyBoardMapping$[esp+5277], eax
	mov	DWORD PTR _asCvKeyBoardMapping$[esp+5281], eax
	mov	eax, DWORD PTR $SG218743+8
	mov	DWORD PTR _asCvKeyBoardMapping$[esp+5300], eax
	xor	eax, eax
	mov	DWORD PTR _asCvKeyBoardMapping$[esp+5304], eax
	mov	DWORD PTR _asCvKeyBoardMapping$[esp+5308], eax
	mov	DWORD PTR _asCvKeyBoardMapping$[esp+5312], eax
	mov	BYTE PTR _asCvKeyBoardMapping$[esp+5316], al

; 239  : 		{"KB_F1",FKBInputDevice::KB_F1},

	mov	DWORD PTR _asCvKeyBoardMapping$[esp+5330], eax
	mov	DWORD PTR _asCvKeyBoardMapping$[esp+5334], eax
	mov	DWORD PTR _asCvKeyBoardMapping$[esp+5338], eax
	mov	DWORD PTR _asCvKeyBoardMapping$[esp+5342], eax
	mov	WORD PTR _asCvKeyBoardMapping$[esp+5346], ax
	mov	BYTE PTR _asCvKeyBoardMapping$[esp+5348], al

; 240  : 		{"KB_F2",FKBInputDevice::KB_F2},

	mov	eax, DWORD PTR $SG218745
	mov	DWORD PTR _asCvKeyBoardMapping$[esp+5356], eax
	xor	eax, eax
	mov	DWORD PTR _asCvKeyBoardMapping$[esp+5362], eax
	mov	DWORD PTR _asCvKeyBoardMapping$[esp+5366], eax
	mov	DWORD PTR _asCvKeyBoardMapping$[esp+5370], eax
	mov	DWORD PTR _asCvKeyBoardMapping$[esp+5374], eax
	mov	WORD PTR _asCvKeyBoardMapping$[esp+5378], ax
	mov	BYTE PTR _asCvKeyBoardMapping$[esp+5380], al

; 241  : 		{"KB_F3",FKBInputDevice::KB_F3},

	movzx	eax, WORD PTR $SG218746+4
	mov	WORD PTR _asCvKeyBoardMapping$[esp+5392], ax
	xor	eax, eax
	mov	DWORD PTR _asCvKeyBoardMapping$[esp+5292], ecx
	mov	ecx, DWORD PTR $SG218744
	mov	DWORD PTR _asCvKeyBoardMapping$[esp+5296], edx
	movzx	edx, WORD PTR $SG218744+4
	mov	DWORD PTR _asCvKeyBoardMapping$[esp+5394], eax
	mov	DWORD PTR _asCvKeyBoardMapping$[esp+5398], eax
	mov	DWORD PTR _asCvKeyBoardMapping$[esp+5402], eax
	mov	DWORD PTR _asCvKeyBoardMapping$[esp+5406], eax
	mov	WORD PTR _asCvKeyBoardMapping$[esp+5410], ax
	mov	BYTE PTR _asCvKeyBoardMapping$[esp+5412], al

; 242  : 		{"KB_F4",FKBInputDevice::KB_F4},

	mov	DWORD PTR _asCvKeyBoardMapping$[esp+5426], eax
	mov	DWORD PTR _asCvKeyBoardMapping$[esp+5430], eax
	mov	DWORD PTR _asCvKeyBoardMapping$[esp+5434], eax
	mov	DWORD PTR _asCvKeyBoardMapping$[esp+5438], eax
	mov	WORD PTR _asCvKeyBoardMapping$[esp+5442], ax
	mov	BYTE PTR _asCvKeyBoardMapping$[esp+5444], al

; 243  : 		{"KB_F5",FKBInputDevice::KB_F5},

	mov	eax, DWORD PTR $SG218748
	mov	DWORD PTR _asCvKeyBoardMapping$[esp+5324], ecx
	movzx	ecx, WORD PTR $SG218745+4
	mov	WORD PTR _asCvKeyBoardMapping$[esp+5328], dx
	mov	edx, DWORD PTR $SG218746
	mov	DWORD PTR _asCvKeyBoardMapping$[esp+5452], eax
	xor	eax, eax
	mov	WORD PTR _asCvKeyBoardMapping$[esp+5360], cx
	mov	ecx, DWORD PTR $SG218747
	mov	DWORD PTR _asCvKeyBoardMapping$[esp+5388], edx
	movzx	edx, WORD PTR $SG218747+4
	mov	DWORD PTR _asCvKeyBoardMapping$[esp+5458], eax
	mov	DWORD PTR _asCvKeyBoardMapping$[esp+5462], eax
	mov	DWORD PTR _asCvKeyBoardMapping$[esp+5466], eax
	mov	DWORD PTR _asCvKeyBoardMapping$[esp+5470], eax
	mov	WORD PTR _asCvKeyBoardMapping$[esp+5474], ax
	mov	BYTE PTR _asCvKeyBoardMapping$[esp+5476], al

; 244  : 		{"KB_F6",FKBInputDevice::KB_F6},

	movzx	eax, WORD PTR $SG218749+4
	mov	DWORD PTR _asCvKeyBoardMapping$[esp+5420], ecx
	movzx	ecx, WORD PTR $SG218748+4
	mov	WORD PTR _asCvKeyBoardMapping$[esp+5424], dx
	mov	edx, DWORD PTR $SG218749
	mov	WORD PTR _asCvKeyBoardMapping$[esp+5488], ax
	xor	eax, eax
	mov	DWORD PTR _asCvKeyBoardMapping$[esp+5288], 57 ; 00000039H
	mov	DWORD PTR _asCvKeyBoardMapping$[esp+5320], 58 ; 0000003aH
	mov	DWORD PTR _asCvKeyBoardMapping$[esp+5352], 59 ; 0000003bH
	mov	DWORD PTR _asCvKeyBoardMapping$[esp+5384], 60 ; 0000003cH
	mov	DWORD PTR _asCvKeyBoardMapping$[esp+5416], 61 ; 0000003dH
	mov	DWORD PTR _asCvKeyBoardMapping$[esp+5448], 62 ; 0000003eH
	mov	WORD PTR _asCvKeyBoardMapping$[esp+5456], cx
	mov	DWORD PTR _asCvKeyBoardMapping$[esp+5480], 63 ; 0000003fH
	mov	DWORD PTR _asCvKeyBoardMapping$[esp+5484], edx
	mov	DWORD PTR _asCvKeyBoardMapping$[esp+5490], eax
	mov	DWORD PTR _asCvKeyBoardMapping$[esp+5494], eax

; 245  : 		{"KB_F7",FKBInputDevice::KB_F7},

	mov	ecx, DWORD PTR $SG218750
	movzx	edx, WORD PTR $SG218750+4
	mov	DWORD PTR _asCvKeyBoardMapping$[esp+5498], eax
	mov	DWORD PTR _asCvKeyBoardMapping$[esp+5502], eax
	mov	WORD PTR _asCvKeyBoardMapping$[esp+5506], ax
	mov	BYTE PTR _asCvKeyBoardMapping$[esp+5508], al
	mov	DWORD PTR _asCvKeyBoardMapping$[esp+5522], eax
	mov	DWORD PTR _asCvKeyBoardMapping$[esp+5526], eax
	mov	DWORD PTR _asCvKeyBoardMapping$[esp+5530], eax
	mov	DWORD PTR _asCvKeyBoardMapping$[esp+5534], eax
	mov	WORD PTR _asCvKeyBoardMapping$[esp+5538], ax
	mov	BYTE PTR _asCvKeyBoardMapping$[esp+5540], al

; 246  : 		{"KB_F8",FKBInputDevice::KB_F8},

	mov	eax, DWORD PTR $SG218751
	mov	DWORD PTR _asCvKeyBoardMapping$[esp+5548], eax
	xor	eax, eax
	mov	DWORD PTR _asCvKeyBoardMapping$[esp+5554], eax
	mov	DWORD PTR _asCvKeyBoardMapping$[esp+5558], eax
	mov	DWORD PTR _asCvKeyBoardMapping$[esp+5562], eax
	mov	DWORD PTR _asCvKeyBoardMapping$[esp+5566], eax
	mov	WORD PTR _asCvKeyBoardMapping$[esp+5570], ax
	mov	BYTE PTR _asCvKeyBoardMapping$[esp+5572], al

; 247  : 		{"KB_F9",FKBInputDevice::KB_F9},

	movzx	eax, WORD PTR $SG218752+4
	mov	WORD PTR _asCvKeyBoardMapping$[esp+5584], ax
	xor	eax, eax
	mov	DWORD PTR _asCvKeyBoardMapping$[esp+5586], eax
	mov	DWORD PTR _asCvKeyBoardMapping$[esp+5590], eax
	mov	DWORD PTR _asCvKeyBoardMapping$[esp+5594], eax
	mov	DWORD PTR _asCvKeyBoardMapping$[esp+5598], eax
	mov	WORD PTR _asCvKeyBoardMapping$[esp+5602], ax
	mov	BYTE PTR _asCvKeyBoardMapping$[esp+5604], al

; 248  : 		{"KB_F10",FKBInputDevice::KB_F10},

	movzx	eax, BYTE PTR $SG218753+6
	mov	DWORD PTR _asCvKeyBoardMapping$[esp+5516], ecx
	movzx	ecx, WORD PTR $SG218751+4
	mov	BYTE PTR _asCvKeyBoardMapping$[esp+5618], al
	xor	eax, eax
	mov	WORD PTR _asCvKeyBoardMapping$[esp+5520], dx
	mov	edx, DWORD PTR $SG218752
	mov	WORD PTR _asCvKeyBoardMapping$[esp+5552], cx
	mov	ecx, DWORD PTR $SG218753
	mov	DWORD PTR _asCvKeyBoardMapping$[esp+5619], eax
	mov	DWORD PTR _asCvKeyBoardMapping$[esp+5623], eax
	mov	DWORD PTR _asCvKeyBoardMapping$[esp+5627], eax
	mov	DWORD PTR _asCvKeyBoardMapping$[esp+5631], eax
	mov	WORD PTR _asCvKeyBoardMapping$[esp+5635], ax

; 249  : 		{"KB_NUMLOCK",FKBInputDevice::KB_NUMLOCK},

	movzx	eax, WORD PTR $SG218754+8
	mov	DWORD PTR _asCvKeyBoardMapping$[esp+5580], edx
	movzx	edx, WORD PTR $SG218753+4
	mov	DWORD PTR _asCvKeyBoardMapping$[esp+5612], ecx
	mov	ecx, DWORD PTR $SG218754
	mov	DWORD PTR _asCvKeyBoardMapping$[esp+5644], ecx
	movzx	ecx, BYTE PTR $SG218754+10
	mov	WORD PTR _asCvKeyBoardMapping$[esp+5652], ax
	xor	eax, eax
	mov	WORD PTR _asCvKeyBoardMapping$[esp+5616], dx
	mov	edx, DWORD PTR $SG218754+4
	mov	DWORD PTR _asCvKeyBoardMapping$[esp+5655], eax
	mov	DWORD PTR _asCvKeyBoardMapping$[esp+5659], eax
	mov	DWORD PTR _asCvKeyBoardMapping$[esp+5663], eax
	mov	WORD PTR _asCvKeyBoardMapping$[esp+5667], ax

; 250  : 		{"KB_SCROLL",FKBInputDevice::KB_SCROLL},

	mov	eax, DWORD PTR $SG218755+4
	mov	DWORD PTR _asCvKeyBoardMapping$[esp+5648], edx
	mov	edx, DWORD PTR $SG218755
	mov	BYTE PTR _asCvKeyBoardMapping$[esp+5654], cl
	movzx	ecx, WORD PTR $SG218755+8
	mov	DWORD PTR _asCvKeyBoardMapping$[esp+5680], eax
	xor	eax, eax
	mov	DWORD PTR _asCvKeyBoardMapping$[esp+5676], edx

; 251  : 		{"KB_NUMPAD7",FKBInputDevice::KB_NUMPAD7},

	mov	edx, DWORD PTR $SG218756
	mov	DWORD PTR _asCvKeyBoardMapping$[esp+5512], 64 ; 00000040H
	mov	DWORD PTR _asCvKeyBoardMapping$[esp+5544], 65 ; 00000041H
	mov	DWORD PTR _asCvKeyBoardMapping$[esp+5576], 66 ; 00000042H
	mov	DWORD PTR _asCvKeyBoardMapping$[esp+5608], 67 ; 00000043H
	mov	DWORD PTR _asCvKeyBoardMapping$[esp+5640], 68 ; 00000044H
	mov	DWORD PTR _asCvKeyBoardMapping$[esp+5672], 71 ; 00000047H
	mov	WORD PTR _asCvKeyBoardMapping$[esp+5684], cx
	mov	DWORD PTR _asCvKeyBoardMapping$[esp+5686], eax
	mov	DWORD PTR _asCvKeyBoardMapping$[esp+5690], eax
	mov	DWORD PTR _asCvKeyBoardMapping$[esp+5694], eax
	mov	WORD PTR _asCvKeyBoardMapping$[esp+5698], ax
	mov	BYTE PTR _asCvKeyBoardMapping$[esp+5700], al
	mov	DWORD PTR _asCvKeyBoardMapping$[esp+5704], 72 ; 00000048H
	mov	eax, DWORD PTR $SG218756+4
	movzx	ecx, WORD PTR $SG218756+8
	mov	DWORD PTR _asCvKeyBoardMapping$[esp+5712], eax
	xor	eax, eax
	mov	DWORD PTR _asCvKeyBoardMapping$[esp+5719], eax
	mov	DWORD PTR _asCvKeyBoardMapping$[esp+5723], eax
	mov	DWORD PTR _asCvKeyBoardMapping$[esp+5727], eax
	mov	WORD PTR _asCvKeyBoardMapping$[esp+5731], ax

; 252  : 		{"KB_NUMPAD8",FKBInputDevice::KB_NUMPAD8},

	mov	eax, DWORD PTR $SG218757
	mov	DWORD PTR _asCvKeyBoardMapping$[esp+5740], eax
	movzx	eax, BYTE PTR $SG218757+10
	mov	BYTE PTR _asCvKeyBoardMapping$[esp+5750], al
	xor	eax, eax
	mov	DWORD PTR _asCvKeyBoardMapping$[esp+5751], eax
	mov	DWORD PTR _asCvKeyBoardMapping$[esp+5755], eax
	mov	DWORD PTR _asCvKeyBoardMapping$[esp+5759], eax
	mov	WORD PTR _asCvKeyBoardMapping$[esp+5763], ax

; 253  : 		{"KB_NUMPAD9",FKBInputDevice::KB_NUMPAD9},

	movzx	eax, WORD PTR $SG218758+8
	mov	DWORD PTR _asCvKeyBoardMapping$[esp+5708], edx
	movzx	edx, BYTE PTR $SG218756+10
	mov	WORD PTR _asCvKeyBoardMapping$[esp+5780], ax
	xor	eax, eax
	mov	WORD PTR _asCvKeyBoardMapping$[esp+5716], cx
	mov	ecx, DWORD PTR $SG218757+4
	mov	BYTE PTR _asCvKeyBoardMapping$[esp+5718], dl
	movzx	edx, WORD PTR $SG218757+8
	mov	DWORD PTR _asCvKeyBoardMapping$[esp+5783], eax
	mov	DWORD PTR _asCvKeyBoardMapping$[esp+5787], eax
	mov	DWORD PTR _asCvKeyBoardMapping$[esp+5791], eax
	mov	WORD PTR _asCvKeyBoardMapping$[esp+5795], ax

; 254  : 		{"KB_NUMPADMINUS",FKBInputDevice::KB_NUMPADMINUS},

	mov	eax, DWORD PTR $SG218759+4
	mov	DWORD PTR _asCvKeyBoardMapping$[esp+5744], ecx
	mov	ecx, DWORD PTR $SG218758
	mov	WORD PTR _asCvKeyBoardMapping$[esp+5748], dx
	mov	edx, DWORD PTR $SG218758+4
	mov	DWORD PTR _asCvKeyBoardMapping$[esp+5808], eax
	movzx	eax, BYTE PTR $SG218759+14
	mov	DWORD PTR _asCvKeyBoardMapping$[esp+5772], ecx
	movzx	ecx, BYTE PTR $SG218758+10
	mov	DWORD PTR _asCvKeyBoardMapping$[esp+5776], edx
	mov	edx, DWORD PTR $SG218759
	mov	BYTE PTR _asCvKeyBoardMapping$[esp+5818], al
	xor	eax, eax
	mov	BYTE PTR _asCvKeyBoardMapping$[esp+5782], cl
	mov	ecx, DWORD PTR $SG218759+8
	mov	DWORD PTR _asCvKeyBoardMapping$[esp+5804], edx
	movzx	edx, WORD PTR $SG218759+12
	mov	DWORD PTR _asCvKeyBoardMapping$[esp+5819], eax
	mov	DWORD PTR _asCvKeyBoardMapping$[esp+5823], eax
	mov	WORD PTR _asCvKeyBoardMapping$[esp+5827], ax

; 255  : 		{"KB_NUMPAD4",FKBInputDevice::KB_NUMPAD4},

	movzx	eax, WORD PTR $SG218760+8
	mov	DWORD PTR _asCvKeyBoardMapping$[esp+5812], ecx
	mov	ecx, DWORD PTR $SG218760
	mov	WORD PTR _asCvKeyBoardMapping$[esp+5816], dx
	mov	edx, DWORD PTR $SG218760+4
	mov	DWORD PTR _asCvKeyBoardMapping$[esp+5836], ecx
	movzx	ecx, BYTE PTR $SG218760+10
	mov	WORD PTR _asCvKeyBoardMapping$[esp+5844], ax
	xor	eax, eax
	mov	DWORD PTR _asCvKeyBoardMapping$[esp+5840], edx

; 256  : 		{"KB_NUMPAD5",FKBInputDevice::KB_NUMPAD5},

	mov	edx, DWORD PTR $SG218761
	mov	DWORD PTR _asCvKeyBoardMapping$[esp+5847], eax
	mov	DWORD PTR _asCvKeyBoardMapping$[esp+5851], eax
	mov	DWORD PTR _asCvKeyBoardMapping$[esp+5855], eax
	mov	WORD PTR _asCvKeyBoardMapping$[esp+5859], ax
	mov	eax, DWORD PTR $SG218761+4
	mov	BYTE PTR _asCvKeyBoardMapping$[esp+5846], cl
	movzx	ecx, WORD PTR $SG218761+8
	mov	DWORD PTR _asCvKeyBoardMapping$[esp+5868], edx
	movzx	edx, BYTE PTR $SG218761+10
	mov	DWORD PTR _asCvKeyBoardMapping$[esp+5872], eax
	xor	eax, eax
	mov	DWORD PTR _asCvKeyBoardMapping$[esp+5736], 80 ; 00000050H
	mov	DWORD PTR _asCvKeyBoardMapping$[esp+5768], 81 ; 00000051H
	mov	DWORD PTR _asCvKeyBoardMapping$[esp+5800], 82 ; 00000052H
	mov	DWORD PTR _asCvKeyBoardMapping$[esp+5832], 83 ; 00000053H
	mov	DWORD PTR _asCvKeyBoardMapping$[esp+5864], 77 ; 0000004dH
	mov	WORD PTR _asCvKeyBoardMapping$[esp+5876], cx
	mov	BYTE PTR _asCvKeyBoardMapping$[esp+5878], dl
	mov	DWORD PTR _asCvKeyBoardMapping$[esp+5879], eax
	mov	DWORD PTR _asCvKeyBoardMapping$[esp+5883], eax

; 257  : 		{"KB_NUMPAD6",FKBInputDevice::KB_NUMPAD6},

	mov	ecx, DWORD PTR $SG218762+4
	movzx	edx, WORD PTR $SG218762+8
	mov	DWORD PTR _asCvKeyBoardMapping$[esp+5887], eax
	mov	WORD PTR _asCvKeyBoardMapping$[esp+5891], ax
	mov	eax, DWORD PTR $SG218762
	mov	DWORD PTR _asCvKeyBoardMapping$[esp+5900], eax
	movzx	eax, BYTE PTR $SG218762+10
	mov	BYTE PTR _asCvKeyBoardMapping$[esp+5910], al
	xor	eax, eax
	mov	DWORD PTR _asCvKeyBoardMapping$[esp+5911], eax
	mov	DWORD PTR _asCvKeyBoardMapping$[esp+5915], eax
	mov	DWORD PTR _asCvKeyBoardMapping$[esp+5919], eax
	mov	WORD PTR _asCvKeyBoardMapping$[esp+5923], ax

; 258  : 		{"KB_NUMPADPLUS",FKBInputDevice::KB_NUMPADPLUS},

	mov	eax, DWORD PTR $SG218763+8
	mov	DWORD PTR _asCvKeyBoardMapping$[esp+5940], eax
	xor	eax, eax
	mov	DWORD PTR _asCvKeyBoardMapping$[esp+5904], ecx
	mov	ecx, DWORD PTR $SG218763
	mov	DWORD PTR _asCvKeyBoardMapping$[esp+5946], eax
	mov	DWORD PTR _asCvKeyBoardMapping$[esp+5950], eax
	mov	WORD PTR _asCvKeyBoardMapping$[esp+5954], ax
	mov	BYTE PTR _asCvKeyBoardMapping$[esp+5956], al

; 259  : 		{"KB_NUMPAD1",FKBInputDevice::KB_NUMPAD1},

	mov	eax, DWORD PTR $SG218764+4
	mov	WORD PTR _asCvKeyBoardMapping$[esp+5908], dx
	mov	edx, DWORD PTR $SG218763+4
	mov	DWORD PTR _asCvKeyBoardMapping$[esp+5932], ecx
	movzx	ecx, WORD PTR $SG218763+12
	mov	DWORD PTR _asCvKeyBoardMapping$[esp+5968], eax
	xor	eax, eax
	mov	DWORD PTR _asCvKeyBoardMapping$[esp+5936], edx
	mov	edx, DWORD PTR $SG218764
	mov	DWORD PTR _asCvKeyBoardMapping$[esp+5975], eax
	mov	DWORD PTR _asCvKeyBoardMapping$[esp+5979], eax
	mov	DWORD PTR _asCvKeyBoardMapping$[esp+5983], eax
	mov	WORD PTR _asCvKeyBoardMapping$[esp+5987], ax

; 260  : 		{"KB_NUMPAD2",FKBInputDevice::KB_NUMPAD2},

	mov	eax, DWORD PTR $SG218765
	mov	WORD PTR _asCvKeyBoardMapping$[esp+5944], cx
	movzx	ecx, WORD PTR $SG218764+8
	mov	DWORD PTR _asCvKeyBoardMapping$[esp+5964], edx
	movzx	edx, BYTE PTR $SG218764+10
	mov	DWORD PTR _asCvKeyBoardMapping$[esp+5996], eax
	movzx	eax, BYTE PTR $SG218765+10
	mov	WORD PTR _asCvKeyBoardMapping$[esp+5972], cx
	mov	ecx, DWORD PTR $SG218765+4
	mov	BYTE PTR _asCvKeyBoardMapping$[esp+5974], dl
	movzx	edx, WORD PTR $SG218765+8
	mov	BYTE PTR _asCvKeyBoardMapping$[esp+6006], al
	xor	eax, eax
	mov	DWORD PTR _asCvKeyBoardMapping$[esp+6000], ecx

; 261  : 		{"KB_NUMPAD3",FKBInputDevice::KB_NUMPAD3},

	mov	ecx, DWORD PTR $SG218766
	mov	WORD PTR _asCvKeyBoardMapping$[esp+6004], dx
	mov	edx, DWORD PTR $SG218766+4
	mov	DWORD PTR _asCvKeyBoardMapping$[esp+6007], eax
	mov	DWORD PTR _asCvKeyBoardMapping$[esp+6011], eax
	mov	DWORD PTR _asCvKeyBoardMapping$[esp+6015], eax
	mov	WORD PTR _asCvKeyBoardMapping$[esp+6019], ax
	movzx	eax, WORD PTR $SG218766+8
	mov	DWORD PTR _asCvKeyBoardMapping$[esp+6028], ecx
	movzx	ecx, BYTE PTR $SG218766+10
	mov	DWORD PTR _asCvKeyBoardMapping$[esp+6032], edx

; 262  : 		{"KB_NUMPAD0",FKBInputDevice::KB_NUMPAD0},

	mov	edx, DWORD PTR $SG218767
	mov	WORD PTR _asCvKeyBoardMapping$[esp+6036], ax
	xor	eax, eax
	mov	BYTE PTR _asCvKeyBoardMapping$[esp+6038], cl
	movzx	ecx, WORD PTR $SG218767+8
	mov	DWORD PTR _asCvKeyBoardMapping$[esp+6060], edx
	movzx	edx, BYTE PTR $SG218767+10
	mov	DWORD PTR _asCvKeyBoardMapping$[esp+6039], eax
	mov	DWORD PTR _asCvKeyBoardMapping$[esp+6043], eax
	mov	DWORD PTR _asCvKeyBoardMapping$[esp+6047], eax
	mov	WORD PTR _asCvKeyBoardMapping$[esp+6051], ax
	mov	eax, DWORD PTR $SG218767+4
	mov	DWORD PTR _asCvKeyBoardMapping$[esp+5896], 78 ; 0000004eH
	mov	DWORD PTR _asCvKeyBoardMapping$[esp+5928], 79 ; 0000004fH
	mov	DWORD PTR _asCvKeyBoardMapping$[esp+5960], 84 ; 00000054H
	mov	DWORD PTR _asCvKeyBoardMapping$[esp+5992], 74 ; 0000004aH
	mov	DWORD PTR _asCvKeyBoardMapping$[esp+6024], 75 ; 0000004bH
	mov	DWORD PTR _asCvKeyBoardMapping$[esp+6056], 76 ; 0000004cH
	mov	DWORD PTR _asCvKeyBoardMapping$[esp+6064], eax
	mov	WORD PTR _asCvKeyBoardMapping$[esp+6068], cx
	mov	BYTE PTR _asCvKeyBoardMapping$[esp+6070], dl
	xor	eax, eax
	mov	DWORD PTR _asCvKeyBoardMapping$[esp+6071], eax
	mov	DWORD PTR _asCvKeyBoardMapping$[esp+6075], eax
	mov	DWORD PTR _asCvKeyBoardMapping$[esp+6079], eax
	mov	WORD PTR _asCvKeyBoardMapping$[esp+6083], ax

; 263  : 		{"KB_NUMPADPERIOD",FKBInputDevice::KB_NUMPADPERIOD},

	mov	eax, DWORD PTR $SG218768
	mov	ecx, DWORD PTR $SG218768+4
	mov	edx, DWORD PTR $SG218768+8
	mov	DWORD PTR _asCvKeyBoardMapping$[esp+6092], eax
	mov	eax, DWORD PTR $SG218768+12
	mov	DWORD PTR _asCvKeyBoardMapping$[esp+6104], eax
	xor	eax, eax
	mov	DWORD PTR _asCvKeyBoardMapping$[esp+6108], eax
	mov	DWORD PTR _asCvKeyBoardMapping$[esp+6112], eax
	mov	BYTE PTR _asCvKeyBoardMapping$[esp+6116], al

; 264  : 		{"KB_F11",FKBInputDevice::KB_F11},

	movzx	eax, BYTE PTR $SG218769+6
	mov	BYTE PTR _asCvKeyBoardMapping$[esp+6130], al
	xor	eax, eax
	mov	DWORD PTR _asCvKeyBoardMapping$[esp+6131], eax
	mov	DWORD PTR _asCvKeyBoardMapping$[esp+6135], eax
	mov	DWORD PTR _asCvKeyBoardMapping$[esp+6139], eax
	mov	DWORD PTR _asCvKeyBoardMapping$[esp+6143], eax
	mov	WORD PTR _asCvKeyBoardMapping$[esp+6147], ax

; 265  : 		{"KB_F12",FKBInputDevice::KB_F12},

	movzx	eax, BYTE PTR $SG218770+6
	mov	BYTE PTR _asCvKeyBoardMapping$[esp+6162], al
	xor	eax, eax
	mov	DWORD PTR _asCvKeyBoardMapping$[esp+6096], ecx
	mov	ecx, DWORD PTR $SG218769
	mov	DWORD PTR _asCvKeyBoardMapping$[esp+6163], eax
	mov	DWORD PTR _asCvKeyBoardMapping$[esp+6167], eax
	mov	DWORD PTR _asCvKeyBoardMapping$[esp+6171], eax
	mov	DWORD PTR _asCvKeyBoardMapping$[esp+6175], eax
	mov	WORD PTR _asCvKeyBoardMapping$[esp+6179], ax

; 266  : 		{"KB_NUMPADEQUALS",FKBInputDevice::KB_NUMPADEQUALS},

	mov	eax, DWORD PTR $SG218771+8
	mov	DWORD PTR _asCvKeyBoardMapping$[esp+6100], edx
	movzx	edx, WORD PTR $SG218769+4
	mov	DWORD PTR _asCvKeyBoardMapping$[esp+6124], ecx
	mov	ecx, DWORD PTR $SG218770
	mov	DWORD PTR _asCvKeyBoardMapping$[esp+6196], eax
	xor	eax, eax
	mov	WORD PTR _asCvKeyBoardMapping$[esp+6128], dx
	movzx	edx, WORD PTR $SG218770+4
	mov	DWORD PTR _asCvKeyBoardMapping$[esp+6156], ecx
	mov	ecx, DWORD PTR $SG218771
	mov	DWORD PTR _asCvKeyBoardMapping$[esp+6204], eax
	mov	DWORD PTR _asCvKeyBoardMapping$[esp+6208], eax
	mov	BYTE PTR _asCvKeyBoardMapping$[esp+6212], al

; 267  : 		{"KB_AT",FKBInputDevice::KB_AT},

	movzx	eax, WORD PTR $SG218772+4
	mov	DWORD PTR _asCvKeyBoardMapping$[esp+6188], ecx
	mov	ecx, DWORD PTR $SG218771+12
	mov	WORD PTR _asCvKeyBoardMapping$[esp+6160], dx
	mov	edx, DWORD PTR $SG218771+4
	mov	WORD PTR _asCvKeyBoardMapping$[esp+6224], ax
	xor	eax, eax
	mov	DWORD PTR _asCvKeyBoardMapping$[esp+6200], ecx

; 268  : 		{"KB_UNDERLINE",FKBInputDevice::KB_UNDERLINE},

	mov	ecx, DWORD PTR $SG218773
	mov	DWORD PTR _asCvKeyBoardMapping$[esp+6192], edx
	mov	edx, DWORD PTR $SG218772
	mov	DWORD PTR _asCvKeyBoardMapping$[esp+6226], eax
	mov	DWORD PTR _asCvKeyBoardMapping$[esp+6230], eax
	mov	DWORD PTR _asCvKeyBoardMapping$[esp+6234], eax
	mov	DWORD PTR _asCvKeyBoardMapping$[esp+6238], eax
	mov	WORD PTR _asCvKeyBoardMapping$[esp+6242], ax
	mov	BYTE PTR _asCvKeyBoardMapping$[esp+6244], al
	mov	eax, DWORD PTR $SG218773+8
	mov	DWORD PTR _asCvKeyBoardMapping$[esp+6252], ecx
	movzx	ecx, BYTE PTR $SG218773+12
	mov	DWORD PTR _asCvKeyBoardMapping$[esp+6220], edx
	mov	edx, DWORD PTR $SG218773+4
	mov	DWORD PTR _asCvKeyBoardMapping$[esp+6260], eax
	xor	eax, eax
	mov	DWORD PTR _asCvKeyBoardMapping$[esp+6088], 73 ; 00000049H
	mov	DWORD PTR _asCvKeyBoardMapping$[esp+6120], 85 ; 00000055H
	mov	DWORD PTR _asCvKeyBoardMapping$[esp+6152], 69 ; 00000045H
	mov	DWORD PTR _asCvKeyBoardMapping$[esp+6184], 70 ; 00000046H
	mov	DWORD PTR _asCvKeyBoardMapping$[esp+6216], 86 ; 00000056H
	mov	DWORD PTR _asCvKeyBoardMapping$[esp+6248], 87 ; 00000057H
	mov	DWORD PTR _asCvKeyBoardMapping$[esp+6256], edx
	mov	BYTE PTR _asCvKeyBoardMapping$[esp+6264], cl
	mov	DWORD PTR _asCvKeyBoardMapping$[esp+6265], eax
	mov	DWORD PTR _asCvKeyBoardMapping$[esp+6269], eax

; 269  : 		{"KB_COLON",FKBInputDevice::KB_COLON},

	mov	edx, DWORD PTR $SG218774
	mov	DWORD PTR _asCvKeyBoardMapping$[esp+6273], eax
	mov	eax, DWORD PTR $SG218774+4
	movzx	ecx, BYTE PTR $SG218774+8
	mov	DWORD PTR _asCvKeyBoardMapping$[esp+6288], eax
	xor	eax, eax
	mov	DWORD PTR _asCvKeyBoardMapping$[esp+6293], eax
	mov	DWORD PTR _asCvKeyBoardMapping$[esp+6297], eax
	mov	DWORD PTR _asCvKeyBoardMapping$[esp+6301], eax
	mov	DWORD PTR _asCvKeyBoardMapping$[esp+6305], eax

; 270  : 		{"KB_NUMPADENTER",FKBInputDevice::KB_NUMPADENTER},

	mov	eax, DWORD PTR $SG218775+4
	mov	DWORD PTR _asCvKeyBoardMapping$[esp+6320], eax
	movzx	eax, BYTE PTR $SG218775+14
	mov	BYTE PTR _asCvKeyBoardMapping$[esp+6330], al
	xor	eax, eax
	mov	DWORD PTR _asCvKeyBoardMapping$[esp+6331], eax
	mov	DWORD PTR _asCvKeyBoardMapping$[esp+6335], eax
	mov	WORD PTR _asCvKeyBoardMapping$[esp+6339], ax

; 271  : 		{"KB_RCONTROL",FKBInputDevice::KB_RCONTROL},

	mov	eax, DWORD PTR $SG218776+8
	mov	DWORD PTR _asCvKeyBoardMapping$[esp+6356], eax
	xor	eax, eax
	mov	DWORD PTR _asCvKeyBoardMapping$[esp+6284], edx
	mov	edx, DWORD PTR $SG218775
	mov	DWORD PTR _asCvKeyBoardMapping$[esp+6360], eax
	mov	DWORD PTR _asCvKeyBoardMapping$[esp+6364], eax
	mov	DWORD PTR _asCvKeyBoardMapping$[esp+6368], eax
	mov	BYTE PTR _asCvKeyBoardMapping$[esp+6372], al

; 272  : 		{"KB_VOLUMEDOWN",FKBInputDevice::KB_VOLUMEDOWN},

	mov	eax, DWORD PTR $SG218777+8
	mov	DWORD PTR _asCvKeyBoardMapping$[esp+6316], edx
	movzx	edx, WORD PTR $SG218775+12
	mov	BYTE PTR _asCvKeyBoardMapping$[esp+6292], cl
	mov	ecx, DWORD PTR $SG218775+8
	mov	DWORD PTR _asCvKeyBoardMapping$[esp+6388], eax
	xor	eax, eax
	mov	DWORD PTR _asCvKeyBoardMapping$[esp+6324], ecx
	mov	ecx, DWORD PTR $SG218776
	mov	WORD PTR _asCvKeyBoardMapping$[esp+6328], dx
	mov	edx, DWORD PTR $SG218776+4
	mov	DWORD PTR _asCvKeyBoardMapping$[esp+6394], eax
	mov	DWORD PTR _asCvKeyBoardMapping$[esp+6398], eax
	mov	WORD PTR _asCvKeyBoardMapping$[esp+6402], ax
	mov	BYTE PTR _asCvKeyBoardMapping$[esp+6404], al

; 273  : 		{"KB_VOLUMEUP",FKBInputDevice::KB_VOLUMEUP},

	mov	eax, DWORD PTR $SG218778+4
	mov	DWORD PTR _asCvKeyBoardMapping$[esp+6348], ecx
	mov	ecx, DWORD PTR $SG218777
	mov	DWORD PTR _asCvKeyBoardMapping$[esp+6352], edx
	mov	edx, DWORD PTR $SG218777+4
	mov	DWORD PTR _asCvKeyBoardMapping$[esp+6416], eax
	xor	eax, eax
	mov	DWORD PTR _asCvKeyBoardMapping$[esp+6380], ecx
	movzx	ecx, WORD PTR $SG218777+12
	mov	DWORD PTR _asCvKeyBoardMapping$[esp+6384], edx
	mov	edx, DWORD PTR $SG218778
	mov	DWORD PTR _asCvKeyBoardMapping$[esp+6424], eax
	mov	DWORD PTR _asCvKeyBoardMapping$[esp+6428], eax
	mov	DWORD PTR _asCvKeyBoardMapping$[esp+6432], eax
	mov	BYTE PTR _asCvKeyBoardMapping$[esp+6436], al

; 274  : 		{"KB_NUMPADCOMMA",FKBInputDevice::KB_NUMPADCOMMA},

	mov	eax, DWORD PTR $SG218779+4
	mov	DWORD PTR _asCvKeyBoardMapping$[esp+6412], edx
	mov	edx, DWORD PTR $SG218779
	mov	DWORD PTR _asCvKeyBoardMapping$[esp+6448], eax
	movzx	eax, BYTE PTR $SG218779+14
	mov	WORD PTR _asCvKeyBoardMapping$[esp+6392], cx
	mov	ecx, DWORD PTR $SG218778+8
	mov	DWORD PTR _asCvKeyBoardMapping$[esp+6444], edx
	movzx	edx, WORD PTR $SG218779+12
	mov	DWORD PTR _asCvKeyBoardMapping$[esp+6420], ecx
	mov	ecx, DWORD PTR $SG218779+8
	mov	BYTE PTR _asCvKeyBoardMapping$[esp+6458], al
	xor	eax, eax
	mov	DWORD PTR _asCvKeyBoardMapping$[esp+6280], 88 ; 00000058H
	mov	DWORD PTR _asCvKeyBoardMapping$[esp+6312], 89 ; 00000059H
	mov	DWORD PTR _asCvKeyBoardMapping$[esp+6344], 90 ; 0000005aH
	mov	DWORD PTR _asCvKeyBoardMapping$[esp+6376], 91 ; 0000005bH
	mov	DWORD PTR _asCvKeyBoardMapping$[esp+6408], 92 ; 0000005cH
	mov	DWORD PTR _asCvKeyBoardMapping$[esp+6440], 93 ; 0000005dH
	mov	DWORD PTR _asCvKeyBoardMapping$[esp+6452], ecx
	mov	WORD PTR _asCvKeyBoardMapping$[esp+6456], dx
	mov	DWORD PTR _asCvKeyBoardMapping$[esp+6459], eax
	mov	DWORD PTR _asCvKeyBoardMapping$[esp+6463], eax
	mov	WORD PTR _asCvKeyBoardMapping$[esp+6467], ax

; 275  : 		{"KB_NUMPADSLASH",FKBInputDevice::KB_NUMPADSLASH},

	mov	eax, DWORD PTR $SG218780+8
	mov	ecx, DWORD PTR $SG218780
	mov	edx, DWORD PTR $SG218780+4
	mov	DWORD PTR _asCvKeyBoardMapping$[esp+6484], eax
	xor	eax, eax
	mov	DWORD PTR _asCvKeyBoardMapping$[esp+6491], eax
	mov	DWORD PTR _asCvKeyBoardMapping$[esp+6495], eax
	mov	WORD PTR _asCvKeyBoardMapping$[esp+6499], ax

; 276  : 		{"KB_SYSRQ",FKBInputDevice::KB_SYSRQ},

	mov	eax, DWORD PTR $SG218781
	mov	DWORD PTR _asCvKeyBoardMapping$[esp+6508], eax
	xor	eax, eax
	mov	DWORD PTR _asCvKeyBoardMapping$[esp+6517], eax
	mov	DWORD PTR _asCvKeyBoardMapping$[esp+6521], eax
	mov	DWORD PTR _asCvKeyBoardMapping$[esp+6525], eax
	mov	DWORD PTR _asCvKeyBoardMapping$[esp+6529], eax

; 277  : 		{"KB_RALT",FKBInputDevice::KB_RALT},

	mov	eax, DWORD PTR $SG218782
	mov	DWORD PTR _asCvKeyBoardMapping$[esp+6476], ecx
	movzx	ecx, WORD PTR $SG218780+12
	mov	DWORD PTR _asCvKeyBoardMapping$[esp+6540], eax
	xor	eax, eax
	mov	DWORD PTR _asCvKeyBoardMapping$[esp+6480], edx
	movzx	edx, BYTE PTR $SG218780+14
	mov	DWORD PTR _asCvKeyBoardMapping$[esp+6548], eax
	mov	DWORD PTR _asCvKeyBoardMapping$[esp+6552], eax
	mov	DWORD PTR _asCvKeyBoardMapping$[esp+6556], eax
	mov	DWORD PTR _asCvKeyBoardMapping$[esp+6560], eax
	mov	BYTE PTR _asCvKeyBoardMapping$[esp+6564], al

; 278  : 		{"KB_PAUSE",FKBInputDevice::KB_PAUSE},

	mov	eax, DWORD PTR $SG218783+4
	mov	WORD PTR _asCvKeyBoardMapping$[esp+6488], cx
	mov	ecx, DWORD PTR $SG218781+4
	mov	BYTE PTR _asCvKeyBoardMapping$[esp+6490], dl
	movzx	edx, BYTE PTR $SG218781+8
	mov	DWORD PTR _asCvKeyBoardMapping$[esp+6576], eax
	xor	eax, eax
	mov	DWORD PTR _asCvKeyBoardMapping$[esp+6512], ecx
	mov	ecx, DWORD PTR $SG218782+4
	mov	DWORD PTR _asCvKeyBoardMapping$[esp+6581], eax
	mov	DWORD PTR _asCvKeyBoardMapping$[esp+6585], eax
	mov	DWORD PTR _asCvKeyBoardMapping$[esp+6589], eax
	mov	DWORD PTR _asCvKeyBoardMapping$[esp+6593], eax

; 279  : 		{"KB_HOME",FKBInputDevice::KB_HOME},

	mov	eax, DWORD PTR $SG218784+4
	mov	BYTE PTR _asCvKeyBoardMapping$[esp+6516], dl
	mov	edx, DWORD PTR $SG218783
	mov	DWORD PTR _asCvKeyBoardMapping$[esp+6544], ecx
	movzx	ecx, BYTE PTR $SG218783+8
	mov	DWORD PTR _asCvKeyBoardMapping$[esp+6608], eax
	xor	eax, eax
	mov	DWORD PTR _asCvKeyBoardMapping$[esp+6572], edx
	mov	edx, DWORD PTR $SG218784
	mov	BYTE PTR _asCvKeyBoardMapping$[esp+6580], cl

; 280  : 		{"KB_UP",FKBInputDevice::KB_UP},

	mov	ecx, DWORD PTR $SG218785
	mov	DWORD PTR _asCvKeyBoardMapping$[esp+6612], eax
	mov	DWORD PTR _asCvKeyBoardMapping$[esp+6616], eax
	mov	DWORD PTR _asCvKeyBoardMapping$[esp+6620], eax
	mov	DWORD PTR _asCvKeyBoardMapping$[esp+6624], eax
	mov	BYTE PTR _asCvKeyBoardMapping$[esp+6628], al
	mov	DWORD PTR _asCvKeyBoardMapping$[esp+6642], eax
	mov	DWORD PTR _asCvKeyBoardMapping$[esp+6646], eax
	mov	DWORD PTR _asCvKeyBoardMapping$[esp+6650], eax
	mov	DWORD PTR _asCvKeyBoardMapping$[esp+6654], eax
	mov	WORD PTR _asCvKeyBoardMapping$[esp+6658], ax
	mov	BYTE PTR _asCvKeyBoardMapping$[esp+6660], al

; 281  : 		{"KB_PGUP",FKBInputDevice::KB_PGUP},

	mov	eax, DWORD PTR $SG218786
	mov	DWORD PTR _asCvKeyBoardMapping$[esp+6604], edx
	movzx	edx, WORD PTR $SG218785+4
	mov	DWORD PTR _asCvKeyBoardMapping$[esp+6636], ecx
	mov	ecx, DWORD PTR $SG218786+4
	mov	DWORD PTR _asCvKeyBoardMapping$[esp+6668], eax
	xor	eax, eax
	mov	DWORD PTR _asCvKeyBoardMapping$[esp+6472], 94 ; 0000005eH
	mov	DWORD PTR _asCvKeyBoardMapping$[esp+6504], 95 ; 0000005fH
	mov	DWORD PTR _asCvKeyBoardMapping$[esp+6536], 96 ; 00000060H
	mov	DWORD PTR _asCvKeyBoardMapping$[esp+6568], 97 ; 00000061H
	mov	DWORD PTR _asCvKeyBoardMapping$[esp+6600], 98 ; 00000062H
	mov	DWORD PTR _asCvKeyBoardMapping$[esp+6632], 99 ; 00000063H
	mov	WORD PTR _asCvKeyBoardMapping$[esp+6640], dx
	mov	DWORD PTR _asCvKeyBoardMapping$[esp+6664], 100 ; 00000064H
	mov	DWORD PTR _asCvKeyBoardMapping$[esp+6672], ecx
	mov	DWORD PTR _asCvKeyBoardMapping$[esp+6676], eax
	mov	DWORD PTR _asCvKeyBoardMapping$[esp+6680], eax
	mov	DWORD PTR _asCvKeyBoardMapping$[esp+6684], eax

; 282  : 		{"KB_LEFT",FKBInputDevice::KB_LEFT},
; 283  : 		{"KB_RIGHT",FKBInputDevice::KB_RIGHT},

	mov	ecx, DWORD PTR $SG218788
	mov	edx, DWORD PTR $SG218787
	mov	DWORD PTR _asCvKeyBoardMapping$[esp+6688], eax
	mov	BYTE PTR _asCvKeyBoardMapping$[esp+6692], al
	mov	eax, DWORD PTR $SG218787+4
	mov	DWORD PTR _asCvKeyBoardMapping$[esp+6704], eax
	xor	eax, eax
	mov	DWORD PTR _asCvKeyBoardMapping$[esp+6708], eax
	mov	DWORD PTR _asCvKeyBoardMapping$[esp+6712], eax
	mov	DWORD PTR _asCvKeyBoardMapping$[esp+6716], eax
	mov	DWORD PTR _asCvKeyBoardMapping$[esp+6720], eax
	mov	BYTE PTR _asCvKeyBoardMapping$[esp+6724], al
	movzx	eax, BYTE PTR $SG218788+8
	mov	BYTE PTR _asCvKeyBoardMapping$[esp+6740], al
	xor	eax, eax
	mov	DWORD PTR _asCvKeyBoardMapping$[esp+6741], eax
	mov	DWORD PTR _asCvKeyBoardMapping$[esp+6745], eax
	mov	DWORD PTR _asCvKeyBoardMapping$[esp+6749], eax
	mov	DWORD PTR _asCvKeyBoardMapping$[esp+6753], eax

; 284  : 		{"KB_END",FKBInputDevice::KB_END},

	movzx	eax, BYTE PTR $SG218789+6
	mov	BYTE PTR _asCvKeyBoardMapping$[esp+6770], al
	xor	eax, eax
	mov	DWORD PTR _asCvKeyBoardMapping$[esp+6732], ecx
	mov	ecx, DWORD PTR $SG218789
	mov	DWORD PTR _asCvKeyBoardMapping$[esp+6771], eax
	mov	DWORD PTR _asCvKeyBoardMapping$[esp+6775], eax
	mov	DWORD PTR _asCvKeyBoardMapping$[esp+6779], eax
	mov	DWORD PTR _asCvKeyBoardMapping$[esp+6783], eax
	mov	WORD PTR _asCvKeyBoardMapping$[esp+6787], ax

; 285  : 		{"KB_DOWN",FKBInputDevice::KB_DOWN},

	mov	DWORD PTR _asCvKeyBoardMapping$[esp+6804], eax
	mov	DWORD PTR _asCvKeyBoardMapping$[esp+6808], eax
	mov	DWORD PTR _asCvKeyBoardMapping$[esp+6812], eax
	mov	DWORD PTR _asCvKeyBoardMapping$[esp+6816], eax
	mov	BYTE PTR _asCvKeyBoardMapping$[esp+6820], al

; 286  : 		{"KB_PGDN",FKBInputDevice::KB_PGDN},

	mov	eax, DWORD PTR $SG218791
	mov	DWORD PTR _asCvKeyBoardMapping$[esp+6700], edx
	mov	edx, DWORD PTR $SG218788+4
	mov	DWORD PTR _asCvKeyBoardMapping$[esp+6764], ecx
	mov	ecx, DWORD PTR $SG218790
	mov	DWORD PTR _asCvKeyBoardMapping$[esp+6828], eax
	xor	eax, eax
	mov	DWORD PTR _asCvKeyBoardMapping$[esp+6736], edx
	movzx	edx, WORD PTR $SG218789+4
	mov	DWORD PTR _asCvKeyBoardMapping$[esp+6796], ecx
	mov	ecx, DWORD PTR $SG218791+4
	mov	DWORD PTR _asCvKeyBoardMapping$[esp+6836], eax
	mov	DWORD PTR _asCvKeyBoardMapping$[esp+6840], eax
	mov	DWORD PTR _asCvKeyBoardMapping$[esp+6844], eax
	mov	DWORD PTR _asCvKeyBoardMapping$[esp+6848], eax
	mov	BYTE PTR _asCvKeyBoardMapping$[esp+6852], al

; 287  : 		{"KB_INSERT",FKBInputDevice::KB_INSERT},

	mov	eax, DWORD PTR $SG218792+4
	mov	WORD PTR _asCvKeyBoardMapping$[esp+6768], dx
	mov	edx, DWORD PTR $SG218790+4
	mov	DWORD PTR _asCvKeyBoardMapping$[esp+6832], ecx
	movzx	ecx, WORD PTR $SG218792+8
	mov	DWORD PTR _asCvKeyBoardMapping$[esp+6864], eax
	xor	eax, eax
	mov	DWORD PTR _asCvKeyBoardMapping$[esp+6800], edx
	mov	edx, DWORD PTR $SG218792
	mov	DWORD PTR _asCvKeyBoardMapping$[esp+6870], eax
	mov	DWORD PTR _asCvKeyBoardMapping$[esp+6874], eax
	mov	DWORD PTR _asCvKeyBoardMapping$[esp+6878], eax
	mov	WORD PTR _asCvKeyBoardMapping$[esp+6882], ax
	mov	BYTE PTR _asCvKeyBoardMapping$[esp+6884], al

; 288  : 		{"KB_DELETE",FKBInputDevice::KB_DELETE},

	mov	eax, DWORD PTR $SG218793+4
	mov	WORD PTR _asCvKeyBoardMapping$[esp+6868], cx
	movzx	ecx, WORD PTR $SG218793+8
	mov	DWORD PTR _asCvKeyBoardMapping$[esp+6860], edx
	mov	edx, DWORD PTR $SG218793
	mov	DWORD PTR _asCvKeyBoardMapping$[esp+6896], eax
	xor	eax, eax
	mov	DWORD PTR _asCvKeyBoardMapping$[esp+6696], 101 ; 00000065H
	mov	DWORD PTR _asCvKeyBoardMapping$[esp+6728], 102 ; 00000066H
	mov	DWORD PTR _asCvKeyBoardMapping$[esp+6760], 103 ; 00000067H
	mov	DWORD PTR _asCvKeyBoardMapping$[esp+6792], 104 ; 00000068H
	mov	DWORD PTR _asCvKeyBoardMapping$[esp+6824], 105 ; 00000069H
	mov	DWORD PTR _asCvKeyBoardMapping$[esp+6856], 106 ; 0000006aH
	mov	DWORD PTR _asCvKeyBoardMapping$[esp+6888], 107 ; 0000006bH
	mov	DWORD PTR _asCvKeyBoardMapping$[esp+6892], edx
	mov	WORD PTR _asCvKeyBoardMapping$[esp+6900], cx
	mov	DWORD PTR _asCvKeyBoardMapping$[esp+6902], eax
	mov	DWORD PTR _asCvKeyBoardMapping$[esp+6906], eax
	mov	DWORD PTR _asCvKeyBoardMapping$[esp+6910], eax
	mov	WORD PTR _asCvKeyBoardMapping$[esp+6914], ax
	mov	BYTE PTR _asCvKeyBoardMapping$[esp+6916], al

; 289  : 	};
; 290  : 
; 291  : 	if(pszHotKeyVal)

	mov	eax, DWORD PTR _pszHotKeyVal$[esp+3464]
	mov	DWORD PTR _asCvKeyBoardMapping$[esp+6920], 108 ; 0000006cH
	test	eax, eax
	je	SHORT $LN2@GetHotKeyI

; 292  : 	{
; 293  : 		for(int i = 0; i < iNumKeyBoardMappings; ++i)

	xor	edi, edi
	lea	ebx, DWORD PTR _asCvKeyBoardMapping$[esp+3468]
$LL4@GetHotKeyI:

; 294  : 		{
; 295  : 			if(strcmp(asCvKeyBoardMapping [i].szDefineString, pszHotKeyVal) == 0)

	mov	esi, eax
	mov	ecx, ebx
	npad	6
$LL11@GetHotKeyI:
	mov	dl, BYTE PTR [ecx]
	cmp	dl, BYTE PTR [esi]
	jne	SHORT $LN12@GetHotKeyI
	test	dl, dl
	je	SHORT $LN13@GetHotKeyI
	mov	dl, BYTE PTR [ecx+1]
	cmp	dl, BYTE PTR [esi+1]
	jne	SHORT $LN12@GetHotKeyI
	add	ecx, 2
	add	esi, 2
	test	dl, dl
	jne	SHORT $LL11@GetHotKeyI
$LN13@GetHotKeyI:
	xor	ecx, ecx
	jmp	SHORT $LN14@GetHotKeyI
$LN12@GetHotKeyI:
	sbb	ecx, ecx
	sbb	ecx, -1
$LN14@GetHotKeyI:
	test	ecx, ecx
	je	SHORT $LN9@GetHotKeyI
	inc	edi
	add	ebx, 32					; 00000020H
	cmp	edi, 108				; 0000006cH
	jl	SHORT $LL4@GetHotKeyI
$LN2@GetHotKeyI:
	pop	edi
	pop	esi

; 298  : 			}
; 299  : 		}
; 300  : 	}
; 301  : 
; 302  : 
; 303  : 	return -1;

	or	eax, -1
	pop	ebx

; 304  : }

	add	esp, 3456				; 00000d80H
	ret	4
$LN9@GetHotKeyI:

; 296  : 			{
; 297  : 				return asCvKeyBoardMapping[i].iIntVal;

	shl	edi, 5
	mov	eax, DWORD PTR _asCvKeyBoardMapping$[esp+edi+3496]
	pop	edi
	pop	esi
	pop	ebx

; 304  : }

	add	esp, 3456				; 00000d80H
	ret	4
?GetHotKeyInt@CvHotKeyInfo@@IAEHPBD@Z ENDP		; CvHotKeyInfo::GetHotKeyInt
_TEXT	ENDS
PUBLIC	?_Swap_aux@_Container_base@std@@QAEXAAV12@@Z	; std::_Container_base::_Swap_aux
; Function compile flags: /Ogtpy
; File c:\program files (x86)\microsoft visual studio 9.0\vc\include\xutility
;	COMDAT ?_Swap_aux@_Container_base@std@@QAEXAAV12@@Z
_TEXT	SEGMENT
___formal$ = 8						; size = 4
?_Swap_aux@_Container_base@std@@QAEXAAV12@@Z PROC	; std::_Container_base::_Swap_aux, COMDAT
; _this$ = ecx

; 602  : 		// Do nothing: we don't have an aux object.
; 603  : 		}

	ret	4
?_Swap_aux@_Container_base@std@@QAEXAAV12@@Z ENDP	; std::_Container_base::_Swap_aux
_TEXT	ENDS
PUBLIC	??_7bad_alloc@std@@6B@				; std::bad_alloc::`vftable'
PUBLIC	??0bad_alloc@std@@QAE@PBD@Z			; std::bad_alloc::bad_alloc
PUBLIC	??_R4bad_alloc@std@@6B@				; std::bad_alloc::`RTTI Complete Object Locator'
PUBLIC	??_R0?AVbad_alloc@std@@@8			; std::bad_alloc `RTTI Type Descriptor'
PUBLIC	??_R3bad_alloc@std@@8				; std::bad_alloc::`RTTI Class Hierarchy Descriptor'
PUBLIC	??_R2bad_alloc@std@@8				; std::bad_alloc::`RTTI Base Class Array'
PUBLIC	??_R1A@?0A@EA@bad_alloc@std@@8			; std::bad_alloc::`RTTI Base Class Descriptor at (0,-1,0,64)'
PUBLIC	??_R1A@?0A@EA@exception@std@@8			; std::exception::`RTTI Base Class Descriptor at (0,-1,0,64)'
PUBLIC	??_R0?AVexception@std@@@8			; std::exception `RTTI Type Descriptor'
PUBLIC	??_R3exception@std@@8				; std::exception::`RTTI Class Hierarchy Descriptor'
PUBLIC	??_R2exception@std@@8				; std::exception::`RTTI Base Class Array'
EXTRN	__imp_??0exception@std@@QAE@ABQBD@Z:PROC
EXTRN	??_7type_info@@6B@:QWORD			; type_info::`vftable'
EXTRN	??_Ebad_alloc@std@@UAEPAXI@Z:PROC		; std::bad_alloc::`vector deleting destructor'
EXTRN	?what@exception@std@@UBEPBDXZ:PROC		; std::exception::what
;	COMDAT ??_R2exception@std@@8
; File c:\program files (x86)\microsoft visual studio 9.0\vc\include\exception
rdata$r	SEGMENT
??_R2exception@std@@8 DD FLAT:??_R1A@?0A@EA@exception@std@@8 ; std::exception::`RTTI Base Class Array'
rdata$r	ENDS
;	COMDAT ??_R3exception@std@@8
rdata$r	SEGMENT
??_R3exception@std@@8 DD 00H				; std::exception::`RTTI Class Hierarchy Descriptor'
	DD	00H
	DD	01H
	DD	FLAT:??_R2exception@std@@8
rdata$r	ENDS
;	COMDAT ??_R0?AVexception@std@@@8
_DATA	SEGMENT
??_R0?AVexception@std@@@8 DD FLAT:??_7type_info@@6B@	; std::exception `RTTI Type Descriptor'
	DD	00H
	DB	'.?AVexception@std@@', 00H
_DATA	ENDS
;	COMDAT ??_R1A@?0A@EA@exception@std@@8
rdata$r	SEGMENT
??_R1A@?0A@EA@exception@std@@8 DD FLAT:??_R0?AVexception@std@@@8 ; std::exception::`RTTI Base Class Descriptor at (0,-1,0,64)'
	DD	00H
	DD	00H
	DD	0ffffffffH
	DD	00H
	DD	040H
	DD	FLAT:??_R3exception@std@@8
rdata$r	ENDS
;	COMDAT ??_R1A@?0A@EA@bad_alloc@std@@8
rdata$r	SEGMENT
??_R1A@?0A@EA@bad_alloc@std@@8 DD FLAT:??_R0?AVbad_alloc@std@@@8 ; std::bad_alloc::`RTTI Base Class Descriptor at (0,-1,0,64)'
	DD	01H
	DD	00H
	DD	0ffffffffH
	DD	00H
	DD	040H
	DD	FLAT:??_R3bad_alloc@std@@8
rdata$r	ENDS
;	COMDAT ??_R2bad_alloc@std@@8
rdata$r	SEGMENT
??_R2bad_alloc@std@@8 DD FLAT:??_R1A@?0A@EA@bad_alloc@std@@8 ; std::bad_alloc::`RTTI Base Class Array'
	DD	FLAT:??_R1A@?0A@EA@exception@std@@8
rdata$r	ENDS
;	COMDAT ??_R3bad_alloc@std@@8
rdata$r	SEGMENT
??_R3bad_alloc@std@@8 DD 00H				; std::bad_alloc::`RTTI Class Hierarchy Descriptor'
	DD	00H
	DD	02H
	DD	FLAT:??_R2bad_alloc@std@@8
rdata$r	ENDS
;	COMDAT ??_R0?AVbad_alloc@std@@@8
_DATA	SEGMENT
??_R0?AVbad_alloc@std@@@8 DD FLAT:??_7type_info@@6B@	; std::bad_alloc `RTTI Type Descriptor'
	DD	00H
	DB	'.?AVbad_alloc@std@@', 00H
_DATA	ENDS
;	COMDAT ??_R4bad_alloc@std@@6B@
rdata$r	SEGMENT
??_R4bad_alloc@std@@6B@ DD 00H				; std::bad_alloc::`RTTI Complete Object Locator'
	DD	00H
	DD	00H
	DD	FLAT:??_R0?AVbad_alloc@std@@@8
	DD	FLAT:??_R3bad_alloc@std@@8
rdata$r	ENDS
;	COMDAT ??_7bad_alloc@std@@6B@
CONST	SEGMENT
??_7bad_alloc@std@@6B@ DD FLAT:??_R4bad_alloc@std@@6B@	; std::bad_alloc::`vftable'
	DD	FLAT:??_Ebad_alloc@std@@UAEPAXI@Z
	DD	FLAT:?what@exception@std@@UBEPBDXZ
; Function compile flags: /Ogtpy
CONST	ENDS
;	COMDAT ??0bad_alloc@std@@QAE@PBD@Z
_TEXT	SEGMENT
__Message$ = 8						; size = 4
??0bad_alloc@std@@QAE@PBD@Z PROC			; std::bad_alloc::bad_alloc, COMDAT
; _this$ = ecx

; 371  : 		{	// construct from message string

	push	esi
	lea	eax, DWORD PTR __Message$[esp]
	push	eax
	mov	esi, ecx
	call	DWORD PTR __imp_??0exception@std@@QAE@ABQBD@Z
	mov	DWORD PTR [esi], OFFSET ??_7bad_alloc@std@@6B@

; 372  : 		}

	mov	eax, esi
	pop	esi
	ret	4
??0bad_alloc@std@@QAE@PBD@Z ENDP			; std::bad_alloc::bad_alloc
_TEXT	ENDS
PUBLIC	??1bad_alloc@std@@UAE@XZ			; std::bad_alloc::~bad_alloc
EXTRN	__imp_??1exception@std@@UAE@XZ:PROC
; Function compile flags: /Ogtpy
;	COMDAT ??1bad_alloc@std@@UAE@XZ
_TEXT	SEGMENT
??1bad_alloc@std@@UAE@XZ PROC				; std::bad_alloc::~bad_alloc, COMDAT
; _this$ = ecx

; 380  : 		{	// destroy the object

	mov	DWORD PTR [ecx], OFFSET ??_7bad_alloc@std@@6B@

; 381  : 		}

	jmp	DWORD PTR __imp_??1exception@std@@UAE@XZ
??1bad_alloc@std@@UAE@XZ ENDP				; std::bad_alloc::~bad_alloc
_TEXT	ENDS
EXTRN	??3@YAXPAX@Z:PROC				; operator delete
; Function compile flags: /Ogtpy
;	COMDAT ??_Gbad_alloc@std@@UAEPAXI@Z
_TEXT	SEGMENT
___flags$ = 8						; size = 4
??_Gbad_alloc@std@@UAEPAXI@Z PROC			; std::bad_alloc::`scalar deleting destructor', COMDAT
; _this$ = ecx
	push	esi
	mov	esi, ecx
	mov	DWORD PTR [esi], OFFSET ??_7bad_alloc@std@@6B@
	call	DWORD PTR __imp_??1exception@std@@UAE@XZ
	test	BYTE PTR ___flags$[esp], 1
	je	SHORT $LN6@scalar
	push	esi
	call	??3@YAXPAX@Z				; operator delete
	add	esp, 4
$LN6@scalar:
	mov	eax, esi
	pop	esi
	ret	4
??_Gbad_alloc@std@@UAEPAXI@Z ENDP			; std::bad_alloc::`scalar deleting destructor'
_TEXT	ENDS
PUBLIC	??2@YAPAXIPAX@Z					; operator new
; Function compile flags: /Ogtpy
; File c:\program files (x86)\microsoft visual studio 9.0\vc\include\new
;	COMDAT ??2@YAPAXIPAX@Z
_TEXT	SEGMENT
___formal$ = 8						; size = 4
__Where$ = 12						; size = 4
??2@YAPAXIPAX@Z PROC					; operator new, COMDAT

; 59   : 	return (_Where);

	mov	eax, DWORD PTR __Where$[esp-4]

; 60   : 	}

	ret	0
??2@YAPAXIPAX@Z ENDP					; operator new
_TEXT	ENDS
PUBLIC	??3@YAXPAX0@Z					; operator delete
; Function compile flags: /Ogtpy
;	COMDAT ??3@YAXPAX0@Z
_TEXT	SEGMENT
___formal$ = 8						; size = 4
___formal$ = 12						; size = 4
??3@YAXPAX0@Z PROC					; operator delete, COMDAT

; 64   : 	}

	ret	0
??3@YAXPAX0@Z ENDP					; operator delete
_TEXT	ENDS
PUBLIC	??_7logic_error@std@@6B@			; std::logic_error::`vftable'
PUBLIC	??0logic_error@std@@QAE@ABV?$basic_string@DU?$char_traits@D@std@@V?$allocator@D@2@@1@@Z ; std::logic_error::logic_error
PUBLIC	??_R4logic_error@std@@6B@			; std::logic_error::`RTTI Complete Object Locator'
PUBLIC	??_R0?AVlogic_error@std@@@8			; std::logic_error `RTTI Type Descriptor'
PUBLIC	??_R3logic_error@std@@8				; std::logic_error::`RTTI Class Hierarchy Descriptor'
PUBLIC	??_R2logic_error@std@@8				; std::logic_error::`RTTI Base Class Array'
PUBLIC	??_R1A@?0A@EA@logic_error@std@@8		; std::logic_error::`RTTI Base Class Descriptor at (0,-1,0,64)'
PUBLIC	?what@logic_error@std@@UBEPBDXZ			; std::logic_error::what
EXTRN	__imp_??0?$basic_string@DU?$char_traits@D@std@@V?$allocator@D@2@@std@@QAE@ABV01@@Z:PROC
EXTRN	__imp_??0exception@std@@QAE@XZ:PROC
EXTRN	??_Elogic_error@std@@UAEPAXI@Z:PROC		; std::logic_error::`vector deleting destructor'
;	COMDAT ??_R1A@?0A@EA@logic_error@std@@8
; File c:\program files (x86)\microsoft visual studio 9.0\vc\include\stdexcept
rdata$r	SEGMENT
??_R1A@?0A@EA@logic_error@std@@8 DD FLAT:??_R0?AVlogic_error@std@@@8 ; std::logic_error::`RTTI Base Class Descriptor at (0,-1,0,64)'
	DD	01H
	DD	00H
	DD	0ffffffffH
	DD	00H
	DD	040H
	DD	FLAT:??_R3logic_error@std@@8
rdata$r	ENDS
;	COMDAT ??_R2logic_error@std@@8
rdata$r	SEGMENT
??_R2logic_error@std@@8 DD FLAT:??_R1A@?0A@EA@logic_error@std@@8 ; std::logic_error::`RTTI Base Class Array'
	DD	FLAT:??_R1A@?0A@EA@exception@std@@8
rdata$r	ENDS
;	COMDAT ??_R3logic_error@std@@8
rdata$r	SEGMENT
??_R3logic_error@std@@8 DD 00H				; std::logic_error::`RTTI Class Hierarchy Descriptor'
	DD	00H
	DD	02H
	DD	FLAT:??_R2logic_error@std@@8
rdata$r	ENDS
;	COMDAT ??_R0?AVlogic_error@std@@@8
_DATA	SEGMENT
??_R0?AVlogic_error@std@@@8 DD FLAT:??_7type_info@@6B@	; std::logic_error `RTTI Type Descriptor'
	DD	00H
	DB	'.?AVlogic_error@std@@', 00H
_DATA	ENDS
;	COMDAT ??_R4logic_error@std@@6B@
rdata$r	SEGMENT
??_R4logic_error@std@@6B@ DD 00H			; std::logic_error::`RTTI Complete Object Locator'
	DD	00H
	DD	00H
	DD	FLAT:??_R0?AVlogic_error@std@@@8
	DD	FLAT:??_R3logic_error@std@@8
rdata$r	ENDS
;	COMDAT ??_7logic_error@std@@6B@
CONST	SEGMENT
??_7logic_error@std@@6B@ DD FLAT:??_R4logic_error@std@@6B@ ; std::logic_error::`vftable'
	DD	FLAT:??_Elogic_error@std@@UAEPAXI@Z
	DD	FLAT:?what@logic_error@std@@UBEPBDXZ
CONST	ENDS
;	COMDAT xdata$x
xdata$x	SEGMENT
__unwindtable$??0logic_error@std@@QAE@ABV?$basic_string@DU?$char_traits@D@std@@V?$allocator@D@2@@1@@Z DD 0ffffffffH
	DD	FLAT:__unwindfunclet$??0logic_error@std@@QAE@ABV?$basic_string@DU?$char_traits@D@std@@V?$allocator@D@2@@1@@Z$0
__ehfuncinfo$??0logic_error@std@@QAE@ABV?$basic_string@DU?$char_traits@D@std@@V?$allocator@D@2@@1@@Z DD 019930522H
	DD	01H
	DD	FLAT:__unwindtable$??0logic_error@std@@QAE@ABV?$basic_string@DU?$char_traits@D@std@@V?$allocator@D@2@@1@@Z
	DD	2 DUP(00H)
	DD	2 DUP(00H)
	DD	00H
	DD	01H
; Function compile flags: /Ogtpy
xdata$x	ENDS
;	COMDAT ??0logic_error@std@@QAE@ABV?$basic_string@DU?$char_traits@D@std@@V?$allocator@D@2@@1@@Z
_TEXT	SEGMENT
_this$ = -16						; size = 4
__$EHRec$ = -12						; size = 12
__Message$ = 8						; size = 4
??0logic_error@std@@QAE@ABV?$basic_string@DU?$char_traits@D@std@@V?$allocator@D@2@@1@@Z PROC ; std::logic_error::logic_error, COMDAT
; _this$ = ecx

; 26   : 		{	// construct from message string

	push	-1
	push	__ehhandler$??0logic_error@std@@QAE@ABV?$basic_string@DU?$char_traits@D@std@@V?$allocator@D@2@@1@@Z
	mov	eax, DWORD PTR fs:0
	push	eax
	mov	DWORD PTR fs:0, esp
	push	ecx
	push	esi
	mov	esi, ecx
	mov	DWORD PTR _this$[esp+20], esi
	call	DWORD PTR __imp_??0exception@std@@QAE@XZ
	mov	eax, DWORD PTR __Message$[esp+16]
	push	eax
	lea	ecx, DWORD PTR [esi+12]
	mov	DWORD PTR __$EHRec$[esp+32], 0
	mov	DWORD PTR [esi], OFFSET ??_7logic_error@std@@6B@
	call	DWORD PTR __imp_??0?$basic_string@DU?$char_traits@D@std@@V?$allocator@D@2@@std@@QAE@ABV01@@Z

; 27   : 		}

	mov	ecx, DWORD PTR __$EHRec$[esp+20]
	mov	eax, esi
	pop	esi
	mov	DWORD PTR fs:0, ecx
	add	esp, 16					; 00000010H
	ret	4
_TEXT	ENDS
;	COMDAT text$x
text$x	SEGMENT
__unwindfunclet$??0logic_error@std@@QAE@ABV?$basic_string@DU?$char_traits@D@std@@V?$allocator@D@2@@1@@Z$0:
	mov	ecx, DWORD PTR _this$[ebp]
	jmp	DWORD PTR __imp_??1exception@std@@UAE@XZ
__ehhandler$??0logic_error@std@@QAE@ABV?$basic_string@DU?$char_traits@D@std@@V?$allocator@D@2@@1@@Z:
	mov	eax, OFFSET __ehfuncinfo$??0logic_error@std@@QAE@ABV?$basic_string@DU?$char_traits@D@std@@V?$allocator@D@2@@1@@Z
	jmp	___CxxFrameHandler3
text$x	ENDS
??0logic_error@std@@QAE@ABV?$basic_string@DU?$char_traits@D@std@@V?$allocator@D@2@@1@@Z ENDP ; std::logic_error::logic_error
PUBLIC	??1logic_error@std@@UAE@XZ			; std::logic_error::~logic_error
EXTRN	__imp_??1?$basic_string@DU?$char_traits@D@std@@V?$allocator@D@2@@std@@QAE@XZ:PROC
; Function compile flags: /Ogtpy
;	COMDAT ??1logic_error@std@@UAE@XZ
_TEXT	SEGMENT
??1logic_error@std@@UAE@XZ PROC				; std::logic_error::~logic_error, COMDAT
; _this$ = ecx

; 30   : 		{	// destroy the object

	push	esi
	mov	esi, ecx

; 31   : 		}

	lea	ecx, DWORD PTR [esi+12]
	mov	DWORD PTR [esi], OFFSET ??_7logic_error@std@@6B@
	call	DWORD PTR __imp_??1?$basic_string@DU?$char_traits@D@std@@V?$allocator@D@2@@std@@QAE@XZ
	mov	ecx, esi
	pop	esi
	jmp	DWORD PTR __imp_??1exception@std@@UAE@XZ
??1logic_error@std@@UAE@XZ ENDP				; std::logic_error::~logic_error
; Function compile flags: /Ogtpy
_TEXT	ENDS
;	COMDAT ?what@logic_error@std@@UBEPBDXZ
_TEXT	SEGMENT
?what@logic_error@std@@UBEPBDXZ PROC			; std::logic_error::what, COMDAT
; _this$ = ecx

; 35   : 		return (_Str.c_str());

	add	ecx, 12					; 0000000cH
	jmp	DWORD PTR __imp_?c_str@?$basic_string@DU?$char_traits@D@std@@V?$allocator@D@2@@std@@QBEPBDXZ
?what@logic_error@std@@UBEPBDXZ ENDP			; std::logic_error::what
; Function compile flags: /Ogtpy
_TEXT	ENDS
;	COMDAT ??_Glogic_error@std@@UAEPAXI@Z
_TEXT	SEGMENT
___flags$ = 8						; size = 4
??_Glogic_error@std@@UAEPAXI@Z PROC			; std::logic_error::`scalar deleting destructor', COMDAT
; _this$ = ecx
	push	esi
	mov	esi, ecx
	lea	ecx, DWORD PTR [esi+12]
	mov	DWORD PTR [esi], OFFSET ??_7logic_error@std@@6B@
	call	DWORD PTR __imp_??1?$basic_string@DU?$char_traits@D@std@@V?$allocator@D@2@@std@@QAE@XZ
	mov	ecx, esi
	call	DWORD PTR __imp_??1exception@std@@UAE@XZ
	test	BYTE PTR ___flags$[esp], 1
	je	SHORT $LN6@scalar@2
	push	esi
	call	??3@YAXPAX@Z				; operator delete
	add	esp, 4
$LN6@scalar@2:
	mov	eax, esi
	pop	esi
	ret	4
??_Glogic_error@std@@UAEPAXI@Z ENDP			; std::logic_error::`scalar deleting destructor'
_TEXT	ENDS
PUBLIC	??_7length_error@std@@6B@			; std::length_error::`vftable'
PUBLIC	??0length_error@std@@QAE@ABV?$basic_string@DU?$char_traits@D@std@@V?$allocator@D@2@@1@@Z ; std::length_error::length_error
PUBLIC	??_R4length_error@std@@6B@			; std::length_error::`RTTI Complete Object Locator'
PUBLIC	??_R0?AVlength_error@std@@@8			; std::length_error `RTTI Type Descriptor'
PUBLIC	??_R3length_error@std@@8			; std::length_error::`RTTI Class Hierarchy Descriptor'
PUBLIC	??_R2length_error@std@@8			; std::length_error::`RTTI Base Class Array'
PUBLIC	??_R1A@?0A@EA@length_error@std@@8		; std::length_error::`RTTI Base Class Descriptor at (0,-1,0,64)'
EXTRN	??_Elength_error@std@@UAEPAXI@Z:PROC		; std::length_error::`vector deleting destructor'
;	COMDAT ??_R1A@?0A@EA@length_error@std@@8
rdata$r	SEGMENT
??_R1A@?0A@EA@length_error@std@@8 DD FLAT:??_R0?AVlength_error@std@@@8 ; std::length_error::`RTTI Base Class Descriptor at (0,-1,0,64)'
	DD	02H
	DD	00H
	DD	0ffffffffH
	DD	00H
	DD	040H
	DD	FLAT:??_R3length_error@std@@8
rdata$r	ENDS
;	COMDAT ??_R2length_error@std@@8
rdata$r	SEGMENT
??_R2length_error@std@@8 DD FLAT:??_R1A@?0A@EA@length_error@std@@8 ; std::length_error::`RTTI Base Class Array'
	DD	FLAT:??_R1A@?0A@EA@logic_error@std@@8
	DD	FLAT:??_R1A@?0A@EA@exception@std@@8
rdata$r	ENDS
;	COMDAT ??_R3length_error@std@@8
rdata$r	SEGMENT
??_R3length_error@std@@8 DD 00H				; std::length_error::`RTTI Class Hierarchy Descriptor'
	DD	00H
	DD	03H
	DD	FLAT:??_R2length_error@std@@8
rdata$r	ENDS
;	COMDAT ??_R0?AVlength_error@std@@@8
_DATA	SEGMENT
??_R0?AVlength_error@std@@@8 DD FLAT:??_7type_info@@6B@	; std::length_error `RTTI Type Descriptor'
	DD	00H
	DB	'.?AVlength_error@std@@', 00H
_DATA	ENDS
;	COMDAT ??_R4length_error@std@@6B@
rdata$r	SEGMENT
??_R4length_error@std@@6B@ DD 00H			; std::length_error::`RTTI Complete Object Locator'
	DD	00H
	DD	00H
	DD	FLAT:??_R0?AVlength_error@std@@@8
	DD	FLAT:??_R3length_error@std@@8
rdata$r	ENDS
;	COMDAT ??_7length_error@std@@6B@
CONST	SEGMENT
??_7length_error@std@@6B@ DD FLAT:??_R4length_error@std@@6B@ ; std::length_error::`vftable'
	DD	FLAT:??_Elength_error@std@@UAEPAXI@Z
	DD	FLAT:?what@logic_error@std@@UBEPBDXZ
; Function compile flags: /Ogtpy
CONST	ENDS
;	COMDAT ??0length_error@std@@QAE@ABV?$basic_string@DU?$char_traits@D@std@@V?$allocator@D@2@@1@@Z
_TEXT	SEGMENT
__Message$ = 8						; size = 4
??0length_error@std@@QAE@ABV?$basic_string@DU?$char_traits@D@std@@V?$allocator@D@2@@1@@Z PROC ; std::length_error::length_error, COMDAT
; _this$ = ecx

; 105  : 		{	// construct from message string

	mov	eax, DWORD PTR __Message$[esp-4]
	push	esi
	push	eax
	mov	esi, ecx
	call	??0logic_error@std@@QAE@ABV?$basic_string@DU?$char_traits@D@std@@V?$allocator@D@2@@1@@Z ; std::logic_error::logic_error
	mov	DWORD PTR [esi], OFFSET ??_7length_error@std@@6B@

; 106  : 		}

	mov	eax, esi
	pop	esi
	ret	4
??0length_error@std@@QAE@ABV?$basic_string@DU?$char_traits@D@std@@V?$allocator@D@2@@1@@Z ENDP ; std::length_error::length_error
_TEXT	ENDS
PUBLIC	??1length_error@std@@UAE@XZ			; std::length_error::~length_error
; Function compile flags: /Ogtpy
;	COMDAT ??1length_error@std@@UAE@XZ
_TEXT	SEGMENT
??1length_error@std@@UAE@XZ PROC			; std::length_error::~length_error, COMDAT
; _this$ = ecx

; 109  : 		{	// destroy the object

	push	esi
	mov	esi, ecx

; 110  : 		}

	lea	ecx, DWORD PTR [esi+12]
	mov	DWORD PTR [esi], OFFSET ??_7logic_error@std@@6B@
	call	DWORD PTR __imp_??1?$basic_string@DU?$char_traits@D@std@@V?$allocator@D@2@@std@@QAE@XZ
	mov	ecx, esi
	pop	esi
	jmp	DWORD PTR __imp_??1exception@std@@UAE@XZ
??1length_error@std@@UAE@XZ ENDP			; std::length_error::~length_error
; Function compile flags: /Ogtpy
_TEXT	ENDS
;	COMDAT ??_Glength_error@std@@UAEPAXI@Z
_TEXT	SEGMENT
___flags$ = 8						; size = 4
??_Glength_error@std@@UAEPAXI@Z PROC			; std::length_error::`scalar deleting destructor', COMDAT
; _this$ = ecx
	push	esi
	mov	esi, ecx
	lea	ecx, DWORD PTR [esi+12]
	mov	DWORD PTR [esi], OFFSET ??_7logic_error@std@@6B@
	call	DWORD PTR __imp_??1?$basic_string@DU?$char_traits@D@std@@V?$allocator@D@2@@std@@QAE@XZ
	mov	ecx, esi
	call	DWORD PTR __imp_??1exception@std@@UAE@XZ
	test	BYTE PTR ___flags$[esp], 1
	je	SHORT $LN8@scalar@3
	push	esi
	call	??3@YAXPAX@Z				; operator delete
	add	esp, 4
$LN8@scalar@3:
	mov	eax, esi
	pop	esi
	ret	4
??_Glength_error@std@@UAEPAXI@Z ENDP			; std::length_error::`scalar deleting destructor'
_TEXT	ENDS
PUBLIC	??_7out_of_range@std@@6B@			; std::out_of_range::`vftable'
PUBLIC	??0out_of_range@std@@QAE@ABV?$basic_string@DU?$char_traits@D@std@@V?$allocator@D@2@@1@@Z ; std::out_of_range::out_of_range
PUBLIC	??_R4out_of_range@std@@6B@			; std::out_of_range::`RTTI Complete Object Locator'
PUBLIC	??_R0?AVout_of_range@std@@@8			; std::out_of_range `RTTI Type Descriptor'
PUBLIC	??_R3out_of_range@std@@8			; std::out_of_range::`RTTI Class Hierarchy Descriptor'
PUBLIC	??_R2out_of_range@std@@8			; std::out_of_range::`RTTI Base Class Array'
PUBLIC	??_R1A@?0A@EA@out_of_range@std@@8		; std::out_of_range::`RTTI Base Class Descriptor at (0,-1,0,64)'
EXTRN	??_Eout_of_range@std@@UAEPAXI@Z:PROC		; std::out_of_range::`vector deleting destructor'
;	COMDAT ??_R1A@?0A@EA@out_of_range@std@@8
rdata$r	SEGMENT
??_R1A@?0A@EA@out_of_range@std@@8 DD FLAT:??_R0?AVout_of_range@std@@@8 ; std::out_of_range::`RTTI Base Class Descriptor at (0,-1,0,64)'
	DD	02H
	DD	00H
	DD	0ffffffffH
	DD	00H
	DD	040H
	DD	FLAT:??_R3out_of_range@std@@8
rdata$r	ENDS
;	COMDAT ??_R2out_of_range@std@@8
rdata$r	SEGMENT
??_R2out_of_range@std@@8 DD FLAT:??_R1A@?0A@EA@out_of_range@std@@8 ; std::out_of_range::`RTTI Base Class Array'
	DD	FLAT:??_R1A@?0A@EA@logic_error@std@@8
	DD	FLAT:??_R1A@?0A@EA@exception@std@@8
rdata$r	ENDS
;	COMDAT ??_R3out_of_range@std@@8
rdata$r	SEGMENT
??_R3out_of_range@std@@8 DD 00H				; std::out_of_range::`RTTI Class Hierarchy Descriptor'
	DD	00H
	DD	03H
	DD	FLAT:??_R2out_of_range@std@@8
rdata$r	ENDS
;	COMDAT ??_R0?AVout_of_range@std@@@8
_DATA	SEGMENT
??_R0?AVout_of_range@std@@@8 DD FLAT:??_7type_info@@6B@	; std::out_of_range `RTTI Type Descriptor'
	DD	00H
	DB	'.?AVout_of_range@std@@', 00H
_DATA	ENDS
;	COMDAT ??_R4out_of_range@std@@6B@
rdata$r	SEGMENT
??_R4out_of_range@std@@6B@ DD 00H			; std::out_of_range::`RTTI Complete Object Locator'
	DD	00H
	DD	00H
	DD	FLAT:??_R0?AVout_of_range@std@@@8
	DD	FLAT:??_R3out_of_range@std@@8
rdata$r	ENDS
;	COMDAT ??_7out_of_range@std@@6B@
CONST	SEGMENT
??_7out_of_range@std@@6B@ DD FLAT:??_R4out_of_range@std@@6B@ ; std::out_of_range::`vftable'
	DD	FLAT:??_Eout_of_range@std@@UAEPAXI@Z
	DD	FLAT:?what@logic_error@std@@UBEPBDXZ
; Function compile flags: /Ogtpy
CONST	ENDS
;	COMDAT ??0out_of_range@std@@QAE@ABV?$basic_string@DU?$char_traits@D@std@@V?$allocator@D@2@@1@@Z
_TEXT	SEGMENT
__Message$ = 8						; size = 4
??0out_of_range@std@@QAE@ABV?$basic_string@DU?$char_traits@D@std@@V?$allocator@D@2@@1@@Z PROC ; std::out_of_range::out_of_range, COMDAT
; _this$ = ecx

; 129  : 		{	// construct from message string

	mov	eax, DWORD PTR __Message$[esp-4]
	push	esi
	push	eax
	mov	esi, ecx
	call	??0logic_error@std@@QAE@ABV?$basic_string@DU?$char_traits@D@std@@V?$allocator@D@2@@1@@Z ; std::logic_error::logic_error
	mov	DWORD PTR [esi], OFFSET ??_7out_of_range@std@@6B@

; 130  : 		}

	mov	eax, esi
	pop	esi
	ret	4
??0out_of_range@std@@QAE@ABV?$basic_string@DU?$char_traits@D@std@@V?$allocator@D@2@@1@@Z ENDP ; std::out_of_range::out_of_range
_TEXT	ENDS
PUBLIC	??1out_of_range@std@@UAE@XZ			; std::out_of_range::~out_of_range
; Function compile flags: /Ogtpy
;	COMDAT ??1out_of_range@std@@UAE@XZ
_TEXT	SEGMENT
??1out_of_range@std@@UAE@XZ PROC			; std::out_of_range::~out_of_range, COMDAT
; _this$ = ecx

; 133  : 		{	// destroy the object

	push	esi
	mov	esi, ecx

; 134  : 		}

	lea	ecx, DWORD PTR [esi+12]
	mov	DWORD PTR [esi], OFFSET ??_7logic_error@std@@6B@
	call	DWORD PTR __imp_??1?$basic_string@DU?$char_traits@D@std@@V?$allocator@D@2@@std@@QAE@XZ
	mov	ecx, esi
	pop	esi
	jmp	DWORD PTR __imp_??1exception@std@@UAE@XZ
??1out_of_range@std@@UAE@XZ ENDP			; std::out_of_range::~out_of_range
; Function compile flags: /Ogtpy
_TEXT	ENDS
;	COMDAT ??_Gout_of_range@std@@UAEPAXI@Z
_TEXT	SEGMENT
___flags$ = 8						; size = 4
??_Gout_of_range@std@@UAEPAXI@Z PROC			; std::out_of_range::`scalar deleting destructor', COMDAT
; _this$ = ecx
	push	esi
	mov	esi, ecx
	lea	ecx, DWORD PTR [esi+12]
	mov	DWORD PTR [esi], OFFSET ??_7logic_error@std@@6B@
	call	DWORD PTR __imp_??1?$basic_string@DU?$char_traits@D@std@@V?$allocator@D@2@@std@@QAE@XZ
	mov	ecx, esi
	call	DWORD PTR __imp_??1exception@std@@UAE@XZ
	test	BYTE PTR ___flags$[esp], 1
	je	SHORT $LN8@scalar@4
	push	esi
	call	??3@YAXPAX@Z				; operator delete
	add	esp, 4
$LN8@scalar@4:
	mov	eax, esi
	pop	esi
	ret	4
??_Gout_of_range@std@@UAEPAXI@Z ENDP			; std::out_of_range::`scalar deleting destructor'
_TEXT	ENDS
PUBLIC	?getActionInfoIndex@CvHotKeyInfo@@QBEHXZ	; CvHotKeyInfo::getActionInfoIndex
; Function compile flags: /Ogtpy
; File c:\users\enormousapplepie\documents\github\lekmod\lekmod_dll\cvgamecoredll_expansion2\cvinfos.cpp
;	COMDAT ?getActionInfoIndex@CvHotKeyInfo@@QBEHXZ
_TEXT	SEGMENT
?getActionInfoIndex@CvHotKeyInfo@@QBEHXZ PROC		; CvHotKeyInfo::getActionInfoIndex, COMDAT
; _this$ = ecx

; 532  : 	return m_iActionInfoIndex;

	mov	eax, DWORD PTR [ecx+260]

; 533  : }

	ret	0
?getActionInfoIndex@CvHotKeyInfo@@QBEHXZ ENDP		; CvHotKeyInfo::getActionInfoIndex
_TEXT	ENDS
PUBLIC	?setActionInfoIndex@CvHotKeyInfo@@QAEXH@Z	; CvHotKeyInfo::setActionInfoIndex
; Function compile flags: /Ogtpy
;	COMDAT ?setActionInfoIndex@CvHotKeyInfo@@QAEXH@Z
_TEXT	SEGMENT
_i$ = 8							; size = 4
?setActionInfoIndex@CvHotKeyInfo@@QAEXH@Z PROC		; CvHotKeyInfo::setActionInfoIndex, COMDAT
; _this$ = ecx

; 537  : 	m_iActionInfoIndex = i;

	mov	eax, DWORD PTR _i$[esp-4]
	mov	DWORD PTR [ecx+260], eax

; 538  : }

	ret	4
?setActionInfoIndex@CvHotKeyInfo@@QAEXH@Z ENDP		; CvHotKeyInfo::setActionInfoIndex
_TEXT	ENDS
PUBLIC	?getHotKeyVal@CvHotKeyInfo@@QBEHXZ		; CvHotKeyInfo::getHotKeyVal
; Function compile flags: /Ogtpy
;	COMDAT ?getHotKeyVal@CvHotKeyInfo@@QBEHXZ
_TEXT	SEGMENT
?getHotKeyVal@CvHotKeyInfo@@QBEHXZ PROC			; CvHotKeyInfo::getHotKeyVal, COMDAT
; _this$ = ecx

; 542  : 	return m_iHotKeyVal;

	mov	eax, DWORD PTR [ecx+264]

; 543  : }

	ret	0
?getHotKeyVal@CvHotKeyInfo@@QBEHXZ ENDP			; CvHotKeyInfo::getHotKeyVal
_TEXT	ENDS
PUBLIC	?setHotKeyVal@CvHotKeyInfo@@QAEXH@Z		; CvHotKeyInfo::setHotKeyVal
; Function compile flags: /Ogtpy
;	COMDAT ?setHotKeyVal@CvHotKeyInfo@@QAEXH@Z
_TEXT	SEGMENT
_i$ = 8							; size = 4
?setHotKeyVal@CvHotKeyInfo@@QAEXH@Z PROC		; CvHotKeyInfo::setHotKeyVal, COMDAT
; _this$ = ecx

; 547  : 	m_iHotKeyVal = i;

	mov	eax, DWORD PTR _i$[esp-4]
	mov	DWORD PTR [ecx+264], eax

; 548  : }

	ret	4
?setHotKeyVal@CvHotKeyInfo@@QAEXH@Z ENDP		; CvHotKeyInfo::setHotKeyVal
_TEXT	ENDS
PUBLIC	?getHotKeyPriority@CvHotKeyInfo@@QBEHXZ		; CvHotKeyInfo::getHotKeyPriority
; Function compile flags: /Ogtpy
;	COMDAT ?getHotKeyPriority@CvHotKeyInfo@@QBEHXZ
_TEXT	SEGMENT
?getHotKeyPriority@CvHotKeyInfo@@QBEHXZ PROC		; CvHotKeyInfo::getHotKeyPriority, COMDAT
; _this$ = ecx

; 552  : 	return m_iHotKeyPriority;

	mov	eax, DWORD PTR [ecx+268]

; 553  : }

	ret	0
?getHotKeyPriority@CvHotKeyInfo@@QBEHXZ ENDP		; CvHotKeyInfo::getHotKeyPriority
_TEXT	ENDS
PUBLIC	?setHotKeyPriority@CvHotKeyInfo@@QAEXH@Z	; CvHotKeyInfo::setHotKeyPriority
; Function compile flags: /Ogtpy
;	COMDAT ?setHotKeyPriority@CvHotKeyInfo@@QAEXH@Z
_TEXT	SEGMENT
_i$ = 8							; size = 4
?setHotKeyPriority@CvHotKeyInfo@@QAEXH@Z PROC		; CvHotKeyInfo::setHotKeyPriority, COMDAT
; _this$ = ecx

; 557  : 	m_iHotKeyPriority = i;

	mov	eax, DWORD PTR _i$[esp-4]
	mov	DWORD PTR [ecx+268], eax

; 558  : }

	ret	4
?setHotKeyPriority@CvHotKeyInfo@@QAEXH@Z ENDP		; CvHotKeyInfo::setHotKeyPriority
_TEXT	ENDS
PUBLIC	?getHotKeyValAlt@CvHotKeyInfo@@QBEHXZ		; CvHotKeyInfo::getHotKeyValAlt
; Function compile flags: /Ogtpy
;	COMDAT ?getHotKeyValAlt@CvHotKeyInfo@@QBEHXZ
_TEXT	SEGMENT
?getHotKeyValAlt@CvHotKeyInfo@@QBEHXZ PROC		; CvHotKeyInfo::getHotKeyValAlt, COMDAT
; _this$ = ecx

; 562  : 	return m_iHotKeyValAlt;

	mov	eax, DWORD PTR [ecx+272]

; 563  : }

	ret	0
?getHotKeyValAlt@CvHotKeyInfo@@QBEHXZ ENDP		; CvHotKeyInfo::getHotKeyValAlt
_TEXT	ENDS
PUBLIC	?setHotKeyValAlt@CvHotKeyInfo@@QAEXH@Z		; CvHotKeyInfo::setHotKeyValAlt
; Function compile flags: /Ogtpy
;	COMDAT ?setHotKeyValAlt@CvHotKeyInfo@@QAEXH@Z
_TEXT	SEGMENT
_i$ = 8							; size = 4
?setHotKeyValAlt@CvHotKeyInfo@@QAEXH@Z PROC		; CvHotKeyInfo::setHotKeyValAlt, COMDAT
; _this$ = ecx

; 567  : 	m_iHotKeyValAlt = i;

	mov	eax, DWORD PTR _i$[esp-4]
	mov	DWORD PTR [ecx+272], eax

; 568  : }

	ret	4
?setHotKeyValAlt@CvHotKeyInfo@@QAEXH@Z ENDP		; CvHotKeyInfo::setHotKeyValAlt
_TEXT	ENDS
PUBLIC	?getHotKeyPriorityAlt@CvHotKeyInfo@@QBEHXZ	; CvHotKeyInfo::getHotKeyPriorityAlt
; Function compile flags: /Ogtpy
;	COMDAT ?getHotKeyPriorityAlt@CvHotKeyInfo@@QBEHXZ
_TEXT	SEGMENT
?getHotKeyPriorityAlt@CvHotKeyInfo@@QBEHXZ PROC		; CvHotKeyInfo::getHotKeyPriorityAlt, COMDAT
; _this$ = ecx

; 572  : 	return m_iHotKeyPriorityAlt;

	mov	eax, DWORD PTR [ecx+276]

; 573  : }

	ret	0
?getHotKeyPriorityAlt@CvHotKeyInfo@@QBEHXZ ENDP		; CvHotKeyInfo::getHotKeyPriorityAlt
_TEXT	ENDS
PUBLIC	?setHotKeyPriorityAlt@CvHotKeyInfo@@QAEXH@Z	; CvHotKeyInfo::setHotKeyPriorityAlt
; Function compile flags: /Ogtpy
;	COMDAT ?setHotKeyPriorityAlt@CvHotKeyInfo@@QAEXH@Z
_TEXT	SEGMENT
_i$ = 8							; size = 4
?setHotKeyPriorityAlt@CvHotKeyInfo@@QAEXH@Z PROC	; CvHotKeyInfo::setHotKeyPriorityAlt, COMDAT
; _this$ = ecx

; 577  : 	m_iHotKeyPriorityAlt = i;

	mov	eax, DWORD PTR _i$[esp-4]
	mov	DWORD PTR [ecx+276], eax

; 578  : }

	ret	4
?setHotKeyPriorityAlt@CvHotKeyInfo@@QAEXH@Z ENDP	; CvHotKeyInfo::setHotKeyPriorityAlt
_TEXT	ENDS
PUBLIC	?getOrderPriority@CvHotKeyInfo@@QBEHXZ		; CvHotKeyInfo::getOrderPriority
; Function compile flags: /Ogtpy
;	COMDAT ?getOrderPriority@CvHotKeyInfo@@QBEHXZ
_TEXT	SEGMENT
?getOrderPriority@CvHotKeyInfo@@QBEHXZ PROC		; CvHotKeyInfo::getOrderPriority, COMDAT
; _this$ = ecx

; 582  : 	return m_iOrderPriority;

	mov	eax, DWORD PTR [ecx+280]

; 583  : }

	ret	0
?getOrderPriority@CvHotKeyInfo@@QBEHXZ ENDP		; CvHotKeyInfo::getOrderPriority
_TEXT	ENDS
PUBLIC	?setOrderPriority@CvHotKeyInfo@@QAEXH@Z		; CvHotKeyInfo::setOrderPriority
; Function compile flags: /Ogtpy
;	COMDAT ?setOrderPriority@CvHotKeyInfo@@QAEXH@Z
_TEXT	SEGMENT
_i$ = 8							; size = 4
?setOrderPriority@CvHotKeyInfo@@QAEXH@Z PROC		; CvHotKeyInfo::setOrderPriority, COMDAT
; _this$ = ecx

; 587  : 	m_iOrderPriority = i;

	mov	eax, DWORD PTR _i$[esp-4]
	mov	DWORD PTR [ecx+280], eax

; 588  : }

	ret	4
?setOrderPriority@CvHotKeyInfo@@QAEXH@Z ENDP		; CvHotKeyInfo::setOrderPriority
_TEXT	ENDS
PUBLIC	?isAltDown@CvHotKeyInfo@@QBE_NXZ		; CvHotKeyInfo::isAltDown
; Function compile flags: /Ogtpy
;	COMDAT ?isAltDown@CvHotKeyInfo@@QBE_NXZ
_TEXT	SEGMENT
?isAltDown@CvHotKeyInfo@@QBE_NXZ PROC			; CvHotKeyInfo::isAltDown, COMDAT
; _this$ = ecx

; 592  : 	return m_bAltDown;

	mov	al, BYTE PTR [ecx+284]

; 593  : }

	ret	0
?isAltDown@CvHotKeyInfo@@QBE_NXZ ENDP			; CvHotKeyInfo::isAltDown
_TEXT	ENDS
PUBLIC	?setAltDown@CvHotKeyInfo@@QAEX_N@Z		; CvHotKeyInfo::setAltDown
; Function compile flags: /Ogtpy
;	COMDAT ?setAltDown@CvHotKeyInfo@@QAEX_N@Z
_TEXT	SEGMENT
_b$ = 8							; size = 1
?setAltDown@CvHotKeyInfo@@QAEX_N@Z PROC			; CvHotKeyInfo::setAltDown, COMDAT
; _this$ = ecx

; 597  : 	m_bAltDown = b;

	mov	al, BYTE PTR _b$[esp-4]
	mov	BYTE PTR [ecx+284], al

; 598  : }

	ret	4
?setAltDown@CvHotKeyInfo@@QAEX_N@Z ENDP			; CvHotKeyInfo::setAltDown
_TEXT	ENDS
PUBLIC	?isShiftDown@CvHotKeyInfo@@QBE_NXZ		; CvHotKeyInfo::isShiftDown
; Function compile flags: /Ogtpy
;	COMDAT ?isShiftDown@CvHotKeyInfo@@QBE_NXZ
_TEXT	SEGMENT
?isShiftDown@CvHotKeyInfo@@QBE_NXZ PROC			; CvHotKeyInfo::isShiftDown, COMDAT
; _this$ = ecx

; 602  : 	return m_bShiftDown;

	mov	al, BYTE PTR [ecx+285]

; 603  : }

	ret	0
?isShiftDown@CvHotKeyInfo@@QBE_NXZ ENDP			; CvHotKeyInfo::isShiftDown
_TEXT	ENDS
PUBLIC	?setShiftDown@CvHotKeyInfo@@QAEX_N@Z		; CvHotKeyInfo::setShiftDown
; Function compile flags: /Ogtpy
;	COMDAT ?setShiftDown@CvHotKeyInfo@@QAEX_N@Z
_TEXT	SEGMENT
_b$ = 8							; size = 1
?setShiftDown@CvHotKeyInfo@@QAEX_N@Z PROC		; CvHotKeyInfo::setShiftDown, COMDAT
; _this$ = ecx

; 607  : 	m_bShiftDown = b;

	mov	al, BYTE PTR _b$[esp-4]
	mov	BYTE PTR [ecx+285], al

; 608  : }

	ret	4
?setShiftDown@CvHotKeyInfo@@QAEX_N@Z ENDP		; CvHotKeyInfo::setShiftDown
_TEXT	ENDS
PUBLIC	?isCtrlDown@CvHotKeyInfo@@QBE_NXZ		; CvHotKeyInfo::isCtrlDown
; Function compile flags: /Ogtpy
;	COMDAT ?isCtrlDown@CvHotKeyInfo@@QBE_NXZ
_TEXT	SEGMENT
?isCtrlDown@CvHotKeyInfo@@QBE_NXZ PROC			; CvHotKeyInfo::isCtrlDown, COMDAT
; _this$ = ecx

; 612  : 	return m_bCtrlDown;

	mov	al, BYTE PTR [ecx+286]

; 613  : }

	ret	0
?isCtrlDown@CvHotKeyInfo@@QBE_NXZ ENDP			; CvHotKeyInfo::isCtrlDown
_TEXT	ENDS
PUBLIC	?setCtrlDown@CvHotKeyInfo@@QAEX_N@Z		; CvHotKeyInfo::setCtrlDown
; Function compile flags: /Ogtpy
;	COMDAT ?setCtrlDown@CvHotKeyInfo@@QAEX_N@Z
_TEXT	SEGMENT
_b$ = 8							; size = 1
?setCtrlDown@CvHotKeyInfo@@QAEX_N@Z PROC		; CvHotKeyInfo::setCtrlDown, COMDAT
; _this$ = ecx

; 617  : 	m_bCtrlDown = b;

	mov	al, BYTE PTR _b$[esp-4]
	mov	BYTE PTR [ecx+286], al

; 618  : }

	ret	4
?setCtrlDown@CvHotKeyInfo@@QAEX_N@Z ENDP		; CvHotKeyInfo::setCtrlDown
_TEXT	ENDS
PUBLIC	?isAltDownAlt@CvHotKeyInfo@@QBE_NXZ		; CvHotKeyInfo::isAltDownAlt
; Function compile flags: /Ogtpy
;	COMDAT ?isAltDownAlt@CvHotKeyInfo@@QBE_NXZ
_TEXT	SEGMENT
?isAltDownAlt@CvHotKeyInfo@@QBE_NXZ PROC		; CvHotKeyInfo::isAltDownAlt, COMDAT
; _this$ = ecx

; 622  : 	return m_bAltDownAlt;

	mov	al, BYTE PTR [ecx+287]

; 623  : }

	ret	0
?isAltDownAlt@CvHotKeyInfo@@QBE_NXZ ENDP		; CvHotKeyInfo::isAltDownAlt
_TEXT	ENDS
PUBLIC	?setAltDownAlt@CvHotKeyInfo@@QAEX_N@Z		; CvHotKeyInfo::setAltDownAlt
; Function compile flags: /Ogtpy
;	COMDAT ?setAltDownAlt@CvHotKeyInfo@@QAEX_N@Z
_TEXT	SEGMENT
_b$ = 8							; size = 1
?setAltDownAlt@CvHotKeyInfo@@QAEX_N@Z PROC		; CvHotKeyInfo::setAltDownAlt, COMDAT
; _this$ = ecx

; 627  : 	m_bAltDownAlt = b;

	mov	al, BYTE PTR _b$[esp-4]
	mov	BYTE PTR [ecx+287], al

; 628  : }

	ret	4
?setAltDownAlt@CvHotKeyInfo@@QAEX_N@Z ENDP		; CvHotKeyInfo::setAltDownAlt
_TEXT	ENDS
PUBLIC	?isShiftDownAlt@CvHotKeyInfo@@QBE_NXZ		; CvHotKeyInfo::isShiftDownAlt
; Function compile flags: /Ogtpy
;	COMDAT ?isShiftDownAlt@CvHotKeyInfo@@QBE_NXZ
_TEXT	SEGMENT
?isShiftDownAlt@CvHotKeyInfo@@QBE_NXZ PROC		; CvHotKeyInfo::isShiftDownAlt, COMDAT
; _this$ = ecx

; 632  : 	return m_bShiftDownAlt;

	mov	al, BYTE PTR [ecx+288]

; 633  : }

	ret	0
?isShiftDownAlt@CvHotKeyInfo@@QBE_NXZ ENDP		; CvHotKeyInfo::isShiftDownAlt
_TEXT	ENDS
PUBLIC	?setShiftDownAlt@CvHotKeyInfo@@QAEX_N@Z		; CvHotKeyInfo::setShiftDownAlt
; Function compile flags: /Ogtpy
;	COMDAT ?setShiftDownAlt@CvHotKeyInfo@@QAEX_N@Z
_TEXT	SEGMENT
_b$ = 8							; size = 1
?setShiftDownAlt@CvHotKeyInfo@@QAEX_N@Z PROC		; CvHotKeyInfo::setShiftDownAlt, COMDAT
; _this$ = ecx

; 637  : 	m_bShiftDownAlt = b;

	mov	al, BYTE PTR _b$[esp-4]
	mov	BYTE PTR [ecx+288], al

; 638  : }

	ret	4
?setShiftDownAlt@CvHotKeyInfo@@QAEX_N@Z ENDP		; CvHotKeyInfo::setShiftDownAlt
_TEXT	ENDS
PUBLIC	?isCtrlDownAlt@CvHotKeyInfo@@QBE_NXZ		; CvHotKeyInfo::isCtrlDownAlt
; Function compile flags: /Ogtpy
;	COMDAT ?isCtrlDownAlt@CvHotKeyInfo@@QBE_NXZ
_TEXT	SEGMENT
?isCtrlDownAlt@CvHotKeyInfo@@QBE_NXZ PROC		; CvHotKeyInfo::isCtrlDownAlt, COMDAT
; _this$ = ecx

; 642  : 	return m_bCtrlDownAlt;

	mov	al, BYTE PTR [ecx+289]

; 643  : }

	ret	0
?isCtrlDownAlt@CvHotKeyInfo@@QBE_NXZ ENDP		; CvHotKeyInfo::isCtrlDownAlt
_TEXT	ENDS
PUBLIC	?setCtrlDownAlt@CvHotKeyInfo@@QAEX_N@Z		; CvHotKeyInfo::setCtrlDownAlt
; Function compile flags: /Ogtpy
;	COMDAT ?setCtrlDownAlt@CvHotKeyInfo@@QAEX_N@Z
_TEXT	SEGMENT
_b$ = 8							; size = 1
?setCtrlDownAlt@CvHotKeyInfo@@QAEX_N@Z PROC		; CvHotKeyInfo::setCtrlDownAlt, COMDAT
; _this$ = ecx

; 647  : 	m_bCtrlDownAlt = b;

	mov	al, BYTE PTR _b$[esp-4]
	mov	BYTE PTR [ecx+289], al

; 648  : }

	ret	4
?setCtrlDownAlt@CvHotKeyInfo@@QAEX_N@Z ENDP		; CvHotKeyInfo::setCtrlDownAlt
_TEXT	ENDS
PUBLIC	?getHelp@CvHotKeyInfo@@QBEPBDXZ			; CvHotKeyInfo::getHelp
; Function compile flags: /Ogtpy
;	COMDAT ?getHelp@CvHotKeyInfo@@QBEPBDXZ
_TEXT	SEGMENT
?getHelp@CvHotKeyInfo@@QBEPBDXZ PROC			; CvHotKeyInfo::getHelp, COMDAT
; _this$ = ecx

; 662  : 	return m_strHelp.c_str();

	add	ecx, 404				; 00000194H
	jmp	DWORD PTR __imp_?c_str@?$basic_string@DU?$char_traits@D@std@@V?$allocator@D@2@@std@@QBEPBDXZ
?getHelp@CvHotKeyInfo@@QBEPBDXZ ENDP			; CvHotKeyInfo::getHelp
_TEXT	ENDS
PUBLIC	?getDisabledHelp@CvHotKeyInfo@@QBEPBDXZ		; CvHotKeyInfo::getDisabledHelp
; Function compile flags: /Ogtpy
;	COMDAT ?getDisabledHelp@CvHotKeyInfo@@QBEPBDXZ
_TEXT	SEGMENT
?getDisabledHelp@CvHotKeyInfo@@QBEPBDXZ PROC		; CvHotKeyInfo::getDisabledHelp, COMDAT
; _this$ = ecx

; 667  : 	return m_strDisabledHelp.c_str();

	add	ecx, 432				; 000001b0H
	jmp	DWORD PTR __imp_?c_str@?$basic_string@DU?$char_traits@D@std@@V?$allocator@D@2@@std@@QBEPBDXZ
?getDisabledHelp@CvHotKeyInfo@@QBEPBDXZ ENDP		; CvHotKeyInfo::getDisabledHelp
_TEXT	ENDS
PUBLIC	?getHotKeyString@CvHotKeyInfo@@QBEPBDXZ		; CvHotKeyInfo::getHotKeyString
; Function compile flags: /Ogtpy
;	COMDAT ?getHotKeyString@CvHotKeyInfo@@QBEPBDXZ
_TEXT	SEGMENT
?getHotKeyString@CvHotKeyInfo@@QBEPBDXZ PROC		; CvHotKeyInfo::getHotKeyString, COMDAT
; _this$ = ecx

; 697  : 	return m_strHotKeyString.c_str();

	add	ecx, 376				; 00000178H
	jmp	DWORD PTR __imp_?c_str@?$basic_string@DU?$char_traits@D@std@@V?$allocator@D@2@@std@@QBEPBDXZ
?getHotKeyString@CvHotKeyInfo@@QBEPBDXZ ENDP		; CvHotKeyInfo::getHotKeyString
_TEXT	ENDS
PUBLIC	?getCost@CvSpecialistInfo@@QBEHXZ		; CvSpecialistInfo::getCost
; Function compile flags: /Ogtpy
;	COMDAT ?getCost@CvSpecialistInfo@@QBEHXZ
_TEXT	SEGMENT
?getCost@CvSpecialistInfo@@QBEHXZ PROC			; CvSpecialistInfo::getCost, COMDAT
; _this$ = ecx

; 732  : 	return m_iCost;

	mov	eax, DWORD PTR [ecx+460]

; 733  : }

	ret	0
?getCost@CvSpecialistInfo@@QBEHXZ ENDP			; CvSpecialistInfo::getCost
_TEXT	ENDS
PUBLIC	?getGreatPeopleUnitClass@CvSpecialistInfo@@QBEHXZ ; CvSpecialistInfo::getGreatPeopleUnitClass
; Function compile flags: /Ogtpy
;	COMDAT ?getGreatPeopleUnitClass@CvSpecialistInfo@@QBEHXZ
_TEXT	SEGMENT
?getGreatPeopleUnitClass@CvSpecialistInfo@@QBEHXZ PROC	; CvSpecialistInfo::getGreatPeopleUnitClass, COMDAT
; _this$ = ecx

; 737  : 	return m_iGreatPeopleUnitClass;

	mov	eax, DWORD PTR [ecx+464]

; 738  : }

	ret	0
?getGreatPeopleUnitClass@CvSpecialistInfo@@QBEHXZ ENDP	; CvSpecialistInfo::getGreatPeopleUnitClass
_TEXT	ENDS
PUBLIC	?getGreatPeopleRateChange@CvSpecialistInfo@@QBEHXZ ; CvSpecialistInfo::getGreatPeopleRateChange
; Function compile flags: /Ogtpy
;	COMDAT ?getGreatPeopleRateChange@CvSpecialistInfo@@QBEHXZ
_TEXT	SEGMENT
?getGreatPeopleRateChange@CvSpecialistInfo@@QBEHXZ PROC	; CvSpecialistInfo::getGreatPeopleRateChange, COMDAT
; _this$ = ecx

; 742  : 	return m_iGreatPeopleRateChange;

	mov	eax, DWORD PTR [ecx+468]

; 743  : }

	ret	0
?getGreatPeopleRateChange@CvSpecialistInfo@@QBEHXZ ENDP	; CvSpecialistInfo::getGreatPeopleRateChange
_TEXT	ENDS
PUBLIC	?getCulturePerTurn@CvSpecialistInfo@@QBEHXZ	; CvSpecialistInfo::getCulturePerTurn
; Function compile flags: /Ogtpy
;	COMDAT ?getCulturePerTurn@CvSpecialistInfo@@QBEHXZ
_TEXT	SEGMENT
?getCulturePerTurn@CvSpecialistInfo@@QBEHXZ PROC	; CvSpecialistInfo::getCulturePerTurn, COMDAT
; _this$ = ecx

; 747  : 	return m_iCulturePerTurn;

	mov	eax, DWORD PTR [ecx+472]

; 748  : }

	ret	0
?getCulturePerTurn@CvSpecialistInfo@@QBEHXZ ENDP	; CvSpecialistInfo::getCulturePerTurn
_TEXT	ENDS
PUBLIC	?getMissionType@CvSpecialistInfo@@QBEHXZ	; CvSpecialistInfo::getMissionType
; Function compile flags: /Ogtpy
;	COMDAT ?getMissionType@CvSpecialistInfo@@QBEHXZ
_TEXT	SEGMENT
?getMissionType@CvSpecialistInfo@@QBEHXZ PROC		; CvSpecialistInfo::getMissionType, COMDAT
; _this$ = ecx

; 752  : 	return m_iMissionType;

	mov	eax, DWORD PTR [ecx+476]

; 753  : }

	ret	0
?getMissionType@CvSpecialistInfo@@QBEHXZ ENDP		; CvSpecialistInfo::getMissionType
_TEXT	ENDS
PUBLIC	?setMissionType@CvSpecialistInfo@@QAEXH@Z	; CvSpecialistInfo::setMissionType
; Function compile flags: /Ogtpy
;	COMDAT ?setMissionType@CvSpecialistInfo@@QAEXH@Z
_TEXT	SEGMENT
_iNewType$ = 8						; size = 4
?setMissionType@CvSpecialistInfo@@QAEXH@Z PROC		; CvSpecialistInfo::setMissionType, COMDAT
; _this$ = ecx

; 757  : 	m_iMissionType = iNewType;

	mov	eax, DWORD PTR _iNewType$[esp-4]
	mov	DWORD PTR [ecx+476], eax

; 758  : }

	ret	4
?setMissionType@CvSpecialistInfo@@QAEXH@Z ENDP		; CvSpecialistInfo::setMissionType
_TEXT	ENDS
PUBLIC	?isVisible@CvSpecialistInfo@@QBE_NXZ		; CvSpecialistInfo::isVisible
; Function compile flags: /Ogtpy
;	COMDAT ?isVisible@CvSpecialistInfo@@QBE_NXZ
_TEXT	SEGMENT
?isVisible@CvSpecialistInfo@@QBE_NXZ PROC		; CvSpecialistInfo::isVisible, COMDAT
; _this$ = ecx

; 762  : 	return m_bVisible;

	mov	al, BYTE PTR [ecx+484]

; 763  : }

	ret	0
?isVisible@CvSpecialistInfo@@QBE_NXZ ENDP		; CvSpecialistInfo::isVisible
_TEXT	ENDS
PUBLIC	?getExperience@CvSpecialistInfo@@QBEHXZ		; CvSpecialistInfo::getExperience
; Function compile flags: /Ogtpy
;	COMDAT ?getExperience@CvSpecialistInfo@@QBEHXZ
_TEXT	SEGMENT
?getExperience@CvSpecialistInfo@@QBEHXZ PROC		; CvSpecialistInfo::getExperience, COMDAT
; _this$ = ecx

; 767  : 	return m_iExperience;

	mov	eax, DWORD PTR [ecx+480]

; 768  : }

	ret	0
?getExperience@CvSpecialistInfo@@QBEHXZ ENDP		; CvSpecialistInfo::getExperience
_TEXT	ENDS
PUBLIC	?getYieldChange@CvSpecialistInfo@@QBEHH@Z	; CvSpecialistInfo::getYieldChange
; Function compile flags: /Ogtpy
;	COMDAT ?getYieldChange@CvSpecialistInfo@@QBEHH@Z
_TEXT	SEGMENT
_i$ = 8							; size = 4
?getYieldChange@CvSpecialistInfo@@QBEHH@Z PROC		; CvSpecialistInfo::getYieldChange, COMDAT
; _this$ = ecx

; 772  : 	CvAssertMsg(i < NUM_YIELD_TYPES, "Index out of bounds");
; 773  : 	CvAssertMsg(i > -1, "Index out of bounds");
; 774  : 	return m_piYieldChange ? m_piYieldChange[i] : -1;

	mov	eax, DWORD PTR [ecx+516]
	test	eax, eax
	je	SHORT $LN3@getYieldCh
	mov	ecx, DWORD PTR _i$[esp-4]
	mov	eax, DWORD PTR [eax+ecx*4]

; 775  : }

	ret	4
$LN3@getYieldCh:

; 772  : 	CvAssertMsg(i < NUM_YIELD_TYPES, "Index out of bounds");
; 773  : 	CvAssertMsg(i > -1, "Index out of bounds");
; 774  : 	return m_piYieldChange ? m_piYieldChange[i] : -1;

	or	eax, -1

; 775  : }

	ret	4
?getYieldChange@CvSpecialistInfo@@QBEHH@Z ENDP		; CvSpecialistInfo::getYieldChange
_TEXT	ENDS
PUBLIC	?getYieldChangeArray@CvSpecialistInfo@@QBEPBHXZ	; CvSpecialistInfo::getYieldChangeArray
; Function compile flags: /Ogtpy
;	COMDAT ?getYieldChangeArray@CvSpecialistInfo@@QBEPBHXZ
_TEXT	SEGMENT
?getYieldChangeArray@CvSpecialistInfo@@QBEPBHXZ PROC	; CvSpecialistInfo::getYieldChangeArray, COMDAT
; _this$ = ecx

; 779  : 	return m_piYieldChange;

	mov	eax, DWORD PTR [ecx+516]

; 780  : }

	ret	0
?getYieldChangeArray@CvSpecialistInfo@@QBEPBHXZ ENDP	; CvSpecialistInfo::getYieldChangeArray
_TEXT	ENDS
PUBLIC	?getFlavorValue@CvSpecialistInfo@@QBEHH@Z	; CvSpecialistInfo::getFlavorValue
; Function compile flags: /Ogtpy
;	COMDAT ?getFlavorValue@CvSpecialistInfo@@QBEHH@Z
_TEXT	SEGMENT
_i$ = 8							; size = 4
?getFlavorValue@CvSpecialistInfo@@QBEHH@Z PROC		; CvSpecialistInfo::getFlavorValue, COMDAT
; _this$ = ecx

; 784  : 	CvAssertMsg(i < GC.getNumFlavorTypes(), "Index out of bounds");
; 785  : 	CvAssertMsg(i > -1, "Index out of bounds");
; 786  : 	return m_piFlavorValue ? m_piFlavorValue[i] : 0;

	mov	eax, DWORD PTR [ecx+520]
	test	eax, eax
	je	SHORT $LN3@getFlavorV
	mov	ecx, DWORD PTR _i$[esp-4]
	mov	eax, DWORD PTR [eax+ecx*4]

; 787  : }

	ret	4
$LN3@getFlavorV:

; 784  : 	CvAssertMsg(i < GC.getNumFlavorTypes(), "Index out of bounds");
; 785  : 	CvAssertMsg(i > -1, "Index out of bounds");
; 786  : 	return m_piFlavorValue ? m_piFlavorValue[i] : 0;

	xor	eax, eax

; 787  : }

	ret	4
?getFlavorValue@CvSpecialistInfo@@QBEHH@Z ENDP		; CvSpecialistInfo::getFlavorValue
_TEXT	ENDS
PUBLIC	?getTime@CvMissionInfo@@QBEHXZ			; CvMissionInfo::getTime
; Function compile flags: /Ogtpy
;	COMDAT ?getTime@CvMissionInfo@@QBEHXZ
_TEXT	SEGMENT
?getTime@CvMissionInfo@@QBEHXZ PROC			; CvMissionInfo::getTime, COMDAT
; _this$ = ecx

; 838  : 	return m_iTime;

	mov	eax, DWORD PTR [ecx+460]

; 839  : }

	ret	0
?getTime@CvMissionInfo@@QBEHXZ ENDP			; CvMissionInfo::getTime
_TEXT	ENDS
PUBLIC	?isSound@CvMissionInfo@@QBE_NXZ			; CvMissionInfo::isSound
; Function compile flags: /Ogtpy
;	COMDAT ?isSound@CvMissionInfo@@QBE_NXZ
_TEXT	SEGMENT
?isSound@CvMissionInfo@@QBE_NXZ PROC			; CvMissionInfo::isSound, COMDAT
; _this$ = ecx

; 843  : 	return m_bSound;

	mov	al, BYTE PTR [ecx+464]

; 844  : }

	ret	0
?isSound@CvMissionInfo@@QBE_NXZ ENDP			; CvMissionInfo::isSound
_TEXT	ENDS
PUBLIC	?isTarget@CvMissionInfo@@QBE_NXZ		; CvMissionInfo::isTarget
; Function compile flags: /Ogtpy
;	COMDAT ?isTarget@CvMissionInfo@@QBE_NXZ
_TEXT	SEGMENT
?isTarget@CvMissionInfo@@QBE_NXZ PROC			; CvMissionInfo::isTarget, COMDAT
; _this$ = ecx

; 848  : 	return m_bTarget;

	mov	al, BYTE PTR [ecx+465]

; 849  : }

	ret	0
?isTarget@CvMissionInfo@@QBE_NXZ ENDP			; CvMissionInfo::isTarget
_TEXT	ENDS
PUBLIC	?isBuild@CvMissionInfo@@QBE_NXZ			; CvMissionInfo::isBuild
; Function compile flags: /Ogtpy
;	COMDAT ?isBuild@CvMissionInfo@@QBE_NXZ
_TEXT	SEGMENT
?isBuild@CvMissionInfo@@QBE_NXZ PROC			; CvMissionInfo::isBuild, COMDAT
; _this$ = ecx

; 853  : 	return m_bBuild;

	mov	al, BYTE PTR [ecx+466]

; 854  : }

	ret	0
?isBuild@CvMissionInfo@@QBE_NXZ ENDP			; CvMissionInfo::isBuild
_TEXT	ENDS
PUBLIC	?getVisible@CvMissionInfo@@QBE_NXZ		; CvMissionInfo::getVisible
; Function compile flags: /Ogtpy
;	COMDAT ?getVisible@CvMissionInfo@@QBE_NXZ
_TEXT	SEGMENT
?getVisible@CvMissionInfo@@QBE_NXZ PROC			; CvMissionInfo::getVisible, COMDAT
; _this$ = ecx

; 858  : 	return m_bVisible;

	mov	al, BYTE PTR [ecx+467]

; 859  : }

	ret	0
?getVisible@CvMissionInfo@@QBE_NXZ ENDP			; CvMissionInfo::getVisible
_TEXT	ENDS
PUBLIC	?getEntityEvent@CvMissionInfo@@QBE?AW4EntityEventTypes@@XZ ; CvMissionInfo::getEntityEvent
; Function compile flags: /Ogtpy
;	COMDAT ?getEntityEvent@CvMissionInfo@@QBE?AW4EntityEventTypes@@XZ
_TEXT	SEGMENT
?getEntityEvent@CvMissionInfo@@QBE?AW4EntityEventTypes@@XZ PROC ; CvMissionInfo::getEntityEvent, COMDAT
; _this$ = ecx

; 868  : 	return m_eEntityEvent;

	mov	eax, DWORD PTR [ecx+468]

; 869  : }

	ret	0
?getEntityEvent@CvMissionInfo@@QBE?AW4EntityEventTypes@@XZ ENDP ; CvMissionInfo::getEntityEvent
_TEXT	ENDS
PUBLIC	?getAutomate@CvCommandInfo@@QBEHXZ		; CvCommandInfo::getAutomate
; Function compile flags: /Ogtpy
;	COMDAT ?getAutomate@CvCommandInfo@@QBEHXZ
_TEXT	SEGMENT
?getAutomate@CvCommandInfo@@QBEHXZ PROC			; CvCommandInfo::getAutomate, COMDAT
; _this$ = ecx

; 909  : 	return m_iAutomate;

	mov	eax, DWORD PTR [ecx+460]

; 910  : }

	ret	0
?getAutomate@CvCommandInfo@@QBEHXZ ENDP			; CvCommandInfo::getAutomate
_TEXT	ENDS
PUBLIC	?setAutomate@CvCommandInfo@@QAEXH@Z		; CvCommandInfo::setAutomate
; Function compile flags: /Ogtpy
;	COMDAT ?setAutomate@CvCommandInfo@@QAEXH@Z
_TEXT	SEGMENT
_i$ = 8							; size = 4
?setAutomate@CvCommandInfo@@QAEXH@Z PROC		; CvCommandInfo::setAutomate, COMDAT
; _this$ = ecx

; 914  : 	m_iAutomate = i;

	mov	eax, DWORD PTR _i$[esp-4]
	mov	DWORD PTR [ecx+460], eax

; 915  : }

	ret	4
?setAutomate@CvCommandInfo@@QAEXH@Z ENDP		; CvCommandInfo::setAutomate
_TEXT	ENDS
PUBLIC	?getConfirmCommand@CvCommandInfo@@QBE_NXZ	; CvCommandInfo::getConfirmCommand
; Function compile flags: /Ogtpy
;	COMDAT ?getConfirmCommand@CvCommandInfo@@QBE_NXZ
_TEXT	SEGMENT
?getConfirmCommand@CvCommandInfo@@QBE_NXZ PROC		; CvCommandInfo::getConfirmCommand, COMDAT
; _this$ = ecx

; 919  : 	return m_bConfirmCommand;

	mov	al, BYTE PTR [ecx+464]

; 920  : }

	ret	0
?getConfirmCommand@CvCommandInfo@@QBE_NXZ ENDP		; CvCommandInfo::getConfirmCommand
_TEXT	ENDS
PUBLIC	?getVisible@CvCommandInfo@@QBE_NXZ		; CvCommandInfo::getVisible
; Function compile flags: /Ogtpy
;	COMDAT ?getVisible@CvCommandInfo@@QBE_NXZ
_TEXT	SEGMENT
?getVisible@CvCommandInfo@@QBE_NXZ PROC			; CvCommandInfo::getVisible, COMDAT
; _this$ = ecx

; 924  : 	return m_bVisible;

	mov	al, BYTE PTR [ecx+465]

; 925  : }

	ret	0
?getVisible@CvCommandInfo@@QBE_NXZ ENDP			; CvCommandInfo::getVisible
_TEXT	ENDS
PUBLIC	?getAll@CvCommandInfo@@QBE_NXZ			; CvCommandInfo::getAll
; Function compile flags: /Ogtpy
;	COMDAT ?getAll@CvCommandInfo@@QBE_NXZ
_TEXT	SEGMENT
?getAll@CvCommandInfo@@QBE_NXZ PROC			; CvCommandInfo::getAll, COMDAT
; _this$ = ecx

; 929  : 	return m_bAll;

	mov	al, BYTE PTR [ecx+466]

; 930  : }

	ret	0
?getAll@CvCommandInfo@@QBE_NXZ ENDP			; CvCommandInfo::getAll
_TEXT	ENDS
PUBLIC	?getCommand@CvAutomateInfo@@QBEHXZ		; CvAutomateInfo::getCommand
; Function compile flags: /Ogtpy
;	COMDAT ?getCommand@CvAutomateInfo@@QBEHXZ
_TEXT	SEGMENT
?getCommand@CvAutomateInfo@@QBEHXZ PROC			; CvAutomateInfo::getCommand, COMDAT
; _this$ = ecx

; 961  : 	return m_iCommand;

	mov	eax, DWORD PTR [ecx+460]

; 962  : }

	ret	0
?getCommand@CvAutomateInfo@@QBEHXZ ENDP			; CvAutomateInfo::getCommand
_TEXT	ENDS
PUBLIC	?setCommand@CvAutomateInfo@@QAEXH@Z		; CvAutomateInfo::setCommand
; Function compile flags: /Ogtpy
;	COMDAT ?setCommand@CvAutomateInfo@@QAEXH@Z
_TEXT	SEGMENT
_i$ = 8							; size = 4
?setCommand@CvAutomateInfo@@QAEXH@Z PROC		; CvAutomateInfo::setCommand, COMDAT
; _this$ = ecx

; 966  : 	m_iCommand = i;

	mov	eax, DWORD PTR _i$[esp-4]
	mov	DWORD PTR [ecx+460], eax

; 967  : }

	ret	4
?setCommand@CvAutomateInfo@@QAEXH@Z ENDP		; CvAutomateInfo::setCommand
_TEXT	ENDS
PUBLIC	?getAutomate@CvAutomateInfo@@QBEHXZ		; CvAutomateInfo::getAutomate
; Function compile flags: /Ogtpy
;	COMDAT ?getAutomate@CvAutomateInfo@@QBEHXZ
_TEXT	SEGMENT
?getAutomate@CvAutomateInfo@@QBEHXZ PROC		; CvAutomateInfo::getAutomate, COMDAT
; _this$ = ecx

; 971  : 	return m_iAutomate;

	mov	eax, DWORD PTR [ecx+464]

; 972  : }

	ret	0
?getAutomate@CvAutomateInfo@@QBEHXZ ENDP		; CvAutomateInfo::getAutomate
_TEXT	ENDS
PUBLIC	?setAutomate@CvAutomateInfo@@QAEXH@Z		; CvAutomateInfo::setAutomate
; Function compile flags: /Ogtpy
;	COMDAT ?setAutomate@CvAutomateInfo@@QAEXH@Z
_TEXT	SEGMENT
_i$ = 8							; size = 4
?setAutomate@CvAutomateInfo@@QAEXH@Z PROC		; CvAutomateInfo::setAutomate, COMDAT
; _this$ = ecx

; 976  : 	m_iAutomate = i;

	mov	eax, DWORD PTR _i$[esp-4]
	mov	DWORD PTR [ecx+464], eax

; 977  : }

	ret	4
?setAutomate@CvAutomateInfo@@QAEXH@Z ENDP		; CvAutomateInfo::setAutomate
_TEXT	ENDS
PUBLIC	?getConfirmCommand@CvAutomateInfo@@QBE_NXZ	; CvAutomateInfo::getConfirmCommand
; Function compile flags: /Ogtpy
;	COMDAT ?getConfirmCommand@CvAutomateInfo@@QBE_NXZ
_TEXT	SEGMENT
?getConfirmCommand@CvAutomateInfo@@QBE_NXZ PROC		; CvAutomateInfo::getConfirmCommand, COMDAT
; _this$ = ecx

; 981  : 	return m_bConfirmCommand;

	mov	al, BYTE PTR [ecx+468]

; 982  : }

	ret	0
?getConfirmCommand@CvAutomateInfo@@QBE_NXZ ENDP		; CvAutomateInfo::getConfirmCommand
_TEXT	ENDS
PUBLIC	?getVisible@CvAutomateInfo@@QBE_NXZ		; CvAutomateInfo::getVisible
; Function compile flags: /Ogtpy
;	COMDAT ?getVisible@CvAutomateInfo@@QBE_NXZ
_TEXT	SEGMENT
?getVisible@CvAutomateInfo@@QBE_NXZ PROC		; CvAutomateInfo::getVisible, COMDAT
; _this$ = ecx

; 986  : 	return m_bVisible;

	mov	al, BYTE PTR [ecx+469]

; 987  : }

	ret	0
?getVisible@CvAutomateInfo@@QBE_NXZ ENDP		; CvAutomateInfo::getVisible
_TEXT	ENDS
PUBLIC	??0CvActionInfo@@QAE@XZ				; CvActionInfo::CvActionInfo
; Function compile flags: /Ogtpy
;	COMDAT ??0CvActionInfo@@QAE@XZ
_TEXT	SEGMENT
??0CvActionInfo@@QAE@XZ PROC				; CvActionInfo::CvActionInfo, COMDAT
; _this$ = ecx

; 1012 : {

	mov	eax, ecx
	mov	DWORD PTR [eax], -1
	mov	DWORD PTR [eax+4], -1

; 1013 : }

	ret	0
??0CvActionInfo@@QAE@XZ ENDP				; CvActionInfo::CvActionInfo
_TEXT	ENDS
PUBLIC	?getMissionData@CvActionInfo@@QBEHXZ		; CvActionInfo::getMissionData
; Function compile flags: /Ogtpy
;	COMDAT ?getMissionData@CvActionInfo@@QBEHXZ
_TEXT	SEGMENT
?getMissionData@CvActionInfo@@QBEHXZ PROC		; CvActionInfo::getMissionData, COMDAT
; _this$ = ecx

; 1017 : 
; 1018 : 	if(
; 1019 : 	    (ACTIONSUBTYPE_BUILD == m_eSubType)			||
; 1020 : 	    (ACTIONSUBTYPE_SPECIALIST == m_eSubType)
; 1021 : 	)

	mov	eax, DWORD PTR [ecx+4]
	cmp	eax, 2
	je	SHORT $LN1@getMission
	cmp	eax, 4
	je	SHORT $LN1@getMission

; 1024 : 	}
; 1025 : 
; 1026 : 	return -1;

	or	eax, -1

; 1027 : }

	ret	0
$LN1@getMission:

; 1022 : 	{
; 1023 : 		return m_iOriginalIndex;

	mov	eax, DWORD PTR [ecx]

; 1027 : }

	ret	0
?getMissionData@CvActionInfo@@QBEHXZ ENDP		; CvActionInfo::getMissionData
_TEXT	ENDS
PUBLIC	?getCommandData@CvActionInfo@@QBEHXZ		; CvActionInfo::getCommandData
EXTRN	?getAutomateInfo@CvGlobals@@QAEPAVCvAutomateInfo@@H@Z:PROC ; CvGlobals::getAutomateInfo
EXTRN	?getCommandInfo@CvGlobals@@QAEPAVCvCommandInfo@@W4CommandTypes@@@Z:PROC ; CvGlobals::getCommandInfo
EXTRN	?gGlobals@@3VCvGlobals@@A:BYTE			; gGlobals
; Function compile flags: /Ogtpy
;	COMDAT ?getCommandData@CvActionInfo@@QBEHXZ
_TEXT	SEGMENT
?getCommandData@CvActionInfo@@QBEHXZ PROC		; CvActionInfo::getCommandData, COMDAT
; _this$ = ecx

; 1031 : 
; 1032 : 	if(ACTIONSUBTYPE_PROMOTION == m_eSubType)

	mov	eax, DWORD PTR [ecx+4]
	cmp	eax, 3
	jne	SHORT $LN5@getCommand

; 1033 : 	{
; 1034 : 		return m_iOriginalIndex;

	mov	eax, DWORD PTR [ecx]

; 1050 : #endif
; 1051 : }

	ret	0
$LN5@getCommand:

; 1035 : 	}
; 1036 : #ifdef AUI_WARNING_FIXES
; 1037 : 	else
; 1038 : 		return getAutomateType();
; 1039 : #else
; 1040 : 	else if(ACTIONSUBTYPE_COMMAND == m_eSubType)

	cmp	eax, 1
	jne	SHORT $LN3@getCommand

; 1041 : 	{
; 1042 : 		return GC.getCommandInfo((CommandTypes)m_iOriginalIndex)->getAutomate();

	mov	eax, DWORD PTR [ecx]
	push	eax
	mov	ecx, OFFSET ?gGlobals@@3VCvGlobals@@A	; gGlobals
	call	?getCommandInfo@CvGlobals@@QAEPAVCvCommandInfo@@W4CommandTypes@@@Z ; CvGlobals::getCommandInfo
	mov	eax, DWORD PTR [eax+460]

; 1050 : #endif
; 1051 : }

	ret	0
$LN3@getCommand:

; 1043 : 	}
; 1044 : 	else if(ACTIONSUBTYPE_AUTOMATE == m_eSubType)

	cmp	eax, 6
	jne	SHORT $LN1@getCommand

; 1045 : 	{
; 1046 : 		return GC.getAutomateInfo(m_iOriginalIndex)->getAutomate();

	mov	ecx, DWORD PTR [ecx]
	push	ecx
	mov	ecx, OFFSET ?gGlobals@@3VCvGlobals@@A	; gGlobals
	call	?getAutomateInfo@CvGlobals@@QAEPAVCvAutomateInfo@@H@Z ; CvGlobals::getAutomateInfo
	mov	eax, DWORD PTR [eax+464]

; 1050 : #endif
; 1051 : }

	ret	0
$LN1@getCommand:

; 1047 : 	}
; 1048 : 
; 1049 : 	return -1;

	or	eax, -1

; 1050 : #endif
; 1051 : }

	ret	0
?getCommandData@CvActionInfo@@QBEHXZ ENDP		; CvActionInfo::getCommandData
_TEXT	ENDS
PUBLIC	?getAutomateType@CvActionInfo@@QBEHXZ		; CvActionInfo::getAutomateType
; Function compile flags: /Ogtpy
;	COMDAT ?getAutomateType@CvActionInfo@@QBEHXZ
_TEXT	SEGMENT
?getAutomateType@CvActionInfo@@QBEHXZ PROC		; CvActionInfo::getAutomateType, COMDAT
; _this$ = ecx

; 1055 : 
; 1056 : 	if(ACTIONSUBTYPE_COMMAND == m_eSubType)

	mov	eax, DWORD PTR [ecx+4]
	cmp	eax, 1
	jne	SHORT $LN5@getAutomat

; 1057 : 	{
; 1058 : 		CvCommandInfo* pkCommandInfo = GC.getCommandInfo((CommandTypes)m_iOriginalIndex);

	mov	eax, DWORD PTR [ecx]
	push	eax
	mov	ecx, OFFSET ?gGlobals@@3VCvGlobals@@A	; gGlobals
	call	?getCommandInfo@CvGlobals@@QAEPAVCvCommandInfo@@W4CommandTypes@@@Z ; CvGlobals::getCommandInfo

; 1059 : 		if(pkCommandInfo)

	test	eax, eax
	je	SHORT $LN1@getAutomat

; 1060 : 		{
; 1061 : 			return pkCommandInfo->getAutomate();

	mov	eax, DWORD PTR [eax+460]

; 1074 : }

	ret	0
$LN5@getAutomat:

; 1062 : 		}
; 1063 : 	}
; 1064 : 	else if(ACTIONSUBTYPE_AUTOMATE == m_eSubType)

	cmp	eax, 6
	jne	SHORT $LN1@getAutomat

; 1065 : 	{
; 1066 : 		CvAutomateInfo* pkAutomateInfo = GC.getAutomateInfo(m_iOriginalIndex);

	mov	ecx, DWORD PTR [ecx]
	push	ecx
	mov	ecx, OFFSET ?gGlobals@@3VCvGlobals@@A	; gGlobals
	call	?getAutomateInfo@CvGlobals@@QAEPAVCvAutomateInfo@@H@Z ; CvGlobals::getAutomateInfo

; 1067 : 		if(pkAutomateInfo)

	test	eax, eax
	je	SHORT $LN1@getAutomat

; 1068 : 		{
; 1069 : 			return pkAutomateInfo->getAutomate();

	mov	eax, DWORD PTR [eax+464]

; 1074 : }

	ret	0
$LN1@getAutomat:

; 1070 : 		}
; 1071 : 	}
; 1072 : 
; 1073 : 	return NO_AUTOMATE;

	or	eax, -1

; 1074 : }

	ret	0
?getAutomateType@CvActionInfo@@QBEHXZ ENDP		; CvActionInfo::getAutomateType
_TEXT	ENDS
PUBLIC	?getInterfaceModeType@CvActionInfo@@QBEHXZ	; CvActionInfo::getInterfaceModeType
; Function compile flags: /Ogtpy
;	COMDAT ?getInterfaceModeType@CvActionInfo@@QBEHXZ
_TEXT	SEGMENT
?getInterfaceModeType@CvActionInfo@@QBEHXZ PROC		; CvActionInfo::getInterfaceModeType, COMDAT
; _this$ = ecx

; 1078 : 	if(ACTIONSUBTYPE_INTERFACEMODE == m_eSubType)

	cmp	DWORD PTR [ecx+4], 0
	jne	SHORT $LN1@getInterfa

; 1079 : 	{
; 1080 : 		return m_iOriginalIndex;

	mov	eax, DWORD PTR [ecx]

; 1083 : }

	ret	0
$LN1@getInterfa:

; 1081 : 	}
; 1082 : 	return NO_INTERFACEMODE;

	or	eax, -1

; 1083 : }

	ret	0
?getInterfaceModeType@CvActionInfo@@QBEHXZ ENDP		; CvActionInfo::getInterfaceModeType
_TEXT	ENDS
PUBLIC	?getCommandType@CvActionInfo@@QBEHXZ		; CvActionInfo::getCommandType
EXTRN	?GetCommandType@CvPromotionEntry@@QBEHXZ:PROC	; CvPromotionEntry::GetCommandType
EXTRN	?getPromotionInfo@CvGlobals@@QAEPAVCvPromotionEntry@@W4PromotionTypes@@@Z:PROC ; CvGlobals::getPromotionInfo
; Function compile flags: /Ogtpy
;	COMDAT ?getCommandType@CvActionInfo@@QBEHXZ
_TEXT	SEGMENT
?getCommandType@CvActionInfo@@QBEHXZ PROC		; CvActionInfo::getCommandType, COMDAT
; _this$ = ecx

; 1109 : 	if(ACTIONSUBTYPE_COMMAND == m_eSubType)

	mov	eax, DWORD PTR [ecx+4]
	cmp	eax, 1
	jne	SHORT $LN7@getCommand@2

; 1110 : 	{
; 1111 : 		return m_iOriginalIndex;

	mov	eax, DWORD PTR [ecx]

; 1131 : }

	ret	0
$LN7@getCommand@2:

; 1112 : 	}
; 1113 : 	else if(ACTIONSUBTYPE_PROMOTION == m_eSubType)

	cmp	eax, 3
	jne	SHORT $LN5@getCommand@2

; 1114 : 	{
; 1115 : 		CvPromotionEntry* pkPromotionInfo = GC.getPromotionInfo((PromotionTypes)m_iOriginalIndex);

	mov	eax, DWORD PTR [ecx]
	push	eax
	mov	ecx, OFFSET ?gGlobals@@3VCvGlobals@@A	; gGlobals
	call	?getPromotionInfo@CvGlobals@@QAEPAVCvPromotionEntry@@W4PromotionTypes@@@Z ; CvGlobals::getPromotionInfo

; 1116 : 		if(pkPromotionInfo)

	test	eax, eax
	je	SHORT $LN1@getCommand@2

; 1117 : 		{
; 1118 : 			return pkPromotionInfo->GetCommandType();

	mov	ecx, eax
	jmp	?GetCommandType@CvPromotionEntry@@QBEHXZ ; CvPromotionEntry::GetCommandType
$LN5@getCommand@2:

; 1119 : 		}
; 1120 : 	}
; 1121 : 	else if(ACTIONSUBTYPE_AUTOMATE == m_eSubType)

	cmp	eax, 6
	jne	SHORT $LN1@getCommand@2

; 1122 : 	{
; 1123 : 		CvAutomateInfo* pkAutomateInfo = GC.getAutomateInfo(m_iOriginalIndex);

	mov	ecx, DWORD PTR [ecx]
	push	ecx
	mov	ecx, OFFSET ?gGlobals@@3VCvGlobals@@A	; gGlobals
	call	?getAutomateInfo@CvGlobals@@QAEPAVCvAutomateInfo@@H@Z ; CvGlobals::getAutomateInfo

; 1124 : 		if(pkAutomateInfo)

	test	eax, eax
	je	SHORT $LN1@getCommand@2

; 1125 : 		{
; 1126 : 			return pkAutomateInfo->getCommand();

	mov	eax, DWORD PTR [eax+460]

; 1131 : }

	ret	0
$LN1@getCommand@2:

; 1127 : 		}
; 1128 : 	}
; 1129 : 
; 1130 : 	return NO_COMMAND;

	or	eax, -1

; 1131 : }

	ret	0
?getCommandType@CvActionInfo@@QBEHXZ ENDP		; CvActionInfo::getCommandType
_TEXT	ENDS
PUBLIC	?getControlType@CvActionInfo@@QBEHXZ		; CvActionInfo::getControlType
; Function compile flags: /Ogtpy
;	COMDAT ?getControlType@CvActionInfo@@QBEHXZ
_TEXT	SEGMENT
?getControlType@CvActionInfo@@QBEHXZ PROC		; CvActionInfo::getControlType, COMDAT
; _this$ = ecx

; 1135 : 	if(ACTIONSUBTYPE_CONTROL == m_eSubType)

	cmp	DWORD PTR [ecx+4], 5
	jne	SHORT $LN1@getControl

; 1136 : 	{
; 1137 : 		return m_iOriginalIndex;

	mov	eax, DWORD PTR [ecx]

; 1140 : }

	ret	0
$LN1@getControl:

; 1138 : 	}
; 1139 : 	return -1;

	or	eax, -1

; 1140 : }

	ret	0
?getControlType@CvActionInfo@@QBEHXZ ENDP		; CvActionInfo::getControlType
_TEXT	ENDS
PUBLIC	?getOriginalIndex@CvActionInfo@@QBEHXZ		; CvActionInfo::getOriginalIndex
; Function compile flags: /Ogtpy
;	COMDAT ?getOriginalIndex@CvActionInfo@@QBEHXZ
_TEXT	SEGMENT
?getOriginalIndex@CvActionInfo@@QBEHXZ PROC		; CvActionInfo::getOriginalIndex, COMDAT
; _this$ = ecx

; 1144 : 	return m_iOriginalIndex;

	mov	eax, DWORD PTR [ecx]

; 1145 : }

	ret	0
?getOriginalIndex@CvActionInfo@@QBEHXZ ENDP		; CvActionInfo::getOriginalIndex
_TEXT	ENDS
PUBLIC	?setOriginalIndex@CvActionInfo@@QAEXH@Z		; CvActionInfo::setOriginalIndex
; Function compile flags: /Ogtpy
;	COMDAT ?setOriginalIndex@CvActionInfo@@QAEXH@Z
_TEXT	SEGMENT
_i$ = 8							; size = 4
?setOriginalIndex@CvActionInfo@@QAEXH@Z PROC		; CvActionInfo::setOriginalIndex, COMDAT
; _this$ = ecx

; 1149 : 	m_iOriginalIndex = i;

	mov	eax, DWORD PTR _i$[esp-4]
	mov	DWORD PTR [ecx], eax

; 1150 : }

	ret	4
?setOriginalIndex@CvActionInfo@@QAEXH@Z ENDP		; CvActionInfo::setOriginalIndex
_TEXT	ENDS
PUBLIC	?isConfirmCommand@CvActionInfo@@QBE_NXZ		; CvActionInfo::isConfirmCommand
; Function compile flags: /Ogtpy
;	COMDAT ?isConfirmCommand@CvActionInfo@@QBE_NXZ
_TEXT	SEGMENT
?isConfirmCommand@CvActionInfo@@QBE_NXZ PROC		; CvActionInfo::isConfirmCommand, COMDAT
; _this$ = ecx

; 1154 : 	if(ACTIONSUBTYPE_COMMAND == m_eSubType)

	mov	eax, DWORD PTR [ecx+4]
	cmp	eax, 1
	jne	SHORT $LN5@isConfirmC

; 1155 : 	{
; 1156 : 		CvCommandInfo* pkCommandInfo = GC.getCommandInfo((CommandTypes)m_iOriginalIndex);

	mov	eax, DWORD PTR [ecx]
	push	eax
	mov	ecx, OFFSET ?gGlobals@@3VCvGlobals@@A	; gGlobals
	call	?getCommandInfo@CvGlobals@@QAEPAVCvCommandInfo@@W4CommandTypes@@@Z ; CvGlobals::getCommandInfo

; 1157 : 		if(pkCommandInfo)

	test	eax, eax
	je	SHORT $LN1@isConfirmC

; 1158 : 		{
; 1159 : 			return pkCommandInfo->getConfirmCommand();

	mov	al, BYTE PTR [eax+464]

; 1172 : }

	ret	0
$LN5@isConfirmC:

; 1160 : 		}
; 1161 : 	}
; 1162 : 	else if(ACTIONSUBTYPE_AUTOMATE == m_eSubType)

	cmp	eax, 6
	jne	SHORT $LN1@isConfirmC

; 1163 : 	{
; 1164 : 		CvAutomateInfo* pkAutomateInfo = GC.getAutomateInfo(m_iOriginalIndex);

	mov	ecx, DWORD PTR [ecx]
	push	ecx
	mov	ecx, OFFSET ?gGlobals@@3VCvGlobals@@A	; gGlobals
	call	?getAutomateInfo@CvGlobals@@QAEPAVCvAutomateInfo@@H@Z ; CvGlobals::getAutomateInfo

; 1165 : 		if(pkAutomateInfo)

	test	eax, eax
	je	SHORT $LN1@isConfirmC

; 1166 : 		{
; 1167 : 			return pkAutomateInfo->getConfirmCommand();

	mov	al, BYTE PTR [eax+468]

; 1172 : }

	ret	0
$LN1@isConfirmC:

; 1168 : 		}
; 1169 : 	}
; 1170 : 
; 1171 : 	return false;

	xor	al, al

; 1172 : }

	ret	0
?isConfirmCommand@CvActionInfo@@QBE_NXZ ENDP		; CvActionInfo::isConfirmCommand
_TEXT	ENDS
PUBLIC	?getSubType@CvActionInfo@@QBE?AW4ActionSubTypes@@XZ ; CvActionInfo::getSubType
; Function compile flags: /Ogtpy
;	COMDAT ?getSubType@CvActionInfo@@QBE?AW4ActionSubTypes@@XZ
_TEXT	SEGMENT
?getSubType@CvActionInfo@@QBE?AW4ActionSubTypes@@XZ PROC ; CvActionInfo::getSubType, COMDAT
; _this$ = ecx

; 1218 : 	return m_eSubType;

	mov	eax, DWORD PTR [ecx+4]

; 1219 : }

	ret	0
?getSubType@CvActionInfo@@QBE?AW4ActionSubTypes@@XZ ENDP ; CvActionInfo::getSubType
_TEXT	ENDS
PUBLIC	?setSubType@CvActionInfo@@QAEXW4ActionSubTypes@@@Z ; CvActionInfo::setSubType
; Function compile flags: /Ogtpy
;	COMDAT ?setSubType@CvActionInfo@@QAEXW4ActionSubTypes@@@Z
_TEXT	SEGMENT
_eSubType$ = 8						; size = 4
?setSubType@CvActionInfo@@QAEXW4ActionSubTypes@@@Z PROC	; CvActionInfo::setSubType, COMDAT
; _this$ = ecx

; 1223 : 	m_eSubType = eSubType;

	mov	eax, DWORD PTR _eSubType$[esp-4]
	mov	DWORD PTR [ecx+4], eax

; 1224 : }

	ret	4
?setSubType@CvActionInfo@@QAEXW4ActionSubTypes@@@Z ENDP	; CvActionInfo::setSubType
_TEXT	ENDS
PUBLIC	?getHotkeyInfo@CvActionInfo@@ABEPAVCvHotKeyInfo@@XZ ; CvActionInfo::getHotkeyInfo
EXTRN	?getMissionInfo@CvGlobals@@QAEPAVCvMissionInfo@@W4MissionTypes@@@Z:PROC ; CvGlobals::getMissionInfo
EXTRN	?getControlInfo@CvGlobals@@QAEPAVCvControlInfo@@W4ControlTypes@@@Z:PROC ; CvGlobals::getControlInfo
EXTRN	?getSpecialistInfo@CvGlobals@@QAEPAVCvSpecialistInfo@@W4SpecialistTypes@@@Z:PROC ; CvGlobals::getSpecialistInfo
EXTRN	?getBuildInfo@CvGlobals@@QAEPAVCvBuildInfo@@W4BuildTypes@@@Z:PROC ; CvGlobals::getBuildInfo
EXTRN	?getInterfaceModeInfo@CvGlobals@@QAEPAVCvInterfaceModeInfo@@W4InterfaceModeTypes@@@Z:PROC ; CvGlobals::getInterfaceModeInfo
; Function compile flags: /Ogtpy
;	COMDAT ?getHotkeyInfo@CvActionInfo@@ABEPAVCvHotKeyInfo@@XZ
_TEXT	SEGMENT
?getHotkeyInfo@CvActionInfo@@ABEPAVCvHotKeyInfo@@XZ PROC ; CvActionInfo::getHotkeyInfo, COMDAT
; _this$ = ecx

; 1228 : 	switch(getSubType())

	mov	eax, DWORD PTR [ecx+4]
	cmp	eax, 7
	ja	$LN1@getHotkeyI
	jmp	DWORD PTR $LN39@getHotkeyI[eax*4]
$LN16@getHotkeyI:

; 1229 : 	{
; 1230 : 	case ACTIONSUBTYPE_INTERFACEMODE:
; 1231 : 	{
; 1232 : 		CvInterfaceModeInfo* pkInterfaceModInfo = GC.getInterfaceModeInfo((InterfaceModeTypes)getOriginalIndex());

	mov	ecx, DWORD PTR [ecx]
	push	ecx
	mov	ecx, OFFSET ?gGlobals@@3VCvGlobals@@A	; gGlobals
	call	?getInterfaceModeInfo@CvGlobals@@QAEPAVCvInterfaceModeInfo@@W4InterfaceModeTypes@@@Z ; CvGlobals::getInterfaceModeInfo

; 1233 : 		if(pkInterfaceModInfo)

	test	eax, eax
	je	SHORT $LN1@getHotkeyI

; 1306 : }

	ret	0
$LN14@getHotkeyI:

; 1234 : 		{
; 1235 : 			return pkInterfaceModInfo;
; 1236 : 		}
; 1237 : 	}
; 1238 : 	break;
; 1239 : 	case ACTIONSUBTYPE_COMMAND:
; 1240 : 	{
; 1241 : 		CvCommandInfo* pkCommandInfo = GC.getCommandInfo((CommandTypes)getOriginalIndex());

	mov	ecx, DWORD PTR [ecx]
	push	ecx
	mov	ecx, OFFSET ?gGlobals@@3VCvGlobals@@A	; gGlobals
	call	?getCommandInfo@CvGlobals@@QAEPAVCvCommandInfo@@W4CommandTypes@@@Z ; CvGlobals::getCommandInfo

; 1242 : 		if(pkCommandInfo)

	test	eax, eax
	je	SHORT $LN1@getHotkeyI

; 1306 : }

	ret	0
$LN12@getHotkeyI:

; 1243 : 		{
; 1244 : 			return pkCommandInfo;
; 1245 : 		}
; 1246 : 	}
; 1247 : 	break;
; 1248 : 	case ACTIONSUBTYPE_BUILD:
; 1249 : 	{
; 1250 : 		CvBuildInfo* pkBuildInfo = GC.getBuildInfo((BuildTypes)getOriginalIndex());

	mov	ecx, DWORD PTR [ecx]
	push	ecx
	mov	ecx, OFFSET ?gGlobals@@3VCvGlobals@@A	; gGlobals
	call	?getBuildInfo@CvGlobals@@QAEPAVCvBuildInfo@@W4BuildTypes@@@Z ; CvGlobals::getBuildInfo

; 1251 : 		if(pkBuildInfo)

	test	eax, eax
	je	SHORT $LN1@getHotkeyI

; 1306 : }

	ret	0
$LN10@getHotkeyI:

; 1252 : 		{
; 1253 : 			return pkBuildInfo;
; 1254 : 		}
; 1255 : 	}
; 1256 : 	break;
; 1257 : 	case ACTIONSUBTYPE_PROMOTION:
; 1258 : 	{
; 1259 : 		CvPromotionEntry* pkPromotionInfo = GC.getPromotionInfo((PromotionTypes)getOriginalIndex());

	mov	ecx, DWORD PTR [ecx]
	push	ecx
	mov	ecx, OFFSET ?gGlobals@@3VCvGlobals@@A	; gGlobals
	call	?getPromotionInfo@CvGlobals@@QAEPAVCvPromotionEntry@@W4PromotionTypes@@@Z ; CvGlobals::getPromotionInfo

; 1260 : 		if(pkPromotionInfo)

	test	eax, eax
	je	SHORT $LN1@getHotkeyI

; 1306 : }

	ret	0
$LN8@getHotkeyI:

; 1261 : 		{
; 1262 : 			return pkPromotionInfo;
; 1263 : 		}
; 1264 : 	}
; 1265 : 	break;
; 1266 : 	case ACTIONSUBTYPE_SPECIALIST:
; 1267 : 	{
; 1268 : 		CvSpecialistInfo* pkSpecialistInfo = GC.getSpecialistInfo((SpecialistTypes)getOriginalIndex());

	mov	ecx, DWORD PTR [ecx]
	push	ecx
	mov	ecx, OFFSET ?gGlobals@@3VCvGlobals@@A	; gGlobals
	call	?getSpecialistInfo@CvGlobals@@QAEPAVCvSpecialistInfo@@W4SpecialistTypes@@@Z ; CvGlobals::getSpecialistInfo

; 1269 : 		if(pkSpecialistInfo)

	test	eax, eax
	je	SHORT $LN1@getHotkeyI

; 1306 : }

	ret	0
$LN6@getHotkeyI:

; 1270 : 		{
; 1271 : 			return pkSpecialistInfo;
; 1272 : 		}
; 1273 : 	}
; 1274 : 	break;
; 1275 : 	case ACTIONSUBTYPE_CONTROL:
; 1276 : 	{
; 1277 : 		CvControlInfo* pkControlInfo = GC.getControlInfo((ControlTypes)getOriginalIndex());

	mov	ecx, DWORD PTR [ecx]
	push	ecx
	mov	ecx, OFFSET ?gGlobals@@3VCvGlobals@@A	; gGlobals
	call	?getControlInfo@CvGlobals@@QAEPAVCvControlInfo@@W4ControlTypes@@@Z ; CvGlobals::getControlInfo

; 1278 : 		if(pkControlInfo)

	test	eax, eax
	je	SHORT $LN1@getHotkeyI

; 1306 : }

	ret	0
$LN4@getHotkeyI:

; 1279 : 		{
; 1280 : 			return pkControlInfo;
; 1281 : 		}
; 1282 : 	}
; 1283 : 	break;
; 1284 : 	case ACTIONSUBTYPE_AUTOMATE:
; 1285 : 	{
; 1286 : 		CvAutomateInfo* pkAutomateInfo = GC.getAutomateInfo((AutomateTypes)getOriginalIndex());

	mov	ecx, DWORD PTR [ecx]
	push	ecx
	mov	ecx, OFFSET ?gGlobals@@3VCvGlobals@@A	; gGlobals
	call	?getAutomateInfo@CvGlobals@@QAEPAVCvAutomateInfo@@H@Z ; CvGlobals::getAutomateInfo

; 1287 : 		if(pkAutomateInfo)

	test	eax, eax
	je	SHORT $LN1@getHotkeyI

; 1306 : }

	ret	0
$LN2@getHotkeyI:

; 1288 : 		{
; 1289 : 			return pkAutomateInfo;
; 1290 : 		}
; 1291 : 	}
; 1292 : 	break;
; 1293 : 	case ACTIONSUBTYPE_MISSION:
; 1294 : 	{
; 1295 : 		CvMissionInfo* pkMissionInfo = GC.getMissionInfo((MissionTypes)getOriginalIndex());

	mov	ecx, DWORD PTR [ecx]
	push	ecx
	mov	ecx, OFFSET ?gGlobals@@3VCvGlobals@@A	; gGlobals
	call	?getMissionInfo@CvGlobals@@QAEPAVCvMissionInfo@@W4MissionTypes@@@Z ; CvGlobals::getMissionInfo

; 1296 : 		if(pkMissionInfo)

	test	eax, eax

; 1297 : 		{
; 1298 : 			return pkMissionInfo;

	jne	SHORT $LN19@getHotkeyI
$LN1@getHotkeyI:

; 1299 : 		}
; 1300 : 	}
; 1301 : 	break;
; 1302 : 	}
; 1303 : 
; 1304 : 	CvAssertMsg((0) ,"Unknown Action Subtype in CvActionInfo::getHotkeyInfo");
; 1305 : 	return NULL;

	xor	eax, eax
$LN19@getHotkeyI:

; 1306 : }

	ret	0
	npad	3
$LN39@getHotkeyI:
	DD	$LN16@getHotkeyI
	DD	$LN14@getHotkeyI
	DD	$LN12@getHotkeyI
	DD	$LN10@getHotkeyI
	DD	$LN8@getHotkeyI
	DD	$LN6@getHotkeyI
	DD	$LN4@getHotkeyI
	DD	$LN2@getHotkeyI
?getHotkeyInfo@CvActionInfo@@ABEPAVCvHotKeyInfo@@XZ ENDP ; CvActionInfo::getHotkeyInfo
_TEXT	ENDS
PUBLIC	?GetHelp@CvActionInfo@@QBEPBDXZ			; CvActionInfo::GetHelp
; Function compile flags: /Ogtpy
;	COMDAT ?GetHelp@CvActionInfo@@QBEPBDXZ
_TEXT	SEGMENT
?GetHelp@CvActionInfo@@QBEPBDXZ PROC			; CvActionInfo::GetHelp, COMDAT
; _this$ = ecx

; 1339 : {

	push	esi
	mov	esi, ecx

; 1340 : 	if(getHotkeyInfo())

	call	?getHotkeyInfo@CvActionInfo@@ABEPAVCvHotKeyInfo@@XZ ; CvActionInfo::getHotkeyInfo
	test	eax, eax
	je	SHORT $LN1@GetHelp

; 1341 : 	{
; 1342 : 		return getHotkeyInfo()->getHelp();

	mov	ecx, esi
	call	?getHotkeyInfo@CvActionInfo@@ABEPAVCvHotKeyInfo@@XZ ; CvActionInfo::getHotkeyInfo
	lea	ecx, DWORD PTR [eax+404]
	pop	esi
	jmp	DWORD PTR __imp_?c_str@?$basic_string@DU?$char_traits@D@std@@V?$allocator@D@2@@std@@QBEPBDXZ
$LN1@GetHelp:

; 1343 : 	}
; 1344 : 
; 1345 : 	return "";

	mov	eax, OFFSET $SG219565
	pop	esi

; 1346 : }

	ret	0
?GetHelp@CvActionInfo@@QBEPBDXZ ENDP			; CvActionInfo::GetHelp
_TEXT	ENDS
PUBLIC	?GetDisabledHelp@CvActionInfo@@QBEPBDXZ		; CvActionInfo::GetDisabledHelp
; Function compile flags: /Ogtpy
;	COMDAT ?GetDisabledHelp@CvActionInfo@@QBEPBDXZ
_TEXT	SEGMENT
?GetDisabledHelp@CvActionInfo@@QBEPBDXZ PROC		; CvActionInfo::GetDisabledHelp, COMDAT
; _this$ = ecx

; 1349 : {

	push	esi
	mov	esi, ecx

; 1350 : 	if(getHotkeyInfo())

	call	?getHotkeyInfo@CvActionInfo@@ABEPAVCvHotKeyInfo@@XZ ; CvActionInfo::getHotkeyInfo
	test	eax, eax
	je	SHORT $LN1@GetDisable

; 1351 : 	{
; 1352 : 		return getHotkeyInfo()->getDisabledHelp();

	mov	ecx, esi
	call	?getHotkeyInfo@CvActionInfo@@ABEPAVCvHotKeyInfo@@XZ ; CvActionInfo::getHotkeyInfo
	lea	ecx, DWORD PTR [eax+432]
	pop	esi
	jmp	DWORD PTR __imp_?c_str@?$basic_string@DU?$char_traits@D@std@@V?$allocator@D@2@@std@@QBEPBDXZ
$LN1@GetDisable:

; 1353 : 	}
; 1354 : 
; 1355 : 	return "";

	mov	eax, OFFSET $SG219570
	pop	esi

; 1356 : }

	ret	0
?GetDisabledHelp@CvActionInfo@@QBEPBDXZ ENDP		; CvActionInfo::GetDisabledHelp
_TEXT	ENDS
PUBLIC	?GetTextKey@CvActionInfo@@QBEPBDXZ		; CvActionInfo::GetTextKey
; Function compile flags: /Ogtpy
;	COMDAT ?GetTextKey@CvActionInfo@@QBEPBDXZ
_TEXT	SEGMENT
?GetTextKey@CvActionInfo@@QBEPBDXZ PROC			; CvActionInfo::GetTextKey, COMDAT
; _this$ = ecx

; 1369 : {

	push	esi
	mov	esi, ecx

; 1370 : 	if(getHotkeyInfo())

	call	?getHotkeyInfo@CvActionInfo@@ABEPAVCvHotKeyInfo@@XZ ; CvActionInfo::getHotkeyInfo
	test	eax, eax
	je	SHORT $LN1@GetTextKey@2

; 1371 : 	{
; 1372 : 		return getHotkeyInfo()->GetTextKey();

	mov	ecx, esi
	call	?getHotkeyInfo@CvActionInfo@@ABEPAVCvHotKeyInfo@@XZ ; CvActionInfo::getHotkeyInfo
	lea	esi, DWORD PTR [eax+204]
	mov	ecx, esi
	call	DWORD PTR __imp_?empty@?$basic_string@DU?$char_traits@D@std@@V?$allocator@D@2@@std@@QBE_NXZ
	test	al, al
	jne	SHORT $LN1@GetTextKey@2
	mov	ecx, esi
	pop	esi
	jmp	DWORD PTR __imp_?c_str@?$basic_string@DU?$char_traits@D@std@@V?$allocator@D@2@@std@@QBEPBDXZ
$LN1@GetTextKey@2:

; 1373 : 	}
; 1374 : 
; 1375 : 	return NULL;

	xor	eax, eax
	pop	esi

; 1376 : }

	ret	0
?GetTextKey@CvActionInfo@@QBEPBDXZ ENDP			; CvActionInfo::GetTextKey
_TEXT	ENDS
PUBLIC	?getActionInfoIndex@CvActionInfo@@QBEHXZ	; CvActionInfo::getActionInfoIndex
; Function compile flags: /Ogtpy
;	COMDAT ?getActionInfoIndex@CvActionInfo@@QBEHXZ
_TEXT	SEGMENT
?getActionInfoIndex@CvActionInfo@@QBEHXZ PROC		; CvActionInfo::getActionInfoIndex, COMDAT
; _this$ = ecx

; 1379 : {

	push	esi
	mov	esi, ecx

; 1380 : 	if(getHotkeyInfo())

	call	?getHotkeyInfo@CvActionInfo@@ABEPAVCvHotKeyInfo@@XZ ; CvActionInfo::getHotkeyInfo
	test	eax, eax
	je	SHORT $LN1@getActionI

; 1381 : 	{
; 1382 : 		return getHotkeyInfo()->getActionInfoIndex();

	mov	ecx, esi
	call	?getHotkeyInfo@CvActionInfo@@ABEPAVCvHotKeyInfo@@XZ ; CvActionInfo::getHotkeyInfo
	mov	eax, DWORD PTR [eax+260]
	pop	esi

; 1386 : }

	ret	0
$LN1@getActionI:

; 1383 : 	}
; 1384 : 
; 1385 : 	return -1;

	or	eax, -1
	pop	esi

; 1386 : }

	ret	0
?getActionInfoIndex@CvActionInfo@@QBEHXZ ENDP		; CvActionInfo::getActionInfoIndex
_TEXT	ENDS
PUBLIC	?getHotKeyVal@CvActionInfo@@QBEHXZ		; CvActionInfo::getHotKeyVal
; Function compile flags: /Ogtpy
;	COMDAT ?getHotKeyVal@CvActionInfo@@QBEHXZ
_TEXT	SEGMENT
?getHotKeyVal@CvActionInfo@@QBEHXZ PROC			; CvActionInfo::getHotKeyVal, COMDAT
; _this$ = ecx

; 1389 : {

	push	esi
	mov	esi, ecx

; 1390 : 	if(getHotkeyInfo())

	call	?getHotkeyInfo@CvActionInfo@@ABEPAVCvHotKeyInfo@@XZ ; CvActionInfo::getHotkeyInfo
	test	eax, eax
	je	SHORT $LN1@getHotKeyV

; 1391 : 	{
; 1392 : 		return getHotkeyInfo()->getHotKeyVal();

	mov	ecx, esi
	call	?getHotkeyInfo@CvActionInfo@@ABEPAVCvHotKeyInfo@@XZ ; CvActionInfo::getHotkeyInfo
	mov	eax, DWORD PTR [eax+264]
	pop	esi

; 1396 : }

	ret	0
$LN1@getHotKeyV:

; 1393 : 	}
; 1394 : 
; 1395 : 	return -1;

	or	eax, -1
	pop	esi

; 1396 : }

	ret	0
?getHotKeyVal@CvActionInfo@@QBEHXZ ENDP			; CvActionInfo::getHotKeyVal
_TEXT	ENDS
PUBLIC	?getHotKeyPriority@CvActionInfo@@QBEHXZ		; CvActionInfo::getHotKeyPriority
; Function compile flags: /Ogtpy
;	COMDAT ?getHotKeyPriority@CvActionInfo@@QBEHXZ
_TEXT	SEGMENT
?getHotKeyPriority@CvActionInfo@@QBEHXZ PROC		; CvActionInfo::getHotKeyPriority, COMDAT
; _this$ = ecx

; 1399 : {

	push	esi
	mov	esi, ecx

; 1400 : 	if(getHotkeyInfo())

	call	?getHotkeyInfo@CvActionInfo@@ABEPAVCvHotKeyInfo@@XZ ; CvActionInfo::getHotkeyInfo
	test	eax, eax
	je	SHORT $LN1@getHotKeyP

; 1401 : 	{
; 1402 : 		return getHotkeyInfo()->getHotKeyPriority();

	mov	ecx, esi
	call	?getHotkeyInfo@CvActionInfo@@ABEPAVCvHotKeyInfo@@XZ ; CvActionInfo::getHotkeyInfo
	mov	eax, DWORD PTR [eax+268]
	pop	esi

; 1406 : }

	ret	0
$LN1@getHotKeyP:

; 1403 : 	}
; 1404 : 
; 1405 : 	return -1;

	or	eax, -1
	pop	esi

; 1406 : }

	ret	0
?getHotKeyPriority@CvActionInfo@@QBEHXZ ENDP		; CvActionInfo::getHotKeyPriority
_TEXT	ENDS
PUBLIC	?getHotKeyValAlt@CvActionInfo@@QBEHXZ		; CvActionInfo::getHotKeyValAlt
; Function compile flags: /Ogtpy
;	COMDAT ?getHotKeyValAlt@CvActionInfo@@QBEHXZ
_TEXT	SEGMENT
?getHotKeyValAlt@CvActionInfo@@QBEHXZ PROC		; CvActionInfo::getHotKeyValAlt, COMDAT
; _this$ = ecx

; 1409 : {

	push	esi
	mov	esi, ecx

; 1410 : 	if(getHotkeyInfo())

	call	?getHotkeyInfo@CvActionInfo@@ABEPAVCvHotKeyInfo@@XZ ; CvActionInfo::getHotkeyInfo
	test	eax, eax
	je	SHORT $LN1@getHotKeyV@2

; 1411 : 	{
; 1412 : 		return getHotkeyInfo()->getHotKeyValAlt();

	mov	ecx, esi
	call	?getHotkeyInfo@CvActionInfo@@ABEPAVCvHotKeyInfo@@XZ ; CvActionInfo::getHotkeyInfo
	mov	eax, DWORD PTR [eax+272]
	pop	esi

; 1416 : }

	ret	0
$LN1@getHotKeyV@2:

; 1413 : 	}
; 1414 : 
; 1415 : 	return -1;

	or	eax, -1
	pop	esi

; 1416 : }

	ret	0
?getHotKeyValAlt@CvActionInfo@@QBEHXZ ENDP		; CvActionInfo::getHotKeyValAlt
_TEXT	ENDS
PUBLIC	?getHotKeyPriorityAlt@CvActionInfo@@QBEHXZ	; CvActionInfo::getHotKeyPriorityAlt
; Function compile flags: /Ogtpy
;	COMDAT ?getHotKeyPriorityAlt@CvActionInfo@@QBEHXZ
_TEXT	SEGMENT
?getHotKeyPriorityAlt@CvActionInfo@@QBEHXZ PROC		; CvActionInfo::getHotKeyPriorityAlt, COMDAT
; _this$ = ecx

; 1419 : {

	push	esi
	mov	esi, ecx

; 1420 : 	if(getHotkeyInfo())

	call	?getHotkeyInfo@CvActionInfo@@ABEPAVCvHotKeyInfo@@XZ ; CvActionInfo::getHotkeyInfo
	test	eax, eax
	je	SHORT $LN1@getHotKeyP@2

; 1421 : 	{
; 1422 : 		return getHotkeyInfo()->getHotKeyPriorityAlt();

	mov	ecx, esi
	call	?getHotkeyInfo@CvActionInfo@@ABEPAVCvHotKeyInfo@@XZ ; CvActionInfo::getHotkeyInfo
	mov	eax, DWORD PTR [eax+276]
	pop	esi

; 1426 : }

	ret	0
$LN1@getHotKeyP@2:

; 1423 : 	}
; 1424 : 
; 1425 : 	return -1;

	or	eax, -1
	pop	esi

; 1426 : }

	ret	0
?getHotKeyPriorityAlt@CvActionInfo@@QBEHXZ ENDP		; CvActionInfo::getHotKeyPriorityAlt
_TEXT	ENDS
PUBLIC	?getOrderPriority@CvActionInfo@@QBEHXZ		; CvActionInfo::getOrderPriority
; Function compile flags: /Ogtpy
;	COMDAT ?getOrderPriority@CvActionInfo@@QBEHXZ
_TEXT	SEGMENT
?getOrderPriority@CvActionInfo@@QBEHXZ PROC		; CvActionInfo::getOrderPriority, COMDAT
; _this$ = ecx

; 1429 : {

	push	esi
	mov	esi, ecx

; 1430 : 	if(getHotkeyInfo())

	call	?getHotkeyInfo@CvActionInfo@@ABEPAVCvHotKeyInfo@@XZ ; CvActionInfo::getHotkeyInfo
	test	eax, eax
	je	SHORT $LN1@getOrderPr

; 1431 : 	{
; 1432 : 		return getHotkeyInfo()->getOrderPriority();

	mov	ecx, esi
	call	?getHotkeyInfo@CvActionInfo@@ABEPAVCvHotKeyInfo@@XZ ; CvActionInfo::getHotkeyInfo
	mov	eax, DWORD PTR [eax+280]
	pop	esi

; 1436 : }

	ret	0
$LN1@getOrderPr:

; 1433 : 	}
; 1434 : 
; 1435 : 	return -1;

	or	eax, -1
	pop	esi

; 1436 : }

	ret	0
?getOrderPriority@CvActionInfo@@QBEHXZ ENDP		; CvActionInfo::getOrderPriority
_TEXT	ENDS
PUBLIC	?isAltDown@CvActionInfo@@QBE_NXZ		; CvActionInfo::isAltDown
; Function compile flags: /Ogtpy
;	COMDAT ?isAltDown@CvActionInfo@@QBE_NXZ
_TEXT	SEGMENT
?isAltDown@CvActionInfo@@QBE_NXZ PROC			; CvActionInfo::isAltDown, COMDAT
; _this$ = ecx

; 1439 : {

	push	esi
	mov	esi, ecx

; 1440 : 	if(getHotkeyInfo())

	call	?getHotkeyInfo@CvActionInfo@@ABEPAVCvHotKeyInfo@@XZ ; CvActionInfo::getHotkeyInfo
	test	eax, eax
	je	SHORT $LN1@isAltDown

; 1441 : 	{
; 1442 : 		return getHotkeyInfo()->isAltDown();

	mov	ecx, esi
	call	?getHotkeyInfo@CvActionInfo@@ABEPAVCvHotKeyInfo@@XZ ; CvActionInfo::getHotkeyInfo
	mov	al, BYTE PTR [eax+284]
	pop	esi

; 1446 : }

	ret	0
$LN1@isAltDown:

; 1443 : 	}
; 1444 : 
; 1445 : 	return false;

	xor	al, al
	pop	esi

; 1446 : }

	ret	0
?isAltDown@CvActionInfo@@QBE_NXZ ENDP			; CvActionInfo::isAltDown
_TEXT	ENDS
PUBLIC	?isShiftDown@CvActionInfo@@QBE_NXZ		; CvActionInfo::isShiftDown
; Function compile flags: /Ogtpy
;	COMDAT ?isShiftDown@CvActionInfo@@QBE_NXZ
_TEXT	SEGMENT
?isShiftDown@CvActionInfo@@QBE_NXZ PROC			; CvActionInfo::isShiftDown, COMDAT
; _this$ = ecx

; 1449 : {

	push	esi
	mov	esi, ecx

; 1450 : 	if(getHotkeyInfo())

	call	?getHotkeyInfo@CvActionInfo@@ABEPAVCvHotKeyInfo@@XZ ; CvActionInfo::getHotkeyInfo
	test	eax, eax
	je	SHORT $LN1@isShiftDow

; 1451 : 	{
; 1452 : 		return getHotkeyInfo()->isShiftDown();

	mov	ecx, esi
	call	?getHotkeyInfo@CvActionInfo@@ABEPAVCvHotKeyInfo@@XZ ; CvActionInfo::getHotkeyInfo
	mov	al, BYTE PTR [eax+285]
	pop	esi

; 1456 : }

	ret	0
$LN1@isShiftDow:

; 1453 : 	}
; 1454 : 
; 1455 : 	return false;

	xor	al, al
	pop	esi

; 1456 : }

	ret	0
?isShiftDown@CvActionInfo@@QBE_NXZ ENDP			; CvActionInfo::isShiftDown
_TEXT	ENDS
PUBLIC	?isCtrlDown@CvActionInfo@@QBE_NXZ		; CvActionInfo::isCtrlDown
; Function compile flags: /Ogtpy
;	COMDAT ?isCtrlDown@CvActionInfo@@QBE_NXZ
_TEXT	SEGMENT
?isCtrlDown@CvActionInfo@@QBE_NXZ PROC			; CvActionInfo::isCtrlDown, COMDAT
; _this$ = ecx

; 1459 : {

	push	esi
	mov	esi, ecx

; 1460 : 	if(getHotkeyInfo())

	call	?getHotkeyInfo@CvActionInfo@@ABEPAVCvHotKeyInfo@@XZ ; CvActionInfo::getHotkeyInfo
	test	eax, eax
	je	SHORT $LN1@isCtrlDown

; 1461 : 	{
; 1462 : 		return getHotkeyInfo()->isCtrlDown();

	mov	ecx, esi
	call	?getHotkeyInfo@CvActionInfo@@ABEPAVCvHotKeyInfo@@XZ ; CvActionInfo::getHotkeyInfo
	mov	al, BYTE PTR [eax+286]
	pop	esi

; 1466 : }

	ret	0
$LN1@isCtrlDown:

; 1463 : 	}
; 1464 : 
; 1465 : 	return false;

	xor	al, al
	pop	esi

; 1466 : }

	ret	0
?isCtrlDown@CvActionInfo@@QBE_NXZ ENDP			; CvActionInfo::isCtrlDown
_TEXT	ENDS
PUBLIC	?isAltDownAlt@CvActionInfo@@QBE_NXZ		; CvActionInfo::isAltDownAlt
; Function compile flags: /Ogtpy
;	COMDAT ?isAltDownAlt@CvActionInfo@@QBE_NXZ
_TEXT	SEGMENT
?isAltDownAlt@CvActionInfo@@QBE_NXZ PROC		; CvActionInfo::isAltDownAlt, COMDAT
; _this$ = ecx

; 1469 : {

	push	esi
	mov	esi, ecx

; 1470 : 	if(getHotkeyInfo())

	call	?getHotkeyInfo@CvActionInfo@@ABEPAVCvHotKeyInfo@@XZ ; CvActionInfo::getHotkeyInfo
	test	eax, eax
	je	SHORT $LN1@isAltDownA

; 1471 : 	{
; 1472 : 		return getHotkeyInfo()->isAltDownAlt();

	mov	ecx, esi
	call	?getHotkeyInfo@CvActionInfo@@ABEPAVCvHotKeyInfo@@XZ ; CvActionInfo::getHotkeyInfo
	mov	al, BYTE PTR [eax+287]
	pop	esi

; 1476 : }

	ret	0
$LN1@isAltDownA:

; 1473 : 	}
; 1474 : 
; 1475 : 	return false;

	xor	al, al
	pop	esi

; 1476 : }

	ret	0
?isAltDownAlt@CvActionInfo@@QBE_NXZ ENDP		; CvActionInfo::isAltDownAlt
_TEXT	ENDS
PUBLIC	?isShiftDownAlt@CvActionInfo@@QBE_NXZ		; CvActionInfo::isShiftDownAlt
; Function compile flags: /Ogtpy
;	COMDAT ?isShiftDownAlt@CvActionInfo@@QBE_NXZ
_TEXT	SEGMENT
?isShiftDownAlt@CvActionInfo@@QBE_NXZ PROC		; CvActionInfo::isShiftDownAlt, COMDAT
; _this$ = ecx

; 1479 : {

	push	esi
	mov	esi, ecx

; 1480 : 	if(getHotkeyInfo())

	call	?getHotkeyInfo@CvActionInfo@@ABEPAVCvHotKeyInfo@@XZ ; CvActionInfo::getHotkeyInfo
	test	eax, eax
	je	SHORT $LN1@isShiftDow@2

; 1481 : 	{
; 1482 : 		return getHotkeyInfo()->isShiftDownAlt();

	mov	ecx, esi
	call	?getHotkeyInfo@CvActionInfo@@ABEPAVCvHotKeyInfo@@XZ ; CvActionInfo::getHotkeyInfo
	mov	al, BYTE PTR [eax+288]
	pop	esi

; 1486 : }

	ret	0
$LN1@isShiftDow@2:

; 1483 : 	}
; 1484 : 
; 1485 : 	return false;

	xor	al, al
	pop	esi

; 1486 : }

	ret	0
?isShiftDownAlt@CvActionInfo@@QBE_NXZ ENDP		; CvActionInfo::isShiftDownAlt
_TEXT	ENDS
PUBLIC	?isCtrlDownAlt@CvActionInfo@@QBE_NXZ		; CvActionInfo::isCtrlDownAlt
; Function compile flags: /Ogtpy
;	COMDAT ?isCtrlDownAlt@CvActionInfo@@QBE_NXZ
_TEXT	SEGMENT
?isCtrlDownAlt@CvActionInfo@@QBE_NXZ PROC		; CvActionInfo::isCtrlDownAlt, COMDAT
; _this$ = ecx

; 1489 : {

	push	esi
	mov	esi, ecx

; 1490 : 	if(getHotkeyInfo())

	call	?getHotkeyInfo@CvActionInfo@@ABEPAVCvHotKeyInfo@@XZ ; CvActionInfo::getHotkeyInfo
	test	eax, eax
	je	SHORT $LN1@isCtrlDown@2

; 1491 : 	{
; 1492 : 		return getHotkeyInfo()->isCtrlDownAlt();

	mov	ecx, esi
	call	?getHotkeyInfo@CvActionInfo@@ABEPAVCvHotKeyInfo@@XZ ; CvActionInfo::getHotkeyInfo
	mov	al, BYTE PTR [eax+289]
	pop	esi

; 1496 : }

	ret	0
$LN1@isCtrlDown@2:

; 1493 : 	}
; 1494 : 
; 1495 : 	return false;

	xor	al, al
	pop	esi

; 1496 : }

	ret	0
?isCtrlDownAlt@CvActionInfo@@QBE_NXZ ENDP		; CvActionInfo::isCtrlDownAlt
_TEXT	ENDS
PUBLIC	?getHotKeyString@CvActionInfo@@QBEPBDXZ		; CvActionInfo::getHotKeyString
; Function compile flags: /Ogtpy
;	COMDAT ?getHotKeyString@CvActionInfo@@QBEPBDXZ
_TEXT	SEGMENT
?getHotKeyString@CvActionInfo@@QBEPBDXZ PROC		; CvActionInfo::getHotKeyString, COMDAT
; _this$ = ecx

; 1519 : {

	push	esi
	mov	esi, ecx

; 1520 : 	if(getHotkeyInfo())

	call	?getHotkeyInfo@CvActionInfo@@ABEPAVCvHotKeyInfo@@XZ ; CvActionInfo::getHotkeyInfo
	test	eax, eax
	je	SHORT $LN1@getHotKeyS

; 1521 : 	{
; 1522 : 		return getHotkeyInfo()->getHotKeyString();

	mov	ecx, esi
	call	?getHotkeyInfo@CvActionInfo@@ABEPAVCvHotKeyInfo@@XZ ; CvActionInfo::getHotkeyInfo
	lea	ecx, DWORD PTR [eax+376]
	pop	esi
	jmp	DWORD PTR __imp_?c_str@?$basic_string@DU?$char_traits@D@std@@V?$allocator@D@2@@std@@QBEPBDXZ
$LN1@getHotKeyS:

; 1523 : 	}
; 1524 : 
; 1525 : 	return "";

	mov	eax, OFFSET $SG219643
	pop	esi

; 1526 : }

	ret	0
?getHotKeyString@CvActionInfo@@QBEPBDXZ ENDP		; CvActionInfo::getHotKeyString
_TEXT	ENDS
PUBLIC	?IsRequiresNavalUnitConsistency@CvMultiUnitFormationInfo@@QBE_NXZ ; CvMultiUnitFormationInfo::IsRequiresNavalUnitConsistency
; Function compile flags: /Ogtpy
;	COMDAT ?IsRequiresNavalUnitConsistency@CvMultiUnitFormationInfo@@QBE_NXZ
_TEXT	SEGMENT
?IsRequiresNavalUnitConsistency@CvMultiUnitFormationInfo@@QBE_NXZ PROC ; CvMultiUnitFormationInfo::IsRequiresNavalUnitConsistency, COMDAT
; _this$ = ecx

; 1543 : 	return m_bRequiresNavalUnitConsistency;

	mov	al, BYTE PTR [ecx+304]

; 1544 : }

	ret	0
?IsRequiresNavalUnitConsistency@CvMultiUnitFormationInfo@@QBE_NXZ ENDP ; CvMultiUnitFormationInfo::IsRequiresNavalUnitConsistency
_TEXT	ENDS
PUBLIC	?isValid@CvSpecialUnitInfo@@QBE_NXZ		; CvSpecialUnitInfo::isValid
; Function compile flags: /Ogtpy
;	COMDAT ?isValid@CvSpecialUnitInfo@@QBE_NXZ
_TEXT	SEGMENT
?isValid@CvSpecialUnitInfo@@QBE_NXZ PROC		; CvSpecialUnitInfo::isValid, COMDAT
; _this$ = ecx

; 1615 : 	return m_bValid;

	mov	al, BYTE PTR [ecx+260]

; 1616 : }

	ret	0
?isValid@CvSpecialUnitInfo@@QBE_NXZ ENDP		; CvSpecialUnitInfo::isValid
_TEXT	ENDS
PUBLIC	?isCityLoad@CvSpecialUnitInfo@@QBE_NXZ		; CvSpecialUnitInfo::isCityLoad
; Function compile flags: /Ogtpy
;	COMDAT ?isCityLoad@CvSpecialUnitInfo@@QBE_NXZ
_TEXT	SEGMENT
?isCityLoad@CvSpecialUnitInfo@@QBE_NXZ PROC		; CvSpecialUnitInfo::isCityLoad, COMDAT
; _this$ = ecx

; 1620 : 	return m_bCityLoad;

	mov	al, BYTE PTR [ecx+261]

; 1621 : }

	ret	0
?isCityLoad@CvSpecialUnitInfo@@QBE_NXZ ENDP		; CvSpecialUnitInfo::isCityLoad
_TEXT	ENDS
PUBLIC	?isCarrierUnitAIType@CvSpecialUnitInfo@@QBE_NH@Z ; CvSpecialUnitInfo::isCarrierUnitAIType
; Function compile flags: /Ogtpy
;	COMDAT ?isCarrierUnitAIType@CvSpecialUnitInfo@@QBE_NH@Z
_TEXT	SEGMENT
_i$ = 8							; size = 4
?isCarrierUnitAIType@CvSpecialUnitInfo@@QBE_NH@Z PROC	; CvSpecialUnitInfo::isCarrierUnitAIType, COMDAT
; _this$ = ecx

; 1625 : 	CvAssertMsg(i < NUM_UNITAI_TYPES, "Index out of bounds");
; 1626 : 	CvAssertMsg(i > -1, "Index out of bounds");
; 1627 : 	return m_pbCarrierUnitAITypes ? m_pbCarrierUnitAITypes[i] : -1;

	mov	eax, DWORD PTR [ecx+264]
	test	eax, eax
	je	SHORT $LN3@isCarrierU
	mov	ecx, DWORD PTR _i$[esp-4]
	movzx	eax, BYTE PTR [eax+ecx]
	test	eax, eax
	setne	al

; 1628 : }

	ret	4
$LN3@isCarrierU:

; 1625 : 	CvAssertMsg(i < NUM_UNITAI_TYPES, "Index out of bounds");
; 1626 : 	CvAssertMsg(i > -1, "Index out of bounds");
; 1627 : 	return m_pbCarrierUnitAITypes ? m_pbCarrierUnitAITypes[i] : -1;

	or	eax, -1
	test	eax, eax
	setne	al

; 1628 : }

	ret	4
?isCarrierUnitAIType@CvSpecialUnitInfo@@QBE_NH@Z ENDP	; CvSpecialUnitInfo::isCarrierUnitAIType
_TEXT	ENDS
PUBLIC	?getProductionTraits@CvSpecialUnitInfo@@QBEHH@Z	; CvSpecialUnitInfo::getProductionTraits
; Function compile flags: /Ogtpy
;	COMDAT ?getProductionTraits@CvSpecialUnitInfo@@QBEHH@Z
_TEXT	SEGMENT
_i$ = 8							; size = 4
?getProductionTraits@CvSpecialUnitInfo@@QBEHH@Z PROC	; CvSpecialUnitInfo::getProductionTraits, COMDAT
; _this$ = ecx

; 1632 : 	CvAssertMsg(i < GC.getNumTraitInfos(), "Index out of bounds");
; 1633 : 	CvAssertMsg(i > -1, "Index out of bounds");
; 1634 : 	return m_piProductionTraits ? m_piProductionTraits[i] : -1;

	mov	eax, DWORD PTR [ecx+268]
	test	eax, eax
	je	SHORT $LN3@getProduct
	mov	ecx, DWORD PTR _i$[esp-4]
	mov	eax, DWORD PTR [eax+ecx*4]

; 1635 : }

	ret	4
$LN3@getProduct:

; 1632 : 	CvAssertMsg(i < GC.getNumTraitInfos(), "Index out of bounds");
; 1633 : 	CvAssertMsg(i > -1, "Index out of bounds");
; 1634 : 	return m_piProductionTraits ? m_piProductionTraits[i] : -1;

	or	eax, -1

; 1635 : }

	ret	4
?getProductionTraits@CvSpecialUnitInfo@@QBEHH@Z ENDP	; CvSpecialUnitInfo::getProductionTraits
_TEXT	ENDS
PUBLIC	?getMaxGlobalInstances@CvUnitClassInfo@@QBEHXZ	; CvUnitClassInfo::getMaxGlobalInstances
; Function compile flags: /Ogtpy
;	COMDAT ?getMaxGlobalInstances@CvUnitClassInfo@@QBEHXZ
_TEXT	SEGMENT
?getMaxGlobalInstances@CvUnitClassInfo@@QBEHXZ PROC	; CvUnitClassInfo::getMaxGlobalInstances, COMDAT
; _this$ = ecx

; 1666 : 	return m_iMaxGlobalInstances;

	mov	eax, DWORD PTR [ecx+260]

; 1667 : }

	ret	0
?getMaxGlobalInstances@CvUnitClassInfo@@QBEHXZ ENDP	; CvUnitClassInfo::getMaxGlobalInstances
_TEXT	ENDS
PUBLIC	?getMaxTeamInstances@CvUnitClassInfo@@QBEHXZ	; CvUnitClassInfo::getMaxTeamInstances
; Function compile flags: /Ogtpy
;	COMDAT ?getMaxTeamInstances@CvUnitClassInfo@@QBEHXZ
_TEXT	SEGMENT
?getMaxTeamInstances@CvUnitClassInfo@@QBEHXZ PROC	; CvUnitClassInfo::getMaxTeamInstances, COMDAT
; _this$ = ecx

; 1671 : 	return m_iMaxTeamInstances;

	mov	eax, DWORD PTR [ecx+264]

; 1672 : }

	ret	0
?getMaxTeamInstances@CvUnitClassInfo@@QBEHXZ ENDP	; CvUnitClassInfo::getMaxTeamInstances
_TEXT	ENDS
PUBLIC	?getMaxPlayerInstances@CvUnitClassInfo@@QBEHXZ	; CvUnitClassInfo::getMaxPlayerInstances
; Function compile flags: /Ogtpy
;	COMDAT ?getMaxPlayerInstances@CvUnitClassInfo@@QBEHXZ
_TEXT	SEGMENT
?getMaxPlayerInstances@CvUnitClassInfo@@QBEHXZ PROC	; CvUnitClassInfo::getMaxPlayerInstances, COMDAT
; _this$ = ecx

; 1676 : 	return m_iMaxPlayerInstances;

	mov	eax, DWORD PTR [ecx+268]

; 1677 : }

	ret	0
?getMaxPlayerInstances@CvUnitClassInfo@@QBEHXZ ENDP	; CvUnitClassInfo::getMaxPlayerInstances
_TEXT	ENDS
PUBLIC	?getInstanceCostModifier@CvUnitClassInfo@@QBEHXZ ; CvUnitClassInfo::getInstanceCostModifier
; Function compile flags: /Ogtpy
;	COMDAT ?getInstanceCostModifier@CvUnitClassInfo@@QBEHXZ
_TEXT	SEGMENT
?getInstanceCostModifier@CvUnitClassInfo@@QBEHXZ PROC	; CvUnitClassInfo::getInstanceCostModifier, COMDAT
; _this$ = ecx

; 1681 : 	return m_iInstanceCostModifier;

	mov	eax, DWORD PTR [ecx+272]

; 1682 : }

	ret	0
?getInstanceCostModifier@CvUnitClassInfo@@QBEHXZ ENDP	; CvUnitClassInfo::getInstanceCostModifier
_TEXT	ENDS
PUBLIC	?getDefaultUnitIndex@CvUnitClassInfo@@QBEHXZ	; CvUnitClassInfo::getDefaultUnitIndex
; Function compile flags: /Ogtpy
;	COMDAT ?getDefaultUnitIndex@CvUnitClassInfo@@QBEHXZ
_TEXT	SEGMENT
?getDefaultUnitIndex@CvUnitClassInfo@@QBEHXZ PROC	; CvUnitClassInfo::getDefaultUnitIndex, COMDAT
; _this$ = ecx

; 1686 : 	return m_iDefaultUnitIndex;

	mov	eax, DWORD PTR [ecx+276]

; 1687 : }

	ret	0
?getDefaultUnitIndex@CvUnitClassInfo@@QBEHXZ ENDP	; CvUnitClassInfo::getDefaultUnitIndex
_TEXT	ENDS
PUBLIC	?setDefaultUnitIndex@CvUnitClassInfo@@QAEXH@Z	; CvUnitClassInfo::setDefaultUnitIndex
; Function compile flags: /Ogtpy
;	COMDAT ?setDefaultUnitIndex@CvUnitClassInfo@@QAEXH@Z
_TEXT	SEGMENT
_i$ = 8							; size = 4
?setDefaultUnitIndex@CvUnitClassInfo@@QAEXH@Z PROC	; CvUnitClassInfo::setDefaultUnitIndex, COMDAT
; _this$ = ecx

; 1691 : 	m_iDefaultUnitIndex = i;

	mov	eax, DWORD PTR _i$[esp-4]
	mov	DWORD PTR [ecx+276], eax

; 1692 : }

	ret	4
?setDefaultUnitIndex@CvUnitClassInfo@@QAEXH@Z ENDP	; CvUnitClassInfo::setDefaultUnitIndex
_TEXT	ENDS
PUBLIC	?getMaxGlobalInstances@CvBuildingClassInfo@@QBEHXZ ; CvBuildingClassInfo::getMaxGlobalInstances
; Function compile flags: /Ogtpy
;	COMDAT ?getMaxGlobalInstances@CvBuildingClassInfo@@QBEHXZ
_TEXT	SEGMENT
?getMaxGlobalInstances@CvBuildingClassInfo@@QBEHXZ PROC	; CvBuildingClassInfo::getMaxGlobalInstances, COMDAT
; _this$ = ecx

; 1731 : 	return m_iMaxGlobalInstances;

	mov	eax, DWORD PTR [ecx+260]

; 1732 : }

	ret	0
?getMaxGlobalInstances@CvBuildingClassInfo@@QBEHXZ ENDP	; CvBuildingClassInfo::getMaxGlobalInstances
_TEXT	ENDS
PUBLIC	?getMaxTeamInstances@CvBuildingClassInfo@@QBEHXZ ; CvBuildingClassInfo::getMaxTeamInstances
; Function compile flags: /Ogtpy
;	COMDAT ?getMaxTeamInstances@CvBuildingClassInfo@@QBEHXZ
_TEXT	SEGMENT
?getMaxTeamInstances@CvBuildingClassInfo@@QBEHXZ PROC	; CvBuildingClassInfo::getMaxTeamInstances, COMDAT
; _this$ = ecx

; 1736 : 	return m_iMaxTeamInstances;

	mov	eax, DWORD PTR [ecx+264]

; 1737 : }

	ret	0
?getMaxTeamInstances@CvBuildingClassInfo@@QBEHXZ ENDP	; CvBuildingClassInfo::getMaxTeamInstances
_TEXT	ENDS
PUBLIC	?getMaxPlayerInstances@CvBuildingClassInfo@@QBEHXZ ; CvBuildingClassInfo::getMaxPlayerInstances
; Function compile flags: /Ogtpy
;	COMDAT ?getMaxPlayerInstances@CvBuildingClassInfo@@QBEHXZ
_TEXT	SEGMENT
?getMaxPlayerInstances@CvBuildingClassInfo@@QBEHXZ PROC	; CvBuildingClassInfo::getMaxPlayerInstances, COMDAT
; _this$ = ecx

; 1741 : 	return m_iMaxPlayerInstances;

	mov	eax, DWORD PTR [ecx+268]

; 1742 : }

	ret	0
?getMaxPlayerInstances@CvBuildingClassInfo@@QBEHXZ ENDP	; CvBuildingClassInfo::getMaxPlayerInstances
_TEXT	ENDS
PUBLIC	?getExtraPlayerInstances@CvBuildingClassInfo@@QBEHXZ ; CvBuildingClassInfo::getExtraPlayerInstances
; Function compile flags: /Ogtpy
;	COMDAT ?getExtraPlayerInstances@CvBuildingClassInfo@@QBEHXZ
_TEXT	SEGMENT
?getExtraPlayerInstances@CvBuildingClassInfo@@QBEHXZ PROC ; CvBuildingClassInfo::getExtraPlayerInstances, COMDAT
; _this$ = ecx

; 1746 : 	return m_iExtraPlayerInstances;

	mov	eax, DWORD PTR [ecx+272]

; 1747 : }

	ret	0
?getExtraPlayerInstances@CvBuildingClassInfo@@QBEHXZ ENDP ; CvBuildingClassInfo::getExtraPlayerInstances
_TEXT	ENDS
PUBLIC	?getDefaultBuildingIndex@CvBuildingClassInfo@@QBEHXZ ; CvBuildingClassInfo::getDefaultBuildingIndex
; Function compile flags: /Ogtpy
;	COMDAT ?getDefaultBuildingIndex@CvBuildingClassInfo@@QBEHXZ
_TEXT	SEGMENT
?getDefaultBuildingIndex@CvBuildingClassInfo@@QBEHXZ PROC ; CvBuildingClassInfo::getDefaultBuildingIndex, COMDAT
; _this$ = ecx

; 1751 : 	return m_iDefaultBuildingIndex;

	mov	eax, DWORD PTR [ecx+276]

; 1752 : }

	ret	0
?getDefaultBuildingIndex@CvBuildingClassInfo@@QBEHXZ ENDP ; CvBuildingClassInfo::getDefaultBuildingIndex
_TEXT	ENDS
PUBLIC	?setDefaultBuildingIndex@CvBuildingClassInfo@@QAEXH@Z ; CvBuildingClassInfo::setDefaultBuildingIndex
; Function compile flags: /Ogtpy
;	COMDAT ?setDefaultBuildingIndex@CvBuildingClassInfo@@QAEXH@Z
_TEXT	SEGMENT
_i$ = 8							; size = 4
?setDefaultBuildingIndex@CvBuildingClassInfo@@QAEXH@Z PROC ; CvBuildingClassInfo::setDefaultBuildingIndex, COMDAT
; _this$ = ecx

; 1756 : 	m_iDefaultBuildingIndex = i;

	mov	eax, DWORD PTR _i$[esp-4]
	mov	DWORD PTR [ecx+276], eax

; 1757 : }

	ret	4
?setDefaultBuildingIndex@CvBuildingClassInfo@@QAEXH@Z ENDP ; CvBuildingClassInfo::setDefaultBuildingIndex
_TEXT	ENDS
PUBLIC	?isNoLimit@CvBuildingClassInfo@@QBE_NXZ		; CvBuildingClassInfo::isNoLimit
; Function compile flags: /Ogtpy
;	COMDAT ?isNoLimit@CvBuildingClassInfo@@QBE_NXZ
_TEXT	SEGMENT
?isNoLimit@CvBuildingClassInfo@@QBE_NXZ PROC		; CvBuildingClassInfo::isNoLimit, COMDAT
; _this$ = ecx

; 1761 : 	return m_bNoLimit;

	mov	al, BYTE PTR [ecx+280]

; 1762 : }

	ret	0
?isNoLimit@CvBuildingClassInfo@@QBE_NXZ ENDP		; CvBuildingClassInfo::isNoLimit
_TEXT	ENDS
PUBLIC	?isMonument@CvBuildingClassInfo@@QBE_NXZ	; CvBuildingClassInfo::isMonument
; Function compile flags: /Ogtpy
;	COMDAT ?isMonument@CvBuildingClassInfo@@QBE_NXZ
_TEXT	SEGMENT
?isMonument@CvBuildingClassInfo@@QBE_NXZ PROC		; CvBuildingClassInfo::isMonument, COMDAT
; _this$ = ecx

; 1766 : 	return m_bMonument;

	mov	al, BYTE PTR [ecx+281]

; 1767 : }

	ret	0
?isMonument@CvBuildingClassInfo@@QBE_NXZ ENDP		; CvBuildingClassInfo::isMonument
_TEXT	ENDS
PUBLIC	?getVictoryThreshold@CvBuildingClassInfo@@QBEHH@Z ; CvBuildingClassInfo::getVictoryThreshold
; Function compile flags: /Ogtpy
;	COMDAT ?getVictoryThreshold@CvBuildingClassInfo@@QBEHH@Z
_TEXT	SEGMENT
_i$ = 8							; size = 4
?getVictoryThreshold@CvBuildingClassInfo@@QBEHH@Z PROC	; CvBuildingClassInfo::getVictoryThreshold, COMDAT
; _this$ = ecx

; 1771 : 	CvAssertMsg(i < GC.getNumVictoryInfos(), "Index out of bounds");
; 1772 : 	CvAssertMsg(i > -1, "Index out of bounds");
; 1773 : 	return m_piVictoryThreshold ? m_piVictoryThreshold[i] : -1;

	mov	eax, DWORD PTR [ecx+284]
	test	eax, eax
	je	SHORT $LN3@getVictory
	mov	ecx, DWORD PTR _i$[esp-4]
	mov	eax, DWORD PTR [eax+ecx*4]

; 1774 : }

	ret	4
$LN3@getVictory:

; 1771 : 	CvAssertMsg(i < GC.getNumVictoryInfos(), "Index out of bounds");
; 1772 : 	CvAssertMsg(i > -1, "Index out of bounds");
; 1773 : 	return m_piVictoryThreshold ? m_piVictoryThreshold[i] : -1;

	or	eax, -1

; 1774 : }

	ret	4
?getVictoryThreshold@CvBuildingClassInfo@@QBEHH@Z ENDP	; CvBuildingClassInfo::getVictoryThreshold
_TEXT	ENDS
PUBLIC	?isAIPlayable@CvCivilizationBaseInfo@@QBE_NXZ	; CvCivilizationBaseInfo::isAIPlayable
; Function compile flags: /Ogtpy
;	COMDAT ?isAIPlayable@CvCivilizationBaseInfo@@QBE_NXZ
_TEXT	SEGMENT
?isAIPlayable@CvCivilizationBaseInfo@@QBE_NXZ PROC	; CvCivilizationBaseInfo::isAIPlayable, COMDAT
; _this$ = ecx

; 1923 : 	return m_bAIPlayable;

	mov	al, BYTE PTR [ecx+260]

; 1924 : }

	ret	0
?isAIPlayable@CvCivilizationBaseInfo@@QBE_NXZ ENDP	; CvCivilizationBaseInfo::isAIPlayable
_TEXT	ENDS
PUBLIC	?isPlayable@CvCivilizationBaseInfo@@QBE_NXZ	; CvCivilizationBaseInfo::isPlayable
; Function compile flags: /Ogtpy
;	COMDAT ?isPlayable@CvCivilizationBaseInfo@@QBE_NXZ
_TEXT	SEGMENT
?isPlayable@CvCivilizationBaseInfo@@QBE_NXZ PROC	; CvCivilizationBaseInfo::isPlayable, COMDAT
; _this$ = ecx

; 1928 : 	return m_bPlayable;

	mov	al, BYTE PTR [ecx+261]

; 1929 : }

	ret	0
?isPlayable@CvCivilizationBaseInfo@@QBE_NXZ ENDP	; CvCivilizationBaseInfo::isPlayable
_TEXT	ENDS
PUBLIC	?getShortDescription@CvCivilizationBaseInfo@@QBEPBDXZ ; CvCivilizationBaseInfo::getShortDescription
; Function compile flags: /Ogtpy
;	COMDAT ?getShortDescription@CvCivilizationBaseInfo@@QBEPBDXZ
_TEXT	SEGMENT
?getShortDescription@CvCivilizationBaseInfo@@QBEPBDXZ PROC ; CvCivilizationBaseInfo::getShortDescription, COMDAT
; _this$ = ecx

; 1933 : 	return m_strShortDescription.c_str();

	add	ecx, 264				; 00000108H
	jmp	DWORD PTR __imp_?c_str@?$basic_string@DU?$char_traits@D@std@@V?$allocator@D@2@@std@@QBEPBDXZ
?getShortDescription@CvCivilizationBaseInfo@@QBEPBDXZ ENDP ; CvCivilizationBaseInfo::getShortDescription
_TEXT	ENDS
PUBLIC	?getShortDescriptionKey@CvCivilizationBaseInfo@@QBEPBDXZ ; CvCivilizationBaseInfo::getShortDescriptionKey
; Function compile flags: /Ogtpy
;	COMDAT ?getShortDescriptionKey@CvCivilizationBaseInfo@@QBEPBDXZ
_TEXT	SEGMENT
?getShortDescriptionKey@CvCivilizationBaseInfo@@QBEPBDXZ PROC ; CvCivilizationBaseInfo::getShortDescriptionKey, COMDAT
; _this$ = ecx

; 1944 : 	return m_strShortDescriptionKey.c_str();

	add	ecx, 292				; 00000124H
	jmp	DWORD PTR __imp_?c_str@?$basic_string@DU?$char_traits@D@std@@V?$allocator@D@2@@std@@QBEPBDXZ
?getShortDescriptionKey@CvCivilizationBaseInfo@@QBEPBDXZ ENDP ; CvCivilizationBaseInfo::getShortDescriptionKey
_TEXT	ENDS
PUBLIC	?getPackageID@CvCivilizationBaseInfo@@QBEABU_GUID@@XZ ; CvCivilizationBaseInfo::getPackageID
; Function compile flags: /Ogtpy
;	COMDAT ?getPackageID@CvCivilizationBaseInfo@@QBEABU_GUID@@XZ
_TEXT	SEGMENT
?getPackageID@CvCivilizationBaseInfo@@QBEABU_GUID@@XZ PROC ; CvCivilizationBaseInfo::getPackageID, COMDAT
; _this$ = ecx

; 1949 : 	return m_kPackageID;

	lea	eax, DWORD PTR [ecx+320]

; 1950 : }

	ret	0
?getPackageID@CvCivilizationBaseInfo@@QBEABU_GUID@@XZ ENDP ; CvCivilizationBaseInfo::getPackageID
_TEXT	ENDS
PUBLIC	?getDefaultPlayerColor@CvCivilizationInfo@@QBEHXZ ; CvCivilizationInfo::getDefaultPlayerColor
; Function compile flags: /Ogtpy
;	COMDAT ?getDefaultPlayerColor@CvCivilizationInfo@@QBEHXZ
_TEXT	SEGMENT
?getDefaultPlayerColor@CvCivilizationInfo@@QBEHXZ PROC	; CvCivilizationInfo::getDefaultPlayerColor, COMDAT
; _this$ = ecx

; 2066 : 	return m_iDefaultPlayerColor;

	mov	eax, DWORD PTR [ecx+336]

; 2067 : }

	ret	0
?getDefaultPlayerColor@CvCivilizationInfo@@QBEHXZ ENDP	; CvCivilizationInfo::getDefaultPlayerColor
_TEXT	ENDS
PUBLIC	?getArtStyleType@CvCivilizationInfo@@QBEHXZ	; CvCivilizationInfo::getArtStyleType
; Function compile flags: /Ogtpy
;	COMDAT ?getArtStyleType@CvCivilizationInfo@@QBEHXZ
_TEXT	SEGMENT
?getArtStyleType@CvCivilizationInfo@@QBEHXZ PROC	; CvCivilizationInfo::getArtStyleType, COMDAT
; _this$ = ecx

; 2071 : 	return m_iArtStyleType;

	mov	eax, DWORD PTR [ecx+340]

; 2072 : }

	ret	0
?getArtStyleType@CvCivilizationInfo@@QBEHXZ ENDP	; CvCivilizationInfo::getArtStyleType
_TEXT	ENDS
PUBLIC	?getArtStyleSuffix@CvCivilizationInfo@@QBEPBDXZ	; CvCivilizationInfo::getArtStyleSuffix
; Function compile flags: /Ogtpy
;	COMDAT ?getArtStyleSuffix@CvCivilizationInfo@@QBEPBDXZ
_TEXT	SEGMENT
?getArtStyleSuffix@CvCivilizationInfo@@QBEPBDXZ PROC	; CvCivilizationInfo::getArtStyleSuffix, COMDAT
; _this$ = ecx

; 2076 : 	return m_strArtStyleSuffix.c_str();

	add	ecx, 404				; 00000194H
	jmp	DWORD PTR __imp_?c_str@?$basic_string@DU?$char_traits@D@std@@V?$allocator@D@2@@std@@QBEPBDXZ
?getArtStyleSuffix@CvCivilizationInfo@@QBEPBDXZ ENDP	; CvCivilizationInfo::getArtStyleSuffix
_TEXT	ENDS
PUBLIC	?getArtStylePrefix@CvCivilizationInfo@@QBEPBDXZ	; CvCivilizationInfo::getArtStylePrefix
; Function compile flags: /Ogtpy
;	COMDAT ?getArtStylePrefix@CvCivilizationInfo@@QBEPBDXZ
_TEXT	SEGMENT
?getArtStylePrefix@CvCivilizationInfo@@QBEPBDXZ PROC	; CvCivilizationInfo::getArtStylePrefix, COMDAT
; _this$ = ecx

; 2081 : 	return m_strArtStylePrefix.c_str();

	add	ecx, 376				; 00000178H
	jmp	DWORD PTR __imp_?c_str@?$basic_string@DU?$char_traits@D@std@@V?$allocator@D@2@@std@@QBEPBDXZ
?getArtStylePrefix@CvCivilizationInfo@@QBEPBDXZ ENDP	; CvCivilizationInfo::getArtStylePrefix
_TEXT	ENDS
PUBLIC	?getNumLeaders@CvCivilizationInfo@@QBEHXZ	; CvCivilizationInfo::getNumLeaders
; Function compile flags: /Ogtpy
;	COMDAT ?getNumLeaders@CvCivilizationInfo@@QBEHXZ
_TEXT	SEGMENT
?getNumLeaders@CvCivilizationInfo@@QBEHXZ PROC		; CvCivilizationInfo::getNumLeaders, COMDAT
; _this$ = ecx

; 2097 : 	// the number of leaders the Civ has, this is needed so that random leaders can be generated easily
; 2098 : 	return m_iNumLeaders;

	mov	eax, DWORD PTR [ecx+344]

; 2099 : }

	ret	0
?getNumLeaders@CvCivilizationInfo@@QBEHXZ ENDP		; CvCivilizationInfo::getNumLeaders
_TEXT	ENDS
PUBLIC	?GetDawnOfManAudio@CvCivilizationInfo@@QBEPBDXZ	; CvCivilizationInfo::GetDawnOfManAudio
; Function compile flags: /Ogtpy
;	COMDAT ?GetDawnOfManAudio@CvCivilizationInfo@@QBEPBDXZ
_TEXT	SEGMENT
?GetDawnOfManAudio@CvCivilizationInfo@@QBEPBDXZ PROC	; CvCivilizationInfo::GetDawnOfManAudio, COMDAT
; _this$ = ecx

; 2103 : 	return m_strDawnOfManAudio.c_str();

	add	ecx, 488				; 000001e8H
	jmp	DWORD PTR __imp_?c_str@?$basic_string@DU?$char_traits@D@std@@V?$allocator@D@2@@std@@QBEPBDXZ
?GetDawnOfManAudio@CvCivilizationInfo@@QBEPBDXZ ENDP	; CvCivilizationInfo::GetDawnOfManAudio
_TEXT	ENDS
PUBLIC	?getSoundtrackKey@CvCivilizationInfo@@QBEPBDXZ	; CvCivilizationInfo::getSoundtrackKey
; Function compile flags: /Ogtpy
;	COMDAT ?getSoundtrackKey@CvCivilizationInfo@@QBEPBDXZ
_TEXT	SEGMENT
?getSoundtrackKey@CvCivilizationInfo@@QBEPBDXZ PROC	; CvCivilizationInfo::getSoundtrackKey, COMDAT
; _this$ = ecx

; 2108 : 	return m_strSoundtrackKey.c_str();

	add	ecx, 516				; 00000204H
	jmp	DWORD PTR __imp_?c_str@?$basic_string@DU?$char_traits@D@std@@V?$allocator@D@2@@std@@QBEPBDXZ
?getSoundtrackKey@CvCivilizationInfo@@QBEPBDXZ ENDP	; CvCivilizationInfo::getSoundtrackKey
_TEXT	ENDS
PUBLIC	?getAdjective@CvCivilizationInfo@@QBEPBDXZ	; CvCivilizationInfo::getAdjective
; Function compile flags: /Ogtpy
;	COMDAT ?getAdjective@CvCivilizationInfo@@QBEPBDXZ
_TEXT	SEGMENT
?getAdjective@CvCivilizationInfo@@QBEPBDXZ PROC		; CvCivilizationInfo::getAdjective, COMDAT
; _this$ = ecx

; 2114 : 	return m_strAdjective.c_str();

	add	ecx, 432				; 000001b0H
	jmp	DWORD PTR __imp_?c_str@?$basic_string@DU?$char_traits@D@std@@V?$allocator@D@2@@std@@QBEPBDXZ
?getAdjective@CvCivilizationInfo@@QBEPBDXZ ENDP		; CvCivilizationInfo::getAdjective
_TEXT	ENDS
PUBLIC	?getAdjectiveKey@CvCivilizationInfo@@QBEPBDXZ	; CvCivilizationInfo::getAdjectiveKey
; Function compile flags: /Ogtpy
;	COMDAT ?getAdjectiveKey@CvCivilizationInfo@@QBEPBDXZ
_TEXT	SEGMENT
?getAdjectiveKey@CvCivilizationInfo@@QBEPBDXZ PROC	; CvCivilizationInfo::getAdjectiveKey, COMDAT
; _this$ = ecx

; 2125 : 	return m_strAdjectiveKey.c_str();

	add	ecx, 460				; 000001ccH
	jmp	DWORD PTR __imp_?c_str@?$basic_string@DU?$char_traits@D@std@@V?$allocator@D@2@@std@@QBEPBDXZ
?getAdjectiveKey@CvCivilizationInfo@@QBEPBDXZ ENDP	; CvCivilizationInfo::getAdjectiveKey
_TEXT	ENDS
PUBLIC	?getFlagTexture@CvCivilizationInfo@@QBEPBDXZ	; CvCivilizationInfo::getFlagTexture
; Function compile flags: /Ogtpy
;	COMDAT ?getFlagTexture@CvCivilizationInfo@@QBEPBDXZ
_TEXT	SEGMENT
?getFlagTexture@CvCivilizationInfo@@QBEPBDXZ PROC	; CvCivilizationInfo::getFlagTexture, COMDAT
; _this$ = ecx

; 2130 : 	return NULL;

	xor	eax, eax

; 2131 : }

	ret	0
?getFlagTexture@CvCivilizationInfo@@QBEPBDXZ ENDP	; CvCivilizationInfo::getFlagTexture
_TEXT	ENDS
PUBLIC	?getArtDefineTag@CvCivilizationInfo@@QBEPBDXZ	; CvCivilizationInfo::getArtDefineTag
; Function compile flags: /Ogtpy
;	COMDAT ?getArtDefineTag@CvCivilizationInfo@@QBEPBDXZ
_TEXT	SEGMENT
?getArtDefineTag@CvCivilizationInfo@@QBEPBDXZ PROC	; CvCivilizationInfo::getArtDefineTag, COMDAT
; _this$ = ecx

; 2135 : 	return m_strArtDefineTag.c_str();

	add	ecx, 348				; 0000015cH
	jmp	DWORD PTR __imp_?c_str@?$basic_string@DU?$char_traits@D@std@@V?$allocator@D@2@@std@@QBEPBDXZ
?getArtDefineTag@CvCivilizationInfo@@QBEPBDXZ ENDP	; CvCivilizationInfo::getArtDefineTag
_TEXT	ENDS
PUBLIC	?GetReligion@CvCivilizationInfo@@QBE?AW4ReligionTypes@@XZ ; CvCivilizationInfo::GetReligion
EXTRN	?getNumReligionInfos@CvGlobals@@QAEHXZ:PROC	; CvGlobals::getNumReligionInfos
; Function compile flags: /Ogtpy
;	COMDAT ?GetReligion@CvCivilizationInfo@@QBE?AW4ReligionTypes@@XZ
_TEXT	SEGMENT
?GetReligion@CvCivilizationInfo@@QBE?AW4ReligionTypes@@XZ PROC ; CvCivilizationInfo::GetReligion, COMDAT
; _this$ = ecx

; 2154 : {

	push	esi
	push	edi
	mov	edi, ecx

; 2155 : 	// Only one per civ supported now
; 2156 : #ifdef AUI_WARNING_FIXES
; 2157 : 	for (uint iI = 0; iI < GC.getNumReligionInfos(); iI++)
; 2158 : #else
; 2159 : 	for(int iI = 0; iI < GC.getNumReligionInfos(); iI++)

	mov	ecx, OFFSET ?gGlobals@@3VCvGlobals@@A	; gGlobals
	xor	esi, esi
	call	?getNumReligionInfos@CvGlobals@@QAEHXZ	; CvGlobals::getNumReligionInfos
	test	eax, eax
	jle	SHORT $LN2@GetReligio
$LL4@GetReligio:

; 2160 : #endif
; 2161 : 	{
; 2162 : 		if(m_pbReligions[iI])

	mov	eax, DWORD PTR [edi+576]
	cmp	BYTE PTR [esi+eax], 0
	jne	SHORT $LN8@GetReligio
	mov	ecx, OFFSET ?gGlobals@@3VCvGlobals@@A	; gGlobals
	inc	esi
	call	?getNumReligionInfos@CvGlobals@@QAEHXZ	; CvGlobals::getNumReligionInfos
	cmp	esi, eax
	jl	SHORT $LL4@GetReligio
$LN2@GetReligio:
	pop	edi

; 2165 : 		}
; 2166 : 	}
; 2167 : 	return NO_RELIGION;

	or	eax, -1
	pop	esi

; 2168 : }

	ret	0
$LN8@GetReligio:
	pop	edi

; 2163 : 		{
; 2164 : 			return (ReligionTypes)iI;

	mov	eax, esi
	pop	esi

; 2168 : }

	ret	0
?GetReligion@CvCivilizationInfo@@QBE?AW4ReligionTypes@@XZ ENDP ; CvCivilizationInfo::GetReligion
_TEXT	ENDS
PUBLIC	?getCivilizationBuildings@CvCivilizationInfo@@QBEHH@Z ; CvCivilizationInfo::getCivilizationBuildings
; Function compile flags: /Ogtpy
;	COMDAT ?getCivilizationBuildings@CvCivilizationInfo@@QBEHH@Z
_TEXT	SEGMENT
_i$ = 8							; size = 4
?getCivilizationBuildings@CvCivilizationInfo@@QBEHH@Z PROC ; CvCivilizationInfo::getCivilizationBuildings, COMDAT
; _this$ = ecx

; 2172 : 	CvAssertMsg(i < GC.getNumBuildingClassInfos(), "Index out of bounds");
; 2173 : 	CvAssertMsg(i > -1, "Index out of bounds");
; 2174 : 	return m_piCivilizationBuildings ? m_piCivilizationBuildings[i] : -1;

	mov	eax, DWORD PTR [ecx+544]
	test	eax, eax
	je	SHORT $LN3@getCiviliz
	mov	ecx, DWORD PTR _i$[esp-4]
	mov	eax, DWORD PTR [eax+ecx*4]

; 2175 : }

	ret	4
$LN3@getCiviliz:

; 2172 : 	CvAssertMsg(i < GC.getNumBuildingClassInfos(), "Index out of bounds");
; 2173 : 	CvAssertMsg(i > -1, "Index out of bounds");
; 2174 : 	return m_piCivilizationBuildings ? m_piCivilizationBuildings[i] : -1;

	or	eax, -1

; 2175 : }

	ret	4
?getCivilizationBuildings@CvCivilizationInfo@@QBEHH@Z ENDP ; CvCivilizationInfo::getCivilizationBuildings
_TEXT	ENDS
PUBLIC	?getCivilizationUnits@CvCivilizationInfo@@QBEHH@Z ; CvCivilizationInfo::getCivilizationUnits
; Function compile flags: /Ogtpy
;	COMDAT ?getCivilizationUnits@CvCivilizationInfo@@QBEHH@Z
_TEXT	SEGMENT
_i$ = 8							; size = 4
?getCivilizationUnits@CvCivilizationInfo@@QBEHH@Z PROC	; CvCivilizationInfo::getCivilizationUnits, COMDAT
; _this$ = ecx

; 2179 : 	CvAssertMsg(i < GC.getNumUnitClassInfos(), "Index out of bounds");
; 2180 : 	CvAssertMsg(i > -1, "Index out of bounds");
; 2181 : 	return m_piCivilizationUnits ? m_piCivilizationUnits[i] : -1;

	mov	eax, DWORD PTR [ecx+548]
	test	eax, eax
	je	SHORT $LN3@getCiviliz@2
	mov	ecx, DWORD PTR _i$[esp-4]
	mov	eax, DWORD PTR [eax+ecx*4]

; 2182 : }

	ret	4
$LN3@getCiviliz@2:

; 2179 : 	CvAssertMsg(i < GC.getNumUnitClassInfos(), "Index out of bounds");
; 2180 : 	CvAssertMsg(i > -1, "Index out of bounds");
; 2181 : 	return m_piCivilizationUnits ? m_piCivilizationUnits[i] : -1;

	or	eax, -1

; 2182 : }

	ret	4
?getCivilizationUnits@CvCivilizationInfo@@QBEHH@Z ENDP	; CvCivilizationInfo::getCivilizationUnits
_TEXT	ENDS
PUBLIC	?getCivilizationFreeUnitsClass@CvCivilizationInfo@@QBEHH@Z ; CvCivilizationInfo::getCivilizationFreeUnitsClass
; Function compile flags: /Ogtpy
;	COMDAT ?getCivilizationFreeUnitsClass@CvCivilizationInfo@@QBEHH@Z
_TEXT	SEGMENT
_i$ = 8							; size = 4
?getCivilizationFreeUnitsClass@CvCivilizationInfo@@QBEHH@Z PROC ; CvCivilizationInfo::getCivilizationFreeUnitsClass, COMDAT
; _this$ = ecx

; 2200 : 	CvAssertMsg(i < GC.getNumUnitClassInfos(), "Index out of bounds");
; 2201 : 	CvAssertMsg(i > -1, "Index out of bounds");
; 2202 : 	return m_piCivilizationFreeUnitsClass ? m_piCivilizationFreeUnitsClass[i] : -1;

	mov	eax, DWORD PTR [ecx+552]
	test	eax, eax
	je	SHORT $LN3@getCiviliz@3
	mov	ecx, DWORD PTR _i$[esp-4]
	mov	eax, DWORD PTR [eax+ecx*4]

; 2203 : }

	ret	4
$LN3@getCiviliz@3:

; 2200 : 	CvAssertMsg(i < GC.getNumUnitClassInfos(), "Index out of bounds");
; 2201 : 	CvAssertMsg(i > -1, "Index out of bounds");
; 2202 : 	return m_piCivilizationFreeUnitsClass ? m_piCivilizationFreeUnitsClass[i] : -1;

	or	eax, -1

; 2203 : }

	ret	4
?getCivilizationFreeUnitsClass@CvCivilizationInfo@@QBEHH@Z ENDP ; CvCivilizationInfo::getCivilizationFreeUnitsClass
_TEXT	ENDS
PUBLIC	?getCivilizationFreeUnitsDefaultUnitAI@CvCivilizationInfo@@QBEHH@Z ; CvCivilizationInfo::getCivilizationFreeUnitsDefaultUnitAI
; Function compile flags: /Ogtpy
;	COMDAT ?getCivilizationFreeUnitsDefaultUnitAI@CvCivilizationInfo@@QBEHH@Z
_TEXT	SEGMENT
_i$ = 8							; size = 4
?getCivilizationFreeUnitsDefaultUnitAI@CvCivilizationInfo@@QBEHH@Z PROC ; CvCivilizationInfo::getCivilizationFreeUnitsDefaultUnitAI, COMDAT
; _this$ = ecx

; 2207 : 	CvAssertMsg(i < GC.getNumUnitClassInfos(), "Index out of bounds");
; 2208 : 	CvAssertMsg(i > -1, "Index out of bounds");
; 2209 : 	return m_piCivilizationFreeUnitsDefaultUnitAI ? m_piCivilizationFreeUnitsDefaultUnitAI[i] : -1;

	mov	eax, DWORD PTR [ecx+556]
	test	eax, eax
	je	SHORT $LN3@getCiviliz@4
	mov	ecx, DWORD PTR _i$[esp-4]
	mov	eax, DWORD PTR [eax+ecx*4]

; 2210 : }

	ret	4
$LN3@getCiviliz@4:

; 2207 : 	CvAssertMsg(i < GC.getNumUnitClassInfos(), "Index out of bounds");
; 2208 : 	CvAssertMsg(i > -1, "Index out of bounds");
; 2209 : 	return m_piCivilizationFreeUnitsDefaultUnitAI ? m_piCivilizationFreeUnitsDefaultUnitAI[i] : -1;

	or	eax, -1

; 2210 : }

	ret	4
?getCivilizationFreeUnitsDefaultUnitAI@CvCivilizationInfo@@QBEHH@Z ENDP ; CvCivilizationInfo::getCivilizationFreeUnitsDefaultUnitAI
_TEXT	ENDS
PUBLIC	?isLeaders@CvCivilizationInfo@@QBE_NH@Z		; CvCivilizationInfo::isLeaders
; Function compile flags: /Ogtpy
;	COMDAT ?isLeaders@CvCivilizationInfo@@QBE_NH@Z
_TEXT	SEGMENT
_i$ = 8							; size = 4
?isLeaders@CvCivilizationInfo@@QBE_NH@Z PROC		; CvCivilizationInfo::isLeaders, COMDAT
; _this$ = ecx

; 2214 : 	CvAssertMsg(i < GC.getNumLeaderHeadInfos(), "Index out of bounds");
; 2215 : 	CvAssertMsg(i > -1, "Index out of bounds");
; 2216 : 	return m_pbLeaders ? m_pbLeaders[i] : false;

	mov	eax, DWORD PTR [ecx+560]
	test	eax, eax
	je	SHORT $LN3@isLeaders
	mov	ecx, DWORD PTR _i$[esp-4]
	mov	al, BYTE PTR [eax+ecx]

; 2217 : }

	ret	4
$LN3@isLeaders:

; 2214 : 	CvAssertMsg(i < GC.getNumLeaderHeadInfos(), "Index out of bounds");
; 2215 : 	CvAssertMsg(i > -1, "Index out of bounds");
; 2216 : 	return m_pbLeaders ? m_pbLeaders[i] : false;

	xor	al, al

; 2217 : }

	ret	4
?isLeaders@CvCivilizationInfo@@QBE_NH@Z ENDP		; CvCivilizationInfo::isLeaders
_TEXT	ENDS
PUBLIC	?isCivilizationFreeBuildingClass@CvCivilizationInfo@@QBE_NH@Z ; CvCivilizationInfo::isCivilizationFreeBuildingClass
; Function compile flags: /Ogtpy
;	COMDAT ?isCivilizationFreeBuildingClass@CvCivilizationInfo@@QBE_NH@Z
_TEXT	SEGMENT
_i$ = 8							; size = 4
?isCivilizationFreeBuildingClass@CvCivilizationInfo@@QBE_NH@Z PROC ; CvCivilizationInfo::isCivilizationFreeBuildingClass, COMDAT
; _this$ = ecx

; 2221 : 	CvAssertMsg(i < GC.getNumBuildingClassInfos(), "Index out of bounds");
; 2222 : 	CvAssertMsg(i > -1, "Index out of bounds");
; 2223 : 	return m_pbCivilizationFreeBuildingClass ? m_pbCivilizationFreeBuildingClass[i] : false;

	mov	eax, DWORD PTR [ecx+564]
	test	eax, eax
	je	SHORT $LN3@isCiviliza
	mov	ecx, DWORD PTR _i$[esp-4]
	mov	al, BYTE PTR [eax+ecx]

; 2224 : }

	ret	4
$LN3@isCiviliza:

; 2221 : 	CvAssertMsg(i < GC.getNumBuildingClassInfos(), "Index out of bounds");
; 2222 : 	CvAssertMsg(i > -1, "Index out of bounds");
; 2223 : 	return m_pbCivilizationFreeBuildingClass ? m_pbCivilizationFreeBuildingClass[i] : false;

	xor	al, al

; 2224 : }

	ret	4
?isCivilizationFreeBuildingClass@CvCivilizationInfo@@QBE_NH@Z ENDP ; CvCivilizationInfo::isCivilizationFreeBuildingClass
_TEXT	ENDS
PUBLIC	?isCivilizationFreeTechs@CvCivilizationInfo@@QBE_NH@Z ; CvCivilizationInfo::isCivilizationFreeTechs
; Function compile flags: /Ogtpy
;	COMDAT ?isCivilizationFreeTechs@CvCivilizationInfo@@QBE_NH@Z
_TEXT	SEGMENT
_i$ = 8							; size = 4
?isCivilizationFreeTechs@CvCivilizationInfo@@QBE_NH@Z PROC ; CvCivilizationInfo::isCivilizationFreeTechs, COMDAT
; _this$ = ecx

; 2228 : 	CvAssertMsg(i < GC.getNumTechInfos(), "Index out of bounds");
; 2229 : 	CvAssertMsg(i > -1, "Index out of bounds");
; 2230 : 	return m_pbCivilizationFreeTechs ? m_pbCivilizationFreeTechs[i] : false;

	mov	eax, DWORD PTR [ecx+568]
	test	eax, eax
	je	SHORT $LN3@isCiviliza@2
	mov	ecx, DWORD PTR _i$[esp-4]
	mov	al, BYTE PTR [eax+ecx]

; 2231 : }

	ret	4
$LN3@isCiviliza@2:

; 2228 : 	CvAssertMsg(i < GC.getNumTechInfos(), "Index out of bounds");
; 2229 : 	CvAssertMsg(i > -1, "Index out of bounds");
; 2230 : 	return m_pbCivilizationFreeTechs ? m_pbCivilizationFreeTechs[i] : false;

	xor	al, al

; 2231 : }

	ret	4
?isCivilizationFreeTechs@CvCivilizationInfo@@QBE_NH@Z ENDP ; CvCivilizationInfo::isCivilizationFreeTechs
_TEXT	ENDS
PUBLIC	?isCivilizationDisableTechs@CvCivilizationInfo@@QBE_NH@Z ; CvCivilizationInfo::isCivilizationDisableTechs
; Function compile flags: /Ogtpy
;	COMDAT ?isCivilizationDisableTechs@CvCivilizationInfo@@QBE_NH@Z
_TEXT	SEGMENT
_i$ = 8							; size = 4
?isCivilizationDisableTechs@CvCivilizationInfo@@QBE_NH@Z PROC ; CvCivilizationInfo::isCivilizationDisableTechs, COMDAT
; _this$ = ecx

; 2235 : 	CvAssertMsg(i < GC.getNumTechInfos(), "Index out of bounds");
; 2236 : 	CvAssertMsg(i > -1, "Index out of bounds");
; 2237 : 	return m_pbCivilizationDisableTechs ? m_pbCivilizationDisableTechs[i] : false;

	mov	eax, DWORD PTR [ecx+572]
	test	eax, eax
	je	SHORT $LN3@isCiviliza@3
	mov	ecx, DWORD PTR _i$[esp-4]
	mov	al, BYTE PTR [eax+ecx]

; 2238 : }

	ret	4
$LN3@isCiviliza@3:

; 2235 : 	CvAssertMsg(i < GC.getNumTechInfos(), "Index out of bounds");
; 2236 : 	CvAssertMsg(i > -1, "Index out of bounds");
; 2237 : 	return m_pbCivilizationDisableTechs ? m_pbCivilizationDisableTechs[i] : false;

	xor	al, al

; 2238 : }

	ret	4
?isCivilizationDisableTechs@CvCivilizationInfo@@QBE_NH@Z ENDP ; CvCivilizationInfo::isCivilizationDisableTechs
_TEXT	ENDS
PUBLIC	?isCoastalCiv@CvCivilizationInfo@@QBE_NXZ	; CvCivilizationInfo::isCoastalCiv
; Function compile flags: /Ogtpy
;	COMDAT ?isCoastalCiv@CvCivilizationInfo@@QBE_NXZ
_TEXT	SEGMENT
?isCoastalCiv@CvCivilizationInfo@@QBE_NXZ PROC		; CvCivilizationInfo::isCoastalCiv, COMDAT
; _this$ = ecx

; 2252 : 	return m_bCoastalCiv;

	mov	al, BYTE PTR [ecx+580]

; 2253 : }

	ret	0
?isCoastalCiv@CvCivilizationInfo@@QBE_NXZ ENDP		; CvCivilizationInfo::isCoastalCiv
_TEXT	ENDS
PUBLIC	?isFirstCoastalStart@CvCivilizationInfo@@QBE_NXZ ; CvCivilizationInfo::isFirstCoastalStart
; Function compile flags: /Ogtpy
;	COMDAT ?isFirstCoastalStart@CvCivilizationInfo@@QBE_NXZ
_TEXT	SEGMENT
?isFirstCoastalStart@CvCivilizationInfo@@QBE_NXZ PROC	; CvCivilizationInfo::isFirstCoastalStart, COMDAT
; _this$ = ecx

; 2257 : 	return m_bPlaceFirst;

	mov	al, BYTE PTR [ecx+581]

; 2258 : }

	ret	0
?isFirstCoastalStart@CvCivilizationInfo@@QBE_NXZ ENDP	; CvCivilizationInfo::isFirstCoastalStart
_TEXT	ENDS
PUBLIC	?getPopulationPercentLead@CvVictoryInfo@@QBEHXZ	; CvVictoryInfo::getPopulationPercentLead
; Function compile flags: /Ogtpy
;	COMDAT ?getPopulationPercentLead@CvVictoryInfo@@QBEHXZ
_TEXT	SEGMENT
?getPopulationPercentLead@CvVictoryInfo@@QBEHXZ PROC	; CvVictoryInfo::getPopulationPercentLead, COMDAT
; _this$ = ecx

; 2530 : 	return m_iPopulationPercentLead;

	mov	eax, DWORD PTR [ecx+260]

; 2531 : }

	ret	0
?getPopulationPercentLead@CvVictoryInfo@@QBEHXZ ENDP	; CvVictoryInfo::getPopulationPercentLead
_TEXT	ENDS
PUBLIC	?getLandPercent@CvVictoryInfo@@QBEHXZ		; CvVictoryInfo::getLandPercent
; Function compile flags: /Ogtpy
;	COMDAT ?getLandPercent@CvVictoryInfo@@QBEHXZ
_TEXT	SEGMENT
?getLandPercent@CvVictoryInfo@@QBEHXZ PROC		; CvVictoryInfo::getLandPercent, COMDAT
; _this$ = ecx

; 2535 : 	return m_iLandPercent;

	mov	eax, DWORD PTR [ecx+264]

; 2536 : }

	ret	0
?getLandPercent@CvVictoryInfo@@QBEHXZ ENDP		; CvVictoryInfo::getLandPercent
_TEXT	ENDS
PUBLIC	?getMinLandPercent@CvVictoryInfo@@QBEHXZ	; CvVictoryInfo::getMinLandPercent
; Function compile flags: /Ogtpy
;	COMDAT ?getMinLandPercent@CvVictoryInfo@@QBEHXZ
_TEXT	SEGMENT
?getMinLandPercent@CvVictoryInfo@@QBEHXZ PROC		; CvVictoryInfo::getMinLandPercent, COMDAT
; _this$ = ecx

; 2540 : 	return m_iMinLandPercent;

	mov	eax, DWORD PTR [ecx+268]

; 2541 : }

	ret	0
?getMinLandPercent@CvVictoryInfo@@QBEHXZ ENDP		; CvVictoryInfo::getMinLandPercent
_TEXT	ENDS
PUBLIC	?getCityCulture@CvVictoryInfo@@QBEHXZ		; CvVictoryInfo::getCityCulture
; Function compile flags: /Ogtpy
;	COMDAT ?getCityCulture@CvVictoryInfo@@QBEHXZ
_TEXT	SEGMENT
?getCityCulture@CvVictoryInfo@@QBEHXZ PROC		; CvVictoryInfo::getCityCulture, COMDAT
; _this$ = ecx

; 2545 : 	return m_iCityCulture;

	mov	eax, DWORD PTR [ecx+272]

; 2546 : }

	ret	0
?getCityCulture@CvVictoryInfo@@QBEHXZ ENDP		; CvVictoryInfo::getCityCulture
_TEXT	ENDS
PUBLIC	?getNumCultureCities@CvVictoryInfo@@QBEHXZ	; CvVictoryInfo::getNumCultureCities
; Function compile flags: /Ogtpy
;	COMDAT ?getNumCultureCities@CvVictoryInfo@@QBEHXZ
_TEXT	SEGMENT
?getNumCultureCities@CvVictoryInfo@@QBEHXZ PROC		; CvVictoryInfo::getNumCultureCities, COMDAT
; _this$ = ecx

; 2550 : 	return m_iNumCultureCities;

	mov	eax, DWORD PTR [ecx+276]

; 2551 : }

	ret	0
?getNumCultureCities@CvVictoryInfo@@QBEHXZ ENDP		; CvVictoryInfo::getNumCultureCities
_TEXT	ENDS
PUBLIC	?getTotalCultureRatio@CvVictoryInfo@@QBEHXZ	; CvVictoryInfo::getTotalCultureRatio
; Function compile flags: /Ogtpy
;	COMDAT ?getTotalCultureRatio@CvVictoryInfo@@QBEHXZ
_TEXT	SEGMENT
?getTotalCultureRatio@CvVictoryInfo@@QBEHXZ PROC	; CvVictoryInfo::getTotalCultureRatio, COMDAT
; _this$ = ecx

; 2555 : 	return m_iTotalCultureRatio;

	mov	eax, DWORD PTR [ecx+280]

; 2556 : }

	ret	0
?getTotalCultureRatio@CvVictoryInfo@@QBEHXZ ENDP	; CvVictoryInfo::getTotalCultureRatio
_TEXT	ENDS
PUBLIC	?getVictoryDelayTurns@CvVictoryInfo@@QBEHXZ	; CvVictoryInfo::getVictoryDelayTurns
; Function compile flags: /Ogtpy
;	COMDAT ?getVictoryDelayTurns@CvVictoryInfo@@QBEHXZ
_TEXT	SEGMENT
?getVictoryDelayTurns@CvVictoryInfo@@QBEHXZ PROC	; CvVictoryInfo::getVictoryDelayTurns, COMDAT
; _this$ = ecx

; 2560 : 	return m_iVictoryDelayTurns;

	mov	eax, DWORD PTR [ecx+284]

; 2561 : }

	ret	0
?getVictoryDelayTurns@CvVictoryInfo@@QBEHXZ ENDP	; CvVictoryInfo::getVictoryDelayTurns
_TEXT	ENDS
PUBLIC	?IsWinsGame@CvVictoryInfo@@QBE_NXZ		; CvVictoryInfo::IsWinsGame
; Function compile flags: /Ogtpy
;	COMDAT ?IsWinsGame@CvVictoryInfo@@QBE_NXZ
_TEXT	SEGMENT
?IsWinsGame@CvVictoryInfo@@QBE_NXZ PROC			; CvVictoryInfo::IsWinsGame, COMDAT
; _this$ = ecx

; 2565 : 	return m_bWinsGame;

	mov	al, BYTE PTR [ecx+288]

; 2566 : }

	ret	0
?IsWinsGame@CvVictoryInfo@@QBE_NXZ ENDP			; CvVictoryInfo::IsWinsGame
_TEXT	ENDS
PUBLIC	?isTargetScore@CvVictoryInfo@@QBE_NXZ		; CvVictoryInfo::isTargetScore
; Function compile flags: /Ogtpy
;	COMDAT ?isTargetScore@CvVictoryInfo@@QBE_NXZ
_TEXT	SEGMENT
?isTargetScore@CvVictoryInfo@@QBE_NXZ PROC		; CvVictoryInfo::isTargetScore, COMDAT
; _this$ = ecx

; 2570 : 	return m_bTargetScore;

	mov	al, BYTE PTR [ecx+289]

; 2571 : }

	ret	0
?isTargetScore@CvVictoryInfo@@QBE_NXZ ENDP		; CvVictoryInfo::isTargetScore
_TEXT	ENDS
PUBLIC	?isEndScore@CvVictoryInfo@@QBE_NXZ		; CvVictoryInfo::isEndScore
; Function compile flags: /Ogtpy
;	COMDAT ?isEndScore@CvVictoryInfo@@QBE_NXZ
_TEXT	SEGMENT
?isEndScore@CvVictoryInfo@@QBE_NXZ PROC			; CvVictoryInfo::isEndScore, COMDAT
; _this$ = ecx

; 2575 : 	return m_bEndScore;

	mov	al, BYTE PTR [ecx+290]

; 2576 : }

	ret	0
?isEndScore@CvVictoryInfo@@QBE_NXZ ENDP			; CvVictoryInfo::isEndScore
_TEXT	ENDS
PUBLIC	?isConquest@CvVictoryInfo@@QBE_NXZ		; CvVictoryInfo::isConquest
; Function compile flags: /Ogtpy
;	COMDAT ?isConquest@CvVictoryInfo@@QBE_NXZ
_TEXT	SEGMENT
?isConquest@CvVictoryInfo@@QBE_NXZ PROC			; CvVictoryInfo::isConquest, COMDAT
; _this$ = ecx

; 2580 : 	return m_bConquest;

	mov	al, BYTE PTR [ecx+291]

; 2581 : }

	ret	0
?isConquest@CvVictoryInfo@@QBE_NXZ ENDP			; CvVictoryInfo::isConquest
_TEXT	ENDS
PUBLIC	?isInfluential@CvVictoryInfo@@QBE_NXZ		; CvVictoryInfo::isInfluential
; Function compile flags: /Ogtpy
;	COMDAT ?isInfluential@CvVictoryInfo@@QBE_NXZ
_TEXT	SEGMENT
?isInfluential@CvVictoryInfo@@QBE_NXZ PROC		; CvVictoryInfo::isInfluential, COMDAT
; _this$ = ecx

; 2585 : 	return m_bInfluential;

	mov	al, BYTE PTR [ecx+292]

; 2586 : }

	ret	0
?isInfluential@CvVictoryInfo@@QBE_NXZ ENDP		; CvVictoryInfo::isInfluential
_TEXT	ENDS
PUBLIC	?isDiploVote@CvVictoryInfo@@QBE_NXZ		; CvVictoryInfo::isDiploVote
; Function compile flags: /Ogtpy
;	COMDAT ?isDiploVote@CvVictoryInfo@@QBE_NXZ
_TEXT	SEGMENT
?isDiploVote@CvVictoryInfo@@QBE_NXZ PROC		; CvVictoryInfo::isDiploVote, COMDAT
; _this$ = ecx

; 2590 : 	return m_bDiploVote;

	mov	al, BYTE PTR [ecx+293]

; 2591 : }

	ret	0
?isDiploVote@CvVictoryInfo@@QBE_NXZ ENDP		; CvVictoryInfo::isDiploVote
_TEXT	ENDS
PUBLIC	?isPermanent@CvVictoryInfo@@QBE_NXZ		; CvVictoryInfo::isPermanent
; Function compile flags: /Ogtpy
;	COMDAT ?isPermanent@CvVictoryInfo@@QBE_NXZ
_TEXT	SEGMENT
?isPermanent@CvVictoryInfo@@QBE_NXZ PROC		; CvVictoryInfo::isPermanent, COMDAT
; _this$ = ecx

; 2595 : 	return m_bPermanent;

	mov	al, BYTE PTR [ecx+294]

; 2596 : }

	ret	0
?isPermanent@CvVictoryInfo@@QBE_NXZ ENDP		; CvVictoryInfo::isPermanent
_TEXT	ENDS
PUBLIC	?IsReligionInAllCities@CvVictoryInfo@@QBE_NXZ	; CvVictoryInfo::IsReligionInAllCities
; Function compile flags: /Ogtpy
;	COMDAT ?IsReligionInAllCities@CvVictoryInfo@@QBE_NXZ
_TEXT	SEGMENT
?IsReligionInAllCities@CvVictoryInfo@@QBE_NXZ PROC	; CvVictoryInfo::IsReligionInAllCities, COMDAT
; _this$ = ecx

; 2600 : 	return m_bReligionInAllCities;

	mov	al, BYTE PTR [ecx+295]

; 2601 : }

	ret	0
?IsReligionInAllCities@CvVictoryInfo@@QBE_NXZ ENDP	; CvVictoryInfo::IsReligionInAllCities
_TEXT	ENDS
PUBLIC	?IsFindAllNaturalWonders@CvVictoryInfo@@QBE_NXZ	; CvVictoryInfo::IsFindAllNaturalWonders
; Function compile flags: /Ogtpy
;	COMDAT ?IsFindAllNaturalWonders@CvVictoryInfo@@QBE_NXZ
_TEXT	SEGMENT
?IsFindAllNaturalWonders@CvVictoryInfo@@QBE_NXZ PROC	; CvVictoryInfo::IsFindAllNaturalWonders, COMDAT
; _this$ = ecx

; 2605 : 	return m_bFindAllNaturalWonders;

	mov	al, BYTE PTR [ecx+296]

; 2606 : }

	ret	0
?IsFindAllNaturalWonders@CvVictoryInfo@@QBE_NXZ ENDP	; CvVictoryInfo::IsFindAllNaturalWonders
_TEXT	ENDS
PUBLIC	?getMovie@CvVictoryInfo@@QBEPBDXZ		; CvVictoryInfo::getMovie
; Function compile flags: /Ogtpy
;	COMDAT ?getMovie@CvVictoryInfo@@QBEPBDXZ
_TEXT	SEGMENT
?getMovie@CvVictoryInfo@@QBEPBDXZ PROC			; CvVictoryInfo::getMovie, COMDAT
; _this$ = ecx

; 2610 : 	return m_strMovie.c_str();

	add	ecx, 300				; 0000012cH
	jmp	DWORD PTR __imp_?c_str@?$basic_string@DU?$char_traits@D@std@@V?$allocator@D@2@@std@@QBEPBDXZ
?getMovie@CvVictoryInfo@@QBEPBDXZ ENDP			; CvVictoryInfo::getMovie
_TEXT	ENDS
PUBLIC	?GetVictoryPointAward@CvVictoryInfo@@QBEHH@Z	; CvVictoryInfo::GetVictoryPointAward
; Function compile flags: /Ogtpy
;	COMDAT ?GetVictoryPointAward@CvVictoryInfo@@QBEHH@Z
_TEXT	SEGMENT
_i$ = 8							; size = 4
?GetVictoryPointAward@CvVictoryInfo@@QBEHH@Z PROC	; CvVictoryInfo::GetVictoryPointAward, COMDAT
; _this$ = ecx

; 2615 : 	return m_piVictoryPointAwards[i];

	mov	eax, DWORD PTR [ecx+328]
	mov	ecx, DWORD PTR _i$[esp-4]
	mov	eax, DWORD PTR [eax+ecx*4]

; 2616 : }

	ret	4
?GetVictoryPointAward@CvVictoryInfo@@QBEHH@Z ENDP	; CvVictoryInfo::GetVictoryPointAward
_TEXT	ENDS
PUBLIC	?GetNumVictoryPoints@CvSmallAwardInfo@@QBEHXZ	; CvSmallAwardInfo::GetNumVictoryPoints
; Function compile flags: /Ogtpy
;	COMDAT ?GetNumVictoryPoints@CvSmallAwardInfo@@QBEHXZ
_TEXT	SEGMENT
?GetNumVictoryPoints@CvSmallAwardInfo@@QBEHXZ PROC	; CvSmallAwardInfo::GetNumVictoryPoints, COMDAT
; _this$ = ecx

; 2694 : 	return m_iNumVictoryPoints;

	mov	eax, DWORD PTR [ecx+316]

; 2695 : }

	ret	0
?GetNumVictoryPoints@CvSmallAwardInfo@@QBEHXZ ENDP	; CvSmallAwardInfo::GetNumVictoryPoints
_TEXT	ENDS
PUBLIC	?GetNumCities@CvSmallAwardInfo@@QBEHXZ		; CvSmallAwardInfo::GetNumCities
; Function compile flags: /Ogtpy
;	COMDAT ?GetNumCities@CvSmallAwardInfo@@QBEHXZ
_TEXT	SEGMENT
?GetNumCities@CvSmallAwardInfo@@QBEHXZ PROC		; CvSmallAwardInfo::GetNumCities, COMDAT
; _this$ = ecx

; 2709 : 	return m_iNumCities;

	mov	eax, DWORD PTR [ecx+320]

; 2710 : }

	ret	0
?GetNumCities@CvSmallAwardInfo@@QBEHXZ ENDP		; CvSmallAwardInfo::GetNumCities
_TEXT	ENDS
PUBLIC	?GetCityPopulation@CvSmallAwardInfo@@QBEHXZ	; CvSmallAwardInfo::GetCityPopulation
; Function compile flags: /Ogtpy
;	COMDAT ?GetCityPopulation@CvSmallAwardInfo@@QBEHXZ
_TEXT	SEGMENT
?GetCityPopulation@CvSmallAwardInfo@@QBEHXZ PROC	; CvSmallAwardInfo::GetCityPopulation, COMDAT
; _this$ = ecx

; 2714 : 	return m_iCityPopulation;

	mov	eax, DWORD PTR [ecx+324]

; 2715 : }

	ret	0
?GetCityPopulation@CvSmallAwardInfo@@QBEHXZ ENDP	; CvSmallAwardInfo::GetCityPopulation
_TEXT	ENDS
PUBLIC	?getPolicyPrereq@CvHurryInfo@@QBEHXZ		; CvHurryInfo::getPolicyPrereq
; Function compile flags: /Ogtpy
;	COMDAT ?getPolicyPrereq@CvHurryInfo@@QBEHXZ
_TEXT	SEGMENT
?getPolicyPrereq@CvHurryInfo@@QBEHXZ PROC		; CvHurryInfo::getPolicyPrereq, COMDAT
; _this$ = ecx

; 2747 : 	return m_iPolicyPrereq;

	mov	eax, DWORD PTR [ecx+260]

; 2748 : }

	ret	0
?getPolicyPrereq@CvHurryInfo@@QBEHXZ ENDP		; CvHurryInfo::getPolicyPrereq
_TEXT	ENDS
PUBLIC	?getGoldPerProduction@CvHurryInfo@@QBEHXZ	; CvHurryInfo::getGoldPerProduction
; Function compile flags: /Ogtpy
;	COMDAT ?getGoldPerProduction@CvHurryInfo@@QBEHXZ
_TEXT	SEGMENT
?getGoldPerProduction@CvHurryInfo@@QBEHXZ PROC		; CvHurryInfo::getGoldPerProduction, COMDAT
; _this$ = ecx

; 2752 : 	return m_iGoldPerProduction;

	mov	eax, DWORD PTR [ecx+264]

; 2753 : }

	ret	0
?getGoldPerProduction@CvHurryInfo@@QBEHXZ ENDP		; CvHurryInfo::getGoldPerProduction
_TEXT	ENDS
PUBLIC	?getProductionPerPopulation@CvHurryInfo@@QBEHXZ	; CvHurryInfo::getProductionPerPopulation
; Function compile flags: /Ogtpy
;	COMDAT ?getProductionPerPopulation@CvHurryInfo@@QBEHXZ
_TEXT	SEGMENT
?getProductionPerPopulation@CvHurryInfo@@QBEHXZ PROC	; CvHurryInfo::getProductionPerPopulation, COMDAT
; _this$ = ecx

; 2757 : 	return m_iProductionPerPopulation;

	mov	eax, DWORD PTR [ecx+268]

; 2758 : }

	ret	0
?getProductionPerPopulation@CvHurryInfo@@QBEHXZ ENDP	; CvHurryInfo::getProductionPerPopulation
_TEXT	ENDS
PUBLIC	?getGoldPerBeaker@CvHurryInfo@@QBEHXZ		; CvHurryInfo::getGoldPerBeaker
; Function compile flags: /Ogtpy
;	COMDAT ?getGoldPerBeaker@CvHurryInfo@@QBEHXZ
_TEXT	SEGMENT
?getGoldPerBeaker@CvHurryInfo@@QBEHXZ PROC		; CvHurryInfo::getGoldPerBeaker, COMDAT
; _this$ = ecx

; 2762 : 	return m_iGoldPerBeaker;

	mov	eax, DWORD PTR [ecx+272]

; 2763 : }

	ret	0
?getGoldPerBeaker@CvHurryInfo@@QBEHXZ ENDP		; CvHurryInfo::getGoldPerBeaker
_TEXT	ENDS
PUBLIC	?getGoldPerCulture@CvHurryInfo@@QBEHXZ		; CvHurryInfo::getGoldPerCulture
; Function compile flags: /Ogtpy
;	COMDAT ?getGoldPerCulture@CvHurryInfo@@QBEHXZ
_TEXT	SEGMENT
?getGoldPerCulture@CvHurryInfo@@QBEHXZ PROC		; CvHurryInfo::getGoldPerCulture, COMDAT
; _this$ = ecx

; 2767 : 	return m_iGoldPerCulture;

	mov	eax, DWORD PTR [ecx+276]

; 2768 : }

	ret	0
?getGoldPerCulture@CvHurryInfo@@QBEHXZ ENDP		; CvHurryInfo::getGoldPerCulture
_TEXT	ENDS
PUBLIC	?getStartingLocationPercent@CvHandicapInfo@@QBEHXZ ; CvHandicapInfo::getStartingLocationPercent
; Function compile flags: /Ogtpy
;	COMDAT ?getStartingLocationPercent@CvHandicapInfo@@QBEHXZ
_TEXT	SEGMENT
?getStartingLocationPercent@CvHandicapInfo@@QBEHXZ PROC	; CvHandicapInfo::getStartingLocationPercent, COMDAT
; _this$ = ecx

; 2866 : 	return m_iStartingLocationPercent;

	mov	eax, DWORD PTR [ecx+260]

; 2867 : }

	ret	0
?getStartingLocationPercent@CvHandicapInfo@@QBEHXZ ENDP	; CvHandicapInfo::getStartingLocationPercent
_TEXT	ENDS
PUBLIC	?getAdvancedStartPointsMod@CvHandicapInfo@@QBEHXZ ; CvHandicapInfo::getAdvancedStartPointsMod
; Function compile flags: /Ogtpy
;	COMDAT ?getAdvancedStartPointsMod@CvHandicapInfo@@QBEHXZ
_TEXT	SEGMENT
?getAdvancedStartPointsMod@CvHandicapInfo@@QBEHXZ PROC	; CvHandicapInfo::getAdvancedStartPointsMod, COMDAT
; _this$ = ecx

; 2871 : 	return m_iAdvancedStartPointsMod;

	mov	eax, DWORD PTR [ecx+264]

; 2872 : }

	ret	0
?getAdvancedStartPointsMod@CvHandicapInfo@@QBEHXZ ENDP	; CvHandicapInfo::getAdvancedStartPointsMod
_TEXT	ENDS
PUBLIC	?getStartingPolicyPoints@CvHandicapInfo@@QBEHXZ	; CvHandicapInfo::getStartingPolicyPoints
; Function compile flags: /Ogtpy
;	COMDAT ?getStartingPolicyPoints@CvHandicapInfo@@QBEHXZ
_TEXT	SEGMENT
?getStartingPolicyPoints@CvHandicapInfo@@QBEHXZ PROC	; CvHandicapInfo::getStartingPolicyPoints, COMDAT
; _this$ = ecx

; 2876 : 	return m_iStartingPolicyPoints;

	mov	eax, DWORD PTR [ecx+268]

; 2877 : }

	ret	0
?getStartingPolicyPoints@CvHandicapInfo@@QBEHXZ ENDP	; CvHandicapInfo::getStartingPolicyPoints
_TEXT	ENDS
PUBLIC	?getHappinessDefault@CvHandicapInfo@@QBEHXZ	; CvHandicapInfo::getHappinessDefault
; Function compile flags: /Ogtpy
;	COMDAT ?getHappinessDefault@CvHandicapInfo@@QBEHXZ
_TEXT	SEGMENT
?getHappinessDefault@CvHandicapInfo@@QBEHXZ PROC	; CvHandicapInfo::getHappinessDefault, COMDAT
; _this$ = ecx

; 2881 : 	return m_iHappinessDefault;

	mov	eax, DWORD PTR [ecx+272]

; 2882 : }

	ret	0
?getHappinessDefault@CvHandicapInfo@@QBEHXZ ENDP	; CvHandicapInfo::getHappinessDefault
_TEXT	ENDS
PUBLIC	?getExtraHappinessPerLuxury@CvHandicapInfo@@QBEHXZ ; CvHandicapInfo::getExtraHappinessPerLuxury
; Function compile flags: /Ogtpy
;	COMDAT ?getExtraHappinessPerLuxury@CvHandicapInfo@@QBEHXZ
_TEXT	SEGMENT
?getExtraHappinessPerLuxury@CvHandicapInfo@@QBEHXZ PROC	; CvHandicapInfo::getExtraHappinessPerLuxury, COMDAT
; _this$ = ecx

; 2886 : 	return m_iExtraHappinessPerLuxury;

	mov	eax, DWORD PTR [ecx+276]

; 2887 : }

	ret	0
?getExtraHappinessPerLuxury@CvHandicapInfo@@QBEHXZ ENDP	; CvHandicapInfo::getExtraHappinessPerLuxury
_TEXT	ENDS
PUBLIC	?getNumCitiesUnhappinessMod@CvHandicapInfo@@QBEHXZ ; CvHandicapInfo::getNumCitiesUnhappinessMod
; Function compile flags: /Ogtpy
;	COMDAT ?getNumCitiesUnhappinessMod@CvHandicapInfo@@QBEHXZ
_TEXT	SEGMENT
?getNumCitiesUnhappinessMod@CvHandicapInfo@@QBEHXZ PROC	; CvHandicapInfo::getNumCitiesUnhappinessMod, COMDAT
; _this$ = ecx

; 2891 : 	return m_iNumCitiesUnhappinessMod;

	mov	eax, DWORD PTR [ecx+280]

; 2892 : }

	ret	0
?getNumCitiesUnhappinessMod@CvHandicapInfo@@QBEHXZ ENDP	; CvHandicapInfo::getNumCitiesUnhappinessMod
_TEXT	ENDS
PUBLIC	?getPopulationUnhappinessMod@CvHandicapInfo@@QBEHXZ ; CvHandicapInfo::getPopulationUnhappinessMod
; Function compile flags: /Ogtpy
;	COMDAT ?getPopulationUnhappinessMod@CvHandicapInfo@@QBEHXZ
_TEXT	SEGMENT
?getPopulationUnhappinessMod@CvHandicapInfo@@QBEHXZ PROC ; CvHandicapInfo::getPopulationUnhappinessMod, COMDAT
; _this$ = ecx

; 2896 : 	return m_iPopulationUnhappinessMod;

	mov	eax, DWORD PTR [ecx+284]

; 2897 : }

	ret	0
?getPopulationUnhappinessMod@CvHandicapInfo@@QBEHXZ ENDP ; CvHandicapInfo::getPopulationUnhappinessMod
_TEXT	ENDS
PUBLIC	?getStartingGold@CvHandicapInfo@@QBEHXZ		; CvHandicapInfo::getStartingGold
; Function compile flags: /Ogtpy
;	COMDAT ?getStartingGold@CvHandicapInfo@@QBEHXZ
_TEXT	SEGMENT
?getStartingGold@CvHandicapInfo@@QBEHXZ PROC		; CvHandicapInfo::getStartingGold, COMDAT
; _this$ = ecx

; 2901 : 	return m_iStartingGold;

	mov	eax, DWORD PTR [ecx+288]

; 2902 : }

	ret	0
?getStartingGold@CvHandicapInfo@@QBEHXZ ENDP		; CvHandicapInfo::getStartingGold
_TEXT	ENDS
PUBLIC	?getGoldFreeUnits@CvHandicapInfo@@QBEHXZ	; CvHandicapInfo::getGoldFreeUnits
; Function compile flags: /Ogtpy
;	COMDAT ?getGoldFreeUnits@CvHandicapInfo@@QBEHXZ
_TEXT	SEGMENT
?getGoldFreeUnits@CvHandicapInfo@@QBEHXZ PROC		; CvHandicapInfo::getGoldFreeUnits, COMDAT
; _this$ = ecx

; 2906 : 	return m_iGoldFreeUnits;

	mov	eax, DWORD PTR [ecx+292]

; 2907 : }

	ret	0
?getGoldFreeUnits@CvHandicapInfo@@QBEHXZ ENDP		; CvHandicapInfo::getGoldFreeUnits
_TEXT	ENDS
PUBLIC	?getProductionFreeUnits@CvHandicapInfo@@QBEHXZ	; CvHandicapInfo::getProductionFreeUnits
; Function compile flags: /Ogtpy
;	COMDAT ?getProductionFreeUnits@CvHandicapInfo@@QBEHXZ
_TEXT	SEGMENT
?getProductionFreeUnits@CvHandicapInfo@@QBEHXZ PROC	; CvHandicapInfo::getProductionFreeUnits, COMDAT
; _this$ = ecx

; 2911 : 	return m_iProductionFreeUnits;

	mov	eax, DWORD PTR [ecx+296]

; 2912 : }

	ret	0
?getProductionFreeUnits@CvHandicapInfo@@QBEHXZ ENDP	; CvHandicapInfo::getProductionFreeUnits
_TEXT	ENDS
PUBLIC	?getProductionFreeUnitsPerCity@CvHandicapInfo@@QBEHXZ ; CvHandicapInfo::getProductionFreeUnitsPerCity
; Function compile flags: /Ogtpy
;	COMDAT ?getProductionFreeUnitsPerCity@CvHandicapInfo@@QBEHXZ
_TEXT	SEGMENT
?getProductionFreeUnitsPerCity@CvHandicapInfo@@QBEHXZ PROC ; CvHandicapInfo::getProductionFreeUnitsPerCity, COMDAT
; _this$ = ecx

; 2916 : 	return m_iProductionFreeUnitsPerCity;

	mov	eax, DWORD PTR [ecx+300]

; 2917 : }

	ret	0
?getProductionFreeUnitsPerCity@CvHandicapInfo@@QBEHXZ ENDP ; CvHandicapInfo::getProductionFreeUnitsPerCity
_TEXT	ENDS
PUBLIC	?getProductionFreeUnitsPopulationPercent@CvHandicapInfo@@QBEHXZ ; CvHandicapInfo::getProductionFreeUnitsPopulationPercent
; Function compile flags: /Ogtpy
;	COMDAT ?getProductionFreeUnitsPopulationPercent@CvHandicapInfo@@QBEHXZ
_TEXT	SEGMENT
?getProductionFreeUnitsPopulationPercent@CvHandicapInfo@@QBEHXZ PROC ; CvHandicapInfo::getProductionFreeUnitsPopulationPercent, COMDAT
; _this$ = ecx

; 2921 : 	return m_iProductionFreeUnitsPopulationPercent;

	mov	eax, DWORD PTR [ecx+304]

; 2922 : }

	ret	0
