; Listing generated by Microsoft (R) Optimizing Compiler Version 15.00.30729.01 

	TITLE	c:\Users\EnormousApplePie\Documents\GitHub\Lekmod\LEKMOD_DLL\CvGameCoreDLL_Expansion2\CvInfosSerializationHelper.cpp
	.686P
	.XMM
	include listing.inc
	.model	flat

INCLUDELIB MSVCRT
INCLUDELIB OLDNAMES

PUBLIC	?ms_V0ResourceTags@CvInfosSerializationHelper@@3PAPBDA ; CvInfosSerializationHelper::ms_V0ResourceTags
PUBLIC	?ms_V0PolicyTags@CvInfosSerializationHelper@@3PAPBDA ; CvInfosSerializationHelper::ms_V0PolicyTags
PUBLIC	?ms_V0PolicyBranchTags@CvInfosSerializationHelper@@3PAPBDA ; CvInfosSerializationHelper::ms_V0PolicyBranchTags
_DATA	SEGMENT
?ms_V0ResourceTags@CvInfosSerializationHelper@@3PAPBDA DD FLAT:$SG217995 ; CvInfosSerializationHelper::ms_V0ResourceTags
	DD	FLAT:$SG217996
	DD	FLAT:$SG217997
	DD	FLAT:$SG217998
	DD	FLAT:$SG217999
	DD	FLAT:$SG218000
	DD	FLAT:$SG218001
	DD	FLAT:$SG218002
	DD	FLAT:$SG218003
	DD	FLAT:$SG218004
	DD	FLAT:$SG218005
	DD	FLAT:$SG218006
	DD	FLAT:$SG218007
	DD	FLAT:$SG218008
	DD	FLAT:$SG218009
	DD	FLAT:$SG218010
	DD	FLAT:$SG218011
	DD	FLAT:$SG218012
	DD	FLAT:$SG218013
	DD	FLAT:$SG218014
	DD	FLAT:$SG218015
	DD	FLAT:$SG218016
	DD	FLAT:$SG218017
	DD	FLAT:$SG218018
	DD	FLAT:$SG218019
	DD	FLAT:$SG218020
	DD	FLAT:$SG218021
	ORG $+4
?ms_V0PolicyTags@CvInfosSerializationHelper@@3PAPBDA DD FLAT:$SG218022 ; CvInfosSerializationHelper::ms_V0PolicyTags
	DD	FLAT:$SG218023
	DD	FLAT:$SG218024
	DD	FLAT:$SG218025
	DD	FLAT:$SG218026
	DD	FLAT:$SG218027
	DD	FLAT:$SG218028
	DD	FLAT:$SG218029
	DD	FLAT:$SG218030
	DD	FLAT:$SG218031
	DD	FLAT:$SG218032
	DD	FLAT:$SG218033
	DD	FLAT:$SG218034
	DD	FLAT:$SG218035
	DD	FLAT:$SG218036
	DD	FLAT:$SG218037
	DD	FLAT:$SG218038
	DD	FLAT:$SG218039
	DD	FLAT:$SG218040
	DD	FLAT:$SG218041
	DD	FLAT:$SG218042
	DD	FLAT:$SG218043
	DD	FLAT:$SG218044
	DD	FLAT:$SG218045
	DD	FLAT:$SG218046
	DD	FLAT:$SG218047
	DD	FLAT:$SG218048
	DD	FLAT:$SG218049
	DD	FLAT:$SG218050
	DD	FLAT:$SG218051
	DD	FLAT:$SG218052
	DD	FLAT:$SG218053
	DD	FLAT:$SG218054
	DD	FLAT:$SG218055
	DD	FLAT:$SG218056
	DD	FLAT:$SG218057
	DD	FLAT:$SG218058
	DD	FLAT:$SG218059
	DD	FLAT:$SG218060
	DD	FLAT:$SG218061
	DD	FLAT:$SG218062
	DD	FLAT:$SG218063
	DD	FLAT:$SG218064
	DD	FLAT:$SG218065
	DD	FLAT:$SG218066
	DD	FLAT:$SG218067
	DD	FLAT:$SG218068
	DD	FLAT:$SG218069
	DD	FLAT:$SG218070
	DD	FLAT:$SG218071
	DD	FLAT:$SG218072
	DD	FLAT:$SG218073
	DD	FLAT:$SG218074
	DD	FLAT:$SG218075
	DD	FLAT:$SG218076
	DD	FLAT:$SG218077
	DD	FLAT:$SG218078
	DD	FLAT:$SG218079
	DD	FLAT:$SG218080
	DD	FLAT:$SG218081
?ms_V0PolicyBranchTags@CvInfosSerializationHelper@@3PAPBDA DD FLAT:$SG218082 ; CvInfosSerializationHelper::ms_V0PolicyBranchTags
	DD	FLAT:$SG218083
	DD	FLAT:$SG218084
	DD	FLAT:$SG218085
	DD	FLAT:$SG218086
	DD	FLAT:$SG218087
	DD	FLAT:$SG218088
	DD	FLAT:$SG218089
	DD	FLAT:$SG218090
	DD	FLAT:$SG218091
_DATA	ENDS
CONST	SEGMENT
$SG217995 DB	'RESOURCE_IRON', 00H
	ORG $+2
$SG217996 DB	'RESOURCE_HORSE', 00H
	ORG $+1
$SG217997 DB	'RESOURCE_COAL', 00H
	ORG $+2
$SG217998 DB	'RESOURCE_OIL', 00H
	ORG $+3
$SG217999 DB	'RESOURCE_ALUMINUM', 00H
	ORG $+2
$SG218000 DB	'RESOURCE_URANIUM', 00H
	ORG $+3
$SG218001 DB	'RESOURCE_WHEAT', 00H
	ORG $+1
$SG218002 DB	'RESOURCE_COW', 00H
	ORG $+3
$SG218003 DB	'RESOURCE_SHEEP', 00H
	ORG $+1
$SG218004 DB	'RESOURCE_DEER', 00H
	ORG $+2
$SG218005 DB	'RESOURCE_BANANA', 00H
$SG218006 DB	'RESOURCE_FISH', 00H
	ORG $+2
$SG218007 DB	'RESOURCE_WHALE', 00H
	ORG $+1
$SG218008 DB	'RESOURCE_PEARLS', 00H
$SG218009 DB	'RESOURCE_GOLD', 00H
	ORG $+2
$SG218010 DB	'RESOURCE_SILVER', 00H
$SG218011 DB	'RESOURCE_GEMS', 00H
	ORG $+2
$SG218012 DB	'RESOURCE_MARBLE', 00H
$SG218013 DB	'RESOURCE_IVORY', 00H
	ORG $+1
$SG218014 DB	'RESOURCE_FUR', 00H
	ORG $+3
$SG218015 DB	'RESOURCE_DYE', 00H
	ORG $+3
$SG218016 DB	'RESOURCE_SPICES', 00H
$SG218017 DB	'RESOURCE_SILK', 00H
	ORG $+2
$SG218018 DB	'RESOURCE_SUGAR', 00H
	ORG $+1
$SG218019 DB	'RESOURCE_COTTON', 00H
$SG218020 DB	'RESOURCE_WINE', 00H
	ORG $+2
$SG218021 DB	'RESOURCE_INCENSE', 00H
	ORG $+3
$SG218022 DB	'POLICY_LIBERTY', 00H
	ORG $+1
$SG218023 DB	'POLICY_COLLECTIVE_RULE', 00H
	ORG $+1
$SG218024 DB	'POLICY_CITIZENSHIP', 00H
	ORG $+1
$SG218025 DB	'POLICY_REPUBLIC', 00H
$SG218026 DB	'POLICY_REPRESENTATION', 00H
	ORG $+2
$SG218027 DB	'POLICY_MERITOCRACY', 00H
	ORG $+1
$SG218028 DB	'POLICY_TRADITION', 00H
	ORG $+3
$SG218029 DB	'POLICY_ARISTOCRACY', 00H
	ORG $+1
$SG218030 DB	'POLICY_OLIGARCHY', 00H
	ORG $+3
$SG218031 DB	'POLICY_LEGALISM', 00H
$SG218032 DB	'POLICY_LANDED_ELITE', 00H
$SG218033 DB	'POLICY_MONARCHY', 00H
$SG218034 DB	'POLICY_HONOR', 00H
	ORG $+3
$SG218035 DB	'POLICY_WARRIOR_CODE', 00H
$SG218036 DB	'POLICY_DISCIPLINE', 00H
	ORG $+2
$SG218037 DB	'POLICY_MILITARY_TRADITION', 00H
	ORG $+2
$SG218038 DB	'POLICY_MILITARY_CASTE', 00H
	ORG $+2
$SG218039 DB	'POLICY_PROFESSIONAL_ARMY', 00H
	ORG $+3
$SG218040 DB	'POLICY_PIETY', 00H
	ORG $+3
$SG218041 DB	'POLICY_ORGANIZED_RELIGION', 00H
	ORG $+2
$SG218042 DB	'POLICY_MANDATE_OF_HEAVEN', 00H
	ORG $+3
$SG218043 DB	'POLICY_THEOCRACY', 00H
	ORG $+3
$SG218044 DB	'POLICY_REFORMATION', 00H
	ORG $+1
$SG218045 DB	'POLICY_FREE_RELIGION', 00H
	ORG $+3
$SG218046 DB	'POLICY_PATRONAGE', 00H
	ORG $+3
$SG218047 DB	'POLICY_PHILANTHROPY', 00H
$SG218048 DB	'POLICY_AESTHETICS', 00H
	ORG $+2
$SG218049 DB	'POLICY_SCHOLASTICISM', 00H
	ORG $+3
$SG218050 DB	'POLICY_CULTURAL_DIPLOMACY', 00H
	ORG $+2
$SG218051 DB	'POLICY_EDUCATED_ELITE', 00H
	ORG $+2
$SG218052 DB	'POLICY_COMMERCE', 00H
$SG218053 DB	'POLICY_TRADE_UNIONS', 00H
$SG218054 DB	'POLICY_NAVAL_TRADITION', 00H
	ORG $+1
$SG218055 DB	'POLICY_MERCANTILISM', 00H
$SG218056 DB	'POLICY_MERCHANT_NAVY', 00H
	ORG $+3
$SG218057 DB	'POLICY_PROTECTIONISM', 00H
	ORG $+3
$SG218058 DB	'POLICY_RATIONALISM', 00H
	ORG $+1
$SG218059 DB	'POLICY_SECULARISM', 00H
	ORG $+2
$SG218060 DB	'POLICY_HUMANISM', 00H
$SG218061 DB	'POLICY_FREE_THOUGHT', 00H
$SG218062 DB	'POLICY_SOVEREIGNTY', 00H
	ORG $+1
$SG218063 DB	'POLICY_SCIENTIFIC_REVOLUTION', 00H
	ORG $+3
$SG218064 DB	'POLICY_FREEDOM', 00H
	ORG $+1
$SG218065 DB	'POLICY_CONSTITUTION', 00H
$SG218066 DB	'POLICY_UNIVERSAL_SUFFRAGE', 00H
	ORG $+2
$SG218067 DB	'POLICY_CIVIL_SOCIETY', 00H
	ORG $+3
$SG218068 DB	'POLICY_FREE_SPEECH', 00H
	ORG $+1
$SG218069 DB	'POLICY_DEMOCRACY', 00H
	ORG $+3
$SG218070 DB	'POLICY_ORDER', 00H
	ORG $+3
$SG218071 DB	'POLICY_UNITED_FRONT', 00H
$SG218072 DB	'POLICY_SOCIALISM', 00H
	ORG $+3
$SG218073 DB	'POLICY_NATIONALISM', 00H
	ORG $+1
$SG218074 DB	'POLICY_PLANNED_ECONOMY', 00H
	ORG $+1
$SG218075 DB	'POLICY_COMMUNISM', 00H
	ORG $+3
$SG218076 DB	'POLICY_AUTOCRACY', 00H
	ORG $+3
$SG218077 DB	'POLICY_POPULISM', 00H
$SG218078 DB	'POLICY_MILITARISM', 00H
	ORG $+2
$SG218079 DB	'POLICY_FASCISM', 00H
	ORG $+1
$SG218080 DB	'POLICY_POLICE_STATE', 00H
$SG218081 DB	'POLICY_TOTAL_WAR', 00H
	ORG $+3
$SG218082 DB	'POLICY_BRANCH_TRADITION', 00H
$SG218083 DB	'POLICY_BRANCH_LIBERTY', 00H
	ORG $+2
$SG218084 DB	'POLICY_BRANCH_HONOR', 00H
$SG218085 DB	'POLICY_BRANCH_PIETY', 00H
$SG218086 DB	'POLICY_BRANCH_PATRONAGE', 00H
$SG218087 DB	'POLICY_BRANCH_COMMERCE', 00H
	ORG $+1
$SG218088 DB	'POLICY_BRANCH_RATIONALISM', 00H
	ORG $+2
$SG218089 DB	'POLICY_BRANCH_FREEDOM', 00H
	ORG $+2
$SG218090 DB	'POLICY_BRANCH_ORDER', 00H
$SG218091 DB	'POLICY_BRANCH_AUTOCRACY', 00H
$SG218116 DB	'NO_TYPE', 00H
$SG218123 DB	'LOAD ERROR: Type not found: %s', 00H
	ORG $+1
$SG218136 DB	'LOAD ERROR: Type not found for hash: %u', 00H
$SG218147 DB	'NO_TYPE', 00H
$SG218152 DB	'SELECT ID from %s where Type = ? LIMIT 1', 00H
CONST	ENDS
PUBLIC	??$?5VFStringA@@@FDataStream@@QAEAAV0@AAVFStringA@@@Z ; FDataStream::operator>><FStringA>
EXTRN	?Read@FDataStream@@IAEXAAVFStringA@@@Z:PROC	; FDataStream::Read
; Function compile flags: /Ogtpy
; File c:\users\enormousapplepie\documents\github\lekmod\lekmod_dll\fireplace\include\fireworks\fdatastream.h
;	COMDAT ??$?5VFStringA@@@FDataStream@@QAEAAV0@AAVFStringA@@@Z
_TEXT	SEGMENT
_kData$ = 8						; size = 4
??$?5VFStringA@@@FDataStream@@QAEAAV0@AAVFStringA@@@Z PROC ; FDataStream::operator>><FStringA>, COMDAT
; _this$ = ecx

; 260  : 	// If the compiler produces an error here complaining about 
; 261  : 	// YouMustImplementASerializeOperatorForThisTypeError then
; 262  : 	// it could not find a specialization for the type supplied
; 263  : 	// in scope. If a specialization exists, be sure to include
; 264  : 	// the header (FStlContainerSerialization.h, for example), 
; 265  : 	// if not, implement :
; 266  : 	// FDataStream & operator>>(FDataStream &, YourCustomType &)
; 267  : 	Read( kData );

	mov	eax, DWORD PTR _kData$[esp-4]
	push	esi
	push	eax
	mov	esi, ecx
	call	?Read@FDataStream@@IAEXAAVFStringA@@@Z	; FDataStream::Read

; 268  : 	return ( *this );

	mov	eax, esi
	pop	esi

; 269  : }

	ret	4
??$?5VFStringA@@@FDataStream@@QAEAAV0@AAVFStringA@@@Z ENDP ; FDataStream::operator>><FStringA>
_TEXT	ENDS
PUBLIC	??$?6VFStringA@@@FDataStream@@QAEAAV0@ABVFStringA@@@Z ; FDataStream::operator<<<FStringA>
EXTRN	?Write@FDataStream@@IAEXABVFStringA@@@Z:PROC	; FDataStream::Write
; Function compile flags: /Ogtpy
;	COMDAT ??$?6VFStringA@@@FDataStream@@QAEAAV0@ABVFStringA@@@Z
_TEXT	SEGMENT
_kData$ = 8						; size = 4
??$?6VFStringA@@@FDataStream@@QAEAAV0@ABVFStringA@@@Z PROC ; FDataStream::operator<<<FStringA>, COMDAT
; _this$ = ecx

; 246  : 	// If the compiler produces an error here complaining about 
; 247  : 	// YouMustImplementASerializeOperatorForThisTypeError then
; 248  : 	// it could not find a specialization for the type supplied
; 249  : 	// in scope. If a specialization exists, be sure to include
; 250  : 	// the header (FStlContainerSerialization.h, for example), 
; 251  : 	// if not, implement :
; 252  : 	// FDataStream & operator<<(FDataStream &, YourCustomType &)
; 253  : 	Write( kData );

	mov	eax, DWORD PTR _kData$[esp-4]
	push	esi
	push	eax
	mov	esi, ecx
	call	?Write@FDataStream@@IAEXABVFStringA@@@Z	; FDataStream::Write

; 254  : 	return ( *this );

	mov	eax, esi
	pop	esi

; 255  : }

	ret	4
??$?6VFStringA@@@FDataStream@@QAEAAV0@ABVFStringA@@@Z ENDP ; FDataStream::operator<<<FStringA>
_TEXT	ENDS
PUBLIC	?Compare@FStringA@@QBEHPBD@Z			; FStringA::Compare
; Function compile flags: /Ogtpy
; File c:\users\enormousapplepie\documents\github\lekmod\lekmod_dll\fireplace\include\fireworks\fstringa.inl
;	COMDAT ?Compare@FStringA@@QBEHPBD@Z
_TEXT	SEGMENT
_lpsz$ = 8						; size = 4
?Compare@FStringA@@QBEHPBD@Z PROC			; FStringA::Compare, COMDAT
; _this$ = ecx

; 600  : 	FSTRING_CHECK_BUFFER;
; 601  : 	return ( strcmp( m_pszString, lpsz ) );

	mov	edx, DWORD PTR _lpsz$[esp-4]
	mov	eax, DWORD PTR [ecx]
$LL3@Compare:
	mov	cl, BYTE PTR [eax]
	cmp	cl, BYTE PTR [edx]
	jne	SHORT $LN4@Compare
	test	cl, cl
	je	SHORT $LN5@Compare
	mov	cl, BYTE PTR [eax+1]
	cmp	cl, BYTE PTR [edx+1]
	jne	SHORT $LN4@Compare
	add	eax, 2
	add	edx, 2
	test	cl, cl
	jne	SHORT $LL3@Compare
$LN5@Compare:
	xor	eax, eax

; 602  : }

	ret	4
$LN4@Compare:

; 600  : 	FSTRING_CHECK_BUFFER;
; 601  : 	return ( strcmp( m_pszString, lpsz ) );

	sbb	eax, eax
	sbb	eax, -1

; 602  : }

	ret	4
?Compare@FStringA@@QBEHPBD@Z ENDP			; FStringA::Compare
_TEXT	ENDS
PUBLIC	?GetCString@FStringA@@QBEPBDXZ			; FStringA::GetCString
; Function compile flags: /Ogtpy
;	COMDAT ?GetCString@FStringA@@QBEPBDXZ
_TEXT	SEGMENT
?GetCString@FStringA@@QBEPBDXZ PROC			; FStringA::GetCString, COMDAT
; _this$ = ecx

; 1015 : 	FSTRING_CHECK_BUFFER;
; 1016 : 	return ( m_pszString );

	mov	eax, DWORD PTR [ecx]

; 1017 : }

	ret	0
?GetCString@FStringA@@QBEPBDXZ ENDP			; FStringA::GetCString
_TEXT	ENDS
PUBLIC	?c_str@FStringA@@QBEPBDXZ			; FStringA::c_str
; Function compile flags: /Ogtpy
;	COMDAT ?c_str@FStringA@@QBEPBDXZ
_TEXT	SEGMENT
?c_str@FStringA@@QBEPBDXZ PROC				; FStringA::c_str, COMDAT
; _this$ = ecx

; 1022 : 	return ( GetCString() );

	mov	eax, DWORD PTR [ecx]

; 1023 : }

	ret	0
?c_str@FStringA@@QBEPBDXZ ENDP				; FStringA::c_str
_TEXT	ENDS
PUBLIC	?SafeStrlen@FStringA@@SAHPBD@Z			; FStringA::SafeStrlen
; Function compile flags: /Ogtpy
;	COMDAT ?SafeStrlen@FStringA@@SAHPBD@Z
_TEXT	SEGMENT
_lpsz$ = 8						; size = 4
?SafeStrlen@FStringA@@SAHPBD@Z PROC			; FStringA::SafeStrlen, COMDAT

; 1030 : 	return ( lpsz ? ( int )strlen( lpsz ) : 0 );

	mov	eax, DWORD PTR _lpsz$[esp-4]
	test	eax, eax
	je	SHORT $LN3@SafeStrlen
	lea	edx, DWORD PTR [eax+1]
	npad	5
$LL5@SafeStrlen:
	mov	cl, BYTE PTR [eax]
	inc	eax
	test	cl, cl
	jne	SHORT $LL5@SafeStrlen
	sub	eax, edx

; 1031 : }

	ret	0
$LN3@SafeStrlen:

; 1030 : 	return ( lpsz ? ( int )strlen( lpsz ) : 0 );

	xor	eax, eax

; 1031 : }

	ret	0
?SafeStrlen@FStringA@@SAHPBD@Z ENDP			; FStringA::SafeStrlen
_TEXT	ENDS
PUBLIC	?StringData@FStringAData@FStringA@@QAEPADXZ	; FStringA::FStringAData::StringData
; Function compile flags: /Ogtpy
;	COMDAT ?StringData@FStringAData@FStringA@@QAEPADXZ
_TEXT	SEGMENT
?StringData@FStringAData@FStringA@@QAEPADXZ PROC	; FStringA::FStringAData::StringData, COMDAT
; _this$ = ecx

; 1067 : 	return ( ( LPSTR )( this + 1 ) );

	lea	eax, DWORD PTR [ecx+12]

; 1068 : }

	ret	0
?StringData@FStringAData@FStringA@@QAEPADXZ ENDP	; FStringA::FStringAData::StringData
_TEXT	ENDS
PUBLIC	?GetData@FStringA@@IBEPAUFStringAData@1@XZ	; FStringA::GetData
; Function compile flags: /Ogtpy
;	COMDAT ?GetData@FStringA@@IBEPAUFStringAData@1@XZ
_TEXT	SEGMENT
?GetData@FStringA@@IBEPAUFStringAData@1@XZ PROC		; FStringA::GetData, COMDAT
; _this$ = ecx

; 1077 : 	assert( m_pszString != NULL );
; 1078 : 
; 1079 : 	return ( ( ( FStringAData* )m_pszString ) - 1 );

	mov	eax, DWORD PTR [ecx]
	sub	eax, 12					; 0000000cH

; 1080 : }

	ret	0
?GetData@FStringA@@IBEPAUFStringAData@1@XZ ENDP		; FStringA::GetData
_TEXT	ENDS
PUBLIC	?Init@FStringA@@IAEXXZ				; FStringA::Init
EXTRN	?FStringA_GetStringInitData@@YAPAUFStringAData@FStringA@@XZ:PROC ; FStringA_GetStringInitData
; Function compile flags: /Ogtpy
;	COMDAT ?Init@FStringA@@IAEXXZ
_TEXT	SEGMENT
?Init@FStringA@@IAEXXZ PROC				; FStringA::Init, COMDAT
; _this$ = ecx

; 1084 : {

	push	esi
	mov	esi, ecx

; 1085 : #ifdef		_NDS
; 1086 : 	static int strEmpty[] = { FIXED, 0 };	// Empty string
; 1087 : 
; 1088 : 	m_pszString = (LPSTR)&strEmpty[1];
; 1089 : #else	//	_NDS
; 1090 : 	m_pszString = FStringA_GetStringInitData()->StringData();

	call	?FStringA_GetStringInitData@@YAPAUFStringAData@FStringA@@XZ ; FStringA_GetStringInitData
	add	eax, 12					; 0000000cH
	mov	DWORD PTR [esi], eax
	pop	esi

; 1091 : #endif	//	_NDS
; 1092 : }

	ret	0
?Init@FStringA@@IAEXXZ ENDP				; FStringA::Init
_TEXT	ENDS
PUBLIC	?Release@FStringA@@IAEXPAUFStringAData@1@@Z	; FStringA::Release
EXTRN	??_V@YAXPAX@Z:PROC				; operator delete[]
; Function compile flags: /Ogtpy
;	COMDAT ?Release@FStringA@@IAEXPAUFStringAData@1@@Z
_TEXT	SEGMENT
_pkData$ = 8						; size = 4
?Release@FStringA@@IAEXPAUFStringAData@1@@Z PROC	; FStringA::Release, COMDAT
; _this$ = ecx

; 1105 : {

	push	esi

; 1106 : 	FSTRING_CHECK_BUFFER;
; 1107 : 	if ( pkData && ( pkData != FStringA_GetStringInitData() ) && !pkData->m_bFixed )

	mov	esi, DWORD PTR _pkData$[esp]
	test	esi, esi
	je	SHORT $LN1@Release
	call	?FStringA_GetStringInitData@@YAPAUFStringAData@FStringA@@XZ ; FStringA_GetStringInitData
	cmp	esi, eax
	je	SHORT $LN1@Release
	cmp	WORD PTR [esi+10], 0
	jne	SHORT $LN1@Release

; 1108 : 	{
; 1109 : #ifdef		ENABLE_FSTRING_STATS
; 1110 : 		extern uint g_uiFStringBytesCurrent;
; 1111 : 		g_uiFStringBytesCurrent -= sizeof ( FStringAData ) + ( sizeof ( char ) * pkData->m_iAllocLength + 1 );
; 1112 : #endif	//	ENABLE_FSTRING_STATS
; 1113 : 
; 1114 : 		// Free any memory associated with the string
; 1115 : 		delete [] ( byte* )pkData;

	push	esi
	call	??_V@YAXPAX@Z				; operator delete[]
	add	esp, 4
$LN1@Release:
	pop	esi

; 1116 : 	}
; 1117 : }

	ret	4
?Release@FStringA@@IAEXPAUFStringAData@1@@Z ENDP	; FStringA::Release
_TEXT	ENDS
PUBLIC	?GetLength@FStringA@@QBEHXZ			; FStringA::GetLength
; Function compile flags: /Ogtpy
;	COMDAT ?GetLength@FStringA@@QBEHXZ
_TEXT	SEGMENT
?GetLength@FStringA@@QBEHXZ PROC			; FStringA::GetLength, COMDAT
; _this$ = ecx

; 1192 : 	#ifdef		_NDS
; 1193 : 	if (IsLarge())
; 1194 : 		return Header(2);
; 1195 : 	else
; 1196 : 		return Header(1) >> 16;
; 1197 : 	#else	//	_NDS
; 1198 : 	FSTRING_CHECK_BUFFER;
; 1199 : 	return ( GetData()->m_iDataLength );

	mov	eax, DWORD PTR [ecx]
	mov	eax, DWORD PTR [eax-8]

; 1200 : 	#endif	//	_NDS
; 1201 : }

	ret	0
?GetLength@FStringA@@QBEHXZ ENDP			; FStringA::GetLength
_TEXT	ENDS
PUBLIC	??0CvString@@QAE@XZ				; CvString::CvString
EXTRN	__imp_??0?$basic_string@DU?$char_traits@D@std@@V?$allocator@D@2@@std@@QAE@XZ:PROC
; Function compile flags: /Ogtpy
; File c:\users\enormousapplepie\documents\github\lekmod\lekmod_dll\cvgamecoredllutil\include\cvstring.h
;	COMDAT ??0CvString@@QAE@XZ
_TEXT	SEGMENT
??0CvString@@QAE@XZ PROC				; CvString::CvString, COMDAT
; _this$ = ecx

; 23   : 	CvString() {}

	push	esi
	mov	esi, ecx
	call	DWORD PTR __imp_??0?$basic_string@DU?$char_traits@D@std@@V?$allocator@D@2@@std@@QAE@XZ
	mov	eax, esi
	pop	esi
	ret	0
??0CvString@@QAE@XZ ENDP				; CvString::CvString
_TEXT	ENDS
PUBLIC	??1CvString@@QAE@XZ				; CvString::~CvString
EXTRN	__imp_??1?$basic_string@DU?$char_traits@D@std@@V?$allocator@D@2@@std@@QAE@XZ:PROC
; Function compile flags: /Ogtpy
;	COMDAT ??1CvString@@QAE@XZ
_TEXT	SEGMENT
??1CvString@@QAE@XZ PROC				; CvString::~CvString, COMDAT
; _this$ = ecx

; 28   : 	~CvString() {}

	jmp	DWORD PTR __imp_??1?$basic_string@DU?$char_traits@D@std@@V?$allocator@D@2@@std@@QAE@XZ
??1CvString@@QAE@XZ ENDP				; CvString::~CvString
_TEXT	ENDS
PUBLIC	??4CvString@@QAEAAV0@ABV?$basic_string@DU?$char_traits@D@std@@V?$allocator@D@2@@std@@@Z ; CvString::operator=
EXTRN	__imp_?assign@?$basic_string@DU?$char_traits@D@std@@V?$allocator@D@2@@std@@QAEAAV12@PBD@Z:PROC
EXTRN	__imp_?c_str@?$basic_string@DU?$char_traits@D@std@@V?$allocator@D@2@@std@@QBEPBDXZ:PROC
; Function compile flags: /Ogtpy
;	COMDAT ??4CvString@@QAEAAV0@ABV?$basic_string@DU?$char_traits@D@std@@V?$allocator@D@2@@std@@@Z
_TEXT	SEGMENT
_s$ = 8							; size = 4
??4CvString@@QAEAAV0@ABV?$basic_string@DU?$char_traits@D@std@@V?$allocator@D@2@@std@@@Z PROC ; CvString::operator=, COMDAT
; _this$ = ecx

; 38   : 	CvString& operator=( const std::string& s) { assign(s.c_str());	return *this; }	

	push	esi
	mov	esi, ecx
	mov	ecx, DWORD PTR _s$[esp]
	call	DWORD PTR __imp_?c_str@?$basic_string@DU?$char_traits@D@std@@V?$allocator@D@2@@std@@QBEPBDXZ
	push	eax
	mov	ecx, esi
	call	DWORD PTR __imp_?assign@?$basic_string@DU?$char_traits@D@std@@V?$allocator@D@2@@std@@QAEAAV12@PBD@Z
	mov	eax, esi
	pop	esi
	ret	4
??4CvString@@QAEAAV0@ABV?$basic_string@DU?$char_traits@D@std@@V?$allocator@D@2@@std@@@Z ENDP ; CvString::operator=
_TEXT	ENDS
PUBLIC	?GetCString@CvString@@QBEPBDXZ			; CvString::GetCString
; Function compile flags: /Ogtpy
;	COMDAT ?GetCString@CvString@@QBEPBDXZ
_TEXT	SEGMENT
?GetCString@CvString@@QBEPBDXZ PROC			; CvString::GetCString, COMDAT
; _this$ = ecx

; 42   : 	const char* GetCString() const 	{ return c_str(); }

	jmp	DWORD PTR __imp_?c_str@?$basic_string@DU?$char_traits@D@std@@V?$allocator@D@2@@std@@QBEPBDXZ
?GetCString@CvString@@QBEPBDXZ ENDP			; CvString::GetCString
_TEXT	ENDS
PUBLIC	??_C@_00CNPNBAHC@?$AA@				; `string'
PUBLIC	?formatv@CvString@@SA_NAAV?$basic_string@DU?$char_traits@D@std@@V?$allocator@D@2@@std@@PBDPAD@Z ; CvString::formatv
EXTRN	__imp_??4?$basic_string@DU?$char_traits@D@std@@V?$allocator@D@2@@std@@QAEAAV01@PBD@Z:PROC
EXTRN	??_U@YAPAXI@Z:PROC				; operator new[]
EXTRN	__imp___vsnprintf:PROC
;	COMDAT ??_C@_00CNPNBAHC@?$AA@
CONST	SEGMENT
??_C@_00CNPNBAHC@?$AA@ DB 00H				; `string'
; Function compile flags: /Ogtpy
CONST	ENDS
;	COMDAT ?formatv@CvString@@SA_NAAV?$basic_string@DU?$char_traits@D@std@@V?$allocator@D@2@@std@@PBDPAD@Z
_TEXT	SEGMENT
_buf$ = -2048						; size = 2048
_out$ = 8						; size = 4
_fmt$ = 12						; size = 4
_args$ = 16						; size = 4
?formatv@CvString@@SA_NAAV?$basic_string@DU?$char_traits@D@std@@V?$allocator@D@2@@std@@PBDPAD@Z PROC ; CvString::formatv, COMDAT

; 191  : {

	sub	esp, 2048				; 00000800H
	push	ebx
	push	ebp

; 192  : 	char buf[2048];
; 193  : 	char * pbuf = buf;

	mov	ebp, DWORD PTR _args$[esp+2052]
	push	esi
	push	edi
	lea	edi, DWORD PTR _buf$[esp+2064]
	mov	esi, 2047				; 000007ffH
	npad	6
$LL10@formatv:

; 194  : 	int len = 0;
; 195  : 	int attempts = 0;
; 196  : 	bool success = false;
; 197  : 	const int kMaxAttempts = 40;
; 198  : 
; 199  : 	do
; 200  : 	{
; 201  : 		int maxlen = 2047+2048*attempts;
; 202  : 		len = _vsnprintf(pbuf,maxlen,fmt,args);

	mov	eax, DWORD PTR _fmt$[esp+2060]
	push	ebp
	push	eax
	push	esi
	push	edi
	mov	ebx, esi
	call	DWORD PTR __imp___vsnprintf
	add	esp, 16					; 00000010H

; 203  : 		attempts++;

	add	esi, 2048				; 00000800H

; 204  : 		success = (len>=0 && len<=maxlen);

	test	eax, eax
	jl	SHORT $LN13@formatv
	cmp	eax, ebx
	jle	SHORT $LN18@formatv
$LN13@formatv:

; 205  : 		if (!success)
; 206  : 		{
; 207  : 			if (pbuf!=buf)

	lea	ecx, DWORD PTR _buf$[esp+2064]
	xor	bl, bl
	cmp	edi, ecx
	je	SHORT $LN6@formatv

; 208  : 				delete [] pbuf;

	push	edi
	call	??_V@YAXPAX@Z				; operator delete[]
	add	esp, 4
$LN6@formatv:

; 209  : 			pbuf = new char[2048+2048*attempts];

	lea	edx, DWORD PTR [esi+1]
	push	edx
	call	??_U@YAPAXI@Z				; operator new[]
	add	esp, 4

; 210  : 		}
; 211  : 	}
; 212  : 	while (!success && attempts<kMaxAttempts);

	cmp	esi, 83967				; 000147ffH
	mov	edi, eax
	jl	SHORT $LL10@formatv

; 222  : 		out = "";

	push	OFFSET ??_C@_00CNPNBAHC@?$AA@
$LN21@formatv:
	mov	ecx, DWORD PTR _out$[esp+2064]
	call	DWORD PTR __imp_??4?$basic_string@DU?$char_traits@D@std@@V?$allocator@D@2@@std@@QAEAAV01@PBD@Z

; 223  : 
; 224  : 	if (pbuf!=buf)

	lea	eax, DWORD PTR _buf$[esp+2064]
	cmp	edi, eax
	je	SHORT $LN20@formatv

; 225  : 		delete [] pbuf;

	push	edi
	call	??_V@YAXPAX@Z				; operator delete[]
	add	esp, 4
$LN20@formatv:
	pop	edi
	pop	esi
	pop	ebp

; 226  : 
; 227  : 	return success;

	mov	al, bl
	pop	ebx

; 228  : }

	add	esp, 2048				; 00000800H
	ret	0
$LN18@formatv:

; 204  : 		success = (len>=0 && len<=maxlen);

	mov	bl, 1

; 213  : 
; 214  : 	if ( attempts==kMaxAttempts )
; 215  : 	{
; 216  : 		// dxPrintNL( "CvString::formatv - Max reallocs occurred while formatting string. Result is likely truncated!", 0 );
; 217  : 	}
; 218  : 
; 219  : 	if (success)
; 220  : 		out = pbuf;

	push	edi

; 221  : 	else

	jmp	SHORT $LN21@formatv
?formatv@CvString@@SA_NAAV?$basic_string@DU?$char_traits@D@std@@V?$allocator@D@2@@std@@PBDPAD@Z ENDP ; CvString::formatv
_TEXT	ENDS
PUBLIC	?Format@CvString@@QAAXPBDZZ			; CvString::Format
EXTRN	___CxxFrameHandler3:PROC
;	COMDAT xdata$x
xdata$x	SEGMENT
__unwindtable$?Format@CvString@@QAAXPBDZZ DD 0ffffffffH
	DD	FLAT:__unwindfunclet$?Format@CvString@@QAAXPBDZZ$0
__ehfuncinfo$?Format@CvString@@QAAXPBDZZ DD 019930522H
	DD	01H
	DD	FLAT:__unwindtable$?Format@CvString@@QAAXPBDZZ
	DD	2 DUP(00H)
	DD	2 DUP(00H)
	DD	00H
	DD	01H
; Function compile flags: /Ogtpy
xdata$x	ENDS
;	COMDAT ?Format@CvString@@QAAXPBDZZ
_TEXT	SEGMENT
_result$ = -40						; size = 28
__$EHRec$ = -12						; size = 12
_this$ = 8						; size = 4
_lpszFormat$ = 12					; size = 4
?Format@CvString@@QAAXPBDZZ PROC			; CvString::Format, COMDAT

; 269  : {

	push	-1
	push	__ehhandler$?Format@CvString@@QAAXPBDZZ
	mov	eax, DWORD PTR fs:0
	push	eax
	mov	DWORD PTR fs:0, esp
	sub	esp, 28					; 0000001cH

; 270  : 	std::string result;

	lea	ecx, DWORD PTR _result$[esp+40]
	call	DWORD PTR __imp_??0?$basic_string@DU?$char_traits@D@std@@V?$allocator@D@2@@std@@QAE@XZ

; 271  : 	va_list args;
; 272  : 	va_start(args,lpszFormat);
; 273  : 	formatv(result,lpszFormat,args);

	mov	ecx, DWORD PTR _lpszFormat$[esp+36]
	lea	eax, DWORD PTR _lpszFormat$[esp+40]
	push	eax
	push	ecx
	lea	edx, DWORD PTR _result$[esp+48]
	push	edx
	mov	DWORD PTR __$EHRec$[esp+60], 0
	call	?formatv@CvString@@SA_NAAV?$basic_string@DU?$char_traits@D@std@@V?$allocator@D@2@@std@@PBDPAD@Z ; CvString::formatv
	add	esp, 12					; 0000000cH

; 274  : 	va_end(args);
; 275  : 	*this = result;

	lea	ecx, DWORD PTR _result$[esp+40]
	call	DWORD PTR __imp_?c_str@?$basic_string@DU?$char_traits@D@std@@V?$allocator@D@2@@std@@QBEPBDXZ
	mov	ecx, DWORD PTR _this$[esp+36]
	push	eax
	call	DWORD PTR __imp_?assign@?$basic_string@DU?$char_traits@D@std@@V?$allocator@D@2@@std@@QAEAAV12@PBD@Z

; 276  : }

	lea	ecx, DWORD PTR _result$[esp+40]
	mov	DWORD PTR __$EHRec$[esp+48], -1
	call	DWORD PTR __imp_??1?$basic_string@DU?$char_traits@D@std@@V?$allocator@D@2@@std@@QAE@XZ
	mov	ecx, DWORD PTR __$EHRec$[esp+40]
	mov	DWORD PTR fs:0, ecx
	add	esp, 40					; 00000028H
	ret	0
_TEXT	ENDS
;	COMDAT text$x
text$x	SEGMENT
__unwindfunclet$?Format@CvString@@QAAXPBDZZ$0:
	lea	ecx, DWORD PTR _result$[ebp]
	jmp	DWORD PTR __imp_??1?$basic_string@DU?$char_traits@D@std@@V?$allocator@D@2@@std@@QAE@XZ
__ehhandler$?Format@CvString@@QAAXPBDZZ:
	mov	eax, OFFSET __ehfuncinfo$?Format@CvString@@QAAXPBDZZ
	jmp	___CxxFrameHandler3
text$x	ENDS
?Format@CvString@@QAAXPBDZZ ENDP			; CvString::Format
PUBLIC	?GetType@CvBaseInfo@@QBEPBDXZ			; CvBaseInfo::GetType
; Function compile flags: /Ogtpy
; File c:\users\enormousapplepie\documents\github\lekmod\lekmod_dll\cvgamecoredll_expansion2\cvinfos.h
;	COMDAT ?GetType@CvBaseInfo@@QBEPBDXZ
_TEXT	SEGMENT
?GetType@CvBaseInfo@@QBEPBDXZ PROC			; CvBaseInfo::GetType, COMDAT
; _this$ = ecx

; 92   : 		return m_strType.c_str();

	add	ecx, 176				; 000000b0H
	jmp	DWORD PTR __imp_?c_str@?$basic_string@DU?$char_traits@D@std@@V?$allocator@D@2@@std@@QBEPBDXZ
?GetType@CvBaseInfo@@QBEPBDXZ ENDP			; CvBaseInfo::GetType
_TEXT	ENDS
PUBLIC	?GetGameDatabase@CvGlobals@@QAEPAVConnection@Database@@XZ ; CvGlobals::GetGameDatabase
; Function compile flags: /Ogtpy
; File c:\users\enormousapplepie\documents\github\lekmod\lekmod_dll\cvgamecoredll_expansion2\cvglobals.h
;	COMDAT ?GetGameDatabase@CvGlobals@@QAEPAVConnection@Database@@XZ
_TEXT	SEGMENT
?GetGameDatabase@CvGlobals@@QAEPAVConnection@Database@@XZ PROC ; CvGlobals::GetGameDatabase, COMDAT
; _this$ = ecx

; 9745 : 	return m_pGameDatabase;

	mov	eax, DWORD PTR [ecx+912]

; 9746 : }

	ret	0
?GetGameDatabase@CvGlobals@@QAEPAVConnection@Database@@XZ ENDP ; CvGlobals::GetGameDatabase
_TEXT	ENDS
PUBLIC	??$?6H@FDataStream@@QAEAAV0@ABH@Z		; FDataStream::operator<<<int>
EXTRN	?Write@FDataStream@@IAEXABH@Z:PROC		; FDataStream::Write
; Function compile flags: /Ogtpy
; File c:\users\enormousapplepie\documents\github\lekmod\lekmod_dll\fireplace\include\fireworks\fdatastream.h
;	COMDAT ??$?6H@FDataStream@@QAEAAV0@ABH@Z
_TEXT	SEGMENT
_kData$ = 8						; size = 4
??$?6H@FDataStream@@QAEAAV0@ABH@Z PROC			; FDataStream::operator<<<int>, COMDAT
; _this$ = ecx

; 246  : 	// If the compiler produces an error here complaining about 
; 247  : 	// YouMustImplementASerializeOperatorForThisTypeError then
; 248  : 	// it could not find a specialization for the type supplied
; 249  : 	// in scope. If a specialization exists, be sure to include
; 250  : 	// the header (FStlContainerSerialization.h, for example), 
; 251  : 	// if not, implement :
; 252  : 	// FDataStream & operator<<(FDataStream &, YourCustomType &)
; 253  : 	Write( kData );

	mov	eax, DWORD PTR _kData$[esp-4]
	push	esi
	push	eax
	mov	esi, ecx
	call	?Write@FDataStream@@IAEXABH@Z		; FDataStream::Write

; 254  : 	return ( *this );

	mov	eax, esi
	pop	esi

; 255  : }

	ret	4
??$?6H@FDataStream@@QAEAAV0@ABH@Z ENDP			; FDataStream::operator<<<int>
_TEXT	ENDS
PUBLIC	??$?5I@FDataStream@@QAEAAV0@AAI@Z		; FDataStream::operator>><unsigned int>
EXTRN	?Read@FDataStream@@IAEXAAI@Z:PROC		; FDataStream::Read
; Function compile flags: /Ogtpy
;	COMDAT ??$?5I@FDataStream@@QAEAAV0@AAI@Z
_TEXT	SEGMENT
_kData$ = 8						; size = 4
??$?5I@FDataStream@@QAEAAV0@AAI@Z PROC			; FDataStream::operator>><unsigned int>, COMDAT
; _this$ = ecx

; 260  : 	// If the compiler produces an error here complaining about 
; 261  : 	// YouMustImplementASerializeOperatorForThisTypeError then
; 262  : 	// it could not find a specialization for the type supplied
; 263  : 	// in scope. If a specialization exists, be sure to include
; 264  : 	// the header (FStlContainerSerialization.h, for example), 
; 265  : 	// if not, implement :
; 266  : 	// FDataStream & operator>>(FDataStream &, YourCustomType &)
; 267  : 	Read( kData );

	mov	eax, DWORD PTR _kData$[esp-4]
	push	esi
	push	eax
	mov	esi, ecx
	call	?Read@FDataStream@@IAEXAAI@Z		; FDataStream::Read

; 268  : 	return ( *this );

	mov	eax, esi
	pop	esi

; 269  : }

	ret	4
??$?5I@FDataStream@@QAEAAV0@AAI@Z ENDP			; FDataStream::operator>><unsigned int>
_TEXT	ENDS
PUBLIC	??$?6I@FDataStream@@QAEAAV0@ABI@Z		; FDataStream::operator<<<unsigned int>
EXTRN	?Write@FDataStream@@IAEXABI@Z:PROC		; FDataStream::Write
; Function compile flags: /Ogtpy
;	COMDAT ??$?6I@FDataStream@@QAEAAV0@ABI@Z
_TEXT	SEGMENT
_kData$ = 8						; size = 4
??$?6I@FDataStream@@QAEAAV0@ABI@Z PROC			; FDataStream::operator<<<unsigned int>, COMDAT
; _this$ = ecx

; 246  : 	// If the compiler produces an error here complaining about 
; 247  : 	// YouMustImplementASerializeOperatorForThisTypeError then
; 248  : 	// it could not find a specialization for the type supplied
; 249  : 	// in scope. If a specialization exists, be sure to include
; 250  : 	// the header (FStlContainerSerialization.h, for example), 
; 251  : 	// if not, implement :
; 252  : 	// FDataStream & operator<<(FDataStream &, YourCustomType &)
; 253  : 	Write( kData );

	mov	eax, DWORD PTR _kData$[esp-4]
	push	esi
	push	eax
	mov	esi, ecx
	call	?Write@FDataStream@@IAEXABI@Z		; FDataStream::Write

; 254  : 	return ( *this );

	mov	eax, esi
	pop	esi

; 255  : }

	ret	4
??$?6I@FDataStream@@QAEAAV0@ABI@Z ENDP			; FDataStream::operator<<<unsigned int>
_TEXT	ENDS
PUBLIC	?ReadHashed@CvInfosSerializationHelper@@YAHAAVFDataStream@@PA_N@Z ; CvInfosSerializationHelper::ReadHashed
EXTRN	?LogMessage@CvGlobals@@QAEXPBD@Z:PROC		; CvGlobals::LogMessage
EXTRN	?getInfoTypeForHash@CvGlobals@@QBEHI_N@Z:PROC	; CvGlobals::getInfoTypeForHash
EXTRN	?gGlobals@@3VCvGlobals@@A:BYTE			; gGlobals
;	COMDAT xdata$x
; File c:\users\enormousapplepie\documents\github\lekmod\lekmod_dll\cvgamecoredllutil\include\cvstring.h
xdata$x	SEGMENT
__unwindtable$?ReadHashed@CvInfosSerializationHelper@@YAHAAVFDataStream@@PA_N@Z DD 0ffffffffH
	DD	FLAT:__unwindfunclet$?ReadHashed@CvInfosSerializationHelper@@YAHAAVFDataStream@@PA_N@Z$0
__ehfuncinfo$?ReadHashed@CvInfosSerializationHelper@@YAHAAVFDataStream@@PA_N@Z DD 019930522H
	DD	01H
	DD	FLAT:__unwindtable$?ReadHashed@CvInfosSerializationHelper@@YAHAAVFDataStream@@PA_N@Z
	DD	2 DUP(00H)
	DD	2 DUP(00H)
	DD	00H
	DD	01H
; Function compile flags: /Ogtpy
; File c:\users\enormousapplepie\documents\github\lekmod\lekmod_dll\cvgamecoredll_expansion2\cvinfosserializationhelper.cpp
xdata$x	ENDS
;	COMDAT ?ReadHashed@CvInfosSerializationHelper@@YAHAAVFDataStream@@PA_N@Z
_TEXT	SEGMENT
_szError$218135 = -40					; size = 28
__$EHRec$ = -12						; size = 12
_kStream$ = 8						; size = 4
_uiHash$ = 12						; size = 4
_bValid$ = 12						; size = 4
?ReadHashed@CvInfosSerializationHelper@@YAHAAVFDataStream@@PA_N@Z PROC ; CvInfosSerializationHelper::ReadHashed, COMDAT

; 169  : {

	mov	eax, DWORD PTR fs:0
	push	-1
	push	__ehhandler$?ReadHashed@CvInfosSerializationHelper@@YAHAAVFDataStream@@PA_N@Z
	push	eax
	mov	DWORD PTR fs:0, esp
	sub	esp, 28					; 0000001cH
	push	esi

; 170  : 	uint uiHash;
; 171  : 	if(bValid) *bValid = true;

	mov	esi, DWORD PTR _bValid$[esp+40]
	test	esi, esi
	je	SHORT $LN5@ReadHashed
	mov	BYTE PTR [esi], 1
$LN5@ReadHashed:

; 172  : 	kStream >> uiHash;

	mov	ecx, DWORD PTR _kStream$[esp+40]
	lea	eax, DWORD PTR _uiHash$[esp+40]
	push	eax
	call	?Read@FDataStream@@IAEXAAI@Z		; FDataStream::Read

; 173  : 	if(uiHash != 0)

	mov	eax, DWORD PTR _uiHash$[esp+40]
	test	eax, eax
	je	SHORT $LN2@ReadHashed

; 174  : 	{
; 175  : 		int iType = GC.getInfoTypeForHash(uiHash);

	push	0
	push	eax
	mov	ecx, OFFSET ?gGlobals@@3VCvGlobals@@A	; gGlobals
	call	?getInfoTypeForHash@CvGlobals@@QBEHI_N@Z ; CvGlobals::getInfoTypeForHash

; 176  : 		if(iType != -1)

	cmp	eax, -1

; 177  : 		{
; 178  : 			return iType;

	jne	SHORT $LN6@ReadHashed

; 179  : 		}
; 180  : 		else
; 181  : 		{
; 182  : 			CvString szError;

	lea	ecx, DWORD PTR _szError$218135[esp+44]
	call	DWORD PTR __imp_??0?$basic_string@DU?$char_traits@D@std@@V?$allocator@D@2@@std@@QAE@XZ

; 183  : 			szError.Format("LOAD ERROR: Type not found for hash: %u", uiHash);

	mov	ecx, DWORD PTR _uiHash$[esp+40]
	push	ecx
	lea	edx, DWORD PTR _szError$218135[esp+48]
	push	OFFSET $SG218136
	push	edx
	mov	DWORD PTR __$EHRec$[esp+64], 0
	call	?Format@CvString@@QAAXPBDZZ		; CvString::Format
	add	esp, 12					; 0000000cH

; 184  : 			GC.LogMessage(szError.GetCString());

	lea	ecx, DWORD PTR _szError$218135[esp+44]
	call	DWORD PTR __imp_?c_str@?$basic_string@DU?$char_traits@D@std@@V?$allocator@D@2@@std@@QBEPBDXZ
	push	eax
	mov	ecx, OFFSET ?gGlobals@@3VCvGlobals@@A	; gGlobals
	call	?LogMessage@CvGlobals@@QAEXPBD@Z	; CvGlobals::LogMessage

; 185  : 			CvAssertMsg(false, szError);
; 186  : 			if(bValid) *bValid = false;

	test	esi, esi
	je	SHORT $LN1@ReadHashed
	mov	BYTE PTR [esi], 0
$LN1@ReadHashed:

; 187  : 		}

	lea	ecx, DWORD PTR _szError$218135[esp+44]
	mov	DWORD PTR __$EHRec$[esp+52], -1
	call	DWORD PTR __imp_??1?$basic_string@DU?$char_traits@D@std@@V?$allocator@D@2@@std@@QAE@XZ
$LN2@ReadHashed:

; 188  : 	}
; 189  : 
; 190  : 	return -1;

	or	eax, -1
$LN6@ReadHashed:

; 191  : }

	mov	ecx, DWORD PTR __$EHRec$[esp+44]
	pop	esi
	mov	DWORD PTR fs:0, ecx
	add	esp, 40					; 00000028H
	ret	0
_TEXT	ENDS
;	COMDAT text$x
text$x	SEGMENT
__unwindfunclet$?ReadHashed@CvInfosSerializationHelper@@YAHAAVFDataStream@@PA_N@Z$0:
	lea	ecx, DWORD PTR _szError$218135[ebp]
	jmp	??1CvString@@QAE@XZ			; CvString::~CvString
__ehhandler$?ReadHashed@CvInfosSerializationHelper@@YAHAAVFDataStream@@PA_N@Z:
	mov	eax, OFFSET __ehfuncinfo$?ReadHashed@CvInfosSerializationHelper@@YAHAAVFDataStream@@PA_N@Z
	jmp	___CxxFrameHandler3
text$x	ENDS
?ReadHashed@CvInfosSerializationHelper@@YAHAAVFDataStream@@PA_N@Z ENDP ; CvInfosSerializationHelper::ReadHashed
PUBLIC	??0FStringA@@QAE@XZ				; FStringA::FStringA
; Function compile flags: /Ogtpy
; File c:\users\enormousapplepie\documents\github\lekmod\lekmod_dll\fireplace\include\fireworks\fstringa.inl
;	COMDAT ??0FStringA@@QAE@XZ
_TEXT	SEGMENT
??0FStringA@@QAE@XZ PROC				; FStringA::FStringA, COMDAT
; _this$ = ecx

; 85   : {

	push	esi
	mov	esi, ecx

; 86   : 	Init();

	call	?FStringA_GetStringInitData@@YAPAUFStringAData@FStringA@@XZ ; FStringA_GetStringInitData
	add	eax, 12					; 0000000cH
	mov	DWORD PTR [esi], eax

; 87   : }

	mov	eax, esi
	pop	esi
	ret	0
??0FStringA@@QAE@XZ ENDP				; FStringA::FStringA
_TEXT	ENDS
PUBLIC	??4FStringA@@QAEABV0@PBD@Z			; FStringA::operator=
EXTRN	?Copy@FStringA@@QAEXHPBDH@Z:PROC		; FStringA::Copy
; Function compile flags: /Ogtpy
;	COMDAT ??4FStringA@@QAEABV0@PBD@Z
_TEXT	SEGMENT
_lpszSource$ = 8					; size = 4
??4FStringA@@QAEABV0@PBD@Z PROC				; FStringA::operator=, COMDAT
; _this$ = ecx

; 181  : 	Copy( SafeStrlen( lpszSource ), lpszSource );

	mov	edx, DWORD PTR _lpszSource$[esp-4]
	push	esi
	mov	esi, ecx
	test	edx, edx
	je	SHORT $LN5@operator
	mov	eax, edx
	push	edi
	lea	edi, DWORD PTR [eax+1]
$LL7@operator:
	mov	cl, BYTE PTR [eax]
	inc	eax
	test	cl, cl
	jne	SHORT $LL7@operator
	sub	eax, edi
	pop	edi
	push	0
	push	edx
	push	eax
	mov	ecx, esi
	call	?Copy@FStringA@@QAEXHPBDH@Z		; FStringA::Copy

; 182  : 
; 183  : 	return ( *this );

	mov	eax, esi
	pop	esi

; 184  : }

	ret	4

; 181  : 	Copy( SafeStrlen( lpszSource ), lpszSource );

$LN5@operator:
	xor	eax, eax
	push	eax
	push	edx
	push	eax
	mov	ecx, esi
	call	?Copy@FStringA@@QAEXHPBDH@Z		; FStringA::Copy

; 182  : 
; 183  : 	return ( *this );

	mov	eax, esi
	pop	esi

; 184  : }

	ret	4
??4FStringA@@QAEABV0@PBD@Z ENDP				; FStringA::operator=
_TEXT	ENDS
PUBLIC	??9FStringA@@QBE_NPBD@Z				; FStringA::operator!=
; Function compile flags: /Ogtpy
;	COMDAT ??9FStringA@@QBE_NPBD@Z
_TEXT	SEGMENT
_s2$ = 8						; size = 4
??9FStringA@@QBE_NPBD@Z PROC				; FStringA::operator!=, COMDAT
; _this$ = ecx

; 413  : 	return ( Compare( s2 ) != 0 );

	mov	edx, DWORD PTR _s2$[esp-4]
	mov	eax, DWORD PTR [ecx]
$LL5@operator@2:
	mov	cl, BYTE PTR [eax]
	cmp	cl, BYTE PTR [edx]
	jne	SHORT $LN6@operator@2
	test	cl, cl
	je	SHORT $LN7@operator@2
	mov	cl, BYTE PTR [eax+1]
	cmp	cl, BYTE PTR [edx+1]
	jne	SHORT $LN6@operator@2
	add	eax, 2
	add	edx, 2
	test	cl, cl
	jne	SHORT $LL5@operator@2
$LN7@operator@2:
	xor	eax, eax
	xor	ecx, ecx
	test	eax, eax
	setne	cl
	mov	al, cl

; 414  : }

	ret	4
$LN6@operator@2:

; 413  : 	return ( Compare( s2 ) != 0 );

	sbb	eax, eax
	sbb	eax, -1
	xor	ecx, ecx
	test	eax, eax
	setne	cl
	mov	al, cl

; 414  : }

	ret	4
??9FStringA@@QBE_NPBD@Z ENDP				; FStringA::operator!=
_TEXT	ENDS
PUBLIC	??BFStringA@@QBEPBDXZ				; FStringA::operator char const *
; Function compile flags: /Ogtpy
;	COMDAT ??BFStringA@@QBEPBDXZ
_TEXT	SEGMENT
??BFStringA@@QBEPBDXZ PROC				; FStringA::operator char const *, COMDAT
; _this$ = ecx

; 570  : 	return ( GetCString() );

	mov	eax, DWORD PTR [ecx]

; 571  : }

	ret	0
??BFStringA@@QBEPBDXZ ENDP				; FStringA::operator char const *
_TEXT	ENDS
PUBLIC	?Hash@FStringA@@SAIPBD@Z			; FStringA::Hash
EXTRN	?Calc@FCRC@@QBEKPBXHK@Z:PROC			; FCRC::Calc
EXTRN	?g_CRC32@@3VFCRC@@A:BYTE			; g_CRC32
; Function compile flags: /Ogtpy
;	COMDAT ?Hash@FStringA@@SAIPBD@Z
_TEXT	SEGMENT
_pszStr$ = 8						; size = 4
?Hash@FStringA@@SAIPBD@Z PROC				; FStringA::Hash, COMDAT

; 998  : {

	push	esi

; 999  : 	FAssert(pszStr != NULL);
; 1000 : 	return ( g_CRC32.Calc( ( void* )pszStr, SafeStrlen(pszStr) * sizeof ( char ) ) );

	mov	esi, DWORD PTR _pszStr$[esp]
	test	esi, esi
	je	SHORT $LN5@Hash
	mov	eax, esi
	lea	edx, DWORD PTR [eax+1]
	npad	2
$LL7@Hash:
	mov	cl, BYTE PTR [eax]
	inc	eax
	test	cl, cl
	jne	SHORT $LL7@Hash
	push	-1
	sub	eax, edx
	push	eax
	push	esi
	mov	ecx, OFFSET ?g_CRC32@@3VFCRC@@A		; g_CRC32
	call	?Calc@FCRC@@QBEKPBXHK@Z			; FCRC::Calc
	pop	esi

; 1001 : }

	ret	0

; 999  : 	FAssert(pszStr != NULL);
; 1000 : 	return ( g_CRC32.Calc( ( void* )pszStr, SafeStrlen(pszStr) * sizeof ( char ) ) );

$LN5@Hash:
	push	-1
	xor	eax, eax
	push	eax
	push	esi
	mov	ecx, OFFSET ?g_CRC32@@3VFCRC@@A		; g_CRC32
	call	?Calc@FCRC@@QBEKPBXHK@Z			; FCRC::Calc
	pop	esi

; 1001 : }

	ret	0
?Hash@FStringA@@SAIPBD@Z ENDP				; FStringA::Hash
_TEXT	ENDS
PUBLIC	?Release@FStringA@@QAEXXZ			; FStringA::Release
; Function compile flags: /Ogtpy
;	COMDAT ?Release@FStringA@@QAEXXZ
_TEXT	SEGMENT
?Release@FStringA@@QAEXXZ PROC				; FStringA::Release, COMDAT
; _this$ = ecx

; 1096 : {

	push	esi
	push	edi
	mov	edi, ecx

; 1097 : 	Release( GetData() );

	mov	esi, DWORD PTR [edi]
	sub	esi, 12					; 0000000cH
	je	SHORT $LN5@Release@2
	call	?FStringA_GetStringInitData@@YAPAUFStringAData@FStringA@@XZ ; FStringA_GetStringInitData
	cmp	esi, eax
	je	SHORT $LN5@Release@2
	cmp	WORD PTR [esi+10], 0
	jne	SHORT $LN5@Release@2
	push	esi
	call	??_V@YAXPAX@Z				; operator delete[]
	add	esp, 4
$LN5@Release@2:

; 1098 : 	m_pszString = NULL;

	mov	DWORD PTR [edi], 0

; 1099 : 	Init();

	call	?FStringA_GetStringInitData@@YAPAUFStringAData@FStringA@@XZ ; FStringA_GetStringInitData
	add	eax, 12					; 0000000cH
	mov	DWORD PTR [edi], eax
	pop	edi
	pop	esi

; 1100 : }

	ret	0
?Release@FStringA@@QAEXXZ ENDP				; FStringA::Release
_TEXT	ENDS
PUBLIC	?SetFixedBuffer@FStringA@@QAEXPAUFStringAData@1@@Z ; FStringA::SetFixedBuffer
; Function compile flags: /Ogtpy
;	COMDAT ?SetFixedBuffer@FStringA@@QAEXPAUFStringAData@1@@Z
_TEXT	SEGMENT
_pkData$ = 8						; size = 4
?SetFixedBuffer@FStringA@@QAEXPAUFStringAData@1@@Z PROC	; FStringA::SetFixedBuffer, COMDAT
; _this$ = ecx

; 1122 : {

	push	ebx

; 1123 : 	assert( pkData != NULL );
; 1124 : 	if(!pkData) return;

	mov	ebx, DWORD PTR _pkData$[esp]
	push	edi
	mov	edi, ecx
	test	ebx, ebx
	je	SHORT $LN2@SetFixedBu
	push	esi

; 1125 : 	assert( pkData->m_bFixed == 1 );
; 1126 : 	assert( pkData->m_iAllocLength > 0 );
; 1127 : 	Release();

	mov	esi, DWORD PTR [edi]
	sub	esi, 12					; 0000000cH
	je	SHORT $LN8@SetFixedBu
	call	?FStringA_GetStringInitData@@YAPAUFStringAData@FStringA@@XZ ; FStringA_GetStringInitData
	cmp	esi, eax
	je	SHORT $LN8@SetFixedBu
	cmp	WORD PTR [esi+10], 0
	jne	SHORT $LN8@SetFixedBu
	push	esi
	call	??_V@YAXPAX@Z				; operator delete[]
	add	esp, 4
$LN8@SetFixedBu:
	mov	DWORD PTR [edi], 0
	call	?FStringA_GetStringInitData@@YAPAUFStringAData@FStringA@@XZ ; FStringA_GetStringInitData

; 1128 : 	m_pszString = pkData->StringData();

	add	ebx, 12					; 0000000cH
	mov	DWORD PTR [edi], ebx
	pop	esi
$LN2@SetFixedBu:
	pop	edi
	pop	ebx

; 1129 : }

	ret	4
?SetFixedBuffer@FStringA@@QAEXPAUFStringAData@1@@Z ENDP	; FStringA::SetFixedBuffer
_TEXT	ENDS
PUBLIC	?WriteHashed@CvInfosSerializationHelper@@YA_NAAVFDataStream@@PBVCvBaseInfo@@@Z ; CvInfosSerializationHelper::WriteHashed
; Function compile flags: /Ogtpy
; File c:\users\enormousapplepie\documents\github\lekmod\lekmod_dll\cvgamecoredll_expansion2\cvinfosserializationhelper.cpp
;	COMDAT ?WriteHashed@CvInfosSerializationHelper@@YA_NAAVFDataStream@@PBVCvBaseInfo@@@Z
_TEXT	SEGMENT
_uiHash$ = -4						; size = 4
_kStream$ = 8						; size = 4
_uiHash$218600 = 12					; size = 4
_pkInfo$ = 12						; size = 4
?WriteHashed@CvInfosSerializationHelper@@YA_NAAVFDataStream@@PBVCvBaseInfo@@@Z PROC ; CvInfosSerializationHelper::WriteHashed, COMDAT

; 287  : {

	push	ecx

; 288  : 	if(pkInfo && pkInfo->GetType() && pkInfo->GetType()[0] != 0)

	mov	eax, DWORD PTR _pkInfo$[esp]
	push	esi
	test	eax, eax
	je	SHORT $LN1@WriteHashe
	lea	esi, DWORD PTR [eax+176]
	mov	ecx, esi
	call	DWORD PTR __imp_?c_str@?$basic_string@DU?$char_traits@D@std@@V?$allocator@D@2@@std@@QBEPBDXZ
	test	eax, eax
	je	SHORT $LN1@WriteHashe
	mov	ecx, esi
	call	DWORD PTR __imp_?c_str@?$basic_string@DU?$char_traits@D@std@@V?$allocator@D@2@@std@@QBEPBDXZ
	cmp	BYTE PTR [eax], 0
	je	SHORT $LN1@WriteHashe

; 289  : 	{
; 290  : 		uint uiHash = FString::Hash(pkInfo->GetType());

	mov	ecx, esi
	call	DWORD PTR __imp_?c_str@?$basic_string@DU?$char_traits@D@std@@V?$allocator@D@2@@std@@QBEPBDXZ
	push	eax
	call	?Hash@FStringA@@SAIPBD@Z		; FStringA::Hash

; 291  : 		kStream << uiHash;

	mov	ecx, DWORD PTR _kStream$[esp+8]
	mov	DWORD PTR _uiHash$218600[esp+8], eax
	add	esp, 4
	lea	eax, DWORD PTR _uiHash$218600[esp+4]
	push	eax
	call	?Write@FDataStream@@IAEXABI@Z		; FDataStream::Write

; 292  : 		return true;

	mov	al, 1
	pop	esi

; 298  : }

	pop	ecx
	ret	0
$LN1@WriteHashe:

; 293  : 	}
; 294  : 
; 295  : 	uint uiHash = 0;		// 0 hash == missing type
; 296  : 	kStream << uiHash;

	lea	ecx, DWORD PTR _uiHash$[esp+8]
	push	ecx
	mov	ecx, DWORD PTR _kStream$[esp+8]
	mov	DWORD PTR _uiHash$[esp+12], 0
	call	?Write@FDataStream@@IAEXABI@Z		; FDataStream::Write

; 297  : 	return false;

	xor	al, al
	pop	esi

; 298  : }

	pop	ecx
	ret	0
?WriteHashed@CvInfosSerializationHelper@@YA_NAAVFDataStream@@PBVCvBaseInfo@@@Z ENDP ; CvInfosSerializationHelper::WriteHashed
_TEXT	ENDS
PUBLIC	??0?$FStringAFixedBuffer@$0BAA@@FStringA@@QAE@AAV1@@Z ; FStringA::FStringAFixedBuffer<256>::FStringAFixedBuffer<256>
; Function compile flags: /Ogtpy
; File c:\users\enormousapplepie\documents\github\lekmod\lekmod_dll\fireplace\include\fireworks\fstringa.inl
;	COMDAT ??0?$FStringAFixedBuffer@$0BAA@@FStringA@@QAE@AAV1@@Z
_TEXT	SEGMENT
_str$ = 8						; size = 4
??0?$FStringAFixedBuffer@$0BAA@@FStringA@@QAE@AAV1@@Z PROC ; FStringA::FStringAFixedBuffer<256>::FStringAFixedBuffer<256>, COMDAT
; _this$ = ecx

; 58   : {

	push	ebx
	push	ebp

; 59   : 	assert( nLENGTH > 0 );
; 60   : 	m_kStringData.m_bLocked = 0;
; 61   : 	m_kStringData.m_bFixed = 1;
; 62   : 	m_kStringData.m_iAllocLength = nLENGTH;
; 63   : 	m_kStringData.m_iDataLength = 0;
; 64   : 	m_szStringBuffer[ 0 ] = 0;
; 65   : 	str.SetFixedBuffer( &m_kStringData );

	mov	ebp, DWORD PTR _str$[esp+4]
	push	esi
	mov	esi, ecx
	xor	eax, eax
	mov	ecx, 1
	lea	ebx, DWORD PTR [esi+12]
	push	edi
	mov	WORD PTR [esi+8], ax
	mov	WORD PTR [esi+10], cx
	mov	DWORD PTR [esi], 256			; 00000100H
	mov	DWORD PTR [esi+4], eax
	mov	BYTE PTR [ebx], al
	mov	edi, DWORD PTR [ebp]
	sub	edi, 12					; 0000000cH
	je	SHORT $LN19@FStringAFi
	call	?FStringA_GetStringInitData@@YAPAUFStringAData@FStringA@@XZ ; FStringA_GetStringInitData
	cmp	edi, eax
	je	SHORT $LN19@FStringAFi
	cmp	WORD PTR [edi+10], 0
	jne	SHORT $LN19@FStringAFi
	push	edi
	call	??_V@YAXPAX@Z				; operator delete[]
	add	esp, 4
$LN19@FStringAFi:
	mov	DWORD PTR [ebp], 0
	call	?FStringA_GetStringInitData@@YAPAUFStringAData@FStringA@@XZ ; FStringA_GetStringInitData
	pop	edi

; 66   : }

	mov	eax, esi
	pop	esi
	mov	DWORD PTR [ebp], ebx
	pop	ebp
	pop	ebx
	ret	4
??0?$FStringAFixedBuffer@$0BAA@@FStringA@@QAE@AAV1@@Z ENDP ; FStringA::FStringAFixedBuffer<256>::FStringAFixedBuffer<256>
_TEXT	ENDS
PUBLIC	??1FStringA@@QAE@XZ				; FStringA::~FStringA
; Function compile flags: /Ogtpy
;	COMDAT ??1FStringA@@QAE@XZ
_TEXT	SEGMENT
??1FStringA@@QAE@XZ PROC				; FStringA::~FStringA, COMDAT
; _this$ = ecx

; 151  : {

	push	esi
	push	edi
	mov	edi, ecx

; 152  : 	Release();

	mov	esi, DWORD PTR [edi]
	sub	esi, 12					; 0000000cH
	je	SHORT $LN7@FStringA
	call	?FStringA_GetStringInitData@@YAPAUFStringAData@FStringA@@XZ ; FStringA_GetStringInitData
	cmp	esi, eax
	je	SHORT $LN7@FStringA
	cmp	WORD PTR [esi+10], 0
	jne	SHORT $LN7@FStringA
	push	esi
	call	??_V@YAXPAX@Z				; operator delete[]
	add	esp, 4
$LN7@FStringA:
	mov	DWORD PTR [edi], 0
	call	?FStringA_GetStringInitData@@YAPAUFStringAData@FStringA@@XZ ; FStringA_GetStringInitData
	add	eax, 12					; 0000000cH
	mov	DWORD PTR [edi], eax
	pop	edi
	pop	esi

; 153  : }

	ret	0
??1FStringA@@QAE@XZ ENDP				; FStringA::~FStringA
_TEXT	ENDS
PUBLIC	?Read@CvInfosSerializationHelper@@YAHAAVFDataStream@@PA_N@Z ; CvInfosSerializationHelper::Read
EXTRN	?getInfoTypeForString@CvGlobals@@QBEHPBD_N@Z:PROC ; CvGlobals::getInfoTypeForString
;	COMDAT xdata$x
xdata$x	SEGMENT
__unwindtable$?Read@CvInfosSerializationHelper@@YAHAAVFDataStream@@PA_N@Z DD 0ffffffffH
	DD	FLAT:__unwindfunclet$?Read@CvInfosSerializationHelper@@YAHAAVFDataStream@@PA_N@Z$0
	DD	00H
	DD	FLAT:__unwindfunclet$?Read@CvInfosSerializationHelper@@YAHAAVFDataStream@@PA_N@Z$1
__ehfuncinfo$?Read@CvInfosSerializationHelper@@YAHAAVFDataStream@@PA_N@Z DD 019930522H
	DD	02H
	DD	FLAT:__unwindtable$?Read@CvInfosSerializationHelper@@YAHAAVFDataStream@@PA_N@Z
	DD	2 DUP(00H)
	DD	2 DUP(00H)
	DD	00H
	DD	01H
; Function compile flags: /Ogtpy
; File c:\users\enormousapplepie\documents\github\lekmod\lekmod_dll\cvgamecoredll_expansion2\cvinfosserializationhelper.cpp
xdata$x	ENDS
;	COMDAT ?Read@CvInfosSerializationHelper@@YAHAAVFDataStream@@PA_N@Z
_TEXT	SEGMENT
_sTemp$ = -312						; size = 4
_szError$218122 = -308					; size = 28
_FStringFixedBuffer_sTemp$ = -280			; size = 268
__$EHRec$ = -12						; size = 12
_kStream$ = 8						; size = 4
_bValid$ = 12						; size = 4
?Read@CvInfosSerializationHelper@@YAHAAVFDataStream@@PA_N@Z PROC ; CvInfosSerializationHelper::Read, COMDAT

; 139  : {

	push	-1
	push	__ehhandler$?Read@CvInfosSerializationHelper@@YAHAAVFDataStream@@PA_N@Z
	mov	eax, DWORD PTR fs:0
	push	eax
	mov	DWORD PTR fs:0, esp
	sub	esp, 300				; 0000012cH
	push	esi
	push	edi

; 140  : 	FStringFixedBuffer(sTemp, 256);

	call	?FStringA_GetStringInitData@@YAPAUFStringAData@FStringA@@XZ ; FStringA_GetStringInitData
	add	eax, 12					; 0000000cH
	mov	DWORD PTR _sTemp$[esp+320], eax
	lea	eax, DWORD PTR _sTemp$[esp+320]
	push	eax
	lea	ecx, DWORD PTR _FStringFixedBuffer_sTemp$[esp+324]
	mov	DWORD PTR __$EHRec$[esp+332], 0
	call	??0?$FStringAFixedBuffer@$0BAA@@FStringA@@QAE@AAV1@@Z ; FStringA::FStringAFixedBuffer<256>::FStringAFixedBuffer<256>

; 141  : 	kStream >> sTemp;

	lea	ecx, DWORD PTR _sTemp$[esp+320]
	push	ecx
	mov	ecx, DWORD PTR _kStream$[esp+320]
	call	?Read@FDataStream@@IAEXAAVFStringA@@@Z	; FDataStream::Read

; 142  : 	if(bValid) *bValid = true;

	mov	edi, DWORD PTR _bValid$[esp+316]
	test	edi, edi
	je	SHORT $LN5@Read
	mov	BYTE PTR [edi], 1
$LN5@Read:

; 143  : 	if(sTemp.GetLength() > 0 && sTemp != "NO_TYPE")

	mov	esi, DWORD PTR _sTemp$[esp+320]
	mov	eax, DWORD PTR [esi-8]
	test	eax, eax
	jle	$LN2@Read
	mov	ecx, OFFSET $SG218116
	mov	eax, esi
$LL51@Read:
	mov	dl, BYTE PTR [eax]
	cmp	dl, BYTE PTR [ecx]
	jne	SHORT $LN52@Read
	test	dl, dl
	je	SHORT $LN53@Read
	mov	dl, BYTE PTR [eax+1]
	cmp	dl, BYTE PTR [ecx+1]
	jne	SHORT $LN52@Read
	add	eax, 2
	add	ecx, 2
	test	dl, dl
	jne	SHORT $LL51@Read
$LN53@Read:
	xor	eax, eax
	jmp	SHORT $LN54@Read
$LN52@Read:
	sbb	eax, eax
	sbb	eax, -1
$LN54@Read:
	test	eax, eax
	je	$LN2@Read

; 144  : 	{
; 145  : 		int iType = GC.getInfoTypeForString(sTemp);

	push	0
	push	esi
	mov	ecx, OFFSET ?gGlobals@@3VCvGlobals@@A	; gGlobals
	call	?getInfoTypeForString@CvGlobals@@QBEHPBD_N@Z ; CvGlobals::getInfoTypeForString
	mov	esi, eax

; 146  : 		if(iType != -1)

	cmp	esi, -1
	je	SHORT $LN3@Read

; 147  : 		{
; 148  : 			return iType;

	lea	ecx, DWORD PTR _sTemp$[esp+320]
	mov	DWORD PTR __$EHRec$[esp+328], -1
	call	??1FStringA@@QAE@XZ			; FStringA::~FStringA
	pop	edi
	mov	eax, esi
	pop	esi

; 165  : }

	mov	ecx, DWORD PTR __$EHRec$[esp+312]
	mov	DWORD PTR fs:0, ecx
	add	esp, 312				; 00000138H
	ret	0
$LN3@Read:

; 149  : 		}
; 150  : 		else
; 151  : 		{
; 152  : 			if(bValid) *bValid = false;

	test	edi, edi
	je	SHORT $LN1@Read
	mov	BYTE PTR [edi], 0
$LN1@Read:

; 153  : 			CvString szError;

	lea	ecx, DWORD PTR _szError$218122[esp+320]
	call	DWORD PTR __imp_??0?$basic_string@DU?$char_traits@D@std@@V?$allocator@D@2@@std@@QAE@XZ

; 154  : #ifdef AUI_WARNING_FIXES
; 155  : 			szError.Format("LOAD ERROR: Type not found: %s", sTemp.GetCString());
; 156  : #else
; 157  : 			szError.Format("LOAD ERROR: Type not found: %s", sTemp);

	mov	edx, DWORD PTR _sTemp$[esp+320]
	push	edx
	lea	eax, DWORD PTR _szError$218122[esp+324]
	push	OFFSET $SG218123
	push	eax
	mov	BYTE PTR __$EHRec$[esp+340], 1
	call	?Format@CvString@@QAAXPBDZZ		; CvString::Format
	add	esp, 12					; 0000000cH

; 158  : #endif
; 159  : 			GC.LogMessage(szError.GetCString());

	lea	ecx, DWORD PTR _szError$218122[esp+320]
	call	DWORD PTR __imp_?c_str@?$basic_string@DU?$char_traits@D@std@@V?$allocator@D@2@@std@@QBEPBDXZ
	push	eax
	mov	ecx, OFFSET ?gGlobals@@3VCvGlobals@@A	; gGlobals
	call	?LogMessage@CvGlobals@@QAEXPBD@Z	; CvGlobals::LogMessage

; 160  : 			CvAssertMsg(false, szError);
; 161  : 		}

	lea	ecx, DWORD PTR _szError$218122[esp+320]
	mov	BYTE PTR __$EHRec$[esp+328], 0
	call	DWORD PTR __imp_??1?$basic_string@DU?$char_traits@D@std@@V?$allocator@D@2@@std@@QAE@XZ
	mov	esi, DWORD PTR _sTemp$[esp+320]
$LN2@Read:

; 162  : 	}
; 163  : 
; 164  : 	return -1;

	add	esi, -12				; fffffff4H
	mov	DWORD PTR __$EHRec$[esp+328], -1
	je	SHORT $LN44@Read
	call	?FStringA_GetStringInitData@@YAPAUFStringAData@FStringA@@XZ ; FStringA_GetStringInitData
	cmp	esi, eax
	je	SHORT $LN44@Read
	cmp	WORD PTR [esi+10], 0
	jne	SHORT $LN44@Read
	push	esi
	call	??_V@YAXPAX@Z				; operator delete[]
	add	esp, 4
$LN44@Read:
	mov	DWORD PTR _sTemp$[esp+320], 0
	call	?FStringA_GetStringInitData@@YAPAUFStringAData@FStringA@@XZ ; FStringA_GetStringInitData

; 165  : }

	mov	ecx, DWORD PTR __$EHRec$[esp+320]
	pop	edi
	or	eax, -1
	pop	esi
	mov	DWORD PTR fs:0, ecx
	add	esp, 312				; 00000138H
	ret	0
_TEXT	ENDS
;	COMDAT text$x
text$x	SEGMENT
__unwindfunclet$?Read@CvInfosSerializationHelper@@YAHAAVFDataStream@@PA_N@Z$0:
	lea	ecx, DWORD PTR _sTemp$[ebp]
	jmp	??1FStringA@@QAE@XZ			; FStringA::~FStringA
__unwindfunclet$?Read@CvInfosSerializationHelper@@YAHAAVFDataStream@@PA_N@Z$1:
	lea	ecx, DWORD PTR _szError$218122[ebp]
	jmp	??1CvString@@QAE@XZ			; CvString::~CvString
__ehhandler$?Read@CvInfosSerializationHelper@@YAHAAVFDataStream@@PA_N@Z:
	mov	eax, OFFSET __ehfuncinfo$?Read@CvInfosSerializationHelper@@YAHAAVFDataStream@@PA_N@Z
	jmp	___CxxFrameHandler3
text$x	ENDS
?Read@CvInfosSerializationHelper@@YAHAAVFDataStream@@PA_N@Z ENDP ; CvInfosSerializationHelper::Read
PUBLIC	?ReadDBLookup@CvInfosSerializationHelper@@YAHAAVFDataStream@@PBDPA_N@Z ; CvInfosSerializationHelper::ReadDBLookup
EXTRN	__imp_??1Results@Database@@UAE@XZ:PROC
EXTRN	__imp_?GetInt@Results@Database@@QAEHH@Z:PROC
EXTRN	__imp_?Step@Results@Database@@QAE_NXZ:PROC
EXTRN	__imp_?Bind@Results@Database@@QAE_NHPBD_N@Z:PROC
EXTRN	__imp_?Execute@Connection@Database@@QBE_NAAVResults@2@PBDH@Z:PROC
EXTRN	__imp_??0Results@Database@@QAE@PBD@Z:PROC
;	COMDAT xdata$x
; File c:\users\enormousapplepie\documents\github\lekmod\lekmod_dll\fireplace\include\fireworks\fstringa.inl
xdata$x	SEGMENT
__unwindtable$?ReadDBLookup@CvInfosSerializationHelper@@YAHAAVFDataStream@@PBDPA_N@Z DD 0ffffffffH
	DD	FLAT:__unwindfunclet$?ReadDBLookup@CvInfosSerializationHelper@@YAHAAVFDataStream@@PBDPA_N@Z$0
	DD	00H
	DD	FLAT:__unwindfunclet$?ReadDBLookup@CvInfosSerializationHelper@@YAHAAVFDataStream@@PBDPA_N@Z$1
	DD	01H
	DD	FLAT:__unwindfunclet$?ReadDBLookup@CvInfosSerializationHelper@@YAHAAVFDataStream@@PBDPA_N@Z$2
__ehfuncinfo$?ReadDBLookup@CvInfosSerializationHelper@@YAHAAVFDataStream@@PBDPA_N@Z DD 019930522H
	DD	03H
	DD	FLAT:__unwindtable$?ReadDBLookup@CvInfosSerializationHelper@@YAHAAVFDataStream@@PBDPA_N@Z
	DD	2 DUP(00H)
	DD	2 DUP(00H)
	DD	00H
	DD	01H
; Function compile flags: /Ogtpy
; File c:\users\enormousapplepie\documents\github\lekmod\lekmod_dll\cvgamecoredll_expansion2\cvinfosserializationhelper.cpp
xdata$x	ENDS
;	COMDAT ?ReadDBLookup@CvInfosSerializationHelper@@YAHAAVFDataStream@@PBDPA_N@Z
_TEXT	SEGMENT
_sTemp$ = -376						; size = 4
_szCommand$218151 = -372				; size = 28
_kResults$218150 = -344					; size = 64
_FStringFixedBuffer_sTemp$ = -280			; size = 268
__$EHRec$ = -12						; size = 12
_kStream$ = 8						; size = 4
_szTable$ = 12						; size = 4
_bValid$ = 16						; size = 4
?ReadDBLookup@CvInfosSerializationHelper@@YAHAAVFDataStream@@PBDPA_N@Z PROC ; CvInfosSerializationHelper::ReadDBLookup, COMDAT

; 196  : {

	push	-1
	push	__ehhandler$?ReadDBLookup@CvInfosSerializationHelper@@YAHAAVFDataStream@@PBDPA_N@Z
	mov	eax, DWORD PTR fs:0
	push	eax
	mov	DWORD PTR fs:0, esp
	sub	esp, 364				; 0000016cH
	push	ebx
	push	ebp
	push	esi
	push	edi

; 197  : 	FStringFixedBuffer(sTemp, 256);

	call	?FStringA_GetStringInitData@@YAPAUFStringAData@FStringA@@XZ ; FStringA_GetStringInitData
	add	eax, 12					; 0000000cH
	mov	DWORD PTR _sTemp$[esp+392], eax
	lea	eax, DWORD PTR _sTemp$[esp+392]
	xor	ebx, ebx
	push	eax
	lea	ecx, DWORD PTR _FStringFixedBuffer_sTemp$[esp+396]
	mov	DWORD PTR __$EHRec$[esp+404], ebx
	call	??0?$FStringAFixedBuffer@$0BAA@@FStringA@@QAE@AAV1@@Z ; FStringA::FStringAFixedBuffer<256>::FStringAFixedBuffer<256>

; 198  : 	kStream >> sTemp;

	lea	ecx, DWORD PTR _sTemp$[esp+392]
	push	ecx
	mov	ecx, DWORD PTR _kStream$[esp+392]
	call	?Read@FDataStream@@IAEXAAVFStringA@@@Z	; FDataStream::Read

; 199  : 	if (bValid) *bValid = true;

	mov	ebp, DWORD PTR _bValid$[esp+388]
	cmp	ebp, ebx
	je	SHORT $LN9@ReadDBLook
	mov	BYTE PTR [ebp], 1
$LN9@ReadDBLook:

; 200  : 	if(sTemp.GetLength() > 0 && sTemp != "NO_TYPE")

	mov	edi, DWORD PTR _sTemp$[esp+392]
	mov	eax, DWORD PTR [edi-8]
	cmp	eax, ebx
	jle	$LN63@ReadDBLook
	mov	ecx, OFFSET $SG218147
	mov	eax, edi
$LL59@ReadDBLook:
	mov	dl, BYTE PTR [eax]
	cmp	dl, BYTE PTR [ecx]
	jne	SHORT $LN60@ReadDBLook
	cmp	dl, bl
	je	SHORT $LN61@ReadDBLook
	mov	dl, BYTE PTR [eax+1]
	cmp	dl, BYTE PTR [ecx+1]
	jne	SHORT $LN60@ReadDBLook
	add	eax, 2
	add	ecx, 2
	cmp	dl, bl
	jne	SHORT $LL59@ReadDBLook
$LN61@ReadDBLook:
	xor	eax, eax
	jmp	SHORT $LN62@ReadDBLook
$LN60@ReadDBLook:
	sbb	eax, eax
	sbb	eax, -1
$LN62@ReadDBLook:
	cmp	eax, ebx
	je	$LN63@ReadDBLook

; 201  : 	{
; 202  : 		Database::Connection* pDB = GC.GetGameDatabase();

	mov	esi, DWORD PTR ?gGlobals@@3VCvGlobals@@A+912

; 203  : 		if(pDB)

	cmp	esi, ebx
	je	$LN7@ReadDBLook

; 204  : 		{
; 205  : 			Database::Results kResults;

	push	ebx
	lea	ecx, DWORD PTR _kResults$218150[esp+396]
	call	DWORD PTR __imp_??0Results@Database@@QAE@PBD@Z

; 206  : 			CvString szCommand;

	lea	ecx, DWORD PTR _szCommand$218151[esp+392]
	mov	BYTE PTR __$EHRec$[esp+400], 1
	call	DWORD PTR __imp_??0?$basic_string@DU?$char_traits@D@std@@V?$allocator@D@2@@std@@QAE@XZ

; 207  : 			szCommand.Format("SELECT ID from %s where Type = ? LIMIT 1", szTable);

	mov	edx, DWORD PTR _szTable$[esp+388]
	push	edx
	lea	eax, DWORD PTR _szCommand$218151[esp+396]
	push	OFFSET $SG218152
	push	eax
	mov	BYTE PTR __$EHRec$[esp+412], 2
	call	?Format@CvString@@QAAXPBDZZ		; CvString::Format
	add	esp, 12					; 0000000cH

; 208  : 			if(pDB->Execute(kResults, szCommand.c_str()))

	push	-1
	lea	ecx, DWORD PTR _szCommand$218151[esp+396]
	call	DWORD PTR __imp_?c_str@?$basic_string@DU?$char_traits@D@std@@V?$allocator@D@2@@std@@QBEPBDXZ
	push	eax
	lea	ecx, DWORD PTR _kResults$218150[esp+400]
	push	ecx
	mov	ecx, esi
	call	DWORD PTR __imp_?Execute@Connection@Database@@QBE_NAAVResults@2@PBDH@Z
	test	al, al
	je	SHORT $LN3@ReadDBLook

; 209  : 			{
; 210  : 				kResults.Bind(1, sTemp.c_str());

	mov	edx, DWORD PTR _sTemp$[esp+392]
	push	1
	push	edx
	push	1
	lea	ecx, DWORD PTR _kResults$218150[esp+404]
	call	DWORD PTR __imp_?Bind@Results@Database@@QAE_NHPBD_N@Z

; 211  : 				if(kResults.Step())

	lea	ecx, DWORD PTR _kResults$218150[esp+392]
	call	DWORD PTR __imp_?Step@Results@Database@@QAE_NXZ
	test	al, al
	je	SHORT $LN5@ReadDBLook

; 212  : 				{
; 213  : 					return kResults.GetInt(0);

	push	ebx
	lea	ecx, DWORD PTR _kResults$218150[esp+396]
	call	DWORD PTR __imp_?GetInt@Results@Database@@QAEHH@Z
	lea	ecx, DWORD PTR _szCommand$218151[esp+392]
	mov	esi, eax
	mov	BYTE PTR __$EHRec$[esp+400], 1
	call	DWORD PTR __imp_??1?$basic_string@DU?$char_traits@D@std@@V?$allocator@D@2@@std@@QAE@XZ
	lea	ecx, DWORD PTR _kResults$218150[esp+392]
	mov	BYTE PTR __$EHRec$[esp+400], bl
	call	DWORD PTR __imp_??1Results@Database@@UAE@XZ
	lea	ecx, DWORD PTR _sTemp$[esp+392]
	mov	DWORD PTR __$EHRec$[esp+400], -1
	call	??1FStringA@@QAE@XZ			; FStringA::~FStringA
	mov	eax, esi
	jmp	SHORT $LN10@ReadDBLook
$LN5@ReadDBLook:

; 214  : 				}
; 215  : 				else
; 216  : 					if (bValid) *bValid = false;

	cmp	ebp, ebx
	je	SHORT $LN3@ReadDBLook
	mov	BYTE PTR [ebp], bl
$LN3@ReadDBLook:

; 217  : 			}
; 218  : 		}

	lea	ecx, DWORD PTR _szCommand$218151[esp+392]
	mov	BYTE PTR __$EHRec$[esp+400], 1
	call	DWORD PTR __imp_??1?$basic_string@DU?$char_traits@D@std@@V?$allocator@D@2@@std@@QAE@XZ
	lea	ecx, DWORD PTR _kResults$218150[esp+392]
	mov	BYTE PTR __$EHRec$[esp+400], bl
	call	DWORD PTR __imp_??1Results@Database@@UAE@XZ

; 219  : 		else

	mov	edi, DWORD PTR _sTemp$[esp+392]
	jmp	SHORT $LN63@ReadDBLook
$LN7@ReadDBLook:

; 220  : 			if (bValid) *bValid = false;

	cmp	ebp, ebx
	je	SHORT $LN63@ReadDBLook
	mov	BYTE PTR [ebp], bl
$LN63@ReadDBLook:

; 221  : 	}
; 222  : 	
; 223  : 	return -1;

	lea	esi, DWORD PTR [edi-12]
	mov	DWORD PTR __$EHRec$[esp+400], -1
	cmp	esi, ebx
	je	SHORT $LN52@ReadDBLook
	call	?FStringA_GetStringInitData@@YAPAUFStringAData@FStringA@@XZ ; FStringA_GetStringInitData
	cmp	esi, eax
	je	SHORT $LN52@ReadDBLook
	cmp	WORD PTR [esi+10], bx
	jne	SHORT $LN52@ReadDBLook
	push	esi
	call	??_V@YAXPAX@Z				; operator delete[]
	add	esp, 4
$LN52@ReadDBLook:
	mov	DWORD PTR _sTemp$[esp+392], ebx
	call	?FStringA_GetStringInitData@@YAPAUFStringAData@FStringA@@XZ ; FStringA_GetStringInitData
	or	eax, -1
$LN10@ReadDBLook:

; 224  : }

	mov	ecx, DWORD PTR __$EHRec$[esp+392]
	pop	edi
	pop	esi
	pop	ebp
	pop	ebx
	mov	DWORD PTR fs:0, ecx
	add	esp, 376				; 00000178H
	ret	0
_TEXT	ENDS
;	COMDAT text$x
text$x	SEGMENT
__unwindfunclet$?ReadDBLookup@CvInfosSerializationHelper@@YAHAAVFDataStream@@PBDPA_N@Z$0:
	lea	ecx, DWORD PTR _sTemp$[ebp]
	jmp	??1FStringA@@QAE@XZ			; FStringA::~FStringA
__unwindfunclet$?ReadDBLookup@CvInfosSerializationHelper@@YAHAAVFDataStream@@PBDPA_N@Z$1:
	lea	ecx, DWORD PTR _kResults$218150[ebp]
	jmp	DWORD PTR __imp_??1Results@Database@@UAE@XZ
__unwindfunclet$?ReadDBLookup@CvInfosSerializationHelper@@YAHAAVFDataStream@@PBDPA_N@Z$2:
	lea	ecx, DWORD PTR _szCommand$218151[ebp]
	jmp	??1CvString@@QAE@XZ			; CvString::~CvString
__ehhandler$?ReadDBLookup@CvInfosSerializationHelper@@YAHAAVFDataStream@@PBDPA_N@Z:
	mov	eax, OFFSET __ehfuncinfo$?ReadDBLookup@CvInfosSerializationHelper@@YAHAAVFDataStream@@PBDPA_N@Z
	jmp	___CxxFrameHandler3
text$x	ENDS
?ReadDBLookup@CvInfosSerializationHelper@@YAHAAVFDataStream@@PBDPA_N@Z ENDP ; CvInfosSerializationHelper::ReadDBLookup
PUBLIC	?WriteHashed@CvInfosSerializationHelper@@YA_NAAVFDataStream@@W4ResourceTypes@@@Z ; CvInfosSerializationHelper::WriteHashed
EXTRN	?getResourceInfo@CvGlobals@@QAEPAVCvResourceInfo@@W4ResourceTypes@@@Z:PROC ; CvGlobals::getResourceInfo
; Function compile flags: /Ogtpy
;	COMDAT ?WriteHashed@CvInfosSerializationHelper@@YA_NAAVFDataStream@@W4ResourceTypes@@@Z
_TEXT	SEGMENT
_kStream$ = 8						; size = 4
_uiHash$219477 = 12					; size = 4
_eType$ = 12						; size = 4
?WriteHashed@CvInfosSerializationHelper@@YA_NAAVFDataStream@@W4ResourceTypes@@@Z PROC ; CvInfosSerializationHelper::WriteHashed, COMDAT

; 232  : IMPLEMENT_SERIALIZATION_INFO_TYPE_HELPER(ResourceTypes, getResourceInfo, NO_RESOURCE);

	mov	eax, DWORD PTR _eType$[esp-4]
	cmp	eax, -1
	je	SHORT $LN2@WriteHashe@2
	push	eax
	mov	ecx, OFFSET ?gGlobals@@3VCvGlobals@@A	; gGlobals
	call	?getResourceInfo@CvGlobals@@QAEPAVCvResourceInfo@@W4ResourceTypes@@@Z ; CvGlobals::getResourceInfo
	mov	DWORD PTR _eType$[esp-4], eax
	jmp	?WriteHashed@CvInfosSerializationHelper@@YA_NAAVFDataStream@@PBVCvBaseInfo@@@Z ; CvInfosSerializationHelper::WriteHashed
$LN2@WriteHashe@2:
	lea	ecx, DWORD PTR _uiHash$219477[esp-4]
	push	ecx
	mov	ecx, DWORD PTR _kStream$[esp]
	mov	DWORD PTR _uiHash$219477[esp], 0
	call	?Write@FDataStream@@IAEXABI@Z		; FDataStream::Write
	xor	al, al
	ret	0
?WriteHashed@CvInfosSerializationHelper@@YA_NAAVFDataStream@@W4ResourceTypes@@@Z ENDP ; CvInfosSerializationHelper::WriteHashed
_TEXT	ENDS
PUBLIC	?WriteHashed@CvInfosSerializationHelper@@YA_NAAVFDataStream@@W4PolicyTypes@@@Z ; CvInfosSerializationHelper::WriteHashed
EXTRN	?getPolicyInfo@CvGlobals@@QAEPAVCvPolicyEntry@@W4PolicyTypes@@@Z:PROC ; CvGlobals::getPolicyInfo
; Function compile flags: /Ogtpy
;	COMDAT ?WriteHashed@CvInfosSerializationHelper@@YA_NAAVFDataStream@@W4PolicyTypes@@@Z
_TEXT	SEGMENT
_kStream$ = 8						; size = 4
_uiHash$219515 = 12					; size = 4
_eType$ = 12						; size = 4
?WriteHashed@CvInfosSerializationHelper@@YA_NAAVFDataStream@@W4PolicyTypes@@@Z PROC ; CvInfosSerializationHelper::WriteHashed, COMDAT

; 233  : IMPLEMENT_SERIALIZATION_INFO_TYPE_HELPER(PolicyTypes, getPolicyInfo, NO_POLICY);

	mov	eax, DWORD PTR _eType$[esp-4]
	cmp	eax, -1
	je	SHORT $LN2@WriteHashe@3
	push	eax
	mov	ecx, OFFSET ?gGlobals@@3VCvGlobals@@A	; gGlobals
	call	?getPolicyInfo@CvGlobals@@QAEPAVCvPolicyEntry@@W4PolicyTypes@@@Z ; CvGlobals::getPolicyInfo
	mov	DWORD PTR _eType$[esp-4], eax
	jmp	?WriteHashed@CvInfosSerializationHelper@@YA_NAAVFDataStream@@PBVCvBaseInfo@@@Z ; CvInfosSerializationHelper::WriteHashed
$LN2@WriteHashe@3:
	lea	ecx, DWORD PTR _uiHash$219515[esp-4]
	push	ecx
	mov	ecx, DWORD PTR _kStream$[esp]
	mov	DWORD PTR _uiHash$219515[esp], 0
	call	?Write@FDataStream@@IAEXABI@Z		; FDataStream::Write
	xor	al, al
	ret	0
?WriteHashed@CvInfosSerializationHelper@@YA_NAAVFDataStream@@W4PolicyTypes@@@Z ENDP ; CvInfosSerializationHelper::WriteHashed
_TEXT	ENDS
PUBLIC	?WriteHashed@CvInfosSerializationHelper@@YA_NAAVFDataStream@@W4PolicyBranchTypes@@@Z ; CvInfosSerializationHelper::WriteHashed
EXTRN	?getPolicyBranchInfo@CvGlobals@@QAEPAVCvPolicyBranchEntry@@W4PolicyBranchTypes@@@Z:PROC ; CvGlobals::getPolicyBranchInfo
; Function compile flags: /Ogtpy
;	COMDAT ?WriteHashed@CvInfosSerializationHelper@@YA_NAAVFDataStream@@W4PolicyBranchTypes@@@Z
_TEXT	SEGMENT
_kStream$ = 8						; size = 4
_uiHash$219553 = 12					; size = 4
_eType$ = 12						; size = 4
?WriteHashed@CvInfosSerializationHelper@@YA_NAAVFDataStream@@W4PolicyBranchTypes@@@Z PROC ; CvInfosSerializationHelper::WriteHashed, COMDAT

; 234  : IMPLEMENT_SERIALIZATION_INFO_TYPE_HELPER(PolicyBranchTypes, getPolicyBranchInfo, NO_POLICY_BRANCH_TYPE);

	mov	eax, DWORD PTR _eType$[esp-4]
	cmp	eax, -1
	je	SHORT $LN2@WriteHashe@4
	push	eax
	mov	ecx, OFFSET ?gGlobals@@3VCvGlobals@@A	; gGlobals
	call	?getPolicyBranchInfo@CvGlobals@@QAEPAVCvPolicyBranchEntry@@W4PolicyBranchTypes@@@Z ; CvGlobals::getPolicyBranchInfo
	mov	DWORD PTR _eType$[esp-4], eax
	jmp	?WriteHashed@CvInfosSerializationHelper@@YA_NAAVFDataStream@@PBVCvBaseInfo@@@Z ; CvInfosSerializationHelper::WriteHashed
$LN2@WriteHashe@4:
	lea	ecx, DWORD PTR _uiHash$219553[esp-4]
	push	ecx
	mov	ecx, DWORD PTR _kStream$[esp]
	mov	DWORD PTR _uiHash$219553[esp], 0
	call	?Write@FDataStream@@IAEXABI@Z		; FDataStream::Write
	xor	al, al
	ret	0
?WriteHashed@CvInfosSerializationHelper@@YA_NAAVFDataStream@@W4PolicyBranchTypes@@@Z ENDP ; CvInfosSerializationHelper::WriteHashed
_TEXT	ENDS
PUBLIC	?WriteHashed@CvInfosSerializationHelper@@YA_NAAVFDataStream@@W4TechTypes@@@Z ; CvInfosSerializationHelper::WriteHashed
EXTRN	?getTechInfo@CvGlobals@@QAEPAVCvTechEntry@@W4TechTypes@@@Z:PROC ; CvGlobals::getTechInfo
; Function compile flags: /Ogtpy
;	COMDAT ?WriteHashed@CvInfosSerializationHelper@@YA_NAAVFDataStream@@W4TechTypes@@@Z
_TEXT	SEGMENT
_kStream$ = 8						; size = 4
_uiHash$219591 = 12					; size = 4
_eType$ = 12						; size = 4
?WriteHashed@CvInfosSerializationHelper@@YA_NAAVFDataStream@@W4TechTypes@@@Z PROC ; CvInfosSerializationHelper::WriteHashed, COMDAT

; 235  : IMPLEMENT_SERIALIZATION_INFO_TYPE_HELPER(TechTypes, getTechInfo, NO_TECH);

	mov	eax, DWORD PTR _eType$[esp-4]
	cmp	eax, -1
	je	SHORT $LN2@WriteHashe@5
	push	eax
	mov	ecx, OFFSET ?gGlobals@@3VCvGlobals@@A	; gGlobals
	call	?getTechInfo@CvGlobals@@QAEPAVCvTechEntry@@W4TechTypes@@@Z ; CvGlobals::getTechInfo
	mov	DWORD PTR _eType$[esp-4], eax
	jmp	?WriteHashed@CvInfosSerializationHelper@@YA_NAAVFDataStream@@PBVCvBaseInfo@@@Z ; CvInfosSerializationHelper::WriteHashed
$LN2@WriteHashe@5:
	lea	ecx, DWORD PTR _uiHash$219591[esp-4]
	push	ecx
	mov	ecx, DWORD PTR _kStream$[esp]
	mov	DWORD PTR _uiHash$219591[esp], 0
	call	?Write@FDataStream@@IAEXABI@Z		; FDataStream::Write
	xor	al, al
	ret	0
?WriteHashed@CvInfosSerializationHelper@@YA_NAAVFDataStream@@W4TechTypes@@@Z ENDP ; CvInfosSerializationHelper::WriteHashed
_TEXT	ENDS
PUBLIC	?WriteHashed@CvInfosSerializationHelper@@YA_NAAVFDataStream@@W4BeliefTypes@@@Z ; CvInfosSerializationHelper::WriteHashed
EXTRN	?getBeliefInfo@CvGlobals@@QAEPAVCvBeliefEntry@@W4BeliefTypes@@@Z:PROC ; CvGlobals::getBeliefInfo
; Function compile flags: /Ogtpy
;	COMDAT ?WriteHashed@CvInfosSerializationHelper@@YA_NAAVFDataStream@@W4BeliefTypes@@@Z
_TEXT	SEGMENT
_kStream$ = 8						; size = 4
_uiHash$219629 = 12					; size = 4
_eType$ = 12						; size = 4
?WriteHashed@CvInfosSerializationHelper@@YA_NAAVFDataStream@@W4BeliefTypes@@@Z PROC ; CvInfosSerializationHelper::WriteHashed, COMDAT

; 236  : IMPLEMENT_SERIALIZATION_INFO_TYPE_HELPER(BeliefTypes, getBeliefInfo, NO_BELIEF);

	mov	eax, DWORD PTR _eType$[esp-4]
	cmp	eax, -1
	je	SHORT $LN2@WriteHashe@6
	push	eax
	mov	ecx, OFFSET ?gGlobals@@3VCvGlobals@@A	; gGlobals
	call	?getBeliefInfo@CvGlobals@@QAEPAVCvBeliefEntry@@W4BeliefTypes@@@Z ; CvGlobals::getBeliefInfo
	mov	DWORD PTR _eType$[esp-4], eax
	jmp	?WriteHashed@CvInfosSerializationHelper@@YA_NAAVFDataStream@@PBVCvBaseInfo@@@Z ; CvInfosSerializationHelper::WriteHashed
$LN2@WriteHashe@6:
	lea	ecx, DWORD PTR _uiHash$219629[esp-4]
	push	ecx
	mov	ecx, DWORD PTR _kStream$[esp]
	mov	DWORD PTR _uiHash$219629[esp], 0
	call	?Write@FDataStream@@IAEXABI@Z		; FDataStream::Write
	xor	al, al
	ret	0
?WriteHashed@CvInfosSerializationHelper@@YA_NAAVFDataStream@@W4BeliefTypes@@@Z ENDP ; CvInfosSerializationHelper::WriteHashed
_TEXT	ENDS
PUBLIC	?WriteHashed@CvInfosSerializationHelper@@YA_NAAVFDataStream@@W4ReligionTypes@@@Z ; CvInfosSerializationHelper::WriteHashed
EXTRN	?getReligionInfo@CvGlobals@@QAEPAVCvReligionEntry@@W4ReligionTypes@@@Z:PROC ; CvGlobals::getReligionInfo
; Function compile flags: /Ogtpy
;	COMDAT ?WriteHashed@CvInfosSerializationHelper@@YA_NAAVFDataStream@@W4ReligionTypes@@@Z
_TEXT	SEGMENT
_kStream$ = 8						; size = 4
_uiHash$219656 = 12					; size = 4
_eType$ = 12						; size = 4
?WriteHashed@CvInfosSerializationHelper@@YA_NAAVFDataStream@@W4ReligionTypes@@@Z PROC ; CvInfosSerializationHelper::WriteHashed, COMDAT

; 237  : IMPLEMENT_SERIALIZATION_INFO_TYPE_HELPER(ReligionTypes, getReligionInfo, NO_RELIGION);

	mov	eax, DWORD PTR _eType$[esp-4]
	cmp	eax, -1
	je	SHORT $LN2@WriteHashe@7
	push	eax
	mov	ecx, OFFSET ?gGlobals@@3VCvGlobals@@A	; gGlobals
	call	?getReligionInfo@CvGlobals@@QAEPAVCvReligionEntry@@W4ReligionTypes@@@Z ; CvGlobals::getReligionInfo
	mov	DWORD PTR _eType$[esp-4], eax
	jmp	?WriteHashed@CvInfosSerializationHelper@@YA_NAAVFDataStream@@PBVCvBaseInfo@@@Z ; CvInfosSerializationHelper::WriteHashed
$LN2@WriteHashe@7:
	lea	ecx, DWORD PTR _uiHash$219656[esp-4]
	push	ecx
	mov	ecx, DWORD PTR _kStream$[esp]
	mov	DWORD PTR _uiHash$219656[esp], 0
	call	?Write@FDataStream@@IAEXABI@Z		; FDataStream::Write
	xor	al, al
	ret	0
?WriteHashed@CvInfosSerializationHelper@@YA_NAAVFDataStream@@W4ReligionTypes@@@Z ENDP ; CvInfosSerializationHelper::WriteHashed
_TEXT	ENDS
PUBLIC	?WriteHashed@CvInfosSerializationHelper@@YA_NAAVFDataStream@@W4PlayerColorTypes@@@Z ; CvInfosSerializationHelper::WriteHashed
EXTRN	?GetPlayerColorInfo@CvGlobals@@QAEPAVCvPlayerColorInfo@@W4PlayerColorTypes@@@Z:PROC ; CvGlobals::GetPlayerColorInfo
; Function compile flags: /Ogtpy
;	COMDAT ?WriteHashed@CvInfosSerializationHelper@@YA_NAAVFDataStream@@W4PlayerColorTypes@@@Z
_TEXT	SEGMENT
_kStream$ = 8						; size = 4
_uiHash$219694 = 12					; size = 4
_eType$ = 12						; size = 4
?WriteHashed@CvInfosSerializationHelper@@YA_NAAVFDataStream@@W4PlayerColorTypes@@@Z PROC ; CvInfosSerializationHelper::WriteHashed, COMDAT

; 238  : IMPLEMENT_SERIALIZATION_INFO_TYPE_HELPER(PlayerColorTypes, GetPlayerColorInfo, NO_PLAYERCOLOR);

	mov	eax, DWORD PTR _eType$[esp-4]
	cmp	eax, -1
	je	SHORT $LN2@WriteHashe@8
	push	eax
	mov	ecx, OFFSET ?gGlobals@@3VCvGlobals@@A	; gGlobals
	call	?GetPlayerColorInfo@CvGlobals@@QAEPAVCvPlayerColorInfo@@W4PlayerColorTypes@@@Z ; CvGlobals::GetPlayerColorInfo
	mov	DWORD PTR _eType$[esp-4], eax
	jmp	?WriteHashed@CvInfosSerializationHelper@@YA_NAAVFDataStream@@PBVCvBaseInfo@@@Z ; CvInfosSerializationHelper::WriteHashed
$LN2@WriteHashe@8:
	lea	ecx, DWORD PTR _uiHash$219694[esp-4]
	push	ecx
	mov	ecx, DWORD PTR _kStream$[esp]
	mov	DWORD PTR _uiHash$219694[esp], 0
	call	?Write@FDataStream@@IAEXABI@Z		; FDataStream::Write
	xor	al, al
	ret	0
?WriteHashed@CvInfosSerializationHelper@@YA_NAAVFDataStream@@W4PlayerColorTypes@@@Z ENDP ; CvInfosSerializationHelper::WriteHashed
_TEXT	ENDS
PUBLIC	?WriteHashed@CvInfosSerializationHelper@@YA_NAAVFDataStream@@W4MinorCivTypes@@@Z ; CvInfosSerializationHelper::WriteHashed
EXTRN	?getMinorCivInfo@CvGlobals@@QAEPAVCvMinorCivInfo@@W4MinorCivTypes@@@Z:PROC ; CvGlobals::getMinorCivInfo
; Function compile flags: /Ogtpy
;	COMDAT ?WriteHashed@CvInfosSerializationHelper@@YA_NAAVFDataStream@@W4MinorCivTypes@@@Z
_TEXT	SEGMENT
_kStream$ = 8						; size = 4
_uiHash$219732 = 12					; size = 4
_eType$ = 12						; size = 4
?WriteHashed@CvInfosSerializationHelper@@YA_NAAVFDataStream@@W4MinorCivTypes@@@Z PROC ; CvInfosSerializationHelper::WriteHashed, COMDAT

; 239  : IMPLEMENT_SERIALIZATION_INFO_TYPE_HELPER(MinorCivTypes, getMinorCivInfo, NO_MINORCIV);

	mov	eax, DWORD PTR _eType$[esp-4]
	cmp	eax, -1
	je	SHORT $LN2@WriteHashe@9
	push	eax
	mov	ecx, OFFSET ?gGlobals@@3VCvGlobals@@A	; gGlobals
	call	?getMinorCivInfo@CvGlobals@@QAEPAVCvMinorCivInfo@@W4MinorCivTypes@@@Z ; CvGlobals::getMinorCivInfo
	mov	DWORD PTR _eType$[esp-4], eax
	jmp	?WriteHashed@CvInfosSerializationHelper@@YA_NAAVFDataStream@@PBVCvBaseInfo@@@Z ; CvInfosSerializationHelper::WriteHashed
$LN2@WriteHashe@9:
	lea	ecx, DWORD PTR _uiHash$219732[esp-4]
	push	ecx
	mov	ecx, DWORD PTR _kStream$[esp]
	mov	DWORD PTR _uiHash$219732[esp], 0
	call	?Write@FDataStream@@IAEXABI@Z		; FDataStream::Write
	xor	al, al
	ret	0
?WriteHashed@CvInfosSerializationHelper@@YA_NAAVFDataStream@@W4MinorCivTypes@@@Z ENDP ; CvInfosSerializationHelper::WriteHashed
_TEXT	ENDS
PUBLIC	?WriteHashed@CvInfosSerializationHelper@@YA_NAAVFDataStream@@W4SpecialistTypes@@@Z ; CvInfosSerializationHelper::WriteHashed
EXTRN	?getSpecialistInfo@CvGlobals@@QAEPAVCvSpecialistInfo@@W4SpecialistTypes@@@Z:PROC ; CvGlobals::getSpecialistInfo
; Function compile flags: /Ogtpy
;	COMDAT ?WriteHashed@CvInfosSerializationHelper@@YA_NAAVFDataStream@@W4SpecialistTypes@@@Z
_TEXT	SEGMENT
_kStream$ = 8						; size = 4
_uiHash$219770 = 12					; size = 4
_eType$ = 12						; size = 4
?WriteHashed@CvInfosSerializationHelper@@YA_NAAVFDataStream@@W4SpecialistTypes@@@Z PROC ; CvInfosSerializationHelper::WriteHashed, COMDAT

; 240  : IMPLEMENT_SERIALIZATION_INFO_TYPE_HELPER(SpecialistTypes, getSpecialistInfo, NO_SPECIALIST);

	mov	eax, DWORD PTR _eType$[esp-4]
	cmp	eax, -1
	je	SHORT $LN2@WriteHashe@10
	push	eax
	mov	ecx, OFFSET ?gGlobals@@3VCvGlobals@@A	; gGlobals
	call	?getSpecialistInfo@CvGlobals@@QAEPAVCvSpecialistInfo@@W4SpecialistTypes@@@Z ; CvGlobals::getSpecialistInfo
	mov	DWORD PTR _eType$[esp-4], eax
	jmp	?WriteHashed@CvInfosSerializationHelper@@YA_NAAVFDataStream@@PBVCvBaseInfo@@@Z ; CvInfosSerializationHelper::WriteHashed
$LN2@WriteHashe@10:
	lea	ecx, DWORD PTR _uiHash$219770[esp-4]
	push	ecx
	mov	ecx, DWORD PTR _kStream$[esp]
	mov	DWORD PTR _uiHash$219770[esp], 0
	call	?Write@FDataStream@@IAEXABI@Z		; FDataStream::Write
	xor	al, al
	ret	0
?WriteHashed@CvInfosSerializationHelper@@YA_NAAVFDataStream@@W4SpecialistTypes@@@Z ENDP ; CvInfosSerializationHelper::WriteHashed
_TEXT	ENDS
PUBLIC	?WriteHashed@CvInfosSerializationHelper@@YA_NAAVFDataStream@@W4EmphasizeTypes@@@Z ; CvInfosSerializationHelper::WriteHashed
EXTRN	?getEmphasisInfo@CvGlobals@@QAEPAVCvEmphasisEntry@@W4EmphasizeTypes@@@Z:PROC ; CvGlobals::getEmphasisInfo
; Function compile flags: /Ogtpy
;	COMDAT ?WriteHashed@CvInfosSerializationHelper@@YA_NAAVFDataStream@@W4EmphasizeTypes@@@Z
_TEXT	SEGMENT
_kStream$ = 8						; size = 4
_uiHash$219808 = 12					; size = 4
_eType$ = 12						; size = 4
?WriteHashed@CvInfosSerializationHelper@@YA_NAAVFDataStream@@W4EmphasizeTypes@@@Z PROC ; CvInfosSerializationHelper::WriteHashed, COMDAT

; 241  : IMPLEMENT_SERIALIZATION_INFO_TYPE_HELPER(EmphasizeTypes, getEmphasisInfo, NO_EMPHASIZE);

	mov	eax, DWORD PTR _eType$[esp-4]
	cmp	eax, -1
	je	SHORT $LN2@WriteHashe@11
	push	eax
	mov	ecx, OFFSET ?gGlobals@@3VCvGlobals@@A	; gGlobals
	call	?getEmphasisInfo@CvGlobals@@QAEPAVCvEmphasisEntry@@W4EmphasizeTypes@@@Z ; CvGlobals::getEmphasisInfo
	mov	DWORD PTR _eType$[esp-4], eax
	jmp	?WriteHashed@CvInfosSerializationHelper@@YA_NAAVFDataStream@@PBVCvBaseInfo@@@Z ; CvInfosSerializationHelper::WriteHashed
$LN2@WriteHashe@11:
	lea	ecx, DWORD PTR _uiHash$219808[esp-4]
	push	ecx
	mov	ecx, DWORD PTR _kStream$[esp]
	mov	DWORD PTR _uiHash$219808[esp], 0
	call	?Write@FDataStream@@IAEXABI@Z		; FDataStream::Write
	xor	al, al
	ret	0
?WriteHashed@CvInfosSerializationHelper@@YA_NAAVFDataStream@@W4EmphasizeTypes@@@Z ENDP ; CvInfosSerializationHelper::WriteHashed
_TEXT	ENDS
PUBLIC	?WriteHashed@CvInfosSerializationHelper@@YA_NAAVFDataStream@@W4ProjectTypes@@@Z ; CvInfosSerializationHelper::WriteHashed
EXTRN	?getProjectInfo@CvGlobals@@QAEPAVCvProjectEntry@@W4ProjectTypes@@@Z:PROC ; CvGlobals::getProjectInfo
; Function compile flags: /Ogtpy
;	COMDAT ?WriteHashed@CvInfosSerializationHelper@@YA_NAAVFDataStream@@W4ProjectTypes@@@Z
_TEXT	SEGMENT
_kStream$ = 8						; size = 4
_uiHash$219846 = 12					; size = 4
_eType$ = 12						; size = 4
?WriteHashed@CvInfosSerializationHelper@@YA_NAAVFDataStream@@W4ProjectTypes@@@Z PROC ; CvInfosSerializationHelper::WriteHashed, COMDAT

; 242  : IMPLEMENT_SERIALIZATION_INFO_TYPE_HELPER(ProjectTypes, getProjectInfo, NO_PROJECT);

	mov	eax, DWORD PTR _eType$[esp-4]
	cmp	eax, -1
	je	SHORT $LN2@WriteHashe@12
	push	eax
	mov	ecx, OFFSET ?gGlobals@@3VCvGlobals@@A	; gGlobals
	call	?getProjectInfo@CvGlobals@@QAEPAVCvProjectEntry@@W4ProjectTypes@@@Z ; CvGlobals::getProjectInfo
	mov	DWORD PTR _eType$[esp-4], eax
	jmp	?WriteHashed@CvInfosSerializationHelper@@YA_NAAVFDataStream@@PBVCvBaseInfo@@@Z ; CvInfosSerializationHelper::WriteHashed
$LN2@WriteHashe@12:
	lea	ecx, DWORD PTR _uiHash$219846[esp-4]
	push	ecx
	mov	ecx, DWORD PTR _kStream$[esp]
	mov	DWORD PTR _uiHash$219846[esp], 0
	call	?Write@FDataStream@@IAEXABI@Z		; FDataStream::Write
	xor	al, al
	ret	0
?WriteHashed@CvInfosSerializationHelper@@YA_NAAVFDataStream@@W4ProjectTypes@@@Z ENDP ; CvInfosSerializationHelper::WriteHashed
_TEXT	ENDS
PUBLIC	?WriteHashed@CvInfosSerializationHelper@@YA_NAAVFDataStream@@W4VoteTypes@@@Z ; CvInfosSerializationHelper::WriteHashed
EXTRN	?getVoteInfo@CvGlobals@@QAEPAVCvVoteInfo@@W4VoteTypes@@@Z:PROC ; CvGlobals::getVoteInfo
; Function compile flags: /Ogtpy
;	COMDAT ?WriteHashed@CvInfosSerializationHelper@@YA_NAAVFDataStream@@W4VoteTypes@@@Z
_TEXT	SEGMENT
_kStream$ = 8						; size = 4
_uiHash$219884 = 12					; size = 4
_eType$ = 12						; size = 4
?WriteHashed@CvInfosSerializationHelper@@YA_NAAVFDataStream@@W4VoteTypes@@@Z PROC ; CvInfosSerializationHelper::WriteHashed, COMDAT

; 243  : IMPLEMENT_SERIALIZATION_INFO_TYPE_HELPER(VoteTypes, getVoteInfo, NO_VOTE);

	mov	eax, DWORD PTR _eType$[esp-4]
	cmp	eax, -1
	je	SHORT $LN2@WriteHashe@13
	push	eax
	mov	ecx, OFFSET ?gGlobals@@3VCvGlobals@@A	; gGlobals
	call	?getVoteInfo@CvGlobals@@QAEPAVCvVoteInfo@@W4VoteTypes@@@Z ; CvGlobals::getVoteInfo
	mov	DWORD PTR _eType$[esp-4], eax
	jmp	?WriteHashed@CvInfosSerializationHelper@@YA_NAAVFDataStream@@PBVCvBaseInfo@@@Z ; CvInfosSerializationHelper::WriteHashed
$LN2@WriteHashe@13:
	lea	ecx, DWORD PTR _uiHash$219884[esp-4]
	push	ecx
	mov	ecx, DWORD PTR _kStream$[esp]
	mov	DWORD PTR _uiHash$219884[esp], 0
	call	?Write@FDataStream@@IAEXABI@Z		; FDataStream::Write
	xor	al, al
	ret	0
?WriteHashed@CvInfosSerializationHelper@@YA_NAAVFDataStream@@W4VoteTypes@@@Z ENDP ; CvInfosSerializationHelper::WriteHashed
_TEXT	ENDS
PUBLIC	?WriteHashed@CvInfosSerializationHelper@@YA_NAAVFDataStream@@W4VoteSourceTypes@@@Z ; CvInfosSerializationHelper::WriteHashed
EXTRN	?getVoteSourceInfo@CvGlobals@@QAEPAVCvVoteSourceInfo@@W4VoteSourceTypes@@@Z:PROC ; CvGlobals::getVoteSourceInfo
; Function compile flags: /Ogtpy
;	COMDAT ?WriteHashed@CvInfosSerializationHelper@@YA_NAAVFDataStream@@W4VoteSourceTypes@@@Z
_TEXT	SEGMENT
_kStream$ = 8						; size = 4
_uiHash$219922 = 12					; size = 4
_eType$ = 12						; size = 4
?WriteHashed@CvInfosSerializationHelper@@YA_NAAVFDataStream@@W4VoteSourceTypes@@@Z PROC ; CvInfosSerializationHelper::WriteHashed, COMDAT

; 244  : IMPLEMENT_SERIALIZATION_INFO_TYPE_HELPER(VoteSourceTypes, getVoteSourceInfo, NO_VOTESOURCE);

	mov	eax, DWORD PTR _eType$[esp-4]
	cmp	eax, -1
	je	SHORT $LN2@WriteHashe@14
	push	eax
	mov	ecx, OFFSET ?gGlobals@@3VCvGlobals@@A	; gGlobals
	call	?getVoteSourceInfo@CvGlobals@@QAEPAVCvVoteSourceInfo@@W4VoteSourceTypes@@@Z ; CvGlobals::getVoteSourceInfo
	mov	DWORD PTR _eType$[esp-4], eax
	jmp	?WriteHashed@CvInfosSerializationHelper@@YA_NAAVFDataStream@@PBVCvBaseInfo@@@Z ; CvInfosSerializationHelper::WriteHashed
$LN2@WriteHashe@14:
	lea	ecx, DWORD PTR _uiHash$219922[esp-4]
	push	ecx
	mov	ecx, DWORD PTR _kStream$[esp]
	mov	DWORD PTR _uiHash$219922[esp], 0
	call	?Write@FDataStream@@IAEXABI@Z		; FDataStream::Write
	xor	al, al
	ret	0
?WriteHashed@CvInfosSerializationHelper@@YA_NAAVFDataStream@@W4VoteSourceTypes@@@Z ENDP ; CvInfosSerializationHelper::WriteHashed
_TEXT	ENDS
PUBLIC	?WriteHashed@CvInfosSerializationHelper@@YA_NAAVFDataStream@@W4SpecialUnitTypes@@@Z ; CvInfosSerializationHelper::WriteHashed
EXTRN	?getSpecialUnitInfo@CvGlobals@@QAEPAVCvSpecialUnitInfo@@W4SpecialUnitTypes@@@Z:PROC ; CvGlobals::getSpecialUnitInfo
; Function compile flags: /Ogtpy
;	COMDAT ?WriteHashed@CvInfosSerializationHelper@@YA_NAAVFDataStream@@W4SpecialUnitTypes@@@Z
_TEXT	SEGMENT
_kStream$ = 8						; size = 4
_uiHash$219960 = 12					; size = 4
_eType$ = 12						; size = 4
?WriteHashed@CvInfosSerializationHelper@@YA_NAAVFDataStream@@W4SpecialUnitTypes@@@Z PROC ; CvInfosSerializationHelper::WriteHashed, COMDAT

; 245  : IMPLEMENT_SERIALIZATION_INFO_TYPE_HELPER(SpecialUnitTypes, getSpecialUnitInfo, NO_SPECIALUNIT);

	mov	eax, DWORD PTR _eType$[esp-4]
	cmp	eax, -1
	je	SHORT $LN2@WriteHashe@15
	push	eax
	mov	ecx, OFFSET ?gGlobals@@3VCvGlobals@@A	; gGlobals
	call	?getSpecialUnitInfo@CvGlobals@@QAEPAVCvSpecialUnitInfo@@W4SpecialUnitTypes@@@Z ; CvGlobals::getSpecialUnitInfo
	mov	DWORD PTR _eType$[esp-4], eax
	jmp	?WriteHashed@CvInfosSerializationHelper@@YA_NAAVFDataStream@@PBVCvBaseInfo@@@Z ; CvInfosSerializationHelper::WriteHashed
$LN2@WriteHashe@15:
	lea	ecx, DWORD PTR _uiHash$219960[esp-4]
	push	ecx
	mov	ecx, DWORD PTR _kStream$[esp]
	mov	DWORD PTR _uiHash$219960[esp], 0
	call	?Write@FDataStream@@IAEXABI@Z		; FDataStream::Write
	xor	al, al
	ret	0
?WriteHashed@CvInfosSerializationHelper@@YA_NAAVFDataStream@@W4SpecialUnitTypes@@@Z ENDP ; CvInfosSerializationHelper::WriteHashed
_TEXT	ENDS
PUBLIC	?WriteHashed@CvInfosSerializationHelper@@YA_NAAVFDataStream@@W4VictoryTypes@@@Z ; CvInfosSerializationHelper::WriteHashed
EXTRN	?getVictoryInfo@CvGlobals@@QAEPAVCvVictoryInfo@@W4VictoryTypes@@@Z:PROC ; CvGlobals::getVictoryInfo
; Function compile flags: /Ogtpy
;	COMDAT ?WriteHashed@CvInfosSerializationHelper@@YA_NAAVFDataStream@@W4VictoryTypes@@@Z
_TEXT	SEGMENT
_kStream$ = 8						; size = 4
_uiHash$219998 = 12					; size = 4
_eType$ = 12						; size = 4
?WriteHashed@CvInfosSerializationHelper@@YA_NAAVFDataStream@@W4VictoryTypes@@@Z PROC ; CvInfosSerializationHelper::WriteHashed, COMDAT

; 246  : IMPLEMENT_SERIALIZATION_INFO_TYPE_HELPER(VictoryTypes, getVictoryInfo, NO_VICTORY);

	mov	eax, DWORD PTR _eType$[esp-4]
	cmp	eax, -1
	je	SHORT $LN2@WriteHashe@16
	push	eax
	mov	ecx, OFFSET ?gGlobals@@3VCvGlobals@@A	; gGlobals
	call	?getVictoryInfo@CvGlobals@@QAEPAVCvVictoryInfo@@W4VictoryTypes@@@Z ; CvGlobals::getVictoryInfo
	mov	DWORD PTR _eType$[esp-4], eax
	jmp	?WriteHashed@CvInfosSerializationHelper@@YA_NAAVFDataStream@@PBVCvBaseInfo@@@Z ; CvInfosSerializationHelper::WriteHashed
$LN2@WriteHashe@16:
	lea	ecx, DWORD PTR _uiHash$219998[esp-4]
	push	ecx
	mov	ecx, DWORD PTR _kStream$[esp]
	mov	DWORD PTR _uiHash$219998[esp], 0
	call	?Write@FDataStream@@IAEXABI@Z		; FDataStream::Write
	xor	al, al
	ret	0
?WriteHashed@CvInfosSerializationHelper@@YA_NAAVFDataStream@@W4VictoryTypes@@@Z ENDP ; CvInfosSerializationHelper::WriteHashed
_TEXT	ENDS
PUBLIC	?WriteHashed@CvInfosSerializationHelper@@YA_NAAVFDataStream@@W4BuildingTypes@@@Z ; CvInfosSerializationHelper::WriteHashed
EXTRN	?getBuildingInfo@CvGlobals@@QAEPAVCvBuildingEntry@@W4BuildingTypes@@@Z:PROC ; CvGlobals::getBuildingInfo
; Function compile flags: /Ogtpy
;	COMDAT ?WriteHashed@CvInfosSerializationHelper@@YA_NAAVFDataStream@@W4BuildingTypes@@@Z
_TEXT	SEGMENT
_kStream$ = 8						; size = 4
_uiHash$220036 = 12					; size = 4
_eType$ = 12						; size = 4
?WriteHashed@CvInfosSerializationHelper@@YA_NAAVFDataStream@@W4BuildingTypes@@@Z PROC ; CvInfosSerializationHelper::WriteHashed, COMDAT

; 247  : IMPLEMENT_SERIALIZATION_INFO_TYPE_HELPER(BuildingTypes, getBuildingInfo, NO_BUILDING);

	mov	eax, DWORD PTR _eType$[esp-4]
	cmp	eax, -1
	je	SHORT $LN2@WriteHashe@17
	push	eax
	mov	ecx, OFFSET ?gGlobals@@3VCvGlobals@@A	; gGlobals
	call	?getBuildingInfo@CvGlobals@@QAEPAVCvBuildingEntry@@W4BuildingTypes@@@Z ; CvGlobals::getBuildingInfo
	mov	DWORD PTR _eType$[esp-4], eax
	jmp	?WriteHashed@CvInfosSerializationHelper@@YA_NAAVFDataStream@@PBVCvBaseInfo@@@Z ; CvInfosSerializationHelper::WriteHashed
$LN2@WriteHashe@17:
	lea	ecx, DWORD PTR _uiHash$220036[esp-4]
	push	ecx
	mov	ecx, DWORD PTR _kStream$[esp]
	mov	DWORD PTR _uiHash$220036[esp], 0
	call	?Write@FDataStream@@IAEXABI@Z		; FDataStream::Write
	xor	al, al
	ret	0
?WriteHashed@CvInfosSerializationHelper@@YA_NAAVFDataStream@@W4BuildingTypes@@@Z ENDP ; CvInfosSerializationHelper::WriteHashed
_TEXT	ENDS
PUBLIC	?WriteHashed@CvInfosSerializationHelper@@YA_NAAVFDataStream@@W4PromotionTypes@@@Z ; CvInfosSerializationHelper::WriteHashed
EXTRN	?getPromotionInfo@CvGlobals@@QAEPAVCvPromotionEntry@@W4PromotionTypes@@@Z:PROC ; CvGlobals::getPromotionInfo
; Function compile flags: /Ogtpy
;	COMDAT ?WriteHashed@CvInfosSerializationHelper@@YA_NAAVFDataStream@@W4PromotionTypes@@@Z
_TEXT	SEGMENT
_kStream$ = 8						; size = 4
_uiHash$220074 = 12					; size = 4
_eType$ = 12						; size = 4
?WriteHashed@CvInfosSerializationHelper@@YA_NAAVFDataStream@@W4PromotionTypes@@@Z PROC ; CvInfosSerializationHelper::WriteHashed, COMDAT

; 248  : IMPLEMENT_SERIALIZATION_INFO_TYPE_HELPER(PromotionTypes, getPromotionInfo, NO_PROMOTION);

	mov	eax, DWORD PTR _eType$[esp-4]
	cmp	eax, -1
	je	SHORT $LN2@WriteHashe@18
	push	eax
	mov	ecx, OFFSET ?gGlobals@@3VCvGlobals@@A	; gGlobals
	call	?getPromotionInfo@CvGlobals@@QAEPAVCvPromotionEntry@@W4PromotionTypes@@@Z ; CvGlobals::getPromotionInfo
	mov	DWORD PTR _eType$[esp-4], eax
	jmp	?WriteHashed@CvInfosSerializationHelper@@YA_NAAVFDataStream@@PBVCvBaseInfo@@@Z ; CvInfosSerializationHelper::WriteHashed
$LN2@WriteHashe@18:
	lea	ecx, DWORD PTR _uiHash$220074[esp-4]
	push	ecx
	mov	ecx, DWORD PTR _kStream$[esp]
	mov	DWORD PTR _uiHash$220074[esp], 0
	call	?Write@FDataStream@@IAEXABI@Z		; FDataStream::Write
	xor	al, al
	ret	0
?WriteHashed@CvInfosSerializationHelper@@YA_NAAVFDataStream@@W4PromotionTypes@@@Z ENDP ; CvInfosSerializationHelper::WriteHashed
_TEXT	ENDS
PUBLIC	?WriteHashed@CvInfosSerializationHelper@@YA_NAAVFDataStream@@W4UnitTypes@@@Z ; CvInfosSerializationHelper::WriteHashed
EXTRN	?getUnitInfo@CvGlobals@@QAEPAVCvUnitEntry@@W4UnitTypes@@@Z:PROC ; CvGlobals::getUnitInfo
; Function compile flags: /Ogtpy
;	COMDAT ?WriteHashed@CvInfosSerializationHelper@@YA_NAAVFDataStream@@W4UnitTypes@@@Z
_TEXT	SEGMENT
_kStream$ = 8						; size = 4
_uiHash$220112 = 12					; size = 4
_eType$ = 12						; size = 4
?WriteHashed@CvInfosSerializationHelper@@YA_NAAVFDataStream@@W4UnitTypes@@@Z PROC ; CvInfosSerializationHelper::WriteHashed, COMDAT

; 249  : IMPLEMENT_SERIALIZATION_INFO_TYPE_HELPER(UnitTypes, getUnitInfo, NO_UNIT);

	mov	eax, DWORD PTR _eType$[esp-4]
	cmp	eax, -1
	je	SHORT $LN2@WriteHashe@19
	push	eax
	mov	ecx, OFFSET ?gGlobals@@3VCvGlobals@@A	; gGlobals
	call	?getUnitInfo@CvGlobals@@QAEPAVCvUnitEntry@@W4UnitTypes@@@Z ; CvGlobals::getUnitInfo
	mov	DWORD PTR _eType$[esp-4], eax
	jmp	?WriteHashed@CvInfosSerializationHelper@@YA_NAAVFDataStream@@PBVCvBaseInfo@@@Z ; CvInfosSerializationHelper::WriteHashed
$LN2@WriteHashe@19:
	lea	ecx, DWORD PTR _uiHash$220112[esp-4]
	push	ecx
	mov	ecx, DWORD PTR _kStream$[esp]
	mov	DWORD PTR _uiHash$220112[esp], 0
	call	?Write@FDataStream@@IAEXABI@Z		; FDataStream::Write
	xor	al, al
	ret	0
?WriteHashed@CvInfosSerializationHelper@@YA_NAAVFDataStream@@W4UnitTypes@@@Z ENDP ; CvInfosSerializationHelper::WriteHashed
_TEXT	ENDS
PUBLIC	?WriteHashed@CvInfosSerializationHelper@@YA_NAAVFDataStream@@W4FeatureTypes@@@Z ; CvInfosSerializationHelper::WriteHashed
EXTRN	?getFeatureInfo@CvGlobals@@QAEPAVCvFeatureInfo@@W4FeatureTypes@@@Z:PROC ; CvGlobals::getFeatureInfo
; Function compile flags: /Ogtpy
;	COMDAT ?WriteHashed@CvInfosSerializationHelper@@YA_NAAVFDataStream@@W4FeatureTypes@@@Z
_TEXT	SEGMENT
_kStream$ = 8						; size = 4
_uiHash$220150 = 12					; size = 4
_eType$ = 12						; size = 4
?WriteHashed@CvInfosSerializationHelper@@YA_NAAVFDataStream@@W4FeatureTypes@@@Z PROC ; CvInfosSerializationHelper::WriteHashed, COMDAT

; 250  : IMPLEMENT_SERIALIZATION_INFO_TYPE_HELPER(FeatureTypes, getFeatureInfo, NO_FEATURE);

	mov	eax, DWORD PTR _eType$[esp-4]
	cmp	eax, -1
	je	SHORT $LN2@WriteHashe@20
	push	eax
	mov	ecx, OFFSET ?gGlobals@@3VCvGlobals@@A	; gGlobals
	call	?getFeatureInfo@CvGlobals@@QAEPAVCvFeatureInfo@@W4FeatureTypes@@@Z ; CvGlobals::getFeatureInfo
	mov	DWORD PTR _eType$[esp-4], eax
	jmp	?WriteHashed@CvInfosSerializationHelper@@YA_NAAVFDataStream@@PBVCvBaseInfo@@@Z ; CvInfosSerializationHelper::WriteHashed
$LN2@WriteHashe@20:
	lea	ecx, DWORD PTR _uiHash$220150[esp-4]
	push	ecx
	mov	ecx, DWORD PTR _kStream$[esp]
	mov	DWORD PTR _uiHash$220150[esp], 0
	call	?Write@FDataStream@@IAEXABI@Z		; FDataStream::Write
	xor	al, al
	ret	0
?WriteHashed@CvInfosSerializationHelper@@YA_NAAVFDataStream@@W4FeatureTypes@@@Z ENDP ; CvInfosSerializationHelper::WriteHashed
_TEXT	ENDS
PUBLIC	?WriteHashed@CvInfosSerializationHelper@@YA_NAAVFDataStream@@W4TerrainTypes@@@Z ; CvInfosSerializationHelper::WriteHashed
EXTRN	?getTerrainInfo@CvGlobals@@QAEPAVCvTerrainInfo@@W4TerrainTypes@@@Z:PROC ; CvGlobals::getTerrainInfo
; Function compile flags: /Ogtpy
;	COMDAT ?WriteHashed@CvInfosSerializationHelper@@YA_NAAVFDataStream@@W4TerrainTypes@@@Z
_TEXT	SEGMENT
_kStream$ = 8						; size = 4
_uiHash$220199 = 12					; size = 4
_eType$ = 12						; size = 4
?WriteHashed@CvInfosSerializationHelper@@YA_NAAVFDataStream@@W4TerrainTypes@@@Z PROC ; CvInfosSerializationHelper::WriteHashed, COMDAT

; 251  : IMPLEMENT_SERIALIZATION_INFO_TYPE_HELPER(TerrainTypes, getTerrainInfo, NO_TERRAIN);

	mov	eax, DWORD PTR _eType$[esp-4]
	cmp	eax, -1
	je	SHORT $LN2@WriteHashe@21
	push	eax
	mov	ecx, OFFSET ?gGlobals@@3VCvGlobals@@A	; gGlobals
	call	?getTerrainInfo@CvGlobals@@QAEPAVCvTerrainInfo@@W4TerrainTypes@@@Z ; CvGlobals::getTerrainInfo
	mov	DWORD PTR _eType$[esp-4], eax
	jmp	?WriteHashed@CvInfosSerializationHelper@@YA_NAAVFDataStream@@PBVCvBaseInfo@@@Z ; CvInfosSerializationHelper::WriteHashed
$LN2@WriteHashe@21:
	lea	ecx, DWORD PTR _uiHash$220199[esp-4]
	push	ecx
	mov	ecx, DWORD PTR _kStream$[esp]
	mov	DWORD PTR _uiHash$220199[esp], 0
	call	?Write@FDataStream@@IAEXABI@Z		; FDataStream::Write
	xor	al, al
	ret	0
?WriteHashed@CvInfosSerializationHelper@@YA_NAAVFDataStream@@W4TerrainTypes@@@Z ENDP ; CvInfosSerializationHelper::WriteHashed
_TEXT	ENDS
PUBLIC	?WriteHashed@CvInfosSerializationHelper@@YA_NAAVFDataStream@@W4AICityStrategyTypes@@@Z ; CvInfosSerializationHelper::WriteHashed
EXTRN	?getAICityStrategyInfo@CvGlobals@@QAEPAVCvAICityStrategyEntry@@W4AICityStrategyTypes@@@Z:PROC ; CvGlobals::getAICityStrategyInfo
; Function compile flags: /Ogtpy
;	COMDAT ?WriteHashed@CvInfosSerializationHelper@@YA_NAAVFDataStream@@W4AICityStrategyTypes@@@Z
_TEXT	SEGMENT
_kStream$ = 8						; size = 4
_uiHash$220237 = 12					; size = 4
_eType$ = 12						; size = 4
?WriteHashed@CvInfosSerializationHelper@@YA_NAAVFDataStream@@W4AICityStrategyTypes@@@Z PROC ; CvInfosSerializationHelper::WriteHashed, COMDAT

; 252  : IMPLEMENT_SERIALIZATION_INFO_TYPE_HELPER(AICityStrategyTypes, getAICityStrategyInfo, NO_AICITYSTRATEGY);

	mov	eax, DWORD PTR _eType$[esp-4]
	cmp	eax, -1
	je	SHORT $LN2@WriteHashe@22
	push	eax
	mov	ecx, OFFSET ?gGlobals@@3VCvGlobals@@A	; gGlobals
	call	?getAICityStrategyInfo@CvGlobals@@QAEPAVCvAICityStrategyEntry@@W4AICityStrategyTypes@@@Z ; CvGlobals::getAICityStrategyInfo
	mov	DWORD PTR _eType$[esp-4], eax
	jmp	?WriteHashed@CvInfosSerializationHelper@@YA_NAAVFDataStream@@PBVCvBaseInfo@@@Z ; CvInfosSerializationHelper::WriteHashed
$LN2@WriteHashe@22:
	lea	ecx, DWORD PTR _uiHash$220237[esp-4]
	push	ecx
	mov	ecx, DWORD PTR _kStream$[esp]
	mov	DWORD PTR _uiHash$220237[esp], 0
	call	?Write@FDataStream@@IAEXABI@Z		; FDataStream::Write
	xor	al, al
	ret	0
?WriteHashed@CvInfosSerializationHelper@@YA_NAAVFDataStream@@W4AICityStrategyTypes@@@Z ENDP ; CvInfosSerializationHelper::WriteHashed
_TEXT	ENDS
PUBLIC	?WriteHashed@CvInfosSerializationHelper@@YA_NAAVFDataStream@@W4SmallAwardTypes@@@Z ; CvInfosSerializationHelper::WriteHashed
EXTRN	?getSmallAwardInfo@CvGlobals@@QAEPAVCvSmallAwardInfo@@W4SmallAwardTypes@@@Z:PROC ; CvGlobals::getSmallAwardInfo
; Function compile flags: /Ogtpy
;	COMDAT ?WriteHashed@CvInfosSerializationHelper@@YA_NAAVFDataStream@@W4SmallAwardTypes@@@Z
_TEXT	SEGMENT
_kStream$ = 8						; size = 4
_uiHash$220275 = 12					; size = 4
_eType$ = 12						; size = 4
?WriteHashed@CvInfosSerializationHelper@@YA_NAAVFDataStream@@W4SmallAwardTypes@@@Z PROC ; CvInfosSerializationHelper::WriteHashed, COMDAT

; 253  : IMPLEMENT_SERIALIZATION_INFO_TYPE_HELPER(SmallAwardTypes, getSmallAwardInfo, NO_SMALLAWARD);

	mov	eax, DWORD PTR _eType$[esp-4]
	cmp	eax, -1
	je	SHORT $LN2@WriteHashe@23
	push	eax
	mov	ecx, OFFSET ?gGlobals@@3VCvGlobals@@A	; gGlobals
	call	?getSmallAwardInfo@CvGlobals@@QAEPAVCvSmallAwardInfo@@W4SmallAwardTypes@@@Z ; CvGlobals::getSmallAwardInfo
	mov	DWORD PTR _eType$[esp-4], eax
	jmp	?WriteHashed@CvInfosSerializationHelper@@YA_NAAVFDataStream@@PBVCvBaseInfo@@@Z ; CvInfosSerializationHelper::WriteHashed
$LN2@WriteHashe@23:
	lea	ecx, DWORD PTR _uiHash$220275[esp-4]
	push	ecx
	mov	ecx, DWORD PTR _kStream$[esp]
	mov	DWORD PTR _uiHash$220275[esp], 0
	call	?Write@FDataStream@@IAEXABI@Z		; FDataStream::Write
	xor	al, al
	ret	0
?WriteHashed@CvInfosSerializationHelper@@YA_NAAVFDataStream@@W4SmallAwardTypes@@@Z ENDP ; CvInfosSerializationHelper::WriteHashed
_TEXT	ENDS
PUBLIC	?WriteHashed@CvInfosSerializationHelper@@YA_NAAVFDataStream@@W4RouteTypes@@@Z ; CvInfosSerializationHelper::WriteHashed
EXTRN	?getRouteInfo@CvGlobals@@QAEPAVCvRouteInfo@@W4RouteTypes@@@Z:PROC ; CvGlobals::getRouteInfo
; Function compile flags: /Ogtpy
;	COMDAT ?WriteHashed@CvInfosSerializationHelper@@YA_NAAVFDataStream@@W4RouteTypes@@@Z
_TEXT	SEGMENT
_kStream$ = 8						; size = 4
_uiHash$220313 = 12					; size = 4
_eType$ = 12						; size = 4
?WriteHashed@CvInfosSerializationHelper@@YA_NAAVFDataStream@@W4RouteTypes@@@Z PROC ; CvInfosSerializationHelper::WriteHashed, COMDAT

; 254  : IMPLEMENT_SERIALIZATION_INFO_TYPE_HELPER(RouteTypes, getRouteInfo, NO_ROUTE);

	mov	eax, DWORD PTR _eType$[esp-4]
	cmp	eax, -1
	je	SHORT $LN2@WriteHashe@24
	push	eax
	mov	ecx, OFFSET ?gGlobals@@3VCvGlobals@@A	; gGlobals
	call	?getRouteInfo@CvGlobals@@QAEPAVCvRouteInfo@@W4RouteTypes@@@Z ; CvGlobals::getRouteInfo
	mov	DWORD PTR _eType$[esp-4], eax
	jmp	?WriteHashed@CvInfosSerializationHelper@@YA_NAAVFDataStream@@PBVCvBaseInfo@@@Z ; CvInfosSerializationHelper::WriteHashed
$LN2@WriteHashe@24:
	lea	ecx, DWORD PTR _uiHash$220313[esp-4]
	push	ecx
	mov	ecx, DWORD PTR _kStream$[esp]
	mov	DWORD PTR _uiHash$220313[esp], 0
	call	?Write@FDataStream@@IAEXABI@Z		; FDataStream::Write
	xor	al, al
	ret	0
?WriteHashed@CvInfosSerializationHelper@@YA_NAAVFDataStream@@W4RouteTypes@@@Z ENDP ; CvInfosSerializationHelper::WriteHashed
_TEXT	ENDS
PUBLIC	?WriteHashed@CvInfosSerializationHelper@@YA_NAAVFDataStream@@W4BuildTypes@@@Z ; CvInfosSerializationHelper::WriteHashed
EXTRN	?getBuildInfo@CvGlobals@@QAEPAVCvBuildInfo@@W4BuildTypes@@@Z:PROC ; CvGlobals::getBuildInfo
; Function compile flags: /Ogtpy
;	COMDAT ?WriteHashed@CvInfosSerializationHelper@@YA_NAAVFDataStream@@W4BuildTypes@@@Z
_TEXT	SEGMENT
_kStream$ = 8						; size = 4
_uiHash$220351 = 12					; size = 4
_eType$ = 12						; size = 4
?WriteHashed@CvInfosSerializationHelper@@YA_NAAVFDataStream@@W4BuildTypes@@@Z PROC ; CvInfosSerializationHelper::WriteHashed, COMDAT

; 255  : IMPLEMENT_SERIALIZATION_INFO_TYPE_HELPER(BuildTypes, getBuildInfo, NO_BUILD);

	mov	eax, DWORD PTR _eType$[esp-4]
	cmp	eax, -1
	je	SHORT $LN2@WriteHashe@25
	push	eax
	mov	ecx, OFFSET ?gGlobals@@3VCvGlobals@@A	; gGlobals
	call	?getBuildInfo@CvGlobals@@QAEPAVCvBuildInfo@@W4BuildTypes@@@Z ; CvGlobals::getBuildInfo
	mov	DWORD PTR _eType$[esp-4], eax
	jmp	?WriteHashed@CvInfosSerializationHelper@@YA_NAAVFDataStream@@PBVCvBaseInfo@@@Z ; CvInfosSerializationHelper::WriteHashed
$LN2@WriteHashe@25:
	lea	ecx, DWORD PTR _uiHash$220351[esp-4]
	push	ecx
	mov	ecx, DWORD PTR _kStream$[esp]
	mov	DWORD PTR _uiHash$220351[esp], 0
	call	?Write@FDataStream@@IAEXABI@Z		; FDataStream::Write
	xor	al, al
	ret	0
?WriteHashed@CvInfosSerializationHelper@@YA_NAAVFDataStream@@W4BuildTypes@@@Z ENDP ; CvInfosSerializationHelper::WriteHashed
_TEXT	ENDS
PUBLIC	?WriteHashed@CvInfosSerializationHelper@@YA_NAAVFDataStream@@W4ProcessTypes@@@Z ; CvInfosSerializationHelper::WriteHashed
EXTRN	?getProcessInfo@CvGlobals@@QAEPAVCvProcessInfo@@W4ProcessTypes@@@Z:PROC ; CvGlobals::getProcessInfo
; Function compile flags: /Ogtpy
;	COMDAT ?WriteHashed@CvInfosSerializationHelper@@YA_NAAVFDataStream@@W4ProcessTypes@@@Z
_TEXT	SEGMENT
_kStream$ = 8						; size = 4
_uiHash$220389 = 12					; size = 4
_eType$ = 12						; size = 4
?WriteHashed@CvInfosSerializationHelper@@YA_NAAVFDataStream@@W4ProcessTypes@@@Z PROC ; CvInfosSerializationHelper::WriteHashed, COMDAT

; 256  : IMPLEMENT_SERIALIZATION_INFO_TYPE_HELPER(ProcessTypes, getProcessInfo, NO_PROCESS);

	mov	eax, DWORD PTR _eType$[esp-4]
	cmp	eax, -1
	je	SHORT $LN2@WriteHashe@26
	push	eax
	mov	ecx, OFFSET ?gGlobals@@3VCvGlobals@@A	; gGlobals
	call	?getProcessInfo@CvGlobals@@QAEPAVCvProcessInfo@@W4ProcessTypes@@@Z ; CvGlobals::getProcessInfo
	mov	DWORD PTR _eType$[esp-4], eax
	jmp	?WriteHashed@CvInfosSerializationHelper@@YA_NAAVFDataStream@@PBVCvBaseInfo@@@Z ; CvInfosSerializationHelper::WriteHashed
$LN2@WriteHashe@26:
	lea	ecx, DWORD PTR _uiHash$220389[esp-4]
	push	ecx
	mov	ecx, DWORD PTR _kStream$[esp]
	mov	DWORD PTR _uiHash$220389[esp], 0
	call	?Write@FDataStream@@IAEXABI@Z		; FDataStream::Write
	xor	al, al
	ret	0
?WriteHashed@CvInfosSerializationHelper@@YA_NAAVFDataStream@@W4ProcessTypes@@@Z ENDP ; CvInfosSerializationHelper::WriteHashed
_TEXT	ENDS
PUBLIC	?WriteHashed@CvInfosSerializationHelper@@YA_NAAVFDataStream@@W4ImprovementTypes@@@Z ; CvInfosSerializationHelper::WriteHashed
EXTRN	?getImprovementInfo@CvGlobals@@QAEPAVCvImprovementEntry@@W4ImprovementTypes@@@Z:PROC ; CvGlobals::getImprovementInfo
; Function compile flags: /Ogtpy
;	COMDAT ?WriteHashed@CvInfosSerializationHelper@@YA_NAAVFDataStream@@W4ImprovementTypes@@@Z
_TEXT	SEGMENT
_kStream$ = 8						; size = 4
_uiHash$220427 = 12					; size = 4
_eType$ = 12						; size = 4
?WriteHashed@CvInfosSerializationHelper@@YA_NAAVFDataStream@@W4ImprovementTypes@@@Z PROC ; CvInfosSerializationHelper::WriteHashed, COMDAT

; 257  : IMPLEMENT_SERIALIZATION_INFO_TYPE_HELPER(ImprovementTypes, getImprovementInfo, NO_IMPROVEMENT);

	mov	eax, DWORD PTR _eType$[esp-4]
	cmp	eax, -1
	je	SHORT $LN2@WriteHashe@27
	push	eax
	mov	ecx, OFFSET ?gGlobals@@3VCvGlobals@@A	; gGlobals
	call	?getImprovementInfo@CvGlobals@@QAEPAVCvImprovementEntry@@W4ImprovementTypes@@@Z ; CvGlobals::getImprovementInfo
	mov	DWORD PTR _eType$[esp-4], eax
	jmp	?WriteHashed@CvInfosSerializationHelper@@YA_NAAVFDataStream@@PBVCvBaseInfo@@@Z ; CvInfosSerializationHelper::WriteHashed
$LN2@WriteHashe@27:
	lea	ecx, DWORD PTR _uiHash$220427[esp-4]
	push	ecx
	mov	ecx, DWORD PTR _kStream$[esp]
	mov	DWORD PTR _uiHash$220427[esp], 0
	call	?Write@FDataStream@@IAEXABI@Z		; FDataStream::Write
	xor	al, al
	ret	0
?WriteHashed@CvInfosSerializationHelper@@YA_NAAVFDataStream@@W4ImprovementTypes@@@Z ENDP ; CvInfosSerializationHelper::WriteHashed
_TEXT	ENDS
PUBLIC	?Write@CvInfosSerializationHelper@@YA_NAAVFDataStream@@PBVCvBaseInfo@@@Z ; CvInfosSerializationHelper::Write
;	COMDAT xdata$x
; File c:\users\enormousapplepie\documents\github\lekmod\lekmod_dll\fireplace\include\fireworks\fdatastream.h
xdata$x	SEGMENT
__unwindtable$?Write@CvInfosSerializationHelper@@YA_NAAVFDataStream@@PBVCvBaseInfo@@@Z DD 0ffffffffH
	DD	FLAT:__unwindfunclet$?Write@CvInfosSerializationHelper@@YA_NAAVFDataStream@@PBVCvBaseInfo@@@Z$0
__ehfuncinfo$?Write@CvInfosSerializationHelper@@YA_NAAVFDataStream@@PBVCvBaseInfo@@@Z DD 019930522H
	DD	01H
	DD	FLAT:__unwindtable$?Write@CvInfosSerializationHelper@@YA_NAAVFDataStream@@PBVCvBaseInfo@@@Z
	DD	2 DUP(00H)
	DD	2 DUP(00H)
	DD	00H
	DD	01H
; Function compile flags: /Ogtpy
; File c:\users\enormousapplepie\documents\github\lekmod\lekmod_dll\cvgamecoredll_expansion2\cvinfosserializationhelper.cpp
xdata$x	ENDS
;	COMDAT ?Write@CvInfosSerializationHelper@@YA_NAAVFDataStream@@PBVCvBaseInfo@@@Z
_TEXT	SEGMENT
_sTemp$218582 = -288					; size = 4
_iLen$218594 = -284					; size = 4
_FStringFixedBuffer_sTemp$218583 = -280			; size = 268
__$EHRec$ = -12						; size = 12
_kStream$ = 8						; size = 4
_pkInfo$ = 12						; size = 4
?Write@CvInfosSerializationHelper@@YA_NAAVFDataStream@@PBVCvBaseInfo@@@Z PROC ; CvInfosSerializationHelper::Write, COMDAT

; 267  : {

	mov	eax, DWORD PTR fs:0
	push	-1
	push	__ehhandler$?Write@CvInfosSerializationHelper@@YA_NAAVFDataStream@@PBVCvBaseInfo@@@Z
	push	eax
	mov	DWORD PTR fs:0, esp
	sub	esp, 276				; 00000114H
	push	esi

; 268  : 	if(pkInfo)

	mov	esi, DWORD PTR _pkInfo$[esp+288]
	test	esi, esi
	je	$LN2@Write

; 269  : 	{
; 270  : 		FStringFixedBuffer(sTemp, 256);

	call	?FStringA_GetStringInitData@@YAPAUFStringAData@FStringA@@XZ ; FStringA_GetStringInitData
	add	eax, 12					; 0000000cH
	mov	DWORD PTR _sTemp$218582[esp+292], eax
	lea	eax, DWORD PTR _sTemp$218582[esp+292]
	push	eax
	lea	ecx, DWORD PTR _FStringFixedBuffer_sTemp$218583[esp+296]
	mov	DWORD PTR __$EHRec$[esp+304], 0
	call	??0?$FStringAFixedBuffer@$0BAA@@FStringA@@QAE@AAV1@@Z ; FStringA::FStringAFixedBuffer<256>::FStringAFixedBuffer<256>

; 271  : 		sTemp = pkInfo->GetType();

	lea	ecx, DWORD PTR [esi+176]
	call	DWORD PTR __imp_?c_str@?$basic_string@DU?$char_traits@D@std@@V?$allocator@D@2@@std@@QBEPBDXZ
	test	eax, eax
	je	SHORT $LN18@Write
	mov	ecx, eax
	lea	esi, DWORD PTR [ecx+1]
$LL37@Write:
	mov	dl, BYTE PTR [ecx]
	inc	ecx
	test	dl, dl
	jne	SHORT $LL37@Write
	sub	ecx, esi
	jmp	SHORT $LN19@Write
$LN18@Write:
	xor	ecx, ecx
$LN19@Write:
	push	0
	push	eax
	push	ecx
	lea	ecx, DWORD PTR _sTemp$218582[esp+304]
	call	?Copy@FStringA@@QAEXHPBDH@Z		; FStringA::Copy

; 272  : 		kStream << sTemp;

	lea	ecx, DWORD PTR _sTemp$218582[esp+292]
	push	ecx
	mov	ecx, DWORD PTR _kStream$[esp+292]
	call	?Write@FDataStream@@IAEXABVFStringA@@@Z	; FDataStream::Write

; 273  : 		return true;

	mov	esi, DWORD PTR _sTemp$218582[esp+292]
	add	esi, -12				; fffffff4H
	mov	DWORD PTR __$EHRec$[esp+300], -1
	je	SHORT $LN28@Write
	call	?FStringA_GetStringInitData@@YAPAUFStringAData@FStringA@@XZ ; FStringA_GetStringInitData
	cmp	esi, eax
	je	SHORT $LN28@Write
	cmp	WORD PTR [esi+10], 0
	jne	SHORT $LN28@Write
	push	esi
	call	??_V@YAXPAX@Z				; operator delete[]
	add	esp, 4
$LN28@Write:
	mov	DWORD PTR _sTemp$218582[esp+292], 0
	call	?FStringA_GetStringInitData@@YAPAUFStringAData@FStringA@@XZ ; FStringA_GetStringInitData
	mov	al, 1
	pop	esi

; 280  : 	}
; 281  : 
; 282  : 	return false;
; 283  : }

	mov	ecx, DWORD PTR __$EHRec$[esp+288]
	mov	DWORD PTR fs:0, ecx
	add	esp, 288				; 00000120H
	ret	0
$LN2@Write:

; 274  : 	}
; 275  : 	else
; 276  : 	{
; 277  : 		// To save space, just write an empty string to denote a missing type
; 278  : 		int iLen = 0;
; 279  : 		kStream << iLen;

	mov	ecx, DWORD PTR _kStream$[esp+288]
	lea	edx, DWORD PTR _iLen$218594[esp+292]
	push	edx
	mov	DWORD PTR _iLen$218594[esp+296], 0
	call	?Write@FDataStream@@IAEXABH@Z		; FDataStream::Write

; 280  : 	}
; 281  : 
; 282  : 	return false;
; 283  : }

	mov	ecx, DWORD PTR __$EHRec$[esp+292]
	xor	al, al
	pop	esi
	mov	DWORD PTR fs:0, ecx
	add	esp, 288				; 00000120H
	ret	0
_TEXT	ENDS
;	COMDAT text$x
text$x	SEGMENT
__unwindfunclet$?Write@CvInfosSerializationHelper@@YA_NAAVFDataStream@@PBVCvBaseInfo@@@Z$0:
	lea	ecx, DWORD PTR _sTemp$218582[ebp]
	jmp	??1FStringA@@QAE@XZ			; FStringA::~FStringA
__ehhandler$?Write@CvInfosSerializationHelper@@YA_NAAVFDataStream@@PBVCvBaseInfo@@@Z:
	mov	eax, OFFSET __ehfuncinfo$?Write@CvInfosSerializationHelper@@YA_NAAVFDataStream@@PBVCvBaseInfo@@@Z
	jmp	___CxxFrameHandler3
text$x	ENDS
?Write@CvInfosSerializationHelper@@YA_NAAVFDataStream@@PBVCvBaseInfo@@@Z ENDP ; CvInfosSerializationHelper::Write
PUBLIC	?Write@CvInfosSerializationHelper@@YA_NAAVFDataStream@@W4ResourceTypes@@@Z ; CvInfosSerializationHelper::Write
; Function compile flags: /Ogtpy
;	COMDAT ?Write@CvInfosSerializationHelper@@YA_NAAVFDataStream@@W4ResourceTypes@@@Z
_TEXT	SEGMENT
_kStream$ = 8						; size = 4
_iLen$220661 = 12					; size = 4
_eType$ = 12						; size = 4
?Write@CvInfosSerializationHelper@@YA_NAAVFDataStream@@W4ResourceTypes@@@Z PROC ; CvInfosSerializationHelper::Write, COMDAT

; 232  : IMPLEMENT_SERIALIZATION_INFO_TYPE_HELPER(ResourceTypes, getResourceInfo, NO_RESOURCE);

	mov	eax, DWORD PTR _eType$[esp-4]
	cmp	eax, -1
	je	SHORT $LN2@Write@2
	push	eax
	mov	ecx, OFFSET ?gGlobals@@3VCvGlobals@@A	; gGlobals
	call	?getResourceInfo@CvGlobals@@QAEPAVCvResourceInfo@@W4ResourceTypes@@@Z ; CvGlobals::getResourceInfo
	push	eax
	mov	eax, DWORD PTR _kStream$[esp]
	push	eax
	call	?Write@CvInfosSerializationHelper@@YA_NAAVFDataStream@@PBVCvBaseInfo@@@Z ; CvInfosSerializationHelper::Write
	add	esp, 8
	ret	0
$LN2@Write@2:
	lea	ecx, DWORD PTR _iLen$220661[esp-4]
	push	ecx
	mov	ecx, DWORD PTR _kStream$[esp]
	mov	DWORD PTR _iLen$220661[esp], 0
	call	?Write@FDataStream@@IAEXABH@Z		; FDataStream::Write
	xor	al, al
	ret	0
?Write@CvInfosSerializationHelper@@YA_NAAVFDataStream@@W4ResourceTypes@@@Z ENDP ; CvInfosSerializationHelper::Write
_TEXT	ENDS
PUBLIC	?Write@CvInfosSerializationHelper@@YA_NAAVFDataStream@@W4PolicyTypes@@@Z ; CvInfosSerializationHelper::Write
; Function compile flags: /Ogtpy
;	COMDAT ?Write@CvInfosSerializationHelper@@YA_NAAVFDataStream@@W4PolicyTypes@@@Z
_TEXT	SEGMENT
_kStream$ = 8						; size = 4
_iLen$220763 = 12					; size = 4
_eType$ = 12						; size = 4
?Write@CvInfosSerializationHelper@@YA_NAAVFDataStream@@W4PolicyTypes@@@Z PROC ; CvInfosSerializationHelper::Write, COMDAT

; 233  : IMPLEMENT_SERIALIZATION_INFO_TYPE_HELPER(PolicyTypes, getPolicyInfo, NO_POLICY);

	mov	eax, DWORD PTR _eType$[esp-4]
	cmp	eax, -1
	je	SHORT $LN2@Write@3
	push	eax
	mov	ecx, OFFSET ?gGlobals@@3VCvGlobals@@A	; gGlobals
	call	?getPolicyInfo@CvGlobals@@QAEPAVCvPolicyEntry@@W4PolicyTypes@@@Z ; CvGlobals::getPolicyInfo
	push	eax
	mov	eax, DWORD PTR _kStream$[esp]
	push	eax
	call	?Write@CvInfosSerializationHelper@@YA_NAAVFDataStream@@PBVCvBaseInfo@@@Z ; CvInfosSerializationHelper::Write
	add	esp, 8
	ret	0
$LN2@Write@3:
	lea	ecx, DWORD PTR _iLen$220763[esp-4]
	push	ecx
	mov	ecx, DWORD PTR _kStream$[esp]
	mov	DWORD PTR _iLen$220763[esp], 0
	call	?Write@FDataStream@@IAEXABH@Z		; FDataStream::Write
	xor	al, al
	ret	0
?Write@CvInfosSerializationHelper@@YA_NAAVFDataStream@@W4PolicyTypes@@@Z ENDP ; CvInfosSerializationHelper::Write
_TEXT	ENDS
PUBLIC	?Write@CvInfosSerializationHelper@@YA_NAAVFDataStream@@W4PolicyBranchTypes@@@Z ; CvInfosSerializationHelper::Write
; Function compile flags: /Ogtpy
;	COMDAT ?Write@CvInfosSerializationHelper@@YA_NAAVFDataStream@@W4PolicyBranchTypes@@@Z
_TEXT	SEGMENT
_kStream$ = 8						; size = 4
_iLen$220899 = 12					; size = 4
_eType$ = 12						; size = 4
?Write@CvInfosSerializationHelper@@YA_NAAVFDataStream@@W4PolicyBranchTypes@@@Z PROC ; CvInfosSerializationHelper::Write, COMDAT

; 234  : IMPLEMENT_SERIALIZATION_INFO_TYPE_HELPER(PolicyBranchTypes, getPolicyBranchInfo, NO_POLICY_BRANCH_TYPE);

	mov	eax, DWORD PTR _eType$[esp-4]
	cmp	eax, -1
	je	SHORT $LN2@Write@4
	push	eax
	mov	ecx, OFFSET ?gGlobals@@3VCvGlobals@@A	; gGlobals
	call	?getPolicyBranchInfo@CvGlobals@@QAEPAVCvPolicyBranchEntry@@W4PolicyBranchTypes@@@Z ; CvGlobals::getPolicyBranchInfo
	push	eax
	mov	eax, DWORD PTR _kStream$[esp]
	push	eax
	call	?Write@CvInfosSerializationHelper@@YA_NAAVFDataStream@@PBVCvBaseInfo@@@Z ; CvInfosSerializationHelper::Write
	add	esp, 8
	ret	0
$LN2@Write@4:
	lea	ecx, DWORD PTR _iLen$220899[esp-4]
	push	ecx
	mov	ecx, DWORD PTR _kStream$[esp]
	mov	DWORD PTR _iLen$220899[esp], 0
	call	?Write@FDataStream@@IAEXABH@Z		; FDataStream::Write
	xor	al, al
	ret	0
?Write@CvInfosSerializationHelper@@YA_NAAVFDataStream@@W4PolicyBranchTypes@@@Z ENDP ; CvInfosSerializationHelper::Write
_TEXT	ENDS
PUBLIC	?Write@CvInfosSerializationHelper@@YA_NAAVFDataStream@@W4TechTypes@@@Z ; CvInfosSerializationHelper::Write
; Function compile flags: /Ogtpy
;	COMDAT ?Write@CvInfosSerializationHelper@@YA_NAAVFDataStream@@W4TechTypes@@@Z
_TEXT	SEGMENT
_kStream$ = 8						; size = 4
_iLen$221035 = 12					; size = 4
_eType$ = 12						; size = 4
?Write@CvInfosSerializationHelper@@YA_NAAVFDataStream@@W4TechTypes@@@Z PROC ; CvInfosSerializationHelper::Write, COMDAT

; 235  : IMPLEMENT_SERIALIZATION_INFO_TYPE_HELPER(TechTypes, getTechInfo, NO_TECH);

	mov	eax, DWORD PTR _eType$[esp-4]
	cmp	eax, -1
	je	SHORT $LN2@Write@5
	push	eax
	mov	ecx, OFFSET ?gGlobals@@3VCvGlobals@@A	; gGlobals
	call	?getTechInfo@CvGlobals@@QAEPAVCvTechEntry@@W4TechTypes@@@Z ; CvGlobals::getTechInfo
	push	eax
	mov	eax, DWORD PTR _kStream$[esp]
	push	eax
	call	?Write@CvInfosSerializationHelper@@YA_NAAVFDataStream@@PBVCvBaseInfo@@@Z ; CvInfosSerializationHelper::Write
	add	esp, 8
	ret	0
$LN2@Write@5:
	lea	ecx, DWORD PTR _iLen$221035[esp-4]
	push	ecx
	mov	ecx, DWORD PTR _kStream$[esp]
	mov	DWORD PTR _iLen$221035[esp], 0
	call	?Write@FDataStream@@IAEXABH@Z		; FDataStream::Write
	xor	al, al
	ret	0
?Write@CvInfosSerializationHelper@@YA_NAAVFDataStream@@W4TechTypes@@@Z ENDP ; CvInfosSerializationHelper::Write
_TEXT	ENDS
PUBLIC	?Write@CvInfosSerializationHelper@@YA_NAAVFDataStream@@W4BeliefTypes@@@Z ; CvInfosSerializationHelper::Write
; Function compile flags: /Ogtpy
;	COMDAT ?Write@CvInfosSerializationHelper@@YA_NAAVFDataStream@@W4BeliefTypes@@@Z
_TEXT	SEGMENT
_kStream$ = 8						; size = 4
_iLen$221171 = 12					; size = 4
_eType$ = 12						; size = 4
?Write@CvInfosSerializationHelper@@YA_NAAVFDataStream@@W4BeliefTypes@@@Z PROC ; CvInfosSerializationHelper::Write, COMDAT

; 236  : IMPLEMENT_SERIALIZATION_INFO_TYPE_HELPER(BeliefTypes, getBeliefInfo, NO_BELIEF);

	mov	eax, DWORD PTR _eType$[esp-4]
	cmp	eax, -1
	je	SHORT $LN2@Write@6
	push	eax
	mov	ecx, OFFSET ?gGlobals@@3VCvGlobals@@A	; gGlobals
	call	?getBeliefInfo@CvGlobals@@QAEPAVCvBeliefEntry@@W4BeliefTypes@@@Z ; CvGlobals::getBeliefInfo
	push	eax
	mov	eax, DWORD PTR _kStream$[esp]
	push	eax
	call	?Write@CvInfosSerializationHelper@@YA_NAAVFDataStream@@PBVCvBaseInfo@@@Z ; CvInfosSerializationHelper::Write
	add	esp, 8
	ret	0
$LN2@Write@6:
	lea	ecx, DWORD PTR _iLen$221171[esp-4]
	push	ecx
	mov	ecx, DWORD PTR _kStream$[esp]
	mov	DWORD PTR _iLen$221171[esp], 0
	call	?Write@FDataStream@@IAEXABH@Z		; FDataStream::Write
	xor	al, al
	ret	0
?Write@CvInfosSerializationHelper@@YA_NAAVFDataStream@@W4BeliefTypes@@@Z ENDP ; CvInfosSerializationHelper::Write
_TEXT	ENDS
PUBLIC	?Write@CvInfosSerializationHelper@@YA_NAAVFDataStream@@W4ReligionTypes@@@Z ; CvInfosSerializationHelper::Write
; Function compile flags: /Ogtpy
;	COMDAT ?Write@CvInfosSerializationHelper@@YA_NAAVFDataStream@@W4ReligionTypes@@@Z
_TEXT	SEGMENT
_kStream$ = 8						; size = 4
_iLen$221341 = 12					; size = 4
_eType$ = 12						; size = 4
?Write@CvInfosSerializationHelper@@YA_NAAVFDataStream@@W4ReligionTypes@@@Z PROC ; CvInfosSerializationHelper::Write, COMDAT

; 237  : IMPLEMENT_SERIALIZATION_INFO_TYPE_HELPER(ReligionTypes, getReligionInfo, NO_RELIGION);

	mov	eax, DWORD PTR _eType$[esp-4]
	cmp	eax, -1
	je	SHORT $LN2@Write@7
	push	eax
	mov	ecx, OFFSET ?gGlobals@@3VCvGlobals@@A	; gGlobals
	call	?getReligionInfo@CvGlobals@@QAEPAVCvReligionEntry@@W4ReligionTypes@@@Z ; CvGlobals::getReligionInfo
	push	eax
	mov	eax, DWORD PTR _kStream$[esp]
	push	eax
	call	?Write@CvInfosSerializationHelper@@YA_NAAVFDataStream@@PBVCvBaseInfo@@@Z ; CvInfosSerializationHelper::Write
	add	esp, 8
	ret	0
$LN2@Write@7:
	lea	ecx, DWORD PTR _iLen$221341[esp-4]
	push	ecx
	mov	ecx, DWORD PTR _kStream$[esp]
	mov	DWORD PTR _iLen$221341[esp], 0
	call	?Write@FDataStream@@IAEXABH@Z		; FDataStream::Write
	xor	al, al
	ret	0
?Write@CvInfosSerializationHelper@@YA_NAAVFDataStream@@W4ReligionTypes@@@Z ENDP ; CvInfosSerializationHelper::Write
_TEXT	ENDS
PUBLIC	?Write@CvInfosSerializationHelper@@YA_NAAVFDataStream@@W4PlayerColorTypes@@@Z ; CvInfosSerializationHelper::Write
; Function compile flags: /Ogtpy
;	COMDAT ?Write@CvInfosSerializationHelper@@YA_NAAVFDataStream@@W4PlayerColorTypes@@@Z
_TEXT	SEGMENT
_kStream$ = 8						; size = 4
_iLen$221477 = 12					; size = 4
_eType$ = 12						; size = 4
?Write@CvInfosSerializationHelper@@YA_NAAVFDataStream@@W4PlayerColorTypes@@@Z PROC ; CvInfosSerializationHelper::Write, COMDAT

; 238  : IMPLEMENT_SERIALIZATION_INFO_TYPE_HELPER(PlayerColorTypes, GetPlayerColorInfo, NO_PLAYERCOLOR);

	mov	eax, DWORD PTR _eType$[esp-4]
	cmp	eax, -1
	je	SHORT $LN2@Write@8
	push	eax
	mov	ecx, OFFSET ?gGlobals@@3VCvGlobals@@A	; gGlobals
	call	?GetPlayerColorInfo@CvGlobals@@QAEPAVCvPlayerColorInfo@@W4PlayerColorTypes@@@Z ; CvGlobals::GetPlayerColorInfo
	push	eax
	mov	eax, DWORD PTR _kStream$[esp]
	push	eax
	call	?Write@CvInfosSerializationHelper@@YA_NAAVFDataStream@@PBVCvBaseInfo@@@Z ; CvInfosSerializationHelper::Write
	add	esp, 8
	ret	0
$LN2@Write@8:
	lea	ecx, DWORD PTR _iLen$221477[esp-4]
	push	ecx
	mov	ecx, DWORD PTR _kStream$[esp]
	mov	DWORD PTR _iLen$221477[esp], 0
	call	?Write@FDataStream@@IAEXABH@Z		; FDataStream::Write
	xor	al, al
	ret	0
?Write@CvInfosSerializationHelper@@YA_NAAVFDataStream@@W4PlayerColorTypes@@@Z ENDP ; CvInfosSerializationHelper::Write
_TEXT	ENDS
PUBLIC	?Write@CvInfosSerializationHelper@@YA_NAAVFDataStream@@W4MinorCivTypes@@@Z ; CvInfosSerializationHelper::Write
; Function compile flags: /Ogtpy
;	COMDAT ?Write@CvInfosSerializationHelper@@YA_NAAVFDataStream@@W4MinorCivTypes@@@Z
_TEXT	SEGMENT
_kStream$ = 8						; size = 4
_iLen$221613 = 12					; size = 4
_eType$ = 12						; size = 4
?Write@CvInfosSerializationHelper@@YA_NAAVFDataStream@@W4MinorCivTypes@@@Z PROC ; CvInfosSerializationHelper::Write, COMDAT

; 239  : IMPLEMENT_SERIALIZATION_INFO_TYPE_HELPER(MinorCivTypes, getMinorCivInfo, NO_MINORCIV);

	mov	eax, DWORD PTR _eType$[esp-4]
	cmp	eax, -1
	je	SHORT $LN2@Write@9
	push	eax
	mov	ecx, OFFSET ?gGlobals@@3VCvGlobals@@A	; gGlobals
	call	?getMinorCivInfo@CvGlobals@@QAEPAVCvMinorCivInfo@@W4MinorCivTypes@@@Z ; CvGlobals::getMinorCivInfo
	push	eax
	mov	eax, DWORD PTR _kStream$[esp]
	push	eax
	call	?Write@CvInfosSerializationHelper@@YA_NAAVFDataStream@@PBVCvBaseInfo@@@Z ; CvInfosSerializationHelper::Write
	add	esp, 8
	ret	0
$LN2@Write@9:
	lea	ecx, DWORD PTR _iLen$221613[esp-4]
	push	ecx
	mov	ecx, DWORD PTR _kStream$[esp]
	mov	DWORD PTR _iLen$221613[esp], 0
	call	?Write@FDataStream@@IAEXABH@Z		; FDataStream::Write
	xor	al, al
	ret	0
?Write@CvInfosSerializationHelper@@YA_NAAVFDataStream@@W4MinorCivTypes@@@Z ENDP ; CvInfosSerializationHelper::Write
_TEXT	ENDS
PUBLIC	?Write@CvInfosSerializationHelper@@YA_NAAVFDataStream@@W4SpecialistTypes@@@Z ; CvInfosSerializationHelper::Write
; Function compile flags: /Ogtpy
;	COMDAT ?Write@CvInfosSerializationHelper@@YA_NAAVFDataStream@@W4SpecialistTypes@@@Z
_TEXT	SEGMENT
_kStream$ = 8						; size = 4
_iLen$221733 = 12					; size = 4
_eType$ = 12						; size = 4
?Write@CvInfosSerializationHelper@@YA_NAAVFDataStream@@W4SpecialistTypes@@@Z PROC ; CvInfosSerializationHelper::Write, COMDAT

; 240  : IMPLEMENT_SERIALIZATION_INFO_TYPE_HELPER(SpecialistTypes, getSpecialistInfo, NO_SPECIALIST);

	mov	eax, DWORD PTR _eType$[esp-4]
	cmp	eax, -1
	je	SHORT $LN2@Write@10
	push	eax
	mov	ecx, OFFSET ?gGlobals@@3VCvGlobals@@A	; gGlobals
	call	?getSpecialistInfo@CvGlobals@@QAEPAVCvSpecialistInfo@@W4SpecialistTypes@@@Z ; CvGlobals::getSpecialistInfo
	push	eax
	mov	eax, DWORD PTR _kStream$[esp]
	push	eax
	call	?Write@CvInfosSerializationHelper@@YA_NAAVFDataStream@@PBVCvBaseInfo@@@Z ; CvInfosSerializationHelper::Write
	add	esp, 8
	ret	0
$LN2@Write@10:
	lea	ecx, DWORD PTR _iLen$221733[esp-4]
	push	ecx
	mov	ecx, DWORD PTR _kStream$[esp]
	mov	DWORD PTR _iLen$221733[esp], 0
	call	?Write@FDataStream@@IAEXABH@Z		; FDataStream::Write
	xor	al, al
	ret	0
?Write@CvInfosSerializationHelper@@YA_NAAVFDataStream@@W4SpecialistTypes@@@Z ENDP ; CvInfosSerializationHelper::Write
_TEXT	ENDS
PUBLIC	?Write@CvInfosSerializationHelper@@YA_NAAVFDataStream@@W4EmphasizeTypes@@@Z ; CvInfosSerializationHelper::Write
; Function compile flags: /Ogtpy
;	COMDAT ?Write@CvInfosSerializationHelper@@YA_NAAVFDataStream@@W4EmphasizeTypes@@@Z
_TEXT	SEGMENT
_kStream$ = 8						; size = 4
_iLen$221851 = 12					; size = 4
_eType$ = 12						; size = 4
?Write@CvInfosSerializationHelper@@YA_NAAVFDataStream@@W4EmphasizeTypes@@@Z PROC ; CvInfosSerializationHelper::Write, COMDAT

; 241  : IMPLEMENT_SERIALIZATION_INFO_TYPE_HELPER(EmphasizeTypes, getEmphasisInfo, NO_EMPHASIZE);

	mov	eax, DWORD PTR _eType$[esp-4]
	cmp	eax, -1
	je	SHORT $LN2@Write@11
	push	eax
	mov	ecx, OFFSET ?gGlobals@@3VCvGlobals@@A	; gGlobals
	call	?getEmphasisInfo@CvGlobals@@QAEPAVCvEmphasisEntry@@W4EmphasizeTypes@@@Z ; CvGlobals::getEmphasisInfo
	push	eax
	mov	eax, DWORD PTR _kStream$[esp]
	push	eax
	call	?Write@CvInfosSerializationHelper@@YA_NAAVFDataStream@@PBVCvBaseInfo@@@Z ; CvInfosSerializationHelper::Write
	add	esp, 8
	ret	0
$LN2@Write@11:
	lea	ecx, DWORD PTR _iLen$221851[esp-4]
	push	ecx
	mov	ecx, DWORD PTR _kStream$[esp]
	mov	DWORD PTR _iLen$221851[esp], 0
	call	?Write@FDataStream@@IAEXABH@Z		; FDataStream::Write
	xor	al, al
	ret	0
?Write@CvInfosSerializationHelper@@YA_NAAVFDataStream@@W4EmphasizeTypes@@@Z ENDP ; CvInfosSerializationHelper::Write
_TEXT	ENDS
PUBLIC	?Write@CvInfosSerializationHelper@@YA_NAAVFDataStream@@W4ProjectTypes@@@Z ; CvInfosSerializationHelper::Write
; Function compile flags: /Ogtpy
;	COMDAT ?Write@CvInfosSerializationHelper@@YA_NAAVFDataStream@@W4ProjectTypes@@@Z
_TEXT	SEGMENT
_kStream$ = 8						; size = 4
_iLen$221987 = 12					; size = 4
_eType$ = 12						; size = 4
?Write@CvInfosSerializationHelper@@YA_NAAVFDataStream@@W4ProjectTypes@@@Z PROC ; CvInfosSerializationHelper::Write, COMDAT

; 242  : IMPLEMENT_SERIALIZATION_INFO_TYPE_HELPER(ProjectTypes, getProjectInfo, NO_PROJECT);

	mov	eax, DWORD PTR _eType$[esp-4]
	cmp	eax, -1
	je	SHORT $LN2@Write@12
	push	eax
	mov	ecx, OFFSET ?gGlobals@@3VCvGlobals@@A	; gGlobals
	call	?getProjectInfo@CvGlobals@@QAEPAVCvProjectEntry@@W4ProjectTypes@@@Z ; CvGlobals::getProjectInfo
	push	eax
	mov	eax, DWORD PTR _kStream$[esp]
	push	eax
	call	?Write@CvInfosSerializationHelper@@YA_NAAVFDataStream@@PBVCvBaseInfo@@@Z ; CvInfosSerializationHelper::Write
	add	esp, 8
	ret	0
$LN2@Write@12:
	lea	ecx, DWORD PTR _iLen$221987[esp-4]
	push	ecx
	mov	ecx, DWORD PTR _kStream$[esp]
	mov	DWORD PTR _iLen$221987[esp], 0
	call	?Write@FDataStream@@IAEXABH@Z		; FDataStream::Write
	xor	al, al
	ret	0
?Write@CvInfosSerializationHelper@@YA_NAAVFDataStream@@W4ProjectTypes@@@Z ENDP ; CvInfosSerializationHelper::Write
_TEXT	ENDS
PUBLIC	?Write@CvInfosSerializationHelper@@YA_NAAVFDataStream@@W4VoteTypes@@@Z ; CvInfosSerializationHelper::Write
; Function compile flags: /Ogtpy
;	COMDAT ?Write@CvInfosSerializationHelper@@YA_NAAVFDataStream@@W4VoteTypes@@@Z
_TEXT	SEGMENT
_kStream$ = 8						; size = 4
_iLen$222123 = 12					; size = 4
_eType$ = 12						; size = 4
?Write@CvInfosSerializationHelper@@YA_NAAVFDataStream@@W4VoteTypes@@@Z PROC ; CvInfosSerializationHelper::Write, COMDAT

; 243  : IMPLEMENT_SERIALIZATION_INFO_TYPE_HELPER(VoteTypes, getVoteInfo, NO_VOTE);

	mov	eax, DWORD PTR _eType$[esp-4]
	cmp	eax, -1
	je	SHORT $LN2@Write@13
	push	eax
	mov	ecx, OFFSET ?gGlobals@@3VCvGlobals@@A	; gGlobals
	call	?getVoteInfo@CvGlobals@@QAEPAVCvVoteInfo@@W4VoteTypes@@@Z ; CvGlobals::getVoteInfo
	push	eax
	mov	eax, DWORD PTR _kStream$[esp]
	push	eax
	call	?Write@CvInfosSerializationHelper@@YA_NAAVFDataStream@@PBVCvBaseInfo@@@Z ; CvInfosSerializationHelper::Write
	add	esp, 8
	ret	0
$LN2@Write@13:
	lea	ecx, DWORD PTR _iLen$222123[esp-4]
	push	ecx
	mov	ecx, DWORD PTR _kStream$[esp]
	mov	DWORD PTR _iLen$222123[esp], 0
	call	?Write@FDataStream@@IAEXABH@Z		; FDataStream::Write
	xor	al, al
	ret	0
?Write@CvInfosSerializationHelper@@YA_NAAVFDataStream@@W4VoteTypes@@@Z ENDP ; CvInfosSerializationHelper::Write
_TEXT	ENDS
PUBLIC	?Write@CvInfosSerializationHelper@@YA_NAAVFDataStream@@W4VoteSourceTypes@@@Z ; CvInfosSerializationHelper::Write
; Function compile flags: /Ogtpy
;	COMDAT ?Write@CvInfosSerializationHelper@@YA_NAAVFDataStream@@W4VoteSourceTypes@@@Z
_TEXT	SEGMENT
_kStream$ = 8						; size = 4
_iLen$222275 = 12					; size = 4
_eType$ = 12						; size = 4
?Write@CvInfosSerializationHelper@@YA_NAAVFDataStream@@W4VoteSourceTypes@@@Z PROC ; CvInfosSerializationHelper::Write, COMDAT

; 244  : IMPLEMENT_SERIALIZATION_INFO_TYPE_HELPER(VoteSourceTypes, getVoteSourceInfo, NO_VOTESOURCE);

	mov	eax, DWORD PTR _eType$[esp-4]
	cmp	eax, -1
	je	SHORT $LN2@Write@14
	push	eax
	mov	ecx, OFFSET ?gGlobals@@3VCvGlobals@@A	; gGlobals
	call	?getVoteSourceInfo@CvGlobals@@QAEPAVCvVoteSourceInfo@@W4VoteSourceTypes@@@Z ; CvGlobals::getVoteSourceInfo
	push	eax
	mov	eax, DWORD PTR _kStream$[esp]
	push	eax
	call	?Write@CvInfosSerializationHelper@@YA_NAAVFDataStream@@PBVCvBaseInfo@@@Z ; CvInfosSerializationHelper::Write
	add	esp, 8
	ret	0
$LN2@Write@14:
	lea	ecx, DWORD PTR _iLen$222275[esp-4]
	push	ecx
	mov	ecx, DWORD PTR _kStream$[esp]
	mov	DWORD PTR _iLen$222275[esp], 0
	call	?Write@FDataStream@@IAEXABH@Z		; FDataStream::Write
	xor	al, al
	ret	0
?Write@CvInfosSerializationHelper@@YA_NAAVFDataStream@@W4VoteSourceTypes@@@Z ENDP ; CvInfosSerializationHelper::Write
_TEXT	ENDS
PUBLIC	?Write@CvInfosSerializationHelper@@YA_NAAVFDataStream@@W4SpecialUnitTypes@@@Z ; CvInfosSerializationHelper::Write
; Function compile flags: /Ogtpy
;	COMDAT ?Write@CvInfosSerializationHelper@@YA_NAAVFDataStream@@W4SpecialUnitTypes@@@Z
_TEXT	SEGMENT
_kStream$ = 8						; size = 4
_iLen$222429 = 12					; size = 4
_eType$ = 12						; size = 4
?Write@CvInfosSerializationHelper@@YA_NAAVFDataStream@@W4SpecialUnitTypes@@@Z PROC ; CvInfosSerializationHelper::Write, COMDAT

; 245  : IMPLEMENT_SERIALIZATION_INFO_TYPE_HELPER(SpecialUnitTypes, getSpecialUnitInfo, NO_SPECIALUNIT);

	mov	eax, DWORD PTR _eType$[esp-4]
	cmp	eax, -1
	je	SHORT $LN2@Write@15
	push	eax
	mov	ecx, OFFSET ?gGlobals@@3VCvGlobals@@A	; gGlobals
	call	?getSpecialUnitInfo@CvGlobals@@QAEPAVCvSpecialUnitInfo@@W4SpecialUnitTypes@@@Z ; CvGlobals::getSpecialUnitInfo
	push	eax
	mov	eax, DWORD PTR _kStream$[esp]
	push	eax
	call	?Write@CvInfosSerializationHelper@@YA_NAAVFDataStream@@PBVCvBaseInfo@@@Z ; CvInfosSerializationHelper::Write
	add	esp, 8
	ret	0
$LN2@Write@15:
	lea	ecx, DWORD PTR _iLen$222429[esp-4]
	push	ecx
	mov	ecx, DWORD PTR _kStream$[esp]
	mov	DWORD PTR _iLen$222429[esp], 0
	call	?Write@FDataStream@@IAEXABH@Z		; FDataStream::Write
	xor	al, al
	ret	0
?Write@CvInfosSerializationHelper@@YA_NAAVFDataStream@@W4SpecialUnitTypes@@@Z ENDP ; CvInfosSerializationHelper::Write
_TEXT	ENDS
PUBLIC	?Write@CvInfosSerializationHelper@@YA_NAAVFDataStream@@W4VictoryTypes@@@Z ; CvInfosSerializationHelper::Write
; Function compile flags: /Ogtpy
;	COMDAT ?Write@CvInfosSerializationHelper@@YA_NAAVFDataStream@@W4VictoryTypes@@@Z
_TEXT	SEGMENT
_kStream$ = 8						; size = 4
_iLen$222565 = 12					; size = 4
_eType$ = 12						; size = 4
?Write@CvInfosSerializationHelper@@YA_NAAVFDataStream@@W4VictoryTypes@@@Z PROC ; CvInfosSerializationHelper::Write, COMDAT

; 246  : IMPLEMENT_SERIALIZATION_INFO_TYPE_HELPER(VictoryTypes, getVictoryInfo, NO_VICTORY);

	mov	eax, DWORD PTR _eType$[esp-4]
	cmp	eax, -1
	je	SHORT $LN2@Write@16
	push	eax
	mov	ecx, OFFSET ?gGlobals@@3VCvGlobals@@A	; gGlobals
	call	?getVictoryInfo@CvGlobals@@QAEPAVCvVictoryInfo@@W4VictoryTypes@@@Z ; CvGlobals::getVictoryInfo
	push	eax
	mov	eax, DWORD PTR _kStream$[esp]
	push	eax
	call	?Write@CvInfosSerializationHelper@@YA_NAAVFDataStream@@PBVCvBaseInfo@@@Z ; CvInfosSerializationHelper::Write
	add	esp, 8
	ret	0
$LN2@Write@16:
	lea	ecx, DWORD PTR _iLen$222565[esp-4]
	push	ecx
	mov	ecx, DWORD PTR _kStream$[esp]
	mov	DWORD PTR _iLen$222565[esp], 0
	call	?Write@FDataStream@@IAEXABH@Z		; FDataStream::Write
	xor	al, al
	ret	0
?Write@CvInfosSerializationHelper@@YA_NAAVFDataStream@@W4VictoryTypes@@@Z ENDP ; CvInfosSerializationHelper::Write
_TEXT	ENDS
PUBLIC	?Write@CvInfosSerializationHelper@@YA_NAAVFDataStream@@W4BuildingTypes@@@Z ; CvInfosSerializationHelper::Write
; Function compile flags: /Ogtpy
;	COMDAT ?Write@CvInfosSerializationHelper@@YA_NAAVFDataStream@@W4BuildingTypes@@@Z
_TEXT	SEGMENT
_kStream$ = 8						; size = 4
_iLen$222701 = 12					; size = 4
_eType$ = 12						; size = 4
?Write@CvInfosSerializationHelper@@YA_NAAVFDataStream@@W4BuildingTypes@@@Z PROC ; CvInfosSerializationHelper::Write, COMDAT

; 247  : IMPLEMENT_SERIALIZATION_INFO_TYPE_HELPER(BuildingTypes, getBuildingInfo, NO_BUILDING);

	mov	eax, DWORD PTR _eType$[esp-4]
	cmp	eax, -1
	je	SHORT $LN2@Write@17
	push	eax
	mov	ecx, OFFSET ?gGlobals@@3VCvGlobals@@A	; gGlobals
	call	?getBuildingInfo@CvGlobals@@QAEPAVCvBuildingEntry@@W4BuildingTypes@@@Z ; CvGlobals::getBuildingInfo
	push	eax
	mov	eax, DWORD PTR _kStream$[esp]
	push	eax
	call	?Write@CvInfosSerializationHelper@@YA_NAAVFDataStream@@PBVCvBaseInfo@@@Z ; CvInfosSerializationHelper::Write
	add	esp, 8
	ret	0
$LN2@Write@17:
	lea	ecx, DWORD PTR _iLen$222701[esp-4]
	push	ecx
	mov	ecx, DWORD PTR _kStream$[esp]
	mov	DWORD PTR _iLen$222701[esp], 0
	call	?Write@FDataStream@@IAEXABH@Z		; FDataStream::Write
	xor	al, al
	ret	0
?Write@CvInfosSerializationHelper@@YA_NAAVFDataStream@@W4BuildingTypes@@@Z ENDP ; CvInfosSerializationHelper::Write
_TEXT	ENDS
PUBLIC	?Write@CvInfosSerializationHelper@@YA_NAAVFDataStream@@W4PromotionTypes@@@Z ; CvInfosSerializationHelper::Write
; Function compile flags: /Ogtpy
;	COMDAT ?Write@CvInfosSerializationHelper@@YA_NAAVFDataStream@@W4PromotionTypes@@@Z
_TEXT	SEGMENT
_kStream$ = 8						; size = 4
_iLen$222803 = 12					; size = 4
_eType$ = 12						; size = 4
?Write@CvInfosSerializationHelper@@YA_NAAVFDataStream@@W4PromotionTypes@@@Z PROC ; CvInfosSerializationHelper::Write, COMDAT

; 248  : IMPLEMENT_SERIALIZATION_INFO_TYPE_HELPER(PromotionTypes, getPromotionInfo, NO_PROMOTION);

	mov	eax, DWORD PTR _eType$[esp-4]
	cmp	eax, -1
	je	SHORT $LN2@Write@18
	push	eax
	mov	ecx, OFFSET ?gGlobals@@3VCvGlobals@@A	; gGlobals
	call	?getPromotionInfo@CvGlobals@@QAEPAVCvPromotionEntry@@W4PromotionTypes@@@Z ; CvGlobals::getPromotionInfo
	push	eax
	mov	eax, DWORD PTR _kStream$[esp]
	push	eax
	call	?Write@CvInfosSerializationHelper@@YA_NAAVFDataStream@@PBVCvBaseInfo@@@Z ; CvInfosSerializationHelper::Write
	add	esp, 8
	ret	0
$LN2@Write@18:
	lea	ecx, DWORD PTR _iLen$222803[esp-4]
	push	ecx
	mov	ecx, DWORD PTR _kStream$[esp]
	mov	DWORD PTR _iLen$222803[esp], 0
	call	?Write@FDataStream@@IAEXABH@Z		; FDataStream::Write
	xor	al, al
	ret	0
?Write@CvInfosSerializationHelper@@YA_NAAVFDataStream@@W4PromotionTypes@@@Z ENDP ; CvInfosSerializationHelper::Write
_TEXT	ENDS
PUBLIC	?Write@CvInfosSerializationHelper@@YA_NAAVFDataStream@@W4UnitTypes@@@Z ; CvInfosSerializationHelper::Write
; Function compile flags: /Ogtpy
;	COMDAT ?Write@CvInfosSerializationHelper@@YA_NAAVFDataStream@@W4UnitTypes@@@Z
_TEXT	SEGMENT
_kStream$ = 8						; size = 4
_iLen$222939 = 12					; size = 4
_eType$ = 12						; size = 4
?Write@CvInfosSerializationHelper@@YA_NAAVFDataStream@@W4UnitTypes@@@Z PROC ; CvInfosSerializationHelper::Write, COMDAT

; 249  : IMPLEMENT_SERIALIZATION_INFO_TYPE_HELPER(UnitTypes, getUnitInfo, NO_UNIT);

	mov	eax, DWORD PTR _eType$[esp-4]
	cmp	eax, -1
	je	SHORT $LN2@Write@19
	push	eax
	mov	ecx, OFFSET ?gGlobals@@3VCvGlobals@@A	; gGlobals
	call	?getUnitInfo@CvGlobals@@QAEPAVCvUnitEntry@@W4UnitTypes@@@Z ; CvGlobals::getUnitInfo
	push	eax
	mov	eax, DWORD PTR _kStream$[esp]
	push	eax
	call	?Write@CvInfosSerializationHelper@@YA_NAAVFDataStream@@PBVCvBaseInfo@@@Z ; CvInfosSerializationHelper::Write
	add	esp, 8
	ret	0
$LN2@Write@19:
	lea	ecx, DWORD PTR _iLen$222939[esp-4]
	push	ecx
	mov	ecx, DWORD PTR _kStream$[esp]
	mov	DWORD PTR _iLen$222939[esp], 0
	call	?Write@FDataStream@@IAEXABH@Z		; FDataStream::Write
	xor	al, al
	ret	0
?Write@CvInfosSerializationHelper@@YA_NAAVFDataStream@@W4UnitTypes@@@Z ENDP ; CvInfosSerializationHelper::Write
_TEXT	ENDS
PUBLIC	?Write@CvInfosSerializationHelper@@YA_NAAVFDataStream@@W4FeatureTypes@@@Z ; CvInfosSerializationHelper::Write
; Function compile flags: /Ogtpy
;	COMDAT ?Write@CvInfosSerializationHelper@@YA_NAAVFDataStream@@W4FeatureTypes@@@Z
_TEXT	SEGMENT
_kStream$ = 8						; size = 4
_iLen$223075 = 12					; size = 4
_eType$ = 12						; size = 4
?Write@CvInfosSerializationHelper@@YA_NAAVFDataStream@@W4FeatureTypes@@@Z PROC ; CvInfosSerializationHelper::Write, COMDAT

; 250  : IMPLEMENT_SERIALIZATION_INFO_TYPE_HELPER(FeatureTypes, getFeatureInfo, NO_FEATURE);

	mov	eax, DWORD PTR _eType$[esp-4]
	cmp	eax, -1
	je	SHORT $LN2@Write@20
	push	eax
	mov	ecx, OFFSET ?gGlobals@@3VCvGlobals@@A	; gGlobals
	call	?getFeatureInfo@CvGlobals@@QAEPAVCvFeatureInfo@@W4FeatureTypes@@@Z ; CvGlobals::getFeatureInfo
	push	eax
	mov	eax, DWORD PTR _kStream$[esp]
	push	eax
	call	?Write@CvInfosSerializationHelper@@YA_NAAVFDataStream@@PBVCvBaseInfo@@@Z ; CvInfosSerializationHelper::Write
	add	esp, 8
	ret	0
$LN2@Write@20:
	lea	ecx, DWORD PTR _iLen$223075[esp-4]
	push	ecx
	mov	ecx, DWORD PTR _kStream$[esp]
	mov	DWORD PTR _iLen$223075[esp], 0
	call	?Write@FDataStream@@IAEXABH@Z		; FDataStream::Write
	xor	al, al
	ret	0
?Write@CvInfosSerializationHelper@@YA_NAAVFDataStream@@W4FeatureTypes@@@Z ENDP ; CvInfosSerializationHelper::Write
_TEXT	ENDS
PUBLIC	?Write@CvInfosSerializationHelper@@YA_NAAVFDataStream@@W4TerrainTypes@@@Z ; CvInfosSerializationHelper::Write
; Function compile flags: /Ogtpy
;	COMDAT ?Write@CvInfosSerializationHelper@@YA_NAAVFDataStream@@W4TerrainTypes@@@Z
_TEXT	SEGMENT
_kStream$ = 8						; size = 4
_iLen$223211 = 12					; size = 4
_eType$ = 12						; size = 4
?Write@CvInfosSerializationHelper@@YA_NAAVFDataStream@@W4TerrainTypes@@@Z PROC ; CvInfosSerializationHelper::Write, COMDAT

; 251  : IMPLEMENT_SERIALIZATION_INFO_TYPE_HELPER(TerrainTypes, getTerrainInfo, NO_TERRAIN);

	mov	eax, DWORD PTR _eType$[esp-4]
	cmp	eax, -1
	je	SHORT $LN2@Write@21
	push	eax
	mov	ecx, OFFSET ?gGlobals@@3VCvGlobals@@A	; gGlobals
	call	?getTerrainInfo@CvGlobals@@QAEPAVCvTerrainInfo@@W4TerrainTypes@@@Z ; CvGlobals::getTerrainInfo
	push	eax
	mov	eax, DWORD PTR _kStream$[esp]
	push	eax
	call	?Write@CvInfosSerializationHelper@@YA_NAAVFDataStream@@PBVCvBaseInfo@@@Z ; CvInfosSerializationHelper::Write
	add	esp, 8
	ret	0
$LN2@Write@21:
	lea	ecx, DWORD PTR _iLen$223211[esp-4]
	push	ecx
	mov	ecx, DWORD PTR _kStream$[esp]
	mov	DWORD PTR _iLen$223211[esp], 0
	call	?Write@FDataStream@@IAEXABH@Z		; FDataStream::Write
	xor	al, al
	ret	0
?Write@CvInfosSerializationHelper@@YA_NAAVFDataStream@@W4TerrainTypes@@@Z ENDP ; CvInfosSerializationHelper::Write
_TEXT	ENDS
PUBLIC	?Write@CvInfosSerializationHelper@@YA_NAAVFDataStream@@W4AICityStrategyTypes@@@Z ; CvInfosSerializationHelper::Write
; Function compile flags: /Ogtpy
;	COMDAT ?Write@CvInfosSerializationHelper@@YA_NAAVFDataStream@@W4AICityStrategyTypes@@@Z
_TEXT	SEGMENT
_kStream$ = 8						; size = 4
_iLen$223381 = 12					; size = 4
_eType$ = 12						; size = 4
?Write@CvInfosSerializationHelper@@YA_NAAVFDataStream@@W4AICityStrategyTypes@@@Z PROC ; CvInfosSerializationHelper::Write, COMDAT

; 252  : IMPLEMENT_SERIALIZATION_INFO_TYPE_HELPER(AICityStrategyTypes, getAICityStrategyInfo, NO_AICITYSTRATEGY);

	mov	eax, DWORD PTR _eType$[esp-4]
	cmp	eax, -1
	je	SHORT $LN2@Write@22
	push	eax
	mov	ecx, OFFSET ?gGlobals@@3VCvGlobals@@A	; gGlobals
	call	?getAICityStrategyInfo@CvGlobals@@QAEPAVCvAICityStrategyEntry@@W4AICityStrategyTypes@@@Z ; CvGlobals::getAICityStrategyInfo
	push	eax
	mov	eax, DWORD PTR _kStream$[esp]
	push	eax
	call	?Write@CvInfosSerializationHelper@@YA_NAAVFDataStream@@PBVCvBaseInfo@@@Z ; CvInfosSerializationHelper::Write
	add	esp, 8
	ret	0
$LN2@Write@22:
	lea	ecx, DWORD PTR _iLen$223381[esp-4]
	push	ecx
	mov	ecx, DWORD PTR _kStream$[esp]
	mov	DWORD PTR _iLen$223381[esp], 0
	call	?Write@FDataStream@@IAEXABH@Z		; FDataStream::Write
	xor	al, al
	ret	0
?Write@CvInfosSerializationHelper@@YA_NAAVFDataStream@@W4AICityStrategyTypes@@@Z ENDP ; CvInfosSerializationHelper::Write
_TEXT	ENDS
PUBLIC	?Write@CvInfosSerializationHelper@@YA_NAAVFDataStream@@W4SmallAwardTypes@@@Z ; CvInfosSerializationHelper::Write
; Function compile flags: /Ogtpy
;	COMDAT ?Write@CvInfosSerializationHelper@@YA_NAAVFDataStream@@W4SmallAwardTypes@@@Z
_TEXT	SEGMENT
_kStream$ = 8						; size = 4
_iLen$223517 = 12					; size = 4
_eType$ = 12						; size = 4
?Write@CvInfosSerializationHelper@@YA_NAAVFDataStream@@W4SmallAwardTypes@@@Z PROC ; CvInfosSerializationHelper::Write, COMDAT

; 253  : IMPLEMENT_SERIALIZATION_INFO_TYPE_HELPER(SmallAwardTypes, getSmallAwardInfo, NO_SMALLAWARD);

	mov	eax, DWORD PTR _eType$[esp-4]
	cmp	eax, -1
	je	SHORT $LN2@Write@23
	push	eax
	mov	ecx, OFFSET ?gGlobals@@3VCvGlobals@@A	; gGlobals
	call	?getSmallAwardInfo@CvGlobals@@QAEPAVCvSmallAwardInfo@@W4SmallAwardTypes@@@Z ; CvGlobals::getSmallAwardInfo
	push	eax
	mov	eax, DWORD PTR _kStream$[esp]
	push	eax
	call	?Write@CvInfosSerializationHelper@@YA_NAAVFDataStream@@PBVCvBaseInfo@@@Z ; CvInfosSerializationHelper::Write
	add	esp, 8
	ret	0
$LN2@Write@23:
	lea	ecx, DWORD PTR _iLen$223517[esp-4]
	push	ecx
	mov	ecx, DWORD PTR _kStream$[esp]
	mov	DWORD PTR _iLen$223517[esp], 0
	call	?Write@FDataStream@@IAEXABH@Z		; FDataStream::Write
	xor	al, al
	ret	0
?Write@CvInfosSerializationHelper@@YA_NAAVFDataStream@@W4SmallAwardTypes@@@Z ENDP ; CvInfosSerializationHelper::Write
_TEXT	ENDS
PUBLIC	?Write@CvInfosSerializationHelper@@YA_NAAVFDataStream@@W4RouteTypes@@@Z ; CvInfosSerializationHelper::Write
; Function compile flags: /Ogtpy
;	COMDAT ?Write@CvInfosSerializationHelper@@YA_NAAVFDataStream@@W4RouteTypes@@@Z
_TEXT	SEGMENT
_kStream$ = 8						; size = 4
_iLen$223653 = 12					; size = 4
_eType$ = 12						; size = 4
?Write@CvInfosSerializationHelper@@YA_NAAVFDataStream@@W4RouteTypes@@@Z PROC ; CvInfosSerializationHelper::Write, COMDAT

; 254  : IMPLEMENT_SERIALIZATION_INFO_TYPE_HELPER(RouteTypes, getRouteInfo, NO_ROUTE);

	mov	eax, DWORD PTR _eType$[esp-4]
	cmp	eax, -1
	je	SHORT $LN2@Write@24
	push	eax
	mov	ecx, OFFSET ?gGlobals@@3VCvGlobals@@A	; gGlobals
	call	?getRouteInfo@CvGlobals@@QAEPAVCvRouteInfo@@W4RouteTypes@@@Z ; CvGlobals::getRouteInfo
	push	eax
	mov	eax, DWORD PTR _kStream$[esp]
	push	eax
	call	?Write@CvInfosSerializationHelper@@YA_NAAVFDataStream@@PBVCvBaseInfo@@@Z ; CvInfosSerializationHelper::Write
	add	esp, 8
	ret	0
$LN2@Write@24:
	lea	ecx, DWORD PTR _iLen$223653[esp-4]
	push	ecx
	mov	ecx, DWORD PTR _kStream$[esp]
	mov	DWORD PTR _iLen$223653[esp], 0
	call	?Write@FDataStream@@IAEXABH@Z		; FDataStream::Write
	xor	al, al
	ret	0
?Write@CvInfosSerializationHelper@@YA_NAAVFDataStream@@W4RouteTypes@@@Z ENDP ; CvInfosSerializationHelper::Write
_TEXT	ENDS
PUBLIC	?Write@CvInfosSerializationHelper@@YA_NAAVFDataStream@@W4BuildTypes@@@Z ; CvInfosSerializationHelper::Write
; Function compile flags: /Ogtpy
;	COMDAT ?Write@CvInfosSerializationHelper@@YA_NAAVFDataStream@@W4BuildTypes@@@Z
_TEXT	SEGMENT
_kStream$ = 8						; size = 4
_iLen$223773 = 12					; size = 4
_eType$ = 12						; size = 4
?Write@CvInfosSerializationHelper@@YA_NAAVFDataStream@@W4BuildTypes@@@Z PROC ; CvInfosSerializationHelper::Write, COMDAT

; 255  : IMPLEMENT_SERIALIZATION_INFO_TYPE_HELPER(BuildTypes, getBuildInfo, NO_BUILD);

	mov	eax, DWORD PTR _eType$[esp-4]
	cmp	eax, -1
	je	SHORT $LN2@Write@25
	push	eax
	mov	ecx, OFFSET ?gGlobals@@3VCvGlobals@@A	; gGlobals
	call	?getBuildInfo@CvGlobals@@QAEPAVCvBuildInfo@@W4BuildTypes@@@Z ; CvGlobals::getBuildInfo
	push	eax
	mov	eax, DWORD PTR _kStream$[esp]
	push	eax
	call	?Write@CvInfosSerializationHelper@@YA_NAAVFDataStream@@PBVCvBaseInfo@@@Z ; CvInfosSerializationHelper::Write
	add	esp, 8
	ret	0
$LN2@Write@25:
	lea	ecx, DWORD PTR _iLen$223773[esp-4]
	push	ecx
	mov	ecx, DWORD PTR _kStream$[esp]
	mov	DWORD PTR _iLen$223773[esp], 0
	call	?Write@FDataStream@@IAEXABH@Z		; FDataStream::Write
	xor	al, al
	ret	0
?Write@CvInfosSerializationHelper@@YA_NAAVFDataStream@@W4BuildTypes@@@Z ENDP ; CvInfosSerializationHelper::Write
_TEXT	ENDS
PUBLIC	?Write@CvInfosSerializationHelper@@YA_NAAVFDataStream@@W4ProcessTypes@@@Z ; CvInfosSerializationHelper::Write
; Function compile flags: /Ogtpy
;	COMDAT ?Write@CvInfosSerializationHelper@@YA_NAAVFDataStream@@W4ProcessTypes@@@Z
_TEXT	SEGMENT
_kStream$ = 8						; size = 4
_iLen$223891 = 12					; size = 4
_eType$ = 12						; size = 4
?Write@CvInfosSerializationHelper@@YA_NAAVFDataStream@@W4ProcessTypes@@@Z PROC ; CvInfosSerializationHelper::Write, COMDAT

; 256  : IMPLEMENT_SERIALIZATION_INFO_TYPE_HELPER(ProcessTypes, getProcessInfo, NO_PROCESS);

	mov	eax, DWORD PTR _eType$[esp-4]
	cmp	eax, -1
	je	SHORT $LN2@Write@26
	push	eax
	mov	ecx, OFFSET ?gGlobals@@3VCvGlobals@@A	; gGlobals
	call	?getProcessInfo@CvGlobals@@QAEPAVCvProcessInfo@@W4ProcessTypes@@@Z ; CvGlobals::getProcessInfo
	push	eax
	mov	eax, DWORD PTR _kStream$[esp]
	push	eax
	call	?Write@CvInfosSerializationHelper@@YA_NAAVFDataStream@@PBVCvBaseInfo@@@Z ; CvInfosSerializationHelper::Write
	add	esp, 8
	ret	0
$LN2@Write@26:
	lea	ecx, DWORD PTR _iLen$223891[esp-4]
	push	ecx
	mov	ecx, DWORD PTR _kStream$[esp]
	mov	DWORD PTR _iLen$223891[esp], 0
	call	?Write@FDataStream@@IAEXABH@Z		; FDataStream::Write
	xor	al, al
	ret	0
?Write@CvInfosSerializationHelper@@YA_NAAVFDataStream@@W4ProcessTypes@@@Z ENDP ; CvInfosSerializationHelper::Write
_TEXT	ENDS
PUBLIC	?Write@CvInfosSerializationHelper@@YA_NAAVFDataStream@@W4ImprovementTypes@@@Z ; CvInfosSerializationHelper::Write
; Function compile flags: /Ogtpy
;	COMDAT ?Write@CvInfosSerializationHelper@@YA_NAAVFDataStream@@W4ImprovementTypes@@@Z
_TEXT	SEGMENT
_kStream$ = 8						; size = 4
_iLen$224027 = 12					; size = 4
_eType$ = 12						; size = 4
?Write@CvInfosSerializationHelper@@YA_NAAVFDataStream@@W4ImprovementTypes@@@Z PROC ; CvInfosSerializationHelper::Write, COMDAT

; 257  : IMPLEMENT_SERIALIZATION_INFO_TYPE_HELPER(ImprovementTypes, getImprovementInfo, NO_IMPROVEMENT);

	mov	eax, DWORD PTR _eType$[esp-4]
	cmp	eax, -1
	je	SHORT $LN2@Write@27
	push	eax
	mov	ecx, OFFSET ?gGlobals@@3VCvGlobals@@A	; gGlobals
	call	?getImprovementInfo@CvGlobals@@QAEPAVCvImprovementEntry@@W4ImprovementTypes@@@Z ; CvGlobals::getImprovementInfo
	push	eax
	mov	eax, DWORD PTR _kStream$[esp]
	push	eax
	call	?Write@CvInfosSerializationHelper@@YA_NAAVFDataStream@@PBVCvBaseInfo@@@Z ; CvInfosSerializationHelper::Write
	add	esp, 8
	ret	0
$LN2@Write@27:
	lea	ecx, DWORD PTR _iLen$224027[esp-4]
	push	ecx
	mov	ecx, DWORD PTR _kStream$[esp]
	mov	DWORD PTR _iLen$224027[esp], 0
	call	?Write@FDataStream@@IAEXABH@Z		; FDataStream::Write
	xor	al, al
	ret	0
?Write@CvInfosSerializationHelper@@YA_NAAVFDataStream@@W4ImprovementTypes@@@Z ENDP ; CvInfosSerializationHelper::Write
_TEXT	ENDS
END
