; Listing generated by Microsoft (R) Optimizing Compiler Version 15.00.30729.01 

	TITLE	s:\LEKMOD_DLL\CvGameCoreDLL_Expansion2\Lua\CvLuaCity.cpp
	.686P
	.XMM
	include listing.inc
	.model	flat

INCLUDELIB MSVCRT
INCLUDELIB OLDNAMES

CONST	SEGMENT
$SG219983 DB	'IsNone', 00H
	ORG $+1
$SG219984 DB	'Kill', 00H
	ORG $+3
$SG219985 DB	'CreateGreatGeneral', 00H
	ORG $+1
$SG219986 DB	'CreateGreatAdmiral', 00H
	ORG $+1
$SG219987 DB	'DoTask', 00H
	ORG $+1
$SG219988 DB	'ChooseProduction', 00H
	ORG $+3
$SG219989 DB	'GetCityPlotIndex', 00H
	ORG $+3
$SG219990 DB	'GetCityIndexPlot', 00H
	ORG $+3
$SG219991 DB	'CanWork', 00H
$SG219992 DB	'IsPlotBlockaded', 00H
$SG219993 DB	'ClearWorkingOverride', 00H
	ORG $+3
$SG219994 DB	'CountNumImprovedPlots', 00H
	ORG $+2
$SG219995 DB	'CountNumWaterPlots', 00H
	ORG $+1
$SG219996 DB	'CountNumRiverPlots', 00H
	ORG $+1
$SG219997 DB	'FindPopulationRank', 00H
	ORG $+1
$SG219998 DB	'FindBaseYieldRateRank', 00H
	ORG $+2
$SG219999 DB	'FindYieldRateRank', 00H
	ORG $+2
$SG220000 DB	'AllUpgradesAvailable', 00H
	ORG $+3
$SG220001 DB	'IsWorldWondersMaxed', 00H
$SG220002 DB	'IsTeamWondersMaxed', 00H
	ORG $+1
$SG220003 DB	'IsNationalWondersMaxed', 00H
	ORG $+1
$SG220004 DB	'IsBuildingsMaxed', 00H
	ORG $+3
$SG220005 DB	'CanTrainTooltip', 00H
$SG220006 DB	'CanTrain', 00H
	ORG $+3
$SG220007 DB	'CanConstructTooltip', 00H
$SG220008 DB	'CanConstruct', 00H
	ORG $+3
$SG220009 DB	'CanCreate', 00H
	ORG $+2
$SG220010 DB	'CanPrepare', 00H
	ORG $+1
$SG220011 DB	'CanMaintain', 00H
$SG220012 DB	'GetPurchaseUnitTooltip', 00H
	ORG $+1
$SG220013 DB	'GetFaithPurchaseUnitTooltip', 00H
$SG220014 DB	'GetPurchaseBuildingTooltip', 00H
	ORG $+1
$SG220015 DB	'GetFaithPurchaseBuildingTooltip', 00H
$SG220016 DB	'CanJoin', 00H
$SG220017 DB	'IsBuildingLocalResourceValid', 00H
	ORG $+3
$SG220018 DB	'GetResourceDemanded', 00H
$SG220019 DB	'SetResourceDemanded', 00H
$SG220020 DB	'DoPickResourceDemanded', 00H
	ORG $+1
$SG220021 DB	'GetFoodTurnsLeft', 00H
	ORG $+3
$SG220022 DB	'IsProduction', 00H
	ORG $+3
$SG220023 DB	'IsProductionLimited', 00H
$SG220024 DB	'IsProductionUnit', 00H
	ORG $+3
$SG220025 DB	'IsProductionBuilding', 00H
	ORG $+3
$SG220026 DB	'IsProductionProject', 00H
$SG220027 DB	'IsProductionSpecialist', 00H
	ORG $+1
$SG220028 DB	'IsProductionProcess', 00H
$SG220029 DB	'CanContinueProduction', 00H
	ORG $+2
$SG220030 DB	'GetProductionExperience', 00H
$SG220031 DB	'AddProductionExperience', 00H
$SG220032 DB	'GetProductionUnit', 00H
	ORG $+2
$SG220033 DB	'GetProductionUnitAI', 00H
$SG220034 DB	'GetProductionBuilding', 00H
	ORG $+2
$SG220035 DB	'GetProductionProject', 00H
	ORG $+3
$SG220036 DB	'GetProductionSpecialist', 00H
$SG220037 DB	'GetProductionProcess', 00H
	ORG $+3
$SG220038 DB	'GetProductionNameKey', 00H
	ORG $+3
$SG220039 DB	'GetGeneralProductionTurnsLeft', 00H
	ORG $+2
$SG220040 DB	'IsFoodProduction', 00H
	ORG $+3
$SG220041 DB	'GetFirstUnitOrder', 00H
	ORG $+2
$SG220042 DB	'GetFirstProjectOrder', 00H
	ORG $+3
$SG220043 DB	'GetFirstSpecialistOrder', 00H
$SG220044 DB	'GetOrderFromQueue', 00H
	ORG $+2
$SG220045 DB	'GetNumTrainUnitAI', 00H
	ORG $+2
$SG220046 DB	'GetFirstBuildingOrder', 00H
	ORG $+2
$SG220047 DB	'IsUnitFoodProduction', 00H
	ORG $+3
$SG220048 DB	'GetProduction', 00H
	ORG $+2
$SG220049 DB	'GetProductionTimes100', 00H
	ORG $+2
$SG220050 DB	'GetProductionNeeded', 00H
$SG220051 DB	'GetUnitProductionNeeded', 00H
$SG220052 DB	'GetBuildingProductionNeeded', 00H
$SG220053 DB	'GetProjectProductionNeeded', 00H
	ORG $+1
$SG220054 DB	'GetProductionTurnsLeft', 00H
	ORG $+1
$SG220055 DB	'GetUnitProductionTurnsLeft', 00H
	ORG $+1
$SG220056 DB	'GetBuildingProductionTurnsLeft', 00H
	ORG $+1
$SG220057 DB	'GetProjectProductionTurnsLeft', 00H
	ORG $+2
$SG220058 DB	'GetSpecialistProductionTurnsLeft', 00H
	ORG $+3
$SG220059 DB	'CreateApolloProgram', 00H
$SG220060 DB	'IsCanPurchase', 00H
	ORG $+2
$SG220061 DB	'GetUnitPurchaseCost', 00H
$SG220062 DB	'GetUnitFaithPurchaseCost', 00H
	ORG $+3
$SG220063 DB	'GetBuildingPurchaseCost', 00H
$SG220064 DB	'GetBuildingFaithPurchaseCost', 00H
	ORG $+3
$SG220065 DB	'GetProjectPurchaseCost', 00H
	ORG $+1
$SG220066 DB	'SetProduction', 00H
	ORG $+2
$SG220067 DB	'ChangeProduction', 00H
	ORG $+3
$SG220068 DB	'GetYieldModifierTooltip', 00H
$SG220069 DB	'GetProductionModifier', 00H
	ORG $+2
$SG220070 DB	'GetCurrentProductionDifference', 00H
	ORG $+1
$SG220071 DB	'GetRawProductionDifference', 00H
	ORG $+1
$SG220072 DB	'GetCurrentProductionDifferenceTimes100', 00H
	ORG $+1
$SG220073 DB	'GetRawProductionDifferenceTimes100', 00H
	ORG $+1
$SG220074 DB	'GetUnitProductionModifier', 00H
	ORG $+2
$SG220075 DB	'GetBuildingProductionModifier', 00H
	ORG $+2
$SG220076 DB	'GetProjectProductionModifier', 00H
	ORG $+3
$SG220077 DB	'GetSpecialistProductionModifier', 00H
$SG220078 DB	'GetExtraProductionDifference', 00H
	ORG $+3
$SG220079 DB	'CanHurry', 00H
	ORG $+3
$SG220080 DB	'Hurry', 00H
	ORG $+2
$SG220081 DB	'GetConscriptUnit', 00H
	ORG $+3
$SG220082 DB	'GetConscriptPopulation', 00H
	ORG $+1
$SG220083 DB	'ConscriptMinCityPopulation', 00H
	ORG $+1
$SG220084 DB	'CanConscript', 00H
	ORG $+3
$SG220085 DB	'Conscript', 00H
	ORG $+2
$SG220086 DB	'GetResourceYieldRateModifier', 00H
	ORG $+3
$SG220087 DB	'GetHandicapType', 00H
$SG220088 DB	'GetCivilizationType', 00H
$SG220089 DB	'GetPersonalityType', 00H
	ORG $+1
$SG220090 DB	'GetArtStyleType', 00H
$SG220091 DB	'GetCitySizeType', 00H
$SG220092 DB	'IsBarbarian', 00H
$SG220093 DB	'IsHuman', 00H
$SG220094 DB	'IsVisible', 00H
	ORG $+2
$SG220095 DB	'IsCapital', 00H
	ORG $+2
$SG220096 DB	'IsOriginalCapital', 00H
	ORG $+2
$SG220097 DB	'IsOriginalMajorCapital', 00H
	ORG $+1
$SG220098 DB	'IsCoastal', 00H
	ORG $+2
$SG220099 DB	'FoodConsumption', 00H
$SG220100 DB	'FoodDifference', 00H
	ORG $+1
$SG220101 DB	'FoodDifferenceTimes100', 00H
	ORG $+1
$SG220102 DB	'GrowthThreshold', 00H
$SG220103 DB	'ProductionLeft', 00H
	ORG $+1
$SG220104 DB	'HurryCost', 00H
	ORG $+2
$SG220105 DB	'HurryGold', 00H
	ORG $+2
$SG220106 DB	'HurryPopulation', 00H
$SG220107 DB	'HurryProduction', 00H
$SG220108 DB	'MaxHurryPopulation', 00H
	ORG $+1
$SG220109 DB	'GetNumBuilding', 00H
	ORG $+1
$SG220110 DB	'IsHasBuilding', 00H
	ORG $+2
$SG220111 DB	'GetNumActiveBuilding', 00H
	ORG $+3
$SG220112 DB	'GetID', 00H
	ORG $+2
$SG220113 DB	'GetX', 00H
	ORG $+3
$SG220114 DB	'GetY', 00H
	ORG $+3
$SG220115 DB	'At', 00H
	ORG $+1
$SG220116 DB	'AtPlot', 00H
	ORG $+1
$SG220117 DB	'Plot', 00H
	ORG $+3
$SG220118 DB	'Area', 00H
	ORG $+3
$SG220119 DB	'WaterArea', 00H
	ORG $+2
$SG220120 DB	'GetRallyPlot', 00H
	ORG $+3
$SG220121 DB	'CanBuyPlot', 00H
	ORG $+1
$SG220122 DB	'CanBuyPlotAt', 00H
	ORG $+3
$SG220123 DB	'GetNextBuyablePlot', 00H
	ORG $+1
$SG220124 DB	'GetBuyablePlotList', 00H
	ORG $+1
$SG220125 DB	'GetBuyPlotCost', 00H
	ORG $+1
$SG220126 DB	'CanBuyAnyPlot', 00H
	ORG $+2
$SG220127 DB	'GetGarrisonedUnit', 00H
	ORG $+2
$SG220128 DB	'GetGameTurnFounded', 00H
	ORG $+1
$SG220129 DB	'GetGameTurnAcquired', 00H
$SG220130 DB	'GetGameTurnLastExpanded', 00H
$SG220131 DB	'GetPopulation', 00H
	ORG $+2
$SG220132 DB	'SetPopulation', 00H
	ORG $+2
$SG220133 DB	'ChangePopulation', 00H
	ORG $+3
$SG220134 DB	'GetRealPopulation', 00H
	ORG $+2
$SG220135 DB	'GetHighestPopulation', 00H
	ORG $+3
$SG220136 DB	'SetHighestPopulation', 00H
	ORG $+3
$SG220137 DB	'GetNumGreatPeople', 00H
	ORG $+2
$SG220138 DB	'GetBaseGreatPeopleRate', 00H
	ORG $+1
$SG220139 DB	'GetGreatPeopleRate', 00H
	ORG $+1
$SG220140 DB	'GetTotalGreatPeopleRateModifier', 00H
$SG220141 DB	'ChangeBaseGreatPeopleRate', 00H
	ORG $+2
$SG220142 DB	'GetGreatPeopleRateModifier', 00H
	ORG $+1
$SG220143 DB	'GetJONSCultureStored', 00H
	ORG $+3
$SG220144 DB	'SetJONSCultureStored', 00H
	ORG $+3
$SG220145 DB	'ChangeJONSCultureStored', 00H
$SG220146 DB	'GetJONSCultureStoredTimes100', 00H
	ORG $+3
$SG220147 DB	'SetJONSCultureStoredTimes100', 00H
	ORG $+3
$SG220148 DB	'ChangeJONSCultureStoredTimes100', 00H
$SG220149 DB	'GetJONSCulturePerTurnTimes100', 00H
	ORG $+2
$SG220150 DB	'GetJONSCultureLevel', 00H
$SG220151 DB	'SetJONSCultureLevel', 00H
$SG220152 DB	'ChangeJONSCultureLevel', 00H
	ORG $+1
$SG220153 DB	'DoJONSCultureLevelIncrease', 00H
	ORG $+1
$SG220154 DB	'GetJONSCultureThreshold', 00H
$SG220155 DB	'GetJONSCulturePerTurn', 00H
	ORG $+2
$SG220156 DB	'GetBaseJONSCulturePerTurn', 00H
	ORG $+2
$SG220157 DB	'GetJONSCulturePerTurnFromBuildings', 00H
	ORG $+1
$SG220158 DB	'ChangeJONSCulturePerTurnFromBuildings', 00H
	ORG $+2
$SG220159 DB	'GetJONSCulturePerTurnFromPolicies', 00H
	ORG $+2
$SG220160 DB	'ChangeJONSCulturePerTurnFromPolicies', 00H
	ORG $+3
$SG220161 DB	'GetJONSCulturePerTurnFromSpecialists', 00H
	ORG $+3
$SG220162 DB	'ChangeJONSCulturePerTurnFromSpecialists', 00H
$SG220163 DB	'GetJONSCulturePerTurnFromGreatWorks', 00H
$SG220164 DB	'GetJONSCulturePerTurnFromTraits', 00H
$SG220165 DB	'GetJONSCulturePerTurnFromReligion', 00H
	ORG $+2
$SG220166 DB	'GetJONSCulturePerTurnFromLeagues', 00H
	ORG $+3
$SG220167 DB	'GetCultureRateModifier', 00H
	ORG $+1
$SG220168 DB	'ChangeCultureRateModifier', 00H
	ORG $+2
$SG220169 DB	'GetNumGreatWorks', 00H
	ORG $+3
$SG220170 DB	'GetNumGreatWorkSlots', 00H
	ORG $+3
$SG220171 DB	'GetBaseTourism', 00H
	ORG $+1
$SG220172 DB	'GetTourismMultiplier', 00H
	ORG $+3
$SG220173 DB	'GetTourismTooltip', 00H
	ORG $+2
$SG220174 DB	'GetFilledSlotsTooltip', 00H
	ORG $+2
$SG220175 DB	'GetTotalSlotsTooltip', 00H
	ORG $+3
$SG220176 DB	'ClearGreatWorks', 00H
$SG220177 DB	'GetFaithBuildingTourism', 00H
$SG220178 DB	'IsThemingBonusPossible', 00H
	ORG $+1
$SG220179 DB	'GetThemingBonus', 00H
$SG220180 DB	'GetThemingTooltip', 00H
	ORG $+2
$SG220181 DB	'GetFaithPerTurn', 00H
$SG220182 DB	'GetFaithPerTurnFromBuildings', 00H
	ORG $+3
$SG220183 DB	'GetFaithPerTurnFromPolicies', 00H
$SG220184 DB	'GetFaithPerTurnFromTraits', 00H
	ORG $+2
$SG220185 DB	'GetFaithPerTurnFromReligion', 00H
$SG220186 DB	'IsReligionInCity', 00H
	ORG $+3
$SG220187 DB	'IsHolyCityForReligion', 00H
	ORG $+2
$SG220188 DB	'IsHolyCityAnyReligion', 00H
	ORG $+2
$SG220189 DB	'GetNumFollowers', 00H
$SG220190 DB	'GetReligiousMajority', 00H
	ORG $+3
$SG220191 DB	'GetSecondaryReligion', 00H
	ORG $+3
$SG220192 DB	'GetSecondaryReligionPantheonBelief', 00H
	ORG $+1
$SG220193 DB	'GetPressurePerTurn', 00H
	ORG $+1
$SG220194 DB	'ConvertPercentFollowers', 00H
$SG220195 DB	'AdoptReligionFully', 00H
	ORG $+1
$SG220196 DB	'GetReligionBuildingClassHappiness', 00H
	ORG $+2
$SG220197 DB	'GetReligionBuildingClassYieldChange', 00H
$SG220198 DB	'GetLeagueBuildingClassYieldChange', 00H
	ORG $+2
$SG220199 DB	'GetNumTradeRoutesAddingPressure', 00H
$SG220200 DB	'GetNumWorldWonders', 00H
	ORG $+1
$SG220201 DB	'GetNumTeamWonders', 00H
	ORG $+2
$SG220202 DB	'GetNumNationalWonders', 00H
	ORG $+2
$SG220203 DB	'GetNumBuildings', 00H
$SG220204 DB	'GetWonderProductionModifier', 00H
$SG220205 DB	'ChangeWonderProductionModifier', 00H
	ORG $+1
$SG220206 DB	'GetLocalResourceWonderProductionMod', 00H
$SG220207 DB	'ChangeHealRate', 00H
	ORG $+1
$SG220208 DB	'IsNoOccupiedUnhappiness', 00H
$SG220209 DB	'GetFood', 00H
$SG220210 DB	'GetFoodTimes100', 00H
$SG220211 DB	'SetFood', 00H
$SG220212 DB	'ChangeFood', 00H
	ORG $+1
$SG220213 DB	'GetFoodKept', 00H
$SG220214 DB	'GetMaxFoodKeptPercent', 00H
	ORG $+2
$SG220215 DB	'GetOverflowProduction', 00H
	ORG $+2
$SG220216 DB	'SetOverflowProduction', 00H
	ORG $+2
$SG220217 DB	'GetFeatureProduction', 00H
	ORG $+3
$SG220218 DB	'SetFeatureProduction', 00H
	ORG $+3
$SG220219 DB	'GetMilitaryProductionModifier', 00H
	ORG $+2
$SG220220 DB	'GetSpaceProductionModifier', 00H
	ORG $+1
$SG220221 DB	'GetBuildingDefense', 00H
	ORG $+1
$SG220222 DB	'GetFreeExperience', 00H
	ORG $+2
$SG220223 DB	'GetNukeModifier', 00H
$SG220224 DB	'IsResistance', 00H
	ORG $+3
$SG220225 DB	'GetResistanceTurns', 00H
	ORG $+1
$SG220226 DB	'ChangeResistanceTurns', 00H
	ORG $+2
$SG220227 DB	'IsRazing', 00H
	ORG $+3
$SG220228 DB	'GetRazingTurns', 00H
	ORG $+1
$SG220229 DB	'ChangeRazingTurns', 00H
	ORG $+2
$SG220230 DB	'IsOccupied', 00H
	ORG $+1
$SG220231 DB	'SetOccupied', 00H
$SG220232 DB	'IsPuppet', 00H
	ORG $+3
$SG220233 DB	'SetPuppet', 00H
	ORG $+2
$SG220234 DB	'GetHappinessFromBuildings', 00H
	ORG $+2
$SG220235 DB	'GetHappiness', 00H
	ORG $+3
$SG220236 DB	'GetLocalHappiness', 00H
	ORG $+2
$SG220237 DB	'IsNeverLost', 00H
$SG220238 DB	'SetNeverLost', 00H
	ORG $+3
$SG220239 DB	'IsDrafted', 00H
	ORG $+2
$SG220240 DB	'SetDrafted', 00H
	ORG $+1
$SG220241 DB	'IsBlockaded', 00H
$SG220242 DB	'GetWeLoveTheKingDayCounter', 00H
	ORG $+1
$SG220243 DB	'SetWeLoveTheKingDayCounter', 00H
	ORG $+1
$SG220244 DB	'ChangeWeLoveTheKingDayCounter', 00H
	ORG $+2
$SG220245 DB	'GetNumThingsProduced', 00H
	ORG $+3
$SG220246 DB	'IsProductionAutomated', 00H
	ORG $+2
$SG220247 DB	'SetProductionAutomated', 00H
	ORG $+1
$SG220248 DB	'SetCitySizeBoost', 00H
	ORG $+3
$SG220249 DB	'GetOwner', 00H
	ORG $+3
$SG220250 DB	'GetTeam', 00H
$SG220251 DB	'GetPreviousOwner', 00H
	ORG $+3
$SG220252 DB	'GetOriginalOwner', 00H
	ORG $+3
$SG220253 DB	'GetSeaPlotYield', 00H
$SG220254 DB	'GetRiverPlotYield', 00H
	ORG $+2
$SG220255 DB	'GetLakePlotYield', 00H
	ORG $+3
$SG220256 DB	'GetBaseYieldRate', 00H
	ORG $+3
$SG220257 DB	'GetBaseYieldRateFromGreatWorks', 00H
	ORG $+1
$SG220258 DB	'GetBaseYieldRateFromTerrain', 00H
$SG220259 DB	'ChangeBaseYieldRateFromTerrain', 00H
	ORG $+1
$SG220260 DB	'GetBaseYieldRateFromBuildings', 00H
	ORG $+2
$SG220261 DB	'ChangeBaseYieldRateFromBuildings', 00H
	ORG $+3
$SG220262 DB	'GetBaseYieldRateFromSpecialists', 00H
$SG220263 DB	'ChangeBaseYieldRateFromSpecialists', 00H
	ORG $+1
$SG220264 DB	'GetBaseYieldRateFromMisc', 00H
	ORG $+3
$SG220265 DB	'ChangeBaseYieldRateFromMisc', 00H
$SG220266 DB	'GetBaseYieldRateFromReligion', 00H
	ORG $+3
$SG220267 DB	'ChangeBaseYieldRateFromReligion', 00H
$SG220268 DB	'GetYieldPerPopTimes100', 00H
	ORG $+1
$SG220269 DB	'GetBaseYieldRateModifier', 00H
	ORG $+3
$SG220270 DB	'GetYieldRate', 00H
	ORG $+3
$SG220271 DB	'GetYieldRateTimes100', 00H
	ORG $+3
$SG220272 DB	'GetYieldRateModifier', 00H
	ORG $+3
$SG220273 DB	'GetExtraSpecialistYield', 00H
$SG220274 DB	'GetExtraSpecialistYieldOfType', 00H
	ORG $+2
$SG220275 DB	'GetDomainFreeExperience', 00H
$SG220276 DB	'GetDomainProductionModifier', 00H
$SG220277 DB	'IsEverOwned', 00H
$SG220278 DB	'IsRevealed', 00H
	ORG $+1
$SG220279 DB	'SetRevealed', 00H
$SG220280 DB	'GetNameKey', 00H
	ORG $+1
$SG220281 DB	'GetName', 00H
$SG220282 DB	'SetName', 00H
$SG220283 DB	'IsHasResourceLocal', 00H
	ORG $+1
$SG220284 DB	'GetBuildingProduction', 00H
	ORG $+2
$SG220285 DB	'SetBuildingProduction', 00H
	ORG $+2
$SG220286 DB	'ChangeBuildingProduction', 00H
	ORG $+3
$SG220287 DB	'GetBuildingProductionTime', 00H
	ORG $+2
$SG220288 DB	'SetBuildingProductionTime', 00H
	ORG $+2
$SG220289 DB	'ChangeBuildingProductionTime', 00H
	ORG $+3
$SG220290 DB	'GetBuildingOriginalOwner', 00H
	ORG $+3
$SG220291 DB	'GetBuildingOriginalTime', 00H
$SG220292 DB	'GetUnitProduction', 00H
	ORG $+2
$SG220293 DB	'SetUnitProduction', 00H
	ORG $+2
$SG220294 DB	'ChangeUnitProduction', 00H
	ORG $+3
$SG220295 DB	'IsCanAddSpecialistToBuilding', 00H
	ORG $+3
$SG220296 DB	'GetSpecialistUpgradeThreshold', 00H
	ORG $+2
$SG220297 DB	'GetNumSpecialistsAllowedByBuilding', 00H
	ORG $+1
$SG220298 DB	'GetSpecialistCount', 00H
	ORG $+1
$SG220299 DB	'GetSpecialistGreatPersonProgress', 00H
	ORG $+3
$SG220300 DB	'GetSpecialistGreatPersonProgressTimes100', 00H
	ORG $+3
$SG220301 DB	'ChangeSpecialistGreatPersonProgressTimes100', 00H
$SG220302 DB	'GetNumSpecialistsInBuilding', 00H
$SG220303 DB	'DoReallocateCitizens', 00H
	ORG $+3
$SG220304 DB	'DoVerifyWorkingPlots', 00H
	ORG $+3
$SG220305 DB	'IsNoAutoAssignSpecialists', 00H
	ORG $+2
$SG220306 DB	'GetFocusType', 00H
	ORG $+3
$SG220307 DB	'SetFocusType', 00H
	ORG $+3
$SG220308 DB	'IsForcedAvoidGrowth', 00H
$SG220309 DB	'GetUnitCombatFreeExperience', 00H
$SG220310 DB	'GetFreePromotionCount', 00H
	ORG $+2
$SG220311 DB	'IsFreePromotion', 00H
$SG220312 DB	'GetSpecialistFreeExperience', 00H
$SG220313 DB	'UpdateStrengthValue', 00H
$SG220314 DB	'GetStrengthValue', 00H
	ORG $+3
$SG220315 DB	'GetDamage', 00H
	ORG $+2
$SG220316 DB	'SetDamage', 00H
	ORG $+2
$SG220317 DB	'ChangeDamage', 00H
	ORG $+3
$SG220318 DB	'GetMaxHitPoints', 00H
$SG220319 DB	'CanRangeStrike', 00H
	ORG $+1
$SG220320 DB	'CanRangeStrikeNow', 00H
	ORG $+2
$SG220321 DB	'CanRangeStrikeAt', 00H
	ORG $+3
$SG220322 DB	'HasPerformedRangedStrikeThisTurn', 00H
	ORG $+3
$SG220323 DB	'RangeCombatUnitDefense', 00H
	ORG $+1
$SG220324 DB	'RangeCombatDamage', 00H
	ORG $+2
$SG220325 DB	'GetAirStrikeDefenseDamage', 00H
	ORG $+2
$SG220326 DB	'IsWorkingPlot', 00H
	ORG $+2
$SG220327 DB	'AlterWorkingPlot', 00H
	ORG $+3
$SG220328 DB	'IsForcedWorkingPlot', 00H
$SG220329 DB	'GetNumRealBuilding', 00H
	ORG $+1
$SG220330 DB	'SetNumRealBuilding', 00H
	ORG $+1
$SG220331 DB	'GetNumFreeBuilding', 00H
	ORG $+1
$SG220332 DB	'IsBuildingSellable', 00H
	ORG $+1
$SG220333 DB	'GetSellBuildingRefund', 00H
	ORG $+2
$SG220334 DB	'GetTotalBaseBuildingMaintenance', 00H
$SG220335 DB	'GetBuildingGreatWork', 00H
	ORG $+3
$SG220336 DB	'SetBuildingGreatWork', 00H
	ORG $+3
$SG220337 DB	'IsHoldingGreatWork', 00H
	ORG $+1
$SG220338 DB	'GetNumGreatWorksInBuilding', 00H
	ORG $+1
$SG220339 DB	'ClearOrderQueue', 00H
$SG220340 DB	'PushOrder', 00H
	ORG $+2
$SG220341 DB	'PopOrder', 00H
	ORG $+3
$SG220342 DB	'GetOrderQueueLength', 00H
$SG220343 DB	'GetBuildingYieldChange', 00H
	ORG $+1
$SG220344 DB	'SetBuildingYieldChange', 00H
	ORG $+1
$SG220345 DB	'GetBuildingEspionageModifier', 00H
	ORG $+3
$SG220346 DB	'GetBuildingGlobalEspionageModifier', 00H
	ORG $+1
$SG220347 DB	'GetNumCityPlots', 00H
$SG220348 DB	'CanPlaceUnitHere', 00H
	ORG $+3
$SG220349 DB	'GetSpecialistYield', 00H
	ORG $+1
$SG220350 DB	'GetCultureFromSpecialist', 00H
	ORG $+3
$SG220351 DB	'GetNumForcedWorkingPlots', 00H
	ORG $+3
$SG220352 DB	'GetReligionCityRangeStrikeModifier', 00H
	ORG $+1
$SG220358 DB	'City', 00H
	ORG $+3
$SG220672 DB	'TXT_KEY_CANNOT_PURCHASE_UNIT_HERE', 00H
	ORG $+2
$SG220676 DB	'[NEWLINE]', 00H
	ORG $+2
$SG220680 DB	'TXT_KEY_CANNOT_PURCHASE_NO_GOLD', 00H
$SG220684 DB	'[NEWLINE]', 00H
	ORG $+2
$SG220696 DB	'TXT_KEY_CANNOT_PURCHASE_UNIT_HERE', 00H
	ORG $+2
$SG220700 DB	'[NEWLINE]', 00H
	ORG $+2
$SG220704 DB	'TXT_KEY_CANNOT_PURCHASE_NO_FAITH', 00H
	ORG $+3
$SG220708 DB	'[NEWLINE]', 00H
	ORG $+2
$SG220720 DB	'TXT_KEY_CANNOT_PURCHASE_NO_GOLD', 00H
$SG220724 DB	'[NEWLINE]', 00H
	ORG $+2
$SG220736 DB	'TXT_KEY_CANNOT_PURCHASE_NO_FAITH', 00H
	ORG $+3
$SG220740 DB	'[NEWLINE]', 00H
	ORG $+2
$SG223766 DB	'__instances', 00H
$SG223767 DB	'__mode', 00H
	ORG $+1
$SG223768 DB	'v', 00H
	ORG $+2
$SG223770 DB	'__instances', 00H
$SG223773 DB	'__instance', 00H
	ORG $+1
$SG223774 DB	'__index', 00H
$SG223798 DB	'__instance', 00H
	ORG $+5
$SG223804 DB	'Not a valid instance.  Either the instance is NULL or yo'
	DB	'u used ''.'' instead of '':''.', 00H
	ORG $+1
$SG223812 DB	'Instance does not exist.', 00H
	ORG $+3
$SG223823 DB	'__instances', 00H
$SG223824 DB	'__mode', 00H
	ORG $+1
$SG223825 DB	'v', 00H
	ORG $+2
$SG223827 DB	'__instances', 00H
$SG223830 DB	'__instance', 00H
	ORG $+1
$SG223831 DB	'__index', 00H
$SG223846 DB	'__instance', 00H
	ORG $+5
$SG223852 DB	'Not a valid instance.  Either the instance is NULL or yo'
	DB	'u used ''.'' instead of '':''.', 00H
	ORG $+1
$SG223863 DB	'__instances', 00H
$SG223864 DB	'__mode', 00H
	ORG $+1
$SG223865 DB	'v', 00H
	ORG $+2
$SG223867 DB	'__instances', 00H
$SG223870 DB	'__instance', 00H
	ORG $+1
$SG223871 DB	'__index', 00H
$SG223886 DB	'__instance', 00H
	ORG $+1
$SG223892 DB	'Not a valid instance.  Either the instance is NULL or yo'
	DB	'u used ''.'' instead of '':''.', 00H
CONST	ENDS
EXTRN	_lua_tointeger:PROC
; Function compile flags: /Ogtpy
; File s:\lekmod_dll\cvgamecoredllutil\include\cvluaargtemplates.h
;	COMDAT ??$toValue@H@CvLuaArgs@@YAHPAUlua_State@@H@Z
_TEXT	SEGMENT
??$toValue@H@CvLuaArgs@@YAHPAUlua_State@@H@Z PROC	; CvLuaArgs::toValue<int>, COMDAT
; _L$ = ecx
; _idx$ = eax

; 19   : 		return lua_tointeger(L, idx);

	push	eax
	push	ecx
	call	_lua_tointeger
	add	esp, 8

; 20   : 	}

	ret	0
??$toValue@H@CvLuaArgs@@YAHPAUlua_State@@H@Z ENDP	; CvLuaArgs::toValue<int>
_TEXT	ENDS
EXTRN	_lua_toboolean:PROC
; Function compile flags: /Ogtpy
;	COMDAT ??$toValue@_N@CvLuaArgs@@YA_NPAUlua_State@@H@Z
_TEXT	SEGMENT
??$toValue@_N@CvLuaArgs@@YA_NPAUlua_State@@H@Z PROC	; CvLuaArgs::toValue<bool>, COMDAT
; _L$ = ecx
; _idx$ = eax

; 24   : 		return lua_toboolean(L, idx) != 0;

	push	eax
	push	ecx
	call	_lua_toboolean
	add	esp, 8
	neg	eax
	sbb	eax, eax
	neg	eax

; 25   : 	}

	ret	0
??$toValue@_N@CvLuaArgs@@YA_NPAUlua_State@@H@Z ENDP	; CvLuaArgs::toValue<bool>
_TEXT	ENDS
EXTRN	_lua_pushinteger:PROC
; Function compile flags: /Ogtpy
;	COMDAT ??$pushValue@H@CvLuaArgs@@YAXPAUlua_State@@H@Z
_TEXT	SEGMENT
??$pushValue@H@CvLuaArgs@@YAXPAUlua_State@@H@Z PROC	; CvLuaArgs::pushValue<int>, COMDAT
; _L$ = ecx
; _t$ = eax

; 39   : 		lua_pushinteger(L, t);

	push	eax
	push	ecx
	call	_lua_pushinteger
	add	esp, 8

; 40   : 	}

	ret	0
??$pushValue@H@CvLuaArgs@@YAXPAUlua_State@@H@Z ENDP	; CvLuaArgs::pushValue<int>
_TEXT	ENDS
EXTRN	_lua_pushboolean:PROC
; Function compile flags: /Ogtpy
;	COMDAT ??$pushValue@_N@CvLuaArgs@@YAXPAUlua_State@@_N@Z
_TEXT	SEGMENT
??$pushValue@_N@CvLuaArgs@@YAXPAUlua_State@@_N@Z PROC	; CvLuaArgs::pushValue<bool>, COMDAT
; _L$ = ecx
; _t$ = eax

; 45   : 		lua_pushboolean(L, t);

	movzx	eax, al
	push	eax
	push	ecx
	call	_lua_pushboolean
	add	esp, 8

; 46   : 	}

	ret	0
??$pushValue@_N@CvLuaArgs@@YAXPAUlua_State@@_N@Z ENDP	; CvLuaArgs::pushValue<bool>
_TEXT	ENDS
PUBLIC	??_7bad_alloc@std@@6B@				; std::bad_alloc::`vftable'
PUBLIC	??0bad_alloc@std@@QAE@PBD@Z			; std::bad_alloc::bad_alloc
PUBLIC	??_R4bad_alloc@std@@6B@				; std::bad_alloc::`RTTI Complete Object Locator'
PUBLIC	??_R0?AVbad_alloc@std@@@8			; std::bad_alloc `RTTI Type Descriptor'
PUBLIC	??_R3bad_alloc@std@@8				; std::bad_alloc::`RTTI Class Hierarchy Descriptor'
PUBLIC	??_R2bad_alloc@std@@8				; std::bad_alloc::`RTTI Base Class Array'
PUBLIC	??_R1A@?0A@EA@bad_alloc@std@@8			; std::bad_alloc::`RTTI Base Class Descriptor at (0,-1,0,64)'
PUBLIC	??_R1A@?0A@EA@exception@std@@8			; std::exception::`RTTI Base Class Descriptor at (0,-1,0,64)'
PUBLIC	??_R0?AVexception@std@@@8			; std::exception `RTTI Type Descriptor'
PUBLIC	??_R3exception@std@@8				; std::exception::`RTTI Class Hierarchy Descriptor'
PUBLIC	??_R2exception@std@@8				; std::exception::`RTTI Base Class Array'
EXTRN	__imp_??0exception@std@@QAE@ABQBD@Z:PROC
EXTRN	??_7type_info@@6B@:QWORD			; type_info::`vftable'
EXTRN	??_Ebad_alloc@std@@UAEPAXI@Z:PROC		; std::bad_alloc::`vector deleting destructor'
EXTRN	?what@exception@std@@UBEPBDXZ:PROC		; std::exception::what
;	COMDAT ??_R2exception@std@@8
; File s:\msvs2008\vc\include\exception
rdata$r	SEGMENT
??_R2exception@std@@8 DD FLAT:??_R1A@?0A@EA@exception@std@@8 ; std::exception::`RTTI Base Class Array'
rdata$r	ENDS
;	COMDAT ??_R3exception@std@@8
rdata$r	SEGMENT
??_R3exception@std@@8 DD 00H				; std::exception::`RTTI Class Hierarchy Descriptor'
	DD	00H
	DD	01H
	DD	FLAT:??_R2exception@std@@8
rdata$r	ENDS
;	COMDAT ??_R0?AVexception@std@@@8
_DATA	SEGMENT
??_R0?AVexception@std@@@8 DD FLAT:??_7type_info@@6B@	; std::exception `RTTI Type Descriptor'
	DD	00H
	DB	'.?AVexception@std@@', 00H
_DATA	ENDS
;	COMDAT ??_R1A@?0A@EA@exception@std@@8
rdata$r	SEGMENT
??_R1A@?0A@EA@exception@std@@8 DD FLAT:??_R0?AVexception@std@@@8 ; std::exception::`RTTI Base Class Descriptor at (0,-1,0,64)'
	DD	00H
	DD	00H
	DD	0ffffffffH
	DD	00H
	DD	040H
	DD	FLAT:??_R3exception@std@@8
rdata$r	ENDS
;	COMDAT ??_R1A@?0A@EA@bad_alloc@std@@8
rdata$r	SEGMENT
??_R1A@?0A@EA@bad_alloc@std@@8 DD FLAT:??_R0?AVbad_alloc@std@@@8 ; std::bad_alloc::`RTTI Base Class Descriptor at (0,-1,0,64)'
	DD	01H
	DD	00H
	DD	0ffffffffH
	DD	00H
	DD	040H
	DD	FLAT:??_R3bad_alloc@std@@8
rdata$r	ENDS
;	COMDAT ??_R2bad_alloc@std@@8
rdata$r	SEGMENT
??_R2bad_alloc@std@@8 DD FLAT:??_R1A@?0A@EA@bad_alloc@std@@8 ; std::bad_alloc::`RTTI Base Class Array'
	DD	FLAT:??_R1A@?0A@EA@exception@std@@8
rdata$r	ENDS
;	COMDAT ??_R3bad_alloc@std@@8
rdata$r	SEGMENT
??_R3bad_alloc@std@@8 DD 00H				; std::bad_alloc::`RTTI Class Hierarchy Descriptor'
	DD	00H
	DD	02H
	DD	FLAT:??_R2bad_alloc@std@@8
rdata$r	ENDS
;	COMDAT ??_R0?AVbad_alloc@std@@@8
_DATA	SEGMENT
??_R0?AVbad_alloc@std@@@8 DD FLAT:??_7type_info@@6B@	; std::bad_alloc `RTTI Type Descriptor'
	DD	00H
	DB	'.?AVbad_alloc@std@@', 00H
_DATA	ENDS
;	COMDAT ??_R4bad_alloc@std@@6B@
rdata$r	SEGMENT
??_R4bad_alloc@std@@6B@ DD 00H				; std::bad_alloc::`RTTI Complete Object Locator'
	DD	00H
	DD	00H
	DD	FLAT:??_R0?AVbad_alloc@std@@@8
	DD	FLAT:??_R3bad_alloc@std@@8
rdata$r	ENDS
;	COMDAT ??_7bad_alloc@std@@6B@
CONST	SEGMENT
??_7bad_alloc@std@@6B@ DD FLAT:??_R4bad_alloc@std@@6B@	; std::bad_alloc::`vftable'
	DD	FLAT:??_Ebad_alloc@std@@UAEPAXI@Z
	DD	FLAT:?what@exception@std@@UBEPBDXZ
; Function compile flags: /Ogtpy
CONST	ENDS
;	COMDAT ??0bad_alloc@std@@QAE@PBD@Z
_TEXT	SEGMENT
__Message$ = 8						; size = 4
??0bad_alloc@std@@QAE@PBD@Z PROC			; std::bad_alloc::bad_alloc, COMDAT
; _this$ = ecx

; 371  : 		{	// construct from message string

	push	esi
	lea	eax, DWORD PTR __Message$[esp]
	push	eax
	mov	esi, ecx
	call	DWORD PTR __imp_??0exception@std@@QAE@ABQBD@Z
	mov	DWORD PTR [esi], OFFSET ??_7bad_alloc@std@@6B@

; 372  : 		}

	mov	eax, esi
	pop	esi
	ret	4
??0bad_alloc@std@@QAE@PBD@Z ENDP			; std::bad_alloc::bad_alloc
_TEXT	ENDS
PUBLIC	??1bad_alloc@std@@UAE@XZ			; std::bad_alloc::~bad_alloc
EXTRN	__imp_??1exception@std@@UAE@XZ:PROC
; Function compile flags: /Ogtpy
;	COMDAT ??1bad_alloc@std@@UAE@XZ
_TEXT	SEGMENT
??1bad_alloc@std@@UAE@XZ PROC				; std::bad_alloc::~bad_alloc, COMDAT
; _this$ = ecx

; 380  : 		{	// destroy the object

	mov	DWORD PTR [ecx], OFFSET ??_7bad_alloc@std@@6B@

; 381  : 		}

	jmp	DWORD PTR __imp_??1exception@std@@UAE@XZ
??1bad_alloc@std@@UAE@XZ ENDP				; std::bad_alloc::~bad_alloc
_TEXT	ENDS
EXTRN	??3@YAXPAX@Z:PROC				; operator delete
; Function compile flags: /Ogtpy
;	COMDAT ??_Gbad_alloc@std@@UAEPAXI@Z
_TEXT	SEGMENT
___flags$ = 8						; size = 4
??_Gbad_alloc@std@@UAEPAXI@Z PROC			; std::bad_alloc::`scalar deleting destructor', COMDAT
; _this$ = ecx
	push	esi
	mov	esi, ecx
	mov	DWORD PTR [esi], OFFSET ??_7bad_alloc@std@@6B@
	call	DWORD PTR __imp_??1exception@std@@UAE@XZ
	test	BYTE PTR ___flags$[esp], 1
	je	SHORT $LN6@scalar
	push	esi
	call	??3@YAXPAX@Z				; operator delete
	add	esp, 4
$LN6@scalar:
	mov	eax, esi
	pop	esi
	ret	4
??_Gbad_alloc@std@@UAEPAXI@Z ENDP			; std::bad_alloc::`scalar deleting destructor'
_TEXT	ENDS
PUBLIC	??_7logic_error@std@@6B@			; std::logic_error::`vftable'
PUBLIC	??0logic_error@std@@QAE@ABV?$basic_string@DU?$char_traits@D@std@@V?$allocator@D@2@@1@@Z ; std::logic_error::logic_error
PUBLIC	??_R4logic_error@std@@6B@			; std::logic_error::`RTTI Complete Object Locator'
PUBLIC	??_R0?AVlogic_error@std@@@8			; std::logic_error `RTTI Type Descriptor'
PUBLIC	??_R3logic_error@std@@8				; std::logic_error::`RTTI Class Hierarchy Descriptor'
PUBLIC	??_R2logic_error@std@@8				; std::logic_error::`RTTI Base Class Array'
PUBLIC	??_R1A@?0A@EA@logic_error@std@@8		; std::logic_error::`RTTI Base Class Descriptor at (0,-1,0,64)'
PUBLIC	?what@logic_error@std@@UBEPBDXZ			; std::logic_error::what
EXTRN	__imp_??0?$basic_string@DU?$char_traits@D@std@@V?$allocator@D@2@@std@@QAE@ABV01@@Z:PROC
EXTRN	__imp_??0exception@std@@QAE@XZ:PROC
EXTRN	___CxxFrameHandler3:PROC
EXTRN	??_Elogic_error@std@@UAEPAXI@Z:PROC		; std::logic_error::`vector deleting destructor'
;	COMDAT ??_R1A@?0A@EA@logic_error@std@@8
; File s:\msvs2008\vc\include\stdexcept
rdata$r	SEGMENT
??_R1A@?0A@EA@logic_error@std@@8 DD FLAT:??_R0?AVlogic_error@std@@@8 ; std::logic_error::`RTTI Base Class Descriptor at (0,-1,0,64)'
	DD	01H
	DD	00H
	DD	0ffffffffH
	DD	00H
	DD	040H
	DD	FLAT:??_R3logic_error@std@@8
rdata$r	ENDS
;	COMDAT ??_R2logic_error@std@@8
rdata$r	SEGMENT
??_R2logic_error@std@@8 DD FLAT:??_R1A@?0A@EA@logic_error@std@@8 ; std::logic_error::`RTTI Base Class Array'
	DD	FLAT:??_R1A@?0A@EA@exception@std@@8
rdata$r	ENDS
;	COMDAT ??_R3logic_error@std@@8
rdata$r	SEGMENT
??_R3logic_error@std@@8 DD 00H				; std::logic_error::`RTTI Class Hierarchy Descriptor'
	DD	00H
	DD	02H
	DD	FLAT:??_R2logic_error@std@@8
rdata$r	ENDS
;	COMDAT ??_R0?AVlogic_error@std@@@8
_DATA	SEGMENT
??_R0?AVlogic_error@std@@@8 DD FLAT:??_7type_info@@6B@	; std::logic_error `RTTI Type Descriptor'
	DD	00H
	DB	'.?AVlogic_error@std@@', 00H
_DATA	ENDS
;	COMDAT ??_R4logic_error@std@@6B@
rdata$r	SEGMENT
??_R4logic_error@std@@6B@ DD 00H			; std::logic_error::`RTTI Complete Object Locator'
	DD	00H
	DD	00H
	DD	FLAT:??_R0?AVlogic_error@std@@@8
	DD	FLAT:??_R3logic_error@std@@8
rdata$r	ENDS
;	COMDAT ??_7logic_error@std@@6B@
CONST	SEGMENT
??_7logic_error@std@@6B@ DD FLAT:??_R4logic_error@std@@6B@ ; std::logic_error::`vftable'
	DD	FLAT:??_Elogic_error@std@@UAEPAXI@Z
	DD	FLAT:?what@logic_error@std@@UBEPBDXZ
CONST	ENDS
;	COMDAT xdata$x
xdata$x	SEGMENT
__unwindtable$??0logic_error@std@@QAE@ABV?$basic_string@DU?$char_traits@D@std@@V?$allocator@D@2@@1@@Z DD 0ffffffffH
	DD	FLAT:__unwindfunclet$??0logic_error@std@@QAE@ABV?$basic_string@DU?$char_traits@D@std@@V?$allocator@D@2@@1@@Z$0
__ehfuncinfo$??0logic_error@std@@QAE@ABV?$basic_string@DU?$char_traits@D@std@@V?$allocator@D@2@@1@@Z DD 019930522H
	DD	01H
	DD	FLAT:__unwindtable$??0logic_error@std@@QAE@ABV?$basic_string@DU?$char_traits@D@std@@V?$allocator@D@2@@1@@Z
	DD	2 DUP(00H)
	DD	2 DUP(00H)
	DD	00H
	DD	01H
; Function compile flags: /Ogtpy
xdata$x	ENDS
;	COMDAT ??0logic_error@std@@QAE@ABV?$basic_string@DU?$char_traits@D@std@@V?$allocator@D@2@@1@@Z
_TEXT	SEGMENT
_this$ = -16						; size = 4
__$EHRec$ = -12						; size = 12
__Message$ = 8						; size = 4
??0logic_error@std@@QAE@ABV?$basic_string@DU?$char_traits@D@std@@V?$allocator@D@2@@1@@Z PROC ; std::logic_error::logic_error, COMDAT
; _this$ = ecx

; 26   : 		{	// construct from message string

	push	-1
	push	__ehhandler$??0logic_error@std@@QAE@ABV?$basic_string@DU?$char_traits@D@std@@V?$allocator@D@2@@1@@Z
	mov	eax, DWORD PTR fs:0
	push	eax
	mov	DWORD PTR fs:0, esp
	push	ecx
	push	esi
	mov	esi, ecx
	mov	DWORD PTR _this$[esp+20], esi
	call	DWORD PTR __imp_??0exception@std@@QAE@XZ
	mov	eax, DWORD PTR __Message$[esp+16]
	push	eax
	lea	ecx, DWORD PTR [esi+12]
	mov	DWORD PTR __$EHRec$[esp+32], 0
	mov	DWORD PTR [esi], OFFSET ??_7logic_error@std@@6B@
	call	DWORD PTR __imp_??0?$basic_string@DU?$char_traits@D@std@@V?$allocator@D@2@@std@@QAE@ABV01@@Z

; 27   : 		}

	mov	ecx, DWORD PTR __$EHRec$[esp+20]
	mov	eax, esi
	pop	esi
	mov	DWORD PTR fs:0, ecx
	add	esp, 16					; 00000010H
	ret	4
_TEXT	ENDS
;	COMDAT text$x
text$x	SEGMENT
__unwindfunclet$??0logic_error@std@@QAE@ABV?$basic_string@DU?$char_traits@D@std@@V?$allocator@D@2@@1@@Z$0:
	mov	ecx, DWORD PTR _this$[ebp]
	jmp	DWORD PTR __imp_??1exception@std@@UAE@XZ
__ehhandler$??0logic_error@std@@QAE@ABV?$basic_string@DU?$char_traits@D@std@@V?$allocator@D@2@@1@@Z:
	mov	eax, OFFSET __ehfuncinfo$??0logic_error@std@@QAE@ABV?$basic_string@DU?$char_traits@D@std@@V?$allocator@D@2@@1@@Z
	jmp	___CxxFrameHandler3
text$x	ENDS
??0logic_error@std@@QAE@ABV?$basic_string@DU?$char_traits@D@std@@V?$allocator@D@2@@1@@Z ENDP ; std::logic_error::logic_error
PUBLIC	??1logic_error@std@@UAE@XZ			; std::logic_error::~logic_error
EXTRN	__imp_??1?$basic_string@DU?$char_traits@D@std@@V?$allocator@D@2@@std@@QAE@XZ:PROC
; Function compile flags: /Ogtpy
;	COMDAT ??1logic_error@std@@UAE@XZ
_TEXT	SEGMENT
??1logic_error@std@@UAE@XZ PROC				; std::logic_error::~logic_error, COMDAT
; _this$ = ecx

; 30   : 		{	// destroy the object

	push	esi
	mov	esi, ecx

; 31   : 		}

	lea	ecx, DWORD PTR [esi+12]
	mov	DWORD PTR [esi], OFFSET ??_7logic_error@std@@6B@
	call	DWORD PTR __imp_??1?$basic_string@DU?$char_traits@D@std@@V?$allocator@D@2@@std@@QAE@XZ
	mov	ecx, esi
	pop	esi
	jmp	DWORD PTR __imp_??1exception@std@@UAE@XZ
??1logic_error@std@@UAE@XZ ENDP				; std::logic_error::~logic_error
_TEXT	ENDS
EXTRN	__imp_?c_str@?$basic_string@DU?$char_traits@D@std@@V?$allocator@D@2@@std@@QBEPBDXZ:PROC
; Function compile flags: /Ogtpy
;	COMDAT ?what@logic_error@std@@UBEPBDXZ
_TEXT	SEGMENT
?what@logic_error@std@@UBEPBDXZ PROC			; std::logic_error::what, COMDAT
; _this$ = ecx

; 35   : 		return (_Str.c_str());

	add	ecx, 12					; 0000000cH
	jmp	DWORD PTR __imp_?c_str@?$basic_string@DU?$char_traits@D@std@@V?$allocator@D@2@@std@@QBEPBDXZ
?what@logic_error@std@@UBEPBDXZ ENDP			; std::logic_error::what
; Function compile flags: /Ogtpy
_TEXT	ENDS
;	COMDAT ??_Glogic_error@std@@UAEPAXI@Z
_TEXT	SEGMENT
___flags$ = 8						; size = 4
??_Glogic_error@std@@UAEPAXI@Z PROC			; std::logic_error::`scalar deleting destructor', COMDAT
; _this$ = ecx
	push	esi
	mov	esi, ecx
	lea	ecx, DWORD PTR [esi+12]
	mov	DWORD PTR [esi], OFFSET ??_7logic_error@std@@6B@
	call	DWORD PTR __imp_??1?$basic_string@DU?$char_traits@D@std@@V?$allocator@D@2@@std@@QAE@XZ
	mov	ecx, esi
	call	DWORD PTR __imp_??1exception@std@@UAE@XZ
	test	BYTE PTR ___flags$[esp], 1
	je	SHORT $LN6@scalar@2
	push	esi
	call	??3@YAXPAX@Z				; operator delete
	add	esp, 4
$LN6@scalar@2:
	mov	eax, esi
	pop	esi
	ret	4
??_Glogic_error@std@@UAEPAXI@Z ENDP			; std::logic_error::`scalar deleting destructor'
_TEXT	ENDS
PUBLIC	??_7length_error@std@@6B@			; std::length_error::`vftable'
PUBLIC	??0length_error@std@@QAE@ABV?$basic_string@DU?$char_traits@D@std@@V?$allocator@D@2@@1@@Z ; std::length_error::length_error
PUBLIC	??_R4length_error@std@@6B@			; std::length_error::`RTTI Complete Object Locator'
PUBLIC	??_R0?AVlength_error@std@@@8			; std::length_error `RTTI Type Descriptor'
PUBLIC	??_R3length_error@std@@8			; std::length_error::`RTTI Class Hierarchy Descriptor'
PUBLIC	??_R2length_error@std@@8			; std::length_error::`RTTI Base Class Array'
PUBLIC	??_R1A@?0A@EA@length_error@std@@8		; std::length_error::`RTTI Base Class Descriptor at (0,-1,0,64)'
EXTRN	??_Elength_error@std@@UAEPAXI@Z:PROC		; std::length_error::`vector deleting destructor'
;	COMDAT ??_R1A@?0A@EA@length_error@std@@8
rdata$r	SEGMENT
??_R1A@?0A@EA@length_error@std@@8 DD FLAT:??_R0?AVlength_error@std@@@8 ; std::length_error::`RTTI Base Class Descriptor at (0,-1,0,64)'
	DD	02H
	DD	00H
	DD	0ffffffffH
	DD	00H
	DD	040H
	DD	FLAT:??_R3length_error@std@@8
rdata$r	ENDS
;	COMDAT ??_R2length_error@std@@8
rdata$r	SEGMENT
??_R2length_error@std@@8 DD FLAT:??_R1A@?0A@EA@length_error@std@@8 ; std::length_error::`RTTI Base Class Array'
	DD	FLAT:??_R1A@?0A@EA@logic_error@std@@8
	DD	FLAT:??_R1A@?0A@EA@exception@std@@8
rdata$r	ENDS
;	COMDAT ??_R3length_error@std@@8
rdata$r	SEGMENT
??_R3length_error@std@@8 DD 00H				; std::length_error::`RTTI Class Hierarchy Descriptor'
	DD	00H
	DD	03H
	DD	FLAT:??_R2length_error@std@@8
rdata$r	ENDS
;	COMDAT ??_R0?AVlength_error@std@@@8
_DATA	SEGMENT
??_R0?AVlength_error@std@@@8 DD FLAT:??_7type_info@@6B@	; std::length_error `RTTI Type Descriptor'
	DD	00H
	DB	'.?AVlength_error@std@@', 00H
_DATA	ENDS
;	COMDAT ??_R4length_error@std@@6B@
rdata$r	SEGMENT
??_R4length_error@std@@6B@ DD 00H			; std::length_error::`RTTI Complete Object Locator'
	DD	00H
	DD	00H
	DD	FLAT:??_R0?AVlength_error@std@@@8
	DD	FLAT:??_R3length_error@std@@8
rdata$r	ENDS
;	COMDAT ??_7length_error@std@@6B@
CONST	SEGMENT
??_7length_error@std@@6B@ DD FLAT:??_R4length_error@std@@6B@ ; std::length_error::`vftable'
	DD	FLAT:??_Elength_error@std@@UAEPAXI@Z
	DD	FLAT:?what@logic_error@std@@UBEPBDXZ
; Function compile flags: /Ogtpy
CONST	ENDS
;	COMDAT ??0length_error@std@@QAE@ABV?$basic_string@DU?$char_traits@D@std@@V?$allocator@D@2@@1@@Z
_TEXT	SEGMENT
__Message$ = 8						; size = 4
??0length_error@std@@QAE@ABV?$basic_string@DU?$char_traits@D@std@@V?$allocator@D@2@@1@@Z PROC ; std::length_error::length_error, COMDAT
; _this$ = ecx

; 105  : 		{	// construct from message string

	mov	eax, DWORD PTR __Message$[esp-4]
	push	esi
	push	eax
	mov	esi, ecx
	call	??0logic_error@std@@QAE@ABV?$basic_string@DU?$char_traits@D@std@@V?$allocator@D@2@@1@@Z ; std::logic_error::logic_error
	mov	DWORD PTR [esi], OFFSET ??_7length_error@std@@6B@

; 106  : 		}

	mov	eax, esi
	pop	esi
	ret	4
??0length_error@std@@QAE@ABV?$basic_string@DU?$char_traits@D@std@@V?$allocator@D@2@@1@@Z ENDP ; std::length_error::length_error
_TEXT	ENDS
PUBLIC	??1length_error@std@@UAE@XZ			; std::length_error::~length_error
; Function compile flags: /Ogtpy
;	COMDAT ??1length_error@std@@UAE@XZ
_TEXT	SEGMENT
??1length_error@std@@UAE@XZ PROC			; std::length_error::~length_error, COMDAT
; _this$ = ecx

; 109  : 		{	// destroy the object

	push	esi
	mov	esi, ecx

; 110  : 		}

	lea	ecx, DWORD PTR [esi+12]
	mov	DWORD PTR [esi], OFFSET ??_7logic_error@std@@6B@
	call	DWORD PTR __imp_??1?$basic_string@DU?$char_traits@D@std@@V?$allocator@D@2@@std@@QAE@XZ
	mov	ecx, esi
	pop	esi
	jmp	DWORD PTR __imp_??1exception@std@@UAE@XZ
??1length_error@std@@UAE@XZ ENDP			; std::length_error::~length_error
; Function compile flags: /Ogtpy
_TEXT	ENDS
;	COMDAT ??_Glength_error@std@@UAEPAXI@Z
_TEXT	SEGMENT
___flags$ = 8						; size = 4
??_Glength_error@std@@UAEPAXI@Z PROC			; std::length_error::`scalar deleting destructor', COMDAT
; _this$ = ecx
	push	esi
	mov	esi, ecx
	lea	ecx, DWORD PTR [esi+12]
	mov	DWORD PTR [esi], OFFSET ??_7logic_error@std@@6B@
	call	DWORD PTR __imp_??1?$basic_string@DU?$char_traits@D@std@@V?$allocator@D@2@@std@@QAE@XZ
	mov	ecx, esi
	call	DWORD PTR __imp_??1exception@std@@UAE@XZ
	test	BYTE PTR ___flags$[esp], 1
	je	SHORT $LN8@scalar@3
	push	esi
	call	??3@YAXPAX@Z				; operator delete
	add	esp, 4
$LN8@scalar@3:
	mov	eax, esi
	pop	esi
	ret	4
??_Glength_error@std@@UAEPAXI@Z ENDP			; std::length_error::`scalar deleting destructor'
_TEXT	ENDS
PUBLIC	?GetTypeName@CvLuaCity@@SAPBDXZ			; CvLuaCity::GetTypeName
; Function compile flags: /Ogtpy
; File s:\lekmod_dll\cvgamecoredll_expansion2\lua\cvluacity.cpp
;	COMDAT ?GetTypeName@CvLuaCity@@SAPBDXZ
_TEXT	SEGMENT
?GetTypeName@CvLuaCity@@SAPBDXZ PROC			; CvLuaCity::GetTypeName, COMDAT

; 492  : 	return "City";

	mov	eax, OFFSET $SG220358

; 493  : }

	ret	0
?GetTypeName@CvLuaCity@@SAPBDXZ ENDP			; CvLuaCity::GetTypeName
_TEXT	ENDS
PUBLIC	?lGetBuildingEspionageModifier@CvLuaCity@@KAHPAUlua_State@@@Z ; CvLuaCity::lGetBuildingEspionageModifier
EXTRN	?GetEspionageModifier@CvBuildingEntry@@QBEHXZ:PROC ; CvBuildingEntry::GetEspionageModifier
EXTRN	?getBuildingInfo@CvGlobals@@QAEPAVCvBuildingEntry@@W4BuildingTypes@@@Z:PROC ; CvGlobals::getBuildingInfo
EXTRN	?gGlobals@@3VCvGlobals@@A:BYTE			; gGlobals
; Function compile flags: /Ogtpy
;	COMDAT ?lGetBuildingEspionageModifier@CvLuaCity@@KAHPAUlua_State@@@Z
_TEXT	SEGMENT
_L$ = 8							; size = 4
?lGetBuildingEspionageModifier@CvLuaCity@@KAHPAUlua_State@@@Z PROC ; CvLuaCity::lGetBuildingEspionageModifier, COMDAT

; 3956 : {

	push	esi

; 3957 : 	//CvCity* pkCity = GetInstance(L);
; 3958 : 	const BuildingTypes eBuilding = (BuildingTypes) lua_tointeger(L, 2);

	mov	esi, DWORD PTR _L$[esp]
	push	2
	push	esi
	call	_lua_tointeger
	add	esp, 8

; 3959 : 	CvBuildingEntry* pBuildingInfo = GC.getBuildingInfo(eBuilding);

	push	eax
	mov	ecx, OFFSET ?gGlobals@@3VCvGlobals@@A	; gGlobals
	call	?getBuildingInfo@CvGlobals@@QAEPAVCvBuildingEntry@@W4BuildingTypes@@@Z ; CvGlobals::getBuildingInfo

; 3960 : 	CvAssertMsg(pBuildingInfo, "pBuildingInfo is null!");
; 3961 : 	if (pBuildingInfo)

	test	eax, eax
	je	SHORT $LN2@lGetBuildi

; 3962 : 	{
; 3963 : 		lua_pushinteger(L, pBuildingInfo->GetEspionageModifier());

	mov	ecx, eax
	call	?GetEspionageModifier@CvBuildingEntry@@QBEHXZ ; CvBuildingEntry::GetEspionageModifier
	push	eax

; 3964 : 	}
; 3965 : 	else
; 3966 : 	{
; 3967 : 		lua_pushinteger(L, 0);

	push	esi
	call	_lua_pushinteger
	add	esp, 8

; 3968 : 	}
; 3969 : 	return 1;

	mov	eax, 1
	pop	esi

; 3970 : }

	ret	0
$LN2@lGetBuildi:

; 3964 : 	}
; 3965 : 	else
; 3966 : 	{
; 3967 : 		lua_pushinteger(L, 0);

	push	0
	push	esi
	call	_lua_pushinteger
	add	esp, 8

; 3968 : 	}
; 3969 : 	return 1;

	mov	eax, 1
	pop	esi

; 3970 : }

	ret	0
?lGetBuildingEspionageModifier@CvLuaCity@@KAHPAUlua_State@@@Z ENDP ; CvLuaCity::lGetBuildingEspionageModifier
_TEXT	ENDS
PUBLIC	?lGetBuildingGlobalEspionageModifier@CvLuaCity@@KAHPAUlua_State@@@Z ; CvLuaCity::lGetBuildingGlobalEspionageModifier
EXTRN	?GetGlobalEspionageModifier@CvBuildingEntry@@QBEHXZ:PROC ; CvBuildingEntry::GetGlobalEspionageModifier
; Function compile flags: /Ogtpy
;	COMDAT ?lGetBuildingGlobalEspionageModifier@CvLuaCity@@KAHPAUlua_State@@@Z
_TEXT	SEGMENT
_L$ = 8							; size = 4
?lGetBuildingGlobalEspionageModifier@CvLuaCity@@KAHPAUlua_State@@@Z PROC ; CvLuaCity::lGetBuildingGlobalEspionageModifier, COMDAT

; 3974 : {

	push	esi

; 3975 : 	const BuildingTypes eBuilding = (BuildingTypes)lua_tointeger(L, 2);

	mov	esi, DWORD PTR _L$[esp]
	push	2
	push	esi
	call	_lua_tointeger
	add	esp, 8

; 3976 : 	CvBuildingEntry* pBuildingInfo = GC.getBuildingInfo(eBuilding);

	push	eax
	mov	ecx, OFFSET ?gGlobals@@3VCvGlobals@@A	; gGlobals
	call	?getBuildingInfo@CvGlobals@@QAEPAVCvBuildingEntry@@W4BuildingTypes@@@Z ; CvGlobals::getBuildingInfo

; 3977 : 	CvAssertMsg(pBuildingInfo, "pBuildingInfo is null!");
; 3978 : 	if (pBuildingInfo)

	test	eax, eax
	je	SHORT $LN2@lGetBuildi@2

; 3979 : 	{
; 3980 : 		lua_pushinteger(L, pBuildingInfo->GetGlobalEspionageModifier());

	mov	ecx, eax
	call	?GetGlobalEspionageModifier@CvBuildingEntry@@QBEHXZ ; CvBuildingEntry::GetGlobalEspionageModifier
	push	eax

; 3981 : 	}
; 3982 : 	else
; 3983 : 	{
; 3984 : 		lua_pushinteger(L, 0);

	push	esi
	call	_lua_pushinteger
	add	esp, 8

; 3985 : 	}
; 3986 : 	return 1;

	mov	eax, 1
	pop	esi

; 3987 : }

	ret	0
$LN2@lGetBuildi@2:

; 3981 : 	}
; 3982 : 	else
; 3983 : 	{
; 3984 : 		lua_pushinteger(L, 0);

	push	0
	push	esi
	call	_lua_pushinteger
	add	esp, 8

; 3985 : 	}
; 3986 : 	return 1;

	mov	eax, 1
	pop	esi

; 3987 : }

	ret	0
?lGetBuildingGlobalEspionageModifier@CvLuaCity@@KAHPAUlua_State@@@Z ENDP ; CvLuaCity::lGetBuildingGlobalEspionageModifier
_TEXT	ENDS
PUBLIC	?lGetNumCityPlots@CvLuaCity@@KAHPAUlua_State@@@Z ; CvLuaCity::lGetNumCityPlots
; Function compile flags: /Ogtpy
;	COMDAT ?lGetNumCityPlots@CvLuaCity@@KAHPAUlua_State@@@Z
_TEXT	SEGMENT
_L$ = 8							; size = 4
?lGetNumCityPlots@CvLuaCity@@KAHPAUlua_State@@@Z PROC	; CvLuaCity::lGetNumCityPlots, COMDAT

; 4006 : 	lua_pushinteger(L, NUM_CITY_PLOTS);

	mov	eax, DWORD PTR _L$[esp-4]
	push	37					; 00000025H
	push	eax
	call	_lua_pushinteger
	add	esp, 8

; 4007 : 	return 1;

	mov	eax, 1

; 4008 : }

	ret	0
?lGetNumCityPlots@CvLuaCity@@KAHPAUlua_State@@@Z ENDP	; CvLuaCity::lGetNumCityPlots
_TEXT	ENDS
PUBLIC	??A?$vector@HV?$allocator@H@std@@@std@@QAEAAHI@Z ; std::vector<int,std::allocator<int> >::operator[]
; Function compile flags: /Ogtpy
; File s:\msvs2008\vc\include\vector
;	COMDAT ??A?$vector@HV?$allocator@H@std@@@std@@QAEAAHI@Z
_TEXT	SEGMENT
__Pos$ = 8						; size = 4
??A?$vector@HV?$allocator@H@std@@@std@@QAEAAHI@Z PROC	; std::vector<int,std::allocator<int> >::operator[], COMDAT
; _this$ = ecx

; 775  : 
; 776  :  #if _HAS_ITERATOR_DEBUGGING
; 777  : 		if (size() <= _Pos)
; 778  : 			{
; 779  : 			_DEBUG_ERROR("vector subscript out of range");
; 780  : 			_SCL_SECURE_OUT_OF_RANGE;
; 781  : 			}
; 782  :  #endif /* _HAS_ITERATOR_DEBUGGING */
; 783  : 		_SCL_SECURE_VALIDATE_RANGE(_Pos < size());
; 784  : 
; 785  : 		return (*(_Myfirst + _Pos));

	mov	eax, DWORD PTR [ecx+4]
	mov	ecx, DWORD PTR __Pos$[esp-4]
	lea	eax, DWORD PTR [eax+ecx*4]

; 786  : 		}

	ret	4
??A?$vector@HV?$allocator@H@std@@@std@@QAEAAHI@Z ENDP	; std::vector<int,std::allocator<int> >::operator[]
_TEXT	ENDS
PUBLIC	?Push@?$CvLuaScopedInstance@VCvLuaArea@@VCvArea@@@@SAXPAUlua_State@@PAVCvArea@@@Z ; CvLuaScopedInstance<CvLuaArea,CvArea>::Push
EXTRN	_lua_pushnil:PROC
EXTRN	_lua_remove:PROC
EXTRN	_lua_pushlightuserdata:PROC
EXTRN	_lua_rawget:PROC
EXTRN	?PushMethods@CvLuaArea@@SAXPAUlua_State@@H@Z:PROC ; CvLuaArea::PushMethods
EXTRN	_lua_gettop:PROC
EXTRN	_lua_setfield:PROC
EXTRN	_lua_pushvalue:PROC
EXTRN	_lua_setmetatable:PROC
EXTRN	_lua_rawset:PROC
EXTRN	_lua_pushstring:PROC
EXTRN	_lua_createtable:PROC
EXTRN	_lua_settop:PROC
EXTRN	_lua_type:PROC
EXTRN	_lua_getfield:PROC
EXTRN	?GetTypeName@CvLuaArea@@SAPBDXZ:PROC		; CvLuaArea::GetTypeName
; Function compile flags: /Ogtpy
; File s:\lekmod_dll\cvgamecoredll_expansion2\lua\cvluascopedinstance.h
;	COMDAT ?Push@?$CvLuaScopedInstance@VCvLuaArea@@VCvArea@@@@SAXPAUlua_State@@PAVCvArea@@@Z
_TEXT	SEGMENT
_L$ = 8							; size = 4
_pkType$ = 12						; size = 4
?Push@?$CvLuaScopedInstance@VCvLuaArea@@VCvArea@@@@SAXPAUlua_State@@PAVCvArea@@@Z PROC ; CvLuaScopedInstance<CvLuaArea,CvArea>::Push, COMDAT

; 39   : {

	push	edi

; 40   : 	//Pushing an instance involves more than just actually pushing a pointer into the
; 41   : 	//Lua stack.  There are some caching optimizations that are done as well as some
; 42   : 	//checks.
; 43   : 	//The first step is to load or create a global table <Typename> to store all member
; 44   : 	//methods and all pushed instances.  This conserves memory and offers faster pushing
; 45   : 	//speed.
; 46   : 	//If <Typename>.__instances[pkType] is not nil, return that value.
; 47   : 	//otherwise push a new instance and assign it to __instances.
; 48   : 
; 49   : 	//NOTE: Raw gets and sets are used as an optimization over using lua_[get,set]field
; 50   : 	if(pkType)

	mov	edi, DWORD PTR _pkType$[esp]
	test	edi, edi
	je	$LN4@Push
	push	ebx
	push	ebp
	push	esi

; 51   : 	{
; 52   : 		//const int t = lua_gettop(L);
; 53   : 
; 54   : 		lua_getglobal(L, Derived::GetTypeName());

	call	?GetTypeName@CvLuaArea@@SAPBDXZ		; CvLuaArea::GetTypeName
	mov	esi, DWORD PTR _L$[esp+12]
	push	eax
	push	-10002					; ffffd8eeH
	push	esi
	call	_lua_getfield

; 55   : 		if(lua_isnil(L, -1))

	push	-1
	push	esi
	call	_lua_type
	add	esp, 20					; 00000014H
	test	eax, eax
	jne	$LN7@Push

; 56   : 		{
; 57   : 			//Typename wasn't found, time to build it.
; 58   : 			lua_pop(L, 1);

	push	-2					; fffffffeH
	push	esi
	call	_lua_settop

; 59   : 			lua_newtable(L);

	push	0
	push	0
	push	esi
	call	_lua_createtable

; 60   : 
; 61   : 			//Create weak __instances table.
; 62   : 			lua_pushstring(L, "__instances");

	push	OFFSET $SG223766
	push	esi
	call	_lua_pushstring

; 63   : 			lua_newtable(L);

	push	0
	push	0
	push	esi
	call	_lua_createtable

; 64   : 
; 65   : 			//Create __instances.mt
; 66   : 			lua_newtable(L);

	push	0
	push	0
	push	esi
	call	_lua_createtable

; 67   : 			lua_pushstring(L, "__mode");

	push	OFFSET $SG223767
	push	esi
	call	_lua_pushstring

; 68   : 			lua_pushstring(L, "v");

	push	OFFSET $SG223768
	push	esi
	call	_lua_pushstring
	add	esp, 68					; 00000044H

; 69   : 			lua_rawset(L, -3);				// mt.__mode = "v";

	push	-3					; fffffffdH
	push	esi
	call	_lua_rawset

; 70   : 			lua_setmetatable(L, -2);

	push	-2					; fffffffeH
	push	esi
	call	_lua_setmetatable

; 71   : 
; 72   : 			lua_rawset(L, -3);				//type.__instances = t;

	push	-3					; fffffffdH
	push	esi
	call	_lua_rawset

; 73   : 
; 74   : 
; 75   : 			lua_pushvalue(L, -1);

	push	-1
	push	esi
	call	_lua_pushvalue

; 76   : 			lua_setglobal(L, Derived::GetTypeName());

	call	?GetTypeName@CvLuaArea@@SAPBDXZ		; CvLuaArea::GetTypeName
	push	eax
	push	-10002					; ffffd8eeH
	push	esi
	call	_lua_setfield

; 77   : 
; 78   : 			Derived::PushMethods(L, lua_gettop(L));

	push	esi
	call	_lua_gettop
	push	eax
	push	esi
	call	?PushMethods@CvLuaArea@@SAXPAUlua_State@@H@Z ; CvLuaArea::PushMethods
	add	esp, 56					; 00000038H
$LN7@Push:

; 79   : 		}
; 80   : 		const int type_index = lua_gettop(L);

	push	esi
	call	_lua_gettop

; 81   : 
; 82   : 		lua_pushstring(L, "__instances");

	push	OFFSET $SG223770
	push	esi
	mov	ebx, eax
	call	_lua_pushstring

; 83   : 		lua_rawget(L, -2);

	push	-2					; fffffffeH
	push	esi
	call	_lua_rawget

; 84   : 
; 85   : 		const int instances_index = lua_gettop(L);

	push	esi
	call	_lua_gettop

; 86   : 
; 87   : 		lua_pushlightuserdata(L, pkType);

	push	edi
	push	esi
	mov	ebp, eax
	call	_lua_pushlightuserdata

; 88   : 
; 89   : 		lua_rawget(L, -2);					//retrieve type.__instances[pkType]

	push	-2					; fffffffeH
	push	esi
	call	_lua_rawget

; 90   : 
; 91   : 		if(lua_isnil(L, -1))

	push	-1
	push	esi
	call	_lua_type
	add	esp, 48					; 00000030H
	test	eax, eax
	jne	SHORT $LN2@Push

; 92   : 		{
; 93   : 			lua_pop(L, 1);

	push	-2					; fffffffeH
	push	esi
	call	_lua_settop

; 94   : 
; 95   : 			//Push new instance
; 96   : 			lua_createtable(L, 0, 1);

	push	1
	push	0
	push	esi
	call	_lua_createtable

; 97   : 			lua_pushlightuserdata(L, pkType);

	push	edi
	push	esi
	call	_lua_pushlightuserdata

; 98   : 			lua_setfield(L, -2, "__instance");

	push	OFFSET $SG223773
	push	-2					; fffffffeH
	push	esi
	call	_lua_setfield

; 99   : 
; 100  : 			lua_createtable(L, 0, 1);			// create mt

	push	1
	push	0
	push	esi
	call	_lua_createtable

; 101  : 			lua_pushstring(L, "__index");

	push	OFFSET $SG223774
	push	esi
	call	_lua_pushstring

; 102  : 			lua_pushvalue(L, type_index);

	push	ebx
	push	esi
	call	_lua_pushvalue
	add	esp, 68					; 00000044H

; 103  : 			lua_rawset(L, -3);					// mt.__index = Type

	push	-3					; fffffffdH
	push	esi
	call	_lua_rawset

; 104  : 			lua_setmetatable(L, -2);

	push	-2					; fffffffeH
	push	esi
	call	_lua_setmetatable

; 105  : 
; 106  : 			//Assign it in instances
; 107  : 			lua_pushlightuserdata(L, pkType);

	push	edi
	push	esi
	call	_lua_pushlightuserdata

; 108  : 			lua_pushvalue(L, -2);

	push	-2					; fffffffeH
	push	esi
	call	_lua_pushvalue

; 109  : 			lua_rawset(L, instances_index);				//__instances[pkType] = t;

	push	ebp
	push	esi
	call	_lua_rawset
	add	esp, 40					; 00000028H
$LN2@Push:

; 110  : 		}
; 111  : 
; 112  : 		//VERIFY(instances_index > type_index);
; 113  : 		lua_remove(L, instances_index);

	push	ebp
	push	esi
	call	_lua_remove

; 114  : 		lua_remove(L, type_index);

	push	ebx
	push	esi
	call	_lua_remove
	add	esp, 16					; 00000010H
	pop	esi
	pop	ebp
	pop	ebx
	pop	edi

; 122  : 	}
; 123  : }

	ret	0
$LN4@Push:

; 115  : 
; 116  : 		//const int dt = lua_gettop(L);
; 117  : 		//VERIFY(dt == t + 1)
; 118  : 	}
; 119  : 	else
; 120  : 	{
; 121  : 		lua_pushnil(L);

	mov	eax, DWORD PTR _L$[esp]
	push	eax
	call	_lua_pushnil
	add	esp, 4
	pop	edi

; 122  : 	}
; 123  : }

	ret	0
?Push@?$CvLuaScopedInstance@VCvLuaArea@@VCvArea@@@@SAXPAUlua_State@@PAVCvArea@@@Z ENDP ; CvLuaScopedInstance<CvLuaArea,CvArea>::Push
_TEXT	ENDS
PUBLIC	?DefaultHandleMissingInstance@?$CvLuaScopedInstance@VCvLuaCity@@VCvCity@@@@KAXPAUlua_State@@@Z ; CvLuaScopedInstance<CvLuaCity,CvCity>::DefaultHandleMissingInstance
EXTRN	_luaL_error:PROC
; Function compile flags: /Ogtpy
;	COMDAT ?DefaultHandleMissingInstance@?$CvLuaScopedInstance@VCvLuaCity@@VCvCity@@@@KAXPAUlua_State@@@Z
_TEXT	SEGMENT
_L$ = 8							; size = 4
?DefaultHandleMissingInstance@?$CvLuaScopedInstance@VCvLuaCity@@VCvCity@@@@KAXPAUlua_State@@@Z PROC ; CvLuaScopedInstance<CvLuaCity,CvCity>::DefaultHandleMissingInstance, COMDAT

; 165  : 	luaL_error(L, "Instance does not exist.");

	mov	eax, DWORD PTR _L$[esp-4]
	push	OFFSET $SG223812
	push	eax
	call	_luaL_error
	add	esp, 8

; 166  : }

	ret	0
?DefaultHandleMissingInstance@?$CvLuaScopedInstance@VCvLuaCity@@VCvCity@@@@KAXPAUlua_State@@@Z ENDP ; CvLuaScopedInstance<CvLuaCity,CvCity>::DefaultHandleMissingInstance
_TEXT	ENDS
PUBLIC	?Push@?$CvLuaScopedInstance@VCvLuaPlot@@VCvPlot@@@@SAXPAUlua_State@@PAVCvPlot@@@Z ; CvLuaScopedInstance<CvLuaPlot,CvPlot>::Push
EXTRN	?PushMethods@CvLuaPlot@@SAXPAUlua_State@@H@Z:PROC ; CvLuaPlot::PushMethods
EXTRN	?GetTypeName@CvLuaPlot@@SAPBDXZ:PROC		; CvLuaPlot::GetTypeName
; Function compile flags: /Ogtpy
;	COMDAT ?Push@?$CvLuaScopedInstance@VCvLuaPlot@@VCvPlot@@@@SAXPAUlua_State@@PAVCvPlot@@@Z
_TEXT	SEGMENT
_L$ = 8							; size = 4
_pkType$ = 12						; size = 4
?Push@?$CvLuaScopedInstance@VCvLuaPlot@@VCvPlot@@@@SAXPAUlua_State@@PAVCvPlot@@@Z PROC ; CvLuaScopedInstance<CvLuaPlot,CvPlot>::Push, COMDAT

; 39   : {

	push	edi

; 40   : 	//Pushing an instance involves more than just actually pushing a pointer into the
; 41   : 	//Lua stack.  There are some caching optimizations that are done as well as some
; 42   : 	//checks.
; 43   : 	//The first step is to load or create a global table <Typename> to store all member
; 44   : 	//methods and all pushed instances.  This conserves memory and offers faster pushing
; 45   : 	//speed.
; 46   : 	//If <Typename>.__instances[pkType] is not nil, return that value.
; 47   : 	//otherwise push a new instance and assign it to __instances.
; 48   : 
; 49   : 	//NOTE: Raw gets and sets are used as an optimization over using lua_[get,set]field
; 50   : 	if(pkType)

	mov	edi, DWORD PTR _pkType$[esp]
	test	edi, edi
	je	$LN4@Push@2
	push	ebx
	push	ebp
	push	esi

; 51   : 	{
; 52   : 		//const int t = lua_gettop(L);
; 53   : 
; 54   : 		lua_getglobal(L, Derived::GetTypeName());

	call	?GetTypeName@CvLuaPlot@@SAPBDXZ		; CvLuaPlot::GetTypeName
	mov	esi, DWORD PTR _L$[esp+12]
	push	eax
	push	-10002					; ffffd8eeH
	push	esi
	call	_lua_getfield

; 55   : 		if(lua_isnil(L, -1))

	push	-1
	push	esi
	call	_lua_type
	add	esp, 20					; 00000014H
	test	eax, eax
	jne	$LN7@Push@2

; 56   : 		{
; 57   : 			//Typename wasn't found, time to build it.
; 58   : 			lua_pop(L, 1);

	push	-2					; fffffffeH
	push	esi
	call	_lua_settop

; 59   : 			lua_newtable(L);

	push	0
	push	0
	push	esi
	call	_lua_createtable

; 60   : 
; 61   : 			//Create weak __instances table.
; 62   : 			lua_pushstring(L, "__instances");

	push	OFFSET $SG223823
	push	esi
	call	_lua_pushstring

; 63   : 			lua_newtable(L);

	push	0
	push	0
	push	esi
	call	_lua_createtable

; 64   : 
; 65   : 			//Create __instances.mt
; 66   : 			lua_newtable(L);

	push	0
	push	0
	push	esi
	call	_lua_createtable

; 67   : 			lua_pushstring(L, "__mode");

	push	OFFSET $SG223824
	push	esi
	call	_lua_pushstring

; 68   : 			lua_pushstring(L, "v");

	push	OFFSET $SG223825
	push	esi
	call	_lua_pushstring
	add	esp, 68					; 00000044H

; 69   : 			lua_rawset(L, -3);				// mt.__mode = "v";

	push	-3					; fffffffdH
	push	esi
	call	_lua_rawset

; 70   : 			lua_setmetatable(L, -2);

	push	-2					; fffffffeH
	push	esi
	call	_lua_setmetatable

; 71   : 
; 72   : 			lua_rawset(L, -3);				//type.__instances = t;

	push	-3					; fffffffdH
	push	esi
	call	_lua_rawset

; 73   : 
; 74   : 
; 75   : 			lua_pushvalue(L, -1);

	push	-1
	push	esi
	call	_lua_pushvalue

; 76   : 			lua_setglobal(L, Derived::GetTypeName());

	call	?GetTypeName@CvLuaPlot@@SAPBDXZ		; CvLuaPlot::GetTypeName
	push	eax
	push	-10002					; ffffd8eeH
	push	esi
	call	_lua_setfield

; 77   : 
; 78   : 			Derived::PushMethods(L, lua_gettop(L));

	push	esi
	call	_lua_gettop
	push	eax
	push	esi
	call	?PushMethods@CvLuaPlot@@SAXPAUlua_State@@H@Z ; CvLuaPlot::PushMethods
	add	esp, 56					; 00000038H
$LN7@Push@2:

; 79   : 		}
; 80   : 		const int type_index = lua_gettop(L);

	push	esi
	call	_lua_gettop

; 81   : 
; 82   : 		lua_pushstring(L, "__instances");

	push	OFFSET $SG223827
	push	esi
	mov	ebx, eax
	call	_lua_pushstring

; 83   : 		lua_rawget(L, -2);

	push	-2					; fffffffeH
	push	esi
	call	_lua_rawget

; 84   : 
; 85   : 		const int instances_index = lua_gettop(L);

	push	esi
	call	_lua_gettop

; 86   : 
; 87   : 		lua_pushlightuserdata(L, pkType);

	push	edi
	push	esi
	mov	ebp, eax
	call	_lua_pushlightuserdata

; 88   : 
; 89   : 		lua_rawget(L, -2);					//retrieve type.__instances[pkType]

	push	-2					; fffffffeH
	push	esi
	call	_lua_rawget

; 90   : 
; 91   : 		if(lua_isnil(L, -1))

	push	-1
	push	esi
	call	_lua_type
	add	esp, 48					; 00000030H
	test	eax, eax
	jne	SHORT $LN2@Push@2

; 92   : 		{
; 93   : 			lua_pop(L, 1);

	push	-2					; fffffffeH
	push	esi
	call	_lua_settop

; 94   : 
; 95   : 			//Push new instance
; 96   : 			lua_createtable(L, 0, 1);

	push	1
	push	0
	push	esi
	call	_lua_createtable

; 97   : 			lua_pushlightuserdata(L, pkType);

	push	edi
	push	esi
	call	_lua_pushlightuserdata

; 98   : 			lua_setfield(L, -2, "__instance");

	push	OFFSET $SG223830
	push	-2					; fffffffeH
	push	esi
	call	_lua_setfield

; 99   : 
; 100  : 			lua_createtable(L, 0, 1);			// create mt

	push	1
	push	0
	push	esi
	call	_lua_createtable

; 101  : 			lua_pushstring(L, "__index");

	push	OFFSET $SG223831
	push	esi
	call	_lua_pushstring

; 102  : 			lua_pushvalue(L, type_index);

	push	ebx
	push	esi
	call	_lua_pushvalue
	add	esp, 68					; 00000044H

; 103  : 			lua_rawset(L, -3);					// mt.__index = Type

	push	-3					; fffffffdH
	push	esi
	call	_lua_rawset

; 104  : 			lua_setmetatable(L, -2);

	push	-2					; fffffffeH
	push	esi
	call	_lua_setmetatable

; 105  : 
; 106  : 			//Assign it in instances
; 107  : 			lua_pushlightuserdata(L, pkType);

	push	edi
	push	esi
	call	_lua_pushlightuserdata

; 108  : 			lua_pushvalue(L, -2);

	push	-2					; fffffffeH
	push	esi
	call	_lua_pushvalue

; 109  : 			lua_rawset(L, instances_index);				//__instances[pkType] = t;

	push	ebp
	push	esi
	call	_lua_rawset
	add	esp, 40					; 00000028H
$LN2@Push@2:

; 110  : 		}
; 111  : 
; 112  : 		//VERIFY(instances_index > type_index);
; 113  : 		lua_remove(L, instances_index);

	push	ebp
	push	esi
	call	_lua_remove

; 114  : 		lua_remove(L, type_index);

	push	ebx
	push	esi
	call	_lua_remove
	add	esp, 16					; 00000010H
	pop	esi
	pop	ebp
	pop	ebx
	pop	edi

; 122  : 	}
; 123  : }

	ret	0
$LN4@Push@2:

; 115  : 
; 116  : 		//const int dt = lua_gettop(L);
; 117  : 		//VERIFY(dt == t + 1)
; 118  : 	}
; 119  : 	else
; 120  : 	{
; 121  : 		lua_pushnil(L);

	mov	eax, DWORD PTR _L$[esp]
	push	eax
	call	_lua_pushnil
	add	esp, 4
	pop	edi

; 122  : 	}
; 123  : }

	ret	0
?Push@?$CvLuaScopedInstance@VCvLuaPlot@@VCvPlot@@@@SAXPAUlua_State@@PAVCvPlot@@@Z ENDP ; CvLuaScopedInstance<CvLuaPlot,CvPlot>::Push
_TEXT	ENDS
PUBLIC	?GetInstance@?$CvLuaScopedInstance@VCvLuaPlot@@VCvPlot@@@@SAPAVCvPlot@@PAUlua_State@@H_N@Z ; CvLuaScopedInstance<CvLuaPlot,CvPlot>::GetInstance
EXTRN	?HandleMissingInstance@CvLuaPlot@@SAXPAUlua_State@@@Z:PROC ; CvLuaPlot::HandleMissingInstance
EXTRN	_lua_touserdata:PROC
; Function compile flags: /Ogtpy
;	COMDAT ?GetInstance@?$CvLuaScopedInstance@VCvLuaPlot@@VCvPlot@@@@SAPAVCvPlot@@PAUlua_State@@H_N@Z
_TEXT	SEGMENT
_L$ = 8							; size = 4
_idx$ = 12						; size = 4
_bErrorOnFail$ = 16					; size = 1
?GetInstance@?$CvLuaScopedInstance@VCvLuaPlot@@VCvPlot@@@@SAPAVCvPlot@@PAUlua_State@@H_N@Z PROC ; CvLuaScopedInstance<CvLuaPlot,CvPlot>::GetInstance, COMDAT

; 127  : {

	push	ebx
	push	ebp
	push	esi

; 128  : 	const int stack_size = lua_gettop(L);

	mov	esi, DWORD PTR _L$[esp+8]
	push	edi
	push	esi
	call	_lua_gettop
	mov	ebp, eax

; 129  : 	bool bFail = true;
; 130  : 
; 131  : 	InstanceType* pkInstance = NULL;
; 132  : 	if(lua_type(L, idx) == LUA_TTABLE)

	mov	eax, DWORD PTR _idx$[esp+16]
	push	eax
	push	esi
	mov	bl, 1
	xor	edi, edi
	call	_lua_type
	add	esp, 12					; 0000000cH
	cmp	eax, 5
	jne	SHORT $LN3@GetInstanc

; 133  : 	{
; 134  : 		lua_getfield(L, idx, "__instance");

	mov	ecx, DWORD PTR _idx$[esp+12]
	push	OFFSET $SG223846
	push	ecx
	push	esi
	call	_lua_getfield

; 135  : 		if(lua_type(L, -1) == LUA_TLIGHTUSERDATA)

	push	-1
	push	esi
	call	_lua_type
	add	esp, 20					; 00000014H
	cmp	eax, 2
	jne	SHORT $LN3@GetInstanc

; 136  : 		{
; 137  : 			pkInstance = static_cast<InstanceType*>(lua_touserdata(L, -1));

	push	-1
	push	esi
	call	_lua_touserdata
	mov	edi, eax
	add	esp, 8

; 138  : 			if(pkInstance)

	test	edi, edi
	je	SHORT $LN3@GetInstanc

; 139  : 			{
; 140  : 				bFail = false;

	xor	bl, bl
$LN3@GetInstanc:

; 141  : 			}
; 142  : 		}
; 143  : 	}
; 144  : 
; 145  : 	lua_settop(L, stack_size);

	push	ebp
	push	esi
	call	_lua_settop
	add	esp, 8

; 146  : 
; 147  : 	if(bFail && bErrorOnFail)

	test	bl, bl
	je	SHORT $LN9@GetInstanc
	cmp	BYTE PTR _bErrorOnFail$[esp+12], 0
	je	SHORT $LN9@GetInstanc

; 148  : 	{
; 149  : 		if(idx == 1)

	cmp	DWORD PTR _idx$[esp+12], 1
	jne	SHORT $LN1@GetInstanc

; 150  : 			luaL_error(L, "Not a valid instance.  Either the instance is NULL or you used '.' instead of ':'.");

	push	OFFSET $SG223852
	push	esi
	call	_luaL_error
	add	esp, 8
$LN1@GetInstanc:

; 151  : 		Derived::HandleMissingInstance(L);

	push	esi
	call	?HandleMissingInstance@CvLuaPlot@@SAXPAUlua_State@@@Z ; CvLuaPlot::HandleMissingInstance
	add	esp, 4
$LN9@GetInstanc:

; 152  : 	}
; 153  : 	return pkInstance;

	mov	eax, edi
	pop	edi
	pop	esi
	pop	ebp
	pop	ebx

; 154  : }

	ret	0
?GetInstance@?$CvLuaScopedInstance@VCvLuaPlot@@VCvPlot@@@@SAPAVCvPlot@@PAUlua_State@@H_N@Z ENDP ; CvLuaScopedInstance<CvLuaPlot,CvPlot>::GetInstance
_TEXT	ENDS
PUBLIC	?Push@?$CvLuaScopedInstance@VCvLuaUnit@@VCvUnit@@@@SAXPAUlua_State@@PAVCvUnit@@@Z ; CvLuaScopedInstance<CvLuaUnit,CvUnit>::Push
EXTRN	?PushMethods@CvLuaUnit@@SAXPAUlua_State@@H@Z:PROC ; CvLuaUnit::PushMethods
EXTRN	?GetTypeName@CvLuaUnit@@SAPBDXZ:PROC		; CvLuaUnit::GetTypeName
; Function compile flags: /Ogtpy
;	COMDAT ?Push@?$CvLuaScopedInstance@VCvLuaUnit@@VCvUnit@@@@SAXPAUlua_State@@PAVCvUnit@@@Z
_TEXT	SEGMENT
_L$ = 8							; size = 4
_pkType$ = 12						; size = 4
?Push@?$CvLuaScopedInstance@VCvLuaUnit@@VCvUnit@@@@SAXPAUlua_State@@PAVCvUnit@@@Z PROC ; CvLuaScopedInstance<CvLuaUnit,CvUnit>::Push, COMDAT

; 39   : {

	push	edi

; 40   : 	//Pushing an instance involves more than just actually pushing a pointer into the
; 41   : 	//Lua stack.  There are some caching optimizations that are done as well as some
; 42   : 	//checks.
; 43   : 	//The first step is to load or create a global table <Typename> to store all member
; 44   : 	//methods and all pushed instances.  This conserves memory and offers faster pushing
; 45   : 	//speed.
; 46   : 	//If <Typename>.__instances[pkType] is not nil, return that value.
; 47   : 	//otherwise push a new instance and assign it to __instances.
; 48   : 
; 49   : 	//NOTE: Raw gets and sets are used as an optimization over using lua_[get,set]field
; 50   : 	if(pkType)

	mov	edi, DWORD PTR _pkType$[esp]
	test	edi, edi
	je	$LN4@Push@3
	push	ebx
	push	ebp
	push	esi

; 51   : 	{
; 52   : 		//const int t = lua_gettop(L);
; 53   : 
; 54   : 		lua_getglobal(L, Derived::GetTypeName());

	call	?GetTypeName@CvLuaUnit@@SAPBDXZ		; CvLuaUnit::GetTypeName
	mov	esi, DWORD PTR _L$[esp+12]
	push	eax
	push	-10002					; ffffd8eeH
	push	esi
	call	_lua_getfield

; 55   : 		if(lua_isnil(L, -1))

	push	-1
	push	esi
	call	_lua_type
	add	esp, 20					; 00000014H
	test	eax, eax
	jne	$LN7@Push@3

; 56   : 		{
; 57   : 			//Typename wasn't found, time to build it.
; 58   : 			lua_pop(L, 1);

	push	-2					; fffffffeH
	push	esi
	call	_lua_settop

; 59   : 			lua_newtable(L);

	push	0
	push	0
	push	esi
	call	_lua_createtable

; 60   : 
; 61   : 			//Create weak __instances table.
; 62   : 			lua_pushstring(L, "__instances");

	push	OFFSET $SG223863
	push	esi
	call	_lua_pushstring

; 63   : 			lua_newtable(L);

	push	0
	push	0
	push	esi
	call	_lua_createtable

; 64   : 
; 65   : 			//Create __instances.mt
; 66   : 			lua_newtable(L);

	push	0
	push	0
	push	esi
	call	_lua_createtable

; 67   : 			lua_pushstring(L, "__mode");

	push	OFFSET $SG223864
	push	esi
	call	_lua_pushstring

; 68   : 			lua_pushstring(L, "v");

	push	OFFSET $SG223865
	push	esi
	call	_lua_pushstring
	add	esp, 68					; 00000044H

; 69   : 			lua_rawset(L, -3);				// mt.__mode = "v";

	push	-3					; fffffffdH
	push	esi
	call	_lua_rawset

; 70   : 			lua_setmetatable(L, -2);

	push	-2					; fffffffeH
	push	esi
	call	_lua_setmetatable

; 71   : 
; 72   : 			lua_rawset(L, -3);				//type.__instances = t;

	push	-3					; fffffffdH
	push	esi
	call	_lua_rawset

; 73   : 
; 74   : 
; 75   : 			lua_pushvalue(L, -1);

	push	-1
	push	esi
	call	_lua_pushvalue

; 76   : 			lua_setglobal(L, Derived::GetTypeName());

	call	?GetTypeName@CvLuaUnit@@SAPBDXZ		; CvLuaUnit::GetTypeName
	push	eax
	push	-10002					; ffffd8eeH
	push	esi
	call	_lua_setfield

; 77   : 
; 78   : 			Derived::PushMethods(L, lua_gettop(L));

	push	esi
	call	_lua_gettop
	push	eax
	push	esi
	call	?PushMethods@CvLuaUnit@@SAXPAUlua_State@@H@Z ; CvLuaUnit::PushMethods
	add	esp, 56					; 00000038H
$LN7@Push@3:

; 79   : 		}
; 80   : 		const int type_index = lua_gettop(L);

	push	esi
	call	_lua_gettop

; 81   : 
; 82   : 		lua_pushstring(L, "__instances");

	push	OFFSET $SG223867
	push	esi
	mov	ebx, eax
	call	_lua_pushstring

; 83   : 		lua_rawget(L, -2);

	push	-2					; fffffffeH
	push	esi
	call	_lua_rawget

; 84   : 
; 85   : 		const int instances_index = lua_gettop(L);

	push	esi
	call	_lua_gettop

; 86   : 
; 87   : 		lua_pushlightuserdata(L, pkType);

	push	edi
	push	esi
	mov	ebp, eax
	call	_lua_pushlightuserdata

; 88   : 
; 89   : 		lua_rawget(L, -2);					//retrieve type.__instances[pkType]

	push	-2					; fffffffeH
	push	esi
	call	_lua_rawget

; 90   : 
; 91   : 		if(lua_isnil(L, -1))

	push	-1
	push	esi
	call	_lua_type
	add	esp, 48					; 00000030H
	test	eax, eax
	jne	SHORT $LN2@Push@3

; 92   : 		{
; 93   : 			lua_pop(L, 1);

	push	-2					; fffffffeH
	push	esi
	call	_lua_settop

; 94   : 
; 95   : 			//Push new instance
; 96   : 			lua_createtable(L, 0, 1);

	push	1
	push	0
	push	esi
	call	_lua_createtable

; 97   : 			lua_pushlightuserdata(L, pkType);

	push	edi
	push	esi
	call	_lua_pushlightuserdata

; 98   : 			lua_setfield(L, -2, "__instance");

	push	OFFSET $SG223870
	push	-2					; fffffffeH
	push	esi
	call	_lua_setfield

; 99   : 
; 100  : 			lua_createtable(L, 0, 1);			// create mt

	push	1
	push	0
	push	esi
	call	_lua_createtable

; 101  : 			lua_pushstring(L, "__index");

	push	OFFSET $SG223871
	push	esi
	call	_lua_pushstring

; 102  : 			lua_pushvalue(L, type_index);

	push	ebx
	push	esi
	call	_lua_pushvalue
	add	esp, 68					; 00000044H

; 103  : 			lua_rawset(L, -3);					// mt.__index = Type

	push	-3					; fffffffdH
	push	esi
	call	_lua_rawset

; 104  : 			lua_setmetatable(L, -2);

	push	-2					; fffffffeH
	push	esi
	call	_lua_setmetatable

; 105  : 
; 106  : 			//Assign it in instances
; 107  : 			lua_pushlightuserdata(L, pkType);

	push	edi
	push	esi
	call	_lua_pushlightuserdata

; 108  : 			lua_pushvalue(L, -2);

	push	-2					; fffffffeH
	push	esi
	call	_lua_pushvalue

; 109  : 			lua_rawset(L, instances_index);				//__instances[pkType] = t;

	push	ebp
	push	esi
	call	_lua_rawset
	add	esp, 40					; 00000028H
$LN2@Push@3:

; 110  : 		}
; 111  : 
; 112  : 		//VERIFY(instances_index > type_index);
; 113  : 		lua_remove(L, instances_index);

	push	ebp
	push	esi
	call	_lua_remove

; 114  : 		lua_remove(L, type_index);

	push	ebx
	push	esi
	call	_lua_remove
	add	esp, 16					; 00000010H
	pop	esi
	pop	ebp
	pop	ebx
	pop	edi

; 122  : 	}
; 123  : }

	ret	0
$LN4@Push@3:

; 115  : 
; 116  : 		//const int dt = lua_gettop(L);
; 117  : 		//VERIFY(dt == t + 1)
; 118  : 	}
; 119  : 	else
; 120  : 	{
; 121  : 		lua_pushnil(L);

	mov	eax, DWORD PTR _L$[esp]
	push	eax
	call	_lua_pushnil
	add	esp, 4
	pop	edi

; 122  : 	}
; 123  : }

	ret	0
?Push@?$CvLuaScopedInstance@VCvLuaUnit@@VCvUnit@@@@SAXPAUlua_State@@PAVCvUnit@@@Z ENDP ; CvLuaScopedInstance<CvLuaUnit,CvUnit>::Push
_TEXT	ENDS
PUBLIC	?GetInstance@?$CvLuaScopedInstance@VCvLuaUnit@@VCvUnit@@@@SAPAVCvUnit@@PAUlua_State@@H_N@Z ; CvLuaScopedInstance<CvLuaUnit,CvUnit>::GetInstance
EXTRN	?HandleMissingInstance@CvLuaUnit@@SAXPAUlua_State@@@Z:PROC ; CvLuaUnit::HandleMissingInstance
; Function compile flags: /Ogtpy
;	COMDAT ?GetInstance@?$CvLuaScopedInstance@VCvLuaUnit@@VCvUnit@@@@SAPAVCvUnit@@PAUlua_State@@H_N@Z
_TEXT	SEGMENT
_L$ = 8							; size = 4
_idx$ = 12						; size = 4
_bErrorOnFail$ = 16					; size = 1
?GetInstance@?$CvLuaScopedInstance@VCvLuaUnit@@VCvUnit@@@@SAPAVCvUnit@@PAUlua_State@@H_N@Z PROC ; CvLuaScopedInstance<CvLuaUnit,CvUnit>::GetInstance, COMDAT

; 127  : {

	push	ebx
	push	ebp
	push	esi

; 128  : 	const int stack_size = lua_gettop(L);

	mov	esi, DWORD PTR _L$[esp+8]
	push	edi
	push	esi
	call	_lua_gettop
	mov	ebp, eax

; 129  : 	bool bFail = true;
; 130  : 
; 131  : 	InstanceType* pkInstance = NULL;
; 132  : 	if(lua_type(L, idx) == LUA_TTABLE)

	mov	eax, DWORD PTR _idx$[esp+16]
	push	eax
	push	esi
	mov	bl, 1
	xor	edi, edi
	call	_lua_type
	add	esp, 12					; 0000000cH
	cmp	eax, 5
	jne	SHORT $LN3@GetInstanc@2

; 133  : 	{
; 134  : 		lua_getfield(L, idx, "__instance");

	mov	ecx, DWORD PTR _idx$[esp+12]
	push	OFFSET $SG223886
	push	ecx
	push	esi
	call	_lua_getfield

; 135  : 		if(lua_type(L, -1) == LUA_TLIGHTUSERDATA)

	push	-1
	push	esi
	call	_lua_type
	add	esp, 20					; 00000014H
	cmp	eax, 2
	jne	SHORT $LN3@GetInstanc@2

; 136  : 		{
; 137  : 			pkInstance = static_cast<InstanceType*>(lua_touserdata(L, -1));

	push	-1
	push	esi
	call	_lua_touserdata
	mov	edi, eax
	add	esp, 8

; 138  : 			if(pkInstance)

	test	edi, edi
	je	SHORT $LN3@GetInstanc@2

; 139  : 			{
; 140  : 				bFail = false;

	xor	bl, bl
$LN3@GetInstanc@2:

; 141  : 			}
; 142  : 		}
; 143  : 	}
; 144  : 
; 145  : 	lua_settop(L, stack_size);

	push	ebp
	push	esi
	call	_lua_settop
	add	esp, 8

; 146  : 
; 147  : 	if(bFail && bErrorOnFail)

	test	bl, bl
	je	SHORT $LN9@GetInstanc@2
	cmp	BYTE PTR _bErrorOnFail$[esp+12], 0
	je	SHORT $LN9@GetInstanc@2

; 148  : 	{
; 149  : 		if(idx == 1)

	cmp	DWORD PTR _idx$[esp+12], 1
	jne	SHORT $LN1@GetInstanc@2

; 150  : 			luaL_error(L, "Not a valid instance.  Either the instance is NULL or you used '.' instead of ':'.");

	push	OFFSET $SG223892
	push	esi
	call	_luaL_error
	add	esp, 8
$LN1@GetInstanc@2:

; 151  : 		Derived::HandleMissingInstance(L);

	push	esi
	call	?HandleMissingInstance@CvLuaUnit@@SAXPAUlua_State@@@Z ; CvLuaUnit::HandleMissingInstance
	add	esp, 4
$LN9@GetInstanc@2:

; 152  : 	}
; 153  : 	return pkInstance;

	mov	eax, edi
	pop	edi
	pop	esi
	pop	ebp
	pop	ebx

; 154  : }

	ret	0
?GetInstance@?$CvLuaScopedInstance@VCvLuaUnit@@VCvUnit@@@@SAPAVCvUnit@@PAUlua_State@@H_N@Z ENDP ; CvLuaScopedInstance<CvLuaUnit,CvUnit>::GetInstance
; Function compile flags: /Ogtpy
; File s:\lekmod_dll\cvgamecoredllutil\include\cvluaargtemplates.h
_TEXT	ENDS
;	COMDAT ??$toValue@W4BuildingClassTypes@@@CvLuaArgs@@YA?AW4BuildingClassTypes@@PAUlua_State@@H@Z
_TEXT	SEGMENT
??$toValue@W4BuildingClassTypes@@@CvLuaArgs@@YA?AW4BuildingClassTypes@@PAUlua_State@@H@Z PROC ; CvLuaArgs::toValue<enum BuildingClassTypes>, COMDAT
; _L$ = ecx
; _idx$ = eax

; 12   : 		//This is pretty unsafe, but common.
; 13   : 		//Assume T is a poorly designed enum =(
; 14   : 		return (T)lua_tointeger(L, idx);

	push	eax
	push	ecx
	call	_lua_tointeger
	add	esp, 8

; 15   : 	}

	ret	0
??$toValue@W4BuildingClassTypes@@@CvLuaArgs@@YA?AW4BuildingClassTypes@@PAUlua_State@@H@Z ENDP ; CvLuaArgs::toValue<enum BuildingClassTypes>
; Function compile flags: /Ogtpy
_TEXT	ENDS
;	COMDAT ??$toValue@W4BuildingTypes@@@CvLuaArgs@@YA?AW4BuildingTypes@@PAUlua_State@@H@Z
_TEXT	SEGMENT
??$toValue@W4BuildingTypes@@@CvLuaArgs@@YA?AW4BuildingTypes@@PAUlua_State@@H@Z PROC ; CvLuaArgs::toValue<enum BuildingTypes>, COMDAT
; _L$ = ecx
; _idx$ = eax

; 12   : 		//This is pretty unsafe, but common.
; 13   : 		//Assume T is a poorly designed enum =(
; 14   : 		return (T)lua_tointeger(L, idx);

	push	eax
	push	ecx
	call	_lua_tointeger
	add	esp, 8

; 15   : 	}

	ret	0
??$toValue@W4BuildingTypes@@@CvLuaArgs@@YA?AW4BuildingTypes@@PAUlua_State@@H@Z ENDP ; CvLuaArgs::toValue<enum BuildingTypes>
; Function compile flags: /Ogtpy
_TEXT	ENDS
;	COMDAT ??$toValue@W4UnitTypes@@@CvLuaArgs@@YA?AW4UnitTypes@@PAUlua_State@@H@Z
_TEXT	SEGMENT
??$toValue@W4UnitTypes@@@CvLuaArgs@@YA?AW4UnitTypes@@PAUlua_State@@H@Z PROC ; CvLuaArgs::toValue<enum UnitTypes>, COMDAT
; _L$ = ecx
; _idx$ = eax

; 12   : 		//This is pretty unsafe, but common.
; 13   : 		//Assume T is a poorly designed enum =(
; 14   : 		return (T)lua_tointeger(L, idx);

	push	eax
	push	ecx
	call	_lua_tointeger
	add	esp, 8

; 15   : 	}

	ret	0
??$toValue@W4UnitTypes@@@CvLuaArgs@@YA?AW4UnitTypes@@PAUlua_State@@H@Z ENDP ; CvLuaArgs::toValue<enum UnitTypes>
; Function compile flags: /Ogtpy
_TEXT	ENDS
;	COMDAT ??$toValue@W4UnitClassTypes@@@CvLuaArgs@@YA?AW4UnitClassTypes@@PAUlua_State@@H@Z
_TEXT	SEGMENT
??$toValue@W4UnitClassTypes@@@CvLuaArgs@@YA?AW4UnitClassTypes@@PAUlua_State@@H@Z PROC ; CvLuaArgs::toValue<enum UnitClassTypes>, COMDAT
; _L$ = ecx
; _idx$ = eax

; 12   : 		//This is pretty unsafe, but common.
; 13   : 		//Assume T is a poorly designed enum =(
; 14   : 		return (T)lua_tointeger(L, idx);

	push	eax
	push	ecx
	call	_lua_tointeger
	add	esp, 8

; 15   : 	}

	ret	0
??$toValue@W4UnitClassTypes@@@CvLuaArgs@@YA?AW4UnitClassTypes@@PAUlua_State@@H@Z ENDP ; CvLuaArgs::toValue<enum UnitClassTypes>
; Function compile flags: /Ogtpy
_TEXT	ENDS
;	COMDAT ??$toValue@W4SpecialistTypes@@@CvLuaArgs@@YA?AW4SpecialistTypes@@PAUlua_State@@H@Z
_TEXT	SEGMENT
??$toValue@W4SpecialistTypes@@@CvLuaArgs@@YA?AW4SpecialistTypes@@PAUlua_State@@H@Z PROC ; CvLuaArgs::toValue<enum SpecialistTypes>, COMDAT
; _L$ = ecx
; _idx$ = eax

; 12   : 		//This is pretty unsafe, but common.
; 13   : 		//Assume T is a poorly designed enum =(
; 14   : 		return (T)lua_tointeger(L, idx);

	push	eax
	push	ecx
	call	_lua_tointeger
	add	esp, 8

; 15   : 	}

	ret	0
??$toValue@W4SpecialistTypes@@@CvLuaArgs@@YA?AW4SpecialistTypes@@PAUlua_State@@H@Z ENDP ; CvLuaArgs::toValue<enum SpecialistTypes>
_TEXT	ENDS
PUBLIC	?GetStartingArgIndex@?$CvLuaScopedInstance@VCvLuaCity@@VCvCity@@@@SA?BHXZ ; CvLuaScopedInstance<CvLuaCity,CvCity>::GetStartingArgIndex
; Function compile flags: /Ogtpy
; File s:\lekmod_dll\cvgamecoredll_expansion2\lua\cvluascopedinstance.h
;	COMDAT ?GetStartingArgIndex@?$CvLuaScopedInstance@VCvLuaCity@@VCvCity@@@@SA?BHXZ
_TEXT	SEGMENT
?GetStartingArgIndex@?$CvLuaScopedInstance@VCvLuaCity@@VCvCity@@@@SA?BHXZ PROC ; CvLuaScopedInstance<CvLuaCity,CvCity>::GetStartingArgIndex, COMDAT

; 159  : 	return 2;

	mov	eax, 2

; 160  : }

	ret	0
?GetStartingArgIndex@?$CvLuaScopedInstance@VCvLuaCity@@VCvCity@@@@SA?BHXZ ENDP ; CvLuaScopedInstance<CvLuaCity,CvCity>::GetStartingArgIndex
; Function compile flags: /Ogtpy
; File s:\lekmod_dll\cvgamecoredllutil\include\cvluaargtemplates.h
_TEXT	ENDS
;	COMDAT ??$toValue@PAVCvString@@@CvLuaArgs@@YAPAVCvString@@PAUlua_State@@H@Z
_TEXT	SEGMENT
??$toValue@PAVCvString@@@CvLuaArgs@@YAPAVCvString@@PAUlua_State@@H@Z PROC ; CvLuaArgs::toValue<CvString *>, COMDAT
; _L$ = ecx
; _idx$ = eax

; 12   : 		//This is pretty unsafe, but common.
; 13   : 		//Assume T is a poorly designed enum =(
; 14   : 		return (T)lua_tointeger(L, idx);

	push	eax
	push	ecx
	call	_lua_tointeger
	add	esp, 8

; 15   : 	}

	ret	0
??$toValue@PAVCvString@@@CvLuaArgs@@YAPAVCvString@@PAUlua_State@@H@Z ENDP ; CvLuaArgs::toValue<CvString *>
; Function compile flags: /Ogtpy
_TEXT	ENDS
;	COMDAT ??$pushValue@W4ResourceTypes@@@CvLuaArgs@@YAXPAUlua_State@@W4ResourceTypes@@@Z
_TEXT	SEGMENT
??$pushValue@W4ResourceTypes@@@CvLuaArgs@@YAXPAUlua_State@@W4ResourceTypes@@@Z PROC ; CvLuaArgs::pushValue<enum ResourceTypes>, COMDAT
; _L$ = ecx
; _t$ = eax

; 31   : 		//This is pretty unsafe, but common.
; 32   : 		//Assume T is a poorly designed enum =(
; 33   : 		lua_pushinteger(L, t);

	push	eax
	push	ecx
	call	_lua_pushinteger
	add	esp, 8

; 34   : 	}

	ret	0
??$pushValue@W4ResourceTypes@@@CvLuaArgs@@YAXPAUlua_State@@W4ResourceTypes@@@Z ENDP ; CvLuaArgs::pushValue<enum ResourceTypes>
; Function compile flags: /Ogtpy
_TEXT	ENDS
;	COMDAT ??$toValue@W4ResourceTypes@@@CvLuaArgs@@YA?AW4ResourceTypes@@PAUlua_State@@H@Z
_TEXT	SEGMENT
??$toValue@W4ResourceTypes@@@CvLuaArgs@@YA?AW4ResourceTypes@@PAUlua_State@@H@Z PROC ; CvLuaArgs::toValue<enum ResourceTypes>, COMDAT
; _L$ = ecx
; _idx$ = eax

; 12   : 		//This is pretty unsafe, but common.
; 13   : 		//Assume T is a poorly designed enum =(
; 14   : 		return (T)lua_tointeger(L, idx);

	push	eax
	push	ecx
	call	_lua_tointeger
	add	esp, 8

; 15   : 	}

	ret	0
??$toValue@W4ResourceTypes@@@CvLuaArgs@@YA?AW4ResourceTypes@@PAUlua_State@@H@Z ENDP ; CvLuaArgs::toValue<enum ResourceTypes>
; Function compile flags: /Ogtpy
_TEXT	ENDS
;	COMDAT ??$pushValue@W4UnitTypes@@@CvLuaArgs@@YAXPAUlua_State@@W4UnitTypes@@@Z
_TEXT	SEGMENT
??$pushValue@W4UnitTypes@@@CvLuaArgs@@YAXPAUlua_State@@W4UnitTypes@@@Z PROC ; CvLuaArgs::pushValue<enum UnitTypes>, COMDAT
; _L$ = ecx
; _t$ = eax

; 31   : 		//This is pretty unsafe, but common.
; 32   : 		//Assume T is a poorly designed enum =(
; 33   : 		lua_pushinteger(L, t);

	push	eax
	push	ecx
	call	_lua_pushinteger
	add	esp, 8

; 34   : 	}

	ret	0
??$pushValue@W4UnitTypes@@@CvLuaArgs@@YAXPAUlua_State@@W4UnitTypes@@@Z ENDP ; CvLuaArgs::pushValue<enum UnitTypes>
; Function compile flags: /Ogtpy
_TEXT	ENDS
;	COMDAT ??$pushValue@W4ProcessTypes@@@CvLuaArgs@@YAXPAUlua_State@@W4ProcessTypes@@@Z
_TEXT	SEGMENT
??$pushValue@W4ProcessTypes@@@CvLuaArgs@@YAXPAUlua_State@@W4ProcessTypes@@@Z PROC ; CvLuaArgs::pushValue<enum ProcessTypes>, COMDAT
; _L$ = ecx
; _t$ = eax

; 31   : 		//This is pretty unsafe, but common.
; 32   : 		//Assume T is a poorly designed enum =(
; 33   : 		lua_pushinteger(L, t);

	push	eax
	push	ecx
	call	_lua_pushinteger
	add	esp, 8

; 34   : 	}

	ret	0
??$pushValue@W4ProcessTypes@@@CvLuaArgs@@YAXPAUlua_State@@W4ProcessTypes@@@Z ENDP ; CvLuaArgs::pushValue<enum ProcessTypes>
; Function compile flags: /Ogtpy
_TEXT	ENDS
;	COMDAT ??$toValue@W4ProjectTypes@@@CvLuaArgs@@YA?AW4ProjectTypes@@PAUlua_State@@H@Z
_TEXT	SEGMENT
??$toValue@W4ProjectTypes@@@CvLuaArgs@@YA?AW4ProjectTypes@@PAUlua_State@@H@Z PROC ; CvLuaArgs::toValue<enum ProjectTypes>, COMDAT
; _L$ = ecx
; _idx$ = eax

; 12   : 		//This is pretty unsafe, but common.
; 13   : 		//Assume T is a poorly designed enum =(
; 14   : 		return (T)lua_tointeger(L, idx);

	push	eax
	push	ecx
	call	_lua_tointeger
	add	esp, 8

; 15   : 	}

	ret	0
??$toValue@W4ProjectTypes@@@CvLuaArgs@@YA?AW4ProjectTypes@@PAUlua_State@@H@Z ENDP ; CvLuaArgs::toValue<enum ProjectTypes>
; Function compile flags: /Ogtpy
_TEXT	ENDS
;	COMDAT ??$toValue@W4UnitAITypes@@@CvLuaArgs@@YA?AW4UnitAITypes@@PAUlua_State@@H@Z
_TEXT	SEGMENT
??$toValue@W4UnitAITypes@@@CvLuaArgs@@YA?AW4UnitAITypes@@PAUlua_State@@H@Z PROC ; CvLuaArgs::toValue<enum UnitAITypes>, COMDAT
; _L$ = ecx
; _idx$ = eax

; 12   : 		//This is pretty unsafe, but common.
; 13   : 		//Assume T is a poorly designed enum =(
; 14   : 		return (T)lua_tointeger(L, idx);

	push	eax
	push	ecx
	call	_lua_tointeger
	add	esp, 8

; 15   : 	}

	ret	0
??$toValue@W4UnitAITypes@@@CvLuaArgs@@YA?AW4UnitAITypes@@PAUlua_State@@H@Z ENDP ; CvLuaArgs::toValue<enum UnitAITypes>
; Function compile flags: /Ogtpy
_TEXT	ENDS
;	COMDAT ??$toValue@W4HurryTypes@@@CvLuaArgs@@YA?AW4HurryTypes@@PAUlua_State@@H@Z
_TEXT	SEGMENT
??$toValue@W4HurryTypes@@@CvLuaArgs@@YA?AW4HurryTypes@@PAUlua_State@@H@Z PROC ; CvLuaArgs::toValue<enum HurryTypes>, COMDAT
; _L$ = ecx
; _idx$ = eax

; 12   : 		//This is pretty unsafe, but common.
; 13   : 		//Assume T is a poorly designed enum =(
; 14   : 		return (T)lua_tointeger(L, idx);

	push	eax
	push	ecx
	call	_lua_tointeger
	add	esp, 8

; 15   : 	}

	ret	0
??$toValue@W4HurryTypes@@@CvLuaArgs@@YA?AW4HurryTypes@@PAUlua_State@@H@Z ENDP ; CvLuaArgs::toValue<enum HurryTypes>
; Function compile flags: /Ogtpy
_TEXT	ENDS
;	COMDAT ??$toValue@W4YieldTypes@@@CvLuaArgs@@YA?AW4YieldTypes@@PAUlua_State@@H@Z
_TEXT	SEGMENT
??$toValue@W4YieldTypes@@@CvLuaArgs@@YA?AW4YieldTypes@@PAUlua_State@@H@Z PROC ; CvLuaArgs::toValue<enum YieldTypes>, COMDAT
; _L$ = ecx
; _idx$ = eax

; 12   : 		//This is pretty unsafe, but common.
; 13   : 		//Assume T is a poorly designed enum =(
; 14   : 		return (T)lua_tointeger(L, idx);

	push	eax
	push	ecx
	call	_lua_tointeger
	add	esp, 8

; 15   : 	}

	ret	0
??$toValue@W4YieldTypes@@@CvLuaArgs@@YA?AW4YieldTypes@@PAUlua_State@@H@Z ENDP ; CvLuaArgs::toValue<enum YieldTypes>
; Function compile flags: /Ogtpy
_TEXT	ENDS
;	COMDAT ??$pushValue@W4HandicapTypes@@@CvLuaArgs@@YAXPAUlua_State@@W4HandicapTypes@@@Z
_TEXT	SEGMENT
??$pushValue@W4HandicapTypes@@@CvLuaArgs@@YAXPAUlua_State@@W4HandicapTypes@@@Z PROC ; CvLuaArgs::pushValue<enum HandicapTypes>, COMDAT
; _L$ = ecx
; _t$ = eax

; 31   : 		//This is pretty unsafe, but common.
; 32   : 		//Assume T is a poorly designed enum =(
; 33   : 		lua_pushinteger(L, t);

	push	eax
	push	ecx
	call	_lua_pushinteger
	add	esp, 8

; 34   : 	}

	ret	0
??$pushValue@W4HandicapTypes@@@CvLuaArgs@@YAXPAUlua_State@@W4HandicapTypes@@@Z ENDP ; CvLuaArgs::pushValue<enum HandicapTypes>
; Function compile flags: /Ogtpy
_TEXT	ENDS
;	COMDAT ??$pushValue@W4CivilizationTypes@@@CvLuaArgs@@YAXPAUlua_State@@W4CivilizationTypes@@@Z
_TEXT	SEGMENT
??$pushValue@W4CivilizationTypes@@@CvLuaArgs@@YAXPAUlua_State@@W4CivilizationTypes@@@Z PROC ; CvLuaArgs::pushValue<enum CivilizationTypes>, COMDAT
; _L$ = ecx
; _t$ = eax

; 31   : 		//This is pretty unsafe, but common.
; 32   : 		//Assume T is a poorly designed enum =(
; 33   : 		lua_pushinteger(L, t);

	push	eax
	push	ecx
	call	_lua_pushinteger
	add	esp, 8

; 34   : 	}

	ret	0
??$pushValue@W4CivilizationTypes@@@CvLuaArgs@@YAXPAUlua_State@@W4CivilizationTypes@@@Z ENDP ; CvLuaArgs::pushValue<enum CivilizationTypes>
; Function compile flags: /Ogtpy
_TEXT	ENDS
;	COMDAT ??$toValue@W4TeamTypes@@@CvLuaArgs@@YA?AW4TeamTypes@@PAUlua_State@@H@Z
_TEXT	SEGMENT
??$toValue@W4TeamTypes@@@CvLuaArgs@@YA?AW4TeamTypes@@PAUlua_State@@H@Z PROC ; CvLuaArgs::toValue<enum TeamTypes>, COMDAT
; _L$ = ecx
; _idx$ = eax

; 12   : 		//This is pretty unsafe, but common.
; 13   : 		//Assume T is a poorly designed enum =(
; 14   : 		return (T)lua_tointeger(L, idx);

	push	eax
	push	ecx
	call	_lua_tointeger
	add	esp, 8

; 15   : 	}

	ret	0
??$toValue@W4TeamTypes@@@CvLuaArgs@@YA?AW4TeamTypes@@PAUlua_State@@H@Z ENDP ; CvLuaArgs::toValue<enum TeamTypes>
; Function compile flags: /Ogtpy
_TEXT	ENDS
;	COMDAT ??$pushValue@J@CvLuaArgs@@YAXPAUlua_State@@J@Z
_TEXT	SEGMENT
??$pushValue@J@CvLuaArgs@@YAXPAUlua_State@@J@Z PROC	; CvLuaArgs::pushValue<long>, COMDAT
; _L$ = ecx
; _t$ = eax

; 31   : 		//This is pretty unsafe, but common.
; 32   : 		//Assume T is a poorly designed enum =(
; 33   : 		lua_pushinteger(L, t);

	push	eax
	push	ecx
	call	_lua_pushinteger
	add	esp, 8

; 34   : 	}

	ret	0
??$pushValue@J@CvLuaArgs@@YAXPAUlua_State@@J@Z ENDP	; CvLuaArgs::pushValue<long>
; Function compile flags: /Ogtpy
_TEXT	ENDS
;	COMDAT ??$pushValue@W4PlayerTypes@@@CvLuaArgs@@YAXPAUlua_State@@W4PlayerTypes@@@Z
_TEXT	SEGMENT
??$pushValue@W4PlayerTypes@@@CvLuaArgs@@YAXPAUlua_State@@W4PlayerTypes@@@Z PROC ; CvLuaArgs::pushValue<enum PlayerTypes>, COMDAT
; _L$ = ecx
; _t$ = eax

; 31   : 		//This is pretty unsafe, but common.
; 32   : 		//Assume T is a poorly designed enum =(
; 33   : 		lua_pushinteger(L, t);

	push	eax
	push	ecx
	call	_lua_pushinteger
	add	esp, 8

; 34   : 	}

	ret	0
??$pushValue@W4PlayerTypes@@@CvLuaArgs@@YAXPAUlua_State@@W4PlayerTypes@@@Z ENDP ; CvLuaArgs::pushValue<enum PlayerTypes>
; Function compile flags: /Ogtpy
_TEXT	ENDS
;	COMDAT ??$pushValue@W4TeamTypes@@@CvLuaArgs@@YAXPAUlua_State@@W4TeamTypes@@@Z
_TEXT	SEGMENT
??$pushValue@W4TeamTypes@@@CvLuaArgs@@YAXPAUlua_State@@W4TeamTypes@@@Z PROC ; CvLuaArgs::pushValue<enum TeamTypes>, COMDAT
; _L$ = ecx
; _t$ = eax

; 31   : 		//This is pretty unsafe, but common.
; 32   : 		//Assume T is a poorly designed enum =(
; 33   : 		lua_pushinteger(L, t);

	push	eax
	push	ecx
	call	_lua_pushinteger
	add	esp, 8

; 34   : 	}

	ret	0
??$pushValue@W4TeamTypes@@@CvLuaArgs@@YAXPAUlua_State@@W4TeamTypes@@@Z ENDP ; CvLuaArgs::pushValue<enum TeamTypes>
; Function compile flags: /Ogtpy
_TEXT	ENDS
;	COMDAT ??$toValue@W4DomainTypes@@@CvLuaArgs@@YA?AW4DomainTypes@@PAUlua_State@@H@Z
_TEXT	SEGMENT
??$toValue@W4DomainTypes@@@CvLuaArgs@@YA?AW4DomainTypes@@PAUlua_State@@H@Z PROC ; CvLuaArgs::toValue<enum DomainTypes>, COMDAT
; _L$ = ecx
; _idx$ = eax

; 12   : 		//This is pretty unsafe, but common.
; 13   : 		//Assume T is a poorly designed enum =(
; 14   : 		return (T)lua_tointeger(L, idx);

	push	eax
	push	ecx
	call	_lua_tointeger
	add	esp, 8

; 15   : 	}

	ret	0
??$toValue@W4DomainTypes@@@CvLuaArgs@@YA?AW4DomainTypes@@PAUlua_State@@H@Z ENDP ; CvLuaArgs::toValue<enum DomainTypes>
; Function compile flags: /Ogtpy
_TEXT	ENDS
;	COMDAT ??$toValue@W4PlayerTypes@@@CvLuaArgs@@YA?AW4PlayerTypes@@PAUlua_State@@H@Z
_TEXT	SEGMENT
??$toValue@W4PlayerTypes@@@CvLuaArgs@@YA?AW4PlayerTypes@@PAUlua_State@@H@Z PROC ; CvLuaArgs::toValue<enum PlayerTypes>, COMDAT
; _L$ = ecx
; _idx$ = eax

; 12   : 		//This is pretty unsafe, but common.
; 13   : 		//Assume T is a poorly designed enum =(
; 14   : 		return (T)lua_tointeger(L, idx);

	push	eax
	push	ecx
	call	_lua_tointeger
	add	esp, 8

; 15   : 	}

	ret	0
??$toValue@W4PlayerTypes@@@CvLuaArgs@@YA?AW4PlayerTypes@@PAUlua_State@@H@Z ENDP ; CvLuaArgs::toValue<enum PlayerTypes>
; Function compile flags: /Ogtpy
_TEXT	ENDS
;	COMDAT ??$toValue@W4UnitCombatTypes@@@CvLuaArgs@@YA?AW4UnitCombatTypes@@PAUlua_State@@H@Z
_TEXT	SEGMENT
??$toValue@W4UnitCombatTypes@@@CvLuaArgs@@YA?AW4UnitCombatTypes@@PAUlua_State@@H@Z PROC ; CvLuaArgs::toValue<enum UnitCombatTypes>, COMDAT
; _L$ = ecx
; _idx$ = eax

; 12   : 		//This is pretty unsafe, but common.
; 13   : 		//Assume T is a poorly designed enum =(
; 14   : 		return (T)lua_tointeger(L, idx);

	push	eax
	push	ecx
	call	_lua_tointeger
	add	esp, 8

; 15   : 	}

	ret	0
??$toValue@W4UnitCombatTypes@@@CvLuaArgs@@YA?AW4UnitCombatTypes@@PAUlua_State@@H@Z ENDP ; CvLuaArgs::toValue<enum UnitCombatTypes>
; Function compile flags: /Ogtpy
_TEXT	ENDS
;	COMDAT ??$toValue@W4PromotionTypes@@@CvLuaArgs@@YA?AW4PromotionTypes@@PAUlua_State@@H@Z
_TEXT	SEGMENT
??$toValue@W4PromotionTypes@@@CvLuaArgs@@YA?AW4PromotionTypes@@PAUlua_State@@H@Z PROC ; CvLuaArgs::toValue<enum PromotionTypes>, COMDAT
; _L$ = ecx
; _idx$ = eax

; 12   : 		//This is pretty unsafe, but common.
; 13   : 		//Assume T is a poorly designed enum =(
; 14   : 		return (T)lua_tointeger(L, idx);

	push	eax
	push	ecx
	call	_lua_tointeger
	add	esp, 8

; 15   : 	}

	ret	0
??$toValue@W4PromotionTypes@@@CvLuaArgs@@YA?AW4PromotionTypes@@PAUlua_State@@H@Z ENDP ; CvLuaArgs::toValue<enum PromotionTypes>
_TEXT	ENDS
PUBLIC	??0CvString@@QAE@XZ				; CvString::CvString
EXTRN	__imp_??0?$basic_string@DU?$char_traits@D@std@@V?$allocator@D@2@@std@@QAE@XZ:PROC
; Function compile flags: /Ogtpy
; File s:\lekmod_dll\cvgamecoredllutil\include\cvstring.h
;	COMDAT ??0CvString@@QAE@XZ
_TEXT	SEGMENT
??0CvString@@QAE@XZ PROC				; CvString::CvString, COMDAT
; _this$ = ecx

; 23   : 	CvString() {}

	push	esi
	mov	esi, ecx
	call	DWORD PTR __imp_??0?$basic_string@DU?$char_traits@D@std@@V?$allocator@D@2@@std@@QAE@XZ
	mov	eax, esi
	pop	esi
	ret	0
??0CvString@@QAE@XZ ENDP				; CvString::CvString
_TEXT	ENDS
PUBLIC	??1CvString@@QAE@XZ				; CvString::~CvString
; Function compile flags: /Ogtpy
;	COMDAT ??1CvString@@QAE@XZ
_TEXT	SEGMENT
??1CvString@@QAE@XZ PROC				; CvString::~CvString, COMDAT
; _this$ = ecx

; 28   : 	~CvString() {}

	jmp	DWORD PTR __imp_??1?$basic_string@DU?$char_traits@D@std@@V?$allocator@D@2@@std@@QAE@XZ
??1CvString@@QAE@XZ ENDP				; CvString::~CvString
_TEXT	ENDS
PUBLIC	??BCvString@@QBEPBDXZ				; CvString::operator char const *
; Function compile flags: /Ogtpy
;	COMDAT ??BCvString@@QBEPBDXZ
_TEXT	SEGMENT
??BCvString@@QBEPBDXZ PROC				; CvString::operator char const *, COMDAT
; _this$ = ecx

; 31   : 	operator const char*() const 	{ return c_str(); }												

	jmp	DWORD PTR __imp_?c_str@?$basic_string@DU?$char_traits@D@std@@V?$allocator@D@2@@std@@QBEPBDXZ
??BCvString@@QBEPBDXZ ENDP				; CvString::operator char const *
_TEXT	ENDS
PUBLIC	?IsEmpty@CvString@@QBE_NXZ			; CvString::IsEmpty
EXTRN	__imp_?empty@?$basic_string@DU?$char_traits@D@std@@V?$allocator@D@2@@std@@QBE_NXZ:PROC
; Function compile flags: /Ogtpy
;	COMDAT ?IsEmpty@CvString@@QBE_NXZ
_TEXT	SEGMENT
?IsEmpty@CvString@@QBE_NXZ PROC				; CvString::IsEmpty, COMDAT
; _this$ = ecx

; 41   : 	bool IsEmpty() const { return (empty() || this[0] == '\0');}

	push	esi
	mov	esi, ecx
	call	DWORD PTR __imp_?empty@?$basic_string@DU?$char_traits@D@std@@V?$allocator@D@2@@std@@QBE_NXZ
	test	al, al
	jne	SHORT $LN3@IsEmpty
	mov	ecx, esi
	call	DWORD PTR __imp_?c_str@?$basic_string@DU?$char_traits@D@std@@V?$allocator@D@2@@std@@QBEPBDXZ
	test	eax, eax
	je	SHORT $LN3@IsEmpty
	xor	eax, eax
	pop	esi
	ret	0
$LN3@IsEmpty:
	mov	eax, 1
	pop	esi
	ret	0
?IsEmpty@CvString@@QBE_NXZ ENDP				; CvString::IsEmpty
_TEXT	ENDS
PUBLIC	??0OrderData@@QAE@XZ				; OrderData::OrderData
; Function compile flags: /Ogtpy
; File s:\lekmod_dll\cvgamecoredll_expansion2\cvstructs.h
;	COMDAT ??0OrderData@@QAE@XZ
_TEXT	SEGMENT
??0OrderData@@QAE@XZ PROC				; OrderData::OrderData, COMDAT
; _this$ = ecx

; 27   : 	{

	mov	eax, ecx
	xor	ecx, ecx
	mov	DWORD PTR [eax], -1
	mov	DWORD PTR [eax+4], ecx
	mov	DWORD PTR [eax+8], ecx
	mov	BYTE PTR [eax+12], cl
	mov	BYTE PTR [eax+13], cl

; 28   : 	}

	ret	0
??0OrderData@@QAE@XZ ENDP				; OrderData::OrderData
_TEXT	ENDS
PUBLIC	?getMap@CvGlobals@@QAEAAVCvMap@@XZ		; CvGlobals::getMap
; Function compile flags: /Ogtpy
; File s:\lekmod_dll\cvgamecoredll_expansion2\cvglobals.h
;	COMDAT ?getMap@CvGlobals@@QAEAAVCvMap@@XZ
_TEXT	SEGMENT
?getMap@CvGlobals@@QAEAAVCvMap@@XZ PROC			; CvGlobals::getMap, COMDAT
; _this$ = ecx

; 175  : 		return *m_map;    // inlined for perf reasons, do not use outside of dll

	mov	eax, DWORD PTR [ecx+52]

; 176  : 	}

	ret	0
?getMap@CvGlobals@@QAEAAVCvMap@@XZ ENDP			; CvGlobals::getMap
_TEXT	ENDS
PUBLIC	?getGame@CvGlobals@@QAEAAVCvGame@@XZ		; CvGlobals::getGame
; Function compile flags: /Ogtpy
;	COMDAT ?getGame@CvGlobals@@QAEAAVCvGame@@XZ
_TEXT	SEGMENT
?getGame@CvGlobals@@QAEAAVCvGame@@XZ PROC		; CvGlobals::getGame, COMDAT
; _this$ = ecx

; 183  : 		return *m_game;    // inlined for perf reasons, do not use outside of dll

	mov	eax, DWORD PTR [ecx+48]

; 184  : 	}

	ret	0
?getGame@CvGlobals@@QAEAAVCvGame@@XZ ENDP		; CvGlobals::getGame
_TEXT	ENDS
PUBLIC	?getSPACE_RACE_TRIGGER_PROJECT@CvGlobals@@QAEHXZ ; CvGlobals::getSPACE_RACE_TRIGGER_PROJECT
; Function compile flags: /Ogtpy
;	COMDAT ?getSPACE_RACE_TRIGGER_PROJECT@CvGlobals@@QAEHXZ
_TEXT	SEGMENT
?getSPACE_RACE_TRIGGER_PROJECT@CvGlobals@@QAEHXZ PROC	; CvGlobals::getSPACE_RACE_TRIGGER_PROJECT, COMDAT
; _this$ = ecx

; 7207 : 		return m_iSPACE_RACE_TRIGGER_PROJECT;

	mov	eax, DWORD PTR [ecx+8424]

; 7208 : 	}

	ret	0
?getSPACE_RACE_TRIGGER_PROJECT@CvGlobals@@QAEHXZ ENDP	; CvGlobals::getSPACE_RACE_TRIGGER_PROJECT
_TEXT	ENDS
PUBLIC	??4CvString@@QAEAAV0@ABV0@@Z			; CvString::operator=
EXTRN	__imp_??4?$basic_string@DU?$char_traits@D@std@@V?$allocator@D@2@@std@@QAEAAV01@ABV01@@Z:PROC
; Function compile flags: /Ogtpy
;	COMDAT ??4CvString@@QAEAAV0@ABV0@@Z
_TEXT	SEGMENT
___that$ = 8						; size = 4
??4CvString@@QAEAAV0@ABV0@@Z PROC			; CvString::operator=, COMDAT
; _this$ = ecx
	mov	eax, DWORD PTR ___that$[esp-4]
	push	esi
	push	eax
	mov	esi, ecx
	call	DWORD PTR __imp_??4?$basic_string@DU?$char_traits@D@std@@V?$allocator@D@2@@std@@QAEAAV01@ABV01@@Z
	mov	eax, esi
	pop	esi
	ret	4
??4CvString@@QAEAAV0@ABV0@@Z ENDP			; CvString::operator=
_TEXT	ENDS
PUBLIC	?getPlayer@CvPlayerAI@@SAAAV1@W4PlayerTypes@@@Z	; CvPlayerAI::getPlayer
EXTRN	?m_aPlayers@CvPlayerAI@@1PAV1@A:DWORD		; CvPlayerAI::m_aPlayers
; Function compile flags: /Ogtpy
; File s:\lekmod_dll\cvgamecoredll_expansion2\cvplayerai.h
;	COMDAT ?getPlayer@CvPlayerAI@@SAAAV1@W4PlayerTypes@@@Z
_TEXT	SEGMENT
_ePlayer$ = 8						; size = 4
?getPlayer@CvPlayerAI@@SAAAV1@W4PlayerTypes@@@Z PROC	; CvPlayerAI::getPlayer, COMDAT

; 28   : 		CvAssertMsg(ePlayer != NO_PLAYER, "Player is not assigned a valid value");
; 29   : 		CvAssertMsg(ePlayer < MAX_PLAYERS, "Player is not assigned a valid value");
; 30   : 		return m_aPlayers[ePlayer];

	mov	eax, DWORD PTR _ePlayer$[esp-4]
	imul	eax, 63236				; 0000f704H
	add	eax, DWORD PTR ?m_aPlayers@CvPlayerAI@@1PAV1@A ; CvPlayerAI::m_aPlayers

; 31   : 	}

	ret	0
?getPlayer@CvPlayerAI@@SAAAV1@W4PlayerTypes@@@Z ENDP	; CvPlayerAI::getPlayer
_TEXT	ENDS
PUBLIC	?getX@CvPlot@@QBEHXZ				; CvPlot::getX
; Function compile flags: /Ogtpy
; File s:\lekmod_dll\cvgamecoredll_expansion2\cvplot.h
;	COMDAT ?getX@CvPlot@@QBEHXZ
_TEXT	SEGMENT
?getX@CvPlot@@QBEHXZ PROC				; CvPlot::getX, COMDAT
; _this$ = ecx

; 307  : 		return m_iX;

	movsx	eax, WORD PTR [ecx]

; 308  : 	}

	ret	0
?getX@CvPlot@@QBEHXZ ENDP				; CvPlot::getX
_TEXT	ENDS
PUBLIC	?getY@CvPlot@@QBEHXZ				; CvPlot::getY
; Function compile flags: /Ogtpy
;	COMDAT ?getY@CvPlot@@QBEHXZ
_TEXT	SEGMENT
?getY@CvPlot@@QBEHXZ PROC				; CvPlot::getY, COMDAT
; _this$ = ecx

; 312  : 		return m_iY;

	movsx	eax, WORD PTR [ecx+2]

; 313  : 	}

	ret	0
?getY@CvPlot@@QBEHXZ ENDP				; CvPlot::getY
_TEXT	ENDS
PUBLIC	?numPlots@CvMap@@QBEHXZ				; CvMap::numPlots
; Function compile flags: /Ogtpy
; File s:\lekmod_dll\cvgamecoredll_expansion2\cvmap.h
;	COMDAT ?numPlots@CvMap@@QBEHXZ
_TEXT	SEGMENT
?numPlots@CvMap@@QBEHXZ PROC				; CvMap::numPlots, COMDAT
; _this$ = ecx

; 170  : 		return m_iGridSize;

	mov	eax, DWORD PTR [ecx+4028]

; 171  : 	}

	ret	0
?numPlots@CvMap@@QBEHXZ ENDP				; CvMap::numPlots
_TEXT	ENDS
PUBLIC	?plotByIndex@CvMap@@QBEPAVCvPlot@@H@Z		; CvMap::plotByIndex
; Function compile flags: /Ogtpy
;	COMDAT ?plotByIndex@CvMap@@QBEPAVCvPlot@@H@Z
_TEXT	SEGMENT
_iIndex$ = 8						; size = 4
?plotByIndex@CvMap@@QBEPAVCvPlot@@H@Z PROC		; CvMap::plotByIndex, COMDAT
; _this$ = ecx

; 263  : 		return (((iIndex >= 0) && (iIndex < (numPlots()))) ? &(m_pMapPlots[iIndex]) : NULL);

	mov	eax, DWORD PTR _iIndex$[esp-4]
	test	eax, eax
	jl	SHORT $LN3@plotByInde
	cmp	eax, DWORD PTR [ecx+4028]
	jge	SHORT $LN3@plotByInde
	imul	eax, 484				; 000001e4H
	add	eax, DWORD PTR [ecx+4068]

; 264  : 	}

	ret	4
$LN3@plotByInde:

; 263  : 		return (((iIndex >= 0) && (iIndex < (numPlots()))) ? &(m_pMapPlots[iIndex]) : NULL);

	xor	eax, eax

; 264  : 	}

	ret	4
?plotByIndex@CvMap@@QBEPAVCvPlot@@H@Z ENDP		; CvMap::plotByIndex
_TEXT	ENDS
PUBLIC	?GetCityRangeStrikeModifier@CvReligionBeliefs@@QBEHXZ ; CvReligionBeliefs::GetCityRangeStrikeModifier
; Function compile flags: /Ogtpy
; File s:\lekmod_dll\cvgamecoredll_expansion2\cvbeliefclasses.h
;	COMDAT ?GetCityRangeStrikeModifier@CvReligionBeliefs@@QBEHXZ
_TEXT	SEGMENT
?GetCityRangeStrikeModifier@CvReligionBeliefs@@QBEHXZ PROC ; CvReligionBeliefs::GetCityRangeStrikeModifier, COMDAT
; _this$ = ecx

; 345  : 		return m_iCityRangeStrikeModifier;

	mov	eax, DWORD PTR [ecx+12]

; 346  : 	};

	ret	0
?GetCityRangeStrikeModifier@CvReligionBeliefs@@QBEHXZ ENDP ; CvReligionBeliefs::GetCityRangeStrikeModifier
_TEXT	ENDS
PUBLIC	?GetFaithBuildingTourism@CvReligionBeliefs@@QBEHXZ ; CvReligionBeliefs::GetFaithBuildingTourism
; Function compile flags: /Ogtpy
;	COMDAT ?GetFaithBuildingTourism@CvReligionBeliefs@@QBEHXZ
_TEXT	SEGMENT
?GetFaithBuildingTourism@CvReligionBeliefs@@QBEHXZ PROC	; CvReligionBeliefs::GetFaithBuildingTourism, COMDAT
; _this$ = ecx

; 467  : 		return m_iFaithBuildingTourism;

	mov	eax, DWORD PTR [ecx+120]

; 468  : 	}

	ret	0
?GetFaithBuildingTourism@CvReligionBeliefs@@QBEHXZ ENDP	; CvReligionBeliefs::GetFaithBuildingTourism
_TEXT	ENDS
PUBLIC	?size@?$vector@HV?$allocator@H@std@@@std@@QBEIXZ ; std::vector<int,std::allocator<int> >::size
; Function compile flags: /Ogtpy
; File s:\msvs2008\vc\include\vector
;	COMDAT ?size@?$vector@HV?$allocator@H@std@@@std@@QBEIXZ
_TEXT	SEGMENT
?size@?$vector@HV?$allocator@H@std@@@std@@QBEIXZ PROC	; std::vector<int,std::allocator<int> >::size, COMDAT
; _this$ = ecx

; 726  : 		return (_Mylast - _Myfirst);

	mov	eax, DWORD PTR [ecx+8]
	sub	eax, DWORD PTR [ecx+4]
	sar	eax, 2

; 727  : 		}

	ret	0
?size@?$vector@HV?$allocator@H@std@@@std@@QBEIXZ ENDP	; std::vector<int,std::allocator<int> >::size
_TEXT	ENDS
PUBLIC	??1?$_Container_base_aux_alloc_empty@V?$allocator@H@std@@@std@@IAE@XZ ; std::_Container_base_aux_alloc_empty<std::allocator<int> >::~_Container_base_aux_alloc_empty<std::allocator<int> >
; Function compile flags: /Ogtpy
; File s:\msvs2008\vc\include\xutility
;	COMDAT ??1?$_Container_base_aux_alloc_empty@V?$allocator@H@std@@@std@@IAE@XZ
_TEXT	SEGMENT
??1?$_Container_base_aux_alloc_empty@V?$allocator@H@std@@@std@@IAE@XZ PROC ; std::_Container_base_aux_alloc_empty<std::allocator<int> >::~_Container_base_aux_alloc_empty<std::allocator<int> >, COMDAT
; _this$ = ecx

; 627  : 	~_Container_base_aux_alloc_empty() { }

	ret	0
??1?$_Container_base_aux_alloc_empty@V?$allocator@H@std@@@std@@IAE@XZ ENDP ; std::_Container_base_aux_alloc_empty<std::allocator<int> >::~_Container_base_aux_alloc_empty<std::allocator<int> >
_TEXT	ENDS
PUBLIC	??0?$allocator@H@std@@QAE@XZ			; std::allocator<int>::allocator<int>
; Function compile flags: /Ogtpy
; File s:\msvs2008\vc\include\xmemory
;	COMDAT ??0?$allocator@H@std@@QAE@XZ
_TEXT	SEGMENT
??0?$allocator@H@std@@QAE@XZ PROC			; std::allocator<int>::allocator<int>, COMDAT
; _this$ = ecx

; 119  : 	allocator() _THROW0()

	mov	eax, ecx

; 120  : 		{	// construct default allocator (do nothing)
; 121  : 		}

	ret	0
??0?$allocator@H@std@@QAE@XZ ENDP			; std::allocator<int>::allocator<int>
_TEXT	ENDS
PUBLIC	__TI3?AVlength_error@std@@
PUBLIC	??_C@_0BD@OLBABOEK@vector?$DMT?$DO?5too?5long?$AA@ ; `string'
PUBLIC	?_Xlen@?$vector@HV?$allocator@H@std@@@std@@KAXXZ ; std::vector<int,std::allocator<int> >::_Xlen
PUBLIC	__CTA3?AVlength_error@std@@
PUBLIC	__CT??_R0?AVlength_error@std@@@8??0length_error@std@@QAE@ABV01@@Z40
PUBLIC	??0length_error@std@@QAE@ABV01@@Z		; std::length_error::length_error
PUBLIC	__CT??_R0?AVlogic_error@std@@@8??0logic_error@std@@QAE@ABV01@@Z40
PUBLIC	??0logic_error@std@@QAE@ABV01@@Z		; std::logic_error::logic_error
PUBLIC	__CT??_R0?AVexception@std@@@8??0exception@std@@QAE@ABV01@@Z12
EXTRN	__imp_??0?$basic_string@DU?$char_traits@D@std@@V?$allocator@D@2@@std@@QAE@PBD@Z:PROC
EXTRN	__CxxThrowException@8:PROC
EXTRN	??0exception@std@@QAE@ABV01@@Z:PROC		; std::exception::exception
;	COMDAT __CT??_R0?AVexception@std@@@8??0exception@std@@QAE@ABV01@@Z12
; File s:\msvs2008\vc\include\stdexcept
xdata$x	SEGMENT
__CT??_R0?AVexception@std@@@8??0exception@std@@QAE@ABV01@@Z12 DD 00H
	DD	FLAT:??_R0?AVexception@std@@@8
	DD	00H
	DD	0ffffffffH
	ORG $+4
	DD	0cH
	DD	FLAT:??0exception@std@@QAE@ABV01@@Z
xdata$x	ENDS
;	COMDAT __CT??_R0?AVlogic_error@std@@@8??0logic_error@std@@QAE@ABV01@@Z40
xdata$x	SEGMENT
__CT??_R0?AVlogic_error@std@@@8??0logic_error@std@@QAE@ABV01@@Z40 DD 00H
	DD	FLAT:??_R0?AVlogic_error@std@@@8
	DD	00H
	DD	0ffffffffH
	ORG $+4
	DD	028H
	DD	FLAT:??0logic_error@std@@QAE@ABV01@@Z
xdata$x	ENDS
;	COMDAT __CT??_R0?AVlength_error@std@@@8??0length_error@std@@QAE@ABV01@@Z40
xdata$x	SEGMENT
__CT??_R0?AVlength_error@std@@@8??0length_error@std@@QAE@ABV01@@Z40 DD 00H
	DD	FLAT:??_R0?AVlength_error@std@@@8
	DD	00H
	DD	0ffffffffH
	ORG $+4
	DD	028H
	DD	FLAT:??0length_error@std@@QAE@ABV01@@Z
xdata$x	ENDS
;	COMDAT __CTA3?AVlength_error@std@@
xdata$x	SEGMENT
__CTA3?AVlength_error@std@@ DD 03H
	DD	FLAT:__CT??_R0?AVlength_error@std@@@8??0length_error@std@@QAE@ABV01@@Z40
	DD	FLAT:__CT??_R0?AVlogic_error@std@@@8??0logic_error@std@@QAE@ABV01@@Z40
	DD	FLAT:__CT??_R0?AVexception@std@@@8??0exception@std@@QAE@ABV01@@Z12
xdata$x	ENDS
;	COMDAT __TI3?AVlength_error@std@@
xdata$x	SEGMENT
__TI3?AVlength_error@std@@ DD 00H
	DD	FLAT:??1length_error@std@@UAE@XZ
	DD	00H
	DD	FLAT:__CTA3?AVlength_error@std@@
xdata$x	ENDS
;	COMDAT ??_C@_0BD@OLBABOEK@vector?$DMT?$DO?5too?5long?$AA@
CONST	SEGMENT
??_C@_0BD@OLBABOEK@vector?$DMT?$DO?5too?5long?$AA@ DB 'vector<T> too long'
	DB	00H						; `string'
CONST	ENDS
;	COMDAT xdata$x
xdata$x	SEGMENT
__unwindtable$?_Xlen@?$vector@HV?$allocator@H@std@@@std@@KAXXZ DD 0ffffffffH
	DD	FLAT:__unwindfunclet$?_Xlen@?$vector@HV?$allocator@H@std@@@std@@KAXXZ$0
	DD	00H
	DD	FLAT:__unwindfunclet$?_Xlen@?$vector@HV?$allocator@H@std@@@std@@KAXXZ$2
__ehfuncinfo$?_Xlen@?$vector@HV?$allocator@H@std@@@std@@KAXXZ DD 019930522H
	DD	02H
	DD	FLAT:__unwindtable$?_Xlen@?$vector@HV?$allocator@H@std@@@std@@KAXXZ
	DD	2 DUP(00H)
	DD	2 DUP(00H)
	DD	00H
	DD	01H
; Function compile flags: /Ogtpy
; File s:\msvs2008\vc\include\vector
xdata$x	ENDS
;	COMDAT ?_Xlen@?$vector@HV?$allocator@H@std@@@std@@KAXXZ
_TEXT	SEGMENT
$T225257 = -80						; size = 28
$T225256 = -52						; size = 40
__$EHRec$ = -12						; size = 12
?_Xlen@?$vector@HV?$allocator@H@std@@@std@@KAXXZ PROC	; std::vector<int,std::allocator<int> >::_Xlen, COMDAT

; 1259 : 		{	// report a length_error

	push	-1
	push	__ehhandler$?_Xlen@?$vector@HV?$allocator@H@std@@@std@@KAXXZ
	mov	eax, DWORD PTR fs:0
	push	eax
	mov	DWORD PTR fs:0, esp
	sub	esp, 68					; 00000044H

; 1260 : 		_THROW(length_error, "vector<T> too long");

	push	OFFSET ??_C@_0BD@OLBABOEK@vector?$DMT?$DO?5too?5long?$AA@
	lea	ecx, DWORD PTR $T225257[esp+84]
	call	DWORD PTR __imp_??0?$basic_string@DU?$char_traits@D@std@@V?$allocator@D@2@@std@@QAE@PBD@Z
	lea	ecx, DWORD PTR $T225256[esp+80]
	mov	DWORD PTR __$EHRec$[esp+88], 0
	call	DWORD PTR __imp_??0exception@std@@QAE@XZ
	lea	eax, DWORD PTR $T225257[esp+80]
	push	eax
	lea	ecx, DWORD PTR $T225256[esp+96]
	mov	BYTE PTR __$EHRec$[esp+92], 1
	mov	DWORD PTR $T225256[esp+84], OFFSET ??_7logic_error@std@@6B@
	call	DWORD PTR __imp_??0?$basic_string@DU?$char_traits@D@std@@V?$allocator@D@2@@std@@QAE@ABV01@@Z
	push	OFFSET __TI3?AVlength_error@std@@
	lea	ecx, DWORD PTR $T225256[esp+84]
	push	ecx
	mov	BYTE PTR __$EHRec$[esp+96], 0
	mov	DWORD PTR $T225256[esp+88], OFFSET ??_7length_error@std@@6B@
	call	__CxxThrowException@8
$LN13@Xlen:
$LN12@Xlen:
	int	3
_TEXT	ENDS
;	COMDAT text$x
text$x	SEGMENT
__unwindfunclet$?_Xlen@?$vector@HV?$allocator@H@std@@@std@@KAXXZ$0:
	lea	ecx, DWORD PTR $T225257[ebp]
	jmp	DWORD PTR __imp_??1?$basic_string@DU?$char_traits@D@std@@V?$allocator@D@2@@std@@QAE@XZ
__unwindfunclet$?_Xlen@?$vector@HV?$allocator@H@std@@@std@@KAXXZ$2:
	lea	ecx, DWORD PTR $T225256[ebp]
	jmp	DWORD PTR __imp_??1exception@std@@UAE@XZ
__ehhandler$?_Xlen@?$vector@HV?$allocator@H@std@@@std@@KAXXZ:
	mov	eax, OFFSET __ehfuncinfo$?_Xlen@?$vector@HV?$allocator@H@std@@@std@@KAXXZ
	jmp	___CxxFrameHandler3
text$x	ENDS
?_Xlen@?$vector@HV?$allocator@H@std@@@std@@KAXXZ ENDP	; std::vector<int,std::allocator<int> >::_Xlen
EXTRN	__imp_??0exception@std@@QAE@ABV01@@Z:PROC
;	COMDAT xdata$x
xdata$x	SEGMENT
__unwindtable$??0logic_error@std@@QAE@ABV01@@Z DD 0ffffffffH
	DD	FLAT:__unwindfunclet$??0logic_error@std@@QAE@ABV01@@Z$0
__ehfuncinfo$??0logic_error@std@@QAE@ABV01@@Z DD 019930522H
	DD	01H
	DD	FLAT:__unwindtable$??0logic_error@std@@QAE@ABV01@@Z
	DD	2 DUP(00H)
	DD	2 DUP(00H)
	DD	00H
	DD	01H
; Function compile flags: /Ogtpy
xdata$x	ENDS
;	COMDAT ??0logic_error@std@@QAE@ABV01@@Z
_TEXT	SEGMENT
_this$ = -16						; size = 4
__$EHRec$ = -12						; size = 12
___that$ = 8						; size = 4
??0logic_error@std@@QAE@ABV01@@Z PROC			; std::logic_error::logic_error, COMDAT
; _this$ = ecx
	push	-1
	push	__ehhandler$??0logic_error@std@@QAE@ABV01@@Z
	mov	eax, DWORD PTR fs:0
	push	eax
	mov	DWORD PTR fs:0, esp
	push	ecx
	push	esi
	push	edi
	mov	edi, DWORD PTR ___that$[esp+20]
	mov	esi, ecx
	push	edi
	mov	DWORD PTR _this$[esp+28], esi
	call	DWORD PTR __imp_??0exception@std@@QAE@ABV01@@Z
	add	edi, 12					; 0000000cH
	push	edi
	lea	ecx, DWORD PTR [esi+12]
	mov	DWORD PTR __$EHRec$[esp+36], 0
	mov	DWORD PTR [esi], OFFSET ??_7logic_error@std@@6B@
	call	DWORD PTR __imp_??0?$basic_string@DU?$char_traits@D@std@@V?$allocator@D@2@@std@@QAE@ABV01@@Z
	mov	ecx, DWORD PTR __$EHRec$[esp+24]
	pop	edi
	mov	eax, esi
	pop	esi
	mov	DWORD PTR fs:0, ecx
	add	esp, 16					; 00000010H
	ret	4
_TEXT	ENDS
;	COMDAT text$x
text$x	SEGMENT
__unwindfunclet$??0logic_error@std@@QAE@ABV01@@Z$0:
	mov	ecx, DWORD PTR _this$[ebp]
	jmp	DWORD PTR __imp_??1exception@std@@UAE@XZ
__ehhandler$??0logic_error@std@@QAE@ABV01@@Z:
	mov	eax, OFFSET __ehfuncinfo$??0logic_error@std@@QAE@ABV01@@Z
	jmp	___CxxFrameHandler3
text$x	ENDS
??0logic_error@std@@QAE@ABV01@@Z ENDP			; std::logic_error::logic_error
; Function compile flags: /Ogtpy
;	COMDAT ??0length_error@std@@QAE@ABV01@@Z
_TEXT	SEGMENT
___that$ = 8						; size = 4
??0length_error@std@@QAE@ABV01@@Z PROC			; std::length_error::length_error, COMDAT
; _this$ = ecx
	mov	eax, DWORD PTR ___that$[esp-4]
	push	esi
	push	eax
	mov	esi, ecx
	call	??0logic_error@std@@QAE@ABV01@@Z
	mov	DWORD PTR [esi], OFFSET ??_7length_error@std@@6B@
	mov	eax, esi
	pop	esi
	ret	4
??0length_error@std@@QAE@ABV01@@Z ENDP			; std::length_error::length_error
_TEXT	ENDS
PUBLIC	??0?$_Container_base_aux_alloc_empty@V?$allocator@H@std@@@std@@IAE@V?$allocator@H@1@@Z ; std::_Container_base_aux_alloc_empty<std::allocator<int> >::_Container_base_aux_alloc_empty<std::allocator<int> >
; Function compile flags: /Ogtpy
; File s:\msvs2008\vc\include\xutility
;	COMDAT ??0?$_Container_base_aux_alloc_empty@V?$allocator@H@std@@@std@@IAE@V?$allocator@H@1@@Z
_TEXT	SEGMENT
___formal$ = 8						; size = 1
??0?$_Container_base_aux_alloc_empty@V?$allocator@H@std@@@std@@IAE@V?$allocator@H@1@@Z PROC ; std::_Container_base_aux_alloc_empty<std::allocator<int> >::_Container_base_aux_alloc_empty<std::allocator<int> >, COMDAT
; _this$ = ecx

; 618  : 	explicit _Container_base_aux_alloc_empty(_Alloc) { }

	mov	eax, ecx
	ret	4
??0?$_Container_base_aux_alloc_empty@V?$allocator@H@std@@@std@@IAE@V?$allocator@H@1@@Z ENDP ; std::_Container_base_aux_alloc_empty<std::allocator<int> >::_Container_base_aux_alloc_empty<std::allocator<int> >
_TEXT	ENDS
PUBLIC	??0?$allocator@H@std@@QAE@ABV01@@Z		; std::allocator<int>::allocator<int>
; Function compile flags: /Ogtpy
; File s:\msvs2008\vc\include\xmemory
;	COMDAT ??0?$allocator@H@std@@QAE@ABV01@@Z
_TEXT	SEGMENT
___formal$ = 8						; size = 4
??0?$allocator@H@std@@QAE@ABV01@@Z PROC			; std::allocator<int>::allocator<int>, COMDAT
; _this$ = ecx

; 123  : 	allocator(const allocator<_Ty>&) _THROW0()

	mov	eax, ecx

; 124  : 		{	// construct by copying (do nothing)
; 125  : 		}

	ret	4
??0?$allocator@H@std@@QAE@ABV01@@Z ENDP			; std::allocator<int>::allocator<int>
_TEXT	ENDS
PUBLIC	?deallocate@?$allocator@H@std@@QAEXPAHI@Z	; std::allocator<int>::deallocate
; Function compile flags: /Ogtpy
;	COMDAT ?deallocate@?$allocator@H@std@@QAEXPAHI@Z
_TEXT	SEGMENT
__Ptr$ = 8						; size = 4
___formal$ = 12						; size = 4
?deallocate@?$allocator@H@std@@QAEXPAHI@Z PROC		; std::allocator<int>::deallocate, COMDAT
; _this$ = ecx

; 140  : 		::operator delete(_Ptr);

	mov	eax, DWORD PTR __Ptr$[esp-4]
	push	eax
	call	??3@YAXPAX@Z				; operator delete
	pop	ecx

; 141  : 		}

	ret	8
?deallocate@?$allocator@H@std@@QAEXPAHI@Z ENDP		; std::allocator<int>::deallocate
_TEXT	ENDS
PUBLIC	?max_size@?$allocator@H@std@@QBEIXZ		; std::allocator<int>::max_size
; Function compile flags: /Ogtpy
;	COMDAT ?max_size@?$allocator@H@std@@QBEIXZ
_TEXT	SEGMENT
?max_size@?$allocator@H@std@@QBEIXZ PROC		; std::allocator<int>::max_size, COMDAT
; _this$ = ecx

; 165  : 		_SIZT _Count = (_SIZT)(-1) / sizeof (_Ty);
; 166  : 		return (0 < _Count ? _Count : 1);

	mov	eax, 1073741823				; 3fffffffH

; 167  : 		}

	ret	0
?max_size@?$allocator@H@std@@QBEIXZ ENDP		; std::allocator<int>::max_size
_TEXT	ENDS
PUBLIC	??B?$FAutoVariable@W4PlayerTypes@@VCvCity@@@@QBEABW4PlayerTypes@@XZ ; FAutoVariable<enum PlayerTypes,CvCity>::operator enum PlayerTypes const &
; Function compile flags: /Ogtpy
; File s:\lekmod_dll\fireplace\include\fireworks\fautovariable.h
;	COMDAT ??B?$FAutoVariable@W4PlayerTypes@@VCvCity@@@@QBEABW4PlayerTypes@@XZ
_TEXT	SEGMENT
??B?$FAutoVariable@W4PlayerTypes@@VCvCity@@@@QBEABW4PlayerTypes@@XZ PROC ; FAutoVariable<enum PlayerTypes,CvCity>::operator enum PlayerTypes const &, COMDAT
; _this$ = ecx

; 194  : 	return m_value;

	lea	eax, DWORD PTR [ecx+4]

; 195  : }

	ret	0
??B?$FAutoVariable@W4PlayerTypes@@VCvCity@@@@QBEABW4PlayerTypes@@XZ ENDP ; FAutoVariable<enum PlayerTypes,CvCity>::operator enum PlayerTypes const &
_TEXT	ENDS
PUBLIC	??B?$FAutoVariable@HVCvCity@@@@QBEABHXZ		; FAutoVariable<int,CvCity>::operator int const &
; Function compile flags: /Ogtpy
;	COMDAT ??B?$FAutoVariable@HVCvCity@@@@QBEABHXZ
_TEXT	SEGMENT
??B?$FAutoVariable@HVCvCity@@@@QBEABHXZ PROC		; FAutoVariable<int,CvCity>::operator int const &, COMDAT
; _this$ = ecx

; 194  : 	return m_value;

	lea	eax, DWORD PTR [ecx+4]

; 195  : }

	ret	0
??B?$FAutoVariable@HVCvCity@@@@QBEABHXZ ENDP		; FAutoVariable<int,CvCity>::operator int const &
_TEXT	ENDS
PUBLIC	__TI2?AVbad_alloc@std@@
PUBLIC	??$_Allocate@H@std@@YAPAHIPAH@Z			; std::_Allocate<int>
PUBLIC	__CTA2?AVbad_alloc@std@@
PUBLIC	__CT??_R0?AVbad_alloc@std@@@8??0bad_alloc@std@@QAE@ABV01@@Z12
PUBLIC	??0bad_alloc@std@@QAE@ABV01@@Z			; std::bad_alloc::bad_alloc
EXTRN	??2@YAPAXI@Z:PROC				; operator new
;	COMDAT __CT??_R0?AVbad_alloc@std@@@8??0bad_alloc@std@@QAE@ABV01@@Z12
; File s:\msvs2008\vc\include\exception
xdata$x	SEGMENT
__CT??_R0?AVbad_alloc@std@@@8??0bad_alloc@std@@QAE@ABV01@@Z12 DD 00H
	DD	FLAT:??_R0?AVbad_alloc@std@@@8
	DD	00H
	DD	0ffffffffH
	ORG $+4
	DD	0cH
	DD	FLAT:??0bad_alloc@std@@QAE@ABV01@@Z
xdata$x	ENDS
;	COMDAT __CTA2?AVbad_alloc@std@@
xdata$x	SEGMENT
__CTA2?AVbad_alloc@std@@ DD 02H
	DD	FLAT:__CT??_R0?AVbad_alloc@std@@@8??0bad_alloc@std@@QAE@ABV01@@Z12
	DD	FLAT:__CT??_R0?AVexception@std@@@8??0exception@std@@QAE@ABV01@@Z12
xdata$x	ENDS
;	COMDAT __TI2?AVbad_alloc@std@@
xdata$x	SEGMENT
__TI2?AVbad_alloc@std@@ DD 00H
	DD	FLAT:??1bad_alloc@std@@UAE@XZ
	DD	00H
	DD	FLAT:__CTA2?AVbad_alloc@std@@
; Function compile flags: /Ogtpy
; File s:\msvs2008\vc\include\xmemory
xdata$x	ENDS
;	COMDAT ??$_Allocate@H@std@@YAPAHIPAH@Z
_TEXT	SEGMENT
$T225317 = -12						; size = 12
$T225321 = 8						; size = 4
__Count$ = 8						; size = 4
___formal$ = 12						; size = 4
??$_Allocate@H@std@@YAPAHIPAH@Z PROC			; std::_Allocate<int>, COMDAT

; 37   : 	if (_Count <= 0)

	mov	ecx, DWORD PTR __Count$[esp-4]
	sub	esp, 12					; 0000000cH
	test	ecx, ecx
	ja	SHORT $LN3@Allocate

; 38   : 		_Count = 0;

	xor	ecx, ecx
$LN1@Allocate:

; 41   : 
; 42   : 		// allocate storage for _Count elements of type _Ty
; 43   : 	return ((_Ty _FARQ *)::operator new(_Count * sizeof (_Ty)));

	lea	edx, DWORD PTR [ecx*4]
	push	edx
	call	??2@YAPAXI@Z				; operator new
	add	esp, 4

; 44   : 	}

	add	esp, 12					; 0000000cH
	ret	0
$LN3@Allocate:

; 39   : 	else if (((_SIZT)(-1) / _Count) < sizeof (_Ty))

	or	eax, -1
	xor	edx, edx
	div	ecx
	cmp	eax, 4
	jae	SHORT $LN1@Allocate

; 40   : 		_THROW_NCEE(std::bad_alloc, NULL);

	lea	eax, DWORD PTR $T225321[esp+8]
	push	eax
	lea	ecx, DWORD PTR $T225317[esp+16]
	mov	DWORD PTR $T225321[esp+12], 0
	call	DWORD PTR __imp_??0exception@std@@QAE@ABQBD@Z
	push	OFFSET __TI2?AVbad_alloc@std@@
	lea	ecx, DWORD PTR $T225317[esp+16]
	push	ecx
	mov	DWORD PTR $T225317[esp+20], OFFSET ??_7bad_alloc@std@@6B@
	call	__CxxThrowException@8
$LN9@Allocate:
$LN8@Allocate:
	int	3
??$_Allocate@H@std@@YAPAHIPAH@Z ENDP			; std::_Allocate<int>
; Function compile flags: /Ogtpy
_TEXT	ENDS
;	COMDAT ??0bad_alloc@std@@QAE@ABV01@@Z
_TEXT	SEGMENT
___that$ = 8						; size = 4
??0bad_alloc@std@@QAE@ABV01@@Z PROC			; std::bad_alloc::bad_alloc, COMDAT
; _this$ = ecx
	mov	eax, DWORD PTR ___that$[esp-4]
	push	esi
	push	eax
	mov	esi, ecx
	call	DWORD PTR __imp_??0exception@std@@QAE@ABV01@@Z
	mov	DWORD PTR [esi], OFFSET ??_7bad_alloc@std@@6B@
	mov	eax, esi
	pop	esi
	ret	4
??0bad_alloc@std@@QAE@ABV01@@Z ENDP			; std::bad_alloc::bad_alloc
_TEXT	ENDS
PUBLIC	??0?$_Vector_const_iterator@HV?$allocator@H@std@@@std@@QAE@PAH@Z ; std::_Vector_const_iterator<int,std::allocator<int> >::_Vector_const_iterator<int,std::allocator<int> >
; Function compile flags: /Ogtpy
; File s:\msvs2008\vc\include\vector
;	COMDAT ??0?$_Vector_const_iterator@HV?$allocator@H@std@@@std@@QAE@PAH@Z
_TEXT	SEGMENT
__Ptr$ = 8						; size = 4
??0?$_Vector_const_iterator@HV?$allocator@H@std@@@std@@QAE@PAH@Z PROC ; std::_Vector_const_iterator<int,std::allocator<int> >::_Vector_const_iterator<int,std::allocator<int> >, COMDAT
; _this$ = ecx

; 84   : 	explicit _Vector_const_iterator(_Tptr _Ptr)

	mov	eax, ecx

; 85   : 		{	// construct with pointer _Ptr
; 86   : 		_Myptr = _Ptr;

	mov	ecx, DWORD PTR __Ptr$[esp-4]
	mov	DWORD PTR [eax], ecx

; 87   : 		}

	ret	4
??0?$_Vector_const_iterator@HV?$allocator@H@std@@@std@@QAE@PAH@Z ENDP ; std::_Vector_const_iterator<int,std::allocator<int> >::_Vector_const_iterator<int,std::allocator<int> >
_TEXT	ENDS
PUBLIC	??8?$_Vector_const_iterator@HV?$allocator@H@std@@@std@@QBE_NABV01@@Z ; std::_Vector_const_iterator<int,std::allocator<int> >::operator==
; Function compile flags: /Ogtpy
;	COMDAT ??8?$_Vector_const_iterator@HV?$allocator@H@std@@@std@@QBE_NABV01@@Z
_TEXT	SEGMENT
__Right$ = 8						; size = 4
??8?$_Vector_const_iterator@HV?$allocator@H@std@@@std@@QBE_NABV01@@Z PROC ; std::_Vector_const_iterator<int,std::allocator<int> >::operator==, COMDAT
; _this$ = ecx

; 204  : 
; 205  :  #if _HAS_ITERATOR_DEBUGGING
; 206  : 		_Compat(_Right);
; 207  :  #else
; 208  : 		_SCL_SECURE_VALIDATE(this->_Has_container() && this->_Same_container(_Right));
; 209  :  #endif /* _HAS_ITERATOR_DEBUGGING */
; 210  : 
; 211  : 		return (_Myptr == _Right._Myptr);

	mov	eax, DWORD PTR [ecx]
	mov	edx, DWORD PTR __Right$[esp-4]
	xor	ecx, ecx
	cmp	eax, DWORD PTR [edx]
	sete	cl
	mov	al, cl

; 212  : 		}

	ret	4
??8?$_Vector_const_iterator@HV?$allocator@H@std@@@std@@QBE_NABV01@@Z ENDP ; std::_Vector_const_iterator<int,std::allocator<int> >::operator==
_TEXT	ENDS
PUBLIC	??$_Ptr_cat@PAHPAH@std@@YA?AU_Scalar_ptr_iterator_tag@0@AAPAH0@Z ; std::_Ptr_cat<int *,int *>
; Function compile flags: /Ogtpy
; File s:\msvs2008\vc\include\xutility
;	COMDAT ??$_Ptr_cat@PAHPAH@std@@YA?AU_Scalar_ptr_iterator_tag@0@AAPAH0@Z
_TEXT	SEGMENT
__Cat$ = -1						; size = 1
___formal$ = 8						; size = 4
___formal$ = 12						; size = 4
??$_Ptr_cat@PAHPAH@std@@YA?AU_Scalar_ptr_iterator_tag@0@AAPAH0@Z PROC ; std::_Ptr_cat<int *,int *>, COMDAT

; 1509 : 	{

	push	ecx

; 1510 : 	typename _Ptr_cat_helper<_T1, _T2>::_Ptr_cat _Cat;
; 1511 : 	return (_Cat);

	mov	al, BYTE PTR __Cat$[esp+4]

; 1512 : 	}

	pop	ecx
	ret	0
??$_Ptr_cat@PAHPAH@std@@YA?AU_Scalar_ptr_iterator_tag@0@AAPAH0@Z ENDP ; std::_Ptr_cat<int *,int *>
_TEXT	ENDS
PUBLIC	??$_Destroy_range@V?$allocator@H@std@@@std@@YAXPAH0AAV?$allocator@H@0@U_Scalar_ptr_iterator_tag@0@@Z ; std::_Destroy_range<std::allocator<int> >
; Function compile flags: /Ogtpy
; File s:\msvs2008\vc\include\xmemory
;	COMDAT ??$_Destroy_range@V?$allocator@H@std@@@std@@YAXPAH0AAV?$allocator@H@0@U_Scalar_ptr_iterator_tag@0@@Z
_TEXT	SEGMENT
__First$ = 8						; size = 4
__Last$ = 12						; size = 4
__Al$ = 16						; size = 4
___formal$ = 20						; size = 1
??$_Destroy_range@V?$allocator@H@std@@@std@@YAXPAH0AAV?$allocator@H@0@U_Scalar_ptr_iterator_tag@0@@Z PROC ; std::_Destroy_range<std::allocator<int> >, COMDAT

; 242  : 	}

	ret	0
??$_Destroy_range@V?$allocator@H@std@@@std@@YAXPAH0AAV?$allocator@H@0@U_Scalar_ptr_iterator_tag@0@@Z ENDP ; std::_Destroy_range<std::allocator<int> >
_TEXT	ENDS
PUBLIC	??$_Iter_random@PAHPAH@std@@YA?AUrandom_access_iterator_tag@0@ABQAH0@Z ; std::_Iter_random<int *,int *>
; Function compile flags: /Ogtpy
; File s:\msvs2008\vc\include\xutility
;	COMDAT ??$_Iter_random@PAHPAH@std@@YA?AUrandom_access_iterator_tag@0@ABQAH0@Z
_TEXT	SEGMENT
___$ReturnUdt$ = 8					; size = 4
___formal$ = 12						; size = 4
___formal$ = 16						; size = 4
??$_Iter_random@PAHPAH@std@@YA?AUrandom_access_iterator_tag@0@ABQAH0@Z PROC ; std::_Iter_random<int *,int *>, COMDAT

; 994  : 	typename _Iter_random_helper<
; 995  : 		iterator_traits<_Iter1>::iterator_category, 
; 996  : 		iterator_traits<_Iter2>::iterator_category>::_Iter_random_cat _Cat;
; 997  : 	return (_Cat);

	mov	eax, DWORD PTR ___$ReturnUdt$[esp-4]

; 998  : 	}

	ret	0
??$_Iter_random@PAHPAH@std@@YA?AUrandom_access_iterator_tag@0@ABQAH0@Z ENDP ; std::_Iter_random<int *,int *>
_TEXT	ENDS
PUBLIC	??$_Copy_opt@PAHPAHUrandom_access_iterator_tag@std@@@std@@YAPAHPAH00Urandom_access_iterator_tag@0@U_Scalar_ptr_iterator_tag@0@U_Range_checked_iterator_tag@0@@Z ; std::_Copy_opt<int *,int *,std::random_access_iterator_tag>
EXTRN	__imp__memmove_s:PROC
; Function compile flags: /Ogtpy
;	COMDAT ??$_Copy_opt@PAHPAHUrandom_access_iterator_tag@std@@@std@@YAPAHPAH00Urandom_access_iterator_tag@0@U_Scalar_ptr_iterator_tag@0@U_Range_checked_iterator_tag@0@@Z
_TEXT	SEGMENT
__First$ = 8						; size = 4
__Last$ = 12						; size = 4
__Dest$ = 16						; size = 4
___formal$ = 20						; size = 1
___formal$ = 24						; size = 1
___formal$ = 28						; size = 1
??$_Copy_opt@PAHPAHUrandom_access_iterator_tag@std@@@std@@YAPAHPAH00Urandom_access_iterator_tag@0@U_Scalar_ptr_iterator_tag@0@U_Range_checked_iterator_tag@0@@Z PROC ; std::_Copy_opt<int *,int *,std::random_access_iterator_tag>, COMDAT

; 2495 : 
; 2496 :  #if _HAS_ITERATOR_DEBUGGING
; 2497 : 	_DEBUG_RANGE(_First, _Last);
; 2498 : 	if (_First != _Last)
; 2499 : 		_DEBUG_POINTER(_Dest);
; 2500 :  #endif /* _HAS_ITERATOR_DEBUGGING */
; 2501 : 
; 2502 : 	ptrdiff_t _Off = _Last - _First;	// NB: non-overlapping move

	mov	eax, DWORD PTR __Last$[esp-4]
	mov	edx, DWORD PTR __First$[esp-4]
	sub	eax, edx
	push	esi
	sar	eax, 2
	push	edi

; 2503 : 	// if _OutIt is range checked, this will make sure there is enough space for the memmove
; 2504 : 	_OutIt _Result = _Dest + _Off;

	mov	edi, DWORD PTR __Dest$[esp+4]
	lea	ecx, DWORD PTR [eax*4]
	lea	esi, DWORD PTR [ecx+edi]

; 2505 : 	if (_Off > 0)

	test	eax, eax
	jle	SHORT $LN4@Copy_opt

; 2506 : 		_CRT_SECURE_MEMMOVE(&*_Dest, _Off * sizeof (*_First), &*_First, _Off * sizeof (*_First));

	push	ecx
	push	edx
	push	ecx
	push	edi
	call	DWORD PTR __imp__memmove_s
	add	esp, 16					; 00000010H
$LN4@Copy_opt:
	pop	edi

; 2507 : 	return _Result;

	mov	eax, esi
	pop	esi

; 2508 : 	}

	ret	0
??$_Copy_opt@PAHPAHUrandom_access_iterator_tag@std@@@std@@YAPAHPAH00Urandom_access_iterator_tag@0@U_Scalar_ptr_iterator_tag@0@U_Range_checked_iterator_tag@0@@Z ENDP ; std::_Copy_opt<int *,int *,std::random_access_iterator_tag>
_TEXT	ENDS
PUBLIC	?capacity@?$vector@HV?$allocator@H@std@@@std@@QBEIXZ ; std::vector<int,std::allocator<int> >::capacity
; Function compile flags: /Ogtpy
; File s:\msvs2008\vc\include\vector
;	COMDAT ?capacity@?$vector@HV?$allocator@H@std@@@std@@QBEIXZ
_TEXT	SEGMENT
?capacity@?$vector@HV?$allocator@H@std@@@std@@QBEIXZ PROC ; std::vector<int,std::allocator<int> >::capacity, COMDAT
; _this$ = ecx

; 635  : 		return (_Myfirst == 0 ? 0 : _Myend - _Myfirst);

	mov	edx, DWORD PTR [ecx+4]
	test	edx, edx
	jne	SHORT $LN3@capacity
	xor	eax, eax

; 636  : 		}

	ret	0
$LN3@capacity:

; 635  : 		return (_Myfirst == 0 ? 0 : _Myend - _Myfirst);

	mov	eax, DWORD PTR [ecx+12]
	sub	eax, edx
	sar	eax, 2

; 636  : 		}

	ret	0
?capacity@?$vector@HV?$allocator@H@std@@@std@@QBEIXZ ENDP ; std::vector<int,std::allocator<int> >::capacity
_TEXT	ENDS
PUBLIC	??Y?$_Vector_const_iterator@HV?$allocator@H@std@@@std@@QAEAAV01@H@Z ; std::_Vector_const_iterator<int,std::allocator<int> >::operator+=
; Function compile flags: /Ogtpy
;	COMDAT ??Y?$_Vector_const_iterator@HV?$allocator@H@std@@@std@@QAEAAV01@H@Z
_TEXT	SEGMENT
__Off$ = 8						; size = 4
??Y?$_Vector_const_iterator@HV?$allocator@H@std@@@std@@QAEAAV01@H@Z PROC ; std::_Vector_const_iterator<int,std::allocator<int> >::operator+=, COMDAT
; _this$ = ecx

; 159  : 		{	// increment by integer

	mov	eax, ecx

; 160  : 		_SCL_SECURE_VALIDATE(this->_Has_container());
; 161  : 		_SCL_SECURE_VALIDATE_RANGE(
; 162  : 			_Myptr + _Off <= ((_Myvec *)(this->_Getmycont()))->_Mylast &&
; 163  : 			_Myptr + _Off >= ((_Myvec *)(this->_Getmycont()))->_Myfirst);
; 164  : 		_Myptr += _Off;

	mov	ecx, DWORD PTR __Off$[esp-4]
	lea	edx, DWORD PTR [ecx*4]
	add	DWORD PTR [eax], edx

; 165  : 		return (*this);
; 166  : 		}

	ret	4
??Y?$_Vector_const_iterator@HV?$allocator@H@std@@@std@@QAEAAV01@H@Z ENDP ; std::_Vector_const_iterator<int,std::allocator<int> >::operator+=
_TEXT	ENDS
PUBLIC	??$_Fill@PAHH@std@@YAXPAH0ABH@Z			; std::_Fill<int *,int>
; Function compile flags: /Ogtpy
; File s:\msvs2008\vc\include\xutility
;	COMDAT ??$_Fill@PAHH@std@@YAXPAH0ABH@Z
_TEXT	SEGMENT
__First$ = 8						; size = 4
__Last$ = 12						; size = 4
__Val$ = 16						; size = 4
??$_Fill@PAHH@std@@YAXPAH0ABH@Z PROC			; std::_Fill<int *,int>, COMDAT

; 3157 : 	_DEBUG_RANGE(_First, _Last);
; 3158 : 	for (; _First != _Last; ++_First)

	mov	eax, DWORD PTR __First$[esp-4]
	mov	ecx, DWORD PTR __Last$[esp-4]
	cmp	eax, ecx
	je	SHORT $LN1@Fill
	mov	edx, DWORD PTR __Val$[esp-4]
	push	esi
$LL3@Fill:

; 3159 : 		*_First = _Val;

	mov	esi, DWORD PTR [edx]
	mov	DWORD PTR [eax], esi
	add	eax, 4
	cmp	eax, ecx
	jne	SHORT $LL3@Fill
	pop	esi
$LN1@Fill:

; 3160 : 	}

	ret	0
??$_Fill@PAHH@std@@YAXPAH0ABH@Z ENDP			; std::_Fill<int *,int>
_TEXT	ENDS
PUBLIC	??$_Move_cat@PAH@std@@YA?AU_Undefined_move_tag@0@ABQAH@Z ; std::_Move_cat<int *>
; Function compile flags: /Ogtpy
;	COMDAT ??$_Move_cat@PAH@std@@YA?AU_Undefined_move_tag@0@ABQAH@Z
_TEXT	SEGMENT
__Cat$ = -1						; size = 1
___formal$ = 8						; size = 4
??$_Move_cat@PAH@std@@YA?AU_Undefined_move_tag@0@ABQAH@Z PROC ; std::_Move_cat<int *>, COMDAT

; 1200 : 	{

	push	ecx

; 1201 : 		typename _Move_operation_category<typename iterator_traits<_Iter>::value_type>::_Move_cat _Cat;
; 1202 : 		return (_Cat);

	mov	al, BYTE PTR __Cat$[esp+4]

; 1203 : 	}

	pop	ecx
	ret	0
??$_Move_cat@PAH@std@@YA?AU_Undefined_move_tag@0@ABQAH@Z ENDP ; std::_Move_cat<int *>
_TEXT	ENDS
PUBLIC	??$_Copy_backward_opt@PAHPAHUrandom_access_iterator_tag@std@@@std@@YAPAHPAH00Urandom_access_iterator_tag@0@U_Scalar_ptr_iterator_tag@0@U_Range_checked_iterator_tag@0@@Z ; std::_Copy_backward_opt<int *,int *,std::random_access_iterator_tag>
; Function compile flags: /Ogtpy
;	COMDAT ??$_Copy_backward_opt@PAHPAHUrandom_access_iterator_tag@std@@@std@@YAPAHPAH00Urandom_access_iterator_tag@0@U_Scalar_ptr_iterator_tag@0@U_Range_checked_iterator_tag@0@@Z
_TEXT	SEGMENT
__First$ = 8						; size = 4
__Last$ = 12						; size = 4
__Dest$ = 16						; size = 4
___formal$ = 20						; size = 1
___formal$ = 24						; size = 1
___formal$ = 28						; size = 1
??$_Copy_backward_opt@PAHPAHUrandom_access_iterator_tag@std@@@std@@YAPAHPAH00Urandom_access_iterator_tag@0@U_Scalar_ptr_iterator_tag@0@U_Range_checked_iterator_tag@0@@Z PROC ; std::_Copy_backward_opt<int *,int *,std::random_access_iterator_tag>, COMDAT

; 2699 : 
; 2700 :  #if _HAS_ITERATOR_DEBUGGING
; 2701 : 	_DEBUG_RANGE(_First, _Last);
; 2702 : 	if (_First != _Last)
; 2703 : 		_DEBUG_POINTER(_Dest);
; 2704 :  #endif /* _HAS_ITERATOR_DEBUGGING */
; 2705 : 
; 2706 : 	ptrdiff_t _Off = _Last - _First;	// NB: non-overlapping move

	mov	eax, DWORD PTR __Last$[esp-4]
	mov	edx, DWORD PTR __First$[esp-4]
	sub	eax, edx
	sar	eax, 2
	push	esi

; 2707 : 	/* if _OutIt is range checked, this will make sure there is enough space for 
; 2708 : 	 * the memmove
; 2709 : 	 */
; 2710 : 	_OutIt _Result = _Dest - _Off;

	mov	esi, DWORD PTR __Dest$[esp]
	lea	ecx, DWORD PTR [eax*4]
	sub	esi, ecx

; 2711 : 	if (_Off > 0)

	test	eax, eax
	jle	SHORT $LN4@Copy_backw

; 2712 : 		_CRT_SECURE_MEMMOVE(&*_Result, _Off * sizeof (*_First), &*_First, _Off * sizeof (*_First));

	push	ecx
	push	edx
	push	ecx
	push	esi
	call	DWORD PTR __imp__memmove_s
	add	esp, 16					; 00000010H
$LN4@Copy_backw:

; 2713 : 	return _Result;

	mov	eax, esi
	pop	esi

; 2714 : 	}

	ret	0
??$_Copy_backward_opt@PAHPAHUrandom_access_iterator_tag@std@@@std@@YAPAHPAH00Urandom_access_iterator_tag@0@U_Scalar_ptr_iterator_tag@0@U_Range_checked_iterator_tag@0@@Z ENDP ; std::_Copy_backward_opt<int *,int *,std::random_access_iterator_tag>
_TEXT	ENDS
PUBLIC	??$_Iter_cat@PAH@std@@YA?AUrandom_access_iterator_tag@0@ABQAH@Z ; std::_Iter_cat<int *>
; Function compile flags: /Ogtpy
;	COMDAT ??$_Iter_cat@PAH@std@@YA?AUrandom_access_iterator_tag@0@ABQAH@Z
_TEXT	SEGMENT
___$ReturnUdt$ = 8					; size = 4
___formal$ = 12						; size = 4
??$_Iter_cat@PAH@std@@YA?AUrandom_access_iterator_tag@0@ABQAH@Z PROC ; std::_Iter_cat<int *>, COMDAT

; 953  : 	typename iterator_traits<_Iter>::iterator_category _Cat;
; 954  : 	return (_Cat);

	mov	eax, DWORD PTR ___$ReturnUdt$[esp-4]

; 955  : 	}

	ret	0
??$_Iter_cat@PAH@std@@YA?AUrandom_access_iterator_tag@0@ABQAH@Z ENDP ; std::_Iter_cat<int *>
_TEXT	ENDS
PUBLIC	??$_Fill_n@PAHIH@std@@YAXPAHIABHU_Range_checked_iterator_tag@0@@Z ; std::_Fill_n<int *,unsigned int,int>
; Function compile flags: /Ogtpy
;	COMDAT ??$_Fill_n@PAHIH@std@@YAXPAHIABHU_Range_checked_iterator_tag@0@@Z
_TEXT	SEGMENT
__First$ = 8						; size = 4
__Count$ = 12						; size = 4
__Val$ = 16						; size = 4
___formal$ = 20						; size = 1
??$_Fill_n@PAHIH@std@@YAXPAHIABHU_Range_checked_iterator_tag@0@@Z PROC ; std::_Fill_n<int *,unsigned int,int>, COMDAT

; 3197 : 	for (; 0 < _Count; --_Count, ++_First)

	mov	eax, DWORD PTR __Count$[esp-4]
	test	eax, eax
	jbe	SHORT $LN1@Fill_n
	mov	edx, DWORD PTR __Val$[esp-4]
	mov	ecx, DWORD PTR __First$[esp-4]
	push	esi
$LL3@Fill_n:

; 3198 : 		*_First = _Val;

	mov	esi, DWORD PTR [edx]
	mov	DWORD PTR [ecx], esi
	dec	eax
	add	ecx, 4
	test	eax, eax
	ja	SHORT $LL3@Fill_n
	pop	esi
$LN1@Fill_n:

; 3199 : 	}

	ret	0
??$_Fill_n@PAHIH@std@@YAXPAHIABHU_Range_checked_iterator_tag@0@@Z ENDP ; std::_Fill_n<int *,unsigned int,int>
_TEXT	ENDS
PUBLIC	??$_Uninit_copy@PAHPAHV?$allocator@H@std@@@std@@YAPAHPAH00AAV?$allocator@H@0@U_Scalar_ptr_iterator_tag@0@U_Range_checked_iterator_tag@0@@Z ; std::_Uninit_copy<int *,int *,std::allocator<int> >
; Function compile flags: /Ogtpy
; File s:\msvs2008\vc\include\memory
;	COMDAT ??$_Uninit_copy@PAHPAHV?$allocator@H@std@@@std@@YAPAHPAH00AAV?$allocator@H@0@U_Scalar_ptr_iterator_tag@0@U_Range_checked_iterator_tag@0@@Z
_TEXT	SEGMENT
__First$ = 8						; size = 4
__Last$ = 12						; size = 4
__Dest$ = 16						; size = 4
___formal$ = 20						; size = 4
___formal$ = 24						; size = 1
___formal$ = 28						; size = 1
??$_Uninit_copy@PAHPAHV?$allocator@H@std@@@std@@YAPAHPAH00AAV?$allocator@H@0@U_Scalar_ptr_iterator_tag@0@U_Range_checked_iterator_tag@0@@Z PROC ; std::_Uninit_copy<int *,int *,std::allocator<int> >, COMDAT

; 146  : 	_DEBUG_RANGE(_First, _Last);
; 147  : 	_DEBUG_POINTER(_Dest);
; 148  : 	size_t _Count = (size_t)(_Last - _First);

	mov	eax, DWORD PTR __Last$[esp-4]
	mov	edx, DWORD PTR __First$[esp-4]
	sub	eax, edx
	push	esi
	sar	eax, 2
	push	edi

; 149  : 	_FwdIt _Result = _Dest + _Count;

	mov	edi, DWORD PTR __Dest$[esp+4]
	lea	ecx, DWORD PTR [eax*4]
	lea	esi, DWORD PTR [ecx+edi]

; 150  : 	if (_Count > 0)

	test	eax, eax
	jbe	SHORT $LN4@Uninit_cop

; 151  : 		_CRT_SECURE_MEMMOVE(&*_Dest, _Count * sizeof (*_First), &*_First, _Count * sizeof (*_First));	// NB: non-overlapping move

	push	ecx
	push	edx
	push	ecx
	push	edi
	call	DWORD PTR __imp__memmove_s
	add	esp, 16					; 00000010H
$LN4@Uninit_cop:
	pop	edi

; 152  : 	return (_Result);

	mov	eax, esi
	pop	esi

; 153  : 	}

	ret	0
??$_Uninit_copy@PAHPAHV?$allocator@H@std@@@std@@YAPAHPAH00AAV?$allocator@H@0@U_Scalar_ptr_iterator_tag@0@U_Range_checked_iterator_tag@0@@Z ENDP ; std::_Uninit_copy<int *,int *,std::allocator<int> >
_TEXT	ENDS
PUBLIC	?HandleMissingInstance@CvLuaCity@@SAXPAUlua_State@@@Z ; CvLuaCity::HandleMissingInstance
; Function compile flags: /Ogtpy
; File s:\lekmod_dll\cvgamecoredll_expansion2\lua\cvluacity.cpp
;	COMDAT ?HandleMissingInstance@CvLuaCity@@SAXPAUlua_State@@@Z
_TEXT	SEGMENT
_L$ = 8							; size = 4
?HandleMissingInstance@CvLuaCity@@SAXPAUlua_State@@@Z PROC ; CvLuaCity::HandleMissingInstance, COMDAT

; 487  : 	DefaultHandleMissingInstance(L);

	mov	eax, DWORD PTR _L$[esp-4]
	push	OFFSET $SG223812
	push	eax
	call	_luaL_error
	add	esp, 8

; 488  : }

	ret	0
?HandleMissingInstance@CvLuaCity@@SAXPAUlua_State@@@Z ENDP ; CvLuaCity::HandleMissingInstance
_TEXT	ENDS
PUBLIC	?GetInstance@?$CvLuaScopedInstance@VCvLuaCity@@VCvCity@@@@SAPAVCvCity@@PAUlua_State@@H_N@Z ; CvLuaScopedInstance<CvLuaCity,CvCity>::GetInstance
; Function compile flags: /Ogtpy
; File s:\lekmod_dll\cvgamecoredll_expansion2\lua\cvluascopedinstance.h
;	COMDAT ?GetInstance@?$CvLuaScopedInstance@VCvLuaCity@@VCvCity@@@@SAPAVCvCity@@PAUlua_State@@H_N@Z
_TEXT	SEGMENT
_L$ = 8							; size = 4
_idx$ = 12						; size = 4
_bErrorOnFail$ = 16					; size = 1
?GetInstance@?$CvLuaScopedInstance@VCvLuaCity@@VCvCity@@@@SAPAVCvCity@@PAUlua_State@@H_N@Z PROC ; CvLuaScopedInstance<CvLuaCity,CvCity>::GetInstance, COMDAT

; 127  : {

	push	ebx
	push	ebp
	push	esi

; 128  : 	const int stack_size = lua_gettop(L);

	mov	esi, DWORD PTR _L$[esp+8]
	push	edi
	push	esi
	call	_lua_gettop
	mov	ebp, eax

; 129  : 	bool bFail = true;
; 130  : 
; 131  : 	InstanceType* pkInstance = NULL;
; 132  : 	if(lua_type(L, idx) == LUA_TTABLE)

	mov	eax, DWORD PTR _idx$[esp+16]
	push	eax
	push	esi
	mov	bl, 1
	xor	edi, edi
	call	_lua_type
	add	esp, 12					; 0000000cH
	cmp	eax, 5
	jne	SHORT $LN3@GetInstanc@3

; 133  : 	{
; 134  : 		lua_getfield(L, idx, "__instance");

	mov	ecx, DWORD PTR _idx$[esp+12]
	push	OFFSET $SG223798
	push	ecx
	push	esi
	call	_lua_getfield

; 135  : 		if(lua_type(L, -1) == LUA_TLIGHTUSERDATA)

	push	-1
	push	esi
	call	_lua_type
	add	esp, 20					; 00000014H
	cmp	eax, 2
	jne	SHORT $LN3@GetInstanc@3

; 136  : 		{
; 137  : 			pkInstance = static_cast<InstanceType*>(lua_touserdata(L, -1));

	push	-1
	push	esi
	call	_lua_touserdata
	mov	edi, eax
	add	esp, 8

; 138  : 			if(pkInstance)

	test	edi, edi
	je	SHORT $LN3@GetInstanc@3

; 139  : 			{
; 140  : 				bFail = false;

	xor	bl, bl
$LN3@GetInstanc@3:

; 141  : 			}
; 142  : 		}
; 143  : 	}
; 144  : 
; 145  : 	lua_settop(L, stack_size);

	push	ebp
	push	esi
	call	_lua_settop
	add	esp, 8

; 146  : 
; 147  : 	if(bFail && bErrorOnFail)

	test	bl, bl
	je	SHORT $LN13@GetInstanc@3
	cmp	BYTE PTR _bErrorOnFail$[esp+12], 0
	je	SHORT $LN13@GetInstanc@3

; 148  : 	{
; 149  : 		if(idx == 1)

	cmp	DWORD PTR _idx$[esp+12], 1
	jne	SHORT $LN1@GetInstanc@3

; 150  : 			luaL_error(L, "Not a valid instance.  Either the instance is NULL or you used '.' instead of ':'.");

	push	OFFSET $SG223804
	push	esi
	call	_luaL_error
	add	esp, 8
$LN1@GetInstanc@3:

; 151  : 		Derived::HandleMissingInstance(L);

	push	OFFSET $SG223812
	push	esi
	call	_luaL_error
	add	esp, 8
$LN13@GetInstanc@3:

; 152  : 	}
; 153  : 	return pkInstance;

	mov	eax, edi
	pop	edi
	pop	esi
	pop	ebp
	pop	ebx

; 154  : }

	ret	0
?GetInstance@?$CvLuaScopedInstance@VCvLuaCity@@VCvCity@@@@SAPAVCvCity@@PAUlua_State@@H_N@Z ENDP ; CvLuaScopedInstance<CvLuaCity,CvCity>::GetInstance
_TEXT	ENDS
PUBLIC	??$BasicLuaMethod@W4UnitTypes@@@?$CvLuaMethodWrapper@VCvLuaCity@@VCvCity@@@@KAHPAUlua_State@@P8CvCity@@AEXW4UnitTypes@@@Z@Z ; CvLuaMethodWrapper<CvLuaCity,CvCity>::BasicLuaMethod<enum UnitTypes>
; Function compile flags: /Ogtpy
; File s:\lekmod_dll\cvgamecoredllutil\include\cvluamethodwrapper.h
;	COMDAT ??$BasicLuaMethod@W4UnitTypes@@@?$CvLuaMethodWrapper@VCvLuaCity@@VCvCity@@@@KAHPAUlua_State@@P8CvCity@@AEXW4UnitTypes@@@Z@Z
_TEXT	SEGMENT
_L$ = 8							; size = 4
_func$ = 12						; size = 4
??$BasicLuaMethod@W4UnitTypes@@@?$CvLuaMethodWrapper@VCvLuaCity@@VCvCity@@@@KAHPAUlua_State@@P8CvCity@@AEXW4UnitTypes@@@Z@Z PROC ; CvLuaMethodWrapper<CvLuaCity,CvCity>::BasicLuaMethod<enum UnitTypes>, COMDAT

; 230  : {

	push	ebx
	push	ebp
	push	esi

; 231  : 	const int idx = Derived::GetStartingArgIndex();
; 232  : 	InstanceType* pkType = Derived::GetInstance(L);

	mov	esi, DWORD PTR _L$[esp+8]
	push	edi
	push	esi
	call	_lua_gettop
	push	1
	push	esi
	mov	ebp, eax
	mov	bl, 1
	xor	edi, edi
	call	_lua_type
	add	esp, 12					; 0000000cH
	cmp	eax, 5
	jne	SHORT $LN7@BasicLuaMe
	push	OFFSET $SG223798
	push	1
	push	esi
	call	_lua_getfield
	push	-1
	push	esi
	call	_lua_type
	add	esp, 20					; 00000014H
	cmp	eax, 2
	jne	SHORT $LN7@BasicLuaMe
	push	-1
	push	esi
	call	_lua_touserdata
	mov	edi, eax
	add	esp, 8
	test	edi, edi
	je	SHORT $LN7@BasicLuaMe
	xor	bl, bl
$LN7@BasicLuaMe:
	push	ebp
	push	esi
	call	_lua_settop
	add	esp, 8
	test	bl, bl
	je	SHORT $LN14@BasicLuaMe
	push	OFFSET $SG223804
	push	esi
	call	_luaL_error
	push	OFFSET $SG223812
	push	esi
	call	_luaL_error
	add	esp, 16					; 00000010H
$LN14@BasicLuaMe:

; 233  : 	(pkType->*func)(CvLuaArgs::toValue<arg1>(L, idx));

	push	2
	push	esi
	call	_lua_tointeger
	add	esp, 8
	push	eax
	mov	ecx, edi
	call	DWORD PTR _func$[esp+16]
	pop	edi
	pop	esi
	pop	ebp

; 234  : 	return 0;

	xor	eax, eax
	pop	ebx

; 235  : }

	ret	0
??$BasicLuaMethod@W4UnitTypes@@@?$CvLuaMethodWrapper@VCvLuaCity@@VCvCity@@@@KAHPAUlua_State@@P8CvCity@@AEXW4UnitTypes@@@Z@Z ENDP ; CvLuaMethodWrapper<CvLuaCity,CvCity>::BasicLuaMethod<enum UnitTypes>
_TEXT	ENDS
PUBLIC	??$BasicLuaMethod@H@?$CvLuaMethodWrapper@VCvLuaCity@@VCvCity@@@@KAHPAUlua_State@@P8CvCity@@AEXH@Z@Z ; CvLuaMethodWrapper<CvLuaCity,CvCity>::BasicLuaMethod<int>
; Function compile flags: /Ogtpy
;	COMDAT ??$BasicLuaMethod@H@?$CvLuaMethodWrapper@VCvLuaCity@@VCvCity@@@@KAHPAUlua_State@@P8CvCity@@AEXH@Z@Z
_TEXT	SEGMENT
_L$ = 8							; size = 4
_func$ = 12						; size = 4
??$BasicLuaMethod@H@?$CvLuaMethodWrapper@VCvLuaCity@@VCvCity@@@@KAHPAUlua_State@@P8CvCity@@AEXH@Z@Z PROC ; CvLuaMethodWrapper<CvLuaCity,CvCity>::BasicLuaMethod<int>, COMDAT

; 230  : {

	push	ebx
	push	ebp
	push	esi

; 231  : 	const int idx = Derived::GetStartingArgIndex();
; 232  : 	InstanceType* pkType = Derived::GetInstance(L);

	mov	esi, DWORD PTR _L$[esp+8]
	push	edi
	push	esi
	call	_lua_gettop
	push	1
	push	esi
	mov	ebp, eax
	mov	bl, 1
	xor	edi, edi
	call	_lua_type
	add	esp, 12					; 0000000cH
	cmp	eax, 5
	jne	SHORT $LN7@BasicLuaMe@2
	push	OFFSET $SG223798
	push	1
	push	esi
	call	_lua_getfield
	push	-1
	push	esi
	call	_lua_type
	add	esp, 20					; 00000014H
	cmp	eax, 2
	jne	SHORT $LN7@BasicLuaMe@2
	push	-1
	push	esi
	call	_lua_touserdata
	mov	edi, eax
	add	esp, 8
	test	edi, edi
	je	SHORT $LN7@BasicLuaMe@2
	xor	bl, bl
$LN7@BasicLuaMe@2:
	push	ebp
	push	esi
	call	_lua_settop
	add	esp, 8
	test	bl, bl
	je	SHORT $LN14@BasicLuaMe@2
	push	OFFSET $SG223804
	push	esi
	call	_luaL_error
	push	OFFSET $SG223812
	push	esi
	call	_luaL_error
	add	esp, 16					; 00000010H
$LN14@BasicLuaMe@2:

; 233  : 	(pkType->*func)(CvLuaArgs::toValue<arg1>(L, idx));

	push	2
	push	esi
	call	_lua_tointeger
	add	esp, 8
	push	eax
	mov	ecx, edi
	call	DWORD PTR _func$[esp+16]
	pop	edi
	pop	esi
	pop	ebp

; 234  : 	return 0;

	xor	eax, eax
	pop	ebx

; 235  : }

	ret	0
??$BasicLuaMethod@H@?$CvLuaMethodWrapper@VCvLuaCity@@VCvCity@@@@KAHPAUlua_State@@P8CvCity@@AEXH@Z@Z ENDP ; CvLuaMethodWrapper<CvLuaCity,CvCity>::BasicLuaMethod<int>
_TEXT	ENDS
PUBLIC	??$BasicLuaMethod@_NW4BuildingTypes@@_NPAVCvString@@@?$CvLuaMethodWrapper@VCvLuaCity@@VCvCity@@@@KAHPAUlua_State@@P8CvCity@@BE_NW4BuildingTypes@@_NPAVCvString@@@Z@Z ; CvLuaMethodWrapper<CvLuaCity,CvCity>::BasicLuaMethod<bool,enum BuildingTypes,bool,CvString *>
; Function compile flags: /Ogtpy
;	COMDAT ??$BasicLuaMethod@_NW4BuildingTypes@@_NPAVCvString@@@?$CvLuaMethodWrapper@VCvLuaCity@@VCvCity@@@@KAHPAUlua_State@@P8CvCity@@BE_NW4BuildingTypes@@_NPAVCvString@@@Z@Z
_TEXT	SEGMENT
$T225498 = -4						; size = 1
_L$ = 8							; size = 4
_func$ = 12						; size = 4
??$BasicLuaMethod@_NW4BuildingTypes@@_NPAVCvString@@@?$CvLuaMethodWrapper@VCvLuaCity@@VCvCity@@@@KAHPAUlua_State@@P8CvCity@@BE_NW4BuildingTypes@@_NPAVCvString@@@Z@Z PROC ; CvLuaMethodWrapper<CvLuaCity,CvCity>::BasicLuaMethod<bool,enum BuildingTypes,bool,CvString *>, COMDAT

; 98   : {

	push	ecx
	push	ebx
	push	ebp
	push	esi

; 99   : 	const int idx = Derived::GetStartingArgIndex();
; 100  : 	InstanceType* pkType = Derived::GetInstance(L);

	mov	esi, DWORD PTR _L$[esp+12]
	push	edi
	push	esi
	call	_lua_gettop
	push	1
	push	esi
	mov	ebp, eax
	mov	bl, 1
	xor	edi, edi
	call	_lua_type
	add	esp, 12					; 0000000cH
	cmp	eax, 5
	jne	SHORT $LN7@BasicLuaMe@3
	push	OFFSET $SG223798
	push	1
	push	esi
	call	_lua_getfield
	push	-1
	push	esi
	call	_lua_type
	add	esp, 20					; 00000014H
	cmp	eax, 2
	jne	SHORT $LN7@BasicLuaMe@3
	push	-1
	push	esi
	call	_lua_touserdata
	mov	edi, eax
	add	esp, 8
	test	edi, edi
	je	SHORT $LN7@BasicLuaMe@3
	xor	bl, bl
$LN7@BasicLuaMe@3:
	push	ebp
	push	esi
	call	_lua_settop
	add	esp, 8
	test	bl, bl
	je	SHORT $LN14@BasicLuaMe@3
	push	OFFSET $SG223804
	push	esi
	call	_luaL_error
	push	OFFSET $SG223812
	push	esi
	call	_luaL_error
	add	esp, 16					; 00000010H
$LN14@BasicLuaMe@3:

; 101  : 	CvLuaArgs::pushValue<ret>(L, (pkType->*func)(CvLuaArgs::toValue<arg1>(L, idx), CvLuaArgs::toValue<arg2>(L, idx + 1), CvLuaArgs::toValue<arg3>(L, idx + 2)));

	push	4
	push	esi
	call	_lua_tointeger
	push	3
	push	esi
	mov	ebx, eax
	call	_lua_toboolean
	test	eax, eax
	setne	al
	push	2
	push	esi
	mov	BYTE PTR $T225498[esp+44], al
	call	_lua_tointeger
	mov	ecx, DWORD PTR $T225498[esp+44]
	add	esp, 24					; 00000018H
	push	ebx
	push	ecx
	push	eax
	mov	ecx, edi
	call	DWORD PTR _func$[esp+28]
	movzx	edx, al
	push	edx
	push	esi
	call	_lua_pushboolean
	add	esp, 8
	pop	edi
	pop	esi
	pop	ebp

; 102  : 
; 103  : 	return 1;

	mov	eax, 1
	pop	ebx

; 104  : }

	pop	ecx
	ret	0
??$BasicLuaMethod@_NW4BuildingTypes@@_NPAVCvString@@@?$CvLuaMethodWrapper@VCvLuaCity@@VCvCity@@@@KAHPAUlua_State@@P8CvCity@@BE_NW4BuildingTypes@@_NPAVCvString@@@Z@Z ENDP ; CvLuaMethodWrapper<CvLuaCity,CvCity>::BasicLuaMethod<bool,enum BuildingTypes,bool,CvString *>
_TEXT	ENDS
PUBLIC	??$BasicLuaMethod@W4ResourceTypes@@_N@?$CvLuaMethodWrapper@VCvLuaCity@@VCvCity@@@@KAHPAUlua_State@@P8CvCity@@BE?AW4ResourceTypes@@_N@Z@Z ; CvLuaMethodWrapper<CvLuaCity,CvCity>::BasicLuaMethod<enum ResourceTypes,bool>
; Function compile flags: /Ogtpy
;	COMDAT ??$BasicLuaMethod@W4ResourceTypes@@_N@?$CvLuaMethodWrapper@VCvLuaCity@@VCvCity@@@@KAHPAUlua_State@@P8CvCity@@BE?AW4ResourceTypes@@_N@Z@Z
_TEXT	SEGMENT
$T225539 = -4						; size = 1
_L$ = 8							; size = 4
_func$ = 12						; size = 4
??$BasicLuaMethod@W4ResourceTypes@@_N@?$CvLuaMethodWrapper@VCvLuaCity@@VCvCity@@@@KAHPAUlua_State@@P8CvCity@@BE?AW4ResourceTypes@@_N@Z@Z PROC ; CvLuaMethodWrapper<CvLuaCity,CvCity>::BasicLuaMethod<enum ResourceTypes,bool>, COMDAT

; 78   : {

	push	ecx
	push	ebx
	push	ebp
	push	esi

; 79   : 	const int idx = Derived::GetStartingArgIndex();
; 80   : 	InstanceType* pkType = Derived::GetInstance(L);

	mov	esi, DWORD PTR _L$[esp+12]
	push	edi
	push	esi
	call	_lua_gettop
	push	1
	push	esi
	mov	ebp, eax
	mov	bl, 1
	xor	edi, edi
	call	_lua_type
	add	esp, 12					; 0000000cH
	cmp	eax, 5
	jne	SHORT $LN7@BasicLuaMe@4
	push	OFFSET $SG223798
	push	1
	push	esi
	call	_lua_getfield
	push	-1
	push	esi
	call	_lua_type
	add	esp, 20					; 00000014H
	cmp	eax, 2
	jne	SHORT $LN7@BasicLuaMe@4
	push	-1
	push	esi
	call	_lua_touserdata
	mov	edi, eax
	add	esp, 8
	test	edi, edi
	je	SHORT $LN7@BasicLuaMe@4
	xor	bl, bl
$LN7@BasicLuaMe@4:
	push	ebp
	push	esi
	call	_lua_settop
	add	esp, 8
	test	bl, bl
	je	SHORT $LN14@BasicLuaMe@4
	push	OFFSET $SG223804
	push	esi
	call	_luaL_error
	push	OFFSET $SG223812
	push	esi
	call	_luaL_error
	add	esp, 16					; 00000010H
$LN14@BasicLuaMe@4:

; 81   : 	CvLuaArgs::pushValue<ret>(L, (pkType->*func)(CvLuaArgs::toValue<arg1>(L, idx)));

	push	2
	push	esi
	call	_lua_toboolean
	add	esp, 8
	test	eax, eax
	setne	al
	mov	BYTE PTR $T225539[esp+20], al
	mov	ecx, DWORD PTR $T225539[esp+20]
	push	ecx
	mov	ecx, edi
	call	DWORD PTR _func$[esp+20]
	push	eax
	push	esi
	call	_lua_pushinteger
	add	esp, 8
	pop	edi
	pop	esi
	pop	ebp

; 82   : 
; 83   : 	return 1;

	mov	eax, 1
	pop	ebx

; 84   : }

	pop	ecx
	ret	0
??$BasicLuaMethod@W4ResourceTypes@@_N@?$CvLuaMethodWrapper@VCvLuaCity@@VCvCity@@@@KAHPAUlua_State@@P8CvCity@@BE?AW4ResourceTypes@@_N@Z@Z ENDP ; CvLuaMethodWrapper<CvLuaCity,CvCity>::BasicLuaMethod<enum ResourceTypes,bool>
_TEXT	ENDS
PUBLIC	??$BasicLuaMethod@W4ResourceTypes@@@?$CvLuaMethodWrapper@VCvLuaCity@@VCvCity@@@@KAHPAUlua_State@@P8CvCity@@AEXW4ResourceTypes@@@Z@Z ; CvLuaMethodWrapper<CvLuaCity,CvCity>::BasicLuaMethod<enum ResourceTypes>
; Function compile flags: /Ogtpy
;	COMDAT ??$BasicLuaMethod@W4ResourceTypes@@@?$CvLuaMethodWrapper@VCvLuaCity@@VCvCity@@@@KAHPAUlua_State@@P8CvCity@@AEXW4ResourceTypes@@@Z@Z
_TEXT	SEGMENT
_L$ = 8							; size = 4
_func$ = 12						; size = 4
??$BasicLuaMethod@W4ResourceTypes@@@?$CvLuaMethodWrapper@VCvLuaCity@@VCvCity@@@@KAHPAUlua_State@@P8CvCity@@AEXW4ResourceTypes@@@Z@Z PROC ; CvLuaMethodWrapper<CvLuaCity,CvCity>::BasicLuaMethod<enum ResourceTypes>, COMDAT

; 230  : {

	push	ebx
	push	ebp
	push	esi

; 231  : 	const int idx = Derived::GetStartingArgIndex();
; 232  : 	InstanceType* pkType = Derived::GetInstance(L);

	mov	esi, DWORD PTR _L$[esp+8]
	push	edi
	push	esi
	call	_lua_gettop
	push	1
	push	esi
	mov	ebp, eax
	mov	bl, 1
	xor	edi, edi
	call	_lua_type
	add	esp, 12					; 0000000cH
	cmp	eax, 5
	jne	SHORT $LN7@BasicLuaMe@5
	push	OFFSET $SG223798
	push	1
	push	esi
	call	_lua_getfield
	push	-1
	push	esi
	call	_lua_type
	add	esp, 20					; 00000014H
	cmp	eax, 2
	jne	SHORT $LN7@BasicLuaMe@5
	push	-1
	push	esi
	call	_lua_touserdata
	mov	edi, eax
	add	esp, 8
	test	edi, edi
	je	SHORT $LN7@BasicLuaMe@5
	xor	bl, bl
$LN7@BasicLuaMe@5:
	push	ebp
	push	esi
	call	_lua_settop
	add	esp, 8
	test	bl, bl
	je	SHORT $LN14@BasicLuaMe@5
	push	OFFSET $SG223804
	push	esi
	call	_luaL_error
	push	OFFSET $SG223812
	push	esi
	call	_luaL_error
	add	esp, 16					; 00000010H
$LN14@BasicLuaMe@5:

; 233  : 	(pkType->*func)(CvLuaArgs::toValue<arg1>(L, idx));

	push	2
	push	esi
	call	_lua_tointeger
	add	esp, 8
	push	eax
	mov	ecx, edi
	call	DWORD PTR _func$[esp+16]
	pop	edi
	pop	esi
	pop	ebp

; 234  : 	return 0;

	xor	eax, eax
	pop	ebx

; 235  : }

	ret	0
??$BasicLuaMethod@W4ResourceTypes@@@?$CvLuaMethodWrapper@VCvLuaCity@@VCvCity@@@@KAHPAUlua_State@@P8CvCity@@AEXW4ResourceTypes@@@Z@Z ENDP ; CvLuaMethodWrapper<CvLuaCity,CvCity>::BasicLuaMethod<enum ResourceTypes>
_TEXT	ENDS
PUBLIC	??$BasicLuaMethod@_N@?$CvLuaMethodWrapper@VCvLuaCity@@VCvCity@@@@KAHPAUlua_State@@P8CvCity@@AEX_N@Z@Z ; CvLuaMethodWrapper<CvLuaCity,CvCity>::BasicLuaMethod<bool>
; Function compile flags: /Ogtpy
;	COMDAT ??$BasicLuaMethod@_N@?$CvLuaMethodWrapper@VCvLuaCity@@VCvCity@@@@KAHPAUlua_State@@P8CvCity@@AEX_N@Z@Z
_TEXT	SEGMENT
_L$ = 8							; size = 4
_func$ = 12						; size = 4
??$BasicLuaMethod@_N@?$CvLuaMethodWrapper@VCvLuaCity@@VCvCity@@@@KAHPAUlua_State@@P8CvCity@@AEX_N@Z@Z PROC ; CvLuaMethodWrapper<CvLuaCity,CvCity>::BasicLuaMethod<bool>, COMDAT

; 230  : {

	push	ebx
	push	ebp
	push	esi

; 231  : 	const int idx = Derived::GetStartingArgIndex();
; 232  : 	InstanceType* pkType = Derived::GetInstance(L);

	mov	esi, DWORD PTR _L$[esp+8]
	push	edi
	push	esi
	call	_lua_gettop
	push	1
	push	esi
	mov	ebp, eax
	mov	bl, 1
	xor	edi, edi
	call	_lua_type
	add	esp, 12					; 0000000cH
	cmp	eax, 5
	jne	SHORT $LN7@BasicLuaMe@6
	push	OFFSET $SG223798
	push	1
	push	esi
	call	_lua_getfield
	push	-1
	push	esi
	call	_lua_type
	add	esp, 20					; 00000014H
	cmp	eax, 2
	jne	SHORT $LN7@BasicLuaMe@6
	push	-1
	push	esi
	call	_lua_touserdata
	mov	edi, eax
	add	esp, 8
	test	edi, edi
	je	SHORT $LN7@BasicLuaMe@6
	xor	bl, bl
$LN7@BasicLuaMe@6:
	push	ebp
	push	esi
	call	_lua_settop
	add	esp, 8
	test	bl, bl
	je	SHORT $LN14@BasicLuaMe@6
	push	OFFSET $SG223804
	push	esi
	call	_luaL_error
	push	OFFSET $SG223812
	push	esi
	call	_luaL_error
	add	esp, 16					; 00000010H
$LN14@BasicLuaMe@6:

; 233  : 	(pkType->*func)(CvLuaArgs::toValue<arg1>(L, idx));

	push	2
	push	esi
	call	_lua_toboolean
	add	esp, 8
	test	eax, eax
	setne	al
	movzx	ecx, al
	push	ecx
	mov	ecx, edi
	call	DWORD PTR _func$[esp+16]
	pop	edi
	pop	esi
	pop	ebp

; 234  : 	return 0;

	xor	eax, eax
	pop	ebx

; 235  : }

	ret	0
??$BasicLuaMethod@_N@?$CvLuaMethodWrapper@VCvLuaCity@@VCvCity@@@@KAHPAUlua_State@@P8CvCity@@AEX_N@Z@Z ENDP ; CvLuaMethodWrapper<CvLuaCity,CvCity>::BasicLuaMethod<bool>
_TEXT	ENDS
PUBLIC	??$BasicLuaMethod@H@?$CvLuaMethodWrapper@VCvLuaCity@@VCvCity@@@@KAHPAUlua_State@@P8CvCity@@BEHXZ@Z ; CvLuaMethodWrapper<CvLuaCity,CvCity>::BasicLuaMethod<int>
; Function compile flags: /Ogtpy
;	COMDAT ??$BasicLuaMethod@H@?$CvLuaMethodWrapper@VCvLuaCity@@VCvCity@@@@KAHPAUlua_State@@P8CvCity@@BEHXZ@Z
_TEXT	SEGMENT
_L$ = 8							; size = 4
_func$ = 12						; size = 4
??$BasicLuaMethod@H@?$CvLuaMethodWrapper@VCvLuaCity@@VCvCity@@@@KAHPAUlua_State@@P8CvCity@@BEHXZ@Z PROC ; CvLuaMethodWrapper<CvLuaCity,CvCity>::BasicLuaMethod<int>, COMDAT

; 69   : {

	push	ebx
	push	ebp
	push	esi

; 70   : 	InstanceType* pkType = Derived::GetInstance(L);

	mov	esi, DWORD PTR _L$[esp+8]
	push	edi
	push	esi
	call	_lua_gettop
	push	1
	push	esi
	mov	ebp, eax
	mov	bl, 1
	xor	edi, edi
	call	_lua_type
	add	esp, 12					; 0000000cH
	cmp	eax, 5
	jne	SHORT $LN5@BasicLuaMe@7
	push	OFFSET $SG223798
	push	1
	push	esi
	call	_lua_getfield
	push	-1
	push	esi
	call	_lua_type
	add	esp, 20					; 00000014H
	cmp	eax, 2
	jne	SHORT $LN5@BasicLuaMe@7
	push	-1
	push	esi
	call	_lua_touserdata
	mov	edi, eax
	add	esp, 8
	test	edi, edi
	je	SHORT $LN5@BasicLuaMe@7
	xor	bl, bl
$LN5@BasicLuaMe@7:
	push	ebp
	push	esi
	call	_lua_settop
	add	esp, 8
	test	bl, bl
	je	SHORT $LN12@BasicLuaMe@7
	push	OFFSET $SG223804
	push	esi
	call	_luaL_error
	push	OFFSET $SG223812
	push	esi
	call	_luaL_error
	add	esp, 16					; 00000010H
$LN12@BasicLuaMe@7:

; 71   : 	CvLuaArgs::pushValue<ret>(L, (pkType->*func)());

	mov	ecx, edi
	call	DWORD PTR _func$[esp+12]
	push	eax
	push	esi
	call	_lua_pushinteger
	add	esp, 8
	pop	edi
	pop	esi
	pop	ebp

; 72   : 
; 73   : 	return 1;

	mov	eax, 1
	pop	ebx

; 74   : }

	ret	0
??$BasicLuaMethod@H@?$CvLuaMethodWrapper@VCvLuaCity@@VCvCity@@@@KAHPAUlua_State@@P8CvCity@@BEHXZ@Z ENDP ; CvLuaMethodWrapper<CvLuaCity,CvCity>::BasicLuaMethod<int>
_TEXT	ENDS
PUBLIC	??$BasicLuaMethod@_N@?$CvLuaMethodWrapper@VCvLuaCity@@VCvCity@@@@KAHPAUlua_State@@P8CvCity@@BE_NXZ@Z ; CvLuaMethodWrapper<CvLuaCity,CvCity>::BasicLuaMethod<bool>
; Function compile flags: /Ogtpy
;	COMDAT ??$BasicLuaMethod@_N@?$CvLuaMethodWrapper@VCvLuaCity@@VCvCity@@@@KAHPAUlua_State@@P8CvCity@@BE_NXZ@Z
_TEXT	SEGMENT
_L$ = 8							; size = 4
_func$ = 12						; size = 4
??$BasicLuaMethod@_N@?$CvLuaMethodWrapper@VCvLuaCity@@VCvCity@@@@KAHPAUlua_State@@P8CvCity@@BE_NXZ@Z PROC ; CvLuaMethodWrapper<CvLuaCity,CvCity>::BasicLuaMethod<bool>, COMDAT

; 69   : {

	push	ebx
	push	ebp
	push	esi

; 70   : 	InstanceType* pkType = Derived::GetInstance(L);

	mov	esi, DWORD PTR _L$[esp+8]
	push	edi
	push	esi
	call	_lua_gettop
	push	1
	push	esi
	mov	ebp, eax
	mov	bl, 1
	xor	edi, edi
	call	_lua_type
	add	esp, 12					; 0000000cH
	cmp	eax, 5
	jne	SHORT $LN5@BasicLuaMe@8
	push	OFFSET $SG223798
	push	1
	push	esi
	call	_lua_getfield
	push	-1
	push	esi
	call	_lua_type
	add	esp, 20					; 00000014H
	cmp	eax, 2
	jne	SHORT $LN5@BasicLuaMe@8
	push	-1
	push	esi
	call	_lua_touserdata
	mov	edi, eax
	add	esp, 8
	test	edi, edi
	je	SHORT $LN5@BasicLuaMe@8
	xor	bl, bl
$LN5@BasicLuaMe@8:
	push	ebp
	push	esi
	call	_lua_settop
	add	esp, 8
	test	bl, bl
	je	SHORT $LN12@BasicLuaMe@8
	push	OFFSET $SG223804
	push	esi
	call	_luaL_error
	push	OFFSET $SG223812
	push	esi
	call	_luaL_error
	add	esp, 16					; 00000010H
$LN12@BasicLuaMe@8:

; 71   : 	CvLuaArgs::pushValue<ret>(L, (pkType->*func)());

	mov	ecx, edi
	call	DWORD PTR _func$[esp+12]
	movzx	eax, al
	push	eax
	push	esi
	call	_lua_pushboolean
	add	esp, 8
	pop	edi
	pop	esi
	pop	ebp

; 72   : 
; 73   : 	return 1;

	mov	eax, 1
	pop	ebx

; 74   : }

	ret	0
??$BasicLuaMethod@_N@?$CvLuaMethodWrapper@VCvLuaCity@@VCvCity@@@@KAHPAUlua_State@@P8CvCity@@BE_NXZ@Z ENDP ; CvLuaMethodWrapper<CvLuaCity,CvCity>::BasicLuaMethod<bool>
_TEXT	ENDS
PUBLIC	??$BasicLuaMethod@HW4UnitTypes@@@?$CvLuaMethodWrapper@VCvLuaCity@@VCvCity@@@@KAHPAUlua_State@@P8CvCity@@AEHW4UnitTypes@@@Z@Z ; CvLuaMethodWrapper<CvLuaCity,CvCity>::BasicLuaMethod<int,enum UnitTypes>
; Function compile flags: /Ogtpy
;	COMDAT ??$BasicLuaMethod@HW4UnitTypes@@@?$CvLuaMethodWrapper@VCvLuaCity@@VCvCity@@@@KAHPAUlua_State@@P8CvCity@@AEHW4UnitTypes@@@Z@Z
_TEXT	SEGMENT
_L$ = 8							; size = 4
_func$ = 12						; size = 4
??$BasicLuaMethod@HW4UnitTypes@@@?$CvLuaMethodWrapper@VCvLuaCity@@VCvCity@@@@KAHPAUlua_State@@P8CvCity@@AEHW4UnitTypes@@@Z@Z PROC ; CvLuaMethodWrapper<CvLuaCity,CvCity>::BasicLuaMethod<int,enum UnitTypes>, COMDAT

; 130  : {

	push	ebx
	push	ebp
	push	esi

; 131  : 	const int idx = Derived::GetStartingArgIndex();
; 132  : 	InstanceType* pkType = Derived::GetInstance(L);

	mov	esi, DWORD PTR _L$[esp+8]
	push	edi
	push	esi
	call	_lua_gettop
	push	1
	push	esi
	mov	ebp, eax
	mov	bl, 1
	xor	edi, edi
	call	_lua_type
	add	esp, 12					; 0000000cH
	cmp	eax, 5
	jne	SHORT $LN7@BasicLuaMe@9
	push	OFFSET $SG223798
	push	1
	push	esi
	call	_lua_getfield
	push	-1
	push	esi
	call	_lua_type
	add	esp, 20					; 00000014H
	cmp	eax, 2
	jne	SHORT $LN7@BasicLuaMe@9
	push	-1
	push	esi
	call	_lua_touserdata
	mov	edi, eax
	add	esp, 8
	test	edi, edi
	je	SHORT $LN7@BasicLuaMe@9
	xor	bl, bl
$LN7@BasicLuaMe@9:
	push	ebp
	push	esi
	call	_lua_settop
	add	esp, 8
	test	bl, bl
	je	SHORT $LN14@BasicLuaMe@9
	push	OFFSET $SG223804
	push	esi
	call	_luaL_error
	push	OFFSET $SG223812
	push	esi
	call	_luaL_error
	add	esp, 16					; 00000010H
$LN14@BasicLuaMe@9:

; 133  : 	CvLuaArgs::pushValue<ret>(L, (pkType->*func)(CvLuaArgs::toValue<arg1>(L, idx)));

	push	2
	push	esi
	call	_lua_tointeger
	add	esp, 8
	push	eax
	mov	ecx, edi
	call	DWORD PTR _func$[esp+16]
	push	eax
	push	esi
	call	_lua_pushinteger
	add	esp, 8
	pop	edi
	pop	esi
	pop	ebp

; 134  : 
; 135  : 	return 1;

	mov	eax, 1
	pop	ebx

; 136  : }

	ret	0
??$BasicLuaMethod@HW4UnitTypes@@@?$CvLuaMethodWrapper@VCvLuaCity@@VCvCity@@@@KAHPAUlua_State@@P8CvCity@@AEHW4UnitTypes@@@Z@Z ENDP ; CvLuaMethodWrapper<CvLuaCity,CvCity>::BasicLuaMethod<int,enum UnitTypes>
_TEXT	ENDS
PUBLIC	??$BasicLuaMethod@W4UnitTypes@@@?$CvLuaMethodWrapper@VCvLuaCity@@VCvCity@@@@KAHPAUlua_State@@P8CvCity@@BE?AW4UnitTypes@@XZ@Z ; CvLuaMethodWrapper<CvLuaCity,CvCity>::BasicLuaMethod<enum UnitTypes>
; Function compile flags: /Ogtpy
;	COMDAT ??$BasicLuaMethod@W4UnitTypes@@@?$CvLuaMethodWrapper@VCvLuaCity@@VCvCity@@@@KAHPAUlua_State@@P8CvCity@@BE?AW4UnitTypes@@XZ@Z
_TEXT	SEGMENT
_L$ = 8							; size = 4
_func$ = 12						; size = 4
??$BasicLuaMethod@W4UnitTypes@@@?$CvLuaMethodWrapper@VCvLuaCity@@VCvCity@@@@KAHPAUlua_State@@P8CvCity@@BE?AW4UnitTypes@@XZ@Z PROC ; CvLuaMethodWrapper<CvLuaCity,CvCity>::BasicLuaMethod<enum UnitTypes>, COMDAT

; 69   : {

	push	ebx
	push	ebp
	push	esi

; 70   : 	InstanceType* pkType = Derived::GetInstance(L);

	mov	esi, DWORD PTR _L$[esp+8]
	push	edi
	push	esi
	call	_lua_gettop
	push	1
	push	esi
	mov	ebp, eax
	mov	bl, 1
	xor	edi, edi
	call	_lua_type
	add	esp, 12					; 0000000cH
	cmp	eax, 5
	jne	SHORT $LN5@BasicLuaMe@10
	push	OFFSET $SG223798
	push	1
	push	esi
	call	_lua_getfield
	push	-1
	push	esi
	call	_lua_type
	add	esp, 20					; 00000014H
	cmp	eax, 2
	jne	SHORT $LN5@BasicLuaMe@10
	push	-1
	push	esi
	call	_lua_touserdata
	mov	edi, eax
	add	esp, 8
	test	edi, edi
	je	SHORT $LN5@BasicLuaMe@10
	xor	bl, bl
$LN5@BasicLuaMe@10:
	push	ebp
	push	esi
	call	_lua_settop
	add	esp, 8
	test	bl, bl
	je	SHORT $LN12@BasicLuaMe@10
	push	OFFSET $SG223804
	push	esi
	call	_luaL_error
	push	OFFSET $SG223812
	push	esi
	call	_luaL_error
	add	esp, 16					; 00000010H
$LN12@BasicLuaMe@10:

; 71   : 	CvLuaArgs::pushValue<ret>(L, (pkType->*func)());

	mov	ecx, edi
	call	DWORD PTR _func$[esp+12]
	push	eax
	push	esi
	call	_lua_pushinteger
	add	esp, 8
	pop	edi
	pop	esi
	pop	ebp

; 72   : 
; 73   : 	return 1;

	mov	eax, 1
	pop	ebx

; 74   : }

	ret	0
??$BasicLuaMethod@W4UnitTypes@@@?$CvLuaMethodWrapper@VCvLuaCity@@VCvCity@@@@KAHPAUlua_State@@P8CvCity@@BE?AW4UnitTypes@@XZ@Z ENDP ; CvLuaMethodWrapper<CvLuaCity,CvCity>::BasicLuaMethod<enum UnitTypes>
_TEXT	ENDS
PUBLIC	??$BasicLuaMethod@W4ProcessTypes@@@?$CvLuaMethodWrapper@VCvLuaCity@@VCvCity@@@@KAHPAUlua_State@@P8CvCity@@BE?AW4ProcessTypes@@XZ@Z ; CvLuaMethodWrapper<CvLuaCity,CvCity>::BasicLuaMethod<enum ProcessTypes>
; Function compile flags: /Ogtpy
;	COMDAT ??$BasicLuaMethod@W4ProcessTypes@@@?$CvLuaMethodWrapper@VCvLuaCity@@VCvCity@@@@KAHPAUlua_State@@P8CvCity@@BE?AW4ProcessTypes@@XZ@Z
_TEXT	SEGMENT
_L$ = 8							; size = 4
_func$ = 12						; size = 4
??$BasicLuaMethod@W4ProcessTypes@@@?$CvLuaMethodWrapper@VCvLuaCity@@VCvCity@@@@KAHPAUlua_State@@P8CvCity@@BE?AW4ProcessTypes@@XZ@Z PROC ; CvLuaMethodWrapper<CvLuaCity,CvCity>::BasicLuaMethod<enum ProcessTypes>, COMDAT

; 69   : {

	push	ebx
	push	ebp
	push	esi

; 70   : 	InstanceType* pkType = Derived::GetInstance(L);

	mov	esi, DWORD PTR _L$[esp+8]
	push	edi
	push	esi
	call	_lua_gettop
	push	1
	push	esi
	mov	ebp, eax
	mov	bl, 1
	xor	edi, edi
	call	_lua_type
	add	esp, 12					; 0000000cH
	cmp	eax, 5
	jne	SHORT $LN5@BasicLuaMe@11
	push	OFFSET $SG223798
	push	1
	push	esi
	call	_lua_getfield
	push	-1
	push	esi
	call	_lua_type
	add	esp, 20					; 00000014H
	cmp	eax, 2
	jne	SHORT $LN5@BasicLuaMe@11
	push	-1
	push	esi
	call	_lua_touserdata
	mov	edi, eax
	add	esp, 8
	test	edi, edi
	je	SHORT $LN5@BasicLuaMe@11
	xor	bl, bl
$LN5@BasicLuaMe@11:
	push	ebp
	push	esi
	call	_lua_settop
	add	esp, 8
	test	bl, bl
	je	SHORT $LN12@BasicLuaMe@11
	push	OFFSET $SG223804
	push	esi
	call	_luaL_error
	push	OFFSET $SG223812
	push	esi
	call	_luaL_error
	add	esp, 16					; 00000010H
$LN12@BasicLuaMe@11:

; 71   : 	CvLuaArgs::pushValue<ret>(L, (pkType->*func)());

	mov	ecx, edi
	call	DWORD PTR _func$[esp+12]
	push	eax
	push	esi
	call	_lua_pushinteger
	add	esp, 8
	pop	edi
	pop	esi
	pop	ebp

; 72   : 
; 73   : 	return 1;

	mov	eax, 1
	pop	ebx

; 74   : }

	ret	0
??$BasicLuaMethod@W4ProcessTypes@@@?$CvLuaMethodWrapper@VCvLuaCity@@VCvCity@@@@KAHPAUlua_State@@P8CvCity@@BE?AW4ProcessTypes@@XZ@Z ENDP ; CvLuaMethodWrapper<CvLuaCity,CvCity>::BasicLuaMethod<enum ProcessTypes>
_TEXT	ENDS
PUBLIC	??$BasicLuaMethod@HW4UnitTypes@@@?$CvLuaMethodWrapper@VCvLuaCity@@VCvCity@@@@KAHPAUlua_State@@P8CvCity@@BEHW4UnitTypes@@@Z@Z ; CvLuaMethodWrapper<CvLuaCity,CvCity>::BasicLuaMethod<int,enum UnitTypes>
; Function compile flags: /Ogtpy
;	COMDAT ??$BasicLuaMethod@HW4UnitTypes@@@?$CvLuaMethodWrapper@VCvLuaCity@@VCvCity@@@@KAHPAUlua_State@@P8CvCity@@BEHW4UnitTypes@@@Z@Z
_TEXT	SEGMENT
_L$ = 8							; size = 4
_func$ = 12						; size = 4
??$BasicLuaMethod@HW4UnitTypes@@@?$CvLuaMethodWrapper@VCvLuaCity@@VCvCity@@@@KAHPAUlua_State@@P8CvCity@@BEHW4UnitTypes@@@Z@Z PROC ; CvLuaMethodWrapper<CvLuaCity,CvCity>::BasicLuaMethod<int,enum UnitTypes>, COMDAT

; 78   : {

	push	ebx
	push	ebp
	push	esi

; 79   : 	const int idx = Derived::GetStartingArgIndex();
; 80   : 	InstanceType* pkType = Derived::GetInstance(L);

	mov	esi, DWORD PTR _L$[esp+8]
	push	edi
	push	esi
	call	_lua_gettop
	push	1
	push	esi
	mov	ebp, eax
	mov	bl, 1
	xor	edi, edi
	call	_lua_type
	add	esp, 12					; 0000000cH
	cmp	eax, 5
	jne	SHORT $LN7@BasicLuaMe@12
	push	OFFSET $SG223798
	push	1
	push	esi
	call	_lua_getfield
	push	-1
	push	esi
	call	_lua_type
	add	esp, 20					; 00000014H
	cmp	eax, 2
	jne	SHORT $LN7@BasicLuaMe@12
	push	-1
	push	esi
	call	_lua_touserdata
	mov	edi, eax
	add	esp, 8
	test	edi, edi
	je	SHORT $LN7@BasicLuaMe@12
	xor	bl, bl
$LN7@BasicLuaMe@12:
	push	ebp
	push	esi
	call	_lua_settop
	add	esp, 8
	test	bl, bl
	je	SHORT $LN14@BasicLuaMe@12
	push	OFFSET $SG223804
	push	esi
	call	_luaL_error
	push	OFFSET $SG223812
	push	esi
	call	_luaL_error
	add	esp, 16					; 00000010H
$LN14@BasicLuaMe@12:

; 81   : 	CvLuaArgs::pushValue<ret>(L, (pkType->*func)(CvLuaArgs::toValue<arg1>(L, idx)));

	push	2
	push	esi
	call	_lua_tointeger
	add	esp, 8
	push	eax
	mov	ecx, edi
	call	DWORD PTR _func$[esp+16]
	push	eax
	push	esi
	call	_lua_pushinteger
	add	esp, 8
	pop	edi
	pop	esi
	pop	ebp

; 82   : 
; 83   : 	return 1;

	mov	eax, 1
	pop	ebx

; 84   : }

	ret	0
??$BasicLuaMethod@HW4UnitTypes@@@?$CvLuaMethodWrapper@VCvLuaCity@@VCvCity@@@@KAHPAUlua_State@@P8CvCity@@BEHW4UnitTypes@@@Z@Z ENDP ; CvLuaMethodWrapper<CvLuaCity,CvCity>::BasicLuaMethod<int,enum UnitTypes>
_TEXT	ENDS
PUBLIC	??$BasicLuaMethod@HW4ProjectTypes@@@?$CvLuaMethodWrapper@VCvLuaCity@@VCvCity@@@@KAHPAUlua_State@@P8CvCity@@BEHW4ProjectTypes@@@Z@Z ; CvLuaMethodWrapper<CvLuaCity,CvCity>::BasicLuaMethod<int,enum ProjectTypes>
; Function compile flags: /Ogtpy
;	COMDAT ??$BasicLuaMethod@HW4ProjectTypes@@@?$CvLuaMethodWrapper@VCvLuaCity@@VCvCity@@@@KAHPAUlua_State@@P8CvCity@@BEHW4ProjectTypes@@@Z@Z
_TEXT	SEGMENT
_L$ = 8							; size = 4
_func$ = 12						; size = 4
??$BasicLuaMethod@HW4ProjectTypes@@@?$CvLuaMethodWrapper@VCvLuaCity@@VCvCity@@@@KAHPAUlua_State@@P8CvCity@@BEHW4ProjectTypes@@@Z@Z PROC ; CvLuaMethodWrapper<CvLuaCity,CvCity>::BasicLuaMethod<int,enum ProjectTypes>, COMDAT

; 78   : {

	push	ebx
	push	ebp
	push	esi

; 79   : 	const int idx = Derived::GetStartingArgIndex();
; 80   : 	InstanceType* pkType = Derived::GetInstance(L);

	mov	esi, DWORD PTR _L$[esp+8]
	push	edi
	push	esi
	call	_lua_gettop
	push	1
	push	esi
	mov	ebp, eax
	mov	bl, 1
	xor	edi, edi
	call	_lua_type
	add	esp, 12					; 0000000cH
	cmp	eax, 5
	jne	SHORT $LN7@BasicLuaMe@13
	push	OFFSET $SG223798
	push	1
	push	esi
	call	_lua_getfield
	push	-1
	push	esi
	call	_lua_type
	add	esp, 20					; 00000014H
	cmp	eax, 2
	jne	SHORT $LN7@BasicLuaMe@13
	push	-1
	push	esi
	call	_lua_touserdata
	mov	edi, eax
	add	esp, 8
	test	edi, edi
	je	SHORT $LN7@BasicLuaMe@13
	xor	bl, bl
$LN7@BasicLuaMe@13:
	push	ebp
	push	esi
	call	_lua_settop
	add	esp, 8
	test	bl, bl
	je	SHORT $LN14@BasicLuaMe@13
	push	OFFSET $SG223804
	push	esi
	call	_luaL_error
	push	OFFSET $SG223812
	push	esi
	call	_luaL_error
	add	esp, 16					; 00000010H
$LN14@BasicLuaMe@13:

; 81   : 	CvLuaArgs::pushValue<ret>(L, (pkType->*func)(CvLuaArgs::toValue<arg1>(L, idx)));

	push	2
	push	esi
	call	_lua_tointeger
	add	esp, 8
	push	eax
	mov	ecx, edi
	call	DWORD PTR _func$[esp+16]
	push	eax
	push	esi
	call	_lua_pushinteger
	add	esp, 8
	pop	edi
	pop	esi
	pop	ebp

; 82   : 
; 83   : 	return 1;

	mov	eax, 1
	pop	ebx

; 84   : }

	ret	0
??$BasicLuaMethod@HW4ProjectTypes@@@?$CvLuaMethodWrapper@VCvLuaCity@@VCvCity@@@@KAHPAUlua_State@@P8CvCity@@BEHW4ProjectTypes@@@Z@Z ENDP ; CvLuaMethodWrapper<CvLuaCity,CvCity>::BasicLuaMethod<int,enum ProjectTypes>
_TEXT	ENDS
PUBLIC	??$BasicLuaMethod@HW4SpecialistTypes@@@?$CvLuaMethodWrapper@VCvLuaCity@@VCvCity@@@@KAHPAUlua_State@@P8CvCity@@BEHW4SpecialistTypes@@@Z@Z ; CvLuaMethodWrapper<CvLuaCity,CvCity>::BasicLuaMethod<int,enum SpecialistTypes>
; Function compile flags: /Ogtpy
;	COMDAT ??$BasicLuaMethod@HW4SpecialistTypes@@@?$CvLuaMethodWrapper@VCvLuaCity@@VCvCity@@@@KAHPAUlua_State@@P8CvCity@@BEHW4SpecialistTypes@@@Z@Z
_TEXT	SEGMENT
_L$ = 8							; size = 4
_func$ = 12						; size = 4
??$BasicLuaMethod@HW4SpecialistTypes@@@?$CvLuaMethodWrapper@VCvLuaCity@@VCvCity@@@@KAHPAUlua_State@@P8CvCity@@BEHW4SpecialistTypes@@@Z@Z PROC ; CvLuaMethodWrapper<CvLuaCity,CvCity>::BasicLuaMethod<int,enum SpecialistTypes>, COMDAT

; 78   : {

	push	ebx
	push	ebp
	push	esi

; 79   : 	const int idx = Derived::GetStartingArgIndex();
; 80   : 	InstanceType* pkType = Derived::GetInstance(L);

	mov	esi, DWORD PTR _L$[esp+8]
	push	edi
	push	esi
	call	_lua_gettop
	push	1
	push	esi
	mov	ebp, eax
	mov	bl, 1
	xor	edi, edi
	call	_lua_type
	add	esp, 12					; 0000000cH
	cmp	eax, 5
	jne	SHORT $LN7@BasicLuaMe@14
	push	OFFSET $SG223798
	push	1
	push	esi
	call	_lua_getfield
	push	-1
	push	esi
	call	_lua_type
	add	esp, 20					; 00000014H
	cmp	eax, 2
	jne	SHORT $LN7@BasicLuaMe@14
	push	-1
	push	esi
	call	_lua_touserdata
	mov	edi, eax
	add	esp, 8
	test	edi, edi
	je	SHORT $LN7@BasicLuaMe@14
	xor	bl, bl
$LN7@BasicLuaMe@14:
	push	ebp
	push	esi
	call	_lua_settop
	add	esp, 8
	test	bl, bl
	je	SHORT $LN14@BasicLuaMe@14
	push	OFFSET $SG223804
	push	esi
	call	_luaL_error
	push	OFFSET $SG223812
	push	esi
	call	_luaL_error
	add	esp, 16					; 00000010H
$LN14@BasicLuaMe@14:

; 81   : 	CvLuaArgs::pushValue<ret>(L, (pkType->*func)(CvLuaArgs::toValue<arg1>(L, idx)));

	push	2
	push	esi
	call	_lua_tointeger
	add	esp, 8
	push	eax
	mov	ecx, edi
	call	DWORD PTR _func$[esp+16]
	push	eax
	push	esi
	call	_lua_pushinteger
	add	esp, 8
	pop	edi
	pop	esi
	pop	ebp

; 82   : 
; 83   : 	return 1;

	mov	eax, 1
	pop	ebx

; 84   : }

	ret	0
??$BasicLuaMethod@HW4SpecialistTypes@@@?$CvLuaMethodWrapper@VCvLuaCity@@VCvCity@@@@KAHPAUlua_State@@P8CvCity@@BEHW4SpecialistTypes@@@Z@Z ENDP ; CvLuaMethodWrapper<CvLuaCity,CvCity>::BasicLuaMethod<int,enum SpecialistTypes>
_TEXT	ENDS
PUBLIC	??$BasicLuaMethod@HW4UnitAITypes@@@?$CvLuaMethodWrapper@VCvLuaCity@@VCvCity@@@@KAHPAUlua_State@@P8CvCity@@BEHW4UnitAITypes@@@Z@Z ; CvLuaMethodWrapper<CvLuaCity,CvCity>::BasicLuaMethod<int,enum UnitAITypes>
; Function compile flags: /Ogtpy
;	COMDAT ??$BasicLuaMethod@HW4UnitAITypes@@@?$CvLuaMethodWrapper@VCvLuaCity@@VCvCity@@@@KAHPAUlua_State@@P8CvCity@@BEHW4UnitAITypes@@@Z@Z
_TEXT	SEGMENT
_L$ = 8							; size = 4
_func$ = 12						; size = 4
??$BasicLuaMethod@HW4UnitAITypes@@@?$CvLuaMethodWrapper@VCvLuaCity@@VCvCity@@@@KAHPAUlua_State@@P8CvCity@@BEHW4UnitAITypes@@@Z@Z PROC ; CvLuaMethodWrapper<CvLuaCity,CvCity>::BasicLuaMethod<int,enum UnitAITypes>, COMDAT

; 78   : {

	push	ebx
	push	ebp
	push	esi

; 79   : 	const int idx = Derived::GetStartingArgIndex();
; 80   : 	InstanceType* pkType = Derived::GetInstance(L);

	mov	esi, DWORD PTR _L$[esp+8]
	push	edi
	push	esi
	call	_lua_gettop
	push	1
	push	esi
	mov	ebp, eax
	mov	bl, 1
	xor	edi, edi
	call	_lua_type
	add	esp, 12					; 0000000cH
	cmp	eax, 5
	jne	SHORT $LN7@BasicLuaMe@15
	push	OFFSET $SG223798
	push	1
	push	esi
	call	_lua_getfield
	push	-1
	push	esi
	call	_lua_type
	add	esp, 20					; 00000014H
	cmp	eax, 2
	jne	SHORT $LN7@BasicLuaMe@15
	push	-1
	push	esi
	call	_lua_touserdata
	mov	edi, eax
	add	esp, 8
	test	edi, edi
	je	SHORT $LN7@BasicLuaMe@15
	xor	bl, bl
$LN7@BasicLuaMe@15:
	push	ebp
	push	esi
	call	_lua_settop
	add	esp, 8
	test	bl, bl
	je	SHORT $LN14@BasicLuaMe@15
	push	OFFSET $SG223804
	push	esi
	call	_luaL_error
	push	OFFSET $SG223812
	push	esi
	call	_luaL_error
	add	esp, 16					; 00000010H
$LN14@BasicLuaMe@15:

; 81   : 	CvLuaArgs::pushValue<ret>(L, (pkType->*func)(CvLuaArgs::toValue<arg1>(L, idx)));

	push	2
	push	esi
	call	_lua_tointeger
	add	esp, 8
	push	eax
	mov	ecx, edi
	call	DWORD PTR _func$[esp+16]
	push	eax
	push	esi
	call	_lua_pushinteger
	add	esp, 8
	pop	edi
	pop	esi
	pop	ebp

; 82   : 
; 83   : 	return 1;

	mov	eax, 1
	pop	ebx

; 84   : }

	ret	0
??$BasicLuaMethod@HW4UnitAITypes@@@?$CvLuaMethodWrapper@VCvLuaCity@@VCvCity@@@@KAHPAUlua_State@@P8CvCity@@BEHW4UnitAITypes@@@Z@Z ENDP ; CvLuaMethodWrapper<CvLuaCity,CvCity>::BasicLuaMethod<int,enum UnitAITypes>
_TEXT	ENDS
PUBLIC	??$BasicLuaMethod@HW4BuildingTypes@@@?$CvLuaMethodWrapper@VCvLuaCity@@VCvCity@@@@KAHPAUlua_State@@P8CvCity@@BEHW4BuildingTypes@@@Z@Z ; CvLuaMethodWrapper<CvLuaCity,CvCity>::BasicLuaMethod<int,enum BuildingTypes>
; Function compile flags: /Ogtpy
;	COMDAT ??$BasicLuaMethod@HW4BuildingTypes@@@?$CvLuaMethodWrapper@VCvLuaCity@@VCvCity@@@@KAHPAUlua_State@@P8CvCity@@BEHW4BuildingTypes@@@Z@Z
_TEXT	SEGMENT
_L$ = 8							; size = 4
_func$ = 12						; size = 4
??$BasicLuaMethod@HW4BuildingTypes@@@?$CvLuaMethodWrapper@VCvLuaCity@@VCvCity@@@@KAHPAUlua_State@@P8CvCity@@BEHW4BuildingTypes@@@Z@Z PROC ; CvLuaMethodWrapper<CvLuaCity,CvCity>::BasicLuaMethod<int,enum BuildingTypes>, COMDAT

; 78   : {

	push	ebx
	push	ebp
	push	esi

; 79   : 	const int idx = Derived::GetStartingArgIndex();
; 80   : 	InstanceType* pkType = Derived::GetInstance(L);

	mov	esi, DWORD PTR _L$[esp+8]
	push	edi
	push	esi
	call	_lua_gettop
	push	1
	push	esi
	mov	ebp, eax
	mov	bl, 1
	xor	edi, edi
	call	_lua_type
	add	esp, 12					; 0000000cH
	cmp	eax, 5
	jne	SHORT $LN7@BasicLuaMe@16
	push	OFFSET $SG223798
	push	1
	push	esi
	call	_lua_getfield
	push	-1
	push	esi
	call	_lua_type
	add	esp, 20					; 00000014H
	cmp	eax, 2
	jne	SHORT $LN7@BasicLuaMe@16
	push	-1
	push	esi
	call	_lua_touserdata
	mov	edi, eax
	add	esp, 8
	test	edi, edi
	je	SHORT $LN7@BasicLuaMe@16
	xor	bl, bl
$LN7@BasicLuaMe@16:
	push	ebp
	push	esi
	call	_lua_settop
	add	esp, 8
	test	bl, bl
	je	SHORT $LN14@BasicLuaMe@16
	push	OFFSET $SG223804
	push	esi
	call	_luaL_error
	push	OFFSET $SG223812
	push	esi
	call	_luaL_error
	add	esp, 16					; 00000010H
$LN14@BasicLuaMe@16:

; 81   : 	CvLuaArgs::pushValue<ret>(L, (pkType->*func)(CvLuaArgs::toValue<arg1>(L, idx)));

	push	2
	push	esi
	call	_lua_tointeger
	add	esp, 8
	push	eax
	mov	ecx, edi
	call	DWORD PTR _func$[esp+16]
	push	eax
	push	esi
	call	_lua_pushinteger
	add	esp, 8
	pop	edi
	pop	esi
	pop	ebp

; 82   : 
; 83   : 	return 1;

	mov	eax, 1
	pop	ebx

; 84   : }

	ret	0
??$BasicLuaMethod@HW4BuildingTypes@@@?$CvLuaMethodWrapper@VCvLuaCity@@VCvCity@@@@KAHPAUlua_State@@P8CvCity@@BEHW4BuildingTypes@@@Z@Z ENDP ; CvLuaMethodWrapper<CvLuaCity,CvCity>::BasicLuaMethod<int,enum BuildingTypes>
_TEXT	ENDS
PUBLIC	??$BasicLuaMethod@_NW4UnitTypes@@@?$CvLuaMethodWrapper@VCvLuaCity@@VCvCity@@@@KAHPAUlua_State@@P8CvCity@@BE_NW4UnitTypes@@@Z@Z ; CvLuaMethodWrapper<CvLuaCity,CvCity>::BasicLuaMethod<bool,enum UnitTypes>
; Function compile flags: /Ogtpy
;	COMDAT ??$BasicLuaMethod@_NW4UnitTypes@@@?$CvLuaMethodWrapper@VCvLuaCity@@VCvCity@@@@KAHPAUlua_State@@P8CvCity@@BE_NW4UnitTypes@@@Z@Z
_TEXT	SEGMENT
_L$ = 8							; size = 4
_func$ = 12						; size = 4
??$BasicLuaMethod@_NW4UnitTypes@@@?$CvLuaMethodWrapper@VCvLuaCity@@VCvCity@@@@KAHPAUlua_State@@P8CvCity@@BE_NW4UnitTypes@@@Z@Z PROC ; CvLuaMethodWrapper<CvLuaCity,CvCity>::BasicLuaMethod<bool,enum UnitTypes>, COMDAT

; 78   : {

	push	ebx
	push	ebp
	push	esi

; 79   : 	const int idx = Derived::GetStartingArgIndex();
; 80   : 	InstanceType* pkType = Derived::GetInstance(L);

	mov	esi, DWORD PTR _L$[esp+8]
	push	edi
	push	esi
	call	_lua_gettop
	push	1
	push	esi
	mov	ebp, eax
	mov	bl, 1
	xor	edi, edi
	call	_lua_type
	add	esp, 12					; 0000000cH
	cmp	eax, 5
	jne	SHORT $LN7@BasicLuaMe@17
	push	OFFSET $SG223798
	push	1
	push	esi
	call	_lua_getfield
	push	-1
	push	esi
	call	_lua_type
	add	esp, 20					; 00000014H
	cmp	eax, 2
	jne	SHORT $LN7@BasicLuaMe@17
	push	-1
	push	esi
	call	_lua_touserdata
	mov	edi, eax
	add	esp, 8
	test	edi, edi
	je	SHORT $LN7@BasicLuaMe@17
	xor	bl, bl
$LN7@BasicLuaMe@17:
	push	ebp
	push	esi
	call	_lua_settop
	add	esp, 8
	test	bl, bl
	je	SHORT $LN14@BasicLuaMe@17
	push	OFFSET $SG223804
	push	esi
	call	_luaL_error
	push	OFFSET $SG223812
	push	esi
	call	_luaL_error
	add	esp, 16					; 00000010H
$LN14@BasicLuaMe@17:

; 81   : 	CvLuaArgs::pushValue<ret>(L, (pkType->*func)(CvLuaArgs::toValue<arg1>(L, idx)));

	push	2
	push	esi
	call	_lua_tointeger
	add	esp, 8
	push	eax
	mov	ecx, edi
	call	DWORD PTR _func$[esp+16]
	movzx	eax, al
	push	eax
	push	esi
	call	_lua_pushboolean
	add	esp, 8
	pop	edi
	pop	esi
	pop	ebp

; 82   : 
; 83   : 	return 1;

	mov	eax, 1
	pop	ebx

; 84   : }

	ret	0
??$BasicLuaMethod@_NW4UnitTypes@@@?$CvLuaMethodWrapper@VCvLuaCity@@VCvCity@@@@KAHPAUlua_State@@P8CvCity@@BE_NW4UnitTypes@@@Z@Z ENDP ; CvLuaMethodWrapper<CvLuaCity,CvCity>::BasicLuaMethod<bool,enum UnitTypes>
_TEXT	ENDS
PUBLIC	??$BasicLuaMethod@HW4UnitTypes@@H@?$CvLuaMethodWrapper@VCvLuaCity@@VCvCity@@@@KAHPAUlua_State@@P8CvCity@@BEHW4UnitTypes@@H@Z@Z ; CvLuaMethodWrapper<CvLuaCity,CvCity>::BasicLuaMethod<int,enum UnitTypes,int>
; Function compile flags: /Ogtpy
;	COMDAT ??$BasicLuaMethod@HW4UnitTypes@@H@?$CvLuaMethodWrapper@VCvLuaCity@@VCvCity@@@@KAHPAUlua_State@@P8CvCity@@BEHW4UnitTypes@@H@Z@Z
_TEXT	SEGMENT
_L$ = 8							; size = 4
_func$ = 12						; size = 4
??$BasicLuaMethod@HW4UnitTypes@@H@?$CvLuaMethodWrapper@VCvLuaCity@@VCvCity@@@@KAHPAUlua_State@@P8CvCity@@BEHW4UnitTypes@@H@Z@Z PROC ; CvLuaMethodWrapper<CvLuaCity,CvCity>::BasicLuaMethod<int,enum UnitTypes,int>, COMDAT

; 88   : {

	push	ebx
	push	ebp
	push	esi

; 89   : 	const int idx = Derived::GetStartingArgIndex();
; 90   : 	InstanceType* pkType = Derived::GetInstance(L);

	mov	esi, DWORD PTR _L$[esp+8]
	push	edi
	push	esi
	call	_lua_gettop
	push	1
	push	esi
	mov	ebp, eax
	mov	bl, 1
	xor	edi, edi
	call	_lua_type
	add	esp, 12					; 0000000cH
	cmp	eax, 5
	jne	SHORT $LN7@BasicLuaMe@18
	push	OFFSET $SG223798
	push	1
	push	esi
	call	_lua_getfield
	push	-1
	push	esi
	call	_lua_type
	add	esp, 20					; 00000014H
	cmp	eax, 2
	jne	SHORT $LN7@BasicLuaMe@18
	push	-1
	push	esi
	call	_lua_touserdata
	mov	edi, eax
	add	esp, 8
	test	edi, edi
	je	SHORT $LN7@BasicLuaMe@18
	xor	bl, bl
$LN7@BasicLuaMe@18:
	push	ebp
	push	esi
	call	_lua_settop
	add	esp, 8
	test	bl, bl
	je	SHORT $LN14@BasicLuaMe@18
	push	OFFSET $SG223804
	push	esi
	call	_luaL_error
	push	OFFSET $SG223812
	push	esi
	call	_luaL_error
	add	esp, 16					; 00000010H
$LN14@BasicLuaMe@18:

; 91   : 	CvLuaArgs::pushValue<ret>(L, (pkType->*func)(CvLuaArgs::toValue<arg1>(L, idx), CvLuaArgs::toValue<arg2>(L, idx + 1)));

	push	3
	push	esi
	call	_lua_tointeger
	push	2
	push	esi
	mov	ebx, eax
	call	_lua_tointeger
	add	esp, 16					; 00000010H
	push	ebx
	push	eax
	mov	ecx, edi
	call	DWORD PTR _func$[esp+20]
	push	eax
	push	esi
	call	_lua_pushinteger
	add	esp, 8
	pop	edi
	pop	esi
	pop	ebp

; 92   : 
; 93   : 	return 1;

	mov	eax, 1
	pop	ebx

; 94   : }

	ret	0
??$BasicLuaMethod@HW4UnitTypes@@H@?$CvLuaMethodWrapper@VCvLuaCity@@VCvCity@@@@KAHPAUlua_State@@P8CvCity@@BEHW4UnitTypes@@H@Z@Z ENDP ; CvLuaMethodWrapper<CvLuaCity,CvCity>::BasicLuaMethod<int,enum UnitTypes,int>
_TEXT	ENDS
PUBLIC	??$BasicLuaMethod@HW4BuildingTypes@@H@?$CvLuaMethodWrapper@VCvLuaCity@@VCvCity@@@@KAHPAUlua_State@@P8CvCity@@BEHW4BuildingTypes@@H@Z@Z ; CvLuaMethodWrapper<CvLuaCity,CvCity>::BasicLuaMethod<int,enum BuildingTypes,int>
; Function compile flags: /Ogtpy
;	COMDAT ??$BasicLuaMethod@HW4BuildingTypes@@H@?$CvLuaMethodWrapper@VCvLuaCity@@VCvCity@@@@KAHPAUlua_State@@P8CvCity@@BEHW4BuildingTypes@@H@Z@Z
_TEXT	SEGMENT
_L$ = 8							; size = 4
_func$ = 12						; size = 4
??$BasicLuaMethod@HW4BuildingTypes@@H@?$CvLuaMethodWrapper@VCvLuaCity@@VCvCity@@@@KAHPAUlua_State@@P8CvCity@@BEHW4BuildingTypes@@H@Z@Z PROC ; CvLuaMethodWrapper<CvLuaCity,CvCity>::BasicLuaMethod<int,enum BuildingTypes,int>, COMDAT

; 88   : {

	push	ebx
	push	ebp
	push	esi

; 89   : 	const int idx = Derived::GetStartingArgIndex();
; 90   : 	InstanceType* pkType = Derived::GetInstance(L);

	mov	esi, DWORD PTR _L$[esp+8]
	push	edi
	push	esi
	call	_lua_gettop
	push	1
	push	esi
	mov	ebp, eax
	mov	bl, 1
	xor	edi, edi
	call	_lua_type
	add	esp, 12					; 0000000cH
	cmp	eax, 5
	jne	SHORT $LN7@BasicLuaMe@19
	push	OFFSET $SG223798
	push	1
	push	esi
	call	_lua_getfield
	push	-1
	push	esi
	call	_lua_type
	add	esp, 20					; 00000014H
	cmp	eax, 2
	jne	SHORT $LN7@BasicLuaMe@19
	push	-1
	push	esi
	call	_lua_touserdata
	mov	edi, eax
	add	esp, 8
	test	edi, edi
	je	SHORT $LN7@BasicLuaMe@19
	xor	bl, bl
$LN7@BasicLuaMe@19:
	push	ebp
	push	esi
	call	_lua_settop
	add	esp, 8
	test	bl, bl
	je	SHORT $LN14@BasicLuaMe@19
	push	OFFSET $SG223804
	push	esi
	call	_luaL_error
	push	OFFSET $SG223812
	push	esi
	call	_luaL_error
	add	esp, 16					; 00000010H
$LN14@BasicLuaMe@19:

; 91   : 	CvLuaArgs::pushValue<ret>(L, (pkType->*func)(CvLuaArgs::toValue<arg1>(L, idx), CvLuaArgs::toValue<arg2>(L, idx + 1)));

	push	3
	push	esi
	call	_lua_tointeger
	push	2
	push	esi
	mov	ebx, eax
	call	_lua_tointeger
	add	esp, 16					; 00000010H
	push	ebx
	push	eax
	mov	ecx, edi
	call	DWORD PTR _func$[esp+20]
	push	eax
	push	esi
	call	_lua_pushinteger
	add	esp, 8
	pop	edi
	pop	esi
	pop	ebp

; 92   : 
; 93   : 	return 1;

	mov	eax, 1
	pop	ebx

; 94   : }

	ret	0
??$BasicLuaMethod@HW4BuildingTypes@@H@?$CvLuaMethodWrapper@VCvLuaCity@@VCvCity@@@@KAHPAUlua_State@@P8CvCity@@BEHW4BuildingTypes@@H@Z@Z ENDP ; CvLuaMethodWrapper<CvLuaCity,CvCity>::BasicLuaMethod<int,enum BuildingTypes,int>
_TEXT	ENDS
PUBLIC	??$BasicLuaMethod@HW4ProjectTypes@@H@?$CvLuaMethodWrapper@VCvLuaCity@@VCvCity@@@@KAHPAUlua_State@@P8CvCity@@BEHW4ProjectTypes@@H@Z@Z ; CvLuaMethodWrapper<CvLuaCity,CvCity>::BasicLuaMethod<int,enum ProjectTypes,int>
; Function compile flags: /Ogtpy
;	COMDAT ??$BasicLuaMethod@HW4ProjectTypes@@H@?$CvLuaMethodWrapper@VCvLuaCity@@VCvCity@@@@KAHPAUlua_State@@P8CvCity@@BEHW4ProjectTypes@@H@Z@Z
_TEXT	SEGMENT
_L$ = 8							; size = 4
_func$ = 12						; size = 4
??$BasicLuaMethod@HW4ProjectTypes@@H@?$CvLuaMethodWrapper@VCvLuaCity@@VCvCity@@@@KAHPAUlua_State@@P8CvCity@@BEHW4ProjectTypes@@H@Z@Z PROC ; CvLuaMethodWrapper<CvLuaCity,CvCity>::BasicLuaMethod<int,enum ProjectTypes,int>, COMDAT

; 88   : {

	push	ebx
	push	ebp
	push	esi

; 89   : 	const int idx = Derived::GetStartingArgIndex();
; 90   : 	InstanceType* pkType = Derived::GetInstance(L);

	mov	esi, DWORD PTR _L$[esp+8]
	push	edi
	push	esi
	call	_lua_gettop
	push	1
	push	esi
	mov	ebp, eax
	mov	bl, 1
	xor	edi, edi
	call	_lua_type
	add	esp, 12					; 0000000cH
	cmp	eax, 5
	jne	SHORT $LN7@BasicLuaMe@20
	push	OFFSET $SG223798
	push	1
	push	esi
	call	_lua_getfield
	push	-1
	push	esi
	call	_lua_type
	add	esp, 20					; 00000014H
	cmp	eax, 2
	jne	SHORT $LN7@BasicLuaMe@20
	push	-1
	push	esi
	call	_lua_touserdata
	mov	edi, eax
	add	esp, 8
	test	edi, edi
	je	SHORT $LN7@BasicLuaMe@20
	xor	bl, bl
$LN7@BasicLuaMe@20:
	push	ebp
	push	esi
	call	_lua_settop
	add	esp, 8
	test	bl, bl
	je	SHORT $LN14@BasicLuaMe@20
	push	OFFSET $SG223804
	push	esi
	call	_luaL_error
	push	OFFSET $SG223812
	push	esi
	call	_luaL_error
	add	esp, 16					; 00000010H
$LN14@BasicLuaMe@20:

; 91   : 	CvLuaArgs::pushValue<ret>(L, (pkType->*func)(CvLuaArgs::toValue<arg1>(L, idx), CvLuaArgs::toValue<arg2>(L, idx + 1)));

	push	3
	push	esi
	call	_lua_tointeger
	push	2
	push	esi
	mov	ebx, eax
	call	_lua_tointeger
	add	esp, 16					; 00000010H
	push	ebx
	push	eax
	mov	ecx, edi
	call	DWORD PTR _func$[esp+20]
	push	eax
	push	esi
	call	_lua_pushinteger
	add	esp, 8
	pop	edi
	pop	esi
	pop	ebp

; 92   : 
; 93   : 	return 1;

	mov	eax, 1
	pop	ebx

; 94   : }

	ret	0
??$BasicLuaMethod@HW4ProjectTypes@@H@?$CvLuaMethodWrapper@VCvLuaCity@@VCvCity@@@@KAHPAUlua_State@@P8CvCity@@BEHW4ProjectTypes@@H@Z@Z ENDP ; CvLuaMethodWrapper<CvLuaCity,CvCity>::BasicLuaMethod<int,enum ProjectTypes,int>
_TEXT	ENDS
PUBLIC	??$BasicLuaMethod@HW4SpecialistTypes@@H@?$CvLuaMethodWrapper@VCvLuaCity@@VCvCity@@@@KAHPAUlua_State@@P8CvCity@@BEHW4SpecialistTypes@@H@Z@Z ; CvLuaMethodWrapper<CvLuaCity,CvCity>::BasicLuaMethod<int,enum SpecialistTypes,int>
; Function compile flags: /Ogtpy
;	COMDAT ??$BasicLuaMethod@HW4SpecialistTypes@@H@?$CvLuaMethodWrapper@VCvLuaCity@@VCvCity@@@@KAHPAUlua_State@@P8CvCity@@BEHW4SpecialistTypes@@H@Z@Z
_TEXT	SEGMENT
_L$ = 8							; size = 4
_func$ = 12						; size = 4
??$BasicLuaMethod@HW4SpecialistTypes@@H@?$CvLuaMethodWrapper@VCvLuaCity@@VCvCity@@@@KAHPAUlua_State@@P8CvCity@@BEHW4SpecialistTypes@@H@Z@Z PROC ; CvLuaMethodWrapper<CvLuaCity,CvCity>::BasicLuaMethod<int,enum SpecialistTypes,int>, COMDAT

; 88   : {

	push	ebx
	push	ebp
	push	esi

; 89   : 	const int idx = Derived::GetStartingArgIndex();
; 90   : 	InstanceType* pkType = Derived::GetInstance(L);

	mov	esi, DWORD PTR _L$[esp+8]
	push	edi
	push	esi
	call	_lua_gettop
	push	1
	push	esi
	mov	ebp, eax
	mov	bl, 1
	xor	edi, edi
	call	_lua_type
	add	esp, 12					; 0000000cH
	cmp	eax, 5
	jne	SHORT $LN7@BasicLuaMe@21
	push	OFFSET $SG223798
	push	1
	push	esi
	call	_lua_getfield
	push	-1
	push	esi
	call	_lua_type
	add	esp, 20					; 00000014H
	cmp	eax, 2
	jne	SHORT $LN7@BasicLuaMe@21
	push	-1
	push	esi
	call	_lua_touserdata
	mov	edi, eax
	add	esp, 8
	test	edi, edi
	je	SHORT $LN7@BasicLuaMe@21
	xor	bl, bl
$LN7@BasicLuaMe@21:
	push	ebp
	push	esi
	call	_lua_settop
	add	esp, 8
	test	bl, bl
	je	SHORT $LN14@BasicLuaMe@21
	push	OFFSET $SG223804
	push	esi
	call	_luaL_error
	push	OFFSET $SG223812
	push	esi
	call	_luaL_error
	add	esp, 16					; 00000010H
$LN14@BasicLuaMe@21:

; 91   : 	CvLuaArgs::pushValue<ret>(L, (pkType->*func)(CvLuaArgs::toValue<arg1>(L, idx), CvLuaArgs::toValue<arg2>(L, idx + 1)));

	push	3
	push	esi
	call	_lua_tointeger
	push	2
	push	esi
	mov	ebx, eax
	call	_lua_tointeger
	add	esp, 16					; 00000010H
	push	ebx
	push	eax
	mov	ecx, edi
	call	DWORD PTR _func$[esp+20]
	push	eax
	push	esi
	call	_lua_pushinteger
	add	esp, 8
	pop	edi
	pop	esi
	pop	ebp

; 92   : 
; 93   : 	return 1;

	mov	eax, 1
	pop	ebx

; 94   : }

	ret	0
??$BasicLuaMethod@HW4SpecialistTypes@@H@?$CvLuaMethodWrapper@VCvLuaCity@@VCvCity@@@@KAHPAUlua_State@@P8CvCity@@BEHW4SpecialistTypes@@H@Z@Z ENDP ; CvLuaMethodWrapper<CvLuaCity,CvCity>::BasicLuaMethod<int,enum SpecialistTypes,int>
_TEXT	ENDS
PUBLIC	??$BasicLuaMethod@HW4UnitTypes@@_N@?$CvLuaMethodWrapper@VCvLuaCity@@VCvCity@@@@KAHPAUlua_State@@P8CvCity@@AEHW4UnitTypes@@_N@Z@Z ; CvLuaMethodWrapper<CvLuaCity,CvCity>::BasicLuaMethod<int,enum UnitTypes,bool>
; Function compile flags: /Ogtpy
;	COMDAT ??$BasicLuaMethod@HW4UnitTypes@@_N@?$CvLuaMethodWrapper@VCvLuaCity@@VCvCity@@@@KAHPAUlua_State@@P8CvCity@@AEHW4UnitTypes@@_N@Z@Z
_TEXT	SEGMENT
$T226183 = -4						; size = 1
_L$ = 8							; size = 4
_func$ = 12						; size = 4
??$BasicLuaMethod@HW4UnitTypes@@_N@?$CvLuaMethodWrapper@VCvLuaCity@@VCvCity@@@@KAHPAUlua_State@@P8CvCity@@AEHW4UnitTypes@@_N@Z@Z PROC ; CvLuaMethodWrapper<CvLuaCity,CvCity>::BasicLuaMethod<int,enum UnitTypes,bool>, COMDAT

; 140  : {

	push	ecx
	push	ebx
	push	ebp
	push	esi

; 141  : 	const int idx = Derived::GetStartingArgIndex();
; 142  : 	InstanceType* pkType = Derived::GetInstance(L);

	mov	esi, DWORD PTR _L$[esp+12]
	push	edi
	push	esi
	call	_lua_gettop
	push	1
	push	esi
	mov	ebp, eax
	mov	bl, 1
	xor	edi, edi
	call	_lua_type
	add	esp, 12					; 0000000cH
	cmp	eax, 5
	jne	SHORT $LN7@BasicLuaMe@22
	push	OFFSET $SG223798
	push	1
	push	esi
	call	_lua_getfield
	push	-1
	push	esi
	call	_lua_type
	add	esp, 20					; 00000014H
	cmp	eax, 2
	jne	SHORT $LN7@BasicLuaMe@22
	push	-1
	push	esi
	call	_lua_touserdata
	mov	edi, eax
	add	esp, 8
	test	edi, edi
	je	SHORT $LN7@BasicLuaMe@22
	xor	bl, bl
$LN7@BasicLuaMe@22:
	push	ebp
	push	esi
	call	_lua_settop
	add	esp, 8
	test	bl, bl
	je	SHORT $LN14@BasicLuaMe@22
	push	OFFSET $SG223804
	push	esi
	call	_luaL_error
	push	OFFSET $SG223812
	push	esi
	call	_luaL_error
	add	esp, 16					; 00000010H
$LN14@BasicLuaMe@22:

; 143  : 	CvLuaArgs::pushValue<ret>(L, (pkType->*func)(CvLuaArgs::toValue<arg1>(L, idx), CvLuaArgs::toValue<arg2>(L, idx + 1)));

	push	3
	push	esi
	call	_lua_toboolean
	test	eax, eax
	setne	al
	push	2
	push	esi
	mov	BYTE PTR $T226183[esp+36], al
	call	_lua_tointeger
	mov	ecx, DWORD PTR $T226183[esp+36]
	add	esp, 16					; 00000010H
	push	ecx
	push	eax
	mov	ecx, edi
	call	DWORD PTR _func$[esp+24]
	push	eax
	push	esi
	call	_lua_pushinteger
	add	esp, 8
	pop	edi
	pop	esi
	pop	ebp

; 144  : 
; 145  : 	return 1;

	mov	eax, 1
	pop	ebx

; 146  : }

	pop	ecx
	ret	0
??$BasicLuaMethod@HW4UnitTypes@@_N@?$CvLuaMethodWrapper@VCvLuaCity@@VCvCity@@@@KAHPAUlua_State@@P8CvCity@@AEHW4UnitTypes@@_N@Z@Z ENDP ; CvLuaMethodWrapper<CvLuaCity,CvCity>::BasicLuaMethod<int,enum UnitTypes,bool>
_TEXT	ENDS
PUBLIC	??$BasicLuaMethod@HW4BuildingTypes@@@?$CvLuaMethodWrapper@VCvLuaCity@@VCvCity@@@@KAHPAUlua_State@@P8CvCity@@AEHW4BuildingTypes@@@Z@Z ; CvLuaMethodWrapper<CvLuaCity,CvCity>::BasicLuaMethod<int,enum BuildingTypes>
; Function compile flags: /Ogtpy
;	COMDAT ??$BasicLuaMethod@HW4BuildingTypes@@@?$CvLuaMethodWrapper@VCvLuaCity@@VCvCity@@@@KAHPAUlua_State@@P8CvCity@@AEHW4BuildingTypes@@@Z@Z
_TEXT	SEGMENT
_L$ = 8							; size = 4
_func$ = 12						; size = 4
??$BasicLuaMethod@HW4BuildingTypes@@@?$CvLuaMethodWrapper@VCvLuaCity@@VCvCity@@@@KAHPAUlua_State@@P8CvCity@@AEHW4BuildingTypes@@@Z@Z PROC ; CvLuaMethodWrapper<CvLuaCity,CvCity>::BasicLuaMethod<int,enum BuildingTypes>, COMDAT

; 130  : {

	push	ebx
	push	ebp
	push	esi

; 131  : 	const int idx = Derived::GetStartingArgIndex();
; 132  : 	InstanceType* pkType = Derived::GetInstance(L);

	mov	esi, DWORD PTR _L$[esp+8]
	push	edi
	push	esi
	call	_lua_gettop
	push	1
	push	esi
	mov	ebp, eax
	mov	bl, 1
	xor	edi, edi
	call	_lua_type
	add	esp, 12					; 0000000cH
	cmp	eax, 5
	jne	SHORT $LN7@BasicLuaMe@23
	push	OFFSET $SG223798
	push	1
	push	esi
	call	_lua_getfield
	push	-1
	push	esi
	call	_lua_type
	add	esp, 20					; 00000014H
	cmp	eax, 2
	jne	SHORT $LN7@BasicLuaMe@23
	push	-1
	push	esi
	call	_lua_touserdata
	mov	edi, eax
	add	esp, 8
	test	edi, edi
	je	SHORT $LN7@BasicLuaMe@23
	xor	bl, bl
$LN7@BasicLuaMe@23:
	push	ebp
	push	esi
	call	_lua_settop
	add	esp, 8
	test	bl, bl
	je	SHORT $LN14@BasicLuaMe@23
	push	OFFSET $SG223804
	push	esi
	call	_luaL_error
	push	OFFSET $SG223812
	push	esi
	call	_luaL_error
	add	esp, 16					; 00000010H
$LN14@BasicLuaMe@23:

; 133  : 	CvLuaArgs::pushValue<ret>(L, (pkType->*func)(CvLuaArgs::toValue<arg1>(L, idx)));

	push	2
	push	esi
	call	_lua_tointeger
	add	esp, 8
	push	eax
	mov	ecx, edi
	call	DWORD PTR _func$[esp+16]
	push	eax
	push	esi
	call	_lua_pushinteger
	add	esp, 8
	pop	edi
	pop	esi
	pop	ebp

; 134  : 
; 135  : 	return 1;

	mov	eax, 1
	pop	ebx

; 136  : }

	ret	0
??$BasicLuaMethod@HW4BuildingTypes@@@?$CvLuaMethodWrapper@VCvLuaCity@@VCvCity@@@@KAHPAUlua_State@@P8CvCity@@AEHW4BuildingTypes@@@Z@Z ENDP ; CvLuaMethodWrapper<CvLuaCity,CvCity>::BasicLuaMethod<int,enum BuildingTypes>
_TEXT	ENDS
PUBLIC	??$BasicLuaMethod@HW4ProjectTypes@@@?$CvLuaMethodWrapper@VCvLuaCity@@VCvCity@@@@KAHPAUlua_State@@P8CvCity@@AEHW4ProjectTypes@@@Z@Z ; CvLuaMethodWrapper<CvLuaCity,CvCity>::BasicLuaMethod<int,enum ProjectTypes>
; Function compile flags: /Ogtpy
;	COMDAT ??$BasicLuaMethod@HW4ProjectTypes@@@?$CvLuaMethodWrapper@VCvLuaCity@@VCvCity@@@@KAHPAUlua_State@@P8CvCity@@AEHW4ProjectTypes@@@Z@Z
_TEXT	SEGMENT
_L$ = 8							; size = 4
_func$ = 12						; size = 4
??$BasicLuaMethod@HW4ProjectTypes@@@?$CvLuaMethodWrapper@VCvLuaCity@@VCvCity@@@@KAHPAUlua_State@@P8CvCity@@AEHW4ProjectTypes@@@Z@Z PROC ; CvLuaMethodWrapper<CvLuaCity,CvCity>::BasicLuaMethod<int,enum ProjectTypes>, COMDAT

; 130  : {

	push	ebx
	push	ebp
	push	esi

; 131  : 	const int idx = Derived::GetStartingArgIndex();
; 132  : 	InstanceType* pkType = Derived::GetInstance(L);

	mov	esi, DWORD PTR _L$[esp+8]
	push	edi
	push	esi
	call	_lua_gettop
	push	1
	push	esi
	mov	ebp, eax
	mov	bl, 1
	xor	edi, edi
	call	_lua_type
	add	esp, 12					; 0000000cH
	cmp	eax, 5
	jne	SHORT $LN7@BasicLuaMe@24
	push	OFFSET $SG223798
	push	1
	push	esi
	call	_lua_getfield
	push	-1
	push	esi
	call	_lua_type
	add	esp, 20					; 00000014H
	cmp	eax, 2
	jne	SHORT $LN7@BasicLuaMe@24
	push	-1
	push	esi
	call	_lua_touserdata
	mov	edi, eax
	add	esp, 8
	test	edi, edi
	je	SHORT $LN7@BasicLuaMe@24
	xor	bl, bl
$LN7@BasicLuaMe@24:
	push	ebp
	push	esi
	call	_lua_settop
	add	esp, 8
	test	bl, bl
	je	SHORT $LN14@BasicLuaMe@24
	push	OFFSET $SG223804
	push	esi
	call	_luaL_error
	push	OFFSET $SG223812
	push	esi
	call	_luaL_error
	add	esp, 16					; 00000010H
$LN14@BasicLuaMe@24:

; 133  : 	CvLuaArgs::pushValue<ret>(L, (pkType->*func)(CvLuaArgs::toValue<arg1>(L, idx)));

	push	2
	push	esi
	call	_lua_tointeger
	add	esp, 8
	push	eax
	mov	ecx, edi
	call	DWORD PTR _func$[esp+16]
	push	eax
	push	esi
	call	_lua_pushinteger
	add	esp, 8
	pop	edi
	pop	esi
	pop	ebp

; 134  : 
; 135  : 	return 1;

	mov	eax, 1
	pop	ebx

; 136  : }

	ret	0
??$BasicLuaMethod@HW4ProjectTypes@@@?$CvLuaMethodWrapper@VCvLuaCity@@VCvCity@@@@KAHPAUlua_State@@P8CvCity@@AEHW4ProjectTypes@@@Z@Z ENDP ; CvLuaMethodWrapper<CvLuaCity,CvCity>::BasicLuaMethod<int,enum ProjectTypes>
_TEXT	ENDS
PUBLIC	??$BasicLuaMethod@H_N_N@?$CvLuaMethodWrapper@VCvLuaCity@@VCvCity@@@@KAHPAUlua_State@@P8CvCity@@BEH_N1@Z@Z ; CvLuaMethodWrapper<CvLuaCity,CvCity>::BasicLuaMethod<int,bool,bool>
; Function compile flags: /Ogtpy
;	COMDAT ??$BasicLuaMethod@H_N_N@?$CvLuaMethodWrapper@VCvLuaCity@@VCvCity@@@@KAHPAUlua_State@@P8CvCity@@BEH_N1@Z@Z
_TEXT	SEGMENT
$T226298 = -8						; size = 1
$T226302 = -4						; size = 1
_L$ = 8							; size = 4
_func$ = 12						; size = 4
??$BasicLuaMethod@H_N_N@?$CvLuaMethodWrapper@VCvLuaCity@@VCvCity@@@@KAHPAUlua_State@@P8CvCity@@BEH_N1@Z@Z PROC ; CvLuaMethodWrapper<CvLuaCity,CvCity>::BasicLuaMethod<int,bool,bool>, COMDAT

; 88   : {

	sub	esp, 8
	push	ebx
	push	ebp
	push	esi

; 89   : 	const int idx = Derived::GetStartingArgIndex();
; 90   : 	InstanceType* pkType = Derived::GetInstance(L);

	mov	esi, DWORD PTR _L$[esp+16]
	push	edi
	push	esi
	call	_lua_gettop
	push	1
	push	esi
	mov	ebp, eax
	mov	bl, 1
	xor	edi, edi
	call	_lua_type
	add	esp, 12					; 0000000cH
	cmp	eax, 5
	jne	SHORT $LN7@BasicLuaMe@25
	push	OFFSET $SG223798
	push	1
	push	esi
	call	_lua_getfield
	push	-1
	push	esi
	call	_lua_type
	add	esp, 20					; 00000014H
	cmp	eax, 2
	jne	SHORT $LN7@BasicLuaMe@25
	push	-1
	push	esi
	call	_lua_touserdata
	mov	edi, eax
	add	esp, 8
	test	edi, edi
	je	SHORT $LN7@BasicLuaMe@25
	xor	bl, bl
$LN7@BasicLuaMe@25:
	push	ebp
	push	esi
	call	_lua_settop
	add	esp, 8
	test	bl, bl
	je	SHORT $LN14@BasicLuaMe@25
	push	OFFSET $SG223804
	push	esi
	call	_luaL_error
	push	OFFSET $SG223812
	push	esi
	call	_luaL_error
	add	esp, 16					; 00000010H
$LN14@BasicLuaMe@25:

; 91   : 	CvLuaArgs::pushValue<ret>(L, (pkType->*func)(CvLuaArgs::toValue<arg1>(L, idx), CvLuaArgs::toValue<arg2>(L, idx + 1)));

	push	3
	push	esi
	call	_lua_toboolean
	test	eax, eax
	setne	al
	push	2
	push	esi
	mov	BYTE PTR $T226298[esp+40], al
	call	_lua_toboolean
	mov	edx, DWORD PTR $T226298[esp+40]
	add	esp, 16					; 00000010H
	test	eax, eax
	setne	cl
	mov	BYTE PTR $T226302[esp+24], cl
	mov	eax, DWORD PTR $T226302[esp+24]
	push	edx
	push	eax
	mov	ecx, edi
	call	DWORD PTR _func$[esp+28]
	push	eax
	push	esi
	call	_lua_pushinteger
	add	esp, 8
	pop	edi
	pop	esi
	pop	ebp

; 92   : 
; 93   : 	return 1;

	mov	eax, 1
	pop	ebx

; 94   : }

	add	esp, 8
	ret	0
??$BasicLuaMethod@H_N_N@?$CvLuaMethodWrapper@VCvLuaCity@@VCvCity@@@@KAHPAUlua_State@@P8CvCity@@BEH_N1@Z@Z ENDP ; CvLuaMethodWrapper<CvLuaCity,CvCity>::BasicLuaMethod<int,bool,bool>
_TEXT	ENDS
PUBLIC	??$BasicLuaMethod@HH@?$CvLuaMethodWrapper@VCvLuaCity@@VCvCity@@@@KAHPAUlua_State@@P8CvCity@@BEHH@Z@Z ; CvLuaMethodWrapper<CvLuaCity,CvCity>::BasicLuaMethod<int,int>
; Function compile flags: /Ogtpy
;	COMDAT ??$BasicLuaMethod@HH@?$CvLuaMethodWrapper@VCvLuaCity@@VCvCity@@@@KAHPAUlua_State@@P8CvCity@@BEHH@Z@Z
_TEXT	SEGMENT
_L$ = 8							; size = 4
_func$ = 12						; size = 4
??$BasicLuaMethod@HH@?$CvLuaMethodWrapper@VCvLuaCity@@VCvCity@@@@KAHPAUlua_State@@P8CvCity@@BEHH@Z@Z PROC ; CvLuaMethodWrapper<CvLuaCity,CvCity>::BasicLuaMethod<int,int>, COMDAT

; 78   : {

	push	ebx
	push	ebp
	push	esi

; 79   : 	const int idx = Derived::GetStartingArgIndex();
; 80   : 	InstanceType* pkType = Derived::GetInstance(L);

	mov	esi, DWORD PTR _L$[esp+8]
	push	edi
	push	esi
	call	_lua_gettop
	push	1
	push	esi
	mov	ebp, eax
	mov	bl, 1
	xor	edi, edi
	call	_lua_type
	add	esp, 12					; 0000000cH
	cmp	eax, 5
	jne	SHORT $LN7@BasicLuaMe@26
	push	OFFSET $SG223798
	push	1
	push	esi
	call	_lua_getfield
	push	-1
	push	esi
	call	_lua_type
	add	esp, 20					; 00000014H
	cmp	eax, 2
	jne	SHORT $LN7@BasicLuaMe@26
	push	-1
	push	esi
	call	_lua_touserdata
	mov	edi, eax
	add	esp, 8
	test	edi, edi
	je	SHORT $LN7@BasicLuaMe@26
	xor	bl, bl
$LN7@BasicLuaMe@26:
	push	ebp
	push	esi
	call	_lua_settop
	add	esp, 8
	test	bl, bl
	je	SHORT $LN14@BasicLuaMe@26
	push	OFFSET $SG223804
	push	esi
	call	_luaL_error
	push	OFFSET $SG223812
	push	esi
	call	_luaL_error
	add	esp, 16					; 00000010H
$LN14@BasicLuaMe@26:

; 81   : 	CvLuaArgs::pushValue<ret>(L, (pkType->*func)(CvLuaArgs::toValue<arg1>(L, idx)));

	push	2
	push	esi
	call	_lua_tointeger
	add	esp, 8
	push	eax
	mov	ecx, edi
	call	DWORD PTR _func$[esp+16]
	push	eax
	push	esi
	call	_lua_pushinteger
	add	esp, 8
	pop	edi
	pop	esi
	pop	ebp

; 82   : 
; 83   : 	return 1;

	mov	eax, 1
	pop	ebx

; 84   : }

	ret	0
??$BasicLuaMethod@HH@?$CvLuaMethodWrapper@VCvLuaCity@@VCvCity@@@@KAHPAUlua_State@@P8CvCity@@BEHH@Z@Z ENDP ; CvLuaMethodWrapper<CvLuaCity,CvCity>::BasicLuaMethod<int,int>
_TEXT	ENDS
PUBLIC	??$BasicLuaMethod@_NW4HurryTypes@@_N@?$CvLuaMethodWrapper@VCvLuaCity@@VCvCity@@@@KAHPAUlua_State@@P8CvCity@@BE_NW4HurryTypes@@_N@Z@Z ; CvLuaMethodWrapper<CvLuaCity,CvCity>::BasicLuaMethod<bool,enum HurryTypes,bool>
; Function compile flags: /Ogtpy
;	COMDAT ??$BasicLuaMethod@_NW4HurryTypes@@_N@?$CvLuaMethodWrapper@VCvLuaCity@@VCvCity@@@@KAHPAUlua_State@@P8CvCity@@BE_NW4HurryTypes@@_N@Z@Z
_TEXT	SEGMENT
$T226376 = -4						; size = 1
_L$ = 8							; size = 4
_func$ = 12						; size = 4
??$BasicLuaMethod@_NW4HurryTypes@@_N@?$CvLuaMethodWrapper@VCvLuaCity@@VCvCity@@@@KAHPAUlua_State@@P8CvCity@@BE_NW4HurryTypes@@_N@Z@Z PROC ; CvLuaMethodWrapper<CvLuaCity,CvCity>::BasicLuaMethod<bool,enum HurryTypes,bool>, COMDAT

; 88   : {

	push	ecx
	push	ebx
	push	ebp
	push	esi

; 89   : 	const int idx = Derived::GetStartingArgIndex();
; 90   : 	InstanceType* pkType = Derived::GetInstance(L);

	mov	esi, DWORD PTR _L$[esp+12]
	push	edi
	push	esi
	call	_lua_gettop
	push	1
	push	esi
	mov	ebp, eax
	mov	bl, 1
	xor	edi, edi
	call	_lua_type
	add	esp, 12					; 0000000cH
	cmp	eax, 5
	jne	SHORT $LN7@BasicLuaMe@27
	push	OFFSET $SG223798
	push	1
	push	esi
	call	_lua_getfield
	push	-1
	push	esi
	call	_lua_type
	add	esp, 20					; 00000014H
	cmp	eax, 2
	jne	SHORT $LN7@BasicLuaMe@27
	push	-1
	push	esi
	call	_lua_touserdata
	mov	edi, eax
	add	esp, 8
	test	edi, edi
	je	SHORT $LN7@BasicLuaMe@27
	xor	bl, bl
$LN7@BasicLuaMe@27:
	push	ebp
	push	esi
	call	_lua_settop
	add	esp, 8
	test	bl, bl
	je	SHORT $LN14@BasicLuaMe@27
	push	OFFSET $SG223804
	push	esi
	call	_luaL_error
	push	OFFSET $SG223812
	push	esi
	call	_luaL_error
	add	esp, 16					; 00000010H
$LN14@BasicLuaMe@27:

; 91   : 	CvLuaArgs::pushValue<ret>(L, (pkType->*func)(CvLuaArgs::toValue<arg1>(L, idx), CvLuaArgs::toValue<arg2>(L, idx + 1)));

	push	3
	push	esi
	call	_lua_toboolean
	test	eax, eax
	setne	al
	push	2
	push	esi
	mov	BYTE PTR $T226376[esp+36], al
	call	_lua_tointeger
	mov	ecx, DWORD PTR $T226376[esp+36]
	add	esp, 16					; 00000010H
	push	ecx
	push	eax
	mov	ecx, edi
	call	DWORD PTR _func$[esp+24]
	movzx	edx, al
	push	edx
	push	esi
	call	_lua_pushboolean
	add	esp, 8
	pop	edi
	pop	esi
	pop	ebp

; 92   : 
; 93   : 	return 1;

	mov	eax, 1
	pop	ebx

; 94   : }

	pop	ecx
	ret	0
??$BasicLuaMethod@_NW4HurryTypes@@_N@?$CvLuaMethodWrapper@VCvLuaCity@@VCvCity@@@@KAHPAUlua_State@@P8CvCity@@BE_NW4HurryTypes@@_N@Z@Z ENDP ; CvLuaMethodWrapper<CvLuaCity,CvCity>::BasicLuaMethod<bool,enum HurryTypes,bool>
_TEXT	ENDS
PUBLIC	??$BasicLuaMethod@W4HurryTypes@@@?$CvLuaMethodWrapper@VCvLuaCity@@VCvCity@@@@KAHPAUlua_State@@P8CvCity@@AEXW4HurryTypes@@@Z@Z ; CvLuaMethodWrapper<CvLuaCity,CvCity>::BasicLuaMethod<enum HurryTypes>
; Function compile flags: /Ogtpy
;	COMDAT ??$BasicLuaMethod@W4HurryTypes@@@?$CvLuaMethodWrapper@VCvLuaCity@@VCvCity@@@@KAHPAUlua_State@@P8CvCity@@AEXW4HurryTypes@@@Z@Z
_TEXT	SEGMENT
_L$ = 8							; size = 4
_func$ = 12						; size = 4
??$BasicLuaMethod@W4HurryTypes@@@?$CvLuaMethodWrapper@VCvLuaCity@@VCvCity@@@@KAHPAUlua_State@@P8CvCity@@AEXW4HurryTypes@@@Z@Z PROC ; CvLuaMethodWrapper<CvLuaCity,CvCity>::BasicLuaMethod<enum HurryTypes>, COMDAT

; 230  : {

	push	ebx
	push	ebp
	push	esi

; 231  : 	const int idx = Derived::GetStartingArgIndex();
; 232  : 	InstanceType* pkType = Derived::GetInstance(L);

	mov	esi, DWORD PTR _L$[esp+8]
	push	edi
	push	esi
	call	_lua_gettop
	push	1
	push	esi
	mov	ebp, eax
	mov	bl, 1
	xor	edi, edi
	call	_lua_type
	add	esp, 12					; 0000000cH
	cmp	eax, 5
	jne	SHORT $LN7@BasicLuaMe@28
	push	OFFSET $SG223798
	push	1
	push	esi
	call	_lua_getfield
	push	-1
	push	esi
	call	_lua_type
	add	esp, 20					; 00000014H
	cmp	eax, 2
	jne	SHORT $LN7@BasicLuaMe@28
	push	-1
	push	esi
	call	_lua_touserdata
	mov	edi, eax
	add	esp, 8
	test	edi, edi
	je	SHORT $LN7@BasicLuaMe@28
	xor	bl, bl
$LN7@BasicLuaMe@28:
	push	ebp
	push	esi
	call	_lua_settop
	add	esp, 8
	test	bl, bl
	je	SHORT $LN14@BasicLuaMe@28
	push	OFFSET $SG223804
	push	esi
	call	_luaL_error
	push	OFFSET $SG223812
	push	esi
	call	_luaL_error
	add	esp, 16					; 00000010H
$LN14@BasicLuaMe@28:

; 233  : 	(pkType->*func)(CvLuaArgs::toValue<arg1>(L, idx));

	push	2
	push	esi
	call	_lua_tointeger
	add	esp, 8
	push	eax
	mov	ecx, edi
	call	DWORD PTR _func$[esp+16]
	pop	edi
	pop	esi
	pop	ebp

; 234  : 	return 0;

	xor	eax, eax
	pop	ebx

; 235  : }

	ret	0
??$BasicLuaMethod@W4HurryTypes@@@?$CvLuaMethodWrapper@VCvLuaCity@@VCvCity@@@@KAHPAUlua_State@@P8CvCity@@AEXW4HurryTypes@@@Z@Z ENDP ; CvLuaMethodWrapper<CvLuaCity,CvCity>::BasicLuaMethod<enum HurryTypes>
_TEXT	ENDS
PUBLIC	??$BasicLuaMethod@HW4YieldTypes@@W4ResourceTypes@@@?$CvLuaMethodWrapper@VCvLuaCity@@VCvCity@@@@KAHPAUlua_State@@P8CvCity@@BEHW4YieldTypes@@W4ResourceTypes@@@Z@Z ; CvLuaMethodWrapper<CvLuaCity,CvCity>::BasicLuaMethod<int,enum YieldTypes,enum ResourceTypes>
; Function compile flags: /Ogtpy
;	COMDAT ??$BasicLuaMethod@HW4YieldTypes@@W4ResourceTypes@@@?$CvLuaMethodWrapper@VCvLuaCity@@VCvCity@@@@KAHPAUlua_State@@P8CvCity@@BEHW4YieldTypes@@W4ResourceTypes@@@Z@Z
_TEXT	SEGMENT
_L$ = 8							; size = 4
_func$ = 12						; size = 4
??$BasicLuaMethod@HW4YieldTypes@@W4ResourceTypes@@@?$CvLuaMethodWrapper@VCvLuaCity@@VCvCity@@@@KAHPAUlua_State@@P8CvCity@@BEHW4YieldTypes@@W4ResourceTypes@@@Z@Z PROC ; CvLuaMethodWrapper<CvLuaCity,CvCity>::BasicLuaMethod<int,enum YieldTypes,enum ResourceTypes>, COMDAT

; 88   : {

	push	ebx
	push	ebp
	push	esi

; 89   : 	const int idx = Derived::GetStartingArgIndex();
; 90   : 	InstanceType* pkType = Derived::GetInstance(L);

	mov	esi, DWORD PTR _L$[esp+8]
	push	edi
	push	esi
	call	_lua_gettop
	push	1
	push	esi
	mov	ebp, eax
	mov	bl, 1
	xor	edi, edi
	call	_lua_type
	add	esp, 12					; 0000000cH
	cmp	eax, 5
	jne	SHORT $LN7@BasicLuaMe@29
	push	OFFSET $SG223798
	push	1
	push	esi
	call	_lua_getfield
	push	-1
	push	esi
	call	_lua_type
	add	esp, 20					; 00000014H
	cmp	eax, 2
	jne	SHORT $LN7@BasicLuaMe@29
	push	-1
	push	esi
	call	_lua_touserdata
	mov	edi, eax
	add	esp, 8
	test	edi, edi
	je	SHORT $LN7@BasicLuaMe@29
	xor	bl, bl
$LN7@BasicLuaMe@29:
	push	ebp
	push	esi
	call	_lua_settop
	add	esp, 8
	test	bl, bl
	je	SHORT $LN14@BasicLuaMe@29
	push	OFFSET $SG223804
	push	esi
	call	_luaL_error
	push	OFFSET $SG223812
	push	esi
	call	_luaL_error
	add	esp, 16					; 00000010H
$LN14@BasicLuaMe@29:

; 91   : 	CvLuaArgs::pushValue<ret>(L, (pkType->*func)(CvLuaArgs::toValue<arg1>(L, idx), CvLuaArgs::toValue<arg2>(L, idx + 1)));

	push	3
	push	esi
	call	_lua_tointeger
	push	2
	push	esi
	mov	ebx, eax
	call	_lua_tointeger
	add	esp, 16					; 00000010H
	push	ebx
	push	eax
	mov	ecx, edi
	call	DWORD PTR _func$[esp+20]
	push	eax
	push	esi
	call	_lua_pushinteger
	add	esp, 8
	pop	edi
	pop	esi
	pop	ebp

; 92   : 
; 93   : 	return 1;

	mov	eax, 1
	pop	ebx

; 94   : }

	ret	0
??$BasicLuaMethod@HW4YieldTypes@@W4ResourceTypes@@@?$CvLuaMethodWrapper@VCvLuaCity@@VCvCity@@@@KAHPAUlua_State@@P8CvCity@@BEHW4YieldTypes@@W4ResourceTypes@@@Z@Z ENDP ; CvLuaMethodWrapper<CvLuaCity,CvCity>::BasicLuaMethod<int,enum YieldTypes,enum ResourceTypes>
_TEXT	ENDS
PUBLIC	??$BasicLuaMethod@W4HandicapTypes@@@?$CvLuaMethodWrapper@VCvLuaCity@@VCvCity@@@@KAHPAUlua_State@@P8CvCity@@BE?AW4HandicapTypes@@XZ@Z ; CvLuaMethodWrapper<CvLuaCity,CvCity>::BasicLuaMethod<enum HandicapTypes>
; Function compile flags: /Ogtpy
;	COMDAT ??$BasicLuaMethod@W4HandicapTypes@@@?$CvLuaMethodWrapper@VCvLuaCity@@VCvCity@@@@KAHPAUlua_State@@P8CvCity@@BE?AW4HandicapTypes@@XZ@Z
_TEXT	SEGMENT
_L$ = 8							; size = 4
_func$ = 12						; size = 4
??$BasicLuaMethod@W4HandicapTypes@@@?$CvLuaMethodWrapper@VCvLuaCity@@VCvCity@@@@KAHPAUlua_State@@P8CvCity@@BE?AW4HandicapTypes@@XZ@Z PROC ; CvLuaMethodWrapper<CvLuaCity,CvCity>::BasicLuaMethod<enum HandicapTypes>, COMDAT

; 69   : {

	push	ebx
	push	ebp
	push	esi

; 70   : 	InstanceType* pkType = Derived::GetInstance(L);

	mov	esi, DWORD PTR _L$[esp+8]
	push	edi
	push	esi
	call	_lua_gettop
	push	1
	push	esi
	mov	ebp, eax
	mov	bl, 1
	xor	edi, edi
	call	_lua_type
	add	esp, 12					; 0000000cH
	cmp	eax, 5
	jne	SHORT $LN5@BasicLuaMe@30
	push	OFFSET $SG223798
	push	1
	push	esi
	call	_lua_getfield
	push	-1
	push	esi
	call	_lua_type
	add	esp, 20					; 00000014H
	cmp	eax, 2
	jne	SHORT $LN5@BasicLuaMe@30
	push	-1
	push	esi
	call	_lua_touserdata
	mov	edi, eax
	add	esp, 8
	test	edi, edi
	je	SHORT $LN5@BasicLuaMe@30
	xor	bl, bl
$LN5@BasicLuaMe@30:
	push	ebp
	push	esi
	call	_lua_settop
	add	esp, 8
	test	bl, bl
	je	SHORT $LN12@BasicLuaMe@30
	push	OFFSET $SG223804
	push	esi
	call	_luaL_error
	push	OFFSET $SG223812
	push	esi
	call	_luaL_error
	add	esp, 16					; 00000010H
$LN12@BasicLuaMe@30:

; 71   : 	CvLuaArgs::pushValue<ret>(L, (pkType->*func)());

	mov	ecx, edi
	call	DWORD PTR _func$[esp+12]
	push	eax
	push	esi
	call	_lua_pushinteger
	add	esp, 8
	pop	edi
	pop	esi
	pop	ebp

; 72   : 
; 73   : 	return 1;

	mov	eax, 1
	pop	ebx

; 74   : }

	ret	0
??$BasicLuaMethod@W4HandicapTypes@@@?$CvLuaMethodWrapper@VCvLuaCity@@VCvCity@@@@KAHPAUlua_State@@P8CvCity@@BE?AW4HandicapTypes@@XZ@Z ENDP ; CvLuaMethodWrapper<CvLuaCity,CvCity>::BasicLuaMethod<enum HandicapTypes>
_TEXT	ENDS
PUBLIC	??$BasicLuaMethod@W4CivilizationTypes@@@?$CvLuaMethodWrapper@VCvLuaCity@@VCvCity@@@@KAHPAUlua_State@@P8CvCity@@BE?AW4CivilizationTypes@@XZ@Z ; CvLuaMethodWrapper<CvLuaCity,CvCity>::BasicLuaMethod<enum CivilizationTypes>
; Function compile flags: /Ogtpy
;	COMDAT ??$BasicLuaMethod@W4CivilizationTypes@@@?$CvLuaMethodWrapper@VCvLuaCity@@VCvCity@@@@KAHPAUlua_State@@P8CvCity@@BE?AW4CivilizationTypes@@XZ@Z
_TEXT	SEGMENT
_L$ = 8							; size = 4
_func$ = 12						; size = 4
??$BasicLuaMethod@W4CivilizationTypes@@@?$CvLuaMethodWrapper@VCvLuaCity@@VCvCity@@@@KAHPAUlua_State@@P8CvCity@@BE?AW4CivilizationTypes@@XZ@Z PROC ; CvLuaMethodWrapper<CvLuaCity,CvCity>::BasicLuaMethod<enum CivilizationTypes>, COMDAT

; 69   : {

	push	ebx
	push	ebp
	push	esi

; 70   : 	InstanceType* pkType = Derived::GetInstance(L);

	mov	esi, DWORD PTR _L$[esp+8]
	push	edi
	push	esi
	call	_lua_gettop
	push	1
	push	esi
	mov	ebp, eax
	mov	bl, 1
	xor	edi, edi
	call	_lua_type
	add	esp, 12					; 0000000cH
	cmp	eax, 5
	jne	SHORT $LN5@BasicLuaMe@31
	push	OFFSET $SG223798
	push	1
	push	esi
	call	_lua_getfield
	push	-1
	push	esi
	call	_lua_type
	add	esp, 20					; 00000014H
	cmp	eax, 2
	jne	SHORT $LN5@BasicLuaMe@31
	push	-1
	push	esi
	call	_lua_touserdata
	mov	edi, eax
	add	esp, 8
	test	edi, edi
	je	SHORT $LN5@BasicLuaMe@31
	xor	bl, bl
$LN5@BasicLuaMe@31:
	push	ebp
	push	esi
	call	_lua_settop
	add	esp, 8
	test	bl, bl
	je	SHORT $LN12@BasicLuaMe@31
	push	OFFSET $SG223804
	push	esi
	call	_luaL_error
	push	OFFSET $SG223812
	push	esi
	call	_luaL_error
	add	esp, 16					; 00000010H
$LN12@BasicLuaMe@31:

; 71   : 	CvLuaArgs::pushValue<ret>(L, (pkType->*func)());

	mov	ecx, edi
	call	DWORD PTR _func$[esp+12]
	push	eax
	push	esi
	call	_lua_pushinteger
	add	esp, 8
	pop	edi
	pop	esi
	pop	ebp

; 72   : 
; 73   : 	return 1;

	mov	eax, 1
	pop	ebx

; 74   : }

	ret	0
??$BasicLuaMethod@W4CivilizationTypes@@@?$CvLuaMethodWrapper@VCvLuaCity@@VCvCity@@@@KAHPAUlua_State@@P8CvCity@@BE?AW4CivilizationTypes@@XZ@Z ENDP ; CvLuaMethodWrapper<CvLuaCity,CvCity>::BasicLuaMethod<enum CivilizationTypes>
_TEXT	ENDS
PUBLIC	??$BasicLuaMethod@_NW4TeamTypes@@_N@?$CvLuaMethodWrapper@VCvLuaCity@@VCvCity@@@@KAHPAUlua_State@@P8CvCity@@BE_NW4TeamTypes@@_N@Z@Z ; CvLuaMethodWrapper<CvLuaCity,CvCity>::BasicLuaMethod<bool,enum TeamTypes,bool>
; Function compile flags: /Ogtpy
;	COMDAT ??$BasicLuaMethod@_NW4TeamTypes@@_N@?$CvLuaMethodWrapper@VCvLuaCity@@VCvCity@@@@KAHPAUlua_State@@P8CvCity@@BE_NW4TeamTypes@@_N@Z@Z
_TEXT	SEGMENT
$T226550 = -4						; size = 1
_L$ = 8							; size = 4
_func$ = 12						; size = 4
??$BasicLuaMethod@_NW4TeamTypes@@_N@?$CvLuaMethodWrapper@VCvLuaCity@@VCvCity@@@@KAHPAUlua_State@@P8CvCity@@BE_NW4TeamTypes@@_N@Z@Z PROC ; CvLuaMethodWrapper<CvLuaCity,CvCity>::BasicLuaMethod<bool,enum TeamTypes,bool>, COMDAT

; 88   : {

	push	ecx
	push	ebx
	push	ebp
	push	esi

; 89   : 	const int idx = Derived::GetStartingArgIndex();
; 90   : 	InstanceType* pkType = Derived::GetInstance(L);

	mov	esi, DWORD PTR _L$[esp+12]
	push	edi
	push	esi
	call	_lua_gettop
	push	1
	push	esi
	mov	ebp, eax
	mov	bl, 1
	xor	edi, edi
	call	_lua_type
	add	esp, 12					; 0000000cH
	cmp	eax, 5
	jne	SHORT $LN7@BasicLuaMe@32
	push	OFFSET $SG223798
	push	1
	push	esi
	call	_lua_getfield
	push	-1
	push	esi
	call	_lua_type
	add	esp, 20					; 00000014H
	cmp	eax, 2
	jne	SHORT $LN7@BasicLuaMe@32
	push	-1
	push	esi
	call	_lua_touserdata
	mov	edi, eax
	add	esp, 8
	test	edi, edi
	je	SHORT $LN7@BasicLuaMe@32
	xor	bl, bl
$LN7@BasicLuaMe@32:
	push	ebp
	push	esi
	call	_lua_settop
	add	esp, 8
	test	bl, bl
	je	SHORT $LN14@BasicLuaMe@32
	push	OFFSET $SG223804
	push	esi
	call	_luaL_error
	push	OFFSET $SG223812
	push	esi
	call	_luaL_error
	add	esp, 16					; 00000010H
$LN14@BasicLuaMe@32:

; 91   : 	CvLuaArgs::pushValue<ret>(L, (pkType->*func)(CvLuaArgs::toValue<arg1>(L, idx), CvLuaArgs::toValue<arg2>(L, idx + 1)));

	push	3
	push	esi
	call	_lua_toboolean
	test	eax, eax
	setne	al
	push	2
	push	esi
	mov	BYTE PTR $T226550[esp+36], al
	call	_lua_tointeger
	mov	ecx, DWORD PTR $T226550[esp+36]
	add	esp, 16					; 00000010H
	push	ecx
	push	eax
	mov	ecx, edi
	call	DWORD PTR _func$[esp+24]
	movzx	edx, al
	push	edx
	push	esi
	call	_lua_pushboolean
	add	esp, 8
	pop	edi
	pop	esi
	pop	ebp

; 92   : 
; 93   : 	return 1;

	mov	eax, 1
	pop	ebx

; 94   : }

	pop	ecx
	ret	0
??$BasicLuaMethod@_NW4TeamTypes@@_N@?$CvLuaMethodWrapper@VCvLuaCity@@VCvCity@@@@KAHPAUlua_State@@P8CvCity@@BE_NW4TeamTypes@@_N@Z@Z ENDP ; CvLuaMethodWrapper<CvLuaCity,CvCity>::BasicLuaMethod<bool,enum TeamTypes,bool>
_TEXT	ENDS
PUBLIC	??$BasicLuaMethod@_NH@?$CvLuaMethodWrapper@VCvLuaCity@@VCvCity@@@@KAHPAUlua_State@@P8CvCity@@BE_NH@Z@Z ; CvLuaMethodWrapper<CvLuaCity,CvCity>::BasicLuaMethod<bool,int>
; Function compile flags: /Ogtpy
;	COMDAT ??$BasicLuaMethod@_NH@?$CvLuaMethodWrapper@VCvLuaCity@@VCvCity@@@@KAHPAUlua_State@@P8CvCity@@BE_NH@Z@Z
_TEXT	SEGMENT
_L$ = 8							; size = 4
_func$ = 12						; size = 4
??$BasicLuaMethod@_NH@?$CvLuaMethodWrapper@VCvLuaCity@@VCvCity@@@@KAHPAUlua_State@@P8CvCity@@BE_NH@Z@Z PROC ; CvLuaMethodWrapper<CvLuaCity,CvCity>::BasicLuaMethod<bool,int>, COMDAT

; 78   : {

	push	ebx
	push	ebp
	push	esi

; 79   : 	const int idx = Derived::GetStartingArgIndex();
; 80   : 	InstanceType* pkType = Derived::GetInstance(L);

	mov	esi, DWORD PTR _L$[esp+8]
	push	edi
	push	esi
	call	_lua_gettop
	push	1
	push	esi
	mov	ebp, eax
	mov	bl, 1
	xor	edi, edi
	call	_lua_type
	add	esp, 12					; 0000000cH
	cmp	eax, 5
	jne	SHORT $LN7@BasicLuaMe@33
	push	OFFSET $SG223798
	push	1
	push	esi
	call	_lua_getfield
	push	-1
	push	esi
	call	_lua_type
	add	esp, 20					; 00000014H
	cmp	eax, 2
	jne	SHORT $LN7@BasicLuaMe@33
	push	-1
	push	esi
	call	_lua_touserdata
	mov	edi, eax
	add	esp, 8
	test	edi, edi
	je	SHORT $LN7@BasicLuaMe@33
	xor	bl, bl
$LN7@BasicLuaMe@33:
	push	ebp
	push	esi
	call	_lua_settop
	add	esp, 8
	test	bl, bl
	je	SHORT $LN14@BasicLuaMe@33
	push	OFFSET $SG223804
	push	esi
	call	_luaL_error
	push	OFFSET $SG223812
	push	esi
	call	_luaL_error
	add	esp, 16					; 00000010H
$LN14@BasicLuaMe@33:

; 81   : 	CvLuaArgs::pushValue<ret>(L, (pkType->*func)(CvLuaArgs::toValue<arg1>(L, idx)));

	push	2
	push	esi
	call	_lua_tointeger
	add	esp, 8
	push	eax
	mov	ecx, edi
	call	DWORD PTR _func$[esp+16]
	movzx	eax, al
	push	eax
	push	esi
	call	_lua_pushboolean
	add	esp, 8
	pop	edi
	pop	esi
	pop	ebp

; 82   : 
; 83   : 	return 1;

	mov	eax, 1
	pop	ebx

; 84   : }

	ret	0
??$BasicLuaMethod@_NH@?$CvLuaMethodWrapper@VCvLuaCity@@VCvCity@@@@KAHPAUlua_State@@P8CvCity@@BE_NH@Z@Z ENDP ; CvLuaMethodWrapper<CvLuaCity,CvCity>::BasicLuaMethod<bool,int>
_TEXT	ENDS
PUBLIC	??$BasicLuaMethod@H_NH@?$CvLuaMethodWrapper@VCvLuaCity@@VCvCity@@@@KAHPAUlua_State@@P8CvCity@@BEH_NH@Z@Z ; CvLuaMethodWrapper<CvLuaCity,CvCity>::BasicLuaMethod<int,bool,int>
; Function compile flags: /Ogtpy
;	COMDAT ??$BasicLuaMethod@H_NH@?$CvLuaMethodWrapper@VCvLuaCity@@VCvCity@@@@KAHPAUlua_State@@P8CvCity@@BEH_NH@Z@Z
_TEXT	SEGMENT
$T226632 = -4						; size = 1
_L$ = 8							; size = 4
_func$ = 12						; size = 4
??$BasicLuaMethod@H_NH@?$CvLuaMethodWrapper@VCvLuaCity@@VCvCity@@@@KAHPAUlua_State@@P8CvCity@@BEH_NH@Z@Z PROC ; CvLuaMethodWrapper<CvLuaCity,CvCity>::BasicLuaMethod<int,bool,int>, COMDAT

; 88   : {

	push	ecx
	push	ebx
	push	ebp
	push	esi

; 89   : 	const int idx = Derived::GetStartingArgIndex();
; 90   : 	InstanceType* pkType = Derived::GetInstance(L);

	mov	esi, DWORD PTR _L$[esp+12]
	push	edi
	push	esi
	call	_lua_gettop
	push	1
	push	esi
	mov	ebp, eax
	mov	bl, 1
	xor	edi, edi
	call	_lua_type
	add	esp, 12					; 0000000cH
	cmp	eax, 5
	jne	SHORT $LN7@BasicLuaMe@34
	push	OFFSET $SG223798
	push	1
	push	esi
	call	_lua_getfield
	push	-1
	push	esi
	call	_lua_type
	add	esp, 20					; 00000014H
	cmp	eax, 2
	jne	SHORT $LN7@BasicLuaMe@34
	push	-1
	push	esi
	call	_lua_touserdata
	mov	edi, eax
	add	esp, 8
	test	edi, edi
	je	SHORT $LN7@BasicLuaMe@34
	xor	bl, bl
$LN7@BasicLuaMe@34:
	push	ebp
	push	esi
	call	_lua_settop
	add	esp, 8
	test	bl, bl
	je	SHORT $LN14@BasicLuaMe@34
	push	OFFSET $SG223804
	push	esi
	call	_luaL_error
	push	OFFSET $SG223812
	push	esi
	call	_luaL_error
	add	esp, 16					; 00000010H
$LN14@BasicLuaMe@34:

; 91   : 	CvLuaArgs::pushValue<ret>(L, (pkType->*func)(CvLuaArgs::toValue<arg1>(L, idx), CvLuaArgs::toValue<arg2>(L, idx + 1)));

	push	3
	push	esi
	call	_lua_tointeger
	push	2
	push	esi
	mov	ebx, eax
	call	_lua_toboolean
	add	esp, 16					; 00000010H
	test	eax, eax
	setne	al
	mov	BYTE PTR $T226632[esp+20], al
	mov	ecx, DWORD PTR $T226632[esp+20]
	push	ebx
	push	ecx
	mov	ecx, edi
	call	DWORD PTR _func$[esp+24]
	push	eax
	push	esi
	call	_lua_pushinteger
	add	esp, 8
	pop	edi
	pop	esi
	pop	ebp

; 92   : 
; 93   : 	return 1;

	mov	eax, 1
	pop	ebx

; 94   : }

	pop	ecx
	ret	0
??$BasicLuaMethod@H_NH@?$CvLuaMethodWrapper@VCvLuaCity@@VCvCity@@@@KAHPAUlua_State@@P8CvCity@@BEH_NH@Z@Z ENDP ; CvLuaMethodWrapper<CvLuaCity,CvCity>::BasicLuaMethod<int,bool,int>
_TEXT	ENDS
PUBLIC	??$BasicLuaMethod@H_N@?$CvLuaMethodWrapper@VCvLuaCity@@VCvCity@@@@KAHPAUlua_State@@P8CvCity@@BEH_N@Z@Z ; CvLuaMethodWrapper<CvLuaCity,CvCity>::BasicLuaMethod<int,bool>
; Function compile flags: /Ogtpy
;	COMDAT ??$BasicLuaMethod@H_N@?$CvLuaMethodWrapper@VCvLuaCity@@VCvCity@@@@KAHPAUlua_State@@P8CvCity@@BEH_N@Z@Z
_TEXT	SEGMENT
$T226669 = -4						; size = 1
_L$ = 8							; size = 4
_func$ = 12						; size = 4
??$BasicLuaMethod@H_N@?$CvLuaMethodWrapper@VCvLuaCity@@VCvCity@@@@KAHPAUlua_State@@P8CvCity@@BEH_N@Z@Z PROC ; CvLuaMethodWrapper<CvLuaCity,CvCity>::BasicLuaMethod<int,bool>, COMDAT

; 78   : {

	push	ecx
	push	ebx
	push	ebp
	push	esi

; 79   : 	const int idx = Derived::GetStartingArgIndex();
; 80   : 	InstanceType* pkType = Derived::GetInstance(L);

	mov	esi, DWORD PTR _L$[esp+12]
	push	edi
	push	esi
	call	_lua_gettop
	push	1
	push	esi
	mov	ebp, eax
	mov	bl, 1
	xor	edi, edi
	call	_lua_type
	add	esp, 12					; 0000000cH
	cmp	eax, 5
	jne	SHORT $LN7@BasicLuaMe@35
	push	OFFSET $SG223798
	push	1
	push	esi
	call	_lua_getfield
	push	-1
	push	esi
	call	_lua_type
	add	esp, 20					; 00000014H
	cmp	eax, 2
	jne	SHORT $LN7@BasicLuaMe@35
	push	-1
	push	esi
	call	_lua_touserdata
	mov	edi, eax
	add	esp, 8
	test	edi, edi
	je	SHORT $LN7@BasicLuaMe@35
	xor	bl, bl
$LN7@BasicLuaMe@35:
	push	ebp
	push	esi
	call	_lua_settop
	add	esp, 8
	test	bl, bl
	je	SHORT $LN14@BasicLuaMe@35
	push	OFFSET $SG223804
	push	esi
	call	_luaL_error
	push	OFFSET $SG223812
	push	esi
	call	_luaL_error
	add	esp, 16					; 00000010H
$LN14@BasicLuaMe@35:

; 81   : 	CvLuaArgs::pushValue<ret>(L, (pkType->*func)(CvLuaArgs::toValue<arg1>(L, idx)));

	push	2
	push	esi
	call	_lua_toboolean
	add	esp, 8
	test	eax, eax
	setne	al
	mov	BYTE PTR $T226669[esp+20], al
	mov	ecx, DWORD PTR $T226669[esp+20]
	push	ecx
	mov	ecx, edi
	call	DWORD PTR _func$[esp+20]
	push	eax
	push	esi
	call	_lua_pushinteger
	add	esp, 8
	pop	edi
	pop	esi
	pop	ebp

; 82   : 
; 83   : 	return 1;

	mov	eax, 1
	pop	ebx

; 84   : }

	pop	ecx
	ret	0
??$BasicLuaMethod@H_N@?$CvLuaMethodWrapper@VCvLuaCity@@VCvCity@@@@KAHPAUlua_State@@P8CvCity@@BEH_N@Z@Z ENDP ; CvLuaMethodWrapper<CvLuaCity,CvCity>::BasicLuaMethod<int,bool>
_TEXT	ENDS
PUBLIC	??$BasicLuaMethod@H_NPAVCvString@@@?$CvLuaMethodWrapper@VCvLuaCity@@VCvCity@@@@KAHPAUlua_State@@P8CvCity@@BEH_NPAVCvString@@@Z@Z ; CvLuaMethodWrapper<CvLuaCity,CvCity>::BasicLuaMethod<int,bool,CvString *>
; Function compile flags: /Ogtpy
;	COMDAT ??$BasicLuaMethod@H_NPAVCvString@@@?$CvLuaMethodWrapper@VCvLuaCity@@VCvCity@@@@KAHPAUlua_State@@P8CvCity@@BEH_NPAVCvString@@@Z@Z
_TEXT	SEGMENT
$T226710 = -4						; size = 1
_L$ = 8							; size = 4
_func$ = 12						; size = 4
??$BasicLuaMethod@H_NPAVCvString@@@?$CvLuaMethodWrapper@VCvLuaCity@@VCvCity@@@@KAHPAUlua_State@@P8CvCity@@BEH_NPAVCvString@@@Z@Z PROC ; CvLuaMethodWrapper<CvLuaCity,CvCity>::BasicLuaMethod<int,bool,CvString *>, COMDAT

; 88   : {

	push	ecx
	push	ebx
	push	ebp
	push	esi

; 89   : 	const int idx = Derived::GetStartingArgIndex();
; 90   : 	InstanceType* pkType = Derived::GetInstance(L);

	mov	esi, DWORD PTR _L$[esp+12]
	push	edi
	push	esi
	call	_lua_gettop
	push	1
	push	esi
	mov	ebp, eax
	mov	bl, 1
	xor	edi, edi
	call	_lua_type
	add	esp, 12					; 0000000cH
	cmp	eax, 5
	jne	SHORT $LN7@BasicLuaMe@36
	push	OFFSET $SG223798
	push	1
	push	esi
	call	_lua_getfield
	push	-1
	push	esi
	call	_lua_type
	add	esp, 20					; 00000014H
	cmp	eax, 2
	jne	SHORT $LN7@BasicLuaMe@36
	push	-1
	push	esi
	call	_lua_touserdata
	mov	edi, eax
	add	esp, 8
	test	edi, edi
	je	SHORT $LN7@BasicLuaMe@36
	xor	bl, bl
$LN7@BasicLuaMe@36:
	push	ebp
	push	esi
	call	_lua_settop
	add	esp, 8
	test	bl, bl
	je	SHORT $LN14@BasicLuaMe@36
	push	OFFSET $SG223804
	push	esi
	call	_luaL_error
	push	OFFSET $SG223812
	push	esi
	call	_luaL_error
	add	esp, 16					; 00000010H
$LN14@BasicLuaMe@36:

; 91   : 	CvLuaArgs::pushValue<ret>(L, (pkType->*func)(CvLuaArgs::toValue<arg1>(L, idx), CvLuaArgs::toValue<arg2>(L, idx + 1)));

	push	3
	push	esi
	call	_lua_tointeger
	push	2
	push	esi
	mov	ebx, eax
	call	_lua_toboolean
	add	esp, 16					; 00000010H
	test	eax, eax
	setne	al
	mov	BYTE PTR $T226710[esp+20], al
	mov	ecx, DWORD PTR $T226710[esp+20]
	push	ebx
	push	ecx
	mov	ecx, edi
	call	DWORD PTR _func$[esp+24]
	push	eax
	push	esi
	call	_lua_pushinteger
	add	esp, 8
	pop	edi
	pop	esi
	pop	ebp

; 92   : 
; 93   : 	return 1;

	mov	eax, 1
	pop	ebx

; 94   : }

	pop	ecx
	ret	0
??$BasicLuaMethod@H_NPAVCvString@@@?$CvLuaMethodWrapper@VCvLuaCity@@VCvCity@@@@KAHPAUlua_State@@P8CvCity@@BEH_NPAVCvString@@@Z@Z ENDP ; CvLuaMethodWrapper<CvLuaCity,CvCity>::BasicLuaMethod<int,bool,CvString *>
_TEXT	ENDS
PUBLIC	??$BasicLuaMethod@HW4HurryTypes@@_N@?$CvLuaMethodWrapper@VCvLuaCity@@VCvCity@@@@KAHPAUlua_State@@P8CvCity@@BEHW4HurryTypes@@_N@Z@Z ; CvLuaMethodWrapper<CvLuaCity,CvCity>::BasicLuaMethod<int,enum HurryTypes,bool>
; Function compile flags: /Ogtpy
;	COMDAT ??$BasicLuaMethod@HW4HurryTypes@@_N@?$CvLuaMethodWrapper@VCvLuaCity@@VCvCity@@@@KAHPAUlua_State@@P8CvCity@@BEHW4HurryTypes@@_N@Z@Z
_TEXT	SEGMENT
$T226747 = -4						; size = 1
_L$ = 8							; size = 4
_func$ = 12						; size = 4
??$BasicLuaMethod@HW4HurryTypes@@_N@?$CvLuaMethodWrapper@VCvLuaCity@@VCvCity@@@@KAHPAUlua_State@@P8CvCity@@BEHW4HurryTypes@@_N@Z@Z PROC ; CvLuaMethodWrapper<CvLuaCity,CvCity>::BasicLuaMethod<int,enum HurryTypes,bool>, COMDAT

; 88   : {

	push	ecx
	push	ebx
	push	ebp
	push	esi

; 89   : 	const int idx = Derived::GetStartingArgIndex();
; 90   : 	InstanceType* pkType = Derived::GetInstance(L);

	mov	esi, DWORD PTR _L$[esp+12]
	push	edi
	push	esi
	call	_lua_gettop
	push	1
	push	esi
	mov	ebp, eax
	mov	bl, 1
	xor	edi, edi
	call	_lua_type
	add	esp, 12					; 0000000cH
	cmp	eax, 5
	jne	SHORT $LN7@BasicLuaMe@37
	push	OFFSET $SG223798
	push	1
	push	esi
	call	_lua_getfield
	push	-1
	push	esi
	call	_lua_type
	add	esp, 20					; 00000014H
	cmp	eax, 2
	jne	SHORT $LN7@BasicLuaMe@37
	push	-1
	push	esi
	call	_lua_touserdata
	mov	edi, eax
	add	esp, 8
	test	edi, edi
	je	SHORT $LN7@BasicLuaMe@37
	xor	bl, bl
$LN7@BasicLuaMe@37:
	push	ebp
	push	esi
	call	_lua_settop
	add	esp, 8
	test	bl, bl
	je	SHORT $LN14@BasicLuaMe@37
	push	OFFSET $SG223804
	push	esi
	call	_luaL_error
	push	OFFSET $SG223812
	push	esi
	call	_luaL_error
	add	esp, 16					; 00000010H
$LN14@BasicLuaMe@37:

; 91   : 	CvLuaArgs::pushValue<ret>(L, (pkType->*func)(CvLuaArgs::toValue<arg1>(L, idx), CvLuaArgs::toValue<arg2>(L, idx + 1)));

	push	3
	push	esi
	call	_lua_toboolean
	test	eax, eax
	setne	al
	push	2
	push	esi
	mov	BYTE PTR $T226747[esp+36], al
	call	_lua_tointeger
	mov	ecx, DWORD PTR $T226747[esp+36]
	add	esp, 16					; 00000010H
	push	ecx
	push	eax
	mov	ecx, edi
	call	DWORD PTR _func$[esp+24]
	push	eax
	push	esi
	call	_lua_pushinteger
	add	esp, 8
	pop	edi
	pop	esi
	pop	ebp

; 92   : 
; 93   : 	return 1;

	mov	eax, 1
	pop	ebx

; 94   : }

	pop	ecx
	ret	0
??$BasicLuaMethod@HW4HurryTypes@@_N@?$CvLuaMethodWrapper@VCvLuaCity@@VCvCity@@@@KAHPAUlua_State@@P8CvCity@@BEHW4HurryTypes@@_N@Z@Z ENDP ; CvLuaMethodWrapper<CvLuaCity,CvCity>::BasicLuaMethod<int,enum HurryTypes,bool>
_TEXT	ENDS
PUBLIC	??$BasicLuaMethod@HW4HurryTypes@@@?$CvLuaMethodWrapper@VCvLuaCity@@VCvCity@@@@KAHPAUlua_State@@P8CvCity@@BEHW4HurryTypes@@@Z@Z ; CvLuaMethodWrapper<CvLuaCity,CvCity>::BasicLuaMethod<int,enum HurryTypes>
; Function compile flags: /Ogtpy
;	COMDAT ??$BasicLuaMethod@HW4HurryTypes@@@?$CvLuaMethodWrapper@VCvLuaCity@@VCvCity@@@@KAHPAUlua_State@@P8CvCity@@BEHW4HurryTypes@@@Z@Z
_TEXT	SEGMENT
_L$ = 8							; size = 4
_func$ = 12						; size = 4
??$BasicLuaMethod@HW4HurryTypes@@@?$CvLuaMethodWrapper@VCvLuaCity@@VCvCity@@@@KAHPAUlua_State@@P8CvCity@@BEHW4HurryTypes@@@Z@Z PROC ; CvLuaMethodWrapper<CvLuaCity,CvCity>::BasicLuaMethod<int,enum HurryTypes>, COMDAT

; 78   : {

	push	ebx
	push	ebp
	push	esi

; 79   : 	const int idx = Derived::GetStartingArgIndex();
; 80   : 	InstanceType* pkType = Derived::GetInstance(L);

	mov	esi, DWORD PTR _L$[esp+8]
	push	edi
	push	esi
	call	_lua_gettop
	push	1
	push	esi
	mov	ebp, eax
	mov	bl, 1
	xor	edi, edi
	call	_lua_type
	add	esp, 12					; 0000000cH
	cmp	eax, 5
	jne	SHORT $LN7@BasicLuaMe@38
	push	OFFSET $SG223798
	push	1
	push	esi
	call	_lua_getfield
	push	-1
	push	esi
	call	_lua_type
	add	esp, 20					; 00000014H
	cmp	eax, 2
	jne	SHORT $LN7@BasicLuaMe@38
	push	-1
	push	esi
	call	_lua_touserdata
	mov	edi, eax
	add	esp, 8
	test	edi, edi
	je	SHORT $LN7@BasicLuaMe@38
	xor	bl, bl
$LN7@BasicLuaMe@38:
	push	ebp
	push	esi
	call	_lua_settop
	add	esp, 8
	test	bl, bl
	je	SHORT $LN14@BasicLuaMe@38
	push	OFFSET $SG223804
	push	esi
	call	_luaL_error
	push	OFFSET $SG223812
	push	esi
	call	_luaL_error
	add	esp, 16					; 00000010H
$LN14@BasicLuaMe@38:

; 81   : 	CvLuaArgs::pushValue<ret>(L, (pkType->*func)(CvLuaArgs::toValue<arg1>(L, idx)));

	push	2
	push	esi
	call	_lua_tointeger
	add	esp, 8
	push	eax
	mov	ecx, edi
	call	DWORD PTR _func$[esp+16]
	push	eax
	push	esi
	call	_lua_pushinteger
	add	esp, 8
	pop	edi
	pop	esi
	pop	ebp

; 82   : 
; 83   : 	return 1;

	mov	eax, 1
	pop	ebx

; 84   : }

	ret	0
??$BasicLuaMethod@HW4HurryTypes@@@?$CvLuaMethodWrapper@VCvLuaCity@@VCvCity@@@@KAHPAUlua_State@@P8CvCity@@BEHW4HurryTypes@@@Z@Z ENDP ; CvLuaMethodWrapper<CvLuaCity,CvCity>::BasicLuaMethod<int,enum HurryTypes>
_TEXT	ENDS
PUBLIC	??$BasicLuaMethod@J@?$CvLuaMethodWrapper@VCvLuaCity@@VCvCity@@@@KAHPAUlua_State@@P8CvCity@@BEJXZ@Z ; CvLuaMethodWrapper<CvLuaCity,CvCity>::BasicLuaMethod<long>
; Function compile flags: /Ogtpy
;	COMDAT ??$BasicLuaMethod@J@?$CvLuaMethodWrapper@VCvLuaCity@@VCvCity@@@@KAHPAUlua_State@@P8CvCity@@BEJXZ@Z
_TEXT	SEGMENT
_L$ = 8							; size = 4
_func$ = 12						; size = 4
??$BasicLuaMethod@J@?$CvLuaMethodWrapper@VCvLuaCity@@VCvCity@@@@KAHPAUlua_State@@P8CvCity@@BEJXZ@Z PROC ; CvLuaMethodWrapper<CvLuaCity,CvCity>::BasicLuaMethod<long>, COMDAT

; 69   : {

	push	ebx
	push	ebp
	push	esi

; 70   : 	InstanceType* pkType = Derived::GetInstance(L);

	mov	esi, DWORD PTR _L$[esp+8]
	push	edi
	push	esi
	call	_lua_gettop
	push	1
	push	esi
	mov	ebp, eax
	mov	bl, 1
	xor	edi, edi
	call	_lua_type
	add	esp, 12					; 0000000cH
	cmp	eax, 5
	jne	SHORT $LN5@BasicLuaMe@39
	push	OFFSET $SG223798
	push	1
	push	esi
	call	_lua_getfield
	push	-1
	push	esi
	call	_lua_type
	add	esp, 20					; 00000014H
	cmp	eax, 2
	jne	SHORT $LN5@BasicLuaMe@39
	push	-1
	push	esi
	call	_lua_touserdata
	mov	edi, eax
	add	esp, 8
	test	edi, edi
	je	SHORT $LN5@BasicLuaMe@39
	xor	bl, bl
$LN5@BasicLuaMe@39:
	push	ebp
	push	esi
	call	_lua_settop
	add	esp, 8
	test	bl, bl
	je	SHORT $LN12@BasicLuaMe@39
	push	OFFSET $SG223804
	push	esi
	call	_luaL_error
	push	OFFSET $SG223812
	push	esi
	call	_luaL_error
	add	esp, 16					; 00000010H
$LN12@BasicLuaMe@39:

; 71   : 	CvLuaArgs::pushValue<ret>(L, (pkType->*func)());

	mov	ecx, edi
	call	DWORD PTR _func$[esp+12]
	push	eax
	push	esi
	call	_lua_pushinteger
	add	esp, 8
	pop	edi
	pop	esi
	pop	ebp

; 72   : 
; 73   : 	return 1;

	mov	eax, 1
	pop	ebx

; 74   : }

	ret	0
??$BasicLuaMethod@J@?$CvLuaMethodWrapper@VCvLuaCity@@VCvCity@@@@KAHPAUlua_State@@P8CvCity@@BEJXZ@Z ENDP ; CvLuaMethodWrapper<CvLuaCity,CvCity>::BasicLuaMethod<long>
_TEXT	ENDS
PUBLIC	??$BasicLuaMethod@HW4BuildingTypes@@PAVCvString@@@?$CvLuaMethodWrapper@VCvLuaCity@@VCvCity@@@@KAHPAUlua_State@@P8CvCity@@BEHW4BuildingTypes@@PAVCvString@@@Z@Z ; CvLuaMethodWrapper<CvLuaCity,CvCity>::BasicLuaMethod<int,enum BuildingTypes,CvString *>
; Function compile flags: /Ogtpy
;	COMDAT ??$BasicLuaMethod@HW4BuildingTypes@@PAVCvString@@@?$CvLuaMethodWrapper@VCvLuaCity@@VCvCity@@@@KAHPAUlua_State@@P8CvCity@@BEHW4BuildingTypes@@PAVCvString@@@Z@Z
_TEXT	SEGMENT
_L$ = 8							; size = 4
_func$ = 12						; size = 4
??$BasicLuaMethod@HW4BuildingTypes@@PAVCvString@@@?$CvLuaMethodWrapper@VCvLuaCity@@VCvCity@@@@KAHPAUlua_State@@P8CvCity@@BEHW4BuildingTypes@@PAVCvString@@@Z@Z PROC ; CvLuaMethodWrapper<CvLuaCity,CvCity>::BasicLuaMethod<int,enum BuildingTypes,CvString *>, COMDAT

; 88   : {

	push	ebx
	push	ebp
	push	esi

; 89   : 	const int idx = Derived::GetStartingArgIndex();
; 90   : 	InstanceType* pkType = Derived::GetInstance(L);

	mov	esi, DWORD PTR _L$[esp+8]
	push	edi
	push	esi
	call	_lua_gettop
	push	1
	push	esi
	mov	ebp, eax
	mov	bl, 1
	xor	edi, edi
	call	_lua_type
	add	esp, 12					; 0000000cH
	cmp	eax, 5
	jne	SHORT $LN7@BasicLuaMe@40
	push	OFFSET $SG223798
	push	1
	push	esi
	call	_lua_getfield
	push	-1
	push	esi
	call	_lua_type
	add	esp, 20					; 00000014H
	cmp	eax, 2
	jne	SHORT $LN7@BasicLuaMe@40
	push	-1
	push	esi
	call	_lua_touserdata
	mov	edi, eax
	add	esp, 8
	test	edi, edi
	je	SHORT $LN7@BasicLuaMe@40
	xor	bl, bl
$LN7@BasicLuaMe@40:
	push	ebp
	push	esi
	call	_lua_settop
	add	esp, 8
	test	bl, bl
	je	SHORT $LN14@BasicLuaMe@40
	push	OFFSET $SG223804
	push	esi
	call	_luaL_error
	push	OFFSET $SG223812
	push	esi
	call	_luaL_error
	add	esp, 16					; 00000010H
$LN14@BasicLuaMe@40:

; 91   : 	CvLuaArgs::pushValue<ret>(L, (pkType->*func)(CvLuaArgs::toValue<arg1>(L, idx), CvLuaArgs::toValue<arg2>(L, idx + 1)));

	push	3
	push	esi
	call	_lua_tointeger
	push	2
	push	esi
	mov	ebx, eax
	call	_lua_tointeger
	add	esp, 16					; 00000010H
	push	ebx
	push	eax
	mov	ecx, edi
	call	DWORD PTR _func$[esp+20]
	push	eax
	push	esi
	call	_lua_pushinteger
	add	esp, 8
	pop	edi
	pop	esi
	pop	ebp

; 92   : 
; 93   : 	return 1;

	mov	eax, 1
	pop	ebx

; 94   : }

	ret	0
??$BasicLuaMethod@HW4BuildingTypes@@PAVCvString@@@?$CvLuaMethodWrapper@VCvLuaCity@@VCvCity@@@@KAHPAUlua_State@@P8CvCity@@BEHW4BuildingTypes@@PAVCvString@@@Z@Z ENDP ; CvLuaMethodWrapper<CvLuaCity,CvCity>::BasicLuaMethod<int,enum BuildingTypes,CvString *>
_TEXT	ENDS
PUBLIC	??$BasicLuaMethod@_N_N@?$CvLuaMethodWrapper@VCvLuaCity@@VCvCity@@@@KAHPAUlua_State@@P8CvCity@@AEX_N1@Z@Z ; CvLuaMethodWrapper<CvLuaCity,CvCity>::BasicLuaMethod<bool,bool>
; Function compile flags: /Ogtpy
;	COMDAT ??$BasicLuaMethod@_N_N@?$CvLuaMethodWrapper@VCvLuaCity@@VCvCity@@@@KAHPAUlua_State@@P8CvCity@@AEX_N1@Z@Z
_TEXT	SEGMENT
$T226896 = -4						; size = 1
_L$ = 8							; size = 4
_func$ = 12						; size = 4
??$BasicLuaMethod@_N_N@?$CvLuaMethodWrapper@VCvLuaCity@@VCvCity@@@@KAHPAUlua_State@@P8CvCity@@AEX_N1@Z@Z PROC ; CvLuaMethodWrapper<CvLuaCity,CvCity>::BasicLuaMethod<bool,bool>, COMDAT

; 239  : {

	push	ecx
	push	ebx
	push	ebp
	push	esi

; 240  : 	const int idx = Derived::GetStartingArgIndex();
; 241  : 	InstanceType* pkType = Derived::GetInstance(L);

	mov	esi, DWORD PTR _L$[esp+12]
	push	edi
	push	esi
	call	_lua_gettop
	push	1
	push	esi
	mov	ebp, eax
	mov	bl, 1
	xor	edi, edi
	call	_lua_type
	add	esp, 12					; 0000000cH
	cmp	eax, 5
	jne	SHORT $LN7@BasicLuaMe@41
	push	OFFSET $SG223798
	push	1
	push	esi
	call	_lua_getfield
	push	-1
	push	esi
	call	_lua_type
	add	esp, 20					; 00000014H
	cmp	eax, 2
	jne	SHORT $LN7@BasicLuaMe@41
	push	-1
	push	esi
	call	_lua_touserdata
	mov	edi, eax
	add	esp, 8
	test	edi, edi
	je	SHORT $LN7@BasicLuaMe@41
	xor	bl, bl
$LN7@BasicLuaMe@41:
	push	ebp
	push	esi
	call	_lua_settop
	add	esp, 8
	test	bl, bl
	je	SHORT $LN14@BasicLuaMe@41
	push	OFFSET $SG223804
	push	esi
	call	_luaL_error
	push	OFFSET $SG223812
	push	esi
	call	_luaL_error
	add	esp, 16					; 00000010H
$LN14@BasicLuaMe@41:

; 242  : 	(pkType->*func)(CvLuaArgs::toValue<arg1>(L, idx), CvLuaArgs::toValue<arg2>(L, idx + 1));

	push	3
	push	esi
	call	_lua_toboolean
	add	esp, 8
	test	eax, eax
	setne	al
	mov	BYTE PTR $T226896[esp+20], al
	mov	ecx, DWORD PTR $T226896[esp+20]
	push	ecx
	push	2
	push	esi
	call	_lua_toboolean
	add	esp, 8
	test	eax, eax
	setne	dl
	movzx	eax, dl
	push	eax
	mov	ecx, edi
	call	DWORD PTR _func$[esp+24]
	pop	edi
	pop	esi
	pop	ebp

; 243  : 	return 0;

	xor	eax, eax
	pop	ebx

; 244  : }

	pop	ecx
	ret	0
??$BasicLuaMethod@_N_N@?$CvLuaMethodWrapper@VCvLuaCity@@VCvCity@@@@KAHPAUlua_State@@P8CvCity@@AEX_N1@Z@Z ENDP ; CvLuaMethodWrapper<CvLuaCity,CvCity>::BasicLuaMethod<bool,bool>
_TEXT	ENDS
PUBLIC	??$BasicLuaMethod@W4PlayerTypes@@@?$CvLuaMethodWrapper@VCvLuaCity@@VCvCity@@@@KAHPAUlua_State@@P8CvCity@@BE?AW4PlayerTypes@@XZ@Z ; CvLuaMethodWrapper<CvLuaCity,CvCity>::BasicLuaMethod<enum PlayerTypes>
; Function compile flags: /Ogtpy
;	COMDAT ??$BasicLuaMethod@W4PlayerTypes@@@?$CvLuaMethodWrapper@VCvLuaCity@@VCvCity@@@@KAHPAUlua_State@@P8CvCity@@BE?AW4PlayerTypes@@XZ@Z
_TEXT	SEGMENT
_L$ = 8							; size = 4
_func$ = 12						; size = 4
??$BasicLuaMethod@W4PlayerTypes@@@?$CvLuaMethodWrapper@VCvLuaCity@@VCvCity@@@@KAHPAUlua_State@@P8CvCity@@BE?AW4PlayerTypes@@XZ@Z PROC ; CvLuaMethodWrapper<CvLuaCity,CvCity>::BasicLuaMethod<enum PlayerTypes>, COMDAT

; 69   : {

	push	ebx
	push	ebp
	push	esi

; 70   : 	InstanceType* pkType = Derived::GetInstance(L);

	mov	esi, DWORD PTR _L$[esp+8]
	push	edi
	push	esi
	call	_lua_gettop
	push	1
	push	esi
	mov	ebp, eax
	mov	bl, 1
	xor	edi, edi
	call	_lua_type
	add	esp, 12					; 0000000cH
	cmp	eax, 5
	jne	SHORT $LN5@BasicLuaMe@42
	push	OFFSET $SG223798
	push	1
	push	esi
	call	_lua_getfield
	push	-1
	push	esi
	call	_lua_type
	add	esp, 20					; 00000014H
	cmp	eax, 2
	jne	SHORT $LN5@BasicLuaMe@42
	push	-1
	push	esi
	call	_lua_touserdata
	mov	edi, eax
	add	esp, 8
	test	edi, edi
	je	SHORT $LN5@BasicLuaMe@42
	xor	bl, bl
$LN5@BasicLuaMe@42:
	push	ebp
	push	esi
	call	_lua_settop
	add	esp, 8
	test	bl, bl
	je	SHORT $LN12@BasicLuaMe@42
	push	OFFSET $SG223804
	push	esi
	call	_luaL_error
	push	OFFSET $SG223812
	push	esi
	call	_luaL_error
	add	esp, 16					; 00000010H
$LN12@BasicLuaMe@42:

; 71   : 	CvLuaArgs::pushValue<ret>(L, (pkType->*func)());

	mov	ecx, edi
	call	DWORD PTR _func$[esp+12]
	push	eax
	push	esi
	call	_lua_pushinteger
	add	esp, 8
	pop	edi
	pop	esi
	pop	ebp

; 72   : 
; 73   : 	return 1;

	mov	eax, 1
	pop	ebx

; 74   : }

	ret	0
??$BasicLuaMethod@W4PlayerTypes@@@?$CvLuaMethodWrapper@VCvLuaCity@@VCvCity@@@@KAHPAUlua_State@@P8CvCity@@BE?AW4PlayerTypes@@XZ@Z ENDP ; CvLuaMethodWrapper<CvLuaCity,CvCity>::BasicLuaMethod<enum PlayerTypes>
_TEXT	ENDS
PUBLIC	??$BasicLuaMethod@W4TeamTypes@@@?$CvLuaMethodWrapper@VCvLuaCity@@VCvCity@@@@KAHPAUlua_State@@P8CvCity@@BE?AW4TeamTypes@@XZ@Z ; CvLuaMethodWrapper<CvLuaCity,CvCity>::BasicLuaMethod<enum TeamTypes>
; Function compile flags: /Ogtpy
;	COMDAT ??$BasicLuaMethod@W4TeamTypes@@@?$CvLuaMethodWrapper@VCvLuaCity@@VCvCity@@@@KAHPAUlua_State@@P8CvCity@@BE?AW4TeamTypes@@XZ@Z
_TEXT	SEGMENT
_L$ = 8							; size = 4
_func$ = 12						; size = 4
??$BasicLuaMethod@W4TeamTypes@@@?$CvLuaMethodWrapper@VCvLuaCity@@VCvCity@@@@KAHPAUlua_State@@P8CvCity@@BE?AW4TeamTypes@@XZ@Z PROC ; CvLuaMethodWrapper<CvLuaCity,CvCity>::BasicLuaMethod<enum TeamTypes>, COMDAT

; 69   : {

	push	ebx
	push	ebp
	push	esi

; 70   : 	InstanceType* pkType = Derived::GetInstance(L);

	mov	esi, DWORD PTR _L$[esp+8]
	push	edi
	push	esi
	call	_lua_gettop
	push	1
	push	esi
	mov	ebp, eax
	mov	bl, 1
	xor	edi, edi
	call	_lua_type
	add	esp, 12					; 0000000cH
	cmp	eax, 5
	jne	SHORT $LN5@BasicLuaMe@43
	push	OFFSET $SG223798
	push	1
	push	esi
	call	_lua_getfield
	push	-1
	push	esi
	call	_lua_type
	add	esp, 20					; 00000014H
	cmp	eax, 2
	jne	SHORT $LN5@BasicLuaMe@43
	push	-1
	push	esi
	call	_lua_touserdata
	mov	edi, eax
	add	esp, 8
	test	edi, edi
	je	SHORT $LN5@BasicLuaMe@43
	xor	bl, bl
$LN5@BasicLuaMe@43:
	push	ebp
	push	esi
	call	_lua_settop
	add	esp, 8
	test	bl, bl
	je	SHORT $LN12@BasicLuaMe@43
	push	OFFSET $SG223804
	push	esi
	call	_luaL_error
	push	OFFSET $SG223812
	push	esi
	call	_luaL_error
	add	esp, 16					; 00000010H
$LN12@BasicLuaMe@43:

; 71   : 	CvLuaArgs::pushValue<ret>(L, (pkType->*func)());

	mov	ecx, edi
	call	DWORD PTR _func$[esp+12]
	push	eax
	push	esi
	call	_lua_pushinteger
	add	esp, 8
	pop	edi
	pop	esi
	pop	ebp

; 72   : 
; 73   : 	return 1;

	mov	eax, 1
	pop	ebx

; 74   : }

	ret	0
??$BasicLuaMethod@W4TeamTypes@@@?$CvLuaMethodWrapper@VCvLuaCity@@VCvCity@@@@KAHPAUlua_State@@P8CvCity@@BE?AW4TeamTypes@@XZ@Z ENDP ; CvLuaMethodWrapper<CvLuaCity,CvCity>::BasicLuaMethod<enum TeamTypes>
_TEXT	ENDS
PUBLIC	??$BasicLuaMethod@HW4YieldTypes@@@?$CvLuaMethodWrapper@VCvLuaCity@@VCvCity@@@@KAHPAUlua_State@@P8CvCity@@BEHW4YieldTypes@@@Z@Z ; CvLuaMethodWrapper<CvLuaCity,CvCity>::BasicLuaMethod<int,enum YieldTypes>
; Function compile flags: /Ogtpy
;	COMDAT ??$BasicLuaMethod@HW4YieldTypes@@@?$CvLuaMethodWrapper@VCvLuaCity@@VCvCity@@@@KAHPAUlua_State@@P8CvCity@@BEHW4YieldTypes@@@Z@Z
_TEXT	SEGMENT
_L$ = 8							; size = 4
_func$ = 12						; size = 4
??$BasicLuaMethod@HW4YieldTypes@@@?$CvLuaMethodWrapper@VCvLuaCity@@VCvCity@@@@KAHPAUlua_State@@P8CvCity@@BEHW4YieldTypes@@@Z@Z PROC ; CvLuaMethodWrapper<CvLuaCity,CvCity>::BasicLuaMethod<int,enum YieldTypes>, COMDAT

; 78   : {

	push	ebx
	push	ebp
	push	esi

; 79   : 	const int idx = Derived::GetStartingArgIndex();
; 80   : 	InstanceType* pkType = Derived::GetInstance(L);

	mov	esi, DWORD PTR _L$[esp+8]
	push	edi
	push	esi
	call	_lua_gettop
	push	1
	push	esi
	mov	ebp, eax
	mov	bl, 1
	xor	edi, edi
	call	_lua_type
	add	esp, 12					; 0000000cH
	cmp	eax, 5
	jne	SHORT $LN7@BasicLuaMe@44
	push	OFFSET $SG223798
	push	1
	push	esi
	call	_lua_getfield
	push	-1
	push	esi
	call	_lua_type
	add	esp, 20					; 00000014H
	cmp	eax, 2
	jne	SHORT $LN7@BasicLuaMe@44
	push	-1
	push	esi
	call	_lua_touserdata
	mov	edi, eax
	add	esp, 8
	test	edi, edi
	je	SHORT $LN7@BasicLuaMe@44
	xor	bl, bl
$LN7@BasicLuaMe@44:
	push	ebp
	push	esi
	call	_lua_settop
	add	esp, 8
	test	bl, bl
	je	SHORT $LN14@BasicLuaMe@44
	push	OFFSET $SG223804
	push	esi
	call	_luaL_error
	push	OFFSET $SG223812
	push	esi
	call	_luaL_error
	add	esp, 16					; 00000010H
$LN14@BasicLuaMe@44:

; 81   : 	CvLuaArgs::pushValue<ret>(L, (pkType->*func)(CvLuaArgs::toValue<arg1>(L, idx)));

	push	2
	push	esi
	call	_lua_tointeger
	add	esp, 8
	push	eax
	mov	ecx, edi
	call	DWORD PTR _func$[esp+16]
	push	eax
	push	esi
	call	_lua_pushinteger
	add	esp, 8
	pop	edi
	pop	esi
	pop	ebp

; 82   : 
; 83   : 	return 1;

	mov	eax, 1
	pop	ebx

; 84   : }

	ret	0
??$BasicLuaMethod@HW4YieldTypes@@@?$CvLuaMethodWrapper@VCvLuaCity@@VCvCity@@@@KAHPAUlua_State@@P8CvCity@@BEHW4YieldTypes@@@Z@Z ENDP ; CvLuaMethodWrapper<CvLuaCity,CvCity>::BasicLuaMethod<int,enum YieldTypes>
_TEXT	ENDS
PUBLIC	??$BasicLuaMethod@W4YieldTypes@@H@?$CvLuaMethodWrapper@VCvLuaCity@@VCvCity@@@@KAHPAUlua_State@@P8CvCity@@AEXW4YieldTypes@@H@Z@Z ; CvLuaMethodWrapper<CvLuaCity,CvCity>::BasicLuaMethod<enum YieldTypes,int>
; Function compile flags: /Ogtpy
;	COMDAT ??$BasicLuaMethod@W4YieldTypes@@H@?$CvLuaMethodWrapper@VCvLuaCity@@VCvCity@@@@KAHPAUlua_State@@P8CvCity@@AEXW4YieldTypes@@H@Z@Z
_TEXT	SEGMENT
_L$ = 8							; size = 4
_func$ = 12						; size = 4
??$BasicLuaMethod@W4YieldTypes@@H@?$CvLuaMethodWrapper@VCvLuaCity@@VCvCity@@@@KAHPAUlua_State@@P8CvCity@@AEXW4YieldTypes@@H@Z@Z PROC ; CvLuaMethodWrapper<CvLuaCity,CvCity>::BasicLuaMethod<enum YieldTypes,int>, COMDAT

; 239  : {

	push	ebx
	push	ebp
	push	esi

; 240  : 	const int idx = Derived::GetStartingArgIndex();
; 241  : 	InstanceType* pkType = Derived::GetInstance(L);

	mov	esi, DWORD PTR _L$[esp+8]
	push	edi
	push	esi
	call	_lua_gettop
	push	1
	push	esi
	mov	ebp, eax
	mov	bl, 1
	xor	edi, edi
	call	_lua_type
	add	esp, 12					; 0000000cH
	cmp	eax, 5
	jne	SHORT $LN7@BasicLuaMe@45
	push	OFFSET $SG223798
	push	1
	push	esi
	call	_lua_getfield
	push	-1
	push	esi
	call	_lua_type
	add	esp, 20					; 00000014H
	cmp	eax, 2
	jne	SHORT $LN7@BasicLuaMe@45
	push	-1
	push	esi
	call	_lua_touserdata
	mov	edi, eax
	add	esp, 8
	test	edi, edi
	je	SHORT $LN7@BasicLuaMe@45
	xor	bl, bl
$LN7@BasicLuaMe@45:
	push	ebp
	push	esi
	call	_lua_settop
	add	esp, 8
	test	bl, bl
	je	SHORT $LN14@BasicLuaMe@45
	push	OFFSET $SG223804
	push	esi
	call	_luaL_error
	push	OFFSET $SG223812
	push	esi
	call	_luaL_error
	add	esp, 16					; 00000010H
$LN14@BasicLuaMe@45:

; 242  : 	(pkType->*func)(CvLuaArgs::toValue<arg1>(L, idx), CvLuaArgs::toValue<arg2>(L, idx + 1));

	push	3
	push	esi
	call	_lua_tointeger
	add	esp, 8
	push	eax
	push	2
	push	esi
	call	_lua_tointeger
	add	esp, 8
	push	eax
	mov	ecx, edi
	call	DWORD PTR _func$[esp+20]
	pop	edi
	pop	esi
	pop	ebp

; 243  : 	return 0;

	xor	eax, eax
	pop	ebx

; 244  : }

	ret	0
??$BasicLuaMethod@W4YieldTypes@@H@?$CvLuaMethodWrapper@VCvLuaCity@@VCvCity@@@@KAHPAUlua_State@@P8CvCity@@AEXW4YieldTypes@@H@Z@Z ENDP ; CvLuaMethodWrapper<CvLuaCity,CvCity>::BasicLuaMethod<enum YieldTypes,int>
_TEXT	ENDS
PUBLIC	??$BasicLuaMethod@HW4YieldTypes@@W4SpecialistTypes@@@?$CvLuaMethodWrapper@VCvLuaCity@@VCvCity@@@@KAHPAUlua_State@@P8CvCity@@BEHW4YieldTypes@@W4SpecialistTypes@@@Z@Z ; CvLuaMethodWrapper<CvLuaCity,CvCity>::BasicLuaMethod<int,enum YieldTypes,enum SpecialistTypes>
; Function compile flags: /Ogtpy
;	COMDAT ??$BasicLuaMethod@HW4YieldTypes@@W4SpecialistTypes@@@?$CvLuaMethodWrapper@VCvLuaCity@@VCvCity@@@@KAHPAUlua_State@@P8CvCity@@BEHW4YieldTypes@@W4SpecialistTypes@@@Z@Z
_TEXT	SEGMENT
_L$ = 8							; size = 4
_func$ = 12						; size = 4
??$BasicLuaMethod@HW4YieldTypes@@W4SpecialistTypes@@@?$CvLuaMethodWrapper@VCvLuaCity@@VCvCity@@@@KAHPAUlua_State@@P8CvCity@@BEHW4YieldTypes@@W4SpecialistTypes@@@Z@Z PROC ; CvLuaMethodWrapper<CvLuaCity,CvCity>::BasicLuaMethod<int,enum YieldTypes,enum SpecialistTypes>, COMDAT

; 88   : {

	push	ebx
	push	ebp
	push	esi

; 89   : 	const int idx = Derived::GetStartingArgIndex();
; 90   : 	InstanceType* pkType = Derived::GetInstance(L);

	mov	esi, DWORD PTR _L$[esp+8]
	push	edi
	push	esi
	call	_lua_gettop
	push	1
	push	esi
	mov	ebp, eax
	mov	bl, 1
	xor	edi, edi
	call	_lua_type
	add	esp, 12					; 0000000cH
	cmp	eax, 5
	jne	SHORT $LN7@BasicLuaMe@46
	push	OFFSET $SG223798
	push	1
	push	esi
	call	_lua_getfield
	push	-1
	push	esi
	call	_lua_type
	add	esp, 20					; 00000014H
	cmp	eax, 2
	jne	SHORT $LN7@BasicLuaMe@46
	push	-1
	push	esi
	call	_lua_touserdata
	mov	edi, eax
	add	esp, 8
	test	edi, edi
	je	SHORT $LN7@BasicLuaMe@46
	xor	bl, bl
$LN7@BasicLuaMe@46:
	push	ebp
	push	esi
	call	_lua_settop
	add	esp, 8
	test	bl, bl
	je	SHORT $LN14@BasicLuaMe@46
	push	OFFSET $SG223804
	push	esi
	call	_luaL_error
	push	OFFSET $SG223812
	push	esi
	call	_luaL_error
	add	esp, 16					; 00000010H
$LN14@BasicLuaMe@46:

; 91   : 	CvLuaArgs::pushValue<ret>(L, (pkType->*func)(CvLuaArgs::toValue<arg1>(L, idx), CvLuaArgs::toValue<arg2>(L, idx + 1)));

	push	3
	push	esi
	call	_lua_tointeger
	push	2
	push	esi
	mov	ebx, eax
	call	_lua_tointeger
	add	esp, 16					; 00000010H
	push	ebx
	push	eax
	mov	ecx, edi
	call	DWORD PTR _func$[esp+20]
	push	eax
	push	esi
	call	_lua_pushinteger
	add	esp, 8
	pop	edi
	pop	esi
	pop	ebp

; 92   : 
; 93   : 	return 1;

	mov	eax, 1
	pop	ebx

; 94   : }

	ret	0
??$BasicLuaMethod@HW4YieldTypes@@W4SpecialistTypes@@@?$CvLuaMethodWrapper@VCvLuaCity@@VCvCity@@@@KAHPAUlua_State@@P8CvCity@@BEHW4YieldTypes@@W4SpecialistTypes@@@Z@Z ENDP ; CvLuaMethodWrapper<CvLuaCity,CvCity>::BasicLuaMethod<int,enum YieldTypes,enum SpecialistTypes>
_TEXT	ENDS
PUBLIC	??$BasicLuaMethod@HW4DomainTypes@@@?$CvLuaMethodWrapper@VCvLuaCity@@VCvCity@@@@KAHPAUlua_State@@P8CvCity@@BEHW4DomainTypes@@@Z@Z ; CvLuaMethodWrapper<CvLuaCity,CvCity>::BasicLuaMethod<int,enum DomainTypes>
; Function compile flags: /Ogtpy
;	COMDAT ??$BasicLuaMethod@HW4DomainTypes@@@?$CvLuaMethodWrapper@VCvLuaCity@@VCvCity@@@@KAHPAUlua_State@@P8CvCity@@BEHW4DomainTypes@@@Z@Z
_TEXT	SEGMENT
_L$ = 8							; size = 4
_func$ = 12						; size = 4
??$BasicLuaMethod@HW4DomainTypes@@@?$CvLuaMethodWrapper@VCvLuaCity@@VCvCity@@@@KAHPAUlua_State@@P8CvCity@@BEHW4DomainTypes@@@Z@Z PROC ; CvLuaMethodWrapper<CvLuaCity,CvCity>::BasicLuaMethod<int,enum DomainTypes>, COMDAT

; 78   : {

	push	ebx
	push	ebp
	push	esi

; 79   : 	const int idx = Derived::GetStartingArgIndex();
; 80   : 	InstanceType* pkType = Derived::GetInstance(L);

	mov	esi, DWORD PTR _L$[esp+8]
	push	edi
	push	esi
	call	_lua_gettop
	push	1
	push	esi
	mov	ebp, eax
	mov	bl, 1
	xor	edi, edi
	call	_lua_type
	add	esp, 12					; 0000000cH
	cmp	eax, 5
	jne	SHORT $LN7@BasicLuaMe@47
	push	OFFSET $SG223798
	push	1
	push	esi
	call	_lua_getfield
	push	-1
	push	esi
	call	_lua_type
	add	esp, 20					; 00000014H
	cmp	eax, 2
	jne	SHORT $LN7@BasicLuaMe@47
	push	-1
	push	esi
	call	_lua_touserdata
	mov	edi, eax
	add	esp, 8
	test	edi, edi
	je	SHORT $LN7@BasicLuaMe@47
	xor	bl, bl
$LN7@BasicLuaMe@47:
	push	ebp
	push	esi
	call	_lua_settop
	add	esp, 8
	test	bl, bl
	je	SHORT $LN14@BasicLuaMe@47
	push	OFFSET $SG223804
	push	esi
	call	_luaL_error
	push	OFFSET $SG223812
	push	esi
	call	_luaL_error
	add	esp, 16					; 00000010H
$LN14@BasicLuaMe@47:

; 81   : 	CvLuaArgs::pushValue<ret>(L, (pkType->*func)(CvLuaArgs::toValue<arg1>(L, idx)));

	push	2
	push	esi
	call	_lua_tointeger
	add	esp, 8
	push	eax
	mov	ecx, edi
	call	DWORD PTR _func$[esp+16]
	push	eax
	push	esi
	call	_lua_pushinteger
	add	esp, 8
	pop	edi
	pop	esi
	pop	ebp

; 82   : 
; 83   : 	return 1;

	mov	eax, 1
	pop	ebx

; 84   : }

	ret	0
??$BasicLuaMethod@HW4DomainTypes@@@?$CvLuaMethodWrapper@VCvLuaCity@@VCvCity@@@@KAHPAUlua_State@@P8CvCity@@BEHW4DomainTypes@@@Z@Z ENDP ; CvLuaMethodWrapper<CvLuaCity,CvCity>::BasicLuaMethod<int,enum DomainTypes>
_TEXT	ENDS
PUBLIC	??$BasicLuaMethod@_NW4PlayerTypes@@@?$CvLuaMethodWrapper@VCvLuaCity@@VCvCity@@@@KAHPAUlua_State@@P8CvCity@@BE_NW4PlayerTypes@@@Z@Z ; CvLuaMethodWrapper<CvLuaCity,CvCity>::BasicLuaMethod<bool,enum PlayerTypes>
; Function compile flags: /Ogtpy
;	COMDAT ??$BasicLuaMethod@_NW4PlayerTypes@@@?$CvLuaMethodWrapper@VCvLuaCity@@VCvCity@@@@KAHPAUlua_State@@P8CvCity@@BE_NW4PlayerTypes@@@Z@Z
_TEXT	SEGMENT
_L$ = 8							; size = 4
_func$ = 12						; size = 4
??$BasicLuaMethod@_NW4PlayerTypes@@@?$CvLuaMethodWrapper@VCvLuaCity@@VCvCity@@@@KAHPAUlua_State@@P8CvCity@@BE_NW4PlayerTypes@@@Z@Z PROC ; CvLuaMethodWrapper<CvLuaCity,CvCity>::BasicLuaMethod<bool,enum PlayerTypes>, COMDAT

; 78   : {

	push	ebx
	push	ebp
	push	esi

; 79   : 	const int idx = Derived::GetStartingArgIndex();
; 80   : 	InstanceType* pkType = Derived::GetInstance(L);

	mov	esi, DWORD PTR _L$[esp+8]
	push	edi
	push	esi
	call	_lua_gettop
	push	1
	push	esi
	mov	ebp, eax
	mov	bl, 1
	xor	edi, edi
	call	_lua_type
	add	esp, 12					; 0000000cH
	cmp	eax, 5
	jne	SHORT $LN7@BasicLuaMe@48
	push	OFFSET $SG223798
	push	1
	push	esi
	call	_lua_getfield
	push	-1
	push	esi
	call	_lua_type
	add	esp, 20					; 00000014H
	cmp	eax, 2
	jne	SHORT $LN7@BasicLuaMe@48
	push	-1
	push	esi
	call	_lua_touserdata
	mov	edi, eax
	add	esp, 8
	test	edi, edi
	je	SHORT $LN7@BasicLuaMe@48
	xor	bl, bl
$LN7@BasicLuaMe@48:
	push	ebp
	push	esi
	call	_lua_settop
	add	esp, 8
	test	bl, bl
	je	SHORT $LN14@BasicLuaMe@48
	push	OFFSET $SG223804
	push	esi
	call	_luaL_error
	push	OFFSET $SG223812
	push	esi
	call	_luaL_error
	add	esp, 16					; 00000010H
$LN14@BasicLuaMe@48:

; 81   : 	CvLuaArgs::pushValue<ret>(L, (pkType->*func)(CvLuaArgs::toValue<arg1>(L, idx)));

	push	2
	push	esi
	call	_lua_tointeger
	add	esp, 8
	push	eax
	mov	ecx, edi
	call	DWORD PTR _func$[esp+16]
	movzx	eax, al
	push	eax
	push	esi
	call	_lua_pushboolean
	add	esp, 8
	pop	edi
	pop	esi
	pop	ebp

; 82   : 
; 83   : 	return 1;

	mov	eax, 1
	pop	ebx

; 84   : }

	ret	0
??$BasicLuaMethod@_NW4PlayerTypes@@@?$CvLuaMethodWrapper@VCvLuaCity@@VCvCity@@@@KAHPAUlua_State@@P8CvCity@@BE_NW4PlayerTypes@@@Z@Z ENDP ; CvLuaMethodWrapper<CvLuaCity,CvCity>::BasicLuaMethod<bool,enum PlayerTypes>
_TEXT	ENDS
PUBLIC	??$BasicLuaMethod@_NW4TeamTypes@@_N@?$CvLuaMethodWrapper@VCvLuaCity@@VCvCity@@@@KAHPAUlua_State@@P8CvCity@@AE_NW4TeamTypes@@_N@Z@Z ; CvLuaMethodWrapper<CvLuaCity,CvCity>::BasicLuaMethod<bool,enum TeamTypes,bool>
; Function compile flags: /Ogtpy
;	COMDAT ??$BasicLuaMethod@_NW4TeamTypes@@_N@?$CvLuaMethodWrapper@VCvLuaCity@@VCvCity@@@@KAHPAUlua_State@@P8CvCity@@AE_NW4TeamTypes@@_N@Z@Z
_TEXT	SEGMENT
$T227180 = -4						; size = 1
_L$ = 8							; size = 4
_func$ = 12						; size = 4
??$BasicLuaMethod@_NW4TeamTypes@@_N@?$CvLuaMethodWrapper@VCvLuaCity@@VCvCity@@@@KAHPAUlua_State@@P8CvCity@@AE_NW4TeamTypes@@_N@Z@Z PROC ; CvLuaMethodWrapper<CvLuaCity,CvCity>::BasicLuaMethod<bool,enum TeamTypes,bool>, COMDAT

; 140  : {

	push	ecx
	push	ebx
	push	ebp
	push	esi

; 141  : 	const int idx = Derived::GetStartingArgIndex();
; 142  : 	InstanceType* pkType = Derived::GetInstance(L);

	mov	esi, DWORD PTR _L$[esp+12]
	push	edi
	push	esi
	call	_lua_gettop
	push	1
	push	esi
	mov	ebp, eax
	mov	bl, 1
	xor	edi, edi
	call	_lua_type
	add	esp, 12					; 0000000cH
	cmp	eax, 5
	jne	SHORT $LN7@BasicLuaMe@49
	push	OFFSET $SG223798
	push	1
	push	esi
	call	_lua_getfield
	push	-1
	push	esi
	call	_lua_type
	add	esp, 20					; 00000014H
	cmp	eax, 2
	jne	SHORT $LN7@BasicLuaMe@49
	push	-1
	push	esi
	call	_lua_touserdata
	mov	edi, eax
	add	esp, 8
	test	edi, edi
	je	SHORT $LN7@BasicLuaMe@49
	xor	bl, bl
$LN7@BasicLuaMe@49:
	push	ebp
	push	esi
	call	_lua_settop
	add	esp, 8
	test	bl, bl
	je	SHORT $LN14@BasicLuaMe@49
	push	OFFSET $SG223804
	push	esi
	call	_luaL_error
	push	OFFSET $SG223812
	push	esi
	call	_luaL_error
	add	esp, 16					; 00000010H
$LN14@BasicLuaMe@49:

; 143  : 	CvLuaArgs::pushValue<ret>(L, (pkType->*func)(CvLuaArgs::toValue<arg1>(L, idx), CvLuaArgs::toValue<arg2>(L, idx + 1)));

	push	3
	push	esi
	call	_lua_toboolean
	test	eax, eax
	setne	al
	push	2
	push	esi
	mov	BYTE PTR $T227180[esp+36], al
	call	_lua_tointeger
	mov	ecx, DWORD PTR $T227180[esp+36]
	add	esp, 16					; 00000010H
	push	ecx
	push	eax
	mov	ecx, edi
	call	DWORD PTR _func$[esp+24]
	movzx	edx, al
	push	edx
	push	esi
	call	_lua_pushboolean
	add	esp, 8
	pop	edi
	pop	esi
	pop	ebp

; 144  : 
; 145  : 	return 1;

	mov	eax, 1
	pop	ebx

; 146  : }

	pop	ecx
	ret	0
??$BasicLuaMethod@_NW4TeamTypes@@_N@?$CvLuaMethodWrapper@VCvLuaCity@@VCvCity@@@@KAHPAUlua_State@@P8CvCity@@AE_NW4TeamTypes@@_N@Z@Z ENDP ; CvLuaMethodWrapper<CvLuaCity,CvCity>::BasicLuaMethod<bool,enum TeamTypes,bool>
_TEXT	ENDS
PUBLIC	??$BasicLuaMethod@HW4UnitCombatTypes@@@?$CvLuaMethodWrapper@VCvLuaCity@@VCvCity@@@@KAHPAUlua_State@@P8CvCity@@BEHW4UnitCombatTypes@@@Z@Z ; CvLuaMethodWrapper<CvLuaCity,CvCity>::BasicLuaMethod<int,enum UnitCombatTypes>
; Function compile flags: /Ogtpy
;	COMDAT ??$BasicLuaMethod@HW4UnitCombatTypes@@@?$CvLuaMethodWrapper@VCvLuaCity@@VCvCity@@@@KAHPAUlua_State@@P8CvCity@@BEHW4UnitCombatTypes@@@Z@Z
_TEXT	SEGMENT
_L$ = 8							; size = 4
_func$ = 12						; size = 4
??$BasicLuaMethod@HW4UnitCombatTypes@@@?$CvLuaMethodWrapper@VCvLuaCity@@VCvCity@@@@KAHPAUlua_State@@P8CvCity@@BEHW4UnitCombatTypes@@@Z@Z PROC ; CvLuaMethodWrapper<CvLuaCity,CvCity>::BasicLuaMethod<int,enum UnitCombatTypes>, COMDAT

; 78   : {

	push	ebx
	push	ebp
	push	esi

; 79   : 	const int idx = Derived::GetStartingArgIndex();
; 80   : 	InstanceType* pkType = Derived::GetInstance(L);

	mov	esi, DWORD PTR _L$[esp+8]
	push	edi
	push	esi
	call	_lua_gettop
	push	1
	push	esi
	mov	ebp, eax
	mov	bl, 1
	xor	edi, edi
	call	_lua_type
	add	esp, 12					; 0000000cH
	cmp	eax, 5
	jne	SHORT $LN7@BasicLuaMe@50
	push	OFFSET $SG223798
	push	1
	push	esi
	call	_lua_getfield
	push	-1
	push	esi
	call	_lua_type
	add	esp, 20					; 00000014H
	cmp	eax, 2
	jne	SHORT $LN7@BasicLuaMe@50
	push	-1
	push	esi
	call	_lua_touserdata
	mov	edi, eax
	add	esp, 8
	test	edi, edi
	je	SHORT $LN7@BasicLuaMe@50
	xor	bl, bl
$LN7@BasicLuaMe@50:
	push	ebp
	push	esi
	call	_lua_settop
	add	esp, 8
	test	bl, bl
	je	SHORT $LN14@BasicLuaMe@50
	push	OFFSET $SG223804
	push	esi
	call	_luaL_error
	push	OFFSET $SG223812
	push	esi
	call	_luaL_error
	add	esp, 16					; 00000010H
$LN14@BasicLuaMe@50:

; 81   : 	CvLuaArgs::pushValue<ret>(L, (pkType->*func)(CvLuaArgs::toValue<arg1>(L, idx)));

	push	2
	push	esi
	call	_lua_tointeger
	add	esp, 8
	push	eax
	mov	ecx, edi
	call	DWORD PTR _func$[esp+16]
	push	eax
	push	esi
	call	_lua_pushinteger
	add	esp, 8
	pop	edi
	pop	esi
	pop	ebp

; 82   : 
; 83   : 	return 1;

	mov	eax, 1
	pop	ebx

; 84   : }

	ret	0
??$BasicLuaMethod@HW4UnitCombatTypes@@@?$CvLuaMethodWrapper@VCvLuaCity@@VCvCity@@@@KAHPAUlua_State@@P8CvCity@@BEHW4UnitCombatTypes@@@Z@Z ENDP ; CvLuaMethodWrapper<CvLuaCity,CvCity>::BasicLuaMethod<int,enum UnitCombatTypes>
_TEXT	ENDS
PUBLIC	??$BasicLuaMethod@HW4PromotionTypes@@@?$CvLuaMethodWrapper@VCvLuaCity@@VCvCity@@@@KAHPAUlua_State@@P8CvCity@@BEHW4PromotionTypes@@@Z@Z ; CvLuaMethodWrapper<CvLuaCity,CvCity>::BasicLuaMethod<int,enum PromotionTypes>
; Function compile flags: /Ogtpy
;	COMDAT ??$BasicLuaMethod@HW4PromotionTypes@@@?$CvLuaMethodWrapper@VCvLuaCity@@VCvCity@@@@KAHPAUlua_State@@P8CvCity@@BEHW4PromotionTypes@@@Z@Z
_TEXT	SEGMENT
_L$ = 8							; size = 4
_func$ = 12						; size = 4
??$BasicLuaMethod@HW4PromotionTypes@@@?$CvLuaMethodWrapper@VCvLuaCity@@VCvCity@@@@KAHPAUlua_State@@P8CvCity@@BEHW4PromotionTypes@@@Z@Z PROC ; CvLuaMethodWrapper<CvLuaCity,CvCity>::BasicLuaMethod<int,enum PromotionTypes>, COMDAT

; 78   : {

	push	ebx
	push	ebp
	push	esi

; 79   : 	const int idx = Derived::GetStartingArgIndex();
; 80   : 	InstanceType* pkType = Derived::GetInstance(L);

	mov	esi, DWORD PTR _L$[esp+8]
	push	edi
	push	esi
	call	_lua_gettop
	push	1
	push	esi
	mov	ebp, eax
	mov	bl, 1
	xor	edi, edi
	call	_lua_type
	add	esp, 12					; 0000000cH
	cmp	eax, 5
	jne	SHORT $LN7@BasicLuaMe@51
	push	OFFSET $SG223798
	push	1
	push	esi
	call	_lua_getfield
	push	-1
	push	esi
	call	_lua_type
	add	esp, 20					; 00000014H
	cmp	eax, 2
	jne	SHORT $LN7@BasicLuaMe@51
	push	-1
	push	esi
	call	_lua_touserdata
	mov	edi, eax
	add	esp, 8
	test	edi, edi
	je	SHORT $LN7@BasicLuaMe@51
	xor	bl, bl
$LN7@BasicLuaMe@51:
	push	ebp
	push	esi
	call	_lua_settop
	add	esp, 8
	test	bl, bl
	je	SHORT $LN14@BasicLuaMe@51
	push	OFFSET $SG223804
	push	esi
	call	_luaL_error
	push	OFFSET $SG223812
	push	esi
	call	_luaL_error
	add	esp, 16					; 00000010H
$LN14@BasicLuaMe@51:

; 81   : 	CvLuaArgs::pushValue<ret>(L, (pkType->*func)(CvLuaArgs::toValue<arg1>(L, idx)));

	push	2
	push	esi
	call	_lua_tointeger
	add	esp, 8
	push	eax
	mov	ecx, edi
	call	DWORD PTR _func$[esp+16]
	push	eax
	push	esi
	call	_lua_pushinteger
	add	esp, 8
	pop	edi
	pop	esi
	pop	ebp

; 82   : 
; 83   : 	return 1;

	mov	eax, 1
	pop	ebx

; 84   : }

	ret	0
??$BasicLuaMethod@HW4PromotionTypes@@@?$CvLuaMethodWrapper@VCvLuaCity@@VCvCity@@@@KAHPAUlua_State@@P8CvCity@@BEHW4PromotionTypes@@@Z@Z ENDP ; CvLuaMethodWrapper<CvLuaCity,CvCity>::BasicLuaMethod<int,enum PromotionTypes>
_TEXT	ENDS
PUBLIC	??$BasicLuaMethod@_NW4PromotionTypes@@@?$CvLuaMethodWrapper@VCvLuaCity@@VCvCity@@@@KAHPAUlua_State@@P8CvCity@@BE_NW4PromotionTypes@@@Z@Z ; CvLuaMethodWrapper<CvLuaCity,CvCity>::BasicLuaMethod<bool,enum PromotionTypes>
; Function compile flags: /Ogtpy
;	COMDAT ??$BasicLuaMethod@_NW4PromotionTypes@@@?$CvLuaMethodWrapper@VCvLuaCity@@VCvCity@@@@KAHPAUlua_State@@P8CvCity@@BE_NW4PromotionTypes@@@Z@Z
_TEXT	SEGMENT
_L$ = 8							; size = 4
_func$ = 12						; size = 4
??$BasicLuaMethod@_NW4PromotionTypes@@@?$CvLuaMethodWrapper@VCvLuaCity@@VCvCity@@@@KAHPAUlua_State@@P8CvCity@@BE_NW4PromotionTypes@@@Z@Z PROC ; CvLuaMethodWrapper<CvLuaCity,CvCity>::BasicLuaMethod<bool,enum PromotionTypes>, COMDAT

; 78   : {

	push	ebx
	push	ebp
	push	esi

; 79   : 	const int idx = Derived::GetStartingArgIndex();
; 80   : 	InstanceType* pkType = Derived::GetInstance(L);

	mov	esi, DWORD PTR _L$[esp+8]
	push	edi
	push	esi
	call	_lua_gettop
	push	1
	push	esi
	mov	ebp, eax
	mov	bl, 1
	xor	edi, edi
	call	_lua_type
	add	esp, 12					; 0000000cH
	cmp	eax, 5
	jne	SHORT $LN7@BasicLuaMe@52
	push	OFFSET $SG223798
	push	1
	push	esi
	call	_lua_getfield
	push	-1
	push	esi
	call	_lua_type
	add	esp, 20					; 00000014H
	cmp	eax, 2
	jne	SHORT $LN7@BasicLuaMe@52
	push	-1
	push	esi
	call	_lua_touserdata
	mov	edi, eax
	add	esp, 8
	test	edi, edi
	je	SHORT $LN7@BasicLuaMe@52
	xor	bl, bl
$LN7@BasicLuaMe@52:
	push	ebp
	push	esi
	call	_lua_settop
	add	esp, 8
	test	bl, bl
	je	SHORT $LN14@BasicLuaMe@52
	push	OFFSET $SG223804
	push	esi
	call	_luaL_error
	push	OFFSET $SG223812
	push	esi
	call	_luaL_error
	add	esp, 16					; 00000010H
$LN14@BasicLuaMe@52:

; 81   : 	CvLuaArgs::pushValue<ret>(L, (pkType->*func)(CvLuaArgs::toValue<arg1>(L, idx)));

	push	2
	push	esi
	call	_lua_tointeger
	add	esp, 8
	push	eax
	mov	ecx, edi
	call	DWORD PTR _func$[esp+16]
	movzx	eax, al
	push	eax
	push	esi
	call	_lua_pushboolean
	add	esp, 8
	pop	edi
	pop	esi
	pop	ebp

; 82   : 
; 83   : 	return 1;

	mov	eax, 1
	pop	ebx

; 84   : }

	ret	0
??$BasicLuaMethod@_NW4PromotionTypes@@@?$CvLuaMethodWrapper@VCvLuaCity@@VCvCity@@@@KAHPAUlua_State@@P8CvCity@@BE_NW4PromotionTypes@@@Z@Z ENDP ; CvLuaMethodWrapper<CvLuaCity,CvCity>::BasicLuaMethod<bool,enum PromotionTypes>
_TEXT	ENDS
PUBLIC	??$BasicLuaMethod@H_N@?$CvLuaMethodWrapper@VCvLuaCity@@VCvCity@@@@KAHPAUlua_State@@P8CvCity@@AEXH_N@Z@Z ; CvLuaMethodWrapper<CvLuaCity,CvCity>::BasicLuaMethod<int,bool>
; Function compile flags: /Ogtpy
;	COMDAT ??$BasicLuaMethod@H_N@?$CvLuaMethodWrapper@VCvLuaCity@@VCvCity@@@@KAHPAUlua_State@@P8CvCity@@AEXH_N@Z@Z
_TEXT	SEGMENT
$T227332 = -4						; size = 1
_L$ = 8							; size = 4
_func$ = 12						; size = 4
??$BasicLuaMethod@H_N@?$CvLuaMethodWrapper@VCvLuaCity@@VCvCity@@@@KAHPAUlua_State@@P8CvCity@@AEXH_N@Z@Z PROC ; CvLuaMethodWrapper<CvLuaCity,CvCity>::BasicLuaMethod<int,bool>, COMDAT

; 239  : {

	push	ecx
	push	ebx
	push	ebp
	push	esi

; 240  : 	const int idx = Derived::GetStartingArgIndex();
; 241  : 	InstanceType* pkType = Derived::GetInstance(L);

	mov	esi, DWORD PTR _L$[esp+12]
	push	edi
	push	esi
	call	_lua_gettop
	push	1
	push	esi
	mov	ebp, eax
	mov	bl, 1
	xor	edi, edi
	call	_lua_type
	add	esp, 12					; 0000000cH
	cmp	eax, 5
	jne	SHORT $LN7@BasicLuaMe@53
	push	OFFSET $SG223798
	push	1
	push	esi
	call	_lua_getfield
	push	-1
	push	esi
	call	_lua_type
	add	esp, 20					; 00000014H
	cmp	eax, 2
	jne	SHORT $LN7@BasicLuaMe@53
	push	-1
	push	esi
	call	_lua_touserdata
	mov	edi, eax
	add	esp, 8
	test	edi, edi
	je	SHORT $LN7@BasicLuaMe@53
	xor	bl, bl
$LN7@BasicLuaMe@53:
	push	ebp
	push	esi
	call	_lua_settop
	add	esp, 8
	test	bl, bl
	je	SHORT $LN14@BasicLuaMe@53
	push	OFFSET $SG223804
	push	esi
	call	_luaL_error
	push	OFFSET $SG223812
	push	esi
	call	_luaL_error
	add	esp, 16					; 00000010H
$LN14@BasicLuaMe@53:

; 242  : 	(pkType->*func)(CvLuaArgs::toValue<arg1>(L, idx), CvLuaArgs::toValue<arg2>(L, idx + 1));

	push	3
	push	esi
	call	_lua_toboolean
	add	esp, 8
	test	eax, eax
	setne	al
	mov	BYTE PTR $T227332[esp+20], al
	mov	ecx, DWORD PTR $T227332[esp+20]
	push	ecx
	push	2
	push	esi
	call	_lua_tointeger
	add	esp, 8
	push	eax
	mov	ecx, edi
	call	DWORD PTR _func$[esp+24]
	pop	edi
	pop	esi
	pop	ebp

; 243  : 	return 0;

	xor	eax, eax
	pop	ebx

; 244  : }

	pop	ecx
	ret	0
??$BasicLuaMethod@H_N@?$CvLuaMethodWrapper@VCvLuaCity@@VCvCity@@@@KAHPAUlua_State@@P8CvCity@@AEXH_N@Z@Z ENDP ; CvLuaMethodWrapper<CvLuaCity,CvCity>::BasicLuaMethod<int,bool>
_TEXT	ENDS
PUBLIC	??$BasicLuaMethod@_NHH@?$CvLuaMethodWrapper@VCvLuaCity@@VCvCity@@@@KAHPAUlua_State@@P8CvCity@@BE_NHH@Z@Z ; CvLuaMethodWrapper<CvLuaCity,CvCity>::BasicLuaMethod<bool,int,int>
; Function compile flags: /Ogtpy
;	COMDAT ??$BasicLuaMethod@_NHH@?$CvLuaMethodWrapper@VCvLuaCity@@VCvCity@@@@KAHPAUlua_State@@P8CvCity@@BE_NHH@Z@Z
_TEXT	SEGMENT
_L$ = 8							; size = 4
_func$ = 12						; size = 4
??$BasicLuaMethod@_NHH@?$CvLuaMethodWrapper@VCvLuaCity@@VCvCity@@@@KAHPAUlua_State@@P8CvCity@@BE_NHH@Z@Z PROC ; CvLuaMethodWrapper<CvLuaCity,CvCity>::BasicLuaMethod<bool,int,int>, COMDAT

; 88   : {

	push	ebx
	push	ebp
	push	esi

; 89   : 	const int idx = Derived::GetStartingArgIndex();
; 90   : 	InstanceType* pkType = Derived::GetInstance(L);

	mov	esi, DWORD PTR _L$[esp+8]
	push	edi
	push	esi
	call	_lua_gettop
	push	1
	push	esi
	mov	ebp, eax
	mov	bl, 1
	xor	edi, edi
	call	_lua_type
	add	esp, 12					; 0000000cH
	cmp	eax, 5
	jne	SHORT $LN7@BasicLuaMe@54
	push	OFFSET $SG223798
	push	1
	push	esi
	call	_lua_getfield
	push	-1
	push	esi
	call	_lua_type
	add	esp, 20					; 00000014H
	cmp	eax, 2
	jne	SHORT $LN7@BasicLuaMe@54
	push	-1
	push	esi
	call	_lua_touserdata
	mov	edi, eax
	add	esp, 8
	test	edi, edi
	je	SHORT $LN7@BasicLuaMe@54
	xor	bl, bl
$LN7@BasicLuaMe@54:
	push	ebp
	push	esi
	call	_lua_settop
	add	esp, 8
	test	bl, bl
	je	SHORT $LN14@BasicLuaMe@54
	push	OFFSET $SG223804
	push	esi
	call	_luaL_error
	push	OFFSET $SG223812
	push	esi
	call	_luaL_error
	add	esp, 16					; 00000010H
$LN14@BasicLuaMe@54:

; 91   : 	CvLuaArgs::pushValue<ret>(L, (pkType->*func)(CvLuaArgs::toValue<arg1>(L, idx), CvLuaArgs::toValue<arg2>(L, idx + 1)));

	push	3
	push	esi
	call	_lua_tointeger
	push	2
	push	esi
	mov	ebx, eax
	call	_lua_tointeger
	add	esp, 16					; 00000010H
	push	ebx
	push	eax
	mov	ecx, edi
	call	DWORD PTR _func$[esp+20]
	movzx	eax, al
	push	eax
	push	esi
	call	_lua_pushboolean
	add	esp, 8
	pop	edi
	pop	esi
	pop	ebp

; 92   : 
; 93   : 	return 1;

	mov	eax, 1
	pop	ebx

; 94   : }

	ret	0
??$BasicLuaMethod@_NHH@?$CvLuaMethodWrapper@VCvLuaCity@@VCvCity@@@@KAHPAUlua_State@@P8CvCity@@BE_NHH@Z@Z ENDP ; CvLuaMethodWrapper<CvLuaCity,CvCity>::BasicLuaMethod<bool,int,int>
_TEXT	ENDS
PUBLIC	??$BasicLuaMethod@H@?$CvLuaMethodWrapper@VCvLuaCity@@VCvCity@@@@KAHPAUlua_State@@P8CvCity@@AEHXZ@Z ; CvLuaMethodWrapper<CvLuaCity,CvCity>::BasicLuaMethod<int>
; Function compile flags: /Ogtpy
;	COMDAT ??$BasicLuaMethod@H@?$CvLuaMethodWrapper@VCvLuaCity@@VCvCity@@@@KAHPAUlua_State@@P8CvCity@@AEHXZ@Z
_TEXT	SEGMENT
_L$ = 8							; size = 4
_func$ = 12						; size = 4
??$BasicLuaMethod@H@?$CvLuaMethodWrapper@VCvLuaCity@@VCvCity@@@@KAHPAUlua_State@@P8CvCity@@AEHXZ@Z PROC ; CvLuaMethodWrapper<CvLuaCity,CvCity>::BasicLuaMethod<int>, COMDAT

; 121  : {

	push	ebx
	push	ebp
	push	esi

; 122  : 	InstanceType* pkType = Derived::GetInstance(L);

	mov	esi, DWORD PTR _L$[esp+8]
	push	edi
	push	esi
	call	_lua_gettop
	push	1
	push	esi
	mov	ebp, eax
	mov	bl, 1
	xor	edi, edi
	call	_lua_type
	add	esp, 12					; 0000000cH
	cmp	eax, 5
	jne	SHORT $LN5@BasicLuaMe@55
	push	OFFSET $SG223798
	push	1
	push	esi
	call	_lua_getfield
	push	-1
	push	esi
	call	_lua_type
	add	esp, 20					; 00000014H
	cmp	eax, 2
	jne	SHORT $LN5@BasicLuaMe@55
	push	-1
	push	esi
	call	_lua_touserdata
	mov	edi, eax
	add	esp, 8
	test	edi, edi
	je	SHORT $LN5@BasicLuaMe@55
	xor	bl, bl
$LN5@BasicLuaMe@55:
	push	ebp
	push	esi
	call	_lua_settop
	add	esp, 8
	test	bl, bl
	je	SHORT $LN12@BasicLuaMe@55
	push	OFFSET $SG223804
	push	esi
	call	_luaL_error
	push	OFFSET $SG223812
	push	esi
	call	_luaL_error
	add	esp, 16					; 00000010H
