; Listing generated by Microsoft (R) Optimizing Compiler Version 15.00.30729.01 

	TITLE	c:\Users\EnormousApplePie\Documents\GitHub\Lekmod\LEKMOD_DLL\CvGameCoreDLL_Expansion2\Lua\CvLuaEnums.cpp
	.686P
	.XMM
	include listing.inc
	.model	flat

INCLUDELIB MSVCRT
INCLUDELIB OLDNAMES

PUBLIC	?NO_QUEST_DATA@CvMinorCivQuest@@2HB		; CvMinorCivQuest::NO_QUEST_DATA
PUBLIC	?NO_TURN@CvMinorCivQuest@@2HB			; CvMinorCivQuest::NO_TURN
CONST	SEGMENT
$SG220693 DB	'InterfaceDirtyBits', 00H
	ORG $+1
$SG220694 DB	'SelectionCamera_DIRTY_BIT', 00H
	ORG $+2
$SG220695 DB	'Fog_DIRTY_BIT', 00H
	ORG $+2
$SG220696 DB	'Waypoints_DIRTY_BIT', 00H
$SG220697 DB	'PercentButtons_DIRTY_BIT', 00H
	ORG $+3
$SG220698 DB	'MiscButtons_DIRTY_BIT', 00H
	ORG $+2
$SG220699 DB	'PlotListButtons_DIRTY_BIT', 00H
	ORG $+2
$SG220700 DB	'SelectionButtons_DIRTY_BIT', 00H
	ORG $+1
$SG220701 DB	'CitizenButtons_DIRTY_BIT', 00H
	ORG $+3
$SG220702 DB	'ResearchButtons_DIRTY_BIT', 00H
	ORG $+2
$SG220703 DB	'Event_DIRTY_BIT', 00H
$SG220704 DB	'Center_DIRTY_BIT', 00H
	ORG $+3
$SG220705 DB	'GameData_DIRTY_BIT', 00H
	ORG $+1
$SG220706 DB	'Score_DIRTY_BIT', 00H
$SG220707 DB	'TurnTimer_DIRTY_BIT', 00H
$SG220708 DB	'Help_DIRTY_BIT', 00H
	ORG $+1
$SG220709 DB	'MinimapSection_DIRTY_BIT', 00H
	ORG $+3
$SG220710 DB	'SelectionSound_DIRTY_BIT', 00H
	ORG $+3
$SG220711 DB	'Cursor_DIRTY_BIT', 00H
	ORG $+3
$SG220712 DB	'CityInfo_DIRTY_BIT', 00H
	ORG $+1
$SG220713 DB	'UnitInfo_DIRTY_BIT', 00H
	ORG $+1
$SG220714 DB	'Popup_DIRTY_BIT', 00H
$SG220715 DB	'CityScreen_DIRTY_BIT', 00H
	ORG $+3
$SG220716 DB	'InfoPane_DIRTY_BIT', 00H
	ORG $+1
$SG220717 DB	'HighlightPlot_DIRTY_BIT', 00H
$SG220718 DB	'ColoredPlots_DIRTY_BIT', 00H
	ORG $+1
$SG220719 DB	'BlockadedPlots_DIRTY_BIT', 00H
	ORG $+3
$SG220720 DB	'Financial_Screen_DIRTY_BIT', 00H
	ORG $+1
$SG220721 DB	'Foreign_Screen_DIRTY_BIT', 00H
	ORG $+3
$SG220722 DB	'Soundtrack_DIRTY_BIT', 00H
	ORG $+3
$SG220723 DB	'Domestic_Advisor_DIRTY_BIT', 00H
	ORG $+1
$SG220724 DB	'Advanced_Start_DIRTY_BIT', 00H
	ORG $+3
$SG220725 DB	'NationalBorders_DIRTY_BIT', 00H
	ORG $+2
$SG220726 DB	'Policies_DIRTY_BIT', 00H
	ORG $+1
$SG220727 DB	'PlotData_DIRTY_BIT', 00H
	ORG $+1
$SG220728 DB	'NUM_INTERFACE_DIRTY_BITS', 00H
	ORG $+3
$SG220729 DB	'CityUpdateTypes', 00H
$SG220730 DB	'NO_CITY_UPDATE_TYPE', 00H
$SG220731 DB	'CITY_UPDATE_TYPE_BANNER', 00H
$SG220732 DB	'CITY_UPDATE_TYPE_SPECIALISTS', 00H
	ORG $+3
$SG220733 DB	'CITY_UPDATE_TYPE_PRODUCTION', 00H
$SG220734 DB	'CITY_UPDATE_TYPE_ENEMY_IN_RANGE', 00H
$SG220735 DB	'CITY_UPDATE_TYPE_GARRISON', 00H
	ORG $+2
$SG220736 DB	'NUM_CITY_UPDATE_TYPES', 00H
	ORG $+2
$SG220737 DB	'ButtonPopupTypes', 00H
	ORG $+3
$SG220738 DB	'BUTTONPOPUP_TEXT', 00H
	ORG $+3
$SG220739 DB	'BUTTONPOPUP_MAIN_MENU', 00H
	ORG $+2
$SG220740 DB	'BUTTONPOPUP_CONFIRM_MENU', 00H
	ORG $+3
$SG220741 DB	'BUTTONPOPUP_DECLAREWARMOVE', 00H
	ORG $+1
$SG220742 DB	'BUTTONPOPUP_DECLAREWARRANGESTRIKE', 00H
	ORG $+2
$SG220743 DB	'BUTTONPOPUP_CONFIRMCOMMAND', 00H
	ORG $+1
$SG220744 DB	'BUTTONPOPUP_CONFIRM_CITY_TASK', 00H
	ORG $+2
$SG220745 DB	'BUTTONPOPUP_CONFIRM_IMPROVEMENT_REBUILD', 00H
$SG220746 DB	'BUTTONPOPUP_GREAT_PERSON', 00H
	ORG $+3
$SG220747 DB	'BUTTONPOPUP_LOADUNIT', 00H
	ORG $+3
$SG220748 DB	'BUTTONPOPUP_LEADUNIT', 00H
	ORG $+3
$SG220749 DB	'BUTTONPOPUP_CHOOSETECH', 00H
	ORG $+1
$SG220750 DB	'BUTTONPOPUP_CITY_CAPTURED', 00H
	ORG $+2
$SG220751 DB	'BUTTONPOPUP_ANNEX_CITY', 00H
	ORG $+1
$SG220752 DB	'BUTTONPOPUP_LIBERATE_MINOR', 00H
	ORG $+1
$SG220753 DB	'BUTTONPOPUP_DISBANDCITY', 00H
$SG220754 DB	'BUTTONPOPUP_CHOOSEPRODUCTION', 00H
	ORG $+3
$SG220755 DB	'BUTTONPOPUP_CHOOSEPOLICY', 00H
	ORG $+3
$SG220756 DB	'BUTTONPOPUP_CHOOSECITYPURCHASE', 00H
	ORG $+1
$SG220757 DB	'BUTTONPOPUP_CHOOSEELECTION', 00H
	ORG $+1
$SG220758 DB	'BUTTONPOPUP_DIPLOVOTE', 00H
	ORG $+2
$SG220759 DB	'BUTTONPOPUP_ALARM', 00H
	ORG $+2
$SG220760 DB	'BUTTONPOPUP_DEAL_CANCELED', 00H
	ORG $+2
$SG220761 DB	'BUTTONPOPUP_PYTHON', 00H
	ORG $+1
$SG220762 DB	'BUTTONPOPUP_PYTHON_SCREEN', 00H
	ORG $+2
$SG220763 DB	'BUTTONPOPUP_DETAILS', 00H
$SG220764 DB	'BUTTONPOPUP_ADMIN', 00H
	ORG $+2
$SG220765 DB	'BUTTONPOPUP_ADMIN_PASSWORD', 00H
	ORG $+1
$SG220766 DB	'BUTTONPOPUP_EXTENDED_GAME', 00H
	ORG $+2
$SG220767 DB	'BUTTONPOPUP_DIPLOMACY', 00H
	ORG $+2
$SG220768 DB	'BUTTONPOPUP_ADDBUDDY', 00H
	ORG $+3
$SG220769 DB	'BUTTONPOPUP_FORCED_DISCONNECT', 00H
	ORG $+2
$SG220770 DB	'BUTTONPOPUP_PITBOSS_DISCONNECT', 00H
	ORG $+1
$SG220771 DB	'BUTTONPOPUP_KICKED', 00H
	ORG $+1
$SG220772 DB	'BUTTONPOPUP_FREE_COLONY', 00H
$SG220773 DB	'BUTTONPOPUP_LAUNCH', 00H
	ORG $+1
$SG220774 DB	'BUTTONPOPUP_MINOR_GOLD', 00H
	ORG $+1
$SG220775 DB	'BUTTONPOPUP_MINOR_CIV_QUEST', 00H
$SG220776 DB	'BUTTONPOPUP_MINOR_CIV_QUEST_COMPLETED', 00H
	ORG $+2
$SG220777 DB	'BUTTONPOPUP_MINOR_CIV_INTRUSION', 00H
$SG220778 DB	'BUTTONPOPUP_MINOR_CIV_GREETING_AND_WAR', 00H
	ORG $+1
$SG220779 DB	'BUTTONPOPUP_BARBARIAN_RANSOM', 00H
	ORG $+3
$SG220780 DB	'BUTTONPOPUP_MINOR_CIV_ENTER_TERRITORY', 00H
	ORG $+2
$SG220781 DB	'BUTTONPOPUP_TEMP_SPECIALISTS', 00H
	ORG $+3
$SG220782 DB	'BUTTONPOPUP_NOTIFICATION_LOG', 00H
	ORG $+3
$SG220783 DB	'BUTTONPOPUP_ECONOMIC_OVERVIEW', 00H
	ORG $+2
$SG220784 DB	'BUTTONPOPUP_MILITARY_OVERVIEW', 00H
	ORG $+2
$SG220785 DB	'BUTTONPOPUP_DIPLOMATIC_OVERVIEW', 00H
$SG220786 DB	'BUTTONPOPUP_DEMOGRAPHICS', 00H
	ORG $+3
$SG220787 DB	'BUTTONPOPUP_VICTORY_INFO', 00H
	ORG $+3
$SG220788 DB	'BUTTONPOPUP_MINOR_CIVS_LIST', 00H
$SG220789 DB	'BUTTONPOPUP_GIFT_CONFIRM', 00H
	ORG $+3
$SG220790 DB	'BUTTONPOPUP_RETURN_CIVILIAN', 00H
$SG220791 DB	'BUTTONPOPUP_CONFIRM_POLICY_BRANCH_SWITCH', 00H
	ORG $+3
$SG220792 DB	'BUTTONPOPUP_WHOS_WINNING', 00H
	ORG $+3
$SG220793 DB	'BUTTONPOPUP_NEW_ERA', 00H
$SG220794 DB	'BUTTONPOPUP_NATURAL_WONDER_REWARD', 00H
	ORG $+2
$SG220795 DB	'BUTTONPOPUP_GOODY_HUT_REWARD', 00H
	ORG $+3
$SG220796 DB	'BUTTONPOPUP_BARBARIAN_CAMP_REWARD', 00H
	ORG $+2
$SG220797 DB	'BUTTONPOPUP_GOLDEN_AGE_REWARD', 00H
	ORG $+2
$SG220798 DB	'BUTTONPOPUP_GREAT_PERSON_REWARD', 00H
$SG220799 DB	'BUTTONPOPUP_CITY_STATE_GREETING', 00H
$SG220800 DB	'BUTTONPOPUP_CITY_STATE_MESSAGE', 00H
	ORG $+1
$SG220801 DB	'BUTTONPOPUP_CITY_STATE_DIPLO', 00H
	ORG $+3
$SG220802 DB	'BUTTONPOPUP_CITY_PLOT_MANAGEMENT', 00H
	ORG $+3
$SG220803 DB	'BUTTONPOPUP_DIPLO_VOTE', 00H
	ORG $+1
$SG220804 DB	'BUTTONPOPUP_VOTE_RESULTS', 00H
	ORG $+3
$SG220805 DB	'BUTTONPOPUP_TECH_TREE', 00H
	ORG $+2
$SG220806 DB	'BUTTONPOPUP_TECH_AWARD', 00H
	ORG $+1
$SG220807 DB	'BUTTONPOPUP_WONDER_COMPLETED_ACTIVE_PLAYER', 00H
	ORG $+1
$SG220808 DB	'BUTTONPOPUP_ADVISOR_INFO', 00H
	ORG $+3
$SG220809 DB	'BUTTONPOPUP_ADVISOR_COUNSEL', 00H
$SG220810 DB	'BUTTONPOPUP_ADVISOR_MODAL', 00H
	ORG $+2
$SG220811 DB	'BUTTONPOPUP_RENAME_CITY', 00H
$SG220812 DB	'BUTTONPOPUP_RENAME_UNIT', 00H
$SG220813 DB	'BUTTONPOPUP_CHOOSE_FREE_GREAT_PERSON', 00H
	ORG $+3
$SG220814 DB	'BUTTONPOPUP_FOUND_PANTHEON', 00H
	ORG $+1
$SG220815 DB	'BUTTONPOPUP_FOUND_RELIGION', 00H
	ORG $+1
$SG220816 DB	'BUTTONPOPUP_ESPIONAGE_OVERVIEW', 00H
	ORG $+1
$SG220817 DB	'BUTTONPOPUP_RELIGION_OVERVIEW', 00H
	ORG $+2
$SG220818 DB	'BUTTONPOPUP_CHOOSE_TECH_TO_STEAL', 00H
	ORG $+3
$SG220819 DB	'BUTTONPOPUP_CHOOSE_MAYA_BONUS', 00H
	ORG $+2
$SG220820 DB	'BUTTONPOPUP_CHOOSE_FAITH_GREAT_PERSON', 00H
	ORG $+2
$SG220821 DB	'BUTTONPOPUP_MODDER_0', 00H
	ORG $+3
$SG220822 DB	'BUTTONPOPUP_MODDER_1', 00H
	ORG $+3
$SG220823 DB	'BUTTONPOPUP_MODDER_2', 00H
	ORG $+3
$SG220824 DB	'BUTTONPOPUP_MODDER_3', 00H
	ORG $+3
$SG220825 DB	'BUTTONPOPUP_MODDER_4', 00H
	ORG $+3
$SG220826 DB	'BUTTONPOPUP_MODDER_5', 00H
	ORG $+3
$SG220827 DB	'BUTTONPOPUP_MODDER_6', 00H
	ORG $+3
$SG220828 DB	'BUTTONPOPUP_MODDER_7', 00H
	ORG $+3
$SG220829 DB	'BUTTONPOPUP_MODDER_8', 00H
	ORG $+3
$SG220830 DB	'BUTTONPOPUP_MODDER_9', 00H
	ORG $+3
$SG220831 DB	'BUTTONPOPUP_MODDER_10', 00H
	ORG $+2
$SG220832 DB	'BUTTONPOPUP_MODDER_11', 00H
	ORG $+2
$SG220834 DB	'BUTTONPOPUP_LEAGUE_OVERVIEW', 00H
$SG220836 DB	'BUTTONPOPUP_DECLAREWAR_PLUNDER_TRADE_ROUTE', 00H
	ORG $+1
$SG220838 DB	'BUTTONPOPUP_CHOOSE_ARCHAEOLOGY', 00H
	ORG $+1
$SG220840 DB	'BUTTONPOPUP_CHOOSE_IDEOLOGY', 00H
$SG220842 DB	'BUTTONPOPUP_CHOOSE_INTERNATIONAL_TRADE_ROUTE', 00H
	ORG $+3
$SG220844 DB	'BUTTONPOPUP_CULTURE_OVERVIEW', 00H
	ORG $+3
$SG220846 DB	'BUTTONPOPUP_CHOOSE_TRADE_UNIT_NEW_HOME', 00H
	ORG $+1
$SG220848 DB	'BUTTONPOPUP_GREAT_WORK_COMPLETED_ACTIVE_PLAYER', 00H
	ORG $+1
$SG220850 DB	'BUTTONPOPUP_TRADE_ROUTE_OVERVIEW', 00H
	ORG $+3
$SG220852 DB	'BUTTONPOPUP_LEAGUE_PROJECT_COMPLETED', 00H
	ORG $+3
$SG220854 DB	'BUTTONPOPUP_CHOOSE_GOODY_HUT_REWARD', 00H
$SG220856 DB	'BUTTONPOPUP_LEAGUE_SPLASH', 00H
	ORG $+2
$SG220858 DB	'BUTTONPOPUP_CHOOSE_ADMIRAL_PORT', 00H
$SG220859 DB	'YieldTypes', 00H
	ORG $+1
$SG220860 DB	'NO_YIELD', 00H
	ORG $+3
$SG220861 DB	'YIELD_FOOD', 00H
	ORG $+1
$SG220862 DB	'YIELD_PRODUCTION', 00H
	ORG $+3
$SG220863 DB	'YIELD_GOLD', 00H
	ORG $+1
$SG220864 DB	'YIELD_SCIENCE', 00H
	ORG $+2
$SG220865 DB	'YIELD_CULTURE', 00H
	ORG $+2
$SG220866 DB	'YIELD_FAITH', 00H
$SG220867 DB	'NUM_YIELD_TYPES', 00H
$SG220868 DB	'GameOptionTypes', 00H
$SG220869 DB	'NO_GAMEOPTION', 00H
	ORG $+2
$SG220870 DB	'GAMEOPTION_NO_CITY_RAZING', 00H
	ORG $+2
$SG220871 DB	'GAMEOPTION_NO_BARBARIANS', 00H
	ORG $+3
$SG220872 DB	'GAMEOPTION_RAGING_BARBARIANS', 00H
	ORG $+3
$SG220873 DB	'GAMEOPTION_ALWAYS_WAR', 00H
	ORG $+2
$SG220874 DB	'GAMEOPTION_ALWAYS_PEACE', 00H
$SG220875 DB	'GAMEOPTION_ONE_CITY_CHALLENGE', 00H
	ORG $+2
$SG220876 DB	'GAMEOPTION_NO_CHANGING_WAR_PEACE', 00H
	ORG $+3
$SG220877 DB	'GAMEOPTION_NEW_RANDOM_SEED', 00H
	ORG $+1
$SG220878 DB	'GAMEOPTION_LOCK_MODS', 00H
	ORG $+3
$SG220879 DB	'GAMEOPTION_COMPLETE_KILLS', 00H
	ORG $+2
$SG220880 DB	'GAMEOPTION_NO_GOODY_HUTS', 00H
	ORG $+3
$SG220881 DB	'GAMEOPTION_RANDOM_PERSONALITIES', 00H
$SG220882 DB	'GAMEOPTION_POLICY_SAVING', 00H
	ORG $+3
$SG220883 DB	'GAMEOPTION_PROMOTION_SAVING', 00H
$SG220884 DB	'GAMEOPTION_END_TURN_TIMER_ENABLED', 00H
	ORG $+2
$SG220885 DB	'GAMEOPTION_QUICK_COMBAT', 00H
$SG220886 DB	'GAMEOPTION_DISABLE_START_BIAS', 00H
	ORG $+2
$SG220887 DB	'GAMEOPTION_NO_SCIENCE', 00H
	ORG $+2
$SG220888 DB	'GAMEOPTION_NO_POLICIES', 00H
	ORG $+1
$SG220889 DB	'GAMEOPTION_NO_HAPPINESS', 00H
$SG220890 DB	'GAMEOPTION_NO_TUTORIAL', 00H
	ORG $+1
$SG220891 DB	'GAMEOPTION_NO_RELIGION', 00H
	ORG $+1
$SG220892 DB	'NUM_GAMEOPTION_TYPES', 00H
	ORG $+3
$SG220893 DB	'DomainTypes', 00H
$SG220894 DB	'NO_DOMAIN', 00H
	ORG $+2
$SG220895 DB	'DOMAIN_SEA', 00H
	ORG $+1
$SG220896 DB	'DOMAIN_AIR', 00H
	ORG $+1
$SG220897 DB	'DOMAIN_LAND', 00H
$SG220898 DB	'DOMAIN_IMMOBILE', 00H
$SG220899 DB	'DOMAIN_HOVER', 00H
	ORG $+3
$SG220900 DB	'NUM_DOMAIN_TYPES', 00H
	ORG $+3
$SG220901 DB	'FeatureTypes', 00H
	ORG $+3
$SG220902 DB	'NO_FEATURE', 00H
	ORG $+1
$SG220903 DB	'FEATURE_ICE', 00H
$SG220904 DB	'FEATURE_JUNGLE', 00H
	ORG $+1
$SG220905 DB	'FEATURE_MARSH', 00H
	ORG $+2
$SG220906 DB	'FEATURE_OASIS', 00H
	ORG $+2
$SG220907 DB	'FEATURE_FLOOD_PLAINS', 00H
	ORG $+3
$SG220908 DB	'FEATURE_FOREST', 00H
	ORG $+1
$SG220909 DB	'FEATURE_FALLOUT', 00H
$SG220910 DB	'NUM_FEATURE_TYPES', 00H
	ORG $+2
$SG220911 DB	'FogOfWarModeTypes', 00H
	ORG $+2
$SG220912 DB	'FOGOFWARMODE_OFF', 00H
	ORG $+3
$SG220913 DB	'FOGOFWARMODE_NOVIS', 00H
	ORG $+1
$SG220914 DB	'FOGOFWARMODE_UNEXPLORED', 00H
$SG220915 DB	'OrderTypes', 00H
	ORG $+1
$SG220916 DB	'NO_ORDER', 00H
	ORG $+3
$SG220917 DB	'ORDER_TRAIN', 00H
$SG220918 DB	'ORDER_CONSTRUCT', 00H
$SG220919 DB	'ORDER_CREATE', 00H
	ORG $+3
$SG220920 DB	'ORDER_PREPARE', 00H
	ORG $+2
$SG220921 DB	'ORDER_MAINTAIN', 00H
	ORG $+1
$SG220922 DB	'NUM_ORDER_TYPES', 00H
$SG220923 DB	'PlotTypes', 00H
	ORG $+2
$SG220924 DB	'NO_PLOT', 00H
$SG220925 DB	'PLOT_MOUNTAIN', 00H
	ORG $+2
$SG220926 DB	'PLOT_HILLS', 00H
	ORG $+1
$SG220927 DB	'PLOT_LAND', 00H
	ORG $+2
$SG220928 DB	'PLOT_OCEAN', 00H
	ORG $+1
$SG220929 DB	'NUM_PLOT_TYPES', 00H
	ORG $+1
$SG220930 DB	'TerrainTypes', 00H
	ORG $+3
$SG220931 DB	'NO_TERRAIN', 00H
	ORG $+1
$SG220932 DB	'TERRAIN_GRASS', 00H
	ORG $+2
$SG220933 DB	'TERRAIN_PLAINS', 00H
	ORG $+1
$SG220934 DB	'TERRAIN_DESERT', 00H
	ORG $+1
$SG220935 DB	'TERRAIN_TUNDRA', 00H
	ORG $+1
$SG220936 DB	'TERRAIN_SNOW', 00H
	ORG $+3
$SG220937 DB	'TERRAIN_COAST', 00H
	ORG $+2
$SG220938 DB	'TERRAIN_OCEAN', 00H
	ORG $+2
$SG220939 DB	'TERRAIN_MOUNTAIN', 00H
	ORG $+3
$SG220940 DB	'TERRAIN_HILL', 00H
	ORG $+3
$SG220941 DB	'NUM_TERRAIN_TYPES', 00H
	ORG $+2
$SG220942 DB	'InterfaceModeTypes', 00H
	ORG $+1
$SG220943 DB	'NO_INTERFACEMODE', 00H
	ORG $+3
$SG220944 DB	'INTERFACEMODE_DEBUG', 00H
$SG220945 DB	'INTERFACEMODE_SELECTION', 00H
$SG220946 DB	'INTERFACEMODE_PING', 00H
	ORG $+1
$SG220947 DB	'INTERFACEMODE_MOVE_TO', 00H
	ORG $+2
$SG220948 DB	'INTERFACEMODE_MOVE_TO_TYPE', 00H
	ORG $+1
$SG220949 DB	'INTERFACEMODE_MOVE_TO_ALL', 00H
	ORG $+2
$SG220950 DB	'INTERFACEMODE_ROUTE_TO', 00H
	ORG $+1
$SG220951 DB	'INTERFACEMODE_AIRLIFT', 00H
	ORG $+2
$SG220952 DB	'INTERFACEMODE_NUKE', 00H
	ORG $+1
$SG220953 DB	'INTERFACEMODE_PARADROP', 00H
	ORG $+1
$SG220954 DB	'INTERFACEMODE_ATTACK', 00H
	ORG $+3
$SG220955 DB	'INTERFACEMODE_RANGE_ATTACK', 00H
	ORG $+1
$SG220956 DB	'INTERFACEMODE_AIRSTRIKE', 00H
$SG220957 DB	'INTERFACEMODE_AIR_SWEEP', 00H
$SG220958 DB	'INTERFACEMODE_REBASE', 00H
	ORG $+3
$SG220959 DB	'INTERFACEMODE_PLACE_UNIT', 00H
	ORG $+3
$SG220960 DB	'INTERFACEMODE_EMBARK', 00H
	ORG $+3
$SG220961 DB	'INTERFACEMODE_DISEMBARK', 00H
$SG220962 DB	'INTERFACEMODE_GIFT_UNIT', 00H
$SG220963 DB	'INTERFACEMODE_CITY_PLOT_SELECTION', 00H
	ORG $+2
$SG220964 DB	'INTERFACEMODE_PURCHASE_PLOT', 00H
$SG220965 DB	'INTERFACEMODE_CITY_RANGE_ATTACK', 00H
$SG220966 DB	'INTERFACEMODE_GIFT_TILE_IMPROVEMENT', 00H
$SG220967 DB	'INTERFACEMODE_ESTABLISH_TRADE_ROUTE', 00H
$SG220968 DB	'NUM_INTERFACEMODE_TYPES', 00H
$SG220969 DB	'NotificationTypes', 00H
	ORG $+2
$SG220978 DB	'ActivityTypes', 00H
	ORG $+2
$SG220979 DB	'NO_ACTIVITY', 00H
$SG220980 DB	'ACTIVITY_AWAKE', 00H
	ORG $+1
$SG220981 DB	'ACTIVITY_HOLD', 00H
	ORG $+2
$SG220982 DB	'ACTIVITY_SLEEP', 00H
	ORG $+1
$SG220983 DB	'ACTIVITY_HEAL', 00H
	ORG $+2
$SG220984 DB	'ACTIVITY_SENTRY', 00H
$SG220985 DB	'ACTIVITY_INTERCEPT', 00H
	ORG $+1
$SG220986 DB	'ACTIVITY_MISSION', 00H
	ORG $+3
$SG220987 DB	'MissionTypes', 00H
	ORG $+3
$SG220988 DB	'NO_MISSION', 00H
	ORG $+1
$SG220989 DB	'NUM_MISSION_TYPES', 00H
	ORG $+2
$SG220990 DB	'Type', 00H
	ORG $+3
$SG220991 DB	'ID', 00H
	ORG $+1
$SG220992 DB	'Missions', 00H
	ORG $+3
$SG220993 DB	'ActionSubTypes', 00H
	ORG $+1
$SG220994 DB	'ACTIONSUBTYPE_INTERFACEMODE', 00H
$SG220995 DB	'ACTIONSUBTYPE_COMMAND', 00H
	ORG $+2
$SG220996 DB	'ACTIONSUBTYPE_BUILD', 00H
$SG220997 DB	'ACTIONSUBTYPE_PROMOTION', 00H
$SG220998 DB	'ACTIONSUBTYPE_SPECIALIST', 00H
	ORG $+3
$SG220999 DB	'ACTIONSUBTYPE_CONTROL', 00H
	ORG $+2
$SG221000 DB	'ACTIONSUBTYPE_AUTOMATE', 00H
	ORG $+1
$SG221001 DB	'ACTIONSUBTYPE_MISSION', 00H
	ORG $+2
$SG221002 DB	'NUM_ACTIONSUBTYPES', 00H
	ORG $+1
$SG221003 DB	'GameMessageTypes', 00H
	ORG $+3
$SG221004 DB	'GAMEMESSAGE_NETWORK_READY', 00H
	ORG $+2
$SG221005 DB	'GAMEMESSAGE_VERIFY_VERSION', 00H
	ORG $+1
$SG221006 DB	'GAMEMESSAGE_VERSION_NACK', 00H
	ORG $+3
$SG221007 DB	'GAMEMESSAGE_VERSION_WARNING', 00H
$SG221008 DB	'GAMEMESSAGE_GAME_TYPE', 00H
	ORG $+2
$SG221009 DB	'GAMEMESSAGE_ID_ASSIGNMENT', 00H
	ORG $+2
$SG221010 DB	'GAMEMESSAGE_FILE_INFO', 00H
	ORG $+2
$SG221011 DB	'GAMEMESSAGE_PICK_YOUR_CIV', 00H
	ORG $+2
$SG221012 DB	'GAMEMESSAGE_CIV_CHOICE', 00H
	ORG $+1
$SG221013 DB	'GAMEMESSAGE_CONFIRM_CIV_CLAIM', 00H
	ORG $+2
$SG221014 DB	'GAMEMESSAGE_CLAIM_INFO', 00H
	ORG $+1
$SG221015 DB	'GAMEMESSAGE_CIV_CHOICE_ACK', 00H
	ORG $+1
$SG221016 DB	'GAMEMESSAGE_CIV_CHOICE_NACK', 00H
$SG221017 DB	'GAMEMESSAGE_CIV_CHOSEN', 00H
	ORG $+1
$SG221018 DB	'GAMEMESSAGE_INTERIM_NOTICE', 00H
	ORG $+1
$SG221019 DB	'GAMEMESSAGE_INIT_INFO', 00H
	ORG $+2
$SG221020 DB	'GAMEMESSAGE_MAPSCRIPT_CHECK', 00H
$SG221021 DB	'GAMEMESSAGE_MAPSCRIPT_ACK', 00H
	ORG $+2
$SG221022 DB	'GAMEMESSAGE_LOAD_GAME', 00H
	ORG $+2
$SG221023 DB	'GAMEMESSAGE_PLAYER_ID', 00H
	ORG $+2
$SG221024 DB	'GAMEMESSAGE_SLOT_REASSIGNMENT', 00H
	ORG $+2
$SG221025 DB	'GAMEMESSAGE_PLAYER_INFO', 00H
$SG221026 DB	'GAMEMESSAGE_GAME_INFO', 00H
	ORG $+2
$SG221027 DB	'GAMEMESSAGE_REASSIGN_PLAYER', 00H
$SG221028 DB	'GAMEMESSAGE_PITBOSS_INFO', 00H
	ORG $+3
$SG221029 DB	'GAMEMESSAGE_LAUNCHING_INFO', 00H
	ORG $+1
$SG221030 DB	'GAMEMESSAGE_INIT_GAME', 00H
	ORG $+2
$SG221031 DB	'GAMEMESSAGE_INIT_PLAYERS', 00H
	ORG $+3
$SG221032 DB	'GAMEMESSAGE_AUTH_REQUEST', 00H
	ORG $+3
$SG221033 DB	'GAMEMESSAGE_AUTH_RESPONSE', 00H
	ORG $+2
$SG221034 DB	'GAMEMESSAGE_SYNCH_START', 00H
$SG221035 DB	'GAMEMESSAGE_PLAYER_OPTION', 00H
	ORG $+2
$SG221036 DB	'GAMEMESSAGE_EXTENDED_GAME', 00H
	ORG $+2
$SG221037 DB	'GAMEMESSAGE_AUTO_MOVES', 00H
	ORG $+1
$SG221038 DB	'GAMEMESSAGE_TURN_COMPLETE', 00H
	ORG $+2
$SG221039 DB	'GAMEMESSAGE_PUSH_MISSION', 00H
	ORG $+3
$SG221040 DB	'GAMEMESSAGE_AUTO_MISSION', 00H
	ORG $+3
$SG221041 DB	'GAMEMESSAGE_DO_COMMAND', 00H
	ORG $+1
$SG221042 DB	'GAMEMESSAGE_PUSH_ORDER', 00H
	ORG $+1
$SG221043 DB	'GAMEMESSAGE_POP_ORDER', 00H
	ORG $+2
$SG221044 DB	'GAMEMESSAGE_DO_TASK', 00H
$SG221045 DB	'GAMEMESSAGE_RESEARCH', 00H
	ORG $+3
$SG221046 DB	'GAMEMESSAGE_CONVERT', 00H
$SG221047 DB	'GAMEMESSAGE_CHAT', 00H
	ORG $+3
$SG221048 DB	'GAMEMESSAGE_PING', 00H
	ORG $+3
$SG221049 DB	'GAMEMESSAGE_SIGN', 00H
	ORG $+3
$SG221050 DB	'GAMEMESSAGE_LINE_ENTITY', 00H
$SG221051 DB	'GAMEMESSAGE_SIGN_DELETE', 00H
$SG221052 DB	'GAMEMESSAGE_LINE_ENTITY_DELETE', 00H
	ORG $+1
$SG221053 DB	'GAMEMESSAGE_LINE_GROUP_DELETE', 00H
	ORG $+2
$SG221054 DB	'GAMEMESSAGE_PAUSE', 00H
	ORG $+2
$SG221055 DB	'GAMEMESSAGE_MP_KICK', 00H
$SG221056 DB	'GAMEMESSAGE_MP_RETIRE', 00H
	ORG $+2
$SG221057 DB	'GAMEMESSAGE_CLOSE_CONNECTION', 00H
	ORG $+3
$SG221058 DB	'GAMEMESSAGE_NEVER_JOINED', 00H
	ORG $+3
$SG221059 DB	'GAMEMESSAGE_MP_DROP_INIT', 00H
	ORG $+3
$SG221060 DB	'GAMEMESSAGE_MP_DROP_VOTE', 00H
	ORG $+3
$SG221061 DB	'GAMEMESSAGE_MP_DROP_UPDATE', 00H
	ORG $+1
$SG221062 DB	'GAMEMESSAGE_MP_DROP_RESULT', 00H
	ORG $+1
$SG221063 DB	'GAMEMESSAGE_MP_DROP_SAVE', 00H
	ORG $+3
$SG221064 DB	'GAMEMESSAGE_TOGGLE_TRADE', 00H
	ORG $+3
$SG221065 DB	'GAMEMESSAGE_IMPLEMENT_OFFER', 00H
$SG221066 DB	'GAMEMESSAGE_CHANGE_WAR', 00H
	ORG $+1
$SG221067 DB	'GAMEMESSAGE_LIBERATE_PLAYER', 00H
$SG221068 DB	'GAMEMESSAGE_CHOOSE_ELECTION', 00H
$SG221069 DB	'GAMEMESSAGE_DIPLO_VOTE', 00H
	ORG $+1
$SG221070 DB	'GAMEMESSAGE_APPLY_EVENT', 00H
$SG221071 DB	'GAMEMESSAGE_CONTACT_CIV', 00H
$SG221072 DB	'GAMEMESSAGE_DIPLO_CHAT', 00H
	ORG $+1
$SG221073 DB	'GAMEMESSAGE_SEND_OFFER', 00H
	ORG $+1
$SG221074 DB	'GAMEMESSAGE_RENEGOTIATE', 00H
$SG221075 DB	'GAMEMESSAGE_RENEGOTIATE_ITEM', 00H
	ORG $+3
$SG221076 DB	'GAMEMESSAGE_EXIT_TRADE', 00H
	ORG $+1
$SG221077 DB	'GAMEMESSAGE_KILL_DEAL', 00H
	ORG $+2
$SG221078 DB	'GAMEMESSAGE_UPDATE_POLICIES', 00H
$SG221079 DB	'GAMEMESSAGE_CLEAR_TABLE', 00H
$SG221080 DB	'GAMEMESSAGE_POPUP_PROCESSED', 00H
$SG221081 DB	'GAMEMESSAGE_DIPLOMACY_FROM_UI', 00H
	ORG $+2
$SG221082 DB	'GAMEMESSAGE_HOT_DROP_NOTICE', 00H
$SG221083 DB	'GAMEMESSAGE_POPUP', 00H
	ORG $+2
$SG221084 DB	'GAMEMESSAGE_EVENT_TRIGGERED', 00H
$SG221085 DB	'GAMEMESSAGE_LAUNCH_SPACESHIP', 00H
	ORG $+3
$SG221086 DB	'GAMEMESSAGE_ADVANCED_START_ACTION', 00H
	ORG $+2
$SG221087 DB	'GAMEMESSAGE_MINOR_CIV_QUEST_NO_INTEREST', 00H
$SG221088 DB	'GAMEMESSAGE_MINOR_CIV_QUEST_COMPLETED', 00H
	ORG $+2
$SG221089 DB	'GAMEMESSAGE_MINOR_CIV_INTRUSION', 00H
$SG221090 DB	'GAMEMESSAGE_MINOR_CIV_ENTER_TERRITORY', 00H
	ORG $+2
$SG221091 DB	'GAMEMESSAGE_BARBARIAN_RANSOM', 00H
	ORG $+3
$SG221092 DB	'GAMEMESSAGE_PLAYER_HURRY', 00H
	ORG $+3
$SG221093 DB	'GAMEMESSAGE_MOD_NET_MESSAGE', 00H
$SG221094 DB	'GAMEMESSAGE_SWAP_UNITS', 00H
	ORG $+1
$SG221095 DB	'GAMEMESSAGE_SWAP_ORDER', 00H
	ORG $+1
$SG221096 DB	'GAMEMESSAGE_AVOID_GROWTH', 00H
	ORG $+3
$SG221097 DB	'TaskTypes', 00H
	ORG $+2
$SG221098 DB	'TASK_RAZE', 00H
	ORG $+2
$SG221099 DB	'TASK_UNRAZE', 00H
$SG221100 DB	'TASK_DISBAND', 00H
	ORG $+3
$SG221101 DB	'TASK_GIFT', 00H
	ORG $+2
$SG221102 DB	'TASK_SET_AUTOMATED_CITIZENS', 00H
$SG221103 DB	'TASK_SET_AUTOMATED_PRODUCTION', 00H
	ORG $+2
$SG221104 DB	'TASK_SET_EMPHASIZE', 00H
	ORG $+1
$SG221105 DB	'TASK_NO_AUTO_ASSIGN_SPECIALISTS', 00H
$SG221106 DB	'TASK_ADD_SPECIALIST', 00H
$SG221107 DB	'TASK_REMOVE_SPECIALIST', 00H
	ORG $+1
$SG221108 DB	'TASK_CHANGE_WORKING_PLOT', 00H
	ORG $+3
$SG221109 DB	'TASK_REMOVE_SLACKER', 00H
$SG221110 DB	'TASK_CLEAR_WORKING_OVERRIDE', 00H
$SG221111 DB	'TASK_HURRY', 00H
	ORG $+1
$SG221112 DB	'TASK_CONSCRIPT', 00H
	ORG $+1
$SG221113 DB	'TASK_CLEAR_ORDERS', 00H
	ORG $+2
$SG221114 DB	'TASK_RALLY_PLOT', 00H
$SG221115 DB	'TASK_CLEAR_RALLY_PLOT', 00H
	ORG $+2
$SG221116 DB	'TASK_RANGED_ATTACK', 00H
	ORG $+1
$SG221117 DB	'TASK_CREATE_PUPPET', 00H
	ORG $+1
$SG221118 DB	'TASK_ANNEX_PUPPET', 00H
	ORG $+2
$SG221119 DB	'NUM_TASK_TYPES', 00H
	ORG $+1
$SG221120 DB	'CommandTypes', 00H
	ORG $+3
$SG221121 DB	'COMMAND_PROMOTION', 00H
	ORG $+2
$SG221122 DB	'COMMAND_UPGRADE', 00H
$SG221123 DB	'COMMAND_AUTOMATE', 00H
	ORG $+3
$SG221124 DB	'COMMAND_WAKE', 00H
	ORG $+3
$SG221125 DB	'COMMAND_CANCEL', 00H
	ORG $+1
$SG221126 DB	'COMMAND_CANCEL_ALL', 00H
	ORG $+1
$SG221127 DB	'COMMAND_STOP_AUTOMATION', 00H
$SG221128 DB	'COMMAND_DELETE', 00H
	ORG $+1
$SG221129 DB	'COMMAND_GIFT', 00H
	ORG $+3
$SG221130 DB	'COMMAND_HOTKEY', 00H
	ORG $+1
$SG221131 DB	'NUM_COMMAND_TYPES', 00H
	ORG $+2
$SG221132 DB	'DirectionTypes', 00H
	ORG $+1
$SG221133 DB	'NO_DIRECTION', 00H
	ORG $+3
$SG221134 DB	'DIRECTION_NORTHEAST', 00H
$SG221135 DB	'DIRECTION_EAST', 00H
	ORG $+1
$SG221136 DB	'DIRECTION_SOUTHEAST', 00H
$SG221137 DB	'DIRECTION_SOUTHWEST', 00H
$SG221138 DB	'DIRECTION_WEST', 00H
	ORG $+1
$SG221139 DB	'DIRECTION_NORTHWEST', 00H
$SG221140 DB	'NUM_DIRECTION_TYPES', 00H
$SG221141 DB	'DiploUIStateTypes', 00H
	ORG $+2
$SG221142 DB	'NO_DIPLO_UI_STATE', 00H
	ORG $+2
$SG221143 DB	'DIPLO_UI_STATE_DEFAULT_ROOT', 00H
$SG221144 DB	'DIPLO_UI_STATE_WAR_DECLARED_BY_HUMAN', 00H
	ORG $+3
$SG221145 DB	'DIPLO_UI_STATE_PEACE_MADE_BY_HUMAN', 00H
	ORG $+1
$SG221146 DB	'DIPLO_UI_STATE_TRADE', 00H
	ORG $+3
$SG221147 DB	'DIPLO_UI_STATE_TRADE_AI_MAKES_OFFER', 00H
$SG221148 DB	'DIPLO_UI_STATE_TRADE_AI_ACCEPTS_OFFER', 00H
	ORG $+2
$SG221149 DB	'DIPLO_UI_STATE_TRADE_AI_REJECTS_OFFER', 00H
	ORG $+2
$SG221150 DB	'DIPLO_UI_STATE_TRADE_AI_MAKES_DEMAND', 00H
	ORG $+3
$SG221151 DB	'DIPLO_UI_STATE_TRADE_AI_MAKES_REQUEST', 00H
	ORG $+2
$SG221152 DB	'DIPLO_UI_STATE_TRADE_HUMAN_OFFERS_CONCESSIONS', 00H
	ORG $+2
$SG221153 DB	'DIPLO_UI_STATE_HUMAN_DEMAND', 00H
$SG221154 DB	'DIPLO_UI_STATE_BLANK_DISCUSSION_RETURN_TO_ROOT', 00H
	ORG $+1
$SG221155 DB	'DIPLO_UI_STATE_BLANK_DISCUSSION', 00H
$SG221156 DB	'DIPLO_UI_STATE_BLANK_DISCUSSION_MEAN_HUMAN', 00H
	ORG $+1
$SG221157 DB	'DIPLO_UI_STATE_BLANK_DISCUSSION_MEAN_AI', 00H
$SG221158 DB	'DIPLO_UI_STATE_AI_DECLARED_WAR', 00H
	ORG $+1
$SG221159 DB	'DIPLO_UI_STATE_DISCUSS_HUMAN_INVOKED', 00H
	ORG $+3
$SG221160 DB	'DIPLO_UI_STATE_DISCUSS_AGGRESSIVE_MILITARY_WARNING', 00H
	ORG $+1
$SG221161 DB	'DIPLO_UI_STATE_DISCUSS_I_ATTACKED_YOUR_MINOR_CIV', 00H
	ORG $+3
$SG221162 DB	'DIPLO_UI_STATE_DISCUSS_I_BULLIED_YOUR_MINOR_CIV', 00H
$SG221163 DB	'DIPLO_UI_STATE_DISCUSS_YOU_ATTACKED_MINOR_CIV', 00H
	ORG $+2
$SG221164 DB	'DIPLO_UI_STATE_DISCUSS_YOU_KILLED_MINOR_CIV', 00H
$SG221165 DB	'DIPLO_UI_STATE_DISCUSS_YOU_BULLIED_MINOR_CIV', 00H
	ORG $+3
$SG221166 DB	'DIPLO_UI_STATE_DISCUSS_PROTECT_MINOR_CIV', 00H
	ORG $+3
$SG221167 DB	'DIPLO_UI_STATE_DISCUSS_YOU_EXPANSION_SERIOUS_WARNING', 00H
	ORG $+3
$SG221168 DB	'DIPLO_UI_STATE_DISCUSS_YOU_EXPANSION_WARNING', 00H
	ORG $+3
$SG221169 DB	'DIPLO_UI_STATE_DISCUSS_YOU_PLOT_BUYING_SERIOUS_WARNING', 00H
	ORG $+1
$SG221170 DB	'DIPLO_UI_STATE_DISCUSS_YOU_PLOT_BUYING_WARNING', 00H
	ORG $+1
$SG221171 DB	'DIPLO_UI_STATE_DISCUSS_WORK_WITH_US', 00H
$SG221172 DB	'DIPLO_UI_STATE_DISCUSS_WORK_AGAINST_SOMEONE', 00H
$SG221173 DB	'DIPLO_UI_STATE_DISCUSS_COOP_WAR', 00H
$SG221174 DB	'DIPLO_UI_STATE_DISCUSS_COOP_WAR_TIME', 00H
	ORG $+3
$SG221175 DB	'DIPLO_UI_STATE_DISCUSS_PLAN_RESEARCH_AGREEMENT', 00H
	ORG $+1
$SG221176 DB	'DIPLO_UI_STATE_DISCUSS_AI_REQUEST_DENOUNCE', 00H
	ORG $+1
$SG221177 DB	'DIPLO_UI_STATE_CAUGHT_YOUR_SPY', 00H
	ORG $+1
$SG221178 DB	'DIPLO_UI_STATE_KILLED_YOUR_SPY', 00H
	ORG $+1
$SG221179 DB	'DIPLO_UI_STATE_KILLED_MY_SPY', 00H
	ORG $+3
$SG221180 DB	'DIPLO_UI_STATE_CONFRONT_YOU_KILLED_MY_SPY', 00H
	ORG $+2
$SG221181 DB	'DIPLO_UI_STATE_STOP_CONVERSIONS', 00H
$SG221182 DB	'DIPLO_UI_STATE_STOP_DIGGING', 00H
$SG221183 DB	'NUM_DIPLO_UI_STATES', 00H
$SG221184 DB	'FlowDirectionTypes', 00H
	ORG $+1
$SG221185 DB	'NO_FLOWDIRECTION', 00H
	ORG $+3
$SG221186 DB	'FLOWDIRECTION_NORTH', 00H
$SG221187 DB	'FLOWDIRECTION_NORTHEAST', 00H
$SG221188 DB	'FLOWDIRECTION_SOUTHEAST', 00H
$SG221189 DB	'FLOWDIRECTION_SOUTH', 00H
$SG221190 DB	'FLOWDIRECTION_SOUTHWEST', 00H
$SG221191 DB	'FLOWDIRECTION_NORTHWEST', 00H
$SG221192 DB	'NUM_FLOWDIRECTION_TYPES', 00H
$SG221193 DB	'FLOWDIRECTION_NORTH_MASK', 00H
	ORG $+3
$SG221194 DB	'FLOWDIRECTION_SOUTH_MASK', 00H
	ORG $+3
$SG221195 DB	'FLOWDIRECTION_SOUTHEAST_MASK', 00H
	ORG $+3
$SG221196 DB	'FLOWDIRECTION_NORTHWEST_MASK', 00H
	ORG $+3
$SG221197 DB	'FLOWDIRECTION_SOUTHWEST_MASK', 00H
	ORG $+3
$SG221198 DB	'FLOWDIRECTION_NORTHEAST_MASK', 00H
	ORG $+3
$SG221199 DB	'PolicyBranchTypes', 00H
	ORG $+2
$SG221200 DB	'NO_POLICY_BRANCH_TYPE', 00H
	ORG $+2
$SG221201 DB	'FromUIDiploEventTypes', 00H
	ORG $+2
$SG221202 DB	'NO_FROM_UI_DIPLO_EVENT', 00H
	ORG $+1
$SG221203 DB	'FROM_UI_DIPLO_EVENT_HUMAN_DECLARES_WAR', 00H
	ORG $+1
$SG221204 DB	'FROM_UI_DIPLO_EVENT_HUMAN_NEGOTIATE_PEACE', 00H
	ORG $+2
$SG221205 DB	'FROM_UI_DIPLO_EVENT_HUMAN_WANTS_DISCUSSION', 00H
	ORG $+1
$SG221206 DB	'FROM_UI_DIPLO_EVENT_HUMAN_DISCUSSION_DONT_SETTLE', 00H
	ORG $+3
$SG221207 DB	'FROM_UI_DIPLO_EVENT_HUMAN_DISCUSSION_WORK_WITH_US', 00H
	ORG $+2
$SG221208 DB	'FROM_UI_DIPLO_EVENT_HUMAN_DISCUSSION_END_WORK_WITH_US', 00H
	ORG $+2
$SG221209 DB	'FROM_UI_DIPLO_EVENT_DEMAND_HUMAN_REFUSAL', 00H
	ORG $+3
$SG221210 DB	'FROM_UI_DIPLO_EVENT_REQUEST_HUMAN_REFUSAL', 00H
	ORG $+2
$SG221211 DB	'FROM_UI_DIPLO_EVENT_AGGRESSIVE_MILITARY_WARNING_RESPONSE'
	DB	00H
	ORG $+3
$SG221212 DB	'FROM_UI_DIPLO_EVENT_I_ATTACKED_YOUR_MINOR_CIV_RESPONSE', 00H
	ORG $+1
$SG221213 DB	'FROM_UI_DIPLO_EVENT_I_BULLIED_YOUR_MINOR_CIV_RESPONSE', 00H
	ORG $+2
$SG221214 DB	'FROM_UI_DIPLO_EVENT_ATTACKED_MINOR_RESPONSE', 00H
$SG221215 DB	'FROM_UI_DIPLO_EVENT_KILLED_MINOR_RESPONSE', 00H
	ORG $+2
$SG221216 DB	'FROM_UI_DIPLO_EVENT_BULLIED_MINOR_RESPONSE', 00H
	ORG $+1
$SG221217 DB	'FROM_UI_DIPLO_EVENT_EXPANSION_SERIOUS_WARNING_RESPONSE', 00H
	ORG $+1
$SG221218 DB	'FROM_UI_DIPLO_EVENT_EXPANSION_WARNING_RESPONSE', 00H
	ORG $+1
$SG221219 DB	'FROM_UI_DIPLO_EVENT_PLOT_BUYING_SERIOUS_WARNING_RESPONSE'
	DB	00H
	ORG $+3
$SG221220 DB	'FROM_UI_DIPLO_EVENT_PLOT_BUYING_WARNING_RESPONSE', 00H
	ORG $+3
$SG221221 DB	'FROM_UI_DIPLO_EVENT_WORK_WITH_US_RESPONSE', 00H
	ORG $+2
$SG221222 DB	'FROM_UI_DIPLO_EVENT_WORK_AGAINST_SOMEONE_RESPONSE', 00H
	ORG $+2
$SG221223 DB	'FROM_UI_DIPLO_EVENT_DENOUNCE', 00H
	ORG $+3
$SG221224 DB	'FROM_UI_DIPLO_EVENT_COOP_WAR_OFFER', 00H
	ORG $+1
$SG221225 DB	'FROM_UI_DIPLO_EVENT_COOP_WAR_RESPONSE', 00H
	ORG $+2
$SG221226 DB	'FROM_UI_DIPLO_EVENT_COOP_WAR_NOW_RESPONSE', 00H
	ORG $+2
$SG221227 DB	'FROM_UI_DIPLO_EVENT_HUMAN_DEMAND', 00H
	ORG $+3
$SG221228 DB	'FROM_UI_DIPLO_EVENT_PLAN_RA_RESPONSE', 00H
	ORG $+3
$SG221229 DB	'FROM_UI_DIPLO_EVENT_AI_REQUEST_DENOUNCE_RESPONSE', 00H
	ORG $+3
$SG221230 DB	'FROM_UI_DIPLO_EVENT_CAUGHT_YOUR_SPY_RESPONSE', 00H
	ORG $+3
$SG221231 DB	'FROM_UI_DIPLO_EVENT_KILLED_MY_SPY_RESPONSE', 00H
	ORG $+1
$SG221232 DB	'FROM_UI_DIPLO_EVENT_HUMAN_DISCUSSION_STOP_SPYING', 00H
	ORG $+3
$SG221233 DB	'FROM_UI_DIPLO_EVENT_HUMAN_DISCUSSION_SHARE_INTRIGUE', 00H
$SG221234 DB	'FROM_UI_DIPLO_EVENT_HUMAN_DISCUSSION_STOP_SPREADING_RELI'
	DB	'GION', 00H
	ORG $+3
$SG221235 DB	'FROM_UI_DIPLO_EVENT_STOP_CONVERSIONS', 00H
	ORG $+3
$SG221236 DB	'FROM_UI_DIPLO_EVENT_HUMAN_DISCUSSION_STOP_DIGGING', 00H
	ORG $+2
$SG221237 DB	'FROM_UI_DIPLO_EVENT_STOP_DIGGING', 00H
	ORG $+3
$SG221238 DB	'NUM_FROM_UI_DIPLO_EVENTS', 00H
	ORG $+3
$SG221239 DB	'CoopWarStates', 00H
	ORG $+2
$SG221240 DB	'NO_COOP_WAR_STATE', 00H
	ORG $+2
$SG221241 DB	'COOP_WAR_STATE_REJECTED', 00H
$SG221242 DB	'COOP_WAR_STATE_SOON', 00H
$SG221243 DB	'COOP_WAR_STATE_ACCEPTED', 00H
$SG221244 DB	'NUM_COOP_WAR_STATES', 00H
$SG221245 DB	'ThreatTypes', 00H
$SG221246 DB	'NO_THREAT_VALUE', 00H
$SG221247 DB	'THREAT_NONE', 00H
$SG221248 DB	'THREAT_MINOR', 00H
	ORG $+3
$SG221249 DB	'THREAT_MAJOR', 00H
	ORG $+3
$SG221250 DB	'THREAT_SEVERE', 00H
	ORG $+2
$SG221251 DB	'THREAT_CRITICAL', 00H
$SG221252 DB	'NUM_THREAT_VALUES', 00H
	ORG $+2
$SG221253 DB	'DisputeLevelTypes', 00H
	ORG $+2
$SG221254 DB	'NO_DISPUTE_LEVEL', 00H
	ORG $+3
$SG221255 DB	'DISPUTE_LEVEL_NONE', 00H
	ORG $+1
$SG221256 DB	'DISPUTE_LEVEL_WEAK', 00H
	ORG $+1
$SG221257 DB	'DISPUTE_LEVEL_STRONG', 00H
	ORG $+3
$SG221258 DB	'DISPUTE_LEVEL_FIERCE', 00H
	ORG $+3
$SG221259 DB	'NUM_DISPUTE_LEVELS', 00H
	ORG $+1
$SG221260 DB	'LeaderheadAnimationTypes', 00H
	ORG $+3
$SG221261 DB	'NO_LEADERHEAD_ANIM', 00H
	ORG $+1
$SG221262 DB	'LEADERHEAD_ANIM_INTRO', 00H
	ORG $+2
$SG221263 DB	'LEADERHEAD_ANIM_NEUTRAL_HELLO', 00H
	ORG $+2
$SG221264 DB	'LEADERHEAD_ANIM_PEACEFUL', 00H
	ORG $+3
$SG221265 DB	'LEADERHEAD_ANIM_OPENING_GLOAT', 00H
	ORG $+2
$SG221266 DB	'LEADERHEAD_ANIM_DECLARE_WAR', 00H
$SG221267 DB	'LEADERHEAD_ANIM_ATTACKED', 00H
	ORG $+3
$SG221268 DB	'LEADERHEAD_ANIM_HATE_HELLO', 00H
	ORG $+1
$SG221269 DB	'LEADERHEAD_ANIM_DEFEATED', 00H
	ORG $+3
$SG221270 DB	'LEADERHEAD_ANIM_REQUEST', 00H
$SG221271 DB	'LEADERHEAD_ANIM_DEMAND', 00H
	ORG $+1
$SG221272 DB	'LEADERHEAD_ANIM_NEUTRAL_IDLE', 00H
	ORG $+3
$SG221273 DB	'LEADERHEAD_ANIM_HATE_IDLE', 00H
	ORG $+2
$SG221274 DB	'LEADERHEAD_ANIM_LETS_HEAR_IT', 00H
	ORG $+3
$SG221275 DB	'LEADERHEAD_ANIM_YES', 00H
$SG221276 DB	'LEADERHEAD_ANIM_NO', 00H
	ORG $+1
$SG221277 DB	'TradeableItems', 00H
	ORG $+1
$SG221278 DB	'TRADE_ITEM_NONE', 00H
$SG221279 DB	'TRADE_ITEM_GOLD', 00H
$SG221280 DB	'TRADE_ITEM_GOLD_PER_TURN', 00H
	ORG $+3
$SG221281 DB	'TRADE_ITEM_MAPS', 00H
$SG221282 DB	'TRADE_ITEM_RESOURCES', 00H
	ORG $+3
$SG221283 DB	'TRADE_ITEM_CITIES', 00H
	ORG $+2
$SG221284 DB	'TRADE_ITEM_UNITS', 00H
	ORG $+3
$SG221285 DB	'TRADE_ITEM_OPEN_BORDERS', 00H
$SG221286 DB	'TRADE_ITEM_DEFENSIVE_PACT', 00H
	ORG $+2
$SG221287 DB	'TRADE_ITEM_RESEARCH_AGREEMENT', 00H
	ORG $+2
$SG221288 DB	'TRADE_ITEM_TRADE_AGREEMENT', 00H
	ORG $+1
$SG221289 DB	'TRADE_ITEM_PERMANENT_ALLIANCE', 00H
	ORG $+2
$SG221290 DB	'TRADE_ITEM_SURRENDER', 00H
	ORG $+3
$SG221291 DB	'TRADE_ITEM_TRUCE', 00H
	ORG $+3
$SG221292 DB	'TRADE_ITEM_PEACE_TREATY', 00H
$SG221293 DB	'TRADE_ITEM_THIRD_PARTY_PEACE', 00H
	ORG $+3
$SG221294 DB	'TRADE_ITEM_THIRD_PARTY_WAR', 00H
	ORG $+1
$SG221295 DB	'TRADE_ITEM_THIRD_PARTY_EMBARGO', 00H
	ORG $+1
$SG221296 DB	'TRADE_ITEM_ALLOW_EMBASSY', 00H
	ORG $+3
$SG221297 DB	'TRADE_ITEM_DECLARATION_OF_FRIENDSHIP', 00H
	ORG $+3
$SG221298 DB	'TRADE_ITEM_VOTE_COMMITMENT', 00H
	ORG $+1
$SG221299 DB	'NUM_TRADEABLE_ITEMS', 00H
$SG221300 DB	'EndTurnBlockingTypes', 00H
	ORG $+3
$SG221301 DB	'NO_ENDTURN_BLOCKING_TYPE', 00H
	ORG $+3
$SG221302 DB	'ENDTURN_BLOCKING_POLICY', 00H
$SG221303 DB	'ENDTURN_BLOCKING_RESEARCH', 00H
	ORG $+2
$SG221304 DB	'ENDTURN_BLOCKING_PRODUCTION', 00H
$SG221305 DB	'ENDTURN_BLOCKING_UNITS', 00H
	ORG $+1
$SG221306 DB	'ENDTURN_BLOCKING_DIPLO_VOTE', 00H
$SG221307 DB	'ENDTURN_BLOCKING_MINOR_QUEST', 00H
	ORG $+3
$SG221308 DB	'ENDTURN_BLOCKING_FREE_TECH', 00H
	ORG $+1
$SG221309 DB	'ENDTURN_BLOCKING_STACKED_UNITS', 00H
	ORG $+1
$SG221310 DB	'ENDTURN_BLOCKING_UNIT_NEEDS_ORDERS', 00H
	ORG $+1
$SG221311 DB	'ENDTURN_BLOCKING_UNIT_PROMOTION', 00H
$SG221312 DB	'ENDTURN_BLOCKING_CITY_RANGE_ATTACK', 00H
	ORG $+1
$SG221313 DB	'ENDTURN_BLOCKING_FREE_POLICY', 00H
	ORG $+3
$SG221314 DB	'ENDTURN_BLOCKING_FREE_ITEMS', 00H
$SG221315 DB	'ENDTURN_BLOCKING_FOUND_PANTHEON', 00H
$SG221316 DB	'ENDTURN_BLOCKING_FOUND_RELIGION', 00H
$SG221317 DB	'ENDTURN_BLOCKING_ENHANCE_RELIGION', 00H
	ORG $+2
$SG221318 DB	'ENDTURN_BLOCKING_STEAL_TECH', 00H
$SG221319 DB	'ENDTURN_BLOCKING_MAYA_LONG_COUNT', 00H
	ORG $+3
$SG221320 DB	'ENDTURN_BLOCKING_FAITH_GREAT_PERSON', 00H
$SG221321 DB	'ENDTURN_BLOCKING_ADD_REFORMATION_BELIEF', 00H
$SG221322 DB	'ENDTURN_BLOCKING_LEAGUE_CALL_FOR_PROPOSALS', 00H
	ORG $+1
$SG221323 DB	'ENDTURN_BLOCKING_CHOOSE_ARCHAEOLOGY', 00H
$SG221324 DB	'ENDTURN_BLOCKING_LEAGUE_CALL_FOR_VOTES', 00H
	ORG $+1
$SG221325 DB	'ENDTURN_BLOCKING_CHOOSE_IDEOLOGY', 00H
	ORG $+3
$SG221326 DB	'NUM_ENDTURN_BLOCKING_TYPES', 00H
	ORG $+1
$SG221327 DB	'ResourceUsageTypes', 00H
	ORG $+1
$SG221328 DB	'RESOURCEUSAGE_BONUS', 00H
$SG221329 DB	'RESOURCEUSAGE_STRATEGIC', 00H
$SG221330 DB	'RESOURCEUSAGE_LUXURY', 00H
	ORG $+3
$SG221331 DB	'NUM_RESOURCEUSAGE_TYPES', 00H
$SG221332 DB	'MajorCivApproachTypes', 00H
	ORG $+2
$SG221333 DB	'NO_MAJOR_CIV_APPROACH', 00H
	ORG $+2
$SG221334 DB	'MAJOR_CIV_APPROACH_WAR', 00H
	ORG $+1
$SG221335 DB	'MAJOR_CIV_APPROACH_HOSTILE', 00H
	ORG $+1
$SG221336 DB	'MAJOR_CIV_APPROACH_DECEPTIVE', 00H
	ORG $+3
$SG221337 DB	'MAJOR_CIV_APPROACH_GUARDED', 00H
	ORG $+1
$SG221338 DB	'MAJOR_CIV_APPROACH_AFRAID', 00H
	ORG $+2
$SG221339 DB	'MAJOR_CIV_APPROACH_FRIENDLY', 00H
$SG221340 DB	'MAJOR_CIV_APPROACH_NEUTRAL', 00H
	ORG $+1
$SG221341 DB	'NUM_MAJOR_CIV_APPROACHES', 00H
	ORG $+3
$SG221342 DB	'MinorCivTraitTypes', 00H
	ORG $+1
$SG221343 DB	'NO_MINOR_CIV_TRAIT_TYPE', 00H
$SG221344 DB	'MINOR_CIV_TRAIT_CULTURED', 00H
	ORG $+3
$SG221345 DB	'MINOR_CIV_TRAIT_MILITARISTIC', 00H
	ORG $+3
$SG221346 DB	'MINOR_CIV_TRAIT_MARITIME', 00H
	ORG $+3
$SG221347 DB	'MINOR_CIV_TRAIT_MERCANTILE', 00H
	ORG $+1
$SG221348 DB	'MINOR_CIV_TRAIT_RELIGIOUS', 00H
	ORG $+2
$SG221349 DB	'NUM_MINOR_CIV_TRAIT_TYPES', 00H
	ORG $+2
$SG221350 DB	'MinorCivPersonalityTypes', 00H
	ORG $+3
$SG221351 DB	'NO_MINOR_CIV_PERSONALITY_TYPE', 00H
	ORG $+2
$SG221352 DB	'MINOR_CIV_PERSONALITY_FRIENDLY', 00H
	ORG $+1
$SG221353 DB	'MINOR_CIV_PERSONALITY_NEUTRAL', 00H
	ORG $+2
$SG221354 DB	'MINOR_CIV_PERSONALITY_HOSTILE', 00H
	ORG $+2
$SG221355 DB	'MINOR_CIV_PERSONALITY_IRRATIONAL', 00H
	ORG $+3
$SG221356 DB	'NUM_MINOR_CIV_PERSONALITY_TYPES', 00H
$SG221357 DB	'MinorCivQuestTypes', 00H
	ORG $+1
$SG221358 DB	'NO_MINOR_CIV_QUEST_TYPE', 00H
$SG221359 DB	'MINOR_CIV_QUEST_ROUTE', 00H
	ORG $+2
$SG221360 DB	'MINOR_CIV_QUEST_KILL_CAMP', 00H
	ORG $+2
$SG221361 DB	'MINOR_CIV_QUEST_CONNECT_RESOURCE', 00H
	ORG $+3
$SG221362 DB	'MINOR_CIV_QUEST_CONSTRUCT_WONDER', 00H
	ORG $+3
$SG221363 DB	'MINOR_CIV_QUEST_GREAT_PERSON', 00H
	ORG $+3
$SG221364 DB	'MINOR_CIV_QUEST_KILL_CITY_STATE', 00H
$SG221365 DB	'MINOR_CIV_QUEST_FIND_PLAYER', 00H
$SG221366 DB	'MINOR_CIV_QUEST_FIND_NATURAL_WONDER', 00H
$SG221367 DB	'MINOR_CIV_QUEST_GIVE_GOLD', 00H
	ORG $+2
$SG221368 DB	'MINOR_CIV_QUEST_PLEDGE_TO_PROTECT', 00H
	ORG $+2
$SG221369 DB	'MINOR_CIV_QUEST_CONTEST_CULTURE', 00H
$SG221370 DB	'MINOR_CIV_QUEST_CONTEST_FAITH', 00H
	ORG $+2
$SG221371 DB	'MINOR_CIV_QUEST_CONTEST_TECHS', 00H
	ORG $+2
$SG221372 DB	'MINOR_CIV_QUEST_INVEST', 00H
	ORG $+1
$SG221373 DB	'MINOR_CIV_QUEST_BULLY_CITY_STATE', 00H
	ORG $+3
$SG221374 DB	'MINOR_CIV_QUEST_DENOUNCE_MAJOR', 00H
	ORG $+1
$SG221375 DB	'MINOR_CIV_QUEST_SPREAD_RELIGION', 00H
$SG221376 DB	'MINOR_CIV_QUEST_TRADE_ROUTE', 00H
$SG221377 DB	'NUM_MINOR_CIV_QUEST_TYPES', 00H
	ORG $+2
$SG221378 DB	'ResourceUsageTypes', 00H
	ORG $+1
$SG221379 DB	'RESOURCEUSAGE_BONUS', 00H
$SG221380 DB	'RESOURCEUSAGE_STRATEGIC', 00H
$SG221381 DB	'RESOURCEUSAGE_LUXURY', 00H
	ORG $+3
$SG221382 DB	'NUM_RESOURCEUSAGE_TYPES', 00H
$SG221383 DB	'CityAIFocusTypes', 00H
	ORG $+3
$SG221384 DB	'NO_CITY_AI_FOCUS_TYPE', 00H
	ORG $+2
$SG221385 DB	'CITY_AI_FOCUS_TYPE_FOOD', 00H
$SG221386 DB	'CITY_AI_FOCUS_TYPE_PRODUCTION', 00H
	ORG $+2
$SG221387 DB	'CITY_AI_FOCUS_TYPE_GOLD', 00H
$SG221388 DB	'CITY_AI_FOCUS_TYPE_GREAT_PEOPLE', 00H
$SG221389 DB	'CITY_AI_FOCUS_TYPE_SCIENCE', 00H
	ORG $+1
$SG221390 DB	'CITY_AI_FOCUS_TYPE_CULTURE', 00H
	ORG $+1
$SG221391 DB	'CITY_AI_FOCUS_TYPE_PROD_GROWTH', 00H
	ORG $+1
$SG221392 DB	'CITY_AI_FOCUS_TYPE_GOLD_GROWTH', 00H
	ORG $+1
$SG221393 DB	'CITY_AI_FOCUS_TYPE_FAITH', 00H
	ORG $+3
$SG221394 DB	'NUM_CITY_AI_FOCUS_TYPES', 00H
$SG221395 DB	'AdvisorTypes', 00H
	ORG $+3
$SG221396 DB	'NO_ADVISOR_TYPE', 00H
$SG221397 DB	'ADVISOR_ECONOMIC', 00H
	ORG $+3
$SG221398 DB	'ADVISOR_MILITARY', 00H
	ORG $+3
$SG221399 DB	'ADVISOR_FOREIGN', 00H
$SG221400 DB	'ADVISOR_SCIENCE', 00H
$SG221401 DB	'NUM_ADVISOR_TYPES', 00H
	ORG $+2
$SG221402 DB	'GenericWorldAnchorTypes', 00H
$SG221403 DB	'NO_WORLD_ANCHOR', 00H
$SG221404 DB	'WORLD_ANCHOR_NATURAL_WONDER', 00H
$SG221405 DB	'WORLD_ANCHOR_SETTLER', 00H
	ORG $+3
$SG221406 DB	'WORLD_ANCHOR_WORKER', 00H
$SG221407 DB	'NUM_WORLD_ANCHORS', 00H
	ORG $+2
$SG221408 DB	'GameStates', 00H
	ORG $+1
$SG221409 DB	'MainMenu', 00H
	ORG $+3
$SG221410 DB	'MainGameView', 00H
	ORG $+3
$SG221411 DB	'GameLoad', 00H
	ORG $+3
$SG221412 DB	'LeaderHead', 00H
	ORG $+1
$SG221413 DB	'NUM_GAME_STATES', 00H
$SG221414 DB	'GameplayGameStateTypes', 00H
	ORG $+1
$SG221415 DB	'GAMESTATE_ON', 00H
	ORG $+3
$SG221416 DB	'GAMESTATE_OVER', 00H
	ORG $+1
$SG221417 DB	'GAMESTATE_EXTENDED', 00H
	ORG $+1
$SG221418 DB	'CombatPredictionTypes', 00H
	ORG $+2
$SG221419 DB	'NO_COMBAT_PREDICTION', 00H
	ORG $+3
$SG221420 DB	'COMBAT_PREDICTION_RANGED', 00H
	ORG $+3
$SG221421 DB	'COMBAT_PREDICTION_STALEMATE', 00H
$SG221422 DB	'COMBAT_PREDICTION_TOTAL_DEFEAT', 00H
	ORG $+1
$SG221423 DB	'COMBAT_PREDICTION_TOTAL_VICTORY', 00H
$SG221424 DB	'COMBAT_PREDICTION_MAJOR_VICTORY', 00H
$SG221425 DB	'COMBAT_PREDICTION_SMALL_VICTORY', 00H
$SG221426 DB	'COMBAT_PREDICTION_MAJOR_DEFEAT', 00H
	ORG $+1
$SG221427 DB	'COMBAT_PREDICTION_SMALL_DEFEAT', 00H
	ORG $+1
$SG221428 DB	'NUM_COMBAT_PREDICTIONS', 00H
	ORG $+1
$SG221429 DB	'ChatTargetTypes', 00H
$SG221430 DB	'NO_CHATTARGET', 00H
	ORG $+2
$SG221431 DB	'CHATTARGET_ALL', 00H
	ORG $+1
$SG221432 DB	'CHATTARGET_TEAM', 00H
$SG221433 DB	'CHATTARGET_PLAYER', 00H
	ORG $+2
$SG221434 DB	'ReligionTypes', 00H
	ORG $+2
$SG221435 DB	'NO_RELIGION', 00H
$SG221436 DB	'RELIGION_PANTHEON', 00H
	ORG $+2
$SG221437 DB	'BeliefTypes', 00H
$SG221438 DB	'NO_BELIEF', 00H
	ORG $+2
$SG221439 DB	'FaithPurchaseTypes', 00H
	ORG $+1
$SG221440 DB	'NO_AUTOMATIC_FAITH_PURCHASE', 00H
$SG221441 DB	'FAITH_PURCHASE_SAVE_PROPHET', 00H
$SG221442 DB	'FAITH_PURCHASE_UNIT', 00H
$SG221443 DB	'FAITH_PURCHASE_BUILDING', 00H
$SG221444 DB	'ResolutionDecisionTypes', 00H
$SG221445 DB	'RESOLUTION_DECISION_NONE', 00H
	ORG $+3
$SG221446 DB	'RESOLUTION_DECISION_YES_OR_NO', 00H
	ORG $+2
$SG221447 DB	'RESOLUTION_DECISION_ANY_MEMBER', 00H
	ORG $+1
$SG221448 DB	'RESOLUTION_DECISION_CITY', 00H
	ORG $+3
$SG221449 DB	'RESOLUTION_DECISION_ANY_LUXURY_RESOURCE', 00H
$SG221450 DB	'RESOLUTION_DECISION_REPEAL', 00H
	ORG $+1
$SG221451 DB	'RESOLUTION_DECISION_MAJOR_CIV_MEMBER', 00H
	ORG $+3
$SG221452 DB	'RESOLUTION_DECISION_OTHER_MAJOR_CIV_MEMBER', 00H
	ORG $+1
$SG221453 DB	'NUM_RESOLUTION_DECISIONS', 00H
	ORG $+3
$SG221454 DB	'InfluenceLevelTypes', 00H
$SG221455 DB	'NO_INFLUENCE_LEVEL', 00H
	ORG $+1
$SG221456 DB	'INFLUENCE_LEVEL_UNKNOWN', 00H
$SG221457 DB	'INFLUENCE_LEVEL_EXOTIC', 00H
	ORG $+1
$SG221458 DB	'INFLUENCE_LEVEL_FAMILIAR', 00H
	ORG $+3
$SG221459 DB	'INFLUENCE_LEVEL_POPULAR', 00H
$SG221460 DB	'INFLUENCE_LEVEL_INFLUENTIAL', 00H
$SG221461 DB	'INFLUENCE_LEVEL_DOMINANT', 00H
	ORG $+3
$SG221462 DB	'InfluenceLevelTrend', 00H
$SG221463 DB	'INFLUENCE_TREND_FALLING', 00H
$SG221464 DB	'INFLUENCE_TREND_STATIC', 00H
	ORG $+1
$SG221465 DB	'INFLUENCE_TREND_RISING', 00H
	ORG $+1
$SG221466 DB	'PublicOpinionTypes', 00H
	ORG $+1
$SG221467 DB	'NO_PUBLIC_OPINION', 00H
	ORG $+2
$SG221468 DB	'PUBLIC_OPINION_CONTENT', 00H
	ORG $+1
$SG221469 DB	'PUBLIC_OPINION_DISSIDENTS', 00H
	ORG $+2
$SG221470 DB	'PUBLIC_OPINION_CIVIL_RESISTANCE', 00H
$SG221471 DB	'PUBLIC_OPINION_REVOLUTIONARY_WAVE', 00H
	ORG $+2
$SG221472 DB	'ControlTypes', 00H
	ORG $+3
$SG221473 DB	'NO_CONTROL', 00H
	ORG $+1
$SG221474 DB	'CONTROL_CENTERONSELECTION', 00H
	ORG $+2
$SG221475 DB	'CONTROL_SELECTYUNITTYPE', 00H
$SG221476 DB	'CONTROL_SELECTYUNITALL', 00H
	ORG $+1
$SG221477 DB	'CONTROL_SELECTCITY', 00H
	ORG $+1
$SG221478 DB	'CONTROL_SELECTCAPITAL', 00H
	ORG $+2
$SG221479 DB	'CONTROL_NEXTCITY', 00H
	ORG $+3
$SG221480 DB	'CONTROL_PREVCITY', 00H
	ORG $+3
$SG221481 DB	'CONTROL_NEXTUNIT', 00H
	ORG $+3
$SG221482 DB	'CONTROL_PREVUNIT', 00H
	ORG $+3
$SG221483 DB	'CONTROL_CYCLEUNIT', 00H
	ORG $+2
$SG221484 DB	'CONTROL_CYCLEUNIT_ALT', 00H
	ORG $+2
$SG221485 DB	'CONTROL_CYCLEWORKER', 00H
$SG221486 DB	'CONTROL_LASTUNIT', 00H
	ORG $+3
$SG221487 DB	'CONTROL_ENDTURN', 00H
$SG221488 DB	'CONTROL_ENDTURN_ALT', 00H
$SG221489 DB	'CONTROL_FORCEENDTURN', 00H
	ORG $+3
$SG221490 DB	'CONTROL_AUTOMOVES', 00H
	ORG $+2
$SG221491 DB	'CONTROL_PING', 00H
	ORG $+3
$SG221492 DB	'CONTROL_YIELDS', 00H
	ORG $+1
$SG221493 DB	'CONTROL_RESOURCE_ALL', 00H
	ORG $+3
$SG221494 DB	'CONTROL_UNIT_ICONS', 00H
	ORG $+1
$SG221495 DB	'CONTROL_SCORES', 00H
	ORG $+1
$SG221496 DB	'CONTROL_LOAD_GAME', 00H
	ORG $+2
$SG221497 DB	'CONTROL_OPTIONS_SCREEN', 00H
	ORG $+1
$SG221498 DB	'CONTROL_RETIRE', 00H
	ORG $+1
$SG221499 DB	'CONTROL_SAVE_GROUP', 00H
	ORG $+1
$SG221500 DB	'CONTROL_SAVE_NORMAL', 00H
$SG221501 DB	'CONTROL_QUICK_SAVE', 00H
	ORG $+1
$SG221502 DB	'CONTROL_QUICK_LOAD', 00H
	ORG $+1
$SG221503 DB	'CONTROL_CIVILOPEDIA', 00H
$SG221504 DB	'CONTROL_POLICIES_SCREEN', 00H
$SG221505 DB	'CONTROL_FOREIGN_SCREEN', 00H
	ORG $+1
$SG221506 DB	'CONTROL_MILITARY_SCREEN', 00H
$SG221507 DB	'CONTROL_TECH_CHOOSER', 00H
	ORG $+3
$SG221508 DB	'CONTROL_TURN_LOG', 00H
	ORG $+3
$SG221509 DB	'CONTROL_DOMESTIC_SCREEN', 00H
$SG221510 DB	'CONTROL_VICTORY_SCREEN', 00H
	ORG $+1
$SG221511 DB	'CONTROL_INFO', 00H
	ORG $+3
$SG221512 DB	'CONTROL_SELECT_HEALTHY', 00H
	ORG $+1
$SG221513 DB	'CONTROL_TOGGLE_STRATEGIC_VIEW', 00H
	ORG $+2
$SG221514 DB	'CONTROL_ADVISOR_COUNSEL', 00H
$SG221515 DB	'CONTROL_ESPIONAGE_OVERVIEW', 00H
	ORG $+1
$SG221516 DB	'CONTROL_RELIGION_OVERVIEW', 00H
	ORG $+2
$SG221517 DB	'CONTROL_RESTART_GAME', 00H
	ORG $+3
$SG221551 DB	'select %s, %s from %s', 00H
CONST	ENDS
;	COMDAT ?NO_TURN@CvMinorCivQuest@@2HB
CONST	SEGMENT
?NO_TURN@CvMinorCivQuest@@2HB DD 0ffffffffH		; CvMinorCivQuest::NO_TURN
CONST	ENDS
;	COMDAT ?NO_QUEST_DATA@CvMinorCivQuest@@2HB
CONST	SEGMENT
?NO_QUEST_DATA@CvMinorCivQuest@@2HB DD 0ffffffffH	; CvMinorCivQuest::NO_QUEST_DATA
CONST	ENDS
PUBLIC	?pRegisterEnum@CvLuaEnums@@KAXPAUlua_State@@PBDH@Z ; CvLuaEnums::pRegisterEnum
EXTRN	_lua_setfield:PROC
EXTRN	_lua_pushinteger:PROC
; Function compile flags: /Ogtpy
; File c:\users\enormousapplepie\documents\github\lekmod\lekmod_dll\cvgamecoredll_expansion2\lua\cvluaenums.cpp
;	COMDAT ?pRegisterEnum@CvLuaEnums@@KAXPAUlua_State@@PBDH@Z
_TEXT	SEGMENT
_L$ = 8							; size = 4
_enumName$ = 12						; size = 4
_enumVal$ = 16						; size = 4
?pRegisterEnum@CvLuaEnums@@KAXPAUlua_State@@PBDH@Z PROC	; CvLuaEnums::pRegisterEnum, COMDAT

; 1034 : 	lua_pushinteger(L, enumVal);

	mov	eax, DWORD PTR _enumVal$[esp-4]
	push	esi
	mov	esi, DWORD PTR _L$[esp]
	push	eax
	push	esi
	call	_lua_pushinteger

; 1035 : 	lua_setfield(L, -2, enumName);

	mov	ecx, DWORD PTR _enumName$[esp+8]
	push	ecx
	push	-2					; fffffffeH
	push	esi
	call	_lua_setfield
	add	esp, 20					; 00000014H
	pop	esi

; 1036 : }

	ret	0
?pRegisterEnum@CvLuaEnums@@KAXPAUlua_State@@PBDH@Z ENDP	; CvLuaEnums::pRegisterEnum
_TEXT	ENDS
PUBLIC	__real@41f0000000000000
PUBLIC	?pRegisterEnumUInt@CvLuaEnums@@KAXPAUlua_State@@PBDI@Z ; CvLuaEnums::pRegisterEnumUInt
EXTRN	_lua_pushnumber:PROC
EXTRN	__fltused:DWORD
;	COMDAT __real@41f0000000000000
CONST	SEGMENT
__real@41f0000000000000 DQ 041f0000000000000r	; 4.29497e+009
; Function compile flags: /Ogtpy
CONST	ENDS
;	COMDAT ?pRegisterEnumUInt@CvLuaEnums@@KAXPAUlua_State@@PBDI@Z
_TEXT	SEGMENT
_L$ = 8							; size = 4
_enumName$ = 12						; size = 4
tv70 = 16						; size = 4
_enumVal$ = 16						; size = 4
?pRegisterEnumUInt@CvLuaEnums@@KAXPAUlua_State@@PBDI@Z PROC ; CvLuaEnums::pRegisterEnumUInt, COMDAT

; 1040 : 	lua_pushnumber(L, enumVal);

	mov	eax, DWORD PTR _enumVal$[esp-4]
	fild	DWORD PTR _enumVal$[esp-4]
	push	esi
	test	eax, eax
	jge	SHORT $LN3@pRegisterE
	fadd	QWORD PTR __real@41f0000000000000
$LN3@pRegisterE:
	mov	esi, DWORD PTR _L$[esp]
	sub	esp, 8
	fstp	QWORD PTR [esp]
	push	esi
	call	_lua_pushnumber

; 1041 : 	lua_setfield(L, -2, enumName);

	mov	ecx, DWORD PTR _enumName$[esp+12]
	push	ecx
	push	-2					; fffffffeH
	push	esi
	call	_lua_setfield
	add	esp, 24					; 00000018H
	pop	esi

; 1042 : }

	ret	0
?pRegisterEnumUInt@CvLuaEnums@@KAXPAUlua_State@@PBDI@Z ENDP ; CvLuaEnums::pRegisterEnumUInt
_TEXT	ENDS
PUBLIC	?EnumStart@CvLuaEnums@@KAXPAUlua_State@@PBD@Z	; CvLuaEnums::EnumStart
EXTRN	_lua_pushvalue:PROC
EXTRN	_lua_createtable:PROC
EXTRN	_lua_settop:PROC
EXTRN	_lua_type:PROC
EXTRN	_lua_getfield:PROC
; Function compile flags: /Ogtpy
;	COMDAT ?EnumStart@CvLuaEnums@@KAXPAUlua_State@@PBD@Z
_TEXT	SEGMENT
_L$ = 8							; size = 4
_enumType$ = 12						; size = 4
?EnumStart@CvLuaEnums@@KAXPAUlua_State@@PBD@Z PROC	; CvLuaEnums::EnumStart, COMDAT

; 1045 : {

	push	esi

; 1046 : 	lua_getglobal(L, enumType);

	mov	esi, DWORD PTR _L$[esp]
	push	edi
	mov	edi, DWORD PTR _enumType$[esp+4]
	push	edi
	push	-10002					; ffffd8eeH
	push	esi
	call	_lua_getfield

; 1047 : 	if(lua_isnil(L, -1))

	push	-1
	push	esi
	call	_lua_type
	add	esp, 20					; 00000014H
	test	eax, eax
	jne	SHORT $LN1@EnumStart

; 1048 : 	{
; 1049 : 		lua_pop(L, 1);

	push	-2					; fffffffeH
	push	esi
	call	_lua_settop

; 1050 : 		lua_newtable(L);

	push	0
	push	0
	push	esi
	call	_lua_createtable

; 1051 : 		lua_pushvalue(L, -1);

	push	-1
	push	esi
	call	_lua_pushvalue

; 1052 : 		lua_setglobal(L, enumType);

	push	edi
	push	-10002					; ffffd8eeH
	push	esi
	call	_lua_setfield
	add	esp, 40					; 00000028H
$LN1@EnumStart:
	pop	edi
	pop	esi

; 1053 : 	}
; 1054 : }

	ret	0
?EnumStart@CvLuaEnums@@KAXPAUlua_State@@PBD@Z ENDP	; CvLuaEnums::EnumStart
_TEXT	ENDS
PUBLIC	?EnumEnd@CvLuaEnums@@KAXPAUlua_State@@@Z	; CvLuaEnums::EnumEnd
EXTRN	_lua_checkstack:PROC
; Function compile flags: /Ogtpy
;	COMDAT ?EnumEnd@CvLuaEnums@@KAXPAUlua_State@@@Z
_TEXT	SEGMENT
_L$ = 8							; size = 4
?EnumEnd@CvLuaEnums@@KAXPAUlua_State@@@Z PROC		; CvLuaEnums::EnumEnd, COMDAT

; 1057 : {

	push	esi

; 1058 : 	lua_checkstack(L, 1);

	mov	esi, DWORD PTR _L$[esp]
	push	1
	push	esi
	call	_lua_checkstack

; 1059 : 	lua_pop(L, 1);

	push	-2					; fffffffeH
	push	esi
	call	_lua_settop
	add	esp, 16					; 00000010H
	pop	esi

; 1060 : }

	ret	0
?EnumEnd@CvLuaEnums@@KAXPAUlua_State@@@Z ENDP		; CvLuaEnums::EnumEnd
_TEXT	ENDS
PUBLIC	?SafeStrlen@FStringA@@SAHPBD@Z			; FStringA::SafeStrlen
; Function compile flags: /Ogtpy
; File c:\users\enormousapplepie\documents\github\lekmod\lekmod_dll\fireplace\include\fireworks\fstringa.inl
;	COMDAT ?SafeStrlen@FStringA@@SAHPBD@Z
_TEXT	SEGMENT
_lpsz$ = 8						; size = 4
?SafeStrlen@FStringA@@SAHPBD@Z PROC			; FStringA::SafeStrlen, COMDAT

; 1030 : 	return ( lpsz ? ( int )strlen( lpsz ) : 0 );

	mov	eax, DWORD PTR _lpsz$[esp-4]
	test	eax, eax
	je	SHORT $LN3@SafeStrlen
	lea	edx, DWORD PTR [eax+1]
	npad	5
$LL5@SafeStrlen:
	mov	cl, BYTE PTR [eax]
	inc	eax
	test	cl, cl
	jne	SHORT $LL5@SafeStrlen
	sub	eax, edx

; 1031 : }

	ret	0
$LN3@SafeStrlen:

; 1030 : 	return ( lpsz ? ( int )strlen( lpsz ) : 0 );

	xor	eax, eax

; 1031 : }

	ret	0
?SafeStrlen@FStringA@@SAHPBD@Z ENDP			; FStringA::SafeStrlen
_TEXT	ENDS
PUBLIC	?GetGameDatabase@CvGlobals@@QAEPAVConnection@Database@@XZ ; CvGlobals::GetGameDatabase
; Function compile flags: /Ogtpy
; File c:\users\enormousapplepie\documents\github\lekmod\lekmod_dll\cvgamecoredll_expansion2\cvglobals.h
;	COMDAT ?GetGameDatabase@CvGlobals@@QAEPAVConnection@Database@@XZ
_TEXT	SEGMENT
?GetGameDatabase@CvGlobals@@QAEPAVConnection@Database@@XZ PROC ; CvGlobals::GetGameDatabase, COMDAT
; _this$ = ecx

; 9745 : 	return m_pGameDatabase;

	mov	eax, DWORD PTR [ecx+912]

; 9746 : }

	ret	0
?GetGameDatabase@CvGlobals@@QAEPAVConnection@Database@@XZ ENDP ; CvGlobals::GetGameDatabase
_TEXT	ENDS
PUBLIC	?RegisterDynamicEnums@CvLuaEnums@@KAXPAUlua_State@@PBD111@Z ; CvLuaEnums::RegisterDynamicEnums
EXTRN	__imp_??1Results@Database@@UAE@XZ:PROC
EXTRN	__imp_?Count@Connection@Database@@QAEHPBD_N@Z:PROC
EXTRN	_lua_rawseti:PROC
EXTRN	_lua_rawset:PROC
EXTRN	_lua_pushstring:PROC
EXTRN	__imp_?GetText@Results@Database@@QAEPBDH@Z:PROC
EXTRN	__imp_?GetInt@Results@Database@@QAEHH@Z:PROC
EXTRN	__imp_?Step@Results@Database@@QAE_NXZ:PROC
EXTRN	__imp_?Execute@Connection@Database@@QBE_NAAVResults@2@PBDH@Z:PROC
EXTRN	__imp__sprintf_s:PROC
EXTRN	__imp_??0Results@Database@@QAE@PBD@Z:PROC
EXTRN	?gGlobals@@3VCvGlobals@@A:BYTE			; gGlobals
EXTRN	___CxxFrameHandler3:PROC
;	COMDAT xdata$x
xdata$x	SEGMENT
__unwindtable$?RegisterDynamicEnums@CvLuaEnums@@KAXPAUlua_State@@PBD111@Z DD 0ffffffffH
	DD	FLAT:__unwindfunclet$?RegisterDynamicEnums@CvLuaEnums@@KAXPAUlua_State@@PBD111@Z$0
__ehfuncinfo$?RegisterDynamicEnums@CvLuaEnums@@KAXPAUlua_State@@PBD111@Z DD 019930522H
	DD	01H
	DD	FLAT:__unwindtable$?RegisterDynamicEnums@CvLuaEnums@@KAXPAUlua_State@@PBD111@Z
	DD	2 DUP(00H)
	DD	2 DUP(00H)
	DD	00H
	DD	01H
; Function compile flags: /Ogtpy
; File c:\users\enormousapplepie\documents\github\lekmod\lekmod_dll\cvgamecoredll_expansion2\lua\cvluaenums.cpp
xdata$x	ENDS
;	COMDAT ?RegisterDynamicEnums@CvLuaEnums@@KAXPAUlua_State@@PBD111@Z
_TEXT	SEGMENT
_db$ = -336						; size = 4
_kResults$ = -332					; size = 64
_zSQL$ = -268						; size = 256
__$EHRec$ = -12						; size = 12
_L$ = 8							; size = 4
_szTableName$ = 12					; size = 4
_szIdField$ = 16					; size = 4
_szNameField$ = 20					; size = 4
_szCountName$ = 24					; size = 4
?RegisterDynamicEnums@CvLuaEnums@@KAXPAUlua_State@@PBD111@Z PROC ; CvLuaEnums::RegisterDynamicEnums, COMDAT

; 1067 : {

	push	-1
	push	__ehhandler$?RegisterDynamicEnums@CvLuaEnums@@KAXPAUlua_State@@PBD111@Z
	mov	eax, DWORD PTR fs:0
	push	eax
	mov	DWORD PTR fs:0, esp
	sub	esp, 324				; 00000144H
	push	esi
	push	edi

; 1068 : 	Database::Connection& db = *GC.GetGameDatabase();

	mov	edi, DWORD PTR ?gGlobals@@3VCvGlobals@@A+912

; 1069 : 	Database::Results kResults;

	push	0
	lea	ecx, DWORD PTR _kResults$[esp+348]
	mov	DWORD PTR _db$[esp+348], edi
	call	DWORD PTR __imp_??0Results@Database@@QAE@PBD@Z

; 1070 : 
; 1071 : 	char zSQL[256];
; 1072 : 	sprintf_s(zSQL, 255, "select %s, %s from %s", szIdField, szNameField, szTableName);

	mov	eax, DWORD PTR _szTableName$[esp+340]
	mov	ecx, DWORD PTR _szNameField$[esp+340]
	mov	edx, DWORD PTR _szIdField$[esp+340]
	push	eax
	push	ecx
	push	edx
	push	OFFSET $SG221551
	lea	eax, DWORD PTR _zSQL$[esp+360]
	push	255					; 000000ffH
	push	eax
	mov	DWORD PTR __$EHRec$[esp+376], 0
	call	DWORD PTR __imp__sprintf_s
	add	esp, 24					; 00000018H

; 1073 : 
; 1074 : 	if(db.Execute(kResults, zSQL))

	push	-1
	lea	ecx, DWORD PTR _zSQL$[esp+348]
	push	ecx
	lea	edx, DWORD PTR _kResults$[esp+352]
	push	edx
	mov	ecx, edi
	call	DWORD PTR __imp_?Execute@Connection@Database@@QBE_NAAVResults@2@PBDH@Z
	mov	esi, DWORD PTR _L$[esp+340]
	test	al, al
	je	SHORT $LN2@RegisterDy

; 1075 : 	{
; 1076 : 		while(kResults.Step())

	lea	ecx, DWORD PTR _kResults$[esp+344]
	call	DWORD PTR __imp_?Step@Results@Database@@QAE_NXZ
	test	al, al
	je	SHORT $LN2@RegisterDy
	push	ebx
	mov	ebx, DWORD PTR __imp_?GetInt@Results@Database@@QAEHH@Z
	push	ebp
	mov	ebp, DWORD PTR __imp_?GetText@Results@Database@@QAEPBDH@Z
	npad	7
$LL3@RegisterDy:

; 1077 : 		{
; 1078 : 			const int value = kResults.GetInt(0);

	push	0
	lea	ecx, DWORD PTR _kResults$[esp+356]
	call	ebx

; 1079 : 			const char* name = kResults.GetText(1);

	push	1
	lea	ecx, DWORD PTR _kResults$[esp+356]
	mov	edi, eax
	call	ebp

; 1080 : 
; 1081 : 			lua_pushstring(L, name);

	push	eax
	push	esi
	call	_lua_pushstring

; 1082 : 			lua_pushvalue(L, -1);

	push	-1
	push	esi
	call	_lua_pushvalue

; 1083 : 
; 1084 : 			lua_pushinteger(L, value);

	push	edi
	push	esi
	call	_lua_pushinteger

; 1085 : 			lua_rawset(L, -4);

	push	-4					; fffffffcH
	push	esi
	call	_lua_rawset

; 1086 : 
; 1087 : 			lua_rawseti(L, -2, value);

	push	edi
	push	-2					; fffffffeH
	push	esi
	call	_lua_rawseti
	add	esp, 44					; 0000002cH
	lea	ecx, DWORD PTR _kResults$[esp+352]
	call	DWORD PTR __imp_?Step@Results@Database@@QAE_NXZ
	test	al, al
	jne	SHORT $LL3@RegisterDy
	mov	edi, DWORD PTR _db$[esp+352]
	pop	ebp
	pop	ebx
$LN2@RegisterDy:

; 1088 : 		}
; 1089 : 	}
; 1090 : 
; 1091 : 	if(szCountName != NULL)

	mov	eax, DWORD PTR _szCountName$[esp+340]
	test	eax, eax
	je	SHORT $LN1@RegisterDy

; 1092 : 	{
; 1093 : 		lua_pushstring(L, szCountName);

	push	eax
	push	esi
	call	_lua_pushstring

; 1094 : 		lua_pushinteger(L, db.Count(szTableName, false));

	mov	eax, DWORD PTR _szTableName$[esp+348]
	add	esp, 8
	push	0
	push	eax
	mov	ecx, edi
	call	DWORD PTR __imp_?Count@Connection@Database@@QAEHPBD_N@Z
	push	eax
	push	esi
	call	_lua_pushinteger

; 1095 : 		lua_rawset(L, -3);

	push	-3					; fffffffdH
	push	esi
	call	_lua_rawset
	add	esp, 16					; 00000010H
$LN1@RegisterDy:

; 1096 : 	}
; 1097 : }

	lea	ecx, DWORD PTR _kResults$[esp+344]
	mov	DWORD PTR __$EHRec$[esp+352], -1
	call	DWORD PTR __imp_??1Results@Database@@UAE@XZ
	mov	ecx, DWORD PTR __$EHRec$[esp+344]
	pop	edi
	pop	esi
	mov	DWORD PTR fs:0, ecx
	add	esp, 336				; 00000150H
	ret	0
_TEXT	ENDS
;	COMDAT text$x
text$x	SEGMENT
__unwindfunclet$?RegisterDynamicEnums@CvLuaEnums@@KAXPAUlua_State@@PBD111@Z$0:
	lea	ecx, DWORD PTR _kResults$[ebp]
	jmp	DWORD PTR __imp_??1Results@Database@@UAE@XZ
__ehhandler$?RegisterDynamicEnums@CvLuaEnums@@KAXPAUlua_State@@PBD111@Z:
	mov	eax, OFFSET __ehfuncinfo$?RegisterDynamicEnums@CvLuaEnums@@KAXPAUlua_State@@PBD111@Z
	jmp	___CxxFrameHandler3
text$x	ENDS
?RegisterDynamicEnums@CvLuaEnums@@KAXPAUlua_State@@PBD111@Z ENDP ; CvLuaEnums::RegisterDynamicEnums
PUBLIC	?Hash@FStringA@@SAIPBD@Z			; FStringA::Hash
EXTRN	?Calc@FCRC@@QBEKPBXHK@Z:PROC			; FCRC::Calc
EXTRN	?g_CRC32@@3VFCRC@@A:BYTE			; g_CRC32
; Function compile flags: /Ogtpy
; File c:\users\enormousapplepie\documents\github\lekmod\lekmod_dll\fireplace\include\fireworks\fstringa.inl
;	COMDAT ?Hash@FStringA@@SAIPBD@Z
_TEXT	SEGMENT
_pszStr$ = 8						; size = 4
?Hash@FStringA@@SAIPBD@Z PROC				; FStringA::Hash, COMDAT

; 998  : {

	push	esi

; 999  : 	FAssert(pszStr != NULL);
; 1000 : 	return ( g_CRC32.Calc( ( void* )pszStr, SafeStrlen(pszStr) * sizeof ( char ) ) );

	mov	esi, DWORD PTR _pszStr$[esp]
	test	esi, esi
	je	SHORT $LN5@Hash
	mov	eax, esi
	lea	edx, DWORD PTR [eax+1]
	npad	2
$LL7@Hash:
	mov	cl, BYTE PTR [eax]
	inc	eax
	test	cl, cl
	jne	SHORT $LL7@Hash
	push	-1
	sub	eax, edx
	push	eax
	push	esi
	mov	ecx, OFFSET ?g_CRC32@@3VFCRC@@A		; g_CRC32
	call	?Calc@FCRC@@QBEKPBXHK@Z			; FCRC::Calc
	pop	esi

; 1001 : }

	ret	0

; 999  : 	FAssert(pszStr != NULL);
; 1000 : 	return ( g_CRC32.Calc( ( void* )pszStr, SafeStrlen(pszStr) * sizeof ( char ) ) );

$LN5@Hash:
	push	-1
	xor	eax, eax
	push	eax
	push	esi
	mov	ecx, OFFSET ?g_CRC32@@3VFCRC@@A		; g_CRC32
	call	?Calc@FCRC@@QBEKPBXHK@Z			; FCRC::Calc
	pop	esi

; 1001 : }

	ret	0
?Hash@FStringA@@SAIPBD@Z ENDP				; FStringA::Hash
_TEXT	ENDS
PUBLIC	?pRegister@CvLuaEnums@@KAHPAUlua_State@@@Z	; CvLuaEnums::pRegister
EXTRN	?GetTypeName@CvNotificationEntry@@QAEPBDXZ:PROC	; CvNotificationEntry::GetTypeName
EXTRN	?GetEntry@CvNotificationXMLEntries@@QAEPAVCvNotificationEntry@@H@Z:PROC ; CvNotificationXMLEntries::GetEntry
EXTRN	?GetNumNotifications@CvNotificationXMLEntries@@QAEHXZ:PROC ; CvNotificationXMLEntries::GetNumNotifications
EXTRN	?GetNotificationEntries@CvGlobals@@QAEPAVCvNotificationXMLEntries@@XZ:PROC ; CvGlobals::GetNotificationEntries
; Function compile flags: /Ogtpy
; File c:\users\enormousapplepie\documents\github\lekmod\lekmod_dll\cvgamecoredll_expansion2\lua\cvluaenums.cpp
;	COMDAT ?pRegister@CvLuaEnums@@KAHPAUlua_State@@@Z
_TEXT	SEGMENT
_pkNotifications$ = -4					; size = 4
_L$ = 8							; size = 4
?pRegister@CvLuaEnums@@KAHPAUlua_State@@@Z PROC		; CvLuaEnums::pRegister, COMDAT

; 31   : {

	push	ecx
	push	esi

; 32   : 	// Things from CvDefines.h
; 33   : 	// Interface Dirty Bits
; 34   : 	EnumStart(L, "InterfaceDirtyBits");

	mov	esi, DWORD PTR _L$[esp+4]
	push	OFFSET $SG220693
	push	-10002					; ffffd8eeH
	push	esi
	call	_lua_getfield
	push	-1
	push	esi
	call	_lua_type
	add	esp, 20					; 00000014H
	test	eax, eax
	jne	SHORT $LN1713@pRegister
	push	-2					; fffffffeH
	push	esi
	call	_lua_settop
	push	0
	push	0
	push	esi
	call	_lua_createtable
	push	-1
	push	esi
	call	_lua_pushvalue
	push	OFFSET $SG220693
	push	-10002					; ffffd8eeH
	push	esi
	call	_lua_setfield
	add	esp, 40					; 00000028H
$LN1713@pRegister:

; 35   : 	RegisterEnum(SelectionCamera_DIRTY_BIT);

	push	0
	push	esi
	call	_lua_pushinteger
	push	OFFSET $SG220694
	push	-2					; fffffffeH
	push	esi
	call	_lua_setfield

; 36   : 	RegisterEnum(Fog_DIRTY_BIT);

	push	1
	push	esi
	call	_lua_pushinteger
	push	OFFSET $SG220695
	push	-2					; fffffffeH
	push	esi
	call	_lua_setfield

; 37   : 	RegisterEnum(Waypoints_DIRTY_BIT);

	push	2
	push	esi
	call	_lua_pushinteger
	push	OFFSET $SG220696
	push	-2					; fffffffeH
	push	esi
	call	_lua_setfield

; 38   : 	RegisterEnum(PercentButtons_DIRTY_BIT);

	push	3
	push	esi
	call	_lua_pushinteger
	add	esp, 68					; 00000044H
	push	OFFSET $SG220697
	push	-2					; fffffffeH
	push	esi
	call	_lua_setfield

; 39   : 	RegisterEnum(MiscButtons_DIRTY_BIT);

	push	4
	push	esi
	call	_lua_pushinteger
	push	OFFSET $SG220698
	push	-2					; fffffffeH
	push	esi
	call	_lua_setfield

; 40   : 	RegisterEnum(PlotListButtons_DIRTY_BIT);

	push	5
	push	esi
	call	_lua_pushinteger
	push	OFFSET $SG220699
	push	-2					; fffffffeH
	push	esi
	call	_lua_setfield

; 41   : 	RegisterEnum(SelectionButtons_DIRTY_BIT);

	push	6
	push	esi
	call	_lua_pushinteger
	push	OFFSET $SG220700
	push	-2					; fffffffeH
	push	esi
	call	_lua_setfield
	add	esp, 72					; 00000048H

; 42   : 	RegisterEnum(CitizenButtons_DIRTY_BIT);

	push	7
	push	esi
	call	_lua_pushinteger
	push	OFFSET $SG220701
	push	-2					; fffffffeH
	push	esi
	call	_lua_setfield

; 43   : 	RegisterEnum(ResearchButtons_DIRTY_BIT);

	push	8
	push	esi
	call	_lua_pushinteger
	push	OFFSET $SG220702
	push	-2					; fffffffeH
	push	esi
	call	_lua_setfield

; 44   : 	RegisterEnum(Event_DIRTY_BIT);

	push	9
	push	esi
	call	_lua_pushinteger
	push	OFFSET $SG220703
	push	-2					; fffffffeH
	push	esi
	call	_lua_setfield

; 45   : 	RegisterEnum(Center_DIRTY_BIT);

	push	10					; 0000000aH
	push	esi
	call	_lua_pushinteger
	add	esp, 68					; 00000044H
	push	OFFSET $SG220704
	push	-2					; fffffffeH
	push	esi
	call	_lua_setfield

; 46   : 	RegisterEnum(GameData_DIRTY_BIT);

	push	11					; 0000000bH
	push	esi
	call	_lua_pushinteger
	push	OFFSET $SG220705
	push	-2					; fffffffeH
	push	esi
	call	_lua_setfield

; 47   : 	RegisterEnum(Score_DIRTY_BIT);

	push	12					; 0000000cH
	push	esi
	call	_lua_pushinteger
	push	OFFSET $SG220706
	push	-2					; fffffffeH
	push	esi
	call	_lua_setfield

; 48   : 	RegisterEnum(TurnTimer_DIRTY_BIT);

	push	13					; 0000000dH
	push	esi
	call	_lua_pushinteger
	push	OFFSET $SG220707
	push	-2					; fffffffeH
	push	esi
	call	_lua_setfield
	add	esp, 72					; 00000048H

; 49   : 	RegisterEnum(Help_DIRTY_BIT);

	push	14					; 0000000eH
	push	esi
	call	_lua_pushinteger
	push	OFFSET $SG220708
	push	-2					; fffffffeH
	push	esi
	call	_lua_setfield

; 50   : 	RegisterEnum(MinimapSection_DIRTY_BIT);

	push	15					; 0000000fH
	push	esi
	call	_lua_pushinteger
	push	OFFSET $SG220709
	push	-2					; fffffffeH
	push	esi
	call	_lua_setfield

; 51   : 	RegisterEnum(SelectionSound_DIRTY_BIT);

	push	16					; 00000010H
	push	esi
	call	_lua_pushinteger
	push	OFFSET $SG220710
	push	-2					; fffffffeH
	push	esi
	call	_lua_setfield

; 52   : 	RegisterEnum(Cursor_DIRTY_BIT);

	push	17					; 00000011H
	push	esi
	call	_lua_pushinteger
	add	esp, 68					; 00000044H
	push	OFFSET $SG220711
	push	-2					; fffffffeH
	push	esi
	call	_lua_setfield

; 53   : 	RegisterEnum(CityInfo_DIRTY_BIT);

	push	18					; 00000012H
	push	esi
	call	_lua_pushinteger
	push	OFFSET $SG220712
	push	-2					; fffffffeH
	push	esi
	call	_lua_setfield

; 54   : 	RegisterEnum(UnitInfo_DIRTY_BIT);

	push	19					; 00000013H
	push	esi
	call	_lua_pushinteger
	push	OFFSET $SG220713
	push	-2					; fffffffeH
	push	esi
	call	_lua_setfield

; 55   : 	RegisterEnum(Popup_DIRTY_BIT);

	push	20					; 00000014H
	push	esi
	call	_lua_pushinteger
	push	OFFSET $SG220714
	push	-2					; fffffffeH
	push	esi
	call	_lua_setfield
	add	esp, 72					; 00000048H

; 56   : 	RegisterEnum(CityScreen_DIRTY_BIT);

	push	21					; 00000015H
	push	esi
	call	_lua_pushinteger
	push	OFFSET $SG220715
	push	-2					; fffffffeH
	push	esi
	call	_lua_setfield

; 57   : 	RegisterEnum(InfoPane_DIRTY_BIT);

	push	22					; 00000016H
	push	esi
	call	_lua_pushinteger
	push	OFFSET $SG220716
	push	-2					; fffffffeH
	push	esi
	call	_lua_setfield

; 58   : 	RegisterEnum(HighlightPlot_DIRTY_BIT);

	push	23					; 00000017H
	push	esi
	call	_lua_pushinteger
	push	OFFSET $SG220717
	push	-2					; fffffffeH
	push	esi
	call	_lua_setfield

; 59   : 	RegisterEnum(ColoredPlots_DIRTY_BIT);

	push	24					; 00000018H
	push	esi
	call	_lua_pushinteger
	add	esp, 68					; 00000044H
	push	OFFSET $SG220718
	push	-2					; fffffffeH
	push	esi
	call	_lua_setfield

; 60   : 	RegisterEnum(BlockadedPlots_DIRTY_BIT);

	push	25					; 00000019H
	push	esi
	call	_lua_pushinteger
	push	OFFSET $SG220719
	push	-2					; fffffffeH
	push	esi
	call	_lua_setfield

; 61   : 	RegisterEnum(Financial_Screen_DIRTY_BIT);

	push	26					; 0000001aH
	push	esi
	call	_lua_pushinteger
	push	OFFSET $SG220720
	push	-2					; fffffffeH
	push	esi
	call	_lua_setfield

; 62   : 	RegisterEnum(Foreign_Screen_DIRTY_BIT);

	push	27					; 0000001bH
	push	esi
	call	_lua_pushinteger
	push	OFFSET $SG220721
	push	-2					; fffffffeH
	push	esi
	call	_lua_setfield
	add	esp, 72					; 00000048H

; 63   : 	RegisterEnum(Soundtrack_DIRTY_BIT);

	push	28					; 0000001cH
	push	esi
	call	_lua_pushinteger
	push	OFFSET $SG220722
	push	-2					; fffffffeH
	push	esi
	call	_lua_setfield

; 64   : 	RegisterEnum(Domestic_Advisor_DIRTY_BIT);

	push	29					; 0000001dH
	push	esi
	call	_lua_pushinteger
	push	OFFSET $SG220723
	push	-2					; fffffffeH
	push	esi
	call	_lua_setfield

; 65   : 	RegisterEnum(Advanced_Start_DIRTY_BIT);

	push	30					; 0000001eH
	push	esi
	call	_lua_pushinteger
	push	OFFSET $SG220724
	push	-2					; fffffffeH
	push	esi
	call	_lua_setfield

; 66   : 	RegisterEnum(NationalBorders_DIRTY_BIT);

	push	31					; 0000001fH
	push	esi
	call	_lua_pushinteger
	add	esp, 68					; 00000044H
	push	OFFSET $SG220725
	push	-2					; fffffffeH
	push	esi
	call	_lua_setfield

; 67   : 	RegisterEnum(Policies_DIRTY_BIT);

	push	32					; 00000020H
	push	esi
	call	_lua_pushinteger
	push	OFFSET $SG220726
	push	-2					; fffffffeH
	push	esi
	call	_lua_setfield

; 68   : 	RegisterEnum(PlotData_DIRTY_BIT);

	push	33					; 00000021H
	push	esi
	call	_lua_pushinteger
	push	OFFSET $SG220727
	push	-2					; fffffffeH
	push	esi
	call	_lua_setfield

; 69   : 	RegisterEnum(NUM_INTERFACE_DIRTY_BITS);

	push	37					; 00000025H
	push	esi
	call	_lua_pushinteger
	push	OFFSET $SG220728
	push	-2					; fffffffeH
	push	esi
	call	_lua_setfield
	add	esp, 72					; 00000048H

; 70   : 	EnumEnd(L);

	push	1
	push	esi
	call	_lua_checkstack
	push	-2					; fffffffeH
	push	esi
	call	_lua_settop

; 71   : 
; 72   : 	// City Update Types
; 73   : 	EnumStart(L, "CityUpdateTypes");

	push	OFFSET $SG220729
	push	-10002					; ffffd8eeH
	push	esi
	call	_lua_getfield
	push	-1
	push	esi
	call	_lua_type
	add	esp, 36					; 00000024H
	test	eax, eax
	jne	SHORT $LN83@pRegister
	push	-2					; fffffffeH
	push	esi
	call	_lua_settop
	push	0
	push	0
	push	esi
	call	_lua_createtable
	push	-1
	push	esi
	call	_lua_pushvalue
	push	OFFSET $SG220729
	push	-10002					; ffffd8eeH
	push	esi
	call	_lua_setfield
	add	esp, 40					; 00000028H
$LN83@pRegister:

; 74   : 	RegisterEnum(NO_CITY_UPDATE_TYPE);

	push	-1
	push	esi
	call	_lua_pushinteger
	push	OFFSET $SG220730
	push	-2					; fffffffeH
	push	esi
	call	_lua_setfield

; 75   : 	RegisterEnum(CITY_UPDATE_TYPE_BANNER);

	push	0
	push	esi
	call	_lua_pushinteger
	push	OFFSET $SG220731
	push	-2					; fffffffeH
	push	esi
	call	_lua_setfield

; 76   : 	RegisterEnum(CITY_UPDATE_TYPE_SPECIALISTS);

	push	1
	push	esi
	call	_lua_pushinteger
	push	OFFSET $SG220732
	push	-2					; fffffffeH
	push	esi
	call	_lua_setfield

; 77   : 	RegisterEnum(CITY_UPDATE_TYPE_PRODUCTION);

	push	2
	push	esi
	call	_lua_pushinteger
	add	esp, 68					; 00000044H
	push	OFFSET $SG220733
	push	-2					; fffffffeH
	push	esi
	call	_lua_setfield

; 78   : 	RegisterEnum(CITY_UPDATE_TYPE_ENEMY_IN_RANGE);

	push	3
	push	esi
	call	_lua_pushinteger
	push	OFFSET $SG220734
	push	-2					; fffffffeH
	push	esi
	call	_lua_setfield

; 79   : 	RegisterEnum(CITY_UPDATE_TYPE_GARRISON);

	push	4
	push	esi
	call	_lua_pushinteger
	push	OFFSET $SG220735
	push	-2					; fffffffeH
	push	esi
	call	_lua_setfield

; 80   : 	RegisterEnum(NUM_CITY_UPDATE_TYPES);

	push	5
	push	esi
	call	_lua_pushinteger
	push	OFFSET $SG220736
	push	-2					; fffffffeH
	push	esi
	call	_lua_setfield
	add	esp, 72					; 00000048H

; 81   : 	EnumEnd(L);

	push	1
	push	esi
	call	_lua_checkstack
	push	-2					; fffffffeH
	push	esi
	call	_lua_settop

; 82   : 
; 83   : 	//Button Popup Types
; 84   : 	EnumStart(L, "ButtonPopupTypes");

	push	OFFSET $SG220737
	push	-10002					; ffffd8eeH
	push	esi
	call	_lua_getfield
	push	-1
	push	esi
	call	_lua_type
	add	esp, 36					; 00000024H
	test	eax, eax
	jne	SHORT $LN102@pRegister
	push	-2					; fffffffeH
	push	esi
	call	_lua_settop
	push	0
	push	0
	push	esi
	call	_lua_createtable
	push	-1
	push	esi
	call	_lua_pushvalue
	push	OFFSET $SG220737
	push	-10002					; ffffd8eeH
	push	esi
	call	_lua_setfield
	add	esp, 40					; 00000028H
$LN102@pRegister:

; 85   : 	RegisterEnum(BUTTONPOPUP_TEXT);

	push	0
	push	esi
	call	_lua_pushinteger
	push	OFFSET $SG220738
	push	-2					; fffffffeH
	push	esi
	call	_lua_setfield

; 86   : 	RegisterEnum(BUTTONPOPUP_MAIN_MENU);

	push	1
	push	esi
	call	_lua_pushinteger
	push	OFFSET $SG220739
	push	-2					; fffffffeH
	push	esi
	call	_lua_setfield

; 87   : 	RegisterEnum(BUTTONPOPUP_CONFIRM_MENU);

	push	2
	push	esi
	call	_lua_pushinteger
	push	OFFSET $SG220740
	push	-2					; fffffffeH
	push	esi
	call	_lua_setfield

; 88   : 	RegisterEnum(BUTTONPOPUP_DECLAREWARMOVE);

	push	3
	push	esi
	call	_lua_pushinteger
	add	esp, 68					; 00000044H
	push	OFFSET $SG220741
	push	-2					; fffffffeH
	push	esi
	call	_lua_setfield

; 89   : 	RegisterEnum(BUTTONPOPUP_DECLAREWARRANGESTRIKE);

	push	4
	push	esi
	call	_lua_pushinteger
	push	OFFSET $SG220742
	push	-2					; fffffffeH
	push	esi
	call	_lua_setfield

; 90   : 	RegisterEnum(BUTTONPOPUP_CONFIRMCOMMAND);

	push	5
	push	esi
	call	_lua_pushinteger
	push	OFFSET $SG220743
	push	-2					; fffffffeH
	push	esi
	call	_lua_setfield

; 91   : 	RegisterEnum(BUTTONPOPUP_CONFIRM_CITY_TASK);

	push	6
	push	esi
	call	_lua_pushinteger
	push	OFFSET $SG220744
	push	-2					; fffffffeH
	push	esi
	call	_lua_setfield
	add	esp, 72					; 00000048H

; 92   : 	RegisterEnum(BUTTONPOPUP_CONFIRM_IMPROVEMENT_REBUILD);

	push	7
	push	esi
	call	_lua_pushinteger
	push	OFFSET $SG220745
	push	-2					; fffffffeH
	push	esi
	call	_lua_setfield

; 93   : 	RegisterEnum(BUTTONPOPUP_GREAT_PERSON);

	push	8
	push	esi
	call	_lua_pushinteger
	push	OFFSET $SG220746
	push	-2					; fffffffeH
	push	esi
	call	_lua_setfield

; 94   : 	RegisterEnum(BUTTONPOPUP_LOADUNIT);

	push	9
	push	esi
	call	_lua_pushinteger
	push	OFFSET $SG220747
	push	-2					; fffffffeH
	push	esi
	call	_lua_setfield

; 95   : 	RegisterEnum(BUTTONPOPUP_LEADUNIT);

	push	10					; 0000000aH
	push	esi
	call	_lua_pushinteger
	add	esp, 68					; 00000044H
	push	OFFSET $SG220748
	push	-2					; fffffffeH
	push	esi
	call	_lua_setfield

; 96   : 	RegisterEnum(BUTTONPOPUP_CHOOSETECH);

	push	11					; 0000000bH
	push	esi
	call	_lua_pushinteger
	push	OFFSET $SG220749
	push	-2					; fffffffeH
	push	esi
	call	_lua_setfield

; 97   : 	RegisterEnum(BUTTONPOPUP_CITY_CAPTURED);

	push	12					; 0000000cH
	push	esi
	call	_lua_pushinteger
	push	OFFSET $SG220750
	push	-2					; fffffffeH
	push	esi
	call	_lua_setfield

; 98   : 	RegisterEnum(BUTTONPOPUP_ANNEX_CITY);

	push	13					; 0000000dH
	push	esi
	call	_lua_pushinteger
	push	OFFSET $SG220751
	push	-2					; fffffffeH
	push	esi
	call	_lua_setfield
	add	esp, 72					; 00000048H

; 99   : 	RegisterEnum(BUTTONPOPUP_LIBERATE_MINOR);

	push	14					; 0000000eH
	push	esi
	call	_lua_pushinteger
	push	OFFSET $SG220752
	push	-2					; fffffffeH
	push	esi
	call	_lua_setfield

; 100  : 	RegisterEnum(BUTTONPOPUP_DISBANDCITY);

	push	15					; 0000000fH
	push	esi
	call	_lua_pushinteger
	push	OFFSET $SG220753
	push	-2					; fffffffeH
	push	esi
	call	_lua_setfield

; 101  : 	RegisterEnum(BUTTONPOPUP_CHOOSEPRODUCTION);

	push	16					; 00000010H
	push	esi
	call	_lua_pushinteger
	push	OFFSET $SG220754
	push	-2					; fffffffeH
	push	esi
	call	_lua_setfield

; 102  : 	RegisterEnum(BUTTONPOPUP_CHOOSEPOLICY);

	push	17					; 00000011H
	push	esi
	call	_lua_pushinteger
	add	esp, 68					; 00000044H
	push	OFFSET $SG220755
	push	-2					; fffffffeH
	push	esi
	call	_lua_setfield

; 103  : 	RegisterEnum(BUTTONPOPUP_CHOOSECITYPURCHASE);

	push	18					; 00000012H
	push	esi
	call	_lua_pushinteger
	push	OFFSET $SG220756
	push	-2					; fffffffeH
	push	esi
	call	_lua_setfield

; 104  : 	RegisterEnum(BUTTONPOPUP_CHOOSEELECTION);

	push	19					; 00000013H
	push	esi
	call	_lua_pushinteger
	push	OFFSET $SG220757
	push	-2					; fffffffeH
	push	esi
	call	_lua_setfield

; 105  : 	RegisterEnum(BUTTONPOPUP_DIPLOVOTE);

	push	20					; 00000014H
	push	esi
	call	_lua_pushinteger
	push	OFFSET $SG220758
	push	-2					; fffffffeH
	push	esi
	call	_lua_setfield
	add	esp, 72					; 00000048H

; 106  : 	RegisterEnum(BUTTONPOPUP_ALARM);

	push	21					; 00000015H
	push	esi
	call	_lua_pushinteger
	push	OFFSET $SG220759
	push	-2					; fffffffeH
	push	esi
	call	_lua_setfield

; 107  : 	RegisterEnum(BUTTONPOPUP_DEAL_CANCELED);

	push	22					; 00000016H
	push	esi
	call	_lua_pushinteger
	push	OFFSET $SG220760
	push	-2					; fffffffeH
	push	esi
	call	_lua_setfield

; 108  : 	RegisterEnum(BUTTONPOPUP_PYTHON);

	push	23					; 00000017H
	push	esi
	call	_lua_pushinteger
	push	OFFSET $SG220761
	push	-2					; fffffffeH
	push	esi
	call	_lua_setfield

; 109  : 	RegisterEnum(BUTTONPOPUP_PYTHON_SCREEN);

	push	24					; 00000018H
	push	esi
	call	_lua_pushinteger
	add	esp, 68					; 00000044H
	push	OFFSET $SG220762
	push	-2					; fffffffeH
	push	esi
	call	_lua_setfield

; 110  : 	RegisterEnum(BUTTONPOPUP_DETAILS);

	push	25					; 00000019H
	push	esi
	call	_lua_pushinteger
	push	OFFSET $SG220763
	push	-2					; fffffffeH
	push	esi
	call	_lua_setfield

; 111  : 	RegisterEnum(BUTTONPOPUP_ADMIN);

	push	26					; 0000001aH
	push	esi
	call	_lua_pushinteger
	push	OFFSET $SG220764
	push	-2					; fffffffeH
	push	esi
	call	_lua_setfield

; 112  : 	RegisterEnum(BUTTONPOPUP_ADMIN_PASSWORD);

	push	27					; 0000001bH
	push	esi
	call	_lua_pushinteger
	push	OFFSET $SG220765
	push	-2					; fffffffeH
	push	esi
	call	_lua_setfield
	add	esp, 72					; 00000048H

; 113  : 	RegisterEnum(BUTTONPOPUP_EXTENDED_GAME);

	push	28					; 0000001cH
	push	esi
	call	_lua_pushinteger
	push	OFFSET $SG220766
	push	-2					; fffffffeH
	push	esi
	call	_lua_setfield

; 114  : 	RegisterEnum(BUTTONPOPUP_DIPLOMACY);

	push	29					; 0000001dH
	push	esi
	call	_lua_pushinteger
	push	OFFSET $SG220767
	push	-2					; fffffffeH
	push	esi
	call	_lua_setfield

; 115  : 	RegisterEnum(BUTTONPOPUP_ADDBUDDY);

	push	30					; 0000001eH
	push	esi
	call	_lua_pushinteger
	push	OFFSET $SG220768
	push	-2					; fffffffeH
	push	esi
	call	_lua_setfield

; 116  : 	RegisterEnum(BUTTONPOPUP_FORCED_DISCONNECT);

	push	31					; 0000001fH
	push	esi
	call	_lua_pushinteger
	add	esp, 68					; 00000044H
	push	OFFSET $SG220769
	push	-2					; fffffffeH
	push	esi
	call	_lua_setfield

; 117  : 	RegisterEnum(BUTTONPOPUP_PITBOSS_DISCONNECT);

	push	32					; 00000020H
	push	esi
	call	_lua_pushinteger
	push	OFFSET $SG220770
	push	-2					; fffffffeH
	push	esi
	call	_lua_setfield

; 118  : 	RegisterEnum(BUTTONPOPUP_KICKED);

	push	33					; 00000021H
	push	esi
	call	_lua_pushinteger
	push	OFFSET $SG220771
	push	-2					; fffffffeH
	push	esi
	call	_lua_setfield

; 119  : 	RegisterEnum(BUTTONPOPUP_FREE_COLONY);

	push	34					; 00000022H
	push	esi
	call	_lua_pushinteger
	push	OFFSET $SG220772
	push	-2					; fffffffeH
	push	esi
	call	_lua_setfield
	add	esp, 72					; 00000048H

; 120  : 	RegisterEnum(BUTTONPOPUP_LAUNCH);

	push	35					; 00000023H
	push	esi
	call	_lua_pushinteger
	push	OFFSET $SG220773
	push	-2					; fffffffeH
	push	esi
	call	_lua_setfield

; 121  : 	RegisterEnum(BUTTONPOPUP_MINOR_GOLD);

	push	36					; 00000024H
	push	esi
	call	_lua_pushinteger
	push	OFFSET $SG220774
	push	-2					; fffffffeH
	push	esi
	call	_lua_setfield

; 122  : 	RegisterEnum(BUTTONPOPUP_MINOR_CIV_QUEST);

	push	37					; 00000025H
	push	esi
	call	_lua_pushinteger
	push	OFFSET $SG220775
	push	-2					; fffffffeH
	push	esi
	call	_lua_setfield

; 123  : 	RegisterEnum(BUTTONPOPUP_MINOR_CIV_QUEST_COMPLETED);

	push	38					; 00000026H
	push	esi
	call	_lua_pushinteger
	add	esp, 68					; 00000044H
	push	OFFSET $SG220776
	push	-2					; fffffffeH
	push	esi
	call	_lua_setfield

; 124  : 	RegisterEnum(BUTTONPOPUP_MINOR_CIV_INTRUSION);

	push	39					; 00000027H
	push	esi
	call	_lua_pushinteger
	push	OFFSET $SG220777
	push	-2					; fffffffeH
	push	esi
	call	_lua_setfield

; 125  : 	RegisterEnum(BUTTONPOPUP_MINOR_CIV_GREETING_AND_WAR);

	push	40					; 00000028H
	push	esi
	call	_lua_pushinteger
	push	OFFSET $SG220778
	push	-2					; fffffffeH
	push	esi
	call	_lua_setfield

; 126  : 	RegisterEnum(BUTTONPOPUP_BARBARIAN_RANSOM);

	push	41					; 00000029H
	push	esi
	call	_lua_pushinteger
	push	OFFSET $SG220779
	push	-2					; fffffffeH
	push	esi
	call	_lua_setfield
	add	esp, 72					; 00000048H

; 127  : 	RegisterEnum(BUTTONPOPUP_MINOR_CIV_ENTER_TERRITORY);

	push	42					; 0000002aH
	push	esi
	call	_lua_pushinteger
	push	OFFSET $SG220780
	push	-2					; fffffffeH
	push	esi
	call	_lua_setfield

; 128  : 	RegisterEnum(BUTTONPOPUP_TEMP_SPECIALISTS);

	push	43					; 0000002bH
	push	esi
	call	_lua_pushinteger
	push	OFFSET $SG220781
	push	-2					; fffffffeH
	push	esi
	call	_lua_setfield

; 129  : 	RegisterEnum(BUTTONPOPUP_NOTIFICATION_LOG);

	push	44					; 0000002cH
	push	esi
	call	_lua_pushinteger
	push	OFFSET $SG220782
	push	-2					; fffffffeH
	push	esi
	call	_lua_setfield

; 130  : 	RegisterEnum(BUTTONPOPUP_ECONOMIC_OVERVIEW);

	push	45					; 0000002dH
	push	esi
	call	_lua_pushinteger
	add	esp, 68					; 00000044H
	push	OFFSET $SG220783
	push	-2					; fffffffeH
	push	esi
	call	_lua_setfield

; 131  : 	RegisterEnum(BUTTONPOPUP_MILITARY_OVERVIEW);

	push	46					; 0000002eH
	push	esi
	call	_lua_pushinteger
	push	OFFSET $SG220784
	push	-2					; fffffffeH
	push	esi
	call	_lua_setfield

; 132  : 	RegisterEnum(BUTTONPOPUP_DIPLOMATIC_OVERVIEW);

	push	47					; 0000002fH
	push	esi
	call	_lua_pushinteger
	push	OFFSET $SG220785
	push	-2					; fffffffeH
	push	esi
	call	_lua_setfield

; 133  : 	RegisterEnum(BUTTONPOPUP_DEMOGRAPHICS);

	push	48					; 00000030H
	push	esi
	call	_lua_pushinteger
	push	OFFSET $SG220786
	push	-2					; fffffffeH
	push	esi
	call	_lua_setfield
	add	esp, 72					; 00000048H

; 134  : 	RegisterEnum(BUTTONPOPUP_VICTORY_INFO);

	push	49					; 00000031H
	push	esi
	call	_lua_pushinteger
	push	OFFSET $SG220787
	push	-2					; fffffffeH
	push	esi
	call	_lua_setfield

; 135  : 	RegisterEnum(BUTTONPOPUP_MINOR_CIVS_LIST);

	push	50					; 00000032H
	push	esi
	call	_lua_pushinteger
	push	OFFSET $SG220788
	push	-2					; fffffffeH
	push	esi
	call	_lua_setfield

; 136  : 	RegisterEnum(BUTTONPOPUP_GIFT_CONFIRM);

	push	51					; 00000033H
	push	esi
	call	_lua_pushinteger
	push	OFFSET $SG220789
	push	-2					; fffffffeH
	push	esi
	call	_lua_setfield

; 137  : 	RegisterEnum(BUTTONPOPUP_RETURN_CIVILIAN);

	push	52					; 00000034H
	push	esi
	call	_lua_pushinteger
	add	esp, 68					; 00000044H
	push	OFFSET $SG220790
	push	-2					; fffffffeH
	push	esi
	call	_lua_setfield

; 138  : 	RegisterEnum(BUTTONPOPUP_CONFIRM_POLICY_BRANCH_SWITCH);

	push	53					; 00000035H
	push	esi
	call	_lua_pushinteger
	push	OFFSET $SG220791
	push	-2					; fffffffeH
	push	esi
	call	_lua_setfield

; 139  : 	RegisterEnum(BUTTONPOPUP_WHOS_WINNING);

	push	54					; 00000036H
	push	esi
	call	_lua_pushinteger
	push	OFFSET $SG220792
	push	-2					; fffffffeH
	push	esi
	call	_lua_setfield

; 140  : 	RegisterEnum(BUTTONPOPUP_NEW_ERA);

	push	55					; 00000037H
	push	esi
	call	_lua_pushinteger
	push	OFFSET $SG220793
	push	-2					; fffffffeH
	push	esi
	call	_lua_setfield
	add	esp, 72					; 00000048H

; 141  : 	RegisterEnum(BUTTONPOPUP_NATURAL_WONDER_REWARD);

	push	56					; 00000038H
	push	esi
	call	_lua_pushinteger
	push	OFFSET $SG220794
	push	-2					; fffffffeH
	push	esi
	call	_lua_setfield

; 142  : 	RegisterEnum(BUTTONPOPUP_GOODY_HUT_REWARD);

	push	57					; 00000039H
	push	esi
	call	_lua_pushinteger
	push	OFFSET $SG220795
	push	-2					; fffffffeH
	push	esi
	call	_lua_setfield

; 143  : 	RegisterEnum(BUTTONPOPUP_BARBARIAN_CAMP_REWARD);

	push	58					; 0000003aH
	push	esi
	call	_lua_pushinteger
	push	OFFSET $SG220796
	push	-2					; fffffffeH
	push	esi
	call	_lua_setfield

; 144  : 	RegisterEnum(BUTTONPOPUP_GOLDEN_AGE_REWARD);

	push	59					; 0000003bH
	push	esi
	call	_lua_pushinteger
	add	esp, 68					; 00000044H
	push	OFFSET $SG220797
	push	-2					; fffffffeH
	push	esi
	call	_lua_setfield

; 145  : 	RegisterEnum(BUTTONPOPUP_GREAT_PERSON_REWARD);

	push	60					; 0000003cH
	push	esi
	call	_lua_pushinteger
	push	OFFSET $SG220798
	push	-2					; fffffffeH
	push	esi
	call	_lua_setfield

; 146  : 	RegisterEnum(BUTTONPOPUP_CITY_STATE_GREETING);

	push	61					; 0000003dH
	push	esi
	call	_lua_pushinteger
	push	OFFSET $SG220799
	push	-2					; fffffffeH
	push	esi
	call	_lua_setfield

; 147  : 	RegisterEnum(BUTTONPOPUP_CITY_STATE_MESSAGE);

	push	62					; 0000003eH
	push	esi
	call	_lua_pushinteger
	push	OFFSET $SG220800
	push	-2					; fffffffeH
	push	esi
	call	_lua_setfield
	add	esp, 72					; 00000048H

; 148  : 	RegisterEnum(BUTTONPOPUP_CITY_STATE_DIPLO);

	push	63					; 0000003fH
	push	esi
	call	_lua_pushinteger
	push	OFFSET $SG220801
	push	-2					; fffffffeH
	push	esi
	call	_lua_setfield

; 149  : 	RegisterEnum(BUTTONPOPUP_CITY_PLOT_MANAGEMENT);

	push	64					; 00000040H
	push	esi
	call	_lua_pushinteger
	push	OFFSET $SG220802
	push	-2					; fffffffeH
	push	esi
	call	_lua_setfield

; 150  : 	RegisterEnum(BUTTONPOPUP_DIPLO_VOTE);

	push	65					; 00000041H
	push	esi
	call	_lua_pushinteger
	push	OFFSET $SG220803
	push	-2					; fffffffeH
	push	esi
	call	_lua_setfield

; 151  : 	RegisterEnum(BUTTONPOPUP_VOTE_RESULTS);

	push	66					; 00000042H
	push	esi
	call	_lua_pushinteger
	add	esp, 68					; 00000044H
	push	OFFSET $SG220804
	push	-2					; fffffffeH
	push	esi
	call	_lua_setfield

; 152  : 	RegisterEnum(BUTTONPOPUP_TECH_TREE);

	push	67					; 00000043H
	push	esi
	call	_lua_pushinteger
	push	OFFSET $SG220805
	push	-2					; fffffffeH
	push	esi
	call	_lua_setfield

; 153  : 	RegisterEnum(BUTTONPOPUP_TECH_AWARD);

	push	68					; 00000044H
	push	esi
	call	_lua_pushinteger
	push	OFFSET $SG220806
	push	-2					; fffffffeH
	push	esi
	call	_lua_setfield

; 154  : 	RegisterEnum(BUTTONPOPUP_WONDER_COMPLETED_ACTIVE_PLAYER);

	push	69					; 00000045H
	push	esi
	call	_lua_pushinteger
	push	OFFSET $SG220807
	push	-2					; fffffffeH
	push	esi
	call	_lua_setfield
	add	esp, 72					; 00000048H

; 155  : 	RegisterEnum(BUTTONPOPUP_ADVISOR_INFO);

	push	70					; 00000046H
	push	esi
	call	_lua_pushinteger
	push	OFFSET $SG220808
	push	-2					; fffffffeH
	push	esi
	call	_lua_setfield

; 156  : 	RegisterEnum(BUTTONPOPUP_ADVISOR_COUNSEL);

	push	71					; 00000047H
	push	esi
	call	_lua_pushinteger
	push	OFFSET $SG220809
	push	-2					; fffffffeH
	push	esi
	call	_lua_setfield

; 157  : 	RegisterEnum(BUTTONPOPUP_ADVISOR_MODAL);

	push	72					; 00000048H
	push	esi
	call	_lua_pushinteger
	push	OFFSET $SG220810
	push	-2					; fffffffeH
	push	esi
	call	_lua_setfield

; 158  : 	RegisterEnum(BUTTONPOPUP_RENAME_CITY);

	push	73					; 00000049H
	push	esi
	call	_lua_pushinteger
	add	esp, 68					; 00000044H
	push	OFFSET $SG220811
	push	-2					; fffffffeH
	push	esi
	call	_lua_setfield

; 159  : 	RegisterEnum(BUTTONPOPUP_RENAME_UNIT);

	push	74					; 0000004aH
	push	esi
	call	_lua_pushinteger
	push	OFFSET $SG220812
	push	-2					; fffffffeH
	push	esi
	call	_lua_setfield

; 160  : 	RegisterEnum(BUTTONPOPUP_CHOOSE_FREE_GREAT_PERSON);

	push	75					; 0000004bH
	push	esi
	call	_lua_pushinteger
	push	OFFSET $SG220813
	push	-2					; fffffffeH
	push	esi
	call	_lua_setfield

; 161  : 	RegisterEnum(BUTTONPOPUP_FOUND_PANTHEON);

	push	76					; 0000004cH
	push	esi
	call	_lua_pushinteger
	push	OFFSET $SG220814
	push	-2					; fffffffeH
	push	esi
	call	_lua_setfield
	add	esp, 72					; 00000048H

; 162  : 	RegisterEnum(BUTTONPOPUP_FOUND_RELIGION);

	push	77					; 0000004dH
	push	esi
	call	_lua_pushinteger
	push	OFFSET $SG220815
	push	-2					; fffffffeH
	push	esi
	call	_lua_setfield

; 163  : 	RegisterEnum(BUTTONPOPUP_ESPIONAGE_OVERVIEW);

	push	78					; 0000004eH
	push	esi
	call	_lua_pushinteger
	push	OFFSET $SG220816
	push	-2					; fffffffeH
	push	esi
	call	_lua_setfield

; 164  : 	RegisterEnum(BUTTONPOPUP_RELIGION_OVERVIEW);

	push	79					; 0000004fH
	push	esi
	call	_lua_pushinteger
	push	OFFSET $SG220817
	push	-2					; fffffffeH
	push	esi
	call	_lua_setfield

; 165  : 	RegisterEnum(BUTTONPOPUP_CHOOSE_TECH_TO_STEAL);

	push	80					; 00000050H
	push	esi
	call	_lua_pushinteger
	add	esp, 68					; 00000044H
	push	OFFSET $SG220818
	push	-2					; fffffffeH
	push	esi
	call	_lua_setfield

; 166  : 	RegisterEnum(BUTTONPOPUP_CHOOSE_MAYA_BONUS);

	push	81					; 00000051H
	push	esi
	call	_lua_pushinteger
	push	OFFSET $SG220819
	push	-2					; fffffffeH
	push	esi
	call	_lua_setfield

; 167  : 	RegisterEnum(BUTTONPOPUP_CHOOSE_FAITH_GREAT_PERSON);

	push	82					; 00000052H
	push	esi
	call	_lua_pushinteger
	push	OFFSET $SG220820
	push	-2					; fffffffeH
	push	esi
	call	_lua_setfield

; 168  : 
; 169  : 	RegisterEnum(BUTTONPOPUP_MODDER_0);

	push	83					; 00000053H
	push	esi
	call	_lua_pushinteger
	push	OFFSET $SG220821
	push	-2					; fffffffeH
	push	esi
	call	_lua_setfield
	add	esp, 72					; 00000048H

; 170  : 	RegisterEnum(BUTTONPOPUP_MODDER_1);

	push	84					; 00000054H
	push	esi
	call	_lua_pushinteger
	push	OFFSET $SG220822
	push	-2					; fffffffeH
	push	esi
	call	_lua_setfield

; 171  : 	RegisterEnum(BUTTONPOPUP_MODDER_2);

	push	85					; 00000055H
	push	esi
	call	_lua_pushinteger
	push	OFFSET $SG220823
	push	-2					; fffffffeH
	push	esi
	call	_lua_setfield

; 172  : 	RegisterEnum(BUTTONPOPUP_MODDER_3);

	push	86					; 00000056H
	push	esi
	call	_lua_pushinteger
	push	OFFSET $SG220824
	push	-2					; fffffffeH
	push	esi
	call	_lua_setfield

; 173  : 	RegisterEnum(BUTTONPOPUP_MODDER_4);

	push	87					; 00000057H
	push	esi
	call	_lua_pushinteger
	add	esp, 68					; 00000044H
	push	OFFSET $SG220825
	push	-2					; fffffffeH
	push	esi
	call	_lua_setfield

; 174  : 	RegisterEnum(BUTTONPOPUP_MODDER_5);

	push	88					; 00000058H
	push	esi
	call	_lua_pushinteger
	push	OFFSET $SG220826
	push	-2					; fffffffeH
	push	esi
	call	_lua_setfield

; 175  : 	RegisterEnum(BUTTONPOPUP_MODDER_6);

	push	89					; 00000059H
	push	esi
	call	_lua_pushinteger
	push	OFFSET $SG220827
	push	-2					; fffffffeH
	push	esi
	call	_lua_setfield

; 176  : 	RegisterEnum(BUTTONPOPUP_MODDER_7);

	push	90					; 0000005aH
	push	esi
	call	_lua_pushinteger
	push	OFFSET $SG220828
	push	-2					; fffffffeH
	push	esi
	call	_lua_setfield
	add	esp, 72					; 00000048H

; 177  : 	RegisterEnum(BUTTONPOPUP_MODDER_8);

	push	91					; 0000005bH
	push	esi
	call	_lua_pushinteger
	push	OFFSET $SG220829
	push	-2					; fffffffeH
	push	esi
	call	_lua_setfield

; 178  : 	RegisterEnum(BUTTONPOPUP_MODDER_9);

	push	92					; 0000005cH
	push	esi
	call	_lua_pushinteger
	push	OFFSET $SG220830
	push	-2					; fffffffeH
	push	esi
	call	_lua_setfield

; 179  : 	RegisterEnum(BUTTONPOPUP_MODDER_10);

	push	93					; 0000005dH
	push	esi
	call	_lua_pushinteger
	push	OFFSET $SG220831
	push	-2					; fffffffeH
	push	esi
	call	_lua_setfield

; 180  : 	RegisterEnum(BUTTONPOPUP_MODDER_11);

	push	94					; 0000005eH
	push	esi
	call	_lua_pushinteger
	add	esp, 68					; 00000044H
	push	OFFSET $SG220832
	push	-2					; fffffffeH
	push	esi
	call	_lua_setfield

; 181  : 
; 182  : 	RegisterEnum(BUTTONPOPUP_LEAGUE_OVERVIEW);

	push	1104213538				; 41d0f622H
	push	esi
	call	_lua_pushinteger
	push	OFFSET $SG220834
	push	-2					; fffffffeH
	push	esi
	call	_lua_setfield

; 183  : 	RegisterEnum(BUTTONPOPUP_DECLAREWAR_PLUNDER_TRADE_ROUTE);

	push	-55246417				; fcb501afH
	push	esi
	call	_lua_pushinteger
	push	OFFSET $SG220836
	push	-2					; fffffffeH
	push	esi
	call	_lua_setfield

; 184  : 	RegisterEnum(BUTTONPOPUP_CHOOSE_ARCHAEOLOGY);

	push	122879934				; 0752ffbeH
	push	esi
	call	_lua_pushinteger
	push	OFFSET $SG220838
	push	-2					; fffffffeH
	push	esi
	call	_lua_setfield
	add	esp, 72					; 00000048H

; 185  : 	RegisterEnum(BUTTONPOPUP_CHOOSE_IDEOLOGY);

	push	-167467402				; f604a676H
	push	esi
	call	_lua_pushinteger
	push	OFFSET $SG220840
	push	-2					; fffffffeH
	push	esi
	call	_lua_setfield

; 186  : 	RegisterEnum(BUTTONPOPUP_CHOOSE_INTERNATIONAL_TRADE_ROUTE);

	push	-1844619060				; 920d58ccH
	push	esi
	call	_lua_pushinteger
	push	OFFSET $SG220842
	push	-2					; fffffffeH
	push	esi
	call	_lua_setfield

; 187  : 	RegisterEnum(BUTTONPOPUP_CULTURE_OVERVIEW);

	push	-401251415				; e81563a9H
	push	esi
	call	_lua_pushinteger
	push	OFFSET $SG220844
	push	-2					; fffffffeH
	push	esi
	call	_lua_setfield

; 188  : 	RegisterEnum(BUTTONPOPUP_CHOOSE_TRADE_UNIT_NEW_HOME);

	push	280858127				; 10bd8e0fH
	push	esi
	call	_lua_pushinteger
	add	esp, 68					; 00000044H
	push	OFFSET $SG220846
	push	-2					; fffffffeH
	push	esi
	call	_lua_setfield

; 189  : 	RegisterEnum(BUTTONPOPUP_GREAT_WORK_COMPLETED_ACTIVE_PLAYER);

	push	1031589465				; 3d7cce59H
	push	esi
	call	_lua_pushinteger
	push	OFFSET $SG220848
	push	-2					; fffffffeH
	push	esi
	call	_lua_setfield

; 190  : 	RegisterEnum(BUTTONPOPUP_TRADE_ROUTE_OVERVIEW);

	push	2099480669				; 7d23885dH
	push	esi
	call	_lua_pushinteger
	push	OFFSET $SG220850
	push	-2					; fffffffeH
	push	esi
	call	_lua_setfield

; 191  : 	RegisterEnum(BUTTONPOPUP_LEAGUE_PROJECT_COMPLETED);

	push	-895157342				; caa4fba2H
	push	esi
	call	_lua_pushinteger
	push	OFFSET $SG220852
	push	-2					; fffffffeH
	push	esi
	call	_lua_setfield
	add	esp, 72					; 00000048H

; 192  : 	RegisterEnum(BUTTONPOPUP_CHOOSE_GOODY_HUT_REWARD);

	push	-12506513				; ff412a6fH
	push	esi
	call	_lua_pushinteger
	push	OFFSET $SG220854
	push	-2					; fffffffeH
	push	esi
	call	_lua_setfield

; 193  : 	RegisterEnum(BUTTONPOPUP_LEAGUE_SPLASH);

	push	-1522614506				; a53ebf16H
	push	esi
	call	_lua_pushinteger
	push	OFFSET $SG220856
	push	-2					; fffffffeH
	push	esi
	call	_lua_setfield

; 194  : 	RegisterEnum(BUTTONPOPUP_CHOOSE_ADMIRAL_PORT);

	push	1293627772				; 4d1b317cH
	push	esi
	call	_lua_pushinteger
	push	OFFSET $SG220858
	push	-2					; fffffffeH
	push	esi
	call	_lua_setfield

; 195  : 
; 196  : 	EnumEnd(L);

	push	1
	push	esi
	call	_lua_checkstack
	add	esp, 68					; 00000044H
	push	-2					; fffffffeH
	push	esi
	call	_lua_settop

; 197  : 
; 198  : 
; 199  : 	//YieldTypes
; 200  : 	EnumStart(L, "YieldTypes");

	push	OFFSET $SG220859
	push	-10002					; ffffd8eeH
	push	esi
	call	_lua_getfield
	push	-1
	push	esi
	call	_lua_type
	add	esp, 28					; 0000001cH
	test	eax, eax
	jne	SHORT $LN323@pRegister
	push	-2					; fffffffeH
	push	esi
	call	_lua_settop
	push	0
	push	0
	push	esi
	call	_lua_createtable
	push	-1
	push	esi
	call	_lua_pushvalue
	push	OFFSET $SG220859
	push	-10002					; ffffd8eeH
	push	esi
	call	_lua_setfield
	add	esp, 40					; 00000028H
$LN323@pRegister:

; 201  : 	RegisterEnum(NO_YIELD);

	push	-1
	push	esi
	call	_lua_pushinteger
	push	OFFSET $SG220860
	push	-2					; fffffffeH
	push	esi
	call	_lua_setfield

; 202  : 	RegisterEnum(YIELD_FOOD);

	push	0
	push	esi
	call	_lua_pushinteger
	push	OFFSET $SG220861
	push	-2					; fffffffeH
	push	esi
	call	_lua_setfield

; 203  : 	RegisterEnum(YIELD_PRODUCTION);

	push	1
	push	esi
	call	_lua_pushinteger
	push	OFFSET $SG220862
	push	-2					; fffffffeH
	push	esi
	call	_lua_setfield

; 204  : 	RegisterEnum(YIELD_GOLD);

	push	2
	push	esi
	call	_lua_pushinteger
	add	esp, 68					; 00000044H
	push	OFFSET $SG220863
	push	-2					; fffffffeH
	push	esi
	call	_lua_setfield

; 205  : 	RegisterEnum(YIELD_SCIENCE);

	push	3
	push	esi
	call	_lua_pushinteger
	push	OFFSET $SG220864
	push	-2					; fffffffeH
	push	esi
	call	_lua_setfield

; 206  : 	RegisterEnum(YIELD_CULTURE);

	push	4
	push	esi
	call	_lua_pushinteger
	push	OFFSET $SG220865
	push	-2					; fffffffeH
	push	esi
	call	_lua_setfield

; 207  : 	RegisterEnum(YIELD_FAITH);

	push	5
	push	esi
	call	_lua_pushinteger
	push	OFFSET $SG220866
	push	-2					; fffffffeH
	push	esi
	call	_lua_setfield
	add	esp, 72					; 00000048H

; 208  : 	RegisterEnum(NUM_YIELD_TYPES);

	push	6
	push	esi
	call	_lua_pushinteger
	push	OFFSET $SG220867
	push	-2					; fffffffeH
	push	esi
	call	_lua_setfield

; 209  : 	EnumEnd(L);

	push	1
	push	esi
	call	_lua_checkstack
	push	-2					; fffffffeH
	push	esi
	call	_lua_settop

; 210  : 
; 211  : 	//GameOptionTypes
; 212  : 	EnumStart(L, "GameOptionTypes");

	push	OFFSET $SG220868
	push	-10002					; ffffd8eeH
	push	esi
	call	_lua_getfield
	push	-1
	push	esi
	call	_lua_type
	add	esp, 56					; 00000038H
	test	eax, eax
	jne	SHORT $LN344@pRegister
	push	-2					; fffffffeH
	push	esi
	call	_lua_settop
	push	0
	push	0
	push	esi
	call	_lua_createtable
	push	-1
	push	esi
	call	_lua_pushvalue
	push	OFFSET $SG220868
	push	-10002					; ffffd8eeH
	push	esi
	call	_lua_setfield
	add	esp, 40					; 00000028H
$LN344@pRegister:

; 213  : 	RegisterEnum(NO_GAMEOPTION);

	push	-1
	push	esi
	call	_lua_pushinteger
	push	OFFSET $SG220869
	push	-2					; fffffffeH
	push	esi
	call	_lua_setfield

; 214  : 	RegisterEnum(GAMEOPTION_NO_CITY_RAZING);

	push	0
	push	esi
	call	_lua_pushinteger
	push	OFFSET $SG220870
	push	-2					; fffffffeH
	push	esi
	call	_lua_setfield

; 215  : 	RegisterEnum(GAMEOPTION_NO_BARBARIANS);

	push	1
	push	esi
	call	_lua_pushinteger
	push	OFFSET $SG220871
	push	-2					; fffffffeH
	push	esi
	call	_lua_setfield

; 216  : 	RegisterEnum(GAMEOPTION_RAGING_BARBARIANS);

	push	2
	push	esi
	call	_lua_pushinteger
	add	esp, 68					; 00000044H
	push	OFFSET $SG220872
	push	-2					; fffffffeH
	push	esi
	call	_lua_setfield

; 217  : 	RegisterEnum(GAMEOPTION_ALWAYS_WAR);

	push	3
	push	esi
	call	_lua_pushinteger
	push	OFFSET $SG220873
	push	-2					; fffffffeH
	push	esi
	call	_lua_setfield

; 218  : 	RegisterEnum(GAMEOPTION_ALWAYS_PEACE);

	push	4
	push	esi
	call	_lua_pushinteger
	push	OFFSET $SG220874
	push	-2					; fffffffeH
	push	esi
	call	_lua_setfield

; 219  : 	RegisterEnum(GAMEOPTION_ONE_CITY_CHALLENGE);

	push	5
	push	esi
	call	_lua_pushinteger
	push	OFFSET $SG220875
	push	-2					; fffffffeH
	push	esi
	call	_lua_setfield
	add	esp, 72					; 00000048H

; 220  : 	RegisterEnum(GAMEOPTION_NO_CHANGING_WAR_PEACE);

	push	6
	push	esi
	call	_lua_pushinteger
	push	OFFSET $SG220876
	push	-2					; fffffffeH
	push	esi
	call	_lua_setfield

; 221  : 	RegisterEnum(GAMEOPTION_NEW_RANDOM_SEED);

	push	7
	push	esi
	call	_lua_pushinteger
	push	OFFSET $SG220877
	push	-2					; fffffffeH
	push	esi
	call	_lua_setfield

; 222  : 	RegisterEnum(GAMEOPTION_LOCK_MODS);

	push	8
	push	esi
	call	_lua_pushinteger
	push	OFFSET $SG220878
	push	-2					; fffffffeH
	push	esi
	call	_lua_setfield

; 223  : 	RegisterEnum(GAMEOPTION_COMPLETE_KILLS);

	push	9
	push	esi
	call	_lua_pushinteger
	add	esp, 68					; 00000044H
	push	OFFSET $SG220879
	push	-2					; fffffffeH
	push	esi
	call	_lua_setfield

; 224  : 	RegisterEnum(GAMEOPTION_NO_GOODY_HUTS);

	push	10					; 0000000aH
	push	esi
	call	_lua_pushinteger
	push	OFFSET $SG220880
	push	-2					; fffffffeH
	push	esi
	call	_lua_setfield

; 225  : 	RegisterEnum(GAMEOPTION_RANDOM_PERSONALITIES);

	push	11					; 0000000bH
	push	esi
	call	_lua_pushinteger
	push	OFFSET $SG220881
	push	-2					; fffffffeH
	push	esi
	call	_lua_setfield

; 226  : 	RegisterEnum(GAMEOPTION_POLICY_SAVING);

	push	12					; 0000000cH
	push	esi
	call	_lua_pushinteger
	push	OFFSET $SG220882
	push	-2					; fffffffeH
	push	esi
	call	_lua_setfield
	add	esp, 72					; 00000048H

; 227  : 	RegisterEnum(GAMEOPTION_PROMOTION_SAVING);

	push	13					; 0000000dH
	push	esi
	call	_lua_pushinteger
	push	OFFSET $SG220883
	push	-2					; fffffffeH
	push	esi
	call	_lua_setfield

; 228  : 	RegisterEnum(GAMEOPTION_END_TURN_TIMER_ENABLED);

	push	14					; 0000000eH
	push	esi
	call	_lua_pushinteger
	push	OFFSET $SG220884
	push	-2					; fffffffeH
	push	esi
	call	_lua_setfield

; 229  : 	RegisterEnum(GAMEOPTION_QUICK_COMBAT);

	push	15					; 0000000fH
	push	esi
	call	_lua_pushinteger
	push	OFFSET $SG220885
	push	-2					; fffffffeH
	push	esi
	call	_lua_setfield

; 230  : 	RegisterEnum(GAMEOPTION_DISABLE_START_BIAS);

	push	16					; 00000010H
	push	esi
	call	_lua_pushinteger
	add	esp, 68					; 00000044H
	push	OFFSET $SG220886
	push	-2					; fffffffeH
	push	esi
	call	_lua_setfield

; 231  : 	RegisterEnum(GAMEOPTION_NO_SCIENCE);

	push	17					; 00000011H
	push	esi
	call	_lua_pushinteger
	push	OFFSET $SG220887
	push	-2					; fffffffeH
	push	esi
	call	_lua_setfield

; 232  : 	RegisterEnum(GAMEOPTION_NO_POLICIES);

	push	18					; 00000012H
	push	esi
	call	_lua_pushinteger
	push	OFFSET $SG220888
	push	-2					; fffffffeH
	push	esi
	call	_lua_setfield

; 233  : 	RegisterEnum(GAMEOPTION_NO_HAPPINESS);

	push	19					; 00000013H
	push	esi
	call	_lua_pushinteger
	push	OFFSET $SG220889
	push	-2					; fffffffeH
	push	esi
	call	_lua_setfield
	add	esp, 72					; 00000048H

; 234  : 	RegisterEnum(GAMEOPTION_NO_TUTORIAL);

	push	20					; 00000014H
	push	esi
	call	_lua_pushinteger
	push	OFFSET $SG220890
	push	-2					; fffffffeH
	push	esi
	call	_lua_setfield

; 235  : 	RegisterEnum(GAMEOPTION_NO_RELIGION);

	push	21					; 00000015H
	push	esi
	call	_lua_pushinteger
	push	OFFSET $SG220891
	push	-2					; fffffffeH
	push	esi
	call	_lua_setfield

; 236  : 	RegisterEnum(NUM_GAMEOPTION_TYPES);

	push	22					; 00000016H
	push	esi
	call	_lua_pushinteger
	push	OFFSET $SG220892
	push	-2					; fffffffeH
	push	esi
	call	_lua_setfield

; 237  : 
; 238  : 
; 239  : 	//DomainTypes
; 240  : 	EnumStart(L, "DomainTypes");

	push	OFFSET $SG220893
	push	-10002					; ffffd8eeH
	push	esi
	call	_lua_getfield
	add	esp, 72					; 00000048H
	push	-1
	push	esi
	call	_lua_type
	add	esp, 8
	test	eax, eax
	jne	SHORT $LN395@pRegister
	push	-2					; fffffffeH
	push	esi
	call	_lua_settop
	push	0
	push	0
	push	esi
	call	_lua_createtable
	push	-1
	push	esi
	call	_lua_pushvalue
	push	OFFSET $SG220893
	push	-10002					; ffffd8eeH
	push	esi
	call	_lua_setfield
	add	esp, 40					; 00000028H
$LN395@pRegister:

; 241  : 	RegisterEnum(NO_DOMAIN);

	push	-1
	push	esi
	call	_lua_pushinteger
	push	OFFSET $SG220894
	push	-2					; fffffffeH
	push	esi
	call	_lua_setfield

; 242  : 	RegisterEnum(DOMAIN_SEA);

	push	0
	push	esi
	call	_lua_pushinteger
	push	OFFSET $SG220895
	push	-2					; fffffffeH
	push	esi
	call	_lua_setfield

; 243  : 	RegisterEnum(DOMAIN_AIR);

	push	1
	push	esi
	call	_lua_pushinteger
	push	OFFSET $SG220896
	push	-2					; fffffffeH
	push	esi
	call	_lua_setfield

; 244  : 	RegisterEnum(DOMAIN_LAND);

	push	2
	push	esi
	call	_lua_pushinteger
	add	esp, 68					; 00000044H
	push	OFFSET $SG220897
	push	-2					; fffffffeH
	push	esi
	call	_lua_setfield

; 245  : 	RegisterEnum(DOMAIN_IMMOBILE);

	push	3
	push	esi
	call	_lua_pushinteger
	push	OFFSET $SG220898
	push	-2					; fffffffeH
	push	esi
	call	_lua_setfield

; 246  : 	RegisterEnum(DOMAIN_HOVER);

	push	4
	push	esi
	call	_lua_pushinteger
	push	OFFSET $SG220899
	push	-2					; fffffffeH
	push	esi
	call	_lua_setfield

; 247  : 	RegisterEnum(NUM_DOMAIN_TYPES);

	push	5
	push	esi
	call	_lua_pushinteger
	push	OFFSET $SG220900
	push	-2					; fffffffeH
	push	esi
	call	_lua_setfield
	add	esp, 72					; 00000048H

; 248  : 	EnumEnd(L);

	push	1
	push	esi
	call	_lua_checkstack
	push	-2					; fffffffeH
	push	esi
	call	_lua_settop

; 249  : 
; 250  : 	//FeatureTypes
; 251  : 	EnumStart(L, "FeatureTypes");

	push	OFFSET $SG220901
	push	-10002					; ffffd8eeH
	push	esi
	call	_lua_getfield
	push	-1
	push	esi
	call	_lua_type
	add	esp, 36					; 00000024H
	test	eax, eax
	jne	SHORT $LN414@pRegister
	push	-2					; fffffffeH
	push	esi
	call	_lua_settop
	push	0
	push	0
	push	esi
	call	_lua_createtable
	push	-1
	push	esi
	call	_lua_pushvalue
	push	OFFSET $SG220901
	push	-10002					; ffffd8eeH
	push	esi
	call	_lua_setfield
	add	esp, 40					; 00000028H
$LN414@pRegister:

; 252  : 	RegisterEnum(NO_FEATURE);

	push	-1
	push	esi
	call	_lua_pushinteger
	push	OFFSET $SG220902
	push	-2					; fffffffeH
	push	esi
	call	_lua_setfield

; 253  : 	RegisterEnum(FEATURE_ICE);

	push	0
	push	esi
	call	_lua_pushinteger
	push	OFFSET $SG220903
	push	-2					; fffffffeH
	push	esi
	call	_lua_setfield

; 254  : 	RegisterEnum(FEATURE_JUNGLE);

	push	1
	push	esi
	call	_lua_pushinteger
	push	OFFSET $SG220904
	push	-2					; fffffffeH
	push	esi
	call	_lua_setfield

; 255  : 	RegisterEnum(FEATURE_MARSH);

	push	2
	push	esi
	call	_lua_pushinteger
	add	esp, 68					; 00000044H
	push	OFFSET $SG220905
	push	-2					; fffffffeH
	push	esi
	call	_lua_setfield

; 256  : 	RegisterEnum(FEATURE_OASIS);

	push	3
	push	esi
	call	_lua_pushinteger
	push	OFFSET $SG220906
	push	-2					; fffffffeH
	push	esi
	call	_lua_setfield

; 257  : 	RegisterEnum(FEATURE_FLOOD_PLAINS);

	push	4
	push	esi
	call	_lua_pushinteger
	push	OFFSET $SG220907
	push	-2					; fffffffeH
	push	esi
	call	_lua_setfield

; 258  : 	RegisterEnum(FEATURE_FOREST);

	push	5
	push	esi
	call	_lua_pushinteger
	push	OFFSET $SG220908
	push	-2					; fffffffeH
	push	esi
	call	_lua_setfield
	add	esp, 72					; 00000048H

; 259  : 	RegisterEnum(FEATURE_FALLOUT);

	push	6
	push	esi
	call	_lua_pushinteger
	push	OFFSET $SG220909
	push	-2					; fffffffeH
	push	esi
	call	_lua_setfield

; 260  : 	RegisterEnum(NUM_FEATURE_TYPES);

	push	8
	push	esi
	call	_lua_pushinteger
	push	OFFSET $SG220910
	push	-2					; fffffffeH
	push	esi
	call	_lua_setfield

; 261  : 	EnumEnd(L);

	push	1
	push	esi
	call	_lua_checkstack
	push	-2					; fffffffeH
	push	esi
	call	_lua_settop

; 262  : 
; 263  : 	//FogOfWarModeTypes
; 264  : 	EnumStart(L, "FogOfWarModeTypes");

	push	OFFSET $SG220911
	push	-10002					; ffffd8eeH
	push	esi
	call	_lua_getfield
	add	esp, 68					; 00000044H
	push	-1
	push	esi
	call	_lua_type
	add	esp, 8
	test	eax, eax
	jne	SHORT $LN437@pRegister
	push	-2					; fffffffeH
	push	esi
	call	_lua_settop
	push	0
	push	0
	push	esi
	call	_lua_createtable
	push	-1
	push	esi
	call	_lua_pushvalue
	push	OFFSET $SG220911
	push	-10002					; ffffd8eeH
	push	esi
	call	_lua_setfield
	add	esp, 40					; 00000028H
$LN437@pRegister:

; 265  : 	RegisterEnum(FOGOFWARMODE_OFF);

	push	0
	push	esi
	call	_lua_pushinteger
	push	OFFSET $SG220912
	push	-2					; fffffffeH
	push	esi
	call	_lua_setfield

; 266  : 	RegisterEnum(FOGOFWARMODE_NOVIS);

	push	2
	push	esi
	call	_lua_pushinteger
	push	OFFSET $SG220913
	push	-2					; fffffffeH
	push	esi
	call	_lua_setfield

; 267  : 	RegisterEnum(FOGOFWARMODE_UNEXPLORED);

	push	1
	push	esi
	call	_lua_pushinteger
	push	OFFSET $SG220914
	push	-2					; fffffffeH
	push	esi
	call	_lua_setfield

; 268  : 	EnumEnd(L);

	push	1
	push	esi
	call	_lua_checkstack
	add	esp, 68					; 00000044H
	push	-2					; fffffffeH
	push	esi
	call	_lua_settop

; 269  : 
; 270  : 	EnumStart(L, "OrderTypes");

	push	OFFSET $SG220915
	push	-10002					; ffffd8eeH
	push	esi
	call	_lua_getfield
	push	-1
	push	esi
	call	_lua_type
	add	esp, 28					; 0000001cH
	test	eax, eax
	jne	SHORT $LN448@pRegister
	push	-2					; fffffffeH
	push	esi
	call	_lua_settop
	push	0
	push	0
	push	esi
	call	_lua_createtable
	push	-1
	push	esi
	call	_lua_pushvalue
	push	OFFSET $SG220915
	push	-10002					; ffffd8eeH
	push	esi
	call	_lua_setfield
	add	esp, 40					; 00000028H
$LN448@pRegister:

; 271  : 	RegisterEnum(NO_ORDER);

	push	-1
	push	esi
	call	_lua_pushinteger
	push	OFFSET $SG220916
	push	-2					; fffffffeH
	push	esi
	call	_lua_setfield

; 272  : 	RegisterEnum(ORDER_TRAIN);

	push	0
	push	esi
	call	_lua_pushinteger
	push	OFFSET $SG220917
	push	-2					; fffffffeH
	push	esi
	call	_lua_setfield

; 273  : 	RegisterEnum(ORDER_CONSTRUCT);

	push	1
	push	esi
	call	_lua_pushinteger
	push	OFFSET $SG220918
	push	-2					; fffffffeH
	push	esi
	call	_lua_setfield

; 274  : 	RegisterEnum(ORDER_CREATE);

	push	2
	push	esi
	call	_lua_pushinteger
	add	esp, 68					; 00000044H
	push	OFFSET $SG220919
	push	-2					; fffffffeH
	push	esi
	call	_lua_setfield

; 275  : 	RegisterEnum(ORDER_PREPARE);

	push	3
	push	esi
	call	_lua_pushinteger
	push	OFFSET $SG220920
	push	-2					; fffffffeH
	push	esi
	call	_lua_setfield

; 276  : 	RegisterEnum(ORDER_MAINTAIN);

	push	4
	push	esi
	call	_lua_pushinteger
	push	OFFSET $SG220921
	push	-2					; fffffffeH
	push	esi
	call	_lua_setfield

; 277  : 	RegisterEnum(NUM_ORDER_TYPES);

	push	5
	push	esi
	call	_lua_pushinteger
	push	OFFSET $SG220922
	push	-2					; fffffffeH
	push	esi
	call	_lua_setfield
	add	esp, 72					; 00000048H

; 278  : 	EnumEnd(L);

	push	1
	push	esi
	call	_lua_checkstack
	push	-2					; fffffffeH
	push	esi
	call	_lua_settop

; 279  : 
; 280  : 	//PlotTypes
; 281  : 	EnumStart(L, "PlotTypes");

	push	OFFSET $SG220923
	push	-10002					; ffffd8eeH
	push	esi
	call	_lua_getfield
	push	-1
	push	esi
	call	_lua_type
	add	esp, 36					; 00000024H
	test	eax, eax
	jne	SHORT $LN467@pRegister
	push	-2					; fffffffeH
	push	esi
	call	_lua_settop
	push	0
	push	0
	push	esi
	call	_lua_createtable
	push	-1
	push	esi
	call	_lua_pushvalue
	push	OFFSET $SG220923
	push	-10002					; ffffd8eeH
	push	esi
	call	_lua_setfield
	add	esp, 40					; 00000028H
$LN467@pRegister:

; 282  : 	RegisterEnum(NO_PLOT);

	push	-1
	push	esi
	call	_lua_pushinteger
	push	OFFSET $SG220924
	push	-2					; fffffffeH
	push	esi
	call	_lua_setfield

; 283  : 	RegisterEnum(PLOT_MOUNTAIN);

	push	0
	push	esi
	call	_lua_pushinteger
	push	OFFSET $SG220925
	push	-2					; fffffffeH
	push	esi
	call	_lua_setfield

; 284  : 	RegisterEnum(PLOT_HILLS);

	push	1
	push	esi
	call	_lua_pushinteger
	push	OFFSET $SG220926
	push	-2					; fffffffeH
	push	esi
	call	_lua_setfield

; 285  : 	RegisterEnum(PLOT_LAND);

	push	2
	push	esi
	call	_lua_pushinteger
	add	esp, 68					; 00000044H
	push	OFFSET $SG220927
	push	-2					; fffffffeH
	push	esi
	call	_lua_setfield

; 286  : 	RegisterEnum(PLOT_OCEAN);

	push	3
	push	esi
	call	_lua_pushinteger
	push	OFFSET $SG220928
	push	-2					; fffffffeH
	push	esi
	call	_lua_setfield

; 287  : 	RegisterEnum(NUM_PLOT_TYPES);

	push	4
	push	esi
	call	_lua_pushinteger
	push	OFFSET $SG220929
	push	-2					; fffffffeH
	push	esi
	call	_lua_setfield

; 288  : 	EnumEnd(L);

	push	1
	push	esi
	call	_lua_checkstack
	push	-2					; fffffffeH
	push	esi
	call	_lua_settop
	add	esp, 68					; 00000044H

; 289  : 
; 290  : 	//TerrainTypes
; 291  : 	EnumStart(L, "TerrainTypes");

	push	OFFSET $SG220930
	push	-10002					; ffffd8eeH
	push	esi
	call	_lua_getfield
	push	-1
	push	esi
	call	_lua_type
	add	esp, 20					; 00000014H
	test	eax, eax
	jne	SHORT $LN484@pRegister
	push	-2					; fffffffeH
	push	esi
	call	_lua_settop
	push	0
	push	0
	push	esi
	call	_lua_createtable
	push	-1
	push	esi
	call	_lua_pushvalue
	push	OFFSET $SG220930
	push	-10002					; ffffd8eeH
	push	esi
	call	_lua_setfield
	add	esp, 40					; 00000028H
$LN484@pRegister:

; 292  : 	RegisterEnum(NO_TERRAIN);

	push	-1
	push	esi
	call	_lua_pushinteger
	push	OFFSET $SG220931
	push	-2					; fffffffeH
	push	esi
	call	_lua_setfield

; 293  : 	RegisterEnum(TERRAIN_GRASS);

	push	0
	push	esi
	call	_lua_pushinteger
	push	OFFSET $SG220932
	push	-2					; fffffffeH
	push	esi
	call	_lua_setfield

; 294  : 	RegisterEnum(TERRAIN_PLAINS);

	push	1
	push	esi
	call	_lua_pushinteger
	push	OFFSET $SG220933
	push	-2					; fffffffeH
	push	esi
	call	_lua_setfield

; 295  : 	RegisterEnum(TERRAIN_DESERT);

	push	2
	push	esi
	call	_lua_pushinteger
	add	esp, 68					; 00000044H
	push	OFFSET $SG220934
	push	-2					; fffffffeH
	push	esi
	call	_lua_setfield

; 296  : 	RegisterEnum(TERRAIN_TUNDRA);

	push	3
	push	esi
	call	_lua_pushinteger
	push	OFFSET $SG220935
	push	-2					; fffffffeH
	push	esi
	call	_lua_setfield

; 297  : 	RegisterEnum(TERRAIN_SNOW);

	push	4
	push	esi
	call	_lua_pushinteger
	push	OFFSET $SG220936
	push	-2					; fffffffeH
	push	esi
	call	_lua_setfield

; 298  : 	RegisterEnum(TERRAIN_COAST);

	push	5
	push	esi
	call	_lua_pushinteger
	push	OFFSET $SG220937
	push	-2					; fffffffeH
	push	esi
	call	_lua_setfield
	add	esp, 72					; 00000048H

; 299  : 	RegisterEnum(TERRAIN_OCEAN);

	push	6
	push	esi
	call	_lua_pushinteger
	push	OFFSET $SG220938
	push	-2					; fffffffeH
	push	esi
	call	_lua_setfield

; 300  : 	RegisterEnum(TERRAIN_MOUNTAIN);

	push	7
	push	esi
	call	_lua_pushinteger
	push	OFFSET $SG220939
	push	-2					; fffffffeH
	push	esi
	call	_lua_setfield

; 301  : 	RegisterEnum(TERRAIN_HILL);

	push	8
	push	esi
	call	_lua_pushinteger
	push	OFFSET $SG220940
	push	-2					; fffffffeH
	push	esi
	call	_lua_setfield

; 302  : 	RegisterEnum(NUM_TERRAIN_TYPES);

	push	9
	push	esi
	call	_lua_pushinteger
	add	esp, 68					; 00000044H
	push	OFFSET $SG220941
	push	-2					; fffffffeH
	push	esi
	call	_lua_setfield

; 303  : 	EnumEnd(L);

	push	1
	push	esi
	call	_lua_checkstack
	push	-2					; fffffffeH
	push	esi
	call	_lua_settop

; 304  : 
; 305  : 	//InterfaceModeTypes
; 306  : 	EnumStart(L, "InterfaceModeTypes");

	push	OFFSET $SG220942
	push	-10002					; ffffd8eeH
	push	esi
	call	_lua_getfield
	push	-1
	push	esi
	call	_lua_type
	add	esp, 48					; 00000030H
	test	eax, eax
	jne	SHORT $LN511@pRegister
	push	-2					; fffffffeH
	push	esi
	call	_lua_settop
	push	0
	push	0
	push	esi
	call	_lua_createtable
	push	-1
	push	esi
	call	_lua_pushvalue
	push	OFFSET $SG220942
	push	-10002					; ffffd8eeH
	push	esi
	call	_lua_setfield
	add	esp, 40					; 00000028H
$LN511@pRegister:

; 307  : 	RegisterEnum(NO_INTERFACEMODE);

	push	-1
	push	esi
	call	_lua_pushinteger
	push	OFFSET $SG220943
	push	-2					; fffffffeH
	push	esi
	call	_lua_setfield

; 308  : 	RegisterEnum(INTERFACEMODE_DEBUG);

	push	0
	push	esi
	call	_lua_pushinteger
	push	OFFSET $SG220944
	push	-2					; fffffffeH
	push	esi
	call	_lua_setfield

; 309  : 	RegisterEnum(INTERFACEMODE_SELECTION);

	push	1
	push	esi
	call	_lua_pushinteger
	push	OFFSET $SG220945
	push	-2					; fffffffeH
	push	esi
	call	_lua_setfield

; 310  : 	RegisterEnum(INTERFACEMODE_PING);

	push	2
	push	esi
	call	_lua_pushinteger
	add	esp, 68					; 00000044H
	push	OFFSET $SG220946
	push	-2					; fffffffeH
	push	esi
	call	_lua_setfield

; 311  : 	RegisterEnum(INTERFACEMODE_MOVE_TO);

	push	3
	push	esi
	call	_lua_pushinteger
	push	OFFSET $SG220947
	push	-2					; fffffffeH
	push	esi
	call	_lua_setfield

; 312  : 	RegisterEnum(INTERFACEMODE_MOVE_TO_TYPE);

	push	4
	push	esi
	call	_lua_pushinteger
	push	OFFSET $SG220948
	push	-2					; fffffffeH
	push	esi
	call	_lua_setfield

; 313  : 	RegisterEnum(INTERFACEMODE_MOVE_TO_ALL);

	push	5
	push	esi
	call	_lua_pushinteger
	push	OFFSET $SG220949
	push	-2					; fffffffeH
	push	esi
	call	_lua_setfield
	add	esp, 72					; 00000048H

; 314  : 	RegisterEnum(INTERFACEMODE_ROUTE_TO);

	push	6
	push	esi
	call	_lua_pushinteger
	push	OFFSET $SG220950
	push	-2					; fffffffeH
	push	esi
	call	_lua_setfield

; 315  : 	RegisterEnum(INTERFACEMODE_AIRLIFT);

	push	7
	push	esi
	call	_lua_pushinteger
	push	OFFSET $SG220951
	push	-2					; fffffffeH
	push	esi
	call	_lua_setfield

; 316  : 	RegisterEnum(INTERFACEMODE_NUKE);

	push	8
	push	esi
	call	_lua_pushinteger
	push	OFFSET $SG220952
	push	-2					; fffffffeH
	push	esi
	call	_lua_setfield

; 317  : 	RegisterEnum(INTERFACEMODE_PARADROP);

	push	9
	push	esi
	call	_lua_pushinteger
	add	esp, 68					; 00000044H
	push	OFFSET $SG220953
	push	-2					; fffffffeH
	push	esi
	call	_lua_setfield

; 318  : 	RegisterEnum(INTERFACEMODE_ATTACK);

	push	10					; 0000000aH
	push	esi
	call	_lua_pushinteger
	push	OFFSET $SG220954
	push	-2					; fffffffeH
	push	esi
	call	_lua_setfield

; 319  : 	RegisterEnum(INTERFACEMODE_RANGE_ATTACK);

	push	11					; 0000000bH
	push	esi
	call	_lua_pushinteger
	push	OFFSET $SG220955
	push	-2					; fffffffeH
	push	esi
	call	_lua_setfield

; 320  : 	RegisterEnum(INTERFACEMODE_AIRSTRIKE);

	push	12					; 0000000cH
	push	esi
	call	_lua_pushinteger
	push	OFFSET $SG220956
	push	-2					; fffffffeH
	push	esi
	call	_lua_setfield
	add	esp, 72					; 00000048H

; 321  : 	RegisterEnum(INTERFACEMODE_AIR_SWEEP);

	push	13					; 0000000dH
	push	esi
	call	_lua_pushinteger
	push	OFFSET $SG220957
	push	-2					; fffffffeH
	push	esi
	call	_lua_setfield

; 322  : 	RegisterEnum(INTERFACEMODE_REBASE);

	push	14					; 0000000eH
	push	esi
	call	_lua_pushinteger
	push	OFFSET $SG220958
	push	-2					; fffffffeH
	push	esi
	call	_lua_setfield

; 323  : 	RegisterEnum(INTERFACEMODE_PLACE_UNIT);

	push	15					; 0000000fH
	push	esi
	call	_lua_pushinteger
	push	OFFSET $SG220959
	push	-2					; fffffffeH
	push	esi
	call	_lua_setfield

; 324  : 	RegisterEnum(INTERFACEMODE_EMBARK);

	push	16					; 00000010H
	push	esi
	call	_lua_pushinteger
	add	esp, 68					; 00000044H
	push	OFFSET $SG220960
	push	-2					; fffffffeH
	push	esi
	call	_lua_setfield

; 325  : 	RegisterEnum(INTERFACEMODE_DISEMBARK);

	push	17					; 00000011H
	push	esi
	call	_lua_pushinteger
	push	OFFSET $SG220961
	push	-2					; fffffffeH
	push	esi
	call	_lua_setfield

; 326  : 	RegisterEnum(INTERFACEMODE_GIFT_UNIT);

	push	18					; 00000012H
	push	esi
	call	_lua_pushinteger
	push	OFFSET $SG220962
	push	-2					; fffffffeH
	push	esi
	call	_lua_setfield

; 327  : 	RegisterEnum(INTERFACEMODE_CITY_PLOT_SELECTION);

	push	19					; 00000013H
	push	esi
	call	_lua_pushinteger
	push	OFFSET $SG220963
	push	-2					; fffffffeH
	push	esi
	call	_lua_setfield
	add	esp, 72					; 00000048H

; 328  : 	RegisterEnum(INTERFACEMODE_PURCHASE_PLOT);

	push	20					; 00000014H
	push	esi
	call	_lua_pushinteger
	push	OFFSET $SG220964
	push	-2					; fffffffeH
	push	esi
	call	_lua_setfield

; 329  : 	RegisterEnum(INTERFACEMODE_CITY_RANGE_ATTACK);

	push	21					; 00000015H
	push	esi
	call	_lua_pushinteger
	push	OFFSET $SG220965
	push	-2					; fffffffeH
	push	esi
	call	_lua_setfield

; 330  : 	RegisterEnum(INTERFACEMODE_GIFT_TILE_IMPROVEMENT);

	push	22					; 00000016H
	push	esi
	call	_lua_pushinteger
	push	OFFSET $SG220966
	push	-2					; fffffffeH
	push	esi
	call	_lua_setfield

; 331  : 	RegisterEnum(INTERFACEMODE_ESTABLISH_TRADE_ROUTE);

	push	23					; 00000017H
	push	esi
	call	_lua_pushinteger
	add	esp, 68					; 00000044H
	push	OFFSET $SG220967
	push	-2					; fffffffeH
	push	esi
	call	_lua_setfield

; 332  : 	RegisterEnum(NUM_INTERFACEMODE_TYPES);

	push	24					; 00000018H
	push	esi
	call	_lua_pushinteger
	push	OFFSET $SG220968
	push	-2					; fffffffeH
	push	esi
	call	_lua_setfield

; 333  : 	EnumEnd(L);

	push	1
	push	esi
	call	_lua_checkstack
	push	-2					; fffffffeH
	push	esi
	call	_lua_settop

; 334  : 
; 335  : 	EnumStart(L, "NotificationTypes");

	push	OFFSET $SG220969
	push	-10002					; ffffd8eeH
	push	esi
	call	_lua_getfield
	push	-1
	push	esi
	call	_lua_type
	add	esp, 68					; 00000044H
	test	eax, eax
	jne	SHORT $LN568@pRegister
	push	-2					; fffffffeH
	push	esi
	call	_lua_settop
	push	0
	push	0
	push	esi
	call	_lua_createtable
	push	-1
	push	esi
	call	_lua_pushvalue
	push	OFFSET $SG220969
	push	-10002					; ffffd8eeH
	push	esi
	call	_lua_setfield
	add	esp, 40					; 00000028H
$LN568@pRegister:
	push	edi

; 336  : 	CvNotificationXMLEntries* pkNotifications = GC.GetNotificationEntries();

	mov	ecx, OFFSET ?gGlobals@@3VCvGlobals@@A	; gGlobals
	call	?GetNotificationEntries@CvGlobals@@QAEPAVCvNotificationXMLEntries@@XZ ; CvGlobals::GetNotificationEntries
	mov	edi, eax
	mov	DWORD PTR _pkNotifications$[esp+12], edi

; 337  : 	if (pkNotifications)

	test	edi, edi
	je	SHORT $LN2@pRegister
	push	ebp

; 338  : 	{
; 339  : #ifdef AUI_WARNING_FIXES
; 340  : 		for (uint i = 0; i < pkNotifications->GetNumNotifications(); ++i)
; 341  : #else
; 342  : 		for (int i = 0; i < pkNotifications->GetNumNotifications(); ++i)

	mov	ecx, edi
	xor	ebp, ebp
	call	?GetNumNotifications@CvNotificationXMLEntries@@QAEHXZ ; CvNotificationXMLEntries::GetNumNotifications
	test	eax, eax
	jle	SHORT $LN1715@pRegister
	push	ebx
	npad	4
$LL4@pRegister:

; 343  : #endif
; 344  : 		{
; 345  : 			CvNotificationEntry* pkEntry = pkNotifications->GetEntry(i);		

	push	ebp
	mov	ecx, edi
	call	?GetEntry@CvNotificationXMLEntries@@QAEPAVCvNotificationEntry@@H@Z ; CvNotificationXMLEntries::GetEntry
	mov	ebx, eax

; 346  : 			if (pkEntry)

	test	ebx, ebx
	je	SHORT $LN3@pRegister

; 347  : 				pRegisterEnum(L, pkEntry->GetTypeName(), FString::Hash(pkEntry->GetTypeName()));

	mov	ecx, ebx
	call	?GetTypeName@CvNotificationEntry@@QAEPBDXZ ; CvNotificationEntry::GetTypeName
	mov	edi, eax
	test	edi, edi
	je	SHORT $LN575@pRegister
	mov	ecx, edi
	lea	edx, DWORD PTR [ecx+1]
$LL1712@pRegister:
	mov	al, BYTE PTR [ecx]
	inc	ecx
	test	al, al
	jne	SHORT $LL1712@pRegister
	sub	ecx, edx
	jmp	SHORT $LN576@pRegister
$LN575@pRegister:
	xor	ecx, ecx
$LN576@pRegister:
	push	-1
	push	ecx
	push	edi
	mov	ecx, OFFSET ?g_CRC32@@3VFCRC@@A		; g_CRC32
	call	?Calc@FCRC@@QBEKPBXHK@Z			; FCRC::Calc
	mov	ecx, ebx
	mov	edi, eax
	call	?GetTypeName@CvNotificationEntry@@QAEPBDXZ ; CvNotificationEntry::GetTypeName
	push	edi
	push	esi
	mov	ebx, eax
	call	_lua_pushinteger
	push	ebx
	push	-2					; fffffffeH
	push	esi
	call	_lua_setfield
	mov	edi, DWORD PTR _pkNotifications$[esp+40]
	add	esp, 20					; 00000014H
$LN3@pRegister:
	mov	ecx, edi
	inc	ebp
	call	?GetNumNotifications@CvNotificationXMLEntries@@QAEHXZ ; CvNotificationXMLEntries::GetNumNotifications
	cmp	ebp, eax
	jl	SHORT $LL4@pRegister
	pop	ebx
$LN1715@pRegister:
	pop	ebp
$LN2@pRegister:

; 348  : 		}
; 349  : 	}
; 350  : 	EnumEnd(L);

	push	1
	push	esi
	call	_lua_checkstack
	push	-2					; fffffffeH
	push	esi
	call	_lua_settop

; 351  : 
; 352  : 	// ActivityTypes
; 353  : 	EnumStart(L, "ActivityTypes");

	push	OFFSET $SG220978
	push	-10002					; ffffd8eeH
	push	esi
	call	_lua_getfield
	push	-1
	push	esi
	call	_lua_type
	add	esp, 36					; 00000024H
	pop	edi
	test	eax, eax
	jne	SHORT $LN1714@pRegister
	push	-2					; fffffffeH
	push	esi
	call	_lua_settop
	push	0
	push	0
	push	esi
	call	_lua_createtable
	push	-1
	push	esi
	call	_lua_pushvalue
	push	OFFSET $SG220978
	push	-10002					; ffffd8eeH
	push	esi
	call	_lua_setfield
	add	esp, 40					; 00000028H
$LN1714@pRegister:

; 354  : 	RegisterEnum(NO_ACTIVITY);

	push	-1
	push	esi
	call	_lua_pushinteger
	push	OFFSET $SG220979
	push	-2					; fffffffeH
	push	esi
	call	_lua_setfield

; 355  : 	RegisterEnum(ACTIVITY_AWAKE);

	push	0
	push	esi
	call	_lua_pushinteger
	push	OFFSET $SG220980
	push	-2					; fffffffeH
	push	esi
	call	_lua_setfield

; 356  : 	RegisterEnum(ACTIVITY_HOLD);

	push	1
	push	esi
	call	_lua_pushinteger
	push	OFFSET $SG220981
	push	-2					; fffffffeH
	push	esi
	call	_lua_setfield

; 357  : 	RegisterEnum(ACTIVITY_SLEEP);

	push	2
	push	esi
	call	_lua_pushinteger
	add	esp, 68					; 00000044H
	push	OFFSET $SG220982
	push	-2					; fffffffeH
	push	esi
	call	_lua_setfield

; 358  : 	RegisterEnum(ACTIVITY_HEAL);

	push	3
	push	esi
	call	_lua_pushinteger
	push	OFFSET $SG220983
	push	-2					; fffffffeH
	push	esi
	call	_lua_setfield

; 359  : 	RegisterEnum(ACTIVITY_SENTRY);

	push	4
	push	esi
	call	_lua_pushinteger
	push	OFFSET $SG220984
	push	-2					; fffffffeH
	push	esi
	call	_lua_setfield

; 360  : 	RegisterEnum(ACTIVITY_INTERCEPT);

	push	5
	push	esi
	call	_lua_pushinteger
	push	OFFSET $SG220985
	push	-2					; fffffffeH
	push	esi
	call	_lua_setfield
	add	esp, 72					; 00000048H

; 361  : 	RegisterEnum(ACTIVITY_MISSION);

	push	6
	push	esi
	call	_lua_pushinteger
	push	OFFSET $SG220986
	push	-2					; fffffffeH
	push	esi
	call	_lua_setfield

; 362  : 	EnumEnd(L);

	push	1
	push	esi
	call	_lua_checkstack
	push	-2					; fffffffeH
	push	esi
	call	_lua_settop

; 363  : 
; 364  : 	// MissionTypes
; 365  : 	EnumStart(L, "MissionTypes");

	push	OFFSET $SG220987
	push	-10002					; ffffd8eeH
	push	esi
	call	_lua_getfield
	push	-1
	push	esi
	call	_lua_type
	add	esp, 56					; 00000038H
	test	eax, eax
	jne	SHORT $LN602@pRegister
	push	-2					; fffffffeH
	push	esi
	call	_lua_settop
	push	0
	push	0
	push	esi
	call	_lua_createtable
	push	-1
	push	esi
	call	_lua_pushvalue
	push	OFFSET $SG220987
	push	-10002					; ffffd8eeH
	push	esi
	call	_lua_setfield
	add	esp, 40					; 00000028H
$LN602@pRegister:

; 366  : 	RegisterEnum(NO_MISSION);

	push	-1
	push	esi
	call	_lua_pushinteger
	push	OFFSET $SG220988
	push	-2					; fffffffeH
	push	esi
	call	_lua_setfield

; 367  : 	RegisterDynamicEnums(L, "Missions", "ID", "Type", "NUM_MISSION_TYPES");

	push	OFFSET $SG220989
	push	OFFSET $SG220990
	push	OFFSET $SG220991
	push	OFFSET $SG220992
	push	esi
	call	?RegisterDynamicEnums@CvLuaEnums@@KAXPAUlua_State@@PBD111@Z ; CvLuaEnums::RegisterDynamicEnums

; 368  : 	EnumEnd(L);

	push	1
	push	esi
	call	_lua_checkstack
	push	-2					; fffffffeH
	push	esi
	call	_lua_settop

; 369  : 
; 370  : 
; 371  : 	// ActionSubTypes
; 372  : 	EnumStart(L, "ActionSubTypes");

	push	OFFSET $SG220993
	push	-10002					; ffffd8eeH
	push	esi
	call	_lua_getfield
	add	esp, 68					; 00000044H
	push	-1
	push	esi
	call	_lua_type
	add	esp, 8
	test	eax, eax
	jne	SHORT $LN609@pRegister
	push	-2					; fffffffeH
	push	esi
	call	_lua_settop
	push	0
	push	0
	push	esi
	call	_lua_createtable
	push	-1
	push	esi
	call	_lua_pushvalue
	push	OFFSET $SG220993
	push	-10002					; ffffd8eeH
	push	esi
	call	_lua_setfield
	add	esp, 40					; 00000028H
$LN609@pRegister:

; 373  : 	RegisterEnum(ACTIONSUBTYPE_INTERFACEMODE);

	push	0
	push	esi
	call	_lua_pushinteger
	push	OFFSET $SG220994
	push	-2					; fffffffeH
	push	esi
	call	_lua_setfield

; 374  : 	RegisterEnum(ACTIONSUBTYPE_COMMAND);

	push	1
	push	esi
	call	_lua_pushinteger
	push	OFFSET $SG220995
	push	-2					; fffffffeH
	push	esi
	call	_lua_setfield

; 375  : 	RegisterEnum(ACTIONSUBTYPE_BUILD);

	push	2
	push	esi
	call	_lua_pushinteger
	push	OFFSET $SG220996
	push	-2					; fffffffeH
	push	esi
	call	_lua_setfield

; 376  : 	RegisterEnum(ACTIONSUBTYPE_PROMOTION);

	push	3
	push	esi
	call	_lua_pushinteger
	add	esp, 68					; 00000044H
	push	OFFSET $SG220997
	push	-2					; fffffffeH
	push	esi
	call	_lua_setfield

; 377  : 	RegisterEnum(ACTIONSUBTYPE_SPECIALIST);

	push	4
	push	esi
	call	_lua_pushinteger
	push	OFFSET $SG220998
	push	-2					; fffffffeH
	push	esi
	call	_lua_setfield

; 378  : 	RegisterEnum(ACTIONSUBTYPE_CONTROL);

	push	5
	push	esi
	call	_lua_pushinteger
	push	OFFSET $SG220999
	push	-2					; fffffffeH
	push	esi
	call	_lua_setfield

; 379  : 	RegisterEnum(ACTIONSUBTYPE_AUTOMATE);

	push	6
	push	esi
	call	_lua_pushinteger
	push	OFFSET $SG221000
	push	-2					; fffffffeH
	push	esi
	call	_lua_setfield
	add	esp, 72					; 00000048H

; 380  : 	RegisterEnum(ACTIONSUBTYPE_MISSION);

	push	7
	push	esi
	call	_lua_pushinteger
	push	OFFSET $SG221001
	push	-2					; fffffffeH
	push	esi
	call	_lua_setfield

; 381  : 	RegisterEnum(NUM_ACTIONSUBTYPES);

	push	8
	push	esi
	call	_lua_pushinteger
	push	OFFSET $SG221002
	push	-2					; fffffffeH
	push	esi
	call	_lua_setfield

; 382  : 	EnumEnd(L);

	push	1
	push	esi
	call	_lua_checkstack
	push	-2					; fffffffeH
	push	esi
	call	_lua_settop

; 383  : 
; 384  : 
; 385  : 	// GameMessageTypes
; 386  : 	EnumStart(L, "GameMessageTypes");

	push	OFFSET $SG221003
	push	-10002					; ffffd8eeH
	push	esi
	call	_lua_getfield
	add	esp, 68					; 00000044H
	push	-1
	push	esi
	call	_lua_type
	add	esp, 8
	test	eax, eax
	jne	SHORT $LN632@pRegister
	push	-2					; fffffffeH
	push	esi
	call	_lua_settop
	push	0
	push	0
	push	esi
	call	_lua_createtable
	push	-1
	push	esi
	call	_lua_pushvalue
	push	OFFSET $SG221003
	push	-10002					; ffffd8eeH
	push	esi
	call	_lua_setfield
	add	esp, 40					; 00000028H
$LN632@pRegister:

; 387  : 	RegisterEnum(GAMEMESSAGE_NETWORK_READY);

	push	0
	push	esi
	call	_lua_pushinteger
	push	OFFSET $SG221004
	push	-2					; fffffffeH
	push	esi
	call	_lua_setfield

; 388  : 	RegisterEnum(GAMEMESSAGE_VERIFY_VERSION);

	push	1
	push	esi
	call	_lua_pushinteger
	push	OFFSET $SG221005
	push	-2					; fffffffeH
	push	esi
	call	_lua_setfield

; 389  : 	RegisterEnum(GAMEMESSAGE_VERSION_NACK);

	push	2
	push	esi
	call	_lua_pushinteger
	push	OFFSET $SG221006
	push	-2					; fffffffeH
	push	esi
	call	_lua_setfield

; 390  : 	RegisterEnum(GAMEMESSAGE_VERSION_WARNING);

	push	3
	push	esi
	call	_lua_pushinteger
	add	esp, 68					; 00000044H
	push	OFFSET $SG221007
	push	-2					; fffffffeH
	push	esi
	call	_lua_setfield

; 391  : 	RegisterEnum(GAMEMESSAGE_GAME_TYPE);

	push	4
	push	esi
	call	_lua_pushinteger
	push	OFFSET $SG221008
	push	-2					; fffffffeH
	push	esi
	call	_lua_setfield

; 392  : 	RegisterEnum(GAMEMESSAGE_ID_ASSIGNMENT);

	push	5
	push	esi
	call	_lua_pushinteger
	push	OFFSET $SG221009
	push	-2					; fffffffeH
	push	esi
	call	_lua_setfield

; 393  : 	RegisterEnum(GAMEMESSAGE_FILE_INFO);

	push	6
	push	esi
	call	_lua_pushinteger
	push	OFFSET $SG221010
	push	-2					; fffffffeH
	push	esi
	call	_lua_setfield
	add	esp, 72					; 00000048H

; 394  : 	RegisterEnum(GAMEMESSAGE_PICK_YOUR_CIV);

	push	7
	push	esi
	call	_lua_pushinteger
	push	OFFSET $SG221011
	push	-2					; fffffffeH
	push	esi
	call	_lua_setfield

; 395  : 	RegisterEnum(GAMEMESSAGE_CIV_CHOICE);

	push	8
	push	esi
	call	_lua_pushinteger
	push	OFFSET $SG221012
	push	-2					; fffffffeH
	push	esi
	call	_lua_setfield

; 396  : 	RegisterEnum(GAMEMESSAGE_CONFIRM_CIV_CLAIM);

	push	9
	push	esi
	call	_lua_pushinteger
	push	OFFSET $SG221013
	push	-2					; fffffffeH
	push	esi
	call	_lua_setfield

; 397  : 	RegisterEnum(GAMEMESSAGE_CLAIM_INFO);

	push	10					; 0000000aH
	push	esi
	call	_lua_pushinteger
	add	esp, 68					; 00000044H
	push	OFFSET $SG221014
	push	-2					; fffffffeH
	push	esi
	call	_lua_setfield

; 398  : 	RegisterEnum(GAMEMESSAGE_CIV_CHOICE_ACK);

	push	11					; 0000000bH
	push	esi
	call	_lua_pushinteger
	push	OFFSET $SG221015
	push	-2					; fffffffeH
	push	esi
	call	_lua_setfield

; 399  : 	RegisterEnum(GAMEMESSAGE_CIV_CHOICE_NACK);

	push	12					; 0000000cH
	push	esi
	call	_lua_pushinteger
	push	OFFSET $SG221016
	push	-2					; fffffffeH
	push	esi
	call	_lua_setfield

; 400  : 	RegisterEnum(GAMEMESSAGE_CIV_CHOSEN);

	push	13					; 0000000dH
	push	esi
	call	_lua_pushinteger
	push	OFFSET $SG221017
	push	-2					; fffffffeH
	push	esi
	call	_lua_setfield
	add	esp, 72					; 00000048H

; 401  : 	RegisterEnum(GAMEMESSAGE_INTERIM_NOTICE);

	push	14					; 0000000eH
	push	esi
	call	_lua_pushinteger
	push	OFFSET $SG221018
	push	-2					; fffffffeH
	push	esi
	call	_lua_setfield

; 402  : 	RegisterEnum(GAMEMESSAGE_INIT_INFO);

	push	15					; 0000000fH
	push	esi
	call	_lua_pushinteger
	push	OFFSET $SG221019
	push	-2					; fffffffeH
	push	esi
	call	_lua_setfield

; 403  : 	RegisterEnum(GAMEMESSAGE_MAPSCRIPT_CHECK);

	push	16					; 00000010H
	push	esi
	call	_lua_pushinteger
	push	OFFSET $SG221020
	push	-2					; fffffffeH
	push	esi
	call	_lua_setfield

; 404  : 	RegisterEnum(GAMEMESSAGE_MAPSCRIPT_ACK);

	push	17					; 00000011H
	push	esi
	call	_lua_pushinteger
	add	esp, 68					; 00000044H
	push	OFFSET $SG221021
	push	-2					; fffffffeH
	push	esi
	call	_lua_setfield

; 405  : 	RegisterEnum(GAMEMESSAGE_LOAD_GAME);

	push	18					; 00000012H
	push	esi
	call	_lua_pushinteger
	push	OFFSET $SG221022
	push	-2					; fffffffeH
	push	esi
	call	_lua_setfield

; 406  : 	RegisterEnum(GAMEMESSAGE_PLAYER_ID);

	push	19					; 00000013H
	push	esi
	call	_lua_pushinteger
	push	OFFSET $SG221023
	push	-2					; fffffffeH
	push	esi
	call	_lua_setfield

; 407  : 	RegisterEnum(GAMEMESSAGE_SLOT_REASSIGNMENT);

	push	20					; 00000014H
	push	esi
	call	_lua_pushinteger
	push	OFFSET $SG221024
	push	-2					; fffffffeH
	push	esi
	call	_lua_setfield
	add	esp, 72					; 00000048H

; 408  : 	RegisterEnum(GAMEMESSAGE_PLAYER_INFO);

	push	21					; 00000015H
	push	esi
	call	_lua_pushinteger
	push	OFFSET $SG221025
	push	-2					; fffffffeH
	push	esi
	call	_lua_setfield

; 409  : 	RegisterEnum(GAMEMESSAGE_GAME_INFO);

	push	22					; 00000016H
	push	esi
	call	_lua_pushinteger
	push	OFFSET $SG221026
	push	-2					; fffffffeH
	push	esi
	call	_lua_setfield

; 410  : 	RegisterEnum(GAMEMESSAGE_REASSIGN_PLAYER);

	push	23					; 00000017H
	push	esi
	call	_lua_pushinteger
	push	OFFSET $SG221027
	push	-2					; fffffffeH
	push	esi
	call	_lua_setfield

; 411  : 	RegisterEnum(GAMEMESSAGE_PITBOSS_INFO);

	push	24					; 00000018H
	push	esi
	call	_lua_pushinteger
	add	esp, 68					; 00000044H
	push	OFFSET $SG221028
	push	-2					; fffffffeH
	push	esi
	call	_lua_setfield

; 412  : 	RegisterEnum(GAMEMESSAGE_LAUNCHING_INFO);

	push	25					; 00000019H
	push	esi
	call	_lua_pushinteger
	push	OFFSET $SG221029
	push	-2					; fffffffeH
	push	esi
	call	_lua_setfield

; 413  : 	RegisterEnum(GAMEMESSAGE_INIT_GAME);

	push	26					; 0000001aH
	push	esi
	call	_lua_pushinteger
	push	OFFSET $SG221030
	push	-2					; fffffffeH
	push	esi
	call	_lua_setfield

; 414  : 	RegisterEnum(GAMEMESSAGE_INIT_PLAYERS);

	push	27					; 0000001bH
	push	esi
	call	_lua_pushinteger
	push	OFFSET $SG221031
	push	-2					; fffffffeH
	push	esi
	call	_lua_setfield
	add	esp, 72					; 00000048H

; 415  : 	RegisterEnum(GAMEMESSAGE_AUTH_REQUEST);

	push	28					; 0000001cH
	push	esi
	call	_lua_pushinteger
	push	OFFSET $SG221032
	push	-2					; fffffffeH
	push	esi
	call	_lua_setfield

; 416  : 	RegisterEnum(GAMEMESSAGE_AUTH_RESPONSE);

	push	29					; 0000001dH
	push	esi
	call	_lua_pushinteger
	push	OFFSET $SG221033
	push	-2					; fffffffeH
	push	esi
	call	_lua_setfield

; 417  : 	RegisterEnum(GAMEMESSAGE_SYNCH_START);

	push	30					; 0000001eH
	push	esi
	call	_lua_pushinteger
	push	OFFSET $SG221034
	push	-2					; fffffffeH
	push	esi
	call	_lua_setfield

; 418  : 	RegisterEnum(GAMEMESSAGE_PLAYER_OPTION);

	push	31					; 0000001fH
	push	esi
	call	_lua_pushinteger
	add	esp, 68					; 00000044H
	push	OFFSET $SG221035
	push	-2					; fffffffeH
	push	esi
	call	_lua_setfield

; 419  : 	RegisterEnum(GAMEMESSAGE_EXTENDED_GAME);

	push	32					; 00000020H
	push	esi
	call	_lua_pushinteger
	push	OFFSET $SG221036
	push	-2					; fffffffeH
	push	esi
	call	_lua_setfield

; 420  : 	RegisterEnum(GAMEMESSAGE_AUTO_MOVES);

	push	33					; 00000021H
	push	esi
	call	_lua_pushinteger
	push	OFFSET $SG221037
	push	-2					; fffffffeH
	push	esi
	call	_lua_setfield

; 421  : 	RegisterEnum(GAMEMESSAGE_TURN_COMPLETE);

	push	34					; 00000022H
	push	esi
	call	_lua_pushinteger
	push	OFFSET $SG221038
	push	-2					; fffffffeH
	push	esi
	call	_lua_setfield
	add	esp, 72					; 00000048H

; 422  : 	RegisterEnum(GAMEMESSAGE_PUSH_MISSION);

	push	35					; 00000023H
	push	esi
	call	_lua_pushinteger
	push	OFFSET $SG221039
	push	-2					; fffffffeH
	push	esi
	call	_lua_setfield

; 423  : 	RegisterEnum(GAMEMESSAGE_AUTO_MISSION);

	push	36					; 00000024H
	push	esi
	call	_lua_pushinteger
	push	OFFSET $SG221040
	push	-2					; fffffffeH
	push	esi
	call	_lua_setfield

; 424  : 	RegisterEnum(GAMEMESSAGE_DO_COMMAND);

	push	37					; 00000025H
	push	esi
	call	_lua_pushinteger
	push	OFFSET $SG221041
	push	-2					; fffffffeH
	push	esi
	call	_lua_setfield

; 425  : 	RegisterEnum(GAMEMESSAGE_PUSH_ORDER);

	push	38					; 00000026H
	push	esi
	call	_lua_pushinteger
	add	esp, 68					; 00000044H
	push	OFFSET $SG221042
	push	-2					; fffffffeH
	push	esi
	call	_lua_setfield

; 426  : 	RegisterEnum(GAMEMESSAGE_POP_ORDER);

	push	39					; 00000027H
	push	esi
	call	_lua_pushinteger
	push	OFFSET $SG221043
	push	-2					; fffffffeH
	push	esi
	call	_lua_setfield

; 427  : 	RegisterEnum(GAMEMESSAGE_DO_TASK);

	push	41					; 00000029H
	push	esi
	call	_lua_pushinteger
	push	OFFSET $SG221044
	push	-2					; fffffffeH
	push	esi
	call	_lua_setfield

; 428  : 	RegisterEnum(GAMEMESSAGE_RESEARCH);

	push	42					; 0000002aH
	push	esi
	call	_lua_pushinteger
	push	OFFSET $SG221045
	push	-2					; fffffffeH
	push	esi
	call	_lua_setfield
	add	esp, 72					; 00000048H

; 429  : 	RegisterEnum(GAMEMESSAGE_CONVERT);

	push	43					; 0000002bH
	push	esi
	call	_lua_pushinteger
	push	OFFSET $SG221046
	push	-2					; fffffffeH
	push	esi
	call	_lua_setfield

; 430  : 	RegisterEnum(GAMEMESSAGE_CHAT);

	push	44					; 0000002cH
	push	esi
	call	_lua_pushinteger
	push	OFFSET $SG221047
	push	-2					; fffffffeH
	push	esi
	call	_lua_setfield

; 431  : 	RegisterEnum(GAMEMESSAGE_PING);

	push	45					; 0000002dH
	push	esi
	call	_lua_pushinteger
	push	OFFSET $SG221048
	push	-2					; fffffffeH
	push	esi
	call	_lua_setfield

; 432  : 	RegisterEnum(GAMEMESSAGE_SIGN);

	push	46					; 0000002eH
	push	esi
	call	_lua_pushinteger
	add	esp, 68					; 00000044H
	push	OFFSET $SG221049
	push	-2					; fffffffeH
	push	esi
	call	_lua_setfield

; 433  : 	RegisterEnum(GAMEMESSAGE_LINE_ENTITY);

	push	47					; 0000002fH
	push	esi
	call	_lua_pushinteger
	push	OFFSET $SG221050
	push	-2					; fffffffeH
	push	esi
	call	_lua_setfield

; 434  : 	RegisterEnum(GAMEMESSAGE_SIGN_DELETE);

	push	48					; 00000030H
	push	esi
	call	_lua_pushinteger
	push	OFFSET $SG221051
	push	-2					; fffffffeH
	push	esi
	call	_lua_setfield

; 435  : 	RegisterEnum(GAMEMESSAGE_LINE_ENTITY_DELETE);

	push	49					; 00000031H
	push	esi
	call	_lua_pushinteger
	push	OFFSET $SG221052
	push	-2					; fffffffeH
	push	esi
	call	_lua_setfield
	add	esp, 72					; 00000048H

; 436  : 	RegisterEnum(GAMEMESSAGE_LINE_GROUP_DELETE);

	push	50					; 00000032H
	push	esi
	call	_lua_pushinteger
	push	OFFSET $SG221053
	push	-2					; fffffffeH
	push	esi
	call	_lua_setfield

; 437  : 	RegisterEnum(GAMEMESSAGE_PAUSE);

	push	51					; 00000033H
	push	esi
	call	_lua_pushinteger
	push	OFFSET $SG221054
	push	-2					; fffffffeH
	push	esi
	call	_lua_setfield

; 438  : 	RegisterEnum(GAMEMESSAGE_MP_KICK);

	push	52					; 00000034H
	push	esi
	call	_lua_pushinteger
	push	OFFSET $SG221055
	push	-2					; fffffffeH
	push	esi
	call	_lua_setfield

; 439  : 	RegisterEnum(GAMEMESSAGE_MP_RETIRE);

	push	53					; 00000035H
	push	esi
	call	_lua_pushinteger
	add	esp, 68					; 00000044H
	push	OFFSET $SG221056
	push	-2					; fffffffeH
	push	esi
	call	_lua_setfield

; 440  : 	RegisterEnum(GAMEMESSAGE_CLOSE_CONNECTION);

	push	54					; 00000036H
	push	esi
	call	_lua_pushinteger
	push	OFFSET $SG221057
	push	-2					; fffffffeH
	push	esi
	call	_lua_setfield

; 441  : 	RegisterEnum(GAMEMESSAGE_NEVER_JOINED);

	push	55					; 00000037H
	push	esi
	call	_lua_pushinteger
	push	OFFSET $SG221058
	push	-2					; fffffffeH
	push	esi
	call	_lua_setfield

; 442  : 	RegisterEnum(GAMEMESSAGE_MP_DROP_INIT);

	push	56					; 00000038H
	push	esi
	call	_lua_pushinteger
	push	OFFSET $SG221059
	push	-2					; fffffffeH
	push	esi
	call	_lua_setfield
	add	esp, 72					; 00000048H

; 443  : 	RegisterEnum(GAMEMESSAGE_MP_DROP_VOTE);

	push	57					; 00000039H
	push	esi
	call	_lua_pushinteger
	push	OFFSET $SG221060
	push	-2					; fffffffeH
	push	esi
	call	_lua_setfield

; 444  : 	RegisterEnum(GAMEMESSAGE_MP_DROP_UPDATE);

	push	58					; 0000003aH
	push	esi
	call	_lua_pushinteger
	push	OFFSET $SG221061
	push	-2					; fffffffeH
	push	esi
	call	_lua_setfield

; 445  : 	RegisterEnum(GAMEMESSAGE_MP_DROP_RESULT);

	push	59					; 0000003bH
	push	esi
	call	_lua_pushinteger
	push	OFFSET $SG221062
	push	-2					; fffffffeH
	push	esi
	call	_lua_setfield

; 446  : 	RegisterEnum(GAMEMESSAGE_MP_DROP_SAVE);

	push	60					; 0000003cH
	push	esi
	call	_lua_pushinteger
	add	esp, 68					; 00000044H
	push	OFFSET $SG221063
	push	-2					; fffffffeH
	push	esi
	call	_lua_setfield

; 447  : 	RegisterEnum(GAMEMESSAGE_TOGGLE_TRADE);

	push	61					; 0000003dH
	push	esi
	call	_lua_pushinteger
	push	OFFSET $SG221064
	push	-2					; fffffffeH
	push	esi
	call	_lua_setfield

; 448  : 	RegisterEnum(GAMEMESSAGE_IMPLEMENT_OFFER);

	push	62					; 0000003eH
	push	esi
	call	_lua_pushinteger
	push	OFFSET $SG221065
	push	-2					; fffffffeH
	push	esi
	call	_lua_setfield

; 449  : 	RegisterEnum(GAMEMESSAGE_CHANGE_WAR);

	push	63					; 0000003fH
	push	esi
	call	_lua_pushinteger
	push	OFFSET $SG221066
	push	-2					; fffffffeH
	push	esi
	call	_lua_setfield
	add	esp, 72					; 00000048H

; 450  : 	RegisterEnum(GAMEMESSAGE_LIBERATE_PLAYER);

	push	67					; 00000043H
	push	esi
	call	_lua_pushinteger
	push	OFFSET $SG221067
	push	-2					; fffffffeH
	push	esi
	call	_lua_setfield

; 451  : 	RegisterEnum(GAMEMESSAGE_CHOOSE_ELECTION);

	push	68					; 00000044H
	push	esi
	call	_lua_pushinteger
	push	OFFSET $SG221068
	push	-2					; fffffffeH
	push	esi
	call	_lua_setfield

; 452  : 	RegisterEnum(GAMEMESSAGE_DIPLO_VOTE);

	push	69					; 00000045H
	push	esi
	call	_lua_pushinteger
	push	OFFSET $SG221069
	push	-2					; fffffffeH
	push	esi
	call	_lua_setfield

; 453  : 	RegisterEnum(GAMEMESSAGE_APPLY_EVENT);

	push	70					; 00000046H
	push	esi
	call	_lua_pushinteger
	add	esp, 68					; 00000044H
	push	OFFSET $SG221070
	push	-2					; fffffffeH
	push	esi
	call	_lua_setfield

; 454  : 	RegisterEnum(GAMEMESSAGE_CONTACT_CIV);

	push	71					; 00000047H
	push	esi
	call	_lua_pushinteger
	push	OFFSET $SG221071
	push	-2					; fffffffeH
	push	esi
	call	_lua_setfield

; 455  : 	RegisterEnum(GAMEMESSAGE_DIPLO_CHAT);

	push	72					; 00000048H
	push	esi
	call	_lua_pushinteger
	push	OFFSET $SG221072
	push	-2					; fffffffeH
	push	esi
	call	_lua_setfield

; 456  : 	RegisterEnum(GAMEMESSAGE_SEND_OFFER);

	push	73					; 00000049H
	push	esi
	call	_lua_pushinteger
	push	OFFSET $SG221073
	push	-2					; fffffffeH
	push	esi
	call	_lua_setfield
	add	esp, 72					; 00000048H

; 457  : 	RegisterEnum(GAMEMESSAGE_RENEGOTIATE);

	push	74					; 0000004aH
	push	esi
	call	_lua_pushinteger
	push	OFFSET $SG221074
	push	-2					; fffffffeH
	push	esi
	call	_lua_setfield

; 458  : 	RegisterEnum(GAMEMESSAGE_RENEGOTIATE_ITEM);

	push	75					; 0000004bH
	push	esi
	call	_lua_pushinteger
	push	OFFSET $SG221075
	push	-2					; fffffffeH
	push	esi
	call	_lua_setfield

; 459  : 	RegisterEnum(GAMEMESSAGE_EXIT_TRADE);

	push	76					; 0000004cH
	push	esi
	call	_lua_pushinteger
	push	OFFSET $SG221076
	push	-2					; fffffffeH
	push	esi
	call	_lua_setfield

; 460  : 	RegisterEnum(GAMEMESSAGE_KILL_DEAL);

	push	77					; 0000004dH
	push	esi
	call	_lua_pushinteger
	add	esp, 68					; 00000044H
	push	OFFSET $SG221077
	push	-2					; fffffffeH
	push	esi
	call	_lua_setfield

; 461  : 	RegisterEnum(GAMEMESSAGE_UPDATE_POLICIES);

	push	78					; 0000004eH
	push	esi
	call	_lua_pushinteger
	push	OFFSET $SG221078
	push	-2					; fffffffeH
	push	esi
	call	_lua_setfield

; 462  : 	RegisterEnum(GAMEMESSAGE_CLEAR_TABLE);

	push	79					; 0000004fH
	push	esi
	call	_lua_pushinteger
	push	OFFSET $SG221079
	push	-2					; fffffffeH
	push	esi
	call	_lua_setfield

; 463  : 	RegisterEnum(GAMEMESSAGE_POPUP_PROCESSED);

	push	80					; 00000050H
	push	esi
	call	_lua_pushinteger
	push	OFFSET $SG221080
	push	-2					; fffffffeH
	push	esi
	call	_lua_setfield
	add	esp, 72					; 00000048H

; 464  : 	RegisterEnum(GAMEMESSAGE_DIPLOMACY_FROM_UI);

	push	81					; 00000051H
	push	esi
	call	_lua_pushinteger
	push	OFFSET $SG221081
	push	-2					; fffffffeH
	push	esi
	call	_lua_setfield

; 465  : 	RegisterEnum(GAMEMESSAGE_HOT_DROP_NOTICE);

	push	82					; 00000052H
	push	esi
	call	_lua_pushinteger
	push	OFFSET $SG221082
	push	-2					; fffffffeH
	push	esi
	call	_lua_setfield

; 466  : 	RegisterEnum(GAMEMESSAGE_POPUP);

	push	83					; 00000053H
	push	esi
	call	_lua_pushinteger
	push	OFFSET $SG221083
	push	-2					; fffffffeH
	push	esi
	call	_lua_setfield

; 467  : 	RegisterEnum(GAMEMESSAGE_EVENT_TRIGGERED);

	push	84					; 00000054H
	push	esi
	call	_lua_pushinteger
	add	esp, 68					; 00000044H
	push	OFFSET $SG221084
	push	-2					; fffffffeH
	push	esi
	call	_lua_setfield

; 468  : 	RegisterEnum(GAMEMESSAGE_LAUNCH_SPACESHIP);

	push	85					; 00000055H
	push	esi
	call	_lua_pushinteger
	push	OFFSET $SG221085
	push	-2					; fffffffeH
	push	esi
	call	_lua_setfield

; 469  : 	RegisterEnum(GAMEMESSAGE_ADVANCED_START_ACTION);

	push	86					; 00000056H
	push	esi
	call	_lua_pushinteger
	push	OFFSET $SG221086
	push	-2					; fffffffeH
	push	esi
	call	_lua_setfield

; 470  : 	RegisterEnum(GAMEMESSAGE_MINOR_CIV_QUEST_NO_INTEREST);

	push	87					; 00000057H
	push	esi
	call	_lua_pushinteger
	push	OFFSET $SG221087
	push	-2					; fffffffeH
	push	esi
	call	_lua_setfield
	add	esp, 72					; 00000048H

; 471  : 	RegisterEnum(GAMEMESSAGE_MINOR_CIV_QUEST_COMPLETED);

	push	88					; 00000058H
	push	esi
	call	_lua_pushinteger
	push	OFFSET $SG221088
	push	-2					; fffffffeH
	push	esi
	call	_lua_setfield

; 472  : 	RegisterEnum(GAMEMESSAGE_MINOR_CIV_INTRUSION);

	push	89					; 00000059H
	push	esi
	call	_lua_pushinteger
	push	OFFSET $SG221089
	push	-2					; fffffffeH
	push	esi
	call	_lua_setfield

; 473  : 	RegisterEnum(GAMEMESSAGE_MINOR_CIV_ENTER_TERRITORY);

	push	90					; 0000005aH
	push	esi
	call	_lua_pushinteger
	push	OFFSET $SG221090
	push	-2					; fffffffeH
	push	esi
	call	_lua_setfield

; 474  : 	RegisterEnum(GAMEMESSAGE_BARBARIAN_RANSOM);

	push	91					; 0000005bH
	push	esi
	call	_lua_pushinteger
	add	esp, 68					; 00000044H
	push	OFFSET $SG221091
	push	-2					; fffffffeH
	push	esi
	call	_lua_setfield

; 475  : 	RegisterEnum(GAMEMESSAGE_PLAYER_HURRY);

	push	96					; 00000060H
	push	esi
	call	_lua_pushinteger
	push	OFFSET $SG221092
	push	-2					; fffffffeH
	push	esi
	call	_lua_setfield

; 476  : 	RegisterEnum(GAMEMESSAGE_MOD_NET_MESSAGE);

	push	97					; 00000061H
	push	esi
	call	_lua_pushinteger
	push	OFFSET $SG221093
	push	-2					; fffffffeH
	push	esi
	call	_lua_setfield

; 477  : 	RegisterEnum(GAMEMESSAGE_SWAP_UNITS);

	push	98					; 00000062H
	push	esi
	call	_lua_pushinteger
	push	OFFSET $SG221094
	push	-2					; fffffffeH
	push	esi
	call	_lua_setfield
	add	esp, 72					; 00000048H

; 478  : 	RegisterEnum(GAMEMESSAGE_SWAP_ORDER);

	push	124					; 0000007cH
	push	esi
	call	_lua_pushinteger
	push	OFFSET $SG221095
	push	-2					; fffffffeH
	push	esi
	call	_lua_setfield

; 479  : 	RegisterEnum(GAMEMESSAGE_AVOID_GROWTH);

	push	127					; 0000007fH
	push	esi
	call	_lua_pushinteger
	push	OFFSET $SG221096
	push	-2					; fffffffeH
	push	esi
	call	_lua_setfield

; 480  : 	EnumEnd(L);

	push	1
	push	esi
	call	_lua_checkstack
	push	-2					; fffffffeH
	push	esi
	call	_lua_settop

; 481  : 
; 482  : 	// TaskTypes
; 483  : 	EnumStart(L, "TaskTypes");

	push	OFFSET $SG221097
	push	-10002					; ffffd8eeH
	push	esi
	call	_lua_getfield
	add	esp, 68					; 00000044H
	push	-1
	push	esi
	call	_lua_type
	add	esp, 8
	test	eax, eax
	jne	SHORT $LN823@pRegister
	push	-2					; fffffffeH
	push	esi
	call	_lua_settop
	push	0
	push	0
	push	esi
	call	_lua_createtable
	push	-1
	push	esi
	call	_lua_pushvalue
	push	OFFSET $SG221097
	push	-10002					; ffffd8eeH
	push	esi
	call	_lua_setfield
	add	esp, 40					; 00000028H
$LN823@pRegister:

; 484  : 	RegisterEnum(TASK_RAZE);

	push	0
	push	esi
	call	_lua_pushinteger
	push	OFFSET $SG221098
	push	-2					; fffffffeH
	push	esi
	call	_lua_setfield

; 485  : 	RegisterEnum(TASK_UNRAZE);

	push	1
	push	esi
	call	_lua_pushinteger
	push	OFFSET $SG221099
	push	-2					; fffffffeH
	push	esi
	call	_lua_setfield

; 486  : 	RegisterEnum(TASK_DISBAND);

	push	2
	push	esi
	call	_lua_pushinteger
	push	OFFSET $SG221100
	push	-2					; fffffffeH
	push	esi
	call	_lua_setfield

; 487  : 	RegisterEnum(TASK_GIFT);

	push	3
	push	esi
	call	_lua_pushinteger
	add	esp, 68					; 00000044H
	push	OFFSET $SG221101
	push	-2					; fffffffeH
	push	esi
	call	_lua_setfield

; 488  : 	RegisterEnum(TASK_SET_AUTOMATED_CITIZENS);

	push	4
	push	esi
	call	_lua_pushinteger
	push	OFFSET $SG221102
	push	-2					; fffffffeH
	push	esi
	call	_lua_setfield

; 489  : 	RegisterEnum(TASK_SET_AUTOMATED_PRODUCTION);

	push	5
	push	esi
	call	_lua_pushinteger
	push	OFFSET $SG221103
	push	-2					; fffffffeH
	push	esi
	call	_lua_setfield

; 490  : 	RegisterEnum(TASK_SET_EMPHASIZE);

	push	6
	push	esi
	call	_lua_pushinteger
	push	OFFSET $SG221104
	push	-2					; fffffffeH
	push	esi
	call	_lua_setfield
	add	esp, 72					; 00000048H

; 491  : 	RegisterEnum(TASK_NO_AUTO_ASSIGN_SPECIALISTS);

	push	7
	push	esi
	call	_lua_pushinteger
	push	OFFSET $SG221105
	push	-2					; fffffffeH
	push	esi
	call	_lua_setfield

; 492  : 	RegisterEnum(TASK_ADD_SPECIALIST);

	push	8
	push	esi
	call	_lua_pushinteger
	push	OFFSET $SG221106
	push	-2					; fffffffeH
	push	esi
	call	_lua_setfield

; 493  : 	RegisterEnum(TASK_REMOVE_SPECIALIST);

	push	9
	push	esi
	call	_lua_pushinteger
	push	OFFSET $SG221107
	push	-2					; fffffffeH
	push	esi
	call	_lua_setfield

; 494  : 	RegisterEnum(TASK_CHANGE_WORKING_PLOT);

	push	10					; 0000000aH
	push	esi
	call	_lua_pushinteger
	add	esp, 68					; 00000044H
	push	OFFSET $SG221108
	push	-2					; fffffffeH
	push	esi
	call	_lua_setfield

; 495  : 	RegisterEnum(TASK_REMOVE_SLACKER);

	push	11					; 0000000bH
	push	esi
	call	_lua_pushinteger
	push	OFFSET $SG221109
	push	-2					; fffffffeH
	push	esi
	call	_lua_setfield

; 496  : 	RegisterEnum(TASK_CLEAR_WORKING_OVERRIDE);

	push	12					; 0000000cH
	push	esi
	call	_lua_pushinteger
	push	OFFSET $SG221110
	push	-2					; fffffffeH
	push	esi
	call	_lua_setfield

; 497  : 	RegisterEnum(TASK_HURRY);

	push	13					; 0000000dH
	push	esi
	call	_lua_pushinteger
	push	OFFSET $SG221111
	push	-2					; fffffffeH
	push	esi
	call	_lua_setfield
	add	esp, 72					; 00000048H

; 498  : 	RegisterEnum(TASK_CONSCRIPT);

	push	14					; 0000000eH
	push	esi
	call	_lua_pushinteger
	push	OFFSET $SG221112
	push	-2					; fffffffeH
	push	esi
	call	_lua_setfield

; 499  : 	RegisterEnum(TASK_CLEAR_ORDERS);

	push	15					; 0000000fH
	push	esi
	call	_lua_pushinteger
	push	OFFSET $SG221113
	push	-2					; fffffffeH
	push	esi
	call	_lua_setfield

; 500  : 	RegisterEnum(TASK_RALLY_PLOT);

	push	16					; 00000010H
	push	esi
	call	_lua_pushinteger
	push	OFFSET $SG221114
	push	-2					; fffffffeH
	push	esi
	call	_lua_setfield

; 501  : 	RegisterEnum(TASK_CLEAR_RALLY_PLOT);

	push	17					; 00000011H
	push	esi
	call	_lua_pushinteger
	add	esp, 68					; 00000044H
	push	OFFSET $SG221115
	push	-2					; fffffffeH
	push	esi
	call	_lua_setfield

; 502  : 	RegisterEnum(TASK_RANGED_ATTACK);

	push	18					; 00000012H
	push	esi
	call	_lua_pushinteger
	push	OFFSET $SG221116
	push	-2					; fffffffeH
	push	esi
	call	_lua_setfield

; 503  : 	RegisterEnum(TASK_CREATE_PUPPET);

	push	19					; 00000013H
	push	esi
	call	_lua_pushinteger
	push	OFFSET $SG221117
	push	-2					; fffffffeH
	push	esi
	call	_lua_setfield

; 504  : 	RegisterEnum(TASK_ANNEX_PUPPET);

	push	20					; 00000014H
	push	esi
	call	_lua_pushinteger
	push	OFFSET $SG221118
	push	-2					; fffffffeH
	push	esi
	call	_lua_setfield
	add	esp, 72					; 00000048H

; 505  : 	RegisterEnum(NUM_TASK_TYPES);

	push	21					; 00000015H
	push	esi
	call	_lua_pushinteger
	push	OFFSET $SG221119
	push	-2					; fffffffeH
	push	esi
	call	_lua_setfield

; 506  : 	EnumEnd(L);

	push	1
	push	esi
	call	_lua_checkstack
	push	-2					; fffffffeH
	push	esi
	call	_lua_settop

; 507  : 
; 508  : 	// CommandTypes
; 509  : 	EnumStart(L, "CommandTypes");

	push	OFFSET $SG221120
	push	-10002					; ffffd8eeH
	push	esi
	call	_lua_getfield
	push	-1
	push	esi
	call	_lua_type
	add	esp, 56					; 00000038H
	test	eax, eax
	jne	SHORT $LN872@pRegister
	push	-2					; fffffffeH
	push	esi
	call	_lua_settop
	push	0
	push	0
	push	esi
	call	_lua_createtable
	push	-1
	push	esi
	call	_lua_pushvalue
	push	OFFSET $SG221120
	push	-10002					; ffffd8eeH
	push	esi
	call	_lua_setfield
	add	esp, 40					; 00000028H
$LN872@pRegister:

; 510  : 	RegisterEnum(COMMAND_PROMOTION);

	push	0
	push	esi
	call	_lua_pushinteger
	push	OFFSET $SG221121
	push	-2					; fffffffeH
	push	esi
	call	_lua_setfield

; 511  : 	RegisterEnum(COMMAND_UPGRADE);

	push	1
	push	esi
	call	_lua_pushinteger
	push	OFFSET $SG221122
	push	-2					; fffffffeH
	push	esi
	call	_lua_setfield

; 512  : 	RegisterEnum(COMMAND_AUTOMATE);

	push	2
	push	esi
	call	_lua_pushinteger
	push	OFFSET $SG221123
	push	-2					; fffffffeH
	push	esi
	call	_lua_setfield

; 513  : 	RegisterEnum(COMMAND_WAKE);

	push	3
	push	esi
	call	_lua_pushinteger
	add	esp, 68					; 00000044H
	push	OFFSET $SG221124
	push	-2					; fffffffeH
	push	esi
	call	_lua_setfield

; 514  : 	RegisterEnum(COMMAND_CANCEL);

	push	4
	push	esi
	call	_lua_pushinteger
	push	OFFSET $SG221125
	push	-2					; fffffffeH
	push	esi
	call	_lua_setfield

; 515  : 	RegisterEnum(COMMAND_CANCEL_ALL);

	push	5
	push	esi
	call	_lua_pushinteger
	push	OFFSET $SG221126
	push	-2					; fffffffeH
	push	esi
	call	_lua_setfield

; 516  : 	RegisterEnum(COMMAND_STOP_AUTOMATION);

	push	6
	push	esi
	call	_lua_pushinteger
	push	OFFSET $SG221127
	push	-2					; fffffffeH
	push	esi
	call	_lua_setfield
	add	esp, 72					; 00000048H

; 517  : 	RegisterEnum(COMMAND_DELETE);

	push	7
	push	esi
	call	_lua_pushinteger
	push	OFFSET $SG221128
	push	-2					; fffffffeH
	push	esi
	call	_lua_setfield

; 518  : 	RegisterEnum(COMMAND_GIFT);

	push	8
	push	esi
	call	_lua_pushinteger
	push	OFFSET $SG221129
	push	-2					; fffffffeH
	push	esi
	call	_lua_setfield

; 519  : 	RegisterEnum(COMMAND_HOTKEY);

	push	9
	push	esi
	call	_lua_pushinteger
	push	OFFSET $SG221130
	push	-2					; fffffffeH
	push	esi
	call	_lua_setfield

; 520  : 	RegisterEnum(NUM_COMMAND_TYPES);

	push	10					; 0000000aH
	push	esi
	call	_lua_pushinteger
	add	esp, 68					; 00000044H
	push	OFFSET $SG221131
	push	-2					; fffffffeH
	push	esi
	call	_lua_setfield

; 521  : 	EnumEnd(L);

	push	1
	push	esi
	call	_lua_checkstack
	push	-2					; fffffffeH
	push	esi
	call	_lua_settop

; 522  : 
; 523  : 	// DirectionTypes
; 524  : 	EnumStart(L, "DirectionTypes");

	push	OFFSET $SG221132
	push	-10002					; ffffd8eeH
	push	esi
	call	_lua_getfield
	push	-1
	push	esi
	call	_lua_type
	add	esp, 48					; 00000030H
	test	eax, eax
	jne	SHORT $LN899@pRegister
	push	-2					; fffffffeH
	push	esi
	call	_lua_settop
	push	0
	push	0
	push	esi
	call	_lua_createtable
	push	-1
	push	esi
	call	_lua_pushvalue
	push	OFFSET $SG221132
	push	-10002					; ffffd8eeH
	push	esi
	call	_lua_setfield
	add	esp, 40					; 00000028H
$LN899@pRegister:

; 525  : 	RegisterEnum(NO_DIRECTION);

	push	-1
	push	esi
	call	_lua_pushinteger
	push	OFFSET $SG221133
	push	-2					; fffffffeH
	push	esi
	call	_lua_setfield

; 526  : 	RegisterEnum(DIRECTION_NORTHEAST);

	push	0
	push	esi
	call	_lua_pushinteger
	push	OFFSET $SG221134
	push	-2					; fffffffeH
	push	esi
	call	_lua_setfield

; 527  : 	RegisterEnum(DIRECTION_EAST);

	push	1
	push	esi
	call	_lua_pushinteger
	push	OFFSET $SG221135
	push	-2					; fffffffeH
	push	esi
	call	_lua_setfield

; 528  : 	RegisterEnum(DIRECTION_SOUTHEAST);

	push	2
	push	esi
	call	_lua_pushinteger
	add	esp, 68					; 00000044H
	push	OFFSET $SG221136
	push	-2					; fffffffeH
	push	esi
	call	_lua_setfield

; 529  : 	RegisterEnum(DIRECTION_SOUTHWEST);

	push	3
	push	esi
	call	_lua_pushinteger
	push	OFFSET $SG221137
	push	-2					; fffffffeH
	push	esi
	call	_lua_setfield

; 530  : 	RegisterEnum(DIRECTION_WEST);

	push	4
	push	esi
	call	_lua_pushinteger
	push	OFFSET $SG221138
	push	-2					; fffffffeH
	push	esi
	call	_lua_setfield

; 531  : 	RegisterEnum(DIRECTION_NORTHWEST);

	push	5
	push	esi
	call	_lua_pushinteger
	push	OFFSET $SG221139
	push	-2					; fffffffeH
	push	esi
	call	_lua_setfield
	add	esp, 72					; 00000048H

; 532  : 	RegisterEnum(NUM_DIRECTION_TYPES);

	push	6
	push	esi
	call	_lua_pushinteger
	push	OFFSET $SG221140
	push	-2					; fffffffeH
	push	esi
	call	_lua_setfield

; 533  : 	EnumEnd(L);

	push	1
	push	esi
	call	_lua_checkstack
	push	-2					; fffffffeH
	push	esi
	call	_lua_settop

; 534  : 
; 535  : 	// DiploUIStateTypes
; 536  : 	EnumStart(L, "DiploUIStateTypes");

	push	OFFSET $SG221141
	push	-10002					; ffffd8eeH
	push	esi
	call	_lua_getfield
	push	-1
	push	esi
	call	_lua_type
	add	esp, 56					; 00000038H
	test	eax, eax
	jne	SHORT $LN920@pRegister
	push	-2					; fffffffeH
	push	esi
	call	_lua_settop
	push	0
	push	0
	push	esi
	call	_lua_createtable
	push	-1
	push	esi
	call	_lua_pushvalue
	push	OFFSET $SG221141
	push	-10002					; ffffd8eeH
	push	esi
	call	_lua_setfield
	add	esp, 40					; 00000028H
$LN920@pRegister:

; 537  : 	RegisterEnum(NO_DIPLO_UI_STATE);

	push	-1
	push	esi
	call	_lua_pushinteger
	push	OFFSET $SG221142
	push	-2					; fffffffeH
	push	esi
	call	_lua_setfield

; 538  : 
; 539  : 	RegisterEnum(DIPLO_UI_STATE_DEFAULT_ROOT);

	push	0
	push	esi
	call	_lua_pushinteger
	push	OFFSET $SG221143
	push	-2					; fffffffeH
	push	esi
	call	_lua_setfield

; 540  : 
; 541  : 	RegisterEnum(DIPLO_UI_STATE_WAR_DECLARED_BY_HUMAN);

	push	1
	push	esi
	call	_lua_pushinteger
	push	OFFSET $SG221144
	push	-2					; fffffffeH
	push	esi
	call	_lua_setfield

; 542  : 	RegisterEnum(DIPLO_UI_STATE_PEACE_MADE_BY_HUMAN);

	push	2
	push	esi
	call	_lua_pushinteger
	add	esp, 68					; 00000044H
	push	OFFSET $SG221145
	push	-2					; fffffffeH
	push	esi
	call	_lua_setfield

; 543  : 
; 544  : 	RegisterEnum(DIPLO_UI_STATE_TRADE);

	push	3
	push	esi
	call	_lua_pushinteger
	push	OFFSET $SG221146
	push	-2					; fffffffeH
	push	esi
	call	_lua_setfield

; 545  : 	RegisterEnum(DIPLO_UI_STATE_TRADE_AI_MAKES_OFFER);

	push	4
	push	esi
	call	_lua_pushinteger
	push	OFFSET $SG221147
	push	-2					; fffffffeH
	push	esi
	call	_lua_setfield

; 546  : 	RegisterEnum(DIPLO_UI_STATE_TRADE_AI_ACCEPTS_OFFER);

	push	5
	push	esi
	call	_lua_pushinteger
	push	OFFSET $SG221148
	push	-2					; fffffffeH
	push	esi
	call	_lua_setfield
	add	esp, 72					; 00000048H

; 547  : 	RegisterEnum(DIPLO_UI_STATE_TRADE_AI_REJECTS_OFFER);

	push	6
	push	esi
	call	_lua_pushinteger
	push	OFFSET $SG221149
	push	-2					; fffffffeH
	push	esi
	call	_lua_setfield

; 548  : 	RegisterEnum(DIPLO_UI_STATE_TRADE_AI_MAKES_DEMAND);

	push	7
	push	esi
	call	_lua_pushinteger
	push	OFFSET $SG221150
	push	-2					; fffffffeH
	push	esi
	call	_lua_setfield

; 549  : 	RegisterEnum(DIPLO_UI_STATE_TRADE_AI_MAKES_REQUEST);

	push	8
	push	esi
	call	_lua_pushinteger
	push	OFFSET $SG221151
	push	-2					; fffffffeH
	push	esi
	call	_lua_setfield

; 550  : 	RegisterEnum(DIPLO_UI_STATE_TRADE_HUMAN_OFFERS_CONCESSIONS);

	push	9
	push	esi
	call	_lua_pushinteger
	add	esp, 68					; 00000044H
	push	OFFSET $SG221152
	push	-2					; fffffffeH
	push	esi
	call	_lua_setfield

; 551  : 
; 552  : 	RegisterEnum(DIPLO_UI_STATE_HUMAN_DEMAND);

	push	10					; 0000000aH
	push	esi
	call	_lua_pushinteger
	push	OFFSET $SG221153
	push	-2					; fffffffeH
	push	esi
	call	_lua_setfield

; 553  : 
; 554  : 	RegisterEnum(DIPLO_UI_STATE_BLANK_DISCUSSION_RETURN_TO_ROOT);

	push	11					; 0000000bH
	push	esi
	call	_lua_pushinteger
	push	OFFSET $SG221154
	push	-2					; fffffffeH
	push	esi
	call	_lua_setfield

; 555  : 	RegisterEnum(DIPLO_UI_STATE_BLANK_DISCUSSION);

	push	12					; 0000000cH
	push	esi
	call	_lua_pushinteger
	push	OFFSET $SG221155
	push	-2					; fffffffeH
	push	esi
	call	_lua_setfield
	add	esp, 72					; 00000048H

; 556  : 	RegisterEnum(DIPLO_UI_STATE_BLANK_DISCUSSION_MEAN_HUMAN);

	push	13					; 0000000dH
	push	esi
	call	_lua_pushinteger
	push	OFFSET $SG221156
	push	-2					; fffffffeH
	push	esi
	call	_lua_setfield

; 557  : 	RegisterEnum(DIPLO_UI_STATE_BLANK_DISCUSSION_MEAN_AI);

	push	14					; 0000000eH
	push	esi
	call	_lua_pushinteger
	push	OFFSET $SG221157
	push	-2					; fffffffeH
	push	esi
	call	_lua_setfield

; 558  : 	RegisterEnum(DIPLO_UI_STATE_AI_DECLARED_WAR);

	push	15					; 0000000fH
	push	esi
	call	_lua_pushinteger
	push	OFFSET $SG221158
	push	-2					; fffffffeH
	push	esi
	call	_lua_setfield

; 559  : 
; 560  : 	RegisterEnum(DIPLO_UI_STATE_DISCUSS_HUMAN_INVOKED);

	push	16					; 00000010H
	push	esi
	call	_lua_pushinteger
	add	esp, 68					; 00000044H
	push	OFFSET $SG221159
	push	-2					; fffffffeH
	push	esi
	call	_lua_setfield

; 561  : 
; 562  : 	RegisterEnum(DIPLO_UI_STATE_DISCUSS_AGGRESSIVE_MILITARY_WARNING);

	push	17					; 00000011H
	push	esi
	call	_lua_pushinteger
	push	OFFSET $SG221160
	push	-2					; fffffffeH
	push	esi
	call	_lua_setfield

; 563  : 	RegisterEnum(DIPLO_UI_STATE_DISCUSS_I_ATTACKED_YOUR_MINOR_CIV);

	push	18					; 00000012H
	push	esi
	call	_lua_pushinteger
	push	OFFSET $SG221161
	push	-2					; fffffffeH
	push	esi
	call	_lua_setfield

; 564  : 	RegisterEnum(DIPLO_UI_STATE_DISCUSS_I_BULLIED_YOUR_MINOR_CIV);

	push	19					; 00000013H
	push	esi
	call	_lua_pushinteger
	push	OFFSET $SG221162
	push	-2					; fffffffeH
	push	esi
	call	_lua_setfield
	add	esp, 72					; 00000048H

; 565  : 	RegisterEnum(DIPLO_UI_STATE_DISCUSS_YOU_ATTACKED_MINOR_CIV);

	push	20					; 00000014H
	push	esi
	call	_lua_pushinteger
	push	OFFSET $SG221163
	push	-2					; fffffffeH
	push	esi
	call	_lua_setfield

; 566  : 	RegisterEnum(DIPLO_UI_STATE_DISCUSS_YOU_KILLED_MINOR_CIV);

	push	21					; 00000015H
	push	esi
	call	_lua_pushinteger
	push	OFFSET $SG221164
	push	-2					; fffffffeH
	push	esi
	call	_lua_setfield

; 567  : 	RegisterEnum(DIPLO_UI_STATE_DISCUSS_YOU_BULLIED_MINOR_CIV);

	push	22					; 00000016H
	push	esi
	call	_lua_pushinteger
	push	OFFSET $SG221165
	push	-2					; fffffffeH
	push	esi
	call	_lua_setfield

; 568  : 	RegisterEnum(DIPLO_UI_STATE_DISCUSS_PROTECT_MINOR_CIV);

	push	23					; 00000017H
	push	esi
	call	_lua_pushinteger
	add	esp, 68					; 00000044H
	push	OFFSET $SG221166
	push	-2					; fffffffeH
	push	esi
	call	_lua_setfield

; 569  : 	RegisterEnum(DIPLO_UI_STATE_DISCUSS_YOU_EXPANSION_SERIOUS_WARNING);

	push	24					; 00000018H
	push	esi
	call	_lua_pushinteger
	push	OFFSET $SG221167
	push	-2					; fffffffeH
	push	esi
	call	_lua_setfield

; 570  : 	RegisterEnum(DIPLO_UI_STATE_DISCUSS_YOU_EXPANSION_WARNING);

	push	25					; 00000019H
	push	esi
	call	_lua_pushinteger
	push	OFFSET $SG221168
	push	-2					; fffffffeH
	push	esi
	call	_lua_setfield

; 571  : 	RegisterEnum(DIPLO_UI_STATE_DISCUSS_YOU_PLOT_BUYING_SERIOUS_WARNING);

	push	26					; 0000001aH
	push	esi
	call	_lua_pushinteger
	push	OFFSET $SG221169
	push	-2					; fffffffeH
	push	esi
	call	_lua_setfield
	add	esp, 72					; 00000048H

; 572  : 	RegisterEnum(DIPLO_UI_STATE_DISCUSS_YOU_PLOT_BUYING_WARNING);

	push	27					; 0000001bH
	push	esi
	call	_lua_pushinteger
	push	OFFSET $SG221170
	push	-2					; fffffffeH
	push	esi
	call	_lua_setfield

; 573  : 
; 574  : 	RegisterEnum(DIPLO_UI_STATE_DISCUSS_WORK_WITH_US);

	push	28					; 0000001cH
	push	esi
	call	_lua_pushinteger
	push	OFFSET $SG221171
	push	-2					; fffffffeH
	push	esi
	call	_lua_setfield

; 575  : 	RegisterEnum(DIPLO_UI_STATE_DISCUSS_WORK_AGAINST_SOMEONE);

	push	29					; 0000001dH
	push	esi
	call	_lua_pushinteger
	push	OFFSET $SG221172
	push	-2					; fffffffeH
	push	esi
	call	_lua_setfield

; 576  : 	RegisterEnum(DIPLO_UI_STATE_DISCUSS_COOP_WAR);

	push	30					; 0000001eH
	push	esi
	call	_lua_pushinteger
	add	esp, 68					; 00000044H
	push	OFFSET $SG221173
	push	-2					; fffffffeH
	push	esi
	call	_lua_setfield

; 577  : 	RegisterEnum(DIPLO_UI_STATE_DISCUSS_COOP_WAR_TIME);

	push	31					; 0000001fH
	push	esi
	call	_lua_pushinteger
	push	OFFSET $SG221174
	push	-2					; fffffffeH
	push	esi
	call	_lua_setfield

; 578  : 
; 579  : 	RegisterEnum(DIPLO_UI_STATE_DISCUSS_PLAN_RESEARCH_AGREEMENT);

	push	32					; 00000020H
	push	esi
	call	_lua_pushinteger
	push	OFFSET $SG221175
	push	-2					; fffffffeH
	push	esi
	call	_lua_setfield

; 580  : 
; 581  : 	RegisterEnum(DIPLO_UI_STATE_DISCUSS_AI_REQUEST_DENOUNCE);

	push	33					; 00000021H
	push	esi
	call	_lua_pushinteger
	push	OFFSET $SG221176
	push	-2					; fffffffeH
	push	esi
	call	_lua_setfield
	add	esp, 72					; 00000048H

; 582  : 
; 583  : 	RegisterEnum(DIPLO_UI_STATE_CAUGHT_YOUR_SPY);

	push	34					; 00000022H
	push	esi
	call	_lua_pushinteger
	push	OFFSET $SG221177
	push	-2					; fffffffeH
	push	esi
	call	_lua_setfield

; 584  : 	RegisterEnum(DIPLO_UI_STATE_KILLED_YOUR_SPY);

	push	35					; 00000023H
	push	esi
	call	_lua_pushinteger
	push	OFFSET $SG221178
	push	-2					; fffffffeH
	push	esi
	call	_lua_setfield

; 585  : 	RegisterEnum(DIPLO_UI_STATE_KILLED_MY_SPY);

	push	36					; 00000024H
	push	esi
	call	_lua_pushinteger
	push	OFFSET $SG221179
	push	-2					; fffffffeH
	push	esi
	call	_lua_setfield

; 586  : 	RegisterEnum(DIPLO_UI_STATE_CONFRONT_YOU_KILLED_MY_SPY);

	push	37					; 00000025H
	push	esi
	call	_lua_pushinteger
	add	esp, 68					; 00000044H
	push	OFFSET $SG221180
	push	-2					; fffffffeH
	push	esi
	call	_lua_setfield

; 587  : 
; 588  : 	RegisterEnum(DIPLO_UI_STATE_STOP_CONVERSIONS);

	push	38					; 00000026H
	push	esi
	call	_lua_pushinteger
	push	OFFSET $SG221181
	push	-2					; fffffffeH
	push	esi
	call	_lua_setfield

; 589  : 
; 590  : 	RegisterEnum(DIPLO_UI_STATE_STOP_DIGGING);

	push	39					; 00000027H
	push	esi
	call	_lua_pushinteger
	push	OFFSET $SG221182
	push	-2					; fffffffeH
	push	esi
	call	_lua_setfield

; 591  : 
; 592  : 	RegisterEnum(NUM_DIPLO_UI_STATES);

	push	40					; 00000028H
	push	esi
	call	_lua_pushinteger
	push	OFFSET $SG221183
	push	-2					; fffffffeH
	push	esi
	call	_lua_setfield
	add	esp, 72					; 00000048H

; 593  : 	EnumEnd(L);

	push	1
	push	esi
	call	_lua_checkstack
	push	-2					; fffffffeH
	push	esi
	call	_lua_settop

; 594  : 
; 595  : 	EnumStart(L, "FlowDirectionTypes");

	push	OFFSET $SG221184
	push	-10002					; ffffd8eeH
	push	esi
	call	_lua_getfield
	push	-1
	push	esi
	call	_lua_type
	add	esp, 36					; 00000024H
	test	eax, eax
	jne	SHORT $LN1009@pRegister
	push	-2					; fffffffeH
	push	esi
	call	_lua_settop
	push	0
	push	0
	push	esi
	call	_lua_createtable
	push	-1
	push	esi
	call	_lua_pushvalue
	push	OFFSET $SG221184
	push	-10002					; ffffd8eeH
	push	esi
	call	_lua_setfield
	add	esp, 40					; 00000028H
$LN1009@pRegister:

; 596  : 	RegisterEnum(NO_FLOWDIRECTION);

	push	-1
	push	esi
	call	_lua_pushinteger
	push	OFFSET $SG221185
	push	-2					; fffffffeH
	push	esi
	call	_lua_setfield

; 597  : 
; 598  : 	RegisterEnum(FLOWDIRECTION_NORTH);

	push	0
	push	esi
	call	_lua_pushinteger
	push	OFFSET $SG221186
	push	-2					; fffffffeH
	push	esi
	call	_lua_setfield

; 599  : 	RegisterEnum(FLOWDIRECTION_NORTHEAST);

	push	1
	push	esi
	call	_lua_pushinteger
	push	OFFSET $SG221187
	push	-2					; fffffffeH
	push	esi
	call	_lua_setfield

; 600  : 	RegisterEnum(FLOWDIRECTION_SOUTHEAST);

	push	2
	push	esi
	call	_lua_pushinteger
	add	esp, 68					; 00000044H
	push	OFFSET $SG221188
	push	-2					; fffffffeH
	push	esi
	call	_lua_setfield

; 601  : 	RegisterEnum(FLOWDIRECTION_SOUTH);

	push	3
	push	esi
	call	_lua_pushinteger
	push	OFFSET $SG221189
	push	-2					; fffffffeH
	push	esi
	call	_lua_setfield

; 602  : 	RegisterEnum(FLOWDIRECTION_SOUTHWEST);

	push	4
	push	esi
	call	_lua_pushinteger
	push	OFFSET $SG221190
	push	-2					; fffffffeH
	push	esi
	call	_lua_setfield

; 603  : 	RegisterEnum(FLOWDIRECTION_NORTHWEST);

	push	5
	push	esi
	call	_lua_pushinteger
	push	OFFSET $SG221191
	push	-2					; fffffffeH
	push	esi
	call	_lua_setfield
	add	esp, 72					; 00000048H

; 604  : 
; 605  : 	RegisterEnum(NUM_FLOWDIRECTION_TYPES);

	push	6
	push	esi
	call	_lua_pushinteger
	push	OFFSET $SG221192
	push	-2					; fffffffeH
	push	esi
	call	_lua_setfield

; 606  : 
; 607  : 	RegisterEnum(FLOWDIRECTION_NORTH_MASK);

	push	1
	push	esi
	call	_lua_pushinteger
	push	OFFSET $SG221193
	push	-2					; fffffffeH
	push	esi
	call	_lua_setfield

; 608  : 	RegisterEnum(FLOWDIRECTION_SOUTH_MASK);

	push	2
	push	esi
	call	_lua_pushinteger
	push	OFFSET $SG221194
	push	-2					; fffffffeH
	push	esi
	call	_lua_setfield

; 609  : 	RegisterEnum(FLOWDIRECTION_SOUTHEAST_MASK);

	push	4
	push	esi
	call	_lua_pushinteger
	add	esp, 68					; 00000044H
	push	OFFSET $SG221195
	push	-2					; fffffffeH
	push	esi
	call	_lua_setfield

; 610  : 	RegisterEnum(FLOWDIRECTION_NORTHWEST_MASK);

	push	8
	push	esi
	call	_lua_pushinteger
	push	OFFSET $SG221196
	push	-2					; fffffffeH
	push	esi
	call	_lua_setfield

; 611  : 	RegisterEnum(FLOWDIRECTION_SOUTHWEST_MASK);

	push	16					; 00000010H
	push	esi
	call	_lua_pushinteger
	push	OFFSET $SG221197
	push	-2					; fffffffeH
	push	esi
	call	_lua_setfield

; 612  : 	RegisterEnum(FLOWDIRECTION_NORTHEAST_MASK);

	push	32					; 00000020H
	push	esi
	call	_lua_pushinteger
	push	OFFSET $SG221198
	push	-2					; fffffffeH
	push	esi
	call	_lua_setfield
	add	esp, 72					; 00000048H

; 613  : 	EnumEnd(L);

	push	1
	push	esi
	call	_lua_checkstack
	push	-2					; fffffffeH
	push	esi
	call	_lua_settop

; 614  : 
; 615  : 	// PolicyBranchTypes
; 616  : 	EnumStart(L, "PolicyBranchTypes");

	push	OFFSET $SG221199
	push	-10002					; ffffd8eeH
	push	esi
	call	_lua_getfield
	push	-1
	push	esi
	call	_lua_type
	add	esp, 36					; 00000024H
	test	eax, eax
	jne	SHORT $LN1042@pRegister
	push	-2					; fffffffeH
	push	esi
	call	_lua_settop
	push	0
	push	0
	push	esi
	call	_lua_createtable
	push	-1
	push	esi
	call	_lua_pushvalue
	push	OFFSET $SG221199
	push	-10002					; ffffd8eeH
	push	esi
	call	_lua_setfield
	add	esp, 40					; 00000028H
$LN1042@pRegister:

; 617  : 	RegisterEnum(NO_POLICY_BRANCH_TYPE);

	push	-1
	push	esi
	call	_lua_pushinteger
	push	OFFSET $SG221200
	push	-2					; fffffffeH
	push	esi
	call	_lua_setfield

; 618  : 	EnumEnd(L);

	push	1
	push	esi
	call	_lua_checkstack
	push	-2					; fffffffeH
	push	esi
	call	_lua_settop

; 619  : 
; 620  : 	// FromUIDiploEventTypes
; 621  : 	EnumStart(L, "FromUIDiploEventTypes");

	push	OFFSET $SG221201
	push	-10002					; ffffd8eeH
	push	esi
	call	_lua_getfield
	push	-1
	push	esi
	call	_lua_type
	add	esp, 56					; 00000038H
	test	eax, eax
	jne	SHORT $LN1049@pRegister
	push	-2					; fffffffeH
	push	esi
	call	_lua_settop
	push	0
	push	0
	push	esi
	call	_lua_createtable
	push	-1
	push	esi
	call	_lua_pushvalue
	push	OFFSET $SG221201
	push	-10002					; ffffd8eeH
	push	esi
	call	_lua_setfield
	add	esp, 40					; 00000028H
$LN1049@pRegister:

; 622  : 	RegisterEnum(NO_FROM_UI_DIPLO_EVENT);

	push	-1
	push	esi
	call	_lua_pushinteger
	push	OFFSET $SG221202
	push	-2					; fffffffeH
	push	esi
	call	_lua_setfield

; 623  : 
; 624  : 	RegisterEnum(FROM_UI_DIPLO_EVENT_HUMAN_DECLARES_WAR);

	push	0
	push	esi
	call	_lua_pushinteger
	push	OFFSET $SG221203
	push	-2					; fffffffeH
	push	esi
	call	_lua_setfield

; 625  : 	RegisterEnum(FROM_UI_DIPLO_EVENT_HUMAN_NEGOTIATE_PEACE);

	push	1
	push	esi
	call	_lua_pushinteger
	push	OFFSET $SG221204
	push	-2					; fffffffeH
	push	esi
	call	_lua_setfield

; 626  : 
; 627  : 	RegisterEnum(FROM_UI_DIPLO_EVENT_HUMAN_WANTS_DISCUSSION);

	push	2
	push	esi
	call	_lua_pushinteger
	add	esp, 68					; 00000044H
	push	OFFSET $SG221205
	push	-2					; fffffffeH
	push	esi
	call	_lua_setfield

; 628  : 	RegisterEnum(FROM_UI_DIPLO_EVENT_HUMAN_DISCUSSION_DONT_SETTLE);

	push	3
	push	esi
	call	_lua_pushinteger
	push	OFFSET $SG221206
	push	-2					; fffffffeH
	push	esi
	call	_lua_setfield

; 629  : 	RegisterEnum(FROM_UI_DIPLO_EVENT_HUMAN_DISCUSSION_WORK_WITH_US);

	push	4
	push	esi
	call	_lua_pushinteger
	push	OFFSET $SG221207
	push	-2					; fffffffeH
	push	esi
	call	_lua_setfield

; 630  : 	RegisterEnum(FROM_UI_DIPLO_EVENT_HUMAN_DISCUSSION_END_WORK_WITH_US);

	push	5
	push	esi
	call	_lua_pushinteger
	push	OFFSET $SG221208
	push	-2					; fffffffeH
	push	esi
	call	_lua_setfield
	add	esp, 72					; 00000048H

; 631  : 
; 632  : 	RegisterEnum(FROM_UI_DIPLO_EVENT_DEMAND_HUMAN_REFUSAL);

	push	6
	push	esi
	call	_lua_pushinteger
	push	OFFSET $SG221209
	push	-2					; fffffffeH
	push	esi
	call	_lua_setfield

; 633  : 	RegisterEnum(FROM_UI_DIPLO_EVENT_REQUEST_HUMAN_REFUSAL);

	push	7
	push	esi
	call	_lua_pushinteger
	push	OFFSET $SG221210
	push	-2					; fffffffeH
	push	esi
	call	_lua_setfield

; 634  : 
; 635  : 	RegisterEnum(FROM_UI_DIPLO_EVENT_AGGRESSIVE_MILITARY_WARNING_RESPONSE);

	push	8
	push	esi
	call	_lua_pushinteger
	push	OFFSET $SG221211
	push	-2					; fffffffeH
	push	esi
	call	_lua_setfield

; 636  : 
; 637  : 	RegisterEnum(FROM_UI_DIPLO_EVENT_I_ATTACKED_YOUR_MINOR_CIV_RESPONSE);

	push	9
	push	esi
	call	_lua_pushinteger
	add	esp, 68					; 00000044H
	push	OFFSET $SG221212
	push	-2					; fffffffeH
	push	esi
	call	_lua_setfield

; 638  : 	RegisterEnum(FROM_UI_DIPLO_EVENT_I_BULLIED_YOUR_MINOR_CIV_RESPONSE);

	push	10					; 0000000aH
	push	esi
	call	_lua_pushinteger
	push	OFFSET $SG221213
	push	-2					; fffffffeH
	push	esi
	call	_lua_setfield

; 639  : 
; 640  : 	RegisterEnum(FROM_UI_DIPLO_EVENT_ATTACKED_MINOR_RESPONSE);

	push	11					; 0000000bH
	push	esi
	call	_lua_pushinteger
	push	OFFSET $SG221214
	push	-2					; fffffffeH
	push	esi
	call	_lua_setfield

; 641  : 	RegisterEnum(FROM_UI_DIPLO_EVENT_KILLED_MINOR_RESPONSE);

	push	12					; 0000000cH
	push	esi
	call	_lua_pushinteger
	push	OFFSET $SG221215
	push	-2					; fffffffeH
	push	esi
	call	_lua_setfield
	add	esp, 72					; 00000048H

; 642  : 	RegisterEnum(FROM_UI_DIPLO_EVENT_BULLIED_MINOR_RESPONSE);

	push	13					; 0000000dH
	push	esi
	call	_lua_pushinteger
	push	OFFSET $SG221216
	push	-2					; fffffffeH
	push	esi
	call	_lua_setfield

; 643  : 
; 644  : 	RegisterEnum(FROM_UI_DIPLO_EVENT_EXPANSION_SERIOUS_WARNING_RESPONSE);

	push	14					; 0000000eH
	push	esi
	call	_lua_pushinteger
	push	OFFSET $SG221217
	push	-2					; fffffffeH
	push	esi
	call	_lua_setfield

; 645  : 	RegisterEnum(FROM_UI_DIPLO_EVENT_EXPANSION_WARNING_RESPONSE);

	push	15					; 0000000fH
	push	esi
	call	_lua_pushinteger
	push	OFFSET $SG221218
	push	-2					; fffffffeH
	push	esi
	call	_lua_setfield

; 646  : 
; 647  : 	RegisterEnum(FROM_UI_DIPLO_EVENT_PLOT_BUYING_SERIOUS_WARNING_RESPONSE);

	push	16					; 00000010H
	push	esi
	call	_lua_pushinteger
	add	esp, 68					; 00000044H
	push	OFFSET $SG221219
	push	-2					; fffffffeH
	push	esi
	call	_lua_setfield

; 648  : 	RegisterEnum(FROM_UI_DIPLO_EVENT_PLOT_BUYING_WARNING_RESPONSE);

	push	17					; 00000011H
	push	esi
	call	_lua_pushinteger
	push	OFFSET $SG221220
	push	-2					; fffffffeH
	push	esi
	call	_lua_setfield

; 649  : 
; 650  : 	RegisterEnum(FROM_UI_DIPLO_EVENT_WORK_WITH_US_RESPONSE);

	push	18					; 00000012H
	push	esi
	call	_lua_pushinteger
	push	OFFSET $SG221221
	push	-2					; fffffffeH
	push	esi
	call	_lua_setfield

; 651  : 	RegisterEnum(FROM_UI_DIPLO_EVENT_WORK_AGAINST_SOMEONE_RESPONSE);

	push	19					; 00000013H
	push	esi
	call	_lua_pushinteger
	push	OFFSET $SG221222
	push	-2					; fffffffeH
	push	esi
	call	_lua_setfield
	add	esp, 72					; 00000048H

; 652  : 	RegisterEnum(FROM_UI_DIPLO_EVENT_DENOUNCE);

	push	20					; 00000014H
	push	esi
	call	_lua_pushinteger
	push	OFFSET $SG221223
	push	-2					; fffffffeH
	push	esi
	call	_lua_setfield

; 653  : 	RegisterEnum(FROM_UI_DIPLO_EVENT_COOP_WAR_OFFER);

	push	21					; 00000015H
	push	esi
	call	_lua_pushinteger
	push	OFFSET $SG221224
	push	-2					; fffffffeH
	push	esi
	call	_lua_setfield

; 654  : 	RegisterEnum(FROM_UI_DIPLO_EVENT_COOP_WAR_RESPONSE);

	push	22					; 00000016H
	push	esi
	call	_lua_pushinteger
	push	OFFSET $SG221225
	push	-2					; fffffffeH
	push	esi
	call	_lua_setfield

; 655  : 	RegisterEnum(FROM_UI_DIPLO_EVENT_COOP_WAR_NOW_RESPONSE);

	push	23					; 00000017H
	push	esi
	call	_lua_pushinteger
	add	esp, 68					; 00000044H
	push	OFFSET $SG221226
	push	-2					; fffffffeH
	push	esi
	call	_lua_setfield

; 656  : 
; 657  : 	RegisterEnum(FROM_UI_DIPLO_EVENT_HUMAN_DEMAND);

	push	24					; 00000018H
	push	esi
	call	_lua_pushinteger
	push	OFFSET $SG221227
	push	-2					; fffffffeH
	push	esi
	call	_lua_setfield

; 658  : 
; 659  : 	RegisterEnum(FROM_UI_DIPLO_EVENT_PLAN_RA_RESPONSE);

	push	25					; 00000019H
	push	esi
	call	_lua_pushinteger
	push	OFFSET $SG221228
	push	-2					; fffffffeH
	push	esi
	call	_lua_setfield

; 660  : 
; 661  : 	// Post Civ 5 release
; 662  : 	RegisterEnum(FROM_UI_DIPLO_EVENT_AI_REQUEST_DENOUNCE_RESPONSE);

	push	26					; 0000001aH
	push	esi
	call	_lua_pushinteger
	push	OFFSET $SG221229
	push	-2					; fffffffeH
	push	esi
	call	_lua_setfield
	add	esp, 72					; 00000048H

; 663  : 	RegisterEnum(FROM_UI_DIPLO_EVENT_CAUGHT_YOUR_SPY_RESPONSE);

	push	27					; 0000001bH
	push	esi
	call	_lua_pushinteger
	push	OFFSET $SG221230
	push	-2					; fffffffeH
	push	esi
	call	_lua_setfield

; 664  : 	RegisterEnum(FROM_UI_DIPLO_EVENT_KILLED_MY_SPY_RESPONSE);

	push	28					; 0000001cH
	push	esi
	call	_lua_pushinteger
	push	OFFSET $SG221231
	push	-2					; fffffffeH
	push	esi
	call	_lua_setfield

; 665  : 	RegisterEnum(FROM_UI_DIPLO_EVENT_HUMAN_DISCUSSION_STOP_SPYING);

	push	29					; 0000001dH
	push	esi
	call	_lua_pushinteger
	push	OFFSET $SG221232
	push	-2					; fffffffeH
	push	esi
	call	_lua_setfield

; 666  : 	RegisterEnum(FROM_UI_DIPLO_EVENT_HUMAN_DISCUSSION_SHARE_INTRIGUE);

	push	30					; 0000001eH
	push	esi
	call	_lua_pushinteger
	add	esp, 68					; 00000044H
	push	OFFSET $SG221233
	push	-2					; fffffffeH
	push	esi
	call	_lua_setfield

; 667  : 	RegisterEnum(FROM_UI_DIPLO_EVENT_HUMAN_DISCUSSION_STOP_SPREADING_RELIGION);

	push	31					; 0000001fH
	push	esi
	call	_lua_pushinteger
	push	OFFSET $SG221234
	push	-2					; fffffffeH
	push	esi
	call	_lua_setfield

; 668  : 
; 669  : 	RegisterEnum(FROM_UI_DIPLO_EVENT_STOP_CONVERSIONS);

	push	32					; 00000020H
	push	esi
	call	_lua_pushinteger
	push	OFFSET $SG221235
	push	-2					; fffffffeH
	push	esi
	call	_lua_setfield

; 670  : 
; 671  : 	RegisterEnum(FROM_UI_DIPLO_EVENT_HUMAN_DISCUSSION_STOP_DIGGING);

	push	33					; 00000021H
	push	esi
	call	_lua_pushinteger
	push	OFFSET $SG221236
	push	-2					; fffffffeH
	push	esi
	call	_lua_setfield
	add	esp, 72					; 00000048H

; 672  : 	RegisterEnum(FROM_UI_DIPLO_EVENT_STOP_DIGGING);

	push	34					; 00000022H
	push	esi
	call	_lua_pushinteger
	push	OFFSET $SG221237
	push	-2					; fffffffeH
	push	esi
	call	_lua_setfield

; 673  : 
; 674  : 	RegisterEnum(NUM_FROM_UI_DIPLO_EVENTS);

	push	35					; 00000023H
	push	esi
	call	_lua_pushinteger
	push	OFFSET $SG221238
	push	-2					; fffffffeH
	push	esi
	call	_lua_setfield

; 675  : 	EnumEnd(L);

	push	1
	push	esi
	call	_lua_checkstack
	push	-2					; fffffffeH
	push	esi
	call	_lua_settop

; 676  : 
; 677  : 	// CoopWarStates
; 678  : 	EnumStart(L, "CoopWarStates");

	push	OFFSET $SG221239
	push	-10002					; ffffd8eeH
	push	esi
	call	_lua_getfield
	add	esp, 68					; 00000044H
	push	-1
	push	esi
	call	_lua_type
	add	esp, 8
	test	eax, eax
	jne	SHORT $LN1128@pRegister
	push	-2					; fffffffeH
	push	esi
	call	_lua_settop
	push	0
	push	0
	push	esi
	call	_lua_createtable
	push	-1
	push	esi
	call	_lua_pushvalue
	push	OFFSET $SG221239
	push	-10002					; ffffd8eeH
	push	esi
	call	_lua_setfield
	add	esp, 40					; 00000028H
$LN1128@pRegister:

; 679  : 	RegisterEnum(NO_COOP_WAR_STATE);

	push	-1
	push	esi
	call	_lua_pushinteger
	push	OFFSET $SG221240
	push	-2					; fffffffeH
	push	esi
	call	_lua_setfield

; 680  : 	RegisterEnum(COOP_WAR_STATE_REJECTED);

	push	0
	push	esi
	call	_lua_pushinteger
	push	OFFSET $SG221241
	push	-2					; fffffffeH
	push	esi
	call	_lua_setfield

; 681  : 	RegisterEnum(COOP_WAR_STATE_SOON);

	push	1
	push	esi
	call	_lua_pushinteger
	push	OFFSET $SG221242
	push	-2					; fffffffeH
	push	esi
	call	_lua_setfield

; 682  : 	RegisterEnum(COOP_WAR_STATE_ACCEPTED);

	push	2
	push	esi
	call	_lua_pushinteger
	add	esp, 68					; 00000044H
	push	OFFSET $SG221243
	push	-2					; fffffffeH
	push	esi
	call	_lua_setfield

; 683  : 	RegisterEnum(NUM_COOP_WAR_STATES);

	push	3
	push	esi
	call	_lua_pushinteger
	push	OFFSET $SG221244
	push	-2					; fffffffeH
	push	esi
	call	_lua_setfield

; 684  : 	EnumEnd(L);

	push	1
	push	esi
	call	_lua_checkstack
	push	-2					; fffffffeH
	push	esi
	call	_lua_settop

; 685  : 
; 686  : 	// ThreatTypes
; 687  : 	EnumStart(L, "ThreatTypes");

	push	OFFSET $SG221245
	push	-10002					; ffffd8eeH
	push	esi
	call	_lua_getfield
	push	-1
	push	esi
	call	_lua_type
	add	esp, 68					; 00000044H
	test	eax, eax
	jne	SHORT $LN1143@pRegister
	push	-2					; fffffffeH
	push	esi
	call	_lua_settop
	push	0
	push	0
	push	esi
	call	_lua_createtable
	push	-1
	push	esi
	call	_lua_pushvalue
	push	OFFSET $SG221245
	push	-10002					; ffffd8eeH
	push	esi
	call	_lua_setfield
	add	esp, 40					; 00000028H
$LN1143@pRegister:

; 688  : 	RegisterEnum(NO_THREAT_VALUE);

	push	-1
	push	esi
	call	_lua_pushinteger
	push	OFFSET $SG221246
	push	-2					; fffffffeH
	push	esi
	call	_lua_setfield

; 689  : 	RegisterEnum(THREAT_NONE);

	push	0
	push	esi
	call	_lua_pushinteger
	push	OFFSET $SG221247
	push	-2					; fffffffeH
	push	esi
	call	_lua_setfield

; 690  : 	RegisterEnum(THREAT_MINOR);

	push	1
	push	esi
	call	_lua_pushinteger
	push	OFFSET $SG221248
	push	-2					; fffffffeH
	push	esi
	call	_lua_setfield

; 691  : 	RegisterEnum(THREAT_MAJOR);

	push	2
	push	esi
	call	_lua_pushinteger
	add	esp, 68					; 00000044H
	push	OFFSET $SG221249
	push	-2					; fffffffeH
	push	esi
	call	_lua_setfield

; 692  : 	RegisterEnum(THREAT_SEVERE);

	push	3
	push	esi
	call	_lua_pushinteger
	push	OFFSET $SG221250
	push	-2					; fffffffeH
	push	esi
	call	_lua_setfield

; 693  : 	RegisterEnum(THREAT_CRITICAL);

	push	4
	push	esi
	call	_lua_pushinteger
	push	OFFSET $SG221251
	push	-2					; fffffffeH
	push	esi
	call	_lua_setfield

; 694  : 	RegisterEnum(NUM_THREAT_VALUES);

	push	5
	push	esi
	call	_lua_pushinteger
	push	OFFSET $SG221252
	push	-2					; fffffffeH
	push	esi
	call	_lua_setfield
	add	esp, 72					; 00000048H

; 695  : 	EnumEnd(L);

	push	1
	push	esi
	call	_lua_checkstack
	push	-2					; fffffffeH
	push	esi
	call	_lua_settop

; 696  : 
; 697  : 	// DisputeLevelTypes
; 698  : 	EnumStart(L, "DisputeLevelTypes");

	push	OFFSET $SG221253
	push	-10002					; ffffd8eeH
	push	esi
	call	_lua_getfield
	push	-1
	push	esi
	call	_lua_type
	add	esp, 36					; 00000024H
	test	eax, eax
	jne	SHORT $LN1162@pRegister
	push	-2					; fffffffeH
	push	esi
	call	_lua_settop
	push	0
	push	0
	push	esi
	call	_lua_createtable
	push	-1
	push	esi
	call	_lua_pushvalue
	push	OFFSET $SG221253
	push	-10002					; ffffd8eeH
	push	esi
	call	_lua_setfield
	add	esp, 40					; 00000028H
$LN1162@pRegister:

; 699  : 	RegisterEnum(NO_DISPUTE_LEVEL);

	push	-1
	push	esi
	call	_lua_pushinteger
	push	OFFSET $SG221254
	push	-2					; fffffffeH
	push	esi
	call	_lua_setfield

; 700  : 	RegisterEnum(DISPUTE_LEVEL_NONE);

	push	0
	push	esi
	call	_lua_pushinteger
	push	OFFSET $SG221255
	push	-2					; fffffffeH
	push	esi
	call	_lua_setfield

; 701  : 	RegisterEnum(DISPUTE_LEVEL_WEAK);

	push	1
	push	esi
	call	_lua_pushinteger
	push	OFFSET $SG221256
	push	-2					; fffffffeH
	push	esi
	call	_lua_setfield

; 702  : 	RegisterEnum(DISPUTE_LEVEL_STRONG);

	push	2
	push	esi
	call	_lua_pushinteger
	add	esp, 68					; 00000044H
	push	OFFSET $SG221257
	push	-2					; fffffffeH
	push	esi
	call	_lua_setfield

; 703  : 	RegisterEnum(DISPUTE_LEVEL_FIERCE);

	push	3
	push	esi
	call	_lua_pushinteger
	push	OFFSET $SG221258
	push	-2					; fffffffeH
	push	esi
	call	_lua_setfield

; 704  : 	RegisterEnum(NUM_DISPUTE_LEVELS);

	push	4
	push	esi
	call	_lua_pushinteger
	push	OFFSET $SG221259
	push	-2					; fffffffeH
	push	esi
	call	_lua_setfield

; 705  : 	EnumEnd(L);

	push	1
	push	esi
	call	_lua_checkstack
	push	-2					; fffffffeH
	push	esi
	call	_lua_settop
	add	esp, 68					; 00000044H

; 706  : 
; 707  : 	// LeaderheadAnimationTypes
; 708  : 	EnumStart(L, "LeaderheadAnimationTypes");

	push	OFFSET $SG221260
	push	-10002					; ffffd8eeH
	push	esi
	call	_lua_getfield
	push	-1
	push	esi
	call	_lua_type
	add	esp, 20					; 00000014H
	test	eax, eax
	jne	SHORT $LN1179@pRegister
	push	-2					; fffffffeH
	push	esi
	call	_lua_settop
	push	0
	push	0
	push	esi
	call	_lua_createtable
	push	-1
	push	esi
	call	_lua_pushvalue
	push	OFFSET $SG221260
	push	-10002					; ffffd8eeH
	push	esi
	call	_lua_setfield
	add	esp, 40					; 00000028H
$LN1179@pRegister:

; 709  : 	RegisterEnum(NO_LEADERHEAD_ANIM);

	push	-1
	push	esi
	call	_lua_pushinteger
	push	OFFSET $SG221261
	push	-2					; fffffffeH
	push	esi
	call	_lua_setfield

; 710  : 	RegisterEnum(LEADERHEAD_ANIM_INTRO);

	push	1
	push	esi
	call	_lua_pushinteger
	push	OFFSET $SG221262
	push	-2					; fffffffeH
	push	esi
	call	_lua_setfield

; 711  : 	RegisterEnum(LEADERHEAD_ANIM_NEUTRAL_HELLO);

	push	2
	push	esi
	call	_lua_pushinteger
	push	OFFSET $SG221263
	push	-2					; fffffffeH
	push	esi
	call	_lua_setfield

; 712  : 	RegisterEnum(LEADERHEAD_ANIM_PEACEFUL);

	push	3
	push	esi
	call	_lua_pushinteger
	add	esp, 68					; 00000044H
	push	OFFSET $SG221264
	push	-2					; fffffffeH
	push	esi
	call	_lua_setfield

; 713  : 	RegisterEnum(LEADERHEAD_ANIM_OPENING_GLOAT);

	push	4
	push	esi
	call	_lua_pushinteger
	push	OFFSET $SG221265
	push	-2					; fffffffeH
	push	esi
	call	_lua_setfield

; 714  : 	RegisterEnum(LEADERHEAD_ANIM_DECLARE_WAR);

	push	5
	push	esi
	call	_lua_pushinteger
	push	OFFSET $SG221266
	push	-2					; fffffffeH
	push	esi
	call	_lua_setfield

; 715  : 	RegisterEnum(LEADERHEAD_ANIM_ATTACKED);

	push	6
	push	esi
	call	_lua_pushinteger
	push	OFFSET $SG221267
	push	-2					; fffffffeH
	push	esi
	call	_lua_setfield
	add	esp, 72					; 00000048H

; 716  : 	RegisterEnum(LEADERHEAD_ANIM_HATE_HELLO);

	push	7
	push	esi
	call	_lua_pushinteger
	push	OFFSET $SG221268
	push	-2					; fffffffeH
	push	esi
	call	_lua_setfield

; 717  : 	RegisterEnum(LEADERHEAD_ANIM_DEFEATED);

	push	8
	push	esi
	call	_lua_pushinteger
	push	OFFSET $SG221269
	push	-2					; fffffffeH
	push	esi
	call	_lua_setfield

; 718  : 	RegisterEnum(LEADERHEAD_ANIM_REQUEST);

	push	9
	push	esi
	call	_lua_pushinteger
	push	OFFSET $SG221270
	push	-2					; fffffffeH
	push	esi
	call	_lua_setfield

; 719  : 	RegisterEnum(LEADERHEAD_ANIM_DEMAND);

	push	10					; 0000000aH
	push	esi
	call	_lua_pushinteger
	add	esp, 68					; 00000044H
	push	OFFSET $SG221271
	push	-2					; fffffffeH
	push	esi
	call	_lua_setfield

; 720  : 	RegisterEnum(LEADERHEAD_ANIM_NEUTRAL_IDLE);

	push	11					; 0000000bH
	push	esi
	call	_lua_pushinteger
	push	OFFSET $SG221272
	push	-2					; fffffffeH
	push	esi
	call	_lua_setfield

; 721  : 	RegisterEnum(LEADERHEAD_ANIM_HATE_IDLE);

	push	12					; 0000000cH
	push	esi
	call	_lua_pushinteger
	push	OFFSET $SG221273
	push	-2					; fffffffeH
	push	esi
	call	_lua_setfield

; 722  : 	RegisterEnum(LEADERHEAD_ANIM_LETS_HEAR_IT);

	push	15					; 0000000fH
	push	esi
	call	_lua_pushinteger
	push	OFFSET $SG221274
	push	-2					; fffffffeH
	push	esi
	call	_lua_setfield
	add	esp, 72					; 00000048H

; 723  : 	RegisterEnum(LEADERHEAD_ANIM_YES);

	push	16					; 00000010H
	push	esi
	call	_lua_pushinteger
	push	OFFSET $SG221275
	push	-2					; fffffffeH
	push	esi
	call	_lua_setfield

; 724  : 	RegisterEnum(LEADERHEAD_ANIM_NO);

	push	17					; 00000011H
	push	esi
	call	_lua_pushinteger
	push	OFFSET $SG221276
	push	-2					; fffffffeH
	push	esi
	call	_lua_setfield

; 725  : 	EnumEnd(L);

	push	1
	push	esi
	call	_lua_checkstack
	push	-2					; fffffffeH
	push	esi
	call	_lua_settop

; 726  : 
; 727  : 	// TradeableItems
; 728  : 	EnumStart(L, "TradeableItems");

	push	OFFSET $SG221277
	push	-10002					; ffffd8eeH
	push	esi
	call	_lua_getfield
	add	esp, 68					; 00000044H
	push	-1
	push	esi
	call	_lua_type
	add	esp, 8
	test	eax, eax
	jne	SHORT $LN1216@pRegister
	push	-2					; fffffffeH
	push	esi
	call	_lua_settop
	push	0
	push	0
	push	esi
	call	_lua_createtable
	push	-1
	push	esi
	call	_lua_pushvalue
	push	OFFSET $SG221277
	push	-10002					; ffffd8eeH
	push	esi
	call	_lua_setfield
	add	esp, 40					; 00000028H
$LN1216@pRegister:

; 729  : 	RegisterEnum(TRADE_ITEM_NONE);

	push	-1
	push	esi
	call	_lua_pushinteger
	push	OFFSET $SG221278
	push	-2					; fffffffeH
	push	esi
	call	_lua_setfield

; 730  : 	RegisterEnum(TRADE_ITEM_GOLD);

	push	0
	push	esi
	call	_lua_pushinteger
	push	OFFSET $SG221279
	push	-2					; fffffffeH
	push	esi
	call	_lua_setfield

; 731  : 	RegisterEnum(TRADE_ITEM_GOLD_PER_TURN);

	push	1
	push	esi
	call	_lua_pushinteger
	push	OFFSET $SG221280
	push	-2					; fffffffeH
	push	esi
	call	_lua_setfield

; 732  : 	RegisterEnum(TRADE_ITEM_MAPS);

	push	2
	push	esi
	call	_lua_pushinteger
	add	esp, 68					; 00000044H
	push	OFFSET $SG221281
	push	-2					; fffffffeH
	push	esi
	call	_lua_setfield

; 733  : 	RegisterEnum(TRADE_ITEM_RESOURCES);

	push	3
	push	esi
	call	_lua_pushinteger
	push	OFFSET $SG221282
	push	-2					; fffffffeH
	push	esi
	call	_lua_setfield

; 734  : 	RegisterEnum(TRADE_ITEM_CITIES);

	push	4
	push	esi
	call	_lua_pushinteger
	push	OFFSET $SG221283
	push	-2					; fffffffeH
	push	esi
	call	_lua_setfield

; 735  : 	RegisterEnum(TRADE_ITEM_UNITS);

	push	5
	push	esi
	call	_lua_pushinteger
	push	OFFSET $SG221284
	push	-2					; fffffffeH
	push	esi
	call	_lua_setfield
	add	esp, 72					; 00000048H

; 736  : 	RegisterEnum(TRADE_ITEM_OPEN_BORDERS);

	push	6
	push	esi
	call	_lua_pushinteger
	push	OFFSET $SG221285
	push	-2					; fffffffeH
	push	esi
	call	_lua_setfield

; 737  : 	RegisterEnum(TRADE_ITEM_DEFENSIVE_PACT);

	push	7
	push	esi
	call	_lua_pushinteger
	push	OFFSET $SG221286
	push	-2					; fffffffeH
	push	esi
	call	_lua_setfield

; 738  : 	RegisterEnum(TRADE_ITEM_RESEARCH_AGREEMENT);

	push	8
	push	esi
	call	_lua_pushinteger
	push	OFFSET $SG221287
	push	-2					; fffffffeH
	push	esi
	call	_lua_setfield

; 739  : 	RegisterEnum(TRADE_ITEM_TRADE_AGREEMENT);

	push	9
	push	esi
	call	_lua_pushinteger
	add	esp, 68					; 00000044H
	push	OFFSET $SG221288
	push	-2					; fffffffeH
	push	esi
	call	_lua_setfield

; 740  : 	RegisterEnum(TRADE_ITEM_PERMANENT_ALLIANCE);

	push	10					; 0000000aH
	push	esi
	call	_lua_pushinteger
	push	OFFSET $SG221289
	push	-2					; fffffffeH
	push	esi
	call	_lua_setfield

; 741  : 	RegisterEnum(TRADE_ITEM_SURRENDER);

	push	11					; 0000000bH
	push	esi
	call	_lua_pushinteger
	push	OFFSET $SG221290
	push	-2					; fffffffeH
	push	esi
	call	_lua_setfield

; 742  : 	RegisterEnum(TRADE_ITEM_TRUCE);

	push	12					; 0000000cH
	push	esi
	call	_lua_pushinteger
	push	OFFSET $SG221291
	push	-2					; fffffffeH
	push	esi
	call	_lua_setfield
	add	esp, 72					; 00000048H

; 743  : 	RegisterEnum(TRADE_ITEM_PEACE_TREATY);

	push	13					; 0000000dH
	push	esi
	call	_lua_pushinteger
	push	OFFSET $SG221292
	push	-2					; fffffffeH
	push	esi
	call	_lua_setfield

; 744  : 	RegisterEnum(TRADE_ITEM_THIRD_PARTY_PEACE);

	push	14					; 0000000eH
	push	esi
	call	_lua_pushinteger
	push	OFFSET $SG221293
	push	-2					; fffffffeH
	push	esi
	call	_lua_setfield

; 745  : 	RegisterEnum(TRADE_ITEM_THIRD_PARTY_WAR);

	push	15					; 0000000fH
	push	esi
	call	_lua_pushinteger
	push	OFFSET $SG221294
	push	-2					; fffffffeH
	push	esi
	call	_lua_setfield

; 746  : 	RegisterEnum(TRADE_ITEM_THIRD_PARTY_EMBARGO);

	push	16					; 00000010H
	push	esi
	call	_lua_pushinteger
	add	esp, 68					; 00000044H
	push	OFFSET $SG221295
	push	-2					; fffffffeH
	push	esi
	call	_lua_setfield

; 747  : 	RegisterEnum(TRADE_ITEM_ALLOW_EMBASSY);

	push	17					; 00000011H
	push	esi
	call	_lua_pushinteger
	push	OFFSET $SG221296
	push	-2					; fffffffeH
	push	esi
	call	_lua_setfield

; 748  : 	RegisterEnum(TRADE_ITEM_DECLARATION_OF_FRIENDSHIP);

	push	18					; 00000012H
	push	esi
	call	_lua_pushinteger
	push	OFFSET $SG221297
	push	-2					; fffffffeH
	push	esi
	call	_lua_setfield

; 749  : 	RegisterEnum(TRADE_ITEM_VOTE_COMMITMENT);

	push	19					; 00000013H
	push	esi
	call	_lua_pushinteger
	push	OFFSET $SG221298
	push	-2					; fffffffeH
	push	esi
	call	_lua_setfield
	add	esp, 72					; 00000048H

; 750  : 	RegisterEnum(NUM_TRADEABLE_ITEMS);

	push	20					; 00000014H
	push	esi
	call	_lua_pushinteger
	push	OFFSET $SG221299
	push	-2					; fffffffeH
	push	esi
	call	_lua_setfield

; 751  : 	EnumEnd(L);

	push	1
	push	esi
	call	_lua_checkstack
	push	-2					; fffffffeH
	push	esi
	call	_lua_settop

; 752  : 
; 753  : 	// EndTurnBlockingTypes
; 754  : 	EnumStart(L, "EndTurnBlockingTypes");

	push	OFFSET $SG221300
	push	-10002					; ffffd8eeH
	push	esi
	call	_lua_getfield
	push	-1
	push	esi
	call	_lua_type
	add	esp, 56					; 00000038H
	test	eax, eax
	jne	SHORT $LN1265@pRegister
	push	-2					; fffffffeH
	push	esi
	call	_lua_settop
	push	0
	push	0
	push	esi
	call	_lua_createtable
	push	-1
	push	esi
	call	_lua_pushvalue
	push	OFFSET $SG221300
	push	-10002					; ffffd8eeH
	push	esi
	call	_lua_setfield
	add	esp, 40					; 00000028H
$LN1265@pRegister:

; 755  : 	RegisterEnum(NO_ENDTURN_BLOCKING_TYPE);

	push	-1
	push	esi
	call	_lua_pushinteger
	push	OFFSET $SG221301
	push	-2					; fffffffeH
	push	esi
	call	_lua_setfield

; 756  : 	RegisterEnum(ENDTURN_BLOCKING_POLICY);

	push	0
	push	esi
	call	_lua_pushinteger
	push	OFFSET $SG221302
	push	-2					; fffffffeH
	push	esi
	call	_lua_setfield

; 757  : 	RegisterEnum(ENDTURN_BLOCKING_RESEARCH);

	push	1
	push	esi
	call	_lua_pushinteger
	push	OFFSET $SG221303
	push	-2					; fffffffeH
	push	esi
	call	_lua_setfield

; 758  : 	RegisterEnum(ENDTURN_BLOCKING_PRODUCTION);

	push	2
	push	esi
	call	_lua_pushinteger
	add	esp, 68					; 00000044H
	push	OFFSET $SG221304
	push	-2					; fffffffeH
	push	esi
	call	_lua_setfield

; 759  : 	RegisterEnum(ENDTURN_BLOCKING_UNITS);

	push	3
	push	esi
	call	_lua_pushinteger
	push	OFFSET $SG221305
	push	-2					; fffffffeH
	push	esi
	call	_lua_setfield

; 760  : 	RegisterEnum(ENDTURN_BLOCKING_DIPLO_VOTE);

	push	4
	push	esi
	call	_lua_pushinteger
	push	OFFSET $SG221306
	push	-2					; fffffffeH
	push	esi
	call	_lua_setfield

; 761  : 	RegisterEnum(ENDTURN_BLOCKING_MINOR_QUEST);

	push	5
	push	esi
	call	_lua_pushinteger
	push	OFFSET $SG221307
	push	-2					; fffffffeH
	push	esi
	call	_lua_setfield
	add	esp, 72					; 00000048H

; 762  : 	RegisterEnum(ENDTURN_BLOCKING_FREE_TECH);

	push	6
	push	esi
	call	_lua_pushinteger
	push	OFFSET $SG221308
	push	-2					; fffffffeH
	push	esi
	call	_lua_setfield

; 763  : 	RegisterEnum(ENDTURN_BLOCKING_STACKED_UNITS);

	push	7
	push	esi
	call	_lua_pushinteger
	push	OFFSET $SG221309
	push	-2					; fffffffeH
	push	esi
	call	_lua_setfield

; 764  : 	RegisterEnum(ENDTURN_BLOCKING_UNIT_NEEDS_ORDERS);

	push	8
	push	esi
	call	_lua_pushinteger
	push	OFFSET $SG221310
	push	-2					; fffffffeH
	push	esi
	call	_lua_setfield

; 765  : 	RegisterEnum(ENDTURN_BLOCKING_UNIT_PROMOTION);

	push	9
	push	esi
	call	_lua_pushinteger
	add	esp, 68					; 00000044H
	push	OFFSET $SG221311
	push	-2					; fffffffeH
	push	esi
	call	_lua_setfield

; 766  : 	RegisterEnum(ENDTURN_BLOCKING_CITY_RANGE_ATTACK);

	push	10					; 0000000aH
	push	esi
	call	_lua_pushinteger
	push	OFFSET $SG221312
	push	-2					; fffffffeH
	push	esi
	call	_lua_setfield

; 767  : 	RegisterEnum(ENDTURN_BLOCKING_FREE_POLICY);

	push	11					; 0000000bH
	push	esi
	call	_lua_pushinteger
	push	OFFSET $SG221313
	push	-2					; fffffffeH
	push	esi
	call	_lua_setfield

; 768  : 	RegisterEnum(ENDTURN_BLOCKING_FREE_ITEMS);

	push	12					; 0000000cH
	push	esi
	call	_lua_pushinteger
	push	OFFSET $SG221314
	push	-2					; fffffffeH
	push	esi
	call	_lua_setfield
	add	esp, 72					; 00000048H

; 769  : 	RegisterEnum(ENDTURN_BLOCKING_FOUND_PANTHEON);

	push	13					; 0000000dH
	push	esi
	call	_lua_pushinteger
	push	OFFSET $SG221315
	push	-2					; fffffffeH
	push	esi
	call	_lua_setfield

; 770  : 	RegisterEnum(ENDTURN_BLOCKING_FOUND_RELIGION);

	push	14					; 0000000eH
	push	esi
	call	_lua_pushinteger
	push	OFFSET $SG221316
	push	-2					; fffffffeH
	push	esi
	call	_lua_setfield

; 771  : 	RegisterEnum(ENDTURN_BLOCKING_ENHANCE_RELIGION);

	push	15					; 0000000fH
	push	esi
	call	_lua_pushinteger
	push	OFFSET $SG221317
	push	-2					; fffffffeH
	push	esi
	call	_lua_setfield

; 772  : 	RegisterEnum(ENDTURN_BLOCKING_STEAL_TECH);

	push	16					; 00000010H
	push	esi
	call	_lua_pushinteger
	add	esp, 68					; 00000044H
	push	OFFSET $SG221318
	push	-2					; fffffffeH
	push	esi
	call	_lua_setfield

; 773  : 	RegisterEnum(ENDTURN_BLOCKING_MAYA_LONG_COUNT);

	push	17					; 00000011H
	push	esi
	call	_lua_pushinteger
	push	OFFSET $SG221319
	push	-2					; fffffffeH
	push	esi
	call	_lua_setfield

; 774  : 	RegisterEnum(ENDTURN_BLOCKING_FAITH_GREAT_PERSON);

	push	18					; 00000012H
	push	esi
	call	_lua_pushinteger
	push	OFFSET $SG221320
	push	-2					; fffffffeH
	push	esi
	call	_lua_setfield

; 775  : 	RegisterEnum(ENDTURN_BLOCKING_ADD_REFORMATION_BELIEF);

	push	19					; 00000013H
	push	esi
	call	_lua_pushinteger
	push	OFFSET $SG221321
	push	-2					; fffffffeH
	push	esi
	call	_lua_setfield
	add	esp, 72					; 00000048H

; 776  : 	RegisterEnum(ENDTURN_BLOCKING_LEAGUE_CALL_FOR_PROPOSALS);

	push	20					; 00000014H
	push	esi
	call	_lua_pushinteger
	push	OFFSET $SG221322
	push	-2					; fffffffeH
	push	esi
	call	_lua_setfield

; 777  : 	RegisterEnum(ENDTURN_BLOCKING_CHOOSE_ARCHAEOLOGY);

	push	21					; 00000015H
	push	esi
	call	_lua_pushinteger
	push	OFFSET $SG221323
	push	-2					; fffffffeH
	push	esi
	call	_lua_setfield

; 778  : 	RegisterEnum(ENDTURN_BLOCKING_LEAGUE_CALL_FOR_VOTES);

	push	22					; 00000016H
	push	esi
	call	_lua_pushinteger
	push	OFFSET $SG221324
	push	-2					; fffffffeH
	push	esi
	call	_lua_setfield

; 779  : 	RegisterEnum(ENDTURN_BLOCKING_CHOOSE_IDEOLOGY);

	push	23					; 00000017H
	push	esi
	call	_lua_pushinteger
	add	esp, 68					; 00000044H
	push	OFFSET $SG221325
	push	-2					; fffffffeH
	push	esi
	call	_lua_setfield

; 780  : 	RegisterEnum(NUM_ENDTURN_BLOCKING_TYPES);

	push	24					; 00000018H
	push	esi
	call	_lua_pushinteger
	push	OFFSET $SG221326
	push	-2					; fffffffeH
	push	esi
	call	_lua_setfield

; 781  : 	EnumEnd(L);

	push	1
	push	esi
	call	_lua_checkstack
	push	-2					; fffffffeH
	push	esi
	call	_lua_settop

; 782  : 
; 783  : 	// ResourceUsageTypes
; 784  : 	EnumStart(L, "ResourceUsageTypes");

	push	OFFSET $SG221327
	push	-10002					; ffffd8eeH
	push	esi
	call	_lua_getfield
	push	-1
	push	esi
	call	_lua_type
	add	esp, 68					; 00000044H
	test	eax, eax
	jne	SHORT $LN1322@pRegister
	push	-2					; fffffffeH
	push	esi
	call	_lua_settop
	push	0
	push	0
	push	esi
	call	_lua_createtable
	push	-1
	push	esi
	call	_lua_pushvalue
	push	OFFSET $SG221327
	push	-10002					; ffffd8eeH
	push	esi
	call	_lua_setfield
	add	esp, 40					; 00000028H
$LN1322@pRegister:

; 785  : 	RegisterEnum(RESOURCEUSAGE_BONUS);

	push	0
	push	esi
	call	_lua_pushinteger
	push	OFFSET $SG221328
	push	-2					; fffffffeH
	push	esi
	call	_lua_setfield

; 786  : 	RegisterEnum(RESOURCEUSAGE_STRATEGIC);

	push	1
	push	esi
	call	_lua_pushinteger
	push	OFFSET $SG221329
	push	-2					; fffffffeH
	push	esi
	call	_lua_setfield

; 787  : 	RegisterEnum(RESOURCEUSAGE_LUXURY);

	push	2
	push	esi
	call	_lua_pushinteger
	push	OFFSET $SG221330
	push	-2					; fffffffeH
	push	esi
	call	_lua_setfield

; 788  : 	RegisterEnum(NUM_RESOURCEUSAGE_TYPES);

	push	3
	push	esi
	call	_lua_pushinteger
	add	esp, 68					; 00000044H
	push	OFFSET $SG221331
	push	-2					; fffffffeH
	push	esi
	call	_lua_setfield

; 789  : 	EnumEnd(L);

	push	1
	push	esi
	call	_lua_checkstack
	push	-2					; fffffffeH
	push	esi
	call	_lua_settop

; 790  : 
; 791  : 	// MajorCivApproachTypes
; 792  : 	EnumStart(L, "MajorCivApproachTypes");

	push	OFFSET $SG221332
	push	-10002					; ffffd8eeH
	push	esi
	call	_lua_getfield
	push	-1
	push	esi
	call	_lua_type
	add	esp, 48					; 00000030H
	test	eax, eax
	jne	SHORT $LN1335@pRegister
	push	-2					; fffffffeH
	push	esi
	call	_lua_settop
	push	0
	push	0
	push	esi
	call	_lua_createtable
	push	-1
	push	esi
	call	_lua_pushvalue
	push	OFFSET $SG221332
	push	-10002					; ffffd8eeH
	push	esi
	call	_lua_setfield
	add	esp, 40					; 00000028H
$LN1335@pRegister:

; 793  : 	RegisterEnum(NO_MAJOR_CIV_APPROACH);

	push	-1
	push	esi
	call	_lua_pushinteger
	push	OFFSET $SG221333
	push	-2					; fffffffeH
	push	esi
	call	_lua_setfield

; 794  : 	RegisterEnum(MAJOR_CIV_APPROACH_WAR);

	push	0
	push	esi
	call	_lua_pushinteger
	push	OFFSET $SG221334
	push	-2					; fffffffeH
	push	esi
	call	_lua_setfield

; 795  : 	RegisterEnum(MAJOR_CIV_APPROACH_HOSTILE);

	push	1
	push	esi
	call	_lua_pushinteger
	push	OFFSET $SG221335
	push	-2					; fffffffeH
	push	esi
	call	_lua_setfield

; 796  : 	RegisterEnum(MAJOR_CIV_APPROACH_DECEPTIVE);

	push	2
	push	esi
	call	_lua_pushinteger
	add	esp, 68					; 00000044H
	push	OFFSET $SG221336
	push	-2					; fffffffeH
	push	esi
	call	_lua_setfield

; 797  : 	RegisterEnum(MAJOR_CIV_APPROACH_GUARDED);

	push	3
	push	esi
	call	_lua_pushinteger
	push	OFFSET $SG221337
	push	-2					; fffffffeH
	push	esi
	call	_lua_setfield

; 798  : 	RegisterEnum(MAJOR_CIV_APPROACH_AFRAID);

	push	4
	push	esi
	call	_lua_pushinteger
	push	OFFSET $SG221338
	push	-2					; fffffffeH
	push	esi
	call	_lua_setfield

; 799  : 	RegisterEnum(MAJOR_CIV_APPROACH_FRIENDLY);

	push	5
	push	esi
	call	_lua_pushinteger
	push	OFFSET $SG221339
	push	-2					; fffffffeH
	push	esi
	call	_lua_setfield
	add	esp, 72					; 00000048H

; 800  : 	RegisterEnum(MAJOR_CIV_APPROACH_NEUTRAL);

	push	6
	push	esi
	call	_lua_pushinteger
	push	OFFSET $SG221340
	push	-2					; fffffffeH
	push	esi
	call	_lua_setfield

; 801  : 	RegisterEnum(NUM_MAJOR_CIV_APPROACHES);

	push	7
	push	esi
	call	_lua_pushinteger
	push	OFFSET $SG221341
	push	-2					; fffffffeH
	push	esi
	call	_lua_setfield

; 802  : 	EnumEnd(L);

	push	1
	push	esi
	call	_lua_checkstack
	push	-2					; fffffffeH
	push	esi
	call	_lua_settop

; 803  : 
; 804  : 	// MinorCivTraitTypes
; 805  : 	EnumStart(L, "MinorCivTraitTypes");

	push	OFFSET $SG221342
	push	esi
	call	?EnumStart@CvLuaEnums@@KAXPAUlua_State@@PBD@Z ; CvLuaEnums::EnumStart
	add	esp, 64					; 00000040H

; 806  : 	RegisterEnum(NO_MINOR_CIV_TRAIT_TYPE);

	push	-1
	push	esi
	call	_lua_pushinteger
	push	OFFSET $SG221343
	push	-2					; fffffffeH
	push	esi
	call	_lua_setfield

; 807  : 	RegisterEnum(MINOR_CIV_TRAIT_CULTURED);

	push	0
	push	esi
	call	_lua_pushinteger
	push	OFFSET $SG221344
	push	-2					; fffffffeH
	push	esi
	call	_lua_setfield

; 808  : 	RegisterEnum(MINOR_CIV_TRAIT_MILITARISTIC);

	push	1
	push	esi
	call	_lua_pushinteger
	push	OFFSET $SG221345
	push	-2					; fffffffeH
	push	esi
	call	_lua_setfield

; 809  : 	RegisterEnum(MINOR_CIV_TRAIT_MARITIME);

	push	2
	push	esi
	call	_lua_pushinteger
	add	esp, 68					; 00000044H
	push	OFFSET $SG221346
	push	-2					; fffffffeH
	push	esi
	call	_lua_setfield

; 810  : 	RegisterEnum(MINOR_CIV_TRAIT_MERCANTILE);

	push	3
	push	esi
	call	_lua_pushinteger
	push	OFFSET $SG221347
	push	-2					; fffffffeH
	push	esi
	call	_lua_setfield

; 811  : 	RegisterEnum(MINOR_CIV_TRAIT_RELIGIOUS);

	push	4
	push	esi
	call	_lua_pushinteger
	push	OFFSET $SG221348
	push	-2					; fffffffeH
	push	esi
	call	_lua_setfield

; 812  : 	RegisterEnum(NUM_MINOR_CIV_TRAIT_TYPES);

	push	5
	push	esi
	call	_lua_pushinteger
	push	OFFSET $SG221349
	push	-2					; fffffffeH
	push	esi
	call	_lua_setfield
	add	esp, 72					; 00000048H

; 813  : 	EnumEnd(L);

	push	1
	push	esi
	call	_lua_checkstack
	push	-2					; fffffffeH
	push	esi
	call	_lua_settop

; 814  : 
; 815  : 	// MinorCivPersonalityTypes
; 816  : 	EnumStart(L, "MinorCivPersonalityTypes");

	push	OFFSET $SG221350
	push	esi
	call	?EnumStart@CvLuaEnums@@KAXPAUlua_State@@PBD@Z ; CvLuaEnums::EnumStart

; 817  : 	RegisterEnum(NO_MINOR_CIV_PERSONALITY_TYPE);

	push	-1
	push	esi
	call	_lua_pushinteger
	push	OFFSET $SG221351
	push	-2					; fffffffeH
	push	esi
	call	_lua_setfield

; 818  : 	RegisterEnum(MINOR_CIV_PERSONALITY_FRIENDLY);

	push	0
	push	esi
	call	_lua_pushinteger
	push	OFFSET $SG221352
	push	-2					; fffffffeH
	push	esi
	call	_lua_setfield
	add	esp, 64					; 00000040H

; 819  : 	RegisterEnum(MINOR_CIV_PERSONALITY_NEUTRAL);

	push	1
	push	esi
	call	_lua_pushinteger
	push	OFFSET $SG221353
	push	-2					; fffffffeH
	push	esi
	call	_lua_setfield

; 820  : 	RegisterEnum(MINOR_CIV_PERSONALITY_HOSTILE);

	push	2
	push	esi
	call	_lua_pushinteger
	push	OFFSET $SG221354
	push	-2					; fffffffeH
	push	esi
	call	_lua_setfield

; 821  : 	RegisterEnum(MINOR_CIV_PERSONALITY_IRRATIONAL);

	push	3
	push	esi
	call	_lua_pushinteger
	push	OFFSET $SG221355
	push	-2					; fffffffeH
	push	esi
	call	_lua_setfield

; 822  : 	RegisterEnum(NUM_MINOR_CIV_PERSONALITY_TYPES);

	push	4
	push	esi
	call	_lua_pushinteger
	add	esp, 68					; 00000044H
	push	OFFSET $SG221356
	push	-2					; fffffffeH
	push	esi
	call	_lua_setfield

; 823  : 	EnumEnd(L);

	push	1
	push	esi
	call	_lua_checkstack
	push	-2					; fffffffeH
	push	esi
	call	_lua_settop

; 824  : 
; 825  : 	// MinorCivQuestTypes
; 826  : 	EnumStart(L, "MinorCivQuestTypes");

	push	OFFSET $SG221357
	push	esi
	call	?EnumStart@CvLuaEnums@@KAXPAUlua_State@@PBD@Z ; CvLuaEnums::EnumStart

; 827  : 	RegisterEnum(NO_MINOR_CIV_QUEST_TYPE);

	push	-1
	push	esi
	call	_lua_pushinteger
	push	OFFSET $SG221358
	push	-2					; fffffffeH
	push	esi
	call	_lua_setfield

; 828  : 	RegisterEnum(MINOR_CIV_QUEST_ROUTE);

	push	0
	push	esi
	call	_lua_pushinteger
	add	esp, 64					; 00000040H
	push	OFFSET $SG221359
	push	-2					; fffffffeH
	push	esi
	call	_lua_setfield

; 829  : 	RegisterEnum(MINOR_CIV_QUEST_KILL_CAMP);

	push	1
	push	esi
	call	_lua_pushinteger
	push	OFFSET $SG221360
	push	-2					; fffffffeH
	push	esi
	call	_lua_setfield

; 830  : 	RegisterEnum(MINOR_CIV_QUEST_CONNECT_RESOURCE);

	push	2
	push	esi
	call	_lua_pushinteger
	push	OFFSET $SG221361
	push	-2					; fffffffeH
	push	esi
	call	_lua_setfield

; 831  : 	RegisterEnum(MINOR_CIV_QUEST_CONSTRUCT_WONDER);

	push	3
	push	esi
	call	_lua_pushinteger
	push	OFFSET $SG221362
	push	-2					; fffffffeH
	push	esi
	call	_lua_setfield
	add	esp, 72					; 00000048H

; 832  : 	RegisterEnum(MINOR_CIV_QUEST_GREAT_PERSON);

	push	4
	push	esi
	call	_lua_pushinteger
	push	OFFSET $SG221363
	push	-2					; fffffffeH
	push	esi
	call	_lua_setfield

; 833  : 	RegisterEnum(MINOR_CIV_QUEST_KILL_CITY_STATE);

	push	5
	push	esi
	call	_lua_pushinteger
	push	OFFSET $SG221364
	push	-2					; fffffffeH
	push	esi
	call	_lua_setfield

; 834  : 	RegisterEnum(MINOR_CIV_QUEST_FIND_PLAYER);

	push	6
	push	esi
	call	_lua_pushinteger
	push	OFFSET $SG221365
	push	-2					; fffffffeH
	push	esi
	call	_lua_setfield

; 835  : 	RegisterEnum(MINOR_CIV_QUEST_FIND_NATURAL_WONDER);

	push	7
	push	esi
	call	_lua_pushinteger
	add	esp, 68					; 00000044H
	push	OFFSET $SG221366
	push	-2					; fffffffeH
	push	esi
	call	_lua_setfield

; 836  : 	RegisterEnum(MINOR_CIV_QUEST_GIVE_GOLD);

	push	8
	push	esi
	call	_lua_pushinteger
	push	OFFSET $SG221367
	push	-2					; fffffffeH
	push	esi
	call	_lua_setfield

; 837  : 	RegisterEnum(MINOR_CIV_QUEST_PLEDGE_TO_PROTECT);

	push	9
	push	esi
	call	_lua_pushinteger
	push	OFFSET $SG221368
	push	-2					; fffffffeH
	push	esi
	call	_lua_setfield

; 838  : 	RegisterEnum(MINOR_CIV_QUEST_CONTEST_CULTURE);

	push	10					; 0000000aH
	push	esi
	call	_lua_pushinteger
	push	OFFSET $SG221369
	push	-2					; fffffffeH
	push	esi
	call	_lua_setfield
	add	esp, 72					; 00000048H

; 839  : 	RegisterEnum(MINOR_CIV_QUEST_CONTEST_FAITH);

	push	11					; 0000000bH
	push	esi
	call	_lua_pushinteger
	push	OFFSET $SG221370
	push	-2					; fffffffeH
	push	esi
	call	_lua_setfield

; 840  : 	RegisterEnum(MINOR_CIV_QUEST_CONTEST_TECHS);

	push	12					; 0000000cH
	push	esi
	call	_lua_pushinteger
	push	OFFSET $SG221371
	push	-2					; fffffffeH
	push	esi
	call	_lua_setfield

; 841  : 	RegisterEnum(MINOR_CIV_QUEST_INVEST);

	push	13					; 0000000dH
	push	esi
	call	_lua_pushinteger
	push	OFFSET $SG221372
	push	-2					; fffffffeH
	push	esi
	call	_lua_setfield

; 842  : 	RegisterEnum(MINOR_CIV_QUEST_BULLY_CITY_STATE);

	push	14					; 0000000eH
	push	esi
	call	_lua_pushinteger
	add	esp, 68					; 00000044H
	push	OFFSET $SG221373
	push	-2					; fffffffeH
	push	esi
	call	_lua_setfield

; 843  : 	RegisterEnum(MINOR_CIV_QUEST_DENOUNCE_MAJOR);

	push	15					; 0000000fH
	push	esi
	call	_lua_pushinteger
	push	OFFSET $SG221374
	push	-2					; fffffffeH
	push	esi
	call	_lua_setfield

; 844  : 	RegisterEnum(MINOR_CIV_QUEST_SPREAD_RELIGION);

	push	16					; 00000010H
	push	esi
	call	_lua_pushinteger
	push	OFFSET $SG221375
	push	-2					; fffffffeH
	push	esi
	call	_lua_setfield

; 845  : 	RegisterEnum(MINOR_CIV_QUEST_TRADE_ROUTE);

	push	17					; 00000011H
	push	esi
	call	_lua_pushinteger
	push	OFFSET $SG221376
	push	-2					; fffffffeH
	push	esi
	call	_lua_setfield
	add	esp, 72					; 00000048H

; 846  : 	RegisterEnum(NUM_MINOR_CIV_QUEST_TYPES);

	push	18					; 00000012H
	push	esi
	call	_lua_pushinteger
	push	OFFSET $SG221377
	push	-2					; fffffffeH
	push	esi
	call	_lua_setfield

; 847  : 	EnumEnd(L);

	push	1
	push	esi
	call	_lua_checkstack
	push	-2					; fffffffeH
	push	esi
	call	_lua_settop

; 848  : 
; 849  : 
; 850  : 	// Resource Usage
; 851  : 	EnumStart(L, "ResourceUsageTypes");

	push	OFFSET $SG221378
	push	esi
	call	?EnumStart@CvLuaEnums@@KAXPAUlua_State@@PBD@Z ; CvLuaEnums::EnumStart

; 852  : 	RegisterEnum(RESOURCEUSAGE_BONUS);

	push	0
	push	esi
	call	_lua_pushinteger
	push	OFFSET $SG221379
	push	-2					; fffffffeH
	push	esi
	call	_lua_setfield
	add	esp, 64					; 00000040H

; 853  : 	RegisterEnum(RESOURCEUSAGE_STRATEGIC);

	push	1
	push	esi
	call	_lua_pushinteger
	push	OFFSET $SG221380
	push	-2					; fffffffeH
	push	esi
	call	_lua_setfield

; 854  : 	RegisterEnum(RESOURCEUSAGE_LUXURY);

	push	2
	push	esi
	call	_lua_pushinteger
	push	OFFSET $SG221381
	push	-2					; fffffffeH
	push	esi
	call	_lua_setfield

; 855  : 	RegisterEnum(NUM_RESOURCEUSAGE_TYPES);

	push	3
	push	esi
	call	_lua_pushinteger
	push	OFFSET $SG221382
	push	-2					; fffffffeH
	push	esi
	call	_lua_setfield

; 856  : 	EnumEnd(L);

	push	1
	push	esi
	call	_lua_checkstack
	add	esp, 68					; 00000044H
	push	-2					; fffffffeH
	push	esi
	call	_lua_settop

; 857  : 
; 858  : 	// CityAIFocusTypes
; 859  : 	EnumStart(L, "CityAIFocusTypes");

	push	OFFSET $SG221383
	push	esi
	call	?EnumStart@CvLuaEnums@@KAXPAUlua_State@@PBD@Z ; CvLuaEnums::EnumStart

; 860  : 	RegisterEnum(NO_CITY_AI_FOCUS_TYPE);

	push	-1
	push	esi
	call	_lua_pushinteger
	push	OFFSET $SG221384
	push	-2					; fffffffeH
	push	esi
	call	_lua_setfield

; 861  : 	RegisterEnum(CITY_AI_FOCUS_TYPE_FOOD);

	push	0
	push	esi
	call	_lua_pushinteger
	push	OFFSET $SG221385
	push	-2					; fffffffeH
	push	esi
	call	_lua_setfield

; 862  : 	RegisterEnum(CITY_AI_FOCUS_TYPE_PRODUCTION);

	push	1
	push	esi
	call	_lua_pushinteger
	add	esp, 64					; 00000040H
	push	OFFSET $SG221386
	push	-2					; fffffffeH
	push	esi
	call	_lua_setfield

; 863  : 	RegisterEnum(CITY_AI_FOCUS_TYPE_GOLD);

	push	2
	push	esi
	call	_lua_pushinteger
	push	OFFSET $SG221387
	push	-2					; fffffffeH
	push	esi
	call	_lua_setfield

; 864  : 	RegisterEnum(CITY_AI_FOCUS_TYPE_GREAT_PEOPLE);

	push	3
	push	esi
	call	_lua_pushinteger
	push	OFFSET $SG221388
	push	-2					; fffffffeH
	push	esi
	call	_lua_setfield

; 865  : 	RegisterEnum(CITY_AI_FOCUS_TYPE_SCIENCE);

	push	4
	push	esi
	call	_lua_pushinteger
	push	OFFSET $SG221389
	push	-2					; fffffffeH
	push	esi
	call	_lua_setfield
	add	esp, 72					; 00000048H

; 866  : 	RegisterEnum(CITY_AI_FOCUS_TYPE_CULTURE);

	push	5
	push	esi
	call	_lua_pushinteger
	push	OFFSET $SG221390
	push	-2					; fffffffeH
	push	esi
	call	_lua_setfield

; 867  : 	RegisterEnum(CITY_AI_FOCUS_TYPE_PROD_GROWTH);

	push	6
	push	esi
	call	_lua_pushinteger
	push	OFFSET $SG221391
	push	-2					; fffffffeH
	push	esi
	call	_lua_setfield

; 868  : 	RegisterEnum(CITY_AI_FOCUS_TYPE_GOLD_GROWTH);

	push	7
	push	esi
	call	_lua_pushinteger
	push	OFFSET $SG221392
	push	-2					; fffffffeH
	push	esi
	call	_lua_setfield

; 869  : 	RegisterEnum(CITY_AI_FOCUS_TYPE_FAITH);

	push	8
	push	esi
	call	_lua_pushinteger
	add	esp, 68					; 00000044H
	push	OFFSET $SG221393
	push	-2					; fffffffeH
	push	esi
	call	_lua_setfield

; 870  : 	RegisterEnum(NUM_CITY_AI_FOCUS_TYPES);

	push	9
	push	esi
	call	_lua_pushinteger
	push	OFFSET $SG221394
	push	-2					; fffffffeH
	push	esi
	call	_lua_setfield

; 871  : 	EnumEnd(L);

	push	1
	push	esi
	call	_lua_checkstack
	push	-2					; fffffffeH
	push	esi
	call	_lua_settop

; 872  : 
; 873  : 	// Resource Usage
; 874  : 	EnumStart(L, "AdvisorTypes");

	push	OFFSET $SG221395
	push	esi
	call	?EnumStart@CvLuaEnums@@KAXPAUlua_State@@PBD@Z ; CvLuaEnums::EnumStart

; 875  : 	RegisterEnum(NO_ADVISOR_TYPE);

	push	-1
	push	esi
	call	_lua_pushinteger
	add	esp, 64					; 00000040H
	push	OFFSET $SG221396
	push	-2					; fffffffeH
	push	esi
	call	_lua_setfield

; 876  : 	RegisterEnum(ADVISOR_ECONOMIC);

	push	1
	push	esi
	call	_lua_pushinteger
	push	OFFSET $SG221397
	push	-2					; fffffffeH
	push	esi
	call	_lua_setfield

; 877  : 	RegisterEnum(ADVISOR_MILITARY);

	push	0
	push	esi
	call	_lua_pushinteger
	push	OFFSET $SG221398
	push	-2					; fffffffeH
	push	esi
	call	_lua_setfield

; 878  : 	RegisterEnum(ADVISOR_FOREIGN);

	push	2
	push	esi
	call	_lua_pushinteger
	push	OFFSET $SG221399
	push	-2					; fffffffeH
	push	esi
	call	_lua_setfield
	add	esp, 72					; 00000048H

; 879  : 	RegisterEnum(ADVISOR_SCIENCE);

	push	3
	push	esi
	call	_lua_pushinteger
	push	OFFSET $SG221400
	push	-2					; fffffffeH
	push	esi
	call	_lua_setfield

; 880  : 	RegisterEnum(NUM_ADVISOR_TYPES);

	push	4
	push	esi
	call	_lua_pushinteger
	push	OFFSET $SG221401
	push	-2					; fffffffeH
	push	esi
	call	_lua_setfield

; 881  : 	EnumEnd(L);

	push	1
	push	esi
	call	_lua_checkstack
	push	-2					; fffffffeH
	push	esi
	call	_lua_settop

; 882  : 
; 883  : 	// GenericWorldAnchorTypes
; 884  : 	EnumStart(L, "GenericWorldAnchorTypes");

	push	OFFSET $SG221402
	push	esi
	call	?EnumStart@CvLuaEnums@@KAXPAUlua_State@@PBD@Z ; CvLuaEnums::EnumStart
	add	esp, 64					; 00000040H

; 885  : 	RegisterEnum(NO_WORLD_ANCHOR);

	push	-1
	push	esi
	call	_lua_pushinteger
	push	OFFSET $SG221403
	push	-2					; fffffffeH
	push	esi
	call	_lua_setfield

; 886  : 	RegisterEnum(WORLD_ANCHOR_NATURAL_WONDER);

	push	0
	push	esi
	call	_lua_pushinteger
	push	OFFSET $SG221404
	push	-2					; fffffffeH
	push	esi
	call	_lua_setfield

; 887  : 	RegisterEnum(WORLD_ANCHOR_SETTLER);

	push	1
	push	esi
	call	_lua_pushinteger
	push	OFFSET $SG221405
	push	-2					; fffffffeH
	push	esi
	call	_lua_setfield

; 888  : 	RegisterEnum(WORLD_ANCHOR_WORKER);

	push	2
	push	esi
	call	_lua_pushinteger
	add	esp, 68					; 00000044H
	push	OFFSET $SG221406
	push	-2					; fffffffeH
	push	esi
	call	_lua_setfield

; 889  : 	RegisterEnum(NUM_WORLD_ANCHORS);

	push	3
	push	esi
	call	_lua_pushinteger
	push	OFFSET $SG221407
	push	-2					; fffffffeH
	push	esi
	call	_lua_setfield

; 890  : 	EnumEnd(L);

	push	1
	push	esi
	call	_lua_checkstack
	push	-2					; fffffffeH
	push	esi
	call	_lua_settop

; 891  : 
; 892  : 	// Game States
; 893  : 	EnumStart(L, "GameStates");

	push	OFFSET $SG221408
	push	esi
	call	?EnumStart@CvLuaEnums@@KAXPAUlua_State@@PBD@Z ; CvLuaEnums::EnumStart

; 894  : 	pRegisterEnum(L, "MainMenu", 0);

	push	0
	push	esi
	call	_lua_pushinteger
	add	esp, 64					; 00000040H
	push	OFFSET $SG221409
	push	-2					; fffffffeH
	push	esi
	call	_lua_setfield

; 895  : 	pRegisterEnum(L, "MainGameView", 1);

	push	1
	push	esi
	call	_lua_pushinteger
	push	OFFSET $SG221410
	push	-2					; fffffffeH
	push	esi
	call	_lua_setfield

; 896  : 	pRegisterEnum(L, "GameLoad", 2);

	push	2
	push	esi
	call	_lua_pushinteger
	push	OFFSET $SG221411
	push	-2					; fffffffeH
	push	esi
	call	_lua_setfield

; 897  : 	pRegisterEnum(L, "LeaderHead", 3);

	push	3
	push	esi
	call	_lua_pushinteger
	push	OFFSET $SG221412
	push	-2					; fffffffeH
	push	esi
	call	_lua_setfield
	add	esp, 72					; 00000048H

; 898  : 	pRegisterEnum(L, "NUM_GAME_STATES", 4);

	push	4
	push	esi
	call	_lua_pushinteger
	push	OFFSET $SG221413
	push	-2					; fffffffeH
	push	esi
	call	_lua_setfield

; 899  : 	EnumEnd(L);

	push	1
	push	esi
	call	_lua_checkstack
	push	-2					; fffffffeH
	push	esi
	call	_lua_settop

; 900  : 
; 901  : 	// Gameplay Game States (not to be confused with the engine game states above)
; 902  : 	EnumStart(L, "GameplayGameStateTypes");

	push	OFFSET $SG221414
	push	esi
	call	?EnumStart@CvLuaEnums@@KAXPAUlua_State@@PBD@Z ; CvLuaEnums::EnumStart

; 903  : 	RegisterEnum(GAMESTATE_ON);

	push	0
	push	esi
	call	_lua_pushinteger
	push	OFFSET $SG221415
	push	-2					; fffffffeH
	push	esi
	call	_lua_setfield
	add	esp, 64					; 00000040H

; 904  : 	RegisterEnum(GAMESTATE_OVER);

	push	1
	push	esi
	call	_lua_pushinteger
	push	OFFSET $SG221416
	push	-2					; fffffffeH
	push	esi
	call	_lua_setfield

; 905  : 	RegisterEnum(GAMESTATE_EXTENDED);

	push	2
	push	esi
	call	_lua_pushinteger
	push	OFFSET $SG221417
	push	-2					; fffffffeH
	push	esi
	call	_lua_setfield

; 906  : 	EnumEnd(L);

	push	1
	push	esi
	call	_lua_checkstack
	push	-2					; fffffffeH
	push	esi
	call	_lua_settop

; 907  : 
; 908  : 	//
; 909  : 	EnumStart(L, "CombatPredictionTypes");

	push	OFFSET $SG221418
	push	esi
	call	?EnumStart@CvLuaEnums@@KAXPAUlua_State@@PBD@Z ; CvLuaEnums::EnumStart
	add	esp, 64					; 00000040H

; 910  : 	RegisterEnum(NO_COMBAT_PREDICTION);

	push	-1
	push	esi
	call	_lua_pushinteger
	push	OFFSET $SG221419
	push	-2					; fffffffeH
	push	esi
	call	_lua_setfield

; 911  : 	RegisterEnum(COMBAT_PREDICTION_RANGED);

	push	0
	push	esi
	call	_lua_pushinteger
	push	OFFSET $SG221420
	push	-2					; fffffffeH
	push	esi
	call	_lua_setfield

; 912  : 	RegisterEnum(COMBAT_PREDICTION_STALEMATE);

	push	1
	push	esi
	call	_lua_pushinteger
	push	OFFSET $SG221421
	push	-2					; fffffffeH
	push	esi
	call	_lua_setfield

; 913  : 	RegisterEnum(COMBAT_PREDICTION_TOTAL_DEFEAT);

	push	2
	push	esi
	call	_lua_pushinteger
	add	esp, 68					; 00000044H
	push	OFFSET $SG221422
	push	-2					; fffffffeH
	push	esi
	call	_lua_setfield

; 914  : 	RegisterEnum(COMBAT_PREDICTION_TOTAL_VICTORY);

	push	3
	push	esi
	call	_lua_pushinteger
	push	OFFSET $SG221423
	push	-2					; fffffffeH
	push	esi
	call	_lua_setfield

; 915  : 	RegisterEnum(COMBAT_PREDICTION_MAJOR_VICTORY);

	push	4
	push	esi
	call	_lua_pushinteger
	push	OFFSET $SG221424
	push	-2					; fffffffeH
	push	esi
	call	_lua_setfield

; 916  : 	RegisterEnum(COMBAT_PREDICTION_SMALL_VICTORY);

	push	5
	push	esi
	call	_lua_pushinteger
	push	OFFSET $SG221425
	push	-2					; fffffffeH
	push	esi
	call	_lua_setfield
	add	esp, 72					; 00000048H

; 917  : 	RegisterEnum(COMBAT_PREDICTION_MAJOR_DEFEAT);

	push	6
	push	esi
	call	_lua_pushinteger
	push	OFFSET $SG221426
	push	-2					; fffffffeH
	push	esi
	call	_lua_setfield

; 918  : 	RegisterEnum(COMBAT_PREDICTION_SMALL_DEFEAT);

	push	7
	push	esi
	call	_lua_pushinteger
	push	OFFSET $SG221427
	push	-2					; fffffffeH
	push	esi
	call	_lua_setfield

; 919  : 	RegisterEnum(NUM_COMBAT_PREDICTIONS);

	push	8
	push	esi
	call	_lua_pushinteger
	push	OFFSET $SG221428
	push	-2					; fffffffeH
	push	esi
	call	_lua_setfield

; 920  : 	EnumEnd(L);

	push	1
	push	esi
	call	_lua_checkstack
	add	esp, 68					; 00000044H
	push	-2					; fffffffeH
	push	esi
	call	_lua_settop

; 921  : 
; 922  : 	EnumStart(L, "ChatTargetTypes");

	push	OFFSET $SG221429
	push	esi
	call	?EnumStart@CvLuaEnums@@KAXPAUlua_State@@PBD@Z ; CvLuaEnums::EnumStart

; 923  : 	RegisterEnum(NO_CHATTARGET);

	push	-1
	push	esi
	call	_lua_pushinteger
	push	OFFSET $SG221430
	push	-2					; fffffffeH
	push	esi
	call	_lua_setfield

; 924  : 	RegisterEnum(CHATTARGET_ALL);

	push	-2					; fffffffeH
	push	esi
	call	_lua_pushinteger
	push	OFFSET $SG221431
	push	-2					; fffffffeH
	push	esi
	call	_lua_setfield

; 925  : 	RegisterEnum(CHATTARGET_TEAM);

	push	-3					; fffffffdH
	push	esi
	call	_lua_pushinteger
	add	esp, 64					; 00000040H
	push	OFFSET $SG221432
	push	-2					; fffffffeH
	push	esi
	call	_lua_setfield

; 926  : 	RegisterEnum(CHATTARGET_PLAYER);

	push	-4					; fffffffcH
	push	esi
	call	_lua_pushinteger
	push	OFFSET $SG221433
	push	-2					; fffffffeH
	push	esi
	call	_lua_setfield

; 927  : 	EnumEnd(L);

	push	1
	push	esi
	call	_lua_checkstack
	push	-2					; fffffffeH
	push	esi
	call	_lua_settop

; 928  : 
; 929  : 	EnumStart(L, "ReligionTypes");

	push	OFFSET $SG221434
	push	esi
	call	?EnumStart@CvLuaEnums@@KAXPAUlua_State@@PBD@Z ; CvLuaEnums::EnumStart

; 930  : 	RegisterEnum(NO_RELIGION);

	push	-1
	push	esi
	call	_lua_pushinteger
	add	esp, 64					; 00000040H
	push	OFFSET $SG221435
	push	-2					; fffffffeH
	push	esi
	call	_lua_setfield

; 931  : 	RegisterEnum(RELIGION_PANTHEON);

	push	0
	push	esi
	call	_lua_pushinteger
	push	OFFSET $SG221436
	push	-2					; fffffffeH
	push	esi
	call	_lua_setfield

; 932  : 	EnumEnd(L);

	push	1
	push	esi
	call	_lua_checkstack
	push	-2					; fffffffeH
	push	esi
	call	_lua_settop

; 933  : 
; 934  : 	EnumStart(L, "BeliefTypes");

	push	OFFSET $SG221437
	push	esi
	call	?EnumStart@CvLuaEnums@@KAXPAUlua_State@@PBD@Z ; CvLuaEnums::EnumStart

; 935  : 	RegisterEnum(NO_BELIEF);

	push	-1
	push	esi
	call	_lua_pushinteger
	add	esp, 64					; 00000040H
	push	OFFSET $SG221438
	push	-2					; fffffffeH
	push	esi
	call	_lua_setfield

; 936  : 	EnumEnd(L);

	push	1
	push	esi
	call	_lua_checkstack
	push	-2					; fffffffeH
	push	esi
	call	_lua_settop

; 937  : 
; 938  : 	EnumStart(L, "FaithPurchaseTypes");

	push	OFFSET $SG221439
	push	esi
	call	?EnumStart@CvLuaEnums@@KAXPAUlua_State@@PBD@Z ; CvLuaEnums::EnumStart

; 939  : 	RegisterEnum(NO_AUTOMATIC_FAITH_PURCHASE);

	push	0
	push	esi
	call	_lua_pushinteger
	push	OFFSET $SG221440
	push	-2					; fffffffeH
	push	esi
	call	_lua_setfield

; 940  : 	RegisterEnum(FAITH_PURCHASE_SAVE_PROPHET);

	push	1
	push	esi
	call	_lua_pushinteger
	add	esp, 64					; 00000040H
	push	OFFSET $SG221441
	push	-2					; fffffffeH
	push	esi
	call	_lua_setfield

; 941  : 	RegisterEnum(FAITH_PURCHASE_UNIT);

	push	3
	push	esi
	call	_lua_pushinteger
	push	OFFSET $SG221442
	push	-2					; fffffffeH
	push	esi
	call	_lua_setfield

; 942  : 	RegisterEnum(FAITH_PURCHASE_BUILDING);

	push	2
	push	esi
	call	_lua_pushinteger
	push	OFFSET $SG221443
	push	-2					; fffffffeH
	push	esi
	call	_lua_setfield

; 943  : 	EnumEnd(L);

	push	1
	push	esi
	call	_lua_checkstack
	push	-2					; fffffffeH
	push	esi
	call	_lua_settop
	add	esp, 68					; 00000044H

; 944  : 
; 945  : 	EnumStart(L, "ResolutionDecisionTypes");

	push	OFFSET $SG221444
	push	esi
	call	?EnumStart@CvLuaEnums@@KAXPAUlua_State@@PBD@Z ; CvLuaEnums::EnumStart

; 946  : 	RegisterEnum(RESOLUTION_DECISION_NONE);

	push	0
	push	esi
	call	_lua_pushinteger
	push	OFFSET $SG221445
	push	-2					; fffffffeH
	push	esi
	call	_lua_setfield

; 947  : 	RegisterEnum(RESOLUTION_DECISION_YES_OR_NO);

	push	1
	push	esi
	call	_lua_pushinteger
	push	OFFSET $SG221446
	push	-2					; fffffffeH
	push	esi
	call	_lua_setfield

; 948  : 	RegisterEnum(RESOLUTION_DECISION_ANY_MEMBER);

	push	2
	push	esi
	call	_lua_pushinteger
	push	OFFSET $SG221447
	push	-2					; fffffffeH
	push	esi
	call	_lua_setfield
	add	esp, 68					; 00000044H

; 949  : 	RegisterEnum(RESOLUTION_DECISION_CITY);

	push	3
	push	esi
	call	_lua_pushinteger
	push	OFFSET $SG221448
	push	-2					; fffffffeH
	push	esi
	call	_lua_setfield

; 950  : 	RegisterEnum(RESOLUTION_DECISION_ANY_LUXURY_RESOURCE);

	push	4
	push	esi
	call	_lua_pushinteger
	push	OFFSET $SG221449
	push	-2					; fffffffeH
	push	esi
	call	_lua_setfield

; 951  : 	RegisterEnum(RESOLUTION_DECISION_REPEAL);

	push	5
	push	esi
	call	_lua_pushinteger
	push	OFFSET $SG221450
	push	-2					; fffffffeH
	push	esi
	call	_lua_setfield

; 952  : 	RegisterEnum(RESOLUTION_DECISION_MAJOR_CIV_MEMBER);

	push	6
	push	esi
	call	_lua_pushinteger
	add	esp, 68					; 00000044H
	push	OFFSET $SG221451
	push	-2					; fffffffeH
	push	esi
	call	_lua_setfield

; 953  : 	RegisterEnum(RESOLUTION_DECISION_OTHER_MAJOR_CIV_MEMBER);

	push	7
	push	esi
	call	_lua_pushinteger
	push	OFFSET $SG221452
	push	-2					; fffffffeH
	push	esi
	call	_lua_setfield

; 954  : 	RegisterEnum(NUM_RESOLUTION_DECISIONS);

	push	10					; 0000000aH
	push	esi
	call	_lua_pushinteger
	push	OFFSET $SG221453
	push	-2					; fffffffeH
	push	esi
	call	_lua_setfield

; 955  : 	EnumEnd(L);

	push	1
	push	esi
	call	_lua_checkstack
	push	-2					; fffffffeH
	push	esi
	call	_lua_settop
	add	esp, 68					; 00000044H

; 956  : 
; 957  : 	EnumStart(L, "InfluenceLevelTypes");

	push	OFFSET $SG221454
	push	esi
	call	?EnumStart@CvLuaEnums@@KAXPAUlua_State@@PBD@Z ; CvLuaEnums::EnumStart

; 958  : 	RegisterEnum(NO_INFLUENCE_LEVEL);

	push	-1
	push	esi
	call	_lua_pushinteger
	push	OFFSET $SG221455
	push	-2					; fffffffeH
	push	esi
	call	_lua_setfield

; 959  : 	RegisterEnum(INFLUENCE_LEVEL_UNKNOWN);

	push	0
	push	esi
	call	_lua_pushinteger
	push	OFFSET $SG221456
	push	-2					; fffffffeH
	push	esi
	call	_lua_setfield

; 960  : 	RegisterEnum(INFLUENCE_LEVEL_EXOTIC);

	push	1
	push	esi
	call	_lua_pushinteger
	push	OFFSET $SG221457
	push	-2					; fffffffeH
	push	esi
	call	_lua_setfield
	add	esp, 68					; 00000044H

; 961  : 	RegisterEnum(INFLUENCE_LEVEL_FAMILIAR);

	push	2
	push	esi
	call	_lua_pushinteger
	push	OFFSET $SG221458
	push	-2					; fffffffeH
	push	esi
	call	_lua_setfield

; 962  : 	RegisterEnum(INFLUENCE_LEVEL_POPULAR);

	push	3
	push	esi
	call	_lua_pushinteger
	push	OFFSET $SG221459
	push	-2					; fffffffeH
	push	esi
	call	_lua_setfield

; 963  : 	RegisterEnum(INFLUENCE_LEVEL_INFLUENTIAL);

	push	4
	push	esi
	call	_lua_pushinteger
	push	OFFSET $SG221460
	push	-2					; fffffffeH
	push	esi
	call	_lua_setfield

; 964  : 	RegisterEnum(INFLUENCE_LEVEL_DOMINANT);

	push	5
	push	esi
	call	_lua_pushinteger
	add	esp, 68					; 00000044H
	push	OFFSET $SG221461
	push	-2					; fffffffeH
	push	esi
	call	_lua_setfield

; 965  : 	EnumEnd(L);

	push	1
	push	esi
	call	_lua_checkstack
	push	-2					; fffffffeH
	push	esi
	call	_lua_settop

; 966  : 
; 967  : 	EnumStart(L, "InfluenceLevelTrend");

	push	OFFSET $SG221462
	push	esi
	call	?EnumStart@CvLuaEnums@@KAXPAUlua_State@@PBD@Z ; CvLuaEnums::EnumStart

; 968  : 	RegisterEnum(INFLUENCE_TREND_FALLING);

	push	-1
	push	esi
	call	_lua_pushinteger
	push	OFFSET $SG221463
	push	-2					; fffffffeH
	push	esi
	call	_lua_setfield

; 969  : 	RegisterEnum(INFLUENCE_TREND_STATIC);

	push	0
	push	esi
	call	_lua_pushinteger
	add	esp, 64					; 00000040H
	push	OFFSET $SG221464
	push	-2					; fffffffeH
	push	esi
	call	_lua_setfield

; 970  : 	RegisterEnum(INFLUENCE_TREND_RISING);

	push	1
	push	esi
	call	_lua_pushinteger
	push	OFFSET $SG221465
	push	-2					; fffffffeH
	push	esi
	call	_lua_setfield

; 971  : 	EnumEnd(L);

	push	1
	push	esi
	call	_lua_checkstack
	push	-2					; fffffffeH
	push	esi
	call	_lua_settop

; 972  : 
; 973  : 	EnumStart(L, "PublicOpinionTypes");

	push	OFFSET $SG221466
	push	esi
	call	?EnumStart@CvLuaEnums@@KAXPAUlua_State@@PBD@Z ; CvLuaEnums::EnumStart

; 974  : 	RegisterEnum(NO_PUBLIC_OPINION);

	push	-1
	push	esi
	call	_lua_pushinteger
	add	esp, 64					; 00000040H
	push	OFFSET $SG221467
	push	-2					; fffffffeH
	push	esi
	call	_lua_setfield

; 975  : 	RegisterEnum(PUBLIC_OPINION_CONTENT);

	push	0
	push	esi
	call	_lua_pushinteger
	push	OFFSET $SG221468
	push	-2					; fffffffeH
	push	esi
	call	_lua_setfield

; 976  : 	RegisterEnum(PUBLIC_OPINION_DISSIDENTS);

	push	1
	push	esi
	call	_lua_pushinteger
	push	OFFSET $SG221469
	push	-2					; fffffffeH
	push	esi
	call	_lua_setfield

; 977  : 	RegisterEnum(PUBLIC_OPINION_CIVIL_RESISTANCE);

	push	2
	push	esi
	call	_lua_pushinteger
	push	OFFSET $SG221470
	push	-2					; fffffffeH
	push	esi
	call	_lua_setfield
	add	esp, 72					; 00000048H

; 978  : 	RegisterEnum(PUBLIC_OPINION_REVOLUTIONARY_WAVE);

	push	3
	push	esi
	call	_lua_pushinteger
	push	OFFSET $SG221471
	push	-2					; fffffffeH
	push	esi
	call	_lua_setfield

; 979  : 	EnumEnd(L);

	push	1
	push	esi
	call	_lua_checkstack
	push	-2					; fffffffeH
	push	esi
	call	_lua_settop

; 980  : 
; 981  : 	EnumStart(L, "ControlTypes");

	push	OFFSET $SG221472
	push	esi
	call	?EnumStart@CvLuaEnums@@KAXPAUlua_State@@PBD@Z ; CvLuaEnums::EnumStart

; 982  : 	RegisterEnum(NO_CONTROL);

	push	-1
	push	esi
	call	_lua_pushinteger
	push	OFFSET $SG221473
	push	-2					; fffffffeH
	push	esi
	call	_lua_setfield
	add	esp, 64					; 00000040H

; 983  : 	RegisterEnum(CONTROL_CENTERONSELECTION);

	push	0
	push	esi
	call	_lua_pushinteger
	push	OFFSET $SG221474
	push	-2					; fffffffeH
	push	esi
	call	_lua_setfield

; 984  : 	RegisterEnum(CONTROL_SELECTYUNITTYPE);

	push	1
	push	esi
	call	_lua_pushinteger
	push	OFFSET $SG221475
	push	-2					; fffffffeH
	push	esi
	call	_lua_setfield

; 985  : 	RegisterEnum(CONTROL_SELECTYUNITALL);

	push	2
	push	esi
	call	_lua_pushinteger
	push	OFFSET $SG221476
	push	-2					; fffffffeH
	push	esi
	call	_lua_setfield

; 986  : 	RegisterEnum(CONTROL_SELECTCITY);

	push	3
	push	esi
	call	_lua_pushinteger
	add	esp, 68					; 00000044H
	push	OFFSET $SG221477
	push	-2					; fffffffeH
	push	esi
	call	_lua_setfield

; 987  : 	RegisterEnum(CONTROL_SELECTCAPITAL);

	push	4
	push	esi
	call	_lua_pushinteger
	push	OFFSET $SG221478
	push	-2					; fffffffeH
	push	esi
	call	_lua_setfield

; 988  : 	RegisterEnum(CONTROL_NEXTCITY);

	push	5
	push	esi
	call	_lua_pushinteger
	push	OFFSET $SG221479
	push	-2					; fffffffeH
	push	esi
	call	_lua_setfield

; 989  : 	RegisterEnum(CONTROL_PREVCITY);

	push	6
	push	esi
	call	_lua_pushinteger
	push	OFFSET $SG221480
	push	-2					; fffffffeH
	push	esi
	call	_lua_setfield
	add	esp, 72					; 00000048H

; 990  : 	RegisterEnum(CONTROL_NEXTUNIT);

	push	7
	push	esi
	call	_lua_pushinteger
	push	OFFSET $SG221481
	push	-2					; fffffffeH
	push	esi
	call	_lua_setfield

; 991  : 	RegisterEnum(CONTROL_PREVUNIT);

	push	8
	push	esi
	call	_lua_pushinteger
	push	OFFSET $SG221482
	push	-2					; fffffffeH
	push	esi
	call	_lua_setfield

; 992  : 	RegisterEnum(CONTROL_CYCLEUNIT);

	push	9
	push	esi
	call	_lua_pushinteger
	push	OFFSET $SG221483
	push	-2					; fffffffeH
	push	esi
	call	_lua_setfield

; 993  : 	RegisterEnum(CONTROL_CYCLEUNIT_ALT);

	push	10					; 0000000aH
	push	esi
	call	_lua_pushinteger
	add	esp, 68					; 00000044H
	push	OFFSET $SG221484
	push	-2					; fffffffeH
	push	esi
	call	_lua_setfield

; 994  : 	RegisterEnum(CONTROL_CYCLEWORKER);

	push	11					; 0000000bH
	push	esi
	call	_lua_pushinteger
	push	OFFSET $SG221485
	push	-2					; fffffffeH
	push	esi
	call	_lua_setfield

; 995  : 	RegisterEnum(CONTROL_LASTUNIT);

	push	12					; 0000000cH
	push	esi
	call	_lua_pushinteger
	push	OFFSET $SG221486
	push	-2					; fffffffeH
	push	esi
	call	_lua_setfield

; 996  : 	RegisterEnum(CONTROL_ENDTURN);

	push	13					; 0000000dH
	push	esi
	call	_lua_pushinteger
	push	OFFSET $SG221487
	push	-2					; fffffffeH
	push	esi
	call	_lua_setfield
	add	esp, 72					; 00000048H

; 997  : 	RegisterEnum(CONTROL_ENDTURN_ALT);

	push	14					; 0000000eH
	push	esi
	call	_lua_pushinteger
	push	OFFSET $SG221488
	push	-2					; fffffffeH
	push	esi
	call	_lua_setfield

; 998  : 	RegisterEnum(CONTROL_FORCEENDTURN);

	push	15					; 0000000fH
	push	esi
	call	_lua_pushinteger
	push	OFFSET $SG221489
	push	-2					; fffffffeH
	push	esi
	call	_lua_setfield

; 999  : 	RegisterEnum(CONTROL_AUTOMOVES);

	push	16					; 00000010H
	push	esi
	call	_lua_pushinteger
	push	OFFSET $SG221490
	push	-2					; fffffffeH
	push	esi
	call	_lua_setfield

; 1000 : 	RegisterEnum(CONTROL_PING);

	push	17					; 00000011H
	push	esi
	call	_lua_pushinteger
	add	esp, 68					; 00000044H
	push	OFFSET $SG221491
	push	-2					; fffffffeH
	push	esi
	call	_lua_setfield

; 1001 : 	RegisterEnum(CONTROL_YIELDS);

	push	18					; 00000012H
	push	esi
	call	_lua_pushinteger
	push	OFFSET $SG221492
	push	-2					; fffffffeH
	push	esi
	call	_lua_setfield

; 1002 : 	RegisterEnum(CONTROL_RESOURCE_ALL);

	push	19					; 00000013H
	push	esi
	call	_lua_pushinteger
	push	OFFSET $SG221493
	push	-2					; fffffffeH
	push	esi
	call	_lua_setfield

; 1003 : 	RegisterEnum(CONTROL_UNIT_ICONS);

	push	20					; 00000014H
	push	esi
	call	_lua_pushinteger
	push	OFFSET $SG221494
	push	-2					; fffffffeH
	push	esi
	call	_lua_setfield
	add	esp, 72					; 00000048H

; 1004 : 	RegisterEnum(CONTROL_SCORES);

	push	21					; 00000015H
	push	esi
	call	_lua_pushinteger
	push	OFFSET $SG221495
	push	-2					; fffffffeH
	push	esi
	call	_lua_setfield

; 1005 : 	RegisterEnum(CONTROL_LOAD_GAME);

	push	22					; 00000016H
	push	esi
	call	_lua_pushinteger
	push	OFFSET $SG221496
	push	-2					; fffffffeH
	push	esi
	call	_lua_setfield

; 1006 : 	RegisterEnum(CONTROL_OPTIONS_SCREEN);

	push	23					; 00000017H
	push	esi
	call	_lua_pushinteger
	push	OFFSET $SG221497
	push	-2					; fffffffeH
	push	esi
	call	_lua_setfield

; 1007 : 	RegisterEnum(CONTROL_RETIRE);

	push	24					; 00000018H
	push	esi
	call	_lua_pushinteger
	add	esp, 68					; 00000044H
	push	OFFSET $SG221498
	push	-2					; fffffffeH
	push	esi
	call	_lua_setfield

; 1008 : 	RegisterEnum(CONTROL_SAVE_GROUP);

	push	25					; 00000019H
	push	esi
	call	_lua_pushinteger
	push	OFFSET $SG221499
	push	-2					; fffffffeH
	push	esi
	call	_lua_setfield

; 1009 : 	RegisterEnum(CONTROL_SAVE_NORMAL);

	push	26					; 0000001aH
	push	esi
	call	_lua_pushinteger
	push	OFFSET $SG221500
	push	-2					; fffffffeH
	push	esi
	call	_lua_setfield

; 1010 : 	RegisterEnum(CONTROL_QUICK_SAVE);

	push	27					; 0000001bH
	push	esi
	call	_lua_pushinteger
	push	OFFSET $SG221501
	push	-2					; fffffffeH
	push	esi
	call	_lua_setfield
	add	esp, 72					; 00000048H

; 1011 : 	RegisterEnum(CONTROL_QUICK_LOAD);

	push	28					; 0000001cH
	push	esi
	call	_lua_pushinteger
	push	OFFSET $SG221502
	push	-2					; fffffffeH
	push	esi
	call	_lua_setfield

; 1012 : 	RegisterEnum(CONTROL_CIVILOPEDIA);

	push	29					; 0000001dH
	push	esi
	call	_lua_pushinteger
	push	OFFSET $SG221503
	push	-2					; fffffffeH
	push	esi
	call	_lua_setfield

; 1013 : 	RegisterEnum(CONTROL_POLICIES_SCREEN);

	push	30					; 0000001eH
	push	esi
	call	_lua_pushinteger
	push	OFFSET $SG221504
	push	-2					; fffffffeH
	push	esi
	call	_lua_setfield

; 1014 : 	RegisterEnum(CONTROL_FOREIGN_SCREEN);

	push	31					; 0000001fH
	push	esi
	call	_lua_pushinteger
	add	esp, 68					; 00000044H
	push	OFFSET $SG221505
	push	-2					; fffffffeH
	push	esi
	call	_lua_setfield

; 1015 : 	RegisterEnum(CONTROL_MILITARY_SCREEN);

	push	32					; 00000020H
	push	esi
	call	_lua_pushinteger
	push	OFFSET $SG221506
	push	-2					; fffffffeH
	push	esi
	call	_lua_setfield

; 1016 : 	RegisterEnum(CONTROL_TECH_CHOOSER);

	push	33					; 00000021H
	push	esi
	call	_lua_pushinteger
	push	OFFSET $SG221507
	push	-2					; fffffffeH
	push	esi
	call	_lua_setfield

; 1017 : 	RegisterEnum(CONTROL_TURN_LOG);

	push	34					; 00000022H
	push	esi
	call	_lua_pushinteger
	push	OFFSET $SG221508
	push	-2					; fffffffeH
	push	esi
	call	_lua_setfield
	add	esp, 72					; 00000048H

; 1018 : 	RegisterEnum(CONTROL_DOMESTIC_SCREEN);

	push	35					; 00000023H
	push	esi
	call	_lua_pushinteger
	push	OFFSET $SG221509
	push	-2					; fffffffeH
	push	esi
	call	_lua_setfield

; 1019 : 	RegisterEnum(CONTROL_VICTORY_SCREEN);

	push	36					; 00000024H
	push	esi
	call	_lua_pushinteger
	push	OFFSET $SG221510
	push	-2					; fffffffeH
	push	esi
	call	_lua_setfield

; 1020 : 	RegisterEnum(CONTROL_INFO);

	push	37					; 00000025H
	push	esi
	call	_lua_pushinteger
	push	OFFSET $SG221511
	push	-2					; fffffffeH
	push	esi
	call	_lua_setfield

; 1021 : 	RegisterEnum(CONTROL_SELECT_HEALTHY);

	push	38					; 00000026H
	push	esi
	call	_lua_pushinteger
	add	esp, 68					; 00000044H
	push	OFFSET $SG221512
	push	-2					; fffffffeH
	push	esi
	call	_lua_setfield

; 1022 : 	RegisterEnum(CONTROL_TOGGLE_STRATEGIC_VIEW);

	push	39					; 00000027H
	push	esi
	call	_lua_pushinteger
	push	OFFSET $SG221513
	push	-2					; fffffffeH
	push	esi
	call	_lua_setfield

; 1023 : 	RegisterEnum(CONTROL_ADVISOR_COUNSEL);

	push	40					; 00000028H
	push	esi
	call	_lua_pushinteger
	push	OFFSET $SG221514
	push	-2					; fffffffeH
	push	esi
	call	_lua_setfield

; 1024 : 	RegisterEnum(CONTROL_ESPIONAGE_OVERVIEW);

	push	41					; 00000029H
	push	esi
	call	_lua_pushinteger
	push	OFFSET $SG221515
	push	-2					; fffffffeH
	push	esi
	call	_lua_setfield
	add	esp, 72					; 00000048H

; 1025 : 	RegisterEnum(CONTROL_RELIGION_OVERVIEW);

	push	42					; 0000002aH
	push	esi
	call	_lua_pushinteger
	push	OFFSET $SG221516
	push	-2					; fffffffeH
	push	esi
	call	_lua_setfield

; 1026 : 	RegisterEnum(CONTROL_RESTART_GAME);

	push	43					; 0000002bH
	push	esi
	call	_lua_pushinteger
	push	OFFSET $SG221517
	push	-2					; fffffffeH
	push	esi
	call	_lua_setfield

; 1027 : 	EnumEnd(L);

	push	1
	push	esi
	call	_lua_checkstack
	push	-2					; fffffffeH
	push	esi
	call	_lua_settop
	add	esp, 56					; 00000038H

; 1028 : 
; 1029 : 	return 0;

	xor	eax, eax
	pop	esi

; 1030 : }

	pop	ecx
	ret	0
?pRegister@CvLuaEnums@@KAHPAUlua_State@@@Z ENDP		; CvLuaEnums::pRegister
_TEXT	ENDS
PUBLIC	?Register@CvLuaEnums@@SAXPAUlua_State@@@Z	; CvLuaEnums::Register
EXTRN	?CCallWithErrorHandling@Details@FLua@@YA_NPAUlua_State@@P6AH0@ZPAX@Z:PROC ; FLua::Details::CCallWithErrorHandling
; Function compile flags: /Ogtpy
;	COMDAT ?Register@CvLuaEnums@@SAXPAUlua_State@@@Z
_TEXT	SEGMENT
_L$ = 8							; size = 4
?Register@CvLuaEnums@@SAXPAUlua_State@@@Z PROC		; CvLuaEnums::Register, COMDAT

; 27   : 	FLua::Details::CCallWithErrorHandling(L, pRegister);

	mov	eax, DWORD PTR _L$[esp-4]
	push	0
	push	OFFSET ?pRegister@CvLuaEnums@@KAHPAUlua_State@@@Z ; CvLuaEnums::pRegister
	push	eax
	call	?CCallWithErrorHandling@Details@FLua@@YA_NPAUlua_State@@P6AH0@ZPAX@Z ; FLua::Details::CCallWithErrorHandling
	add	esp, 12					; 0000000cH

; 28   : }

	ret	0
?Register@CvLuaEnums@@SAXPAUlua_State@@@Z ENDP		; CvLuaEnums::Register
_TEXT	ENDS
END
