; Listing generated by Microsoft (R) Optimizing Compiler Version 15.00.30729.01 

	TITLE	c:\Users\EnormousApplePie\Desktop\Cleanup (v1)\Lekmod Files\Lekmod DLL versions\v30\LEKMOD_DLL\CvGameCoreDLL_Expansion2\Lua\CvLuaUnit.cpp
	.686P
	.XMM
	include listing.inc
	.model	flat

INCLUDELIB MSVCRT
INCLUDELIB OLDNAMES

PUBLIC	?NO_QUEST_DATA@CvMinorCivQuest@@2HB		; CvMinorCivQuest::NO_QUEST_DATA
PUBLIC	?NO_TURN@CvMinorCivQuest@@2HB			; CvMinorCivQuest::NO_TURN
CONST	SEGMENT
$SG221232 DB	'Instance no longer exists.', 00H
	ORG $+1
$SG221237 DB	'IsNone', 00H
	ORG $+1
$SG221238 DB	'Convert', 00H
$SG221239 DB	'Kill', 00H
	ORG $+3
$SG221240 DB	'IsActionRecommended', 00H
$SG221241 DB	'IsBetterDefenderThan', 00H
	ORG $+3
$SG221242 DB	'CanDoCommand', 00H
	ORG $+3
$SG221243 DB	'DoCommand', 00H
	ORG $+2
$SG221244 DB	'GetPathEndTurnPlot', 00H
	ORG $+1
$SG221245 DB	'GeneratePath', 00H
	ORG $+3
$SG221246 DB	'CanEnterTerritory', 00H
	ORG $+2
$SG221247 DB	'GetDeclareWarRangeStrike', 00H
	ORG $+3
$SG221248 DB	'CanMoveOrAttackInto', 00H
$SG221249 DB	'CanMoveThrough', 00H
	ORG $+1
$SG221250 DB	'JumpToNearestValidPlot', 00H
	ORG $+1
$SG221251 DB	'GetCombatDamage', 00H
$SG221252 DB	'GetFireSupportUnit', 00H
	ORG $+1
$SG221253 DB	'CanAutomate', 00H
$SG221254 DB	'CanScrap', 00H
	ORG $+3
$SG221255 DB	'GetScrapGold', 00H
	ORG $+3
$SG221256 DB	'CanGift', 00H
$SG221257 DB	'CanDistanceGift', 00H
$SG221258 DB	'CanLoadUnit', 00H
$SG221259 DB	'CanLoad', 00H
$SG221260 DB	'CanUnload', 00H
	ORG $+2
$SG221261 DB	'CanUnloadAll', 00H
	ORG $+3
$SG221262 DB	'CanHold', 00H
$SG221263 DB	'CanSleep', 00H
	ORG $+3
$SG221264 DB	'CanFortify', 00H
	ORG $+1
$SG221265 DB	'CanAirPatrol', 00H
	ORG $+3
$SG221266 DB	'IsEmbarked', 00H
	ORG $+1
$SG221267 DB	'SetEmbarked', 00H
$SG221268 DB	'CanHeal', 00H
$SG221269 DB	'CanSentry', 00H
	ORG $+2
$SG221270 DB	'CanEmbark', 00H
	ORG $+2
$SG221271 DB	'CanDisembark', 00H
	ORG $+3
$SG221272 DB	'CanEmbarkOnto', 00H
	ORG $+2
$SG221273 DB	'CanDisembarkOnto', 00H
	ORG $+3
$SG221274 DB	'CanRebaseAt', 00H
$SG221275 DB	'Embark', 00H
	ORG $+1
$SG221276 DB	'IsRangeAttackIgnoreLOS', 00H
	ORG $+1
$SG221277 DB	'CanAirlift', 00H
	ORG $+1
$SG221278 DB	'CanAirliftAt', 00H
	ORG $+3
$SG221279 DB	'IsNukeVictim', 00H
	ORG $+3
$SG221280 DB	'CanNuke', 00H
$SG221281 DB	'CanNukeAt', 00H
	ORG $+2
$SG221282 DB	'CanRangeStrike', 00H
	ORG $+1
$SG221283 DB	'CanRangeStrikeAt', 00H
	ORG $+3
$SG221284 DB	'CanParadrop', 00H
$SG221285 DB	'CanParadropAt', 00H
	ORG $+2
$SG221286 DB	'CanMakeTradeRoute', 00H
	ORG $+2
$SG221287 DB	'CanMakeTradeRouteAt', 00H
$SG221288 DB	'GetExoticGoodsGoldAmount', 00H
	ORG $+3
$SG221289 DB	'GetExoticGoodsXPAmount', 00H
	ORG $+1
$SG221290 DB	'CanPillage', 00H
	ORG $+1
$SG221291 DB	'IsSelected', 00H
	ORG $+1
$SG221292 DB	'CanFound', 00H
	ORG $+3
$SG221293 DB	'CanJoin', 00H
$SG221294 DB	'CanConstruct', 00H
	ORG $+3
$SG221295 DB	'CanDiscover', 00H
$SG221296 DB	'GetDiscoverAmount', 00H
	ORG $+2
$SG221297 DB	'GetHurryProduction', 00H
	ORG $+1
$SG221298 DB	'GetTradeGold', 00H
	ORG $+3
$SG221299 DB	'GetTradeInfluence', 00H
	ORG $+2
$SG221300 DB	'CanTrade', 00H
	ORG $+3
$SG221301 DB	'CanBuyCityState', 00H
$SG221302 DB	'CanRepairFleet', 00H
	ORG $+1
$SG221303 DB	'CanBuildSpaceship', 00H
	ORG $+2
$SG221304 DB	'CanGoldenAge', 00H
	ORG $+3
$SG221305 DB	'GetGoldenAgeTurns', 00H
	ORG $+2
$SG221306 DB	'GetGivePoliciesCulture', 00H
	ORG $+1
$SG221307 DB	'GetBlastTourism', 00H
$SG221308 DB	'CanBuild', 00H
	ORG $+3
$SG221309 DB	'CanLead', 00H
$SG221310 DB	'Lead', 00H
	ORG $+3
$SG221311 DB	'CanGiveExperience', 00H
	ORG $+2
$SG221312 DB	'GiveExperience', 00H
	ORG $+1
$SG221313 DB	'CanPromote', 00H
	ORG $+1
$SG221314 DB	'Promote', 00H
$SG221315 DB	'GetUpgradeUnitType', 00H
	ORG $+1
$SG221316 DB	'UpgradePrice', 00H
	ORG $+3
$SG221317 DB	'CanUpgradeRightNow', 00H
	ORG $+1
$SG221318 DB	'GetNumResourceNeededToUpgrade', 00H
	ORG $+2
$SG221319 DB	'GetHandicapType', 00H
$SG221320 DB	'GetCivilizationType', 00H
$SG221321 DB	'GetSpecialUnitType', 00H
	ORG $+1
$SG221322 DB	'GetCaptureUnitType', 00H
	ORG $+1
$SG221323 DB	'GetUnitCombatType', 00H
	ORG $+2
$SG221324 DB	'GetUnitAIType', 00H
	ORG $+2
$SG221325 DB	'SetUnitAIType', 00H
	ORG $+2
$SG221326 DB	'GetDomainType', 00H
	ORG $+2
$SG221327 DB	'GetInvisibleType', 00H
	ORG $+3
$SG221328 DB	'GetSeeInvisibleType', 00H
$SG221329 DB	'GetDropRange', 00H
	ORG $+3
$SG221330 DB	'FlavorValue', 00H
$SG221331 DB	'IsBarbarian', 00H
$SG221332 DB	'IsHuman', 00H
$SG221333 DB	'VisibilityRange', 00H
$SG221334 DB	'MaxMoves', 00H
	ORG $+3
$SG221335 DB	'MovesLeft', 00H
	ORG $+2
$SG221336 DB	'CanMove', 00H
$SG221337 DB	'HasMoved', 00H
	ORG $+3
$SG221338 DB	'Range', 00H
	ORG $+2
$SG221339 DB	'NukeDamageLevel', 00H
$SG221340 DB	'CanBuildRoute', 00H
	ORG $+2
$SG221341 DB	'GetBuildType', 00H
	ORG $+3
$SG221342 DB	'WorkRate', 00H
	ORG $+3
$SG221343 DB	'IsNoBadGoodies', 00H
	ORG $+1
$SG221344 DB	'IsOnlyDefensive', 00H
$SG221345 DB	'IsNoCapture', 00H
$SG221346 DB	'IsRivalTerritory', 00H
	ORG $+3
$SG221347 DB	'IsFound', 00H
$SG221348 DB	'IsWork', 00H
	ORG $+1
$SG221349 DB	'IsGoldenAge', 00H
$SG221350 DB	'IsNearFriendlyMinor', 00H
$SG221351 DB	'CanCoexistWithEnemyUnit', 00H
$SG221352 DB	'IsGreatPerson', 00H
	ORG $+2
$SG221353 DB	'IsFighting', 00H
	ORG $+1
$SG221354 DB	'IsAttacking', 00H
$SG221355 DB	'IsDefending', 00H
$SG221356 DB	'IsInCombat', 00H
	ORG $+1
$SG221357 DB	'GetMaxHitPoints', 00H
$SG221358 DB	'GetCurrHitPoints', 00H
	ORG $+3
$SG221359 DB	'IsHurt', 00H
	ORG $+1
$SG221360 DB	'IsDead', 00H
	ORG $+1
$SG221361 DB	'IsDelayedDeath', 00H
	ORG $+1
$SG221362 DB	'SetBaseCombatStrength', 00H
	ORG $+2
$SG221363 DB	'GetBaseCombatStrength', 00H
	ORG $+2
$SG221364 DB	'GetMaxAttackStrength', 00H
	ORG $+3
$SG221365 DB	'GetMaxDefenseStrength', 00H
	ORG $+2
$SG221366 DB	'GetEmbarkedUnitDefense', 00H
	ORG $+1
$SG221367 DB	'IsCombatUnit', 00H
	ORG $+3
$SG221368 DB	'IsCanDefend', 00H
$SG221369 DB	'CanSiege', 00H
	ORG $+3
$SG221370 DB	'IsCanAttackWithMove', 00H
$SG221371 DB	'IsCanAttackRanged', 00H
	ORG $+2
$SG221372 DB	'IsCanAttack', 00H
$SG221373 DB	'IsCanAttackWithMoveNow', 00H
	ORG $+1
$SG221374 DB	'IsEnemyInMovementRange', 00H
	ORG $+1
$SG221375 DB	'IsTrade', 00H
$SG221376 DB	'GetBaseRangedCombatStrength', 00H
$SG221377 DB	'GetMaxRangedCombatStrength', 00H
	ORG $+1
$SG221378 DB	'GetCombatLimit', 00H
	ORG $+1
$SG221379 DB	'GetRangedCombatLimit', 00H
	ORG $+3
$SG221380 DB	'CanAirAttack', 00H
	ORG $+3
$SG221381 DB	'CanAirDefend', 00H
	ORG $+3
$SG221382 DB	'GetAirCombatDamage', 00H
	ORG $+1
$SG221383 DB	'GetRangeCombatDamage', 00H
	ORG $+3
$SG221384 DB	'GetAirStrikeDefenseDamage', 00H
	ORG $+2
$SG221385 DB	'GetBestInterceptor', 00H
	ORG $+1
$SG221386 DB	'GetInterceptorCount', 00H
$SG221387 DB	'GetBestSeaPillageInterceptor', 00H
	ORG $+3
$SG221388 DB	'GetCaptureChance', 00H
	ORG $+3
$SG221389 DB	'IsAutomated', 00H
$SG221390 DB	'IsWaiting', 00H
	ORG $+2
$SG221391 DB	'IsFortifyable', 00H
	ORG $+2
$SG221392 DB	'IsEverFortifyable', 00H
	ORG $+2
$SG221393 DB	'FortifyModifier', 00H
$SG221394 DB	'ExperienceNeeded', 00H
	ORG $+3
$SG221395 DB	'AttackXPValue', 00H
	ORG $+2
$SG221396 DB	'DefenseXPValue', 00H
	ORG $+1
$SG221397 DB	'MaxXPValue', 00H
	ORG $+1
$SG221398 DB	'FirstStrikes', 00H
	ORG $+3
$SG221399 DB	'ChanceFirstStrikes', 00H
	ORG $+1
$SG221400 DB	'MaxFirstStrikes', 00H
$SG221401 DB	'IsRanged', 00H
	ORG $+3
$SG221402 DB	'IsMustSetUpToRangedAttack', 00H
	ORG $+2
$SG221403 DB	'CanSetUpForRangedAttack', 00H
$SG221404 DB	'IsSetUpForRangedAttack', 00H
	ORG $+1
$SG221405 DB	'ImmuneToFirstStrikes', 00H
	ORG $+3
$SG221406 DB	'NoDefensiveBonus', 00H
	ORG $+3
$SG221407 DB	'IgnoreBuildingDefense', 00H
	ORG $+2
$SG221408 DB	'CanMoveImpassable', 00H
	ORG $+2
$SG221409 DB	'CanMoveAllTerrain', 00H
	ORG $+2
$SG221410 DB	'FlatMovementCost', 00H
	ORG $+3
$SG221411 DB	'IgnoreTerrainCost', 00H
	ORG $+2
$SG221412 DB	'IsNeverInvisible', 00H
	ORG $+3
$SG221413 DB	'IsInvisible', 00H
$SG221414 DB	'IsNukeImmune', 00H
	ORG $+3
$SG221415 DB	'IsRangeAttackOnlyInDomain', 00H
	ORG $+2
$SG221416 DB	'IsCityAttackOnly', 00H
	ORG $+3
$SG221417 DB	'MaxInterceptionProbability', 00H
	ORG $+1
$SG221418 DB	'CurrInterceptionProbability', 00H
$SG221419 DB	'EvasionProbability', 00H
	ORG $+1
$SG221420 DB	'WithdrawalProbability', 00H
	ORG $+2
$SG221421 DB	'GetAdjacentModifier', 00H
$SG221422 DB	'GetAttackModifier', 00H
	ORG $+2
$SG221423 DB	'GetDefenseModifier', 00H
	ORG $+1
$SG221424 DB	'GetRangedAttackModifier', 00H
$SG221425 DB	'CityAttackModifier', 00H
	ORG $+1
$SG221426 DB	'CityDefenseModifier', 00H
$SG221427 DB	'HillsAttackModifier', 00H
$SG221428 DB	'HeavyChargeDownhillModifier', 00H
$SG221429 DB	'HillsDefenseModifier', 00H
	ORG $+3
$SG221430 DB	'RoughAttackModifier', 00H
$SG221431 DB	'OpenAttackModifier', 00H
	ORG $+1
$SG221432 DB	'OpenRangedAttackModifier', 00H
	ORG $+3
$SG221433 DB	'OpenDefenseModifier', 00H
$SG221434 DB	'RoughRangedAttackModifier', 00H
	ORG $+2
$SG221435 DB	'AttackFortifiedModifier', 00H
$SG221436 DB	'AttackWoundedModifier', 00H
	ORG $+2
$SG221437 DB	'FlankAttackModifier', 00H
$SG221438 DB	'RoughDefenseModifier', 00H
	ORG $+3
$SG221439 DB	'TerrainAttackModifier', 00H
	ORG $+2
$SG221440 DB	'TerrainDefenseModifier', 00H
	ORG $+1
$SG221441 DB	'FeatureAttackModifier', 00H
	ORG $+2
$SG221442 DB	'FeatureDefenseModifier', 00H
	ORG $+1
$SG221443 DB	'UnitClassAttackModifier', 00H
$SG221444 DB	'UnitClassDefenseModifier', 00H
	ORG $+3
$SG221445 DB	'UnitCombatModifier', 00H
	ORG $+1
$SG221446 DB	'DomainModifier', 00H
	ORG $+1
$SG221447 DB	'GetStrategicResourceCombatPenalty', 00H
	ORG $+2
$SG221448 DB	'GetUnhappinessCombatPenalty', 00H
$SG221449 DB	'AirSweepCombatMod', 00H
	ORG $+2
$SG221450 DB	'CapitalDefenseModifier', 00H
	ORG $+1
$SG221451 DB	'CapitalDefenseFalloff', 00H
	ORG $+2
$SG221452 DB	'SpecialCargo', 00H
	ORG $+3
$SG221453 DB	'DomainCargo', 00H
$SG221454 DB	'CargoSpace', 00H
	ORG $+1
$SG221455 DB	'ChangeCargoSpace', 00H
	ORG $+3
$SG221456 DB	'IsFull', 00H
	ORG $+1
$SG221457 DB	'CargoSpaceAvailable', 00H
$SG221458 DB	'HasCargo', 00H
	ORG $+3
$SG221459 DB	'CanCargoAllMove', 00H
$SG221460 DB	'GetUnitAICargo', 00H
	ORG $+1
$SG221461 DB	'GetID', 00H
	ORG $+2
$SG221462 DB	'GetHotKeyNumber', 00H
$SG221463 DB	'SetHotKeyNumber', 00H
$SG221464 DB	'GetX', 00H
	ORG $+3
$SG221465 DB	'GetY', 00H
	ORG $+3
$SG221466 DB	'SetXY', 00H
	ORG $+2
$SG221467 DB	'At', 00H
	ORG $+1
$SG221468 DB	'AtPlot', 00H
	ORG $+1
$SG221469 DB	'GetPlot', 00H
$SG221470 DB	'GetArea', 00H
$SG221471 DB	'GetReconPlot', 00H
	ORG $+3
$SG221472 DB	'SetReconPlot', 00H
	ORG $+3
$SG221473 DB	'GetGameTurnCreated', 00H
	ORG $+1
$SG221474 DB	'GetLastMoveTurn', 00H
$SG221475 DB	'GetDamage', 00H
	ORG $+2
$SG221476 DB	'SetDamage', 00H
	ORG $+2
$SG221477 DB	'ChangeDamage', 00H
	ORG $+3
$SG221478 DB	'GetMoves', 00H
	ORG $+3
$SG221479 DB	'SetMoves', 00H
	ORG $+3
$SG221480 DB	'ChangeMoves', 00H
$SG221481 DB	'FinishMoves', 00H
$SG221482 DB	'IsImmobile', 00H
	ORG $+1
$SG221483 DB	'GetExperience', 00H
	ORG $+2
$SG221484 DB	'SetExperience', 00H
	ORG $+2
$SG221485 DB	'ChangeExperience', 00H
	ORG $+3
$SG221486 DB	'GetLevel', 00H
	ORG $+3
$SG221487 DB	'SetLevel', 00H
	ORG $+3
$SG221488 DB	'ChangeLevel', 00H
$SG221489 DB	'GetFacingDirection', 00H
	ORG $+1
$SG221490 DB	'RotateFacingDirectionClockwise', 00H
	ORG $+1
$SG221491 DB	'RotateFacingDirectionCounterClockwise', 00H
	ORG $+2
$SG221492 DB	'GetCargo', 00H
	ORG $+3
$SG221493 DB	'GetFortifyTurns', 00H
$SG221494 DB	'GetBlitzCount', 00H
	ORG $+2
$SG221495 DB	'IsBlitz', 00H
$SG221496 DB	'GetAmphibCount', 00H
	ORG $+1
$SG221497 DB	'IsAmphib', 00H
	ORG $+3
$SG221498 DB	'GetRiverCrossingNoPenaltyCount', 00H
	ORG $+1
$SG221499 DB	'IsRiverCrossingNoPenalty', 00H
	ORG $+3
$SG221500 DB	'IsEnemyRoute', 00H
	ORG $+3
$SG221501 DB	'IsAlwaysHeal', 00H
	ORG $+3
$SG221502 DB	'IsHealOutsideFriendly', 00H
	ORG $+2
$SG221503 DB	'IsHillsDoubleMove', 00H
	ORG $+2
$SG221504 DB	'IsGarrisoned', 00H
	ORG $+3
$SG221505 DB	'GetGarrisonedCity', 00H
	ORG $+2
$SG221506 DB	'GetExtraVisibilityRange', 00H
$SG221507 DB	'GetExtraMoves', 00H
	ORG $+2
$SG221508 DB	'GetExtraMoveDiscount', 00H
	ORG $+3
$SG221509 DB	'GetExtraRange', 00H
	ORG $+2
$SG221510 DB	'GetExtraIntercept', 00H
	ORG $+2
$SG221511 DB	'GetExtraEvasion', 00H
$SG221512 DB	'GetExtraFirstStrikes', 00H
	ORG $+3
$SG221513 DB	'GetExtraChanceFirstStrikes', 00H
	ORG $+1
$SG221514 DB	'GetExtraWithdrawal', 00H
	ORG $+1
$SG221515 DB	'GetExtraEnemyHeal', 00H
	ORG $+2
$SG221516 DB	'GetExtraNeutralHeal', 00H
$SG221517 DB	'GetExtraFriendlyHeal', 00H
	ORG $+3
$SG221518 DB	'GetSameTileHeal', 00H
$SG221519 DB	'GetAdjacentTileHeal', 00H
$SG221520 DB	'GetExtraCombatPercent', 00H
	ORG $+2
$SG221521 DB	'GetFriendlyLandsModifier', 00H
	ORG $+3
$SG221522 DB	'GetFriendlyLandsAttackModifier', 00H
	ORG $+1
$SG221523 DB	'GetOutsideFriendlyLandsModifier', 00H
$SG221524 DB	'GetGoldenAgeForeignAttackBonus', 00H
	ORG $+1
$SG221525 DB	'GetCombatStrengthNearFriendlyMinor', 00H
	ORG $+1
$SG221526 DB	'GetExtraCityAttackPercent', 00H
	ORG $+2
$SG221527 DB	'GetExtraCityDefensePercent', 00H
	ORG $+1
$SG221528 DB	'GetExtraHillsAttackPercent', 00H
	ORG $+1
$SG221529 DB	'GetExtraHillsDefensePercent', 00H
$SG221530 DB	'GetExtraOpenAttackPercent', 00H
	ORG $+2
$SG221531 DB	'GetExtraOpenRangedAttackMod', 00H
$SG221532 DB	'GetExtraRoughAttackPercent', 00H
	ORG $+1
$SG221533 DB	'GetExtraRoughRangedAttackMod', 00H
	ORG $+3
$SG221534 DB	'GetExtraAttackFortifiedMod', 00H
	ORG $+1
$SG221535 DB	'GetExtraAttackWoundedMod', 00H
	ORG $+3
$SG221536 DB	'GetExtraOpenDefensePercent', 00H
	ORG $+1
$SG221537 DB	'GetPillageChange', 00H
	ORG $+3
$SG221538 DB	'GetUpgradeDiscount', 00H
	ORG $+1
$SG221539 DB	'GetExperiencePercent', 00H
	ORG $+3
$SG221540 DB	'GetKamikazePercent', 00H
	ORG $+1
$SG221541 DB	'IsOutOfAttacks', 00H
	ORG $+1
$SG221542 DB	'SetMadeAttack', 00H
	ORG $+2
$SG221543 DB	'isOutOfInterceptions', 00H
	ORG $+3
$SG221544 DB	'SetMadeInterception', 00H
$SG221545 DB	'IsPromotionReady', 00H
	ORG $+3
$SG221546 DB	'SetPromotionReady', 00H
	ORG $+2
$SG221547 DB	'GetOwner', 00H
	ORG $+3
$SG221548 DB	'GetVisualOwner', 00H
	ORG $+1
$SG221549 DB	'GetCombatOwner', 00H
	ORG $+1
$SG221550 DB	'GetOriginalOwner', 00H
	ORG $+3
$SG221551 DB	'SetOriginalOwner', 00H
	ORG $+3
$SG221552 DB	'GetTeam', 00H
$SG221553 DB	'GetUnitFlagIconOffset', 00H
	ORG $+2
$SG221554 DB	'GetUnitPortraitOffset', 00H
	ORG $+2
$SG221555 DB	'GetUnitType', 00H
$SG221556 DB	'GetUnitClassType', 00H
	ORG $+3
$SG221557 DB	'GetLeaderUnitType', 00H
	ORG $+2
$SG221558 DB	'SetLeaderUnitType', 00H
	ORG $+2
$SG221559 DB	'IsNearGreatGeneral', 00H
	ORG $+1
$SG221560 DB	'IsStackedGreatGeneral', 00H
	ORG $+2
$SG221561 DB	'IsIgnoreGreatGeneralBenefit', 00H
$SG221562 DB	'GetReverseGreatGeneralModifier', 00H
	ORG $+1
$SG221563 DB	'GetGreatGeneralCombatModifier', 00H
	ORG $+2
$SG221564 DB	'IsNearSapper', 00H
	ORG $+3
$SG221565 DB	'GetNearbyImprovementModifier', 00H
	ORG $+3
$SG221566 DB	'IsFriendlyUnitAdjacent', 00H
	ORG $+1
$SG221567 DB	'GetNumEnemyUnitsAdjacent', 00H
	ORG $+3
$SG221568 DB	'IsEnemyCityAdjacent', 00H
$SG221569 DB	'GetTransportUnit', 00H
	ORG $+3
$SG221570 DB	'IsCargo', 00H
$SG221571 DB	'GetExtraDomainModifier', 00H
	ORG $+1
$SG221572 DB	'GetName', 00H
$SG221573 DB	'GetNameNoDesc', 00H
	ORG $+2
$SG221574 DB	'HasName', 00H
$SG221575 DB	'GetNameKey', 00H
	ORG $+1
$SG221576 DB	'SetName', 00H
$SG221577 DB	'IsTerrainDoubleMove', 00H
$SG221578 DB	'IsFeatureDoubleMove', 00H
$SG221579 DB	'GetScriptData', 00H
	ORG $+2
$SG221580 DB	'SetScriptData', 00H
	ORG $+2
$SG221581 DB	'GetScenarioData', 00H
$SG221582 DB	'SetScenarioData', 00H
$SG221583 DB	'GetExtraTerrainAttackPercent', 00H
	ORG $+3
$SG221584 DB	'GetExtraTerrainDefensePercent', 00H
	ORG $+2
$SG221585 DB	'GetExtraFeatureAttackPercent', 00H
	ORG $+3
$SG221586 DB	'GetExtraFeatureDefensePercent', 00H
	ORG $+2
$SG221587 DB	'GetExtraUnitCombatModifier', 00H
	ORG $+1
$SG221588 DB	'GetUnitClassModifier', 00H
	ORG $+3
$SG221589 DB	'CanAcquirePromotion', 00H
$SG221590 DB	'CanAcquirePromotionAny', 00H
	ORG $+1
$SG221591 DB	'IsPromotionValid', 00H
	ORG $+3
$SG221592 DB	'IsHasPromotion', 00H
	ORG $+1
$SG221593 DB	'SetHasPromotion', 00H
$SG221594 DB	'GetActivityType', 00H
$SG221595 DB	'IsReadyToMove', 00H
	ORG $+2
$SG221596 DB	'IsBusy', 00H
	ORG $+1
$SG221597 DB	'GetReligion', 00H
$SG221598 DB	'GetConversionStrength', 00H
	ORG $+2
$SG221599 DB	'GetSpreadsLeft', 00H
	ORG $+1
$SG221600 DB	'GetNumFollowersAfterSpread', 00H
	ORG $+1
$SG221601 DB	'GetMajorityReligionAfterSpread', 00H
	ORG $+1
$SG221602 DB	'GetTourismBlastStrength', 00H
$SG221603 DB	'GetGreatWorkSlotType', 00H
	ORG $+3
$SG221604 DB	'RangeStrike', 00H
$SG221605 DB	'PushMission', 00H
$SG221606 DB	'PopMission', 00H
	ORG $+1
$SG221607 DB	'LastMissionPlot', 00H
$SG221608 DB	'CanStartMission', 00H
$SG221609 DB	'ExecuteSpecialExploreMove', 00H
	ORG $+2
$SG221610 DB	'SetDeployFromOperationTurn', 00H
	ORG $+1
$SG221611 DB	'IsHigherTechThan', 00H
	ORG $+3
$SG221612 DB	'IsLargerCivThan', 00H
$SG221613 DB	'IsRangedSupportFire', 00H
$SG221614 DB	'IsPlunderBlockedByOpposingTrait', 00H
$SG221617 DB	'Unit', 00H
	ORG $+3
$SG221777 DB	'NYI', 00H
$SG222140 DB	'Could not find unit info (%d) for unit.', 00H
$SG222308 DB	'Cannot find unit info (%d) for unit.', 00H
	ORG $+3
$SG224080 DB	'__instances', 00H
$SG224081 DB	'__mode', 00H
	ORG $+1
$SG224082 DB	'v', 00H
	ORG $+2
$SG224084 DB	'__instances', 00H
$SG224087 DB	'__instance', 00H
	ORG $+1
$SG224088 DB	'__index', 00H
$SG224100 DB	'__instances', 00H
$SG224101 DB	'__mode', 00H
	ORG $+1
$SG224102 DB	'v', 00H
	ORG $+2
$SG224104 DB	'__instances', 00H
$SG224107 DB	'__instance', 00H
	ORG $+1
$SG224108 DB	'__index', 00H
$SG224123 DB	'__instance', 00H
	ORG $+1
$SG224129 DB	'Not a valid instance.  Either the instance is NULL or yo'
	DB	'u used ''.'' instead of '':''.', 00H
	ORG $+1
$SG224140 DB	'__instances', 00H
$SG224141 DB	'__mode', 00H
	ORG $+1
$SG224142 DB	'v', 00H
	ORG $+2
$SG224144 DB	'__instances', 00H
$SG224147 DB	'__instance', 00H
	ORG $+1
$SG224148 DB	'__index', 00H
$SG224163 DB	'__instance', 00H
	ORG $+1
$SG224169 DB	'Not a valid instance.  Either the instance is NULL or yo'
	DB	'u used ''.'' instead of '':''.', 00H
	ORG $+1
$SG224180 DB	'__instances', 00H
$SG224181 DB	'__mode', 00H
	ORG $+1
$SG224182 DB	'v', 00H
	ORG $+2
$SG224184 DB	'__instances', 00H
$SG224187 DB	'__instance', 00H
	ORG $+1
$SG224188 DB	'__index', 00H
$SG224203 DB	'__instance', 00H
	ORG $+1
$SG224209 DB	'Not a valid instance.  Either the instance is NULL or yo'
	DB	'u used ''.'' instead of '':''.', 00H
CONST	ENDS
;	COMDAT ?NO_TURN@CvMinorCivQuest@@2HB
CONST	SEGMENT
?NO_TURN@CvMinorCivQuest@@2HB DD 0ffffffffH		; CvMinorCivQuest::NO_TURN
CONST	ENDS
;	COMDAT ?NO_QUEST_DATA@CvMinorCivQuest@@2HB
CONST	SEGMENT
?NO_QUEST_DATA@CvMinorCivQuest@@2HB DD 0ffffffffH	; CvMinorCivQuest::NO_QUEST_DATA
CONST	ENDS
EXTRN	_lua_tointeger:PROC
; Function compile flags: /Ogtpy
; File c:\users\enormousapplepie\desktop\cleanup (v1)\lekmod files\lekmod dll versions\v30\lekmod_dll\cvgamecoredllutil\include\cvluaargtemplates.h
;	COMDAT ??$toValue@H@CvLuaArgs@@YAHPAUlua_State@@H@Z
_TEXT	SEGMENT
??$toValue@H@CvLuaArgs@@YAHPAUlua_State@@H@Z PROC	; CvLuaArgs::toValue<int>, COMDAT
; _L$ = ecx
; _idx$ = eax

; 19   : 		return lua_tointeger(L, idx);

	push	eax
	push	ecx
	call	_lua_tointeger
	add	esp, 8

; 20   : 	}

	ret	0
??$toValue@H@CvLuaArgs@@YAHPAUlua_State@@H@Z ENDP	; CvLuaArgs::toValue<int>
_TEXT	ENDS
EXTRN	_lua_pushinteger:PROC
; Function compile flags: /Ogtpy
;	COMDAT ??$pushValue@H@CvLuaArgs@@YAXPAUlua_State@@H@Z
_TEXT	SEGMENT
??$pushValue@H@CvLuaArgs@@YAXPAUlua_State@@H@Z PROC	; CvLuaArgs::pushValue<int>, COMDAT
; _L$ = ecx
; _t$ = eax

; 39   : 		lua_pushinteger(L, t);

	push	eax
	push	ecx
	call	_lua_pushinteger
	add	esp, 8

; 40   : 	}

	ret	0
??$pushValue@H@CvLuaArgs@@YAXPAUlua_State@@H@Z ENDP	; CvLuaArgs::pushValue<int>
_TEXT	ENDS
EXTRN	_lua_pushboolean:PROC
; Function compile flags: /Ogtpy
;	COMDAT ??$pushValue@_N@CvLuaArgs@@YAXPAUlua_State@@_N@Z
_TEXT	SEGMENT
??$pushValue@_N@CvLuaArgs@@YAXPAUlua_State@@_N@Z PROC	; CvLuaArgs::pushValue<bool>, COMDAT
; _L$ = ecx
; _t$ = eax

; 45   : 		lua_pushboolean(L, t);

	movzx	eax, al
	push	eax
	push	ecx
	call	_lua_pushboolean
	add	esp, 8

; 46   : 	}

	ret	0
??$pushValue@_N@CvLuaArgs@@YAXPAUlua_State@@_N@Z ENDP	; CvLuaArgs::pushValue<bool>
_TEXT	ENDS
PUBLIC	?HandleMissingInstance@CvLuaUnit@@SAXPAUlua_State@@@Z ; CvLuaUnit::HandleMissingInstance
EXTRN	_luaL_error:PROC
; Function compile flags: /Ogtpy
; File c:\users\enormousapplepie\desktop\cleanup (v1)\lekmod files\lekmod dll versions\v30\lekmod_dll\cvgamecoredll_expansion2\lua\cvluaunit.cpp
;	COMDAT ?HandleMissingInstance@CvLuaUnit@@SAXPAUlua_State@@@Z
_TEXT	SEGMENT
_L$ = 8							; size = 4
?HandleMissingInstance@CvLuaUnit@@SAXPAUlua_State@@@Z PROC ; CvLuaUnit::HandleMissingInstance, COMDAT

; 26   : 	luaL_error(L, "Instance no longer exists.");

	mov	eax, DWORD PTR _L$[esp-4]
	push	OFFSET $SG221232
	push	eax
	call	_luaL_error
	add	esp, 8

; 27   : }

	ret	0
?HandleMissingInstance@CvLuaUnit@@SAXPAUlua_State@@@Z ENDP ; CvLuaUnit::HandleMissingInstance
_TEXT	ENDS
PUBLIC	??_7bad_alloc@std@@6B@				; std::bad_alloc::`vftable'
PUBLIC	??0bad_alloc@std@@QAE@PBD@Z			; std::bad_alloc::bad_alloc
PUBLIC	??_R4bad_alloc@std@@6B@				; std::bad_alloc::`RTTI Complete Object Locator'
PUBLIC	??_R0?AVbad_alloc@std@@@8			; std::bad_alloc `RTTI Type Descriptor'
PUBLIC	??_R3bad_alloc@std@@8				; std::bad_alloc::`RTTI Class Hierarchy Descriptor'
PUBLIC	??_R2bad_alloc@std@@8				; std::bad_alloc::`RTTI Base Class Array'
PUBLIC	??_R1A@?0A@EA@bad_alloc@std@@8			; std::bad_alloc::`RTTI Base Class Descriptor at (0,-1,0,64)'
PUBLIC	??_R1A@?0A@EA@exception@std@@8			; std::exception::`RTTI Base Class Descriptor at (0,-1,0,64)'
PUBLIC	??_R0?AVexception@std@@@8			; std::exception `RTTI Type Descriptor'
PUBLIC	??_R3exception@std@@8				; std::exception::`RTTI Class Hierarchy Descriptor'
PUBLIC	??_R2exception@std@@8				; std::exception::`RTTI Base Class Array'
EXTRN	__imp_??0exception@std@@QAE@ABQBD@Z:PROC
EXTRN	??_7type_info@@6B@:QWORD			; type_info::`vftable'
EXTRN	??_Ebad_alloc@std@@UAEPAXI@Z:PROC		; std::bad_alloc::`vector deleting destructor'
EXTRN	?what@exception@std@@UBEPBDXZ:PROC		; std::exception::what
;	COMDAT ??_R2exception@std@@8
; File c:\program files (x86)\microsoft visual studio 9.0\vc\include\exception
rdata$r	SEGMENT
??_R2exception@std@@8 DD FLAT:??_R1A@?0A@EA@exception@std@@8 ; std::exception::`RTTI Base Class Array'
rdata$r	ENDS
;	COMDAT ??_R3exception@std@@8
rdata$r	SEGMENT
??_R3exception@std@@8 DD 00H				; std::exception::`RTTI Class Hierarchy Descriptor'
	DD	00H
	DD	01H
	DD	FLAT:??_R2exception@std@@8
rdata$r	ENDS
;	COMDAT ??_R0?AVexception@std@@@8
_DATA	SEGMENT
??_R0?AVexception@std@@@8 DD FLAT:??_7type_info@@6B@	; std::exception `RTTI Type Descriptor'
	DD	00H
	DB	'.?AVexception@std@@', 00H
_DATA	ENDS
;	COMDAT ??_R1A@?0A@EA@exception@std@@8
rdata$r	SEGMENT
??_R1A@?0A@EA@exception@std@@8 DD FLAT:??_R0?AVexception@std@@@8 ; std::exception::`RTTI Base Class Descriptor at (0,-1,0,64)'
	DD	00H
	DD	00H
	DD	0ffffffffH
	DD	00H
	DD	040H
	DD	FLAT:??_R3exception@std@@8
rdata$r	ENDS
;	COMDAT ??_R1A@?0A@EA@bad_alloc@std@@8
rdata$r	SEGMENT
??_R1A@?0A@EA@bad_alloc@std@@8 DD FLAT:??_R0?AVbad_alloc@std@@@8 ; std::bad_alloc::`RTTI Base Class Descriptor at (0,-1,0,64)'
	DD	01H
	DD	00H
	DD	0ffffffffH
	DD	00H
	DD	040H
	DD	FLAT:??_R3bad_alloc@std@@8
rdata$r	ENDS
;	COMDAT ??_R2bad_alloc@std@@8
rdata$r	SEGMENT
??_R2bad_alloc@std@@8 DD FLAT:??_R1A@?0A@EA@bad_alloc@std@@8 ; std::bad_alloc::`RTTI Base Class Array'
	DD	FLAT:??_R1A@?0A@EA@exception@std@@8
rdata$r	ENDS
;	COMDAT ??_R3bad_alloc@std@@8
rdata$r	SEGMENT
??_R3bad_alloc@std@@8 DD 00H				; std::bad_alloc::`RTTI Class Hierarchy Descriptor'
	DD	00H
	DD	02H
	DD	FLAT:??_R2bad_alloc@std@@8
rdata$r	ENDS
;	COMDAT ??_R0?AVbad_alloc@std@@@8
_DATA	SEGMENT
??_R0?AVbad_alloc@std@@@8 DD FLAT:??_7type_info@@6B@	; std::bad_alloc `RTTI Type Descriptor'
	DD	00H
	DB	'.?AVbad_alloc@std@@', 00H
_DATA	ENDS
;	COMDAT ??_R4bad_alloc@std@@6B@
rdata$r	SEGMENT
??_R4bad_alloc@std@@6B@ DD 00H				; std::bad_alloc::`RTTI Complete Object Locator'
	DD	00H
	DD	00H
	DD	FLAT:??_R0?AVbad_alloc@std@@@8
	DD	FLAT:??_R3bad_alloc@std@@8
rdata$r	ENDS
;	COMDAT ??_7bad_alloc@std@@6B@
CONST	SEGMENT
??_7bad_alloc@std@@6B@ DD FLAT:??_R4bad_alloc@std@@6B@	; std::bad_alloc::`vftable'
	DD	FLAT:??_Ebad_alloc@std@@UAEPAXI@Z
	DD	FLAT:?what@exception@std@@UBEPBDXZ
; Function compile flags: /Ogtpy
CONST	ENDS
;	COMDAT ??0bad_alloc@std@@QAE@PBD@Z
_TEXT	SEGMENT
__Message$ = 8						; size = 4
??0bad_alloc@std@@QAE@PBD@Z PROC			; std::bad_alloc::bad_alloc, COMDAT
; _this$ = ecx

; 371  : 		{	// construct from message string

	push	esi
	lea	eax, DWORD PTR __Message$[esp]
	push	eax
	mov	esi, ecx
	call	DWORD PTR __imp_??0exception@std@@QAE@ABQBD@Z
	mov	DWORD PTR [esi], OFFSET ??_7bad_alloc@std@@6B@

; 372  : 		}

	mov	eax, esi
	pop	esi
	ret	4
??0bad_alloc@std@@QAE@PBD@Z ENDP			; std::bad_alloc::bad_alloc
_TEXT	ENDS
PUBLIC	??1bad_alloc@std@@UAE@XZ			; std::bad_alloc::~bad_alloc
EXTRN	__imp_??1exception@std@@UAE@XZ:PROC
; Function compile flags: /Ogtpy
;	COMDAT ??1bad_alloc@std@@UAE@XZ
_TEXT	SEGMENT
??1bad_alloc@std@@UAE@XZ PROC				; std::bad_alloc::~bad_alloc, COMDAT
; _this$ = ecx

; 380  : 		{	// destroy the object

	mov	DWORD PTR [ecx], OFFSET ??_7bad_alloc@std@@6B@

; 381  : 		}

	jmp	DWORD PTR __imp_??1exception@std@@UAE@XZ
??1bad_alloc@std@@UAE@XZ ENDP				; std::bad_alloc::~bad_alloc
_TEXT	ENDS
EXTRN	??3@YAXPAX@Z:PROC				; operator delete
; Function compile flags: /Ogtpy
;	COMDAT ??_Gbad_alloc@std@@UAEPAXI@Z
_TEXT	SEGMENT
___flags$ = 8						; size = 4
??_Gbad_alloc@std@@UAEPAXI@Z PROC			; std::bad_alloc::`scalar deleting destructor', COMDAT
; _this$ = ecx
	push	esi
	mov	esi, ecx
	mov	DWORD PTR [esi], OFFSET ??_7bad_alloc@std@@6B@
	call	DWORD PTR __imp_??1exception@std@@UAE@XZ
	test	BYTE PTR ___flags$[esp], 1
	je	SHORT $LN6@scalar
	push	esi
	call	??3@YAXPAX@Z				; operator delete
	add	esp, 4
$LN6@scalar:
	mov	eax, esi
	pop	esi
	ret	4
??_Gbad_alloc@std@@UAEPAXI@Z ENDP			; std::bad_alloc::`scalar deleting destructor'
_TEXT	ENDS
PUBLIC	??2@YAPAXIPAX@Z					; operator new
; Function compile flags: /Ogtpy
; File c:\program files (x86)\microsoft visual studio 9.0\vc\include\new
;	COMDAT ??2@YAPAXIPAX@Z
_TEXT	SEGMENT
___formal$ = 8						; size = 4
__Where$ = 12						; size = 4
??2@YAPAXIPAX@Z PROC					; operator new, COMDAT

; 59   : 	return (_Where);

	mov	eax, DWORD PTR __Where$[esp-4]

; 60   : 	}

	ret	0
??2@YAPAXIPAX@Z ENDP					; operator new
_TEXT	ENDS
PUBLIC	??3@YAXPAX0@Z					; operator delete
; Function compile flags: /Ogtpy
;	COMDAT ??3@YAXPAX0@Z
_TEXT	SEGMENT
___formal$ = 8						; size = 4
___formal$ = 12						; size = 4
??3@YAXPAX0@Z PROC					; operator delete, COMDAT

; 64   : 	}

	ret	0
??3@YAXPAX0@Z ENDP					; operator delete
_TEXT	ENDS
PUBLIC	??_7logic_error@std@@6B@			; std::logic_error::`vftable'
PUBLIC	??0logic_error@std@@QAE@ABV?$basic_string@DU?$char_traits@D@std@@V?$allocator@D@2@@1@@Z ; std::logic_error::logic_error
PUBLIC	??_R4logic_error@std@@6B@			; std::logic_error::`RTTI Complete Object Locator'
PUBLIC	??_R0?AVlogic_error@std@@@8			; std::logic_error `RTTI Type Descriptor'
PUBLIC	??_R3logic_error@std@@8				; std::logic_error::`RTTI Class Hierarchy Descriptor'
PUBLIC	??_R2logic_error@std@@8				; std::logic_error::`RTTI Base Class Array'
PUBLIC	??_R1A@?0A@EA@logic_error@std@@8		; std::logic_error::`RTTI Base Class Descriptor at (0,-1,0,64)'
PUBLIC	?what@logic_error@std@@UBEPBDXZ			; std::logic_error::what
EXTRN	__imp_??0?$basic_string@DU?$char_traits@D@std@@V?$allocator@D@2@@std@@QAE@ABV01@@Z:PROC
EXTRN	__imp_??0exception@std@@QAE@XZ:PROC
EXTRN	___CxxFrameHandler3:PROC
EXTRN	??_Elogic_error@std@@UAEPAXI@Z:PROC		; std::logic_error::`vector deleting destructor'
;	COMDAT ??_R1A@?0A@EA@logic_error@std@@8
; File c:\program files (x86)\microsoft visual studio 9.0\vc\include\stdexcept
rdata$r	SEGMENT
??_R1A@?0A@EA@logic_error@std@@8 DD FLAT:??_R0?AVlogic_error@std@@@8 ; std::logic_error::`RTTI Base Class Descriptor at (0,-1,0,64)'
	DD	01H
	DD	00H
	DD	0ffffffffH
	DD	00H
	DD	040H
	DD	FLAT:??_R3logic_error@std@@8
rdata$r	ENDS
;	COMDAT ??_R2logic_error@std@@8
rdata$r	SEGMENT
??_R2logic_error@std@@8 DD FLAT:??_R1A@?0A@EA@logic_error@std@@8 ; std::logic_error::`RTTI Base Class Array'
	DD	FLAT:??_R1A@?0A@EA@exception@std@@8
rdata$r	ENDS
;	COMDAT ??_R3logic_error@std@@8
rdata$r	SEGMENT
??_R3logic_error@std@@8 DD 00H				; std::logic_error::`RTTI Class Hierarchy Descriptor'
	DD	00H
	DD	02H
	DD	FLAT:??_R2logic_error@std@@8
rdata$r	ENDS
;	COMDAT ??_R0?AVlogic_error@std@@@8
_DATA	SEGMENT
??_R0?AVlogic_error@std@@@8 DD FLAT:??_7type_info@@6B@	; std::logic_error `RTTI Type Descriptor'
	DD	00H
	DB	'.?AVlogic_error@std@@', 00H
_DATA	ENDS
;	COMDAT ??_R4logic_error@std@@6B@
rdata$r	SEGMENT
??_R4logic_error@std@@6B@ DD 00H			; std::logic_error::`RTTI Complete Object Locator'
	DD	00H
	DD	00H
	DD	FLAT:??_R0?AVlogic_error@std@@@8
	DD	FLAT:??_R3logic_error@std@@8
rdata$r	ENDS
;	COMDAT ??_7logic_error@std@@6B@
CONST	SEGMENT
??_7logic_error@std@@6B@ DD FLAT:??_R4logic_error@std@@6B@ ; std::logic_error::`vftable'
	DD	FLAT:??_Elogic_error@std@@UAEPAXI@Z
	DD	FLAT:?what@logic_error@std@@UBEPBDXZ
CONST	ENDS
;	COMDAT xdata$x
xdata$x	SEGMENT
__unwindtable$??0logic_error@std@@QAE@ABV?$basic_string@DU?$char_traits@D@std@@V?$allocator@D@2@@1@@Z DD 0ffffffffH
	DD	FLAT:__unwindfunclet$??0logic_error@std@@QAE@ABV?$basic_string@DU?$char_traits@D@std@@V?$allocator@D@2@@1@@Z$0
__ehfuncinfo$??0logic_error@std@@QAE@ABV?$basic_string@DU?$char_traits@D@std@@V?$allocator@D@2@@1@@Z DD 019930522H
	DD	01H
	DD	FLAT:__unwindtable$??0logic_error@std@@QAE@ABV?$basic_string@DU?$char_traits@D@std@@V?$allocator@D@2@@1@@Z
	DD	2 DUP(00H)
	DD	2 DUP(00H)
	DD	00H
	DD	01H
; Function compile flags: /Ogtpy
xdata$x	ENDS
;	COMDAT ??0logic_error@std@@QAE@ABV?$basic_string@DU?$char_traits@D@std@@V?$allocator@D@2@@1@@Z
_TEXT	SEGMENT
_this$ = -16						; size = 4
__$EHRec$ = -12						; size = 12
__Message$ = 8						; size = 4
??0logic_error@std@@QAE@ABV?$basic_string@DU?$char_traits@D@std@@V?$allocator@D@2@@1@@Z PROC ; std::logic_error::logic_error, COMDAT
; _this$ = ecx

; 26   : 		{	// construct from message string

	push	-1
	push	__ehhandler$??0logic_error@std@@QAE@ABV?$basic_string@DU?$char_traits@D@std@@V?$allocator@D@2@@1@@Z
	mov	eax, DWORD PTR fs:0
	push	eax
	mov	DWORD PTR fs:0, esp
	push	ecx
	push	esi
	mov	esi, ecx
	mov	DWORD PTR _this$[esp+20], esi
	call	DWORD PTR __imp_??0exception@std@@QAE@XZ
	mov	eax, DWORD PTR __Message$[esp+16]
	push	eax
	lea	ecx, DWORD PTR [esi+12]
	mov	DWORD PTR __$EHRec$[esp+32], 0
	mov	DWORD PTR [esi], OFFSET ??_7logic_error@std@@6B@
	call	DWORD PTR __imp_??0?$basic_string@DU?$char_traits@D@std@@V?$allocator@D@2@@std@@QAE@ABV01@@Z

; 27   : 		}

	mov	ecx, DWORD PTR __$EHRec$[esp+20]
	mov	eax, esi
	pop	esi
	mov	DWORD PTR fs:0, ecx
	add	esp, 16					; 00000010H
	ret	4
_TEXT	ENDS
;	COMDAT text$x
text$x	SEGMENT
__unwindfunclet$??0logic_error@std@@QAE@ABV?$basic_string@DU?$char_traits@D@std@@V?$allocator@D@2@@1@@Z$0:
	mov	ecx, DWORD PTR _this$[ebp]
	jmp	DWORD PTR __imp_??1exception@std@@UAE@XZ
__ehhandler$??0logic_error@std@@QAE@ABV?$basic_string@DU?$char_traits@D@std@@V?$allocator@D@2@@1@@Z:
	mov	eax, OFFSET __ehfuncinfo$??0logic_error@std@@QAE@ABV?$basic_string@DU?$char_traits@D@std@@V?$allocator@D@2@@1@@Z
	jmp	___CxxFrameHandler3
text$x	ENDS
??0logic_error@std@@QAE@ABV?$basic_string@DU?$char_traits@D@std@@V?$allocator@D@2@@1@@Z ENDP ; std::logic_error::logic_error
PUBLIC	??1logic_error@std@@UAE@XZ			; std::logic_error::~logic_error
EXTRN	__imp_??1?$basic_string@DU?$char_traits@D@std@@V?$allocator@D@2@@std@@QAE@XZ:PROC
; Function compile flags: /Ogtpy
;	COMDAT ??1logic_error@std@@UAE@XZ
_TEXT	SEGMENT
??1logic_error@std@@UAE@XZ PROC				; std::logic_error::~logic_error, COMDAT
; _this$ = ecx

; 30   : 		{	// destroy the object

	push	esi
	mov	esi, ecx

; 31   : 		}

	lea	ecx, DWORD PTR [esi+12]
	mov	DWORD PTR [esi], OFFSET ??_7logic_error@std@@6B@
	call	DWORD PTR __imp_??1?$basic_string@DU?$char_traits@D@std@@V?$allocator@D@2@@std@@QAE@XZ
	mov	ecx, esi
	pop	esi
	jmp	DWORD PTR __imp_??1exception@std@@UAE@XZ
??1logic_error@std@@UAE@XZ ENDP				; std::logic_error::~logic_error
_TEXT	ENDS
EXTRN	__imp_?c_str@?$basic_string@DU?$char_traits@D@std@@V?$allocator@D@2@@std@@QBEPBDXZ:PROC
; Function compile flags: /Ogtpy
;	COMDAT ?what@logic_error@std@@UBEPBDXZ
_TEXT	SEGMENT
?what@logic_error@std@@UBEPBDXZ PROC			; std::logic_error::what, COMDAT
; _this$ = ecx

; 35   : 		return (_Str.c_str());

	add	ecx, 12					; 0000000cH
	jmp	DWORD PTR __imp_?c_str@?$basic_string@DU?$char_traits@D@std@@V?$allocator@D@2@@std@@QBEPBDXZ
?what@logic_error@std@@UBEPBDXZ ENDP			; std::logic_error::what
; Function compile flags: /Ogtpy
_TEXT	ENDS
;	COMDAT ??_Glogic_error@std@@UAEPAXI@Z
_TEXT	SEGMENT
___flags$ = 8						; size = 4
??_Glogic_error@std@@UAEPAXI@Z PROC			; std::logic_error::`scalar deleting destructor', COMDAT
; _this$ = ecx
	push	esi
	mov	esi, ecx
	lea	ecx, DWORD PTR [esi+12]
	mov	DWORD PTR [esi], OFFSET ??_7logic_error@std@@6B@
	call	DWORD PTR __imp_??1?$basic_string@DU?$char_traits@D@std@@V?$allocator@D@2@@std@@QAE@XZ
	mov	ecx, esi
	call	DWORD PTR __imp_??1exception@std@@UAE@XZ
	test	BYTE PTR ___flags$[esp], 1
	je	SHORT $LN6@scalar@2
	push	esi
	call	??3@YAXPAX@Z				; operator delete
	add	esp, 4
$LN6@scalar@2:
	mov	eax, esi
	pop	esi
	ret	4
??_Glogic_error@std@@UAEPAXI@Z ENDP			; std::logic_error::`scalar deleting destructor'
_TEXT	ENDS
PUBLIC	??_7length_error@std@@6B@			; std::length_error::`vftable'
PUBLIC	??0length_error@std@@QAE@ABV?$basic_string@DU?$char_traits@D@std@@V?$allocator@D@2@@1@@Z ; std::length_error::length_error
PUBLIC	??_R4length_error@std@@6B@			; std::length_error::`RTTI Complete Object Locator'
PUBLIC	??_R0?AVlength_error@std@@@8			; std::length_error `RTTI Type Descriptor'
PUBLIC	??_R3length_error@std@@8			; std::length_error::`RTTI Class Hierarchy Descriptor'
PUBLIC	??_R2length_error@std@@8			; std::length_error::`RTTI Base Class Array'
PUBLIC	??_R1A@?0A@EA@length_error@std@@8		; std::length_error::`RTTI Base Class Descriptor at (0,-1,0,64)'
EXTRN	??_Elength_error@std@@UAEPAXI@Z:PROC		; std::length_error::`vector deleting destructor'
;	COMDAT ??_R1A@?0A@EA@length_error@std@@8
rdata$r	SEGMENT
??_R1A@?0A@EA@length_error@std@@8 DD FLAT:??_R0?AVlength_error@std@@@8 ; std::length_error::`RTTI Base Class Descriptor at (0,-1,0,64)'
	DD	02H
	DD	00H
	DD	0ffffffffH
	DD	00H
	DD	040H
	DD	FLAT:??_R3length_error@std@@8
rdata$r	ENDS
;	COMDAT ??_R2length_error@std@@8
rdata$r	SEGMENT
??_R2length_error@std@@8 DD FLAT:??_R1A@?0A@EA@length_error@std@@8 ; std::length_error::`RTTI Base Class Array'
	DD	FLAT:??_R1A@?0A@EA@logic_error@std@@8
	DD	FLAT:??_R1A@?0A@EA@exception@std@@8
rdata$r	ENDS
;	COMDAT ??_R3length_error@std@@8
rdata$r	SEGMENT
??_R3length_error@std@@8 DD 00H				; std::length_error::`RTTI Class Hierarchy Descriptor'
	DD	00H
	DD	03H
	DD	FLAT:??_R2length_error@std@@8
rdata$r	ENDS
;	COMDAT ??_R0?AVlength_error@std@@@8
_DATA	SEGMENT
??_R0?AVlength_error@std@@@8 DD FLAT:??_7type_info@@6B@	; std::length_error `RTTI Type Descriptor'
	DD	00H
	DB	'.?AVlength_error@std@@', 00H
_DATA	ENDS
;	COMDAT ??_R4length_error@std@@6B@
rdata$r	SEGMENT
??_R4length_error@std@@6B@ DD 00H			; std::length_error::`RTTI Complete Object Locator'
	DD	00H
	DD	00H
	DD	FLAT:??_R0?AVlength_error@std@@@8
	DD	FLAT:??_R3length_error@std@@8
rdata$r	ENDS
;	COMDAT ??_7length_error@std@@6B@
CONST	SEGMENT
??_7length_error@std@@6B@ DD FLAT:??_R4length_error@std@@6B@ ; std::length_error::`vftable'
	DD	FLAT:??_Elength_error@std@@UAEPAXI@Z
	DD	FLAT:?what@logic_error@std@@UBEPBDXZ
; Function compile flags: /Ogtpy
CONST	ENDS
;	COMDAT ??0length_error@std@@QAE@ABV?$basic_string@DU?$char_traits@D@std@@V?$allocator@D@2@@1@@Z
_TEXT	SEGMENT
__Message$ = 8						; size = 4
??0length_error@std@@QAE@ABV?$basic_string@DU?$char_traits@D@std@@V?$allocator@D@2@@1@@Z PROC ; std::length_error::length_error, COMDAT
; _this$ = ecx

; 105  : 		{	// construct from message string

	mov	eax, DWORD PTR __Message$[esp-4]
	push	esi
	push	eax
	mov	esi, ecx
	call	??0logic_error@std@@QAE@ABV?$basic_string@DU?$char_traits@D@std@@V?$allocator@D@2@@1@@Z ; std::logic_error::logic_error
	mov	DWORD PTR [esi], OFFSET ??_7length_error@std@@6B@

; 106  : 		}

	mov	eax, esi
	pop	esi
	ret	4
??0length_error@std@@QAE@ABV?$basic_string@DU?$char_traits@D@std@@V?$allocator@D@2@@1@@Z ENDP ; std::length_error::length_error
_TEXT	ENDS
PUBLIC	??1length_error@std@@UAE@XZ			; std::length_error::~length_error
; Function compile flags: /Ogtpy
;	COMDAT ??1length_error@std@@UAE@XZ
_TEXT	SEGMENT
??1length_error@std@@UAE@XZ PROC			; std::length_error::~length_error, COMDAT
; _this$ = ecx

; 109  : 		{	// destroy the object

	push	esi
	mov	esi, ecx

; 110  : 		}

	lea	ecx, DWORD PTR [esi+12]
	mov	DWORD PTR [esi], OFFSET ??_7logic_error@std@@6B@
	call	DWORD PTR __imp_??1?$basic_string@DU?$char_traits@D@std@@V?$allocator@D@2@@std@@QAE@XZ
	mov	ecx, esi
	pop	esi
	jmp	DWORD PTR __imp_??1exception@std@@UAE@XZ
??1length_error@std@@UAE@XZ ENDP			; std::length_error::~length_error
; Function compile flags: /Ogtpy
_TEXT	ENDS
;	COMDAT ??_Glength_error@std@@UAEPAXI@Z
_TEXT	SEGMENT
___flags$ = 8						; size = 4
??_Glength_error@std@@UAEPAXI@Z PROC			; std::length_error::`scalar deleting destructor', COMDAT
; _this$ = ecx
	push	esi
	mov	esi, ecx
	lea	ecx, DWORD PTR [esi+12]
	mov	DWORD PTR [esi], OFFSET ??_7logic_error@std@@6B@
	call	DWORD PTR __imp_??1?$basic_string@DU?$char_traits@D@std@@V?$allocator@D@2@@std@@QAE@XZ
	mov	ecx, esi
	call	DWORD PTR __imp_??1exception@std@@UAE@XZ
	test	BYTE PTR ___flags$[esp], 1
	je	SHORT $LN8@scalar@3
	push	esi
	call	??3@YAXPAX@Z				; operator delete
	add	esp, 4
$LN8@scalar@3:
	mov	eax, esi
	pop	esi
	ret	4
??_Glength_error@std@@UAEPAXI@Z ENDP			; std::length_error::`scalar deleting destructor'
_TEXT	ENDS
PUBLIC	?GetTypeName@CvLuaUnit@@SAPBDXZ			; CvLuaUnit::GetTypeName
; Function compile flags: /Ogtpy
; File c:\users\enormousapplepie\desktop\cleanup (v1)\lekmod files\lekmod dll versions\v30\lekmod_dll\cvgamecoredll_expansion2\lua\cvluaunit.cpp
;	COMDAT ?GetTypeName@CvLuaUnit@@SAPBDXZ
_TEXT	SEGMENT
?GetTypeName@CvLuaUnit@@SAPBDXZ PROC			; CvLuaUnit::GetTypeName, COMDAT

; 496  : 	return "Unit";

	mov	eax, OFFSET $SG221617

; 497  : }

	ret	0
?GetTypeName@CvLuaUnit@@SAPBDXZ ENDP			; CvLuaUnit::GetTypeName
_TEXT	ENDS
PUBLIC	?lGeneratePath@CvLuaUnit@@KAHPAUlua_State@@@Z	; CvLuaUnit::lGeneratePath
; Function compile flags: /Ogtpy
;	COMDAT ?lGeneratePath@CvLuaUnit@@KAHPAUlua_State@@@Z
_TEXT	SEGMENT
_L$ = 8							; size = 4
?lGeneratePath@CvLuaUnit@@KAHPAUlua_State@@@Z PROC	; CvLuaUnit::lGeneratePath, COMDAT

; 593  : 	luaL_error(L, "NYI");

	mov	eax, DWORD PTR _L$[esp-4]
	push	OFFSET $SG221777
	push	eax
	call	_luaL_error
	add	esp, 8

; 594  : 	/*CvUnit* pkUnit = GetInstance(L);
; 595  : 	CvPlot* pkPlot = CvLuaPlot::GetInstance(L, 2);
; 596  : 	const int iFlags = 0;
; 597  : 	const bool bReuse = luaL_optint(L, 4, 0);	//defeaults to false
; 598  : 	const bool bResult = pkUnit->generatePath();
; 599  : 
; 600  : 	lua_pushboolean(L, bResult);
; 601  : 	return 1;*/
; 602  : 	return 0;

	xor	eax, eax

; 603  : }

	ret	0
?lGeneratePath@CvLuaUnit@@KAHPAUlua_State@@@Z ENDP	; CvLuaUnit::lGeneratePath
_TEXT	ENDS
PUBLIC	?addTarget@?$DestructionNotification@V?$FObjectHandle@VCvUnit@@@@@@QAEXABV?$FObjectHandle@VCvUnit@@@@@Z ; DestructionNotification<FObjectHandle<CvUnit> >::addTarget
; Function compile flags: /Ogtpy
; File c:\users\enormousapplepie\desktop\cleanup (v1)\lekmod files\lekmod dll versions\v30\lekmod_dll\fireplace\include\fireworks\fobjecthandle.h
;	COMDAT ?addTarget@?$DestructionNotification@V?$FObjectHandle@VCvUnit@@@@@@QAEXABV?$FObjectHandle@VCvUnit@@@@@Z
_TEXT	SEGMENT
_target$ = 8						; size = 4
?addTarget@?$DestructionNotification@V?$FObjectHandle@VCvUnit@@@@@@QAEXABV?$FObjectHandle@VCvUnit@@@@@Z PROC ; DestructionNotification<FObjectHandle<CvUnit> >::addTarget, COMDAT
; _this$ = ecx

; 52   : #ifdef TRACK_DESTRUCTION_NOTIFICATION
; 53   : 		m_targets.insert(&target);
; 54   : #endif
; 55   : 	}

	ret	4
?addTarget@?$DestructionNotification@V?$FObjectHandle@VCvUnit@@@@@@QAEXABV?$FObjectHandle@VCvUnit@@@@@Z ENDP ; DestructionNotification<FObjectHandle<CvUnit> >::addTarget
_TEXT	ENDS
PUBLIC	?removeTarget@?$DestructionNotification@V?$FObjectHandle@VCvUnit@@@@@@QAEXABV?$FObjectHandle@VCvUnit@@@@@Z ; DestructionNotification<FObjectHandle<CvUnit> >::removeTarget
; Function compile flags: /Ogtpy
;	COMDAT ?removeTarget@?$DestructionNotification@V?$FObjectHandle@VCvUnit@@@@@@QAEXABV?$FObjectHandle@VCvUnit@@@@@Z
_TEXT	SEGMENT
_target$ = 8						; size = 4
?removeTarget@?$DestructionNotification@V?$FObjectHandle@VCvUnit@@@@@@QAEXABV?$FObjectHandle@VCvUnit@@@@@Z PROC ; DestructionNotification<FObjectHandle<CvUnit> >::removeTarget, COMDAT
; _this$ = ecx

; 63   : #ifdef TRACK_DESTRUCTION_NOTIFICATION
; 64   : 		m_targets.erase(&target);
; 65   : #endif
; 66   : 	}

	ret	4
?removeTarget@?$DestructionNotification@V?$FObjectHandle@VCvUnit@@@@@@QAEXABV?$FObjectHandle@VCvUnit@@@@@Z ENDP ; DestructionNotification<FObjectHandle<CvUnit> >::removeTarget
_TEXT	ENDS
PUBLIC	?pointer@?$FObjectHandle@VCvUnit@@@@QAEPAVCvUnit@@XZ ; FObjectHandle<CvUnit>::pointer
; Function compile flags: /Ogtpy
;	COMDAT ?pointer@?$FObjectHandle@VCvUnit@@@@QAEPAVCvUnit@@XZ
_TEXT	SEGMENT
?pointer@?$FObjectHandle@VCvUnit@@@@QAEPAVCvUnit@@XZ PROC ; FObjectHandle<CvUnit>::pointer, COMDAT
; _this$ = ecx

; 78   : 		return m_target;

	mov	eax, DWORD PTR [ecx]

; 79   : 	}

	ret	0
?pointer@?$FObjectHandle@VCvUnit@@@@QAEPAVCvUnit@@XZ ENDP ; FObjectHandle<CvUnit>::pointer
_TEXT	ENDS
PUBLIC	?Push@?$CvLuaScopedInstance@VCvLuaArea@@VCvArea@@@@SAXPAUlua_State@@PAVCvArea@@@Z ; CvLuaScopedInstance<CvLuaArea,CvArea>::Push
EXTRN	_lua_pushnil:PROC
EXTRN	_lua_remove:PROC
EXTRN	_lua_pushlightuserdata:PROC
EXTRN	_lua_rawget:PROC
EXTRN	?PushMethods@CvLuaArea@@SAXPAUlua_State@@H@Z:PROC ; CvLuaArea::PushMethods
EXTRN	_lua_gettop:PROC
EXTRN	_lua_setfield:PROC
EXTRN	_lua_pushvalue:PROC
EXTRN	_lua_setmetatable:PROC
EXTRN	_lua_rawset:PROC
EXTRN	_lua_pushstring:PROC
EXTRN	_lua_createtable:PROC
EXTRN	_lua_settop:PROC
EXTRN	_lua_type:PROC
EXTRN	_lua_getfield:PROC
EXTRN	?GetTypeName@CvLuaArea@@SAPBDXZ:PROC		; CvLuaArea::GetTypeName
; Function compile flags: /Ogtpy
; File c:\users\enormousapplepie\desktop\cleanup (v1)\lekmod files\lekmod dll versions\v30\lekmod_dll\cvgamecoredll_expansion2\lua\cvluascopedinstance.h
;	COMDAT ?Push@?$CvLuaScopedInstance@VCvLuaArea@@VCvArea@@@@SAXPAUlua_State@@PAVCvArea@@@Z
_TEXT	SEGMENT
_L$ = 8							; size = 4
_pkType$ = 12						; size = 4
?Push@?$CvLuaScopedInstance@VCvLuaArea@@VCvArea@@@@SAXPAUlua_State@@PAVCvArea@@@Z PROC ; CvLuaScopedInstance<CvLuaArea,CvArea>::Push, COMDAT

; 39   : {

	push	edi

; 40   : 	//Pushing an instance involves more than just actually pushing a pointer into the
; 41   : 	//Lua stack.  There are some caching optimizations that are done as well as some
; 42   : 	//checks.
; 43   : 	//The first step is to load or create a global table <Typename> to store all member
; 44   : 	//methods and all pushed instances.  This conserves memory and offers faster pushing
; 45   : 	//speed.
; 46   : 	//If <Typename>.__instances[pkType] is not nil, return that value.
; 47   : 	//otherwise push a new instance and assign it to __instances.
; 48   : 
; 49   : 	//NOTE: Raw gets and sets are used as an optimization over using lua_[get,set]field
; 50   : 	if(pkType)

	mov	edi, DWORD PTR _pkType$[esp]
	test	edi, edi
	je	$LN4@Push
	push	ebx
	push	ebp
	push	esi

; 51   : 	{
; 52   : 		//const int t = lua_gettop(L);
; 53   : 
; 54   : 		lua_getglobal(L, Derived::GetTypeName());

	call	?GetTypeName@CvLuaArea@@SAPBDXZ		; CvLuaArea::GetTypeName
	mov	esi, DWORD PTR _L$[esp+12]
	push	eax
	push	-10002					; ffffd8eeH
	push	esi
	call	_lua_getfield

; 55   : 		if(lua_isnil(L, -1))

	push	-1
	push	esi
	call	_lua_type
	add	esp, 20					; 00000014H
	test	eax, eax
	jne	$LN7@Push

; 56   : 		{
; 57   : 			//Typename wasn't found, time to build it.
; 58   : 			lua_pop(L, 1);

	push	-2					; fffffffeH
	push	esi
	call	_lua_settop

; 59   : 			lua_newtable(L);

	push	0
	push	0
	push	esi
	call	_lua_createtable

; 60   : 
; 61   : 			//Create weak __instances table.
; 62   : 			lua_pushstring(L, "__instances");

	push	OFFSET $SG224080
	push	esi
	call	_lua_pushstring

; 63   : 			lua_newtable(L);

	push	0
	push	0
	push	esi
	call	_lua_createtable

; 64   : 
; 65   : 			//Create __instances.mt
; 66   : 			lua_newtable(L);

	push	0
	push	0
	push	esi
	call	_lua_createtable

; 67   : 			lua_pushstring(L, "__mode");

	push	OFFSET $SG224081
	push	esi
	call	_lua_pushstring

; 68   : 			lua_pushstring(L, "v");

	push	OFFSET $SG224082
	push	esi
	call	_lua_pushstring
	add	esp, 68					; 00000044H

; 69   : 			lua_rawset(L, -3);				// mt.__mode = "v";

	push	-3					; fffffffdH
	push	esi
	call	_lua_rawset

; 70   : 			lua_setmetatable(L, -2);

	push	-2					; fffffffeH
	push	esi
	call	_lua_setmetatable

; 71   : 
; 72   : 			lua_rawset(L, -3);				//type.__instances = t;

	push	-3					; fffffffdH
	push	esi
	call	_lua_rawset

; 73   : 
; 74   : 
; 75   : 			lua_pushvalue(L, -1);

	push	-1
	push	esi
	call	_lua_pushvalue

; 76   : 			lua_setglobal(L, Derived::GetTypeName());

	call	?GetTypeName@CvLuaArea@@SAPBDXZ		; CvLuaArea::GetTypeName
	push	eax
	push	-10002					; ffffd8eeH
	push	esi
	call	_lua_setfield

; 77   : 
; 78   : 			Derived::PushMethods(L, lua_gettop(L));

	push	esi
	call	_lua_gettop
	push	eax
	push	esi
	call	?PushMethods@CvLuaArea@@SAXPAUlua_State@@H@Z ; CvLuaArea::PushMethods
	add	esp, 56					; 00000038H
$LN7@Push:

; 79   : 		}
; 80   : 		const int type_index = lua_gettop(L);

	push	esi
	call	_lua_gettop

; 81   : 
; 82   : 		lua_pushstring(L, "__instances");

	push	OFFSET $SG224084
	push	esi
	mov	ebx, eax
	call	_lua_pushstring

; 83   : 		lua_rawget(L, -2);

	push	-2					; fffffffeH
	push	esi
	call	_lua_rawget

; 84   : 
; 85   : 		const int instances_index = lua_gettop(L);

	push	esi
	call	_lua_gettop

; 86   : 
; 87   : 		lua_pushlightuserdata(L, pkType);

	push	edi
	push	esi
	mov	ebp, eax
	call	_lua_pushlightuserdata

; 88   : 
; 89   : 		lua_rawget(L, -2);					//retrieve type.__instances[pkType]

	push	-2					; fffffffeH
	push	esi
	call	_lua_rawget

; 90   : 
; 91   : 		if(lua_isnil(L, -1))

	push	-1
	push	esi
	call	_lua_type
	add	esp, 48					; 00000030H
	test	eax, eax
	jne	SHORT $LN2@Push

; 92   : 		{
; 93   : 			lua_pop(L, 1);

	push	-2					; fffffffeH
	push	esi
	call	_lua_settop

; 94   : 
; 95   : 			//Push new instance
; 96   : 			lua_createtable(L, 0, 1);

	push	1
	push	0
	push	esi
	call	_lua_createtable

; 97   : 			lua_pushlightuserdata(L, pkType);

	push	edi
	push	esi
	call	_lua_pushlightuserdata

; 98   : 			lua_setfield(L, -2, "__instance");

	push	OFFSET $SG224087
	push	-2					; fffffffeH
	push	esi
	call	_lua_setfield

; 99   : 
; 100  : 			lua_createtable(L, 0, 1);			// create mt

	push	1
	push	0
	push	esi
	call	_lua_createtable

; 101  : 			lua_pushstring(L, "__index");

	push	OFFSET $SG224088
	push	esi
	call	_lua_pushstring

; 102  : 			lua_pushvalue(L, type_index);

	push	ebx
	push	esi
	call	_lua_pushvalue
	add	esp, 68					; 00000044H

; 103  : 			lua_rawset(L, -3);					// mt.__index = Type

	push	-3					; fffffffdH
	push	esi
	call	_lua_rawset

; 104  : 			lua_setmetatable(L, -2);

	push	-2					; fffffffeH
	push	esi
	call	_lua_setmetatable

; 105  : 
; 106  : 			//Assign it in instances
; 107  : 			lua_pushlightuserdata(L, pkType);

	push	edi
	push	esi
	call	_lua_pushlightuserdata

; 108  : 			lua_pushvalue(L, -2);

	push	-2					; fffffffeH
	push	esi
	call	_lua_pushvalue

; 109  : 			lua_rawset(L, instances_index);				//__instances[pkType] = t;

	push	ebp
	push	esi
	call	_lua_rawset
	add	esp, 40					; 00000028H
$LN2@Push:

; 110  : 		}
; 111  : 
; 112  : 		//VERIFY(instances_index > type_index);
; 113  : 		lua_remove(L, instances_index);

	push	ebp
	push	esi
	call	_lua_remove

; 114  : 		lua_remove(L, type_index);

	push	ebx
	push	esi
	call	_lua_remove
	add	esp, 16					; 00000010H
	pop	esi
	pop	ebp
	pop	ebx
	pop	edi

; 122  : 	}
; 123  : }

	ret	0
$LN4@Push:

; 115  : 
; 116  : 		//const int dt = lua_gettop(L);
; 117  : 		//VERIFY(dt == t + 1)
; 118  : 	}
; 119  : 	else
; 120  : 	{
; 121  : 		lua_pushnil(L);

	mov	eax, DWORD PTR _L$[esp]
	push	eax
	call	_lua_pushnil
	add	esp, 4
	pop	edi

; 122  : 	}
; 123  : }

	ret	0
?Push@?$CvLuaScopedInstance@VCvLuaArea@@VCvArea@@@@SAXPAUlua_State@@PAVCvArea@@@Z ENDP ; CvLuaScopedInstance<CvLuaArea,CvArea>::Push
_TEXT	ENDS
PUBLIC	?Push@?$CvLuaScopedInstance@VCvLuaCity@@VCvCity@@@@SAXPAUlua_State@@PAVCvCity@@@Z ; CvLuaScopedInstance<CvLuaCity,CvCity>::Push
EXTRN	?PushMethods@CvLuaCity@@SAXPAUlua_State@@H@Z:PROC ; CvLuaCity::PushMethods
EXTRN	?GetTypeName@CvLuaCity@@SAPBDXZ:PROC		; CvLuaCity::GetTypeName
; Function compile flags: /Ogtpy
;	COMDAT ?Push@?$CvLuaScopedInstance@VCvLuaCity@@VCvCity@@@@SAXPAUlua_State@@PAVCvCity@@@Z
_TEXT	SEGMENT
_L$ = 8							; size = 4
_pkType$ = 12						; size = 4
?Push@?$CvLuaScopedInstance@VCvLuaCity@@VCvCity@@@@SAXPAUlua_State@@PAVCvCity@@@Z PROC ; CvLuaScopedInstance<CvLuaCity,CvCity>::Push, COMDAT

; 39   : {

	push	edi

; 40   : 	//Pushing an instance involves more than just actually pushing a pointer into the
; 41   : 	//Lua stack.  There are some caching optimizations that are done as well as some
; 42   : 	//checks.
; 43   : 	//The first step is to load or create a global table <Typename> to store all member
; 44   : 	//methods and all pushed instances.  This conserves memory and offers faster pushing
; 45   : 	//speed.
; 46   : 	//If <Typename>.__instances[pkType] is not nil, return that value.
; 47   : 	//otherwise push a new instance and assign it to __instances.
; 48   : 
; 49   : 	//NOTE: Raw gets and sets are used as an optimization over using lua_[get,set]field
; 50   : 	if(pkType)

	mov	edi, DWORD PTR _pkType$[esp]
	test	edi, edi
	je	$LN4@Push@2
	push	ebx
	push	ebp
	push	esi

; 51   : 	{
; 52   : 		//const int t = lua_gettop(L);
; 53   : 
; 54   : 		lua_getglobal(L, Derived::GetTypeName());

	call	?GetTypeName@CvLuaCity@@SAPBDXZ		; CvLuaCity::GetTypeName
	mov	esi, DWORD PTR _L$[esp+12]
	push	eax
	push	-10002					; ffffd8eeH
	push	esi
	call	_lua_getfield

; 55   : 		if(lua_isnil(L, -1))

	push	-1
	push	esi
	call	_lua_type
	add	esp, 20					; 00000014H
	test	eax, eax
	jne	$LN7@Push@2

; 56   : 		{
; 57   : 			//Typename wasn't found, time to build it.
; 58   : 			lua_pop(L, 1);

	push	-2					; fffffffeH
	push	esi
	call	_lua_settop

; 59   : 			lua_newtable(L);

	push	0
	push	0
	push	esi
	call	_lua_createtable

; 60   : 
; 61   : 			//Create weak __instances table.
; 62   : 			lua_pushstring(L, "__instances");

	push	OFFSET $SG224100
	push	esi
	call	_lua_pushstring

; 63   : 			lua_newtable(L);

	push	0
	push	0
	push	esi
	call	_lua_createtable

; 64   : 
; 65   : 			//Create __instances.mt
; 66   : 			lua_newtable(L);

	push	0
	push	0
	push	esi
	call	_lua_createtable

; 67   : 			lua_pushstring(L, "__mode");

	push	OFFSET $SG224101
	push	esi
	call	_lua_pushstring

; 68   : 			lua_pushstring(L, "v");

	push	OFFSET $SG224102
	push	esi
	call	_lua_pushstring
	add	esp, 68					; 00000044H

; 69   : 			lua_rawset(L, -3);				// mt.__mode = "v";

	push	-3					; fffffffdH
	push	esi
	call	_lua_rawset

; 70   : 			lua_setmetatable(L, -2);

	push	-2					; fffffffeH
	push	esi
	call	_lua_setmetatable

; 71   : 
; 72   : 			lua_rawset(L, -3);				//type.__instances = t;

	push	-3					; fffffffdH
	push	esi
	call	_lua_rawset

; 73   : 
; 74   : 
; 75   : 			lua_pushvalue(L, -1);

	push	-1
	push	esi
	call	_lua_pushvalue

; 76   : 			lua_setglobal(L, Derived::GetTypeName());

	call	?GetTypeName@CvLuaCity@@SAPBDXZ		; CvLuaCity::GetTypeName
	push	eax
	push	-10002					; ffffd8eeH
	push	esi
	call	_lua_setfield

; 77   : 
; 78   : 			Derived::PushMethods(L, lua_gettop(L));

	push	esi
	call	_lua_gettop
	push	eax
	push	esi
	call	?PushMethods@CvLuaCity@@SAXPAUlua_State@@H@Z ; CvLuaCity::PushMethods
	add	esp, 56					; 00000038H
$LN7@Push@2:

; 79   : 		}
; 80   : 		const int type_index = lua_gettop(L);

	push	esi
	call	_lua_gettop

; 81   : 
; 82   : 		lua_pushstring(L, "__instances");

	push	OFFSET $SG224104
	push	esi
	mov	ebx, eax
	call	_lua_pushstring

; 83   : 		lua_rawget(L, -2);

	push	-2					; fffffffeH
	push	esi
	call	_lua_rawget

; 84   : 
; 85   : 		const int instances_index = lua_gettop(L);

	push	esi
	call	_lua_gettop

; 86   : 
; 87   : 		lua_pushlightuserdata(L, pkType);

	push	edi
	push	esi
	mov	ebp, eax
	call	_lua_pushlightuserdata

; 88   : 
; 89   : 		lua_rawget(L, -2);					//retrieve type.__instances[pkType]

	push	-2					; fffffffeH
	push	esi
	call	_lua_rawget

; 90   : 
; 91   : 		if(lua_isnil(L, -1))

	push	-1
	push	esi
	call	_lua_type
	add	esp, 48					; 00000030H
	test	eax, eax
	jne	SHORT $LN2@Push@2

; 92   : 		{
; 93   : 			lua_pop(L, 1);

	push	-2					; fffffffeH
	push	esi
	call	_lua_settop

; 94   : 
; 95   : 			//Push new instance
; 96   : 			lua_createtable(L, 0, 1);

	push	1
	push	0
	push	esi
	call	_lua_createtable

; 97   : 			lua_pushlightuserdata(L, pkType);

	push	edi
	push	esi
	call	_lua_pushlightuserdata

; 98   : 			lua_setfield(L, -2, "__instance");

	push	OFFSET $SG224107
	push	-2					; fffffffeH
	push	esi
	call	_lua_setfield

; 99   : 
; 100  : 			lua_createtable(L, 0, 1);			// create mt

	push	1
	push	0
	push	esi
	call	_lua_createtable

; 101  : 			lua_pushstring(L, "__index");

	push	OFFSET $SG224108
	push	esi
	call	_lua_pushstring

; 102  : 			lua_pushvalue(L, type_index);

	push	ebx
	push	esi
	call	_lua_pushvalue
	add	esp, 68					; 00000044H

; 103  : 			lua_rawset(L, -3);					// mt.__index = Type

	push	-3					; fffffffdH
	push	esi
	call	_lua_rawset

; 104  : 			lua_setmetatable(L, -2);

	push	-2					; fffffffeH
	push	esi
	call	_lua_setmetatable

; 105  : 
; 106  : 			//Assign it in instances
; 107  : 			lua_pushlightuserdata(L, pkType);

	push	edi
	push	esi
	call	_lua_pushlightuserdata

; 108  : 			lua_pushvalue(L, -2);

	push	-2					; fffffffeH
	push	esi
	call	_lua_pushvalue

; 109  : 			lua_rawset(L, instances_index);				//__instances[pkType] = t;

	push	ebp
	push	esi
	call	_lua_rawset
	add	esp, 40					; 00000028H
$LN2@Push@2:

; 110  : 		}
; 111  : 
; 112  : 		//VERIFY(instances_index > type_index);
; 113  : 		lua_remove(L, instances_index);

	push	ebp
	push	esi
	call	_lua_remove

; 114  : 		lua_remove(L, type_index);

	push	ebx
	push	esi
	call	_lua_remove
	add	esp, 16					; 00000010H
	pop	esi
	pop	ebp
	pop	ebx
	pop	edi

; 122  : 	}
; 123  : }

	ret	0
$LN4@Push@2:

; 115  : 
; 116  : 		//const int dt = lua_gettop(L);
; 117  : 		//VERIFY(dt == t + 1)
; 118  : 	}
; 119  : 	else
; 120  : 	{
; 121  : 		lua_pushnil(L);

	mov	eax, DWORD PTR _L$[esp]
	push	eax
	call	_lua_pushnil
	add	esp, 4
	pop	edi

; 122  : 	}
; 123  : }

	ret	0
?Push@?$CvLuaScopedInstance@VCvLuaCity@@VCvCity@@@@SAXPAUlua_State@@PAVCvCity@@@Z ENDP ; CvLuaScopedInstance<CvLuaCity,CvCity>::Push
_TEXT	ENDS
PUBLIC	?GetInstance@?$CvLuaScopedInstance@VCvLuaCity@@VCvCity@@@@SAPAVCvCity@@PAUlua_State@@H_N@Z ; CvLuaScopedInstance<CvLuaCity,CvCity>::GetInstance
EXTRN	?HandleMissingInstance@CvLuaCity@@SAXPAUlua_State@@@Z:PROC ; CvLuaCity::HandleMissingInstance
EXTRN	_lua_touserdata:PROC
; Function compile flags: /Ogtpy
;	COMDAT ?GetInstance@?$CvLuaScopedInstance@VCvLuaCity@@VCvCity@@@@SAPAVCvCity@@PAUlua_State@@H_N@Z
_TEXT	SEGMENT
_L$ = 8							; size = 4
_idx$ = 12						; size = 4
_bErrorOnFail$ = 16					; size = 1
?GetInstance@?$CvLuaScopedInstance@VCvLuaCity@@VCvCity@@@@SAPAVCvCity@@PAUlua_State@@H_N@Z PROC ; CvLuaScopedInstance<CvLuaCity,CvCity>::GetInstance, COMDAT

; 127  : {

	push	ebx
	push	ebp
	push	esi

; 128  : 	const int stack_size = lua_gettop(L);

	mov	esi, DWORD PTR _L$[esp+8]
	push	edi
	push	esi
	call	_lua_gettop
	mov	ebp, eax

; 129  : 	bool bFail = true;
; 130  : 
; 131  : 	InstanceType* pkInstance = NULL;
; 132  : 	if(lua_type(L, idx) == LUA_TTABLE)

	mov	eax, DWORD PTR _idx$[esp+16]
	push	eax
	push	esi
	mov	bl, 1
	xor	edi, edi
	call	_lua_type
	add	esp, 12					; 0000000cH
	cmp	eax, 5
	jne	SHORT $LN3@GetInstanc

; 133  : 	{
; 134  : 		lua_getfield(L, idx, "__instance");

	mov	ecx, DWORD PTR _idx$[esp+12]
	push	OFFSET $SG224123
	push	ecx
	push	esi
	call	_lua_getfield

; 135  : 		if(lua_type(L, -1) == LUA_TLIGHTUSERDATA)

	push	-1
	push	esi
	call	_lua_type
	add	esp, 20					; 00000014H
	cmp	eax, 2
	jne	SHORT $LN3@GetInstanc

; 136  : 		{
; 137  : 			pkInstance = static_cast<InstanceType*>(lua_touserdata(L, -1));

	push	-1
	push	esi
	call	_lua_touserdata
	mov	edi, eax
	add	esp, 8

; 138  : 			if(pkInstance)

	test	edi, edi
	je	SHORT $LN3@GetInstanc

; 139  : 			{
; 140  : 				bFail = false;

	xor	bl, bl
$LN3@GetInstanc:

; 141  : 			}
; 142  : 		}
; 143  : 	}
; 144  : 
; 145  : 	lua_settop(L, stack_size);

	push	ebp
	push	esi
	call	_lua_settop
	add	esp, 8

; 146  : 
; 147  : 	if(bFail && bErrorOnFail)

	test	bl, bl
	je	SHORT $LN9@GetInstanc
	cmp	BYTE PTR _bErrorOnFail$[esp+12], 0
	je	SHORT $LN9@GetInstanc

; 148  : 	{
; 149  : 		if(idx == 1)

	cmp	DWORD PTR _idx$[esp+12], 1
	jne	SHORT $LN1@GetInstanc

; 150  : 			luaL_error(L, "Not a valid instance.  Either the instance is NULL or you used '.' instead of ':'.");

	push	OFFSET $SG224129
	push	esi
	call	_luaL_error
	add	esp, 8
$LN1@GetInstanc:

; 151  : 		Derived::HandleMissingInstance(L);

	push	esi
	call	?HandleMissingInstance@CvLuaCity@@SAXPAUlua_State@@@Z ; CvLuaCity::HandleMissingInstance
	add	esp, 4
$LN9@GetInstanc:

; 152  : 	}
; 153  : 	return pkInstance;

	mov	eax, edi
	pop	edi
	pop	esi
	pop	ebp
	pop	ebx

; 154  : }

	ret	0
?GetInstance@?$CvLuaScopedInstance@VCvLuaCity@@VCvCity@@@@SAPAVCvCity@@PAUlua_State@@H_N@Z ENDP ; CvLuaScopedInstance<CvLuaCity,CvCity>::GetInstance
_TEXT	ENDS
PUBLIC	?Push@?$CvLuaScopedInstance@VCvLuaPlot@@VCvPlot@@@@SAXPAUlua_State@@PAVCvPlot@@@Z ; CvLuaScopedInstance<CvLuaPlot,CvPlot>::Push
EXTRN	?PushMethods@CvLuaPlot@@SAXPAUlua_State@@H@Z:PROC ; CvLuaPlot::PushMethods
EXTRN	?GetTypeName@CvLuaPlot@@SAPBDXZ:PROC		; CvLuaPlot::GetTypeName
; Function compile flags: /Ogtpy
;	COMDAT ?Push@?$CvLuaScopedInstance@VCvLuaPlot@@VCvPlot@@@@SAXPAUlua_State@@PAVCvPlot@@@Z
_TEXT	SEGMENT
_L$ = 8							; size = 4
_pkType$ = 12						; size = 4
?Push@?$CvLuaScopedInstance@VCvLuaPlot@@VCvPlot@@@@SAXPAUlua_State@@PAVCvPlot@@@Z PROC ; CvLuaScopedInstance<CvLuaPlot,CvPlot>::Push, COMDAT

; 39   : {

	push	edi

; 40   : 	//Pushing an instance involves more than just actually pushing a pointer into the
; 41   : 	//Lua stack.  There are some caching optimizations that are done as well as some
; 42   : 	//checks.
; 43   : 	//The first step is to load or create a global table <Typename> to store all member
; 44   : 	//methods and all pushed instances.  This conserves memory and offers faster pushing
; 45   : 	//speed.
; 46   : 	//If <Typename>.__instances[pkType] is not nil, return that value.
; 47   : 	//otherwise push a new instance and assign it to __instances.
; 48   : 
; 49   : 	//NOTE: Raw gets and sets are used as an optimization over using lua_[get,set]field
; 50   : 	if(pkType)

	mov	edi, DWORD PTR _pkType$[esp]
	test	edi, edi
	je	$LN4@Push@3
	push	ebx
	push	ebp
	push	esi

; 51   : 	{
; 52   : 		//const int t = lua_gettop(L);
; 53   : 
; 54   : 		lua_getglobal(L, Derived::GetTypeName());

	call	?GetTypeName@CvLuaPlot@@SAPBDXZ		; CvLuaPlot::GetTypeName
	mov	esi, DWORD PTR _L$[esp+12]
	push	eax
	push	-10002					; ffffd8eeH
	push	esi
	call	_lua_getfield

; 55   : 		if(lua_isnil(L, -1))

	push	-1
	push	esi
	call	_lua_type
	add	esp, 20					; 00000014H
	test	eax, eax
	jne	$LN7@Push@3

; 56   : 		{
; 57   : 			//Typename wasn't found, time to build it.
; 58   : 			lua_pop(L, 1);

	push	-2					; fffffffeH
	push	esi
	call	_lua_settop

; 59   : 			lua_newtable(L);

	push	0
	push	0
	push	esi
	call	_lua_createtable

; 60   : 
; 61   : 			//Create weak __instances table.
; 62   : 			lua_pushstring(L, "__instances");

	push	OFFSET $SG224140
	push	esi
	call	_lua_pushstring

; 63   : 			lua_newtable(L);

	push	0
	push	0
	push	esi
	call	_lua_createtable

; 64   : 
; 65   : 			//Create __instances.mt
; 66   : 			lua_newtable(L);

	push	0
	push	0
	push	esi
	call	_lua_createtable

; 67   : 			lua_pushstring(L, "__mode");

	push	OFFSET $SG224141
	push	esi
	call	_lua_pushstring

; 68   : 			lua_pushstring(L, "v");

	push	OFFSET $SG224142
	push	esi
	call	_lua_pushstring
	add	esp, 68					; 00000044H

; 69   : 			lua_rawset(L, -3);				// mt.__mode = "v";

	push	-3					; fffffffdH
	push	esi
	call	_lua_rawset

; 70   : 			lua_setmetatable(L, -2);

	push	-2					; fffffffeH
	push	esi
	call	_lua_setmetatable

; 71   : 
; 72   : 			lua_rawset(L, -3);				//type.__instances = t;

	push	-3					; fffffffdH
	push	esi
	call	_lua_rawset

; 73   : 
; 74   : 
; 75   : 			lua_pushvalue(L, -1);

	push	-1
	push	esi
	call	_lua_pushvalue

; 76   : 			lua_setglobal(L, Derived::GetTypeName());

	call	?GetTypeName@CvLuaPlot@@SAPBDXZ		; CvLuaPlot::GetTypeName
	push	eax
	push	-10002					; ffffd8eeH
	push	esi
	call	_lua_setfield

; 77   : 
; 78   : 			Derived::PushMethods(L, lua_gettop(L));

	push	esi
	call	_lua_gettop
	push	eax
	push	esi
	call	?PushMethods@CvLuaPlot@@SAXPAUlua_State@@H@Z ; CvLuaPlot::PushMethods
	add	esp, 56					; 00000038H
$LN7@Push@3:

; 79   : 		}
; 80   : 		const int type_index = lua_gettop(L);

	push	esi
	call	_lua_gettop

; 81   : 
; 82   : 		lua_pushstring(L, "__instances");

	push	OFFSET $SG224144
	push	esi
	mov	ebx, eax
	call	_lua_pushstring

; 83   : 		lua_rawget(L, -2);

	push	-2					; fffffffeH
	push	esi
	call	_lua_rawget

; 84   : 
; 85   : 		const int instances_index = lua_gettop(L);

	push	esi
	call	_lua_gettop

; 86   : 
; 87   : 		lua_pushlightuserdata(L, pkType);

	push	edi
	push	esi
	mov	ebp, eax
	call	_lua_pushlightuserdata

; 88   : 
; 89   : 		lua_rawget(L, -2);					//retrieve type.__instances[pkType]

	push	-2					; fffffffeH
	push	esi
	call	_lua_rawget

; 90   : 
; 91   : 		if(lua_isnil(L, -1))

	push	-1
	push	esi
	call	_lua_type
	add	esp, 48					; 00000030H
	test	eax, eax
	jne	SHORT $LN2@Push@3

; 92   : 		{
; 93   : 			lua_pop(L, 1);

	push	-2					; fffffffeH
	push	esi
	call	_lua_settop

; 94   : 
; 95   : 			//Push new instance
; 96   : 			lua_createtable(L, 0, 1);

	push	1
	push	0
	push	esi
	call	_lua_createtable

; 97   : 			lua_pushlightuserdata(L, pkType);

	push	edi
	push	esi
	call	_lua_pushlightuserdata

; 98   : 			lua_setfield(L, -2, "__instance");

	push	OFFSET $SG224147
	push	-2					; fffffffeH
	push	esi
	call	_lua_setfield

; 99   : 
; 100  : 			lua_createtable(L, 0, 1);			// create mt

	push	1
	push	0
	push	esi
	call	_lua_createtable

; 101  : 			lua_pushstring(L, "__index");

	push	OFFSET $SG224148
	push	esi
	call	_lua_pushstring

; 102  : 			lua_pushvalue(L, type_index);

	push	ebx
	push	esi
	call	_lua_pushvalue
	add	esp, 68					; 00000044H

; 103  : 			lua_rawset(L, -3);					// mt.__index = Type

	push	-3					; fffffffdH
	push	esi
	call	_lua_rawset

; 104  : 			lua_setmetatable(L, -2);

	push	-2					; fffffffeH
	push	esi
	call	_lua_setmetatable

; 105  : 
; 106  : 			//Assign it in instances
; 107  : 			lua_pushlightuserdata(L, pkType);

	push	edi
	push	esi
	call	_lua_pushlightuserdata

; 108  : 			lua_pushvalue(L, -2);

	push	-2					; fffffffeH
	push	esi
	call	_lua_pushvalue

; 109  : 			lua_rawset(L, instances_index);				//__instances[pkType] = t;

	push	ebp
	push	esi
	call	_lua_rawset
	add	esp, 40					; 00000028H
$LN2@Push@3:

; 110  : 		}
; 111  : 
; 112  : 		//VERIFY(instances_index > type_index);
; 113  : 		lua_remove(L, instances_index);

	push	ebp
	push	esi
	call	_lua_remove

; 114  : 		lua_remove(L, type_index);

	push	ebx
	push	esi
	call	_lua_remove
	add	esp, 16					; 00000010H
	pop	esi
	pop	ebp
	pop	ebx
	pop	edi

; 122  : 	}
; 123  : }

	ret	0
$LN4@Push@3:

; 115  : 
; 116  : 		//const int dt = lua_gettop(L);
; 117  : 		//VERIFY(dt == t + 1)
; 118  : 	}
; 119  : 	else
; 120  : 	{
; 121  : 		lua_pushnil(L);

	mov	eax, DWORD PTR _L$[esp]
	push	eax
	call	_lua_pushnil
	add	esp, 4
	pop	edi

; 122  : 	}
; 123  : }

	ret	0
?Push@?$CvLuaScopedInstance@VCvLuaPlot@@VCvPlot@@@@SAXPAUlua_State@@PAVCvPlot@@@Z ENDP ; CvLuaScopedInstance<CvLuaPlot,CvPlot>::Push
_TEXT	ENDS
PUBLIC	?GetInstance@?$CvLuaScopedInstance@VCvLuaPlot@@VCvPlot@@@@SAPAVCvPlot@@PAUlua_State@@H_N@Z ; CvLuaScopedInstance<CvLuaPlot,CvPlot>::GetInstance
EXTRN	?HandleMissingInstance@CvLuaPlot@@SAXPAUlua_State@@@Z:PROC ; CvLuaPlot::HandleMissingInstance
; Function compile flags: /Ogtpy
;	COMDAT ?GetInstance@?$CvLuaScopedInstance@VCvLuaPlot@@VCvPlot@@@@SAPAVCvPlot@@PAUlua_State@@H_N@Z
_TEXT	SEGMENT
_L$ = 8							; size = 4
_idx$ = 12						; size = 4
_bErrorOnFail$ = 16					; size = 1
?GetInstance@?$CvLuaScopedInstance@VCvLuaPlot@@VCvPlot@@@@SAPAVCvPlot@@PAUlua_State@@H_N@Z PROC ; CvLuaScopedInstance<CvLuaPlot,CvPlot>::GetInstance, COMDAT

; 127  : {

	push	ebx
	push	ebp
	push	esi

; 128  : 	const int stack_size = lua_gettop(L);

	mov	esi, DWORD PTR _L$[esp+8]
	push	edi
	push	esi
	call	_lua_gettop
	mov	ebp, eax

; 129  : 	bool bFail = true;
; 130  : 
; 131  : 	InstanceType* pkInstance = NULL;
; 132  : 	if(lua_type(L, idx) == LUA_TTABLE)

	mov	eax, DWORD PTR _idx$[esp+16]
	push	eax
	push	esi
	mov	bl, 1
	xor	edi, edi
	call	_lua_type
	add	esp, 12					; 0000000cH
	cmp	eax, 5
	jne	SHORT $LN3@GetInstanc@2

; 133  : 	{
; 134  : 		lua_getfield(L, idx, "__instance");

	mov	ecx, DWORD PTR _idx$[esp+12]
	push	OFFSET $SG224163
	push	ecx
	push	esi
	call	_lua_getfield

; 135  : 		if(lua_type(L, -1) == LUA_TLIGHTUSERDATA)

	push	-1
	push	esi
	call	_lua_type
	add	esp, 20					; 00000014H
	cmp	eax, 2
	jne	SHORT $LN3@GetInstanc@2

; 136  : 		{
; 137  : 			pkInstance = static_cast<InstanceType*>(lua_touserdata(L, -1));

	push	-1
	push	esi
	call	_lua_touserdata
	mov	edi, eax
	add	esp, 8

; 138  : 			if(pkInstance)

	test	edi, edi
	je	SHORT $LN3@GetInstanc@2

; 139  : 			{
; 140  : 				bFail = false;

	xor	bl, bl
$LN3@GetInstanc@2:

; 141  : 			}
; 142  : 		}
; 143  : 	}
; 144  : 
; 145  : 	lua_settop(L, stack_size);

	push	ebp
	push	esi
	call	_lua_settop
	add	esp, 8

; 146  : 
; 147  : 	if(bFail && bErrorOnFail)

	test	bl, bl
	je	SHORT $LN9@GetInstanc@2
	cmp	BYTE PTR _bErrorOnFail$[esp+12], 0
	je	SHORT $LN9@GetInstanc@2

; 148  : 	{
; 149  : 		if(idx == 1)

	cmp	DWORD PTR _idx$[esp+12], 1
	jne	SHORT $LN1@GetInstanc@2

; 150  : 			luaL_error(L, "Not a valid instance.  Either the instance is NULL or you used '.' instead of ':'.");

	push	OFFSET $SG224169
	push	esi
	call	_luaL_error
	add	esp, 8
$LN1@GetInstanc@2:

; 151  : 		Derived::HandleMissingInstance(L);

	push	esi
	call	?HandleMissingInstance@CvLuaPlot@@SAXPAUlua_State@@@Z ; CvLuaPlot::HandleMissingInstance
	add	esp, 4
$LN9@GetInstanc@2:

; 152  : 	}
; 153  : 	return pkInstance;

	mov	eax, edi
	pop	edi
	pop	esi
	pop	ebp
	pop	ebx

; 154  : }

	ret	0
?GetInstance@?$CvLuaScopedInstance@VCvLuaPlot@@VCvPlot@@@@SAPAVCvPlot@@PAUlua_State@@H_N@Z ENDP ; CvLuaScopedInstance<CvLuaPlot,CvPlot>::GetInstance
_TEXT	ENDS
PUBLIC	?GetInstance@?$CvLuaScopedInstance@VCvLuaUnit@@VCvUnit@@@@SAPAVCvUnit@@PAUlua_State@@H_N@Z ; CvLuaScopedInstance<CvLuaUnit,CvUnit>::GetInstance
; Function compile flags: /Ogtpy
;	COMDAT ?GetInstance@?$CvLuaScopedInstance@VCvLuaUnit@@VCvUnit@@@@SAPAVCvUnit@@PAUlua_State@@H_N@Z
_TEXT	SEGMENT
_L$ = 8							; size = 4
_idx$ = 12						; size = 4
_bErrorOnFail$ = 16					; size = 1
?GetInstance@?$CvLuaScopedInstance@VCvLuaUnit@@VCvUnit@@@@SAPAVCvUnit@@PAUlua_State@@H_N@Z PROC ; CvLuaScopedInstance<CvLuaUnit,CvUnit>::GetInstance, COMDAT

; 127  : {

	push	ebx
	push	ebp
	push	esi

; 128  : 	const int stack_size = lua_gettop(L);

	mov	esi, DWORD PTR _L$[esp+8]
	push	edi
	push	esi
	call	_lua_gettop
	mov	ebp, eax

; 129  : 	bool bFail = true;
; 130  : 
; 131  : 	InstanceType* pkInstance = NULL;
; 132  : 	if(lua_type(L, idx) == LUA_TTABLE)

	mov	eax, DWORD PTR _idx$[esp+16]
	push	eax
	push	esi
	mov	bl, 1
	xor	edi, edi
	call	_lua_type
	add	esp, 12					; 0000000cH
	cmp	eax, 5
	jne	SHORT $LN3@GetInstanc@3

; 133  : 	{
; 134  : 		lua_getfield(L, idx, "__instance");

	mov	ecx, DWORD PTR _idx$[esp+12]
	push	OFFSET $SG224203
	push	ecx
	push	esi
	call	_lua_getfield

; 135  : 		if(lua_type(L, -1) == LUA_TLIGHTUSERDATA)

	push	-1
	push	esi
	call	_lua_type
	add	esp, 20					; 00000014H
	cmp	eax, 2
	jne	SHORT $LN3@GetInstanc@3

; 136  : 		{
; 137  : 			pkInstance = static_cast<InstanceType*>(lua_touserdata(L, -1));

	push	-1
	push	esi
	call	_lua_touserdata
	mov	edi, eax
	add	esp, 8

; 138  : 			if(pkInstance)

	test	edi, edi
	je	SHORT $LN3@GetInstanc@3

; 139  : 			{
; 140  : 				bFail = false;

	xor	bl, bl
$LN3@GetInstanc@3:

; 141  : 			}
; 142  : 		}
; 143  : 	}
; 144  : 
; 145  : 	lua_settop(L, stack_size);

	push	ebp
	push	esi
	call	_lua_settop
	add	esp, 8

; 146  : 
; 147  : 	if(bFail && bErrorOnFail)

	test	bl, bl
	je	SHORT $LN11@GetInstanc@3
	cmp	BYTE PTR _bErrorOnFail$[esp+12], 0
	je	SHORT $LN11@GetInstanc@3

; 148  : 	{
; 149  : 		if(idx == 1)

	cmp	DWORD PTR _idx$[esp+12], 1
	jne	SHORT $LN1@GetInstanc@3

; 150  : 			luaL_error(L, "Not a valid instance.  Either the instance is NULL or you used '.' instead of ':'.");

	push	OFFSET $SG224209
	push	esi
	call	_luaL_error
	add	esp, 8
$LN1@GetInstanc@3:

; 151  : 		Derived::HandleMissingInstance(L);

	push	OFFSET $SG221232
	push	esi
	call	_luaL_error
	add	esp, 8
$LN11@GetInstanc@3:

; 152  : 	}
; 153  : 	return pkInstance;

	mov	eax, edi
	pop	edi
	pop	esi
	pop	ebp
	pop	ebx

; 154  : }

	ret	0
?GetInstance@?$CvLuaScopedInstance@VCvLuaUnit@@VCvUnit@@@@SAPAVCvUnit@@PAUlua_State@@H_N@Z ENDP ; CvLuaScopedInstance<CvLuaUnit,CvUnit>::GetInstance
_TEXT	ENDS
PUBLIC	??$BasicLuaMethod@_N@?$CvLuaMethodWrapper@VCvLuaUnit@@VCvUnit@@@@KAHPAUlua_State@@P8CvUnit@@BE_NXZ@Z ; CvLuaMethodWrapper<CvLuaUnit,CvUnit>::BasicLuaMethod<bool>
; Function compile flags: /Ogtpy
; File c:\users\enormousapplepie\desktop\cleanup (v1)\lekmod files\lekmod dll versions\v30\lekmod_dll\cvgamecoredllutil\include\cvluamethodwrapper.h
;	COMDAT ??$BasicLuaMethod@_N@?$CvLuaMethodWrapper@VCvLuaUnit@@VCvUnit@@@@KAHPAUlua_State@@P8CvUnit@@BE_NXZ@Z
_TEXT	SEGMENT
_L$ = 8							; size = 4
_func$ = 12						; size = 4
??$BasicLuaMethod@_N@?$CvLuaMethodWrapper@VCvLuaUnit@@VCvUnit@@@@KAHPAUlua_State@@P8CvUnit@@BE_NXZ@Z PROC ; CvLuaMethodWrapper<CvLuaUnit,CvUnit>::BasicLuaMethod<bool>, COMDAT

; 69   : {

	push	ebx
	push	ebp
	push	esi

; 70   : 	InstanceType* pkType = Derived::GetInstance(L);

	mov	esi, DWORD PTR _L$[esp+8]
	push	edi
	push	esi
	call	_lua_gettop
	push	1
	push	esi
	mov	ebp, eax
	mov	bl, 1
	xor	edi, edi
	call	_lua_type
	add	esp, 12					; 0000000cH
	cmp	eax, 5
	jne	SHORT $LN5@BasicLuaMe
	push	OFFSET $SG224203
	push	1
	push	esi
	call	_lua_getfield
	push	-1
	push	esi
	call	_lua_type
	add	esp, 20					; 00000014H
	cmp	eax, 2
	jne	SHORT $LN5@BasicLuaMe
	push	-1
	push	esi
	call	_lua_touserdata
	mov	edi, eax
	add	esp, 8
	test	edi, edi
	je	SHORT $LN5@BasicLuaMe
	xor	bl, bl
$LN5@BasicLuaMe:
	push	ebp
	push	esi
	call	_lua_settop
	add	esp, 8
	test	bl, bl
	je	SHORT $LN10@BasicLuaMe
	push	OFFSET $SG224209
	push	esi
	call	_luaL_error
	push	OFFSET $SG221232
	push	esi
	call	_luaL_error
	add	esp, 16					; 00000010H
$LN10@BasicLuaMe:

; 71   : 	CvLuaArgs::pushValue<ret>(L, (pkType->*func)());

	mov	ecx, edi
	call	DWORD PTR _func$[esp+12]
	movzx	eax, al
	push	eax
	push	esi
	call	_lua_pushboolean
	add	esp, 8
	pop	edi
	pop	esi
	pop	ebp

; 72   : 
; 73   : 	return 1;

	mov	eax, 1
	pop	ebx

; 74   : }

	ret	0
??$BasicLuaMethod@_N@?$CvLuaMethodWrapper@VCvLuaUnit@@VCvUnit@@@@KAHPAUlua_State@@P8CvUnit@@BE_NXZ@Z ENDP ; CvLuaMethodWrapper<CvLuaUnit,CvUnit>::BasicLuaMethod<bool>
_TEXT	ENDS
PUBLIC	??$BasicLuaMethod@H@?$CvLuaMethodWrapper@VCvLuaUnit@@VCvUnit@@@@KAHPAUlua_State@@P8CvUnit@@BEHXZ@Z ; CvLuaMethodWrapper<CvLuaUnit,CvUnit>::BasicLuaMethod<int>
; Function compile flags: /Ogtpy
;	COMDAT ??$BasicLuaMethod@H@?$CvLuaMethodWrapper@VCvLuaUnit@@VCvUnit@@@@KAHPAUlua_State@@P8CvUnit@@BEHXZ@Z
_TEXT	SEGMENT
_L$ = 8							; size = 4
_func$ = 12						; size = 4
??$BasicLuaMethod@H@?$CvLuaMethodWrapper@VCvLuaUnit@@VCvUnit@@@@KAHPAUlua_State@@P8CvUnit@@BEHXZ@Z PROC ; CvLuaMethodWrapper<CvLuaUnit,CvUnit>::BasicLuaMethod<int>, COMDAT

; 69   : {

	push	ebx
	push	ebp
	push	esi

; 70   : 	InstanceType* pkType = Derived::GetInstance(L);

	mov	esi, DWORD PTR _L$[esp+8]
	push	edi
	push	esi
	call	_lua_gettop
	push	1
	push	esi
	mov	ebp, eax
	mov	bl, 1
	xor	edi, edi
	call	_lua_type
	add	esp, 12					; 0000000cH
	cmp	eax, 5
	jne	SHORT $LN5@BasicLuaMe@2
	push	OFFSET $SG224203
	push	1
	push	esi
	call	_lua_getfield
	push	-1
	push	esi
	call	_lua_type
	add	esp, 20					; 00000014H
	cmp	eax, 2
	jne	SHORT $LN5@BasicLuaMe@2
	push	-1
	push	esi
	call	_lua_touserdata
	mov	edi, eax
	add	esp, 8
	test	edi, edi
	je	SHORT $LN5@BasicLuaMe@2
	xor	bl, bl
$LN5@BasicLuaMe@2:
	push	ebp
	push	esi
	call	_lua_settop
	add	esp, 8
	test	bl, bl
	je	SHORT $LN10@BasicLuaMe@2
	push	OFFSET $SG224209
	push	esi
	call	_luaL_error
	push	OFFSET $SG221232
	push	esi
	call	_luaL_error
	add	esp, 16					; 00000010H
$LN10@BasicLuaMe@2:

; 71   : 	CvLuaArgs::pushValue<ret>(L, (pkType->*func)());

	mov	ecx, edi
	call	DWORD PTR _func$[esp+12]
	push	eax
	push	esi
	call	_lua_pushinteger
	add	esp, 8
	pop	edi
	pop	esi
	pop	ebp

; 72   : 
; 73   : 	return 1;

	mov	eax, 1
	pop	ebx

; 74   : }

	ret	0
??$BasicLuaMethod@H@?$CvLuaMethodWrapper@VCvLuaUnit@@VCvUnit@@@@KAHPAUlua_State@@P8CvUnit@@BEHXZ@Z ENDP ; CvLuaMethodWrapper<CvLuaUnit,CvUnit>::BasicLuaMethod<int>
_TEXT	ENDS
PUBLIC	?GetStartingArgIndex@?$CvLuaScopedInstance@VCvLuaUnit@@VCvUnit@@@@SA?BHXZ ; CvLuaScopedInstance<CvLuaUnit,CvUnit>::GetStartingArgIndex
; Function compile flags: /Ogtpy
; File c:\users\enormousapplepie\desktop\cleanup (v1)\lekmod files\lekmod dll versions\v30\lekmod_dll\cvgamecoredll_expansion2\lua\cvluascopedinstance.h
;	COMDAT ?GetStartingArgIndex@?$CvLuaScopedInstance@VCvLuaUnit@@VCvUnit@@@@SA?BHXZ
_TEXT	SEGMENT
?GetStartingArgIndex@?$CvLuaScopedInstance@VCvLuaUnit@@VCvUnit@@@@SA?BHXZ PROC ; CvLuaScopedInstance<CvLuaUnit,CvUnit>::GetStartingArgIndex, COMDAT

; 159  : 	return 2;

	mov	eax, 2

; 160  : }

	ret	0
?GetStartingArgIndex@?$CvLuaScopedInstance@VCvLuaUnit@@VCvUnit@@@@SA?BHXZ ENDP ; CvLuaScopedInstance<CvLuaUnit,CvUnit>::GetStartingArgIndex
; Function compile flags: /Ogtpy
; File c:\users\enormousapplepie\desktop\cleanup (v1)\lekmod files\lekmod dll versions\v30\lekmod_dll\cvgamecoredllutil\include\cvluaargtemplates.h
_TEXT	ENDS
;	COMDAT ??$toValue@W4CommandTypes@@@CvLuaArgs@@YA?AW4CommandTypes@@PAUlua_State@@H@Z
_TEXT	SEGMENT
??$toValue@W4CommandTypes@@@CvLuaArgs@@YA?AW4CommandTypes@@PAUlua_State@@H@Z PROC ; CvLuaArgs::toValue<enum CommandTypes>, COMDAT
; _L$ = ecx
; _idx$ = eax

; 12   : 		//This is pretty unsafe, but common.
; 13   : 		//Assume T is a poorly designed enum =(
; 14   : 		return (T)lua_tointeger(L, idx);

	push	eax
	push	ecx
	call	_lua_tointeger
	add	esp, 8

; 15   : 	}

	ret	0
??$toValue@W4CommandTypes@@@CvLuaArgs@@YA?AW4CommandTypes@@PAUlua_State@@H@Z ENDP ; CvLuaArgs::toValue<enum CommandTypes>
; Function compile flags: /Ogtpy
_TEXT	ENDS
;	COMDAT ??$toValue@PBVCvPlot@@@CvLuaArgs@@YAPBVCvPlot@@PAUlua_State@@H@Z
_TEXT	SEGMENT
??$toValue@PBVCvPlot@@@CvLuaArgs@@YAPBVCvPlot@@PAUlua_State@@H@Z PROC ; CvLuaArgs::toValue<CvPlot const *>, COMDAT
; _L$ = ecx
; _idx$ = eax

; 12   : 		//This is pretty unsafe, but common.
; 13   : 		//Assume T is a poorly designed enum =(
; 14   : 		return (T)lua_tointeger(L, idx);

	push	eax
	push	ecx
	call	_lua_tointeger
	add	esp, 8

; 15   : 	}

	ret	0
??$toValue@PBVCvPlot@@@CvLuaArgs@@YAPBVCvPlot@@PAUlua_State@@H@Z ENDP ; CvLuaArgs::toValue<CvPlot const *>
; Function compile flags: /Ogtpy
_TEXT	ENDS
;	COMDAT ??$pushValue@W4PlayerTypes@@@CvLuaArgs@@YAXPAUlua_State@@W4PlayerTypes@@@Z
_TEXT	SEGMENT
??$pushValue@W4PlayerTypes@@@CvLuaArgs@@YAXPAUlua_State@@W4PlayerTypes@@@Z PROC ; CvLuaArgs::pushValue<enum PlayerTypes>, COMDAT
; _L$ = ecx
; _t$ = eax

; 31   : 		//This is pretty unsafe, but common.
; 32   : 		//Assume T is a poorly designed enum =(
; 33   : 		lua_pushinteger(L, t);

	push	eax
	push	ecx
	call	_lua_pushinteger
	add	esp, 8

; 34   : 	}

	ret	0
??$pushValue@W4PlayerTypes@@@CvLuaArgs@@YAXPAUlua_State@@W4PlayerTypes@@@Z ENDP ; CvLuaArgs::pushValue<enum PlayerTypes>
_TEXT	ENDS
PUBLIC	??_C@_00CNPNBAHC@?$AA@				; `string'
PUBLIC	??0CvString@@QAE@PBD@Z				; CvString::CvString
EXTRN	__imp_??0?$basic_string@DU?$char_traits@D@std@@V?$allocator@D@2@@std@@QAE@PBD@Z:PROC
;	COMDAT ??_C@_00CNPNBAHC@?$AA@
; File c:\users\enormousapplepie\desktop\cleanup (v1)\lekmod files\lekmod dll versions\v30\lekmod_dll\cvgamecoredllutil\include\cvstring.h
CONST	SEGMENT
??_C@_00CNPNBAHC@?$AA@ DB 00H				; `string'
; Function compile flags: /Ogtpy
CONST	ENDS
;	COMDAT ??0CvString@@QAE@PBD@Z
_TEXT	SEGMENT
_s$ = 8							; size = 4
??0CvString@@QAE@PBD@Z PROC				; CvString::CvString, COMDAT
; _this$ = ecx

; 25   : 	CvString(const char* s) : std::string(s ? s : "") {CvAssertMsg(s != NULL, "Passing NULL to std::string; possible heap corruption!");}

	mov	eax, DWORD PTR _s$[esp-4]
	push	esi
	mov	esi, ecx
	test	eax, eax
	jne	SHORT $LN4@CvString
	mov	eax, OFFSET ??_C@_00CNPNBAHC@?$AA@
$LN4@CvString:
	push	eax
	call	DWORD PTR __imp_??0?$basic_string@DU?$char_traits@D@std@@V?$allocator@D@2@@std@@QAE@PBD@Z
	mov	eax, esi
	pop	esi
	ret	4
??0CvString@@QAE@PBD@Z ENDP				; CvString::CvString
_TEXT	ENDS
PUBLIC	??1CvString@@QAE@XZ				; CvString::~CvString
; Function compile flags: /Ogtpy
;	COMDAT ??1CvString@@QAE@XZ
_TEXT	SEGMENT
??1CvString@@QAE@XZ PROC				; CvString::~CvString, COMDAT
; _this$ = ecx

; 28   : 	~CvString() {}

	jmp	DWORD PTR __imp_??1?$basic_string@DU?$char_traits@D@std@@V?$allocator@D@2@@std@@QAE@XZ
??1CvString@@QAE@XZ ENDP				; CvString::~CvString
_TEXT	ENDS
PUBLIC	??BCvString@@QBEPBDXZ				; CvString::operator char const *
; Function compile flags: /Ogtpy
;	COMDAT ??BCvString@@QBEPBDXZ
_TEXT	SEGMENT
??BCvString@@QBEPBDXZ PROC				; CvString::operator char const *, COMDAT
; _this$ = ecx

; 31   : 	operator const char*() const 	{ return c_str(); }												

	jmp	DWORD PTR __imp_?c_str@?$basic_string@DU?$char_traits@D@std@@V?$allocator@D@2@@std@@QBEPBDXZ
??BCvString@@QBEPBDXZ ENDP				; CvString::operator char const *
_TEXT	ENDS
PUBLIC	?IsEmpty@CvString@@QBE_NXZ			; CvString::IsEmpty
EXTRN	__imp_?empty@?$basic_string@DU?$char_traits@D@std@@V?$allocator@D@2@@std@@QBE_NXZ:PROC
; Function compile flags: /Ogtpy
;	COMDAT ?IsEmpty@CvString@@QBE_NXZ
_TEXT	SEGMENT
?IsEmpty@CvString@@QBE_NXZ PROC				; CvString::IsEmpty, COMDAT
; _this$ = ecx

; 41   : 	bool IsEmpty() const { return (empty() || this[0] == '\0');}

	push	esi
	mov	esi, ecx
	call	DWORD PTR __imp_?empty@?$basic_string@DU?$char_traits@D@std@@V?$allocator@D@2@@std@@QBE_NXZ
	test	al, al
	jne	SHORT $LN3@IsEmpty
	mov	ecx, esi
	call	DWORD PTR __imp_?c_str@?$basic_string@DU?$char_traits@D@std@@V?$allocator@D@2@@std@@QBEPBDXZ
	test	eax, eax
	je	SHORT $LN3@IsEmpty
	xor	eax, eax
	pop	esi
	ret	0
$LN3@IsEmpty:
	mov	eax, 1
	pop	esi
	ret	0
?IsEmpty@CvString@@QBE_NXZ ENDP				; CvString::IsEmpty
_TEXT	ENDS
PUBLIC	?GetReligionData@CvUnit@@QBEPAVCvUnitReligion@@XZ ; CvUnit::GetReligionData
; Function compile flags: /Ogtpy
; File c:\users\enormousapplepie\desktop\cleanup (v1)\lekmod files\lekmod dll versions\v30\lekmod_dll\cvgamecoredll_expansion2\cvunit.h
;	COMDAT ?GetReligionData@CvUnit@@QBEPAVCvUnitReligion@@XZ
_TEXT	SEGMENT
?GetReligionData@CvUnit@@QBEPAVCvUnitReligion@@XZ PROC	; CvUnit::GetReligionData, COMDAT
; _this$ = ecx

; 1317 : 		return m_pReligion;

	mov	eax, DWORD PTR [ecx+1888]

; 1318 : 	};

	ret	0
?GetReligionData@CvUnit@@QBEPAVCvUnitReligion@@XZ ENDP	; CvUnit::GetReligionData
_TEXT	ENDS
PUBLIC	?getMap@CvGlobals@@QAEAAVCvMap@@XZ		; CvGlobals::getMap
; Function compile flags: /Ogtpy
; File c:\users\enormousapplepie\desktop\cleanup (v1)\lekmod files\lekmod dll versions\v30\lekmod_dll\cvgamecoredll_expansion2\cvglobals.h
;	COMDAT ?getMap@CvGlobals@@QAEAAVCvMap@@XZ
_TEXT	SEGMENT
?getMap@CvGlobals@@QAEAAVCvMap@@XZ PROC			; CvGlobals::getMap, COMDAT
; _this$ = ecx

; 175  : 		return *m_map;    // inlined for perf reasons, do not use outside of dll

	mov	eax, DWORD PTR [ecx+52]

; 176  : 	}

	ret	0
?getMap@CvGlobals@@QAEAAVCvMap@@XZ ENDP			; CvGlobals::getMap
_TEXT	ENDS
PUBLIC	?getPlayer@CvPlayerAI@@SAAAV1@W4PlayerTypes@@@Z	; CvPlayerAI::getPlayer
EXTRN	?m_aPlayers@CvPlayerAI@@1PAV1@A:DWORD		; CvPlayerAI::m_aPlayers
; Function compile flags: /Ogtpy
; File c:\users\enormousapplepie\desktop\cleanup (v1)\lekmod files\lekmod dll versions\v30\lekmod_dll\cvgamecoredll_expansion2\cvplayerai.h
;	COMDAT ?getPlayer@CvPlayerAI@@SAAAV1@W4PlayerTypes@@@Z
_TEXT	SEGMENT
_ePlayer$ = 8						; size = 4
?getPlayer@CvPlayerAI@@SAAAV1@W4PlayerTypes@@@Z PROC	; CvPlayerAI::getPlayer, COMDAT

; 28   : 		CvAssertMsg(ePlayer != NO_PLAYER, "Player is not assigned a valid value");
; 29   : 		CvAssertMsg(ePlayer < MAX_PLAYERS, "Player is not assigned a valid value");
; 30   : 		return m_aPlayers[ePlayer];

	mov	eax, DWORD PTR _ePlayer$[esp-4]
	imul	eax, 63236				; 0000f704H
	add	eax, DWORD PTR ?m_aPlayers@CvPlayerAI@@1PAV1@A ; CvPlayerAI::m_aPlayers

; 31   : 	}

	ret	0
?getPlayer@CvPlayerAI@@SAAAV1@W4PlayerTypes@@@Z ENDP	; CvPlayerAI::getPlayer
_TEXT	ENDS
PUBLIC	?coordRange@@YAHHH_N@Z				; coordRange
; Function compile flags: /Ogtpy
; File c:\users\enormousapplepie\desktop\cleanup (v1)\lekmod files\lekmod dll versions\v30\lekmod_dll\cvgamecoredll_expansion2\cvmap.h
;	COMDAT ?coordRange@@YAHHH_N@Z
_TEXT	SEGMENT
_iCoord$ = 8						; size = 4
_iRange$ = 12						; size = 4
_bWrap$ = 16						; size = 1
?coordRange@@YAHHH_N@Z PROC				; coordRange, COMDAT

; 88   : 	if(bWrap)

	cmp	BYTE PTR _bWrap$[esp-4], 0
	mov	eax, DWORD PTR _iCoord$[esp-4]
	je	SHORT $LN5@coordRange

; 89   : 	{
; 90   : 		if(iCoord < 0)
; 91   : 		{
; 92   : 			return (iRange + (iCoord % iRange));

	mov	ecx, DWORD PTR _iRange$[esp-4]
	test	eax, eax
	jge	SHORT $LN3@coordRange
	cdq
	idiv	ecx
	mov	eax, edx
	add	eax, ecx

; 97   : 		}
; 98   : 	}
; 99   : 
; 100  : 	return iCoord;
; 101  : }

	ret	0
$LN3@coordRange:

; 93   : 		}
; 94   : 		else if(iCoord >= iRange)

	cmp	eax, ecx
	jl	SHORT $LN5@coordRange

; 95   : 		{
; 96   : 			return (iCoord % iRange);

	cdq
	idiv	ecx
	mov	eax, edx
$LN5@coordRange:

; 97   : 		}
; 98   : 	}
; 99   : 
; 100  : 	return iCoord;
; 101  : }

	ret	0
?coordRange@@YAHHH_N@Z ENDP				; coordRange
_TEXT	ENDS
PUBLIC	?getGridWidth@CvMap@@QBEHXZ			; CvMap::getGridWidth
; Function compile flags: /Ogtpy
;	COMDAT ?getGridWidth@CvMap@@QBEHXZ
_TEXT	SEGMENT
?getGridWidth@CvMap@@QBEHXZ PROC			; CvMap::getGridWidth, COMDAT
; _this$ = ecx

; 198  : 		return m_iGridWidth;

	mov	eax, DWORD PTR [ecx+4020]

; 199  : 	}

	ret	0
?getGridWidth@CvMap@@QBEHXZ ENDP			; CvMap::getGridWidth
_TEXT	ENDS
PUBLIC	?getGridHeight@CvMap@@QBEHXZ			; CvMap::getGridHeight
; Function compile flags: /Ogtpy
;	COMDAT ?getGridHeight@CvMap@@QBEHXZ
_TEXT	SEGMENT
?getGridHeight@CvMap@@QBEHXZ PROC			; CvMap::getGridHeight, COMDAT
; _this$ = ecx

; 206  : 		return m_iGridHeight;

	mov	eax, DWORD PTR [ecx+4024]

; 207  : 	}

	ret	0
?getGridHeight@CvMap@@QBEHXZ ENDP			; CvMap::getGridHeight
_TEXT	ENDS
PUBLIC	?isWrapX@CvMap@@QBE_NXZ				; CvMap::isWrapX
; Function compile flags: /Ogtpy
;	COMDAT ?isWrapX@CvMap@@QBE_NXZ
_TEXT	SEGMENT
?isWrapX@CvMap@@QBE_NXZ PROC				; CvMap::isWrapX, COMDAT
; _this$ = ecx

; 228  : 		return m_bWrapX;

	mov	al, BYTE PTR [ecx+4056]

; 229  : 	}

	ret	0
?isWrapX@CvMap@@QBE_NXZ ENDP				; CvMap::isWrapX
_TEXT	ENDS
PUBLIC	?isWrapY@CvMap@@QBE_NXZ				; CvMap::isWrapY
; Function compile flags: /Ogtpy
;	COMDAT ?isWrapY@CvMap@@QBE_NXZ
_TEXT	SEGMENT
?isWrapY@CvMap@@QBE_NXZ PROC				; CvMap::isWrapY, COMDAT
; _this$ = ecx

; 233  : 		return m_bWrapY;

	mov	al, BYTE PTR [ecx+4057]

; 234  : 	}

	ret	0
?isWrapY@CvMap@@QBE_NXZ ENDP				; CvMap::isWrapY
_TEXT	ENDS
PUBLIC	??0CvString@@QAE@ABV0@@Z			; CvString::CvString
; Function compile flags: /Ogtpy
;	COMDAT ??0CvString@@QAE@ABV0@@Z
_TEXT	SEGMENT
___that$ = 8						; size = 4
??0CvString@@QAE@ABV0@@Z PROC				; CvString::CvString, COMDAT
; _this$ = ecx
	mov	eax, DWORD PTR ___that$[esp-4]
	push	esi
	push	eax
	mov	esi, ecx
	call	DWORD PTR __imp_??0?$basic_string@DU?$char_traits@D@std@@V?$allocator@D@2@@std@@QAE@ABV01@@Z
	mov	eax, esi
	pop	esi
	ret	4
??0CvString@@QAE@ABV0@@Z ENDP				; CvString::CvString
_TEXT	ENDS
PUBLIC	?GetReligion@CvUnitReligion@@QBE?AW4ReligionTypes@@XZ ; CvUnitReligion::GetReligion
; Function compile flags: /Ogtpy
; File c:\users\enormousapplepie\desktop\cleanup (v1)\lekmod files\lekmod dll versions\v30\lekmod_dll\cvgamecoredll_expansion2\cvreligionclasses.h
;	COMDAT ?GetReligion@CvUnitReligion@@QBE?AW4ReligionTypes@@XZ
_TEXT	SEGMENT
?GetReligion@CvUnitReligion@@QBE?AW4ReligionTypes@@XZ PROC ; CvUnitReligion::GetReligion, COMDAT
; _this$ = ecx

; 495  : 		return m_eReligion;

	mov	eax, DWORD PTR [ecx]

; 496  : 	};

	ret	0
?GetReligion@CvUnitReligion@@QBE?AW4ReligionTypes@@XZ ENDP ; CvUnitReligion::GetReligion
_TEXT	ENDS
PUBLIC	?GetSpreadsLeft@CvUnitReligion@@QBEHXZ		; CvUnitReligion::GetSpreadsLeft
; Function compile flags: /Ogtpy
;	COMDAT ?GetSpreadsLeft@CvUnitReligion@@QBEHXZ
_TEXT	SEGMENT
?GetSpreadsLeft@CvUnitReligion@@QBEHXZ PROC		; CvUnitReligion::GetSpreadsLeft, COMDAT
; _this$ = ecx

; 511  : 		return m_iSpreadsLeft;

	mov	eax, DWORD PTR [ecx+8]

; 512  : 	};

	ret	0
?GetSpreadsLeft@CvUnitReligion@@QBEHXZ ENDP		; CvUnitReligion::GetSpreadsLeft
_TEXT	ENDS
PUBLIC	?_Isnil@?$_Tree@V?$_Tset_traits@PAVFAutoVariableBase@@U?$less@PAVFAutoVariableBase@@@std@@V?$allocator@PAVFAutoVariableBase@@@3@$0A@@std@@@std@@KAAADPAU_Node@?$_Tree_nod@V?$_Tset_traits@PAVFAutoVariableBase@@U?$less@PAVFAutoVariableBase@@@std@@V?$allocator@PAVFAutoVariableBase@@@3@$0A@@std@@@2@@Z ; std::_Tree<std::_Tset_traits<FAutoVariableBase *,std::less<FAutoVariableBase *>,std::allocator<FAutoVariableBase *>,0> >::_Isnil
; Function compile flags: /Ogtpy
; File c:\program files (x86)\microsoft visual studio 9.0\vc\include\xtree
;	COMDAT ?_Isnil@?$_Tree@V?$_Tset_traits@PAVFAutoVariableBase@@U?$less@PAVFAutoVariableBase@@@std@@V?$allocator@PAVFAutoVariableBase@@@3@$0A@@std@@@std@@KAAADPAU_Node@?$_Tree_nod@V?$_Tset_traits@PAVFAutoVariableBase@@U?$less@PAVFAutoVariableBase@@@std@@V?$allocator@PAVFAutoVariableBase@@@3@$0A@@std@@@2@@Z
_TEXT	SEGMENT
__Pnode$ = 8						; size = 4
?_Isnil@?$_Tree@V?$_Tset_traits@PAVFAutoVariableBase@@U?$less@PAVFAutoVariableBase@@@std@@V?$allocator@PAVFAutoVariableBase@@@3@$0A@@std@@@std@@KAAADPAU_Node@?$_Tree_nod@V?$_Tset_traits@PAVFAutoVariableBase@@U?$less@PAVFAutoVariableBase@@@std@@V?$allocator@PAVFAutoVariableBase@@@3@$0A@@std@@@2@@Z PROC ; std::_Tree<std::_Tset_traits<FAutoVariableBase *,std::less<FAutoVariableBase *>,std::allocator<FAutoVariableBase *>,0> >::_Isnil, COMDAT

; 157  : 		return ((_Charref)(*_Pnode)._Isnil);

	mov	eax, DWORD PTR __Pnode$[esp-4]
	add	eax, 17					; 00000011H

; 158  : 		}

	ret	0
?_Isnil@?$_Tree@V?$_Tset_traits@PAVFAutoVariableBase@@U?$less@PAVFAutoVariableBase@@@std@@V?$allocator@PAVFAutoVariableBase@@@3@$0A@@std@@@std@@KAAADPAU_Node@?$_Tree_nod@V?$_Tset_traits@PAVFAutoVariableBase@@U?$less@PAVFAutoVariableBase@@@std@@V?$allocator@PAVFAutoVariableBase@@@3@$0A@@std@@@2@@Z ENDP ; std::_Tree<std::_Tset_traits<FAutoVariableBase *,std::less<FAutoVariableBase *>,std::allocator<FAutoVariableBase *>,0> >::_Isnil
_TEXT	ENDS
PUBLIC	?_Left@?$_Tree@V?$_Tset_traits@PAVFAutoVariableBase@@U?$less@PAVFAutoVariableBase@@@std@@V?$allocator@PAVFAutoVariableBase@@@3@$0A@@std@@@std@@KAAAPAU_Node@?$_Tree_nod@V?$_Tset_traits@PAVFAutoVariableBase@@U?$less@PAVFAutoVariableBase@@@std@@V?$allocator@PAVFAutoVariableBase@@@3@$0A@@std@@@2@PAU342@@Z ; std::_Tree<std::_Tset_traits<FAutoVariableBase *,std::less<FAutoVariableBase *>,std::allocator<FAutoVariableBase *>,0> >::_Left
; Function compile flags: /Ogtpy
;	COMDAT ?_Left@?$_Tree@V?$_Tset_traits@PAVFAutoVariableBase@@U?$less@PAVFAutoVariableBase@@@std@@V?$allocator@PAVFAutoVariableBase@@@3@$0A@@std@@@std@@KAAAPAU_Node@?$_Tree_nod@V?$_Tset_traits@PAVFAutoVariableBase@@U?$less@PAVFAutoVariableBase@@@std@@V?$allocator@PAVFAutoVariableBase@@@3@$0A@@std@@@2@PAU342@@Z
_TEXT	SEGMENT
__Pnode$ = 8						; size = 4
?_Left@?$_Tree@V?$_Tset_traits@PAVFAutoVariableBase@@U?$less@PAVFAutoVariableBase@@@std@@V?$allocator@PAVFAutoVariableBase@@@3@$0A@@std@@@std@@KAAAPAU_Node@?$_Tree_nod@V?$_Tset_traits@PAVFAutoVariableBase@@U?$less@PAVFAutoVariableBase@@@std@@V?$allocator@PAVFAutoVariableBase@@@3@$0A@@std@@@2@PAU342@@Z PROC ; std::_Tree<std::_Tset_traits<FAutoVariableBase *,std::less<FAutoVariableBase *>,std::allocator<FAutoVariableBase *>,0> >::_Left, COMDAT

; 167  : 		return ((_Nodepref)(*_Pnode)._Left);

	mov	eax, DWORD PTR __Pnode$[esp-4]

; 168  : 		}

	ret	0
?_Left@?$_Tree@V?$_Tset_traits@PAVFAutoVariableBase@@U?$less@PAVFAutoVariableBase@@@std@@V?$allocator@PAVFAutoVariableBase@@@3@$0A@@std@@@std@@KAAAPAU_Node@?$_Tree_nod@V?$_Tset_traits@PAVFAutoVariableBase@@U?$less@PAVFAutoVariableBase@@@std@@V?$allocator@PAVFAutoVariableBase@@@3@$0A@@std@@@2@PAU342@@Z ENDP ; std::_Tree<std::_Tset_traits<FAutoVariableBase *,std::less<FAutoVariableBase *>,std::allocator<FAutoVariableBase *>,0> >::_Left
_TEXT	ENDS
PUBLIC	?_Right@?$_Tree@V?$_Tset_traits@PAVFAutoVariableBase@@U?$less@PAVFAutoVariableBase@@@std@@V?$allocator@PAVFAutoVariableBase@@@3@$0A@@std@@@std@@KAAAPAU_Node@?$_Tree_nod@V?$_Tset_traits@PAVFAutoVariableBase@@U?$less@PAVFAutoVariableBase@@@std@@V?$allocator@PAVFAutoVariableBase@@@3@$0A@@std@@@2@PAU342@@Z ; std::_Tree<std::_Tset_traits<FAutoVariableBase *,std::less<FAutoVariableBase *>,std::allocator<FAutoVariableBase *>,0> >::_Right
; Function compile flags: /Ogtpy
;	COMDAT ?_Right@?$_Tree@V?$_Tset_traits@PAVFAutoVariableBase@@U?$less@PAVFAutoVariableBase@@@std@@V?$allocator@PAVFAutoVariableBase@@@3@$0A@@std@@@std@@KAAAPAU_Node@?$_Tree_nod@V?$_Tset_traits@PAVFAutoVariableBase@@U?$less@PAVFAutoVariableBase@@@std@@V?$allocator@PAVFAutoVariableBase@@@3@$0A@@std@@@2@PAU342@@Z
_TEXT	SEGMENT
__Pnode$ = 8						; size = 4
?_Right@?$_Tree@V?$_Tset_traits@PAVFAutoVariableBase@@U?$less@PAVFAutoVariableBase@@@std@@V?$allocator@PAVFAutoVariableBase@@@3@$0A@@std@@@std@@KAAAPAU_Node@?$_Tree_nod@V?$_Tset_traits@PAVFAutoVariableBase@@U?$less@PAVFAutoVariableBase@@@std@@V?$allocator@PAVFAutoVariableBase@@@3@$0A@@std@@@2@PAU342@@Z PROC ; std::_Tree<std::_Tset_traits<FAutoVariableBase *,std::less<FAutoVariableBase *>,std::allocator<FAutoVariableBase *>,0> >::_Right, COMDAT

; 177  : 		return ((_Nodepref)(*_Pnode)._Right);

	mov	eax, DWORD PTR __Pnode$[esp-4]
	add	eax, 8

; 178  : 		}

	ret	0
?_Right@?$_Tree@V?$_Tset_traits@PAVFAutoVariableBase@@U?$less@PAVFAutoVariableBase@@@std@@V?$allocator@PAVFAutoVariableBase@@@3@$0A@@std@@@std@@KAAAPAU_Node@?$_Tree_nod@V?$_Tset_traits@PAVFAutoVariableBase@@U?$less@PAVFAutoVariableBase@@@std@@V?$allocator@PAVFAutoVariableBase@@@3@$0A@@std@@@2@PAU342@@Z ENDP ; std::_Tree<std::_Tset_traits<FAutoVariableBase *,std::less<FAutoVariableBase *>,std::allocator<FAutoVariableBase *>,0> >::_Right
_TEXT	ENDS
PUBLIC	?_Kfn@?$_Tset_traits@PAVFAutoVariableBase@@U?$less@PAVFAutoVariableBase@@@std@@V?$allocator@PAVFAutoVariableBase@@@3@$0A@@std@@SAABQAVFAutoVariableBase@@ABQAV3@@Z ; std::_Tset_traits<FAutoVariableBase *,std::less<FAutoVariableBase *>,std::allocator<FAutoVariableBase *>,0>::_Kfn
; Function compile flags: /Ogtpy
; File c:\program files (x86)\microsoft visual studio 9.0\vc\include\set
;	COMDAT ?_Kfn@?$_Tset_traits@PAVFAutoVariableBase@@U?$less@PAVFAutoVariableBase@@@std@@V?$allocator@PAVFAutoVariableBase@@@3@$0A@@std@@SAABQAVFAutoVariableBase@@ABQAV3@@Z
_TEXT	SEGMENT
__Val$ = 8						; size = 4
?_Kfn@?$_Tset_traits@PAVFAutoVariableBase@@U?$less@PAVFAutoVariableBase@@@std@@V?$allocator@PAVFAutoVariableBase@@@3@$0A@@std@@SAABQAVFAutoVariableBase@@ABQAV3@@Z PROC ; std::_Tset_traits<FAutoVariableBase *,std::less<FAutoVariableBase *>,std::allocator<FAutoVariableBase *>,0>::_Kfn, COMDAT

; 45   : 		return (_Val);

	mov	eax, DWORD PTR __Val$[esp-4]

; 46   : 		}

	ret	0
?_Kfn@?$_Tset_traits@PAVFAutoVariableBase@@U?$less@PAVFAutoVariableBase@@@std@@V?$allocator@PAVFAutoVariableBase@@@3@$0A@@std@@SAABQAVFAutoVariableBase@@ABQAV3@@Z ENDP ; std::_Tset_traits<FAutoVariableBase *,std::less<FAutoVariableBase *>,std::allocator<FAutoVariableBase *>,0>::_Kfn
_TEXT	ENDS
PUBLIC	??R?$less@PAVFAutoVariableBase@@@std@@QBE_NABQAVFAutoVariableBase@@0@Z ; std::less<FAutoVariableBase *>::operator()
; Function compile flags: /Ogtpy
; File c:\program files (x86)\microsoft visual studio 9.0\vc\include\functional
;	COMDAT ??R?$less@PAVFAutoVariableBase@@@std@@QBE_NABQAVFAutoVariableBase@@0@Z
_TEXT	SEGMENT
__Left$ = 8						; size = 4
__Right$ = 12						; size = 4
??R?$less@PAVFAutoVariableBase@@@std@@QBE_NABQAVFAutoVariableBase@@0@Z PROC ; std::less<FAutoVariableBase *>::operator(), COMDAT
; _this$ = ecx

; 143  : 		return (_Left < _Right);

	mov	eax, DWORD PTR __Left$[esp-4]
	mov	ecx, DWORD PTR [eax]
	mov	edx, DWORD PTR __Right$[esp-4]
	cmp	ecx, DWORD PTR [edx]
	sbb	eax, eax
	neg	eax

; 144  : 		}

	ret	8
??R?$less@PAVFAutoVariableBase@@@std@@QBE_NABQAVFAutoVariableBase@@0@Z ENDP ; std::less<FAutoVariableBase *>::operator()
_TEXT	ENDS
PUBLIC	??0?$pair@Viterator@?$_Tree@V?$_Tset_traits@PAVFAutoVariableBase@@U?$less@PAVFAutoVariableBase@@@std@@V?$allocator@PAVFAutoVariableBase@@@3@$0A@@std@@@std@@_N@std@@QAE@ABViterator@?$_Tree@V?$_Tset_traits@PAVFAutoVariableBase@@U?$less@PAVFAutoVariableBase@@@std@@V?$allocator@PAVFAutoVariableBase@@@3@$0A@@std@@@1@AB_N@Z ; std::pair<std::_Tree<std::_Tset_traits<FAutoVariableBase *,std::less<FAutoVariableBase *>,std::allocator<FAutoVariableBase *>,0> >::iterator,bool>::pair<std::_Tree<std::_Tset_traits<FAutoVariableBase *,std::less<FAutoVariableBase *>,std::allocator<FAutoVariableBase *>,0> >::iterator,bool>
; Function compile flags: /Ogtpy
; File c:\program files (x86)\microsoft visual studio 9.0\vc\include\utility
;	COMDAT ??0?$pair@Viterator@?$_Tree@V?$_Tset_traits@PAVFAutoVariableBase@@U?$less@PAVFAutoVariableBase@@@std@@V?$allocator@PAVFAutoVariableBase@@@3@$0A@@std@@@std@@_N@std@@QAE@ABViterator@?$_Tree@V?$_Tset_traits@PAVFAutoVariableBase@@U?$less@PAVFAutoVariableBase@@@std@@V?$allocator@PAVFAutoVariableBase@@@3@$0A@@std@@@1@AB_N@Z
_TEXT	SEGMENT
__Val1$ = 8						; size = 4
__Val2$ = 12						; size = 4
??0?$pair@Viterator@?$_Tree@V?$_Tset_traits@PAVFAutoVariableBase@@U?$less@PAVFAutoVariableBase@@@std@@V?$allocator@PAVFAutoVariableBase@@@3@$0A@@std@@@std@@_N@std@@QAE@ABViterator@?$_Tree@V?$_Tset_traits@PAVFAutoVariableBase@@U?$less@PAVFAutoVariableBase@@@std@@V?$allocator@PAVFAutoVariableBase@@@3@$0A@@std@@@1@AB_N@Z PROC ; std::pair<std::_Tree<std::_Tset_traits<FAutoVariableBase *,std::less<FAutoVariableBase *>,std::allocator<FAutoVariableBase *>,0> >::iterator,bool>::pair<std::_Tree<std::_Tset_traits<FAutoVariableBase *,std::less<FAutoVariableBase *>,std::allocator<FAutoVariableBase *>,0> >::iterator,bool>, COMDAT
; _this$ = ecx

; 50   : 		{	// construct from specified values

	mov	eax, ecx
	mov	ecx, DWORD PTR __Val1$[esp-4]
	mov	edx, DWORD PTR [ecx]
	mov	ecx, DWORD PTR __Val2$[esp-4]
	mov	DWORD PTR [eax], edx
	mov	dl, BYTE PTR [ecx]
	mov	BYTE PTR [eax+4], dl

; 51   : 		}

	ret	8
??0?$pair@Viterator@?$_Tree@V?$_Tset_traits@PAVFAutoVariableBase@@U?$less@PAVFAutoVariableBase@@@std@@V?$allocator@PAVFAutoVariableBase@@@3@$0A@@std@@@std@@_N@std@@QAE@ABViterator@?$_Tree@V?$_Tset_traits@PAVFAutoVariableBase@@U?$less@PAVFAutoVariableBase@@@std@@V?$allocator@PAVFAutoVariableBase@@@3@$0A@@std@@@1@AB_N@Z ENDP ; std::pair<std::_Tree<std::_Tset_traits<FAutoVariableBase *,std::less<FAutoVariableBase *>,std::allocator<FAutoVariableBase *>,0> >::iterator,bool>::pair<std::_Tree<std::_Tset_traits<FAutoVariableBase *,std::less<FAutoVariableBase *>,std::allocator<FAutoVariableBase *>,0> >::iterator,bool>
_TEXT	ENDS
PUBLIC	??8const_iterator@?$_Tree@V?$_Tset_traits@PAVFAutoVariableBase@@U?$less@PAVFAutoVariableBase@@@std@@V?$allocator@PAVFAutoVariableBase@@@3@$0A@@std@@@std@@QBE_NABV012@@Z ; std::_Tree<std::_Tset_traits<FAutoVariableBase *,std::less<FAutoVariableBase *>,std::allocator<FAutoVariableBase *>,0> >::const_iterator::operator==
; Function compile flags: /Ogtpy
; File c:\program files (x86)\microsoft visual studio 9.0\vc\include\xtree
;	COMDAT ??8const_iterator@?$_Tree@V?$_Tset_traits@PAVFAutoVariableBase@@U?$less@PAVFAutoVariableBase@@@std@@V?$allocator@PAVFAutoVariableBase@@@3@$0A@@std@@@std@@QBE_NABV012@@Z
_TEXT	SEGMENT
__Right$ = 8						; size = 4
??8const_iterator@?$_Tree@V?$_Tset_traits@PAVFAutoVariableBase@@U?$less@PAVFAutoVariableBase@@@std@@V?$allocator@PAVFAutoVariableBase@@@3@$0A@@std@@@std@@QBE_NABV012@@Z PROC ; std::_Tree<std::_Tset_traits<FAutoVariableBase *,std::less<FAutoVariableBase *>,std::allocator<FAutoVariableBase *>,0> >::const_iterator::operator==, COMDAT
; _this$ = ecx

; 300  : 
; 301  :  #if _HAS_ITERATOR_DEBUGGING
; 302  : 			if (this->_Mycont == 0 || this->_Mycont != _Right._Mycont)
; 303  : 				{
; 304  : 				_DEBUG_ERROR("map/set iterators incompatible");
; 305  : 				_SCL_SECURE_INVALID_ARGUMENT;
; 306  : 				}
; 307  :  #else
; 308  : 			_SCL_SECURE_VALIDATE(this->_Has_container() && this->_Same_container(_Right));
; 309  :  #endif /* _HAS_ITERATOR_DEBUGGING */
; 310  : 
; 311  : 			return (_Ptr == _Right._Ptr);

	mov	eax, DWORD PTR [ecx]
	mov	edx, DWORD PTR __Right$[esp-4]
	xor	ecx, ecx
	cmp	eax, DWORD PTR [edx]
	sete	cl
	mov	al, cl

; 312  : 			}

	ret	4
??8const_iterator@?$_Tree@V?$_Tset_traits@PAVFAutoVariableBase@@U?$less@PAVFAutoVariableBase@@@std@@V?$allocator@PAVFAutoVariableBase@@@3@$0A@@std@@@std@@QBE_NABV012@@Z ENDP ; std::_Tree<std::_Tset_traits<FAutoVariableBase *,std::less<FAutoVariableBase *>,std::allocator<FAutoVariableBase *>,0> >::const_iterator::operator==
_TEXT	ENDS
PUBLIC	?_Mynode@const_iterator@?$_Tree@V?$_Tset_traits@PAVFAutoVariableBase@@U?$less@PAVFAutoVariableBase@@@std@@V?$allocator@PAVFAutoVariableBase@@@3@$0A@@std@@@std@@QBEPAU_Node@?$_Tree_nod@V?$_Tset_traits@PAVFAutoVariableBase@@U?$less@PAVFAutoVariableBase@@@std@@V?$allocator@PAVFAutoVariableBase@@@3@$0A@@std@@@3@XZ ; std::_Tree<std::_Tset_traits<FAutoVariableBase *,std::less<FAutoVariableBase *>,std::allocator<FAutoVariableBase *>,0> >::const_iterator::_Mynode
; Function compile flags: /Ogtpy
;	COMDAT ?_Mynode@const_iterator@?$_Tree@V?$_Tset_traits@PAVFAutoVariableBase@@U?$less@PAVFAutoVariableBase@@@std@@V?$allocator@PAVFAutoVariableBase@@@3@$0A@@std@@@std@@QBEPAU_Node@?$_Tree_nod@V?$_Tset_traits@PAVFAutoVariableBase@@U?$less@PAVFAutoVariableBase@@@std@@V?$allocator@PAVFAutoVariableBase@@@3@$0A@@std@@@3@XZ
_TEXT	SEGMENT
?_Mynode@const_iterator@?$_Tree@V?$_Tset_traits@PAVFAutoVariableBase@@U?$less@PAVFAutoVariableBase@@@std@@V?$allocator@PAVFAutoVariableBase@@@3@$0A@@std@@@std@@QBEPAU_Node@?$_Tree_nod@V?$_Tset_traits@PAVFAutoVariableBase@@U?$less@PAVFAutoVariableBase@@@std@@V?$allocator@PAVFAutoVariableBase@@@3@$0A@@std@@@3@XZ PROC ; std::_Tree<std::_Tset_traits<FAutoVariableBase *,std::less<FAutoVariableBase *>,std::allocator<FAutoVariableBase *>,0> >::const_iterator::_Mynode, COMDAT
; _this$ = ecx

; 410  : 			return (_Ptr);

	mov	eax, DWORD PTR [ecx]

; 411  : 			}

	ret	0
?_Mynode@const_iterator@?$_Tree@V?$_Tset_traits@PAVFAutoVariableBase@@U?$less@PAVFAutoVariableBase@@@std@@V?$allocator@PAVFAutoVariableBase@@@3@$0A@@std@@@std@@QBEPAU_Node@?$_Tree_nod@V?$_Tset_traits@PAVFAutoVariableBase@@U?$less@PAVFAutoVariableBase@@@std@@V?$allocator@PAVFAutoVariableBase@@@3@$0A@@std@@@3@XZ ENDP ; std::_Tree<std::_Tset_traits<FAutoVariableBase *,std::less<FAutoVariableBase *>,std::allocator<FAutoVariableBase *>,0> >::const_iterator::_Mynode
_TEXT	ENDS
PUBLIC	?_Color@?$_Tree@V?$_Tset_traits@PAVFAutoVariableBase@@U?$less@PAVFAutoVariableBase@@@std@@V?$allocator@PAVFAutoVariableBase@@@3@$0A@@std@@@std@@KAAADPAU_Node@?$_Tree_nod@V?$_Tset_traits@PAVFAutoVariableBase@@U?$less@PAVFAutoVariableBase@@@std@@V?$allocator@PAVFAutoVariableBase@@@3@$0A@@std@@@2@@Z ; std::_Tree<std::_Tset_traits<FAutoVariableBase *,std::less<FAutoVariableBase *>,std::allocator<FAutoVariableBase *>,0> >::_Color
; Function compile flags: /Ogtpy
;	COMDAT ?_Color@?$_Tree@V?$_Tset_traits@PAVFAutoVariableBase@@U?$less@PAVFAutoVariableBase@@@std@@V?$allocator@PAVFAutoVariableBase@@@3@$0A@@std@@@std@@KAAADPAU_Node@?$_Tree_nod@V?$_Tset_traits@PAVFAutoVariableBase@@U?$less@PAVFAutoVariableBase@@@std@@V?$allocator@PAVFAutoVariableBase@@@3@$0A@@std@@@2@@Z
_TEXT	SEGMENT
__Pnode$ = 8						; size = 4
?_Color@?$_Tree@V?$_Tset_traits@PAVFAutoVariableBase@@U?$less@PAVFAutoVariableBase@@@std@@V?$allocator@PAVFAutoVariableBase@@@3@$0A@@std@@@std@@KAAADPAU_Node@?$_Tree_nod@V?$_Tset_traits@PAVFAutoVariableBase@@U?$less@PAVFAutoVariableBase@@@std@@V?$allocator@PAVFAutoVariableBase@@@3@$0A@@std@@@2@@Z PROC ; std::_Tree<std::_Tset_traits<FAutoVariableBase *,std::less<FAutoVariableBase *>,std::allocator<FAutoVariableBase *>,0> >::_Color, COMDAT

; 152  : 		return ((_Charref)(*_Pnode)._Color);

	mov	eax, DWORD PTR __Pnode$[esp-4]
	add	eax, 16					; 00000010H

; 153  : 		}

	ret	0
?_Color@?$_Tree@V?$_Tset_traits@PAVFAutoVariableBase@@U?$less@PAVFAutoVariableBase@@@std@@V?$allocator@PAVFAutoVariableBase@@@3@$0A@@std@@@std@@KAAADPAU_Node@?$_Tree_nod@V?$_Tset_traits@PAVFAutoVariableBase@@U?$less@PAVFAutoVariableBase@@@std@@V?$allocator@PAVFAutoVariableBase@@@3@$0A@@std@@@2@@Z ENDP ; std::_Tree<std::_Tset_traits<FAutoVariableBase *,std::less<FAutoVariableBase *>,std::allocator<FAutoVariableBase *>,0> >::_Color
_TEXT	ENDS
PUBLIC	?_Parent@?$_Tree@V?$_Tset_traits@PAVFAutoVariableBase@@U?$less@PAVFAutoVariableBase@@@std@@V?$allocator@PAVFAutoVariableBase@@@3@$0A@@std@@@std@@KAAAPAU_Node@?$_Tree_nod@V?$_Tset_traits@PAVFAutoVariableBase@@U?$less@PAVFAutoVariableBase@@@std@@V?$allocator@PAVFAutoVariableBase@@@3@$0A@@std@@@2@PAU342@@Z ; std::_Tree<std::_Tset_traits<FAutoVariableBase *,std::less<FAutoVariableBase *>,std::allocator<FAutoVariableBase *>,0> >::_Parent
; Function compile flags: /Ogtpy
;	COMDAT ?_Parent@?$_Tree@V?$_Tset_traits@PAVFAutoVariableBase@@U?$less@PAVFAutoVariableBase@@@std@@V?$allocator@PAVFAutoVariableBase@@@3@$0A@@std@@@std@@KAAAPAU_Node@?$_Tree_nod@V?$_Tset_traits@PAVFAutoVariableBase@@U?$less@PAVFAutoVariableBase@@@std@@V?$allocator@PAVFAutoVariableBase@@@3@$0A@@std@@@2@PAU342@@Z
_TEXT	SEGMENT
__Pnode$ = 8						; size = 4
?_Parent@?$_Tree@V?$_Tset_traits@PAVFAutoVariableBase@@U?$less@PAVFAutoVariableBase@@@std@@V?$allocator@PAVFAutoVariableBase@@@3@$0A@@std@@@std@@KAAAPAU_Node@?$_Tree_nod@V?$_Tset_traits@PAVFAutoVariableBase@@U?$less@PAVFAutoVariableBase@@@std@@V?$allocator@PAVFAutoVariableBase@@@3@$0A@@std@@@2@PAU342@@Z PROC ; std::_Tree<std::_Tset_traits<FAutoVariableBase *,std::less<FAutoVariableBase *>,std::allocator<FAutoVariableBase *>,0> >::_Parent, COMDAT

; 172  : 		return ((_Nodepref)(*_Pnode)._Parent);

	mov	eax, DWORD PTR __Pnode$[esp-4]
	add	eax, 4

; 173  : 		}

	ret	0
?_Parent@?$_Tree@V?$_Tset_traits@PAVFAutoVariableBase@@U?$less@PAVFAutoVariableBase@@@std@@V?$allocator@PAVFAutoVariableBase@@@3@$0A@@std@@@std@@KAAAPAU_Node@?$_Tree_nod@V?$_Tset_traits@PAVFAutoVariableBase@@U?$less@PAVFAutoVariableBase@@@std@@V?$allocator@PAVFAutoVariableBase@@@3@$0A@@std@@@2@PAU342@@Z ENDP ; std::_Tree<std::_Tset_traits<FAutoVariableBase *,std::less<FAutoVariableBase *>,std::allocator<FAutoVariableBase *>,0> >::_Parent
_TEXT	ENDS
PUBLIC	?_Myval@?$_Tree@V?$_Tset_traits@PAVFAutoVariableBase@@U?$less@PAVFAutoVariableBase@@@std@@V?$allocator@PAVFAutoVariableBase@@@3@$0A@@std@@@std@@KAAAPAVFAutoVariableBase@@PAU_Node@?$_Tree_nod@V?$_Tset_traits@PAVFAutoVariableBase@@U?$less@PAVFAutoVariableBase@@@std@@V?$allocator@PAVFAutoVariableBase@@@3@$0A@@std@@@2@@Z ; std::_Tree<std::_Tset_traits<FAutoVariableBase *,std::less<FAutoVariableBase *>,std::allocator<FAutoVariableBase *>,0> >::_Myval
; Function compile flags: /Ogtpy
;	COMDAT ?_Myval@?$_Tree@V?$_Tset_traits@PAVFAutoVariableBase@@U?$less@PAVFAutoVariableBase@@@std@@V?$allocator@PAVFAutoVariableBase@@@3@$0A@@std@@@std@@KAAAPAVFAutoVariableBase@@PAU_Node@?$_Tree_nod@V?$_Tset_traits@PAVFAutoVariableBase@@U?$less@PAVFAutoVariableBase@@@std@@V?$allocator@PAVFAutoVariableBase@@@3@$0A@@std@@@2@@Z
_TEXT	SEGMENT
__Pnode$ = 8						; size = 4
?_Myval@?$_Tree@V?$_Tset_traits@PAVFAutoVariableBase@@U?$less@PAVFAutoVariableBase@@@std@@V?$allocator@PAVFAutoVariableBase@@@3@$0A@@std@@@std@@KAAAPAVFAutoVariableBase@@PAU_Node@?$_Tree_nod@V?$_Tset_traits@PAVFAutoVariableBase@@U?$less@PAVFAutoVariableBase@@@std@@V?$allocator@PAVFAutoVariableBase@@@3@$0A@@std@@@2@@Z PROC ; std::_Tree<std::_Tset_traits<FAutoVariableBase *,std::less<FAutoVariableBase *>,std::allocator<FAutoVariableBase *>,0> >::_Myval, COMDAT

; 182  : 		return ((_Vref)(*_Pnode)._Myval);

	mov	eax, DWORD PTR __Pnode$[esp-4]
	add	eax, 12					; 0000000cH

; 183  : 		}

	ret	0
?_Myval@?$_Tree@V?$_Tset_traits@PAVFAutoVariableBase@@U?$less@PAVFAutoVariableBase@@@std@@V?$allocator@PAVFAutoVariableBase@@@3@$0A@@std@@@std@@KAAAPAVFAutoVariableBase@@PAU_Node@?$_Tree_nod@V?$_Tset_traits@PAVFAutoVariableBase@@U?$less@PAVFAutoVariableBase@@@std@@V?$allocator@PAVFAutoVariableBase@@@3@$0A@@std@@@2@@Z ENDP ; std::_Tree<std::_Tset_traits<FAutoVariableBase *,std::less<FAutoVariableBase *>,std::allocator<FAutoVariableBase *>,0> >::_Myval
_TEXT	ENDS
PUBLIC	?_Lmost@?$_Tree@V?$_Tset_traits@PAVFAutoVariableBase@@U?$less@PAVFAutoVariableBase@@@std@@V?$allocator@PAVFAutoVariableBase@@@3@$0A@@std@@@std@@IBEAAPAU_Node@?$_Tree_nod@V?$_Tset_traits@PAVFAutoVariableBase@@U?$less@PAVFAutoVariableBase@@@std@@V?$allocator@PAVFAutoVariableBase@@@3@$0A@@std@@@2@XZ ; std::_Tree<std::_Tset_traits<FAutoVariableBase *,std::less<FAutoVariableBase *>,std::allocator<FAutoVariableBase *>,0> >::_Lmost
; Function compile flags: /Ogtpy
;	COMDAT ?_Lmost@?$_Tree@V?$_Tset_traits@PAVFAutoVariableBase@@U?$less@PAVFAutoVariableBase@@@std@@V?$allocator@PAVFAutoVariableBase@@@3@$0A@@std@@@std@@IBEAAPAU_Node@?$_Tree_nod@V?$_Tset_traits@PAVFAutoVariableBase@@U?$less@PAVFAutoVariableBase@@@std@@V?$allocator@PAVFAutoVariableBase@@@3@$0A@@std@@@2@XZ
_TEXT	SEGMENT
?_Lmost@?$_Tree@V?$_Tset_traits@PAVFAutoVariableBase@@U?$less@PAVFAutoVariableBase@@@std@@V?$allocator@PAVFAutoVariableBase@@@3@$0A@@std@@@std@@IBEAAPAU_Node@?$_Tree_nod@V?$_Tset_traits@PAVFAutoVariableBase@@U?$less@PAVFAutoVariableBase@@@std@@V?$allocator@PAVFAutoVariableBase@@@3@$0A@@std@@@2@XZ PROC ; std::_Tree<std::_Tset_traits<FAutoVariableBase *,std::less<FAutoVariableBase *>,std::allocator<FAutoVariableBase *>,0> >::_Lmost, COMDAT
; _this$ = ecx

; 1281 : 		return (_Left(_Myhead));

	mov	eax, DWORD PTR [ecx+4]

; 1282 : 		}

	ret	0
?_Lmost@?$_Tree@V?$_Tset_traits@PAVFAutoVariableBase@@U?$less@PAVFAutoVariableBase@@@std@@V?$allocator@PAVFAutoVariableBase@@@3@$0A@@std@@@std@@IBEAAPAU_Node@?$_Tree_nod@V?$_Tset_traits@PAVFAutoVariableBase@@U?$less@PAVFAutoVariableBase@@@std@@V?$allocator@PAVFAutoVariableBase@@@3@$0A@@std@@@2@XZ ENDP ; std::_Tree<std::_Tset_traits<FAutoVariableBase *,std::less<FAutoVariableBase *>,std::allocator<FAutoVariableBase *>,0> >::_Lmost
_TEXT	ENDS
PUBLIC	?_Rmost@?$_Tree@V?$_Tset_traits@PAVFAutoVariableBase@@U?$less@PAVFAutoVariableBase@@@std@@V?$allocator@PAVFAutoVariableBase@@@3@$0A@@std@@@std@@IBEAAPAU_Node@?$_Tree_nod@V?$_Tset_traits@PAVFAutoVariableBase@@U?$less@PAVFAutoVariableBase@@@std@@V?$allocator@PAVFAutoVariableBase@@@3@$0A@@std@@@2@XZ ; std::_Tree<std::_Tset_traits<FAutoVariableBase *,std::less<FAutoVariableBase *>,std::allocator<FAutoVariableBase *>,0> >::_Rmost
; Function compile flags: /Ogtpy
;	COMDAT ?_Rmost@?$_Tree@V?$_Tset_traits@PAVFAutoVariableBase@@U?$less@PAVFAutoVariableBase@@@std@@V?$allocator@PAVFAutoVariableBase@@@3@$0A@@std@@@std@@IBEAAPAU_Node@?$_Tree_nod@V?$_Tset_traits@PAVFAutoVariableBase@@U?$less@PAVFAutoVariableBase@@@std@@V?$allocator@PAVFAutoVariableBase@@@3@$0A@@std@@@2@XZ
_TEXT	SEGMENT
?_Rmost@?$_Tree@V?$_Tset_traits@PAVFAutoVariableBase@@U?$less@PAVFAutoVariableBase@@@std@@V?$allocator@PAVFAutoVariableBase@@@3@$0A@@std@@@std@@IBEAAPAU_Node@?$_Tree_nod@V?$_Tset_traits@PAVFAutoVariableBase@@U?$less@PAVFAutoVariableBase@@@std@@V?$allocator@PAVFAutoVariableBase@@@3@$0A@@std@@@2@XZ PROC ; std::_Tree<std::_Tset_traits<FAutoVariableBase *,std::less<FAutoVariableBase *>,std::allocator<FAutoVariableBase *>,0> >::_Rmost, COMDAT
; _this$ = ecx

; 1320 : 		return (_Right(_Myhead));

	mov	eax, DWORD PTR [ecx+4]
	add	eax, 8

; 1321 : 		}

	ret	0
?_Rmost@?$_Tree@V?$_Tset_traits@PAVFAutoVariableBase@@U?$less@PAVFAutoVariableBase@@@std@@V?$allocator@PAVFAutoVariableBase@@@3@$0A@@std@@@std@@IBEAAPAU_Node@?$_Tree_nod@V?$_Tset_traits@PAVFAutoVariableBase@@U?$less@PAVFAutoVariableBase@@@std@@V?$allocator@PAVFAutoVariableBase@@@3@$0A@@std@@@2@XZ ENDP ; std::_Tree<std::_Tset_traits<FAutoVariableBase *,std::less<FAutoVariableBase *>,std::allocator<FAutoVariableBase *>,0> >::_Rmost
_TEXT	ENDS
PUBLIC	??0const_iterator@?$_Tree@V?$_Tset_traits@PAVFAutoVariableBase@@U?$less@PAVFAutoVariableBase@@@std@@V?$allocator@PAVFAutoVariableBase@@@3@$0A@@std@@@std@@QAE@PAU_Node@?$_Tree_nod@V?$_Tset_traits@PAVFAutoVariableBase@@U?$less@PAVFAutoVariableBase@@@std@@V?$allocator@PAVFAutoVariableBase@@@3@$0A@@std@@@2@@Z ; std::_Tree<std::_Tset_traits<FAutoVariableBase *,std::less<FAutoVariableBase *>,std::allocator<FAutoVariableBase *>,0> >::const_iterator::const_iterator
; Function compile flags: /Ogtpy
;	COMDAT ??0const_iterator@?$_Tree@V?$_Tset_traits@PAVFAutoVariableBase@@U?$less@PAVFAutoVariableBase@@@std@@V?$allocator@PAVFAutoVariableBase@@@3@$0A@@std@@@std@@QAE@PAU_Node@?$_Tree_nod@V?$_Tset_traits@PAVFAutoVariableBase@@U?$less@PAVFAutoVariableBase@@@std@@V?$allocator@PAVFAutoVariableBase@@@3@$0A@@std@@@2@@Z
_TEXT	SEGMENT
__Pnode$ = 8						; size = 4
??0const_iterator@?$_Tree@V?$_Tset_traits@PAVFAutoVariableBase@@U?$less@PAVFAutoVariableBase@@@std@@V?$allocator@PAVFAutoVariableBase@@@3@$0A@@std@@@std@@QAE@PAU_Node@?$_Tree_nod@V?$_Tset_traits@PAVFAutoVariableBase@@U?$less@PAVFAutoVariableBase@@@std@@V?$allocator@PAVFAutoVariableBase@@@3@$0A@@std@@@2@@Z PROC ; std::_Tree<std::_Tset_traits<FAutoVariableBase *,std::less<FAutoVariableBase *>,std::allocator<FAutoVariableBase *>,0> >::const_iterator::const_iterator, COMDAT
; _this$ = ecx

; 244  : 			{	// construct with node pointer _Pnode

	mov	eax, ecx
	mov	ecx, DWORD PTR __Pnode$[esp-4]
	mov	DWORD PTR [eax], ecx

; 245  : 			}

	ret	4
??0const_iterator@?$_Tree@V?$_Tset_traits@PAVFAutoVariableBase@@U?$less@PAVFAutoVariableBase@@@std@@V?$allocator@PAVFAutoVariableBase@@@3@$0A@@std@@@std@@QAE@PAU_Node@?$_Tree_nod@V?$_Tset_traits@PAVFAutoVariableBase@@U?$less@PAVFAutoVariableBase@@@std@@V?$allocator@PAVFAutoVariableBase@@@3@$0A@@std@@@2@@Z ENDP ; std::_Tree<std::_Tset_traits<FAutoVariableBase *,std::less<FAutoVariableBase *>,std::allocator<FAutoVariableBase *>,0> >::const_iterator::const_iterator
_TEXT	ENDS
PUBLIC	?max_size@?$allocator@PAVFAutoVariableBase@@@std@@QBEIXZ ; std::allocator<FAutoVariableBase *>::max_size
; Function compile flags: /Ogtpy
; File c:\program files (x86)\microsoft visual studio 9.0\vc\include\xmemory
;	COMDAT ?max_size@?$allocator@PAVFAutoVariableBase@@@std@@QBEIXZ
_TEXT	SEGMENT
?max_size@?$allocator@PAVFAutoVariableBase@@@std@@QBEIXZ PROC ; std::allocator<FAutoVariableBase *>::max_size, COMDAT
; _this$ = ecx

; 165  : 		_SIZT _Count = (_SIZT)(-1) / sizeof (_Ty);
; 166  : 		return (0 < _Count ? _Count : 1);

	mov	eax, 1073741823				; 3fffffffH

; 167  : 		}

	ret	0
?max_size@?$allocator@PAVFAutoVariableBase@@@std@@QBEIXZ ENDP ; std::allocator<FAutoVariableBase *>::max_size
_TEXT	ENDS
PUBLIC	?deallocate@?$allocator@U_Node@?$_Tree_nod@V?$_Tset_traits@PAVFAutoVariableBase@@U?$less@PAVFAutoVariableBase@@@std@@V?$allocator@PAVFAutoVariableBase@@@3@$0A@@std@@@std@@@std@@QAEXPAU_Node@?$_Tree_nod@V?$_Tset_traits@PAVFAutoVariableBase@@U?$less@PAVFAutoVariableBase@@@std@@V?$allocator@PAVFAutoVariableBase@@@3@$0A@@std@@@2@I@Z ; std::allocator<std::_Tree_nod<std::_Tset_traits<FAutoVariableBase *,std::less<FAutoVariableBase *>,std::allocator<FAutoVariableBase *>,0> >::_Node>::deallocate
; Function compile flags: /Ogtpy
;	COMDAT ?deallocate@?$allocator@U_Node@?$_Tree_nod@V?$_Tset_traits@PAVFAutoVariableBase@@U?$less@PAVFAutoVariableBase@@@std@@V?$allocator@PAVFAutoVariableBase@@@3@$0A@@std@@@std@@@std@@QAEXPAU_Node@?$_Tree_nod@V?$_Tset_traits@PAVFAutoVariableBase@@U?$less@PAVFAutoVariableBase@@@std@@V?$allocator@PAVFAutoVariableBase@@@3@$0A@@std@@@2@I@Z
_TEXT	SEGMENT
__Ptr$ = 8						; size = 4
___formal$ = 12						; size = 4
?deallocate@?$allocator@U_Node@?$_Tree_nod@V?$_Tset_traits@PAVFAutoVariableBase@@U?$less@PAVFAutoVariableBase@@@std@@V?$allocator@PAVFAutoVariableBase@@@3@$0A@@std@@@std@@@std@@QAEXPAU_Node@?$_Tree_nod@V?$_Tset_traits@PAVFAutoVariableBase@@U?$less@PAVFAutoVariableBase@@@std@@V?$allocator@PAVFAutoVariableBase@@@3@$0A@@std@@@2@I@Z PROC ; std::allocator<std::_Tree_nod<std::_Tset_traits<FAutoVariableBase *,std::less<FAutoVariableBase *>,std::allocator<FAutoVariableBase *>,0> >::_Node>::deallocate, COMDAT
; _this$ = ecx

; 140  : 		::operator delete(_Ptr);

	mov	eax, DWORD PTR __Ptr$[esp-4]
	push	eax
	call	??3@YAXPAX@Z				; operator delete
	pop	ecx

; 141  : 		}

	ret	8
?deallocate@?$allocator@U_Node@?$_Tree_nod@V?$_Tset_traits@PAVFAutoVariableBase@@U?$less@PAVFAutoVariableBase@@@std@@V?$allocator@PAVFAutoVariableBase@@@3@$0A@@std@@@std@@@std@@QAEXPAU_Node@?$_Tree_nod@V?$_Tset_traits@PAVFAutoVariableBase@@U?$less@PAVFAutoVariableBase@@@std@@V?$allocator@PAVFAutoVariableBase@@@3@$0A@@std@@@2@I@Z ENDP ; std::allocator<std::_Tree_nod<std::_Tset_traits<FAutoVariableBase *,std::less<FAutoVariableBase *>,std::allocator<FAutoVariableBase *>,0> >::_Node>::deallocate
_TEXT	ENDS
PUBLIC	??0_Node@?$_Tree_nod@V?$_Tset_traits@PAVFAutoVariableBase@@U?$less@PAVFAutoVariableBase@@@std@@V?$allocator@PAVFAutoVariableBase@@@3@$0A@@std@@@std@@QAE@PAU012@00ABQAVFAutoVariableBase@@D@Z ; std::_Tree_nod<std::_Tset_traits<FAutoVariableBase *,std::less<FAutoVariableBase *>,std::allocator<FAutoVariableBase *>,0> >::_Node::_Node
; Function compile flags: /Ogtpy
; File c:\program files (x86)\microsoft visual studio 9.0\vc\include\xtree
;	COMDAT ??0_Node@?$_Tree_nod@V?$_Tset_traits@PAVFAutoVariableBase@@U?$less@PAVFAutoVariableBase@@@std@@V?$allocator@PAVFAutoVariableBase@@@3@$0A@@std@@@std@@QAE@PAU012@00ABQAVFAutoVariableBase@@D@Z
_TEXT	SEGMENT
__Larg$ = 8						; size = 4
__Parg$ = 12						; size = 4
__Rarg$ = 16						; size = 4
__Val$ = 20						; size = 4
__Carg$ = 24						; size = 1
??0_Node@?$_Tree_nod@V?$_Tset_traits@PAVFAutoVariableBase@@U?$less@PAVFAutoVariableBase@@@std@@V?$allocator@PAVFAutoVariableBase@@@3@$0A@@std@@@std@@QAE@PAU012@00ABQAVFAutoVariableBase@@D@Z PROC ; std::_Tree_nod<std::_Tset_traits<FAutoVariableBase *,std::less<FAutoVariableBase *>,std::allocator<FAutoVariableBase *>,0> >::_Node::_Node, COMDAT
; _this$ = ecx

; 38   : 			{	// construct a node with value

	mov	edx, DWORD PTR __Parg$[esp-4]
	mov	eax, ecx
	mov	ecx, DWORD PTR __Larg$[esp-4]
	mov	DWORD PTR [eax], ecx
	mov	ecx, DWORD PTR __Rarg$[esp-4]
	mov	DWORD PTR [eax+4], edx
	mov	edx, DWORD PTR __Val$[esp-4]
	mov	DWORD PTR [eax+8], ecx
	mov	ecx, DWORD PTR [edx]
	mov	dl, BYTE PTR __Carg$[esp-4]
	mov	DWORD PTR [eax+12], ecx
	mov	BYTE PTR [eax+16], dl
	mov	BYTE PTR [eax+17], 0

; 39   : 			}

	ret	20					; 00000014H
??0_Node@?$_Tree_nod@V?$_Tset_traits@PAVFAutoVariableBase@@U?$less@PAVFAutoVariableBase@@@std@@V?$allocator@PAVFAutoVariableBase@@@3@$0A@@std@@@std@@QAE@PAU012@00ABQAVFAutoVariableBase@@D@Z ENDP ; std::_Tree_nod<std::_Tset_traits<FAutoVariableBase *,std::less<FAutoVariableBase *>,std::allocator<FAutoVariableBase *>,0> >::_Node::_Node
_TEXT	ENDS
PUBLIC	?_Max@?$_Tree@V?$_Tset_traits@PAVFAutoVariableBase@@U?$less@PAVFAutoVariableBase@@@std@@V?$allocator@PAVFAutoVariableBase@@@3@$0A@@std@@@std@@KAPAU_Node@?$_Tree_nod@V?$_Tset_traits@PAVFAutoVariableBase@@U?$less@PAVFAutoVariableBase@@@std@@V?$allocator@PAVFAutoVariableBase@@@3@$0A@@std@@@2@PAU342@@Z ; std::_Tree<std::_Tset_traits<FAutoVariableBase *,std::less<FAutoVariableBase *>,std::allocator<FAutoVariableBase *>,0> >::_Max
; Function compile flags: /Ogtpy
;	COMDAT ?_Max@?$_Tree@V?$_Tset_traits@PAVFAutoVariableBase@@U?$less@PAVFAutoVariableBase@@@std@@V?$allocator@PAVFAutoVariableBase@@@3@$0A@@std@@@std@@KAPAU_Node@?$_Tree_nod@V?$_Tset_traits@PAVFAutoVariableBase@@U?$less@PAVFAutoVariableBase@@@std@@V?$allocator@PAVFAutoVariableBase@@@3@$0A@@std@@@2@PAU342@@Z
_TEXT	SEGMENT
__Pnode$ = 8						; size = 4
?_Max@?$_Tree@V?$_Tset_traits@PAVFAutoVariableBase@@U?$less@PAVFAutoVariableBase@@@std@@V?$allocator@PAVFAutoVariableBase@@@3@$0A@@std@@@std@@KAPAU_Node@?$_Tree_nod@V?$_Tset_traits@PAVFAutoVariableBase@@U?$less@PAVFAutoVariableBase@@@std@@V?$allocator@PAVFAutoVariableBase@@@3@$0A@@std@@@2@PAU342@@Z PROC ; std::_Tree<std::_Tset_traits<FAutoVariableBase *,std::less<FAutoVariableBase *>,std::allocator<FAutoVariableBase *>,0> >::_Max, COMDAT

; 1306 : 		while (!_Isnil(_Right(_Pnode)))

	mov	eax, DWORD PTR __Pnode$[esp-4]
	mov	ecx, DWORD PTR [eax+8]
	cmp	BYTE PTR [ecx+17], 0
	jne	SHORT $LN1@Max
	npad	3
$LL2@Max:

; 1307 : 			_Pnode = _Right(_Pnode);

	mov	eax, ecx
	mov	ecx, DWORD PTR [eax+8]
	cmp	BYTE PTR [ecx+17], 0
	je	SHORT $LL2@Max
$LN1@Max:

; 1308 : 		return (_Pnode);
; 1309 : 		}

	ret	0
?_Max@?$_Tree@V?$_Tset_traits@PAVFAutoVariableBase@@U?$less@PAVFAutoVariableBase@@@std@@V?$allocator@PAVFAutoVariableBase@@@3@$0A@@std@@@std@@KAPAU_Node@?$_Tree_nod@V?$_Tset_traits@PAVFAutoVariableBase@@U?$less@PAVFAutoVariableBase@@@std@@V?$allocator@PAVFAutoVariableBase@@@3@$0A@@std@@@2@PAU342@@Z ENDP ; std::_Tree<std::_Tset_traits<FAutoVariableBase *,std::less<FAutoVariableBase *>,std::allocator<FAutoVariableBase *>,0> >::_Max
_TEXT	ENDS
PUBLIC	?get@?$FAutoVariable@W4PlayerTypes@@VCvUnit@@@@QBEABW4PlayerTypes@@XZ ; FAutoVariable<enum PlayerTypes,CvUnit>::get
; Function compile flags: /Ogtpy
; File c:\users\enormousapplepie\desktop\cleanup (v1)\lekmod files\lekmod dll versions\v30\lekmod_dll\fireplace\include\fireworks\fautovariable.h
;	COMDAT ?get@?$FAutoVariable@W4PlayerTypes@@VCvUnit@@@@QBEABW4PlayerTypes@@XZ
_TEXT	SEGMENT
?get@?$FAutoVariable@W4PlayerTypes@@VCvUnit@@@@QBEABW4PlayerTypes@@XZ PROC ; FAutoVariable<enum PlayerTypes,CvUnit>::get, COMDAT
; _this$ = ecx

; 177  : 	return m_value;

	lea	eax, DWORD PTR [ecx+4]

; 178  : }

	ret	0
?get@?$FAutoVariable@W4PlayerTypes@@VCvUnit@@@@QBEABW4PlayerTypes@@XZ ENDP ; FAutoVariable<enum PlayerTypes,CvUnit>::get
_TEXT	ENDS
PUBLIC	?get@?$FAutoVariable@HVCvUnit@@@@QBEABHXZ	; FAutoVariable<int,CvUnit>::get
; Function compile flags: /Ogtpy
;	COMDAT ?get@?$FAutoVariable@HVCvUnit@@@@QBEABHXZ
_TEXT	SEGMENT
?get@?$FAutoVariable@HVCvUnit@@@@QBEABHXZ PROC		; FAutoVariable<int,CvUnit>::get, COMDAT
; _this$ = ecx

; 177  : 	return m_value;

	lea	eax, DWORD PTR [ecx+4]

; 178  : }

	ret	0
?get@?$FAutoVariable@HVCvUnit@@@@QBEABHXZ ENDP		; FAutoVariable<int,CvUnit>::get
_TEXT	ENDS
PUBLIC	??B?$FAutoVariable@HVCvUnit@@@@QBEABHXZ		; FAutoVariable<int,CvUnit>::operator int const &
; Function compile flags: /Ogtpy
;	COMDAT ??B?$FAutoVariable@HVCvUnit@@@@QBEABHXZ
_TEXT	SEGMENT
??B?$FAutoVariable@HVCvUnit@@@@QBEABHXZ PROC		; FAutoVariable<int,CvUnit>::operator int const &, COMDAT
; _this$ = ecx

; 194  : 	return m_value;

	lea	eax, DWORD PTR [ecx+4]

; 195  : }

	ret	0
??B?$FAutoVariable@HVCvUnit@@@@QBEABHXZ ENDP		; FAutoVariable<int,CvUnit>::operator int const &
_TEXT	ENDS
PUBLIC	??B?$FAutoVariable@_NVCvUnit@@@@QBEAB_NXZ	; FAutoVariable<bool,CvUnit>::operator bool const &
; Function compile flags: /Ogtpy
;	COMDAT ??B?$FAutoVariable@_NVCvUnit@@@@QBEAB_NXZ
_TEXT	SEGMENT
??B?$FAutoVariable@_NVCvUnit@@@@QBEAB_NXZ PROC		; FAutoVariable<bool,CvUnit>::operator bool const &, COMDAT
; _this$ = ecx

; 194  : 	return m_value;

	lea	eax, DWORD PTR [ecx+4]

; 195  : }

	ret	0
??B?$FAutoVariable@_NVCvUnit@@@@QBEAB_NXZ ENDP		; FAutoVariable<bool,CvUnit>::operator bool const &
_TEXT	ENDS
PUBLIC	__TI2?AVbad_alloc@std@@
PUBLIC	??$_Allocate@U_Node@?$_Tree_nod@V?$_Tset_traits@PAVFAutoVariableBase@@U?$less@PAVFAutoVariableBase@@@std@@V?$allocator@PAVFAutoVariableBase@@@3@$0A@@std@@@std@@@std@@YAPAU_Node@?$_Tree_nod@V?$_Tset_traits@PAVFAutoVariableBase@@U?$less@PAVFAutoVariableBase@@@std@@V?$allocator@PAVFAutoVariableBase@@@3@$0A@@std@@@0@IPAU120@@Z ; std::_Allocate<std::_Tree_nod<std::_Tset_traits<FAutoVariableBase *,std::less<FAutoVariableBase *>,std::allocator<FAutoVariableBase *>,0> >::_Node>
PUBLIC	__CTA2?AVbad_alloc@std@@
PUBLIC	__CT??_R0?AVbad_alloc@std@@@8??0bad_alloc@std@@QAE@ABV01@@Z12
PUBLIC	??0bad_alloc@std@@QAE@ABV01@@Z			; std::bad_alloc::bad_alloc
PUBLIC	__CT??_R0?AVexception@std@@@8??0exception@std@@QAE@ABV01@@Z12
EXTRN	??2@YAPAXI@Z:PROC				; operator new
EXTRN	__CxxThrowException@8:PROC
EXTRN	??0exception@std@@QAE@ABV01@@Z:PROC		; std::exception::exception
;	COMDAT __CT??_R0?AVexception@std@@@8??0exception@std@@QAE@ABV01@@Z12
; File c:\program files (x86)\microsoft visual studio 9.0\vc\include\exception
xdata$x	SEGMENT
__CT??_R0?AVexception@std@@@8??0exception@std@@QAE@ABV01@@Z12 DD 00H
	DD	FLAT:??_R0?AVexception@std@@@8
	DD	00H
	DD	0ffffffffH
	ORG $+4
	DD	0cH
	DD	FLAT:??0exception@std@@QAE@ABV01@@Z
xdata$x	ENDS
;	COMDAT __CT??_R0?AVbad_alloc@std@@@8??0bad_alloc@std@@QAE@ABV01@@Z12
xdata$x	SEGMENT
__CT??_R0?AVbad_alloc@std@@@8??0bad_alloc@std@@QAE@ABV01@@Z12 DD 00H
	DD	FLAT:??_R0?AVbad_alloc@std@@@8
	DD	00H
	DD	0ffffffffH
	ORG $+4
	DD	0cH
	DD	FLAT:??0bad_alloc@std@@QAE@ABV01@@Z
xdata$x	ENDS
;	COMDAT __CTA2?AVbad_alloc@std@@
xdata$x	SEGMENT
__CTA2?AVbad_alloc@std@@ DD 02H
	DD	FLAT:__CT??_R0?AVbad_alloc@std@@@8??0bad_alloc@std@@QAE@ABV01@@Z12
	DD	FLAT:__CT??_R0?AVexception@std@@@8??0exception@std@@QAE@ABV01@@Z12
xdata$x	ENDS
;	COMDAT __TI2?AVbad_alloc@std@@
xdata$x	SEGMENT
__TI2?AVbad_alloc@std@@ DD 00H
	DD	FLAT:??1bad_alloc@std@@UAE@XZ
	DD	00H
	DD	FLAT:__CTA2?AVbad_alloc@std@@
; Function compile flags: /Ogtpy
; File c:\program files (x86)\microsoft visual studio 9.0\vc\include\xmemory
xdata$x	ENDS
;	COMDAT ??$_Allocate@U_Node@?$_Tree_nod@V?$_Tset_traits@PAVFAutoVariableBase@@U?$less@PAVFAutoVariableBase@@@std@@V?$allocator@PAVFAutoVariableBase@@@3@$0A@@std@@@std@@@std@@YAPAU_Node@?$_Tree_nod@V?$_Tset_traits@PAVFAutoVariableBase@@U?$less@PAVFAutoVariableBase@@@std@@V?$allocator@PAVFAutoVariableBase@@@3@$0A@@std@@@0@IPAU120@@Z
_TEXT	SEGMENT
$T225194 = -12						; size = 12
$T225199 = 8						; size = 4
__Count$ = 8						; size = 4
___formal$ = 12						; size = 4
??$_Allocate@U_Node@?$_Tree_nod@V?$_Tset_traits@PAVFAutoVariableBase@@U?$less@PAVFAutoVariableBase@@@std@@V?$allocator@PAVFAutoVariableBase@@@3@$0A@@std@@@std@@@std@@YAPAU_Node@?$_Tree_nod@V?$_Tset_traits@PAVFAutoVariableBase@@U?$less@PAVFAutoVariableBase@@@std@@V?$allocator@PAVFAutoVariableBase@@@3@$0A@@std@@@0@IPAU120@@Z PROC ; std::_Allocate<std::_Tree_nod<std::_Tset_traits<FAutoVariableBase *,std::less<FAutoVariableBase *>,std::allocator<FAutoVariableBase *>,0> >::_Node>, COMDAT

; 37   : 	if (_Count <= 0)

	mov	ecx, DWORD PTR __Count$[esp-4]
	sub	esp, 12					; 0000000cH
	test	ecx, ecx
	ja	SHORT $LN3@Allocate

; 38   : 		_Count = 0;

	xor	ecx, ecx
$LN1@Allocate:

; 41   : 
; 42   : 		// allocate storage for _Count elements of type _Ty
; 43   : 	return ((_Ty _FARQ *)::operator new(_Count * sizeof (_Ty)));

	lea	edx, DWORD PTR [ecx+ecx*4]
	add	edx, edx
	add	edx, edx
	push	edx
	call	??2@YAPAXI@Z				; operator new
	add	esp, 4

; 44   : 	}

	add	esp, 12					; 0000000cH
	ret	0
$LN3@Allocate:

; 39   : 	else if (((_SIZT)(-1) / _Count) < sizeof (_Ty))

	or	eax, -1
	xor	edx, edx
	div	ecx
	cmp	eax, 20					; 00000014H
	jae	SHORT $LN1@Allocate

; 40   : 		_THROW_NCEE(std::bad_alloc, NULL);

	lea	eax, DWORD PTR $T225199[esp+8]
	push	eax
	lea	ecx, DWORD PTR $T225194[esp+16]
	mov	DWORD PTR $T225199[esp+12], 0
	call	DWORD PTR __imp_??0exception@std@@QAE@ABQBD@Z
	push	OFFSET __TI2?AVbad_alloc@std@@
	lea	ecx, DWORD PTR $T225194[esp+16]
	push	ecx
	mov	DWORD PTR $T225194[esp+20], OFFSET ??_7bad_alloc@std@@6B@
	call	__CxxThrowException@8
$LN9@Allocate:
$LN8@Allocate:
	int	3
??$_Allocate@U_Node@?$_Tree_nod@V?$_Tset_traits@PAVFAutoVariableBase@@U?$less@PAVFAutoVariableBase@@@std@@V?$allocator@PAVFAutoVariableBase@@@3@$0A@@std@@@std@@@std@@YAPAU_Node@?$_Tree_nod@V?$_Tset_traits@PAVFAutoVariableBase@@U?$less@PAVFAutoVariableBase@@@std@@V?$allocator@PAVFAutoVariableBase@@@3@$0A@@std@@@0@IPAU120@@Z ENDP ; std::_Allocate<std::_Tree_nod<std::_Tset_traits<FAutoVariableBase *,std::less<FAutoVariableBase *>,std::allocator<FAutoVariableBase *>,0> >::_Node>
_TEXT	ENDS
EXTRN	__imp_??0exception@std@@QAE@ABV01@@Z:PROC
; Function compile flags: /Ogtpy
;	COMDAT ??0bad_alloc@std@@QAE@ABV01@@Z
_TEXT	SEGMENT
___that$ = 8						; size = 4
??0bad_alloc@std@@QAE@ABV01@@Z PROC			; std::bad_alloc::bad_alloc, COMDAT
; _this$ = ecx
	mov	eax, DWORD PTR ___that$[esp-4]
	push	esi
	push	eax
	mov	esi, ecx
	call	DWORD PTR __imp_??0exception@std@@QAE@ABV01@@Z
	mov	DWORD PTR [esi], OFFSET ??_7bad_alloc@std@@6B@
	mov	eax, esi
	pop	esi
	ret	4
??0bad_alloc@std@@QAE@ABV01@@Z ENDP			; std::bad_alloc::bad_alloc
_TEXT	ENDS
PUBLIC	?lIsNone@CvLuaUnit@@KAHPAUlua_State@@@Z		; CvLuaUnit::lIsNone
; Function compile flags: /Ogtpy
; File c:\users\enormousapplepie\desktop\cleanup (v1)\lekmod files\lekmod dll versions\v30\lekmod_dll\cvgamecoredll_expansion2\lua\cvluaunit.cpp
;	COMDAT ?lIsNone@CvLuaUnit@@KAHPAUlua_State@@@Z
_TEXT	SEGMENT
_L$ = 8							; size = 4
?lIsNone@CvLuaUnit@@KAHPAUlua_State@@@Z PROC		; CvLuaUnit::lIsNone, COMDAT

; 504  : {

	push	ebx
	push	ebp
	push	esi

; 505  : #ifdef AUI_WARNING_FIXES
; 506  : 	const bool bDoesNotExist = (GetInstance(L, 1, false) == NULL);
; 507  : 	lua_pushboolean(L, bDoesNotExist ? 1 : 0);
; 508  : #else
; 509  : 	const bool bDoesNotExist = (GetInstance(L, false) == NULL);

	mov	esi, DWORD PTR _L$[esp+8]
	push	edi
	push	esi
	call	_lua_gettop
	xor	edi, edi
	push	edi
	push	esi
	mov	ebp, eax
	mov	bl, 1
	call	_lua_type
	add	esp, 12					; 0000000cH
	cmp	eax, 5
	jne	SHORT $LN5@lIsNone
	push	OFFSET $SG224203
	push	edi
	push	esi
	call	_lua_getfield
	push	-1
	push	esi
	call	_lua_type
	add	esp, 20					; 00000014H
	cmp	eax, 2
	jne	SHORT $LN5@lIsNone
	push	-1
	push	esi
	call	_lua_touserdata
	mov	edi, eax
	add	esp, 8
	test	edi, edi
	je	SHORT $LN5@lIsNone
	xor	bl, bl
$LN5@lIsNone:
	push	ebp
	push	esi
	call	_lua_settop
	add	esp, 8
	test	bl, bl
	je	SHORT $LN10@lIsNone
	push	OFFSET $SG221232
	push	esi
	call	_luaL_error
	add	esp, 8
$LN10@lIsNone:
	xor	eax, eax
	test	edi, edi
	sete	al

; 510  : 	lua_pushboolean(L, bDoesNotExist);

	push	eax
	push	esi
	call	_lua_pushboolean
	add	esp, 8
	pop	edi
	pop	esi
	pop	ebp

; 511  : #endif
; 512  : 
; 513  : 	return 1;

	mov	eax, 1
	pop	ebx

; 514  : }

	ret	0
?lIsNone@CvLuaUnit@@KAHPAUlua_State@@@Z ENDP		; CvLuaUnit::lIsNone
_TEXT	ENDS
PUBLIC	?lConvert@CvLuaUnit@@KAHPAUlua_State@@@Z	; CvLuaUnit::lConvert
EXTRN	?convert@CvUnit@@QAEXPAV1@_N@Z:PROC		; CvUnit::convert
EXTRN	_lua_toboolean:PROC
; Function compile flags: /Ogtpy
;	COMDAT ?lConvert@CvLuaUnit@@KAHPAUlua_State@@@Z
_TEXT	SEGMENT
_pkInstance$225235 = -8					; size = 4
_bIsUpgrade$ = -4					; size = 1
_L$ = 8							; size = 4
?lConvert@CvLuaUnit@@KAHPAUlua_State@@@Z PROC		; CvLuaUnit::lConvert, COMDAT

; 518  : {

	sub	esp, 8
	push	ebx
	push	ebp
	push	esi

; 519  : 	CvUnit* pkUnit = GetInstance(L);

	mov	esi, DWORD PTR _L$[esp+16]
	push	edi
	push	esi
	call	_lua_gettop
	push	1
	push	esi
	mov	edi, eax
	mov	bl, 1
	mov	DWORD PTR _pkInstance$225235[esp+36], 0
	call	_lua_type
	add	esp, 12					; 0000000cH
	cmp	eax, 5
	jne	SHORT $LN5@lConvert
	push	OFFSET $SG224203
	push	1
	push	esi
	call	_lua_getfield
	push	-1
	push	esi
	call	_lua_type
	add	esp, 20					; 00000014H
	cmp	eax, 2
	jne	SHORT $LN5@lConvert
	push	-1
	push	esi
	call	_lua_touserdata
	add	esp, 8
	mov	DWORD PTR _pkInstance$225235[esp+24], eax
	test	eax, eax
	je	SHORT $LN5@lConvert
	xor	bl, bl
$LN5@lConvert:
	push	edi
	push	esi
	call	_lua_settop
	add	esp, 8
	test	bl, bl
	je	SHORT $LN10@lConvert
	push	OFFSET $SG224209
	push	esi
	call	_luaL_error
	push	OFFSET $SG221232
	push	esi
	call	_luaL_error
	add	esp, 16					; 00000010H
$LN10@lConvert:

; 520  : 	CvUnit* pkUnitToConvert = GetInstance(L, 2);

	push	esi
	call	_lua_gettop
	push	2
	push	esi
	mov	ebp, eax
	mov	bl, 1
	xor	edi, edi
	call	_lua_type
	add	esp, 12					; 0000000cH
	cmp	eax, 5
	jne	SHORT $LN14@lConvert
	push	OFFSET $SG224203
	push	2
	push	esi
	call	_lua_getfield
	push	-1
	push	esi
	call	_lua_type
	add	esp, 20					; 00000014H
	cmp	eax, 2
	jne	SHORT $LN14@lConvert
	push	-1
	push	esi
	call	_lua_touserdata
	mov	edi, eax
	add	esp, 8
	test	edi, edi
	je	SHORT $LN14@lConvert
	xor	bl, bl
$LN14@lConvert:
	push	ebp
	push	esi
	call	_lua_settop
	add	esp, 8
	test	bl, bl
	je	SHORT $LN19@lConvert
	push	OFFSET $SG221232
	push	esi
	call	_luaL_error
	add	esp, 8
$LN19@lConvert:

; 521  : 	bool bIsUpgrade = lua_toboolean(L, 3);

	push	3
	push	esi
	call	_lua_toboolean
	add	esp, 8
	test	eax, eax
	setne	al
	mov	BYTE PTR _bIsUpgrade$[esp+24], al

; 522  : 
; 523  : 	pkUnit->convert(pkUnitToConvert, bIsUpgrade);

	mov	ecx, DWORD PTR _bIsUpgrade$[esp+24]
	push	ecx
	mov	ecx, DWORD PTR _pkInstance$225235[esp+28]
	push	edi
	call	?convert@CvUnit@@QAEXPAV1@_N@Z		; CvUnit::convert
	pop	edi
	pop	esi
	pop	ebp

; 524  : 	return 0;

	xor	eax, eax
	pop	ebx

; 525  : }

	add	esp, 8
	ret	0
?lConvert@CvLuaUnit@@KAHPAUlua_State@@@Z ENDP		; CvLuaUnit::lConvert
_TEXT	ENDS
PUBLIC	?lKill@CvLuaUnit@@KAHPAUlua_State@@@Z		; CvLuaUnit::lKill
EXTRN	?kill@CvUnit@@QAEX_NW4PlayerTypes@@@Z:PROC	; CvUnit::kill
; Function compile flags: /Ogtpy
;	COMDAT ?lKill@CvLuaUnit@@KAHPAUlua_State@@@Z
_TEXT	SEGMENT
_bDelay$ = -4						; size = 1
_L$ = 8							; size = 4
?lKill@CvLuaUnit@@KAHPAUlua_State@@@Z PROC		; CvLuaUnit::lKill, COMDAT

; 529  : {

	push	ecx
	push	ebx
	push	ebp
	push	esi

; 530  : 	CvUnit* pkUnit = GetInstance(L);

	mov	esi, DWORD PTR _L$[esp+12]
	push	edi
	push	esi
	call	_lua_gettop
	push	1
	push	esi
	mov	ebp, eax
	mov	bl, 1
	xor	edi, edi
	call	_lua_type
	add	esp, 12					; 0000000cH
	cmp	eax, 5
	jne	SHORT $LN7@lKill
	push	OFFSET $SG224203
	push	1
	push	esi
	call	_lua_getfield
	push	-1
	push	esi
	call	_lua_type
	add	esp, 20					; 00000014H
	cmp	eax, 2
	jne	SHORT $LN7@lKill
	push	-1
	push	esi
	call	_lua_touserdata
	mov	edi, eax
	add	esp, 8
	test	edi, edi
	je	SHORT $LN7@lKill
	xor	bl, bl
$LN7@lKill:
	push	ebp
	push	esi
	call	_lua_settop
	add	esp, 8
	test	bl, bl
	je	SHORT $LN12@lKill
	push	OFFSET $SG224209
	push	esi
	call	_luaL_error
	push	OFFSET $SG221232
	push	esi
	call	_luaL_error
	add	esp, 16					; 00000010H
$LN12@lKill:

; 531  : 	const bool bDelay = lua_toboolean(L, 2);

	push	2
	push	esi
	call	_lua_toboolean
	test	eax, eax
	setne	al

; 532  : 	const PlayerTypes ePlayer
; 533  : 	    = (lua_isnil(L, 3))? NO_PLAYER : (PlayerTypes)lua_tointeger(L, 3);

	push	3
	push	esi
	mov	BYTE PTR _bDelay$[esp+36], al
	call	_lua_type
	add	esp, 16					; 00000010H
	test	eax, eax
	jne	SHORT $LN3@lKill

; 534  : 
; 535  : 	pkUnit->kill(bDelay, ePlayer);

	mov	ecx, DWORD PTR _bDelay$[esp+20]
	or	eax, -1
	push	eax
	push	ecx
	mov	ecx, edi
	call	?kill@CvUnit@@QAEX_NW4PlayerTypes@@@Z	; CvUnit::kill
	pop	edi
	pop	esi
	pop	ebp

; 536  : 	return 0;

	xor	eax, eax
	pop	ebx

; 537  : }

	pop	ecx
	ret	0
$LN3@lKill:

; 532  : 	const PlayerTypes ePlayer
; 533  : 	    = (lua_isnil(L, 3))? NO_PLAYER : (PlayerTypes)lua_tointeger(L, 3);

	push	3
	push	esi
	call	_lua_tointeger

; 534  : 
; 535  : 	pkUnit->kill(bDelay, ePlayer);

	mov	ecx, DWORD PTR _bDelay$[esp+28]
	add	esp, 8
	push	eax
	push	ecx
	mov	ecx, edi
	call	?kill@CvUnit@@QAEX_NW4PlayerTypes@@@Z	; CvUnit::kill
	pop	edi
	pop	esi
	pop	ebp

; 536  : 	return 0;

	xor	eax, eax
	pop	ebx

; 537  : }

	pop	ecx
	ret	0
?lKill@CvLuaUnit@@KAHPAUlua_State@@@Z ENDP		; CvLuaUnit::lKill
_TEXT	ENDS
PUBLIC	?lIsBetterDefenderThan@CvLuaUnit@@KAHPAUlua_State@@@Z ; CvLuaUnit::lIsBetterDefenderThan
EXTRN	?isBetterDefenderThan@CvUnit@@QBE_NPBV1@0@Z:PROC ; CvUnit::isBetterDefenderThan
; Function compile flags: /Ogtpy
;	COMDAT ?lIsBetterDefenderThan@CvLuaUnit@@KAHPAUlua_State@@@Z
_TEXT	SEGMENT
_L$ = 8							; size = 4
?lIsBetterDefenderThan@CvLuaUnit@@KAHPAUlua_State@@@Z PROC ; CvLuaUnit::lIsBetterDefenderThan, COMDAT

; 547  : {

	push	ebx
	push	ebp
	push	esi

; 548  : 	CvUnit* pkUnit = GetInstance(L);

	mov	esi, DWORD PTR _L$[esp+8]
	push	edi
	push	esi
	call	_lua_gettop
	push	1
	push	esi
	mov	ebp, eax
	mov	bl, 1
	xor	edi, edi
	call	_lua_type
	add	esp, 12					; 0000000cH
	cmp	eax, 5
	jne	SHORT $LN5@lIsBetterD
	push	OFFSET $SG224203
	push	1
	push	esi
	call	_lua_getfield
	push	-1
	push	esi
	call	_lua_type
	add	esp, 20					; 00000014H
	cmp	eax, 2
	jne	SHORT $LN5@lIsBetterD
	push	-1
	push	esi
	call	_lua_touserdata
	mov	edi, eax
	add	esp, 8
	test	edi, edi
	je	SHORT $LN5@lIsBetterD
	xor	bl, bl
$LN5@lIsBetterD:
	push	ebp
	push	esi
	call	_lua_settop
	add	esp, 8
	test	bl, bl
	je	SHORT $LN10@lIsBetterD
	push	OFFSET $SG224209
	push	esi
	call	_luaL_error
	push	OFFSET $SG221232
	push	esi
	call	_luaL_error
	add	esp, 16					; 00000010H
$LN10@lIsBetterD:

; 549  : 	CvUnit* pkDefender = GetInstance(L, 2, false);

	push	0
	push	2
	push	esi
	call	?GetInstance@?$CvLuaScopedInstance@VCvLuaUnit@@VCvUnit@@@@SAPAVCvUnit@@PAUlua_State@@H_N@Z ; CvLuaScopedInstance<CvLuaUnit,CvUnit>::GetInstance

; 550  : 	CvUnit* pkAttacker = GetInstance(L, 3, false);

	push	0
	push	3
	push	esi
	mov	ebx, eax
	call	?GetInstance@?$CvLuaScopedInstance@VCvLuaUnit@@VCvUnit@@@@SAPAVCvUnit@@PAUlua_State@@H_N@Z ; CvLuaScopedInstance<CvLuaUnit,CvUnit>::GetInstance
	add	esp, 24					; 00000018H

; 551  : 	const bool bResult = pkUnit->isBetterDefenderThan(pkDefender, pkAttacker);

	push	eax
	push	ebx
	mov	ecx, edi
	call	?isBetterDefenderThan@CvUnit@@QBE_NPBV1@0@Z ; CvUnit::isBetterDefenderThan

; 552  : 
; 553  : 	lua_pushboolean(L, bResult);

	movzx	eax, al
	push	eax
	push	esi
	call	_lua_pushboolean
	add	esp, 8
	pop	edi
	pop	esi
	pop	ebp

; 554  : 	return 1;

	mov	eax, 1
	pop	ebx

; 555  : }

	ret	0
?lIsBetterDefenderThan@CvLuaUnit@@KAHPAUlua_State@@@Z ENDP ; CvLuaUnit::lIsBetterDefenderThan
_TEXT	ENDS
PUBLIC	?lCanDoCommand@CvLuaUnit@@KAHPAUlua_State@@@Z	; CvLuaUnit::lCanDoCommand
EXTRN	?canDoCommand@CvUnit@@QBE_NW4CommandTypes@@HH_N1@Z:PROC ; CvUnit::canDoCommand
EXTRN	_luaL_optinteger:PROC
; Function compile flags: /Ogtpy
;	COMDAT ?lCanDoCommand@CvLuaUnit@@KAHPAUlua_State@@@Z
_TEXT	SEGMENT
_bTestBusy$ = -12					; size = 1
_bTestVisible$ = -8					; size = 1
_iData2$ = -4						; size = 4
_L$ = 8							; size = 4
?lCanDoCommand@CvLuaUnit@@KAHPAUlua_State@@@Z PROC	; CvLuaUnit::lCanDoCommand, COMDAT

; 559  : {

	sub	esp, 12					; 0000000cH
	push	ebx
	push	ebp
	push	esi

; 560  : 	CvUnit* pkUnit = GetInstance(L);

	mov	esi, DWORD PTR _L$[esp+20]
	push	edi
	push	esi
	call	_lua_gettop
	push	1
	push	esi
	mov	ebp, eax
	mov	bl, 1
	xor	edi, edi
	call	_lua_type
	add	esp, 12					; 0000000cH
	cmp	eax, 5
	jne	SHORT $LN5@lCanDoComm
	push	OFFSET $SG224203
	push	1
	push	esi
	call	_lua_getfield
	push	-1
	push	esi
	call	_lua_type
	add	esp, 20					; 00000014H
	cmp	eax, 2
	jne	SHORT $LN5@lCanDoComm
	push	-1
	push	esi
	call	_lua_touserdata
	mov	edi, eax
	add	esp, 8
	test	edi, edi
	je	SHORT $LN5@lCanDoComm
	xor	bl, bl
$LN5@lCanDoComm:
	push	ebp
	push	esi
	call	_lua_settop
	add	esp, 8
	test	bl, bl
	je	SHORT $LN10@lCanDoComm
	push	OFFSET $SG224209
	push	esi
	call	_luaL_error
	push	OFFSET $SG221232
	push	esi
	call	_luaL_error
	add	esp, 16					; 00000010H
$LN10@lCanDoComm:

; 561  : 	const CommandTypes eCommand = (CommandTypes)lua_tointeger(L, 2);

	push	2
	push	esi
	call	_lua_tointeger

; 562  : 	const int iData1		= lua_tointeger(L, 3);

	push	3
	push	esi
	mov	ebx, eax
	call	_lua_tointeger

; 563  : 	const int iData2		= lua_tointeger(L, 4);

	push	4
	push	esi
	mov	ebp, eax
	call	_lua_tointeger

; 564  : 	const bool bTestVisible = luaL_optint(L, 5, 0);		//defaults to false

	push	0
	push	5
	push	esi
	mov	DWORD PTR _iData2$[esp+64], eax
	call	_luaL_optinteger

; 565  : 	const bool bTestBusy	= luaL_optint(L, 6, 1);		//defaults to true

	push	1
	test	eax, eax
	setne	al
	push	6
	push	esi
	mov	BYTE PTR _bTestVisible$[esp+76], al
	call	_luaL_optinteger
	add	esp, 48					; 00000030H
	test	eax, eax

; 566  : 
; 567  : 	const bool bResult = pkUnit->canDoCommand(eCommand, iData1, iData2, bTestVisible, bTestBusy);

	mov	eax, DWORD PTR _bTestVisible$[esp+28]
	setne	cl
	mov	BYTE PTR _bTestBusy$[esp+28], cl
	mov	edx, DWORD PTR _bTestBusy$[esp+28]
	mov	ecx, DWORD PTR _iData2$[esp+28]
	push	edx
	push	eax
	push	ecx
	push	ebp
	push	ebx
	mov	ecx, edi
	call	?canDoCommand@CvUnit@@QBE_NW4CommandTypes@@HH_N1@Z ; CvUnit::canDoCommand

; 568  : 
; 569  : 	lua_pushboolean(L, bResult);

	movzx	edx, al
	push	edx
	push	esi
	call	_lua_pushboolean
	add	esp, 8
	pop	edi
	pop	esi
	pop	ebp

; 570  : 	return 1;

	mov	eax, 1
	pop	ebx

; 571  : }

	add	esp, 12					; 0000000cH
	ret	0
?lCanDoCommand@CvLuaUnit@@KAHPAUlua_State@@@Z ENDP	; CvLuaUnit::lCanDoCommand
_TEXT	ENDS
PUBLIC	?lGetPathEndTurnPlot@CvLuaUnit@@KAHPAUlua_State@@@Z ; CvLuaUnit::lGetPathEndTurnPlot
EXTRN	?GetPathEndTurnPlot@CvUnit@@QBEPAVCvPlot@@XZ:PROC ; CvUnit::GetPathEndTurnPlot
; Function compile flags: /Ogtpy
;	COMDAT ?lGetPathEndTurnPlot@CvLuaUnit@@KAHPAUlua_State@@@Z
_TEXT	SEGMENT
_L$ = 8							; size = 4
?lGetPathEndTurnPlot@CvLuaUnit@@KAHPAUlua_State@@@Z PROC ; CvLuaUnit::lGetPathEndTurnPlot, COMDAT

; 581  : {

	push	ebx
	push	ebp
	push	esi

; 582  : 	CvUnit* pkUnit = GetInstance(L);

	mov	esi, DWORD PTR _L$[esp+8]
	push	edi
	push	esi
	call	_lua_gettop
	push	1
	push	esi
	mov	ebp, eax
	mov	bl, 1
	xor	edi, edi
	call	_lua_type
	add	esp, 12					; 0000000cH
	cmp	eax, 5
	jne	SHORT $LN5@lGetPathEn
	push	OFFSET $SG224203
	push	1
	push	esi
	call	_lua_getfield
	push	-1
	push	esi
	call	_lua_type
	add	esp, 20					; 00000014H
	cmp	eax, 2
	jne	SHORT $LN5@lGetPathEn
	push	-1
	push	esi
	call	_lua_touserdata
	mov	edi, eax
	add	esp, 8
	test	edi, edi
	je	SHORT $LN5@lGetPathEn
	xor	bl, bl
$LN5@lGetPathEn:
	push	ebp
	push	esi
	call	_lua_settop
	add	esp, 8
	test	bl, bl
	je	SHORT $LN10@lGetPathEn
	push	OFFSET $SG224209
	push	esi
	call	_luaL_error
	push	OFFSET $SG221232
	push	esi
	call	_luaL_error
	add	esp, 16					; 00000010H
$LN10@lGetPathEn:

; 583  : 
; 584  : 	CvPlot* pkPlot = pkUnit->GetPathEndTurnPlot();

	mov	ecx, edi
	call	?GetPathEndTurnPlot@CvUnit@@QBEPAVCvPlot@@XZ ; CvUnit::GetPathEndTurnPlot

; 585  : 	CvLuaPlot::Push(L, pkPlot);

	push	eax
	push	esi
	call	?Push@?$CvLuaScopedInstance@VCvLuaPlot@@VCvPlot@@@@SAXPAUlua_State@@PAVCvPlot@@@Z ; CvLuaScopedInstance<CvLuaPlot,CvPlot>::Push
	add	esp, 8
	pop	edi
	pop	esi
	pop	ebp

; 586  : 
; 587  : 	return 1;

	mov	eax, 1
	pop	ebx

; 588  : }

	ret	0
?lGetPathEndTurnPlot@CvLuaUnit@@KAHPAUlua_State@@@Z ENDP ; CvLuaUnit::lGetPathEndTurnPlot
_TEXT	ENDS
PUBLIC	?lCanEnterTerritory@CvLuaUnit@@KAHPAUlua_State@@@Z ; CvLuaUnit::lCanEnterTerritory
EXTRN	?canEnterTerritory@CvUnit@@QBE_NW4TeamTypes@@_N11@Z:PROC ; CvUnit::canEnterTerritory
; Function compile flags: /Ogtpy
;	COMDAT ?lCanEnterTerritory@CvLuaUnit@@KAHPAUlua_State@@@Z
_TEXT	SEGMENT
_bIsCity$ = -8						; size = 1
_bIgnoreRightOfPassage$ = -4				; size = 1
_L$ = 8							; size = 4
?lCanEnterTerritory@CvLuaUnit@@KAHPAUlua_State@@@Z PROC	; CvLuaUnit::lCanEnterTerritory, COMDAT

; 607  : {

	sub	esp, 8
	push	ebx
	push	ebp
	push	esi

; 608  : 	CvUnit* pkUnit = GetInstance(L);

	mov	esi, DWORD PTR _L$[esp+16]
	push	edi
	push	esi
	call	_lua_gettop
	push	1
	push	esi
	mov	ebp, eax
	mov	bl, 1
	xor	edi, edi
	call	_lua_type
	add	esp, 12					; 0000000cH
	cmp	eax, 5
	jne	SHORT $LN5@lCanEnterT
	push	OFFSET $SG224203
	push	1
	push	esi
	call	_lua_getfield
	push	-1
	push	esi
	call	_lua_type
	add	esp, 20					; 00000014H
	cmp	eax, 2
	jne	SHORT $LN5@lCanEnterT
	push	-1
	push	esi
	call	_lua_touserdata
	mov	edi, eax
	add	esp, 8
	test	edi, edi
	je	SHORT $LN5@lCanEnterT
	xor	bl, bl
$LN5@lCanEnterT:
	push	ebp
	push	esi
	call	_lua_settop
	add	esp, 8
	test	bl, bl
	je	SHORT $LN10@lCanEnterT
	push	OFFSET $SG224209
	push	esi
	call	_luaL_error
	push	OFFSET $SG221232
	push	esi
	call	_luaL_error
	add	esp, 16					; 00000010H
$LN10@lCanEnterT:

; 609  : 	const TeamTypes eTeam				= (TeamTypes)lua_tointeger(L, 2);

	push	2
	push	esi
	call	_lua_tointeger

; 610  : 	const bool bIgnoreRightOfPassage	= luaL_optint(L, 3, 0);

	push	0
	push	3
	push	esi
	mov	ebx, eax
	call	_luaL_optinteger

; 611  : 	const bool bIsCity					= luaL_optint(L, 4, 0);

	push	0
	test	eax, eax
	setne	al
	push	4
	push	esi
	mov	BYTE PTR _bIgnoreRightOfPassage$[esp+56], al
	call	_luaL_optinteger
	add	esp, 32					; 00000020H
	test	eax, eax

; 612  : 
; 613  : 	const bool bResult = pkUnit->canEnterTerritory(eTeam, bIgnoreRightOfPassage, bIsCity);

	mov	eax, DWORD PTR _bIgnoreRightOfPassage$[esp+24]
	setne	cl
	mov	BYTE PTR _bIsCity$[esp+24], cl
	mov	edx, DWORD PTR _bIsCity$[esp+24]
	push	0
	push	edx
	push	eax
	push	ebx
	mov	ecx, edi
	call	?canEnterTerritory@CvUnit@@QBE_NW4TeamTypes@@_N11@Z ; CvUnit::canEnterTerritory

; 614  : 
; 615  : 	lua_pushboolean(L, bResult);

	movzx	ecx, al
	push	ecx
	push	esi
	call	_lua_pushboolean
	add	esp, 8
	pop	edi
	pop	esi
	pop	ebp

; 616  : 	return 1;

	mov	eax, 1
	pop	ebx

; 617  : }

	add	esp, 8
	ret	0
?lCanEnterTerritory@CvLuaUnit@@KAHPAUlua_State@@@Z ENDP	; CvLuaUnit::lCanEnterTerritory
_TEXT	ENDS
PUBLIC	?lGetDeclareWarRangeStrike@CvLuaUnit@@KAHPAUlua_State@@@Z ; CvLuaUnit::lGetDeclareWarRangeStrike
EXTRN	?GetDeclareWarRangeStrike@CvUnit@@QBE?AW4TeamTypes@@ABVCvPlot@@@Z:PROC ; CvUnit::GetDeclareWarRangeStrike
; Function compile flags: /Ogtpy
;	COMDAT ?lGetDeclareWarRangeStrike@CvLuaUnit@@KAHPAUlua_State@@@Z
_TEXT	SEGMENT
_pkInstance$225370 = -4					; size = 4
_L$ = 8							; size = 4
?lGetDeclareWarRangeStrike@CvLuaUnit@@KAHPAUlua_State@@@Z PROC ; CvLuaUnit::lGetDeclareWarRangeStrike, COMDAT

; 621  : {

	push	ecx
	push	ebx
	push	ebp
	push	esi

; 622  : 	CvUnit* pkUnit = GetInstance(L);

	mov	esi, DWORD PTR _L$[esp+12]
	push	edi
	push	esi
	call	_lua_gettop
	push	1
	push	esi
	mov	edi, eax
	mov	bl, 1
	mov	DWORD PTR _pkInstance$225370[esp+32], 0
	call	_lua_type
	add	esp, 12					; 0000000cH
	cmp	eax, 5
	jne	SHORT $LN6@lGetDeclar@2
	push	OFFSET $SG224203
	push	1
	push	esi
	call	_lua_getfield
	push	-1
	push	esi
	call	_lua_type
	add	esp, 20					; 00000014H
	cmp	eax, 2
	jne	SHORT $LN6@lGetDeclar@2
	push	-1
	push	esi
	call	_lua_touserdata
	add	esp, 8
	mov	DWORD PTR _pkInstance$225370[esp+20], eax
	test	eax, eax
	je	SHORT $LN6@lGetDeclar@2
	xor	bl, bl
$LN6@lGetDeclar@2:
	push	edi
	push	esi
	call	_lua_settop
	add	esp, 8
	test	bl, bl
	je	SHORT $LN11@lGetDeclar@2
	push	OFFSET $SG224209
	push	esi
	call	_luaL_error
	push	OFFSET $SG221232
	push	esi
	call	_luaL_error
	add	esp, 16					; 00000010H
$LN11@lGetDeclar@2:

; 623  : 	CvPlot* pkPlot = CvLuaPlot::GetInstance(L, 2);

	push	esi
	call	_lua_gettop
	push	2
	push	esi
	mov	ebp, eax
	mov	bl, 1
	xor	edi, edi
	call	_lua_type
	add	esp, 12					; 0000000cH
	cmp	eax, 5
	jne	SHORT $LN15@lGetDeclar@2
	push	OFFSET $SG224163
	push	2
	push	esi
	call	_lua_getfield
	push	-1
	push	esi
	call	_lua_type
	add	esp, 20					; 00000014H
	cmp	eax, 2
	jne	SHORT $LN15@lGetDeclar@2
	push	-1
	push	esi
	call	_lua_touserdata
	mov	edi, eax
	add	esp, 8
	test	edi, edi
	je	SHORT $LN15@lGetDeclar@2
	xor	bl, bl
$LN15@lGetDeclar@2:
	push	ebp
	push	esi
	call	_lua_settop
	add	esp, 8
	test	bl, bl
	je	SHORT $LN14@lGetDeclar@2
	push	esi
	call	?HandleMissingInstance@CvLuaPlot@@SAXPAUlua_State@@@Z ; CvLuaPlot::HandleMissingInstance
	add	esp, 4
$LN14@lGetDeclar@2:

; 624  : 
; 625  : 	TeamTypes eResult = NO_TEAM;

	or	eax, -1

; 626  : 	if(pkPlot)

	test	edi, edi
	je	SHORT $LN1@lGetDeclar@2

; 627  : 	{
; 628  : 		eResult = pkUnit->GetDeclareWarRangeStrike(*pkPlot);

	mov	ecx, DWORD PTR _pkInstance$225370[esp+20]
	push	edi
	call	?GetDeclareWarRangeStrike@CvUnit@@QBE?AW4TeamTypes@@ABVCvPlot@@@Z ; CvUnit::GetDeclareWarRangeStrike
$LN1@lGetDeclar@2:

; 629  : 	}
; 630  : 	lua_pushinteger(L, eResult);

	push	eax
	push	esi
	call	_lua_pushinteger
	add	esp, 8
	pop	edi
	pop	esi
	pop	ebp

; 631  : 	return 1;

	mov	eax, 1
	pop	ebx

; 632  : }

	pop	ecx
	ret	0
?lGetDeclareWarRangeStrike@CvLuaUnit@@KAHPAUlua_State@@@Z ENDP ; CvLuaUnit::lGetDeclareWarRangeStrike
_TEXT	ENDS
PUBLIC	?lCanMoveOrAttackInto@CvLuaUnit@@KAHPAUlua_State@@@Z ; CvLuaUnit::lCanMoveOrAttackInto
EXTRN	?canMoveOrAttackInto@CvUnit@@QBE_NABVCvPlot@@E@Z:PROC ; CvUnit::canMoveOrAttackInto
; Function compile flags: /Ogtpy
;	COMDAT ?lCanMoveOrAttackInto@CvLuaUnit@@KAHPAUlua_State@@@Z
_TEXT	SEGMENT
_bMoveFlags$ = -8					; size = 1
_pkInstance$225400 = -4					; size = 4
_L$ = 8							; size = 4
?lCanMoveOrAttackInto@CvLuaUnit@@KAHPAUlua_State@@@Z PROC ; CvLuaUnit::lCanMoveOrAttackInto, COMDAT

; 636  : {

	sub	esp, 8
	push	ebx
	push	esi

; 637  : 	CvUnit* pkUnit = GetInstance(L);

	mov	esi, DWORD PTR _L$[esp+12]
	push	edi
	push	esi
	call	_lua_gettop
	push	1
	push	esi
	mov	edi, eax
	mov	bl, 1
	mov	DWORD PTR _pkInstance$225400[esp+32], 0
	call	_lua_type
	add	esp, 12					; 0000000cH
	cmp	eax, 5
	jne	SHORT $LN22@lCanMoveOr
	push	OFFSET $SG224203
	push	1
	push	esi
	call	_lua_getfield
	push	-1
	push	esi
	call	_lua_type
	add	esp, 20					; 00000014H
	cmp	eax, 2
	jne	SHORT $LN22@lCanMoveOr
	push	-1
	push	esi
	call	_lua_touserdata
	add	esp, 8
	mov	DWORD PTR _pkInstance$225400[esp+20], eax
	test	eax, eax
	je	SHORT $LN22@lCanMoveOr
	xor	bl, bl
$LN22@lCanMoveOr:
	push	edi
	push	esi
	call	_lua_settop
	add	esp, 8
	test	bl, bl
	je	SHORT $LN13@lCanMoveOr
	push	OFFSET $SG224209
	push	esi
	call	_luaL_error
	push	OFFSET $SG221232
	push	esi
	call	_luaL_error
	add	esp, 16					; 00000010H
$LN13@lCanMoveOr:
	push	ebp

; 638  : 	CvPlot* pkPlot = CvLuaPlot::GetInstance(L, 2);

	push	esi
	call	_lua_gettop
	push	2
	push	esi
	mov	ebp, eax
	mov	bl, 1
	xor	edi, edi
	call	_lua_type
	add	esp, 12					; 0000000cH
	cmp	eax, 5
	jne	SHORT $LN17@lCanMoveOr
	push	OFFSET $SG224163
	push	2
	push	esi
	call	_lua_getfield
	push	-1
	push	esi
	call	_lua_type
	add	esp, 20					; 00000014H
	cmp	eax, 2
	jne	SHORT $LN17@lCanMoveOr
	push	-1
	push	esi
	call	_lua_touserdata
	mov	edi, eax
	add	esp, 8
	test	edi, edi
	je	SHORT $LN17@lCanMoveOr
	xor	bl, bl
$LN17@lCanMoveOr:
	push	ebp
	push	esi
	call	_lua_settop
	add	esp, 8
	pop	ebp
	test	bl, bl
	je	SHORT $LN16@lCanMoveOr
	push	esi
	call	?HandleMissingInstance@CvLuaPlot@@SAXPAUlua_State@@@Z ; CvLuaPlot::HandleMissingInstance
	add	esp, 4
$LN16@lCanMoveOr:

; 639  : 	const bool bDeclareWar = luaL_optint(L, 3, 0);

	push	0
	push	3
	push	esi
	call	_luaL_optinteger

; 640  : 	const bool bDestination = luaL_optint(L, 4, 0);

	push	0
	test	eax, eax
	push	4
	push	esi
	setne	bl
	call	_luaL_optinteger
	add	esp, 24					; 00000018H
	test	eax, eax
	setne	al

; 641  : 
; 642  : 	byte bMoveFlags = 0;

	mov	BYTE PTR _bMoveFlags$[esp+20], 0

; 643  : 	if(bDeclareWar)

	test	bl, bl
	je	SHORT $LN3@lCanMoveOr

; 644  : 	{
; 645  : 		bMoveFlags |= CvUnit::MOVEFLAG_DECLARE_WAR;

	mov	BYTE PTR _bMoveFlags$[esp+20], 2
$LN3@lCanMoveOr:

; 646  : 	}
; 647  : 	if(bDestination)

	test	al, al
	je	SHORT $LN2@lCanMoveOr

; 648  : 	{
; 649  : 		bMoveFlags |= CvUnit::MOVEFLAG_DESTINATION;

	or	BYTE PTR _bMoveFlags$[esp+20], 4
$LN2@lCanMoveOr:

; 650  : 	}
; 651  : 
; 652  : 	bool bResult = false;
; 653  : 	if(pkPlot)

	test	edi, edi
	je	SHORT $LN1@lCanMoveOr

; 654  : 	{
; 655  : 		pkUnit->canMoveOrAttackInto(*pkPlot, bMoveFlags);

	mov	eax, DWORD PTR _bMoveFlags$[esp+20]
	mov	ecx, DWORD PTR _pkInstance$225400[esp+20]
	push	eax
	push	edi
	call	?canMoveOrAttackInto@CvUnit@@QBE_NABVCvPlot@@E@Z ; CvUnit::canMoveOrAttackInto
$LN1@lCanMoveOr:

; 656  : 	}
; 657  : 
; 658  : 	lua_pushboolean(L, bResult);

	push	0
	push	esi
	call	_lua_pushboolean
	add	esp, 8
	pop	edi
	pop	esi

; 659  : 	return 1;

	mov	eax, 1
	pop	ebx

; 660  : }

	add	esp, 8
	ret	0
?lCanMoveOrAttackInto@CvLuaUnit@@KAHPAUlua_State@@@Z ENDP ; CvLuaUnit::lCanMoveOrAttackInto
_TEXT	ENDS
PUBLIC	?lCanMoveThrough@CvLuaUnit@@KAHPAUlua_State@@@Z	; CvLuaUnit::lCanMoveThrough
EXTRN	?canMoveThrough@CvUnit@@QBE_NABVCvPlot@@E@Z:PROC ; CvUnit::canMoveThrough
; Function compile flags: /Ogtpy
;	COMDAT ?lCanMoveThrough@CvLuaUnit@@KAHPAUlua_State@@@Z
_TEXT	SEGMENT
_pkInstance$225431 = -4					; size = 4
_L$ = 8							; size = 4
?lCanMoveThrough@CvLuaUnit@@KAHPAUlua_State@@@Z PROC	; CvLuaUnit::lCanMoveThrough, COMDAT

; 664  : {

	push	ecx
	push	ebx
	push	ebp
	push	esi

; 665  : 	CvUnit* pkUnit = GetInstance(L);

	mov	esi, DWORD PTR _L$[esp+12]
	push	edi
	push	esi
	call	_lua_gettop
	push	1
	push	esi
	mov	edi, eax
	mov	bl, 1
	mov	DWORD PTR _pkInstance$225431[esp+32], 0
	call	_lua_type
	add	esp, 12					; 0000000cH
	cmp	eax, 5
	jne	SHORT $LN6@lCanMoveTh
	push	OFFSET $SG224203
	push	1
	push	esi
	call	_lua_getfield
	push	-1
	push	esi
	call	_lua_type
	add	esp, 20					; 00000014H
	cmp	eax, 2
	jne	SHORT $LN6@lCanMoveTh
	push	-1
	push	esi
	call	_lua_touserdata
	add	esp, 8
	mov	DWORD PTR _pkInstance$225431[esp+20], eax
	test	eax, eax
	je	SHORT $LN6@lCanMoveTh
	xor	bl, bl
$LN6@lCanMoveTh:
	push	edi
	push	esi
	call	_lua_settop
	add	esp, 8
	test	bl, bl
	je	SHORT $LN11@lCanMoveTh
	push	OFFSET $SG224209
	push	esi
	call	_luaL_error
	push	OFFSET $SG221232
	push	esi
	call	_luaL_error
	add	esp, 16					; 00000010H
$LN11@lCanMoveTh:

; 666  : 	CvPlot* pkPlot = CvLuaPlot::GetInstance(L, 2);

	push	esi
	call	_lua_gettop
	push	2
	push	esi
	mov	ebp, eax
	mov	bl, 1
	xor	edi, edi
	call	_lua_type
	add	esp, 12					; 0000000cH
	cmp	eax, 5
	jne	SHORT $LN15@lCanMoveTh
	push	OFFSET $SG224163
	push	2
	push	esi
	call	_lua_getfield
	push	-1
	push	esi
	call	_lua_type
	add	esp, 20					; 00000014H
	cmp	eax, 2
	jne	SHORT $LN15@lCanMoveTh
	push	-1
	push	esi
	call	_lua_touserdata
	mov	edi, eax
	add	esp, 8
	test	edi, edi
	je	SHORT $LN15@lCanMoveTh
	xor	bl, bl
$LN15@lCanMoveTh:
	push	ebp
	push	esi
	call	_lua_settop
	add	esp, 8
	test	bl, bl
	je	SHORT $LN14@lCanMoveTh
	push	esi
	call	?HandleMissingInstance@CvLuaPlot@@SAXPAUlua_State@@@Z ; CvLuaPlot::HandleMissingInstance
	add	esp, 4
$LN14@lCanMoveTh:

; 667  : 	bool bResult = false;

	xor	al, al

; 668  : 	if(pkPlot)

	test	edi, edi
	je	SHORT $LN1@lCanMoveTh

; 669  : 	{
; 670  : 		bResult = pkUnit->canMoveThrough(*pkPlot);

	mov	ecx, DWORD PTR _pkInstance$225431[esp+20]
	push	0
	push	edi
	call	?canMoveThrough@CvUnit@@QBE_NABVCvPlot@@E@Z ; CvUnit::canMoveThrough
$LN1@lCanMoveTh:

; 671  : 	}
; 672  : 
; 673  : 	lua_pushboolean(L, bResult);

	movzx	eax, al
	push	eax
	push	esi
	call	_lua_pushboolean
	add	esp, 8
	pop	edi
	pop	esi
	pop	ebp

; 674  : 	return 1;

	mov	eax, 1
	pop	ebx

; 675  : }

	pop	ecx
	ret	0
?lCanMoveThrough@CvLuaUnit@@KAHPAUlua_State@@@Z ENDP	; CvLuaUnit::lCanMoveThrough
_TEXT	ENDS
PUBLIC	?lJumpToNearestValidPlot@CvLuaUnit@@KAHPAUlua_State@@@Z ; CvLuaUnit::lJumpToNearestValidPlot
EXTRN	?jumpToNearestValidPlot@CvUnit@@QAE_NXZ:PROC	; CvUnit::jumpToNearestValidPlot
; Function compile flags: /Ogtpy
;	COMDAT ?lJumpToNearestValidPlot@CvLuaUnit@@KAHPAUlua_State@@@Z
_TEXT	SEGMENT
_L$ = 8							; size = 4
?lJumpToNearestValidPlot@CvLuaUnit@@KAHPAUlua_State@@@Z PROC ; CvLuaUnit::lJumpToNearestValidPlot, COMDAT

; 679  : {

	push	ebx
	push	ebp
	push	esi

; 680  : 	CvUnit* pkUnit = GetInstance(L);

	mov	esi, DWORD PTR _L$[esp+8]
	push	edi
	push	esi
	call	_lua_gettop
	push	1
	push	esi
	mov	ebp, eax
	mov	bl, 1
	xor	edi, edi
	call	_lua_type
	add	esp, 12					; 0000000cH
	cmp	eax, 5
	jne	SHORT $LN5@lJumpToNea
	push	OFFSET $SG224203
	push	1
	push	esi
	call	_lua_getfield
	push	-1
	push	esi
	call	_lua_type
	add	esp, 20					; 00000014H
	cmp	eax, 2
	jne	SHORT $LN5@lJumpToNea
	push	-1
	push	esi
	call	_lua_touserdata
	mov	edi, eax
	add	esp, 8
	test	edi, edi
	je	SHORT $LN5@lJumpToNea
	xor	bl, bl
$LN5@lJumpToNea:
	push	ebp
	push	esi
	call	_lua_settop
	add	esp, 8
	test	bl, bl
	je	SHORT $LN10@lJumpToNea
	push	OFFSET $SG224209
	push	esi
	call	_luaL_error
	push	OFFSET $SG221232
	push	esi
	call	_luaL_error
	add	esp, 16					; 00000010H
$LN10@lJumpToNea:

; 681  : 
; 682  : 	bool bResult = pkUnit->jumpToNearestValidPlot();

	mov	ecx, edi
	call	?jumpToNearestValidPlot@CvUnit@@QAE_NXZ	; CvUnit::jumpToNearestValidPlot

; 683  : 	lua_pushboolean(L, bResult);

	movzx	eax, al
	push	eax
	push	esi
	call	_lua_pushboolean
	add	esp, 8
	pop	edi
	pop	esi
	pop	ebp

; 684  : 	return 1;

	mov	eax, 1
	pop	ebx

; 685  : }

	ret	0
?lJumpToNearestValidPlot@CvLuaUnit@@KAHPAUlua_State@@@Z ENDP ; CvLuaUnit::lJumpToNearestValidPlot
_TEXT	ENDS
PUBLIC	?lGetCombatDamage@CvLuaUnit@@KAHPAUlua_State@@@Z ; CvLuaUnit::lGetCombatDamage
EXTRN	?getCombatDamage@CvUnit@@QBEHHHH_N00@Z:PROC	; CvUnit::getCombatDamage
; Function compile flags: /Ogtpy
;	COMDAT ?lGetCombatDamage@CvLuaUnit@@KAHPAUlua_State@@@Z
_TEXT	SEGMENT
_bDefenderIsCity$ = -16					; size = 1
_bAttackerIsCity$ = -12					; size = 1
_bIncludeRand$ = -8					; size = 1
_iCurrentDamage$ = -4					; size = 4
_L$ = 8							; size = 4
?lGetCombatDamage@CvLuaUnit@@KAHPAUlua_State@@@Z PROC	; CvLuaUnit::lGetCombatDamage, COMDAT

; 689  : {

	sub	esp, 16					; 00000010H
	push	ebx
	push	ebp
	push	esi

; 690  : 	CvUnit* pkUnit = GetInstance(L);

	mov	esi, DWORD PTR _L$[esp+24]
	push	edi
	push	esi
	call	_lua_gettop
	push	1
	push	esi
	mov	ebp, eax
	mov	bl, 1
	xor	edi, edi
	call	_lua_type
	add	esp, 12					; 0000000cH
	cmp	eax, 5
	jne	SHORT $LN5@lGetCombat
	push	OFFSET $SG224203
	push	1
	push	esi
	call	_lua_getfield
	push	-1
	push	esi
	call	_lua_type
	add	esp, 20					; 00000014H
	cmp	eax, 2
	jne	SHORT $LN5@lGetCombat
	push	-1
	push	esi
	call	_lua_touserdata
	mov	edi, eax
	add	esp, 8
	test	edi, edi
	je	SHORT $LN5@lGetCombat
	xor	bl, bl
$LN5@lGetCombat:
	push	ebp
	push	esi
	call	_lua_settop
	add	esp, 8
	test	bl, bl
	je	SHORT $LN10@lGetCombat
	push	OFFSET $SG224209
	push	esi
	call	_luaL_error
	push	OFFSET $SG221232
	push	esi
	call	_luaL_error
	add	esp, 16					; 00000010H
$LN10@lGetCombat:

; 691  : 	const int iStrength = lua_tointeger(L, 2);

	push	2
	push	esi
	call	_lua_tointeger

; 692  : 	const int iOpponentStrength = lua_tointeger(L, 3);

	push	3
	push	esi
	mov	ebx, eax
	call	_lua_tointeger

; 693  : 	const int iCurrentDamage = lua_tointeger(L, 4);

	push	4
	push	esi
	mov	ebp, eax
	call	_lua_tointeger

; 694  : 	const bool bIncludeRand = lua_toboolean(L, 5);

	push	5
	push	esi
	mov	DWORD PTR _iCurrentDamage$[esp+64], eax
	call	_lua_toboolean
	test	eax, eax
	setne	al

; 695  : 	const bool bAttackerIsCity = lua_toboolean(L, 6);

	push	6
	push	esi
	mov	BYTE PTR _bIncludeRand$[esp+72], al
	call	_lua_toboolean
	test	eax, eax
	setne	cl

; 696  : 	const bool bDefenderIsCity = lua_toboolean(L, 7);

	push	7
	push	esi
	mov	BYTE PTR _bAttackerIsCity$[esp+80], cl
	call	_lua_toboolean

; 697  : 
; 698  : 	const int iResult = pkUnit->getCombatDamage(iStrength, iOpponentStrength, iCurrentDamage, bIncludeRand, bAttackerIsCity, bDefenderIsCity);

	mov	ecx, DWORD PTR _bAttackerIsCity$[esp+80]
	add	esp, 48					; 00000030H
	test	eax, eax
	setne	dl
	mov	BYTE PTR _bDefenderIsCity$[esp+32], dl
	mov	eax, DWORD PTR _bDefenderIsCity$[esp+32]
	mov	edx, DWORD PTR _bIncludeRand$[esp+32]
	push	eax
	mov	eax, DWORD PTR _iCurrentDamage$[esp+36]
	push	ecx
	push	edx
	push	eax
	push	ebp
	push	ebx
	mov	ecx, edi
	call	?getCombatDamage@CvUnit@@QBEHHHH_N00@Z	; CvUnit::getCombatDamage

; 699  : 	lua_pushinteger(L, iResult);

	push	eax
	push	esi
	call	_lua_pushinteger
	add	esp, 8
	pop	edi
	pop	esi
	pop	ebp

; 700  : 
; 701  : 	return 1;

	mov	eax, 1
	pop	ebx

; 702  : }

	add	esp, 16					; 00000010H
	ret	0
?lGetCombatDamage@CvLuaUnit@@KAHPAUlua_State@@@Z ENDP	; CvLuaUnit::lGetCombatDamage
_TEXT	ENDS
PUBLIC	?lCanAutomate@CvLuaUnit@@KAHPAUlua_State@@@Z	; CvLuaUnit::lCanAutomate
EXTRN	?CanAutomate@CvUnit@@QBE_NW4AutomateTypes@@_N@Z:PROC ; CvUnit::CanAutomate
; Function compile flags: /Ogtpy
;	COMDAT ?lCanAutomate@CvLuaUnit@@KAHPAUlua_State@@@Z
_TEXT	SEGMENT
_L$ = 8							; size = 4
?lCanAutomate@CvLuaUnit@@KAHPAUlua_State@@@Z PROC	; CvLuaUnit::lCanAutomate, COMDAT

; 720  : {

	push	ebx
	push	ebp
	push	esi

; 721  : 	CvUnit* pkUnit = GetInstance(L);

	mov	esi, DWORD PTR _L$[esp+8]
	push	edi
	push	esi
	call	_lua_gettop
	push	1
	push	esi
	mov	ebp, eax
	mov	bl, 1
	xor	edi, edi
	call	_lua_type
	add	esp, 12					; 0000000cH
	cmp	eax, 5
	jne	SHORT $LN5@lCanAutoma
	push	OFFSET $SG224203
	push	1
	push	esi
	call	_lua_getfield
	push	-1
	push	esi
	call	_lua_type
	add	esp, 20					; 00000014H
	cmp	eax, 2
	jne	SHORT $LN5@lCanAutoma
	push	-1
	push	esi
	call	_lua_touserdata
	mov	edi, eax
	add	esp, 8
	test	edi, edi
	je	SHORT $LN5@lCanAutoma
	xor	bl, bl
$LN5@lCanAutoma:
	push	ebp
	push	esi
	call	_lua_settop
	add	esp, 8
	test	bl, bl
	je	SHORT $LN10@lCanAutoma
	push	OFFSET $SG224209
	push	esi
	call	_luaL_error
	push	OFFSET $SG221232
	push	esi
	call	_luaL_error
	add	esp, 16					; 00000010H
$LN10@lCanAutoma:

; 722  : 	const AutomateTypes eAutomate = (AutomateTypes)lua_tointeger(L, 2);

	push	2
	push	esi
	call	_lua_tointeger
	add	esp, 8

; 723  : 	const bool bResult = pkUnit->CanAutomate(eAutomate);

	push	0
	push	eax
	mov	ecx, edi
	call	?CanAutomate@CvUnit@@QBE_NW4AutomateTypes@@_N@Z ; CvUnit::CanAutomate

; 724  : 
; 725  : 	lua_pushboolean(L, bResult);

	movzx	eax, al
	push	eax
	push	esi
	call	_lua_pushboolean
	add	esp, 8
	pop	edi
	pop	esi
	pop	ebp

; 726  : 	return 1;

	mov	eax, 1
	pop	ebx

; 727  : }

	ret	0
?lCanAutomate@CvLuaUnit@@KAHPAUlua_State@@@Z ENDP	; CvLuaUnit::lCanAutomate
_TEXT	ENDS
PUBLIC	?lCanRebaseAt@CvLuaUnit@@KAHPAUlua_State@@@Z	; CvLuaUnit::lCanRebaseAt
EXTRN	?canRebaseAt@CvUnit@@QBE_NPBVCvPlot@@HH@Z:PROC	; CvUnit::canRebaseAt
; Function compile flags: /Ogtpy
;	COMDAT ?lCanRebaseAt@CvLuaUnit@@KAHPAUlua_State@@@Z
_TEXT	SEGMENT
_pkInstance$225518 = -4					; size = 4
_L$ = 8							; size = 4
?lCanRebaseAt@CvLuaUnit@@KAHPAUlua_State@@@Z PROC	; CvLuaUnit::lCanRebaseAt, COMDAT

; 731  : {

	push	ecx
	push	ebx
	push	esi

; 732  : 	CvUnit* pkUnit = GetInstance(L);

	mov	esi, DWORD PTR _L$[esp+8]
	push	edi
	push	esi
	call	_lua_gettop
	push	1
	push	esi
	mov	edi, eax
	mov	bl, 1
	mov	DWORD PTR _pkInstance$225518[esp+28], 0
	call	_lua_type
	add	esp, 12					; 0000000cH
	cmp	eax, 5
	jne	SHORT $LN5@lCanRebase
	push	OFFSET $SG224203
	push	1
	push	esi
	call	_lua_getfield
	push	-1
	push	esi
	call	_lua_type
	add	esp, 20					; 00000014H
	cmp	eax, 2
	jne	SHORT $LN5@lCanRebase
	push	-1
	push	esi
	call	_lua_touserdata
	add	esp, 8
	mov	DWORD PTR _pkInstance$225518[esp+16], eax
	test	eax, eax
	je	SHORT $LN5@lCanRebase
	xor	bl, bl
$LN5@lCanRebase:
	push	edi
	push	esi
	call	_lua_settop
	add	esp, 8
	test	bl, bl
	je	SHORT $LN10@lCanRebase
	push	OFFSET $SG224209
	push	esi
	call	_luaL_error
	push	OFFSET $SG221232
	push	esi
	call	_luaL_error
	add	esp, 16					; 00000010H
$LN10@lCanRebase:
	push	ebp

; 733  : 	CvPlot* pkPlot = CvLuaPlot::GetInstance(L, 2);

	push	esi
	call	_lua_gettop
	push	2
	push	esi
	mov	ebp, eax
	mov	bl, 1
	xor	edi, edi
	call	_lua_type
	add	esp, 12					; 0000000cH
	cmp	eax, 5
	jne	SHORT $LN14@lCanRebase
	push	OFFSET $SG224163
	push	2
	push	esi
	call	_lua_getfield
	push	-1
	push	esi
	call	_lua_type
	add	esp, 20					; 00000014H
	cmp	eax, 2
	jne	SHORT $LN14@lCanRebase
	push	-1
	push	esi
	call	_lua_touserdata
	mov	edi, eax
	add	esp, 8
	test	edi, edi
	je	SHORT $LN14@lCanRebase
	xor	bl, bl
$LN14@lCanRebase:
	push	ebp
	push	esi
	call	_lua_settop
	add	esp, 8
	pop	ebp
	test	bl, bl
	je	SHORT $LN13@lCanRebase
	push	esi
	call	?HandleMissingInstance@CvLuaPlot@@SAXPAUlua_State@@@Z ; CvLuaPlot::HandleMissingInstance
	add	esp, 4
$LN13@lCanRebase:

; 734  : 	const int iX = lua_tointeger(L, 3);

	push	3
	push	esi
	call	_lua_tointeger

; 735  : 	const int iY = lua_tointeger(L, 4);

	push	4
	push	esi
	mov	ebx, eax
	call	_lua_tointeger

; 736  : 	const bool bResult = pkUnit->canRebaseAt(pkPlot,iX,iY);

	mov	ecx, DWORD PTR _pkInstance$225518[esp+32]
	add	esp, 16					; 00000010H
	push	eax
	push	ebx
	push	edi
	call	?canRebaseAt@CvUnit@@QBE_NPBVCvPlot@@HH@Z ; CvUnit::canRebaseAt

; 737  : 
; 738  : 	lua_pushboolean(L, bResult);

	movzx	eax, al
	push	eax
	push	esi
	call	_lua_pushboolean
	add	esp, 8
	pop	edi
	pop	esi

; 739  : 	return 1;

	mov	eax, 1
	pop	ebx

; 740  : }

	pop	ecx
	ret	0
?lCanRebaseAt@CvLuaUnit@@KAHPAUlua_State@@@Z ENDP	; CvLuaUnit::lCanRebaseAt
_TEXT	ENDS
PUBLIC	?lCanScrap@CvLuaUnit@@KAHPAUlua_State@@@Z	; CvLuaUnit::lCanScrap
EXTRN	?canScrap@CvUnit@@QBE_N_N@Z:PROC		; CvUnit::canScrap
; Function compile flags: /Ogtpy
;	COMDAT ?lCanScrap@CvLuaUnit@@KAHPAUlua_State@@@Z
_TEXT	SEGMENT
_L$ = 8							; size = 4
?lCanScrap@CvLuaUnit@@KAHPAUlua_State@@@Z PROC		; CvLuaUnit::lCanScrap, COMDAT

; 744  : {

	push	ebx
	push	ebp
	push	esi

; 745  : 	CvUnit* pkUnit = GetInstance(L);

	mov	esi, DWORD PTR _L$[esp+8]
	push	edi
	push	esi
	call	_lua_gettop
	push	1
	push	esi
	mov	ebp, eax
	mov	bl, 1
	xor	edi, edi
	call	_lua_type
	add	esp, 12					; 0000000cH
	cmp	eax, 5
	jne	SHORT $LN5@lCanScrap
	push	OFFSET $SG224203
	push	1
	push	esi
	call	_lua_getfield
	push	-1
	push	esi
	call	_lua_type
	add	esp, 20					; 00000014H
	cmp	eax, 2
	jne	SHORT $LN5@lCanScrap
	push	-1
	push	esi
	call	_lua_touserdata
	mov	edi, eax
	add	esp, 8
	test	edi, edi
	je	SHORT $LN5@lCanScrap
	xor	bl, bl
$LN5@lCanScrap:
	push	ebp
	push	esi
	call	_lua_settop
	add	esp, 8
	test	bl, bl
	je	SHORT $LN10@lCanScrap
	push	OFFSET $SG224209
	push	esi
	call	_luaL_error
	push	OFFSET $SG221232
	push	esi
	call	_luaL_error
	add	esp, 16					; 00000010H
$LN10@lCanScrap:

; 746  : 	const bool bResult = pkUnit->canScrap();

	push	0
	mov	ecx, edi
	call	?canScrap@CvUnit@@QBE_N_N@Z		; CvUnit::canScrap

; 747  : 
; 748  : 	lua_pushboolean(L, bResult);

	movzx	eax, al
	push	eax
	push	esi
	call	_lua_pushboolean
	add	esp, 8
	pop	edi
	pop	esi
	pop	ebp

; 749  : 	return 1;

	mov	eax, 1
	pop	ebx

; 750  : }

	ret	0
?lCanScrap@CvLuaUnit@@KAHPAUlua_State@@@Z ENDP		; CvLuaUnit::lCanScrap
_TEXT	ENDS
PUBLIC	?lGetScrapGold@CvLuaUnit@@KAHPAUlua_State@@@Z	; CvLuaUnit::lGetScrapGold
EXTRN	?GetScrapGold@CvUnit@@QBEHXZ:PROC		; CvUnit::GetScrapGold
; Function compile flags: /Ogtpy
;	COMDAT ?lGetScrapGold@CvLuaUnit@@KAHPAUlua_State@@@Z
_TEXT	SEGMENT
_L$ = 8							; size = 4
?lGetScrapGold@CvLuaUnit@@KAHPAUlua_State@@@Z PROC	; CvLuaUnit::lGetScrapGold, COMDAT

; 754  : {

	push	ebx
	push	ebp
	push	esi

; 755  : 	CvUnit* pkUnit = GetInstance(L);

	mov	esi, DWORD PTR _L$[esp+8]
	push	edi
	push	esi
	call	_lua_gettop
	push	1
	push	esi
	mov	ebp, eax
	mov	bl, 1
	xor	edi, edi
	call	_lua_type
	add	esp, 12					; 0000000cH
	cmp	eax, 5
	jne	SHORT $LN5@lGetScrapG
	push	OFFSET $SG224203
	push	1
	push	esi
	call	_lua_getfield
	push	-1
	push	esi
	call	_lua_type
	add	esp, 20					; 00000014H
	cmp	eax, 2
	jne	SHORT $LN5@lGetScrapG
	push	-1
	push	esi
	call	_lua_touserdata
	mov	edi, eax
	add	esp, 8
	test	edi, edi
	je	SHORT $LN5@lGetScrapG
	xor	bl, bl
$LN5@lGetScrapG:
	push	ebp
	push	esi
	call	_lua_settop
	add	esp, 8
	test	bl, bl
	je	SHORT $LN10@lGetScrapG
	push	OFFSET $SG224209
	push	esi
	call	_luaL_error
	push	OFFSET $SG221232
	push	esi
	call	_luaL_error
	add	esp, 16					; 00000010H
$LN10@lGetScrapG:

; 756  : 	const int iResult = pkUnit->GetScrapGold();

	mov	ecx, edi
	call	?GetScrapGold@CvUnit@@QBEHXZ		; CvUnit::GetScrapGold

; 757  : 
; 758  : 	lua_pushinteger(L, iResult);

	push	eax
	push	esi
	call	_lua_pushinteger
	add	esp, 8
	pop	edi
	pop	esi
	pop	ebp

; 759  : 	return 1;

	mov	eax, 1
	pop	ebx

; 760  : }

	ret	0
?lGetScrapGold@CvLuaUnit@@KAHPAUlua_State@@@Z ENDP	; CvLuaUnit::lGetScrapGold
_TEXT	ENDS
PUBLIC	?lCanGift@CvLuaUnit@@KAHPAUlua_State@@@Z	; CvLuaUnit::lCanGift
EXTRN	?canGift@CvUnit@@QBE_N_N0@Z:PROC		; CvUnit::canGift
; Function compile flags: /Ogtpy
;	COMDAT ?lCanGift@CvLuaUnit@@KAHPAUlua_State@@@Z
_TEXT	SEGMENT
_bTestTransport$ = -8					; size = 1
_bTestVisible$ = -4					; size = 1
_L$ = 8							; size = 4
?lCanGift@CvLuaUnit@@KAHPAUlua_State@@@Z PROC		; CvLuaUnit::lCanGift, COMDAT

; 764  : {

	sub	esp, 8
	push	ebx
	push	ebp
	push	esi

; 765  : 	CvUnit* pkUnit = GetInstance(L);

	mov	esi, DWORD PTR _L$[esp+16]
	push	edi
	push	esi
	call	_lua_gettop
	push	1
	push	esi
	mov	ebp, eax
	mov	bl, 1
	xor	edi, edi
	call	_lua_type
	add	esp, 12					; 0000000cH
	cmp	eax, 5
	jne	SHORT $LN5@lCanGift
	push	OFFSET $SG224203
	push	1
	push	esi
	call	_lua_getfield
	push	-1
	push	esi
	call	_lua_type
	add	esp, 20					; 00000014H
	cmp	eax, 2
	jne	SHORT $LN5@lCanGift
	push	-1
	push	esi
	call	_lua_touserdata
	mov	edi, eax
	add	esp, 8
	test	edi, edi
	je	SHORT $LN5@lCanGift
	xor	bl, bl
$LN5@lCanGift:
	push	ebp
	push	esi
	call	_lua_settop
	add	esp, 8
	test	bl, bl
	je	SHORT $LN10@lCanGift
	push	OFFSET $SG224209
	push	esi
	call	_luaL_error
	push	OFFSET $SG221232
	push	esi
	call	_luaL_error
	add	esp, 16					; 00000010H
$LN10@lCanGift:

; 766  : 	const bool bTestVisible = luaL_optint(L, 2, 0);

	push	0
	push	2
	push	esi
	call	_luaL_optinteger

; 767  : 	const bool bTestTransport = luaL_optint(L, 3, 0);

	push	0
	test	eax, eax
	setne	al
	push	3
	push	esi
	mov	BYTE PTR _bTestVisible$[esp+48], al
	call	_luaL_optinteger
	add	esp, 24					; 00000018H
	test	eax, eax

; 768  : 	const bool bResult = pkUnit->canGift(bTestVisible, bTestTransport);

	mov	eax, DWORD PTR _bTestVisible$[esp+24]
	setne	cl
	mov	BYTE PTR _bTestTransport$[esp+24], cl
	mov	edx, DWORD PTR _bTestTransport$[esp+24]
	push	edx
	push	eax
	mov	ecx, edi
	call	?canGift@CvUnit@@QBE_N_N0@Z		; CvUnit::canGift

; 769  : 
; 770  : 	lua_pushboolean(L, bResult);

	movzx	ecx, al
	push	ecx
	push	esi
	call	_lua_pushboolean
	add	esp, 8
	pop	edi
	pop	esi
	pop	ebp

; 771  : 	return 1;

	mov	eax, 1
	pop	ebx

; 772  : }

	add	esp, 8
	ret	0
?lCanGift@CvLuaUnit@@KAHPAUlua_State@@@Z ENDP		; CvLuaUnit::lCanGift
_TEXT	ENDS
PUBLIC	?lCanDistanceGift@CvLuaUnit@@KAHPAUlua_State@@@Z ; CvLuaUnit::lCanDistanceGift
EXTRN	?CanDistanceGift@CvUnit@@QBE_NW4PlayerTypes@@@Z:PROC ; CvUnit::CanDistanceGift
; Function compile flags: /Ogtpy
;	COMDAT ?lCanDistanceGift@CvLuaUnit@@KAHPAUlua_State@@@Z
_TEXT	SEGMENT
_L$ = 8							; size = 4
?lCanDistanceGift@CvLuaUnit@@KAHPAUlua_State@@@Z PROC	; CvLuaUnit::lCanDistanceGift, COMDAT

; 776  : {

	push	ebx
	push	ebp
	push	esi

; 777  : 	CvUnit* pkUnit = GetInstance(L);

	mov	esi, DWORD PTR _L$[esp+8]
	push	edi
	push	esi
	call	_lua_gettop
	push	1
	push	esi
	mov	ebp, eax
	mov	bl, 1
	xor	edi, edi
	call	_lua_type
	add	esp, 12					; 0000000cH
	cmp	eax, 5
	jne	SHORT $LN5@lCanDistan
	push	OFFSET $SG224203
	push	1
	push	esi
	call	_lua_getfield
	push	-1
	push	esi
	call	_lua_type
	add	esp, 20					; 00000014H
	cmp	eax, 2
	jne	SHORT $LN5@lCanDistan
	push	-1
	push	esi
	call	_lua_touserdata
	mov	edi, eax
	add	esp, 8
	test	edi, edi
	je	SHORT $LN5@lCanDistan
	xor	bl, bl
$LN5@lCanDistan:
	push	ebp
	push	esi
	call	_lua_settop
	add	esp, 8
	test	bl, bl
	je	SHORT $LN10@lCanDistan
	push	OFFSET $SG224209
	push	esi
	call	_luaL_error
	push	OFFSET $SG221232
	push	esi
	call	_luaL_error
	add	esp, 16					; 00000010H
$LN10@lCanDistan:

; 778  : 	const PlayerTypes eToPlayer = (PlayerTypes) lua_tointeger(L, 2);

	push	2
	push	esi
	call	_lua_tointeger
	add	esp, 8

; 779  : 	const bool bResult = pkUnit->CanDistanceGift(eToPlayer);

	push	eax
	mov	ecx, edi
	call	?CanDistanceGift@CvUnit@@QBE_NW4PlayerTypes@@@Z ; CvUnit::CanDistanceGift

; 780  : 
; 781  : 	lua_pushboolean(L, bResult);

	movzx	eax, al
	push	eax
	push	esi
	call	_lua_pushboolean
	add	esp, 8
	pop	edi
	pop	esi
	pop	ebp

; 782  : 	return 1;

	mov	eax, 1
	pop	ebx

; 783  : }

	ret	0
?lCanDistanceGift@CvLuaUnit@@KAHPAUlua_State@@@Z ENDP	; CvLuaUnit::lCanDistanceGift
_TEXT	ENDS
PUBLIC	?lCanLoadUnit@CvLuaUnit@@KAHPAUlua_State@@@Z	; CvLuaUnit::lCanLoadUnit
EXTRN	?canLoadUnit@CvUnit@@QBE_NABV1@ABVCvPlot@@@Z:PROC ; CvUnit::canLoadUnit
; Function compile flags: /Ogtpy
;	COMDAT ?lCanLoadUnit@CvLuaUnit@@KAHPAUlua_State@@@Z
_TEXT	SEGMENT
_pkInstance$225624 = -8					; size = 4
_pkInstance$225640 = -4					; size = 4
_L$ = 8							; size = 4
?lCanLoadUnit@CvLuaUnit@@KAHPAUlua_State@@@Z PROC	; CvLuaUnit::lCanLoadUnit, COMDAT

; 787  : {

	sub	esp, 8
	push	ebx
	push	ebp
	push	esi

; 788  : 	CvUnit* pkUnit = GetInstance(L);

	mov	esi, DWORD PTR _L$[esp+16]
	push	edi
	push	esi
	call	_lua_gettop
	push	1
	xor	ebp, ebp
	push	esi
	mov	edi, eax
	mov	bl, 1
	mov	DWORD PTR _pkInstance$225624[esp+36], ebp
	call	_lua_type
	add	esp, 12					; 0000000cH
	cmp	eax, 5
	jne	SHORT $LN29@lCanLoadUn
	push	OFFSET $SG224203
	push	1
	push	esi
	call	_lua_getfield
	push	-1
	push	esi
	call	_lua_type
	add	esp, 20					; 00000014H
	cmp	eax, 2
	jne	SHORT $LN29@lCanLoadUn
	push	-1
	push	esi
	call	_lua_touserdata
	add	esp, 8
	mov	DWORD PTR _pkInstance$225624[esp+24], eax
	cmp	eax, ebp
	je	SHORT $LN29@lCanLoadUn
	xor	bl, bl
$LN29@lCanLoadUn:
	push	edi
	push	esi
	call	_lua_settop
	add	esp, 8
	test	bl, bl
	je	SHORT $LN11@lCanLoadUn
	push	OFFSET $SG224209
	push	esi
	call	_luaL_error
	push	OFFSET $SG221232
	push	esi
	call	_luaL_error
	add	esp, 16					; 00000010H
$LN11@lCanLoadUn:

; 789  : 	CvUnit* pkLoadUnit = GetInstance(L, 2);

	push	esi
	call	_lua_gettop
	push	2
	push	esi
	mov	edi, eax
	mov	bl, 1
	mov	DWORD PTR _pkInstance$225640[esp+36], ebp
	call	_lua_type
	add	esp, 12					; 0000000cH
	cmp	eax, 5
	jne	SHORT $LN15@lCanLoadUn
	push	OFFSET $SG224203
	push	2
	push	esi
	call	_lua_getfield
	push	-1
	push	esi
	call	_lua_type
	add	esp, 20					; 00000014H
	cmp	eax, 2
	jne	SHORT $LN15@lCanLoadUn
	push	-1
	push	esi
	call	_lua_touserdata
	add	esp, 8
	mov	DWORD PTR _pkInstance$225640[esp+24], eax
	cmp	eax, ebp
	je	SHORT $LN15@lCanLoadUn
	xor	bl, bl
$LN15@lCanLoadUn:
	push	edi
	push	esi
	call	_lua_settop
	add	esp, 8
	test	bl, bl
	je	SHORT $LN20@lCanLoadUn
	push	OFFSET $SG221232
	push	esi
	call	_luaL_error
	add	esp, 8
$LN20@lCanLoadUn:

; 790  : 	CvPlot* pkPlot = CvLuaPlot::GetInstance(L, 3);

	push	esi
	call	_lua_gettop
	push	3
	push	esi
	mov	ebp, eax
	mov	bl, 1
	xor	edi, edi
	call	_lua_type
	add	esp, 12					; 0000000cH
	cmp	eax, 5
	jne	SHORT $LN24@lCanLoadUn
	push	OFFSET $SG224163
	push	3
	push	esi
	call	_lua_getfield
	push	-1
	push	esi
	call	_lua_type
	add	esp, 20					; 00000014H
	cmp	eax, 2
	jne	SHORT $LN24@lCanLoadUn
	push	-1
	push	esi
	call	_lua_touserdata
	mov	edi, eax
	add	esp, 8
	test	edi, edi
	je	SHORT $LN24@lCanLoadUn
	xor	bl, bl
$LN24@lCanLoadUn:
	push	ebp
	push	esi
	call	_lua_settop
	add	esp, 8
	test	bl, bl
	je	SHORT $LN23@lCanLoadUn
	push	esi
	call	?HandleMissingInstance@CvLuaPlot@@SAXPAUlua_State@@@Z ; CvLuaPlot::HandleMissingInstance
	add	esp, 4
$LN23@lCanLoadUn:

; 791  : 	bool bResult = false;

	xor	al, al

; 792  : 	if(pkPlot && pkUnit)

	test	edi, edi
	je	SHORT $LN1@lCanLoadUn
	mov	ecx, DWORD PTR _pkInstance$225624[esp+24]
	test	ecx, ecx
	je	SHORT $LN1@lCanLoadUn

; 793  : 	{
; 794  : 		bResult = pkUnit->canLoadUnit(*pkLoadUnit, *pkPlot);

	mov	eax, DWORD PTR _pkInstance$225640[esp+24]
	push	edi
	push	eax
	call	?canLoadUnit@CvUnit@@QBE_NABV1@ABVCvPlot@@@Z ; CvUnit::canLoadUnit
$LN1@lCanLoadUn:

; 795  : 	}
; 796  : 
; 797  : 	lua_pushboolean(L, bResult);

	movzx	ecx, al
	push	ecx
	push	esi
	call	_lua_pushboolean
	add	esp, 8
	pop	edi
	pop	esi
	pop	ebp

; 798  : 	return 1;

	mov	eax, 1
	pop	ebx

; 799  : }

	add	esp, 8
	ret	0
?lCanLoadUnit@CvLuaUnit@@KAHPAUlua_State@@@Z ENDP	; CvLuaUnit::lCanLoadUnit
_TEXT	ENDS
PUBLIC	?lCanLoad@CvLuaUnit@@KAHPAUlua_State@@@Z	; CvLuaUnit::lCanLoad
EXTRN	?canLoad@CvUnit@@QBE_NABVCvPlot@@@Z:PROC	; CvUnit::canLoad
; Function compile flags: /Ogtpy
;	COMDAT ?lCanLoad@CvLuaUnit@@KAHPAUlua_State@@@Z
_TEXT	SEGMENT
_pkInstance$225671 = -4					; size = 4
_L$ = 8							; size = 4
?lCanLoad@CvLuaUnit@@KAHPAUlua_State@@@Z PROC		; CvLuaUnit::lCanLoad, COMDAT

; 803  : {

	push	ecx
	push	ebx
	push	ebp
	push	esi

; 804  : 	CvUnit* pkUnit = GetInstance(L);

	mov	esi, DWORD PTR _L$[esp+12]
	push	edi
	push	esi
	call	_lua_gettop
	push	1
	push	esi
	mov	edi, eax
	mov	bl, 1
	mov	DWORD PTR _pkInstance$225671[esp+32], 0
	call	_lua_type
	add	esp, 12					; 0000000cH
	cmp	eax, 5
	jne	SHORT $LN6@lCanLoad
	push	OFFSET $SG224203
	push	1
	push	esi
	call	_lua_getfield
	push	-1
	push	esi
	call	_lua_type
	add	esp, 20					; 00000014H
	cmp	eax, 2
	jne	SHORT $LN6@lCanLoad
	push	-1
	push	esi
	call	_lua_touserdata
	add	esp, 8
	mov	DWORD PTR _pkInstance$225671[esp+20], eax
	test	eax, eax
	je	SHORT $LN6@lCanLoad
	xor	bl, bl
$LN6@lCanLoad:
	push	edi
	push	esi
	call	_lua_settop
	add	esp, 8
	test	bl, bl
	je	SHORT $LN11@lCanLoad
	push	OFFSET $SG224209
	push	esi
	call	_luaL_error
	push	OFFSET $SG221232
	push	esi
	call	_luaL_error
	add	esp, 16					; 00000010H
$LN11@lCanLoad:

; 805  : 	CvPlot* pkPlot = CvLuaPlot::GetInstance(L, 2);

	push	esi
	call	_lua_gettop
	push	2
	push	esi
	mov	ebp, eax
	mov	bl, 1
	xor	edi, edi
	call	_lua_type
	add	esp, 12					; 0000000cH
	cmp	eax, 5
	jne	SHORT $LN15@lCanLoad
	push	OFFSET $SG224163
	push	2
	push	esi
	call	_lua_getfield
	push	-1
	push	esi
	call	_lua_type
	add	esp, 20					; 00000014H
	cmp	eax, 2
	jne	SHORT $LN15@lCanLoad
	push	-1
	push	esi
	call	_lua_touserdata
	mov	edi, eax
	add	esp, 8
	test	edi, edi
	je	SHORT $LN15@lCanLoad
	xor	bl, bl
$LN15@lCanLoad:
	push	ebp
	push	esi
	call	_lua_settop
	add	esp, 8
	test	bl, bl
	je	SHORT $LN14@lCanLoad
	push	esi
	call	?HandleMissingInstance@CvLuaPlot@@SAXPAUlua_State@@@Z ; CvLuaPlot::HandleMissingInstance
	add	esp, 4
$LN14@lCanLoad:

; 806  : 
; 807  : 	bool bResult = false;

	xor	al, al

; 808  : 	if(pkPlot)

	test	edi, edi
	je	SHORT $LN1@lCanLoad

; 809  : 	{
; 810  : 		bResult = pkUnit->canLoad(*pkPlot);

	mov	ecx, DWORD PTR _pkInstance$225671[esp+20]
	push	edi
	call	?canLoad@CvUnit@@QBE_NABVCvPlot@@@Z	; CvUnit::canLoad
$LN1@lCanLoad:

; 811  : 	}
; 812  : 	lua_pushboolean(L, bResult);

	movzx	eax, al
	push	eax
	push	esi
	call	_lua_pushboolean
	add	esp, 8
	pop	edi
	pop	esi
	pop	ebp

; 813  : 	return 1;

	mov	eax, 1
	pop	ebx

; 814  : }

	pop	ecx
	ret	0
?lCanLoad@CvLuaUnit@@KAHPAUlua_State@@@Z ENDP		; CvLuaUnit::lCanLoad
_TEXT	ENDS
PUBLIC	?lCanUnload@CvLuaUnit@@KAHPAUlua_State@@@Z	; CvLuaUnit::lCanUnload
EXTRN	?canUnload@CvUnit@@QBE_NXZ:PROC			; CvUnit::canUnload
; Function compile flags: /Ogtpy
;	COMDAT ?lCanUnload@CvLuaUnit@@KAHPAUlua_State@@@Z
_TEXT	SEGMENT
_L$ = 8							; size = 4
?lCanUnload@CvLuaUnit@@KAHPAUlua_State@@@Z PROC		; CvLuaUnit::lCanUnload, COMDAT

; 818  : {

	push	ebx
	push	ebp
	push	esi

; 819  : 	CvUnit* pkUnit = GetInstance(L);

	mov	esi, DWORD PTR _L$[esp+8]
	push	edi
	push	esi
	call	_lua_gettop
	push	1
	push	esi
	mov	ebp, eax
	mov	bl, 1
	xor	edi, edi
	call	_lua_type
	add	esp, 12					; 0000000cH
	cmp	eax, 5
	jne	SHORT $LN5@lCanUnload
	push	OFFSET $SG224203
	push	1
	push	esi
	call	_lua_getfield
	push	-1
	push	esi
	call	_lua_type
	add	esp, 20					; 00000014H
	cmp	eax, 2
	jne	SHORT $LN5@lCanUnload
	push	-1
	push	esi
	call	_lua_touserdata
	mov	edi, eax
	add	esp, 8
	test	edi, edi
	je	SHORT $LN5@lCanUnload
	xor	bl, bl
$LN5@lCanUnload:
	push	ebp
	push	esi
	call	_lua_settop
	add	esp, 8
	test	bl, bl
	je	SHORT $LN10@lCanUnload
	push	OFFSET $SG224209
	push	esi
	call	_luaL_error
	push	OFFSET $SG221232
	push	esi
	call	_luaL_error
	add	esp, 16					; 00000010H
$LN10@lCanUnload:

; 820  : 	const bool bResult = pkUnit->canUnload();

	mov	ecx, edi
	call	?canUnload@CvUnit@@QBE_NXZ		; CvUnit::canUnload

; 821  : 
; 822  : 	lua_pushboolean(L, bResult);

	movzx	eax, al
	push	eax
	push	esi
	call	_lua_pushboolean
	add	esp, 8
	pop	edi
	pop	esi
	pop	ebp

; 823  : 	return 1;

	mov	eax, 1
	pop	ebx

; 824  : }

	ret	0
?lCanUnload@CvLuaUnit@@KAHPAUlua_State@@@Z ENDP		; CvLuaUnit::lCanUnload
_TEXT	ENDS
PUBLIC	?lCanUnloadAll@CvLuaUnit@@KAHPAUlua_State@@@Z	; CvLuaUnit::lCanUnloadAll
EXTRN	?canUnloadAll@CvUnit@@QBE_NXZ:PROC		; CvUnit::canUnloadAll
; Function compile flags: /Ogtpy
;	COMDAT ?lCanUnloadAll@CvLuaUnit@@KAHPAUlua_State@@@Z
_TEXT	SEGMENT
_L$ = 8							; size = 4
?lCanUnloadAll@CvLuaUnit@@KAHPAUlua_State@@@Z PROC	; CvLuaUnit::lCanUnloadAll, COMDAT

; 828  : {

	push	ebx
	push	ebp
	push	esi

; 829  : 	CvUnit* pkUnit = GetInstance(L);

	mov	esi, DWORD PTR _L$[esp+8]
	push	edi
	push	esi
	call	_lua_gettop
	push	1
	push	esi
	mov	ebp, eax
	mov	bl, 1
	xor	edi, edi
	call	_lua_type
	add	esp, 12					; 0000000cH
	cmp	eax, 5
	jne	SHORT $LN5@lCanUnload@2
	push	OFFSET $SG224203
	push	1
	push	esi
	call	_lua_getfield
	push	-1
	push	esi
	call	_lua_type
	add	esp, 20					; 00000014H
	cmp	eax, 2
	jne	SHORT $LN5@lCanUnload@2
	push	-1
	push	esi
	call	_lua_touserdata
	mov	edi, eax
	add	esp, 8
	test	edi, edi
	je	SHORT $LN5@lCanUnload@2
	xor	bl, bl
$LN5@lCanUnload@2:
	push	ebp
	push	esi
	call	_lua_settop
	add	esp, 8
	test	bl, bl
	je	SHORT $LN10@lCanUnload@2
	push	OFFSET $SG224209
	push	esi
	call	_luaL_error
	push	OFFSET $SG221232
	push	esi
	call	_luaL_error
	add	esp, 16					; 00000010H
$LN10@lCanUnload@2:

; 830  : 	const bool bResult = pkUnit->canUnloadAll();

	mov	ecx, edi
	call	?canUnloadAll@CvUnit@@QBE_NXZ		; CvUnit::canUnloadAll

; 831  : 
; 832  : 	lua_pushboolean(L, bResult);

	movzx	eax, al
	push	eax
	push	esi
	call	_lua_pushboolean
	add	esp, 8
	pop	edi
	pop	esi
	pop	ebp

; 833  : 	return 1;

	mov	eax, 1
	pop	ebx

; 834  : }

	ret	0
?lCanUnloadAll@CvLuaUnit@@KAHPAUlua_State@@@Z ENDP	; CvLuaUnit::lCanUnloadAll
_TEXT	ENDS
PUBLIC	?lCanHold@CvLuaUnit@@KAHPAUlua_State@@@Z	; CvLuaUnit::lCanHold
EXTRN	?canHold@CvUnit@@QBE_NPBVCvPlot@@@Z:PROC	; CvUnit::canHold
; Function compile flags: /Ogtpy
;	COMDAT ?lCanHold@CvLuaUnit@@KAHPAUlua_State@@@Z
_TEXT	SEGMENT
_pkInstance$225739 = -4					; size = 4
_L$ = 8							; size = 4
?lCanHold@CvLuaUnit@@KAHPAUlua_State@@@Z PROC		; CvLuaUnit::lCanHold, COMDAT

; 838  : {

	push	ecx
	push	ebx
	push	ebp
	push	esi

; 839  : 	CvUnit* pkUnit = GetInstance(L);

	mov	esi, DWORD PTR _L$[esp+12]
	push	edi
	push	esi
	call	_lua_gettop
	push	1
	push	esi
	mov	edi, eax
	mov	bl, 1
	mov	DWORD PTR _pkInstance$225739[esp+32], 0
	call	_lua_type
	add	esp, 12					; 0000000cH
	cmp	eax, 5
	jne	SHORT $LN5@lCanHold@2
	push	OFFSET $SG224203
	push	1
	push	esi
	call	_lua_getfield
	push	-1
	push	esi
	call	_lua_type
	add	esp, 20					; 00000014H
	cmp	eax, 2
	jne	SHORT $LN5@lCanHold@2
	push	-1
	push	esi
	call	_lua_touserdata
	add	esp, 8
	mov	DWORD PTR _pkInstance$225739[esp+20], eax
	test	eax, eax
	je	SHORT $LN5@lCanHold@2
	xor	bl, bl
$LN5@lCanHold@2:
	push	edi
	push	esi
	call	_lua_settop
	add	esp, 8
	test	bl, bl
	je	SHORT $LN10@lCanHold@2
	push	OFFSET $SG224209
	push	esi
	call	_luaL_error
	push	OFFSET $SG221232
	push	esi
	call	_luaL_error
	add	esp, 16					; 00000010H
$LN10@lCanHold@2:

; 840  : 	CvPlot* pkPlot = CvLuaPlot::GetInstance(L, 2);

	push	esi
	call	_lua_gettop
	push	2
	push	esi
	mov	ebp, eax
	mov	bl, 1
	xor	edi, edi
	call	_lua_type
	add	esp, 12					; 0000000cH
	cmp	eax, 5
	jne	SHORT $LN14@lCanHold@2
	push	OFFSET $SG224163
	push	2
	push	esi
	call	_lua_getfield
	push	-1
	push	esi
	call	_lua_type
	add	esp, 20					; 00000014H
	cmp	eax, 2
	jne	SHORT $LN14@lCanHold@2
	push	-1
	push	esi
	call	_lua_touserdata
	mov	edi, eax
	add	esp, 8
	test	edi, edi
	je	SHORT $LN14@lCanHold@2
	xor	bl, bl
$LN14@lCanHold@2:
	push	ebp
	push	esi
	call	_lua_settop
	add	esp, 8
	test	bl, bl
	je	SHORT $LN13@lCanHold@2
	push	esi
	call	?HandleMissingInstance@CvLuaPlot@@SAXPAUlua_State@@@Z ; CvLuaPlot::HandleMissingInstance
	add	esp, 4
$LN13@lCanHold@2:

; 841  : 	const bool bResult = pkUnit->canHold(pkPlot);

	mov	ecx, DWORD PTR _pkInstance$225739[esp+20]
	push	edi
	call	?canHold@CvUnit@@QBE_NPBVCvPlot@@@Z	; CvUnit::canHold

; 842  : 
; 843  : 	lua_pushboolean(L, bResult);

	movzx	eax, al
	push	eax
	push	esi
	call	_lua_pushboolean
	add	esp, 8
	pop	edi
	pop	esi
	pop	ebp

; 844  : 	return 1;

	mov	eax, 1
	pop	ebx

; 845  : }

	pop	ecx
	ret	0
?lCanHold@CvLuaUnit@@KAHPAUlua_State@@@Z ENDP		; CvLuaUnit::lCanHold
_TEXT	ENDS
PUBLIC	?lCanSleep@CvLuaUnit@@KAHPAUlua_State@@@Z	; CvLuaUnit::lCanSleep
EXTRN	?canSleep@CvUnit@@QBE_NPBVCvPlot@@@Z:PROC	; CvUnit::canSleep
; Function compile flags: /Ogtpy
;	COMDAT ?lCanSleep@CvLuaUnit@@KAHPAUlua_State@@@Z
_TEXT	SEGMENT
_pkInstance$225769 = -4					; size = 4
_L$ = 8							; size = 4
?lCanSleep@CvLuaUnit@@KAHPAUlua_State@@@Z PROC		; CvLuaUnit::lCanSleep, COMDAT

; 849  : {

	push	ecx
	push	ebx
	push	ebp
	push	esi

; 850  : 	CvUnit* pkUnit = GetInstance(L);

	mov	esi, DWORD PTR _L$[esp+12]
	push	edi
	push	esi
	call	_lua_gettop
	push	1
	push	esi
	mov	edi, eax
	mov	bl, 1
	mov	DWORD PTR _pkInstance$225769[esp+32], 0
	call	_lua_type
	add	esp, 12					; 0000000cH
	cmp	eax, 5
	jne	SHORT $LN5@lCanSleep
	push	OFFSET $SG224203
	push	1
	push	esi
	call	_lua_getfield
	push	-1
	push	esi
	call	_lua_type
	add	esp, 20					; 00000014H
	cmp	eax, 2
	jne	SHORT $LN5@lCanSleep
	push	-1
	push	esi
	call	_lua_touserdata
	add	esp, 8
	mov	DWORD PTR _pkInstance$225769[esp+20], eax
	test	eax, eax
	je	SHORT $LN5@lCanSleep
	xor	bl, bl
$LN5@lCanSleep:
	push	edi
	push	esi
	call	_lua_settop
	add	esp, 8
	test	bl, bl
	je	SHORT $LN10@lCanSleep
	push	OFFSET $SG224209
	push	esi
	call	_luaL_error
	push	OFFSET $SG221232
	push	esi
	call	_luaL_error
	add	esp, 16					; 00000010H
$LN10@lCanSleep:

; 851  : 	CvPlot* pkPlot = CvLuaPlot::GetInstance(L, 2);

	push	esi
	call	_lua_gettop
	push	2
	push	esi
	mov	ebp, eax
	mov	bl, 1
	xor	edi, edi
	call	_lua_type
	add	esp, 12					; 0000000cH
	cmp	eax, 5
	jne	SHORT $LN14@lCanSleep
	push	OFFSET $SG224163
	push	2
	push	esi
	call	_lua_getfield
	push	-1
	push	esi
	call	_lua_type
	add	esp, 20					; 00000014H
	cmp	eax, 2
	jne	SHORT $LN14@lCanSleep
	push	-1
	push	esi
	call	_lua_touserdata
	mov	edi, eax
	add	esp, 8
	test	edi, edi
	je	SHORT $LN14@lCanSleep
	xor	bl, bl
$LN14@lCanSleep:
	push	ebp
	push	esi
	call	_lua_settop
	add	esp, 8
	test	bl, bl
	je	SHORT $LN13@lCanSleep
	push	esi
	call	?HandleMissingInstance@CvLuaPlot@@SAXPAUlua_State@@@Z ; CvLuaPlot::HandleMissingInstance
	add	esp, 4
$LN13@lCanSleep:

; 852  : 	const bool bResult = pkUnit->canSleep(pkPlot);

	mov	ecx, DWORD PTR _pkInstance$225769[esp+20]
	push	edi
	call	?canSleep@CvUnit@@QBE_NPBVCvPlot@@@Z	; CvUnit::canSleep

; 853  : 
; 854  : 	lua_pushboolean(L, bResult);

	movzx	eax, al
	push	eax
	push	esi
	call	_lua_pushboolean
	add	esp, 8
	pop	edi
	pop	esi
	pop	ebp

; 855  : 	return 1;

	mov	eax, 1
	pop	ebx

; 856  : }

	pop	ecx
	ret	0
?lCanSleep@CvLuaUnit@@KAHPAUlua_State@@@Z ENDP		; CvLuaUnit::lCanSleep
_TEXT	ENDS
PUBLIC	?lCanFortify@CvLuaUnit@@KAHPAUlua_State@@@Z	; CvLuaUnit::lCanFortify
EXTRN	?canFortify@CvUnit@@QBE_NPBVCvPlot@@@Z:PROC	; CvUnit::canFortify
; Function compile flags: /Ogtpy
;	COMDAT ?lCanFortify@CvLuaUnit@@KAHPAUlua_State@@@Z
_TEXT	SEGMENT
_pkInstance$225799 = -4					; size = 4
_L$ = 8							; size = 4
?lCanFortify@CvLuaUnit@@KAHPAUlua_State@@@Z PROC	; CvLuaUnit::lCanFortify, COMDAT

; 860  : {

	push	ecx
	push	ebx
	push	ebp
	push	esi

; 861  : 	CvUnit* pkUnit = GetInstance(L);

	mov	esi, DWORD PTR _L$[esp+12]
	push	edi
	push	esi
	call	_lua_gettop
	push	1
	push	esi
	mov	edi, eax
	mov	bl, 1
	mov	DWORD PTR _pkInstance$225799[esp+32], 0
	call	_lua_type
	add	esp, 12					; 0000000cH
	cmp	eax, 5
	jne	SHORT $LN5@lCanFortif
	push	OFFSET $SG224203
	push	1
	push	esi
	call	_lua_getfield
	push	-1
	push	esi
	call	_lua_type
	add	esp, 20					; 00000014H
	cmp	eax, 2
	jne	SHORT $LN5@lCanFortif
	push	-1
	push	esi
	call	_lua_touserdata
	add	esp, 8
	mov	DWORD PTR _pkInstance$225799[esp+20], eax
	test	eax, eax
	je	SHORT $LN5@lCanFortif
	xor	bl, bl
$LN5@lCanFortif:
	push	edi
	push	esi
	call	_lua_settop
	add	esp, 8
	test	bl, bl
	je	SHORT $LN10@lCanFortif
	push	OFFSET $SG224209
	push	esi
	call	_luaL_error
	push	OFFSET $SG221232
	push	esi
	call	_luaL_error
	add	esp, 16					; 00000010H
$LN10@lCanFortif:

; 862  : 	CvPlot* pkPlot = CvLuaPlot::GetInstance(L, 2);

	push	esi
	call	_lua_gettop
	push	2
	push	esi
	mov	ebp, eax
	mov	bl, 1
	xor	edi, edi
	call	_lua_type
	add	esp, 12					; 0000000cH
	cmp	eax, 5
	jne	SHORT $LN14@lCanFortif
	push	OFFSET $SG224163
	push	2
	push	esi
	call	_lua_getfield
	push	-1
	push	esi
	call	_lua_type
	add	esp, 20					; 00000014H
	cmp	eax, 2
	jne	SHORT $LN14@lCanFortif
	push	-1
	push	esi
	call	_lua_touserdata
	mov	edi, eax
	add	esp, 8
	test	edi, edi
	je	SHORT $LN14@lCanFortif
	xor	bl, bl
$LN14@lCanFortif:
	push	ebp
	push	esi
	call	_lua_settop
	add	esp, 8
	test	bl, bl
	je	SHORT $LN13@lCanFortif
	push	esi
	call	?HandleMissingInstance@CvLuaPlot@@SAXPAUlua_State@@@Z ; CvLuaPlot::HandleMissingInstance
	add	esp, 4
$LN13@lCanFortif:

; 863  : 	const bool bResult = pkUnit->canFortify(pkPlot);

	mov	ecx, DWORD PTR _pkInstance$225799[esp+20]
	push	edi
	call	?canFortify@CvUnit@@QBE_NPBVCvPlot@@@Z	; CvUnit::canFortify

; 864  : 
; 865  : 	lua_pushboolean(L, bResult);

	movzx	eax, al
	push	eax
	push	esi
	call	_lua_pushboolean
	add	esp, 8
	pop	edi
	pop	esi
	pop	ebp

; 866  : 	return 1;

	mov	eax, 1
	pop	ebx

; 867  : }

	pop	ecx
	ret	0
?lCanFortify@CvLuaUnit@@KAHPAUlua_State@@@Z ENDP	; CvLuaUnit::lCanFortify
_TEXT	ENDS
PUBLIC	?lCanAirPatrol@CvLuaUnit@@KAHPAUlua_State@@@Z	; CvLuaUnit::lCanAirPatrol
EXTRN	?canAirPatrol@CvUnit@@QBE_NPBVCvPlot@@@Z:PROC	; CvUnit::canAirPatrol
; Function compile flags: /Ogtpy
;	COMDAT ?lCanAirPatrol@CvLuaUnit@@KAHPAUlua_State@@@Z
_TEXT	SEGMENT
_pkInstance$225829 = -4					; size = 4
_L$ = 8							; size = 4
?lCanAirPatrol@CvLuaUnit@@KAHPAUlua_State@@@Z PROC	; CvLuaUnit::lCanAirPatrol, COMDAT

; 871  : {

	push	ecx
	push	ebx
	push	ebp
	push	esi

; 872  : 	CvUnit* pkUnit = GetInstance(L);

	mov	esi, DWORD PTR _L$[esp+12]
	push	edi
	push	esi
	call	_lua_gettop
	push	1
	push	esi
	mov	edi, eax
	mov	bl, 1
	mov	DWORD PTR _pkInstance$225829[esp+32], 0
	call	_lua_type
	add	esp, 12					; 0000000cH
	cmp	eax, 5
	jne	SHORT $LN5@lCanAirPat
	push	OFFSET $SG224203
	push	1
	push	esi
	call	_lua_getfield
	push	-1
	push	esi
	call	_lua_type
	add	esp, 20					; 00000014H
	cmp	eax, 2
	jne	SHORT $LN5@lCanAirPat
	push	-1
	push	esi
	call	_lua_touserdata
	add	esp, 8
	mov	DWORD PTR _pkInstance$225829[esp+20], eax
	test	eax, eax
	je	SHORT $LN5@lCanAirPat
	xor	bl, bl
$LN5@lCanAirPat:
	push	edi
	push	esi
	call	_lua_settop
	add	esp, 8
	test	bl, bl
	je	SHORT $LN10@lCanAirPat
	push	OFFSET $SG224209
	push	esi
	call	_luaL_error
	push	OFFSET $SG221232
	push	esi
	call	_luaL_error
	add	esp, 16					; 00000010H
$LN10@lCanAirPat:

; 873  : 	CvPlot* pkPlot = CvLuaPlot::GetInstance(L, 2);

	push	esi
	call	_lua_gettop
	push	2
	push	esi
	mov	ebp, eax
	mov	bl, 1
	xor	edi, edi
	call	_lua_type
	add	esp, 12					; 0000000cH
	cmp	eax, 5
	jne	SHORT $LN14@lCanAirPat
	push	OFFSET $SG224163
	push	2
	push	esi
	call	_lua_getfield
	push	-1
	push	esi
	call	_lua_type
	add	esp, 20					; 00000014H
	cmp	eax, 2
	jne	SHORT $LN14@lCanAirPat
	push	-1
	push	esi
	call	_lua_touserdata
	mov	edi, eax
	add	esp, 8
	test	edi, edi
	je	SHORT $LN14@lCanAirPat
	xor	bl, bl
$LN14@lCanAirPat:
	push	ebp
	push	esi
	call	_lua_settop
	add	esp, 8
	test	bl, bl
	je	SHORT $LN13@lCanAirPat
	push	esi
	call	?HandleMissingInstance@CvLuaPlot@@SAXPAUlua_State@@@Z ; CvLuaPlot::HandleMissingInstance
	add	esp, 4
$LN13@lCanAirPat:

; 874  : 	const bool bResult = pkUnit->canAirPatrol(pkPlot);

	mov	ecx, DWORD PTR _pkInstance$225829[esp+20]
	push	edi
	call	?canAirPatrol@CvUnit@@QBE_NPBVCvPlot@@@Z ; CvUnit::canAirPatrol

; 875  : 
; 876  : 	lua_pushboolean(L, bResult);

	movzx	eax, al
	push	eax
	push	esi
	call	_lua_pushboolean
	add	esp, 8
	pop	edi
	pop	esi
	pop	ebp

; 877  : 	return 1;

	mov	eax, 1
	pop	ebx

; 878  : }

	pop	ecx
	ret	0
?lCanAirPatrol@CvLuaUnit@@KAHPAUlua_State@@@Z ENDP	; CvLuaUnit::lCanAirPatrol
_TEXT	ENDS
PUBLIC	?lSetEmbarked@CvLuaUnit@@KAHPAUlua_State@@@Z	; CvLuaUnit::lSetEmbarked
EXTRN	?setEmbarked@CvUnit@@QAEX_N@Z:PROC		; CvUnit::setEmbarked
; Function compile flags: /Ogtpy
;	COMDAT ?lSetEmbarked@CvLuaUnit@@KAHPAUlua_State@@@Z
_TEXT	SEGMENT
_bNewValue$ = -4					; size = 1
_L$ = 8							; size = 4
?lSetEmbarked@CvLuaUnit@@KAHPAUlua_State@@@Z PROC	; CvLuaUnit::lSetEmbarked, COMDAT

; 892  : {

	push	ecx
	push	ebx
	push	ebp
	push	esi

; 893  : 	CvUnit* pkUnit = GetInstance(L);

	mov	esi, DWORD PTR _L$[esp+12]
	push	edi
	push	esi
	call	_lua_gettop
	push	1
	push	esi
	mov	ebp, eax
	mov	bl, 1
	xor	edi, edi
	call	_lua_type
	add	esp, 12					; 0000000cH
	cmp	eax, 5
	jne	SHORT $LN5@lSetEmbark
	push	OFFSET $SG224203
	push	1
	push	esi
	call	_lua_getfield
	push	-1
	push	esi
	call	_lua_type
	add	esp, 20					; 00000014H
	cmp	eax, 2
	jne	SHORT $LN5@lSetEmbark
	push	-1
	push	esi
	call	_lua_touserdata
	mov	edi, eax
	add	esp, 8
	test	edi, edi
	je	SHORT $LN5@lSetEmbark
	xor	bl, bl
$LN5@lSetEmbark:
	push	ebp
	push	esi
	call	_lua_settop
	add	esp, 8
	test	bl, bl
	je	SHORT $LN10@lSetEmbark
	push	OFFSET $SG224209
	push	esi
	call	_luaL_error
	push	OFFSET $SG221232
	push	esi
	call	_luaL_error
	add	esp, 16					; 00000010H
$LN10@lSetEmbark:

; 894  : 	const bool bNewValue = lua_toboolean(L, 2);

	push	2
	push	esi
	call	_lua_toboolean
	add	esp, 8
	test	eax, eax
	setne	al
	mov	BYTE PTR _bNewValue$[esp+20], al

; 895  : 
; 896  : 	pkUnit->setEmbarked(bNewValue);

	mov	ecx, DWORD PTR _bNewValue$[esp+20]
	push	ecx
	mov	ecx, edi
	call	?setEmbarked@CvUnit@@QAEX_N@Z		; CvUnit::setEmbarked
	pop	edi
	pop	esi
	pop	ebp

; 897  : 	return 0;

	xor	eax, eax
	pop	ebx

; 898  : }

	pop	ecx
	ret	0
?lSetEmbarked@CvLuaUnit@@KAHPAUlua_State@@@Z ENDP	; CvLuaUnit::lSetEmbarked
_TEXT	ENDS
PUBLIC	?lCanHeal@CvLuaUnit@@KAHPAUlua_State@@@Z	; CvLuaUnit::lCanHeal
EXTRN	?canHeal@CvUnit@@QBE_NPBVCvPlot@@_N@Z:PROC	; CvUnit::canHeal
; Function compile flags: /Ogtpy
;	COMDAT ?lCanHeal@CvLuaUnit@@KAHPAUlua_State@@@Z
_TEXT	SEGMENT
_pkInstance$225878 = -4					; size = 4
_L$ = 8							; size = 4
?lCanHeal@CvLuaUnit@@KAHPAUlua_State@@@Z PROC		; CvLuaUnit::lCanHeal, COMDAT

; 902  : {

	push	ecx
	push	ebx
	push	ebp
	push	esi

; 903  : 	CvUnit* pkUnit = GetInstance(L);

	mov	esi, DWORD PTR _L$[esp+12]
	push	edi
	push	esi
	call	_lua_gettop
	push	1
	push	esi
	mov	edi, eax
	mov	bl, 1
	mov	DWORD PTR _pkInstance$225878[esp+32], 0
	call	_lua_type
	add	esp, 12					; 0000000cH
	cmp	eax, 5
	jne	SHORT $LN5@lCanHeal
	push	OFFSET $SG224203
	push	1
	push	esi
	call	_lua_getfield
	push	-1
	push	esi
	call	_lua_type
	add	esp, 20					; 00000014H
	cmp	eax, 2
	jne	SHORT $LN5@lCanHeal
	push	-1
	push	esi
	call	_lua_touserdata
	add	esp, 8
	mov	DWORD PTR _pkInstance$225878[esp+20], eax
	test	eax, eax
	je	SHORT $LN5@lCanHeal
	xor	bl, bl
$LN5@lCanHeal:
	push	edi
	push	esi
	call	_lua_settop
	add	esp, 8
	test	bl, bl
	je	SHORT $LN10@lCanHeal
	push	OFFSET $SG224209
	push	esi
	call	_luaL_error
	push	OFFSET $SG221232
	push	esi
	call	_luaL_error
	add	esp, 16					; 00000010H
$LN10@lCanHeal:

; 904  : 	CvPlot* pkPlot = CvLuaPlot::GetInstance(L, 2);

	push	esi
	call	_lua_gettop
	push	2
	push	esi
	mov	ebp, eax
	mov	bl, 1
	xor	edi, edi
	call	_lua_type
	add	esp, 12					; 0000000cH
	cmp	eax, 5
	jne	SHORT $LN14@lCanHeal
	push	OFFSET $SG224163
	push	2
	push	esi
	call	_lua_getfield
	push	-1
	push	esi
	call	_lua_type
	add	esp, 20					; 00000014H
	cmp	eax, 2
	jne	SHORT $LN14@lCanHeal
	push	-1
	push	esi
	call	_lua_touserdata
	mov	edi, eax
	add	esp, 8
	test	edi, edi
	je	SHORT $LN14@lCanHeal
	xor	bl, bl
$LN14@lCanHeal:
	push	ebp
	push	esi
	call	_lua_settop
	add	esp, 8
	test	bl, bl
	je	SHORT $LN13@lCanHeal
	push	esi
	call	?HandleMissingInstance@CvLuaPlot@@SAXPAUlua_State@@@Z ; CvLuaPlot::HandleMissingInstance
	add	esp, 4
$LN13@lCanHeal:

; 905  : 	const bool bResult = pkUnit->canHeal(pkPlot);

	mov	ecx, DWORD PTR _pkInstance$225878[esp+20]
	push	0
	push	edi
	call	?canHeal@CvUnit@@QBE_NPBVCvPlot@@_N@Z	; CvUnit::canHeal

; 906  : 
; 907  : 	lua_pushboolean(L, bResult);

	movzx	eax, al
	push	eax
	push	esi
	call	_lua_pushboolean
	add	esp, 8
	pop	edi
	pop	esi
	pop	ebp

; 908  : 	return 1;

	mov	eax, 1
	pop	ebx

; 909  : }

	pop	ecx
	ret	0
?lCanHeal@CvLuaUnit@@KAHPAUlua_State@@@Z ENDP		; CvLuaUnit::lCanHeal
_TEXT	ENDS
PUBLIC	?lCanSentry@CvLuaUnit@@KAHPAUlua_State@@@Z	; CvLuaUnit::lCanSentry
EXTRN	?canSentry@CvUnit@@QBE_NPBVCvPlot@@@Z:PROC	; CvUnit::canSentry
; Function compile flags: /Ogtpy
;	COMDAT ?lCanSentry@CvLuaUnit@@KAHPAUlua_State@@@Z
_TEXT	SEGMENT
_pkInstance$225908 = -4					; size = 4
_L$ = 8							; size = 4
?lCanSentry@CvLuaUnit@@KAHPAUlua_State@@@Z PROC		; CvLuaUnit::lCanSentry, COMDAT

; 913  : {

	push	ecx
	push	ebx
	push	ebp
	push	esi

; 914  : 	CvUnit* pkUnit = GetInstance(L);

	mov	esi, DWORD PTR _L$[esp+12]
	push	edi
	push	esi
	call	_lua_gettop
	push	1
	push	esi
	mov	edi, eax
	mov	bl, 1
	mov	DWORD PTR _pkInstance$225908[esp+32], 0
	call	_lua_type
	add	esp, 12					; 0000000cH
	cmp	eax, 5
	jne	SHORT $LN5@lCanSentry
	push	OFFSET $SG224203
	push	1
	push	esi
	call	_lua_getfield
	push	-1
	push	esi
	call	_lua_type
	add	esp, 20					; 00000014H
	cmp	eax, 2
	jne	SHORT $LN5@lCanSentry
	push	-1
	push	esi
	call	_lua_touserdata
	add	esp, 8
	mov	DWORD PTR _pkInstance$225908[esp+20], eax
	test	eax, eax
	je	SHORT $LN5@lCanSentry
	xor	bl, bl
$LN5@lCanSentry:
	push	edi
	push	esi
	call	_lua_settop
	add	esp, 8
	test	bl, bl
	je	SHORT $LN10@lCanSentry
	push	OFFSET $SG224209
	push	esi
	call	_luaL_error
	push	OFFSET $SG221232
	push	esi
	call	_luaL_error
	add	esp, 16					; 00000010H
$LN10@lCanSentry:

; 915  : 	CvPlot* pkPlot = CvLuaPlot::GetInstance(L, 2);

	push	esi
	call	_lua_gettop
	push	2
	push	esi
	mov	ebp, eax
	mov	bl, 1
	xor	edi, edi
	call	_lua_type
	add	esp, 12					; 0000000cH
	cmp	eax, 5
	jne	SHORT $LN14@lCanSentry
	push	OFFSET $SG224163
	push	2
	push	esi
	call	_lua_getfield
	push	-1
	push	esi
	call	_lua_type
	add	esp, 20					; 00000014H
	cmp	eax, 2
	jne	SHORT $LN14@lCanSentry
	push	-1
	push	esi
	call	_lua_touserdata
	mov	edi, eax
	add	esp, 8
	test	edi, edi
	je	SHORT $LN14@lCanSentry
	xor	bl, bl
$LN14@lCanSentry:
	push	ebp
	push	esi
	call	_lua_settop
	add	esp, 8
	test	bl, bl
	je	SHORT $LN13@lCanSentry
	push	esi
	call	?HandleMissingInstance@CvLuaPlot@@SAXPAUlua_State@@@Z ; CvLuaPlot::HandleMissingInstance
	add	esp, 4
$LN13@lCanSentry:

; 916  : 	const bool bResult = pkUnit->canSentry(pkPlot);

	mov	ecx, DWORD PTR _pkInstance$225908[esp+20]
	push	edi
	call	?canSentry@CvUnit@@QBE_NPBVCvPlot@@@Z	; CvUnit::canSentry

; 917  : 
; 918  : 	lua_pushboolean(L, bResult);

	movzx	eax, al
	push	eax
	push	esi
	call	_lua_pushboolean
	add	esp, 8
	pop	edi
	pop	esi
	pop	ebp

; 919  : 	return 1;

	mov	eax, 1
	pop	ebx

; 920  : }

	pop	ecx
	ret	0
?lCanSentry@CvLuaUnit@@KAHPAUlua_State@@@Z ENDP		; CvLuaUnit::lCanSentry
_TEXT	ENDS
PUBLIC	?lCanEmbark@CvLuaUnit@@KAHPAUlua_State@@@Z	; CvLuaUnit::lCanEmbark
EXTRN	?canEmbark@CvUnit@@QBE_NPBVCvPlot@@@Z:PROC	; CvUnit::canEmbark
; Function compile flags: /Ogtpy
;	COMDAT ?lCanEmbark@CvLuaUnit@@KAHPAUlua_State@@@Z
_TEXT	SEGMENT
_pkInstance$225938 = -4					; size = 4
_L$ = 8							; size = 4
?lCanEmbark@CvLuaUnit@@KAHPAUlua_State@@@Z PROC		; CvLuaUnit::lCanEmbark, COMDAT

; 924  : {

	push	ecx
	push	ebx
	push	ebp
	push	esi

; 925  : 	CvUnit* pkUnit = GetInstance(L);

	mov	esi, DWORD PTR _L$[esp+12]
	push	edi
	push	esi
	call	_lua_gettop
	push	1
	push	esi
	mov	edi, eax
	mov	bl, 1
	mov	DWORD PTR _pkInstance$225938[esp+32], 0
	call	_lua_type
	add	esp, 12					; 0000000cH
	cmp	eax, 5
	jne	SHORT $LN5@lCanEmbark
	push	OFFSET $SG224203
	push	1
	push	esi
	call	_lua_getfield
	push	-1
	push	esi
	call	_lua_type
	add	esp, 20					; 00000014H
	cmp	eax, 2
	jne	SHORT $LN5@lCanEmbark
	push	-1
	push	esi
	call	_lua_touserdata
	add	esp, 8
	mov	DWORD PTR _pkInstance$225938[esp+20], eax
	test	eax, eax
	je	SHORT $LN5@lCanEmbark
	xor	bl, bl
$LN5@lCanEmbark:
	push	edi
	push	esi
	call	_lua_settop
	add	esp, 8
	test	bl, bl
	je	SHORT $LN10@lCanEmbark
	push	OFFSET $SG224209
	push	esi
	call	_luaL_error
	push	OFFSET $SG221232
	push	esi
	call	_luaL_error
	add	esp, 16					; 00000010H
$LN10@lCanEmbark:

; 926  : 	CvPlot* pkPlot = CvLuaPlot::GetInstance(L, 2);

	push	esi
	call	_lua_gettop
	push	2
	push	esi
	mov	ebp, eax
	mov	bl, 1
	xor	edi, edi
	call	_lua_type
	add	esp, 12					; 0000000cH
	cmp	eax, 5
	jne	SHORT $LN14@lCanEmbark
	push	OFFSET $SG224163
	push	2
	push	esi
	call	_lua_getfield
	push	-1
	push	esi
	call	_lua_type
	add	esp, 20					; 00000014H
	cmp	eax, 2
	jne	SHORT $LN14@lCanEmbark
	push	-1
	push	esi
	call	_lua_touserdata
	mov	edi, eax
	add	esp, 8
	test	edi, edi
	je	SHORT $LN14@lCanEmbark
	xor	bl, bl
$LN14@lCanEmbark:
	push	ebp
	push	esi
	call	_lua_settop
	add	esp, 8
	test	bl, bl
	je	SHORT $LN13@lCanEmbark
	push	esi
	call	?HandleMissingInstance@CvLuaPlot@@SAXPAUlua_State@@@Z ; CvLuaPlot::HandleMissingInstance
	add	esp, 4
$LN13@lCanEmbark:

; 927  : 	const bool bResult = pkUnit->canEmbark(pkPlot);

	mov	ecx, DWORD PTR _pkInstance$225938[esp+20]
	push	edi
	call	?canEmbark@CvUnit@@QBE_NPBVCvPlot@@@Z	; CvUnit::canEmbark

; 928  : 
; 929  : 	lua_pushboolean(L, bResult);

	movzx	eax, al
	push	eax
	push	esi
	call	_lua_pushboolean
	add	esp, 8
	pop	edi
	pop	esi
	pop	ebp

; 930  : 	return 1;

	mov	eax, 1
	pop	ebx

; 931  : }

	pop	ecx
	ret	0
?lCanEmbark@CvLuaUnit@@KAHPAUlua_State@@@Z ENDP		; CvLuaUnit::lCanEmbark
_TEXT	ENDS
PUBLIC	?lCanDisembark@CvLuaUnit@@KAHPAUlua_State@@@Z	; CvLuaUnit::lCanDisembark
EXTRN	?canDisembark@CvUnit@@QBE_NPBVCvPlot@@@Z:PROC	; CvUnit::canDisembark
; Function compile flags: /Ogtpy
;	COMDAT ?lCanDisembark@CvLuaUnit@@KAHPAUlua_State@@@Z
_TEXT	SEGMENT
_pkInstance$225968 = -4					; size = 4
_L$ = 8							; size = 4
?lCanDisembark@CvLuaUnit@@KAHPAUlua_State@@@Z PROC	; CvLuaUnit::lCanDisembark, COMDAT

; 935  : {

	push	ecx
	push	ebx
	push	ebp
	push	esi

; 936  : 	CvUnit* pkUnit = GetInstance(L);

	mov	esi, DWORD PTR _L$[esp+12]
	push	edi
	push	esi
	call	_lua_gettop
	push	1
	push	esi
	mov	edi, eax
	mov	bl, 1
	mov	DWORD PTR _pkInstance$225968[esp+32], 0
	call	_lua_type
	add	esp, 12					; 0000000cH
	cmp	eax, 5
	jne	SHORT $LN5@lCanDisemb
	push	OFFSET $SG224203
	push	1
	push	esi
	call	_lua_getfield
	push	-1
	push	esi
	call	_lua_type
	add	esp, 20					; 00000014H
	cmp	eax, 2
	jne	SHORT $LN5@lCanDisemb
	push	-1
	push	esi
	call	_lua_touserdata
	add	esp, 8
	mov	DWORD PTR _pkInstance$225968[esp+20], eax
	test	eax, eax
	je	SHORT $LN5@lCanDisemb
	xor	bl, bl
$LN5@lCanDisemb:
	push	edi
	push	esi
	call	_lua_settop
	add	esp, 8
	test	bl, bl
	je	SHORT $LN10@lCanDisemb
	push	OFFSET $SG224209
	push	esi
	call	_luaL_error
	push	OFFSET $SG221232
	push	esi
	call	_luaL_error
	add	esp, 16					; 00000010H
$LN10@lCanDisemb:

; 937  : 	CvPlot* pkPlot = CvLuaPlot::GetInstance(L, 2);

	push	esi
	call	_lua_gettop
	push	2
	push	esi
	mov	ebp, eax
	mov	bl, 1
	xor	edi, edi
	call	_lua_type
	add	esp, 12					; 0000000cH
	cmp	eax, 5
	jne	SHORT $LN14@lCanDisemb
	push	OFFSET $SG224163
	push	2
	push	esi
	call	_lua_getfield
	push	-1
	push	esi
	call	_lua_type
	add	esp, 20					; 00000014H
	cmp	eax, 2
	jne	SHORT $LN14@lCanDisemb
	push	-1
	push	esi
	call	_lua_touserdata
	mov	edi, eax
	add	esp, 8
	test	edi, edi
	je	SHORT $LN14@lCanDisemb
	xor	bl, bl
$LN14@lCanDisemb:
	push	ebp
	push	esi
	call	_lua_settop
	add	esp, 8
	test	bl, bl
	je	SHORT $LN13@lCanDisemb
	push	esi
	call	?HandleMissingInstance@CvLuaPlot@@SAXPAUlua_State@@@Z ; CvLuaPlot::HandleMissingInstance
	add	esp, 4
$LN13@lCanDisemb:

; 938  : 	const bool bResult = pkUnit->canDisembark(pkPlot);

	mov	ecx, DWORD PTR _pkInstance$225968[esp+20]
	push	edi
	call	?canDisembark@CvUnit@@QBE_NPBVCvPlot@@@Z ; CvUnit::canDisembark

; 939  : 
; 940  : 	lua_pushboolean(L, bResult);

	movzx	eax, al
	push	eax
	push	esi
	call	_lua_pushboolean
	add	esp, 8
	pop	edi
	pop	esi
	pop	ebp

; 941  : 	return 1;

	mov	eax, 1
	pop	ebx

; 942  : }

	pop	ecx
	ret	0
?lCanDisembark@CvLuaUnit@@KAHPAUlua_State@@@Z ENDP	; CvLuaUnit::lCanDisembark
_TEXT	ENDS
PUBLIC	?lCanEmbarkOnto@CvLuaUnit@@KAHPAUlua_State@@@Z	; CvLuaUnit::lCanEmbarkOnto
EXTRN	?canEmbarkOnto@CvUnit@@QBE_NABVCvPlot@@0_N1@Z:PROC ; CvUnit::canEmbarkOnto
EXTRN	?luaL_optbool@@YA_NPAUlua_State@@H_N@Z:PROC	; luaL_optbool
; Function compile flags: /Ogtpy
;	COMDAT ?lCanEmbarkOnto@CvLuaUnit@@KAHPAUlua_State@@@Z
_TEXT	SEGMENT
_pkInstance$225998 = -8					; size = 4
_stack_size$226018 = -4					; size = 4
_bIsDestination$ = -4					; size = 1
_L$ = 8							; size = 4
?lCanEmbarkOnto@CvLuaUnit@@KAHPAUlua_State@@@Z PROC	; CvLuaUnit::lCanEmbarkOnto, COMDAT

; 946  : {

	sub	esp, 8
	push	ebx
	push	ebp
	push	esi

; 947  : 	CvUnit* pkUnit = GetInstance(L);

	mov	esi, DWORD PTR _L$[esp+16]
	push	edi
	push	esi
	call	_lua_gettop
	push	1
	xor	ebp, ebp
	push	esi
	mov	edi, eax
	mov	bl, 1
	mov	DWORD PTR _pkInstance$225998[esp+36], ebp
	call	_lua_type
	add	esp, 12					; 0000000cH
	cmp	eax, 5
	jne	SHORT $LN27@lCanEmbark@2
	push	OFFSET $SG224203
	push	1
	push	esi
	call	_lua_getfield
	push	-1
	push	esi
	call	_lua_type
	add	esp, 20					; 00000014H
	cmp	eax, 2
	jne	SHORT $LN27@lCanEmbark@2
	push	-1
	push	esi
	call	_lua_touserdata
	add	esp, 8
	mov	DWORD PTR _pkInstance$225998[esp+24], eax
	cmp	eax, ebp
	je	SHORT $LN27@lCanEmbark@2
	xor	bl, bl
$LN27@lCanEmbark@2:
	push	edi
	push	esi
	call	_lua_settop
	add	esp, 8
	test	bl, bl
	je	SHORT $LN11@lCanEmbark@2
	push	OFFSET $SG224209
	push	esi
	call	_luaL_error
	push	OFFSET $SG221232
	push	esi
	call	_luaL_error
	add	esp, 16					; 00000010H
$LN11@lCanEmbark@2:

; 948  : 	CvPlot* pkOriginPlot = CvLuaPlot::GetInstance(L, 2);

	push	esi
	call	_lua_gettop
	push	2
	push	esi
	mov	edi, eax
	mov	bl, 1
	call	_lua_type
	add	esp, 12					; 0000000cH
	cmp	eax, 5
	jne	SHORT $LN15@lCanEmbark@2
	push	OFFSET $SG224163
	push	2
	push	esi
	call	_lua_getfield
	push	-1
	push	esi
	call	_lua_type
	add	esp, 20					; 00000014H
	cmp	eax, 2
	jne	SHORT $LN15@lCanEmbark@2
	push	-1
	push	esi
	call	_lua_touserdata
	mov	ebp, eax
	add	esp, 8
	test	ebp, ebp
	je	SHORT $LN15@lCanEmbark@2
	xor	bl, bl
$LN15@lCanEmbark@2:
	push	edi
	push	esi
	call	_lua_settop
	add	esp, 8
	test	bl, bl
	je	SHORT $LN14@lCanEmbark@2
	push	esi
	call	?HandleMissingInstance@CvLuaPlot@@SAXPAUlua_State@@@Z ; CvLuaPlot::HandleMissingInstance
	add	esp, 4
$LN14@lCanEmbark@2:

; 949  : 	CvPlot* pkTargetPlot = CvLuaPlot::GetInstance(L, 3);

	push	esi
	call	_lua_gettop
	push	3
	push	esi
	mov	DWORD PTR _stack_size$226018[esp+36], eax
	mov	bl, 1
	xor	edi, edi
	call	_lua_type
	add	esp, 12					; 0000000cH
	cmp	eax, 5
	jne	SHORT $LN22@lCanEmbark@2
	push	OFFSET $SG224163
	push	3
	push	esi
	call	_lua_getfield
	push	-1
	push	esi
	call	_lua_type
	add	esp, 20					; 00000014H
	cmp	eax, 2
	jne	SHORT $LN22@lCanEmbark@2
	push	-1
	push	esi
	call	_lua_touserdata
	mov	edi, eax
	add	esp, 8
	test	edi, edi
	je	SHORT $LN22@lCanEmbark@2
	xor	bl, bl
$LN22@lCanEmbark@2:
	mov	eax, DWORD PTR _stack_size$226018[esp+24]
	push	eax
	push	esi
	call	_lua_settop
	add	esp, 8
	test	bl, bl
	je	SHORT $LN21@lCanEmbark@2
	push	esi
	call	?HandleMissingInstance@CvLuaPlot@@SAXPAUlua_State@@@Z ; CvLuaPlot::HandleMissingInstance
	add	esp, 4
$LN21@lCanEmbark@2:

; 950  : 	bool bIsDestination = luaL_optbool(L, 4, true);		// Assume Lua is querying for a destination of the embark.  This will cause the test to fail if there is are stacking issues.

	push	1
	push	4
	push	esi
	call	?luaL_optbool@@YA_NPAUlua_State@@H_N@Z	; luaL_optbool
	mov	BYTE PTR _bIsDestination$[esp+36], al
	add	esp, 12					; 0000000cH

; 951  : 	bool bResult = false;

	xor	al, al

; 952  : 	if(pkOriginPlot && pkTargetPlot)

	test	ebp, ebp
	je	SHORT $LN1@lCanEmbark@2
	test	edi, edi
	je	SHORT $LN1@lCanEmbark@2

; 953  : 	{
; 954  : 		bResult = pkUnit->canEmbarkOnto(*pkOriginPlot, *pkTargetPlot, false, bIsDestination);

	mov	ecx, DWORD PTR _bIsDestination$[esp+24]
	push	ecx
	mov	ecx, DWORD PTR _pkInstance$225998[esp+28]
	push	0
	push	edi
	push	ebp
	call	?canEmbarkOnto@CvUnit@@QBE_NABVCvPlot@@0_N1@Z ; CvUnit::canEmbarkOnto
$LN1@lCanEmbark@2:

; 955  : 	}
; 956  : 
; 957  : 	lua_pushboolean(L, bResult);

	movzx	edx, al
	push	edx
	push	esi
	call	_lua_pushboolean
	add	esp, 8
	pop	edi
	pop	esi
	pop	ebp

; 958  : 	return 1;

	mov	eax, 1
	pop	ebx

; 959  : }

	add	esp, 8
	ret	0
?lCanEmbarkOnto@CvLuaUnit@@KAHPAUlua_State@@@Z ENDP	; CvLuaUnit::lCanEmbarkOnto
_TEXT	ENDS
PUBLIC	?lCanDisembarkOnto@CvLuaUnit@@KAHPAUlua_State@@@Z ; CvLuaUnit::lCanDisembarkOnto
EXTRN	?canDisembarkOnto@CvUnit@@QBE_NABVCvPlot@@_N@Z:PROC ; CvUnit::canDisembarkOnto
; Function compile flags: /Ogtpy
;	COMDAT ?lCanDisembarkOnto@CvLuaUnit@@KAHPAUlua_State@@@Z
_TEXT	SEGMENT
_pkInstance$226040 = -8					; size = 4
_bIsDestination$ = -4					; size = 1
_L$ = 8							; size = 4
?lCanDisembarkOnto@CvLuaUnit@@KAHPAUlua_State@@@Z PROC	; CvLuaUnit::lCanDisembarkOnto, COMDAT

; 963  : {

	sub	esp, 8
	push	ebx
	push	ebp
	push	esi

; 964  : 	CvUnit* pkUnit = GetInstance(L);

	mov	esi, DWORD PTR _L$[esp+16]
	push	edi
	push	esi
	call	_lua_gettop
	push	1
	push	esi
	mov	edi, eax
	mov	bl, 1
	mov	DWORD PTR _pkInstance$226040[esp+36], 0
	call	_lua_type
	add	esp, 12					; 0000000cH
	cmp	eax, 5
	jne	SHORT $LN6@lCanDisemb@2
	push	OFFSET $SG224203
	push	1
	push	esi
	call	_lua_getfield
	push	-1
	push	esi
	call	_lua_type
	add	esp, 20					; 00000014H
	cmp	eax, 2
	jne	SHORT $LN6@lCanDisemb@2
	push	-1
	push	esi
	call	_lua_touserdata
	add	esp, 8
	mov	DWORD PTR _pkInstance$226040[esp+24], eax
	test	eax, eax
	je	SHORT $LN6@lCanDisemb@2
	xor	bl, bl
$LN6@lCanDisemb@2:
	push	edi
	push	esi
	call	_lua_settop
	add	esp, 8
	test	bl, bl
	je	SHORT $LN11@lCanDisemb@2
	push	OFFSET $SG224209
	push	esi
	call	_luaL_error
	push	OFFSET $SG221232
	push	esi
	call	_luaL_error
	add	esp, 16					; 00000010H
$LN11@lCanDisemb@2:

; 965  : 	CvPlot* pkTargetPlot = CvLuaPlot::GetInstance(L, 2);

	push	esi
	call	_lua_gettop
	push	2
	push	esi
	mov	ebp, eax
	mov	bl, 1
	xor	edi, edi
	call	_lua_type
	add	esp, 12					; 0000000cH
	cmp	eax, 5
	jne	SHORT $LN15@lCanDisemb@2
	push	OFFSET $SG224163
	push	2
	push	esi
	call	_lua_getfield
	push	-1
	push	esi
	call	_lua_type
	add	esp, 20					; 00000014H
	cmp	eax, 2
	jne	SHORT $LN15@lCanDisemb@2
	push	-1
	push	esi
	call	_lua_touserdata
	mov	edi, eax
	add	esp, 8
	test	edi, edi
	je	SHORT $LN15@lCanDisemb@2
	xor	bl, bl
$LN15@lCanDisemb@2:
	push	ebp
	push	esi
	call	_lua_settop
	add	esp, 8
	test	bl, bl
	je	SHORT $LN14@lCanDisemb@2
	push	esi
	call	?HandleMissingInstance@CvLuaPlot@@SAXPAUlua_State@@@Z ; CvLuaPlot::HandleMissingInstance
	add	esp, 4
$LN14@lCanDisemb@2:

; 966  : 	bool bIsDestination = luaL_optbool(L, 3, true);		// Assume Lua is querying for a destination of the dis-embark.  This will cause the test to fail if there is are stacking issues.

	push	1
	push	3
	push	esi
	call	?luaL_optbool@@YA_NPAUlua_State@@H_N@Z	; luaL_optbool
	mov	BYTE PTR _bIsDestination$[esp+36], al
	add	esp, 12					; 0000000cH

; 967  : 
; 968  : 	bool bResult = false;

	xor	al, al

; 969  : 	if(pkTargetPlot)

	test	edi, edi
	je	SHORT $LN1@lCanDisemb@2

; 970  : 	{
; 971  : 		bResult = pkUnit->canDisembarkOnto(*pkTargetPlot, bIsDestination);	

	mov	eax, DWORD PTR _bIsDestination$[esp+24]
	mov	ecx, DWORD PTR _pkInstance$226040[esp+24]
	push	eax
	push	edi
	call	?canDisembarkOnto@CvUnit@@QBE_NABVCvPlot@@_N@Z ; CvUnit::canDisembarkOnto
$LN1@lCanDisemb@2:

; 972  : 	}
; 973  : 
; 974  : 	lua_pushboolean(L, bResult);

	movzx	ecx, al
	push	ecx
	push	esi
	call	_lua_pushboolean
	add	esp, 8
	pop	edi
	pop	esi
	pop	ebp

; 975  : 	return 1;

	mov	eax, 1
	pop	ebx

; 976  : }

	add	esp, 8
	ret	0
?lCanDisembarkOnto@CvLuaUnit@@KAHPAUlua_State@@@Z ENDP	; CvLuaUnit::lCanDisembarkOnto
_TEXT	ENDS
PUBLIC	?lIsRangeAttackIgnoreLOS@CvLuaUnit@@KAHPAUlua_State@@@Z ; CvLuaUnit::lIsRangeAttackIgnoreLOS
EXTRN	?IsRangeAttackIgnoreLOS@CvUnit@@QBE_NXZ:PROC	; CvUnit::IsRangeAttackIgnoreLOS
; Function compile flags: /Ogtpy
;	COMDAT ?lIsRangeAttackIgnoreLOS@CvLuaUnit@@KAHPAUlua_State@@@Z
_TEXT	SEGMENT
_L$ = 8							; size = 4
?lIsRangeAttackIgnoreLOS@CvLuaUnit@@KAHPAUlua_State@@@Z PROC ; CvLuaUnit::lIsRangeAttackIgnoreLOS, COMDAT

; 1007 : 	return BasicLuaMethod(L, &CvUnit::IsRangeAttackIgnoreLOS);

	mov	eax, DWORD PTR _L$[esp-4]
	push	OFFSET ?IsRangeAttackIgnoreLOS@CvUnit@@QBE_NXZ ; CvUnit::IsRangeAttackIgnoreLOS
	push	eax
	call	??$BasicLuaMethod@_N@?$CvLuaMethodWrapper@VCvLuaUnit@@VCvUnit@@@@KAHPAUlua_State@@P8CvUnit@@BE_NXZ@Z ; CvLuaMethodWrapper<CvLuaUnit,CvUnit>::BasicLuaMethod<bool>
	add	esp, 8

; 1008 : }

	ret	0
?lIsRangeAttackIgnoreLOS@CvLuaUnit@@KAHPAUlua_State@@@Z ENDP ; CvLuaUnit::lIsRangeAttackIgnoreLOS
_TEXT	ENDS
PUBLIC	?lCanAirlift@CvLuaUnit@@KAHPAUlua_State@@@Z	; CvLuaUnit::lCanAirlift
EXTRN	?canAirlift@CvUnit@@QBE_NPBVCvPlot@@@Z:PROC	; CvUnit::canAirlift
; Function compile flags: /Ogtpy
;	COMDAT ?lCanAirlift@CvLuaUnit@@KAHPAUlua_State@@@Z
_TEXT	SEGMENT
_pkInstance$226073 = -4					; size = 4
_L$ = 8							; size = 4
?lCanAirlift@CvLuaUnit@@KAHPAUlua_State@@@Z PROC	; CvLuaUnit::lCanAirlift, COMDAT

; 1012 : {

	push	ecx
	push	ebx
	push	ebp
	push	esi

; 1013 : 	CvUnit* pkUnit = GetInstance(L);

	mov	esi, DWORD PTR _L$[esp+12]
	push	edi
	push	esi
	call	_lua_gettop
	push	1
	push	esi
	mov	edi, eax
	mov	bl, 1
	mov	DWORD PTR _pkInstance$226073[esp+32], 0
	call	_lua_type
	add	esp, 12					; 0000000cH
	cmp	eax, 5
	jne	SHORT $LN5@lCanAirlif
	push	OFFSET $SG224203
	push	1
	push	esi
	call	_lua_getfield
	push	-1
	push	esi
	call	_lua_type
	add	esp, 20					; 00000014H
	cmp	eax, 2
	jne	SHORT $LN5@lCanAirlif
	push	-1
	push	esi
	call	_lua_touserdata
	add	esp, 8
	mov	DWORD PTR _pkInstance$226073[esp+20], eax
	test	eax, eax
	je	SHORT $LN5@lCanAirlif
	xor	bl, bl
$LN5@lCanAirlif:
	push	edi
	push	esi
	call	_lua_settop
	add	esp, 8
	test	bl, bl
	je	SHORT $LN10@lCanAirlif
	push	OFFSET $SG224209
	push	esi
	call	_luaL_error
	push	OFFSET $SG221232
	push	esi
	call	_luaL_error
	add	esp, 16					; 00000010H
$LN10@lCanAirlif:

; 1014 : 	CvPlot* pkPlot = CvLuaPlot::GetInstance(L, 2);

	push	esi
	call	_lua_gettop
	push	2
	push	esi
	mov	ebp, eax
	mov	bl, 1
	xor	edi, edi
	call	_lua_type
	add	esp, 12					; 0000000cH
	cmp	eax, 5
	jne	SHORT $LN14@lCanAirlif
	push	OFFSET $SG224163
	push	2
	push	esi
	call	_lua_getfield
	push	-1
	push	esi
	call	_lua_type
	add	esp, 20					; 00000014H
	cmp	eax, 2
	jne	SHORT $LN14@lCanAirlif
	push	-1
	push	esi
	call	_lua_touserdata
	mov	edi, eax
	add	esp, 8
	test	edi, edi
	je	SHORT $LN14@lCanAirlif
	xor	bl, bl
$LN14@lCanAirlif:
	push	ebp
	push	esi
	call	_lua_settop
	add	esp, 8
	test	bl, bl
	je	SHORT $LN13@lCanAirlif
	push	esi
	call	?HandleMissingInstance@CvLuaPlot@@SAXPAUlua_State@@@Z ; CvLuaPlot::HandleMissingInstance
	add	esp, 4
$LN13@lCanAirlif:

; 1015 : 	const bool bResult = pkUnit->canAirlift(pkPlot);

	mov	ecx, DWORD PTR _pkInstance$226073[esp+20]
	push	edi
	call	?canAirlift@CvUnit@@QBE_NPBVCvPlot@@@Z	; CvUnit::canAirlift

; 1016 : 
; 1017 : 	lua_pushboolean(L, bResult);

	movzx	eax, al
	push	eax
	push	esi
	call	_lua_pushboolean
	add	esp, 8
	pop	edi
	pop	esi
	pop	ebp

; 1018 : 	return 1;

	mov	eax, 1
	pop	ebx

; 1019 : }

	pop	ecx
	ret	0
?lCanAirlift@CvLuaUnit@@KAHPAUlua_State@@@Z ENDP	; CvLuaUnit::lCanAirlift
_TEXT	ENDS
PUBLIC	?lCanAirliftAt@CvLuaUnit@@KAHPAUlua_State@@@Z	; CvLuaUnit::lCanAirliftAt
EXTRN	?canAirliftAt@CvUnit@@QBE_NPBVCvPlot@@HH@Z:PROC	; CvUnit::canAirliftAt
; Function compile flags: /Ogtpy
;	COMDAT ?lCanAirliftAt@CvLuaUnit@@KAHPAUlua_State@@@Z
_TEXT	SEGMENT
_pkInstance$226103 = -4					; size = 4
_L$ = 8							; size = 4
?lCanAirliftAt@CvLuaUnit@@KAHPAUlua_State@@@Z PROC	; CvLuaUnit::lCanAirliftAt, COMDAT

; 1023 : {

	push	ecx
	push	ebx
	push	esi

; 1024 : 	CvUnit* pkUnit = GetInstance(L);

	mov	esi, DWORD PTR _L$[esp+8]
	push	edi
	push	esi
	call	_lua_gettop
	push	1
	push	esi
	mov	edi, eax
	mov	bl, 1
	mov	DWORD PTR _pkInstance$226103[esp+28], 0
	call	_lua_type
	add	esp, 12					; 0000000cH
	cmp	eax, 5
	jne	SHORT $LN5@lCanAirlif@2
	push	OFFSET $SG224203
	push	1
	push	esi
	call	_lua_getfield
	push	-1
	push	esi
	call	_lua_type
	add	esp, 20					; 00000014H
	cmp	eax, 2
	jne	SHORT $LN5@lCanAirlif@2
	push	-1
	push	esi
	call	_lua_touserdata
	add	esp, 8
	mov	DWORD PTR _pkInstance$226103[esp+16], eax
	test	eax, eax
	je	SHORT $LN5@lCanAirlif@2
	xor	bl, bl
$LN5@lCanAirlif@2:
	push	edi
	push	esi
	call	_lua_settop
	add	esp, 8
	test	bl, bl
	je	SHORT $LN10@lCanAirlif@2
	push	OFFSET $SG224209
	push	esi
	call	_luaL_error
	push	OFFSET $SG221232
	push	esi
	call	_luaL_error
	add	esp, 16					; 00000010H
$LN10@lCanAirlif@2:
	push	ebp

; 1025 : 	CvPlot* pkPlot = CvLuaPlot::GetInstance(L, 2);

	push	esi
	call	_lua_gettop
	push	2
	push	esi
	mov	ebp, eax
	mov	bl, 1
	xor	edi, edi
	call	_lua_type
	add	esp, 12					; 0000000cH
	cmp	eax, 5
	jne	SHORT $LN14@lCanAirlif@2
	push	OFFSET $SG224163
	push	2
	push	esi
	call	_lua_getfield
	push	-1
	push	esi
	call	_lua_type
	add	esp, 20					; 00000014H
	cmp	eax, 2
	jne	SHORT $LN14@lCanAirlif@2
	push	-1
	push	esi
	call	_lua_touserdata
	mov	edi, eax
	add	esp, 8
	test	edi, edi
	je	SHORT $LN14@lCanAirlif@2
	xor	bl, bl
$LN14@lCanAirlif@2:
	push	ebp
	push	esi
	call	_lua_settop
	add	esp, 8
	pop	ebp
	test	bl, bl
	je	SHORT $LN13@lCanAirlif@2
	push	esi
	call	?HandleMissingInstance@CvLuaPlot@@SAXPAUlua_State@@@Z ; CvLuaPlot::HandleMissingInstance
	add	esp, 4
$LN13@lCanAirlif@2:

; 1026 : 	const int x = lua_tointeger(L, 3);

	push	3
	push	esi
	call	_lua_tointeger

; 1027 : 	const int y = lua_tointeger(L, 4);

	push	4
	push	esi
	mov	ebx, eax
	call	_lua_tointeger

; 1028 : 	const bool bResult = pkUnit->canAirliftAt(pkPlot, x, y);

	mov	ecx, DWORD PTR _pkInstance$226103[esp+32]
	add	esp, 16					; 00000010H
	push	eax
	push	ebx
	push	edi
	call	?canAirliftAt@CvUnit@@QBE_NPBVCvPlot@@HH@Z ; CvUnit::canAirliftAt

; 1029 : 
; 1030 : 	lua_pushboolean(L, bResult);

	movzx	eax, al
	push	eax
	push	esi
	call	_lua_pushboolean
	add	esp, 8
	pop	edi
	pop	esi

; 1031 : 	return 1;

	mov	eax, 1
	pop	ebx

; 1032 : }

	pop	ecx
	ret	0
?lCanAirliftAt@CvLuaUnit@@KAHPAUlua_State@@@Z ENDP	; CvLuaUnit::lCanAirliftAt
_TEXT	ENDS
PUBLIC	?lIsNukeVictim@CvLuaUnit@@KAHPAUlua_State@@@Z	; CvLuaUnit::lIsNukeVictim
EXTRN	?isNukeVictim@CvUnit@@QBE_NPBVCvPlot@@W4TeamTypes@@@Z:PROC ; CvUnit::isNukeVictim
; Function compile flags: /Ogtpy
;	COMDAT ?lIsNukeVictim@CvLuaUnit@@KAHPAUlua_State@@@Z
_TEXT	SEGMENT
_pkInstance$226133 = -4					; size = 4
_L$ = 8							; size = 4
?lIsNukeVictim@CvLuaUnit@@KAHPAUlua_State@@@Z PROC	; CvLuaUnit::lIsNukeVictim, COMDAT

; 1036 : {

	push	ecx
	push	ebx
	push	ebp
	push	esi

; 1037 : 	CvUnit* pkUnit = GetInstance(L);

	mov	esi, DWORD PTR _L$[esp+12]
	push	edi
	push	esi
	call	_lua_gettop
	push	1
	push	esi
	mov	edi, eax
	mov	bl, 1
	mov	DWORD PTR _pkInstance$226133[esp+32], 0
	call	_lua_type
	add	esp, 12					; 0000000cH
	cmp	eax, 5
	jne	SHORT $LN5@lIsNukeVic
	push	OFFSET $SG224203
	push	1
	push	esi
	call	_lua_getfield
	push	-1
	push	esi
	call	_lua_type
	add	esp, 20					; 00000014H
	cmp	eax, 2
	jne	SHORT $LN5@lIsNukeVic
	push	-1
	push	esi
	call	_lua_touserdata
	add	esp, 8
	mov	DWORD PTR _pkInstance$226133[esp+20], eax
	test	eax, eax
	je	SHORT $LN5@lIsNukeVic
	xor	bl, bl
$LN5@lIsNukeVic:
	push	edi
	push	esi
	call	_lua_settop
	add	esp, 8
	test	bl, bl
	je	SHORT $LN10@lIsNukeVic
	push	OFFSET $SG224209
	push	esi
	call	_luaL_error
	push	OFFSET $SG221232
	push	esi
	call	_luaL_error
	add	esp, 16					; 00000010H
$LN10@lIsNukeVic:

; 1038 : 	CvPlot* pkPlot = CvLuaPlot::GetInstance(L, 2);

	push	esi
	call	_lua_gettop
	push	2
	push	esi
	mov	ebp, eax
	mov	bl, 1
	xor	edi, edi
	call	_lua_type
	add	esp, 12					; 0000000cH
	cmp	eax, 5
	jne	SHORT $LN14@lIsNukeVic
	push	OFFSET $SG224163
	push	2
	push	esi
	call	_lua_getfield
	push	-1
	push	esi
	call	_lua_type
	add	esp, 20					; 00000014H
	cmp	eax, 2
	jne	SHORT $LN14@lIsNukeVic
	push	-1
	push	esi
	call	_lua_touserdata
	mov	edi, eax
	add	esp, 8
	test	edi, edi
	je	SHORT $LN14@lIsNukeVic
	xor	bl, bl
$LN14@lIsNukeVic:
	push	ebp
	push	esi
	call	_lua_settop
	add	esp, 8
	test	bl, bl
	je	SHORT $LN13@lIsNukeVic
	push	esi
	call	?HandleMissingInstance@CvLuaPlot@@SAXPAUlua_State@@@Z ; CvLuaPlot::HandleMissingInstance
	add	esp, 4
$LN13@lIsNukeVic:

; 1039 : 	const TeamTypes eTeam = (TeamTypes)lua_tointeger(L, 3);

	push	3
	push	esi
	call	_lua_tointeger

; 1040 : 	const bool bResult = pkUnit->isNukeVictim(pkPlot, eTeam);

	mov	ecx, DWORD PTR _pkInstance$226133[esp+28]
	add	esp, 8
	push	eax
	push	edi
	call	?isNukeVictim@CvUnit@@QBE_NPBVCvPlot@@W4TeamTypes@@@Z ; CvUnit::isNukeVictim

; 1041 : 
; 1042 : 	lua_pushboolean(L, bResult);

	movzx	eax, al
	push	eax
	push	esi
	call	_lua_pushboolean
	add	esp, 8
	pop	edi
	pop	esi
	pop	ebp

; 1043 : 	return 1;

	mov	eax, 1
	pop	ebx

; 1044 : }

	pop	ecx
	ret	0
?lIsNukeVictim@CvLuaUnit@@KAHPAUlua_State@@@Z ENDP	; CvLuaUnit::lIsNukeVictim
_TEXT	ENDS
PUBLIC	?lCanNuke@CvLuaUnit@@KAHPAUlua_State@@@Z	; CvLuaUnit::lCanNuke
EXTRN	?canNuke@CvUnit@@QBE_NPBVCvPlot@@@Z:PROC	; CvUnit::canNuke
EXTRN	?plot@CvUnit@@QBEPAVCvPlot@@XZ:PROC		; CvUnit::plot
; Function compile flags: /Ogtpy
;	COMDAT ?lCanNuke@CvLuaUnit@@KAHPAUlua_State@@@Z
_TEXT	SEGMENT
_L$ = 8							; size = 4
?lCanNuke@CvLuaUnit@@KAHPAUlua_State@@@Z PROC		; CvLuaUnit::lCanNuke, COMDAT

; 1048 : {

	push	ebx
	push	ebp
	push	esi

; 1049 : 	CvUnit* pkUnit = GetInstance(L);

	mov	esi, DWORD PTR _L$[esp+8]
	push	edi
	push	esi
	call	_lua_gettop
	push	1
	push	esi
	mov	ebp, eax
	mov	bl, 1
	xor	edi, edi
	call	_lua_type
	add	esp, 12					; 0000000cH
	cmp	eax, 5
	jne	SHORT $LN5@lCanNuke
	push	OFFSET $SG224203
	push	1
	push	esi
	call	_lua_getfield
	push	-1
	push	esi
	call	_lua_type
	add	esp, 20					; 00000014H
	cmp	eax, 2
	jne	SHORT $LN5@lCanNuke
	push	-1
	push	esi
	call	_lua_touserdata
	mov	edi, eax
	add	esp, 8
	test	edi, edi
	je	SHORT $LN5@lCanNuke
	xor	bl, bl
$LN5@lCanNuke:
	push	ebp
	push	esi
	call	_lua_settop
	add	esp, 8
	test	bl, bl
	je	SHORT $LN10@lCanNuke
	push	OFFSET $SG224209
	push	esi
	call	_luaL_error
	push	OFFSET $SG221232
	push	esi
	call	_luaL_error
	add	esp, 16					; 00000010H
$LN10@lCanNuke:

; 1050 : 	const bool bResult = pkUnit->canNuke(pkUnit->plot());

	mov	ecx, edi
	call	?plot@CvUnit@@QBEPAVCvPlot@@XZ		; CvUnit::plot
	push	eax
	mov	ecx, edi
	call	?canNuke@CvUnit@@QBE_NPBVCvPlot@@@Z	; CvUnit::canNuke

; 1051 : 
; 1052 : 	lua_pushboolean(L, bResult);

	movzx	eax, al
	push	eax
	push	esi
	call	_lua_pushboolean
	add	esp, 8
	pop	edi
	pop	esi
	pop	ebp

; 1053 : 	return 1;

	mov	eax, 1
	pop	ebx

; 1054 : }

	ret	0
?lCanNuke@CvLuaUnit@@KAHPAUlua_State@@@Z ENDP		; CvLuaUnit::lCanNuke
_TEXT	ENDS
PUBLIC	?lCanNukeAt@CvLuaUnit@@KAHPAUlua_State@@@Z	; CvLuaUnit::lCanNukeAt
EXTRN	?canNukeAt@CvUnit@@QBE_NPBVCvPlot@@HH@Z:PROC	; CvUnit::canNukeAt
; Function compile flags: /Ogtpy
;	COMDAT ?lCanNukeAt@CvLuaUnit@@KAHPAUlua_State@@@Z
_TEXT	SEGMENT
_L$ = 8							; size = 4
?lCanNukeAt@CvLuaUnit@@KAHPAUlua_State@@@Z PROC		; CvLuaUnit::lCanNukeAt, COMDAT

; 1058 : {

	push	ebx
	push	ebp
	push	esi

; 1059 : 	CvUnit* pkUnit = GetInstance(L);

	mov	esi, DWORD PTR _L$[esp+8]
	push	edi
	push	esi
	call	_lua_gettop
	push	1
	push	esi
	mov	ebp, eax
	mov	bl, 1
	xor	edi, edi
	call	_lua_type
	add	esp, 12					; 0000000cH
	cmp	eax, 5
	jne	SHORT $LN5@lCanNukeAt
	push	OFFSET $SG224203
	push	1
	push	esi
	call	_lua_getfield
	push	-1
	push	esi
	call	_lua_type
	add	esp, 20					; 00000014H
	cmp	eax, 2
	jne	SHORT $LN5@lCanNukeAt
	push	-1
	push	esi
	call	_lua_touserdata
	mov	edi, eax
	add	esp, 8
	test	edi, edi
	je	SHORT $LN5@lCanNukeAt
	xor	bl, bl
$LN5@lCanNukeAt:
	push	ebp
	push	esi
	call	_lua_settop
	add	esp, 8
	test	bl, bl
	je	SHORT $LN10@lCanNukeAt
	push	OFFSET $SG224209
	push	esi
	call	_luaL_error
	push	OFFSET $SG221232
	push	esi
	call	_luaL_error
	add	esp, 16					; 00000010H
$LN10@lCanNukeAt:

; 1060 : 	const int x = lua_tointeger(L, 2);

	push	2
	push	esi
	call	_lua_tointeger

; 1061 : 	const int y = lua_tointeger(L, 3);

	push	3
	push	esi
	mov	ebx, eax
	call	_lua_tointeger
	add	esp, 16					; 00000010H

; 1062 : 	const bool bResult = pkUnit->canNukeAt(pkUnit->plot(), x, y);

	push	eax
	push	ebx
	mov	ecx, edi
	call	?plot@CvUnit@@QBEPAVCvPlot@@XZ		; CvUnit::plot
	push	eax
	mov	ecx, edi
	call	?canNukeAt@CvUnit@@QBE_NPBVCvPlot@@HH@Z	; CvUnit::canNukeAt

; 1063 : 
; 1064 : 	lua_pushboolean(L, bResult);

	movzx	eax, al
	push	eax
	push	esi
	call	_lua_pushboolean
	add	esp, 8
	pop	edi
	pop	esi
	pop	ebp

; 1065 : 	return 1;

	mov	eax, 1
	pop	ebx

; 1066 : }

	ret	0
?lCanNukeAt@CvLuaUnit@@KAHPAUlua_State@@@Z ENDP		; CvLuaUnit::lCanNukeAt
_TEXT	ENDS
PUBLIC	?lCanRangeStrike@CvLuaUnit@@KAHPAUlua_State@@@Z	; CvLuaUnit::lCanRangeStrike
EXTRN	?canRangeStrike@CvUnit@@QBE_NXZ:PROC		; CvUnit::canRangeStrike
; Function compile flags: /Ogtpy
;	COMDAT ?lCanRangeStrike@CvLuaUnit@@KAHPAUlua_State@@@Z
_TEXT	SEGMENT
_L$ = 8							; size = 4
?lCanRangeStrike@CvLuaUnit@@KAHPAUlua_State@@@Z PROC	; CvLuaUnit::lCanRangeStrike, COMDAT

; 1071 : 	return BasicLuaMethod(L, &CvUnit::canRangeStrike);

	mov	eax, DWORD PTR _L$[esp-4]
	push	OFFSET ?canRangeStrike@CvUnit@@QBE_NXZ	; CvUnit::canRangeStrike
	push	eax
	call	??$BasicLuaMethod@_N@?$CvLuaMethodWrapper@VCvLuaUnit@@VCvUnit@@@@KAHPAUlua_State@@P8CvUnit@@BE_NXZ@Z ; CvLuaMethodWrapper<CvLuaUnit,CvUnit>::BasicLuaMethod<bool>
	add	esp, 8

; 1072 : }

	ret	0
?lCanRangeStrike@CvLuaUnit@@KAHPAUlua_State@@@Z ENDP	; CvLuaUnit::lCanRangeStrike
_TEXT	ENDS
PUBLIC	?lCanRangeStrikeAt@CvLuaUnit@@KAHPAUlua_State@@@Z ; CvLuaUnit::lCanRangeStrikeAt
EXTRN	?canRangeStrikeAt@CvUnit@@QBE_NHH_N0@Z:PROC	; CvUnit::canRangeStrikeAt
; Function compile flags: /Ogtpy
;	COMDAT ?lCanRangeStrikeAt@CvLuaUnit@@KAHPAUlua_State@@@Z
_TEXT	SEGMENT
_bNoncombatAllowed$ = -8				; size = 1
_bNeedsWar$ = -4					; size = 1
_L$ = 8							; size = 4
?lCanRangeStrikeAt@CvLuaUnit@@KAHPAUlua_State@@@Z PROC	; CvLuaUnit::lCanRangeStrikeAt, COMDAT

; 1076 : {

	sub	esp, 8
	push	ebx
	push	ebp
	push	esi

; 1077 : 	CvUnit* pkUnit = GetInstance(L);

	mov	esi, DWORD PTR _L$[esp+16]
	push	edi
	push	esi
	call	_lua_gettop
	push	1
	push	esi
	mov	ebp, eax
	mov	bl, 1
	xor	edi, edi
	call	_lua_type
	add	esp, 12					; 0000000cH
	cmp	eax, 5
	jne	SHORT $LN5@lCanRangeS
	push	OFFSET $SG224203
	push	1
	push	esi
	call	_lua_getfield
	push	-1
	push	esi
	call	_lua_type
	add	esp, 20					; 00000014H
	cmp	eax, 2
	jne	SHORT $LN5@lCanRangeS
	push	-1
	push	esi
	call	_lua_touserdata
	mov	edi, eax
	add	esp, 8
	test	edi, edi
	je	SHORT $LN5@lCanRangeS
	xor	bl, bl
$LN5@lCanRangeS:
	push	ebp
	push	esi
	call	_lua_settop
	add	esp, 8
	test	bl, bl
	je	SHORT $LN10@lCanRangeS
	push	OFFSET $SG224209
	push	esi
	call	_luaL_error
	push	OFFSET $SG221232
	push	esi
	call	_luaL_error
	add	esp, 16					; 00000010H
$LN10@lCanRangeS:

; 1078 : 	const int x = lua_tointeger(L, 2);

	push	2
	push	esi
	call	_lua_tointeger

; 1079 : 	const int y = lua_tointeger(L, 3);

	push	3
	push	esi
	mov	ebx, eax
	call	_lua_tointeger

; 1080 : 	const bool bNeedsWar = luaL_optbool(L, 4, true);

	push	1
	push	4
	push	esi
	mov	ebp, eax
	call	?luaL_optbool@@YA_NPAUlua_State@@H_N@Z	; luaL_optbool

; 1081 : 	const bool bNoncombatAllowed = luaL_optbool(L, 5, true);

	push	1
	push	5
	push	esi
	mov	BYTE PTR _bNeedsWar$[esp+64], al
	call	?luaL_optbool@@YA_NPAUlua_State@@H_N@Z	; luaL_optbool

; 1082 : 
; 1083 : 	const bool bResult = pkUnit->canRangeStrikeAt(x, y, bNeedsWar, bNoncombatAllowed);

	mov	ecx, DWORD PTR _bNeedsWar$[esp+64]
	add	esp, 40					; 00000028H
	mov	BYTE PTR _bNoncombatAllowed$[esp+24], al
	mov	eax, DWORD PTR _bNoncombatAllowed$[esp+24]
	push	eax
	push	ecx
	push	ebp
	push	ebx
	mov	ecx, edi
	call	?canRangeStrikeAt@CvUnit@@QBE_NHH_N0@Z	; CvUnit::canRangeStrikeAt

; 1084 : 
; 1085 : 	lua_pushboolean(L, bResult);

	movzx	edx, al
	push	edx
	push	esi
	call	_lua_pushboolean
	add	esp, 8
	pop	edi
	pop	esi
	pop	ebp

; 1086 : 	return 1;

	mov	eax, 1
	pop	ebx

; 1087 : 
; 1088 : 	//return BasicLuaMethod(L, &CvUnit::canRangeStrikeAt);
; 1089 : }

	add	esp, 8
	ret	0
?lCanRangeStrikeAt@CvLuaUnit@@KAHPAUlua_State@@@Z ENDP	; CvLuaUnit::lCanRangeStrikeAt
_TEXT	ENDS
PUBLIC	?lCanParadrop@CvLuaUnit@@KAHPAUlua_State@@@Z	; CvLuaUnit::lCanParadrop
EXTRN	?canParadrop@CvUnit@@QBE_NPBVCvPlot@@_N@Z:PROC	; CvUnit::canParadrop
; Function compile flags: /Ogtpy
;	COMDAT ?lCanParadrop@CvLuaUnit@@KAHPAUlua_State@@@Z
_TEXT	SEGMENT
_pkInstance$226223 = -8					; size = 4
_bTestVisibility$ = -4					; size = 1
_L$ = 8							; size = 4
?lCanParadrop@CvLuaUnit@@KAHPAUlua_State@@@Z PROC	; CvLuaUnit::lCanParadrop, COMDAT

; 1121 : {

	sub	esp, 8
	push	ebx
	push	ebp
	push	esi

; 1122 : 	CvUnit* pkUnit = GetInstance(L);

	mov	esi, DWORD PTR _L$[esp+16]
	push	edi
	push	esi
	call	_lua_gettop
	push	1
	push	esi
	mov	edi, eax
	mov	bl, 1
	mov	DWORD PTR _pkInstance$226223[esp+36], 0
	call	_lua_type
	add	esp, 12					; 0000000cH
	cmp	eax, 5
	jne	SHORT $LN5@lCanParadr
	push	OFFSET $SG224203
	push	1
	push	esi
	call	_lua_getfield
	push	-1
	push	esi
	call	_lua_type
	add	esp, 20					; 00000014H
	cmp	eax, 2
	jne	SHORT $LN5@lCanParadr
	push	-1
	push	esi
	call	_lua_touserdata
	add	esp, 8
	mov	DWORD PTR _pkInstance$226223[esp+24], eax
	test	eax, eax
	je	SHORT $LN5@lCanParadr
	xor	bl, bl
$LN5@lCanParadr:
	push	edi
	push	esi
	call	_lua_settop
	add	esp, 8
	test	bl, bl
	je	SHORT $LN10@lCanParadr
	push	OFFSET $SG224209
	push	esi
	call	_luaL_error
	push	OFFSET $SG221232
	push	esi
	call	_luaL_error
	add	esp, 16					; 00000010H
$LN10@lCanParadr:

; 1123 : 	CvPlot* pkPlot = CvLuaPlot::GetInstance(L, 2);

	push	esi
	call	_lua_gettop
	push	2
	push	esi
	mov	ebp, eax
	mov	bl, 1
	xor	edi, edi
	call	_lua_type
	add	esp, 12					; 0000000cH
	cmp	eax, 5
	jne	SHORT $LN14@lCanParadr
	push	OFFSET $SG224163
	push	2
	push	esi
	call	_lua_getfield
	push	-1
	push	esi
	call	_lua_type
	add	esp, 20					; 00000014H
	cmp	eax, 2
	jne	SHORT $LN14@lCanParadr
	push	-1
	push	esi
	call	_lua_touserdata
	mov	edi, eax
	add	esp, 8
	test	edi, edi
	je	SHORT $LN14@lCanParadr
	xor	bl, bl
$LN14@lCanParadr:
	push	ebp
	push	esi
	call	_lua_settop
	add	esp, 8
	test	bl, bl
	je	SHORT $LN13@lCanParadr
	push	esi
	call	?HandleMissingInstance@CvLuaPlot@@SAXPAUlua_State@@@Z ; CvLuaPlot::HandleMissingInstance
	add	esp, 4
$LN13@lCanParadr:

; 1124 : 	bool bTestVisibility = lua_toboolean(L, 3);

	push	3
	push	esi
	call	_lua_toboolean
	add	esp, 8
	test	eax, eax
	setne	al
	mov	BYTE PTR _bTestVisibility$[esp+24], al

; 1125 : 	const bool bResult = pkUnit->canParadrop(pkPlot, bTestVisibility);

	mov	ecx, DWORD PTR _bTestVisibility$[esp+24]
	push	ecx
	mov	ecx, DWORD PTR _pkInstance$226223[esp+28]
	push	edi
	call	?canParadrop@CvUnit@@QBE_NPBVCvPlot@@_N@Z ; CvUnit::canParadrop

; 1126 : 
; 1127 : 	lua_pushboolean(L, bResult);

	movzx	edx, al
	push	edx
	push	esi
	call	_lua_pushboolean
	add	esp, 8
	pop	edi
	pop	esi
	pop	ebp

; 1128 : 	return 1;

	mov	eax, 1
	pop	ebx

; 1129 : }

	add	esp, 8
	ret	0
?lCanParadrop@CvLuaUnit@@KAHPAUlua_State@@@Z ENDP	; CvLuaUnit::lCanParadrop
_TEXT	ENDS
PUBLIC	?lCanParadropAt@CvLuaUnit@@KAHPAUlua_State@@@Z	; CvLuaUnit::lCanParadropAt
EXTRN	?canParadropAt@CvUnit@@QBE_NPBVCvPlot@@HH@Z:PROC ; CvUnit::canParadropAt
; Function compile flags: /Ogtpy
;	COMDAT ?lCanParadropAt@CvLuaUnit@@KAHPAUlua_State@@@Z
_TEXT	SEGMENT
_pkInstance$226253 = -4					; size = 4
_L$ = 8							; size = 4
?lCanParadropAt@CvLuaUnit@@KAHPAUlua_State@@@Z PROC	; CvLuaUnit::lCanParadropAt, COMDAT

; 1133 : {

	push	ecx
	push	ebx
	push	esi

; 1134 : 	CvUnit* pkUnit = GetInstance(L);

	mov	esi, DWORD PTR _L$[esp+8]
	push	edi
	push	esi
	call	_lua_gettop
	push	1
	push	esi
	mov	edi, eax
	mov	bl, 1
	mov	DWORD PTR _pkInstance$226253[esp+28], 0
	call	_lua_type
	add	esp, 12					; 0000000cH
	cmp	eax, 5
	jne	SHORT $LN5@lCanParadr@2
	push	OFFSET $SG224203
	push	1
	push	esi
	call	_lua_getfield
	push	-1
	push	esi
	call	_lua_type
	add	esp, 20					; 00000014H
	cmp	eax, 2
	jne	SHORT $LN5@lCanParadr@2
	push	-1
	push	esi
	call	_lua_touserdata
	add	esp, 8
	mov	DWORD PTR _pkInstance$226253[esp+16], eax
	test	eax, eax
	je	SHORT $LN5@lCanParadr@2
	xor	bl, bl
$LN5@lCanParadr@2:
	push	edi
	push	esi
	call	_lua_settop
	add	esp, 8
	test	bl, bl
	je	SHORT $LN10@lCanParadr@2
	push	OFFSET $SG224209
	push	esi
	call	_luaL_error
	push	OFFSET $SG221232
	push	esi
	call	_luaL_error
	add	esp, 16					; 00000010H
$LN10@lCanParadr@2:
	push	ebp

; 1135 : 	CvPlot* pkPlot = CvLuaPlot::GetInstance(L, 2);

	push	esi
	call	_lua_gettop
	push	2
	push	esi
	mov	ebp, eax
	mov	bl, 1
	xor	edi, edi
	call	_lua_type
	add	esp, 12					; 0000000cH
	cmp	eax, 5
	jne	SHORT $LN14@lCanParadr@2
	push	OFFSET $SG224163
	push	2
	push	esi
	call	_lua_getfield
	push	-1
	push	esi
	call	_lua_type
	add	esp, 20					; 00000014H
	cmp	eax, 2
	jne	SHORT $LN14@lCanParadr@2
	push	-1
	push	esi
	call	_lua_touserdata
	mov	edi, eax
	add	esp, 8
	test	edi, edi
	je	SHORT $LN14@lCanParadr@2
	xor	bl, bl
$LN14@lCanParadr@2:
	push	ebp
	push	esi
	call	_lua_settop
	add	esp, 8
	pop	ebp
	test	bl, bl
	je	SHORT $LN13@lCanParadr@2
	push	esi
	call	?HandleMissingInstance@CvLuaPlot@@SAXPAUlua_State@@@Z ; CvLuaPlot::HandleMissingInstance
	add	esp, 4
$LN13@lCanParadr@2:

; 1136 : 	const int x = lua_tointeger(L, 3);

	push	3
	push	esi
	call	_lua_tointeger

; 1137 : 	const int y = lua_tointeger(L, 4);

	push	4
	push	esi
	mov	ebx, eax
	call	_lua_tointeger

; 1138 : 	const bool bResult = pkUnit->canParadropAt(pkPlot, x, y);

	mov	ecx, DWORD PTR _pkInstance$226253[esp+32]
	add	esp, 16					; 00000010H
	push	eax
	push	ebx
	push	edi
	call	?canParadropAt@CvUnit@@QBE_NPBVCvPlot@@HH@Z ; CvUnit::canParadropAt

; 1139 : 
; 1140 : 	lua_pushboolean(L, bResult);

	movzx	eax, al
	push	eax
	push	esi
	call	_lua_pushboolean
	add	esp, 8
	pop	edi
	pop	esi

; 1141 : 	return 1;

	mov	eax, 1
	pop	ebx

; 1142 : }

	pop	ecx
	ret	0
?lCanParadropAt@CvLuaUnit@@KAHPAUlua_State@@@Z ENDP	; CvLuaUnit::lCanParadropAt
_TEXT	ENDS
PUBLIC	?lCanMakeTradeRoute@CvLuaUnit@@KAHPAUlua_State@@@Z ; CvLuaUnit::lCanMakeTradeRoute
EXTRN	?canMakeTradeRoute@CvUnit@@QBE_NPBVCvPlot@@@Z:PROC ; CvUnit::canMakeTradeRoute
; Function compile flags: /Ogtpy
;	COMDAT ?lCanMakeTradeRoute@CvLuaUnit@@KAHPAUlua_State@@@Z
_TEXT	SEGMENT
_pkInstance$226280 = -4					; size = 4
_L$ = 8							; size = 4
?lCanMakeTradeRoute@CvLuaUnit@@KAHPAUlua_State@@@Z PROC	; CvLuaUnit::lCanMakeTradeRoute, COMDAT

; 1146 : {

	push	ecx
	push	ebx
	push	ebp
	push	esi

; 1147 : 	CvUnit* pkUnit = GetInstance(L);

	mov	esi, DWORD PTR _L$[esp+12]
	push	edi
	push	esi
	call	_lua_gettop
	push	1
	push	esi
	mov	edi, eax
	mov	bl, 1
	mov	DWORD PTR _pkInstance$226280[esp+32], 0
	call	_lua_type
	add	esp, 12					; 0000000cH
	cmp	eax, 5
	jne	SHORT $LN5@lCanMakeTr
	push	OFFSET $SG224203
	push	1
	push	esi
	call	_lua_getfield
	push	-1
	push	esi
	call	_lua_type
	add	esp, 20					; 00000014H
	cmp	eax, 2
	jne	SHORT $LN5@lCanMakeTr
	push	-1
	push	esi
	call	_lua_touserdata
	add	esp, 8
	mov	DWORD PTR _pkInstance$226280[esp+20], eax
	test	eax, eax
	je	SHORT $LN5@lCanMakeTr
	xor	bl, bl
$LN5@lCanMakeTr:
	push	edi
	push	esi
	call	_lua_settop
	add	esp, 8
	test	bl, bl
	je	SHORT $LN10@lCanMakeTr
	push	OFFSET $SG224209
	push	esi
	call	_luaL_error
	push	OFFSET $SG221232
	push	esi
	call	_luaL_error
	add	esp, 16					; 00000010H
$LN10@lCanMakeTr:

; 1148 : 	CvPlot* pkPlot = CvLuaPlot::GetInstance(L, 2);

	push	esi
	call	_lua_gettop
	push	2
	push	esi
	mov	ebp, eax
	mov	bl, 1
	xor	edi, edi
	call	_lua_type
	add	esp, 12					; 0000000cH
	cmp	eax, 5
	jne	SHORT $LN14@lCanMakeTr
	push	OFFSET $SG224163
	push	2
	push	esi
	call	_lua_getfield
	push	-1
	push	esi
	call	_lua_type
	add	esp, 20					; 00000014H
	cmp	eax, 2
	jne	SHORT $LN14@lCanMakeTr
	push	-1
	push	esi
	call	_lua_touserdata
	mov	edi, eax
	add	esp, 8
	test	edi, edi
	je	SHORT $LN14@lCanMakeTr
	xor	bl, bl
$LN14@lCanMakeTr:
	push	ebp
	push	esi
	call	_lua_settop
	add	esp, 8
	test	bl, bl
	je	SHORT $LN13@lCanMakeTr
	push	esi
	call	?HandleMissingInstance@CvLuaPlot@@SAXPAUlua_State@@@Z ; CvLuaPlot::HandleMissingInstance
	add	esp, 4
$LN13@lCanMakeTr:

; 1149 : 	const bool bResult = pkUnit->canMakeTradeRoute(pkPlot);

	mov	ecx, DWORD PTR _pkInstance$226280[esp+20]
	push	edi
	call	?canMakeTradeRoute@CvUnit@@QBE_NPBVCvPlot@@@Z ; CvUnit::canMakeTradeRoute

; 1150 : 
; 1151 : 	lua_pushboolean(L, bResult);

	movzx	eax, al
	push	eax
	push	esi
	call	_lua_pushboolean
	add	esp, 8
	pop	edi
	pop	esi
	pop	ebp

; 1152 : 	return 1;

	mov	eax, 1
	pop	ebx

; 1153 : }

	pop	ecx
	ret	0
?lCanMakeTradeRoute@CvLuaUnit@@KAHPAUlua_State@@@Z ENDP	; CvLuaUnit::lCanMakeTradeRoute
_TEXT	ENDS
PUBLIC	?lCanMakeTradeRouteAt@CvLuaUnit@@KAHPAUlua_State@@@Z ; CvLuaUnit::lCanMakeTradeRouteAt
EXTRN	?canMakeTradeRouteAt@CvUnit@@QBE_NPBVCvPlot@@HHW4TradeConnectionType@@@Z:PROC ; CvUnit::canMakeTradeRouteAt
; Function compile flags: /Ogtpy
;	COMDAT ?lCanMakeTradeRouteAt@CvLuaUnit@@KAHPAUlua_State@@@Z
_TEXT	SEGMENT
_pkInstance$226312 = -4					; size = 4
_L$ = 8							; size = 4
?lCanMakeTradeRouteAt@CvLuaUnit@@KAHPAUlua_State@@@Z PROC ; CvLuaUnit::lCanMakeTradeRouteAt, COMDAT

; 1157 : {

	push	ecx
	push	ebx
	push	ebp
	push	esi

; 1158 : 	CvUnit* pkUnit = GetInstance(L);

	mov	esi, DWORD PTR _L$[esp+12]
	push	edi
	push	esi
	call	_lua_gettop
	push	1
	push	esi
	mov	edi, eax
	mov	bl, 1
	mov	DWORD PTR _pkInstance$226312[esp+32], 0
	call	_lua_type
	add	esp, 12					; 0000000cH
	cmp	eax, 5
	jne	SHORT $LN5@lCanMakeTr@2
	push	OFFSET $SG224203
	push	1
	push	esi
	call	_lua_getfield
	push	-1
	push	esi
	call	_lua_type
	add	esp, 20					; 00000014H
	cmp	eax, 2
	jne	SHORT $LN5@lCanMakeTr@2
	push	-1
	push	esi
	call	_lua_touserdata
	add	esp, 8
	mov	DWORD PTR _pkInstance$226312[esp+20], eax
	test	eax, eax
	je	SHORT $LN5@lCanMakeTr@2
	xor	bl, bl
$LN5@lCanMakeTr@2:
	push	edi
	push	esi
	call	_lua_settop
	add	esp, 8
	test	bl, bl
	je	SHORT $LN10@lCanMakeTr@2
	push	OFFSET $SG224209
	push	esi
	call	_luaL_error
	push	OFFSET $SG221232
	push	esi
	call	_luaL_error
	add	esp, 16					; 00000010H
$LN10@lCanMakeTr@2:

; 1159 : 	CvPlot* pkPlot = CvLuaPlot::GetInstance(L, 2);

	push	esi
	call	_lua_gettop
	push	2
	push	esi
	mov	ebp, eax
	mov	bl, 1
	xor	edi, edi
	call	_lua_type
	add	esp, 12					; 0000000cH
	cmp	eax, 5
	jne	SHORT $LN14@lCanMakeTr@2
	push	OFFSET $SG224163
	push	2
	push	esi
	call	_lua_getfield
	push	-1
	push	esi
	call	_lua_type
	add	esp, 20					; 00000014H
	cmp	eax, 2
	jne	SHORT $LN14@lCanMakeTr@2
	push	-1
	push	esi
	call	_lua_touserdata
	mov	edi, eax
	add	esp, 8
	test	edi, edi
	je	SHORT $LN14@lCanMakeTr@2
	xor	bl, bl
$LN14@lCanMakeTr@2:
	push	ebp
	push	esi
	call	_lua_settop
	add	esp, 8
	test	bl, bl
	je	SHORT $LN13@lCanMakeTr@2
	push	esi
	call	?HandleMissingInstance@CvLuaPlot@@SAXPAUlua_State@@@Z ; CvLuaPlot::HandleMissingInstance
	add	esp, 4
$LN13@lCanMakeTr@2:

; 1160 : 	const int x = lua_tointeger(L, 3);

	push	3
	push	esi
	call	_lua_tointeger

; 1161 : 	const int y = lua_tointeger(L, 4);

	push	4
	push	esi
	mov	ebx, eax
	call	_lua_tointeger

; 1162 : 	TradeConnectionType eConnection = (TradeConnectionType)lua_tointeger(L, 5);

	push	5
	push	esi
	mov	ebp, eax
	call	_lua_tointeger

; 1163 : 	const bool bResult = pkUnit->canMakeTradeRouteAt(pkPlot, x, y, eConnection);

	mov	ecx, DWORD PTR _pkInstance$226312[esp+44]
	add	esp, 24					; 00000018H
	push	eax
	push	ebp
	push	ebx
	push	edi
	call	?canMakeTradeRouteAt@CvUnit@@QBE_NPBVCvPlot@@HHW4TradeConnectionType@@@Z ; CvUnit::canMakeTradeRouteAt

; 1164 : 
; 1165 : 	lua_pushboolean(L, bResult);

	movzx	eax, al
	push	eax
	push	esi
	call	_lua_pushboolean
	add	esp, 8
	pop	edi
	pop	esi
	pop	ebp

; 1166 : 	return 1;

	mov	eax, 1
	pop	ebx

; 1167 : }

	pop	ecx
	ret	0
?lCanMakeTradeRouteAt@CvLuaUnit@@KAHPAUlua_State@@@Z ENDP ; CvLuaUnit::lCanMakeTradeRouteAt
_TEXT	ENDS
PUBLIC	?lGetExoticGoodsGoldAmount@CvLuaUnit@@KAHPAUlua_State@@@Z ; CvLuaUnit::lGetExoticGoodsGoldAmount
EXTRN	?getExoticGoodsGoldAmount@CvUnit@@QAEHXZ:PROC	; CvUnit::getExoticGoodsGoldAmount
; Function compile flags: /Ogtpy
;	COMDAT ?lGetExoticGoodsGoldAmount@CvLuaUnit@@KAHPAUlua_State@@@Z
_TEXT	SEGMENT
_L$ = 8							; size = 4
?lGetExoticGoodsGoldAmount@CvLuaUnit@@KAHPAUlua_State@@@Z PROC ; CvLuaUnit::lGetExoticGoodsGoldAmount, COMDAT

; 1171 : {

	push	ebx
	push	ebp
	push	esi

; 1172 : 	CvUnit* pkUnit = GetInstance(L);

	mov	esi, DWORD PTR _L$[esp+8]
	push	edi
	push	esi
	call	_lua_gettop
	push	1
	push	esi
	mov	ebp, eax
	mov	bl, 1
	xor	edi, edi
	call	_lua_type
	add	esp, 12					; 0000000cH
	cmp	eax, 5
	jne	SHORT $LN5@lGetExotic
	push	OFFSET $SG224203
	push	1
	push	esi
	call	_lua_getfield
	push	-1
	push	esi
	call	_lua_type
	add	esp, 20					; 00000014H
	cmp	eax, 2
	jne	SHORT $LN5@lGetExotic
	push	-1
	push	esi
	call	_lua_touserdata
	mov	edi, eax
	add	esp, 8
	test	edi, edi
	je	SHORT $LN5@lGetExotic
	xor	bl, bl
$LN5@lGetExotic:
	push	ebp
	push	esi
	call	_lua_settop
	add	esp, 8
	test	bl, bl
	je	SHORT $LN10@lGetExotic
	push	OFFSET $SG224209
	push	esi
	call	_luaL_error
	push	OFFSET $SG221232
	push	esi
	call	_luaL_error
	add	esp, 16					; 00000010H
$LN10@lGetExotic:

; 1173 : 
; 1174 : 	const int iValue = pkUnit->getExoticGoodsGoldAmount();

	mov	ecx, edi
	call	?getExoticGoodsGoldAmount@CvUnit@@QAEHXZ ; CvUnit::getExoticGoodsGoldAmount

; 1175 : 	lua_pushinteger(L, iValue);

	push	eax
	push	esi
	call	_lua_pushinteger
	add	esp, 8
	pop	edi
	pop	esi
	pop	ebp

; 1176 : 	return 1;

	mov	eax, 1
	pop	ebx

; 1177 : }

	ret	0
?lGetExoticGoodsGoldAmount@CvLuaUnit@@KAHPAUlua_State@@@Z ENDP ; CvLuaUnit::lGetExoticGoodsGoldAmount
_TEXT	ENDS
PUBLIC	?lGetExoticGoodsXPAmount@CvLuaUnit@@KAHPAUlua_State@@@Z ; CvLuaUnit::lGetExoticGoodsXPAmount
EXTRN	?getExoticGoodsXPAmount@CvUnit@@QAEHXZ:PROC	; CvUnit::getExoticGoodsXPAmount
; Function compile flags: /Ogtpy
;	COMDAT ?lGetExoticGoodsXPAmount@CvLuaUnit@@KAHPAUlua_State@@@Z
_TEXT	SEGMENT
_L$ = 8							; size = 4
?lGetExoticGoodsXPAmount@CvLuaUnit@@KAHPAUlua_State@@@Z PROC ; CvLuaUnit::lGetExoticGoodsXPAmount, COMDAT

; 1181 : {

	push	ebx
	push	ebp
	push	esi

; 1182 : 	CvUnit* pkUnit = GetInstance(L);

	mov	esi, DWORD PTR _L$[esp+8]
	push	edi
	push	esi
	call	_lua_gettop
	push	1
	push	esi
	mov	ebp, eax
	mov	bl, 1
	xor	edi, edi
	call	_lua_type
	add	esp, 12					; 0000000cH
	cmp	eax, 5
	jne	SHORT $LN5@lGetExotic@2
	push	OFFSET $SG224203
	push	1
	push	esi
	call	_lua_getfield
	push	-1
	push	esi
	call	_lua_type
	add	esp, 20					; 00000014H
	cmp	eax, 2
	jne	SHORT $LN5@lGetExotic@2
	push	-1
	push	esi
	call	_lua_touserdata
	mov	edi, eax
	add	esp, 8
	test	edi, edi
	je	SHORT $LN5@lGetExotic@2
	xor	bl, bl
$LN5@lGetExotic@2:
	push	ebp
	push	esi
	call	_lua_settop
	add	esp, 8
	test	bl, bl
	je	SHORT $LN10@lGetExotic@2
	push	OFFSET $SG224209
	push	esi
	call	_luaL_error
	push	OFFSET $SG221232
	push	esi
	call	_luaL_error
	add	esp, 16					; 00000010H
$LN10@lGetExotic@2:

; 1183 : 
; 1184 : 	const int iValue = pkUnit->getExoticGoodsXPAmount();

	mov	ecx, edi
	call	?getExoticGoodsXPAmount@CvUnit@@QAEHXZ	; CvUnit::getExoticGoodsXPAmount

; 1185 : 	lua_pushinteger(L, iValue);

	push	eax
	push	esi
	call	_lua_pushinteger
	add	esp, 8
	pop	edi
	pop	esi
	pop	ebp

; 1186 : 	return 1;

	mov	eax, 1
	pop	ebx

; 1187 : }

	ret	0
?lGetExoticGoodsXPAmount@CvLuaUnit@@KAHPAUlua_State@@@Z ENDP ; CvLuaUnit::lGetExoticGoodsXPAmount
_TEXT	ENDS
PUBLIC	?lCanPillage@CvLuaUnit@@KAHPAUlua_State@@@Z	; CvLuaUnit::lCanPillage
EXTRN	?canPillage@CvUnit@@QBE_NPBVCvPlot@@@Z:PROC	; CvUnit::canPillage
; Function compile flags: /Ogtpy
;	COMDAT ?lCanPillage@CvLuaUnit@@KAHPAUlua_State@@@Z
_TEXT	SEGMENT
_pkInstance$226381 = -4					; size = 4
_L$ = 8							; size = 4
?lCanPillage@CvLuaUnit@@KAHPAUlua_State@@@Z PROC	; CvLuaUnit::lCanPillage, COMDAT

; 1191 : {

	push	ecx
	push	ebx
	push	ebp
	push	esi

; 1192 : 	CvUnit* pkUnit = GetInstance(L);

	mov	esi, DWORD PTR _L$[esp+12]
	push	edi
	push	esi
	call	_lua_gettop
	push	1
	push	esi
	mov	edi, eax
	mov	bl, 1
	mov	DWORD PTR _pkInstance$226381[esp+32], 0
	call	_lua_type
	add	esp, 12					; 0000000cH
	cmp	eax, 5
	jne	SHORT $LN5@lCanPillag
	push	OFFSET $SG224203
	push	1
	push	esi
	call	_lua_getfield
	push	-1
	push	esi
	call	_lua_type
	add	esp, 20					; 00000014H
	cmp	eax, 2
	jne	SHORT $LN5@lCanPillag
	push	-1
	push	esi
	call	_lua_touserdata
	add	esp, 8
	mov	DWORD PTR _pkInstance$226381[esp+20], eax
	test	eax, eax
	je	SHORT $LN5@lCanPillag
	xor	bl, bl
$LN5@lCanPillag:
	push	edi
	push	esi
	call	_lua_settop
	add	esp, 8
	test	bl, bl
	je	SHORT $LN10@lCanPillag
	push	OFFSET $SG224209
	push	esi
	call	_luaL_error
	push	OFFSET $SG221232
	push	esi
	call	_luaL_error
	add	esp, 16					; 00000010H
$LN10@lCanPillag:

; 1193 : 	CvPlot* pkPlot = CvLuaPlot::GetInstance(L, 2);

	push	esi
	call	_lua_gettop
	push	2
	push	esi
	mov	ebp, eax
	mov	bl, 1
	xor	edi, edi
	call	_lua_type
	add	esp, 12					; 0000000cH
	cmp	eax, 5
	jne	SHORT $LN14@lCanPillag
	push	OFFSET $SG224163
	push	2
	push	esi
	call	_lua_getfield
	push	-1
	push	esi
	call	_lua_type
	add	esp, 20					; 00000014H
	cmp	eax, 2
	jne	SHORT $LN14@lCanPillag
	push	-1
	push	esi
	call	_lua_touserdata
	mov	edi, eax
	add	esp, 8
	test	edi, edi
	je	SHORT $LN14@lCanPillag
	xor	bl, bl
$LN14@lCanPillag:
	push	ebp
	push	esi
	call	_lua_settop
	add	esp, 8
	test	bl, bl
	je	SHORT $LN13@lCanPillag
	push	esi
	call	?HandleMissingInstance@CvLuaPlot@@SAXPAUlua_State@@@Z ; CvLuaPlot::HandleMissingInstance
	add	esp, 4
$LN13@lCanPillag:

; 1194 : 	const bool bResult = pkUnit->canPillage(pkPlot);

	mov	ecx, DWORD PTR _pkInstance$226381[esp+20]
	push	edi
	call	?canPillage@CvUnit@@QBE_NPBVCvPlot@@@Z	; CvUnit::canPillage

; 1195 : 
; 1196 : 	lua_pushboolean(L, bResult);

	movzx	eax, al
	push	eax
	push	esi
	call	_lua_pushboolean
	add	esp, 8
	pop	edi
	pop	esi
	pop	ebp

; 1197 : 	return 1;

	mov	eax, 1
	pop	ebx

; 1198 : }

	pop	ecx
	ret	0
?lCanPillage@CvLuaUnit@@KAHPAUlua_State@@@Z ENDP	; CvLuaUnit::lCanPillage
_TEXT	ENDS
PUBLIC	?lIsSelected@CvLuaUnit@@KAHPAUlua_State@@@Z	; CvLuaUnit::lIsSelected
EXTRN	?IsSelected@CvUnit@@QBE_NXZ:PROC		; CvUnit::IsSelected
; Function compile flags: /Ogtpy
;	COMDAT ?lIsSelected@CvLuaUnit@@KAHPAUlua_State@@@Z
_TEXT	SEGMENT
_L$ = 8							; size = 4
?lIsSelected@CvLuaUnit@@KAHPAUlua_State@@@Z PROC	; CvLuaUnit::lIsSelected, COMDAT

; 1202 : {

	push	ebx
	push	ebp
	push	esi

; 1203 : 	CvUnit* pkUnit = GetInstance(L);

	mov	esi, DWORD PTR _L$[esp+8]
	push	edi
	push	esi
	call	_lua_gettop
	push	1
	push	esi
	mov	ebp, eax
	mov	bl, 1
	xor	edi, edi
	call	_lua_type
	add	esp, 12					; 0000000cH
	cmp	eax, 5
	jne	SHORT $LN5@lIsSelecte
	push	OFFSET $SG224203
	push	1
	push	esi
	call	_lua_getfield
	push	-1
	push	esi
	call	_lua_type
	add	esp, 20					; 00000014H
	cmp	eax, 2
	jne	SHORT $LN5@lIsSelecte
	push	-1
	push	esi
	call	_lua_touserdata
	mov	edi, eax
	add	esp, 8
	test	edi, edi
	je	SHORT $LN5@lIsSelecte
	xor	bl, bl
$LN5@lIsSelecte:
	push	ebp
	push	esi
	call	_lua_settop
	add	esp, 8
	test	bl, bl
	je	SHORT $LN10@lIsSelecte
	push	OFFSET $SG224209
	push	esi
	call	_luaL_error
	push	OFFSET $SG221232
	push	esi
	call	_luaL_error
	add	esp, 16					; 00000010H
$LN10@lIsSelecte:

; 1204 : 	const bool bResult = pkUnit->IsSelected();

	mov	ecx, edi
	call	?IsSelected@CvUnit@@QBE_NXZ		; CvUnit::IsSelected

; 1205 : 
; 1206 : 	lua_pushboolean(L, bResult);

	movzx	eax, al
	push	eax
	push	esi
	call	_lua_pushboolean
	add	esp, 8
	pop	edi
	pop	esi
	pop	ebp

; 1207 : 	return 1;

	mov	eax, 1
	pop	ebx

; 1208 : }

	ret	0
?lIsSelected@CvLuaUnit@@KAHPAUlua_State@@@Z ENDP	; CvLuaUnit::lIsSelected
_TEXT	ENDS
PUBLIC	?lCanFound@CvLuaUnit@@KAHPAUlua_State@@@Z	; CvLuaUnit::lCanFound
EXTRN	?canFound@CvUnit@@QBE_NPBVCvPlot@@_N@Z:PROC	; CvUnit::canFound
; Function compile flags: /Ogtpy
;	COMDAT ?lCanFound@CvLuaUnit@@KAHPAUlua_State@@@Z
_TEXT	SEGMENT
_pkInstance$226430 = -8					; size = 4
_bTestVisible$ = -4					; size = 1
_L$ = 8							; size = 4
?lCanFound@CvLuaUnit@@KAHPAUlua_State@@@Z PROC		; CvLuaUnit::lCanFound, COMDAT

; 1212 : {

	sub	esp, 8
	push	ebx
	push	ebp
	push	esi

; 1213 : 	CvUnit* pkUnit = GetInstance(L);

	mov	esi, DWORD PTR _L$[esp+16]
	push	edi
	push	esi
	call	_lua_gettop
	push	1
	push	esi
	mov	edi, eax
	mov	bl, 1
	mov	DWORD PTR _pkInstance$226430[esp+36], 0
	call	_lua_type
	add	esp, 12					; 0000000cH
	cmp	eax, 5
	jne	SHORT $LN5@lCanFound
	push	OFFSET $SG224203
	push	1
	push	esi
	call	_lua_getfield
	push	-1
	push	esi
	call	_lua_type
	add	esp, 20					; 00000014H
	cmp	eax, 2
	jne	SHORT $LN5@lCanFound
	push	-1
	push	esi
	call	_lua_touserdata
	add	esp, 8
	mov	DWORD PTR _pkInstance$226430[esp+24], eax
	test	eax, eax
	je	SHORT $LN5@lCanFound
	xor	bl, bl
$LN5@lCanFound:
	push	edi
	push	esi
	call	_lua_settop
	add	esp, 8
	test	bl, bl
	je	SHORT $LN10@lCanFound
	push	OFFSET $SG224209
	push	esi
	call	_luaL_error
	push	OFFSET $SG221232
	push	esi
	call	_luaL_error
	add	esp, 16					; 00000010H
$LN10@lCanFound:

; 1214 : 	CvPlot* pkPlot = CvLuaPlot::GetInstance(L, 2);

	push	esi
	call	_lua_gettop
	push	2
	push	esi
	mov	ebp, eax
	mov	bl, 1
	xor	edi, edi
	call	_lua_type
	add	esp, 12					; 0000000cH
	cmp	eax, 5
	jne	SHORT $LN14@lCanFound
	push	OFFSET $SG224163
	push	2
	push	esi
	call	_lua_getfield
	push	-1
	push	esi
	call	_lua_type
	add	esp, 20					; 00000014H
	cmp	eax, 2
	jne	SHORT $LN14@lCanFound
	push	-1
	push	esi
	call	_lua_touserdata
	mov	edi, eax
	add	esp, 8
	test	edi, edi
	je	SHORT $LN14@lCanFound
	xor	bl, bl
$LN14@lCanFound:
	push	ebp
	push	esi
	call	_lua_settop
	add	esp, 8
	test	bl, bl
	je	SHORT $LN13@lCanFound
	push	esi
	call	?HandleMissingInstance@CvLuaPlot@@SAXPAUlua_State@@@Z ; CvLuaPlot::HandleMissingInstance
	add	esp, 4
$LN13@lCanFound:

; 1215 : 	const bool bTestVisible = luaL_optint(L, 3, 0);

	push	0
	push	3
	push	esi
	call	_luaL_optinteger
	add	esp, 12					; 0000000cH
	test	eax, eax
	setne	al
	mov	BYTE PTR _bTestVisible$[esp+24], al

; 1216 : 	const bool bResult = pkUnit->canFound(pkPlot, bTestVisible);

	mov	ecx, DWORD PTR _bTestVisible$[esp+24]
	push	ecx
	mov	ecx, DWORD PTR _pkInstance$226430[esp+28]
	push	edi
	call	?canFound@CvUnit@@QBE_NPBVCvPlot@@_N@Z	; CvUnit::canFound

; 1217 : 
; 1218 : 	lua_pushboolean(L, bResult);

	movzx	edx, al
	push	edx
	push	esi
	call	_lua_pushboolean
	add	esp, 8
	pop	edi
	pop	esi
	pop	ebp

; 1219 : 	return 1;

	mov	eax, 1
	pop	ebx

; 1220 : }

	add	esp, 8
	ret	0
?lCanFound@CvLuaUnit@@KAHPAUlua_State@@@Z ENDP		; CvLuaUnit::lCanFound
_TEXT	ENDS
PUBLIC	?lCanJoin@CvLuaUnit@@KAHPAUlua_State@@@Z	; CvLuaUnit::lCanJoin
EXTRN	?canJoin@CvUnit@@QBE_NPBVCvPlot@@W4SpecialistTypes@@@Z:PROC ; CvUnit::canJoin
; Function compile flags: /Ogtpy
;	COMDAT ?lCanJoin@CvLuaUnit@@KAHPAUlua_State@@@Z
_TEXT	SEGMENT
_pkInstance$226460 = -4					; size = 4
_L$ = 8							; size = 4
?lCanJoin@CvLuaUnit@@KAHPAUlua_State@@@Z PROC		; CvLuaUnit::lCanJoin, COMDAT

; 1224 : {

	push	ecx
	push	ebx
	push	ebp
	push	esi

; 1225 : 	CvUnit* pkUnit = GetInstance(L);

	mov	esi, DWORD PTR _L$[esp+12]
	push	edi
	push	esi
	call	_lua_gettop
	push	1
	push	esi
	mov	edi, eax
	mov	bl, 1
	mov	DWORD PTR _pkInstance$226460[esp+32], 0
	call	_lua_type
	add	esp, 12					; 0000000cH
	cmp	eax, 5
	jne	SHORT $LN5@lCanJoin
	push	OFFSET $SG224203
	push	1
	push	esi
	call	_lua_getfield
	push	-1
	push	esi
	call	_lua_type
	add	esp, 20					; 00000014H
	cmp	eax, 2
	jne	SHORT $LN5@lCanJoin
	push	-1
	push	esi
	call	_lua_touserdata
	add	esp, 8
	mov	DWORD PTR _pkInstance$226460[esp+20], eax
	test	eax, eax
	je	SHORT $LN5@lCanJoin
	xor	bl, bl
$LN5@lCanJoin:
	push	edi
	push	esi
	call	_lua_settop
	add	esp, 8
	test	bl, bl
	je	SHORT $LN10@lCanJoin
	push	OFFSET $SG224209
	push	esi
	call	_luaL_error
	push	OFFSET $SG221232
	push	esi
	call	_luaL_error
	add	esp, 16					; 00000010H
$LN10@lCanJoin:

; 1226 : 	CvPlot* pkPlot = CvLuaPlot::GetInstance(L, 2);

	push	esi
	call	_lua_gettop
	push	2
	push	esi
	mov	ebp, eax
	mov	bl, 1
	xor	edi, edi
	call	_lua_type
	add	esp, 12					; 0000000cH
	cmp	eax, 5
	jne	SHORT $LN14@lCanJoin
	push	OFFSET $SG224163
	push	2
	push	esi
	call	_lua_getfield
	push	-1
	push	esi
	call	_lua_type
	add	esp, 20					; 00000014H
	cmp	eax, 2
	jne	SHORT $LN14@lCanJoin
	push	-1
	push	esi
	call	_lua_touserdata
	mov	edi, eax
	add	esp, 8
	test	edi, edi
	je	SHORT $LN14@lCanJoin
	xor	bl, bl
$LN14@lCanJoin:
	push	ebp
	push	esi
	call	_lua_settop
	add	esp, 8
	test	bl, bl
	je	SHORT $LN13@lCanJoin
	push	esi
	call	?HandleMissingInstance@CvLuaPlot@@SAXPAUlua_State@@@Z ; CvLuaPlot::HandleMissingInstance
	add	esp, 4
$LN13@lCanJoin:

; 1227 : 	const SpecialistTypes eSpecialist = (SpecialistTypes)lua_tointeger(L, 3);

	push	3
	push	esi
	call	_lua_tointeger

; 1228 : 	const bool bResult = pkUnit->canJoin(pkPlot, eSpecialist);

	mov	ecx, DWORD PTR _pkInstance$226460[esp+28]
	add	esp, 8
	push	eax
	push	edi
	call	?canJoin@CvUnit@@QBE_NPBVCvPlot@@W4SpecialistTypes@@@Z ; CvUnit::canJoin

; 1229 : 
; 1230 : 	lua_pushboolean(L, bResult);

	movzx	eax, al
	push	eax
	push	esi
	call	_lua_pushboolean
	add	esp, 8
	pop	edi
	pop	esi
	pop	ebp

; 1231 : 	return 1;

	mov	eax, 1
	pop	ebx

; 1232 : }

	pop	ecx
	ret	0
?lCanJoin@CvLuaUnit@@KAHPAUlua_State@@@Z ENDP		; CvLuaUnit::lCanJoin
_TEXT	ENDS
PUBLIC	?lCanConstruct@CvLuaUnit@@KAHPAUlua_State@@@Z	; CvLuaUnit::lCanConstruct
EXTRN	?canConstruct@CvUnit@@QBE_NPBVCvPlot@@W4BuildingTypes@@@Z:PROC ; CvUnit::canConstruct
; Function compile flags: /Ogtpy
;	COMDAT ?lCanConstruct@CvLuaUnit@@KAHPAUlua_State@@@Z
_TEXT	SEGMENT
_pkInstance$226490 = -4					; size = 4
_L$ = 8							; size = 4
?lCanConstruct@CvLuaUnit@@KAHPAUlua_State@@@Z PROC	; CvLuaUnit::lCanConstruct, COMDAT

; 1236 : {

	push	ecx
	push	ebx
	push	ebp
	push	esi

; 1237 : 	CvUnit* pkUnit = GetInstance(L);

	mov	esi, DWORD PTR _L$[esp+12]
	push	edi
	push	esi
	call	_lua_gettop
	push	1
	push	esi
	mov	edi, eax
	mov	bl, 1
	mov	DWORD PTR _pkInstance$226490[esp+32], 0
	call	_lua_type
	add	esp, 12					; 0000000cH
	cmp	eax, 5
	jne	SHORT $LN5@lCanConstr
	push	OFFSET $SG224203
	push	1
	push	esi
	call	_lua_getfield
	push	-1
	push	esi
	call	_lua_type
	add	esp, 20					; 00000014H
	cmp	eax, 2
	jne	SHORT $LN5@lCanConstr
	push	-1
	push	esi
	call	_lua_touserdata
	add	esp, 8
	mov	DWORD PTR _pkInstance$226490[esp+20], eax
	test	eax, eax
	je	SHORT $LN5@lCanConstr
	xor	bl, bl
$LN5@lCanConstr:
	push	edi
	push	esi
	call	_lua_settop
	add	esp, 8
	test	bl, bl
	je	SHORT $LN10@lCanConstr
	push	OFFSET $SG224209
	push	esi
	call	_luaL_error
	push	OFFSET $SG221232
	push	esi
	call	_luaL_error
	add	esp, 16					; 00000010H
$LN10@lCanConstr:

; 1238 : 	CvPlot* pkPlot = CvLuaPlot::GetInstance(L, 2);

	push	esi
	call	_lua_gettop
	push	2
	push	esi
	mov	ebp, eax
	mov	bl, 1
	xor	edi, edi
	call	_lua_type
	add	esp, 12					; 0000000cH
	cmp	eax, 5
	jne	SHORT $LN14@lCanConstr
	push	OFFSET $SG224163
	push	2
	push	esi
	call	_lua_getfield
	push	-1
	push	esi
	call	_lua_type
	add	esp, 20					; 00000014H
	cmp	eax, 2
	jne	SHORT $LN14@lCanConstr
	push	-1
	push	esi
	call	_lua_touserdata
	mov	edi, eax
	add	esp, 8
	test	edi, edi
	je	SHORT $LN14@lCanConstr
	xor	bl, bl
$LN14@lCanConstr:
	push	ebp
	push	esi
	call	_lua_settop
	add	esp, 8
	test	bl, bl
	je	SHORT $LN13@lCanConstr
	push	esi
	call	?HandleMissingInstance@CvLuaPlot@@SAXPAUlua_State@@@Z ; CvLuaPlot::HandleMissingInstance
	add	esp, 4
$LN13@lCanConstr:

; 1239 : 	const BuildingTypes eBuilding = (BuildingTypes)lua_tointeger(L, 3);

	push	3
	push	esi
	call	_lua_tointeger

; 1240 : 	const bool bResult = pkUnit->canConstruct(pkPlot, eBuilding);

	mov	ecx, DWORD PTR _pkInstance$226490[esp+28]
	add	esp, 8
	push	eax
	push	edi
	call	?canConstruct@CvUnit@@QBE_NPBVCvPlot@@W4BuildingTypes@@@Z ; CvUnit::canConstruct

; 1241 : 
; 1242 : 	lua_pushboolean(L, bResult);

	movzx	eax, al
	push	eax
	push	esi
	call	_lua_pushboolean
	add	esp, 8
	pop	edi
	pop	esi
	pop	ebp

; 1243 : 	return 1;

	mov	eax, 1
	pop	ebx

; 1244 : }

	pop	ecx
	ret	0
