; Listing generated by Microsoft (R) Optimizing Compiler Version 15.00.30729.01 

	TITLE	c:\Users\EnormousApplePie\Documents\GitHub\Lekmod\LEKMOD_DLL\CvGameCoreDLL_Expansion2\Lua\CvLuaGame.cpp
	.686P
	.XMM
	include listing.inc
	.model	flat

INCLUDELIB MSVCRT
INCLUDELIB OLDNAMES

CONST	SEGMENT
$SG222165 DB	'Game', 00H
	ORG $+3
$SG222173 DB	'CanHandleAction', 00H
$SG222174 DB	'HandleAction', 00H
	ORG $+3
$SG222175 DB	'UpdateScore', 00H
$SG222176 DB	'CycleCities', 00H
$SG222177 DB	'CycleUnits', 00H
	ORG $+1
$SG222178 DB	'CyclePlotUnits', 00H
	ORG $+1
$SG222179 DB	'SelectionListMove', 00H
	ORG $+2
$SG222180 DB	'SelectionListGameNetMessage', 00H
$SG222181 DB	'SelectedCitiesGameNetMessage', 00H
	ORG $+3
$SG222182 DB	'CityPushOrder', 00H
	ORG $+2
$SG222183 DB	'CityPurchaseUnit', 00H
	ORG $+3
$SG222184 DB	'CityPurchaseBuilding', 00H
	ORG $+3
$SG222185 DB	'CityPurchaseProject', 00H
$SG222186 DB	'GetProductionPerPopulation', 00H
	ORG $+1
$SG222187 DB	'GetAdjustedPopulationPercent', 00H
	ORG $+3
$SG222188 DB	'GetAdjustedLandPercent', 00H
	ORG $+1
$SG222189 DB	'GetUnitedNationsCountdown', 00H
	ORG $+2
$SG222190 DB	'SetUnitedNationsCountdown', 00H
	ORG $+2
$SG222191 DB	'CountCivPlayersAlive', 00H
	ORG $+3
$SG222192 DB	'CountCivPlayersEverAlive', 00H
	ORG $+3
$SG222193 DB	'CountCivTeamsAlive', 00H
	ORG $+1
$SG222194 DB	'CountCivTeamsEverAlive', 00H
	ORG $+1
$SG222195 DB	'CountHumanPlayersAlive', 00H
	ORG $+1
$SG222196 DB	'CountHumanPlayersEverAlive', 00H
	ORG $+1
$SG222197 DB	'CountTotalCivPower', 00H
	ORG $+1
$SG222198 DB	'CountTotalNukeUnits', 00H
$SG222199 DB	'CountKnownTechNumTeams', 00H
	ORG $+1
$SG222200 DB	'GoldenAgeLength', 00H
$SG222201 DB	'VictoryDelay', 00H
	ORG $+3
$SG222202 DB	'GetImprovementUpgradeTime', 00H
	ORG $+2
$SG222203 DB	'CanTrainNukes', 00H
	ORG $+2
$SG222204 DB	'GetCurrentEra', 00H
	ORG $+2
$SG222205 DB	'GetDiploResponse', 00H
	ORG $+3
$SG222206 DB	'GetActiveTeam', 00H
	ORG $+2
$SG222207 DB	'GetActiveCivilizationType', 00H
	ORG $+2
$SG222208 DB	'IsNetworkMultiPlayer', 00H
	ORG $+3
$SG222209 DB	'IsGameMultiPlayer', 00H
	ORG $+2
$SG222210 DB	'IsTeamGame', 00H
	ORG $+1
$SG222211 DB	'ReviveActivePlayer', 00H
	ORG $+1
$SG222212 DB	'GetNumHumanPlayers', 00H
	ORG $+1
$SG222213 DB	'GetNumSequentialHumans', 00H
	ORG $+1
$SG222214 DB	'GetGameTurn', 00H
$SG222215 DB	'SetGameTurn', 00H
$SG222216 DB	'GetTurnYear', 00H
$SG222217 DB	'GetGameTurnYear', 00H
$SG222218 DB	'GetTurnString', 00H
	ORG $+2
$SG222219 DB	'GetElapsedGameTurns', 00H
$SG222220 DB	'GetMaxTurns', 00H
$SG222221 DB	'SetMaxTurns', 00H
$SG222222 DB	'ChangeMaxTurns', 00H
	ORG $+1
$SG222223 DB	'GetMaxCityElimination', 00H
	ORG $+2
$SG222224 DB	'SetMaxCityElimination', 00H
	ORG $+2
$SG222225 DB	'GetNumAdvancedStartPoints', 00H
	ORG $+2
$SG222226 DB	'SetNumAdvancedStartPoints', 00H
	ORG $+2
$SG222227 DB	'GetStartTurn', 00H
	ORG $+3
$SG222228 DB	'GetWinningTurn', 00H
	ORG $+1
$SG222229 DB	'GetStartYear', 00H
	ORG $+3
$SG222230 DB	'SetStartYear', 00H
	ORG $+3
$SG222231 DB	'GetEstimateEndTurn', 00H
	ORG $+1
$SG222232 DB	'SetEstimateEndTurn', 00H
	ORG $+1
$SG222233 DB	'GetTurnSlice', 00H
	ORG $+3
$SG222234 DB	'GetMinutesPlayed', 00H
	ORG $+3
$SG222235 DB	'GetTargetScore', 00H
	ORG $+1
$SG222236 DB	'SetTargetScore', 00H
	ORG $+1
$SG222237 DB	'IsStaticTutorialActive', 00H
	ORG $+1
$SG222238 DB	'SetStaticTutorialActive', 00H
$SG222239 DB	'IsEverRightClickMoved', 00H
	ORG $+2
$SG222240 DB	'SetEverRightClickMoved', 00H
	ORG $+1
$SG222241 DB	'IsTutorialLogging', 00H
	ORG $+2
$SG222242 DB	'IsTutorialDebugging', 00H
$SG222243 DB	'GetTutorialLevel', 00H
	ORG $+3
$SG222244 DB	'HasAdvisorMessageBeenSeen', 00H
	ORG $+2
$SG222245 DB	'SetAdvisorMessageHasBeenSeen', 00H
	ORG $+3
$SG222246 DB	'SetAdvisorBadAttackInterrupt', 00H
	ORG $+3
$SG222247 DB	'SetAdvisorCityAttackInterrupt', 00H
	ORG $+2
$SG222248 DB	'GetAllowRClickMovementWhileScrolling', 00H
	ORG $+3
$SG222249 DB	'GetNumGameTurnActive', 00H
	ORG $+3
$SG222250 DB	'CountNumHumanGameTurnActive', 00H
$SG222251 DB	'GetNumCities', 00H
	ORG $+3
$SG222252 DB	'GetNumCivCities', 00H
$SG222253 DB	'GetTotalPopulation', 00H
	ORG $+1
$SG222254 DB	'GetNoNukesCount', 00H
$SG222255 DB	'IsNoNukes', 00H
	ORG $+2
$SG222256 DB	'ChangeNoNukesCount', 00H
	ORG $+1
$SG222257 DB	'GetNukesExploded', 00H
	ORG $+3
$SG222258 DB	'ChangeNukesExploded', 00H
$SG222259 DB	'GetMaxPopulation', 00H
	ORG $+3
$SG222260 DB	'GetInitPopulation', 00H
	ORG $+2
$SG222261 DB	'GetInitLand', 00H
$SG222262 DB	'GetInitTech', 00H
$SG222263 DB	'GetInitWonders', 00H
	ORG $+1
$SG222264 DB	'GetNumWorldWonders', 00H
	ORG $+1
$SG222265 DB	'GetAIAutoPlay', 00H
	ORG $+2
$SG222266 DB	'SetAIAutoPlay', 00H
	ORG $+2
$SG222267 DB	'IsScoreDirty', 00H
	ORG $+3
$SG222268 DB	'SetScoreDirty', 00H
	ORG $+2
$SG222269 DB	'IsCircumnavigated', 00H
	ORG $+2
$SG222270 DB	'MakeCircumnavigated', 00H
$SG222271 DB	'DoFromUIDiploEvent', 00H
	ORG $+1
$SG222272 DB	'IsDebugMode', 00H
$SG222273 DB	'SetDebugMode', 00H
	ORG $+3
$SG222274 DB	'ToggleDebugMode', 00H
$SG222275 DB	'UpdateFOW', 00H
	ORG $+2
$SG222276 DB	'GetPitbossTurnTime', 00H
	ORG $+1
$SG222277 DB	'SetPitbossTurnTime', 00H
	ORG $+1
$SG222278 DB	'IsHotSeat', 00H
	ORG $+2
$SG222279 DB	'IsPbem', 00H
	ORG $+1
$SG222280 DB	'IsPitboss', 00H
	ORG $+2
$SG222281 DB	'IsSimultaneousTeamTurns', 00H
$SG222282 DB	'IsFinalInitialized', 00H
	ORG $+1
$SG222283 DB	'GetActivePlayer', 00H
$SG222284 DB	'SetActivePlayer', 00H
$SG222285 DB	'GetPausePlayer', 00H
	ORG $+1
$SG222286 DB	'SetPausePlayer', 00H
	ORG $+1
$SG222287 DB	'IsPaused', 00H
	ORG $+3
$SG222288 DB	'GetBestLandUnit', 00H
$SG222289 DB	'GetBestLandUnitCombat', 00H
	ORG $+2
$SG222290 DB	'GetFaithCost', 00H
	ORG $+3
$SG222291 DB	'GetWinner', 00H
	ORG $+2
$SG222292 DB	'GetVictory', 00H
	ORG $+1
$SG222293 DB	'SetWinner', 00H
	ORG $+2
$SG222294 DB	'GetGameState', 00H
	ORG $+3
$SG222295 DB	'SetGameState', 00H
	ORG $+3
$SG222296 DB	'GetVotesNeededForDiploVictory', 00H
	ORG $+2
$SG222297 DB	'IsUnitedNationsActive', 00H
	ORG $+2
$SG222298 DB	'GetNumVictoryVotesTallied', 00H
	ORG $+2
$SG222299 DB	'GetVoteCast', 00H
$SG222300 DB	'GetPreviousVoteCast', 00H
$SG222301 DB	'GetNumVotesForTeam', 00H
	ORG $+1
$SG222302 DB	'SetNumVotesForTeam', 00H
	ORG $+1
$SG222303 DB	'ChangeNumVotesForTeam', 00H
	ORG $+2
$SG222304 DB	'GetHandicapType', 00H
$SG222305 DB	'GetCalendar', 00H
$SG222306 DB	'GetStartEra', 00H
$SG222307 DB	'GetGameSpeedType', 00H
	ORG $+3
$SG222308 DB	'GetRankPlayer', 00H
	ORG $+2
$SG222309 DB	'GetPlayerRank', 00H
	ORG $+2
$SG222310 DB	'GetPlayerScore', 00H
	ORG $+1
$SG222311 DB	'GetRankTeam', 00H
$SG222312 DB	'GetTeamRank', 00H
$SG222313 DB	'GetTeamScore', 00H
	ORG $+3
$SG222314 DB	'IsOption', 00H
	ORG $+3
$SG222315 DB	'SetOption', 00H
	ORG $+2
$SG222316 DB	'IsMPOption', 00H
	ORG $+1
$SG222317 DB	'GetUnitCreatedCount', 00H
$SG222318 DB	'GetUnitClassCreatedCount', 00H
	ORG $+3
$SG222319 DB	'IsUnitClassMaxedOut', 00H
$SG222320 DB	'GetBuildingClassCreatedCount', 00H
	ORG $+3
$SG222321 DB	'IsBuildingClassMaxedOut', 00H
$SG222322 DB	'GetProjectCreatedCount', 00H
	ORG $+1
$SG222323 DB	'IsProjectMaxedOut', 00H
	ORG $+2
$SG222324 DB	'IsVictoryValid', 00H
	ORG $+1
$SG222325 DB	'SetVictoryValid', 00H
$SG222326 DB	'IsSpecialUnitValid', 00H
	ORG $+1
$SG222327 DB	'MakeSpecialUnitValid', 00H
	ORG $+3
$SG222328 DB	'IsNukesValid', 00H
	ORG $+3
$SG222329 DB	'MakeNukesValid', 00H
	ORG $+1
$SG222330 DB	'IsInAdvancedStart', 00H
	ORG $+2
$SG222331 DB	'SetName', 00H
$SG222332 DB	'GetName', 00H
$SG222333 DB	'Rand', 00H
	ORG $+3
$SG222334 DB	'CalculateSyncChecksum', 00H
	ORG $+2
$SG222335 DB	'CalculateOptionsChecksum', 00H
	ORG $+3
$SG222336 DB	'GetReplayMessage', 00H
	ORG $+3
$SG222337 DB	'GetReplayMessages', 00H
	ORG $+2
$SG222338 DB	'GetNumReplayMessages', 00H
	ORG $+3
$SG222339 DB	'GetReplayInfo', 00H
	ORG $+2
$SG222340 DB	'SaveReplay', 00H
	ORG $+1
$SG222341 DB	'AddPlayer', 00H
	ORG $+2
$SG222342 DB	'SetPlotExtraYield', 00H
	ORG $+2
$SG222343 DB	'ChangePlotExtraCost', 00H
$SG222344 DB	'IsCivEverActive', 00H
$SG222345 DB	'IsLeaderEverActive', 00H
	ORG $+1
$SG222346 DB	'IsUnitEverActive', 00H
	ORG $+3
$SG222347 DB	'IsBuildingEverActive', 00H
	ORG $+3
$SG222348 DB	'CanDoControl', 00H
	ORG $+3
$SG222349 DB	'DoControl', 00H
	ORG $+2
$SG222350 DB	'DoMinorPledgeProtection', 00H
$SG222351 DB	'DoMinorGoldGift', 00H
$SG222352 DB	'DoMinorGiftGold', 00H
$SG222353 DB	'DoMinorGiftTileImprovement', 00H
	ORG $+1
$SG222354 DB	'DoMinorBullyGold', 00H
	ORG $+3
$SG222355 DB	'DoMinorBullyUnit', 00H
	ORG $+3
$SG222356 DB	'DoMinorBuyout', 00H
	ORG $+2
$SG222357 DB	'GetBestWondersPlayer', 00H
	ORG $+3
$SG222358 DB	'GetBestPoliciesPlayer', 00H
	ORG $+2
$SG222359 DB	'GetBestGreatPeoplePlayer', 00H
	ORG $+3
$SG222360 DB	'IsEverAttackedTutorial', 00H
	ORG $+1
$SG222361 DB	'GameplayDiplomacyAILeaderMessage', 00H
	ORG $+3
$SG222362 DB	'GetResourceUsageType', 00H
	ORG $+3
$SG222363 DB	'GetNumResourceRequiredForUnit', 00H
	ORG $+2
$SG222364 DB	'GetNumResourceRequiredForBuilding', 00H
	ORG $+2
$SG222365 DB	'IsCombatWarned', 00H
	ORG $+1
$SG222366 DB	'SetCombatWarned', 00H
$SG222367 DB	'GetAdvisorCounsel', 00H
	ORG $+2
$SG222368 DB	'SetAdvisorRecommenderCity', 00H
	ORG $+2
$SG222369 DB	'IsUnitRecommended', 00H
	ORG $+2
$SG222370 DB	'IsBuildingRecommended', 00H
	ORG $+2
$SG222371 DB	'IsProjectRecommended', 00H
	ORG $+3
$SG222372 DB	'SetAdvisorRecommenderTech', 00H
	ORG $+2
$SG222373 DB	'IsTechRecommended', 00H
	ORG $+2
$SG222374 DB	'GetVariableCitySizeFromPopulation', 00H
	ORG $+2
$SG222375 DB	'GetResearchAgreementCost', 00H
	ORG $+3
$SG222376 DB	'GetCustomOption', 00H
$SG222377 DB	'GetNumCitiesPolicyCostMod', 00H
	ORG $+2
$SG222378 DB	'GetNumCitiesTechCostMod', 00H
$SG222379 DB	'GetBuildingYieldChange', 00H
	ORG $+1
$SG222380 DB	'GetBuildingYieldModifier', 00H
	ORG $+3
$SG222381 DB	'GetWorldNumCitiesUnhappinessPercent', 00H
$SG222382 DB	'GetDealDuration', 00H
$SG222383 DB	'GetPeaceDuration', 00H
	ORG $+3
$SG222384 DB	'GetUnitUpgradesTo', 00H
	ORG $+2
$SG222385 DB	'GetCombatPrediction', 00H
$SG222386 DB	'GetTimeString', 00H
	ORG $+2
$SG222387 DB	'GetMinimumFaithNextPantheon', 00H
$SG222388 DB	'SetMinimumFaithNextPantheon', 00H
$SG222389 DB	'GetAvailablePantheonBeliefs', 00H
$SG222390 DB	'GetAvailableFounderBeliefs', 00H
	ORG $+1
$SG222391 DB	'GetAvailableFollowerBeliefs', 00H
$SG222392 DB	'GetAvailableEnhancerBeliefs', 00H
$SG222393 DB	'GetAvailableBonusBeliefs', 00H
	ORG $+3
$SG222394 DB	'GetAvailableReformationBeliefs', 00H
	ORG $+1
$SG222395 DB	'GetNumFollowers', 00H
$SG222396 DB	'GetNumCitiesFollowing', 00H
	ORG $+2
$SG222397 DB	'GetBeliefsInReligion', 00H
	ORG $+3
$SG222398 DB	'GetNumReligionsStillToFound', 00H
$SG222399 DB	'GetNumReligionsFounded', 00H
	ORG $+1
$SG222400 DB	'GetHolyCityForReligion', 00H
	ORG $+1
$SG222401 DB	'GetReligionName', 00H
$SG222402 DB	'GetFounderBenefitsReligion', 00H
	ORG $+1
$SG222403 DB	'FoundPantheon', 00H
	ORG $+2
$SG222404 DB	'FoundReligion', 00H
	ORG $+2
$SG222405 DB	'EnhanceReligion', 00H
$SG222406 DB	'SetHolyCity', 00H
$SG222407 DB	'GetFounder', 00H
	ORG $+1
$SG222408 DB	'SetFounder', 00H
	ORG $+1
$SG222409 DB	'GetTurnsBetweenMinorCivElections', 00H
	ORG $+3
$SG222410 DB	'GetTurnsUntilMinorCivElection', 00H
	ORG $+2
$SG222411 DB	'GetNumActiveLeagues', 00H
$SG222412 DB	'GetNumLeaguesEverFounded', 00H
	ORG $+3
$SG222413 DB	'GetLeague', 00H
	ORG $+2
$SG222414 DB	'GetActiveLeague', 00H
$SG222415 DB	'IsProcessingMessages', 00H
	ORG $+3
$SG222416 DB	'GetGreatWorkTooltip', 00H
$SG222417 DB	'GetGreatWorkName', 00H
	ORG $+3
$SG222418 DB	'GetGreatWorkType', 00H
	ORG $+3
$SG222419 DB	'GetGreatWorkClass', 00H
	ORG $+2
$SG222420 DB	'GetGreatWorkArtist', 00H
	ORG $+1
$SG222421 DB	'GetGreatWorkEra', 00H
$SG222422 DB	'GetGreatWorkEraAbbreviation', 00H
$SG222423 DB	'GetGreatWorkEraShort', 00H
	ORG $+3
$SG222424 DB	'GetGreatWorkCreator', 00H
$SG222425 DB	'GetGreatWorkController', 00H
	ORG $+1
$SG222426 DB	'GetGreatWorkCurrentThemingBonus', 00H
$SG222427 DB	'GetArtifactName', 00H
$SG222428 DB	'GetNumFreePolicies', 00H
	ORG $+1
$SG222429 DB	'GetLongestCityConnectionPlots', 00H
	ORG $+2
$SG222430 DB	'SelectedUnit_SpeculativePopupTradeRoute_Display', 00H
$SG222431 DB	'SelectedUnit_SpeculativePopupTradeRoute_Hide', 00H
	ORG $+3
$SG222432 DB	'MouseoverUnit', 00H
	ORG $+2
$SG222433 DB	'GetNumArchaeologySites', 00H
	ORG $+1
$SG222434 DB	'GetNumHiddenArchaeologySites', 00H
	ORG $+3
$SG222435 DB	'GetLastProposalID', 00H
	ORG $+2
$SG222436 DB	'GetProposalIDbyUIid', 00H
$SG222437 DB	'GetProposalExpirationCounter', 00H
	ORG $+3
$SG222438 DB	'GetProposalType', 00H
$SG222439 DB	'GetProposalStatus', 00H
	ORG $+2
$SG222440 DB	'GetProposalOwner', 00H
	ORG $+3
$SG222441 DB	'GetProposalSubject', 00H
	ORG $+1
$SG222442 DB	'GetProposalCompletion', 00H
	ORG $+2
$SG222443 DB	'GetProposalVoterVote', 00H
	ORG $+3
$SG222444 DB	'GetProposalVoterHasVoted', 00H
	ORG $+3
$SG222445 DB	'GetProposalVoterEligibility', 00H
$SG222446 DB	'GetYesVotes', 00H
$SG222447 DB	'GetNoVotes', 00H
	ORG $+1
$SG222448 DB	'GetMaxVotes', 00H
$SG222449 DB	'IsPlayerHasActiveProposal', 00H
	ORG $+2
$SG222450 DB	'IsAnyActiveProposalType', 00H
$SG224178 DB	'NYI', 00H
$SG224201 DB	'Player', 00H
	ORG $+1
$SG224202 DB	'Turn', 00H
	ORG $+3
$SG224203 DB	'Type', 00H
	ORG $+3
$SG224206 DB	'Text', 00H
	ORG $+3
$SG224218 DB	'X', 00H
	ORG $+2
$SG224219 DB	'Y', 00H
	ORG $+2
$SG224220 DB	'Plots', 00H
	ORG $+2
$SG224234 DB	'Player', 00H
	ORG $+1
$SG224235 DB	'Turn', 00H
	ORG $+3
$SG224236 DB	'Type', 00H
	ORG $+3
$SG224239 DB	'Text', 00H
	ORG $+3
$SG224251 DB	'X', 00H
	ORG $+2
$SG224252 DB	'Y', 00H
	ORG $+2
$SG224253 DB	'Plots', 00H
	ORG $+2
$SG224276 DB	'NYI', 00H
$SG224781 DB	'TEMP', 00H
	ORG $+3
$SG224800 DB	'Unit row at ID %d is empty.', 00H
$SG224948 DB	'Unit row at ID %d is empty.', 00H
$SG225918 DB	'CIVILIZATION_ENGLAND', 00H
	ORG $+3
$SG226154 DB	'__instances', 00H
$SG226155 DB	'__mode', 00H
	ORG $+1
$SG226156 DB	'v', 00H
	ORG $+2
$SG226158 DB	'__instances', 00H
$SG226161 DB	'__instance', 00H
	ORG $+1
$SG226162 DB	'__index', 00H
$SG226177 DB	'__instance', 00H
	ORG $+1
$SG226183 DB	'Not a valid instance.  Either the instance is NULL or yo'
	DB	'u used ''.'' instead of '':''.', 00H
	ORG $+1
$SG226212 DB	'__instances', 00H
$SG226213 DB	'__mode', 00H
	ORG $+1
$SG226214 DB	'v', 00H
	ORG $+2
$SG226216 DB	'__instances', 00H
$SG226219 DB	'__instance', 00H
	ORG $+1
$SG226220 DB	'__index', 00H
$SG226235 DB	'__instance', 00H
	ORG $+1
$SG226241 DB	'Not a valid instance.  Either the instance is NULL or yo'
	DB	'u used ''.'' instead of '':''.', 00H
	ORG $+1
$SG226255 DB	'__instance', 00H
	ORG $+1
$SG226261 DB	'Not a valid instance.  Either the instance is NULL or yo'
	DB	'u used ''.'' instead of '':''.', 00H
	ORG $+1
$SG226272 DB	'__instances', 00H
$SG226273 DB	'__mode', 00H
	ORG $+1
$SG226274 DB	'v', 00H
	ORG $+2
$SG226276 DB	'__instances', 00H
$SG226279 DB	'__instance', 00H
	ORG $+1
$SG226280 DB	'__index', 00H
$SG92498 DB	'f2eb1642-3334-4d2c-8db1-08e6aede3532', 00H
	ORG $+3
_CIV5_XP2_SCENARIO2_MODID DD FLAT:$SG92498
$SG92500 DB	'34fb6c19-10dd-4b65-b143-fd00b2c0826f', 00H
	ORG $+3
_CIV5_COMPLETE_SCENARIO1_MODID DD FLAT:$SG92500
CONST	ENDS
EXTRN	_lua_tointeger:PROC
; Function compile flags: /Ogtpy
; File c:\users\enormousapplepie\documents\github\lekmod\lekmod_dll\cvgamecoredllutil\include\cvluaargtemplates.h
;	COMDAT ??$toValue@H@CvLuaArgs@@YAHPAUlua_State@@H@Z
_TEXT	SEGMENT
??$toValue@H@CvLuaArgs@@YAHPAUlua_State@@H@Z PROC	; CvLuaArgs::toValue<int>, COMDAT
; _L$ = ecx
; _idx$ = eax

; 19   : 		return lua_tointeger(L, idx);

	push	eax
	push	ecx
	call	_lua_tointeger
	add	esp, 8

; 20   : 	}

	ret	0
??$toValue@H@CvLuaArgs@@YAHPAUlua_State@@H@Z ENDP	; CvLuaArgs::toValue<int>
_TEXT	ENDS
EXTRN	_lua_toboolean:PROC
; Function compile flags: /Ogtpy
;	COMDAT ??$toValue@_N@CvLuaArgs@@YA_NPAUlua_State@@H@Z
_TEXT	SEGMENT
??$toValue@_N@CvLuaArgs@@YA_NPAUlua_State@@H@Z PROC	; CvLuaArgs::toValue<bool>, COMDAT
; _L$ = ecx
; _idx$ = eax

; 24   : 		return lua_toboolean(L, idx) != 0;

	push	eax
	push	ecx
	call	_lua_toboolean
	add	esp, 8
	neg	eax
	sbb	eax, eax
	neg	eax

; 25   : 	}

	ret	0
??$toValue@_N@CvLuaArgs@@YA_NPAUlua_State@@H@Z ENDP	; CvLuaArgs::toValue<bool>
_TEXT	ENDS
EXTRN	_lua_pushinteger:PROC
; Function compile flags: /Ogtpy
;	COMDAT ??$pushValue@H@CvLuaArgs@@YAXPAUlua_State@@H@Z
_TEXT	SEGMENT
??$pushValue@H@CvLuaArgs@@YAXPAUlua_State@@H@Z PROC	; CvLuaArgs::pushValue<int>, COMDAT
; _L$ = ecx
; _t$ = eax

; 39   : 		lua_pushinteger(L, t);

	push	eax
	push	ecx
	call	_lua_pushinteger
	add	esp, 8

; 40   : 	}

	ret	0
??$pushValue@H@CvLuaArgs@@YAXPAUlua_State@@H@Z ENDP	; CvLuaArgs::pushValue<int>
_TEXT	ENDS
EXTRN	_lua_pushboolean:PROC
; Function compile flags: /Ogtpy
;	COMDAT ??$pushValue@_N@CvLuaArgs@@YAXPAUlua_State@@_N@Z
_TEXT	SEGMENT
??$pushValue@_N@CvLuaArgs@@YAXPAUlua_State@@_N@Z PROC	; CvLuaArgs::pushValue<bool>, COMDAT
; _L$ = ecx
; _t$ = eax

; 45   : 		lua_pushboolean(L, t);

	movzx	eax, al
	push	eax
	push	ecx
	call	_lua_pushboolean
	add	esp, 8

; 46   : 	}

	ret	0
??$pushValue@_N@CvLuaArgs@@YAXPAUlua_State@@_N@Z ENDP	; CvLuaArgs::pushValue<bool>
_TEXT	ENDS
PUBLIC	?wrapCoordDifference@@YAHHI_N@Z			; wrapCoordDifference
; Function compile flags: /Ogtpy
; File c:\users\enormousapplepie\documents\github\lekmod\lekmod_dll\cvgamecoredll_expansion2\cvgamecoreutils.h
;	COMDAT ?wrapCoordDifference@@YAHHI_N@Z
_TEXT	SEGMENT
_iDiff$ = 8						; size = 4
_uiRange$ = 12						; size = 4
_bWrap$ = 16						; size = 1
?wrapCoordDifference@@YAHHI_N@Z PROC			; wrapCoordDifference, COMDAT

; 57   : 	if(bWrap)

	cmp	BYTE PTR _bWrap$[esp-4], 0
	mov	eax, DWORD PTR _iDiff$[esp-4]
	je	SHORT $LN5@wrapCoordD

; 58   : 	{
; 59   : 		if(iDiff > (int)(uiRange >> 1))		// Using an unsigned int so we can safely assume that value >> 1 == value / 2

	mov	edx, DWORD PTR _uiRange$[esp-4]
	mov	ecx, edx
	shr	ecx, 1
	cmp	eax, ecx
	jle	SHORT $LN3@wrapCoordD

; 60   : 		{
; 61   : 			return (iDiff - (int)uiRange);

	sub	eax, edx

; 66   : 		}
; 67   : 	}
; 68   : 
; 69   : 	return iDiff;
; 70   : }

	ret	0
$LN3@wrapCoordD:

; 62   : 		}
; 63   : 		else if(iDiff < -(int)(uiRange >> 1))

	neg	ecx
	cmp	eax, ecx
	jge	SHORT $LN5@wrapCoordD

; 64   : 		{
; 65   : 			return (iDiff + (int)uiRange);

	add	eax, edx
$LN5@wrapCoordD:

; 66   : 		}
; 67   : 	}
; 68   : 
; 69   : 	return iDiff;
; 70   : }

	ret	0
?wrapCoordDifference@@YAHHI_N@Z ENDP			; wrapCoordDifference
_TEXT	ENDS
PUBLIC	?xToHexspaceX@@YAHHH@Z				; xToHexspaceX
; Function compile flags: /Ogtpy
;	COMDAT ?xToHexspaceX@@YAHHH@Z
_TEXT	SEGMENT
_iX$ = 8						; size = 4
_iY$ = 12						; size = 4
?xToHexspaceX@@YAHHH@Z PROC				; xToHexspaceX, COMDAT

; 86   : 	return iX - ((iY >= 0) ? (iY>>1) : ((iY - 1)/2));

	mov	ecx, DWORD PTR _iY$[esp-4]
	test	ecx, ecx
	jge	SHORT $LN5@xToHexspac
	lea	eax, DWORD PTR [ecx-1]
	cdq
	sub	eax, edx
	mov	ecx, eax
$LN5@xToHexspac:
	mov	eax, DWORD PTR _iX$[esp-4]
	sar	ecx, 1
	sub	eax, ecx

; 87   : }

	ret	0
?xToHexspaceX@@YAHHH@Z ENDP				; xToHexspaceX
_TEXT	ENDS
PUBLIC	?GetInstanceName@CvLuaGame@@SAPBDXZ		; CvLuaGame::GetInstanceName
; Function compile flags: /Ogtpy
; File c:\users\enormousapplepie\documents\github\lekmod\lekmod_dll\cvgamecoredll_expansion2\lua\cvluagame.cpp
;	COMDAT ?GetInstanceName@CvLuaGame@@SAPBDXZ
_TEXT	SEGMENT
?GetInstanceName@CvLuaGame@@SAPBDXZ PROC		; CvLuaGame::GetInstanceName, COMDAT

; 35   : 	return "Game";

	mov	eax, OFFSET $SG222165

; 36   : }

	ret	0
?GetInstanceName@CvLuaGame@@SAPBDXZ ENDP		; CvLuaGame::GetInstanceName
_TEXT	ENDS
PUBLIC	?lIsTutorialLogging@CvLuaGame@@KAHPAUlua_State@@@Z ; CvLuaGame::lIsTutorialLogging
EXTRN	?GetTutorialLogging@CvGlobals@@QAE_NXZ:PROC	; CvGlobals::GetTutorialLogging
EXTRN	?gGlobals@@3VCvGlobals@@A:BYTE			; gGlobals
; Function compile flags: /Ogtpy
;	COMDAT ?lIsTutorialLogging@CvLuaGame@@KAHPAUlua_State@@@Z
_TEXT	SEGMENT
_L$ = 8							; size = 4
?lIsTutorialLogging@CvLuaGame@@KAHPAUlua_State@@@Z PROC	; CvLuaGame::lIsTutorialLogging, COMDAT

; 896  : 	lua_pushboolean(L, GC.GetTutorialLogging());

	mov	ecx, OFFSET ?gGlobals@@3VCvGlobals@@A	; gGlobals
	call	?GetTutorialLogging@CvGlobals@@QAE_NXZ	; CvGlobals::GetTutorialLogging
	mov	ecx, DWORD PTR _L$[esp-4]
	movzx	eax, al
	push	eax
	push	ecx
	call	_lua_pushboolean
	add	esp, 8

; 897  : 	return 1;

	mov	eax, 1

; 898  : }

	ret	0
?lIsTutorialLogging@CvLuaGame@@KAHPAUlua_State@@@Z ENDP	; CvLuaGame::lIsTutorialLogging
_TEXT	ENDS
PUBLIC	?lIsTutorialDebugging@CvLuaGame@@KAHPAUlua_State@@@Z ; CvLuaGame::lIsTutorialDebugging
EXTRN	?GetTutorialDebugging@CvGlobals@@QAE_NXZ:PROC	; CvGlobals::GetTutorialDebugging
; Function compile flags: /Ogtpy
;	COMDAT ?lIsTutorialDebugging@CvLuaGame@@KAHPAUlua_State@@@Z
_TEXT	SEGMENT
_L$ = 8							; size = 4
?lIsTutorialDebugging@CvLuaGame@@KAHPAUlua_State@@@Z PROC ; CvLuaGame::lIsTutorialDebugging, COMDAT

; 902  : 	lua_pushboolean(L, GC.GetTutorialDebugging());

	mov	ecx, OFFSET ?gGlobals@@3VCvGlobals@@A	; gGlobals
	call	?GetTutorialDebugging@CvGlobals@@QAE_NXZ ; CvGlobals::GetTutorialDebugging
	mov	ecx, DWORD PTR _L$[esp-4]
	movzx	eax, al
	push	eax
	push	ecx
	call	_lua_pushboolean
	add	esp, 8

; 903  : 	return 1;

	mov	eax, 1

; 904  : }

	ret	0
?lIsTutorialDebugging@CvLuaGame@@KAHPAUlua_State@@@Z ENDP ; CvLuaGame::lIsTutorialDebugging
_TEXT	ENDS
PUBLIC	?lGetAllowRClickMovementWhileScrolling@CvLuaGame@@KAHPAUlua_State@@@Z ; CvLuaGame::lGetAllowRClickMovementWhileScrolling
EXTRN	?GetAllowRClickMovementWhileScrolling@CvGlobals@@QAE_NXZ:PROC ; CvGlobals::GetAllowRClickMovementWhileScrolling
; Function compile flags: /Ogtpy
;	COMDAT ?lGetAllowRClickMovementWhileScrolling@CvLuaGame@@KAHPAUlua_State@@@Z
_TEXT	SEGMENT
_L$ = 8							; size = 4
?lGetAllowRClickMovementWhileScrolling@CvLuaGame@@KAHPAUlua_State@@@Z PROC ; CvLuaGame::lGetAllowRClickMovementWhileScrolling, COMDAT

; 946  : 	lua_pushboolean(L, GC.GetAllowRClickMovementWhileScrolling());

	mov	ecx, OFFSET ?gGlobals@@3VCvGlobals@@A	; gGlobals
	call	?GetAllowRClickMovementWhileScrolling@CvGlobals@@QAE_NXZ ; CvGlobals::GetAllowRClickMovementWhileScrolling
	mov	ecx, DWORD PTR _L$[esp-4]
	movzx	eax, al
	push	eax
	push	ecx
	call	_lua_pushboolean
	add	esp, 8

; 947  : 	return 1;

	mov	eax, 1

; 948  : }

	ret	0
?lGetAllowRClickMovementWhileScrolling@CvLuaGame@@KAHPAUlua_State@@@Z ENDP ; CvLuaGame::lGetAllowRClickMovementWhileScrolling
_TEXT	ENDS
PUBLIC	?lGetName@CvLuaGame@@KAHPAUlua_State@@@Z	; CvLuaGame::lGetName
EXTRN	_luaL_error:PROC
; Function compile flags: /Ogtpy
;	COMDAT ?lGetName@CvLuaGame@@KAHPAUlua_State@@@Z
_TEXT	SEGMENT
_L$ = 8							; size = 4
?lGetName@CvLuaGame@@KAHPAUlua_State@@@Z PROC		; CvLuaGame::lGetName, COMDAT

; 1528 : 	luaL_error(L, "NYI");

	mov	eax, DWORD PTR _L$[esp-4]
	push	OFFSET $SG224178
	push	eax
	call	_luaL_error
	add	esp, 8

; 1529 : 	return 0;

	xor	eax, eax

; 1530 : }

	ret	0
?lGetName@CvLuaGame@@KAHPAUlua_State@@@Z ENDP		; CvLuaGame::lGetName
_TEXT	ENDS
PUBLIC	?lGetReplayInfo@CvLuaGame@@KAHPAUlua_State@@@Z	; CvLuaGame::lGetReplayInfo
; Function compile flags: /Ogtpy
;	COMDAT ?lGetReplayInfo@CvLuaGame@@KAHPAUlua_State@@@Z
_TEXT	SEGMENT
_L$ = 8							; size = 4
?lGetReplayInfo@CvLuaGame@@KAHPAUlua_State@@@Z PROC	; CvLuaGame::lGetReplayInfo, COMDAT

; 1685 : 	luaL_error(L, "NYI");

	mov	eax, DWORD PTR _L$[esp-4]
	push	OFFSET $SG224276
	push	eax
	call	_luaL_error
	add	esp, 8

; 1686 : 	return 0;

	xor	eax, eax

; 1687 : }

	ret	0
?lGetReplayInfo@CvLuaGame@@KAHPAUlua_State@@@Z ENDP	; CvLuaGame::lGetReplayInfo
_TEXT	ENDS
PUBLIC	?lGetResourceUsageType@CvLuaGame@@KAHPAUlua_State@@@Z ; CvLuaGame::lGetResourceUsageType
EXTRN	?getResourceUsage@CvResourceInfo@@QBE?AW4ResourceUsageTypes@@XZ:PROC ; CvResourceInfo::getResourceUsage
EXTRN	?getResourceInfo@CvGlobals@@QAEPAVCvResourceInfo@@W4ResourceTypes@@@Z:PROC ; CvGlobals::getResourceInfo
; Function compile flags: /Ogtpy
;	COMDAT ?lGetResourceUsageType@CvLuaGame@@KAHPAUlua_State@@@Z
_TEXT	SEGMENT
_L$ = 8							; size = 4
?lGetResourceUsageType@CvLuaGame@@KAHPAUlua_State@@@Z PROC ; CvLuaGame::lGetResourceUsageType, COMDAT

; 1844 : {

	push	esi
	push	edi

; 1845 : 	const ResourceTypes eResource = (ResourceTypes) lua_tointeger(L, 1);

	mov	edi, DWORD PTR _L$[esp+4]
	push	1
	push	edi
	call	_lua_tointeger
	add	esp, 8
	mov	esi, eax

; 1846 : 	const CvResourceInfo* pkResourceInfo = GC.getResourceInfo(eResource);

	push	esi
	mov	ecx, OFFSET ?gGlobals@@3VCvGlobals@@A	; gGlobals
	call	?getResourceInfo@CvGlobals@@QAEPAVCvResourceInfo@@W4ResourceTypes@@@Z ; CvGlobals::getResourceInfo

; 1847 : 	if (pkResourceInfo)

	test	eax, eax
	je	SHORT $LN2@lGetResour

; 1848 : 	{
; 1849 : 		ResourceUsageTypes eUsage = GC.getResourceInfo(eResource)->getResourceUsage();

	push	esi
	mov	ecx, OFFSET ?gGlobals@@3VCvGlobals@@A	; gGlobals
	call	?getResourceInfo@CvGlobals@@QAEPAVCvResourceInfo@@W4ResourceTypes@@@Z ; CvGlobals::getResourceInfo
	mov	ecx, eax
	call	?getResourceUsage@CvResourceInfo@@QBE?AW4ResourceUsageTypes@@XZ ; CvResourceInfo::getResourceUsage

; 1850 : 		lua_pushinteger(L, eUsage);

	push	eax

; 1851 : 	}
; 1852 : 	else
; 1853 : 		lua_pushinteger(L, -1);		// NO_USAGE

	push	edi
	call	_lua_pushinteger
	add	esp, 8
	pop	edi

; 1854 : 
; 1855 : 	return 1;

	mov	eax, 1
	pop	esi

; 1856 : }

	ret	0
$LN2@lGetResour:

; 1851 : 	}
; 1852 : 	else
; 1853 : 		lua_pushinteger(L, -1);		// NO_USAGE

	push	-1
	push	edi
	call	_lua_pushinteger
	add	esp, 8
	pop	edi

; 1854 : 
; 1855 : 	return 1;

	mov	eax, 1
	pop	esi

; 1856 : }

	ret	0
?lGetResourceUsageType@CvLuaGame@@KAHPAUlua_State@@@Z ENDP ; CvLuaGame::lGetResourceUsageType
_TEXT	ENDS
PUBLIC	?lGetNumResourceRequiredForUnit@CvLuaGame@@KAHPAUlua_State@@@Z ; CvLuaGame::lGetNumResourceRequiredForUnit
EXTRN	?GetResourceQuantityRequirement@CvUnitEntry@@QBEHH@Z:PROC ; CvUnitEntry::GetResourceQuantityRequirement
EXTRN	?getUnitInfo@CvGlobals@@QAEPAVCvUnitEntry@@W4UnitTypes@@@Z:PROC ; CvGlobals::getUnitInfo
; Function compile flags: /Ogtpy
;	COMDAT ?lGetNumResourceRequiredForUnit@CvLuaGame@@KAHPAUlua_State@@@Z
_TEXT	SEGMENT
_L$ = 8							; size = 4
?lGetNumResourceRequiredForUnit@CvLuaGame@@KAHPAUlua_State@@@Z PROC ; CvLuaGame::lGetNumResourceRequiredForUnit, COMDAT

; 1859 : {

	push	ebx
	push	esi

; 1860 : 	const UnitTypes eUnit = (UnitTypes) lua_tointeger(L, 1);

	mov	esi, DWORD PTR _L$[esp+4]
	push	edi
	push	1
	push	esi
	call	_lua_tointeger

; 1861 : 	const ResourceTypes eResource = (ResourceTypes) lua_tointeger(L, 2);

	push	2
	push	esi
	mov	edi, eax
	call	_lua_tointeger
	add	esp, 16					; 00000010H

; 1862 : 
; 1863 : 	CvUnitEntry* pkUnitInfo = GC.getUnitInfo(eUnit);

	push	edi
	mov	ecx, OFFSET ?gGlobals@@3VCvGlobals@@A	; gGlobals
	mov	ebx, eax
	call	?getUnitInfo@CvGlobals@@QAEPAVCvUnitEntry@@W4UnitTypes@@@Z ; CvGlobals::getUnitInfo

; 1864 : 	if(pkUnitInfo == NULL)

	test	eax, eax
	jne	SHORT $LN1@lGetNumRes

; 1865 : 	{
; 1866 : 		luaL_error(L, "Unit row at ID %d is empty.", eUnit);

	push	edi
	push	OFFSET $SG224800
	push	esi
	call	_luaL_error
	add	esp, 12					; 0000000cH
	pop	edi
	pop	esi

; 1867 : 		return 0;

	xor	eax, eax
	pop	ebx

; 1875 : }

	ret	0
$LN1@lGetNumRes:

; 1868 : 	}
; 1869 : 
; 1870 : 	const int iNumNeeded = pkUnitInfo->GetResourceQuantityRequirement(eResource);

	push	ebx
	mov	ecx, eax
	call	?GetResourceQuantityRequirement@CvUnitEntry@@QBEHH@Z ; CvUnitEntry::GetResourceQuantityRequirement

; 1871 : 
; 1872 : 	lua_pushinteger(L, iNumNeeded);

	push	eax
	push	esi
	call	_lua_pushinteger
	add	esp, 8
	pop	edi
	pop	esi

; 1873 : 
; 1874 : 	return 1;

	mov	eax, 1
	pop	ebx

; 1875 : }

	ret	0
?lGetNumResourceRequiredForUnit@CvLuaGame@@KAHPAUlua_State@@@Z ENDP ; CvLuaGame::lGetNumResourceRequiredForUnit
_TEXT	ENDS
PUBLIC	?lGetNumResourceRequiredForBuilding@CvLuaGame@@KAHPAUlua_State@@@Z ; CvLuaGame::lGetNumResourceRequiredForBuilding
EXTRN	?GetResourceQuantityRequirement@CvBuildingEntry@@QBEHH@Z:PROC ; CvBuildingEntry::GetResourceQuantityRequirement
EXTRN	?getBuildingInfo@CvGlobals@@QAEPAVCvBuildingEntry@@W4BuildingTypes@@@Z:PROC ; CvGlobals::getBuildingInfo
EXTRN	_luaL_checkinteger:PROC
; Function compile flags: /Ogtpy
;	COMDAT ?lGetNumResourceRequiredForBuilding@CvLuaGame@@KAHPAUlua_State@@@Z
_TEXT	SEGMENT
_L$ = 8							; size = 4
?lGetNumResourceRequiredForBuilding@CvLuaGame@@KAHPAUlua_State@@@Z PROC ; CvLuaGame::lGetNumResourceRequiredForBuilding, COMDAT

; 1878 : {

	push	ebx

; 1879 : 	const BuildingTypes eBuilding = (BuildingTypes) luaL_checkint(L, 1);

	mov	ebx, DWORD PTR _L$[esp]
	push	esi
	push	edi
	push	1
	push	ebx
	call	_luaL_checkinteger

; 1880 : 	const ResourceTypes eResource = (ResourceTypes) luaL_checkint(L, 2);

	push	2
	push	ebx
	mov	edi, eax
	call	_luaL_checkinteger
	add	esp, 16					; 00000010H

; 1881 : 
; 1882 : 	CvBuildingEntry* pkBuildingInfo = GC.getBuildingInfo(eBuilding);

	push	edi
	mov	ecx, OFFSET ?gGlobals@@3VCvGlobals@@A	; gGlobals
	mov	esi, eax
	call	?getBuildingInfo@CvGlobals@@QAEPAVCvBuildingEntry@@W4BuildingTypes@@@Z ; CvGlobals::getBuildingInfo

; 1883 : 	CvResourceInfo* pkResourceInfo = GC.getResourceInfo(eResource);

	push	esi
	mov	ecx, OFFSET ?gGlobals@@3VCvGlobals@@A	; gGlobals
	mov	edi, eax
	call	?getResourceInfo@CvGlobals@@QAEPAVCvResourceInfo@@W4ResourceTypes@@@Z ; CvGlobals::getResourceInfo
	mov	ecx, eax

; 1884 : 
; 1885 : 	int iNumNeeded = 0;

	xor	eax, eax

; 1886 : 	if(pkBuildingInfo && pkResourceInfo)

	test	edi, edi
	je	SHORT $LN1@lGetNumRes@2
	test	ecx, ecx
	je	SHORT $LN1@lGetNumRes@2

; 1887 : 	{
; 1888 : 		iNumNeeded = pkBuildingInfo->GetResourceQuantityRequirement(eResource);

	push	esi
	mov	ecx, edi
	call	?GetResourceQuantityRequirement@CvBuildingEntry@@QBEHH@Z ; CvBuildingEntry::GetResourceQuantityRequirement
$LN1@lGetNumRes@2:

; 1889 : 	}
; 1890 : 
; 1891 : 	lua_pushinteger(L, iNumNeeded);

	push	eax
	push	ebx
	call	_lua_pushinteger
	add	esp, 8
	pop	edi
	pop	esi

; 1892 : 	return 1;

	mov	eax, 1
	pop	ebx

; 1893 : }

	ret	0
?lGetNumResourceRequiredForBuilding@CvLuaGame@@KAHPAUlua_State@@@Z ENDP ; CvLuaGame::lGetNumResourceRequiredForBuilding
_TEXT	ENDS
PUBLIC	?lGetCustomOption@CvLuaGame@@KAHPAUlua_State@@@Z ; CvLuaGame::lGetCustomOption
EXTRN	?GetGameOption@CvPreGame@@YA_NPBDAAH@Z:PROC	; CvPreGame::GetGameOption
EXTRN	_luaL_checklstring:PROC
; Function compile flags: /Ogtpy
;	COMDAT ?lGetCustomOption@CvLuaGame@@KAHPAUlua_State@@@Z
_TEXT	SEGMENT
_i$ = -4						; size = 4
_L$ = 8							; size = 4
?lGetCustomOption@CvLuaGame@@KAHPAUlua_State@@@Z PROC	; CvLuaGame::lGetCustomOption, COMDAT

; 2037 : {

	push	ecx
	push	esi

; 2038 : 	const char* szOptionName = luaL_checkstring(L, 1);

	mov	esi, DWORD PTR _L$[esp+4]
	push	0
	push	1
	push	esi
	call	_luaL_checklstring

; 2039 : 	int i = 0;
; 2040 : 	if(CvPreGame::GetGameOption(szOptionName, i))

	lea	ecx, DWORD PTR _i$[esp+20]
	push	ecx
	push	eax
	mov	DWORD PTR _i$[esp+28], 0
	call	?GetGameOption@CvPreGame@@YA_NPBDAAH@Z	; CvPreGame::GetGameOption
	add	esp, 20					; 00000014H
	test	al, al
	je	SHORT $LN1@lGetCustom

; 2041 : 	{
; 2042 : 		lua_pushinteger(L, i);

	mov	edx, DWORD PTR _i$[esp+8]
	push	edx
	push	esi
	call	_lua_pushinteger
	add	esp, 8

; 2043 : 		return 1;

	mov	eax, 1
	pop	esi

; 2047 : }

	pop	ecx
	ret	0
$LN1@lGetCustom:

; 2044 : 	}
; 2045 : 
; 2046 : 	return 0;

	xor	eax, eax
	pop	esi

; 2047 : }

	pop	ecx
	ret	0
?lGetCustomOption@CvLuaGame@@KAHPAUlua_State@@@Z ENDP	; CvLuaGame::lGetCustomOption
_TEXT	ENDS
PUBLIC	?lGetBuildingYieldChange@CvLuaGame@@KAHPAUlua_State@@@Z ; CvLuaGame::lGetBuildingYieldChange
EXTRN	?GetYieldChange@CvBuildingEntry@@QBEHH@Z:PROC	; CvBuildingEntry::GetYieldChange
EXTRN	?getYieldInfo@CvGlobals@@QAEPAVCvYieldInfo@@W4YieldTypes@@@Z:PROC ; CvGlobals::getYieldInfo
; Function compile flags: /Ogtpy
;	COMDAT ?lGetBuildingYieldChange@CvLuaGame@@KAHPAUlua_State@@@Z
_TEXT	SEGMENT
_L$ = 8							; size = 4
?lGetBuildingYieldChange@CvLuaGame@@KAHPAUlua_State@@@Z PROC ; CvLuaGame::lGetBuildingYieldChange, COMDAT

; 2062 : {

	push	ebx

; 2063 : 	const BuildingTypes eBuilding = (BuildingTypes) luaL_checkint(L, 1);

	mov	ebx, DWORD PTR _L$[esp]
	push	esi
	push	edi
	push	1
	push	ebx
	call	_luaL_checkinteger

; 2064 : 	const YieldTypes eYield = (YieldTypes) luaL_checkint(L, 2);

	push	2
	push	ebx
	mov	edi, eax
	call	_luaL_checkinteger
	add	esp, 16					; 00000010H

; 2065 : 
; 2066 : 	CvBuildingEntry* pkBuildingInfo = GC.getBuildingInfo(eBuilding);

	push	edi
	mov	ecx, OFFSET ?gGlobals@@3VCvGlobals@@A	; gGlobals
	mov	esi, eax
	call	?getBuildingInfo@CvGlobals@@QAEPAVCvBuildingEntry@@W4BuildingTypes@@@Z ; CvGlobals::getBuildingInfo

; 2067 : 	CvYieldInfo* pkYieldInfo = GC.getYieldInfo(eYield);

	push	esi
	mov	ecx, OFFSET ?gGlobals@@3VCvGlobals@@A	; gGlobals
	mov	edi, eax
	call	?getYieldInfo@CvGlobals@@QAEPAVCvYieldInfo@@W4YieldTypes@@@Z ; CvGlobals::getYieldInfo
	mov	ecx, eax

; 2068 : 
; 2069 : 	int iYieldChange = 0;

	xor	eax, eax

; 2070 : 	if(pkBuildingInfo && pkYieldInfo)

	test	edi, edi
	je	SHORT $LN1@lGetBuildi
	test	ecx, ecx
	je	SHORT $LN1@lGetBuildi

; 2071 : 	{
; 2072 : 		iYieldChange = pkBuildingInfo->GetYieldChange(eYield);

	push	esi
	mov	ecx, edi
	call	?GetYieldChange@CvBuildingEntry@@QBEHH@Z ; CvBuildingEntry::GetYieldChange
$LN1@lGetBuildi:

; 2073 : 	}
; 2074 : 
; 2075 : 	lua_pushinteger(L, iYieldChange);

	push	eax
	push	ebx
	call	_lua_pushinteger
	add	esp, 8
	pop	edi
	pop	esi

; 2076 : 	return 1;

	mov	eax, 1
	pop	ebx

; 2077 : }

	ret	0
?lGetBuildingYieldChange@CvLuaGame@@KAHPAUlua_State@@@Z ENDP ; CvLuaGame::lGetBuildingYieldChange
_TEXT	ENDS
PUBLIC	?lGetBuildingYieldModifier@CvLuaGame@@KAHPAUlua_State@@@Z ; CvLuaGame::lGetBuildingYieldModifier
EXTRN	?GetYieldModifier@CvBuildingEntry@@QBEHH@Z:PROC	; CvBuildingEntry::GetYieldModifier
; Function compile flags: /Ogtpy
;	COMDAT ?lGetBuildingYieldModifier@CvLuaGame@@KAHPAUlua_State@@@Z
_TEXT	SEGMENT
_L$ = 8							; size = 4
?lGetBuildingYieldModifier@CvLuaGame@@KAHPAUlua_State@@@Z PROC ; CvLuaGame::lGetBuildingYieldModifier, COMDAT

; 2080 : {

	push	ebx

; 2081 : 	const BuildingTypes eBuilding = (BuildingTypes) luaL_checkint(L, 1);

	mov	ebx, DWORD PTR _L$[esp]
	push	esi
	push	edi
	push	1
	push	ebx
	call	_luaL_checkinteger

; 2082 : 	const YieldTypes eYield = (YieldTypes) luaL_checkint(L, 2);

	push	2
	push	ebx
	mov	edi, eax
	call	_luaL_checkinteger
	add	esp, 16					; 00000010H

; 2083 : 
; 2084 : 	CvBuildingEntry* pkBuildingInfo = GC.getBuildingInfo(eBuilding);

	push	edi
	mov	ecx, OFFSET ?gGlobals@@3VCvGlobals@@A	; gGlobals
	mov	esi, eax
	call	?getBuildingInfo@CvGlobals@@QAEPAVCvBuildingEntry@@W4BuildingTypes@@@Z ; CvGlobals::getBuildingInfo

; 2085 : 	CvYieldInfo* pkYieldInfo = GC.getYieldInfo(eYield);

	push	esi
	mov	ecx, OFFSET ?gGlobals@@3VCvGlobals@@A	; gGlobals
	mov	edi, eax
	call	?getYieldInfo@CvGlobals@@QAEPAVCvYieldInfo@@W4YieldTypes@@@Z ; CvGlobals::getYieldInfo
	mov	ecx, eax

; 2086 : 
; 2087 : 	int iYieldModifier = 0;

	xor	eax, eax

; 2088 : 	if(pkBuildingInfo && pkYieldInfo)

	test	edi, edi
	je	SHORT $LN1@lGetBuildi@2
	test	ecx, ecx
	je	SHORT $LN1@lGetBuildi@2

; 2089 : 	{
; 2090 : 		iYieldModifier= pkBuildingInfo->GetYieldModifier(eYield);

	push	esi
	mov	ecx, edi
	call	?GetYieldModifier@CvBuildingEntry@@QBEHH@Z ; CvBuildingEntry::GetYieldModifier
$LN1@lGetBuildi@2:

; 2091 : 	}
; 2092 : 
; 2093 : 	lua_pushinteger(L, iYieldModifier);

	push	eax
	push	ebx
	call	_lua_pushinteger
	add	esp, 8
	pop	edi
	pop	esi

; 2094 : 	return 1;

	mov	eax, 1
	pop	ebx

; 2095 : }

	ret	0
?lGetBuildingYieldModifier@CvLuaGame@@KAHPAUlua_State@@@Z ENDP ; CvLuaGame::lGetBuildingYieldModifier
_TEXT	ENDS
PUBLIC	?lGetUnitUpgradesTo@CvLuaGame@@KAHPAUlua_State@@@Z ; CvLuaGame::lGetUnitUpgradesTo
EXTRN	?getDefaultUnitIndex@CvUnitClassInfo@@QBEHXZ:PROC ; CvUnitClassInfo::getDefaultUnitIndex
EXTRN	?GetUpgradeUnitClass@CvUnitEntry@@QBE_NH@Z:PROC	; CvUnitEntry::GetUpgradeUnitClass
EXTRN	?getUnitClassInfo@CvGlobals@@QAEPAVCvUnitClassInfo@@W4UnitClassTypes@@@Z:PROC ; CvGlobals::getUnitClassInfo
EXTRN	?getNumUnitClassInfos@CvGlobals@@QAEHXZ:PROC	; CvGlobals::getNumUnitClassInfos
; Function compile flags: /Ogtpy
;	COMDAT ?lGetUnitUpgradesTo@CvLuaGame@@KAHPAUlua_State@@@Z
_TEXT	SEGMENT
_L$ = 8							; size = 4
?lGetUnitUpgradesTo@CvLuaGame@@KAHPAUlua_State@@@Z PROC	; CvLuaGame::lGetUnitUpgradesTo, COMDAT

; 2115 : {

	push	ebx
	push	ebp

; 2116 : 	const UnitTypes eUnit = (UnitTypes) lua_tointeger(L, 1);

	mov	ebp, DWORD PTR _L$[esp+4]
	push	esi
	push	1
	push	ebp
	call	_lua_tointeger
	add	esp, 8
	mov	esi, eax

; 2117 : 
; 2118 : 	CvUnitEntry* pkUnitInfo = GC.getUnitInfo(eUnit);

	push	esi
	mov	ecx, OFFSET ?gGlobals@@3VCvGlobals@@A	; gGlobals
	call	?getUnitInfo@CvGlobals@@QAEPAVCvUnitEntry@@W4UnitTypes@@@Z ; CvGlobals::getUnitInfo
	mov	ebx, eax

; 2119 : 	if(pkUnitInfo == NULL)

	test	ebx, ebx
	jne	SHORT $LN6@lGetUnitUp

; 2120 : 	{
; 2121 : 		luaL_error(L, "Unit row at ID %d is empty.", eUnit);

	push	esi
	push	OFFSET $SG224948
	push	ebp
	call	_luaL_error
	add	esp, 12					; 0000000cH
	pop	esi
	pop	ebp

; 2122 : 		return 0;

	xor	eax, eax
	pop	ebx

; 2144 : }

	ret	0
$LN6@lGetUnitUp:
	push	edi

; 2123 : 	}
; 2124 : 
; 2125 : #ifdef AUI_WARNING_FIXES
; 2126 : 	for (uint iUnitClassLoop = 0; iUnitClassLoop < GC.getNumUnitClassInfos(); iUnitClassLoop++)
; 2127 : #else
; 2128 : 	for(int iUnitClassLoop = 0; iUnitClassLoop < GC.getNumUnitClassInfos(); iUnitClassLoop++)

	mov	ecx, OFFSET ?gGlobals@@3VCvGlobals@@A	; gGlobals
	xor	esi, esi
	call	?getNumUnitClassInfos@CvGlobals@@QAEHXZ	; CvGlobals::getNumUnitClassInfos
	test	eax, eax
	jle	SHORT $LN3@lGetUnitUp
	npad	5
$LL12@lGetUnitUp:

; 2129 : #endif
; 2130 : 	{
; 2131 : 		CvUnitClassInfo* pkUnitClassInfo = GC.getUnitClassInfo((UnitClassTypes) iUnitClassLoop);

	push	esi
	mov	ecx, OFFSET ?gGlobals@@3VCvGlobals@@A	; gGlobals
	call	?getUnitClassInfo@CvGlobals@@QAEPAVCvUnitClassInfo@@W4UnitClassTypes@@@Z ; CvGlobals::getUnitClassInfo
	mov	edi, eax

; 2132 : 		if(pkUnitClassInfo != NULL)

	test	edi, edi
	je	SHORT $LN4@lGetUnitUp

; 2133 : 		{
; 2134 : 			if(pkUnitInfo->GetUpgradeUnitClass(iUnitClassLoop))	// Hardcoded to look at entry 0

	push	esi
	mov	ecx, ebx
	call	?GetUpgradeUnitClass@CvUnitEntry@@QBE_NH@Z ; CvUnitEntry::GetUpgradeUnitClass
	test	al, al
	jne	SHORT $LN10@lGetUnitUp
$LN4@lGetUnitUp:

; 2123 : 	}
; 2124 : 
; 2125 : #ifdef AUI_WARNING_FIXES
; 2126 : 	for (uint iUnitClassLoop = 0; iUnitClassLoop < GC.getNumUnitClassInfos(); iUnitClassLoop++)
; 2127 : #else
; 2128 : 	for(int iUnitClassLoop = 0; iUnitClassLoop < GC.getNumUnitClassInfos(); iUnitClassLoop++)

	mov	ecx, OFFSET ?gGlobals@@3VCvGlobals@@A	; gGlobals
	inc	esi
	call	?getNumUnitClassInfos@CvGlobals@@QAEHXZ	; CvGlobals::getNumUnitClassInfos
	cmp	esi, eax
	jl	SHORT $LL12@lGetUnitUp
$LN3@lGetUnitUp:

; 2138 : 			}
; 2139 : 		}
; 2140 : 	}
; 2141 : 
; 2142 : 	lua_pushinteger(L, -1);

	push	-1
	push	ebp
	call	_lua_pushinteger
	add	esp, 8
	pop	edi
	pop	esi
	pop	ebp

; 2143 : 	return 0;

	xor	eax, eax
	pop	ebx

; 2144 : }

	ret	0
$LN10@lGetUnitUp:

; 2135 : 			{
; 2136 : 				lua_pushinteger(L, pkUnitClassInfo->getDefaultUnitIndex());

	mov	ecx, edi
	call	?getDefaultUnitIndex@CvUnitClassInfo@@QBEHXZ ; CvUnitClassInfo::getDefaultUnitIndex
	push	eax
	push	ebp
	call	_lua_pushinteger
	add	esp, 8
	pop	edi
	pop	esi
	pop	ebp

; 2137 : 				return 1;

	mov	eax, 1
	pop	ebx

; 2144 : }

	ret	0
?lGetUnitUpgradesTo@CvLuaGame@@KAHPAUlua_State@@@Z ENDP	; CvLuaGame::lGetUnitUpgradesTo
_TEXT	ENDS
PUBLIC	?lGetNumFreePolicies@CvLuaGame@@KAHPAUlua_State@@@Z ; CvLuaGame::lGetNumFreePolicies
EXTRN	?GetNumFreePolicies@PolicyHelpers@@YAHW4PolicyBranchTypes@@@Z:PROC ; PolicyHelpers::GetNumFreePolicies
; Function compile flags: /Ogtpy
;	COMDAT ?lGetNumFreePolicies@CvLuaGame@@KAHPAUlua_State@@@Z
_TEXT	SEGMENT
_L$ = 8							; size = 4
?lGetNumFreePolicies@CvLuaGame@@KAHPAUlua_State@@@Z PROC ; CvLuaGame::lGetNumFreePolicies, COMDAT

; 2863 : {

	push	esi

; 2864 : 	const PolicyBranchTypes eBranch = static_cast<PolicyBranchTypes>(luaL_checkint(L, 1));

	mov	esi, DWORD PTR _L$[esp]
	push	1
	push	esi
	call	_luaL_checkinteger

; 2865 : 	lua_pushinteger(L, PolicyHelpers::GetNumFreePolicies(eBranch));

	push	eax
	call	?GetNumFreePolicies@PolicyHelpers@@YAHW4PolicyBranchTypes@@@Z ; PolicyHelpers::GetNumFreePolicies
	push	eax
	push	esi
	call	_lua_pushinteger
	add	esp, 20					; 00000014H

; 2866 : 	return 1;

	mov	eax, 1
	pop	esi

; 2867 : }

	ret	0
?lGetNumFreePolicies@CvLuaGame@@KAHPAUlua_State@@@Z ENDP ; CvLuaGame::lGetNumFreePolicies
_TEXT	ENDS
PUBLIC	??A?$BaseVector@UCounsel@CvAdvisorCounsel@@$00@@QAEAAUCounsel@CvAdvisorCounsel@@I@Z ; BaseVector<CvAdvisorCounsel::Counsel,1>::operator[]
; Function compile flags: /Ogtpy
; File c:\users\enormousapplepie\documents\github\lekmod\lekmod_dll\fireplace\include\fireworks\ffastvector.h
;	COMDAT ??A?$BaseVector@UCounsel@CvAdvisorCounsel@@$00@@QAEAAUCounsel@CvAdvisorCounsel@@I@Z
_TEXT	SEGMENT
_ui$ = 8						; size = 4
??A?$BaseVector@UCounsel@CvAdvisorCounsel@@$00@@QAEAAUCounsel@CvAdvisorCounsel@@I@Z PROC ; BaseVector<CvAdvisorCounsel::Counsel,1>::operator[], COMDAT
; _this$ = ecx

; 129  : 		FAssert(ui < m_uiCurrSize);
; 130  : 		return m_pData[ui];

	mov	eax, DWORD PTR _ui$[esp-4]
	imul	eax, 520				; 00000208H
	add	eax, DWORD PTR [ecx]

; 131  : 	};

	ret	4
??A?$BaseVector@UCounsel@CvAdvisorCounsel@@$00@@QAEAAUCounsel@CvAdvisorCounsel@@I@Z ENDP ; BaseVector<CvAdvisorCounsel::Counsel,1>::operator[]
_TEXT	ENDS
PUBLIC	?size@?$BaseVector@UCounsel@CvAdvisorCounsel@@$00@@QBEIXZ ; BaseVector<CvAdvisorCounsel::Counsel,1>::size
; Function compile flags: /Ogtpy
;	COMDAT ?size@?$BaseVector@UCounsel@CvAdvisorCounsel@@$00@@QBEIXZ
_TEXT	SEGMENT
?size@?$BaseVector@UCounsel@CvAdvisorCounsel@@$00@@QBEIXZ PROC ; BaseVector<CvAdvisorCounsel::Counsel,1>::size, COMDAT
; _this$ = ecx

; 169  : 		return m_uiCurrSize;

	mov	eax, DWORD PTR [ecx+4]

; 170  : 	};

	ret	0
?size@?$BaseVector@UCounsel@CvAdvisorCounsel@@$00@@QBEIXZ ENDP ; BaseVector<CvAdvisorCounsel::Counsel,1>::size
_TEXT	ENDS
PUBLIC	??1?$_Container_base_aux_alloc_empty@V?$allocator@W4BeliefTypes@@@std@@@std@@IAE@XZ ; std::_Container_base_aux_alloc_empty<std::allocator<enum BeliefTypes> >::~_Container_base_aux_alloc_empty<std::allocator<enum BeliefTypes> >
; Function compile flags: /Ogtpy
; File c:\program files (x86)\microsoft visual studio 9.0\vc\include\xutility
;	COMDAT ??1?$_Container_base_aux_alloc_empty@V?$allocator@W4BeliefTypes@@@std@@@std@@IAE@XZ
_TEXT	SEGMENT
??1?$_Container_base_aux_alloc_empty@V?$allocator@W4BeliefTypes@@@std@@@std@@IAE@XZ PROC ; std::_Container_base_aux_alloc_empty<std::allocator<enum BeliefTypes> >::~_Container_base_aux_alloc_empty<std::allocator<enum BeliefTypes> >, COMDAT
; _this$ = ecx

; 627  : 	~_Container_base_aux_alloc_empty() { }

	ret	0
??1?$_Container_base_aux_alloc_empty@V?$allocator@W4BeliefTypes@@@std@@@std@@IAE@XZ ENDP ; std::_Container_base_aux_alloc_empty<std::allocator<enum BeliefTypes> >::~_Container_base_aux_alloc_empty<std::allocator<enum BeliefTypes> >
_TEXT	ENDS
PUBLIC	??D?$_Vector_const_iterator@W4BeliefTypes@@V?$allocator@W4BeliefTypes@@@std@@@std@@QBEABW4BeliefTypes@@XZ ; std::_Vector_const_iterator<enum BeliefTypes,std::allocator<enum BeliefTypes> >::operator*
; Function compile flags: /Ogtpy
; File c:\program files (x86)\microsoft visual studio 9.0\vc\include\vector
;	COMDAT ??D?$_Vector_const_iterator@W4BeliefTypes@@V?$allocator@W4BeliefTypes@@@std@@@std@@QBEABW4BeliefTypes@@XZ
_TEXT	SEGMENT
??D?$_Vector_const_iterator@W4BeliefTypes@@V?$allocator@W4BeliefTypes@@@std@@@std@@QBEABW4BeliefTypes@@XZ PROC ; std::_Vector_const_iterator<enum BeliefTypes,std::allocator<enum BeliefTypes> >::operator*, COMDAT
; _this$ = ecx

; 92   : 
; 93   :  #if _HAS_ITERATOR_DEBUGGING
; 94   : 		if (this->_Mycont == 0
; 95   : 			|| _Myptr < ((_Myvec *)this->_Mycont)->_Myfirst
; 96   : 			|| ((_Myvec *)this->_Mycont)->_Mylast <= _Myptr)
; 97   : 			{
; 98   : 			_DEBUG_ERROR("vector iterator not dereferencable");
; 99   : 			_SCL_SECURE_OUT_OF_RANGE;
; 100  : 			}
; 101  :  #else
; 102  :  		_SCL_SECURE_VALIDATE(this->_Has_container());
; 103  : 		_SCL_SECURE_VALIDATE_RANGE(_Myptr < ((_Myvec *)(this->_Getmycont()))->_Mylast);
; 104  :  #endif /* _HAS_ITERATOR_DEBUGGING */
; 105  : 
; 106  : 		return (*_Myptr);

	mov	eax, DWORD PTR [ecx]

; 107  : 		}

	ret	0
??D?$_Vector_const_iterator@W4BeliefTypes@@V?$allocator@W4BeliefTypes@@@std@@@std@@QBEABW4BeliefTypes@@XZ ENDP ; std::_Vector_const_iterator<enum BeliefTypes,std::allocator<enum BeliefTypes> >::operator*
_TEXT	ENDS
PUBLIC	??E?$_Vector_const_iterator@W4BeliefTypes@@V?$allocator@W4BeliefTypes@@@std@@@std@@QAEAAV01@XZ ; std::_Vector_const_iterator<enum BeliefTypes,std::allocator<enum BeliefTypes> >::operator++
; Function compile flags: /Ogtpy
;	COMDAT ??E?$_Vector_const_iterator@W4BeliefTypes@@V?$allocator@W4BeliefTypes@@@std@@@std@@QAEAAV01@XZ
_TEXT	SEGMENT
??E?$_Vector_const_iterator@W4BeliefTypes@@V?$allocator@W4BeliefTypes@@@std@@@std@@QAEAAV01@XZ PROC ; std::_Vector_const_iterator<enum BeliefTypes,std::allocator<enum BeliefTypes> >::operator++, COMDAT
; _this$ = ecx

; 115  : 		{	// preincrement

	mov	eax, ecx

; 116  : 		_SCL_SECURE_VALIDATE(this->_Has_container());
; 117  : 		_SCL_SECURE_VALIDATE_RANGE(_Myptr < ((_Myvec *)(this->_Getmycont()))->_Mylast);
; 118  : 
; 119  :  #if _HAS_ITERATOR_DEBUGGING
; 120  : 		if (this->_Mycont == 0
; 121  : 			|| ((_Myvec *)this->_Mycont)->_Mylast <= _Myptr)
; 122  : 			_DEBUG_ERROR("vector iterator not incrementable");
; 123  :  #endif /* _HAS_ITERATOR_DEBUGGING */
; 124  : 
; 125  : 		++_Myptr;

	add	DWORD PTR [eax], 4

; 126  : 		return (*this);
; 127  : 		}

	ret	0
??E?$_Vector_const_iterator@W4BeliefTypes@@V?$allocator@W4BeliefTypes@@@std@@@std@@QAEAAV01@XZ ENDP ; std::_Vector_const_iterator<enum BeliefTypes,std::allocator<enum BeliefTypes> >::operator++
_TEXT	ENDS
PUBLIC	??8?$_Vector_const_iterator@W4BeliefTypes@@V?$allocator@W4BeliefTypes@@@std@@@std@@QBE_NABV01@@Z ; std::_Vector_const_iterator<enum BeliefTypes,std::allocator<enum BeliefTypes> >::operator==
; Function compile flags: /Ogtpy
;	COMDAT ??8?$_Vector_const_iterator@W4BeliefTypes@@V?$allocator@W4BeliefTypes@@@std@@@std@@QBE_NABV01@@Z
_TEXT	SEGMENT
__Right$ = 8						; size = 4
??8?$_Vector_const_iterator@W4BeliefTypes@@V?$allocator@W4BeliefTypes@@@std@@@std@@QBE_NABV01@@Z PROC ; std::_Vector_const_iterator<enum BeliefTypes,std::allocator<enum BeliefTypes> >::operator==, COMDAT
; _this$ = ecx

; 204  : 
; 205  :  #if _HAS_ITERATOR_DEBUGGING
; 206  : 		_Compat(_Right);
; 207  :  #else
; 208  : 		_SCL_SECURE_VALIDATE(this->_Has_container() && this->_Same_container(_Right));
; 209  :  #endif /* _HAS_ITERATOR_DEBUGGING */
; 210  : 
; 211  : 		return (_Myptr == _Right._Myptr);

	mov	eax, DWORD PTR [ecx]
	mov	edx, DWORD PTR __Right$[esp-4]
	xor	ecx, ecx
	cmp	eax, DWORD PTR [edx]
	sete	cl
	mov	al, cl

; 212  : 		}

	ret	4
??8?$_Vector_const_iterator@W4BeliefTypes@@V?$allocator@W4BeliefTypes@@@std@@@std@@QBE_NABV01@@Z ENDP ; std::_Vector_const_iterator<enum BeliefTypes,std::allocator<enum BeliefTypes> >::operator==
_TEXT	ENDS
PUBLIC	?deallocate@?$allocator@W4BeliefTypes@@@std@@QAEXPAW4BeliefTypes@@I@Z ; std::allocator<enum BeliefTypes>::deallocate
EXTRN	??3@YAXPAX@Z:PROC				; operator delete
; Function compile flags: /Ogtpy
; File c:\program files (x86)\microsoft visual studio 9.0\vc\include\xmemory
;	COMDAT ?deallocate@?$allocator@W4BeliefTypes@@@std@@QAEXPAW4BeliefTypes@@I@Z
_TEXT	SEGMENT
__Ptr$ = 8						; size = 4
___formal$ = 12						; size = 4
?deallocate@?$allocator@W4BeliefTypes@@@std@@QAEXPAW4BeliefTypes@@I@Z PROC ; std::allocator<enum BeliefTypes>::deallocate, COMDAT
; _this$ = ecx

; 140  : 		::operator delete(_Ptr);

	mov	eax, DWORD PTR __Ptr$[esp-4]
	push	eax
	call	??3@YAXPAX@Z				; operator delete
	pop	ecx

; 141  : 		}

	ret	8
?deallocate@?$allocator@W4BeliefTypes@@@std@@QAEXPAW4BeliefTypes@@I@Z ENDP ; std::allocator<enum BeliefTypes>::deallocate
_TEXT	ENDS
PUBLIC	??0?$_Vector_const_iterator@W4BeliefTypes@@V?$allocator@W4BeliefTypes@@@std@@@std@@QAE@PAW4BeliefTypes@@@Z ; std::_Vector_const_iterator<enum BeliefTypes,std::allocator<enum BeliefTypes> >::_Vector_const_iterator<enum BeliefTypes,std::allocator<enum BeliefTypes> >
; Function compile flags: /Ogtpy
; File c:\program files (x86)\microsoft visual studio 9.0\vc\include\vector
;	COMDAT ??0?$_Vector_const_iterator@W4BeliefTypes@@V?$allocator@W4BeliefTypes@@@std@@@std@@QAE@PAW4BeliefTypes@@@Z
_TEXT	SEGMENT
__Ptr$ = 8						; size = 4
??0?$_Vector_const_iterator@W4BeliefTypes@@V?$allocator@W4BeliefTypes@@@std@@@std@@QAE@PAW4BeliefTypes@@@Z PROC ; std::_Vector_const_iterator<enum BeliefTypes,std::allocator<enum BeliefTypes> >::_Vector_const_iterator<enum BeliefTypes,std::allocator<enum BeliefTypes> >, COMDAT
; _this$ = ecx

; 84   : 	explicit _Vector_const_iterator(_Tptr _Ptr)

	mov	eax, ecx

; 85   : 		{	// construct with pointer _Ptr
; 86   : 		_Myptr = _Ptr;

	mov	ecx, DWORD PTR __Ptr$[esp-4]
	mov	DWORD PTR [eax], ecx

; 87   : 		}

	ret	4
??0?$_Vector_const_iterator@W4BeliefTypes@@V?$allocator@W4BeliefTypes@@@std@@@std@@QAE@PAW4BeliefTypes@@@Z ENDP ; std::_Vector_const_iterator<enum BeliefTypes,std::allocator<enum BeliefTypes> >::_Vector_const_iterator<enum BeliefTypes,std::allocator<enum BeliefTypes> >
_TEXT	ENDS
PUBLIC	?Push@?$CvLuaScopedInstance@VCvLuaCity@@VCvCity@@@@SAXPAUlua_State@@PAVCvCity@@@Z ; CvLuaScopedInstance<CvLuaCity,CvCity>::Push
EXTRN	_lua_pushnil:PROC
EXTRN	_lua_remove:PROC
EXTRN	_lua_pushlightuserdata:PROC
EXTRN	_lua_rawget:PROC
EXTRN	?PushMethods@CvLuaCity@@SAXPAUlua_State@@H@Z:PROC ; CvLuaCity::PushMethods
EXTRN	_lua_gettop:PROC
EXTRN	_lua_setfield:PROC
EXTRN	_lua_pushvalue:PROC
EXTRN	_lua_setmetatable:PROC
EXTRN	_lua_rawset:PROC
EXTRN	_lua_pushstring:PROC
EXTRN	_lua_createtable:PROC
EXTRN	_lua_settop:PROC
EXTRN	_lua_type:PROC
EXTRN	_lua_getfield:PROC
EXTRN	?GetTypeName@CvLuaCity@@SAPBDXZ:PROC		; CvLuaCity::GetTypeName
; Function compile flags: /Ogtpy
; File c:\users\enormousapplepie\documents\github\lekmod\lekmod_dll\cvgamecoredll_expansion2\lua\cvluascopedinstance.h
;	COMDAT ?Push@?$CvLuaScopedInstance@VCvLuaCity@@VCvCity@@@@SAXPAUlua_State@@PAVCvCity@@@Z
_TEXT	SEGMENT
_L$ = 8							; size = 4
_pkType$ = 12						; size = 4
?Push@?$CvLuaScopedInstance@VCvLuaCity@@VCvCity@@@@SAXPAUlua_State@@PAVCvCity@@@Z PROC ; CvLuaScopedInstance<CvLuaCity,CvCity>::Push, COMDAT

; 39   : {

	push	edi

; 40   : 	//Pushing an instance involves more than just actually pushing a pointer into the
; 41   : 	//Lua stack.  There are some caching optimizations that are done as well as some
; 42   : 	//checks.
; 43   : 	//The first step is to load or create a global table <Typename> to store all member
; 44   : 	//methods and all pushed instances.  This conserves memory and offers faster pushing
; 45   : 	//speed.
; 46   : 	//If <Typename>.__instances[pkType] is not nil, return that value.
; 47   : 	//otherwise push a new instance and assign it to __instances.
; 48   : 
; 49   : 	//NOTE: Raw gets and sets are used as an optimization over using lua_[get,set]field
; 50   : 	if(pkType)

	mov	edi, DWORD PTR _pkType$[esp]
	test	edi, edi
	je	$LN4@Push
	push	ebx
	push	ebp
	push	esi

; 51   : 	{
; 52   : 		//const int t = lua_gettop(L);
; 53   : 
; 54   : 		lua_getglobal(L, Derived::GetTypeName());

	call	?GetTypeName@CvLuaCity@@SAPBDXZ		; CvLuaCity::GetTypeName
	mov	esi, DWORD PTR _L$[esp+12]
	push	eax
	push	-10002					; ffffd8eeH
	push	esi
	call	_lua_getfield

; 55   : 		if(lua_isnil(L, -1))

	push	-1
	push	esi
	call	_lua_type
	add	esp, 20					; 00000014H
	test	eax, eax
	jne	$LN7@Push

; 56   : 		{
; 57   : 			//Typename wasn't found, time to build it.
; 58   : 			lua_pop(L, 1);

	push	-2					; fffffffeH
	push	esi
	call	_lua_settop

; 59   : 			lua_newtable(L);

	push	0
	push	0
	push	esi
	call	_lua_createtable

; 60   : 
; 61   : 			//Create weak __instances table.
; 62   : 			lua_pushstring(L, "__instances");

	push	OFFSET $SG226154
	push	esi
	call	_lua_pushstring

; 63   : 			lua_newtable(L);

	push	0
	push	0
	push	esi
	call	_lua_createtable

; 64   : 
; 65   : 			//Create __instances.mt
; 66   : 			lua_newtable(L);

	push	0
	push	0
	push	esi
	call	_lua_createtable

; 67   : 			lua_pushstring(L, "__mode");

	push	OFFSET $SG226155
	push	esi
	call	_lua_pushstring

; 68   : 			lua_pushstring(L, "v");

	push	OFFSET $SG226156
	push	esi
	call	_lua_pushstring
	add	esp, 68					; 00000044H

; 69   : 			lua_rawset(L, -3);				// mt.__mode = "v";

	push	-3					; fffffffdH
	push	esi
	call	_lua_rawset

; 70   : 			lua_setmetatable(L, -2);

	push	-2					; fffffffeH
	push	esi
	call	_lua_setmetatable

; 71   : 
; 72   : 			lua_rawset(L, -3);				//type.__instances = t;

	push	-3					; fffffffdH
	push	esi
	call	_lua_rawset

; 73   : 
; 74   : 
; 75   : 			lua_pushvalue(L, -1);

	push	-1
	push	esi
	call	_lua_pushvalue

; 76   : 			lua_setglobal(L, Derived::GetTypeName());

	call	?GetTypeName@CvLuaCity@@SAPBDXZ		; CvLuaCity::GetTypeName
	push	eax
	push	-10002					; ffffd8eeH
	push	esi
	call	_lua_setfield

; 77   : 
; 78   : 			Derived::PushMethods(L, lua_gettop(L));

	push	esi
	call	_lua_gettop
	push	eax
	push	esi
	call	?PushMethods@CvLuaCity@@SAXPAUlua_State@@H@Z ; CvLuaCity::PushMethods
	add	esp, 56					; 00000038H
$LN7@Push:

; 79   : 		}
; 80   : 		const int type_index = lua_gettop(L);

	push	esi
	call	_lua_gettop

; 81   : 
; 82   : 		lua_pushstring(L, "__instances");

	push	OFFSET $SG226158
	push	esi
	mov	ebx, eax
	call	_lua_pushstring

; 83   : 		lua_rawget(L, -2);

	push	-2					; fffffffeH
	push	esi
	call	_lua_rawget

; 84   : 
; 85   : 		const int instances_index = lua_gettop(L);

	push	esi
	call	_lua_gettop

; 86   : 
; 87   : 		lua_pushlightuserdata(L, pkType);

	push	edi
	push	esi
	mov	ebp, eax
	call	_lua_pushlightuserdata

; 88   : 
; 89   : 		lua_rawget(L, -2);					//retrieve type.__instances[pkType]

	push	-2					; fffffffeH
	push	esi
	call	_lua_rawget

; 90   : 
; 91   : 		if(lua_isnil(L, -1))

	push	-1
	push	esi
	call	_lua_type
	add	esp, 48					; 00000030H
	test	eax, eax
	jne	SHORT $LN2@Push

; 92   : 		{
; 93   : 			lua_pop(L, 1);

	push	-2					; fffffffeH
	push	esi
	call	_lua_settop

; 94   : 
; 95   : 			//Push new instance
; 96   : 			lua_createtable(L, 0, 1);

	push	1
	push	0
	push	esi
	call	_lua_createtable

; 97   : 			lua_pushlightuserdata(L, pkType);

	push	edi
	push	esi
	call	_lua_pushlightuserdata

; 98   : 			lua_setfield(L, -2, "__instance");

	push	OFFSET $SG226161
	push	-2					; fffffffeH
	push	esi
	call	_lua_setfield

; 99   : 
; 100  : 			lua_createtable(L, 0, 1);			// create mt

	push	1
	push	0
	push	esi
	call	_lua_createtable

; 101  : 			lua_pushstring(L, "__index");

	push	OFFSET $SG226162
	push	esi
	call	_lua_pushstring

; 102  : 			lua_pushvalue(L, type_index);

	push	ebx
	push	esi
	call	_lua_pushvalue
	add	esp, 68					; 00000044H

; 103  : 			lua_rawset(L, -3);					// mt.__index = Type

	push	-3					; fffffffdH
	push	esi
	call	_lua_rawset

; 104  : 			lua_setmetatable(L, -2);

	push	-2					; fffffffeH
	push	esi
	call	_lua_setmetatable

; 105  : 
; 106  : 			//Assign it in instances
; 107  : 			lua_pushlightuserdata(L, pkType);

	push	edi
	push	esi
	call	_lua_pushlightuserdata

; 108  : 			lua_pushvalue(L, -2);

	push	-2					; fffffffeH
	push	esi
	call	_lua_pushvalue

; 109  : 			lua_rawset(L, instances_index);				//__instances[pkType] = t;

	push	ebp
	push	esi
	call	_lua_rawset
	add	esp, 40					; 00000028H
$LN2@Push:

; 110  : 		}
; 111  : 
; 112  : 		//VERIFY(instances_index > type_index);
; 113  : 		lua_remove(L, instances_index);

	push	ebp
	push	esi
	call	_lua_remove

; 114  : 		lua_remove(L, type_index);

	push	ebx
	push	esi
	call	_lua_remove
	add	esp, 16					; 00000010H
	pop	esi
	pop	ebp
	pop	ebx
	pop	edi

; 122  : 	}
; 123  : }

	ret	0
$LN4@Push:

; 115  : 
; 116  : 		//const int dt = lua_gettop(L);
; 117  : 		//VERIFY(dt == t + 1)
; 118  : 	}
; 119  : 	else
; 120  : 	{
; 121  : 		lua_pushnil(L);

	mov	eax, DWORD PTR _L$[esp]
	push	eax
	call	_lua_pushnil
	add	esp, 4
	pop	edi

; 122  : 	}
; 123  : }

	ret	0
?Push@?$CvLuaScopedInstance@VCvLuaCity@@VCvCity@@@@SAXPAUlua_State@@PAVCvCity@@@Z ENDP ; CvLuaScopedInstance<CvLuaCity,CvCity>::Push
_TEXT	ENDS
PUBLIC	?GetInstance@?$CvLuaScopedInstance@VCvLuaCity@@VCvCity@@@@SAPAVCvCity@@PAUlua_State@@H_N@Z ; CvLuaScopedInstance<CvLuaCity,CvCity>::GetInstance
EXTRN	?HandleMissingInstance@CvLuaCity@@SAXPAUlua_State@@@Z:PROC ; CvLuaCity::HandleMissingInstance
EXTRN	_lua_touserdata:PROC
; Function compile flags: /Ogtpy
;	COMDAT ?GetInstance@?$CvLuaScopedInstance@VCvLuaCity@@VCvCity@@@@SAPAVCvCity@@PAUlua_State@@H_N@Z
_TEXT	SEGMENT
_L$ = 8							; size = 4
_idx$ = 12						; size = 4
_bErrorOnFail$ = 16					; size = 1
?GetInstance@?$CvLuaScopedInstance@VCvLuaCity@@VCvCity@@@@SAPAVCvCity@@PAUlua_State@@H_N@Z PROC ; CvLuaScopedInstance<CvLuaCity,CvCity>::GetInstance, COMDAT

; 127  : {

	push	ebx
	push	ebp
	push	esi

; 128  : 	const int stack_size = lua_gettop(L);

	mov	esi, DWORD PTR _L$[esp+8]
	push	edi
	push	esi
	call	_lua_gettop
	mov	ebp, eax

; 129  : 	bool bFail = true;
; 130  : 
; 131  : 	InstanceType* pkInstance = NULL;
; 132  : 	if(lua_type(L, idx) == LUA_TTABLE)

	mov	eax, DWORD PTR _idx$[esp+16]
	push	eax
	push	esi
	mov	bl, 1
	xor	edi, edi
	call	_lua_type
	add	esp, 12					; 0000000cH
	cmp	eax, 5
	jne	SHORT $LN3@GetInstanc

; 133  : 	{
; 134  : 		lua_getfield(L, idx, "__instance");

	mov	ecx, DWORD PTR _idx$[esp+12]
	push	OFFSET $SG226177
	push	ecx
	push	esi
	call	_lua_getfield

; 135  : 		if(lua_type(L, -1) == LUA_TLIGHTUSERDATA)

	push	-1
	push	esi
	call	_lua_type
	add	esp, 20					; 00000014H
	cmp	eax, 2
	jne	SHORT $LN3@GetInstanc

; 136  : 		{
; 137  : 			pkInstance = static_cast<InstanceType*>(lua_touserdata(L, -1));

	push	-1
	push	esi
	call	_lua_touserdata
	mov	edi, eax
	add	esp, 8

; 138  : 			if(pkInstance)

	test	edi, edi
	je	SHORT $LN3@GetInstanc

; 139  : 			{
; 140  : 				bFail = false;

	xor	bl, bl
$LN3@GetInstanc:

; 141  : 			}
; 142  : 		}
; 143  : 	}
; 144  : 
; 145  : 	lua_settop(L, stack_size);

	push	ebp
	push	esi
	call	_lua_settop
	add	esp, 8

; 146  : 
; 147  : 	if(bFail && bErrorOnFail)

	test	bl, bl
	je	SHORT $LN9@GetInstanc
	cmp	BYTE PTR _bErrorOnFail$[esp+12], 0
	je	SHORT $LN9@GetInstanc

; 148  : 	{
; 149  : 		if(idx == 1)

	cmp	DWORD PTR _idx$[esp+12], 1
	jne	SHORT $LN1@GetInstanc

; 150  : 			luaL_error(L, "Not a valid instance.  Either the instance is NULL or you used '.' instead of ':'.");

	push	OFFSET $SG226183
	push	esi
	call	_luaL_error
	add	esp, 8
$LN1@GetInstanc:

; 151  : 		Derived::HandleMissingInstance(L);

	push	esi
	call	?HandleMissingInstance@CvLuaCity@@SAXPAUlua_State@@@Z ; CvLuaCity::HandleMissingInstance
	add	esp, 4
$LN9@GetInstanc:

; 152  : 	}
; 153  : 	return pkInstance;

	mov	eax, edi
	pop	edi
	pop	esi
	pop	ebp
	pop	ebx

; 154  : }

	ret	0
?GetInstance@?$CvLuaScopedInstance@VCvLuaCity@@VCvCity@@@@SAPAVCvCity@@PAUlua_State@@H_N@Z ENDP ; CvLuaScopedInstance<CvLuaCity,CvCity>::GetInstance
_TEXT	ENDS
PUBLIC	?RegisterMethod@?$CvLuaStaticInstance@VCvLuaGame@@VCvGame@@@@KAXPAUlua_State@@P6AH0@ZPBD@Z ; CvLuaStaticInstance<CvLuaGame,CvGame>::RegisterMethod
EXTRN	_lua_pushcclosure:PROC
; Function compile flags: /Ogtpy
; File c:\users\enormousapplepie\documents\github\lekmod\lekmod_dll\cvgamecoredllutil\include\cvluastaticinstance.h
;	COMDAT ?RegisterMethod@?$CvLuaStaticInstance@VCvLuaGame@@VCvGame@@@@KAXPAUlua_State@@P6AH0@ZPBD@Z
_TEXT	SEGMENT
_L$ = 8							; size = 4
_func$ = 12						; size = 4
_funcName$ = 16						; size = 4
?RegisterMethod@?$CvLuaStaticInstance@VCvLuaGame@@VCvGame@@@@KAXPAUlua_State@@P6AH0@ZPBD@Z PROC ; CvLuaStaticInstance<CvLuaGame,CvGame>::RegisterMethod, COMDAT

; 59   : 	lua_pushcclosure(L, func, 0);

	mov	eax, DWORD PTR _func$[esp-4]
	push	esi
	mov	esi, DWORD PTR _L$[esp]
	push	0
	push	eax
	push	esi
	call	_lua_pushcclosure

; 60   : 	lua_setfield(L, -2, funcName);

	mov	ecx, DWORD PTR _funcName$[esp+12]
	push	ecx
	push	-2					; fffffffeH
	push	esi
	call	_lua_setfield
	add	esp, 24					; 00000018H
	pop	esi

; 61   : }

	ret	0
?RegisterMethod@?$CvLuaStaticInstance@VCvLuaGame@@VCvGame@@@@KAXPAUlua_State@@P6AH0@ZPBD@Z ENDP ; CvLuaStaticInstance<CvLuaGame,CvGame>::RegisterMethod
_TEXT	ENDS
PUBLIC	?Push@?$CvLuaScopedInstance@VCvLuaPlot@@VCvPlot@@@@SAXPAUlua_State@@PAVCvPlot@@@Z ; CvLuaScopedInstance<CvLuaPlot,CvPlot>::Push
EXTRN	?PushMethods@CvLuaPlot@@SAXPAUlua_State@@H@Z:PROC ; CvLuaPlot::PushMethods
EXTRN	?GetTypeName@CvLuaPlot@@SAPBDXZ:PROC		; CvLuaPlot::GetTypeName
; Function compile flags: /Ogtpy
; File c:\users\enormousapplepie\documents\github\lekmod\lekmod_dll\cvgamecoredll_expansion2\lua\cvluascopedinstance.h
;	COMDAT ?Push@?$CvLuaScopedInstance@VCvLuaPlot@@VCvPlot@@@@SAXPAUlua_State@@PAVCvPlot@@@Z
_TEXT	SEGMENT
_L$ = 8							; size = 4
_pkType$ = 12						; size = 4
?Push@?$CvLuaScopedInstance@VCvLuaPlot@@VCvPlot@@@@SAXPAUlua_State@@PAVCvPlot@@@Z PROC ; CvLuaScopedInstance<CvLuaPlot,CvPlot>::Push, COMDAT

; 39   : {

	push	edi

; 40   : 	//Pushing an instance involves more than just actually pushing a pointer into the
; 41   : 	//Lua stack.  There are some caching optimizations that are done as well as some
; 42   : 	//checks.
; 43   : 	//The first step is to load or create a global table <Typename> to store all member
; 44   : 	//methods and all pushed instances.  This conserves memory and offers faster pushing
; 45   : 	//speed.
; 46   : 	//If <Typename>.__instances[pkType] is not nil, return that value.
; 47   : 	//otherwise push a new instance and assign it to __instances.
; 48   : 
; 49   : 	//NOTE: Raw gets and sets are used as an optimization over using lua_[get,set]field
; 50   : 	if(pkType)

	mov	edi, DWORD PTR _pkType$[esp]
	test	edi, edi
	je	$LN4@Push@2
	push	ebx
	push	ebp
	push	esi

; 51   : 	{
; 52   : 		//const int t = lua_gettop(L);
; 53   : 
; 54   : 		lua_getglobal(L, Derived::GetTypeName());

	call	?GetTypeName@CvLuaPlot@@SAPBDXZ		; CvLuaPlot::GetTypeName
	mov	esi, DWORD PTR _L$[esp+12]
	push	eax
	push	-10002					; ffffd8eeH
	push	esi
	call	_lua_getfield

; 55   : 		if(lua_isnil(L, -1))

	push	-1
	push	esi
	call	_lua_type
	add	esp, 20					; 00000014H
	test	eax, eax
	jne	$LN7@Push@2

; 56   : 		{
; 57   : 			//Typename wasn't found, time to build it.
; 58   : 			lua_pop(L, 1);

	push	-2					; fffffffeH
	push	esi
	call	_lua_settop

; 59   : 			lua_newtable(L);

	push	0
	push	0
	push	esi
	call	_lua_createtable

; 60   : 
; 61   : 			//Create weak __instances table.
; 62   : 			lua_pushstring(L, "__instances");

	push	OFFSET $SG226212
	push	esi
	call	_lua_pushstring

; 63   : 			lua_newtable(L);

	push	0
	push	0
	push	esi
	call	_lua_createtable

; 64   : 
; 65   : 			//Create __instances.mt
; 66   : 			lua_newtable(L);

	push	0
	push	0
	push	esi
	call	_lua_createtable

; 67   : 			lua_pushstring(L, "__mode");

	push	OFFSET $SG226213
	push	esi
	call	_lua_pushstring

; 68   : 			lua_pushstring(L, "v");

	push	OFFSET $SG226214
	push	esi
	call	_lua_pushstring
	add	esp, 68					; 00000044H

; 69   : 			lua_rawset(L, -3);				// mt.__mode = "v";

	push	-3					; fffffffdH
	push	esi
	call	_lua_rawset

; 70   : 			lua_setmetatable(L, -2);

	push	-2					; fffffffeH
	push	esi
	call	_lua_setmetatable

; 71   : 
; 72   : 			lua_rawset(L, -3);				//type.__instances = t;

	push	-3					; fffffffdH
	push	esi
	call	_lua_rawset

; 73   : 
; 74   : 
; 75   : 			lua_pushvalue(L, -1);

	push	-1
	push	esi
	call	_lua_pushvalue

; 76   : 			lua_setglobal(L, Derived::GetTypeName());

	call	?GetTypeName@CvLuaPlot@@SAPBDXZ		; CvLuaPlot::GetTypeName
	push	eax
	push	-10002					; ffffd8eeH
	push	esi
	call	_lua_setfield

; 77   : 
; 78   : 			Derived::PushMethods(L, lua_gettop(L));

	push	esi
	call	_lua_gettop
	push	eax
	push	esi
	call	?PushMethods@CvLuaPlot@@SAXPAUlua_State@@H@Z ; CvLuaPlot::PushMethods
	add	esp, 56					; 00000038H
$LN7@Push@2:

; 79   : 		}
; 80   : 		const int type_index = lua_gettop(L);

	push	esi
	call	_lua_gettop

; 81   : 
; 82   : 		lua_pushstring(L, "__instances");

	push	OFFSET $SG226216
	push	esi
	mov	ebx, eax
	call	_lua_pushstring

; 83   : 		lua_rawget(L, -2);

	push	-2					; fffffffeH
	push	esi
	call	_lua_rawget

; 84   : 
; 85   : 		const int instances_index = lua_gettop(L);

	push	esi
	call	_lua_gettop

; 86   : 
; 87   : 		lua_pushlightuserdata(L, pkType);

	push	edi
	push	esi
	mov	ebp, eax
	call	_lua_pushlightuserdata

; 88   : 
; 89   : 		lua_rawget(L, -2);					//retrieve type.__instances[pkType]

	push	-2					; fffffffeH
	push	esi
	call	_lua_rawget

; 90   : 
; 91   : 		if(lua_isnil(L, -1))

	push	-1
	push	esi
	call	_lua_type
	add	esp, 48					; 00000030H
	test	eax, eax
	jne	SHORT $LN2@Push@2

; 92   : 		{
; 93   : 			lua_pop(L, 1);

	push	-2					; fffffffeH
	push	esi
	call	_lua_settop

; 94   : 
; 95   : 			//Push new instance
; 96   : 			lua_createtable(L, 0, 1);

	push	1
	push	0
	push	esi
	call	_lua_createtable

; 97   : 			lua_pushlightuserdata(L, pkType);

	push	edi
	push	esi
	call	_lua_pushlightuserdata

; 98   : 			lua_setfield(L, -2, "__instance");

	push	OFFSET $SG226219
	push	-2					; fffffffeH
	push	esi
	call	_lua_setfield

; 99   : 
; 100  : 			lua_createtable(L, 0, 1);			// create mt

	push	1
	push	0
	push	esi
	call	_lua_createtable

; 101  : 			lua_pushstring(L, "__index");

	push	OFFSET $SG226220
	push	esi
	call	_lua_pushstring

; 102  : 			lua_pushvalue(L, type_index);

	push	ebx
	push	esi
	call	_lua_pushvalue
	add	esp, 68					; 00000044H

; 103  : 			lua_rawset(L, -3);					// mt.__index = Type

	push	-3					; fffffffdH
	push	esi
	call	_lua_rawset

; 104  : 			lua_setmetatable(L, -2);

	push	-2					; fffffffeH
	push	esi
	call	_lua_setmetatable

; 105  : 
; 106  : 			//Assign it in instances
; 107  : 			lua_pushlightuserdata(L, pkType);

	push	edi
	push	esi
	call	_lua_pushlightuserdata

; 108  : 			lua_pushvalue(L, -2);

	push	-2					; fffffffeH
	push	esi
	call	_lua_pushvalue

; 109  : 			lua_rawset(L, instances_index);				//__instances[pkType] = t;

	push	ebp
	push	esi
	call	_lua_rawset
	add	esp, 40					; 00000028H
$LN2@Push@2:

; 110  : 		}
; 111  : 
; 112  : 		//VERIFY(instances_index > type_index);
; 113  : 		lua_remove(L, instances_index);

	push	ebp
	push	esi
	call	_lua_remove

; 114  : 		lua_remove(L, type_index);

	push	ebx
	push	esi
	call	_lua_remove
	add	esp, 16					; 00000010H
	pop	esi
	pop	ebp
	pop	ebx
	pop	edi

; 122  : 	}
; 123  : }

	ret	0
$LN4@Push@2:

; 115  : 
; 116  : 		//const int dt = lua_gettop(L);
; 117  : 		//VERIFY(dt == t + 1)
; 118  : 	}
; 119  : 	else
; 120  : 	{
; 121  : 		lua_pushnil(L);

	mov	eax, DWORD PTR _L$[esp]
	push	eax
	call	_lua_pushnil
	add	esp, 4
	pop	edi

; 122  : 	}
; 123  : }

	ret	0
?Push@?$CvLuaScopedInstance@VCvLuaPlot@@VCvPlot@@@@SAXPAUlua_State@@PAVCvPlot@@@Z ENDP ; CvLuaScopedInstance<CvLuaPlot,CvPlot>::Push
_TEXT	ENDS
PUBLIC	?GetInstance@?$CvLuaScopedInstance@VCvLuaPlot@@VCvPlot@@@@SAPAVCvPlot@@PAUlua_State@@H_N@Z ; CvLuaScopedInstance<CvLuaPlot,CvPlot>::GetInstance
EXTRN	?HandleMissingInstance@CvLuaPlot@@SAXPAUlua_State@@@Z:PROC ; CvLuaPlot::HandleMissingInstance
; Function compile flags: /Ogtpy
;	COMDAT ?GetInstance@?$CvLuaScopedInstance@VCvLuaPlot@@VCvPlot@@@@SAPAVCvPlot@@PAUlua_State@@H_N@Z
_TEXT	SEGMENT
_L$ = 8							; size = 4
_idx$ = 12						; size = 4
_bErrorOnFail$ = 16					; size = 1
?GetInstance@?$CvLuaScopedInstance@VCvLuaPlot@@VCvPlot@@@@SAPAVCvPlot@@PAUlua_State@@H_N@Z PROC ; CvLuaScopedInstance<CvLuaPlot,CvPlot>::GetInstance, COMDAT

; 127  : {

	push	ebx
	push	ebp
	push	esi

; 128  : 	const int stack_size = lua_gettop(L);

	mov	esi, DWORD PTR _L$[esp+8]
	push	edi
	push	esi
	call	_lua_gettop
	mov	ebp, eax

; 129  : 	bool bFail = true;
; 130  : 
; 131  : 	InstanceType* pkInstance = NULL;
; 132  : 	if(lua_type(L, idx) == LUA_TTABLE)

	mov	eax, DWORD PTR _idx$[esp+16]
	push	eax
	push	esi
	mov	bl, 1
	xor	edi, edi
	call	_lua_type
	add	esp, 12					; 0000000cH
	cmp	eax, 5
	jne	SHORT $LN3@GetInstanc@2

; 133  : 	{
; 134  : 		lua_getfield(L, idx, "__instance");

	mov	ecx, DWORD PTR _idx$[esp+12]
	push	OFFSET $SG226235
	push	ecx
	push	esi
	call	_lua_getfield

; 135  : 		if(lua_type(L, -1) == LUA_TLIGHTUSERDATA)

	push	-1
	push	esi
	call	_lua_type
	add	esp, 20					; 00000014H
	cmp	eax, 2
	jne	SHORT $LN3@GetInstanc@2

; 136  : 		{
; 137  : 			pkInstance = static_cast<InstanceType*>(lua_touserdata(L, -1));

	push	-1
	push	esi
	call	_lua_touserdata
	mov	edi, eax
	add	esp, 8

; 138  : 			if(pkInstance)

	test	edi, edi
	je	SHORT $LN3@GetInstanc@2

; 139  : 			{
; 140  : 				bFail = false;

	xor	bl, bl
$LN3@GetInstanc@2:

; 141  : 			}
; 142  : 		}
; 143  : 	}
; 144  : 
; 145  : 	lua_settop(L, stack_size);

	push	ebp
	push	esi
	call	_lua_settop
	add	esp, 8

; 146  : 
; 147  : 	if(bFail && bErrorOnFail)

	test	bl, bl
	je	SHORT $LN9@GetInstanc@2
	cmp	BYTE PTR _bErrorOnFail$[esp+12], 0
	je	SHORT $LN9@GetInstanc@2

; 148  : 	{
; 149  : 		if(idx == 1)

	cmp	DWORD PTR _idx$[esp+12], 1
	jne	SHORT $LN1@GetInstanc@2

; 150  : 			luaL_error(L, "Not a valid instance.  Either the instance is NULL or you used '.' instead of ':'.");

	push	OFFSET $SG226241
	push	esi
	call	_luaL_error
	add	esp, 8
$LN1@GetInstanc@2:

; 151  : 		Derived::HandleMissingInstance(L);

	push	esi
	call	?HandleMissingInstance@CvLuaPlot@@SAXPAUlua_State@@@Z ; CvLuaPlot::HandleMissingInstance
	add	esp, 4
$LN9@GetInstanc@2:

; 152  : 	}
; 153  : 	return pkInstance;

	mov	eax, edi
	pop	edi
	pop	esi
	pop	ebp
	pop	ebx

; 154  : }

	ret	0
?GetInstance@?$CvLuaScopedInstance@VCvLuaPlot@@VCvPlot@@@@SAPAVCvPlot@@PAUlua_State@@H_N@Z ENDP ; CvLuaScopedInstance<CvLuaPlot,CvPlot>::GetInstance
_TEXT	ENDS
PUBLIC	?GetInstance@?$CvLuaScopedInstance@VCvLuaUnit@@VCvUnit@@@@SAPAVCvUnit@@PAUlua_State@@H_N@Z ; CvLuaScopedInstance<CvLuaUnit,CvUnit>::GetInstance
EXTRN	?HandleMissingInstance@CvLuaUnit@@SAXPAUlua_State@@@Z:PROC ; CvLuaUnit::HandleMissingInstance
; Function compile flags: /Ogtpy
;	COMDAT ?GetInstance@?$CvLuaScopedInstance@VCvLuaUnit@@VCvUnit@@@@SAPAVCvUnit@@PAUlua_State@@H_N@Z
_TEXT	SEGMENT
_L$ = 8							; size = 4
_idx$ = 12						; size = 4
_bErrorOnFail$ = 16					; size = 1
?GetInstance@?$CvLuaScopedInstance@VCvLuaUnit@@VCvUnit@@@@SAPAVCvUnit@@PAUlua_State@@H_N@Z PROC ; CvLuaScopedInstance<CvLuaUnit,CvUnit>::GetInstance, COMDAT

; 127  : {

	push	ebx
	push	ebp
	push	esi

; 128  : 	const int stack_size = lua_gettop(L);

	mov	esi, DWORD PTR _L$[esp+8]
	push	edi
	push	esi
	call	_lua_gettop
	mov	ebp, eax

; 129  : 	bool bFail = true;
; 130  : 
; 131  : 	InstanceType* pkInstance = NULL;
; 132  : 	if(lua_type(L, idx) == LUA_TTABLE)

	mov	eax, DWORD PTR _idx$[esp+16]
	push	eax
	push	esi
	mov	bl, 1
	xor	edi, edi
	call	_lua_type
	add	esp, 12					; 0000000cH
	cmp	eax, 5
	jne	SHORT $LN3@GetInstanc@3

; 133  : 	{
; 134  : 		lua_getfield(L, idx, "__instance");

	mov	ecx, DWORD PTR _idx$[esp+12]
	push	OFFSET $SG226255
	push	ecx
	push	esi
	call	_lua_getfield

; 135  : 		if(lua_type(L, -1) == LUA_TLIGHTUSERDATA)

	push	-1
	push	esi
	call	_lua_type
	add	esp, 20					; 00000014H
	cmp	eax, 2
	jne	SHORT $LN3@GetInstanc@3

; 136  : 		{
; 137  : 			pkInstance = static_cast<InstanceType*>(lua_touserdata(L, -1));

	push	-1
	push	esi
	call	_lua_touserdata
	mov	edi, eax
	add	esp, 8

; 138  : 			if(pkInstance)

	test	edi, edi
	je	SHORT $LN3@GetInstanc@3

; 139  : 			{
; 140  : 				bFail = false;

	xor	bl, bl
$LN3@GetInstanc@3:

; 141  : 			}
; 142  : 		}
; 143  : 	}
; 144  : 
; 145  : 	lua_settop(L, stack_size);

	push	ebp
	push	esi
	call	_lua_settop
	add	esp, 8

; 146  : 
; 147  : 	if(bFail && bErrorOnFail)

	test	bl, bl
	je	SHORT $LN9@GetInstanc@3
	cmp	BYTE PTR _bErrorOnFail$[esp+12], 0
	je	SHORT $LN9@GetInstanc@3

; 148  : 	{
; 149  : 		if(idx == 1)

	cmp	DWORD PTR _idx$[esp+12], 1
	jne	SHORT $LN1@GetInstanc@3

; 150  : 			luaL_error(L, "Not a valid instance.  Either the instance is NULL or you used '.' instead of ':'.");

	push	OFFSET $SG226261
	push	esi
	call	_luaL_error
	add	esp, 8
$LN1@GetInstanc@3:

; 151  : 		Derived::HandleMissingInstance(L);

	push	esi
	call	?HandleMissingInstance@CvLuaUnit@@SAXPAUlua_State@@@Z ; CvLuaUnit::HandleMissingInstance
	add	esp, 4
$LN9@GetInstanc@3:

; 152  : 	}
; 153  : 	return pkInstance;

	mov	eax, edi
	pop	edi
	pop	esi
	pop	ebp
	pop	ebx

; 154  : }

	ret	0
?GetInstance@?$CvLuaScopedInstance@VCvLuaUnit@@VCvUnit@@@@SAPAVCvUnit@@PAUlua_State@@H_N@Z ENDP ; CvLuaScopedInstance<CvLuaUnit,CvUnit>::GetInstance
_TEXT	ENDS
PUBLIC	?Push@?$CvLuaScopedInstance@VCvLuaLeague@@VCvLeague@@@@SAXPAUlua_State@@PAVCvLeague@@@Z ; CvLuaScopedInstance<CvLuaLeague,CvLeague>::Push
EXTRN	?PushMethods@CvLuaLeague@@SAXPAUlua_State@@H@Z:PROC ; CvLuaLeague::PushMethods
EXTRN	?GetTypeName@CvLuaLeague@@SAPBDXZ:PROC		; CvLuaLeague::GetTypeName
; Function compile flags: /Ogtpy
;	COMDAT ?Push@?$CvLuaScopedInstance@VCvLuaLeague@@VCvLeague@@@@SAXPAUlua_State@@PAVCvLeague@@@Z
_TEXT	SEGMENT
_L$ = 8							; size = 4
_pkType$ = 12						; size = 4
?Push@?$CvLuaScopedInstance@VCvLuaLeague@@VCvLeague@@@@SAXPAUlua_State@@PAVCvLeague@@@Z PROC ; CvLuaScopedInstance<CvLuaLeague,CvLeague>::Push, COMDAT

; 39   : {

	push	edi

; 40   : 	//Pushing an instance involves more than just actually pushing a pointer into the
; 41   : 	//Lua stack.  There are some caching optimizations that are done as well as some
; 42   : 	//checks.
; 43   : 	//The first step is to load or create a global table <Typename> to store all member
; 44   : 	//methods and all pushed instances.  This conserves memory and offers faster pushing
; 45   : 	//speed.
; 46   : 	//If <Typename>.__instances[pkType] is not nil, return that value.
; 47   : 	//otherwise push a new instance and assign it to __instances.
; 48   : 
; 49   : 	//NOTE: Raw gets and sets are used as an optimization over using lua_[get,set]field
; 50   : 	if(pkType)

	mov	edi, DWORD PTR _pkType$[esp]
	test	edi, edi
	je	$LN4@Push@3
	push	ebx
	push	ebp
	push	esi

; 51   : 	{
; 52   : 		//const int t = lua_gettop(L);
; 53   : 
; 54   : 		lua_getglobal(L, Derived::GetTypeName());

	call	?GetTypeName@CvLuaLeague@@SAPBDXZ	; CvLuaLeague::GetTypeName
	mov	esi, DWORD PTR _L$[esp+12]
	push	eax
	push	-10002					; ffffd8eeH
	push	esi
	call	_lua_getfield

; 55   : 		if(lua_isnil(L, -1))

	push	-1
	push	esi
	call	_lua_type
	add	esp, 20					; 00000014H
	test	eax, eax
	jne	$LN7@Push@3

; 56   : 		{
; 57   : 			//Typename wasn't found, time to build it.
; 58   : 			lua_pop(L, 1);

	push	-2					; fffffffeH
	push	esi
	call	_lua_settop

; 59   : 			lua_newtable(L);

	push	0
	push	0
	push	esi
	call	_lua_createtable

; 60   : 
; 61   : 			//Create weak __instances table.
; 62   : 			lua_pushstring(L, "__instances");

	push	OFFSET $SG226272
	push	esi
	call	_lua_pushstring

; 63   : 			lua_newtable(L);

	push	0
	push	0
	push	esi
	call	_lua_createtable

; 64   : 
; 65   : 			//Create __instances.mt
; 66   : 			lua_newtable(L);

	push	0
	push	0
	push	esi
	call	_lua_createtable

; 67   : 			lua_pushstring(L, "__mode");

	push	OFFSET $SG226273
	push	esi
	call	_lua_pushstring

; 68   : 			lua_pushstring(L, "v");

	push	OFFSET $SG226274
	push	esi
	call	_lua_pushstring
	add	esp, 68					; 00000044H

; 69   : 			lua_rawset(L, -3);				// mt.__mode = "v";

	push	-3					; fffffffdH
	push	esi
	call	_lua_rawset

; 70   : 			lua_setmetatable(L, -2);

	push	-2					; fffffffeH
	push	esi
	call	_lua_setmetatable

; 71   : 
; 72   : 			lua_rawset(L, -3);				//type.__instances = t;

	push	-3					; fffffffdH
	push	esi
	call	_lua_rawset

; 73   : 
; 74   : 
; 75   : 			lua_pushvalue(L, -1);

	push	-1
	push	esi
	call	_lua_pushvalue

; 76   : 			lua_setglobal(L, Derived::GetTypeName());

	call	?GetTypeName@CvLuaLeague@@SAPBDXZ	; CvLuaLeague::GetTypeName
	push	eax
	push	-10002					; ffffd8eeH
	push	esi
	call	_lua_setfield

; 77   : 
; 78   : 			Derived::PushMethods(L, lua_gettop(L));

	push	esi
	call	_lua_gettop
	push	eax
	push	esi
	call	?PushMethods@CvLuaLeague@@SAXPAUlua_State@@H@Z ; CvLuaLeague::PushMethods
	add	esp, 56					; 00000038H
$LN7@Push@3:

; 79   : 		}
; 80   : 		const int type_index = lua_gettop(L);

	push	esi
	call	_lua_gettop

; 81   : 
; 82   : 		lua_pushstring(L, "__instances");

	push	OFFSET $SG226276
	push	esi
	mov	ebx, eax
	call	_lua_pushstring

; 83   : 		lua_rawget(L, -2);

	push	-2					; fffffffeH
	push	esi
	call	_lua_rawget

; 84   : 
; 85   : 		const int instances_index = lua_gettop(L);

	push	esi
	call	_lua_gettop

; 86   : 
; 87   : 		lua_pushlightuserdata(L, pkType);

	push	edi
	push	esi
	mov	ebp, eax
	call	_lua_pushlightuserdata

; 88   : 
; 89   : 		lua_rawget(L, -2);					//retrieve type.__instances[pkType]

	push	-2					; fffffffeH
	push	esi
	call	_lua_rawget

; 90   : 
; 91   : 		if(lua_isnil(L, -1))

	push	-1
	push	esi
	call	_lua_type
	add	esp, 48					; 00000030H
	test	eax, eax
	jne	SHORT $LN2@Push@3

; 92   : 		{
; 93   : 			lua_pop(L, 1);

	push	-2					; fffffffeH
	push	esi
	call	_lua_settop

; 94   : 
; 95   : 			//Push new instance
; 96   : 			lua_createtable(L, 0, 1);

	push	1
	push	0
	push	esi
	call	_lua_createtable

; 97   : 			lua_pushlightuserdata(L, pkType);

	push	edi
	push	esi
	call	_lua_pushlightuserdata

; 98   : 			lua_setfield(L, -2, "__instance");

	push	OFFSET $SG226279
	push	-2					; fffffffeH
	push	esi
	call	_lua_setfield

; 99   : 
; 100  : 			lua_createtable(L, 0, 1);			// create mt

	push	1
	push	0
	push	esi
	call	_lua_createtable

; 101  : 			lua_pushstring(L, "__index");

	push	OFFSET $SG226280
	push	esi
	call	_lua_pushstring

; 102  : 			lua_pushvalue(L, type_index);

	push	ebx
	push	esi
	call	_lua_pushvalue
	add	esp, 68					; 00000044H

; 103  : 			lua_rawset(L, -3);					// mt.__index = Type

	push	-3					; fffffffdH
	push	esi
	call	_lua_rawset

; 104  : 			lua_setmetatable(L, -2);

	push	-2					; fffffffeH
	push	esi
	call	_lua_setmetatable

; 105  : 
; 106  : 			//Assign it in instances
; 107  : 			lua_pushlightuserdata(L, pkType);

	push	edi
	push	esi
	call	_lua_pushlightuserdata

; 108  : 			lua_pushvalue(L, -2);

	push	-2					; fffffffeH
	push	esi
	call	_lua_pushvalue

; 109  : 			lua_rawset(L, instances_index);				//__instances[pkType] = t;

	push	ebp
	push	esi
	call	_lua_rawset
	add	esp, 40					; 00000028H
$LN2@Push@3:

; 110  : 		}
; 111  : 
; 112  : 		//VERIFY(instances_index > type_index);
; 113  : 		lua_remove(L, instances_index);

	push	ebp
	push	esi
	call	_lua_remove

; 114  : 		lua_remove(L, type_index);

	push	ebx
	push	esi
	call	_lua_remove
	add	esp, 16					; 00000010H
	pop	esi
	pop	ebp
	pop	ebx
	pop	edi

; 122  : 	}
; 123  : }

	ret	0
$LN4@Push@3:

; 115  : 
; 116  : 		//const int dt = lua_gettop(L);
; 117  : 		//VERIFY(dt == t + 1)
; 118  : 	}
; 119  : 	else
; 120  : 	{
; 121  : 		lua_pushnil(L);

	mov	eax, DWORD PTR _L$[esp]
	push	eax
	call	_lua_pushnil
	add	esp, 4
	pop	edi

; 122  : 	}
; 123  : }

	ret	0
?Push@?$CvLuaScopedInstance@VCvLuaLeague@@VCvLeague@@@@SAXPAUlua_State@@PAVCvLeague@@@Z ENDP ; CvLuaScopedInstance<CvLuaLeague,CvLeague>::Push
_TEXT	ENDS
PUBLIC	??$max@H@std@@YAABHABH0@Z			; std::max<int>
; Function compile flags: /Ogtpy
; File c:\program files (x86)\microsoft visual studio 9.0\vc\include\xutility
;	COMDAT ??$max@H@std@@YAABHABH0@Z
_TEXT	SEGMENT
__Left$ = 8						; size = 4
__Right$ = 12						; size = 4
??$max@H@std@@YAABHABH0@Z PROC				; std::max<int>, COMDAT

; 3384 : 	return (_DEBUG_LT(_Left, _Right) ? _Right : _Left);

	mov	eax, DWORD PTR __Left$[esp-4]
	mov	edx, DWORD PTR [eax]
	mov	ecx, DWORD PTR __Right$[esp-4]
	cmp	edx, DWORD PTR [ecx]
	jge	SHORT $LN4@max
	mov	eax, ecx
$LN4@max:

; 3385 : 	}

	ret	0
??$max@H@std@@YAABHABH0@Z ENDP				; std::max<int>
_TEXT	ENDS
PUBLIC	?GetStartingArgIndex@?$CvLuaStaticInstance@VCvLuaGame@@VCvGame@@@@SA?BHXZ ; CvLuaStaticInstance<CvLuaGame,CvGame>::GetStartingArgIndex
; Function compile flags: /Ogtpy
; File c:\users\enormousapplepie\documents\github\lekmod\lekmod_dll\cvgamecoredllutil\include\cvluastaticinstance.h
;	COMDAT ?GetStartingArgIndex@?$CvLuaStaticInstance@VCvLuaGame@@VCvGame@@@@SA?BHXZ
_TEXT	SEGMENT
?GetStartingArgIndex@?$CvLuaStaticInstance@VCvLuaGame@@VCvGame@@@@SA?BHXZ PROC ; CvLuaStaticInstance<CvLuaGame,CvGame>::GetStartingArgIndex, COMDAT

; 35   : 	return 1;

	mov	eax, 1

; 36   : }

	ret	0
?GetStartingArgIndex@?$CvLuaStaticInstance@VCvLuaGame@@VCvGame@@@@SA?BHXZ ENDP ; CvLuaStaticInstance<CvLuaGame,CvGame>::GetStartingArgIndex
; Function compile flags: /Ogtpy
; File c:\users\enormousapplepie\documents\github\lekmod\lekmod_dll\cvgamecoredllutil\include\cvluaargtemplates.h
_TEXT	ENDS
;	COMDAT ??$toValue@W4HurryTypes@@@CvLuaArgs@@YA?AW4HurryTypes@@PAUlua_State@@H@Z
_TEXT	SEGMENT
??$toValue@W4HurryTypes@@@CvLuaArgs@@YA?AW4HurryTypes@@PAUlua_State@@H@Z PROC ; CvLuaArgs::toValue<enum HurryTypes>, COMDAT
; _L$ = ecx
; _idx$ = eax

; 12   : 		//This is pretty unsafe, but common.
; 13   : 		//Assume T is a poorly designed enum =(
; 14   : 		return (T)lua_tointeger(L, idx);

	push	eax
	push	ecx
	call	_lua_tointeger
	add	esp, 8

; 15   : 	}

	ret	0
??$toValue@W4HurryTypes@@@CvLuaArgs@@YA?AW4HurryTypes@@PAUlua_State@@H@Z ENDP ; CvLuaArgs::toValue<enum HurryTypes>
; Function compile flags: /Ogtpy
_TEXT	ENDS
;	COMDAT ??$toValue@W4VictoryTypes@@@CvLuaArgs@@YA?AW4VictoryTypes@@PAUlua_State@@H@Z
_TEXT	SEGMENT
??$toValue@W4VictoryTypes@@@CvLuaArgs@@YA?AW4VictoryTypes@@PAUlua_State@@H@Z PROC ; CvLuaArgs::toValue<enum VictoryTypes>, COMDAT
; _L$ = ecx
; _idx$ = eax

; 12   : 		//This is pretty unsafe, but common.
; 13   : 		//Assume T is a poorly designed enum =(
; 14   : 		return (T)lua_tointeger(L, idx);

	push	eax
	push	ecx
	call	_lua_tointeger
	add	esp, 8

; 15   : 	}

	ret	0
??$toValue@W4VictoryTypes@@@CvLuaArgs@@YA?AW4VictoryTypes@@PAUlua_State@@H@Z ENDP ; CvLuaArgs::toValue<enum VictoryTypes>
; Function compile flags: /Ogtpy
_TEXT	ENDS
;	COMDAT ??$toValue@W4TechTypes@@@CvLuaArgs@@YA?AW4TechTypes@@PAUlua_State@@H@Z
_TEXT	SEGMENT
??$toValue@W4TechTypes@@@CvLuaArgs@@YA?AW4TechTypes@@PAUlua_State@@H@Z PROC ; CvLuaArgs::toValue<enum TechTypes>, COMDAT
; _L$ = ecx
; _idx$ = eax

; 12   : 		//This is pretty unsafe, but common.
; 13   : 		//Assume T is a poorly designed enum =(
; 14   : 		return (T)lua_tointeger(L, idx);

	push	eax
	push	ecx
	call	_lua_tointeger
	add	esp, 8

; 15   : 	}

	ret	0
??$toValue@W4TechTypes@@@CvLuaArgs@@YA?AW4TechTypes@@PAUlua_State@@H@Z ENDP ; CvLuaArgs::toValue<enum TechTypes>
; Function compile flags: /Ogtpy
_TEXT	ENDS
;	COMDAT ??$toValue@W4ImprovementTypes@@@CvLuaArgs@@YA?AW4ImprovementTypes@@PAUlua_State@@H@Z
_TEXT	SEGMENT
??$toValue@W4ImprovementTypes@@@CvLuaArgs@@YA?AW4ImprovementTypes@@PAUlua_State@@H@Z PROC ; CvLuaArgs::toValue<enum ImprovementTypes>, COMDAT
; _L$ = ecx
; _idx$ = eax

; 12   : 		//This is pretty unsafe, but common.
; 13   : 		//Assume T is a poorly designed enum =(
; 14   : 		return (T)lua_tointeger(L, idx);

	push	eax
	push	ecx
	call	_lua_tointeger
	add	esp, 8

; 15   : 	}

	ret	0
??$toValue@W4ImprovementTypes@@@CvLuaArgs@@YA?AW4ImprovementTypes@@PAUlua_State@@H@Z ENDP ; CvLuaArgs::toValue<enum ImprovementTypes>
; Function compile flags: /Ogtpy
_TEXT	ENDS
;	COMDAT ??$toValue@PBVCvPlot@@@CvLuaArgs@@YAPBVCvPlot@@PAUlua_State@@H@Z
_TEXT	SEGMENT
??$toValue@PBVCvPlot@@@CvLuaArgs@@YAPBVCvPlot@@PAUlua_State@@H@Z PROC ; CvLuaArgs::toValue<CvPlot const *>, COMDAT
; _L$ = ecx
; _idx$ = eax

; 12   : 		//This is pretty unsafe, but common.
; 13   : 		//Assume T is a poorly designed enum =(
; 14   : 		return (T)lua_tointeger(L, idx);

	push	eax
	push	ecx
	call	_lua_tointeger
	add	esp, 8

; 15   : 	}

	ret	0
??$toValue@PBVCvPlot@@@CvLuaArgs@@YAPBVCvPlot@@PAUlua_State@@H@Z ENDP ; CvLuaArgs::toValue<CvPlot const *>
; Function compile flags: /Ogtpy
_TEXT	ENDS
;	COMDAT ??$pushValue@W4EraTypes@@@CvLuaArgs@@YAXPAUlua_State@@W4EraTypes@@@Z
_TEXT	SEGMENT
??$pushValue@W4EraTypes@@@CvLuaArgs@@YAXPAUlua_State@@W4EraTypes@@@Z PROC ; CvLuaArgs::pushValue<enum EraTypes>, COMDAT
; _L$ = ecx
; _t$ = eax

; 31   : 		//This is pretty unsafe, but common.
; 32   : 		//Assume T is a poorly designed enum =(
; 33   : 		lua_pushinteger(L, t);

	push	eax
	push	ecx
	call	_lua_pushinteger
	add	esp, 8

; 34   : 	}

	ret	0
??$pushValue@W4EraTypes@@@CvLuaArgs@@YAXPAUlua_State@@W4EraTypes@@@Z ENDP ; CvLuaArgs::pushValue<enum EraTypes>
; Function compile flags: /Ogtpy
_TEXT	ENDS
;	COMDAT ??$pushValue@W4TeamTypes@@@CvLuaArgs@@YAXPAUlua_State@@W4TeamTypes@@@Z
_TEXT	SEGMENT
??$pushValue@W4TeamTypes@@@CvLuaArgs@@YAXPAUlua_State@@W4TeamTypes@@@Z PROC ; CvLuaArgs::pushValue<enum TeamTypes>, COMDAT
; _L$ = ecx
; _t$ = eax

; 31   : 		//This is pretty unsafe, but common.
; 32   : 		//Assume T is a poorly designed enum =(
; 33   : 		lua_pushinteger(L, t);

	push	eax
	push	ecx
	call	_lua_pushinteger
	add	esp, 8

; 34   : 	}

	ret	0
??$pushValue@W4TeamTypes@@@CvLuaArgs@@YAXPAUlua_State@@W4TeamTypes@@@Z ENDP ; CvLuaArgs::pushValue<enum TeamTypes>
; Function compile flags: /Ogtpy
_TEXT	ENDS
;	COMDAT ??$pushValue@W4CivilizationTypes@@@CvLuaArgs@@YAXPAUlua_State@@W4CivilizationTypes@@@Z
_TEXT	SEGMENT
??$pushValue@W4CivilizationTypes@@@CvLuaArgs@@YAXPAUlua_State@@W4CivilizationTypes@@@Z PROC ; CvLuaArgs::pushValue<enum CivilizationTypes>, COMDAT
; _L$ = ecx
; _t$ = eax

; 31   : 		//This is pretty unsafe, but common.
; 32   : 		//Assume T is a poorly designed enum =(
; 33   : 		lua_pushinteger(L, t);

	push	eax
	push	ecx
	call	_lua_pushinteger
	add	esp, 8

; 34   : 	}

	ret	0
??$pushValue@W4CivilizationTypes@@@CvLuaArgs@@YAXPAUlua_State@@W4CivilizationTypes@@@Z ENDP ; CvLuaArgs::pushValue<enum CivilizationTypes>
; Function compile flags: /Ogtpy
_TEXT	ENDS
;	COMDAT ??$toValue@W4PlayerTypes@@@CvLuaArgs@@YA?AW4PlayerTypes@@PAUlua_State@@H@Z
_TEXT	SEGMENT
??$toValue@W4PlayerTypes@@@CvLuaArgs@@YA?AW4PlayerTypes@@PAUlua_State@@H@Z PROC ; CvLuaArgs::toValue<enum PlayerTypes>, COMDAT
; _L$ = ecx
; _idx$ = eax

; 12   : 		//This is pretty unsafe, but common.
; 13   : 		//Assume T is a poorly designed enum =(
; 14   : 		return (T)lua_tointeger(L, idx);

	push	eax
	push	ecx
	call	_lua_tointeger
	add	esp, 8

; 15   : 	}

	ret	0
??$toValue@W4PlayerTypes@@@CvLuaArgs@@YA?AW4PlayerTypes@@PAUlua_State@@H@Z ENDP ; CvLuaArgs::toValue<enum PlayerTypes>
; Function compile flags: /Ogtpy
_TEXT	ENDS
;	COMDAT ??$toValue@W4FromUIDiploEventTypes@@@CvLuaArgs@@YA?AW4FromUIDiploEventTypes@@PAUlua_State@@H@Z
_TEXT	SEGMENT
??$toValue@W4FromUIDiploEventTypes@@@CvLuaArgs@@YA?AW4FromUIDiploEventTypes@@PAUlua_State@@H@Z PROC ; CvLuaArgs::toValue<enum FromUIDiploEventTypes>, COMDAT
; _L$ = ecx
; _idx$ = eax

; 12   : 		//This is pretty unsafe, but common.
; 13   : 		//Assume T is a poorly designed enum =(
; 14   : 		return (T)lua_tointeger(L, idx);

	push	eax
	push	ecx
	call	_lua_tointeger
	add	esp, 8

; 15   : 	}

	ret	0
??$toValue@W4FromUIDiploEventTypes@@@CvLuaArgs@@YA?AW4FromUIDiploEventTypes@@PAUlua_State@@H@Z ENDP ; CvLuaArgs::toValue<enum FromUIDiploEventTypes>
; Function compile flags: /Ogtpy
_TEXT	ENDS
;	COMDAT ??$pushValue@W4PlayerTypes@@@CvLuaArgs@@YAXPAUlua_State@@W4PlayerTypes@@@Z
_TEXT	SEGMENT
??$pushValue@W4PlayerTypes@@@CvLuaArgs@@YAXPAUlua_State@@W4PlayerTypes@@@Z PROC ; CvLuaArgs::pushValue<enum PlayerTypes>, COMDAT
; _L$ = ecx
; _t$ = eax

; 31   : 		//This is pretty unsafe, but common.
; 32   : 		//Assume T is a poorly designed enum =(
; 33   : 		lua_pushinteger(L, t);

	push	eax
	push	ecx
	call	_lua_pushinteger
	add	esp, 8

; 34   : 	}

	ret	0
??$pushValue@W4PlayerTypes@@@CvLuaArgs@@YAXPAUlua_State@@W4PlayerTypes@@@Z ENDP ; CvLuaArgs::pushValue<enum PlayerTypes>
; Function compile flags: /Ogtpy
_TEXT	ENDS
;	COMDAT ??$pushValue@W4UnitTypes@@@CvLuaArgs@@YAXPAUlua_State@@W4UnitTypes@@@Z
_TEXT	SEGMENT
??$pushValue@W4UnitTypes@@@CvLuaArgs@@YAXPAUlua_State@@W4UnitTypes@@@Z PROC ; CvLuaArgs::pushValue<enum UnitTypes>, COMDAT
; _L$ = ecx
; _t$ = eax

; 31   : 		//This is pretty unsafe, but common.
; 32   : 		//Assume T is a poorly designed enum =(
; 33   : 		lua_pushinteger(L, t);

	push	eax
	push	ecx
	call	_lua_pushinteger
	add	esp, 8

; 34   : 	}

	ret	0
??$pushValue@W4UnitTypes@@@CvLuaArgs@@YAXPAUlua_State@@W4UnitTypes@@@Z ENDP ; CvLuaArgs::pushValue<enum UnitTypes>
; Function compile flags: /Ogtpy
_TEXT	ENDS
;	COMDAT ??$pushValue@W4VictoryTypes@@@CvLuaArgs@@YAXPAUlua_State@@W4VictoryTypes@@@Z
_TEXT	SEGMENT
??$pushValue@W4VictoryTypes@@@CvLuaArgs@@YAXPAUlua_State@@W4VictoryTypes@@@Z PROC ; CvLuaArgs::pushValue<enum VictoryTypes>, COMDAT
; _L$ = ecx
; _t$ = eax

; 31   : 		//This is pretty unsafe, but common.
; 32   : 		//Assume T is a poorly designed enum =(
; 33   : 		lua_pushinteger(L, t);

	push	eax
	push	ecx
	call	_lua_pushinteger
	add	esp, 8

; 34   : 	}

	ret	0
??$pushValue@W4VictoryTypes@@@CvLuaArgs@@YAXPAUlua_State@@W4VictoryTypes@@@Z ENDP ; CvLuaArgs::pushValue<enum VictoryTypes>
; Function compile flags: /Ogtpy
_TEXT	ENDS
;	COMDAT ??$toValue@W4TeamTypes@@@CvLuaArgs@@YA?AW4TeamTypes@@PAUlua_State@@H@Z
_TEXT	SEGMENT
??$toValue@W4TeamTypes@@@CvLuaArgs@@YA?AW4TeamTypes@@PAUlua_State@@H@Z PROC ; CvLuaArgs::toValue<enum TeamTypes>, COMDAT
; _L$ = ecx
; _idx$ = eax

; 12   : 		//This is pretty unsafe, but common.
; 13   : 		//Assume T is a poorly designed enum =(
; 14   : 		return (T)lua_tointeger(L, idx);

	push	eax
	push	ecx
	call	_lua_tointeger
	add	esp, 8

; 15   : 	}

	ret	0
??$toValue@W4TeamTypes@@@CvLuaArgs@@YA?AW4TeamTypes@@PAUlua_State@@H@Z ENDP ; CvLuaArgs::toValue<enum TeamTypes>
; Function compile flags: /Ogtpy
_TEXT	ENDS
;	COMDAT ??$pushValue@W4GameStateTypes@@@CvLuaArgs@@YAXPAUlua_State@@W4GameStateTypes@@@Z
_TEXT	SEGMENT
??$pushValue@W4GameStateTypes@@@CvLuaArgs@@YAXPAUlua_State@@W4GameStateTypes@@@Z PROC ; CvLuaArgs::pushValue<enum GameStateTypes>, COMDAT
; _L$ = ecx
; _t$ = eax

; 31   : 		//This is pretty unsafe, but common.
; 32   : 		//Assume T is a poorly designed enum =(
; 33   : 		lua_pushinteger(L, t);

	push	eax
	push	ecx
	call	_lua_pushinteger
	add	esp, 8

; 34   : 	}

	ret	0
??$pushValue@W4GameStateTypes@@@CvLuaArgs@@YAXPAUlua_State@@W4GameStateTypes@@@Z ENDP ; CvLuaArgs::pushValue<enum GameStateTypes>
; Function compile flags: /Ogtpy
_TEXT	ENDS
;	COMDAT ??$pushValue@W4HandicapTypes@@@CvLuaArgs@@YAXPAUlua_State@@W4HandicapTypes@@@Z
_TEXT	SEGMENT
??$pushValue@W4HandicapTypes@@@CvLuaArgs@@YAXPAUlua_State@@W4HandicapTypes@@@Z PROC ; CvLuaArgs::pushValue<enum HandicapTypes>, COMDAT
; _L$ = ecx
; _t$ = eax

; 31   : 		//This is pretty unsafe, but common.
; 32   : 		//Assume T is a poorly designed enum =(
; 33   : 		lua_pushinteger(L, t);

	push	eax
	push	ecx
	call	_lua_pushinteger
	add	esp, 8

; 34   : 	}

	ret	0
??$pushValue@W4HandicapTypes@@@CvLuaArgs@@YAXPAUlua_State@@W4HandicapTypes@@@Z ENDP ; CvLuaArgs::pushValue<enum HandicapTypes>
; Function compile flags: /Ogtpy
_TEXT	ENDS
;	COMDAT ??$pushValue@W4CalendarTypes@@@CvLuaArgs@@YAXPAUlua_State@@W4CalendarTypes@@@Z
_TEXT	SEGMENT
??$pushValue@W4CalendarTypes@@@CvLuaArgs@@YAXPAUlua_State@@W4CalendarTypes@@@Z PROC ; CvLuaArgs::pushValue<enum CalendarTypes>, COMDAT
; _L$ = ecx
; _t$ = eax

; 31   : 		//This is pretty unsafe, but common.
; 32   : 		//Assume T is a poorly designed enum =(
; 33   : 		lua_pushinteger(L, t);

	push	eax
	push	ecx
	call	_lua_pushinteger
	add	esp, 8

; 34   : 	}

	ret	0
??$pushValue@W4CalendarTypes@@@CvLuaArgs@@YAXPAUlua_State@@W4CalendarTypes@@@Z ENDP ; CvLuaArgs::pushValue<enum CalendarTypes>
; Function compile flags: /Ogtpy
_TEXT	ENDS
;	COMDAT ??$pushValue@W4GameSpeedTypes@@@CvLuaArgs@@YAXPAUlua_State@@W4GameSpeedTypes@@@Z
_TEXT	SEGMENT
??$pushValue@W4GameSpeedTypes@@@CvLuaArgs@@YAXPAUlua_State@@W4GameSpeedTypes@@@Z PROC ; CvLuaArgs::pushValue<enum GameSpeedTypes>, COMDAT
; _L$ = ecx
; _t$ = eax

; 31   : 		//This is pretty unsafe, but common.
; 32   : 		//Assume T is a poorly designed enum =(
; 33   : 		lua_pushinteger(L, t);

	push	eax
	push	ecx
	call	_lua_pushinteger
	add	esp, 8

; 34   : 	}

	ret	0
??$pushValue@W4GameSpeedTypes@@@CvLuaArgs@@YAXPAUlua_State@@W4GameSpeedTypes@@@Z ENDP ; CvLuaArgs::pushValue<enum GameSpeedTypes>
; Function compile flags: /Ogtpy
_TEXT	ENDS
;	COMDAT ??$toValue@W4MultiplayerOptionTypes@@@CvLuaArgs@@YA?AW4MultiplayerOptionTypes@@PAUlua_State@@H@Z
_TEXT	SEGMENT
??$toValue@W4MultiplayerOptionTypes@@@CvLuaArgs@@YA?AW4MultiplayerOptionTypes@@PAUlua_State@@H@Z PROC ; CvLuaArgs::toValue<enum MultiplayerOptionTypes>, COMDAT
; _L$ = ecx
; _idx$ = eax

; 12   : 		//This is pretty unsafe, but common.
; 13   : 		//Assume T is a poorly designed enum =(
; 14   : 		return (T)lua_tointeger(L, idx);

	push	eax
	push	ecx
	call	_lua_tointeger
	add	esp, 8

; 15   : 	}

	ret	0
??$toValue@W4MultiplayerOptionTypes@@@CvLuaArgs@@YA?AW4MultiplayerOptionTypes@@PAUlua_State@@H@Z ENDP ; CvLuaArgs::toValue<enum MultiplayerOptionTypes>
; Function compile flags: /Ogtpy
_TEXT	ENDS
;	COMDAT ??$toValue@W4UnitTypes@@@CvLuaArgs@@YA?AW4UnitTypes@@PAUlua_State@@H@Z
_TEXT	SEGMENT
??$toValue@W4UnitTypes@@@CvLuaArgs@@YA?AW4UnitTypes@@PAUlua_State@@H@Z PROC ; CvLuaArgs::toValue<enum UnitTypes>, COMDAT
; _L$ = ecx
; _idx$ = eax

; 12   : 		//This is pretty unsafe, but common.
; 13   : 		//Assume T is a poorly designed enum =(
; 14   : 		return (T)lua_tointeger(L, idx);

	push	eax
	push	ecx
	call	_lua_tointeger
	add	esp, 8

; 15   : 	}

	ret	0
??$toValue@W4UnitTypes@@@CvLuaArgs@@YA?AW4UnitTypes@@PAUlua_State@@H@Z ENDP ; CvLuaArgs::toValue<enum UnitTypes>
; Function compile flags: /Ogtpy
_TEXT	ENDS
;	COMDAT ??$toValue@W4UnitClassTypes@@@CvLuaArgs@@YA?AW4UnitClassTypes@@PAUlua_State@@H@Z
_TEXT	SEGMENT
??$toValue@W4UnitClassTypes@@@CvLuaArgs@@YA?AW4UnitClassTypes@@PAUlua_State@@H@Z PROC ; CvLuaArgs::toValue<enum UnitClassTypes>, COMDAT
; _L$ = ecx
; _idx$ = eax

; 12   : 		//This is pretty unsafe, but common.
; 13   : 		//Assume T is a poorly designed enum =(
; 14   : 		return (T)lua_tointeger(L, idx);

	push	eax
	push	ecx
	call	_lua_tointeger
	add	esp, 8

; 15   : 	}

	ret	0
??$toValue@W4UnitClassTypes@@@CvLuaArgs@@YA?AW4UnitClassTypes@@PAUlua_State@@H@Z ENDP ; CvLuaArgs::toValue<enum UnitClassTypes>
; Function compile flags: /Ogtpy
_TEXT	ENDS
;	COMDAT ??$toValue@W4BuildingClassTypes@@@CvLuaArgs@@YA?AW4BuildingClassTypes@@PAUlua_State@@H@Z
_TEXT	SEGMENT
??$toValue@W4BuildingClassTypes@@@CvLuaArgs@@YA?AW4BuildingClassTypes@@PAUlua_State@@H@Z PROC ; CvLuaArgs::toValue<enum BuildingClassTypes>, COMDAT
; _L$ = ecx
; _idx$ = eax

; 12   : 		//This is pretty unsafe, but common.
; 13   : 		//Assume T is a poorly designed enum =(
; 14   : 		return (T)lua_tointeger(L, idx);

	push	eax
	push	ecx
	call	_lua_tointeger
	add	esp, 8

; 15   : 	}

	ret	0
??$toValue@W4BuildingClassTypes@@@CvLuaArgs@@YA?AW4BuildingClassTypes@@PAUlua_State@@H@Z ENDP ; CvLuaArgs::toValue<enum BuildingClassTypes>
; Function compile flags: /Ogtpy
_TEXT	ENDS
;	COMDAT ??$toValue@W4ProjectTypes@@@CvLuaArgs@@YA?AW4ProjectTypes@@PAUlua_State@@H@Z
_TEXT	SEGMENT
??$toValue@W4ProjectTypes@@@CvLuaArgs@@YA?AW4ProjectTypes@@PAUlua_State@@H@Z PROC ; CvLuaArgs::toValue<enum ProjectTypes>, COMDAT
; _L$ = ecx
; _idx$ = eax

; 12   : 		//This is pretty unsafe, but common.
; 13   : 		//Assume T is a poorly designed enum =(
; 14   : 		return (T)lua_tointeger(L, idx);

	push	eax
	push	ecx
	call	_lua_tointeger
	add	esp, 8

; 15   : 	}

	ret	0
??$toValue@W4ProjectTypes@@@CvLuaArgs@@YA?AW4ProjectTypes@@PAUlua_State@@H@Z ENDP ; CvLuaArgs::toValue<enum ProjectTypes>
; Function compile flags: /Ogtpy
_TEXT	ENDS
;	COMDAT ??$toValue@W4SpecialUnitTypes@@@CvLuaArgs@@YA?AW4SpecialUnitTypes@@PAUlua_State@@H@Z
_TEXT	SEGMENT
??$toValue@W4SpecialUnitTypes@@@CvLuaArgs@@YA?AW4SpecialUnitTypes@@PAUlua_State@@H@Z PROC ; CvLuaArgs::toValue<enum SpecialUnitTypes>, COMDAT
; _L$ = ecx
; _idx$ = eax

; 12   : 		//This is pretty unsafe, but common.
; 13   : 		//Assume T is a poorly designed enum =(
; 14   : 		return (T)lua_tointeger(L, idx);

	push	eax
	push	ecx
	call	_lua_tointeger
	add	esp, 8

; 15   : 	}

	ret	0
??$toValue@W4SpecialUnitTypes@@@CvLuaArgs@@YA?AW4SpecialUnitTypes@@PAUlua_State@@H@Z ENDP ; CvLuaArgs::toValue<enum SpecialUnitTypes>
; Function compile flags: /Ogtpy
_TEXT	ENDS
;	COMDAT ??$toValue@PBD@CvLuaArgs@@YAPBDPAUlua_State@@H@Z
_TEXT	SEGMENT
??$toValue@PBD@CvLuaArgs@@YAPBDPAUlua_State@@H@Z PROC	; CvLuaArgs::toValue<char const *>, COMDAT
; _L$ = ecx
; _idx$ = eax

; 12   : 		//This is pretty unsafe, but common.
; 13   : 		//Assume T is a poorly designed enum =(
; 14   : 		return (T)lua_tointeger(L, idx);

	push	eax
	push	ecx
	call	_lua_tointeger
	add	esp, 8

; 15   : 	}

	ret	0
??$toValue@PBD@CvLuaArgs@@YAPBDPAUlua_State@@H@Z ENDP	; CvLuaArgs::toValue<char const *>
; Function compile flags: /Ogtpy
_TEXT	ENDS
;	COMDAT ??$pushValue@I@CvLuaArgs@@YAXPAUlua_State@@I@Z
_TEXT	SEGMENT
??$pushValue@I@CvLuaArgs@@YAXPAUlua_State@@I@Z PROC	; CvLuaArgs::pushValue<unsigned int>, COMDAT
; _L$ = ecx
; _t$ = eax

; 31   : 		//This is pretty unsafe, but common.
; 32   : 		//Assume T is a poorly designed enum =(
; 33   : 		lua_pushinteger(L, t);

	push	eax
	push	ecx
	call	_lua_pushinteger
	add	esp, 8

; 34   : 	}

	ret	0
??$pushValue@I@CvLuaArgs@@YAXPAUlua_State@@I@Z ENDP	; CvLuaArgs::pushValue<unsigned int>
; Function compile flags: /Ogtpy
_TEXT	ENDS
;	COMDAT ??$toValue@W4LeaderHeadTypes@@@CvLuaArgs@@YA?AW4LeaderHeadTypes@@PAUlua_State@@H@Z
_TEXT	SEGMENT
??$toValue@W4LeaderHeadTypes@@@CvLuaArgs@@YA?AW4LeaderHeadTypes@@PAUlua_State@@H@Z PROC ; CvLuaArgs::toValue<enum LeaderHeadTypes>, COMDAT
; _L$ = ecx
; _idx$ = eax

; 12   : 		//This is pretty unsafe, but common.
; 13   : 		//Assume T is a poorly designed enum =(
; 14   : 		return (T)lua_tointeger(L, idx);

	push	eax
	push	ecx
	call	_lua_tointeger
	add	esp, 8

; 15   : 	}

	ret	0
??$toValue@W4LeaderHeadTypes@@@CvLuaArgs@@YA?AW4LeaderHeadTypes@@PAUlua_State@@H@Z ENDP ; CvLuaArgs::toValue<enum LeaderHeadTypes>
; Function compile flags: /Ogtpy
_TEXT	ENDS
;	COMDAT ??$toValue@W4CivilizationTypes@@@CvLuaArgs@@YA?AW4CivilizationTypes@@PAUlua_State@@H@Z
_TEXT	SEGMENT
??$toValue@W4CivilizationTypes@@@CvLuaArgs@@YA?AW4CivilizationTypes@@PAUlua_State@@H@Z PROC ; CvLuaArgs::toValue<enum CivilizationTypes>, COMDAT
; _L$ = ecx
; _idx$ = eax

; 12   : 		//This is pretty unsafe, but common.
; 13   : 		//Assume T is a poorly designed enum =(
; 14   : 		return (T)lua_tointeger(L, idx);

	push	eax
	push	ecx
	call	_lua_tointeger
	add	esp, 8

; 15   : 	}

	ret	0
??$toValue@W4CivilizationTypes@@@CvLuaArgs@@YA?AW4CivilizationTypes@@PAUlua_State@@H@Z ENDP ; CvLuaArgs::toValue<enum CivilizationTypes>
; Function compile flags: /Ogtpy
_TEXT	ENDS
;	COMDAT ??$toValue@W4YieldTypes@@@CvLuaArgs@@YA?AW4YieldTypes@@PAUlua_State@@H@Z
_TEXT	SEGMENT
??$toValue@W4YieldTypes@@@CvLuaArgs@@YA?AW4YieldTypes@@PAUlua_State@@H@Z PROC ; CvLuaArgs::toValue<enum YieldTypes>, COMDAT
; _L$ = ecx
; _idx$ = eax

; 12   : 		//This is pretty unsafe, but common.
; 13   : 		//Assume T is a poorly designed enum =(
; 14   : 		return (T)lua_tointeger(L, idx);

	push	eax
	push	ecx
	call	_lua_tointeger
	add	esp, 8

; 15   : 	}

	ret	0
??$toValue@W4YieldTypes@@@CvLuaArgs@@YA?AW4YieldTypes@@PAUlua_State@@H@Z ENDP ; CvLuaArgs::toValue<enum YieldTypes>
; Function compile flags: /Ogtpy
_TEXT	ENDS
;	COMDAT ??$toValue@W4BuildingTypes@@@CvLuaArgs@@YA?AW4BuildingTypes@@PAUlua_State@@H@Z
_TEXT	SEGMENT
??$toValue@W4BuildingTypes@@@CvLuaArgs@@YA?AW4BuildingTypes@@PAUlua_State@@H@Z PROC ; CvLuaArgs::toValue<enum BuildingTypes>, COMDAT
; _L$ = ecx
; _idx$ = eax

; 12   : 		//This is pretty unsafe, but common.
; 13   : 		//Assume T is a poorly designed enum =(
; 14   : 		return (T)lua_tointeger(L, idx);

	push	eax
	push	ecx
	call	_lua_tointeger
	add	esp, 8

; 15   : 	}

	ret	0
??$toValue@W4BuildingTypes@@@CvLuaArgs@@YA?AW4BuildingTypes@@PAUlua_State@@H@Z ENDP ; CvLuaArgs::toValue<enum BuildingTypes>
; Function compile flags: /Ogtpy
_TEXT	ENDS
;	COMDAT ??$toValue@W4ControlTypes@@@CvLuaArgs@@YA?AW4ControlTypes@@PAUlua_State@@H@Z
_TEXT	SEGMENT
??$toValue@W4ControlTypes@@@CvLuaArgs@@YA?AW4ControlTypes@@PAUlua_State@@H@Z PROC ; CvLuaArgs::toValue<enum ControlTypes>, COMDAT
; _L$ = ecx
; _idx$ = eax

; 12   : 		//This is pretty unsafe, but common.
; 13   : 		//Assume T is a poorly designed enum =(
; 14   : 		return (T)lua_tointeger(L, idx);

	push	eax
	push	ecx
	call	_lua_tointeger
	add	esp, 8

; 15   : 	}

	ret	0
??$toValue@W4ControlTypes@@@CvLuaArgs@@YA?AW4ControlTypes@@PAUlua_State@@H@Z ENDP ; CvLuaArgs::toValue<enum ControlTypes>
_TEXT	ENDS
PUBLIC	??$_Ptr_cat@PAW4BeliefTypes@@PAW41@@std@@YA?AU_Nonscalar_ptr_iterator_tag@0@AAPAW4BeliefTypes@@0@Z ; std::_Ptr_cat<enum BeliefTypes *,enum BeliefTypes *>
; Function compile flags: /Ogtpy
; File c:\program files (x86)\microsoft visual studio 9.0\vc\include\xutility
;	COMDAT ??$_Ptr_cat@PAW4BeliefTypes@@PAW41@@std@@YA?AU_Nonscalar_ptr_iterator_tag@0@AAPAW4BeliefTypes@@0@Z
_TEXT	SEGMENT
__Cat$ = -1						; size = 1
___formal$ = 8						; size = 4
___formal$ = 12						; size = 4
??$_Ptr_cat@PAW4BeliefTypes@@PAW41@@std@@YA?AU_Nonscalar_ptr_iterator_tag@0@AAPAW4BeliefTypes@@0@Z PROC ; std::_Ptr_cat<enum BeliefTypes *,enum BeliefTypes *>, COMDAT

; 1509 : 	{

	push	ecx

; 1510 : 	typename _Ptr_cat_helper<_T1, _T2>::_Ptr_cat _Cat;
; 1511 : 	return (_Cat);

	mov	al, BYTE PTR __Cat$[esp+4]

; 1512 : 	}

	pop	ecx
	ret	0
??$_Ptr_cat@PAW4BeliefTypes@@PAW41@@std@@YA?AU_Nonscalar_ptr_iterator_tag@0@AAPAW4BeliefTypes@@0@Z ENDP ; std::_Ptr_cat<enum BeliefTypes *,enum BeliefTypes *>
_TEXT	ENDS
PUBLIC	??$_Destroy@W4BeliefTypes@@@std@@YAXPAW4BeliefTypes@@@Z ; std::_Destroy<enum BeliefTypes>
; Function compile flags: /Ogtpy
; File c:\program files (x86)\microsoft visual studio 9.0\vc\include\xmemory
;	COMDAT ??$_Destroy@W4BeliefTypes@@@std@@YAXPAW4BeliefTypes@@@Z
_TEXT	SEGMENT
__Ptr$ = 8						; size = 4
??$_Destroy@W4BeliefTypes@@@std@@YAXPAW4BeliefTypes@@@Z PROC ; std::_Destroy<enum BeliefTypes>, COMDAT

; 59   : 	_DESTRUCTOR(_Ty, _Ptr);
; 60   : 	}

	ret	0
??$_Destroy@W4BeliefTypes@@@std@@YAXPAW4BeliefTypes@@@Z ENDP ; std::_Destroy<enum BeliefTypes>
_TEXT	ENDS
PUBLIC	??0CvString@@QAE@XZ				; CvString::CvString
EXTRN	__imp_??0?$basic_string@DU?$char_traits@D@std@@V?$allocator@D@2@@std@@QAE@XZ:PROC
; Function compile flags: /Ogtpy
; File c:\users\enormousapplepie\documents\github\lekmod\lekmod_dll\cvgamecoredllutil\include\cvstring.h
;	COMDAT ??0CvString@@QAE@XZ
_TEXT	SEGMENT
??0CvString@@QAE@XZ PROC				; CvString::CvString, COMDAT
; _this$ = ecx

; 23   : 	CvString() {}

	push	esi
	mov	esi, ecx
	call	DWORD PTR __imp_??0?$basic_string@DU?$char_traits@D@std@@V?$allocator@D@2@@std@@QAE@XZ
	mov	eax, esi
	pop	esi
	ret	0
??0CvString@@QAE@XZ ENDP				; CvString::CvString
_TEXT	ENDS
PUBLIC	??1CvString@@QAE@XZ				; CvString::~CvString
EXTRN	__imp_??1?$basic_string@DU?$char_traits@D@std@@V?$allocator@D@2@@std@@QAE@XZ:PROC
; Function compile flags: /Ogtpy
;	COMDAT ??1CvString@@QAE@XZ
_TEXT	SEGMENT
??1CvString@@QAE@XZ PROC				; CvString::~CvString, COMDAT
; _this$ = ecx

; 28   : 	~CvString() {}

	jmp	DWORD PTR __imp_??1?$basic_string@DU?$char_traits@D@std@@V?$allocator@D@2@@std@@QAE@XZ
??1CvString@@QAE@XZ ENDP				; CvString::~CvString
_TEXT	ENDS
PUBLIC	??BCvString@@QBEPBDXZ				; CvString::operator char const *
EXTRN	__imp_?c_str@?$basic_string@DU?$char_traits@D@std@@V?$allocator@D@2@@std@@QBEPBDXZ:PROC
; Function compile flags: /Ogtpy
;	COMDAT ??BCvString@@QBEPBDXZ
_TEXT	SEGMENT
??BCvString@@QBEPBDXZ PROC				; CvString::operator char const *, COMDAT
; _this$ = ecx

; 31   : 	operator const char*() const 	{ return c_str(); }												

	jmp	DWORD PTR __imp_?c_str@?$basic_string@DU?$char_traits@D@std@@V?$allocator@D@2@@std@@QBEPBDXZ
??BCvString@@QBEPBDXZ ENDP				; CvString::operator char const *
_TEXT	ENDS
PUBLIC	?GetCString@CvString@@QBEPBDXZ			; CvString::GetCString
; Function compile flags: /Ogtpy
;	COMDAT ?GetCString@CvString@@QBEPBDXZ
_TEXT	SEGMENT
?GetCString@CvString@@QBEPBDXZ PROC			; CvString::GetCString, COMDAT
; _this$ = ecx

; 42   : 	const char* GetCString() const 	{ return c_str(); }

	jmp	DWORD PTR __imp_?c_str@?$basic_string@DU?$char_traits@D@std@@V?$allocator@D@2@@std@@QBEPBDXZ
?GetCString@CvString@@QBEPBDXZ ENDP			; CvString::GetCString
_TEXT	ENDS
PUBLIC	?GetLength@CvString@@QBEHXZ			; CvString::GetLength
EXTRN	__imp_?size@?$basic_string@DU?$char_traits@D@std@@V?$allocator@D@2@@std@@QBEIXZ:PROC
; Function compile flags: /Ogtpy
;	COMDAT ?GetLength@CvString@@QBEHXZ
_TEXT	SEGMENT
?GetLength@CvString@@QBEHXZ PROC			; CvString::GetLength, COMDAT
; _this$ = ecx

; 46   : 	int GetLength() const { return (int) size(); }

	jmp	DWORD PTR __imp_?size@?$basic_string@DU?$char_traits@D@std@@V?$allocator@D@2@@std@@QBEIXZ
?GetLength@CvString@@QBEHXZ ENDP			; CvString::GetLength
_TEXT	ENDS
PUBLIC	?GetDescriptionKey@CvBaseInfo@@QBEPBDXZ		; CvBaseInfo::GetDescriptionKey
; Function compile flags: /Ogtpy
; File c:\users\enormousapplepie\documents\github\lekmod\lekmod_dll\cvgamecoredll_expansion2\cvinfos.h
;	COMDAT ?GetDescriptionKey@CvBaseInfo@@QBEPBDXZ
_TEXT	SEGMENT
?GetDescriptionKey@CvBaseInfo@@QBEPBDXZ PROC		; CvBaseInfo::GetDescriptionKey, COMDAT
; _this$ = ecx

; 69   : 		return m_strDescriptionKey.c_str();

	add	ecx, 64					; 00000040H
	jmp	DWORD PTR __imp_?c_str@?$basic_string@DU?$char_traits@D@std@@V?$allocator@D@2@@std@@QBEPBDXZ
?GetDescriptionKey@CvBaseInfo@@QBEPBDXZ ENDP		; CvBaseInfo::GetDescriptionKey
_TEXT	ENDS
PUBLIC	?getMap@CvGlobals@@QAEAAVCvMap@@XZ		; CvGlobals::getMap
; Function compile flags: /Ogtpy
; File c:\users\enormousapplepie\documents\github\lekmod\lekmod_dll\cvgamecoredll_expansion2\cvglobals.h
;	COMDAT ?getMap@CvGlobals@@QAEAAVCvMap@@XZ
_TEXT	SEGMENT
?getMap@CvGlobals@@QAEAAVCvMap@@XZ PROC			; CvGlobals::getMap, COMDAT
; _this$ = ecx

; 175  : 		return *m_map;    // inlined for perf reasons, do not use outside of dll

	mov	eax, DWORD PTR [ecx+52]

; 176  : 	}

	ret	0
?getMap@CvGlobals@@QAEAAVCvMap@@XZ ENDP			; CvGlobals::getMap
_TEXT	ENDS
PUBLIC	?getGame@CvGlobals@@QAEAAVCvGame@@XZ		; CvGlobals::getGame
; Function compile flags: /Ogtpy
;	COMDAT ?getGame@CvGlobals@@QAEAAVCvGame@@XZ
_TEXT	SEGMENT
?getGame@CvGlobals@@QAEAAVCvGame@@XZ PROC		; CvGlobals::getGame, COMDAT
; _this$ = ecx

; 183  : 		return *m_game;    // inlined for perf reasons, do not use outside of dll

	mov	eax, DWORD PTR [ecx+48]

; 184  : 	}

	ret	0
?getGame@CvGlobals@@QAEAAVCvGame@@XZ ENDP		; CvGlobals::getGame
_TEXT	ENDS
PUBLIC	?getDLLIFace@CvGlobals@@QAEPAVICvEngineUtility4@@XZ ; CvGlobals::getDLLIFace
; Function compile flags: /Ogtpy
;	COMDAT ?getDLLIFace@CvGlobals@@QAEPAVICvEngineUtility4@@XZ
_TEXT	SEGMENT
?getDLLIFace@CvGlobals@@QAEPAVICvEngineUtility4@@XZ PROC ; CvGlobals::getDLLIFace, COMDAT
; _this$ = ecx

; 7738 : 		return m_pDLL;

	mov	eax, DWORD PTR [ecx+8596]

; 7739 : 	}

	ret	0
?getDLLIFace@CvGlobals@@QAEPAVICvEngineUtility4@@XZ ENDP ; CvGlobals::getDLLIFace
_TEXT	ENDS
PUBLIC	?getPlayer@CvPlayerAI@@SAAAV1@W4PlayerTypes@@@Z	; CvPlayerAI::getPlayer
EXTRN	?m_aPlayers@CvPlayerAI@@1PAV1@A:DWORD		; CvPlayerAI::m_aPlayers
; Function compile flags: /Ogtpy
; File c:\users\enormousapplepie\documents\github\lekmod\lekmod_dll\cvgamecoredll_expansion2\cvplayerai.h
;	COMDAT ?getPlayer@CvPlayerAI@@SAAAV1@W4PlayerTypes@@@Z
_TEXT	SEGMENT
_ePlayer$ = 8						; size = 4
?getPlayer@CvPlayerAI@@SAAAV1@W4PlayerTypes@@@Z PROC	; CvPlayerAI::getPlayer, COMDAT

; 28   : 		CvAssertMsg(ePlayer != NO_PLAYER, "Player is not assigned a valid value");
; 29   : 		CvAssertMsg(ePlayer < MAX_PLAYERS, "Player is not assigned a valid value");
; 30   : 		return m_aPlayers[ePlayer];

	mov	eax, DWORD PTR _ePlayer$[esp-4]
	imul	eax, 63236				; 0000f704H
	add	eax, DWORD PTR ?m_aPlayers@CvPlayerAI@@1PAV1@A ; CvPlayerAI::m_aPlayers

; 31   : 	}

	ret	0
?getPlayer@CvPlayerAI@@SAAAV1@W4PlayerTypes@@@Z ENDP	; CvPlayerAI::getPlayer
_TEXT	ENDS
PUBLIC	?getX@CvPlot@@QBEHXZ				; CvPlot::getX
; Function compile flags: /Ogtpy
; File c:\users\enormousapplepie\documents\github\lekmod\lekmod_dll\cvgamecoredll_expansion2\cvplot.h
;	COMDAT ?getX@CvPlot@@QBEHXZ
_TEXT	SEGMENT
?getX@CvPlot@@QBEHXZ PROC				; CvPlot::getX, COMDAT
; _this$ = ecx

; 307  : 		return m_iX;

	movsx	eax, WORD PTR [ecx]

; 308  : 	}

	ret	0
?getX@CvPlot@@QBEHXZ ENDP				; CvPlot::getX
_TEXT	ENDS
PUBLIC	?getY@CvPlot@@QBEHXZ				; CvPlot::getY
; Function compile flags: /Ogtpy
;	COMDAT ?getY@CvPlot@@QBEHXZ
_TEXT	SEGMENT
?getY@CvPlot@@QBEHXZ PROC				; CvPlot::getY, COMDAT
; _this$ = ecx

; 312  : 		return m_iY;

	movsx	eax, WORD PTR [ecx+2]

; 313  : 	}

	ret	0
?getY@CvPlot@@QBEHXZ ENDP				; CvPlot::getY
_TEXT	ENDS
PUBLIC	?getPlotCity@CvPlot@@QBEPAVCvCity@@XZ		; CvPlot::getPlotCity
EXTRN	?getCity@CvPlayer@@QAEPAVCvCity@@H@Z:PROC	; CvPlayer::getCity
; Function compile flags: /Ogtpy
;	COMDAT ?getPlotCity@CvPlot@@QBEPAVCvCity@@XZ
_TEXT	SEGMENT
?getPlotCity@CvPlot@@QBEPAVCvCity@@XZ PROC		; CvPlot::getPlotCity, COMDAT
; _this$ = ecx

; 533  : 		if((m_plotCity.eOwner >= 0) && m_plotCity.eOwner < MAX_PLAYERS)

	mov	eax, DWORD PTR [ecx+104]
	test	eax, eax
	jl	SHORT $LN1@getPlotCit
	cmp	eax, 64					; 00000040H
	jge	SHORT $LN1@getPlotCit

; 534  : 			return (GET_PLAYER((PlayerTypes)m_plotCity.eOwner).getCity(m_plotCity.iID));

	mov	ecx, DWORD PTR [ecx+108]
	imul	eax, 63236				; 0000f704H
	add	eax, DWORD PTR ?m_aPlayers@CvPlayerAI@@1PAV1@A ; CvPlayerAI::m_aPlayers
	push	ecx
	mov	ecx, eax
	call	?getCity@CvPlayer@@QAEPAVCvCity@@H@Z	; CvPlayer::getCity

; 537  : 	}

	ret	0
$LN1@getPlotCit:

; 535  : 
; 536  : 		return NULL;

	xor	eax, eax

; 537  : 	}

	ret	0
?getPlotCity@CvPlot@@QBEPAVCvCity@@XZ ENDP		; CvPlot::getPlotCity
_TEXT	ENDS
PUBLIC	?coordRange@@YAHHH_N@Z				; coordRange
; Function compile flags: /Ogtpy
; File c:\users\enormousapplepie\documents\github\lekmod\lekmod_dll\cvgamecoredll_expansion2\cvmap.h
;	COMDAT ?coordRange@@YAHHH_N@Z
_TEXT	SEGMENT
_iCoord$ = 8						; size = 4
_iRange$ = 12						; size = 4
_bWrap$ = 16						; size = 1
?coordRange@@YAHHH_N@Z PROC				; coordRange, COMDAT

; 88   : 	if(bWrap)

	cmp	BYTE PTR _bWrap$[esp-4], 0
	mov	eax, DWORD PTR _iCoord$[esp-4]
	je	SHORT $LN5@coordRange

; 89   : 	{
; 90   : 		if(iCoord < 0)
; 91   : 		{
; 92   : 			return (iRange + (iCoord % iRange));

	mov	ecx, DWORD PTR _iRange$[esp-4]
	test	eax, eax
	jge	SHORT $LN3@coordRange
	cdq
	idiv	ecx
	mov	eax, edx
	add	eax, ecx

; 97   : 		}
; 98   : 	}
; 99   : 
; 100  : 	return iCoord;
; 101  : }

	ret	0
$LN3@coordRange:

; 93   : 		}
; 94   : 		else if(iCoord >= iRange)

	cmp	eax, ecx
	jl	SHORT $LN5@coordRange

; 95   : 		{
; 96   : 			return (iCoord % iRange);

	cdq
	idiv	ecx
	mov	eax, edx
$LN5@coordRange:

; 97   : 		}
; 98   : 	}
; 99   : 
; 100  : 	return iCoord;
; 101  : }

	ret	0
?coordRange@@YAHHH_N@Z ENDP				; coordRange
_TEXT	ENDS
PUBLIC	?getGridWidth@CvMap@@QBEHXZ			; CvMap::getGridWidth
; Function compile flags: /Ogtpy
;	COMDAT ?getGridWidth@CvMap@@QBEHXZ
_TEXT	SEGMENT
?getGridWidth@CvMap@@QBEHXZ PROC			; CvMap::getGridWidth, COMDAT
; _this$ = ecx

; 198  : 		return m_iGridWidth;

	mov	eax, DWORD PTR [ecx+4020]

; 199  : 	}

	ret	0
?getGridWidth@CvMap@@QBEHXZ ENDP			; CvMap::getGridWidth
_TEXT	ENDS
PUBLIC	?getGridHeight@CvMap@@QBEHXZ			; CvMap::getGridHeight
; Function compile flags: /Ogtpy
;	COMDAT ?getGridHeight@CvMap@@QBEHXZ
_TEXT	SEGMENT
?getGridHeight@CvMap@@QBEHXZ PROC			; CvMap::getGridHeight, COMDAT
; _this$ = ecx

; 206  : 		return m_iGridHeight;

	mov	eax, DWORD PTR [ecx+4024]

; 207  : 	}

	ret	0
?getGridHeight@CvMap@@QBEHXZ ENDP			; CvMap::getGridHeight
_TEXT	ENDS
PUBLIC	?isWrapX@CvMap@@QBE_NXZ				; CvMap::isWrapX
; Function compile flags: /Ogtpy
;	COMDAT ?isWrapX@CvMap@@QBE_NXZ
_TEXT	SEGMENT
?isWrapX@CvMap@@QBE_NXZ PROC				; CvMap::isWrapX, COMDAT
; _this$ = ecx

; 228  : 		return m_bWrapX;

	mov	al, BYTE PTR [ecx+4056]

; 229  : 	}

	ret	0
?isWrapX@CvMap@@QBE_NXZ ENDP				; CvMap::isWrapX
_TEXT	ENDS
PUBLIC	?isWrapY@CvMap@@QBE_NXZ				; CvMap::isWrapY
; Function compile flags: /Ogtpy
;	COMDAT ?isWrapY@CvMap@@QBE_NXZ
_TEXT	SEGMENT
?isWrapY@CvMap@@QBE_NXZ PROC				; CvMap::isWrapY, COMDAT
; _this$ = ecx

; 233  : 		return m_bWrapY;

	mov	al, BYTE PTR [ecx+4057]

; 234  : 	}

	ret	0
?isWrapY@CvMap@@QBE_NXZ ENDP				; CvMap::isWrapY
_TEXT	ENDS
PUBLIC	?SetMinimumFaithNextPantheon@CvGameReligions@@QAEXH@Z ; CvGameReligions::SetMinimumFaithNextPantheon
; Function compile flags: /Ogtpy
; File c:\users\enormousapplepie\documents\github\lekmod\lekmod_dll\cvgamecoredll_expansion2\cvreligionclasses.h
;	COMDAT ?SetMinimumFaithNextPantheon@CvGameReligions@@QAEXH@Z
_TEXT	SEGMENT
_iMinFaith$ = 8						; size = 4
?SetMinimumFaithNextPantheon@CvGameReligions@@QAEXH@Z PROC ; CvGameReligions::SetMinimumFaithNextPantheon, COMDAT
; _this$ = ecx

; 186  : 		m_iMinimumFaithForNextPantheon = iMinFaith;

	mov	eax, DWORD PTR _iMinFaith$[esp-4]
	mov	DWORD PTR [ecx+5264], eax

; 187  : 	};

	ret	4
?SetMinimumFaithNextPantheon@CvGameReligions@@QAEXH@Z ENDP ; CvGameReligions::SetMinimumFaithNextPantheon
_TEXT	ENDS
PUBLIC	?GetMinimumFaithNextPantheon@CvGameReligions@@QBEHXZ ; CvGameReligions::GetMinimumFaithNextPantheon
; Function compile flags: /Ogtpy
;	COMDAT ?GetMinimumFaithNextPantheon@CvGameReligions@@QBEHXZ
_TEXT	SEGMENT
?GetMinimumFaithNextPantheon@CvGameReligions@@QBEHXZ PROC ; CvGameReligions::GetMinimumFaithNextPantheon, COMDAT
; _this$ = ecx

; 190  : 		return m_iMinimumFaithForNextPantheon;

	mov	eax, DWORD PTR [ecx+5264]

; 191  : 	};

	ret	0
?GetMinimumFaithNextPantheon@CvGameReligions@@QBEHXZ ENDP ; CvGameReligions::GetMinimumFaithNextPantheon
_TEXT	ENDS
PUBLIC	?SetNumExtraChildrenFunc@CvAStar@@QAEXP6AHPAVCvAStarNode@@PAV1@@Z@Z ; CvAStar::SetNumExtraChildrenFunc
; Function compile flags: /Ogtpy
; File c:\users\enormousapplepie\documents\github\lekmod\lekmod_dll\cvgamecoredll_expansion2\cvastar.h
;	COMDAT ?SetNumExtraChildrenFunc@CvAStar@@QAEXP6AHPAVCvAStarNode@@PAV1@@Z@Z
_TEXT	SEGMENT
_newNumExtraChildrenFunc$ = 8				; size = 4
?SetNumExtraChildrenFunc@CvAStar@@QAEXP6AHPAVCvAStarNode@@PAV1@@Z@Z PROC ; CvAStar::SetNumExtraChildrenFunc, COMDAT
; _this$ = ecx

; 350  : 		udNumExtraChildrenFunc = newNumExtraChildrenFunc;

	mov	eax, DWORD PTR _newNumExtraChildrenFunc$[esp-4]
	mov	DWORD PTR [ecx+28], eax

; 351  : 	}

	ret	4
?SetNumExtraChildrenFunc@CvAStar@@QAEXP6AHPAVCvAStarNode@@PAV1@@Z@Z ENDP ; CvAStar::SetNumExtraChildrenFunc
_TEXT	ENDS
PUBLIC	?SetExtraChildGetterFunc@CvAStar@@QAEXP6AHPAVCvAStarNode@@HAAH1PAV1@@Z@Z ; CvAStar::SetExtraChildGetterFunc
; Function compile flags: /Ogtpy
;	COMDAT ?SetExtraChildGetterFunc@CvAStar@@QAEXP6AHPAVCvAStarNode@@HAAH1PAV1@@Z@Z
_TEXT	SEGMENT
_newGetExtraChildFunc$ = 8				; size = 4
?SetExtraChildGetterFunc@CvAStar@@QAEXP6AHPAVCvAStarNode@@HAAH1PAV1@@Z@Z PROC ; CvAStar::SetExtraChildGetterFunc, COMDAT
; _this$ = ecx

; 364  : 		udGetExtraChildFunc = newGetExtraChildFunc;

	mov	eax, DWORD PTR _newGetExtraChildFunc$[esp-4]
	mov	DWORD PTR [ecx+32], eax

; 365  : 	}

	ret	4
?SetExtraChildGetterFunc@CvAStar@@QAEXP6AHPAVCvAStarNode@@HAAH1PAV1@@Z@Z ENDP ; CvAStar::SetExtraChildGetterFunc
_TEXT	ENDS
PUBLIC	?size@?$BaseVector@VCvGreatWork@@$0A@@@QBEIXZ	; BaseVector<CvGreatWork,0>::size
; Function compile flags: /Ogtpy
; File c:\users\enormousapplepie\documents\github\lekmod\lekmod_dll\fireplace\include\fireworks\ffastvector.h
;	COMDAT ?size@?$BaseVector@VCvGreatWork@@$0A@@@QBEIXZ
_TEXT	SEGMENT
?size@?$BaseVector@VCvGreatWork@@$0A@@@QBEIXZ PROC	; BaseVector<CvGreatWork,0>::size, COMDAT
; _this$ = ecx

; 169  : 		return m_uiCurrSize;

	mov	eax, DWORD PTR [ecx+4]

; 170  : 	};

	ret	0
?size@?$BaseVector@VCvGreatWork@@$0A@@@QBEIXZ ENDP	; BaseVector<CvGreatWork,0>::size
_TEXT	ENDS
PUBLIC	?dxWrap@@YAHH@Z					; dxWrap
; Function compile flags: /Ogtpy
; File c:\users\enormousapplepie\documents\github\lekmod\lekmod_dll\cvgamecoredll_expansion2\cvgamecoreutils.h
;	COMDAT ?dxWrap@@YAHH@Z
_TEXT	SEGMENT
_iDX$ = 8						; size = 4
?dxWrap@@YAHH@Z PROC					; dxWrap, COMDAT

; 74   : 	const CvMap& kMap = GC.getMap();

	mov	eax, DWORD PTR ?gGlobals@@3VCvGlobals@@A+52

; 75   : 	return wrapCoordDifference(iDX, kMap.getGridWidth(), kMap.isWrapX());

	mov	edx, DWORD PTR [eax+4020]
	cmp	BYTE PTR [eax+4056], 0
	mov	eax, DWORD PTR _iDX$[esp-4]
	je	SHORT $LN13@dxWrap
	mov	ecx, edx
	shr	ecx, 1
	cmp	eax, ecx
	jle	SHORT $LN11@dxWrap
	sub	eax, edx

; 76   : }

	ret	0

; 75   : 	return wrapCoordDifference(iDX, kMap.getGridWidth(), kMap.isWrapX());

$LN11@dxWrap:
	neg	ecx
	cmp	eax, ecx
	jge	SHORT $LN13@dxWrap
	add	eax, edx
$LN13@dxWrap:

; 76   : }

	ret	0
?dxWrap@@YAHH@Z ENDP					; dxWrap
_TEXT	ENDS
PUBLIC	?dyWrap@@YAHH@Z					; dyWrap
; Function compile flags: /Ogtpy
;	COMDAT ?dyWrap@@YAHH@Z
_TEXT	SEGMENT
_iDY$ = 8						; size = 4
?dyWrap@@YAHH@Z PROC					; dyWrap, COMDAT

; 80   : 	const CvMap& kMap = GC.getMap();

	mov	eax, DWORD PTR ?gGlobals@@3VCvGlobals@@A+52

; 81   : 	return wrapCoordDifference(iDY, kMap.getGridHeight(), kMap.isWrapY());

	mov	edx, DWORD PTR [eax+4024]
	cmp	BYTE PTR [eax+4057], 0
	mov	eax, DWORD PTR _iDY$[esp-4]
	je	SHORT $LN13@dyWrap
	mov	ecx, edx
	shr	ecx, 1
	cmp	eax, ecx
	jle	SHORT $LN11@dyWrap
	sub	eax, edx

; 82   : }

	ret	0

; 81   : 	return wrapCoordDifference(iDY, kMap.getGridHeight(), kMap.isWrapY());

$LN11@dyWrap:
	neg	ecx
	cmp	eax, ecx
	jge	SHORT $LN13@dyWrap
	add	eax, edx
$LN13@dyWrap:

; 82   : }

	ret	0
?dyWrap@@YAHH@Z ENDP					; dyWrap
_TEXT	ENDS
PUBLIC	?plotDistance@@YAHHHHH@Z			; plotDistance
; Function compile flags: /Ogtpy
;	COMDAT ?plotDistance@@YAHHHHH@Z
_TEXT	SEGMENT
_iDY$ = -12						; size = 4
tv320 = -8						; size = 4
tv357 = -4						; size = 4
_iX1$ = 8						; size = 4
_iDX$ = 12						; size = 4
_iY1$ = 12						; size = 4
$T227818 = 16						; size = 4
_iX2$ = 16						; size = 4
_iY2$ = 20						; size = 4
?plotDistance@@YAHHHHH@Z PROC				; plotDistance, COMDAT

; 144  : {

	sub	esp, 12					; 0000000cH

; 145  : 	int iDX;
; 146  : 	int iWrappedDX = dxWrap(iX2 - iX1);

	mov	ecx, DWORD PTR _iX2$[esp+8]
	sub	ecx, DWORD PTR _iX1$[esp+8]
	push	ebx
	push	ebp
	push	esi
	push	edi
	mov	edi, DWORD PTR ?gGlobals@@3VCvGlobals@@A+52
	cmp	BYTE PTR [edi+4056], 0
	mov	edx, DWORD PTR [edi+4020]
	mov	DWORD PTR tv320[esp+28], ecx
	je	SHORT $LN18@plotDistan
	mov	eax, edx
	shr	eax, 1
	cmp	ecx, eax
	jle	SHORT $LN20@plotDistan
	sub	ecx, edx
	jmp	SHORT $LN18@plotDistan
$LN20@plotDistan:
	neg	eax
	cmp	ecx, eax
	jge	SHORT $LN18@plotDistan
	add	ecx, edx
$LN18@plotDistan:

; 147  : 	int iWrappedDY = dyWrap(iY2 - iY1);

	mov	ebp, DWORD PTR _iY2$[esp+24]
	sub	ebp, DWORD PTR _iY1$[esp+24]
	cmp	BYTE PTR [edi+4057], 0
	mov	eax, DWORD PTR [edi+4024]
	je	SHORT $LN32@plotDistan
	mov	edx, eax
	shr	edx, 1
	cmp	ebp, edx
	jle	SHORT $LN34@plotDistan
	mov	ebx, ebp
	sub	ebx, eax
	mov	DWORD PTR $T227818[esp+24], ebx
	jmp	SHORT $LN36@plotDistan
$LN34@plotDistan:
	neg	edx
	cmp	ebp, edx
	jge	SHORT $LN32@plotDistan
	lea	ebx, DWORD PTR [eax+ebp]
	mov	DWORD PTR $T227818[esp+24], ebx
	jmp	SHORT $LN36@plotDistan
$LN32@plotDistan:
	mov	ebx, ebp
	mov	DWORD PTR $T227818[esp+24], ebp
$LN36@plotDistan:

; 148  : 	int iDY = abs(iWrappedDY);

	mov	eax, ebx
	cdq
	mov	esi, eax
	xor	esi, edx
	sub	esi, edx

; 149  : 
; 150  : #ifdef GAMECOREUTILS_FIX_PLOT_DISTANCE
; 151  : 	const CvMap& kMap = GC.getMap();
; 152  : 	// equidistant column joint fix (on X-wrapped maps):
; 153  : 	if ((kMap.isWrapX()) && (abs(iWrappedDX * 2) == kMap.getGridWidth()) && (iDY % 2 != 0) && ((iY1 % 2 == 0) == (iWrappedDX > (kMap.getGridWidth() >> 2))))

	cmp	BYTE PTR [edi+4056], 0
	mov	DWORD PTR _iDY$[esp+28], esi
	je	$LN77@plotDistan
	lea	eax, DWORD PTR [ecx+ecx]
	cdq
	mov	ebx, eax
	mov	eax, DWORD PTR [edi+4020]
	xor	ebx, edx
	sub	ebx, edx
	cmp	ebx, eax
	jne	SHORT $LN73@plotDistan
	mov	edx, esi
	and	edx, -2147483647			; 80000001H
	jns	SHORT $LN79@plotDistan
	dec	edx
	or	edx, -2					; fffffffeH
	inc	edx
$LN79@plotDistan:
	je	SHORT $LN73@plotDistan
	sar	eax, 2
	xor	edx, edx
	cmp	ecx, eax
	mov	eax, DWORD PTR _iY1$[esp+24]
	setg	dl
	and	eax, -2147483647			; 80000001H
	jns	SHORT $LN80@plotDistan
	dec	eax
	or	eax, -2					; fffffffeH
	inc	eax
$LN80@plotDistan:

; 154  : 	{
; 155  : 		iWrappedDX *= -1;  // change polarity

	mov	ebx, DWORD PTR $T227818[esp+24]
	neg	eax
	sbb	eax, eax
	inc	eax
	cmp	eax, edx
	jne	SHORT $LN5@plotDistan
	neg	ecx
	jmp	SHORT $LN5@plotDistan
$LN73@plotDistan:
	mov	ebx, DWORD PTR $T227818[esp+24]
$LN5@plotDistan:

; 156  : 	}
; 157  : 	if ((kMap.isWrapX()) && (abs(iWrappedDX * 2) == kMap.getGridWidth()) && (abs(iWrappedDY) < abs(iY2 - iY1)) && (iDY % 2 == 0) && (iX2 - iX1 < 0))

	cmp	BYTE PTR [edi+4056], 0
	je	$LN77@plotDistan
	lea	eax, DWORD PTR [ecx+ecx]
	cdq
	xor	eax, edx
	sub	eax, edx
	cmp	eax, DWORD PTR [edi+4020]
	jne	SHORT $LN75@plotDistan
	mov	eax, ebp
	cdq
	xor	eax, edx
	sub	eax, edx
	cmp	esi, eax
	jge	SHORT $LN75@plotDistan
	mov	edx, DWORD PTR _iDY$[esp+28]
	and	edx, -2147483647			; 80000001H
	jns	SHORT $LN81@plotDistan
	dec	edx
	or	edx, -2					; fffffffeH
	inc	edx
$LN81@plotDistan:
	jne	SHORT $LN75@plotDistan
	cmp	DWORD PTR tv320[esp+28], 0
	jge	SHORT $LN75@plotDistan

; 158  : 	{
; 159  : 		iWrappedDX *= -1;  // change polarity

	neg	ecx
$LN75@plotDistan:

; 160  : 	}
; 161  : 	// special case when map is toroidal AND map height is odd
; 162  : 	// TODO works but ugly
; 163  : 	if ((kMap.isWrapX()) && (kMap.getGridHeight() % 2 != 0) && (iY1 % 2 == kMap.getGridWidth() % 2) && (iY2 % 2 == 0) &&
; 164  : 		(abs(iWrappedDY) < abs(iY2 - iY1)) && (abs(iX2 - iX1) == kMap.getGridWidth() / 2 + ((kMap.getGridWidth() % 2 == 1) && (iX2 - iX1 > 0)) ? 1 : 0))

	cmp	BYTE PTR [edi+4056], 0
	je	$LN77@plotDistan
	mov	eax, DWORD PTR [edi+4024]
	and	eax, -2147483647			; 80000001H
	jns	SHORT $LN82@plotDistan
	dec	eax
	or	eax, -2					; fffffffeH
	inc	eax
$LN82@plotDistan:
	je	$LN77@plotDistan
	mov	edi, DWORD PTR [edi+4020]
	mov	DWORD PTR tv357[esp+28], edi
	and	edi, -2147483647			; 80000001H
	jns	SHORT $LN83@plotDistan
	dec	edi
	or	edi, -2					; fffffffeH
	inc	edi
$LN83@plotDistan:
	mov	edx, DWORD PTR _iY1$[esp+24]
	and	edx, -2147483647			; 80000001H
	jns	SHORT $LN84@plotDistan
	dec	edx
	or	edx, -2					; fffffffeH
	inc	edx
$LN84@plotDistan:
	cmp	edx, edi
	jne	SHORT $LN77@plotDistan
	mov	eax, DWORD PTR _iY2$[esp+24]
	and	eax, -2147483647			; 80000001H
	jns	SHORT $LN85@plotDistan
	dec	eax
	or	eax, -2					; fffffffeH
	inc	eax
$LN85@plotDistan:
	jne	SHORT $LN77@plotDistan
	mov	eax, ebp
	cdq
	xor	eax, edx
	sub	eax, edx
	cmp	esi, eax
	jge	SHORT $LN77@plotDistan
	cmp	edi, 1
	jne	SHORT $LN76@plotDistan
	cmp	DWORD PTR tv320[esp+28], 0
	jle	SHORT $LN76@plotDistan
	mov	esi, edi
	jmp	SHORT $LN9@plotDistan
$LN76@plotDistan:
	xor	esi, esi
$LN9@plotDistan:
	mov	eax, DWORD PTR tv320[esp+28]
	cdq
	mov	edi, eax
	mov	eax, DWORD PTR tv357[esp+28]
	xor	edi, edx
	sub	edi, edx
	cdq
	sub	eax, edx
	sar	eax, 1
	add	eax, esi
	cmp	edi, eax
	jne	SHORT $LN77@plotDistan

; 165  : 	{
; 166  : 		iWrappedDX -= (iWrappedDX > 0) - (iWrappedDX < 0);  // decrease regardless of polarity

	xor	edx, edx
	test	ecx, ecx
	setl	dl
	xor	eax, eax
	test	ecx, ecx
	setg	al
	sub	edx, eax
	add	ecx, edx
$LN77@plotDistan:

; 167  : 	}
; 168  : #endif
; 169  : 
; 170  : 	// convert to hex-space coordinates - the coordinate system axes are E and NE (not orthogonal)
; 171  : 	int iHX1 = xToHexspaceX(iX1, iY1);

	mov	eax, DWORD PTR _iY1$[esp+24]
	test	eax, eax
	jge	SHORT $LN88@plotDistan
	dec	eax
	cdq
	sub	eax, edx
$LN88@plotDistan:
	mov	edi, DWORD PTR _iX1$[esp+24]

; 172  : 	int iHX2 = xToHexspaceX(iX1 + iWrappedDX, iY1 + iWrappedDY);

	mov	edx, DWORD PTR _iY1$[esp+24]
	sar	eax, 1
	mov	esi, edi
	sub	esi, eax
	lea	eax, DWORD PTR [ebx+edx]
	test	eax, eax
	jge	SHORT $LN89@plotDistan
	dec	eax
	cdq
	sub	eax, edx
$LN89@plotDistan:
	sar	eax, 1
	sub	ecx, eax
	add	ecx, edi

; 173  : 
; 174  : #ifdef GAMECOREUTILS_FIX_PLOT_DISTANCE
; 175  : 	// obvious bug
; 176  : 	iDX = abs(iHX2 - iHX1);

	sub	ecx, esi
	mov	eax, ecx
	cdq
	xor	eax, edx
	sub	eax, edx

; 177  : #else
; 178  : 	iDX = abs(dxWrap(iHX2 - iHX1));
; 179  : #endif
; 180  : 
; 181  : #ifdef NQM_GAME_CORE_UTILS_OPTIMIZATIONS
; 182  : 	if (((iHX2 - iHX1) ^ (iWrappedDY)) >= 0)  // the signs match
; 183  : #else
; 184  : 	if((iHX2 - iHX1 >= 0) == (iWrappedDY >= 0))  // the signs match

	xor	edx, edx
	test	ecx, ecx
	setge	dl
	xor	ecx, ecx
	test	ebx, ebx
	setge	cl
	pop	edi
	pop	esi
	pop	ebp
	mov	DWORD PTR _iDX$[esp+12], eax
	pop	ebx
	cmp	edx, ecx
	jne	SHORT $LN2@plotDistan

; 185  : #endif
; 186  : 	{
; 187  : 		return iDX + iDY;

	mov	edx, DWORD PTR _iDY$[esp+12]
	add	eax, edx

; 195  : #endif
; 196  : 	}
; 197  : }

	add	esp, 12					; 0000000cH
	ret	0
$LN2@plotDistan:

; 188  : 	}
; 189  : 	else
; 190  : 	{
; 191  : #ifdef NQM_FAST_COMP
; 192  : 		return (MAX(iDX, iDY));
; 193  : #else
; 194  : 		return (std::max(iDX, iDY));

	cmp	eax, DWORD PTR _iDY$[esp+12]
	lea	eax, DWORD PTR _iDY$[esp+12]
	jl	SHORT $LN71@plotDistan
	lea	eax, DWORD PTR _iDX$[esp+8]
$LN71@plotDistan:
	mov	eax, DWORD PTR [eax]

; 195  : #endif
; 196  : 	}
; 197  : }

	add	esp, 12					; 0000000cH
	ret	0
?plotDistance@@YAHHHHH@Z ENDP				; plotDistance
_TEXT	ENDS
PUBLIC	?GetInstance@CvLuaGame@@SAPAVCvGame@@PAUlua_State@@H@Z ; CvLuaGame::GetInstance
; Function compile flags: /Ogtpy
; File c:\users\enormousapplepie\documents\github\lekmod\lekmod_dll\cvgamecoredll_expansion2\lua\cvluagame.cpp
;	COMDAT ?GetInstance@CvLuaGame@@SAPAVCvGame@@PAUlua_State@@H@Z
_TEXT	SEGMENT
_L$ = 8							; size = 4
_idx$ = 12						; size = 4
?GetInstance@CvLuaGame@@SAPAVCvGame@@PAUlua_State@@H@Z PROC ; CvLuaGame::GetInstance, COMDAT

; 44   : 	return &GC.getGame();

	mov	eax, DWORD PTR ?gGlobals@@3VCvGlobals@@A+48

; 45   : }

	ret	0
?GetInstance@CvLuaGame@@SAPAVCvGame@@PAUlua_State@@H@Z ENDP ; CvLuaGame::GetInstance
_TEXT	ENDS
PUBLIC	?lCanHandleAction@CvLuaGame@@KAHPAUlua_State@@@Z ; CvLuaGame::lCanHandleAction
EXTRN	?canHandleAction@CvGame@@QAE_NHPAVCvPlot@@_N@Z:PROC ; CvGame::canHandleAction
EXTRN	?luaL_optbool@@YA_NPAUlua_State@@H_N@Z:PROC	; luaL_optbool
; Function compile flags: /Ogtpy
;	COMDAT ?lCanHandleAction@CvLuaGame@@KAHPAUlua_State@@@Z
_TEXT	SEGMENT
_bTestVisible$ = -4					; size = 1
_L$ = 8							; size = 4
?lCanHandleAction@CvLuaGame@@KAHPAUlua_State@@@Z PROC	; CvLuaGame::lCanHandleAction, COMDAT

; 412  : {

	push	ecx
	push	ebx
	push	ebp
	push	esi

; 413  : 	const int iAction = lua_tointeger(L, 1);

	mov	esi, DWORD PTR _L$[esp+12]
	push	edi
	push	1
	push	esi
	call	_lua_tointeger

; 414  : 	CvPlot* pkPlot = CvLuaPlot::GetInstance(L, 2, false);

	push	esi
	mov	ebx, eax
	call	_lua_gettop
	push	2
	push	esi
	mov	ebp, eax
	xor	edi, edi
	call	_lua_type
	add	esp, 20					; 00000014H
	cmp	eax, 5
	jne	SHORT $LN5@lCanHandle
	push	OFFSET $SG226235
	push	2
	push	esi
	call	_lua_getfield
	push	-1
	push	esi
	call	_lua_type
	add	esp, 20					; 00000014H
	cmp	eax, 2
	jne	SHORT $LN5@lCanHandle
	push	-1
	push	esi
	call	_lua_touserdata
	add	esp, 8
	mov	edi, eax
$LN5@lCanHandle:
	push	ebp
	push	esi
	call	_lua_settop

; 415  : 	const bool bTestVisible = luaL_optbool(L, 3, 0);

	push	0
	push	3
	push	esi
	call	?luaL_optbool@@YA_NPAUlua_State@@H_N@Z	; luaL_optbool

; 416  : 	const bool bResult = GetInstance()->canHandleAction(iAction, pkPlot, bTestVisible);

	mov	ecx, DWORD PTR ?gGlobals@@3VCvGlobals@@A+48
	add	esp, 20					; 00000014H
	mov	BYTE PTR _bTestVisible$[esp+20], al
	mov	eax, DWORD PTR _bTestVisible$[esp+20]
	push	eax
	push	edi
	push	ebx
	call	?canHandleAction@CvGame@@QAE_NHPAVCvPlot@@_N@Z ; CvGame::canHandleAction

; 417  : 	lua_pushboolean(L, bResult);

	movzx	ecx, al
	push	ecx
	push	esi
	call	_lua_pushboolean
	add	esp, 8
	pop	edi
	pop	esi
	pop	ebp

; 418  : 	return 1;

	mov	eax, 1
	pop	ebx

; 419  : }

	pop	ecx
	ret	0
?lCanHandleAction@CvLuaGame@@KAHPAUlua_State@@@Z ENDP	; CvLuaGame::lCanHandleAction
_TEXT	ENDS
PUBLIC	?lHandleAction@CvLuaGame@@KAHPAUlua_State@@@Z	; CvLuaGame::lHandleAction
EXTRN	?handleAction@CvGame@@QAEXH@Z:PROC		; CvGame::handleAction
; Function compile flags: /Ogtpy
;	COMDAT ?lHandleAction@CvLuaGame@@KAHPAUlua_State@@@Z
_TEXT	SEGMENT
_L$ = 8							; size = 4
?lHandleAction@CvLuaGame@@KAHPAUlua_State@@@Z PROC	; CvLuaGame::lHandleAction, COMDAT

; 424  : 	const int iAction = lua_tointeger(L, 1);

	mov	eax, DWORD PTR _L$[esp-4]
	push	1
	push	eax
	call	_lua_tointeger

; 425  : 	GetInstance()->handleAction(iAction);

	mov	ecx, DWORD PTR ?gGlobals@@3VCvGlobals@@A+48
	add	esp, 8
	push	eax
	call	?handleAction@CvGame@@QAEXH@Z		; CvGame::handleAction

; 426  : 	return 0;

	xor	eax, eax

; 427  : }

	ret	0
?lHandleAction@CvLuaGame@@KAHPAUlua_State@@@Z ENDP	; CvLuaGame::lHandleAction
_TEXT	ENDS
PUBLIC	?lCyclePlotUnits@CvLuaGame@@KAHPAUlua_State@@@Z	; CvLuaGame::lCyclePlotUnits
EXTRN	?cyclePlotUnits@CvGame@@QAE_NPAVCvPlot@@_N1H@Z:PROC ; CvGame::cyclePlotUnits
; Function compile flags: /Ogtpy
;	COMDAT ?lCyclePlotUnits@CvLuaGame@@KAHPAUlua_State@@@Z
_TEXT	SEGMENT
_bAuto$ = -8						; size = 1
_bForward$ = -4						; size = 1
_L$ = 8							; size = 4
?lCyclePlotUnits@CvLuaGame@@KAHPAUlua_State@@@Z PROC	; CvLuaGame::lCyclePlotUnits, COMDAT

; 449  : {

	sub	esp, 8
	push	ebx
	push	ebp
	push	esi

; 450  : 	CvPlot* pkPlot = CvLuaPlot::GetInstance(L, 1);

	mov	esi, DWORD PTR _L$[esp+16]
	push	edi
	push	esi
	call	_lua_gettop
	push	1
	push	esi
	mov	ebp, eax
	mov	bl, 1
	xor	edi, edi
	call	_lua_type
	add	esp, 12					; 0000000cH
	cmp	eax, 5
	jne	SHORT $LN5@lCyclePlot
	push	OFFSET $SG226235
	push	1
	push	esi
	call	_lua_getfield
	push	-1
	push	esi
	call	_lua_type
	add	esp, 20					; 00000014H
	cmp	eax, 2
	jne	SHORT $LN5@lCyclePlot
	push	-1
	push	esi
	call	_lua_touserdata
	mov	edi, eax
	add	esp, 8
	test	edi, edi
	je	SHORT $LN5@lCyclePlot
	xor	bl, bl
$LN5@lCyclePlot:
	push	ebp
	push	esi
	call	_lua_settop
	add	esp, 8
	test	bl, bl
	je	SHORT $LN4@lCyclePlot
	push	OFFSET $SG226241
	push	esi
	call	_luaL_error
	push	esi
	call	?HandleMissingInstance@CvLuaPlot@@SAXPAUlua_State@@@Z ; CvLuaPlot::HandleMissingInstance
	add	esp, 12					; 0000000cH
$LN4@lCyclePlot:

; 451  : 	const bool bForward = lua_toboolean(L, 2);

	push	2
	push	esi
	call	_lua_toboolean
	test	eax, eax
	setne	al

; 452  : 	const bool bAuto = lua_toboolean(L, 3);

	push	3
	push	esi
	mov	BYTE PTR _bForward$[esp+40], al
	call	_lua_toboolean
	test	eax, eax
	setne	cl

; 453  : 	const int iCount = lua_tointeger(L, 4);

	push	4
	push	esi
	mov	BYTE PTR _bAuto$[esp+48], cl
	call	_lua_tointeger

; 454  : 
; 455  : 	const bool bResult = GetInstance()->cyclePlotUnits(pkPlot, bForward, bAuto, iCount);

	mov	edx, DWORD PTR _bAuto$[esp+48]
	mov	ecx, DWORD PTR ?gGlobals@@3VCvGlobals@@A+48
	add	esp, 24					; 00000018H
	push	eax
	mov	eax, DWORD PTR _bForward$[esp+28]
	push	edx
	push	eax
	push	edi
	call	?cyclePlotUnits@CvGame@@QAE_NPAVCvPlot@@_N1H@Z ; CvGame::cyclePlotUnits

; 456  : 	lua_pushboolean(L, bResult);

	movzx	ecx, al
	push	ecx
	push	esi
	call	_lua_pushboolean
	add	esp, 8
	pop	edi
	pop	esi
	pop	ebp

; 457  : 	return 1;

	mov	eax, 1
	pop	ebx

; 458  : }

	add	esp, 8
	ret	0
?lCyclePlotUnits@CvLuaGame@@KAHPAUlua_State@@@Z ENDP	; CvLuaGame::lCyclePlotUnits
_TEXT	ENDS
PUBLIC	?lSelectionListMove@CvLuaGame@@KAHPAUlua_State@@@Z ; CvLuaGame::lSelectionListMove
EXTRN	?selectionListMove@CvGame@@QAEXPAVCvPlot@@_N@Z:PROC ; CvGame::selectionListMove
; Function compile flags: /Ogtpy
;	COMDAT ?lSelectionListMove@CvLuaGame@@KAHPAUlua_State@@@Z
_TEXT	SEGMENT
_bShift$ = -4						; size = 1
_L$ = 8							; size = 4
?lSelectionListMove@CvLuaGame@@KAHPAUlua_State@@@Z PROC	; CvLuaGame::lSelectionListMove, COMDAT

; 462  : {

	push	ecx
	push	ebx
	push	ebp
	push	esi

; 463  : 	CvPlot* pkPlot = CvLuaPlot::GetInstance(L, 1);

	mov	esi, DWORD PTR _L$[esp+12]
	push	edi
	push	esi
	call	_lua_gettop
	push	1
	push	esi
	mov	ebp, eax
	mov	bl, 1
	xor	edi, edi
	call	_lua_type
	add	esp, 12					; 0000000cH
	cmp	eax, 5
	jne	SHORT $LN5@lSelection
	push	OFFSET $SG226235
	push	1
	push	esi
	call	_lua_getfield
	push	-1
	push	esi
	call	_lua_type
	add	esp, 20					; 00000014H
	cmp	eax, 2
	jne	SHORT $LN5@lSelection
	push	-1
	push	esi
	call	_lua_touserdata
	mov	edi, eax
	add	esp, 8
	test	edi, edi
	je	SHORT $LN5@lSelection
	xor	bl, bl
$LN5@lSelection:
	push	ebp
	push	esi
	call	_lua_settop
	add	esp, 8
	test	bl, bl
	je	SHORT $LN4@lSelection
	push	OFFSET $SG226241
	push	esi
	call	_luaL_error
	push	esi
	call	?HandleMissingInstance@CvLuaPlot@@SAXPAUlua_State@@@Z ; CvLuaPlot::HandleMissingInstance
	add	esp, 12					; 0000000cH
$LN4@lSelection:

; 464  : 	const bool bShift = lua_toboolean(L, 3);

	push	3
	push	esi
	call	_lua_toboolean
	add	esp, 8
	test	eax, eax
	setne	al
	mov	BYTE PTR _bShift$[esp+20], al

; 465  : 
; 466  : 	GetInstance()->selectionListMove(pkPlot, bShift);

	mov	ecx, DWORD PTR _bShift$[esp+20]
	push	ecx
	mov	ecx, DWORD PTR ?gGlobals@@3VCvGlobals@@A+48
	push	edi
	call	?selectionListMove@CvGame@@QAEXPAVCvPlot@@_N@Z ; CvGame::selectionListMove
	pop	edi
	pop	esi
	pop	ebp

; 467  : 	return 0;

	xor	eax, eax
	pop	ebx

; 468  : }

	pop	ecx
	ret	0
?lSelectionListMove@CvLuaGame@@KAHPAUlua_State@@@Z ENDP	; CvLuaGame::lSelectionListMove
_TEXT	ENDS
PUBLIC	?lSelectionListGameNetMessage@CvLuaGame@@KAHPAUlua_State@@@Z ; CvLuaGame::lSelectionListGameNetMessage
EXTRN	?selectionListGameNetMessage@CvGame@@QAEXHHHHH_N0@Z:PROC ; CvGame::selectionListGameNetMessage
EXTRN	_luaL_optinteger:PROC
; Function compile flags: /Ogtpy
;	COMDAT ?lSelectionListGameNetMessage@CvLuaGame@@KAHPAUlua_State@@@Z
_TEXT	SEGMENT
_bShift$ = -16						; size = 1
_bAlt$ = -12						; size = 1
_iFlags$ = -8						; size = 4
_iData4$ = -4						; size = 4
_L$ = 8							; size = 4
?lSelectionListGameNetMessage@CvLuaGame@@KAHPAUlua_State@@@Z PROC ; CvLuaGame::lSelectionListGameNetMessage, COMDAT

; 472  : {

	sub	esp, 16					; 00000010H
	push	ebx
	push	ebp
	push	esi

; 473  : 	const int eMessage	= lua_tointeger(L, 1);

	mov	esi, DWORD PTR _L$[esp+24]
	push	edi
	push	1
	push	esi
	call	_lua_tointeger

; 474  : 	const int iData2	= luaL_optint(L, 2, -1);

	push	-1
	push	2
	push	esi
	mov	edi, eax
	call	_luaL_optinteger

; 475  : 	const int iData3	= luaL_optint(L, 3, -1);

	push	-1
	push	3
	push	esi
	mov	ebx, eax
	call	_luaL_optinteger

; 476  : 	const int iData4	= luaL_optint(L, 4, -1);

	push	-1
	push	4
	push	esi
	mov	ebp, eax
	call	_luaL_optinteger

; 477  : 	const int iFlags	= luaL_optint(L, 5, 0);

	push	0
	push	5
	push	esi
	mov	DWORD PTR _iData4$[esp+88], eax
	call	_luaL_optinteger

; 478  : 	const bool bAlt		= luaL_optbool(L, 6, 0);

	push	0
	push	6
	push	esi
	mov	DWORD PTR _iFlags$[esp+100], eax
	call	?luaL_optbool@@YA_NPAUlua_State@@H_N@Z	; luaL_optbool
	add	esp, 68					; 00000044H

; 479  : 	const bool bShift	= luaL_optbool(L, 7, 0);

	push	0
	push	7
	push	esi
	mov	BYTE PTR _bAlt$[esp+44], al
	call	?luaL_optbool@@YA_NPAUlua_State@@H_N@Z	; luaL_optbool

; 480  : 
; 481  : 	GetInstance()->selectionListGameNetMessage(eMessage, iData2, iData3, iData4, iFlags, bAlt, bShift);

	mov	ecx, DWORD PTR _bAlt$[esp+44]
	mov	edx, DWORD PTR _iFlags$[esp+44]
	add	esp, 12					; 0000000cH
	mov	BYTE PTR _bShift$[esp+32], al
	mov	eax, DWORD PTR _bShift$[esp+32]
	push	eax
	mov	eax, DWORD PTR _iData4$[esp+36]
	push	ecx
	mov	ecx, DWORD PTR ?gGlobals@@3VCvGlobals@@A+48
	push	edx
	push	eax
	push	ebp
	push	ebx
	push	edi
	call	?selectionListGameNetMessage@CvGame@@QAEXHHHHH_N0@Z ; CvGame::selectionListGameNetMessage
	pop	edi
	pop	esi
	pop	ebp

; 482  : 	return 0;

	xor	eax, eax
	pop	ebx

; 483  : }

	add	esp, 16					; 00000010H
	ret	0
?lSelectionListGameNetMessage@CvLuaGame@@KAHPAUlua_State@@@Z ENDP ; CvLuaGame::lSelectionListGameNetMessage
_TEXT	ENDS
PUBLIC	?lSelectedCitiesGameNetMessage@CvLuaGame@@KAHPAUlua_State@@@Z ; CvLuaGame::lSelectedCitiesGameNetMessage
EXTRN	?selectedCitiesGameNetMessage@CvGame@@QAEXHHHH_N000@Z:PROC ; CvGame::selectedCitiesGameNetMessage
; Function compile flags: /Ogtpy
;	COMDAT ?lSelectedCitiesGameNetMessage@CvLuaGame@@KAHPAUlua_State@@@Z
_TEXT	SEGMENT
_bCtrl$ = -20						; size = 1
_bShift$ = -16						; size = 1
_bAlt$ = -12						; size = 1
_bOption$ = -8						; size = 1
_iData4$ = -4						; size = 4
_L$ = 8							; size = 4
?lSelectedCitiesGameNetMessage@CvLuaGame@@KAHPAUlua_State@@@Z PROC ; CvLuaGame::lSelectedCitiesGameNetMessage, COMDAT

; 487  : {

	sub	esp, 20					; 00000014H
	push	ebx
	push	ebp
	push	esi

; 488  : 	const int eMessage = lua_tointeger(L, 1);

	mov	esi, DWORD PTR _L$[esp+28]
	push	edi
	push	1
	push	esi
	call	_lua_tointeger

; 489  : 	const int iData2 = luaL_optint(L, 2, -1);

	push	-1
	push	2
	push	esi
	mov	edi, eax
	call	_luaL_optinteger

; 490  : 	const int iData3 = luaL_optint(L, 3, -1);

	push	-1
	push	3
	push	esi
	mov	ebx, eax
	call	_luaL_optinteger

; 491  : 	const int iData4 = luaL_optint(L, 4, -1);

	push	-1
	push	4
	push	esi
	mov	ebp, eax
	call	_luaL_optinteger

; 492  : 	const bool bOption	= luaL_optbool(L, 5, 0);

	push	0
	push	5
	push	esi
	mov	DWORD PTR _iData4$[esp+92], eax
	call	?luaL_optbool@@YA_NPAUlua_State@@H_N@Z	; luaL_optbool

; 493  : 	const bool bAlt		= luaL_optbool(L, 6, 0);

	push	0
	push	6
	push	esi
	mov	BYTE PTR _bOption$[esp+104], al
	call	?luaL_optbool@@YA_NPAUlua_State@@H_N@Z	; luaL_optbool
	add	esp, 68					; 00000044H

; 494  : 	const bool bShift	= luaL_optbool(L, 7, 0);

	push	0
	push	7
	push	esi
	mov	BYTE PTR _bAlt$[esp+48], al
	call	?luaL_optbool@@YA_NPAUlua_State@@H_N@Z	; luaL_optbool

; 495  : 	const bool bCtrl	= luaL_optbool(L, 8, 0);

	push	0
	push	8
	push	esi
	mov	BYTE PTR _bShift$[esp+60], al
	call	?luaL_optbool@@YA_NPAUlua_State@@H_N@Z	; luaL_optbool

; 496  : 	GetInstance()->selectedCitiesGameNetMessage(eMessage, iData2, iData3, iData4, bOption, bAlt, bShift, bCtrl);

	mov	ecx, DWORD PTR _bShift$[esp+60]
	mov	edx, DWORD PTR _bAlt$[esp+60]
	add	esp, 24					; 00000018H
	mov	BYTE PTR _bCtrl$[esp+36], al
	mov	eax, DWORD PTR _bCtrl$[esp+36]
	push	eax
	mov	eax, DWORD PTR _bOption$[esp+40]
	push	ecx
	mov	ecx, DWORD PTR _iData4$[esp+44]
	push	edx
	push	eax
	push	ecx
	mov	ecx, DWORD PTR ?gGlobals@@3VCvGlobals@@A+48
	push	ebp
	push	ebx
	push	edi
	call	?selectedCitiesGameNetMessage@CvGame@@QAEXHHHH_N000@Z ; CvGame::selectedCitiesGameNetMessage
	pop	edi
	pop	esi
	pop	ebp

; 497  : 	return 0;

	xor	eax, eax
	pop	ebx

; 498  : }

	add	esp, 20					; 00000014H
	ret	0
?lSelectedCitiesGameNetMessage@CvLuaGame@@KAHPAUlua_State@@@Z ENDP ; CvLuaGame::lSelectedCitiesGameNetMessage
_TEXT	ENDS
PUBLIC	?lCityPushOrder@CvLuaGame@@KAHPAUlua_State@@@Z	; CvLuaGame::lCityPushOrder
EXTRN	?cityPushOrder@CvGame@@QAEXPAVCvCity@@W4OrderTypes@@H_N22@Z:PROC ; CvGame::cityPushOrder
; Function compile flags: /Ogtpy
;	COMDAT ?lCityPushOrder@CvLuaGame@@KAHPAUlua_State@@@Z
_TEXT	SEGMENT
_bCtrl$ = -12						; size = 1
_bShift$ = -8						; size = 1
_bAlt$ = -4						; size = 1
_L$ = 8							; size = 4
?lCityPushOrder@CvLuaGame@@KAHPAUlua_State@@@Z PROC	; CvLuaGame::lCityPushOrder, COMDAT

; 502  : {

	sub	esp, 12					; 0000000cH
	push	ebx
	push	ebp
	push	esi

; 503  : 	CvCity* pkCity			= CvLuaCity::GetInstance(L, 1);

	mov	esi, DWORD PTR _L$[esp+20]
	push	edi
	push	esi
	call	_lua_gettop
	push	1
	push	esi
	mov	ebp, eax
	mov	bl, 1
	xor	edi, edi
	call	_lua_type
	add	esp, 12					; 0000000cH
	cmp	eax, 5
	jne	SHORT $LN5@lCityPushO
	push	OFFSET $SG226177
	push	1
	push	esi
	call	_lua_getfield
	push	-1
	push	esi
	call	_lua_type
	add	esp, 20					; 00000014H
	cmp	eax, 2
	jne	SHORT $LN5@lCityPushO
	push	-1
	push	esi
	call	_lua_touserdata
	mov	edi, eax
	add	esp, 8
	test	edi, edi
	je	SHORT $LN5@lCityPushO
	xor	bl, bl
$LN5@lCityPushO:
	push	ebp
	push	esi
	call	_lua_settop
	add	esp, 8
	test	bl, bl
	je	SHORT $LN4@lCityPushO
	push	OFFSET $SG226183
	push	esi
	call	_luaL_error
	push	esi
	call	?HandleMissingInstance@CvLuaCity@@SAXPAUlua_State@@@Z ; CvLuaCity::HandleMissingInstance
	add	esp, 12					; 0000000cH
$LN4@lCityPushO:

; 504  : 	const OrderTypes eOrder	= (OrderTypes)lua_tointeger(L, 2);

	push	2
	push	esi
	call	_lua_tointeger

; 505  : 	const int iData			= lua_tointeger(L, 3);

	push	3
	push	esi
	mov	ebx, eax
	call	_lua_tointeger

; 506  : 	const bool bAlt			= luaL_optbool(L, 4, 0);

	push	0
	push	4
	push	esi
	mov	ebp, eax
	call	?luaL_optbool@@YA_NPAUlua_State@@H_N@Z	; luaL_optbool

; 507  : 	const bool bShift		= luaL_optbool(L, 5, 0);

	push	0
	push	5
	push	esi
	mov	BYTE PTR _bAlt$[esp+68], al
	call	?luaL_optbool@@YA_NPAUlua_State@@H_N@Z	; luaL_optbool

; 508  : 	const bool bCtrl		= luaL_optbool(L, 6, 0);

	push	0
	push	6
	push	esi
	mov	BYTE PTR _bShift$[esp+80], al
	call	?luaL_optbool@@YA_NPAUlua_State@@H_N@Z	; luaL_optbool

; 509  : 
; 510  : 	GetInstance()->cityPushOrder(pkCity, eOrder, iData, bAlt, bShift, bCtrl);

	mov	ecx, DWORD PTR _bShift$[esp+80]
	mov	edx, DWORD PTR _bAlt$[esp+80]
	add	esp, 52					; 00000034H
	mov	BYTE PTR _bCtrl$[esp+28], al
	mov	eax, DWORD PTR _bCtrl$[esp+28]
	push	eax
	push	ecx
	mov	ecx, DWORD PTR ?gGlobals@@3VCvGlobals@@A+48
	push	edx
	push	ebp
	push	ebx
	push	edi
	call	?cityPushOrder@CvGame@@QAEXPAVCvCity@@W4OrderTypes@@H_N22@Z ; CvGame::cityPushOrder
	pop	edi
	pop	esi
	pop	ebp

; 511  : 	return 0;

	xor	eax, eax
	pop	ebx

; 512  : }

	add	esp, 12					; 0000000cH
	ret	0
?lCityPushOrder@CvLuaGame@@KAHPAUlua_State@@@Z ENDP	; CvLuaGame::lCityPushOrder
_TEXT	ENDS
PUBLIC	?lCityPurchaseUnit@CvLuaGame@@KAHPAUlua_State@@@Z ; CvLuaGame::lCityPurchaseUnit
EXTRN	?CityPurchase@CvGame@@QAEXPAVCvCity@@W4UnitTypes@@W4BuildingTypes@@W4ProjectTypes@@W4YieldTypes@@@Z:PROC ; CvGame::CityPurchase
; Function compile flags: /Ogtpy
;	COMDAT ?lCityPurchaseUnit@CvLuaGame@@KAHPAUlua_State@@@Z
_TEXT	SEGMENT
_L$ = 8							; size = 4
?lCityPurchaseUnit@CvLuaGame@@KAHPAUlua_State@@@Z PROC	; CvLuaGame::lCityPurchaseUnit, COMDAT

; 516  : {

	push	ebx
	push	ebp
	push	esi

; 517  : 	CvCity* pkCity = CvLuaCity::GetInstance(L, 1);

	mov	esi, DWORD PTR _L$[esp+8]
	push	edi
	push	esi
	call	_lua_gettop
	push	1
	push	esi
	mov	ebp, eax
	mov	bl, 1
	xor	edi, edi
	call	_lua_type
	add	esp, 12					; 0000000cH
	cmp	eax, 5
	jne	SHORT $LN5@lCityPurch
	push	OFFSET $SG226177
	push	1
	push	esi
	call	_lua_getfield
	push	-1
	push	esi
	call	_lua_type
	add	esp, 20					; 00000014H
	cmp	eax, 2
	jne	SHORT $LN5@lCityPurch
	push	-1
	push	esi
	call	_lua_touserdata
	mov	edi, eax
	add	esp, 8
	test	edi, edi
	je	SHORT $LN5@lCityPurch
	xor	bl, bl
$LN5@lCityPurch:
	push	ebp
	push	esi
	call	_lua_settop
	add	esp, 8
	test	bl, bl
	je	SHORT $LN4@lCityPurch
	push	OFFSET $SG226183
	push	esi
	call	_luaL_error
	push	esi
	call	?HandleMissingInstance@CvLuaCity@@SAXPAUlua_State@@@Z ; CvLuaCity::HandleMissingInstance
	add	esp, 12					; 0000000cH
$LN4@lCityPurch:

; 518  : 	const UnitTypes eUnitType = (UnitTypes)lua_tointeger(L, 2);

	push	2
	push	esi
	call	_lua_tointeger

; 519  : 	const YieldTypes ePurchaseYield = (YieldTypes)lua_tointeger(L, 3);

	push	3
	push	esi
	mov	ebx, eax
	call	_lua_tointeger

; 520  : 
; 521  : 	GetInstance()->CityPurchase(pkCity, eUnitType, NO_BUILDING, NO_PROJECT, ePurchaseYield);

	mov	ecx, DWORD PTR ?gGlobals@@3VCvGlobals@@A+48
	add	esp, 16					; 00000010H
	push	eax
	push	-1
	push	-1
	push	ebx
	push	edi
	call	?CityPurchase@CvGame@@QAEXPAVCvCity@@W4UnitTypes@@W4BuildingTypes@@W4ProjectTypes@@W4YieldTypes@@@Z ; CvGame::CityPurchase
	pop	edi
	pop	esi
	pop	ebp

; 522  : 	return 0;

	xor	eax, eax
	pop	ebx

; 523  : }

	ret	0
?lCityPurchaseUnit@CvLuaGame@@KAHPAUlua_State@@@Z ENDP	; CvLuaGame::lCityPurchaseUnit
_TEXT	ENDS
PUBLIC	?lCityPurchaseBuilding@CvLuaGame@@KAHPAUlua_State@@@Z ; CvLuaGame::lCityPurchaseBuilding
; Function compile flags: /Ogtpy
;	COMDAT ?lCityPurchaseBuilding@CvLuaGame@@KAHPAUlua_State@@@Z
_TEXT	SEGMENT
_L$ = 8							; size = 4
?lCityPurchaseBuilding@CvLuaGame@@KAHPAUlua_State@@@Z PROC ; CvLuaGame::lCityPurchaseBuilding, COMDAT

; 527  : {

	push	ebx
	push	ebp
	push	esi

; 528  : 	CvCity* pkCity = CvLuaCity::GetInstance(L, 1);

	mov	esi, DWORD PTR _L$[esp+8]
	push	edi
	push	esi
	call	_lua_gettop
	push	1
	push	esi
	mov	ebp, eax
	mov	bl, 1
	xor	edi, edi
	call	_lua_type
	add	esp, 12					; 0000000cH
	cmp	eax, 5
	jne	SHORT $LN5@lCityPurch@2
	push	OFFSET $SG226177
	push	1
	push	esi
	call	_lua_getfield
	push	-1
	push	esi
	call	_lua_type
	add	esp, 20					; 00000014H
	cmp	eax, 2
	jne	SHORT $LN5@lCityPurch@2
	push	-1
	push	esi
	call	_lua_touserdata
	mov	edi, eax
	add	esp, 8
	test	edi, edi
	je	SHORT $LN5@lCityPurch@2
	xor	bl, bl
$LN5@lCityPurch@2:
	push	ebp
	push	esi
	call	_lua_settop
	add	esp, 8
	test	bl, bl
	je	SHORT $LN4@lCityPurch@2
	push	OFFSET $SG226183
	push	esi
	call	_luaL_error
	push	esi
	call	?HandleMissingInstance@CvLuaCity@@SAXPAUlua_State@@@Z ; CvLuaCity::HandleMissingInstance
	add	esp, 12					; 0000000cH
$LN4@lCityPurch@2:

; 529  : 	const BuildingTypes eBuildingType = (BuildingTypes)lua_tointeger(L, 2);

	push	2
	push	esi
	call	_lua_tointeger

; 530  : 	const YieldTypes ePurchaseYield = (YieldTypes)lua_tointeger(L, 3);

	push	3
	push	esi
	mov	ebx, eax
	call	_lua_tointeger

; 531  : 
; 532  : 	GetInstance()->CityPurchase(pkCity, NO_UNIT, eBuildingType, NO_PROJECT, ePurchaseYield);

	mov	ecx, DWORD PTR ?gGlobals@@3VCvGlobals@@A+48
	add	esp, 16					; 00000010H
	push	eax
	push	-1
	push	ebx
	push	-1
	push	edi
	call	?CityPurchase@CvGame@@QAEXPAVCvCity@@W4UnitTypes@@W4BuildingTypes@@W4ProjectTypes@@W4YieldTypes@@@Z ; CvGame::CityPurchase
	pop	edi
	pop	esi
	pop	ebp

; 533  : 	return 0;

	xor	eax, eax
	pop	ebx

; 534  : }

	ret	0
?lCityPurchaseBuilding@CvLuaGame@@KAHPAUlua_State@@@Z ENDP ; CvLuaGame::lCityPurchaseBuilding
_TEXT	ENDS
PUBLIC	?lCityPurchaseProject@CvLuaGame@@KAHPAUlua_State@@@Z ; CvLuaGame::lCityPurchaseProject
; Function compile flags: /Ogtpy
;	COMDAT ?lCityPurchaseProject@CvLuaGame@@KAHPAUlua_State@@@Z
_TEXT	SEGMENT
_L$ = 8							; size = 4
?lCityPurchaseProject@CvLuaGame@@KAHPAUlua_State@@@Z PROC ; CvLuaGame::lCityPurchaseProject, COMDAT

; 538  : {

	push	ebx
	push	ebp
	push	esi

; 539  : 	CvCity* pkCity = CvLuaCity::GetInstance(L, 1);

	mov	esi, DWORD PTR _L$[esp+8]
	push	edi
	push	esi
	call	_lua_gettop
	push	1
	push	esi
	mov	ebp, eax
	mov	bl, 1
	xor	edi, edi
	call	_lua_type
	add	esp, 12					; 0000000cH
	cmp	eax, 5
	jne	SHORT $LN5@lCityPurch@3
	push	OFFSET $SG226177
	push	1
	push	esi
	call	_lua_getfield
	push	-1
	push	esi
	call	_lua_type
	add	esp, 20					; 00000014H
	cmp	eax, 2
	jne	SHORT $LN5@lCityPurch@3
	push	-1
	push	esi
	call	_lua_touserdata
	mov	edi, eax
	add	esp, 8
	test	edi, edi
	je	SHORT $LN5@lCityPurch@3
	xor	bl, bl
$LN5@lCityPurch@3:
	push	ebp
	push	esi
	call	_lua_settop
	add	esp, 8
	test	bl, bl
	je	SHORT $LN4@lCityPurch@3
	push	OFFSET $SG226183
	push	esi
	call	_luaL_error
	push	esi
	call	?HandleMissingInstance@CvLuaCity@@SAXPAUlua_State@@@Z ; CvLuaCity::HandleMissingInstance
	add	esp, 12					; 0000000cH
$LN4@lCityPurch@3:

; 540  : 	const ProjectTypes eProjectType = (ProjectTypes)lua_tointeger(L, 2);

	push	2
	push	esi
	call	_lua_tointeger

; 541  : 	const YieldTypes ePurchaseYield = (YieldTypes)lua_tointeger(L, 3);

	push	3
	push	esi
	mov	ebx, eax
	call	_lua_tointeger

; 542  : 
; 543  : 	GetInstance()->CityPurchase(pkCity, NO_UNIT, NO_BUILDING, eProjectType, ePurchaseYield);

	mov	ecx, DWORD PTR ?gGlobals@@3VCvGlobals@@A+48
	add	esp, 16					; 00000010H
	push	eax
	push	ebx
	push	-1
	push	-1
	push	edi
	call	?CityPurchase@CvGame@@QAEXPAVCvCity@@W4UnitTypes@@W4BuildingTypes@@W4ProjectTypes@@W4YieldTypes@@@Z ; CvGame::CityPurchase
	pop	edi
	pop	esi
	pop	ebp

; 544  : 	return 0;

	xor	eax, eax
	pop	ebx

; 545  : }

	ret	0
?lCityPurchaseProject@CvLuaGame@@KAHPAUlua_State@@@Z ENDP ; CvLuaGame::lCityPurchaseProject
_TEXT	ENDS
PUBLIC	?lSetUnitedNationsCountdown@CvLuaGame@@KAHPAUlua_State@@@Z ; CvLuaGame::lSetUnitedNationsCountdown
EXTRN	?SetUnitedNationsCountdown@CvGame@@QAEXH@Z:PROC	; CvGame::SetUnitedNationsCountdown
; Function compile flags: /Ogtpy
;	COMDAT ?lSetUnitedNationsCountdown@CvLuaGame@@KAHPAUlua_State@@@Z
_TEXT	SEGMENT
_L$ = 8							; size = 4
?lSetUnitedNationsCountdown@CvLuaGame@@KAHPAUlua_State@@@Z PROC ; CvLuaGame::lSetUnitedNationsCountdown, COMDAT

; 574  : 	int iTurns = luaL_checkint(L, 1);

	mov	eax, DWORD PTR _L$[esp-4]
	push	1
	push	eax
	call	_luaL_checkinteger

; 575  : 	GC.getGame().SetUnitedNationsCountdown(iTurns);

	mov	ecx, DWORD PTR ?gGlobals@@3VCvGlobals@@A+48
	add	esp, 8
	push	eax
	call	?SetUnitedNationsCountdown@CvGame@@QAEXH@Z ; CvGame::SetUnitedNationsCountdown

; 576  : 	return 0;

	xor	eax, eax

; 577  : }

	ret	0
?lSetUnitedNationsCountdown@CvLuaGame@@KAHPAUlua_State@@@Z ENDP ; CvLuaGame::lSetUnitedNationsCountdown
_TEXT	ENDS
PUBLIC	?lGetDiploResponse@CvLuaGame@@KAHPAUlua_State@@@Z ; CvLuaGame::lGetDiploResponse
EXTRN	__imp_??1String@Localization@@UAE@XZ:PROC
EXTRN	__imp_?toUTF8@String@Localization@@QAEPBDXZ:PROC
EXTRN	?GetDiploResponse@CvGame@@QAE?AVString@Localization@@PBD0ABV23@1@Z:PROC ; CvGame::GetDiploResponse
EXTRN	__imp_?Empty@String@Localization@@2V12@A:BYTE
EXTRN	___CxxFrameHandler3:PROC
;	COMDAT xdata$x
; File c:\users\enormousapplepie\documents\github\lekmod\lekmod_dll\cvgamecoredll_expansion2\cvglobals.h
xdata$x	SEGMENT
__unwindtable$?lGetDiploResponse@CvLuaGame@@KAHPAUlua_State@@@Z DD 0ffffffffH
	DD	FLAT:__unwindfunclet$?lGetDiploResponse@CvLuaGame@@KAHPAUlua_State@@@Z$0
__ehfuncinfo$?lGetDiploResponse@CvLuaGame@@KAHPAUlua_State@@@Z DD 019930522H
	DD	01H
	DD	FLAT:__unwindtable$?lGetDiploResponse@CvLuaGame@@KAHPAUlua_State@@@Z
	DD	2 DUP(00H)
	DD	2 DUP(00H)
	DD	00H
	DD	01H
; Function compile flags: /Ogtpy
; File c:\users\enormousapplepie\documents\github\lekmod\lekmod_dll\cvgamecoredll_expansion2\lua\cvluagame.cpp
xdata$x	ENDS
;	COMDAT ?lGetDiploResponse@CvLuaGame@@KAHPAUlua_State@@@Z
_TEXT	SEGMENT
_response$ = -92					; size = 80
__$EHRec$ = -12						; size = 12
_L$ = 8							; size = 4
?lGetDiploResponse@CvLuaGame@@KAHPAUlua_State@@@Z PROC	; CvLuaGame::lGetDiploResponse, COMDAT

; 665  : {

	push	-1
	push	__ehhandler$?lGetDiploResponse@CvLuaGame@@KAHPAUlua_State@@@Z
	mov	eax, DWORD PTR fs:0
	push	eax
	mov	DWORD PTR fs:0, esp
	sub	esp, 80					; 00000050H
	push	ebx
	push	esi

; 666  : 	CvGame& game = GC.getGame();
; 667  : 	const char* szLeaderType = luaL_checkstring(L, 1);

	mov	esi, DWORD PTR _L$[esp+96]
	push	edi
	mov	edi, DWORD PTR ?gGlobals@@3VCvGlobals@@A+48
	push	0
	push	1
	push	esi
	call	_luaL_checklstring

; 668  : 	const char* szResponseType = luaL_checkstring(L, 2);

	push	0
	push	2
	push	esi
	mov	ebx, eax
	call	_luaL_checklstring

; 669  : 
; 670  : 	Localization::String response
; 671  : 		= game.GetDiploResponse(szLeaderType, szResponseType, Localization::String::Empty, Localization::String::Empty);

	mov	ecx, DWORD PTR __imp_?Empty@String@Localization@@2V12@A
	add	esp, 24					; 00000018H
	push	ecx
	push	ecx
	push	eax
	push	ebx
	lea	eax, DWORD PTR _response$[esp+120]
	push	eax
	mov	ecx, edi
	call	?GetDiploResponse@CvGame@@QAE?AVString@Localization@@PBD0ABV23@1@Z ; CvGame::GetDiploResponse

; 672  : 
; 673  : 	lua_pushstring(L, response.toUTF8());

	lea	ecx, DWORD PTR _response$[esp+104]
	mov	DWORD PTR __$EHRec$[esp+112], 0
	call	DWORD PTR __imp_?toUTF8@String@Localization@@QAEPBDXZ
	push	eax
	push	esi
	call	_lua_pushstring
	add	esp, 8

; 674  : 
; 675  : 	return 1;

	lea	ecx, DWORD PTR _response$[esp+104]
	mov	DWORD PTR __$EHRec$[esp+112], -1
	call	DWORD PTR __imp_??1String@Localization@@UAE@XZ

; 676  : }

	mov	ecx, DWORD PTR __$EHRec$[esp+104]
	pop	edi
	pop	esi
	mov	eax, 1
	pop	ebx
	mov	DWORD PTR fs:0, ecx
	add	esp, 92					; 0000005cH
	ret	0
_TEXT	ENDS
;	COMDAT text$x
text$x	SEGMENT
__unwindfunclet$?lGetDiploResponse@CvLuaGame@@KAHPAUlua_State@@@Z$0:
	lea	ecx, DWORD PTR _response$[ebp]
	jmp	DWORD PTR __imp_??1String@Localization@@UAE@XZ
__ehhandler$?lGetDiploResponse@CvLuaGame@@KAHPAUlua_State@@@Z:
	mov	eax, OFFSET __ehfuncinfo$?lGetDiploResponse@CvLuaGame@@KAHPAUlua_State@@@Z
	jmp	___CxxFrameHandler3
text$x	ENDS
?lGetDiploResponse@CvLuaGame@@KAHPAUlua_State@@@Z ENDP	; CvLuaGame::lGetDiploResponse
PUBLIC	?lGetTurnString@CvLuaGame@@KAHPAUlua_State@@@Z	; CvLuaGame::lGetTurnString
EXTRN	?setDateStr@CvGameTextMgr@@SAXAAVCvString@@H_NW4CalendarTypes@@HW4GameSpeedTypes@@@Z:PROC ; CvGameTextMgr::setDateStr
EXTRN	?getGameTurn@CvGame@@QAEHXZ:PROC		; CvGame::getGameTurn
EXTRN	?getCalendar@CvGame@@QBE?AW4CalendarTypes@@XZ:PROC ; CvGame::getCalendar
EXTRN	?getStartYear@CvGame@@QBEHXZ:PROC		; CvGame::getStartYear
EXTRN	?getGameSpeedType@CvGame@@QBE?AW4GameSpeedTypes@@XZ:PROC ; CvGame::getGameSpeedType
;	COMDAT xdata$x
; File c:\users\enormousapplepie\documents\github\lekmod\lekmod_dll\cvgamecoredllutil\include\cvstring.h
xdata$x	SEGMENT
__unwindtable$?lGetTurnString@CvLuaGame@@KAHPAUlua_State@@@Z DD 0ffffffffH
	DD	FLAT:__unwindfunclet$?lGetTurnString@CvLuaGame@@KAHPAUlua_State@@@Z$0
__ehfuncinfo$?lGetTurnString@CvLuaGame@@KAHPAUlua_State@@@Z DD 019930522H
	DD	01H
	DD	FLAT:__unwindtable$?lGetTurnString@CvLuaGame@@KAHPAUlua_State@@@Z
	DD	2 DUP(00H)
	DD	2 DUP(00H)
	DD	00H
	DD	01H
; Function compile flags: /Ogtpy
; File c:\users\enormousapplepie\documents\github\lekmod\lekmod_dll\cvgamecoredll_expansion2\lua\cvluagame.cpp
xdata$x	ENDS
;	COMDAT ?lGetTurnString@CvLuaGame@@KAHPAUlua_State@@@Z
_TEXT	SEGMENT
_strString$ = -40					; size = 28
__$EHRec$ = -12						; size = 12
_L$ = 8							; size = 4
?lGetTurnString@CvLuaGame@@KAHPAUlua_State@@@Z PROC	; CvLuaGame::lGetTurnString, COMDAT

; 752  : {

	push	-1
	push	__ehhandler$?lGetTurnString@CvLuaGame@@KAHPAUlua_State@@@Z
	mov	eax, DWORD PTR fs:0
	push	eax
	mov	DWORD PTR fs:0, esp
	sub	esp, 28					; 0000001cH
	push	esi

; 753  : 	CvGame& game = GC.getGame();

	mov	esi, DWORD PTR ?gGlobals@@3VCvGlobals@@A+48

; 754  : 	CvString strString;

	lea	ecx, DWORD PTR _strString$[esp+44]
	call	DWORD PTR __imp_??0?$basic_string@DU?$char_traits@D@std@@V?$allocator@D@2@@std@@QAE@XZ

; 755  : 	CvGameTextMgr::setDateStr(strString,
; 756  : 		game.getGameTurn(),
; 757  : 		false,
; 758  : 		game.getCalendar(),
; 759  : 		game.getStartYear(),
; 760  : 		game.getGameSpeedType());

	mov	ecx, esi
	mov	DWORD PTR __$EHRec$[esp+52], 0
	call	?getGameSpeedType@CvGame@@QBE?AW4GameSpeedTypes@@XZ ; CvGame::getGameSpeedType
	push	eax
	mov	ecx, esi
	call	?getStartYear@CvGame@@QBEHXZ		; CvGame::getStartYear
	push	eax
	mov	ecx, esi
	call	?getCalendar@CvGame@@QBE?AW4CalendarTypes@@XZ ; CvGame::getCalendar
	push	eax
	push	0
	mov	ecx, esi
	call	?getGameTurn@CvGame@@QAEHXZ		; CvGame::getGameTurn
	push	eax
	lea	eax, DWORD PTR _strString$[esp+64]
	push	eax
	call	?setDateStr@CvGameTextMgr@@SAXAAVCvString@@H_NW4CalendarTypes@@HW4GameSpeedTypes@@@Z ; CvGameTextMgr::setDateStr
	add	esp, 24					; 00000018H

; 761  : 
; 762  : 	lua_pushstring(L, strString);

	lea	ecx, DWORD PTR _strString$[esp+44]
	call	DWORD PTR __imp_?c_str@?$basic_string@DU?$char_traits@D@std@@V?$allocator@D@2@@std@@QBEPBDXZ
	mov	ecx, DWORD PTR _L$[esp+40]
	push	eax
	push	ecx
	call	_lua_pushstring
	add	esp, 8

; 763  : 	return 1;

	lea	ecx, DWORD PTR _strString$[esp+44]
	mov	DWORD PTR __$EHRec$[esp+52], -1
	call	DWORD PTR __imp_??1?$basic_string@DU?$char_traits@D@std@@V?$allocator@D@2@@std@@QAE@XZ

; 764  : }

	mov	ecx, DWORD PTR __$EHRec$[esp+44]
	mov	eax, 1
	pop	esi
	mov	DWORD PTR fs:0, ecx
	add	esp, 40					; 00000028H
	ret	0
_TEXT	ENDS
;	COMDAT text$x
text$x	SEGMENT
__unwindfunclet$?lGetTurnString@CvLuaGame@@KAHPAUlua_State@@@Z$0:
	lea	ecx, DWORD PTR _strString$[ebp]
	jmp	??1CvString@@QAE@XZ			; CvString::~CvString
__ehhandler$?lGetTurnString@CvLuaGame@@KAHPAUlua_State@@@Z:
	mov	eax, OFFSET __ehfuncinfo$?lGetTurnString@CvLuaGame@@KAHPAUlua_State@@@Z
	jmp	___CxxFrameHandler3
text$x	ENDS
?lGetTurnString@CvLuaGame@@KAHPAUlua_State@@@Z ENDP	; CvLuaGame::lGetTurnString
PUBLIC	?lGetTutorialLevel@CvLuaGame@@KAHPAUlua_State@@@Z ; CvLuaGame::lGetTutorialLevel
; Function compile flags: /Ogtpy
;	COMDAT ?lGetTutorialLevel@CvLuaGame@@KAHPAUlua_State@@@Z
_TEXT	SEGMENT
_L$ = 8							; size = 4
?lGetTutorialLevel@CvLuaGame@@KAHPAUlua_State@@@Z PROC	; CvLuaGame::lGetTutorialLevel, COMDAT

; 908  : 	lua_pushinteger(L, gDLL->GetTutorialLevel());

	mov	ecx, DWORD PTR ?gGlobals@@3VCvGlobals@@A+8596
	mov	eax, DWORD PTR [ecx]
	mov	edx, DWORD PTR [eax+868]
	call	edx
	push	eax
	mov	eax, DWORD PTR _L$[esp]
	push	eax
	call	_lua_pushinteger
	add	esp, 8

; 909  : 	return 1;

	mov	eax, 1

; 910  : }

	ret	0
?lGetTutorialLevel@CvLuaGame@@KAHPAUlua_State@@@Z ENDP	; CvLuaGame::lGetTutorialLevel
_TEXT	ENDS
PUBLIC	?lHasAdvisorMessageBeenSeen@CvLuaGame@@KAHPAUlua_State@@@Z ; CvLuaGame::lHasAdvisorMessageBeenSeen
EXTRN	?HasAdvisorMessageBeenSeen@CvGame@@QAE_NPBD@Z:PROC ; CvGame::HasAdvisorMessageBeenSeen
; Function compile flags: /Ogtpy
;	COMDAT ?lHasAdvisorMessageBeenSeen@CvLuaGame@@KAHPAUlua_State@@@Z
_TEXT	SEGMENT
_L$ = 8							; size = 4
?lHasAdvisorMessageBeenSeen@CvLuaGame@@KAHPAUlua_State@@@Z PROC ; CvLuaGame::lHasAdvisorMessageBeenSeen, COMDAT

; 913  : {

	push	esi

; 914  : 	const char* szAdvisorMessage = luaL_checkstring(L, 1);

	mov	esi, DWORD PTR _L$[esp]
	push	0
	push	1
	push	esi
	call	_luaL_checklstring

; 915  : 	const bool bResult = GC.getGame().HasAdvisorMessageBeenSeen(szAdvisorMessage);

	mov	ecx, DWORD PTR ?gGlobals@@3VCvGlobals@@A+48
	add	esp, 12					; 0000000cH
	push	eax
	call	?HasAdvisorMessageBeenSeen@CvGame@@QAE_NPBD@Z ; CvGame::HasAdvisorMessageBeenSeen

; 916  : 	lua_pushboolean(L, bResult);

	movzx	eax, al
	push	eax
	push	esi
	call	_lua_pushboolean
	add	esp, 8

; 917  : 	return 1;

	mov	eax, 1
	pop	esi

; 918  : }

	ret	0
?lHasAdvisorMessageBeenSeen@CvLuaGame@@KAHPAUlua_State@@@Z ENDP ; CvLuaGame::lHasAdvisorMessageBeenSeen
_TEXT	ENDS
PUBLIC	?lSetAdvisorMessageHasBeenSeen@CvLuaGame@@KAHPAUlua_State@@@Z ; CvLuaGame::lSetAdvisorMessageHasBeenSeen
EXTRN	?SetAdvisorMessageHasBeenSeen@CvGame@@QAEXPBD_N@Z:PROC ; CvGame::SetAdvisorMessageHasBeenSeen
; Function compile flags: /Ogtpy
;	COMDAT ?lSetAdvisorMessageHasBeenSeen@CvLuaGame@@KAHPAUlua_State@@@Z
_TEXT	SEGMENT
_bSeen$ = -4						; size = 1
_L$ = 8							; size = 4
?lSetAdvisorMessageHasBeenSeen@CvLuaGame@@KAHPAUlua_State@@@Z PROC ; CvLuaGame::lSetAdvisorMessageHasBeenSeen, COMDAT

; 921  : {

	push	ecx
	push	esi

; 922  : 	const char* szAdvisorMessage = luaL_checkstring(L, 1);

	mov	esi, DWORD PTR _L$[esp+4]
	push	edi
	push	0
	push	1
	push	esi
	call	_luaL_checklstring

; 923  : 	const bool bSeen = lua_toboolean(L, 2);

	push	2
	push	esi
	mov	edi, eax
	call	_lua_toboolean
	add	esp, 20					; 00000014H
	test	eax, eax
	setne	al
	mov	BYTE PTR _bSeen$[esp+12], al

; 924  : 	GC.getGame().SetAdvisorMessageHasBeenSeen(szAdvisorMessage, bSeen);

	mov	ecx, DWORD PTR _bSeen$[esp+12]
	push	ecx
	mov	ecx, DWORD PTR ?gGlobals@@3VCvGlobals@@A+48
	push	edi
	call	?SetAdvisorMessageHasBeenSeen@CvGame@@QAEXPBD_N@Z ; CvGame::SetAdvisorMessageHasBeenSeen
	pop	edi

; 925  : 	return 0;

	xor	eax, eax
	pop	esi

; 926  : }

	pop	ecx
	ret	0
?lSetAdvisorMessageHasBeenSeen@CvLuaGame@@KAHPAUlua_State@@@Z ENDP ; CvLuaGame::lSetAdvisorMessageHasBeenSeen
_TEXT	ENDS
PUBLIC	?lSetAdvisorBadAttackInterrupt@CvLuaGame@@KAHPAUlua_State@@@Z ; CvLuaGame::lSetAdvisorBadAttackInterrupt
; Function compile flags: /Ogtpy
;	COMDAT ?lSetAdvisorBadAttackInterrupt@CvLuaGame@@KAHPAUlua_State@@@Z
_TEXT	SEGMENT
_bValue$ = -4						; size = 1
_L$ = 8							; size = 4
?lSetAdvisorBadAttackInterrupt@CvLuaGame@@KAHPAUlua_State@@@Z PROC ; CvLuaGame::lSetAdvisorBadAttackInterrupt, COMDAT

; 929  : {

	push	ecx

; 930  : 	bool bValue = lua_toboolean(L, 1);

	mov	eax, DWORD PTR _L$[esp]
	push	1
	push	eax
	call	_lua_toboolean
	add	esp, 8
	test	eax, eax
	setne	cl
	mov	BYTE PTR _bValue$[esp+4], cl

; 931  : 	gDLL->SetAdvisorBadAttackInterrupt(bValue);

	mov	ecx, DWORD PTR ?gGlobals@@3VCvGlobals@@A+8596
	mov	edx, DWORD PTR [ecx]
	mov	eax, DWORD PTR _bValue$[esp+4]
	mov	edx, DWORD PTR [edx+852]
	push	eax
	call	edx

; 932  : 	return 1;

	mov	eax, 1

; 933  : }

	pop	ecx
	ret	0
?lSetAdvisorBadAttackInterrupt@CvLuaGame@@KAHPAUlua_State@@@Z ENDP ; CvLuaGame::lSetAdvisorBadAttackInterrupt
_TEXT	ENDS
PUBLIC	?lSetAdvisorCityAttackInterrupt@CvLuaGame@@KAHPAUlua_State@@@Z ; CvLuaGame::lSetAdvisorCityAttackInterrupt
; Function compile flags: /Ogtpy
;	COMDAT ?lSetAdvisorCityAttackInterrupt@CvLuaGame@@KAHPAUlua_State@@@Z
_TEXT	SEGMENT
_bValue$ = -4						; size = 1
_L$ = 8							; size = 4
?lSetAdvisorCityAttackInterrupt@CvLuaGame@@KAHPAUlua_State@@@Z PROC ; CvLuaGame::lSetAdvisorCityAttackInterrupt, COMDAT

; 937  : {

	push	ecx

; 938  : 	bool bValue = lua_toboolean(L, 1);

	mov	eax, DWORD PTR _L$[esp]
	push	1
	push	eax
	call	_lua_toboolean
	add	esp, 8
	test	eax, eax
	setne	cl
	mov	BYTE PTR _bValue$[esp+4], cl

; 939  : 	gDLL->SetAdvisorCityAttackInterrupt(bValue);

	mov	ecx, DWORD PTR ?gGlobals@@3VCvGlobals@@A+8596
	mov	edx, DWORD PTR [ecx]
	mov	eax, DWORD PTR _bValue$[esp+4]
	mov	edx, DWORD PTR [edx+860]
	push	eax
	call	edx

; 940  : 	return 1;

	mov	eax, 1

; 941  : }

	pop	ecx
	ret	0
?lSetAdvisorCityAttackInterrupt@CvLuaGame@@KAHPAUlua_State@@@Z ENDP ; CvLuaGame::lSetAdvisorCityAttackInterrupt
_TEXT	ENDS
PUBLIC	?lChangeNoNukesCount@CvLuaGame@@KAHPAUlua_State@@@Z ; CvLuaGame::lChangeNoNukesCount
EXTRN	?changeNoNukesCount@CvGame@@QAEXH@Z:PROC	; CvGame::changeNoNukesCount
; Function compile flags: /Ogtpy
;	COMDAT ?lChangeNoNukesCount@CvLuaGame@@KAHPAUlua_State@@@Z
_TEXT	SEGMENT
_L$ = 8							; size = 4
?lChangeNoNukesCount@CvLuaGame@@KAHPAUlua_State@@@Z PROC ; CvLuaGame::lChangeNoNukesCount, COMDAT

; 996  : 	int iNumNukes = lua_tointeger(L, 2);

	mov	eax, DWORD PTR _L$[esp-4]
	push	2
	push	eax
	call	_lua_tointeger

; 997  : 	GC.getGame().changeNoNukesCount(iNumNukes);

	mov	ecx, DWORD PTR ?gGlobals@@3VCvGlobals@@A+48
	add	esp, 8
	push	eax
	call	?changeNoNukesCount@CvGame@@QAEXH@Z	; CvGame::changeNoNukesCount

; 998  : 	return 1;

	mov	eax, 1

; 999  : }

	ret	0
?lChangeNoNukesCount@CvLuaGame@@KAHPAUlua_State@@@Z ENDP ; CvLuaGame::lChangeNoNukesCount
_TEXT	ENDS
PUBLIC	?lChangeNukesExploded@CvLuaGame@@KAHPAUlua_State@@@Z ; CvLuaGame::lChangeNukesExploded
EXTRN	?changeNukesExploded@CvGame@@QAEXH@Z:PROC	; CvGame::changeNukesExploded
; Function compile flags: /Ogtpy
;	COMDAT ?lChangeNukesExploded@CvLuaGame@@KAHPAUlua_State@@@Z
_TEXT	SEGMENT
_L$ = 8							; size = 4
?lChangeNukesExploded@CvLuaGame@@KAHPAUlua_State@@@Z PROC ; CvLuaGame::lChangeNukesExploded, COMDAT

; 1010 : 	int iNumNukes = lua_tointeger(L, 2);

	mov	eax, DWORD PTR _L$[esp-4]
	push	2
	push	eax
	call	_lua_tointeger

; 1011 : 	GC.getGame().changeNukesExploded(iNumNukes);

	mov	ecx, DWORD PTR ?gGlobals@@3VCvGlobals@@A+48
	add	esp, 8
	push	eax
	call	?changeNukesExploded@CvGame@@QAEXH@Z	; CvGame::changeNukesExploded

; 1012 : 	return 1;

	mov	eax, 1

; 1013 : }

	ret	0
?lChangeNukesExploded@CvLuaGame@@KAHPAUlua_State@@@Z ENDP ; CvLuaGame::lChangeNukesExploded
_TEXT	ENDS
PUBLIC	?lGetNumWorldWonders@CvLuaGame@@KAHPAUlua_State@@@Z ; CvLuaGame::lGetNumWorldWonders
EXTRN	?countNumBuildings@CvPlayer@@QBEHW4BuildingTypes@@@Z:PROC ; CvPlayer::countNumBuildings
EXTRN	?isWorldWonderClass@@YA_NABVCvBuildingClassInfo@@@Z:PROC ; isWorldWonderClass
EXTRN	?GetBuildingClassInfo@CvBuildingEntry@@QBEABVCvBuildingClassInfo@@XZ:PROC ; CvBuildingEntry::GetBuildingClassInfo
EXTRN	?getNumBuildingInfos@CvGlobals@@QAEHXZ:PROC	; CvGlobals::getNumBuildingInfos
; Function compile flags: /Ogtpy
;	COMDAT ?lGetNumWorldWonders@CvLuaGame@@KAHPAUlua_State@@@Z
_TEXT	SEGMENT
_L$ = 8							; size = 4
?lGetNumWorldWonders@CvLuaGame@@KAHPAUlua_State@@@Z PROC ; CvLuaGame::lGetNumWorldWonders, COMDAT

; 1047 : {

	push	ebx
	push	ebp
	push	esi

; 1048 : 	int iWonderCount = 0;

	xor	ebp, ebp
	push	edi
	xor	ebx, ebx
	npad	8
$LL17@lGetNumWor:

; 1053 : 	{
; 1054 : 		eLoopPlayer = (PlayerTypes) iPlayerLoop;
; 1055 : 		CvPlayerAI& kLoopPlayer = GET_PLAYER(eLoopPlayer);

	mov	eax, DWORD PTR ?m_aPlayers@CvPlayerAI@@1PAV1@A ; CvPlayerAI::m_aPlayers

; 1056 : 
; 1057 : 		// Loop through all buildings, see if they're a world wonder
; 1058 : #ifdef AUI_WARNING_FIXES
; 1059 : 		for (uint iBuildingLoop = 0; iBuildingLoop < GC.getNumBuildingInfos(); iBuildingLoop++)
; 1060 : #else
; 1061 : 		for(int iBuildingLoop = 0; iBuildingLoop < GC.getNumBuildingInfos(); iBuildingLoop++)

	mov	ecx, OFFSET ?gGlobals@@3VCvGlobals@@A	; gGlobals
	lea	edi, DWORD PTR [ebx+eax]
	xor	esi, esi
	call	?getNumBuildingInfos@CvGlobals@@QAEHXZ	; CvGlobals::getNumBuildingInfos
	test	eax, eax
	jle	SHORT $LN7@lGetNumWor
	npad	8
$LL5@lGetNumWor:

; 1062 : #endif
; 1063 : 		{
; 1064 : 			const BuildingTypes eBuilding = static_cast<BuildingTypes>(iBuildingLoop);
; 1065 : 			CvBuildingEntry* pkBuildingInfo = GC.getBuildingInfo(eBuilding);

	push	esi
	mov	ecx, OFFSET ?gGlobals@@3VCvGlobals@@A	; gGlobals
	call	?getBuildingInfo@CvGlobals@@QAEPAVCvBuildingEntry@@W4BuildingTypes@@@Z ; CvGlobals::getBuildingInfo

; 1066 : 			if(pkBuildingInfo)

	test	eax, eax
	je	SHORT $LN4@lGetNumWor

; 1067 : 			{
; 1068 : 				if(::isWorldWonderClass(pkBuildingInfo->GetBuildingClassInfo()))

	mov	ecx, eax
	call	?GetBuildingClassInfo@CvBuildingEntry@@QBEABVCvBuildingClassInfo@@XZ ; CvBuildingEntry::GetBuildingClassInfo
	push	eax
	call	?isWorldWonderClass@@YA_NABVCvBuildingClassInfo@@@Z ; isWorldWonderClass
	add	esp, 4
	test	al, al
	je	SHORT $LN4@lGetNumWor

; 1069 : 				{
; 1070 : 					iWonderCount += kLoopPlayer.countNumBuildings(eBuilding);

	push	esi
	mov	ecx, edi
	call	?countNumBuildings@CvPlayer@@QBEHW4BuildingTypes@@@Z ; CvPlayer::countNumBuildings
	add	ebp, eax
$LN4@lGetNumWor:
	mov	ecx, OFFSET ?gGlobals@@3VCvGlobals@@A	; gGlobals
	inc	esi
	call	?getNumBuildingInfos@CvGlobals@@QAEHXZ	; CvGlobals::getNumBuildingInfos
	cmp	esi, eax
	jl	SHORT $LL5@lGetNumWor
$LN7@lGetNumWor:

; 1049 : 
; 1050 : 	// Loop through all players
; 1051 : 	PlayerTypes eLoopPlayer;
; 1052 : 	for(int iPlayerLoop = 0; iPlayerLoop < MAX_PLAYERS; iPlayerLoop++)

	add	ebx, 63236				; 0000f704H
	cmp	ebx, 4047104				; 003dc100H
	jl	SHORT $LL17@lGetNumWor

; 1071 : 				}
; 1072 : 			}
; 1073 : 		}
; 1074 : 	}
; 1075 : 
; 1076 : 	lua_pushinteger(L, iWonderCount);

	mov	ecx, DWORD PTR _L$[esp+12]
	push	ebp
	push	ecx
	call	_lua_pushinteger
	add	esp, 8
	pop	edi
	pop	esi
	pop	ebp

; 1077 : 	return 1;

	mov	eax, 1
	pop	ebx

; 1078 : }

	ret	0
?lGetNumWorldWonders@CvLuaGame@@KAHPAUlua_State@@@Z ENDP ; CvLuaGame::lGetNumWorldWonders
_TEXT	ENDS
PUBLIC	?lSetPausePlayer@CvLuaGame@@KAHPAUlua_State@@@Z	; CvLuaGame::lSetPausePlayer
EXTRN	?setPausePlayer@CvGame@@QAEXW4PlayerTypes@@@Z:PROC ; CvGame::setPausePlayer
EXTRN	?isNetworkMultiPlayer@CvGame@@QBE_NXZ:PROC	; CvGame::isNetworkMultiPlayer
; Function compile flags: /Ogtpy
;	COMDAT ?lSetPausePlayer@CvLuaGame@@KAHPAUlua_State@@@Z
_TEXT	SEGMENT
_L$ = 8							; size = 4
?lSetPausePlayer@CvLuaGame@@KAHPAUlua_State@@@Z PROC	; CvLuaGame::lSetPausePlayer, COMDAT

; 1211 : {

	push	esi

; 1212 : 	CvGame& game = GC.getGame();

	mov	esi, DWORD PTR ?gGlobals@@3VCvGlobals@@A+48

; 1213 : 	if(!game.isNetworkMultiPlayer())

	mov	ecx, esi
	call	?isNetworkMultiPlayer@CvGame@@QBE_NXZ	; CvGame::isNetworkMultiPlayer
	test	al, al
	jne	SHORT $LN6@lSetPauseP

; 1214 : 	{
; 1215 : 		int iPlayer = lua_tointeger(L, 1);

	mov	eax, DWORD PTR _L$[esp]
	push	1
	push	eax
	call	_lua_tointeger
	add	esp, 8

; 1216 : 		game.setPausePlayer((PlayerTypes)iPlayer);

	push	eax
	mov	ecx, esi
	call	?setPausePlayer@CvGame@@QAEXW4PlayerTypes@@@Z ; CvGame::setPausePlayer
$LN6@lSetPauseP:

; 1217 : 	}
; 1218 : 
; 1219 : 	return 1;

	mov	eax, 1
	pop	esi

; 1220 : }

	ret	0
?lSetPausePlayer@CvLuaGame@@KAHPAUlua_State@@@Z ENDP	; CvLuaGame::lSetPausePlayer
_TEXT	ENDS
PUBLIC	?lGetFaithCost@CvLuaGame@@KAHPAUlua_State@@@Z	; CvLuaGame::lGetFaithCost
EXTRN	?GetFaithCost@CvGame@@QBEHPAVCvUnitEntry@@@Z:PROC ; CvGame::GetFaithCost
; Function compile flags: /Ogtpy
;	COMDAT ?lGetFaithCost@CvLuaGame@@KAHPAUlua_State@@@Z
_TEXT	SEGMENT
_L$ = 8							; size = 4
?lGetFaithCost@CvLuaGame@@KAHPAUlua_State@@@Z PROC	; CvLuaGame::lGetFaithCost, COMDAT

; 1242 : {

	push	esi

; 1243 : 	const UnitTypes eUnit = (UnitTypes) lua_tointeger(L, 1);

	mov	esi, DWORD PTR _L$[esp]
	push	1
	push	esi
	call	_lua_tointeger
	add	esp, 8

; 1244 : 	CvUnitEntry* pkUnitInfo = GC.getUnitInfo(eUnit);

	push	eax
	mov	ecx, OFFSET ?gGlobals@@3VCvGlobals@@A	; gGlobals
	call	?getUnitInfo@CvGlobals@@QAEPAVCvUnitEntry@@W4UnitTypes@@@Z ; CvGlobals::getUnitInfo

; 1245 : 	const int iResult = GC.getGame().GetFaithCost(pkUnitInfo);

	mov	ecx, DWORD PTR ?gGlobals@@3VCvGlobals@@A+48
	push	eax
	call	?GetFaithCost@CvGame@@QBEHPAVCvUnitEntry@@@Z ; CvGame::GetFaithCost

; 1246 : 	lua_pushinteger(L, iResult);

	push	eax
	push	esi
	call	_lua_pushinteger
	add	esp, 8

; 1247 : 	return 1;

	mov	eax, 1
	pop	esi

; 1248 : }

	ret	0
?lGetFaithCost@CvLuaGame@@KAHPAUlua_State@@@Z ENDP	; CvLuaGame::lGetFaithCost
_TEXT	ENDS
PUBLIC	?lSetGameState@CvLuaGame@@KAHPAUlua_State@@@Z	; CvLuaGame::lSetGameState
EXTRN	?setGameState@CvGame@@QAEXW4GameStateTypes@@@Z:PROC ; CvGame::setGameState
; Function compile flags: /Ogtpy
;	COMDAT ?lSetGameState@CvLuaGame@@KAHPAUlua_State@@@Z
_TEXT	SEGMENT
_L$ = 8							; size = 4
?lSetGameState@CvLuaGame@@KAHPAUlua_State@@@Z PROC	; CvLuaGame::lSetGameState, COMDAT

; 1277 : 	int iGameState = luaL_checkint(L, 1);

	mov	eax, DWORD PTR _L$[esp-4]
	push	1
	push	eax
	call	_luaL_checkinteger

; 1278 : 	GameStateTypes eGameState = static_cast<GameStateTypes>(iGameState);
; 1279 : 
; 1280 : 	GC.getGame().setGameState(eGameState);

	mov	ecx, DWORD PTR ?gGlobals@@3VCvGlobals@@A+48
	add	esp, 8
	push	eax
	call	?setGameState@CvGame@@QAEXW4GameStateTypes@@@Z ; CvGame::setGameState

; 1281 : 	return 0;

	xor	eax, eax

; 1282 : }

	ret	0
?lSetGameState@CvLuaGame@@KAHPAUlua_State@@@Z ENDP	; CvLuaGame::lSetGameState
_TEXT	ENDS
PUBLIC	?lIsOption@CvLuaGame@@KAHPAUlua_State@@@Z	; CvLuaGame::lIsOption
EXTRN	?isOption@CvGame@@QBE_NPBD@Z:PROC		; CvGame::isOption
EXTRN	_lua_tolstring:PROC
EXTRN	?isOption@CvGame@@QBE_NW4GameOptionTypes@@@Z:PROC ; CvGame::isOption
EXTRN	_lua_isnumber:PROC
; Function compile flags: /Ogtpy
;	COMDAT ?lIsOption@CvLuaGame@@KAHPAUlua_State@@@Z
_TEXT	SEGMENT
_L$ = 8							; size = 4
?lIsOption@CvLuaGame@@KAHPAUlua_State@@@Z PROC		; CvLuaGame::lIsOption, COMDAT

; 1395 : {

	push	esi

; 1396 : 	CvGame& kGame = GC.getGame();
; 1397 : 	bool bResult = false;
; 1398 : 	if(lua_isnumber(L, 1))

	mov	esi, DWORD PTR _L$[esp]
	push	edi
	mov	edi, DWORD PTR ?gGlobals@@3VCvGlobals@@A+48
	push	1
	push	esi
	call	_lua_isnumber
	add	esp, 8
	test	eax, eax
	je	SHORT $LN2@lIsOption

; 1399 : 		bResult = kGame.isOption((GameOptionTypes)lua_tointeger(L, 1));

	push	1
	push	esi
	call	_lua_tointeger
	add	esp, 8
	push	eax
	mov	ecx, edi
	call	?isOption@CvGame@@QBE_NW4GameOptionTypes@@@Z ; CvGame::isOption

; 1400 : 	else

	jmp	SHORT $LN1@lIsOption
$LN2@lIsOption:

; 1401 : 		bResult = kGame.isOption(lua_tostring(L, 1));

	push	0
	push	1
	push	esi
	call	_lua_tolstring
	add	esp, 12					; 0000000cH
	push	eax
	mov	ecx, edi
	call	?isOption@CvGame@@QBE_NPBD@Z		; CvGame::isOption
$LN1@lIsOption:

; 1402 : 
; 1403 : 	lua_pushboolean(L, bResult);

	movzx	eax, al
	push	eax
	push	esi
	call	_lua_pushboolean
	add	esp, 8
	pop	edi

; 1404 : 	return 1;

	mov	eax, 1
	pop	esi

; 1405 : }

	ret	0
?lIsOption@CvLuaGame@@KAHPAUlua_State@@@Z ENDP		; CvLuaGame::lIsOption
_TEXT	ENDS
PUBLIC	?lSetOption@CvLuaGame@@KAHPAUlua_State@@@Z	; CvLuaGame::lSetOption
EXTRN	?setOption@CvGame@@QAEXPBD_N@Z:PROC		; CvGame::setOption
EXTRN	?setOption@CvGame@@QAEXW4GameOptionTypes@@_N@Z:PROC ; CvGame::setOption
; Function compile flags: /Ogtpy
;	COMDAT ?lSetOption@CvLuaGame@@KAHPAUlua_State@@@Z
_TEXT	SEGMENT
_L$ = 8							; size = 4
?lSetOption@CvLuaGame@@KAHPAUlua_State@@@Z PROC		; CvLuaGame::lSetOption, COMDAT

; 1410 : {

	push	esi

; 1411 : 	CvGame& kGame = GC.getGame();
; 1412 : 	if(lua_isnumber(L, 1))

	mov	esi, DWORD PTR _L$[esp]
	push	edi
	mov	edi, DWORD PTR ?gGlobals@@3VCvGlobals@@A+48
	push	1
	push	esi
	call	_lua_isnumber
	add	esp, 8

; 1413 : 		kGame.setOption((GameOptionTypes)lua_tointeger(L, 1), lua_toboolean(L, 2));

	push	2
	push	esi
	test	eax, eax
	je	SHORT $LN2@lSetOption
	call	_lua_toboolean
	add	esp, 8
	test	eax, eax
	setne	al
	movzx	ecx, al
	push	ecx
	push	1
	push	esi
	call	_lua_tointeger
	add	esp, 8
	push	eax
	mov	ecx, edi
	call	?setOption@CvGame@@QAEXW4GameOptionTypes@@_N@Z ; CvGame::setOption
	pop	edi

; 1416 : 
; 1417 : 	return 0;

	xor	eax, eax
	pop	esi

; 1418 : }

	ret	0
$LN2@lSetOption:

; 1414 : 	else
; 1415 : 		kGame.setOption(lua_tostring(L, 1), lua_toboolean(L, 2));

	call	_lua_toboolean
	add	esp, 8
	test	eax, eax
	setne	dl
	movzx	eax, dl
	push	eax
	push	0
	push	1
	push	esi
	call	_lua_tolstring
	add	esp, 12					; 0000000cH
	push	eax
	mov	ecx, edi
	call	?setOption@CvGame@@QAEXPBD_N@Z		; CvGame::setOption
	pop	edi

; 1416 : 
; 1417 : 	return 0;

	xor	eax, eax
	pop	esi

; 1418 : }

	ret	0
?lSetOption@CvLuaGame@@KAHPAUlua_State@@@Z ENDP		; CvLuaGame::lSetOption
_TEXT	ENDS
PUBLIC	?lSetVictoryValid@CvLuaGame@@KAHPAUlua_State@@@Z ; CvLuaGame::lSetVictoryValid
EXTRN	?setVictoryValid@CvGame@@QAEXW4VictoryTypes@@_N@Z:PROC ; CvGame::setVictoryValid
; Function compile flags: /Ogtpy
;	COMDAT ?lSetVictoryValid@CvLuaGame@@KAHPAUlua_State@@@Z
_TEXT	SEGMENT
_bValid$ = -4						; size = 1
_L$ = 8							; size = 4
?lSetVictoryValid@CvLuaGame@@KAHPAUlua_State@@@Z PROC	; CvLuaGame::lSetVictoryValid, COMDAT

; 1476 : {

	push	ecx
	push	ebx
	push	esi

; 1477 : 	CvGame& game = GC.getGame();

	mov	esi, DWORD PTR ?gGlobals@@3VCvGlobals@@A+48
	push	edi

; 1478 : 	VictoryTypes eVictoryType = (VictoryTypes)lua_tointeger(L, 1);

	mov	edi, DWORD PTR _L$[esp+12]
	push	1
	push	edi
	call	_lua_tointeger

; 1479 : 	bool bValid = lua_toboolean(L, 2);

	push	2
	push	edi
	mov	ebx, eax
	call	_lua_toboolean
	add	esp, 16					; 00000010H
	test	eax, eax
	setne	al
	mov	BYTE PTR _bValid$[esp+16], al

; 1480 : 	game.setVictoryValid(eVictoryType, bValid);

	mov	ecx, DWORD PTR _bValid$[esp+16]
	push	ecx
	push	ebx
	mov	ecx, esi
	call	?setVictoryValid@CvGame@@QAEXW4VictoryTypes@@_N@Z ; CvGame::setVictoryValid
	pop	edi
	pop	esi

; 1481 : 
; 1482 : #ifdef AUI_WARNING_FIXES
; 1483 : 	return 0;
; 1484 : #else
; 1485 : 	return true;

	mov	eax, 1
	pop	ebx

; 1486 : #endif
; 1487 : }

	pop	ecx
	ret	0
?lSetVictoryValid@CvLuaGame@@KAHPAUlua_State@@@Z ENDP	; CvLuaGame::lSetVictoryValid
_TEXT	ENDS
PUBLIC	?lRand@CvLuaGame@@KAHPAUlua_State@@@Z		; CvLuaGame::lRand
EXTRN	?get@CvRandom@@QAEGGPBD@Z:PROC			; CvRandom::get
EXTRN	?getJonRand@CvGame@@QAEAAVCvRandom@@XZ:PROC	; CvGame::getJonRand
; Function compile flags: /Ogtpy
;	COMDAT ?lRand@CvLuaGame@@KAHPAUlua_State@@@Z
_TEXT	SEGMENT
_L$ = 8							; size = 4
?lRand@CvLuaGame@@KAHPAUlua_State@@@Z PROC		; CvLuaGame::lRand, COMDAT

; 1534 : {

	push	esi

; 1535 : 	const int max_num = luaL_checkinteger(L, 1);

	mov	esi, DWORD PTR _L$[esp]
	push	edi
	push	1
	push	esi
	call	_luaL_checkinteger

; 1536 : 	const char* strLog = luaL_checkstring(L, 2);

	push	0
	push	2
	push	esi
	mov	edi, eax
	call	_luaL_checklstring

; 1537 : 	const int rand_val = GetInstance()->getJonRand().get(max_num, strLog);

	mov	ecx, DWORD PTR ?gGlobals@@3VCvGlobals@@A+48
	add	esp, 20					; 00000014H
	push	eax
	push	edi
	call	?getJonRand@CvGame@@QAEAAVCvRandom@@XZ	; CvGame::getJonRand
	mov	ecx, eax
	call	?get@CvRandom@@QAEGGPBD@Z		; CvRandom::get
	movzx	eax, ax

; 1538 : 
; 1539 : 	lua_pushinteger(L, rand_val);

	push	eax
	push	esi
	call	_lua_pushinteger
	add	esp, 8
	pop	edi

; 1540 : 	return 1;

	mov	eax, 1
	pop	esi

; 1541 : }

	ret	0
?lRand@CvLuaGame@@KAHPAUlua_State@@@Z ENDP		; CvLuaGame::lRand
_TEXT	ENDS
PUBLIC	?lGetReplayMessage@CvLuaGame@@KAHPAUlua_State@@@Z ; CvLuaGame::lGetReplayMessage
EXTRN	_lua_rawseti:PROC
EXTRN	?getPlot@CvReplayMessage@@QBE_NIAAH0@Z:PROC	; CvReplayMessage::getPlot
EXTRN	?getNumPlots@CvReplayMessage@@QBEIXZ:PROC	; CvReplayMessage::getNumPlots
EXTRN	?getText@CvReplayMessage@@QBEABVCvString@@XZ:PROC ; CvReplayMessage::getText
EXTRN	?getType@CvReplayMessage@@QBE?AW4ReplayMessageTypes@@XZ:PROC ; CvReplayMessage::getType
EXTRN	?getTurn@CvReplayMessage@@QBEHXZ:PROC		; CvReplayMessage::getTurn
EXTRN	?getPlayer@CvReplayMessage@@QBE?AW4PlayerTypes@@XZ:PROC ; CvReplayMessage::getPlayer
EXTRN	?getReplayMessage@CvGame@@QBEPBVCvReplayMessage@@I@Z:PROC ; CvGame::getReplayMessage
EXTRN	?getNumReplayMessages@CvGame@@QBEIXZ:PROC	; CvGame::getNumReplayMessages
; Function compile flags: /Ogtpy
;	COMDAT ?lGetReplayMessage@CvLuaGame@@KAHPAUlua_State@@@Z
_TEXT	SEGMENT
_i$224211 = -20						; size = 4
_nPlots$224207 = -16					; size = 4
_iPlotX$224215 = -12					; size = 4
_iPlotY$224216 = -8					; size = 4
_t$224200 = -4						; size = 4
_L$ = 8							; size = 4
?lGetReplayMessage@CvLuaGame@@KAHPAUlua_State@@@Z PROC	; CvLuaGame::lGetReplayMessage, COMDAT

; 1556 : {

	sub	esp, 20					; 00000014H
	push	ebx
	push	esi
	push	edi

; 1557 : 	CvGame& game = GC.getGame();

	mov	edi, DWORD PTR ?gGlobals@@3VCvGlobals@@A+48

; 1558 : 	const size_t nReplayMessages = game.getNumReplayMessages();

	mov	ecx, edi
	call	?getNumReplayMessages@CvGame@@QBEIXZ	; CvGame::getNumReplayMessages

; 1559 : 
; 1560 : 	unsigned int idx = luaL_checkint(L, 1);

	mov	esi, DWORD PTR _L$[esp+28]
	push	1
	push	esi
	mov	ebx, eax
	call	_luaL_checkinteger
	add	esp, 8

; 1561 : 	if(idx < nReplayMessages)

	cmp	eax, ebx
	jae	$LN7@lGetReplay
	push	ebp

; 1562 : 	{
; 1563 : 		const CvReplayMessage* pMessage = game.getReplayMessage(idx);

	push	eax
	mov	ecx, edi
	call	?getReplayMessage@CvGame@@QBEPBVCvReplayMessage@@I@Z ; CvGame::getReplayMessage

; 1564 : 
; 1565 : 		lua_createtable(L, 0, 5);

	push	5
	push	0
	push	esi
	mov	ebx, eax
	call	_lua_createtable

; 1566 : 		const int t = lua_gettop(L);

	push	esi
	call	_lua_gettop
	mov	edi, eax
	add	esp, 16					; 00000010H

; 1567 : 
; 1568 : 		lua_pushinteger(L, pMessage->getPlayer());

	mov	ecx, ebx
	mov	DWORD PTR _t$224200[esp+36], edi
	call	?getPlayer@CvReplayMessage@@QBE?AW4PlayerTypes@@XZ ; CvReplayMessage::getPlayer
	push	eax
	push	esi
	call	_lua_pushinteger

; 1569 : 		lua_setfield(L, t, "Player");

	push	OFFSET $SG224201
	push	edi
	push	esi
	call	_lua_setfield
	add	esp, 20					; 00000014H

; 1570 : 
; 1571 : 		lua_pushinteger(L, pMessage->getTurn());

	mov	ecx, ebx
	call	?getTurn@CvReplayMessage@@QBEHXZ	; CvReplayMessage::getTurn
	push	eax
	push	esi
	call	_lua_pushinteger

; 1572 : 		lua_setfield(L, t, "Turn");

	push	OFFSET $SG224202
	push	edi
	push	esi
	call	_lua_setfield
	add	esp, 20					; 00000014H

; 1573 : 
; 1574 : 		lua_pushinteger(L, pMessage->getType());

	mov	ecx, ebx
	call	?getType@CvReplayMessage@@QBE?AW4ReplayMessageTypes@@XZ ; CvReplayMessage::getType
	push	eax
	push	esi
	call	_lua_pushinteger

; 1575 : 		lua_setfield(L, t, "Type");

	push	OFFSET $SG224203
	push	edi
	push	esi
	call	_lua_setfield
	add	esp, 20					; 00000014H

; 1576 : 
; 1577 : 		const CvString& text = pMessage->getText();

	mov	ecx, ebx
	call	?getText@CvReplayMessage@@QBEABVCvString@@XZ ; CvReplayMessage::getText
	mov	ebp, eax

; 1578 : 		if(text.GetLength() > 0)

	mov	ecx, ebp
	call	DWORD PTR __imp_?size@?$basic_string@DU?$char_traits@D@std@@V?$allocator@D@2@@std@@QBEIXZ
	test	eax, eax
	jle	SHORT $LN6@lGetReplay

; 1579 : 		{
; 1580 : 			lua_pushstring(L, text.c_str());

	mov	ecx, ebp
	call	DWORD PTR __imp_?c_str@?$basic_string@DU?$char_traits@D@std@@V?$allocator@D@2@@std@@QBEPBDXZ
	push	eax
	push	esi
	call	_lua_pushstring

; 1581 : 			lua_setfield(L, t, "Text");

	push	OFFSET $SG224206
	push	edi
	push	esi
	call	_lua_setfield
	add	esp, 20					; 00000014H
$LN6@lGetReplay:

; 1582 : 		}
; 1583 : 
; 1584 : 		const unsigned int nPlots = pMessage->getNumPlots();

	mov	ecx, ebx
	call	?getNumPlots@CvReplayMessage@@QBEIXZ	; CvReplayMessage::getNumPlots
	mov	DWORD PTR _nPlots$224207[esp+36], eax

; 1585 : 		if(nPlots > 0)

	test	eax, eax
	jbe	$LN5@lGetReplay

; 1586 : 		{
; 1587 : 			lua_createtable(L, nPlots, 0);

	push	0
	push	eax
	push	esi
	call	_lua_createtable

; 1588 : 			int plots_idx = 1;
; 1589 : 			int plots_t = lua_gettop(L);

	push	esi
	mov	edi, 1
	call	_lua_gettop
	add	esp, 16					; 00000010H

; 1590 : 
; 1591 : 			for(unsigned int i = 0; i < nPlots; i++)

	cmp	DWORD PTR _nPlots$224207[esp+36], 0
	mov	ebp, eax
	mov	DWORD PTR _i$224211[esp+36], 0
	jbe	SHORT $LN2@lGetReplay
$LL16@lGetReplay:

; 1592 : 			{
; 1593 : 				int iPlotX, iPlotY;
; 1594 : 				if(pMessage->getPlot(i, iPlotX, iPlotY))

	mov	edx, DWORD PTR _i$224211[esp+36]
	lea	eax, DWORD PTR _iPlotY$224216[esp+36]
	push	eax
	lea	ecx, DWORD PTR _iPlotX$224215[esp+40]
	push	ecx
	push	edx
	mov	ecx, ebx
	call	?getPlot@CvReplayMessage@@QBE_NIAAH0@Z	; CvReplayMessage::getPlot
	test	al, al
	je	SHORT $LN3@lGetReplay

; 1595 : 				{
; 1596 : 					lua_createtable(L, 0, 2);

	push	2
	push	0
	push	esi
	call	_lua_createtable

; 1597 : 					lua_pushinteger(L, iPlotX);

	mov	eax, DWORD PTR _iPlotX$224215[esp+48]
	push	eax
	push	esi
	call	_lua_pushinteger

; 1598 : 					lua_setfield(L, -2, "X");

	push	OFFSET $SG224218
	push	-2					; fffffffeH
	push	esi
	call	_lua_setfield

; 1599 : 					lua_pushinteger(L, iPlotY);

	mov	ecx, DWORD PTR _iPlotY$224216[esp+68]
	push	ecx
	push	esi
	call	_lua_pushinteger

; 1600 : 					lua_setfield(L, -2, "Y");

	push	OFFSET $SG224219
	push	-2					; fffffffeH
	push	esi
	call	_lua_setfield

; 1601 : 					lua_rawseti(L, plots_t, plots_idx++);

	push	edi
	push	ebp
	push	esi
	call	_lua_rawseti
	add	esp, 64					; 00000040H
	inc	edi
$LN3@lGetReplay:
	mov	eax, DWORD PTR _i$224211[esp+36]
	inc	eax
	mov	DWORD PTR _i$224211[esp+36], eax
	cmp	eax, DWORD PTR _nPlots$224207[esp+36]
	jb	SHORT $LL16@lGetReplay
$LN2@lGetReplay:

; 1602 : 				}
; 1603 : 			}
; 1604 : 
; 1605 : 			lua_setfield(L, t, "Plots");

	mov	edx, DWORD PTR _t$224200[esp+36]
	push	OFFSET $SG224220
	push	edx
	push	esi
	call	_lua_setfield
	add	esp, 12					; 0000000cH
$LN5@lGetReplay:
	pop	ebp
	pop	edi
	pop	esi

; 1606 : 		}
; 1607 : 
; 1608 : 		return 1;

	mov	eax, 1
	pop	ebx

; 1612 : }

	add	esp, 20					; 00000014H
	ret	0
$LN7@lGetReplay:
	pop	edi
	pop	esi

; 1609 : 	}
; 1610 : 
; 1611 : 	return 0;

	xor	eax, eax
	pop	ebx

; 1612 : }

	add	esp, 20					; 00000014H
	ret	0
?lGetReplayMessage@CvLuaGame@@KAHPAUlua_State@@@Z ENDP	; CvLuaGame::lGetReplayMessage
_TEXT	ENDS
PUBLIC	?lGetReplayMessages@CvLuaGame@@KAHPAUlua_State@@@Z ; CvLuaGame::lGetReplayMessages
; Function compile flags: /Ogtpy
;	COMDAT ?lGetReplayMessages@CvLuaGame@@KAHPAUlua_State@@@Z
_TEXT	SEGMENT
_j$224244 = -36						; size = 4
_i$224228 = -32						; size = 4
_nPlots$224240 = -28					; size = 4
_game$ = -24						; size = 4
_iPlotX$224248 = -20					; size = 4
_iPlotY$224249 = -16					; size = 4
_plots_idx$224243 = -12					; size = 4
_messages_t$ = -8					; size = 4
_nMessages$ = -4					; size = 4
_L$ = 8							; size = 4
?lGetReplayMessages@CvLuaGame@@KAHPAUlua_State@@@Z PROC	; CvLuaGame::lGetReplayMessages, COMDAT

; 1615 : {

	sub	esp, 36					; 00000024H
	push	ebx
	push	esi
	push	edi

; 1616 : 	CvGame& game = GC.getGame();

	mov	edi, DWORD PTR ?gGlobals@@3VCvGlobals@@A+48

; 1617 : 	const unsigned int nMessages = game.getNumReplayMessages();

	mov	ecx, edi
	mov	DWORD PTR _game$[esp+48], edi
	call	?getNumReplayMessages@CvGame@@QBEIXZ	; CvGame::getNumReplayMessages

; 1618 : 
; 1619 : 	lua_createtable(L, nMessages, 0);

	mov	esi, DWORD PTR _L$[esp+44]
	mov	ebx, eax
	push	0
	push	ebx
	push	esi
	mov	DWORD PTR _nMessages$[esp+60], ebx
	call	_lua_createtable

; 1620 : 	const int messages_t = lua_gettop(L);

	push	esi
	call	_lua_gettop
	add	esp, 16					; 00000010H
	mov	DWORD PTR _messages_t$[esp+48], eax

; 1621 : 	int messages_idx = 1;
; 1622 : 
; 1623 : 	for(unsigned int i = 0; i < nMessages; i++)

	mov	DWORD PTR _i$224228[esp+48], 0
	test	ebx, ebx
	jbe	$LN20@lGetReplay@2
	push	ebp
	jmp	SHORT $LN9@lGetReplay@2
	npad	6
$LL21@lGetReplay@2:
	mov	edi, DWORD PTR _game$[esp+52]
$LN9@lGetReplay@2:

; 1624 : 	{
; 1625 : 		const CvReplayMessage* pMessage = game.getReplayMessage(i);

	mov	eax, DWORD PTR _i$224228[esp+52]
	push	eax
	mov	ecx, edi
	call	?getReplayMessage@CvGame@@QBEPBVCvReplayMessage@@I@Z ; CvGame::getReplayMessage

; 1626 : 
; 1627 : 		lua_createtable(L, 0, 5);

	push	5
	push	0
	push	esi
	mov	edi, eax
	call	_lua_createtable

; 1628 : 		const int t = lua_gettop(L);

	push	esi
	call	_lua_gettop
	add	esp, 16					; 00000010H

; 1629 : 
; 1630 : 		lua_pushinteger(L, pMessage->getPlayer());

	mov	ecx, edi
	mov	ebp, eax
	call	?getPlayer@CvReplayMessage@@QBE?AW4PlayerTypes@@XZ ; CvReplayMessage::getPlayer
	push	eax
	push	esi
	call	_lua_pushinteger

; 1631 : 		lua_setfield(L, t, "Player");

	push	OFFSET $SG224234
	push	ebp
	push	esi
	call	_lua_setfield
	add	esp, 20					; 00000014H

; 1632 : 
; 1633 : 		lua_pushinteger(L, pMessage->getTurn());

	mov	ecx, edi
	call	?getTurn@CvReplayMessage@@QBEHXZ	; CvReplayMessage::getTurn
	push	eax
	push	esi
	call	_lua_pushinteger

; 1634 : 		lua_setfield(L, t, "Turn");

	push	OFFSET $SG224235
	push	ebp
	push	esi
	call	_lua_setfield
	add	esp, 20					; 00000014H

; 1635 : 
; 1636 : 		lua_pushinteger(L, pMessage->getType());

	mov	ecx, edi
	call	?getType@CvReplayMessage@@QBE?AW4ReplayMessageTypes@@XZ ; CvReplayMessage::getType
	push	eax
	push	esi
	call	_lua_pushinteger

; 1637 : 		lua_setfield(L, t, "Type");

	push	OFFSET $SG224236
	push	ebp
	push	esi
	call	_lua_setfield
	add	esp, 20					; 00000014H

; 1638 : 
; 1639 : 		const CvString& text = pMessage->getText();

	mov	ecx, edi
	call	?getText@CvReplayMessage@@QBEABVCvString@@XZ ; CvReplayMessage::getText
	mov	ebx, eax

; 1640 : 		if(text.GetLength() > 0)

	mov	ecx, ebx
	call	DWORD PTR __imp_?size@?$basic_string@DU?$char_traits@D@std@@V?$allocator@D@2@@std@@QBEIXZ
	test	eax, eax
	jle	SHORT $LN6@lGetReplay@2

; 1641 : 		{
; 1642 : 			lua_pushstring(L, text.c_str());

	mov	ecx, ebx
	call	DWORD PTR __imp_?c_str@?$basic_string@DU?$char_traits@D@std@@V?$allocator@D@2@@std@@QBEPBDXZ
	push	eax
	push	esi
	call	_lua_pushstring

; 1643 : 			lua_setfield(L, t, "Text");

	push	OFFSET $SG224239
	push	ebp
	push	esi
	call	_lua_setfield
	add	esp, 20					; 00000014H
$LN6@lGetReplay@2:

; 1644 : 		}
; 1645 : 
; 1646 : 		const unsigned int nPlots = pMessage->getNumPlots();

	mov	ecx, edi
	call	?getNumPlots@CvReplayMessage@@QBEIXZ	; CvReplayMessage::getNumPlots
	mov	DWORD PTR _nPlots$224240[esp+52], eax

; 1647 : 		if(nPlots > 0)

	test	eax, eax
	jbe	$LN5@lGetReplay@2

; 1648 : 		{
; 1649 : 			lua_createtable(L, nPlots, 0);

	push	0
	push	eax
	push	esi
	call	_lua_createtable

; 1650 : 			int idx = 1;
; 1651 : 			int plots_idx = lua_gettop(L);

	push	esi
	mov	ebx, 1
	call	_lua_gettop
	add	esp, 16					; 00000010H

; 1652 : 
; 1653 : 			for(unsigned int j = 0; j < nPlots; j++)

	cmp	DWORD PTR _nPlots$224240[esp+52], 0
	mov	DWORD PTR _plots_idx$224243[esp+52], eax
	mov	DWORD PTR _j$224244[esp+52], 0
	jbe	SHORT $LN2@lGetReplay@2
	npad	2
$LL22@lGetReplay@2:

; 1654 : 			{
; 1655 : 				int iPlotX, iPlotY;
; 1656 : 				if(pMessage->getPlot(j, iPlotX, iPlotY))

	mov	eax, DWORD PTR _j$224244[esp+52]
	lea	ecx, DWORD PTR _iPlotY$224249[esp+52]
	push	ecx
	lea	edx, DWORD PTR _iPlotX$224248[esp+56]
	push	edx
	push	eax
	mov	ecx, edi
	call	?getPlot@CvReplayMessage@@QBE_NIAAH0@Z	; CvReplayMessage::getPlot
	test	al, al
	je	SHORT $LN3@lGetReplay@2

; 1657 : 				{
; 1658 : 					lua_createtable(L, 0, 2);

	push	2
	push	0
	push	esi
	call	_lua_createtable

; 1659 : 					lua_pushinteger(L, iPlotX);

	mov	ecx, DWORD PTR _iPlotX$224248[esp+64]
	push	ecx
	push	esi
	call	_lua_pushinteger

; 1660 : 					lua_setfield(L, -2, "X");

	push	OFFSET $SG224251
	push	-2					; fffffffeH
	push	esi
	call	_lua_setfield

; 1661 : 					lua_pushinteger(L, iPlotY);

	mov	edx, DWORD PTR _iPlotY$224249[esp+84]
	push	edx
	push	esi
	call	_lua_pushinteger

; 1662 : 					lua_setfield(L, -2, "Y");

	push	OFFSET $SG224252
	push	-2					; fffffffeH
	push	esi
	call	_lua_setfield

; 1663 : 					lua_rawseti(L, plots_idx, idx++);

	mov	eax, DWORD PTR _plots_idx$224243[esp+104]
	push	ebx
	push	eax
	push	esi
	call	_lua_rawseti
	add	esp, 64					; 00000040H
	inc	ebx
$LN3@lGetReplay@2:
	mov	eax, DWORD PTR _j$224244[esp+52]
	inc	eax
	mov	DWORD PTR _j$224244[esp+52], eax
	cmp	eax, DWORD PTR _nPlots$224240[esp+52]
	jb	SHORT $LL22@lGetReplay@2
$LN2@lGetReplay@2:

; 1664 : 				}
; 1665 : 			}
; 1666 : 
; 1667 : 			lua_setfield(L, t, "Plots");

	push	OFFSET $SG224253
	push	ebp
	push	esi
	call	_lua_setfield
	add	esp, 12					; 0000000cH
$LN5@lGetReplay@2:

; 1668 : 		}
; 1669 : 
; 1670 : 		lua_rawseti(L, messages_t, messages_idx++);

	mov	edi, DWORD PTR _i$224228[esp+52]
	mov	ecx, DWORD PTR _messages_t$[esp+52]
	inc	edi
	push	edi
	push	ecx
	push	esi
	call	_lua_rawseti
	add	esp, 12					; 0000000cH
	mov	DWORD PTR _i$224228[esp+52], edi
	cmp	edi, DWORD PTR _nMessages$[esp+52]
	jb	$LL21@lGetReplay@2
	pop	ebp
$LN20@lGetReplay@2:
	pop	edi
	pop	esi

; 1671 : 	}
; 1672 : 
; 1673 : 	return 1;

	mov	eax, 1
	pop	ebx

; 1674 : }

	add	esp, 36					; 00000024H
	ret	0
?lGetReplayMessages@CvLuaGame@@KAHPAUlua_State@@@Z ENDP	; CvLuaGame::lGetReplayMessages
_TEXT	ENDS
PUBLIC	?lDoMinorPledgeProtection@CvLuaGame@@KAHPAUlua_State@@@Z ; CvLuaGame::lDoMinorPledgeProtection
EXTRN	?DoMinorPledgeProtection@CvGame@@QAEXW4PlayerTypes@@0_N1@Z:PROC ; CvGame::DoMinorPledgeProtection
; Function compile flags: /Ogtpy
;	COMDAT ?lDoMinorPledgeProtection@CvLuaGame@@KAHPAUlua_State@@@Z
_TEXT	SEGMENT
_bProtect$ = -4						; size = 1
_L$ = 8							; size = 4
?lDoMinorPledgeProtection@CvLuaGame@@KAHPAUlua_State@@@Z PROC ; CvLuaGame::lDoMinorPledgeProtection, COMDAT

; 1751 : {

	push	ecx
	push	ebx
	push	esi

; 1752 : 	const int iMajor = lua_tointeger(L, 1);

	mov	esi, DWORD PTR _L$[esp+8]
	push	edi
	push	1
	push	esi
	call	_lua_tointeger

; 1753 : 	const int iMinor = lua_tointeger(L, 2);

	push	2
	push	esi
	mov	edi, eax
	call	_lua_tointeger

; 1754 : 	const bool bProtect = lua_toboolean(L, 3);

	push	3
	push	esi
	mov	ebx, eax
	call	_lua_toboolean
	add	esp, 24					; 00000018H
	test	eax, eax
	setne	al
	mov	BYTE PTR _bProtect$[esp+16], al

; 1755 : 	GC.getGame().DoMinorPledgeProtection((PlayerTypes)iMajor, (PlayerTypes)iMinor, bProtect);

	mov	ecx, DWORD PTR _bProtect$[esp+16]
	push	0
	push	ecx
	mov	ecx, DWORD PTR ?gGlobals@@3VCvGlobals@@A+48
	push	ebx
	push	edi
	call	?DoMinorPledgeProtection@CvGame@@QAEXW4PlayerTypes@@0_N1@Z ; CvGame::DoMinorPledgeProtection
	pop	edi
	pop	esi

; 1756 : 
; 1757 : 	return 1;

	mov	eax, 1
	pop	ebx

; 1758 : }

	pop	ecx
	ret	0
?lDoMinorPledgeProtection@CvLuaGame@@KAHPAUlua_State@@@Z ENDP ; CvLuaGame::lDoMinorPledgeProtection
_TEXT	ENDS
PUBLIC	?lDoMinorBullyGold@CvLuaGame@@KAHPAUlua_State@@@Z ; CvLuaGame::lDoMinorBullyGold
EXTRN	?DoMinorBullyGold@CvGame@@QAEXW4PlayerTypes@@0@Z:PROC ; CvGame::DoMinorBullyGold
; Function compile flags: /Ogtpy
;	COMDAT ?lDoMinorBullyGold@CvLuaGame@@KAHPAUlua_State@@@Z
_TEXT	SEGMENT
_L$ = 8							; size = 4
?lDoMinorBullyGold@CvLuaGame@@KAHPAUlua_State@@@Z PROC	; CvLuaGame::lDoMinorBullyGold, COMDAT

; 1781 : {

	push	esi

; 1782 : 	const int iBully = lua_tointeger(L, 1);

	mov	esi, DWORD PTR _L$[esp]
	push	edi
	push	1
	push	esi
	call	_lua_tointeger

; 1783 : 	const int iMinor = lua_tointeger(L, 2);

	push	2
	push	esi
	mov	edi, eax
	call	_lua_tointeger

; 1784 : 	GC.getGame().DoMinorBullyGold((PlayerTypes)iBully, (PlayerTypes)iMinor);

	mov	ecx, DWORD PTR ?gGlobals@@3VCvGlobals@@A+48
	add	esp, 16					; 00000010H
	push	eax
	push	edi
	call	?DoMinorBullyGold@CvGame@@QAEXW4PlayerTypes@@0@Z ; CvGame::DoMinorBullyGold
	pop	edi

; 1785 : 
; 1786 : 	return 1;

	mov	eax, 1
	pop	esi

; 1787 : }

	ret	0
?lDoMinorBullyGold@CvLuaGame@@KAHPAUlua_State@@@Z ENDP	; CvLuaGame::lDoMinorBullyGold
_TEXT	ENDS
PUBLIC	?lDoMinorBullyUnit@CvLuaGame@@KAHPAUlua_State@@@Z ; CvLuaGame::lDoMinorBullyUnit
EXTRN	?DoMinorBullyUnit@CvGame@@QAEXW4PlayerTypes@@0@Z:PROC ; CvGame::DoMinorBullyUnit
; Function compile flags: /Ogtpy
;	COMDAT ?lDoMinorBullyUnit@CvLuaGame@@KAHPAUlua_State@@@Z
_TEXT	SEGMENT
_L$ = 8							; size = 4
?lDoMinorBullyUnit@CvLuaGame@@KAHPAUlua_State@@@Z PROC	; CvLuaGame::lDoMinorBullyUnit, COMDAT

; 1791 : {

	push	esi

; 1792 : 	const int iBully = lua_tointeger(L, 1);

	mov	esi, DWORD PTR _L$[esp]
	push	edi
	push	1
	push	esi
	call	_lua_tointeger

; 1793 : 	const int iMinor = lua_tointeger(L, 2);

	push	2
	push	esi
	mov	edi, eax
	call	_lua_tointeger

; 1794 : 	GC.getGame().DoMinorBullyUnit((PlayerTypes)iBully, (PlayerTypes)iMinor);

	mov	ecx, DWORD PTR ?gGlobals@@3VCvGlobals@@A+48
	add	esp, 16					; 00000010H
	push	eax
	push	edi
	call	?DoMinorBullyUnit@CvGame@@QAEXW4PlayerTypes@@0@Z ; CvGame::DoMinorBullyUnit
	pop	edi

; 1795 : 
; 1796 : 	return 1;

	mov	eax, 1
	pop	esi

; 1797 : }

	ret	0
?lDoMinorBullyUnit@CvLuaGame@@KAHPAUlua_State@@@Z ENDP	; CvLuaGame::lDoMinorBullyUnit
_TEXT	ENDS
PUBLIC	?lDoMinorBuyout@CvLuaGame@@KAHPAUlua_State@@@Z	; CvLuaGame::lDoMinorBuyout
EXTRN	?DoMinorBuyout@CvGame@@QAEXW4PlayerTypes@@0@Z:PROC ; CvGame::DoMinorBuyout
; Function compile flags: /Ogtpy
;	COMDAT ?lDoMinorBuyout@CvLuaGame@@KAHPAUlua_State@@@Z
_TEXT	SEGMENT
_L$ = 8							; size = 4
?lDoMinorBuyout@CvLuaGame@@KAHPAUlua_State@@@Z PROC	; CvLuaGame::lDoMinorBuyout, COMDAT

; 1801 : {

	push	esi

; 1802 : 	const int iMajor = lua_tointeger(L, 1);

	mov	esi, DWORD PTR _L$[esp]
	push	edi
	push	1
	push	esi
	call	_lua_tointeger

; 1803 : 	const int iMinor = lua_tointeger(L, 2);

	push	2
	push	esi
	mov	edi, eax
	call	_lua_tointeger

; 1804 : 	GC.getGame().DoMinorBuyout((PlayerTypes)iMajor, (PlayerTypes)iMinor);

	mov	ecx, DWORD PTR ?gGlobals@@3VCvGlobals@@A+48
	add	esp, 16					; 00000010H
	push	eax
	push	edi
	call	?DoMinorBuyout@CvGame@@QAEXW4PlayerTypes@@0@Z ; CvGame::DoMinorBuyout
	pop	edi

; 1805 : 
; 1806 : 	return 1;

	mov	eax, 1
	pop	esi

; 1807 : }

	ret	0
?lDoMinorBuyout@CvLuaGame@@KAHPAUlua_State@@@Z ENDP	; CvLuaGame::lDoMinorBuyout
_TEXT	ENDS
PUBLIC	?lGameplayDiplomacyAILeaderMessage@CvLuaGame@@KAHPAUlua_State@@@Z ; CvLuaGame::lGameplayDiplomacyAILeaderMessage
; Function compile flags: /Ogtpy
;	COMDAT ?lGameplayDiplomacyAILeaderMessage@CvLuaGame@@KAHPAUlua_State@@@Z
_TEXT	SEGMENT
_L$ = 8							; size = 4
?lGameplayDiplomacyAILeaderMessage@CvLuaGame@@KAHPAUlua_State@@@Z PROC ; CvLuaGame::lGameplayDiplomacyAILeaderMessage, COMDAT

; 1833 : {

	push	ebx
	push	esi

; 1834 : 	const int iPlayer = lua_tointeger(L, 1);

	mov	esi, DWORD PTR _L$[esp+4]
	push	edi
	push	1
	push	esi
	call	_lua_tointeger

; 1835 : 	const int eMessage = lua_tointeger(L, 2);

	push	2
	push	esi
	mov	edi, eax
	call	_lua_tointeger

; 1836 : 	const int iData1 = lua_tointeger(L, 3);

	push	3
	push	esi
	mov	ebx, eax
	call	_lua_tointeger

; 1837 : 	gDLL->GameplayDiplomacyAILeaderMessage((PlayerTypes) iPlayer, DIPLO_UI_STATE_DEFAULT_ROOT, "TEMP", (LeaderheadAnimationTypes) eMessage, iData1);

	mov	ecx, DWORD PTR ?gGlobals@@3VCvGlobals@@A+8596
	mov	edx, DWORD PTR [ecx]
	add	esp, 24					; 00000018H
	push	eax
	mov	eax, DWORD PTR [edx+736]
	push	ebx
	push	OFFSET $SG224781
	push	0
	push	edi
	call	eax
	pop	edi
	pop	esi

; 1838 : 
; 1839 : 	return 1;

	mov	eax, 1
	pop	ebx

; 1840 : }

	ret	0
?lGameplayDiplomacyAILeaderMessage@CvLuaGame@@KAHPAUlua_State@@@Z ENDP ; CvLuaGame::lGameplayDiplomacyAILeaderMessage
_TEXT	ENDS
PUBLIC	?lIsCombatWarned@CvLuaGame@@KAHPAUlua_State@@@Z	; CvLuaGame::lIsCombatWarned
EXTRN	?IsCombatWarned@CvGame@@QBE_NXZ:PROC		; CvGame::IsCombatWarned
; Function compile flags: /Ogtpy
;	COMDAT ?lIsCombatWarned@CvLuaGame@@KAHPAUlua_State@@@Z
_TEXT	SEGMENT
_L$ = 8							; size = 4
?lIsCombatWarned@CvLuaGame@@KAHPAUlua_State@@@Z PROC	; CvLuaGame::lIsCombatWarned, COMDAT

; 1898 : 	lua_pushboolean(L, GC.getGame().IsCombatWarned());

	mov	ecx, DWORD PTR ?gGlobals@@3VCvGlobals@@A+48
	call	?IsCombatWarned@CvGame@@QBE_NXZ		; CvGame::IsCombatWarned
	mov	ecx, DWORD PTR _L$[esp-4]
	movzx	eax, al
	push	eax
	push	ecx
	call	_lua_pushboolean
	add	esp, 8

; 1899 : 	return 1;

	mov	eax, 1

; 1900 : }

	ret	0
?lIsCombatWarned@CvLuaGame@@KAHPAUlua_State@@@Z ENDP	; CvLuaGame::lIsCombatWarned
_TEXT	ENDS
PUBLIC	?lSetCombatWarned@CvLuaGame@@KAHPAUlua_State@@@Z ; CvLuaGame::lSetCombatWarned
EXTRN	?SetCombatWarned@CvGame@@QAEX_N@Z:PROC		; CvGame::SetCombatWarned
; Function compile flags: /Ogtpy
;	COMDAT ?lSetCombatWarned@CvLuaGame@@KAHPAUlua_State@@@Z
_TEXT	SEGMENT
_L$ = 8							; size = 4
?lSetCombatWarned@CvLuaGame@@KAHPAUlua_State@@@Z PROC	; CvLuaGame::lSetCombatWarned, COMDAT

; 1905 : 	GC.getGame().SetCombatWarned(lua_toboolean(L, 1));

	mov	eax, DWORD PTR _L$[esp-4]
	push	esi
	mov	esi, DWORD PTR ?gGlobals@@3VCvGlobals@@A+48
	push	1
	push	eax
	call	_lua_toboolean
	add	esp, 8
	test	eax, eax
	setne	cl
	movzx	edx, cl
	push	edx
	mov	ecx, esi
	call	?SetCombatWarned@CvGame@@QAEX_N@Z	; CvGame::SetCombatWarned

; 1906 : 	return 1;

	mov	eax, 1
	pop	esi

; 1907 : }

	ret	0
?lSetCombatWarned@CvLuaGame@@KAHPAUlua_State@@@Z ENDP	; CvLuaGame::lSetCombatWarned
_TEXT	ENDS
PUBLIC	?lGetAdvisorCounsel@CvLuaGame@@KAHPAUlua_State@@@Z ; CvLuaGame::lGetAdvisorCounsel
EXTRN	?BuildCounselList@CvAdvisorCounsel@@QAEXW4PlayerTypes@@@Z:PROC ; CvAdvisorCounsel::BuildCounselList
EXTRN	?GetAdvisorCounsel@CvGame@@QAEPAVCvAdvisorCounsel@@XZ:PROC ; CvGame::GetAdvisorCounsel
EXTRN	?getActivePlayer@CvGame@@QBE?AW4PlayerTypes@@XZ:PROC ; CvGame::getActivePlayer
; Function compile flags: /Ogtpy
;	COMDAT ?lGetAdvisorCounsel@CvLuaGame@@KAHPAUlua_State@@@Z
_TEXT	SEGMENT
_bTableOpen$ = -13					; size = 1
_ui$224830 = -12					; size = 4
_eCurrentAdvisorType$ = -8				; size = 4
_iTopLevelLua$ = -4					; size = 4
_L$ = 8							; size = 4
?lGetAdvisorCounsel@CvLuaGame@@KAHPAUlua_State@@@Z PROC	; CvLuaGame::lGetAdvisorCounsel, COMDAT

; 1911 : {

	sub	esp, 16					; 00000010H

; 1912 : 	const PlayerTypes ePlayer = GC.getGame().getActivePlayer();

	mov	ecx, DWORD PTR ?gGlobals@@3VCvGlobals@@A+48
	push	ebx
	push	ebp
	push	esi
	push	edi
	call	?getActivePlayer@CvGame@@QBE?AW4PlayerTypes@@XZ ; CvGame::getActivePlayer

; 1913 : 	GC.getGame().GetAdvisorCounsel()->BuildCounselList(ePlayer);

	mov	ecx, DWORD PTR ?gGlobals@@3VCvGlobals@@A+48
	push	eax
	call	?GetAdvisorCounsel@CvGame@@QAEPAVCvAdvisorCounsel@@XZ ; CvGame::GetAdvisorCounsel
	mov	ecx, eax
	call	?BuildCounselList@CvAdvisorCounsel@@QAEXW4PlayerTypes@@@Z ; CvAdvisorCounsel::BuildCounselList

; 1914 : 	lua_createtable(L, 0, 0);

	mov	esi, DWORD PTR _L$[esp+28]
	xor	ebx, ebx
	push	ebx
	push	ebx
	push	esi
	call	_lua_createtable

; 1915 : 	int iTopLevelLua = lua_gettop(L);

	push	esi
	call	_lua_gettop

; 1916 : 
; 1917 : 	AdvisorTypes eCurrentAdvisorType = NUM_ADVISOR_TYPES;
; 1918 : 	int iAdvisorTableLevel = -1;
; 1919 : 	int iAdvisorIndex = 0;
; 1920 : 	bool bTableOpen = false;
; 1921 : 	for(uint ui = 0; ui < GC.getGame().GetAdvisorCounsel()->m_aCounsel.size(); ui++)

	mov	ecx, DWORD PTR ?gGlobals@@3VCvGlobals@@A+48
	add	esp, 16					; 00000010H
	mov	DWORD PTR _iTopLevelLua$[esp+32], eax
	mov	DWORD PTR _eCurrentAdvisorType$[esp+32], 4
	or	ebp, -1
	xor	edi, edi
	mov	BYTE PTR _bTableOpen$[esp+32], bl
	mov	DWORD PTR _ui$224830[esp+32], ebx
	call	?GetAdvisorCounsel@CvGame@@QAEPAVCvAdvisorCounsel@@XZ ; CvGame::GetAdvisorCounsel
	cmp	DWORD PTR [eax+4], ebx
	jbe	$LN34@lGetAdviso
	npad	7
$LL7@lGetAdviso:

; 1922 : 	{
; 1923 : 		if(GC.getGame().GetAdvisorCounsel()->m_aCounsel[ui].m_eAdvisor != eCurrentAdvisorType)

	mov	ecx, DWORD PTR ?gGlobals@@3VCvGlobals@@A+48
	call	?GetAdvisorCounsel@CvGame@@QAEPAVCvAdvisorCounsel@@XZ ; CvGame::GetAdvisorCounsel
	mov	ecx, DWORD PTR [eax]
	mov	eax, DWORD PTR _eCurrentAdvisorType$[esp+32]
	cmp	DWORD PTR [ebx+ecx], eax
	je	SHORT $LN4@lGetAdviso

; 1924 : 		{
; 1925 : 			// close out previous table
; 1926 : 			if(eCurrentAdvisorType != NUM_ADVISOR_TYPES)

	cmp	eax, 4
	je	SHORT $LN35@lGetAdviso

; 1927 : 			{
; 1928 : 				CvAssertMsg(bTableOpen, "Table should be open");
; 1929 : 				lua_rawseti(L, iTopLevelLua, eCurrentAdvisorType);

	mov	edx, DWORD PTR _iTopLevelLua$[esp+32]
	push	eax
	push	edx
	push	esi
	call	_lua_rawseti
	add	esp, 12					; 0000000cH

; 1930 : 				bTableOpen = false;

	mov	BYTE PTR _bTableOpen$[esp+32], 0
$LN35@lGetAdviso:

; 1931 : 			}
; 1932 : 
; 1933 : 			AdvisorTypes eNextAdvisorType = GC.getGame().GetAdvisorCounsel()->m_aCounsel[ui].m_eAdvisor;

	mov	ecx, DWORD PTR ?gGlobals@@3VCvGlobals@@A+48
	call	?GetAdvisorCounsel@CvGame@@QAEPAVCvAdvisorCounsel@@XZ ; CvGame::GetAdvisorCounsel
	mov	eax, DWORD PTR [eax]
	mov	eax, DWORD PTR [ebx+eax]

; 1934 : 			if(eNextAdvisorType == NO_ADVISOR_TYPE)

	cmp	eax, -1
	je	SHORT $LN31@lGetAdviso

; 1935 : 			{
; 1936 : 				// no more valid advisor info. Bail out!
; 1937 : 				break;
; 1938 : 			}
; 1939 : 			eCurrentAdvisorType = eNextAdvisorType;
; 1940 : 			CvAssertMsg(!bTableOpen, "table should be open");
; 1941 : 			lua_createtable(L, 0, 0);

	push	0
	push	0
	push	esi
	mov	DWORD PTR _eCurrentAdvisorType$[esp+44], eax
	call	_lua_createtable

; 1942 : 			bTableOpen = true;
; 1943 : 			iAdvisorTableLevel = lua_gettop(L);

	push	esi
	mov	BYTE PTR _bTableOpen$[esp+48], 1
	call	_lua_gettop
	add	esp, 16					; 00000010H
	mov	ebp, eax

; 1944 : 			iAdvisorIndex = 0;

	xor	edi, edi
$LN4@lGetAdviso:

; 1945 : 		}
; 1946 : 
; 1947 : 		CvAssertMsg(bTableOpen, "Table should be open");
; 1948 : 		lua_pushstring(L, GC.getGame().GetAdvisorCounsel()->m_aCounsel[ui].m_strTxtKey);

	mov	ecx, DWORD PTR ?gGlobals@@3VCvGlobals@@A+48
	call	?GetAdvisorCounsel@CvGame@@QAEPAVCvAdvisorCounsel@@XZ ; CvGame::GetAdvisorCounsel
	mov	ecx, DWORD PTR [eax]
	lea	edx, DWORD PTR [ecx+ebx+4]
	push	edx
	push	esi
	call	_lua_pushstring

; 1949 : 		lua_rawseti(L, iAdvisorTableLevel, iAdvisorIndex);

	push	edi
	push	ebp
	push	esi
	call	_lua_rawseti
	mov	ecx, DWORD PTR ?gGlobals@@3VCvGlobals@@A+48
	inc	DWORD PTR _ui$224830[esp+52]
	add	esp, 20					; 00000014H

; 1950 : 		iAdvisorIndex++;

	inc	edi
	add	ebx, 520				; 00000208H
	call	?GetAdvisorCounsel@CvGame@@QAEPAVCvAdvisorCounsel@@XZ ; CvGame::GetAdvisorCounsel
	mov	ecx, DWORD PTR _ui$224830[esp+32]
	cmp	ecx, DWORD PTR [eax+4]
	jb	$LL7@lGetAdviso
$LN31@lGetAdviso:

; 1951 : 	}
; 1952 : 
; 1953 : 	if(bTableOpen)

	cmp	BYTE PTR _bTableOpen$[esp+32], 0
	je	SHORT $LN34@lGetAdviso

; 1954 : 	{
; 1955 : 		lua_rawseti(L, iTopLevelLua, eCurrentAdvisorType);

	mov	edx, DWORD PTR _eCurrentAdvisorType$[esp+32]
	mov	eax, DWORD PTR _iTopLevelLua$[esp+32]
	push	edx
	push	eax
	push	esi
	call	_lua_rawseti
	add	esp, 12					; 0000000cH
$LN34@lGetAdviso:
	pop	edi
	pop	esi
	pop	ebp

; 1956 : 	}
; 1957 : 
; 1958 : 	return 1;

	mov	eax, 1
	pop	ebx

; 1959 : }

	add	esp, 16					; 00000010H
	ret	0
?lGetAdvisorCounsel@CvLuaGame@@KAHPAUlua_State@@@Z ENDP	; CvLuaGame::lGetAdvisorCounsel
_TEXT	ENDS
PUBLIC	?lSetAdvisorRecommenderCity@CvLuaGame@@KAHPAUlua_State@@@Z ; CvLuaGame::lSetAdvisorRecommenderCity
EXTRN	?UpdateCityRecommendations@CvAdvisorRecommender@@QAEXPAVCvCity@@@Z:PROC ; CvAdvisorRecommender::UpdateCityRecommendations
EXTRN	?GetAdvisorRecommender@CvGame@@QAEPAVCvAdvisorRecommender@@XZ:PROC ; CvGame::GetAdvisorRecommender
; Function compile flags: /Ogtpy
;	COMDAT ?lSetAdvisorRecommenderCity@CvLuaGame@@KAHPAUlua_State@@@Z
_TEXT	SEGMENT
_L$ = 8							; size = 4
?lSetAdvisorRecommenderCity@CvLuaGame@@KAHPAUlua_State@@@Z PROC ; CvLuaGame::lSetAdvisorRecommenderCity, COMDAT

; 1963 : {

	push	ebx
	push	ebp
	push	esi

; 1964 : 	CvCity* pkCity = CvLuaCity::GetInstance(L, 1);

	mov	esi, DWORD PTR _L$[esp+8]
	push	edi
	push	esi
	call	_lua_gettop
	push	1
	push	esi
	mov	ebp, eax
	mov	bl, 1
	xor	edi, edi
	call	_lua_type
	add	esp, 12					; 0000000cH
	cmp	eax, 5
	jne	SHORT $LN5@lSetAdviso
	push	OFFSET $SG226177
	push	1
	push	esi
	call	_lua_getfield
	push	-1
	push	esi
	call	_lua_type
	add	esp, 20					; 00000014H
	cmp	eax, 2
	jne	SHORT $LN5@lSetAdviso
	push	-1
	push	esi
	call	_lua_touserdata
	mov	edi, eax
	add	esp, 8
	test	edi, edi
	je	SHORT $LN5@lSetAdviso
	xor	bl, bl
$LN5@lSetAdviso:
	push	ebp
	push	esi
	call	_lua_settop
	add	esp, 8
	test	bl, bl
	je	SHORT $LN4@lSetAdviso
	push	OFFSET $SG226183
	push	esi
	call	_luaL_error
	push	esi
	call	?HandleMissingInstance@CvLuaCity@@SAXPAUlua_State@@@Z ; CvLuaCity::HandleMissingInstance
	add	esp, 12					; 0000000cH
$LN4@lSetAdviso:

; 1965 : 	GC.getGame().GetAdvisorRecommender()->UpdateCityRecommendations(pkCity);

	mov	ecx, DWORD PTR ?gGlobals@@3VCvGlobals@@A+48
	push	edi
	call	?GetAdvisorRecommender@CvGame@@QAEPAVCvAdvisorRecommender@@XZ ; CvGame::GetAdvisorRecommender
	mov	ecx, eax
	call	?UpdateCityRecommendations@CvAdvisorRecommender@@QAEXPAVCvCity@@@Z ; CvAdvisorRecommender::UpdateCityRecommendations
	pop	edi
	pop	esi
	pop	ebp

; 1966 : 	return 1;

	mov	eax, 1
	pop	ebx

; 1967 : }

	ret	0
?lSetAdvisorRecommenderCity@CvLuaGame@@KAHPAUlua_State@@@Z ENDP ; CvLuaGame::lSetAdvisorRecommenderCity
_TEXT	ENDS
PUBLIC	?lIsUnitRecommended@CvLuaGame@@KAHPAUlua_State@@@Z ; CvLuaGame::lIsUnitRecommended
EXTRN	?IsUnitRecommended@CvAdvisorRecommender@@QAE_NW4UnitTypes@@W4AdvisorTypes@@@Z:PROC ; CvAdvisorRecommender::IsUnitRecommended
; Function compile flags: /Ogtpy
;	COMDAT ?lIsUnitRecommended@CvLuaGame@@KAHPAUlua_State@@@Z
_TEXT	SEGMENT
_L$ = 8							; size = 4
?lIsUnitRecommended@CvLuaGame@@KAHPAUlua_State@@@Z PROC	; CvLuaGame::lIsUnitRecommended, COMDAT

; 1971 : {

	push	esi

; 1972 : 	UnitTypes eUnit = (UnitTypes)lua_tointeger(L, 1);

	mov	esi, DWORD PTR _L$[esp]
	push	edi
	push	1
	push	esi
	call	_lua_tointeger

; 1973 : 	AdvisorTypes eAdvisor = (AdvisorTypes)lua_tointeger(L, 2);

	push	2
	push	esi
	mov	edi, eax
	call	_lua_tointeger

; 1974 : 	bool bResult = GC.getGame().GetAdvisorRecommender()->IsUnitRecommended(eUnit, eAdvisor);

	mov	ecx, DWORD PTR ?gGlobals@@3VCvGlobals@@A+48
	add	esp, 16					; 00000010H
	push	eax
	push	edi
	call	?GetAdvisorRecommender@CvGame@@QAEPAVCvAdvisorRecommender@@XZ ; CvGame::GetAdvisorRecommender
	mov	ecx, eax
	call	?IsUnitRecommended@CvAdvisorRecommender@@QAE_NW4UnitTypes@@W4AdvisorTypes@@@Z ; CvAdvisorRecommender::IsUnitRecommended

; 1975 : 	lua_pushboolean(L, bResult);

	movzx	eax, al
	push	eax
	push	esi
	call	_lua_pushboolean
	add	esp, 8
	pop	edi

; 1976 : 	return 1;

	mov	eax, 1
	pop	esi

; 1977 : }

	ret	0
?lIsUnitRecommended@CvLuaGame@@KAHPAUlua_State@@@Z ENDP	; CvLuaGame::lIsUnitRecommended
_TEXT	ENDS
PUBLIC	?lIsBuildingRecommended@CvLuaGame@@KAHPAUlua_State@@@Z ; CvLuaGame::lIsBuildingRecommended
EXTRN	?IsBuildingRecommended@CvAdvisorRecommender@@QAE_NW4BuildingTypes@@W4AdvisorTypes@@@Z:PROC ; CvAdvisorRecommender::IsBuildingRecommended
; Function compile flags: /Ogtpy
;	COMDAT ?lIsBuildingRecommended@CvLuaGame@@KAHPAUlua_State@@@Z
_TEXT	SEGMENT
_L$ = 8							; size = 4
?lIsBuildingRecommended@CvLuaGame@@KAHPAUlua_State@@@Z PROC ; CvLuaGame::lIsBuildingRecommended, COMDAT

; 1981 : {

	push	esi

; 1982 : 	BuildingTypes eBuilding = (BuildingTypes)lua_tointeger(L, 1);

	mov	esi, DWORD PTR _L$[esp]
	push	edi
	push	1
	push	esi
	call	_lua_tointeger

; 1983 : 	AdvisorTypes eAdvisor = (AdvisorTypes)lua_tointeger(L, 2);

	push	2
	push	esi
	mov	edi, eax
	call	_lua_tointeger

; 1984 : 	bool bResult = GC.getGame().GetAdvisorRecommender()->IsBuildingRecommended(eBuilding, eAdvisor);

	mov	ecx, DWORD PTR ?gGlobals@@3VCvGlobals@@A+48
	add	esp, 16					; 00000010H
	push	eax
	push	edi
	call	?GetAdvisorRecommender@CvGame@@QAEPAVCvAdvisorRecommender@@XZ ; CvGame::GetAdvisorRecommender
	mov	ecx, eax
	call	?IsBuildingRecommended@CvAdvisorRecommender@@QAE_NW4BuildingTypes@@W4AdvisorTypes@@@Z ; CvAdvisorRecommender::IsBuildingRecommended

; 1985 : 	lua_pushboolean(L, bResult);

	movzx	eax, al
	push	eax
	push	esi
	call	_lua_pushboolean
	add	esp, 8
	pop	edi

; 1986 : 	return 1;

	mov	eax, 1
	pop	esi

; 1987 : }

	ret	0
?lIsBuildingRecommended@CvLuaGame@@KAHPAUlua_State@@@Z ENDP ; CvLuaGame::lIsBuildingRecommended
_TEXT	ENDS
PUBLIC	?lIsProjectRecommended@CvLuaGame@@KAHPAUlua_State@@@Z ; CvLuaGame::lIsProjectRecommended
EXTRN	?IsProjectRecommended@CvAdvisorRecommender@@QAE_NW4ProjectTypes@@W4AdvisorTypes@@@Z:PROC ; CvAdvisorRecommender::IsProjectRecommended
; Function compile flags: /Ogtpy
;	COMDAT ?lIsProjectRecommended@CvLuaGame@@KAHPAUlua_State@@@Z
_TEXT	SEGMENT
_L$ = 8							; size = 4
?lIsProjectRecommended@CvLuaGame@@KAHPAUlua_State@@@Z PROC ; CvLuaGame::lIsProjectRecommended, COMDAT

; 1991 : {

	push	esi

; 1992 : 	ProjectTypes eProject = (ProjectTypes)lua_tointeger(L, 1);

	mov	esi, DWORD PTR _L$[esp]
	push	edi
	push	1
	push	esi
	call	_lua_tointeger

; 1993 : 	AdvisorTypes eAdvisor = (AdvisorTypes)lua_tointeger(L, 2);

	push	2
	push	esi
	mov	edi, eax
	call	_lua_tointeger

; 1994 : 	bool bResult = GC.getGame().GetAdvisorRecommender()->IsProjectRecommended(eProject, eAdvisor);

	mov	ecx, DWORD PTR ?gGlobals@@3VCvGlobals@@A+48
	add	esp, 16					; 00000010H
	push	eax
	push	edi
	call	?GetAdvisorRecommender@CvGame@@QAEPAVCvAdvisorRecommender@@XZ ; CvGame::GetAdvisorRecommender
	mov	ecx, eax
	call	?IsProjectRecommended@CvAdvisorRecommender@@QAE_NW4ProjectTypes@@W4AdvisorTypes@@@Z ; CvAdvisorRecommender::IsProjectRecommended

; 1995 : 	lua_pushboolean(L, bResult);

	movzx	eax, al
	push	eax
	push	esi
	call	_lua_pushboolean
	add	esp, 8
	pop	edi

; 1996 : 	return 1;

	mov	eax, 1
	pop	esi

; 1997 : }

	ret	0
?lIsProjectRecommended@CvLuaGame@@KAHPAUlua_State@@@Z ENDP ; CvLuaGame::lIsProjectRecommended
_TEXT	ENDS
PUBLIC	?lSetAdvisorRecommenderTech@CvLuaGame@@KAHPAUlua_State@@@Z ; CvLuaGame::lSetAdvisorRecommenderTech
EXTRN	?UpdateTechRecommendations@CvAdvisorRecommender@@QAEXW4PlayerTypes@@@Z:PROC ; CvAdvisorRecommender::UpdateTechRecommendations
; Function compile flags: /Ogtpy
;	COMDAT ?lSetAdvisorRecommenderTech@CvLuaGame@@KAHPAUlua_State@@@Z
_TEXT	SEGMENT
_L$ = 8							; size = 4
?lSetAdvisorRecommenderTech@CvLuaGame@@KAHPAUlua_State@@@Z PROC ; CvLuaGame::lSetAdvisorRecommenderTech, COMDAT

; 2002 : 	PlayerTypes ePlayer = (PlayerTypes)lua_tointeger(L, 1);

	mov	eax, DWORD PTR _L$[esp-4]
	push	1
	push	eax
	call	_lua_tointeger

; 2003 : 	GC.getGame().GetAdvisorRecommender()->UpdateTechRecommendations(ePlayer);

	mov	ecx, DWORD PTR ?gGlobals@@3VCvGlobals@@A+48
	add	esp, 8
	push	eax
	call	?GetAdvisorRecommender@CvGame@@QAEPAVCvAdvisorRecommender@@XZ ; CvGame::GetAdvisorRecommender
	mov	ecx, eax
	call	?UpdateTechRecommendations@CvAdvisorRecommender@@QAEXW4PlayerTypes@@@Z ; CvAdvisorRecommender::UpdateTechRecommendations

; 2004 : 	return 1;

	mov	eax, 1

; 2005 : }

	ret	0
?lSetAdvisorRecommenderTech@CvLuaGame@@KAHPAUlua_State@@@Z ENDP ; CvLuaGame::lSetAdvisorRecommenderTech
_TEXT	ENDS
PUBLIC	?lIsTechRecommended@CvLuaGame@@KAHPAUlua_State@@@Z ; CvLuaGame::lIsTechRecommended
EXTRN	?IsTechRecommended@CvAdvisorRecommender@@QAE_NW4TechTypes@@W4AdvisorTypes@@@Z:PROC ; CvAdvisorRecommender::IsTechRecommended
; Function compile flags: /Ogtpy
;	COMDAT ?lIsTechRecommended@CvLuaGame@@KAHPAUlua_State@@@Z
_TEXT	SEGMENT
_L$ = 8							; size = 4
?lIsTechRecommended@CvLuaGame@@KAHPAUlua_State@@@Z PROC	; CvLuaGame::lIsTechRecommended, COMDAT

; 2009 : {

	push	esi

; 2010 : 	TechTypes eTech = (TechTypes)lua_tointeger(L, 1);

	mov	esi, DWORD PTR _L$[esp]
	push	edi
	push	1
	push	esi
	call	_lua_tointeger

; 2011 : 	AdvisorTypes eAdvisor = (AdvisorTypes)lua_tointeger(L, 2);

	push	2
	push	esi
	mov	edi, eax
	call	_lua_tointeger

; 2012 : 	bool bResult = GC.getGame().GetAdvisorRecommender()->IsTechRecommended(eTech, eAdvisor);

	mov	ecx, DWORD PTR ?gGlobals@@3VCvGlobals@@A+48
	add	esp, 16					; 00000010H
	push	eax
	push	edi
	call	?GetAdvisorRecommender@CvGame@@QAEPAVCvAdvisorRecommender@@XZ ; CvGame::GetAdvisorRecommender
	mov	ecx, eax
	call	?IsTechRecommended@CvAdvisorRecommender@@QAE_NW4TechTypes@@W4AdvisorTypes@@@Z ; CvAdvisorRecommender::IsTechRecommended

; 2013 : 	lua_pushboolean(L, bResult);

	movzx	eax, al
	push	eax
	push	esi
	call	_lua_pushboolean
	add	esp, 8
	pop	edi

; 2014 : 	return 1;

	mov	eax, 1
	pop	esi

; 2015 : }

	ret	0
?lIsTechRecommended@CvLuaGame@@KAHPAUlua_State@@@Z ENDP	; CvLuaGame::lIsTechRecommended
_TEXT	ENDS
PUBLIC	?lGetVariableCitySizeFromPopulation@CvLuaGame@@KAHPAUlua_State@@@Z ; CvLuaGame::lGetVariableCitySizeFromPopulation
EXTRN	?GetVariableCitySizeFromPopulation@CvGame@@QAEII@Z:PROC ; CvGame::GetVariableCitySizeFromPopulation
; Function compile flags: /Ogtpy
;	COMDAT ?lGetVariableCitySizeFromPopulation@CvLuaGame@@KAHPAUlua_State@@@Z
_TEXT	SEGMENT
_L$ = 8							; size = 4
?lGetVariableCitySizeFromPopulation@CvLuaGame@@KAHPAUlua_State@@@Z PROC ; CvLuaGame::lGetVariableCitySizeFromPopulation, COMDAT

; 2018 : {

	push	esi

; 2019 : 	unsigned int nPopulation = (unsigned int)lua_tointeger(L, 1);

	mov	esi, DWORD PTR _L$[esp]
	push	1
	push	esi
	call	_lua_tointeger

; 2020 : 	unsigned int nSize = GC.getGame().GetVariableCitySizeFromPopulation(nPopulation);

	mov	ecx, DWORD PTR ?gGlobals@@3VCvGlobals@@A+48
	add	esp, 8
	push	eax
	call	?GetVariableCitySizeFromPopulation@CvGame@@QAEII@Z ; CvGame::GetVariableCitySizeFromPopulation

; 2021 : 	lua_pushinteger(L, nSize);

	push	eax
	push	esi
	call	_lua_pushinteger
	add	esp, 8

; 2022 : 
; 2023 : 	return 1;

	mov	eax, 1
	pop	esi

; 2024 : }

	ret	0
?lGetVariableCitySizeFromPopulation@CvLuaGame@@KAHPAUlua_State@@@Z ENDP ; CvLuaGame::lGetVariableCitySizeFromPopulation
_TEXT	ENDS
PUBLIC	?lGetResearchAgreementCost@CvLuaGame@@KAHPAUlua_State@@@Z ; CvLuaGame::lGetResearchAgreementCost
EXTRN	?GetResearchAgreementCost@CvGame@@QAEHW4PlayerTypes@@0@Z:PROC ; CvGame::GetResearchAgreementCost
; Function compile flags: /Ogtpy
;	COMDAT ?lGetResearchAgreementCost@CvLuaGame@@KAHPAUlua_State@@@Z
_TEXT	SEGMENT
_L$ = 8							; size = 4
?lGetResearchAgreementCost@CvLuaGame@@KAHPAUlua_State@@@Z PROC ; CvLuaGame::lGetResearchAgreementCost, COMDAT

; 2027 : {

	push	esi

; 2028 : 	const PlayerTypes ePlayer1 = (PlayerTypes) lua_tointeger(L, 1);

	mov	esi, DWORD PTR _L$[esp]
	push	edi
	push	1
	push	esi
	call	_lua_tointeger

; 2029 : 	const PlayerTypes ePlayer2 = (PlayerTypes) lua_tointeger(L, 2);

	push	2
	push	esi
	mov	edi, eax
	call	_lua_tointeger

; 2030 : 	int iCost = GC.getGame().GetResearchAgreementCost(ePlayer1, ePlayer2);

	mov	ecx, DWORD PTR ?gGlobals@@3VCvGlobals@@A+48
	add	esp, 16					; 00000010H
	push	eax
	push	edi
	call	?GetResearchAgreementCost@CvGame@@QAEHW4PlayerTypes@@0@Z ; CvGame::GetResearchAgreementCost

; 2031 : 	lua_pushinteger(L, iCost);

	push	eax
	push	esi
	call	_lua_pushinteger
	add	esp, 8
	pop	edi

; 2032 : 
; 2033 : 	return 1;

	mov	eax, 1
	pop	esi

; 2034 : }

	ret	0
?lGetResearchAgreementCost@CvLuaGame@@KAHPAUlua_State@@@Z ENDP ; CvLuaGame::lGetResearchAgreementCost
_TEXT	ENDS
PUBLIC	?lGetNumCitiesPolicyCostMod@CvLuaGame@@KAHPAUlua_State@@@Z ; CvLuaGame::lGetNumCitiesPolicyCostMod
EXTRN	?GetNumCitiesPolicyCostMod@CvWorldInfo@@QBEHXZ:PROC ; CvWorldInfo::GetNumCitiesPolicyCostMod
EXTRN	?getWorldInfo@CvMap@@QBEABVCvWorldInfo@@XZ:PROC	; CvMap::getWorldInfo
; Function compile flags: /Ogtpy
;	COMDAT ?lGetNumCitiesPolicyCostMod@CvLuaGame@@KAHPAUlua_State@@@Z
_TEXT	SEGMENT
_L$ = 8							; size = 4
?lGetNumCitiesPolicyCostMod@CvLuaGame@@KAHPAUlua_State@@@Z PROC ; CvLuaGame::lGetNumCitiesPolicyCostMod, COMDAT

; 2051 : 	lua_pushinteger(L, GC.getMap().getWorldInfo().GetNumCitiesPolicyCostMod());

	mov	ecx, DWORD PTR ?gGlobals@@3VCvGlobals@@A+52
	call	?getWorldInfo@CvMap@@QBEABVCvWorldInfo@@XZ ; CvMap::getWorldInfo
	mov	ecx, eax
	call	?GetNumCitiesPolicyCostMod@CvWorldInfo@@QBEHXZ ; CvWorldInfo::GetNumCitiesPolicyCostMod
	push	eax
	mov	eax, DWORD PTR _L$[esp]
	push	eax
	call	_lua_pushinteger
	add	esp, 8

; 2052 : 	return 1;

	mov	eax, 1

; 2053 : }

	ret	0
?lGetNumCitiesPolicyCostMod@CvLuaGame@@KAHPAUlua_State@@@Z ENDP ; CvLuaGame::lGetNumCitiesPolicyCostMod
_TEXT	ENDS
PUBLIC	?lGetNumCitiesTechCostMod@CvLuaGame@@KAHPAUlua_State@@@Z ; CvLuaGame::lGetNumCitiesTechCostMod
EXTRN	?GetNumCitiesTechCostMod@CvWorldInfo@@QBEHXZ:PROC ; CvWorldInfo::GetNumCitiesTechCostMod
; Function compile flags: /Ogtpy
;	COMDAT ?lGetNumCitiesTechCostMod@CvLuaGame@@KAHPAUlua_State@@@Z
_TEXT	SEGMENT
_L$ = 8							; size = 4
?lGetNumCitiesTechCostMod@CvLuaGame@@KAHPAUlua_State@@@Z PROC ; CvLuaGame::lGetNumCitiesTechCostMod, COMDAT

; 2057 : 	lua_pushinteger(L, GC.getMap().getWorldInfo().GetNumCitiesTechCostMod());

	mov	ecx, DWORD PTR ?gGlobals@@3VCvGlobals@@A+52
	call	?getWorldInfo@CvMap@@QBEABVCvWorldInfo@@XZ ; CvMap::getWorldInfo
	mov	ecx, eax
	call	?GetNumCitiesTechCostMod@CvWorldInfo@@QBEHXZ ; CvWorldInfo::GetNumCitiesTechCostMod
	push	eax
	mov	eax, DWORD PTR _L$[esp]
	push	eax
	call	_lua_pushinteger
	add	esp, 8

; 2058 : 	return 1;

	mov	eax, 1

; 2059 : }

	ret	0
?lGetNumCitiesTechCostMod@CvLuaGame@@KAHPAUlua_State@@@Z ENDP ; CvLuaGame::lGetNumCitiesTechCostMod
_TEXT	ENDS
PUBLIC	?lGetWorldNumCitiesUnhappinessPercent@CvLuaGame@@KAHPAUlua_State@@@Z ; CvLuaGame::lGetWorldNumCitiesUnhappinessPercent
EXTRN	?getNumCitiesUnhappinessPercent@CvWorldInfo@@QBEHXZ:PROC ; CvWorldInfo::getNumCitiesUnhappinessPercent
; Function compile flags: /Ogtpy
;	COMDAT ?lGetWorldNumCitiesUnhappinessPercent@CvLuaGame@@KAHPAUlua_State@@@Z
_TEXT	SEGMENT
_L$ = 8							; size = 4
?lGetWorldNumCitiesUnhappinessPercent@CvLuaGame@@KAHPAUlua_State@@@Z PROC ; CvLuaGame::lGetWorldNumCitiesUnhappinessPercent, COMDAT

; 2099 : 	lua_pushinteger(L, GC.getMap().getWorldInfo().getNumCitiesUnhappinessPercent());

	mov	ecx, DWORD PTR ?gGlobals@@3VCvGlobals@@A+52
	call	?getWorldInfo@CvMap@@QBEABVCvWorldInfo@@XZ ; CvMap::getWorldInfo
	mov	ecx, eax
	call	?getNumCitiesUnhappinessPercent@CvWorldInfo@@QBEHXZ ; CvWorldInfo::getNumCitiesUnhappinessPercent
	push	eax
	mov	eax, DWORD PTR _L$[esp]
	push	eax
	call	_lua_pushinteger
	add	esp, 8

; 2100 : 	return 1;

	mov	eax, 1

; 2101 : }

	ret	0
?lGetWorldNumCitiesUnhappinessPercent@CvLuaGame@@KAHPAUlua_State@@@Z ENDP ; CvLuaGame::lGetWorldNumCitiesUnhappinessPercent
_TEXT	ENDS
PUBLIC	?lGetCombatPrediction@CvLuaGame@@KAHPAUlua_State@@@Z ; CvLuaGame::lGetCombatPrediction
EXTRN	?GetCombatPrediction@CvGame@@QAE?AW4CombatPredictionTypes@@PBVCvUnit@@0@Z:PROC ; CvGame::GetCombatPrediction
; Function compile flags: /Ogtpy
;	COMDAT ?lGetCombatPrediction@CvLuaGame@@KAHPAUlua_State@@@Z
_TEXT	SEGMENT
_pkInstance$228510 = -4					; size = 4
_L$ = 8							; size = 4
?lGetCombatPrediction@CvLuaGame@@KAHPAUlua_State@@@Z PROC ; CvLuaGame::lGetCombatPrediction, COMDAT

; 2148 : {

	push	ecx
	push	ebx
	push	ebp
	push	esi

; 2149 : 	const CvUnit* pAttackingUnit = CvLuaUnit::GetInstance(L, 1);

	mov	esi, DWORD PTR _L$[esp+12]
	push	edi
	push	esi
	call	_lua_gettop
	push	1
	push	esi
	mov	edi, eax
	mov	bl, 1
	mov	DWORD PTR _pkInstance$228510[esp+32], 0
	call	_lua_type
	add	esp, 12					; 0000000cH
	cmp	eax, 5
	jne	SHORT $LN5@lGetCombat
	push	OFFSET $SG226255
	push	1
	push	esi
	call	_lua_getfield
	push	-1
	push	esi
	call	_lua_type
	add	esp, 20					; 00000014H
	cmp	eax, 2
	jne	SHORT $LN5@lGetCombat
	push	-1
	push	esi
	call	_lua_touserdata
	add	esp, 8
	mov	DWORD PTR _pkInstance$228510[esp+20], eax
	test	eax, eax
	je	SHORT $LN5@lGetCombat
	xor	bl, bl
$LN5@lGetCombat:
	push	edi
	push	esi
	call	_lua_settop
	add	esp, 8
	test	bl, bl
	je	SHORT $LN4@lGetCombat
	push	OFFSET $SG226261
	push	esi
	call	_luaL_error
	push	esi
	call	?HandleMissingInstance@CvLuaUnit@@SAXPAUlua_State@@@Z ; CvLuaUnit::HandleMissingInstance
	add	esp, 12					; 0000000cH
$LN4@lGetCombat:

; 2150 : 	const CvUnit* pDefendingUnit = CvLuaUnit::GetInstance(L, 2);

	push	esi
	call	_lua_gettop
	push	2
	push	esi
	mov	ebp, eax
	mov	bl, 1
	xor	edi, edi
	call	_lua_type
	add	esp, 12					; 0000000cH
	cmp	eax, 5
	jne	SHORT $LN12@lGetCombat
	push	OFFSET $SG226255
	push	2
	push	esi
	call	_lua_getfield
	push	-1
	push	esi
	call	_lua_type
	add	esp, 20					; 00000014H
	cmp	eax, 2
	jne	SHORT $LN12@lGetCombat
	push	-1
	push	esi
	call	_lua_touserdata
	mov	edi, eax
	add	esp, 8
	test	edi, edi
	je	SHORT $LN12@lGetCombat
	xor	bl, bl
$LN12@lGetCombat:
	push	ebp
	push	esi
	call	_lua_settop
	add	esp, 8
	test	bl, bl
	je	SHORT $LN11@lGetCombat
	push	esi
	call	?HandleMissingInstance@CvLuaUnit@@SAXPAUlua_State@@@Z ; CvLuaUnit::HandleMissingInstance
	add	esp, 4
$LN11@lGetCombat:

; 2151 : 	CombatPredictionTypes ePrediction = GC.getGame().GetCombatPrediction(pAttackingUnit, pDefendingUnit);

	mov	eax, DWORD PTR _pkInstance$228510[esp+20]
	mov	ecx, DWORD PTR ?gGlobals@@3VCvGlobals@@A+48
	push	edi
	push	eax
	call	?GetCombatPrediction@CvGame@@QAE?AW4CombatPredictionTypes@@PBVCvUnit@@0@Z ; CvGame::GetCombatPrediction

; 2152 : 	lua_pushinteger(L, ePrediction);

	push	eax
	push	esi
	call	_lua_pushinteger
	add	esp, 8
	pop	edi
	pop	esi
	pop	ebp

; 2153 : 	return 1;

	mov	eax, 1
	pop	ebx

; 2154 : }

	pop	ecx
	ret	0
?lGetCombatPrediction@CvLuaGame@@KAHPAUlua_State@@@Z ENDP ; CvLuaGame::lGetCombatPrediction
_TEXT	ENDS
PUBLIC	?lGetTimeString@CvLuaGame@@KAHPAUlua_State@@@Z	; CvLuaGame::lGetTimeString
;	COMDAT xdata$x
; File c:\users\enormousapplepie\documents\github\lekmod\lekmod_dll\cvgamecoredllutil\include\cvstring.h
xdata$x	SEGMENT
__unwindtable$?lGetTimeString@CvLuaGame@@KAHPAUlua_State@@@Z DD 0ffffffffH
	DD	FLAT:__unwindfunclet$?lGetTimeString@CvLuaGame@@KAHPAUlua_State@@@Z$0
__ehfuncinfo$?lGetTimeString@CvLuaGame@@KAHPAUlua_State@@@Z DD 019930522H
	DD	01H
	DD	FLAT:__unwindtable$?lGetTimeString@CvLuaGame@@KAHPAUlua_State@@@Z
	DD	2 DUP(00H)
	DD	2 DUP(00H)
	DD	00H
	DD	01H
; Function compile flags: /Ogtpy
; File c:\users\enormousapplepie\documents\github\lekmod\lekmod_dll\cvgamecoredll_expansion2\lua\cvluagame.cpp
xdata$x	ENDS
;	COMDAT ?lGetTimeString@CvLuaGame@@KAHPAUlua_State@@@Z
_TEXT	SEGMENT
_timeString$ = -40					; size = 28
__$EHRec$ = -12						; size = 12
_L$ = 8							; size = 4
?lGetTimeString@CvLuaGame@@KAHPAUlua_State@@@Z PROC	; CvLuaGame::lGetTimeString, COMDAT

; 2158 : {

	push	-1
	push	__ehhandler$?lGetTimeString@CvLuaGame@@KAHPAUlua_State@@@Z
	mov	eax, DWORD PTR fs:0
	push	eax
	mov	DWORD PTR fs:0, esp
	sub	esp, 28					; 0000001cH
	push	esi

; 2159 : 	CvString timeString;

	lea	ecx, DWORD PTR _timeString$[esp+44]
	call	DWORD PTR __imp_??0?$basic_string@DU?$char_traits@D@std@@V?$allocator@D@2@@std@@QAE@XZ

; 2160 : 
; 2161 : 	CvGame& kGame = GC.getGame();

	mov	esi, DWORD PTR ?gGlobals@@3VCvGlobals@@A+48

; 2162 : 	CvGameTextMgr::setDateStr(timeString, kGame.getGameTurn(), true, kGame.getCalendar(), kGame.getStartYear(), kGame.getGameSpeedType());

	mov	ecx, esi
	mov	DWORD PTR __$EHRec$[esp+52], 0
	call	?getGameSpeedType@CvGame@@QBE?AW4GameSpeedTypes@@XZ ; CvGame::getGameSpeedType
	push	eax
	mov	ecx, esi
	call	?getStartYear@CvGame@@QBEHXZ		; CvGame::getStartYear
	push	eax
	mov	ecx, esi
	call	?getCalendar@CvGame@@QBE?AW4CalendarTypes@@XZ ; CvGame::getCalendar
	push	eax
	push	1
	mov	ecx, esi
	call	?getGameTurn@CvGame@@QAEHXZ		; CvGame::getGameTurn
	push	eax
	lea	eax, DWORD PTR _timeString$[esp+64]
	push	eax
	call	?setDateStr@CvGameTextMgr@@SAXAAVCvString@@H_NW4CalendarTypes@@HW4GameSpeedTypes@@@Z ; CvGameTextMgr::setDateStr
	add	esp, 24					; 00000018H

; 2163 : 
; 2164 : 	lua_pushstring(L, timeString.GetCString());

	lea	ecx, DWORD PTR _timeString$[esp+44]
	call	DWORD PTR __imp_?c_str@?$basic_string@DU?$char_traits@D@std@@V?$allocator@D@2@@std@@QBEPBDXZ
	mov	ecx, DWORD PTR _L$[esp+40]
	push	eax
	push	ecx
	call	_lua_pushstring
	add	esp, 8

; 2165 : 	return 1;

	lea	ecx, DWORD PTR _timeString$[esp+44]
	mov	DWORD PTR __$EHRec$[esp+52], -1
	call	DWORD PTR __imp_??1?$basic_string@DU?$char_traits@D@std@@V?$allocator@D@2@@std@@QAE@XZ

; 2166 : }

	mov	ecx, DWORD PTR __$EHRec$[esp+44]
	mov	eax, 1
	pop	esi
	mov	DWORD PTR fs:0, ecx
	add	esp, 40					; 00000028H
	ret	0
_TEXT	ENDS
;	COMDAT text$x
text$x	SEGMENT
__unwindfunclet$?lGetTimeString@CvLuaGame@@KAHPAUlua_State@@@Z$0:
	lea	ecx, DWORD PTR _timeString$[ebp]
	jmp	??1CvString@@QAE@XZ			; CvString::~CvString
__ehhandler$?lGetTimeString@CvLuaGame@@KAHPAUlua_State@@@Z:
	mov	eax, OFFSET __ehfuncinfo$?lGetTimeString@CvLuaGame@@KAHPAUlua_State@@@Z
	jmp	___CxxFrameHandler3
text$x	ENDS
?lGetTimeString@CvLuaGame@@KAHPAUlua_State@@@Z ENDP	; CvLuaGame::lGetTimeString
PUBLIC	?lGetMinimumFaithNextPantheon@CvLuaGame@@KAHPAUlua_State@@@Z ; CvLuaGame::lGetMinimumFaithNextPantheon
EXTRN	?GetGameReligions@CvGame@@QAEPAVCvGameReligions@@XZ:PROC ; CvGame::GetGameReligions
; Function compile flags: /Ogtpy
;	COMDAT ?lGetMinimumFaithNextPantheon@CvLuaGame@@KAHPAUlua_State@@@Z
_TEXT	SEGMENT
_L$ = 8							; size = 4
?lGetMinimumFaithNextPantheon@CvLuaGame@@KAHPAUlua_State@@@Z PROC ; CvLuaGame::lGetMinimumFaithNextPantheon, COMDAT

; 2170 : 	int iFaith = GC.getGame().GetGameReligions()->GetMinimumFaithNextPantheon();

	mov	ecx, DWORD PTR ?gGlobals@@3VCvGlobals@@A+48
	call	?GetGameReligions@CvGame@@QAEPAVCvGameReligions@@XZ ; CvGame::GetGameReligions

; 2171 : 	lua_pushinteger(L, iFaith);

	mov	eax, DWORD PTR [eax+5264]
	mov	ecx, DWORD PTR _L$[esp-4]
	push	eax
	push	ecx
	call	_lua_pushinteger
	add	esp, 8

; 2172 : 	return 1;

	mov	eax, 1

; 2173 : }

	ret	0
?lGetMinimumFaithNextPantheon@CvLuaGame@@KAHPAUlua_State@@@Z ENDP ; CvLuaGame::lGetMinimumFaithNextPantheon
_TEXT	ENDS
PUBLIC	?lSetMinimumFaithNextPantheon@CvLuaGame@@KAHPAUlua_State@@@Z ; CvLuaGame::lSetMinimumFaithNextPantheon
; Function compile flags: /Ogtpy
;	COMDAT ?lSetMinimumFaithNextPantheon@CvLuaGame@@KAHPAUlua_State@@@Z
_TEXT	SEGMENT
_L$ = 8							; size = 4
?lSetMinimumFaithNextPantheon@CvLuaGame@@KAHPAUlua_State@@@Z PROC ; CvLuaGame::lSetMinimumFaithNextPantheon, COMDAT

; 2177 : 	GC.getGame().GetGameReligions()->SetMinimumFaithNextPantheon(lua_tointeger(L, 1));

	mov	eax, DWORD PTR _L$[esp-4]
	push	esi
	mov	esi, DWORD PTR ?gGlobals@@3VCvGlobals@@A+48
	push	edi
	push	1
	push	eax
	call	_lua_tointeger
	add	esp, 8
	mov	ecx, esi
	mov	edi, eax
	call	?GetGameReligions@CvGame@@QAEPAVCvGameReligions@@XZ ; CvGame::GetGameReligions
	mov	DWORD PTR [eax+5264], edi
	pop	edi

; 2178 : 	return 1;

	mov	eax, 1
	pop	esi

; 2179 : }

	ret	0
?lSetMinimumFaithNextPantheon@CvLuaGame@@KAHPAUlua_State@@@Z ENDP ; CvLuaGame::lSetMinimumFaithNextPantheon
_TEXT	ENDS
PUBLIC	?lGetNumFollowers@CvLuaGame@@KAHPAUlua_State@@@Z ; CvLuaGame::lGetNumFollowers
EXTRN	?GetNumFollowers@CvGameReligions@@QBEHW4ReligionTypes@@@Z:PROC ; CvGameReligions::GetNumFollowers
; Function compile flags: /Ogtpy
;	COMDAT ?lGetNumFollowers@CvLuaGame@@KAHPAUlua_State@@@Z
_TEXT	SEGMENT
_L$ = 8							; size = 4
?lGetNumFollowers@CvLuaGame@@KAHPAUlua_State@@@Z PROC	; CvLuaGame::lGetNumFollowers, COMDAT

; 2320 : {

	push	esi

; 2321 : 	int iRtnValue;
; 2322 : 	ReligionTypes eReligion;
; 2323 : 	eReligion = (ReligionTypes)lua_tointeger(L, 1);

	mov	esi, DWORD PTR _L$[esp]
	push	1
	push	esi
	call	_lua_tointeger

; 2324 : 	iRtnValue = GC.getGame().GetGameReligions()->GetNumFollowers(eReligion);

	mov	ecx, DWORD PTR ?gGlobals@@3VCvGlobals@@A+48
	add	esp, 8
	push	eax
	call	?GetGameReligions@CvGame@@QAEPAVCvGameReligions@@XZ ; CvGame::GetGameReligions
	mov	ecx, eax
	call	?GetNumFollowers@CvGameReligions@@QBEHW4ReligionTypes@@@Z ; CvGameReligions::GetNumFollowers

; 2325 : 	lua_pushinteger(L, iRtnValue);

	push	eax
	push	esi
	call	_lua_pushinteger
	add	esp, 8

; 2326 : 	return 1;

	mov	eax, 1
	pop	esi

; 2327 : }

	ret	0
?lGetNumFollowers@CvLuaGame@@KAHPAUlua_State@@@Z ENDP	; CvLuaGame::lGetNumFollowers
_TEXT	ENDS
PUBLIC	?lGetNumCitiesFollowing@CvLuaGame@@KAHPAUlua_State@@@Z ; CvLuaGame::lGetNumCitiesFollowing
EXTRN	?GetNumCitiesFollowing@CvGameReligions@@QBEHW4ReligionTypes@@@Z:PROC ; CvGameReligions::GetNumCitiesFollowing
; Function compile flags: /Ogtpy
;	COMDAT ?lGetNumCitiesFollowing@CvLuaGame@@KAHPAUlua_State@@@Z
_TEXT	SEGMENT
_L$ = 8							; size = 4
?lGetNumCitiesFollowing@CvLuaGame@@KAHPAUlua_State@@@Z PROC ; CvLuaGame::lGetNumCitiesFollowing, COMDAT

; 2330 : {

	push	esi

; 2331 : 	int iRtnValue;
; 2332 : 	ReligionTypes eReligion;
; 2333 : 	eReligion = (ReligionTypes)lua_tointeger(L, 1);

	mov	esi, DWORD PTR _L$[esp]
	push	1
	push	esi
	call	_lua_tointeger

; 2334 : 	iRtnValue = GC.getGame().GetGameReligions()->GetNumCitiesFollowing(eReligion);

	mov	ecx, DWORD PTR ?gGlobals@@3VCvGlobals@@A+48
	add	esp, 8
	push	eax
	call	?GetGameReligions@CvGame@@QAEPAVCvGameReligions@@XZ ; CvGame::GetGameReligions
	mov	ecx, eax
	call	?GetNumCitiesFollowing@CvGameReligions@@QBEHW4ReligionTypes@@@Z ; CvGameReligions::GetNumCitiesFollowing

; 2335 : 	lua_pushinteger(L, iRtnValue);

	push	eax
	push	esi
	call	_lua_pushinteger
	add	esp, 8

; 2336 : 	return 1;

	mov	eax, 1
	pop	esi

; 2337 : }

	ret	0
?lGetNumCitiesFollowing@CvLuaGame@@KAHPAUlua_State@@@Z ENDP ; CvLuaGame::lGetNumCitiesFollowing
_TEXT	ENDS
PUBLIC	?lGetBeliefsInReligion@CvLuaGame@@KAHPAUlua_State@@@Z ; CvLuaGame::lGetBeliefsInReligion
EXTRN	??1CvReligionBeliefs@@QAE@XZ:PROC		; CvReligionBeliefs::~CvReligionBeliefs
EXTRN	?GetBelief@CvReligionBeliefs@@QBE?AW4BeliefTypes@@H@Z:PROC ; CvReligionBeliefs::GetBelief
EXTRN	?GetNumBeliefs@CvReligionBeliefs@@QBEHXZ:PROC	; CvReligionBeliefs::GetNumBeliefs
EXTRN	??0CvReligionBeliefs@@QAE@ABV0@@Z:PROC		; CvReligionBeliefs::CvReligionBeliefs
EXTRN	?GetReligion@CvGameReligions@@QBEPBVCvReligion@@W4ReligionTypes@@W4PlayerTypes@@@Z:PROC ; CvGameReligions::GetReligion
;	COMDAT xdata$x
; File c:\users\enormousapplepie\documents\github\lekmod\lekmod_dll\cvgamecoredll_expansion2\cvglobals.h
xdata$x	SEGMENT
__unwindtable$?lGetBeliefsInReligion@CvLuaGame@@KAHPAUlua_State@@@Z DD 0ffffffffH
	DD	FLAT:__unwindfunclet$?lGetBeliefsInReligion@CvLuaGame@@KAHPAUlua_State@@@Z$0
__ehfuncinfo$?lGetBeliefsInReligion@CvLuaGame@@KAHPAUlua_State@@@Z DD 019930522H
	DD	01H
	DD	FLAT:__unwindtable$?lGetBeliefsInReligion@CvLuaGame@@KAHPAUlua_State@@@Z
	DD	2 DUP(00H)
	DD	2 DUP(00H)
	DD	00H
	DD	01H
; Function compile flags: /Ogtpy
; File c:\users\enormousapplepie\documents\github\lekmod\lekmod_dll\cvgamecoredll_expansion2\lua\cvluagame.cpp
xdata$x	ENDS
;	COMDAT ?lGetBeliefsInReligion@CvLuaGame@@KAHPAUlua_State@@@Z
_TEXT	SEGMENT
_beliefs$ = -188					; size = 176
__$EHRec$ = -12						; size = 12
_L$ = 8							; size = 4
?lGetBeliefsInReligion@CvLuaGame@@KAHPAUlua_State@@@Z PROC ; CvLuaGame::lGetBeliefsInReligion, COMDAT

; 2340 : {

	push	-1
	push	__ehhandler$?lGetBeliefsInReligion@CvLuaGame@@KAHPAUlua_State@@@Z
	mov	eax, DWORD PTR fs:0
	push	eax
	mov	DWORD PTR fs:0, esp
	sub	esp, 176				; 000000b0H
	push	ebx
	push	esi
	push	edi

; 2341 : 	ReligionTypes eReligion;
; 2342 : 	eReligion = (ReligionTypes)lua_tointeger(L, 1);

	mov	edi, DWORD PTR _L$[esp+196]
	push	1
	push	edi
	call	_lua_tointeger

; 2343 : 
; 2344 : 	lua_createtable(L, 0, 0);

	push	0
	push	0
	push	edi
	mov	esi, eax
	call	_lua_createtable

; 2345 : 	const int t = lua_gettop(L);

	push	edi
	call	_lua_gettop

; 2346 : 	int idx = 1;
; 2347 : 
; 2348 : #ifdef AUI_WARNING_FIXES
; 2349 : 	const CvReligionBeliefs& beliefs = GC.getGame().GetGameReligions()->GetReligion(eReligion, NO_PLAYER)->m_Beliefs;
; 2350 : #else
; 2351 : 	CvReligionBeliefs beliefs = GC.getGame().GetGameReligions()->GetReligion(eReligion, NO_PLAYER)->m_Beliefs;

	mov	ecx, DWORD PTR ?gGlobals@@3VCvGlobals@@A+48
	add	esp, 24					; 00000018H
	push	-1
	push	esi
	mov	ebx, eax
	call	?GetGameReligions@CvGame@@QAEPAVCvGameReligions@@XZ ; CvGame::GetGameReligions
	mov	ecx, eax
	call	?GetReligion@CvGameReligions@@QBEPBVCvReligion@@W4ReligionTypes@@W4PlayerTypes@@@Z ; CvGameReligions::GetReligion
	add	eax, 152				; 00000098H
	push	eax
	lea	ecx, DWORD PTR _beliefs$[esp+204]
	call	??0CvReligionBeliefs@@QAE@ABV0@@Z	; CvReligionBeliefs::CvReligionBeliefs

; 2352 : #endif
; 2353 : 	for(int iI = 0; iI < beliefs.GetNumBeliefs(); iI++)

	lea	ecx, DWORD PTR _beliefs$[esp+200]
	mov	DWORD PTR __$EHRec$[esp+208], 0
	xor	esi, esi
	call	?GetNumBeliefs@CvReligionBeliefs@@QBEHXZ ; CvReligionBeliefs::GetNumBeliefs
	test	eax, eax
	jle	SHORT $LN1@lGetBelief
$LL3@lGetBelief:

; 2354 : 	{
; 2355 : 		const BeliefTypes eBelief = beliefs.GetBelief(iI);

	push	esi
	lea	ecx, DWORD PTR _beliefs$[esp+204]
	call	?GetBelief@CvReligionBeliefs@@QBE?AW4BeliefTypes@@H@Z ; CvReligionBeliefs::GetBelief

; 2356 : 		lua_pushinteger(L, eBelief);

	push	eax
	push	edi
	call	_lua_pushinteger

; 2357 : 		lua_rawseti(L, t, idx++);

	inc	esi
	push	esi
	push	ebx
	push	edi
	call	_lua_rawseti
	add	esp, 20					; 00000014H
	lea	ecx, DWORD PTR _beliefs$[esp+200]
	call	?GetNumBeliefs@CvReligionBeliefs@@QBEHXZ ; CvReligionBeliefs::GetNumBeliefs
	cmp	esi, eax
	jl	SHORT $LL3@lGetBelief
$LN1@lGetBelief:

; 2358 : 	}
; 2359 : 
; 2360 : 	return 1;

	lea	ecx, DWORD PTR _beliefs$[esp+200]
	mov	DWORD PTR __$EHRec$[esp+208], -1
	call	??1CvReligionBeliefs@@QAE@XZ		; CvReligionBeliefs::~CvReligionBeliefs

; 2361 : }

	mov	ecx, DWORD PTR __$EHRec$[esp+200]
	pop	edi
	pop	esi
	mov	eax, 1
	pop	ebx
	mov	DWORD PTR fs:0, ecx
	add	esp, 188				; 000000bcH
	ret	0
_TEXT	ENDS
;	COMDAT text$x
text$x	SEGMENT
__unwindfunclet$?lGetBeliefsInReligion@CvLuaGame@@KAHPAUlua_State@@@Z$0:
	lea	ecx, DWORD PTR _beliefs$[ebp]
	jmp	??1CvReligionBeliefs@@QAE@XZ		; CvReligionBeliefs::~CvReligionBeliefs
__ehhandler$?lGetBeliefsInReligion@CvLuaGame@@KAHPAUlua_State@@@Z:
	mov	eax, OFFSET __ehfuncinfo$?lGetBeliefsInReligion@CvLuaGame@@KAHPAUlua_State@@@Z
	jmp	___CxxFrameHandler3
text$x	ENDS
?lGetBeliefsInReligion@CvLuaGame@@KAHPAUlua_State@@@Z ENDP ; CvLuaGame::lGetBeliefsInReligion
PUBLIC	?lGetNumReligionsStillToFound@CvLuaGame@@KAHPAUlua_State@@@Z ; CvLuaGame::lGetNumReligionsStillToFound
EXTRN	?GetNumReligionsStillToFound@CvGameReligions@@QBEHXZ:PROC ; CvGameReligions::GetNumReligionsStillToFound
; Function compile flags: /Ogtpy
;	COMDAT ?lGetNumReligionsStillToFound@CvLuaGame@@KAHPAUlua_State@@@Z
_TEXT	SEGMENT
_L$ = 8							; size = 4
?lGetNumReligionsStillToFound@CvLuaGame@@KAHPAUlua_State@@@Z PROC ; CvLuaGame::lGetNumReligionsStillToFound, COMDAT

; 2365 : 	int iRtnValue;
; 2366 : 	iRtnValue = GC.getGame().GetGameReligions()->GetNumReligionsStillToFound();

	mov	ecx, DWORD PTR ?gGlobals@@3VCvGlobals@@A+48
	call	?GetGameReligions@CvGame@@QAEPAVCvGameReligions@@XZ ; CvGame::GetGameReligions
	mov	ecx, eax
	call	?GetNumReligionsStillToFound@CvGameReligions@@QBEHXZ ; CvGameReligions::GetNumReligionsStillToFound

; 2367 : 	lua_pushinteger(L, iRtnValue);

	push	eax
	mov	eax, DWORD PTR _L$[esp]
	push	eax
	call	_lua_pushinteger
	add	esp, 8

; 2368 : 	return 1;

	mov	eax, 1

; 2369 : }

	ret	0
?lGetNumReligionsStillToFound@CvLuaGame@@KAHPAUlua_State@@@Z ENDP ; CvLuaGame::lGetNumReligionsStillToFound
_TEXT	ENDS
PUBLIC	?lGetNumReligionsFounded@CvLuaGame@@KAHPAUlua_State@@@Z ; CvLuaGame::lGetNumReligionsFounded
EXTRN	?GetNumReligionsFounded@CvGameReligions@@QBEHXZ:PROC ; CvGameReligions::GetNumReligionsFounded
; Function compile flags: /Ogtpy
;	COMDAT ?lGetNumReligionsFounded@CvLuaGame@@KAHPAUlua_State@@@Z
_TEXT	SEGMENT
_L$ = 8							; size = 4
?lGetNumReligionsFounded@CvLuaGame@@KAHPAUlua_State@@@Z PROC ; CvLuaGame::lGetNumReligionsFounded, COMDAT

; 2373 : 	int iRtnValue;
; 2374 : 	iRtnValue = GC.getGame().GetGameReligions()->GetNumReligionsFounded();

	mov	ecx, DWORD PTR ?gGlobals@@3VCvGlobals@@A+48
	call	?GetGameReligions@CvGame@@QAEPAVCvGameReligions@@XZ ; CvGame::GetGameReligions
	mov	ecx, eax
	call	?GetNumReligionsFounded@CvGameReligions@@QBEHXZ ; CvGameReligions::GetNumReligionsFounded

; 2375 : 	lua_pushinteger(L, iRtnValue);

	push	eax
	mov	eax, DWORD PTR _L$[esp]
	push	eax
	call	_lua_pushinteger
	add	esp, 8

; 2376 : 	return 1;

	mov	eax, 1

; 2377 : }

	ret	0
?lGetNumReligionsFounded@CvLuaGame@@KAHPAUlua_State@@@Z ENDP ; CvLuaGame::lGetNumReligionsFounded
_TEXT	ENDS
PUBLIC	?lGetReligionName@CvLuaGame@@KAHPAUlua_State@@@Z ; CvLuaGame::lGetReligionName
EXTRN	?getReligionInfo@CvGlobals@@QAEPAVCvReligionEntry@@W4ReligionTypes@@@Z:PROC ; CvGlobals::getReligionInfo
; Function compile flags: /Ogtpy
;	COMDAT ?lGetReligionName@CvLuaGame@@KAHPAUlua_State@@@Z
_TEXT	SEGMENT
tv79 = -4						; size = 4
_L$ = 8							; size = 4
?lGetReligionName@CvLuaGame@@KAHPAUlua_State@@@Z PROC	; CvLuaGame::lGetReligionName, COMDAT

; 2408 : {

	push	ecx
	push	esi
	push	edi

; 2409 : 	const ReligionTypes eReligion = static_cast<ReligionTypes>(luaL_checkint(L, 1));

	mov	edi, DWORD PTR _L$[esp+8]
	push	1
	push	edi
	call	_luaL_checkinteger

; 2410 : 	const CvReligion* pkReligion = GC.getGame().GetGameReligions()->GetReligion(eReligion, NO_PLAYER);

	mov	ecx, DWORD PTR ?gGlobals@@3VCvGlobals@@A+48
	add	esp, 8
	mov	esi, eax
	push	-1
	push	esi
	call	?GetGameReligions@CvGame@@QAEPAVCvGameReligions@@XZ ; CvGame::GetGameReligions
	mov	ecx, eax
	call	?GetReligion@CvGameReligions@@QBEPBVCvReligion@@W4ReligionTypes@@W4PlayerTypes@@@Z ; CvGameReligions::GetReligion

; 2411 : #ifdef AUI_WARNING_FIXES
; 2412 : 	if (pkReligion && pkReligion->m_szCustomName[0] != '\0')
; 2413 : #else
; 2414 : 	if(pkReligion && strlen(pkReligion->m_szCustomName) > 0)

	test	eax, eax
	je	SHORT $LN2@lGetReligi
	lea	edx, DWORD PTR [eax+22]
	mov	eax, edx
	push	ebx
	lea	ebx, DWORD PTR [eax+1]
$LL9@lGetReligi:
	mov	cl, BYTE PTR [eax]
	inc	eax
	test	cl, cl
	jne	SHORT $LL9@lGetReligi
	sub	eax, ebx
	pop	ebx
	je	SHORT $LN2@lGetReligi

; 2415 : #endif
; 2416 : 	{
; 2417 : 		lua_pushstring(L, pkReligion->m_szCustomName);

	push	edx
	push	edi
	call	_lua_pushstring
	add	esp, 8
	pop	edi

; 2418 : 		return 1;

	mov	eax, 1
	pop	esi

; 2429 : }

	pop	ecx
	ret	0
$LN2@lGetReligi:

; 2419 : 	}
; 2420 : 
; 2421 : 	CvReligionEntry* pkEntry = GC.getReligionInfo(eReligion);

	push	esi
	mov	ecx, OFFSET ?gGlobals@@3VCvGlobals@@A	; gGlobals
	call	?getReligionInfo@CvGlobals@@QAEPAVCvReligionEntry@@W4ReligionTypes@@@Z ; CvGlobals::getReligionInfo

; 2422 : 	if(pkEntry != NULL)

	test	eax, eax
	je	SHORT $LN1@lGetReligi

; 2423 : 	{
; 2424 : 		lua_pushstring(L, pkEntry->GetDescriptionKey());

	lea	ecx, DWORD PTR [eax+64]
	call	DWORD PTR __imp_?c_str@?$basic_string@DU?$char_traits@D@std@@V?$allocator@D@2@@std@@QBEPBDXZ
	push	eax
	push	edi
	call	_lua_pushstring
	add	esp, 8
	pop	edi

; 2425 : 		return 1;

	mov	eax, 1
	pop	esi

; 2429 : }

	pop	ecx
	ret	0
$LN1@lGetReligi:
	pop	edi

; 2426 : 	}
; 2427 : 
; 2428 : 	return 0;

	xor	eax, eax
	pop	esi

; 2429 : }

	pop	ecx
	ret	0
?lGetReligionName@CvLuaGame@@KAHPAUlua_State@@@Z ENDP	; CvLuaGame::lGetReligionName
_TEXT	ENDS
PUBLIC	?lGetFounderBenefitsReligion@CvLuaGame@@KAHPAUlua_State@@@Z ; CvLuaGame::lGetFounderBenefitsReligion
EXTRN	?GetFounderBenefitsReligion@CvGameReligions@@QBE?AW4ReligionTypes@@W4PlayerTypes@@@Z:PROC ; CvGameReligions::GetFounderBenefitsReligion
; Function compile flags: /Ogtpy
;	COMDAT ?lGetFounderBenefitsReligion@CvLuaGame@@KAHPAUlua_State@@@Z
_TEXT	SEGMENT
_L$ = 8							; size = 4
?lGetFounderBenefitsReligion@CvLuaGame@@KAHPAUlua_State@@@Z PROC ; CvLuaGame::lGetFounderBenefitsReligion, COMDAT

; 2432 : {

	push	esi

; 2433 : 	const PlayerTypes ePlayer = static_cast<PlayerTypes>(luaL_checkint(L, 1));

	mov	esi, DWORD PTR _L$[esp]
	push	1
	push	esi
	call	_luaL_checkinteger

; 2434 : 	ReligionTypes eReligion = GC.getGame().GetGameReligions()->GetFounderBenefitsReligion(ePlayer);

	mov	ecx, DWORD PTR ?gGlobals@@3VCvGlobals@@A+48
	add	esp, 8
	push	eax
	call	?GetGameReligions@CvGame@@QAEPAVCvGameReligions@@XZ ; CvGame::GetGameReligions
	mov	ecx, eax
	call	?GetFounderBenefitsReligion@CvGameReligions@@QBE?AW4ReligionTypes@@W4PlayerTypes@@@Z ; CvGameReligions::GetFounderBenefitsReligion

; 2435 : 	lua_pushinteger(L, eReligion);

	push	eax
	push	esi
	call	_lua_pushinteger
	add	esp, 8

; 2436 : 	return 1;

	mov	eax, 1
	pop	esi

; 2437 : }

	ret	0
?lGetFounderBenefitsReligion@CvLuaGame@@KAHPAUlua_State@@@Z ENDP ; CvLuaGame::lGetFounderBenefitsReligion
_TEXT	ENDS
PUBLIC	?lFoundPantheon@CvLuaGame@@KAHPAUlua_State@@@Z	; CvLuaGame::lFoundPantheon
EXTRN	?FoundPantheon@CvGameReligions@@QAEXW4PlayerTypes@@W4BeliefTypes@@@Z:PROC ; CvGameReligions::FoundPantheon
; Function compile flags: /Ogtpy
;	COMDAT ?lFoundPantheon@CvLuaGame@@KAHPAUlua_State@@@Z
_TEXT	SEGMENT
_L$ = 8							; size = 4
?lFoundPantheon@CvLuaGame@@KAHPAUlua_State@@@Z PROC	; CvLuaGame::lFoundPantheon, COMDAT

; 2440 : {

	push	esi

; 2441 : 	const PlayerTypes ePlayer = static_cast<PlayerTypes>(luaL_checkint(L, 1));

	mov	esi, DWORD PTR _L$[esp]
	push	edi
	push	1
	push	esi
	call	_luaL_checkinteger

; 2442 : 	const BeliefTypes eBelief = static_cast<BeliefTypes>(luaL_checkint(L, 2));

	push	2
	push	esi
	mov	edi, eax
	call	_luaL_checkinteger

; 2443 : 
; 2444 : #ifdef AUI_RELIGION_FIX_SIMULTANEOUS_ENHANCE_OR_FOUND_CAUSING_MULTIPLE
; 2445 : 	CvGameReligions* pkGameReligions(GC.getGame().GetGameReligions());
; 2446 : 	CvGameReligions::FOUNDING_RESULT eResult = pkGameReligions->CanCreatePantheon(ePlayer, true);
; 2447 : 	if (eResult == CvGameReligions::FOUNDING_OK)
; 2448 : 	{
; 2449 : 		if (pkGameReligions->IsPantheonBeliefAvailable(eBelief))
; 2450 : 		{
; 2451 : 			pkGameReligions->FoundPantheon(ePlayer, eBelief);
; 2452 : 		}
; 2453 : 		else
; 2454 : 		{
; 2455 : 			CvGameReligions::NotifyPlayer(ePlayer, CvGameReligions::FOUNDING_BELIEF_IN_USE);
; 2456 : 		}
; 2457 : 	}
; 2458 : 	else
; 2459 : 	{
; 2460 : 		CvGameReligions::NotifyPlayer(ePlayer, eResult);
; 2461 : 	}
; 2462 : #else
; 2463 : 	GC.getGame().GetGameReligions()->FoundPantheon(ePlayer, eBelief);

	mov	ecx, DWORD PTR ?gGlobals@@3VCvGlobals@@A+48
	add	esp, 16					; 00000010H
	push	eax
	push	edi
	call	?GetGameReligions@CvGame@@QAEPAVCvGameReligions@@XZ ; CvGame::GetGameReligions
	mov	ecx, eax
	call	?FoundPantheon@CvGameReligions@@QAEXW4PlayerTypes@@W4BeliefTypes@@@Z ; CvGameReligions::FoundPantheon
	pop	edi

; 2464 : #endif
; 2465 : 
; 2466 : 	return 0;

	xor	eax, eax
	pop	esi

; 2467 : }

	ret	0
?lFoundPantheon@CvLuaGame@@KAHPAUlua_State@@@Z ENDP	; CvLuaGame::lFoundPantheon
_TEXT	ENDS
PUBLIC	?lFoundReligion@CvLuaGame@@KAHPAUlua_State@@@Z	; CvLuaGame::lFoundReligion
EXTRN	?FoundReligion@CvGameReligions@@QAEXW4PlayerTypes@@W4ReligionTypes@@PBDW4BeliefTypes@@333PAVCvCity@@@Z:PROC ; CvGameReligions::FoundReligion
; Function compile flags: /Ogtpy
;	COMDAT ?lFoundReligion@CvLuaGame@@KAHPAUlua_State@@@Z
_TEXT	SEGMENT
_stack_size$228655 = -28				; size = 4
_eBelief4$ = -24					; size = 4
_eBelief3$ = -20					; size = 4
_eBelief2$ = -16					; size = 4
_eBelief1$ = -12					; size = 4
_szCustomName$ = -8					; size = 4
_eReligion$ = -4					; size = 4
_L$ = 8							; size = 4
?lFoundReligion@CvLuaGame@@KAHPAUlua_State@@@Z PROC	; CvLuaGame::lFoundReligion, COMDAT

; 2470 : {

	sub	esp, 28					; 0000001cH
	push	ebx
	push	ebp
	push	esi

; 2471 : 	const PlayerTypes ePlayer = static_cast<PlayerTypes>(luaL_checkint(L, 1));

	mov	esi, DWORD PTR _L$[esp+36]
	push	edi
	push	1
	push	esi
	call	_luaL_checkinteger

; 2472 : 	const ReligionTypes eReligion = static_cast<ReligionTypes>(luaL_checkint(L, 2));

	push	2
	push	esi
	mov	ebp, eax
	call	_luaL_checkinteger

; 2473 : 	const char* szCustomName = lua_tostring(L, 3);

	push	0
	push	3
	push	esi
	mov	DWORD PTR _eReligion$[esp+72], eax
	call	_lua_tolstring

; 2474 : 	const BeliefTypes eBelief1 = static_cast<BeliefTypes>(luaL_checkint(L, 4));

	push	4
	push	esi
	mov	DWORD PTR _szCustomName$[esp+80], eax
	call	_luaL_checkinteger

; 2475 : 	const BeliefTypes eBelief2 = static_cast<BeliefTypes>(luaL_checkint(L, 5));

	push	5
	push	esi
	mov	DWORD PTR _eBelief1$[esp+88], eax
	call	_luaL_checkinteger

; 2476 : 	const BeliefTypes eBelief3 = static_cast<BeliefTypes>(luaL_checkint(L, 6));

	push	6
	push	esi
	mov	DWORD PTR _eBelief2$[esp+96], eax
	call	_luaL_checkinteger

; 2477 : 	const BeliefTypes eBelief4 = static_cast<BeliefTypes>(luaL_checkint(L, 7));

	push	7
	push	esi
	mov	DWORD PTR _eBelief3$[esp+104], eax
	call	_luaL_checkinteger

; 2478 : 	CvCity* pkHolyCity	= CvLuaCity::GetInstance(L, 8);

	push	esi
	mov	DWORD PTR _eBelief4$[esp+108], eax
	call	_lua_gettop
	add	esp, 64					; 00000040H
	push	8
	push	esi
	mov	DWORD PTR _stack_size$228655[esp+52], eax
	mov	bl, 1
	xor	edi, edi
	call	_lua_type
	add	esp, 8
	cmp	eax, 5
	jne	SHORT $LN5@lFoundReli
	push	OFFSET $SG226177
	push	8
	push	esi
	call	_lua_getfield
	push	-1
	push	esi
	call	_lua_type
	add	esp, 20					; 00000014H
	cmp	eax, 2
	jne	SHORT $LN5@lFoundReli
	push	-1
	push	esi
	call	_lua_touserdata
	mov	edi, eax
	add	esp, 8
	test	edi, edi
	je	SHORT $LN5@lFoundReli
	xor	bl, bl
$LN5@lFoundReli:
	mov	eax, DWORD PTR _stack_size$228655[esp+44]
	push	eax
	push	esi
	call	_lua_settop
	add	esp, 8
	test	bl, bl
	je	SHORT $LN4@lFoundReli
	push	esi
	call	?HandleMissingInstance@CvLuaCity@@SAXPAUlua_State@@@Z ; CvLuaCity::HandleMissingInstance
	add	esp, 4
$LN4@lFoundReli:

; 2479 : 
; 2480 : #ifdef AUI_RELIGION_FIX_SIMULTANEOUS_ENHANCE_OR_FOUND_CAUSING_MULTIPLE
; 2481 : 	if (pkHolyCity && ePlayer != NO_PLAYER)
; 2482 : 	{
; 2483 : 		CvGameReligions* pkGameReligions(GC.getGame().GetGameReligions());
; 2484 : 		CvGameReligions::FOUNDING_RESULT eResult = pkGameReligions->CanFoundReligion(ePlayer, eReligion, szCustomName, eBelief1, eBelief2, eBelief3, eBelief4, pkHolyCity);
; 2485 : 		if (eResult == CvGameReligions::FOUNDING_OK)
; 2486 : 			pkGameReligions->FoundReligion(ePlayer, eReligion, szCustomName, eBelief1, eBelief2, eBelief3, eBelief4, pkHolyCity);
; 2487 : 		else
; 2488 : 		{
; 2489 : 			CvGameReligions::NotifyPlayer(ePlayer, eResult);
; 2490 : 			// We don't want them to lose the opportunity to found the religion, and the Great Prophet is already gone so just repost the notification
; 2491 : 			CvPlayerAI& kPlayer = GET_PLAYER(ePlayer);
; 2492 : 			if (kPlayer.isHuman() && eResult != CvGameReligions::FOUNDING_NO_RELIGIONS_AVAILABLE && eResult != CvGameReligions::FOUNDING_NO_BELIEFS_AVAILABLE)
; 2493 : 			{
; 2494 : 				CvNotifications* pNotifications = kPlayer.GetNotifications();
; 2495 : 				if (pNotifications)
; 2496 : 				{
; 2497 : 					CvString strBuffer = GetLocalizedText("TXT_KEY_NOTIFICATION_FOUND_RELIGION");
; 2498 : 					CvString strSummary = GetLocalizedText("TXT_KEY_NOTIFICATION_SUMMARY_FOUND_RELIGION");
; 2499 : 					pNotifications->Add(NOTIFICATION_FOUND_RELIGION, strBuffer, strSummary, pkHolyCity->getX(), pkHolyCity->getY(), -1, pkHolyCity->GetID());
; 2500 : 				}
; 2501 : 				kPlayer.GetReligions()->SetFoundingReligion(true);
; 2502 : 			}
; 2503 : #ifdef AUI_DLLNETMESSAGEHANDLER_FIX_RESPAWN_PROPHET_IF_BEATEN_TO_LAST_RELIGION
; 2504 : 			else if (kPlayer.getCapitalCity())
; 2505 : 			{
; 2506 : 				UnitTypes eUnit = (UnitTypes)GC.getInfoTypeForString("UNIT_PROPHET", true);
; 2507 : 				if (eUnit != NO_UNIT)
; 2508 : 				{
; 2509 : 					kPlayer.getCapitalCity()->GetCityCitizens()->DoSpawnGreatPerson(eUnit, false /*bIncrementCount*/, false, true);
; 2510 : 				}
; 2511 : 			}
; 2512 : #endif
; 2513 : 		}
; 2514 : 	}
; 2515 : #else
; 2516 : 	GC.getGame().GetGameReligions()->FoundReligion(ePlayer, eReligion, szCustomName, eBelief1, eBelief2, eBelief3, eBelief4, pkHolyCity);

	mov	ecx, DWORD PTR _eBelief4$[esp+44]
	mov	edx, DWORD PTR _eBelief3$[esp+44]
	mov	eax, DWORD PTR _eBelief2$[esp+44]
	push	edi
	push	ecx
	mov	ecx, DWORD PTR _eBelief1$[esp+52]
	push	edx
	mov	edx, DWORD PTR _szCustomName$[esp+56]
	push	eax
	mov	eax, DWORD PTR _eReligion$[esp+60]
	push	ecx
	mov	ecx, DWORD PTR ?gGlobals@@3VCvGlobals@@A+48
	push	edx
	push	eax
	push	ebp
	call	?GetGameReligions@CvGame@@QAEPAVCvGameReligions@@XZ ; CvGame::GetGameReligions
	mov	ecx, eax
	call	?FoundReligion@CvGameReligions@@QAEXW4PlayerTypes@@W4ReligionTypes@@PBDW4BeliefTypes@@333PAVCvCity@@@Z ; CvGameReligions::FoundReligion
	pop	edi
	pop	esi
	pop	ebp

; 2517 : #endif
; 2518 : 
; 2519 : 	return 0;

	xor	eax, eax
	pop	ebx

; 2520 : }

	add	esp, 28					; 0000001cH
	ret	0
?lFoundReligion@CvLuaGame@@KAHPAUlua_State@@@Z ENDP	; CvLuaGame::lFoundReligion
_TEXT	ENDS
PUBLIC	?lEnhanceReligion@CvLuaGame@@KAHPAUlua_State@@@Z ; CvLuaGame::lEnhanceReligion
EXTRN	?EnhanceReligion@CvGameReligions@@QAEXW4PlayerTypes@@W4ReligionTypes@@W4BeliefTypes@@2@Z:PROC ; CvGameReligions::EnhanceReligion
; Function compile flags: /Ogtpy
;	COMDAT ?lEnhanceReligion@CvLuaGame@@KAHPAUlua_State@@@Z
_TEXT	SEGMENT
_L$ = 8							; size = 4
?lEnhanceReligion@CvLuaGame@@KAHPAUlua_State@@@Z PROC	; CvLuaGame::lEnhanceReligion, COMDAT

; 2523 : {

	push	ebx
	push	ebp
	push	esi

; 2524 : 	const PlayerTypes ePlayer = static_cast<PlayerTypes>(luaL_checkint(L, 1));

	mov	esi, DWORD PTR _L$[esp+8]
	push	edi
	push	1
	push	esi
	call	_luaL_checkinteger

; 2525 : 	const ReligionTypes eReligion = static_cast<ReligionTypes>(luaL_checkint(L, 2));

	push	2
	push	esi
	mov	edi, eax
	call	_luaL_checkinteger

; 2526 : 	const BeliefTypes eBelief1 = static_cast<BeliefTypes>(luaL_checkint(L, 3));

	push	3
	push	esi
	mov	ebx, eax
	call	_luaL_checkinteger

; 2527 : 	const BeliefTypes eBelief2 = static_cast<BeliefTypes>(luaL_checkint(L, 4));

	push	4
	push	esi
	mov	ebp, eax
	call	_luaL_checkinteger

; 2528 : 
; 2529 : #ifdef AUI_RELIGION_FIX_SIMULTANEOUS_ENHANCE_OR_FOUND_CAUSING_MULTIPLE
; 2530 : 	CvGameReligions* pkGameReligions(GC.getGame().GetGameReligions());
; 2531 : 
; 2532 : 	CvGameReligions::FOUNDING_RESULT eResult = pkGameReligions->CanEnhanceReligion(ePlayer, eReligion, eBelief1, eBelief2);
; 2533 : 	if (eResult == CvGameReligions::FOUNDING_OK)
; 2534 : 		pkGameReligions->EnhanceReligion(ePlayer, eReligion, eBelief1, eBelief2);
; 2535 : 	else
; 2536 : 	{
; 2537 : 		CvGameReligions::NotifyPlayer(ePlayer, eResult);
; 2538 : 		// We don't want them to lose the opportunity to enhance the religion, and the Great Prophet is already gone so just repost the notification
; 2539 : 		CvPlayerAI& kPlayer = GET_PLAYER(ePlayer);
; 2540 : 		CvCity* pkCity = kPlayer.getCapitalCity();
; 2541 : 		if (kPlayer.isHuman() && pkCity && eResult != CvGameReligions::FOUNDING_NO_BELIEFS_AVAILABLE)
; 2542 : 		{
; 2543 : 			CvNotifications* pNotifications = kPlayer.GetNotifications();
; 2544 : 			if (pNotifications)
; 2545 : 			{
; 2546 : 				CvString strBuffer = GetLocalizedText("TXT_KEY_NOTIFICATION_ENHANCE_RELIGION");
; 2547 : 				CvString strSummary = GetLocalizedText("TXT_KEY_NOTIFICATION_SUMMARY_ENHANCE_RELIGION");
; 2548 : 				pNotifications->Add(NOTIFICATION_ENHANCE_RELIGION, strBuffer, strSummary, pkCity->getX(), pkCity->getY(), -1, pkCity->GetID());
; 2549 : 			}
; 2550 : 			kPlayer.GetReligions()->SetFoundingReligion(true);
; 2551 : 		}
; 2552 : #ifdef AUI_DLLNETMESSAGEHANDLER_FIX_RESPAWN_PROPHET_IF_BEATEN_TO_LAST_RELIGION
; 2553 : 		else if (kPlayer.getCapitalCity())
; 2554 : 		{
; 2555 : 			UnitTypes eUnit = (UnitTypes)GC.getInfoTypeForString("UNIT_PROPHET", true);
; 2556 : 			if (eUnit != NO_UNIT)
; 2557 : 			{
; 2558 : 				kPlayer.getCapitalCity()->GetCityCitizens()->DoSpawnGreatPerson(eUnit, false /*bIncrementCount*/, false, true);
; 2559 : 			}
; 2560 : 	}
; 2561 : #endif
; 2562 : 	}
; 2563 : #else
; 2564 : 	GC.getGame().GetGameReligions()->EnhanceReligion(ePlayer, eReligion, eBelief1, eBelief2);

	mov	ecx, DWORD PTR ?gGlobals@@3VCvGlobals@@A+48
	add	esp, 32					; 00000020H
	push	eax
	push	ebp
	push	ebx
	push	edi
	call	?GetGameReligions@CvGame@@QAEPAVCvGameReligions@@XZ ; CvGame::GetGameReligions
	mov	ecx, eax
	call	?EnhanceReligion@CvGameReligions@@QAEXW4PlayerTypes@@W4ReligionTypes@@W4BeliefTypes@@2@Z ; CvGameReligions::EnhanceReligion
	pop	edi
	pop	esi
	pop	ebp

; 2565 : #endif
; 2566 : 
; 2567 : 	return 0;

	xor	eax, eax
	pop	ebx

; 2568 : }

	ret	0
?lEnhanceReligion@CvLuaGame@@KAHPAUlua_State@@@Z ENDP	; CvLuaGame::lEnhanceReligion
_TEXT	ENDS
PUBLIC	?lSetHolyCity@CvLuaGame@@KAHPAUlua_State@@@Z	; CvLuaGame::lSetHolyCity
EXTRN	?SetHolyCity@CvGameReligions@@QAEXW4ReligionTypes@@PAVCvCity@@@Z:PROC ; CvGameReligions::SetHolyCity
; Function compile flags: /Ogtpy
;	COMDAT ?lSetHolyCity@CvLuaGame@@KAHPAUlua_State@@@Z
_TEXT	SEGMENT
_eReligion$ = -4					; size = 4
_L$ = 8							; size = 4
?lSetHolyCity@CvLuaGame@@KAHPAUlua_State@@@Z PROC	; CvLuaGame::lSetHolyCity, COMDAT

; 2571 : {

	push	ecx
	push	ebx
	push	ebp
	push	esi

; 2572 : 	const ReligionTypes eReligion = static_cast<ReligionTypes>(luaL_checkint(L, 1));

	mov	esi, DWORD PTR _L$[esp+12]
	push	edi
	push	1
	push	esi
	call	_luaL_checkinteger

