; Listing generated by Microsoft (R) Optimizing Compiler Version 15.00.30729.01 

	TITLE	c:\Users\EnormousApplePie\Desktop\Lekmod Files\Lekmod DLL versions\v29\LEKMOD_DLL\CvGameCoreDLL_Expansion2\Lua\CvLuaPlot.cpp
	.686P
	.XMM
	include listing.inc
	.model	flat

INCLUDELIB MSVCRT
INCLUDELIB OLDNAMES

CONST	SEGMENT
$SG220417 DB	'CanHaveFeature', 00H
	ORG $+1
$SG220418 DB	'GetFeatureType', 00H
	ORG $+1
$SG220419 DB	'GetTerrainType', 00H
	ORG $+1
$SG220420 DB	'IsRiver', 00H
$SG220421 DB	'IsWater', 00H
$SG220422 DB	'SetFeatureType', 00H
	ORG $+1
$SG220423 DB	'SetTerrainType', 00H
	ORG $+1
$SG220424 DB	'IsNone', 00H
	ORG $+1
$SG220425 DB	'Erase', 00H
	ORG $+2
$SG220426 DB	'GetTeam', 00H
$SG220427 DB	'NukeExplosion', 00H
	ORG $+2
$SG220428 DB	'GetInlandCorner', 00H
$SG220429 DB	'UpdateFog', 00H
	ORG $+2
$SG220430 DB	'UpdateVisibility', 00H
	ORG $+3
$SG220431 DB	'IsAdjacentToArea', 00H
	ORG $+3
$SG220432 DB	'ShareAdjacentArea', 00H
	ORG $+2
$SG220433 DB	'IsAdjacentToLand', 00H
	ORG $+3
$SG220434 DB	'IsAdjacentToShallowWater', 00H
	ORG $+3
$SG220435 DB	'IsCoastalLand', 00H
	ORG $+2
$SG220436 DB	'IsWithinTeamCityRadius', 00H
	ORG $+1
$SG220437 DB	'IsLake', 00H
	ORG $+1
$SG220438 DB	'IsFreshWater', 00H
	ORG $+3
$SG220439 DB	'IsRiverSide', 00H
$SG220440 DB	'IsRiverConnection', 00H
	ORG $+2
$SG220441 DB	'IsRiverCrossingFlowClockwise', 00H
	ORG $+3
$SG220442 DB	'GetNearestLandArea', 00H
	ORG $+1
$SG220443 DB	'SeeFromLevel', 00H
	ORG $+3
$SG220444 DB	'GetNearestLandPlot', 00H
	ORG $+1
$SG220445 DB	'SeeThroughLevel', 00H
$SG220446 DB	'CanHaveResource', 00H
$SG220447 DB	'CanHaveImprovement', 00H
	ORG $+1
$SG220448 DB	'CanBuild', 00H
	ORG $+3
$SG220449 DB	'GetBuildTime', 00H
	ORG $+3
$SG220450 DB	'GetBuildTurnsLeft', 00H
	ORG $+2
$SG220451 DB	'GetBuildTurnsTotal', 00H
	ORG $+1
$SG220452 DB	'GetFeatureProduction', 00H
	ORG $+3
$SG220453 DB	'GetFeatureFood', 00H
	ORG $+1
$SG220454 DB	'GetBestDefender', 00H
$SG220455 DB	'GetSelectedUnit', 00H
$SG220456 DB	'GetUnitPower', 00H
	ORG $+3
$SG220457 DB	'DefenseModifier', 00H
$SG220458 DB	'MovementCost', 00H
	ORG $+3
$SG220459 DB	'GetExtraMovePathCost', 00H
	ORG $+3
$SG220460 DB	'ChangeExtraMovePathCost', 00H
$SG220461 DB	'IsAdjacentOwned', 00H
$SG220462 DB	'IsAdjacentPlayer', 00H
	ORG $+3
$SG220463 DB	'IsAdjacentTeam', 00H
	ORG $+1
$SG220464 DB	'IsOwned', 00H
$SG220465 DB	'IsBarbarian', 00H
$SG220466 DB	'IsRevealedBarbarian', 00H
$SG220467 DB	'HasBarbarianCamp', 00H
	ORG $+3
$SG220468 DB	'IsVisible', 00H
	ORG $+2
$SG220469 DB	'IsActiveVisible', 00H
$SG220470 DB	'IsVisibleToWatchingHuman', 00H
	ORG $+3
$SG220471 DB	'IsAdjacentVisible', 00H
	ORG $+2
$SG220472 DB	'IsAdjacentNonvisible', 00H
	ORG $+3
$SG220473 DB	'IsAdjacentRevealed', 00H
	ORG $+1
$SG220474 DB	'IsAdjacentNonrevealed', 00H
	ORG $+2
$SG220475 DB	'RemoveGoody', 00H
$SG220476 DB	'IsGoody', 00H
$SG220477 DB	'IsRevealedGoody', 00H
$SG220478 DB	'IsFriendlyTerritory', 00H
$SG220479 DB	'IsCity', 00H
	ORG $+1
$SG220480 DB	'IsFriendlyCity', 00H
	ORG $+1
$SG220481 DB	'IsEnemyCity', 00H
$SG220482 DB	'IsBeingWorked', 00H
	ORG $+2
$SG220483 DB	'IsUnit', 00H
	ORG $+1
$SG220484 DB	'IsVisibleEnemyDefender', 00H
	ORG $+1
$SG220485 DB	'GetNumDefenders', 00H
$SG220486 DB	'GetNumVisibleEnemyDefenders', 00H
$SG220487 DB	'GetNumVisiblePotentialEnemyDefenders', 00H
	ORG $+3
$SG220488 DB	'IsVisibleEnemyUnit', 00H
	ORG $+1
$SG220489 DB	'IsVisibleOtherUnit', 00H
	ORG $+1
$SG220490 DB	'GetNumFriendlyUnitsOfType', 00H
	ORG $+2
$SG220491 DB	'IsFighting', 00H
	ORG $+1
$SG220492 DB	'IsRoute', 00H
$SG220493 DB	'IsTradeRoute', 00H
	ORG $+3
$SG220494 DB	'IsValidDomainForLocation', 00H
	ORG $+3
$SG220495 DB	'IsValidDomainForAction', 00H
	ORG $+1
$SG220496 DB	'IsImpassable', 00H
	ORG $+3
$SG220497 DB	'GetX', 00H
	ORG $+3
$SG220498 DB	'GetY', 00H
	ORG $+3
$SG220499 DB	'At', 00H
	ORG $+1
$SG220500 DB	'GetPlotIndex', 00H
	ORG $+3
$SG220501 DB	'GetLatitude', 00H
$SG220502 DB	'Area', 00H
	ORG $+3
$SG220503 DB	'WaterArea', 00H
	ORG $+2
$SG220504 DB	'GetArea', 00H
$SG220505 DB	'SetArea', 00H
$SG220506 DB	'GetFeatureVariety', 00H
	ORG $+2
$SG220507 DB	'GetOwnershipDuration', 00H
	ORG $+3
$SG220508 DB	'IsOwnershipScore', 00H
	ORG $+3
$SG220509 DB	'SetOwnershipDuration', 00H
	ORG $+3
$SG220510 DB	'ChangeOwnershipDuration', 00H
$SG220511 DB	'GetImprovementDuration', 00H
	ORG $+1
$SG220512 DB	'SetImprovementDuration', 00H
	ORG $+1
$SG220513 DB	'ChangeImprovementDuration', 00H
	ORG $+2
$SG220514 DB	'GetUpgradeProgress', 00H
	ORG $+1
$SG220515 DB	'GetUpgradeTimeLeft', 00H
	ORG $+1
$SG220516 DB	'SetUpgradeProgress', 00H
	ORG $+1
$SG220517 DB	'ChangeUpgradeProgress', 00H
	ORG $+2
$SG220518 DB	'GetCityRadiusCount', 00H
	ORG $+1
$SG220519 DB	'IsCityRadius', 00H
	ORG $+3
$SG220520 DB	'IsStartingPlot', 00H
	ORG $+1
$SG220521 DB	'SetStartingPlot', 00H
$SG220522 DB	'IsNEOfRiver', 00H
$SG220523 DB	'SetNEOfRiver', 00H
	ORG $+3
$SG220524 DB	'IsWOfRiver', 00H
	ORG $+1
$SG220525 DB	'SetWOfRiver', 00H
$SG220526 DB	'IsNWOfRiver', 00H
$SG220527 DB	'SetNWOfRiver', 00H
	ORG $+3
$SG220528 DB	'GetRiverEFlowDirection', 00H
	ORG $+1
$SG220529 DB	'GetRiverSEFlowDirection', 00H
$SG220530 DB	'GetRiverSWFlowDirection', 00H
$SG220531 DB	'IsPotentialCityWork', 00H
$SG220532 DB	'IsPotentialCityWorkForArea', 00H
	ORG $+1
$SG220533 DB	'GetOwner', 00H
	ORG $+3
$SG220534 DB	'SetOwner', 00H
	ORG $+3
$SG220535 DB	'GetPlotType', 00H
$SG220536 DB	'IsFlatlands', 00H
$SG220537 DB	'IsHills', 00H
$SG220538 DB	'IsOpenGround', 00H
	ORG $+3
$SG220539 DB	'IsRoughGround', 00H
	ORG $+2
$SG220540 DB	'IsMountain', 00H
	ORG $+1
$SG220541 DB	'SetPlotType', 00H
$SG220542 DB	'GetResourceType', 00H
$SG220543 DB	'GetNonObsoleteResourceType', 00H
	ORG $+1
$SG220544 DB	'SetResourceType', 00H
$SG220545 DB	'GetNumResource', 00H
	ORG $+1
$SG220546 DB	'SetNumResource', 00H
	ORG $+1
$SG220547 DB	'ChangeNumResource', 00H
	ORG $+2
$SG220548 DB	'GetImprovementType', 00H
	ORG $+1
$SG220549 DB	'SetImprovementType', 00H
	ORG $+1
$SG220550 DB	'SetImprovementPillaged', 00H
	ORG $+1
$SG220551 DB	'GetRouteType', 00H
	ORG $+3
$SG220552 DB	'SetRouteType', 00H
	ORG $+3
$SG220553 DB	'IsRoutePillaged', 00H
$SG220554 DB	'GetPlotCity', 00H
$SG220555 DB	'GetWorkingCity', 00H
	ORG $+1
$SG220556 DB	'GetWorkingCityOverride', 00H
	ORG $+1
$SG220557 DB	'GetReconCount', 00H
	ORG $+2
$SG220558 DB	'GetRiverCrossingCount', 00H
	ORG $+2
$SG220559 DB	'GetYield', 00H
	ORG $+3
$SG220560 DB	'CalculateNatureYield', 00H
	ORG $+3
$SG220561 DB	'CalculateBestNatureYield', 00H
	ORG $+3
$SG220562 DB	'CalculateTotalBestNatureYield', 00H
	ORG $+2
$SG220563 DB	'CalculateImprovementYieldChange', 00H
$SG220564 DB	'CalculateYield', 00H
	ORG $+1
$SG220565 DB	'HasYield', 00H
	ORG $+3
$SG220566 DB	'GetYieldWithBuild', 00H
	ORG $+2
$SG220567 DB	'CountNumAirUnits', 00H
	ORG $+3
$SG220568 DB	'GetFoundValue', 00H
	ORG $+2
$SG220569 DB	'IsBestAdjacentFound', 00H
$SG220570 DB	'GetPlayerCityRadiusCount', 00H
	ORG $+3
$SG220571 DB	'IsPlayerCityRadius', 00H
	ORG $+1
$SG220572 DB	'GetVisibilityCount', 00H
	ORG $+1
$SG220573 DB	'ChangeVisibilityCount', 00H
	ORG $+2
$SG220574 DB	'GetRevealedOwner', 00H
	ORG $+3
$SG220575 DB	'GetRevealedTeam', 00H
$SG220576 DB	'IsRiverCrossing', 00H
$SG220577 DB	'IsRiverCrossingToPlot', 00H
	ORG $+2
$SG220578 DB	'IsRevealed', 00H
	ORG $+1
$SG220579 DB	'SetRevealed', 00H
$SG220580 DB	'GetRevealedImprovementType', 00H
	ORG $+1
$SG220581 DB	'GetRevealedRouteType', 00H
	ORG $+3
$SG220582 DB	'GetBuildProgress', 00H
	ORG $+3
$SG220583 DB	'ChangeBuildProgress', 00H
$SG220584 DB	'GetInvisibleVisibilityCount', 00H
$SG220585 DB	'IsInvisibleVisible', 00H
	ORG $+1
$SG220586 DB	'ChangeInvisibleVisibilityCount', 00H
	ORG $+1
$SG220587 DB	'GetNumUnits', 00H
$SG220588 DB	'GetUnit', 00H
$SG220589 DB	'GetNumLayerUnits', 00H
	ORG $+3
$SG220590 DB	'GetLayerUnit', 00H
	ORG $+3
$SG220591 DB	'GetScriptData', 00H
	ORG $+2
$SG220592 DB	'SetScriptData', 00H
	ORG $+2
$SG220593 DB	'GetActiveFogOfWarMode', 00H
	ORG $+2
$SG220594 DB	'IsImprovementPillaged', 00H
	ORG $+2
$SG220595 DB	'CanSeePlot', 00H
	ORG $+1
$SG220596 DB	'GetContinentArtType', 00H
$SG220597 DB	'SetContinentArtType', 00H
$SG220598 DB	'IsResourceConnectedByImprovement', 00H
	ORG $+3
$SG220599 DB	'IsBuildRemovesFeature', 00H
	ORG $+2
$SG220600 DB	'GetArchaeologyArtifactType', 00H
	ORG $+1
$SG220601 DB	'GetArchaeologyArtifactEra', 00H
	ORG $+2
$SG220602 DB	'GetArchaeologyArtifactPlayer1', 00H
	ORG $+2
$SG220603 DB	'GetArchaeologyArtifactPlayer2', 00H
	ORG $+2
$SG220604 DB	'GetArchaeologyArtifactWork', 00H
	ORG $+1
$SG220605 DB	'HasWrittenArtifact', 00H
	ORG $+1
$SG220606 DB	'GetCityPurchaseID', 00H
	ORG $+2
$SG220607 DB	'SetCityPurchaseID', 00H
	ORG $+2
$SG220613 DB	'Plot', 00H
	ORG $+3
$SG222921 DB	'__instances', 00H
$SG222922 DB	'__mode', 00H
	ORG $+1
$SG222923 DB	'v', 00H
	ORG $+2
$SG222925 DB	'__instances', 00H
$SG222928 DB	'__instance', 00H
	ORG $+1
$SG222929 DB	'__index', 00H
$SG222944 DB	'__instance', 00H
	ORG $+1
$SG222950 DB	'Not a valid instance.  Either the instance is NULL or yo'
	DB	'u used ''.'' instead of '':''.', 00H
	ORG $+1
$SG222961 DB	'__instances', 00H
$SG222962 DB	'__mode', 00H
	ORG $+1
$SG222963 DB	'v', 00H
	ORG $+2
$SG222965 DB	'__instances', 00H
$SG222968 DB	'__instance', 00H
	ORG $+1
$SG222969 DB	'__index', 00H
$SG222990 DB	'__instances', 00H
$SG222991 DB	'__mode', 00H
	ORG $+1
$SG222992 DB	'v', 00H
	ORG $+2
$SG222994 DB	'__instances', 00H
$SG222997 DB	'__instance', 00H
	ORG $+1
$SG222998 DB	'__index', 00H
$SG223013 DB	'__instance', 00H
	ORG $+1
$SG223019 DB	'Not a valid instance.  Either the instance is NULL or yo'
	DB	'u used ''.'' instead of '':''.', 00H
	ORG $+1
$SG223027 DB	'Instance does not exist.', 00H
	ORG $+3
$SG223038 DB	'__instances', 00H
$SG223039 DB	'__mode', 00H
	ORG $+1
$SG223040 DB	'v', 00H
	ORG $+2
$SG223042 DB	'__instances', 00H
$SG223045 DB	'__instance', 00H
	ORG $+1
$SG223046 DB	'__index', 00H
$SG223061 DB	'__instance', 00H
	ORG $+5
$SG223067 DB	'Not a valid instance.  Either the instance is NULL or yo'
	DB	'u used ''.'' instead of '':''.', 00H
CONST	ENDS
EXTRN	_lua_tointeger:PROC
; Function compile flags: /Ogtpy
; File c:\users\enormousapplepie\desktop\lekmod files\lekmod dll versions\v29\lekmod_dll\cvgamecoredllutil\include\cvluaargtemplates.h
;	COMDAT ??$toValue@H@CvLuaArgs@@YAHPAUlua_State@@H@Z
_TEXT	SEGMENT
??$toValue@H@CvLuaArgs@@YAHPAUlua_State@@H@Z PROC	; CvLuaArgs::toValue<int>, COMDAT
; _L$ = ecx
; _idx$ = eax

; 19   : 		return lua_tointeger(L, idx);

	push	eax
	push	ecx
	call	_lua_tointeger
	add	esp, 8

; 20   : 	}

	ret	0
??$toValue@H@CvLuaArgs@@YAHPAUlua_State@@H@Z ENDP	; CvLuaArgs::toValue<int>
_TEXT	ENDS
EXTRN	_lua_toboolean:PROC
; Function compile flags: /Ogtpy
;	COMDAT ??$toValue@_N@CvLuaArgs@@YA_NPAUlua_State@@H@Z
_TEXT	SEGMENT
??$toValue@_N@CvLuaArgs@@YA_NPAUlua_State@@H@Z PROC	; CvLuaArgs::toValue<bool>, COMDAT
; _L$ = ecx
; _idx$ = eax

; 24   : 		return lua_toboolean(L, idx) != 0;

	push	eax
	push	ecx
	call	_lua_toboolean
	add	esp, 8
	neg	eax
	sbb	eax, eax
	neg	eax

; 25   : 	}

	ret	0
??$toValue@_N@CvLuaArgs@@YA_NPAUlua_State@@H@Z ENDP	; CvLuaArgs::toValue<bool>
_TEXT	ENDS
EXTRN	_lua_pushinteger:PROC
; Function compile flags: /Ogtpy
;	COMDAT ??$pushValue@H@CvLuaArgs@@YAXPAUlua_State@@H@Z
_TEXT	SEGMENT
??$pushValue@H@CvLuaArgs@@YAXPAUlua_State@@H@Z PROC	; CvLuaArgs::pushValue<int>, COMDAT
; _L$ = ecx
; _t$ = eax

; 39   : 		lua_pushinteger(L, t);

	push	eax
	push	ecx
	call	_lua_pushinteger
	add	esp, 8

; 40   : 	}

	ret	0
??$pushValue@H@CvLuaArgs@@YAXPAUlua_State@@H@Z ENDP	; CvLuaArgs::pushValue<int>
_TEXT	ENDS
EXTRN	_lua_pushboolean:PROC
; Function compile flags: /Ogtpy
;	COMDAT ??$pushValue@_N@CvLuaArgs@@YAXPAUlua_State@@_N@Z
_TEXT	SEGMENT
??$pushValue@_N@CvLuaArgs@@YAXPAUlua_State@@_N@Z PROC	; CvLuaArgs::pushValue<bool>, COMDAT
; _L$ = ecx
; _t$ = eax

; 45   : 		lua_pushboolean(L, t);

	movzx	eax, al
	push	eax
	push	ecx
	call	_lua_pushboolean
	add	esp, 8

; 46   : 	}

	ret	0
??$pushValue@_N@CvLuaArgs@@YAXPAUlua_State@@_N@Z ENDP	; CvLuaArgs::pushValue<bool>
_TEXT	ENDS
PUBLIC	?wrapCoordDifference@@YAHHI_N@Z			; wrapCoordDifference
; Function compile flags: /Ogtpy
; File c:\users\enormousapplepie\desktop\lekmod files\lekmod dll versions\v29\lekmod_dll\cvgamecoredll_expansion2\cvgamecoreutils.h
;	COMDAT ?wrapCoordDifference@@YAHHI_N@Z
_TEXT	SEGMENT
_iDiff$ = 8						; size = 4
_uiRange$ = 12						; size = 4
_bWrap$ = 16						; size = 1
?wrapCoordDifference@@YAHHI_N@Z PROC			; wrapCoordDifference, COMDAT

; 57   : 	if(bWrap)

	cmp	BYTE PTR _bWrap$[esp-4], 0
	mov	eax, DWORD PTR _iDiff$[esp-4]
	je	SHORT $LN5@wrapCoordD

; 58   : 	{
; 59   : 		if(iDiff > (int)(uiRange >> 1))		// Using an unsigned int so we can safely assume that value >> 1 == value / 2

	mov	edx, DWORD PTR _uiRange$[esp-4]
	mov	ecx, edx
	shr	ecx, 1
	cmp	eax, ecx
	jle	SHORT $LN3@wrapCoordD

; 60   : 		{
; 61   : 			return (iDiff - (int)uiRange);

	sub	eax, edx

; 66   : 		}
; 67   : 	}
; 68   : 
; 69   : 	return iDiff;
; 70   : }

	ret	0
$LN3@wrapCoordD:

; 62   : 		}
; 63   : 		else if(iDiff < -(int)(uiRange >> 1))

	neg	ecx
	cmp	eax, ecx
	jge	SHORT $LN5@wrapCoordD

; 64   : 		{
; 65   : 			return (iDiff + (int)uiRange);

	add	eax, edx
$LN5@wrapCoordD:

; 66   : 		}
; 67   : 	}
; 68   : 
; 69   : 	return iDiff;
; 70   : }

	ret	0
?wrapCoordDifference@@YAHHI_N@Z ENDP			; wrapCoordDifference
_TEXT	ENDS
PUBLIC	?xToHexspaceX@@YAHHH@Z				; xToHexspaceX
; Function compile flags: /Ogtpy
;	COMDAT ?xToHexspaceX@@YAHHH@Z
_TEXT	SEGMENT
_iX$ = 8						; size = 4
_iY$ = 12						; size = 4
?xToHexspaceX@@YAHHH@Z PROC				; xToHexspaceX, COMDAT

; 86   : 	return iX - ((iY >= 0) ? (iY>>1) : ((iY - 1)/2));

	mov	ecx, DWORD PTR _iY$[esp-4]
	test	ecx, ecx
	jge	SHORT $LN5@xToHexspac
	lea	eax, DWORD PTR [ecx-1]
	cdq
	sub	eax, edx
	mov	ecx, eax
$LN5@xToHexspac:
	mov	eax, DWORD PTR _iX$[esp-4]
	sar	ecx, 1
	sub	eax, ecx

; 87   : }

	ret	0
?xToHexspaceX@@YAHHH@Z ENDP				; xToHexspaceX
_TEXT	ENDS
PUBLIC	?GetTypeName@CvLuaPlot@@SAPBDXZ			; CvLuaPlot::GetTypeName
; Function compile flags: /Ogtpy
; File c:\users\enormousapplepie\desktop\lekmod files\lekmod dll versions\v29\lekmod_dll\cvgamecoredll_expansion2\lua\cvluaplot.cpp
;	COMDAT ?GetTypeName@CvLuaPlot@@SAPBDXZ
_TEXT	SEGMENT
?GetTypeName@CvLuaPlot@@SAPBDXZ PROC			; CvLuaPlot::GetTypeName, COMDAT

; 283  : 	return "Plot";

	mov	eax, OFFSET $SG220613

; 284  : }

	ret	0
?GetTypeName@CvLuaPlot@@SAPBDXZ ENDP			; CvLuaPlot::GetTypeName
_TEXT	ENDS
PUBLIC	?pointer@?$FObjectHandle@VCvUnit@@@@QAEPAVCvUnit@@XZ ; FObjectHandle<CvUnit>::pointer
; Function compile flags: /Ogtpy
; File c:\users\enormousapplepie\desktop\lekmod files\lekmod dll versions\v29\lekmod_dll\fireplace\include\fireworks\fobjecthandle.h
;	COMDAT ?pointer@?$FObjectHandle@VCvUnit@@@@QAEPAVCvUnit@@XZ
_TEXT	SEGMENT
?pointer@?$FObjectHandle@VCvUnit@@@@QAEPAVCvUnit@@XZ PROC ; FObjectHandle<CvUnit>::pointer, COMDAT
; _this$ = ecx

; 78   : 		return m_target;

	mov	eax, DWORD PTR [ecx]

; 79   : 	}

	ret	0
?pointer@?$FObjectHandle@VCvUnit@@@@QAEPAVCvUnit@@XZ ENDP ; FObjectHandle<CvUnit>::pointer
_TEXT	ENDS
PUBLIC	?removeTarget@?$DestructionNotification@V?$FObjectHandle@VCvUnit@@@@@@QAEXABV?$FObjectHandle@VCvUnit@@@@@Z ; DestructionNotification<FObjectHandle<CvUnit> >::removeTarget
; Function compile flags: /Ogtpy
;	COMDAT ?removeTarget@?$DestructionNotification@V?$FObjectHandle@VCvUnit@@@@@@QAEXABV?$FObjectHandle@VCvUnit@@@@@Z
_TEXT	SEGMENT
_target$ = 8						; size = 4
?removeTarget@?$DestructionNotification@V?$FObjectHandle@VCvUnit@@@@@@QAEXABV?$FObjectHandle@VCvUnit@@@@@Z PROC ; DestructionNotification<FObjectHandle<CvUnit> >::removeTarget, COMDAT
; _this$ = ecx

; 63   : #ifdef TRACK_DESTRUCTION_NOTIFICATION
; 64   : 		m_targets.erase(&target);
; 65   : #endif
; 66   : 	}

	ret	4
?removeTarget@?$DestructionNotification@V?$FObjectHandle@VCvUnit@@@@@@QAEXABV?$FObjectHandle@VCvUnit@@@@@Z ENDP ; DestructionNotification<FObjectHandle<CvUnit> >::removeTarget
_TEXT	ENDS
PUBLIC	?Push@?$CvLuaScopedInstance@VCvLuaArea@@VCvArea@@@@SAXPAUlua_State@@PAVCvArea@@@Z ; CvLuaScopedInstance<CvLuaArea,CvArea>::Push
EXTRN	_lua_pushnil:PROC
EXTRN	_lua_remove:PROC
EXTRN	_lua_pushlightuserdata:PROC
EXTRN	_lua_rawget:PROC
EXTRN	?PushMethods@CvLuaArea@@SAXPAUlua_State@@H@Z:PROC ; CvLuaArea::PushMethods
EXTRN	_lua_gettop:PROC
EXTRN	_lua_setfield:PROC
EXTRN	_lua_pushvalue:PROC
EXTRN	_lua_setmetatable:PROC
EXTRN	_lua_rawset:PROC
EXTRN	_lua_pushstring:PROC
EXTRN	_lua_createtable:PROC
EXTRN	_lua_settop:PROC
EXTRN	_lua_type:PROC
EXTRN	_lua_getfield:PROC
EXTRN	?GetTypeName@CvLuaArea@@SAPBDXZ:PROC		; CvLuaArea::GetTypeName
; Function compile flags: /Ogtpy
; File c:\users\enormousapplepie\desktop\lekmod files\lekmod dll versions\v29\lekmod_dll\cvgamecoredll_expansion2\lua\cvluascopedinstance.h
;	COMDAT ?Push@?$CvLuaScopedInstance@VCvLuaArea@@VCvArea@@@@SAXPAUlua_State@@PAVCvArea@@@Z
_TEXT	SEGMENT
_L$ = 8							; size = 4
_pkType$ = 12						; size = 4
?Push@?$CvLuaScopedInstance@VCvLuaArea@@VCvArea@@@@SAXPAUlua_State@@PAVCvArea@@@Z PROC ; CvLuaScopedInstance<CvLuaArea,CvArea>::Push, COMDAT

; 39   : {

	push	edi

; 40   : 	//Pushing an instance involves more than just actually pushing a pointer into the
; 41   : 	//Lua stack.  There are some caching optimizations that are done as well as some
; 42   : 	//checks.
; 43   : 	//The first step is to load or create a global table <Typename> to store all member
; 44   : 	//methods and all pushed instances.  This conserves memory and offers faster pushing
; 45   : 	//speed.
; 46   : 	//If <Typename>.__instances[pkType] is not nil, return that value.
; 47   : 	//otherwise push a new instance and assign it to __instances.
; 48   : 
; 49   : 	//NOTE: Raw gets and sets are used as an optimization over using lua_[get,set]field
; 50   : 	if(pkType)

	mov	edi, DWORD PTR _pkType$[esp]
	test	edi, edi
	je	$LN4@Push
	push	ebx
	push	ebp
	push	esi

; 51   : 	{
; 52   : 		//const int t = lua_gettop(L);
; 53   : 
; 54   : 		lua_getglobal(L, Derived::GetTypeName());

	call	?GetTypeName@CvLuaArea@@SAPBDXZ		; CvLuaArea::GetTypeName
	mov	esi, DWORD PTR _L$[esp+12]
	push	eax
	push	-10002					; ffffd8eeH
	push	esi
	call	_lua_getfield

; 55   : 		if(lua_isnil(L, -1))

	push	-1
	push	esi
	call	_lua_type
	add	esp, 20					; 00000014H
	test	eax, eax
	jne	$LN7@Push

; 56   : 		{
; 57   : 			//Typename wasn't found, time to build it.
; 58   : 			lua_pop(L, 1);

	push	-2					; fffffffeH
	push	esi
	call	_lua_settop

; 59   : 			lua_newtable(L);

	push	0
	push	0
	push	esi
	call	_lua_createtable

; 60   : 
; 61   : 			//Create weak __instances table.
; 62   : 			lua_pushstring(L, "__instances");

	push	OFFSET $SG222921
	push	esi
	call	_lua_pushstring

; 63   : 			lua_newtable(L);

	push	0
	push	0
	push	esi
	call	_lua_createtable

; 64   : 
; 65   : 			//Create __instances.mt
; 66   : 			lua_newtable(L);

	push	0
	push	0
	push	esi
	call	_lua_createtable

; 67   : 			lua_pushstring(L, "__mode");

	push	OFFSET $SG222922
	push	esi
	call	_lua_pushstring

; 68   : 			lua_pushstring(L, "v");

	push	OFFSET $SG222923
	push	esi
	call	_lua_pushstring
	add	esp, 68					; 00000044H

; 69   : 			lua_rawset(L, -3);				// mt.__mode = "v";

	push	-3					; fffffffdH
	push	esi
	call	_lua_rawset

; 70   : 			lua_setmetatable(L, -2);

	push	-2					; fffffffeH
	push	esi
	call	_lua_setmetatable

; 71   : 
; 72   : 			lua_rawset(L, -3);				//type.__instances = t;

	push	-3					; fffffffdH
	push	esi
	call	_lua_rawset

; 73   : 
; 74   : 
; 75   : 			lua_pushvalue(L, -1);

	push	-1
	push	esi
	call	_lua_pushvalue

; 76   : 			lua_setglobal(L, Derived::GetTypeName());

	call	?GetTypeName@CvLuaArea@@SAPBDXZ		; CvLuaArea::GetTypeName
	push	eax
	push	-10002					; ffffd8eeH
	push	esi
	call	_lua_setfield

; 77   : 
; 78   : 			Derived::PushMethods(L, lua_gettop(L));

	push	esi
	call	_lua_gettop
	push	eax
	push	esi
	call	?PushMethods@CvLuaArea@@SAXPAUlua_State@@H@Z ; CvLuaArea::PushMethods
	add	esp, 56					; 00000038H
$LN7@Push:

; 79   : 		}
; 80   : 		const int type_index = lua_gettop(L);

	push	esi
	call	_lua_gettop

; 81   : 
; 82   : 		lua_pushstring(L, "__instances");

	push	OFFSET $SG222925
	push	esi
	mov	ebx, eax
	call	_lua_pushstring

; 83   : 		lua_rawget(L, -2);

	push	-2					; fffffffeH
	push	esi
	call	_lua_rawget

; 84   : 
; 85   : 		const int instances_index = lua_gettop(L);

	push	esi
	call	_lua_gettop

; 86   : 
; 87   : 		lua_pushlightuserdata(L, pkType);

	push	edi
	push	esi
	mov	ebp, eax
	call	_lua_pushlightuserdata

; 88   : 
; 89   : 		lua_rawget(L, -2);					//retrieve type.__instances[pkType]

	push	-2					; fffffffeH
	push	esi
	call	_lua_rawget

; 90   : 
; 91   : 		if(lua_isnil(L, -1))

	push	-1
	push	esi
	call	_lua_type
	add	esp, 48					; 00000030H
	test	eax, eax
	jne	SHORT $LN2@Push

; 92   : 		{
; 93   : 			lua_pop(L, 1);

	push	-2					; fffffffeH
	push	esi
	call	_lua_settop

; 94   : 
; 95   : 			//Push new instance
; 96   : 			lua_createtable(L, 0, 1);

	push	1
	push	0
	push	esi
	call	_lua_createtable

; 97   : 			lua_pushlightuserdata(L, pkType);

	push	edi
	push	esi
	call	_lua_pushlightuserdata

; 98   : 			lua_setfield(L, -2, "__instance");

	push	OFFSET $SG222928
	push	-2					; fffffffeH
	push	esi
	call	_lua_setfield

; 99   : 
; 100  : 			lua_createtable(L, 0, 1);			// create mt

	push	1
	push	0
	push	esi
	call	_lua_createtable

; 101  : 			lua_pushstring(L, "__index");

	push	OFFSET $SG222929
	push	esi
	call	_lua_pushstring

; 102  : 			lua_pushvalue(L, type_index);

	push	ebx
	push	esi
	call	_lua_pushvalue
	add	esp, 68					; 00000044H

; 103  : 			lua_rawset(L, -3);					// mt.__index = Type

	push	-3					; fffffffdH
	push	esi
	call	_lua_rawset

; 104  : 			lua_setmetatable(L, -2);

	push	-2					; fffffffeH
	push	esi
	call	_lua_setmetatable

; 105  : 
; 106  : 			//Assign it in instances
; 107  : 			lua_pushlightuserdata(L, pkType);

	push	edi
	push	esi
	call	_lua_pushlightuserdata

; 108  : 			lua_pushvalue(L, -2);

	push	-2					; fffffffeH
	push	esi
	call	_lua_pushvalue

; 109  : 			lua_rawset(L, instances_index);				//__instances[pkType] = t;

	push	ebp
	push	esi
	call	_lua_rawset
	add	esp, 40					; 00000028H
$LN2@Push:

; 110  : 		}
; 111  : 
; 112  : 		//VERIFY(instances_index > type_index);
; 113  : 		lua_remove(L, instances_index);

	push	ebp
	push	esi
	call	_lua_remove

; 114  : 		lua_remove(L, type_index);

	push	ebx
	push	esi
	call	_lua_remove
	add	esp, 16					; 00000010H
	pop	esi
	pop	ebp
	pop	ebx
	pop	edi

; 122  : 	}
; 123  : }

	ret	0
$LN4@Push:

; 115  : 
; 116  : 		//const int dt = lua_gettop(L);
; 117  : 		//VERIFY(dt == t + 1)
; 118  : 	}
; 119  : 	else
; 120  : 	{
; 121  : 		lua_pushnil(L);

	mov	eax, DWORD PTR _L$[esp]
	push	eax
	call	_lua_pushnil
	add	esp, 4
	pop	edi

; 122  : 	}
; 123  : }

	ret	0
?Push@?$CvLuaScopedInstance@VCvLuaArea@@VCvArea@@@@SAXPAUlua_State@@PAVCvArea@@@Z ENDP ; CvLuaScopedInstance<CvLuaArea,CvArea>::Push
_TEXT	ENDS
PUBLIC	?GetInstance@?$CvLuaScopedInstance@VCvLuaArea@@VCvArea@@@@SAPAVCvArea@@PAUlua_State@@H_N@Z ; CvLuaScopedInstance<CvLuaArea,CvArea>::GetInstance
EXTRN	?HandleMissingInstance@CvLuaArea@@SAXPAUlua_State@@@Z:PROC ; CvLuaArea::HandleMissingInstance
EXTRN	_luaL_error:PROC
EXTRN	_lua_touserdata:PROC
; Function compile flags: /Ogtpy
;	COMDAT ?GetInstance@?$CvLuaScopedInstance@VCvLuaArea@@VCvArea@@@@SAPAVCvArea@@PAUlua_State@@H_N@Z
_TEXT	SEGMENT
_L$ = 8							; size = 4
_idx$ = 12						; size = 4
_bErrorOnFail$ = 16					; size = 1
?GetInstance@?$CvLuaScopedInstance@VCvLuaArea@@VCvArea@@@@SAPAVCvArea@@PAUlua_State@@H_N@Z PROC ; CvLuaScopedInstance<CvLuaArea,CvArea>::GetInstance, COMDAT

; 127  : {

	push	ebx
	push	ebp
	push	esi

; 128  : 	const int stack_size = lua_gettop(L);

	mov	esi, DWORD PTR _L$[esp+8]
	push	edi
	push	esi
	call	_lua_gettop
	mov	ebp, eax

; 129  : 	bool bFail = true;
; 130  : 
; 131  : 	InstanceType* pkInstance = NULL;
; 132  : 	if(lua_type(L, idx) == LUA_TTABLE)

	mov	eax, DWORD PTR _idx$[esp+16]
	push	eax
	push	esi
	mov	bl, 1
	xor	edi, edi
	call	_lua_type
	add	esp, 12					; 0000000cH
	cmp	eax, 5
	jne	SHORT $LN3@GetInstanc

; 133  : 	{
; 134  : 		lua_getfield(L, idx, "__instance");

	mov	ecx, DWORD PTR _idx$[esp+12]
	push	OFFSET $SG222944
	push	ecx
	push	esi
	call	_lua_getfield

; 135  : 		if(lua_type(L, -1) == LUA_TLIGHTUSERDATA)

	push	-1
	push	esi
	call	_lua_type
	add	esp, 20					; 00000014H
	cmp	eax, 2
	jne	SHORT $LN3@GetInstanc

; 136  : 		{
; 137  : 			pkInstance = static_cast<InstanceType*>(lua_touserdata(L, -1));

	push	-1
	push	esi
	call	_lua_touserdata
	mov	edi, eax
	add	esp, 8

; 138  : 			if(pkInstance)

	test	edi, edi
	je	SHORT $LN3@GetInstanc

; 139  : 			{
; 140  : 				bFail = false;

	xor	bl, bl
$LN3@GetInstanc:

; 141  : 			}
; 142  : 		}
; 143  : 	}
; 144  : 
; 145  : 	lua_settop(L, stack_size);

	push	ebp
	push	esi
	call	_lua_settop
	add	esp, 8

; 146  : 
; 147  : 	if(bFail && bErrorOnFail)

	test	bl, bl
	je	SHORT $LN9@GetInstanc
	cmp	BYTE PTR _bErrorOnFail$[esp+12], 0
	je	SHORT $LN9@GetInstanc

; 148  : 	{
; 149  : 		if(idx == 1)

	cmp	DWORD PTR _idx$[esp+12], 1
	jne	SHORT $LN1@GetInstanc

; 150  : 			luaL_error(L, "Not a valid instance.  Either the instance is NULL or you used '.' instead of ':'.");

	push	OFFSET $SG222950
	push	esi
	call	_luaL_error
	add	esp, 8
$LN1@GetInstanc:

; 151  : 		Derived::HandleMissingInstance(L);

	push	esi
	call	?HandleMissingInstance@CvLuaArea@@SAXPAUlua_State@@@Z ; CvLuaArea::HandleMissingInstance
	add	esp, 4
$LN9@GetInstanc:

; 152  : 	}
; 153  : 	return pkInstance;

	mov	eax, edi
	pop	edi
	pop	esi
	pop	ebp
	pop	ebx

; 154  : }

	ret	0
?GetInstance@?$CvLuaScopedInstance@VCvLuaArea@@VCvArea@@@@SAPAVCvArea@@PAUlua_State@@H_N@Z ENDP ; CvLuaScopedInstance<CvLuaArea,CvArea>::GetInstance
_TEXT	ENDS
PUBLIC	?Push@?$CvLuaScopedInstance@VCvLuaCity@@VCvCity@@@@SAXPAUlua_State@@PAVCvCity@@@Z ; CvLuaScopedInstance<CvLuaCity,CvCity>::Push
EXTRN	?PushMethods@CvLuaCity@@SAXPAUlua_State@@H@Z:PROC ; CvLuaCity::PushMethods
EXTRN	?GetTypeName@CvLuaCity@@SAPBDXZ:PROC		; CvLuaCity::GetTypeName
; Function compile flags: /Ogtpy
;	COMDAT ?Push@?$CvLuaScopedInstance@VCvLuaCity@@VCvCity@@@@SAXPAUlua_State@@PAVCvCity@@@Z
_TEXT	SEGMENT
_L$ = 8							; size = 4
_pkType$ = 12						; size = 4
?Push@?$CvLuaScopedInstance@VCvLuaCity@@VCvCity@@@@SAXPAUlua_State@@PAVCvCity@@@Z PROC ; CvLuaScopedInstance<CvLuaCity,CvCity>::Push, COMDAT

; 39   : {

	push	edi

; 40   : 	//Pushing an instance involves more than just actually pushing a pointer into the
; 41   : 	//Lua stack.  There are some caching optimizations that are done as well as some
; 42   : 	//checks.
; 43   : 	//The first step is to load or create a global table <Typename> to store all member
; 44   : 	//methods and all pushed instances.  This conserves memory and offers faster pushing
; 45   : 	//speed.
; 46   : 	//If <Typename>.__instances[pkType] is not nil, return that value.
; 47   : 	//otherwise push a new instance and assign it to __instances.
; 48   : 
; 49   : 	//NOTE: Raw gets and sets are used as an optimization over using lua_[get,set]field
; 50   : 	if(pkType)

	mov	edi, DWORD PTR _pkType$[esp]
	test	edi, edi
	je	$LN4@Push@2
	push	ebx
	push	ebp
	push	esi

; 51   : 	{
; 52   : 		//const int t = lua_gettop(L);
; 53   : 
; 54   : 		lua_getglobal(L, Derived::GetTypeName());

	call	?GetTypeName@CvLuaCity@@SAPBDXZ		; CvLuaCity::GetTypeName
	mov	esi, DWORD PTR _L$[esp+12]
	push	eax
	push	-10002					; ffffd8eeH
	push	esi
	call	_lua_getfield

; 55   : 		if(lua_isnil(L, -1))

	push	-1
	push	esi
	call	_lua_type
	add	esp, 20					; 00000014H
	test	eax, eax
	jne	$LN7@Push@2

; 56   : 		{
; 57   : 			//Typename wasn't found, time to build it.
; 58   : 			lua_pop(L, 1);

	push	-2					; fffffffeH
	push	esi
	call	_lua_settop

; 59   : 			lua_newtable(L);

	push	0
	push	0
	push	esi
	call	_lua_createtable

; 60   : 
; 61   : 			//Create weak __instances table.
; 62   : 			lua_pushstring(L, "__instances");

	push	OFFSET $SG222961
	push	esi
	call	_lua_pushstring

; 63   : 			lua_newtable(L);

	push	0
	push	0
	push	esi
	call	_lua_createtable

; 64   : 
; 65   : 			//Create __instances.mt
; 66   : 			lua_newtable(L);

	push	0
	push	0
	push	esi
	call	_lua_createtable

; 67   : 			lua_pushstring(L, "__mode");

	push	OFFSET $SG222962
	push	esi
	call	_lua_pushstring

; 68   : 			lua_pushstring(L, "v");

	push	OFFSET $SG222963
	push	esi
	call	_lua_pushstring
	add	esp, 68					; 00000044H

; 69   : 			lua_rawset(L, -3);				// mt.__mode = "v";

	push	-3					; fffffffdH
	push	esi
	call	_lua_rawset

; 70   : 			lua_setmetatable(L, -2);

	push	-2					; fffffffeH
	push	esi
	call	_lua_setmetatable

; 71   : 
; 72   : 			lua_rawset(L, -3);				//type.__instances = t;

	push	-3					; fffffffdH
	push	esi
	call	_lua_rawset

; 73   : 
; 74   : 
; 75   : 			lua_pushvalue(L, -1);

	push	-1
	push	esi
	call	_lua_pushvalue

; 76   : 			lua_setglobal(L, Derived::GetTypeName());

	call	?GetTypeName@CvLuaCity@@SAPBDXZ		; CvLuaCity::GetTypeName
	push	eax
	push	-10002					; ffffd8eeH
	push	esi
	call	_lua_setfield

; 77   : 
; 78   : 			Derived::PushMethods(L, lua_gettop(L));

	push	esi
	call	_lua_gettop
	push	eax
	push	esi
	call	?PushMethods@CvLuaCity@@SAXPAUlua_State@@H@Z ; CvLuaCity::PushMethods
	add	esp, 56					; 00000038H
$LN7@Push@2:

; 79   : 		}
; 80   : 		const int type_index = lua_gettop(L);

	push	esi
	call	_lua_gettop

; 81   : 
; 82   : 		lua_pushstring(L, "__instances");

	push	OFFSET $SG222965
	push	esi
	mov	ebx, eax
	call	_lua_pushstring

; 83   : 		lua_rawget(L, -2);

	push	-2					; fffffffeH
	push	esi
	call	_lua_rawget

; 84   : 
; 85   : 		const int instances_index = lua_gettop(L);

	push	esi
	call	_lua_gettop

; 86   : 
; 87   : 		lua_pushlightuserdata(L, pkType);

	push	edi
	push	esi
	mov	ebp, eax
	call	_lua_pushlightuserdata

; 88   : 
; 89   : 		lua_rawget(L, -2);					//retrieve type.__instances[pkType]

	push	-2					; fffffffeH
	push	esi
	call	_lua_rawget

; 90   : 
; 91   : 		if(lua_isnil(L, -1))

	push	-1
	push	esi
	call	_lua_type
	add	esp, 48					; 00000030H
	test	eax, eax
	jne	SHORT $LN2@Push@2

; 92   : 		{
; 93   : 			lua_pop(L, 1);

	push	-2					; fffffffeH
	push	esi
	call	_lua_settop

; 94   : 
; 95   : 			//Push new instance
; 96   : 			lua_createtable(L, 0, 1);

	push	1
	push	0
	push	esi
	call	_lua_createtable

; 97   : 			lua_pushlightuserdata(L, pkType);

	push	edi
	push	esi
	call	_lua_pushlightuserdata

; 98   : 			lua_setfield(L, -2, "__instance");

	push	OFFSET $SG222968
	push	-2					; fffffffeH
	push	esi
	call	_lua_setfield

; 99   : 
; 100  : 			lua_createtable(L, 0, 1);			// create mt

	push	1
	push	0
	push	esi
	call	_lua_createtable

; 101  : 			lua_pushstring(L, "__index");

	push	OFFSET $SG222969
	push	esi
	call	_lua_pushstring

; 102  : 			lua_pushvalue(L, type_index);

	push	ebx
	push	esi
	call	_lua_pushvalue
	add	esp, 68					; 00000044H

; 103  : 			lua_rawset(L, -3);					// mt.__index = Type

	push	-3					; fffffffdH
	push	esi
	call	_lua_rawset

; 104  : 			lua_setmetatable(L, -2);

	push	-2					; fffffffeH
	push	esi
	call	_lua_setmetatable

; 105  : 
; 106  : 			//Assign it in instances
; 107  : 			lua_pushlightuserdata(L, pkType);

	push	edi
	push	esi
	call	_lua_pushlightuserdata

; 108  : 			lua_pushvalue(L, -2);

	push	-2					; fffffffeH
	push	esi
	call	_lua_pushvalue

; 109  : 			lua_rawset(L, instances_index);				//__instances[pkType] = t;

	push	ebp
	push	esi
	call	_lua_rawset
	add	esp, 40					; 00000028H
$LN2@Push@2:

; 110  : 		}
; 111  : 
; 112  : 		//VERIFY(instances_index > type_index);
; 113  : 		lua_remove(L, instances_index);

	push	ebp
	push	esi
	call	_lua_remove

; 114  : 		lua_remove(L, type_index);

	push	ebx
	push	esi
	call	_lua_remove
	add	esp, 16					; 00000010H
	pop	esi
	pop	ebp
	pop	ebx
	pop	edi

; 122  : 	}
; 123  : }

	ret	0
$LN4@Push@2:

; 115  : 
; 116  : 		//const int dt = lua_gettop(L);
; 117  : 		//VERIFY(dt == t + 1)
; 118  : 	}
; 119  : 	else
; 120  : 	{
; 121  : 		lua_pushnil(L);

	mov	eax, DWORD PTR _L$[esp]
	push	eax
	call	_lua_pushnil
	add	esp, 4
	pop	edi

; 122  : 	}
; 123  : }

	ret	0
?Push@?$CvLuaScopedInstance@VCvLuaCity@@VCvCity@@@@SAXPAUlua_State@@PAVCvCity@@@Z ENDP ; CvLuaScopedInstance<CvLuaCity,CvCity>::Push
_TEXT	ENDS
PUBLIC	?DefaultHandleMissingInstance@?$CvLuaScopedInstance@VCvLuaPlot@@VCvPlot@@@@KAXPAUlua_State@@@Z ; CvLuaScopedInstance<CvLuaPlot,CvPlot>::DefaultHandleMissingInstance
; Function compile flags: /Ogtpy
;	COMDAT ?DefaultHandleMissingInstance@?$CvLuaScopedInstance@VCvLuaPlot@@VCvPlot@@@@KAXPAUlua_State@@@Z
_TEXT	SEGMENT
_L$ = 8							; size = 4
?DefaultHandleMissingInstance@?$CvLuaScopedInstance@VCvLuaPlot@@VCvPlot@@@@KAXPAUlua_State@@@Z PROC ; CvLuaScopedInstance<CvLuaPlot,CvPlot>::DefaultHandleMissingInstance, COMDAT

; 165  : 	luaL_error(L, "Instance does not exist.");

	mov	eax, DWORD PTR _L$[esp-4]
	push	OFFSET $SG223027
	push	eax
	call	_luaL_error
	add	esp, 8

; 166  : }

	ret	0
?DefaultHandleMissingInstance@?$CvLuaScopedInstance@VCvLuaPlot@@VCvPlot@@@@KAXPAUlua_State@@@Z ENDP ; CvLuaScopedInstance<CvLuaPlot,CvPlot>::DefaultHandleMissingInstance
_TEXT	ENDS
PUBLIC	?Push@?$CvLuaScopedInstance@VCvLuaUnit@@VCvUnit@@@@SAXPAUlua_State@@PAVCvUnit@@@Z ; CvLuaScopedInstance<CvLuaUnit,CvUnit>::Push
EXTRN	?PushMethods@CvLuaUnit@@SAXPAUlua_State@@H@Z:PROC ; CvLuaUnit::PushMethods
EXTRN	?GetTypeName@CvLuaUnit@@SAPBDXZ:PROC		; CvLuaUnit::GetTypeName
; Function compile flags: /Ogtpy
;	COMDAT ?Push@?$CvLuaScopedInstance@VCvLuaUnit@@VCvUnit@@@@SAXPAUlua_State@@PAVCvUnit@@@Z
_TEXT	SEGMENT
_L$ = 8							; size = 4
_pkType$ = 12						; size = 4
?Push@?$CvLuaScopedInstance@VCvLuaUnit@@VCvUnit@@@@SAXPAUlua_State@@PAVCvUnit@@@Z PROC ; CvLuaScopedInstance<CvLuaUnit,CvUnit>::Push, COMDAT

; 39   : {

	push	edi

; 40   : 	//Pushing an instance involves more than just actually pushing a pointer into the
; 41   : 	//Lua stack.  There are some caching optimizations that are done as well as some
; 42   : 	//checks.
; 43   : 	//The first step is to load or create a global table <Typename> to store all member
; 44   : 	//methods and all pushed instances.  This conserves memory and offers faster pushing
; 45   : 	//speed.
; 46   : 	//If <Typename>.__instances[pkType] is not nil, return that value.
; 47   : 	//otherwise push a new instance and assign it to __instances.
; 48   : 
; 49   : 	//NOTE: Raw gets and sets are used as an optimization over using lua_[get,set]field
; 50   : 	if(pkType)

	mov	edi, DWORD PTR _pkType$[esp]
	test	edi, edi
	je	$LN4@Push@3
	push	ebx
	push	ebp
	push	esi

; 51   : 	{
; 52   : 		//const int t = lua_gettop(L);
; 53   : 
; 54   : 		lua_getglobal(L, Derived::GetTypeName());

	call	?GetTypeName@CvLuaUnit@@SAPBDXZ		; CvLuaUnit::GetTypeName
	mov	esi, DWORD PTR _L$[esp+12]
	push	eax
	push	-10002					; ffffd8eeH
	push	esi
	call	_lua_getfield

; 55   : 		if(lua_isnil(L, -1))

	push	-1
	push	esi
	call	_lua_type
	add	esp, 20					; 00000014H
	test	eax, eax
	jne	$LN7@Push@3

; 56   : 		{
; 57   : 			//Typename wasn't found, time to build it.
; 58   : 			lua_pop(L, 1);

	push	-2					; fffffffeH
	push	esi
	call	_lua_settop

; 59   : 			lua_newtable(L);

	push	0
	push	0
	push	esi
	call	_lua_createtable

; 60   : 
; 61   : 			//Create weak __instances table.
; 62   : 			lua_pushstring(L, "__instances");

	push	OFFSET $SG223038
	push	esi
	call	_lua_pushstring

; 63   : 			lua_newtable(L);

	push	0
	push	0
	push	esi
	call	_lua_createtable

; 64   : 
; 65   : 			//Create __instances.mt
; 66   : 			lua_newtable(L);

	push	0
	push	0
	push	esi
	call	_lua_createtable

; 67   : 			lua_pushstring(L, "__mode");

	push	OFFSET $SG223039
	push	esi
	call	_lua_pushstring

; 68   : 			lua_pushstring(L, "v");

	push	OFFSET $SG223040
	push	esi
	call	_lua_pushstring
	add	esp, 68					; 00000044H

; 69   : 			lua_rawset(L, -3);				// mt.__mode = "v";

	push	-3					; fffffffdH
	push	esi
	call	_lua_rawset

; 70   : 			lua_setmetatable(L, -2);

	push	-2					; fffffffeH
	push	esi
	call	_lua_setmetatable

; 71   : 
; 72   : 			lua_rawset(L, -3);				//type.__instances = t;

	push	-3					; fffffffdH
	push	esi
	call	_lua_rawset

; 73   : 
; 74   : 
; 75   : 			lua_pushvalue(L, -1);

	push	-1
	push	esi
	call	_lua_pushvalue

; 76   : 			lua_setglobal(L, Derived::GetTypeName());

	call	?GetTypeName@CvLuaUnit@@SAPBDXZ		; CvLuaUnit::GetTypeName
	push	eax
	push	-10002					; ffffd8eeH
	push	esi
	call	_lua_setfield

; 77   : 
; 78   : 			Derived::PushMethods(L, lua_gettop(L));

	push	esi
	call	_lua_gettop
	push	eax
	push	esi
	call	?PushMethods@CvLuaUnit@@SAXPAUlua_State@@H@Z ; CvLuaUnit::PushMethods
	add	esp, 56					; 00000038H
$LN7@Push@3:

; 79   : 		}
; 80   : 		const int type_index = lua_gettop(L);

	push	esi
	call	_lua_gettop

; 81   : 
; 82   : 		lua_pushstring(L, "__instances");

	push	OFFSET $SG223042
	push	esi
	mov	ebx, eax
	call	_lua_pushstring

; 83   : 		lua_rawget(L, -2);

	push	-2					; fffffffeH
	push	esi
	call	_lua_rawget

; 84   : 
; 85   : 		const int instances_index = lua_gettop(L);

	push	esi
	call	_lua_gettop

; 86   : 
; 87   : 		lua_pushlightuserdata(L, pkType);

	push	edi
	push	esi
	mov	ebp, eax
	call	_lua_pushlightuserdata

; 88   : 
; 89   : 		lua_rawget(L, -2);					//retrieve type.__instances[pkType]

	push	-2					; fffffffeH
	push	esi
	call	_lua_rawget

; 90   : 
; 91   : 		if(lua_isnil(L, -1))

	push	-1
	push	esi
	call	_lua_type
	add	esp, 48					; 00000030H
	test	eax, eax
	jne	SHORT $LN2@Push@3

; 92   : 		{
; 93   : 			lua_pop(L, 1);

	push	-2					; fffffffeH
	push	esi
	call	_lua_settop

; 94   : 
; 95   : 			//Push new instance
; 96   : 			lua_createtable(L, 0, 1);

	push	1
	push	0
	push	esi
	call	_lua_createtable

; 97   : 			lua_pushlightuserdata(L, pkType);

	push	edi
	push	esi
	call	_lua_pushlightuserdata

; 98   : 			lua_setfield(L, -2, "__instance");

	push	OFFSET $SG223045
	push	-2					; fffffffeH
	push	esi
	call	_lua_setfield

; 99   : 
; 100  : 			lua_createtable(L, 0, 1);			// create mt

	push	1
	push	0
	push	esi
	call	_lua_createtable

; 101  : 			lua_pushstring(L, "__index");

	push	OFFSET $SG223046
	push	esi
	call	_lua_pushstring

; 102  : 			lua_pushvalue(L, type_index);

	push	ebx
	push	esi
	call	_lua_pushvalue
	add	esp, 68					; 00000044H

; 103  : 			lua_rawset(L, -3);					// mt.__index = Type

	push	-3					; fffffffdH
	push	esi
	call	_lua_rawset

; 104  : 			lua_setmetatable(L, -2);

	push	-2					; fffffffeH
	push	esi
	call	_lua_setmetatable

; 105  : 
; 106  : 			//Assign it in instances
; 107  : 			lua_pushlightuserdata(L, pkType);

	push	edi
	push	esi
	call	_lua_pushlightuserdata

; 108  : 			lua_pushvalue(L, -2);

	push	-2					; fffffffeH
	push	esi
	call	_lua_pushvalue

; 109  : 			lua_rawset(L, instances_index);				//__instances[pkType] = t;

	push	ebp
	push	esi
	call	_lua_rawset
	add	esp, 40					; 00000028H
$LN2@Push@3:

; 110  : 		}
; 111  : 
; 112  : 		//VERIFY(instances_index > type_index);
; 113  : 		lua_remove(L, instances_index);

	push	ebp
	push	esi
	call	_lua_remove

; 114  : 		lua_remove(L, type_index);

	push	ebx
	push	esi
	call	_lua_remove
	add	esp, 16					; 00000010H
	pop	esi
	pop	ebp
	pop	ebx
	pop	edi

; 122  : 	}
; 123  : }

	ret	0
$LN4@Push@3:

; 115  : 
; 116  : 		//const int dt = lua_gettop(L);
; 117  : 		//VERIFY(dt == t + 1)
; 118  : 	}
; 119  : 	else
; 120  : 	{
; 121  : 		lua_pushnil(L);

	mov	eax, DWORD PTR _L$[esp]
	push	eax
	call	_lua_pushnil
	add	esp, 4
	pop	edi

; 122  : 	}
; 123  : }

	ret	0
?Push@?$CvLuaScopedInstance@VCvLuaUnit@@VCvUnit@@@@SAXPAUlua_State@@PAVCvUnit@@@Z ENDP ; CvLuaScopedInstance<CvLuaUnit,CvUnit>::Push
_TEXT	ENDS
PUBLIC	?GetInstance@?$CvLuaScopedInstance@VCvLuaUnit@@VCvUnit@@@@SAPAVCvUnit@@PAUlua_State@@H_N@Z ; CvLuaScopedInstance<CvLuaUnit,CvUnit>::GetInstance
EXTRN	?HandleMissingInstance@CvLuaUnit@@SAXPAUlua_State@@@Z:PROC ; CvLuaUnit::HandleMissingInstance
; Function compile flags: /Ogtpy
;	COMDAT ?GetInstance@?$CvLuaScopedInstance@VCvLuaUnit@@VCvUnit@@@@SAPAVCvUnit@@PAUlua_State@@H_N@Z
_TEXT	SEGMENT
_L$ = 8							; size = 4
_idx$ = 12						; size = 4
_bErrorOnFail$ = 16					; size = 1
?GetInstance@?$CvLuaScopedInstance@VCvLuaUnit@@VCvUnit@@@@SAPAVCvUnit@@PAUlua_State@@H_N@Z PROC ; CvLuaScopedInstance<CvLuaUnit,CvUnit>::GetInstance, COMDAT

; 127  : {

	push	ebx
	push	ebp
	push	esi

; 128  : 	const int stack_size = lua_gettop(L);

	mov	esi, DWORD PTR _L$[esp+8]
	push	edi
	push	esi
	call	_lua_gettop
	mov	ebp, eax

; 129  : 	bool bFail = true;
; 130  : 
; 131  : 	InstanceType* pkInstance = NULL;
; 132  : 	if(lua_type(L, idx) == LUA_TTABLE)

	mov	eax, DWORD PTR _idx$[esp+16]
	push	eax
	push	esi
	mov	bl, 1
	xor	edi, edi
	call	_lua_type
	add	esp, 12					; 0000000cH
	cmp	eax, 5
	jne	SHORT $LN3@GetInstanc@2

; 133  : 	{
; 134  : 		lua_getfield(L, idx, "__instance");

	mov	ecx, DWORD PTR _idx$[esp+12]
	push	OFFSET $SG223061
	push	ecx
	push	esi
	call	_lua_getfield

; 135  : 		if(lua_type(L, -1) == LUA_TLIGHTUSERDATA)

	push	-1
	push	esi
	call	_lua_type
	add	esp, 20					; 00000014H
	cmp	eax, 2
	jne	SHORT $LN3@GetInstanc@2

; 136  : 		{
; 137  : 			pkInstance = static_cast<InstanceType*>(lua_touserdata(L, -1));

	push	-1
	push	esi
	call	_lua_touserdata
	mov	edi, eax
	add	esp, 8

; 138  : 			if(pkInstance)

	test	edi, edi
	je	SHORT $LN3@GetInstanc@2

; 139  : 			{
; 140  : 				bFail = false;

	xor	bl, bl
$LN3@GetInstanc@2:

; 141  : 			}
; 142  : 		}
; 143  : 	}
; 144  : 
; 145  : 	lua_settop(L, stack_size);

	push	ebp
	push	esi
	call	_lua_settop
	add	esp, 8

; 146  : 
; 147  : 	if(bFail && bErrorOnFail)

	test	bl, bl
	je	SHORT $LN9@GetInstanc@2
	cmp	BYTE PTR _bErrorOnFail$[esp+12], 0
	je	SHORT $LN9@GetInstanc@2

; 148  : 	{
; 149  : 		if(idx == 1)

	cmp	DWORD PTR _idx$[esp+12], 1
	jne	SHORT $LN1@GetInstanc@2

; 150  : 			luaL_error(L, "Not a valid instance.  Either the instance is NULL or you used '.' instead of ':'.");

	push	OFFSET $SG223067
	push	esi
	call	_luaL_error
	add	esp, 8
$LN1@GetInstanc@2:

; 151  : 		Derived::HandleMissingInstance(L);

	push	esi
	call	?HandleMissingInstance@CvLuaUnit@@SAXPAUlua_State@@@Z ; CvLuaUnit::HandleMissingInstance
	add	esp, 4
$LN9@GetInstanc@2:

; 152  : 	}
; 153  : 	return pkInstance;

	mov	eax, edi
	pop	edi
	pop	esi
	pop	ebp
	pop	ebx

; 154  : }

	ret	0
?GetInstance@?$CvLuaScopedInstance@VCvLuaUnit@@VCvUnit@@@@SAPAVCvUnit@@PAUlua_State@@H_N@Z ENDP ; CvLuaScopedInstance<CvLuaUnit,CvUnit>::GetInstance
_TEXT	ENDS
PUBLIC	?GetStartingArgIndex@?$CvLuaScopedInstance@VCvLuaPlot@@VCvPlot@@@@SA?BHXZ ; CvLuaScopedInstance<CvLuaPlot,CvPlot>::GetStartingArgIndex
; Function compile flags: /Ogtpy
;	COMDAT ?GetStartingArgIndex@?$CvLuaScopedInstance@VCvLuaPlot@@VCvPlot@@@@SA?BHXZ
_TEXT	SEGMENT
?GetStartingArgIndex@?$CvLuaScopedInstance@VCvLuaPlot@@VCvPlot@@@@SA?BHXZ PROC ; CvLuaScopedInstance<CvLuaPlot,CvPlot>::GetStartingArgIndex, COMDAT

; 159  : 	return 2;

	mov	eax, 2

; 160  : }

	ret	0
?GetStartingArgIndex@?$CvLuaScopedInstance@VCvLuaPlot@@VCvPlot@@@@SA?BHXZ ENDP ; CvLuaScopedInstance<CvLuaPlot,CvPlot>::GetStartingArgIndex
; Function compile flags: /Ogtpy
; File c:\users\enormousapplepie\desktop\lekmod files\lekmod dll versions\v29\lekmod_dll\cvgamecoredllutil\include\cvluaargtemplates.h
_TEXT	ENDS
;	COMDAT ??$pushValue@W4TeamTypes@@@CvLuaArgs@@YAXPAUlua_State@@W4TeamTypes@@@Z
_TEXT	SEGMENT
??$pushValue@W4TeamTypes@@@CvLuaArgs@@YAXPAUlua_State@@W4TeamTypes@@@Z PROC ; CvLuaArgs::pushValue<enum TeamTypes>, COMDAT
; _L$ = ecx
; _t$ = eax

; 31   : 		//This is pretty unsafe, but common.
; 32   : 		//Assume T is a poorly designed enum =(
; 33   : 		lua_pushinteger(L, t);

	push	eax
	push	ecx
	call	_lua_pushinteger
	add	esp, 8

; 34   : 	}

	ret	0
??$pushValue@W4TeamTypes@@@CvLuaArgs@@YAXPAUlua_State@@W4TeamTypes@@@Z ENDP ; CvLuaArgs::pushValue<enum TeamTypes>
; Function compile flags: /Ogtpy
_TEXT	ENDS
;	COMDAT ??$toValue@PAVCvUnit@@@CvLuaArgs@@YAPAVCvUnit@@PAUlua_State@@H@Z
_TEXT	SEGMENT
??$toValue@PAVCvUnit@@@CvLuaArgs@@YAPAVCvUnit@@PAUlua_State@@H@Z PROC ; CvLuaArgs::toValue<CvUnit *>, COMDAT
; _L$ = ecx
; _idx$ = eax

; 12   : 		//This is pretty unsafe, but common.
; 13   : 		//Assume T is a poorly designed enum =(
; 14   : 		return (T)lua_tointeger(L, idx);

	push	eax
	push	ecx
	call	_lua_tointeger
	add	esp, 8

; 15   : 	}

	ret	0
??$toValue@PAVCvUnit@@@CvLuaArgs@@YAPAVCvUnit@@PAUlua_State@@H@Z ENDP ; CvLuaArgs::toValue<CvUnit *>
; Function compile flags: /Ogtpy
_TEXT	ENDS
;	COMDAT ??$toValue@W4TeamTypes@@@CvLuaArgs@@YA?AW4TeamTypes@@PAUlua_State@@H@Z
_TEXT	SEGMENT
??$toValue@W4TeamTypes@@@CvLuaArgs@@YA?AW4TeamTypes@@PAUlua_State@@H@Z PROC ; CvLuaArgs::toValue<enum TeamTypes>, COMDAT
; _L$ = ecx
; _idx$ = eax

; 12   : 		//This is pretty unsafe, but common.
; 13   : 		//Assume T is a poorly designed enum =(
; 14   : 		return (T)lua_tointeger(L, idx);

	push	eax
	push	ecx
	call	_lua_tointeger
	add	esp, 8

; 15   : 	}

	ret	0
??$toValue@W4TeamTypes@@@CvLuaArgs@@YA?AW4TeamTypes@@PAUlua_State@@H@Z ENDP ; CvLuaArgs::toValue<enum TeamTypes>
; Function compile flags: /Ogtpy
_TEXT	ENDS
;	COMDAT ??$toValue@W4PlayerTypes@@@CvLuaArgs@@YA?AW4PlayerTypes@@PAUlua_State@@H@Z
_TEXT	SEGMENT
??$toValue@W4PlayerTypes@@@CvLuaArgs@@YA?AW4PlayerTypes@@PAUlua_State@@H@Z PROC ; CvLuaArgs::toValue<enum PlayerTypes>, COMDAT
; _L$ = ecx
; _idx$ = eax

; 12   : 		//This is pretty unsafe, but common.
; 13   : 		//Assume T is a poorly designed enum =(
; 14   : 		return (T)lua_tointeger(L, idx);

	push	eax
	push	ecx
	call	_lua_tointeger
	add	esp, 8

; 15   : 	}

	ret	0
??$toValue@W4PlayerTypes@@@CvLuaArgs@@YA?AW4PlayerTypes@@PAUlua_State@@H@Z ENDP ; CvLuaArgs::toValue<enum PlayerTypes>
; Function compile flags: /Ogtpy
_TEXT	ENDS
;	COMDAT ??$toValue@W4DirectionTypes@@@CvLuaArgs@@YA?AW4DirectionTypes@@PAUlua_State@@H@Z
_TEXT	SEGMENT
??$toValue@W4DirectionTypes@@@CvLuaArgs@@YA?AW4DirectionTypes@@PAUlua_State@@H@Z PROC ; CvLuaArgs::toValue<enum DirectionTypes>, COMDAT
; _L$ = ecx
; _idx$ = eax

; 12   : 		//This is pretty unsafe, but common.
; 13   : 		//Assume T is a poorly designed enum =(
; 14   : 		return (T)lua_tointeger(L, idx);

	push	eax
	push	ecx
	call	_lua_tointeger
	add	esp, 8

; 15   : 	}

	ret	0
??$toValue@W4DirectionTypes@@@CvLuaArgs@@YA?AW4DirectionTypes@@PAUlua_State@@H@Z ENDP ; CvLuaArgs::toValue<enum DirectionTypes>
; Function compile flags: /Ogtpy
_TEXT	ENDS
;	COMDAT ??$toValue@W4ResourceTypes@@@CvLuaArgs@@YA?AW4ResourceTypes@@PAUlua_State@@H@Z
_TEXT	SEGMENT
??$toValue@W4ResourceTypes@@@CvLuaArgs@@YA?AW4ResourceTypes@@PAUlua_State@@H@Z PROC ; CvLuaArgs::toValue<enum ResourceTypes>, COMDAT
; _L$ = ecx
; _idx$ = eax

; 12   : 		//This is pretty unsafe, but common.
; 13   : 		//Assume T is a poorly designed enum =(
; 14   : 		return (T)lua_tointeger(L, idx);

	push	eax
	push	ecx
	call	_lua_tointeger
	add	esp, 8

; 15   : 	}

	ret	0
??$toValue@W4ResourceTypes@@@CvLuaArgs@@YA?AW4ResourceTypes@@PAUlua_State@@H@Z ENDP ; CvLuaArgs::toValue<enum ResourceTypes>
; Function compile flags: /Ogtpy
_TEXT	ENDS
;	COMDAT ??$toValue@W4ImprovementTypes@@@CvLuaArgs@@YA?AW4ImprovementTypes@@PAUlua_State@@H@Z
_TEXT	SEGMENT
??$toValue@W4ImprovementTypes@@@CvLuaArgs@@YA?AW4ImprovementTypes@@PAUlua_State@@H@Z PROC ; CvLuaArgs::toValue<enum ImprovementTypes>, COMDAT
; _L$ = ecx
; _idx$ = eax

; 12   : 		//This is pretty unsafe, but common.
; 13   : 		//Assume T is a poorly designed enum =(
; 14   : 		return (T)lua_tointeger(L, idx);

	push	eax
	push	ecx
	call	_lua_tointeger
	add	esp, 8

; 15   : 	}

	ret	0
??$toValue@W4ImprovementTypes@@@CvLuaArgs@@YA?AW4ImprovementTypes@@PAUlua_State@@H@Z ENDP ; CvLuaArgs::toValue<enum ImprovementTypes>
; Function compile flags: /Ogtpy
_TEXT	ENDS
;	COMDAT ??$toValue@W4BuildTypes@@@CvLuaArgs@@YA?AW4BuildTypes@@PAUlua_State@@H@Z
_TEXT	SEGMENT
??$toValue@W4BuildTypes@@@CvLuaArgs@@YA?AW4BuildTypes@@PAUlua_State@@H@Z PROC ; CvLuaArgs::toValue<enum BuildTypes>, COMDAT
; _L$ = ecx
; _idx$ = eax

; 12   : 		//This is pretty unsafe, but common.
; 13   : 		//Assume T is a poorly designed enum =(
; 14   : 		return (T)lua_tointeger(L, idx);

	push	eax
	push	ecx
	call	_lua_tointeger
	add	esp, 8

; 15   : 	}

	ret	0
??$toValue@W4BuildTypes@@@CvLuaArgs@@YA?AW4BuildTypes@@PAUlua_State@@H@Z ENDP ; CvLuaArgs::toValue<enum BuildTypes>
; Function compile flags: /Ogtpy
_TEXT	ENDS
;	COMDAT ??$toValue@PBVCvUnit@@@CvLuaArgs@@YAPBVCvUnit@@PAUlua_State@@H@Z
_TEXT	SEGMENT
??$toValue@PBVCvUnit@@@CvLuaArgs@@YAPBVCvUnit@@PAUlua_State@@H@Z PROC ; CvLuaArgs::toValue<CvUnit const *>, COMDAT
; _L$ = ecx
; _idx$ = eax

; 12   : 		//This is pretty unsafe, but common.
; 13   : 		//Assume T is a poorly designed enum =(
; 14   : 		return (T)lua_tointeger(L, idx);

	push	eax
	push	ecx
	call	_lua_tointeger
	add	esp, 8

; 15   : 	}

	ret	0
??$toValue@PBVCvUnit@@@CvLuaArgs@@YAPBVCvUnit@@PAUlua_State@@H@Z ENDP ; CvLuaArgs::toValue<CvUnit const *>
; Function compile flags: /Ogtpy
_TEXT	ENDS
;	COMDAT ??$toValue@PBVCvPlot@@@CvLuaArgs@@YAPBVCvPlot@@PAUlua_State@@H@Z
_TEXT	SEGMENT
??$toValue@PBVCvPlot@@@CvLuaArgs@@YAPBVCvPlot@@PAUlua_State@@H@Z PROC ; CvLuaArgs::toValue<CvPlot const *>, COMDAT
; _L$ = ecx
; _idx$ = eax

; 12   : 		//This is pretty unsafe, but common.
; 13   : 		//Assume T is a poorly designed enum =(
; 14   : 		return (T)lua_tointeger(L, idx);

	push	eax
	push	ecx
	call	_lua_tointeger
	add	esp, 8

; 15   : 	}

	ret	0
??$toValue@PBVCvPlot@@@CvLuaArgs@@YAPBVCvPlot@@PAUlua_State@@H@Z ENDP ; CvLuaArgs::toValue<CvPlot const *>
; Function compile flags: /Ogtpy
_TEXT	ENDS
;	COMDAT ??$toValue@W4FlowDirectionTypes@@@CvLuaArgs@@YA?AW4FlowDirectionTypes@@PAUlua_State@@H@Z
_TEXT	SEGMENT
??$toValue@W4FlowDirectionTypes@@@CvLuaArgs@@YA?AW4FlowDirectionTypes@@PAUlua_State@@H@Z PROC ; CvLuaArgs::toValue<enum FlowDirectionTypes>, COMDAT
; _L$ = ecx
; _idx$ = eax

; 12   : 		//This is pretty unsafe, but common.
; 13   : 		//Assume T is a poorly designed enum =(
; 14   : 		return (T)lua_tointeger(L, idx);

	push	eax
	push	ecx
	call	_lua_tointeger
	add	esp, 8

; 15   : 	}

	ret	0
??$toValue@W4FlowDirectionTypes@@@CvLuaArgs@@YA?AW4FlowDirectionTypes@@PAUlua_State@@H@Z ENDP ; CvLuaArgs::toValue<enum FlowDirectionTypes>
; Function compile flags: /Ogtpy
_TEXT	ENDS
;	COMDAT ??$pushValue@W4FlowDirectionTypes@@@CvLuaArgs@@YAXPAUlua_State@@W4FlowDirectionTypes@@@Z
_TEXT	SEGMENT
??$pushValue@W4FlowDirectionTypes@@@CvLuaArgs@@YAXPAUlua_State@@W4FlowDirectionTypes@@@Z PROC ; CvLuaArgs::pushValue<enum FlowDirectionTypes>, COMDAT
; _L$ = ecx
; _t$ = eax

; 31   : 		//This is pretty unsafe, but common.
; 32   : 		//Assume T is a poorly designed enum =(
; 33   : 		lua_pushinteger(L, t);

	push	eax
	push	ecx
	call	_lua_pushinteger
	add	esp, 8

; 34   : 	}

	ret	0
??$pushValue@W4FlowDirectionTypes@@@CvLuaArgs@@YAXPAUlua_State@@W4FlowDirectionTypes@@@Z ENDP ; CvLuaArgs::pushValue<enum FlowDirectionTypes>
; Function compile flags: /Ogtpy
_TEXT	ENDS
;	COMDAT ??$toValue@PAVCvArea@@@CvLuaArgs@@YAPAVCvArea@@PAUlua_State@@H@Z
_TEXT	SEGMENT
??$toValue@PAVCvArea@@@CvLuaArgs@@YAPAVCvArea@@PAUlua_State@@H@Z PROC ; CvLuaArgs::toValue<CvArea *>, COMDAT
; _L$ = ecx
; _idx$ = eax

; 12   : 		//This is pretty unsafe, but common.
; 13   : 		//Assume T is a poorly designed enum =(
; 14   : 		return (T)lua_tointeger(L, idx);

	push	eax
	push	ecx
	call	_lua_tointeger
	add	esp, 8

; 15   : 	}

	ret	0
??$toValue@PAVCvArea@@@CvLuaArgs@@YAPAVCvArea@@PAUlua_State@@H@Z ENDP ; CvLuaArgs::toValue<CvArea *>
; Function compile flags: /Ogtpy
_TEXT	ENDS
;	COMDAT ??$pushValue@W4PlayerTypes@@@CvLuaArgs@@YAXPAUlua_State@@W4PlayerTypes@@@Z
_TEXT	SEGMENT
??$pushValue@W4PlayerTypes@@@CvLuaArgs@@YAXPAUlua_State@@W4PlayerTypes@@@Z PROC ; CvLuaArgs::pushValue<enum PlayerTypes>, COMDAT
; _L$ = ecx
; _t$ = eax

; 31   : 		//This is pretty unsafe, but common.
; 32   : 		//Assume T is a poorly designed enum =(
; 33   : 		lua_pushinteger(L, t);

	push	eax
	push	ecx
	call	_lua_pushinteger
	add	esp, 8

; 34   : 	}

	ret	0
??$pushValue@W4PlayerTypes@@@CvLuaArgs@@YAXPAUlua_State@@W4PlayerTypes@@@Z ENDP ; CvLuaArgs::pushValue<enum PlayerTypes>
; Function compile flags: /Ogtpy
_TEXT	ENDS
;	COMDAT ??$pushValue@W4PlotTypes@@@CvLuaArgs@@YAXPAUlua_State@@W4PlotTypes@@@Z
_TEXT	SEGMENT
??$pushValue@W4PlotTypes@@@CvLuaArgs@@YAXPAUlua_State@@W4PlotTypes@@@Z PROC ; CvLuaArgs::pushValue<enum PlotTypes>, COMDAT
; _L$ = ecx
; _t$ = eax

; 31   : 		//This is pretty unsafe, but common.
; 32   : 		//Assume T is a poorly designed enum =(
; 33   : 		lua_pushinteger(L, t);

	push	eax
	push	ecx
	call	_lua_pushinteger
	add	esp, 8

; 34   : 	}

	ret	0
??$pushValue@W4PlotTypes@@@CvLuaArgs@@YAXPAUlua_State@@W4PlotTypes@@@Z ENDP ; CvLuaArgs::pushValue<enum PlotTypes>
; Function compile flags: /Ogtpy
_TEXT	ENDS
;	COMDAT ??$toValue@W4PlotTypes@@@CvLuaArgs@@YA?AW4PlotTypes@@PAUlua_State@@H@Z
_TEXT	SEGMENT
??$toValue@W4PlotTypes@@@CvLuaArgs@@YA?AW4PlotTypes@@PAUlua_State@@H@Z PROC ; CvLuaArgs::toValue<enum PlotTypes>, COMDAT
; _L$ = ecx
; _idx$ = eax

; 12   : 		//This is pretty unsafe, but common.
; 13   : 		//Assume T is a poorly designed enum =(
; 14   : 		return (T)lua_tointeger(L, idx);

	push	eax
	push	ecx
	call	_lua_tointeger
	add	esp, 8

; 15   : 	}

	ret	0
??$toValue@W4PlotTypes@@@CvLuaArgs@@YA?AW4PlotTypes@@PAUlua_State@@H@Z ENDP ; CvLuaArgs::toValue<enum PlotTypes>
; Function compile flags: /Ogtpy
_TEXT	ENDS
;	COMDAT ??$pushValue@W4ResourceTypes@@@CvLuaArgs@@YAXPAUlua_State@@W4ResourceTypes@@@Z
_TEXT	SEGMENT
??$pushValue@W4ResourceTypes@@@CvLuaArgs@@YAXPAUlua_State@@W4ResourceTypes@@@Z PROC ; CvLuaArgs::pushValue<enum ResourceTypes>, COMDAT
; _L$ = ecx
; _t$ = eax

; 31   : 		//This is pretty unsafe, but common.
; 32   : 		//Assume T is a poorly designed enum =(
; 33   : 		lua_pushinteger(L, t);

	push	eax
	push	ecx
	call	_lua_pushinteger
	add	esp, 8

; 34   : 	}

	ret	0
??$pushValue@W4ResourceTypes@@@CvLuaArgs@@YAXPAUlua_State@@W4ResourceTypes@@@Z ENDP ; CvLuaArgs::pushValue<enum ResourceTypes>
; Function compile flags: /Ogtpy
_TEXT	ENDS
;	COMDAT ??$pushValue@W4ImprovementTypes@@@CvLuaArgs@@YAXPAUlua_State@@W4ImprovementTypes@@@Z
_TEXT	SEGMENT
??$pushValue@W4ImprovementTypes@@@CvLuaArgs@@YAXPAUlua_State@@W4ImprovementTypes@@@Z PROC ; CvLuaArgs::pushValue<enum ImprovementTypes>, COMDAT
; _L$ = ecx
; _t$ = eax

; 31   : 		//This is pretty unsafe, but common.
; 32   : 		//Assume T is a poorly designed enum =(
; 33   : 		lua_pushinteger(L, t);

	push	eax
	push	ecx
	call	_lua_pushinteger
	add	esp, 8

; 34   : 	}

	ret	0
??$pushValue@W4ImprovementTypes@@@CvLuaArgs@@YAXPAUlua_State@@W4ImprovementTypes@@@Z ENDP ; CvLuaArgs::pushValue<enum ImprovementTypes>
; Function compile flags: /Ogtpy
_TEXT	ENDS
;	COMDAT ??$pushValue@W4RouteTypes@@@CvLuaArgs@@YAXPAUlua_State@@W4RouteTypes@@@Z
_TEXT	SEGMENT
??$pushValue@W4RouteTypes@@@CvLuaArgs@@YAXPAUlua_State@@W4RouteTypes@@@Z PROC ; CvLuaArgs::pushValue<enum RouteTypes>, COMDAT
; _L$ = ecx
; _t$ = eax

; 31   : 		//This is pretty unsafe, but common.
; 32   : 		//Assume T is a poorly designed enum =(
; 33   : 		lua_pushinteger(L, t);

	push	eax
	push	ecx
	call	_lua_pushinteger
	add	esp, 8

; 34   : 	}

	ret	0
??$pushValue@W4RouteTypes@@@CvLuaArgs@@YAXPAUlua_State@@W4RouteTypes@@@Z ENDP ; CvLuaArgs::pushValue<enum RouteTypes>
; Function compile flags: /Ogtpy
_TEXT	ENDS
;	COMDAT ??$toValue@W4RouteTypes@@@CvLuaArgs@@YA?AW4RouteTypes@@PAUlua_State@@H@Z
_TEXT	SEGMENT
??$toValue@W4RouteTypes@@@CvLuaArgs@@YA?AW4RouteTypes@@PAUlua_State@@H@Z PROC ; CvLuaArgs::toValue<enum RouteTypes>, COMDAT
; _L$ = ecx
; _idx$ = eax

; 12   : 		//This is pretty unsafe, but common.
; 13   : 		//Assume T is a poorly designed enum =(
; 14   : 		return (T)lua_tointeger(L, idx);

	push	eax
	push	ecx
	call	_lua_tointeger
	add	esp, 8

; 15   : 	}

	ret	0
??$toValue@W4RouteTypes@@@CvLuaArgs@@YA?AW4RouteTypes@@PAUlua_State@@H@Z ENDP ; CvLuaArgs::toValue<enum RouteTypes>
; Function compile flags: /Ogtpy
_TEXT	ENDS
;	COMDAT ??$toValue@W4YieldTypes@@@CvLuaArgs@@YA?AW4YieldTypes@@PAUlua_State@@H@Z
_TEXT	SEGMENT
??$toValue@W4YieldTypes@@@CvLuaArgs@@YA?AW4YieldTypes@@PAUlua_State@@H@Z PROC ; CvLuaArgs::toValue<enum YieldTypes>, COMDAT
; _L$ = ecx
; _idx$ = eax

; 12   : 		//This is pretty unsafe, but common.
; 13   : 		//Assume T is a poorly designed enum =(
; 14   : 		return (T)lua_tointeger(L, idx);

	push	eax
	push	ecx
	call	_lua_tointeger
	add	esp, 8

; 15   : 	}

	ret	0
??$toValue@W4YieldTypes@@@CvLuaArgs@@YA?AW4YieldTypes@@PAUlua_State@@H@Z ENDP ; CvLuaArgs::toValue<enum YieldTypes>
; Function compile flags: /Ogtpy
_TEXT	ENDS
;	COMDAT ??$toValue@W4InvisibleTypes@@@CvLuaArgs@@YA?AW4InvisibleTypes@@PAUlua_State@@H@Z
_TEXT	SEGMENT
??$toValue@W4InvisibleTypes@@@CvLuaArgs@@YA?AW4InvisibleTypes@@PAUlua_State@@H@Z PROC ; CvLuaArgs::toValue<enum InvisibleTypes>, COMDAT
; _L$ = ecx
; _idx$ = eax

; 12   : 		//This is pretty unsafe, but common.
; 13   : 		//Assume T is a poorly designed enum =(
; 14   : 		return (T)lua_tointeger(L, idx);

	push	eax
	push	ecx
	call	_lua_tointeger
	add	esp, 8

; 15   : 	}

	ret	0
??$toValue@W4InvisibleTypes@@@CvLuaArgs@@YA?AW4InvisibleTypes@@PAUlua_State@@H@Z ENDP ; CvLuaArgs::toValue<enum InvisibleTypes>
_TEXT	ENDS
PUBLIC	??1CvString@@QAE@XZ				; CvString::~CvString
EXTRN	__imp_??1?$basic_string@DU?$char_traits@D@std@@V?$allocator@D@2@@std@@QAE@XZ:PROC
; Function compile flags: /Ogtpy
; File c:\users\enormousapplepie\desktop\lekmod files\lekmod dll versions\v29\lekmod_dll\cvgamecoredllutil\include\cvstring.h
;	COMDAT ??1CvString@@QAE@XZ
_TEXT	SEGMENT
??1CvString@@QAE@XZ PROC				; CvString::~CvString, COMDAT
; _this$ = ecx

; 28   : 	~CvString() {}

	jmp	DWORD PTR __imp_??1?$basic_string@DU?$char_traits@D@std@@V?$allocator@D@2@@std@@QAE@XZ
??1CvString@@QAE@XZ ENDP				; CvString::~CvString
_TEXT	ENDS
PUBLIC	?getMap@CvGlobals@@QAEAAVCvMap@@XZ		; CvGlobals::getMap
; Function compile flags: /Ogtpy
; File c:\users\enormousapplepie\desktop\lekmod files\lekmod dll versions\v29\lekmod_dll\cvgamecoredll_expansion2\cvglobals.h
;	COMDAT ?getMap@CvGlobals@@QAEAAVCvMap@@XZ
_TEXT	SEGMENT
?getMap@CvGlobals@@QAEAAVCvMap@@XZ PROC			; CvGlobals::getMap, COMDAT
; _this$ = ecx

; 175  : 		return *m_map;    // inlined for perf reasons, do not use outside of dll

	mov	eax, DWORD PTR [ecx+52]

; 176  : 	}

	ret	0
?getMap@CvGlobals@@QAEAAVCvMap@@XZ ENDP			; CvGlobals::getMap
_TEXT	ENDS
PUBLIC	?getGame@CvGlobals@@QAEAAVCvGame@@XZ		; CvGlobals::getGame
; Function compile flags: /Ogtpy
;	COMDAT ?getGame@CvGlobals@@QAEAAVCvGame@@XZ
_TEXT	SEGMENT
?getGame@CvGlobals@@QAEAAVCvGame@@XZ PROC		; CvGlobals::getGame, COMDAT
; _this$ = ecx

; 183  : 		return *m_game;    // inlined for perf reasons, do not use outside of dll

	mov	eax, DWORD PTR [ecx+48]

; 184  : 	}

	ret	0
?getGame@CvGlobals@@QAEAAVCvGame@@XZ ENDP		; CvGlobals::getGame
_TEXT	ENDS
PUBLIC	?getPlayer@CvPlayerAI@@SAAAV1@W4PlayerTypes@@@Z	; CvPlayerAI::getPlayer
EXTRN	?m_aPlayers@CvPlayerAI@@1PAV1@A:DWORD		; CvPlayerAI::m_aPlayers
; Function compile flags: /Ogtpy
; File c:\users\enormousapplepie\desktop\lekmod files\lekmod dll versions\v29\lekmod_dll\cvgamecoredll_expansion2\cvplayerai.h
;	COMDAT ?getPlayer@CvPlayerAI@@SAAAV1@W4PlayerTypes@@@Z
_TEXT	SEGMENT
_ePlayer$ = 8						; size = 4
?getPlayer@CvPlayerAI@@SAAAV1@W4PlayerTypes@@@Z PROC	; CvPlayerAI::getPlayer, COMDAT

; 28   : 		CvAssertMsg(ePlayer != NO_PLAYER, "Player is not assigned a valid value");
; 29   : 		CvAssertMsg(ePlayer < MAX_PLAYERS, "Player is not assigned a valid value");
; 30   : 		return m_aPlayers[ePlayer];

	mov	eax, DWORD PTR _ePlayer$[esp-4]
	imul	eax, 63236				; 0000f704H
	add	eax, DWORD PTR ?m_aPlayers@CvPlayerAI@@1PAV1@A ; CvPlayerAI::m_aPlayers

; 31   : 	}

	ret	0
?getPlayer@CvPlayerAI@@SAAAV1@W4PlayerTypes@@@Z ENDP	; CvPlayerAI::getPlayer
_TEXT	ENDS
PUBLIC	?isCity@CvPlot@@QBE_NXZ				; CvPlot::isCity
EXTRN	?getCity@CvPlayer@@QAEPAVCvCity@@H@Z:PROC	; CvPlayer::getCity
; Function compile flags: /Ogtpy
; File c:\users\enormousapplepie\desktop\lekmod files\lekmod dll versions\v29\lekmod_dll\cvgamecoredll_expansion2\cvplot.h
;	COMDAT ?isCity@CvPlot@@QBE_NXZ
_TEXT	SEGMENT
?isCity@CvPlot@@QBE_NXZ PROC				; CvPlot::isCity, COMDAT
; _this$ = ecx

; 245  : 		if((m_plotCity.eOwner >= 0) && m_plotCity.eOwner < MAX_PLAYERS)

	mov	eax, DWORD PTR [ecx+104]
	test	eax, eax
	jl	SHORT $LN1@isCity
	cmp	eax, 64					; 00000040H
	jge	SHORT $LN1@isCity

; 246  : 			return (GET_PLAYER((PlayerTypes)m_plotCity.eOwner).getCity(m_plotCity.iID)) != NULL;

	mov	ecx, DWORD PTR [ecx+108]
	imul	eax, 63236				; 0000f704H
	add	eax, DWORD PTR ?m_aPlayers@CvPlayerAI@@1PAV1@A ; CvPlayerAI::m_aPlayers
	push	ecx
	mov	ecx, eax
	call	?getCity@CvPlayer@@QAEPAVCvCity@@H@Z	; CvPlayer::getCity
	neg	eax
	sbb	eax, eax
	neg	eax

; 249  : 	}

	ret	0
$LN1@isCity:

; 247  : 
; 248  : 		return false;

	xor	al, al

; 249  : 	}

	ret	0
?isCity@CvPlot@@QBE_NXZ ENDP				; CvPlot::isCity
_TEXT	ENDS
PUBLIC	?getX@CvPlot@@QBEHXZ				; CvPlot::getX
; Function compile flags: /Ogtpy
;	COMDAT ?getX@CvPlot@@QBEHXZ
_TEXT	SEGMENT
?getX@CvPlot@@QBEHXZ PROC				; CvPlot::getX, COMDAT
; _this$ = ecx

; 307  : 		return m_iX;

	movsx	eax, WORD PTR [ecx]

; 308  : 	}

	ret	0
?getX@CvPlot@@QBEHXZ ENDP				; CvPlot::getX
_TEXT	ENDS
PUBLIC	?getY@CvPlot@@QBEHXZ				; CvPlot::getY
; Function compile flags: /Ogtpy
;	COMDAT ?getY@CvPlot@@QBEHXZ
_TEXT	SEGMENT
?getY@CvPlot@@QBEHXZ PROC				; CvPlot::getY, COMDAT
; _this$ = ecx

; 312  : 		return m_iY;

	movsx	eax, WORD PTR [ecx+2]

; 313  : 	}

	ret	0
?getY@CvPlot@@QBEHXZ ENDP				; CvPlot::getY
_TEXT	ENDS
PUBLIC	?getArea@CvPlot@@QBEHXZ				; CvPlot::getArea
; Function compile flags: /Ogtpy
;	COMDAT ?getArea@CvPlot@@QBEHXZ
_TEXT	SEGMENT
?getArea@CvPlot@@QBEHXZ PROC				; CvPlot::getArea, COMDAT
; _this$ = ecx

; 324  : 		return m_iArea;

	mov	eax, DWORD PTR [ecx+356]

; 325  : 	}

	ret	0
?getArea@CvPlot@@QBEHXZ ENDP				; CvPlot::getArea
_TEXT	ENDS
PUBLIC	?getOwner@CvPlot@@QBE?AW4PlayerTypes@@XZ	; CvPlot::getOwner
; Function compile flags: /Ogtpy
;	COMDAT ?getOwner@CvPlot@@QBE?AW4PlayerTypes@@XZ
_TEXT	SEGMENT
?getOwner@CvPlot@@QBE?AW4PlayerTypes@@XZ PROC		; CvPlot::getOwner, COMDAT
; _this$ = ecx

; 387  : 		return (PlayerTypes)m_eOwner;

	movsx	eax, BYTE PTR [ecx+4]

; 388  : 	}

	ret	0
?getOwner@CvPlot@@QBE?AW4PlayerTypes@@XZ ENDP		; CvPlot::getOwner
_TEXT	ENDS
PUBLIC	?getPlotType@CvPlot@@QBE?AW4PlotTypes@@XZ	; CvPlot::getPlotType
; Function compile flags: /Ogtpy
;	COMDAT ?getPlotType@CvPlot@@QBE?AW4PlotTypes@@XZ
_TEXT	SEGMENT
?getPlotType@CvPlot@@QBE?AW4PlotTypes@@XZ PROC		; CvPlot::getPlotType, COMDAT
; _this$ = ecx

; 405  : 		return (PlotTypes)m_ePlotType;

	movsx	eax, BYTE PTR [ecx+5]

; 406  : 	}

	ret	0
?getPlotType@CvPlot@@QBE?AW4PlotTypes@@XZ ENDP		; CvPlot::getPlotType
_TEXT	ENDS
PUBLIC	?isWater@CvPlot@@QBE_NXZ			; CvPlot::isWater
; Function compile flags: /Ogtpy
;	COMDAT ?isWater@CvPlot@@QBE_NXZ
_TEXT	SEGMENT
?isWater@CvPlot@@QBE_NXZ PROC				; CvPlot::isWater, COMDAT
; _this$ = ecx

; 409  : 		return (PlotTypes)m_ePlotType == PLOT_OCEAN;

	xor	eax, eax
	cmp	BYTE PTR [ecx+5], 3
	sete	al

; 410  : 	};

	ret	0
?isWater@CvPlot@@QBE_NXZ ENDP				; CvPlot::isWater
_TEXT	ENDS
PUBLIC	?isHills@CvPlot@@QBE_NXZ			; CvPlot::isHills
; Function compile flags: /Ogtpy
;	COMDAT ?isHills@CvPlot@@QBE_NXZ
_TEXT	SEGMENT
?isHills@CvPlot@@QBE_NXZ PROC				; CvPlot::isHills, COMDAT
; _this$ = ecx

; 413  : 		return (PlotTypes)m_ePlotType == PLOT_HILLS;

	xor	eax, eax
	cmp	BYTE PTR [ecx+5], 1
	sete	al

; 414  : 	};

	ret	0
?isHills@CvPlot@@QBE_NXZ ENDP				; CvPlot::isHills
_TEXT	ENDS
PUBLIC	?isOpenGround@CvPlot@@QBE_NXZ			; CvPlot::isOpenGround
; Function compile flags: /Ogtpy
;	COMDAT ?isOpenGround@CvPlot@@QBE_NXZ
_TEXT	SEGMENT
?isOpenGround@CvPlot@@QBE_NXZ PROC			; CvPlot::isOpenGround, COMDAT
; _this$ = ecx

; 417  : 		if((PlotTypes)m_ePlotType == PLOT_HILLS || (PlotTypes)m_ePlotType == PLOT_MOUNTAIN || m_bRoughFeature) return false;

	mov	al, BYTE PTR [ecx+5]
	cmp	al, 1
	je	SHORT $LN1@isOpenGrou
	test	al, al
	je	SHORT $LN1@isOpenGrou
	test	BYTE PTR [ecx+462], 8
	jne	SHORT $LN1@isOpenGrou

; 418  : 		return true;

	mov	al, 1

; 419  : 	}

	ret	0
$LN1@isOpenGrou:

; 417  : 		if((PlotTypes)m_ePlotType == PLOT_HILLS || (PlotTypes)m_ePlotType == PLOT_MOUNTAIN || m_bRoughFeature) return false;

	xor	al, al

; 419  : 	}

	ret	0
?isOpenGround@CvPlot@@QBE_NXZ ENDP			; CvPlot::isOpenGround
_TEXT	ENDS
PUBLIC	?isMountain@CvPlot@@QBE_NXZ			; CvPlot::isMountain
; Function compile flags: /Ogtpy
;	COMDAT ?isMountain@CvPlot@@QBE_NXZ
_TEXT	SEGMENT
?isMountain@CvPlot@@QBE_NXZ PROC			; CvPlot::isMountain, COMDAT
; _this$ = ecx

; 422  : 		return (PlotTypes)m_ePlotType == PLOT_MOUNTAIN;

	xor	eax, eax
	cmp	BYTE PTR [ecx+5], al
	sete	al

; 423  : 	};

	ret	0
?isMountain@CvPlot@@QBE_NXZ ENDP			; CvPlot::isMountain
_TEXT	ENDS
PUBLIC	?isRiver@CvPlot@@QBE_NXZ			; CvPlot::isRiver
; Function compile flags: /Ogtpy
;	COMDAT ?isRiver@CvPlot@@QBE_NXZ
_TEXT	SEGMENT
?isRiver@CvPlot@@QBE_NXZ PROC				; CvPlot::isRiver, COMDAT
; _this$ = ecx

; 426  : 		return m_iRiverCrossingCount > 0;

	xor	eax, eax
	cmp	BYTE PTR [ecx+457], al
	setg	al

; 427  : 	}

	ret	0
?isRiver@CvPlot@@QBE_NXZ ENDP				; CvPlot::isRiver
_TEXT	ENDS
PUBLIC	?getTerrainType@CvPlot@@QBE?AW4TerrainTypes@@XZ	; CvPlot::getTerrainType
; Function compile flags: /Ogtpy
;	COMDAT ?getTerrainType@CvPlot@@QBE?AW4TerrainTypes@@XZ
_TEXT	SEGMENT
?getTerrainType@CvPlot@@QBE?AW4TerrainTypes@@XZ PROC	; CvPlot::getTerrainType, COMDAT
; _this$ = ecx

; 431  : 		return (TerrainTypes)m_eTerrainType;

	movsx	eax, BYTE PTR [ecx+6]

; 432  : 	}

	ret	0
?getTerrainType@CvPlot@@QBE?AW4TerrainTypes@@XZ ENDP	; CvPlot::getTerrainType
_TEXT	ENDS
PUBLIC	?isImpassable@CvPlot@@QBE_NXZ			; CvPlot::isImpassable
; Function compile flags: /Ogtpy
;	COMDAT ?isImpassable@CvPlot@@QBE_NXZ
_TEXT	SEGMENT
?isImpassable@CvPlot@@QBE_NXZ PROC			; CvPlot::isImpassable, COMDAT
; _this$ = ecx

; 444  : 		return m_bIsImpassable;

	mov	al, BYTE PTR [ecx+462]
	shr	al, 7

; 445  : 	}

	ret	0
?isImpassable@CvPlot@@QBE_NXZ ENDP			; CvPlot::isImpassable
_TEXT	ENDS
PUBLIC	?isRoughGround@CvPlot@@QBE_NXZ			; CvPlot::isRoughGround
; Function compile flags: /Ogtpy
;	COMDAT ?isRoughGround@CvPlot@@QBE_NXZ
_TEXT	SEGMENT
?isRoughGround@CvPlot@@QBE_NXZ PROC			; CvPlot::isRoughGround, COMDAT
; _this$ = ecx

; 453  : 		if(isHills())

	mov	al, BYTE PTR [ecx+5]
	cmp	al, 1
	jne	SHORT $LN2@isRoughGro
$LN9@isRoughGro:

; 454  : 		{
; 455  : 			return true;

	mov	al, 1

; 463  : 	}

	ret	0
$LN2@isRoughGro:

; 456  : 		}
; 457  : 		if(isMountain())

	test	al, al

; 458  : 		{
; 459  : 			return true;

	je	SHORT $LN9@isRoughGro

; 460  : 		}
; 461  : 
; 462  : 		return m_bRoughFeature;

	mov	al, BYTE PTR [ecx+462]
	shr	al, 3
	and	al, 1

; 463  : 	}

	ret	0
?isRoughGround@CvPlot@@QBE_NXZ ENDP			; CvPlot::isRoughGround
_TEXT	ENDS
PUBLIC	?getPlotCity@CvPlot@@QBEPAVCvCity@@XZ		; CvPlot::getPlotCity
; Function compile flags: /Ogtpy
;	COMDAT ?getPlotCity@CvPlot@@QBEPAVCvCity@@XZ
_TEXT	SEGMENT
?getPlotCity@CvPlot@@QBEPAVCvCity@@XZ PROC		; CvPlot::getPlotCity, COMDAT
; _this$ = ecx

; 533  : 		if((m_plotCity.eOwner >= 0) && m_plotCity.eOwner < MAX_PLAYERS)

	mov	eax, DWORD PTR [ecx+104]
	test	eax, eax
	jl	SHORT $LN1@getPlotCit
	cmp	eax, 64					; 00000040H
	jge	SHORT $LN1@getPlotCit

; 534  : 			return (GET_PLAYER((PlayerTypes)m_plotCity.eOwner).getCity(m_plotCity.iID));

	mov	ecx, DWORD PTR [ecx+108]
	imul	eax, 63236				; 0000f704H
	add	eax, DWORD PTR ?m_aPlayers@CvPlayerAI@@1PAV1@A ; CvPlayerAI::m_aPlayers
	push	ecx
	mov	ecx, eax
	call	?getCity@CvPlayer@@QAEPAVCvCity@@H@Z	; CvPlayer::getCity

; 537  : 	}

	ret	0
$LN1@getPlotCit:

; 535  : 
; 536  : 		return NULL;

	xor	eax, eax

; 537  : 	}

	ret	0
?getPlotCity@CvPlot@@QBEPAVCvCity@@XZ ENDP		; CvPlot::getPlotCity
_TEXT	ENDS
PUBLIC	?getVisibilityCount@CvPlot@@QBEHW4TeamTypes@@@Z	; CvPlot::getVisibilityCount
; Function compile flags: /Ogtpy
;	COMDAT ?getVisibilityCount@CvPlot@@QBEHW4TeamTypes@@@Z
_TEXT	SEGMENT
_eTeam$ = 8						; size = 4
?getVisibilityCount@CvPlot@@QBEHW4TeamTypes@@@Z PROC	; CvPlot::getVisibilityCount, COMDAT
; _this$ = ecx

; 588  : 		CvAssertMsg(eTeam >= 0, "eTeam is expected to be non-negative (invalid Index)");
; 589  : 		CvAssertMsg(eTeam < MAX_TEAMS, "eTeam is expected to be within maximum bounds (invalid Index)");
; 590  : 
; 591  : 		return m_aiVisibilityCount[eTeam];

	mov	eax, DWORD PTR [ecx+156]
	mov	ecx, DWORD PTR _eTeam$[esp-4]
	movsx	eax, WORD PTR [eax+ecx*2]

; 592  : 	}

	ret	4
?getVisibilityCount@CvPlot@@QBEHW4TeamTypes@@@Z ENDP	; CvPlot::getVisibilityCount
_TEXT	ENDS
PUBLIC	?GetBit@PlotBoolField@CvPlot@@QBE_NI@Z		; CvPlot::PlotBoolField::GetBit
; Function compile flags: /Ogtpy
;	COMDAT ?GetBit@PlotBoolField@CvPlot@@QBE_NI@Z
_TEXT	SEGMENT
_uiEntry$ = 8						; size = 4
?GetBit@PlotBoolField@CvPlot@@QBE_NI@Z PROC		; CvPlot::PlotBoolField::GetBit, COMDAT
; _this$ = ecx

; 767  : 		{

	mov	edx, ecx

; 768  : 			const uint uiOffset = uiEntry/eSize;

	mov	ecx, DWORD PTR _uiEntry$[esp-4]
	push	esi
	mov	eax, ecx
	shr	eax, 5

; 769  : 			return m_dwBits[uiOffset] & 1<<(uiEntry-(eSize*uiOffset));

	mov	esi, eax
	shl	esi, 5
	sub	ecx, esi
	mov	esi, 1
	shl	esi, cl
	test	esi, DWORD PTR [edx+eax*4]
	pop	esi
	setne	al

; 770  : 		}

	ret	4
?GetBit@PlotBoolField@CvPlot@@QBE_NI@Z ENDP		; CvPlot::PlotBoolField::GetBit
_TEXT	ENDS
PUBLIC	?getGridWidth@CvMap@@QBEHXZ			; CvMap::getGridWidth
; Function compile flags: /Ogtpy
; File c:\users\enormousapplepie\desktop\lekmod files\lekmod dll versions\v29\lekmod_dll\cvgamecoredll_expansion2\cvmap.h
;	COMDAT ?getGridWidth@CvMap@@QBEHXZ
_TEXT	SEGMENT
?getGridWidth@CvMap@@QBEHXZ PROC			; CvMap::getGridWidth, COMDAT
; _this$ = ecx

; 198  : 		return m_iGridWidth;

	mov	eax, DWORD PTR [ecx+4020]

; 199  : 	}

	ret	0
?getGridWidth@CvMap@@QBEHXZ ENDP			; CvMap::getGridWidth
_TEXT	ENDS
PUBLIC	?getGridHeight@CvMap@@QBEHXZ			; CvMap::getGridHeight
; Function compile flags: /Ogtpy
;	COMDAT ?getGridHeight@CvMap@@QBEHXZ
_TEXT	SEGMENT
?getGridHeight@CvMap@@QBEHXZ PROC			; CvMap::getGridHeight, COMDAT
; _this$ = ecx

; 206  : 		return m_iGridHeight;

	mov	eax, DWORD PTR [ecx+4024]

; 207  : 	}

	ret	0
?getGridHeight@CvMap@@QBEHXZ ENDP			; CvMap::getGridHeight
_TEXT	ENDS
PUBLIC	?isWrapX@CvMap@@QBE_NXZ				; CvMap::isWrapX
; Function compile flags: /Ogtpy
;	COMDAT ?isWrapX@CvMap@@QBE_NXZ
_TEXT	SEGMENT
?isWrapX@CvMap@@QBE_NXZ PROC				; CvMap::isWrapX, COMDAT
; _this$ = ecx

; 228  : 		return m_bWrapX;

	mov	al, BYTE PTR [ecx+4056]

; 229  : 	}

	ret	0
?isWrapX@CvMap@@QBE_NXZ ENDP				; CvMap::isWrapX
_TEXT	ENDS
PUBLIC	?isWrapY@CvMap@@QBE_NXZ				; CvMap::isWrapY
; Function compile flags: /Ogtpy
;	COMDAT ?isWrapY@CvMap@@QBE_NXZ
_TEXT	SEGMENT
?isWrapY@CvMap@@QBE_NXZ PROC				; CvMap::isWrapY, COMDAT
; _this$ = ecx

; 233  : 		return m_bWrapY;

	mov	al, BYTE PTR [ecx+4057]

; 234  : 	}

	ret	0
?isWrapY@CvMap@@QBE_NXZ ENDP				; CvMap::isWrapY
_TEXT	ENDS
PUBLIC	??A?$vector@W4TeamTypes@@V?$allocator@W4TeamTypes@@@std@@@std@@QBEABW4TeamTypes@@I@Z ; std::vector<enum TeamTypes,std::allocator<enum TeamTypes> >::operator[]
; Function compile flags: /Ogtpy
; File c:\program files (x86)\microsoft visual studio 9.0\vc\include\vector
;	COMDAT ??A?$vector@W4TeamTypes@@V?$allocator@W4TeamTypes@@@std@@@std@@QBEABW4TeamTypes@@I@Z
_TEXT	SEGMENT
__Pos$ = 8						; size = 4
??A?$vector@W4TeamTypes@@V?$allocator@W4TeamTypes@@@std@@@std@@QBEABW4TeamTypes@@I@Z PROC ; std::vector<enum TeamTypes,std::allocator<enum TeamTypes> >::operator[], COMDAT
; _this$ = ecx

; 760  : 
; 761  :  #if _HAS_ITERATOR_DEBUGGING
; 762  : 		if (size() <= _Pos)
; 763  : 			{
; 764  : 			_DEBUG_ERROR("vector subscript out of range");
; 765  : 			_SCL_SECURE_OUT_OF_RANGE;
; 766  : 			}
; 767  :  #endif /* _HAS_ITERATOR_DEBUGGING */
; 768  : 		_SCL_SECURE_VALIDATE_RANGE(_Pos < size());
; 769  : 
; 770  : 		return (*(_Myfirst + _Pos));

	mov	eax, DWORD PTR [ecx+4]
	mov	ecx, DWORD PTR __Pos$[esp-4]
	lea	eax, DWORD PTR [eax+ecx*4]

; 771  : 		}

	ret	4
??A?$vector@W4TeamTypes@@V?$allocator@W4TeamTypes@@@std@@@std@@QBEABW4TeamTypes@@I@Z ENDP ; std::vector<enum TeamTypes,std::allocator<enum TeamTypes> >::operator[]
_TEXT	ENDS
PUBLIC	??B?$FAutoVariable@DVCvPlot@@@@QBEABDXZ		; FAutoVariable<char,CvPlot>::operator char const &
; Function compile flags: /Ogtpy
; File c:\users\enormousapplepie\desktop\lekmod files\lekmod dll versions\v29\lekmod_dll\fireplace\include\fireworks\fautovariable.h
;	COMDAT ??B?$FAutoVariable@DVCvPlot@@@@QBEABDXZ
_TEXT	SEGMENT
??B?$FAutoVariable@DVCvPlot@@@@QBEABDXZ PROC		; FAutoVariable<char,CvPlot>::operator char const &, COMDAT
; _this$ = ecx

; 194  : 	return m_value;

	lea	eax, DWORD PTR [ecx+4]

; 195  : }

	ret	0
??B?$FAutoVariable@DVCvPlot@@@@QBEABDXZ ENDP		; FAutoVariable<char,CvPlot>::operator char const &
_TEXT	ENDS
PUBLIC	?dxWrap@@YAHH@Z					; dxWrap
EXTRN	?gGlobals@@3VCvGlobals@@A:BYTE			; gGlobals
; Function compile flags: /Ogtpy
; File c:\users\enormousapplepie\desktop\lekmod files\lekmod dll versions\v29\lekmod_dll\cvgamecoredll_expansion2\cvgamecoreutils.h
;	COMDAT ?dxWrap@@YAHH@Z
_TEXT	SEGMENT
_iDX$ = 8						; size = 4
?dxWrap@@YAHH@Z PROC					; dxWrap, COMDAT

; 74   : 	const CvMap& kMap = GC.getMap();

	mov	eax, DWORD PTR ?gGlobals@@3VCvGlobals@@A+52

; 75   : 	return wrapCoordDifference(iDX, kMap.getGridWidth(), kMap.isWrapX());

	mov	edx, DWORD PTR [eax+4020]
	cmp	BYTE PTR [eax+4056], 0
	mov	eax, DWORD PTR _iDX$[esp-4]
	je	SHORT $LN13@dxWrap
	mov	ecx, edx
	shr	ecx, 1
	cmp	eax, ecx
	jle	SHORT $LN11@dxWrap
	sub	eax, edx

; 76   : }

	ret	0

; 75   : 	return wrapCoordDifference(iDX, kMap.getGridWidth(), kMap.isWrapX());

$LN11@dxWrap:
	neg	ecx
	cmp	eax, ecx
	jge	SHORT $LN13@dxWrap
	add	eax, edx
$LN13@dxWrap:

; 76   : }

	ret	0
?dxWrap@@YAHH@Z ENDP					; dxWrap
_TEXT	ENDS
PUBLIC	?dyWrap@@YAHH@Z					; dyWrap
; Function compile flags: /Ogtpy
;	COMDAT ?dyWrap@@YAHH@Z
_TEXT	SEGMENT
_iDY$ = 8						; size = 4
?dyWrap@@YAHH@Z PROC					; dyWrap, COMDAT

; 80   : 	const CvMap& kMap = GC.getMap();

	mov	eax, DWORD PTR ?gGlobals@@3VCvGlobals@@A+52

; 81   : 	return wrapCoordDifference(iDY, kMap.getGridHeight(), kMap.isWrapY());

	mov	edx, DWORD PTR [eax+4024]
	cmp	BYTE PTR [eax+4057], 0
	mov	eax, DWORD PTR _iDY$[esp-4]
	je	SHORT $LN13@dyWrap
	mov	ecx, edx
	shr	ecx, 1
	cmp	eax, ecx
	jle	SHORT $LN11@dyWrap
	sub	eax, edx

; 82   : }

	ret	0

; 81   : 	return wrapCoordDifference(iDY, kMap.getGridHeight(), kMap.isWrapY());

$LN11@dyWrap:
	neg	ecx
	cmp	eax, ecx
	jge	SHORT $LN13@dyWrap
	add	eax, edx
$LN13@dyWrap:

; 82   : }

	ret	0
?dyWrap@@YAHH@Z ENDP					; dyWrap
_TEXT	ENDS
PUBLIC	?directionXY@@YA?AW4DirectionTypes@@HHHH@Z	; directionXY
; Function compile flags: /Ogtpy
;	COMDAT ?directionXY@@YA?AW4DirectionTypes@@HHHH@Z
_TEXT	SEGMENT
_iSourceX$ = 8						; size = 4
_iSourceY$ = 12						; size = 4
_iDestX$ = 16						; size = 4
_iDestY$ = 20						; size = 4
?directionXY@@YA?AW4DirectionTypes@@HHHH@Z PROC		; directionXY, COMDAT

; 264  : {

	push	ebx

; 265  : 	int iSourceHexX = xToHexspaceX(iSourceX, iSourceY);

	mov	ebx, DWORD PTR _iSourceY$[esp]
	push	esi
	push	edi
	test	ebx, ebx
	jl	SHORT $LN17@directionX
	mov	eax, ebx
	jmp	SHORT $LN51@directionX
$LN17@directionX:
	lea	eax, DWORD PTR [ebx-1]
	cdq
	sub	eax, edx
$LN51@directionX:
	mov	esi, DWORD PTR _iSourceX$[esp+8]

; 266  : 	int iDestHexX = xToHexspaceX(iDestX, iDestY);

	mov	edi, DWORD PTR _iDestY$[esp+8]
	sar	eax, 1
	sub	esi, eax
	test	edi, edi
	jl	SHORT $LN21@directionX
	mov	eax, edi
	jmp	SHORT $LN52@directionX
$LN21@directionX:
	lea	eax, DWORD PTR [edi-1]
	cdq
	sub	eax, edx
$LN52@directionX:

; 267  : 
; 268  : 	int iWrappedXOffset = dxWrap(iDestHexX - iSourceHexX);

	mov	ecx, DWORD PTR _iDestX$[esp+8]
	sar	eax, 1
	sub	ecx, eax
	sub	ecx, esi
	mov	esi, DWORD PTR ?gGlobals@@3VCvGlobals@@A+52
	cmp	BYTE PTR [esi+4056], 0
	mov	edx, DWORD PTR [esi+4020]
	je	SHORT $LN31@directionX
	mov	eax, edx
	shr	eax, 1
	cmp	ecx, eax
	jle	SHORT $LN33@directionX
	sub	ecx, edx
	jmp	SHORT $LN31@directionX
$LN33@directionX:
	neg	eax
	cmp	ecx, eax
	lea	eax, DWORD PTR [edx+ecx]
	jl	SHORT $LN35@directionX
$LN31@directionX:
	mov	eax, ecx
$LN35@directionX:

; 269  : 	int iWrappedYOffset = dyWrap(iDestY - iSourceY);

	sub	edi, ebx
	cmp	BYTE PTR [esi+4057], 0
	mov	edx, edi
	mov	edi, DWORD PTR [esi+4024]
	je	SHORT $LN45@directionX
	mov	esi, edi
	shr	esi, 1
	cmp	edx, esi
	jle	SHORT $LN47@directionX
	sub	edx, edi
	jmp	SHORT $LN45@directionX
$LN47@directionX:
	neg	esi
	cmp	edx, esi
	jge	SHORT $LN45@directionX
	add	edx, edi
$LN45@directionX:
	pop	edi
	pop	esi
	pop	ebx

; 270  : 
; 271  : 	if(iWrappedYOffset > 0)

	test	edx, edx
	jle	SHORT $LN53@directionX

; 272  : 	{
; 273  : 		if(iWrappedXOffset >= 0)

	xor	ecx, ecx
	test	eax, eax
	setge	cl
	dec	ecx
	and	ecx, 5
	mov	eax, ecx

; 300  : 		{
; 301  : 			return DIRECTION_SOUTHEAST;
; 302  : 		}
; 303  : 		else
; 304  : 		{
; 305  : 			return DIRECTION_SOUTHWEST;
; 306  : 		}
; 307  : 	}
; 308  : }

	ret	0
$LN53@directionX:

; 274  : 		{
; 275  : 			return DIRECTION_NORTHEAST;
; 276  : 		}
; 277  : 		else
; 278  : 		{
; 279  : 			return DIRECTION_NORTHWEST;
; 280  : 		}
; 281  : 	}
; 282  : 	else if(iWrappedYOffset == 0)

	jne	SHORT $LN8@directionX

; 283  : 	{
; 284  : 		if(iWrappedXOffset > 0)

	test	eax, eax
	jle	SHORT $LN7@directionX

; 285  : 		{
; 286  : 			return DIRECTION_EAST;

	mov	eax, 1

; 300  : 		{
; 301  : 			return DIRECTION_SOUTHEAST;
; 302  : 		}
; 303  : 		else
; 304  : 		{
; 305  : 			return DIRECTION_SOUTHWEST;
; 306  : 		}
; 307  : 	}
; 308  : }

	ret	0
$LN7@directionX:

; 287  : 		}
; 288  : 		else if(iWrappedXOffset == 0)

	neg	eax
	sbb	eax, eax
	and	eax, 5
	dec	eax

; 300  : 		{
; 301  : 			return DIRECTION_SOUTHEAST;
; 302  : 		}
; 303  : 		else
; 304  : 		{
; 305  : 			return DIRECTION_SOUTHWEST;
; 306  : 		}
; 307  : 	}
; 308  : }

	ret	0
$LN8@directionX:

; 289  : 		{
; 290  : 			return NO_DIRECTION;
; 291  : 		}
; 292  : 		else
; 293  : 		{
; 294  : 			return DIRECTION_WEST;
; 295  : 		}
; 296  : 	}
; 297  : 	else// if (iWrappedYOffset < 0)
; 298  : 	{
; 299  : 		if(iWrappedXOffset > 0)

	xor	edx, edx
	test	eax, eax
	setle	dl
	add	edx, 2
	mov	eax, edx

; 300  : 		{
; 301  : 			return DIRECTION_SOUTHEAST;
; 302  : 		}
; 303  : 		else
; 304  : 		{
; 305  : 			return DIRECTION_SOUTHWEST;
; 306  : 		}
; 307  : 	}
; 308  : }

	ret	0
?directionXY@@YA?AW4DirectionTypes@@HHHH@Z ENDP		; directionXY
_TEXT	ENDS
PUBLIC	?directionXY@@YA?AW4DirectionTypes@@PBVCvPlot@@0@Z ; directionXY
; Function compile flags: /Ogtpy
;	COMDAT ?directionXY@@YA?AW4DirectionTypes@@PBVCvPlot@@0@Z
_TEXT	SEGMENT
_pFromPlot$ = 8						; size = 4
_pToPlot$ = 12						; size = 4
?directionXY@@YA?AW4DirectionTypes@@PBVCvPlot@@0@Z PROC	; directionXY, COMDAT

; 312  : 	return directionXY(pFromPlot->getX(), pFromPlot->getY(),
; 313  : 	                   pToPlot->getX(), pToPlot->getY());

	mov	eax, DWORD PTR _pToPlot$[esp-4]
	movsx	ecx, WORD PTR [eax+2]
	movsx	edx, WORD PTR [eax]
	mov	eax, DWORD PTR _pFromPlot$[esp-4]
	push	ecx
	movsx	ecx, WORD PTR [eax+2]
	push	edx
	movsx	edx, WORD PTR [eax]
	push	ecx
	push	edx
	call	?directionXY@@YA?AW4DirectionTypes@@HHHH@Z ; directionXY
	add	esp, 16					; 00000010H

; 314  : 
; 315  : }

	ret	0
?directionXY@@YA?AW4DirectionTypes@@PBVCvPlot@@0@Z ENDP	; directionXY
_TEXT	ENDS
PUBLIC	?HandleMissingInstance@CvLuaPlot@@SAXPAUlua_State@@@Z ; CvLuaPlot::HandleMissingInstance
; Function compile flags: /Ogtpy
; File c:\users\enormousapplepie\desktop\lekmod files\lekmod dll versions\v29\lekmod_dll\cvgamecoredll_expansion2\lua\cvluaplot.cpp
;	COMDAT ?HandleMissingInstance@CvLuaPlot@@SAXPAUlua_State@@@Z
_TEXT	SEGMENT
_L$ = 8							; size = 4
?HandleMissingInstance@CvLuaPlot@@SAXPAUlua_State@@@Z PROC ; CvLuaPlot::HandleMissingInstance, COMDAT

; 278  : 	DefaultHandleMissingInstance(L);

	mov	eax, DWORD PTR _L$[esp-4]
	push	OFFSET $SG223027
	push	eax
	call	_luaL_error
	add	esp, 8

; 279  : }

	ret	0
?HandleMissingInstance@CvLuaPlot@@SAXPAUlua_State@@@Z ENDP ; CvLuaPlot::HandleMissingInstance
_TEXT	ENDS
PUBLIC	??1?$FObjectHandle@VCvUnit@@@@QAE@XZ		; FObjectHandle<CvUnit>::~FObjectHandle<CvUnit>
EXTRN	?getDestructionNotification@CvUnit@@QAEAAU?$DestructionNotification@V?$FObjectHandle@VCvUnit@@@@@@XZ:PROC ; CvUnit::getDestructionNotification
; Function compile flags: /Ogtpy
; File c:\users\enormousapplepie\desktop\lekmod files\lekmod dll versions\v29\lekmod_dll\fireplace\include\fireworks\fobjecthandle.h
;	COMDAT ??1?$FObjectHandle@VCvUnit@@@@QAE@XZ
_TEXT	SEGMENT
??1?$FObjectHandle@VCvUnit@@@@QAE@XZ PROC		; FObjectHandle<CvUnit>::~FObjectHandle<CvUnit>, COMDAT
; _this$ = ecx

; 147  : 		if(m_target) 

	mov	ecx, DWORD PTR [ecx]
	test	ecx, ecx
	je	SHORT $LN4@FObjectHan

; 148  : 		{
; 149  : 			m_target->getDestructionNotification().removeTarget(*this);

	jmp	?getDestructionNotification@CvUnit@@QAEAAU?$DestructionNotification@V?$FObjectHandle@VCvUnit@@@@@@XZ ; CvUnit::getDestructionNotification
$LN4@FObjectHan:

; 150  : 		}
; 151  : 	}

	ret	0
??1?$FObjectHandle@VCvUnit@@@@QAE@XZ ENDP		; FObjectHandle<CvUnit>::~FObjectHandle<CvUnit>
_TEXT	ENDS
PUBLIC	?GetInstance@?$CvLuaScopedInstance@VCvLuaPlot@@VCvPlot@@@@SAPAVCvPlot@@PAUlua_State@@H_N@Z ; CvLuaScopedInstance<CvLuaPlot,CvPlot>::GetInstance
; Function compile flags: /Ogtpy
; File c:\users\enormousapplepie\desktop\lekmod files\lekmod dll versions\v29\lekmod_dll\cvgamecoredll_expansion2\lua\cvluascopedinstance.h
;	COMDAT ?GetInstance@?$CvLuaScopedInstance@VCvLuaPlot@@VCvPlot@@@@SAPAVCvPlot@@PAUlua_State@@H_N@Z
_TEXT	SEGMENT
_L$ = 8							; size = 4
_idx$ = 12						; size = 4
_bErrorOnFail$ = 16					; size = 1
?GetInstance@?$CvLuaScopedInstance@VCvLuaPlot@@VCvPlot@@@@SAPAVCvPlot@@PAUlua_State@@H_N@Z PROC ; CvLuaScopedInstance<CvLuaPlot,CvPlot>::GetInstance, COMDAT

; 127  : {

	push	ebx
	push	ebp
	push	esi

; 128  : 	const int stack_size = lua_gettop(L);

	mov	esi, DWORD PTR _L$[esp+8]
	push	edi
	push	esi
	call	_lua_gettop
	mov	ebp, eax

; 129  : 	bool bFail = true;
; 130  : 
; 131  : 	InstanceType* pkInstance = NULL;
; 132  : 	if(lua_type(L, idx) == LUA_TTABLE)

	mov	eax, DWORD PTR _idx$[esp+16]
	push	eax
	push	esi
	mov	bl, 1
	xor	edi, edi
	call	_lua_type
	add	esp, 12					; 0000000cH
	cmp	eax, 5
	jne	SHORT $LN3@GetInstanc@3

; 133  : 	{
; 134  : 		lua_getfield(L, idx, "__instance");

	mov	ecx, DWORD PTR _idx$[esp+12]
	push	OFFSET $SG223013
	push	ecx
	push	esi
	call	_lua_getfield

; 135  : 		if(lua_type(L, -1) == LUA_TLIGHTUSERDATA)

	push	-1
	push	esi
	call	_lua_type
	add	esp, 20					; 00000014H
	cmp	eax, 2
	jne	SHORT $LN3@GetInstanc@3

; 136  : 		{
; 137  : 			pkInstance = static_cast<InstanceType*>(lua_touserdata(L, -1));

	push	-1
	push	esi
	call	_lua_touserdata
	mov	edi, eax
	add	esp, 8

; 138  : 			if(pkInstance)

	test	edi, edi
	je	SHORT $LN3@GetInstanc@3

; 139  : 			{
; 140  : 				bFail = false;

	xor	bl, bl
$LN3@GetInstanc@3:

; 141  : 			}
; 142  : 		}
; 143  : 	}
; 144  : 
; 145  : 	lua_settop(L, stack_size);

	push	ebp
	push	esi
	call	_lua_settop
	add	esp, 8

; 146  : 
; 147  : 	if(bFail && bErrorOnFail)

	test	bl, bl
	je	SHORT $LN13@GetInstanc@3
	cmp	BYTE PTR _bErrorOnFail$[esp+12], 0
	je	SHORT $LN13@GetInstanc@3

; 148  : 	{
; 149  : 		if(idx == 1)

	cmp	DWORD PTR _idx$[esp+12], 1
	jne	SHORT $LN1@GetInstanc@3

; 150  : 			luaL_error(L, "Not a valid instance.  Either the instance is NULL or you used '.' instead of ':'.");

	push	OFFSET $SG223019
	push	esi
	call	_luaL_error
	add	esp, 8
$LN1@GetInstanc@3:

; 151  : 		Derived::HandleMissingInstance(L);

	push	OFFSET $SG223027
	push	esi
	call	_luaL_error
	add	esp, 8
$LN13@GetInstanc@3:

; 152  : 	}
; 153  : 	return pkInstance;

	mov	eax, edi
	pop	edi
	pop	esi
	pop	ebp
	pop	ebx

; 154  : }

	ret	0
?GetInstance@?$CvLuaScopedInstance@VCvLuaPlot@@VCvPlot@@@@SAPAVCvPlot@@PAUlua_State@@H_N@Z ENDP ; CvLuaScopedInstance<CvLuaPlot,CvPlot>::GetInstance
_TEXT	ENDS
PUBLIC	??$BasicLuaMethod@_N@?$CvLuaMethodWrapper@VCvLuaPlot@@VCvPlot@@@@KAHPAUlua_State@@P8CvPlot@@AEX_N@Z@Z ; CvLuaMethodWrapper<CvLuaPlot,CvPlot>::BasicLuaMethod<bool>
; Function compile flags: /Ogtpy
; File c:\users\enormousapplepie\desktop\lekmod files\lekmod dll versions\v29\lekmod_dll\cvgamecoredllutil\include\cvluamethodwrapper.h
;	COMDAT ??$BasicLuaMethod@_N@?$CvLuaMethodWrapper@VCvLuaPlot@@VCvPlot@@@@KAHPAUlua_State@@P8CvPlot@@AEX_N@Z@Z
_TEXT	SEGMENT
_L$ = 8							; size = 4
_func$ = 12						; size = 4
??$BasicLuaMethod@_N@?$CvLuaMethodWrapper@VCvLuaPlot@@VCvPlot@@@@KAHPAUlua_State@@P8CvPlot@@AEX_N@Z@Z PROC ; CvLuaMethodWrapper<CvLuaPlot,CvPlot>::BasicLuaMethod<bool>, COMDAT

; 230  : {

	push	ebx
	push	ebp
	push	esi

; 231  : 	const int idx = Derived::GetStartingArgIndex();
; 232  : 	InstanceType* pkType = Derived::GetInstance(L);

	mov	esi, DWORD PTR _L$[esp+8]
	push	edi
	push	esi
	call	_lua_gettop
	push	1
	push	esi
	mov	ebp, eax
	mov	bl, 1
	xor	edi, edi
	call	_lua_type
	add	esp, 12					; 0000000cH
	cmp	eax, 5
	jne	SHORT $LN7@BasicLuaMe
	push	OFFSET $SG223013
	push	1
	push	esi
	call	_lua_getfield
	push	-1
	push	esi
	call	_lua_type
	add	esp, 20					; 00000014H
	cmp	eax, 2
	jne	SHORT $LN7@BasicLuaMe
	push	-1
	push	esi
	call	_lua_touserdata
	mov	edi, eax
	add	esp, 8
	test	edi, edi
	je	SHORT $LN7@BasicLuaMe
	xor	bl, bl
$LN7@BasicLuaMe:
	push	ebp
	push	esi
	call	_lua_settop
	add	esp, 8
	test	bl, bl
	je	SHORT $LN14@BasicLuaMe
	push	OFFSET $SG223019
	push	esi
	call	_luaL_error
	push	OFFSET $SG223027
	push	esi
	call	_luaL_error
	add	esp, 16					; 00000010H
$LN14@BasicLuaMe:

; 233  : 	(pkType->*func)(CvLuaArgs::toValue<arg1>(L, idx));

	push	2
	push	esi
	call	_lua_toboolean
	add	esp, 8
	test	eax, eax
	setne	al
	movzx	ecx, al
	push	ecx
	mov	ecx, edi
	call	DWORD PTR _func$[esp+16]
	pop	edi
	pop	esi
	pop	ebp

; 234  : 	return 0;

	xor	eax, eax
	pop	ebx

; 235  : }

	ret	0
??$BasicLuaMethod@_N@?$CvLuaMethodWrapper@VCvLuaPlot@@VCvPlot@@@@KAHPAUlua_State@@P8CvPlot@@AEX_N@Z@Z ENDP ; CvLuaMethodWrapper<CvLuaPlot,CvPlot>::BasicLuaMethod<bool>
_TEXT	ENDS
PUBLIC	??$BasicLuaMethod@W4TeamTypes@@@?$CvLuaMethodWrapper@VCvLuaPlot@@VCvPlot@@@@KAHPAUlua_State@@P8CvPlot@@BE?AW4TeamTypes@@XZ@Z ; CvLuaMethodWrapper<CvLuaPlot,CvPlot>::BasicLuaMethod<enum TeamTypes>
; Function compile flags: /Ogtpy
;	COMDAT ??$BasicLuaMethod@W4TeamTypes@@@?$CvLuaMethodWrapper@VCvLuaPlot@@VCvPlot@@@@KAHPAUlua_State@@P8CvPlot@@BE?AW4TeamTypes@@XZ@Z
_TEXT	SEGMENT
_L$ = 8							; size = 4
_func$ = 12						; size = 4
??$BasicLuaMethod@W4TeamTypes@@@?$CvLuaMethodWrapper@VCvLuaPlot@@VCvPlot@@@@KAHPAUlua_State@@P8CvPlot@@BE?AW4TeamTypes@@XZ@Z PROC ; CvLuaMethodWrapper<CvLuaPlot,CvPlot>::BasicLuaMethod<enum TeamTypes>, COMDAT

; 69   : {

	push	ebx
	push	ebp
	push	esi

; 70   : 	InstanceType* pkType = Derived::GetInstance(L);

	mov	esi, DWORD PTR _L$[esp+8]
	push	edi
	push	esi
	call	_lua_gettop
	push	1
	push	esi
	mov	ebp, eax
	mov	bl, 1
	xor	edi, edi
	call	_lua_type
	add	esp, 12					; 0000000cH
	cmp	eax, 5
	jne	SHORT $LN5@BasicLuaMe@2
	push	OFFSET $SG223013
	push	1
	push	esi
	call	_lua_getfield
	push	-1
	push	esi
	call	_lua_type
	add	esp, 20					; 00000014H
	cmp	eax, 2
	jne	SHORT $LN5@BasicLuaMe@2
	push	-1
	push	esi
	call	_lua_touserdata
	mov	edi, eax
	add	esp, 8
	test	edi, edi
	je	SHORT $LN5@BasicLuaMe@2
	xor	bl, bl
$LN5@BasicLuaMe@2:
	push	ebp
	push	esi
	call	_lua_settop
	add	esp, 8
	test	bl, bl
	je	SHORT $LN12@BasicLuaMe@2
	push	OFFSET $SG223019
	push	esi
	call	_luaL_error
	push	OFFSET $SG223027
	push	esi
	call	_luaL_error
	add	esp, 16					; 00000010H
$LN12@BasicLuaMe@2:

; 71   : 	CvLuaArgs::pushValue<ret>(L, (pkType->*func)());

	mov	ecx, edi
	call	DWORD PTR _func$[esp+12]
	push	eax
	push	esi
	call	_lua_pushinteger
	add	esp, 8
	pop	edi
	pop	esi
	pop	ebp

; 72   : 
; 73   : 	return 1;

	mov	eax, 1
	pop	ebx

; 74   : }

	ret	0
??$BasicLuaMethod@W4TeamTypes@@@?$CvLuaMethodWrapper@VCvLuaPlot@@VCvPlot@@@@KAHPAUlua_State@@P8CvPlot@@BE?AW4TeamTypes@@XZ@Z ENDP ; CvLuaMethodWrapper<CvLuaPlot,CvPlot>::BasicLuaMethod<enum TeamTypes>
_TEXT	ENDS
PUBLIC	??$BasicLuaMethod@HPAVCvUnit@@@?$CvLuaMethodWrapper@VCvLuaPlot@@VCvPlot@@@@KAHPAUlua_State@@P8CvPlot@@AEXHPAVCvUnit@@@Z@Z ; CvLuaMethodWrapper<CvLuaPlot,CvPlot>::BasicLuaMethod<int,CvUnit *>
; Function compile flags: /Ogtpy
;	COMDAT ??$BasicLuaMethod@HPAVCvUnit@@@?$CvLuaMethodWrapper@VCvLuaPlot@@VCvPlot@@@@KAHPAUlua_State@@P8CvPlot@@AEXHPAVCvUnit@@@Z@Z
_TEXT	SEGMENT
_L$ = 8							; size = 4
_func$ = 12						; size = 4
??$BasicLuaMethod@HPAVCvUnit@@@?$CvLuaMethodWrapper@VCvLuaPlot@@VCvPlot@@@@KAHPAUlua_State@@P8CvPlot@@AEXHPAVCvUnit@@@Z@Z PROC ; CvLuaMethodWrapper<CvLuaPlot,CvPlot>::BasicLuaMethod<int,CvUnit *>, COMDAT

; 239  : {

	push	ebx
	push	ebp
	push	esi

; 240  : 	const int idx = Derived::GetStartingArgIndex();
; 241  : 	InstanceType* pkType = Derived::GetInstance(L);

	mov	esi, DWORD PTR _L$[esp+8]
	push	edi
	push	esi
	call	_lua_gettop
	push	1
	push	esi
	mov	ebp, eax
	mov	bl, 1
	xor	edi, edi
	call	_lua_type
	add	esp, 12					; 0000000cH
	cmp	eax, 5
	jne	SHORT $LN7@BasicLuaMe@3
	push	OFFSET $SG223013
	push	1
	push	esi
	call	_lua_getfield
	push	-1
	push	esi
	call	_lua_type
	add	esp, 20					; 00000014H
	cmp	eax, 2
	jne	SHORT $LN7@BasicLuaMe@3
	push	-1
	push	esi
	call	_lua_touserdata
	mov	edi, eax
	add	esp, 8
	test	edi, edi
	je	SHORT $LN7@BasicLuaMe@3
	xor	bl, bl
$LN7@BasicLuaMe@3:
	push	ebp
	push	esi
	call	_lua_settop
	add	esp, 8
	test	bl, bl
	je	SHORT $LN14@BasicLuaMe@3
	push	OFFSET $SG223019
	push	esi
	call	_luaL_error
	push	OFFSET $SG223027
	push	esi
	call	_luaL_error
	add	esp, 16					; 00000010H
$LN14@BasicLuaMe@3:

; 242  : 	(pkType->*func)(CvLuaArgs::toValue<arg1>(L, idx), CvLuaArgs::toValue<arg2>(L, idx + 1));

	push	3
	push	esi
	call	_lua_tointeger
	add	esp, 8
	push	eax
	push	2
	push	esi
	call	_lua_tointeger
	add	esp, 8
	push	eax
	mov	ecx, edi
	call	DWORD PTR _func$[esp+20]
	pop	edi
	pop	esi
	pop	ebp

; 243  : 	return 0;

	xor	eax, eax
	pop	ebx

; 244  : }

	ret	0
??$BasicLuaMethod@HPAVCvUnit@@@?$CvLuaMethodWrapper@VCvLuaPlot@@VCvPlot@@@@KAHPAUlua_State@@P8CvPlot@@AEXHPAVCvUnit@@@Z@Z ENDP ; CvLuaMethodWrapper<CvLuaPlot,CvPlot>::BasicLuaMethod<int,CvUnit *>
_TEXT	ENDS
PUBLIC	??$BasicLuaMethod@_N@?$CvLuaMethodWrapper@VCvLuaPlot@@VCvPlot@@@@KAHPAUlua_State@@P8CvPlot@@BE_NXZ@Z ; CvLuaMethodWrapper<CvLuaPlot,CvPlot>::BasicLuaMethod<bool>
; Function compile flags: /Ogtpy
;	COMDAT ??$BasicLuaMethod@_N@?$CvLuaMethodWrapper@VCvLuaPlot@@VCvPlot@@@@KAHPAUlua_State@@P8CvPlot@@BE_NXZ@Z
_TEXT	SEGMENT
_L$ = 8							; size = 4
_func$ = 12						; size = 4
??$BasicLuaMethod@_N@?$CvLuaMethodWrapper@VCvLuaPlot@@VCvPlot@@@@KAHPAUlua_State@@P8CvPlot@@BE_NXZ@Z PROC ; CvLuaMethodWrapper<CvLuaPlot,CvPlot>::BasicLuaMethod<bool>, COMDAT

; 69   : {

	push	ebx
	push	ebp
	push	esi

; 70   : 	InstanceType* pkType = Derived::GetInstance(L);

	mov	esi, DWORD PTR _L$[esp+8]
	push	edi
	push	esi
	call	_lua_gettop
	push	1
	push	esi
	mov	ebp, eax
	mov	bl, 1
	xor	edi, edi
	call	_lua_type
	add	esp, 12					; 0000000cH
	cmp	eax, 5
	jne	SHORT $LN5@BasicLuaMe@4
	push	OFFSET $SG223013
	push	1
	push	esi
	call	_lua_getfield
	push	-1
	push	esi
	call	_lua_type
	add	esp, 20					; 00000014H
	cmp	eax, 2
	jne	SHORT $LN5@BasicLuaMe@4
	push	-1
	push	esi
	call	_lua_touserdata
	mov	edi, eax
	add	esp, 8
	test	edi, edi
	je	SHORT $LN5@BasicLuaMe@4
	xor	bl, bl
$LN5@BasicLuaMe@4:
	push	ebp
	push	esi
	call	_lua_settop
	add	esp, 8
	test	bl, bl
	je	SHORT $LN12@BasicLuaMe@4
	push	OFFSET $SG223019
	push	esi
	call	_luaL_error
	push	OFFSET $SG223027
	push	esi
	call	_luaL_error
	add	esp, 16					; 00000010H
$LN12@BasicLuaMe@4:

; 71   : 	CvLuaArgs::pushValue<ret>(L, (pkType->*func)());

	mov	ecx, edi
	call	DWORD PTR _func$[esp+12]
	movzx	eax, al
	push	eax
	push	esi
	call	_lua_pushboolean
	add	esp, 8
	pop	edi
	pop	esi
	pop	ebp

; 72   : 
; 73   : 	return 1;

	mov	eax, 1
	pop	ebx

; 74   : }

	ret	0
??$BasicLuaMethod@_N@?$CvLuaMethodWrapper@VCvLuaPlot@@VCvPlot@@@@KAHPAUlua_State@@P8CvPlot@@BE_NXZ@Z ENDP ; CvLuaMethodWrapper<CvLuaPlot,CvPlot>::BasicLuaMethod<bool>
_TEXT	ENDS
PUBLIC	??$BasicLuaMethod@_NH@?$CvLuaMethodWrapper@VCvLuaPlot@@VCvPlot@@@@KAHPAUlua_State@@P8CvPlot@@BE_NH@Z@Z ; CvLuaMethodWrapper<CvLuaPlot,CvPlot>::BasicLuaMethod<bool,int>
; Function compile flags: /Ogtpy
;	COMDAT ??$BasicLuaMethod@_NH@?$CvLuaMethodWrapper@VCvLuaPlot@@VCvPlot@@@@KAHPAUlua_State@@P8CvPlot@@BE_NH@Z@Z
_TEXT	SEGMENT
_L$ = 8							; size = 4
_func$ = 12						; size = 4
??$BasicLuaMethod@_NH@?$CvLuaMethodWrapper@VCvLuaPlot@@VCvPlot@@@@KAHPAUlua_State@@P8CvPlot@@BE_NH@Z@Z PROC ; CvLuaMethodWrapper<CvLuaPlot,CvPlot>::BasicLuaMethod<bool,int>, COMDAT

; 78   : {

	push	ebx
	push	ebp
	push	esi

; 79   : 	const int idx = Derived::GetStartingArgIndex();
; 80   : 	InstanceType* pkType = Derived::GetInstance(L);

	mov	esi, DWORD PTR _L$[esp+8]
	push	edi
	push	esi
	call	_lua_gettop
	push	1
	push	esi
	mov	ebp, eax
	mov	bl, 1
	xor	edi, edi
	call	_lua_type
	add	esp, 12					; 0000000cH
	cmp	eax, 5
	jne	SHORT $LN7@BasicLuaMe@5
	push	OFFSET $SG223013
	push	1
	push	esi
	call	_lua_getfield
	push	-1
	push	esi
	call	_lua_type
	add	esp, 20					; 00000014H
	cmp	eax, 2
	jne	SHORT $LN7@BasicLuaMe@5
	push	-1
	push	esi
	call	_lua_touserdata
	mov	edi, eax
	add	esp, 8
	test	edi, edi
	je	SHORT $LN7@BasicLuaMe@5
	xor	bl, bl
$LN7@BasicLuaMe@5:
	push	ebp
	push	esi
	call	_lua_settop
	add	esp, 8
	test	bl, bl
	je	SHORT $LN14@BasicLuaMe@5
	push	OFFSET $SG223019
	push	esi
	call	_luaL_error
	push	OFFSET $SG223027
	push	esi
	call	_luaL_error
	add	esp, 16					; 00000010H
$LN14@BasicLuaMe@5:

; 81   : 	CvLuaArgs::pushValue<ret>(L, (pkType->*func)(CvLuaArgs::toValue<arg1>(L, idx)));

	push	2
	push	esi
	call	_lua_tointeger
	add	esp, 8
	push	eax
	mov	ecx, edi
	call	DWORD PTR _func$[esp+16]
	movzx	eax, al
	push	eax
	push	esi
	call	_lua_pushboolean
	add	esp, 8
	pop	edi
	pop	esi
	pop	ebp

; 82   : 
; 83   : 	return 1;

	mov	eax, 1
	pop	ebx

; 84   : }

	ret	0
??$BasicLuaMethod@_NH@?$CvLuaMethodWrapper@VCvLuaPlot@@VCvPlot@@@@KAHPAUlua_State@@P8CvPlot@@BE_NH@Z@Z ENDP ; CvLuaMethodWrapper<CvLuaPlot,CvPlot>::BasicLuaMethod<bool,int>
_TEXT	ENDS
PUBLIC	??$BasicLuaMethod@_NW4TeamTypes@@W4PlayerTypes@@@?$CvLuaMethodWrapper@VCvLuaPlot@@VCvPlot@@@@KAHPAUlua_State@@P8CvPlot@@BE_NW4TeamTypes@@W4PlayerTypes@@@Z@Z ; CvLuaMethodWrapper<CvLuaPlot,CvPlot>::BasicLuaMethod<bool,enum TeamTypes,enum PlayerTypes>
; Function compile flags: /Ogtpy
;	COMDAT ??$BasicLuaMethod@_NW4TeamTypes@@W4PlayerTypes@@@?$CvLuaMethodWrapper@VCvLuaPlot@@VCvPlot@@@@KAHPAUlua_State@@P8CvPlot@@BE_NW4TeamTypes@@W4PlayerTypes@@@Z@Z
_TEXT	SEGMENT
_L$ = 8							; size = 4
_func$ = 12						; size = 4
??$BasicLuaMethod@_NW4TeamTypes@@W4PlayerTypes@@@?$CvLuaMethodWrapper@VCvLuaPlot@@VCvPlot@@@@KAHPAUlua_State@@P8CvPlot@@BE_NW4TeamTypes@@W4PlayerTypes@@@Z@Z PROC ; CvLuaMethodWrapper<CvLuaPlot,CvPlot>::BasicLuaMethod<bool,enum TeamTypes,enum PlayerTypes>, COMDAT

; 88   : {

	push	ebx
	push	ebp
	push	esi

; 89   : 	const int idx = Derived::GetStartingArgIndex();
; 90   : 	InstanceType* pkType = Derived::GetInstance(L);

	mov	esi, DWORD PTR _L$[esp+8]
	push	edi
	push	esi
	call	_lua_gettop
	push	1
	push	esi
	mov	ebp, eax
	mov	bl, 1
	xor	edi, edi
	call	_lua_type
	add	esp, 12					; 0000000cH
	cmp	eax, 5
	jne	SHORT $LN7@BasicLuaMe@6
	push	OFFSET $SG223013
	push	1
	push	esi
	call	_lua_getfield
	push	-1
	push	esi
	call	_lua_type
	add	esp, 20					; 00000014H
	cmp	eax, 2
	jne	SHORT $LN7@BasicLuaMe@6
	push	-1
	push	esi
	call	_lua_touserdata
	mov	edi, eax
	add	esp, 8
	test	edi, edi
	je	SHORT $LN7@BasicLuaMe@6
	xor	bl, bl
$LN7@BasicLuaMe@6:
	push	ebp
	push	esi
	call	_lua_settop
	add	esp, 8
	test	bl, bl
	je	SHORT $LN14@BasicLuaMe@6
	push	OFFSET $SG223019
	push	esi
	call	_luaL_error
	push	OFFSET $SG223027
	push	esi
	call	_luaL_error
	add	esp, 16					; 00000010H
$LN14@BasicLuaMe@6:

; 91   : 	CvLuaArgs::pushValue<ret>(L, (pkType->*func)(CvLuaArgs::toValue<arg1>(L, idx), CvLuaArgs::toValue<arg2>(L, idx + 1)));

	push	3
	push	esi
	call	_lua_tointeger
	push	2
	push	esi
	mov	ebx, eax
	call	_lua_tointeger
	add	esp, 16					; 00000010H
	push	ebx
	push	eax
	mov	ecx, edi
	call	DWORD PTR _func$[esp+20]
	movzx	eax, al
	push	eax
	push	esi
	call	_lua_pushboolean
	add	esp, 8
	pop	edi
	pop	esi
	pop	ebp

; 92   : 
; 93   : 	return 1;

	mov	eax, 1
	pop	ebx

; 94   : }

	ret	0
??$BasicLuaMethod@_NW4TeamTypes@@W4PlayerTypes@@@?$CvLuaMethodWrapper@VCvLuaPlot@@VCvPlot@@@@KAHPAUlua_State@@P8CvPlot@@BE_NW4TeamTypes@@W4PlayerTypes@@@Z@Z ENDP ; CvLuaMethodWrapper<CvLuaPlot,CvPlot>::BasicLuaMethod<bool,enum TeamTypes,enum PlayerTypes>
_TEXT	ENDS
PUBLIC	??$BasicLuaMethod@_NW4DirectionTypes@@@?$CvLuaMethodWrapper@VCvLuaPlot@@VCvPlot@@@@KAHPAUlua_State@@P8CvPlot@@BE_NW4DirectionTypes@@@Z@Z ; CvLuaMethodWrapper<CvLuaPlot,CvPlot>::BasicLuaMethod<bool,enum DirectionTypes>
; Function compile flags: /Ogtpy
;	COMDAT ??$BasicLuaMethod@_NW4DirectionTypes@@@?$CvLuaMethodWrapper@VCvLuaPlot@@VCvPlot@@@@KAHPAUlua_State@@P8CvPlot@@BE_NW4DirectionTypes@@@Z@Z
_TEXT	SEGMENT
_L$ = 8							; size = 4
_func$ = 12						; size = 4
??$BasicLuaMethod@_NW4DirectionTypes@@@?$CvLuaMethodWrapper@VCvLuaPlot@@VCvPlot@@@@KAHPAUlua_State@@P8CvPlot@@BE_NW4DirectionTypes@@@Z@Z PROC ; CvLuaMethodWrapper<CvLuaPlot,CvPlot>::BasicLuaMethod<bool,enum DirectionTypes>, COMDAT

; 78   : {

	push	ebx
	push	ebp
	push	esi

; 79   : 	const int idx = Derived::GetStartingArgIndex();
; 80   : 	InstanceType* pkType = Derived::GetInstance(L);

	mov	esi, DWORD PTR _L$[esp+8]
	push	edi
	push	esi
	call	_lua_gettop
	push	1
	push	esi
	mov	ebp, eax
	mov	bl, 1
	xor	edi, edi
	call	_lua_type
	add	esp, 12					; 0000000cH
	cmp	eax, 5
	jne	SHORT $LN7@BasicLuaMe@7
	push	OFFSET $SG223013
	push	1
	push	esi
	call	_lua_getfield
	push	-1
	push	esi
	call	_lua_type
	add	esp, 20					; 00000014H
	cmp	eax, 2
	jne	SHORT $LN7@BasicLuaMe@7
	push	-1
	push	esi
	call	_lua_touserdata
	mov	edi, eax
	add	esp, 8
	test	edi, edi
	je	SHORT $LN7@BasicLuaMe@7
	xor	bl, bl
$LN7@BasicLuaMe@7:
	push	ebp
	push	esi
	call	_lua_settop
	add	esp, 8
	test	bl, bl
	je	SHORT $LN14@BasicLuaMe@7
	push	OFFSET $SG223019
	push	esi
	call	_luaL_error
	push	OFFSET $SG223027
	push	esi
	call	_luaL_error
	add	esp, 16					; 00000010H
$LN14@BasicLuaMe@7:

; 81   : 	CvLuaArgs::pushValue<ret>(L, (pkType->*func)(CvLuaArgs::toValue<arg1>(L, idx)));

	push	2
	push	esi
	call	_lua_tointeger
	add	esp, 8
	push	eax
	mov	ecx, edi
	call	DWORD PTR _func$[esp+16]
	movzx	eax, al
	push	eax
	push	esi
	call	_lua_pushboolean
	add	esp, 8
	pop	edi
	pop	esi
	pop	ebp

; 82   : 
; 83   : 	return 1;

	mov	eax, 1
	pop	ebx

; 84   : }

	ret	0
??$BasicLuaMethod@_NW4DirectionTypes@@@?$CvLuaMethodWrapper@VCvLuaPlot@@VCvPlot@@@@KAHPAUlua_State@@P8CvPlot@@BE_NW4DirectionTypes@@@Z@Z ENDP ; CvLuaMethodWrapper<CvLuaPlot,CvPlot>::BasicLuaMethod<bool,enum DirectionTypes>
_TEXT	ENDS
PUBLIC	??$BasicLuaMethod@H@?$CvLuaMethodWrapper@VCvLuaPlot@@VCvPlot@@@@KAHPAUlua_State@@P8CvPlot@@BEHXZ@Z ; CvLuaMethodWrapper<CvLuaPlot,CvPlot>::BasicLuaMethod<int>
; Function compile flags: /Ogtpy
;	COMDAT ??$BasicLuaMethod@H@?$CvLuaMethodWrapper@VCvLuaPlot@@VCvPlot@@@@KAHPAUlua_State@@P8CvPlot@@BEHXZ@Z
_TEXT	SEGMENT
_L$ = 8							; size = 4
_func$ = 12						; size = 4
??$BasicLuaMethod@H@?$CvLuaMethodWrapper@VCvLuaPlot@@VCvPlot@@@@KAHPAUlua_State@@P8CvPlot@@BEHXZ@Z PROC ; CvLuaMethodWrapper<CvLuaPlot,CvPlot>::BasicLuaMethod<int>, COMDAT

; 69   : {

	push	ebx
	push	ebp
	push	esi

; 70   : 	InstanceType* pkType = Derived::GetInstance(L);

	mov	esi, DWORD PTR _L$[esp+8]
	push	edi
	push	esi
	call	_lua_gettop
	push	1
	push	esi
	mov	ebp, eax
	mov	bl, 1
	xor	edi, edi
	call	_lua_type
	add	esp, 12					; 0000000cH
	cmp	eax, 5
	jne	SHORT $LN5@BasicLuaMe@8
	push	OFFSET $SG223013
	push	1
	push	esi
	call	_lua_getfield
	push	-1
	push	esi
	call	_lua_type
	add	esp, 20					; 00000014H
	cmp	eax, 2
	jne	SHORT $LN5@BasicLuaMe@8
	push	-1
	push	esi
	call	_lua_touserdata
	mov	edi, eax
	add	esp, 8
	test	edi, edi
	je	SHORT $LN5@BasicLuaMe@8
	xor	bl, bl
$LN5@BasicLuaMe@8:
	push	ebp
	push	esi
	call	_lua_settop
	add	esp, 8
	test	bl, bl
	je	SHORT $LN12@BasicLuaMe@8
	push	OFFSET $SG223019
	push	esi
	call	_luaL_error
	push	OFFSET $SG223027
	push	esi
	call	_luaL_error
	add	esp, 16					; 00000010H
$LN12@BasicLuaMe@8:

; 71   : 	CvLuaArgs::pushValue<ret>(L, (pkType->*func)());

	mov	ecx, edi
	call	DWORD PTR _func$[esp+12]
	push	eax
	push	esi
	call	_lua_pushinteger
	add	esp, 8
	pop	edi
	pop	esi
	pop	ebp

; 72   : 
; 73   : 	return 1;

	mov	eax, 1
	pop	ebx

; 74   : }

	ret	0
??$BasicLuaMethod@H@?$CvLuaMethodWrapper@VCvLuaPlot@@VCvPlot@@@@KAHPAUlua_State@@P8CvPlot@@BEHXZ@Z ENDP ; CvLuaMethodWrapper<CvLuaPlot,CvPlot>::BasicLuaMethod<int>
_TEXT	ENDS
PUBLIC	??$BasicLuaMethod@HW4TeamTypes@@@?$CvLuaMethodWrapper@VCvLuaPlot@@VCvPlot@@@@KAHPAUlua_State@@P8CvPlot@@BEHW4TeamTypes@@@Z@Z ; CvLuaMethodWrapper<CvLuaPlot,CvPlot>::BasicLuaMethod<int,enum TeamTypes>
; Function compile flags: /Ogtpy
;	COMDAT ??$BasicLuaMethod@HW4TeamTypes@@@?$CvLuaMethodWrapper@VCvLuaPlot@@VCvPlot@@@@KAHPAUlua_State@@P8CvPlot@@BEHW4TeamTypes@@@Z@Z
_TEXT	SEGMENT
_L$ = 8							; size = 4
_func$ = 12						; size = 4
??$BasicLuaMethod@HW4TeamTypes@@@?$CvLuaMethodWrapper@VCvLuaPlot@@VCvPlot@@@@KAHPAUlua_State@@P8CvPlot@@BEHW4TeamTypes@@@Z@Z PROC ; CvLuaMethodWrapper<CvLuaPlot,CvPlot>::BasicLuaMethod<int,enum TeamTypes>, COMDAT

; 78   : {

	push	ebx
	push	ebp
	push	esi

; 79   : 	const int idx = Derived::GetStartingArgIndex();
; 80   : 	InstanceType* pkType = Derived::GetInstance(L);

	mov	esi, DWORD PTR _L$[esp+8]
	push	edi
	push	esi
	call	_lua_gettop
	push	1
	push	esi
	mov	ebp, eax
	mov	bl, 1
	xor	edi, edi
	call	_lua_type
	add	esp, 12					; 0000000cH
	cmp	eax, 5
	jne	SHORT $LN7@BasicLuaMe@9
	push	OFFSET $SG223013
	push	1
	push	esi
	call	_lua_getfield
	push	-1
	push	esi
	call	_lua_type
	add	esp, 20					; 00000014H
	cmp	eax, 2
	jne	SHORT $LN7@BasicLuaMe@9
	push	-1
	push	esi
	call	_lua_touserdata
	mov	edi, eax
	add	esp, 8
	test	edi, edi
	je	SHORT $LN7@BasicLuaMe@9
	xor	bl, bl
$LN7@BasicLuaMe@9:
	push	ebp
	push	esi
	call	_lua_settop
	add	esp, 8
	test	bl, bl
	je	SHORT $LN14@BasicLuaMe@9
	push	OFFSET $SG223019
	push	esi
	call	_luaL_error
	push	OFFSET $SG223027
	push	esi
	call	_luaL_error
	add	esp, 16					; 00000010H
$LN14@BasicLuaMe@9:

; 81   : 	CvLuaArgs::pushValue<ret>(L, (pkType->*func)(CvLuaArgs::toValue<arg1>(L, idx)));

	push	2
	push	esi
	call	_lua_tointeger
	add	esp, 8
	push	eax
	mov	ecx, edi
	call	DWORD PTR _func$[esp+16]
	push	eax
	push	esi
	call	_lua_pushinteger
	add	esp, 8
	pop	edi
	pop	esi
	pop	ebp

; 82   : 
; 83   : 	return 1;

	mov	eax, 1
	pop	ebx

; 84   : }

	ret	0
??$BasicLuaMethod@HW4TeamTypes@@@?$CvLuaMethodWrapper@VCvLuaPlot@@VCvPlot@@@@KAHPAUlua_State@@P8CvPlot@@BEHW4TeamTypes@@@Z@Z ENDP ; CvLuaMethodWrapper<CvLuaPlot,CvPlot>::BasicLuaMethod<int,enum TeamTypes>
_TEXT	ENDS
PUBLIC	??$BasicLuaMethod@H_N@?$CvLuaMethodWrapper@VCvLuaPlot@@VCvPlot@@@@KAHPAUlua_State@@P8CvPlot@@BEH_N@Z@Z ; CvLuaMethodWrapper<CvLuaPlot,CvPlot>::BasicLuaMethod<int,bool>
; Function compile flags: /Ogtpy
;	COMDAT ??$BasicLuaMethod@H_N@?$CvLuaMethodWrapper@VCvLuaPlot@@VCvPlot@@@@KAHPAUlua_State@@P8CvPlot@@BEH_N@Z@Z
_TEXT	SEGMENT
$T224670 = -4						; size = 1
_L$ = 8							; size = 4
_func$ = 12						; size = 4
??$BasicLuaMethod@H_N@?$CvLuaMethodWrapper@VCvLuaPlot@@VCvPlot@@@@KAHPAUlua_State@@P8CvPlot@@BEH_N@Z@Z PROC ; CvLuaMethodWrapper<CvLuaPlot,CvPlot>::BasicLuaMethod<int,bool>, COMDAT

; 78   : {

	push	ecx
	push	ebx
	push	ebp
	push	esi

; 79   : 	const int idx = Derived::GetStartingArgIndex();
; 80   : 	InstanceType* pkType = Derived::GetInstance(L);

	mov	esi, DWORD PTR _L$[esp+12]
	push	edi
	push	esi
	call	_lua_gettop
	push	1
	push	esi
	mov	ebp, eax
	mov	bl, 1
	xor	edi, edi
	call	_lua_type
	add	esp, 12					; 0000000cH
	cmp	eax, 5
	jne	SHORT $LN7@BasicLuaMe@10
	push	OFFSET $SG223013
	push	1
	push	esi
	call	_lua_getfield
	push	-1
	push	esi
	call	_lua_type
	add	esp, 20					; 00000014H
	cmp	eax, 2
	jne	SHORT $LN7@BasicLuaMe@10
	push	-1
	push	esi
	call	_lua_touserdata
	mov	edi, eax
	add	esp, 8
	test	edi, edi
	je	SHORT $LN7@BasicLuaMe@10
	xor	bl, bl
$LN7@BasicLuaMe@10:
	push	ebp
	push	esi
	call	_lua_settop
	add	esp, 8
	test	bl, bl
	je	SHORT $LN14@BasicLuaMe@10
	push	OFFSET $SG223019
	push	esi
	call	_luaL_error
	push	OFFSET $SG223027
	push	esi
	call	_luaL_error
	add	esp, 16					; 00000010H
$LN14@BasicLuaMe@10:

; 81   : 	CvLuaArgs::pushValue<ret>(L, (pkType->*func)(CvLuaArgs::toValue<arg1>(L, idx)));

	push	2
	push	esi
	call	_lua_toboolean
	add	esp, 8
	test	eax, eax
	setne	al
	mov	BYTE PTR $T224670[esp+20], al
	mov	ecx, DWORD PTR $T224670[esp+20]
	push	ecx
	mov	ecx, edi
	call	DWORD PTR _func$[esp+20]
	push	eax
	push	esi
	call	_lua_pushinteger
	add	esp, 8
	pop	edi
	pop	esi
	pop	ebp

; 82   : 
; 83   : 	return 1;

	mov	eax, 1
	pop	ebx

; 84   : }

	pop	ecx
	ret	0
??$BasicLuaMethod@H_N@?$CvLuaMethodWrapper@VCvLuaPlot@@VCvPlot@@@@KAHPAUlua_State@@P8CvPlot@@BEH_N@Z@Z ENDP ; CvLuaMethodWrapper<CvLuaPlot,CvPlot>::BasicLuaMethod<int,bool>
_TEXT	ENDS
PUBLIC	??$BasicLuaMethod@_NW4ResourceTypes@@_N@?$CvLuaMethodWrapper@VCvLuaPlot@@VCvPlot@@@@KAHPAUlua_State@@P8CvPlot@@BE_NW4ResourceTypes@@_N@Z@Z ; CvLuaMethodWrapper<CvLuaPlot,CvPlot>::BasicLuaMethod<bool,enum ResourceTypes,bool>
; Function compile flags: /Ogtpy
;	COMDAT ??$BasicLuaMethod@_NW4ResourceTypes@@_N@?$CvLuaMethodWrapper@VCvLuaPlot@@VCvPlot@@@@KAHPAUlua_State@@P8CvPlot@@BE_NW4ResourceTypes@@_N@Z@Z
_TEXT	SEGMENT
$T224707 = -4						; size = 1
_L$ = 8							; size = 4
_func$ = 12						; size = 4
??$BasicLuaMethod@_NW4ResourceTypes@@_N@?$CvLuaMethodWrapper@VCvLuaPlot@@VCvPlot@@@@KAHPAUlua_State@@P8CvPlot@@BE_NW4ResourceTypes@@_N@Z@Z PROC ; CvLuaMethodWrapper<CvLuaPlot,CvPlot>::BasicLuaMethod<bool,enum ResourceTypes,bool>, COMDAT

; 88   : {

	push	ecx
	push	ebx
	push	ebp
	push	esi

; 89   : 	const int idx = Derived::GetStartingArgIndex();
; 90   : 	InstanceType* pkType = Derived::GetInstance(L);

	mov	esi, DWORD PTR _L$[esp+12]
	push	edi
	push	esi
	call	_lua_gettop
	push	1
	push	esi
	mov	ebp, eax
	mov	bl, 1
	xor	edi, edi
	call	_lua_type
	add	esp, 12					; 0000000cH
	cmp	eax, 5
	jne	SHORT $LN7@BasicLuaMe@11
	push	OFFSET $SG223013
	push	1
	push	esi
	call	_lua_getfield
	push	-1
	push	esi
	call	_lua_type
	add	esp, 20					; 00000014H
	cmp	eax, 2
	jne	SHORT $LN7@BasicLuaMe@11
	push	-1
	push	esi
	call	_lua_touserdata
	mov	edi, eax
	add	esp, 8
	test	edi, edi
	je	SHORT $LN7@BasicLuaMe@11
	xor	bl, bl
$LN7@BasicLuaMe@11:
	push	ebp
	push	esi
	call	_lua_settop
	add	esp, 8
	test	bl, bl
	je	SHORT $LN14@BasicLuaMe@11
	push	OFFSET $SG223019
	push	esi
	call	_luaL_error
	push	OFFSET $SG223027
	push	esi
	call	_luaL_error
	add	esp, 16					; 00000010H
$LN14@BasicLuaMe@11:

; 91   : 	CvLuaArgs::pushValue<ret>(L, (pkType->*func)(CvLuaArgs::toValue<arg1>(L, idx), CvLuaArgs::toValue<arg2>(L, idx + 1)));

	push	3
	push	esi
	call	_lua_toboolean
	test	eax, eax
	setne	al
	push	2
	push	esi
	mov	BYTE PTR $T224707[esp+36], al
	call	_lua_tointeger
	mov	ecx, DWORD PTR $T224707[esp+36]
	add	esp, 16					; 00000010H
	push	ecx
	push	eax
	mov	ecx, edi
	call	DWORD PTR _func$[esp+24]
	movzx	edx, al
	push	edx
	push	esi
	call	_lua_pushboolean
	add	esp, 8
	pop	edi
	pop	esi
	pop	ebp

; 92   : 
; 93   : 	return 1;

	mov	eax, 1
	pop	ebx

; 94   : }

	pop	ecx
	ret	0
??$BasicLuaMethod@_NW4ResourceTypes@@_N@?$CvLuaMethodWrapper@VCvLuaPlot@@VCvPlot@@@@KAHPAUlua_State@@P8CvPlot@@BE_NW4ResourceTypes@@_N@Z@Z ENDP ; CvLuaMethodWrapper<CvLuaPlot,CvPlot>::BasicLuaMethod<bool,enum ResourceTypes,bool>
_TEXT	ENDS
PUBLIC	??$BasicLuaMethod@_NW4ImprovementTypes@@W4TeamTypes@@_N@?$CvLuaMethodWrapper@VCvLuaPlot@@VCvPlot@@@@KAHPAUlua_State@@P8CvPlot@@BE_NW4ImprovementTypes@@W4TeamTypes@@_N@Z@Z ; CvLuaMethodWrapper<CvLuaPlot,CvPlot>::BasicLuaMethod<bool,enum ImprovementTypes,enum TeamTypes,bool>
; Function compile flags: /Ogtpy
;	COMDAT ??$BasicLuaMethod@_NW4ImprovementTypes@@W4TeamTypes@@_N@?$CvLuaMethodWrapper@VCvLuaPlot@@VCvPlot@@@@KAHPAUlua_State@@P8CvPlot@@BE_NW4ImprovementTypes@@W4TeamTypes@@_N@Z@Z
_TEXT	SEGMENT
$T224748 = -4						; size = 1
_L$ = 8							; size = 4
_func$ = 12						; size = 4
??$BasicLuaMethod@_NW4ImprovementTypes@@W4TeamTypes@@_N@?$CvLuaMethodWrapper@VCvLuaPlot@@VCvPlot@@@@KAHPAUlua_State@@P8CvPlot@@BE_NW4ImprovementTypes@@W4TeamTypes@@_N@Z@Z PROC ; CvLuaMethodWrapper<CvLuaPlot,CvPlot>::BasicLuaMethod<bool,enum ImprovementTypes,enum TeamTypes,bool>, COMDAT

; 98   : {

	push	ecx
	push	ebx
	push	ebp
	push	esi

; 99   : 	const int idx = Derived::GetStartingArgIndex();
; 100  : 	InstanceType* pkType = Derived::GetInstance(L);

	mov	esi, DWORD PTR _L$[esp+12]
	push	edi
	push	esi
	call	_lua_gettop
	push	1
	push	esi
	mov	ebp, eax
	mov	bl, 1
	xor	edi, edi
	call	_lua_type
	add	esp, 12					; 0000000cH
	cmp	eax, 5
	jne	SHORT $LN7@BasicLuaMe@12
	push	OFFSET $SG223013
	push	1
	push	esi
	call	_lua_getfield
	push	-1
	push	esi
	call	_lua_type
	add	esp, 20					; 00000014H
	cmp	eax, 2
	jne	SHORT $LN7@BasicLuaMe@12
	push	-1
	push	esi
	call	_lua_touserdata
	mov	edi, eax
	add	esp, 8
	test	edi, edi
	je	SHORT $LN7@BasicLuaMe@12
	xor	bl, bl
$LN7@BasicLuaMe@12:
	push	ebp
	push	esi
	call	_lua_settop
	add	esp, 8
	test	bl, bl
	je	SHORT $LN14@BasicLuaMe@12
	push	OFFSET $SG223019
	push	esi
	call	_luaL_error
	push	OFFSET $SG223027
	push	esi
	call	_luaL_error
	add	esp, 16					; 00000010H
$LN14@BasicLuaMe@12:

; 101  : 	CvLuaArgs::pushValue<ret>(L, (pkType->*func)(CvLuaArgs::toValue<arg1>(L, idx), CvLuaArgs::toValue<arg2>(L, idx + 1), CvLuaArgs::toValue<arg3>(L, idx + 2)));

	push	4
	push	esi
	call	_lua_toboolean
	test	eax, eax
	setne	al
	push	3
	push	esi
	mov	BYTE PTR $T224748[esp+36], al
	call	_lua_tointeger
	push	2
	push	esi
	mov	ebx, eax
	call	_lua_tointeger
	mov	ecx, DWORD PTR $T224748[esp+44]
	add	esp, 24					; 00000018H
	push	ecx
	push	ebx
	push	eax
	mov	ecx, edi
	call	DWORD PTR _func$[esp+28]
	movzx	edx, al
	push	edx
	push	esi
	call	_lua_pushboolean
	add	esp, 8
	pop	edi
	pop	esi
	pop	ebp

; 102  : 
; 103  : 	return 1;

	mov	eax, 1
	pop	ebx

; 104  : }

	pop	ecx
	ret	0
??$BasicLuaMethod@_NW4ImprovementTypes@@W4TeamTypes@@_N@?$CvLuaMethodWrapper@VCvLuaPlot@@VCvPlot@@@@KAHPAUlua_State@@P8CvPlot@@BE_NW4ImprovementTypes@@W4TeamTypes@@_N@Z@Z ENDP ; CvLuaMethodWrapper<CvLuaPlot,CvPlot>::BasicLuaMethod<bool,enum ImprovementTypes,enum TeamTypes,bool>
_TEXT	ENDS
PUBLIC	??$BasicLuaMethod@_NW4BuildTypes@@W4PlayerTypes@@_N_N@?$CvLuaMethodWrapper@VCvLuaPlot@@VCvPlot@@@@KAHPAUlua_State@@P8CvPlot@@BE_NW4BuildTypes@@W4PlayerTypes@@_N3@Z@Z ; CvLuaMethodWrapper<CvLuaPlot,CvPlot>::BasicLuaMethod<bool,enum BuildTypes,enum PlayerTypes,bool,bool>
; Function compile flags: /Ogtpy
;	COMDAT ??$BasicLuaMethod@_NW4BuildTypes@@W4PlayerTypes@@_N_N@?$CvLuaMethodWrapper@VCvLuaPlot@@VCvPlot@@@@KAHPAUlua_State@@P8CvPlot@@BE_NW4BuildTypes@@W4PlayerTypes@@_N3@Z@Z
_TEXT	SEGMENT
$T224793 = -8						; size = 1
$T224797 = -4						; size = 1
_L$ = 8							; size = 4
_func$ = 12						; size = 4
??$BasicLuaMethod@_NW4BuildTypes@@W4PlayerTypes@@_N_N@?$CvLuaMethodWrapper@VCvLuaPlot@@VCvPlot@@@@KAHPAUlua_State@@P8CvPlot@@BE_NW4BuildTypes@@W4PlayerTypes@@_N3@Z@Z PROC ; CvLuaMethodWrapper<CvLuaPlot,CvPlot>::BasicLuaMethod<bool,enum BuildTypes,enum PlayerTypes,bool,bool>, COMDAT

; 108  : {

	sub	esp, 8
	push	ebx
	push	ebp
	push	esi

; 109  : 	const int idx = Derived::GetStartingArgIndex();
; 110  : 	InstanceType* pkType = Derived::GetInstance(L);

	mov	esi, DWORD PTR _L$[esp+16]
	push	edi
	push	esi
	call	_lua_gettop
	push	1
	push	esi
	mov	ebp, eax
	mov	bl, 1
	xor	edi, edi
	call	_lua_type
	add	esp, 12					; 0000000cH
	cmp	eax, 5
	jne	SHORT $LN7@BasicLuaMe@13
	push	OFFSET $SG223013
	push	1
	push	esi
	call	_lua_getfield
	push	-1
	push	esi
	call	_lua_type
	add	esp, 20					; 00000014H
	cmp	eax, 2
	jne	SHORT $LN7@BasicLuaMe@13
	push	-1
	push	esi
	call	_lua_touserdata
	mov	edi, eax
	add	esp, 8
	test	edi, edi
	je	SHORT $LN7@BasicLuaMe@13
	xor	bl, bl
$LN7@BasicLuaMe@13:
	push	ebp
	push	esi
	call	_lua_settop
	add	esp, 8
	test	bl, bl
	je	SHORT $LN14@BasicLuaMe@13
	push	OFFSET $SG223019
	push	esi
	call	_luaL_error
	push	OFFSET $SG223027
	push	esi
	call	_luaL_error
	add	esp, 16					; 00000010H
$LN14@BasicLuaMe@13:

; 111  : 	CvLuaArgs::pushValue<ret>(L, (pkType->*func)(CvLuaArgs::toValue<arg1>(L, idx), CvLuaArgs::toValue<arg2>(L, idx + 1), CvLuaArgs::toValue<arg3>(L, idx + 2), CvLuaArgs::toValue<arg4>(L, idx + 3)));

	push	5
	push	esi
	call	_lua_toboolean
	test	eax, eax
	setne	al
	push	4
	push	esi
	mov	BYTE PTR $T224793[esp+40], al
	call	_lua_toboolean
	test	eax, eax
	setne	cl
	push	3
	push	esi
	mov	BYTE PTR $T224797[esp+48], cl
	call	_lua_tointeger
	push	2
	push	esi
	mov	ebx, eax
	call	_lua_tointeger
	mov	edx, DWORD PTR $T224793[esp+56]
	mov	ecx, DWORD PTR $T224797[esp+56]
	add	esp, 32					; 00000020H
	push	edx
	push	ecx
	push	ebx
	push	eax
	mov	ecx, edi
	call	DWORD PTR _func$[esp+36]
	movzx	edx, al
	push	edx
	push	esi
	call	_lua_pushboolean
	add	esp, 8
	pop	edi
	pop	esi
	pop	ebp

; 112  : 
; 113  : 	return 1;

	mov	eax, 1
	pop	ebx

; 114  : }

	add	esp, 8
	ret	0
??$BasicLuaMethod@_NW4BuildTypes@@W4PlayerTypes@@_N_N@?$CvLuaMethodWrapper@VCvLuaPlot@@VCvPlot@@@@KAHPAUlua_State@@P8CvPlot@@BE_NW4BuildTypes@@W4PlayerTypes@@_N3@Z@Z ENDP ; CvLuaMethodWrapper<CvLuaPlot,CvPlot>::BasicLuaMethod<bool,enum BuildTypes,enum PlayerTypes,bool,bool>
_TEXT	ENDS
PUBLIC	??$BasicLuaMethod@HW4BuildTypes@@W4PlayerTypes@@@?$CvLuaMethodWrapper@VCvLuaPlot@@VCvPlot@@@@KAHPAUlua_State@@P8CvPlot@@BEHW4BuildTypes@@W4PlayerTypes@@@Z@Z ; CvLuaMethodWrapper<CvLuaPlot,CvPlot>::BasicLuaMethod<int,enum BuildTypes,enum PlayerTypes>
; Function compile flags: /Ogtpy
;	COMDAT ??$BasicLuaMethod@HW4BuildTypes@@W4PlayerTypes@@@?$CvLuaMethodWrapper@VCvLuaPlot@@VCvPlot@@@@KAHPAUlua_State@@P8CvPlot@@BEHW4BuildTypes@@W4PlayerTypes@@@Z@Z
_TEXT	SEGMENT
_L$ = 8							; size = 4
_func$ = 12						; size = 4
??$BasicLuaMethod@HW4BuildTypes@@W4PlayerTypes@@@?$CvLuaMethodWrapper@VCvLuaPlot@@VCvPlot@@@@KAHPAUlua_State@@P8CvPlot@@BEHW4BuildTypes@@W4PlayerTypes@@@Z@Z PROC ; CvLuaMethodWrapper<CvLuaPlot,CvPlot>::BasicLuaMethod<int,enum BuildTypes,enum PlayerTypes>, COMDAT

; 88   : {

	push	ebx
	push	ebp
	push	esi

; 89   : 	const int idx = Derived::GetStartingArgIndex();
; 90   : 	InstanceType* pkType = Derived::GetInstance(L);

	mov	esi, DWORD PTR _L$[esp+8]
	push	edi
	push	esi
	call	_lua_gettop
	push	1
	push	esi
	mov	ebp, eax
	mov	bl, 1
	xor	edi, edi
	call	_lua_type
	add	esp, 12					; 0000000cH
	cmp	eax, 5
	jne	SHORT $LN7@BasicLuaMe@14
	push	OFFSET $SG223013
	push	1
	push	esi
	call	_lua_getfield
	push	-1
	push	esi
	call	_lua_type
	add	esp, 20					; 00000014H
	cmp	eax, 2
	jne	SHORT $LN7@BasicLuaMe@14
	push	-1
	push	esi
	call	_lua_touserdata
	mov	edi, eax
	add	esp, 8
	test	edi, edi
	je	SHORT $LN7@BasicLuaMe@14
	xor	bl, bl
$LN7@BasicLuaMe@14:
	push	ebp
	push	esi
	call	_lua_settop
	add	esp, 8
	test	bl, bl
	je	SHORT $LN14@BasicLuaMe@14
	push	OFFSET $SG223019
	push	esi
	call	_luaL_error
	push	OFFSET $SG223027
	push	esi
	call	_luaL_error
	add	esp, 16					; 00000010H
$LN14@BasicLuaMe@14:

; 91   : 	CvLuaArgs::pushValue<ret>(L, (pkType->*func)(CvLuaArgs::toValue<arg1>(L, idx), CvLuaArgs::toValue<arg2>(L, idx + 1)));

	push	3
	push	esi
	call	_lua_tointeger
	push	2
	push	esi
	mov	ebx, eax
	call	_lua_tointeger
	add	esp, 16					; 00000010H
	push	ebx
	push	eax
	mov	ecx, edi
	call	DWORD PTR _func$[esp+20]
	push	eax
	push	esi
	call	_lua_pushinteger
	add	esp, 8
	pop	edi
	pop	esi
	pop	ebp

; 92   : 
; 93   : 	return 1;

	mov	eax, 1
	pop	ebx

; 94   : }

	ret	0
??$BasicLuaMethod@HW4BuildTypes@@W4PlayerTypes@@@?$CvLuaMethodWrapper@VCvLuaPlot@@VCvPlot@@@@KAHPAUlua_State@@P8CvPlot@@BEHW4BuildTypes@@W4PlayerTypes@@@Z@Z ENDP ; CvLuaMethodWrapper<CvLuaPlot,CvPlot>::BasicLuaMethod<int,enum BuildTypes,enum PlayerTypes>
_TEXT	ENDS
PUBLIC	??$BasicLuaMethod@HW4BuildTypes@@W4PlayerTypes@@HH@?$CvLuaMethodWrapper@VCvLuaPlot@@VCvPlot@@@@KAHPAUlua_State@@P8CvPlot@@BEHW4BuildTypes@@W4PlayerTypes@@HH@Z@Z ; CvLuaMethodWrapper<CvLuaPlot,CvPlot>::BasicLuaMethod<int,enum BuildTypes,enum PlayerTypes,int,int>
; Function compile flags: /Ogtpy
;	COMDAT ??$BasicLuaMethod@HW4BuildTypes@@W4PlayerTypes@@HH@?$CvLuaMethodWrapper@VCvLuaPlot@@VCvPlot@@@@KAHPAUlua_State@@P8CvPlot@@BEHW4BuildTypes@@W4PlayerTypes@@HH@Z@Z
_TEXT	SEGMENT
$T224891 = -4						; size = 4
_L$ = 8							; size = 4
_func$ = 12						; size = 4
??$BasicLuaMethod@HW4BuildTypes@@W4PlayerTypes@@HH@?$CvLuaMethodWrapper@VCvLuaPlot@@VCvPlot@@@@KAHPAUlua_State@@P8CvPlot@@BEHW4BuildTypes@@W4PlayerTypes@@HH@Z@Z PROC ; CvLuaMethodWrapper<CvLuaPlot,CvPlot>::BasicLuaMethod<int,enum BuildTypes,enum PlayerTypes,int,int>, COMDAT

; 108  : {

	push	ecx
	push	ebx
	push	ebp
	push	esi

; 109  : 	const int idx = Derived::GetStartingArgIndex();
; 110  : 	InstanceType* pkType = Derived::GetInstance(L);

	mov	esi, DWORD PTR _L$[esp+12]
	push	edi
	push	esi
	call	_lua_gettop
	push	1
	push	esi
	mov	ebp, eax
	mov	bl, 1
	xor	edi, edi
	call	_lua_type
	add	esp, 12					; 0000000cH
	cmp	eax, 5
	jne	SHORT $LN7@BasicLuaMe@15
	push	OFFSET $SG223013
	push	1
	push	esi
	call	_lua_getfield
	push	-1
	push	esi
	call	_lua_type
	add	esp, 20					; 00000014H
	cmp	eax, 2
	jne	SHORT $LN7@BasicLuaMe@15
	push	-1
	push	esi
	call	_lua_touserdata
	mov	edi, eax
	add	esp, 8
	test	edi, edi
	je	SHORT $LN7@BasicLuaMe@15
	xor	bl, bl
$LN7@BasicLuaMe@15:
	push	ebp
	push	esi
	call	_lua_settop
	add	esp, 8
	test	bl, bl
	je	SHORT $LN14@BasicLuaMe@15
	push	OFFSET $SG223019
	push	esi
	call	_luaL_error
	push	OFFSET $SG223027
	push	esi
	call	_luaL_error
	add	esp, 16					; 00000010H
$LN14@BasicLuaMe@15:

; 111  : 	CvLuaArgs::pushValue<ret>(L, (pkType->*func)(CvLuaArgs::toValue<arg1>(L, idx), CvLuaArgs::toValue<arg2>(L, idx + 1), CvLuaArgs::toValue<arg3>(L, idx + 2), CvLuaArgs::toValue<arg4>(L, idx + 3)));

	push	5
	push	esi
	call	_lua_tointeger
	push	4
	push	esi
	mov	ebx, eax
	call	_lua_tointeger
	push	3
	push	esi
	mov	ebp, eax
	call	_lua_tointeger
	push	2
	push	esi
	mov	DWORD PTR $T224891[esp+52], eax
	call	_lua_tointeger
	mov	ecx, DWORD PTR $T224891[esp+52]
	add	esp, 32					; 00000020H
	push	ebx
	push	ebp
	push	ecx
	push	eax
	mov	ecx, edi
	call	DWORD PTR _func$[esp+32]
	push	eax
	push	esi
	call	_lua_pushinteger
	add	esp, 8
	pop	edi
	pop	esi
	pop	ebp

; 112  : 
; 113  : 	return 1;

	mov	eax, 1
	pop	ebx

; 114  : }

	pop	ecx
	ret	0
??$BasicLuaMethod@HW4BuildTypes@@W4PlayerTypes@@HH@?$CvLuaMethodWrapper@VCvLuaPlot@@VCvPlot@@@@KAHPAUlua_State@@P8CvPlot@@BEHW4BuildTypes@@W4PlayerTypes@@HH@Z@Z ENDP ; CvLuaMethodWrapper<CvLuaPlot,CvPlot>::BasicLuaMethod<int,enum BuildTypes,enum PlayerTypes,int,int>
_TEXT	ENDS
PUBLIC	??$BasicLuaMethod@HW4PlayerTypes@@@?$CvLuaMethodWrapper@VCvLuaPlot@@VCvPlot@@@@KAHPAUlua_State@@P8CvPlot@@BEHW4PlayerTypes@@@Z@Z ; CvLuaMethodWrapper<CvLuaPlot,CvPlot>::BasicLuaMethod<int,enum PlayerTypes>
; Function compile flags: /Ogtpy
;	COMDAT ??$BasicLuaMethod@HW4PlayerTypes@@@?$CvLuaMethodWrapper@VCvLuaPlot@@VCvPlot@@@@KAHPAUlua_State@@P8CvPlot@@BEHW4PlayerTypes@@@Z@Z
_TEXT	SEGMENT
_L$ = 8							; size = 4
_func$ = 12						; size = 4
??$BasicLuaMethod@HW4PlayerTypes@@@?$CvLuaMethodWrapper@VCvLuaPlot@@VCvPlot@@@@KAHPAUlua_State@@P8CvPlot@@BEHW4PlayerTypes@@@Z@Z PROC ; CvLuaMethodWrapper<CvLuaPlot,CvPlot>::BasicLuaMethod<int,enum PlayerTypes>, COMDAT

; 78   : {

	push	ebx
	push	ebp
	push	esi

; 79   : 	const int idx = Derived::GetStartingArgIndex();
; 80   : 	InstanceType* pkType = Derived::GetInstance(L);

	mov	esi, DWORD PTR _L$[esp+8]
	push	edi
	push	esi
	call	_lua_gettop
	push	1
	push	esi
	mov	ebp, eax
	mov	bl, 1
	xor	edi, edi
	call	_lua_type
	add	esp, 12					; 0000000cH
	cmp	eax, 5
	jne	SHORT $LN7@BasicLuaMe@16
	push	OFFSET $SG223013
	push	1
	push	esi
	call	_lua_getfield
	push	-1
	push	esi
	call	_lua_type
	add	esp, 20					; 00000014H
	cmp	eax, 2
	jne	SHORT $LN7@BasicLuaMe@16
	push	-1
	push	esi
	call	_lua_touserdata
	mov	edi, eax
	add	esp, 8
	test	edi, edi
	je	SHORT $LN7@BasicLuaMe@16
	xor	bl, bl
$LN7@BasicLuaMe@16:
	push	ebp
	push	esi
	call	_lua_settop
	add	esp, 8
	test	bl, bl
	je	SHORT $LN14@BasicLuaMe@16
	push	OFFSET $SG223019
	push	esi
	call	_luaL_error
	push	OFFSET $SG223027
	push	esi
	call	_luaL_error
	add	esp, 16					; 00000010H
$LN14@BasicLuaMe@16:

; 81   : 	CvLuaArgs::pushValue<ret>(L, (pkType->*func)(CvLuaArgs::toValue<arg1>(L, idx)));

	push	2
	push	esi
	call	_lua_tointeger
	add	esp, 8
	push	eax
	mov	ecx, edi
	call	DWORD PTR _func$[esp+16]
	push	eax
	push	esi
	call	_lua_pushinteger
	add	esp, 8
	pop	edi
	pop	esi
	pop	ebp

; 82   : 
; 83   : 	return 1;

	mov	eax, 1
	pop	ebx

; 84   : }

	ret	0
??$BasicLuaMethod@HW4PlayerTypes@@@?$CvLuaMethodWrapper@VCvLuaPlot@@VCvPlot@@@@KAHPAUlua_State@@P8CvPlot@@BEHW4PlayerTypes@@@Z@Z ENDP ; CvLuaMethodWrapper<CvLuaPlot,CvPlot>::BasicLuaMethod<int,enum PlayerTypes>
_TEXT	ENDS
PUBLIC	??$BasicLuaMethod@HW4TeamTypes@@_N_N@?$CvLuaMethodWrapper@VCvLuaPlot@@VCvPlot@@@@KAHPAUlua_State@@P8CvPlot@@BEHW4TeamTypes@@_N2@Z@Z ; CvLuaMethodWrapper<CvLuaPlot,CvPlot>::BasicLuaMethod<int,enum TeamTypes,bool,bool>
; Function compile flags: /Ogtpy
;	COMDAT ??$BasicLuaMethod@HW4TeamTypes@@_N_N@?$CvLuaMethodWrapper@VCvLuaPlot@@VCvPlot@@@@KAHPAUlua_State@@P8CvPlot@@BEHW4TeamTypes@@_N2@Z@Z
_TEXT	SEGMENT
$T224969 = -8						; size = 1
$T224973 = -4						; size = 1
_L$ = 8							; size = 4
_func$ = 12						; size = 4
??$BasicLuaMethod@HW4TeamTypes@@_N_N@?$CvLuaMethodWrapper@VCvLuaPlot@@VCvPlot@@@@KAHPAUlua_State@@P8CvPlot@@BEHW4TeamTypes@@_N2@Z@Z PROC ; CvLuaMethodWrapper<CvLuaPlot,CvPlot>::BasicLuaMethod<int,enum TeamTypes,bool,bool>, COMDAT

; 98   : {

	sub	esp, 8
	push	ebx
	push	ebp
	push	esi

; 99   : 	const int idx = Derived::GetStartingArgIndex();
; 100  : 	InstanceType* pkType = Derived::GetInstance(L);

	mov	esi, DWORD PTR _L$[esp+16]
	push	edi
	push	esi
	call	_lua_gettop
	push	1
	push	esi
	mov	ebp, eax
	mov	bl, 1
	xor	edi, edi
	call	_lua_type
	add	esp, 12					; 0000000cH
	cmp	eax, 5
	jne	SHORT $LN7@BasicLuaMe@17
	push	OFFSET $SG223013
	push	1
	push	esi
	call	_lua_getfield
	push	-1
	push	esi
	call	_lua_type
	add	esp, 20					; 00000014H
	cmp	eax, 2
	jne	SHORT $LN7@BasicLuaMe@17
	push	-1
	push	esi
	call	_lua_touserdata
	mov	edi, eax
	add	esp, 8
	test	edi, edi
	je	SHORT $LN7@BasicLuaMe@17
	xor	bl, bl
$LN7@BasicLuaMe@17:
	push	ebp
	push	esi
	call	_lua_settop
	add	esp, 8
	test	bl, bl
	je	SHORT $LN14@BasicLuaMe@17
	push	OFFSET $SG223019
	push	esi
	call	_luaL_error
	push	OFFSET $SG223027
	push	esi
	call	_luaL_error
	add	esp, 16					; 00000010H
$LN14@BasicLuaMe@17:

; 101  : 	CvLuaArgs::pushValue<ret>(L, (pkType->*func)(CvLuaArgs::toValue<arg1>(L, idx), CvLuaArgs::toValue<arg2>(L, idx + 1), CvLuaArgs::toValue<arg3>(L, idx + 2)));

	push	4
	push	esi
	call	_lua_toboolean
	test	eax, eax
	setne	al
	push	3
	push	esi
	mov	BYTE PTR $T224969[esp+40], al
	call	_lua_toboolean
	test	eax, eax
	setne	cl
	push	2
	push	esi
	mov	BYTE PTR $T224973[esp+48], cl
	call	_lua_tointeger
	mov	edx, DWORD PTR $T224969[esp+48]
	mov	ecx, DWORD PTR $T224973[esp+48]
	add	esp, 24					; 00000018H
	push	edx
	push	ecx
	push	eax
	mov	ecx, edi
	call	DWORD PTR _func$[esp+32]
	push	eax
	push	esi
	call	_lua_pushinteger
	add	esp, 8
	pop	edi
	pop	esi
	pop	ebp

; 102  : 
; 103  : 	return 1;

	mov	eax, 1
	pop	ebx

; 104  : }

	add	esp, 8
	ret	0
??$BasicLuaMethod@HW4TeamTypes@@_N_N@?$CvLuaMethodWrapper@VCvLuaPlot@@VCvPlot@@@@KAHPAUlua_State@@P8CvPlot@@BEHW4TeamTypes@@_N2@Z@Z ENDP ; CvLuaMethodWrapper<CvLuaPlot,CvPlot>::BasicLuaMethod<int,enum TeamTypes,bool,bool>
_TEXT	ENDS
PUBLIC	??$BasicLuaMethod@HPBVCvUnit@@PBVCvPlot@@H@?$CvLuaMethodWrapper@VCvLuaPlot@@VCvPlot@@@@KAHPAUlua_State@@P8CvPlot@@BEHPBVCvUnit@@PBV2@H@Z@Z ; CvLuaMethodWrapper<CvLuaPlot,CvPlot>::BasicLuaMethod<int,CvUnit const *,CvPlot const *,int>
; Function compile flags: /Ogtpy
;	COMDAT ??$BasicLuaMethod@HPBVCvUnit@@PBVCvPlot@@H@?$CvLuaMethodWrapper@VCvLuaPlot@@VCvPlot@@@@KAHPAUlua_State@@P8CvPlot@@BEHPBVCvUnit@@PBV2@H@Z@Z
_TEXT	SEGMENT
_L$ = 8							; size = 4
_func$ = 12						; size = 4
??$BasicLuaMethod@HPBVCvUnit@@PBVCvPlot@@H@?$CvLuaMethodWrapper@VCvLuaPlot@@VCvPlot@@@@KAHPAUlua_State@@P8CvPlot@@BEHPBVCvUnit@@PBV2@H@Z@Z PROC ; CvLuaMethodWrapper<CvLuaPlot,CvPlot>::BasicLuaMethod<int,CvUnit const *,CvPlot const *,int>, COMDAT

; 98   : {

	push	ebx
	push	ebp
	push	esi

; 99   : 	const int idx = Derived::GetStartingArgIndex();
; 100  : 	InstanceType* pkType = Derived::GetInstance(L);

	mov	esi, DWORD PTR _L$[esp+8]
	push	edi
	push	esi
	call	_lua_gettop
	push	1
	push	esi
	mov	ebp, eax
	mov	bl, 1
	xor	edi, edi
	call	_lua_type
	add	esp, 12					; 0000000cH
	cmp	eax, 5
	jne	SHORT $LN7@BasicLuaMe@18
	push	OFFSET $SG223013
	push	1
	push	esi
	call	_lua_getfield
	push	-1
	push	esi
	call	_lua_type
	add	esp, 20					; 00000014H
	cmp	eax, 2
	jne	SHORT $LN7@BasicLuaMe@18
	push	-1
	push	esi
	call	_lua_touserdata
	mov	edi, eax
	add	esp, 8
	test	edi, edi
	je	SHORT $LN7@BasicLuaMe@18
	xor	bl, bl
$LN7@BasicLuaMe@18:
	push	ebp
	push	esi
	call	_lua_settop
	add	esp, 8
	test	bl, bl
	je	SHORT $LN14@BasicLuaMe@18
	push	OFFSET $SG223019
	push	esi
	call	_luaL_error
	push	OFFSET $SG223027
	push	esi
	call	_luaL_error
	add	esp, 16					; 00000010H
$LN14@BasicLuaMe@18:

; 101  : 	CvLuaArgs::pushValue<ret>(L, (pkType->*func)(CvLuaArgs::toValue<arg1>(L, idx), CvLuaArgs::toValue<arg2>(L, idx + 1), CvLuaArgs::toValue<arg3>(L, idx + 2)));

	push	4
	push	esi
	call	_lua_tointeger
	push	3
	push	esi
	mov	ebx, eax
	call	_lua_tointeger
	push	2
	push	esi
	mov	ebp, eax
	call	_lua_tointeger
	add	esp, 24					; 00000018H
	push	ebx
	push	ebp
	push	eax
	mov	ecx, edi
	call	DWORD PTR _func$[esp+24]
	push	eax
	push	esi
	call	_lua_pushinteger
	add	esp, 8
	pop	edi
	pop	esi
	pop	ebp

; 102  : 
; 103  : 	return 1;

	mov	eax, 1
	pop	ebx

; 104  : }

	ret	0
??$BasicLuaMethod@HPBVCvUnit@@PBVCvPlot@@H@?$CvLuaMethodWrapper@VCvLuaPlot@@VCvPlot@@@@KAHPAUlua_State@@P8CvPlot@@BEHPBVCvUnit@@PBV2@H@Z@Z ENDP ; CvLuaMethodWrapper<CvLuaPlot,CvPlot>::BasicLuaMethod<int,CvUnit const *,CvPlot const *,int>
_TEXT	ENDS
PUBLIC	??$BasicLuaMethod@H@?$CvLuaMethodWrapper@VCvLuaPlot@@VCvPlot@@@@KAHPAUlua_State@@P8CvPlot@@AEXH@Z@Z ; CvLuaMethodWrapper<CvLuaPlot,CvPlot>::BasicLuaMethod<int>
; Function compile flags: /Ogtpy
;	COMDAT ??$BasicLuaMethod@H@?$CvLuaMethodWrapper@VCvLuaPlot@@VCvPlot@@@@KAHPAUlua_State@@P8CvPlot@@AEXH@Z@Z
_TEXT	SEGMENT
_L$ = 8							; size = 4
_func$ = 12						; size = 4
??$BasicLuaMethod@H@?$CvLuaMethodWrapper@VCvLuaPlot@@VCvPlot@@@@KAHPAUlua_State@@P8CvPlot@@AEXH@Z@Z PROC ; CvLuaMethodWrapper<CvLuaPlot,CvPlot>::BasicLuaMethod<int>, COMDAT

; 230  : {

	push	ebx
	push	ebp
	push	esi

; 231  : 	const int idx = Derived::GetStartingArgIndex();
; 232  : 	InstanceType* pkType = Derived::GetInstance(L);

	mov	esi, DWORD PTR _L$[esp+8]
	push	edi
	push	esi
	call	_lua_gettop
	push	1
	push	esi
	mov	ebp, eax
	mov	bl, 1
	xor	edi, edi
	call	_lua_type
	add	esp, 12					; 0000000cH
	cmp	eax, 5
	jne	SHORT $LN7@BasicLuaMe@19
	push	OFFSET $SG223013
	push	1
	push	esi
	call	_lua_getfield
	push	-1
	push	esi
	call	_lua_type
	add	esp, 20					; 00000014H
	cmp	eax, 2
	jne	SHORT $LN7@BasicLuaMe@19
	push	-1
	push	esi
	call	_lua_touserdata
	mov	edi, eax
	add	esp, 8
	test	edi, edi
	je	SHORT $LN7@BasicLuaMe@19
	xor	bl, bl
$LN7@BasicLuaMe@19:
	push	ebp
	push	esi
	call	_lua_settop
	add	esp, 8
	test	bl, bl
	je	SHORT $LN14@BasicLuaMe@19
	push	OFFSET $SG223019
	push	esi
	call	_luaL_error
	push	OFFSET $SG223027
	push	esi
	call	_luaL_error
	add	esp, 16					; 00000010H
$LN14@BasicLuaMe@19:

; 233  : 	(pkType->*func)(CvLuaArgs::toValue<arg1>(L, idx));

	push	2
	push	esi
	call	_lua_tointeger
	add	esp, 8
	push	eax
	mov	ecx, edi
	call	DWORD PTR _func$[esp+16]
	pop	edi
	pop	esi
	pop	ebp

; 234  : 	return 0;

	xor	eax, eax
	pop	ebx

; 235  : }

	ret	0
??$BasicLuaMethod@H@?$CvLuaMethodWrapper@VCvLuaPlot@@VCvPlot@@@@KAHPAUlua_State@@P8CvPlot@@AEXH@Z@Z ENDP ; CvLuaMethodWrapper<CvLuaPlot,CvPlot>::BasicLuaMethod<int>
_TEXT	ENDS
PUBLIC	??$BasicLuaMethod@_NW4PlayerTypes@@_N@?$CvLuaMethodWrapper@VCvLuaPlot@@VCvPlot@@@@KAHPAUlua_State@@P8CvPlot@@BE_NW4PlayerTypes@@_N@Z@Z ; CvLuaMethodWrapper<CvLuaPlot,CvPlot>::BasicLuaMethod<bool,enum PlayerTypes,bool>
; Function compile flags: /Ogtpy
;	COMDAT ??$BasicLuaMethod@_NW4PlayerTypes@@_N@?$CvLuaMethodWrapper@VCvLuaPlot@@VCvPlot@@@@KAHPAUlua_State@@P8CvPlot@@BE_NW4PlayerTypes@@_N@Z@Z
_TEXT	SEGMENT
$T225091 = -4						; size = 1
_L$ = 8							; size = 4
_func$ = 12						; size = 4
??$BasicLuaMethod@_NW4PlayerTypes@@_N@?$CvLuaMethodWrapper@VCvLuaPlot@@VCvPlot@@@@KAHPAUlua_State@@P8CvPlot@@BE_NW4PlayerTypes@@_N@Z@Z PROC ; CvLuaMethodWrapper<CvLuaPlot,CvPlot>::BasicLuaMethod<bool,enum PlayerTypes,bool>, COMDAT

; 88   : {

	push	ecx
	push	ebx
	push	ebp
	push	esi

; 89   : 	const int idx = Derived::GetStartingArgIndex();
; 90   : 	InstanceType* pkType = Derived::GetInstance(L);

	mov	esi, DWORD PTR _L$[esp+12]
	push	edi
	push	esi
	call	_lua_gettop
	push	1
	push	esi
	mov	ebp, eax
	mov	bl, 1
	xor	edi, edi
	call	_lua_type
	add	esp, 12					; 0000000cH
	cmp	eax, 5
	jne	SHORT $LN7@BasicLuaMe@20
	push	OFFSET $SG223013
	push	1
	push	esi
	call	_lua_getfield
	push	-1
	push	esi
	call	_lua_type
	add	esp, 20					; 00000014H
	cmp	eax, 2
	jne	SHORT $LN7@BasicLuaMe@20
	push	-1
	push	esi
	call	_lua_touserdata
	mov	edi, eax
	add	esp, 8
	test	edi, edi
	je	SHORT $LN7@BasicLuaMe@20
	xor	bl, bl
$LN7@BasicLuaMe@20:
	push	ebp
	push	esi
	call	_lua_settop
	add	esp, 8
	test	bl, bl
	je	SHORT $LN14@BasicLuaMe@20
	push	OFFSET $SG223019
	push	esi
	call	_luaL_error
	push	OFFSET $SG223027
	push	esi
	call	_luaL_error
	add	esp, 16					; 00000010H
$LN14@BasicLuaMe@20:

; 91   : 	CvLuaArgs::pushValue<ret>(L, (pkType->*func)(CvLuaArgs::toValue<arg1>(L, idx), CvLuaArgs::toValue<arg2>(L, idx + 1)));

	push	3
	push	esi
	call	_lua_toboolean
	test	eax, eax
	setne	al
	push	2
	push	esi
	mov	BYTE PTR $T225091[esp+36], al
	call	_lua_tointeger
	mov	ecx, DWORD PTR $T225091[esp+36]
	add	esp, 16					; 00000010H
	push	ecx
	push	eax
	mov	ecx, edi
	call	DWORD PTR _func$[esp+24]
	movzx	edx, al
	push	edx
	push	esi
	call	_lua_pushboolean
	add	esp, 8
	pop	edi
	pop	esi
	pop	ebp

; 92   : 
; 93   : 	return 1;

	mov	eax, 1
	pop	ebx

; 94   : }

	pop	ecx
	ret	0
??$BasicLuaMethod@_NW4PlayerTypes@@_N@?$CvLuaMethodWrapper@VCvLuaPlot@@VCvPlot@@@@KAHPAUlua_State@@P8CvPlot@@BE_NW4PlayerTypes@@_N@Z@Z ENDP ; CvLuaMethodWrapper<CvLuaPlot,CvPlot>::BasicLuaMethod<bool,enum PlayerTypes,bool>
_TEXT	ENDS
PUBLIC	??$BasicLuaMethod@_NW4TeamTypes@@_N@?$CvLuaMethodWrapper@VCvLuaPlot@@VCvPlot@@@@KAHPAUlua_State@@P8CvPlot@@BE_NW4TeamTypes@@_N@Z@Z ; CvLuaMethodWrapper<CvLuaPlot,CvPlot>::BasicLuaMethod<bool,enum TeamTypes,bool>
; Function compile flags: /Ogtpy
;	COMDAT ??$BasicLuaMethod@_NW4TeamTypes@@_N@?$CvLuaMethodWrapper@VCvLuaPlot@@VCvPlot@@@@KAHPAUlua_State@@P8CvPlot@@BE_NW4TeamTypes@@_N@Z@Z
_TEXT	SEGMENT
$T225132 = -4						; size = 1
_L$ = 8							; size = 4
_func$ = 12						; size = 4
??$BasicLuaMethod@_NW4TeamTypes@@_N@?$CvLuaMethodWrapper@VCvLuaPlot@@VCvPlot@@@@KAHPAUlua_State@@P8CvPlot@@BE_NW4TeamTypes@@_N@Z@Z PROC ; CvLuaMethodWrapper<CvLuaPlot,CvPlot>::BasicLuaMethod<bool,enum TeamTypes,bool>, COMDAT

; 88   : {

	push	ecx
	push	ebx
	push	ebp
	push	esi

; 89   : 	const int idx = Derived::GetStartingArgIndex();
; 90   : 	InstanceType* pkType = Derived::GetInstance(L);

	mov	esi, DWORD PTR _L$[esp+12]
	push	edi
	push	esi
	call	_lua_gettop
	push	1
	push	esi
	mov	ebp, eax
	mov	bl, 1
	xor	edi, edi
	call	_lua_type
	add	esp, 12					; 0000000cH
	cmp	eax, 5
	jne	SHORT $LN7@BasicLuaMe@21
	push	OFFSET $SG223013
	push	1
	push	esi
	call	_lua_getfield
	push	-1
	push	esi
	call	_lua_type
	add	esp, 20					; 00000014H
	cmp	eax, 2
	jne	SHORT $LN7@BasicLuaMe@21
	push	-1
	push	esi
	call	_lua_touserdata
	mov	edi, eax
	add	esp, 8
	test	edi, edi
	je	SHORT $LN7@BasicLuaMe@21
	xor	bl, bl
$LN7@BasicLuaMe@21:
	push	ebp
	push	esi
	call	_lua_settop
	add	esp, 8
	test	bl, bl
	je	SHORT $LN14@BasicLuaMe@21
	push	OFFSET $SG223019
	push	esi
	call	_luaL_error
	push	OFFSET $SG223027
	push	esi
	call	_luaL_error
	add	esp, 16					; 00000010H
$LN14@BasicLuaMe@21:

; 91   : 	CvLuaArgs::pushValue<ret>(L, (pkType->*func)(CvLuaArgs::toValue<arg1>(L, idx), CvLuaArgs::toValue<arg2>(L, idx + 1)));

	push	3
	push	esi
	call	_lua_toboolean
	test	eax, eax
	setne	al
	push	2
	push	esi
	mov	BYTE PTR $T225132[esp+36], al
	call	_lua_tointeger
	mov	ecx, DWORD PTR $T225132[esp+36]
	add	esp, 16					; 00000010H
	push	ecx
	push	eax
	mov	ecx, edi
	call	DWORD PTR _func$[esp+24]
	movzx	edx, al
	push	edx
	push	esi
	call	_lua_pushboolean
	add	esp, 8
	pop	edi
	pop	esi
	pop	ebp

; 92   : 
; 93   : 	return 1;

	mov	eax, 1
	pop	ebx

; 94   : }

	pop	ecx
	ret	0
??$BasicLuaMethod@_NW4TeamTypes@@_N@?$CvLuaMethodWrapper@VCvLuaPlot@@VCvPlot@@@@KAHPAUlua_State@@P8CvPlot@@BE_NW4TeamTypes@@_N@Z@Z ENDP ; CvLuaMethodWrapper<CvLuaPlot,CvPlot>::BasicLuaMethod<bool,enum TeamTypes,bool>
_TEXT	ENDS
PUBLIC	??$BasicLuaMethod@_N@?$CvLuaMethodWrapper@VCvLuaPlot@@VCvPlot@@@@KAHPAUlua_State@@P8CvPlot@@AE_NXZ@Z ; CvLuaMethodWrapper<CvLuaPlot,CvPlot>::BasicLuaMethod<bool>
; Function compile flags: /Ogtpy
;	COMDAT ??$BasicLuaMethod@_N@?$CvLuaMethodWrapper@VCvLuaPlot@@VCvPlot@@@@KAHPAUlua_State@@P8CvPlot@@AE_NXZ@Z
_TEXT	SEGMENT
_L$ = 8							; size = 4
_func$ = 12						; size = 4
??$BasicLuaMethod@_N@?$CvLuaMethodWrapper@VCvLuaPlot@@VCvPlot@@@@KAHPAUlua_State@@P8CvPlot@@AE_NXZ@Z PROC ; CvLuaMethodWrapper<CvLuaPlot,CvPlot>::BasicLuaMethod<bool>, COMDAT

; 121  : {

	push	ebx
	push	ebp
	push	esi

; 122  : 	InstanceType* pkType = Derived::GetInstance(L);

	mov	esi, DWORD PTR _L$[esp+8]
	push	edi
	push	esi
	call	_lua_gettop
	push	1
	push	esi
	mov	ebp, eax
	mov	bl, 1
	xor	edi, edi
	call	_lua_type
	add	esp, 12					; 0000000cH
	cmp	eax, 5
	jne	SHORT $LN5@BasicLuaMe@22
	push	OFFSET $SG223013
	push	1
	push	esi
	call	_lua_getfield
	push	-1
	push	esi
	call	_lua_type
	add	esp, 20					; 00000014H
	cmp	eax, 2
	jne	SHORT $LN5@BasicLuaMe@22
	push	-1
	push	esi
	call	_lua_touserdata
	mov	edi, eax
	add	esp, 8
	test	edi, edi
	je	SHORT $LN5@BasicLuaMe@22
	xor	bl, bl
$LN5@BasicLuaMe@22:
	push	ebp
	push	esi
	call	_lua_settop
	add	esp, 8
	test	bl, bl
	je	SHORT $LN12@BasicLuaMe@22
	push	OFFSET $SG223019
	push	esi
	call	_luaL_error
	push	OFFSET $SG223027
	push	esi
	call	_luaL_error
	add	esp, 16					; 00000010H
$LN12@BasicLuaMe@22:

; 123  : 	CvLuaArgs::pushValue<ret>(L, (pkType->*func)());

	mov	ecx, edi
	call	DWORD PTR _func$[esp+12]
	movzx	eax, al
	push	eax
	push	esi
	call	_lua_pushboolean
	add	esp, 8
	pop	edi
	pop	esi
	pop	ebp

; 124  : 
; 125  : 	return 1;

	mov	eax, 1
	pop	ebx

; 126  : }

	ret	0
??$BasicLuaMethod@_N@?$CvLuaMethodWrapper@VCvLuaPlot@@VCvPlot@@@@KAHPAUlua_State@@P8CvPlot@@AE_NXZ@Z ENDP ; CvLuaMethodWrapper<CvLuaPlot,CvPlot>::BasicLuaMethod<bool>
_TEXT	ENDS
PUBLIC	??$BasicLuaMethod@_NW4TeamTypes@@@?$CvLuaMethodWrapper@VCvLuaPlot@@VCvPlot@@@@KAHPAUlua_State@@P8CvPlot@@BE_NW4TeamTypes@@@Z@Z ; CvLuaMethodWrapper<CvLuaPlot,CvPlot>::BasicLuaMethod<bool,enum TeamTypes>
; Function compile flags: /Ogtpy
;	COMDAT ??$BasicLuaMethod@_NW4TeamTypes@@@?$CvLuaMethodWrapper@VCvLuaPlot@@VCvPlot@@@@KAHPAUlua_State@@P8CvPlot@@BE_NW4TeamTypes@@@Z@Z
_TEXT	SEGMENT
_L$ = 8							; size = 4
_func$ = 12						; size = 4
??$BasicLuaMethod@_NW4TeamTypes@@@?$CvLuaMethodWrapper@VCvLuaPlot@@VCvPlot@@@@KAHPAUlua_State@@P8CvPlot@@BE_NW4TeamTypes@@@Z@Z PROC ; CvLuaMethodWrapper<CvLuaPlot,CvPlot>::BasicLuaMethod<bool,enum TeamTypes>, COMDAT

; 78   : {

	push	ebx
	push	ebp
	push	esi

; 79   : 	const int idx = Derived::GetStartingArgIndex();
; 80   : 	InstanceType* pkType = Derived::GetInstance(L);

	mov	esi, DWORD PTR _L$[esp+8]
	push	edi
	push	esi
	call	_lua_gettop
	push	1
	push	esi
	mov	ebp, eax
	mov	bl, 1
	xor	edi, edi
	call	_lua_type
	add	esp, 12					; 0000000cH
	cmp	eax, 5
	jne	SHORT $LN7@BasicLuaMe@23
	push	OFFSET $SG223013
	push	1
	push	esi
	call	_lua_getfield
	push	-1
	push	esi
	call	_lua_type
	add	esp, 20					; 00000014H
	cmp	eax, 2
	jne	SHORT $LN7@BasicLuaMe@23
	push	-1
	push	esi
	call	_lua_touserdata
	mov	edi, eax
	add	esp, 8
	test	edi, edi
	je	SHORT $LN7@BasicLuaMe@23
	xor	bl, bl
$LN7@BasicLuaMe@23:
	push	ebp
	push	esi
	call	_lua_settop
	add	esp, 8
	test	bl, bl
	je	SHORT $LN14@BasicLuaMe@23
	push	OFFSET $SG223019
	push	esi
	call	_luaL_error
	push	OFFSET $SG223027
	push	esi
	call	_luaL_error
	add	esp, 16					; 00000010H
$LN14@BasicLuaMe@23:

; 81   : 	CvLuaArgs::pushValue<ret>(L, (pkType->*func)(CvLuaArgs::toValue<arg1>(L, idx)));

	push	2
	push	esi
	call	_lua_tointeger
	add	esp, 8
	push	eax
	mov	ecx, edi
	call	DWORD PTR _func$[esp+16]
	movzx	eax, al
	push	eax
	push	esi
	call	_lua_pushboolean
	add	esp, 8
	pop	edi
	pop	esi
	pop	ebp

; 82   : 
; 83   : 	return 1;

	mov	eax, 1
	pop	ebx

; 84   : }

	ret	0
??$BasicLuaMethod@_NW4TeamTypes@@@?$CvLuaMethodWrapper@VCvLuaPlot@@VCvPlot@@@@KAHPAUlua_State@@P8CvPlot@@BE_NW4TeamTypes@@@Z@Z ENDP ; CvLuaMethodWrapper<CvLuaPlot,CvPlot>::BasicLuaMethod<bool,enum TeamTypes>
_TEXT	ENDS
PUBLIC	??$BasicLuaMethod@HPBVCvUnit@@@?$CvLuaMethodWrapper@VCvLuaPlot@@VCvPlot@@@@KAHPAUlua_State@@P8CvPlot@@BEHPBVCvUnit@@@Z@Z ; CvLuaMethodWrapper<CvLuaPlot,CvPlot>::BasicLuaMethod<int,CvUnit const *>
; Function compile flags: /Ogtpy
;	COMDAT ??$BasicLuaMethod@HPBVCvUnit@@@?$CvLuaMethodWrapper@VCvLuaPlot@@VCvPlot@@@@KAHPAUlua_State@@P8CvPlot@@BEHPBVCvUnit@@@Z@Z
_TEXT	SEGMENT
_L$ = 8							; size = 4
_func$ = 12						; size = 4
??$BasicLuaMethod@HPBVCvUnit@@@?$CvLuaMethodWrapper@VCvLuaPlot@@VCvPlot@@@@KAHPAUlua_State@@P8CvPlot@@BEHPBVCvUnit@@@Z@Z PROC ; CvLuaMethodWrapper<CvLuaPlot,CvPlot>::BasicLuaMethod<int,CvUnit const *>, COMDAT

; 78   : {

	push	ebx
	push	ebp
	push	esi

; 79   : 	const int idx = Derived::GetStartingArgIndex();
; 80   : 	InstanceType* pkType = Derived::GetInstance(L);

	mov	esi, DWORD PTR _L$[esp+8]
	push	edi
	push	esi
	call	_lua_gettop
	push	1
	push	esi
	mov	ebp, eax
	mov	bl, 1
	xor	edi, edi
	call	_lua_type
	add	esp, 12					; 0000000cH
	cmp	eax, 5
	jne	SHORT $LN7@BasicLuaMe@24
	push	OFFSET $SG223013
	push	1
	push	esi
	call	_lua_getfield
	push	-1
	push	esi
	call	_lua_type
	add	esp, 20					; 00000014H
	cmp	eax, 2
	jne	SHORT $LN7@BasicLuaMe@24
	push	-1
	push	esi
	call	_lua_touserdata
	mov	edi, eax
	add	esp, 8
	test	edi, edi
	je	SHORT $LN7@BasicLuaMe@24
	xor	bl, bl
$LN7@BasicLuaMe@24:
	push	ebp
	push	esi
	call	_lua_settop
	add	esp, 8
	test	bl, bl
	je	SHORT $LN14@BasicLuaMe@24
	push	OFFSET $SG223019
	push	esi
	call	_luaL_error
	push	OFFSET $SG223027
	push	esi
	call	_luaL_error
	add	esp, 16					; 00000010H
$LN14@BasicLuaMe@24:

; 81   : 	CvLuaArgs::pushValue<ret>(L, (pkType->*func)(CvLuaArgs::toValue<arg1>(L, idx)));

	push	2
	push	esi
	call	_lua_tointeger
	add	esp, 8
	push	eax
	mov	ecx, edi
	call	DWORD PTR _func$[esp+16]
	push	eax
	push	esi
	call	_lua_pushinteger
	add	esp, 8
	pop	edi
	pop	esi
	pop	ebp

; 82   : 
; 83   : 	return 1;

	mov	eax, 1
	pop	ebx

; 84   : }

	ret	0
??$BasicLuaMethod@HPBVCvUnit@@@?$CvLuaMethodWrapper@VCvLuaPlot@@VCvPlot@@@@KAHPAUlua_State@@P8CvPlot@@BEHPBVCvUnit@@@Z@Z ENDP ; CvLuaMethodWrapper<CvLuaPlot,CvPlot>::BasicLuaMethod<int,CvUnit const *>
_TEXT	ENDS
PUBLIC	??$BasicLuaMethod@_NW4PlayerTypes@@@?$CvLuaMethodWrapper@VCvLuaPlot@@VCvPlot@@@@KAHPAUlua_State@@P8CvPlot@@BE_NW4PlayerTypes@@@Z@Z ; CvLuaMethodWrapper<CvLuaPlot,CvPlot>::BasicLuaMethod<bool,enum PlayerTypes>
; Function compile flags: /Ogtpy
;	COMDAT ??$BasicLuaMethod@_NW4PlayerTypes@@@?$CvLuaMethodWrapper@VCvLuaPlot@@VCvPlot@@@@KAHPAUlua_State@@P8CvPlot@@BE_NW4PlayerTypes@@@Z@Z
_TEXT	SEGMENT
_L$ = 8							; size = 4
_func$ = 12						; size = 4
??$BasicLuaMethod@_NW4PlayerTypes@@@?$CvLuaMethodWrapper@VCvLuaPlot@@VCvPlot@@@@KAHPAUlua_State@@P8CvPlot@@BE_NW4PlayerTypes@@@Z@Z PROC ; CvLuaMethodWrapper<CvLuaPlot,CvPlot>::BasicLuaMethod<bool,enum PlayerTypes>, COMDAT

; 78   : {

	push	ebx
	push	ebp
	push	esi

; 79   : 	const int idx = Derived::GetStartingArgIndex();
; 80   : 	InstanceType* pkType = Derived::GetInstance(L);

	mov	esi, DWORD PTR _L$[esp+8]
	push	edi
	push	esi
	call	_lua_gettop
	push	1
	push	esi
	mov	ebp, eax
	mov	bl, 1
	xor	edi, edi
	call	_lua_type
	add	esp, 12					; 0000000cH
	cmp	eax, 5
	jne	SHORT $LN7@BasicLuaMe@25
	push	OFFSET $SG223013
	push	1
	push	esi
	call	_lua_getfield
	push	-1
	push	esi
	call	_lua_type
	add	esp, 20					; 00000014H
	cmp	eax, 2
	jne	SHORT $LN7@BasicLuaMe@25
	push	-1
	push	esi
	call	_lua_touserdata
	mov	edi, eax
	add	esp, 8
	test	edi, edi
	je	SHORT $LN7@BasicLuaMe@25
	xor	bl, bl
$LN7@BasicLuaMe@25:
	push	ebp
	push	esi
	call	_lua_settop
	add	esp, 8
	test	bl, bl
	je	SHORT $LN14@BasicLuaMe@25
	push	OFFSET $SG223019
	push	esi
	call	_luaL_error
	push	OFFSET $SG223027
	push	esi
	call	_luaL_error
	add	esp, 16					; 00000010H
$LN14@BasicLuaMe@25:

; 81   : 	CvLuaArgs::pushValue<ret>(L, (pkType->*func)(CvLuaArgs::toValue<arg1>(L, idx)));

	push	2
	push	esi
	call	_lua_tointeger
	add	esp, 8
	push	eax
	mov	ecx, edi
	call	DWORD PTR _func$[esp+16]
	movzx	eax, al
	push	eax
	push	esi
	call	_lua_pushboolean
	add	esp, 8
	pop	edi
	pop	esi
	pop	ebp

; 82   : 
; 83   : 	return 1;

	mov	eax, 1
	pop	ebx

; 84   : }

	ret	0
??$BasicLuaMethod@_NW4PlayerTypes@@@?$CvLuaMethodWrapper@VCvLuaPlot@@VCvPlot@@@@KAHPAUlua_State@@P8CvPlot@@BE_NW4PlayerTypes@@@Z@Z ENDP ; CvLuaMethodWrapper<CvLuaPlot,CvPlot>::BasicLuaMethod<bool,enum PlayerTypes>
_TEXT	ENDS
PUBLIC	??$BasicLuaMethod@_NHH@?$CvLuaMethodWrapper@VCvLuaPlot@@VCvPlot@@@@KAHPAUlua_State@@P8CvPlot@@BE_NHH@Z@Z ; CvLuaMethodWrapper<CvLuaPlot,CvPlot>::BasicLuaMethod<bool,int,int>
; Function compile flags: /Ogtpy
;	COMDAT ??$BasicLuaMethod@_NHH@?$CvLuaMethodWrapper@VCvLuaPlot@@VCvPlot@@@@KAHPAUlua_State@@P8CvPlot@@BE_NHH@Z@Z
_TEXT	SEGMENT
_L$ = 8							; size = 4
_func$ = 12						; size = 4
??$BasicLuaMethod@_NHH@?$CvLuaMethodWrapper@VCvLuaPlot@@VCvPlot@@@@KAHPAUlua_State@@P8CvPlot@@BE_NHH@Z@Z PROC ; CvLuaMethodWrapper<CvLuaPlot,CvPlot>::BasicLuaMethod<bool,int,int>, COMDAT

; 88   : {

	push	ebx
	push	ebp
	push	esi

; 89   : 	const int idx = Derived::GetStartingArgIndex();
; 90   : 	InstanceType* pkType = Derived::GetInstance(L);

	mov	esi, DWORD PTR _L$[esp+8]
	push	edi
	push	esi
	call	_lua_gettop
	push	1
	push	esi
	mov	ebp, eax
	mov	bl, 1
	xor	edi, edi
	call	_lua_type
	add	esp, 12					; 0000000cH
	cmp	eax, 5
	jne	SHORT $LN7@BasicLuaMe@26
	push	OFFSET $SG223013
	push	1
	push	esi
	call	_lua_getfield
	push	-1
	push	esi
	call	_lua_type
	add	esp, 20					; 00000014H
	cmp	eax, 2
	jne	SHORT $LN7@BasicLuaMe@26
	push	-1
	push	esi
	call	_lua_touserdata
	mov	edi, eax
	add	esp, 8
	test	edi, edi
	je	SHORT $LN7@BasicLuaMe@26
	xor	bl, bl
$LN7@BasicLuaMe@26:
	push	ebp
	push	esi
	call	_lua_settop
	add	esp, 8
	test	bl, bl
	je	SHORT $LN14@BasicLuaMe@26
	push	OFFSET $SG223019
	push	esi
	call	_luaL_error
	push	OFFSET $SG223027
	push	esi
	call	_luaL_error
	add	esp, 16					; 00000010H
$LN14@BasicLuaMe@26:

; 91   : 	CvLuaArgs::pushValue<ret>(L, (pkType->*func)(CvLuaArgs::toValue<arg1>(L, idx), CvLuaArgs::toValue<arg2>(L, idx + 1)));

	push	3
	push	esi
	call	_lua_tointeger
	push	2
	push	esi
	mov	ebx, eax
	call	_lua_tointeger
	add	esp, 16					; 00000010H
	push	ebx
	push	eax
	mov	ecx, edi
	call	DWORD PTR _func$[esp+20]
	movzx	eax, al
	push	eax
	push	esi
	call	_lua_pushboolean
	add	esp, 8
	pop	edi
	pop	esi
	pop	ebp

; 92   : 
; 93   : 	return 1;

	mov	eax, 1
	pop	ebx

; 94   : }

	ret	0
??$BasicLuaMethod@_NHH@?$CvLuaMethodWrapper@VCvLuaPlot@@VCvPlot@@@@KAHPAUlua_State@@P8CvPlot@@BE_NHH@Z@Z ENDP ; CvLuaMethodWrapper<CvLuaPlot,CvPlot>::BasicLuaMethod<bool,int,int>
_TEXT	ENDS
PUBLIC	??$BasicLuaMethod@HW4ImprovementTypes@@W4PlayerTypes@@@?$CvLuaMethodWrapper@VCvLuaPlot@@VCvPlot@@@@KAHPAUlua_State@@P8CvPlot@@BEHW4ImprovementTypes@@W4PlayerTypes@@@Z@Z ; CvLuaMethodWrapper<CvLuaPlot,CvPlot>::BasicLuaMethod<int,enum ImprovementTypes,enum PlayerTypes>
; Function compile flags: /Ogtpy
;	COMDAT ??$BasicLuaMethod@HW4ImprovementTypes@@W4PlayerTypes@@@?$CvLuaMethodWrapper@VCvLuaPlot@@VCvPlot@@@@KAHPAUlua_State@@P8CvPlot@@BEHW4ImprovementTypes@@W4PlayerTypes@@@Z@Z
_TEXT	SEGMENT
_L$ = 8							; size = 4
_func$ = 12						; size = 4
??$BasicLuaMethod@HW4ImprovementTypes@@W4PlayerTypes@@@?$CvLuaMethodWrapper@VCvLuaPlot@@VCvPlot@@@@KAHPAUlua_State@@P8CvPlot@@BEHW4ImprovementTypes@@W4PlayerTypes@@@Z@Z PROC ; CvLuaMethodWrapper<CvLuaPlot,CvPlot>::BasicLuaMethod<int,enum ImprovementTypes,enum PlayerTypes>, COMDAT

; 88   : {

	push	ebx
	push	ebp
	push	esi

; 89   : 	const int idx = Derived::GetStartingArgIndex();
; 90   : 	InstanceType* pkType = Derived::GetInstance(L);

	mov	esi, DWORD PTR _L$[esp+8]
	push	edi
	push	esi
	call	_lua_gettop
	push	1
	push	esi
	mov	ebp, eax
	mov	bl, 1
	xor	edi, edi
	call	_lua_type
	add	esp, 12					; 0000000cH
	cmp	eax, 5
	jne	SHORT $LN7@BasicLuaMe@27
	push	OFFSET $SG223013
	push	1
	push	esi
	call	_lua_getfield
	push	-1
	push	esi
	call	_lua_type
	add	esp, 20					; 00000014H
	cmp	eax, 2
	jne	SHORT $LN7@BasicLuaMe@27
	push	-1
	push	esi
	call	_lua_touserdata
	mov	edi, eax
	add	esp, 8
	test	edi, edi
	je	SHORT $LN7@BasicLuaMe@27
	xor	bl, bl
$LN7@BasicLuaMe@27:
	push	ebp
	push	esi
	call	_lua_settop
	add	esp, 8
	test	bl, bl
	je	SHORT $LN14@BasicLuaMe@27
	push	OFFSET $SG223019
	push	esi
	call	_luaL_error
	push	OFFSET $SG223027
	push	esi
	call	_luaL_error
	add	esp, 16					; 00000010H
$LN14@BasicLuaMe@27:

; 91   : 	CvLuaArgs::pushValue<ret>(L, (pkType->*func)(CvLuaArgs::toValue<arg1>(L, idx), CvLuaArgs::toValue<arg2>(L, idx + 1)));

	push	3
	push	esi
	call	_lua_tointeger
	push	2
	push	esi
	mov	ebx, eax
	call	_lua_tointeger
	add	esp, 16					; 00000010H
	push	ebx
	push	eax
	mov	ecx, edi
	call	DWORD PTR _func$[esp+20]
	push	eax
	push	esi
	call	_lua_pushinteger
	add	esp, 8
	pop	edi
	pop	esi
	pop	ebp

; 92   : 
; 93   : 	return 1;

	mov	eax, 1
	pop	ebx

; 94   : }

	ret	0
??$BasicLuaMethod@HW4ImprovementTypes@@W4PlayerTypes@@@?$CvLuaMethodWrapper@VCvLuaPlot@@VCvPlot@@@@KAHPAUlua_State@@P8CvPlot@@BEHW4ImprovementTypes@@W4PlayerTypes@@@Z@Z ENDP ; CvLuaMethodWrapper<CvLuaPlot,CvPlot>::BasicLuaMethod<int,enum ImprovementTypes,enum PlayerTypes>
_TEXT	ENDS
PUBLIC	??$BasicLuaMethod@_NW4FlowDirectionTypes@@@?$CvLuaMethodWrapper@VCvLuaPlot@@VCvPlot@@@@KAHPAUlua_State@@P8CvPlot@@AEX_NW4FlowDirectionTypes@@@Z@Z ; CvLuaMethodWrapper<CvLuaPlot,CvPlot>::BasicLuaMethod<bool,enum FlowDirectionTypes>
; Function compile flags: /Ogtpy
;	COMDAT ??$BasicLuaMethod@_NW4FlowDirectionTypes@@@?$CvLuaMethodWrapper@VCvLuaPlot@@VCvPlot@@@@KAHPAUlua_State@@P8CvPlot@@AEX_NW4FlowDirectionTypes@@@Z@Z
_TEXT	SEGMENT
_L$ = 8							; size = 4
_func$ = 12						; size = 4
??$BasicLuaMethod@_NW4FlowDirectionTypes@@@?$CvLuaMethodWrapper@VCvLuaPlot@@VCvPlot@@@@KAHPAUlua_State@@P8CvPlot@@AEX_NW4FlowDirectionTypes@@@Z@Z PROC ; CvLuaMethodWrapper<CvLuaPlot,CvPlot>::BasicLuaMethod<bool,enum FlowDirectionTypes>, COMDAT

; 239  : {

	push	ebx
	push	ebp
	push	esi

; 240  : 	const int idx = Derived::GetStartingArgIndex();
; 241  : 	InstanceType* pkType = Derived::GetInstance(L);

	mov	esi, DWORD PTR _L$[esp+8]
	push	edi
	push	esi
	call	_lua_gettop
	push	1
	push	esi
	mov	ebp, eax
	mov	bl, 1
	xor	edi, edi
	call	_lua_type
	add	esp, 12					; 0000000cH
	cmp	eax, 5
	jne	SHORT $LN7@BasicLuaMe@28
	push	OFFSET $SG223013
	push	1
	push	esi
	call	_lua_getfield
	push	-1
	push	esi
	call	_lua_type
	add	esp, 20					; 00000014H
	cmp	eax, 2
	jne	SHORT $LN7@BasicLuaMe@28
	push	-1
	push	esi
	call	_lua_touserdata
	mov	edi, eax
	add	esp, 8
	test	edi, edi
	je	SHORT $LN7@BasicLuaMe@28
	xor	bl, bl
$LN7@BasicLuaMe@28:
	push	ebp
	push	esi
	call	_lua_settop
	add	esp, 8
	test	bl, bl
	je	SHORT $LN14@BasicLuaMe@28
	push	OFFSET $SG223019
	push	esi
	call	_luaL_error
	push	OFFSET $SG223027
	push	esi
	call	_luaL_error
	add	esp, 16					; 00000010H
$LN14@BasicLuaMe@28:

; 242  : 	(pkType->*func)(CvLuaArgs::toValue<arg1>(L, idx), CvLuaArgs::toValue<arg2>(L, idx + 1));

	push	3
	push	esi
	call	_lua_tointeger
	add	esp, 8
	push	eax
	push	2
	push	esi
	call	_lua_toboolean
	add	esp, 8
	test	eax, eax
	setne	al
	movzx	ecx, al
	push	ecx
	mov	ecx, edi
	call	DWORD PTR _func$[esp+20]
	pop	edi
	pop	esi
	pop	ebp

; 243  : 	return 0;

	xor	eax, eax
	pop	ebx

; 244  : }

	ret	0
??$BasicLuaMethod@_NW4FlowDirectionTypes@@@?$CvLuaMethodWrapper@VCvLuaPlot@@VCvPlot@@@@KAHPAUlua_State@@P8CvPlot@@AEX_NW4FlowDirectionTypes@@@Z@Z ENDP ; CvLuaMethodWrapper<CvLuaPlot,CvPlot>::BasicLuaMethod<bool,enum FlowDirectionTypes>
_TEXT	ENDS
PUBLIC	??$BasicLuaMethod@W4FlowDirectionTypes@@@?$CvLuaMethodWrapper@VCvLuaPlot@@VCvPlot@@@@KAHPAUlua_State@@P8CvPlot@@BE?AW4FlowDirectionTypes@@XZ@Z ; CvLuaMethodWrapper<CvLuaPlot,CvPlot>::BasicLuaMethod<enum FlowDirectionTypes>
; Function compile flags: /Ogtpy
;	COMDAT ??$BasicLuaMethod@W4FlowDirectionTypes@@@?$CvLuaMethodWrapper@VCvLuaPlot@@VCvPlot@@@@KAHPAUlua_State@@P8CvPlot@@BE?AW4FlowDirectionTypes@@XZ@Z
_TEXT	SEGMENT
_L$ = 8							; size = 4
_func$ = 12						; size = 4
??$BasicLuaMethod@W4FlowDirectionTypes@@@?$CvLuaMethodWrapper@VCvLuaPlot@@VCvPlot@@@@KAHPAUlua_State@@P8CvPlot@@BE?AW4FlowDirectionTypes@@XZ@Z PROC ; CvLuaMethodWrapper<CvLuaPlot,CvPlot>::BasicLuaMethod<enum FlowDirectionTypes>, COMDAT

; 69   : {

	push	ebx
	push	ebp
	push	esi

; 70   : 	InstanceType* pkType = Derived::GetInstance(L);

	mov	esi, DWORD PTR _L$[esp+8]
	push	edi
	push	esi
	call	_lua_gettop
	push	1
	push	esi
	mov	ebp, eax
	mov	bl, 1
	xor	edi, edi
	call	_lua_type
	add	esp, 12					; 0000000cH
	cmp	eax, 5
	jne	SHORT $LN5@BasicLuaMe@29
	push	OFFSET $SG223013
	push	1
	push	esi
	call	_lua_getfield
	push	-1
	push	esi
	call	_lua_type
	add	esp, 20					; 00000014H
	cmp	eax, 2
	jne	SHORT $LN5@BasicLuaMe@29
	push	-1
	push	esi
	call	_lua_touserdata
	mov	edi, eax
	add	esp, 8
	test	edi, edi
	je	SHORT $LN5@BasicLuaMe@29
	xor	bl, bl
$LN5@BasicLuaMe@29:
	push	ebp
	push	esi
	call	_lua_settop
	add	esp, 8
	test	bl, bl
	je	SHORT $LN12@BasicLuaMe@29
	push	OFFSET $SG223019
	push	esi
	call	_luaL_error
	push	OFFSET $SG223027
	push	esi
	call	_luaL_error
	add	esp, 16					; 00000010H
$LN12@BasicLuaMe@29:

; 71   : 	CvLuaArgs::pushValue<ret>(L, (pkType->*func)());

	mov	ecx, edi
	call	DWORD PTR _func$[esp+12]
	push	eax
	push	esi
	call	_lua_pushinteger
	add	esp, 8
	pop	edi
	pop	esi
	pop	ebp

; 72   : 
; 73   : 	return 1;

	mov	eax, 1
	pop	ebx

; 74   : }

	ret	0
??$BasicLuaMethod@W4FlowDirectionTypes@@@?$CvLuaMethodWrapper@VCvLuaPlot@@VCvPlot@@@@KAHPAUlua_State@@P8CvPlot@@BE?AW4FlowDirectionTypes@@XZ@Z ENDP ; CvLuaMethodWrapper<CvLuaPlot,CvPlot>::BasicLuaMethod<enum FlowDirectionTypes>
_TEXT	ENDS
PUBLIC	??$BasicLuaMethod@_NPAVCvArea@@@?$CvLuaMethodWrapper@VCvLuaPlot@@VCvPlot@@@@KAHPAUlua_State@@P8CvPlot@@BE_NPAVCvArea@@@Z@Z ; CvLuaMethodWrapper<CvLuaPlot,CvPlot>::BasicLuaMethod<bool,CvArea *>
; Function compile flags: /Ogtpy
;	COMDAT ??$BasicLuaMethod@_NPAVCvArea@@@?$CvLuaMethodWrapper@VCvLuaPlot@@VCvPlot@@@@KAHPAUlua_State@@P8CvPlot@@BE_NPAVCvArea@@@Z@Z
_TEXT	SEGMENT
_L$ = 8							; size = 4
_func$ = 12						; size = 4
??$BasicLuaMethod@_NPAVCvArea@@@?$CvLuaMethodWrapper@VCvLuaPlot@@VCvPlot@@@@KAHPAUlua_State@@P8CvPlot@@BE_NPAVCvArea@@@Z@Z PROC ; CvLuaMethodWrapper<CvLuaPlot,CvPlot>::BasicLuaMethod<bool,CvArea *>, COMDAT

; 78   : {

	push	ebx
	push	ebp
	push	esi

; 79   : 	const int idx = Derived::GetStartingArgIndex();
; 80   : 	InstanceType* pkType = Derived::GetInstance(L);

	mov	esi, DWORD PTR _L$[esp+8]
	push	edi
	push	esi
	call	_lua_gettop
	push	1
	push	esi
	mov	ebp, eax
	mov	bl, 1
	xor	edi, edi
	call	_lua_type
	add	esp, 12					; 0000000cH
	cmp	eax, 5
	jne	SHORT $LN7@BasicLuaMe@30
	push	OFFSET $SG223013
	push	1
	push	esi
	call	_lua_getfield
	push	-1
	push	esi
	call	_lua_type
	add	esp, 20					; 00000014H
	cmp	eax, 2
	jne	SHORT $LN7@BasicLuaMe@30
	push	-1
	push	esi
	call	_lua_touserdata
	mov	edi, eax
	add	esp, 8
	test	edi, edi
	je	SHORT $LN7@BasicLuaMe@30
	xor	bl, bl
$LN7@BasicLuaMe@30:
	push	ebp
	push	esi
	call	_lua_settop
	add	esp, 8
	test	bl, bl
	je	SHORT $LN14@BasicLuaMe@30
	push	OFFSET $SG223019
	push	esi
	call	_luaL_error
	push	OFFSET $SG223027
	push	esi
	call	_luaL_error
	add	esp, 16					; 00000010H
$LN14@BasicLuaMe@30:

; 81   : 	CvLuaArgs::pushValue<ret>(L, (pkType->*func)(CvLuaArgs::toValue<arg1>(L, idx)));

	push	2
	push	esi
	call	_lua_tointeger
	add	esp, 8
	push	eax
	mov	ecx, edi
	call	DWORD PTR _func$[esp+16]
	movzx	eax, al
	push	eax
	push	esi
	call	_lua_pushboolean
	add	esp, 8
	pop	edi
	pop	esi
	pop	ebp

; 82   : 
; 83   : 	return 1;

	mov	eax, 1
	pop	ebx

; 84   : }

	ret	0
??$BasicLuaMethod@_NPAVCvArea@@@?$CvLuaMethodWrapper@VCvLuaPlot@@VCvPlot@@@@KAHPAUlua_State@@P8CvPlot@@BE_NPAVCvArea@@@Z@Z ENDP ; CvLuaMethodWrapper<CvLuaPlot,CvPlot>::BasicLuaMethod<bool,CvArea *>
_TEXT	ENDS
PUBLIC	??$BasicLuaMethod@W4PlayerTypes@@@?$CvLuaMethodWrapper@VCvLuaPlot@@VCvPlot@@@@KAHPAUlua_State@@P8CvPlot@@BE?AW4PlayerTypes@@XZ@Z ; CvLuaMethodWrapper<CvLuaPlot,CvPlot>::BasicLuaMethod<enum PlayerTypes>
; Function compile flags: /Ogtpy
;	COMDAT ??$BasicLuaMethod@W4PlayerTypes@@@?$CvLuaMethodWrapper@VCvLuaPlot@@VCvPlot@@@@KAHPAUlua_State@@P8CvPlot@@BE?AW4PlayerTypes@@XZ@Z
_TEXT	SEGMENT
_L$ = 8							; size = 4
_func$ = 12						; size = 4
??$BasicLuaMethod@W4PlayerTypes@@@?$CvLuaMethodWrapper@VCvLuaPlot@@VCvPlot@@@@KAHPAUlua_State@@P8CvPlot@@BE?AW4PlayerTypes@@XZ@Z PROC ; CvLuaMethodWrapper<CvLuaPlot,CvPlot>::BasicLuaMethod<enum PlayerTypes>, COMDAT

; 69   : {

	push	ebx
	push	ebp
	push	esi

; 70   : 	InstanceType* pkType = Derived::GetInstance(L);

	mov	esi, DWORD PTR _L$[esp+8]
	push	edi
	push	esi
	call	_lua_gettop
	push	1
	push	esi
	mov	ebp, eax
	mov	bl, 1
	xor	edi, edi
	call	_lua_type
	add	esp, 12					; 0000000cH
	cmp	eax, 5
	jne	SHORT $LN5@BasicLuaMe@31
	push	OFFSET $SG223013
	push	1
	push	esi
	call	_lua_getfield
	push	-1
	push	esi
	call	_lua_type
	add	esp, 20					; 00000014H
	cmp	eax, 2
	jne	SHORT $LN5@BasicLuaMe@31
	push	-1
	push	esi
	call	_lua_touserdata
	mov	edi, eax
	add	esp, 8
	test	edi, edi
	je	SHORT $LN5@BasicLuaMe@31
	xor	bl, bl
$LN5@BasicLuaMe@31:
	push	ebp
	push	esi
	call	_lua_settop
	add	esp, 8
	test	bl, bl
	je	SHORT $LN12@BasicLuaMe@31
	push	OFFSET $SG223019
	push	esi
	call	_luaL_error
	push	OFFSET $SG223027
	push	esi
	call	_luaL_error
	add	esp, 16					; 00000010H
$LN12@BasicLuaMe@31:

; 71   : 	CvLuaArgs::pushValue<ret>(L, (pkType->*func)());

	mov	ecx, edi
	call	DWORD PTR _func$[esp+12]
	push	eax
	push	esi
	call	_lua_pushinteger
	add	esp, 8
	pop	edi
	pop	esi
	pop	ebp

; 72   : 
; 73   : 	return 1;

	mov	eax, 1
	pop	ebx

; 74   : }

	ret	0
??$BasicLuaMethod@W4PlayerTypes@@@?$CvLuaMethodWrapper@VCvLuaPlot@@VCvPlot@@@@KAHPAUlua_State@@P8CvPlot@@BE?AW4PlayerTypes@@XZ@Z ENDP ; CvLuaMethodWrapper<CvLuaPlot,CvPlot>::BasicLuaMethod<enum PlayerTypes>
_TEXT	ENDS
PUBLIC	??$BasicLuaMethod@W4PlayerTypes@@H_N_N@?$CvLuaMethodWrapper@VCvLuaPlot@@VCvPlot@@@@KAHPAUlua_State@@P8CvPlot@@AEXW4PlayerTypes@@H_N2@Z@Z ; CvLuaMethodWrapper<CvLuaPlot,CvPlot>::BasicLuaMethod<enum PlayerTypes,int,bool,bool>
; Function compile flags: /Ogtpy
;	COMDAT ??$BasicLuaMethod@W4PlayerTypes@@H_N_N@?$CvLuaMethodWrapper@VCvLuaPlot@@VCvPlot@@@@KAHPAUlua_State@@P8CvPlot@@AEXW4PlayerTypes@@H_N2@Z@Z
_TEXT	SEGMENT
$T225529 = -8						; size = 1
$T225533 = -4						; size = 1
_L$ = 8							; size = 4
_func$ = 12						; size = 4
??$BasicLuaMethod@W4PlayerTypes@@H_N_N@?$CvLuaMethodWrapper@VCvLuaPlot@@VCvPlot@@@@KAHPAUlua_State@@P8CvPlot@@AEXW4PlayerTypes@@H_N2@Z@Z PROC ; CvLuaMethodWrapper<CvLuaPlot,CvPlot>::BasicLuaMethod<enum PlayerTypes,int,bool,bool>, COMDAT

; 259  : {

	sub	esp, 8
	push	ebx
	push	ebp
	push	esi

; 260  : 	const int idx = Derived::GetStartingArgIndex();
; 261  : 	InstanceType* pkType = Derived::GetInstance(L);

	mov	esi, DWORD PTR _L$[esp+16]
	push	edi
	push	esi
	call	_lua_gettop
	push	1
	push	esi
	mov	ebp, eax
	mov	bl, 1
	xor	edi, edi
	call	_lua_type
	add	esp, 12					; 0000000cH
	cmp	eax, 5
	jne	SHORT $LN7@BasicLuaMe@32
	push	OFFSET $SG223013
	push	1
	push	esi
	call	_lua_getfield
	push	-1
	push	esi
	call	_lua_type
	add	esp, 20					; 00000014H
	cmp	eax, 2
	jne	SHORT $LN7@BasicLuaMe@32
	push	-1
	push	esi
	call	_lua_touserdata
	mov	edi, eax
	add	esp, 8
	test	edi, edi
	je	SHORT $LN7@BasicLuaMe@32
	xor	bl, bl
$LN7@BasicLuaMe@32:
	push	ebp
	push	esi
	call	_lua_settop
	add	esp, 8
	test	bl, bl
	je	SHORT $LN14@BasicLuaMe@32
	push	OFFSET $SG223019
	push	esi
	call	_luaL_error
	push	OFFSET $SG223027
	push	esi
	call	_luaL_error
	add	esp, 16					; 00000010H
$LN14@BasicLuaMe@32:

; 262  : 	(pkType->*func)(CvLuaArgs::toValue<arg1>(L, idx), CvLuaArgs::toValue<arg2>(L, idx + 1), CvLuaArgs::toValue<arg3>(L, idx + 2), CvLuaArgs::toValue<arg4>(L, idx + 3));

	push	5
	push	esi
	call	_lua_toboolean
	test	eax, eax
	setne	al
	push	4
	push	esi
	mov	BYTE PTR $T225529[esp+40], al
	call	_lua_toboolean
	test	eax, eax
	setne	cl
	push	3
	push	esi
	mov	BYTE PTR $T225533[esp+48], cl
	call	_lua_tointeger
	mov	edx, DWORD PTR $T225529[esp+48]
	mov	ecx, DWORD PTR $T225533[esp+48]
	add	esp, 24					; 00000018H
	push	edx
	push	ecx
	push	eax
	push	2
	push	esi
	call	_lua_tointeger
	add	esp, 8
	push	eax
	mov	ecx, edi
	call	DWORD PTR _func$[esp+36]
	pop	edi
	pop	esi
	pop	ebp

; 263  : 	return 0;

	xor	eax, eax
	pop	ebx

; 264  : }

	add	esp, 8
	ret	0
??$BasicLuaMethod@W4PlayerTypes@@H_N_N@?$CvLuaMethodWrapper@VCvLuaPlot@@VCvPlot@@@@KAHPAUlua_State@@P8CvPlot@@AEXW4PlayerTypes@@H_N2@Z@Z ENDP ; CvLuaMethodWrapper<CvLuaPlot,CvPlot>::BasicLuaMethod<enum PlayerTypes,int,bool,bool>
_TEXT	ENDS
PUBLIC	??$BasicLuaMethod@W4PlotTypes@@@?$CvLuaMethodWrapper@VCvLuaPlot@@VCvPlot@@@@KAHPAUlua_State@@P8CvPlot@@BE?AW4PlotTypes@@XZ@Z ; CvLuaMethodWrapper<CvLuaPlot,CvPlot>::BasicLuaMethod<enum PlotTypes>
; Function compile flags: /Ogtpy
;	COMDAT ??$BasicLuaMethod@W4PlotTypes@@@?$CvLuaMethodWrapper@VCvLuaPlot@@VCvPlot@@@@KAHPAUlua_State@@P8CvPlot@@BE?AW4PlotTypes@@XZ@Z
_TEXT	SEGMENT
_L$ = 8							; size = 4
_func$ = 12						; size = 4
??$BasicLuaMethod@W4PlotTypes@@@?$CvLuaMethodWrapper@VCvLuaPlot@@VCvPlot@@@@KAHPAUlua_State@@P8CvPlot@@BE?AW4PlotTypes@@XZ@Z PROC ; CvLuaMethodWrapper<CvLuaPlot,CvPlot>::BasicLuaMethod<enum PlotTypes>, COMDAT

; 69   : {

	push	ebx
	push	ebp
	push	esi

; 70   : 	InstanceType* pkType = Derived::GetInstance(L);

	mov	esi, DWORD PTR _L$[esp+8]
	push	edi
	push	esi
	call	_lua_gettop
	push	1
	push	esi
	mov	ebp, eax
	mov	bl, 1
	xor	edi, edi
	call	_lua_type
	add	esp, 12					; 0000000cH
	cmp	eax, 5
	jne	SHORT $LN5@BasicLuaMe@33
	push	OFFSET $SG223013
	push	1
	push	esi
	call	_lua_getfield
	push	-1
	push	esi
	call	_lua_type
	add	esp, 20					; 00000014H
	cmp	eax, 2
	jne	SHORT $LN5@BasicLuaMe@33
	push	-1
	push	esi
	call	_lua_touserdata
	mov	edi, eax
	add	esp, 8
	test	edi, edi
	je	SHORT $LN5@BasicLuaMe@33
	xor	bl, bl
$LN5@BasicLuaMe@33:
	push	ebp
	push	esi
	call	_lua_settop
	add	esp, 8
	test	bl, bl
	je	SHORT $LN12@BasicLuaMe@33
	push	OFFSET $SG223019
	push	esi
	call	_luaL_error
	push	OFFSET $SG223027
	push	esi
	call	_luaL_error
	add	esp, 16					; 00000010H
$LN12@BasicLuaMe@33:

; 71   : 	CvLuaArgs::pushValue<ret>(L, (pkType->*func)());

	mov	ecx, edi
	call	DWORD PTR _func$[esp+12]
	push	eax
	push	esi
	call	_lua_pushinteger
	add	esp, 8
	pop	edi
	pop	esi
	pop	ebp

; 72   : 
; 73   : 	return 1;

	mov	eax, 1
	pop	ebx

; 74   : }

	ret	0
??$BasicLuaMethod@W4PlotTypes@@@?$CvLuaMethodWrapper@VCvLuaPlot@@VCvPlot@@@@KAHPAUlua_State@@P8CvPlot@@BE?AW4PlotTypes@@XZ@Z ENDP ; CvLuaMethodWrapper<CvLuaPlot,CvPlot>::BasicLuaMethod<enum PlotTypes>
_TEXT	ENDS
PUBLIC	??$BasicLuaMethod@W4PlotTypes@@_N_N_N@?$CvLuaMethodWrapper@VCvLuaPlot@@VCvPlot@@@@KAHPAUlua_State@@P8CvPlot@@AEXW4PlotTypes@@_N22@Z@Z ; CvLuaMethodWrapper<CvLuaPlot,CvPlot>::BasicLuaMethod<enum PlotTypes,bool,bool,bool>
; Function compile flags: /Ogtpy
;	COMDAT ??$BasicLuaMethod@W4PlotTypes@@_N_N_N@?$CvLuaMethodWrapper@VCvLuaPlot@@VCvPlot@@@@KAHPAUlua_State@@P8CvPlot@@AEXW4PlotTypes@@_N22@Z@Z
_TEXT	SEGMENT
$T225603 = -12						; size = 1
$T225607 = -8						; size = 1
$T225611 = -4						; size = 1
_L$ = 8							; size = 4
_func$ = 12						; size = 4
??$BasicLuaMethod@W4PlotTypes@@_N_N_N@?$CvLuaMethodWrapper@VCvLuaPlot@@VCvPlot@@@@KAHPAUlua_State@@P8CvPlot@@AEXW4PlotTypes@@_N22@Z@Z PROC ; CvLuaMethodWrapper<CvLuaPlot,CvPlot>::BasicLuaMethod<enum PlotTypes,bool,bool,bool>, COMDAT

; 259  : {

	sub	esp, 12					; 0000000cH
	push	ebx
	push	ebp
	push	esi

; 260  : 	const int idx = Derived::GetStartingArgIndex();
; 261  : 	InstanceType* pkType = Derived::GetInstance(L);

	mov	esi, DWORD PTR _L$[esp+20]
	push	edi
	push	esi
	call	_lua_gettop
	push	1
	push	esi
	mov	ebp, eax
	mov	bl, 1
	xor	edi, edi
	call	_lua_type
	add	esp, 12					; 0000000cH
	cmp	eax, 5
	jne	SHORT $LN7@BasicLuaMe@34
	push	OFFSET $SG223013
	push	1
	push	esi
	call	_lua_getfield
	push	-1
	push	esi
	call	_lua_type
	add	esp, 20					; 00000014H
	cmp	eax, 2
	jne	SHORT $LN7@BasicLuaMe@34
	push	-1
	push	esi
	call	_lua_touserdata
	mov	edi, eax
	add	esp, 8
	test	edi, edi
	je	SHORT $LN7@BasicLuaMe@34
	xor	bl, bl
$LN7@BasicLuaMe@34:
	push	ebp
	push	esi
	call	_lua_settop
	add	esp, 8
	test	bl, bl
	je	SHORT $LN14@BasicLuaMe@34
	push	OFFSET $SG223019
	push	esi
	call	_luaL_error
	push	OFFSET $SG223027
	push	esi
	call	_luaL_error
	add	esp, 16					; 00000010H
$LN14@BasicLuaMe@34:

; 262  : 	(pkType->*func)(CvLuaArgs::toValue<arg1>(L, idx), CvLuaArgs::toValue<arg2>(L, idx + 1), CvLuaArgs::toValue<arg3>(L, idx + 2), CvLuaArgs::toValue<arg4>(L, idx + 3));

	push	5
	push	esi
	call	_lua_toboolean
	test	eax, eax
	setne	al
	push	4
	push	esi
	mov	BYTE PTR $T225603[esp+44], al
	call	_lua_toboolean
	test	eax, eax
	setne	cl
	push	3
	push	esi
	mov	BYTE PTR $T225607[esp+52], cl
	call	_lua_toboolean
	mov	ecx, DWORD PTR $T225607[esp+52]
	add	esp, 24					; 00000018H
	test	eax, eax
	mov	eax, DWORD PTR $T225603[esp+28]
	setne	dl
	push	eax
	mov	BYTE PTR $T225611[esp+32], dl
	mov	edx, DWORD PTR $T225611[esp+32]
	push	ecx
	push	edx
	push	2
	push	esi
	call	_lua_tointeger
	add	esp, 8
	push	eax
	mov	ecx, edi
	call	DWORD PTR _func$[esp+40]
	pop	edi
	pop	esi
	pop	ebp

; 263  : 	return 0;

	xor	eax, eax
	pop	ebx

; 264  : }

	add	esp, 12					; 0000000cH
	ret	0
??$BasicLuaMethod@W4PlotTypes@@_N_N_N@?$CvLuaMethodWrapper@VCvLuaPlot@@VCvPlot@@@@KAHPAUlua_State@@P8CvPlot@@AEXW4PlotTypes@@_N22@Z@Z ENDP ; CvLuaMethodWrapper<CvLuaPlot,CvPlot>::BasicLuaMethod<enum PlotTypes,bool,bool,bool>
_TEXT	ENDS
PUBLIC	??$BasicLuaMethod@W4ResourceTypes@@W4TeamTypes@@@?$CvLuaMethodWrapper@VCvLuaPlot@@VCvPlot@@@@KAHPAUlua_State@@P8CvPlot@@BE?AW4ResourceTypes@@W4TeamTypes@@@Z@Z ; CvLuaMethodWrapper<CvLuaPlot,CvPlot>::BasicLuaMethod<enum ResourceTypes,enum TeamTypes>
; Function compile flags: /Ogtpy
;	COMDAT ??$BasicLuaMethod@W4ResourceTypes@@W4TeamTypes@@@?$CvLuaMethodWrapper@VCvLuaPlot@@VCvPlot@@@@KAHPAUlua_State@@P8CvPlot@@BE?AW4ResourceTypes@@W4TeamTypes@@@Z@Z
_TEXT	SEGMENT
_L$ = 8							; size = 4
_func$ = 12						; size = 4
??$BasicLuaMethod@W4ResourceTypes@@W4TeamTypes@@@?$CvLuaMethodWrapper@VCvLuaPlot@@VCvPlot@@@@KAHPAUlua_State@@P8CvPlot@@BE?AW4ResourceTypes@@W4TeamTypes@@@Z@Z PROC ; CvLuaMethodWrapper<CvLuaPlot,CvPlot>::BasicLuaMethod<enum ResourceTypes,enum TeamTypes>, COMDAT

; 78   : {

	push	ebx
	push	ebp
	push	esi

; 79   : 	const int idx = Derived::GetStartingArgIndex();
; 80   : 	InstanceType* pkType = Derived::GetInstance(L);

	mov	esi, DWORD PTR _L$[esp+8]
	push	edi
	push	esi
	call	_lua_gettop
	push	1
	push	esi
	mov	ebp, eax
	mov	bl, 1
	xor	edi, edi
	call	_lua_type
	add	esp, 12					; 0000000cH
	cmp	eax, 5
	jne	SHORT $LN7@BasicLuaMe@35
	push	OFFSET $SG223013
	push	1
	push	esi
	call	_lua_getfield
	push	-1
	push	esi
	call	_lua_type
	add	esp, 20					; 00000014H
	cmp	eax, 2
	jne	SHORT $LN7@BasicLuaMe@35
	push	-1
	push	esi
	call	_lua_touserdata
	mov	edi, eax
	add	esp, 8
	test	edi, edi
	je	SHORT $LN7@BasicLuaMe@35
	xor	bl, bl
$LN7@BasicLuaMe@35:
	push	ebp
	push	esi
	call	_lua_settop
	add	esp, 8
	test	bl, bl
	je	SHORT $LN14@BasicLuaMe@35
	push	OFFSET $SG223019
	push	esi
	call	_luaL_error
	push	OFFSET $SG223027
	push	esi
	call	_luaL_error
	add	esp, 16					; 00000010H
$LN14@BasicLuaMe@35:

; 81   : 	CvLuaArgs::pushValue<ret>(L, (pkType->*func)(CvLuaArgs::toValue<arg1>(L, idx)));

	push	2
	push	esi
	call	_lua_tointeger
	add	esp, 8
	push	eax
	mov	ecx, edi
	call	DWORD PTR _func$[esp+16]
	push	eax
	push	esi
	call	_lua_pushinteger
	add	esp, 8
	pop	edi
	pop	esi
	pop	ebp

; 82   : 
; 83   : 	return 1;

	mov	eax, 1
	pop	ebx

; 84   : }

	ret	0
??$BasicLuaMethod@W4ResourceTypes@@W4TeamTypes@@@?$CvLuaMethodWrapper@VCvLuaPlot@@VCvPlot@@@@KAHPAUlua_State@@P8CvPlot@@BE?AW4ResourceTypes@@W4TeamTypes@@@Z@Z ENDP ; CvLuaMethodWrapper<CvLuaPlot,CvPlot>::BasicLuaMethod<enum ResourceTypes,enum TeamTypes>
_TEXT	ENDS
PUBLIC	??$BasicLuaMethod@W4ResourceTypes@@H_N@?$CvLuaMethodWrapper@VCvLuaPlot@@VCvPlot@@@@KAHPAUlua_State@@P8CvPlot@@AEXW4ResourceTypes@@H_N@Z@Z ; CvLuaMethodWrapper<CvLuaPlot,CvPlot>::BasicLuaMethod<enum ResourceTypes,int,bool>
; Function compile flags: /Ogtpy
;	COMDAT ??$BasicLuaMethod@W4ResourceTypes@@H_N@?$CvLuaMethodWrapper@VCvLuaPlot@@VCvPlot@@@@KAHPAUlua_State@@P8CvPlot@@AEXW4ResourceTypes@@H_N@Z@Z
_TEXT	SEGMENT
$T225684 = -4						; size = 1
_L$ = 8							; size = 4
_func$ = 12						; size = 4
??$BasicLuaMethod@W4ResourceTypes@@H_N@?$CvLuaMethodWrapper@VCvLuaPlot@@VCvPlot@@@@KAHPAUlua_State@@P8CvPlot@@AEXW4ResourceTypes@@H_N@Z@Z PROC ; CvLuaMethodWrapper<CvLuaPlot,CvPlot>::BasicLuaMethod<enum ResourceTypes,int,bool>, COMDAT

; 249  : {

	push	ecx
	push	ebx
	push	ebp
	push	esi

; 250  : 	const int idx = Derived::GetStartingArgIndex();
; 251  : 	InstanceType* pkType = Derived::GetInstance(L);

	mov	esi, DWORD PTR _L$[esp+12]
	push	edi
	push	esi
	call	_lua_gettop
	push	1
	push	esi
	mov	ebp, eax
	mov	bl, 1
	xor	edi, edi
	call	_lua_type
	add	esp, 12					; 0000000cH
	cmp	eax, 5
	jne	SHORT $LN7@BasicLuaMe@36
	push	OFFSET $SG223013
	push	1
	push	esi
	call	_lua_getfield
	push	-1
	push	esi
	call	_lua_type
	add	esp, 20					; 00000014H
	cmp	eax, 2
	jne	SHORT $LN7@BasicLuaMe@36
	push	-1
	push	esi
	call	_lua_touserdata
	mov	edi, eax
	add	esp, 8
	test	edi, edi
	je	SHORT $LN7@BasicLuaMe@36
	xor	bl, bl
$LN7@BasicLuaMe@36:
	push	ebp
	push	esi
	call	_lua_settop
	add	esp, 8
	test	bl, bl
	je	SHORT $LN14@BasicLuaMe@36
	push	OFFSET $SG223019
	push	esi
	call	_luaL_error
	push	OFFSET $SG223027
	push	esi
	call	_luaL_error
	add	esp, 16					; 00000010H
$LN14@BasicLuaMe@36:

; 252  : 	(pkType->*func)(CvLuaArgs::toValue<arg1>(L, idx), CvLuaArgs::toValue<arg2>(L, idx + 1), CvLuaArgs::toValue<arg3>(L, idx + 2));

	push	4
	push	esi
	call	_lua_toboolean
	test	eax, eax
	setne	al
	push	3
	push	esi
	mov	BYTE PTR $T225684[esp+36], al
	call	_lua_tointeger
	mov	ecx, DWORD PTR $T225684[esp+36]
	add	esp, 16					; 00000010H
	push	ecx
	push	eax
	push	2
	push	esi
	call	_lua_tointeger
	add	esp, 8
	push	eax
	mov	ecx, edi
	call	DWORD PTR _func$[esp+28]
	pop	edi
	pop	esi
	pop	ebp

; 253  : 	return 0;

	xor	eax, eax
	pop	ebx

; 254  : }

	pop	ecx
	ret	0
??$BasicLuaMethod@W4ResourceTypes@@H_N@?$CvLuaMethodWrapper@VCvLuaPlot@@VCvPlot@@@@KAHPAUlua_State@@P8CvPlot@@AEXW4ResourceTypes@@H_N@Z@Z ENDP ; CvLuaMethodWrapper<CvLuaPlot,CvPlot>::BasicLuaMethod<enum ResourceTypes,int,bool>
_TEXT	ENDS
PUBLIC	??$BasicLuaMethod@W4ImprovementTypes@@@?$CvLuaMethodWrapper@VCvLuaPlot@@VCvPlot@@@@KAHPAUlua_State@@P8CvPlot@@BE?AW4ImprovementTypes@@XZ@Z ; CvLuaMethodWrapper<CvLuaPlot,CvPlot>::BasicLuaMethod<enum ImprovementTypes>
; Function compile flags: /Ogtpy
;	COMDAT ??$BasicLuaMethod@W4ImprovementTypes@@@?$CvLuaMethodWrapper@VCvLuaPlot@@VCvPlot@@@@KAHPAUlua_State@@P8CvPlot@@BE?AW4ImprovementTypes@@XZ@Z
_TEXT	SEGMENT
_L$ = 8							; size = 4
_func$ = 12						; size = 4
??$BasicLuaMethod@W4ImprovementTypes@@@?$CvLuaMethodWrapper@VCvLuaPlot@@VCvPlot@@@@KAHPAUlua_State@@P8CvPlot@@BE?AW4ImprovementTypes@@XZ@Z PROC ; CvLuaMethodWrapper<CvLuaPlot,CvPlot>::BasicLuaMethod<enum ImprovementTypes>, COMDAT

; 69   : {

	push	ebx
	push	ebp
	push	esi

; 70   : 	InstanceType* pkType = Derived::GetInstance(L);

	mov	esi, DWORD PTR _L$[esp+8]
	push	edi
	push	esi
	call	_lua_gettop
	push	1
	push	esi
	mov	ebp, eax
	mov	bl, 1
	xor	edi, edi
	call	_lua_type
	add	esp, 12					; 0000000cH
	cmp	eax, 5
	jne	SHORT $LN5@BasicLuaMe@37
	push	OFFSET $SG223013
	push	1
	push	esi
	call	_lua_getfield
	push	-1
	push	esi
	call	_lua_type
	add	esp, 20					; 00000014H
	cmp	eax, 2
	jne	SHORT $LN5@BasicLuaMe@37
	push	-1
	push	esi
	call	_lua_touserdata
	mov	edi, eax
	add	esp, 8
	test	edi, edi
	je	SHORT $LN5@BasicLuaMe@37
	xor	bl, bl
$LN5@BasicLuaMe@37:
	push	ebp
	push	esi
	call	_lua_settop
	add	esp, 8
	test	bl, bl
	je	SHORT $LN12@BasicLuaMe@37
	push	OFFSET $SG223019
	push	esi
	call	_luaL_error
	push	OFFSET $SG223027
	push	esi
	call	_luaL_error
	add	esp, 16					; 00000010H
$LN12@BasicLuaMe@37:

; 71   : 	CvLuaArgs::pushValue<ret>(L, (pkType->*func)());

	mov	ecx, edi
	call	DWORD PTR _func$[esp+12]
	push	eax
	push	esi
	call	_lua_pushinteger
	add	esp, 8
	pop	edi
	pop	esi
	pop	ebp

; 72   : 
; 73   : 	return 1;

	mov	eax, 1
	pop	ebx

; 74   : }

	ret	0
??$BasicLuaMethod@W4ImprovementTypes@@@?$CvLuaMethodWrapper@VCvLuaPlot@@VCvPlot@@@@KAHPAUlua_State@@P8CvPlot@@BE?AW4ImprovementTypes@@XZ@Z ENDP ; CvLuaMethodWrapper<CvLuaPlot,CvPlot>::BasicLuaMethod<enum ImprovementTypes>
_TEXT	ENDS
PUBLIC	??$BasicLuaMethod@W4ImprovementTypes@@W4PlayerTypes@@@?$CvLuaMethodWrapper@VCvLuaPlot@@VCvPlot@@@@KAHPAUlua_State@@P8CvPlot@@AEXW4ImprovementTypes@@W4PlayerTypes@@@Z@Z ; CvLuaMethodWrapper<CvLuaPlot,CvPlot>::BasicLuaMethod<enum ImprovementTypes,enum PlayerTypes>
; Function compile flags: /Ogtpy
;	COMDAT ??$BasicLuaMethod@W4ImprovementTypes@@W4PlayerTypes@@@?$CvLuaMethodWrapper@VCvLuaPlot@@VCvPlot@@@@KAHPAUlua_State@@P8CvPlot@@AEXW4ImprovementTypes@@W4PlayerTypes@@@Z@Z
_TEXT	SEGMENT
_L$ = 8							; size = 4
_func$ = 12						; size = 4
??$BasicLuaMethod@W4ImprovementTypes@@W4PlayerTypes@@@?$CvLuaMethodWrapper@VCvLuaPlot@@VCvPlot@@@@KAHPAUlua_State@@P8CvPlot@@AEXW4ImprovementTypes@@W4PlayerTypes@@@Z@Z PROC ; CvLuaMethodWrapper<CvLuaPlot,CvPlot>::BasicLuaMethod<enum ImprovementTypes,enum PlayerTypes>, COMDAT

; 239  : {

	push	ebx
	push	ebp
	push	esi

; 240  : 	const int idx = Derived::GetStartingArgIndex();
; 241  : 	InstanceType* pkType = Derived::GetInstance(L);

	mov	esi, DWORD PTR _L$[esp+8]
	push	edi
	push	esi
	call	_lua_gettop
	push	1
	push	esi
	mov	ebp, eax
	mov	bl, 1
	xor	edi, edi
	call	_lua_type
	add	esp, 12					; 0000000cH
	cmp	eax, 5
	jne	SHORT $LN7@BasicLuaMe@38
	push	OFFSET $SG223013
	push	1
	push	esi
	call	_lua_getfield
	push	-1
	push	esi
	call	_lua_type
	add	esp, 20					; 00000014H
	cmp	eax, 2
	jne	SHORT $LN7@BasicLuaMe@38
	push	-1
	push	esi
	call	_lua_touserdata
	mov	edi, eax
	add	esp, 8
	test	edi, edi
	je	SHORT $LN7@BasicLuaMe@38
	xor	bl, bl
$LN7@BasicLuaMe@38:
	push	ebp
	push	esi
	call	_lua_settop
	add	esp, 8
	test	bl, bl
	je	SHORT $LN14@BasicLuaMe@38
	push	OFFSET $SG223019
	push	esi
	call	_luaL_error
	push	OFFSET $SG223027
	push	esi
	call	_luaL_error
	add	esp, 16					; 00000010H
$LN14@BasicLuaMe@38:

; 242  : 	(pkType->*func)(CvLuaArgs::toValue<arg1>(L, idx), CvLuaArgs::toValue<arg2>(L, idx + 1));

	push	3
	push	esi
	call	_lua_tointeger
	add	esp, 8
	push	eax
	push	2
	push	esi
	call	_lua_tointeger
	add	esp, 8
	push	eax
	mov	ecx, edi
	call	DWORD PTR _func$[esp+20]
	pop	edi
	pop	esi
	pop	ebp

; 243  : 	return 0;

	xor	eax, eax
	pop	ebx

; 244  : }

	ret	0
??$BasicLuaMethod@W4ImprovementTypes@@W4PlayerTypes@@@?$CvLuaMethodWrapper@VCvLuaPlot@@VCvPlot@@@@KAHPAUlua_State@@P8CvPlot@@AEXW4ImprovementTypes@@W4PlayerTypes@@@Z@Z ENDP ; CvLuaMethodWrapper<CvLuaPlot,CvPlot>::BasicLuaMethod<enum ImprovementTypes,enum PlayerTypes>
_TEXT	ENDS
PUBLIC	??$BasicLuaMethod@W4RouteTypes@@@?$CvLuaMethodWrapper@VCvLuaPlot@@VCvPlot@@@@KAHPAUlua_State@@P8CvPlot@@BE?AW4RouteTypes@@XZ@Z ; CvLuaMethodWrapper<CvLuaPlot,CvPlot>::BasicLuaMethod<enum RouteTypes>
; Function compile flags: /Ogtpy
;	COMDAT ??$BasicLuaMethod@W4RouteTypes@@@?$CvLuaMethodWrapper@VCvLuaPlot@@VCvPlot@@@@KAHPAUlua_State@@P8CvPlot@@BE?AW4RouteTypes@@XZ@Z
_TEXT	SEGMENT
_L$ = 8							; size = 4
_func$ = 12						; size = 4
??$BasicLuaMethod@W4RouteTypes@@@?$CvLuaMethodWrapper@VCvLuaPlot@@VCvPlot@@@@KAHPAUlua_State@@P8CvPlot@@BE?AW4RouteTypes@@XZ@Z PROC ; CvLuaMethodWrapper<CvLuaPlot,CvPlot>::BasicLuaMethod<enum RouteTypes>, COMDAT

; 69   : {

	push	ebx
	push	ebp
	push	esi

; 70   : 	InstanceType* pkType = Derived::GetInstance(L);

	mov	esi, DWORD PTR _L$[esp+8]
	push	edi
	push	esi
	call	_lua_gettop
	push	1
	push	esi
	mov	ebp, eax
	mov	bl, 1
	xor	edi, edi
	call	_lua_type
	add	esp, 12					; 0000000cH
	cmp	eax, 5
	jne	SHORT $LN5@BasicLuaMe@39
	push	OFFSET $SG223013
	push	1
	push	esi
	call	_lua_getfield
	push	-1
	push	esi
	call	_lua_type
	add	esp, 20					; 00000014H
	cmp	eax, 2
	jne	SHORT $LN5@BasicLuaMe@39
	push	-1
	push	esi
	call	_lua_touserdata
	mov	edi, eax
	add	esp, 8
	test	edi, edi
	je	SHORT $LN5@BasicLuaMe@39
	xor	bl, bl
$LN5@BasicLuaMe@39:
	push	ebp
	push	esi
	call	_lua_settop
	add	esp, 8
	test	bl, bl
	je	SHORT $LN12@BasicLuaMe@39
	push	OFFSET $SG223019
	push	esi
	call	_luaL_error
	push	OFFSET $SG223027
	push	esi
	call	_luaL_error
	add	esp, 16					; 00000010H
$LN12@BasicLuaMe@39:

; 71   : 	CvLuaArgs::pushValue<ret>(L, (pkType->*func)());

	mov	ecx, edi
	call	DWORD PTR _func$[esp+12]
	push	eax
	push	esi
	call	_lua_pushinteger
	add	esp, 8
	pop	edi
	pop	esi
	pop	ebp

; 72   : 
; 73   : 	return 1;

	mov	eax, 1
	pop	ebx

; 74   : }

	ret	0
??$BasicLuaMethod@W4RouteTypes@@@?$CvLuaMethodWrapper@VCvLuaPlot@@VCvPlot@@@@KAHPAUlua_State@@P8CvPlot@@BE?AW4RouteTypes@@XZ@Z ENDP ; CvLuaMethodWrapper<CvLuaPlot,CvPlot>::BasicLuaMethod<enum RouteTypes>
_TEXT	ENDS
PUBLIC	??$BasicLuaMethod@W4RouteTypes@@@?$CvLuaMethodWrapper@VCvLuaPlot@@VCvPlot@@@@KAHPAUlua_State@@P8CvPlot@@AEXW4RouteTypes@@@Z@Z ; CvLuaMethodWrapper<CvLuaPlot,CvPlot>::BasicLuaMethod<enum RouteTypes>
; Function compile flags: /Ogtpy
;	COMDAT ??$BasicLuaMethod@W4RouteTypes@@@?$CvLuaMethodWrapper@VCvLuaPlot@@VCvPlot@@@@KAHPAUlua_State@@P8CvPlot@@AEXW4RouteTypes@@@Z@Z
_TEXT	SEGMENT
_L$ = 8							; size = 4
_func$ = 12						; size = 4
??$BasicLuaMethod@W4RouteTypes@@@?$CvLuaMethodWrapper@VCvLuaPlot@@VCvPlot@@@@KAHPAUlua_State@@P8CvPlot@@AEXW4RouteTypes@@@Z@Z PROC ; CvLuaMethodWrapper<CvLuaPlot,CvPlot>::BasicLuaMethod<enum RouteTypes>, COMDAT

; 230  : {

	push	ebx
	push	ebp
	push	esi

; 231  : 	const int idx = Derived::GetStartingArgIndex();
; 232  : 	InstanceType* pkType = Derived::GetInstance(L);

	mov	esi, DWORD PTR _L$[esp+8]
	push	edi
	push	esi
	call	_lua_gettop
	push	1
	push	esi
	mov	ebp, eax
	mov	bl, 1
	xor	edi, edi
	call	_lua_type
	add	esp, 12					; 0000000cH
	cmp	eax, 5
	jne	SHORT $LN7@BasicLuaMe@40
	push	OFFSET $SG223013
	push	1
	push	esi
	call	_lua_getfield
	push	-1
	push	esi
	call	_lua_type
	add	esp, 20					; 00000014H
	cmp	eax, 2
	jne	SHORT $LN7@BasicLuaMe@40
	push	-1
	push	esi
	call	_lua_touserdata
	mov	edi, eax
	add	esp, 8
	test	edi, edi
	je	SHORT $LN7@BasicLuaMe@40
	xor	bl, bl
$LN7@BasicLuaMe@40:
	push	ebp
	push	esi
	call	_lua_settop
	add	esp, 8
	test	bl, bl
	je	SHORT $LN14@BasicLuaMe@40
	push	OFFSET $SG223019
	push	esi
	call	_luaL_error
	push	OFFSET $SG223027
	push	esi
	call	_luaL_error
	add	esp, 16					; 00000010H
$LN14@BasicLuaMe@40:

; 233  : 	(pkType->*func)(CvLuaArgs::toValue<arg1>(L, idx));

	push	2
	push	esi
	call	_lua_tointeger
	add	esp, 8
	push	eax
	mov	ecx, edi
	call	DWORD PTR _func$[esp+16]
	pop	edi
	pop	esi
	pop	ebp

; 234  : 	return 0;

	xor	eax, eax
	pop	ebx

; 235  : }

	ret	0
??$BasicLuaMethod@W4RouteTypes@@@?$CvLuaMethodWrapper@VCvLuaPlot@@VCvPlot@@@@KAHPAUlua_State@@P8CvPlot@@AEXW4RouteTypes@@@Z@Z ENDP ; CvLuaMethodWrapper<CvLuaPlot,CvPlot>::BasicLuaMethod<enum RouteTypes>
_TEXT	ENDS
PUBLIC	??$BasicLuaMethod@HW4YieldTypes@@W4TeamTypes@@_N@?$CvLuaMethodWrapper@VCvLuaPlot@@VCvPlot@@@@KAHPAUlua_State@@P8CvPlot@@BEHW4YieldTypes@@W4TeamTypes@@_N@Z@Z ; CvLuaMethodWrapper<CvLuaPlot,CvPlot>::BasicLuaMethod<int,enum YieldTypes,enum TeamTypes,bool>
; Function compile flags: /Ogtpy
;	COMDAT ??$BasicLuaMethod@HW4YieldTypes@@W4TeamTypes@@_N@?$CvLuaMethodWrapper@VCvLuaPlot@@VCvPlot@@@@KAHPAUlua_State@@P8CvPlot@@BEHW4YieldTypes@@W4TeamTypes@@_N@Z@Z
_TEXT	SEGMENT
$T225852 = -4						; size = 1
_L$ = 8							; size = 4
_func$ = 12						; size = 4
??$BasicLuaMethod@HW4YieldTypes@@W4TeamTypes@@_N@?$CvLuaMethodWrapper@VCvLuaPlot@@VCvPlot@@@@KAHPAUlua_State@@P8CvPlot@@BEHW4YieldTypes@@W4TeamTypes@@_N@Z@Z PROC ; CvLuaMethodWrapper<CvLuaPlot,CvPlot>::BasicLuaMethod<int,enum YieldTypes,enum TeamTypes,bool>, COMDAT

; 98   : {

	push	ecx
	push	ebx
	push	ebp
	push	esi

; 99   : 	const int idx = Derived::GetStartingArgIndex();
; 100  : 	InstanceType* pkType = Derived::GetInstance(L);

	mov	esi, DWORD PTR _L$[esp+12]
	push	edi
	push	esi
	call	_lua_gettop
	push	1
	push	esi
	mov	ebp, eax
	mov	bl, 1
	xor	edi, edi
	call	_lua_type
	add	esp, 12					; 0000000cH
	cmp	eax, 5
	jne	SHORT $LN7@BasicLuaMe@41
	push	OFFSET $SG223013
	push	1
	push	esi
	call	_lua_getfield
	push	-1
	push	esi
	call	_lua_type
	add	esp, 20					; 00000014H
	cmp	eax, 2
	jne	SHORT $LN7@BasicLuaMe@41
	push	-1
	push	esi
	call	_lua_touserdata
	mov	edi, eax
	add	esp, 8
	test	edi, edi
	je	SHORT $LN7@BasicLuaMe@41
	xor	bl, bl
$LN7@BasicLuaMe@41:
	push	ebp
	push	esi
	call	_lua_settop
	add	esp, 8
	test	bl, bl
	je	SHORT $LN14@BasicLuaMe@41
	push	OFFSET $SG223019
	push	esi
	call	_luaL_error
	push	OFFSET $SG223027
	push	esi
	call	_luaL_error
	add	esp, 16					; 00000010H
$LN14@BasicLuaMe@41:

; 101  : 	CvLuaArgs::pushValue<ret>(L, (pkType->*func)(CvLuaArgs::toValue<arg1>(L, idx), CvLuaArgs::toValue<arg2>(L, idx + 1), CvLuaArgs::toValue<arg3>(L, idx + 2)));

	push	4
	push	esi
	call	_lua_toboolean
	test	eax, eax
	setne	al
	push	3
	push	esi
	mov	BYTE PTR $T225852[esp+36], al
	call	_lua_tointeger
	push	2
	push	esi
	mov	ebx, eax
	call	_lua_tointeger
	mov	ecx, DWORD PTR $T225852[esp+44]
	add	esp, 24					; 00000018H
	push	ecx
	push	ebx
	push	eax
	mov	ecx, edi
	call	DWORD PTR _func$[esp+28]
	push	eax
	push	esi
	call	_lua_pushinteger
	add	esp, 8
	pop	edi
	pop	esi
	pop	ebp

; 102  : 
; 103  : 	return 1;

	mov	eax, 1
	pop	ebx

; 104  : }

	pop	ecx
	ret	0
??$BasicLuaMethod@HW4YieldTypes@@W4TeamTypes@@_N@?$CvLuaMethodWrapper@VCvLuaPlot@@VCvPlot@@@@KAHPAUlua_State@@P8CvPlot@@BEHW4YieldTypes@@W4TeamTypes@@_N@Z@Z ENDP ; CvLuaMethodWrapper<CvLuaPlot,CvPlot>::BasicLuaMethod<int,enum YieldTypes,enum TeamTypes,bool>
_TEXT	ENDS
PUBLIC	??$BasicLuaMethod@HW4YieldTypes@@W4TeamTypes@@@?$CvLuaMethodWrapper@VCvLuaPlot@@VCvPlot@@@@KAHPAUlua_State@@P8CvPlot@@BEHW4YieldTypes@@W4TeamTypes@@@Z@Z ; CvLuaMethodWrapper<CvLuaPlot,CvPlot>::BasicLuaMethod<int,enum YieldTypes,enum TeamTypes>
; Function compile flags: /Ogtpy
;	COMDAT ??$BasicLuaMethod@HW4YieldTypes@@W4TeamTypes@@@?$CvLuaMethodWrapper@VCvLuaPlot@@VCvPlot@@@@KAHPAUlua_State@@P8CvPlot@@BEHW4YieldTypes@@W4TeamTypes@@@Z@Z
_TEXT	SEGMENT
_L$ = 8							; size = 4
_func$ = 12						; size = 4
??$BasicLuaMethod@HW4YieldTypes@@W4TeamTypes@@@?$CvLuaMethodWrapper@VCvLuaPlot@@VCvPlot@@@@KAHPAUlua_State@@P8CvPlot@@BEHW4YieldTypes@@W4TeamTypes@@@Z@Z PROC ; CvLuaMethodWrapper<CvLuaPlot,CvPlot>::BasicLuaMethod<int,enum YieldTypes,enum TeamTypes>, COMDAT

; 88   : {

	push	ebx
	push	ebp
	push	esi

; 89   : 	const int idx = Derived::GetStartingArgIndex();
; 90   : 	InstanceType* pkType = Derived::GetInstance(L);

	mov	esi, DWORD PTR _L$[esp+8]
	push	edi
	push	esi
	call	_lua_gettop
	push	1
	push	esi
	mov	ebp, eax
	mov	bl, 1
	xor	edi, edi
	call	_lua_type
	add	esp, 12					; 0000000cH
	cmp	eax, 5
	jne	SHORT $LN7@BasicLuaMe@42
	push	OFFSET $SG223013
	push	1
	push	esi
	call	_lua_getfield
	push	-1
	push	esi
	call	_lua_type
	add	esp, 20					; 00000014H
	cmp	eax, 2
	jne	SHORT $LN7@BasicLuaMe@42
	push	-1
	push	esi
	call	_lua_touserdata
	mov	edi, eax
	add	esp, 8
	test	edi, edi
	je	SHORT $LN7@BasicLuaMe@42
	xor	bl, bl
$LN7@BasicLuaMe@42:
	push	ebp
	push	esi
	call	_lua_settop
	add	esp, 8
	test	bl, bl
	je	SHORT $LN14@BasicLuaMe@42
	push	OFFSET $SG223019
	push	esi
	call	_luaL_error
	push	OFFSET $SG223027
	push	esi
	call	_luaL_error
	add	esp, 16					; 00000010H
$LN14@BasicLuaMe@42:

; 91   : 	CvLuaArgs::pushValue<ret>(L, (pkType->*func)(CvLuaArgs::toValue<arg1>(L, idx), CvLuaArgs::toValue<arg2>(L, idx + 1)));

	push	3
	push	esi
	call	_lua_tointeger
	push	2
	push	esi
	mov	ebx, eax
	call	_lua_tointeger
	add	esp, 16					; 00000010H
	push	ebx
	push	eax
	mov	ecx, edi
	call	DWORD PTR _func$[esp+20]
	push	eax
	push	esi
	call	_lua_pushinteger
	add	esp, 8
	pop	edi
	pop	esi
	pop	ebp

; 92   : 
; 93   : 	return 1;

	mov	eax, 1
	pop	ebx

; 94   : }

	ret	0
??$BasicLuaMethod@HW4YieldTypes@@W4TeamTypes@@@?$CvLuaMethodWrapper@VCvLuaPlot@@VCvPlot@@@@KAHPAUlua_State@@P8CvPlot@@BEHW4YieldTypes@@W4TeamTypes@@@Z@Z ENDP ; CvLuaMethodWrapper<CvLuaPlot,CvPlot>::BasicLuaMethod<int,enum YieldTypes,enum TeamTypes>
_TEXT	ENDS
PUBLIC	??$BasicLuaMethod@HW4YieldTypes@@_N@?$CvLuaMethodWrapper@VCvLuaPlot@@VCvPlot@@@@KAHPAUlua_State@@P8CvPlot@@AEHW4YieldTypes@@_N@Z@Z ; CvLuaMethodWrapper<CvLuaPlot,CvPlot>::BasicLuaMethod<int,enum YieldTypes,bool>
; Function compile flags: /Ogtpy
;	COMDAT ??$BasicLuaMethod@HW4YieldTypes@@_N@?$CvLuaMethodWrapper@VCvLuaPlot@@VCvPlot@@@@KAHPAUlua_State@@P8CvPlot@@AEHW4YieldTypes@@_N@Z@Z
_TEXT	SEGMENT
$T225938 = -4						; size = 1
_L$ = 8							; size = 4
_func$ = 12						; size = 4
??$BasicLuaMethod@HW4YieldTypes@@_N@?$CvLuaMethodWrapper@VCvLuaPlot@@VCvPlot@@@@KAHPAUlua_State@@P8CvPlot@@AEHW4YieldTypes@@_N@Z@Z PROC ; CvLuaMethodWrapper<CvLuaPlot,CvPlot>::BasicLuaMethod<int,enum YieldTypes,bool>, COMDAT

; 140  : {

	push	ecx
	push	ebx
	push	ebp
	push	esi

; 141  : 	const int idx = Derived::GetStartingArgIndex();
; 142  : 	InstanceType* pkType = Derived::GetInstance(L);

	mov	esi, DWORD PTR _L$[esp+12]
	push	edi
	push	esi
	call	_lua_gettop
	push	1
	push	esi
	mov	ebp, eax
	mov	bl, 1
	xor	edi, edi
	call	_lua_type
	add	esp, 12					; 0000000cH
	cmp	eax, 5
	jne	SHORT $LN7@BasicLuaMe@43
	push	OFFSET $SG223013
	push	1
	push	esi
	call	_lua_getfield
	push	-1
	push	esi
	call	_lua_type
	add	esp, 20					; 00000014H
	cmp	eax, 2
	jne	SHORT $LN7@BasicLuaMe@43
	push	-1
	push	esi
	call	_lua_touserdata
	mov	edi, eax
	add	esp, 8
	test	edi, edi
	je	SHORT $LN7@BasicLuaMe@43
	xor	bl, bl
$LN7@BasicLuaMe@43:
	push	ebp
	push	esi
	call	_lua_settop
	add	esp, 8
	test	bl, bl
	je	SHORT $LN14@BasicLuaMe@43
	push	OFFSET $SG223019
	push	esi
	call	_luaL_error
	push	OFFSET $SG223027
	push	esi
	call	_luaL_error
	add	esp, 16					; 00000010H
$LN14@BasicLuaMe@43:

; 143  : 	CvLuaArgs::pushValue<ret>(L, (pkType->*func)(CvLuaArgs::toValue<arg1>(L, idx), CvLuaArgs::toValue<arg2>(L, idx + 1)));

	push	3
	push	esi
	call	_lua_toboolean
	test	eax, eax
	setne	al
	push	2
	push	esi
	mov	BYTE PTR $T225938[esp+36], al
	call	_lua_tointeger
	mov	ecx, DWORD PTR $T225938[esp+36]
	add	esp, 16					; 00000010H
	push	ecx
	push	eax
	mov	ecx, edi
	call	DWORD PTR _func$[esp+24]
	push	eax
	push	esi
	call	_lua_pushinteger
	add	esp, 8
	pop	edi
	pop	esi
	pop	ebp

; 144  : 
; 145  : 	return 1;

	mov	eax, 1
	pop	ebx

; 146  : }

	pop	ecx
	ret	0
??$BasicLuaMethod@HW4YieldTypes@@_N@?$CvLuaMethodWrapper@VCvLuaPlot@@VCvPlot@@@@KAHPAUlua_State@@P8CvPlot@@AEHW4YieldTypes@@_N@Z@Z ENDP ; CvLuaMethodWrapper<CvLuaPlot,CvPlot>::BasicLuaMethod<int,enum YieldTypes,bool>
_TEXT	ENDS
PUBLIC	??$BasicLuaMethod@HW4BuildTypes@@W4YieldTypes@@_NW4PlayerTypes@@@?$CvLuaMethodWrapper@VCvLuaPlot@@VCvPlot@@@@KAHPAUlua_State@@P8CvPlot@@BEHW4BuildTypes@@W4YieldTypes@@_NW4PlayerTypes@@@Z@Z ; CvLuaMethodWrapper<CvLuaPlot,CvPlot>::BasicLuaMethod<int,enum BuildTypes,enum YieldTypes,bool,enum PlayerTypes>
; Function compile flags: /Ogtpy
;	COMDAT ??$BasicLuaMethod@HW4BuildTypes@@W4YieldTypes@@_NW4PlayerTypes@@@?$CvLuaMethodWrapper@VCvLuaPlot@@VCvPlot@@@@KAHPAUlua_State@@P8CvPlot@@BEHW4BuildTypes@@W4YieldTypes@@_NW4PlayerTypes@@@Z@Z
_TEXT	SEGMENT
$T225983 = -4						; size = 1
_L$ = 8							; size = 4
_func$ = 12						; size = 4
??$BasicLuaMethod@HW4BuildTypes@@W4YieldTypes@@_NW4PlayerTypes@@@?$CvLuaMethodWrapper@VCvLuaPlot@@VCvPlot@@@@KAHPAUlua_State@@P8CvPlot@@BEHW4BuildTypes@@W4YieldTypes@@_NW4PlayerTypes@@@Z@Z PROC ; CvLuaMethodWrapper<CvLuaPlot,CvPlot>::BasicLuaMethod<int,enum BuildTypes,enum YieldTypes,bool,enum PlayerTypes>, COMDAT

; 108  : {

	push	ecx
	push	ebx
	push	ebp
	push	esi

; 109  : 	const int idx = Derived::GetStartingArgIndex();
; 110  : 	InstanceType* pkType = Derived::GetInstance(L);

	mov	esi, DWORD PTR _L$[esp+12]
	push	edi
	push	esi
	call	_lua_gettop
	push	1
	push	esi
	mov	ebp, eax
	mov	bl, 1
	xor	edi, edi
	call	_lua_type
	add	esp, 12					; 0000000cH
	cmp	eax, 5
	jne	SHORT $LN7@BasicLuaMe@44
	push	OFFSET $SG223013
	push	1
	push	esi
	call	_lua_getfield
	push	-1
	push	esi
	call	_lua_type
	add	esp, 20					; 00000014H
	cmp	eax, 2
	jne	SHORT $LN7@BasicLuaMe@44
	push	-1
	push	esi
	call	_lua_touserdata
	mov	edi, eax
	add	esp, 8
	test	edi, edi
	je	SHORT $LN7@BasicLuaMe@44
	xor	bl, bl
$LN7@BasicLuaMe@44:
	push	ebp
	push	esi
	call	_lua_settop
	add	esp, 8
	test	bl, bl
	je	SHORT $LN14@BasicLuaMe@44
	push	OFFSET $SG223019
	push	esi
	call	_luaL_error
	push	OFFSET $SG223027
	push	esi
	call	_luaL_error
	add	esp, 16					; 00000010H
$LN14@BasicLuaMe@44:

; 111  : 	CvLuaArgs::pushValue<ret>(L, (pkType->*func)(CvLuaArgs::toValue<arg1>(L, idx), CvLuaArgs::toValue<arg2>(L, idx + 1), CvLuaArgs::toValue<arg3>(L, idx + 2), CvLuaArgs::toValue<arg4>(L, idx + 3)));

	push	5
	push	esi
	call	_lua_tointeger
	push	4
	push	esi
	mov	ebx, eax
	call	_lua_toboolean
	test	eax, eax
	setne	al
	push	3
	push	esi
	mov	BYTE PTR $T225983[esp+44], al
	call	_lua_tointeger
	push	2
	push	esi
	mov	ebp, eax
	call	_lua_tointeger
	mov	ecx, DWORD PTR $T225983[esp+52]
	add	esp, 32					; 00000020H
	push	ebx
	push	ecx
	push	ebp
	push	eax
	mov	ecx, edi
	call	DWORD PTR _func$[esp+32]
	push	eax
	push	esi
	call	_lua_pushinteger
	add	esp, 8
	pop	edi
	pop	esi
	pop	ebp

; 112  : 
; 113  : 	return 1;

	mov	eax, 1
	pop	ebx

; 114  : }

	pop	ecx
	ret	0
??$BasicLuaMethod@HW4BuildTypes@@W4YieldTypes@@_NW4PlayerTypes@@@?$CvLuaMethodWrapper@VCvLuaPlot@@VCvPlot@@@@KAHPAUlua_State@@P8CvPlot@@BEHW4BuildTypes@@W4YieldTypes@@_NW4PlayerTypes@@@Z@Z ENDP ; CvLuaMethodWrapper<CvLuaPlot,CvPlot>::BasicLuaMethod<int,enum BuildTypes,enum YieldTypes,bool,enum PlayerTypes>
_TEXT	ENDS
PUBLIC	??$BasicLuaMethod@HW4PlayerTypes@@@?$CvLuaMethodWrapper@VCvLuaPlot@@VCvPlot@@@@KAHPAUlua_State@@P8CvPlot@@AEHW4PlayerTypes@@@Z@Z ; CvLuaMethodWrapper<CvLuaPlot,CvPlot>::BasicLuaMethod<int,enum PlayerTypes>
; Function compile flags: /Ogtpy
;	COMDAT ??$BasicLuaMethod@HW4PlayerTypes@@@?$CvLuaMethodWrapper@VCvLuaPlot@@VCvPlot@@@@KAHPAUlua_State@@P8CvPlot@@AEHW4PlayerTypes@@@Z@Z
_TEXT	SEGMENT
_L$ = 8							; size = 4
_func$ = 12						; size = 4
??$BasicLuaMethod@HW4PlayerTypes@@@?$CvLuaMethodWrapper@VCvLuaPlot@@VCvPlot@@@@KAHPAUlua_State@@P8CvPlot@@AEHW4PlayerTypes@@@Z@Z PROC ; CvLuaMethodWrapper<CvLuaPlot,CvPlot>::BasicLuaMethod<int,enum PlayerTypes>, COMDAT

; 130  : {

	push	ebx
	push	ebp
	push	esi

; 131  : 	const int idx = Derived::GetStartingArgIndex();
; 132  : 	InstanceType* pkType = Derived::GetInstance(L);

	mov	esi, DWORD PTR _L$[esp+8]
	push	edi
	push	esi
	call	_lua_gettop
	push	1
	push	esi
	mov	ebp, eax
	mov	bl, 1
	xor	edi, edi
	call	_lua_type
	add	esp, 12					; 0000000cH
	cmp	eax, 5
	jne	SHORT $LN7@BasicLuaMe@45
	push	OFFSET $SG223013
	push	1
	push	esi
	call	_lua_getfield
	push	-1
	push	esi
	call	_lua_type
	add	esp, 20					; 00000014H
	cmp	eax, 2
	jne	SHORT $LN7@BasicLuaMe@45
	push	-1
	push	esi
	call	_lua_touserdata
	mov	edi, eax
	add	esp, 8
	test	edi, edi
	je	SHORT $LN7@BasicLuaMe@45
	xor	bl, bl
$LN7@BasicLuaMe@45:
	push	ebp
	push	esi
	call	_lua_settop
	add	esp, 8
	test	bl, bl
	je	SHORT $LN14@BasicLuaMe@45
	push	OFFSET $SG223019
	push	esi
	call	_luaL_error
	push	OFFSET $SG223027
	push	esi
	call	_luaL_error
	add	esp, 16					; 00000010H
$LN14@BasicLuaMe@45:

; 133  : 	CvLuaArgs::pushValue<ret>(L, (pkType->*func)(CvLuaArgs::toValue<arg1>(L, idx)));

	push	2
	push	esi
	call	_lua_tointeger
	add	esp, 8
	push	eax
	mov	ecx, edi
	call	DWORD PTR _func$[esp+16]
	push	eax
	push	esi
	call	_lua_pushinteger
	add	esp, 8
	pop	edi
	pop	esi
	pop	ebp

; 134  : 
; 135  : 	return 1;

	mov	eax, 1
	pop	ebx

; 136  : }

	ret	0
??$BasicLuaMethod@HW4PlayerTypes@@@?$CvLuaMethodWrapper@VCvLuaPlot@@VCvPlot@@@@KAHPAUlua_State@@P8CvPlot@@AEHW4PlayerTypes@@@Z@Z ENDP ; CvLuaMethodWrapper<CvLuaPlot,CvPlot>::BasicLuaMethod<int,enum PlayerTypes>
_TEXT	ENDS
PUBLIC	??$BasicLuaMethod@_NW4PlayerTypes@@@?$CvLuaMethodWrapper@VCvLuaPlot@@VCvPlot@@@@KAHPAUlua_State@@P8CvPlot@@AE_NW4PlayerTypes@@@Z@Z ; CvLuaMethodWrapper<CvLuaPlot,CvPlot>::BasicLuaMethod<bool,enum PlayerTypes>
; Function compile flags: /Ogtpy
;	COMDAT ??$BasicLuaMethod@_NW4PlayerTypes@@@?$CvLuaMethodWrapper@VCvLuaPlot@@VCvPlot@@@@KAHPAUlua_State@@P8CvPlot@@AE_NW4PlayerTypes@@@Z@Z
_TEXT	SEGMENT
_L$ = 8							; size = 4
_func$ = 12						; size = 4
??$BasicLuaMethod@_NW4PlayerTypes@@@?$CvLuaMethodWrapper@VCvLuaPlot@@VCvPlot@@@@KAHPAUlua_State@@P8CvPlot@@AE_NW4PlayerTypes@@@Z@Z PROC ; CvLuaMethodWrapper<CvLuaPlot,CvPlot>::BasicLuaMethod<bool,enum PlayerTypes>, COMDAT

; 130  : {

	push	ebx
	push	ebp
	push	esi

; 131  : 	const int idx = Derived::GetStartingArgIndex();
; 132  : 	InstanceType* pkType = Derived::GetInstance(L);

	mov	esi, DWORD PTR _L$[esp+8]
	push	edi
	push	esi
	call	_lua_gettop
	push	1
	push	esi
	mov	ebp, eax
	mov	bl, 1
	xor	edi, edi
	call	_lua_type
	add	esp, 12					; 0000000cH
	cmp	eax, 5
	jne	SHORT $LN7@BasicLuaMe@46
	push	OFFSET $SG223013
	push	1
	push	esi
	call	_lua_getfield
	push	-1
	push	esi
	call	_lua_type
	add	esp, 20					; 00000014H
	cmp	eax, 2
	jne	SHORT $LN7@BasicLuaMe@46
	push	-1
	push	esi
	call	_lua_touserdata
	mov	edi, eax
	add	esp, 8
	test	edi, edi
	je	SHORT $LN7@BasicLuaMe@46
	xor	bl, bl
$LN7@BasicLuaMe@46:
	push	ebp
	push	esi
	call	_lua_settop
	add	esp, 8
	test	bl, bl
	je	SHORT $LN14@BasicLuaMe@46
	push	OFFSET $SG223019
	push	esi
	call	_luaL_error
	push	OFFSET $SG223027
	push	esi
	call	_luaL_error
	add	esp, 16					; 00000010H
$LN14@BasicLuaMe@46:

; 133  : 	CvLuaArgs::pushValue<ret>(L, (pkType->*func)(CvLuaArgs::toValue<arg1>(L, idx)));

	push	2
	push	esi
	call	_lua_tointeger
	add	esp, 8
	push	eax
	mov	ecx, edi
	call	DWORD PTR _func$[esp+16]
	movzx	eax, al
	push	eax
	push	esi
	call	_lua_pushboolean
	add	esp, 8
	pop	edi
	pop	esi
	pop	ebp

; 134  : 
; 135  : 	return 1;

	mov	eax, 1
	pop	ebx

; 136  : }

	ret	0
??$BasicLuaMethod@_NW4PlayerTypes@@@?$CvLuaMethodWrapper@VCvLuaPlot@@VCvPlot@@@@KAHPAUlua_State@@P8CvPlot@@AE_NW4PlayerTypes@@@Z@Z ENDP ; CvLuaMethodWrapper<CvLuaPlot,CvPlot>::BasicLuaMethod<bool,enum PlayerTypes>
_TEXT	ENDS
PUBLIC	??$BasicLuaMethod@HW4BuildTypes@@@?$CvLuaMethodWrapper@VCvLuaPlot@@VCvPlot@@@@KAHPAUlua_State@@P8CvPlot@@BEHW4BuildTypes@@@Z@Z ; CvLuaMethodWrapper<CvLuaPlot,CvPlot>::BasicLuaMethod<int,enum BuildTypes>
; Function compile flags: /Ogtpy
;	COMDAT ??$BasicLuaMethod@HW4BuildTypes@@@?$CvLuaMethodWrapper@VCvLuaPlot@@VCvPlot@@@@KAHPAUlua_State@@P8CvPlot@@BEHW4BuildTypes@@@Z@Z
_TEXT	SEGMENT
_L$ = 8							; size = 4
_func$ = 12						; size = 4
??$BasicLuaMethod@HW4BuildTypes@@@?$CvLuaMethodWrapper@VCvLuaPlot@@VCvPlot@@@@KAHPAUlua_State@@P8CvPlot@@BEHW4BuildTypes@@@Z@Z PROC ; CvLuaMethodWrapper<CvLuaPlot,CvPlot>::BasicLuaMethod<int,enum BuildTypes>, COMDAT

; 78   : {

	push	ebx
	push	ebp
	push	esi

; 79   : 	const int idx = Derived::GetStartingArgIndex();
; 80   : 	InstanceType* pkType = Derived::GetInstance(L);

	mov	esi, DWORD PTR _L$[esp+8]
	push	edi
	push	esi
	call	_lua_gettop
	push	1
	push	esi
	mov	ebp, eax
	mov	bl, 1
	xor	edi, edi
	call	_lua_type
	add	esp, 12					; 0000000cH
	cmp	eax, 5
	jne	SHORT $LN7@BasicLuaMe@47
	push	OFFSET $SG223013
	push	1
	push	esi
	call	_lua_getfield
	push	-1
	push	esi
	call	_lua_type
	add	esp, 20					; 00000014H
	cmp	eax, 2
	jne	SHORT $LN7@BasicLuaMe@47
	push	-1
	push	esi
	call	_lua_touserdata
	mov	edi, eax
	add	esp, 8
	test	edi, edi
	je	SHORT $LN7@BasicLuaMe@47
	xor	bl, bl
$LN7@BasicLuaMe@47:
	push	ebp
	push	esi
	call	_lua_settop
	add	esp, 8
	test	bl, bl
	je	SHORT $LN14@BasicLuaMe@47
	push	OFFSET $SG223019
	push	esi
	call	_luaL_error
	push	OFFSET $SG223027
	push	esi
	call	_luaL_error
	add	esp, 16					; 00000010H
$LN14@BasicLuaMe@47:

; 81   : 	CvLuaArgs::pushValue<ret>(L, (pkType->*func)(CvLuaArgs::toValue<arg1>(L, idx)));

	push	2
	push	esi
	call	_lua_tointeger
	add	esp, 8
	push	eax
	mov	ecx, edi
	call	DWORD PTR _func$[esp+16]
	push	eax
	push	esi
	call	_lua_pushinteger
	add	esp, 8
	pop	edi
	pop	esi
	pop	ebp

; 82   : 
; 83   : 	return 1;

	mov	eax, 1
	pop	ebx

; 84   : }

	ret	0
??$BasicLuaMethod@HW4BuildTypes@@@?$CvLuaMethodWrapper@VCvLuaPlot@@VCvPlot@@@@KAHPAUlua_State@@P8CvPlot@@BEHW4BuildTypes@@@Z@Z ENDP ; CvLuaMethodWrapper<CvLuaPlot,CvPlot>::BasicLuaMethod<int,enum BuildTypes>
_TEXT	ENDS
PUBLIC	??$BasicLuaMethod@_NW4BuildTypes@@HW4PlayerTypes@@@?$CvLuaMethodWrapper@VCvLuaPlot@@VCvPlot@@@@KAHPAUlua_State@@P8CvPlot@@AE_NW4BuildTypes@@HW4PlayerTypes@@@Z@Z ; CvLuaMethodWrapper<CvLuaPlot,CvPlot>::BasicLuaMethod<bool,enum BuildTypes,int,enum PlayerTypes>
; Function compile flags: /Ogtpy
;	COMDAT ??$BasicLuaMethod@_NW4BuildTypes@@HW4PlayerTypes@@@?$CvLuaMethodWrapper@VCvLuaPlot@@VCvPlot@@@@KAHPAUlua_State@@P8CvPlot@@AE_NW4BuildTypes@@HW4PlayerTypes@@@Z@Z
_TEXT	SEGMENT
_L$ = 8							; size = 4
_func$ = 12						; size = 4
??$BasicLuaMethod@_NW4BuildTypes@@HW4PlayerTypes@@@?$CvLuaMethodWrapper@VCvLuaPlot@@VCvPlot@@@@KAHPAUlua_State@@P8CvPlot@@AE_NW4BuildTypes@@HW4PlayerTypes@@@Z@Z PROC ; CvLuaMethodWrapper<CvLuaPlot,CvPlot>::BasicLuaMethod<bool,enum BuildTypes,int,enum PlayerTypes>, COMDAT

; 150  : {

	push	ebx
	push	ebp
	push	esi

; 151  : 	const int idx = Derived::GetStartingArgIndex();
; 152  : 	InstanceType* pkType = Derived::GetInstance(L);

	mov	esi, DWORD PTR _L$[esp+8]
	push	edi
	push	esi
	call	_lua_gettop
	push	1
	push	esi
	mov	ebp, eax
	mov	bl, 1
	xor	edi, edi
	call	_lua_type
	add	esp, 12					; 0000000cH
	cmp	eax, 5
	jne	SHORT $LN7@BasicLuaMe@48
	push	OFFSET $SG223013
	push	1
	push	esi
	call	_lua_getfield
	push	-1
	push	esi
	call	_lua_type
	add	esp, 20					; 00000014H
	cmp	eax, 2
	jne	SHORT $LN7@BasicLuaMe@48
	push	-1
	push	esi
	call	_lua_touserdata
	mov	edi, eax
	add	esp, 8
	test	edi, edi
	je	SHORT $LN7@BasicLuaMe@48
	xor	bl, bl
$LN7@BasicLuaMe@48:
	push	ebp
	push	esi
	call	_lua_settop
	add	esp, 8
	test	bl, bl
	je	SHORT $LN14@BasicLuaMe@48
	push	OFFSET $SG223019
	push	esi
	call	_luaL_error
	push	OFFSET $SG223027
	push	esi
	call	_luaL_error
	add	esp, 16					; 00000010H
$LN14@BasicLuaMe@48:

; 153  : 	CvLuaArgs::pushValue<ret>(L, (pkType->*func)(CvLuaArgs::toValue<arg1>(L, idx), CvLuaArgs::toValue<arg2>(L, idx + 1), CvLuaArgs::toValue<arg3>(L, idx + 2)));

	push	4
	push	esi
	call	_lua_tointeger
	push	3
	push	esi
	mov	ebx, eax
	call	_lua_tointeger
	push	2
	push	esi
	mov	ebp, eax
	call	_lua_tointeger
	add	esp, 24					; 00000018H
	push	ebx
	push	ebp
	push	eax
	mov	ecx, edi
	call	DWORD PTR _func$[esp+24]
	movzx	eax, al
	push	eax
	push	esi
	call	_lua_pushboolean
	add	esp, 8
	pop	edi
	pop	esi
	pop	ebp

; 154  : 
; 155  : 	return 1;

	mov	eax, 1
	pop	ebx

; 156  : }

	ret	0
??$BasicLuaMethod@_NW4BuildTypes@@HW4PlayerTypes@@@?$CvLuaMethodWrapper@VCvLuaPlot@@VCvPlot@@@@KAHPAUlua_State@@P8CvPlot@@AE_NW4BuildTypes@@HW4PlayerTypes@@@Z@Z ENDP ; CvLuaMethodWrapper<CvLuaPlot,CvPlot>::BasicLuaMethod<bool,enum BuildTypes,int,enum PlayerTypes>
_TEXT	ENDS
PUBLIC	??$BasicLuaMethod@HW4TeamTypes@@W4InvisibleTypes@@@?$CvLuaMethodWrapper@VCvLuaPlot@@VCvPlot@@@@KAHPAUlua_State@@P8CvPlot@@BEHW4TeamTypes@@W4InvisibleTypes@@@Z@Z ; CvLuaMethodWrapper<CvLuaPlot,CvPlot>::BasicLuaMethod<int,enum TeamTypes,enum InvisibleTypes>
; Function compile flags: /Ogtpy
;	COMDAT ??$BasicLuaMethod@HW4TeamTypes@@W4InvisibleTypes@@@?$CvLuaMethodWrapper@VCvLuaPlot@@VCvPlot@@@@KAHPAUlua_State@@P8CvPlot@@BEHW4TeamTypes@@W4InvisibleTypes@@@Z@Z
_TEXT	SEGMENT
_L$ = 8							; size = 4
_func$ = 12						; size = 4
??$BasicLuaMethod@HW4TeamTypes@@W4InvisibleTypes@@@?$CvLuaMethodWrapper@VCvLuaPlot@@VCvPlot@@@@KAHPAUlua_State@@P8CvPlot@@BEHW4TeamTypes@@W4InvisibleTypes@@@Z@Z PROC ; CvLuaMethodWrapper<CvLuaPlot,CvPlot>::BasicLuaMethod<int,enum TeamTypes,enum InvisibleTypes>, COMDAT

; 88   : {

	push	ebx
	push	ebp
	push	esi

; 89   : 	const int idx = Derived::GetStartingArgIndex();
; 90   : 	InstanceType* pkType = Derived::GetInstance(L);

	mov	esi, DWORD PTR _L$[esp+8]
	push	edi
	push	esi
	call	_lua_gettop
	push	1
	push	esi
	mov	ebp, eax
	mov	bl, 1
	xor	edi, edi
	call	_lua_type
	add	esp, 12					; 0000000cH
	cmp	eax, 5
	jne	SHORT $LN7@BasicLuaMe@49
	push	OFFSET $SG223013
	push	1
	push	esi
	call	_lua_getfield
	push	-1
	push	esi
	call	_lua_type
	add	esp, 20					; 00000014H
	cmp	eax, 2
	jne	SHORT $LN7@BasicLuaMe@49
	push	-1
	push	esi
	call	_lua_touserdata
	mov	edi, eax
	add	esp, 8
	test	edi, edi
	je	SHORT $LN7@BasicLuaMe@49
	xor	bl, bl
$LN7@BasicLuaMe@49:
	push	ebp
	push	esi
	call	_lua_settop
	add	esp, 8
	test	bl, bl
	je	SHORT $LN14@BasicLuaMe@49
	push	OFFSET $SG223019
	push	esi
	call	_luaL_error
	push	OFFSET $SG223027
	push	esi
	call	_luaL_error
	add	esp, 16					; 00000010H
$LN14@BasicLuaMe@49:

; 91   : 	CvLuaArgs::pushValue<ret>(L, (pkType->*func)(CvLuaArgs::toValue<arg1>(L, idx), CvLuaArgs::toValue<arg2>(L, idx + 1)));

	push	3
	push	esi
	call	_lua_tointeger
	push	2
	push	esi
	mov	ebx, eax
	call	_lua_tointeger
	add	esp, 16					; 00000010H
	push	ebx
	push	eax
	mov	ecx, edi
	call	DWORD PTR _func$[esp+20]
	push	eax
	push	esi
	call	_lua_pushinteger
	add	esp, 8
	pop	edi
	pop	esi
	pop	ebp

; 92   : 
; 93   : 	return 1;

	mov	eax, 1
	pop	ebx

; 94   : }

	ret	0
??$BasicLuaMethod@HW4TeamTypes@@W4InvisibleTypes@@@?$CvLuaMethodWrapper@VCvLuaPlot@@VCvPlot@@@@KAHPAUlua_State@@P8CvPlot@@BEHW4TeamTypes@@W4InvisibleTypes@@@Z@Z ENDP ; CvLuaMethodWrapper<CvLuaPlot,CvPlot>::BasicLuaMethod<int,enum TeamTypes,enum InvisibleTypes>
_TEXT	ENDS
PUBLIC	??$BasicLuaMethod@_NW4TeamTypes@@W4InvisibleTypes@@@?$CvLuaMethodWrapper@VCvLuaPlot@@VCvPlot@@@@KAHPAUlua_State@@P8CvPlot@@BE_NW4TeamTypes@@W4InvisibleTypes@@@Z@Z ; CvLuaMethodWrapper<CvLuaPlot,CvPlot>::BasicLuaMethod<bool,enum TeamTypes,enum InvisibleTypes>
; Function compile flags: /Ogtpy
;	COMDAT ??$BasicLuaMethod@_NW4TeamTypes@@W4InvisibleTypes@@@?$CvLuaMethodWrapper@VCvLuaPlot@@VCvPlot@@@@KAHPAUlua_State@@P8CvPlot@@BE_NW4TeamTypes@@W4InvisibleTypes@@@Z@Z
_TEXT	SEGMENT
_L$ = 8							; size = 4
_func$ = 12						; size = 4
??$BasicLuaMethod@_NW4TeamTypes@@W4InvisibleTypes@@@?$CvLuaMethodWrapper@VCvLuaPlot@@VCvPlot@@@@KAHPAUlua_State@@P8CvPlot@@BE_NW4TeamTypes@@W4InvisibleTypes@@@Z@Z PROC ; CvLuaMethodWrapper<CvLuaPlot,CvPlot>::BasicLuaMethod<bool,enum TeamTypes,enum InvisibleTypes>, COMDAT

; 88   : {

	push	ebx
	push	ebp
	push	esi

; 89   : 	const int idx = Derived::GetStartingArgIndex();
; 90   : 	InstanceType* pkType = Derived::GetInstance(L);

	mov	esi, DWORD PTR _L$[esp+8]
	push	edi
	push	esi
	call	_lua_gettop
	push	1
	push	esi
	mov	ebp, eax
	mov	bl, 1
	xor	edi, edi
	call	_lua_type
	add	esp, 12					; 0000000cH
	cmp	eax, 5
	jne	SHORT $LN7@BasicLuaMe@50
	push	OFFSET $SG223013
	push	1
	push	esi
	call	_lua_getfield
	push	-1
	push	esi
	call	_lua_type
	add	esp, 20					; 00000014H
	cmp	eax, 2
	jne	SHORT $LN7@BasicLuaMe@50
	push	-1
	push	esi
	call	_lua_touserdata
	mov	edi, eax
	add	esp, 8
	test	edi, edi
	je	SHORT $LN7@BasicLuaMe@50
	xor	bl, bl
$LN7@BasicLuaMe@50:
	push	ebp
	push	esi
	call	_lua_settop
	add	esp, 8
	test	bl, bl
	je	SHORT $LN14@BasicLuaMe@50
	push	OFFSET $SG223019
	push	esi
	call	_luaL_error
	push	OFFSET $SG223027
	push	esi
	call	_luaL_error
	add	esp, 16					; 00000010H
$LN14@BasicLuaMe@50:

; 91   : 	CvLuaArgs::pushValue<ret>(L, (pkType->*func)(CvLuaArgs::toValue<arg1>(L, idx), CvLuaArgs::toValue<arg2>(L, idx + 1)));

	push	3
	push	esi
	call	_lua_tointeger
	push	2
	push	esi
	mov	ebx, eax
	call	_lua_tointeger
	add	esp, 16					; 00000010H
	push	ebx
	push	eax
	mov	ecx, edi
	call	DWORD PTR _func$[esp+20]
	movzx	eax, al
	push	eax
	push	esi
	call	_lua_pushboolean
	add	esp, 8
	pop	edi
	pop	esi
	pop	ebp

; 92   : 
; 93   : 	return 1;

	mov	eax, 1
	pop	ebx

; 94   : }

	ret	0
??$BasicLuaMethod@_NW4TeamTypes@@W4InvisibleTypes@@@?$CvLuaMethodWrapper@VCvLuaPlot@@VCvPlot@@@@KAHPAUlua_State@@P8CvPlot@@BE_NW4TeamTypes@@W4InvisibleTypes@@@Z@Z ENDP ; CvLuaMethodWrapper<CvLuaPlot,CvPlot>::BasicLuaMethod<bool,enum TeamTypes,enum InvisibleTypes>
_TEXT	ENDS
PUBLIC	??$BasicLuaMethod@W4TeamTypes@@W4InvisibleTypes@@H@?$CvLuaMethodWrapper@VCvLuaPlot@@VCvPlot@@@@KAHPAUlua_State@@P8CvPlot@@AEXW4TeamTypes@@W4InvisibleTypes@@H@Z@Z ; CvLuaMethodWrapper<CvLuaPlot,CvPlot>::BasicLuaMethod<enum TeamTypes,enum InvisibleTypes,int>
; Function compile flags: /Ogtpy
;	COMDAT ??$BasicLuaMethod@W4TeamTypes@@W4InvisibleTypes@@H@?$CvLuaMethodWrapper@VCvLuaPlot@@VCvPlot@@@@KAHPAUlua_State@@P8CvPlot@@AEXW4TeamTypes@@W4InvisibleTypes@@H@Z@Z
_TEXT	SEGMENT
_L$ = 8							; size = 4
_func$ = 12						; size = 4
??$BasicLuaMethod@W4TeamTypes@@W4InvisibleTypes@@H@?$CvLuaMethodWrapper@VCvLuaPlot@@VCvPlot@@@@KAHPAUlua_State@@P8CvPlot@@AEXW4TeamTypes@@W4InvisibleTypes@@H@Z@Z PROC ; CvLuaMethodWrapper<CvLuaPlot,CvPlot>::BasicLuaMethod<enum TeamTypes,enum InvisibleTypes,int>, COMDAT

; 249  : {

	push	ebx
	push	ebp
	push	esi

; 250  : 	const int idx = Derived::GetStartingArgIndex();
; 251  : 	InstanceType* pkType = Derived::GetInstance(L);

	mov	esi, DWORD PTR _L$[esp+8]
	push	edi
	push	esi
	call	_lua_gettop
	push	1
	push	esi
	mov	ebp, eax
	mov	bl, 1
	xor	edi, edi
	call	_lua_type
	add	esp, 12					; 0000000cH
	cmp	eax, 5
	jne	SHORT $LN7@BasicLuaMe@51
	push	OFFSET $SG223013
	push	1
	push	esi
	call	_lua_getfield
	push	-1
	push	esi
	call	_lua_type
	add	esp, 20					; 00000014H
	cmp	eax, 2
	jne	SHORT $LN7@BasicLuaMe@51
	push	-1
	push	esi
	call	_lua_touserdata
	mov	edi, eax
	add	esp, 8
	test	edi, edi
	je	SHORT $LN7@BasicLuaMe@51
	xor	bl, bl
$LN7@BasicLuaMe@51:
	push	ebp
	push	esi
	call	_lua_settop
	add	esp, 8
	test	bl, bl
	je	SHORT $LN14@BasicLuaMe@51
	push	OFFSET $SG223019
	push	esi
	call	_luaL_error
	push	OFFSET $SG223027
	push	esi
	call	_luaL_error
	add	esp, 16					; 00000010H
$LN14@BasicLuaMe@51:

; 252  : 	(pkType->*func)(CvLuaArgs::toValue<arg1>(L, idx), CvLuaArgs::toValue<arg2>(L, idx + 1), CvLuaArgs::toValue<arg3>(L, idx + 2));

	push	4
	push	esi
	call	_lua_tointeger
	push	3
	push	esi
	mov	ebx, eax
	call	_lua_tointeger
	add	esp, 16					; 00000010H
	push	ebx
	push	eax
	push	2
	push	esi
	call	_lua_tointeger
	add	esp, 8
	push	eax
	mov	ecx, edi
	call	DWORD PTR _func$[esp+24]
	pop	edi
	pop	esi
	pop	ebp

; 253  : 	return 0;

	xor	eax, eax
	pop	ebx

; 254  : }

	ret	0
??$BasicLuaMethod@W4TeamTypes@@W4InvisibleTypes@@H@?$CvLuaMethodWrapper@VCvLuaPlot@@VCvPlot@@@@KAHPAUlua_State@@P8CvPlot@@AEXW4TeamTypes@@W4InvisibleTypes@@H@Z@Z ENDP ; CvLuaMethodWrapper<CvLuaPlot,CvPlot>::BasicLuaMethod<enum TeamTypes,enum InvisibleTypes,int>
_TEXT	ENDS
PUBLIC	??$BasicLuaMethod@H@?$CvLuaMethodWrapper@VCvLuaPlot@@VCvPlot@@@@KAHPAUlua_State@@P8CvPlot@@AEHXZ@Z ; CvLuaMethodWrapper<CvLuaPlot,CvPlot>::BasicLuaMethod<int>
; Function compile flags: /Ogtpy
;	COMDAT ??$BasicLuaMethod@H@?$CvLuaMethodWrapper@VCvLuaPlot@@VCvPlot@@@@KAHPAUlua_State@@P8CvPlot@@AEHXZ@Z
_TEXT	SEGMENT
_L$ = 8							; size = 4
_func$ = 12						; size = 4
??$BasicLuaMethod@H@?$CvLuaMethodWrapper@VCvLuaPlot@@VCvPlot@@@@KAHPAUlua_State@@P8CvPlot@@AEHXZ@Z PROC ; CvLuaMethodWrapper<CvLuaPlot,CvPlot>::BasicLuaMethod<int>, COMDAT

; 121  : {

	push	ebx
	push	ebp
	push	esi

; 122  : 	InstanceType* pkType = Derived::GetInstance(L);

	mov	esi, DWORD PTR _L$[esp+8]
	push	edi
	push	esi
	call	_lua_gettop
	push	1
	push	esi
	mov	ebp, eax
	mov	bl, 1
	xor	edi, edi
	call	_lua_type
	add	esp, 12					; 0000000cH
	cmp	eax, 5
	jne	SHORT $LN5@BasicLuaMe@52
	push	OFFSET $SG223013
	push	1
	push	esi
	call	_lua_getfield
	push	-1
	push	esi
	call	_lua_type
	add	esp, 20					; 00000014H
	cmp	eax, 2
	jne	SHORT $LN5@BasicLuaMe@52
	push	-1
	push	esi
	call	_lua_touserdata
	mov	edi, eax
	add	esp, 8
	test	edi, edi
	je	SHORT $LN5@BasicLuaMe@52
	xor	bl, bl
$LN5@BasicLuaMe@52:
	push	ebp
	push	esi
	call	_lua_settop
	add	esp, 8
	test	bl, bl
	je	SHORT $LN12@BasicLuaMe@52
	push	OFFSET $SG223019
	push	esi
	call	_luaL_error
	push	OFFSET $SG223027
	push	esi
	call	_luaL_error
	add	esp, 16					; 00000010H
$LN12@BasicLuaMe@52:

; 123  : 	CvLuaArgs::pushValue<ret>(L, (pkType->*func)());

	mov	ecx, edi
	call	DWORD PTR _func$[esp+12]
	push	eax
	push	esi
	call	_lua_pushinteger
	add	esp, 8
	pop	edi
	pop	esi
	pop	ebp

; 124  : 
; 125  : 	return 1;

	mov	eax, 1
	pop	ebx

; 126  : }

	ret	0
??$BasicLuaMethod@H@?$CvLuaMethodWrapper@VCvLuaPlot@@VCvPlot@@@@KAHPAUlua_State@@P8CvPlot@@AEHXZ@Z ENDP ; CvLuaMethodWrapper<CvLuaPlot,CvPlot>::BasicLuaMethod<int>
_TEXT	ENDS
EXTRN	?sr_TeamTypes@CvPreGame@@3ABV?$vector@W4TeamTypes@@V?$allocator@W4TeamTypes@@@std@@@std@@B:DWORD ; CvPreGame::sr_TeamTypes
; Function compile flags: /Ogtpy
; File c:\users\enormousapplepie\desktop\lekmod files\lekmod dll versions\v29\lekmod_dll\cvgamecoredll_expansion2\cvpregame.h
;	COMDAT ?teamType@CvPreGame@@YA?AW4TeamTypes@@W4PlayerTypes@@@Z
_TEXT	SEGMENT
?teamType@CvPreGame@@YA?AW4TeamTypes@@W4PlayerTypes@@@Z PROC ; CvPreGame::teamType, COMDAT
; _p$ = eax

; 299  : 	if(p >= 0 && p < MAX_PLAYERS)

	cmp	eax, 63					; 0000003fH
	ja	SHORT $LN1@teamType

; 300  : 		return sr_TeamTypes[p];

	mov	ecx, DWORD PTR ?sr_TeamTypes@CvPreGame@@3ABV?$vector@W4TeamTypes@@V?$allocator@W4TeamTypes@@@std@@@std@@B ; CvPreGame::sr_TeamTypes
	mov	edx, DWORD PTR [ecx+4]
	mov	eax, DWORD PTR [edx+eax*4]

; 302  : }

	ret	0
$LN1@teamType:

; 301  : 	return NO_TEAM;

	or	eax, -1

; 302  : }

	ret	0
?teamType@CvPreGame@@YA?AW4TeamTypes@@W4PlayerTypes@@@Z ENDP ; CvPreGame::teamType
_TEXT	ENDS
PUBLIC	?getTeam@CvPlayer@@SA?AW4TeamTypes@@W4PlayerTypes@@@Z ; CvPlayer::getTeam
; Function compile flags: /Ogtpy
; File c:\users\enormousapplepie\desktop\lekmod files\lekmod dll versions\v29\lekmod_dll\cvgamecoredll_expansion2\cvplayer.h
;	COMDAT ?getTeam@CvPlayer@@SA?AW4TeamTypes@@W4PlayerTypes@@@Z
_TEXT	SEGMENT
_ePlayerID$ = 8						; size = 4
?getTeam@CvPlayer@@SA?AW4TeamTypes@@W4PlayerTypes@@@Z PROC ; CvPlayer::getTeam, COMDAT

; 1173 : 		return CvPreGame::teamType(ePlayerID);

	mov	eax, DWORD PTR _ePlayerID$[esp-4]
	cmp	eax, 63					; 0000003fH
	ja	SHORT $LN3@getTeam
	mov	ecx, DWORD PTR ?sr_TeamTypes@CvPreGame@@3ABV?$vector@W4TeamTypes@@V?$allocator@W4TeamTypes@@@std@@@std@@B ; CvPreGame::sr_TeamTypes
	mov	edx, DWORD PTR [ecx+4]
	mov	eax, DWORD PTR [edx+eax*4]

; 1174 : 	}

	ret	0

; 1173 : 		return CvPreGame::teamType(ePlayerID);

$LN3@getTeam:
	or	eax, -1

; 1174 : 	}

	ret	0
?getTeam@CvPlayer@@SA?AW4TeamTypes@@W4PlayerTypes@@@Z ENDP ; CvPlayer::getTeam
_TEXT	ENDS
PUBLIC	?isVisible@CvPlot@@QBE_NW4TeamTypes@@_N@Z	; CvPlot::isVisible
EXTRN	?isDebugMode@CvGame@@QBE_NXZ:PROC		; CvGame::isDebugMode
; Function compile flags: /Ogtpy
; File c:\users\enormousapplepie\desktop\lekmod files\lekmod dll versions\v29\lekmod_dll\cvgamecoredll_expansion2\cvplot.h
;	COMDAT ?isVisible@CvPlot@@QBE_NW4TeamTypes@@_N@Z
_TEXT	SEGMENT
_eTeam$ = 8						; size = 4
_bDebug$ = 12						; size = 1
?isVisible@CvPlot@@QBE_NW4TeamTypes@@_N@Z PROC		; CvPlot::isVisible, COMDAT
; _this$ = ecx

; 197  : 		if(bDebug && GC.getGame().isDebugMode())

	cmp	BYTE PTR _bDebug$[esp-4], 0
	push	esi
	mov	esi, ecx
	je	SHORT $LN3@isVisible
	mov	ecx, DWORD PTR ?gGlobals@@3VCvGlobals@@A+48
	call	?isDebugMode@CvGame@@QBE_NXZ		; CvGame::isDebugMode
	test	al, al
	je	SHORT $LN3@isVisible

; 198  : 			return true;

	mov	al, 1
	pop	esi

; 205  : 		}
; 206  : 	}

	ret	8
$LN3@isVisible:

; 199  : 		else
; 200  : 		{
; 201  : 			if(eTeam == NO_TEAM)

	mov	eax, DWORD PTR _eTeam$[esp]
	cmp	eax, -1
	jne	SHORT $LN1@isVisible

; 202  : 				return false;

	xor	al, al
	pop	esi

; 205  : 		}
; 206  : 	}

	ret	8
$LN1@isVisible:

; 203  : 
; 204  : 			return ((getVisibilityCount(eTeam) > 0));

	mov	ecx, DWORD PTR [esi+156]
	xor	edx, edx
	cmp	WORD PTR [ecx+eax*2], dx
	pop	esi
	setg	dl
	mov	al, dl

; 205  : 		}
; 206  : 	}

	ret	8
?isVisible@CvPlot@@QBE_NW4TeamTypes@@_N@Z ENDP		; CvPlot::isVisible
_TEXT	ENDS
PUBLIC	?getTeam@CvPlot@@QBE?AW4TeamTypes@@XZ		; CvPlot::getTeam
; Function compile flags: /Ogtpy
;	COMDAT ?getTeam@CvPlot@@QBE?AW4TeamTypes@@XZ
_TEXT	SEGMENT
?getTeam@CvPlot@@QBE?AW4TeamTypes@@XZ PROC		; CvPlot::getTeam, COMDAT
; _this$ = ecx

; 232  : 		PlayerTypes playerID = getOwner();

	movsx	eax, BYTE PTR [ecx+4]

; 233  : 		if(playerID != NO_PLAYER)

	cmp	eax, -1
	je	SHORT $LN2@getTeam@2

; 234  : 		{
; 235  : 			return CvPlayer::getTeam(playerID);

	cmp	eax, 63					; 0000003fH
	ja	SHORT $LN2@getTeam@2
	mov	ecx, DWORD PTR ?sr_TeamTypes@CvPreGame@@3ABV?$vector@W4TeamTypes@@V?$allocator@W4TeamTypes@@@std@@@std@@B ; CvPreGame::sr_TeamTypes
	mov	edx, DWORD PTR [ecx+4]
	mov	eax, DWORD PTR [edx+eax*4]

; 240  : 		}
; 241  : 	}

	ret	0
$LN2@getTeam@2:

; 236  : 		}
; 237  : 		else
; 238  : 		{
; 239  : 			return NO_TEAM;

	or	eax, -1

; 240  : 		}
; 241  : 	}

	ret	0
?getTeam@CvPlot@@QBE?AW4TeamTypes@@XZ ENDP		; CvPlot::getTeam
_TEXT	ENDS
PUBLIC	?isEnemyCity@CvPlot@@QBE_NABVCvUnit@@@Z		; CvPlot::isEnemyCity
EXTRN	?isEnemy@CvUnit@@QBE_NW4TeamTypes@@PBVCvPlot@@@Z:PROC ; CvUnit::isEnemy
EXTRN	?getTeam@CvCity@@QBE?AW4TeamTypes@@XZ:PROC	; CvCity::getTeam
; Function compile flags: /Ogtpy
;	COMDAT ?isEnemyCity@CvPlot@@QBE_NABVCvUnit@@@Z
_TEXT	SEGMENT
_kUnit$ = 8						; size = 4
?isEnemyCity@CvPlot@@QBE_NABVCvUnit@@@Z PROC		; CvPlot::isEnemyCity, COMDAT
; _this$ = ecx

; 252  : 	{

	push	esi
	mov	esi, ecx

; 253  : 		CvCity* pCity = getPlotCity();

	mov	eax, DWORD PTR [esi+104]
	test	eax, eax
	jl	SHORT $LN1@isEnemyCit
	cmp	eax, 64					; 00000040H
	jge	SHORT $LN1@isEnemyCit
	mov	ecx, DWORD PTR [esi+108]
	imul	eax, 63236				; 0000f704H
	add	eax, DWORD PTR ?m_aPlayers@CvPlayerAI@@1PAV1@A ; CvPlayerAI::m_aPlayers
	push	ecx
	mov	ecx, eax
	call	?getCity@CvPlayer@@QAEPAVCvCity@@H@Z	; CvPlayer::getCity

; 254  : 		if(pCity != NULL)

	test	eax, eax
	je	SHORT $LN1@isEnemyCit

; 255  : 			return kUnit.isEnemy(pCity->getTeam(), this);

	push	esi
	mov	ecx, eax
	call	?getTeam@CvCity@@QBE?AW4TeamTypes@@XZ	; CvCity::getTeam
	mov	ecx, DWORD PTR _kUnit$[esp+4]
	push	eax
	call	?isEnemy@CvUnit@@QBE_NW4TeamTypes@@PBVCvPlot@@@Z ; CvUnit::isEnemy
	pop	esi

; 258  : 	}

	ret	4
$LN1@isEnemyCit:

; 256  : 
; 257  : 		return false;

	xor	al, al
	pop	esi

; 258  : 	}

	ret	4
?isEnemyCity@CvPlot@@QBE_NABVCvUnit@@@Z ENDP		; CvPlot::isEnemyCity
_TEXT	ENDS
PUBLIC	?getFeatureType@CvPlot@@QBE?AW4FeatureTypes@@XZ	; CvPlot::getFeatureType
; Function compile flags: /Ogtpy
;	COMDAT ?getFeatureType@CvPlot@@QBE?AW4FeatureTypes@@XZ
_TEXT	SEGMENT
?getFeatureType@CvPlot@@QBE?AW4FeatureTypes@@XZ PROC	; CvPlot::getFeatureType, COMDAT
; _this$ = ecx

; 435  : #ifdef AUI_WARNING_FIXES
; 436  : 		int f = m_eFeatureType;
; 437  : #else
; 438  : 		char f = m_eFeatureType;
; 439  : #endif
; 440  : 		return (FeatureTypes)f;

	movsx	eax, BYTE PTR [ecx+432]

; 441  : 	}

	ret	0
?getFeatureType@CvPlot@@QBE?AW4FeatureTypes@@XZ ENDP	; CvPlot::getFeatureType
_TEXT	ENDS
PUBLIC	?isRevealed@CvPlot@@QBE_NW4TeamTypes@@_N@Z	; CvPlot::isRevealed
; Function compile flags: /Ogtpy
;	COMDAT ?isRevealed@CvPlot@@QBE_NW4TeamTypes@@_N@Z
_TEXT	SEGMENT
_eTeam$ = 8						; size = 4
_bDebug$ = 12						; size = 1
?isRevealed@CvPlot@@QBE_NW4TeamTypes@@_N@Z PROC		; CvPlot::isRevealed, COMDAT
; _this$ = ecx

; 612  : 		if(bDebug && GC.getGame().isDebugMode())

	cmp	BYTE PTR _bDebug$[esp-4], 0
	push	esi
	mov	esi, ecx
	je	SHORT $LN1@isRevealed
	mov	ecx, DWORD PTR ?gGlobals@@3VCvGlobals@@A+48
	call	?isDebugMode@CvGame@@QBE_NXZ		; CvGame::isDebugMode
	test	al, al
	je	SHORT $LN1@isRevealed

; 613  : 			return true;

	mov	al, 1
	pop	esi

; 617  : 	}

	ret	8
$LN1@isRevealed:

; 614  : 		CvAssertMsg(eTeam >= 0, "eTeam is expected to be non-negative (invalid Index)");
; 615  : 		CvAssertMsg(eTeam < MAX_TEAMS, "eTeam is expected to be within maximum bounds (invalid Index)");
; 616  : 		return m_bfRevealed.GetBit(eTeam);

	mov	ecx, DWORD PTR _eTeam$[esp]
	mov	eax, ecx
	shr	eax, 5
	mov	edx, eax
	shl	edx, 5
	sub	ecx, edx
	mov	edx, 1
	shl	edx, cl
	test	edx, DWORD PTR [esi+eax*4+8]
	pop	esi
	setne	al

; 617  : 	}

	ret	8
?isRevealed@CvPlot@@QBE_NW4TeamTypes@@_N@Z ENDP		; CvPlot::isRevealed
_TEXT	ENDS
PUBLIC	?isRevealed@CvPlot@@QBE_NW4TeamTypes@@@Z	; CvPlot::isRevealed
; Function compile flags: /Ogtpy
;	COMDAT ?isRevealed@CvPlot@@QBE_NW4TeamTypes@@@Z
_TEXT	SEGMENT
_eTeam$ = 8						; size = 4
?isRevealed@CvPlot@@QBE_NW4TeamTypes@@@Z PROC		; CvPlot::isRevealed, COMDAT
; _this$ = ecx

; 620  : 	{

	mov	edx, ecx

; 621  : 		CvAssertMsg(eTeam >= 0, "eTeam is expected to be non-negative (invalid Index)");
; 622  : 		CvAssertMsg(eTeam < MAX_TEAMS, "eTeam is expected to be within maximum bounds (invalid Index)");
; 623  : 		return m_bfRevealed.GetBit(eTeam);

	mov	ecx, DWORD PTR _eTeam$[esp-4]
	push	esi
	mov	eax, ecx
	shr	eax, 5
	mov	esi, eax
	shl	esi, 5
	sub	ecx, esi
	mov	esi, 1
	shl	esi, cl
	test	esi, DWORD PTR [edx+eax*4+8]
	pop	esi
	setne	al

; 624  : 	}

	ret	4
?isRevealed@CvPlot@@QBE_NW4TeamTypes@@@Z ENDP		; CvPlot::isRevealed
_TEXT	ENDS
PUBLIC	?lCanHaveFeature@CvLuaPlot@@KAHPAUlua_State@@@Z	; CvLuaPlot::lCanHaveFeature
EXTRN	?canHaveFeature@CvPlot@@QBE_NW4FeatureTypes@@@Z:PROC ; CvPlot::canHaveFeature
; Function compile flags: /Ogtpy
; File c:\users\enormousapplepie\desktop\lekmod files\lekmod dll versions\v29\lekmod_dll\cvgamecoredll_expansion2\lua\cvluaplot.cpp
;	COMDAT ?lCanHaveFeature@CvLuaPlot@@KAHPAUlua_State@@@Z
_TEXT	SEGMENT
_L$ = 8							; size = 4
?lCanHaveFeature@CvLuaPlot@@KAHPAUlua_State@@@Z PROC	; CvLuaPlot::lCanHaveFeature, COMDAT

; 291  : {

	push	ebx
	push	ebp
	push	esi

; 292  : 	CvPlot* pkPlot = GetInstance(L);

	mov	esi, DWORD PTR _L$[esp+8]
	push	edi
	push	esi
	call	_lua_gettop
	push	1
	push	esi
	mov	ebp, eax
	mov	bl, 1
	xor	edi, edi
	call	_lua_type
	add	esp, 12					; 0000000cH
	cmp	eax, 5
	jne	SHORT $LN5@lCanHaveFe
	push	OFFSET $SG223013
	push	1
	push	esi
	call	_lua_getfield
	push	-1
	push	esi
	call	_lua_type
	add	esp, 20					; 00000014H
	cmp	eax, 2
	jne	SHORT $LN5@lCanHaveFe
	push	-1
	push	esi
	call	_lua_touserdata
	mov	edi, eax
	add	esp, 8
	test	edi, edi
	je	SHORT $LN5@lCanHaveFe
	xor	bl, bl
$LN5@lCanHaveFe:
	push	ebp
	push	esi
	call	_lua_settop
	add	esp, 8
	test	bl, bl
	je	SHORT $LN12@lCanHaveFe
	push	OFFSET $SG223019
	push	esi
	call	_luaL_error
	push	OFFSET $SG223027
	push	esi
	call	_luaL_error
	add	esp, 16					; 00000010H
$LN12@lCanHaveFe:

; 293  : 
; 294  : 	const int featureType = lua_tointeger(L, 2);

	push	2
	push	esi
	call	_lua_tointeger
	add	esp, 8

; 295  : 	const bool canHasFeature = pkPlot->canHaveFeature((FeatureTypes)featureType);

	push	eax
	mov	ecx, edi
	call	?canHaveFeature@CvPlot@@QBE_NW4FeatureTypes@@@Z ; CvPlot::canHaveFeature

; 296  : 
; 297  : 	lua_pushboolean(L, canHasFeature);

	movzx	eax, al
	push	eax
	push	esi
	call	_lua_pushboolean
	add	esp, 8
	pop	edi
	pop	esi
	pop	ebp

; 298  : 
; 299  : 	return 1;

	mov	eax, 1
	pop	ebx

; 300  : }

	ret	0
?lCanHaveFeature@CvLuaPlot@@KAHPAUlua_State@@@Z ENDP	; CvLuaPlot::lCanHaveFeature
_TEXT	ENDS
PUBLIC	?lGetFeatureType@CvLuaPlot@@KAHPAUlua_State@@@Z	; CvLuaPlot::lGetFeatureType
; Function compile flags: /Ogtpy
;	COMDAT ?lGetFeatureType@CvLuaPlot@@KAHPAUlua_State@@@Z
_TEXT	SEGMENT
_L$ = 8							; size = 4
?lGetFeatureType@CvLuaPlot@@KAHPAUlua_State@@@Z PROC	; CvLuaPlot::lGetFeatureType, COMDAT

; 303  : {

	push	ebx
	push	ebp
	push	esi

; 304  : 	CvPlot* pkPlot = GetInstance(L);

	mov	esi, DWORD PTR _L$[esp+8]
	push	edi
	push	esi
	call	_lua_gettop
	push	1
	push	esi
	mov	ebp, eax
	mov	bl, 1
	xor	edi, edi
	call	_lua_type
	add	esp, 12					; 0000000cH
	cmp	eax, 5
	jne	SHORT $LN5@lGetFeatur
	push	OFFSET $SG223013
	push	1
	push	esi
	call	_lua_getfield
	push	-1
	push	esi
	call	_lua_type
	add	esp, 20					; 00000014H
	cmp	eax, 2
	jne	SHORT $LN5@lGetFeatur
	push	-1
	push	esi
	call	_lua_touserdata
	mov	edi, eax
	add	esp, 8
	test	edi, edi
	je	SHORT $LN5@lGetFeatur
	xor	bl, bl
$LN5@lGetFeatur:
	push	ebp
	push	esi
	call	_lua_settop
	add	esp, 8
	test	bl, bl
	je	SHORT $LN12@lGetFeatur
	push	OFFSET $SG223019
	push	esi
	call	_luaL_error
	push	OFFSET $SG223027
	push	esi
	call	_luaL_error
	add	esp, 16					; 00000010H
$LN12@lGetFeatur:

; 305  : 
; 306  : 	const int featureType = (int)pkPlot->getFeatureType();
; 307  : 	lua_pushinteger(L, featureType);

	movsx	eax, BYTE PTR [edi+432]
	push	eax
	push	esi
	call	_lua_pushinteger
	add	esp, 8
	pop	edi
	pop	esi
	pop	ebp

; 308  : 
; 309  : 	return 1;

	mov	eax, 1
	pop	ebx

; 310  : }

	ret	0
?lGetFeatureType@CvLuaPlot@@KAHPAUlua_State@@@Z ENDP	; CvLuaPlot::lGetFeatureType
_TEXT	ENDS
PUBLIC	?lGetTerrainType@CvLuaPlot@@KAHPAUlua_State@@@Z	; CvLuaPlot::lGetTerrainType
; Function compile flags: /Ogtpy
;	COMDAT ?lGetTerrainType@CvLuaPlot@@KAHPAUlua_State@@@Z
_TEXT	SEGMENT
_L$ = 8							; size = 4
?lGetTerrainType@CvLuaPlot@@KAHPAUlua_State@@@Z PROC	; CvLuaPlot::lGetTerrainType, COMDAT

; 313  : {

	push	ebx
	push	ebp
	push	esi

; 314  : 	CvPlot* pkPlot = GetInstance(L);

	mov	esi, DWORD PTR _L$[esp+8]
	push	edi
	push	esi
	call	_lua_gettop
	push	1
	push	esi
	mov	ebp, eax
	mov	bl, 1
	xor	edi, edi
	call	_lua_type
	add	esp, 12					; 0000000cH
	cmp	eax, 5
	jne	SHORT $LN5@lGetTerrai
	push	OFFSET $SG223013
	push	1
	push	esi
	call	_lua_getfield
	push	-1
	push	esi
	call	_lua_type
	add	esp, 20					; 00000014H
	cmp	eax, 2
	jne	SHORT $LN5@lGetTerrai
	push	-1
	push	esi
	call	_lua_touserdata
	mov	edi, eax
	add	esp, 8
	test	edi, edi
	je	SHORT $LN5@lGetTerrai
	xor	bl, bl
$LN5@lGetTerrai:
	push	ebp
	push	esi
	call	_lua_settop
	add	esp, 8
	test	bl, bl
	je	SHORT $LN12@lGetTerrai
	push	OFFSET $SG223019
	push	esi
	call	_luaL_error
	push	OFFSET $SG223027
	push	esi
	call	_luaL_error
	add	esp, 16					; 00000010H
$LN12@lGetTerrai:

; 315  : 
; 316  : 	lua_pushinteger(L, pkPlot->getTerrainType());

	movsx	eax, BYTE PTR [edi+6]
	push	eax
	push	esi
	call	_lua_pushinteger
	add	esp, 8
	pop	edi
	pop	esi
	pop	ebp

; 317  : 
; 318  : 	return 1;

	mov	eax, 1
	pop	ebx

; 319  : }

	ret	0
?lGetTerrainType@CvLuaPlot@@KAHPAUlua_State@@@Z ENDP	; CvLuaPlot::lGetTerrainType
_TEXT	ENDS
PUBLIC	?lIsRiver@CvLuaPlot@@KAHPAUlua_State@@@Z	; CvLuaPlot::lIsRiver
; Function compile flags: /Ogtpy
;	COMDAT ?lIsRiver@CvLuaPlot@@KAHPAUlua_State@@@Z
_TEXT	SEGMENT
_L$ = 8							; size = 4
?lIsRiver@CvLuaPlot@@KAHPAUlua_State@@@Z PROC		; CvLuaPlot::lIsRiver, COMDAT

; 322  : {

	push	ebx
	push	ebp
	push	esi

; 323  : 	CvPlot* pkPlot = GetInstance(L);

	mov	esi, DWORD PTR _L$[esp+8]
	push	edi
	push	esi
	call	_lua_gettop
	push	1
	push	esi
	mov	ebp, eax
	mov	bl, 1
	xor	edi, edi
	call	_lua_type
	add	esp, 12					; 0000000cH
	cmp	eax, 5
	jne	SHORT $LN5@lIsRiver
	push	OFFSET $SG223013
	push	1
	push	esi
	call	_lua_getfield
	push	-1
	push	esi
	call	_lua_type
	add	esp, 20					; 00000014H
	cmp	eax, 2
	jne	SHORT $LN5@lIsRiver
	push	-1
	push	esi
	call	_lua_touserdata
	mov	edi, eax
	add	esp, 8
	test	edi, edi
	je	SHORT $LN5@lIsRiver
	xor	bl, bl
$LN5@lIsRiver:
	push	ebp
	push	esi
	call	_lua_settop
	add	esp, 8
	test	bl, bl
	je	SHORT $LN12@lIsRiver
	push	OFFSET $SG223019
	push	esi
	call	_luaL_error
	push	OFFSET $SG223027
	push	esi
	call	_luaL_error
	add	esp, 16					; 00000010H
$LN12@lIsRiver:

; 324  : 
; 325  : 	lua_pushboolean(L, pkPlot->isRiver());

	xor	eax, eax
	cmp	BYTE PTR [edi+457], al
	setg	al
	push	eax
	push	esi
	call	_lua_pushboolean
	add	esp, 8
	pop	edi
	pop	esi
	pop	ebp

; 326  : 
; 327  : 	return 1;

	mov	eax, 1
	pop	ebx

; 328  : }

	ret	0
?lIsRiver@CvLuaPlot@@KAHPAUlua_State@@@Z ENDP		; CvLuaPlot::lIsRiver
_TEXT	ENDS
PUBLIC	?lIsWater@CvLuaPlot@@KAHPAUlua_State@@@Z	; CvLuaPlot::lIsWater
; Function compile flags: /Ogtpy
;	COMDAT ?lIsWater@CvLuaPlot@@KAHPAUlua_State@@@Z
_TEXT	SEGMENT
_L$ = 8							; size = 4
?lIsWater@CvLuaPlot@@KAHPAUlua_State@@@Z PROC		; CvLuaPlot::lIsWater, COMDAT

; 331  : {

	push	ebx
	push	ebp
	push	esi

; 332  : 	CvPlot* pkPlot = GetInstance(L);

	mov	esi, DWORD PTR _L$[esp+8]
	push	edi
	push	esi
	call	_lua_gettop
	push	1
	push	esi
	mov	ebp, eax
	mov	bl, 1
	xor	edi, edi
	call	_lua_type
	add	esp, 12					; 0000000cH
	cmp	eax, 5
	jne	SHORT $LN5@lIsWater
	push	OFFSET $SG223013
	push	1
	push	esi
	call	_lua_getfield
	push	-1
	push	esi
	call	_lua_type
	add	esp, 20					; 00000014H
	cmp	eax, 2
	jne	SHORT $LN5@lIsWater
	push	-1
	push	esi
	call	_lua_touserdata
	mov	edi, eax
	add	esp, 8
	test	edi, edi
	je	SHORT $LN5@lIsWater
	xor	bl, bl
$LN5@lIsWater:
	push	ebp
	push	esi
	call	_lua_settop
	add	esp, 8
	test	bl, bl
	je	SHORT $LN12@lIsWater
	push	OFFSET $SG223019
	push	esi
	call	_luaL_error
	push	OFFSET $SG223027
	push	esi
	call	_luaL_error
	add	esp, 16					; 00000010H
$LN12@lIsWater:

; 333  : 
; 334  : 	lua_pushboolean(L, pkPlot->isWater());

	xor	eax, eax
	cmp	BYTE PTR [edi+5], 3
	sete	al
	push	eax
	push	esi
	call	_lua_pushboolean
	add	esp, 8
	pop	edi
	pop	esi
	pop	ebp

; 335  : 
; 336  : 	return 1;

	mov	eax, 1
	pop	ebx

; 337  : }

	ret	0
?lIsWater@CvLuaPlot@@KAHPAUlua_State@@@Z ENDP		; CvLuaPlot::lIsWater
_TEXT	ENDS
PUBLIC	?lSetFeatureType@CvLuaPlot@@KAHPAUlua_State@@@Z	; CvLuaPlot::lSetFeatureType
EXTRN	?setFeatureType@CvPlot@@QAEXW4FeatureTypes@@H@Z:PROC ; CvPlot::setFeatureType
EXTRN	_luaL_optinteger:PROC
; Function compile flags: /Ogtpy
;	COMDAT ?lSetFeatureType@CvLuaPlot@@KAHPAUlua_State@@@Z
_TEXT	SEGMENT
_L$ = 8							; size = 4
?lSetFeatureType@CvLuaPlot@@KAHPAUlua_State@@@Z PROC	; CvLuaPlot::lSetFeatureType, COMDAT

; 340  : {

	push	ebx
	push	ebp
	push	esi

; 341  : 	CvPlot* pkPlot = GetInstance(L);

	mov	esi, DWORD PTR _L$[esp+8]
	push	edi
	push	esi
	call	_lua_gettop
	push	1
	push	esi
	mov	ebp, eax
	mov	bl, 1
	xor	edi, edi
	call	_lua_type
	add	esp, 12					; 0000000cH
	cmp	eax, 5
	jne	SHORT $LN5@lSetFeatur
	push	OFFSET $SG223013
	push	1
	push	esi
	call	_lua_getfield
	push	-1
	push	esi
	call	_lua_type
	add	esp, 20					; 00000014H
	cmp	eax, 2
	jne	SHORT $LN5@lSetFeatur
	push	-1
	push	esi
	call	_lua_touserdata
	mov	edi, eax
	add	esp, 8
	test	edi, edi
	je	SHORT $LN5@lSetFeatur
	xor	bl, bl
$LN5@lSetFeatur:
	push	ebp
	push	esi
	call	_lua_settop
	add	esp, 8
	test	bl, bl
	je	SHORT $LN12@lSetFeatur
	push	OFFSET $SG223019
	push	esi
	call	_luaL_error
	push	OFFSET $SG223027
	push	esi
	call	_luaL_error
	add	esp, 16					; 00000010H
$LN12@lSetFeatur:

; 342  : 
; 343  : 	const int featureType = lua_tointeger(L, 2);

	push	2
	push	esi
	call	_lua_tointeger

; 344  : 	const int variety = luaL_optinteger(L, 3, -1);

	push	-1
	push	3
	push	esi
	mov	ebx, eax
	call	_luaL_optinteger
	add	esp, 20					; 00000014H

; 345  : 
; 346  : 
; 347  : 	pkPlot->setFeatureType((FeatureTypes)featureType, variety);

	push	eax
	push	ebx
	mov	ecx, edi
	call	?setFeatureType@CvPlot@@QAEXW4FeatureTypes@@H@Z ; CvPlot::setFeatureType
	pop	edi
	pop	esi
	pop	ebp

; 348  : 
; 349  : 	return 0;

	xor	eax, eax
	pop	ebx

; 350  : }

	ret	0
?lSetFeatureType@CvLuaPlot@@KAHPAUlua_State@@@Z ENDP	; CvLuaPlot::lSetFeatureType
_TEXT	ENDS
PUBLIC	?lSetTerrainType@CvLuaPlot@@KAHPAUlua_State@@@Z	; CvLuaPlot::lSetTerrainType
EXTRN	?setTerrainType@CvPlot@@QAEXW4TerrainTypes@@_N1@Z:PROC ; CvPlot::setTerrainType
; Function compile flags: /Ogtpy
;	COMDAT ?lSetTerrainType@CvLuaPlot@@KAHPAUlua_State@@@Z
_TEXT	SEGMENT
_bRebuildGraphics$ = -8					; size = 1
_bRecalculate$ = -4					; size = 1
_L$ = 8							; size = 4
?lSetTerrainType@CvLuaPlot@@KAHPAUlua_State@@@Z PROC	; CvLuaPlot::lSetTerrainType, COMDAT

; 353  : {

	sub	esp, 8
	push	ebx
	push	ebp
	push	esi

; 354  : 	CvPlot* pkPlot = GetInstance(L);

	mov	esi, DWORD PTR _L$[esp+16]
	push	edi
	push	esi
	call	_lua_gettop
	push	1
	push	esi
	mov	ebp, eax
	mov	bl, 1
	xor	edi, edi
	call	_lua_type
	add	esp, 12					; 0000000cH
	cmp	eax, 5
	jne	SHORT $LN5@lSetTerrai
	push	OFFSET $SG223013
	push	1
	push	esi
	call	_lua_getfield
	push	-1
	push	esi
	call	_lua_type
	add	esp, 20					; 00000014H
	cmp	eax, 2
	jne	SHORT $LN5@lSetTerrai
	push	-1
	push	esi
	call	_lua_touserdata
	mov	edi, eax
	add	esp, 8
	test	edi, edi
	je	SHORT $LN5@lSetTerrai
	xor	bl, bl
$LN5@lSetTerrai:
	push	ebp
	push	esi
	call	_lua_settop
	add	esp, 8
	test	bl, bl
	je	SHORT $LN12@lSetTerrai
	push	OFFSET $SG223019
	push	esi
	call	_luaL_error
	push	OFFSET $SG223027
	push	esi
	call	_luaL_error
	add	esp, 16					; 00000010H
$LN12@lSetTerrai:

; 355  : 
; 356  : 	const int terrainType = lua_tointeger(L, 2);

	push	2
	push	esi
	call	_lua_tointeger

; 357  : 	const bool bRecalculate = lua_toboolean(L, 3);

	push	3
	push	esi
	mov	ebx, eax
	call	_lua_toboolean
	test	eax, eax
	setne	al

; 358  : 	const bool bRebuildGraphics = lua_toboolean(L, 4);

	push	4
	push	esi
	mov	BYTE PTR _bRecalculate$[esp+48], al
	call	_lua_toboolean
	add	esp, 24					; 00000018H
	test	eax, eax

; 359  : 
; 360  : 	pkPlot->setTerrainType((TerrainTypes)terrainType, bRecalculate, bRebuildGraphics);

	mov	eax, DWORD PTR _bRecalculate$[esp+24]
	setne	cl
	mov	BYTE PTR _bRebuildGraphics$[esp+24], cl
	mov	edx, DWORD PTR _bRebuildGraphics$[esp+24]
	push	edx
	push	eax
	push	ebx
	mov	ecx, edi
	call	?setTerrainType@CvPlot@@QAEXW4TerrainTypes@@_N1@Z ; CvPlot::setTerrainType
	pop	edi
	pop	esi
	pop	ebp

; 361  : 
; 362  : 	return 0;

	xor	eax, eax
	pop	ebx

; 363  : }

	add	esp, 8
	ret	0
?lSetTerrainType@CvLuaPlot@@KAHPAUlua_State@@@Z ENDP	; CvLuaPlot::lSetTerrainType
_TEXT	ENDS
PUBLIC	?lIsNone@CvLuaPlot@@KAHPAUlua_State@@@Z		; CvLuaPlot::lIsNone
; Function compile flags: /Ogtpy
;	COMDAT ?lIsNone@CvLuaPlot@@KAHPAUlua_State@@@Z
_TEXT	SEGMENT
_L$ = 8							; size = 4
?lIsNone@CvLuaPlot@@KAHPAUlua_State@@@Z PROC		; CvLuaPlot::lIsNone, COMDAT

; 374  : {

	push	ebx
	push	ebp
	push	esi

; 375  : #ifdef AUI_WARNING_FIXES
; 376  : 	const bool bDoesNotExist = (GetInstance(L, 1, false) == NULL);
; 377  : 	lua_pushboolean(L, bDoesNotExist ? 1 : 0);
; 378  : #else
; 379  : 	const bool bDoesNotExist = (GetInstance(L, false) == NULL);

	mov	esi, DWORD PTR _L$[esp+8]
	push	edi
	push	esi
	call	_lua_gettop
	xor	edi, edi
	push	edi
	push	esi
	mov	ebp, eax
	mov	bl, 1
	call	_lua_type
	add	esp, 12					; 0000000cH
	cmp	eax, 5
	jne	SHORT $LN5@lIsNone
	push	OFFSET $SG223013
	push	edi
	push	esi
	call	_lua_getfield
	push	-1
	push	esi
	call	_lua_type
	add	esp, 20					; 00000014H
	cmp	eax, 2
	jne	SHORT $LN5@lIsNone
	push	-1
	push	esi
	call	_lua_touserdata
	mov	edi, eax
	add	esp, 8
	test	edi, edi
	je	SHORT $LN5@lIsNone
	xor	bl, bl
$LN5@lIsNone:
	push	ebp
	push	esi
	call	_lua_settop
	add	esp, 8
	test	bl, bl
	je	SHORT $LN12@lIsNone
	push	OFFSET $SG223027
	push	esi
	call	_luaL_error
	add	esp, 8
$LN12@lIsNone:
	xor	eax, eax
	test	edi, edi
	sete	al

; 380  : 	lua_pushboolean(L, bDoesNotExist);

	push	eax
	push	esi
	call	_lua_pushboolean
	add	esp, 8
	pop	edi
	pop	esi
	pop	ebp

; 381  : #endif
; 382  : 
; 383  : 	return 1;

	mov	eax, 1
	pop	ebx

; 384  : }

	ret	0
?lIsNone@CvLuaPlot@@KAHPAUlua_State@@@Z ENDP		; CvLuaPlot::lIsNone
_TEXT	ENDS
PUBLIC	?lErase@CvLuaPlot@@KAHPAUlua_State@@@Z		; CvLuaPlot::lErase
EXTRN	?erase@CvPlot@@QAEX_N@Z:PROC			; CvPlot::erase
; Function compile flags: /Ogtpy
;	COMDAT ?lErase@CvLuaPlot@@KAHPAUlua_State@@@Z
_TEXT	SEGMENT
_L$ = 8							; size = 4
?lErase@CvLuaPlot@@KAHPAUlua_State@@@Z PROC		; CvLuaPlot::lErase, COMDAT

; 389  : 	return BasicLuaMethod(L, &CvPlot::erase);

	mov	eax, DWORD PTR _L$[esp-4]
	push	OFFSET ?erase@CvPlot@@QAEX_N@Z		; CvPlot::erase
	push	eax
	call	??$BasicLuaMethod@_N@?$CvLuaMethodWrapper@VCvLuaPlot@@VCvPlot@@@@KAHPAUlua_State@@P8CvPlot@@AEX_N@Z@Z ; CvLuaMethodWrapper<CvLuaPlot,CvPlot>::BasicLuaMethod<bool>
	add	esp, 8

; 390  : }

	ret	0
?lErase@CvLuaPlot@@KAHPAUlua_State@@@Z ENDP		; CvLuaPlot::lErase
_TEXT	ENDS
PUBLIC	?lGetTeam@CvLuaPlot@@KAHPAUlua_State@@@Z	; CvLuaPlot::lGetTeam
; Function compile flags: /Ogtpy
;	COMDAT ?lGetTeam@CvLuaPlot@@KAHPAUlua_State@@@Z
_TEXT	SEGMENT
_L$ = 8							; size = 4
?lGetTeam@CvLuaPlot@@KAHPAUlua_State@@@Z PROC		; CvLuaPlot::lGetTeam, COMDAT

; 396  : 	return BasicLuaMethod(L, &CvPlot::getTeam);

	mov	eax, DWORD PTR _L$[esp-4]
	push	OFFSET ?getTeam@CvPlot@@QBE?AW4TeamTypes@@XZ ; CvPlot::getTeam
	push	eax
	call	??$BasicLuaMethod@W4TeamTypes@@@?$CvLuaMethodWrapper@VCvLuaPlot@@VCvPlot@@@@KAHPAUlua_State@@P8CvPlot@@BE?AW4TeamTypes@@XZ@Z ; CvLuaMethodWrapper<CvLuaPlot,CvPlot>::BasicLuaMethod<enum TeamTypes>
	add	esp, 8

; 397  : }

	ret	0
?lGetTeam@CvLuaPlot@@KAHPAUlua_State@@@Z ENDP		; CvLuaPlot::lGetTeam
_TEXT	ENDS
PUBLIC	?lNukeExplosion@CvLuaPlot@@KAHPAUlua_State@@@Z	; CvLuaPlot::lNukeExplosion
EXTRN	?nukeExplosion@CvPlot@@QAEXHPAVCvUnit@@@Z:PROC	; CvPlot::nukeExplosion
; Function compile flags: /Ogtpy
;	COMDAT ?lNukeExplosion@CvLuaPlot@@KAHPAUlua_State@@@Z
_TEXT	SEGMENT
_L$ = 8							; size = 4
?lNukeExplosion@CvLuaPlot@@KAHPAUlua_State@@@Z PROC	; CvLuaPlot::lNukeExplosion, COMDAT

; 403  : 	return BasicLuaMethod(L, &CvPlot::nukeExplosion);

	mov	eax, DWORD PTR _L$[esp-4]
	push	OFFSET ?nukeExplosion@CvPlot@@QAEXHPAVCvUnit@@@Z ; CvPlot::nukeExplosion
	push	eax
	call	??$BasicLuaMethod@HPAVCvUnit@@@?$CvLuaMethodWrapper@VCvLuaPlot@@VCvPlot@@@@KAHPAUlua_State@@P8CvPlot@@AEXHPAVCvUnit@@@Z@Z ; CvLuaMethodWrapper<CvLuaPlot,CvPlot>::BasicLuaMethod<int,CvUnit *>
	add	esp, 8

; 404  : }

	ret	0
?lNukeExplosion@CvLuaPlot@@KAHPAUlua_State@@@Z ENDP	; CvLuaPlot::lNukeExplosion
_TEXT	ENDS
PUBLIC	?lUpdateFog@CvLuaPlot@@KAHPAUlua_State@@@Z	; CvLuaPlot::lUpdateFog
EXTRN	?updateFog@CvPlot@@QAEX_N@Z:PROC		; CvPlot::updateFog
; Function compile flags: /Ogtpy
;	COMDAT ?lUpdateFog@CvLuaPlot@@KAHPAUlua_State@@@Z
_TEXT	SEGMENT
_L$ = 8							; size = 4
?lUpdateFog@CvLuaPlot@@KAHPAUlua_State@@@Z PROC		; CvLuaPlot::lUpdateFog, COMDAT

; 410  : 	return BasicLuaMethod(L, &CvPlot::updateFog);

	mov	eax, DWORD PTR _L$[esp-4]
	push	OFFSET ?updateFog@CvPlot@@QAEX_N@Z	; CvPlot::updateFog
	push	eax
	call	??$BasicLuaMethod@_N@?$CvLuaMethodWrapper@VCvLuaPlot@@VCvPlot@@@@KAHPAUlua_State@@P8CvPlot@@AEX_N@Z@Z ; CvLuaMethodWrapper<CvLuaPlot,CvPlot>::BasicLuaMethod<bool>
	add	esp, 8

; 411  : }

	ret	0
?lUpdateFog@CvLuaPlot@@KAHPAUlua_State@@@Z ENDP		; CvLuaPlot::lUpdateFog
_TEXT	ENDS
PUBLIC	?lIsAdjacentToArea@CvLuaPlot@@KAHPAUlua_State@@@Z ; CvLuaPlot::lIsAdjacentToArea
EXTRN	?isAdjacentToArea@CvPlot@@QBE_NPBVCvArea@@@Z:PROC ; CvPlot::isAdjacentToArea
; Function compile flags: /Ogtpy
;	COMDAT ?lIsAdjacentToArea@CvLuaPlot@@KAHPAUlua_State@@@Z
_TEXT	SEGMENT
_pkInstance$226652 = -4					; size = 4
_L$ = 8							; size = 4
?lIsAdjacentToArea@CvLuaPlot@@KAHPAUlua_State@@@Z PROC	; CvLuaPlot::lIsAdjacentToArea, COMDAT

; 422  : {

	push	ecx
	push	ebx
	push	ebp
	push	esi

; 423  : 	CvPlot* pkPlot = GetInstance(L);

	mov	esi, DWORD PTR _L$[esp+12]
	push	edi
	push	esi
	call	_lua_gettop
	push	1
	push	esi
	mov	edi, eax
	mov	bl, 1
	mov	DWORD PTR _pkInstance$226652[esp+32], 0
	call	_lua_type
	add	esp, 12					; 0000000cH
	cmp	eax, 5
	jne	SHORT $LN5@lIsAdjacen
	push	OFFSET $SG223013
	push	1
	push	esi
	call	_lua_getfield
	push	-1
	push	esi
	call	_lua_type
	add	esp, 20					; 00000014H
	cmp	eax, 2
	jne	SHORT $LN5@lIsAdjacen
	push	-1
	push	esi
	call	_lua_touserdata
	add	esp, 8
	mov	DWORD PTR _pkInstance$226652[esp+20], eax
	test	eax, eax
	je	SHORT $LN5@lIsAdjacen
	xor	bl, bl
$LN5@lIsAdjacen:
	push	edi
	push	esi
	call	_lua_settop
	add	esp, 8
	test	bl, bl
	je	SHORT $LN12@lIsAdjacen
	push	OFFSET $SG223019
	push	esi
	call	_luaL_error
	push	OFFSET $SG223027
	push	esi
	call	_luaL_error
	add	esp, 16					; 00000010H
$LN12@lIsAdjacen:

; 424  : 	CvArea* pkArea = CvLuaArea::GetInstance(L, 2);

	push	esi
	call	_lua_gettop
	push	2
	push	esi
	mov	ebp, eax
	mov	bl, 1
	xor	edi, edi
	call	_lua_type
	add	esp, 12					; 0000000cH
	cmp	eax, 5
	jne	SHORT $LN16@lIsAdjacen
	push	OFFSET $SG222944
	push	2
	push	esi
	call	_lua_getfield
	push	-1
	push	esi
	call	_lua_type
	add	esp, 20					; 00000014H
	cmp	eax, 2
	jne	SHORT $LN16@lIsAdjacen
	push	-1
	push	esi
	call	_lua_touserdata
	mov	edi, eax
	add	esp, 8
	test	edi, edi
	je	SHORT $LN16@lIsAdjacen
	xor	bl, bl
$LN16@lIsAdjacen:
	push	ebp
	push	esi
	call	_lua_settop
	add	esp, 8
	test	bl, bl
	je	SHORT $LN15@lIsAdjacen
	push	esi
	call	?HandleMissingInstance@CvLuaArea@@SAXPAUlua_State@@@Z ; CvLuaArea::HandleMissingInstance
	add	esp, 4
$LN15@lIsAdjacen:

; 425  : 
; 426  : 	const bool bResult = pkPlot->isAdjacentToArea(pkArea);

	mov	ecx, DWORD PTR _pkInstance$226652[esp+20]
	push	edi
	call	?isAdjacentToArea@CvPlot@@QBE_NPBVCvArea@@@Z ; CvPlot::isAdjacentToArea

; 427  : 	lua_pushboolean(L, bResult);

	movzx	eax, al
	push	eax
	push	esi
	call	_lua_pushboolean
	add	esp, 8
	pop	edi
	pop	esi
	pop	ebp

; 428  : 
; 429  : 	return 1;

	mov	eax, 1
	pop	ebx

; 430  : }

	pop	ecx
	ret	0
?lIsAdjacentToArea@CvLuaPlot@@KAHPAUlua_State@@@Z ENDP	; CvLuaPlot::lIsAdjacentToArea
_TEXT	ENDS
PUBLIC	?lShareAdjacentArea@CvLuaPlot@@KAHPAUlua_State@@@Z ; CvLuaPlot::lShareAdjacentArea
EXTRN	?shareAdjacentArea@CvPlot@@QBE_NPBV1@@Z:PROC	; CvPlot::shareAdjacentArea
; Function compile flags: /Ogtpy
;	COMDAT ?lShareAdjacentArea@CvLuaPlot@@KAHPAUlua_State@@@Z
_TEXT	SEGMENT
_pkInstance$226689 = -4					; size = 4
_L$ = 8							; size = 4
?lShareAdjacentArea@CvLuaPlot@@KAHPAUlua_State@@@Z PROC	; CvLuaPlot::lShareAdjacentArea, COMDAT

; 434  : {

	push	ecx
	push	ebx
	push	ebp
	push	esi

; 435  : 	CvPlot* pkPlot = GetInstance(L);

	mov	esi, DWORD PTR _L$[esp+12]
	push	edi
	push	esi
	call	_lua_gettop
	push	1
	push	esi
	mov	edi, eax
	mov	bl, 1
	mov	DWORD PTR _pkInstance$226689[esp+32], 0
	call	_lua_type
	add	esp, 12					; 0000000cH
	cmp	eax, 5
	jne	SHORT $LN5@lShareAdja
	push	OFFSET $SG223013
	push	1
	push	esi
	call	_lua_getfield
	push	-1
	push	esi
	call	_lua_type
	add	esp, 20					; 00000014H
	cmp	eax, 2
	jne	SHORT $LN5@lShareAdja
	push	-1
	push	esi
	call	_lua_touserdata
	add	esp, 8
	mov	DWORD PTR _pkInstance$226689[esp+20], eax
	test	eax, eax
	je	SHORT $LN5@lShareAdja
	xor	bl, bl
$LN5@lShareAdja:
	push	edi
	push	esi
	call	_lua_settop
	add	esp, 8
	test	bl, bl
	je	SHORT $LN12@lShareAdja
	push	OFFSET $SG223019
	push	esi
	call	_luaL_error
	push	OFFSET $SG223027
	push	esi
	call	_luaL_error
	add	esp, 16					; 00000010H
$LN12@lShareAdja:

; 436  : 	CvPlot* pkPlot2 = GetInstance(L, 2);

	push	esi
	call	_lua_gettop
	push	2
	push	esi
	mov	ebp, eax
	mov	bl, 1
	xor	edi, edi
	call	_lua_type
	add	esp, 12					; 0000000cH
	cmp	eax, 5
	jne	SHORT $LN16@lShareAdja
	push	OFFSET $SG223013
	push	2
	push	esi
	call	_lua_getfield
	push	-1
	push	esi
	call	_lua_type
	add	esp, 20					; 00000014H
	cmp	eax, 2
	jne	SHORT $LN16@lShareAdja
	push	-1
	push	esi
	call	_lua_touserdata
	mov	edi, eax
	add	esp, 8
	test	edi, edi
	je	SHORT $LN16@lShareAdja
	xor	bl, bl
$LN16@lShareAdja:
	push	ebp
	push	esi
	call	_lua_settop
	add	esp, 8
	test	bl, bl
	je	SHORT $LN23@lShareAdja
	push	OFFSET $SG223027
	push	esi
	call	_luaL_error
	add	esp, 8
$LN23@lShareAdja:

; 437  : 
; 438  : 	const bool bResult = pkPlot->shareAdjacentArea(pkPlot2);

	mov	ecx, DWORD PTR _pkInstance$226689[esp+20]
	push	edi
	call	?shareAdjacentArea@CvPlot@@QBE_NPBV1@@Z	; CvPlot::shareAdjacentArea

; 439  : 	lua_pushboolean(L, bResult);

	movzx	eax, al
	push	eax
	push	esi
	call	_lua_pushboolean
	add	esp, 8
	pop	edi
	pop	esi
	pop	ebp

; 440  : 
; 441  : 	return 1;

	mov	eax, 1
	pop	ebx

; 442  : }

	pop	ecx
	ret	0
?lShareAdjacentArea@CvLuaPlot@@KAHPAUlua_State@@@Z ENDP	; CvLuaPlot::lShareAdjacentArea
_TEXT	ENDS
PUBLIC	?lIsAdjacentToLand@CvLuaPlot@@KAHPAUlua_State@@@Z ; CvLuaPlot::lIsAdjacentToLand
EXTRN	?isAdjacentToLand@CvPlot@@QBE_NXZ:PROC		; CvPlot::isAdjacentToLand
; Function compile flags: /Ogtpy
;	COMDAT ?lIsAdjacentToLand@CvLuaPlot@@KAHPAUlua_State@@@Z
_TEXT	SEGMENT
_L$ = 8							; size = 4
?lIsAdjacentToLand@CvLuaPlot@@KAHPAUlua_State@@@Z PROC	; CvLuaPlot::lIsAdjacentToLand, COMDAT

; 447  : 	return BasicLuaMethod(L, &CvPlot::isAdjacentToLand);

	mov	eax, DWORD PTR _L$[esp-4]
	push	OFFSET ?isAdjacentToLand@CvPlot@@QBE_NXZ ; CvPlot::isAdjacentToLand
	push	eax
	call	??$BasicLuaMethod@_N@?$CvLuaMethodWrapper@VCvLuaPlot@@VCvPlot@@@@KAHPAUlua_State@@P8CvPlot@@BE_NXZ@Z ; CvLuaMethodWrapper<CvLuaPlot,CvPlot>::BasicLuaMethod<bool>
	add	esp, 8

; 448  : }

	ret	0
?lIsAdjacentToLand@CvLuaPlot@@KAHPAUlua_State@@@Z ENDP	; CvLuaPlot::lIsAdjacentToLand
_TEXT	ENDS
PUBLIC	?lIsAdjacentToShallowWater@CvLuaPlot@@KAHPAUlua_State@@@Z ; CvLuaPlot::lIsAdjacentToShallowWater
EXTRN	?isAdjacentToShallowWater@CvPlot@@QBE_NXZ:PROC	; CvPlot::isAdjacentToShallowWater
; Function compile flags: /Ogtpy
;	COMDAT ?lIsAdjacentToShallowWater@CvLuaPlot@@KAHPAUlua_State@@@Z
_TEXT	SEGMENT
_L$ = 8							; size = 4
?lIsAdjacentToShallowWater@CvLuaPlot@@KAHPAUlua_State@@@Z PROC ; CvLuaPlot::lIsAdjacentToShallowWater, COMDAT

; 453  : 	return BasicLuaMethod(L, &CvPlot::isAdjacentToShallowWater);

	mov	eax, DWORD PTR _L$[esp-4]
	push	OFFSET ?isAdjacentToShallowWater@CvPlot@@QBE_NXZ ; CvPlot::isAdjacentToShallowWater
	push	eax
	call	??$BasicLuaMethod@_N@?$CvLuaMethodWrapper@VCvLuaPlot@@VCvPlot@@@@KAHPAUlua_State@@P8CvPlot@@BE_NXZ@Z ; CvLuaMethodWrapper<CvLuaPlot,CvPlot>::BasicLuaMethod<bool>
	add	esp, 8

; 454  : }

	ret	0
?lIsAdjacentToShallowWater@CvLuaPlot@@KAHPAUlua_State@@@Z ENDP ; CvLuaPlot::lIsAdjacentToShallowWater
_TEXT	ENDS
PUBLIC	?lIsCoastalLand@CvLuaPlot@@KAHPAUlua_State@@@Z	; CvLuaPlot::lIsCoastalLand
EXTRN	?isCoastalLand@CvPlot@@QBE_NH@Z:PROC		; CvPlot::isCoastalLand
; Function compile flags: /Ogtpy
;	COMDAT ?lIsCoastalLand@CvLuaPlot@@KAHPAUlua_State@@@Z
_TEXT	SEGMENT
_L$ = 8							; size = 4
?lIsCoastalLand@CvLuaPlot@@KAHPAUlua_State@@@Z PROC	; CvLuaPlot::lIsCoastalLand, COMDAT

; 459  : 	return BasicLuaMethod(L, &CvPlot::isCoastalLand);

	mov	eax, DWORD PTR _L$[esp-4]
	push	OFFSET ?isCoastalLand@CvPlot@@QBE_NH@Z	; CvPlot::isCoastalLand
	push	eax
	call	??$BasicLuaMethod@_NH@?$CvLuaMethodWrapper@VCvLuaPlot@@VCvPlot@@@@KAHPAUlua_State@@P8CvPlot@@BE_NH@Z@Z ; CvLuaMethodWrapper<CvLuaPlot,CvPlot>::BasicLuaMethod<bool,int>
	add	esp, 8

; 460  : }

	ret	0
?lIsCoastalLand@CvLuaPlot@@KAHPAUlua_State@@@Z ENDP	; CvLuaPlot::lIsCoastalLand
_TEXT	ENDS
PUBLIC	?lIsWithinTeamCityRadius@CvLuaPlot@@KAHPAUlua_State@@@Z ; CvLuaPlot::lIsWithinTeamCityRadius
EXTRN	?isWithinTeamCityRadius@CvPlot@@QBE_NW4TeamTypes@@W4PlayerTypes@@@Z:PROC ; CvPlot::isWithinTeamCityRadius
; Function compile flags: /Ogtpy
;	COMDAT ?lIsWithinTeamCityRadius@CvLuaPlot@@KAHPAUlua_State@@@Z
_TEXT	SEGMENT
_L$ = 8							; size = 4
?lIsWithinTeamCityRadius@CvLuaPlot@@KAHPAUlua_State@@@Z PROC ; CvLuaPlot::lIsWithinTeamCityRadius, COMDAT

; 466  : 	return BasicLuaMethod(L, &CvPlot::isWithinTeamCityRadius);

	mov	eax, DWORD PTR _L$[esp-4]
	push	OFFSET ?isWithinTeamCityRadius@CvPlot@@QBE_NW4TeamTypes@@W4PlayerTypes@@@Z ; CvPlot::isWithinTeamCityRadius
	push	eax
	call	??$BasicLuaMethod@_NW4TeamTypes@@W4PlayerTypes@@@?$CvLuaMethodWrapper@VCvLuaPlot@@VCvPlot@@@@KAHPAUlua_State@@P8CvPlot@@BE_NW4TeamTypes@@W4PlayerTypes@@@Z@Z ; CvLuaMethodWrapper<CvLuaPlot,CvPlot>::BasicLuaMethod<bool,enum TeamTypes,enum PlayerTypes>
	add	esp, 8

; 467  : }

	ret	0
?lIsWithinTeamCityRadius@CvLuaPlot@@KAHPAUlua_State@@@Z ENDP ; CvLuaPlot::lIsWithinTeamCityRadius
_TEXT	ENDS
PUBLIC	?lIsLake@CvLuaPlot@@KAHPAUlua_State@@@Z		; CvLuaPlot::lIsLake
EXTRN	?isLake@CvPlot@@QBE_NXZ:PROC			; CvPlot::isLake
; Function compile flags: /Ogtpy
;	COMDAT ?lIsLake@CvLuaPlot@@KAHPAUlua_State@@@Z
_TEXT	SEGMENT
_L$ = 8							; size = 4
?lIsLake@CvLuaPlot@@KAHPAUlua_State@@@Z PROC		; CvLuaPlot::lIsLake, COMDAT

; 472  : 	return BasicLuaMethod(L, &CvPlot::isLake);

	mov	eax, DWORD PTR _L$[esp-4]
	push	OFFSET ?isLake@CvPlot@@QBE_NXZ		; CvPlot::isLake
	push	eax
	call	??$BasicLuaMethod@_N@?$CvLuaMethodWrapper@VCvLuaPlot@@VCvPlot@@@@KAHPAUlua_State@@P8CvPlot@@BE_NXZ@Z ; CvLuaMethodWrapper<CvLuaPlot,CvPlot>::BasicLuaMethod<bool>
	add	esp, 8

; 473  : }

	ret	0
?lIsLake@CvLuaPlot@@KAHPAUlua_State@@@Z ENDP		; CvLuaPlot::lIsLake
_TEXT	ENDS
PUBLIC	?lIsFreshWater@CvLuaPlot@@KAHPAUlua_State@@@Z	; CvLuaPlot::lIsFreshWater
EXTRN	?isFreshWater@CvPlot@@QBE_NXZ:PROC		; CvPlot::isFreshWater
; Function compile flags: /Ogtpy
;	COMDAT ?lIsFreshWater@CvLuaPlot@@KAHPAUlua_State@@@Z
_TEXT	SEGMENT
_L$ = 8							; size = 4
?lIsFreshWater@CvLuaPlot@@KAHPAUlua_State@@@Z PROC	; CvLuaPlot::lIsFreshWater, COMDAT

; 478  : 	return BasicLuaMethod(L, &CvPlot::isFreshWater);

	mov	eax, DWORD PTR _L$[esp-4]
	push	OFFSET ?isFreshWater@CvPlot@@QBE_NXZ	; CvPlot::isFreshWater
	push	eax
	call	??$BasicLuaMethod@_N@?$CvLuaMethodWrapper@VCvLuaPlot@@VCvPlot@@@@KAHPAUlua_State@@P8CvPlot@@BE_NXZ@Z ; CvLuaMethodWrapper<CvLuaPlot,CvPlot>::BasicLuaMethod<bool>
	add	esp, 8

; 479  : }

	ret	0
?lIsFreshWater@CvLuaPlot@@KAHPAUlua_State@@@Z ENDP	; CvLuaPlot::lIsFreshWater
_TEXT	ENDS
PUBLIC	?lIsRiverSide@CvLuaPlot@@KAHPAUlua_State@@@Z	; CvLuaPlot::lIsRiverSide
EXTRN	?isRiverSide@CvPlot@@QBE_NXZ:PROC		; CvPlot::isRiverSide
; Function compile flags: /Ogtpy
;	COMDAT ?lIsRiverSide@CvLuaPlot@@KAHPAUlua_State@@@Z
_TEXT	SEGMENT
_L$ = 8							; size = 4
?lIsRiverSide@CvLuaPlot@@KAHPAUlua_State@@@Z PROC	; CvLuaPlot::lIsRiverSide, COMDAT

; 485  : 	return BasicLuaMethod(L, &CvPlot::isRiverSide);

	mov	eax, DWORD PTR _L$[esp-4]
	push	OFFSET ?isRiverSide@CvPlot@@QBE_NXZ	; CvPlot::isRiverSide
	push	eax
	call	??$BasicLuaMethod@_N@?$CvLuaMethodWrapper@VCvLuaPlot@@VCvPlot@@@@KAHPAUlua_State@@P8CvPlot@@BE_NXZ@Z ; CvLuaMethodWrapper<CvLuaPlot,CvPlot>::BasicLuaMethod<bool>
	add	esp, 8

; 486  : }

	ret	0
?lIsRiverSide@CvLuaPlot@@KAHPAUlua_State@@@Z ENDP	; CvLuaPlot::lIsRiverSide
_TEXT	ENDS
PUBLIC	?lIsRiverConnection@CvLuaPlot@@KAHPAUlua_State@@@Z ; CvLuaPlot::lIsRiverConnection
EXTRN	?isRiverConnection@CvPlot@@QBE_NW4DirectionTypes@@@Z:PROC ; CvPlot::isRiverConnection
; Function compile flags: /Ogtpy
;	COMDAT ?lIsRiverConnection@CvLuaPlot@@KAHPAUlua_State@@@Z
_TEXT	SEGMENT
_L$ = 8							; size = 4
?lIsRiverConnection@CvLuaPlot@@KAHPAUlua_State@@@Z PROC	; CvLuaPlot::lIsRiverConnection, COMDAT

; 491  : 	return BasicLuaMethod(L, &CvPlot::isRiverConnection);

	mov	eax, DWORD PTR _L$[esp-4]
	push	OFFSET ?isRiverConnection@CvPlot@@QBE_NW4DirectionTypes@@@Z ; CvPlot::isRiverConnection
	push	eax
	call	??$BasicLuaMethod@_NW4DirectionTypes@@@?$CvLuaMethodWrapper@VCvLuaPlot@@VCvPlot@@@@KAHPAUlua_State@@P8CvPlot@@BE_NW4DirectionTypes@@@Z@Z ; CvLuaMethodWrapper<CvLuaPlot,CvPlot>::BasicLuaMethod<bool,enum DirectionTypes>
	add	esp, 8

; 492  : }

	ret	0
?lIsRiverConnection@CvLuaPlot@@KAHPAUlua_State@@@Z ENDP	; CvLuaPlot::lIsRiverConnection
_TEXT	ENDS
PUBLIC	?lIsRiverCrossingFlowClockwise@CvLuaPlot@@KAHPAUlua_State@@@Z ; CvLuaPlot::lIsRiverCrossingFlowClockwise
EXTRN	?isRiverCrossingFlowClockwise@CvPlot@@QBE_NW4DirectionTypes@@@Z:PROC ; CvPlot::isRiverCrossingFlowClockwise
; Function compile flags: /Ogtpy
;	COMDAT ?lIsRiverCrossingFlowClockwise@CvLuaPlot@@KAHPAUlua_State@@@Z
_TEXT	SEGMENT
_L$ = 8							; size = 4
?lIsRiverCrossingFlowClockwise@CvLuaPlot@@KAHPAUlua_State@@@Z PROC ; CvLuaPlot::lIsRiverCrossingFlowClockwise, COMDAT

; 495  : {

	push	ebx
	push	ebp
	push	esi

; 496  : 	CvPlot* pkPlot = GetInstance(L);

	mov	esi, DWORD PTR _L$[esp+8]
	push	edi
	push	esi
	call	_lua_gettop
	push	1
	push	esi
	mov	ebp, eax
	mov	bl, 1
	xor	edi, edi
	call	_lua_type
	add	esp, 12					; 0000000cH
	cmp	eax, 5
	jne	SHORT $LN5@lIsRiverCr
	push	OFFSET $SG223013
	push	1
	push	esi
	call	_lua_getfield
	push	-1
	push	esi
	call	_lua_type
	add	esp, 20					; 00000014H
	cmp	eax, 2
	jne	SHORT $LN5@lIsRiverCr
	push	-1
	push	esi
	call	_lua_touserdata
	mov	edi, eax
	add	esp, 8
	test	edi, edi
	je	SHORT $LN5@lIsRiverCr
	xor	bl, bl
$LN5@lIsRiverCr:
	push	ebp
	push	esi
	call	_lua_settop
	add	esp, 8
	test	bl, bl
	je	SHORT $LN12@lIsRiverCr
	push	OFFSET $SG223019
	push	esi
	call	_luaL_error
	push	OFFSET $SG223027
	push	esi
	call	_luaL_error
	add	esp, 16					; 00000010H
$LN12@lIsRiverCr:

; 497  : 	const DirectionTypes eDirection = (DirectionTypes)lua_tointeger(L, 2);

	push	2
	push	esi
	call	_lua_tointeger
	add	esp, 8

; 498  : 	const bool bResult = pkPlot->isRiverCrossingFlowClockwise(eDirection);

	push	eax
	mov	ecx, edi
	call	?isRiverCrossingFlowClockwise@CvPlot@@QBE_NW4DirectionTypes@@@Z ; CvPlot::isRiverCrossingFlowClockwise

; 499  : 	lua_pushboolean(L, bResult);

	movzx	eax, al
	push	eax
	push	esi
	call	_lua_pushboolean
	add	esp, 8
	pop	edi
	pop	esi
	pop	ebp

; 500  : 	return 1;

	mov	eax, 1
	pop	ebx

; 501  : }

	ret	0
?lIsRiverCrossingFlowClockwise@CvLuaPlot@@KAHPAUlua_State@@@Z ENDP ; CvLuaPlot::lIsRiverCrossingFlowClockwise
_TEXT	ENDS
PUBLIC	?lGetNearestLandArea@CvLuaPlot@@KAHPAUlua_State@@@Z ; CvLuaPlot::lGetNearestLandArea
EXTRN	?getNearestLandArea@CvPlot@@QBEHXZ:PROC		; CvPlot::getNearestLandArea
; Function compile flags: /Ogtpy
;	COMDAT ?lGetNearestLandArea@CvLuaPlot@@KAHPAUlua_State@@@Z
_TEXT	SEGMENT
_L$ = 8							; size = 4
?lGetNearestLandArea@CvLuaPlot@@KAHPAUlua_State@@@Z PROC ; CvLuaPlot::lGetNearestLandArea, COMDAT

; 506  : 	return BasicLuaMethod(L, &CvPlot::getNearestLandArea);

	mov	eax, DWORD PTR _L$[esp-4]
	push	OFFSET ?getNearestLandArea@CvPlot@@QBEHXZ ; CvPlot::getNearestLandArea
	push	eax
	call	??$BasicLuaMethod@H@?$CvLuaMethodWrapper@VCvLuaPlot@@VCvPlot@@@@KAHPAUlua_State@@P8CvPlot@@BEHXZ@Z ; CvLuaMethodWrapper<CvLuaPlot,CvPlot>::BasicLuaMethod<int>
	add	esp, 8

; 507  : }

	ret	0
?lGetNearestLandArea@CvLuaPlot@@KAHPAUlua_State@@@Z ENDP ; CvLuaPlot::lGetNearestLandArea
_TEXT	ENDS
PUBLIC	?lSeeFromLevel@CvLuaPlot@@KAHPAUlua_State@@@Z	; CvLuaPlot::lSeeFromLevel
EXTRN	?seeFromLevel@CvPlot@@QBEHW4TeamTypes@@@Z:PROC	; CvPlot::seeFromLevel
; Function compile flags: /Ogtpy
;	COMDAT ?lSeeFromLevel@CvLuaPlot@@KAHPAUlua_State@@@Z
_TEXT	SEGMENT
_L$ = 8							; size = 4
?lSeeFromLevel@CvLuaPlot@@KAHPAUlua_State@@@Z PROC	; CvLuaPlot::lSeeFromLevel, COMDAT

; 512  : 	return BasicLuaMethod(L, &CvPlot::seeFromLevel);

	mov	eax, DWORD PTR _L$[esp-4]
	push	OFFSET ?seeFromLevel@CvPlot@@QBEHW4TeamTypes@@@Z ; CvPlot::seeFromLevel
	push	eax
	call	??$BasicLuaMethod@HW4TeamTypes@@@?$CvLuaMethodWrapper@VCvLuaPlot@@VCvPlot@@@@KAHPAUlua_State@@P8CvPlot@@BEHW4TeamTypes@@@Z@Z ; CvLuaMethodWrapper<CvLuaPlot,CvPlot>::BasicLuaMethod<int,enum TeamTypes>
	add	esp, 8

; 513  : }

	ret	0
?lSeeFromLevel@CvLuaPlot@@KAHPAUlua_State@@@Z ENDP	; CvLuaPlot::lSeeFromLevel
_TEXT	ENDS
PUBLIC	?Push@?$CvLuaScopedInstance@VCvLuaPlot@@VCvPlot@@@@SAXPAUlua_State@@PAVCvPlot@@@Z ; CvLuaScopedInstance<CvLuaPlot,CvPlot>::Push
PUBLIC	?lGetNearestLandPlot@CvLuaPlot@@KAHPAUlua_State@@@Z ; CvLuaPlot::lGetNearestLandPlot
EXTRN	?getNearestLandPlot@CvPlot@@QBEPAV1@XZ:PROC	; CvPlot::getNearestLandPlot
; Function compile flags: /Ogtpy
;	COMDAT ?lGetNearestLandPlot@CvLuaPlot@@KAHPAUlua_State@@@Z
_TEXT	SEGMENT
_L$ = 8							; size = 4
?lGetNearestLandPlot@CvLuaPlot@@KAHPAUlua_State@@@Z PROC ; CvLuaPlot::lGetNearestLandPlot, COMDAT

; 517  : {

	push	ebx
	push	ebp
	push	esi

; 518  : 	CvPlot* pkPlot = GetInstance(L);

	mov	esi, DWORD PTR _L$[esp+8]
	push	edi
	push	esi
	call	_lua_gettop
	push	1
	push	esi
	mov	ebp, eax
	mov	bl, 1
	xor	edi, edi
	call	_lua_type
	add	esp, 12					; 0000000cH
	cmp	eax, 5
	jne	SHORT $LN5@lGetNeares
	push	OFFSET $SG223013
	push	1
	push	esi
	call	_lua_getfield
	push	-1
	push	esi
	call	_lua_type
	add	esp, 20					; 00000014H
	cmp	eax, 2
	jne	SHORT $LN5@lGetNeares
	push	-1
	push	esi
	call	_lua_touserdata
	mov	edi, eax
	add	esp, 8
	test	edi, edi
	je	SHORT $LN5@lGetNeares
	xor	bl, bl
$LN5@lGetNeares:
	push	ebp
	push	esi
	call	_lua_settop
	add	esp, 8
	test	bl, bl
	je	SHORT $LN12@lGetNeares
	push	OFFSET $SG223019
	push	esi
	call	_luaL_error
	push	OFFSET $SG223027
	push	esi
	call	_luaL_error
	add	esp, 16					; 00000010H
$LN12@lGetNeares:

; 519  : 	CvPlot* pkNearestPlot = pkPlot->getNearestLandPlot();

	mov	ecx, edi
	call	?getNearestLandPlot@CvPlot@@QBEPAV1@XZ	; CvPlot::getNearestLandPlot

; 520  : 	CvLuaPlot::Push(L, pkNearestPlot);

	push	eax
	push	esi
	call	?Push@?$CvLuaScopedInstance@VCvLuaPlot@@VCvPlot@@@@SAXPAUlua_State@@PAVCvPlot@@@Z ; CvLuaScopedInstance<CvLuaPlot,CvPlot>::Push
	add	esp, 8
	pop	edi
	pop	esi
	pop	ebp

; 521  : 	return 1;

	mov	eax, 1
	pop	ebx

; 522  : }

	ret	0
?lGetNearestLandPlot@CvLuaPlot@@KAHPAUlua_State@@@Z ENDP ; CvLuaPlot::lGetNearestLandPlot
_TEXT	ENDS
PUBLIC	?lSeeThroughLevel@CvLuaPlot@@KAHPAUlua_State@@@Z ; CvLuaPlot::lSeeThroughLevel
EXTRN	?seeThroughLevel@CvPlot@@QBEH_N@Z:PROC		; CvPlot::seeThroughLevel
; Function compile flags: /Ogtpy
;	COMDAT ?lSeeThroughLevel@CvLuaPlot@@KAHPAUlua_State@@@Z
_TEXT	SEGMENT
_L$ = 8							; size = 4
?lSeeThroughLevel@CvLuaPlot@@KAHPAUlua_State@@@Z PROC	; CvLuaPlot::lSeeThroughLevel, COMDAT

; 527  : 	return BasicLuaMethod(L, &CvPlot::seeThroughLevel);

	mov	eax, DWORD PTR _L$[esp-4]
	push	OFFSET ?seeThroughLevel@CvPlot@@QBEH_N@Z ; CvPlot::seeThroughLevel
	push	eax
	call	??$BasicLuaMethod@H_N@?$CvLuaMethodWrapper@VCvLuaPlot@@VCvPlot@@@@KAHPAUlua_State@@P8CvPlot@@BEH_N@Z@Z ; CvLuaMethodWrapper<CvLuaPlot,CvPlot>::BasicLuaMethod<int,bool>
	add	esp, 8

; 528  : }

	ret	0
?lSeeThroughLevel@CvLuaPlot@@KAHPAUlua_State@@@Z ENDP	; CvLuaPlot::lSeeThroughLevel
_TEXT	ENDS
PUBLIC	?lCanHaveResource@CvLuaPlot@@KAHPAUlua_State@@@Z ; CvLuaPlot::lCanHaveResource
EXTRN	?canHaveResource@CvPlot@@QBE_NW4ResourceTypes@@_N@Z:PROC ; CvPlot::canHaveResource
; Function compile flags: /Ogtpy
;	COMDAT ?lCanHaveResource@CvLuaPlot@@KAHPAUlua_State@@@Z
_TEXT	SEGMENT
_L$ = 8							; size = 4
?lCanHaveResource@CvLuaPlot@@KAHPAUlua_State@@@Z PROC	; CvLuaPlot::lCanHaveResource, COMDAT

; 533  : 	return BasicLuaMethod(L, &CvPlot::canHaveResource);

	mov	eax, DWORD PTR _L$[esp-4]
	push	OFFSET ?canHaveResource@CvPlot@@QBE_NW4ResourceTypes@@_N@Z ; CvPlot::canHaveResource
	push	eax
	call	??$BasicLuaMethod@_NW4ResourceTypes@@_N@?$CvLuaMethodWrapper@VCvLuaPlot@@VCvPlot@@@@KAHPAUlua_State@@P8CvPlot@@BE_NW4ResourceTypes@@_N@Z@Z ; CvLuaMethodWrapper<CvLuaPlot,CvPlot>::BasicLuaMethod<bool,enum ResourceTypes,bool>
	add	esp, 8

; 534  : }

	ret	0
?lCanHaveResource@CvLuaPlot@@KAHPAUlua_State@@@Z ENDP	; CvLuaPlot::lCanHaveResource
_TEXT	ENDS
PUBLIC	?lCanHaveImprovement@CvLuaPlot@@KAHPAUlua_State@@@Z ; CvLuaPlot::lCanHaveImprovement
EXTRN	?canHaveImprovement@CvPlot@@QBE_NW4ImprovementTypes@@W4TeamTypes@@_N@Z:PROC ; CvPlot::canHaveImprovement
; Function compile flags: /Ogtpy
;	COMDAT ?lCanHaveImprovement@CvLuaPlot@@KAHPAUlua_State@@@Z
_TEXT	SEGMENT
_L$ = 8							; size = 4
?lCanHaveImprovement@CvLuaPlot@@KAHPAUlua_State@@@Z PROC ; CvLuaPlot::lCanHaveImprovement, COMDAT

; 539  : 	return BasicLuaMethod(L, &CvPlot::canHaveImprovement);

	mov	eax, DWORD PTR _L$[esp-4]
	push	OFFSET ?canHaveImprovement@CvPlot@@QBE_NW4ImprovementTypes@@W4TeamTypes@@_N@Z ; CvPlot::canHaveImprovement
	push	eax
	call	??$BasicLuaMethod@_NW4ImprovementTypes@@W4TeamTypes@@_N@?$CvLuaMethodWrapper@VCvLuaPlot@@VCvPlot@@@@KAHPAUlua_State@@P8CvPlot@@BE_NW4ImprovementTypes@@W4TeamTypes@@_N@Z@Z ; CvLuaMethodWrapper<CvLuaPlot,CvPlot>::BasicLuaMethod<bool,enum ImprovementTypes,enum TeamTypes,bool>
	add	esp, 8

; 540  : }

	ret	0
?lCanHaveImprovement@CvLuaPlot@@KAHPAUlua_State@@@Z ENDP ; CvLuaPlot::lCanHaveImprovement
_TEXT	ENDS
PUBLIC	?lCanBuild@CvLuaPlot@@KAHPAUlua_State@@@Z	; CvLuaPlot::lCanBuild
EXTRN	?canBuild@CvPlot@@QBE_NW4BuildTypes@@W4PlayerTypes@@_N2@Z:PROC ; CvPlot::canBuild
; Function compile flags: /Ogtpy
;	COMDAT ?lCanBuild@CvLuaPlot@@KAHPAUlua_State@@@Z
_TEXT	SEGMENT
_L$ = 8							; size = 4
