; Listing generated by Microsoft (R) Optimizing Compiler Version 15.00.30729.01 

	TITLE	c:\Users\EnormousApplePie\Documents\GitHub\Lekmod\LEKMOD_DLL\CvGameCoreDLL_Expansion2\Lua\CvLuaDeal.cpp
	.686P
	.XMM
	include listing.inc
	.model	flat

INCLUDELIB MSVCRT
INCLUDELIB OLDNAMES

CONST	SEGMENT
$SG219097 DB	'ClearItems', 00H
	ORG $+1
$SG219098 DB	'GetNumItems', 00H
$SG219099 DB	'GetStartTurn', 00H
	ORG $+3
$SG219100 DB	'GetEndTurn', 00H
	ORG $+1
$SG219101 DB	'GetDuration', 00H
$SG219102 DB	'GetOtherPlayer', 00H
	ORG $+1
$SG219103 DB	'GetFromPlayer', 00H
	ORG $+2
$SG219104 DB	'GetToPlayer', 00H
$SG219105 DB	'SetFromPlayer', 00H
	ORG $+2
$SG219106 DB	'SetToPlayer', 00H
$SG219107 DB	'GetSurrenderingPlayer', 00H
	ORG $+2
$SG219108 DB	'SetSurrenderingPlayer', 00H
	ORG $+2
$SG219109 DB	'GetDemandingPlayer', 00H
	ORG $+1
$SG219110 DB	'SetDemandingPlayer', 00H
	ORG $+1
$SG219111 DB	'GetRequestingPlayer', 00H
$SG219112 DB	'SetRequestingPlayer', 00H
$SG219113 DB	'ResetIterator', 00H
	ORG $+2
$SG219114 DB	'GetNextItem', 00H
$SG219115 DB	'GetGoldAvailable', 00H
	ORG $+3
$SG219116 DB	'IsPossibleToTradeItem', 00H
	ORG $+2
$SG219117 DB	'GetNumResource', 00H
	ORG $+1
$SG219118 DB	'AddGoldTrade', 00H
	ORG $+3
$SG219119 DB	'AddGoldPerTurnTrade', 00H
$SG219120 DB	'AddMapTrade', 00H
$SG219121 DB	'AddResourceTrade', 00H
	ORG $+3
$SG219122 DB	'AddCityTrade', 00H
	ORG $+3
$SG219123 DB	'AddUnitTrade', 00H
	ORG $+3
$SG219124 DB	'AddAllowEmbassy', 00H
$SG219125 DB	'AddOpenBorders', 00H
	ORG $+1
$SG219126 DB	'AddDefensivePact', 00H
	ORG $+3
$SG219127 DB	'AddResearchAgreement', 00H
	ORG $+3
$SG219128 DB	'AddTradeAgreement', 00H
	ORG $+2
$SG219129 DB	'AddPermamentAlliance', 00H
	ORG $+3
$SG219130 DB	'AddSurrender', 00H
	ORG $+3
$SG219131 DB	'AddTruce', 00H
	ORG $+3
$SG219132 DB	'AddPeaceTreaty', 00H
	ORG $+1
$SG219133 DB	'AddThirdPartyPeace', 00H
	ORG $+1
$SG219134 DB	'AddThirdPartyWar', 00H
	ORG $+3
$SG219135 DB	'AddThirdPartyEmbargo', 00H
	ORG $+3
$SG219136 DB	'AddDeclarationOfFriendship', 00H
	ORG $+1
$SG219137 DB	'AddVoteCommitment', 00H
	ORG $+2
$SG219138 DB	'RemoveByType', 00H
	ORG $+3
$SG219139 DB	'RemoveResourceTrade', 00H
$SG219140 DB	'RemoveCityTrade', 00H
$SG219141 DB	'RemoveUnitTrade', 00H
$SG219142 DB	'RemoveThirdPartyPeace', 00H
	ORG $+2
$SG219143 DB	'RemoveThirdPartyWar', 00H
$SG219144 DB	'RemoveThirdPartyEmbargo', 00H
$SG219145 DB	'RemoveVoteCommitment', 00H
	ORG $+3
$SG219146 DB	'ChangeGoldTrade', 00H
$SG219147 DB	'ChangeGoldPerTurnTrade', 00H
	ORG $+1
$SG219148 DB	'ChangeResourceTrade', 00H
$SG219149 DB	'ChangeThirdPartyWarDuration', 00H
$SG219150 DB	'ChangeThirdPartyPeaceDuration', 00H
	ORG $+2
$SG219151 DB	'ChangeThirdPartyEmbargoDuration', 00H
$SG219167 DB	'Deal', 00H
	ORG $+3
$SG219307 DB	'__instance', 00H
	ORG $+5
$SG219313 DB	'Not a valid instance.  Either the instance is NULL or yo'
	DB	'u used ''.'' instead of '':''.', 00H
	ORG $+1
$SG219321 DB	'Instance does not exist.', 00H
CONST	ENDS
EXTRN	_lua_tointeger:PROC
; Function compile flags: /Ogtpy
; File c:\users\enormousapplepie\documents\github\lekmod\lekmod_dll\cvgamecoredllutil\include\cvluaargtemplates.h
;	COMDAT ??$toValue@H@CvLuaArgs@@YAHPAUlua_State@@H@Z
_TEXT	SEGMENT
??$toValue@H@CvLuaArgs@@YAHPAUlua_State@@H@Z PROC	; CvLuaArgs::toValue<int>, COMDAT
; _L$ = ecx
; _idx$ = eax

; 19   : 		return lua_tointeger(L, idx);

	push	eax
	push	ecx
	call	_lua_tointeger
	add	esp, 8

; 20   : 	}

	ret	0
??$toValue@H@CvLuaArgs@@YAHPAUlua_State@@H@Z ENDP	; CvLuaArgs::toValue<int>
_TEXT	ENDS
EXTRN	_lua_pushinteger:PROC
; Function compile flags: /Ogtpy
;	COMDAT ??$pushValue@H@CvLuaArgs@@YAXPAUlua_State@@H@Z
_TEXT	SEGMENT
??$pushValue@H@CvLuaArgs@@YAXPAUlua_State@@H@Z PROC	; CvLuaArgs::pushValue<int>, COMDAT
; _L$ = ecx
; _t$ = eax

; 39   : 		lua_pushinteger(L, t);

	push	eax
	push	ecx
	call	_lua_pushinteger
	add	esp, 8

; 40   : 	}

	ret	0
??$pushValue@H@CvLuaArgs@@YAXPAUlua_State@@H@Z ENDP	; CvLuaArgs::pushValue<int>
_TEXT	ENDS
EXTRN	_lua_pushboolean:PROC
; Function compile flags: /Ogtpy
;	COMDAT ??$pushValue@_N@CvLuaArgs@@YAXPAUlua_State@@_N@Z
_TEXT	SEGMENT
??$pushValue@_N@CvLuaArgs@@YAXPAUlua_State@@_N@Z PROC	; CvLuaArgs::pushValue<bool>, COMDAT
; _L$ = ecx
; _t$ = eax

; 45   : 		lua_pushboolean(L, t);

	movzx	eax, al
	push	eax
	push	ecx
	call	_lua_pushboolean
	add	esp, 8

; 46   : 	}

	ret	0
??$pushValue@_N@CvLuaArgs@@YAXPAUlua_State@@_N@Z ENDP	; CvLuaArgs::pushValue<bool>
_TEXT	ENDS
PUBLIC	?GetTypeName@CvLuaDeal@@SAPBDXZ			; CvLuaDeal::GetTypeName
; Function compile flags: /Ogtpy
; File c:\users\enormousapplepie\documents\github\lekmod\lekmod_dll\cvgamecoredll_expansion2\lua\cvluadeal.cpp
;	COMDAT ?GetTypeName@CvLuaDeal@@SAPBDXZ
_TEXT	SEGMENT
?GetTypeName@CvLuaDeal@@SAPBDXZ PROC			; CvLuaDeal::GetTypeName, COMDAT

; 114  : 	return "Deal";

	mov	eax, OFFSET $SG219167

; 115  : }

	ret	0
?GetTypeName@CvLuaDeal@@SAPBDXZ ENDP			; CvLuaDeal::GetTypeName
_TEXT	ENDS
PUBLIC	??1?$base_iterator@Vbase_iterator_tail@?$FCustomList_Core@U?$MultiListNodePolicy@UCvTradedItem@@@@V?$FFastAllocator@U?$MultiListNodePolicy@UCvTradedItem@@@@$0A@$0BF@$0A@UFDefaultFastVectorAllocator@?$BaseVector@U?$MultiListNodePolicy@UCvTradedItem@@@@$0A@@@@@V?$FCustomList_Tail_Member@V?$FFastAllocator@U?$MultiListNodePolicy@UCvTradedItem@@@@$0A@$0BF@$0A@UFDefaultFastVectorAllocator@?$BaseVector@U?$MultiListNodePolicy@UCvTradedItem@@@@$0A@@@@@@@@@@?$FCustomList_Core@U?$MultiListNodePolicy@UCvTradedItem@@@@V?$FFastAllocator@U?$MultiListNodePolicy@UCvTradedItem@@@@$0A@$0BF@$0A@UFDefaultFastVectorAllocator@?$BaseVector@U?$MultiListNodePolicy@UCvTradedItem@@@@$0A@@@@@V?$FCustomList_Tail_Member@V?$FFastAllocator@U?$MultiListNodePolicy@UCvTradedItem@@@@$0A@$0BF@$0A@UFDefaultFastVectorAllocator@?$BaseVector@U?$MultiListNodePolicy@UCvTradedItem@@@@$0A@@@@@@@@@QAE@XZ ; FCustomList_Core<MultiListNodePolicy<CvTradedItem>,FFastAllocator<MultiListNodePolicy<CvTradedItem>,0,21,0,BaseVector<MultiListNodePolicy<CvTradedItem>,0>::FDefaultFastVectorAllocator>,FCustomList_Tail_Member<FFastAllocator<MultiListNodePolicy<CvTradedItem>,0,21,0,BaseVector<MultiListNodePolicy<CvTradedItem>,0>::FDefaultFastVectorAllocator> > >::base_iterator<FCustomList_Core<MultiListNodePolicy<CvTradedItem>,FFastAllocator<MultiListNodePolicy<CvTradedItem>,0,21,0,BaseVector<MultiListNodePolicy<CvTradedItem>,0>::FDefaultFastVectorAllocator>,FCustomList_Tail_Member<FFastAllocator<MultiListNodePolicy<CvTradedItem>,0,21,0,BaseVector<MultiListNodePolicy<CvTradedItem>,0>::FDefaultFastVectorAllocator> > >::base_iterator_tail>::~base_iterator<FCustomList_Core<MultiListNodePolicy<CvTradedItem>,FFastAllocator<MultiListNodePolicy<CvTradedItem>,0,21,0,BaseVector<MultiListNodePolicy<CvTradedItem>,0>::FDefaultFastVectorAllocator>,FCustomList_Tail_Member<FFastAllocator<MultiListNodePolicy<CvTradedItem>,0,21,0,BaseVector<MultiListNodePolicy<CvTradedItem>,0>::FDefaultFastVectorAllocator> > >::base_iterator_tail>
; Function compile flags: /Ogtpy
; File c:\users\enormousapplepie\documents\github\lekmod\lekmod_dll\fireplace\include\fireworks\ffastlist.h
;	COMDAT ??1?$base_iterator@Vbase_iterator_tail@?$FCustomList_Core@U?$MultiListNodePolicy@UCvTradedItem@@@@V?$FFastAllocator@U?$MultiListNodePolicy@UCvTradedItem@@@@$0A@$0BF@$0A@UFDefaultFastVectorAllocator@?$BaseVector@U?$MultiListNodePolicy@UCvTradedItem@@@@$0A@@@@@V?$FCustomList_Tail_Member@V?$FFastAllocator@U?$MultiListNodePolicy@UCvTradedItem@@@@$0A@$0BF@$0A@UFDefaultFastVectorAllocator@?$BaseVector@U?$MultiListNodePolicy@UCvTradedItem@@@@$0A@@@@@@@@@@?$FCustomList_Core@U?$MultiListNodePolicy@UCvTradedItem@@@@V?$FFastAllocator@U?$MultiListNodePolicy@UCvTradedItem@@@@$0A@$0BF@$0A@UFDefaultFastVectorAllocator@?$BaseVector@U?$MultiListNodePolicy@UCvTradedItem@@@@$0A@@@@@V?$FCustomList_Tail_Member@V?$FFastAllocator@U?$MultiListNodePolicy@UCvTradedItem@@@@$0A@$0BF@$0A@UFDefaultFastVectorAllocator@?$BaseVector@U?$MultiListNodePolicy@UCvTradedItem@@@@$0A@@@@@@@@@QAE@XZ
_TEXT	SEGMENT
??1?$base_iterator@Vbase_iterator_tail@?$FCustomList_Core@U?$MultiListNodePolicy@UCvTradedItem@@@@V?$FFastAllocator@U?$MultiListNodePolicy@UCvTradedItem@@@@$0A@$0BF@$0A@UFDefaultFastVectorAllocator@?$BaseVector@U?$MultiListNodePolicy@UCvTradedItem@@@@$0A@@@@@V?$FCustomList_Tail_Member@V?$FFastAllocator@U?$MultiListNodePolicy@UCvTradedItem@@@@$0A@$0BF@$0A@UFDefaultFastVectorAllocator@?$BaseVector@U?$MultiListNodePolicy@UCvTradedItem@@@@$0A@@@@@@@@@@?$FCustomList_Core@U?$MultiListNodePolicy@UCvTradedItem@@@@V?$FFastAllocator@U?$MultiListNodePolicy@UCvTradedItem@@@@$0A@$0BF@$0A@UFDefaultFastVectorAllocator@?$BaseVector@U?$MultiListNodePolicy@UCvTradedItem@@@@$0A@@@@@V?$FCustomList_Tail_Member@V?$FFastAllocator@U?$MultiListNodePolicy@UCvTradedItem@@@@$0A@$0BF@$0A@UFDefaultFastVectorAllocator@?$BaseVector@U?$MultiListNodePolicy@UCvTradedItem@@@@$0A@@@@@@@@@QAE@XZ PROC ; FCustomList_Core<MultiListNodePolicy<CvTradedItem>,FFastAllocator<MultiListNodePolicy<CvTradedItem>,0,21,0,BaseVector<MultiListNodePolicy<CvTradedItem>,0>::FDefaultFastVectorAllocator>,FCustomList_Tail_Member<FFastAllocator<MultiListNodePolicy<CvTradedItem>,0,21,0,BaseVector<MultiListNodePolicy<CvTradedItem>,0>::FDefaultFastVectorAllocator> > >::base_iterator<FCustomList_Core<MultiListNodePolicy<CvTradedItem>,FFastAllocator<MultiListNodePolicy<CvTradedItem>,0,21,0,BaseVector<MultiListNodePolicy<CvTradedItem>,0>::FDefaultFastVectorAllocator>,FCustomList_Tail_Member<FFastAllocator<MultiListNodePolicy<CvTradedItem>,0,21,0,BaseVector<MultiListNodePolicy<CvTradedItem>,0>::FDefaultFastVectorAllocator> > >::base_iterator_tail>::~base_iterator<FCustomList_Core<MultiListNodePolicy<CvTradedItem>,FFastAllocator<MultiListNodePolicy<CvTradedItem>,0,21,0,BaseVector<MultiListNodePolicy<CvTradedItem>,0>::FDefaultFastVectorAllocator>,FCustomList_Tail_Member<FFastAllocator<MultiListNodePolicy<CvTradedItem>,0,21,0,BaseVector<MultiListNodePolicy<CvTradedItem>,0>::FDefaultFastVectorAllocator> > >::base_iterator_tail>, COMDAT
; _this$ = ecx

; 299  : 		~base_iterator(){};

	ret	0
??1?$base_iterator@Vbase_iterator_tail@?$FCustomList_Core@U?$MultiListNodePolicy@UCvTradedItem@@@@V?$FFastAllocator@U?$MultiListNodePolicy@UCvTradedItem@@@@$0A@$0BF@$0A@UFDefaultFastVectorAllocator@?$BaseVector@U?$MultiListNodePolicy@UCvTradedItem@@@@$0A@@@@@V?$FCustomList_Tail_Member@V?$FFastAllocator@U?$MultiListNodePolicy@UCvTradedItem@@@@$0A@$0BF@$0A@UFDefaultFastVectorAllocator@?$BaseVector@U?$MultiListNodePolicy@UCvTradedItem@@@@$0A@@@@@@@@@@?$FCustomList_Core@U?$MultiListNodePolicy@UCvTradedItem@@@@V?$FFastAllocator@U?$MultiListNodePolicy@UCvTradedItem@@@@$0A@$0BF@$0A@UFDefaultFastVectorAllocator@?$BaseVector@U?$MultiListNodePolicy@UCvTradedItem@@@@$0A@@@@@V?$FCustomList_Tail_Member@V?$FFastAllocator@U?$MultiListNodePolicy@UCvTradedItem@@@@$0A@$0BF@$0A@UFDefaultFastVectorAllocator@?$BaseVector@U?$MultiListNodePolicy@UCvTradedItem@@@@$0A@@@@@@@@@QAE@XZ ENDP ; FCustomList_Core<MultiListNodePolicy<CvTradedItem>,FFastAllocator<MultiListNodePolicy<CvTradedItem>,0,21,0,BaseVector<MultiListNodePolicy<CvTradedItem>,0>::FDefaultFastVectorAllocator>,FCustomList_Tail_Member<FFastAllocator<MultiListNodePolicy<CvTradedItem>,0,21,0,BaseVector<MultiListNodePolicy<CvTradedItem>,0>::FDefaultFastVectorAllocator> > >::base_iterator<FCustomList_Core<MultiListNodePolicy<CvTradedItem>,FFastAllocator<MultiListNodePolicy<CvTradedItem>,0,21,0,BaseVector<MultiListNodePolicy<CvTradedItem>,0>::FDefaultFastVectorAllocator>,FCustomList_Tail_Member<FFastAllocator<MultiListNodePolicy<CvTradedItem>,0,21,0,BaseVector<MultiListNodePolicy<CvTradedItem>,0>::FDefaultFastVectorAllocator> > >::base_iterator_tail>::~base_iterator<FCustomList_Core<MultiListNodePolicy<CvTradedItem>,FFastAllocator<MultiListNodePolicy<CvTradedItem>,0,21,0,BaseVector<MultiListNodePolicy<CvTradedItem>,0>::FDefaultFastVectorAllocator>,FCustomList_Tail_Member<FFastAllocator<MultiListNodePolicy<CvTradedItem>,0,21,0,BaseVector<MultiListNodePolicy<CvTradedItem>,0>::FDefaultFastVectorAllocator> > >::base_iterator_tail>
_TEXT	ENDS
PUBLIC	??8?$base_iterator@Vbase_iterator_tail@?$FCustomList_Core@U?$MultiListNodePolicy@UCvTradedItem@@@@V?$FFastAllocator@U?$MultiListNodePolicy@UCvTradedItem@@@@$0A@$0BF@$0A@UFDefaultFastVectorAllocator@?$BaseVector@U?$MultiListNodePolicy@UCvTradedItem@@@@$0A@@@@@V?$FCustomList_Tail_Member@V?$FFastAllocator@U?$MultiListNodePolicy@UCvTradedItem@@@@$0A@$0BF@$0A@UFDefaultFastVectorAllocator@?$BaseVector@U?$MultiListNodePolicy@UCvTradedItem@@@@$0A@@@@@@@@@@?$FCustomList_Core@U?$MultiListNodePolicy@UCvTradedItem@@@@V?$FFastAllocator@U?$MultiListNodePolicy@UCvTradedItem@@@@$0A@$0BF@$0A@UFDefaultFastVectorAllocator@?$BaseVector@U?$MultiListNodePolicy@UCvTradedItem@@@@$0A@@@@@V?$FCustomList_Tail_Member@V?$FFastAllocator@U?$MultiListNodePolicy@UCvTradedItem@@@@$0A@$0BF@$0A@UFDefaultFastVectorAllocator@?$BaseVector@U?$MultiListNodePolicy@UCvTradedItem@@@@$0A@@@@@@@@@QBE_NABV01@@Z ; FCustomList_Core<MultiListNodePolicy<CvTradedItem>,FFastAllocator<MultiListNodePolicy<CvTradedItem>,0,21,0,BaseVector<MultiListNodePolicy<CvTradedItem>,0>::FDefaultFastVectorAllocator>,FCustomList_Tail_Member<FFastAllocator<MultiListNodePolicy<CvTradedItem>,0,21,0,BaseVector<MultiListNodePolicy<CvTradedItem>,0>::FDefaultFastVectorAllocator> > >::base_iterator<FCustomList_Core<MultiListNodePolicy<CvTradedItem>,FFastAllocator<MultiListNodePolicy<CvTradedItem>,0,21,0,BaseVector<MultiListNodePolicy<CvTradedItem>,0>::FDefaultFastVectorAllocator>,FCustomList_Tail_Member<FFastAllocator<MultiListNodePolicy<CvTradedItem>,0,21,0,BaseVector<MultiListNodePolicy<CvTradedItem>,0>::FDefaultFastVectorAllocator> > >::base_iterator_tail>::operator==
; Function compile flags: /Ogtpy
;	COMDAT ??8?$base_iterator@Vbase_iterator_tail@?$FCustomList_Core@U?$MultiListNodePolicy@UCvTradedItem@@@@V?$FFastAllocator@U?$MultiListNodePolicy@UCvTradedItem@@@@$0A@$0BF@$0A@UFDefaultFastVectorAllocator@?$BaseVector@U?$MultiListNodePolicy@UCvTradedItem@@@@$0A@@@@@V?$FCustomList_Tail_Member@V?$FFastAllocator@U?$MultiListNodePolicy@UCvTradedItem@@@@$0A@$0BF@$0A@UFDefaultFastVectorAllocator@?$BaseVector@U?$MultiListNodePolicy@UCvTradedItem@@@@$0A@@@@@@@@@@?$FCustomList_Core@U?$MultiListNodePolicy@UCvTradedItem@@@@V?$FFastAllocator@U?$MultiListNodePolicy@UCvTradedItem@@@@$0A@$0BF@$0A@UFDefaultFastVectorAllocator@?$BaseVector@U?$MultiListNodePolicy@UCvTradedItem@@@@$0A@@@@@V?$FCustomList_Tail_Member@V?$FFastAllocator@U?$MultiListNodePolicy@UCvTradedItem@@@@$0A@$0BF@$0A@UFDefaultFastVectorAllocator@?$BaseVector@U?$MultiListNodePolicy@UCvTradedItem@@@@$0A@@@@@@@@@QBE_NABV01@@Z
_TEXT	SEGMENT
_rhs$ = 8						; size = 4
??8?$base_iterator@Vbase_iterator_tail@?$FCustomList_Core@U?$MultiListNodePolicy@UCvTradedItem@@@@V?$FFastAllocator@U?$MultiListNodePolicy@UCvTradedItem@@@@$0A@$0BF@$0A@UFDefaultFastVectorAllocator@?$BaseVector@U?$MultiListNodePolicy@UCvTradedItem@@@@$0A@@@@@V?$FCustomList_Tail_Member@V?$FFastAllocator@U?$MultiListNodePolicy@UCvTradedItem@@@@$0A@$0BF@$0A@UFDefaultFastVectorAllocator@?$BaseVector@U?$MultiListNodePolicy@UCvTradedItem@@@@$0A@@@@@@@@@@?$FCustomList_Core@U?$MultiListNodePolicy@UCvTradedItem@@@@V?$FFastAllocator@U?$MultiListNodePolicy@UCvTradedItem@@@@$0A@$0BF@$0A@UFDefaultFastVectorAllocator@?$BaseVector@U?$MultiListNodePolicy@UCvTradedItem@@@@$0A@@@@@V?$FCustomList_Tail_Member@V?$FFastAllocator@U?$MultiListNodePolicy@UCvTradedItem@@@@$0A@$0BF@$0A@UFDefaultFastVectorAllocator@?$BaseVector@U?$MultiListNodePolicy@UCvTradedItem@@@@$0A@@@@@@@@@QBE_NABV01@@Z PROC ; FCustomList_Core<MultiListNodePolicy<CvTradedItem>,FFastAllocator<MultiListNodePolicy<CvTradedItem>,0,21,0,BaseVector<MultiListNodePolicy<CvTradedItem>,0>::FDefaultFastVectorAllocator>,FCustomList_Tail_Member<FFastAllocator<MultiListNodePolicy<CvTradedItem>,0,21,0,BaseVector<MultiListNodePolicy<CvTradedItem>,0>::FDefaultFastVectorAllocator> > >::base_iterator<FCustomList_Core<MultiListNodePolicy<CvTradedItem>,FFastAllocator<MultiListNodePolicy<CvTradedItem>,0,21,0,BaseVector<MultiListNodePolicy<CvTradedItem>,0>::FDefaultFastVectorAllocator>,FCustomList_Tail_Member<FFastAllocator<MultiListNodePolicy<CvTradedItem>,0,21,0,BaseVector<MultiListNodePolicy<CvTradedItem>,0>::FDefaultFastVectorAllocator> > >::base_iterator_tail>::operator==, COMDAT
; _this$ = ecx

; 349  : 			return m_uiCurrPos == rhs.m_uiCurrPos;

	mov	eax, DWORD PTR [ecx+4]
	mov	edx, DWORD PTR _rhs$[esp-4]
	xor	ecx, ecx
	cmp	eax, DWORD PTR [edx+4]
	sete	cl
	mov	al, cl

; 350  : 		};

	ret	4
??8?$base_iterator@Vbase_iterator_tail@?$FCustomList_Core@U?$MultiListNodePolicy@UCvTradedItem@@@@V?$FFastAllocator@U?$MultiListNodePolicy@UCvTradedItem@@@@$0A@$0BF@$0A@UFDefaultFastVectorAllocator@?$BaseVector@U?$MultiListNodePolicy@UCvTradedItem@@@@$0A@@@@@V?$FCustomList_Tail_Member@V?$FFastAllocator@U?$MultiListNodePolicy@UCvTradedItem@@@@$0A@$0BF@$0A@UFDefaultFastVectorAllocator@?$BaseVector@U?$MultiListNodePolicy@UCvTradedItem@@@@$0A@@@@@@@@@@?$FCustomList_Core@U?$MultiListNodePolicy@UCvTradedItem@@@@V?$FFastAllocator@U?$MultiListNodePolicy@UCvTradedItem@@@@$0A@$0BF@$0A@UFDefaultFastVectorAllocator@?$BaseVector@U?$MultiListNodePolicy@UCvTradedItem@@@@$0A@@@@@V?$FCustomList_Tail_Member@V?$FFastAllocator@U?$MultiListNodePolicy@UCvTradedItem@@@@$0A@$0BF@$0A@UFDefaultFastVectorAllocator@?$BaseVector@U?$MultiListNodePolicy@UCvTradedItem@@@@$0A@@@@@@@@@QBE_NABV01@@Z ENDP ; FCustomList_Core<MultiListNodePolicy<CvTradedItem>,FFastAllocator<MultiListNodePolicy<CvTradedItem>,0,21,0,BaseVector<MultiListNodePolicy<CvTradedItem>,0>::FDefaultFastVectorAllocator>,FCustomList_Tail_Member<FFastAllocator<MultiListNodePolicy<CvTradedItem>,0,21,0,BaseVector<MultiListNodePolicy<CvTradedItem>,0>::FDefaultFastVectorAllocator> > >::base_iterator<FCustomList_Core<MultiListNodePolicy<CvTradedItem>,FFastAllocator<MultiListNodePolicy<CvTradedItem>,0,21,0,BaseVector<MultiListNodePolicy<CvTradedItem>,0>::FDefaultFastVectorAllocator>,FCustomList_Tail_Member<FFastAllocator<MultiListNodePolicy<CvTradedItem>,0,21,0,BaseVector<MultiListNodePolicy<CvTradedItem>,0>::FDefaultFastVectorAllocator> > >::base_iterator_tail>::operator==
_TEXT	ENDS
PUBLIC	??1iterator@?$FCustomList_Core@U?$MultiListNodePolicy@UCvTradedItem@@@@V?$FFastAllocator@U?$MultiListNodePolicy@UCvTradedItem@@@@$0A@$0BF@$0A@UFDefaultFastVectorAllocator@?$BaseVector@U?$MultiListNodePolicy@UCvTradedItem@@@@$0A@@@@@V?$FCustomList_Tail_Member@V?$FFastAllocator@U?$MultiListNodePolicy@UCvTradedItem@@@@$0A@$0BF@$0A@UFDefaultFastVectorAllocator@?$BaseVector@U?$MultiListNodePolicy@UCvTradedItem@@@@$0A@@@@@@@@@QAE@XZ ; FCustomList_Core<MultiListNodePolicy<CvTradedItem>,FFastAllocator<MultiListNodePolicy<CvTradedItem>,0,21,0,BaseVector<MultiListNodePolicy<CvTradedItem>,0>::FDefaultFastVectorAllocator>,FCustomList_Tail_Member<FFastAllocator<MultiListNodePolicy<CvTradedItem>,0,21,0,BaseVector<MultiListNodePolicy<CvTradedItem>,0>::FDefaultFastVectorAllocator> > >::iterator::~iterator
; Function compile flags: /Ogtpy
;	COMDAT ??1iterator@?$FCustomList_Core@U?$MultiListNodePolicy@UCvTradedItem@@@@V?$FFastAllocator@U?$MultiListNodePolicy@UCvTradedItem@@@@$0A@$0BF@$0A@UFDefaultFastVectorAllocator@?$BaseVector@U?$MultiListNodePolicy@UCvTradedItem@@@@$0A@@@@@V?$FCustomList_Tail_Member@V?$FFastAllocator@U?$MultiListNodePolicy@UCvTradedItem@@@@$0A@$0BF@$0A@UFDefaultFastVectorAllocator@?$BaseVector@U?$MultiListNodePolicy@UCvTradedItem@@@@$0A@@@@@@@@@QAE@XZ
_TEXT	SEGMENT
??1iterator@?$FCustomList_Core@U?$MultiListNodePolicy@UCvTradedItem@@@@V?$FFastAllocator@U?$MultiListNodePolicy@UCvTradedItem@@@@$0A@$0BF@$0A@UFDefaultFastVectorAllocator@?$BaseVector@U?$MultiListNodePolicy@UCvTradedItem@@@@$0A@@@@@V?$FCustomList_Tail_Member@V?$FFastAllocator@U?$MultiListNodePolicy@UCvTradedItem@@@@$0A@$0BF@$0A@UFDefaultFastVectorAllocator@?$BaseVector@U?$MultiListNodePolicy@UCvTradedItem@@@@$0A@@@@@@@@@QAE@XZ PROC ; FCustomList_Core<MultiListNodePolicy<CvTradedItem>,FFastAllocator<MultiListNodePolicy<CvTradedItem>,0,21,0,BaseVector<MultiListNodePolicy<CvTradedItem>,0>::FDefaultFastVectorAllocator>,FCustomList_Tail_Member<FFastAllocator<MultiListNodePolicy<CvTradedItem>,0,21,0,BaseVector<MultiListNodePolicy<CvTradedItem>,0>::FDefaultFastVectorAllocator> > >::iterator::~iterator, COMDAT
; _this$ = ecx

; 381  : 		~iterator(){};

	ret	0
??1iterator@?$FCustomList_Core@U?$MultiListNodePolicy@UCvTradedItem@@@@V?$FFastAllocator@U?$MultiListNodePolicy@UCvTradedItem@@@@$0A@$0BF@$0A@UFDefaultFastVectorAllocator@?$BaseVector@U?$MultiListNodePolicy@UCvTradedItem@@@@$0A@@@@@V?$FCustomList_Tail_Member@V?$FFastAllocator@U?$MultiListNodePolicy@UCvTradedItem@@@@$0A@$0BF@$0A@UFDefaultFastVectorAllocator@?$BaseVector@U?$MultiListNodePolicy@UCvTradedItem@@@@$0A@@@@@@@@@QAE@XZ ENDP ; FCustomList_Core<MultiListNodePolicy<CvTradedItem>,FFastAllocator<MultiListNodePolicy<CvTradedItem>,0,21,0,BaseVector<MultiListNodePolicy<CvTradedItem>,0>::FDefaultFastVectorAllocator>,FCustomList_Tail_Member<FFastAllocator<MultiListNodePolicy<CvTradedItem>,0,21,0,BaseVector<MultiListNodePolicy<CvTradedItem>,0>::FDefaultFastVectorAllocator> > >::iterator::~iterator
_TEXT	ENDS
PUBLIC	?get_allocator@?$FCustomList_Tail_Member@V?$FFastAllocator@U?$MultiListNodePolicy@UCvTradedItem@@@@$0A@$0BF@$0A@UFDefaultFastVectorAllocator@?$BaseVector@U?$MultiListNodePolicy@UCvTradedItem@@@@$0A@@@@@@@QAEAAV?$FFastAllocator@U?$MultiListNodePolicy@UCvTradedItem@@@@$0A@$0BF@$0A@UFDefaultFastVectorAllocator@?$BaseVector@U?$MultiListNodePolicy@UCvTradedItem@@@@$0A@@@@@XZ ; FCustomList_Tail_Member<FFastAllocator<MultiListNodePolicy<CvTradedItem>,0,21,0,BaseVector<MultiListNodePolicy<CvTradedItem>,0>::FDefaultFastVectorAllocator> >::get_allocator
; Function compile flags: /Ogtpy
;	COMDAT ?get_allocator@?$FCustomList_Tail_Member@V?$FFastAllocator@U?$MultiListNodePolicy@UCvTradedItem@@@@$0A@$0BF@$0A@UFDefaultFastVectorAllocator@?$BaseVector@U?$MultiListNodePolicy@UCvTradedItem@@@@$0A@@@@@@@QAEAAV?$FFastAllocator@U?$MultiListNodePolicy@UCvTradedItem@@@@$0A@$0BF@$0A@UFDefaultFastVectorAllocator@?$BaseVector@U?$MultiListNodePolicy@UCvTradedItem@@@@$0A@@@@@XZ
_TEXT	SEGMENT
?get_allocator@?$FCustomList_Tail_Member@V?$FFastAllocator@U?$MultiListNodePolicy@UCvTradedItem@@@@$0A@$0BF@$0A@UFDefaultFastVectorAllocator@?$BaseVector@U?$MultiListNodePolicy@UCvTradedItem@@@@$0A@@@@@@@QAEAAV?$FFastAllocator@U?$MultiListNodePolicy@UCvTradedItem@@@@$0A@$0BF@$0A@UFDefaultFastVectorAllocator@?$BaseVector@U?$MultiListNodePolicy@UCvTradedItem@@@@$0A@@@@@XZ PROC ; FCustomList_Tail_Member<FFastAllocator<MultiListNodePolicy<CvTradedItem>,0,21,0,BaseVector<MultiListNodePolicy<CvTradedItem>,0>::FDefaultFastVectorAllocator> >::get_allocator, COMDAT
; _this$ = ecx

; 711  : 	T_ALLOCATOR& get_allocator(){ return m_kAllocator; };

	mov	eax, ecx
	ret	0
?get_allocator@?$FCustomList_Tail_Member@V?$FFastAllocator@U?$MultiListNodePolicy@UCvTradedItem@@@@$0A@$0BF@$0A@UFDefaultFastVectorAllocator@?$BaseVector@U?$MultiListNodePolicy@UCvTradedItem@@@@$0A@@@@@@@QAEAAV?$FFastAllocator@U?$MultiListNodePolicy@UCvTradedItem@@@@$0A@$0BF@$0A@UFDefaultFastVectorAllocator@?$BaseVector@U?$MultiListNodePolicy@UCvTradedItem@@@@$0A@@@@@XZ ENDP ; FCustomList_Tail_Member<FFastAllocator<MultiListNodePolicy<CvTradedItem>,0,21,0,BaseVector<MultiListNodePolicy<CvTradedItem>,0>::FDefaultFastVectorAllocator> >::get_allocator
_TEXT	ENDS
PUBLIC	??A?$BaseVector@U?$MultiListNodePolicy@UCvTradedItem@@@@$0A@@@QAEAAU?$MultiListNodePolicy@UCvTradedItem@@@@I@Z ; BaseVector<MultiListNodePolicy<CvTradedItem>,0>::operator[]
; Function compile flags: /Ogtpy
; File c:\users\enormousapplepie\documents\github\lekmod\lekmod_dll\fireplace\include\fireworks\ffastvector.h
;	COMDAT ??A?$BaseVector@U?$MultiListNodePolicy@UCvTradedItem@@@@$0A@@@QAEAAU?$MultiListNodePolicy@UCvTradedItem@@@@I@Z
_TEXT	SEGMENT
_ui$ = 8						; size = 4
??A?$BaseVector@U?$MultiListNodePolicy@UCvTradedItem@@@@$0A@@@QAEAAU?$MultiListNodePolicy@UCvTradedItem@@@@I@Z PROC ; BaseVector<MultiListNodePolicy<CvTradedItem>,0>::operator[], COMDAT
; _this$ = ecx

; 129  : 		FAssert(ui < m_uiCurrSize);
; 130  : 		return m_pData[ui];

	mov	eax, DWORD PTR _ui$[esp-4]
	imul	eax, 44					; 0000002cH
	add	eax, DWORD PTR [ecx]

; 131  : 	};

	ret	4
??A?$BaseVector@U?$MultiListNodePolicy@UCvTradedItem@@@@$0A@@@QAEAAU?$MultiListNodePolicy@UCvTradedItem@@@@I@Z ENDP ; BaseVector<MultiListNodePolicy<CvTradedItem>,0>::operator[]
_TEXT	ENDS
PUBLIC	??0base_iterator_tail@?$FCustomList_Core@U?$MultiListNodePolicy@UCvTradedItem@@@@V?$FFastAllocator@U?$MultiListNodePolicy@UCvTradedItem@@@@$0A@$0BF@$0A@UFDefaultFastVectorAllocator@?$BaseVector@U?$MultiListNodePolicy@UCvTradedItem@@@@$0A@@@@@V?$FCustomList_Tail_Member@V?$FFastAllocator@U?$MultiListNodePolicy@UCvTradedItem@@@@$0A@$0BF@$0A@UFDefaultFastVectorAllocator@?$BaseVector@U?$MultiListNodePolicy@UCvTradedItem@@@@$0A@@@@@@@@@QAE@PAV1@@Z ; FCustomList_Core<MultiListNodePolicy<CvTradedItem>,FFastAllocator<MultiListNodePolicy<CvTradedItem>,0,21,0,BaseVector<MultiListNodePolicy<CvTradedItem>,0>::FDefaultFastVectorAllocator>,FCustomList_Tail_Member<FFastAllocator<MultiListNodePolicy<CvTradedItem>,0,21,0,BaseVector<MultiListNodePolicy<CvTradedItem>,0>::FDefaultFastVectorAllocator> > >::base_iterator_tail::base_iterator_tail
; Function compile flags: /Ogtpy
; File c:\users\enormousapplepie\documents\github\lekmod\lekmod_dll\fireplace\include\fireworks\ffastlist.h
;	COMDAT ??0base_iterator_tail@?$FCustomList_Core@U?$MultiListNodePolicy@UCvTradedItem@@@@V?$FFastAllocator@U?$MultiListNodePolicy@UCvTradedItem@@@@$0A@$0BF@$0A@UFDefaultFastVectorAllocator@?$BaseVector@U?$MultiListNodePolicy@UCvTradedItem@@@@$0A@@@@@V?$FCustomList_Tail_Member@V?$FFastAllocator@U?$MultiListNodePolicy@UCvTradedItem@@@@$0A@$0BF@$0A@UFDefaultFastVectorAllocator@?$BaseVector@U?$MultiListNodePolicy@UCvTradedItem@@@@$0A@@@@@@@@@QAE@PAV1@@Z
_TEXT	SEGMENT
_pFastList$ = 8						; size = 4
??0base_iterator_tail@?$FCustomList_Core@U?$MultiListNodePolicy@UCvTradedItem@@@@V?$FFastAllocator@U?$MultiListNodePolicy@UCvTradedItem@@@@$0A@$0BF@$0A@UFDefaultFastVectorAllocator@?$BaseVector@U?$MultiListNodePolicy@UCvTradedItem@@@@$0A@@@@@V?$FCustomList_Tail_Member@V?$FFastAllocator@U?$MultiListNodePolicy@UCvTradedItem@@@@$0A@$0BF@$0A@UFDefaultFastVectorAllocator@?$BaseVector@U?$MultiListNodePolicy@UCvTradedItem@@@@$0A@@@@@@@@@QAE@PAV1@@Z PROC ; FCustomList_Core<MultiListNodePolicy<CvTradedItem>,FFastAllocator<MultiListNodePolicy<CvTradedItem>,0,21,0,BaseVector<MultiListNodePolicy<CvTradedItem>,0>::FDefaultFastVectorAllocator>,FCustomList_Tail_Member<FFastAllocator<MultiListNodePolicy<CvTradedItem>,0,21,0,BaseVector<MultiListNodePolicy<CvTradedItem>,0>::FDefaultFastVectorAllocator> > >::base_iterator_tail::base_iterator_tail, COMDAT
; _this$ = ecx

; 278  : 		base_iterator_tail( TYPE* pFastList ) : m_pFastList( pFastList ) {};

	mov	eax, ecx
	mov	ecx, DWORD PTR _pFastList$[esp-4]
	mov	DWORD PTR [eax], ecx
	ret	4
??0base_iterator_tail@?$FCustomList_Core@U?$MultiListNodePolicy@UCvTradedItem@@@@V?$FFastAllocator@U?$MultiListNodePolicy@UCvTradedItem@@@@$0A@$0BF@$0A@UFDefaultFastVectorAllocator@?$BaseVector@U?$MultiListNodePolicy@UCvTradedItem@@@@$0A@@@@@V?$FCustomList_Tail_Member@V?$FFastAllocator@U?$MultiListNodePolicy@UCvTradedItem@@@@$0A@$0BF@$0A@UFDefaultFastVectorAllocator@?$BaseVector@U?$MultiListNodePolicy@UCvTradedItem@@@@$0A@@@@@@@@@QAE@PAV1@@Z ENDP ; FCustomList_Core<MultiListNodePolicy<CvTradedItem>,FFastAllocator<MultiListNodePolicy<CvTradedItem>,0,21,0,BaseVector<MultiListNodePolicy<CvTradedItem>,0>::FDefaultFastVectorAllocator>,FCustomList_Tail_Member<FFastAllocator<MultiListNodePolicy<CvTradedItem>,0,21,0,BaseVector<MultiListNodePolicy<CvTradedItem>,0>::FDefaultFastVectorAllocator> > >::base_iterator_tail::base_iterator_tail
_TEXT	ENDS
PUBLIC	?DefaultHandleMissingInstance@?$CvLuaScopedInstance@VCvLuaDeal@@VCvDeal@@@@KAXPAUlua_State@@@Z ; CvLuaScopedInstance<CvLuaDeal,CvDeal>::DefaultHandleMissingInstance
EXTRN	_luaL_error:PROC
; Function compile flags: /Ogtpy
; File c:\users\enormousapplepie\documents\github\lekmod\lekmod_dll\cvgamecoredll_expansion2\lua\cvluascopedinstance.h
;	COMDAT ?DefaultHandleMissingInstance@?$CvLuaScopedInstance@VCvLuaDeal@@VCvDeal@@@@KAXPAUlua_State@@@Z
_TEXT	SEGMENT
_L$ = 8							; size = 4
?DefaultHandleMissingInstance@?$CvLuaScopedInstance@VCvLuaDeal@@VCvDeal@@@@KAXPAUlua_State@@@Z PROC ; CvLuaScopedInstance<CvLuaDeal,CvDeal>::DefaultHandleMissingInstance, COMDAT

; 165  : 	luaL_error(L, "Instance does not exist.");

	mov	eax, DWORD PTR _L$[esp-4]
	push	OFFSET $SG219321
	push	eax
	call	_luaL_error
	add	esp, 8

; 166  : }

	ret	0
?DefaultHandleMissingInstance@?$CvLuaScopedInstance@VCvLuaDeal@@VCvDeal@@@@KAXPAUlua_State@@@Z ENDP ; CvLuaScopedInstance<CvLuaDeal,CvDeal>::DefaultHandleMissingInstance
_TEXT	ENDS
PUBLIC	?GetStartingArgIndex@?$CvLuaScopedInstance@VCvLuaDeal@@VCvDeal@@@@SA?BHXZ ; CvLuaScopedInstance<CvLuaDeal,CvDeal>::GetStartingArgIndex
; Function compile flags: /Ogtpy
;	COMDAT ?GetStartingArgIndex@?$CvLuaScopedInstance@VCvLuaDeal@@VCvDeal@@@@SA?BHXZ
_TEXT	SEGMENT
?GetStartingArgIndex@?$CvLuaScopedInstance@VCvLuaDeal@@VCvDeal@@@@SA?BHXZ PROC ; CvLuaScopedInstance<CvLuaDeal,CvDeal>::GetStartingArgIndex, COMDAT

; 159  : 	return 2;

	mov	eax, 2

; 160  : }

	ret	0
?GetStartingArgIndex@?$CvLuaScopedInstance@VCvLuaDeal@@VCvDeal@@@@SA?BHXZ ENDP ; CvLuaScopedInstance<CvLuaDeal,CvDeal>::GetStartingArgIndex
; Function compile flags: /Ogtpy
; File c:\users\enormousapplepie\documents\github\lekmod\lekmod_dll\cvgamecoredllutil\include\cvluaargtemplates.h
_TEXT	ENDS
;	COMDAT ??$pushValue@I@CvLuaArgs@@YAXPAUlua_State@@I@Z
_TEXT	SEGMENT
??$pushValue@I@CvLuaArgs@@YAXPAUlua_State@@I@Z PROC	; CvLuaArgs::pushValue<unsigned int>, COMDAT
; _L$ = ecx
; _t$ = eax

; 31   : 		//This is pretty unsafe, but common.
; 32   : 		//Assume T is a poorly designed enum =(
; 33   : 		lua_pushinteger(L, t);

	push	eax
	push	ecx
	call	_lua_pushinteger
	add	esp, 8

; 34   : 	}

	ret	0
??$pushValue@I@CvLuaArgs@@YAXPAUlua_State@@I@Z ENDP	; CvLuaArgs::pushValue<unsigned int>
; Function compile flags: /Ogtpy
_TEXT	ENDS
;	COMDAT ??$toValue@W4PlayerTypes@@@CvLuaArgs@@YA?AW4PlayerTypes@@PAUlua_State@@H@Z
_TEXT	SEGMENT
??$toValue@W4PlayerTypes@@@CvLuaArgs@@YA?AW4PlayerTypes@@PAUlua_State@@H@Z PROC ; CvLuaArgs::toValue<enum PlayerTypes>, COMDAT
; _L$ = ecx
; _idx$ = eax

; 12   : 		//This is pretty unsafe, but common.
; 13   : 		//Assume T is a poorly designed enum =(
; 14   : 		return (T)lua_tointeger(L, idx);

	push	eax
	push	ecx
	call	_lua_tointeger
	add	esp, 8

; 15   : 	}

	ret	0
??$toValue@W4PlayerTypes@@@CvLuaArgs@@YA?AW4PlayerTypes@@PAUlua_State@@H@Z ENDP ; CvLuaArgs::toValue<enum PlayerTypes>
; Function compile flags: /Ogtpy
_TEXT	ENDS
;	COMDAT ??$pushValue@W4PlayerTypes@@@CvLuaArgs@@YAXPAUlua_State@@W4PlayerTypes@@@Z
_TEXT	SEGMENT
??$pushValue@W4PlayerTypes@@@CvLuaArgs@@YAXPAUlua_State@@W4PlayerTypes@@@Z PROC ; CvLuaArgs::pushValue<enum PlayerTypes>, COMDAT
; _L$ = ecx
; _t$ = eax

; 31   : 		//This is pretty unsafe, but common.
; 32   : 		//Assume T is a poorly designed enum =(
; 33   : 		lua_pushinteger(L, t);

	push	eax
	push	ecx
	call	_lua_pushinteger
	add	esp, 8

; 34   : 	}

	ret	0
??$pushValue@W4PlayerTypes@@@CvLuaArgs@@YAXPAUlua_State@@W4PlayerTypes@@@Z ENDP ; CvLuaArgs::pushValue<enum PlayerTypes>
; Function compile flags: /Ogtpy
_TEXT	ENDS
;	COMDAT ??$toValue@W4TradeableItems@@@CvLuaArgs@@YA?AW4TradeableItems@@PAUlua_State@@H@Z
_TEXT	SEGMENT
??$toValue@W4TradeableItems@@@CvLuaArgs@@YA?AW4TradeableItems@@PAUlua_State@@H@Z PROC ; CvLuaArgs::toValue<enum TradeableItems>, COMDAT
; _L$ = ecx
; _idx$ = eax

; 12   : 		//This is pretty unsafe, but common.
; 13   : 		//Assume T is a poorly designed enum =(
; 14   : 		return (T)lua_tointeger(L, idx);

	push	eax
	push	ecx
	call	_lua_tointeger
	add	esp, 8

; 15   : 	}

	ret	0
??$toValue@W4TradeableItems@@@CvLuaArgs@@YA?AW4TradeableItems@@PAUlua_State@@H@Z ENDP ; CvLuaArgs::toValue<enum TradeableItems>
; Function compile flags: /Ogtpy
_TEXT	ENDS
;	COMDAT ??$toValue@W4ResourceTypes@@@CvLuaArgs@@YA?AW4ResourceTypes@@PAUlua_State@@H@Z
_TEXT	SEGMENT
??$toValue@W4ResourceTypes@@@CvLuaArgs@@YA?AW4ResourceTypes@@PAUlua_State@@H@Z PROC ; CvLuaArgs::toValue<enum ResourceTypes>, COMDAT
; _L$ = ecx
; _idx$ = eax

; 12   : 		//This is pretty unsafe, but common.
; 13   : 		//Assume T is a poorly designed enum =(
; 14   : 		return (T)lua_tointeger(L, idx);

	push	eax
	push	ecx
	call	_lua_tointeger
	add	esp, 8

; 15   : 	}

	ret	0
??$toValue@W4ResourceTypes@@@CvLuaArgs@@YA?AW4ResourceTypes@@PAUlua_State@@H@Z ENDP ; CvLuaArgs::toValue<enum ResourceTypes>
; Function compile flags: /Ogtpy
_TEXT	ENDS
;	COMDAT ??$toValue@W4TeamTypes@@@CvLuaArgs@@YA?AW4TeamTypes@@PAUlua_State@@H@Z
_TEXT	SEGMENT
??$toValue@W4TeamTypes@@@CvLuaArgs@@YA?AW4TeamTypes@@PAUlua_State@@H@Z PROC ; CvLuaArgs::toValue<enum TeamTypes>, COMDAT
; _L$ = ecx
; _idx$ = eax

; 12   : 		//This is pretty unsafe, but common.
; 13   : 		//Assume T is a poorly designed enum =(
; 14   : 		return (T)lua_tointeger(L, idx);

	push	eax
	push	ecx
	call	_lua_tointeger
	add	esp, 8

; 15   : 	}

	ret	0
??$toValue@W4TeamTypes@@@CvLuaArgs@@YA?AW4TeamTypes@@PAUlua_State@@H@Z ENDP ; CvLuaArgs::toValue<enum TeamTypes>
_TEXT	ENDS
PUBLIC	?LIST_GetNext@NullMultiListNodePolicy@@QBEIXZ	; NullMultiListNodePolicy::LIST_GetNext
; Function compile flags: /Ogtpy
; File c:\users\enormousapplepie\documents\github\lekmod\lekmod_dll\fireplace\include\fireworks\ffastlist.h
;	COMDAT ?LIST_GetNext@NullMultiListNodePolicy@@QBEIXZ
_TEXT	SEGMENT
?LIST_GetNext@NullMultiListNodePolicy@@QBEIXZ PROC	; NullMultiListNodePolicy::LIST_GetNext, COMDAT
; _this$ = ecx

; 62   : 	unsigned int LIST_GetNext() const{ return node.uiNext; };

	mov	eax, DWORD PTR [ecx]
	ret	0
?LIST_GetNext@NullMultiListNodePolicy@@QBEIXZ ENDP	; NullMultiListNodePolicy::LIST_GetNext
_TEXT	ENDS
PUBLIC	?GetToPlayer@CvDeal@@QBE?AW4PlayerTypes@@XZ	; CvDeal::GetToPlayer
; Function compile flags: /Ogtpy
; File c:\users\enormousapplepie\documents\github\lekmod\lekmod_dll\cvgamecoredll_expansion2\cvdealclasses.h
;	COMDAT ?GetToPlayer@CvDeal@@QBE?AW4PlayerTypes@@XZ
_TEXT	SEGMENT
?GetToPlayer@CvDeal@@QBE?AW4PlayerTypes@@XZ PROC	; CvDeal::GetToPlayer, COMDAT
; _this$ = ecx

; 135  : 		return m_eToPlayer;

	mov	eax, DWORD PTR [ecx+8]

; 136  : 	};

	ret	0
?GetToPlayer@CvDeal@@QBE?AW4PlayerTypes@@XZ ENDP	; CvDeal::GetToPlayer
_TEXT	ENDS
PUBLIC	?GetFromPlayer@CvDeal@@QBE?AW4PlayerTypes@@XZ	; CvDeal::GetFromPlayer
; Function compile flags: /Ogtpy
;	COMDAT ?GetFromPlayer@CvDeal@@QBE?AW4PlayerTypes@@XZ
_TEXT	SEGMENT
?GetFromPlayer@CvDeal@@QBE?AW4PlayerTypes@@XZ PROC	; CvDeal::GetFromPlayer, COMDAT
; _this$ = ecx

; 139  : 		return m_eFromPlayer;

	mov	eax, DWORD PTR [ecx+4]

; 140  : 	};

	ret	0
?GetFromPlayer@CvDeal@@QBE?AW4PlayerTypes@@XZ ENDP	; CvDeal::GetFromPlayer
_TEXT	ENDS
PUBLIC	?GetStartTurn@CvDeal@@QBEIXZ			; CvDeal::GetStartTurn
; Function compile flags: /Ogtpy
;	COMDAT ?GetStartTurn@CvDeal@@QBEIXZ
_TEXT	SEGMENT
?GetStartTurn@CvDeal@@QBEIXZ PROC			; CvDeal::GetStartTurn, COMDAT
; _this$ = ecx

; 143  : 		return m_iStartTurn;

	mov	eax, DWORD PTR [ecx+12]

; 144  : 	};

	ret	0
?GetStartTurn@CvDeal@@QBEIXZ ENDP			; CvDeal::GetStartTurn
_TEXT	ENDS
PUBLIC	?GetDuration@CvDeal@@QBEIXZ			; CvDeal::GetDuration
; Function compile flags: /Ogtpy
;	COMDAT ?GetDuration@CvDeal@@QBEIXZ
_TEXT	SEGMENT
?GetDuration@CvDeal@@QBEIXZ PROC			; CvDeal::GetDuration, COMDAT
; _this$ = ecx

; 147  : 		return m_iDuration;

	mov	eax, DWORD PTR [ecx+20]

; 148  : 	};

	ret	0
?GetDuration@CvDeal@@QBEIXZ ENDP			; CvDeal::GetDuration
_TEXT	ENDS
PUBLIC	?GetEndTurn@CvDeal@@QBEIXZ			; CvDeal::GetEndTurn
; Function compile flags: /Ogtpy
;	COMDAT ?GetEndTurn@CvDeal@@QBEIXZ
_TEXT	SEGMENT
?GetEndTurn@CvDeal@@QBEIXZ PROC				; CvDeal::GetEndTurn, COMDAT
; _this$ = ecx

; 151  : 		return m_iFinalTurn;

	mov	eax, DWORD PTR [ecx+16]

; 152  : 	};

	ret	0
?GetEndTurn@CvDeal@@QBEIXZ ENDP				; CvDeal::GetEndTurn
_TEXT	ENDS
PUBLIC	?HandleMissingInstance@CvLuaDeal@@SAXPAUlua_State@@@Z ; CvLuaDeal::HandleMissingInstance
; Function compile flags: /Ogtpy
; File c:\users\enormousapplepie\documents\github\lekmod\lekmod_dll\cvgamecoredll_expansion2\lua\cvluadeal.cpp
;	COMDAT ?HandleMissingInstance@CvLuaDeal@@SAXPAUlua_State@@@Z
_TEXT	SEGMENT
_L$ = 8							; size = 4
?HandleMissingInstance@CvLuaDeal@@SAXPAUlua_State@@@Z PROC ; CvLuaDeal::HandleMissingInstance, COMDAT

; 109  : 	DefaultHandleMissingInstance(L);

	mov	eax, DWORD PTR _L$[esp-4]
	push	OFFSET $SG219321
	push	eax
	call	_luaL_error
	add	esp, 8

; 110  : }

	ret	0
?HandleMissingInstance@CvLuaDeal@@SAXPAUlua_State@@@Z ENDP ; CvLuaDeal::HandleMissingInstance
_TEXT	ENDS
PUBLIC	??1iterator@?$FFastList@UCvTradedItem@@$0BF@$0A@@@QAE@XZ ; FFastList<CvTradedItem,21,0>::iterator::~iterator
; Function compile flags: /Ogtpy
; File c:\users\enormousapplepie\documents\github\lekmod\lekmod_dll\fireplace\include\fireworks\ffastlist.h
;	COMDAT ??1iterator@?$FFastList@UCvTradedItem@@$0BF@$0A@@@QAE@XZ
_TEXT	SEGMENT
??1iterator@?$FFastList@UCvTradedItem@@$0BF@$0A@@@QAE@XZ PROC ; FFastList<CvTradedItem,21,0>::iterator::~iterator, COMDAT
; _this$ = ecx

; 136  : 		~iterator(){};

	ret	0
??1iterator@?$FFastList@UCvTradedItem@@$0BF@$0A@@@QAE@XZ ENDP ; FFastList<CvTradedItem,21,0>::iterator::~iterator
_TEXT	ENDS
PUBLIC	??A?$FFastAllocator@U?$MultiListNodePolicy@UCvTradedItem@@@@$0A@$0BF@$0A@UFDefaultFastVectorAllocator@?$BaseVector@U?$MultiListNodePolicy@UCvTradedItem@@@@$0A@@@@@QAEAAU?$MultiListNodePolicy@UCvTradedItem@@@@I@Z ; FFastAllocator<MultiListNodePolicy<CvTradedItem>,0,21,0,BaseVector<MultiListNodePolicy<CvTradedItem>,0>::FDefaultFastVectorAllocator>::operator[]
; Function compile flags: /Ogtpy
; File c:\users\enormousapplepie\documents\github\lekmod\lekmod_dll\fireplace\include\fireworks\ffastallocator.h
;	COMDAT ??A?$FFastAllocator@U?$MultiListNodePolicy@UCvTradedItem@@@@$0A@$0BF@$0A@UFDefaultFastVectorAllocator@?$BaseVector@U?$MultiListNodePolicy@UCvTradedItem@@@@$0A@@@@@QAEAAU?$MultiListNodePolicy@UCvTradedItem@@@@I@Z
_TEXT	SEGMENT
_ui$ = 8						; size = 4
??A?$FFastAllocator@U?$MultiListNodePolicy@UCvTradedItem@@@@$0A@$0BF@$0A@UFDefaultFastVectorAllocator@?$BaseVector@U?$MultiListNodePolicy@UCvTradedItem@@@@$0A@@@@@QAEAAU?$MultiListNodePolicy@UCvTradedItem@@@@I@Z PROC ; FFastAllocator<MultiListNodePolicy<CvTradedItem>,0,21,0,BaseVector<MultiListNodePolicy<CvTradedItem>,0>::FDefaultFastVectorAllocator>::operator[], COMDAT
; _this$ = ecx

; 269  : 		return m_vec[ui];

	mov	eax, DWORD PTR _ui$[esp-4]
	imul	eax, 44					; 0000002cH
	add	eax, DWORD PTR [ecx+8]

; 270  : 	}

	ret	4
??A?$FFastAllocator@U?$MultiListNodePolicy@UCvTradedItem@@@@$0A@$0BF@$0A@UFDefaultFastVectorAllocator@?$BaseVector@U?$MultiListNodePolicy@UCvTradedItem@@@@$0A@@@@@QAEAAU?$MultiListNodePolicy@UCvTradedItem@@@@I@Z ENDP ; FFastAllocator<MultiListNodePolicy<CvTradedItem>,0,21,0,BaseVector<MultiListNodePolicy<CvTradedItem>,0>::FDefaultFastVectorAllocator>::operator[]
_TEXT	ENDS
PUBLIC	??0?$base_iterator@Vbase_iterator_tail@?$FCustomList_Core@U?$MultiListNodePolicy@UCvTradedItem@@@@V?$FFastAllocator@U?$MultiListNodePolicy@UCvTradedItem@@@@$0A@$0BF@$0A@UFDefaultFastVectorAllocator@?$BaseVector@U?$MultiListNodePolicy@UCvTradedItem@@@@$0A@@@@@V?$FCustomList_Tail_Member@V?$FFastAllocator@U?$MultiListNodePolicy@UCvTradedItem@@@@$0A@$0BF@$0A@UFDefaultFastVectorAllocator@?$BaseVector@U?$MultiListNodePolicy@UCvTradedItem@@@@$0A@@@@@@@@@@?$FCustomList_Core@U?$MultiListNodePolicy@UCvTradedItem@@@@V?$FFastAllocator@U?$MultiListNodePolicy@UCvTradedItem@@@@$0A@$0BF@$0A@UFDefaultFastVectorAllocator@?$BaseVector@U?$MultiListNodePolicy@UCvTradedItem@@@@$0A@@@@@V?$FCustomList_Tail_Member@V?$FFastAllocator@U?$MultiListNodePolicy@UCvTradedItem@@@@$0A@$0BF@$0A@UFDefaultFastVectorAllocator@?$BaseVector@U?$MultiListNodePolicy@UCvTradedItem@@@@$0A@@@@@@@@@QAE@XZ ; FCustomList_Core<MultiListNodePolicy<CvTradedItem>,FFastAllocator<MultiListNodePolicy<CvTradedItem>,0,21,0,BaseVector<MultiListNodePolicy<CvTradedItem>,0>::FDefaultFastVectorAllocator>,FCustomList_Tail_Member<FFastAllocator<MultiListNodePolicy<CvTradedItem>,0,21,0,BaseVector<MultiListNodePolicy<CvTradedItem>,0>::FDefaultFastVectorAllocator> > >::base_iterator<FCustomList_Core<MultiListNodePolicy<CvTradedItem>,FFastAllocator<MultiListNodePolicy<CvTradedItem>,0,21,0,BaseVector<MultiListNodePolicy<CvTradedItem>,0>::FDefaultFastVectorAllocator>,FCustomList_Tail_Member<FFastAllocator<MultiListNodePolicy<CvTradedItem>,0,21,0,BaseVector<MultiListNodePolicy<CvTradedItem>,0>::FDefaultFastVectorAllocator> > >::base_iterator_tail>::base_iterator<FCustomList_Core<MultiListNodePolicy<CvTradedItem>,FFastAllocator<MultiListNodePolicy<CvTradedItem>,0,21,0,BaseVector<MultiListNodePolicy<CvTradedItem>,0>::FDefaultFastVectorAllocator>,FCustomList_Tail_Member<FFastAllocator<MultiListNodePolicy<CvTradedItem>,0,21,0,BaseVector<MultiListNodePolicy<CvTradedItem>,0>::FDefaultFastVectorAllocator> > >::base_iterator_tail>
; Function compile flags: /Ogtpy
; File c:\users\enormousapplepie\documents\github\lekmod\lekmod_dll\fireplace\include\fireworks\ffastlist.h
;	COMDAT ??0?$base_iterator@Vbase_iterator_tail@?$FCustomList_Core@U?$MultiListNodePolicy@UCvTradedItem@@@@V?$FFastAllocator@U?$MultiListNodePolicy@UCvTradedItem@@@@$0A@$0BF@$0A@UFDefaultFastVectorAllocator@?$BaseVector@U?$MultiListNodePolicy@UCvTradedItem@@@@$0A@@@@@V?$FCustomList_Tail_Member@V?$FFastAllocator@U?$MultiListNodePolicy@UCvTradedItem@@@@$0A@$0BF@$0A@UFDefaultFastVectorAllocator@?$BaseVector@U?$MultiListNodePolicy@UCvTradedItem@@@@$0A@@@@@@@@@@?$FCustomList_Core@U?$MultiListNodePolicy@UCvTradedItem@@@@V?$FFastAllocator@U?$MultiListNodePolicy@UCvTradedItem@@@@$0A@$0BF@$0A@UFDefaultFastVectorAllocator@?$BaseVector@U?$MultiListNodePolicy@UCvTradedItem@@@@$0A@@@@@V?$FCustomList_Tail_Member@V?$FFastAllocator@U?$MultiListNodePolicy@UCvTradedItem@@@@$0A@$0BF@$0A@UFDefaultFastVectorAllocator@?$BaseVector@U?$MultiListNodePolicy@UCvTradedItem@@@@$0A@@@@@@@@@QAE@XZ
_TEXT	SEGMENT
??0?$base_iterator@Vbase_iterator_tail@?$FCustomList_Core@U?$MultiListNodePolicy@UCvTradedItem@@@@V?$FFastAllocator@U?$MultiListNodePolicy@UCvTradedItem@@@@$0A@$0BF@$0A@UFDefaultFastVectorAllocator@?$BaseVector@U?$MultiListNodePolicy@UCvTradedItem@@@@$0A@@@@@V?$FCustomList_Tail_Member@V?$FFastAllocator@U?$MultiListNodePolicy@UCvTradedItem@@@@$0A@$0BF@$0A@UFDefaultFastVectorAllocator@?$BaseVector@U?$MultiListNodePolicy@UCvTradedItem@@@@$0A@@@@@@@@@@?$FCustomList_Core@U?$MultiListNodePolicy@UCvTradedItem@@@@V?$FFastAllocator@U?$MultiListNodePolicy@UCvTradedItem@@@@$0A@$0BF@$0A@UFDefaultFastVectorAllocator@?$BaseVector@U?$MultiListNodePolicy@UCvTradedItem@@@@$0A@@@@@V?$FCustomList_Tail_Member@V?$FFastAllocator@U?$MultiListNodePolicy@UCvTradedItem@@@@$0A@$0BF@$0A@UFDefaultFastVectorAllocator@?$BaseVector@U?$MultiListNodePolicy@UCvTradedItem@@@@$0A@@@@@@@@@QAE@XZ PROC ; FCustomList_Core<MultiListNodePolicy<CvTradedItem>,FFastAllocator<MultiListNodePolicy<CvTradedItem>,0,21,0,BaseVector<MultiListNodePolicy<CvTradedItem>,0>::FDefaultFastVectorAllocator>,FCustomList_Tail_Member<FFastAllocator<MultiListNodePolicy<CvTradedItem>,0,21,0,BaseVector<MultiListNodePolicy<CvTradedItem>,0>::FDefaultFastVectorAllocator> > >::base_iterator<FCustomList_Core<MultiListNodePolicy<CvTradedItem>,FFastAllocator<MultiListNodePolicy<CvTradedItem>,0,21,0,BaseVector<MultiListNodePolicy<CvTradedItem>,0>::FDefaultFastVectorAllocator>,FCustomList_Tail_Member<FFastAllocator<MultiListNodePolicy<CvTradedItem>,0,21,0,BaseVector<MultiListNodePolicy<CvTradedItem>,0>::FDefaultFastVectorAllocator> > >::base_iterator_tail>::base_iterator<FCustomList_Core<MultiListNodePolicy<CvTradedItem>,FFastAllocator<MultiListNodePolicy<CvTradedItem>,0,21,0,BaseVector<MultiListNodePolicy<CvTradedItem>,0>::FDefaultFastVectorAllocator>,FCustomList_Tail_Member<FFastAllocator<MultiListNodePolicy<CvTradedItem>,0,21,0,BaseVector<MultiListNodePolicy<CvTradedItem>,0>::FDefaultFastVectorAllocator> > >::base_iterator_tail>, COMDAT
; _this$ = ecx

; 293  : 		explicit base_iterator() : m_uiCurrPos( ANCHOR_NODE_INDEX ), TAIL(NULL) {};

	mov	eax, ecx
	mov	DWORD PTR [eax], 0
	mov	DWORD PTR [eax+4], 268435455		; 0fffffffH
	ret	0
??0?$base_iterator@Vbase_iterator_tail@?$FCustomList_Core@U?$MultiListNodePolicy@UCvTradedItem@@@@V?$FFastAllocator@U?$MultiListNodePolicy@UCvTradedItem@@@@$0A@$0BF@$0A@UFDefaultFastVectorAllocator@?$BaseVector@U?$MultiListNodePolicy@UCvTradedItem@@@@$0A@@@@@V?$FCustomList_Tail_Member@V?$FFastAllocator@U?$MultiListNodePolicy@UCvTradedItem@@@@$0A@$0BF@$0A@UFDefaultFastVectorAllocator@?$BaseVector@U?$MultiListNodePolicy@UCvTradedItem@@@@$0A@@@@@@@@@@?$FCustomList_Core@U?$MultiListNodePolicy@UCvTradedItem@@@@V?$FFastAllocator@U?$MultiListNodePolicy@UCvTradedItem@@@@$0A@$0BF@$0A@UFDefaultFastVectorAllocator@?$BaseVector@U?$MultiListNodePolicy@UCvTradedItem@@@@$0A@@@@@V?$FCustomList_Tail_Member@V?$FFastAllocator@U?$MultiListNodePolicy@UCvTradedItem@@@@$0A@$0BF@$0A@UFDefaultFastVectorAllocator@?$BaseVector@U?$MultiListNodePolicy@UCvTradedItem@@@@$0A@@@@@@@@@QAE@XZ ENDP ; FCustomList_Core<MultiListNodePolicy<CvTradedItem>,FFastAllocator<MultiListNodePolicy<CvTradedItem>,0,21,0,BaseVector<MultiListNodePolicy<CvTradedItem>,0>::FDefaultFastVectorAllocator>,FCustomList_Tail_Member<FFastAllocator<MultiListNodePolicy<CvTradedItem>,0,21,0,BaseVector<MultiListNodePolicy<CvTradedItem>,0>::FDefaultFastVectorAllocator> > >::base_iterator<FCustomList_Core<MultiListNodePolicy<CvTradedItem>,FFastAllocator<MultiListNodePolicy<CvTradedItem>,0,21,0,BaseVector<MultiListNodePolicy<CvTradedItem>,0>::FDefaultFastVectorAllocator>,FCustomList_Tail_Member<FFastAllocator<MultiListNodePolicy<CvTradedItem>,0,21,0,BaseVector<MultiListNodePolicy<CvTradedItem>,0>::FDefaultFastVectorAllocator> > >::base_iterator_tail>::base_iterator<FCustomList_Core<MultiListNodePolicy<CvTradedItem>,FFastAllocator<MultiListNodePolicy<CvTradedItem>,0,21,0,BaseVector<MultiListNodePolicy<CvTradedItem>,0>::FDefaultFastVectorAllocator>,FCustomList_Tail_Member<FFastAllocator<MultiListNodePolicy<CvTradedItem>,0,21,0,BaseVector<MultiListNodePolicy<CvTradedItem>,0>::FDefaultFastVectorAllocator> > >::base_iterator_tail>
_TEXT	ENDS
PUBLIC	??0?$base_iterator@Vbase_iterator_tail@?$FCustomList_Core@U?$MultiListNodePolicy@UCvTradedItem@@@@V?$FFastAllocator@U?$MultiListNodePolicy@UCvTradedItem@@@@$0A@$0BF@$0A@UFDefaultFastVectorAllocator@?$BaseVector@U?$MultiListNodePolicy@UCvTradedItem@@@@$0A@@@@@V?$FCustomList_Tail_Member@V?$FFastAllocator@U?$MultiListNodePolicy@UCvTradedItem@@@@$0A@$0BF@$0A@UFDefaultFastVectorAllocator@?$BaseVector@U?$MultiListNodePolicy@UCvTradedItem@@@@$0A@@@@@@@@@@?$FCustomList_Core@U?$MultiListNodePolicy@UCvTradedItem@@@@V?$FFastAllocator@U?$MultiListNodePolicy@UCvTradedItem@@@@$0A@$0BF@$0A@UFDefaultFastVectorAllocator@?$BaseVector@U?$MultiListNodePolicy@UCvTradedItem@@@@$0A@@@@@V?$FCustomList_Tail_Member@V?$FFastAllocator@U?$MultiListNodePolicy@UCvTradedItem@@@@$0A@$0BF@$0A@UFDefaultFastVectorAllocator@?$BaseVector@U?$MultiListNodePolicy@UCvTradedItem@@@@$0A@@@@@@@@@QAE@IPAV1@@Z ; FCustomList_Core<MultiListNodePolicy<CvTradedItem>,FFastAllocator<MultiListNodePolicy<CvTradedItem>,0,21,0,BaseVector<MultiListNodePolicy<CvTradedItem>,0>::FDefaultFastVectorAllocator>,FCustomList_Tail_Member<FFastAllocator<MultiListNodePolicy<CvTradedItem>,0,21,0,BaseVector<MultiListNodePolicy<CvTradedItem>,0>::FDefaultFastVectorAllocator> > >::base_iterator<FCustomList_Core<MultiListNodePolicy<CvTradedItem>,FFastAllocator<MultiListNodePolicy<CvTradedItem>,0,21,0,BaseVector<MultiListNodePolicy<CvTradedItem>,0>::FDefaultFastVectorAllocator>,FCustomList_Tail_Member<FFastAllocator<MultiListNodePolicy<CvTradedItem>,0,21,0,BaseVector<MultiListNodePolicy<CvTradedItem>,0>::FDefaultFastVectorAllocator> > >::base_iterator_tail>::base_iterator<FCustomList_Core<MultiListNodePolicy<CvTradedItem>,FFastAllocator<MultiListNodePolicy<CvTradedItem>,0,21,0,BaseVector<MultiListNodePolicy<CvTradedItem>,0>::FDefaultFastVectorAllocator>,FCustomList_Tail_Member<FFastAllocator<MultiListNodePolicy<CvTradedItem>,0,21,0,BaseVector<MultiListNodePolicy<CvTradedItem>,0>::FDefaultFastVectorAllocator> > >::base_iterator_tail>
; Function compile flags: /Ogtpy
;	COMDAT ??0?$base_iterator@Vbase_iterator_tail@?$FCustomList_Core@U?$MultiListNodePolicy@UCvTradedItem@@@@V?$FFastAllocator@U?$MultiListNodePolicy@UCvTradedItem@@@@$0A@$0BF@$0A@UFDefaultFastVectorAllocator@?$BaseVector@U?$MultiListNodePolicy@UCvTradedItem@@@@$0A@@@@@V?$FCustomList_Tail_Member@V?$FFastAllocator@U?$MultiListNodePolicy@UCvTradedItem@@@@$0A@$0BF@$0A@UFDefaultFastVectorAllocator@?$BaseVector@U?$MultiListNodePolicy@UCvTradedItem@@@@$0A@@@@@@@@@@?$FCustomList_Core@U?$MultiListNodePolicy@UCvTradedItem@@@@V?$FFastAllocator@U?$MultiListNodePolicy@UCvTradedItem@@@@$0A@$0BF@$0A@UFDefaultFastVectorAllocator@?$BaseVector@U?$MultiListNodePolicy@UCvTradedItem@@@@$0A@@@@@V?$FCustomList_Tail_Member@V?$FFastAllocator@U?$MultiListNodePolicy@UCvTradedItem@@@@$0A@$0BF@$0A@UFDefaultFastVectorAllocator@?$BaseVector@U?$MultiListNodePolicy@UCvTradedItem@@@@$0A@@@@@@@@@QAE@IPAV1@@Z
_TEXT	SEGMENT
_uiPos$ = 8						; size = 4
_pVec$ = 12						; size = 4
??0?$base_iterator@Vbase_iterator_tail@?$FCustomList_Core@U?$MultiListNodePolicy@UCvTradedItem@@@@V?$FFastAllocator@U?$MultiListNodePolicy@UCvTradedItem@@@@$0A@$0BF@$0A@UFDefaultFastVectorAllocator@?$BaseVector@U?$MultiListNodePolicy@UCvTradedItem@@@@$0A@@@@@V?$FCustomList_Tail_Member@V?$FFastAllocator@U?$MultiListNodePolicy@UCvTradedItem@@@@$0A@$0BF@$0A@UFDefaultFastVectorAllocator@?$BaseVector@U?$MultiListNodePolicy@UCvTradedItem@@@@$0A@@@@@@@@@@?$FCustomList_Core@U?$MultiListNodePolicy@UCvTradedItem@@@@V?$FFastAllocator@U?$MultiListNodePolicy@UCvTradedItem@@@@$0A@$0BF@$0A@UFDefaultFastVectorAllocator@?$BaseVector@U?$MultiListNodePolicy@UCvTradedItem@@@@$0A@@@@@V?$FCustomList_Tail_Member@V?$FFastAllocator@U?$MultiListNodePolicy@UCvTradedItem@@@@$0A@$0BF@$0A@UFDefaultFastVectorAllocator@?$BaseVector@U?$MultiListNodePolicy@UCvTradedItem@@@@$0A@@@@@@@@@QAE@IPAV1@@Z PROC ; FCustomList_Core<MultiListNodePolicy<CvTradedItem>,FFastAllocator<MultiListNodePolicy<CvTradedItem>,0,21,0,BaseVector<MultiListNodePolicy<CvTradedItem>,0>::FDefaultFastVectorAllocator>,FCustomList_Tail_Member<FFastAllocator<MultiListNodePolicy<CvTradedItem>,0,21,0,BaseVector<MultiListNodePolicy<CvTradedItem>,0>::FDefaultFastVectorAllocator> > >::base_iterator<FCustomList_Core<MultiListNodePolicy<CvTradedItem>,FFastAllocator<MultiListNodePolicy<CvTradedItem>,0,21,0,BaseVector<MultiListNodePolicy<CvTradedItem>,0>::FDefaultFastVectorAllocator>,FCustomList_Tail_Member<FFastAllocator<MultiListNodePolicy<CvTradedItem>,0,21,0,BaseVector<MultiListNodePolicy<CvTradedItem>,0>::FDefaultFastVectorAllocator> > >::base_iterator_tail>::base_iterator<FCustomList_Core<MultiListNodePolicy<CvTradedItem>,FFastAllocator<MultiListNodePolicy<CvTradedItem>,0,21,0,BaseVector<MultiListNodePolicy<CvTradedItem>,0>::FDefaultFastVectorAllocator>,FCustomList_Tail_Member<FFastAllocator<MultiListNodePolicy<CvTradedItem>,0,21,0,BaseVector<MultiListNodePolicy<CvTradedItem>,0>::FDefaultFastVectorAllocator> > >::base_iterator_tail>, COMDAT
; _this$ = ecx

; 295  : 			: m_uiCurrPos( uiPos ), TAIL( pVec ) {};

	mov	edx, DWORD PTR _uiPos$[esp-4]
	mov	eax, ecx
	mov	ecx, DWORD PTR _pVec$[esp-4]
	mov	DWORD PTR [eax], ecx
	mov	DWORD PTR [eax+4], edx
	ret	8
??0?$base_iterator@Vbase_iterator_tail@?$FCustomList_Core@U?$MultiListNodePolicy@UCvTradedItem@@@@V?$FFastAllocator@U?$MultiListNodePolicy@UCvTradedItem@@@@$0A@$0BF@$0A@UFDefaultFastVectorAllocator@?$BaseVector@U?$MultiListNodePolicy@UCvTradedItem@@@@$0A@@@@@V?$FCustomList_Tail_Member@V?$FFastAllocator@U?$MultiListNodePolicy@UCvTradedItem@@@@$0A@$0BF@$0A@UFDefaultFastVectorAllocator@?$BaseVector@U?$MultiListNodePolicy@UCvTradedItem@@@@$0A@@@@@@@@@@?$FCustomList_Core@U?$MultiListNodePolicy@UCvTradedItem@@@@V?$FFastAllocator@U?$MultiListNodePolicy@UCvTradedItem@@@@$0A@$0BF@$0A@UFDefaultFastVectorAllocator@?$BaseVector@U?$MultiListNodePolicy@UCvTradedItem@@@@$0A@@@@@V?$FCustomList_Tail_Member@V?$FFastAllocator@U?$MultiListNodePolicy@UCvTradedItem@@@@$0A@$0BF@$0A@UFDefaultFastVectorAllocator@?$BaseVector@U?$MultiListNodePolicy@UCvTradedItem@@@@$0A@@@@@@@@@QAE@IPAV1@@Z ENDP ; FCustomList_Core<MultiListNodePolicy<CvTradedItem>,FFastAllocator<MultiListNodePolicy<CvTradedItem>,0,21,0,BaseVector<MultiListNodePolicy<CvTradedItem>,0>::FDefaultFastVectorAllocator>,FCustomList_Tail_Member<FFastAllocator<MultiListNodePolicy<CvTradedItem>,0,21,0,BaseVector<MultiListNodePolicy<CvTradedItem>,0>::FDefaultFastVectorAllocator> > >::base_iterator<FCustomList_Core<MultiListNodePolicy<CvTradedItem>,FFastAllocator<MultiListNodePolicy<CvTradedItem>,0,21,0,BaseVector<MultiListNodePolicy<CvTradedItem>,0>::FDefaultFastVectorAllocator>,FCustomList_Tail_Member<FFastAllocator<MultiListNodePolicy<CvTradedItem>,0,21,0,BaseVector<MultiListNodePolicy<CvTradedItem>,0>::FDefaultFastVectorAllocator> > >::base_iterator_tail>::base_iterator<FCustomList_Core<MultiListNodePolicy<CvTradedItem>,FFastAllocator<MultiListNodePolicy<CvTradedItem>,0,21,0,BaseVector<MultiListNodePolicy<CvTradedItem>,0>::FDefaultFastVectorAllocator>,FCustomList_Tail_Member<FFastAllocator<MultiListNodePolicy<CvTradedItem>,0,21,0,BaseVector<MultiListNodePolicy<CvTradedItem>,0>::FDefaultFastVectorAllocator> > >::base_iterator_tail>
_TEXT	ENDS
PUBLIC	?GetInstance@?$CvLuaScopedInstance@VCvLuaDeal@@VCvDeal@@@@SAPAVCvDeal@@PAUlua_State@@H_N@Z ; CvLuaScopedInstance<CvLuaDeal,CvDeal>::GetInstance
EXTRN	_lua_settop:PROC
EXTRN	_lua_touserdata:PROC
EXTRN	_lua_getfield:PROC
EXTRN	_lua_type:PROC
EXTRN	_lua_gettop:PROC
; Function compile flags: /Ogtpy
; File c:\users\enormousapplepie\documents\github\lekmod\lekmod_dll\cvgamecoredll_expansion2\lua\cvluascopedinstance.h
;	COMDAT ?GetInstance@?$CvLuaScopedInstance@VCvLuaDeal@@VCvDeal@@@@SAPAVCvDeal@@PAUlua_State@@H_N@Z
_TEXT	SEGMENT
_L$ = 8							; size = 4
_idx$ = 12						; size = 4
_bErrorOnFail$ = 16					; size = 1
?GetInstance@?$CvLuaScopedInstance@VCvLuaDeal@@VCvDeal@@@@SAPAVCvDeal@@PAUlua_State@@H_N@Z PROC ; CvLuaScopedInstance<CvLuaDeal,CvDeal>::GetInstance, COMDAT

; 127  : {

	push	ebx
	push	ebp
	push	esi

; 128  : 	const int stack_size = lua_gettop(L);

	mov	esi, DWORD PTR _L$[esp+8]
	push	edi
	push	esi
	call	_lua_gettop
	mov	ebp, eax

; 129  : 	bool bFail = true;
; 130  : 
; 131  : 	InstanceType* pkInstance = NULL;
; 132  : 	if(lua_type(L, idx) == LUA_TTABLE)

	mov	eax, DWORD PTR _idx$[esp+16]
	push	eax
	push	esi
	mov	bl, 1
	xor	edi, edi
	call	_lua_type
	add	esp, 12					; 0000000cH
	cmp	eax, 5
	jne	SHORT $LN3@GetInstanc

; 133  : 	{
; 134  : 		lua_getfield(L, idx, "__instance");

	mov	ecx, DWORD PTR _idx$[esp+12]
	push	OFFSET $SG219307
	push	ecx
	push	esi
	call	_lua_getfield

; 135  : 		if(lua_type(L, -1) == LUA_TLIGHTUSERDATA)

	push	-1
	push	esi
	call	_lua_type
	add	esp, 20					; 00000014H
	cmp	eax, 2
	jne	SHORT $LN3@GetInstanc

; 136  : 		{
; 137  : 			pkInstance = static_cast<InstanceType*>(lua_touserdata(L, -1));

	push	-1
	push	esi
	call	_lua_touserdata
	mov	edi, eax
	add	esp, 8

; 138  : 			if(pkInstance)

	test	edi, edi
	je	SHORT $LN3@GetInstanc

; 139  : 			{
; 140  : 				bFail = false;

	xor	bl, bl
$LN3@GetInstanc:

; 141  : 			}
; 142  : 		}
; 143  : 	}
; 144  : 
; 145  : 	lua_settop(L, stack_size);

	push	ebp
	push	esi
	call	_lua_settop
	add	esp, 8

; 146  : 
; 147  : 	if(bFail && bErrorOnFail)

	test	bl, bl
	je	SHORT $LN13@GetInstanc
	cmp	BYTE PTR _bErrorOnFail$[esp+12], 0
	je	SHORT $LN13@GetInstanc

; 148  : 	{
; 149  : 		if(idx == 1)

	cmp	DWORD PTR _idx$[esp+12], 1
	jne	SHORT $LN1@GetInstanc

; 150  : 			luaL_error(L, "Not a valid instance.  Either the instance is NULL or you used '.' instead of ':'.");

	push	OFFSET $SG219313
	push	esi
	call	_luaL_error
	add	esp, 8
$LN1@GetInstanc:

; 151  : 		Derived::HandleMissingInstance(L);

	push	OFFSET $SG219321
	push	esi
	call	_luaL_error
	add	esp, 8
$LN13@GetInstanc:

; 152  : 	}
; 153  : 	return pkInstance;

	mov	eax, edi
	pop	edi
	pop	esi
	pop	ebp
	pop	ebx

; 154  : }

	ret	0
?GetInstance@?$CvLuaScopedInstance@VCvLuaDeal@@VCvDeal@@@@SAPAVCvDeal@@PAUlua_State@@H_N@Z ENDP ; CvLuaScopedInstance<CvLuaDeal,CvDeal>::GetInstance
_TEXT	ENDS
PUBLIC	??$BasicLuaMethod@H@?$CvLuaMethodWrapper@VCvLuaDeal@@VCvDeal@@@@KAHPAUlua_State@@P8CvDeal@@AEHXZ@Z ; CvLuaMethodWrapper<CvLuaDeal,CvDeal>::BasicLuaMethod<int>
; Function compile flags: /Ogtpy
; File c:\users\enormousapplepie\documents\github\lekmod\lekmod_dll\cvgamecoredllutil\include\cvluamethodwrapper.h
;	COMDAT ??$BasicLuaMethod@H@?$CvLuaMethodWrapper@VCvLuaDeal@@VCvDeal@@@@KAHPAUlua_State@@P8CvDeal@@AEHXZ@Z
_TEXT	SEGMENT
_L$ = 8							; size = 4
_func$ = 12						; size = 4
??$BasicLuaMethod@H@?$CvLuaMethodWrapper@VCvLuaDeal@@VCvDeal@@@@KAHPAUlua_State@@P8CvDeal@@AEHXZ@Z PROC ; CvLuaMethodWrapper<CvLuaDeal,CvDeal>::BasicLuaMethod<int>, COMDAT

; 121  : {

	push	ebx
	push	ebp
	push	esi

; 122  : 	InstanceType* pkType = Derived::GetInstance(L);

	mov	esi, DWORD PTR _L$[esp+8]
	push	edi
	push	esi
	call	_lua_gettop
	push	1
	push	esi
	mov	ebp, eax
	mov	bl, 1
	xor	edi, edi
	call	_lua_type
	add	esp, 12					; 0000000cH
	cmp	eax, 5
	jne	SHORT $LN5@BasicLuaMe
	push	OFFSET $SG219307
	push	1
	push	esi
	call	_lua_getfield
	push	-1
	push	esi
	call	_lua_type
	add	esp, 20					; 00000014H
	cmp	eax, 2
	jne	SHORT $LN5@BasicLuaMe
	push	-1
	push	esi
	call	_lua_touserdata
	mov	edi, eax
	add	esp, 8
	test	edi, edi
	je	SHORT $LN5@BasicLuaMe
	xor	bl, bl
$LN5@BasicLuaMe:
	push	ebp
	push	esi
	call	_lua_settop
	add	esp, 8
	test	bl, bl
	je	SHORT $LN12@BasicLuaMe
	push	OFFSET $SG219313
	push	esi
	call	_luaL_error
	push	OFFSET $SG219321
	push	esi
	call	_luaL_error
	add	esp, 16					; 00000010H
$LN12@BasicLuaMe:

; 123  : 	CvLuaArgs::pushValue<ret>(L, (pkType->*func)());

	mov	ecx, edi
	call	DWORD PTR _func$[esp+12]
	push	eax
	push	esi
	call	_lua_pushinteger
	add	esp, 8
	pop	edi
	pop	esi
	pop	ebp

; 124  : 
; 125  : 	return 1;

	mov	eax, 1
	pop	ebx

; 126  : }

	ret	0
??$BasicLuaMethod@H@?$CvLuaMethodWrapper@VCvLuaDeal@@VCvDeal@@@@KAHPAUlua_State@@P8CvDeal@@AEHXZ@Z ENDP ; CvLuaMethodWrapper<CvLuaDeal,CvDeal>::BasicLuaMethod<int>
_TEXT	ENDS
PUBLIC	??$BasicLuaMethod@I@?$CvLuaMethodWrapper@VCvLuaDeal@@VCvDeal@@@@KAHPAUlua_State@@P8CvDeal@@BEIXZ@Z ; CvLuaMethodWrapper<CvLuaDeal,CvDeal>::BasicLuaMethod<unsigned int>
; Function compile flags: /Ogtpy
;	COMDAT ??$BasicLuaMethod@I@?$CvLuaMethodWrapper@VCvLuaDeal@@VCvDeal@@@@KAHPAUlua_State@@P8CvDeal@@BEIXZ@Z
_TEXT	SEGMENT
_L$ = 8							; size = 4
_func$ = 12						; size = 4
??$BasicLuaMethod@I@?$CvLuaMethodWrapper@VCvLuaDeal@@VCvDeal@@@@KAHPAUlua_State@@P8CvDeal@@BEIXZ@Z PROC ; CvLuaMethodWrapper<CvLuaDeal,CvDeal>::BasicLuaMethod<unsigned int>, COMDAT

; 69   : {

	push	ebx
	push	ebp
	push	esi

; 70   : 	InstanceType* pkType = Derived::GetInstance(L);

	mov	esi, DWORD PTR _L$[esp+8]
	push	edi
	push	esi
	call	_lua_gettop
	push	1
	push	esi
	mov	ebp, eax
	mov	bl, 1
	xor	edi, edi
	call	_lua_type
	add	esp, 12					; 0000000cH
	cmp	eax, 5
	jne	SHORT $LN5@BasicLuaMe@2
	push	OFFSET $SG219307
	push	1
	push	esi
	call	_lua_getfield
	push	-1
	push	esi
	call	_lua_type
	add	esp, 20					; 00000014H
	cmp	eax, 2
	jne	SHORT $LN5@BasicLuaMe@2
	push	-1
	push	esi
	call	_lua_touserdata
	mov	edi, eax
	add	esp, 8
	test	edi, edi
	je	SHORT $LN5@BasicLuaMe@2
	xor	bl, bl
$LN5@BasicLuaMe@2:
	push	ebp
	push	esi
	call	_lua_settop
	add	esp, 8
	test	bl, bl
	je	SHORT $LN12@BasicLuaMe@2
	push	OFFSET $SG219313
	push	esi
	call	_luaL_error
	push	OFFSET $SG219321
	push	esi
	call	_luaL_error
	add	esp, 16					; 00000010H
$LN12@BasicLuaMe@2:

; 71   : 	CvLuaArgs::pushValue<ret>(L, (pkType->*func)());

	mov	ecx, edi
	call	DWORD PTR _func$[esp+12]
	push	eax
	push	esi
	call	_lua_pushinteger
	add	esp, 8
	pop	edi
	pop	esi
	pop	ebp

; 72   : 
; 73   : 	return 1;

	mov	eax, 1
	pop	ebx

; 74   : }

	ret	0
??$BasicLuaMethod@I@?$CvLuaMethodWrapper@VCvLuaDeal@@VCvDeal@@@@KAHPAUlua_State@@P8CvDeal@@BEIXZ@Z ENDP ; CvLuaMethodWrapper<CvLuaDeal,CvDeal>::BasicLuaMethod<unsigned int>
_TEXT	ENDS
PUBLIC	??$BasicLuaMethod@W4PlayerTypes@@@?$CvLuaMethodWrapper@VCvLuaDeal@@VCvDeal@@@@KAHPAUlua_State@@P8CvDeal@@AEXW4PlayerTypes@@@Z@Z ; CvLuaMethodWrapper<CvLuaDeal,CvDeal>::BasicLuaMethod<enum PlayerTypes>
; Function compile flags: /Ogtpy
;	COMDAT ??$BasicLuaMethod@W4PlayerTypes@@@?$CvLuaMethodWrapper@VCvLuaDeal@@VCvDeal@@@@KAHPAUlua_State@@P8CvDeal@@AEXW4PlayerTypes@@@Z@Z
_TEXT	SEGMENT
_L$ = 8							; size = 4
_func$ = 12						; size = 4
??$BasicLuaMethod@W4PlayerTypes@@@?$CvLuaMethodWrapper@VCvLuaDeal@@VCvDeal@@@@KAHPAUlua_State@@P8CvDeal@@AEXW4PlayerTypes@@@Z@Z PROC ; CvLuaMethodWrapper<CvLuaDeal,CvDeal>::BasicLuaMethod<enum PlayerTypes>, COMDAT

; 230  : {

	push	ebx
	push	ebp
	push	esi

; 231  : 	const int idx = Derived::GetStartingArgIndex();
; 232  : 	InstanceType* pkType = Derived::GetInstance(L);

	mov	esi, DWORD PTR _L$[esp+8]
	push	edi
	push	esi
	call	_lua_gettop
	push	1
	push	esi
	mov	ebp, eax
	mov	bl, 1
	xor	edi, edi
	call	_lua_type
	add	esp, 12					; 0000000cH
	cmp	eax, 5
	jne	SHORT $LN7@BasicLuaMe@3
	push	OFFSET $SG219307
	push	1
	push	esi
	call	_lua_getfield
	push	-1
	push	esi
	call	_lua_type
	add	esp, 20					; 00000014H
	cmp	eax, 2
	jne	SHORT $LN7@BasicLuaMe@3
	push	-1
	push	esi
	call	_lua_touserdata
	mov	edi, eax
	add	esp, 8
	test	edi, edi
	je	SHORT $LN7@BasicLuaMe@3
	xor	bl, bl
$LN7@BasicLuaMe@3:
	push	ebp
	push	esi
	call	_lua_settop
	add	esp, 8
	test	bl, bl
	je	SHORT $LN14@BasicLuaMe@3
	push	OFFSET $SG219313
	push	esi
	call	_luaL_error
	push	OFFSET $SG219321
	push	esi
	call	_luaL_error
	add	esp, 16					; 00000010H
$LN14@BasicLuaMe@3:

; 233  : 	(pkType->*func)(CvLuaArgs::toValue<arg1>(L, idx));

	push	2
	push	esi
	call	_lua_tointeger
	add	esp, 8
	push	eax
	mov	ecx, edi
	call	DWORD PTR _func$[esp+16]
	pop	edi
	pop	esi
	pop	ebp

; 234  : 	return 0;

	xor	eax, eax
	pop	ebx

; 235  : }

	ret	0
??$BasicLuaMethod@W4PlayerTypes@@@?$CvLuaMethodWrapper@VCvLuaDeal@@VCvDeal@@@@KAHPAUlua_State@@P8CvDeal@@AEXW4PlayerTypes@@@Z@Z ENDP ; CvLuaMethodWrapper<CvLuaDeal,CvDeal>::BasicLuaMethod<enum PlayerTypes>
_TEXT	ENDS
PUBLIC	??$BasicLuaMethod@W4PlayerTypes@@W41@@?$CvLuaMethodWrapper@VCvLuaDeal@@VCvDeal@@@@KAHPAUlua_State@@P8CvDeal@@BE?AW4PlayerTypes@@W43@@Z@Z ; CvLuaMethodWrapper<CvLuaDeal,CvDeal>::BasicLuaMethod<enum PlayerTypes,enum PlayerTypes>
; Function compile flags: /Ogtpy
;	COMDAT ??$BasicLuaMethod@W4PlayerTypes@@W41@@?$CvLuaMethodWrapper@VCvLuaDeal@@VCvDeal@@@@KAHPAUlua_State@@P8CvDeal@@BE?AW4PlayerTypes@@W43@@Z@Z
_TEXT	SEGMENT
_L$ = 8							; size = 4
_func$ = 12						; size = 4
??$BasicLuaMethod@W4PlayerTypes@@W41@@?$CvLuaMethodWrapper@VCvLuaDeal@@VCvDeal@@@@KAHPAUlua_State@@P8CvDeal@@BE?AW4PlayerTypes@@W43@@Z@Z PROC ; CvLuaMethodWrapper<CvLuaDeal,CvDeal>::BasicLuaMethod<enum PlayerTypes,enum PlayerTypes>, COMDAT

; 78   : {

	push	ebx
	push	ebp
	push	esi

; 79   : 	const int idx = Derived::GetStartingArgIndex();
; 80   : 	InstanceType* pkType = Derived::GetInstance(L);

	mov	esi, DWORD PTR _L$[esp+8]
	push	edi
	push	esi
	call	_lua_gettop
	push	1
	push	esi
	mov	ebp, eax
	mov	bl, 1
	xor	edi, edi
	call	_lua_type
	add	esp, 12					; 0000000cH
	cmp	eax, 5
	jne	SHORT $LN7@BasicLuaMe@4
	push	OFFSET $SG219307
	push	1
	push	esi
	call	_lua_getfield
	push	-1
	push	esi
	call	_lua_type
	add	esp, 20					; 00000014H
	cmp	eax, 2
	jne	SHORT $LN7@BasicLuaMe@4
	push	-1
	push	esi
	call	_lua_touserdata
	mov	edi, eax
	add	esp, 8
	test	edi, edi
	je	SHORT $LN7@BasicLuaMe@4
	xor	bl, bl
$LN7@BasicLuaMe@4:
	push	ebp
	push	esi
	call	_lua_settop
	add	esp, 8
	test	bl, bl
	je	SHORT $LN14@BasicLuaMe@4
	push	OFFSET $SG219313
	push	esi
	call	_luaL_error
	push	OFFSET $SG219321
	push	esi
	call	_luaL_error
	add	esp, 16					; 00000010H
$LN14@BasicLuaMe@4:

; 81   : 	CvLuaArgs::pushValue<ret>(L, (pkType->*func)(CvLuaArgs::toValue<arg1>(L, idx)));

	push	2
	push	esi
	call	_lua_tointeger
	add	esp, 8
	push	eax
	mov	ecx, edi
	call	DWORD PTR _func$[esp+16]
	push	eax
	push	esi
	call	_lua_pushinteger
	add	esp, 8
	pop	edi
	pop	esi
	pop	ebp

; 82   : 
; 83   : 	return 1;

	mov	eax, 1
	pop	ebx

; 84   : }

	ret	0
??$BasicLuaMethod@W4PlayerTypes@@W41@@?$CvLuaMethodWrapper@VCvLuaDeal@@VCvDeal@@@@KAHPAUlua_State@@P8CvDeal@@BE?AW4PlayerTypes@@W43@@Z@Z ENDP ; CvLuaMethodWrapper<CvLuaDeal,CvDeal>::BasicLuaMethod<enum PlayerTypes,enum PlayerTypes>
_TEXT	ENDS
PUBLIC	??$BasicLuaMethod@W4PlayerTypes@@@?$CvLuaMethodWrapper@VCvLuaDeal@@VCvDeal@@@@KAHPAUlua_State@@P8CvDeal@@BE?AW4PlayerTypes@@XZ@Z ; CvLuaMethodWrapper<CvLuaDeal,CvDeal>::BasicLuaMethod<enum PlayerTypes>
; Function compile flags: /Ogtpy
;	COMDAT ??$BasicLuaMethod@W4PlayerTypes@@@?$CvLuaMethodWrapper@VCvLuaDeal@@VCvDeal@@@@KAHPAUlua_State@@P8CvDeal@@BE?AW4PlayerTypes@@XZ@Z
_TEXT	SEGMENT
_L$ = 8							; size = 4
_func$ = 12						; size = 4
??$BasicLuaMethod@W4PlayerTypes@@@?$CvLuaMethodWrapper@VCvLuaDeal@@VCvDeal@@@@KAHPAUlua_State@@P8CvDeal@@BE?AW4PlayerTypes@@XZ@Z PROC ; CvLuaMethodWrapper<CvLuaDeal,CvDeal>::BasicLuaMethod<enum PlayerTypes>, COMDAT

; 69   : {

	push	ebx
	push	ebp
	push	esi

; 70   : 	InstanceType* pkType = Derived::GetInstance(L);

	mov	esi, DWORD PTR _L$[esp+8]
	push	edi
	push	esi
	call	_lua_gettop
	push	1
	push	esi
	mov	ebp, eax
	mov	bl, 1
	xor	edi, edi
	call	_lua_type
	add	esp, 12					; 0000000cH
	cmp	eax, 5
	jne	SHORT $LN5@BasicLuaMe@5
	push	OFFSET $SG219307
	push	1
	push	esi
	call	_lua_getfield
	push	-1
	push	esi
	call	_lua_type
	add	esp, 20					; 00000014H
	cmp	eax, 2
	jne	SHORT $LN5@BasicLuaMe@5
	push	-1
	push	esi
	call	_lua_touserdata
	mov	edi, eax
	add	esp, 8
	test	edi, edi
	je	SHORT $LN5@BasicLuaMe@5
	xor	bl, bl
$LN5@BasicLuaMe@5:
	push	ebp
	push	esi
	call	_lua_settop
	add	esp, 8
	test	bl, bl
	je	SHORT $LN12@BasicLuaMe@5
	push	OFFSET $SG219313
	push	esi
	call	_luaL_error
	push	OFFSET $SG219321
	push	esi
	call	_luaL_error
	add	esp, 16					; 00000010H
$LN12@BasicLuaMe@5:

; 71   : 	CvLuaArgs::pushValue<ret>(L, (pkType->*func)());

	mov	ecx, edi
	call	DWORD PTR _func$[esp+12]
	push	eax
	push	esi
	call	_lua_pushinteger
	add	esp, 8
	pop	edi
	pop	esi
	pop	ebp

; 72   : 
; 73   : 	return 1;

	mov	eax, 1
	pop	ebx

; 74   : }

	ret	0
??$BasicLuaMethod@W4PlayerTypes@@@?$CvLuaMethodWrapper@VCvLuaDeal@@VCvDeal@@@@KAHPAUlua_State@@P8CvDeal@@BE?AW4PlayerTypes@@XZ@Z ENDP ; CvLuaMethodWrapper<CvLuaDeal,CvDeal>::BasicLuaMethod<enum PlayerTypes>
_TEXT	ENDS
PUBLIC	??$BasicLuaMethod@HW4PlayerTypes@@W4TradeableItems@@@?$CvLuaMethodWrapper@VCvLuaDeal@@VCvDeal@@@@KAHPAUlua_State@@P8CvDeal@@AEHW4PlayerTypes@@W4TradeableItems@@@Z@Z ; CvLuaMethodWrapper<CvLuaDeal,CvDeal>::BasicLuaMethod<int,enum PlayerTypes,enum TradeableItems>
; Function compile flags: /Ogtpy
;	COMDAT ??$BasicLuaMethod@HW4PlayerTypes@@W4TradeableItems@@@?$CvLuaMethodWrapper@VCvLuaDeal@@VCvDeal@@@@KAHPAUlua_State@@P8CvDeal@@AEHW4PlayerTypes@@W4TradeableItems@@@Z@Z
_TEXT	SEGMENT
_L$ = 8							; size = 4
_func$ = 12						; size = 4
??$BasicLuaMethod@HW4PlayerTypes@@W4TradeableItems@@@?$CvLuaMethodWrapper@VCvLuaDeal@@VCvDeal@@@@KAHPAUlua_State@@P8CvDeal@@AEHW4PlayerTypes@@W4TradeableItems@@@Z@Z PROC ; CvLuaMethodWrapper<CvLuaDeal,CvDeal>::BasicLuaMethod<int,enum PlayerTypes,enum TradeableItems>, COMDAT

; 140  : {

	push	ebx
	push	ebp
	push	esi

; 141  : 	const int idx = Derived::GetStartingArgIndex();
; 142  : 	InstanceType* pkType = Derived::GetInstance(L);

	mov	esi, DWORD PTR _L$[esp+8]
	push	edi
	push	esi
	call	_lua_gettop
	push	1
	push	esi
	mov	ebp, eax
	mov	bl, 1
	xor	edi, edi
	call	_lua_type
	add	esp, 12					; 0000000cH
	cmp	eax, 5
	jne	SHORT $LN7@BasicLuaMe@6
	push	OFFSET $SG219307
	push	1
	push	esi
	call	_lua_getfield
	push	-1
	push	esi
	call	_lua_type
	add	esp, 20					; 00000014H
	cmp	eax, 2
	jne	SHORT $LN7@BasicLuaMe@6
	push	-1
	push	esi
	call	_lua_touserdata
	mov	edi, eax
	add	esp, 8
	test	edi, edi
	je	SHORT $LN7@BasicLuaMe@6
	xor	bl, bl
$LN7@BasicLuaMe@6:
	push	ebp
	push	esi
	call	_lua_settop
	add	esp, 8
	test	bl, bl
	je	SHORT $LN14@BasicLuaMe@6
	push	OFFSET $SG219313
	push	esi
	call	_luaL_error
	push	OFFSET $SG219321
	push	esi
	call	_luaL_error
	add	esp, 16					; 00000010H
$LN14@BasicLuaMe@6:

; 143  : 	CvLuaArgs::pushValue<ret>(L, (pkType->*func)(CvLuaArgs::toValue<arg1>(L, idx), CvLuaArgs::toValue<arg2>(L, idx + 1)));

	push	3
	push	esi
	call	_lua_tointeger
	push	2
	push	esi
	mov	ebx, eax
	call	_lua_tointeger
	add	esp, 16					; 00000010H
	push	ebx
	push	eax
	mov	ecx, edi
	call	DWORD PTR _func$[esp+20]
	push	eax
	push	esi
	call	_lua_pushinteger
	add	esp, 8
	pop	edi
	pop	esi
	pop	ebp

; 144  : 
; 145  : 	return 1;

	mov	eax, 1
	pop	ebx

; 146  : }

	ret	0
??$BasicLuaMethod@HW4PlayerTypes@@W4TradeableItems@@@?$CvLuaMethodWrapper@VCvLuaDeal@@VCvDeal@@@@KAHPAUlua_State@@P8CvDeal@@AEHW4PlayerTypes@@W4TradeableItems@@@Z@Z ENDP ; CvLuaMethodWrapper<CvLuaDeal,CvDeal>::BasicLuaMethod<int,enum PlayerTypes,enum TradeableItems>
_TEXT	ENDS
PUBLIC	??$BasicLuaMethod@W4PlayerTypes@@H@?$CvLuaMethodWrapper@VCvLuaDeal@@VCvDeal@@@@KAHPAUlua_State@@P8CvDeal@@AEXW4PlayerTypes@@H@Z@Z ; CvLuaMethodWrapper<CvLuaDeal,CvDeal>::BasicLuaMethod<enum PlayerTypes,int>
; Function compile flags: /Ogtpy
;	COMDAT ??$BasicLuaMethod@W4PlayerTypes@@H@?$CvLuaMethodWrapper@VCvLuaDeal@@VCvDeal@@@@KAHPAUlua_State@@P8CvDeal@@AEXW4PlayerTypes@@H@Z@Z
_TEXT	SEGMENT
_L$ = 8							; size = 4
_func$ = 12						; size = 4
??$BasicLuaMethod@W4PlayerTypes@@H@?$CvLuaMethodWrapper@VCvLuaDeal@@VCvDeal@@@@KAHPAUlua_State@@P8CvDeal@@AEXW4PlayerTypes@@H@Z@Z PROC ; CvLuaMethodWrapper<CvLuaDeal,CvDeal>::BasicLuaMethod<enum PlayerTypes,int>, COMDAT

; 239  : {

	push	ebx
	push	ebp
	push	esi

; 240  : 	const int idx = Derived::GetStartingArgIndex();
; 241  : 	InstanceType* pkType = Derived::GetInstance(L);

	mov	esi, DWORD PTR _L$[esp+8]
	push	edi
	push	esi
	call	_lua_gettop
	push	1
	push	esi
	mov	ebp, eax
	mov	bl, 1
	xor	edi, edi
	call	_lua_type
	add	esp, 12					; 0000000cH
	cmp	eax, 5
	jne	SHORT $LN7@BasicLuaMe@7
	push	OFFSET $SG219307
	push	1
	push	esi
	call	_lua_getfield
	push	-1
	push	esi
	call	_lua_type
	add	esp, 20					; 00000014H
	cmp	eax, 2
	jne	SHORT $LN7@BasicLuaMe@7
	push	-1
	push	esi
	call	_lua_touserdata
	mov	edi, eax
	add	esp, 8
	test	edi, edi
	je	SHORT $LN7@BasicLuaMe@7
	xor	bl, bl
$LN7@BasicLuaMe@7:
	push	ebp
	push	esi
	call	_lua_settop
	add	esp, 8
	test	bl, bl
	je	SHORT $LN14@BasicLuaMe@7
	push	OFFSET $SG219313
	push	esi
	call	_luaL_error
	push	OFFSET $SG219321
	push	esi
	call	_luaL_error
	add	esp, 16					; 00000010H
$LN14@BasicLuaMe@7:

; 242  : 	(pkType->*func)(CvLuaArgs::toValue<arg1>(L, idx), CvLuaArgs::toValue<arg2>(L, idx + 1));

	push	3
	push	esi
	call	_lua_tointeger
	add	esp, 8
	push	eax
	push	2
	push	esi
	call	_lua_tointeger
	add	esp, 8
	push	eax
	mov	ecx, edi
	call	DWORD PTR _func$[esp+20]
	pop	edi
	pop	esi
	pop	ebp

; 243  : 	return 0;

	xor	eax, eax
	pop	ebx

; 244  : }

	ret	0
??$BasicLuaMethod@W4PlayerTypes@@H@?$CvLuaMethodWrapper@VCvLuaDeal@@VCvDeal@@@@KAHPAUlua_State@@P8CvDeal@@AEXW4PlayerTypes@@H@Z@Z ENDP ; CvLuaMethodWrapper<CvLuaDeal,CvDeal>::BasicLuaMethod<enum PlayerTypes,int>
_TEXT	ENDS
PUBLIC	??$BasicLuaMethod@W4PlayerTypes@@HH@?$CvLuaMethodWrapper@VCvLuaDeal@@VCvDeal@@@@KAHPAUlua_State@@P8CvDeal@@AEXW4PlayerTypes@@HH@Z@Z ; CvLuaMethodWrapper<CvLuaDeal,CvDeal>::BasicLuaMethod<enum PlayerTypes,int,int>
; Function compile flags: /Ogtpy
;	COMDAT ??$BasicLuaMethod@W4PlayerTypes@@HH@?$CvLuaMethodWrapper@VCvLuaDeal@@VCvDeal@@@@KAHPAUlua_State@@P8CvDeal@@AEXW4PlayerTypes@@HH@Z@Z
_TEXT	SEGMENT
_L$ = 8							; size = 4
_func$ = 12						; size = 4
??$BasicLuaMethod@W4PlayerTypes@@HH@?$CvLuaMethodWrapper@VCvLuaDeal@@VCvDeal@@@@KAHPAUlua_State@@P8CvDeal@@AEXW4PlayerTypes@@HH@Z@Z PROC ; CvLuaMethodWrapper<CvLuaDeal,CvDeal>::BasicLuaMethod<enum PlayerTypes,int,int>, COMDAT

; 249  : {

	push	ebx
	push	ebp
	push	esi

; 250  : 	const int idx = Derived::GetStartingArgIndex();
; 251  : 	InstanceType* pkType = Derived::GetInstance(L);

	mov	esi, DWORD PTR _L$[esp+8]
	push	edi
	push	esi
	call	_lua_gettop
	push	1
	push	esi
	mov	ebp, eax
	mov	bl, 1
	xor	edi, edi
	call	_lua_type
	add	esp, 12					; 0000000cH
	cmp	eax, 5
	jne	SHORT $LN7@BasicLuaMe@8
	push	OFFSET $SG219307
	push	1
	push	esi
	call	_lua_getfield
	push	-1
	push	esi
	call	_lua_type
	add	esp, 20					; 00000014H
	cmp	eax, 2
	jne	SHORT $LN7@BasicLuaMe@8
	push	-1
	push	esi
	call	_lua_touserdata
	mov	edi, eax
	add	esp, 8
	test	edi, edi
	je	SHORT $LN7@BasicLuaMe@8
	xor	bl, bl
$LN7@BasicLuaMe@8:
	push	ebp
	push	esi
	call	_lua_settop
	add	esp, 8
	test	bl, bl
	je	SHORT $LN14@BasicLuaMe@8
	push	OFFSET $SG219313
	push	esi
	call	_luaL_error
	push	OFFSET $SG219321
	push	esi
	call	_luaL_error
	add	esp, 16					; 00000010H
$LN14@BasicLuaMe@8:

; 252  : 	(pkType->*func)(CvLuaArgs::toValue<arg1>(L, idx), CvLuaArgs::toValue<arg2>(L, idx + 1), CvLuaArgs::toValue<arg3>(L, idx + 2));

	push	4
	push	esi
	call	_lua_tointeger
	push	3
	push	esi
	mov	ebx, eax
	call	_lua_tointeger
	add	esp, 16					; 00000010H
	push	ebx
	push	eax
	push	2
	push	esi
	call	_lua_tointeger
	add	esp, 8
	push	eax
	mov	ecx, edi
	call	DWORD PTR _func$[esp+24]
	pop	edi
	pop	esi
	pop	ebp

; 253  : 	return 0;

	xor	eax, eax
	pop	ebx

; 254  : }

	ret	0
??$BasicLuaMethod@W4PlayerTypes@@HH@?$CvLuaMethodWrapper@VCvLuaDeal@@VCvDeal@@@@KAHPAUlua_State@@P8CvDeal@@AEXW4PlayerTypes@@HH@Z@Z ENDP ; CvLuaMethodWrapper<CvLuaDeal,CvDeal>::BasicLuaMethod<enum PlayerTypes,int,int>
_TEXT	ENDS
PUBLIC	??$BasicLuaMethod@W4PlayerTypes@@W4ResourceTypes@@HH@?$CvLuaMethodWrapper@VCvLuaDeal@@VCvDeal@@@@KAHPAUlua_State@@P8CvDeal@@AEXW4PlayerTypes@@W4ResourceTypes@@HH@Z@Z ; CvLuaMethodWrapper<CvLuaDeal,CvDeal>::BasicLuaMethod<enum PlayerTypes,enum ResourceTypes,int,int>
; Function compile flags: /Ogtpy
;	COMDAT ??$BasicLuaMethod@W4PlayerTypes@@W4ResourceTypes@@HH@?$CvLuaMethodWrapper@VCvLuaDeal@@VCvDeal@@@@KAHPAUlua_State@@P8CvDeal@@AEXW4PlayerTypes@@W4ResourceTypes@@HH@Z@Z
_TEXT	SEGMENT
_L$ = 8							; size = 4
_func$ = 12						; size = 4
??$BasicLuaMethod@W4PlayerTypes@@W4ResourceTypes@@HH@?$CvLuaMethodWrapper@VCvLuaDeal@@VCvDeal@@@@KAHPAUlua_State@@P8CvDeal@@AEXW4PlayerTypes@@W4ResourceTypes@@HH@Z@Z PROC ; CvLuaMethodWrapper<CvLuaDeal,CvDeal>::BasicLuaMethod<enum PlayerTypes,enum ResourceTypes,int,int>, COMDAT

; 259  : {

	push	ebx
	push	ebp
	push	esi

; 260  : 	const int idx = Derived::GetStartingArgIndex();
; 261  : 	InstanceType* pkType = Derived::GetInstance(L);

	mov	esi, DWORD PTR _L$[esp+8]
	push	edi
	push	esi
	call	_lua_gettop
	push	1
	push	esi
	mov	ebp, eax
	mov	bl, 1
	xor	edi, edi
	call	_lua_type
	add	esp, 12					; 0000000cH
	cmp	eax, 5
	jne	SHORT $LN7@BasicLuaMe@9
	push	OFFSET $SG219307
	push	1
	push	esi
	call	_lua_getfield
	push	-1
	push	esi
	call	_lua_type
	add	esp, 20					; 00000014H
	cmp	eax, 2
	jne	SHORT $LN7@BasicLuaMe@9
	push	-1
	push	esi
	call	_lua_touserdata
	mov	edi, eax
	add	esp, 8
	test	edi, edi
	je	SHORT $LN7@BasicLuaMe@9
	xor	bl, bl
$LN7@BasicLuaMe@9:
	push	ebp
	push	esi
	call	_lua_settop
	add	esp, 8
	test	bl, bl
	je	SHORT $LN14@BasicLuaMe@9
	push	OFFSET $SG219313
	push	esi
	call	_luaL_error
	push	OFFSET $SG219321
	push	esi
	call	_luaL_error
	add	esp, 16					; 00000010H
$LN14@BasicLuaMe@9:

; 262  : 	(pkType->*func)(CvLuaArgs::toValue<arg1>(L, idx), CvLuaArgs::toValue<arg2>(L, idx + 1), CvLuaArgs::toValue<arg3>(L, idx + 2), CvLuaArgs::toValue<arg4>(L, idx + 3));

	push	5
	push	esi
	call	_lua_tointeger
	push	4
	push	esi
	mov	ebx, eax
	call	_lua_tointeger
	push	3
	push	esi
	mov	ebp, eax
	call	_lua_tointeger
	add	esp, 24					; 00000018H
	push	ebx
	push	ebp
	push	eax
	push	2
	push	esi
	call	_lua_tointeger
	add	esp, 8
	push	eax
	mov	ecx, edi
	call	DWORD PTR _func$[esp+28]
	pop	edi
	pop	esi
	pop	ebp

; 263  : 	return 0;

	xor	eax, eax
	pop	ebx

; 264  : }

	ret	0
??$BasicLuaMethod@W4PlayerTypes@@W4ResourceTypes@@HH@?$CvLuaMethodWrapper@VCvLuaDeal@@VCvDeal@@@@KAHPAUlua_State@@P8CvDeal@@AEXW4PlayerTypes@@W4ResourceTypes@@HH@Z@Z ENDP ; CvLuaMethodWrapper<CvLuaDeal,CvDeal>::BasicLuaMethod<enum PlayerTypes,enum ResourceTypes,int,int>
_TEXT	ENDS
PUBLIC	??$BasicLuaMethod@W4PlayerTypes@@W4TeamTypes@@H@?$CvLuaMethodWrapper@VCvLuaDeal@@VCvDeal@@@@KAHPAUlua_State@@P8CvDeal@@AEXW4PlayerTypes@@W4TeamTypes@@H@Z@Z ; CvLuaMethodWrapper<CvLuaDeal,CvDeal>::BasicLuaMethod<enum PlayerTypes,enum TeamTypes,int>
; Function compile flags: /Ogtpy
;	COMDAT ??$BasicLuaMethod@W4PlayerTypes@@W4TeamTypes@@H@?$CvLuaMethodWrapper@VCvLuaDeal@@VCvDeal@@@@KAHPAUlua_State@@P8CvDeal@@AEXW4PlayerTypes@@W4TeamTypes@@H@Z@Z
_TEXT	SEGMENT
_L$ = 8							; size = 4
_func$ = 12						; size = 4
??$BasicLuaMethod@W4PlayerTypes@@W4TeamTypes@@H@?$CvLuaMethodWrapper@VCvLuaDeal@@VCvDeal@@@@KAHPAUlua_State@@P8CvDeal@@AEXW4PlayerTypes@@W4TeamTypes@@H@Z@Z PROC ; CvLuaMethodWrapper<CvLuaDeal,CvDeal>::BasicLuaMethod<enum PlayerTypes,enum TeamTypes,int>, COMDAT

; 249  : {

	push	ebx
	push	ebp
	push	esi

; 250  : 	const int idx = Derived::GetStartingArgIndex();
; 251  : 	InstanceType* pkType = Derived::GetInstance(L);

	mov	esi, DWORD PTR _L$[esp+8]
	push	edi
	push	esi
	call	_lua_gettop
	push	1
	push	esi
	mov	ebp, eax
	mov	bl, 1
	xor	edi, edi
	call	_lua_type
	add	esp, 12					; 0000000cH
	cmp	eax, 5
	jne	SHORT $LN7@BasicLuaMe@10
	push	OFFSET $SG219307
	push	1
	push	esi
	call	_lua_getfield
	push	-1
	push	esi
	call	_lua_type
	add	esp, 20					; 00000014H
	cmp	eax, 2
	jne	SHORT $LN7@BasicLuaMe@10
	push	-1
	push	esi
	call	_lua_touserdata
	mov	edi, eax
	add	esp, 8
	test	edi, edi
	je	SHORT $LN7@BasicLuaMe@10
	xor	bl, bl
$LN7@BasicLuaMe@10:
	push	ebp
	push	esi
	call	_lua_settop
	add	esp, 8
	test	bl, bl
	je	SHORT $LN14@BasicLuaMe@10
	push	OFFSET $SG219313
	push	esi
	call	_luaL_error
	push	OFFSET $SG219321
	push	esi
	call	_luaL_error
	add	esp, 16					; 00000010H
$LN14@BasicLuaMe@10:

; 252  : 	(pkType->*func)(CvLuaArgs::toValue<arg1>(L, idx), CvLuaArgs::toValue<arg2>(L, idx + 1), CvLuaArgs::toValue<arg3>(L, idx + 2));

	push	4
	push	esi
	call	_lua_tointeger
	push	3
	push	esi
	mov	ebx, eax
	call	_lua_tointeger
	add	esp, 16					; 00000010H
	push	ebx
	push	eax
	push	2
	push	esi
	call	_lua_tointeger
	add	esp, 8
	push	eax
	mov	ecx, edi
	call	DWORD PTR _func$[esp+24]
	pop	edi
	pop	esi
	pop	ebp

; 253  : 	return 0;

	xor	eax, eax
	pop	ebx

; 254  : }

	ret	0
??$BasicLuaMethod@W4PlayerTypes@@W4TeamTypes@@H@?$CvLuaMethodWrapper@VCvLuaDeal@@VCvDeal@@@@KAHPAUlua_State@@P8CvDeal@@AEXW4PlayerTypes@@W4TeamTypes@@H@Z@Z ENDP ; CvLuaMethodWrapper<CvLuaDeal,CvDeal>::BasicLuaMethod<enum PlayerTypes,enum TeamTypes,int>
_TEXT	ENDS
PUBLIC	??$BasicLuaMethod@W4PlayerTypes@@W4TeamTypes@@@?$CvLuaMethodWrapper@VCvLuaDeal@@VCvDeal@@@@KAHPAUlua_State@@P8CvDeal@@AEXW4PlayerTypes@@W4TeamTypes@@@Z@Z ; CvLuaMethodWrapper<CvLuaDeal,CvDeal>::BasicLuaMethod<enum PlayerTypes,enum TeamTypes>
; Function compile flags: /Ogtpy
;	COMDAT ??$BasicLuaMethod@W4PlayerTypes@@W4TeamTypes@@@?$CvLuaMethodWrapper@VCvLuaDeal@@VCvDeal@@@@KAHPAUlua_State@@P8CvDeal@@AEXW4PlayerTypes@@W4TeamTypes@@@Z@Z
_TEXT	SEGMENT
_L$ = 8							; size = 4
_func$ = 12						; size = 4
??$BasicLuaMethod@W4PlayerTypes@@W4TeamTypes@@@?$CvLuaMethodWrapper@VCvLuaDeal@@VCvDeal@@@@KAHPAUlua_State@@P8CvDeal@@AEXW4PlayerTypes@@W4TeamTypes@@@Z@Z PROC ; CvLuaMethodWrapper<CvLuaDeal,CvDeal>::BasicLuaMethod<enum PlayerTypes,enum TeamTypes>, COMDAT

; 239  : {

	push	ebx
	push	ebp
	push	esi

; 240  : 	const int idx = Derived::GetStartingArgIndex();
; 241  : 	InstanceType* pkType = Derived::GetInstance(L);

	mov	esi, DWORD PTR _L$[esp+8]
	push	edi
	push	esi
	call	_lua_gettop
	push	1
	push	esi
	mov	ebp, eax
	mov	bl, 1
	xor	edi, edi
	call	_lua_type
	add	esp, 12					; 0000000cH
	cmp	eax, 5
	jne	SHORT $LN7@BasicLuaMe@11
	push	OFFSET $SG219307
	push	1
	push	esi
	call	_lua_getfield
	push	-1
	push	esi
	call	_lua_type
	add	esp, 20					; 00000014H
	cmp	eax, 2
	jne	SHORT $LN7@BasicLuaMe@11
	push	-1
	push	esi
	call	_lua_touserdata
	mov	edi, eax
	add	esp, 8
	test	edi, edi
	je	SHORT $LN7@BasicLuaMe@11
	xor	bl, bl
$LN7@BasicLuaMe@11:
	push	ebp
	push	esi
	call	_lua_settop
	add	esp, 8
	test	bl, bl
	je	SHORT $LN14@BasicLuaMe@11
	push	OFFSET $SG219313
	push	esi
	call	_luaL_error
	push	OFFSET $SG219321
	push	esi
	call	_luaL_error
	add	esp, 16					; 00000010H
$LN14@BasicLuaMe@11:

; 242  : 	(pkType->*func)(CvLuaArgs::toValue<arg1>(L, idx), CvLuaArgs::toValue<arg2>(L, idx + 1));

	push	3
	push	esi
	call	_lua_tointeger
	add	esp, 8
	push	eax
	push	2
	push	esi
	call	_lua_tointeger
	add	esp, 8
	push	eax
	mov	ecx, edi
	call	DWORD PTR _func$[esp+20]
	pop	edi
	pop	esi
	pop	ebp

; 243  : 	return 0;

	xor	eax, eax
	pop	ebx

; 244  : }

	ret	0
??$BasicLuaMethod@W4PlayerTypes@@W4TeamTypes@@@?$CvLuaMethodWrapper@VCvLuaDeal@@VCvDeal@@@@KAHPAUlua_State@@P8CvDeal@@AEXW4PlayerTypes@@W4TeamTypes@@@Z@Z ENDP ; CvLuaMethodWrapper<CvLuaDeal,CvDeal>::BasicLuaMethod<enum PlayerTypes,enum TeamTypes>
_TEXT	ENDS
PUBLIC	??$BasicLuaMethod@W4PlayerTypes@@W41@H@?$CvLuaMethodWrapper@VCvLuaDeal@@VCvDeal@@@@KAHPAUlua_State@@P8CvDeal@@AEXW4PlayerTypes@@1H@Z@Z ; CvLuaMethodWrapper<CvLuaDeal,CvDeal>::BasicLuaMethod<enum PlayerTypes,enum PlayerTypes,int>
; Function compile flags: /Ogtpy
;	COMDAT ??$BasicLuaMethod@W4PlayerTypes@@W41@H@?$CvLuaMethodWrapper@VCvLuaDeal@@VCvDeal@@@@KAHPAUlua_State@@P8CvDeal@@AEXW4PlayerTypes@@1H@Z@Z
_TEXT	SEGMENT
_L$ = 8							; size = 4
_func$ = 12						; size = 4
??$BasicLuaMethod@W4PlayerTypes@@W41@H@?$CvLuaMethodWrapper@VCvLuaDeal@@VCvDeal@@@@KAHPAUlua_State@@P8CvDeal@@AEXW4PlayerTypes@@1H@Z@Z PROC ; CvLuaMethodWrapper<CvLuaDeal,CvDeal>::BasicLuaMethod<enum PlayerTypes,enum PlayerTypes,int>, COMDAT

; 249  : {

	push	ebx
	push	ebp
	push	esi

; 250  : 	const int idx = Derived::GetStartingArgIndex();
; 251  : 	InstanceType* pkType = Derived::GetInstance(L);

	mov	esi, DWORD PTR _L$[esp+8]
	push	edi
	push	esi
	call	_lua_gettop
	push	1
	push	esi
	mov	ebp, eax
	mov	bl, 1
	xor	edi, edi
	call	_lua_type
	add	esp, 12					; 0000000cH
	cmp	eax, 5
	jne	SHORT $LN7@BasicLuaMe@12
	push	OFFSET $SG219307
	push	1
	push	esi
	call	_lua_getfield
	push	-1
	push	esi
	call	_lua_type
	add	esp, 20					; 00000014H
	cmp	eax, 2
	jne	SHORT $LN7@BasicLuaMe@12
	push	-1
	push	esi
	call	_lua_touserdata
	mov	edi, eax
	add	esp, 8
	test	edi, edi
	je	SHORT $LN7@BasicLuaMe@12
	xor	bl, bl
$LN7@BasicLuaMe@12:
	push	ebp
	push	esi
	call	_lua_settop
	add	esp, 8
	test	bl, bl
	je	SHORT $LN14@BasicLuaMe@12
	push	OFFSET $SG219313
	push	esi
	call	_luaL_error
	push	OFFSET $SG219321
	push	esi
	call	_luaL_error
	add	esp, 16					; 00000010H
$LN14@BasicLuaMe@12:

; 252  : 	(pkType->*func)(CvLuaArgs::toValue<arg1>(L, idx), CvLuaArgs::toValue<arg2>(L, idx + 1), CvLuaArgs::toValue<arg3>(L, idx + 2));

	push	4
	push	esi
	call	_lua_tointeger
	push	3
	push	esi
	mov	ebx, eax
	call	_lua_tointeger
	add	esp, 16					; 00000010H
	push	ebx
	push	eax
	push	2
	push	esi
	call	_lua_tointeger
	add	esp, 8
	push	eax
	mov	ecx, edi
	call	DWORD PTR _func$[esp+24]
	pop	edi
	pop	esi
	pop	ebp

; 253  : 	return 0;

	xor	eax, eax
	pop	ebx

; 254  : }

	ret	0
??$BasicLuaMethod@W4PlayerTypes@@W41@H@?$CvLuaMethodWrapper@VCvLuaDeal@@VCvDeal@@@@KAHPAUlua_State@@P8CvDeal@@AEXW4PlayerTypes@@1H@Z@Z ENDP ; CvLuaMethodWrapper<CvLuaDeal,CvDeal>::BasicLuaMethod<enum PlayerTypes,enum PlayerTypes,int>
_TEXT	ENDS
PUBLIC	??$BasicLuaMethod@_NW4PlayerTypes@@H@?$CvLuaMethodWrapper@VCvLuaDeal@@VCvDeal@@@@KAHPAUlua_State@@P8CvDeal@@AE_NW4PlayerTypes@@H@Z@Z ; CvLuaMethodWrapper<CvLuaDeal,CvDeal>::BasicLuaMethod<bool,enum PlayerTypes,int>
; Function compile flags: /Ogtpy
;	COMDAT ??$BasicLuaMethod@_NW4PlayerTypes@@H@?$CvLuaMethodWrapper@VCvLuaDeal@@VCvDeal@@@@KAHPAUlua_State@@P8CvDeal@@AE_NW4PlayerTypes@@H@Z@Z
_TEXT	SEGMENT
_L$ = 8							; size = 4
_func$ = 12						; size = 4
??$BasicLuaMethod@_NW4PlayerTypes@@H@?$CvLuaMethodWrapper@VCvLuaDeal@@VCvDeal@@@@KAHPAUlua_State@@P8CvDeal@@AE_NW4PlayerTypes@@H@Z@Z PROC ; CvLuaMethodWrapper<CvLuaDeal,CvDeal>::BasicLuaMethod<bool,enum PlayerTypes,int>, COMDAT

; 140  : {

	push	ebx
	push	ebp
	push	esi

; 141  : 	const int idx = Derived::GetStartingArgIndex();
; 142  : 	InstanceType* pkType = Derived::GetInstance(L);

	mov	esi, DWORD PTR _L$[esp+8]
	push	edi
	push	esi
	call	_lua_gettop
	push	1
	push	esi
	mov	ebp, eax
	mov	bl, 1
	xor	edi, edi
	call	_lua_type
	add	esp, 12					; 0000000cH
	cmp	eax, 5
	jne	SHORT $LN7@BasicLuaMe@13
	push	OFFSET $SG219307
	push	1
	push	esi
	call	_lua_getfield
	push	-1
	push	esi
	call	_lua_type
	add	esp, 20					; 00000014H
	cmp	eax, 2
	jne	SHORT $LN7@BasicLuaMe@13
	push	-1
	push	esi
	call	_lua_touserdata
	mov	edi, eax
	add	esp, 8
	test	edi, edi
	je	SHORT $LN7@BasicLuaMe@13
	xor	bl, bl
$LN7@BasicLuaMe@13:
	push	ebp
	push	esi
	call	_lua_settop
	add	esp, 8
	test	bl, bl
	je	SHORT $LN14@BasicLuaMe@13
	push	OFFSET $SG219313
	push	esi
	call	_luaL_error
	push	OFFSET $SG219321
	push	esi
	call	_luaL_error
	add	esp, 16					; 00000010H
$LN14@BasicLuaMe@13:

; 143  : 	CvLuaArgs::pushValue<ret>(L, (pkType->*func)(CvLuaArgs::toValue<arg1>(L, idx), CvLuaArgs::toValue<arg2>(L, idx + 1)));

	push	3
	push	esi
	call	_lua_tointeger
	push	2
	push	esi
	mov	ebx, eax
	call	_lua_tointeger
	add	esp, 16					; 00000010H
	push	ebx
	push	eax
	mov	ecx, edi
	call	DWORD PTR _func$[esp+20]
	movzx	eax, al
	push	eax
	push	esi
	call	_lua_pushboolean
	add	esp, 8
	pop	edi
	pop	esi
	pop	ebp

; 144  : 
; 145  : 	return 1;

	mov	eax, 1
	pop	ebx

; 146  : }

	ret	0
??$BasicLuaMethod@_NW4PlayerTypes@@H@?$CvLuaMethodWrapper@VCvLuaDeal@@VCvDeal@@@@KAHPAUlua_State@@P8CvDeal@@AE_NW4PlayerTypes@@H@Z@Z ENDP ; CvLuaMethodWrapper<CvLuaDeal,CvDeal>::BasicLuaMethod<bool,enum PlayerTypes,int>
_TEXT	ENDS
PUBLIC	??$BasicLuaMethod@_NW4PlayerTypes@@HH@?$CvLuaMethodWrapper@VCvLuaDeal@@VCvDeal@@@@KAHPAUlua_State@@P8CvDeal@@AE_NW4PlayerTypes@@HH@Z@Z ; CvLuaMethodWrapper<CvLuaDeal,CvDeal>::BasicLuaMethod<bool,enum PlayerTypes,int,int>
; Function compile flags: /Ogtpy
;	COMDAT ??$BasicLuaMethod@_NW4PlayerTypes@@HH@?$CvLuaMethodWrapper@VCvLuaDeal@@VCvDeal@@@@KAHPAUlua_State@@P8CvDeal@@AE_NW4PlayerTypes@@HH@Z@Z
_TEXT	SEGMENT
_L$ = 8							; size = 4
_func$ = 12						; size = 4
??$BasicLuaMethod@_NW4PlayerTypes@@HH@?$CvLuaMethodWrapper@VCvLuaDeal@@VCvDeal@@@@KAHPAUlua_State@@P8CvDeal@@AE_NW4PlayerTypes@@HH@Z@Z PROC ; CvLuaMethodWrapper<CvLuaDeal,CvDeal>::BasicLuaMethod<bool,enum PlayerTypes,int,int>, COMDAT

; 150  : {

	push	ebx
	push	ebp
	push	esi

; 151  : 	const int idx = Derived::GetStartingArgIndex();
; 152  : 	InstanceType* pkType = Derived::GetInstance(L);

	mov	esi, DWORD PTR _L$[esp+8]
	push	edi
	push	esi
	call	_lua_gettop
	push	1
	push	esi
	mov	ebp, eax
	mov	bl, 1
	xor	edi, edi
	call	_lua_type
	add	esp, 12					; 0000000cH
	cmp	eax, 5
	jne	SHORT $LN7@BasicLuaMe@14
	push	OFFSET $SG219307
	push	1
	push	esi
	call	_lua_getfield
	push	-1
	push	esi
	call	_lua_type
	add	esp, 20					; 00000014H
	cmp	eax, 2
	jne	SHORT $LN7@BasicLuaMe@14
	push	-1
	push	esi
	call	_lua_touserdata
	mov	edi, eax
	add	esp, 8
	test	edi, edi
	je	SHORT $LN7@BasicLuaMe@14
	xor	bl, bl
$LN7@BasicLuaMe@14:
	push	ebp
	push	esi
	call	_lua_settop
	add	esp, 8
	test	bl, bl
	je	SHORT $LN14@BasicLuaMe@14
	push	OFFSET $SG219313
	push	esi
	call	_luaL_error
	push	OFFSET $SG219321
	push	esi
	call	_luaL_error
	add	esp, 16					; 00000010H
$LN14@BasicLuaMe@14:

; 153  : 	CvLuaArgs::pushValue<ret>(L, (pkType->*func)(CvLuaArgs::toValue<arg1>(L, idx), CvLuaArgs::toValue<arg2>(L, idx + 1), CvLuaArgs::toValue<arg3>(L, idx + 2)));

	push	4
	push	esi
	call	_lua_tointeger
	push	3
	push	esi
	mov	ebx, eax
	call	_lua_tointeger
	push	2
	push	esi
	mov	ebp, eax
	call	_lua_tointeger
	add	esp, 24					; 00000018H
	push	ebx
	push	ebp
	push	eax
	mov	ecx, edi
	call	DWORD PTR _func$[esp+24]
	movzx	eax, al
	push	eax
	push	esi
	call	_lua_pushboolean
	add	esp, 8
	pop	edi
	pop	esi
	pop	ebp

; 154  : 
; 155  : 	return 1;

	mov	eax, 1
	pop	ebx

; 156  : }

	ret	0
??$BasicLuaMethod@_NW4PlayerTypes@@HH@?$CvLuaMethodWrapper@VCvLuaDeal@@VCvDeal@@@@KAHPAUlua_State@@P8CvDeal@@AE_NW4PlayerTypes@@HH@Z@Z ENDP ; CvLuaMethodWrapper<CvLuaDeal,CvDeal>::BasicLuaMethod<bool,enum PlayerTypes,int,int>
_TEXT	ENDS
PUBLIC	??$BasicLuaMethod@_NW4PlayerTypes@@W4ResourceTypes@@HH@?$CvLuaMethodWrapper@VCvLuaDeal@@VCvDeal@@@@KAHPAUlua_State@@P8CvDeal@@AE_NW4PlayerTypes@@W4ResourceTypes@@HH@Z@Z ; CvLuaMethodWrapper<CvLuaDeal,CvDeal>::BasicLuaMethod<bool,enum PlayerTypes,enum ResourceTypes,int,int>
; Function compile flags: /Ogtpy
;	COMDAT ??$BasicLuaMethod@_NW4PlayerTypes@@W4ResourceTypes@@HH@?$CvLuaMethodWrapper@VCvLuaDeal@@VCvDeal@@@@KAHPAUlua_State@@P8CvDeal@@AE_NW4PlayerTypes@@W4ResourceTypes@@HH@Z@Z
_TEXT	SEGMENT
$T220260 = -4						; size = 4
_L$ = 8							; size = 4
_func$ = 12						; size = 4
??$BasicLuaMethod@_NW4PlayerTypes@@W4ResourceTypes@@HH@?$CvLuaMethodWrapper@VCvLuaDeal@@VCvDeal@@@@KAHPAUlua_State@@P8CvDeal@@AE_NW4PlayerTypes@@W4ResourceTypes@@HH@Z@Z PROC ; CvLuaMethodWrapper<CvLuaDeal,CvDeal>::BasicLuaMethod<bool,enum PlayerTypes,enum ResourceTypes,int,int>, COMDAT

; 160  : {

	push	ecx
	push	ebx
	push	ebp
	push	esi

; 161  : 	const int idx = Derived::GetStartingArgIndex();
; 162  : 	InstanceType* pkType = Derived::GetInstance(L);

	mov	esi, DWORD PTR _L$[esp+12]
	push	edi
	push	esi
	call	_lua_gettop
	push	1
	push	esi
	mov	ebp, eax
	mov	bl, 1
	xor	edi, edi
	call	_lua_type
	add	esp, 12					; 0000000cH
	cmp	eax, 5
	jne	SHORT $LN7@BasicLuaMe@15
	push	OFFSET $SG219307
	push	1
	push	esi
	call	_lua_getfield
	push	-1
	push	esi
	call	_lua_type
	add	esp, 20					; 00000014H
	cmp	eax, 2
	jne	SHORT $LN7@BasicLuaMe@15
	push	-1
	push	esi
	call	_lua_touserdata
	mov	edi, eax
	add	esp, 8
	test	edi, edi
	je	SHORT $LN7@BasicLuaMe@15
	xor	bl, bl
$LN7@BasicLuaMe@15:
	push	ebp
	push	esi
	call	_lua_settop
	add	esp, 8
	test	bl, bl
	je	SHORT $LN14@BasicLuaMe@15
	push	OFFSET $SG219313
	push	esi
	call	_luaL_error
	push	OFFSET $SG219321
	push	esi
	call	_luaL_error
	add	esp, 16					; 00000010H
$LN14@BasicLuaMe@15:

; 163  : 	CvLuaArgs::pushValue<ret>(L, (pkType->*func)(CvLuaArgs::toValue<arg1>(L, idx), CvLuaArgs::toValue<arg2>(L, idx + 1), CvLuaArgs::toValue<arg3>(L, idx + 2), CvLuaArgs::toValue<arg4>(L, idx + 3)));

	push	5
	push	esi
	call	_lua_tointeger
	push	4
	push	esi
	mov	ebx, eax
	call	_lua_tointeger
	push	3
	push	esi
	mov	ebp, eax
	call	_lua_tointeger
	push	2
	push	esi
	mov	DWORD PTR $T220260[esp+52], eax
	call	_lua_tointeger
	mov	ecx, DWORD PTR $T220260[esp+52]
	add	esp, 32					; 00000020H
	push	ebx
	push	ebp
	push	ecx
	push	eax
	mov	ecx, edi
	call	DWORD PTR _func$[esp+32]
	movzx	edx, al
	push	edx
	push	esi
	call	_lua_pushboolean
	add	esp, 8
	pop	edi
	pop	esi
	pop	ebp

; 164  : 
; 165  : 	return 1;

	mov	eax, 1
	pop	ebx

; 166  : }

	pop	ecx
	ret	0
??$BasicLuaMethod@_NW4PlayerTypes@@W4ResourceTypes@@HH@?$CvLuaMethodWrapper@VCvLuaDeal@@VCvDeal@@@@KAHPAUlua_State@@P8CvDeal@@AE_NW4PlayerTypes@@W4ResourceTypes@@HH@Z@Z ENDP ; CvLuaMethodWrapper<CvLuaDeal,CvDeal>::BasicLuaMethod<bool,enum PlayerTypes,enum ResourceTypes,int,int>
_TEXT	ENDS
PUBLIC	??$BasicLuaMethod@W4ResourceTypes@@@?$CvLuaMethodWrapper@VCvLuaDeal@@VCvDeal@@@@KAHPAUlua_State@@P8CvDeal@@AEXW4ResourceTypes@@@Z@Z ; CvLuaMethodWrapper<CvLuaDeal,CvDeal>::BasicLuaMethod<enum ResourceTypes>
; Function compile flags: /Ogtpy
;	COMDAT ??$BasicLuaMethod@W4ResourceTypes@@@?$CvLuaMethodWrapper@VCvLuaDeal@@VCvDeal@@@@KAHPAUlua_State@@P8CvDeal@@AEXW4ResourceTypes@@@Z@Z
_TEXT	SEGMENT
_L$ = 8							; size = 4
_func$ = 12						; size = 4
??$BasicLuaMethod@W4ResourceTypes@@@?$CvLuaMethodWrapper@VCvLuaDeal@@VCvDeal@@@@KAHPAUlua_State@@P8CvDeal@@AEXW4ResourceTypes@@@Z@Z PROC ; CvLuaMethodWrapper<CvLuaDeal,CvDeal>::BasicLuaMethod<enum ResourceTypes>, COMDAT

; 230  : {

	push	ebx
	push	ebp
	push	esi

; 231  : 	const int idx = Derived::GetStartingArgIndex();
; 232  : 	InstanceType* pkType = Derived::GetInstance(L);

	mov	esi, DWORD PTR _L$[esp+8]
	push	edi
	push	esi
	call	_lua_gettop
	push	1
	push	esi
	mov	ebp, eax
	mov	bl, 1
	xor	edi, edi
	call	_lua_type
	add	esp, 12					; 0000000cH
	cmp	eax, 5
	jne	SHORT $LN7@BasicLuaMe@16
	push	OFFSET $SG219307
	push	1
	push	esi
	call	_lua_getfield
	push	-1
	push	esi
	call	_lua_type
	add	esp, 20					; 00000014H
	cmp	eax, 2
	jne	SHORT $LN7@BasicLuaMe@16
	push	-1
	push	esi
	call	_lua_touserdata
	mov	edi, eax
	add	esp, 8
	test	edi, edi
	je	SHORT $LN7@BasicLuaMe@16
	xor	bl, bl
$LN7@BasicLuaMe@16:
	push	ebp
	push	esi
	call	_lua_settop
	add	esp, 8
	test	bl, bl
	je	SHORT $LN14@BasicLuaMe@16
	push	OFFSET $SG219313
	push	esi
	call	_luaL_error
	push	OFFSET $SG219321
	push	esi
	call	_luaL_error
	add	esp, 16					; 00000010H
$LN14@BasicLuaMe@16:

; 233  : 	(pkType->*func)(CvLuaArgs::toValue<arg1>(L, idx));

	push	2
	push	esi
	call	_lua_tointeger
	add	esp, 8
	push	eax
	mov	ecx, edi
	call	DWORD PTR _func$[esp+16]
	pop	edi
	pop	esi
	pop	ebp

; 234  : 	return 0;

	xor	eax, eax
	pop	ebx

; 235  : }

	ret	0
??$BasicLuaMethod@W4ResourceTypes@@@?$CvLuaMethodWrapper@VCvLuaDeal@@VCvDeal@@@@KAHPAUlua_State@@P8CvDeal@@AEXW4ResourceTypes@@@Z@Z ENDP ; CvLuaMethodWrapper<CvLuaDeal,CvDeal>::BasicLuaMethod<enum ResourceTypes>
_TEXT	ENDS
PUBLIC	??$BasicLuaMethod@H@?$CvLuaMethodWrapper@VCvLuaDeal@@VCvDeal@@@@KAHPAUlua_State@@P8CvDeal@@AEXH@Z@Z ; CvLuaMethodWrapper<CvLuaDeal,CvDeal>::BasicLuaMethod<int>
; Function compile flags: /Ogtpy
;	COMDAT ??$BasicLuaMethod@H@?$CvLuaMethodWrapper@VCvLuaDeal@@VCvDeal@@@@KAHPAUlua_State@@P8CvDeal@@AEXH@Z@Z
_TEXT	SEGMENT
_L$ = 8							; size = 4
_func$ = 12						; size = 4
??$BasicLuaMethod@H@?$CvLuaMethodWrapper@VCvLuaDeal@@VCvDeal@@@@KAHPAUlua_State@@P8CvDeal@@AEXH@Z@Z PROC ; CvLuaMethodWrapper<CvLuaDeal,CvDeal>::BasicLuaMethod<int>, COMDAT

; 230  : {

	push	ebx
	push	ebp
	push	esi

; 231  : 	const int idx = Derived::GetStartingArgIndex();
; 232  : 	InstanceType* pkType = Derived::GetInstance(L);

	mov	esi, DWORD PTR _L$[esp+8]
	push	edi
	push	esi
	call	_lua_gettop
	push	1
	push	esi
	mov	ebp, eax
	mov	bl, 1
	xor	edi, edi
	call	_lua_type
	add	esp, 12					; 0000000cH
	cmp	eax, 5
	jne	SHORT $LN7@BasicLuaMe@17
	push	OFFSET $SG219307
	push	1
	push	esi
	call	_lua_getfield
	push	-1
	push	esi
	call	_lua_type
	add	esp, 20					; 00000014H
	cmp	eax, 2
	jne	SHORT $LN7@BasicLuaMe@17
	push	-1
	push	esi
	call	_lua_touserdata
	mov	edi, eax
	add	esp, 8
	test	edi, edi
	je	SHORT $LN7@BasicLuaMe@17
	xor	bl, bl
$LN7@BasicLuaMe@17:
	push	ebp
	push	esi
	call	_lua_settop
	add	esp, 8
	test	bl, bl
	je	SHORT $LN14@BasicLuaMe@17
	push	OFFSET $SG219313
	push	esi
	call	_luaL_error
	push	OFFSET $SG219321
	push	esi
	call	_luaL_error
	add	esp, 16					; 00000010H
$LN14@BasicLuaMe@17:

; 233  : 	(pkType->*func)(CvLuaArgs::toValue<arg1>(L, idx));

	push	2
	push	esi
	call	_lua_tointeger
	add	esp, 8
	push	eax
	mov	ecx, edi
	call	DWORD PTR _func$[esp+16]
	pop	edi
	pop	esi
	pop	ebp

; 234  : 	return 0;

	xor	eax, eax
	pop	ebx

; 235  : }

	ret	0
??$BasicLuaMethod@H@?$CvLuaMethodWrapper@VCvLuaDeal@@VCvDeal@@@@KAHPAUlua_State@@P8CvDeal@@AEXH@Z@Z ENDP ; CvLuaMethodWrapper<CvLuaDeal,CvDeal>::BasicLuaMethod<int>
_TEXT	ENDS
PUBLIC	??$BasicLuaMethod@W4PlayerTypes@@W41@@?$CvLuaMethodWrapper@VCvLuaDeal@@VCvDeal@@@@KAHPAUlua_State@@P8CvDeal@@AEXW4PlayerTypes@@1@Z@Z ; CvLuaMethodWrapper<CvLuaDeal,CvDeal>::BasicLuaMethod<enum PlayerTypes,enum PlayerTypes>
; Function compile flags: /Ogtpy
;	COMDAT ??$BasicLuaMethod@W4PlayerTypes@@W41@@?$CvLuaMethodWrapper@VCvLuaDeal@@VCvDeal@@@@KAHPAUlua_State@@P8CvDeal@@AEXW4PlayerTypes@@1@Z@Z
_TEXT	SEGMENT
_L$ = 8							; size = 4
_func$ = 12						; size = 4
??$BasicLuaMethod@W4PlayerTypes@@W41@@?$CvLuaMethodWrapper@VCvLuaDeal@@VCvDeal@@@@KAHPAUlua_State@@P8CvDeal@@AEXW4PlayerTypes@@1@Z@Z PROC ; CvLuaMethodWrapper<CvLuaDeal,CvDeal>::BasicLuaMethod<enum PlayerTypes,enum PlayerTypes>, COMDAT

; 239  : {

	push	ebx
	push	ebp
	push	esi

; 240  : 	const int idx = Derived::GetStartingArgIndex();
; 241  : 	InstanceType* pkType = Derived::GetInstance(L);

	mov	esi, DWORD PTR _L$[esp+8]
	push	edi
	push	esi
	call	_lua_gettop
	push	1
	push	esi
	mov	ebp, eax
	mov	bl, 1
	xor	edi, edi
	call	_lua_type
	add	esp, 12					; 0000000cH
	cmp	eax, 5
	jne	SHORT $LN7@BasicLuaMe@18
	push	OFFSET $SG219307
	push	1
	push	esi
	call	_lua_getfield
	push	-1
	push	esi
	call	_lua_type
	add	esp, 20					; 00000014H
	cmp	eax, 2
	jne	SHORT $LN7@BasicLuaMe@18
	push	-1
	push	esi
	call	_lua_touserdata
	mov	edi, eax
	add	esp, 8
	test	edi, edi
	je	SHORT $LN7@BasicLuaMe@18
	xor	bl, bl
$LN7@BasicLuaMe@18:
	push	ebp
	push	esi
	call	_lua_settop
	add	esp, 8
	test	bl, bl
	je	SHORT $LN14@BasicLuaMe@18
	push	OFFSET $SG219313
	push	esi
	call	_luaL_error
	push	OFFSET $SG219321
	push	esi
	call	_luaL_error
	add	esp, 16					; 00000010H
$LN14@BasicLuaMe@18:

; 242  : 	(pkType->*func)(CvLuaArgs::toValue<arg1>(L, idx), CvLuaArgs::toValue<arg2>(L, idx + 1));

	push	3
	push	esi
	call	_lua_tointeger
	add	esp, 8
	push	eax
	push	2
	push	esi
	call	_lua_tointeger
	add	esp, 8
	push	eax
	mov	ecx, edi
	call	DWORD PTR _func$[esp+20]
	pop	edi
	pop	esi
	pop	ebp

; 243  : 	return 0;

	xor	eax, eax
	pop	ebx

; 244  : }

	ret	0
??$BasicLuaMethod@W4PlayerTypes@@W41@@?$CvLuaMethodWrapper@VCvLuaDeal@@VCvDeal@@@@KAHPAUlua_State@@P8CvDeal@@AEXW4PlayerTypes@@1@Z@Z ENDP ; CvLuaMethodWrapper<CvLuaDeal,CvDeal>::BasicLuaMethod<enum PlayerTypes,enum PlayerTypes>
_TEXT	ENDS
PUBLIC	?lGetNumItems@CvLuaDeal@@KAHPAUlua_State@@@Z	; CvLuaDeal::lGetNumItems
EXTRN	?GetNumItems@CvDeal@@QAEHXZ:PROC		; CvDeal::GetNumItems
; Function compile flags: /Ogtpy
; File c:\users\enormousapplepie\documents\github\lekmod\lekmod_dll\cvgamecoredll_expansion2\lua\cvluadeal.h
;	COMDAT ?lGetNumItems@CvLuaDeal@@KAHPAUlua_State@@@Z
_TEXT	SEGMENT
_L$ = 8							; size = 4
?lGetNumItems@CvLuaDeal@@KAHPAUlua_State@@@Z PROC	; CvLuaDeal::lGetNumItems, COMDAT

; 37   : 		return BasicLuaMethod(L, &CvDeal::GetNumItems);

	mov	eax, DWORD PTR _L$[esp-4]
	push	OFFSET ?GetNumItems@CvDeal@@QAEHXZ	; CvDeal::GetNumItems
	push	eax
	call	??$BasicLuaMethod@H@?$CvLuaMethodWrapper@VCvLuaDeal@@VCvDeal@@@@KAHPAUlua_State@@P8CvDeal@@AEHXZ@Z ; CvLuaMethodWrapper<CvLuaDeal,CvDeal>::BasicLuaMethod<int>
	add	esp, 8

; 38   : 	};

	ret	0
?lGetNumItems@CvLuaDeal@@KAHPAUlua_State@@@Z ENDP	; CvLuaDeal::lGetNumItems
_TEXT	ENDS
PUBLIC	?lGetStartTurn@CvLuaDeal@@KAHPAUlua_State@@@Z	; CvLuaDeal::lGetStartTurn
; Function compile flags: /Ogtpy
;	COMDAT ?lGetStartTurn@CvLuaDeal@@KAHPAUlua_State@@@Z
_TEXT	SEGMENT
_L$ = 8							; size = 4
?lGetStartTurn@CvLuaDeal@@KAHPAUlua_State@@@Z PROC	; CvLuaDeal::lGetStartTurn, COMDAT

; 42   : 		return BasicLuaMethod(L, &CvDeal::GetStartTurn);

	mov	eax, DWORD PTR _L$[esp-4]
	push	OFFSET ?GetStartTurn@CvDeal@@QBEIXZ	; CvDeal::GetStartTurn
	push	eax
	call	??$BasicLuaMethod@I@?$CvLuaMethodWrapper@VCvLuaDeal@@VCvDeal@@@@KAHPAUlua_State@@P8CvDeal@@BEIXZ@Z ; CvLuaMethodWrapper<CvLuaDeal,CvDeal>::BasicLuaMethod<unsigned int>
	add	esp, 8

; 43   : 	};

	ret	0
?lGetStartTurn@CvLuaDeal@@KAHPAUlua_State@@@Z ENDP	; CvLuaDeal::lGetStartTurn
_TEXT	ENDS
PUBLIC	?lGetEndTurn@CvLuaDeal@@KAHPAUlua_State@@@Z	; CvLuaDeal::lGetEndTurn
; Function compile flags: /Ogtpy
;	COMDAT ?lGetEndTurn@CvLuaDeal@@KAHPAUlua_State@@@Z
_TEXT	SEGMENT
_L$ = 8							; size = 4
?lGetEndTurn@CvLuaDeal@@KAHPAUlua_State@@@Z PROC	; CvLuaDeal::lGetEndTurn, COMDAT

; 46   : 		return BasicLuaMethod(L, &CvDeal::GetEndTurn);

	mov	eax, DWORD PTR _L$[esp-4]
	push	OFFSET ?GetEndTurn@CvDeal@@QBEIXZ	; CvDeal::GetEndTurn
	push	eax
	call	??$BasicLuaMethod@I@?$CvLuaMethodWrapper@VCvLuaDeal@@VCvDeal@@@@KAHPAUlua_State@@P8CvDeal@@BEIXZ@Z ; CvLuaMethodWrapper<CvLuaDeal,CvDeal>::BasicLuaMethod<unsigned int>
	add	esp, 8

; 47   : 	};

	ret	0
?lGetEndTurn@CvLuaDeal@@KAHPAUlua_State@@@Z ENDP	; CvLuaDeal::lGetEndTurn
_TEXT	ENDS
PUBLIC	?lGetDuration@CvLuaDeal@@KAHPAUlua_State@@@Z	; CvLuaDeal::lGetDuration
; Function compile flags: /Ogtpy
;	COMDAT ?lGetDuration@CvLuaDeal@@KAHPAUlua_State@@@Z
_TEXT	SEGMENT
_L$ = 8							; size = 4
?lGetDuration@CvLuaDeal@@KAHPAUlua_State@@@Z PROC	; CvLuaDeal::lGetDuration, COMDAT

; 50   : 		return BasicLuaMethod(L, &CvDeal::GetDuration);

	mov	eax, DWORD PTR _L$[esp-4]
	push	OFFSET ?GetDuration@CvDeal@@QBEIXZ	; CvDeal::GetDuration
	push	eax
	call	??$BasicLuaMethod@I@?$CvLuaMethodWrapper@VCvLuaDeal@@VCvDeal@@@@KAHPAUlua_State@@P8CvDeal@@BEIXZ@Z ; CvLuaMethodWrapper<CvLuaDeal,CvDeal>::BasicLuaMethod<unsigned int>
	add	esp, 8

; 51   : 	};

	ret	0
?lGetDuration@CvLuaDeal@@KAHPAUlua_State@@@Z ENDP	; CvLuaDeal::lGetDuration
_TEXT	ENDS
PUBLIC	?lSetFromPlayer@CvLuaDeal@@KAHPAUlua_State@@@Z	; CvLuaDeal::lSetFromPlayer
EXTRN	?SetFromPlayer@CvDeal@@QAEXW4PlayerTypes@@@Z:PROC ; CvDeal::SetFromPlayer
; Function compile flags: /Ogtpy
;	COMDAT ?lSetFromPlayer@CvLuaDeal@@KAHPAUlua_State@@@Z
_TEXT	SEGMENT
_L$ = 8							; size = 4
?lSetFromPlayer@CvLuaDeal@@KAHPAUlua_State@@@Z PROC	; CvLuaDeal::lSetFromPlayer, COMDAT

; 55   : 		return BasicLuaMethod(L, &CvDeal::SetFromPlayer);

	mov	eax, DWORD PTR _L$[esp-4]
	push	OFFSET ?SetFromPlayer@CvDeal@@QAEXW4PlayerTypes@@@Z ; CvDeal::SetFromPlayer
	push	eax
	call	??$BasicLuaMethod@W4PlayerTypes@@@?$CvLuaMethodWrapper@VCvLuaDeal@@VCvDeal@@@@KAHPAUlua_State@@P8CvDeal@@AEXW4PlayerTypes@@@Z@Z ; CvLuaMethodWrapper<CvLuaDeal,CvDeal>::BasicLuaMethod<enum PlayerTypes>
	add	esp, 8

; 56   : 	};

	ret	0
?lSetFromPlayer@CvLuaDeal@@KAHPAUlua_State@@@Z ENDP	; CvLuaDeal::lSetFromPlayer
_TEXT	ENDS
PUBLIC	?lSetToPlayer@CvLuaDeal@@KAHPAUlua_State@@@Z	; CvLuaDeal::lSetToPlayer
EXTRN	?SetToPlayer@CvDeal@@QAEXW4PlayerTypes@@@Z:PROC	; CvDeal::SetToPlayer
; Function compile flags: /Ogtpy
;	COMDAT ?lSetToPlayer@CvLuaDeal@@KAHPAUlua_State@@@Z
_TEXT	SEGMENT
_L$ = 8							; size = 4
?lSetToPlayer@CvLuaDeal@@KAHPAUlua_State@@@Z PROC	; CvLuaDeal::lSetToPlayer, COMDAT

; 59   : 		return BasicLuaMethod(L, &CvDeal::SetToPlayer);

	mov	eax, DWORD PTR _L$[esp-4]
	push	OFFSET ?SetToPlayer@CvDeal@@QAEXW4PlayerTypes@@@Z ; CvDeal::SetToPlayer
	push	eax
	call	??$BasicLuaMethod@W4PlayerTypes@@@?$CvLuaMethodWrapper@VCvLuaDeal@@VCvDeal@@@@KAHPAUlua_State@@P8CvDeal@@AEXW4PlayerTypes@@@Z@Z ; CvLuaMethodWrapper<CvLuaDeal,CvDeal>::BasicLuaMethod<enum PlayerTypes>
	add	esp, 8

; 60   : 	};

	ret	0
?lSetToPlayer@CvLuaDeal@@KAHPAUlua_State@@@Z ENDP	; CvLuaDeal::lSetToPlayer
_TEXT	ENDS
PUBLIC	?lGetOtherPlayer@CvLuaDeal@@KAHPAUlua_State@@@Z	; CvLuaDeal::lGetOtherPlayer
EXTRN	?GetOtherPlayer@CvDeal@@QBE?AW4PlayerTypes@@W42@@Z:PROC ; CvDeal::GetOtherPlayer
; Function compile flags: /Ogtpy
;	COMDAT ?lGetOtherPlayer@CvLuaDeal@@KAHPAUlua_State@@@Z
_TEXT	SEGMENT
_L$ = 8							; size = 4
?lGetOtherPlayer@CvLuaDeal@@KAHPAUlua_State@@@Z PROC	; CvLuaDeal::lGetOtherPlayer, COMDAT

; 63   : 		return BasicLuaMethod(L, &CvDeal::GetOtherPlayer);

	mov	eax, DWORD PTR _L$[esp-4]
	push	OFFSET ?GetOtherPlayer@CvDeal@@QBE?AW4PlayerTypes@@W42@@Z ; CvDeal::GetOtherPlayer
	push	eax
	call	??$BasicLuaMethod@W4PlayerTypes@@W41@@?$CvLuaMethodWrapper@VCvLuaDeal@@VCvDeal@@@@KAHPAUlua_State@@P8CvDeal@@BE?AW4PlayerTypes@@W43@@Z@Z ; CvLuaMethodWrapper<CvLuaDeal,CvDeal>::BasicLuaMethod<enum PlayerTypes,enum PlayerTypes>
	add	esp, 8

; 64   : 	};

	ret	0
?lGetOtherPlayer@CvLuaDeal@@KAHPAUlua_State@@@Z ENDP	; CvLuaDeal::lGetOtherPlayer
_TEXT	ENDS
PUBLIC	?lGetToPlayer@CvLuaDeal@@KAHPAUlua_State@@@Z	; CvLuaDeal::lGetToPlayer
; Function compile flags: /Ogtpy
;	COMDAT ?lGetToPlayer@CvLuaDeal@@KAHPAUlua_State@@@Z
_TEXT	SEGMENT
_L$ = 8							; size = 4
?lGetToPlayer@CvLuaDeal@@KAHPAUlua_State@@@Z PROC	; CvLuaDeal::lGetToPlayer, COMDAT

; 67   : 		return BasicLuaMethod(L, &CvDeal::GetToPlayer);

	mov	eax, DWORD PTR _L$[esp-4]
	push	OFFSET ?GetToPlayer@CvDeal@@QBE?AW4PlayerTypes@@XZ ; CvDeal::GetToPlayer
	push	eax
	call	??$BasicLuaMethod@W4PlayerTypes@@@?$CvLuaMethodWrapper@VCvLuaDeal@@VCvDeal@@@@KAHPAUlua_State@@P8CvDeal@@BE?AW4PlayerTypes@@XZ@Z ; CvLuaMethodWrapper<CvLuaDeal,CvDeal>::BasicLuaMethod<enum PlayerTypes>
	add	esp, 8

; 68   : 	};

	ret	0
?lGetToPlayer@CvLuaDeal@@KAHPAUlua_State@@@Z ENDP	; CvLuaDeal::lGetToPlayer
_TEXT	ENDS
PUBLIC	?lGetFromPlayer@CvLuaDeal@@KAHPAUlua_State@@@Z	; CvLuaDeal::lGetFromPlayer
; Function compile flags: /Ogtpy
;	COMDAT ?lGetFromPlayer@CvLuaDeal@@KAHPAUlua_State@@@Z
_TEXT	SEGMENT
_L$ = 8							; size = 4
?lGetFromPlayer@CvLuaDeal@@KAHPAUlua_State@@@Z PROC	; CvLuaDeal::lGetFromPlayer, COMDAT

; 71   : 		return BasicLuaMethod(L, &CvDeal::GetFromPlayer);

	mov	eax, DWORD PTR _L$[esp-4]
	push	OFFSET ?GetFromPlayer@CvDeal@@QBE?AW4PlayerTypes@@XZ ; CvDeal::GetFromPlayer
	push	eax
	call	??$BasicLuaMethod@W4PlayerTypes@@@?$CvLuaMethodWrapper@VCvLuaDeal@@VCvDeal@@@@KAHPAUlua_State@@P8CvDeal@@BE?AW4PlayerTypes@@XZ@Z ; CvLuaMethodWrapper<CvLuaDeal,CvDeal>::BasicLuaMethod<enum PlayerTypes>
	add	esp, 8

; 72   : 	};

	ret	0
?lGetFromPlayer@CvLuaDeal@@KAHPAUlua_State@@@Z ENDP	; CvLuaDeal::lGetFromPlayer
_TEXT	ENDS
PUBLIC	?lGetSurrenderingPlayer@CvLuaDeal@@KAHPAUlua_State@@@Z ; CvLuaDeal::lGetSurrenderingPlayer
EXTRN	?GetSurrenderingPlayer@CvDeal@@QBE?AW4PlayerTypes@@XZ:PROC ; CvDeal::GetSurrenderingPlayer
; Function compile flags: /Ogtpy
;	COMDAT ?lGetSurrenderingPlayer@CvLuaDeal@@KAHPAUlua_State@@@Z
_TEXT	SEGMENT
_L$ = 8							; size = 4
?lGetSurrenderingPlayer@CvLuaDeal@@KAHPAUlua_State@@@Z PROC ; CvLuaDeal::lGetSurrenderingPlayer, COMDAT

; 76   : 		return BasicLuaMethod(L, &CvDeal::GetSurrenderingPlayer);

	mov	eax, DWORD PTR _L$[esp-4]
	push	OFFSET ?GetSurrenderingPlayer@CvDeal@@QBE?AW4PlayerTypes@@XZ ; CvDeal::GetSurrenderingPlayer
	push	eax
	call	??$BasicLuaMethod@W4PlayerTypes@@@?$CvLuaMethodWrapper@VCvLuaDeal@@VCvDeal@@@@KAHPAUlua_State@@P8CvDeal@@BE?AW4PlayerTypes@@XZ@Z ; CvLuaMethodWrapper<CvLuaDeal,CvDeal>::BasicLuaMethod<enum PlayerTypes>
	add	esp, 8

; 77   : 	};

	ret	0
?lGetSurrenderingPlayer@CvLuaDeal@@KAHPAUlua_State@@@Z ENDP ; CvLuaDeal::lGetSurrenderingPlayer
_TEXT	ENDS
PUBLIC	?lSetSurrenderingPlayer@CvLuaDeal@@KAHPAUlua_State@@@Z ; CvLuaDeal::lSetSurrenderingPlayer
EXTRN	?SetSurrenderingPlayer@CvDeal@@QAEXW4PlayerTypes@@@Z:PROC ; CvDeal::SetSurrenderingPlayer
; Function compile flags: /Ogtpy
;	COMDAT ?lSetSurrenderingPlayer@CvLuaDeal@@KAHPAUlua_State@@@Z
_TEXT	SEGMENT
_L$ = 8							; size = 4
?lSetSurrenderingPlayer@CvLuaDeal@@KAHPAUlua_State@@@Z PROC ; CvLuaDeal::lSetSurrenderingPlayer, COMDAT

; 80   : 		return BasicLuaMethod(L, &CvDeal::SetSurrenderingPlayer);

	mov	eax, DWORD PTR _L$[esp-4]
	push	OFFSET ?SetSurrenderingPlayer@CvDeal@@QAEXW4PlayerTypes@@@Z ; CvDeal::SetSurrenderingPlayer
	push	eax
	call	??$BasicLuaMethod@W4PlayerTypes@@@?$CvLuaMethodWrapper@VCvLuaDeal@@VCvDeal@@@@KAHPAUlua_State@@P8CvDeal@@AEXW4PlayerTypes@@@Z@Z ; CvLuaMethodWrapper<CvLuaDeal,CvDeal>::BasicLuaMethod<enum PlayerTypes>
	add	esp, 8

; 81   : 	};

	ret	0
?lSetSurrenderingPlayer@CvLuaDeal@@KAHPAUlua_State@@@Z ENDP ; CvLuaDeal::lSetSurrenderingPlayer
_TEXT	ENDS
PUBLIC	?lGetDemandingPlayer@CvLuaDeal@@KAHPAUlua_State@@@Z ; CvLuaDeal::lGetDemandingPlayer
EXTRN	?GetDemandingPlayer@CvDeal@@QBE?AW4PlayerTypes@@XZ:PROC ; CvDeal::GetDemandingPlayer
; Function compile flags: /Ogtpy
;	COMDAT ?lGetDemandingPlayer@CvLuaDeal@@KAHPAUlua_State@@@Z
_TEXT	SEGMENT
_L$ = 8							; size = 4
?lGetDemandingPlayer@CvLuaDeal@@KAHPAUlua_State@@@Z PROC ; CvLuaDeal::lGetDemandingPlayer, COMDAT

; 84   : 		return BasicLuaMethod(L, &CvDeal::GetDemandingPlayer);

	mov	eax, DWORD PTR _L$[esp-4]
	push	OFFSET ?GetDemandingPlayer@CvDeal@@QBE?AW4PlayerTypes@@XZ ; CvDeal::GetDemandingPlayer
	push	eax
	call	??$BasicLuaMethod@W4PlayerTypes@@@?$CvLuaMethodWrapper@VCvLuaDeal@@VCvDeal@@@@KAHPAUlua_State@@P8CvDeal@@BE?AW4PlayerTypes@@XZ@Z ; CvLuaMethodWrapper<CvLuaDeal,CvDeal>::BasicLuaMethod<enum PlayerTypes>
	add	esp, 8

; 85   : 	};

	ret	0
?lGetDemandingPlayer@CvLuaDeal@@KAHPAUlua_State@@@Z ENDP ; CvLuaDeal::lGetDemandingPlayer
_TEXT	ENDS
PUBLIC	?lSetDemandingPlayer@CvLuaDeal@@KAHPAUlua_State@@@Z ; CvLuaDeal::lSetDemandingPlayer
EXTRN	?SetDemandingPlayer@CvDeal@@QAEXW4PlayerTypes@@@Z:PROC ; CvDeal::SetDemandingPlayer
; Function compile flags: /Ogtpy
;	COMDAT ?lSetDemandingPlayer@CvLuaDeal@@KAHPAUlua_State@@@Z
_TEXT	SEGMENT
_L$ = 8							; size = 4
?lSetDemandingPlayer@CvLuaDeal@@KAHPAUlua_State@@@Z PROC ; CvLuaDeal::lSetDemandingPlayer, COMDAT

; 88   : 		return BasicLuaMethod(L, &CvDeal::SetDemandingPlayer);

	mov	eax, DWORD PTR _L$[esp-4]
	push	OFFSET ?SetDemandingPlayer@CvDeal@@QAEXW4PlayerTypes@@@Z ; CvDeal::SetDemandingPlayer
	push	eax
	call	??$BasicLuaMethod@W4PlayerTypes@@@?$CvLuaMethodWrapper@VCvLuaDeal@@VCvDeal@@@@KAHPAUlua_State@@P8CvDeal@@AEXW4PlayerTypes@@@Z@Z ; CvLuaMethodWrapper<CvLuaDeal,CvDeal>::BasicLuaMethod<enum PlayerTypes>
	add	esp, 8

; 89   : 	};

	ret	0
?lSetDemandingPlayer@CvLuaDeal@@KAHPAUlua_State@@@Z ENDP ; CvLuaDeal::lSetDemandingPlayer
_TEXT	ENDS
PUBLIC	?lGetRequestingPlayer@CvLuaDeal@@KAHPAUlua_State@@@Z ; CvLuaDeal::lGetRequestingPlayer
EXTRN	?GetRequestingPlayer@CvDeal@@QBE?AW4PlayerTypes@@XZ:PROC ; CvDeal::GetRequestingPlayer
; Function compile flags: /Ogtpy
;	COMDAT ?lGetRequestingPlayer@CvLuaDeal@@KAHPAUlua_State@@@Z
_TEXT	SEGMENT
_L$ = 8							; size = 4
?lGetRequestingPlayer@CvLuaDeal@@KAHPAUlua_State@@@Z PROC ; CvLuaDeal::lGetRequestingPlayer, COMDAT

; 92   : 		return BasicLuaMethod(L, &CvDeal::GetRequestingPlayer);

	mov	eax, DWORD PTR _L$[esp-4]
	push	OFFSET ?GetRequestingPlayer@CvDeal@@QBE?AW4PlayerTypes@@XZ ; CvDeal::GetRequestingPlayer
	push	eax
	call	??$BasicLuaMethod@W4PlayerTypes@@@?$CvLuaMethodWrapper@VCvLuaDeal@@VCvDeal@@@@KAHPAUlua_State@@P8CvDeal@@BE?AW4PlayerTypes@@XZ@Z ; CvLuaMethodWrapper<CvLuaDeal,CvDeal>::BasicLuaMethod<enum PlayerTypes>
	add	esp, 8

; 93   : 	};

	ret	0
?lGetRequestingPlayer@CvLuaDeal@@KAHPAUlua_State@@@Z ENDP ; CvLuaDeal::lGetRequestingPlayer
_TEXT	ENDS
PUBLIC	?lSetRequestingPlayer@CvLuaDeal@@KAHPAUlua_State@@@Z ; CvLuaDeal::lSetRequestingPlayer
EXTRN	?SetRequestingPlayer@CvDeal@@QAEXW4PlayerTypes@@@Z:PROC ; CvDeal::SetRequestingPlayer
; Function compile flags: /Ogtpy
;	COMDAT ?lSetRequestingPlayer@CvLuaDeal@@KAHPAUlua_State@@@Z
_TEXT	SEGMENT
_L$ = 8							; size = 4
?lSetRequestingPlayer@CvLuaDeal@@KAHPAUlua_State@@@Z PROC ; CvLuaDeal::lSetRequestingPlayer, COMDAT

; 96   : 		return BasicLuaMethod(L, &CvDeal::SetRequestingPlayer);

	mov	eax, DWORD PTR _L$[esp-4]
	push	OFFSET ?SetRequestingPlayer@CvDeal@@QAEXW4PlayerTypes@@@Z ; CvDeal::SetRequestingPlayer
	push	eax
	call	??$BasicLuaMethod@W4PlayerTypes@@@?$CvLuaMethodWrapper@VCvLuaDeal@@VCvDeal@@@@KAHPAUlua_State@@P8CvDeal@@AEXW4PlayerTypes@@@Z@Z ; CvLuaMethodWrapper<CvLuaDeal,CvDeal>::BasicLuaMethod<enum PlayerTypes>
	add	esp, 8

; 97   : 	};

	ret	0
?lSetRequestingPlayer@CvLuaDeal@@KAHPAUlua_State@@@Z ENDP ; CvLuaDeal::lSetRequestingPlayer
_TEXT	ENDS
PUBLIC	?lGetGoldAvailable@CvLuaDeal@@KAHPAUlua_State@@@Z ; CvLuaDeal::lGetGoldAvailable
EXTRN	?GetGoldAvailable@CvDeal@@QAEHW4PlayerTypes@@W4TradeableItems@@@Z:PROC ; CvDeal::GetGoldAvailable
; Function compile flags: /Ogtpy
;	COMDAT ?lGetGoldAvailable@CvLuaDeal@@KAHPAUlua_State@@@Z
_TEXT	SEGMENT
_L$ = 8							; size = 4
?lGetGoldAvailable@CvLuaDeal@@KAHPAUlua_State@@@Z PROC	; CvLuaDeal::lGetGoldAvailable, COMDAT

; 101  : 		return BasicLuaMethod(L, &CvDeal::GetGoldAvailable);

	mov	eax, DWORD PTR _L$[esp-4]
	push	OFFSET ?GetGoldAvailable@CvDeal@@QAEHW4PlayerTypes@@W4TradeableItems@@@Z ; CvDeal::GetGoldAvailable
	push	eax
	call	??$BasicLuaMethod@HW4PlayerTypes@@W4TradeableItems@@@?$CvLuaMethodWrapper@VCvLuaDeal@@VCvDeal@@@@KAHPAUlua_State@@P8CvDeal@@AEHW4PlayerTypes@@W4TradeableItems@@@Z@Z ; CvLuaMethodWrapper<CvLuaDeal,CvDeal>::BasicLuaMethod<int,enum PlayerTypes,enum TradeableItems>
	add	esp, 8

; 102  : 	};

	ret	0
?lGetGoldAvailable@CvLuaDeal@@KAHPAUlua_State@@@Z ENDP	; CvLuaDeal::lGetGoldAvailable
_TEXT	ENDS
PUBLIC	?lAddGoldTrade@CvLuaDeal@@KAHPAUlua_State@@@Z	; CvLuaDeal::lAddGoldTrade
EXTRN	?AddGoldTrade@CvDeal@@QAEXW4PlayerTypes@@H@Z:PROC ; CvDeal::AddGoldTrade
; Function compile flags: /Ogtpy
;	COMDAT ?lAddGoldTrade@CvLuaDeal@@KAHPAUlua_State@@@Z
_TEXT	SEGMENT
_L$ = 8							; size = 4
?lAddGoldTrade@CvLuaDeal@@KAHPAUlua_State@@@Z PROC	; CvLuaDeal::lAddGoldTrade, COMDAT

; 109  : 		return BasicLuaMethod(L, &CvDeal::AddGoldTrade);

	mov	eax, DWORD PTR _L$[esp-4]
	push	OFFSET ?AddGoldTrade@CvDeal@@QAEXW4PlayerTypes@@H@Z ; CvDeal::AddGoldTrade
	push	eax
	call	??$BasicLuaMethod@W4PlayerTypes@@H@?$CvLuaMethodWrapper@VCvLuaDeal@@VCvDeal@@@@KAHPAUlua_State@@P8CvDeal@@AEXW4PlayerTypes@@H@Z@Z ; CvLuaMethodWrapper<CvLuaDeal,CvDeal>::BasicLuaMethod<enum PlayerTypes,int>
	add	esp, 8

; 110  : 	};

	ret	0
?lAddGoldTrade@CvLuaDeal@@KAHPAUlua_State@@@Z ENDP	; CvLuaDeal::lAddGoldTrade
_TEXT	ENDS
PUBLIC	?lAddGoldPerTurnTrade@CvLuaDeal@@KAHPAUlua_State@@@Z ; CvLuaDeal::lAddGoldPerTurnTrade
EXTRN	?AddGoldPerTurnTrade@CvDeal@@QAEXW4PlayerTypes@@HH@Z:PROC ; CvDeal::AddGoldPerTurnTrade
; Function compile flags: /Ogtpy
;	COMDAT ?lAddGoldPerTurnTrade@CvLuaDeal@@KAHPAUlua_State@@@Z
_TEXT	SEGMENT
_L$ = 8							; size = 4
?lAddGoldPerTurnTrade@CvLuaDeal@@KAHPAUlua_State@@@Z PROC ; CvLuaDeal::lAddGoldPerTurnTrade, COMDAT

; 113  : 		return BasicLuaMethod(L, &CvDeal::AddGoldPerTurnTrade);

	mov	eax, DWORD PTR _L$[esp-4]
	push	OFFSET ?AddGoldPerTurnTrade@CvDeal@@QAEXW4PlayerTypes@@HH@Z ; CvDeal::AddGoldPerTurnTrade
	push	eax
	call	??$BasicLuaMethod@W4PlayerTypes@@HH@?$CvLuaMethodWrapper@VCvLuaDeal@@VCvDeal@@@@KAHPAUlua_State@@P8CvDeal@@AEXW4PlayerTypes@@HH@Z@Z ; CvLuaMethodWrapper<CvLuaDeal,CvDeal>::BasicLuaMethod<enum PlayerTypes,int,int>
	add	esp, 8

; 114  : 	};

	ret	0
?lAddGoldPerTurnTrade@CvLuaDeal@@KAHPAUlua_State@@@Z ENDP ; CvLuaDeal::lAddGoldPerTurnTrade
_TEXT	ENDS
PUBLIC	?lAddMapTrade@CvLuaDeal@@KAHPAUlua_State@@@Z	; CvLuaDeal::lAddMapTrade
EXTRN	?AddMapTrade@CvDeal@@QAEXW4PlayerTypes@@@Z:PROC	; CvDeal::AddMapTrade
; Function compile flags: /Ogtpy
;	COMDAT ?lAddMapTrade@CvLuaDeal@@KAHPAUlua_State@@@Z
_TEXT	SEGMENT
_L$ = 8							; size = 4
?lAddMapTrade@CvLuaDeal@@KAHPAUlua_State@@@Z PROC	; CvLuaDeal::lAddMapTrade, COMDAT

; 117  : 		return BasicLuaMethod(L, &CvDeal::AddMapTrade);

	mov	eax, DWORD PTR _L$[esp-4]
	push	OFFSET ?AddMapTrade@CvDeal@@QAEXW4PlayerTypes@@@Z ; CvDeal::AddMapTrade
	push	eax
	call	??$BasicLuaMethod@W4PlayerTypes@@@?$CvLuaMethodWrapper@VCvLuaDeal@@VCvDeal@@@@KAHPAUlua_State@@P8CvDeal@@AEXW4PlayerTypes@@@Z@Z ; CvLuaMethodWrapper<CvLuaDeal,CvDeal>::BasicLuaMethod<enum PlayerTypes>
	add	esp, 8

; 118  : 	};

	ret	0
?lAddMapTrade@CvLuaDeal@@KAHPAUlua_State@@@Z ENDP	; CvLuaDeal::lAddMapTrade
_TEXT	ENDS
PUBLIC	?lAddResourceTrade@CvLuaDeal@@KAHPAUlua_State@@@Z ; CvLuaDeal::lAddResourceTrade
EXTRN	?AddResourceTrade@CvDeal@@QAEXW4PlayerTypes@@W4ResourceTypes@@HH@Z:PROC ; CvDeal::AddResourceTrade
; Function compile flags: /Ogtpy
;	COMDAT ?lAddResourceTrade@CvLuaDeal@@KAHPAUlua_State@@@Z
_TEXT	SEGMENT
_L$ = 8							; size = 4
?lAddResourceTrade@CvLuaDeal@@KAHPAUlua_State@@@Z PROC	; CvLuaDeal::lAddResourceTrade, COMDAT

; 121  : 		return BasicLuaMethod(L, &CvDeal::AddResourceTrade);

	mov	eax, DWORD PTR _L$[esp-4]
	push	OFFSET ?AddResourceTrade@CvDeal@@QAEXW4PlayerTypes@@W4ResourceTypes@@HH@Z ; CvDeal::AddResourceTrade
	push	eax
	call	??$BasicLuaMethod@W4PlayerTypes@@W4ResourceTypes@@HH@?$CvLuaMethodWrapper@VCvLuaDeal@@VCvDeal@@@@KAHPAUlua_State@@P8CvDeal@@AEXW4PlayerTypes@@W4ResourceTypes@@HH@Z@Z ; CvLuaMethodWrapper<CvLuaDeal,CvDeal>::BasicLuaMethod<enum PlayerTypes,enum ResourceTypes,int,int>
	add	esp, 8

; 122  : 	};

	ret	0
?lAddResourceTrade@CvLuaDeal@@KAHPAUlua_State@@@Z ENDP	; CvLuaDeal::lAddResourceTrade
_TEXT	ENDS
PUBLIC	?lAddCityTrade@CvLuaDeal@@KAHPAUlua_State@@@Z	; CvLuaDeal::lAddCityTrade
EXTRN	?AddCityTrade@CvDeal@@QAEXW4PlayerTypes@@H@Z:PROC ; CvDeal::AddCityTrade
; Function compile flags: /Ogtpy
;	COMDAT ?lAddCityTrade@CvLuaDeal@@KAHPAUlua_State@@@Z
_TEXT	SEGMENT
_L$ = 8							; size = 4
?lAddCityTrade@CvLuaDeal@@KAHPAUlua_State@@@Z PROC	; CvLuaDeal::lAddCityTrade, COMDAT

; 125  : 		return BasicLuaMethod(L, &CvDeal::AddCityTrade);

	mov	eax, DWORD PTR _L$[esp-4]
	push	OFFSET ?AddCityTrade@CvDeal@@QAEXW4PlayerTypes@@H@Z ; CvDeal::AddCityTrade
	push	eax
	call	??$BasicLuaMethod@W4PlayerTypes@@H@?$CvLuaMethodWrapper@VCvLuaDeal@@VCvDeal@@@@KAHPAUlua_State@@P8CvDeal@@AEXW4PlayerTypes@@H@Z@Z ; CvLuaMethodWrapper<CvLuaDeal,CvDeal>::BasicLuaMethod<enum PlayerTypes,int>
	add	esp, 8

; 126  : 	};

	ret	0
?lAddCityTrade@CvLuaDeal@@KAHPAUlua_State@@@Z ENDP	; CvLuaDeal::lAddCityTrade
_TEXT	ENDS
PUBLIC	?lAddUnitTrade@CvLuaDeal@@KAHPAUlua_State@@@Z	; CvLuaDeal::lAddUnitTrade
EXTRN	?AddUnitTrade@CvDeal@@QAEXW4PlayerTypes@@H@Z:PROC ; CvDeal::AddUnitTrade
; Function compile flags: /Ogtpy
;	COMDAT ?lAddUnitTrade@CvLuaDeal@@KAHPAUlua_State@@@Z
_TEXT	SEGMENT
_L$ = 8							; size = 4
?lAddUnitTrade@CvLuaDeal@@KAHPAUlua_State@@@Z PROC	; CvLuaDeal::lAddUnitTrade, COMDAT

; 129  : 		return BasicLuaMethod(L, &CvDeal::AddUnitTrade);

	mov	eax, DWORD PTR _L$[esp-4]
	push	OFFSET ?AddUnitTrade@CvDeal@@QAEXW4PlayerTypes@@H@Z ; CvDeal::AddUnitTrade
	push	eax
	call	??$BasicLuaMethod@W4PlayerTypes@@H@?$CvLuaMethodWrapper@VCvLuaDeal@@VCvDeal@@@@KAHPAUlua_State@@P8CvDeal@@AEXW4PlayerTypes@@H@Z@Z ; CvLuaMethodWrapper<CvLuaDeal,CvDeal>::BasicLuaMethod<enum PlayerTypes,int>
	add	esp, 8

; 130  : 	};

	ret	0
?lAddUnitTrade@CvLuaDeal@@KAHPAUlua_State@@@Z ENDP	; CvLuaDeal::lAddUnitTrade
_TEXT	ENDS
PUBLIC	?lAddAllowEmbassy@CvLuaDeal@@KAHPAUlua_State@@@Z ; CvLuaDeal::lAddAllowEmbassy
EXTRN	?AddAllowEmbassy@CvDeal@@QAEXW4PlayerTypes@@@Z:PROC ; CvDeal::AddAllowEmbassy
; Function compile flags: /Ogtpy
;	COMDAT ?lAddAllowEmbassy@CvLuaDeal@@KAHPAUlua_State@@@Z
_TEXT	SEGMENT
_L$ = 8							; size = 4
?lAddAllowEmbassy@CvLuaDeal@@KAHPAUlua_State@@@Z PROC	; CvLuaDeal::lAddAllowEmbassy, COMDAT

; 133  : 		return BasicLuaMethod(L, &CvDeal::AddAllowEmbassy);

	mov	eax, DWORD PTR _L$[esp-4]
	push	OFFSET ?AddAllowEmbassy@CvDeal@@QAEXW4PlayerTypes@@@Z ; CvDeal::AddAllowEmbassy
	push	eax
	call	??$BasicLuaMethod@W4PlayerTypes@@@?$CvLuaMethodWrapper@VCvLuaDeal@@VCvDeal@@@@KAHPAUlua_State@@P8CvDeal@@AEXW4PlayerTypes@@@Z@Z ; CvLuaMethodWrapper<CvLuaDeal,CvDeal>::BasicLuaMethod<enum PlayerTypes>
	add	esp, 8

; 134  : 	};

	ret	0
?lAddAllowEmbassy@CvLuaDeal@@KAHPAUlua_State@@@Z ENDP	; CvLuaDeal::lAddAllowEmbassy
_TEXT	ENDS
PUBLIC	?lAddOpenBorders@CvLuaDeal@@KAHPAUlua_State@@@Z	; CvLuaDeal::lAddOpenBorders
EXTRN	?AddOpenBorders@CvDeal@@QAEXW4PlayerTypes@@H@Z:PROC ; CvDeal::AddOpenBorders
; Function compile flags: /Ogtpy
;	COMDAT ?lAddOpenBorders@CvLuaDeal@@KAHPAUlua_State@@@Z
_TEXT	SEGMENT
_L$ = 8							; size = 4
?lAddOpenBorders@CvLuaDeal@@KAHPAUlua_State@@@Z PROC	; CvLuaDeal::lAddOpenBorders, COMDAT

; 137  : 		return BasicLuaMethod(L, &CvDeal::AddOpenBorders);

	mov	eax, DWORD PTR _L$[esp-4]
	push	OFFSET ?AddOpenBorders@CvDeal@@QAEXW4PlayerTypes@@H@Z ; CvDeal::AddOpenBorders
	push	eax
	call	??$BasicLuaMethod@W4PlayerTypes@@H@?$CvLuaMethodWrapper@VCvLuaDeal@@VCvDeal@@@@KAHPAUlua_State@@P8CvDeal@@AEXW4PlayerTypes@@H@Z@Z ; CvLuaMethodWrapper<CvLuaDeal,CvDeal>::BasicLuaMethod<enum PlayerTypes,int>
	add	esp, 8

; 138  : 	};

	ret	0
?lAddOpenBorders@CvLuaDeal@@KAHPAUlua_State@@@Z ENDP	; CvLuaDeal::lAddOpenBorders
_TEXT	ENDS
PUBLIC	?lAddDefensivePact@CvLuaDeal@@KAHPAUlua_State@@@Z ; CvLuaDeal::lAddDefensivePact
EXTRN	?AddDefensivePact@CvDeal@@QAEXW4PlayerTypes@@H@Z:PROC ; CvDeal::AddDefensivePact
; Function compile flags: /Ogtpy
;	COMDAT ?lAddDefensivePact@CvLuaDeal@@KAHPAUlua_State@@@Z
_TEXT	SEGMENT
_L$ = 8							; size = 4
?lAddDefensivePact@CvLuaDeal@@KAHPAUlua_State@@@Z PROC	; CvLuaDeal::lAddDefensivePact, COMDAT

; 141  : 		return BasicLuaMethod(L, &CvDeal::AddDefensivePact);

	mov	eax, DWORD PTR _L$[esp-4]
	push	OFFSET ?AddDefensivePact@CvDeal@@QAEXW4PlayerTypes@@H@Z ; CvDeal::AddDefensivePact
	push	eax
	call	??$BasicLuaMethod@W4PlayerTypes@@H@?$CvLuaMethodWrapper@VCvLuaDeal@@VCvDeal@@@@KAHPAUlua_State@@P8CvDeal@@AEXW4PlayerTypes@@H@Z@Z ; CvLuaMethodWrapper<CvLuaDeal,CvDeal>::BasicLuaMethod<enum PlayerTypes,int>
	add	esp, 8

; 142  : 	};

	ret	0
?lAddDefensivePact@CvLuaDeal@@KAHPAUlua_State@@@Z ENDP	; CvLuaDeal::lAddDefensivePact
_TEXT	ENDS
PUBLIC	?lAddResearchAgreement@CvLuaDeal@@KAHPAUlua_State@@@Z ; CvLuaDeal::lAddResearchAgreement
EXTRN	?AddResearchAgreement@CvDeal@@QAEXW4PlayerTypes@@H@Z:PROC ; CvDeal::AddResearchAgreement
; Function compile flags: /Ogtpy
;	COMDAT ?lAddResearchAgreement@CvLuaDeal@@KAHPAUlua_State@@@Z
_TEXT	SEGMENT
_L$ = 8							; size = 4
?lAddResearchAgreement@CvLuaDeal@@KAHPAUlua_State@@@Z PROC ; CvLuaDeal::lAddResearchAgreement, COMDAT

; 145  : 		return BasicLuaMethod(L, &CvDeal::AddResearchAgreement);

	mov	eax, DWORD PTR _L$[esp-4]
	push	OFFSET ?AddResearchAgreement@CvDeal@@QAEXW4PlayerTypes@@H@Z ; CvDeal::AddResearchAgreement
	push	eax
	call	??$BasicLuaMethod@W4PlayerTypes@@H@?$CvLuaMethodWrapper@VCvLuaDeal@@VCvDeal@@@@KAHPAUlua_State@@P8CvDeal@@AEXW4PlayerTypes@@H@Z@Z ; CvLuaMethodWrapper<CvLuaDeal,CvDeal>::BasicLuaMethod<enum PlayerTypes,int>
	add	esp, 8

; 146  : 	};

	ret	0
?lAddResearchAgreement@CvLuaDeal@@KAHPAUlua_State@@@Z ENDP ; CvLuaDeal::lAddResearchAgreement
_TEXT	ENDS
PUBLIC	?lAddTradeAgreement@CvLuaDeal@@KAHPAUlua_State@@@Z ; CvLuaDeal::lAddTradeAgreement
EXTRN	?AddTradeAgreement@CvDeal@@QAEXW4PlayerTypes@@H@Z:PROC ; CvDeal::AddTradeAgreement
; Function compile flags: /Ogtpy
;	COMDAT ?lAddTradeAgreement@CvLuaDeal@@KAHPAUlua_State@@@Z
_TEXT	SEGMENT
_L$ = 8							; size = 4
?lAddTradeAgreement@CvLuaDeal@@KAHPAUlua_State@@@Z PROC	; CvLuaDeal::lAddTradeAgreement, COMDAT

; 149  : 		return BasicLuaMethod(L, &CvDeal::AddTradeAgreement);

	mov	eax, DWORD PTR _L$[esp-4]
	push	OFFSET ?AddTradeAgreement@CvDeal@@QAEXW4PlayerTypes@@H@Z ; CvDeal::AddTradeAgreement
	push	eax
	call	??$BasicLuaMethod@W4PlayerTypes@@H@?$CvLuaMethodWrapper@VCvLuaDeal@@VCvDeal@@@@KAHPAUlua_State@@P8CvDeal@@AEXW4PlayerTypes@@H@Z@Z ; CvLuaMethodWrapper<CvLuaDeal,CvDeal>::BasicLuaMethod<enum PlayerTypes,int>
	add	esp, 8

; 150  : 	};

	ret	0
?lAddTradeAgreement@CvLuaDeal@@KAHPAUlua_State@@@Z ENDP	; CvLuaDeal::lAddTradeAgreement
_TEXT	ENDS
PUBLIC	?lAddSurrender@CvLuaDeal@@KAHPAUlua_State@@@Z	; CvLuaDeal::lAddSurrender
EXTRN	?AddSurrender@CvDeal@@QAEXW4PlayerTypes@@@Z:PROC ; CvDeal::AddSurrender
; Function compile flags: /Ogtpy
;	COMDAT ?lAddSurrender@CvLuaDeal@@KAHPAUlua_State@@@Z
_TEXT	SEGMENT
_L$ = 8							; size = 4
?lAddSurrender@CvLuaDeal@@KAHPAUlua_State@@@Z PROC	; CvLuaDeal::lAddSurrender, COMDAT

; 157  : 		return BasicLuaMethod(L, &CvDeal::AddSurrender);

	mov	eax, DWORD PTR _L$[esp-4]
	push	OFFSET ?AddSurrender@CvDeal@@QAEXW4PlayerTypes@@@Z ; CvDeal::AddSurrender
	push	eax
	call	??$BasicLuaMethod@W4PlayerTypes@@@?$CvLuaMethodWrapper@VCvLuaDeal@@VCvDeal@@@@KAHPAUlua_State@@P8CvDeal@@AEXW4PlayerTypes@@@Z@Z ; CvLuaMethodWrapper<CvLuaDeal,CvDeal>::BasicLuaMethod<enum PlayerTypes>
	add	esp, 8

; 158  : 	};

	ret	0
?lAddSurrender@CvLuaDeal@@KAHPAUlua_State@@@Z ENDP	; CvLuaDeal::lAddSurrender
_TEXT	ENDS
PUBLIC	?lAddPeaceTreaty@CvLuaDeal@@KAHPAUlua_State@@@Z	; CvLuaDeal::lAddPeaceTreaty
EXTRN	?AddPeaceTreaty@CvDeal@@QAEXW4PlayerTypes@@H@Z:PROC ; CvDeal::AddPeaceTreaty
; Function compile flags: /Ogtpy
;	COMDAT ?lAddPeaceTreaty@CvLuaDeal@@KAHPAUlua_State@@@Z
_TEXT	SEGMENT
_L$ = 8							; size = 4
?lAddPeaceTreaty@CvLuaDeal@@KAHPAUlua_State@@@Z PROC	; CvLuaDeal::lAddPeaceTreaty, COMDAT

; 165  : 		return BasicLuaMethod(L, &CvDeal::AddPeaceTreaty);

	mov	eax, DWORD PTR _L$[esp-4]
	push	OFFSET ?AddPeaceTreaty@CvDeal@@QAEXW4PlayerTypes@@H@Z ; CvDeal::AddPeaceTreaty
	push	eax
	call	??$BasicLuaMethod@W4PlayerTypes@@H@?$CvLuaMethodWrapper@VCvLuaDeal@@VCvDeal@@@@KAHPAUlua_State@@P8CvDeal@@AEXW4PlayerTypes@@H@Z@Z ; CvLuaMethodWrapper<CvLuaDeal,CvDeal>::BasicLuaMethod<enum PlayerTypes,int>
	add	esp, 8

; 166  : 	};

	ret	0
?lAddPeaceTreaty@CvLuaDeal@@KAHPAUlua_State@@@Z ENDP	; CvLuaDeal::lAddPeaceTreaty
_TEXT	ENDS
PUBLIC	?lAddThirdPartyPeace@CvLuaDeal@@KAHPAUlua_State@@@Z ; CvLuaDeal::lAddThirdPartyPeace
EXTRN	?AddThirdPartyPeace@CvDeal@@QAEXW4PlayerTypes@@W4TeamTypes@@H@Z:PROC ; CvDeal::AddThirdPartyPeace
; Function compile flags: /Ogtpy
;	COMDAT ?lAddThirdPartyPeace@CvLuaDeal@@KAHPAUlua_State@@@Z
_TEXT	SEGMENT
_L$ = 8							; size = 4
?lAddThirdPartyPeace@CvLuaDeal@@KAHPAUlua_State@@@Z PROC ; CvLuaDeal::lAddThirdPartyPeace, COMDAT

; 169  : 		return BasicLuaMethod(L, &CvDeal::AddThirdPartyPeace);

	mov	eax, DWORD PTR _L$[esp-4]
	push	OFFSET ?AddThirdPartyPeace@CvDeal@@QAEXW4PlayerTypes@@W4TeamTypes@@H@Z ; CvDeal::AddThirdPartyPeace
	push	eax
	call	??$BasicLuaMethod@W4PlayerTypes@@W4TeamTypes@@H@?$CvLuaMethodWrapper@VCvLuaDeal@@VCvDeal@@@@KAHPAUlua_State@@P8CvDeal@@AEXW4PlayerTypes@@W4TeamTypes@@H@Z@Z ; CvLuaMethodWrapper<CvLuaDeal,CvDeal>::BasicLuaMethod<enum PlayerTypes,enum TeamTypes,int>
	add	esp, 8

; 170  : 	};

	ret	0
?lAddThirdPartyPeace@CvLuaDeal@@KAHPAUlua_State@@@Z ENDP ; CvLuaDeal::lAddThirdPartyPeace
_TEXT	ENDS
PUBLIC	?lAddThirdPartyWar@CvLuaDeal@@KAHPAUlua_State@@@Z ; CvLuaDeal::lAddThirdPartyWar
EXTRN	?AddThirdPartyWar@CvDeal@@QAEXW4PlayerTypes@@W4TeamTypes@@@Z:PROC ; CvDeal::AddThirdPartyWar
; Function compile flags: /Ogtpy
;	COMDAT ?lAddThirdPartyWar@CvLuaDeal@@KAHPAUlua_State@@@Z
_TEXT	SEGMENT
_L$ = 8							; size = 4
?lAddThirdPartyWar@CvLuaDeal@@KAHPAUlua_State@@@Z PROC	; CvLuaDeal::lAddThirdPartyWar, COMDAT

; 173  : 		return BasicLuaMethod(L, &CvDeal::AddThirdPartyWar);

	mov	eax, DWORD PTR _L$[esp-4]
	push	OFFSET ?AddThirdPartyWar@CvDeal@@QAEXW4PlayerTypes@@W4TeamTypes@@@Z ; CvDeal::AddThirdPartyWar
	push	eax
	call	??$BasicLuaMethod@W4PlayerTypes@@W4TeamTypes@@@?$CvLuaMethodWrapper@VCvLuaDeal@@VCvDeal@@@@KAHPAUlua_State@@P8CvDeal@@AEXW4PlayerTypes@@W4TeamTypes@@@Z@Z ; CvLuaMethodWrapper<CvLuaDeal,CvDeal>::BasicLuaMethod<enum PlayerTypes,enum TeamTypes>
	add	esp, 8

; 174  : 	};

	ret	0
?lAddThirdPartyWar@CvLuaDeal@@KAHPAUlua_State@@@Z ENDP	; CvLuaDeal::lAddThirdPartyWar
_TEXT	ENDS
PUBLIC	?lAddThirdPartyEmbargo@CvLuaDeal@@KAHPAUlua_State@@@Z ; CvLuaDeal::lAddThirdPartyEmbargo
EXTRN	?AddThirdPartyEmbargo@CvDeal@@QAEXW4PlayerTypes@@0H@Z:PROC ; CvDeal::AddThirdPartyEmbargo
; Function compile flags: /Ogtpy
;	COMDAT ?lAddThirdPartyEmbargo@CvLuaDeal@@KAHPAUlua_State@@@Z
_TEXT	SEGMENT
_L$ = 8							; size = 4
?lAddThirdPartyEmbargo@CvLuaDeal@@KAHPAUlua_State@@@Z PROC ; CvLuaDeal::lAddThirdPartyEmbargo, COMDAT

; 177  : 		return BasicLuaMethod(L, &CvDeal::AddThirdPartyEmbargo);

	mov	eax, DWORD PTR _L$[esp-4]
	push	OFFSET ?AddThirdPartyEmbargo@CvDeal@@QAEXW4PlayerTypes@@0H@Z ; CvDeal::AddThirdPartyEmbargo
	push	eax
	call	??$BasicLuaMethod@W4PlayerTypes@@W41@H@?$CvLuaMethodWrapper@VCvLuaDeal@@VCvDeal@@@@KAHPAUlua_State@@P8CvDeal@@AEXW4PlayerTypes@@1H@Z@Z ; CvLuaMethodWrapper<CvLuaDeal,CvDeal>::BasicLuaMethod<enum PlayerTypes,enum PlayerTypes,int>
	add	esp, 8

; 178  : 	};

	ret	0
?lAddThirdPartyEmbargo@CvLuaDeal@@KAHPAUlua_State@@@Z ENDP ; CvLuaDeal::lAddThirdPartyEmbargo
_TEXT	ENDS
PUBLIC	?lAddDeclarationOfFriendship@CvLuaDeal@@KAHPAUlua_State@@@Z ; CvLuaDeal::lAddDeclarationOfFriendship
EXTRN	?AddDeclarationOfFriendship@CvDeal@@QAEXW4PlayerTypes@@@Z:PROC ; CvDeal::AddDeclarationOfFriendship
; Function compile flags: /Ogtpy
;	COMDAT ?lAddDeclarationOfFriendship@CvLuaDeal@@KAHPAUlua_State@@@Z
_TEXT	SEGMENT
_L$ = 8							; size = 4
?lAddDeclarationOfFriendship@CvLuaDeal@@KAHPAUlua_State@@@Z PROC ; CvLuaDeal::lAddDeclarationOfFriendship, COMDAT

; 182  : 		return BasicLuaMethod(L, &CvDeal::AddDeclarationOfFriendship);

	mov	eax, DWORD PTR _L$[esp-4]
	push	OFFSET ?AddDeclarationOfFriendship@CvDeal@@QAEXW4PlayerTypes@@@Z ; CvDeal::AddDeclarationOfFriendship
	push	eax
	call	??$BasicLuaMethod@W4PlayerTypes@@@?$CvLuaMethodWrapper@VCvLuaDeal@@VCvDeal@@@@KAHPAUlua_State@@P8CvDeal@@AEXW4PlayerTypes@@@Z@Z ; CvLuaMethodWrapper<CvLuaDeal,CvDeal>::BasicLuaMethod<enum PlayerTypes>
	add	esp, 8

; 183  : 	};

	ret	0
?lAddDeclarationOfFriendship@CvLuaDeal@@KAHPAUlua_State@@@Z ENDP ; CvLuaDeal::lAddDeclarationOfFriendship
_TEXT	ENDS
PUBLIC	?lChangeGoldTrade@CvLuaDeal@@KAHPAUlua_State@@@Z ; CvLuaDeal::lChangeGoldTrade
EXTRN	?ChangeGoldTrade@CvDeal@@QAE_NW4PlayerTypes@@H@Z:PROC ; CvDeal::ChangeGoldTrade
; Function compile flags: /Ogtpy
;	COMDAT ?lChangeGoldTrade@CvLuaDeal@@KAHPAUlua_State@@@Z
_TEXT	SEGMENT
_L$ = 8							; size = 4
?lChangeGoldTrade@CvLuaDeal@@KAHPAUlua_State@@@Z PROC	; CvLuaDeal::lChangeGoldTrade, COMDAT

; 189  : 		return BasicLuaMethod(L, &CvDeal::ChangeGoldTrade);

	mov	eax, DWORD PTR _L$[esp-4]
	push	OFFSET ?ChangeGoldTrade@CvDeal@@QAE_NW4PlayerTypes@@H@Z ; CvDeal::ChangeGoldTrade
	push	eax
	call	??$BasicLuaMethod@_NW4PlayerTypes@@H@?$CvLuaMethodWrapper@VCvLuaDeal@@VCvDeal@@@@KAHPAUlua_State@@P8CvDeal@@AE_NW4PlayerTypes@@H@Z@Z ; CvLuaMethodWrapper<CvLuaDeal,CvDeal>::BasicLuaMethod<bool,enum PlayerTypes,int>
	add	esp, 8

; 190  : 	};

	ret	0
?lChangeGoldTrade@CvLuaDeal@@KAHPAUlua_State@@@Z ENDP	; CvLuaDeal::lChangeGoldTrade
_TEXT	ENDS
PUBLIC	?lChangeGoldPerTurnTrade@CvLuaDeal@@KAHPAUlua_State@@@Z ; CvLuaDeal::lChangeGoldPerTurnTrade
EXTRN	?ChangeGoldPerTurnTrade@CvDeal@@QAE_NW4PlayerTypes@@HH@Z:PROC ; CvDeal::ChangeGoldPerTurnTrade
; Function compile flags: /Ogtpy
;	COMDAT ?lChangeGoldPerTurnTrade@CvLuaDeal@@KAHPAUlua_State@@@Z
_TEXT	SEGMENT
_L$ = 8							; size = 4
?lChangeGoldPerTurnTrade@CvLuaDeal@@KAHPAUlua_State@@@Z PROC ; CvLuaDeal::lChangeGoldPerTurnTrade, COMDAT

; 193  : 		return BasicLuaMethod(L, &CvDeal::ChangeGoldPerTurnTrade);

	mov	eax, DWORD PTR _L$[esp-4]
	push	OFFSET ?ChangeGoldPerTurnTrade@CvDeal@@QAE_NW4PlayerTypes@@HH@Z ; CvDeal::ChangeGoldPerTurnTrade
	push	eax
	call	??$BasicLuaMethod@_NW4PlayerTypes@@HH@?$CvLuaMethodWrapper@VCvLuaDeal@@VCvDeal@@@@KAHPAUlua_State@@P8CvDeal@@AE_NW4PlayerTypes@@HH@Z@Z ; CvLuaMethodWrapper<CvLuaDeal,CvDeal>::BasicLuaMethod<bool,enum PlayerTypes,int,int>
	add	esp, 8

; 194  : 	};

	ret	0
?lChangeGoldPerTurnTrade@CvLuaDeal@@KAHPAUlua_State@@@Z ENDP ; CvLuaDeal::lChangeGoldPerTurnTrade
_TEXT	ENDS
PUBLIC	?lChangeResourceTrade@CvLuaDeal@@KAHPAUlua_State@@@Z ; CvLuaDeal::lChangeResourceTrade
EXTRN	?ChangeResourceTrade@CvDeal@@QAE_NW4PlayerTypes@@W4ResourceTypes@@HH@Z:PROC ; CvDeal::ChangeResourceTrade
; Function compile flags: /Ogtpy
;	COMDAT ?lChangeResourceTrade@CvLuaDeal@@KAHPAUlua_State@@@Z
_TEXT	SEGMENT
_L$ = 8							; size = 4
?lChangeResourceTrade@CvLuaDeal@@KAHPAUlua_State@@@Z PROC ; CvLuaDeal::lChangeResourceTrade, COMDAT

; 197  : 		return BasicLuaMethod(L, &CvDeal::ChangeResourceTrade);

	mov	eax, DWORD PTR _L$[esp-4]
	push	OFFSET ?ChangeResourceTrade@CvDeal@@QAE_NW4PlayerTypes@@W4ResourceTypes@@HH@Z ; CvDeal::ChangeResourceTrade
	push	eax
	call	??$BasicLuaMethod@_NW4PlayerTypes@@W4ResourceTypes@@HH@?$CvLuaMethodWrapper@VCvLuaDeal@@VCvDeal@@@@KAHPAUlua_State@@P8CvDeal@@AE_NW4PlayerTypes@@W4ResourceTypes@@HH@Z@Z ; CvLuaMethodWrapper<CvLuaDeal,CvDeal>::BasicLuaMethod<bool,enum PlayerTypes,enum ResourceTypes,int,int>
	add	esp, 8

; 198  : 	};

	ret	0
?lChangeResourceTrade@CvLuaDeal@@KAHPAUlua_State@@@Z ENDP ; CvLuaDeal::lChangeResourceTrade
_TEXT	ENDS
PUBLIC	?lChangeThirdPartyWarDuration@CvLuaDeal@@KAHPAUlua_State@@@Z ; CvLuaDeal::lChangeThirdPartyWarDuration
EXTRN	?ChangeThirdPartyWarDuration@CvDeal@@QAEXW4PlayerTypes@@W4TeamTypes@@H@Z:PROC ; CvDeal::ChangeThirdPartyWarDuration
; Function compile flags: /Ogtpy
;	COMDAT ?lChangeThirdPartyWarDuration@CvLuaDeal@@KAHPAUlua_State@@@Z
_TEXT	SEGMENT
_L$ = 8							; size = 4
?lChangeThirdPartyWarDuration@CvLuaDeal@@KAHPAUlua_State@@@Z PROC ; CvLuaDeal::lChangeThirdPartyWarDuration, COMDAT

; 201  : 		return BasicLuaMethod(L, &CvDeal::ChangeThirdPartyWarDuration);

	mov	eax, DWORD PTR _L$[esp-4]
	push	OFFSET ?ChangeThirdPartyWarDuration@CvDeal@@QAEXW4PlayerTypes@@W4TeamTypes@@H@Z ; CvDeal::ChangeThirdPartyWarDuration
	push	eax
	call	??$BasicLuaMethod@W4PlayerTypes@@W4TeamTypes@@H@?$CvLuaMethodWrapper@VCvLuaDeal@@VCvDeal@@@@KAHPAUlua_State@@P8CvDeal@@AEXW4PlayerTypes@@W4TeamTypes@@H@Z@Z ; CvLuaMethodWrapper<CvLuaDeal,CvDeal>::BasicLuaMethod<enum PlayerTypes,enum TeamTypes,int>
	add	esp, 8

; 202  : 	};

	ret	0
?lChangeThirdPartyWarDuration@CvLuaDeal@@KAHPAUlua_State@@@Z ENDP ; CvLuaDeal::lChangeThirdPartyWarDuration
_TEXT	ENDS
PUBLIC	?lChangeThirdPartyPeaceDuration@CvLuaDeal@@KAHPAUlua_State@@@Z ; CvLuaDeal::lChangeThirdPartyPeaceDuration
EXTRN	?ChangeThirdPartyPeaceDuration@CvDeal@@QAEXW4PlayerTypes@@W4TeamTypes@@H@Z:PROC ; CvDeal::ChangeThirdPartyPeaceDuration
; Function compile flags: /Ogtpy
;	COMDAT ?lChangeThirdPartyPeaceDuration@CvLuaDeal@@KAHPAUlua_State@@@Z
_TEXT	SEGMENT
_L$ = 8							; size = 4
?lChangeThirdPartyPeaceDuration@CvLuaDeal@@KAHPAUlua_State@@@Z PROC ; CvLuaDeal::lChangeThirdPartyPeaceDuration, COMDAT

; 205  : 		return BasicLuaMethod(L, &CvDeal::ChangeThirdPartyPeaceDuration);

	mov	eax, DWORD PTR _L$[esp-4]
	push	OFFSET ?ChangeThirdPartyPeaceDuration@CvDeal@@QAEXW4PlayerTypes@@W4TeamTypes@@H@Z ; CvDeal::ChangeThirdPartyPeaceDuration
	push	eax
	call	??$BasicLuaMethod@W4PlayerTypes@@W4TeamTypes@@H@?$CvLuaMethodWrapper@VCvLuaDeal@@VCvDeal@@@@KAHPAUlua_State@@P8CvDeal@@AEXW4PlayerTypes@@W4TeamTypes@@H@Z@Z ; CvLuaMethodWrapper<CvLuaDeal,CvDeal>::BasicLuaMethod<enum PlayerTypes,enum TeamTypes,int>
	add	esp, 8

; 206  : 	};

	ret	0
?lChangeThirdPartyPeaceDuration@CvLuaDeal@@KAHPAUlua_State@@@Z ENDP ; CvLuaDeal::lChangeThirdPartyPeaceDuration
_TEXT	ENDS
PUBLIC	?lChangeThirdPartyEmbargoDuration@CvLuaDeal@@KAHPAUlua_State@@@Z ; CvLuaDeal::lChangeThirdPartyEmbargoDuration
EXTRN	?ChangeThirdPartyEmbargoDuration@CvDeal@@QAEXW4PlayerTypes@@0H@Z:PROC ; CvDeal::ChangeThirdPartyEmbargoDuration
; Function compile flags: /Ogtpy
;	COMDAT ?lChangeThirdPartyEmbargoDuration@CvLuaDeal@@KAHPAUlua_State@@@Z
_TEXT	SEGMENT
_L$ = 8							; size = 4
?lChangeThirdPartyEmbargoDuration@CvLuaDeal@@KAHPAUlua_State@@@Z PROC ; CvLuaDeal::lChangeThirdPartyEmbargoDuration, COMDAT

; 209  : 		return BasicLuaMethod(L, &CvDeal::ChangeThirdPartyEmbargoDuration);

	mov	eax, DWORD PTR _L$[esp-4]
	push	OFFSET ?ChangeThirdPartyEmbargoDuration@CvDeal@@QAEXW4PlayerTypes@@0H@Z ; CvDeal::ChangeThirdPartyEmbargoDuration
	push	eax
	call	??$BasicLuaMethod@W4PlayerTypes@@W41@H@?$CvLuaMethodWrapper@VCvLuaDeal@@VCvDeal@@@@KAHPAUlua_State@@P8CvDeal@@AEXW4PlayerTypes@@1H@Z@Z ; CvLuaMethodWrapper<CvLuaDeal,CvDeal>::BasicLuaMethod<enum PlayerTypes,enum PlayerTypes,int>
	add	esp, 8

; 210  : 	};

	ret	0
?lChangeThirdPartyEmbargoDuration@CvLuaDeal@@KAHPAUlua_State@@@Z ENDP ; CvLuaDeal::lChangeThirdPartyEmbargoDuration
_TEXT	ENDS
PUBLIC	?lRemoveResourceTrade@CvLuaDeal@@KAHPAUlua_State@@@Z ; CvLuaDeal::lRemoveResourceTrade
EXTRN	?RemoveResourceTrade@CvDeal@@QAEXW4ResourceTypes@@@Z:PROC ; CvDeal::RemoveResourceTrade
; Function compile flags: /Ogtpy
;	COMDAT ?lRemoveResourceTrade@CvLuaDeal@@KAHPAUlua_State@@@Z
_TEXT	SEGMENT
_L$ = 8							; size = 4
?lRemoveResourceTrade@CvLuaDeal@@KAHPAUlua_State@@@Z PROC ; CvLuaDeal::lRemoveResourceTrade, COMDAT

; 215  : 		return BasicLuaMethod(L, &CvDeal::RemoveResourceTrade);

	mov	eax, DWORD PTR _L$[esp-4]
	push	OFFSET ?RemoveResourceTrade@CvDeal@@QAEXW4ResourceTypes@@@Z ; CvDeal::RemoveResourceTrade
	push	eax
	call	??$BasicLuaMethod@W4ResourceTypes@@@?$CvLuaMethodWrapper@VCvLuaDeal@@VCvDeal@@@@KAHPAUlua_State@@P8CvDeal@@AEXW4ResourceTypes@@@Z@Z ; CvLuaMethodWrapper<CvLuaDeal,CvDeal>::BasicLuaMethod<enum ResourceTypes>
	add	esp, 8

; 216  : 	};

	ret	0
?lRemoveResourceTrade@CvLuaDeal@@KAHPAUlua_State@@@Z ENDP ; CvLuaDeal::lRemoveResourceTrade
_TEXT	ENDS
PUBLIC	?lRemoveCityTrade@CvLuaDeal@@KAHPAUlua_State@@@Z ; CvLuaDeal::lRemoveCityTrade
EXTRN	?RemoveCityTrade@CvDeal@@QAEXW4PlayerTypes@@H@Z:PROC ; CvDeal::RemoveCityTrade
; Function compile flags: /Ogtpy
;	COMDAT ?lRemoveCityTrade@CvLuaDeal@@KAHPAUlua_State@@@Z
_TEXT	SEGMENT
_L$ = 8							; size = 4
?lRemoveCityTrade@CvLuaDeal@@KAHPAUlua_State@@@Z PROC	; CvLuaDeal::lRemoveCityTrade, COMDAT

; 219  : 		return BasicLuaMethod(L, &CvDeal::RemoveCityTrade);

	mov	eax, DWORD PTR _L$[esp-4]
	push	OFFSET ?RemoveCityTrade@CvDeal@@QAEXW4PlayerTypes@@H@Z ; CvDeal::RemoveCityTrade
	push	eax
	call	??$BasicLuaMethod@W4PlayerTypes@@H@?$CvLuaMethodWrapper@VCvLuaDeal@@VCvDeal@@@@KAHPAUlua_State@@P8CvDeal@@AEXW4PlayerTypes@@H@Z@Z ; CvLuaMethodWrapper<CvLuaDeal,CvDeal>::BasicLuaMethod<enum PlayerTypes,int>
	add	esp, 8

; 220  : 	};

	ret	0
?lRemoveCityTrade@CvLuaDeal@@KAHPAUlua_State@@@Z ENDP	; CvLuaDeal::lRemoveCityTrade
_TEXT	ENDS
PUBLIC	?lRemoveUnitTrade@CvLuaDeal@@KAHPAUlua_State@@@Z ; CvLuaDeal::lRemoveUnitTrade
EXTRN	?RemoveUnitTrade@CvDeal@@QAEXH@Z:PROC		; CvDeal::RemoveUnitTrade
; Function compile flags: /Ogtpy
;	COMDAT ?lRemoveUnitTrade@CvLuaDeal@@KAHPAUlua_State@@@Z
_TEXT	SEGMENT
_L$ = 8							; size = 4
?lRemoveUnitTrade@CvLuaDeal@@KAHPAUlua_State@@@Z PROC	; CvLuaDeal::lRemoveUnitTrade, COMDAT

; 223  : 		return BasicLuaMethod(L, &CvDeal::RemoveUnitTrade);

	mov	eax, DWORD PTR _L$[esp-4]
	push	OFFSET ?RemoveUnitTrade@CvDeal@@QAEXH@Z	; CvDeal::RemoveUnitTrade
	push	eax
	call	??$BasicLuaMethod@H@?$CvLuaMethodWrapper@VCvLuaDeal@@VCvDeal@@@@KAHPAUlua_State@@P8CvDeal@@AEXH@Z@Z ; CvLuaMethodWrapper<CvLuaDeal,CvDeal>::BasicLuaMethod<int>
	add	esp, 8

; 224  : 	};

	ret	0
?lRemoveUnitTrade@CvLuaDeal@@KAHPAUlua_State@@@Z ENDP	; CvLuaDeal::lRemoveUnitTrade
_TEXT	ENDS
PUBLIC	?lRemoveThirdPartyPeace@CvLuaDeal@@KAHPAUlua_State@@@Z ; CvLuaDeal::lRemoveThirdPartyPeace
EXTRN	?RemoveThirdPartyPeace@CvDeal@@QAEXW4PlayerTypes@@W4TeamTypes@@@Z:PROC ; CvDeal::RemoveThirdPartyPeace
; Function compile flags: /Ogtpy
;	COMDAT ?lRemoveThirdPartyPeace@CvLuaDeal@@KAHPAUlua_State@@@Z
_TEXT	SEGMENT
_L$ = 8							; size = 4
?lRemoveThirdPartyPeace@CvLuaDeal@@KAHPAUlua_State@@@Z PROC ; CvLuaDeal::lRemoveThirdPartyPeace, COMDAT

; 227  : 		return BasicLuaMethod(L, &CvDeal::RemoveThirdPartyPeace);

	mov	eax, DWORD PTR _L$[esp-4]
	push	OFFSET ?RemoveThirdPartyPeace@CvDeal@@QAEXW4PlayerTypes@@W4TeamTypes@@@Z ; CvDeal::RemoveThirdPartyPeace
	push	eax
	call	??$BasicLuaMethod@W4PlayerTypes@@W4TeamTypes@@@?$CvLuaMethodWrapper@VCvLuaDeal@@VCvDeal@@@@KAHPAUlua_State@@P8CvDeal@@AEXW4PlayerTypes@@W4TeamTypes@@@Z@Z ; CvLuaMethodWrapper<CvLuaDeal,CvDeal>::BasicLuaMethod<enum PlayerTypes,enum TeamTypes>
	add	esp, 8

; 228  : 	};

	ret	0
?lRemoveThirdPartyPeace@CvLuaDeal@@KAHPAUlua_State@@@Z ENDP ; CvLuaDeal::lRemoveThirdPartyPeace
_TEXT	ENDS
PUBLIC	?lRemoveThirdPartyWar@CvLuaDeal@@KAHPAUlua_State@@@Z ; CvLuaDeal::lRemoveThirdPartyWar
EXTRN	?RemoveThirdPartyWar@CvDeal@@QAEXW4PlayerTypes@@W4TeamTypes@@@Z:PROC ; CvDeal::RemoveThirdPartyWar
; Function compile flags: /Ogtpy
;	COMDAT ?lRemoveThirdPartyWar@CvLuaDeal@@KAHPAUlua_State@@@Z
_TEXT	SEGMENT
_L$ = 8							; size = 4
?lRemoveThirdPartyWar@CvLuaDeal@@KAHPAUlua_State@@@Z PROC ; CvLuaDeal::lRemoveThirdPartyWar, COMDAT

; 231  : 		return BasicLuaMethod(L, &CvDeal::RemoveThirdPartyWar);

	mov	eax, DWORD PTR _L$[esp-4]
	push	OFFSET ?RemoveThirdPartyWar@CvDeal@@QAEXW4PlayerTypes@@W4TeamTypes@@@Z ; CvDeal::RemoveThirdPartyWar
	push	eax
	call	??$BasicLuaMethod@W4PlayerTypes@@W4TeamTypes@@@?$CvLuaMethodWrapper@VCvLuaDeal@@VCvDeal@@@@KAHPAUlua_State@@P8CvDeal@@AEXW4PlayerTypes@@W4TeamTypes@@@Z@Z ; CvLuaMethodWrapper<CvLuaDeal,CvDeal>::BasicLuaMethod<enum PlayerTypes,enum TeamTypes>
	add	esp, 8

; 232  : 	};

	ret	0
?lRemoveThirdPartyWar@CvLuaDeal@@KAHPAUlua_State@@@Z ENDP ; CvLuaDeal::lRemoveThirdPartyWar
_TEXT	ENDS
PUBLIC	?lRemoveThirdPartyEmbargo@CvLuaDeal@@KAHPAUlua_State@@@Z ; CvLuaDeal::lRemoveThirdPartyEmbargo
EXTRN	?RemoveThirdPartyEmbargo@CvDeal@@QAEXW4PlayerTypes@@0@Z:PROC ; CvDeal::RemoveThirdPartyEmbargo
; Function compile flags: /Ogtpy
;	COMDAT ?lRemoveThirdPartyEmbargo@CvLuaDeal@@KAHPAUlua_State@@@Z
_TEXT	SEGMENT
_L$ = 8							; size = 4
?lRemoveThirdPartyEmbargo@CvLuaDeal@@KAHPAUlua_State@@@Z PROC ; CvLuaDeal::lRemoveThirdPartyEmbargo, COMDAT

; 235  : 		return BasicLuaMethod(L, &CvDeal::RemoveThirdPartyEmbargo);

	mov	eax, DWORD PTR _L$[esp-4]
	push	OFFSET ?RemoveThirdPartyEmbargo@CvDeal@@QAEXW4PlayerTypes@@0@Z ; CvDeal::RemoveThirdPartyEmbargo
	push	eax
	call	??$BasicLuaMethod@W4PlayerTypes@@W41@@?$CvLuaMethodWrapper@VCvLuaDeal@@VCvDeal@@@@KAHPAUlua_State@@P8CvDeal@@AEXW4PlayerTypes@@1@Z@Z ; CvLuaMethodWrapper<CvLuaDeal,CvDeal>::BasicLuaMethod<enum PlayerTypes,enum PlayerTypes>
	add	esp, 8

; 236  : 	};

	ret	0
?lRemoveThirdPartyEmbargo@CvLuaDeal@@KAHPAUlua_State@@@Z ENDP ; CvLuaDeal::lRemoveThirdPartyEmbargo
_TEXT	ENDS
PUBLIC	?lRemoveByType@CvLuaDeal@@KAHPAUlua_State@@@Z	; CvLuaDeal::lRemoveByType
EXTRN	?RemoveByType@CvDeal@@QAEXW4TradeableItems@@W4PlayerTypes@@@Z:PROC ; CvDeal::RemoveByType
; Function compile flags: /Ogtpy
; File c:\users\enormousapplepie\documents\github\lekmod\lekmod_dll\cvgamecoredll_expansion2\lua\cvluadeal.cpp
;	COMDAT ?lRemoveByType@CvLuaDeal@@KAHPAUlua_State@@@Z
_TEXT	SEGMENT
_L$ = 8							; size = 4
?lRemoveByType@CvLuaDeal@@KAHPAUlua_State@@@Z PROC	; CvLuaDeal::lRemoveByType, COMDAT

; 93   : {

	push	ebx
	push	ebp
	push	esi

; 94   : 	CvDeal* pkDeal = GetInstance(L);

	mov	esi, DWORD PTR _L$[esp+8]
	push	edi
	push	esi
	call	_lua_gettop
	push	1
	push	esi
	mov	ebp, eax
	mov	bl, 1
	xor	edi, edi
	call	_lua_type
	add	esp, 12					; 0000000cH
	cmp	eax, 5
	jne	SHORT $LN7@lRemoveByT
	push	OFFSET $SG219307
	push	1
	push	esi
	call	_lua_getfield
	push	-1
	push	esi
	call	_lua_type
	add	esp, 20					; 00000014H
	cmp	eax, 2
	jne	SHORT $LN7@lRemoveByT
	push	-1
	push	esi
	call	_lua_touserdata
	mov	edi, eax
	add	esp, 8
	test	edi, edi
	je	SHORT $LN7@lRemoveByT
	xor	bl, bl
$LN7@lRemoveByT:
	push	ebp
	push	esi
	call	_lua_settop
	add	esp, 8
	test	bl, bl
	je	SHORT $LN14@lRemoveByT
	push	OFFSET $SG219313
	push	esi
	call	_luaL_error
	push	OFFSET $SG219321
	push	esi
	call	_luaL_error
	add	esp, 16					; 00000010H
$LN14@lRemoveByT:

; 95   : 	int args = lua_gettop(L);

	push	esi
	call	_lua_gettop
	add	esp, 4

; 96   : 
; 97   : 	if(args == 1)

	cmp	eax, 1
	jne	SHORT $LN2@lRemoveByT

; 98   : 		pkDeal->RemoveByType((TradeableItems) lua_tointeger(L, 2), NO_PLAYER);

	push	-1

; 99   : 	else

	jmp	SHORT $LN16@lRemoveByT
$LN2@lRemoveByT:

; 100  : 		pkDeal->RemoveByType((TradeableItems) lua_tointeger(L, 2), (PlayerTypes) lua_tointeger(L, 3));

	push	3
	push	esi
	call	_lua_tointeger
	add	esp, 8
	push	eax
$LN16@lRemoveByT:
	push	2
	push	esi
	call	_lua_tointeger
	add	esp, 8
	push	eax
	mov	ecx, edi
	call	?RemoveByType@CvDeal@@QAEXW4TradeableItems@@W4PlayerTypes@@@Z ; CvDeal::RemoveByType
	pop	edi
	pop	esi
	pop	ebp

; 101  : 
; 102  : 	return 0;

	xor	eax, eax
	pop	ebx

; 103  : }

	ret	0
?lRemoveByType@CvLuaDeal@@KAHPAUlua_State@@@Z ENDP	; CvLuaDeal::lRemoveByType
_TEXT	ENDS
PUBLIC	?lIsPossibleToTradeItem@CvLuaDeal@@KAHPAUlua_State@@@Z ; CvLuaDeal::lIsPossibleToTradeItem
EXTRN	?IsPossibleToTradeItem@CvDeal@@QAE_NW4PlayerTypes@@0W4TradeableItems@@HHH_N22@Z:PROC ; CvDeal::IsPossibleToTradeItem
EXTRN	_lua_toboolean:PROC
; Function compile flags: /Ogtpy
;	COMDAT ?lIsPossibleToTradeItem@CvLuaDeal@@KAHPAUlua_State@@@Z
_TEXT	SEGMENT
_pkInstance$220546 = -20				; size = 4
_bFlag1$ = -16						; size = 1
_iData3$ = -12						; size = 4
_iData2$ = -8						; size = 4
_iData1$ = -4						; size = 4
_L$ = 8							; size = 4
?lIsPossibleToTradeItem@CvLuaDeal@@KAHPAUlua_State@@@Z PROC ; CvLuaDeal::lIsPossibleToTradeItem, COMDAT

; 124  : {

	sub	esp, 20					; 00000014H
	push	ebx
	push	ebp
	push	esi

; 125  : 	CvDeal* pkDeal = GetInstance(L);

	mov	esi, DWORD PTR _L$[esp+28]
	push	edi
	push	esi
	call	_lua_gettop
	push	1
	push	esi
	mov	edi, eax
	mov	bl, 1
	mov	DWORD PTR _pkInstance$220546[esp+48], 0
	call	_lua_type
	add	esp, 12					; 0000000cH
	cmp	eax, 5
	jne	SHORT $LN5@lIsPossibl
	push	OFFSET $SG219307
	push	1
	push	esi
	call	_lua_getfield
	push	-1
	push	esi
	call	_lua_type
	add	esp, 20					; 00000014H
	cmp	eax, 2
	jne	SHORT $LN5@lIsPossibl
	push	-1
	push	esi
	call	_lua_touserdata
	add	esp, 8
	mov	DWORD PTR _pkInstance$220546[esp+36], eax
	test	eax, eax
	je	SHORT $LN5@lIsPossibl
	xor	bl, bl
$LN5@lIsPossibl:
	push	edi
	push	esi
	call	_lua_settop
	add	esp, 8
	test	bl, bl
	je	SHORT $LN12@lIsPossibl
	push	OFFSET $SG219313
	push	esi
	call	_luaL_error
	push	OFFSET $SG219321
	push	esi
	call	_luaL_error
	add	esp, 16					; 00000010H
$LN12@lIsPossibl:

; 126  : 	const PlayerTypes eFromPlayer = (PlayerTypes) lua_tointeger(L, 2);

	push	2
	push	esi
	call	_lua_tointeger

; 127  : 	const PlayerTypes eToPlayer = (PlayerTypes) lua_tointeger(L, 3);

	push	3
	push	esi
	mov	edi, eax
	call	_lua_tointeger

; 128  : 	const TradeableItems eItem = (TradeableItems) lua_tointeger(L, 4);

	push	4
	push	esi
	mov	ebx, eax
	call	_lua_tointeger

; 129  : 	const int iData1 = lua_tointeger(L, 5);

	push	5
	push	esi
	mov	ebp, eax
	call	_lua_tointeger

; 130  : 	const int iData2 = lua_tointeger(L, 6);

	push	6
	push	esi
	mov	DWORD PTR _iData1$[esp+76], eax
	call	_lua_tointeger

; 131  : 	const int iData3 = lua_tointeger(L, 7);

	push	7
	push	esi
	mov	DWORD PTR _iData2$[esp+84], eax
	call	_lua_tointeger

; 132  : 	const bool bFlag1 = lua_toboolean(L, 8);

	push	8
	push	esi
	mov	DWORD PTR _iData3$[esp+92], eax
	call	_lua_toboolean

; 133  : 
; 134  : 	const bool bResult = pkDeal->IsPossibleToTradeItem(eFromPlayer, eToPlayer, eItem, iData1, iData2, iData3, bFlag1);

	mov	edx, DWORD PTR _iData3$[esp+92]
	add	esp, 56					; 00000038H
	push	0
	test	eax, eax
	push	1
	setne	al
	mov	BYTE PTR _bFlag1$[esp+44], al
	mov	ecx, DWORD PTR _bFlag1$[esp+44]
	mov	eax, DWORD PTR _iData2$[esp+44]
	push	ecx
	mov	ecx, DWORD PTR _iData1$[esp+48]
	push	edx
	push	eax
	push	ecx
	mov	ecx, DWORD PTR _pkInstance$220546[esp+60]
	push	ebp
	push	ebx
	push	edi
	call	?IsPossibleToTradeItem@CvDeal@@QAE_NW4PlayerTypes@@0W4TradeableItems@@HHH_N22@Z ; CvDeal::IsPossibleToTradeItem

; 135  : 	lua_pushboolean(L, bResult);

	movzx	edx, al
	push	edx
	push	esi
	call	_lua_pushboolean
	add	esp, 8
	pop	edi
	pop	esi
	pop	ebp

; 136  : 	return 1;

	mov	eax, 1
	pop	ebx

; 137  : }

	add	esp, 20					; 00000014H
	ret	0
?lIsPossibleToTradeItem@CvLuaDeal@@KAHPAUlua_State@@@Z ENDP ; CvLuaDeal::lIsPossibleToTradeItem
_TEXT	ENDS
PUBLIC	?lGetNumResource@CvLuaDeal@@KAHPAUlua_State@@@Z	; CvLuaDeal::lGetNumResource
EXTRN	?GetNumResource@CvDeal@@QAEHW4PlayerTypes@@W4ResourceTypes@@@Z:PROC ; CvDeal::GetNumResource
; Function compile flags: /Ogtpy
;	COMDAT ?lGetNumResource@CvLuaDeal@@KAHPAUlua_State@@@Z
_TEXT	SEGMENT
_L$ = 8							; size = 4
?lGetNumResource@CvLuaDeal@@KAHPAUlua_State@@@Z PROC	; CvLuaDeal::lGetNumResource, COMDAT

; 141  : {

	push	ebx
	push	ebp
	push	esi

; 142  : 	CvDeal* pkDeal = GetInstance(L);

	mov	esi, DWORD PTR _L$[esp+8]
	push	edi
	push	esi
	call	_lua_gettop
	push	1
	push	esi
	mov	ebp, eax
	mov	bl, 1
	xor	edi, edi
	call	_lua_type
	add	esp, 12					; 0000000cH
	cmp	eax, 5
	jne	SHORT $LN5@lGetNumRes
	push	OFFSET $SG219307
	push	1
	push	esi
	call	_lua_getfield
	push	-1
	push	esi
	call	_lua_type
	add	esp, 20					; 00000014H
	cmp	eax, 2
	jne	SHORT $LN5@lGetNumRes
	push	-1
	push	esi
	call	_lua_touserdata
	mov	edi, eax
	add	esp, 8
	test	edi, edi
	je	SHORT $LN5@lGetNumRes
	xor	bl, bl
$LN5@lGetNumRes:
	push	ebp
	push	esi
	call	_lua_settop
	add	esp, 8
	test	bl, bl
	je	SHORT $LN12@lGetNumRes
	push	OFFSET $SG219313
	push	esi
	call	_luaL_error
	push	OFFSET $SG219321
	push	esi
	call	_luaL_error
	add	esp, 16					; 00000010H
$LN12@lGetNumRes:

; 143  : 	const PlayerTypes ePlayer = (PlayerTypes) lua_tointeger(L, 2);

	push	2
	push	esi
	call	_lua_tointeger

; 144  : 	const ResourceTypes eResource = (ResourceTypes) lua_tointeger(L, 3);

	push	3
	push	esi
	mov	ebx, eax
	call	_lua_tointeger
	add	esp, 16					; 00000010H

; 145  : 	int iResult = pkDeal->GetNumResource(ePlayer, eResource);

	push	eax
	push	ebx
	mov	ecx, edi
	call	?GetNumResource@CvDeal@@QAEHW4PlayerTypes@@W4ResourceTypes@@@Z ; CvDeal::GetNumResource

; 146  : 	lua_pushinteger(L, iResult);

	push	eax
	push	esi
	call	_lua_pushinteger
	add	esp, 8
	pop	edi
	pop	esi
	pop	ebp

; 147  : 	return 1;

	mov	eax, 1
	pop	ebx

; 148  : }

	ret	0
?lGetNumResource@CvLuaDeal@@KAHPAUlua_State@@@Z ENDP	; CvLuaDeal::lGetNumResource
_TEXT	ENDS
PUBLIC	?lAddVoteCommitment@CvLuaDeal@@KAHPAUlua_State@@@Z ; CvLuaDeal::lAddVoteCommitment
EXTRN	?AddVoteCommitment@CvDeal@@QAEXW4PlayerTypes@@HHH_N@Z:PROC ; CvDeal::AddVoteCommitment
; Function compile flags: /Ogtpy
;	COMDAT ?lAddVoteCommitment@CvLuaDeal@@KAHPAUlua_State@@@Z
_TEXT	SEGMENT
_bRepeal$ = -12						; size = 1
_iNumVotes$ = -8					; size = 4
_iVoteChoice$ = -4					; size = 4
_L$ = 8							; size = 4
?lAddVoteCommitment@CvLuaDeal@@KAHPAUlua_State@@@Z PROC	; CvLuaDeal::lAddVoteCommitment, COMDAT

; 191  : {

	sub	esp, 12					; 0000000cH
	push	ebx
	push	ebp
	push	esi

; 192  : 	CvDeal* pkDeal = GetInstance(L);

	mov	esi, DWORD PTR _L$[esp+20]
	push	edi
	push	esi
	call	_lua_gettop
	push	1
	push	esi
	mov	ebp, eax
	mov	bl, 1
	xor	edi, edi
	call	_lua_type
	add	esp, 12					; 0000000cH
	cmp	eax, 5
	jne	SHORT $LN5@lAddVoteCo
	push	OFFSET $SG219307
	push	1
	push	esi
	call	_lua_getfield
	push	-1
	push	esi
	call	_lua_type
	add	esp, 20					; 00000014H
	cmp	eax, 2
	jne	SHORT $LN5@lAddVoteCo
	push	-1
	push	esi
	call	_lua_touserdata
	mov	edi, eax
	add	esp, 8
	test	edi, edi
	je	SHORT $LN5@lAddVoteCo
	xor	bl, bl
$LN5@lAddVoteCo:
	push	ebp
	push	esi
	call	_lua_settop
	add	esp, 8
	test	bl, bl
	je	SHORT $LN12@lAddVoteCo
	push	OFFSET $SG219313
	push	esi
	call	_luaL_error
	push	OFFSET $SG219321
	push	esi
	call	_luaL_error
	add	esp, 16					; 00000010H
$LN12@lAddVoteCo:

; 193  : 	const PlayerTypes eFromPlayer = (PlayerTypes) lua_tointeger(L, 2);

	push	2
	push	esi
	call	_lua_tointeger

; 194  : 	const int iResolutionID = lua_tointeger(L, 3);

	push	3
	push	esi
	mov	ebx, eax
	call	_lua_tointeger

; 195  : 	const int iVoteChoice = lua_tointeger(L, 4);

	push	4
	push	esi
	mov	ebp, eax
	call	_lua_tointeger

; 196  : 	const int iNumVotes = lua_tointeger(L, 5);

	push	5
	push	esi
	mov	DWORD PTR _iVoteChoice$[esp+60], eax
	call	_lua_tointeger

; 197  : 	const bool bRepeal = lua_toboolean(L, 6);

	push	6
	push	esi
	mov	DWORD PTR _iNumVotes$[esp+68], eax
	call	_lua_toboolean

; 198  : 
; 199  : 	pkDeal->AddVoteCommitment(eFromPlayer, iResolutionID, iVoteChoice, iNumVotes, bRepeal);

	mov	edx, DWORD PTR _iNumVotes$[esp+68]
	add	esp, 40					; 00000028H
	test	eax, eax
	setne	al
	mov	BYTE PTR _bRepeal$[esp+28], al
	mov	ecx, DWORD PTR _bRepeal$[esp+28]
	mov	eax, DWORD PTR _iVoteChoice$[esp+28]
	push	ecx
	push	edx
	push	eax
	push	ebp
	push	ebx
	mov	ecx, edi
	call	?AddVoteCommitment@CvDeal@@QAEXW4PlayerTypes@@HHH_N@Z ; CvDeal::AddVoteCommitment
	pop	edi
	pop	esi
	pop	ebp

; 200  : 	return 0;

	xor	eax, eax
	pop	ebx

; 201  : }

	add	esp, 12					; 0000000cH
	ret	0
?lAddVoteCommitment@CvLuaDeal@@KAHPAUlua_State@@@Z ENDP	; CvLuaDeal::lAddVoteCommitment
_TEXT	ENDS
PUBLIC	?lRemoveVoteCommitment@CvLuaDeal@@KAHPAUlua_State@@@Z ; CvLuaDeal::lRemoveVoteCommitment
EXTRN	?RemoveVoteCommitment@CvDeal@@QAEXW4PlayerTypes@@HHH_N@Z:PROC ; CvDeal::RemoveVoteCommitment
; Function compile flags: /Ogtpy
;	COMDAT ?lRemoveVoteCommitment@CvLuaDeal@@KAHPAUlua_State@@@Z
_TEXT	SEGMENT
_bRepeal$ = -12						; size = 1
_iNumVotes$ = -8					; size = 4
_iVoteChoice$ = -4					; size = 4
_L$ = 8							; size = 4
?lRemoveVoteCommitment@CvLuaDeal@@KAHPAUlua_State@@@Z PROC ; CvLuaDeal::lRemoveVoteCommitment, COMDAT

; 205  : {

	sub	esp, 12					; 0000000cH
	push	ebx
	push	ebp
	push	esi

; 206  : 	CvDeal* pkDeal = GetInstance(L);

	mov	esi, DWORD PTR _L$[esp+20]
	push	edi
	push	esi
	call	_lua_gettop
	push	1
	push	esi
	mov	ebp, eax
	mov	bl, 1
	xor	edi, edi
	call	_lua_type
	add	esp, 12					; 0000000cH
	cmp	eax, 5
	jne	SHORT $LN5@lRemoveVot
	push	OFFSET $SG219307
	push	1
	push	esi
	call	_lua_getfield
	push	-1
	push	esi
	call	_lua_type
	add	esp, 20					; 00000014H
	cmp	eax, 2
	jne	SHORT $LN5@lRemoveVot
	push	-1
	push	esi
	call	_lua_touserdata
	mov	edi, eax
	add	esp, 8
	test	edi, edi
	je	SHORT $LN5@lRemoveVot
	xor	bl, bl
$LN5@lRemoveVot:
	push	ebp
	push	esi
	call	_lua_settop
	add	esp, 8
	test	bl, bl
	je	SHORT $LN12@lRemoveVot
	push	OFFSET $SG219313
	push	esi
	call	_luaL_error
	push	OFFSET $SG219321
	push	esi
	call	_luaL_error
	add	esp, 16					; 00000010H
$LN12@lRemoveVot:

; 207  : 	const PlayerTypes eFromPlayer = (PlayerTypes) lua_tointeger(L, 2);

	push	2
	push	esi
	call	_lua_tointeger

; 208  : 	const int iResolutionID = lua_tointeger(L, 3);

	push	3
	push	esi
	mov	ebx, eax
	call	_lua_tointeger

; 209  : 	const int iVoteChoice = lua_tointeger(L, 4);

	push	4
	push	esi
	mov	ebp, eax
	call	_lua_tointeger

; 210  : 	const int iNumVotes = lua_tointeger(L, 5);

	push	5
	push	esi
	mov	DWORD PTR _iVoteChoice$[esp+60], eax
	call	_lua_tointeger

; 211  : 	const bool bRepeal = lua_toboolean(L, 6);

	push	6
	push	esi
	mov	DWORD PTR _iNumVotes$[esp+68], eax
	call	_lua_toboolean

; 212  : 
; 213  : 	pkDeal->RemoveVoteCommitment(eFromPlayer, iResolutionID, iVoteChoice, iNumVotes, bRepeal);

	mov	edx, DWORD PTR _iNumVotes$[esp+68]
	add	esp, 40					; 00000028H
	test	eax, eax
	setne	al
	mov	BYTE PTR _bRepeal$[esp+28], al
	mov	ecx, DWORD PTR _bRepeal$[esp+28]
	mov	eax, DWORD PTR _iVoteChoice$[esp+28]
	push	ecx
	push	edx
	push	eax
	push	ebp
	push	ebx
	mov	ecx, edi
	call	?RemoveVoteCommitment@CvDeal@@QAEXW4PlayerTypes@@HHH_N@Z ; CvDeal::RemoveVoteCommitment
	pop	edi
	pop	esi
	pop	ebp

; 214  : 	return 0;

	xor	eax, eax
	pop	ebx

; 215  : }

	add	esp, 12					; 0000000cH
	ret	0
?lRemoveVoteCommitment@CvLuaDeal@@KAHPAUlua_State@@@Z ENDP ; CvLuaDeal::lRemoveVoteCommitment
_TEXT	ENDS
PUBLIC	??0iterator@?$FCustomList_Core@U?$MultiListNodePolicy@UCvTradedItem@@@@V?$FFastAllocator@U?$MultiListNodePolicy@UCvTradedItem@@@@$0A@$0BF@$0A@UFDefaultFastVectorAllocator@?$BaseVector@U?$MultiListNodePolicy@UCvTradedItem@@@@$0A@@@@@V?$FCustomList_Tail_Member@V?$FFastAllocator@U?$MultiListNodePolicy@UCvTradedItem@@@@$0A@$0BF@$0A@UFDefaultFastVectorAllocator@?$BaseVector@U?$MultiListNodePolicy@UCvTradedItem@@@@$0A@@@@@@@@@QAE@XZ ; FCustomList_Core<MultiListNodePolicy<CvTradedItem>,FFastAllocator<MultiListNodePolicy<CvTradedItem>,0,21,0,BaseVector<MultiListNodePolicy<CvTradedItem>,0>::FDefaultFastVectorAllocator>,FCustomList_Tail_Member<FFastAllocator<MultiListNodePolicy<CvTradedItem>,0,21,0,BaseVector<MultiListNodePolicy<CvTradedItem>,0>::FDefaultFastVectorAllocator> > >::iterator::iterator
; Function compile flags: /Ogtpy
; File c:\users\enormousapplepie\documents\github\lekmod\lekmod_dll\fireplace\include\fireworks\ffastlist.h
;	COMDAT ??0iterator@?$FCustomList_Core@U?$MultiListNodePolicy@UCvTradedItem@@@@V?$FFastAllocator@U?$MultiListNodePolicy@UCvTradedItem@@@@$0A@$0BF@$0A@UFDefaultFastVectorAllocator@?$BaseVector@U?$MultiListNodePolicy@UCvTradedItem@@@@$0A@@@@@V?$FCustomList_Tail_Member@V?$FFastAllocator@U?$MultiListNodePolicy@UCvTradedItem@@@@$0A@$0BF@$0A@UFDefaultFastVectorAllocator@?$BaseVector@U?$MultiListNodePolicy@UCvTradedItem@@@@$0A@@@@@@@@@QAE@XZ
_TEXT	SEGMENT
??0iterator@?$FCustomList_Core@U?$MultiListNodePolicy@UCvTradedItem@@@@V?$FFastAllocator@U?$MultiListNodePolicy@UCvTradedItem@@@@$0A@$0BF@$0A@UFDefaultFastVectorAllocator@?$BaseVector@U?$MultiListNodePolicy@UCvTradedItem@@@@$0A@@@@@V?$FCustomList_Tail_Member@V?$FFastAllocator@U?$MultiListNodePolicy@UCvTradedItem@@@@$0A@$0BF@$0A@UFDefaultFastVectorAllocator@?$BaseVector@U?$MultiListNodePolicy@UCvTradedItem@@@@$0A@@@@@@@@@QAE@XZ PROC ; FCustomList_Core<MultiListNodePolicy<CvTradedItem>,FFastAllocator<MultiListNodePolicy<CvTradedItem>,0,21,0,BaseVector<MultiListNodePolicy<CvTradedItem>,0>::FDefaultFastVectorAllocator>,FCustomList_Tail_Member<FFastAllocator<MultiListNodePolicy<CvTradedItem>,0,21,0,BaseVector<MultiListNodePolicy<CvTradedItem>,0>::FDefaultFastVectorAllocator> > >::iterator::iterator, COMDAT
; _this$ = ecx

; 378  : 		explicit iterator(){};

	mov	eax, ecx
	mov	DWORD PTR [eax], 0
	mov	DWORD PTR [eax+4], 268435455		; 0fffffffH
	ret	0
??0iterator@?$FCustomList_Core@U?$MultiListNodePolicy@UCvTradedItem@@@@V?$FFastAllocator@U?$MultiListNodePolicy@UCvTradedItem@@@@$0A@$0BF@$0A@UFDefaultFastVectorAllocator@?$BaseVector@U?$MultiListNodePolicy@UCvTradedItem@@@@$0A@@@@@V?$FCustomList_Tail_Member@V?$FFastAllocator@U?$MultiListNodePolicy@UCvTradedItem@@@@$0A@$0BF@$0A@UFDefaultFastVectorAllocator@?$BaseVector@U?$MultiListNodePolicy@UCvTradedItem@@@@$0A@@@@@@@@@QAE@XZ ENDP ; FCustomList_Core<MultiListNodePolicy<CvTradedItem>,FFastAllocator<MultiListNodePolicy<CvTradedItem>,0,21,0,BaseVector<MultiListNodePolicy<CvTradedItem>,0>::FDefaultFastVectorAllocator>,FCustomList_Tail_Member<FFastAllocator<MultiListNodePolicy<CvTradedItem>,0,21,0,BaseVector<MultiListNodePolicy<CvTradedItem>,0>::FDefaultFastVectorAllocator> > >::iterator::iterator
_TEXT	ENDS
PUBLIC	??Diterator@?$FCustomList_Core@U?$MultiListNodePolicy@UCvTradedItem@@@@V?$FFastAllocator@U?$MultiListNodePolicy@UCvTradedItem@@@@$0A@$0BF@$0A@UFDefaultFastVectorAllocator@?$BaseVector@U?$MultiListNodePolicy@UCvTradedItem@@@@$0A@@@@@V?$FCustomList_Tail_Member@V?$FFastAllocator@U?$MultiListNodePolicy@UCvTradedItem@@@@$0A@$0BF@$0A@UFDefaultFastVectorAllocator@?$BaseVector@U?$MultiListNodePolicy@UCvTradedItem@@@@$0A@@@@@@@@@QAEAAU?$MultiListNodePolicy@UCvTradedItem@@@@XZ ; FCustomList_Core<MultiListNodePolicy<CvTradedItem>,FFastAllocator<MultiListNodePolicy<CvTradedItem>,0,21,0,BaseVector<MultiListNodePolicy<CvTradedItem>,0>::FDefaultFastVectorAllocator>,FCustomList_Tail_Member<FFastAllocator<MultiListNodePolicy<CvTradedItem>,0,21,0,BaseVector<MultiListNodePolicy<CvTradedItem>,0>::FDefaultFastVectorAllocator> > >::iterator::operator*
; Function compile flags: /Ogtpy
;	COMDAT ??Diterator@?$FCustomList_Core@U?$MultiListNodePolicy@UCvTradedItem@@@@V?$FFastAllocator@U?$MultiListNodePolicy@UCvTradedItem@@@@$0A@$0BF@$0A@UFDefaultFastVectorAllocator@?$BaseVector@U?$MultiListNodePolicy@UCvTradedItem@@@@$0A@@@@@V?$FCustomList_Tail_Member@V?$FFastAllocator@U?$MultiListNodePolicy@UCvTradedItem@@@@$0A@$0BF@$0A@UFDefaultFastVectorAllocator@?$BaseVector@U?$MultiListNodePolicy@UCvTradedItem@@@@$0A@@@@@@@@@QAEAAU?$MultiListNodePolicy@UCvTradedItem@@@@XZ
_TEXT	SEGMENT
??Diterator@?$FCustomList_Core@U?$MultiListNodePolicy@UCvTradedItem@@@@V?$FFastAllocator@U?$MultiListNodePolicy@UCvTradedItem@@@@$0A@$0BF@$0A@UFDefaultFastVectorAllocator@?$BaseVector@U?$MultiListNodePolicy@UCvTradedItem@@@@$0A@@@@@V?$FCustomList_Tail_Member@V?$FFastAllocator@U?$MultiListNodePolicy@UCvTradedItem@@@@$0A@$0BF@$0A@UFDefaultFastVectorAllocator@?$BaseVector@U?$MultiListNodePolicy@UCvTradedItem@@@@$0A@@@@@@@@@QAEAAU?$MultiListNodePolicy@UCvTradedItem@@@@XZ PROC ; FCustomList_Core<MultiListNodePolicy<CvTradedItem>,FFastAllocator<MultiListNodePolicy<CvTradedItem>,0,21,0,BaseVector<MultiListNodePolicy<CvTradedItem>,0>::FDefaultFastVectorAllocator>,FCustomList_Tail_Member<FFastAllocator<MultiListNodePolicy<CvTradedItem>,0,21,0,BaseVector<MultiListNodePolicy<CvTradedItem>,0>::FDefaultFastVectorAllocator> > >::iterator::operator*, COMDAT
; _this$ = ecx

; 384  : 			return m_pFastList->get_allocator()[ m_uiCurrPos ];

	mov	eax, DWORD PTR [ecx+4]
	mov	ecx, DWORD PTR [ecx]
	imul	eax, 44					; 0000002cH
	add	eax, DWORD PTR [ecx+8]

; 385  : 		};

	ret	0
??Diterator@?$FCustomList_Core@U?$MultiListNodePolicy@UCvTradedItem@@@@V?$FFastAllocator@U?$MultiListNodePolicy@UCvTradedItem@@@@$0A@$0BF@$0A@UFDefaultFastVectorAllocator@?$BaseVector@U?$MultiListNodePolicy@UCvTradedItem@@@@$0A@@@@@V?$FCustomList_Tail_Member@V?$FFastAllocator@U?$MultiListNodePolicy@UCvTradedItem@@@@$0A@$0BF@$0A@UFDefaultFastVectorAllocator@?$BaseVector@U?$MultiListNodePolicy@UCvTradedItem@@@@$0A@@@@@@@@@QAEAAU?$MultiListNodePolicy@UCvTradedItem@@@@XZ ENDP ; FCustomList_Core<MultiListNodePolicy<CvTradedItem>,FFastAllocator<MultiListNodePolicy<CvTradedItem>,0,21,0,BaseVector<MultiListNodePolicy<CvTradedItem>,0>::FDefaultFastVectorAllocator>,FCustomList_Tail_Member<FFastAllocator<MultiListNodePolicy<CvTradedItem>,0,21,0,BaseVector<MultiListNodePolicy<CvTradedItem>,0>::FDefaultFastVectorAllocator> > >::iterator::operator*
_TEXT	ENDS
PUBLIC	??E?$base_iterator@Vbase_iterator_tail@?$FCustomList_Core@U?$MultiListNodePolicy@UCvTradedItem@@@@V?$FFastAllocator@U?$MultiListNodePolicy@UCvTradedItem@@@@$0A@$0BF@$0A@UFDefaultFastVectorAllocator@?$BaseVector@U?$MultiListNodePolicy@UCvTradedItem@@@@$0A@@@@@V?$FCustomList_Tail_Member@V?$FFastAllocator@U?$MultiListNodePolicy@UCvTradedItem@@@@$0A@$0BF@$0A@UFDefaultFastVectorAllocator@?$BaseVector@U?$MultiListNodePolicy@UCvTradedItem@@@@$0A@@@@@@@@@@?$FCustomList_Core@U?$MultiListNodePolicy@UCvTradedItem@@@@V?$FFastAllocator@U?$MultiListNodePolicy@UCvTradedItem@@@@$0A@$0BF@$0A@UFDefaultFastVectorAllocator@?$BaseVector@U?$MultiListNodePolicy@UCvTradedItem@@@@$0A@@@@@V?$FCustomList_Tail_Member@V?$FFastAllocator@U?$MultiListNodePolicy@UCvTradedItem@@@@$0A@$0BF@$0A@UFDefaultFastVectorAllocator@?$BaseVector@U?$MultiListNodePolicy@UCvTradedItem@@@@$0A@@@@@@@@@QAEAAV01@XZ ; FCustomList_Core<MultiListNodePolicy<CvTradedItem>,FFastAllocator<MultiListNodePolicy<CvTradedItem>,0,21,0,BaseVector<MultiListNodePolicy<CvTradedItem>,0>::FDefaultFastVectorAllocator>,FCustomList_Tail_Member<FFastAllocator<MultiListNodePolicy<CvTradedItem>,0,21,0,BaseVector<MultiListNodePolicy<CvTradedItem>,0>::FDefaultFastVectorAllocator> > >::base_iterator<FCustomList_Core<MultiListNodePolicy<CvTradedItem>,FFastAllocator<MultiListNodePolicy<CvTradedItem>,0,21,0,BaseVector<MultiListNodePolicy<CvTradedItem>,0>::FDefaultFastVectorAllocator>,FCustomList_Tail_Member<FFastAllocator<MultiListNodePolicy<CvTradedItem>,0,21,0,BaseVector<MultiListNodePolicy<CvTradedItem>,0>::FDefaultFastVectorAllocator> > >::base_iterator_tail>::operator++
; Function compile flags: /Ogtpy
;	COMDAT ??E?$base_iterator@Vbase_iterator_tail@?$FCustomList_Core@U?$MultiListNodePolicy@UCvTradedItem@@@@V?$FFastAllocator@U?$MultiListNodePolicy@UCvTradedItem@@@@$0A@$0BF@$0A@UFDefaultFastVectorAllocator@?$BaseVector@U?$MultiListNodePolicy@UCvTradedItem@@@@$0A@@@@@V?$FCustomList_Tail_Member@V?$FFastAllocator@U?$MultiListNodePolicy@UCvTradedItem@@@@$0A@$0BF@$0A@UFDefaultFastVectorAllocator@?$BaseVector@U?$MultiListNodePolicy@UCvTradedItem@@@@$0A@@@@@@@@@@?$FCustomList_Core@U?$MultiListNodePolicy@UCvTradedItem@@@@V?$FFastAllocator@U?$MultiListNodePolicy@UCvTradedItem@@@@$0A@$0BF@$0A@UFDefaultFastVectorAllocator@?$BaseVector@U?$MultiListNodePolicy@UCvTradedItem@@@@$0A@@@@@V?$FCustomList_Tail_Member@V?$FFastAllocator@U?$MultiListNodePolicy@UCvTradedItem@@@@$0A@$0BF@$0A@UFDefaultFastVectorAllocator@?$BaseVector@U?$MultiListNodePolicy@UCvTradedItem@@@@$0A@@@@@@@@@QAEAAV01@XZ
_TEXT	SEGMENT
??E?$base_iterator@Vbase_iterator_tail@?$FCustomList_Core@U?$MultiListNodePolicy@UCvTradedItem@@@@V?$FFastAllocator@U?$MultiListNodePolicy@UCvTradedItem@@@@$0A@$0BF@$0A@UFDefaultFastVectorAllocator@?$BaseVector@U?$MultiListNodePolicy@UCvTradedItem@@@@$0A@@@@@V?$FCustomList_Tail_Member@V?$FFastAllocator@U?$MultiListNodePolicy@UCvTradedItem@@@@$0A@$0BF@$0A@UFDefaultFastVectorAllocator@?$BaseVector@U?$MultiListNodePolicy@UCvTradedItem@@@@$0A@@@@@@@@@@?$FCustomList_Core@U?$MultiListNodePolicy@UCvTradedItem@@@@V?$FFastAllocator@U?$MultiListNodePolicy@UCvTradedItem@@@@$0A@$0BF@$0A@UFDefaultFastVectorAllocator@?$BaseVector@U?$MultiListNodePolicy@UCvTradedItem@@@@$0A@@@@@V?$FCustomList_Tail_Member@V?$FFastAllocator@U?$MultiListNodePolicy@UCvTradedItem@@@@$0A@$0BF@$0A@UFDefaultFastVectorAllocator@?$BaseVector@U?$MultiListNodePolicy@UCvTradedItem@@@@$0A@@@@@@@@@QAEAAV01@XZ PROC ; FCustomList_Core<MultiListNodePolicy<CvTradedItem>,FFastAllocator<MultiListNodePolicy<CvTradedItem>,0,21,0,BaseVector<MultiListNodePolicy<CvTradedItem>,0>::FDefaultFastVectorAllocator>,FCustomList_Tail_Member<FFastAllocator<MultiListNodePolicy<CvTradedItem>,0,21,0,BaseVector<MultiListNodePolicy<CvTradedItem>,0>::FDefaultFastVectorAllocator> > >::base_iterator<FCustomList_Core<MultiListNodePolicy<CvTradedItem>,FFastAllocator<MultiListNodePolicy<CvTradedItem>,0,21,0,BaseVector<MultiListNodePolicy<CvTradedItem>,0>::FDefaultFastVectorAllocator>,FCustomList_Tail_Member<FFastAllocator<MultiListNodePolicy<CvTradedItem>,0,21,0,BaseVector<MultiListNodePolicy<CvTradedItem>,0>::FDefaultFastVectorAllocator> > >::base_iterator_tail>::operator++, COMDAT
; _this$ = ecx

; 310  : 		base_iterator& operator++(){

	mov	eax, ecx

; 311  : 			if( m_uiCurrPos == ANCHOR_NODE_INDEX ){

	mov	ecx, DWORD PTR [eax+4]
	cmp	ecx, 268435455				; 0fffffffH
	jne	SHORT $LN2@operator

; 312  : 				m_uiCurrPos = m_pFastList->m_uiFirst;

	mov	ecx, DWORD PTR [eax]
	mov	edx, DWORD PTR [ecx+24]
	mov	DWORD PTR [eax+4], edx

; 315  : 			}
; 316  : 			return *this;
; 317  : 		};

	ret	0
$LN2@operator:

; 313  : 			}else{
; 314  : 				m_uiCurrPos = m_pFastList->get_allocator()[ m_uiCurrPos ].LIST_GetNext();

	mov	edx, DWORD PTR [eax]
	imul	ecx, 44					; 0000002cH
	mov	edx, DWORD PTR [edx+8]
	mov	ecx, DWORD PTR [ecx+edx]
	mov	DWORD PTR [eax+4], ecx

; 315  : 			}
; 316  : 			return *this;
; 317  : 		};

	ret	0
??E?$base_iterator@Vbase_iterator_tail@?$FCustomList_Core@U?$MultiListNodePolicy@UCvTradedItem@@@@V?$FFastAllocator@U?$MultiListNodePolicy@UCvTradedItem@@@@$0A@$0BF@$0A@UFDefaultFastVectorAllocator@?$BaseVector@U?$MultiListNodePolicy@UCvTradedItem@@@@$0A@@@@@V?$FCustomList_Tail_Member@V?$FFastAllocator@U?$MultiListNodePolicy@UCvTradedItem@@@@$0A@$0BF@$0A@UFDefaultFastVectorAllocator@?$BaseVector@U?$MultiListNodePolicy@UCvTradedItem@@@@$0A@@@@@@@@@@?$FCustomList_Core@U?$MultiListNodePolicy@UCvTradedItem@@@@V?$FFastAllocator@U?$MultiListNodePolicy@UCvTradedItem@@@@$0A@$0BF@$0A@UFDefaultFastVectorAllocator@?$BaseVector@U?$MultiListNodePolicy@UCvTradedItem@@@@$0A@@@@@V?$FCustomList_Tail_Member@V?$FFastAllocator@U?$MultiListNodePolicy@UCvTradedItem@@@@$0A@$0BF@$0A@UFDefaultFastVectorAllocator@?$BaseVector@U?$MultiListNodePolicy@UCvTradedItem@@@@$0A@@@@@@@@@QAEAAV01@XZ ENDP ; FCustomList_Core<MultiListNodePolicy<CvTradedItem>,FFastAllocator<MultiListNodePolicy<CvTradedItem>,0,21,0,BaseVector<MultiListNodePolicy<CvTradedItem>,0>::FDefaultFastVectorAllocator>,FCustomList_Tail_Member<FFastAllocator<MultiListNodePolicy<CvTradedItem>,0,21,0,BaseVector<MultiListNodePolicy<CvTradedItem>,0>::FDefaultFastVectorAllocator> > >::base_iterator<FCustomList_Core<MultiListNodePolicy<CvTradedItem>,FFastAllocator<MultiListNodePolicy<CvTradedItem>,0,21,0,BaseVector<MultiListNodePolicy<CvTradedItem>,0>::FDefaultFastVectorAllocator>,FCustomList_Tail_Member<FFastAllocator<MultiListNodePolicy<CvTradedItem>,0,21,0,BaseVector<MultiListNodePolicy<CvTradedItem>,0>::FDefaultFastVectorAllocator> > >::base_iterator_tail>::operator++
_TEXT	ENDS
PUBLIC	??0iterator@?$FCustomList_Core@U?$MultiListNodePolicy@UCvTradedItem@@@@V?$FFastAllocator@U?$MultiListNodePolicy@UCvTradedItem@@@@$0A@$0BF@$0A@UFDefaultFastVectorAllocator@?$BaseVector@U?$MultiListNodePolicy@UCvTradedItem@@@@$0A@@@@@V?$FCustomList_Tail_Member@V?$FFastAllocator@U?$MultiListNodePolicy@UCvTradedItem@@@@$0A@$0BF@$0A@UFDefaultFastVectorAllocator@?$BaseVector@U?$MultiListNodePolicy@UCvTradedItem@@@@$0A@@@@@@@@@QAE@IPAV1@@Z ; FCustomList_Core<MultiListNodePolicy<CvTradedItem>,FFastAllocator<MultiListNodePolicy<CvTradedItem>,0,21,0,BaseVector<MultiListNodePolicy<CvTradedItem>,0>::FDefaultFastVectorAllocator>,FCustomList_Tail_Member<FFastAllocator<MultiListNodePolicy<CvTradedItem>,0,21,0,BaseVector<MultiListNodePolicy<CvTradedItem>,0>::FDefaultFastVectorAllocator> > >::iterator::iterator
; Function compile flags: /Ogtpy
;	COMDAT ??0iterator@?$FCustomList_Core@U?$MultiListNodePolicy@UCvTradedItem@@@@V?$FFastAllocator@U?$MultiListNodePolicy@UCvTradedItem@@@@$0A@$0BF@$0A@UFDefaultFastVectorAllocator@?$BaseVector@U?$MultiListNodePolicy@UCvTradedItem@@@@$0A@@@@@V?$FCustomList_Tail_Member@V?$FFastAllocator@U?$MultiListNodePolicy@UCvTradedItem@@@@$0A@$0BF@$0A@UFDefaultFastVectorAllocator@?$BaseVector@U?$MultiListNodePolicy@UCvTradedItem@@@@$0A@@@@@@@@@QAE@IPAV1@@Z
_TEXT	SEGMENT
_uiPos$ = 8						; size = 4
_pVec$ = 12						; size = 4
??0iterator@?$FCustomList_Core@U?$MultiListNodePolicy@UCvTradedItem@@@@V?$FFastAllocator@U?$MultiListNodePolicy@UCvTradedItem@@@@$0A@$0BF@$0A@UFDefaultFastVectorAllocator@?$BaseVector@U?$MultiListNodePolicy@UCvTradedItem@@@@$0A@@@@@V?$FCustomList_Tail_Member@V?$FFastAllocator@U?$MultiListNodePolicy@UCvTradedItem@@@@$0A@$0BF@$0A@UFDefaultFastVectorAllocator@?$BaseVector@U?$MultiListNodePolicy@UCvTradedItem@@@@$0A@@@@@@@@@QAE@IPAV1@@Z PROC ; FCustomList_Core<MultiListNodePolicy<CvTradedItem>,FFastAllocator<MultiListNodePolicy<CvTradedItem>,0,21,0,BaseVector<MultiListNodePolicy<CvTradedItem>,0>::FDefaultFastVectorAllocator>,FCustomList_Tail_Member<FFastAllocator<MultiListNodePolicy<CvTradedItem>,0,21,0,BaseVector<MultiListNodePolicy<CvTradedItem>,0>::FDefaultFastVectorAllocator> > >::iterator::iterator, COMDAT
; _this$ = ecx

; 379  : 		explicit iterator( unsigned int uiPos, TYPE* pVec )

	mov	edx, DWORD PTR _uiPos$[esp-4]
	mov	eax, ecx
	mov	ecx, DWORD PTR _pVec$[esp-4]
	mov	DWORD PTR [eax], ecx
	mov	DWORD PTR [eax+4], edx
	ret	8
??0iterator@?$FCustomList_Core@U?$MultiListNodePolicy@UCvTradedItem@@@@V?$FFastAllocator@U?$MultiListNodePolicy@UCvTradedItem@@@@$0A@$0BF@$0A@UFDefaultFastVectorAllocator@?$BaseVector@U?$MultiListNodePolicy@UCvTradedItem@@@@$0A@@@@@V?$FCustomList_Tail_Member@V?$FFastAllocator@U?$MultiListNodePolicy@UCvTradedItem@@@@$0A@$0BF@$0A@UFDefaultFastVectorAllocator@?$BaseVector@U?$MultiListNodePolicy@UCvTradedItem@@@@$0A@@@@@@@@@QAE@IPAV1@@Z ENDP ; FCustomList_Core<MultiListNodePolicy<CvTradedItem>,FFastAllocator<MultiListNodePolicy<CvTradedItem>,0,21,0,BaseVector<MultiListNodePolicy<CvTradedItem>,0>::FDefaultFastVectorAllocator>,FCustomList_Tail_Member<FFastAllocator<MultiListNodePolicy<CvTradedItem>,0,21,0,BaseVector<MultiListNodePolicy<CvTradedItem>,0>::FDefaultFastVectorAllocator> > >::iterator::iterator
_TEXT	ENDS
PUBLIC	?BasicLuaMethod@?$CvLuaMethodWrapper@VCvLuaDeal@@VCvDeal@@@@KAHPAUlua_State@@P8CvDeal@@AEXXZ@Z ; CvLuaMethodWrapper<CvLuaDeal,CvDeal>::BasicLuaMethod
; Function compile flags: /Ogtpy
; File c:\users\enormousapplepie\documents\github\lekmod\lekmod_dll\cvgamecoredllutil\include\cvluamethodwrapper.h
;	COMDAT ?BasicLuaMethod@?$CvLuaMethodWrapper@VCvLuaDeal@@VCvDeal@@@@KAHPAUlua_State@@P8CvDeal@@AEXXZ@Z
_TEXT	SEGMENT
_L$ = 8							; size = 4
_func$ = 12						; size = 4
?BasicLuaMethod@?$CvLuaMethodWrapper@VCvLuaDeal@@VCvDeal@@@@KAHPAUlua_State@@P8CvDeal@@AEXXZ@Z PROC ; CvLuaMethodWrapper<CvLuaDeal,CvDeal>::BasicLuaMethod, COMDAT

; 222  : {

	push	ebx
	push	ebp
	push	esi

; 223  : 	InstanceType* pkType = Derived::GetInstance(L);

	mov	esi, DWORD PTR _L$[esp+8]
	push	edi
	push	esi
	call	_lua_gettop
	push	1
	push	esi
	mov	ebp, eax
	mov	bl, 1
	xor	edi, edi
	call	_lua_type
	add	esp, 12					; 0000000cH
	cmp	eax, 5
	jne	SHORT $LN5@BasicLuaMe@19
	push	OFFSET $SG219307
	push	1
	push	esi
	call	_lua_getfield
	push	-1
	push	esi
	call	_lua_type
	add	esp, 20					; 00000014H
	cmp	eax, 2
	jne	SHORT $LN5@BasicLuaMe@19
	push	-1
	push	esi
	call	_lua_touserdata
	mov	edi, eax
	add	esp, 8
	test	edi, edi
	je	SHORT $LN5@BasicLuaMe@19
	xor	bl, bl
$LN5@BasicLuaMe@19:
	push	ebp
	push	esi
	call	_lua_settop
	add	esp, 8
	test	bl, bl
	je	SHORT $LN12@BasicLuaMe@19
	push	OFFSET $SG219313
	push	esi
	call	_luaL_error
	push	OFFSET $SG219321
	push	esi
	call	_luaL_error
	add	esp, 16					; 00000010H
$LN12@BasicLuaMe@19:

; 224  : 	(pkType->*func)();

	mov	ecx, edi
	call	DWORD PTR _func$[esp+12]
	pop	edi
	pop	esi
	pop	ebp

; 225  : 	return 0;

	xor	eax, eax
	pop	ebx

; 226  : }

	ret	0
?BasicLuaMethod@?$CvLuaMethodWrapper@VCvLuaDeal@@VCvDeal@@@@KAHPAUlua_State@@P8CvDeal@@AEXXZ@Z ENDP ; CvLuaMethodWrapper<CvLuaDeal,CvDeal>::BasicLuaMethod
_TEXT	ENDS
PUBLIC	?lClearItems@CvLuaDeal@@KAHPAUlua_State@@@Z	; CvLuaDeal::lClearItems
EXTRN	?ClearItems@CvDeal@@QAEXXZ:PROC			; CvDeal::ClearItems
; Function compile flags: /Ogtpy
; File c:\users\enormousapplepie\documents\github\lekmod\lekmod_dll\cvgamecoredll_expansion2\lua\cvluadeal.h
;	COMDAT ?lClearItems@CvLuaDeal@@KAHPAUlua_State@@@Z
_TEXT	SEGMENT
_L$ = 8							; size = 4
?lClearItems@CvLuaDeal@@KAHPAUlua_State@@@Z PROC	; CvLuaDeal::lClearItems, COMDAT

; 33   : 		return BasicLuaMethod(L, &CvDeal::ClearItems);

	mov	eax, DWORD PTR _L$[esp-4]
	push	OFFSET ?ClearItems@CvDeal@@QAEXXZ	; CvDeal::ClearItems
	push	eax
	call	?BasicLuaMethod@?$CvLuaMethodWrapper@VCvLuaDeal@@VCvDeal@@@@KAHPAUlua_State@@P8CvDeal@@AEXXZ@Z ; CvLuaMethodWrapper<CvLuaDeal,CvDeal>::BasicLuaMethod
	add	esp, 8

; 34   : 	};

	ret	0
?lClearItems@CvLuaDeal@@KAHPAUlua_State@@@Z ENDP	; CvLuaDeal::lClearItems
_TEXT	ENDS
PUBLIC	?lAddPermamentAlliance@CvLuaDeal@@KAHPAUlua_State@@@Z ; CvLuaDeal::lAddPermamentAlliance
EXTRN	?AddPermamentAlliance@CvDeal@@QAEXXZ:PROC	; CvDeal::AddPermamentAlliance
; Function compile flags: /Ogtpy
;	COMDAT ?lAddPermamentAlliance@CvLuaDeal@@KAHPAUlua_State@@@Z
_TEXT	SEGMENT
_L$ = 8							; size = 4
?lAddPermamentAlliance@CvLuaDeal@@KAHPAUlua_State@@@Z PROC ; CvLuaDeal::lAddPermamentAlliance, COMDAT

; 153  : 		return BasicLuaMethod(L, &CvDeal::AddPermamentAlliance);

	mov	eax, DWORD PTR _L$[esp-4]
	push	OFFSET ?AddPermamentAlliance@CvDeal@@QAEXXZ ; CvDeal::AddPermamentAlliance
	push	eax
	call	?BasicLuaMethod@?$CvLuaMethodWrapper@VCvLuaDeal@@VCvDeal@@@@KAHPAUlua_State@@P8CvDeal@@AEXXZ@Z ; CvLuaMethodWrapper<CvLuaDeal,CvDeal>::BasicLuaMethod
	add	esp, 8

; 154  : 	};

	ret	0
?lAddPermamentAlliance@CvLuaDeal@@KAHPAUlua_State@@@Z ENDP ; CvLuaDeal::lAddPermamentAlliance
_TEXT	ENDS
PUBLIC	?lAddTruce@CvLuaDeal@@KAHPAUlua_State@@@Z	; CvLuaDeal::lAddTruce
EXTRN	?AddTruce@CvDeal@@QAEXXZ:PROC			; CvDeal::AddTruce
; Function compile flags: /Ogtpy
;	COMDAT ?lAddTruce@CvLuaDeal@@KAHPAUlua_State@@@Z
_TEXT	SEGMENT
_L$ = 8							; size = 4
?lAddTruce@CvLuaDeal@@KAHPAUlua_State@@@Z PROC		; CvLuaDeal::lAddTruce, COMDAT

; 161  : 		return BasicLuaMethod(L, &CvDeal::AddTruce);

	mov	eax, DWORD PTR _L$[esp-4]
	push	OFFSET ?AddTruce@CvDeal@@QAEXXZ		; CvDeal::AddTruce
	push	eax
	call	?BasicLuaMethod@?$CvLuaMethodWrapper@VCvLuaDeal@@VCvDeal@@@@KAHPAUlua_State@@P8CvDeal@@AEXXZ@Z ; CvLuaMethodWrapper<CvLuaDeal,CvDeal>::BasicLuaMethod
	add	esp, 8

; 162  : 	};

	ret	0
?lAddTruce@CvLuaDeal@@KAHPAUlua_State@@@Z ENDP		; CvLuaDeal::lAddTruce
_TEXT	ENDS
PUBLIC	??0iterator@?$FFastList@UCvTradedItem@@$0BF@$0A@@@QAE@XZ ; FFastList<CvTradedItem,21,0>::iterator::iterator
; Function compile flags: /Ogtpy
; File c:\users\enormousapplepie\documents\github\lekmod\lekmod_dll\fireplace\include\fireworks\ffastlist.h
;	COMDAT ??0iterator@?$FFastList@UCvTradedItem@@$0BF@$0A@@@QAE@XZ
_TEXT	SEGMENT
??0iterator@?$FFastList@UCvTradedItem@@$0BF@$0A@@@QAE@XZ PROC ; FFastList<CvTradedItem,21,0>::iterator::iterator, COMDAT
; _this$ = ecx

; 133  : 		explicit iterator(){};

	mov	eax, ecx
	mov	DWORD PTR [eax], 0
	mov	DWORD PTR [eax+4], 268435455		; 0fffffffH
	ret	0
??0iterator@?$FFastList@UCvTradedItem@@$0BF@$0A@@@QAE@XZ ENDP ; FFastList<CvTradedItem,21,0>::iterator::iterator
_TEXT	ENDS
PUBLIC	??Diterator@?$FFastList@UCvTradedItem@@$0BF@$0A@@@QAEAAUCvTradedItem@@XZ ; FFastList<CvTradedItem,21,0>::iterator::operator*
; Function compile flags: /Ogtpy
;	COMDAT ??Diterator@?$FFastList@UCvTradedItem@@$0BF@$0A@@@QAEAAUCvTradedItem@@XZ
_TEXT	SEGMENT
??Diterator@?$FFastList@UCvTradedItem@@$0BF@$0A@@@QAEAAUCvTradedItem@@XZ PROC ; FFastList<CvTradedItem,21,0>::iterator::operator*, COMDAT
; _this$ = ecx

; 138  : 		T& operator*(){  return BASE_TYPE::iterator::operator*().data; };

	mov	eax, DWORD PTR [ecx+4]
	mov	ecx, DWORD PTR [ecx]
	imul	eax, 44					; 0000002cH
	mov	edx, DWORD PTR [ecx+8]
	lea	eax, DWORD PTR [eax+edx+8]
	ret	0
??Diterator@?$FFastList@UCvTradedItem@@$0BF@$0A@@@QAEAAUCvTradedItem@@XZ ENDP ; FFastList<CvTradedItem,21,0>::iterator::operator*
_TEXT	ENDS
PUBLIC	??E?$base_iterator@Vbase_iterator_tail@?$FCustomList_Core@U?$MultiListNodePolicy@UCvTradedItem@@@@V?$FFastAllocator@U?$MultiListNodePolicy@UCvTradedItem@@@@$0A@$0BF@$0A@UFDefaultFastVectorAllocator@?$BaseVector@U?$MultiListNodePolicy@UCvTradedItem@@@@$0A@@@@@V?$FCustomList_Tail_Member@V?$FFastAllocator@U?$MultiListNodePolicy@UCvTradedItem@@@@$0A@$0BF@$0A@UFDefaultFastVectorAllocator@?$BaseVector@U?$MultiListNodePolicy@UCvTradedItem@@@@$0A@@@@@@@@@@?$FCustomList_Core@U?$MultiListNodePolicy@UCvTradedItem@@@@V?$FFastAllocator@U?$MultiListNodePolicy@UCvTradedItem@@@@$0A@$0BF@$0A@UFDefaultFastVectorAllocator@?$BaseVector@U?$MultiListNodePolicy@UCvTradedItem@@@@$0A@@@@@V?$FCustomList_Tail_Member@V?$FFastAllocator@U?$MultiListNodePolicy@UCvTradedItem@@@@$0A@$0BF@$0A@UFDefaultFastVectorAllocator@?$BaseVector@U?$MultiListNodePolicy@UCvTradedItem@@@@$0A@@@@@@@@@QAE?BV01@H@Z ; FCustomList_Core<MultiListNodePolicy<CvTradedItem>,FFastAllocator<MultiListNodePolicy<CvTradedItem>,0,21,0,BaseVector<MultiListNodePolicy<CvTradedItem>,0>::FDefaultFastVectorAllocator>,FCustomList_Tail_Member<FFastAllocator<MultiListNodePolicy<CvTradedItem>,0,21,0,BaseVector<MultiListNodePolicy<CvTradedItem>,0>::FDefaultFastVectorAllocator> > >::base_iterator<FCustomList_Core<MultiListNodePolicy<CvTradedItem>,FFastAllocator<MultiListNodePolicy<CvTradedItem>,0,21,0,BaseVector<MultiListNodePolicy<CvTradedItem>,0>::FDefaultFastVectorAllocator>,FCustomList_Tail_Member<FFastAllocator<MultiListNodePolicy<CvTradedItem>,0,21,0,BaseVector<MultiListNodePolicy<CvTradedItem>,0>::FDefaultFastVectorAllocator> > >::base_iterator_tail>::operator++
; Function compile flags: /Ogtpy
;	COMDAT ??E?$base_iterator@Vbase_iterator_tail@?$FCustomList_Core@U?$MultiListNodePolicy@UCvTradedItem@@@@V?$FFastAllocator@U?$MultiListNodePolicy@UCvTradedItem@@@@$0A@$0BF@$0A@UFDefaultFastVectorAllocator@?$BaseVector@U?$MultiListNodePolicy@UCvTradedItem@@@@$0A@@@@@V?$FCustomList_Tail_Member@V?$FFastAllocator@U?$MultiListNodePolicy@UCvTradedItem@@@@$0A@$0BF@$0A@UFDefaultFastVectorAllocator@?$BaseVector@U?$MultiListNodePolicy@UCvTradedItem@@@@$0A@@@@@@@@@@?$FCustomList_Core@U?$MultiListNodePolicy@UCvTradedItem@@@@V?$FFastAllocator@U?$MultiListNodePolicy@UCvTradedItem@@@@$0A@$0BF@$0A@UFDefaultFastVectorAllocator@?$BaseVector@U?$MultiListNodePolicy@UCvTradedItem@@@@$0A@@@@@V?$FCustomList_Tail_Member@V?$FFastAllocator@U?$MultiListNodePolicy@UCvTradedItem@@@@$0A@$0BF@$0A@UFDefaultFastVectorAllocator@?$BaseVector@U?$MultiListNodePolicy@UCvTradedItem@@@@$0A@@@@@@@@@QAE?BV01@H@Z
_TEXT	SEGMENT
___$ReturnUdt$ = 8					; size = 4
_notused$ = 12						; size = 4
??E?$base_iterator@Vbase_iterator_tail@?$FCustomList_Core@U?$MultiListNodePolicy@UCvTradedItem@@@@V?$FFastAllocator@U?$MultiListNodePolicy@UCvTradedItem@@@@$0A@$0BF@$0A@UFDefaultFastVectorAllocator@?$BaseVector@U?$MultiListNodePolicy@UCvTradedItem@@@@$0A@@@@@V?$FCustomList_Tail_Member@V?$FFastAllocator@U?$MultiListNodePolicy@UCvTradedItem@@@@$0A@$0BF@$0A@UFDefaultFastVectorAllocator@?$BaseVector@U?$MultiListNodePolicy@UCvTradedItem@@@@$0A@@@@@@@@@@?$FCustomList_Core@U?$MultiListNodePolicy@UCvTradedItem@@@@V?$FFastAllocator@U?$MultiListNodePolicy@UCvTradedItem@@@@$0A@$0BF@$0A@UFDefaultFastVectorAllocator@?$BaseVector@U?$MultiListNodePolicy@UCvTradedItem@@@@$0A@@@@@V?$FCustomList_Tail_Member@V?$FFastAllocator@U?$MultiListNodePolicy@UCvTradedItem@@@@$0A@$0BF@$0A@UFDefaultFastVectorAllocator@?$BaseVector@U?$MultiListNodePolicy@UCvTradedItem@@@@$0A@@@@@@@@@QAE?BV01@H@Z PROC ; FCustomList_Core<MultiListNodePolicy<CvTradedItem>,FFastAllocator<MultiListNodePolicy<CvTradedItem>,0,21,0,BaseVector<MultiListNodePolicy<CvTradedItem>,0>::FDefaultFastVectorAllocator>,FCustomList_Tail_Member<FFastAllocator<MultiListNodePolicy<CvTradedItem>,0,21,0,BaseVector<MultiListNodePolicy<CvTradedItem>,0>::FDefaultFastVectorAllocator> > >::base_iterator<FCustomList_Core<MultiListNodePolicy<CvTradedItem>,FFastAllocator<MultiListNodePolicy<CvTradedItem>,0,21,0,BaseVector<MultiListNodePolicy<CvTradedItem>,0>::FDefaultFastVectorAllocator>,FCustomList_Tail_Member<FFastAllocator<MultiListNodePolicy<CvTradedItem>,0,21,0,BaseVector<MultiListNodePolicy<CvTradedItem>,0>::FDefaultFastVectorAllocator> > >::base_iterator_tail>::operator++, COMDAT
; _this$ = ecx

; 305  : #endif
; 306  : 			base_iterator temp = *this;

	mov	edx, DWORD PTR [ecx]
	mov	eax, DWORD PTR ___$ReturnUdt$[esp-4]
	mov	DWORD PTR [eax], edx
	mov	edx, DWORD PTR [ecx+4]
	mov	DWORD PTR [eax+4], edx

; 307  : 			++(*this);

	cmp	edx, 268435455				; 0fffffffH
	jne	SHORT $LN4@operator@2
	mov	edx, DWORD PTR [ecx]
	mov	edx, DWORD PTR [edx+24]
	mov	DWORD PTR [ecx+4], edx

; 308  : 			return temp;
; 309  : 		};

	ret	8

; 307  : 			++(*this);

$LN4@operator@2:
	imul	edx, 44					; 0000002cH
	push	esi
	mov	esi, DWORD PTR [ecx]
	mov	esi, DWORD PTR [esi+8]
	mov	edx, DWORD PTR [edx+esi]
	pop	esi
	mov	DWORD PTR [ecx+4], edx

; 308  : 			return temp;
; 309  : 		};

	ret	8
??E?$base_iterator@Vbase_iterator_tail@?$FCustomList_Core@U?$MultiListNodePolicy@UCvTradedItem@@@@V?$FFastAllocator@U?$MultiListNodePolicy@UCvTradedItem@@@@$0A@$0BF@$0A@UFDefaultFastVectorAllocator@?$BaseVector@U?$MultiListNodePolicy@UCvTradedItem@@@@$0A@@@@@V?$FCustomList_Tail_Member@V?$FFastAllocator@U?$MultiListNodePolicy@UCvTradedItem@@@@$0A@$0BF@$0A@UFDefaultFastVectorAllocator@?$BaseVector@U?$MultiListNodePolicy@UCvTradedItem@@@@$0A@@@@@@@@@@?$FCustomList_Core@U?$MultiListNodePolicy@UCvTradedItem@@@@V?$FFastAllocator@U?$MultiListNodePolicy@UCvTradedItem@@@@$0A@$0BF@$0A@UFDefaultFastVectorAllocator@?$BaseVector@U?$MultiListNodePolicy@UCvTradedItem@@@@$0A@@@@@V?$FCustomList_Tail_Member@V?$FFastAllocator@U?$MultiListNodePolicy@UCvTradedItem@@@@$0A@$0BF@$0A@UFDefaultFastVectorAllocator@?$BaseVector@U?$MultiListNodePolicy@UCvTradedItem@@@@$0A@@@@@@@@@QAE?BV01@H@Z ENDP ; FCustomList_Core<MultiListNodePolicy<CvTradedItem>,FFastAllocator<MultiListNodePolicy<CvTradedItem>,0,21,0,BaseVector<MultiListNodePolicy<CvTradedItem>,0>::FDefaultFastVectorAllocator>,FCustomList_Tail_Member<FFastAllocator<MultiListNodePolicy<CvTradedItem>,0,21,0,BaseVector<MultiListNodePolicy<CvTradedItem>,0>::FDefaultFastVectorAllocator> > >::base_iterator<FCustomList_Core<MultiListNodePolicy<CvTradedItem>,FFastAllocator<MultiListNodePolicy<CvTradedItem>,0,21,0,BaseVector<MultiListNodePolicy<CvTradedItem>,0>::FDefaultFastVectorAllocator>,FCustomList_Tail_Member<FFastAllocator<MultiListNodePolicy<CvTradedItem>,0,21,0,BaseVector<MultiListNodePolicy<CvTradedItem>,0>::FDefaultFastVectorAllocator> > >::base_iterator_tail>::operator++
_TEXT	ENDS
PUBLIC	??0iterator@?$FFastList@UCvTradedItem@@$0BF@$0A@@@QAE@IPAV1@@Z ; FFastList<CvTradedItem,21,0>::iterator::iterator
; Function compile flags: /Ogtpy
;	COMDAT ??0iterator@?$FFastList@UCvTradedItem@@$0BF@$0A@@@QAE@IPAV1@@Z
_TEXT	SEGMENT
_uiPos$ = 8						; size = 4
_pVec$ = 12						; size = 4
??0iterator@?$FFastList@UCvTradedItem@@$0BF@$0A@@@QAE@IPAV1@@Z PROC ; FFastList<CvTradedItem,21,0>::iterator::iterator, COMDAT
; _this$ = ecx

; 134  : 		explicit iterator( unsigned int uiPos, TYPE* pVec ) 

	mov	edx, DWORD PTR _uiPos$[esp-4]
	mov	eax, ecx
	mov	ecx, DWORD PTR _pVec$[esp-4]
	mov	DWORD PTR [eax], ecx
	mov	DWORD PTR [eax+4], edx
	ret	8
??0iterator@?$FFastList@UCvTradedItem@@$0BF@$0A@@@QAE@IPAV1@@Z ENDP ; FFastList<CvTradedItem,21,0>::iterator::iterator
_TEXT	ENDS
PUBLIC	?begin@?$FFastList@UCvTradedItem@@$0BF@$0A@@@QAE?AViterator@1@XZ ; FFastList<CvTradedItem,21,0>::begin
; Function compile flags: /Ogtpy
;	COMDAT ?begin@?$FFastList@UCvTradedItem@@$0BF@$0A@@@QAE?AViterator@1@XZ
_TEXT	SEGMENT
___$ReturnUdt$ = 8					; size = 4
?begin@?$FFastList@UCvTradedItem@@$0BF@$0A@@@QAE?AViterator@1@XZ PROC ; FFastList<CvTradedItem,21,0>::begin, COMDAT
; _this$ = ecx

; 199  : 	iterator begin(){ return iterator( m_uiFirst, this ); };

	mov	eax, DWORD PTR ___$ReturnUdt$[esp-4]
	mov	DWORD PTR [eax], ecx
	mov	ecx, DWORD PTR [ecx+24]
	mov	DWORD PTR [eax+4], ecx
	ret	4
?begin@?$FFastList@UCvTradedItem@@$0BF@$0A@@@QAE?AViterator@1@XZ ENDP ; FFastList<CvTradedItem,21,0>::begin
_TEXT	ENDS
PUBLIC	?end@?$FFastList@UCvTradedItem@@$0BF@$0A@@@QAE?AViterator@1@XZ ; FFastList<CvTradedItem,21,0>::end
; Function compile flags: /Ogtpy
;	COMDAT ?end@?$FFastList@UCvTradedItem@@$0BF@$0A@@@QAE?AViterator@1@XZ
_TEXT	SEGMENT
___$ReturnUdt$ = 8					; size = 4
?end@?$FFastList@UCvTradedItem@@$0BF@$0A@@@QAE?AViterator@1@XZ PROC ; FFastList<CvTradedItem,21,0>::end, COMDAT
; _this$ = ecx

; 200  : 	iterator end(){ return iterator( ANCHOR_NODE_INDEX, this ); };

	mov	eax, DWORD PTR ___$ReturnUdt$[esp-4]
	mov	DWORD PTR [eax], ecx
	mov	DWORD PTR [eax+4], 268435455		; 0fffffffH
	ret	4
?end@?$FFastList@UCvTradedItem@@$0BF@$0A@@@QAE?AViterator@1@XZ ENDP ; FFastList<CvTradedItem,21,0>::end
_TEXT	ENDS
PUBLIC	?lResetIterator@CvLuaDeal@@KAHPAUlua_State@@@Z	; CvLuaDeal::lResetIterator
; Function compile flags: /Ogtpy
; File c:\users\enormousapplepie\documents\github\lekmod\lekmod_dll\cvgamecoredll_expansion2\lua\cvluadeal.cpp
;	COMDAT ?lResetIterator@CvLuaDeal@@KAHPAUlua_State@@@Z
_TEXT	SEGMENT
$T220877 = -8						; size = 8
_L$ = 8							; size = 4
?lResetIterator@CvLuaDeal@@KAHPAUlua_State@@@Z PROC	; CvLuaDeal::lResetIterator, COMDAT

; 152  : {

	sub	esp, 8
	push	ebx
	push	ebp
	push	esi

; 153  : 	CvDeal* pkDeal = GetInstance(L);

	mov	esi, DWORD PTR _L$[esp+16]
	push	edi
	push	esi
	call	_lua_gettop
	push	1
	push	esi
	mov	ebp, eax
	mov	bl, 1
	xor	edi, edi
	call	_lua_type
	add	esp, 12					; 0000000cH
	cmp	eax, 5
	jne	SHORT $LN5@lResetIter
	push	OFFSET $SG219307
	push	1
	push	esi
	call	_lua_getfield
	push	-1
	push	esi
	call	_lua_type
	add	esp, 20					; 00000014H
	cmp	eax, 2
	jne	SHORT $LN5@lResetIter
	push	-1
	push	esi
	call	_lua_touserdata
	mov	edi, eax
	add	esp, 8
	test	edi, edi
	je	SHORT $LN5@lResetIter
	xor	bl, bl
$LN5@lResetIter:
	push	ebp
	push	esi
	call	_lua_settop
	add	esp, 8
	test	bl, bl
	je	SHORT $LN12@lResetIter
	push	OFFSET $SG219313
	push	esi
	call	_luaL_error
	push	OFFSET $SG219321
	push	esi
	call	_luaL_error
	add	esp, 16					; 00000010H
$LN12@lResetIter:

; 154  : 	m_iterator = pkDeal->m_TradedItems.begin();

	lea	eax, DWORD PTR $T220877[esp+24]
	push	eax
	lea	ecx, DWORD PTR [edi+44]
	call	?begin@?$FFastList@UCvTradedItem@@$0BF@$0A@@@QAE?AViterator@1@XZ ; FFastList<CvTradedItem,21,0>::begin
	mov	ecx, DWORD PTR [eax]
	pop	edi
	pop	esi
	mov	DWORD PTR ?m_iterator@CvLuaDeal@@1Viterator@?$FFastList@UCvTradedItem@@$0BF@$0A@@@A, ecx
	mov	edx, DWORD PTR [eax+4]
	pop	ebp
	mov	DWORD PTR ?m_iterator@CvLuaDeal@@1Viterator@?$FFastList@UCvTradedItem@@$0BF@$0A@@@A+4, edx

; 155  : 	return 0;

	xor	eax, eax
	pop	ebx

; 156  : }

	add	esp, 8
	ret	0
?lResetIterator@CvLuaDeal@@KAHPAUlua_State@@@Z ENDP	; CvLuaDeal::lResetIterator
_TEXT	ENDS
PUBLIC	?lGetNextItem@CvLuaDeal@@KAHPAUlua_State@@@Z	; CvLuaDeal::lGetNextItem
; Function compile flags: /Ogtpy
;	COMDAT ?lGetNextItem@CvLuaDeal@@KAHPAUlua_State@@@Z
_TEXT	SEGMENT
$T220906 = -8						; size = 8
$T220905 = -8						; size = 8
_L$ = 8							; size = 4
?lGetNextItem@CvLuaDeal@@KAHPAUlua_State@@@Z PROC	; CvLuaDeal::lGetNextItem, COMDAT

; 160  : {

	sub	esp, 8
	push	ebx
	push	ebp
	push	esi

; 161  : 	CvDeal* pkDeal = GetInstance(L);

	mov	esi, DWORD PTR _L$[esp+16]
	push	edi
	push	esi
	call	_lua_gettop
	push	1
	push	esi
	mov	ebp, eax
	mov	bl, 1
	xor	edi, edi
	call	_lua_type
	add	esp, 12					; 0000000cH
	cmp	eax, 5
	jne	SHORT $LN6@lGetNextIt
	push	OFFSET $SG219307
	push	1
	push	esi
	call	_lua_getfield
	push	-1
	push	esi
	call	_lua_type
	add	esp, 20					; 00000014H
	cmp	eax, 2
	jne	SHORT $LN6@lGetNextIt
	push	-1
	push	esi
	call	_lua_touserdata
	mov	edi, eax
	add	esp, 8
	test	edi, edi
	je	SHORT $LN6@lGetNextIt
	xor	bl, bl
$LN6@lGetNextIt:
	push	ebp
	push	esi
	call	_lua_settop
	add	esp, 8
	test	bl, bl
	je	SHORT $LN13@lGetNextIt
	push	OFFSET $SG219313
	push	esi
	call	_luaL_error
	push	OFFSET $SG219321
	push	esi
	call	_luaL_error
	add	esp, 16					; 00000010H
$LN13@lGetNextIt:

; 162  : 
; 163  : 	if(m_iterator == pkDeal->m_TradedItems.end())

	lea	eax, DWORD PTR $T220905[esp+24]
	push	eax
	lea	ecx, DWORD PTR [edi+44]
	call	?end@?$FFastList@UCvTradedItem@@$0BF@$0A@@@QAE?AViterator@1@XZ ; FFastList<CvTradedItem,21,0>::end
	mov	ecx, DWORD PTR ?m_iterator@CvLuaDeal@@1Viterator@?$FFastList@UCvTradedItem@@$0BF@$0A@@@A+4
	cmp	ecx, DWORD PTR [eax+4]
	jne	SHORT $LN1@lGetNextIt
	pop	edi
	pop	esi
	pop	ebp

; 164  : 		return 0;

	xor	eax, eax
	pop	ebx

; 187  : }

	add	esp, 8
	ret	0
$LN1@lGetNextIt:

; 165  : 
; 166  : 	const CvTradedItem& item = (*m_iterator);

	mov	edx, DWORD PTR ?m_iterator@CvLuaDeal@@1Viterator@?$FFastList@UCvTradedItem@@$0BF@$0A@@@A
	imul	ecx, 44					; 0000002cH
	mov	eax, DWORD PTR [edx+8]
	lea	edi, DWORD PTR [ecx+eax+8]

; 167  : 	lua_pushinteger(L, item.m_eItemType);

	mov	ecx, DWORD PTR [edi]
	push	ecx
	push	esi
	call	_lua_pushinteger

; 168  : 	lua_pushinteger(L, item.m_iDuration);

	mov	edx, DWORD PTR [edi+4]
	push	edx
	push	esi
	call	_lua_pushinteger

; 169  : #ifdef AUI_YIELDS_APPLIED_AFTER_TURN_NOT_BEFORE
; 170  : 	lua_pushinteger(L, item.m_iTurnsRemaining + GC.getGame().getGameTurn());
; 171  : #else
; 172  : 	lua_pushinteger(L, item.m_iFinalTurn);

	mov	eax, DWORD PTR [edi+8]
	push	eax
	push	esi
	call	_lua_pushinteger

; 173  : #endif
; 174  : 	lua_pushinteger(L, item.m_iData1);

	mov	ecx, DWORD PTR [edi+12]
	push	ecx
	push	esi
	call	_lua_pushinteger

; 175  : 	lua_pushinteger(L, item.m_iData2);

	mov	edx, DWORD PTR [edi+16]
	push	edx
	push	esi
	call	_lua_pushinteger

; 176  : 	lua_pushinteger(L, item.m_iData3);

	mov	eax, DWORD PTR [edi+20]
	push	eax
	push	esi
	call	_lua_pushinteger

; 177  : 	lua_pushboolean(L, item.m_bFlag1);

	movzx	ecx, BYTE PTR [edi+24]
	push	ecx
	push	esi
	call	_lua_pushboolean

; 178  : 	lua_pushinteger(L, item.m_eFromPlayer);

	mov	edx, DWORD PTR [edi+28]
	push	edx
	push	esi
	call	_lua_pushinteger
	add	esp, 64					; 00000040H

; 179  : 
; 180  : #ifdef AUI_ITERATOR_POSTFIX_INCREMENT_OPTIMIZATIONS
; 181  : 	++m_iterator;
; 182  : #else
; 183  : 	m_iterator++;

	push	0
	lea	eax, DWORD PTR $T220906[esp+28]
	push	eax
	mov	ecx, OFFSET ?m_iterator@CvLuaDeal@@1Viterator@?$FFastList@UCvTradedItem@@$0BF@$0A@@@A ; CvLuaDeal::m_iterator
	call	??E?$base_iterator@Vbase_iterator_tail@?$FCustomList_Core@U?$MultiListNodePolicy@UCvTradedItem@@@@V?$FFastAllocator@U?$MultiListNodePolicy@UCvTradedItem@@@@$0A@$0BF@$0A@UFDefaultFastVectorAllocator@?$BaseVector@U?$MultiListNodePolicy@UCvTradedItem@@@@$0A@@@@@V?$FCustomList_Tail_Member@V?$FFastAllocator@U?$MultiListNodePolicy@UCvTradedItem@@@@$0A@$0BF@$0A@UFDefaultFastVectorAllocator@?$BaseVector@U?$MultiListNodePolicy@UCvTradedItem@@@@$0A@@@@@@@@@@?$FCustomList_Core@U?$MultiListNodePolicy@UCvTradedItem@@@@V?$FFastAllocator@U?$MultiListNodePolicy@UCvTradedItem@@@@$0A@$0BF@$0A@UFDefaultFastVectorAllocator@?$BaseVector@U?$MultiListNodePolicy@UCvTradedItem@@@@$0A@@@@@V?$FCustomList_Tail_Member@V?$FFastAllocator@U?$MultiListNodePolicy@UCvTradedItem@@@@$0A@$0BF@$0A@UFDefaultFastVectorAllocator@?$BaseVector@U?$MultiListNodePolicy@UCvTradedItem@@@@$0A@@@@@@@@@QAE?BV01@H@Z ; FCustomList_Core<MultiListNodePolicy<CvTradedItem>,FFastAllocator<MultiListNodePolicy<CvTradedItem>,0,21,0,BaseVector<MultiListNodePolicy<CvTradedItem>,0>::FDefaultFastVectorAllocator>,FCustomList_Tail_Member<FFastAllocator<MultiListNodePolicy<CvTradedItem>,0,21,0,BaseVector<MultiListNodePolicy<CvTradedItem>,0>::FDefaultFastVectorAllocator> > >::base_iterator<FCustomList_Core<MultiListNodePolicy<CvTradedItem>,FFastAllocator<MultiListNodePolicy<CvTradedItem>,0,21,0,BaseVector<MultiListNodePolicy<CvTradedItem>,0>::FDefaultFastVectorAllocator>,FCustomList_Tail_Member<FFastAllocator<MultiListNodePolicy<CvTradedItem>,0,21,0,BaseVector<MultiListNodePolicy<CvTradedItem>,0>::FDefaultFastVectorAllocator> > >::base_iterator_tail>::operator++
	pop	edi
	pop	esi
	pop	ebp

; 184  : #endif
; 185  : 
; 186  : 	return 8;

	mov	eax, 8
	pop	ebx

; 187  : }

	add	esp, 8
	ret	0
?lGetNextItem@CvLuaDeal@@KAHPAUlua_State@@@Z ENDP	; CvLuaDeal::lGetNextItem
_TEXT	ENDS
PUBLIC	?PushMethods@CvLuaDeal@@SAXPAUlua_State@@H@Z	; CvLuaDeal::PushMethods
EXTRN	_lua_setfield:PROC
EXTRN	_lua_pushcclosure:PROC
; Function compile flags: /Ogtpy
;	COMDAT ?PushMethods@CvLuaDeal@@SAXPAUlua_State@@H@Z
_TEXT	SEGMENT
_L$ = 8							; size = 4
_t$ = 12						; size = 4
?PushMethods@CvLuaDeal@@SAXPAUlua_State@@H@Z PROC	; CvLuaDeal::PushMethods, COMDAT

; 24   : {

	push	esi

; 25   : 	Method(ClearItems);

	mov	esi, DWORD PTR _L$[esp]
	push	edi
	push	0
	push	OFFSET ?lClearItems@CvLuaDeal@@KAHPAUlua_State@@@Z ; CvLuaDeal::lClearItems
	push	esi
	call	_lua_pushcclosure
	mov	edi, DWORD PTR _t$[esp+16]
	push	OFFSET $SG219097
	push	edi
	push	esi
	call	_lua_setfield

; 26   : 	Method(GetNumItems);

	push	0
	push	OFFSET ?lGetNumItems@CvLuaDeal@@KAHPAUlua_State@@@Z ; CvLuaDeal::lGetNumItems
	push	esi
	call	_lua_pushcclosure
	push	OFFSET $SG219098
	push	edi
	push	esi
	call	_lua_setfield

; 27   : 
; 28   : 	Method(GetStartTurn);

	push	0
	push	OFFSET ?lGetStartTurn@CvLuaDeal@@KAHPAUlua_State@@@Z ; CvLuaDeal::lGetStartTurn
	push	esi
	call	_lua_pushcclosure
	push	OFFSET $SG219099
	push	edi
	push	esi
	call	_lua_setfield
	add	esp, 72					; 00000048H

; 29   : 	Method(GetEndTurn);

	push	0
	push	OFFSET ?lGetEndTurn@CvLuaDeal@@KAHPAUlua_State@@@Z ; CvLuaDeal::lGetEndTurn
	push	esi
	call	_lua_pushcclosure
	push	OFFSET $SG219100
	push	edi
	push	esi
	call	_lua_setfield

; 30   : 	Method(GetDuration);

	push	0
	push	OFFSET ?lGetDuration@CvLuaDeal@@KAHPAUlua_State@@@Z ; CvLuaDeal::lGetDuration
	push	esi
	call	_lua_pushcclosure
	push	OFFSET $SG219101
	push	edi
	push	esi
	call	_lua_setfield

; 31   : 
; 32   : 	Method(GetOtherPlayer);

	push	0
	push	OFFSET ?lGetOtherPlayer@CvLuaDeal@@KAHPAUlua_State@@@Z ; CvLuaDeal::lGetOtherPlayer
	push	esi
	call	_lua_pushcclosure
	push	OFFSET $SG219102
	push	edi
	push	esi
	call	_lua_setfield
	add	esp, 72					; 00000048H

; 33   : 	Method(GetFromPlayer);

	push	0
	push	OFFSET ?lGetFromPlayer@CvLuaDeal@@KAHPAUlua_State@@@Z ; CvLuaDeal::lGetFromPlayer
	push	esi
	call	_lua_pushcclosure
	push	OFFSET $SG219103
	push	edi
	push	esi
	call	_lua_setfield

; 34   : 	Method(GetToPlayer);

	push	0
	push	OFFSET ?lGetToPlayer@CvLuaDeal@@KAHPAUlua_State@@@Z ; CvLuaDeal::lGetToPlayer
	push	esi
	call	_lua_pushcclosure
	push	OFFSET $SG219104
	push	edi
	push	esi
	call	_lua_setfield

; 35   : 	Method(SetFromPlayer);

	push	0
	push	OFFSET ?lSetFromPlayer@CvLuaDeal@@KAHPAUlua_State@@@Z ; CvLuaDeal::lSetFromPlayer
	push	esi
	call	_lua_pushcclosure
	push	OFFSET $SG219105
	push	edi
	push	esi
	call	_lua_setfield
	add	esp, 72					; 00000048H

; 36   : 	Method(SetToPlayer);

	push	0
	push	OFFSET ?lSetToPlayer@CvLuaDeal@@KAHPAUlua_State@@@Z ; CvLuaDeal::lSetToPlayer
	push	esi
	call	_lua_pushcclosure
	push	OFFSET $SG219106
	push	edi
	push	esi
	call	_lua_setfield

; 37   : 
; 38   : 	Method(GetSurrenderingPlayer);

	push	0
	push	OFFSET ?lGetSurrenderingPlayer@CvLuaDeal@@KAHPAUlua_State@@@Z ; CvLuaDeal::lGetSurrenderingPlayer
	push	esi
	call	_lua_pushcclosure
	push	OFFSET $SG219107
	push	edi
	push	esi
	call	_lua_setfield

; 39   : 	Method(SetSurrenderingPlayer);

	push	0
	push	OFFSET ?lSetSurrenderingPlayer@CvLuaDeal@@KAHPAUlua_State@@@Z ; CvLuaDeal::lSetSurrenderingPlayer
	push	esi
	call	_lua_pushcclosure
	push	OFFSET $SG219108
	push	edi
	push	esi
	call	_lua_setfield
	add	esp, 72					; 00000048H

; 40   : 	Method(GetDemandingPlayer);

	push	0
	push	OFFSET ?lGetDemandingPlayer@CvLuaDeal@@KAHPAUlua_State@@@Z ; CvLuaDeal::lGetDemandingPlayer
	push	esi
	call	_lua_pushcclosure
	push	OFFSET $SG219109
	push	edi
	push	esi
	call	_lua_setfield

; 41   : 	Method(SetDemandingPlayer);

	push	0
	push	OFFSET ?lSetDemandingPlayer@CvLuaDeal@@KAHPAUlua_State@@@Z ; CvLuaDeal::lSetDemandingPlayer
	push	esi
	call	_lua_pushcclosure
	push	OFFSET $SG219110
	push	edi
	push	esi
	call	_lua_setfield

; 42   : 	Method(GetRequestingPlayer);

	push	0
	push	OFFSET ?lGetRequestingPlayer@CvLuaDeal@@KAHPAUlua_State@@@Z ; CvLuaDeal::lGetRequestingPlayer
	push	esi
	call	_lua_pushcclosure
	push	OFFSET $SG219111
	push	edi
	push	esi
	call	_lua_setfield
	add	esp, 72					; 00000048H

; 43   : 	Method(SetRequestingPlayer);

	push	0
	push	OFFSET ?lSetRequestingPlayer@CvLuaDeal@@KAHPAUlua_State@@@Z ; CvLuaDeal::lSetRequestingPlayer
	push	esi
	call	_lua_pushcclosure
	push	OFFSET $SG219112
	push	edi
	push	esi
	call	_lua_setfield

; 44   : 
; 45   : 	Method(ResetIterator);

	push	0
	push	OFFSET ?lResetIterator@CvLuaDeal@@KAHPAUlua_State@@@Z ; CvLuaDeal::lResetIterator
	push	esi
	call	_lua_pushcclosure
	push	OFFSET $SG219113
	push	edi
	push	esi
	call	_lua_setfield

; 46   : 	Method(GetNextItem);

	push	0
	push	OFFSET ?lGetNextItem@CvLuaDeal@@KAHPAUlua_State@@@Z ; CvLuaDeal::lGetNextItem
	push	esi
	call	_lua_pushcclosure
	push	OFFSET $SG219114
	push	edi
	push	esi
	call	_lua_setfield
	add	esp, 72					; 00000048H

; 47   : 
; 48   : 	Method(GetGoldAvailable);

	push	0
	push	OFFSET ?lGetGoldAvailable@CvLuaDeal@@KAHPAUlua_State@@@Z ; CvLuaDeal::lGetGoldAvailable
	push	esi
	call	_lua_pushcclosure
	push	OFFSET $SG219115
	push	edi
	push	esi
	call	_lua_setfield

; 49   : 
; 50   : 	Method(IsPossibleToTradeItem);

	push	0
	push	OFFSET ?lIsPossibleToTradeItem@CvLuaDeal@@KAHPAUlua_State@@@Z ; CvLuaDeal::lIsPossibleToTradeItem
	push	esi
	call	_lua_pushcclosure
	push	OFFSET $SG219116
	push	edi
	push	esi
	call	_lua_setfield

; 51   : 	Method(GetNumResource);

	push	0
	push	OFFSET ?lGetNumResource@CvLuaDeal@@KAHPAUlua_State@@@Z ; CvLuaDeal::lGetNumResource
	push	esi
	call	_lua_pushcclosure
	push	OFFSET $SG219117
	push	edi
	push	esi
	call	_lua_setfield
	add	esp, 72					; 00000048H

; 52   : 
; 53   : 	Method(AddGoldTrade);

	push	0
	push	OFFSET ?lAddGoldTrade@CvLuaDeal@@KAHPAUlua_State@@@Z ; CvLuaDeal::lAddGoldTrade
	push	esi
	call	_lua_pushcclosure
	push	OFFSET $SG219118
	push	edi
	push	esi
	call	_lua_setfield

; 54   : 	Method(AddGoldPerTurnTrade);

	push	0
	push	OFFSET ?lAddGoldPerTurnTrade@CvLuaDeal@@KAHPAUlua_State@@@Z ; CvLuaDeal::lAddGoldPerTurnTrade
	push	esi
	call	_lua_pushcclosure
	push	OFFSET $SG219119
	push	edi
	push	esi
	call	_lua_setfield

; 55   : 	Method(AddMapTrade);

	push	0
	push	OFFSET ?lAddMapTrade@CvLuaDeal@@KAHPAUlua_State@@@Z ; CvLuaDeal::lAddMapTrade
	push	esi
	call	_lua_pushcclosure
	push	OFFSET $SG219120
	push	edi
	push	esi
	call	_lua_setfield
	add	esp, 72					; 00000048H

; 56   : 	Method(AddResourceTrade);

	push	0
	push	OFFSET ?lAddResourceTrade@CvLuaDeal@@KAHPAUlua_State@@@Z ; CvLuaDeal::lAddResourceTrade
	push	esi
	call	_lua_pushcclosure
	push	OFFSET $SG219121
	push	edi
	push	esi
	call	_lua_setfield

; 57   : 	Method(AddCityTrade);

	push	0
	push	OFFSET ?lAddCityTrade@CvLuaDeal@@KAHPAUlua_State@@@Z ; CvLuaDeal::lAddCityTrade
	push	esi
	call	_lua_pushcclosure
	push	OFFSET $SG219122
	push	edi
	push	esi
	call	_lua_setfield

; 58   : 	Method(AddUnitTrade);

	push	0
	push	OFFSET ?lAddUnitTrade@CvLuaDeal@@KAHPAUlua_State@@@Z ; CvLuaDeal::lAddUnitTrade
	push	esi
	call	_lua_pushcclosure
	push	OFFSET $SG219123
	push	edi
	push	esi
	call	_lua_setfield
	add	esp, 72					; 00000048H

; 59   : 	Method(AddAllowEmbassy);

	push	0
	push	OFFSET ?lAddAllowEmbassy@CvLuaDeal@@KAHPAUlua_State@@@Z ; CvLuaDeal::lAddAllowEmbassy
	push	esi
	call	_lua_pushcclosure
	push	OFFSET $SG219124
	push	edi
	push	esi
	call	_lua_setfield

; 60   : 	Method(AddOpenBorders);

	push	0
	push	OFFSET ?lAddOpenBorders@CvLuaDeal@@KAHPAUlua_State@@@Z ; CvLuaDeal::lAddOpenBorders
	push	esi
	call	_lua_pushcclosure
	push	OFFSET $SG219125
	push	edi
	push	esi
	call	_lua_setfield

; 61   : 	Method(AddDefensivePact);

	push	0
	push	OFFSET ?lAddDefensivePact@CvLuaDeal@@KAHPAUlua_State@@@Z ; CvLuaDeal::lAddDefensivePact
	push	esi
	call	_lua_pushcclosure
	push	OFFSET $SG219126
	push	edi
	push	esi
	call	_lua_setfield
	add	esp, 72					; 00000048H

; 62   : 	Method(AddResearchAgreement);

	push	0
	push	OFFSET ?lAddResearchAgreement@CvLuaDeal@@KAHPAUlua_State@@@Z ; CvLuaDeal::lAddResearchAgreement
	push	esi
	call	_lua_pushcclosure
	push	OFFSET $SG219127
	push	edi
	push	esi
	call	_lua_setfield

; 63   : 	Method(AddTradeAgreement);

	push	0
	push	OFFSET ?lAddTradeAgreement@CvLuaDeal@@KAHPAUlua_State@@@Z ; CvLuaDeal::lAddTradeAgreement
	push	esi
	call	_lua_pushcclosure
	push	OFFSET $SG219128
	push	edi
	push	esi
	call	_lua_setfield

; 64   : 	Method(AddPermamentAlliance);

	push	0
	push	OFFSET ?lAddPermamentAlliance@CvLuaDeal@@KAHPAUlua_State@@@Z ; CvLuaDeal::lAddPermamentAlliance
	push	esi
	call	_lua_pushcclosure
	push	OFFSET $SG219129
	push	edi
	push	esi
	call	_lua_setfield
	add	esp, 72					; 00000048H

; 65   : 	Method(AddSurrender);

	push	0
	push	OFFSET ?lAddSurrender@CvLuaDeal@@KAHPAUlua_State@@@Z ; CvLuaDeal::lAddSurrender
	push	esi
	call	_lua_pushcclosure
	push	OFFSET $SG219130
	push	edi
	push	esi
	call	_lua_setfield

; 66   : 	Method(AddTruce);

	push	0
	push	OFFSET ?lAddTruce@CvLuaDeal@@KAHPAUlua_State@@@Z ; CvLuaDeal::lAddTruce
	push	esi
	call	_lua_pushcclosure
	push	OFFSET $SG219131
	push	edi
	push	esi
	call	_lua_setfield

; 67   : 	Method(AddPeaceTreaty);

	push	0
	push	OFFSET ?lAddPeaceTreaty@CvLuaDeal@@KAHPAUlua_State@@@Z ; CvLuaDeal::lAddPeaceTreaty
	push	esi
	call	_lua_pushcclosure
	push	OFFSET $SG219132
	push	edi
	push	esi
	call	_lua_setfield
	add	esp, 72					; 00000048H

; 68   : 	Method(AddThirdPartyPeace);

	push	0
	push	OFFSET ?lAddThirdPartyPeace@CvLuaDeal@@KAHPAUlua_State@@@Z ; CvLuaDeal::lAddThirdPartyPeace
	push	esi
	call	_lua_pushcclosure
	push	OFFSET $SG219133
	push	edi
	push	esi
	call	_lua_setfield

; 69   : 	Method(AddThirdPartyWar);

	push	0
	push	OFFSET ?lAddThirdPartyWar@CvLuaDeal@@KAHPAUlua_State@@@Z ; CvLuaDeal::lAddThirdPartyWar
	push	esi
	call	_lua_pushcclosure
	push	OFFSET $SG219134
	push	edi
	push	esi
	call	_lua_setfield

; 70   : 	Method(AddThirdPartyEmbargo);

	push	0
	push	OFFSET ?lAddThirdPartyEmbargo@CvLuaDeal@@KAHPAUlua_State@@@Z ; CvLuaDeal::lAddThirdPartyEmbargo
	push	esi
	call	_lua_pushcclosure
	push	OFFSET $SG219135
	push	edi
	push	esi
	call	_lua_setfield
	add	esp, 72					; 00000048H

; 71   : 	Method(AddDeclarationOfFriendship);

	push	0
	push	OFFSET ?lAddDeclarationOfFriendship@CvLuaDeal@@KAHPAUlua_State@@@Z ; CvLuaDeal::lAddDeclarationOfFriendship
	push	esi
	call	_lua_pushcclosure
	push	OFFSET $SG219136
	push	edi
	push	esi
	call	_lua_setfield

; 72   : 	Method(AddVoteCommitment);

	push	0
	push	OFFSET ?lAddVoteCommitment@CvLuaDeal@@KAHPAUlua_State@@@Z ; CvLuaDeal::lAddVoteCommitment
	push	esi
	call	_lua_pushcclosure
	push	OFFSET $SG219137
	push	edi
	push	esi
	call	_lua_setfield

; 73   : 
; 74   : 	Method(RemoveByType);

	push	0
	push	OFFSET ?lRemoveByType@CvLuaDeal@@KAHPAUlua_State@@@Z ; CvLuaDeal::lRemoveByType
	push	esi
	call	_lua_pushcclosure
	push	OFFSET $SG219138
	push	edi
	push	esi
	call	_lua_setfield
	add	esp, 72					; 00000048H

; 75   : 	Method(RemoveResourceTrade);

	push	0
	push	OFFSET ?lRemoveResourceTrade@CvLuaDeal@@KAHPAUlua_State@@@Z ; CvLuaDeal::lRemoveResourceTrade
	push	esi
	call	_lua_pushcclosure
	push	OFFSET $SG219139
	push	edi
	push	esi
	call	_lua_setfield

; 76   : 	Method(RemoveCityTrade);

	push	0
	push	OFFSET ?lRemoveCityTrade@CvLuaDeal@@KAHPAUlua_State@@@Z ; CvLuaDeal::lRemoveCityTrade
	push	esi
	call	_lua_pushcclosure
	push	OFFSET $SG219140
	push	edi
	push	esi
	call	_lua_setfield

; 77   : 	Method(RemoveUnitTrade);

	push	0
	push	OFFSET ?lRemoveUnitTrade@CvLuaDeal@@KAHPAUlua_State@@@Z ; CvLuaDeal::lRemoveUnitTrade
	push	esi
	call	_lua_pushcclosure
	push	OFFSET $SG219141
	push	edi
	push	esi
	call	_lua_setfield
	add	esp, 72					; 00000048H

; 78   : 	Method(RemoveThirdPartyPeace);

	push	0
	push	OFFSET ?lRemoveThirdPartyPeace@CvLuaDeal@@KAHPAUlua_State@@@Z ; CvLuaDeal::lRemoveThirdPartyPeace
	push	esi
	call	_lua_pushcclosure
	push	OFFSET $SG219142
	push	edi
	push	esi
	call	_lua_setfield

; 79   : 	Method(RemoveThirdPartyWar);

	push	0
	push	OFFSET ?lRemoveThirdPartyWar@CvLuaDeal@@KAHPAUlua_State@@@Z ; CvLuaDeal::lRemoveThirdPartyWar
	push	esi
	call	_lua_pushcclosure
	push	OFFSET $SG219143
	push	edi
	push	esi
	call	_lua_setfield

; 80   : 	Method(RemoveThirdPartyEmbargo);

	push	0
	push	OFFSET ?lRemoveThirdPartyEmbargo@CvLuaDeal@@KAHPAUlua_State@@@Z ; CvLuaDeal::lRemoveThirdPartyEmbargo
	push	esi
	call	_lua_pushcclosure
	push	OFFSET $SG219144
	push	edi
	push	esi
	call	_lua_setfield
	add	esp, 72					; 00000048H

; 81   : 	Method(RemoveVoteCommitment);

	push	0
	push	OFFSET ?lRemoveVoteCommitment@CvLuaDeal@@KAHPAUlua_State@@@Z ; CvLuaDeal::lRemoveVoteCommitment
	push	esi
	call	_lua_pushcclosure
	push	OFFSET $SG219145
	push	edi
	push	esi
	call	_lua_setfield

; 82   : 
; 83   : 	Method(ChangeGoldTrade);

	push	0
	push	OFFSET ?lChangeGoldTrade@CvLuaDeal@@KAHPAUlua_State@@@Z ; CvLuaDeal::lChangeGoldTrade
	push	esi
	call	_lua_pushcclosure
	push	OFFSET $SG219146
	push	edi
	push	esi
	call	_lua_setfield

; 84   : 	Method(ChangeGoldPerTurnTrade);

	push	0
	push	OFFSET ?lChangeGoldPerTurnTrade@CvLuaDeal@@KAHPAUlua_State@@@Z ; CvLuaDeal::lChangeGoldPerTurnTrade
	push	esi
	call	_lua_pushcclosure
	push	OFFSET $SG219147
	push	edi
	push	esi
	call	_lua_setfield
	add	esp, 72					; 00000048H

; 85   : 	Method(ChangeResourceTrade);

	push	0
	push	OFFSET ?lChangeResourceTrade@CvLuaDeal@@KAHPAUlua_State@@@Z ; CvLuaDeal::lChangeResourceTrade
	push	esi
	call	_lua_pushcclosure
	push	OFFSET $SG219148
	push	edi
	push	esi
	call	_lua_setfield

; 86   : 	Method(ChangeThirdPartyWarDuration);

	push	0
	push	OFFSET ?lChangeThirdPartyWarDuration@CvLuaDeal@@KAHPAUlua_State@@@Z ; CvLuaDeal::lChangeThirdPartyWarDuration
	push	esi
	call	_lua_pushcclosure
	push	OFFSET $SG219149
	push	edi
	push	esi
	call	_lua_setfield

; 87   : 	Method(ChangeThirdPartyPeaceDuration);

	push	0
	push	OFFSET ?lChangeThirdPartyPeaceDuration@CvLuaDeal@@KAHPAUlua_State@@@Z ; CvLuaDeal::lChangeThirdPartyPeaceDuration
	push	esi
	call	_lua_pushcclosure
	push	OFFSET $SG219150
	push	edi
	push	esi
	call	_lua_setfield
	add	esp, 72					; 00000048H

; 88   : 	Method(ChangeThirdPartyEmbargoDuration);

	push	0
	push	OFFSET ?lChangeThirdPartyEmbargoDuration@CvLuaDeal@@KAHPAUlua_State@@@Z ; CvLuaDeal::lChangeThirdPartyEmbargoDuration
	push	esi
	call	_lua_pushcclosure
	push	OFFSET $SG219151
	push	edi
	push	esi
	call	_lua_setfield
	add	esp, 24					; 00000018H
	pop	edi
	pop	esi

; 89   : }

	ret	0
?PushMethods@CvLuaDeal@@SAXPAUlua_State@@H@Z ENDP	; CvLuaDeal::PushMethods
_TEXT	ENDS
PUBLIC	?m_iterator@CvLuaDeal@@1Viterator@?$FFastList@UCvTradedItem@@$0BF@$0A@@@A ; CvLuaDeal::m_iterator
EXTRN	_atexit:PROC
_DATA	SEGMENT
?m_iterator@CvLuaDeal@@1Viterator@?$FFastList@UCvTradedItem@@$0BF@$0A@@@A DB 04H DUP (?)
	DD	0fffffffH				; CvLuaDeal::m_iterator
; Function compile flags: /Ogtpy
_DATA	ENDS
;	COMDAT ??__E?m_iterator@CvLuaDeal@@1Viterator@?$FFastList@UCvTradedItem@@$0BF@$0A@@@A@@YAXXZ
text$yc	SEGMENT
??__E?m_iterator@CvLuaDeal@@1Viterator@?$FFastList@UCvTradedItem@@$0BF@$0A@@@A@@YAXXZ PROC ; `dynamic initializer for 'CvLuaDeal::m_iterator'', COMDAT

; 20   : TradedItemList::iterator CvLuaDeal::m_iterator;

	push	OFFSET ??__F?m_iterator@CvLuaDeal@@1Viterator@?$FFastList@UCvTradedItem@@$0BF@$0A@@@A@@YAXXZ ; `dynamic atexit destructor for 'CvLuaDeal::m_iterator''
	call	_atexit
	pop	ecx
	ret	0
??__E?m_iterator@CvLuaDeal@@1Viterator@?$FFastList@UCvTradedItem@@$0BF@$0A@@@A@@YAXXZ ENDP ; `dynamic initializer for 'CvLuaDeal::m_iterator''
; Function compile flags: /Ogtpy
text$yc	ENDS
;	COMDAT ??__F?m_iterator@CvLuaDeal@@1Viterator@?$FFastList@UCvTradedItem@@$0BF@$0A@@@A@@YAXXZ
text$yd	SEGMENT
??__F?m_iterator@CvLuaDeal@@1Viterator@?$FFastList@UCvTradedItem@@$0BF@$0A@@@A@@YAXXZ PROC ; `dynamic atexit destructor for 'CvLuaDeal::m_iterator'', COMDAT
	ret	0
??__F?m_iterator@CvLuaDeal@@1Viterator@?$FFastList@UCvTradedItem@@$0BF@$0A@@@A@@YAXXZ ENDP ; `dynamic atexit destructor for 'CvLuaDeal::m_iterator''
text$yd	ENDS
CRT$XCU	SEGMENT
?m_iterator$initializer$@CvLuaDeal@@1P6AXXZA DD FLAT:??__E?m_iterator@CvLuaDeal@@1Viterator@?$FFastList@UCvTradedItem@@$0BF@$0A@@@A@@YAXXZ ; CvLuaDeal::m_iterator$initializer$
CRT$XCU	ENDS
END
