; Listing generated by Microsoft (R) Optimizing Compiler Version 15.00.30729.01 

	TITLE	c:\Users\EnormousApplePie\Documents\GitHub\Lekmod\LEKMOD_DLL\CvGameCoreDLL_Expansion2\Lua\CvLuaArgsHandle.cpp
	.686P
	.XMM
	include listing.inc
	.model	flat

INCLUDELIB MSVCRT
INCLUDELIB OLDNAMES

PUBLIC	?getDLLIFace@CvGlobals@@QAEPAVICvEngineUtility4@@XZ ; CvGlobals::getDLLIFace
; Function compile flags: /Ogtpy
; File c:\users\enormousapplepie\documents\github\lekmod\lekmod_dll\cvgamecoredll_expansion2\cvglobals.h
;	COMDAT ?getDLLIFace@CvGlobals@@QAEPAVICvEngineUtility4@@XZ
_TEXT	SEGMENT
?getDLLIFace@CvGlobals@@QAEPAVICvEngineUtility4@@XZ PROC ; CvGlobals::getDLLIFace, COMDAT
; _this$ = ecx

; 7738 : 		return m_pDLL;

	mov	eax, DWORD PTR [ecx+8596]

; 7739 : 	}

	ret	0
?getDLLIFace@CvGlobals@@QAEPAVICvEngineUtility4@@XZ ENDP ; CvGlobals::getDLLIFace
_TEXT	ENDS
PUBLIC	??0CvLuaArgsHandle@@QAE@XZ			; CvLuaArgsHandle::CvLuaArgsHandle
EXTRN	?gGlobals@@3VCvGlobals@@A:BYTE			; gGlobals
; Function compile flags: /Ogtpy
; File c:\users\enormousapplepie\documents\github\lekmod\lekmod_dll\cvgamecoredll_expansion2\lua\cvluaargshandle.cpp
;	COMDAT ??0CvLuaArgsHandle@@QAE@XZ
_TEXT	SEGMENT
??0CvLuaArgsHandle@@QAE@XZ PROC				; CvLuaArgsHandle::CvLuaArgsHandle, COMDAT
; _this$ = ecx

; 20   : {

	push	esi
	mov	esi, ecx

; 21   : 	ICvEngineScriptSystem1* pkScriptSystem = gDLL->GetScriptSystem();

	mov	ecx, DWORD PTR ?gGlobals@@3VCvGlobals@@A+8596
	mov	eax, DWORD PTR [ecx]
	mov	edx, DWORD PTR [eax+12]
	call	edx

; 22   : 	if(pkScriptSystem)

	test	eax, eax
	je	SHORT $LN6@CvLuaArgsH

; 23   : 	{
; 24   : 		m_Ptr = pkScriptSystem->CreateArgs();

	mov	edx, DWORD PTR [eax]
	mov	ecx, eax
	mov	eax, DWORD PTR [edx+16]
	call	eax
	mov	DWORD PTR [esi], eax
$LN6@CvLuaArgsH:

; 25   : 	}
; 26   : }

	mov	eax, esi
	pop	esi
	ret	0
??0CvLuaArgsHandle@@QAE@XZ ENDP				; CvLuaArgsHandle::CvLuaArgsHandle
_TEXT	ENDS
PUBLIC	??0CvLuaArgsHandle@@QAE@I@Z			; CvLuaArgsHandle::CvLuaArgsHandle
; Function compile flags: /Ogtpy
;	COMDAT ??0CvLuaArgsHandle@@QAE@I@Z
_TEXT	SEGMENT
_uiReserve$ = 8						; size = 4
??0CvLuaArgsHandle@@QAE@I@Z PROC			; CvLuaArgsHandle::CvLuaArgsHandle, COMDAT
; _this$ = ecx

; 28   : {

	push	esi
	mov	esi, ecx

; 29   : 	ICvEngineScriptSystem1* pkScriptSystem = gDLL->GetScriptSystem();

	mov	ecx, DWORD PTR ?gGlobals@@3VCvGlobals@@A+8596
	mov	eax, DWORD PTR [ecx]
	mov	edx, DWORD PTR [eax+12]
	call	edx

; 30   : 	if(pkScriptSystem)

	test	eax, eax
	je	SHORT $LN6@CvLuaArgsH@2

; 31   : 	{
; 32   : 		m_Ptr = pkScriptSystem->CreateArgs(uiReserve);

	mov	ecx, DWORD PTR _uiReserve$[esp]
	mov	edx, DWORD PTR [eax]
	mov	edx, DWORD PTR [edx+12]
	push	ecx
	mov	ecx, eax
	call	edx
	mov	DWORD PTR [esi], eax
$LN6@CvLuaArgsH@2:

; 33   : 	}
; 34   : }

	mov	eax, esi
	pop	esi
	ret	4
??0CvLuaArgsHandle@@QAE@I@Z ENDP			; CvLuaArgsHandle::CvLuaArgsHandle
_TEXT	ENDS
PUBLIC	??1CvLuaArgsHandle@@QAE@XZ			; CvLuaArgsHandle::~CvLuaArgsHandle
; Function compile flags: /Ogtpy
;	COMDAT ??1CvLuaArgsHandle@@QAE@XZ
_TEXT	SEGMENT
??1CvLuaArgsHandle@@QAE@XZ PROC				; CvLuaArgsHandle::~CvLuaArgsHandle, COMDAT
; _this$ = ecx

; 37   : {

	push	esi
	mov	esi, ecx

; 38   : 	ICvEngineScriptSystem1* pkScriptSystem = gDLL->GetScriptSystem();

	mov	ecx, DWORD PTR ?gGlobals@@3VCvGlobals@@A+8596
	mov	eax, DWORD PTR [ecx]
	mov	edx, DWORD PTR [eax+12]
	call	edx

; 39   : 	if(pkScriptSystem)

	test	eax, eax
	je	SHORT $LN1@CvLuaArgsH@3

; 40   : 	{
; 41   : 		pkScriptSystem->DestroyArgs(m_Ptr);

	mov	ecx, DWORD PTR [esi]
	mov	edx, DWORD PTR [eax]
	mov	edx, DWORD PTR [edx+20]
	push	ecx
	mov	ecx, eax
	call	edx
$LN1@CvLuaArgsH@3:
	pop	esi

; 42   : 	}
; 43   : }

	ret	0
??1CvLuaArgsHandle@@QAE@XZ ENDP				; CvLuaArgsHandle::~CvLuaArgsHandle
_TEXT	ENDS
END
