; Listing generated by Microsoft (R) Optimizing Compiler Version 15.00.30729.01 

	TITLE	c:\Users\EnormousApplePie\Documents\GitHub\Lekmod\LEKMOD_DLL\CvGameCoreDLL_Expansion2\Lua\CvLuaPlayer.cpp
	.686P
	.XMM
	include listing.inc
	.model	flat

INCLUDELIB MSVCRT
INCLUDELIB OLDNAMES

PUBLIC	?NO_QUEST_DATA@CvMinorCivQuest@@2HB		; CvMinorCivQuest::NO_QUEST_DATA
PUBLIC	?NO_TURN@CvMinorCivQuest@@2HB			; CvMinorCivQuest::NO_TURN
CONST	SEGMENT
$SG226963 DB	'InitCity', 00H
$SG230154 DB	00H
$SG230171 DB	00H
$SG230181 DB	00H
$SG226964 DB	'AcquireCity', 00H
$SG226965 DB	'KillCities', 00H
$SG230211 DB	00H
$SG226966 DB	'GetNewCityName', 00H
$SG230245 DB	00H
$SG226967 DB	'InitUnit', 00H
$SG230246 DB	00H
$SG230251 DB	00H
$SG230256 DB	00H
$SG226968 DB	'InitUnitWithNameOffset', 00H
$SG230261 DB	00H
$SG226969 DB	'DisbandUnit', 00H
$SG226970 DB	'AddFreeUnit', 00H
$SG226971 DB	'ChooseTech', 00H
$SG230262 DB	00H
$SG226972 DB	'KillUnits', 00H
$SG230267 DB	00H
$SG230272 DB	00H
$SG226973 DB	'IsHuman', 00H
$SG226974 DB	'IsBarbarian', 00H
$SG226975 DB	'GetName', 00H
$SG226976 DB	'GetNameKey', 00H
$SG230282 DB	00H
$SG226977 DB	'GetNickName', 00H
$SG226978 DB	'GetCivilizationDescription', 00H
$SG230306 DB	00H
$SG226979 DB	'GetCivilizationDescriptionKey', 00H
$SG230308 DB	00H
$SG230318 DB	00H
$SG226980 DB	'GetCivilizationShortDescription', 00H
$SG226981 DB	'GetCivilizationShortDescriptionKey', 00H
$SG230336 DB	00H
$SG226982 DB	'GetCivilizationAdjective', 00H
$SG230338 DB	00H
$SG230348 DB	00H
$SG230374 DB	00H
$SG226983 DB	'GetCivilizationAdjectiveKey', 00H
$SG226984 DB	'IsWhiteFlag', 00H
$SG226985 DB	'GetStateReligionName', 00H
$SG230375 DB	00H
$SG230380 DB	00H
$SG230385 DB	00H
$SG226986 DB	'GetStateReligionKey', 00H
$SG226987 DB	'GetWorstEnemyName', 00H
$SG230395 DB	00H
$SG230398 DB	00H
$SG226988 DB	'GetArtStyleType', 00H
$SG226989 DB	'CountCityFeatures', 00H
$SG230400 DB	00H
$SG236197 DB	00H
$SG226990 DB	'CountNumBuildings', 00H
	ORG $+2
$SG226991 DB	'GetNumWorldWonders', 00H
	ORG $+1
$SG226992 DB	'ChangeNumWorldWonders', 00H
	ORG $+2
$SG226993 DB	'GetNumWondersBeatenTo', 00H
	ORG $+2
$SG226994 DB	'SetNumWondersBeatenTo', 00H
	ORG $+2
$SG226995 DB	'IsCapitalConnectedToCity', 00H
	ORG $+3
$SG226996 DB	'IsTurnActive', 00H
	ORG $+3
$SG226997 DB	'IsSimultaneousTurns', 00H
$SG226998 DB	'FindNewCapital', 00H
	ORG $+1
$SG226999 DB	'CanRaze', 00H
$SG227000 DB	'Raze', 00H
	ORG $+3
$SG227001 DB	'Disband', 00H
$SG227002 DB	'CanReceiveGoody', 00H
$SG227003 DB	'ReceiveGoody', 00H
	ORG $+3
$SG227004 DB	'DoGoody', 00H
$SG227005 DB	'CanGetGoody', 00H
$SG227006 DB	'CanFound', 00H
	ORG $+3
$SG227007 DB	'Found', 00H
	ORG $+2
$SG227008 DB	'CanTrain', 00H
	ORG $+3
$SG227009 DB	'CanConstruct', 00H
	ORG $+3
$SG227010 DB	'CanCreate', 00H
	ORG $+2
$SG227011 DB	'CanPrepare', 00H
	ORG $+1
$SG227012 DB	'CanMaintain', 00H
$SG227013 DB	'IsCanPurchaseAnyCity', 00H
	ORG $+3
$SG227014 DB	'GetFaithPurchaseType', 00H
	ORG $+3
$SG227015 DB	'SetFaithPurchaseType', 00H
	ORG $+3
$SG227016 DB	'GetFaithPurchaseIndex', 00H
	ORG $+2
$SG227017 DB	'SetFaithPurchaseIndex', 00H
	ORG $+2
$SG227018 DB	'IsProductionMaxedUnitClass', 00H
	ORG $+1
$SG227019 DB	'IsProductionMaxedBuildingClass', 00H
	ORG $+1
$SG227020 DB	'IsProductionMaxedProject', 00H
	ORG $+3
$SG227021 DB	'GetUnitProductionNeeded', 00H
$SG227022 DB	'GetBuildingProductionNeeded', 00H
$SG227023 DB	'GetProjectProductionNeeded', 00H
	ORG $+1
$SG227024 DB	'HasReadyUnit', 00H
	ORG $+3
$SG227025 DB	'GetFirstReadyUnit', 00H
	ORG $+2
$SG227026 DB	'GetFirstReadyUnitPlot', 00H
	ORG $+2
$SG227027 DB	'HasBusyUnit', 00H
$SG227028 DB	'HasBusyMovingUnit', 00H
	ORG $+2
$SG227029 DB	'GetBuildingClassPrereqBuilding', 00H
	ORG $+1
$SG227030 DB	'RemoveBuildingClass', 00H
$SG227031 DB	'CanBuild', 00H
	ORG $+3
$SG227032 DB	'IsBuildBlockedByFeature', 00H
$SG227033 DB	'GetBestRoute', 00H
	ORG $+3
$SG227034 DB	'GetImprovementUpgradeRate', 00H
	ORG $+2
$SG227035 DB	'CalculateTotalYield', 00H
$SG227036 DB	'CalculateUnitCost', 00H
	ORG $+2
$SG227037 DB	'CalculateUnitSupply', 00H
$SG227038 DB	'GetNumMaintenanceFreeUnits', 00H
	ORG $+1
$SG227039 DB	'GetBuildingGoldMaintenance', 00H
	ORG $+1
$SG227040 DB	'SetBaseBuildingGoldMaintenance', 00H
	ORG $+1
$SG227041 DB	'ChangeBaseBuildingGoldMaintenance', 00H
	ORG $+2
$SG227042 DB	'GetImprovementGoldMaintenance', 00H
	ORG $+2
$SG227043 DB	'CalculateGoldRate', 00H
	ORG $+2
$SG227044 DB	'CalculateGoldRateTimes100', 00H
	ORG $+2
$SG227045 DB	'CalculateGrossGoldTimes100', 00H
	ORG $+1
$SG227046 DB	'CalculateInflatedCosts', 00H
	ORG $+1
$SG227047 DB	'CalculateResearchModifier', 00H
	ORG $+2
$SG227048 DB	'IsResearch', 00H
	ORG $+1
$SG227049 DB	'CanEverResearch', 00H
$SG227050 DB	'CanResearch', 00H
$SG227051 DB	'CanResearchForFree', 00H
	ORG $+1
$SG227052 DB	'GetCurrentResearch', 00H
	ORG $+1
$SG227053 DB	'IsCurrentResearchRepeat', 00H
$SG227054 DB	'IsNoResearchAvailable', 00H
	ORG $+2
$SG227055 DB	'GetResearchTurnsLeft', 00H
	ORG $+3
$SG227056 DB	'GetResearchCost', 00H
$SG227057 DB	'GetResearchProgress', 00H
$SG227058 DB	'UnitsRequiredForGoldenAge', 00H
	ORG $+2
$SG227059 DB	'UnitsGoldenAgeCapable', 00H
	ORG $+2
$SG227060 DB	'UnitsGoldenAgeReady', 00H
$SG227061 DB	'GreatGeneralThreshold', 00H
	ORG $+2
$SG227062 DB	'GreatAdmiralThreshold', 00H
	ORG $+2
$SG227063 DB	'SpecialistYield', 00H
$SG227064 DB	'SetGreatGeneralCombatBonus', 00H
	ORG $+1
$SG227065 DB	'GetGreatGeneralCombatBonus', 00H
	ORG $+1
$SG227066 DB	'GetStartingPlot', 00H
$SG227067 DB	'SetStartingPlot', 00H
$SG227068 DB	'GetTotalPopulation', 00H
	ORG $+1
$SG227069 DB	'GetAveragePopulation', 00H
	ORG $+3
$SG227070 DB	'GetRealPopulation', 00H
	ORG $+2
$SG227071 DB	'GetNewCityExtraPopulation', 00H
	ORG $+2
$SG227072 DB	'ChangeNewCityExtraPopulation', 00H
	ORG $+3
$SG227073 DB	'GetTotalLand', 00H
	ORG $+3
$SG227074 DB	'GetTotalLandScored', 00H
	ORG $+1
$SG227075 DB	'GetGold', 00H
$SG227076 DB	'SetGold', 00H
$SG227077 DB	'ChangeGold', 00H
	ORG $+1
$SG227078 DB	'CalculateGrossGold', 00H
	ORG $+1
$SG227079 DB	'GetLifetimeGrossGold', 00H
	ORG $+3
$SG227080 DB	'GetGoldFromCitiesTimes100', 00H
	ORG $+2
$SG227081 DB	'GetGoldFromCitiesMinusTradeRoutesTimes100', 00H
	ORG $+2
$SG227082 DB	'GetGoldPerTurnFromDiplomacy', 00H
$SG227083 DB	'GetCityConnectionRouteGoldTimes100', 00H
	ORG $+1
$SG227084 DB	'GetCityConnectionGold', 00H
	ORG $+2
$SG227085 DB	'GetCityConnectionGoldTimes100', 00H
	ORG $+2
$SG227086 DB	'GetGoldPerTurnFromReligion', 00H
	ORG $+1
$SG227087 DB	'GetGoldPerTurnFromTradeRoutes', 00H
	ORG $+2
$SG227088 DB	'GetGoldPerTurnFromTradeRoutesTimes100', 00H
	ORG $+2
$SG227089 DB	'GetGoldPerTurnFromTraits', 00H
	ORG $+3
$SG227090 DB	'GetTotalJONSCulturePerTurnTimes100', 00H
	ORG $+1
$SG227091 DB	'GetJONSCulturePerTurnFromCitiesTimes100', 00H
$SG227092 DB	'GetJONSCulturePerTurnFromExcessHappinessTimes100', 00H
	ORG $+3
$SG227093 DB	'GetCulturePerTurnFromReligionTimes100', 00H
	ORG $+2
$SG227094 DB	'GetCulturePerTurnFromBonusTurnsTimes100', 00H
$SG227095 DB	'GetJONSCultureTimes100', 00H
	ORG $+1
$SG227096 DB	'SetJONSCultureTimes100', 00H
	ORG $+1
$SG227097 DB	'ChangeJONSCultureTimes100', 00H
	ORG $+2
$SG227098 DB	'GetJONSCultureEverGeneratedTimes100', 00H
$SG227099 DB	'GetTotalJONSCulturePerTurn', 00H
	ORG $+1
$SG227100 DB	'GetJONSCulturePerTurnFromCities', 00H
$SG227101 DB	'GetJONSCulturePerTurnFromExcessHappiness', 00H
	ORG $+3
$SG227102 DB	'GetJONSCulturePerTurnFromTraits', 00H
$SG227103 DB	'GetCultureWonderMultiplier', 00H
	ORG $+1
$SG227104 DB	'GetJONSCulturePerTurnForFree', 00H
	ORG $+3
$SG227105 DB	'ChangeJONSCulturePerTurnForFree', 00H
$SG227106 DB	'GetJONSCulturePerTurnFromMinorCivs', 00H
	ORG $+1
$SG227107 DB	'ChangeJONSCulturePerTurnFromMinorCivs', 00H
	ORG $+2
$SG227108 DB	'GetCulturePerTurnFromMinorCivs', 00H
	ORG $+1
$SG227109 DB	'GetCulturePerTurnFromMinor', 00H
	ORG $+1
$SG227110 DB	'GetCulturePerTurnFromReligion', 00H
	ORG $+2
$SG227111 DB	'GetCulturePerTurnFromBonusTurns', 00H
$SG227112 DB	'GetCultureCityModifier', 00H
	ORG $+1
$SG227113 DB	'GetJONSCulture', 00H
	ORG $+1
$SG227114 DB	'SetJONSCulture', 00H
	ORG $+1
$SG227115 DB	'ChangeJONSCulture', 00H
	ORG $+2
$SG227116 DB	'GetJONSCultureEverGenerated', 00H
$SG227117 DB	'GetLastTurnLifetimeCulture', 00H
	ORG $+1
$SG227118 DB	'GetInfluenceOn', 00H
	ORG $+1
$SG227119 DB	'GetLastTurnInfluenceOn', 00H
	ORG $+1
$SG227120 DB	'GetInfluencePerTurn', 00H
$SG227121 DB	'GetInfluenceLevel', 00H
	ORG $+2
$SG227122 DB	'GetInfluenceTrend', 00H
	ORG $+2
$SG227123 DB	'GetTurnsToInfluential', 00H
	ORG $+2
$SG227124 DB	'GetNumCivsInfluentialOn', 00H
$SG227125 DB	'GetNumCivsToBeInfluentialOn', 00H
$SG227126 DB	'GetInfluenceTradeRouteScienceBonus', 00H
	ORG $+1
$SG227127 DB	'GetInfluenceCityStateSpyRankBonus', 00H
	ORG $+2
$SG227128 DB	'GetInfluenceMajorCivSpyRankBonus', 00H
	ORG $+3
$SG227129 DB	'GetInfluenceSpyRankTooltip', 00H
	ORG $+1
$SG227130 DB	'GetTourism', 00H
	ORG $+1
$SG227131 DB	'GetTourismModifierWith', 00H
	ORG $+1
$SG227132 DB	'GetTourismModifierWithTooltip', 00H
	ORG $+2
$SG227133 DB	'GetPublicOpinionType', 00H
	ORG $+3
$SG227134 DB	'GetPublicOpinionPreferredIdeology', 00H
	ORG $+2
$SG227135 DB	'GetPublicOpinionTooltip', 00H
$SG227136 DB	'GetPublicOpinionUnhappiness', 00H
$SG227137 DB	'GetPublicOpinionUnhappinessTooltip', 00H
	ORG $+1
$SG227138 DB	'HasAvailableGreatWorkSlot', 00H
	ORG $+2
$SG227139 DB	'GetCityOfClosestGreatWorkSlot', 00H
	ORG $+2
$SG227140 DB	'GetBuildingOfClosestGreatWorkSlot', 00H
	ORG $+2
$SG227141 DB	'GetNextDigCompletePlot', 00H
	ORG $+1
$SG227142 DB	'GetWrittenArtifactCulture', 00H
	ORG $+2
$SG227143 DB	'GetNumGreatWorks', 00H
	ORG $+3
$SG227144 DB	'GetNumGreatWorkSlots', 00H
	ORG $+3
$SG227145 DB	'GetFaith', 00H
	ORG $+3
$SG227146 DB	'SetFaith', 00H
	ORG $+3
$SG227147 DB	'ChangeFaith', 00H
$SG227148 DB	'GetTotalFaithPerTurn', 00H
	ORG $+3
$SG227149 DB	'GetFaithPerTurnFromCities', 00H
	ORG $+2
$SG227150 DB	'GetFaithPerTurnFromMinorCivs', 00H
	ORG $+3
$SG227151 DB	'GetFaithPerTurnFromReligion', 00H
$SG227152 DB	'CanFaithGiftMinors', 00H
	ORG $+1
$SG227153 DB	'HasCreatedPantheon', 00H
	ORG $+1
$SG227154 DB	'GetBeliefInPantheon', 00H
$SG227155 DB	'HasCreatedReligion', 00H
	ORG $+1
$SG227156 DB	'CanCreatePantheon', 00H
	ORG $+2
$SG227157 DB	'GetReligionCreatedByPlayer', 00H
	ORG $+1
$SG227158 DB	'GetFoundedReligionEnemyCityCombatMod', 00H
	ORG $+3
$SG227159 DB	'GetFoundedReligionFriendlyCityCombatMod', 00H
$SG227160 DB	'GetMinimumFaithNextGreatProphet', 00H
$SG227161 DB	'HasReligionInMostCities', 00H
$SG227162 DB	'DoesUnitPassFaithPurchaseCheck', 00H
	ORG $+1
$SG227163 DB	'GetHappiness', 00H
	ORG $+3
$SG227164 DB	'SetHappiness', 00H
	ORG $+3
$SG227165 DB	'GetExcessHappiness', 00H
	ORG $+1
$SG227166 DB	'IsEmpireUnhappy', 00H
$SG227167 DB	'IsEmpireVeryUnhappy', 00H
$SG227168 DB	'IsEmpireSuperUnhappy', 00H
	ORG $+3
$SG227169 DB	'GetHappinessFromPolicies', 00H
	ORG $+3
$SG227170 DB	'GetHappinessFromCities', 00H
	ORG $+1
$SG227171 DB	'GetHappinessFromBuildings', 00H
	ORG $+2
$SG227172 DB	'GetExtraHappinessPerCity', 00H
	ORG $+3
$SG227173 DB	'ChangeExtraHappinessPerCity', 00H
$SG227174 DB	'GetHappinessFromResources', 00H
	ORG $+2
$SG227175 DB	'GetHappinessFromResourceVariety', 00H
$SG227176 DB	'GetExtraHappinessPerLuxury', 00H
	ORG $+1
$SG227177 DB	'GetHappinessFromReligion', 00H
	ORG $+3
$SG227178 DB	'GetHappinessFromNaturalWonders', 00H
	ORG $+1
$SG227179 DB	'GetHappinessFromLeagues', 00H
$SG227180 DB	'GetUnhappiness', 00H
	ORG $+1
$SG227181 DB	'GetUnhappinessForecast', 00H
	ORG $+1
$SG227182 DB	'GetUnhappinessFromCityForUI', 00H
$SG227183 DB	'GetUnhappinessFromCityCount', 00H
$SG227184 DB	'GetUnhappinessFromCapturedCityCount', 00H
$SG227185 DB	'GetUnhappinessFromCityPopulation', 00H
	ORG $+3
$SG227186 DB	'GetUnhappinessFromCitySpecialists', 00H
	ORG $+2
$SG227187 DB	'GetUnhappinessFromOccupiedCities', 00H
	ORG $+3
$SG227188 DB	'GetUnhappinessFromPuppetCityPopulation', 00H
	ORG $+1
$SG227189 DB	'GetUnhappinessFromPublicOpinion', 00H
$SG227190 DB	'GetUnhappinessFromUnits', 00H
$SG227191 DB	'ChangeUnhappinessFromUnits', 00H
	ORG $+1
$SG227192 DB	'GetUnhappinessMod', 00H
	ORG $+2
$SG227193 DB	'GetCityCountUnhappinessMod', 00H
	ORG $+1
$SG227194 DB	'GetOccupiedPopulationUnhappinessMod', 00H
$SG227195 DB	'GetCapitalUnhappinessMod', 00H
	ORG $+3
$SG227196 DB	'GetTraitCityUnhappinessMod', 00H
	ORG $+1
$SG227197 DB	'GetTraitPopUnhappinessMod', 00H
	ORG $+2
$SG227198 DB	'IsHalfSpecialistUnhappiness', 00H
$SG227199 DB	'GetHappinessPerGarrisonedUnit', 00H
	ORG $+2
$SG227200 DB	'SetHappinessPerGarrisonedUnit', 00H
	ORG $+2
$SG227201 DB	'ChangeHappinessPerGarrisonedUnit', 00H
	ORG $+3
$SG227202 DB	'GetHappinessFromTradeRoutes', 00H
$SG227203 DB	'GetHappinessPerTradeRoute', 00H
	ORG $+2
$SG227204 DB	'SetHappinessPerTradeRoute', 00H
	ORG $+2
$SG227205 DB	'ChangeHappinessPerTradeRoute', 00H
	ORG $+3
$SG227206 DB	'GetCityConnectionTradeRouteGoldModifier', 00H
$SG227207 DB	'GetHappinessFromMinorCivs', 00H
	ORG $+2
$SG227208 DB	'GetHappinessFromMinor', 00H
	ORG $+2
$SG227209 DB	'GetBarbarianCombatBonus', 00H
$SG227210 DB	'SetBarbarianCombatBonus', 00H
$SG227211 DB	'ChangeBarbarianCombatBonus', 00H
	ORG $+1
$SG227212 DB	'GetCombatBonusVsHigherTech', 00H
	ORG $+1
$SG227213 DB	'GetCombatBonusVsLargerCiv', 00H
	ORG $+2
$SG227214 DB	'GetCombatBonusVsSmallerCiv', 00H
	ORG $+1
$SG227215 DB	'GetGarrisonedCityRangeStrikeModifier', 00H
	ORG $+3
$SG227216 DB	'ChangeGarrisonedCityRangeStrikeModifier', 00H
$SG227217 DB	'IsAlwaysSeeBarbCamps', 00H
	ORG $+3
$SG227218 DB	'SetAlwaysSeeBarbCampsCount', 00H
	ORG $+1
$SG227219 DB	'ChangeAlwaysSeeBarbCampsCount', 00H
	ORG $+2
$SG227220 DB	'IsPolicyBlocked', 00H
$SG227221 DB	'IsPolicyBranchBlocked', 00H
	ORG $+2
$SG227222 DB	'IsPolicyBranchUnlocked', 00H
	ORG $+1
$SG227223 DB	'SetPolicyBranchUnlocked', 00H
$SG227224 DB	'GetNumPolicyBranchesUnlocked', 00H
	ORG $+3
$SG227225 DB	'GetPolicyBranchChosen', 00H
	ORG $+2
$SG227226 DB	'GetNumPolicyBranchesAllowed', 00H
$SG227227 DB	'GetNumPolicies', 00H
	ORG $+1
$SG227228 DB	'GetNumPoliciesInBranch', 00H
	ORG $+1
$SG227229 DB	'HasPolicy', 00H
	ORG $+2
$SG227230 DB	'SetHasPolicy', 00H
	ORG $+3
$SG227231 DB	'GetNextPolicyCost', 00H
	ORG $+2
$SG227232 DB	'CanAdoptPolicy', 00H
	ORG $+1
$SG227233 DB	'DoAdoptPolicy', 00H
	ORG $+2
$SG227234 DB	'CanUnlockPolicyBranch', 00H
	ORG $+2
$SG227235 DB	'GetDominantPolicyBranchForTitle', 00H
$SG227236 DB	'GetLateGamePolicyTree', 00H
	ORG $+2
$SG227237 DB	'GetBranchPicked1', 00H
	ORG $+3
$SG227238 DB	'GetBranchPicked2', 00H
	ORG $+3
$SG227239 DB	'GetBranchPicked3', 00H
	ORG $+3
$SG227240 DB	'GetPolicyCatchSpiesModifier', 00H
$SG227241 DB	'GetNumPolicyBranchesFinished', 00H
	ORG $+3
$SG227242 DB	'IsPolicyBranchFinished', 00H
	ORG $+1
$SG227243 DB	'GetAvailableTenets', 00H
	ORG $+1
$SG227244 DB	'GetTenet', 00H
	ORG $+3
$SG227245 DB	'IsAnarchy', 00H
	ORG $+2
$SG227246 DB	'GetAnarchyNumTurns', 00H
	ORG $+1
$SG227247 DB	'SetAnarchyNumTurns', 00H
	ORG $+1
$SG227248 DB	'ChangeAnarchyNumTurns', 00H
	ORG $+2
$SG227249 DB	'GetAdvancedStartPoints', 00H
	ORG $+1
$SG227250 DB	'SetAdvancedStartPoints', 00H
	ORG $+1
$SG227251 DB	'ChangeAdvancedStartPoints', 00H
	ORG $+2
$SG227252 DB	'GetAdvancedStartUnitCost', 00H
	ORG $+3
$SG227253 DB	'GetAdvancedStartCityCost', 00H
	ORG $+3
$SG227254 DB	'GetAdvancedStartPopCost', 00H
$SG227255 DB	'GetAdvancedStartBuildingCost', 00H
	ORG $+3
$SG227256 DB	'GetAdvancedStartImprovementCost', 00H
$SG227257 DB	'GetAdvancedStartRouteCost', 00H
	ORG $+2
$SG227258 DB	'GetAdvancedStartTechCost', 00H
	ORG $+3
$SG227259 DB	'GetAdvancedStartVisibilityCost', 00H
	ORG $+1
$SG227260 DB	'GetAttackBonusTurns', 00H
$SG227261 DB	'GetCultureBonusTurns', 00H
	ORG $+3
$SG227262 DB	'GetTourismBonusTurns', 00H
	ORG $+3
$SG227263 DB	'GetGoldenAgeProgressThreshold', 00H
	ORG $+2
$SG227264 DB	'GetGoldenAgeProgressMeter', 00H
	ORG $+2
$SG227265 DB	'SetGoldenAgeProgressMeter', 00H
	ORG $+2
$SG227266 DB	'ChangeGoldenAgeProgressMeter', 00H
	ORG $+3
$SG227267 DB	'GetNumGoldenAges', 00H
	ORG $+3
$SG227268 DB	'SetNumGoldenAges', 00H
	ORG $+3
$SG227269 DB	'ChangeNumGoldenAges', 00H
$SG227270 DB	'GetGoldenAgeTurns', 00H
	ORG $+2
$SG227271 DB	'GetGoldenAgeLength', 00H
	ORG $+1
$SG227272 DB	'IsGoldenAge', 00H
$SG227273 DB	'ChangeGoldenAgeTurns', 00H
	ORG $+3
$SG227274 DB	'GetNumUnitGoldenAges', 00H
	ORG $+3
$SG227275 DB	'ChangeNumUnitGoldenAges', 00H
$SG227276 DB	'GetStrikeTurns', 00H
	ORG $+1
$SG227277 DB	'GetGoldenAgeModifier', 00H
	ORG $+3
$SG227278 DB	'GetGoldenAgeTourismModifier', 00H
$SG227279 DB	'GetGoldenAgeGreatWriterRateModifier', 00H
$SG227280 DB	'GetGoldenAgeGreatArtistRateModifier', 00H
$SG227281 DB	'GetGoldenAgeGreatMusicianRateModifier', 00H
	ORG $+2
$SG227282 DB	'GetHurryModifier', 00H
	ORG $+3
$SG227283 DB	'CreateGreatGeneral', 00H
	ORG $+1
$SG227284 DB	'GetGreatPeopleCreated', 00H
	ORG $+2
$SG227285 DB	'GetGreatGeneralsCreated', 00H
$SG227286 DB	'GetGreatPeopleThresholdModifier', 00H
$SG227287 DB	'GetGreatGeneralsThresholdModifier', 00H
	ORG $+2
$SG227288 DB	'GetGreatAdmiralsThresholdModifier', 00H
	ORG $+2
$SG227289 DB	'GetGreatPeopleRateModifier', 00H
	ORG $+1
$SG227290 DB	'GetGreatGeneralRateModifier', 00H
$SG227291 DB	'GetDomesticGreatGeneralRateModifier', 00H
$SG227292 DB	'GetGreatWriterRateModifier', 00H
	ORG $+1
$SG227293 DB	'GetGreatArtistRateModifier', 00H
	ORG $+1
$SG227294 DB	'GetGreatMusicianRateModifier', 00H
	ORG $+3
$SG227295 DB	'GetGreatScientistRateModifier', 00H
	ORG $+2
$SG227296 DB	'GetGreatMerchantRateModifier', 00H
	ORG $+3
$SG227297 DB	'GetGreatEngineerRateModifier', 00H
	ORG $+3
$SG227298 DB	'GetPolicyGreatPeopleRateModifier', 00H
	ORG $+3
$SG227299 DB	'GetPolicyGreatWriterRateModifier', 00H
	ORG $+3
$SG227300 DB	'GetPolicyGreatArtistRateModifier', 00H
	ORG $+3
$SG227301 DB	'GetPolicyGreatMusicianRateModifier', 00H
	ORG $+1
$SG227302 DB	'GetPolicyGreatScientistRateModifier', 00H
$SG227303 DB	'GetPolicyGreatMerchantRateModifier', 00H
	ORG $+1
$SG227304 DB	'GetPolicyGreatEngineerRateModifier', 00H
	ORG $+1
$SG227305 DB	'GetProductionModifier', 00H
	ORG $+2
$SG227306 DB	'GetUnitProductionModifier', 00H
	ORG $+2
$SG227307 DB	'GetBuildingProductionModifier', 00H
	ORG $+2
$SG227308 DB	'GetProjectProductionModifier', 00H
	ORG $+3
$SG227309 DB	'GetSpecialistProductionModifier', 00H
$SG227310 DB	'GetMaxGlobalBuildingProductionModifier', 00H
	ORG $+1
$SG227311 DB	'GetMaxTeamBuildingProductionModifier', 00H
	ORG $+3
$SG227312 DB	'GetMaxPlayerBuildingProductionModifier', 00H
	ORG $+1
$SG227313 DB	'GetFreeExperience', 00H
	ORG $+2
$SG227314 DB	'GetFeatureProductionModifier', 00H
	ORG $+3
$SG227315 DB	'GetWorkerSpeedModifier', 00H
	ORG $+1
$SG227316 DB	'GetImprovementUpgradeRateModifier', 00H
	ORG $+2
$SG227317 DB	'GetMilitaryProductionModifier', 00H
	ORG $+2
$SG227318 DB	'GetSpaceProductionModifier', 00H
	ORG $+1
$SG227319 DB	'GetSettlerProductionModifier', 00H
	ORG $+3
$SG227320 DB	'GetCapitalSettlerProductionModifier', 00H
$SG227321 DB	'GetWonderProductionModifier', 00H
$SG227322 DB	'GetUnitProductionMaintenanceMod', 00H
$SG227323 DB	'GetNumUnitsSupplied', 00H
$SG227324 DB	'GetNumUnitsSuppliedByHandicap', 00H
	ORG $+2
$SG227325 DB	'GetNumUnitsSuppliedByCities', 00H
$SG227326 DB	'GetNumUnitsSuppliedByPopulation', 00H
$SG227327 DB	'GetNumUnitsOutOfSupply', 00H
	ORG $+1
$SG227328 DB	'GetCityDefenseModifier', 00H
	ORG $+1
$SG227329 DB	'GetNumNukeUnits', 00H
$SG227330 DB	'GetNumOutsideUnits', 00H
	ORG $+1
$SG227331 DB	'GetGoldPerUnit', 00H
	ORG $+1
$SG227332 DB	'ChangeGoldPerUnitTimes100', 00H
	ORG $+2
$SG227333 DB	'GetGoldPerMilitaryUnit', 00H
	ORG $+1
$SG227334 DB	'GetExtraUnitCost', 00H
	ORG $+3
$SG227335 DB	'GetNumMilitaryUnits', 00H
$SG227336 DB	'GetHappyPerMilitaryUnit', 00H
$SG227337 DB	'IsMilitaryFoodProduction', 00H
	ORG $+3
$SG227338 DB	'GetHighestUnitLevel', 00H
$SG227339 DB	'GetConscriptCount', 00H
	ORG $+2
$SG227340 DB	'SetConscriptCount', 00H
	ORG $+2
$SG227341 DB	'ChangeConscriptCount', 00H
	ORG $+3
$SG227342 DB	'GetMaxConscript', 00H
$SG227343 DB	'GetOverflowResearch', 00H
$SG227344 DB	'GetExpInBorderModifier', 00H
	ORG $+1
$SG227345 DB	'GetLevelExperienceModifier', 00H
	ORG $+1
$SG227346 DB	'GetCultureBombTimer', 00H
$SG227347 DB	'GetConversionTimer', 00H
	ORG $+1
$SG227348 DB	'GetCapitalCity', 00H
	ORG $+1
$SG227349 DB	'IsHasLostCapital', 00H
	ORG $+3
$SG227350 DB	'GetCitiesLost', 00H
	ORG $+2
$SG227351 DB	'GetPower', 00H
	ORG $+3
$SG227352 DB	'GetMilitaryMight', 00H
	ORG $+3
$SG227353 DB	'GetTotalTimePlayed', 00H
	ORG $+1
$SG227354 DB	'GetScore', 00H
	ORG $+3
$SG227355 DB	'GetScoreFromCities', 00H
	ORG $+1
$SG227356 DB	'GetScoreFromPopulation', 00H
	ORG $+1
$SG227357 DB	'GetScoreFromLand', 00H
	ORG $+3
$SG227358 DB	'GetScoreFromWonders', 00H
$SG227359 DB	'GetScoreFromTechs', 00H
	ORG $+2
$SG227360 DB	'GetScoreFromFutureTech', 00H
	ORG $+1
$SG227361 DB	'ChangeScoreFromFutureTech', 00H
	ORG $+2
$SG227362 DB	'GetScoreFromPolicies', 00H
	ORG $+3
$SG227363 DB	'GetScoreFromGreatWorks', 00H
	ORG $+1
$SG227364 DB	'GetScoreFromReligion', 00H
	ORG $+3
$SG227365 DB	'GetScoreFromScenario1', 00H
	ORG $+2
$SG227366 DB	'ChangeScoreFromScenario1', 00H
	ORG $+3
$SG227367 DB	'GetScoreFromScenario2', 00H
	ORG $+2
$SG227368 DB	'ChangeScoreFromScenario2', 00H
	ORG $+3
$SG227369 DB	'GetScoreFromScenario3', 00H
	ORG $+2
$SG227370 DB	'ChangeScoreFromScenario3', 00H
	ORG $+3
$SG227371 DB	'GetScoreFromScenario4', 00H
	ORG $+2
$SG227372 DB	'ChangeScoreFromScenario4', 00H
	ORG $+3
$SG227373 DB	'IsGoldenAgeCultureBonusDisabled', 00H
$SG227374 DB	'IsMinorCiv', 00H
	ORG $+1
$SG227375 DB	'GetMinorCivType', 00H
$SG227376 DB	'GetMinorCivTrait', 00H
	ORG $+3
$SG227377 DB	'GetPersonality', 00H
	ORG $+1
$SG227378 DB	'IsMinorCivHasUniqueUnit', 00H
$SG227379 DB	'GetMinorCivUniqueUnit', 00H
	ORG $+2
$SG227380 DB	'SetMinorCivUniqueUnit', 00H
	ORG $+2
$SG227381 DB	'GetAlly', 00H
$SG227382 DB	'GetAlliedTurns', 00H
	ORG $+1
$SG227383 DB	'IsFriends', 00H
	ORG $+2
$SG227384 DB	'IsAllies', 00H
	ORG $+3
$SG227385 DB	'IsPlayerHasOpenBorders', 00H
	ORG $+1
$SG227386 DB	'IsPlayerHasOpenBordersAutomatically', 00H
$SG227387 DB	'GetFriendshipChangePerTurnTimes100', 00H
	ORG $+1
$SG227388 DB	'GetMinorCivFriendshipWithMajor', 00H
	ORG $+1
$SG227389 DB	'GetMinorCivBaseFriendshipWithMajor', 00H
	ORG $+1
$SG227390 DB	'ChangeMinorCivFriendshipWithMajor', 00H
	ORG $+2
$SG227391 DB	'GetMinorCivFriendshipAnchorWithMajor', 00H
	ORG $+3
$SG227392 DB	'GetMinorCivFriendshipLevelWithMajor', 00H
$SG227393 DB	'GetActiveQuestForPlayer', 00H
$SG227394 DB	'IsMinorCivActiveQuestForPlayer', 00H
	ORG $+1
$SG227395 DB	'GetMinorCivNumActiveQuestsForPlayer', 00H
$SG227396 DB	'IsMinorCivDisplayedQuestForPlayer', 00H
	ORG $+2
$SG227397 DB	'GetMinorCivNumDisplayedQuestsForPlayer', 00H
	ORG $+1
$SG227398 DB	'GetQuestData1', 00H
	ORG $+2
$SG227399 DB	'GetQuestData2', 00H
	ORG $+2
$SG227400 DB	'GetQuestTurnsRemaining', 00H
	ORG $+1
$SG227401 DB	'IsMinorCivContestLeader', 00H
$SG227402 DB	'GetMinorCivContestValueForLeader', 00H
	ORG $+3
$SG227403 DB	'GetMinorCivContestValueForPlayer', 00H
	ORG $+3
$SG227404 DB	'IsMinorCivUnitSpawningDisabled', 00H
	ORG $+1
$SG227405 DB	'IsMinorCivRouteEstablishedWithMajor', 00H
$SG227406 DB	'IsMinorWarQuestWithMajorActive', 00H
	ORG $+1
$SG227407 DB	'GetMinorWarQuestWithMajorRemainingCount', 00H
$SG227408 DB	'IsProxyWarActiveForMajor', 00H
	ORG $+3
$SG227409 DB	'IsThreateningBarbariansEventActiveForPlayer', 00H
$SG227410 DB	'GetTurnsSinceThreatenedByBarbarians', 00H
$SG227411 DB	'GetTurnsSinceThreatenedAnnouncement', 00H
$SG227412 DB	'GetFriendshipFromGoldGift', 00H
	ORG $+2
$SG227413 DB	'GetFriendshipFromFaithGift', 00H
	ORG $+1
$SG227414 DB	'IsSameReligionAsMajor', 00H
	ORG $+2
$SG227415 DB	'GetFriendshipNeededForNextLevel', 00H
$SG227416 DB	'GetMinorCivFavoriteMajor', 00H
	ORG $+3
$SG227417 DB	'GetMinorCivScienceFriendshipBonus', 00H
	ORG $+2
$SG227418 DB	'GetMinorCivCultureFriendshipBonus', 00H
	ORG $+2
$SG227419 DB	'GetMinorCivCurrentCultureFlatBonus', 00H
	ORG $+1
$SG227420 DB	'GetMinorCivCurrentCulturePerBuildingBonus', 00H
	ORG $+2
$SG227421 DB	'GetCurrentCultureBonus', 00H
	ORG $+1
$SG227422 DB	'GetMinorCivCurrentCultureBonus', 00H
	ORG $+1
$SG227423 DB	'GetMinorCivHappinessFriendshipBonus', 00H
$SG227424 DB	'GetMinorCivCurrentHappinessFlatBonus', 00H
	ORG $+3
$SG227425 DB	'GetMinorCivCurrentHappinessPerLuxuryBonus', 00H
	ORG $+2
$SG227426 DB	'GetMinorCivCurrentHappinessBonus', 00H
	ORG $+3
$SG227427 DB	'GetMinorCivCurrentFaithBonus', 00H
	ORG $+3
$SG227428 DB	'GetCurrentCapitalFoodBonus', 00H
	ORG $+1
$SG227429 DB	'GetCurrentOtherCityFoodBonus', 00H
	ORG $+3
$SG227430 DB	'GetCurrentSpawnEstimate', 00H
$SG227431 DB	'GetCurrentScienceFriendshipBonusTimes100', 00H
	ORG $+3
$SG227432 DB	'IsPeaceBlocked', 00H
	ORG $+1
$SG227433 DB	'IsInfluenceTooLowForPeace', 00H
	ORG $+2
$SG227434 DB	'IsMinorPermanentWar', 00H
$SG227435 DB	'GetNumMinorCivsMet', 00H
	ORG $+1
$SG227436 DB	'DoMinorLiberationByMajor', 00H
	ORG $+3
$SG227437 DB	'IsProtectedByMajor', 00H
	ORG $+1
$SG227438 DB	'CanMajorProtect', 00H
$SG227439 DB	'CanMajorStartProtection', 00H
$SG227440 DB	'CanMajorWithdrawProtection', 00H
	ORG $+1
$SG227441 DB	'GetTurnLastPledgedProtectionByMajor', 00H
$SG227442 DB	'GetTurnLastPledgeBrokenByMajor', 00H
	ORG $+1
$SG227443 DB	'GetMinorCivBullyGoldAmount', 00H
	ORG $+1
$SG227444 DB	'CanMajorBullyGold', 00H
	ORG $+2
$SG227445 DB	'GetMajorBullyGoldDetails', 00H
	ORG $+3
$SG227446 DB	'CanMajorBullyUnit', 00H
	ORG $+2
$SG227447 DB	'GetMajorBullyUnitDetails', 00H
	ORG $+3
$SG227448 DB	'CanMajorBuyout', 00H
	ORG $+1
$SG227449 DB	'GetBuyoutCost', 00H
	ORG $+2
$SG227450 DB	'CanMajorGiftTileImprovement', 00H
$SG227451 DB	'CanMajorGiftTileImprovementAtPlot', 00H
	ORG $+2
$SG227452 DB	'GetGiftTileImprovementCost', 00H
	ORG $+1
$SG227453 DB	'AddMinorCivQuestIfAble', 00H
	ORG $+1
$SG227454 DB	'GetFriendshipFromUnitGift', 00H
	ORG $+2
$SG227455 DB	'IsAlive', 00H
$SG227456 DB	'IsEverAlive', 00H
$SG227457 DB	'IsExtendedGame', 00H
	ORG $+1
$SG227458 DB	'IsFoundedFirstCity', 00H
	ORG $+1
$SG227459 DB	'GetEndTurnBlockingType', 00H
	ORG $+1
$SG227460 DB	'GetEndTurnBlockingNotificationIndex', 00H
$SG227461 DB	'HasReceivedNetTurnComplete', 00H
	ORG $+1
$SG227462 DB	'IsStrike', 00H
	ORG $+3
$SG227463 DB	'GetID', 00H
	ORG $+2
$SG227464 DB	'GetHandicapType', 00H
$SG227465 DB	'GetCivilizationType', 00H
$SG227466 DB	'GetLeaderType', 00H
	ORG $+2
$SG227467 DB	'GetPersonalityType', 00H
	ORG $+1
$SG227468 DB	'SetPersonalityType', 00H
	ORG $+1
$SG227469 DB	'GetCurrentEra', 00H
	ORG $+2
$SG227470 DB	'GetTeam', 00H
$SG227471 DB	'GetPlayerColor', 00H
	ORG $+1
$SG227472 DB	'GetPlayerColors', 00H
$SG227473 DB	'GetSeaPlotYield', 00H
$SG227474 DB	'GetYieldRateModifier', 00H
	ORG $+3
$SG227475 DB	'GetCapitalYieldRateModifier', 00H
$SG227476 DB	'GetExtraYieldThreshold', 00H
	ORG $+1
$SG227477 DB	'GetScience', 00H
	ORG $+1
$SG227478 DB	'GetScienceTimes100', 00H
	ORG $+1
$SG227479 DB	'GetScienceFromCitiesTimes100', 00H
	ORG $+3
$SG227480 DB	'GetScienceFromOtherPlayersTimes100', 00H
	ORG $+1
$SG227481 DB	'GetScienceFromHappinessTimes100', 00H
$SG227482 DB	'GetScienceFromGoldTimes100', 00H
	ORG $+1
$SG227483 DB	'GetMinorFriendshipGainBullyGoldSuccess', 00H
	ORG $+1
$SG227484 DB	'GetScienceFromResearchAgreementsTimes100', 00H
	ORG $+3
$SG227485 DB	'GetScienceFromBudgetDeficitTimes100', 00H
$SG227486 DB	'GetProximityToPlayer', 00H
	ORG $+3
$SG227487 DB	'DoUpdateProximityToPlayer', 00H
	ORG $+2
$SG227488 DB	'GetIncomingUnitType', 00H
$SG227489 DB	'GetIncomingUnitCountdown', 00H
	ORG $+3
$SG227490 DB	'IsOption', 00H
	ORG $+3
$SG227491 DB	'SetOption', 00H
	ORG $+2
$SG227492 DB	'IsPlayable', 00H
	ORG $+1
$SG227493 DB	'SetPlayable', 00H
$SG227494 DB	'GetNumResourceUsed', 00H
	ORG $+1
$SG227495 DB	'GetNumResourceTotal', 00H
$SG227496 DB	'ChangeNumResourceTotal', 00H
	ORG $+1
$SG227497 DB	'GetNumResourceAvailable', 00H
$SG227498 DB	'GetResourceExport', 00H
	ORG $+2
$SG227499 DB	'GetResourceImport', 00H
	ORG $+2
$SG227500 DB	'GetResourceFromMinors', 00H
	ORG $+2
$SG227501 DB	'GetImprovementCount', 00H
$SG227502 DB	'IsBuildingFree', 00H
	ORG $+1
$SG227503 DB	'GetUnitClassCount', 00H
	ORG $+2
$SG227504 DB	'IsUnitClassMaxedOut', 00H
$SG227505 DB	'GetUnitClassMaking', 00H
	ORG $+1
$SG227506 DB	'GetUnitClassCountPlusMaking', 00H
$SG227507 DB	'GetBuildingClassCount', 00H
	ORG $+2
$SG227508 DB	'IsBuildingClassMaxedOut', 00H
$SG227509 DB	'GetBuildingClassMaking', 00H
	ORG $+1
$SG227510 DB	'GetBuildingClassCountPlusMaking', 00H
$SG227511 DB	'GetHurryCount', 00H
	ORG $+2
$SG227512 DB	'IsHasAccessToHurry', 00H
	ORG $+1
$SG227513 DB	'IsCanHurry', 00H
	ORG $+1
$SG227514 DB	'GetHurryGoldCost', 00H
	ORG $+3
$SG227515 DB	'IsResearchingTech', 00H
	ORG $+2
$SG227516 DB	'SetResearchingTech', 00H
	ORG $+1
$SG227517 DB	'GetCombatExperience', 00H
$SG227518 DB	'ChangeCombatExperience', 00H
	ORG $+1
$SG227519 DB	'SetCombatExperience', 00H
$SG227520 DB	'GetLifetimeCombatExperience', 00H
$SG227521 DB	'GetNavalCombatExperience', 00H
	ORG $+3
$SG227522 DB	'ChangeNavalCombatExperience', 00H
$SG227523 DB	'SetNavalCombatExperience', 00H
	ORG $+3
$SG227524 DB	'GetSpecialistExtraYield', 00H
$SG227525 DB	'FindPathLength', 00H
	ORG $+1
$SG227526 DB	'GetQueuePosition', 00H
	ORG $+3
$SG227527 DB	'ClearResearchQueue', 00H
	ORG $+1
$SG227528 DB	'PushResearch', 00H
	ORG $+3
$SG227529 DB	'PopResearch', 00H
$SG227530 DB	'GetLengthResearchQueue', 00H
	ORG $+1
$SG227531 DB	'AddCityName', 00H
$SG227532 DB	'GetNumCityNames', 00H
$SG227533 DB	'GetCityName', 00H
$SG227534 DB	'Cities', 00H
	ORG $+1
$SG227535 DB	'GetNumCities', 00H
	ORG $+3
$SG227536 DB	'GetCityByID', 00H
$SG227537 DB	'Units', 00H
	ORG $+2
$SG227538 DB	'GetNumUnits', 00H
$SG227539 DB	'GetUnitByID', 00H
$SG227540 DB	'AI_updateFoundValues', 00H
	ORG $+3
$SG227541 DB	'AI_foundValue', 00H
	ORG $+2
$SG227542 DB	'GetScoreHistory', 00H
$SG227543 DB	'GetEconomyHistory', 00H
	ORG $+2
$SG227544 DB	'GetIndustryHistory', 00H
	ORG $+1
$SG227545 DB	'GetAgricultureHistory', 00H
	ORG $+2
$SG227546 DB	'GetPowerHistory', 00H
$SG227547 DB	'GetReplayData', 00H
	ORG $+2
$SG227548 DB	'SetReplayDataValue', 00H
	ORG $+1
$SG227549 DB	'GetScriptData', 00H
	ORG $+2
$SG227550 DB	'SetScriptData', 00H
	ORG $+2
$SG227551 DB	'GetNumPlots', 00H
$SG227552 DB	'GetNumPlotsBought', 00H
	ORG $+2
$SG227553 DB	'SetNumPlotsBought', 00H
	ORG $+2
$SG227554 DB	'ChangeNumPlotsBought', 00H
	ORG $+3
$SG227555 DB	'GetBuyPlotCost', 00H
	ORG $+1
$SG227556 DB	'GetPlotDanger', 00H
	ORG $+2
$SG227557 DB	'DoBeginDiploWithHuman', 00H
	ORG $+2
$SG227558 DB	'DoTradeScreenOpened', 00H
$SG227559 DB	'DoTradeScreenClosed', 00H
$SG227560 DB	'GetMajorCivApproach', 00H
$SG227561 DB	'GetApproachTowardsUsGuess', 00H
	ORG $+2
$SG227562 DB	'IsWillAcceptPeaceWithPlayer', 00H
$SG227563 DB	'IsProtectingMinor', 00H
	ORG $+2
$SG227564 DB	'IsDontSettleMessageTooSoon', 00H
	ORG $+1
$SG227565 DB	'IsStopSpyingMessageTooSoon', 00H
	ORG $+1
$SG227566 DB	'IsAskedToStopConverting', 00H
$SG227567 DB	'IsAskedToStopDigging', 00H
	ORG $+3
$SG227568 DB	'IsDoFMessageTooSoon', 00H
$SG227569 DB	'IsDoF', 00H
	ORG $+2
$SG227570 DB	'GetDoFCounter', 00H
	ORG $+2
$SG227571 DB	'IsPlayerDoFwithAnyFriend', 00H
	ORG $+3
$SG227572 DB	'IsPlayerDoFwithAnyEnemy', 00H
$SG227573 DB	'IsPlayerDenouncedFriend', 00H
$SG227574 DB	'IsPlayerDenouncedEnemy', 00H
	ORG $+1
$SG227575 DB	'IsUntrustworthyFriend', 00H
	ORG $+2
$SG227576 DB	'GetNumFriendsDenouncedBy', 00H
	ORG $+3
$SG227577 DB	'IsFriendDenouncedUs', 00H
$SG227578 DB	'GetWeDenouncedFriendCount', 00H
	ORG $+2
$SG227579 DB	'IsFriendDeclaredWarOnUs', 00H
$SG227580 DB	'GetWeDeclaredWarOnFriendCount', 00H
	ORG $+2
$SG227581 DB	'GetCoopWarAcceptedState', 00H
$SG227582 DB	'GetNumWarsFought', 00H
	ORG $+3
$SG227583 DB	'GetLandDisputeLevel', 00H
$SG227584 DB	'GetVictoryDisputeLevel', 00H
	ORG $+1
$SG227585 DB	'GetWonderDisputeLevel', 00H
	ORG $+2
$SG227586 DB	'GetMinorCivDisputeLevel', 00H
$SG227587 DB	'GetWarmongerThreat', 00H
	ORG $+1
$SG227588 DB	'IsPlayerNoSettleRequestEverAsked', 00H
	ORG $+3
$SG227589 DB	'IsPlayerStopSpyingRequestEverAsked', 00H
	ORG $+1
$SG227590 DB	'IsDemandEverMade', 00H
	ORG $+3
$SG227591 DB	'GetNumCiviliansReturnedToMe', 00H
$SG227592 DB	'GetNumLandmarksBuiltForMe', 00H
	ORG $+2
$SG227593 DB	'GetNumTimesCultureBombed', 00H
	ORG $+3
$SG227594 DB	'GetNegativeReligiousConversionPoints', 00H
	ORG $+3
$SG227595 DB	'GetNegativeArchaeologyPoints', 00H
	ORG $+3
$SG227596 DB	'HasOthersReligionInMostCities', 00H
	ORG $+2
$SG227597 DB	'IsPlayerBrokenMilitaryPromise', 00H
	ORG $+2
$SG227598 DB	'IsPlayerIgnoredMilitaryPromise', 00H
	ORG $+1
$SG227599 DB	'IsPlayerBrokenExpansionPromise', 00H
	ORG $+1
$SG227600 DB	'IsPlayerIgnoredExpansionPromise', 00H
$SG227601 DB	'IsPlayerBrokenBorderPromise', 00H
$SG227602 DB	'IsPlayerIgnoredBorderPromise', 00H
	ORG $+3
$SG227603 DB	'IsPlayerBrokenAttackCityStatePromise', 00H
	ORG $+3
$SG227604 DB	'IsPlayerIgnoredAttackCityStatePromise', 00H
	ORG $+2
$SG227605 DB	'IsPlayerBrokenBullyCityStatePromise', 00H
$SG227606 DB	'IsPlayerIgnoredBullyCityStatePromise', 00H
	ORG $+3
$SG227607 DB	'IsPlayerBrokenSpyPromise', 00H
	ORG $+3
$SG227608 DB	'IsPlayerIgnoredSpyPromise', 00H
	ORG $+2
$SG227609 DB	'IsPlayerForgivenForSpying', 00H
	ORG $+2
$SG227610 DB	'IsPlayerBrokenNoConvertPromise', 00H
	ORG $+1
$SG227611 DB	'IsPlayerIgnoredNoConvertPromise', 00H
$SG227612 DB	'IsPlayerBrokenNoDiggingPromise', 00H
	ORG $+1
$SG227613 DB	'IsPlayerIgnoredNoDiggingPromise', 00H
$SG227614 DB	'IsPlayerBrokenCoopWarPromise', 00H
	ORG $+3
$SG227615 DB	'GetOtherPlayerNumProtectedMinorsKilled', 00H
	ORG $+1
$SG227616 DB	'GetOtherPlayerNumProtectedMinorsAttacked', 00H
	ORG $+3
$SG227617 DB	'GetTurnsSincePlayerBulliedProtectedMinor', 00H
	ORG $+3
$SG227618 DB	'IsHasPlayerBulliedProtectedMinor', 00H
	ORG $+3
$SG227619 DB	'IsDenouncedPlayer', 00H
	ORG $+2
$SG227620 DB	'GetDenouncedPlayerCounter', 00H
	ORG $+2
$SG227621 DB	'IsDenouncingPlayer', 00H
	ORG $+1
$SG227622 DB	'IsPlayerRecklessExpander', 00H
	ORG $+3
$SG227623 DB	'GetRecentTradeValue', 00H
$SG227624 DB	'GetCommonFoeValue', 00H
	ORG $+2
$SG227625 DB	'GetRecentAssistValue', 00H
	ORG $+3
$SG227626 DB	'IsGaveAssistanceTo', 00H
	ORG $+1
$SG227627 DB	'IsHasPaidTributeTo', 00H
	ORG $+1
$SG227628 DB	'IsNukedBy', 00H
	ORG $+2
$SG227629 DB	'IsCapitalCapturedBy', 00H
$SG227630 DB	'IsAngryAboutProtectedMinorKilled', 00H
	ORG $+3
$SG227631 DB	'IsAngryAboutProtectedMinorAttacked', 00H
	ORG $+1
$SG227632 DB	'IsAngryAboutProtectedMinorBullied', 00H
	ORG $+2
$SG227633 DB	'IsAngryAboutSidedWithTheirProtectedMinor', 00H
	ORG $+3
$SG227634 DB	'GetNumTimesRobbedBy', 00H
$SG227635 DB	'GetNumTimesIntrigueSharedBy', 00H
$SG227636 DB	'DoForceDoF', 00H
	ORG $+1
$SG227637 DB	'DoForceDenounce', 00H
$SG227638 DB	'GetNumNotifications', 00H
$SG227639 DB	'GetNotificationStr', 00H
	ORG $+1
$SG227640 DB	'GetNotificationSummaryStr', 00H
	ORG $+2
$SG227641 DB	'GetNotificationIndex', 00H
	ORG $+3
$SG227642 DB	'GetNotificationTurn', 00H
$SG227643 DB	'GetNotificationDismissed', 00H
	ORG $+3
$SG227644 DB	'AddNotification', 00H
$SG227645 DB	'GetRecommendedWorkerPlots', 00H
	ORG $+2
$SG227646 DB	'GetRecommendedFoundCityPlots', 00H
	ORG $+3
$SG227647 DB	'GetUnimprovedAvailableLuxuryResource', 00H
	ORG $+3
$SG227648 DB	'IsAnyPlotImproved', 00H
	ORG $+2
$SG227649 DB	'GetPlayerVisiblePlot', 00H
	ORG $+3
$SG227650 DB	'GetEverPoppedGoody', 00H
	ORG $+1
$SG227651 DB	'GetClosestGoodyPlot', 00H
$SG227652 DB	'IsAnyGoodyPlotAccessible', 00H
	ORG $+3
$SG227653 DB	'GetPlotHasOrder', 00H
$SG227654 DB	'GetAnyUnitHasOrderToGoody', 00H
	ORG $+2
$SG227655 DB	'GetEverTrainedBuilder', 00H
	ORG $+2
$SG227656 DB	'GetNumFreeTechs', 00H
$SG227657 DB	'SetNumFreeTechs', 00H
$SG227658 DB	'GetNumFreePolicies', 00H
	ORG $+1
$SG227659 DB	'SetNumFreePolicies', 00H
	ORG $+1
$SG227660 DB	'ChangeNumFreePolicies', 00H
	ORG $+2
$SG227661 DB	'GetNumFreeTenets', 00H
	ORG $+3
$SG227662 DB	'SetNumFreeTenets', 00H
	ORG $+3
$SG227663 DB	'ChangeNumFreeTenets', 00H
$SG227664 DB	'GetNumFreeGreatPeople', 00H
	ORG $+2
$SG227665 DB	'SetNumFreeGreatPeople', 00H
	ORG $+2
$SG227666 DB	'ChangeNumFreeGreatPeople', 00H
	ORG $+3
$SG227667 DB	'GetNumMayaBoosts', 00H
	ORG $+3
$SG227668 DB	'SetNumMayaBoosts', 00H
	ORG $+3
$SG227669 DB	'ChangeNumMayaBoosts', 00H
$SG227670 DB	'GetNumFaithGreatPeople', 00H
	ORG $+1
$SG227671 DB	'SetNumFaithGreatPeople', 00H
	ORG $+1
$SG227672 DB	'ChangeNumFaithGreatPeople', 00H
	ORG $+2
$SG227673 DB	'GetUnitBaktun', 00H
	ORG $+2
$SG227674 DB	'IsFreeMayaGreatPersonChoice', 00H
$SG227675 DB	'GetTraitGoldenAgeCombatModifier', 00H
$SG227676 DB	'GetTraitCityStateCombatModifier', 00H
$SG227677 DB	'GetTraitGreatGeneralExtraBonus', 00H
	ORG $+1
$SG227678 DB	'GetTraitGreatScientistRateModifier', 00H
	ORG $+1
$SG227679 DB	'IsTraitBonusReligiousBelief', 00H
$SG227680 DB	'GetHappinessFromLuxury', 00H
	ORG $+1
$SG227681 DB	'IsAbleToAnnexCityStates', 00H
$SG227682 DB	'GetNumTurnsBeforeMinorAlliesRefuseBribes', 00H
	ORG $+3
$SG227683 DB	'IsUsingMayaCalendar', 00H
$SG227684 DB	'GetMayaCalendarString', 00H
	ORG $+2
$SG227685 DB	'GetMayaCalendarLongString', 00H
	ORG $+2
$SG227686 DB	'GetExtraBuildingHappinessFromPolicies', 00H
	ORG $+2
$SG227687 DB	'GetNextCity', 00H
$SG227688 DB	'GetPrevCity', 00H
$SG227689 DB	'GetFreePromotionCount', 00H
	ORG $+2
$SG227690 DB	'IsFreePromotion', 00H
$SG227691 DB	'ChangeFreePromotionCount', 00H
	ORG $+3
$SG227692 DB	'GetEmbarkedGraphicOverride', 00H
	ORG $+1
$SG227693 DB	'SetEmbarkedGraphicOverride', 00H
	ORG $+1
$SG227694 DB	'AddTemporaryDominanceZone', 00H
	ORG $+2
$SG227695 DB	'GetNaturalWonderYieldModifier', 00H
	ORG $+2
$SG227696 DB	'GetPolicyBuildingClassYieldModifier', 00H
$SG227697 DB	'GetPolicyBuildingClassYieldChange', 00H
	ORG $+2
$SG227698 DB	'GetPolicyEspionageModifier', 00H
	ORG $+1
$SG227699 DB	'GetPolicyEspionageCatchSpiesModifier', 00H
	ORG $+3
$SG227700 DB	'GetPlayerBuildingClassYieldChange', 00H
	ORG $+2
$SG227701 DB	'GetPlayerBuildingClassHappiness', 00H
$SG227702 DB	'WasResurrectedBy', 00H
	ORG $+3
$SG227703 DB	'WasResurrectedThisTurnBy', 00H
	ORG $+3
$SG227704 DB	'GetOpinionTable', 00H
$SG227705 DB	'GetDealValue', 00H
	ORG $+3
$SG227706 DB	'GetDealMyValue', 00H
	ORG $+1
$SG227707 DB	'GetDealTheyreValue', 00H
	ORG $+1
$SG227708 DB	'MayNotAnnex', 00H
$SG227709 DB	'IsAllowPuppetPurchasing', 00H
$SG227710 DB	'GetEspionageCityStatus', 00H
	ORG $+1
$SG227711 DB	'GetNumSpies', 00H
$SG227712 DB	'GetNumUnassignedSpies', 00H
	ORG $+2
$SG227713 DB	'GetEspionageSpies', 00H
	ORG $+2
$SG227714 DB	'HasSpyEstablishedSurveillance', 00H
	ORG $+2
$SG227715 DB	'IsSpyDiplomat', 00H
	ORG $+2
$SG227716 DB	'IsSpySchmoozing', 00H
$SG227717 DB	'CanSpyStageCoup', 00H
$SG227718 DB	'GetAvailableSpyRelocationCities', 00H
$SG227719 DB	'GetNumTechsToSteal', 00H
	ORG $+1
$SG227720 DB	'GetIntrigueMessages', 00H
$SG227721 DB	'HasRecentIntrigueAbout', 00H
	ORG $+1
$SG227722 DB	'GetRecentIntrigueInfo', 00H
	ORG $+2
$SG227723 DB	'GetCoupChanceOfSuccess', 00H
	ORG $+1
$SG227724 DB	'IsMyDiplomatVisitingThem', 00H
	ORG $+3
$SG227725 DB	'IsOtherDiplomatVisitingMe', 00H
	ORG $+2
$SG227726 DB	'GetTradeRouteRange', 00H
	ORG $+1
$SG227727 DB	'GetInternationalTradeRoutePlotToolTip', 00H
	ORG $+2
$SG227728 DB	'GetInternationalTradeRoutePlotMouseoverToolTip', 00H
	ORG $+1
$SG227729 DB	'GetNumInternationalTradeRoutesUsed', 00H
	ORG $+1
$SG227730 DB	'GetNumInternationalTradeRoutesAvailable', 00H
$SG227731 DB	'GetPotentialInternationalTradeRouteDestinations', 00H
$SG227732 DB	'GetInternationalTradeRouteBaseBonus', 00H
$SG227733 DB	'GetInternationalTradeRouteGPTBonus', 00H
	ORG $+1
$SG227734 DB	'GetInternationalTradeRouteResourceBonus', 00H
$SG227735 DB	'GetInternationalTradeRouteResourceTraitModifier', 00H
$SG227736 DB	'GetInternationalTradeRouteExclusiveBonus', 00H
	ORG $+3
$SG227737 DB	'GetInternationalTradeRouteYourBuildingBonus', 00H
$SG227738 DB	'GetInternationalTradeRouteTheirBuildingBonus', 00H
	ORG $+3
$SG227739 DB	'GetInternationalTradeRoutePolicyBonus', 00H
	ORG $+2
$SG227740 DB	'GetInternationalTradeRouteOtherTraitBonus', 00H
	ORG $+2
$SG227741 DB	'GetInternationalTradeRouteRiverModifier', 00H
$SG227742 DB	'GetInternationalTradeRouteDomainModifier', 00H
	ORG $+3
$SG227743 DB	'GetInternationalTradeRouteTotal', 00H
$SG227744 DB	'GetInternationalTradeRouteScience', 00H
	ORG $+2
$SG227745 DB	'GetPotentialTradeUnitNewHomeCity', 00H
	ORG $+3
$SG227746 DB	'GetPotentialAdmiralNewPort', 00H
	ORG $+1
$SG227747 DB	'GetNumAvailableTradeUnits', 00H
	ORG $+2
$SG227748 DB	'GetTradeUnitType', 00H
	ORG $+3
$SG227749 DB	'GetTradeYourRoutesTTString', 00H
	ORG $+1
$SG227750 DB	'GetTradeToYouRoutesTTString', 00H
$SG227751 DB	'GetTradeRoutes', 00H
	ORG $+1
$SG227752 DB	'GetTradeRoutesAvailable', 00H
$SG227753 DB	'GetTradeRoutesToYou', 00H
$SG227754 DB	'GetNumTechDifference', 00H
	ORG $+3
$SG227755 DB	'GetGreatWorks', 00H
	ORG $+2
$SG227756 DB	'GetSwappableGreatWriting', 00H
	ORG $+3
$SG227757 DB	'GetSwappableGreatArt', 00H
	ORG $+3
$SG227758 DB	'GetSwappableGreatArtifact', 00H
	ORG $+2
$SG227759 DB	'GetSwappableGreatMusic', 00H
	ORG $+1
$SG227760 DB	'GetOthersGreatWorks', 00H
$SG227761 DB	'CanCommitVote', 00H
	ORG $+2
$SG227762 DB	'GetCommitVoteDetails', 00H
	ORG $+3
$SG227763 DB	'IsConnected', 00H
$SG227764 DB	'IsObserver', 00H
	ORG $+1
$SG227765 DB	'HasTurnTimerExpired', 00H
$SG227766 DB	'HasUnitOfClassType', 00H
	ORG $+1
$SG227767 DB	'GetWarmongerPreviewString', 00H
	ORG $+2
$SG227768 DB	'GetLiberationPreviewString', 00H
	ORG $+1
$SG227774 DB	'Player', 00H
	ORG $+1
$SG227778 DB	'Players', 00H
$SG227780 DB	'Players', 00H
$SG229845 DB	'String', 00H
	ORG $+1
$SG229864 DB	'String', 00H
	ORG $+1
$SG229913 DB	'X', 00H
	ORG $+2
$SG229914 DB	'Y', 00H
	ORG $+2
$SG229915 DB	'TradeConnectionType', 00H
$SG229922 DB	'ToReligion', 00H
	ORG $+1
$SG229923 DB	'ToPressureAmount', 00H
	ORG $+3
$SG229924 DB	'FromReligion', 00H
	ORG $+3
$SG229925 DB	'FromPressureAmount', 00H
	ORG $+1
$SG229926 DB	'OldTradeRoute', 00H
	ORG $+2
$SG229934 DB	'Mine', 00H
	ORG $+3
$SG229936 DB	'Theirs', 00H
	ORG $+1
$SG229937 DB	'Yields', 00H
	ORG $+1
$SG230105 DB	'X', 00H
	ORG $+2
$SG230106 DB	'Y', 00H
	ORG $+2
$SG230125 DB	'X', 00H
	ORG $+2
$SG230126 DB	'Y', 00H
	ORG $+2
$SG230182 DB	', ', 00H
	ORG $+1
$SG230194 DB	'TXT_KEY_TOP_PANEL_ITR_FOOD_YIELD_TT', 00H
$SG230197 DB	'TXT_KEY_TOP_PANEL_ITR_PRODUCTION_YIELD_TT', 00H
	ORG $+2
$SG230200 DB	'TXT_KEY_TOP_PANEL_ITR_GOLD_YIELD_TT', 00H
$SG230203 DB	'TXT_KEY_TOP_PANEL_ITR_SCIENCE_YIELD_TT', 00H
	ORG $+1
$SG230206 DB	'TXT_KEY_TOP_PANEL_ITR_CULTURE_YIELD_TT', 00H
	ORG $+1
$SG230209 DB	'TXT_KEY_TOP_PANEL_ITR_FAITH_YIELD_TT', 00H
	ORG $+3
$SG230226 DB	'TXT_KEY_TOP_PANEL_ITR_FOOD_YIELD_TT', 00H
$SG230229 DB	'TXT_KEY_TOP_PANEL_ITR_PRODUCTION_YIELD_TT', 00H
	ORG $+2
$SG230232 DB	'TXT_KEY_TOP_PANEL_ITR_GOLD_YIELD_TT', 00H
$SG230235 DB	'TXT_KEY_TOP_PANEL_ITR_SCIENCE_YIELD_TT', 00H
	ORG $+1
$SG230238 DB	'TXT_KEY_TOP_PANEL_ITR_CULTURE_YIELD_TT', 00H
	ORG $+1
$SG230241 DB	'TXT_KEY_TOP_PANEL_ITR_FAITH_YIELD_TT', 00H
	ORG $+3
$SG230248 DB	'TXT_KEY_TOP_PANEL_ITR_YOUR_ROUTE_BOTH_TT', 00H
	ORG $+3
$SG230253 DB	'TXT_KEY_TOP_PANEL_ITR_YOUR_ROUTE_ONLY_ORIGIN_TT', 00H
$SG230258 DB	'TXT_KEY_TOP_PANEL_ITR_YOUR_ROUTE_ONLY_DEST_TT', 00H
	ORG $+2
$SG230264 DB	'TXT_KEY_TOP_PANEL_ITR_INTERNAL_YOUR_ROUTE_BOTH_TT', 00H
	ORG $+2
$SG230269 DB	'TXT_KEY_TOP_PANEL_ITR_INTERNAL_YOUR_ROUTE_ONLY_ORIGIN_TT'
	DB	00H
	ORG $+3
$SG230274 DB	'TXT_KEY_TOP_PANEL_ITR_INTERNAL_YOUR_ROUTE_ONLY_DEST_TT', 00H
	ORG $+1
$SG230301 DB	'TXT_KEY_TOP_PANEL_ITR_CITY_STATE_TT', 00H
$SG230309 DB	'[NEWLINE]', 00H
	ORG $+2
$SG230349 DB	', ', 00H
	ORG $+1
$SG230356 DB	'TXT_KEY_TOP_PANEL_ITR_FOOD_YIELD_TT', 00H
$SG230359 DB	'TXT_KEY_TOP_PANEL_ITR_PRODUCTION_YIELD_TT', 00H
	ORG $+2
$SG230362 DB	'TXT_KEY_TOP_PANEL_ITR_GOLD_YIELD_TT', 00H
$SG230365 DB	'TXT_KEY_TOP_PANEL_ITR_SCIENCE_YIELD_TT', 00H
	ORG $+1
$SG230368 DB	'TXT_KEY_TOP_PANEL_ITR_CULTURE_YIELD_TT', 00H
	ORG $+1
$SG230371 DB	'TXT_KEY_TOP_PANEL_ITR_FAITH_YIELD_TT', 00H
	ORG $+3
$SG230377 DB	'TXT_KEY_TOP_PANEL_ITR_TO_YOU_ROUTE_BOTH_TT', 00H
	ORG $+1
$SG230382 DB	'TXT_KEY_TOP_PANEL_ITR_TO_YOU_ROUTE_ONLY_ORIGIN_TT', 00H
	ORG $+2
$SG230387 DB	'TXT_KEY_TOP_PANEL_ITR_TO_YOU_ROUTE_ONLY_DEST_TT', 00H
$SG230390 DB	'TXT_KEY_TOP_PANEL_ITR_CITY_STATE_TT', 00H
$SG230401 DB	'[NEWLINE]', 00H
	ORG $+2
$SG230420 DB	'Domain', 00H
	ORG $+1
$SG230421 DB	'FromCivilizationType', 00H
	ORG $+3
$SG230422 DB	'FromID', 00H
	ORG $+1
$SG230424 DB	'FromCityName', 00H
	ORG $+3
$SG230425 DB	'FromCity', 00H
	ORG $+3
$SG230426 DB	'ToCivilizationType', 00H
	ORG $+1
$SG230427 DB	'ToID', 00H
	ORG $+3
$SG230429 DB	'ToCityName', 00H
	ORG $+1
$SG230430 DB	'ToCity', 00H
	ORG $+1
$SG230431 DB	'FromGPT', 00H
$SG230432 DB	'ToGPT', 00H
	ORG $+2
$SG230433 DB	'ToFood', 00H
	ORG $+1
$SG230434 DB	'ToProduction', 00H
	ORG $+3
$SG230435 DB	'FromScience', 00H
$SG230436 DB	'ToScience', 00H
	ORG $+2
$SG230441 DB	'ToReligion', 00H
	ORG $+1
$SG230442 DB	'ToPressure', 00H
	ORG $+1
$SG230443 DB	'FromReligion', 00H
	ORG $+3
$SG230444 DB	'FromPressure', 00H
	ORG $+3
$SG230447 DB	'FromTourism', 00H
$SG230448 DB	'ToTourism', 00H
	ORG $+2
$SG230449 DB	'TurnsLeft', 00H
	ORG $+2
$SG230496 DB	'Domain', 00H
	ORG $+1
$SG230497 DB	'FromCivilizationType', 00H
	ORG $+3
$SG230498 DB	'FromID', 00H
	ORG $+1
$SG230500 DB	'FromCityName', 00H
	ORG $+3
$SG230501 DB	'FromCity', 00H
	ORG $+3
$SG230502 DB	'ToCivilizationType', 00H
	ORG $+1
$SG230503 DB	'ToID', 00H
	ORG $+3
$SG230505 DB	'ToCityName', 00H
	ORG $+1
$SG230506 DB	'ToCity', 00H
	ORG $+1
$SG230507 DB	'FromGPT', 00H
$SG230508 DB	'ToGPT', 00H
	ORG $+2
$SG230509 DB	'ToFood', 00H
	ORG $+1
$SG230510 DB	'ToProduction', 00H
	ORG $+3
$SG230511 DB	'FromScience', 00H
$SG230512 DB	'ToScience', 00H
	ORG $+2
$SG230520 DB	'ToReligion', 00H
	ORG $+1
$SG230521 DB	'ToPressure', 00H
	ORG $+1
$SG230522 DB	'FromReligion', 00H
	ORG $+3
$SG230523 DB	'FromPressure', 00H
	ORG $+3
$SG230526 DB	'FromTourism', 00H
$SG230527 DB	'ToTourism', 00H
	ORG $+2
$SG230528 DB	'TurnsLeft', 00H
	ORG $+2
$SG230548 DB	'Domain', 00H
	ORG $+1
$SG230549 DB	'FromCivilizationType', 00H
	ORG $+3
$SG230550 DB	'FromID', 00H
	ORG $+1
$SG230552 DB	'FromCityName', 00H
	ORG $+3
$SG230553 DB	'FromCity', 00H
	ORG $+3
$SG230554 DB	'ToCivilizationType', 00H
	ORG $+1
$SG230555 DB	'ToID', 00H
	ORG $+3
$SG230557 DB	'ToCityName', 00H
	ORG $+1
$SG230558 DB	'ToCity', 00H
	ORG $+1
$SG230559 DB	'FromGPT', 00H
$SG230560 DB	'ToGPT', 00H
	ORG $+2
$SG230561 DB	'ToFood', 00H
	ORG $+1
$SG230562 DB	'ToProduction', 00H
	ORG $+3
$SG230563 DB	'FromScience', 00H
$SG230564 DB	'ToScience', 00H
	ORG $+2
$SG230569 DB	'ToReligion', 00H
	ORG $+1
$SG230570 DB	'ToPressure', 00H
	ORG $+1
$SG230571 DB	'FromReligion', 00H
	ORG $+3
$SG230572 DB	'FromPressure', 00H
	ORG $+3
$SG230575 DB	'FromTourism', 00H
$SG230576 DB	'ToTourism', 00H
	ORG $+2
$SG230577 DB	'TurnsLeft', 00H
	ORG $+2
$SG230618 DB	'Index', 00H
	ORG $+2
$SG230619 DB	'Creator', 00H
$SG230621 DB	'Era', 00H
$SG230638 DB	'iPlayer', 00H
$SG230642 DB	'WritingIndex', 00H
	ORG $+3
$SG230644 DB	'WritingCreator', 00H
	ORG $+1
$SG230645 DB	'WritingEra', 00H
	ORG $+1
$SG230649 DB	'ArtIndex', 00H
	ORG $+3
$SG230651 DB	'ArtCreator', 00H
	ORG $+1
$SG230652 DB	'ArtEra', 00H
	ORG $+1
$SG230656 DB	'ArtifactIndex', 00H
	ORG $+2
$SG230658 DB	'ArtifactCreator', 00H
$SG230659 DB	'ArtifactEra', 00H
$SG230663 DB	'MusicIndex', 00H
	ORG $+1
$SG230665 DB	'MusicCreator', 00H
	ORG $+3
$SG230666 DB	'MusicEra', 00H
	ORG $+3
$SG232862 DB	'Could not find player color at row %d', 00H
	ORG $+2
$SG232869 DB	'Could not find primary color at row %d', 00H
	ORG $+1
$SG232873 DB	'Could not find secondary color at row %d', 00H
	ORG $+3
$SG232875 DB	'x', 00H
	ORG $+2
$SG232876 DB	'y', 00H
	ORG $+2
$SG232877 DB	'z', 00H
	ORG $+2
$SG232878 DB	'w', 00H
	ORG $+2
$SG232879 DB	'x', 00H
	ORG $+2
$SG232880 DB	'y', 00H
	ORG $+2
$SG232881 DB	'z', 00H
	ORG $+2
$SG232882 DB	'w', 00H
	ORG $+2
$SG233693 DB	'REPLAYDATASET_SCORE', 00H
$SG233702 DB	'REPLAYDATASET_ECONOMY', 00H
	ORG $+2
$SG233711 DB	'REPLAYDATASET_AGRICULTURE', 00H
	ORG $+2
$SG233720 DB	'REPLAYDATASET_AGRICULTURE', 00H
	ORG $+2
$SG234606 DB	'plot', 00H
	ORG $+3
$SG234607 DB	'buildType', 00H
	ORG $+2
$SG235691 DB	'TXT_KEY_DIPLO_AT_WAR', 00H
	ORG $+3
$SG235698 DB	'TXT_KEY_DIPLO_PAST_WAR_NEUTRAL', 00H
	ORG $+1
$SG235702 DB	'TXT_KEY_DIPLO_PAST_WAR_BAD', 00H
	ORG $+1
$SG235707 DB	'TXT_KEY_DIPLO_NO_LAND_DISPUTE', 00H
	ORG $+2
$SG235712 DB	'TXT_KEY_DIPLO_LAND_DISPUTE', 00H
	ORG $+1
$SG235716 DB	'TXT_KEY_DIPLO_WONDER_DISPUTE', 00H
	ORG $+3
$SG235720 DB	'TXT_KEY_DIPLO_MINOR_CIV_DISPUTE', 00H
$SG235726 DB	'TXT_KEY_DIPLO_WARMONGER_THREAT_CRITICAL', 00H
$SG235730 DB	'TXT_KEY_DIPLO_WARMONGER_THREAT_SEVERE', 00H
	ORG $+2
$SG235734 DB	'TXT_KEY_DIPLO_WARMONGER_THREAT_MAJOR', 00H
	ORG $+3
$SG235737 DB	'TXT_KEY_DIPLO_WARMONGER_THREAT_MINOR', 00H
	ORG $+3
$SG235739 DB	' ', 00H
	ORG $+2
$SG235741 DB	'TXT_KEY_WARMONGER_HATE_HIGH', 00H
$SG235744 DB	' ', 00H
	ORG $+2
$SG235746 DB	'TXT_KEY_WARMONGER_HATE_MID', 00H
	ORG $+1
$SG235748 DB	' ', 00H
	ORG $+2
$SG235750 DB	'TXT_KEY_WARMONGER_HATE_LOW', 00H
	ORG $+1
$SG235754 DB	'TXT_KEY_DIPLO_AFRAID', 00H
	ORG $+3
$SG235758 DB	'TXT_KEY_DIPLO_CIVILIANS_RETURNED', 00H
	ORG $+3
$SG235762 DB	'TXT_KEY_DIPLO_LANDMARKS_BUILT', 00H
	ORG $+2
$SG235766 DB	'TXT_KEY_DIPLO_RESURRECTED', 00H
	ORG $+2
$SG235770 DB	'TXT_KEY_DIPLO_CITIES_LIBERATED', 00H
	ORG $+1
$SG235774 DB	'TXT_KEY_DIPLO_HAS_EMBASSY', 00H
	ORG $+2
$SG235778 DB	'TXT_KEY_DIPLO_FORGAVE_FOR_SPYING', 00H
	ORG $+3
$SG235782 DB	'TXT_KEY_DIPLO_NO_SETTLE_ASKED', 00H
	ORG $+2
$SG235786 DB	'TXT_KEY_DIPLO_STOP_SPYING_ASKED', 00H
$SG235790 DB	'TXT_KEY_DIPLO_TRADE_DEMAND', 00H
	ORG $+1
$SG235794 DB	'TXT_KEY_DIPLO_CULTURE_BOMB', 00H
	ORG $+1
$SG235798 DB	'TXT_KEY_DIPLO_RELIGIOUS_CONVERSIONS', 00H
$SG235802 DB	'TXT_KEY_DIPLO_ADOPTING_MY_RELIGION', 00H
	ORG $+1
$SG235806 DB	'TXT_KEY_DIPLO_ADOPTING_HIS_RELIGION', 00H
$SG235810 DB	'TXT_KEY_DIPLO_SAME_LATE_POLICY_TREES', 00H
	ORG $+3
$SG235816 DB	'TXT_KEY_DIPLO_DIFFERENT_LATE_POLICY_TREES', 00H
	ORG $+2
$SG235824 DB	'TXT_KEY_DIPLO_CAUGHT_STEALING', 00H
	ORG $+2
$SG235828 DB	'TXT_KEY_DIPLO_SHARED_INTRIGUE', 00H
	ORG $+2
$SG235832 DB	'TXT_KEY_DIPLO_MILITARY_PROMISE', 00H
	ORG $+1
$SG235836 DB	'TXT_KEY_DIPLO_MILITARY_PROMISE_BROKEN_WITH_OTHERS', 00H
	ORG $+2
$SG235840 DB	'TXT_KEY_DIPLO_MILITARY_PROMISE_IGNORED', 00H
	ORG $+1
$SG235844 DB	'TXT_KEY_DIPLO_EXPANSION_PROMISE', 00H
$SG235848 DB	'TXT_KEY_DIPLO_EXPANSION_PROMISE_IGNORED', 00H
$SG235852 DB	'TXT_KEY_DIPLO_BORDER_PROMISE', 00H
	ORG $+3
$SG235856 DB	'TXT_KEY_DIPLO_BORDER_PROMISE_IGNORED', 00H
	ORG $+3
$SG235860 DB	'TXT_KEY_DIPLO_CITY_STATE_PROMISE', 00H
	ORG $+3
$SG235864 DB	'TXT_KEY_DIPLO_CITY_STATE_PROMISE_BROKEN_WITH_OTHERS', 00H
$SG235868 DB	'TXT_KEY_DIPLO_CITY_STATE_PROMISE_IGNORED', 00H
	ORG $+3
$SG235872 DB	'TXT_KEY_DIPLO_BULLY_CITY_STATE_PROMISE_BROKEN', 00H
	ORG $+2
$SG235876 DB	'TXT_KEY_DIPLO_BULLY_CITY_STATE_PROMISE_IGNORED', 00H
	ORG $+1
$SG235880 DB	'TXT_KEY_DIPLO_NO_CONVERT_PROMISE_BROKEN', 00H
$SG235884 DB	'TXT_KEY_DIPLO_NO_CONVERT_PROMISE_IGNORED', 00H
	ORG $+3
$SG235888 DB	'TXT_KEY_DIPLO_NO_DIG_PROMISE_BROKEN', 00H
$SG235892 DB	'TXT_KEY_DIPLO_NO_DIG_PROMISE_IGNORED', 00H
	ORG $+3
$SG235896 DB	'TXT_KEY_DIPLO_SPY_PROMISE_BROKEN', 00H
	ORG $+3
$SG235900 DB	'TXT_KEY_DIPLO_SPY_PROMISE_IGNORED', 00H
	ORG $+2
$SG235904 DB	'TXT_KEY_DIPLO_COOP_WAR_PROMISE', 00H
	ORG $+1
$SG235908 DB	'TXT_KEY_DIPLO_PROTECTED_MINORS_KILLED', 00H
	ORG $+2
$SG235912 DB	'TXT_KEY_DIPLO_PROTECTED_MINORS_ATTACKED', 00H
$SG235916 DB	'TXT_KEY_DIPLO_PROTECTED_MINORS_BULLIED', 00H
	ORG $+1
$SG235920 DB	'TXT_KEY_DIPLO_SIDED_WITH_MINOR', 00H
	ORG $+1
$SG235924 DB	'TXT_KEY_DIPLO_DOF', 00H
	ORG $+2
$SG235928 DB	'TXT_KEY_DIPLO_MUTUAL_DOF', 00H
	ORG $+3
$SG235932 DB	'TXT_KEY_DIPLO_HUMAN_DOF_WITH_ENEMY', 00H
	ORG $+1
$SG235937 DB	'TXT_KEY_DIPLO_DENOUNCED_BY_PEOPLE_WE_TRUST_MORE', 00H
$SG235940 DB	'TXT_KEY_DIPLO_HUMAN_DENOUNCED_FRIENDS', 00H
	ORG $+2
$SG235943 DB	'TXT_KEY_DIPLO_HUMAN_FRIEND_DENOUNCED', 00H
	ORG $+3
$SG235946 DB	'TXT_KEY_DIPLO_HUMAN_DECLARED_WAR_ON_FRIENDS', 00H
$SG235949 DB	'TXT_KEY_DIPLO_HUMAN_FRIEND_DECLARED_WAR', 00H
$SG235955 DB	'TXT_KEY_DIPLO_DENOUNCED_BY_US', 00H
	ORG $+2
$SG235959 DB	'TXT_KEY_DIPLO_DENOUNCED_BY_THEM', 00H
$SG235963 DB	'TXT_KEY_DIPLO_HUMAN_DENOUNCED_FRIEND', 00H
	ORG $+3
$SG235967 DB	'TXT_KEY_DIPLO_MUTUAL_ENEMY', 00H
	ORG $+1
$SG235971 DB	'TXT_KEY_DIPLO_RECKLESS_EXPANDER', 00H
$SG235975 DB	'TXT_KEY_DIPLO_TRADE_PARTNER', 00H
$SG235979 DB	'TXT_KEY_DIPLO_COMMON_FOE', 00H
	ORG $+3
$SG235984 DB	'TXT_KEY_DIPLO_REFUSED_REQUESTS', 00H
	ORG $+1
$SG235988 DB	'TXT_KEY_DIPLO_ASSISTANCE_TO_THEM', 00H
	ORG $+3
$SG235992 DB	'TXT_KEY_DIPLO_NUKED', 00H
$SG235996 DB	'TXT_KEY_DIPLO_CAPTURED_CAPITAL', 00H
	ORG $+1
$SG236000 DB	'TXT_KEY_DIPLO_ASSISTANCE_FROM_THEM', 00H
	ORG $+1
$SG236004 DB	'TXT_KEY_DIPLO_PAID_TRIBUTE', 00H
	ORG $+1
$SG236008 DB	'TXT_KEY_DIPLO_LIKED_OUR_PROPOSAL', 00H
	ORG $+3
$SG236012 DB	'TXT_KEY_DIPLO_DISLIKED_OUR_PROPOSAL', 00H
$SG236016 DB	'TXT_KEY_DIPLO_SUPPORTED_THEIR_PROPOSAL', 00H
	ORG $+1
$SG236020 DB	'TXT_KEY_DIPLO_FOILED_THEIR_PROPOSAL', 00H
$SG236024 DB	'TXT_KEY_DIPLO_SUPPORTED_THEIR_HOSTING', 00H
	ORG $+2
$SG236028 DB	'TXT_KEY_SPECIFIC_DIPLO_STRING_1', 00H
$SG236032 DB	'TXT_KEY_SPECIFIC_DIPLO_STRING_2', 00H
$SG236036 DB	'TXT_KEY_SPECIFIC_DIPLO_STRING_3', 00H
$SG236199 DB	'[ENDCOLOR]', 00H
	ORG $+1
$SG236202 DB	'[COLOR_', 00H
$SG236205 DB	']', 00H
	ORG $+2
$SG236208 DB	'[COLOR_POSITIVE_TEXT]', 00H
	ORG $+2
$SG236210 DB	'[COLOR_FADING_POSITIVE_TEXT]', 00H
	ORG $+3
$SG236212 DB	'[COLOR_GREY]', 00H
	ORG $+3
$SG236214 DB	'[COLOR_FADING_NEGATIVE_TEXT]', 00H
	ORG $+3
$SG236216 DB	'[COLOR_NEGATIVE_TEXT]', 00H
	ORG $+2
$SG236311 DB	'PlayerID', 00H
	ORG $+3
$SG236312 DB	'CityID', 00H
	ORG $+1
$SG236313 DB	'CityX', 00H
	ORG $+2
$SG236314 DB	'CityY', 00H
	ORG $+2
$SG236315 DB	'CivilizationType', 00H
	ORG $+3
$SG236316 DB	'Team', 00H
	ORG $+3
$SG236318 DB	'Name', 00H
	ORG $+3
$SG236319 DB	'Population', 00H
	ORG $+1
$SG236323 DB	'Potential', 00H
	ORG $+2
$SG236326 DB	'BasePotential', 00H
	ORG $+2
$SG236327 DB	'LargestBasePotential', 00H
	ORG $+3
$SG236352 DB	'AgentID', 00H
$SG236353 DB	'CityX', 00H
	ORG $+2
$SG236354 DB	'CityY', 00H
	ORG $+2
$SG236356 DB	'Name', 00H
	ORG $+3
$SG236362 DB	'TXT_KEY_SPY_RANK_0', 00H
	ORG $+1
$SG236364 DB	'TXT_KEY_SPY_RANK_1', 00H
	ORG $+1
$SG236366 DB	'TXT_KEY_SPY_RANK_2', 00H
	ORG $+1
$SG236368 DB	'Rank', 00H
	ORG $+3
$SG236374 DB	'TXT_KEY_SPY_STATE_UNASSIGNED', 00H
	ORG $+3
$SG236376 DB	'TXT_KEY_SPY_STATE_TRAVELLING', 00H
	ORG $+3
$SG236378 DB	'TXT_KEY_SPY_STATE_SURVEILLANCE', 00H
	ORG $+1
$SG236380 DB	'TXT_KEY_SPY_STATE_GATHERING_INTEL', 00H
	ORG $+2
$SG236382 DB	'TXT_KEY_SPY_STATE_RIGGING_ELECTION', 00H
	ORG $+1
$SG236384 DB	'TXT_KEY_SPY_STATE_COUNTER_INTEL', 00H
$SG236386 DB	'TXT_KEY_SPY_STATE_DEAD', 00H
	ORG $+1
$SG236388 DB	'TXT_KEY_SPY_STATE_MAKING_INTRODUCTIONS', 00H
	ORG $+1
$SG236390 DB	'TXT_KEY_SPY_STATE_SCHMOOZING', 00H
	ORG $+3
$SG236392 DB	'State', 00H
	ORG $+2
$SG236393 DB	'TurnsLeft', 00H
	ORG $+2
$SG236394 DB	'PercentComplete', 00H
$SG236395 DB	'EstablishedSurveillance', 00H
$SG236396 DB	'IsDiplomat', 00H
	ORG $+1
$SG236443 DB	'PlayerID', 00H
	ORG $+3
$SG236444 DB	'CityID', 00H
	ORG $+1
$SG236445 DB	'CivilizationType', 00H
	ORG $+3
$SG236446 DB	'Team', 00H
	ORG $+3
$SG236449 DB	'Name', 00H
	ORG $+3
$SG236450 DB	'Population', 00H
	ORG $+1
$SG236451 DB	'Potential', 00H
	ORG $+2
$SG236474 DB	'String', 00H
	ORG $+1
$SG236475 DB	'Turn', 00H
	ORG $+3
$SG236476 DB	'DiscoveringPlayer', 00H
	ORG $+2
$SG236478 DB	'SpyName', 00H
$SG237656 DB	'__instances', 00H
$SG237657 DB	'__mode', 00H
	ORG $+1
$SG237658 DB	'v', 00H
	ORG $+2
$SG237660 DB	'__instances', 00H
$SG237663 DB	'__instance', 00H
	ORG $+1
$SG237664 DB	'__index', 00H
$SG237679 DB	'__instance', 00H
	ORG $+5
$SG237685 DB	'Not a valid instance.  Either the instance is NULL or yo'
	DB	'u used ''.'' instead of '':''.', 00H
	ORG $+1
$SG237705 DB	'__instances', 00H
$SG237706 DB	'__mode', 00H
	ORG $+1
$SG237707 DB	'v', 00H
	ORG $+2
$SG237709 DB	'__instances', 00H
$SG237712 DB	'__instance', 00H
	ORG $+1
$SG237713 DB	'__index', 00H
$SG237728 DB	'__instance', 00H
	ORG $+1
$SG237734 DB	'Not a valid instance.  Either the instance is NULL or yo'
	DB	'u used ''.'' instead of '':''.', 00H
	ORG $+1
$SG237742 DB	'Instance does not exist.', 00H
	ORG $+3
$SG237753 DB	'__instances', 00H
$SG237754 DB	'__mode', 00H
	ORG $+1
$SG237755 DB	'v', 00H
	ORG $+2
$SG237757 DB	'__instances', 00H
$SG237760 DB	'__instance', 00H
	ORG $+1
$SG237761 DB	'__index', 00H
$SG237776 DB	'__instance', 00H
	ORG $+5
$SG237782 DB	'Not a valid instance.  Either the instance is NULL or yo'
	DB	'u used ''.'' instead of '':''.', 00H
	ORG $+1
$SG237793 DB	'__instances', 00H
$SG237794 DB	'__mode', 00H
	ORG $+1
$SG237795 DB	'v', 00H
	ORG $+2
$SG237797 DB	'__instances', 00H
$SG237800 DB	'__instance', 00H
	ORG $+1
$SG237801 DB	'__index', 00H
$SG237816 DB	'__instance', 00H
	ORG $+1
$SG237822 DB	'Not a valid instance.  Either the instance is NULL or yo'
	DB	'u used ''.'' instead of '':''.', 00H
	ORG $+1
$SG237845 DB	'__instance', 00H
	ORG $+1
$SG237851 DB	'Not a valid instance.  Either the instance is NULL or yo'
	DB	'u used ''.'' instead of '':''.', 00H
	ORG $+1
_guidICvUnit1 DD 09f157e04H
	DW	04b2dH
	DW	04797H
	DB	09aH
	DB	0a5H
	DB	013H
	DB	025H
	DB	0deH
	DB	022H
	DB	016H
	DB	07H
CONST	ENDS
;	COMDAT ?NO_TURN@CvMinorCivQuest@@2HB
CONST	SEGMENT
?NO_TURN@CvMinorCivQuest@@2HB DD 0ffffffffH		; CvMinorCivQuest::NO_TURN
CONST	ENDS
;	COMDAT ?NO_QUEST_DATA@CvMinorCivQuest@@2HB
CONST	SEGMENT
?NO_QUEST_DATA@CvMinorCivQuest@@2HB DD 0ffffffffH	; CvMinorCivQuest::NO_QUEST_DATA
CONST	ENDS
EXTRN	_lua_tointeger:PROC
; Function compile flags: /Ogtpy
; File c:\users\enormousapplepie\documents\github\lekmod\lekmod_dll\cvgamecoredllutil\include\cvluaargtemplates.h
;	COMDAT ??$toValue@H@CvLuaArgs@@YAHPAUlua_State@@H@Z
_TEXT	SEGMENT
??$toValue@H@CvLuaArgs@@YAHPAUlua_State@@H@Z PROC	; CvLuaArgs::toValue<int>, COMDAT
; _L$ = ecx
; _idx$ = eax

; 19   : 		return lua_tointeger(L, idx);

	push	eax
	push	ecx
	call	_lua_tointeger
	add	esp, 8

; 20   : 	}

	ret	0
??$toValue@H@CvLuaArgs@@YAHPAUlua_State@@H@Z ENDP	; CvLuaArgs::toValue<int>
_TEXT	ENDS
EXTRN	_lua_toboolean:PROC
; Function compile flags: /Ogtpy
;	COMDAT ??$toValue@_N@CvLuaArgs@@YA_NPAUlua_State@@H@Z
_TEXT	SEGMENT
??$toValue@_N@CvLuaArgs@@YA_NPAUlua_State@@H@Z PROC	; CvLuaArgs::toValue<bool>, COMDAT
; _L$ = ecx
; _idx$ = eax

; 24   : 		return lua_toboolean(L, idx) != 0;

	push	eax
	push	ecx
	call	_lua_toboolean
	add	esp, 8
	neg	eax
	sbb	eax, eax
	neg	eax

; 25   : 	}

	ret	0
??$toValue@_N@CvLuaArgs@@YA_NPAUlua_State@@H@Z ENDP	; CvLuaArgs::toValue<bool>
_TEXT	ENDS
EXTRN	_lua_pushinteger:PROC
; Function compile flags: /Ogtpy
;	COMDAT ??$pushValue@H@CvLuaArgs@@YAXPAUlua_State@@H@Z
_TEXT	SEGMENT
??$pushValue@H@CvLuaArgs@@YAXPAUlua_State@@H@Z PROC	; CvLuaArgs::pushValue<int>, COMDAT
; _L$ = ecx
; _t$ = eax

; 39   : 		lua_pushinteger(L, t);

	push	eax
	push	ecx
	call	_lua_pushinteger
	add	esp, 8

; 40   : 	}

	ret	0
??$pushValue@H@CvLuaArgs@@YAXPAUlua_State@@H@Z ENDP	; CvLuaArgs::pushValue<int>
_TEXT	ENDS
EXTRN	_lua_pushboolean:PROC
; Function compile flags: /Ogtpy
;	COMDAT ??$pushValue@_N@CvLuaArgs@@YAXPAUlua_State@@_N@Z
_TEXT	SEGMENT
??$pushValue@_N@CvLuaArgs@@YAXPAUlua_State@@_N@Z PROC	; CvLuaArgs::pushValue<bool>, COMDAT
; _L$ = ecx
; _t$ = eax

; 45   : 		lua_pushboolean(L, t);

	movzx	eax, al
	push	eax
	push	ecx
	call	_lua_pushboolean
	add	esp, 8

; 46   : 	}

	ret	0
??$pushValue@_N@CvLuaArgs@@YAXPAUlua_State@@_N@Z ENDP	; CvLuaArgs::pushValue<bool>
_TEXT	ENDS
PUBLIC	?wrapCoordDifference@@YAHHI_N@Z			; wrapCoordDifference
; Function compile flags: /Ogtpy
; File c:\users\enormousapplepie\documents\github\lekmod\lekmod_dll\cvgamecoredll_expansion2\cvgamecoreutils.h
;	COMDAT ?wrapCoordDifference@@YAHHI_N@Z
_TEXT	SEGMENT
_iDiff$ = 8						; size = 4
_uiRange$ = 12						; size = 4
_bWrap$ = 16						; size = 1
?wrapCoordDifference@@YAHHI_N@Z PROC			; wrapCoordDifference, COMDAT

; 57   : 	if(bWrap)

	cmp	BYTE PTR _bWrap$[esp-4], 0
	mov	eax, DWORD PTR _iDiff$[esp-4]
	je	SHORT $LN5@wrapCoordD

; 58   : 	{
; 59   : 		if(iDiff > (int)(uiRange >> 1))		// Using an unsigned int so we can safely assume that value >> 1 == value / 2

	mov	edx, DWORD PTR _uiRange$[esp-4]
	mov	ecx, edx
	shr	ecx, 1
	cmp	eax, ecx
	jle	SHORT $LN3@wrapCoordD

; 60   : 		{
; 61   : 			return (iDiff - (int)uiRange);

	sub	eax, edx

; 66   : 		}
; 67   : 	}
; 68   : 
; 69   : 	return iDiff;
; 70   : }

	ret	0
$LN3@wrapCoordD:

; 62   : 		}
; 63   : 		else if(iDiff < -(int)(uiRange >> 1))

	neg	ecx
	cmp	eax, ecx
	jge	SHORT $LN5@wrapCoordD

; 64   : 		{
; 65   : 			return (iDiff + (int)uiRange);

	add	eax, edx
$LN5@wrapCoordD:

; 66   : 		}
; 67   : 	}
; 68   : 
; 69   : 	return iDiff;
; 70   : }

	ret	0
?wrapCoordDifference@@YAHHI_N@Z ENDP			; wrapCoordDifference
_TEXT	ENDS
PUBLIC	?xToHexspaceX@@YAHHH@Z				; xToHexspaceX
; Function compile flags: /Ogtpy
;	COMDAT ?xToHexspaceX@@YAHHH@Z
_TEXT	SEGMENT
_iX$ = 8						; size = 4
_iY$ = 12						; size = 4
?xToHexspaceX@@YAHHH@Z PROC				; xToHexspaceX, COMDAT

; 86   : 	return iX - ((iY >= 0) ? (iY>>1) : ((iY - 1)/2));

	mov	ecx, DWORD PTR _iY$[esp-4]
	test	ecx, ecx
	jge	SHORT $LN5@xToHexspac
	lea	eax, DWORD PTR [ecx-1]
	cdq
	sub	eax, edx
	mov	ecx, eax
$LN5@xToHexspac:
	mov	eax, DWORD PTR _iX$[esp-4]
	sar	ecx, 1
	sub	eax, ecx

; 87   : }

	ret	0
?xToHexspaceX@@YAHHH@Z ENDP				; xToHexspaceX
_TEXT	ENDS
PUBLIC	??_7bad_alloc@std@@6B@				; std::bad_alloc::`vftable'
PUBLIC	??0bad_alloc@std@@QAE@PBD@Z			; std::bad_alloc::bad_alloc
PUBLIC	??_R4bad_alloc@std@@6B@				; std::bad_alloc::`RTTI Complete Object Locator'
PUBLIC	??_R0?AVbad_alloc@std@@@8			; std::bad_alloc `RTTI Type Descriptor'
PUBLIC	??_R3bad_alloc@std@@8				; std::bad_alloc::`RTTI Class Hierarchy Descriptor'
PUBLIC	??_R2bad_alloc@std@@8				; std::bad_alloc::`RTTI Base Class Array'
PUBLIC	??_R1A@?0A@EA@bad_alloc@std@@8			; std::bad_alloc::`RTTI Base Class Descriptor at (0,-1,0,64)'
PUBLIC	??_R1A@?0A@EA@exception@std@@8			; std::exception::`RTTI Base Class Descriptor at (0,-1,0,64)'
PUBLIC	??_R0?AVexception@std@@@8			; std::exception `RTTI Type Descriptor'
PUBLIC	??_R3exception@std@@8				; std::exception::`RTTI Class Hierarchy Descriptor'
PUBLIC	??_R2exception@std@@8				; std::exception::`RTTI Base Class Array'
EXTRN	__imp_??0exception@std@@QAE@ABQBD@Z:PROC
EXTRN	??_7type_info@@6B@:QWORD			; type_info::`vftable'
EXTRN	??_Ebad_alloc@std@@UAEPAXI@Z:PROC		; std::bad_alloc::`vector deleting destructor'
EXTRN	?what@exception@std@@UBEPBDXZ:PROC		; std::exception::what
;	COMDAT ??_R2exception@std@@8
; File c:\program files (x86)\microsoft visual studio 9.0\vc\include\exception
rdata$r	SEGMENT
??_R2exception@std@@8 DD FLAT:??_R1A@?0A@EA@exception@std@@8 ; std::exception::`RTTI Base Class Array'
rdata$r	ENDS
;	COMDAT ??_R3exception@std@@8
rdata$r	SEGMENT
??_R3exception@std@@8 DD 00H				; std::exception::`RTTI Class Hierarchy Descriptor'
	DD	00H
	DD	01H
	DD	FLAT:??_R2exception@std@@8
rdata$r	ENDS
;	COMDAT ??_R0?AVexception@std@@@8
_DATA	SEGMENT
??_R0?AVexception@std@@@8 DD FLAT:??_7type_info@@6B@	; std::exception `RTTI Type Descriptor'
	DD	00H
	DB	'.?AVexception@std@@', 00H
_DATA	ENDS
;	COMDAT ??_R1A@?0A@EA@exception@std@@8
rdata$r	SEGMENT
??_R1A@?0A@EA@exception@std@@8 DD FLAT:??_R0?AVexception@std@@@8 ; std::exception::`RTTI Base Class Descriptor at (0,-1,0,64)'
	DD	00H
	DD	00H
	DD	0ffffffffH
	DD	00H
	DD	040H
	DD	FLAT:??_R3exception@std@@8
rdata$r	ENDS
;	COMDAT ??_R1A@?0A@EA@bad_alloc@std@@8
rdata$r	SEGMENT
??_R1A@?0A@EA@bad_alloc@std@@8 DD FLAT:??_R0?AVbad_alloc@std@@@8 ; std::bad_alloc::`RTTI Base Class Descriptor at (0,-1,0,64)'
	DD	01H
	DD	00H
	DD	0ffffffffH
	DD	00H
	DD	040H
	DD	FLAT:??_R3bad_alloc@std@@8
rdata$r	ENDS
;	COMDAT ??_R2bad_alloc@std@@8
rdata$r	SEGMENT
??_R2bad_alloc@std@@8 DD FLAT:??_R1A@?0A@EA@bad_alloc@std@@8 ; std::bad_alloc::`RTTI Base Class Array'
	DD	FLAT:??_R1A@?0A@EA@exception@std@@8
rdata$r	ENDS
;	COMDAT ??_R3bad_alloc@std@@8
rdata$r	SEGMENT
??_R3bad_alloc@std@@8 DD 00H				; std::bad_alloc::`RTTI Class Hierarchy Descriptor'
	DD	00H
	DD	02H
	DD	FLAT:??_R2bad_alloc@std@@8
rdata$r	ENDS
;	COMDAT ??_R0?AVbad_alloc@std@@@8
_DATA	SEGMENT
??_R0?AVbad_alloc@std@@@8 DD FLAT:??_7type_info@@6B@	; std::bad_alloc `RTTI Type Descriptor'
	DD	00H
	DB	'.?AVbad_alloc@std@@', 00H
_DATA	ENDS
;	COMDAT ??_R4bad_alloc@std@@6B@
rdata$r	SEGMENT
??_R4bad_alloc@std@@6B@ DD 00H				; std::bad_alloc::`RTTI Complete Object Locator'
	DD	00H
	DD	00H
	DD	FLAT:??_R0?AVbad_alloc@std@@@8
	DD	FLAT:??_R3bad_alloc@std@@8
rdata$r	ENDS
;	COMDAT ??_7bad_alloc@std@@6B@
CONST	SEGMENT
??_7bad_alloc@std@@6B@ DD FLAT:??_R4bad_alloc@std@@6B@	; std::bad_alloc::`vftable'
	DD	FLAT:??_Ebad_alloc@std@@UAEPAXI@Z
	DD	FLAT:?what@exception@std@@UBEPBDXZ
; Function compile flags: /Ogtpy
CONST	ENDS
;	COMDAT ??0bad_alloc@std@@QAE@PBD@Z
_TEXT	SEGMENT
__Message$ = 8						; size = 4
??0bad_alloc@std@@QAE@PBD@Z PROC			; std::bad_alloc::bad_alloc, COMDAT
; _this$ = ecx

; 371  : 		{	// construct from message string

	push	esi
	lea	eax, DWORD PTR __Message$[esp]
	push	eax
	mov	esi, ecx
	call	DWORD PTR __imp_??0exception@std@@QAE@ABQBD@Z
	mov	DWORD PTR [esi], OFFSET ??_7bad_alloc@std@@6B@

; 372  : 		}

	mov	eax, esi
	pop	esi
	ret	4
??0bad_alloc@std@@QAE@PBD@Z ENDP			; std::bad_alloc::bad_alloc
_TEXT	ENDS
PUBLIC	??1bad_alloc@std@@UAE@XZ			; std::bad_alloc::~bad_alloc
EXTRN	__imp_??1exception@std@@UAE@XZ:PROC
; Function compile flags: /Ogtpy
;	COMDAT ??1bad_alloc@std@@UAE@XZ
_TEXT	SEGMENT
??1bad_alloc@std@@UAE@XZ PROC				; std::bad_alloc::~bad_alloc, COMDAT
; _this$ = ecx

; 380  : 		{	// destroy the object

	mov	DWORD PTR [ecx], OFFSET ??_7bad_alloc@std@@6B@

; 381  : 		}

	jmp	DWORD PTR __imp_??1exception@std@@UAE@XZ
??1bad_alloc@std@@UAE@XZ ENDP				; std::bad_alloc::~bad_alloc
_TEXT	ENDS
EXTRN	??3@YAXPAX@Z:PROC				; operator delete
; Function compile flags: /Ogtpy
;	COMDAT ??_Gbad_alloc@std@@UAEPAXI@Z
_TEXT	SEGMENT
___flags$ = 8						; size = 4
??_Gbad_alloc@std@@UAEPAXI@Z PROC			; std::bad_alloc::`scalar deleting destructor', COMDAT
; _this$ = ecx
	push	esi
	mov	esi, ecx
	mov	DWORD PTR [esi], OFFSET ??_7bad_alloc@std@@6B@
	call	DWORD PTR __imp_??1exception@std@@UAE@XZ
	test	BYTE PTR ___flags$[esp], 1
	je	SHORT $LN6@scalar
	push	esi
	call	??3@YAXPAX@Z				; operator delete
	add	esp, 4
$LN6@scalar:
	mov	eax, esi
	pop	esi
	ret	4
??_Gbad_alloc@std@@UAEPAXI@Z ENDP			; std::bad_alloc::`scalar deleting destructor'
_TEXT	ENDS
PUBLIC	??2@YAPAXIPAX@Z					; operator new
; Function compile flags: /Ogtpy
; File c:\program files (x86)\microsoft visual studio 9.0\vc\include\new
;	COMDAT ??2@YAPAXIPAX@Z
_TEXT	SEGMENT
___formal$ = 8						; size = 4
__Where$ = 12						; size = 4
??2@YAPAXIPAX@Z PROC					; operator new, COMDAT

; 59   : 	return (_Where);

	mov	eax, DWORD PTR __Where$[esp-4]

; 60   : 	}

	ret	0
??2@YAPAXIPAX@Z ENDP					; operator new
_TEXT	ENDS
PUBLIC	??3@YAXPAX0@Z					; operator delete
; Function compile flags: /Ogtpy
;	COMDAT ??3@YAXPAX0@Z
_TEXT	SEGMENT
___formal$ = 8						; size = 4
___formal$ = 12						; size = 4
??3@YAXPAX0@Z PROC					; operator delete, COMDAT

; 64   : 	}

	ret	0
??3@YAXPAX0@Z ENDP					; operator delete
_TEXT	ENDS
PUBLIC	??_7logic_error@std@@6B@			; std::logic_error::`vftable'
PUBLIC	??0logic_error@std@@QAE@ABV?$basic_string@DU?$char_traits@D@std@@V?$allocator@D@2@@1@@Z ; std::logic_error::logic_error
PUBLIC	??_R4logic_error@std@@6B@			; std::logic_error::`RTTI Complete Object Locator'
PUBLIC	??_R0?AVlogic_error@std@@@8			; std::logic_error `RTTI Type Descriptor'
PUBLIC	??_R3logic_error@std@@8				; std::logic_error::`RTTI Class Hierarchy Descriptor'
PUBLIC	??_R2logic_error@std@@8				; std::logic_error::`RTTI Base Class Array'
PUBLIC	??_R1A@?0A@EA@logic_error@std@@8		; std::logic_error::`RTTI Base Class Descriptor at (0,-1,0,64)'
PUBLIC	?what@logic_error@std@@UBEPBDXZ			; std::logic_error::what
EXTRN	__imp_??0?$basic_string@DU?$char_traits@D@std@@V?$allocator@D@2@@std@@QAE@ABV01@@Z:PROC
EXTRN	__imp_??0exception@std@@QAE@XZ:PROC
EXTRN	___CxxFrameHandler3:PROC
EXTRN	??_Elogic_error@std@@UAEPAXI@Z:PROC		; std::logic_error::`vector deleting destructor'
;	COMDAT ??_R1A@?0A@EA@logic_error@std@@8
; File c:\program files (x86)\microsoft visual studio 9.0\vc\include\stdexcept
rdata$r	SEGMENT
??_R1A@?0A@EA@logic_error@std@@8 DD FLAT:??_R0?AVlogic_error@std@@@8 ; std::logic_error::`RTTI Base Class Descriptor at (0,-1,0,64)'
	DD	01H
	DD	00H
	DD	0ffffffffH
	DD	00H
	DD	040H
	DD	FLAT:??_R3logic_error@std@@8
rdata$r	ENDS
;	COMDAT ??_R2logic_error@std@@8
rdata$r	SEGMENT
??_R2logic_error@std@@8 DD FLAT:??_R1A@?0A@EA@logic_error@std@@8 ; std::logic_error::`RTTI Base Class Array'
	DD	FLAT:??_R1A@?0A@EA@exception@std@@8
rdata$r	ENDS
;	COMDAT ??_R3logic_error@std@@8
rdata$r	SEGMENT
??_R3logic_error@std@@8 DD 00H				; std::logic_error::`RTTI Class Hierarchy Descriptor'
	DD	00H
	DD	02H
	DD	FLAT:??_R2logic_error@std@@8
rdata$r	ENDS
;	COMDAT ??_R0?AVlogic_error@std@@@8
_DATA	SEGMENT
??_R0?AVlogic_error@std@@@8 DD FLAT:??_7type_info@@6B@	; std::logic_error `RTTI Type Descriptor'
	DD	00H
	DB	'.?AVlogic_error@std@@', 00H
_DATA	ENDS
;	COMDAT ??_R4logic_error@std@@6B@
rdata$r	SEGMENT
??_R4logic_error@std@@6B@ DD 00H			; std::logic_error::`RTTI Complete Object Locator'
	DD	00H
	DD	00H
	DD	FLAT:??_R0?AVlogic_error@std@@@8
	DD	FLAT:??_R3logic_error@std@@8
rdata$r	ENDS
;	COMDAT ??_7logic_error@std@@6B@
CONST	SEGMENT
??_7logic_error@std@@6B@ DD FLAT:??_R4logic_error@std@@6B@ ; std::logic_error::`vftable'
	DD	FLAT:??_Elogic_error@std@@UAEPAXI@Z
	DD	FLAT:?what@logic_error@std@@UBEPBDXZ
CONST	ENDS
;	COMDAT xdata$x
xdata$x	SEGMENT
__unwindtable$??0logic_error@std@@QAE@ABV?$basic_string@DU?$char_traits@D@std@@V?$allocator@D@2@@1@@Z DD 0ffffffffH
	DD	FLAT:__unwindfunclet$??0logic_error@std@@QAE@ABV?$basic_string@DU?$char_traits@D@std@@V?$allocator@D@2@@1@@Z$0
__ehfuncinfo$??0logic_error@std@@QAE@ABV?$basic_string@DU?$char_traits@D@std@@V?$allocator@D@2@@1@@Z DD 019930522H
	DD	01H
	DD	FLAT:__unwindtable$??0logic_error@std@@QAE@ABV?$basic_string@DU?$char_traits@D@std@@V?$allocator@D@2@@1@@Z
	DD	2 DUP(00H)
	DD	2 DUP(00H)
	DD	00H
	DD	01H
; Function compile flags: /Ogtpy
xdata$x	ENDS
;	COMDAT ??0logic_error@std@@QAE@ABV?$basic_string@DU?$char_traits@D@std@@V?$allocator@D@2@@1@@Z
_TEXT	SEGMENT
_this$ = -16						; size = 4
__$EHRec$ = -12						; size = 12
__Message$ = 8						; size = 4
??0logic_error@std@@QAE@ABV?$basic_string@DU?$char_traits@D@std@@V?$allocator@D@2@@1@@Z PROC ; std::logic_error::logic_error, COMDAT
; _this$ = ecx

; 26   : 		{	// construct from message string

	push	-1
	push	__ehhandler$??0logic_error@std@@QAE@ABV?$basic_string@DU?$char_traits@D@std@@V?$allocator@D@2@@1@@Z
	mov	eax, DWORD PTR fs:0
	push	eax
	mov	DWORD PTR fs:0, esp
	push	ecx
	push	esi
	mov	esi, ecx
	mov	DWORD PTR _this$[esp+20], esi
	call	DWORD PTR __imp_??0exception@std@@QAE@XZ
	mov	eax, DWORD PTR __Message$[esp+16]
	push	eax
	lea	ecx, DWORD PTR [esi+12]
	mov	DWORD PTR __$EHRec$[esp+32], 0
	mov	DWORD PTR [esi], OFFSET ??_7logic_error@std@@6B@
	call	DWORD PTR __imp_??0?$basic_string@DU?$char_traits@D@std@@V?$allocator@D@2@@std@@QAE@ABV01@@Z

; 27   : 		}

	mov	ecx, DWORD PTR __$EHRec$[esp+20]
	mov	eax, esi
	pop	esi
	mov	DWORD PTR fs:0, ecx
	add	esp, 16					; 00000010H
	ret	4
_TEXT	ENDS
;	COMDAT text$x
text$x	SEGMENT
__unwindfunclet$??0logic_error@std@@QAE@ABV?$basic_string@DU?$char_traits@D@std@@V?$allocator@D@2@@1@@Z$0:
	mov	ecx, DWORD PTR _this$[ebp]
	jmp	DWORD PTR __imp_??1exception@std@@UAE@XZ
__ehhandler$??0logic_error@std@@QAE@ABV?$basic_string@DU?$char_traits@D@std@@V?$allocator@D@2@@1@@Z:
	mov	eax, OFFSET __ehfuncinfo$??0logic_error@std@@QAE@ABV?$basic_string@DU?$char_traits@D@std@@V?$allocator@D@2@@1@@Z
	jmp	___CxxFrameHandler3
text$x	ENDS
??0logic_error@std@@QAE@ABV?$basic_string@DU?$char_traits@D@std@@V?$allocator@D@2@@1@@Z ENDP ; std::logic_error::logic_error
PUBLIC	??1logic_error@std@@UAE@XZ			; std::logic_error::~logic_error
EXTRN	__imp_??1?$basic_string@DU?$char_traits@D@std@@V?$allocator@D@2@@std@@QAE@XZ:PROC
; Function compile flags: /Ogtpy
;	COMDAT ??1logic_error@std@@UAE@XZ
_TEXT	SEGMENT
??1logic_error@std@@UAE@XZ PROC				; std::logic_error::~logic_error, COMDAT
; _this$ = ecx

; 30   : 		{	// destroy the object

	push	esi
	mov	esi, ecx

; 31   : 		}

	lea	ecx, DWORD PTR [esi+12]
	mov	DWORD PTR [esi], OFFSET ??_7logic_error@std@@6B@
	call	DWORD PTR __imp_??1?$basic_string@DU?$char_traits@D@std@@V?$allocator@D@2@@std@@QAE@XZ
	mov	ecx, esi
	pop	esi
	jmp	DWORD PTR __imp_??1exception@std@@UAE@XZ
??1logic_error@std@@UAE@XZ ENDP				; std::logic_error::~logic_error
_TEXT	ENDS
EXTRN	__imp_?c_str@?$basic_string@DU?$char_traits@D@std@@V?$allocator@D@2@@std@@QBEPBDXZ:PROC
; Function compile flags: /Ogtpy
;	COMDAT ?what@logic_error@std@@UBEPBDXZ
_TEXT	SEGMENT
?what@logic_error@std@@UBEPBDXZ PROC			; std::logic_error::what, COMDAT
; _this$ = ecx

; 35   : 		return (_Str.c_str());

	add	ecx, 12					; 0000000cH
	jmp	DWORD PTR __imp_?c_str@?$basic_string@DU?$char_traits@D@std@@V?$allocator@D@2@@std@@QBEPBDXZ
?what@logic_error@std@@UBEPBDXZ ENDP			; std::logic_error::what
; Function compile flags: /Ogtpy
_TEXT	ENDS
;	COMDAT ??_Glogic_error@std@@UAEPAXI@Z
_TEXT	SEGMENT
___flags$ = 8						; size = 4
??_Glogic_error@std@@UAEPAXI@Z PROC			; std::logic_error::`scalar deleting destructor', COMDAT
; _this$ = ecx
	push	esi
	mov	esi, ecx
	lea	ecx, DWORD PTR [esi+12]
	mov	DWORD PTR [esi], OFFSET ??_7logic_error@std@@6B@
	call	DWORD PTR __imp_??1?$basic_string@DU?$char_traits@D@std@@V?$allocator@D@2@@std@@QAE@XZ
	mov	ecx, esi
	call	DWORD PTR __imp_??1exception@std@@UAE@XZ
	test	BYTE PTR ___flags$[esp], 1
	je	SHORT $LN6@scalar@2
	push	esi
	call	??3@YAXPAX@Z				; operator delete
	add	esp, 4
$LN6@scalar@2:
	mov	eax, esi
	pop	esi
	ret	4
??_Glogic_error@std@@UAEPAXI@Z ENDP			; std::logic_error::`scalar deleting destructor'
_TEXT	ENDS
PUBLIC	??_7length_error@std@@6B@			; std::length_error::`vftable'
PUBLIC	??0length_error@std@@QAE@ABV?$basic_string@DU?$char_traits@D@std@@V?$allocator@D@2@@1@@Z ; std::length_error::length_error
PUBLIC	??_R4length_error@std@@6B@			; std::length_error::`RTTI Complete Object Locator'
PUBLIC	??_R0?AVlength_error@std@@@8			; std::length_error `RTTI Type Descriptor'
PUBLIC	??_R3length_error@std@@8			; std::length_error::`RTTI Class Hierarchy Descriptor'
PUBLIC	??_R2length_error@std@@8			; std::length_error::`RTTI Base Class Array'
PUBLIC	??_R1A@?0A@EA@length_error@std@@8		; std::length_error::`RTTI Base Class Descriptor at (0,-1,0,64)'
EXTRN	??_Elength_error@std@@UAEPAXI@Z:PROC		; std::length_error::`vector deleting destructor'
;	COMDAT ??_R1A@?0A@EA@length_error@std@@8
rdata$r	SEGMENT
??_R1A@?0A@EA@length_error@std@@8 DD FLAT:??_R0?AVlength_error@std@@@8 ; std::length_error::`RTTI Base Class Descriptor at (0,-1,0,64)'
	DD	02H
	DD	00H
	DD	0ffffffffH
	DD	00H
	DD	040H
	DD	FLAT:??_R3length_error@std@@8
rdata$r	ENDS
;	COMDAT ??_R2length_error@std@@8
rdata$r	SEGMENT
??_R2length_error@std@@8 DD FLAT:??_R1A@?0A@EA@length_error@std@@8 ; std::length_error::`RTTI Base Class Array'
	DD	FLAT:??_R1A@?0A@EA@logic_error@std@@8
	DD	FLAT:??_R1A@?0A@EA@exception@std@@8
rdata$r	ENDS
;	COMDAT ??_R3length_error@std@@8
rdata$r	SEGMENT
??_R3length_error@std@@8 DD 00H				; std::length_error::`RTTI Class Hierarchy Descriptor'
	DD	00H
	DD	03H
	DD	FLAT:??_R2length_error@std@@8
rdata$r	ENDS
;	COMDAT ??_R0?AVlength_error@std@@@8
_DATA	SEGMENT
??_R0?AVlength_error@std@@@8 DD FLAT:??_7type_info@@6B@	; std::length_error `RTTI Type Descriptor'
	DD	00H
	DB	'.?AVlength_error@std@@', 00H
_DATA	ENDS
;	COMDAT ??_R4length_error@std@@6B@
rdata$r	SEGMENT
??_R4length_error@std@@6B@ DD 00H			; std::length_error::`RTTI Complete Object Locator'
	DD	00H
	DD	00H
	DD	FLAT:??_R0?AVlength_error@std@@@8
	DD	FLAT:??_R3length_error@std@@8
rdata$r	ENDS
;	COMDAT ??_7length_error@std@@6B@
CONST	SEGMENT
??_7length_error@std@@6B@ DD FLAT:??_R4length_error@std@@6B@ ; std::length_error::`vftable'
	DD	FLAT:??_Elength_error@std@@UAEPAXI@Z
	DD	FLAT:?what@logic_error@std@@UBEPBDXZ
; Function compile flags: /Ogtpy
CONST	ENDS
;	COMDAT ??0length_error@std@@QAE@ABV?$basic_string@DU?$char_traits@D@std@@V?$allocator@D@2@@1@@Z
_TEXT	SEGMENT
__Message$ = 8						; size = 4
??0length_error@std@@QAE@ABV?$basic_string@DU?$char_traits@D@std@@V?$allocator@D@2@@1@@Z PROC ; std::length_error::length_error, COMDAT
; _this$ = ecx

; 105  : 		{	// construct from message string

	mov	eax, DWORD PTR __Message$[esp-4]
	push	esi
	push	eax
	mov	esi, ecx
	call	??0logic_error@std@@QAE@ABV?$basic_string@DU?$char_traits@D@std@@V?$allocator@D@2@@1@@Z ; std::logic_error::logic_error
	mov	DWORD PTR [esi], OFFSET ??_7length_error@std@@6B@

; 106  : 		}

	mov	eax, esi
	pop	esi
	ret	4
??0length_error@std@@QAE@ABV?$basic_string@DU?$char_traits@D@std@@V?$allocator@D@2@@1@@Z ENDP ; std::length_error::length_error
_TEXT	ENDS
PUBLIC	??1length_error@std@@UAE@XZ			; std::length_error::~length_error
; Function compile flags: /Ogtpy
;	COMDAT ??1length_error@std@@UAE@XZ
_TEXT	SEGMENT
??1length_error@std@@UAE@XZ PROC			; std::length_error::~length_error, COMDAT
; _this$ = ecx

; 109  : 		{	// destroy the object

	push	esi
	mov	esi, ecx

; 110  : 		}

	lea	ecx, DWORD PTR [esi+12]
	mov	DWORD PTR [esi], OFFSET ??_7logic_error@std@@6B@
	call	DWORD PTR __imp_??1?$basic_string@DU?$char_traits@D@std@@V?$allocator@D@2@@std@@QAE@XZ
	mov	ecx, esi
	pop	esi
	jmp	DWORD PTR __imp_??1exception@std@@UAE@XZ
??1length_error@std@@UAE@XZ ENDP			; std::length_error::~length_error
; Function compile flags: /Ogtpy
_TEXT	ENDS
;	COMDAT ??_Glength_error@std@@UAEPAXI@Z
_TEXT	SEGMENT
___flags$ = 8						; size = 4
??_Glength_error@std@@UAEPAXI@Z PROC			; std::length_error::`scalar deleting destructor', COMDAT
; _this$ = ecx
	push	esi
	mov	esi, ecx
	lea	ecx, DWORD PTR [esi+12]
	mov	DWORD PTR [esi], OFFSET ??_7logic_error@std@@6B@
	call	DWORD PTR __imp_??1?$basic_string@DU?$char_traits@D@std@@V?$allocator@D@2@@std@@QAE@XZ
	mov	ecx, esi
	call	DWORD PTR __imp_??1exception@std@@UAE@XZ
	test	BYTE PTR ___flags$[esp], 1
	je	SHORT $LN8@scalar@3
	push	esi
	call	??3@YAXPAX@Z				; operator delete
	add	esp, 4
$LN8@scalar@3:
	mov	eax, esi
	pop	esi
	ret	4
??_Glength_error@std@@UAEPAXI@Z ENDP			; std::length_error::`scalar deleting destructor'
_TEXT	ENDS
PUBLIC	??_7out_of_range@std@@6B@			; std::out_of_range::`vftable'
PUBLIC	??0out_of_range@std@@QAE@ABV?$basic_string@DU?$char_traits@D@std@@V?$allocator@D@2@@1@@Z ; std::out_of_range::out_of_range
PUBLIC	??_R4out_of_range@std@@6B@			; std::out_of_range::`RTTI Complete Object Locator'
PUBLIC	??_R0?AVout_of_range@std@@@8			; std::out_of_range `RTTI Type Descriptor'
PUBLIC	??_R3out_of_range@std@@8			; std::out_of_range::`RTTI Class Hierarchy Descriptor'
PUBLIC	??_R2out_of_range@std@@8			; std::out_of_range::`RTTI Base Class Array'
PUBLIC	??_R1A@?0A@EA@out_of_range@std@@8		; std::out_of_range::`RTTI Base Class Descriptor at (0,-1,0,64)'
EXTRN	??_Eout_of_range@std@@UAEPAXI@Z:PROC		; std::out_of_range::`vector deleting destructor'
;	COMDAT ??_R1A@?0A@EA@out_of_range@std@@8
rdata$r	SEGMENT
??_R1A@?0A@EA@out_of_range@std@@8 DD FLAT:??_R0?AVout_of_range@std@@@8 ; std::out_of_range::`RTTI Base Class Descriptor at (0,-1,0,64)'
	DD	02H
	DD	00H
	DD	0ffffffffH
	DD	00H
	DD	040H
	DD	FLAT:??_R3out_of_range@std@@8
rdata$r	ENDS
;	COMDAT ??_R2out_of_range@std@@8
rdata$r	SEGMENT
??_R2out_of_range@std@@8 DD FLAT:??_R1A@?0A@EA@out_of_range@std@@8 ; std::out_of_range::`RTTI Base Class Array'
	DD	FLAT:??_R1A@?0A@EA@logic_error@std@@8
	DD	FLAT:??_R1A@?0A@EA@exception@std@@8
rdata$r	ENDS
;	COMDAT ??_R3out_of_range@std@@8
rdata$r	SEGMENT
??_R3out_of_range@std@@8 DD 00H				; std::out_of_range::`RTTI Class Hierarchy Descriptor'
	DD	00H
	DD	03H
	DD	FLAT:??_R2out_of_range@std@@8
rdata$r	ENDS
;	COMDAT ??_R0?AVout_of_range@std@@@8
_DATA	SEGMENT
??_R0?AVout_of_range@std@@@8 DD FLAT:??_7type_info@@6B@	; std::out_of_range `RTTI Type Descriptor'
	DD	00H
	DB	'.?AVout_of_range@std@@', 00H
_DATA	ENDS
;	COMDAT ??_R4out_of_range@std@@6B@
rdata$r	SEGMENT
??_R4out_of_range@std@@6B@ DD 00H			; std::out_of_range::`RTTI Complete Object Locator'
	DD	00H
	DD	00H
	DD	FLAT:??_R0?AVout_of_range@std@@@8
	DD	FLAT:??_R3out_of_range@std@@8
rdata$r	ENDS
;	COMDAT ??_7out_of_range@std@@6B@
CONST	SEGMENT
??_7out_of_range@std@@6B@ DD FLAT:??_R4out_of_range@std@@6B@ ; std::out_of_range::`vftable'
	DD	FLAT:??_Eout_of_range@std@@UAEPAXI@Z
	DD	FLAT:?what@logic_error@std@@UBEPBDXZ
; Function compile flags: /Ogtpy
CONST	ENDS
;	COMDAT ??0out_of_range@std@@QAE@ABV?$basic_string@DU?$char_traits@D@std@@V?$allocator@D@2@@1@@Z
_TEXT	SEGMENT
__Message$ = 8						; size = 4
??0out_of_range@std@@QAE@ABV?$basic_string@DU?$char_traits@D@std@@V?$allocator@D@2@@1@@Z PROC ; std::out_of_range::out_of_range, COMDAT
; _this$ = ecx

; 129  : 		{	// construct from message string

	mov	eax, DWORD PTR __Message$[esp-4]
	push	esi
	push	eax
	mov	esi, ecx
	call	??0logic_error@std@@QAE@ABV?$basic_string@DU?$char_traits@D@std@@V?$allocator@D@2@@1@@Z ; std::logic_error::logic_error
	mov	DWORD PTR [esi], OFFSET ??_7out_of_range@std@@6B@

; 130  : 		}

	mov	eax, esi
	pop	esi
	ret	4
??0out_of_range@std@@QAE@ABV?$basic_string@DU?$char_traits@D@std@@V?$allocator@D@2@@1@@Z ENDP ; std::out_of_range::out_of_range
_TEXT	ENDS
PUBLIC	??1out_of_range@std@@UAE@XZ			; std::out_of_range::~out_of_range
; Function compile flags: /Ogtpy
;	COMDAT ??1out_of_range@std@@UAE@XZ
_TEXT	SEGMENT
??1out_of_range@std@@UAE@XZ PROC			; std::out_of_range::~out_of_range, COMDAT
; _this$ = ecx

; 133  : 		{	// destroy the object

	push	esi
	mov	esi, ecx

; 134  : 		}

	lea	ecx, DWORD PTR [esi+12]
	mov	DWORD PTR [esi], OFFSET ??_7logic_error@std@@6B@
	call	DWORD PTR __imp_??1?$basic_string@DU?$char_traits@D@std@@V?$allocator@D@2@@std@@QAE@XZ
	mov	ecx, esi
	pop	esi
	jmp	DWORD PTR __imp_??1exception@std@@UAE@XZ
??1out_of_range@std@@UAE@XZ ENDP			; std::out_of_range::~out_of_range
; Function compile flags: /Ogtpy
_TEXT	ENDS
;	COMDAT ??_Gout_of_range@std@@UAEPAXI@Z
_TEXT	SEGMENT
___flags$ = 8						; size = 4
??_Gout_of_range@std@@UAEPAXI@Z PROC			; std::out_of_range::`scalar deleting destructor', COMDAT
; _this$ = ecx
	push	esi
	mov	esi, ecx
	lea	ecx, DWORD PTR [esi+12]
	mov	DWORD PTR [esi], OFFSET ??_7logic_error@std@@6B@
	call	DWORD PTR __imp_??1?$basic_string@DU?$char_traits@D@std@@V?$allocator@D@2@@std@@QAE@XZ
	mov	ecx, esi
	call	DWORD PTR __imp_??1exception@std@@UAE@XZ
	test	BYTE PTR ___flags$[esp], 1
	je	SHORT $LN8@scalar@4
	push	esi
	call	??3@YAXPAX@Z				; operator delete
	add	esp, 4
$LN8@scalar@4:
	mov	eax, esi
	pop	esi
	ret	4
??_Gout_of_range@std@@UAEPAXI@Z ENDP			; std::out_of_range::`scalar deleting destructor'
_TEXT	ENDS
PUBLIC	?GetTypeName@CvLuaPlayer@@SAPBDXZ		; CvLuaPlayer::GetTypeName
; Function compile flags: /Ogtpy
; File c:\users\enormousapplepie\documents\github\lekmod\lekmod_dll\cvgamecoredll_expansion2\lua\cvluaplayer.cpp
;	COMDAT ?GetTypeName@CvLuaPlayer@@SAPBDXZ
_TEXT	SEGMENT
?GetTypeName@CvLuaPlayer@@SAPBDXZ PROC			; CvLuaPlayer::GetTypeName, COMDAT

; 1040 : 	return "Player";

	mov	eax, OFFSET $SG227774

; 1041 : }

	ret	0
?GetTypeName@CvLuaPlayer@@SAPBDXZ ENDP			; CvLuaPlayer::GetTypeName
_TEXT	ENDS
PUBLIC	?lHasBusyMovingUnit@CvLuaPlayer@@KAHPAUlua_State@@@Z ; CvLuaPlayer::lHasBusyMovingUnit
; Function compile flags: /Ogtpy
;	COMDAT ?lHasBusyMovingUnit@CvLuaPlayer@@KAHPAUlua_State@@@Z
_TEXT	SEGMENT
_L$ = 8							; size = 4
?lHasBusyMovingUnit@CvLuaPlayer@@KAHPAUlua_State@@@Z PROC ; CvLuaPlayer::lHasBusyMovingUnit, COMDAT

; 1701 : #ifdef AUI_WARNING_FIXES
; 1702 : 	lua_pushboolean(L, 0);	// Obsolete function.  Units are never busy moving, movement is always instant in the game core.
; 1703 : #else
; 1704 : 	lua_pushboolean(L, false);	// Obsolete function.  Units are never busy moving, movement is always instant in the game core.

	mov	eax, DWORD PTR _L$[esp-4]
	push	0
	push	eax
	call	_lua_pushboolean
	add	esp, 8

; 1705 : #endif
; 1706 : 	return 1;

	mov	eax, 1

; 1707 : }

	ret	0
?lHasBusyMovingUnit@CvLuaPlayer@@KAHPAUlua_State@@@Z ENDP ; CvLuaPlayer::lHasBusyMovingUnit
_TEXT	ENDS
PUBLIC	??0CvString@@QAE@XZ				; CvString::CvString
EXTRN	__imp_??0?$basic_string@DU?$char_traits@D@std@@V?$allocator@D@2@@std@@QAE@XZ:PROC
; Function compile flags: /Ogtpy
; File c:\users\enormousapplepie\documents\github\lekmod\lekmod_dll\cvgamecoredllutil\include\cvstring.h
;	COMDAT ??0CvString@@QAE@XZ
_TEXT	SEGMENT
??0CvString@@QAE@XZ PROC				; CvString::CvString, COMDAT
; _this$ = ecx

; 23   : 	CvString() {}

	push	esi
	mov	esi, ecx
	call	DWORD PTR __imp_??0?$basic_string@DU?$char_traits@D@std@@V?$allocator@D@2@@std@@QAE@XZ
	mov	eax, esi
	pop	esi
	ret	0
??0CvString@@QAE@XZ ENDP				; CvString::CvString
_TEXT	ENDS
PUBLIC	??_C@_00CNPNBAHC@?$AA@				; `string'
PUBLIC	??0CvString@@QAE@PBD@Z				; CvString::CvString
EXTRN	__imp_??0?$basic_string@DU?$char_traits@D@std@@V?$allocator@D@2@@std@@QAE@PBD@Z:PROC
;	COMDAT ??_C@_00CNPNBAHC@?$AA@
CONST	SEGMENT
??_C@_00CNPNBAHC@?$AA@ DB 00H				; `string'
; Function compile flags: /Ogtpy
CONST	ENDS
;	COMDAT ??0CvString@@QAE@PBD@Z
_TEXT	SEGMENT
_s$ = 8							; size = 4
??0CvString@@QAE@PBD@Z PROC				; CvString::CvString, COMDAT
; _this$ = ecx

; 25   : 	CvString(const char* s) : std::string(s ? s : "") {CvAssertMsg(s != NULL, "Passing NULL to std::string; possible heap corruption!");}

	mov	eax, DWORD PTR _s$[esp-4]
	push	esi
	mov	esi, ecx
	test	eax, eax
	jne	SHORT $LN4@CvString
	mov	eax, OFFSET ??_C@_00CNPNBAHC@?$AA@
$LN4@CvString:
	push	eax
	call	DWORD PTR __imp_??0?$basic_string@DU?$char_traits@D@std@@V?$allocator@D@2@@std@@QAE@PBD@Z
	mov	eax, esi
	pop	esi
	ret	4
??0CvString@@QAE@PBD@Z ENDP				; CvString::CvString
_TEXT	ENDS
PUBLIC	??1CvString@@QAE@XZ				; CvString::~CvString
; Function compile flags: /Ogtpy
;	COMDAT ??1CvString@@QAE@XZ
_TEXT	SEGMENT
??1CvString@@QAE@XZ PROC				; CvString::~CvString, COMDAT
; _this$ = ecx

; 28   : 	~CvString() {}

	jmp	DWORD PTR __imp_??1?$basic_string@DU?$char_traits@D@std@@V?$allocator@D@2@@std@@QAE@XZ
??1CvString@@QAE@XZ ENDP				; CvString::~CvString
_TEXT	ENDS
PUBLIC	??BCvString@@QBEPBDXZ				; CvString::operator char const *
; Function compile flags: /Ogtpy
;	COMDAT ??BCvString@@QBEPBDXZ
_TEXT	SEGMENT
??BCvString@@QBEPBDXZ PROC				; CvString::operator char const *, COMDAT
; _this$ = ecx

; 31   : 	operator const char*() const 	{ return c_str(); }												

	jmp	DWORD PTR __imp_?c_str@?$basic_string@DU?$char_traits@D@std@@V?$allocator@D@2@@std@@QBEPBDXZ
??BCvString@@QBEPBDXZ ENDP				; CvString::operator char const *
_TEXT	ENDS
PUBLIC	??4CvString@@QAEAAV0@PBD@Z			; CvString::operator=
EXTRN	__imp_?clear@?$basic_string@DU?$char_traits@D@std@@V?$allocator@D@2@@std@@QAEXXZ:PROC
EXTRN	__imp_?assign@?$basic_string@DU?$char_traits@D@std@@V?$allocator@D@2@@std@@QAEAAV12@PBD@Z:PROC
; Function compile flags: /Ogtpy
;	COMDAT ??4CvString@@QAEAAV0@PBD@Z
_TEXT	SEGMENT
_s$ = 8							; size = 4
??4CvString@@QAEAAV0@PBD@Z PROC				; CvString::operator=, COMDAT
; _this$ = ecx

; 37   : 	CvString& operator=( const char* s) { if (s) assign(s); else clear();	return *this; }	

	mov	eax, DWORD PTR _s$[esp-4]
	push	esi
	mov	esi, ecx
	test	eax, eax
	je	SHORT $LN2@operator
	push	eax
	call	DWORD PTR __imp_?assign@?$basic_string@DU?$char_traits@D@std@@V?$allocator@D@2@@std@@QAEAAV12@PBD@Z
	mov	eax, esi
	pop	esi
	ret	4
$LN2@operator:
	call	DWORD PTR __imp_?clear@?$basic_string@DU?$char_traits@D@std@@V?$allocator@D@2@@std@@QAEXXZ
	mov	eax, esi
	pop	esi
	ret	4
??4CvString@@QAEAAV0@PBD@Z ENDP				; CvString::operator=
_TEXT	ENDS
PUBLIC	?lIsMinorWarQuestWithMajorActive@CvLuaPlayer@@KAHPAUlua_State@@@Z ; CvLuaPlayer::lIsMinorWarQuestWithMajorActive
; Function compile flags: /Ogtpy
; File c:\users\enormousapplepie\documents\github\lekmod\lekmod_dll\cvgamecoredll_expansion2\lua\cvluaplayer.cpp
;	COMDAT ?lIsMinorWarQuestWithMajorActive@CvLuaPlayer@@KAHPAUlua_State@@@Z
_TEXT	SEGMENT
_L$ = 8							; size = 4
?lIsMinorWarQuestWithMajorActive@CvLuaPlayer@@KAHPAUlua_State@@@Z PROC ; CvLuaPlayer::lIsMinorWarQuestWithMajorActive, COMDAT

; 6423 : 	const bool bResult = false;
; 6424 : 	lua_pushboolean(L, bResult);

	mov	eax, DWORD PTR _L$[esp-4]
	push	0
	push	eax
	call	_lua_pushboolean
	add	esp, 8

; 6425 : 	return 1;

	mov	eax, 1

; 6426 : }

	ret	0
?lIsMinorWarQuestWithMajorActive@CvLuaPlayer@@KAHPAUlua_State@@@Z ENDP ; CvLuaPlayer::lIsMinorWarQuestWithMajorActive
_TEXT	ENDS
PUBLIC	?lGetMinorWarQuestWithMajorRemainingCount@CvLuaPlayer@@KAHPAUlua_State@@@Z ; CvLuaPlayer::lGetMinorWarQuestWithMajorRemainingCount
; Function compile flags: /Ogtpy
;	COMDAT ?lGetMinorWarQuestWithMajorRemainingCount@CvLuaPlayer@@KAHPAUlua_State@@@Z
_TEXT	SEGMENT
_L$ = 8							; size = 4
?lGetMinorWarQuestWithMajorRemainingCount@CvLuaPlayer@@KAHPAUlua_State@@@Z PROC ; CvLuaPlayer::lGetMinorWarQuestWithMajorRemainingCount, COMDAT

; 6430 : 	const int iResult = 0;
; 6431 : 	lua_pushinteger(L, iResult);

	mov	eax, DWORD PTR _L$[esp-4]
	push	0
	push	eax
	call	_lua_pushinteger
	add	esp, 8

; 6432 : 	return 1;

	mov	eax, 1

; 6433 : }

	ret	0
?lGetMinorWarQuestWithMajorRemainingCount@CvLuaPlayer@@KAHPAUlua_State@@@Z ENDP ; CvLuaPlayer::lGetMinorWarQuestWithMajorRemainingCount
_TEXT	ENDS
PUBLIC	??3ICvUnknown@@SGXPAX@Z				; ICvUnknown::operator delete
; Function compile flags: /Ogtpy
; File c:\users\enormousapplepie\documents\github\lekmod\lekmod_dll\cvgamecoredllutil\include\cvdllinterfaces.h
;	COMDAT ??3ICvUnknown@@SGXPAX@Z
_TEXT	SEGMENT
_p$ = 8							; size = 4
??3ICvUnknown@@SGXPAX@Z PROC				; ICvUnknown::operator delete, COMDAT

; 310  : 		if (p)

	mov	eax, DWORD PTR _p$[esp-4]
	test	eax, eax
	je	SHORT $LN1@operator@2

; 311  : 		{
; 312  : 			ICvUnknown* inst = (ICvUnknown*)(p);
; 313  : 			inst->Destroy();

	mov	ecx, DWORD PTR [eax]
	mov	edx, DWORD PTR [ecx+4]
	mov	DWORD PTR _p$[esp-4], eax
	jmp	edx
$LN1@operator@2:

; 314  : 		}
; 315  : 	}

	ret	4
??3ICvUnknown@@SGXPAX@Z ENDP				; ICvUnknown::operator delete
_TEXT	ENDS
PUBLIC	?GetInterfaceId@ICvUnit1@@SG?AU_GUID@@XZ	; ICvUnit1::GetInterfaceId
; Function compile flags: /Ogtpy
;	COMDAT ?GetInterfaceId@ICvUnit1@@SG?AU_GUID@@XZ
_TEXT	SEGMENT
$T242860 = 8						; size = 4
?GetInterfaceId@ICvUnit1@@SG?AU_GUID@@XZ PROC		; ICvUnit1::GetInterfaceId, COMDAT

; 1711 : 	static GUID DLLCALL GetInterfaceId() { return guidICvUnit1; }

	mov	eax, DWORD PTR $T242860[esp-4]
	mov	ecx, DWORD PTR _guidICvUnit1
	mov	edx, DWORD PTR _guidICvUnit1+4
	mov	DWORD PTR [eax], ecx
	mov	ecx, DWORD PTR _guidICvUnit1+8
	mov	DWORD PTR [eax+4], edx
	mov	edx, DWORD PTR _guidICvUnit1+12
	mov	DWORD PTR [eax+8], ecx
	mov	DWORD PTR [eax+12], edx
	ret	4
?GetInterfaceId@ICvUnit1@@SG?AU_GUID@@XZ ENDP		; ICvUnit1::GetInterfaceId
_TEXT	ENDS
PUBLIC	?lGetPowerHistory@CvLuaPlayer@@KAHPAUlua_State@@@Z ; CvLuaPlayer::lGetPowerHistory
; Function compile flags: /Ogtpy
; File c:\users\enormousapplepie\documents\github\lekmod\lekmod_dll\cvgamecoredll_expansion2\lua\cvluaplayer.cpp
;	COMDAT ?lGetPowerHistory@CvLuaPlayer@@KAHPAUlua_State@@@Z
_TEXT	SEGMENT
___formal$ = 8						; size = 4
?lGetPowerHistory@CvLuaPlayer@@KAHPAUlua_State@@@Z PROC	; CvLuaPlayer::lGetPowerHistory, COMDAT

; 7589 : 	return 0;

	xor	eax, eax

; 7590 : }

	ret	0
?lGetPowerHistory@CvLuaPlayer@@KAHPAUlua_State@@@Z ENDP	; CvLuaPlayer::lGetPowerHistory
_TEXT	ENDS
PUBLIC	?GetDescription@CvBaseInfo@@QBEPBDXZ		; CvBaseInfo::GetDescription
; Function compile flags: /Ogtpy
; File c:\users\enormousapplepie\documents\github\lekmod\lekmod_dll\cvgamecoredll_expansion2\cvinfos.h
;	COMDAT ?GetDescription@CvBaseInfo@@QBEPBDXZ
_TEXT	SEGMENT
?GetDescription@CvBaseInfo@@QBEPBDXZ PROC		; CvBaseInfo::GetDescription, COMDAT
; _this$ = ecx

; 64   : 		return m_strDescription.c_str();

	add	ecx, 36					; 00000024H
	jmp	DWORD PTR __imp_?c_str@?$basic_string@DU?$char_traits@D@std@@V?$allocator@D@2@@std@@QBEPBDXZ
?GetDescription@CvBaseInfo@@QBEPBDXZ ENDP		; CvBaseInfo::GetDescription
_TEXT	ENDS
PUBLIC	?getMap@CvGlobals@@QAEAAVCvMap@@XZ		; CvGlobals::getMap
; Function compile flags: /Ogtpy
; File c:\users\enormousapplepie\documents\github\lekmod\lekmod_dll\cvgamecoredll_expansion2\cvglobals.h
;	COMDAT ?getMap@CvGlobals@@QAEAAVCvMap@@XZ
_TEXT	SEGMENT
?getMap@CvGlobals@@QAEAAVCvMap@@XZ PROC			; CvGlobals::getMap, COMDAT
; _this$ = ecx

; 175  : 		return *m_map;    // inlined for perf reasons, do not use outside of dll

	mov	eax, DWORD PTR [ecx+52]

; 176  : 	}

	ret	0
?getMap@CvGlobals@@QAEAAVCvMap@@XZ ENDP			; CvGlobals::getMap
_TEXT	ENDS
PUBLIC	?getGame@CvGlobals@@QAEAAVCvGame@@XZ		; CvGlobals::getGame
; Function compile flags: /Ogtpy
;	COMDAT ?getGame@CvGlobals@@QAEAAVCvGame@@XZ
_TEXT	SEGMENT
?getGame@CvGlobals@@QAEAAVCvGame@@XZ PROC		; CvGlobals::getGame, COMDAT
; _this$ = ecx

; 183  : 		return *m_game;    // inlined for perf reasons, do not use outside of dll

	mov	eax, DWORD PTR [ecx+48]

; 184  : 	}

	ret	0
?getGame@CvGlobals@@QAEAAVCvGame@@XZ ENDP		; CvGlobals::getGame
_TEXT	ENDS
PUBLIC	??_H@YGXPAXIHP6EPAX0@Z@Z			; `vector constructor iterator'
; Function compile flags: /Ogtpy
;	COMDAT ??_H@YGXPAXIHP6EPAX0@Z@Z
_TEXT	SEGMENT
___t$ = 8						; size = 4
___s$ = 12						; size = 4
___n$ = 16						; size = 4
___f$ = 20						; size = 4
??_H@YGXPAXIHP6EPAX0@Z@Z PROC				; `vector constructor iterator', COMDAT
	push	edi
	mov	edi, DWORD PTR ___n$[esp]
	sub	edi, 1
	js	SHORT $LN1@vector
	push	ebx
	mov	ebx, DWORD PTR ___f$[esp+4]
	push	ebp
	mov	ebp, DWORD PTR ___s$[esp+8]
	push	esi
	mov	esi, DWORD PTR ___t$[esp+12]
	npad	7
$LL2@vector:
	mov	ecx, esi
	call	ebx
	add	esi, ebp
	sub	edi, 1
	jns	SHORT $LL2@vector
	pop	esi
	pop	ebp
	pop	ebx
$LN1@vector:
	pop	edi
	ret	16					; 00000010H
??_H@YGXPAXIHP6EPAX0@Z@Z ENDP				; `vector constructor iterator'
_TEXT	ENDS
PUBLIC	?getAI_TACTICAL_MAP_TEMP_ZONE_TURNS@CvGlobals@@QAEHXZ ; CvGlobals::getAI_TACTICAL_MAP_TEMP_ZONE_TURNS
; Function compile flags: /Ogtpy
;	COMDAT ?getAI_TACTICAL_MAP_TEMP_ZONE_TURNS@CvGlobals@@QAEHXZ
_TEXT	SEGMENT
?getAI_TACTICAL_MAP_TEMP_ZONE_TURNS@CvGlobals@@QAEHXZ PROC ; CvGlobals::getAI_TACTICAL_MAP_TEMP_ZONE_TURNS, COMDAT
; _this$ = ecx

; 1517 : 		return m_iAI_TACTICAL_MAP_TEMP_ZONE_TURNS;

	mov	eax, DWORD PTR [ecx+2452]

; 1518 : 	}

	ret	0
?getAI_TACTICAL_MAP_TEMP_ZONE_TURNS@CvGlobals@@QAEHXZ ENDP ; CvGlobals::getAI_TACTICAL_MAP_TEMP_ZONE_TURNS
_TEXT	ENDS
PUBLIC	?lGetPolicyEspionageModifier@CvLuaPlayer@@KAHPAUlua_State@@@Z ; CvLuaPlayer::lGetPolicyEspionageModifier
EXTRN	?GetStealTechSlowerModifier@CvPolicyEntry@@QBEHXZ:PROC ; CvPolicyEntry::GetStealTechSlowerModifier
EXTRN	?getPolicyInfo@CvGlobals@@QAEPAVCvPolicyEntry@@W4PolicyTypes@@@Z:PROC ; CvGlobals::getPolicyInfo
EXTRN	?gGlobals@@3VCvGlobals@@A:BYTE			; gGlobals
; Function compile flags: /Ogtpy
; File c:\users\enormousapplepie\documents\github\lekmod\lekmod_dll\cvgamecoredll_expansion2\lua\cvluaplayer.cpp
;	COMDAT ?lGetPolicyEspionageModifier@CvLuaPlayer@@KAHPAUlua_State@@@Z
_TEXT	SEGMENT
_L$ = 8							; size = 4
?lGetPolicyEspionageModifier@CvLuaPlayer@@KAHPAUlua_State@@@Z PROC ; CvLuaPlayer::lGetPolicyEspionageModifier, COMDAT

; 9729 : {

	push	esi

; 9730 : 	const PolicyTypes iIndex = (PolicyTypes)lua_tointeger(L, 2);

	mov	esi, DWORD PTR _L$[esp]
	push	2
	push	esi
	call	_lua_tointeger
	add	esp, 8

; 9731 : 	CvPolicyEntry* pkPolicyInfo = GC.getPolicyInfo(iIndex);

	push	eax
	mov	ecx, OFFSET ?gGlobals@@3VCvGlobals@@A	; gGlobals
	call	?getPolicyInfo@CvGlobals@@QAEPAVCvPolicyEntry@@W4PolicyTypes@@@Z ; CvGlobals::getPolicyInfo

; 9732 : 	CvAssertMsg(pkPolicyInfo, "pkPolicyInfo is null!");
; 9733 : 	if (!pkPolicyInfo)

	test	eax, eax
	jne	SHORT $LN1@lGetPolicy
	pop	esi

; 9740 : }

	ret	0
$LN1@lGetPolicy:

; 9734 : 	{
; 9735 : 		return 0;
; 9736 : 	}
; 9737 : 
; 9738 : 	lua_pushinteger(L, pkPolicyInfo->GetStealTechSlowerModifier());

	mov	ecx, eax
	call	?GetStealTechSlowerModifier@CvPolicyEntry@@QBEHXZ ; CvPolicyEntry::GetStealTechSlowerModifier
	push	eax
	push	esi
	call	_lua_pushinteger
	add	esp, 8

; 9739 : 	return 1;

	mov	eax, 1
	pop	esi

; 9740 : }

	ret	0
?lGetPolicyEspionageModifier@CvLuaPlayer@@KAHPAUlua_State@@@Z ENDP ; CvLuaPlayer::lGetPolicyEspionageModifier
_TEXT	ENDS
PUBLIC	?lGetPolicyEspionageCatchSpiesModifier@CvLuaPlayer@@KAHPAUlua_State@@@Z ; CvLuaPlayer::lGetPolicyEspionageCatchSpiesModifier
EXTRN	?GetCatchSpiesModifier@CvPolicyEntry@@QBEHXZ:PROC ; CvPolicyEntry::GetCatchSpiesModifier
; Function compile flags: /Ogtpy
;	COMDAT ?lGetPolicyEspionageCatchSpiesModifier@CvLuaPlayer@@KAHPAUlua_State@@@Z
_TEXT	SEGMENT
_L$ = 8							; size = 4
?lGetPolicyEspionageCatchSpiesModifier@CvLuaPlayer@@KAHPAUlua_State@@@Z PROC ; CvLuaPlayer::lGetPolicyEspionageCatchSpiesModifier, COMDAT

; 9744 : {

	push	esi

; 9745 : 	const PolicyTypes iIndex = (PolicyTypes)lua_tointeger(L, 2);

	mov	esi, DWORD PTR _L$[esp]
	push	2
	push	esi
	call	_lua_tointeger
	add	esp, 8

; 9746 : 	CvPolicyEntry* pkPolicyInfo = GC.getPolicyInfo(iIndex);

	push	eax
	mov	ecx, OFFSET ?gGlobals@@3VCvGlobals@@A	; gGlobals
	call	?getPolicyInfo@CvGlobals@@QAEPAVCvPolicyEntry@@W4PolicyTypes@@@Z ; CvGlobals::getPolicyInfo

; 9747 : 	CvAssertMsg(pkPolicyInfo, "pkPolicyInfo is null!");
; 9748 : 	if (!pkPolicyInfo)

	test	eax, eax
	jne	SHORT $LN1@lGetPolicy@2
	pop	esi

; 9755 : }

	ret	0
$LN1@lGetPolicy@2:

; 9749 : 	{
; 9750 : 		return 0;
; 9751 : 	}
; 9752 : 
; 9753 : 	lua_pushinteger(L, pkPolicyInfo->GetCatchSpiesModifier());

	mov	ecx, eax
	call	?GetCatchSpiesModifier@CvPolicyEntry@@QBEHXZ ; CvPolicyEntry::GetCatchSpiesModifier
	push	eax
	push	esi
	call	_lua_pushinteger
	add	esp, 8

; 9754 : 	return 1;

	mov	eax, 1
	pop	esi

; 9755 : }

	ret	0
?lGetPolicyEspionageCatchSpiesModifier@CvLuaPlayer@@KAHPAUlua_State@@@Z ENDP ; CvLuaPlayer::lGetPolicyEspionageCatchSpiesModifier
_TEXT	ENDS
PUBLIC	??ROpinionEval@@QBE_NABUOpinion@@0@Z		; OpinionEval::operator()
; Function compile flags: /Ogtpy
;	COMDAT ??ROpinionEval@@QBE_NABUOpinion@@0@Z
_TEXT	SEGMENT
_a$ = 8							; size = 4
_b$ = 12						; size = 4
??ROpinionEval@@QBE_NABUOpinion@@0@Z PROC		; OpinionEval::operator(), COMDAT
; _this$ = ecx

; 9854 : 		return a.m_iValue < b.m_iValue;

	mov	eax, DWORD PTR _a$[esp-4]
	mov	ecx, DWORD PTR [eax+80]
	mov	edx, DWORD PTR _b$[esp-4]
	xor	eax, eax
	cmp	ecx, DWORD PTR [edx+80]
	setl	al

; 9855 : 	}

	ret	8
??ROpinionEval@@QBE_NABUOpinion@@0@Z ENDP		; OpinionEval::operator()
_TEXT	ENDS
PUBLIC	??0Opinion@@QAE@XZ				; Opinion::Opinion
EXTRN	__imp_??0String@Localization@@QAE@XZ:PROC
; Function compile flags: /Ogtpy
;	COMDAT ??0Opinion@@QAE@XZ
_TEXT	SEGMENT
??0Opinion@@QAE@XZ PROC					; Opinion::Opinion, COMDAT
; _this$ = ecx
	push	esi
	mov	esi, ecx
	call	DWORD PTR __imp_??0String@Localization@@QAE@XZ
	mov	eax, esi
	pop	esi
	ret	0
??0Opinion@@QAE@XZ ENDP					; Opinion::Opinion
_TEXT	ENDS
PUBLIC	??1Opinion@@QAE@XZ				; Opinion::~Opinion
EXTRN	__imp_??1String@Localization@@UAE@XZ:PROC
; Function compile flags: /Ogtpy
;	COMDAT ??1Opinion@@QAE@XZ
_TEXT	SEGMENT
??1Opinion@@QAE@XZ PROC					; Opinion::~Opinion, COMDAT
; _this$ = ecx
	jmp	DWORD PTR __imp_??1String@Localization@@UAE@XZ
??1Opinion@@QAE@XZ ENDP					; Opinion::~Opinion
_TEXT	ENDS
PUBLIC	?lGetWarmongerPreviewString@CvLuaPlayer@@KAHPAUlua_State@@@Z ; CvLuaPlayer::lGetWarmongerPreviewString
EXTRN	_lua_pushstring:PROC
EXTRN	?GetWarmongerPreviewString@CvDiplomacyAIHelpers@@YA?AVCvString@@W4PlayerTypes@@@Z:PROC ; CvDiplomacyAIHelpers::GetWarmongerPreviewString
;	COMDAT xdata$x
; File c:\users\enormousapplepie\documents\github\lekmod\lekmod_dll\cvgamecoredllutil\include\cvstring.h
xdata$x	SEGMENT
__unwindtable$?lGetWarmongerPreviewString@CvLuaPlayer@@KAHPAUlua_State@@@Z DD 0ffffffffH
	DD	FLAT:__unwindfunclet$?lGetWarmongerPreviewString@CvLuaPlayer@@KAHPAUlua_State@@@Z$0
__ehfuncinfo$?lGetWarmongerPreviewString@CvLuaPlayer@@KAHPAUlua_State@@@Z DD 019930522H
	DD	01H
	DD	FLAT:__unwindtable$?lGetWarmongerPreviewString@CvLuaPlayer@@KAHPAUlua_State@@@Z
	DD	2 DUP(00H)
	DD	2 DUP(00H)
	DD	00H
	DD	01H
; Function compile flags: /Ogtpy
; File c:\users\enormousapplepie\documents\github\lekmod\lekmod_dll\cvgamecoredll_expansion2\lua\cvluaplayer.cpp
xdata$x	ENDS
;	COMDAT ?lGetWarmongerPreviewString@CvLuaPlayer@@KAHPAUlua_State@@@Z
_TEXT	SEGMENT
$T242902 = -40						; size = 28
__$EHRec$ = -12						; size = 12
_L$ = 8							; size = 4
?lGetWarmongerPreviewString@CvLuaPlayer@@KAHPAUlua_State@@@Z PROC ; CvLuaPlayer::lGetWarmongerPreviewString, COMDAT

; 11289: {

	push	-1
	push	__ehhandler$?lGetWarmongerPreviewString@CvLuaPlayer@@KAHPAUlua_State@@@Z
	mov	eax, DWORD PTR fs:0
	push	eax
	mov	DWORD PTR fs:0, esp
	sub	esp, 28					; 0000001cH
	push	esi

; 11290: 	const PlayerTypes eOwner = (PlayerTypes) lua_tointeger(L, 2);

	mov	esi, DWORD PTR _L$[esp+40]
	push	2
	push	esi
	call	_lua_tointeger

; 11291: 	lua_pushstring(L, CvDiplomacyAIHelpers::GetWarmongerPreviewString(eOwner));

	push	eax
	lea	eax, DWORD PTR $T242902[esp+56]
	push	eax
	call	?GetWarmongerPreviewString@CvDiplomacyAIHelpers@@YA?AVCvString@@W4PlayerTypes@@@Z ; CvDiplomacyAIHelpers::GetWarmongerPreviewString
	add	esp, 16					; 00000010H
	mov	ecx, eax
	mov	DWORD PTR __$EHRec$[esp+52], 0
	call	DWORD PTR __imp_?c_str@?$basic_string@DU?$char_traits@D@std@@V?$allocator@D@2@@std@@QBEPBDXZ
	push	eax
	push	esi
	call	_lua_pushstring
	add	esp, 8
	lea	ecx, DWORD PTR $T242902[esp+44]
	mov	DWORD PTR __$EHRec$[esp+52], -1
	call	DWORD PTR __imp_??1?$basic_string@DU?$char_traits@D@std@@V?$allocator@D@2@@std@@QAE@XZ

; 11292: 	return 1;
; 11293: }

	mov	ecx, DWORD PTR __$EHRec$[esp+44]
	mov	eax, 1
	pop	esi
	mov	DWORD PTR fs:0, ecx
	add	esp, 40					; 00000028H
	ret	0
_TEXT	ENDS
;	COMDAT text$x
text$x	SEGMENT
__unwindfunclet$?lGetWarmongerPreviewString@CvLuaPlayer@@KAHPAUlua_State@@@Z$0:
	lea	ecx, DWORD PTR $T242902[ebp]
	jmp	??1CvString@@QAE@XZ			; CvString::~CvString
__ehhandler$?lGetWarmongerPreviewString@CvLuaPlayer@@KAHPAUlua_State@@@Z:
	mov	eax, OFFSET __ehfuncinfo$?lGetWarmongerPreviewString@CvLuaPlayer@@KAHPAUlua_State@@@Z
	jmp	___CxxFrameHandler3
text$x	ENDS
?lGetWarmongerPreviewString@CvLuaPlayer@@KAHPAUlua_State@@@Z ENDP ; CvLuaPlayer::lGetWarmongerPreviewString
PUBLIC	?lGetLiberationPreviewString@CvLuaPlayer@@KAHPAUlua_State@@@Z ; CvLuaPlayer::lGetLiberationPreviewString
EXTRN	?GetLiberationPreviewString@CvDiplomacyAIHelpers@@YA?AVCvString@@W4PlayerTypes@@@Z:PROC ; CvDiplomacyAIHelpers::GetLiberationPreviewString
;	COMDAT xdata$x
; File c:\users\enormousapplepie\documents\github\lekmod\lekmod_dll\cvgamecoredllutil\include\cvstring.h
xdata$x	SEGMENT
__unwindtable$?lGetLiberationPreviewString@CvLuaPlayer@@KAHPAUlua_State@@@Z DD 0ffffffffH
	DD	FLAT:__unwindfunclet$?lGetLiberationPreviewString@CvLuaPlayer@@KAHPAUlua_State@@@Z$0
__ehfuncinfo$?lGetLiberationPreviewString@CvLuaPlayer@@KAHPAUlua_State@@@Z DD 019930522H
	DD	01H
	DD	FLAT:__unwindtable$?lGetLiberationPreviewString@CvLuaPlayer@@KAHPAUlua_State@@@Z
	DD	2 DUP(00H)
	DD	2 DUP(00H)
	DD	00H
	DD	01H
; Function compile flags: /Ogtpy
; File c:\users\enormousapplepie\documents\github\lekmod\lekmod_dll\cvgamecoredll_expansion2\lua\cvluaplayer.cpp
xdata$x	ENDS
;	COMDAT ?lGetLiberationPreviewString@CvLuaPlayer@@KAHPAUlua_State@@@Z
_TEXT	SEGMENT
$T242921 = -40						; size = 28
__$EHRec$ = -12						; size = 12
_L$ = 8							; size = 4
?lGetLiberationPreviewString@CvLuaPlayer@@KAHPAUlua_State@@@Z PROC ; CvLuaPlayer::lGetLiberationPreviewString, COMDAT

; 11296: {

	push	-1
	push	__ehhandler$?lGetLiberationPreviewString@CvLuaPlayer@@KAHPAUlua_State@@@Z
	mov	eax, DWORD PTR fs:0
	push	eax
	mov	DWORD PTR fs:0, esp
	sub	esp, 28					; 0000001cH
	push	esi

; 11297: 	const PlayerTypes eOriginalOwner = (PlayerTypes) lua_tointeger(L, 2);

	mov	esi, DWORD PTR _L$[esp+40]
	push	2
	push	esi
	call	_lua_tointeger

; 11298: 	lua_pushstring(L, CvDiplomacyAIHelpers::GetLiberationPreviewString(eOriginalOwner));

	push	eax
	lea	eax, DWORD PTR $T242921[esp+56]
	push	eax
	call	?GetLiberationPreviewString@CvDiplomacyAIHelpers@@YA?AVCvString@@W4PlayerTypes@@@Z ; CvDiplomacyAIHelpers::GetLiberationPreviewString
	add	esp, 16					; 00000010H
	mov	ecx, eax
	mov	DWORD PTR __$EHRec$[esp+52], 0
	call	DWORD PTR __imp_?c_str@?$basic_string@DU?$char_traits@D@std@@V?$allocator@D@2@@std@@QBEPBDXZ
	push	eax
	push	esi
	call	_lua_pushstring
	add	esp, 8
	lea	ecx, DWORD PTR $T242921[esp+44]
	mov	DWORD PTR __$EHRec$[esp+52], -1
	call	DWORD PTR __imp_??1?$basic_string@DU?$char_traits@D@std@@V?$allocator@D@2@@std@@QAE@XZ

; 11299: 	return 1;
; 11300: }

	mov	ecx, DWORD PTR __$EHRec$[esp+44]
	mov	eax, 1
	pop	esi
	mov	DWORD PTR fs:0, ecx
	add	esp, 40					; 00000028H
	ret	0
_TEXT	ENDS
;	COMDAT text$x
text$x	SEGMENT
__unwindfunclet$?lGetLiberationPreviewString@CvLuaPlayer@@KAHPAUlua_State@@@Z$0:
	lea	ecx, DWORD PTR $T242921[ebp]
	jmp	??1CvString@@QAE@XZ			; CvString::~CvString
__ehhandler$?lGetLiberationPreviewString@CvLuaPlayer@@KAHPAUlua_State@@@Z:
	mov	eax, OFFSET __ehfuncinfo$?lGetLiberationPreviewString@CvLuaPlayer@@KAHPAUlua_State@@@Z
	jmp	___CxxFrameHandler3
text$x	ENDS
?lGetLiberationPreviewString@CvLuaPlayer@@KAHPAUlua_State@@@Z ENDP ; CvLuaPlayer::lGetLiberationPreviewString
PUBLIC	??1?$auto_ptr@VICvEnumerator@@@std@@QAE@XZ	; std::auto_ptr<ICvEnumerator>::~auto_ptr<ICvEnumerator>
; Function compile flags: /Ogtpy
; File c:\program files (x86)\microsoft visual studio 9.0\vc\include\memory
;	COMDAT ??1?$auto_ptr@VICvEnumerator@@@std@@QAE@XZ
_TEXT	SEGMENT
??1?$auto_ptr@VICvEnumerator@@@std@@QAE@XZ PROC		; std::auto_ptr<ICvEnumerator>::~auto_ptr<ICvEnumerator>, COMDAT
; _this$ = ecx

; 721  : 		delete _Myptr;

	mov	eax, DWORD PTR [ecx]
	test	eax, eax
	je	SHORT $LN3@auto_ptr
	mov	ecx, DWORD PTR [eax]
	mov	edx, DWORD PTR [ecx+4]
	push	eax
	call	edx
$LN3@auto_ptr:

; 722  : 		}

	ret	0
??1?$auto_ptr@VICvEnumerator@@@std@@QAE@XZ ENDP		; std::auto_ptr<ICvEnumerator>::~auto_ptr<ICvEnumerator>
_TEXT	ENDS
PUBLIC	??A?$BaseVector@H$00@@QBEABHI@Z			; BaseVector<int,1>::operator[]
; Function compile flags: /Ogtpy
; File c:\users\enormousapplepie\documents\github\lekmod\lekmod_dll\fireplace\include\fireworks\ffastvector.h
;	COMDAT ??A?$BaseVector@H$00@@QBEABHI@Z
_TEXT	SEGMENT
_ui$ = 8						; size = 4
??A?$BaseVector@H$00@@QBEABHI@Z PROC			; BaseVector<int,1>::operator[], COMDAT
; _this$ = ecx

; 135  : 		FAssert(ui < m_uiCurrSize);
; 136  : 		return m_pData[ui];

	mov	eax, DWORD PTR [ecx]
	mov	ecx, DWORD PTR _ui$[esp-4]
	lea	eax, DWORD PTR [eax+ecx*4]

; 137  : 	};

	ret	4
??A?$BaseVector@H$00@@QBEABHI@Z ENDP			; BaseVector<int,1>::operator[]
_TEXT	ENDS
PUBLIC	?size@?$BaseVector@H$00@@QBEIXZ			; BaseVector<int,1>::size
; Function compile flags: /Ogtpy
;	COMDAT ?size@?$BaseVector@H$00@@QBEIXZ
_TEXT	SEGMENT
?size@?$BaseVector@H$00@@QBEIXZ PROC			; BaseVector<int,1>::size, COMDAT
; _this$ = ecx

; 169  : 		return m_uiCurrSize;

	mov	eax, DWORD PTR [ecx+4]

; 170  : 	};

	ret	0
?size@?$BaseVector@H$00@@QBEIXZ ENDP			; BaseVector<int,1>::size
_TEXT	ENDS
PUBLIC	?size@?$vector@VCvString@@V?$allocator@VCvString@@@std@@@std@@QBEIXZ ; std::vector<CvString,std::allocator<CvString> >::size
; Function compile flags: /Ogtpy
; File c:\program files (x86)\microsoft visual studio 9.0\vc\include\vector
;	COMDAT ?size@?$vector@VCvString@@V?$allocator@VCvString@@@std@@@std@@QBEIXZ
_TEXT	SEGMENT
?size@?$vector@VCvString@@V?$allocator@VCvString@@@std@@@std@@QBEIXZ PROC ; std::vector<CvString,std::allocator<CvString> >::size, COMDAT
; _this$ = ecx

; 725  : 		{	// return length of sequence

	push	esi

; 726  : 		return (_Mylast - _Myfirst);

	mov	esi, DWORD PTR [ecx+8]
	sub	esi, DWORD PTR [ecx+4]
	mov	eax, -1840700269			; 92492493H
	imul	esi
	add	edx, esi
	sar	edx, 4
	mov	eax, edx
	shr	eax, 31					; 0000001fH
	add	eax, edx
	pop	esi

; 727  : 		}

	ret	0
?size@?$vector@VCvString@@V?$allocator@VCvString@@@std@@@std@@QBEIXZ ENDP ; std::vector<CvString,std::allocator<CvString> >::size
_TEXT	ENDS
PUBLIC	??A?$vector@VCvString@@V?$allocator@VCvString@@@std@@@std@@QAEAAVCvString@@I@Z ; std::vector<CvString,std::allocator<CvString> >::operator[]
; Function compile flags: /Ogtpy
;	COMDAT ??A?$vector@VCvString@@V?$allocator@VCvString@@@std@@@std@@QAEAAVCvString@@I@Z
_TEXT	SEGMENT
__Pos$ = 8						; size = 4
??A?$vector@VCvString@@V?$allocator@VCvString@@@std@@@std@@QAEAAVCvString@@I@Z PROC ; std::vector<CvString,std::allocator<CvString> >::operator[], COMDAT
; _this$ = ecx

; 775  : 
; 776  :  #if _HAS_ITERATOR_DEBUGGING
; 777  : 		if (size() <= _Pos)
; 778  : 			{
; 779  : 			_DEBUG_ERROR("vector subscript out of range");
; 780  : 			_SCL_SECURE_OUT_OF_RANGE;
; 781  : 			}
; 782  :  #endif /* _HAS_ITERATOR_DEBUGGING */
; 783  : 		_SCL_SECURE_VALIDATE_RANGE(_Pos < size());
; 784  : 
; 785  : 		return (*(_Myfirst + _Pos));

	mov	eax, DWORD PTR __Pos$[esp-4]
	lea	edx, DWORD PTR [eax*8]
	sub	edx, eax
	mov	eax, DWORD PTR [ecx+4]
	lea	eax, DWORD PTR [eax+edx*4]

; 786  : 		}

	ret	4
??A?$vector@VCvString@@V?$allocator@VCvString@@@std@@@std@@QAEAAVCvString@@I@Z ENDP ; std::vector<CvString,std::allocator<CvString> >::operator[]
_TEXT	ENDS
PUBLIC	??0?$FObjectHandle@VCvUnit@@@@QAE@XZ		; FObjectHandle<CvUnit>::FObjectHandle<CvUnit>
; Function compile flags: /Ogtpy
; File c:\users\enormousapplepie\documents\github\lekmod\lekmod_dll\fireplace\include\fireworks\fobjecthandle.h
;	COMDAT ??0?$FObjectHandle@VCvUnit@@@@QAE@XZ
_TEXT	SEGMENT
??0?$FObjectHandle@VCvUnit@@@@QAE@XZ PROC		; FObjectHandle<CvUnit>::FObjectHandle<CvUnit>, COMDAT
; _this$ = ecx

; 215  : 	{

	mov	eax, ecx
	mov	DWORD PTR [eax], 0
	mov	BYTE PTR [eax+4], 0

; 216  : 		OBJECT_HANDLE_STACK;
; 217  : 	}

	ret	0
??0?$FObjectHandle@VCvUnit@@@@QAE@XZ ENDP		; FObjectHandle<CvUnit>::FObjectHandle<CvUnit>
_TEXT	ENDS
PUBLIC	?size@?$_Tree@V?$_Tmap_traits@IHU?$less@I@std@@V?$allocator@U?$pair@$$CBIH@std@@@2@$0A@@std@@@std@@QBEIXZ ; std::_Tree<std::_Tmap_traits<unsigned int,int,std::less<unsigned int>,std::allocator<std::pair<unsigned int const ,int> >,0> >::size
; Function compile flags: /Ogtpy
; File c:\program files (x86)\microsoft visual studio 9.0\vc\include\xtree
;	COMDAT ?size@?$_Tree@V?$_Tmap_traits@IHU?$less@I@std@@V?$allocator@U?$pair@$$CBIH@std@@@2@$0A@@std@@@std@@QBEIXZ
_TEXT	SEGMENT
?size@?$_Tree@V?$_Tmap_traits@IHU?$less@I@std@@V?$allocator@U?$pair@$$CBIH@std@@@2@$0A@@std@@@std@@QBEIXZ PROC ; std::_Tree<std::_Tmap_traits<unsigned int,int,std::less<unsigned int>,std::allocator<std::pair<unsigned int const ,int> >,0> >::size, COMDAT
; _this$ = ecx

; 601  : 		return (_Mysize);

	mov	eax, DWORD PTR [ecx+8]

; 602  : 		}

	ret	0
?size@?$_Tree@V?$_Tmap_traits@IHU?$less@I@std@@V?$allocator@U?$pair@$$CBIH@std@@@2@$0A@@std@@@std@@QBEIXZ ENDP ; std::_Tree<std::_Tmap_traits<unsigned int,int,std::less<unsigned int>,std::allocator<std::pair<unsigned int const ,int> >,0> >::size
_TEXT	ENDS
PUBLIC	??A?$BaseVector@VCvEspionageSpy@@$0A@@@QAEAAVCvEspionageSpy@@I@Z ; BaseVector<CvEspionageSpy,0>::operator[]
; Function compile flags: /Ogtpy
; File c:\users\enormousapplepie\documents\github\lekmod\lekmod_dll\fireplace\include\fireworks\ffastvector.h
;	COMDAT ??A?$BaseVector@VCvEspionageSpy@@$0A@@@QAEAAVCvEspionageSpy@@I@Z
_TEXT	SEGMENT
_ui$ = 8						; size = 4
??A?$BaseVector@VCvEspionageSpy@@$0A@@@QAEAAVCvEspionageSpy@@I@Z PROC ; BaseVector<CvEspionageSpy,0>::operator[], COMDAT
; _this$ = ecx

; 129  : 		FAssert(ui < m_uiCurrSize);
; 130  : 		return m_pData[ui];

	mov	eax, DWORD PTR _ui$[esp-4]
	lea	edx, DWORD PTR [eax*8]
	sub	edx, eax
	mov	eax, DWORD PTR [ecx]
	lea	eax, DWORD PTR [eax+edx*4]

; 131  : 	};

	ret	4
??A?$BaseVector@VCvEspionageSpy@@$0A@@@QAEAAVCvEspionageSpy@@I@Z ENDP ; BaseVector<CvEspionageSpy,0>::operator[]
_TEXT	ENDS
PUBLIC	?size@?$BaseVector@VCvEspionageSpy@@$0A@@@QBEIXZ ; BaseVector<CvEspionageSpy,0>::size
; Function compile flags: /Ogtpy
;	COMDAT ?size@?$BaseVector@VCvEspionageSpy@@$0A@@@QBEIXZ
_TEXT	SEGMENT
?size@?$BaseVector@VCvEspionageSpy@@$0A@@@QBEIXZ PROC	; BaseVector<CvEspionageSpy,0>::size, COMDAT
; _this$ = ecx

; 169  : 		return m_uiCurrSize;

	mov	eax, DWORD PTR [ecx+4]

; 170  : 	};

	ret	0
?size@?$BaseVector@VCvEspionageSpy@@$0A@@@QBEIXZ ENDP	; BaseVector<CvEspionageSpy,0>::size
_TEXT	ENDS
PUBLIC	??A?$Array@H$0BG@@Firaxis@@QAEAAHI@Z		; Firaxis::Array<int,22>::operator[]
; Function compile flags: /Ogtpy
; File c:\users\enormousapplepie\documents\github\lekmod\lekmod_dll\fireplace\include\fireworks\farray.h
;	COMDAT ??A?$Array@H$0BG@@Firaxis@@QAEAAHI@Z
_TEXT	SEGMENT
_i$ = 8							; size = 4
??A?$Array@H$0BG@@Firaxis@@QAEAAHI@Z PROC		; Firaxis::Array<int,22>::operator[], COMDAT
; _this$ = ecx

; 157  : #		ifdef _MSC_VER
; 158  : #			pragma warning ( push )
; 159  : #			pragma warning ( disable : 6385 ) //  Invalid data: accessing 'm_akItems' the readable size is X but X+N bytes might be read
; 160  : 			// sad day. 
; 161  : #		endif//_MSC_VER
; 162  : 		    assert( i < ARRAY_SIZE );
; 163  : 		    return ( m_akItems[ i ] );

	mov	eax, DWORD PTR _i$[esp-4]
	lea	eax, DWORD PTR [ecx+eax*4]

; 164  : #		ifdef _MSC_VER
; 165  : #		pragma warning ( pop )
; 166  : #		endif//_MSC_VER
; 167  : 		}

	ret	4
??A?$Array@H$0BG@@Firaxis@@QAEAAHI@Z ENDP		; Firaxis::Array<int,22>::operator[]
_TEXT	ENDS
PUBLIC	?size@?$vector@UIntrigueNotificationMessage@@V?$allocator@UIntrigueNotificationMessage@@@std@@@std@@QBEIXZ ; std::vector<IntrigueNotificationMessage,std::allocator<IntrigueNotificationMessage> >::size
; Function compile flags: /Ogtpy
; File c:\program files (x86)\microsoft visual studio 9.0\vc\include\vector
;	COMDAT ?size@?$vector@UIntrigueNotificationMessage@@V?$allocator@UIntrigueNotificationMessage@@@std@@@std@@QBEIXZ
_TEXT	SEGMENT
?size@?$vector@UIntrigueNotificationMessage@@V?$allocator@UIntrigueNotificationMessage@@@std@@@std@@QBEIXZ PROC ; std::vector<IntrigueNotificationMessage,std::allocator<IntrigueNotificationMessage> >::size, COMDAT
; _this$ = ecx

; 726  : 		return (_Mylast - _Myfirst);

	mov	edx, DWORD PTR [ecx+8]
	sub	edx, DWORD PTR [ecx+4]
	mov	eax, 2021161081				; 78787879H
	imul	edx
	sar	edx, 5
	mov	eax, edx
	shr	eax, 31					; 0000001fH
	add	eax, edx

; 727  : 		}

	ret	0
?size@?$vector@UIntrigueNotificationMessage@@V?$allocator@UIntrigueNotificationMessage@@@std@@@std@@QBEIXZ ENDP ; std::vector<IntrigueNotificationMessage,std::allocator<IntrigueNotificationMessage> >::size
_TEXT	ENDS
PUBLIC	??A?$vector@UIntrigueNotificationMessage@@V?$allocator@UIntrigueNotificationMessage@@@std@@@std@@QAEAAUIntrigueNotificationMessage@@I@Z ; std::vector<IntrigueNotificationMessage,std::allocator<IntrigueNotificationMessage> >::operator[]
; Function compile flags: /Ogtpy
;	COMDAT ??A?$vector@UIntrigueNotificationMessage@@V?$allocator@UIntrigueNotificationMessage@@@std@@@std@@QAEAAUIntrigueNotificationMessage@@I@Z
_TEXT	SEGMENT
__Pos$ = 8						; size = 4
??A?$vector@UIntrigueNotificationMessage@@V?$allocator@UIntrigueNotificationMessage@@@std@@@std@@QAEAAUIntrigueNotificationMessage@@I@Z PROC ; std::vector<IntrigueNotificationMessage,std::allocator<IntrigueNotificationMessage> >::operator[], COMDAT
; _this$ = ecx

; 775  : 
; 776  :  #if _HAS_ITERATOR_DEBUGGING
; 777  : 		if (size() <= _Pos)
; 778  : 			{
; 779  : 			_DEBUG_ERROR("vector subscript out of range");
; 780  : 			_SCL_SECURE_OUT_OF_RANGE;
; 781  : 			}
; 782  :  #endif /* _HAS_ITERATOR_DEBUGGING */
; 783  : 		_SCL_SECURE_VALIDATE_RANGE(_Pos < size());
; 784  : 
; 785  : 		return (*(_Myfirst + _Pos));

	mov	eax, DWORD PTR __Pos$[esp-4]
	mov	edx, eax
	shl	edx, 4
	add	edx, eax
	mov	eax, DWORD PTR [ecx+4]
	lea	eax, DWORD PTR [eax+edx*4]

; 786  : 		}

	ret	4
??A?$vector@UIntrigueNotificationMessage@@V?$allocator@UIntrigueNotificationMessage@@@std@@@std@@QAEAAUIntrigueNotificationMessage@@I@Z ENDP ; std::vector<IntrigueNotificationMessage,std::allocator<IntrigueNotificationMessage> >::operator[]
_TEXT	ENDS
PUBLIC	??A?$BaseVector@UTradeConnection@@$0A@@@QAEAAUTradeConnection@@I@Z ; BaseVector<TradeConnection,0>::operator[]
; Function compile flags: /Ogtpy
; File c:\users\enormousapplepie\documents\github\lekmod\lekmod_dll\fireplace\include\fireworks\ffastvector.h
;	COMDAT ??A?$BaseVector@UTradeConnection@@$0A@@@QAEAAUTradeConnection@@I@Z
_TEXT	SEGMENT
_ui$ = 8						; size = 4
??A?$BaseVector@UTradeConnection@@$0A@@@QAEAAUTradeConnection@@I@Z PROC ; BaseVector<TradeConnection,0>::operator[], COMDAT
; _this$ = ecx

; 129  : 		FAssert(ui < m_uiCurrSize);
; 130  : 		return m_pData[ui];

	mov	eax, DWORD PTR _ui$[esp-4]
	imul	eax, 444				; 000001bcH
	add	eax, DWORD PTR [ecx]

; 131  : 	};

	ret	4
??A?$BaseVector@UTradeConnection@@$0A@@@QAEAAUTradeConnection@@I@Z ENDP ; BaseVector<TradeConnection,0>::operator[]
_TEXT	ENDS
PUBLIC	?size@?$BaseVector@UTradeConnection@@$0A@@@QBEIXZ ; BaseVector<TradeConnection,0>::size
; Function compile flags: /Ogtpy
;	COMDAT ?size@?$BaseVector@UTradeConnection@@$0A@@@QBEIXZ
_TEXT	SEGMENT
?size@?$BaseVector@UTradeConnection@@$0A@@@QBEIXZ PROC	; BaseVector<TradeConnection,0>::size, COMDAT
; _this$ = ecx

; 169  : 		return m_uiCurrSize;

	mov	eax, DWORD PTR [ecx+4]

; 170  : 	};

	ret	0
?size@?$BaseVector@UTradeConnection@@$0A@@@QBEIXZ ENDP	; BaseVector<TradeConnection,0>::size
_TEXT	ENDS
PUBLIC	??A?$BaseVector@VCvGreatWork@@$0A@@@QAEAAVCvGreatWork@@I@Z ; BaseVector<CvGreatWork,0>::operator[]
; Function compile flags: /Ogtpy
;	COMDAT ??A?$BaseVector@VCvGreatWork@@$0A@@@QAEAAVCvGreatWork@@I@Z
_TEXT	SEGMENT
_ui$ = 8						; size = 4
??A?$BaseVector@VCvGreatWork@@$0A@@@QAEAAVCvGreatWork@@I@Z PROC ; BaseVector<CvGreatWork,0>::operator[], COMDAT
; _this$ = ecx

; 129  : 		FAssert(ui < m_uiCurrSize);
; 130  : 		return m_pData[ui];

	mov	eax, DWORD PTR _ui$[esp-4]
	lea	eax, DWORD PTR [eax+eax*2]
	shl	eax, 4
	add	eax, DWORD PTR [ecx]

; 131  : 	};

	ret	4
??A?$BaseVector@VCvGreatWork@@$0A@@@QAEAAVCvGreatWork@@I@Z ENDP ; BaseVector<CvGreatWork,0>::operator[]
_TEXT	ENDS
PUBLIC	??0?$auto_ptr@VICvUnit1@@@std@@QAE@PAVICvUnit1@@@Z ; std::auto_ptr<ICvUnit1>::auto_ptr<ICvUnit1>
; Function compile flags: /Ogtpy
; File c:\program files (x86)\microsoft visual studio 9.0\vc\include\memory
;	COMDAT ??0?$auto_ptr@VICvUnit1@@@std@@QAE@PAVICvUnit1@@@Z
_TEXT	SEGMENT
__Ptr$ = 8						; size = 4
??0?$auto_ptr@VICvUnit1@@@std@@QAE@PAVICvUnit1@@@Z PROC	; std::auto_ptr<ICvUnit1>::auto_ptr<ICvUnit1>, COMDAT
; _this$ = ecx

; 661  : 		{	// construct from object pointer

	mov	eax, ecx
	mov	ecx, DWORD PTR __Ptr$[esp-4]
	mov	DWORD PTR [eax], ecx

; 662  : 		}

	ret	4
??0?$auto_ptr@VICvUnit1@@@std@@QAE@PAVICvUnit1@@@Z ENDP	; std::auto_ptr<ICvUnit1>::auto_ptr<ICvUnit1>
_TEXT	ENDS
PUBLIC	??1?$auto_ptr@VICvUnit1@@@std@@QAE@XZ		; std::auto_ptr<ICvUnit1>::~auto_ptr<ICvUnit1>
; Function compile flags: /Ogtpy
;	COMDAT ??1?$auto_ptr@VICvUnit1@@@std@@QAE@XZ
_TEXT	SEGMENT
??1?$auto_ptr@VICvUnit1@@@std@@QAE@XZ PROC		; std::auto_ptr<ICvUnit1>::~auto_ptr<ICvUnit1>, COMDAT
; _this$ = ecx

; 721  : 		delete _Myptr;

	mov	eax, DWORD PTR [ecx]
	test	eax, eax
	je	SHORT $LN3@auto_ptr@2
	mov	ecx, DWORD PTR [eax]
	mov	edx, DWORD PTR [ecx+4]
	push	eax
	call	edx
$LN3@auto_ptr@2:

; 722  : 		}

	ret	0
??1?$auto_ptr@VICvUnit1@@@std@@QAE@XZ ENDP		; std::auto_ptr<ICvUnit1>::~auto_ptr<ICvUnit1>
_TEXT	ENDS
PUBLIC	?get@?$auto_ptr@VICvUnit1@@@std@@QBEPAVICvUnit1@@XZ ; std::auto_ptr<ICvUnit1>::get
; Function compile flags: /Ogtpy
;	COMDAT ?get@?$auto_ptr@VICvUnit1@@@std@@QBEPAVICvUnit1@@XZ
_TEXT	SEGMENT
?get@?$auto_ptr@VICvUnit1@@@std@@QBEPAVICvUnit1@@XZ PROC ; std::auto_ptr<ICvUnit1>::get, COMDAT
; _this$ = ecx

; 750  : 		return (_Myptr);

	mov	eax, DWORD PTR [ecx]

; 751  : 		}

	ret	0
?get@?$auto_ptr@VICvUnit1@@@std@@QBEPAVICvUnit1@@XZ ENDP ; std::auto_ptr<ICvUnit1>::get
_TEXT	ENDS
PUBLIC	?size@?$vector@UOpinion@@V?$allocator@UOpinion@@@std@@@std@@QBEIXZ ; std::vector<Opinion,std::allocator<Opinion> >::size
; Function compile flags: /Ogtpy
; File c:\program files (x86)\microsoft visual studio 9.0\vc\include\vector
;	COMDAT ?size@?$vector@UOpinion@@V?$allocator@UOpinion@@@std@@@std@@QBEIXZ
_TEXT	SEGMENT
?size@?$vector@UOpinion@@V?$allocator@UOpinion@@@std@@@std@@QBEIXZ PROC ; std::vector<Opinion,std::allocator<Opinion> >::size, COMDAT
; _this$ = ecx

; 726  : 		return (_Mylast - _Myfirst);

	mov	edx, DWORD PTR [ecx+8]
	sub	edx, DWORD PTR [ecx+4]
	mov	eax, 818089009				; 30c30c31H
	imul	edx
	sar	edx, 4
	mov	eax, edx
	shr	eax, 31					; 0000001fH
	add	eax, edx

; 727  : 		}

	ret	0
?size@?$vector@UOpinion@@V?$allocator@UOpinion@@@std@@@std@@QBEIXZ ENDP ; std::vector<Opinion,std::allocator<Opinion> >::size
_TEXT	ENDS
PUBLIC	??A?$vector@UOpinion@@V?$allocator@UOpinion@@@std@@@std@@QAEAAUOpinion@@I@Z ; std::vector<Opinion,std::allocator<Opinion> >::operator[]
; Function compile flags: /Ogtpy
;	COMDAT ??A?$vector@UOpinion@@V?$allocator@UOpinion@@@std@@@std@@QAEAAUOpinion@@I@Z
_TEXT	SEGMENT
__Pos$ = 8						; size = 4
??A?$vector@UOpinion@@V?$allocator@UOpinion@@@std@@@std@@QAEAAUOpinion@@I@Z PROC ; std::vector<Opinion,std::allocator<Opinion> >::operator[], COMDAT
; _this$ = ecx

; 775  : 
; 776  :  #if _HAS_ITERATOR_DEBUGGING
; 777  : 		if (size() <= _Pos)
; 778  : 			{
; 779  : 			_DEBUG_ERROR("vector subscript out of range");
; 780  : 			_SCL_SECURE_OUT_OF_RANGE;
; 781  : 			}
; 782  :  #endif /* _HAS_ITERATOR_DEBUGGING */
; 783  : 		_SCL_SECURE_VALIDATE_RANGE(_Pos < size());
; 784  : 
; 785  : 		return (*(_Myfirst + _Pos));

	mov	eax, DWORD PTR __Pos$[esp-4]
	imul	eax, 84					; 00000054H
	add	eax, DWORD PTR [ecx+4]

; 786  : 		}

	ret	4
??A?$vector@UOpinion@@V?$allocator@UOpinion@@@std@@@std@@QAEAAUOpinion@@I@Z ENDP ; std::vector<Opinion,std::allocator<Opinion> >::operator[]
_TEXT	ENDS
PUBLIC	??0?$auto_ptr@VICvEnumerator@@@std@@QAE@PAVICvEnumerator@@@Z ; std::auto_ptr<ICvEnumerator>::auto_ptr<ICvEnumerator>
; Function compile flags: /Ogtpy
; File c:\program files (x86)\microsoft visual studio 9.0\vc\include\memory
;	COMDAT ??0?$auto_ptr@VICvEnumerator@@@std@@QAE@PAVICvEnumerator@@@Z
_TEXT	SEGMENT
__Ptr$ = 8						; size = 4
??0?$auto_ptr@VICvEnumerator@@@std@@QAE@PAVICvEnumerator@@@Z PROC ; std::auto_ptr<ICvEnumerator>::auto_ptr<ICvEnumerator>, COMDAT
; _this$ = ecx

; 661  : 		{	// construct from object pointer

	mov	eax, ecx
	mov	ecx, DWORD PTR __Ptr$[esp-4]
	mov	DWORD PTR [eax], ecx

; 662  : 		}

	ret	4
??0?$auto_ptr@VICvEnumerator@@@std@@QAE@PAVICvEnumerator@@@Z ENDP ; std::auto_ptr<ICvEnumerator>::auto_ptr<ICvEnumerator>
_TEXT	ENDS
PUBLIC	?get@?$auto_ptr@VICvEnumerator@@@std@@QBEPAVICvEnumerator@@XZ ; std::auto_ptr<ICvEnumerator>::get
; Function compile flags: /Ogtpy
;	COMDAT ?get@?$auto_ptr@VICvEnumerator@@@std@@QBEPAVICvEnumerator@@XZ
_TEXT	SEGMENT
?get@?$auto_ptr@VICvEnumerator@@@std@@QBEPAVICvEnumerator@@XZ PROC ; std::auto_ptr<ICvEnumerator>::get, COMDAT
; _this$ = ecx

; 750  : 		return (_Myptr);

	mov	eax, DWORD PTR [ecx]

; 751  : 		}

	ret	0
?get@?$auto_ptr@VICvEnumerator@@@std@@QBEPAVICvEnumerator@@XZ ENDP ; std::auto_ptr<ICvEnumerator>::get
_TEXT	ENDS
PUBLIC	?capacity@?$vector@VCvString@@V?$allocator@VCvString@@@std@@@std@@QBEIXZ ; std::vector<CvString,std::allocator<CvString> >::capacity
; Function compile flags: /Ogtpy
; File c:\program files (x86)\microsoft visual studio 9.0\vc\include\vector
;	COMDAT ?capacity@?$vector@VCvString@@V?$allocator@VCvString@@@std@@@std@@QBEIXZ
_TEXT	SEGMENT
?capacity@?$vector@VCvString@@V?$allocator@VCvString@@@std@@@std@@QBEIXZ PROC ; std::vector<CvString,std::allocator<CvString> >::capacity, COMDAT
; _this$ = ecx

; 635  : 		return (_Myfirst == 0 ? 0 : _Myend - _Myfirst);

	mov	eax, DWORD PTR [ecx+4]
	test	eax, eax
	jne	SHORT $LN3@capacity

; 636  : 		}

	ret	0
$LN3@capacity:

; 635  : 		return (_Myfirst == 0 ? 0 : _Myend - _Myfirst);

	mov	ecx, DWORD PTR [ecx+12]
	sub	ecx, eax
	mov	eax, -1840700269			; 92492493H
	imul	ecx
	add	edx, ecx
	sar	edx, 4
	mov	eax, edx
	shr	eax, 31					; 0000001fH
	add	eax, edx

; 636  : 		}

	ret	0
?capacity@?$vector@VCvString@@V?$allocator@VCvString@@@std@@@std@@QBEIXZ ENDP ; std::vector<CvString,std::allocator<CvString> >::capacity
_TEXT	ENDS
PUBLIC	??1?$_Container_base_aux_alloc_empty@V?$allocator@VCvString@@@std@@@std@@IAE@XZ ; std::_Container_base_aux_alloc_empty<std::allocator<CvString> >::~_Container_base_aux_alloc_empty<std::allocator<CvString> >
; Function compile flags: /Ogtpy
; File c:\program files (x86)\microsoft visual studio 9.0\vc\include\xutility
;	COMDAT ??1?$_Container_base_aux_alloc_empty@V?$allocator@VCvString@@@std@@@std@@IAE@XZ
_TEXT	SEGMENT
??1?$_Container_base_aux_alloc_empty@V?$allocator@VCvString@@@std@@@std@@IAE@XZ PROC ; std::_Container_base_aux_alloc_empty<std::allocator<CvString> >::~_Container_base_aux_alloc_empty<std::allocator<CvString> >, COMDAT
; _this$ = ecx

; 627  : 	~_Container_base_aux_alloc_empty() { }

	ret	0
??1?$_Container_base_aux_alloc_empty@V?$allocator@VCvString@@@std@@@std@@IAE@XZ ENDP ; std::_Container_base_aux_alloc_empty<std::allocator<CvString> >::~_Container_base_aux_alloc_empty<std::allocator<CvString> >
_TEXT	ENDS
PUBLIC	??0?$allocator@VCvString@@@std@@QAE@XZ		; std::allocator<CvString>::allocator<CvString>
; Function compile flags: /Ogtpy
; File c:\program files (x86)\microsoft visual studio 9.0\vc\include\xmemory
;	COMDAT ??0?$allocator@VCvString@@@std@@QAE@XZ
_TEXT	SEGMENT
??0?$allocator@VCvString@@@std@@QAE@XZ PROC		; std::allocator<CvString>::allocator<CvString>, COMDAT
; _this$ = ecx

; 119  : 	allocator() _THROW0()

	mov	eax, ecx

; 120  : 		{	// construct default allocator (do nothing)
; 121  : 		}

	ret	0
??0?$allocator@VCvString@@@std@@QAE@XZ ENDP		; std::allocator<CvString>::allocator<CvString>
_TEXT	ENDS
PUBLIC	?deallocate@?$allocator@VCvString@@@std@@QAEXPAVCvString@@I@Z ; std::allocator<CvString>::deallocate
; Function compile flags: /Ogtpy
;	COMDAT ?deallocate@?$allocator@VCvString@@@std@@QAEXPAVCvString@@I@Z
_TEXT	SEGMENT
__Ptr$ = 8						; size = 4
___formal$ = 12						; size = 4
?deallocate@?$allocator@VCvString@@@std@@QAEXPAVCvString@@I@Z PROC ; std::allocator<CvString>::deallocate, COMDAT
; _this$ = ecx

; 140  : 		::operator delete(_Ptr);

	mov	eax, DWORD PTR __Ptr$[esp-4]
	push	eax
	call	??3@YAXPAX@Z				; operator delete
	pop	ecx

; 141  : 		}

	ret	8
?deallocate@?$allocator@VCvString@@@std@@QAEXPAVCvString@@I@Z ENDP ; std::allocator<CvString>::deallocate
_TEXT	ENDS
PUBLIC	?addTarget@?$DestructionNotification@V?$FObjectHandle@VCvUnit@@@@@@QAEXABV?$FObjectHandle@VCvUnit@@@@@Z ; DestructionNotification<FObjectHandle<CvUnit> >::addTarget
; Function compile flags: /Ogtpy
; File c:\users\enormousapplepie\documents\github\lekmod\lekmod_dll\fireplace\include\fireworks\fobjecthandle.h
;	COMDAT ?addTarget@?$DestructionNotification@V?$FObjectHandle@VCvUnit@@@@@@QAEXABV?$FObjectHandle@VCvUnit@@@@@Z
_TEXT	SEGMENT
_target$ = 8						; size = 4
?addTarget@?$DestructionNotification@V?$FObjectHandle@VCvUnit@@@@@@QAEXABV?$FObjectHandle@VCvUnit@@@@@Z PROC ; DestructionNotification<FObjectHandle<CvUnit> >::addTarget, COMDAT
; _this$ = ecx

; 52   : #ifdef TRACK_DESTRUCTION_NOTIFICATION
; 53   : 		m_targets.insert(&target);
; 54   : #endif
; 55   : 	}

	ret	4
?addTarget@?$DestructionNotification@V?$FObjectHandle@VCvUnit@@@@@@QAEXABV?$FObjectHandle@VCvUnit@@@@@Z ENDP ; DestructionNotification<FObjectHandle<CvUnit> >::addTarget
_TEXT	ENDS
PUBLIC	?removeTarget@?$DestructionNotification@V?$FObjectHandle@VCvUnit@@@@@@QAEXABV?$FObjectHandle@VCvUnit@@@@@Z ; DestructionNotification<FObjectHandle<CvUnit> >::removeTarget
; Function compile flags: /Ogtpy
;	COMDAT ?removeTarget@?$DestructionNotification@V?$FObjectHandle@VCvUnit@@@@@@QAEXABV?$FObjectHandle@VCvUnit@@@@@Z
_TEXT	SEGMENT
_target$ = 8						; size = 4
?removeTarget@?$DestructionNotification@V?$FObjectHandle@VCvUnit@@@@@@QAEXABV?$FObjectHandle@VCvUnit@@@@@Z PROC ; DestructionNotification<FObjectHandle<CvUnit> >::removeTarget, COMDAT
; _this$ = ecx

; 63   : #ifdef TRACK_DESTRUCTION_NOTIFICATION
; 64   : 		m_targets.erase(&target);
; 65   : #endif
; 66   : 	}

	ret	4
?removeTarget@?$DestructionNotification@V?$FObjectHandle@VCvUnit@@@@@@QAEXABV?$FObjectHandle@VCvUnit@@@@@Z ENDP ; DestructionNotification<FObjectHandle<CvUnit> >::removeTarget
_TEXT	ENDS
PUBLIC	?pointer@?$FObjectHandle@VCvUnit@@@@QAEPAVCvUnit@@XZ ; FObjectHandle<CvUnit>::pointer
; Function compile flags: /Ogtpy
;	COMDAT ?pointer@?$FObjectHandle@VCvUnit@@@@QAEPAVCvUnit@@XZ
_TEXT	SEGMENT
?pointer@?$FObjectHandle@VCvUnit@@@@QAEPAVCvUnit@@XZ PROC ; FObjectHandle<CvUnit>::pointer, COMDAT
; _this$ = ecx

; 78   : 		return m_target;

	mov	eax, DWORD PTR [ecx]

; 79   : 	}

	ret	0
?pointer@?$FObjectHandle@VCvUnit@@@@QAEPAVCvUnit@@XZ ENDP ; FObjectHandle<CvUnit>::pointer
_TEXT	ENDS
PUBLIC	??1?$_Container_base_aux_alloc_empty@V?$allocator@U?$pair@$$CBIH@std@@@std@@@std@@IAE@XZ ; std::_Container_base_aux_alloc_empty<std::allocator<std::pair<unsigned int const ,int> > >::~_Container_base_aux_alloc_empty<std::allocator<std::pair<unsigned int const ,int> > >
; Function compile flags: /Ogtpy
; File c:\program files (x86)\microsoft visual studio 9.0\vc\include\xutility
;	COMDAT ??1?$_Container_base_aux_alloc_empty@V?$allocator@U?$pair@$$CBIH@std@@@std@@@std@@IAE@XZ
_TEXT	SEGMENT
??1?$_Container_base_aux_alloc_empty@V?$allocator@U?$pair@$$CBIH@std@@@std@@@std@@IAE@XZ PROC ; std::_Container_base_aux_alloc_empty<std::allocator<std::pair<unsigned int const ,int> > >::~_Container_base_aux_alloc_empty<std::allocator<std::pair<unsigned int const ,int> > >, COMDAT
; _this$ = ecx

; 627  : 	~_Container_base_aux_alloc_empty() { }

	ret	0
??1?$_Container_base_aux_alloc_empty@V?$allocator@U?$pair@$$CBIH@std@@@std@@@std@@IAE@XZ ENDP ; std::_Container_base_aux_alloc_empty<std::allocator<std::pair<unsigned int const ,int> > >::~_Container_base_aux_alloc_empty<std::allocator<std::pair<unsigned int const ,int> > >
_TEXT	ENDS
PUBLIC	??_C@_0GH@ECFAPJEJ@c?3?2users?2enormousapplepie?2docume@ ; `string'
PUBLIC	?Alloc@?$FStaticVector@UTradeConnectionPlot@@$0CI@$0A@$0BCJ@$0A@@@IAEPAUTradeConnectionPlot@@I@Z ; FStaticVector<TradeConnectionPlot,40,0,297,0>::Alloc
EXTRN	?FireMallocAlignedNoTracking@@YAPAXIIPBDH@Z:PROC ; FireMallocAlignedNoTracking
;	COMDAT ??_C@_0GH@ECFAPJEJ@c?3?2users?2enormousapplepie?2docume@
; File c:\users\enormousapplepie\documents\github\lekmod\lekmod_dll\fireplace\include\fireworks\ffastvector.h
CONST	SEGMENT
??_C@_0GH@ECFAPJEJ@c?3?2users?2enormousapplepie?2docume@ DB 'c:\users\eno'
	DB	'rmousapplepie\documents\github\lekmod\lekmod_dll\fireplace\in'
	DB	'clude\fireworks\FFastVector.h', 00H		; `string'
; Function compile flags: /Ogtpy
CONST	ENDS
;	COMDAT ?Alloc@?$FStaticVector@UTradeConnectionPlot@@$0CI@$0A@$0BCJ@$0A@@@IAEPAUTradeConnectionPlot@@I@Z
_TEXT	SEGMENT
_uiSize$ = 8						; size = 4
?Alloc@?$FStaticVector@UTradeConnectionPlot@@$0CI@$0A@$0BCJ@$0A@@@IAEPAUTradeConnectionPlot@@I@Z PROC ; FStaticVector<TradeConnectionPlot,40,0,297,0>::Alloc, COMDAT
; _this$ = ecx

; 795  : 	T* Alloc(unsigned int uiSize){

	push	esi
	push	edi

; 796  : 		T* pRet;
; 797  : 		if( uiSize > L ){

	mov	edi, DWORD PTR _uiSize$[esp+4]
	mov	esi, ecx
	cmp	edi, 40					; 00000028H
	jbe	SHORT $LN2@Alloc

; 798  : 			pRet = (T*)FMALLOCALIGNED( uiSize*sizeof(T), __alignof(T), AllocPool, nSubID );

	push	798					; 0000031eH
	push	OFFSET ??_C@_0GH@ECFAPJEJ@c?3?2users?2enormousapplepie?2docume@
	lea	eax, DWORD PTR [edi*8]
	push	4
	push	eax
	call	?FireMallocAlignedNoTracking@@YAPAXIIPBDH@Z ; FireMallocAlignedNoTracking
	add	esp, 16					; 00000010H

; 799  : 			m_uiCurrMaxSize = uiSize;

	mov	DWORD PTR [esi+8], edi
	pop	edi
	pop	esi

; 803  : 		}
; 804  : 		return pRet;
; 805  : 	};

	ret	4
$LN2@Alloc:
	pop	edi

; 800  : 		}else{
; 801  : 			pRet = (T*)m_aData;

	lea	eax, DWORD PTR [esi+12]

; 802  : 			m_uiCurrMaxSize = L;

	mov	DWORD PTR [esi+8], 40			; 00000028H
	pop	esi

; 803  : 		}
; 804  : 		return pRet;
; 805  : 	};

	ret	4
?Alloc@?$FStaticVector@UTradeConnectionPlot@@$0CI@$0A@$0BCJ@$0A@@@IAEPAUTradeConnectionPlot@@I@Z ENDP ; FStaticVector<TradeConnectionPlot,40,0,297,0>::Alloc
_TEXT	ENDS
PUBLIC	??1?$BaseVector@UTradeConnectionPlot@@$0A@@@QAE@XZ ; BaseVector<TradeConnectionPlot,0>::~BaseVector<TradeConnectionPlot,0>
; Function compile flags: /Ogtpy
;	COMDAT ??1?$BaseVector@UTradeConnectionPlot@@$0A@@@QAE@XZ
_TEXT	SEGMENT
??1?$BaseVector@UTradeConnectionPlot@@$0A@@@QAE@XZ PROC	; BaseVector<TradeConnectionPlot,0>::~BaseVector<TradeConnectionPlot,0>, COMDAT
; _this$ = ecx

; 111  : 	~BaseVector(){};

	ret	0
??1?$BaseVector@UTradeConnectionPlot@@$0A@@@QAE@XZ ENDP	; BaseVector<TradeConnectionPlot,0>::~BaseVector<TradeConnectionPlot,0>
_TEXT	ENDS
PUBLIC	??0?$BaseVector@UTradeConnectionPlot@@$0A@@@IAE@XZ ; BaseVector<TradeConnectionPlot,0>::BaseVector<TradeConnectionPlot,0>
; Function compile flags: /Ogtpy
;	COMDAT ??0?$BaseVector@UTradeConnectionPlot@@$0A@@@IAE@XZ
_TEXT	SEGMENT
??0?$BaseVector@UTradeConnectionPlot@@$0A@@@IAE@XZ PROC	; BaseVector<TradeConnectionPlot,0>::BaseVector<TradeConnectionPlot,0>, COMDAT
; _this$ = ecx

; 216  : 	BaseVector() : m_uiCurrSize(0), m_uiCurrMaxSize(0), m_pData(NULL) {};

	mov	eax, ecx
	xor	ecx, ecx
	mov	DWORD PTR [eax], ecx
	mov	DWORD PTR [eax+4], ecx
	mov	DWORD PTR [eax+8], ecx
	ret	0
??0?$BaseVector@UTradeConnectionPlot@@$0A@@@IAE@XZ ENDP	; BaseVector<TradeConnectionPlot,0>::BaseVector<TradeConnectionPlot,0>
_TEXT	ENDS
PUBLIC	??1?$_Container_base_aux_alloc_empty@V?$allocator@W4PolicyTypes@@@std@@@std@@IAE@XZ ; std::_Container_base_aux_alloc_empty<std::allocator<enum PolicyTypes> >::~_Container_base_aux_alloc_empty<std::allocator<enum PolicyTypes> >
; Function compile flags: /Ogtpy
; File c:\program files (x86)\microsoft visual studio 9.0\vc\include\xutility
;	COMDAT ??1?$_Container_base_aux_alloc_empty@V?$allocator@W4PolicyTypes@@@std@@@std@@IAE@XZ
_TEXT	SEGMENT
??1?$_Container_base_aux_alloc_empty@V?$allocator@W4PolicyTypes@@@std@@@std@@IAE@XZ PROC ; std::_Container_base_aux_alloc_empty<std::allocator<enum PolicyTypes> >::~_Container_base_aux_alloc_empty<std::allocator<enum PolicyTypes> >, COMDAT
; _this$ = ecx

; 627  : 	~_Container_base_aux_alloc_empty() { }

	ret	0
??1?$_Container_base_aux_alloc_empty@V?$allocator@W4PolicyTypes@@@std@@@std@@IAE@XZ ENDP ; std::_Container_base_aux_alloc_empty<std::allocator<enum PolicyTypes> >::~_Container_base_aux_alloc_empty<std::allocator<enum PolicyTypes> >
_TEXT	ENDS
PUBLIC	??D?$_Vector_const_iterator@W4PolicyTypes@@V?$allocator@W4PolicyTypes@@@std@@@std@@QBEABW4PolicyTypes@@XZ ; std::_Vector_const_iterator<enum PolicyTypes,std::allocator<enum PolicyTypes> >::operator*
; Function compile flags: /Ogtpy
; File c:\program files (x86)\microsoft visual studio 9.0\vc\include\vector
;	COMDAT ??D?$_Vector_const_iterator@W4PolicyTypes@@V?$allocator@W4PolicyTypes@@@std@@@std@@QBEABW4PolicyTypes@@XZ
_TEXT	SEGMENT
??D?$_Vector_const_iterator@W4PolicyTypes@@V?$allocator@W4PolicyTypes@@@std@@@std@@QBEABW4PolicyTypes@@XZ PROC ; std::_Vector_const_iterator<enum PolicyTypes,std::allocator<enum PolicyTypes> >::operator*, COMDAT
; _this$ = ecx

; 92   : 
; 93   :  #if _HAS_ITERATOR_DEBUGGING
; 94   : 		if (this->_Mycont == 0
; 95   : 			|| _Myptr < ((_Myvec *)this->_Mycont)->_Myfirst
; 96   : 			|| ((_Myvec *)this->_Mycont)->_Mylast <= _Myptr)
; 97   : 			{
; 98   : 			_DEBUG_ERROR("vector iterator not dereferencable");
; 99   : 			_SCL_SECURE_OUT_OF_RANGE;
; 100  : 			}
; 101  :  #else
; 102  :  		_SCL_SECURE_VALIDATE(this->_Has_container());
; 103  : 		_SCL_SECURE_VALIDATE_RANGE(_Myptr < ((_Myvec *)(this->_Getmycont()))->_Mylast);
; 104  :  #endif /* _HAS_ITERATOR_DEBUGGING */
; 105  : 
; 106  : 		return (*_Myptr);

	mov	eax, DWORD PTR [ecx]

; 107  : 		}

	ret	0
??D?$_Vector_const_iterator@W4PolicyTypes@@V?$allocator@W4PolicyTypes@@@std@@@std@@QBEABW4PolicyTypes@@XZ ENDP ; std::_Vector_const_iterator<enum PolicyTypes,std::allocator<enum PolicyTypes> >::operator*
_TEXT	ENDS
PUBLIC	??E?$_Vector_const_iterator@W4PolicyTypes@@V?$allocator@W4PolicyTypes@@@std@@@std@@QAEAAV01@XZ ; std::_Vector_const_iterator<enum PolicyTypes,std::allocator<enum PolicyTypes> >::operator++
; Function compile flags: /Ogtpy
;	COMDAT ??E?$_Vector_const_iterator@W4PolicyTypes@@V?$allocator@W4PolicyTypes@@@std@@@std@@QAEAAV01@XZ
_TEXT	SEGMENT
??E?$_Vector_const_iterator@W4PolicyTypes@@V?$allocator@W4PolicyTypes@@@std@@@std@@QAEAAV01@XZ PROC ; std::_Vector_const_iterator<enum PolicyTypes,std::allocator<enum PolicyTypes> >::operator++, COMDAT
; _this$ = ecx

; 115  : 		{	// preincrement

	mov	eax, ecx

; 116  : 		_SCL_SECURE_VALIDATE(this->_Has_container());
; 117  : 		_SCL_SECURE_VALIDATE_RANGE(_Myptr < ((_Myvec *)(this->_Getmycont()))->_Mylast);
; 118  : 
; 119  :  #if _HAS_ITERATOR_DEBUGGING
; 120  : 		if (this->_Mycont == 0
; 121  : 			|| ((_Myvec *)this->_Mycont)->_Mylast <= _Myptr)
; 122  : 			_DEBUG_ERROR("vector iterator not incrementable");
; 123  :  #endif /* _HAS_ITERATOR_DEBUGGING */
; 124  : 
; 125  : 		++_Myptr;

	add	DWORD PTR [eax], 4

; 126  : 		return (*this);
; 127  : 		}

	ret	0
??E?$_Vector_const_iterator@W4PolicyTypes@@V?$allocator@W4PolicyTypes@@@std@@@std@@QAEAAV01@XZ ENDP ; std::_Vector_const_iterator<enum PolicyTypes,std::allocator<enum PolicyTypes> >::operator++
_TEXT	ENDS
PUBLIC	??8?$_Vector_const_iterator@W4PolicyTypes@@V?$allocator@W4PolicyTypes@@@std@@@std@@QBE_NABV01@@Z ; std::_Vector_const_iterator<enum PolicyTypes,std::allocator<enum PolicyTypes> >::operator==
; Function compile flags: /Ogtpy
;	COMDAT ??8?$_Vector_const_iterator@W4PolicyTypes@@V?$allocator@W4PolicyTypes@@@std@@@std@@QBE_NABV01@@Z
_TEXT	SEGMENT
__Right$ = 8						; size = 4
??8?$_Vector_const_iterator@W4PolicyTypes@@V?$allocator@W4PolicyTypes@@@std@@@std@@QBE_NABV01@@Z PROC ; std::_Vector_const_iterator<enum PolicyTypes,std::allocator<enum PolicyTypes> >::operator==, COMDAT
; _this$ = ecx

; 204  : 
; 205  :  #if _HAS_ITERATOR_DEBUGGING
; 206  : 		_Compat(_Right);
; 207  :  #else
; 208  : 		_SCL_SECURE_VALIDATE(this->_Has_container() && this->_Same_container(_Right));
; 209  :  #endif /* _HAS_ITERATOR_DEBUGGING */
; 210  : 
; 211  : 		return (_Myptr == _Right._Myptr);

	mov	eax, DWORD PTR [ecx]
	mov	edx, DWORD PTR __Right$[esp-4]
	xor	ecx, ecx
	cmp	eax, DWORD PTR [edx]
	sete	cl
	mov	al, cl

; 212  : 		}

	ret	4
??8?$_Vector_const_iterator@W4PolicyTypes@@V?$allocator@W4PolicyTypes@@@std@@@std@@QBE_NABV01@@Z ENDP ; std::_Vector_const_iterator<enum PolicyTypes,std::allocator<enum PolicyTypes> >::operator==
_TEXT	ENDS
PUBLIC	??8const_iterator@?$_Tree@V?$_Tmap_traits@IHU?$less@I@std@@V?$allocator@U?$pair@$$CBIH@std@@@2@$0A@@std@@@std@@QBE_NABV012@@Z ; std::_Tree<std::_Tmap_traits<unsigned int,int,std::less<unsigned int>,std::allocator<std::pair<unsigned int const ,int> >,0> >::const_iterator::operator==
; Function compile flags: /Ogtpy
; File c:\program files (x86)\microsoft visual studio 9.0\vc\include\xtree
;	COMDAT ??8const_iterator@?$_Tree@V?$_Tmap_traits@IHU?$less@I@std@@V?$allocator@U?$pair@$$CBIH@std@@@2@$0A@@std@@@std@@QBE_NABV012@@Z
_TEXT	SEGMENT
__Right$ = 8						; size = 4
??8const_iterator@?$_Tree@V?$_Tmap_traits@IHU?$less@I@std@@V?$allocator@U?$pair@$$CBIH@std@@@2@$0A@@std@@@std@@QBE_NABV012@@Z PROC ; std::_Tree<std::_Tmap_traits<unsigned int,int,std::less<unsigned int>,std::allocator<std::pair<unsigned int const ,int> >,0> >::const_iterator::operator==, COMDAT
; _this$ = ecx

; 300  : 
; 301  :  #if _HAS_ITERATOR_DEBUGGING
; 302  : 			if (this->_Mycont == 0 || this->_Mycont != _Right._Mycont)
; 303  : 				{
; 304  : 				_DEBUG_ERROR("map/set iterators incompatible");
; 305  : 				_SCL_SECURE_INVALID_ARGUMENT;
; 306  : 				}
; 307  :  #else
; 308  : 			_SCL_SECURE_VALIDATE(this->_Has_container() && this->_Same_container(_Right));
; 309  :  #endif /* _HAS_ITERATOR_DEBUGGING */
; 310  : 
; 311  : 			return (_Ptr == _Right._Ptr);

	mov	eax, DWORD PTR [ecx]
	mov	edx, DWORD PTR __Right$[esp-4]
	xor	ecx, ecx
	cmp	eax, DWORD PTR [edx]
	sete	cl
	mov	al, cl

; 312  : 			}

	ret	4
??8const_iterator@?$_Tree@V?$_Tmap_traits@IHU?$less@I@std@@V?$allocator@U?$pair@$$CBIH@std@@@2@$0A@@std@@@std@@QBE_NABV012@@Z ENDP ; std::_Tree<std::_Tmap_traits<unsigned int,int,std::less<unsigned int>,std::allocator<std::pair<unsigned int const ,int> >,0> >::const_iterator::operator==
_TEXT	ENDS
PUBLIC	??A?$BaseVector@UWeightedElement@?$CvWeightedVector@PAVCvPlot@@$0DCA@$00@@$00@@QBEABUWeightedElement@?$CvWeightedVector@PAVCvPlot@@$0DCA@$00@@I@Z ; BaseVector<CvWeightedVector<CvPlot *,800,1>::WeightedElement,1>::operator[]
; Function compile flags: /Ogtpy
; File c:\users\enormousapplepie\documents\github\lekmod\lekmod_dll\fireplace\include\fireworks\ffastvector.h
;	COMDAT ??A?$BaseVector@UWeightedElement@?$CvWeightedVector@PAVCvPlot@@$0DCA@$00@@$00@@QBEABUWeightedElement@?$CvWeightedVector@PAVCvPlot@@$0DCA@$00@@I@Z
_TEXT	SEGMENT
_ui$ = 8						; size = 4
??A?$BaseVector@UWeightedElement@?$CvWeightedVector@PAVCvPlot@@$0DCA@$00@@$00@@QBEABUWeightedElement@?$CvWeightedVector@PAVCvPlot@@$0DCA@$00@@I@Z PROC ; BaseVector<CvWeightedVector<CvPlot *,800,1>::WeightedElement,1>::operator[], COMDAT
; _this$ = ecx

; 135  : 		FAssert(ui < m_uiCurrSize);
; 136  : 		return m_pData[ui];

	mov	eax, DWORD PTR [ecx]
	mov	ecx, DWORD PTR _ui$[esp-4]
	lea	eax, DWORD PTR [eax+ecx*8]

; 137  : 	};

	ret	4
??A?$BaseVector@UWeightedElement@?$CvWeightedVector@PAVCvPlot@@$0DCA@$00@@$00@@QBEABUWeightedElement@?$CvWeightedVector@PAVCvPlot@@$0DCA@$00@@I@Z ENDP ; BaseVector<CvWeightedVector<CvPlot *,800,1>::WeightedElement,1>::operator[]
_TEXT	ENDS
PUBLIC	?size@?$BaseVector@UWeightedElement@?$CvWeightedVector@PAVCvPlot@@$0DCA@$00@@$00@@QBEIXZ ; BaseVector<CvWeightedVector<CvPlot *,800,1>::WeightedElement,1>::size
; Function compile flags: /Ogtpy
;	COMDAT ?size@?$BaseVector@UWeightedElement@?$CvWeightedVector@PAVCvPlot@@$0DCA@$00@@$00@@QBEIXZ
_TEXT	SEGMENT
?size@?$BaseVector@UWeightedElement@?$CvWeightedVector@PAVCvPlot@@$0DCA@$00@@$00@@QBEIXZ PROC ; BaseVector<CvWeightedVector<CvPlot *,800,1>::WeightedElement,1>::size, COMDAT
; _this$ = ecx

; 169  : 		return m_uiCurrSize;

	mov	eax, DWORD PTR [ecx+4]

; 170  : 	};

	ret	0
?size@?$BaseVector@UWeightedElement@?$CvWeightedVector@PAVCvPlot@@$0DCA@$00@@$00@@QBEIXZ ENDP ; BaseVector<CvWeightedVector<CvPlot *,800,1>::WeightedElement,1>::size
_TEXT	ENDS
PUBLIC	?begin@?$BaseVector@UWeightedElement@?$CvWeightedVector@PAVCvPlot@@$0DCA@$00@@$00@@QAEPAUWeightedElement@?$CvWeightedVector@PAVCvPlot@@$0DCA@$00@@XZ ; BaseVector<CvWeightedVector<CvPlot *,800,1>::WeightedElement,1>::begin
; Function compile flags: /Ogtpy
;	COMDAT ?begin@?$BaseVector@UWeightedElement@?$CvWeightedVector@PAVCvPlot@@$0DCA@$00@@$00@@QAEPAUWeightedElement@?$CvWeightedVector@PAVCvPlot@@$0DCA@$00@@XZ
_TEXT	SEGMENT
?begin@?$BaseVector@UWeightedElement@?$CvWeightedVector@PAVCvPlot@@$0DCA@$00@@$00@@QAEPAUWeightedElement@?$CvWeightedVector@PAVCvPlot@@$0DCA@$00@@XZ PROC ; BaseVector<CvWeightedVector<CvPlot *,800,1>::WeightedElement,1>::begin, COMDAT
; _this$ = ecx

; 194  :         return m_pData; 

	mov	eax, DWORD PTR [ecx]

; 195  :     };

	ret	0
?begin@?$BaseVector@UWeightedElement@?$CvWeightedVector@PAVCvPlot@@$0DCA@$00@@$00@@QAEPAUWeightedElement@?$CvWeightedVector@PAVCvPlot@@$0DCA@$00@@XZ ENDP ; BaseVector<CvWeightedVector<CvPlot *,800,1>::WeightedElement,1>::begin
_TEXT	ENDS
PUBLIC	?end@?$BaseVector@UWeightedElement@?$CvWeightedVector@PAVCvPlot@@$0DCA@$00@@$00@@QAEPAUWeightedElement@?$CvWeightedVector@PAVCvPlot@@$0DCA@$00@@XZ ; BaseVector<CvWeightedVector<CvPlot *,800,1>::WeightedElement,1>::end
; Function compile flags: /Ogtpy
;	COMDAT ?end@?$BaseVector@UWeightedElement@?$CvWeightedVector@PAVCvPlot@@$0DCA@$00@@$00@@QAEPAUWeightedElement@?$CvWeightedVector@PAVCvPlot@@$0DCA@$00@@XZ
_TEXT	SEGMENT
?end@?$BaseVector@UWeightedElement@?$CvWeightedVector@PAVCvPlot@@$0DCA@$00@@$00@@QAEPAUWeightedElement@?$CvWeightedVector@PAVCvPlot@@$0DCA@$00@@XZ PROC ; BaseVector<CvWeightedVector<CvPlot *,800,1>::WeightedElement,1>::end, COMDAT
; _this$ = ecx

; 197  :         return m_pData+m_uiCurrSize; 

	mov	eax, DWORD PTR [ecx+4]
	mov	ecx, DWORD PTR [ecx]
	lea	eax, DWORD PTR [ecx+eax*8]

; 198  :     };

	ret	0
?end@?$BaseVector@UWeightedElement@?$CvWeightedVector@PAVCvPlot@@$0DCA@$00@@$00@@QAEPAUWeightedElement@?$CvWeightedVector@PAVCvPlot@@$0DCA@$00@@XZ ENDP ; BaseVector<CvWeightedVector<CvPlot *,800,1>::WeightedElement,1>::end
_TEXT	ENDS
PUBLIC	??0WeightedElement@?$CvWeightedVector@PAVCvPlot@@$0DCA@$00@@QAE@XZ ; CvWeightedVector<CvPlot *,800,1>::WeightedElement::WeightedElement
; Function compile flags: /Ogtpy
; File c:\users\enormousapplepie\documents\github\lekmod\lekmod_dll\cvgamecoredllutil\include\cvweightedvector.h
;	COMDAT ??0WeightedElement@?$CvWeightedVector@PAVCvPlot@@$0DCA@$00@@QAE@XZ
_TEXT	SEGMENT
??0WeightedElement@?$CvWeightedVector@PAVCvPlot@@$0DCA@$00@@QAE@XZ PROC ; CvWeightedVector<CvPlot *,800,1>::WeightedElement::WeightedElement, COMDAT
; _this$ = ecx

; 31   : 		{

	mov	eax, ecx
	mov	DWORD PTR [eax], 0
	mov	DWORD PTR [eax+4], 0

; 32   : 		}

	ret	0
??0WeightedElement@?$CvWeightedVector@PAVCvPlot@@$0DCA@$00@@QAE@XZ ENDP ; CvWeightedVector<CvPlot *,800,1>::WeightedElement::WeightedElement
_TEXT	ENDS
PUBLIC	?capacity@?$vector@UOpinion@@V?$allocator@UOpinion@@@std@@@std@@QBEIXZ ; std::vector<Opinion,std::allocator<Opinion> >::capacity
; Function compile flags: /Ogtpy
; File c:\program files (x86)\microsoft visual studio 9.0\vc\include\vector
;	COMDAT ?capacity@?$vector@UOpinion@@V?$allocator@UOpinion@@@std@@@std@@QBEIXZ
_TEXT	SEGMENT
?capacity@?$vector@UOpinion@@V?$allocator@UOpinion@@@std@@@std@@QBEIXZ PROC ; std::vector<Opinion,std::allocator<Opinion> >::capacity, COMDAT
; _this$ = ecx

; 635  : 		return (_Myfirst == 0 ? 0 : _Myend - _Myfirst);

	mov	eax, DWORD PTR [ecx+4]
	test	eax, eax
	jne	SHORT $LN3@capacity@2

; 636  : 		}

	ret	0
$LN3@capacity@2:

; 635  : 		return (_Myfirst == 0 ? 0 : _Myend - _Myfirst);

	mov	ecx, DWORD PTR [ecx+12]
	sub	ecx, eax
	mov	eax, 818089009				; 30c30c31H
	imul	ecx
	sar	edx, 4
	mov	eax, edx
	shr	eax, 31					; 0000001fH
	add	eax, edx

; 636  : 		}

	ret	0
?capacity@?$vector@UOpinion@@V?$allocator@UOpinion@@@std@@@std@@QBEIXZ ENDP ; std::vector<Opinion,std::allocator<Opinion> >::capacity
_TEXT	ENDS
PUBLIC	??1?$_Container_base_aux_alloc_empty@V?$allocator@UOpinion@@@std@@@std@@IAE@XZ ; std::_Container_base_aux_alloc_empty<std::allocator<Opinion> >::~_Container_base_aux_alloc_empty<std::allocator<Opinion> >
; Function compile flags: /Ogtpy
; File c:\program files (x86)\microsoft visual studio 9.0\vc\include\xutility
;	COMDAT ??1?$_Container_base_aux_alloc_empty@V?$allocator@UOpinion@@@std@@@std@@IAE@XZ
_TEXT	SEGMENT
??1?$_Container_base_aux_alloc_empty@V?$allocator@UOpinion@@@std@@@std@@IAE@XZ PROC ; std::_Container_base_aux_alloc_empty<std::allocator<Opinion> >::~_Container_base_aux_alloc_empty<std::allocator<Opinion> >, COMDAT
; _this$ = ecx

; 627  : 	~_Container_base_aux_alloc_empty() { }

	ret	0
??1?$_Container_base_aux_alloc_empty@V?$allocator@UOpinion@@@std@@@std@@IAE@XZ ENDP ; std::_Container_base_aux_alloc_empty<std::allocator<Opinion> >::~_Container_base_aux_alloc_empty<std::allocator<Opinion> >
_TEXT	ENDS
PUBLIC	??0?$allocator@UOpinion@@@std@@QAE@XZ		; std::allocator<Opinion>::allocator<Opinion>
; Function compile flags: /Ogtpy
; File c:\program files (x86)\microsoft visual studio 9.0\vc\include\xmemory
;	COMDAT ??0?$allocator@UOpinion@@@std@@QAE@XZ
_TEXT	SEGMENT
??0?$allocator@UOpinion@@@std@@QAE@XZ PROC		; std::allocator<Opinion>::allocator<Opinion>, COMDAT
; _this$ = ecx

; 119  : 	allocator() _THROW0()

	mov	eax, ecx

; 120  : 		{	// construct default allocator (do nothing)
; 121  : 		}

	ret	0
??0?$allocator@UOpinion@@@std@@QAE@XZ ENDP		; std::allocator<Opinion>::allocator<Opinion>
_TEXT	ENDS
PUBLIC	??0?$auto_ptr@VICvUnknown@@@std@@QAE@PAVICvUnknown@@@Z ; std::auto_ptr<ICvUnknown>::auto_ptr<ICvUnknown>
; Function compile flags: /Ogtpy
; File c:\program files (x86)\microsoft visual studio 9.0\vc\include\memory
;	COMDAT ??0?$auto_ptr@VICvUnknown@@@std@@QAE@PAVICvUnknown@@@Z
_TEXT	SEGMENT
__Ptr$ = 8						; size = 4
??0?$auto_ptr@VICvUnknown@@@std@@QAE@PAVICvUnknown@@@Z PROC ; std::auto_ptr<ICvUnknown>::auto_ptr<ICvUnknown>, COMDAT
; _this$ = ecx

; 661  : 		{	// construct from object pointer

	mov	eax, ecx
	mov	ecx, DWORD PTR __Ptr$[esp-4]
	mov	DWORD PTR [eax], ecx

; 662  : 		}

	ret	4
??0?$auto_ptr@VICvUnknown@@@std@@QAE@PAVICvUnknown@@@Z ENDP ; std::auto_ptr<ICvUnknown>::auto_ptr<ICvUnknown>
_TEXT	ENDS
PUBLIC	??1?$auto_ptr@VICvUnknown@@@std@@QAE@XZ		; std::auto_ptr<ICvUnknown>::~auto_ptr<ICvUnknown>
; Function compile flags: /Ogtpy
;	COMDAT ??1?$auto_ptr@VICvUnknown@@@std@@QAE@XZ
_TEXT	SEGMENT
??1?$auto_ptr@VICvUnknown@@@std@@QAE@XZ PROC		; std::auto_ptr<ICvUnknown>::~auto_ptr<ICvUnknown>, COMDAT
; _this$ = ecx

; 721  : 		delete _Myptr;

	mov	eax, DWORD PTR [ecx]
	test	eax, eax
	je	SHORT $LN3@auto_ptr@3
	mov	ecx, DWORD PTR [eax]
	mov	edx, DWORD PTR [ecx+4]
	push	eax
	call	edx
$LN3@auto_ptr@3:

; 722  : 		}

	ret	0
??1?$auto_ptr@VICvUnknown@@@std@@QAE@XZ ENDP		; std::auto_ptr<ICvUnknown>::~auto_ptr<ICvUnknown>
_TEXT	ENDS
PUBLIC	?get@?$auto_ptr@VICvUnknown@@@std@@QBEPAVICvUnknown@@XZ ; std::auto_ptr<ICvUnknown>::get
; Function compile flags: /Ogtpy
;	COMDAT ?get@?$auto_ptr@VICvUnknown@@@std@@QBEPAVICvUnknown@@XZ
_TEXT	SEGMENT
?get@?$auto_ptr@VICvUnknown@@@std@@QBEPAVICvUnknown@@XZ PROC ; std::auto_ptr<ICvUnknown>::get, COMDAT
; _this$ = ecx

; 750  : 		return (_Myptr);

	mov	eax, DWORD PTR [ecx]

; 751  : 		}

	ret	0
?get@?$auto_ptr@VICvUnknown@@@std@@QBEPAVICvUnknown@@XZ ENDP ; std::auto_ptr<ICvUnknown>::get
_TEXT	ENDS
PUBLIC	__TI3?AVlength_error@std@@
PUBLIC	??_C@_0BD@OLBABOEK@vector?$DMT?$DO?5too?5long?$AA@ ; `string'
PUBLIC	?_Xlen@?$vector@VCvString@@V?$allocator@VCvString@@@std@@@std@@KAXXZ ; std::vector<CvString,std::allocator<CvString> >::_Xlen
PUBLIC	__CTA3?AVlength_error@std@@
PUBLIC	__CT??_R0?AVlength_error@std@@@8??0length_error@std@@QAE@ABV01@@Z40
PUBLIC	??0length_error@std@@QAE@ABV01@@Z		; std::length_error::length_error
PUBLIC	__CT??_R0?AVlogic_error@std@@@8??0logic_error@std@@QAE@ABV01@@Z40
PUBLIC	??0logic_error@std@@QAE@ABV01@@Z		; std::logic_error::logic_error
PUBLIC	__CT??_R0?AVexception@std@@@8??0exception@std@@QAE@ABV01@@Z12
EXTRN	__CxxThrowException@8:PROC
EXTRN	??0exception@std@@QAE@ABV01@@Z:PROC		; std::exception::exception
;	COMDAT __CT??_R0?AVexception@std@@@8??0exception@std@@QAE@ABV01@@Z12
; File c:\program files (x86)\microsoft visual studio 9.0\vc\include\stdexcept
xdata$x	SEGMENT
__CT??_R0?AVexception@std@@@8??0exception@std@@QAE@ABV01@@Z12 DD 00H
	DD	FLAT:??_R0?AVexception@std@@@8
	DD	00H
	DD	0ffffffffH
	ORG $+4
	DD	0cH
	DD	FLAT:??0exception@std@@QAE@ABV01@@Z
xdata$x	ENDS
;	COMDAT __CT??_R0?AVlogic_error@std@@@8??0logic_error@std@@QAE@ABV01@@Z40
xdata$x	SEGMENT
__CT??_R0?AVlogic_error@std@@@8??0logic_error@std@@QAE@ABV01@@Z40 DD 00H
	DD	FLAT:??_R0?AVlogic_error@std@@@8
	DD	00H
	DD	0ffffffffH
	ORG $+4
	DD	028H
	DD	FLAT:??0logic_error@std@@QAE@ABV01@@Z
xdata$x	ENDS
;	COMDAT __CT??_R0?AVlength_error@std@@@8??0length_error@std@@QAE@ABV01@@Z40
xdata$x	SEGMENT
__CT??_R0?AVlength_error@std@@@8??0length_error@std@@QAE@ABV01@@Z40 DD 00H
	DD	FLAT:??_R0?AVlength_error@std@@@8
	DD	00H
	DD	0ffffffffH
	ORG $+4
	DD	028H
	DD	FLAT:??0length_error@std@@QAE@ABV01@@Z
xdata$x	ENDS
;	COMDAT __CTA3?AVlength_error@std@@
xdata$x	SEGMENT
__CTA3?AVlength_error@std@@ DD 03H
	DD	FLAT:__CT??_R0?AVlength_error@std@@@8??0length_error@std@@QAE@ABV01@@Z40
	DD	FLAT:__CT??_R0?AVlogic_error@std@@@8??0logic_error@std@@QAE@ABV01@@Z40
	DD	FLAT:__CT??_R0?AVexception@std@@@8??0exception@std@@QAE@ABV01@@Z12
xdata$x	ENDS
;	COMDAT __TI3?AVlength_error@std@@
xdata$x	SEGMENT
__TI3?AVlength_error@std@@ DD 00H
	DD	FLAT:??1length_error@std@@UAE@XZ
	DD	00H
	DD	FLAT:__CTA3?AVlength_error@std@@
xdata$x	ENDS
;	COMDAT ??_C@_0BD@OLBABOEK@vector?$DMT?$DO?5too?5long?$AA@
CONST	SEGMENT
??_C@_0BD@OLBABOEK@vector?$DMT?$DO?5too?5long?$AA@ DB 'vector<T> too long'
	DB	00H						; `string'
CONST	ENDS
;	COMDAT xdata$x
xdata$x	SEGMENT
__unwindtable$?_Xlen@?$vector@VCvString@@V?$allocator@VCvString@@@std@@@std@@KAXXZ DD 0ffffffffH
	DD	FLAT:__unwindfunclet$?_Xlen@?$vector@VCvString@@V?$allocator@VCvString@@@std@@@std@@KAXXZ$0
	DD	00H
	DD	FLAT:__unwindfunclet$?_Xlen@?$vector@VCvString@@V?$allocator@VCvString@@@std@@@std@@KAXXZ$2
__ehfuncinfo$?_Xlen@?$vector@VCvString@@V?$allocator@VCvString@@@std@@@std@@KAXXZ DD 019930522H
	DD	02H
	DD	FLAT:__unwindtable$?_Xlen@?$vector@VCvString@@V?$allocator@VCvString@@@std@@@std@@KAXXZ
	DD	2 DUP(00H)
	DD	2 DUP(00H)
	DD	00H
	DD	01H
; Function compile flags: /Ogtpy
; File c:\program files (x86)\microsoft visual studio 9.0\vc\include\vector
xdata$x	ENDS
;	COMDAT ?_Xlen@?$vector@VCvString@@V?$allocator@VCvString@@@std@@@std@@KAXXZ
_TEXT	SEGMENT
$T243110 = -80						; size = 28
$T243109 = -52						; size = 40
__$EHRec$ = -12						; size = 12
?_Xlen@?$vector@VCvString@@V?$allocator@VCvString@@@std@@@std@@KAXXZ PROC ; std::vector<CvString,std::allocator<CvString> >::_Xlen, COMDAT

; 1259 : 		{	// report a length_error

	push	-1
	push	__ehhandler$?_Xlen@?$vector@VCvString@@V?$allocator@VCvString@@@std@@@std@@KAXXZ
	mov	eax, DWORD PTR fs:0
	push	eax
	mov	DWORD PTR fs:0, esp
	sub	esp, 68					; 00000044H

; 1260 : 		_THROW(length_error, "vector<T> too long");

	push	OFFSET ??_C@_0BD@OLBABOEK@vector?$DMT?$DO?5too?5long?$AA@
	lea	ecx, DWORD PTR $T243110[esp+84]
	call	DWORD PTR __imp_??0?$basic_string@DU?$char_traits@D@std@@V?$allocator@D@2@@std@@QAE@PBD@Z
	lea	ecx, DWORD PTR $T243109[esp+80]
	mov	DWORD PTR __$EHRec$[esp+88], 0
	call	DWORD PTR __imp_??0exception@std@@QAE@XZ
	lea	eax, DWORD PTR $T243110[esp+80]
	push	eax
	lea	ecx, DWORD PTR $T243109[esp+96]
	mov	BYTE PTR __$EHRec$[esp+92], 1
	mov	DWORD PTR $T243109[esp+84], OFFSET ??_7logic_error@std@@6B@
	call	DWORD PTR __imp_??0?$basic_string@DU?$char_traits@D@std@@V?$allocator@D@2@@std@@QAE@ABV01@@Z
	push	OFFSET __TI3?AVlength_error@std@@
	lea	ecx, DWORD PTR $T243109[esp+84]
	push	ecx
	mov	BYTE PTR __$EHRec$[esp+96], 0
	mov	DWORD PTR $T243109[esp+88], OFFSET ??_7length_error@std@@6B@
	call	__CxxThrowException@8
$LN13@Xlen:
$LN12@Xlen:
	int	3
_TEXT	ENDS
;	COMDAT text$x
text$x	SEGMENT
__unwindfunclet$?_Xlen@?$vector@VCvString@@V?$allocator@VCvString@@@std@@@std@@KAXXZ$0:
	lea	ecx, DWORD PTR $T243110[ebp]
	jmp	DWORD PTR __imp_??1?$basic_string@DU?$char_traits@D@std@@V?$allocator@D@2@@std@@QAE@XZ
__unwindfunclet$?_Xlen@?$vector@VCvString@@V?$allocator@VCvString@@@std@@@std@@KAXXZ$2:
	lea	ecx, DWORD PTR $T243109[ebp]
	jmp	DWORD PTR __imp_??1exception@std@@UAE@XZ
__ehhandler$?_Xlen@?$vector@VCvString@@V?$allocator@VCvString@@@std@@@std@@KAXXZ:
	mov	eax, OFFSET __ehfuncinfo$?_Xlen@?$vector@VCvString@@V?$allocator@VCvString@@@std@@@std@@KAXXZ
	jmp	___CxxFrameHandler3
text$x	ENDS
?_Xlen@?$vector@VCvString@@V?$allocator@VCvString@@@std@@@std@@KAXXZ ENDP ; std::vector<CvString,std::allocator<CvString> >::_Xlen
EXTRN	__imp_??0exception@std@@QAE@ABV01@@Z:PROC
;	COMDAT xdata$x
xdata$x	SEGMENT
__unwindtable$??0logic_error@std@@QAE@ABV01@@Z DD 0ffffffffH
	DD	FLAT:__unwindfunclet$??0logic_error@std@@QAE@ABV01@@Z$0
__ehfuncinfo$??0logic_error@std@@QAE@ABV01@@Z DD 019930522H
	DD	01H
	DD	FLAT:__unwindtable$??0logic_error@std@@QAE@ABV01@@Z
	DD	2 DUP(00H)
	DD	2 DUP(00H)
	DD	00H
	DD	01H
; Function compile flags: /Ogtpy
xdata$x	ENDS
;	COMDAT ??0logic_error@std@@QAE@ABV01@@Z
_TEXT	SEGMENT
_this$ = -16						; size = 4
__$EHRec$ = -12						; size = 12
___that$ = 8						; size = 4
??0logic_error@std@@QAE@ABV01@@Z PROC			; std::logic_error::logic_error, COMDAT
; _this$ = ecx
	push	-1
	push	__ehhandler$??0logic_error@std@@QAE@ABV01@@Z
	mov	eax, DWORD PTR fs:0
	push	eax
	mov	DWORD PTR fs:0, esp
	push	ecx
	push	esi
	push	edi
	mov	edi, DWORD PTR ___that$[esp+20]
	mov	esi, ecx
	push	edi
	mov	DWORD PTR _this$[esp+28], esi
	call	DWORD PTR __imp_??0exception@std@@QAE@ABV01@@Z
	add	edi, 12					; 0000000cH
	push	edi
	lea	ecx, DWORD PTR [esi+12]
	mov	DWORD PTR __$EHRec$[esp+36], 0
	mov	DWORD PTR [esi], OFFSET ??_7logic_error@std@@6B@
	call	DWORD PTR __imp_??0?$basic_string@DU?$char_traits@D@std@@V?$allocator@D@2@@std@@QAE@ABV01@@Z
	mov	ecx, DWORD PTR __$EHRec$[esp+24]
	pop	edi
	mov	eax, esi
	pop	esi
	mov	DWORD PTR fs:0, ecx
	add	esp, 16					; 00000010H
	ret	4
_TEXT	ENDS
;	COMDAT text$x
text$x	SEGMENT
__unwindfunclet$??0logic_error@std@@QAE@ABV01@@Z$0:
	mov	ecx, DWORD PTR _this$[ebp]
	jmp	DWORD PTR __imp_??1exception@std@@UAE@XZ
__ehhandler$??0logic_error@std@@QAE@ABV01@@Z:
	mov	eax, OFFSET __ehfuncinfo$??0logic_error@std@@QAE@ABV01@@Z
	jmp	___CxxFrameHandler3
text$x	ENDS
??0logic_error@std@@QAE@ABV01@@Z ENDP			; std::logic_error::logic_error
PUBLIC	??0?$_Container_base_aux_alloc_empty@V?$allocator@VCvString@@@std@@@std@@IAE@V?$allocator@VCvString@@@1@@Z ; std::_Container_base_aux_alloc_empty<std::allocator<CvString> >::_Container_base_aux_alloc_empty<std::allocator<CvString> >
; Function compile flags: /Ogtpy
; File c:\program files (x86)\microsoft visual studio 9.0\vc\include\xutility
;	COMDAT ??0?$_Container_base_aux_alloc_empty@V?$allocator@VCvString@@@std@@@std@@IAE@V?$allocator@VCvString@@@1@@Z
_TEXT	SEGMENT
___formal$ = 8						; size = 1
??0?$_Container_base_aux_alloc_empty@V?$allocator@VCvString@@@std@@@std@@IAE@V?$allocator@VCvString@@@1@@Z PROC ; std::_Container_base_aux_alloc_empty<std::allocator<CvString> >::_Container_base_aux_alloc_empty<std::allocator<CvString> >, COMDAT
; _this$ = ecx

; 618  : 	explicit _Container_base_aux_alloc_empty(_Alloc) { }

	mov	eax, ecx
	ret	4
??0?$_Container_base_aux_alloc_empty@V?$allocator@VCvString@@@std@@@std@@IAE@V?$allocator@VCvString@@@1@@Z ENDP ; std::_Container_base_aux_alloc_empty<std::allocator<CvString> >::_Container_base_aux_alloc_empty<std::allocator<CvString> >
_TEXT	ENDS
PUBLIC	??0?$allocator@VCvString@@@std@@QAE@ABV01@@Z	; std::allocator<CvString>::allocator<CvString>
; Function compile flags: /Ogtpy
; File c:\program files (x86)\microsoft visual studio 9.0\vc\include\xmemory
;	COMDAT ??0?$allocator@VCvString@@@std@@QAE@ABV01@@Z
_TEXT	SEGMENT
___formal$ = 8						; size = 4
??0?$allocator@VCvString@@@std@@QAE@ABV01@@Z PROC	; std::allocator<CvString>::allocator<CvString>, COMDAT
; _this$ = ecx

; 123  : 	allocator(const allocator<_Ty>&) _THROW0()

	mov	eax, ecx

; 124  : 		{	// construct by copying (do nothing)
; 125  : 		}

	ret	4
??0?$allocator@VCvString@@@std@@QAE@ABV01@@Z ENDP	; std::allocator<CvString>::allocator<CvString>
_TEXT	ENDS
PUBLIC	?_Left@?$_Tree@V?$_Tmap_traits@IHU?$less@I@std@@V?$allocator@U?$pair@$$CBIH@std@@@2@$0A@@std@@@std@@KAAAPAU_Node@?$_Tree_nod@V?$_Tmap_traits@IHU?$less@I@std@@V?$allocator@U?$pair@$$CBIH@std@@@2@$0A@@std@@@2@PAU342@@Z ; std::_Tree<std::_Tmap_traits<unsigned int,int,std::less<unsigned int>,std::allocator<std::pair<unsigned int const ,int> >,0> >::_Left
; Function compile flags: /Ogtpy
; File c:\program files (x86)\microsoft visual studio 9.0\vc\include\xtree
;	COMDAT ?_Left@?$_Tree@V?$_Tmap_traits@IHU?$less@I@std@@V?$allocator@U?$pair@$$CBIH@std@@@2@$0A@@std@@@std@@KAAAPAU_Node@?$_Tree_nod@V?$_Tmap_traits@IHU?$less@I@std@@V?$allocator@U?$pair@$$CBIH@std@@@2@$0A@@std@@@2@PAU342@@Z
_TEXT	SEGMENT
__Pnode$ = 8						; size = 4
?_Left@?$_Tree@V?$_Tmap_traits@IHU?$less@I@std@@V?$allocator@U?$pair@$$CBIH@std@@@2@$0A@@std@@@std@@KAAAPAU_Node@?$_Tree_nod@V?$_Tmap_traits@IHU?$less@I@std@@V?$allocator@U?$pair@$$CBIH@std@@@2@$0A@@std@@@2@PAU342@@Z PROC ; std::_Tree<std::_Tmap_traits<unsigned int,int,std::less<unsigned int>,std::allocator<std::pair<unsigned int const ,int> >,0> >::_Left, COMDAT

; 167  : 		return ((_Nodepref)(*_Pnode)._Left);

	mov	eax, DWORD PTR __Pnode$[esp-4]

; 168  : 		}

	ret	0
?_Left@?$_Tree@V?$_Tmap_traits@IHU?$less@I@std@@V?$allocator@U?$pair@$$CBIH@std@@@2@$0A@@std@@@std@@KAAAPAU_Node@?$_Tree_nod@V?$_Tmap_traits@IHU?$less@I@std@@V?$allocator@U?$pair@$$CBIH@std@@@2@$0A@@std@@@2@PAU342@@Z ENDP ; std::_Tree<std::_Tmap_traits<unsigned int,int,std::less<unsigned int>,std::allocator<std::pair<unsigned int const ,int> >,0> >::_Left
_TEXT	ENDS
PUBLIC	?_Parent@?$_Tree@V?$_Tmap_traits@IHU?$less@I@std@@V?$allocator@U?$pair@$$CBIH@std@@@2@$0A@@std@@@std@@KAAAPAU_Node@?$_Tree_nod@V?$_Tmap_traits@IHU?$less@I@std@@V?$allocator@U?$pair@$$CBIH@std@@@2@$0A@@std@@@2@PAU342@@Z ; std::_Tree<std::_Tmap_traits<unsigned int,int,std::less<unsigned int>,std::allocator<std::pair<unsigned int const ,int> >,0> >::_Parent
; Function compile flags: /Ogtpy
;	COMDAT ?_Parent@?$_Tree@V?$_Tmap_traits@IHU?$less@I@std@@V?$allocator@U?$pair@$$CBIH@std@@@2@$0A@@std@@@std@@KAAAPAU_Node@?$_Tree_nod@V?$_Tmap_traits@IHU?$less@I@std@@V?$allocator@U?$pair@$$CBIH@std@@@2@$0A@@std@@@2@PAU342@@Z
_TEXT	SEGMENT
__Pnode$ = 8						; size = 4
?_Parent@?$_Tree@V?$_Tmap_traits@IHU?$less@I@std@@V?$allocator@U?$pair@$$CBIH@std@@@2@$0A@@std@@@std@@KAAAPAU_Node@?$_Tree_nod@V?$_Tmap_traits@IHU?$less@I@std@@V?$allocator@U?$pair@$$CBIH@std@@@2@$0A@@std@@@2@PAU342@@Z PROC ; std::_Tree<std::_Tmap_traits<unsigned int,int,std::less<unsigned int>,std::allocator<std::pair<unsigned int const ,int> >,0> >::_Parent, COMDAT

; 172  : 		return ((_Nodepref)(*_Pnode)._Parent);

	mov	eax, DWORD PTR __Pnode$[esp-4]
	add	eax, 4

; 173  : 		}

	ret	0
?_Parent@?$_Tree@V?$_Tmap_traits@IHU?$less@I@std@@V?$allocator@U?$pair@$$CBIH@std@@@2@$0A@@std@@@std@@KAAAPAU_Node@?$_Tree_nod@V?$_Tmap_traits@IHU?$less@I@std@@V?$allocator@U?$pair@$$CBIH@std@@@2@$0A@@std@@@2@PAU342@@Z ENDP ; std::_Tree<std::_Tmap_traits<unsigned int,int,std::less<unsigned int>,std::allocator<std::pair<unsigned int const ,int> >,0> >::_Parent
_TEXT	ENDS
PUBLIC	?_Right@?$_Tree@V?$_Tmap_traits@IHU?$less@I@std@@V?$allocator@U?$pair@$$CBIH@std@@@2@$0A@@std@@@std@@KAAAPAU_Node@?$_Tree_nod@V?$_Tmap_traits@IHU?$less@I@std@@V?$allocator@U?$pair@$$CBIH@std@@@2@$0A@@std@@@2@PAU342@@Z ; std::_Tree<std::_Tmap_traits<unsigned int,int,std::less<unsigned int>,std::allocator<std::pair<unsigned int const ,int> >,0> >::_Right
; Function compile flags: /Ogtpy
;	COMDAT ?_Right@?$_Tree@V?$_Tmap_traits@IHU?$less@I@std@@V?$allocator@U?$pair@$$CBIH@std@@@2@$0A@@std@@@std@@KAAAPAU_Node@?$_Tree_nod@V?$_Tmap_traits@IHU?$less@I@std@@V?$allocator@U?$pair@$$CBIH@std@@@2@$0A@@std@@@2@PAU342@@Z
_TEXT	SEGMENT
__Pnode$ = 8						; size = 4
?_Right@?$_Tree@V?$_Tmap_traits@IHU?$less@I@std@@V?$allocator@U?$pair@$$CBIH@std@@@2@$0A@@std@@@std@@KAAAPAU_Node@?$_Tree_nod@V?$_Tmap_traits@IHU?$less@I@std@@V?$allocator@U?$pair@$$CBIH@std@@@2@$0A@@std@@@2@PAU342@@Z PROC ; std::_Tree<std::_Tmap_traits<unsigned int,int,std::less<unsigned int>,std::allocator<std::pair<unsigned int const ,int> >,0> >::_Right, COMDAT

; 177  : 		return ((_Nodepref)(*_Pnode)._Right);

	mov	eax, DWORD PTR __Pnode$[esp-4]
	add	eax, 8

; 178  : 		}

	ret	0
?_Right@?$_Tree@V?$_Tmap_traits@IHU?$less@I@std@@V?$allocator@U?$pair@$$CBIH@std@@@2@$0A@@std@@@std@@KAAAPAU_Node@?$_Tree_nod@V?$_Tmap_traits@IHU?$less@I@std@@V?$allocator@U?$pair@$$CBIH@std@@@2@$0A@@std@@@2@PAU342@@Z ENDP ; std::_Tree<std::_Tmap_traits<unsigned int,int,std::less<unsigned int>,std::allocator<std::pair<unsigned int const ,int> >,0> >::_Right
_TEXT	ENDS
PUBLIC	?_Myval@?$_Tree@V?$_Tmap_traits@IHU?$less@I@std@@V?$allocator@U?$pair@$$CBIH@std@@@2@$0A@@std@@@std@@KAAAU?$pair@$$CBIH@2@PAU_Node@?$_Tree_nod@V?$_Tmap_traits@IHU?$less@I@std@@V?$allocator@U?$pair@$$CBIH@std@@@2@$0A@@std@@@2@@Z ; std::_Tree<std::_Tmap_traits<unsigned int,int,std::less<unsigned int>,std::allocator<std::pair<unsigned int const ,int> >,0> >::_Myval
; Function compile flags: /Ogtpy
;	COMDAT ?_Myval@?$_Tree@V?$_Tmap_traits@IHU?$less@I@std@@V?$allocator@U?$pair@$$CBIH@std@@@2@$0A@@std@@@std@@KAAAU?$pair@$$CBIH@2@PAU_Node@?$_Tree_nod@V?$_Tmap_traits@IHU?$less@I@std@@V?$allocator@U?$pair@$$CBIH@std@@@2@$0A@@std@@@2@@Z
_TEXT	SEGMENT
__Pnode$ = 8						; size = 4
?_Myval@?$_Tree@V?$_Tmap_traits@IHU?$less@I@std@@V?$allocator@U?$pair@$$CBIH@std@@@2@$0A@@std@@@std@@KAAAU?$pair@$$CBIH@2@PAU_Node@?$_Tree_nod@V?$_Tmap_traits@IHU?$less@I@std@@V?$allocator@U?$pair@$$CBIH@std@@@2@$0A@@std@@@2@@Z PROC ; std::_Tree<std::_Tmap_traits<unsigned int,int,std::less<unsigned int>,std::allocator<std::pair<unsigned int const ,int> >,0> >::_Myval, COMDAT

; 182  : 		return ((_Vref)(*_Pnode)._Myval);

	mov	eax, DWORD PTR __Pnode$[esp-4]
	add	eax, 12					; 0000000cH

; 183  : 		}

	ret	0
?_Myval@?$_Tree@V?$_Tmap_traits@IHU?$less@I@std@@V?$allocator@U?$pair@$$CBIH@std@@@2@$0A@@std@@@std@@KAAAU?$pair@$$CBIH@2@PAU_Node@?$_Tree_nod@V?$_Tmap_traits@IHU?$less@I@std@@V?$allocator@U?$pair@$$CBIH@std@@@2@$0A@@std@@@2@@Z ENDP ; std::_Tree<std::_Tmap_traits<unsigned int,int,std::less<unsigned int>,std::allocator<std::pair<unsigned int const ,int> >,0> >::_Myval
_TEXT	ENDS
PUBLIC	?deallocate@?$allocator@U_Node@?$_Tree_nod@V?$_Tmap_traits@IHU?$less@I@std@@V?$allocator@U?$pair@$$CBIH@std@@@2@$0A@@std@@@std@@@std@@QAEXPAU_Node@?$_Tree_nod@V?$_Tmap_traits@IHU?$less@I@std@@V?$allocator@U?$pair@$$CBIH@std@@@2@$0A@@std@@@2@I@Z ; std::allocator<std::_Tree_nod<std::_Tmap_traits<unsigned int,int,std::less<unsigned int>,std::allocator<std::pair<unsigned int const ,int> >,0> >::_Node>::deallocate
; Function compile flags: /Ogtpy
; File c:\program files (x86)\microsoft visual studio 9.0\vc\include\xmemory
;	COMDAT ?deallocate@?$allocator@U_Node@?$_Tree_nod@V?$_Tmap_traits@IHU?$less@I@std@@V?$allocator@U?$pair@$$CBIH@std@@@2@$0A@@std@@@std@@@std@@QAEXPAU_Node@?$_Tree_nod@V?$_Tmap_traits@IHU?$less@I@std@@V?$allocator@U?$pair@$$CBIH@std@@@2@$0A@@std@@@2@I@Z
_TEXT	SEGMENT
__Ptr$ = 8						; size = 4
___formal$ = 12						; size = 4
?deallocate@?$allocator@U_Node@?$_Tree_nod@V?$_Tmap_traits@IHU?$less@I@std@@V?$allocator@U?$pair@$$CBIH@std@@@2@$0A@@std@@@std@@@std@@QAEXPAU_Node@?$_Tree_nod@V?$_Tmap_traits@IHU?$less@I@std@@V?$allocator@U?$pair@$$CBIH@std@@@2@$0A@@std@@@2@I@Z PROC ; std::allocator<std::_Tree_nod<std::_Tmap_traits<unsigned int,int,std::less<unsigned int>,std::allocator<std::pair<unsigned int const ,int> >,0> >::_Node>::deallocate, COMDAT
; _this$ = ecx

; 140  : 		::operator delete(_Ptr);

	mov	eax, DWORD PTR __Ptr$[esp-4]
	push	eax
	call	??3@YAXPAX@Z				; operator delete
	pop	ecx

; 141  : 		}

	ret	8
?deallocate@?$allocator@U_Node@?$_Tree_nod@V?$_Tmap_traits@IHU?$less@I@std@@V?$allocator@U?$pair@$$CBIH@std@@@2@$0A@@std@@@std@@@std@@QAEXPAU_Node@?$_Tree_nod@V?$_Tmap_traits@IHU?$less@I@std@@V?$allocator@U?$pair@$$CBIH@std@@@2@$0A@@std@@@2@I@Z ENDP ; std::allocator<std::_Tree_nod<std::_Tmap_traits<unsigned int,int,std::less<unsigned int>,std::allocator<std::pair<unsigned int const ,int> >,0> >::_Node>::deallocate
_TEXT	ENDS
PUBLIC	?Destroy@?$BaseVector@UTradeConnectionPlot@@$0A@@@IAEXPAUTradeConnectionPlot@@I@Z ; BaseVector<TradeConnectionPlot,0>::Destroy
; Function compile flags: /Ogtpy
; File c:\users\enormousapplepie\documents\github\lekmod\lekmod_dll\fireplace\include\fireworks\ffastvector.h
;	COMDAT ?Destroy@?$BaseVector@UTradeConnectionPlot@@$0A@@@IAEXPAUTradeConnectionPlot@@I@Z
_TEXT	SEGMENT
_pVal$ = 8						; size = 4
_uiNumElements$ = 12					; size = 4
?Destroy@?$BaseVector@UTradeConnectionPlot@@$0A@@@IAEXPAUTradeConnectionPlot@@I@Z PROC ; BaseVector<TradeConnectionPlot,0>::Destroy, COMDAT
; _this$ = ecx

; 221  : 		if( !bPODType){
; 222  : 			for(unsigned int i = 0; i < uiNumElements; ++i){
; 223  : 				pVal[i].~T();
; 224  : 			}
; 225  : 		}
; 226  : 	};

	ret	8
?Destroy@?$BaseVector@UTradeConnectionPlot@@$0A@@@IAEXPAUTradeConnectionPlot@@I@Z ENDP ; BaseVector<TradeConnectionPlot,0>::Destroy
_TEXT	ENDS
PUBLIC	?deallocate@?$allocator@W4PolicyTypes@@@std@@QAEXPAW4PolicyTypes@@I@Z ; std::allocator<enum PolicyTypes>::deallocate
; Function compile flags: /Ogtpy
; File c:\program files (x86)\microsoft visual studio 9.0\vc\include\xmemory
;	COMDAT ?deallocate@?$allocator@W4PolicyTypes@@@std@@QAEXPAW4PolicyTypes@@I@Z
_TEXT	SEGMENT
__Ptr$ = 8						; size = 4
___formal$ = 12						; size = 4
?deallocate@?$allocator@W4PolicyTypes@@@std@@QAEXPAW4PolicyTypes@@I@Z PROC ; std::allocator<enum PolicyTypes>::deallocate, COMDAT
; _this$ = ecx

; 140  : 		::operator delete(_Ptr);

	mov	eax, DWORD PTR __Ptr$[esp-4]
	push	eax
	call	??3@YAXPAX@Z				; operator delete
	pop	ecx

; 141  : 		}

	ret	8
?deallocate@?$allocator@W4PolicyTypes@@@std@@QAEXPAW4PolicyTypes@@I@Z ENDP ; std::allocator<enum PolicyTypes>::deallocate
_TEXT	ENDS
PUBLIC	??0?$_Vector_const_iterator@W4PolicyTypes@@V?$allocator@W4PolicyTypes@@@std@@@std@@QAE@PAW4PolicyTypes@@@Z ; std::_Vector_const_iterator<enum PolicyTypes,std::allocator<enum PolicyTypes> >::_Vector_const_iterator<enum PolicyTypes,std::allocator<enum PolicyTypes> >
; Function compile flags: /Ogtpy
; File c:\program files (x86)\microsoft visual studio 9.0\vc\include\vector
;	COMDAT ??0?$_Vector_const_iterator@W4PolicyTypes@@V?$allocator@W4PolicyTypes@@@std@@@std@@QAE@PAW4PolicyTypes@@@Z
_TEXT	SEGMENT
__Ptr$ = 8						; size = 4
??0?$_Vector_const_iterator@W4PolicyTypes@@V?$allocator@W4PolicyTypes@@@std@@@std@@QAE@PAW4PolicyTypes@@@Z PROC ; std::_Vector_const_iterator<enum PolicyTypes,std::allocator<enum PolicyTypes> >::_Vector_const_iterator<enum PolicyTypes,std::allocator<enum PolicyTypes> >, COMDAT
; _this$ = ecx

; 84   : 	explicit _Vector_const_iterator(_Tptr _Ptr)

	mov	eax, ecx

; 85   : 		{	// construct with pointer _Ptr
; 86   : 		_Myptr = _Ptr;

	mov	ecx, DWORD PTR __Ptr$[esp-4]
	mov	DWORD PTR [eax], ecx

; 87   : 		}

	ret	4
??0?$_Vector_const_iterator@W4PolicyTypes@@V?$allocator@W4PolicyTypes@@@std@@@std@@QAE@PAW4PolicyTypes@@@Z ENDP ; std::_Vector_const_iterator<enum PolicyTypes,std::allocator<enum PolicyTypes> >::_Vector_const_iterator<enum PolicyTypes,std::allocator<enum PolicyTypes> >
_TEXT	ENDS
PUBLIC	??0const_iterator@?$_Tree@V?$_Tmap_traits@IHU?$less@I@std@@V?$allocator@U?$pair@$$CBIH@std@@@2@$0A@@std@@@std@@QAE@PAU_Node@?$_Tree_nod@V?$_Tmap_traits@IHU?$less@I@std@@V?$allocator@U?$pair@$$CBIH@std@@@2@$0A@@std@@@2@@Z ; std::_Tree<std::_Tmap_traits<unsigned int,int,std::less<unsigned int>,std::allocator<std::pair<unsigned int const ,int> >,0> >::const_iterator::const_iterator
; Function compile flags: /Ogtpy
; File c:\program files (x86)\microsoft visual studio 9.0\vc\include\xtree
;	COMDAT ??0const_iterator@?$_Tree@V?$_Tmap_traits@IHU?$less@I@std@@V?$allocator@U?$pair@$$CBIH@std@@@2@$0A@@std@@@std@@QAE@PAU_Node@?$_Tree_nod@V?$_Tmap_traits@IHU?$less@I@std@@V?$allocator@U?$pair@$$CBIH@std@@@2@$0A@@std@@@2@@Z
_TEXT	SEGMENT
__Pnode$ = 8						; size = 4
??0const_iterator@?$_Tree@V?$_Tmap_traits@IHU?$less@I@std@@V?$allocator@U?$pair@$$CBIH@std@@@2@$0A@@std@@@std@@QAE@PAU_Node@?$_Tree_nod@V?$_Tmap_traits@IHU?$less@I@std@@V?$allocator@U?$pair@$$CBIH@std@@@2@$0A@@std@@@2@@Z PROC ; std::_Tree<std::_Tmap_traits<unsigned int,int,std::less<unsigned int>,std::allocator<std::pair<unsigned int const ,int> >,0> >::const_iterator::const_iterator, COMDAT
; _this$ = ecx

; 244  : 			{	// construct with node pointer _Pnode

	mov	eax, ecx
	mov	ecx, DWORD PTR __Pnode$[esp-4]
	mov	DWORD PTR [eax], ecx

; 245  : 			}

	ret	4
??0const_iterator@?$_Tree@V?$_Tmap_traits@IHU?$less@I@std@@V?$allocator@U?$pair@$$CBIH@std@@@2@$0A@@std@@@std@@QAE@PAU_Node@?$_Tree_nod@V?$_Tmap_traits@IHU?$less@I@std@@V?$allocator@U?$pair@$$CBIH@std@@@2@$0A@@std@@@2@@Z ENDP ; std::_Tree<std::_Tmap_traits<unsigned int,int,std::less<unsigned int>,std::allocator<std::pair<unsigned int const ,int> >,0> >::const_iterator::const_iterator
_TEXT	ENDS
PUBLIC	?Alloc@?$FStaticVector@UWeightedElement@?$CvWeightedVector@PAVCvPlot@@$0DCA@$00@@$0DCA@$00$0A@$0A@@@IAEPAUWeightedElement@?$CvWeightedVector@PAVCvPlot@@$0DCA@$00@@I@Z ; FStaticVector<CvWeightedVector<CvPlot *,800,1>::WeightedElement,800,1,0,0>::Alloc
; Function compile flags: /Ogtpy
; File c:\users\enormousapplepie\documents\github\lekmod\lekmod_dll\fireplace\include\fireworks\ffastvector.h
;	COMDAT ?Alloc@?$FStaticVector@UWeightedElement@?$CvWeightedVector@PAVCvPlot@@$0DCA@$00@@$0DCA@$00$0A@$0A@@@IAEPAUWeightedElement@?$CvWeightedVector@PAVCvPlot@@$0DCA@$00@@I@Z
_TEXT	SEGMENT
_uiSize$ = 8						; size = 4
?Alloc@?$FStaticVector@UWeightedElement@?$CvWeightedVector@PAVCvPlot@@$0DCA@$00@@$0DCA@$00$0A@$0A@@@IAEPAUWeightedElement@?$CvWeightedVector@PAVCvPlot@@$0DCA@$00@@I@Z PROC ; FStaticVector<CvWeightedVector<CvPlot *,800,1>::WeightedElement,800,1,0,0>::Alloc, COMDAT
; _this$ = ecx

; 795  : 	T* Alloc(unsigned int uiSize){

	push	esi
	push	edi

; 796  : 		T* pRet;
; 797  : 		if( uiSize > L ){

	mov	edi, DWORD PTR _uiSize$[esp+4]
	mov	esi, ecx
	cmp	edi, 800				; 00000320H
	jbe	SHORT $LN2@Alloc@2

; 798  : 			pRet = (T*)FMALLOCALIGNED( uiSize*sizeof(T), __alignof(T), AllocPool, nSubID );

	push	798					; 0000031eH
	push	OFFSET ??_C@_0GH@ECFAPJEJ@c?3?2users?2enormousapplepie?2docume@
	lea	eax, DWORD PTR [edi*8]
	push	4
	push	eax
	call	?FireMallocAlignedNoTracking@@YAPAXIIPBDH@Z ; FireMallocAlignedNoTracking
	add	esp, 16					; 00000010H

; 799  : 			m_uiCurrMaxSize = uiSize;

	mov	DWORD PTR [esi+8], edi
	pop	edi
	pop	esi

; 803  : 		}
; 804  : 		return pRet;
; 805  : 	};

	ret	4
$LN2@Alloc@2:
	pop	edi

; 800  : 		}else{
; 801  : 			pRet = (T*)m_aData;

	lea	eax, DWORD PTR [esi+12]

; 802  : 			m_uiCurrMaxSize = L;

	mov	DWORD PTR [esi+8], 800			; 00000320H
	pop	esi

; 803  : 		}
; 804  : 		return pRet;
; 805  : 	};

	ret	4
?Alloc@?$FStaticVector@UWeightedElement@?$CvWeightedVector@PAVCvPlot@@$0DCA@$00@@$0DCA@$00$0A@$0A@@@IAEPAUWeightedElement@?$CvWeightedVector@PAVCvPlot@@$0DCA@$00@@I@Z ENDP ; FStaticVector<CvWeightedVector<CvPlot *,800,1>::WeightedElement,800,1,0,0>::Alloc
_TEXT	ENDS
PUBLIC	??1?$BaseVector@UWeightedElement@?$CvWeightedVector@PAVCvPlot@@$0DCA@$00@@$00@@QAE@XZ ; BaseVector<CvWeightedVector<CvPlot *,800,1>::WeightedElement,1>::~BaseVector<CvWeightedVector<CvPlot *,800,1>::WeightedElement,1>
; Function compile flags: /Ogtpy
;	COMDAT ??1?$BaseVector@UWeightedElement@?$CvWeightedVector@PAVCvPlot@@$0DCA@$00@@$00@@QAE@XZ
_TEXT	SEGMENT
??1?$BaseVector@UWeightedElement@?$CvWeightedVector@PAVCvPlot@@$0DCA@$00@@$00@@QAE@XZ PROC ; BaseVector<CvWeightedVector<CvPlot *,800,1>::WeightedElement,1>::~BaseVector<CvWeightedVector<CvPlot *,800,1>::WeightedElement,1>, COMDAT
; _this$ = ecx

; 111  : 	~BaseVector(){};

	ret	0
??1?$BaseVector@UWeightedElement@?$CvWeightedVector@PAVCvPlot@@$0DCA@$00@@$00@@QAE@XZ ENDP ; BaseVector<CvWeightedVector<CvPlot *,800,1>::WeightedElement,1>::~BaseVector<CvWeightedVector<CvPlot *,800,1>::WeightedElement,1>
_TEXT	ENDS
PUBLIC	??0?$BaseVector@UWeightedElement@?$CvWeightedVector@PAVCvPlot@@$0DCA@$00@@$00@@IAE@XZ ; BaseVector<CvWeightedVector<CvPlot *,800,1>::WeightedElement,1>::BaseVector<CvWeightedVector<CvPlot *,800,1>::WeightedElement,1>
; Function compile flags: /Ogtpy
;	COMDAT ??0?$BaseVector@UWeightedElement@?$CvWeightedVector@PAVCvPlot@@$0DCA@$00@@$00@@IAE@XZ
_TEXT	SEGMENT
??0?$BaseVector@UWeightedElement@?$CvWeightedVector@PAVCvPlot@@$0DCA@$00@@$00@@IAE@XZ PROC ; BaseVector<CvWeightedVector<CvPlot *,800,1>::WeightedElement,1>::BaseVector<CvWeightedVector<CvPlot *,800,1>::WeightedElement,1>, COMDAT
; _this$ = ecx

; 216  : 	BaseVector() : m_uiCurrSize(0), m_uiCurrMaxSize(0), m_pData(NULL) {};

	mov	eax, ecx
	xor	ecx, ecx
	mov	DWORD PTR [eax], ecx
	mov	DWORD PTR [eax+4], ecx
	mov	DWORD PTR [eax+8], ecx
	ret	0
??0?$BaseVector@UWeightedElement@?$CvWeightedVector@PAVCvPlot@@$0DCA@$00@@$00@@IAE@XZ ENDP ; BaseVector<CvWeightedVector<CvPlot *,800,1>::WeightedElement,1>::BaseVector<CvWeightedVector<CvPlot *,800,1>::WeightedElement,1>
_TEXT	ENDS
PUBLIC	??0WeightedElement@?$CvWeightedVector@PAVCvPlot@@$0DCA@$00@@QAE@ABU01@@Z ; CvWeightedVector<CvPlot *,800,1>::WeightedElement::WeightedElement
; Function compile flags: /Ogtpy
; File c:\users\enormousapplepie\documents\github\lekmod\lekmod_dll\cvgamecoredllutil\include\cvweightedvector.h
;	COMDAT ??0WeightedElement@?$CvWeightedVector@PAVCvPlot@@$0DCA@$00@@QAE@ABU01@@Z
_TEXT	SEGMENT
_source$ = 8						; size = 4
??0WeightedElement@?$CvWeightedVector@PAVCvPlot@@$0DCA@$00@@QAE@ABU01@@Z PROC ; CvWeightedVector<CvPlot *,800,1>::WeightedElement::WeightedElement, COMDAT
; _this$ = ecx

; 37   : 		{

	mov	eax, ecx
	mov	ecx, DWORD PTR _source$[esp-4]
	mov	edx, DWORD PTR [ecx]
	mov	DWORD PTR [eax], edx
	mov	ecx, DWORD PTR [ecx+4]
	mov	DWORD PTR [eax+4], ecx

; 38   : 		}

	ret	4
??0WeightedElement@?$CvWeightedVector@PAVCvPlot@@$0DCA@$00@@QAE@ABU01@@Z ENDP ; CvWeightedVector<CvPlot *,800,1>::WeightedElement::WeightedElement
_TEXT	ENDS
PUBLIC	?_Xlen@?$vector@UOpinion@@V?$allocator@UOpinion@@@std@@@std@@KAXXZ ; std::vector<Opinion,std::allocator<Opinion> >::_Xlen
;	COMDAT xdata$x
; File c:\program files (x86)\microsoft visual studio 9.0\vc\include\stdexcept
xdata$x	SEGMENT
__unwindtable$?_Xlen@?$vector@UOpinion@@V?$allocator@UOpinion@@@std@@@std@@KAXXZ DD 0ffffffffH
	DD	FLAT:__unwindfunclet$?_Xlen@?$vector@UOpinion@@V?$allocator@UOpinion@@@std@@@std@@KAXXZ$0
	DD	00H
	DD	FLAT:__unwindfunclet$?_Xlen@?$vector@UOpinion@@V?$allocator@UOpinion@@@std@@@std@@KAXXZ$2
__ehfuncinfo$?_Xlen@?$vector@UOpinion@@V?$allocator@UOpinion@@@std@@@std@@KAXXZ DD 019930522H
	DD	02H
	DD	FLAT:__unwindtable$?_Xlen@?$vector@UOpinion@@V?$allocator@UOpinion@@@std@@@std@@KAXXZ
	DD	2 DUP(00H)
	DD	2 DUP(00H)
	DD	00H
	DD	01H
; Function compile flags: /Ogtpy
; File c:\program files (x86)\microsoft visual studio 9.0\vc\include\vector
xdata$x	ENDS
;	COMDAT ?_Xlen@?$vector@UOpinion@@V?$allocator@UOpinion@@@std@@@std@@KAXXZ
_TEXT	SEGMENT
$T243194 = -80						; size = 28
$T243193 = -52						; size = 40
__$EHRec$ = -12						; size = 12
?_Xlen@?$vector@UOpinion@@V?$allocator@UOpinion@@@std@@@std@@KAXXZ PROC ; std::vector<Opinion,std::allocator<Opinion> >::_Xlen, COMDAT

; 1259 : 		{	// report a length_error

	push	-1
	push	__ehhandler$?_Xlen@?$vector@UOpinion@@V?$allocator@UOpinion@@@std@@@std@@KAXXZ
	mov	eax, DWORD PTR fs:0
	push	eax
	mov	DWORD PTR fs:0, esp
	sub	esp, 68					; 00000044H

; 1260 : 		_THROW(length_error, "vector<T> too long");

	push	OFFSET ??_C@_0BD@OLBABOEK@vector?$DMT?$DO?5too?5long?$AA@
	lea	ecx, DWORD PTR $T243194[esp+84]
	call	DWORD PTR __imp_??0?$basic_string@DU?$char_traits@D@std@@V?$allocator@D@2@@std@@QAE@PBD@Z
	lea	ecx, DWORD PTR $T243193[esp+80]
	mov	DWORD PTR __$EHRec$[esp+88], 0
	call	DWORD PTR __imp_??0exception@std@@QAE@XZ
	lea	eax, DWORD PTR $T243194[esp+80]
	push	eax
	lea	ecx, DWORD PTR $T243193[esp+96]
	mov	BYTE PTR __$EHRec$[esp+92], 1
	mov	DWORD PTR $T243193[esp+84], OFFSET ??_7logic_error@std@@6B@
	call	DWORD PTR __imp_??0?$basic_string@DU?$char_traits@D@std@@V?$allocator@D@2@@std@@QAE@ABV01@@Z
	push	OFFSET __TI3?AVlength_error@std@@
	lea	ecx, DWORD PTR $T243193[esp+84]
	push	ecx
	mov	BYTE PTR __$EHRec$[esp+96], 0
	mov	DWORD PTR $T243193[esp+88], OFFSET ??_7length_error@std@@6B@
	call	__CxxThrowException@8
$LN13@Xlen@2:
$LN12@Xlen@2:
	int	3
_TEXT	ENDS
;	COMDAT text$x
text$x	SEGMENT
__unwindfunclet$?_Xlen@?$vector@UOpinion@@V?$allocator@UOpinion@@@std@@@std@@KAXXZ$0:
	lea	ecx, DWORD PTR $T243194[ebp]
	jmp	DWORD PTR __imp_??1?$basic_string@DU?$char_traits@D@std@@V?$allocator@D@2@@std@@QAE@XZ
__unwindfunclet$?_Xlen@?$vector@UOpinion@@V?$allocator@UOpinion@@@std@@@std@@KAXXZ$2:
	lea	ecx, DWORD PTR $T243193[ebp]
	jmp	DWORD PTR __imp_??1exception@std@@UAE@XZ
__ehhandler$?_Xlen@?$vector@UOpinion@@V?$allocator@UOpinion@@@std@@@std@@KAXXZ:
	mov	eax, OFFSET __ehfuncinfo$?_Xlen@?$vector@UOpinion@@V?$allocator@UOpinion@@@std@@@std@@KAXXZ
	jmp	___CxxFrameHandler3
text$x	ENDS
?_Xlen@?$vector@UOpinion@@V?$allocator@UOpinion@@@std@@@std@@KAXXZ ENDP ; std::vector<Opinion,std::allocator<Opinion> >::_Xlen
PUBLIC	??0?$_Container_base_aux_alloc_empty@V?$allocator@UOpinion@@@std@@@std@@IAE@V?$allocator@UOpinion@@@1@@Z ; std::_Container_base_aux_alloc_empty<std::allocator<Opinion> >::_Container_base_aux_alloc_empty<std::allocator<Opinion> >
; Function compile flags: /Ogtpy
; File c:\program files (x86)\microsoft visual studio 9.0\vc\include\xutility
;	COMDAT ??0?$_Container_base_aux_alloc_empty@V?$allocator@UOpinion@@@std@@@std@@IAE@V?$allocator@UOpinion@@@1@@Z
_TEXT	SEGMENT
___formal$ = 8						; size = 1
??0?$_Container_base_aux_alloc_empty@V?$allocator@UOpinion@@@std@@@std@@IAE@V?$allocator@UOpinion@@@1@@Z PROC ; std::_Container_base_aux_alloc_empty<std::allocator<Opinion> >::_Container_base_aux_alloc_empty<std::allocator<Opinion> >, COMDAT
; _this$ = ecx

; 618  : 	explicit _Container_base_aux_alloc_empty(_Alloc) { }

	mov	eax, ecx
	ret	4
??0?$_Container_base_aux_alloc_empty@V?$allocator@UOpinion@@@std@@@std@@IAE@V?$allocator@UOpinion@@@1@@Z ENDP ; std::_Container_base_aux_alloc_empty<std::allocator<Opinion> >::_Container_base_aux_alloc_empty<std::allocator<Opinion> >
_TEXT	ENDS
PUBLIC	??0?$allocator@UOpinion@@@std@@QAE@ABV01@@Z	; std::allocator<Opinion>::allocator<Opinion>
; Function compile flags: /Ogtpy
; File c:\program files (x86)\microsoft visual studio 9.0\vc\include\xmemory
;	COMDAT ??0?$allocator@UOpinion@@@std@@QAE@ABV01@@Z
_TEXT	SEGMENT
___formal$ = 8						; size = 4
??0?$allocator@UOpinion@@@std@@QAE@ABV01@@Z PROC	; std::allocator<Opinion>::allocator<Opinion>, COMDAT
; _this$ = ecx

; 123  : 	allocator(const allocator<_Ty>&) _THROW0()

	mov	eax, ecx

; 124  : 		{	// construct by copying (do nothing)
; 125  : 		}

	ret	4
??0?$allocator@UOpinion@@@std@@QAE@ABV01@@Z ENDP	; std::allocator<Opinion>::allocator<Opinion>
_TEXT	ENDS
PUBLIC	?deallocate@?$allocator@UOpinion@@@std@@QAEXPAUOpinion@@I@Z ; std::allocator<Opinion>::deallocate
; Function compile flags: /Ogtpy
;	COMDAT ?deallocate@?$allocator@UOpinion@@@std@@QAEXPAUOpinion@@I@Z
_TEXT	SEGMENT
__Ptr$ = 8						; size = 4
___formal$ = 12						; size = 4
?deallocate@?$allocator@UOpinion@@@std@@QAEXPAUOpinion@@I@Z PROC ; std::allocator<Opinion>::deallocate, COMDAT
; _this$ = ecx

; 140  : 		::operator delete(_Ptr);

	mov	eax, DWORD PTR __Ptr$[esp-4]
	push	eax
	call	??3@YAXPAX@Z				; operator delete
	pop	ecx

; 141  : 		}

	ret	8
?deallocate@?$allocator@UOpinion@@@std@@QAEXPAUOpinion@@I@Z ENDP ; std::allocator<Opinion>::deallocate
_TEXT	ENDS
PUBLIC	??0?$_Vector_const_iterator@UOpinion@@V?$allocator@UOpinion@@@std@@@std@@QAE@PAUOpinion@@@Z ; std::_Vector_const_iterator<Opinion,std::allocator<Opinion> >::_Vector_const_iterator<Opinion,std::allocator<Opinion> >
; Function compile flags: /Ogtpy
; File c:\program files (x86)\microsoft visual studio 9.0\vc\include\vector
;	COMDAT ??0?$_Vector_const_iterator@UOpinion@@V?$allocator@UOpinion@@@std@@@std@@QAE@PAUOpinion@@@Z
_TEXT	SEGMENT
__Ptr$ = 8						; size = 4
??0?$_Vector_const_iterator@UOpinion@@V?$allocator@UOpinion@@@std@@@std@@QAE@PAUOpinion@@@Z PROC ; std::_Vector_const_iterator<Opinion,std::allocator<Opinion> >::_Vector_const_iterator<Opinion,std::allocator<Opinion> >, COMDAT
; _this$ = ecx

; 84   : 	explicit _Vector_const_iterator(_Tptr _Ptr)

	mov	eax, ecx

; 85   : 		{	// construct with pointer _Ptr
; 86   : 		_Myptr = _Ptr;

	mov	ecx, DWORD PTR __Ptr$[esp-4]
	mov	DWORD PTR [eax], ecx

; 87   : 		}

	ret	4
??0?$_Vector_const_iterator@UOpinion@@V?$allocator@UOpinion@@@std@@@std@@QAE@PAUOpinion@@@Z ENDP ; std::_Vector_const_iterator<Opinion,std::allocator<Opinion> >::_Vector_const_iterator<Opinion,std::allocator<Opinion> >
_TEXT	ENDS
PUBLIC	??G?$_Vector_const_iterator@UOpinion@@V?$allocator@UOpinion@@@std@@@std@@QBEHABV01@@Z ; std::_Vector_const_iterator<Opinion,std::allocator<Opinion> >::operator-
; Function compile flags: /Ogtpy
;	COMDAT ??G?$_Vector_const_iterator@UOpinion@@V?$allocator@UOpinion@@@std@@@std@@QBEHABV01@@Z
_TEXT	SEGMENT
__Right$ = 8						; size = 4
??G?$_Vector_const_iterator@UOpinion@@V?$allocator@UOpinion@@@std@@@std@@QBEHABV01@@Z PROC ; std::_Vector_const_iterator<Opinion,std::allocator<Opinion> >::operator-, COMDAT
; _this$ = ecx

; 187  : 
; 188  :  #if _HAS_ITERATOR_DEBUGGING
; 189  : 		_Compat(_Right);
; 190  :  #else
; 191  : 		_SCL_SECURE_VALIDATE(this->_Has_container() && this->_Same_container(_Right));
; 192  :  #endif /* _HAS_ITERATOR_DEBUGGING */
; 193  : 
; 194  : 		return (_Myptr - _Right._Myptr);

	mov	eax, DWORD PTR __Right$[esp-4]
	mov	ecx, DWORD PTR [ecx]
	sub	ecx, DWORD PTR [eax]
	mov	eax, 818089009				; 30c30c31H
	imul	ecx
	sar	edx, 4
	mov	eax, edx
	shr	eax, 31					; 0000001fH
	add	eax, edx

; 195  : 		}

	ret	4
??G?$_Vector_const_iterator@UOpinion@@V?$allocator@UOpinion@@@std@@@std@@QBEHABV01@@Z ENDP ; std::_Vector_const_iterator<Opinion,std::allocator<Opinion> >::operator-
_TEXT	ENDS
PUBLIC	??0Opinion@@QAE@ABU0@@Z				; Opinion::Opinion
EXTRN	__imp_??0String@Localization@@QAE@ABV01@@Z:PROC
; Function compile flags: /Ogtpy
;	COMDAT ??0Opinion@@QAE@ABU0@@Z
_TEXT	SEGMENT
___that$ = 8						; size = 4
??0Opinion@@QAE@ABU0@@Z PROC				; Opinion::Opinion, COMDAT
; _this$ = ecx
	push	esi
	push	edi
	mov	edi, DWORD PTR ___that$[esp+4]
	push	edi
	mov	esi, ecx
	call	DWORD PTR __imp_??0String@Localization@@QAE@ABV01@@Z
	mov	eax, DWORD PTR [edi+80]
	mov	DWORD PTR [esi+80], eax
	pop	edi
	mov	eax, esi
	pop	esi
	ret	4
??0Opinion@@QAE@ABU0@@Z ENDP				; Opinion::Opinion
_TEXT	ENDS
PUBLIC	?max_size@?$allocator@VCvString@@@std@@QBEIXZ	; std::allocator<CvString>::max_size
; Function compile flags: /Ogtpy
; File c:\program files (x86)\microsoft visual studio 9.0\vc\include\xmemory
;	COMDAT ?max_size@?$allocator@VCvString@@@std@@QBEIXZ
_TEXT	SEGMENT
?max_size@?$allocator@VCvString@@@std@@QBEIXZ PROC	; std::allocator<CvString>::max_size, COMDAT
; _this$ = ecx

; 165  : 		_SIZT _Count = (_SIZT)(-1) / sizeof (_Ty);
; 166  : 		return (0 < _Count ? _Count : 1);

	mov	eax, 153391689				; 09249249H

; 167  : 		}

	ret	0
?max_size@?$allocator@VCvString@@@std@@QBEIXZ ENDP	; std::allocator<CvString>::max_size
_TEXT	ENDS
PUBLIC	?_Isnil@?$_Tree@V?$_Tmap_traits@IHU?$less@I@std@@V?$allocator@U?$pair@$$CBIH@std@@@2@$0A@@std@@@std@@KAAADPAU_Node@?$_Tree_nod@V?$_Tmap_traits@IHU?$less@I@std@@V?$allocator@U?$pair@$$CBIH@std@@@2@$0A@@std@@@2@@Z ; std::_Tree<std::_Tmap_traits<unsigned int,int,std::less<unsigned int>,std::allocator<std::pair<unsigned int const ,int> >,0> >::_Isnil
; Function compile flags: /Ogtpy
; File c:\program files (x86)\microsoft visual studio 9.0\vc\include\xtree
;	COMDAT ?_Isnil@?$_Tree@V?$_Tmap_traits@IHU?$less@I@std@@V?$allocator@U?$pair@$$CBIH@std@@@2@$0A@@std@@@std@@KAAADPAU_Node@?$_Tree_nod@V?$_Tmap_traits@IHU?$less@I@std@@V?$allocator@U?$pair@$$CBIH@std@@@2@$0A@@std@@@2@@Z
_TEXT	SEGMENT
__Pnode$ = 8						; size = 4
?_Isnil@?$_Tree@V?$_Tmap_traits@IHU?$less@I@std@@V?$allocator@U?$pair@$$CBIH@std@@@2@$0A@@std@@@std@@KAAADPAU_Node@?$_Tree_nod@V?$_Tmap_traits@IHU?$less@I@std@@V?$allocator@U?$pair@$$CBIH@std@@@2@$0A@@std@@@2@@Z PROC ; std::_Tree<std::_Tmap_traits<unsigned int,int,std::less<unsigned int>,std::allocator<std::pair<unsigned int const ,int> >,0> >::_Isnil, COMDAT

; 157  : 		return ((_Charref)(*_Pnode)._Isnil);

	mov	eax, DWORD PTR __Pnode$[esp-4]
	add	eax, 21					; 00000015H

; 158  : 		}

	ret	0
?_Isnil@?$_Tree@V?$_Tmap_traits@IHU?$less@I@std@@V?$allocator@U?$pair@$$CBIH@std@@@2@$0A@@std@@@std@@KAAADPAU_Node@?$_Tree_nod@V?$_Tmap_traits@IHU?$less@I@std@@V?$allocator@U?$pair@$$CBIH@std@@@2@$0A@@std@@@2@@Z ENDP ; std::_Tree<std::_Tmap_traits<unsigned int,int,std::less<unsigned int>,std::allocator<std::pair<unsigned int const ,int> >,0> >::_Isnil
_TEXT	ENDS
PUBLIC	?_Min@?$_Tree@V?$_Tmap_traits@IHU?$less@I@std@@V?$allocator@U?$pair@$$CBIH@std@@@2@$0A@@std@@@std@@KAPAU_Node@?$_Tree_nod@V?$_Tmap_traits@IHU?$less@I@std@@V?$allocator@U?$pair@$$CBIH@std@@@2@$0A@@std@@@2@PAU342@@Z ; std::_Tree<std::_Tmap_traits<unsigned int,int,std::less<unsigned int>,std::allocator<std::pair<unsigned int const ,int> >,0> >::_Min
; Function compile flags: /Ogtpy
;	COMDAT ?_Min@?$_Tree@V?$_Tmap_traits@IHU?$less@I@std@@V?$allocator@U?$pair@$$CBIH@std@@@2@$0A@@std@@@std@@KAPAU_Node@?$_Tree_nod@V?$_Tmap_traits@IHU?$less@I@std@@V?$allocator@U?$pair@$$CBIH@std@@@2@$0A@@std@@@2@PAU342@@Z
_TEXT	SEGMENT
__Pnode$ = 8						; size = 4
?_Min@?$_Tree@V?$_Tmap_traits@IHU?$less@I@std@@V?$allocator@U?$pair@$$CBIH@std@@@2@$0A@@std@@@std@@KAPAU_Node@?$_Tree_nod@V?$_Tmap_traits@IHU?$less@I@std@@V?$allocator@U?$pair@$$CBIH@std@@@2@$0A@@std@@@2@PAU342@@Z PROC ; std::_Tree<std::_Tmap_traits<unsigned int,int,std::less<unsigned int>,std::allocator<std::pair<unsigned int const ,int> >,0> >::_Min, COMDAT

; 1313 : 		while (!_Isnil(_Left(_Pnode)))

	mov	eax, DWORD PTR __Pnode$[esp-4]
	mov	ecx, DWORD PTR [eax]
	cmp	BYTE PTR [ecx+21], 0
	jne	SHORT $LN1@Min
	npad	4
$LL2@Min:

; 1314 : 			_Pnode = _Left(_Pnode);

	mov	eax, ecx
	mov	ecx, DWORD PTR [eax]
	cmp	BYTE PTR [ecx+21], 0
	je	SHORT $LL2@Min
$LN1@Min:

; 1315 : 		return (_Pnode);
; 1316 : 		}

	ret	0
?_Min@?$_Tree@V?$_Tmap_traits@IHU?$less@I@std@@V?$allocator@U?$pair@$$CBIH@std@@@2@$0A@@std@@@std@@KAPAU_Node@?$_Tree_nod@V?$_Tmap_traits@IHU?$less@I@std@@V?$allocator@U?$pair@$$CBIH@std@@@2@$0A@@std@@@2@PAU342@@Z ENDP ; std::_Tree<std::_Tmap_traits<unsigned int,int,std::less<unsigned int>,std::allocator<std::pair<unsigned int const ,int> >,0> >::_Min
_TEXT	ENDS
PUBLIC	?Destroy@?$BaseVector@UWeightedElement@?$CvWeightedVector@PAVCvPlot@@$0DCA@$00@@$00@@IAEXPAUWeightedElement@?$CvWeightedVector@PAVCvPlot@@$0DCA@$00@@I@Z ; BaseVector<CvWeightedVector<CvPlot *,800,1>::WeightedElement,1>::Destroy
; Function compile flags: /Ogtpy
; File c:\users\enormousapplepie\documents\github\lekmod\lekmod_dll\fireplace\include\fireworks\ffastvector.h
;	COMDAT ?Destroy@?$BaseVector@UWeightedElement@?$CvWeightedVector@PAVCvPlot@@$0DCA@$00@@$00@@IAEXPAUWeightedElement@?$CvWeightedVector@PAVCvPlot@@$0DCA@$00@@I@Z
_TEXT	SEGMENT
_pVal$ = 8						; size = 4
_uiNumElements$ = 12					; size = 4
?Destroy@?$BaseVector@UWeightedElement@?$CvWeightedVector@PAVCvPlot@@$0DCA@$00@@$00@@IAEXPAUWeightedElement@?$CvWeightedVector@PAVCvPlot@@$0DCA@$00@@I@Z PROC ; BaseVector<CvWeightedVector<CvPlot *,800,1>::WeightedElement,1>::Destroy, COMDAT
; _this$ = ecx

; 221  : 		if( !bPODType){
; 222  : 			for(unsigned int i = 0; i < uiNumElements; ++i){
; 223  : 				pVal[i].~T();
; 224  : 			}
; 225  : 		}
; 226  : 	};

	ret	8
?Destroy@?$BaseVector@UWeightedElement@?$CvWeightedVector@PAVCvPlot@@$0DCA@$00@@$00@@IAEXPAUWeightedElement@?$CvWeightedVector@PAVCvPlot@@$0DCA@$00@@I@Z ENDP ; BaseVector<CvWeightedVector<CvPlot *,800,1>::WeightedElement,1>::Destroy
_TEXT	ENDS
PUBLIC	?max_size@?$allocator@UOpinion@@@std@@QBEIXZ	; std::allocator<Opinion>::max_size
; Function compile flags: /Ogtpy
; File c:\program files (x86)\microsoft visual studio 9.0\vc\include\xmemory
;	COMDAT ?max_size@?$allocator@UOpinion@@@std@@QBEIXZ
_TEXT	SEGMENT
?max_size@?$allocator@UOpinion@@@std@@QBEIXZ PROC	; std::allocator<Opinion>::max_size, COMDAT
; _this$ = ecx

; 165  : 		_SIZT _Count = (_SIZT)(-1) / sizeof (_Ty);
; 166  : 		return (0 < _Count ? _Count : 1);

	mov	eax, 51130563				; 030c30c3H

; 167  : 		}

	ret	0
?max_size@?$allocator@UOpinion@@@std@@QBEIXZ ENDP	; std::allocator<Opinion>::max_size
_TEXT	ENDS
PUBLIC	?_Color@?$_Tree@V?$_Tmap_traits@IHU?$less@I@std@@V?$allocator@U?$pair@$$CBIH@std@@@2@$0A@@std@@@std@@KAAADPAU_Node@?$_Tree_nod@V?$_Tmap_traits@IHU?$less@I@std@@V?$allocator@U?$pair@$$CBIH@std@@@2@$0A@@std@@@2@@Z ; std::_Tree<std::_Tmap_traits<unsigned int,int,std::less<unsigned int>,std::allocator<std::pair<unsigned int const ,int> >,0> >::_Color
; Function compile flags: /Ogtpy
; File c:\program files (x86)\microsoft visual studio 9.0\vc\include\xtree
;	COMDAT ?_Color@?$_Tree@V?$_Tmap_traits@IHU?$less@I@std@@V?$allocator@U?$pair@$$CBIH@std@@@2@$0A@@std@@@std@@KAAADPAU_Node@?$_Tree_nod@V?$_Tmap_traits@IHU?$less@I@std@@V?$allocator@U?$pair@$$CBIH@std@@@2@$0A@@std@@@2@@Z
_TEXT	SEGMENT
__Pnode$ = 8						; size = 4
?_Color@?$_Tree@V?$_Tmap_traits@IHU?$less@I@std@@V?$allocator@U?$pair@$$CBIH@std@@@2@$0A@@std@@@std@@KAAADPAU_Node@?$_Tree_nod@V?$_Tmap_traits@IHU?$less@I@std@@V?$allocator@U?$pair@$$CBIH@std@@@2@$0A@@std@@@2@@Z PROC ; std::_Tree<std::_Tmap_traits<unsigned int,int,std::less<unsigned int>,std::allocator<std::pair<unsigned int const ,int> >,0> >::_Color, COMDAT

; 152  : 		return ((_Charref)(*_Pnode)._Color);

	mov	eax, DWORD PTR __Pnode$[esp-4]
	add	eax, 20					; 00000014H

; 153  : 		}

	ret	0
?_Color@?$_Tree@V?$_Tmap_traits@IHU?$less@I@std@@V?$allocator@U?$pair@$$CBIH@std@@@2@$0A@@std@@@std@@KAAADPAU_Node@?$_Tree_nod@V?$_Tmap_traits@IHU?$less@I@std@@V?$allocator@U?$pair@$$CBIH@std@@@2@$0A@@std@@@2@@Z ENDP ; std::_Tree<std::_Tmap_traits<unsigned int,int,std::less<unsigned int>,std::allocator<std::pair<unsigned int const ,int> >,0> >::_Color
_TEXT	ENDS
PUBLIC	?_Max@?$_Tree@V?$_Tmap_traits@IHU?$less@I@std@@V?$allocator@U?$pair@$$CBIH@std@@@2@$0A@@std@@@std@@KAPAU_Node@?$_Tree_nod@V?$_Tmap_traits@IHU?$less@I@std@@V?$allocator@U?$pair@$$CBIH@std@@@2@$0A@@std@@@2@PAU342@@Z ; std::_Tree<std::_Tmap_traits<unsigned int,int,std::less<unsigned int>,std::allocator<std::pair<unsigned int const ,int> >,0> >::_Max
; Function compile flags: /Ogtpy
;	COMDAT ?_Max@?$_Tree@V?$_Tmap_traits@IHU?$less@I@std@@V?$allocator@U?$pair@$$CBIH@std@@@2@$0A@@std@@@std@@KAPAU_Node@?$_Tree_nod@V?$_Tmap_traits@IHU?$less@I@std@@V?$allocator@U?$pair@$$CBIH@std@@@2@$0A@@std@@@2@PAU342@@Z
_TEXT	SEGMENT
__Pnode$ = 8						; size = 4
?_Max@?$_Tree@V?$_Tmap_traits@IHU?$less@I@std@@V?$allocator@U?$pair@$$CBIH@std@@@2@$0A@@std@@@std@@KAPAU_Node@?$_Tree_nod@V?$_Tmap_traits@IHU?$less@I@std@@V?$allocator@U?$pair@$$CBIH@std@@@2@$0A@@std@@@2@PAU342@@Z PROC ; std::_Tree<std::_Tmap_traits<unsigned int,int,std::less<unsigned int>,std::allocator<std::pair<unsigned int const ,int> >,0> >::_Max, COMDAT

; 1306 : 		while (!_Isnil(_Right(_Pnode)))

	mov	eax, DWORD PTR __Pnode$[esp-4]
	mov	ecx, DWORD PTR [eax+8]
	cmp	BYTE PTR [ecx+21], 0
	jne	SHORT $LN1@Max
	npad	3
$LL2@Max:

; 1307 : 			_Pnode = _Right(_Pnode);

	mov	eax, ecx
	mov	ecx, DWORD PTR [eax+8]
	cmp	BYTE PTR [ecx+21], 0
	je	SHORT $LL2@Max
$LN1@Max:

; 1308 : 		return (_Pnode);
; 1309 : 		}

	ret	0
?_Max@?$_Tree@V?$_Tmap_traits@IHU?$less@I@std@@V?$allocator@U?$pair@$$CBIH@std@@@2@$0A@@std@@@std@@KAPAU_Node@?$_Tree_nod@V?$_Tmap_traits@IHU?$less@I@std@@V?$allocator@U?$pair@$$CBIH@std@@@2@$0A@@std@@@2@PAU342@@Z ENDP ; std::_Tree<std::_Tmap_traits<unsigned int,int,std::less<unsigned int>,std::allocator<std::pair<unsigned int const ,int> >,0> >::_Max
_TEXT	ENDS
PUBLIC	?_Rmost@?$_Tree@V?$_Tmap_traits@IHU?$less@I@std@@V?$allocator@U?$pair@$$CBIH@std@@@2@$0A@@std@@@std@@IBEAAPAU_Node@?$_Tree_nod@V?$_Tmap_traits@IHU?$less@I@std@@V?$allocator@U?$pair@$$CBIH@std@@@2@$0A@@std@@@2@XZ ; std::_Tree<std::_Tmap_traits<unsigned int,int,std::less<unsigned int>,std::allocator<std::pair<unsigned int const ,int> >,0> >::_Rmost
; Function compile flags: /Ogtpy
;	COMDAT ?_Rmost@?$_Tree@V?$_Tmap_traits@IHU?$less@I@std@@V?$allocator@U?$pair@$$CBIH@std@@@2@$0A@@std@@@std@@IBEAAPAU_Node@?$_Tree_nod@V?$_Tmap_traits@IHU?$less@I@std@@V?$allocator@U?$pair@$$CBIH@std@@@2@$0A@@std@@@2@XZ
_TEXT	SEGMENT
?_Rmost@?$_Tree@V?$_Tmap_traits@IHU?$less@I@std@@V?$allocator@U?$pair@$$CBIH@std@@@2@$0A@@std@@@std@@IBEAAPAU_Node@?$_Tree_nod@V?$_Tmap_traits@IHU?$less@I@std@@V?$allocator@U?$pair@$$CBIH@std@@@2@$0A@@std@@@2@XZ PROC ; std::_Tree<std::_Tmap_traits<unsigned int,int,std::less<unsigned int>,std::allocator<std::pair<unsigned int const ,int> >,0> >::_Rmost, COMDAT
; _this$ = ecx

; 1320 : 		return (_Right(_Myhead));

	mov	eax, DWORD PTR [ecx+4]
	add	eax, 8

; 1321 : 		}

	ret	0
?_Rmost@?$_Tree@V?$_Tmap_traits@IHU?$less@I@std@@V?$allocator@U?$pair@$$CBIH@std@@@2@$0A@@std@@@std@@IBEAAPAU_Node@?$_Tree_nod@V?$_Tmap_traits@IHU?$less@I@std@@V?$allocator@U?$pair@$$CBIH@std@@@2@$0A@@std@@@2@XZ ENDP ; std::_Tree<std::_Tmap_traits<unsigned int,int,std::less<unsigned int>,std::allocator<std::pair<unsigned int const ,int> >,0> >::_Rmost
_TEXT	ENDS
PUBLIC	?_Root@?$_Tree@V?$_Tmap_traits@IHU?$less@I@std@@V?$allocator@U?$pair@$$CBIH@std@@@2@$0A@@std@@@std@@IBEAAPAU_Node@?$_Tree_nod@V?$_Tmap_traits@IHU?$less@I@std@@V?$allocator@U?$pair@$$CBIH@std@@@2@$0A@@std@@@2@XZ ; std::_Tree<std::_Tmap_traits<unsigned int,int,std::less<unsigned int>,std::allocator<std::pair<unsigned int const ,int> >,0> >::_Root
; Function compile flags: /Ogtpy
;	COMDAT ?_Root@?$_Tree@V?$_Tmap_traits@IHU?$less@I@std@@V?$allocator@U?$pair@$$CBIH@std@@@2@$0A@@std@@@std@@IBEAAPAU_Node@?$_Tree_nod@V?$_Tmap_traits@IHU?$less@I@std@@V?$allocator@U?$pair@$$CBIH@std@@@2@$0A@@std@@@2@XZ
_TEXT	SEGMENT
?_Root@?$_Tree@V?$_Tmap_traits@IHU?$less@I@std@@V?$allocator@U?$pair@$$CBIH@std@@@2@$0A@@std@@@std@@IBEAAPAU_Node@?$_Tree_nod@V?$_Tmap_traits@IHU?$less@I@std@@V?$allocator@U?$pair@$$CBIH@std@@@2@$0A@@std@@@2@XZ PROC ; std::_Tree<std::_Tmap_traits<unsigned int,int,std::less<unsigned int>,std::allocator<std::pair<unsigned int const ,int> >,0> >::_Root, COMDAT
; _this$ = ecx

; 1325 : 		return (_Parent(_Myhead));

	mov	eax, DWORD PTR [ecx+4]
	add	eax, 4

; 1326 : 		}

	ret	0
?_Root@?$_Tree@V?$_Tmap_traits@IHU?$less@I@std@@V?$allocator@U?$pair@$$CBIH@std@@@2@$0A@@std@@@std@@IBEAAPAU_Node@?$_Tree_nod@V?$_Tmap_traits@IHU?$less@I@std@@V?$allocator@U?$pair@$$CBIH@std@@@2@$0A@@std@@@2@XZ ENDP ; std::_Tree<std::_Tmap_traits<unsigned int,int,std::less<unsigned int>,std::allocator<std::pair<unsigned int const ,int> >,0> >::_Root
_TEXT	ENDS
PUBLIC	?_Rrotate@?$_Tree@V?$_Tmap_traits@IHU?$less@I@std@@V?$allocator@U?$pair@$$CBIH@std@@@2@$0A@@std@@@std@@IAEXPAU_Node@?$_Tree_nod@V?$_Tmap_traits@IHU?$less@I@std@@V?$allocator@U?$pair@$$CBIH@std@@@2@$0A@@std@@@2@@Z ; std::_Tree<std::_Tmap_traits<unsigned int,int,std::less<unsigned int>,std::allocator<std::pair<unsigned int const ,int> >,0> >::_Rrotate
; Function compile flags: /Ogtpy
;	COMDAT ?_Rrotate@?$_Tree@V?$_Tmap_traits@IHU?$less@I@std@@V?$allocator@U?$pair@$$CBIH@std@@@2@$0A@@std@@@std@@IAEXPAU_Node@?$_Tree_nod@V?$_Tmap_traits@IHU?$less@I@std@@V?$allocator@U?$pair@$$CBIH@std@@@2@$0A@@std@@@2@@Z
_TEXT	SEGMENT
__Wherenode$ = 8					; size = 4
?_Rrotate@?$_Tree@V?$_Tmap_traits@IHU?$less@I@std@@V?$allocator@U?$pair@$$CBIH@std@@@2@$0A@@std@@@std@@IAEXPAU_Node@?$_Tree_nod@V?$_Tmap_traits@IHU?$less@I@std@@V?$allocator@U?$pair@$$CBIH@std@@@2@$0A@@std@@@2@@Z PROC ; std::_Tree<std::_Tmap_traits<unsigned int,int,std::less<unsigned int>,std::allocator<std::pair<unsigned int const ,int> >,0> >::_Rrotate, COMDAT
; _this$ = ecx

; 1330 : 		_Nodeptr _Pnode = _Left(_Wherenode);

	mov	edx, DWORD PTR __Wherenode$[esp-4]
	mov	eax, DWORD PTR [edx]
	push	esi

; 1331 : 		_Left(_Wherenode) = _Right(_Pnode);

	mov	esi, DWORD PTR [eax+8]
	mov	DWORD PTR [edx], esi

; 1332 : 
; 1333 : 		if (!_Isnil(_Right(_Pnode)))

	mov	esi, DWORD PTR [eax+8]
	cmp	BYTE PTR [esi+21], 0
	jne	SHORT $LN5@Rrotate

; 1334 : 			_Parent(_Right(_Pnode)) = _Wherenode;

	mov	DWORD PTR [esi+4], edx
$LN5@Rrotate:

; 1335 : 		_Parent(_Pnode) = _Parent(_Wherenode);

	mov	esi, DWORD PTR [edx+4]
	mov	DWORD PTR [eax+4], esi

; 1336 : 
; 1337 : 		if (_Wherenode == _Root())

	mov	ecx, DWORD PTR [ecx+4]
	pop	esi
	cmp	edx, DWORD PTR [ecx+4]
	jne	SHORT $LN4@Rrotate

; 1338 : 			_Root() = _Pnode;

	mov	DWORD PTR [ecx+4], eax

; 1343 : 
; 1344 : 		_Right(_Pnode) = _Wherenode;

	mov	DWORD PTR [eax+8], edx

; 1345 : 		_Parent(_Wherenode) = _Pnode;

	mov	DWORD PTR [edx+4], eax

; 1346 : 		}

	ret	4
$LN4@Rrotate:

; 1339 : 		else if (_Wherenode == _Right(_Parent(_Wherenode)))

	mov	ecx, DWORD PTR [edx+4]
	cmp	edx, DWORD PTR [ecx+8]
	jne	SHORT $LN2@Rrotate

; 1340 : 			_Right(_Parent(_Wherenode)) = _Pnode;

	mov	DWORD PTR [ecx+8], eax

; 1343 : 
; 1344 : 		_Right(_Pnode) = _Wherenode;

	mov	DWORD PTR [eax+8], edx

; 1345 : 		_Parent(_Wherenode) = _Pnode;

	mov	DWORD PTR [edx+4], eax

; 1346 : 		}

	ret	4
$LN2@Rrotate:

; 1341 : 		else
; 1342 : 			_Left(_Parent(_Wherenode)) = _Pnode;

	mov	DWORD PTR [ecx], eax

; 1343 : 
; 1344 : 		_Right(_Pnode) = _Wherenode;

	mov	DWORD PTR [eax+8], edx

; 1345 : 		_Parent(_Wherenode) = _Pnode;

	mov	DWORD PTR [edx+4], eax

; 1346 : 		}

	ret	4
?_Rrotate@?$_Tree@V?$_Tmap_traits@IHU?$less@I@std@@V?$allocator@U?$pair@$$CBIH@std@@@2@$0A@@std@@@std@@IAEXPAU_Node@?$_Tree_nod@V?$_Tmap_traits@IHU?$less@I@std@@V?$allocator@U?$pair@$$CBIH@std@@@2@$0A@@std@@@2@@Z ENDP ; std::_Tree<std::_Tmap_traits<unsigned int,int,std::less<unsigned int>,std::allocator<std::pair<unsigned int const ,int> >,0> >::_Rrotate
_TEXT	ENDS
PUBLIC	?_Mynode@const_iterator@?$_Tree@V?$_Tmap_traits@IHU?$less@I@std@@V?$allocator@U?$pair@$$CBIH@std@@@2@$0A@@std@@@std@@QBEPAU_Node@?$_Tree_nod@V?$_Tmap_traits@IHU?$less@I@std@@V?$allocator@U?$pair@$$CBIH@std@@@2@$0A@@std@@@3@XZ ; std::_Tree<std::_Tmap_traits<unsigned int,int,std::less<unsigned int>,std::allocator<std::pair<unsigned int const ,int> >,0> >::const_iterator::_Mynode
; Function compile flags: /Ogtpy
;	COMDAT ?_Mynode@const_iterator@?$_Tree@V?$_Tmap_traits@IHU?$less@I@std@@V?$allocator@U?$pair@$$CBIH@std@@@2@$0A@@std@@@std@@QBEPAU_Node@?$_Tree_nod@V?$_Tmap_traits@IHU?$less@I@std@@V?$allocator@U?$pair@$$CBIH@std@@@2@$0A@@std@@@3@XZ
_TEXT	SEGMENT
?_Mynode@const_iterator@?$_Tree@V?$_Tmap_traits@IHU?$less@I@std@@V?$allocator@U?$pair@$$CBIH@std@@@2@$0A@@std@@@std@@QBEPAU_Node@?$_Tree_nod@V?$_Tmap_traits@IHU?$less@I@std@@V?$allocator@U?$pair@$$CBIH@std@@@2@$0A@@std@@@3@XZ PROC ; std::_Tree<std::_Tmap_traits<unsigned int,int,std::less<unsigned int>,std::allocator<std::pair<unsigned int const ,int> >,0> >::const_iterator::_Mynode, COMDAT
; _this$ = ecx

; 410  : 			return (_Ptr);

	mov	eax, DWORD PTR [ecx]

; 411  : 			}

	ret	0
?_Mynode@const_iterator@?$_Tree@V?$_Tmap_traits@IHU?$less@I@std@@V?$allocator@U?$pair@$$CBIH@std@@@2@$0A@@std@@@std@@QBEPAU_Node@?$_Tree_nod@V?$_Tmap_traits@IHU?$less@I@std@@V?$allocator@U?$pair@$$CBIH@std@@@2@$0A@@std@@@3@XZ ENDP ; std::_Tree<std::_Tmap_traits<unsigned int,int,std::less<unsigned int>,std::allocator<std::pair<unsigned int const ,int> >,0> >::const_iterator::_Mynode
_TEXT	ENDS
PUBLIC	??Y?$_Vector_const_iterator@UOpinion@@V?$allocator@UOpinion@@@std@@@std@@QAEAAV01@H@Z ; std::_Vector_const_iterator<Opinion,std::allocator<Opinion> >::operator+=
; Function compile flags: /Ogtpy
; File c:\program files (x86)\microsoft visual studio 9.0\vc\include\vector
;	COMDAT ??Y?$_Vector_const_iterator@UOpinion@@V?$allocator@UOpinion@@@std@@@std@@QAEAAV01@H@Z
_TEXT	SEGMENT
__Off$ = 8						; size = 4
??Y?$_Vector_const_iterator@UOpinion@@V?$allocator@UOpinion@@@std@@@std@@QAEAAV01@H@Z PROC ; std::_Vector_const_iterator<Opinion,std::allocator<Opinion> >::operator+=, COMDAT
; _this$ = ecx

; 159  : 		{	// increment by integer

	mov	eax, ecx

; 160  : 		_SCL_SECURE_VALIDATE(this->_Has_container());
; 161  : 		_SCL_SECURE_VALIDATE_RANGE(
; 162  : 			_Myptr + _Off <= ((_Myvec *)(this->_Getmycont()))->_Mylast &&
; 163  : 			_Myptr + _Off >= ((_Myvec *)(this->_Getmycont()))->_Myfirst);
; 164  : 		_Myptr += _Off;

	mov	ecx, DWORD PTR __Off$[esp-4]
	imul	ecx, 84					; 00000054H
	add	DWORD PTR [eax], ecx

; 165  : 		return (*this);
; 166  : 		}

	ret	4
??Y?$_Vector_const_iterator@UOpinion@@V?$allocator@UOpinion@@@std@@@std@@QAEAAV01@H@Z ENDP ; std::_Vector_const_iterator<Opinion,std::allocator<Opinion> >::operator+=
_TEXT	ENDS
PUBLIC	??0?$_Vector_const_iterator@VCvString@@V?$allocator@VCvString@@@std@@@std@@QAE@PAVCvString@@@Z ; std::_Vector_const_iterator<CvString,std::allocator<CvString> >::_Vector_const_iterator<CvString,std::allocator<CvString> >
; Function compile flags: /Ogtpy
;	COMDAT ??0?$_Vector_const_iterator@VCvString@@V?$allocator@VCvString@@@std@@@std@@QAE@PAVCvString@@@Z
_TEXT	SEGMENT
__Ptr$ = 8						; size = 4
??0?$_Vector_const_iterator@VCvString@@V?$allocator@VCvString@@@std@@@std@@QAE@PAVCvString@@@Z PROC ; std::_Vector_const_iterator<CvString,std::allocator<CvString> >::_Vector_const_iterator<CvString,std::allocator<CvString> >, COMDAT
; _this$ = ecx

; 84   : 	explicit _Vector_const_iterator(_Tptr _Ptr)

	mov	eax, ecx

; 85   : 		{	// construct with pointer _Ptr
; 86   : 		_Myptr = _Ptr;

	mov	ecx, DWORD PTR __Ptr$[esp-4]
	mov	DWORD PTR [eax], ecx

; 87   : 		}

	ret	4
??0?$_Vector_const_iterator@VCvString@@V?$allocator@VCvString@@@std@@@std@@QAE@PAVCvString@@@Z ENDP ; std::_Vector_const_iterator<CvString,std::allocator<CvString> >::_Vector_const_iterator<CvString,std::allocator<CvString> >
_TEXT	ENDS
PUBLIC	??8?$_Vector_const_iterator@VCvString@@V?$allocator@VCvString@@@std@@@std@@QBE_NABV01@@Z ; std::_Vector_const_iterator<CvString,std::allocator<CvString> >::operator==
; Function compile flags: /Ogtpy
;	COMDAT ??8?$_Vector_const_iterator@VCvString@@V?$allocator@VCvString@@@std@@@std@@QBE_NABV01@@Z
_TEXT	SEGMENT
__Right$ = 8						; size = 4
??8?$_Vector_const_iterator@VCvString@@V?$allocator@VCvString@@@std@@@std@@QBE_NABV01@@Z PROC ; std::_Vector_const_iterator<CvString,std::allocator<CvString> >::operator==, COMDAT
; _this$ = ecx

; 204  : 
; 205  :  #if _HAS_ITERATOR_DEBUGGING
; 206  : 		_Compat(_Right);
; 207  :  #else
; 208  : 		_SCL_SECURE_VALIDATE(this->_Has_container() && this->_Same_container(_Right));
; 209  :  #endif /* _HAS_ITERATOR_DEBUGGING */
; 210  : 
; 211  : 		return (_Myptr == _Right._Myptr);

	mov	eax, DWORD PTR [ecx]
	mov	edx, DWORD PTR __Right$[esp-4]
	xor	ecx, ecx
	cmp	eax, DWORD PTR [edx]
	sete	cl
	mov	al, cl

; 212  : 		}

	ret	4
??8?$_Vector_const_iterator@VCvString@@V?$allocator@VCvString@@@std@@@std@@QBE_NABV01@@Z ENDP ; std::_Vector_const_iterator<CvString,std::allocator<CvString> >::operator==
_TEXT	ENDS
PUBLIC	?Push@?$CvLuaScopedInstance@VCvLuaCity@@VCvCity@@@@SAXPAUlua_State@@PAVCvCity@@@Z ; CvLuaScopedInstance<CvLuaCity,CvCity>::Push
EXTRN	_lua_pushnil:PROC
EXTRN	_lua_remove:PROC
EXTRN	_lua_pushlightuserdata:PROC
EXTRN	_lua_rawget:PROC
EXTRN	?PushMethods@CvLuaCity@@SAXPAUlua_State@@H@Z:PROC ; CvLuaCity::PushMethods
EXTRN	_lua_gettop:PROC
EXTRN	_lua_setfield:PROC
EXTRN	_lua_pushvalue:PROC
EXTRN	_lua_setmetatable:PROC
EXTRN	_lua_rawset:PROC
EXTRN	_lua_createtable:PROC
EXTRN	_lua_settop:PROC
EXTRN	_lua_type:PROC
EXTRN	_lua_getfield:PROC
EXTRN	?GetTypeName@CvLuaCity@@SAPBDXZ:PROC		; CvLuaCity::GetTypeName
; Function compile flags: /Ogtpy
; File c:\users\enormousapplepie\documents\github\lekmod\lekmod_dll\cvgamecoredll_expansion2\lua\cvluascopedinstance.h
;	COMDAT ?Push@?$CvLuaScopedInstance@VCvLuaCity@@VCvCity@@@@SAXPAUlua_State@@PAVCvCity@@@Z
_TEXT	SEGMENT
_L$ = 8							; size = 4
_pkType$ = 12						; size = 4
?Push@?$CvLuaScopedInstance@VCvLuaCity@@VCvCity@@@@SAXPAUlua_State@@PAVCvCity@@@Z PROC ; CvLuaScopedInstance<CvLuaCity,CvCity>::Push, COMDAT

; 39   : {

	push	edi

; 40   : 	//Pushing an instance involves more than just actually pushing a pointer into the
; 41   : 	//Lua stack.  There are some caching optimizations that are done as well as some
; 42   : 	//checks.
; 43   : 	//The first step is to load or create a global table <Typename> to store all member
; 44   : 	//methods and all pushed instances.  This conserves memory and offers faster pushing
; 45   : 	//speed.
; 46   : 	//If <Typename>.__instances[pkType] is not nil, return that value.
; 47   : 	//otherwise push a new instance and assign it to __instances.
; 48   : 
; 49   : 	//NOTE: Raw gets and sets are used as an optimization over using lua_[get,set]field
; 50   : 	if(pkType)

	mov	edi, DWORD PTR _pkType$[esp]
	test	edi, edi
	je	$LN4@Push
	push	ebx
	push	ebp
	push	esi

; 51   : 	{
; 52   : 		//const int t = lua_gettop(L);
; 53   : 
; 54   : 		lua_getglobal(L, Derived::GetTypeName());

	call	?GetTypeName@CvLuaCity@@SAPBDXZ		; CvLuaCity::GetTypeName
	mov	esi, DWORD PTR _L$[esp+12]
	push	eax
	push	-10002					; ffffd8eeH
	push	esi
	call	_lua_getfield

; 55   : 		if(lua_isnil(L, -1))

	push	-1
	push	esi
	call	_lua_type
	add	esp, 20					; 00000014H
	test	eax, eax
	jne	$LN7@Push

; 56   : 		{
; 57   : 			//Typename wasn't found, time to build it.
; 58   : 			lua_pop(L, 1);

	push	-2					; fffffffeH
	push	esi
	call	_lua_settop

; 59   : 			lua_newtable(L);

	push	0
	push	0
	push	esi
	call	_lua_createtable

; 60   : 
; 61   : 			//Create weak __instances table.
; 62   : 			lua_pushstring(L, "__instances");

	push	OFFSET $SG237656
	push	esi
	call	_lua_pushstring

; 63   : 			lua_newtable(L);

	push	0
	push	0
	push	esi
	call	_lua_createtable

; 64   : 
; 65   : 			//Create __instances.mt
; 66   : 			lua_newtable(L);

	push	0
	push	0
	push	esi
	call	_lua_createtable

; 67   : 			lua_pushstring(L, "__mode");

	push	OFFSET $SG237657
	push	esi
	call	_lua_pushstring

; 68   : 			lua_pushstring(L, "v");

	push	OFFSET $SG237658
	push	esi
	call	_lua_pushstring
	add	esp, 68					; 00000044H

; 69   : 			lua_rawset(L, -3);				// mt.__mode = "v";

	push	-3					; fffffffdH
	push	esi
	call	_lua_rawset

; 70   : 			lua_setmetatable(L, -2);

	push	-2					; fffffffeH
	push	esi
	call	_lua_setmetatable

; 71   : 
; 72   : 			lua_rawset(L, -3);				//type.__instances = t;

	push	-3					; fffffffdH
	push	esi
	call	_lua_rawset

; 73   : 
; 74   : 
; 75   : 			lua_pushvalue(L, -1);

	push	-1
	push	esi
	call	_lua_pushvalue

; 76   : 			lua_setglobal(L, Derived::GetTypeName());

	call	?GetTypeName@CvLuaCity@@SAPBDXZ		; CvLuaCity::GetTypeName
	push	eax
	push	-10002					; ffffd8eeH
	push	esi
	call	_lua_setfield

; 77   : 
; 78   : 			Derived::PushMethods(L, lua_gettop(L));

	push	esi
	call	_lua_gettop
	push	eax
	push	esi
	call	?PushMethods@CvLuaCity@@SAXPAUlua_State@@H@Z ; CvLuaCity::PushMethods
	add	esp, 56					; 00000038H
$LN7@Push:

; 79   : 		}
; 80   : 		const int type_index = lua_gettop(L);

	push	esi
	call	_lua_gettop

; 81   : 
; 82   : 		lua_pushstring(L, "__instances");

	push	OFFSET $SG237660
	push	esi
	mov	ebx, eax
	call	_lua_pushstring

; 83   : 		lua_rawget(L, -2);

	push	-2					; fffffffeH
	push	esi
	call	_lua_rawget

; 84   : 
; 85   : 		const int instances_index = lua_gettop(L);

	push	esi
	call	_lua_gettop

; 86   : 
; 87   : 		lua_pushlightuserdata(L, pkType);

	push	edi
	push	esi
	mov	ebp, eax
	call	_lua_pushlightuserdata

; 88   : 
; 89   : 		lua_rawget(L, -2);					//retrieve type.__instances[pkType]

	push	-2					; fffffffeH
	push	esi
	call	_lua_rawget

; 90   : 
; 91   : 		if(lua_isnil(L, -1))

	push	-1
	push	esi
	call	_lua_type
	add	esp, 48					; 00000030H
	test	eax, eax
	jne	SHORT $LN2@Push

; 92   : 		{
; 93   : 			lua_pop(L, 1);

	push	-2					; fffffffeH
	push	esi
	call	_lua_settop

; 94   : 
; 95   : 			//Push new instance
; 96   : 			lua_createtable(L, 0, 1);

	push	1
	push	0
	push	esi
	call	_lua_createtable

; 97   : 			lua_pushlightuserdata(L, pkType);

	push	edi
	push	esi
	call	_lua_pushlightuserdata

; 98   : 			lua_setfield(L, -2, "__instance");

	push	OFFSET $SG237663
	push	-2					; fffffffeH
	push	esi
	call	_lua_setfield

; 99   : 
; 100  : 			lua_createtable(L, 0, 1);			// create mt

	push	1
	push	0
	push	esi
	call	_lua_createtable

; 101  : 			lua_pushstring(L, "__index");

	push	OFFSET $SG237664
	push	esi
	call	_lua_pushstring

; 102  : 			lua_pushvalue(L, type_index);

	push	ebx
	push	esi
	call	_lua_pushvalue
	add	esp, 68					; 00000044H

; 103  : 			lua_rawset(L, -3);					// mt.__index = Type

	push	-3					; fffffffdH
	push	esi
	call	_lua_rawset

; 104  : 			lua_setmetatable(L, -2);

	push	-2					; fffffffeH
	push	esi
	call	_lua_setmetatable

; 105  : 
; 106  : 			//Assign it in instances
; 107  : 			lua_pushlightuserdata(L, pkType);

	push	edi
	push	esi
	call	_lua_pushlightuserdata

; 108  : 			lua_pushvalue(L, -2);

	push	-2					; fffffffeH
	push	esi
	call	_lua_pushvalue

; 109  : 			lua_rawset(L, instances_index);				//__instances[pkType] = t;

	push	ebp
	push	esi
	call	_lua_rawset
	add	esp, 40					; 00000028H
$LN2@Push:

; 110  : 		}
; 111  : 
; 112  : 		//VERIFY(instances_index > type_index);
; 113  : 		lua_remove(L, instances_index);

	push	ebp
	push	esi
	call	_lua_remove

; 114  : 		lua_remove(L, type_index);

	push	ebx
	push	esi
	call	_lua_remove
	add	esp, 16					; 00000010H
	pop	esi
	pop	ebp
	pop	ebx
	pop	edi

; 122  : 	}
; 123  : }

	ret	0
$LN4@Push:

; 115  : 
; 116  : 		//const int dt = lua_gettop(L);
; 117  : 		//VERIFY(dt == t + 1)
; 118  : 	}
; 119  : 	else
; 120  : 	{
; 121  : 		lua_pushnil(L);

	mov	eax, DWORD PTR _L$[esp]
	push	eax
	call	_lua_pushnil
	add	esp, 4
	pop	edi

; 122  : 	}
; 123  : }

	ret	0
?Push@?$CvLuaScopedInstance@VCvLuaCity@@VCvCity@@@@SAXPAUlua_State@@PAVCvCity@@@Z ENDP ; CvLuaScopedInstance<CvLuaCity,CvCity>::Push
_TEXT	ENDS
PUBLIC	?GetInstance@?$CvLuaScopedInstance@VCvLuaCity@@VCvCity@@@@SAPAVCvCity@@PAUlua_State@@H_N@Z ; CvLuaScopedInstance<CvLuaCity,CvCity>::GetInstance
EXTRN	?HandleMissingInstance@CvLuaCity@@SAXPAUlua_State@@@Z:PROC ; CvLuaCity::HandleMissingInstance
EXTRN	_luaL_error:PROC
EXTRN	_lua_touserdata:PROC
; Function compile flags: /Ogtpy
;	COMDAT ?GetInstance@?$CvLuaScopedInstance@VCvLuaCity@@VCvCity@@@@SAPAVCvCity@@PAUlua_State@@H_N@Z
_TEXT	SEGMENT
_L$ = 8							; size = 4
_idx$ = 12						; size = 4
_bErrorOnFail$ = 16					; size = 1
?GetInstance@?$CvLuaScopedInstance@VCvLuaCity@@VCvCity@@@@SAPAVCvCity@@PAUlua_State@@H_N@Z PROC ; CvLuaScopedInstance<CvLuaCity,CvCity>::GetInstance, COMDAT

; 127  : {

	push	ebx
	push	ebp
	push	esi

; 128  : 	const int stack_size = lua_gettop(L);

	mov	esi, DWORD PTR _L$[esp+8]
	push	edi
	push	esi
	call	_lua_gettop
	mov	ebp, eax

; 129  : 	bool bFail = true;
; 130  : 
; 131  : 	InstanceType* pkInstance = NULL;
; 132  : 	if(lua_type(L, idx) == LUA_TTABLE)

	mov	eax, DWORD PTR _idx$[esp+16]
	push	eax
	push	esi
	mov	bl, 1
	xor	edi, edi
	call	_lua_type
	add	esp, 12					; 0000000cH
	cmp	eax, 5
	jne	SHORT $LN3@GetInstanc

; 133  : 	{
; 134  : 		lua_getfield(L, idx, "__instance");

	mov	ecx, DWORD PTR _idx$[esp+12]
	push	OFFSET $SG237679
	push	ecx
	push	esi
	call	_lua_getfield

; 135  : 		if(lua_type(L, -1) == LUA_TLIGHTUSERDATA)

	push	-1
	push	esi
	call	_lua_type
	add	esp, 20					; 00000014H
	cmp	eax, 2
	jne	SHORT $LN3@GetInstanc

; 136  : 		{
; 137  : 			pkInstance = static_cast<InstanceType*>(lua_touserdata(L, -1));

	push	-1
	push	esi
	call	_lua_touserdata
	mov	edi, eax
	add	esp, 8

; 138  : 			if(pkInstance)

	test	edi, edi
	je	SHORT $LN3@GetInstanc

; 139  : 			{
; 140  : 				bFail = false;

	xor	bl, bl
$LN3@GetInstanc:

; 141  : 			}
; 142  : 		}
; 143  : 	}
; 144  : 
; 145  : 	lua_settop(L, stack_size);

	push	ebp
	push	esi
	call	_lua_settop
	add	esp, 8

; 146  : 
; 147  : 	if(bFail && bErrorOnFail)

	test	bl, bl
	je	SHORT $LN9@GetInstanc
	cmp	BYTE PTR _bErrorOnFail$[esp+12], 0
	je	SHORT $LN9@GetInstanc

; 148  : 	{
; 149  : 		if(idx == 1)

	cmp	DWORD PTR _idx$[esp+12], 1
	jne	SHORT $LN1@GetInstanc

; 150  : 			luaL_error(L, "Not a valid instance.  Either the instance is NULL or you used '.' instead of ':'.");

	push	OFFSET $SG237685
	push	esi
	call	_luaL_error
	add	esp, 8
$LN1@GetInstanc:

; 151  : 		Derived::HandleMissingInstance(L);

	push	esi
	call	?HandleMissingInstance@CvLuaCity@@SAXPAUlua_State@@@Z ; CvLuaCity::HandleMissingInstance
	add	esp, 4
$LN9@GetInstanc:

; 152  : 	}
; 153  : 	return pkInstance;

	mov	eax, edi
	pop	edi
	pop	esi
	pop	ebp
	pop	ebx

; 154  : }

	ret	0
?GetInstance@?$CvLuaScopedInstance@VCvLuaCity@@VCvCity@@@@SAPAVCvCity@@PAUlua_State@@H_N@Z ENDP ; CvLuaScopedInstance<CvLuaCity,CvCity>::GetInstance
_TEXT	ENDS
PUBLIC	?DefaultHandleMissingInstance@?$CvLuaScopedInstance@VCvLuaPlayer@@VCvPlayerAI@@@@KAXPAUlua_State@@@Z ; CvLuaScopedInstance<CvLuaPlayer,CvPlayerAI>::DefaultHandleMissingInstance
; Function compile flags: /Ogtpy
;	COMDAT ?DefaultHandleMissingInstance@?$CvLuaScopedInstance@VCvLuaPlayer@@VCvPlayerAI@@@@KAXPAUlua_State@@@Z
_TEXT	SEGMENT
_L$ = 8							; size = 4
?DefaultHandleMissingInstance@?$CvLuaScopedInstance@VCvLuaPlayer@@VCvPlayerAI@@@@KAXPAUlua_State@@@Z PROC ; CvLuaScopedInstance<CvLuaPlayer,CvPlayerAI>::DefaultHandleMissingInstance, COMDAT

; 165  : 	luaL_error(L, "Instance does not exist.");

	mov	eax, DWORD PTR _L$[esp-4]
	push	OFFSET $SG237742
	push	eax
	call	_luaL_error
	add	esp, 8

; 166  : }

	ret	0
?DefaultHandleMissingInstance@?$CvLuaScopedInstance@VCvLuaPlayer@@VCvPlayerAI@@@@KAXPAUlua_State@@@Z ENDP ; CvLuaScopedInstance<CvLuaPlayer,CvPlayerAI>::DefaultHandleMissingInstance
_TEXT	ENDS
PUBLIC	?Push@?$CvLuaScopedInstance@VCvLuaPlot@@VCvPlot@@@@SAXPAUlua_State@@PAVCvPlot@@@Z ; CvLuaScopedInstance<CvLuaPlot,CvPlot>::Push
EXTRN	?PushMethods@CvLuaPlot@@SAXPAUlua_State@@H@Z:PROC ; CvLuaPlot::PushMethods
EXTRN	?GetTypeName@CvLuaPlot@@SAPBDXZ:PROC		; CvLuaPlot::GetTypeName
; Function compile flags: /Ogtpy
;	COMDAT ?Push@?$CvLuaScopedInstance@VCvLuaPlot@@VCvPlot@@@@SAXPAUlua_State@@PAVCvPlot@@@Z
_TEXT	SEGMENT
_L$ = 8							; size = 4
_pkType$ = 12						; size = 4
?Push@?$CvLuaScopedInstance@VCvLuaPlot@@VCvPlot@@@@SAXPAUlua_State@@PAVCvPlot@@@Z PROC ; CvLuaScopedInstance<CvLuaPlot,CvPlot>::Push, COMDAT

; 39   : {

	push	edi

; 40   : 	//Pushing an instance involves more than just actually pushing a pointer into the
; 41   : 	//Lua stack.  There are some caching optimizations that are done as well as some
; 42   : 	//checks.
; 43   : 	//The first step is to load or create a global table <Typename> to store all member
; 44   : 	//methods and all pushed instances.  This conserves memory and offers faster pushing
; 45   : 	//speed.
; 46   : 	//If <Typename>.__instances[pkType] is not nil, return that value.
; 47   : 	//otherwise push a new instance and assign it to __instances.
; 48   : 
; 49   : 	//NOTE: Raw gets and sets are used as an optimization over using lua_[get,set]field
; 50   : 	if(pkType)

	mov	edi, DWORD PTR _pkType$[esp]
	test	edi, edi
	je	$LN4@Push@2
	push	ebx
	push	ebp
	push	esi

; 51   : 	{
; 52   : 		//const int t = lua_gettop(L);
; 53   : 
; 54   : 		lua_getglobal(L, Derived::GetTypeName());

	call	?GetTypeName@CvLuaPlot@@SAPBDXZ		; CvLuaPlot::GetTypeName
	mov	esi, DWORD PTR _L$[esp+12]
	push	eax
	push	-10002					; ffffd8eeH
	push	esi
	call	_lua_getfield

; 55   : 		if(lua_isnil(L, -1))

	push	-1
	push	esi
	call	_lua_type
	add	esp, 20					; 00000014H
	test	eax, eax
	jne	$LN7@Push@2

; 56   : 		{
; 57   : 			//Typename wasn't found, time to build it.
; 58   : 			lua_pop(L, 1);

	push	-2					; fffffffeH
	push	esi
	call	_lua_settop

; 59   : 			lua_newtable(L);

	push	0
	push	0
	push	esi
	call	_lua_createtable

; 60   : 
; 61   : 			//Create weak __instances table.
; 62   : 			lua_pushstring(L, "__instances");

	push	OFFSET $SG237753
	push	esi
	call	_lua_pushstring

; 63   : 			lua_newtable(L);

	push	0
	push	0
	push	esi
	call	_lua_createtable

; 64   : 
; 65   : 			//Create __instances.mt
; 66   : 			lua_newtable(L);

	push	0
	push	0
	push	esi
	call	_lua_createtable

; 67   : 			lua_pushstring(L, "__mode");

	push	OFFSET $SG237754
	push	esi
	call	_lua_pushstring

; 68   : 			lua_pushstring(L, "v");

	push	OFFSET $SG237755
	push	esi
	call	_lua_pushstring
	add	esp, 68					; 00000044H

; 69   : 			lua_rawset(L, -3);				// mt.__mode = "v";

	push	-3					; fffffffdH
	push	esi
	call	_lua_rawset

; 70   : 			lua_setmetatable(L, -2);

	push	-2					; fffffffeH
	push	esi
	call	_lua_setmetatable

; 71   : 
; 72   : 			lua_rawset(L, -3);				//type.__instances = t;

	push	-3					; fffffffdH
	push	esi
	call	_lua_rawset

; 73   : 
; 74   : 
; 75   : 			lua_pushvalue(L, -1);

	push	-1
	push	esi
	call	_lua_pushvalue

; 76   : 			lua_setglobal(L, Derived::GetTypeName());

	call	?GetTypeName@CvLuaPlot@@SAPBDXZ		; CvLuaPlot::GetTypeName
	push	eax
	push	-10002					; ffffd8eeH
	push	esi
	call	_lua_setfield

; 77   : 
; 78   : 			Derived::PushMethods(L, lua_gettop(L));

	push	esi
	call	_lua_gettop
	push	eax
	push	esi
	call	?PushMethods@CvLuaPlot@@SAXPAUlua_State@@H@Z ; CvLuaPlot::PushMethods
	add	esp, 56					; 00000038H
$LN7@Push@2:

; 79   : 		}
; 80   : 		const int type_index = lua_gettop(L);

	push	esi
	call	_lua_gettop

; 81   : 
; 82   : 		lua_pushstring(L, "__instances");

	push	OFFSET $SG237757
	push	esi
	mov	ebx, eax
	call	_lua_pushstring

; 83   : 		lua_rawget(L, -2);

	push	-2					; fffffffeH
	push	esi
	call	_lua_rawget

; 84   : 
; 85   : 		const int instances_index = lua_gettop(L);

	push	esi
	call	_lua_gettop

; 86   : 
; 87   : 		lua_pushlightuserdata(L, pkType);

	push	edi
	push	esi
	mov	ebp, eax
	call	_lua_pushlightuserdata

; 88   : 
; 89   : 		lua_rawget(L, -2);					//retrieve type.__instances[pkType]

	push	-2					; fffffffeH
	push	esi
	call	_lua_rawget

; 90   : 
; 91   : 		if(lua_isnil(L, -1))

	push	-1
	push	esi
	call	_lua_type
	add	esp, 48					; 00000030H
	test	eax, eax
	jne	SHORT $LN2@Push@2

; 92   : 		{
; 93   : 			lua_pop(L, 1);

	push	-2					; fffffffeH
	push	esi
	call	_lua_settop

; 94   : 
; 95   : 			//Push new instance
; 96   : 			lua_createtable(L, 0, 1);

	push	1
	push	0
	push	esi
	call	_lua_createtable

; 97   : 			lua_pushlightuserdata(L, pkType);

	push	edi
	push	esi
	call	_lua_pushlightuserdata

; 98   : 			lua_setfield(L, -2, "__instance");

	push	OFFSET $SG237760
	push	-2					; fffffffeH
	push	esi
	call	_lua_setfield

; 99   : 
; 100  : 			lua_createtable(L, 0, 1);			// create mt

	push	1
	push	0
	push	esi
	call	_lua_createtable

; 101  : 			lua_pushstring(L, "__index");

	push	OFFSET $SG237761
	push	esi
	call	_lua_pushstring

; 102  : 			lua_pushvalue(L, type_index);

	push	ebx
	push	esi
	call	_lua_pushvalue
	add	esp, 68					; 00000044H

; 103  : 			lua_rawset(L, -3);					// mt.__index = Type

	push	-3					; fffffffdH
	push	esi
	call	_lua_rawset

; 104  : 			lua_setmetatable(L, -2);

	push	-2					; fffffffeH
	push	esi
	call	_lua_setmetatable

; 105  : 
; 106  : 			//Assign it in instances
; 107  : 			lua_pushlightuserdata(L, pkType);

	push	edi
	push	esi
	call	_lua_pushlightuserdata

; 108  : 			lua_pushvalue(L, -2);

	push	-2					; fffffffeH
	push	esi
	call	_lua_pushvalue

; 109  : 			lua_rawset(L, instances_index);				//__instances[pkType] = t;

	push	ebp
	push	esi
	call	_lua_rawset
	add	esp, 40					; 00000028H
$LN2@Push@2:

; 110  : 		}
; 111  : 
; 112  : 		//VERIFY(instances_index > type_index);
; 113  : 		lua_remove(L, instances_index);

	push	ebp
	push	esi
	call	_lua_remove

; 114  : 		lua_remove(L, type_index);

	push	ebx
	push	esi
	call	_lua_remove
	add	esp, 16					; 00000010H
	pop	esi
	pop	ebp
	pop	ebx
	pop	edi

; 122  : 	}
; 123  : }

	ret	0
$LN4@Push@2:

; 115  : 
; 116  : 		//const int dt = lua_gettop(L);
; 117  : 		//VERIFY(dt == t + 1)
; 118  : 	}
; 119  : 	else
; 120  : 	{
; 121  : 		lua_pushnil(L);

	mov	eax, DWORD PTR _L$[esp]
	push	eax
	call	_lua_pushnil
	add	esp, 4
	pop	edi

; 122  : 	}
; 123  : }

	ret	0
?Push@?$CvLuaScopedInstance@VCvLuaPlot@@VCvPlot@@@@SAXPAUlua_State@@PAVCvPlot@@@Z ENDP ; CvLuaScopedInstance<CvLuaPlot,CvPlot>::Push
_TEXT	ENDS
PUBLIC	?GetInstance@?$CvLuaScopedInstance@VCvLuaPlot@@VCvPlot@@@@SAPAVCvPlot@@PAUlua_State@@H_N@Z ; CvLuaScopedInstance<CvLuaPlot,CvPlot>::GetInstance
EXTRN	?HandleMissingInstance@CvLuaPlot@@SAXPAUlua_State@@@Z:PROC ; CvLuaPlot::HandleMissingInstance
; Function compile flags: /Ogtpy
;	COMDAT ?GetInstance@?$CvLuaScopedInstance@VCvLuaPlot@@VCvPlot@@@@SAPAVCvPlot@@PAUlua_State@@H_N@Z
_TEXT	SEGMENT
_L$ = 8							; size = 4
_idx$ = 12						; size = 4
_bErrorOnFail$ = 16					; size = 1
?GetInstance@?$CvLuaScopedInstance@VCvLuaPlot@@VCvPlot@@@@SAPAVCvPlot@@PAUlua_State@@H_N@Z PROC ; CvLuaScopedInstance<CvLuaPlot,CvPlot>::GetInstance, COMDAT

; 127  : {

	push	ebx
	push	ebp
	push	esi

; 128  : 	const int stack_size = lua_gettop(L);

	mov	esi, DWORD PTR _L$[esp+8]
	push	edi
	push	esi
	call	_lua_gettop
	mov	ebp, eax

; 129  : 	bool bFail = true;
; 130  : 
; 131  : 	InstanceType* pkInstance = NULL;
; 132  : 	if(lua_type(L, idx) == LUA_TTABLE)

	mov	eax, DWORD PTR _idx$[esp+16]
	push	eax
	push	esi
	mov	bl, 1
	xor	edi, edi
	call	_lua_type
	add	esp, 12					; 0000000cH
	cmp	eax, 5
	jne	SHORT $LN3@GetInstanc@2

; 133  : 	{
; 134  : 		lua_getfield(L, idx, "__instance");

	mov	ecx, DWORD PTR _idx$[esp+12]
	push	OFFSET $SG237776
	push	ecx
	push	esi
	call	_lua_getfield

; 135  : 		if(lua_type(L, -1) == LUA_TLIGHTUSERDATA)

	push	-1
	push	esi
	call	_lua_type
	add	esp, 20					; 00000014H
	cmp	eax, 2
	jne	SHORT $LN3@GetInstanc@2

; 136  : 		{
; 137  : 			pkInstance = static_cast<InstanceType*>(lua_touserdata(L, -1));

	push	-1
	push	esi
	call	_lua_touserdata
	mov	edi, eax
	add	esp, 8

; 138  : 			if(pkInstance)

	test	edi, edi
	je	SHORT $LN3@GetInstanc@2

; 139  : 			{
; 140  : 				bFail = false;

	xor	bl, bl
$LN3@GetInstanc@2:

; 141  : 			}
; 142  : 		}
; 143  : 	}
; 144  : 
; 145  : 	lua_settop(L, stack_size);

	push	ebp
	push	esi
	call	_lua_settop
	add	esp, 8

; 146  : 
; 147  : 	if(bFail && bErrorOnFail)

	test	bl, bl
	je	SHORT $LN9@GetInstanc@2
	cmp	BYTE PTR _bErrorOnFail$[esp+12], 0
	je	SHORT $LN9@GetInstanc@2

; 148  : 	{
; 149  : 		if(idx == 1)

	cmp	DWORD PTR _idx$[esp+12], 1
	jne	SHORT $LN1@GetInstanc@2

; 150  : 			luaL_error(L, "Not a valid instance.  Either the instance is NULL or you used '.' instead of ':'.");

	push	OFFSET $SG237782
	push	esi
	call	_luaL_error
	add	esp, 8
$LN1@GetInstanc@2:

; 151  : 		Derived::HandleMissingInstance(L);

	push	esi
	call	?HandleMissingInstance@CvLuaPlot@@SAXPAUlua_State@@@Z ; CvLuaPlot::HandleMissingInstance
	add	esp, 4
$LN9@GetInstanc@2:

; 152  : 	}
; 153  : 	return pkInstance;

	mov	eax, edi
	pop	edi
	pop	esi
	pop	ebp
	pop	ebx

; 154  : }

	ret	0
?GetInstance@?$CvLuaScopedInstance@VCvLuaPlot@@VCvPlot@@@@SAPAVCvPlot@@PAUlua_State@@H_N@Z ENDP ; CvLuaScopedInstance<CvLuaPlot,CvPlot>::GetInstance
_TEXT	ENDS
PUBLIC	?Push@?$CvLuaScopedInstance@VCvLuaUnit@@VCvUnit@@@@SAXPAUlua_State@@PAVCvUnit@@@Z ; CvLuaScopedInstance<CvLuaUnit,CvUnit>::Push
EXTRN	?PushMethods@CvLuaUnit@@SAXPAUlua_State@@H@Z:PROC ; CvLuaUnit::PushMethods
EXTRN	?GetTypeName@CvLuaUnit@@SAPBDXZ:PROC		; CvLuaUnit::GetTypeName
; Function compile flags: /Ogtpy
;	COMDAT ?Push@?$CvLuaScopedInstance@VCvLuaUnit@@VCvUnit@@@@SAXPAUlua_State@@PAVCvUnit@@@Z
_TEXT	SEGMENT
_L$ = 8							; size = 4
_pkType$ = 12						; size = 4
?Push@?$CvLuaScopedInstance@VCvLuaUnit@@VCvUnit@@@@SAXPAUlua_State@@PAVCvUnit@@@Z PROC ; CvLuaScopedInstance<CvLuaUnit,CvUnit>::Push, COMDAT

; 39   : {

	push	edi

; 40   : 	//Pushing an instance involves more than just actually pushing a pointer into the
; 41   : 	//Lua stack.  There are some caching optimizations that are done as well as some
; 42   : 	//checks.
; 43   : 	//The first step is to load or create a global table <Typename> to store all member
; 44   : 	//methods and all pushed instances.  This conserves memory and offers faster pushing
; 45   : 	//speed.
; 46   : 	//If <Typename>.__instances[pkType] is not nil, return that value.
; 47   : 	//otherwise push a new instance and assign it to __instances.
; 48   : 
; 49   : 	//NOTE: Raw gets and sets are used as an optimization over using lua_[get,set]field
; 50   : 	if(pkType)

	mov	edi, DWORD PTR _pkType$[esp]
	test	edi, edi
	je	$LN4@Push@3
	push	ebx
	push	ebp
	push	esi

; 51   : 	{
; 52   : 		//const int t = lua_gettop(L);
; 53   : 
; 54   : 		lua_getglobal(L, Derived::GetTypeName());

	call	?GetTypeName@CvLuaUnit@@SAPBDXZ		; CvLuaUnit::GetTypeName
	mov	esi, DWORD PTR _L$[esp+12]
	push	eax
	push	-10002					; ffffd8eeH
	push	esi
	call	_lua_getfield

; 55   : 		if(lua_isnil(L, -1))

	push	-1
	push	esi
	call	_lua_type
	add	esp, 20					; 00000014H
	test	eax, eax
	jne	$LN7@Push@3

; 56   : 		{
; 57   : 			//Typename wasn't found, time to build it.
; 58   : 			lua_pop(L, 1);

	push	-2					; fffffffeH
	push	esi
	call	_lua_settop

; 59   : 			lua_newtable(L);

	push	0
	push	0
	push	esi
	call	_lua_createtable

; 60   : 
; 61   : 			//Create weak __instances table.
; 62   : 			lua_pushstring(L, "__instances");

	push	OFFSET $SG237793
	push	esi
	call	_lua_pushstring

; 63   : 			lua_newtable(L);

	push	0
	push	0
	push	esi
	call	_lua_createtable

; 64   : 
; 65   : 			//Create __instances.mt
; 66   : 			lua_newtable(L);

	push	0
	push	0
	push	esi
	call	_lua_createtable

; 67   : 			lua_pushstring(L, "__mode");

	push	OFFSET $SG237794
	push	esi
	call	_lua_pushstring

; 68   : 			lua_pushstring(L, "v");

	push	OFFSET $SG237795
	push	esi
	call	_lua_pushstring
	add	esp, 68					; 00000044H

; 69   : 			lua_rawset(L, -3);				// mt.__mode = "v";

	push	-3					; fffffffdH
	push	esi
	call	_lua_rawset

; 70   : 			lua_setmetatable(L, -2);

	push	-2					; fffffffeH
	push	esi
	call	_lua_setmetatable

; 71   : 
; 72   : 			lua_rawset(L, -3);				//type.__instances = t;

	push	-3					; fffffffdH
	push	esi
	call	_lua_rawset

; 73   : 
; 74   : 
; 75   : 			lua_pushvalue(L, -1);

	push	-1
	push	esi
	call	_lua_pushvalue

; 76   : 			lua_setglobal(L, Derived::GetTypeName());

	call	?GetTypeName@CvLuaUnit@@SAPBDXZ		; CvLuaUnit::GetTypeName
	push	eax
	push	-10002					; ffffd8eeH
	push	esi
	call	_lua_setfield

; 77   : 
; 78   : 			Derived::PushMethods(L, lua_gettop(L));

	push	esi
	call	_lua_gettop
	push	eax
	push	esi
	call	?PushMethods@CvLuaUnit@@SAXPAUlua_State@@H@Z ; CvLuaUnit::PushMethods
	add	esp, 56					; 00000038H
$LN7@Push@3:

; 79   : 		}
; 80   : 		const int type_index = lua_gettop(L);

	push	esi
	call	_lua_gettop

; 81   : 
; 82   : 		lua_pushstring(L, "__instances");

	push	OFFSET $SG237797
	push	esi
	mov	ebx, eax
	call	_lua_pushstring

; 83   : 		lua_rawget(L, -2);

	push	-2					; fffffffeH
	push	esi
	call	_lua_rawget

; 84   : 
; 85   : 		const int instances_index = lua_gettop(L);

	push	esi
	call	_lua_gettop

; 86   : 
; 87   : 		lua_pushlightuserdata(L, pkType);

	push	edi
	push	esi
	mov	ebp, eax
	call	_lua_pushlightuserdata

; 88   : 
; 89   : 		lua_rawget(L, -2);					//retrieve type.__instances[pkType]

	push	-2					; fffffffeH
	push	esi
	call	_lua_rawget

; 90   : 
; 91   : 		if(lua_isnil(L, -1))

	push	-1
	push	esi
	call	_lua_type
	add	esp, 48					; 00000030H
	test	eax, eax
	jne	SHORT $LN2@Push@3

; 92   : 		{
; 93   : 			lua_pop(L, 1);

	push	-2					; fffffffeH
	push	esi
	call	_lua_settop

; 94   : 
; 95   : 			//Push new instance
; 96   : 			lua_createtable(L, 0, 1);

	push	1
	push	0
	push	esi
	call	_lua_createtable

; 97   : 			lua_pushlightuserdata(L, pkType);

	push	edi
	push	esi
	call	_lua_pushlightuserdata

; 98   : 			lua_setfield(L, -2, "__instance");

	push	OFFSET $SG237800
	push	-2					; fffffffeH
	push	esi
	call	_lua_setfield

; 99   : 
; 100  : 			lua_createtable(L, 0, 1);			// create mt

	push	1
	push	0
	push	esi
	call	_lua_createtable

; 101  : 			lua_pushstring(L, "__index");

	push	OFFSET $SG237801
	push	esi
	call	_lua_pushstring

; 102  : 			lua_pushvalue(L, type_index);

	push	ebx
	push	esi
	call	_lua_pushvalue
	add	esp, 68					; 00000044H

; 103  : 			lua_rawset(L, -3);					// mt.__index = Type

	push	-3					; fffffffdH
	push	esi
	call	_lua_rawset

; 104  : 			lua_setmetatable(L, -2);

	push	-2					; fffffffeH
	push	esi
	call	_lua_setmetatable

; 105  : 
; 106  : 			//Assign it in instances
; 107  : 			lua_pushlightuserdata(L, pkType);

	push	edi
	push	esi
	call	_lua_pushlightuserdata

; 108  : 			lua_pushvalue(L, -2);

	push	-2					; fffffffeH
	push	esi
	call	_lua_pushvalue

; 109  : 			lua_rawset(L, instances_index);				//__instances[pkType] = t;

	push	ebp
	push	esi
	call	_lua_rawset
	add	esp, 40					; 00000028H
$LN2@Push@3:

; 110  : 		}
; 111  : 
; 112  : 		//VERIFY(instances_index > type_index);
; 113  : 		lua_remove(L, instances_index);

	push	ebp
	push	esi
	call	_lua_remove

; 114  : 		lua_remove(L, type_index);

	push	ebx
	push	esi
	call	_lua_remove
	add	esp, 16					; 00000010H
	pop	esi
	pop	ebp
	pop	ebx
	pop	edi

; 122  : 	}
; 123  : }

	ret	0
$LN4@Push@3:

; 115  : 
; 116  : 		//const int dt = lua_gettop(L);
; 117  : 		//VERIFY(dt == t + 1)
; 118  : 	}
; 119  : 	else
; 120  : 	{
; 121  : 		lua_pushnil(L);

	mov	eax, DWORD PTR _L$[esp]
	push	eax
	call	_lua_pushnil
	add	esp, 4
	pop	edi

; 122  : 	}
; 123  : }

	ret	0
?Push@?$CvLuaScopedInstance@VCvLuaUnit@@VCvUnit@@@@SAXPAUlua_State@@PAVCvUnit@@@Z ENDP ; CvLuaScopedInstance<CvLuaUnit,CvUnit>::Push
_TEXT	ENDS
PUBLIC	?GetInstance@?$CvLuaScopedInstance@VCvLuaUnit@@VCvUnit@@@@SAPAVCvUnit@@PAUlua_State@@H_N@Z ; CvLuaScopedInstance<CvLuaUnit,CvUnit>::GetInstance
EXTRN	?HandleMissingInstance@CvLuaUnit@@SAXPAUlua_State@@@Z:PROC ; CvLuaUnit::HandleMissingInstance
; Function compile flags: /Ogtpy
;	COMDAT ?GetInstance@?$CvLuaScopedInstance@VCvLuaUnit@@VCvUnit@@@@SAPAVCvUnit@@PAUlua_State@@H_N@Z
_TEXT	SEGMENT
_L$ = 8							; size = 4
_idx$ = 12						; size = 4
_bErrorOnFail$ = 16					; size = 1
?GetInstance@?$CvLuaScopedInstance@VCvLuaUnit@@VCvUnit@@@@SAPAVCvUnit@@PAUlua_State@@H_N@Z PROC ; CvLuaScopedInstance<CvLuaUnit,CvUnit>::GetInstance, COMDAT

; 127  : {

	push	ebx
	push	ebp
	push	esi

; 128  : 	const int stack_size = lua_gettop(L);

	mov	esi, DWORD PTR _L$[esp+8]
	push	edi
	push	esi
	call	_lua_gettop
	mov	ebp, eax

; 129  : 	bool bFail = true;
; 130  : 
; 131  : 	InstanceType* pkInstance = NULL;
; 132  : 	if(lua_type(L, idx) == LUA_TTABLE)

	mov	eax, DWORD PTR _idx$[esp+16]
	push	eax
	push	esi
	mov	bl, 1
	xor	edi, edi
	call	_lua_type
	add	esp, 12					; 0000000cH
	cmp	eax, 5
	jne	SHORT $LN3@GetInstanc@3

; 133  : 	{
; 134  : 		lua_getfield(L, idx, "__instance");

	mov	ecx, DWORD PTR _idx$[esp+12]
	push	OFFSET $SG237816
	push	ecx
	push	esi
	call	_lua_getfield

; 135  : 		if(lua_type(L, -1) == LUA_TLIGHTUSERDATA)

	push	-1
	push	esi
	call	_lua_type
	add	esp, 20					; 00000014H
	cmp	eax, 2
	jne	SHORT $LN3@GetInstanc@3

; 136  : 		{
; 137  : 			pkInstance = static_cast<InstanceType*>(lua_touserdata(L, -1));

	push	-1
	push	esi
	call	_lua_touserdata
	mov	edi, eax
	add	esp, 8

; 138  : 			if(pkInstance)

	test	edi, edi
	je	SHORT $LN3@GetInstanc@3

; 139  : 			{
; 140  : 				bFail = false;

	xor	bl, bl
$LN3@GetInstanc@3:

; 141  : 			}
; 142  : 		}
; 143  : 	}
; 144  : 
; 145  : 	lua_settop(L, stack_size);

	push	ebp
	push	esi
	call	_lua_settop
	add	esp, 8

; 146  : 
; 147  : 	if(bFail && bErrorOnFail)

	test	bl, bl
	je	SHORT $LN9@GetInstanc@3
	cmp	BYTE PTR _bErrorOnFail$[esp+12], 0
	je	SHORT $LN9@GetInstanc@3

; 148  : 	{
; 149  : 		if(idx == 1)

	cmp	DWORD PTR _idx$[esp+12], 1
	jne	SHORT $LN1@GetInstanc@3

; 150  : 			luaL_error(L, "Not a valid instance.  Either the instance is NULL or you used '.' instead of ':'.");

	push	OFFSET $SG237822
	push	esi
	call	_luaL_error
	add	esp, 8
$LN1@GetInstanc@3:

; 151  : 		Derived::HandleMissingInstance(L);

	push	esi
	call	?HandleMissingInstance@CvLuaUnit@@SAXPAUlua_State@@@Z ; CvLuaUnit::HandleMissingInstance
	add	esp, 4
$LN9@GetInstanc@3:

; 152  : 	}
; 153  : 	return pkInstance;

	mov	eax, edi
	pop	edi
	pop	esi
	pop	ebp
	pop	ebx

; 154  : }

	ret	0
?GetInstance@?$CvLuaScopedInstance@VCvLuaUnit@@VCvUnit@@@@SAPAVCvUnit@@PAUlua_State@@H_N@Z ENDP ; CvLuaScopedInstance<CvLuaUnit,CvUnit>::GetInstance
_TEXT	ENDS
PUBLIC	?GetInstance@?$CvLuaScopedInstance@VCvLuaDeal@@VCvDeal@@@@SAPAVCvDeal@@PAUlua_State@@H_N@Z ; CvLuaScopedInstance<CvLuaDeal,CvDeal>::GetInstance
EXTRN	?HandleMissingInstance@CvLuaDeal@@SAXPAUlua_State@@@Z:PROC ; CvLuaDeal::HandleMissingInstance
; Function compile flags: /Ogtpy
;	COMDAT ?GetInstance@?$CvLuaScopedInstance@VCvLuaDeal@@VCvDeal@@@@SAPAVCvDeal@@PAUlua_State@@H_N@Z
_TEXT	SEGMENT
_L$ = 8							; size = 4
_idx$ = 12						; size = 4
_bErrorOnFail$ = 16					; size = 1
?GetInstance@?$CvLuaScopedInstance@VCvLuaDeal@@VCvDeal@@@@SAPAVCvDeal@@PAUlua_State@@H_N@Z PROC ; CvLuaScopedInstance<CvLuaDeal,CvDeal>::GetInstance, COMDAT

; 127  : {

	push	ebx
	push	ebp
	push	esi

; 128  : 	const int stack_size = lua_gettop(L);

	mov	esi, DWORD PTR _L$[esp+8]
	push	edi
	push	esi
	call	_lua_gettop
	mov	ebp, eax

; 129  : 	bool bFail = true;
; 130  : 
; 131  : 	InstanceType* pkInstance = NULL;
; 132  : 	if(lua_type(L, idx) == LUA_TTABLE)

	mov	eax, DWORD PTR _idx$[esp+16]
	push	eax
	push	esi
	mov	bl, 1
	xor	edi, edi
	call	_lua_type
	add	esp, 12					; 0000000cH
	cmp	eax, 5
	jne	SHORT $LN3@GetInstanc@4

; 133  : 	{
; 134  : 		lua_getfield(L, idx, "__instance");

	mov	ecx, DWORD PTR _idx$[esp+12]
	push	OFFSET $SG237845
	push	ecx
	push	esi
	call	_lua_getfield

; 135  : 		if(lua_type(L, -1) == LUA_TLIGHTUSERDATA)

	push	-1
	push	esi
	call	_lua_type
	add	esp, 20					; 00000014H
	cmp	eax, 2
	jne	SHORT $LN3@GetInstanc@4

; 136  : 		{
; 137  : 			pkInstance = static_cast<InstanceType*>(lua_touserdata(L, -1));

	push	-1
	push	esi
	call	_lua_touserdata
	mov	edi, eax
	add	esp, 8

; 138  : 			if(pkInstance)

	test	edi, edi
	je	SHORT $LN3@GetInstanc@4

; 139  : 			{
; 140  : 				bFail = false;

	xor	bl, bl
$LN3@GetInstanc@4:

; 141  : 			}
; 142  : 		}
; 143  : 	}
; 144  : 
; 145  : 	lua_settop(L, stack_size);

	push	ebp
	push	esi
	call	_lua_settop
	add	esp, 8

; 146  : 
; 147  : 	if(bFail && bErrorOnFail)

	test	bl, bl
	je	SHORT $LN9@GetInstanc@4
	cmp	BYTE PTR _bErrorOnFail$[esp+12], 0
	je	SHORT $LN9@GetInstanc@4

; 148  : 	{
; 149  : 		if(idx == 1)

	cmp	DWORD PTR _idx$[esp+12], 1
	jne	SHORT $LN1@GetInstanc@4

; 150  : 			luaL_error(L, "Not a valid instance.  Either the instance is NULL or you used '.' instead of ':'.");

	push	OFFSET $SG237851
	push	esi
	call	_luaL_error
	add	esp, 8
$LN1@GetInstanc@4:

; 151  : 		Derived::HandleMissingInstance(L);

	push	esi
	call	?HandleMissingInstance@CvLuaDeal@@SAXPAUlua_State@@@Z ; CvLuaDeal::HandleMissingInstance
	add	esp, 4
$LN9@GetInstanc@4:

; 152  : 	}
; 153  : 	return pkInstance;

	mov	eax, edi
	pop	edi
	pop	esi
	pop	ebp
	pop	ebx

; 154  : }

	ret	0
?GetInstance@?$CvLuaScopedInstance@VCvLuaDeal@@VCvDeal@@@@SAPAVCvDeal@@PAUlua_State@@H_N@Z ENDP ; CvLuaScopedInstance<CvLuaDeal,CvDeal>::GetInstance
_TEXT	ENDS
PUBLIC	??$max@H@std@@YAABHABH0@Z			; std::max<int>
; Function compile flags: /Ogtpy
; File c:\program files (x86)\microsoft visual studio 9.0\vc\include\xutility
;	COMDAT ??$max@H@std@@YAABHABH0@Z
_TEXT	SEGMENT
__Left$ = 8						; size = 4
__Right$ = 12						; size = 4
??$max@H@std@@YAABHABH0@Z PROC				; std::max<int>, COMDAT

; 3384 : 	return (_DEBUG_LT(_Left, _Right) ? _Right : _Left);

	mov	eax, DWORD PTR __Left$[esp-4]
	mov	edx, DWORD PTR [eax]
	mov	ecx, DWORD PTR __Right$[esp-4]
	cmp	edx, DWORD PTR [ecx]
	jge	SHORT $LN4@max
	mov	eax, ecx
$LN4@max:

; 3385 : 	}

	ret	0
??$max@H@std@@YAABHABH0@Z ENDP				; std::max<int>
_TEXT	ENDS
PUBLIC	?getSETTLER_EVALUATION_DISTANCE@CvGlobals@@QAEHXZ ; CvGlobals::getSETTLER_EVALUATION_DISTANCE
; Function compile flags: /Ogtpy
; File c:\users\enormousapplepie\documents\github\lekmod\lekmod_dll\cvgamecoredll_expansion2\cvglobals.h
;	COMDAT ?getSETTLER_EVALUATION_DISTANCE@CvGlobals@@QAEHXZ
_TEXT	SEGMENT
?getSETTLER_EVALUATION_DISTANCE@CvGlobals@@QAEHXZ PROC	; CvGlobals::getSETTLER_EVALUATION_DISTANCE, COMDAT
; _this$ = ecx

; 6381 : 		return m_iSETTLER_EVALUATION_DISTANCE;

	mov	eax, DWORD PTR [ecx+7252]

; 6382 : 	}

	ret	0
?getSETTLER_EVALUATION_DISTANCE@CvGlobals@@QAEHXZ ENDP	; CvGlobals::getSETTLER_EVALUATION_DISTANCE
_TEXT	ENDS
PUBLIC	?getSETTLER_DISTANCE_DROPOFF_MODIFIER@CvGlobals@@QAEHXZ ; CvGlobals::getSETTLER_DISTANCE_DROPOFF_MODIFIER
; Function compile flags: /Ogtpy
;	COMDAT ?getSETTLER_DISTANCE_DROPOFF_MODIFIER@CvGlobals@@QAEHXZ
_TEXT	SEGMENT
?getSETTLER_DISTANCE_DROPOFF_MODIFIER@CvGlobals@@QAEHXZ PROC ; CvGlobals::getSETTLER_DISTANCE_DROPOFF_MODIFIER, COMDAT
; _this$ = ecx

; 6385 : 		return m_iSETTLER_DISTANCE_DROPOFF_MODIFIER;

	mov	eax, DWORD PTR [ecx+7256]

; 6386 : 	}

	ret	0
?getSETTLER_DISTANCE_DROPOFF_MODIFIER@CvGlobals@@QAEHXZ ENDP ; CvGlobals::getSETTLER_DISTANCE_DROPOFF_MODIFIER
_TEXT	ENDS
PUBLIC	??$?6PBD@@YAAAVString@Localization@@AAV01@ABQBD@Z ; operator<<<char const *>
EXTRN	__imp_?PushArgument@String@Localization@@QAE_NPBD@Z:PROC
; Function compile flags: /Ogtpy
; File c:\users\enormousapplepie\documents\github\lekmod\lekmod_dll\cvlocalization\include\cvlocalization.h
;	COMDAT ??$?6PBD@@YAAAVString@Localization@@AAV01@ABQBD@Z
_TEXT	SEGMENT
_s$ = 8							; size = 4
_val$ = 12						; size = 4
??$?6PBD@@YAAAVString@Localization@@AAV01@ABQBD@Z PROC	; operator<<<char const *>, COMDAT

; 491  : 	s.PushArgument(val);

	mov	eax, DWORD PTR _val$[esp-4]
	mov	ecx, DWORD PTR [eax]
	push	esi
	mov	esi, DWORD PTR _s$[esp]
	push	ecx
	mov	ecx, esi
	call	DWORD PTR __imp_?PushArgument@String@Localization@@QAE_NPBD@Z

; 492  : 	return s;

	mov	eax, esi
	pop	esi

; 493  : }

	ret	0
??$?6PBD@@YAAAVString@Localization@@AAV01@ABQBD@Z ENDP	; operator<<<char const *>
_TEXT	ENDS
PUBLIC	??$?6VCvString@@@@YAAAVString@Localization@@AAV01@ABVCvString@@@Z ; operator<<<CvString>
; Function compile flags: /Ogtpy
;	COMDAT ??$?6VCvString@@@@YAAAVString@Localization@@AAV01@ABVCvString@@@Z
_TEXT	SEGMENT
_s$ = 8							; size = 4
_val$ = 12						; size = 4
??$?6VCvString@@@@YAAAVString@Localization@@AAV01@ABVCvString@@@Z PROC ; operator<<<CvString>, COMDAT

; 491  : 	s.PushArgument(val);

	mov	ecx, DWORD PTR _val$[esp-4]
	push	esi
	call	DWORD PTR __imp_?c_str@?$basic_string@DU?$char_traits@D@std@@V?$allocator@D@2@@std@@QBEPBDXZ
	mov	esi, DWORD PTR _s$[esp]
	push	eax
	mov	ecx, esi
	call	DWORD PTR __imp_?PushArgument@String@Localization@@QAE_NPBD@Z

; 492  : 	return s;

	mov	eax, esi
	pop	esi

; 493  : }

	ret	0
??$?6VCvString@@@@YAAAVString@Localization@@AAV01@ABVCvString@@@Z ENDP ; operator<<<CvString>
_TEXT	ENDS
PUBLIC	??$?6$0CE@@@YAAAVString@Localization@@AAV01@AAY0CE@$$CBD@Z ; operator<<<36>
EXTRN	__imp_?PushArgument@String@Localization@@QAE_NPBDI@Z:PROC
; Function compile flags: /Ogtpy
;	COMDAT ??$?6$0CE@@@YAAAVString@Localization@@AAV01@AAY0CE@$$CBD@Z
_TEXT	SEGMENT
_s$ = 8							; size = 4
_val$ = 12						; size = 4
??$?6$0CE@@@YAAAVString@Localization@@AAV01@AAY0CE@$$CBD@Z PROC ; operator<<<36>, COMDAT

; 498  : 	s.PushArgument(val, N - 1);

	mov	eax, DWORD PTR _val$[esp-4]
	push	esi
	mov	esi, DWORD PTR _s$[esp]
	push	35					; 00000023H
	push	eax
	mov	ecx, esi
	call	DWORD PTR __imp_?PushArgument@String@Localization@@QAE_NPBDI@Z

; 499  : 	return s;

	mov	eax, esi
	pop	esi

; 500  : }

	ret	0
??$?6$0CE@@@YAAAVString@Localization@@AAV01@AAY0CE@$$CBD@Z ENDP ; operator<<<36>
_TEXT	ENDS
PUBLIC	??$QueryInterface@VICvUnit1@@@ICvUnknown@@QAGPAVICvUnit1@@XZ ; ICvUnknown::QueryInterface<ICvUnit1>
; Function compile flags: /Ogtpy
; File c:\users\enormousapplepie\documents\github\lekmod\lekmod_dll\cvgamecoredllutil\include\cvdllinterfaces.h
;	COMDAT ??$QueryInterface@VICvUnit1@@@ICvUnknown@@QAGPAVICvUnit1@@XZ
_TEXT	SEGMENT
_this$ = 8						; size = 4
??$QueryInterface@VICvUnit1@@@ICvUnknown@@QAGPAVICvUnit1@@XZ PROC ; ICvUnknown::QueryInterface<ICvUnit1>, COMDAT

; 322  :  		return static_cast<T*>(QueryInterface(T::GetInterfaceId()));

	mov	ecx, DWORD PTR _this$[esp-4]
	mov	edx, DWORD PTR [ecx]
	push	esi
	mov	esi, DWORD PTR _guidICvUnit1
	sub	esp, 16					; 00000010H
	mov	eax, esp
	mov	DWORD PTR [eax], esi
	mov	esi, DWORD PTR _guidICvUnit1+4
	mov	DWORD PTR [eax+4], esi
	mov	esi, DWORD PTR _guidICvUnit1+8
	mov	DWORD PTR [eax+8], esi
	mov	esi, DWORD PTR _guidICvUnit1+12
	mov	DWORD PTR [eax+12], esi
	mov	eax, DWORD PTR [edx]
	push	ecx
	call	eax

; 323  :  	}

	pop	esi
	ret	4
??$QueryInterface@VICvUnit1@@@ICvUnknown@@QAGPAVICvUnit1@@XZ ENDP ; ICvUnknown::QueryInterface<ICvUnit1>
_TEXT	ENDS
PUBLIC	__TI2?AVbad_alloc@std@@
PUBLIC	??$_Allocate@VCvString@@@std@@YAPAVCvString@@IPAV1@@Z ; std::_Allocate<CvString>
PUBLIC	__CTA2?AVbad_alloc@std@@
PUBLIC	__CT??_R0?AVbad_alloc@std@@@8??0bad_alloc@std@@QAE@ABV01@@Z12
PUBLIC	??0bad_alloc@std@@QAE@ABV01@@Z			; std::bad_alloc::bad_alloc
EXTRN	??2@YAPAXI@Z:PROC				; operator new
;	COMDAT __CT??_R0?AVbad_alloc@std@@@8??0bad_alloc@std@@QAE@ABV01@@Z12
; File c:\program files (x86)\microsoft visual studio 9.0\vc\include\exception
xdata$x	SEGMENT
__CT??_R0?AVbad_alloc@std@@@8??0bad_alloc@std@@QAE@ABV01@@Z12 DD 00H
	DD	FLAT:??_R0?AVbad_alloc@std@@@8
	DD	00H
	DD	0ffffffffH
	ORG $+4
	DD	0cH
	DD	FLAT:??0bad_alloc@std@@QAE@ABV01@@Z
xdata$x	ENDS
;	COMDAT __CTA2?AVbad_alloc@std@@
xdata$x	SEGMENT
__CTA2?AVbad_alloc@std@@ DD 02H
	DD	FLAT:__CT??_R0?AVbad_alloc@std@@@8??0bad_alloc@std@@QAE@ABV01@@Z12
	DD	FLAT:__CT??_R0?AVexception@std@@@8??0exception@std@@QAE@ABV01@@Z12
xdata$x	ENDS
;	COMDAT __TI2?AVbad_alloc@std@@
xdata$x	SEGMENT
__TI2?AVbad_alloc@std@@ DD 00H
	DD	FLAT:??1bad_alloc@std@@UAE@XZ
	DD	00H
	DD	FLAT:__CTA2?AVbad_alloc@std@@
; Function compile flags: /Ogtpy
; File c:\program files (x86)\microsoft visual studio 9.0\vc\include\xmemory
xdata$x	ENDS
;	COMDAT ??$_Allocate@VCvString@@@std@@YAPAVCvString@@IPAV1@@Z
_TEXT	SEGMENT
$T243450 = -12						; size = 12
$T243454 = 8						; size = 4
__Count$ = 8						; size = 4
___formal$ = 12						; size = 4
??$_Allocate@VCvString@@@std@@YAPAVCvString@@IPAV1@@Z PROC ; std::_Allocate<CvString>, COMDAT

; 37   : 	if (_Count <= 0)

	mov	ecx, DWORD PTR __Count$[esp-4]
	sub	esp, 12					; 0000000cH
	test	ecx, ecx
	ja	SHORT $LN3@Allocate

; 38   : 		_Count = 0;

	xor	ecx, ecx
$LN1@Allocate:

; 41   : 
; 42   : 		// allocate storage for _Count elements of type _Ty
; 43   : 	return ((_Ty _FARQ *)::operator new(_Count * sizeof (_Ty)));

	lea	edx, DWORD PTR [ecx*8]
	sub	edx, ecx
	add	edx, edx
	add	edx, edx
	push	edx
	call	??2@YAPAXI@Z				; operator new
	add	esp, 4

; 44   : 	}

	add	esp, 12					; 0000000cH
	ret	0
$LN3@Allocate:

; 39   : 	else if (((_SIZT)(-1) / _Count) < sizeof (_Ty))

	or	eax, -1
	xor	edx, edx
	div	ecx
	cmp	eax, 28					; 0000001cH
	jae	SHORT $LN1@Allocate

; 40   : 		_THROW_NCEE(std::bad_alloc, NULL);

	lea	eax, DWORD PTR $T243454[esp+8]
	push	eax
	lea	ecx, DWORD PTR $T243450[esp+16]
	mov	DWORD PTR $T243454[esp+12], 0
	call	DWORD PTR __imp_??0exception@std@@QAE@ABQBD@Z
	push	OFFSET __TI2?AVbad_alloc@std@@
	lea	ecx, DWORD PTR $T243450[esp+16]
	push	ecx
	mov	DWORD PTR $T243450[esp+20], OFFSET ??_7bad_alloc@std@@6B@
	call	__CxxThrowException@8
$LN9@Allocate:
$LN8@Allocate:
	int	3
??$_Allocate@VCvString@@@std@@YAPAVCvString@@IPAV1@@Z ENDP ; std::_Allocate<CvString>
_TEXT	ENDS
PUBLIC	??$_Destroy@PAU_Node@?$_Tree_nod@V?$_Tmap_traits@IHU?$less@I@std@@V?$allocator@U?$pair@$$CBIH@std@@@2@$0A@@std@@@std@@@std@@YAXPAPAU_Node@?$_Tree_nod@V?$_Tmap_traits@IHU?$less@I@std@@V?$allocator@U?$pair@$$CBIH@std@@@2@$0A@@std@@@0@@Z ; std::_Destroy<std::_Tree_nod<std::_Tmap_traits<unsigned int,int,std::less<unsigned int>,std::allocator<std::pair<unsigned int const ,int> >,0> >::_Node *>
; Function compile flags: /Ogtpy
;	COMDAT ??$_Destroy@PAU_Node@?$_Tree_nod@V?$_Tmap_traits@IHU?$less@I@std@@V?$allocator@U?$pair@$$CBIH@std@@@2@$0A@@std@@@std@@@std@@YAXPAPAU_Node@?$_Tree_nod@V?$_Tmap_traits@IHU?$less@I@std@@V?$allocator@U?$pair@$$CBIH@std@@@2@$0A@@std@@@0@@Z
_TEXT	SEGMENT
__Ptr$ = 8						; size = 4
??$_Destroy@PAU_Node@?$_Tree_nod@V?$_Tmap_traits@IHU?$less@I@std@@V?$allocator@U?$pair@$$CBIH@std@@@2@$0A@@std@@@std@@@std@@YAXPAPAU_Node@?$_Tree_nod@V?$_Tmap_traits@IHU?$less@I@std@@V?$allocator@U?$pair@$$CBIH@std@@@2@$0A@@std@@@0@@Z PROC ; std::_Destroy<std::_Tree_nod<std::_Tmap_traits<unsigned int,int,std::less<unsigned int>,std::allocator<std::pair<unsigned int const ,int> >,0> >::_Node *>, COMDAT

; 59   : 	_DESTRUCTOR(_Ty, _Ptr);
; 60   : 	}

	ret	0
??$_Destroy@PAU_Node@?$_Tree_nod@V?$_Tmap_traits@IHU?$less@I@std@@V?$allocator@U?$pair@$$CBIH@std@@@2@$0A@@std@@@std@@@std@@YAXPAPAU_Node@?$_Tree_nod@V?$_Tmap_traits@IHU?$less@I@std@@V?$allocator@U?$pair@$$CBIH@std@@@2@$0A@@std@@@0@@Z ENDP ; std::_Destroy<std::_Tree_nod<std::_Tmap_traits<unsigned int,int,std::less<unsigned int>,std::allocator<std::pair<unsigned int const ,int> >,0> >::_Node *>
_TEXT	ENDS
PUBLIC	??$_Allocate@UOpinion@@@std@@YAPAUOpinion@@IPAU1@@Z ; std::_Allocate<Opinion>
; Function compile flags: /Ogtpy
;	COMDAT ??$_Allocate@UOpinion@@@std@@YAPAUOpinion@@IPAU1@@Z
_TEXT	SEGMENT
$T243463 = -12						; size = 12
$T243467 = 8						; size = 4
__Count$ = 8						; size = 4
___formal$ = 12						; size = 4
??$_Allocate@UOpinion@@@std@@YAPAUOpinion@@IPAU1@@Z PROC ; std::_Allocate<Opinion>, COMDAT

; 37   : 	if (_Count <= 0)

	mov	ecx, DWORD PTR __Count$[esp-4]
	sub	esp, 12					; 0000000cH
	test	ecx, ecx
	ja	SHORT $LN3@Allocate@2

; 38   : 		_Count = 0;

	xor	ecx, ecx
$LN1@Allocate@2:

; 41   : 
; 42   : 		// allocate storage for _Count elements of type _Ty
; 43   : 	return ((_Ty _FARQ *)::operator new(_Count * sizeof (_Ty)));

	imul	ecx, 84					; 00000054H
	push	ecx
	call	??2@YAPAXI@Z				; operator new
	add	esp, 4

; 44   : 	}

	add	esp, 12					; 0000000cH
	ret	0
$LN3@Allocate@2:

; 39   : 	else if (((_SIZT)(-1) / _Count) < sizeof (_Ty))

	or	eax, -1
	xor	edx, edx
	div	ecx
	cmp	eax, 84					; 00000054H
	jae	SHORT $LN1@Allocate@2

; 40   : 		_THROW_NCEE(std::bad_alloc, NULL);

	lea	eax, DWORD PTR $T243467[esp+8]
	push	eax
	lea	ecx, DWORD PTR $T243463[esp+16]
	mov	DWORD PTR $T243467[esp+12], 0
	call	DWORD PTR __imp_??0exception@std@@QAE@ABQBD@Z
	push	OFFSET __TI2?AVbad_alloc@std@@
	lea	ecx, DWORD PTR $T243463[esp+16]
	push	ecx
	mov	DWORD PTR $T243463[esp+20], OFFSET ??_7bad_alloc@std@@6B@
	call	__CxxThrowException@8
$LN9@Allocate@2:
$LN8@Allocate@2:
	int	3
??$_Allocate@UOpinion@@@std@@YAPAUOpinion@@IPAU1@@Z ENDP ; std::_Allocate<Opinion>
_TEXT	ENDS
PUBLIC	??$_Destroy@U_Node@?$_Tree_nod@V?$_Tmap_traits@IHU?$less@I@std@@V?$allocator@U?$pair@$$CBIH@std@@@2@$0A@@std@@@std@@@std@@YAXPAU_Node@?$_Tree_nod@V?$_Tmap_traits@IHU?$less@I@std@@V?$allocator@U?$pair@$$CBIH@std@@@2@$0A@@std@@@0@@Z ; std::_Destroy<std::_Tree_nod<std::_Tmap_traits<unsigned int,int,std::less<unsigned int>,std::allocator<std::pair<unsigned int const ,int> >,0> >::_Node>
; Function compile flags: /Ogtpy
;	COMDAT ??$_Destroy@U_Node@?$_Tree_nod@V?$_Tmap_traits@IHU?$less@I@std@@V?$allocator@U?$pair@$$CBIH@std@@@2@$0A@@std@@@std@@@std@@YAXPAU_Node@?$_Tree_nod@V?$_Tmap_traits@IHU?$less@I@std@@V?$allocator@U?$pair@$$CBIH@std@@@2@$0A@@std@@@0@@Z
_TEXT	SEGMENT
__Ptr$ = 8						; size = 4
??$_Destroy@U_Node@?$_Tree_nod@V?$_Tmap_traits@IHU?$less@I@std@@V?$allocator@U?$pair@$$CBIH@std@@@2@$0A@@std@@@std@@@std@@YAXPAU_Node@?$_Tree_nod@V?$_Tmap_traits@IHU?$less@I@std@@V?$allocator@U?$pair@$$CBIH@std@@@2@$0A@@std@@@0@@Z PROC ; std::_Destroy<std::_Tree_nod<std::_Tmap_traits<unsigned int,int,std::less<unsigned int>,std::allocator<std::pair<unsigned int const ,int> >,0> >::_Node>, COMDAT

; 59   : 	_DESTRUCTOR(_Ty, _Ptr);
; 60   : 	}

	ret	0
??$_Destroy@U_Node@?$_Tree_nod@V?$_Tmap_traits@IHU?$less@I@std@@V?$allocator@U?$pair@$$CBIH@std@@@2@$0A@@std@@@std@@@std@@YAXPAU_Node@?$_Tree_nod@V?$_Tmap_traits@IHU?$less@I@std@@V?$allocator@U?$pair@$$CBIH@std@@@2@$0A@@std@@@0@@Z ENDP ; std::_Destroy<std::_Tree_nod<std::_Tmap_traits<unsigned int,int,std::less<unsigned int>,std::allocator<std::pair<unsigned int const ,int> >,0> >::_Node>
_TEXT	ENDS
PUBLIC	??8?$_Vector_const_iterator@UOpinion@@V?$allocator@UOpinion@@@std@@@std@@QBE_NABV01@@Z ; std::_Vector_const_iterator<Opinion,std::allocator<Opinion> >::operator==
; Function compile flags: /Ogtpy
; File c:\program files (x86)\microsoft visual studio 9.0\vc\include\vector
;	COMDAT ??8?$_Vector_const_iterator@UOpinion@@V?$allocator@UOpinion@@@std@@@std@@QBE_NABV01@@Z
_TEXT	SEGMENT
__Right$ = 8						; size = 4
??8?$_Vector_const_iterator@UOpinion@@V?$allocator@UOpinion@@@std@@@std@@QBE_NABV01@@Z PROC ; std::_Vector_const_iterator<Opinion,std::allocator<Opinion> >::operator==, COMDAT
; _this$ = ecx

; 204  : 
; 205  :  #if _HAS_ITERATOR_DEBUGGING
; 206  : 		_Compat(_Right);
; 207  :  #else
; 208  : 		_SCL_SECURE_VALIDATE(this->_Has_container() && this->_Same_container(_Right));
; 209  :  #endif /* _HAS_ITERATOR_DEBUGGING */
; 210  : 
; 211  : 		return (_Myptr == _Right._Myptr);

	mov	eax, DWORD PTR [ecx]
	mov	edx, DWORD PTR __Right$[esp-4]
	xor	ecx, ecx
	cmp	eax, DWORD PTR [edx]
	sete	cl
	mov	al, cl

; 212  : 		}

	ret	4
