; Listing generated by Microsoft (R) Optimizing Compiler Version 15.00.30729.01 

	TITLE	c:\Users\EnormousApplePie\Documents\GitHub\Lekmod\LEKMOD_DLL\CvGameCoreDLL_Expansion2\CvMap.cpp
	.686P
	.XMM
	include listing.inc
	.model	flat

INCLUDELIB MSVCRT
INCLUDELIB OLDNAMES

_BSS	SEGMENT
_sgCvMapInstanceCount DD 01H DUP (?)
_BSS	ENDS
CONST	SEGMENT
$SG235820 DB	'CvMap::init begin - world size=%s, climate=%s, sealevel='
	DB	'%s', 00H
	ORG $+1
$SG236028 DB	'Rand Plot Height', 00H
	ORG $+3
$SG236029 DB	'Rand Plot Width', 00H
$SG236271 DB	'Picking from random Resource Quantity types', 00H
$SG236590 DB	'FEATURE_EVEREST', 00H
$SG236593 DB	'FEATURE_CRATER', 00H
	ORG $+1
$SG236596 DB	'FEATURE_TITICACA', 00H
	ORG $+3
$SG236599 DB	'FEATURE_FUJI', 00H
	ORG $+3
$SG236602 DB	'FEATURE_MESA', 00H
	ORG $+3
$SG236605 DB	'FEATURE_REEF', 00H
	ORG $+3
$SG236608 DB	'FEATURE_VOLCANO', 00H
$SG236636 DB	'Randomly Placing Natural Wonders', 00H
	ORG $+3
$SG236702 DB	'Natural Wonder', 00H
	ORG $+1
$SG236715 DB	'Natural Wonder', 00H
CONST	ENDS
PUBLIC	?wrapCoordDifference@@YAHHI_N@Z			; wrapCoordDifference
; Function compile flags: /Ogtpy
; File c:\users\enormousapplepie\documents\github\lekmod\lekmod_dll\cvgamecoredll_expansion2\cvgamecoreutils.h
;	COMDAT ?wrapCoordDifference@@YAHHI_N@Z
_TEXT	SEGMENT
_iDiff$ = 8						; size = 4
_uiRange$ = 12						; size = 4
_bWrap$ = 16						; size = 1
?wrapCoordDifference@@YAHHI_N@Z PROC			; wrapCoordDifference, COMDAT

; 57   : 	if(bWrap)

	cmp	BYTE PTR _bWrap$[esp-4], 0
	mov	eax, DWORD PTR _iDiff$[esp-4]
	je	SHORT $LN5@wrapCoordD

; 58   : 	{
; 59   : 		if(iDiff > (int)(uiRange >> 1))		// Using an unsigned int so we can safely assume that value >> 1 == value / 2

	mov	edx, DWORD PTR _uiRange$[esp-4]
	mov	ecx, edx
	shr	ecx, 1
	cmp	eax, ecx
	jle	SHORT $LN3@wrapCoordD

; 60   : 		{
; 61   : 			return (iDiff - (int)uiRange);

	sub	eax, edx

; 66   : 		}
; 67   : 	}
; 68   : 
; 69   : 	return iDiff;
; 70   : }

	ret	0
$LN3@wrapCoordD:

; 62   : 		}
; 63   : 		else if(iDiff < -(int)(uiRange >> 1))

	neg	ecx
	cmp	eax, ecx
	jge	SHORT $LN5@wrapCoordD

; 64   : 		{
; 65   : 			return (iDiff + (int)uiRange);

	add	eax, edx
$LN5@wrapCoordD:

; 66   : 		}
; 67   : 	}
; 68   : 
; 69   : 	return iDiff;
; 70   : }

	ret	0
?wrapCoordDifference@@YAHHI_N@Z ENDP			; wrapCoordDifference
_TEXT	ENDS
PUBLIC	?xToHexspaceX@@YAHHH@Z				; xToHexspaceX
; Function compile flags: /Ogtpy
;	COMDAT ?xToHexspaceX@@YAHHH@Z
_TEXT	SEGMENT
_iX$ = 8						; size = 4
_iY$ = 12						; size = 4
?xToHexspaceX@@YAHHH@Z PROC				; xToHexspaceX, COMDAT

; 86   : 	return iX - ((iY >= 0) ? (iY>>1) : ((iY - 1)/2));

	mov	ecx, DWORD PTR _iY$[esp-4]
	test	ecx, ecx
	jge	SHORT $LN5@xToHexspac
	lea	eax, DWORD PTR [ecx-1]
	cdq
	sub	eax, edx
	mov	ecx, eax
$LN5@xToHexspac:
	mov	eax, DWORD PTR _iX$[esp-4]
	sar	ecx, 1
	sub	eax, ecx

; 87   : }

	ret	0
?xToHexspaceX@@YAHHH@Z ENDP				; xToHexspaceX
_TEXT	ENDS
PUBLIC	?hexspaceXToX@@YAHHH@Z				; hexspaceXToX
; Function compile flags: /Ogtpy
;	COMDAT ?hexspaceXToX@@YAHHH@Z
_TEXT	SEGMENT
_iHexspaceX$ = 8					; size = 4
_iHexspaceY$ = 12					; size = 4
?hexspaceXToX@@YAHHH@Z PROC				; hexspaceXToX, COMDAT

; 91   : 	return iHexspaceX + ((iHexspaceY >= 0) ? (iHexspaceY>>1) : ((iHexspaceY - 1)/2));

	mov	eax, DWORD PTR _iHexspaceY$[esp-4]
	test	eax, eax
	jl	SHORT $LN3@hexspaceXT
	mov	ecx, DWORD PTR _iHexspaceX$[esp-4]
	sar	eax, 1
	add	eax, ecx

; 92   : }

	ret	0
$LN3@hexspaceXT:

; 91   : 	return iHexspaceX + ((iHexspaceY >= 0) ? (iHexspaceY>>1) : ((iHexspaceY - 1)/2));

	dec	eax
	cdq
	sub	eax, edx
	mov	edx, DWORD PTR _iHexspaceX$[esp-4]
	sar	eax, 1
	add	eax, edx

; 92   : }

	ret	0
?hexspaceXToX@@YAHHH@Z ENDP				; hexspaceXToX
_TEXT	ENDS
PUBLIC	??_7CvLandmass@@6B@				; CvLandmass::`vftable'
PUBLIC	??0CvLandmass@@QAE@XZ				; CvLandmass::CvLandmass
PUBLIC	??_R4CvLandmass@@6B@				; CvLandmass::`RTTI Complete Object Locator'
PUBLIC	??_R0?AVCvLandmass@@@8				; CvLandmass `RTTI Type Descriptor'
PUBLIC	??_R3CvLandmass@@8				; CvLandmass::`RTTI Class Hierarchy Descriptor'
PUBLIC	??_R2CvLandmass@@8				; CvLandmass::`RTTI Base Class Array'
PUBLIC	??_R1A@?0A@EA@CvLandmass@@8			; CvLandmass::`RTTI Base Class Descriptor at (0,-1,0,64)'
PUBLIC	?read@CvLandmass@@UAEXAAVFDataStream@@@Z	; CvLandmass::read
PUBLIC	?write@CvLandmass@@UBEXAAVFDataStream@@@Z	; CvLandmass::write
EXTRN	??_7type_info@@6B@:QWORD			; type_info::`vftable'
EXTRN	??_ECvLandmass@@UAEPAXI@Z:PROC			; CvLandmass::`vector deleting destructor'
;	COMDAT ??_R1A@?0A@EA@CvLandmass@@8
; File c:\users\enormousapplepie\documents\github\lekmod\lekmod_dll\cvgamecoredll_expansion2\cvmap.cpp
rdata$r	SEGMENT
??_R1A@?0A@EA@CvLandmass@@8 DD FLAT:??_R0?AVCvLandmass@@@8 ; CvLandmass::`RTTI Base Class Descriptor at (0,-1,0,64)'
	DD	00H
	DD	00H
	DD	0ffffffffH
	DD	00H
	DD	040H
	DD	FLAT:??_R3CvLandmass@@8
rdata$r	ENDS
;	COMDAT ??_R2CvLandmass@@8
rdata$r	SEGMENT
??_R2CvLandmass@@8 DD FLAT:??_R1A@?0A@EA@CvLandmass@@8	; CvLandmass::`RTTI Base Class Array'
rdata$r	ENDS
;	COMDAT ??_R3CvLandmass@@8
rdata$r	SEGMENT
??_R3CvLandmass@@8 DD 00H				; CvLandmass::`RTTI Class Hierarchy Descriptor'
	DD	00H
	DD	01H
	DD	FLAT:??_R2CvLandmass@@8
rdata$r	ENDS
;	COMDAT ??_R0?AVCvLandmass@@@8
_DATA	SEGMENT
??_R0?AVCvLandmass@@@8 DD FLAT:??_7type_info@@6B@	; CvLandmass `RTTI Type Descriptor'
	DD	00H
	DB	'.?AVCvLandmass@@', 00H
_DATA	ENDS
;	COMDAT ??_R4CvLandmass@@6B@
rdata$r	SEGMENT
??_R4CvLandmass@@6B@ DD 00H				; CvLandmass::`RTTI Complete Object Locator'
	DD	00H
	DD	00H
	DD	FLAT:??_R0?AVCvLandmass@@@8
	DD	FLAT:??_R3CvLandmass@@8
rdata$r	ENDS
;	COMDAT ??_7CvLandmass@@6B@
CONST	SEGMENT
??_7CvLandmass@@6B@ DD FLAT:??_R4CvLandmass@@6B@	; CvLandmass::`vftable'
	DD	FLAT:??_ECvLandmass@@UAEPAXI@Z
	DD	FLAT:?read@CvLandmass@@UAEXAAVFDataStream@@@Z
	DD	FLAT:?write@CvLandmass@@UBEXAAVFDataStream@@@Z
; Function compile flags: /Ogtpy
CONST	ENDS
;	COMDAT ??0CvLandmass@@QAE@XZ
_TEXT	SEGMENT
??0CvLandmass@@QAE@XZ PROC				; CvLandmass::CvLandmass, COMDAT
; _this$ = ecx

; 39   : {

	mov	eax, ecx

; 40   : 	m_iID = -1;
; 41   : 	m_iNumTiles = 0;

	xor	ecx, ecx
	mov	DWORD PTR [eax], OFFSET ??_7CvLandmass@@6B@
	mov	DWORD PTR [eax+4], -1
	mov	DWORD PTR [eax+8], ecx

; 42   : 	m_bWater = true;

	mov	BYTE PTR [eax+13], 1

; 43   : 	m_cContinentType = 0;

	mov	BYTE PTR [eax+12], cl

; 44   : 	m_iCentroidX = 0;

	mov	DWORD PTR [eax+16], ecx

; 45   : 	m_iCentroidY = 0;

	mov	DWORD PTR [eax+20], ecx

; 46   : }

	ret	0
??0CvLandmass@@QAE@XZ ENDP				; CvLandmass::CvLandmass
_TEXT	ENDS
PUBLIC	??1CvLandmass@@UAE@XZ				; CvLandmass::~CvLandmass
; Function compile flags: /Ogtpy
;	COMDAT ??1CvLandmass@@UAE@XZ
_TEXT	SEGMENT
??1CvLandmass@@UAE@XZ PROC				; CvLandmass::~CvLandmass, COMDAT
; _this$ = ecx

; 50   : {

	mov	DWORD PTR [ecx], OFFSET ??_7CvLandmass@@6B@

; 51   : 
; 52   : }

	ret	0
??1CvLandmass@@UAE@XZ ENDP				; CvLandmass::~CvLandmass
_TEXT	ENDS
PUBLIC	?init@CvLandmass@@QAEXH_N@Z			; CvLandmass::init
; Function compile flags: /Ogtpy
;	COMDAT ?init@CvLandmass@@QAEXH_N@Z
_TEXT	SEGMENT
_iID$ = 8						; size = 4
_bWater$ = 12						; size = 1
?init@CvLandmass@@QAEXH_N@Z PROC			; CvLandmass::init, COMDAT
; _this$ = ecx

; 57   : 	m_iID = iID;

	mov	eax, DWORD PTR _iID$[esp-4]

; 58   : 	m_iNumTiles = 0;
; 59   : 	m_bWater = bWater;

	mov	dl, BYTE PTR _bWater$[esp-4]
	mov	DWORD PTR [ecx+4], eax
	xor	eax, eax
	mov	DWORD PTR [ecx+8], eax
	mov	BYTE PTR [ecx+13], dl

; 60   : 	m_cContinentType = 0;

	mov	BYTE PTR [ecx+12], al

; 61   : 	m_iCentroidX = 0;

	mov	DWORD PTR [ecx+16], eax

; 62   : 	m_iCentroidY = 0;

	mov	DWORD PTR [ecx+20], eax

; 63   : }

	ret	8
?init@CvLandmass@@QAEXH_N@Z ENDP			; CvLandmass::init
_TEXT	ENDS
PUBLIC	?GetID@CvLandmass@@QBEHXZ			; CvLandmass::GetID
; Function compile flags: /Ogtpy
;	COMDAT ?GetID@CvLandmass@@QBEHXZ
_TEXT	SEGMENT
?GetID@CvLandmass@@QBEHXZ PROC				; CvLandmass::GetID, COMDAT
; _this$ = ecx

; 68   : 	return m_iID;

	mov	eax, DWORD PTR [ecx+4]

; 69   : }

	ret	0
?GetID@CvLandmass@@QBEHXZ ENDP				; CvLandmass::GetID
_TEXT	ENDS
PUBLIC	?SetID@CvLandmass@@QAEXH@Z			; CvLandmass::SetID
; Function compile flags: /Ogtpy
;	COMDAT ?SetID@CvLandmass@@QAEXH@Z
_TEXT	SEGMENT
_iID$ = 8						; size = 4
?SetID@CvLandmass@@QAEXH@Z PROC				; CvLandmass::SetID, COMDAT
; _this$ = ecx

; 74   : 	m_iID = iID;

	mov	eax, DWORD PTR _iID$[esp-4]
	mov	DWORD PTR [ecx+4], eax

; 75   : }

	ret	4
?SetID@CvLandmass@@QAEXH@Z ENDP				; CvLandmass::SetID
_TEXT	ENDS
PUBLIC	?getNumTiles@CvLandmass@@QBEHXZ			; CvLandmass::getNumTiles
; Function compile flags: /Ogtpy
;	COMDAT ?getNumTiles@CvLandmass@@QBEHXZ
_TEXT	SEGMENT
?getNumTiles@CvLandmass@@QBEHXZ PROC			; CvLandmass::getNumTiles, COMDAT
; _this$ = ecx

; 80   : 	return m_iNumTiles;

	mov	eax, DWORD PTR [ecx+8]

; 81   : }

	ret	0
?getNumTiles@CvLandmass@@QBEHXZ ENDP			; CvLandmass::getNumTiles
_TEXT	ENDS
PUBLIC	?ChangeCentroidX@CvLandmass@@QAEXH@Z		; CvLandmass::ChangeCentroidX
; Function compile flags: /Ogtpy
;	COMDAT ?ChangeCentroidX@CvLandmass@@QAEXH@Z
_TEXT	SEGMENT
_iChange$ = 8						; size = 4
?ChangeCentroidX@CvLandmass@@QAEXH@Z PROC		; CvLandmass::ChangeCentroidX, COMDAT
; _this$ = ecx

; 103  : 	m_iCentroidX = (m_iCentroidX + iChange);

	mov	eax, DWORD PTR _iChange$[esp-4]
	add	DWORD PTR [ecx+16], eax

; 104  : }

	ret	4
?ChangeCentroidX@CvLandmass@@QAEXH@Z ENDP		; CvLandmass::ChangeCentroidX
_TEXT	ENDS
PUBLIC	?ChangeCentroidY@CvLandmass@@QAEXH@Z		; CvLandmass::ChangeCentroidY
; Function compile flags: /Ogtpy
;	COMDAT ?ChangeCentroidY@CvLandmass@@QAEXH@Z
_TEXT	SEGMENT
_iChange$ = 8						; size = 4
?ChangeCentroidY@CvLandmass@@QAEXH@Z PROC		; CvLandmass::ChangeCentroidY, COMDAT
; _this$ = ecx

; 109  : 	m_iCentroidY = (m_iCentroidY + iChange);

	mov	eax, DWORD PTR _iChange$[esp-4]
	add	DWORD PTR [ecx+20], eax

; 110  : }

	ret	4
?ChangeCentroidY@CvLandmass@@QAEXH@Z ENDP		; CvLandmass::ChangeCentroidY
_TEXT	ENDS
PUBLIC	?isWater@CvLandmass@@QBE_NXZ			; CvLandmass::isWater
; Function compile flags: /Ogtpy
;	COMDAT ?isWater@CvLandmass@@QBE_NXZ
_TEXT	SEGMENT
?isWater@CvLandmass@@QBE_NXZ PROC			; CvLandmass::isWater, COMDAT
; _this$ = ecx

; 115  : 	return m_bWater;

	mov	al, BYTE PTR [ecx+13]

; 116  : }

	ret	0
?isWater@CvLandmass@@QBE_NXZ ENDP			; CvLandmass::isWater
_TEXT	ENDS
PUBLIC	?GetContinentType@CvLandmass@@QBEDXZ		; CvLandmass::GetContinentType
; Function compile flags: /Ogtpy
;	COMDAT ?GetContinentType@CvLandmass@@QBEDXZ
_TEXT	SEGMENT
?GetContinentType@CvLandmass@@QBEDXZ PROC		; CvLandmass::GetContinentType, COMDAT
; _this$ = ecx

; 132  : 	return m_cContinentType;

	mov	al, BYTE PTR [ecx+12]

; 133  : }

	ret	0
?GetContinentType@CvLandmass@@QBEDXZ ENDP		; CvLandmass::GetContinentType
_TEXT	ENDS
PUBLIC	?SetContinentType@CvLandmass@@QAEXD@Z		; CvLandmass::SetContinentType
; Function compile flags: /Ogtpy
;	COMDAT ?SetContinentType@CvLandmass@@QAEXD@Z
_TEXT	SEGMENT
_cContinent$ = 8					; size = 1
?SetContinentType@CvLandmass@@QAEXD@Z PROC		; CvLandmass::SetContinentType, COMDAT
; _this$ = ecx

; 142  : 	m_cContinentType = cContinent;

	mov	al, BYTE PTR _cContinent$[esp-4]
	mov	BYTE PTR [ecx+12], al

; 143  : }

	ret	4
?SetContinentType@CvLandmass@@QAEXD@Z ENDP		; CvLandmass::SetContinentType
_TEXT	ENDS
PUBLIC	?GetCentroidX@CvLandmass@@QAEHXZ		; CvLandmass::GetCentroidX
; Function compile flags: /Ogtpy
;	COMDAT ?GetCentroidX@CvLandmass@@QAEHXZ
_TEXT	SEGMENT
?GetCentroidX@CvLandmass@@QAEHXZ PROC			; CvLandmass::GetCentroidX, COMDAT
; _this$ = ecx

; 147  : {

	push	esi

; 148  : 	if(m_iNumTiles > 0)

	mov	esi, DWORD PTR [ecx+8]
	test	esi, esi
	jle	SHORT $LN1@GetCentroi

; 149  : 	{
; 150  : 		return m_iCentroidX / m_iNumTiles;

	mov	eax, DWORD PTR [ecx+16]
	cdq
	idiv	esi
	pop	esi

; 154  : }

	ret	0
$LN1@GetCentroi:

; 151  : 
; 152  : 	}
; 153  : 	return -1;

	or	eax, -1
	pop	esi

; 154  : }

	ret	0
?GetCentroidX@CvLandmass@@QAEHXZ ENDP			; CvLandmass::GetCentroidX
_TEXT	ENDS
PUBLIC	?GetCentroidY@CvLandmass@@QAEHXZ		; CvLandmass::GetCentroidY
; Function compile flags: /Ogtpy
;	COMDAT ?GetCentroidY@CvLandmass@@QAEHXZ
_TEXT	SEGMENT
?GetCentroidY@CvLandmass@@QAEHXZ PROC			; CvLandmass::GetCentroidY, COMDAT
; _this$ = ecx

; 158  : {

	push	esi

; 159  : 	if(m_iNumTiles > 0)

	mov	esi, DWORD PTR [ecx+8]
	test	esi, esi
	jle	SHORT $LN1@GetCentroi@2

; 160  : 	{
; 161  : 		return m_iCentroidY / m_iNumTiles;

	mov	eax, DWORD PTR [ecx+20]
	cdq
	idiv	esi
	pop	esi

; 165  : }

	ret	0
$LN1@GetCentroi@2:

; 162  : 
; 163  : 	}
; 164  : 	return -1;

	or	eax, -1
	pop	esi

; 165  : }

	ret	0
?GetCentroidY@CvLandmass@@QAEHXZ ENDP			; CvLandmass::GetCentroidY
_TEXT	ENDS
PUBLIC	??6@YAAAVFDataStream@@AAV0@ABVCvLandmass@@@Z	; operator<<
; Function compile flags: /Ogtpy
;	COMDAT ??6@YAAAVFDataStream@@AAV0@ABVCvLandmass@@@Z
_TEXT	SEGMENT
_saveTo$ = 8						; size = 4
_readFrom$ = 12						; size = 4
??6@YAAAVFDataStream@@AAV0@ABVCvLandmass@@@Z PROC	; operator<<, COMDAT

; 209  : 	readFrom.write(saveTo);

	mov	ecx, DWORD PTR _readFrom$[esp-4]
	mov	eax, DWORD PTR [ecx]
	mov	edx, DWORD PTR [eax+8]
	push	esi
	mov	esi, DWORD PTR _saveTo$[esp]
	push	esi
	call	edx

; 210  : 	return saveTo;

	mov	eax, esi
	pop	esi

; 211  : }

	ret	0
??6@YAAAVFDataStream@@AAV0@ABVCvLandmass@@@Z ENDP	; operator<<
_TEXT	ENDS
PUBLIC	??5@YAAAVFDataStream@@AAV0@AAVCvLandmass@@@Z	; operator>>
; Function compile flags: /Ogtpy
;	COMDAT ??5@YAAAVFDataStream@@AAV0@AAVCvLandmass@@@Z
_TEXT	SEGMENT
_loadFrom$ = 8						; size = 4
_writeTo$ = 12						; size = 4
??5@YAAAVFDataStream@@AAV0@AAVCvLandmass@@@Z PROC	; operator>>, COMDAT

; 216  : 	writeTo.read(loadFrom);

	mov	ecx, DWORD PTR _writeTo$[esp-4]
	mov	eax, DWORD PTR [ecx]
	mov	edx, DWORD PTR [eax+4]
	push	esi
	mov	esi, DWORD PTR _loadFrom$[esp]
	push	esi
	call	edx

; 217  : 	return loadFrom;

	mov	eax, esi
	pop	esi

; 218  : }

	ret	0
??5@YAAAVFDataStream@@AAV0@AAVCvLandmass@@@Z ENDP	; operator>>
_TEXT	ENDS
PUBLIC	??_ECvPlot@@QAEPAXI@Z				; CvPlot::`vector deleting destructor'
EXTRN	??3@YAXPAX@Z:PROC				; operator delete
EXTRN	??_V@YAXPAX@Z:PROC				; operator delete[]
EXTRN	??_M@YGXPAXIHP6EX0@Z@Z:PROC			; `eh vector destructor iterator'
EXTRN	??1CvPlot@@QAE@XZ:PROC				; CvPlot::~CvPlot
; Function compile flags: /Ogtpy
;	COMDAT ??_ECvPlot@@QAEPAXI@Z
_TEXT	SEGMENT
___flags$ = 8						; size = 4
??_ECvPlot@@QAEPAXI@Z PROC				; CvPlot::`vector deleting destructor', COMDAT
; _this$ = ecx
	push	ebx
	mov	bl, BYTE PTR ___flags$[esp]
	push	esi
	mov	esi, ecx
	test	bl, 2
	je	SHORT $LN3@vector
	mov	eax, DWORD PTR [esi-4]
	push	edi
	push	OFFSET ??1CvPlot@@QAE@XZ		; CvPlot::~CvPlot
	lea	edi, DWORD PTR [esi-4]
	push	eax
	push	484					; 000001e4H
	push	esi
	call	??_M@YGXPAXIHP6EX0@Z@Z
	test	bl, 1
	je	SHORT $LN2@vector
	push	edi
	call	??_V@YAXPAX@Z				; operator delete[]
	add	esp, 4
$LN2@vector:
	mov	eax, edi
	pop	edi
	pop	esi
	pop	ebx
	ret	4
$LN3@vector:
	call	??1CvPlot@@QAE@XZ			; CvPlot::~CvPlot
	test	bl, 1
	je	SHORT $LN1@vector
	push	esi
	call	??3@YAXPAX@Z				; operator delete
	add	esp, 4
$LN1@vector:
	mov	eax, esi
	pop	esi
	pop	ebx
	ret	4
??_ECvPlot@@QAEPAXI@Z ENDP				; CvPlot::`vector deleting destructor'
_TEXT	ENDS
PUBLIC	?getLandPlots@CvMap@@QAEHXZ			; CvMap::getLandPlots
; Function compile flags: /Ogtpy
;	COMDAT ?getLandPlots@CvMap@@QAEHXZ
_TEXT	SEGMENT
?getLandPlots@CvMap@@QAEHXZ PROC			; CvMap::getLandPlots, COMDAT
; _this$ = ecx

; 1263 : 	return m_iLandPlots;

	mov	eax, DWORD PTR [ecx+4032]

; 1264 : }

	ret	0
?getLandPlots@CvMap@@QAEHXZ ENDP			; CvMap::getLandPlots
_TEXT	ENDS
PUBLIC	?changeLandPlots@CvMap@@QAEXH@Z			; CvMap::changeLandPlots
; Function compile flags: /Ogtpy
;	COMDAT ?changeLandPlots@CvMap@@QAEXH@Z
_TEXT	SEGMENT
_iChange$ = 8						; size = 4
?changeLandPlots@CvMap@@QAEXH@Z PROC			; CvMap::changeLandPlots, COMDAT
; _this$ = ecx

; 1270 : #ifdef AUI_WARNING_FIXES
; 1271 : 	if (iChange < 0)
; 1272 : 		m_iLandPlots = (m_iLandPlots - abs(iChange));
; 1273 : 	else
; 1274 : #endif
; 1275 : 	m_iLandPlots = (m_iLandPlots + iChange);

	mov	eax, DWORD PTR _iChange$[esp-4]
	add	DWORD PTR [ecx+4032], eax

; 1276 : 	CvAssert(getLandPlots() >= 0);
; 1277 : }

	ret	4
?changeLandPlots@CvMap@@QAEXH@Z ENDP			; CvMap::changeLandPlots
_TEXT	ENDS
PUBLIC	?getOwnedPlots@CvMap@@QAEHXZ			; CvMap::getOwnedPlots
; Function compile flags: /Ogtpy
;	COMDAT ?getOwnedPlots@CvMap@@QAEHXZ
_TEXT	SEGMENT
?getOwnedPlots@CvMap@@QAEHXZ PROC			; CvMap::getOwnedPlots, COMDAT
; _this$ = ecx

; 1287 : 	return m_iOwnedPlots;

	mov	eax, DWORD PTR [ecx+4036]

; 1288 : }

	ret	0
?getOwnedPlots@CvMap@@QAEHXZ ENDP			; CvMap::getOwnedPlots
_TEXT	ENDS
PUBLIC	?changeOwnedPlots@CvMap@@QAEXH@Z		; CvMap::changeOwnedPlots
; Function compile flags: /Ogtpy
;	COMDAT ?changeOwnedPlots@CvMap@@QAEXH@Z
_TEXT	SEGMENT
_iChange$ = 8						; size = 4
?changeOwnedPlots@CvMap@@QAEXH@Z PROC			; CvMap::changeOwnedPlots, COMDAT
; _this$ = ecx

; 1294 : #ifdef AUI_WARNING_FIXES
; 1295 : 	if (iChange < 0)
; 1296 : 		m_iOwnedPlots = (m_iOwnedPlots - abs(iChange));
; 1297 : 	else
; 1298 : #endif
; 1299 : 	m_iOwnedPlots = (m_iOwnedPlots + iChange);

	mov	eax, DWORD PTR _iChange$[esp-4]
	add	DWORD PTR [ecx+4036], eax

; 1300 : 	CvAssert(getOwnedPlots() >= 0);
; 1301 : }

	ret	4
?changeOwnedPlots@CvMap@@QAEXH@Z ENDP			; CvMap::changeOwnedPlots
_TEXT	ENDS
PUBLIC	?getTopLatitude@CvMap@@QAEHXZ			; CvMap::getTopLatitude
; Function compile flags: /Ogtpy
;	COMDAT ?getTopLatitude@CvMap@@QAEHXZ
_TEXT	SEGMENT
?getTopLatitude@CvMap@@QAEHXZ PROC			; CvMap::getTopLatitude, COMDAT
; _this$ = ecx

; 1307 : 	return m_iTopLatitude;

	mov	eax, DWORD PTR [ecx+4040]

; 1308 : }

	ret	0
?getTopLatitude@CvMap@@QAEHXZ ENDP			; CvMap::getTopLatitude
_TEXT	ENDS
PUBLIC	?getBottomLatitude@CvMap@@QAEHXZ		; CvMap::getBottomLatitude
; Function compile flags: /Ogtpy
;	COMDAT ?getBottomLatitude@CvMap@@QAEHXZ
_TEXT	SEGMENT
?getBottomLatitude@CvMap@@QAEHXZ PROC			; CvMap::getBottomLatitude, COMDAT
; _this$ = ecx

; 1314 : 	return m_iBottomLatitude;

	mov	eax, DWORD PTR [ecx+4044]

; 1315 : }

	ret	0
?getBottomLatitude@CvMap@@QAEHXZ ENDP			; CvMap::getBottomLatitude
_TEXT	ENDS
PUBLIC	?getWorldSize@CvMap@@QAE?AW4WorldSizeTypes@@XZ	; CvMap::getWorldSize
EXTRN	?worldSize@CvPreGame@@YA?AW4WorldSizeTypes@@XZ:PROC ; CvPreGame::worldSize
; Function compile flags: /Ogtpy
;	COMDAT ?getWorldSize@CvMap@@QAE?AW4WorldSizeTypes@@XZ
_TEXT	SEGMENT
?getWorldSize@CvMap@@QAE?AW4WorldSizeTypes@@XZ PROC	; CvMap::getWorldSize, COMDAT
; _this$ = ecx

; 1320 : 	return CvPreGame::worldSize();

	jmp	?worldSize@CvPreGame@@YA?AW4WorldSizeTypes@@XZ ; CvPreGame::worldSize
?getWorldSize@CvMap@@QAE?AW4WorldSizeTypes@@XZ ENDP	; CvMap::getWorldSize
_TEXT	ENDS
PUBLIC	?getWorldInfo@CvMap@@QBEABVCvWorldInfo@@XZ	; CvMap::getWorldInfo
EXTRN	?worldInfo@CvPreGame@@YAABVCvWorldInfo@@XZ:PROC	; CvPreGame::worldInfo
; Function compile flags: /Ogtpy
;	COMDAT ?getWorldInfo@CvMap@@QBEABVCvWorldInfo@@XZ
_TEXT	SEGMENT
?getWorldInfo@CvMap@@QBEABVCvWorldInfo@@XZ PROC		; CvMap::getWorldInfo, COMDAT
; _this$ = ecx

; 1326 : 	return CvPreGame::worldInfo();

	jmp	?worldInfo@CvPreGame@@YAABVCvWorldInfo@@XZ ; CvPreGame::worldInfo
?getWorldInfo@CvMap@@QBEABVCvWorldInfo@@XZ ENDP		; CvMap::getWorldInfo
_TEXT	ENDS
PUBLIC	?getClimate@CvMap@@QAE?AW4ClimateTypes@@XZ	; CvMap::getClimate
EXTRN	?climate@CvPreGame@@YA?AW4ClimateTypes@@XZ:PROC	; CvPreGame::climate
; Function compile flags: /Ogtpy
;	COMDAT ?getClimate@CvMap@@QAE?AW4ClimateTypes@@XZ
_TEXT	SEGMENT
?getClimate@CvMap@@QAE?AW4ClimateTypes@@XZ PROC		; CvMap::getClimate, COMDAT
; _this$ = ecx

; 1332 : 	return CvPreGame::climate();

	jmp	?climate@CvPreGame@@YA?AW4ClimateTypes@@XZ ; CvPreGame::climate
?getClimate@CvMap@@QAE?AW4ClimateTypes@@XZ ENDP		; CvMap::getClimate
_TEXT	ENDS
PUBLIC	?getClimateInfo@CvMap@@QBEABVCvClimateInfo@@XZ	; CvMap::getClimateInfo
EXTRN	?climateInfo@CvPreGame@@YAABVCvClimateInfo@@XZ:PROC ; CvPreGame::climateInfo
; Function compile flags: /Ogtpy
;	COMDAT ?getClimateInfo@CvMap@@QBEABVCvClimateInfo@@XZ
_TEXT	SEGMENT
?getClimateInfo@CvMap@@QBEABVCvClimateInfo@@XZ PROC	; CvMap::getClimateInfo, COMDAT
; _this$ = ecx

; 1338 : 	return CvPreGame::climateInfo();

	jmp	?climateInfo@CvPreGame@@YAABVCvClimateInfo@@XZ ; CvPreGame::climateInfo
?getClimateInfo@CvMap@@QBEABVCvClimateInfo@@XZ ENDP	; CvMap::getClimateInfo
_TEXT	ENDS
PUBLIC	?getSeaLevel@CvMap@@QAE?AW4SeaLevelTypes@@XZ	; CvMap::getSeaLevel
EXTRN	?seaLevel@CvPreGame@@YA?AW4SeaLevelTypes@@XZ:PROC ; CvPreGame::seaLevel
; Function compile flags: /Ogtpy
;	COMDAT ?getSeaLevel@CvMap@@QAE?AW4SeaLevelTypes@@XZ
_TEXT	SEGMENT
?getSeaLevel@CvMap@@QAE?AW4SeaLevelTypes@@XZ PROC	; CvMap::getSeaLevel, COMDAT
; _this$ = ecx

; 1344 : 	return CvPreGame::seaLevel();

	jmp	?seaLevel@CvPreGame@@YA?AW4SeaLevelTypes@@XZ ; CvPreGame::seaLevel
?getSeaLevel@CvMap@@QAE?AW4SeaLevelTypes@@XZ ENDP	; CvMap::getSeaLevel
_TEXT	ENDS
PUBLIC	?getSeaLevelInfo@CvMap@@QBEABVCvSeaLevelInfo@@XZ ; CvMap::getSeaLevelInfo
EXTRN	?seaLevelInfo@CvPreGame@@YAABVCvSeaLevelInfo@@XZ:PROC ; CvPreGame::seaLevelInfo
; Function compile flags: /Ogtpy
;	COMDAT ?getSeaLevelInfo@CvMap@@QBEABVCvSeaLevelInfo@@XZ
_TEXT	SEGMENT
?getSeaLevelInfo@CvMap@@QBEABVCvSeaLevelInfo@@XZ PROC	; CvMap::getSeaLevelInfo, COMDAT
; _this$ = ecx

; 1350 : 	return CvPreGame::seaLevelInfo();

	jmp	?seaLevelInfo@CvPreGame@@YAABVCvSeaLevelInfo@@XZ ; CvPreGame::seaLevelInfo
?getSeaLevelInfo@CvMap@@QBEABVCvSeaLevelInfo@@XZ ENDP	; CvMap::getSeaLevelInfo
_TEXT	ENDS
PUBLIC	?getNumResources@CvMap@@QAEHW4ResourceTypes@@@Z	; CvMap::getNumResources
; Function compile flags: /Ogtpy
;	COMDAT ?getNumResources@CvMap@@QAEHW4ResourceTypes@@@Z
_TEXT	SEGMENT
_eIndex$ = 8						; size = 4
?getNumResources@CvMap@@QAEHW4ResourceTypes@@@Z PROC	; CvMap::getNumResources, COMDAT
; _this$ = ecx

; 1383 : 	CvAssertMsg(eIndex >= 0, "eIndex is expected to be non-negative (invalid Index)");
; 1384 : 	CvAssertMsg(eIndex < GC.getNumResourceInfos(), "eIndex is expected to be within maximum bounds (invalid Index)");
; 1385 : 	return m_paiNumResource[eIndex];

	mov	eax, DWORD PTR [ecx+4060]
	mov	ecx, DWORD PTR _eIndex$[esp-4]
	mov	eax, DWORD PTR [eax+ecx*4]

; 1386 : }

	ret	4
?getNumResources@CvMap@@QAEHW4ResourceTypes@@@Z ENDP	; CvMap::getNumResources
_TEXT	ENDS
PUBLIC	?changeNumResources@CvMap@@QAEXW4ResourceTypes@@H@Z ; CvMap::changeNumResources
; Function compile flags: /Ogtpy
;	COMDAT ?changeNumResources@CvMap@@QAEXW4ResourceTypes@@H@Z
_TEXT	SEGMENT
_eIndex$ = 8						; size = 4
_iChange$ = 12						; size = 4
?changeNumResources@CvMap@@QAEXW4ResourceTypes@@H@Z PROC ; CvMap::changeNumResources, COMDAT
; _this$ = ecx

; 1392 : 	CvAssertMsg(eIndex >= 0, "eIndex is expected to be non-negative (invalid Index)");
; 1393 : 	CvAssertMsg(eIndex < GC.getNumResourceInfos(), "eIndex is expected to be within maximum bounds (invalid Index)");
; 1394 : 	m_paiNumResource[eIndex] = (m_paiNumResource[eIndex] + iChange);

	mov	eax, DWORD PTR [ecx+4060]
	mov	ecx, DWORD PTR _eIndex$[esp-4]
	mov	edx, DWORD PTR _iChange$[esp-4]
	add	DWORD PTR [eax+ecx*4], edx
	lea	eax, DWORD PTR [eax+ecx*4]

; 1395 : 	CvAssert(getNumResources(eIndex) >= 0);
; 1396 : }

	ret	8
?changeNumResources@CvMap@@QAEXW4ResourceTypes@@H@Z ENDP ; CvMap::changeNumResources
_TEXT	ENDS
PUBLIC	?getNumResourcesOnLand@CvMap@@QAEHW4ResourceTypes@@@Z ; CvMap::getNumResourcesOnLand
; Function compile flags: /Ogtpy
;	COMDAT ?getNumResourcesOnLand@CvMap@@QAEHW4ResourceTypes@@@Z
_TEXT	SEGMENT
_eIndex$ = 8						; size = 4
?getNumResourcesOnLand@CvMap@@QAEHW4ResourceTypes@@@Z PROC ; CvMap::getNumResourcesOnLand, COMDAT
; _this$ = ecx

; 1402 : 	CvAssertMsg(eIndex >= 0, "eIndex is expected to be non-negative (invalid Index)");
; 1403 : 	CvAssertMsg(eIndex < GC.getNumResourceInfos(), "eIndex is expected to be within maximum bounds (invalid Index)");
; 1404 : 	return m_paiNumResourceOnLand[eIndex];

	mov	eax, DWORD PTR [ecx+4064]
	mov	ecx, DWORD PTR _eIndex$[esp-4]
	mov	eax, DWORD PTR [eax+ecx*4]

; 1405 : }

	ret	4
?getNumResourcesOnLand@CvMap@@QAEHW4ResourceTypes@@@Z ENDP ; CvMap::getNumResourcesOnLand
_TEXT	ENDS
PUBLIC	?changeNumResourcesOnLand@CvMap@@QAEXW4ResourceTypes@@H@Z ; CvMap::changeNumResourcesOnLand
; Function compile flags: /Ogtpy
;	COMDAT ?changeNumResourcesOnLand@CvMap@@QAEXW4ResourceTypes@@H@Z
_TEXT	SEGMENT
_eIndex$ = 8						; size = 4
_iChange$ = 12						; size = 4
?changeNumResourcesOnLand@CvMap@@QAEXW4ResourceTypes@@H@Z PROC ; CvMap::changeNumResourcesOnLand, COMDAT
; _this$ = ecx

; 1411 : 	CvAssertMsg(eIndex >= 0, "eIndex is expected to be non-negative (invalid Index)");
; 1412 : 	CvAssertMsg(eIndex < GC.getNumResourceInfos(), "eIndex is expected to be within maximum bounds (invalid Index)");
; 1413 : 	m_paiNumResourceOnLand[eIndex] = (m_paiNumResourceOnLand[eIndex] + iChange);

	mov	eax, DWORD PTR [ecx+4064]
	mov	ecx, DWORD PTR _eIndex$[esp-4]
	mov	edx, DWORD PTR _iChange$[esp-4]
	add	DWORD PTR [eax+ecx*4], edx
	lea	eax, DWORD PTR [eax+ecx*4]

; 1414 : 	CvAssert(getNumResourcesOnLand(eIndex) >= 0);
; 1415 : }

	ret	8
?changeNumResourcesOnLand@CvMap@@QAEXW4ResourceTypes@@H@Z ENDP ; CvMap::changeNumResourcesOnLand
_TEXT	ENDS
PUBLIC	?getArea@CvMap@@QAEPAVCvArea@@H@Z		; CvMap::getArea
; Function compile flags: /Ogtpy
;	COMDAT ?getArea@CvMap@@QAEPAVCvArea@@H@Z
_TEXT	SEGMENT
_iID$ = 8						; size = 4
?getArea@CvMap@@QAEPAVCvArea@@H@Z PROC			; CvMap::getArea, COMDAT
; _this$ = ecx

; 1455 : 	return m_areas.GetAt(iID);

	add	ecx, 4112				; 00001010H
	mov	eax, DWORD PTR [ecx]
	mov	eax, DWORD PTR [eax+16]
	jmp	eax
?getArea@CvMap@@QAEPAVCvArea@@H@Z ENDP			; CvMap::getArea
_TEXT	ENDS
PUBLIC	?GetNumNaturalWonders@CvMap@@QBEHXZ		; CvMap::GetNumNaturalWonders
; Function compile flags: /Ogtpy
;	COMDAT ?GetNumNaturalWonders@CvMap@@QBEHXZ
_TEXT	SEGMENT
?GetNumNaturalWonders@CvMap@@QBEHXZ PROC		; CvMap::GetNumNaturalWonders, COMDAT
; _this$ = ecx

; 1752 : 	return m_iNumNaturalWonders;

	mov	eax, DWORD PTR [ecx+4048]

; 1753 : }

	ret	0
?GetNumNaturalWonders@CvMap@@QBEHXZ ENDP		; CvMap::GetNumNaturalWonders
_TEXT	ENDS
PUBLIC	?ChangeNumNaturalWonders@CvMap@@QAEXH@Z		; CvMap::ChangeNumNaturalWonders
; Function compile flags: /Ogtpy
;	COMDAT ?ChangeNumNaturalWonders@CvMap@@QAEXH@Z
_TEXT	SEGMENT
_iChange$ = 8						; size = 4
?ChangeNumNaturalWonders@CvMap@@QAEXH@Z PROC		; CvMap::ChangeNumNaturalWonders, COMDAT
; _this$ = ecx

; 1759 : 	m_iNumNaturalWonders += iChange;

	mov	eax, DWORD PTR _iChange$[esp-4]
	add	DWORD PTR [ecx+4048], eax

; 1760 : }

	ret	4
?ChangeNumNaturalWonders@CvMap@@QAEXH@Z ENDP		; CvMap::ChangeNumNaturalWonders
_TEXT	ENDS
PUBLIC	?getLandmass@CvMap@@QAEPAVCvLandmass@@H@Z	; CvMap::getLandmass
; Function compile flags: /Ogtpy
;	COMDAT ?getLandmass@CvMap@@QAEPAVCvLandmass@@H@Z
_TEXT	SEGMENT
_iID$ = 8						; size = 4
?getLandmass@CvMap@@QAEPAVCvLandmass@@H@Z PROC		; CvMap::getLandmass, COMDAT
; _this$ = ecx

; 2324 : 	return m_landmasses.GetAt(iID);

	add	ecx, 4140				; 0000102cH
	mov	eax, DWORD PTR [ecx]
	mov	eax, DWORD PTR [eax+16]
	jmp	eax
?getLandmass@CvMap@@QAEPAVCvLandmass@@H@Z ENDP		; CvMap::getLandmass
_TEXT	ENDS
PUBLIC	?ChangeAIMapHint@CvMap@@QAEXH@Z			; CvMap::ChangeAIMapHint
; Function compile flags: /Ogtpy
;	COMDAT ?ChangeAIMapHint@CvMap@@QAEXH@Z
_TEXT	SEGMENT
_iMapHint$ = 8						; size = 4
?ChangeAIMapHint@CvMap@@QAEXH@Z PROC			; CvMap::ChangeAIMapHint, COMDAT
; _this$ = ecx

; 2473 : 	m_iAIMapHints |= iMapHint;

	mov	eax, DWORD PTR _iMapHint$[esp-4]
	or	DWORD PTR [ecx+4052], eax

; 2474 : }

	ret	4
?ChangeAIMapHint@CvMap@@QAEXH@Z ENDP			; CvMap::ChangeAIMapHint
_TEXT	ENDS
PUBLIC	?GetAIMapHint@CvMap@@QAEHXZ			; CvMap::GetAIMapHint
; Function compile flags: /Ogtpy
;	COMDAT ?GetAIMapHint@CvMap@@QAEHXZ
_TEXT	SEGMENT
?GetAIMapHint@CvMap@@QAEHXZ PROC			; CvMap::GetAIMapHint, COMDAT
; _this$ = ecx

; 2479 : 	return m_iAIMapHints;

	mov	eax, DWORD PTR [ecx+4052]

; 2480 : }

	ret	0
?GetAIMapHint@CvMap@@QAEHXZ ENDP			; CvMap::GetAIMapHint
_TEXT	ENDS
PUBLIC	??A?$BaseVector@PAVCvPlot@@$00@@QAEAAPAVCvPlot@@I@Z ; BaseVector<CvPlot *,1>::operator[]
; Function compile flags: /Ogtpy
; File c:\users\enormousapplepie\documents\github\lekmod\lekmod_dll\fireplace\include\fireworks\ffastvector.h
;	COMDAT ??A?$BaseVector@PAVCvPlot@@$00@@QAEAAPAVCvPlot@@I@Z
_TEXT	SEGMENT
_ui$ = 8						; size = 4
??A?$BaseVector@PAVCvPlot@@$00@@QAEAAPAVCvPlot@@I@Z PROC ; BaseVector<CvPlot *,1>::operator[], COMDAT
; _this$ = ecx

; 129  : 		FAssert(ui < m_uiCurrSize);
; 130  : 		return m_pData[ui];

	mov	eax, DWORD PTR [ecx]
	mov	ecx, DWORD PTR _ui$[esp-4]
	lea	eax, DWORD PTR [eax+ecx*4]

; 131  : 	};

	ret	4
??A?$BaseVector@PAVCvPlot@@$00@@QAEAAPAVCvPlot@@I@Z ENDP ; BaseVector<CvPlot *,1>::operator[]
_TEXT	ENDS
PUBLIC	?size@?$BaseVector@PAVCvPlot@@$00@@QBEIXZ	; BaseVector<CvPlot *,1>::size
; Function compile flags: /Ogtpy
;	COMDAT ?size@?$BaseVector@PAVCvPlot@@$00@@QBEIXZ
_TEXT	SEGMENT
?size@?$BaseVector@PAVCvPlot@@$00@@QBEIXZ PROC		; BaseVector<CvPlot *,1>::size, COMDAT
; _this$ = ecx

; 169  : 		return m_uiCurrSize;

	mov	eax, DWORD PTR [ecx+4]

; 170  : 	};

	ret	0
?size@?$BaseVector@PAVCvPlot@@$00@@QBEIXZ ENDP		; BaseVector<CvPlot *,1>::size
_TEXT	ENDS
PUBLIC	?GetIndexAfterLast@?$FFreeListArrayBase@VCvArea@@@@QAEHXZ ; FFreeListArrayBase<CvArea>::GetIndexAfterLast
; Function compile flags: /Ogtpy
; File c:\users\enormousapplepie\documents\github\lekmod\lekmod_dll\fireplace\include\fireworks\ffreelistarraybase.h
;	COMDAT ?GetIndexAfterLast@?$FFreeListArrayBase@VCvArea@@@@QAEHXZ
_TEXT	SEGMENT
?GetIndexAfterLast@?$FFreeListArrayBase@VCvArea@@@@QAEHXZ PROC ; FFreeListArrayBase<CvArea>::GetIndexAfterLast, COMDAT
; _this$ = ecx

; 56   : 	int GetIndexAfterLast()	{	return m_iLastIndex + 1;	}

	mov	eax, DWORD PTR [ecx+12]
	inc	eax
	ret	0
?GetIndexAfterLast@?$FFreeListArrayBase@VCvArea@@@@QAEHXZ ENDP ; FFreeListArrayBase<CvArea>::GetIndexAfterLast
_TEXT	ENDS
PUBLIC	?GetCount@?$FFreeListArrayBase@VCvArea@@@@QBEHXZ ; FFreeListArrayBase<CvArea>::GetCount
; Function compile flags: /Ogtpy
;	COMDAT ?GetCount@?$FFreeListArrayBase@VCvArea@@@@QBEHXZ
_TEXT	SEGMENT
?GetCount@?$FFreeListArrayBase@VCvArea@@@@QBEHXZ PROC	; FFreeListArrayBase<CvArea>::GetCount, COMDAT
; _this$ = ecx

; 74   : 	int GetCount()	const {	return m_iLastIndex - m_iFreeListCount + 1;	}

	mov	eax, DWORD PTR [ecx+12]
	sub	eax, DWORD PTR [ecx+8]
	inc	eax
	ret	0
?GetCount@?$FFreeListArrayBase@VCvArea@@@@QBEHXZ ENDP	; FFreeListArrayBase<CvArea>::GetCount
_TEXT	ENDS
PUBLIC	?GetIndexAfterLast@?$FFreeListArrayBase@VCvLandmass@@@@QAEHXZ ; FFreeListArrayBase<CvLandmass>::GetIndexAfterLast
; Function compile flags: /Ogtpy
;	COMDAT ?GetIndexAfterLast@?$FFreeListArrayBase@VCvLandmass@@@@QAEHXZ
_TEXT	SEGMENT
?GetIndexAfterLast@?$FFreeListArrayBase@VCvLandmass@@@@QAEHXZ PROC ; FFreeListArrayBase<CvLandmass>::GetIndexAfterLast, COMDAT
; _this$ = ecx

; 56   : 	int GetIndexAfterLast()	{	return m_iLastIndex + 1;	}

	mov	eax, DWORD PTR [ecx+12]
	inc	eax
	ret	0
?GetIndexAfterLast@?$FFreeListArrayBase@VCvLandmass@@@@QAEHXZ ENDP ; FFreeListArrayBase<CvLandmass>::GetIndexAfterLast
_TEXT	ENDS
PUBLIC	?GetCount@?$FFreeListArrayBase@VCvLandmass@@@@QBEHXZ ; FFreeListArrayBase<CvLandmass>::GetCount
; Function compile flags: /Ogtpy
;	COMDAT ?GetCount@?$FFreeListArrayBase@VCvLandmass@@@@QBEHXZ
_TEXT	SEGMENT
?GetCount@?$FFreeListArrayBase@VCvLandmass@@@@QBEHXZ PROC ; FFreeListArrayBase<CvLandmass>::GetCount, COMDAT
; _this$ = ecx

; 74   : 	int GetCount()	const {	return m_iLastIndex - m_iFreeListCount + 1;	}

	mov	eax, DWORD PTR [ecx+12]
	sub	eax, DWORD PTR [ecx+8]
	inc	eax
	ret	0
?GetCount@?$FFreeListArrayBase@VCvLandmass@@@@QBEHXZ ENDP ; FFreeListArrayBase<CvLandmass>::GetCount
_TEXT	ENDS
PUBLIC	??A?$BaseVector@UTradeConnection@@$0A@@@QAEAAUTradeConnection@@I@Z ; BaseVector<TradeConnection,0>::operator[]
; Function compile flags: /Ogtpy
; File c:\users\enormousapplepie\documents\github\lekmod\lekmod_dll\fireplace\include\fireworks\ffastvector.h
;	COMDAT ??A?$BaseVector@UTradeConnection@@$0A@@@QAEAAUTradeConnection@@I@Z
_TEXT	SEGMENT
_ui$ = 8						; size = 4
??A?$BaseVector@UTradeConnection@@$0A@@@QAEAAUTradeConnection@@I@Z PROC ; BaseVector<TradeConnection,0>::operator[], COMDAT
; _this$ = ecx

; 129  : 		FAssert(ui < m_uiCurrSize);
; 130  : 		return m_pData[ui];

	mov	eax, DWORD PTR _ui$[esp-4]
	imul	eax, 444				; 000001bcH
	add	eax, DWORD PTR [ecx]

; 131  : 	};

	ret	4
??A?$BaseVector@UTradeConnection@@$0A@@@QAEAAUTradeConnection@@I@Z ENDP ; BaseVector<TradeConnection,0>::operator[]
_TEXT	ENDS
PUBLIC	?size@?$BaseVector@UTradeConnection@@$0A@@@QBEIXZ ; BaseVector<TradeConnection,0>::size
; Function compile flags: /Ogtpy
;	COMDAT ?size@?$BaseVector@UTradeConnection@@$0A@@@QBEIXZ
_TEXT	SEGMENT
?size@?$BaseVector@UTradeConnection@@$0A@@@QBEIXZ PROC	; BaseVector<TradeConnection,0>::size, COMDAT
; _this$ = ecx

; 169  : 		return m_uiCurrSize;

	mov	eax, DWORD PTR [ecx+4]

; 170  : 	};

	ret	0
?size@?$BaseVector@UTradeConnection@@$0A@@@QBEIXZ ENDP	; BaseVector<TradeConnection,0>::size
_TEXT	ENDS
PUBLIC	??0?$ArrayWrapper@E@@QAE@HPAE@Z			; ArrayWrapper<unsigned char>::ArrayWrapper<unsigned char>
; Function compile flags: /Ogtpy
; File c:\users\enormousapplepie\documents\github\lekmod\lekmod_dll\fireplace\include\fireworks\fdatastream.h
;	COMDAT ??0?$ArrayWrapper@E@@QAE@HPAE@Z
_TEXT	SEGMENT
_count$ = 8						; size = 4
_values$ = 12						; size = 4
??0?$ArrayWrapper@E@@QAE@HPAE@Z PROC			; ArrayWrapper<unsigned char>::ArrayWrapper<unsigned char>, COMDAT
; _this$ = ecx

; 378  : 		: m_values(values), m_count(count) {}

	mov	edx, DWORD PTR _count$[esp-4]
	mov	eax, ecx
	mov	ecx, DWORD PTR _values$[esp-4]
	mov	DWORD PTR [eax], ecx
	mov	DWORD PTR [eax+4], edx
	ret	8
??0?$ArrayWrapper@E@@QAE@HPAE@Z ENDP			; ArrayWrapper<unsigned char>::ArrayWrapper<unsigned char>
_TEXT	ENDS
PUBLIC	??0?$ArrayWrapper@$$CBE@@QAE@HPBE@Z		; ArrayWrapper<unsigned char const >::ArrayWrapper<unsigned char const >
; Function compile flags: /Ogtpy
;	COMDAT ??0?$ArrayWrapper@$$CBE@@QAE@HPBE@Z
_TEXT	SEGMENT
_count$ = 8						; size = 4
_values$ = 12						; size = 4
??0?$ArrayWrapper@$$CBE@@QAE@HPBE@Z PROC		; ArrayWrapper<unsigned char const >::ArrayWrapper<unsigned char const >, COMDAT
; _this$ = ecx

; 378  : 		: m_values(values), m_count(count) {}

	mov	edx, DWORD PTR _count$[esp-4]
	mov	eax, ecx
	mov	ecx, DWORD PTR _values$[esp-4]
	mov	DWORD PTR [eax], ecx
	mov	DWORD PTR [eax+4], edx
	ret	8
??0?$ArrayWrapper@$$CBE@@QAE@HPBE@Z ENDP		; ArrayWrapper<unsigned char const >::ArrayWrapper<unsigned char const >
_TEXT	ENDS
PUBLIC	??1?$BaseVector@PAVCvPlot@@$00@@QAE@XZ		; BaseVector<CvPlot *,1>::~BaseVector<CvPlot *,1>
; Function compile flags: /Ogtpy
; File c:\users\enormousapplepie\documents\github\lekmod\lekmod_dll\fireplace\include\fireworks\ffastvector.h
;	COMDAT ??1?$BaseVector@PAVCvPlot@@$00@@QAE@XZ
_TEXT	SEGMENT
??1?$BaseVector@PAVCvPlot@@$00@@QAE@XZ PROC		; BaseVector<CvPlot *,1>::~BaseVector<CvPlot *,1>, COMDAT
; _this$ = ecx

; 111  : 	~BaseVector(){};

	ret	0
??1?$BaseVector@PAVCvPlot@@$00@@QAE@XZ ENDP		; BaseVector<CvPlot *,1>::~BaseVector<CvPlot *,1>
_TEXT	ENDS
PUBLIC	??0?$BaseVector@PAVCvPlot@@$00@@IAE@XZ		; BaseVector<CvPlot *,1>::BaseVector<CvPlot *,1>
; Function compile flags: /Ogtpy
;	COMDAT ??0?$BaseVector@PAVCvPlot@@$00@@IAE@XZ
_TEXT	SEGMENT
??0?$BaseVector@PAVCvPlot@@$00@@IAE@XZ PROC		; BaseVector<CvPlot *,1>::BaseVector<CvPlot *,1>, COMDAT
; _this$ = ecx

; 216  : 	BaseVector() : m_uiCurrSize(0), m_uiCurrMaxSize(0), m_pData(NULL) {};

	mov	eax, ecx
	xor	ecx, ecx
	mov	DWORD PTR [eax], ecx
	mov	DWORD PTR [eax+4], ecx
	mov	DWORD PTR [eax+8], ecx
	ret	0
??0?$BaseVector@PAVCvPlot@@$00@@IAE@XZ ENDP		; BaseVector<CvPlot *,1>::BaseVector<CvPlot *,1>
_TEXT	ENDS
PUBLIC	?Destroy@?$BaseVector@PAVCvPlot@@$00@@IAEXPAPAVCvPlot@@I@Z ; BaseVector<CvPlot *,1>::Destroy
; Function compile flags: /Ogtpy
;	COMDAT ?Destroy@?$BaseVector@PAVCvPlot@@$00@@IAEXPAPAVCvPlot@@I@Z
_TEXT	SEGMENT
_pVal$ = 8						; size = 4
_uiNumElements$ = 12					; size = 4
?Destroy@?$BaseVector@PAVCvPlot@@$00@@IAEXPAPAVCvPlot@@I@Z PROC ; BaseVector<CvPlot *,1>::Destroy, COMDAT
; _this$ = ecx

; 221  : 		if( !bPODType){
; 222  : 			for(unsigned int i = 0; i < uiNumElements; ++i){
; 223  : 				pVal[i].~T();
; 224  : 			}
; 225  : 		}
; 226  : 	};

	ret	8
?Destroy@?$BaseVector@PAVCvPlot@@$00@@IAEXPAPAVCvPlot@@I@Z ENDP ; BaseVector<CvPlot *,1>::Destroy
_TEXT	ENDS
PUBLIC	??_C@_0GH@ECFAPJEJ@c?3?2users?2enormousapplepie?2docume@ ; `string'
PUBLIC	?Alloc@?$FStaticVector@PAVCvPlot@@$0DOI@$00$0BCJ@$00@@IAEPAPAVCvPlot@@I@Z ; FStaticVector<CvPlot *,1000,1,297,1>::Alloc
EXTRN	?FireMallocAlignedNoTracking@@YAPAXIIPBDH@Z:PROC ; FireMallocAlignedNoTracking
;	COMDAT ??_C@_0GH@ECFAPJEJ@c?3?2users?2enormousapplepie?2docume@
CONST	SEGMENT
??_C@_0GH@ECFAPJEJ@c?3?2users?2enormousapplepie?2docume@ DB 'c:\users\eno'
	DB	'rmousapplepie\documents\github\lekmod\lekmod_dll\fireplace\in'
	DB	'clude\fireworks\FFastVector.h', 00H		; `string'
; Function compile flags: /Ogtpy
CONST	ENDS
;	COMDAT ?Alloc@?$FStaticVector@PAVCvPlot@@$0DOI@$00$0BCJ@$00@@IAEPAPAVCvPlot@@I@Z
_TEXT	SEGMENT
_uiSize$ = 8						; size = 4
?Alloc@?$FStaticVector@PAVCvPlot@@$0DOI@$00$0BCJ@$00@@IAEPAPAVCvPlot@@I@Z PROC ; FStaticVector<CvPlot *,1000,1,297,1>::Alloc, COMDAT
; _this$ = ecx

; 795  : 	T* Alloc(unsigned int uiSize){

	push	esi
	push	edi

; 796  : 		T* pRet;
; 797  : 		if( uiSize > L ){

	mov	edi, DWORD PTR _uiSize$[esp+4]
	mov	esi, ecx
	cmp	edi, 1000				; 000003e8H
	jbe	SHORT $LN2@Alloc

; 798  : 			pRet = (T*)FMALLOCALIGNED( uiSize*sizeof(T), __alignof(T), AllocPool, nSubID );

	push	798					; 0000031eH
	push	OFFSET ??_C@_0GH@ECFAPJEJ@c?3?2users?2enormousapplepie?2docume@
	lea	eax, DWORD PTR [edi*4]
	push	4
	push	eax
	call	?FireMallocAlignedNoTracking@@YAPAXIIPBDH@Z ; FireMallocAlignedNoTracking
	add	esp, 16					; 00000010H

; 799  : 			m_uiCurrMaxSize = uiSize;

	mov	DWORD PTR [esi+8], edi
	pop	edi
	pop	esi

; 803  : 		}
; 804  : 		return pRet;
; 805  : 	};

	ret	4
$LN2@Alloc:
	pop	edi

; 800  : 		}else{
; 801  : 			pRet = (T*)m_aData;

	lea	eax, DWORD PTR [esi+12]

; 802  : 			m_uiCurrMaxSize = L;

	mov	DWORD PTR [esi+8], 1000			; 000003e8H
	pop	esi

; 803  : 		}
; 804  : 		return pRet;
; 805  : 	};

	ret	4
?Alloc@?$FStaticVector@PAVCvPlot@@$0DOI@$00$0BCJ@$00@@IAEPAPAVCvPlot@@I@Z ENDP ; FStaticVector<CvPlot *,1000,1,297,1>::Alloc
_TEXT	ENDS
PUBLIC	?Free@?$FStaticVector@PAVCvPlot@@$0DOI@$00$0BCJ@$00@@IAEXPAPAVCvPlot@@I@Z ; FStaticVector<CvPlot *,1000,1,297,1>::Free
EXTRN	?FireFreeAlignedNoTracking@@YAXPAX@Z:PROC	; FireFreeAlignedNoTracking
; Function compile flags: /Ogtpy
;	COMDAT ?Free@?$FStaticVector@PAVCvPlot@@$0DOI@$00$0BCJ@$00@@IAEXPAPAVCvPlot@@I@Z
_TEXT	SEGMENT
_pVal$ = 8						; size = 4
_uiNumElements$ = 12					; size = 4
?Free@?$FStaticVector@PAVCvPlot@@$0DOI@$00$0BCJ@$00@@IAEXPAPAVCvPlot@@I@Z PROC ; FStaticVector<CvPlot *,1000,1,297,1>::Free, COMDAT
; _this$ = ecx

; 810  : 		if( !bPODType) Destroy(pVal, uiNumElements);
; 811  : 		if( pVal != (T*)m_aData )

	mov	eax, DWORD PTR _pVal$[esp-4]
	add	ecx, 12					; 0000000cH
	cmp	eax, ecx
	je	SHORT $LN1@Free

; 812  : 			FFREEALIGNED( (unsigned char*)pVal );

	push	eax
	call	?FireFreeAlignedNoTracking@@YAXPAX@Z	; FireFreeAlignedNoTracking
	pop	ecx
$LN1@Free:

; 813  : 	};

	ret	8
?Free@?$FStaticVector@PAVCvPlot@@$0DOI@$00$0BCJ@$00@@IAEXPAPAVCvPlot@@I@Z ENDP ; FStaticVector<CvPlot *,1000,1,297,1>::Free
_TEXT	ENDS
PUBLIC	?Add@?$FFreeListTrashArray@VCvArea@@@@QAEPAVCvArea@@XZ ; FFreeListTrashArray<CvArea>::Add
EXTRN	?SetID@CvArea@@QAEXH@Z:PROC			; CvArea::SetID
EXTRN	??0CvArea@@QAE@XZ:PROC				; CvArea::CvArea
EXTRN	??2@YAPAXI@Z:PROC				; operator new
EXTRN	___CxxFrameHandler3:PROC
;	COMDAT xdata$x
; File c:\users\enormousapplepie\documents\github\lekmod\lekmod_dll\fireplace\include\fireworks\ffreelisttrasharray.h
xdata$x	SEGMENT
__unwindtable$?Add@?$FFreeListTrashArray@VCvArea@@@@QAEPAVCvArea@@XZ DD 0ffffffffH
	DD	FLAT:__unwindfunclet$?Add@?$FFreeListTrashArray@VCvArea@@@@QAEPAVCvArea@@XZ$0
__ehfuncinfo$?Add@?$FFreeListTrashArray@VCvArea@@@@QAEPAVCvArea@@XZ DD 019930522H
	DD	01H
	DD	FLAT:__unwindtable$?Add@?$FFreeListTrashArray@VCvArea@@@@QAEPAVCvArea@@XZ
	DD	2 DUP(00H)
	DD	2 DUP(00H)
	DD	00H
	DD	01H
; Function compile flags: /Ogtpy
xdata$x	ENDS
;	COMDAT ?Add@?$FFreeListTrashArray@VCvArea@@@@QAEPAVCvArea@@XZ
_TEXT	SEGMENT
$T237999 = -16						; size = 4
__$EHRec$ = -12						; size = 12
?Add@?$FFreeListTrashArray@VCvArea@@@@QAEPAVCvArea@@XZ PROC ; FFreeListTrashArray<CvArea>::Add, COMDAT
; _this$ = ecx

; 204  : {

	push	-1
	push	__ehhandler$?Add@?$FFreeListTrashArray@VCvArea@@@@QAEPAVCvArea@@XZ
	mov	eax, DWORD PTR fs:0
	push	eax
	mov	DWORD PTR fs:0, esp
	push	ecx
	push	esi
	mov	esi, ecx

; 205  : 	int iIndex;
; 206  : 
; 207  : 	if (m_pArray == NULL) 

	cmp	DWORD PTR [esi+24], 0
	jne	SHORT $LN5@Add

; 208  : 	{
; 209  : 		Init();

	mov	eax, DWORD PTR [esi]
	mov	edx, DWORD PTR [eax+4]
	push	8
	call	edx
$LN5@Add:

; 210  : 	}
; 211  : 
; 212  : 	if ((this->m_iLastIndex == this->m_iNumSlots - 1) &&
; 213  : 		(this->m_iFreeListCount == 0))

	mov	eax, DWORD PTR [esi+16]
	lea	ecx, DWORD PTR [eax-1]
	cmp	DWORD PTR [esi+12], ecx
	jne	SHORT $LN4@Add
	cmp	DWORD PTR [esi+8], 0
	jne	SHORT $LN4@Add

; 214  : 	{
; 215  : 		if ((this->m_iNumSlots * FLTA_GROWTH_FACTOR) > FLTA_MAX_BUCKETS)

	lea	edx, DWORD PTR [eax+eax]
	cmp	edx, 8192				; 00002000H
	jle	SHORT $LN3@Add

; 216  : 		{
; 217  : 			return NULL;

	xor	eax, eax
	pop	esi

; 242  : }

	mov	ecx, DWORD PTR __$EHRec$[esp+16]
	mov	DWORD PTR fs:0, ecx
	add	esp, 16					; 00000010H
	ret	0
$LN3@Add:

; 218  : 		}
; 219  : 
; 220  : 		GrowArray();

	mov	eax, DWORD PTR [esi]
	mov	edx, DWORD PTR [eax+24]
	mov	ecx, esi
	call	edx
$LN4@Add:

; 221  : 	}
; 222  : 
; 223  : 	if (this->m_iFreeListCount > 0)

	mov	eax, DWORD PTR [esi+8]
	push	edi
	test	eax, eax
	jle	SHORT $LN2@Add

; 224  : 	{
; 225  : 		iIndex = this->m_iFreeListHead;

	mov	edi, DWORD PTR [esi+4]

; 226  : 		this->m_iFreeListHead = m_pArray[this->m_iFreeListHead].iNextFreeIndex;

	mov	ecx, DWORD PTR [esi+24]
	mov	edx, DWORD PTR [ecx+edi*8]

; 227  : 		this->m_iFreeListCount--;

	dec	eax
	mov	DWORD PTR [esi+4], edx
	mov	DWORD PTR [esi+8], eax

; 228  : 	}
; 229  : 	else

	jmp	SHORT $LN1@Add
$LN2@Add:

; 230  : 	{
; 231  : 		this->m_iLastIndex++;

	inc	DWORD PTR [esi+12]
	mov	edi, DWORD PTR [esi+12]
$LN1@Add:

; 232  : 		iIndex = this->m_iLastIndex;
; 233  : 	}
; 234  : 
; 235  : 	m_pArray[iIndex].pData = FNEW( T, c_eMPoolTypeContainer, 0 );

	push	4232					; 00001088H
	call	??2@YAPAXI@Z				; operator new
	add	esp, 4
	mov	DWORD PTR $T237999[esp+24], eax
	mov	DWORD PTR __$EHRec$[esp+32], 0
	test	eax, eax
	je	SHORT $LN8@Add
	mov	ecx, eax
	call	??0CvArea@@QAE@XZ			; CvArea::CvArea
	jmp	SHORT $LN9@Add
$LN8@Add:
	xor	eax, eax
$LN9@Add:
	mov	ecx, DWORD PTR [esi+24]
	mov	DWORD PTR [ecx+edi*8+4], eax

; 236  : 	m_pArray[iIndex].iNextFreeIndex = FFreeList::INVALID_INDEX;

	mov	edx, DWORD PTR [esi+24]
	mov	DWORD PTR [edx+edi*8], -1

; 237  : 
; 238  : 	m_pArray[iIndex].pData->SetID(m_iCurrentID + iIndex);

	mov	eax, DWORD PTR [esi+20]
	mov	ecx, DWORD PTR [esi+24]
	mov	ecx, DWORD PTR [ecx+edi*8+4]
	add	eax, edi
	push	eax
	mov	DWORD PTR __$EHRec$[esp+36], -1
	call	?SetID@CvArea@@QAEXH@Z			; CvArea::SetID

; 239  : 	m_iCurrentID += FLTA_MAX_BUCKETS;
; 240  : 
; 241  : 	return m_pArray[iIndex].pData;

	mov	edx, DWORD PTR [esi+24]
	add	DWORD PTR [esi+20], 8192		; 00002000H
	mov	eax, DWORD PTR [edx+edi*8+4]

; 242  : }

	mov	ecx, DWORD PTR __$EHRec$[esp+24]
	pop	edi
	pop	esi
	mov	DWORD PTR fs:0, ecx
	add	esp, 16					; 00000010H
	ret	0
_TEXT	ENDS
;	COMDAT text$x
text$x	SEGMENT
__unwindfunclet$?Add@?$FFreeListTrashArray@VCvArea@@@@QAEPAVCvArea@@XZ$0:
	mov	eax, DWORD PTR $T237999[ebp]
	push	eax
	call	??3@YAXPAX@Z				; operator delete
	pop	ecx
	ret	0
__ehhandler$?Add@?$FFreeListTrashArray@VCvArea@@@@QAEPAVCvArea@@XZ:
	mov	eax, OFFSET __ehfuncinfo$?Add@?$FFreeListTrashArray@VCvArea@@@@QAEPAVCvArea@@XZ
	jmp	___CxxFrameHandler3
text$x	ENDS
?Add@?$FFreeListTrashArray@VCvArea@@@@QAEPAVCvArea@@XZ ENDP ; FFreeListTrashArray<CvArea>::Add
PUBLIC	?NextIter@?$FFreeListArrayBase@VCvArea@@@@QAEPAVCvArea@@PAH@Z ; FFreeListArrayBase<CvArea>::NextIter
; Function compile flags: /Ogtpy
; File c:\users\enormousapplepie\documents\github\lekmod\lekmod_dll\fireplace\include\fireworks\ffreelistarraybase.h
;	COMDAT ?NextIter@?$FFreeListArrayBase@VCvArea@@@@QAEPAVCvArea@@PAH@Z
_TEXT	SEGMENT
_pIterIdx$ = 8						; size = 4
?NextIter@?$FFreeListArrayBase@VCvArea@@@@QAEPAVCvArea@@PAH@Z PROC ; FFreeListArrayBase<CvArea>::NextIter, COMDAT
; _this$ = ecx

; 127  : {

	push	esi

; 128  : 	for( ; (*pIterIdx)<GetIndexAfterLast(); (*pIterIdx)++)

	mov	esi, DWORD PTR _pIterIdx$[esp]
	push	edi
	mov	edi, ecx
	mov	eax, DWORD PTR [edi+12]
	inc	eax
	cmp	DWORD PTR [esi], eax
	jge	SHORT $LN2@NextIter
$LL4@NextIter:

; 129  : 	{
; 130  : 		T* pObj = GetAt((*pIterIdx));

	mov	edx, DWORD PTR [edi]
	mov	eax, DWORD PTR [esi]
	mov	edx, DWORD PTR [edx+16]
	push	eax
	mov	ecx, edi
	call	edx
	inc	DWORD PTR [esi]

; 131  : 		if (pObj)

	test	eax, eax
	jne	SHORT $LN5@NextIter
	mov	eax, DWORD PTR [edi+12]
	inc	eax
	cmp	DWORD PTR [esi], eax
	jl	SHORT $LL4@NextIter
$LN2@NextIter:

; 132  : 		{
; 133  : 			(*pIterIdx)++;	// prime for next call
; 134  : 			return pObj;
; 135  : 		}
; 136  : 	}
; 137  : 	return NULL;

	xor	eax, eax
$LN5@NextIter:
	pop	edi
	pop	esi

; 138  : }

	ret	4
?NextIter@?$FFreeListArrayBase@VCvArea@@@@QAEPAVCvArea@@PAH@Z ENDP ; FFreeListArrayBase<CvArea>::NextIter
_TEXT	ENDS
PUBLIC	?PrevIter@?$FFreeListArrayBase@VCvArea@@@@QAEPAVCvArea@@PAH@Z ; FFreeListArrayBase<CvArea>::PrevIter
; Function compile flags: /Ogtpy
;	COMDAT ?PrevIter@?$FFreeListArrayBase@VCvArea@@@@QAEPAVCvArea@@PAH@Z
_TEXT	SEGMENT
_pIterIdx$ = 8						; size = 4
?PrevIter@?$FFreeListArrayBase@VCvArea@@@@QAEPAVCvArea@@PAH@Z PROC ; FFreeListArrayBase<CvArea>::PrevIter, COMDAT
; _this$ = ecx

; 151  : {

	push	esi

; 152  : 	for( ; (*pIterIdx)>=0; (*pIterIdx)--)

	mov	esi, DWORD PTR _pIterIdx$[esp]
	cmp	DWORD PTR [esi], 0
	push	edi
	mov	edi, ecx
	jl	SHORT $LN2@PrevIter
	npad	3
$LL4@PrevIter:

; 153  : 	{
; 154  : 		T* pObj = GetAt((*pIterIdx));

	mov	ecx, DWORD PTR [esi]
	mov	eax, DWORD PTR [edi]
	mov	edx, DWORD PTR [eax+16]
	push	ecx
	mov	ecx, edi
	call	edx
	dec	DWORD PTR [esi]

; 155  : 		if (pObj)

	test	eax, eax
	jne	SHORT $LN5@PrevIter

; 152  : 	for( ; (*pIterIdx)>=0; (*pIterIdx)--)

	cmp	DWORD PTR [esi], eax
	jge	SHORT $LL4@PrevIter
$LN2@PrevIter:

; 156  : 		{
; 157  : 			(*pIterIdx)--;	// prime for next call
; 158  : 			return pObj;
; 159  : 		}
; 160  : 	}
; 161  : 	return NULL;

	xor	eax, eax
$LN5@PrevIter:
	pop	edi
	pop	esi

; 162  : }

	ret	4
?PrevIter@?$FFreeListArrayBase@VCvArea@@@@QAEPAVCvArea@@PAH@Z ENDP ; FFreeListArrayBase<CvArea>::PrevIter
_TEXT	ENDS
PUBLIC	?Add@?$FFreeListTrashArray@VCvLandmass@@@@QAEPAVCvLandmass@@XZ ; FFreeListTrashArray<CvLandmass>::Add
; Function compile flags: /Ogtpy
; File c:\users\enormousapplepie\documents\github\lekmod\lekmod_dll\fireplace\include\fireworks\ffreelisttrasharray.h
;	COMDAT ?Add@?$FFreeListTrashArray@VCvLandmass@@@@QAEPAVCvLandmass@@XZ
_TEXT	SEGMENT
?Add@?$FFreeListTrashArray@VCvLandmass@@@@QAEPAVCvLandmass@@XZ PROC ; FFreeListTrashArray<CvLandmass>::Add, COMDAT
; _this$ = ecx

; 204  : {

	push	ebx
	push	esi
	mov	esi, ecx

; 205  : 	int iIndex;
; 206  : 
; 207  : 	if (m_pArray == NULL) 

	xor	ebx, ebx
	cmp	DWORD PTR [esi+24], ebx
	jne	SHORT $LN5@Add@2

; 208  : 	{
; 209  : 		Init();

	mov	eax, DWORD PTR [esi]
	mov	edx, DWORD PTR [eax+4]
	push	8
	call	edx
$LN5@Add@2:

; 210  : 	}
; 211  : 
; 212  : 	if ((this->m_iLastIndex == this->m_iNumSlots - 1) &&
; 213  : 		(this->m_iFreeListCount == 0))

	mov	eax, DWORD PTR [esi+16]
	lea	ecx, DWORD PTR [eax-1]
	cmp	DWORD PTR [esi+12], ecx
	jne	SHORT $LN4@Add@2
	cmp	DWORD PTR [esi+8], ebx
	jne	SHORT $LN4@Add@2

; 214  : 	{
; 215  : 		if ((this->m_iNumSlots * FLTA_GROWTH_FACTOR) > FLTA_MAX_BUCKETS)

	lea	edx, DWORD PTR [eax+eax]
	cmp	edx, 8192				; 00002000H
	jle	SHORT $LN3@Add@2
	pop	esi

; 216  : 		{
; 217  : 			return NULL;

	xor	eax, eax
	pop	ebx

; 242  : }

	ret	0
$LN3@Add@2:

; 218  : 		}
; 219  : 
; 220  : 		GrowArray();

	mov	eax, DWORD PTR [esi]
	mov	edx, DWORD PTR [eax+24]
	mov	ecx, esi
	call	edx
$LN4@Add@2:

; 221  : 	}
; 222  : 
; 223  : 	if (this->m_iFreeListCount > 0)

	mov	eax, DWORD PTR [esi+8]
	cmp	eax, ebx
	push	edi
	jle	SHORT $LN2@Add@2

; 224  : 	{
; 225  : 		iIndex = this->m_iFreeListHead;

	mov	edi, DWORD PTR [esi+4]

; 226  : 		this->m_iFreeListHead = m_pArray[this->m_iFreeListHead].iNextFreeIndex;

	mov	ecx, DWORD PTR [esi+24]
	mov	edx, DWORD PTR [ecx+edi*8]

; 227  : 		this->m_iFreeListCount--;

	dec	eax
	mov	DWORD PTR [esi+4], edx
	mov	DWORD PTR [esi+8], eax

; 228  : 	}
; 229  : 	else

	jmp	SHORT $LN1@Add@2
$LN2@Add@2:

; 230  : 	{
; 231  : 		this->m_iLastIndex++;

	inc	DWORD PTR [esi+12]
	mov	edi, DWORD PTR [esi+12]
$LN1@Add@2:

; 232  : 		iIndex = this->m_iLastIndex;
; 233  : 	}
; 234  : 
; 235  : 	m_pArray[iIndex].pData = FNEW( T, c_eMPoolTypeContainer, 0 );

	push	24					; 00000018H
	call	??2@YAPAXI@Z				; operator new
	add	esp, 4
	cmp	eax, ebx
	je	SHORT $LN8@Add@2
	mov	DWORD PTR [eax], OFFSET ??_7CvLandmass@@6B@
	mov	DWORD PTR [eax+4], -1
	mov	DWORD PTR [eax+8], ebx
	mov	BYTE PTR [eax+13], 1
	mov	BYTE PTR [eax+12], bl
	mov	DWORD PTR [eax+16], ebx
	mov	DWORD PTR [eax+20], ebx
	jmp	SHORT $LN9@Add@2
$LN8@Add@2:
	xor	eax, eax
$LN9@Add@2:
	mov	ecx, DWORD PTR [esi+24]
	mov	DWORD PTR [ecx+edi*8+4], eax

; 236  : 	m_pArray[iIndex].iNextFreeIndex = FFreeList::INVALID_INDEX;

	mov	edx, DWORD PTR [esi+24]
	mov	DWORD PTR [edx+edi*8], -1

; 237  : 
; 238  : 	m_pArray[iIndex].pData->SetID(m_iCurrentID + iIndex);

	mov	eax, DWORD PTR [esi+20]
	mov	ecx, DWORD PTR [esi+24]
	mov	edx, DWORD PTR [ecx+edi*8+4]
	add	eax, edi
	mov	DWORD PTR [edx+4], eax

; 239  : 	m_iCurrentID += FLTA_MAX_BUCKETS;
; 240  : 
; 241  : 	return m_pArray[iIndex].pData;

	mov	eax, DWORD PTR [esi+24]
	add	DWORD PTR [esi+20], 8192		; 00002000H
	mov	eax, DWORD PTR [eax+edi*8+4]
	pop	edi
	pop	esi
	pop	ebx

; 242  : }

	ret	0
?Add@?$FFreeListTrashArray@VCvLandmass@@@@QAEPAVCvLandmass@@XZ ENDP ; FFreeListTrashArray<CvLandmass>::Add
_TEXT	ENDS
PUBLIC	?RemoveAt@?$FFreeListTrashArray@VCvLandmass@@@@QAE_NH@Z ; FFreeListTrashArray<CvLandmass>::RemoveAt
; Function compile flags: /Ogtpy
;	COMDAT ?RemoveAt@?$FFreeListTrashArray@VCvLandmass@@@@QAE_NH@Z
_TEXT	SEGMENT
_iID$ = 8						; size = 4
?RemoveAt@?$FFreeListTrashArray@VCvLandmass@@@@QAE_NH@Z PROC ; FFreeListTrashArray<CvLandmass>::RemoveAt, COMDAT
; _this$ = ecx

; 322  : 	int iIndex;
; 323  : 
; 324  : 	if ((iID == FFreeList::INVALID_INDEX) || (m_pArray == NULL))

	mov	edx, DWORD PTR _iID$[esp-4]
	push	esi
	mov	esi, ecx
	cmp	edx, -1
	je	SHORT $LN5@RemoveAt
	mov	eax, DWORD PTR [esi+24]
	test	eax, eax
	je	SHORT $LN5@RemoveAt
	push	edi

; 327  : 	}
; 328  : 
; 329  : 	iIndex = (iID & FLTA_INDEX_MASK);

	mov	edi, edx
	and	edi, 8191				; 00001fffH

; 330  : 
; 331  : 	assert(iIndex >= 0);
; 332  : 
; 333  : 	if ((iIndex <= this->m_iLastIndex) && 
; 334  : 		(m_pArray[iIndex].pData != NULL))

	cmp	edi, DWORD PTR [esi+12]
	jg	SHORT $LN3@RemoveAt
	mov	ecx, DWORD PTR [eax+edi*8+4]
	test	ecx, ecx
	je	SHORT $LN3@RemoveAt

; 335  : 	{
; 336  : 		if (((iID & FLTA_ID_MASK) == 0) || (m_pArray[iIndex].pData->GetID() == iID))

	test	edx, -8192				; ffffe000H
	je	SHORT $LN2@RemoveAt
	cmp	DWORD PTR [ecx+4], edx
	jne	SHORT $LN3@RemoveAt
$LN2@RemoveAt:

; 337  : 		{
; 338  : 			delete m_pArray[iIndex].pData;

	mov	eax, DWORD PTR [ecx]
	mov	edx, DWORD PTR [eax]
	push	1
	call	edx

; 339  : 			m_pArray[iIndex].pData = NULL;

	mov	eax, DWORD PTR [esi+24]
	mov	DWORD PTR [eax+edi*8+4], 0

; 340  : 
; 341  : 			m_pArray[iIndex].iNextFreeIndex = this->m_iFreeListHead;

	mov	edx, DWORD PTR [esi+4]
	mov	ecx, DWORD PTR [esi+24]
	mov	DWORD PTR [ecx+edi*8], edx

; 342  : 			this->m_iFreeListHead = iIndex;
; 343  : 			this->m_iFreeListCount++;

	inc	DWORD PTR [esi+8]
	mov	DWORD PTR [esi+4], edi
	pop	edi

; 344  : 
; 345  : 			return true;

	mov	al, 1
	pop	esi

; 354  : }

	ret	4
$LN3@RemoveAt:
	pop	edi

; 346  : 		}
; 347  : 		else
; 348  : 		{
; 349  : 			assert(false);
; 350  : 		}
; 351  : 	}
; 352  : 
; 353  : 	return false;

	xor	al, al
	pop	esi

; 354  : }

	ret	4
$LN5@RemoveAt:

; 325  : 	{
; 326  : 		return false;

	xor	al, al
	pop	esi

; 354  : }

	ret	4
?RemoveAt@?$FFreeListTrashArray@VCvLandmass@@@@QAE_NH@Z ENDP ; FFreeListTrashArray<CvLandmass>::RemoveAt
_TEXT	ENDS
PUBLIC	?NextIter@?$FFreeListArrayBase@VCvLandmass@@@@QAEPAVCvLandmass@@PAH@Z ; FFreeListArrayBase<CvLandmass>::NextIter
; Function compile flags: /Ogtpy
; File c:\users\enormousapplepie\documents\github\lekmod\lekmod_dll\fireplace\include\fireworks\ffreelistarraybase.h
;	COMDAT ?NextIter@?$FFreeListArrayBase@VCvLandmass@@@@QAEPAVCvLandmass@@PAH@Z
_TEXT	SEGMENT
_pIterIdx$ = 8						; size = 4
?NextIter@?$FFreeListArrayBase@VCvLandmass@@@@QAEPAVCvLandmass@@PAH@Z PROC ; FFreeListArrayBase<CvLandmass>::NextIter, COMDAT
; _this$ = ecx

; 127  : {

	push	esi

; 128  : 	for( ; (*pIterIdx)<GetIndexAfterLast(); (*pIterIdx)++)

	mov	esi, DWORD PTR _pIterIdx$[esp]
	push	edi
	mov	edi, ecx
	mov	eax, DWORD PTR [edi+12]
	inc	eax
	cmp	DWORD PTR [esi], eax
	jge	SHORT $LN2@NextIter@2
$LL4@NextIter@2:

; 129  : 	{
; 130  : 		T* pObj = GetAt((*pIterIdx));

	mov	edx, DWORD PTR [edi]
	mov	eax, DWORD PTR [esi]
	mov	edx, DWORD PTR [edx+16]
	push	eax
	mov	ecx, edi
	call	edx
	inc	DWORD PTR [esi]

; 131  : 		if (pObj)

	test	eax, eax
	jne	SHORT $LN5@NextIter@2
	mov	eax, DWORD PTR [edi+12]
	inc	eax
	cmp	DWORD PTR [esi], eax
	jl	SHORT $LL4@NextIter@2
$LN2@NextIter@2:

; 132  : 		{
; 133  : 			(*pIterIdx)++;	// prime for next call
; 134  : 			return pObj;
; 135  : 		}
; 136  : 	}
; 137  : 	return NULL;

	xor	eax, eax
$LN5@NextIter@2:
	pop	edi
	pop	esi

; 138  : }

	ret	4
?NextIter@?$FFreeListArrayBase@VCvLandmass@@@@QAEPAVCvLandmass@@PAH@Z ENDP ; FFreeListArrayBase<CvLandmass>::NextIter
_TEXT	ENDS
PUBLIC	?PrevIter@?$FFreeListArrayBase@VCvLandmass@@@@QAEPAVCvLandmass@@PAH@Z ; FFreeListArrayBase<CvLandmass>::PrevIter
; Function compile flags: /Ogtpy
;	COMDAT ?PrevIter@?$FFreeListArrayBase@VCvLandmass@@@@QAEPAVCvLandmass@@PAH@Z
_TEXT	SEGMENT
_pIterIdx$ = 8						; size = 4
?PrevIter@?$FFreeListArrayBase@VCvLandmass@@@@QAEPAVCvLandmass@@PAH@Z PROC ; FFreeListArrayBase<CvLandmass>::PrevIter, COMDAT
; _this$ = ecx

; 151  : {

	push	esi

; 152  : 	for( ; (*pIterIdx)>=0; (*pIterIdx)--)

	mov	esi, DWORD PTR _pIterIdx$[esp]
	cmp	DWORD PTR [esi], 0
	push	edi
	mov	edi, ecx
	jl	SHORT $LN2@PrevIter@2
	npad	3
$LL4@PrevIter@2:

; 153  : 	{
; 154  : 		T* pObj = GetAt((*pIterIdx));

	mov	ecx, DWORD PTR [esi]
	mov	eax, DWORD PTR [edi]
	mov	edx, DWORD PTR [eax+16]
	push	ecx
	mov	ecx, edi
	call	edx
	dec	DWORD PTR [esi]

; 155  : 		if (pObj)

	test	eax, eax
	jne	SHORT $LN5@PrevIter@2

; 152  : 	for( ; (*pIterIdx)>=0; (*pIterIdx)--)

	cmp	DWORD PTR [esi], eax
	jge	SHORT $LL4@PrevIter@2
$LN2@PrevIter@2:

; 156  : 		{
; 157  : 			(*pIterIdx)--;	// prime for next call
; 158  : 			return pObj;
; 159  : 		}
; 160  : 	}
; 161  : 	return NULL;

	xor	eax, eax
$LN5@PrevIter@2:
	pop	edi
	pop	esi

; 162  : }

	ret	4
?PrevIter@?$FFreeListArrayBase@VCvLandmass@@@@QAEPAVCvLandmass@@PAH@Z ENDP ; FFreeListArrayBase<CvLandmass>::PrevIter
_TEXT	ENDS
PUBLIC	??$max@H@std@@YAABHABH0@Z			; std::max<int>
; Function compile flags: /Ogtpy
; File c:\program files (x86)\microsoft visual studio 9.0\vc\include\xutility
;	COMDAT ??$max@H@std@@YAABHABH0@Z
_TEXT	SEGMENT
__Left$ = 8						; size = 4
__Right$ = 12						; size = 4
??$max@H@std@@YAABHABH0@Z PROC				; std::max<int>, COMDAT

; 3384 : 	return (_DEBUG_LT(_Left, _Right) ? _Right : _Left);

	mov	eax, DWORD PTR __Left$[esp-4]
	mov	edx, DWORD PTR [eax]
	mov	ecx, DWORD PTR __Right$[esp-4]
	cmp	edx, DWORD PTR [ecx]
	jge	SHORT $LN4@max
	mov	eax, ecx
$LN4@max:

; 3385 : 	}

	ret	0
??$max@H@std@@YAABHABH0@Z ENDP				; std::max<int>
_TEXT	ENDS
PUBLIC	??$SAFE_DELETE_ARRAY@H@@YAXAAPAH@Z		; SAFE_DELETE_ARRAY<int>
; Function compile flags: /Ogtpy
; File c:\users\enormousapplepie\documents\github\lekmod\lekmod_dll\fireplace\include\fireworks\ffiretypes.h
;	COMDAT ??$SAFE_DELETE_ARRAY@H@@YAXAAPAH@Z
_TEXT	SEGMENT
_pkInstanceArray$ = 8					; size = 4
??$SAFE_DELETE_ARRAY@H@@YAXAAPAH@Z PROC			; SAFE_DELETE_ARRAY<int>, COMDAT

; 311  : {

	push	esi

; 312  : 	delete[] pkInstanceArray;

	mov	esi, DWORD PTR _pkInstanceArray$[esp]
	mov	eax, DWORD PTR [esi]
	push	eax
	call	??_V@YAXPAX@Z				; operator delete[]
	add	esp, 4

; 313  : 	pkInstanceArray = NULL;

	mov	DWORD PTR [esi], 0
	pop	esi

; 314  : };

	ret	0
??$SAFE_DELETE_ARRAY@H@@YAXAAPAH@Z ENDP			; SAFE_DELETE_ARRAY<int>
_TEXT	ENDS
PUBLIC	??$SAFE_DELETE_ARRAY@VCvPlot@@@@YAXAAPAVCvPlot@@@Z ; SAFE_DELETE_ARRAY<CvPlot>
; Function compile flags: /Ogtpy
;	COMDAT ??$SAFE_DELETE_ARRAY@VCvPlot@@@@YAXAAPAVCvPlot@@@Z
_TEXT	SEGMENT
_pkInstanceArray$ = 8					; size = 4
??$SAFE_DELETE_ARRAY@VCvPlot@@@@YAXAAPAVCvPlot@@@Z PROC	; SAFE_DELETE_ARRAY<CvPlot>, COMDAT

; 311  : {

	push	edi

; 312  : 	delete[] pkInstanceArray;

	mov	edi, DWORD PTR _pkInstanceArray$[esp]
	mov	eax, DWORD PTR [edi]
	test	eax, eax
	je	SHORT $LN10@SAFE_DELET
	mov	ecx, DWORD PTR [eax-4]
	push	esi
	lea	esi, DWORD PTR [eax-4]
	push	OFFSET ??1CvPlot@@QAE@XZ		; CvPlot::~CvPlot
	push	ecx
	push	484					; 000001e4H
	push	eax
	call	??_M@YGXPAXIHP6EX0@Z@Z
	push	esi
	call	??_V@YAXPAX@Z				; operator delete[]
	add	esp, 4
	pop	esi
$LN10@SAFE_DELET:

; 313  : 	pkInstanceArray = NULL;

	mov	DWORD PTR [edi], 0
	pop	edi

; 314  : };

	ret	0
??$SAFE_DELETE_ARRAY@VCvPlot@@@@YAXAAPAVCvPlot@@@Z ENDP	; SAFE_DELETE_ARRAY<CvPlot>
_TEXT	ENDS
PUBLIC	??$SAFE_DELETE_ARRAY@F@@YAXAAPAF@Z		; SAFE_DELETE_ARRAY<short>
; Function compile flags: /Ogtpy
;	COMDAT ??$SAFE_DELETE_ARRAY@F@@YAXAAPAF@Z
_TEXT	SEGMENT
_pkInstanceArray$ = 8					; size = 4
??$SAFE_DELETE_ARRAY@F@@YAXAAPAF@Z PROC			; SAFE_DELETE_ARRAY<short>, COMDAT

; 311  : {

	push	esi

; 312  : 	delete[] pkInstanceArray;

	mov	esi, DWORD PTR _pkInstanceArray$[esp]
	mov	eax, DWORD PTR [esi]
	push	eax
	call	??_V@YAXPAX@Z				; operator delete[]
	add	esp, 4

; 313  : 	pkInstanceArray = NULL;

	mov	DWORD PTR [esi], 0
	pop	esi

; 314  : };

	ret	0
??$SAFE_DELETE_ARRAY@F@@YAXAAPAF@Z ENDP			; SAFE_DELETE_ARRAY<short>
_TEXT	ENDS
PUBLIC	??$SAFE_DELETE_ARRAY@D@@YAXAAPAD@Z		; SAFE_DELETE_ARRAY<char>
; Function compile flags: /Ogtpy
;	COMDAT ??$SAFE_DELETE_ARRAY@D@@YAXAAPAD@Z
_TEXT	SEGMENT
_pkInstanceArray$ = 8					; size = 4
??$SAFE_DELETE_ARRAY@D@@YAXAAPAD@Z PROC			; SAFE_DELETE_ARRAY<char>, COMDAT

; 311  : {

	push	esi

; 312  : 	delete[] pkInstanceArray;

	mov	esi, DWORD PTR _pkInstanceArray$[esp]
	mov	eax, DWORD PTR [esi]
	push	eax
	call	??_V@YAXPAX@Z				; operator delete[]
	add	esp, 4

; 313  : 	pkInstanceArray = NULL;

	mov	DWORD PTR [esi], 0
	pop	esi

; 314  : };

	ret	0
??$SAFE_DELETE_ARRAY@D@@YAXAAPAD@Z ENDP			; SAFE_DELETE_ARRAY<char>
_TEXT	ENDS
PUBLIC	??$SAFE_DELETE_ARRAY@_N@@YAXAAPA_N@Z		; SAFE_DELETE_ARRAY<bool>
; Function compile flags: /Ogtpy
;	COMDAT ??$SAFE_DELETE_ARRAY@_N@@YAXAAPA_N@Z
_TEXT	SEGMENT
_pkInstanceArray$ = 8					; size = 4
??$SAFE_DELETE_ARRAY@_N@@YAXAAPA_N@Z PROC		; SAFE_DELETE_ARRAY<bool>, COMDAT

; 311  : {

	push	esi

; 312  : 	delete[] pkInstanceArray;

	mov	esi, DWORD PTR _pkInstanceArray$[esp]
	mov	eax, DWORD PTR [esi]
	push	eax
	call	??_V@YAXPAX@Z				; operator delete[]
	add	esp, 4

; 313  : 	pkInstanceArray = NULL;

	mov	DWORD PTR [esi], 0
	pop	esi

; 314  : };

	ret	0
??$SAFE_DELETE_ARRAY@_N@@YAXAAPA_N@Z ENDP		; SAFE_DELETE_ARRAY<bool>
_TEXT	ENDS
PUBLIC	??$min@H@std@@YAABHABH0@Z			; std::min<int>
; Function compile flags: /Ogtpy
; File c:\program files (x86)\microsoft visual studio 9.0\vc\include\xutility
;	COMDAT ??$min@H@std@@YAABHABH0@Z
_TEXT	SEGMENT
__Left$ = 8						; size = 4
__Right$ = 12						; size = 4
??$min@H@std@@YAABHABH0@Z PROC				; std::min<int>, COMDAT

; 3399 : 	return (_DEBUG_LT(_Right, _Left) ? _Right : _Left);

	mov	eax, DWORD PTR __Right$[esp-4]
	mov	edx, DWORD PTR [eax]
	mov	ecx, DWORD PTR __Left$[esp-4]
	cmp	edx, DWORD PTR [ecx]
	jl	SHORT $LN4@min
	mov	eax, ecx
$LN4@min:

; 3400 : 	}

	ret	0
??$min@H@std@@YAABHABH0@Z ENDP				; std::min<int>
_TEXT	ENDS
PUBLIC	??$?5K@FDataStream@@QAEAAV0@AAK@Z		; FDataStream::operator>><unsigned long>
EXTRN	?Read@FDataStream@@IAEXAAK@Z:PROC		; FDataStream::Read
; Function compile flags: /Ogtpy
; File c:\users\enormousapplepie\documents\github\lekmod\lekmod_dll\fireplace\include\fireworks\fdatastream.h
;	COMDAT ??$?5K@FDataStream@@QAEAAV0@AAK@Z
_TEXT	SEGMENT
_kData$ = 8						; size = 4
??$?5K@FDataStream@@QAEAAV0@AAK@Z PROC			; FDataStream::operator>><unsigned long>, COMDAT
; _this$ = ecx

; 260  : 	// If the compiler produces an error here complaining about 
; 261  : 	// YouMustImplementASerializeOperatorForThisTypeError then
; 262  : 	// it could not find a specialization for the type supplied
; 263  : 	// in scope. If a specialization exists, be sure to include
; 264  : 	// the header (FStlContainerSerialization.h, for example), 
; 265  : 	// if not, implement :
; 266  : 	// FDataStream & operator>>(FDataStream &, YourCustomType &)
; 267  : 	Read( kData );

	mov	eax, DWORD PTR _kData$[esp-4]
	push	esi
	push	eax
	mov	esi, ecx
	call	?Read@FDataStream@@IAEXAAK@Z		; FDataStream::Read

; 268  : 	return ( *this );

	mov	eax, esi
	pop	esi

; 269  : }

	ret	4
??$?5K@FDataStream@@QAEAAV0@AAK@Z ENDP			; FDataStream::operator>><unsigned long>
_TEXT	ENDS
PUBLIC	??$?5G@FDataStream@@QAEAAV0@AAG@Z		; FDataStream::operator>><unsigned short>
EXTRN	?Read@FDataStream@@IAEXAAG@Z:PROC		; FDataStream::Read
; Function compile flags: /Ogtpy
;	COMDAT ??$?5G@FDataStream@@QAEAAV0@AAG@Z
_TEXT	SEGMENT
_kData$ = 8						; size = 4
??$?5G@FDataStream@@QAEAAV0@AAG@Z PROC			; FDataStream::operator>><unsigned short>, COMDAT
; _this$ = ecx

; 260  : 	// If the compiler produces an error here complaining about 
; 261  : 	// YouMustImplementASerializeOperatorForThisTypeError then
; 262  : 	// it could not find a specialization for the type supplied
; 263  : 	// in scope. If a specialization exists, be sure to include
; 264  : 	// the header (FStlContainerSerialization.h, for example), 
; 265  : 	// if not, implement :
; 266  : 	// FDataStream & operator>>(FDataStream &, YourCustomType &)
; 267  : 	Read( kData );

	mov	eax, DWORD PTR _kData$[esp-4]
	push	esi
	push	eax
	mov	esi, ecx
	call	?Read@FDataStream@@IAEXAAG@Z		; FDataStream::Read

; 268  : 	return ( *this );

	mov	eax, esi
	pop	esi

; 269  : }

	ret	4
??$?5G@FDataStream@@QAEAAV0@AAG@Z ENDP			; FDataStream::operator>><unsigned short>
_TEXT	ENDS
PUBLIC	??$?6K@FDataStream@@QAEAAV0@ABK@Z		; FDataStream::operator<<<unsigned long>
EXTRN	?Write@FDataStream@@IAEXABK@Z:PROC		; FDataStream::Write
; Function compile flags: /Ogtpy
;	COMDAT ??$?6K@FDataStream@@QAEAAV0@ABK@Z
_TEXT	SEGMENT
_kData$ = 8						; size = 4
??$?6K@FDataStream@@QAEAAV0@ABK@Z PROC			; FDataStream::operator<<<unsigned long>, COMDAT
; _this$ = ecx

; 246  : 	// If the compiler produces an error here complaining about 
; 247  : 	// YouMustImplementASerializeOperatorForThisTypeError then
; 248  : 	// it could not find a specialization for the type supplied
; 249  : 	// in scope. If a specialization exists, be sure to include
; 250  : 	// the header (FStlContainerSerialization.h, for example), 
; 251  : 	// if not, implement :
; 252  : 	// FDataStream & operator<<(FDataStream &, YourCustomType &)
; 253  : 	Write( kData );

	mov	eax, DWORD PTR _kData$[esp-4]
	push	esi
	push	eax
	mov	esi, ecx
	call	?Write@FDataStream@@IAEXABK@Z		; FDataStream::Write

; 254  : 	return ( *this );

	mov	eax, esi
	pop	esi

; 255  : }

	ret	4
??$?6K@FDataStream@@QAEAAV0@ABK@Z ENDP			; FDataStream::operator<<<unsigned long>
_TEXT	ENDS
PUBLIC	??$?6G@FDataStream@@QAEAAV0@ABG@Z		; FDataStream::operator<<<unsigned short>
EXTRN	?Write@FDataStream@@IAEXABG@Z:PROC		; FDataStream::Write
; Function compile flags: /Ogtpy
;	COMDAT ??$?6G@FDataStream@@QAEAAV0@ABG@Z
_TEXT	SEGMENT
_kData$ = 8						; size = 4
??$?6G@FDataStream@@QAEAAV0@ABG@Z PROC			; FDataStream::operator<<<unsigned short>, COMDAT
; _this$ = ecx

; 246  : 	// If the compiler produces an error here complaining about 
; 247  : 	// YouMustImplementASerializeOperatorForThisTypeError then
; 248  : 	// it could not find a specialization for the type supplied
; 249  : 	// in scope. If a specialization exists, be sure to include
; 250  : 	// the header (FStlContainerSerialization.h, for example), 
; 251  : 	// if not, implement :
; 252  : 	// FDataStream & operator<<(FDataStream &, YourCustomType &)
; 253  : 	Write( kData );

	mov	eax, DWORD PTR _kData$[esp-4]
	push	esi
	push	eax
	mov	esi, ecx
	call	?Write@FDataStream@@IAEXABG@Z		; FDataStream::Write

; 254  : 	return ( *this );

	mov	eax, esi
	pop	esi

; 255  : }

	ret	4
??$?6G@FDataStream@@QAEAAV0@ABG@Z ENDP			; FDataStream::operator<<<unsigned short>
_TEXT	ENDS
PUBLIC	?GetNumSlots@?$FFreeListTrashArray@VCvArea@@@@QBEHXZ ; FFreeListTrashArray<CvArea>::GetNumSlots
; Function compile flags: /Ogtpy
; File c:\users\enormousapplepie\documents\github\lekmod\lekmod_dll\fireplace\include\fireworks\ffreelisttrasharray.h
;	COMDAT ?GetNumSlots@?$FFreeListTrashArray@VCvArea@@@@QBEHXZ
_TEXT	SEGMENT
?GetNumSlots@?$FFreeListTrashArray@VCvArea@@@@QBEHXZ PROC ; FFreeListTrashArray<CvArea>::GetNumSlots, COMDAT
; _this$ = ecx

; 49   : 		return this->m_iNumSlots;

	mov	eax, DWORD PTR [ecx+16]

; 50   : 	}

	ret	0
?GetNumSlots@?$FFreeListTrashArray@VCvArea@@@@QBEHXZ ENDP ; FFreeListTrashArray<CvArea>::GetNumSlots
_TEXT	ENDS
PUBLIC	?GetLastIndex@?$FFreeListTrashArray@VCvArea@@@@QBEHXZ ; FFreeListTrashArray<CvArea>::GetLastIndex
; Function compile flags: /Ogtpy
;	COMDAT ?GetLastIndex@?$FFreeListTrashArray@VCvArea@@@@QBEHXZ
_TEXT	SEGMENT
?GetLastIndex@?$FFreeListTrashArray@VCvArea@@@@QBEHXZ PROC ; FFreeListTrashArray<CvArea>::GetLastIndex, COMDAT
; _this$ = ecx

; 54   : 		return this->m_iLastIndex;

	mov	eax, DWORD PTR [ecx+12]

; 55   : 	}

	ret	0
?GetLastIndex@?$FFreeListTrashArray@VCvArea@@@@QBEHXZ ENDP ; FFreeListTrashArray<CvArea>::GetLastIndex
_TEXT	ENDS
PUBLIC	?SetLastIndex@?$FFreeListTrashArray@VCvArea@@@@QAEXH@Z ; FFreeListTrashArray<CvArea>::SetLastIndex
; Function compile flags: /Ogtpy
;	COMDAT ?SetLastIndex@?$FFreeListTrashArray@VCvArea@@@@QAEXH@Z
_TEXT	SEGMENT
_iNewValue$ = 8						; size = 4
?SetLastIndex@?$FFreeListTrashArray@VCvArea@@@@QAEXH@Z PROC ; FFreeListTrashArray<CvArea>::SetLastIndex, COMDAT
; _this$ = ecx

; 58   : 		this->m_iLastIndex = iNewValue;

	mov	eax, DWORD PTR _iNewValue$[esp-4]
	mov	DWORD PTR [ecx+12], eax

; 59   : 	}

	ret	4
?SetLastIndex@?$FFreeListTrashArray@VCvArea@@@@QAEXH@Z ENDP ; FFreeListTrashArray<CvArea>::SetLastIndex
_TEXT	ENDS
PUBLIC	?GetFreeListHead@?$FFreeListTrashArray@VCvArea@@@@QBEHXZ ; FFreeListTrashArray<CvArea>::GetFreeListHead
; Function compile flags: /Ogtpy
;	COMDAT ?GetFreeListHead@?$FFreeListTrashArray@VCvArea@@@@QBEHXZ
_TEXT	SEGMENT
?GetFreeListHead@?$FFreeListTrashArray@VCvArea@@@@QBEHXZ PROC ; FFreeListTrashArray<CvArea>::GetFreeListHead, COMDAT
; _this$ = ecx

; 63   : 		return this->m_iFreeListHead;

	mov	eax, DWORD PTR [ecx+4]

; 64   : 	}

	ret	0
?GetFreeListHead@?$FFreeListTrashArray@VCvArea@@@@QBEHXZ ENDP ; FFreeListTrashArray<CvArea>::GetFreeListHead
_TEXT	ENDS
PUBLIC	?SetFreeListHead@?$FFreeListTrashArray@VCvArea@@@@QAEXH@Z ; FFreeListTrashArray<CvArea>::SetFreeListHead
; Function compile flags: /Ogtpy
;	COMDAT ?SetFreeListHead@?$FFreeListTrashArray@VCvArea@@@@QAEXH@Z
_TEXT	SEGMENT
_iNewValue$ = 8						; size = 4
?SetFreeListHead@?$FFreeListTrashArray@VCvArea@@@@QAEXH@Z PROC ; FFreeListTrashArray<CvArea>::SetFreeListHead, COMDAT
; _this$ = ecx

; 67   : 		this->m_iFreeListHead = iNewValue;

	mov	eax, DWORD PTR _iNewValue$[esp-4]
	mov	DWORD PTR [ecx+4], eax

; 68   : 	}

	ret	4
?SetFreeListHead@?$FFreeListTrashArray@VCvArea@@@@QAEXH@Z ENDP ; FFreeListTrashArray<CvArea>::SetFreeListHead
_TEXT	ENDS
PUBLIC	?GetFreeListCount@?$FFreeListTrashArray@VCvArea@@@@QBEHXZ ; FFreeListTrashArray<CvArea>::GetFreeListCount
; Function compile flags: /Ogtpy
;	COMDAT ?GetFreeListCount@?$FFreeListTrashArray@VCvArea@@@@QBEHXZ
_TEXT	SEGMENT
?GetFreeListCount@?$FFreeListTrashArray@VCvArea@@@@QBEHXZ PROC ; FFreeListTrashArray<CvArea>::GetFreeListCount, COMDAT
; _this$ = ecx

; 72   : 		return this->m_iFreeListCount;

	mov	eax, DWORD PTR [ecx+8]

; 73   : 	}

	ret	0
?GetFreeListCount@?$FFreeListTrashArray@VCvArea@@@@QBEHXZ ENDP ; FFreeListTrashArray<CvArea>::GetFreeListCount
_TEXT	ENDS
PUBLIC	?SetFreeListCount@?$FFreeListTrashArray@VCvArea@@@@QAEXH@Z ; FFreeListTrashArray<CvArea>::SetFreeListCount
; Function compile flags: /Ogtpy
;	COMDAT ?SetFreeListCount@?$FFreeListTrashArray@VCvArea@@@@QAEXH@Z
_TEXT	SEGMENT
_iNewValue$ = 8						; size = 4
?SetFreeListCount@?$FFreeListTrashArray@VCvArea@@@@QAEXH@Z PROC ; FFreeListTrashArray<CvArea>::SetFreeListCount, COMDAT
; _this$ = ecx

; 76   : 		this->m_iFreeListCount = iNewValue;

	mov	eax, DWORD PTR _iNewValue$[esp-4]
	mov	DWORD PTR [ecx+8], eax

; 77   : 	}

	ret	4
?SetFreeListCount@?$FFreeListTrashArray@VCvArea@@@@QAEXH@Z ENDP ; FFreeListTrashArray<CvArea>::SetFreeListCount
_TEXT	ENDS
PUBLIC	?GetCurrentID@?$FFreeListTrashArray@VCvArea@@@@QBEHXZ ; FFreeListTrashArray<CvArea>::GetCurrentID
; Function compile flags: /Ogtpy
;	COMDAT ?GetCurrentID@?$FFreeListTrashArray@VCvArea@@@@QBEHXZ
_TEXT	SEGMENT
?GetCurrentID@?$FFreeListTrashArray@VCvArea@@@@QBEHXZ PROC ; FFreeListTrashArray<CvArea>::GetCurrentID, COMDAT
; _this$ = ecx

; 81   : 		return m_iCurrentID;

	mov	eax, DWORD PTR [ecx+20]

; 82   : 	}

	ret	0
?GetCurrentID@?$FFreeListTrashArray@VCvArea@@@@QBEHXZ ENDP ; FFreeListTrashArray<CvArea>::GetCurrentID
_TEXT	ENDS
PUBLIC	?SetCurrentID@?$FFreeListTrashArray@VCvArea@@@@QAEXH@Z ; FFreeListTrashArray<CvArea>::SetCurrentID
; Function compile flags: /Ogtpy
;	COMDAT ?SetCurrentID@?$FFreeListTrashArray@VCvArea@@@@QAEXH@Z
_TEXT	SEGMENT
_iNewValue$ = 8						; size = 4
?SetCurrentID@?$FFreeListTrashArray@VCvArea@@@@QAEXH@Z PROC ; FFreeListTrashArray<CvArea>::SetCurrentID, COMDAT
; _this$ = ecx

; 85   : 		assert((iNewValue & FLTA_INDEX_MASK) == 0);
; 86   : 		assert((iNewValue & FLTA_ID_MASK) != 0);
; 87   : 		m_iCurrentID = iNewValue;

	mov	eax, DWORD PTR _iNewValue$[esp-4]
	mov	DWORD PTR [ecx+20], eax

; 88   : 	}

	ret	4
?SetCurrentID@?$FFreeListTrashArray@VCvArea@@@@QAEXH@Z ENDP ; FFreeListTrashArray<CvArea>::SetCurrentID
_TEXT	ENDS
PUBLIC	?GetNextFreeIndex@?$FFreeListTrashArray@VCvArea@@@@QBEHH@Z ; FFreeListTrashArray<CvArea>::GetNextFreeIndex
; Function compile flags: /Ogtpy
;	COMDAT ?GetNextFreeIndex@?$FFreeListTrashArray@VCvArea@@@@QBEHH@Z
_TEXT	SEGMENT
_iIndex$ = 8						; size = 4
?GetNextFreeIndex@?$FFreeListTrashArray@VCvArea@@@@QBEHH@Z PROC ; FFreeListTrashArray<CvArea>::GetNextFreeIndex, COMDAT
; _this$ = ecx

; 92   : 		if ((iIndex >= GetNumSlots()) || (m_pArray == NULL))

	mov	edx, DWORD PTR _iIndex$[esp-4]
	cmp	edx, DWORD PTR [ecx+16]
	jge	SHORT $LN1@GetNextFre
	mov	eax, DWORD PTR [ecx+24]
	test	eax, eax
	je	SHORT $LN1@GetNextFre

; 96   : 		}
; 97   : 		return m_pArray[iIndex].iNextFreeIndex;

	mov	eax, DWORD PTR [eax+edx*8]

; 98   : 	}

	ret	4
$LN1@GetNextFre:

; 93   : 		{
; 94   : 			assert(false);
; 95   : 			return FFreeList::INVALID_INDEX;

	or	eax, -1

; 98   : 	}

	ret	4
?GetNextFreeIndex@?$FFreeListTrashArray@VCvArea@@@@QBEHH@Z ENDP ; FFreeListTrashArray<CvArea>::GetNextFreeIndex
_TEXT	ENDS
PUBLIC	?SetNextFreeIndex@?$FFreeListTrashArray@VCvArea@@@@QAEXHH@Z ; FFreeListTrashArray<CvArea>::SetNextFreeIndex
; Function compile flags: /Ogtpy
;	COMDAT ?SetNextFreeIndex@?$FFreeListTrashArray@VCvArea@@@@QAEXHH@Z
_TEXT	SEGMENT
_iIndex$ = 8						; size = 4
_iNewValue$ = 12					; size = 4
?SetNextFreeIndex@?$FFreeListTrashArray@VCvArea@@@@QAEXHH@Z PROC ; FFreeListTrashArray<CvArea>::SetNextFreeIndex, COMDAT
; _this$ = ecx

; 101  : 		if ((iIndex >= GetNumSlots()) || (m_pArray == NULL))

	mov	edx, DWORD PTR _iIndex$[esp-4]
	cmp	edx, DWORD PTR [ecx+16]
	jge	SHORT $LN1@SetNextFre
	mov	eax, DWORD PTR [ecx+24]
	test	eax, eax
	je	SHORT $LN1@SetNextFre

; 102  : 		{
; 103  : 			assert(false);
; 104  : 			return;
; 105  : 		}
; 106  : 		m_pArray[iIndex].iNextFreeIndex = iNewValue;

	mov	ecx, DWORD PTR _iNewValue$[esp-4]
	mov	DWORD PTR [eax+edx*8], ecx
$LN1@SetNextFre:

; 107  : 	}

	ret	8
?SetNextFreeIndex@?$FFreeListTrashArray@VCvArea@@@@QAEXHH@Z ENDP ; FFreeListTrashArray<CvArea>::SetNextFreeIndex
_TEXT	ENDS
PUBLIC	?GetIndexAfterLast@?$FFreeListArrayBase@VCvArea@@@@QBEHXZ ; FFreeListArrayBase<CvArea>::GetIndexAfterLast
; Function compile flags: /Ogtpy
; File c:\users\enormousapplepie\documents\github\lekmod\lekmod_dll\fireplace\include\fireworks\ffreelistarraybase.h
;	COMDAT ?GetIndexAfterLast@?$FFreeListArrayBase@VCvArea@@@@QBEHXZ
_TEXT	SEGMENT
?GetIndexAfterLast@?$FFreeListArrayBase@VCvArea@@@@QBEHXZ PROC ; FFreeListArrayBase<CvArea>::GetIndexAfterLast, COMDAT
; _this$ = ecx

; 71   : 	int GetIndexAfterLast()	const {	return m_iLastIndex + 1;	}

	mov	eax, DWORD PTR [ecx+12]
	inc	eax
	ret	0
?GetIndexAfterLast@?$FFreeListArrayBase@VCvArea@@@@QBEHXZ ENDP ; FFreeListArrayBase<CvArea>::GetIndexAfterLast
_TEXT	ENDS
PUBLIC	?GetNumSlots@?$FFreeListTrashArray@VCvLandmass@@@@QBEHXZ ; FFreeListTrashArray<CvLandmass>::GetNumSlots
; Function compile flags: /Ogtpy
; File c:\users\enormousapplepie\documents\github\lekmod\lekmod_dll\fireplace\include\fireworks\ffreelisttrasharray.h
;	COMDAT ?GetNumSlots@?$FFreeListTrashArray@VCvLandmass@@@@QBEHXZ
_TEXT	SEGMENT
?GetNumSlots@?$FFreeListTrashArray@VCvLandmass@@@@QBEHXZ PROC ; FFreeListTrashArray<CvLandmass>::GetNumSlots, COMDAT
; _this$ = ecx

; 49   : 		return this->m_iNumSlots;

	mov	eax, DWORD PTR [ecx+16]

; 50   : 	}

	ret	0
?GetNumSlots@?$FFreeListTrashArray@VCvLandmass@@@@QBEHXZ ENDP ; FFreeListTrashArray<CvLandmass>::GetNumSlots
_TEXT	ENDS
PUBLIC	?GetLastIndex@?$FFreeListTrashArray@VCvLandmass@@@@QBEHXZ ; FFreeListTrashArray<CvLandmass>::GetLastIndex
; Function compile flags: /Ogtpy
;	COMDAT ?GetLastIndex@?$FFreeListTrashArray@VCvLandmass@@@@QBEHXZ
_TEXT	SEGMENT
?GetLastIndex@?$FFreeListTrashArray@VCvLandmass@@@@QBEHXZ PROC ; FFreeListTrashArray<CvLandmass>::GetLastIndex, COMDAT
; _this$ = ecx

; 54   : 		return this->m_iLastIndex;

	mov	eax, DWORD PTR [ecx+12]

; 55   : 	}

	ret	0
?GetLastIndex@?$FFreeListTrashArray@VCvLandmass@@@@QBEHXZ ENDP ; FFreeListTrashArray<CvLandmass>::GetLastIndex
_TEXT	ENDS
PUBLIC	?SetLastIndex@?$FFreeListTrashArray@VCvLandmass@@@@QAEXH@Z ; FFreeListTrashArray<CvLandmass>::SetLastIndex
; Function compile flags: /Ogtpy
;	COMDAT ?SetLastIndex@?$FFreeListTrashArray@VCvLandmass@@@@QAEXH@Z
_TEXT	SEGMENT
_iNewValue$ = 8						; size = 4
?SetLastIndex@?$FFreeListTrashArray@VCvLandmass@@@@QAEXH@Z PROC ; FFreeListTrashArray<CvLandmass>::SetLastIndex, COMDAT
; _this$ = ecx

; 58   : 		this->m_iLastIndex = iNewValue;

	mov	eax, DWORD PTR _iNewValue$[esp-4]
	mov	DWORD PTR [ecx+12], eax

; 59   : 	}

	ret	4
?SetLastIndex@?$FFreeListTrashArray@VCvLandmass@@@@QAEXH@Z ENDP ; FFreeListTrashArray<CvLandmass>::SetLastIndex
_TEXT	ENDS
PUBLIC	?GetFreeListHead@?$FFreeListTrashArray@VCvLandmass@@@@QBEHXZ ; FFreeListTrashArray<CvLandmass>::GetFreeListHead
; Function compile flags: /Ogtpy
;	COMDAT ?GetFreeListHead@?$FFreeListTrashArray@VCvLandmass@@@@QBEHXZ
_TEXT	SEGMENT
?GetFreeListHead@?$FFreeListTrashArray@VCvLandmass@@@@QBEHXZ PROC ; FFreeListTrashArray<CvLandmass>::GetFreeListHead, COMDAT
; _this$ = ecx

; 63   : 		return this->m_iFreeListHead;

	mov	eax, DWORD PTR [ecx+4]

; 64   : 	}

	ret	0
?GetFreeListHead@?$FFreeListTrashArray@VCvLandmass@@@@QBEHXZ ENDP ; FFreeListTrashArray<CvLandmass>::GetFreeListHead
_TEXT	ENDS
PUBLIC	?SetFreeListHead@?$FFreeListTrashArray@VCvLandmass@@@@QAEXH@Z ; FFreeListTrashArray<CvLandmass>::SetFreeListHead
; Function compile flags: /Ogtpy
;	COMDAT ?SetFreeListHead@?$FFreeListTrashArray@VCvLandmass@@@@QAEXH@Z
_TEXT	SEGMENT
_iNewValue$ = 8						; size = 4
?SetFreeListHead@?$FFreeListTrashArray@VCvLandmass@@@@QAEXH@Z PROC ; FFreeListTrashArray<CvLandmass>::SetFreeListHead, COMDAT
; _this$ = ecx

; 67   : 		this->m_iFreeListHead = iNewValue;

	mov	eax, DWORD PTR _iNewValue$[esp-4]
	mov	DWORD PTR [ecx+4], eax

; 68   : 	}

	ret	4
?SetFreeListHead@?$FFreeListTrashArray@VCvLandmass@@@@QAEXH@Z ENDP ; FFreeListTrashArray<CvLandmass>::SetFreeListHead
_TEXT	ENDS
PUBLIC	?GetFreeListCount@?$FFreeListTrashArray@VCvLandmass@@@@QBEHXZ ; FFreeListTrashArray<CvLandmass>::GetFreeListCount
; Function compile flags: /Ogtpy
;	COMDAT ?GetFreeListCount@?$FFreeListTrashArray@VCvLandmass@@@@QBEHXZ
_TEXT	SEGMENT
?GetFreeListCount@?$FFreeListTrashArray@VCvLandmass@@@@QBEHXZ PROC ; FFreeListTrashArray<CvLandmass>::GetFreeListCount, COMDAT
; _this$ = ecx

; 72   : 		return this->m_iFreeListCount;

	mov	eax, DWORD PTR [ecx+8]

; 73   : 	}

	ret	0
?GetFreeListCount@?$FFreeListTrashArray@VCvLandmass@@@@QBEHXZ ENDP ; FFreeListTrashArray<CvLandmass>::GetFreeListCount
_TEXT	ENDS
PUBLIC	?SetFreeListCount@?$FFreeListTrashArray@VCvLandmass@@@@QAEXH@Z ; FFreeListTrashArray<CvLandmass>::SetFreeListCount
; Function compile flags: /Ogtpy
;	COMDAT ?SetFreeListCount@?$FFreeListTrashArray@VCvLandmass@@@@QAEXH@Z
_TEXT	SEGMENT
_iNewValue$ = 8						; size = 4
?SetFreeListCount@?$FFreeListTrashArray@VCvLandmass@@@@QAEXH@Z PROC ; FFreeListTrashArray<CvLandmass>::SetFreeListCount, COMDAT
; _this$ = ecx

; 76   : 		this->m_iFreeListCount = iNewValue;

	mov	eax, DWORD PTR _iNewValue$[esp-4]
	mov	DWORD PTR [ecx+8], eax

; 77   : 	}

	ret	4
?SetFreeListCount@?$FFreeListTrashArray@VCvLandmass@@@@QAEXH@Z ENDP ; FFreeListTrashArray<CvLandmass>::SetFreeListCount
_TEXT	ENDS
PUBLIC	?GetCurrentID@?$FFreeListTrashArray@VCvLandmass@@@@QBEHXZ ; FFreeListTrashArray<CvLandmass>::GetCurrentID
; Function compile flags: /Ogtpy
;	COMDAT ?GetCurrentID@?$FFreeListTrashArray@VCvLandmass@@@@QBEHXZ
_TEXT	SEGMENT
?GetCurrentID@?$FFreeListTrashArray@VCvLandmass@@@@QBEHXZ PROC ; FFreeListTrashArray<CvLandmass>::GetCurrentID, COMDAT
; _this$ = ecx

; 81   : 		return m_iCurrentID;

	mov	eax, DWORD PTR [ecx+20]

; 82   : 	}

	ret	0
?GetCurrentID@?$FFreeListTrashArray@VCvLandmass@@@@QBEHXZ ENDP ; FFreeListTrashArray<CvLandmass>::GetCurrentID
_TEXT	ENDS
PUBLIC	?SetCurrentID@?$FFreeListTrashArray@VCvLandmass@@@@QAEXH@Z ; FFreeListTrashArray<CvLandmass>::SetCurrentID
; Function compile flags: /Ogtpy
;	COMDAT ?SetCurrentID@?$FFreeListTrashArray@VCvLandmass@@@@QAEXH@Z
_TEXT	SEGMENT
_iNewValue$ = 8						; size = 4
?SetCurrentID@?$FFreeListTrashArray@VCvLandmass@@@@QAEXH@Z PROC ; FFreeListTrashArray<CvLandmass>::SetCurrentID, COMDAT
; _this$ = ecx

; 85   : 		assert((iNewValue & FLTA_INDEX_MASK) == 0);
; 86   : 		assert((iNewValue & FLTA_ID_MASK) != 0);
; 87   : 		m_iCurrentID = iNewValue;

	mov	eax, DWORD PTR _iNewValue$[esp-4]
	mov	DWORD PTR [ecx+20], eax

; 88   : 	}

	ret	4
?SetCurrentID@?$FFreeListTrashArray@VCvLandmass@@@@QAEXH@Z ENDP ; FFreeListTrashArray<CvLandmass>::SetCurrentID
_TEXT	ENDS
PUBLIC	?GetNextFreeIndex@?$FFreeListTrashArray@VCvLandmass@@@@QBEHH@Z ; FFreeListTrashArray<CvLandmass>::GetNextFreeIndex
; Function compile flags: /Ogtpy
;	COMDAT ?GetNextFreeIndex@?$FFreeListTrashArray@VCvLandmass@@@@QBEHH@Z
_TEXT	SEGMENT
_iIndex$ = 8						; size = 4
?GetNextFreeIndex@?$FFreeListTrashArray@VCvLandmass@@@@QBEHH@Z PROC ; FFreeListTrashArray<CvLandmass>::GetNextFreeIndex, COMDAT
; _this$ = ecx

; 92   : 		if ((iIndex >= GetNumSlots()) || (m_pArray == NULL))

	mov	edx, DWORD PTR _iIndex$[esp-4]
	cmp	edx, DWORD PTR [ecx+16]
	jge	SHORT $LN1@GetNextFre@2
	mov	eax, DWORD PTR [ecx+24]
	test	eax, eax
	je	SHORT $LN1@GetNextFre@2

; 96   : 		}
; 97   : 		return m_pArray[iIndex].iNextFreeIndex;

	mov	eax, DWORD PTR [eax+edx*8]

; 98   : 	}

	ret	4
$LN1@GetNextFre@2:

; 93   : 		{
; 94   : 			assert(false);
; 95   : 			return FFreeList::INVALID_INDEX;

	or	eax, -1

; 98   : 	}

	ret	4
?GetNextFreeIndex@?$FFreeListTrashArray@VCvLandmass@@@@QBEHH@Z ENDP ; FFreeListTrashArray<CvLandmass>::GetNextFreeIndex
_TEXT	ENDS
PUBLIC	?SetNextFreeIndex@?$FFreeListTrashArray@VCvLandmass@@@@QAEXHH@Z ; FFreeListTrashArray<CvLandmass>::SetNextFreeIndex
; Function compile flags: /Ogtpy
;	COMDAT ?SetNextFreeIndex@?$FFreeListTrashArray@VCvLandmass@@@@QAEXHH@Z
_TEXT	SEGMENT
_iIndex$ = 8						; size = 4
_iNewValue$ = 12					; size = 4
?SetNextFreeIndex@?$FFreeListTrashArray@VCvLandmass@@@@QAEXHH@Z PROC ; FFreeListTrashArray<CvLandmass>::SetNextFreeIndex, COMDAT
; _this$ = ecx

; 101  : 		if ((iIndex >= GetNumSlots()) || (m_pArray == NULL))

	mov	edx, DWORD PTR _iIndex$[esp-4]
	cmp	edx, DWORD PTR [ecx+16]
	jge	SHORT $LN1@SetNextFre@2
	mov	eax, DWORD PTR [ecx+24]
	test	eax, eax
	je	SHORT $LN1@SetNextFre@2

; 102  : 		{
; 103  : 			assert(false);
; 104  : 			return;
; 105  : 		}
; 106  : 		m_pArray[iIndex].iNextFreeIndex = iNewValue;

	mov	ecx, DWORD PTR _iNewValue$[esp-4]
	mov	DWORD PTR [eax+edx*8], ecx
$LN1@SetNextFre@2:

; 107  : 	}

	ret	8
?SetNextFreeIndex@?$FFreeListTrashArray@VCvLandmass@@@@QAEXHH@Z ENDP ; FFreeListTrashArray<CvLandmass>::SetNextFreeIndex
_TEXT	ENDS
PUBLIC	?GetIndexAfterLast@?$FFreeListArrayBase@VCvLandmass@@@@QBEHXZ ; FFreeListArrayBase<CvLandmass>::GetIndexAfterLast
; Function compile flags: /Ogtpy
; File c:\users\enormousapplepie\documents\github\lekmod\lekmod_dll\fireplace\include\fireworks\ffreelistarraybase.h
;	COMDAT ?GetIndexAfterLast@?$FFreeListArrayBase@VCvLandmass@@@@QBEHXZ
_TEXT	SEGMENT
?GetIndexAfterLast@?$FFreeListArrayBase@VCvLandmass@@@@QBEHXZ PROC ; FFreeListArrayBase<CvLandmass>::GetIndexAfterLast, COMDAT
; _this$ = ecx

; 71   : 	int GetIndexAfterLast()	const {	return m_iLastIndex + 1;	}

	mov	eax, DWORD PTR [ecx+12]
	inc	eax
	ret	0
?GetIndexAfterLast@?$FFreeListArrayBase@VCvLandmass@@@@QBEHXZ ENDP ; FFreeListArrayBase<CvLandmass>::GetIndexAfterLast
_TEXT	ENDS
PUBLIC	?getArray@?$ArrayWrapper@E@@QAEPAEXZ		; ArrayWrapper<unsigned char>::getArray
; Function compile flags: /Ogtpy
; File c:\users\enormousapplepie\documents\github\lekmod\lekmod_dll\fireplace\include\fireworks\fdatastream.h
;	COMDAT ?getArray@?$ArrayWrapper@E@@QAEPAEXZ
_TEXT	SEGMENT
?getArray@?$ArrayWrapper@E@@QAEPAEXZ PROC		; ArrayWrapper<unsigned char>::getArray, COMDAT
; _this$ = ecx

; 382  : 		return m_values;

	mov	eax, DWORD PTR [ecx]

; 383  : 	}

	ret	0
?getArray@?$ArrayWrapper@E@@QAEPAEXZ ENDP		; ArrayWrapper<unsigned char>::getArray
_TEXT	ENDS
PUBLIC	?getCount@?$ArrayWrapper@E@@QBEHXZ		; ArrayWrapper<unsigned char>::getCount
; Function compile flags: /Ogtpy
;	COMDAT ?getCount@?$ArrayWrapper@E@@QBEHXZ
_TEXT	SEGMENT
?getCount@?$ArrayWrapper@E@@QBEHXZ PROC			; ArrayWrapper<unsigned char>::getCount, COMDAT
; _this$ = ecx

; 391  : 		return m_count;

	mov	eax, DWORD PTR [ecx+4]

; 392  : 	}

	ret	0
?getCount@?$ArrayWrapper@E@@QBEHXZ ENDP			; ArrayWrapper<unsigned char>::getCount
_TEXT	ENDS
PUBLIC	?getArray@?$ArrayWrapper@$$CBE@@QBEPBEXZ	; ArrayWrapper<unsigned char const >::getArray
; Function compile flags: /Ogtpy
;	COMDAT ?getArray@?$ArrayWrapper@$$CBE@@QBEPBEXZ
_TEXT	SEGMENT
?getArray@?$ArrayWrapper@$$CBE@@QBEPBEXZ PROC		; ArrayWrapper<unsigned char const >::getArray, COMDAT
; _this$ = ecx

; 386  : 		return m_values;

	mov	eax, DWORD PTR [ecx]

; 387  : 	}

	ret	0
?getArray@?$ArrayWrapper@$$CBE@@QBEPBEXZ ENDP		; ArrayWrapper<unsigned char const >::getArray
_TEXT	ENDS
PUBLIC	?getCount@?$ArrayWrapper@$$CBE@@QBEHXZ		; ArrayWrapper<unsigned char const >::getCount
; Function compile flags: /Ogtpy
;	COMDAT ?getCount@?$ArrayWrapper@$$CBE@@QBEHXZ
_TEXT	SEGMENT
?getCount@?$ArrayWrapper@$$CBE@@QBEHXZ PROC		; ArrayWrapper<unsigned char const >::getCount, COMDAT
; _this$ = ecx

; 391  : 		return m_count;

	mov	eax, DWORD PTR [ecx+4]

; 392  : 	}

	ret	0
?getCount@?$ArrayWrapper@$$CBE@@QBEHXZ ENDP		; ArrayWrapper<unsigned char const >::getCount
_TEXT	ENDS
PUBLIC	??_7?$FFreeListArrayBase@VCvArea@@@@6B@		; FFreeListArrayBase<CvArea>::`vftable'
PUBLIC	??0?$FFreeListArrayBase@VCvArea@@@@QAE@XZ	; FFreeListArrayBase<CvArea>::FFreeListArrayBase<CvArea>
PUBLIC	??_R4?$FFreeListArrayBase@VCvArea@@@@6B@	; FFreeListArrayBase<CvArea>::`RTTI Complete Object Locator'
PUBLIC	??_R0?AV?$FFreeListArrayBase@VCvArea@@@@@8	; FFreeListArrayBase<CvArea> `RTTI Type Descriptor'
PUBLIC	??_R3?$FFreeListArrayBase@VCvArea@@@@8		; FFreeListArrayBase<CvArea>::`RTTI Class Hierarchy Descriptor'
PUBLIC	??_R2?$FFreeListArrayBase@VCvArea@@@@8		; FFreeListArrayBase<CvArea>::`RTTI Base Class Array'
PUBLIC	??_R1A@?0A@EA@?$FFreeListArrayBase@VCvArea@@@@8	; FFreeListArrayBase<CvArea>::`RTTI Base Class Descriptor at (0,-1,0,64)'
EXTRN	??_E?$FFreeListArrayBase@VCvArea@@@@UAEPAXI@Z:PROC ; FFreeListArrayBase<CvArea>::`vector deleting destructor'
EXTRN	__purecall:PROC
;	COMDAT ??_R1A@?0A@EA@?$FFreeListArrayBase@VCvArea@@@@8
; File c:\users\enormousapplepie\documents\github\lekmod\lekmod_dll\fireplace\include\fireworks\ffreelistarraybase.h
rdata$r	SEGMENT
??_R1A@?0A@EA@?$FFreeListArrayBase@VCvArea@@@@8 DD FLAT:??_R0?AV?$FFreeListArrayBase@VCvArea@@@@@8 ; FFreeListArrayBase<CvArea>::`RTTI Base Class Descriptor at (0,-1,0,64)'
	DD	00H
	DD	00H
	DD	0ffffffffH
	DD	00H
	DD	040H
	DD	FLAT:??_R3?$FFreeListArrayBase@VCvArea@@@@8
rdata$r	ENDS
;	COMDAT ??_R2?$FFreeListArrayBase@VCvArea@@@@8
rdata$r	SEGMENT
??_R2?$FFreeListArrayBase@VCvArea@@@@8 DD FLAT:??_R1A@?0A@EA@?$FFreeListArrayBase@VCvArea@@@@8 ; FFreeListArrayBase<CvArea>::`RTTI Base Class Array'
rdata$r	ENDS
;	COMDAT ??_R3?$FFreeListArrayBase@VCvArea@@@@8
rdata$r	SEGMENT
??_R3?$FFreeListArrayBase@VCvArea@@@@8 DD 00H		; FFreeListArrayBase<CvArea>::`RTTI Class Hierarchy Descriptor'
	DD	00H
	DD	01H
	DD	FLAT:??_R2?$FFreeListArrayBase@VCvArea@@@@8
rdata$r	ENDS
;	COMDAT ??_R0?AV?$FFreeListArrayBase@VCvArea@@@@@8
_DATA	SEGMENT
??_R0?AV?$FFreeListArrayBase@VCvArea@@@@@8 DD FLAT:??_7type_info@@6B@ ; FFreeListArrayBase<CvArea> `RTTI Type Descriptor'
	DD	00H
	DB	'.?AV?$FFreeListArrayBase@VCvArea@@@@', 00H
_DATA	ENDS
;	COMDAT ??_R4?$FFreeListArrayBase@VCvArea@@@@6B@
rdata$r	SEGMENT
??_R4?$FFreeListArrayBase@VCvArea@@@@6B@ DD 00H		; FFreeListArrayBase<CvArea>::`RTTI Complete Object Locator'
	DD	00H
	DD	00H
	DD	FLAT:??_R0?AV?$FFreeListArrayBase@VCvArea@@@@@8
	DD	FLAT:??_R3?$FFreeListArrayBase@VCvArea@@@@8
rdata$r	ENDS
;	COMDAT ??_7?$FFreeListArrayBase@VCvArea@@@@6B@
CONST	SEGMENT
??_7?$FFreeListArrayBase@VCvArea@@@@6B@ DD FLAT:??_R4?$FFreeListArrayBase@VCvArea@@@@6B@ ; FFreeListArrayBase<CvArea>::`vftable'
	DD	FLAT:??_E?$FFreeListArrayBase@VCvArea@@@@UAEPAXI@Z
	DD	FLAT:__purecall
	DD	FLAT:__purecall
	DD	FLAT:__purecall
	DD	FLAT:__purecall
	DD	FLAT:__purecall
	DD	FLAT:__purecall
; Function compile flags: /Ogtpy
CONST	ENDS
;	COMDAT ??0?$FFreeListArrayBase@VCvArea@@@@QAE@XZ
_TEXT	SEGMENT
??0?$FFreeListArrayBase@VCvArea@@@@QAE@XZ PROC		; FFreeListArrayBase<CvArea>::FFreeListArrayBase<CvArea>, COMDAT
; _this$ = ecx

; 88   : {

	mov	eax, ecx

; 89   : 	m_iFreeListHead = FFreeList::FREE_LIST_INDEX;
; 90   : 	m_iFreeListCount = 0;

	xor	ecx, ecx
	mov	DWORD PTR [eax], OFFSET ??_7?$FFreeListArrayBase@VCvArea@@@@6B@
	mov	DWORD PTR [eax+4], -2			; fffffffeH
	mov	DWORD PTR [eax+8], ecx

; 91   : 	m_iLastIndex = FFreeList::INVALID_INDEX;

	mov	DWORD PTR [eax+12], -1

; 92   : 	m_iNumSlots = 0;

	mov	DWORD PTR [eax+16], ecx

; 93   : }

	ret	0
??0?$FFreeListArrayBase@VCvArea@@@@QAE@XZ ENDP		; FFreeListArrayBase<CvArea>::FFreeListArrayBase<CvArea>
_TEXT	ENDS
PUBLIC	??A?$FFreeListArrayBase@VCvArea@@@@QBEPBVCvArea@@H@Z ; FFreeListArrayBase<CvArea>::operator[]
; Function compile flags: /Ogtpy
;	COMDAT ??A?$FFreeListArrayBase@VCvArea@@@@QBEPBVCvArea@@H@Z
_TEXT	SEGMENT
_iIndex$ = 8						; size = 4
??A?$FFreeListArrayBase@VCvArea@@@@QBEPBVCvArea@@H@Z PROC ; FFreeListArrayBase<CvArea>::operator[], COMDAT
; _this$ = ecx

; 109  : 	return ( GetAt( iIndex ) );

	mov	eax, DWORD PTR [ecx]
	mov	eax, DWORD PTR [eax+12]
	jmp	eax
??A?$FFreeListArrayBase@VCvArea@@@@QBEPBVCvArea@@H@Z ENDP ; FFreeListArrayBase<CvArea>::operator[]
_TEXT	ENDS
PUBLIC	?Load@?$FFreeListTrashArray@VCvLandmass@@@@QAEXPAVCvLandmass@@@Z ; FFreeListTrashArray<CvLandmass>::Load
; Function compile flags: /Ogtpy
; File c:\users\enormousapplepie\documents\github\lekmod\lekmod_dll\fireplace\include\fireworks\ffreelisttrasharray.h
;	COMDAT ?Load@?$FFreeListTrashArray@VCvLandmass@@@@QAEXPAVCvLandmass@@@Z
_TEXT	SEGMENT
_pData$ = 8						; size = 4
?Load@?$FFreeListTrashArray@VCvLandmass@@@@QAEXPAVCvLandmass@@@Z PROC ; FFreeListTrashArray<CvLandmass>::Load, COMDAT
; _this$ = ecx

; 386  : 	assert(pData != NULL);
; 387  : 	assert(m_pArray != NULL);
; 388  : 	if (!pData || !m_pArray) return;

	mov	edx, DWORD PTR _pData$[esp-4]
	test	edx, edx
	je	SHORT $LN1@Load
	mov	eax, DWORD PTR [ecx+24]
	test	eax, eax
	je	SHORT $LN1@Load

; 389  : 
; 390  : 	assert((pData->GetID() & FLTA_ID_MASK) < m_iCurrentID);
; 391  : 
; 392  : 	int iIndex = (pData->GetID() & FLTA_INDEX_MASK);

	mov	ecx, DWORD PTR [edx+4]
	and	ecx, 8191				; 00001fffH

; 393  : 
; 394  : 	assert(iIndex < FLTA_MAX_BUCKETS);
; 395  : 	assert(iIndex <= this->m_iLastIndex);
; 396  : 	assert(m_pArray[iIndex].pData == NULL);
; 397  : 	assert(m_pArray[iIndex].iNextFreeIndex == FFreeList::INVALID_INDEX);
; 398  : 
; 399  : 	m_pArray[iIndex].pData = pData;

	mov	DWORD PTR [eax+ecx*8+4], edx
$LN1@Load:

; 400  : }

	ret	4
?Load@?$FFreeListTrashArray@VCvLandmass@@@@QAEXPAVCvLandmass@@@Z ENDP ; FFreeListTrashArray<CvLandmass>::Load
_TEXT	ENDS
PUBLIC	??_7?$FFreeListArrayBase@VCvLandmass@@@@6B@	; FFreeListArrayBase<CvLandmass>::`vftable'
PUBLIC	??0?$FFreeListArrayBase@VCvLandmass@@@@QAE@XZ	; FFreeListArrayBase<CvLandmass>::FFreeListArrayBase<CvLandmass>
PUBLIC	??_R4?$FFreeListArrayBase@VCvLandmass@@@@6B@	; FFreeListArrayBase<CvLandmass>::`RTTI Complete Object Locator'
PUBLIC	??_R0?AV?$FFreeListArrayBase@VCvLandmass@@@@@8	; FFreeListArrayBase<CvLandmass> `RTTI Type Descriptor'
PUBLIC	??_R3?$FFreeListArrayBase@VCvLandmass@@@@8	; FFreeListArrayBase<CvLandmass>::`RTTI Class Hierarchy Descriptor'
PUBLIC	??_R2?$FFreeListArrayBase@VCvLandmass@@@@8	; FFreeListArrayBase<CvLandmass>::`RTTI Base Class Array'
PUBLIC	??_R1A@?0A@EA@?$FFreeListArrayBase@VCvLandmass@@@@8 ; FFreeListArrayBase<CvLandmass>::`RTTI Base Class Descriptor at (0,-1,0,64)'
EXTRN	??_E?$FFreeListArrayBase@VCvLandmass@@@@UAEPAXI@Z:PROC ; FFreeListArrayBase<CvLandmass>::`vector deleting destructor'
;	COMDAT ??_R1A@?0A@EA@?$FFreeListArrayBase@VCvLandmass@@@@8
; File c:\users\enormousapplepie\documents\github\lekmod\lekmod_dll\fireplace\include\fireworks\ffreelistarraybase.h
rdata$r	SEGMENT
??_R1A@?0A@EA@?$FFreeListArrayBase@VCvLandmass@@@@8 DD FLAT:??_R0?AV?$FFreeListArrayBase@VCvLandmass@@@@@8 ; FFreeListArrayBase<CvLandmass>::`RTTI Base Class Descriptor at (0,-1,0,64)'
	DD	00H
	DD	00H
	DD	0ffffffffH
	DD	00H
	DD	040H
	DD	FLAT:??_R3?$FFreeListArrayBase@VCvLandmass@@@@8
rdata$r	ENDS
;	COMDAT ??_R2?$FFreeListArrayBase@VCvLandmass@@@@8
rdata$r	SEGMENT
??_R2?$FFreeListArrayBase@VCvLandmass@@@@8 DD FLAT:??_R1A@?0A@EA@?$FFreeListArrayBase@VCvLandmass@@@@8 ; FFreeListArrayBase<CvLandmass>::`RTTI Base Class Array'
rdata$r	ENDS
;	COMDAT ??_R3?$FFreeListArrayBase@VCvLandmass@@@@8
rdata$r	SEGMENT
??_R3?$FFreeListArrayBase@VCvLandmass@@@@8 DD 00H	; FFreeListArrayBase<CvLandmass>::`RTTI Class Hierarchy Descriptor'
	DD	00H
	DD	01H
	DD	FLAT:??_R2?$FFreeListArrayBase@VCvLandmass@@@@8
rdata$r	ENDS
;	COMDAT ??_R0?AV?$FFreeListArrayBase@VCvLandmass@@@@@8
_DATA	SEGMENT
??_R0?AV?$FFreeListArrayBase@VCvLandmass@@@@@8 DD FLAT:??_7type_info@@6B@ ; FFreeListArrayBase<CvLandmass> `RTTI Type Descriptor'
	DD	00H
	DB	'.?AV?$FFreeListArrayBase@VCvLandmass@@@@', 00H
_DATA	ENDS
;	COMDAT ??_R4?$FFreeListArrayBase@VCvLandmass@@@@6B@
rdata$r	SEGMENT
??_R4?$FFreeListArrayBase@VCvLandmass@@@@6B@ DD 00H	; FFreeListArrayBase<CvLandmass>::`RTTI Complete Object Locator'
	DD	00H
	DD	00H
	DD	FLAT:??_R0?AV?$FFreeListArrayBase@VCvLandmass@@@@@8
	DD	FLAT:??_R3?$FFreeListArrayBase@VCvLandmass@@@@8
rdata$r	ENDS
;	COMDAT ??_7?$FFreeListArrayBase@VCvLandmass@@@@6B@
CONST	SEGMENT
??_7?$FFreeListArrayBase@VCvLandmass@@@@6B@ DD FLAT:??_R4?$FFreeListArrayBase@VCvLandmass@@@@6B@ ; FFreeListArrayBase<CvLandmass>::`vftable'
	DD	FLAT:??_E?$FFreeListArrayBase@VCvLandmass@@@@UAEPAXI@Z
	DD	FLAT:__purecall
	DD	FLAT:__purecall
	DD	FLAT:__purecall
	DD	FLAT:__purecall
	DD	FLAT:__purecall
	DD	FLAT:__purecall
; Function compile flags: /Ogtpy
CONST	ENDS
;	COMDAT ??0?$FFreeListArrayBase@VCvLandmass@@@@QAE@XZ
_TEXT	SEGMENT
??0?$FFreeListArrayBase@VCvLandmass@@@@QAE@XZ PROC	; FFreeListArrayBase<CvLandmass>::FFreeListArrayBase<CvLandmass>, COMDAT
; _this$ = ecx

; 88   : {

	mov	eax, ecx

; 89   : 	m_iFreeListHead = FFreeList::FREE_LIST_INDEX;
; 90   : 	m_iFreeListCount = 0;

	xor	ecx, ecx
	mov	DWORD PTR [eax], OFFSET ??_7?$FFreeListArrayBase@VCvLandmass@@@@6B@
	mov	DWORD PTR [eax+4], -2			; fffffffeH
	mov	DWORD PTR [eax+8], ecx

; 91   : 	m_iLastIndex = FFreeList::INVALID_INDEX;

	mov	DWORD PTR [eax+12], -1

; 92   : 	m_iNumSlots = 0;

	mov	DWORD PTR [eax+16], ecx

; 93   : }

	ret	0
??0?$FFreeListArrayBase@VCvLandmass@@@@QAE@XZ ENDP	; FFreeListArrayBase<CvLandmass>::FFreeListArrayBase<CvLandmass>
_TEXT	ENDS
PUBLIC	??A?$FFreeListArrayBase@VCvLandmass@@@@QBEPBVCvLandmass@@H@Z ; FFreeListArrayBase<CvLandmass>::operator[]
; Function compile flags: /Ogtpy
;	COMDAT ??A?$FFreeListArrayBase@VCvLandmass@@@@QBEPBVCvLandmass@@H@Z
_TEXT	SEGMENT
_iIndex$ = 8						; size = 4
??A?$FFreeListArrayBase@VCvLandmass@@@@QBEPBVCvLandmass@@H@Z PROC ; FFreeListArrayBase<CvLandmass>::operator[], COMDAT
; _this$ = ecx

; 109  : 	return ( GetAt( iIndex ) );

	mov	eax, DWORD PTR [ecx]
	mov	eax, DWORD PTR [eax+12]
	jmp	eax
??A?$FFreeListArrayBase@VCvLandmass@@@@QBEPBVCvLandmass@@H@Z ENDP ; FFreeListArrayBase<CvLandmass>::operator[]
_TEXT	ENDS
PUBLIC	??$?5E@FDataStream@@QAEAAV0@AAE@Z		; FDataStream::operator>><unsigned char>
EXTRN	?Read@FDataStream@@IAEXAAE@Z:PROC		; FDataStream::Read
; Function compile flags: /Ogtpy
; File c:\users\enormousapplepie\documents\github\lekmod\lekmod_dll\fireplace\include\fireworks\fdatastream.h
;	COMDAT ??$?5E@FDataStream@@QAEAAV0@AAE@Z
_TEXT	SEGMENT
_kData$ = 8						; size = 4
??$?5E@FDataStream@@QAEAAV0@AAE@Z PROC			; FDataStream::operator>><unsigned char>, COMDAT
; _this$ = ecx

; 260  : 	// If the compiler produces an error here complaining about 
; 261  : 	// YouMustImplementASerializeOperatorForThisTypeError then
; 262  : 	// it could not find a specialization for the type supplied
; 263  : 	// in scope. If a specialization exists, be sure to include
; 264  : 	// the header (FStlContainerSerialization.h, for example), 
; 265  : 	// if not, implement :
; 266  : 	// FDataStream & operator>>(FDataStream &, YourCustomType &)
; 267  : 	Read( kData );

	mov	eax, DWORD PTR _kData$[esp-4]
	push	esi
	push	eax
	mov	esi, ecx
	call	?Read@FDataStream@@IAEXAAE@Z		; FDataStream::Read

; 268  : 	return ( *this );

	mov	eax, esi
	pop	esi

; 269  : }

	ret	4
??$?5E@FDataStream@@QAEAAV0@AAE@Z ENDP			; FDataStream::operator>><unsigned char>
_TEXT	ENDS
PUBLIC	??$?6E@FDataStream@@QAEAAV0@ABE@Z		; FDataStream::operator<<<unsigned char>
EXTRN	?Write@FDataStream@@IAEXABE@Z:PROC		; FDataStream::Write
; Function compile flags: /Ogtpy
;	COMDAT ??$?6E@FDataStream@@QAEAAV0@ABE@Z
_TEXT	SEGMENT
_kData$ = 8						; size = 4
??$?6E@FDataStream@@QAEAAV0@ABE@Z PROC			; FDataStream::operator<<<unsigned char>, COMDAT
; _this$ = ecx

; 246  : 	// If the compiler produces an error here complaining about 
; 247  : 	// YouMustImplementASerializeOperatorForThisTypeError then
; 248  : 	// it could not find a specialization for the type supplied
; 249  : 	// in scope. If a specialization exists, be sure to include
; 250  : 	// the header (FStlContainerSerialization.h, for example), 
; 251  : 	// if not, implement :
; 252  : 	// FDataStream & operator<<(FDataStream &, YourCustomType &)
; 253  : 	Write( kData );

	mov	eax, DWORD PTR _kData$[esp-4]
	push	esi
	push	eax
	mov	esi, ecx
	call	?Write@FDataStream@@IAEXABE@Z		; FDataStream::Write

; 254  : 	return ( *this );

	mov	eax, esi
	pop	esi

; 255  : }

	ret	4
??$?6E@FDataStream@@QAEAAV0@ABE@Z ENDP			; FDataStream::operator<<<unsigned char>
_TEXT	ENDS
PUBLIC	??0CvString@@QAE@ABV?$basic_string@DU?$char_traits@D@std@@V?$allocator@D@2@@std@@@Z ; CvString::CvString
EXTRN	__imp_??0?$basic_string@DU?$char_traits@D@std@@V?$allocator@D@2@@std@@QAE@ABV01@@Z:PROC
; Function compile flags: /Ogtpy
; File c:\users\enormousapplepie\documents\github\lekmod\lekmod_dll\cvgamecoredllutil\include\cvstring.h
;	COMDAT ??0CvString@@QAE@ABV?$basic_string@DU?$char_traits@D@std@@V?$allocator@D@2@@std@@@Z
_TEXT	SEGMENT
_s$ = 8							; size = 4
??0CvString@@QAE@ABV?$basic_string@DU?$char_traits@D@std@@V?$allocator@D@2@@std@@@Z PROC ; CvString::CvString, COMDAT
; _this$ = ecx

; 26   : 	CvString(const std::string& s): std::string(s) {}

	mov	eax, DWORD PTR _s$[esp-4]
	push	esi
	push	eax
	mov	esi, ecx
	call	DWORD PTR __imp_??0?$basic_string@DU?$char_traits@D@std@@V?$allocator@D@2@@std@@QAE@ABV01@@Z
	mov	eax, esi
	pop	esi
	ret	4
??0CvString@@QAE@ABV?$basic_string@DU?$char_traits@D@std@@V?$allocator@D@2@@std@@@Z ENDP ; CvString::CvString
_TEXT	ENDS
PUBLIC	??1CvString@@QAE@XZ				; CvString::~CvString
EXTRN	__imp_??1?$basic_string@DU?$char_traits@D@std@@V?$allocator@D@2@@std@@QAE@XZ:PROC
; Function compile flags: /Ogtpy
;	COMDAT ??1CvString@@QAE@XZ
_TEXT	SEGMENT
??1CvString@@QAE@XZ PROC				; CvString::~CvString, COMDAT
; _this$ = ecx

; 28   : 	~CvString() {}

	jmp	DWORD PTR __imp_??1?$basic_string@DU?$char_traits@D@std@@V?$allocator@D@2@@std@@QAE@XZ
??1CvString@@QAE@XZ ENDP				; CvString::~CvString
_TEXT	ENDS
PUBLIC	??_C@_00CNPNBAHC@?$AA@				; `string'
PUBLIC	?formatv@CvString@@SA_NAAV?$basic_string@DU?$char_traits@D@std@@V?$allocator@D@2@@std@@PBDPAD@Z ; CvString::formatv
EXTRN	__imp_??4?$basic_string@DU?$char_traits@D@std@@V?$allocator@D@2@@std@@QAEAAV01@PBD@Z:PROC
EXTRN	??_U@YAPAXI@Z:PROC				; operator new[]
EXTRN	__imp___vsnprintf:PROC
;	COMDAT ??_C@_00CNPNBAHC@?$AA@
CONST	SEGMENT
??_C@_00CNPNBAHC@?$AA@ DB 00H				; `string'
; Function compile flags: /Ogtpy
CONST	ENDS
;	COMDAT ?formatv@CvString@@SA_NAAV?$basic_string@DU?$char_traits@D@std@@V?$allocator@D@2@@std@@PBDPAD@Z
_TEXT	SEGMENT
_buf$ = -2048						; size = 2048
_out$ = 8						; size = 4
_fmt$ = 12						; size = 4
_args$ = 16						; size = 4
?formatv@CvString@@SA_NAAV?$basic_string@DU?$char_traits@D@std@@V?$allocator@D@2@@std@@PBDPAD@Z PROC ; CvString::formatv, COMDAT

; 191  : {

	sub	esp, 2048				; 00000800H
	push	ebx
	push	ebp

; 192  : 	char buf[2048];
; 193  : 	char * pbuf = buf;

	mov	ebp, DWORD PTR _args$[esp+2052]
	push	esi
	push	edi
	lea	edi, DWORD PTR _buf$[esp+2064]
	mov	esi, 2047				; 000007ffH
	npad	6
$LL10@formatv:

; 194  : 	int len = 0;
; 195  : 	int attempts = 0;
; 196  : 	bool success = false;
; 197  : 	const int kMaxAttempts = 40;
; 198  : 
; 199  : 	do
; 200  : 	{
; 201  : 		int maxlen = 2047+2048*attempts;
; 202  : 		len = _vsnprintf(pbuf,maxlen,fmt,args);

	mov	eax, DWORD PTR _fmt$[esp+2060]
	push	ebp
	push	eax
	push	esi
	push	edi
	mov	ebx, esi
	call	DWORD PTR __imp___vsnprintf
	add	esp, 16					; 00000010H

; 203  : 		attempts++;

	add	esi, 2048				; 00000800H

; 204  : 		success = (len>=0 && len<=maxlen);

	test	eax, eax
	jl	SHORT $LN13@formatv
	cmp	eax, ebx
	jle	SHORT $LN18@formatv
$LN13@formatv:

; 205  : 		if (!success)
; 206  : 		{
; 207  : 			if (pbuf!=buf)

	lea	ecx, DWORD PTR _buf$[esp+2064]
	xor	bl, bl
	cmp	edi, ecx
	je	SHORT $LN6@formatv

; 208  : 				delete [] pbuf;

	push	edi
	call	??_V@YAXPAX@Z				; operator delete[]
	add	esp, 4
$LN6@formatv:

; 209  : 			pbuf = new char[2048+2048*attempts];

	lea	edx, DWORD PTR [esi+1]
	push	edx
	call	??_U@YAPAXI@Z				; operator new[]
	add	esp, 4

; 210  : 		}
; 211  : 	}
; 212  : 	while (!success && attempts<kMaxAttempts);

	cmp	esi, 83967				; 000147ffH
	mov	edi, eax
	jl	SHORT $LL10@formatv

; 222  : 		out = "";

	push	OFFSET ??_C@_00CNPNBAHC@?$AA@
$LN21@formatv:
	mov	ecx, DWORD PTR _out$[esp+2064]
	call	DWORD PTR __imp_??4?$basic_string@DU?$char_traits@D@std@@V?$allocator@D@2@@std@@QAEAAV01@PBD@Z

; 223  : 
; 224  : 	if (pbuf!=buf)

	lea	eax, DWORD PTR _buf$[esp+2064]
	cmp	edi, eax
	je	SHORT $LN20@formatv

; 225  : 		delete [] pbuf;

	push	edi
	call	??_V@YAXPAX@Z				; operator delete[]
	add	esp, 4
$LN20@formatv:
	pop	edi
	pop	esi
	pop	ebp

; 226  : 
; 227  : 	return success;

	mov	al, bl
	pop	ebx

; 228  : }

	add	esp, 2048				; 00000800H
	ret	0
$LN18@formatv:

; 204  : 		success = (len>=0 && len<=maxlen);

	mov	bl, 1

; 213  : 
; 214  : 	if ( attempts==kMaxAttempts )
; 215  : 	{
; 216  : 		// dxPrintNL( "CvString::formatv - Max reallocs occurred while formatting string. Result is likely truncated!", 0 );
; 217  : 	}
; 218  : 
; 219  : 	if (success)
; 220  : 		out = pbuf;

	push	edi

; 221  : 	else

	jmp	SHORT $LN21@formatv
?formatv@CvString@@SA_NAAV?$basic_string@DU?$char_traits@D@std@@V?$allocator@D@2@@std@@PBDPAD@Z ENDP ; CvString::formatv
_TEXT	ENDS
PUBLIC	?format@CvString@@SA?AV1@PBDZZ			; CvString::format
EXTRN	__imp_??0?$basic_string@DU?$char_traits@D@std@@V?$allocator@D@2@@std@@QAE@XZ:PROC
;	COMDAT xdata$x
xdata$x	SEGMENT
__unwindtable$?format@CvString@@SA?AV1@PBDZZ DD 0ffffffffH
	DD	FLAT:__unwindfunclet$?format@CvString@@SA?AV1@PBDZZ$1
	DD	00H
	DD	FLAT:__unwindfunclet$?format@CvString@@SA?AV1@PBDZZ$0
__ehfuncinfo$?format@CvString@@SA?AV1@PBDZZ DD 019930522H
	DD	02H
	DD	FLAT:__unwindtable$?format@CvString@@SA?AV1@PBDZZ
	DD	2 DUP(00H)
	DD	2 DUP(00H)
	DD	00H
	DD	01H
; Function compile flags: /Ogtpy
xdata$x	ENDS
;	COMDAT ?format@CvString@@SA?AV1@PBDZZ
_TEXT	SEGMENT
$T238280 = -44						; size = 4
_result$ = -40						; size = 28
__$EHRec$ = -12						; size = 12
___$ReturnUdt$ = 8					; size = 4
_fmt$ = 12						; size = 4
?format@CvString@@SA?AV1@PBDZZ PROC			; CvString::format, COMDAT

; 243  : {

	push	-1
	push	__ehhandler$?format@CvString@@SA?AV1@PBDZZ
	mov	eax, DWORD PTR fs:0
	push	eax
	mov	DWORD PTR fs:0, esp
	sub	esp, 32					; 00000020H
	push	esi

; 244  : 	std::string result;

	lea	ecx, DWORD PTR _result$[esp+48]
	mov	DWORD PTR $T238280[esp+48], 0
	call	DWORD PTR __imp_??0?$basic_string@DU?$char_traits@D@std@@V?$allocator@D@2@@std@@QAE@XZ

; 245  : 	va_list args;
; 246  : 	va_start(args,fmt);
; 247  : 	formatv(result,fmt,args);

	mov	ecx, DWORD PTR _fmt$[esp+44]
	lea	eax, DWORD PTR _fmt$[esp+48]
	push	eax
	push	ecx
	lea	edx, DWORD PTR _result$[esp+56]
	push	edx
	mov	DWORD PTR __$EHRec$[esp+68], 1
	call	?formatv@CvString@@SA_NAAV?$basic_string@DU?$char_traits@D@std@@V?$allocator@D@2@@std@@PBDPAD@Z ; CvString::formatv

; 248  : 	va_end(args);
; 249  : 	return CvString(result);

	mov	esi, DWORD PTR ___$ReturnUdt$[esp+56]
	add	esp, 12					; 0000000cH
	lea	eax, DWORD PTR _result$[esp+48]
	push	eax
	mov	ecx, esi
	call	DWORD PTR __imp_??0?$basic_string@DU?$char_traits@D@std@@V?$allocator@D@2@@std@@QAE@ABV01@@Z
	lea	ecx, DWORD PTR _result$[esp+48]
	mov	DWORD PTR $T238280[esp+48], 1
	mov	BYTE PTR __$EHRec$[esp+56], 0
	call	DWORD PTR __imp_??1?$basic_string@DU?$char_traits@D@std@@V?$allocator@D@2@@std@@QAE@XZ

; 250  : }

	mov	ecx, DWORD PTR __$EHRec$[esp+48]
	mov	eax, esi
	pop	esi
	mov	DWORD PTR fs:0, ecx
	add	esp, 44					; 0000002cH
	ret	0
_TEXT	ENDS
;	COMDAT text$x
text$x	SEGMENT
__unwindfunclet$?format@CvString@@SA?AV1@PBDZZ$0:
	lea	ecx, DWORD PTR _result$[ebp]
	jmp	DWORD PTR __imp_??1?$basic_string@DU?$char_traits@D@std@@V?$allocator@D@2@@std@@QAE@XZ
__unwindfunclet$?format@CvString@@SA?AV1@PBDZZ$1:
	mov	eax, DWORD PTR $T238280[ebp]
	and	eax, 1
	je	$LN5@format
	and	DWORD PTR $T238280[ebp], -2		; fffffffeH
	mov	ecx, DWORD PTR ___$ReturnUdt$[ebp-4]
	jmp	??1CvString@@QAE@XZ			; CvString::~CvString
$LN5@format:
	ret	0
__ehhandler$?format@CvString@@SA?AV1@PBDZZ:
	mov	eax, OFFSET __ehfuncinfo$?format@CvString@@SA?AV1@PBDZZ
	jmp	___CxxFrameHandler3
text$x	ENDS
?format@CvString@@SA?AV1@PBDZZ ENDP			; CvString::format
PUBLIC	??0CvMapInitData@@QAE@HHHH_N0@Z			; CvMapInitData::CvMapInitData
; Function compile flags: /Ogtpy
; File c:\users\enormousapplepie\documents\github\lekmod\lekmod_dll\cvgamecoredllutil\include\cvstructs.h
;	COMDAT ??0CvMapInitData@@QAE@HHHH_N0@Z
_TEXT	SEGMENT
_iGridW$ = 8						; size = 4
_iGridH$ = 12						; size = 4
_iTopLatitude$ = 16					; size = 4
_iBottomLatitude$ = 20					; size = 4
_bWrapX$ = 24						; size = 1
_bWrapY$ = 28						; size = 1
??0CvMapInitData@@QAE@HHHH_N0@Z PROC			; CvMapInitData::CvMapInitData, COMDAT
; _this$ = ecx

; 146  : 	{ }

	mov	edx, DWORD PTR _iGridH$[esp-4]
	mov	eax, ecx
	mov	ecx, DWORD PTR _iGridW$[esp-4]
	mov	DWORD PTR [eax], ecx
	mov	ecx, DWORD PTR _iTopLatitude$[esp-4]
	mov	DWORD PTR [eax+4], edx
	mov	edx, DWORD PTR _iBottomLatitude$[esp-4]
	mov	DWORD PTR [eax+8], ecx
	mov	cl, BYTE PTR _bWrapX$[esp-4]
	mov	DWORD PTR [eax+12], edx
	mov	dl, BYTE PTR _bWrapY$[esp-4]
	mov	BYTE PTR [eax+16], cl
	mov	BYTE PTR [eax+17], dl
	ret	24					; 00000018H
??0CvMapInitData@@QAE@HHHH_N0@Z ENDP			; CvMapInitData::CvMapInitData
_TEXT	ENDS
PUBLIC	?GetDescription@CvBaseInfo@@QBEPBDXZ		; CvBaseInfo::GetDescription
EXTRN	__imp_?c_str@?$basic_string@DU?$char_traits@D@std@@V?$allocator@D@2@@std@@QBEPBDXZ:PROC
; Function compile flags: /Ogtpy
; File c:\users\enormousapplepie\documents\github\lekmod\lekmod_dll\cvgamecoredll_expansion2\cvinfos.h
;	COMDAT ?GetDescription@CvBaseInfo@@QBEPBDXZ
_TEXT	SEGMENT
?GetDescription@CvBaseInfo@@QBEPBDXZ PROC		; CvBaseInfo::GetDescription, COMDAT
; _this$ = ecx

; 64   : 		return m_strDescription.c_str();

	add	ecx, 36					; 00000024H
	jmp	DWORD PTR __imp_?c_str@?$basic_string@DU?$char_traits@D@std@@V?$allocator@D@2@@std@@QBEPBDXZ
?GetDescription@CvBaseInfo@@QBEPBDXZ ENDP		; CvBaseInfo::GetDescription
_TEXT	ENDS
PUBLIC	?GetType@CvBaseInfo@@QBEPBDXZ			; CvBaseInfo::GetType
; Function compile flags: /Ogtpy
;	COMDAT ?GetType@CvBaseInfo@@QBEPBDXZ
_TEXT	SEGMENT
?GetType@CvBaseInfo@@QBEPBDXZ PROC			; CvBaseInfo::GetType, COMDAT
; _this$ = ecx

; 92   : 		return m_strType.c_str();

	add	ecx, 176				; 000000b0H
	jmp	DWORD PTR __imp_?c_str@?$basic_string@DU?$char_traits@D@std@@V?$allocator@D@2@@std@@QBEPBDXZ
?GetType@CvBaseInfo@@QBEPBDXZ ENDP			; CvBaseInfo::GetType
_TEXT	ENDS
PUBLIC	?getMap@CvGlobals@@QAEAAVCvMap@@XZ		; CvGlobals::getMap
; Function compile flags: /Ogtpy
; File c:\users\enormousapplepie\documents\github\lekmod\lekmod_dll\cvgamecoredll_expansion2\cvglobals.h
;	COMDAT ?getMap@CvGlobals@@QAEAAVCvMap@@XZ
_TEXT	SEGMENT
?getMap@CvGlobals@@QAEAAVCvMap@@XZ PROC			; CvGlobals::getMap, COMDAT
; _this$ = ecx

; 175  : 		return *m_map;    // inlined for perf reasons, do not use outside of dll

	mov	eax, DWORD PTR [ecx+52]

; 176  : 	}

	ret	0
?getMap@CvGlobals@@QAEAAVCvMap@@XZ ENDP			; CvGlobals::getMap
_TEXT	ENDS
PUBLIC	?getGame@CvGlobals@@QAEAAVCvGame@@XZ		; CvGlobals::getGame
; Function compile flags: /Ogtpy
;	COMDAT ?getGame@CvGlobals@@QAEAAVCvGame@@XZ
_TEXT	SEGMENT
?getGame@CvGlobals@@QAEAAVCvGame@@XZ PROC		; CvGlobals::getGame, COMDAT
; _this$ = ecx

; 183  : 		return *m_game;    // inlined for perf reasons, do not use outside of dll

	mov	eax, DWORD PTR [ecx+48]

; 184  : 	}

	ret	0
?getGame@CvGlobals@@QAEAAVCvGame@@XZ ENDP		; CvGlobals::getGame
_TEXT	ENDS
PUBLIC	?getPlotDirectionX@CvGlobals@@QAEPAHXZ		; CvGlobals::getPlotDirectionX
; Function compile flags: /Ogtpy
;	COMDAT ?getPlotDirectionX@CvGlobals@@QAEPAHXZ
_TEXT	SEGMENT
?getPlotDirectionX@CvGlobals@@QAEPAHXZ PROC		; CvGlobals::getPlotDirectionX, COMDAT
; _this$ = ecx

; 191  : 		return m_aiPlotDirectionX;

	lea	eax, DWORD PTR [ecx+112]

; 192  : 	}

	ret	0
?getPlotDirectionX@CvGlobals@@QAEPAHXZ ENDP		; CvGlobals::getPlotDirectionX
_TEXT	ENDS
PUBLIC	?getPlotDirectionY@CvGlobals@@QAEPAHXZ		; CvGlobals::getPlotDirectionY
; Function compile flags: /Ogtpy
;	COMDAT ?getPlotDirectionY@CvGlobals@@QAEPAHXZ
_TEXT	SEGMENT
?getPlotDirectionY@CvGlobals@@QAEPAHXZ PROC		; CvGlobals::getPlotDirectionY, COMDAT
; _this$ = ecx

; 195  : 		return m_aiPlotDirectionY;

	lea	eax, DWORD PTR [ecx+136]

; 196  : 	}

	ret	0
?getPlotDirectionY@CvGlobals@@QAEPAHXZ ENDP		; CvGlobals::getPlotDirectionY
_TEXT	ENDS
PUBLIC	?getLAKE_MAX_AREA_SIZE@CvGlobals@@QAEHXZ	; CvGlobals::getLAKE_MAX_AREA_SIZE
; Function compile flags: /Ogtpy
;	COMDAT ?getLAKE_MAX_AREA_SIZE@CvGlobals@@QAEHXZ
_TEXT	SEGMENT
?getLAKE_MAX_AREA_SIZE@CvGlobals@@QAEHXZ PROC		; CvGlobals::getLAKE_MAX_AREA_SIZE, COMDAT
; _this$ = ecx

; 5584 : 		return m_iLAKE_MAX_AREA_SIZE;

	mov	eax, DWORD PTR [ecx+6508]

; 5585 : 	}

	ret	0
?getLAKE_MAX_AREA_SIZE@CvGlobals@@QAEHXZ ENDP		; CvGlobals::getLAKE_MAX_AREA_SIZE
_TEXT	ENDS
PUBLIC	?getNUM_RESOURCE_QUANTITY_TYPES@CvGlobals@@QAEHXZ ; CvGlobals::getNUM_RESOURCE_QUANTITY_TYPES
; Function compile flags: /Ogtpy
;	COMDAT ?getNUM_RESOURCE_QUANTITY_TYPES@CvGlobals@@QAEHXZ
_TEXT	SEGMENT
?getNUM_RESOURCE_QUANTITY_TYPES@CvGlobals@@QAEHXZ PROC	; CvGlobals::getNUM_RESOURCE_QUANTITY_TYPES, COMDAT
; _this$ = ecx

; 6092 : 		return m_iNUM_RESOURCE_QUANTITY_TYPES;

	mov	eax, DWORD PTR [ecx+7016]

; 6093 : 	}

	ret	0
?getNUM_RESOURCE_QUANTITY_TYPES@CvGlobals@@QAEHXZ ENDP	; CvGlobals::getNUM_RESOURCE_QUANTITY_TYPES
_TEXT	ENDS
PUBLIC	?getLAND_TERRAIN@CvGlobals@@QAEHXZ		; CvGlobals::getLAND_TERRAIN
; Function compile flags: /Ogtpy
;	COMDAT ?getLAND_TERRAIN@CvGlobals@@QAEHXZ
_TEXT	SEGMENT
?getLAND_TERRAIN@CvGlobals@@QAEHXZ PROC			; CvGlobals::getLAND_TERRAIN, COMDAT
; _this$ = ecx

; 7171 : 		return m_iLAND_TERRAIN;

	mov	eax, DWORD PTR [ecx+8388]

; 7172 : 	}

	ret	0
?getLAND_TERRAIN@CvGlobals@@QAEHXZ ENDP			; CvGlobals::getLAND_TERRAIN
_TEXT	ENDS
PUBLIC	?getDLLIFace@CvGlobals@@QAEPAVICvEngineUtility4@@XZ ; CvGlobals::getDLLIFace
; Function compile flags: /Ogtpy
;	COMDAT ?getDLLIFace@CvGlobals@@QAEPAVICvEngineUtility4@@XZ
_TEXT	SEGMENT
?getDLLIFace@CvGlobals@@QAEPAVICvEngineUtility4@@XZ PROC ; CvGlobals::getDLLIFace, COMDAT
; _this$ = ecx

; 7703 : 		return m_pDLL;

	mov	eax, DWORD PTR [ecx+8564]

; 7704 : 	}

	ret	0
?getDLLIFace@CvGlobals@@QAEPAVICvEngineUtility4@@XZ ENDP ; CvGlobals::getDLLIFace
_TEXT	ENDS
PUBLIC	?GetEngineUserInterface@CvGlobals@@QAEPAVICvUserInterface2@@XZ ; CvGlobals::GetEngineUserInterface
; Function compile flags: /Ogtpy
;	COMDAT ?GetEngineUserInterface@CvGlobals@@QAEPAVICvUserInterface2@@XZ
_TEXT	SEGMENT
?GetEngineUserInterface@CvGlobals@@QAEPAVICvUserInterface2@@XZ PROC ; CvGlobals::GetEngineUserInterface, COMDAT
; _this$ = ecx

; 7713 : 		return m_pEngineUI;

	mov	eax, DWORD PTR [ecx+8568]

; 7714 : 	}

	ret	0
?GetEngineUserInterface@CvGlobals@@QAEPAVICvUserInterface2@@XZ ENDP ; CvGlobals::GetEngineUserInterface
_TEXT	ENDS
PUBLIC	?getPlayer@CvPlayerAI@@SAAAV1@W4PlayerTypes@@@Z	; CvPlayerAI::getPlayer
EXTRN	?m_aPlayers@CvPlayerAI@@1PAV1@A:DWORD		; CvPlayerAI::m_aPlayers
; Function compile flags: /Ogtpy
; File c:\users\enormousapplepie\documents\github\lekmod\lekmod_dll\cvgamecoredll_expansion2\cvplayerai.h
;	COMDAT ?getPlayer@CvPlayerAI@@SAAAV1@W4PlayerTypes@@@Z
_TEXT	SEGMENT
_ePlayer$ = 8						; size = 4
?getPlayer@CvPlayerAI@@SAAAV1@W4PlayerTypes@@@Z PROC	; CvPlayerAI::getPlayer, COMDAT

; 28   : 		CvAssertMsg(ePlayer != NO_PLAYER, "Player is not assigned a valid value");
; 29   : 		CvAssertMsg(ePlayer < MAX_PLAYERS, "Player is not assigned a valid value");
; 30   : 		return m_aPlayers[ePlayer];

	mov	eax, DWORD PTR _ePlayer$[esp-4]
	imul	eax, 63236				; 0000f704H
	add	eax, DWORD PTR ?m_aPlayers@CvPlayerAI@@1PAV1@A ; CvPlayerAI::m_aPlayers

; 31   : 	}

	ret	0
?getPlayer@CvPlayerAI@@SAAAV1@W4PlayerTypes@@@Z ENDP	; CvPlayerAI::getPlayer
_TEXT	ENDS
PUBLIC	??0CvAreaBoundaries@@QAE@XZ			; CvAreaBoundaries::CvAreaBoundaries
; Function compile flags: /Ogtpy
; File c:\users\enormousapplepie\documents\github\lekmod\lekmod_dll\cvgamecoredll_expansion2\cvarea.h
;	COMDAT ??0CvAreaBoundaries@@QAE@XZ
_TEXT	SEGMENT
??0CvAreaBoundaries@@QAE@XZ PROC			; CvAreaBoundaries::CvAreaBoundaries, COMDAT
; _this$ = ecx

; 24   : 	{

	mov	eax, ecx
	xor	ecx, ecx
	mov	DWORD PTR [eax], ecx
	mov	DWORD PTR [eax+4], ecx
	mov	DWORD PTR [eax+8], ecx
	mov	DWORD PTR [eax+12], ecx

; 25   : 	}

	ret	0
??0CvAreaBoundaries@@QAE@XZ ENDP			; CvAreaBoundaries::CvAreaBoundaries
_TEXT	ENDS
PUBLIC	?GetID@CvArea@@QBEHXZ				; CvArea::GetID
; Function compile flags: /Ogtpy
;	COMDAT ?GetID@CvArea@@QBEHXZ
_TEXT	SEGMENT
?GetID@CvArea@@QBEHXZ PROC				; CvArea::GetID, COMDAT
; _this$ = ecx

; 54   : 		return m_iID;

	mov	eax, DWORD PTR [ecx+4]

; 55   : 	}

	ret	0
?GetID@CvArea@@QBEHXZ ENDP				; CvArea::GetID
_TEXT	ENDS
PUBLIC	?isCity@CvPlot@@QBE_NXZ				; CvPlot::isCity
EXTRN	?getCity@CvPlayer@@QAEPAVCvCity@@H@Z:PROC	; CvPlayer::getCity
; Function compile flags: /Ogtpy
; File c:\users\enormousapplepie\documents\github\lekmod\lekmod_dll\cvgamecoredll_expansion2\cvplot.h
;	COMDAT ?isCity@CvPlot@@QBE_NXZ
_TEXT	SEGMENT
?isCity@CvPlot@@QBE_NXZ PROC				; CvPlot::isCity, COMDAT
; _this$ = ecx

; 245  : 		if((m_plotCity.eOwner >= 0) && m_plotCity.eOwner < MAX_PLAYERS)

	mov	eax, DWORD PTR [ecx+104]
	test	eax, eax
	jl	SHORT $LN1@isCity
	cmp	eax, 64					; 00000040H
	jge	SHORT $LN1@isCity

; 246  : 			return (GET_PLAYER((PlayerTypes)m_plotCity.eOwner).getCity(m_plotCity.iID)) != NULL;

	mov	ecx, DWORD PTR [ecx+108]
	imul	eax, 63236				; 0000f704H
	add	eax, DWORD PTR ?m_aPlayers@CvPlayerAI@@1PAV1@A ; CvPlayerAI::m_aPlayers
	push	ecx
	mov	ecx, eax
	call	?getCity@CvPlayer@@QAEPAVCvCity@@H@Z	; CvPlayer::getCity
	neg	eax
	sbb	eax, eax
	neg	eax

; 249  : 	}

	ret	0
$LN1@isCity:

; 247  : 
; 248  : 		return false;

	xor	al, al

; 249  : 	}

	ret	0
?isCity@CvPlot@@QBE_NXZ ENDP				; CvPlot::isCity
_TEXT	ENDS
PUBLIC	?getX@CvPlot@@QBEHXZ				; CvPlot::getX
; Function compile flags: /Ogtpy
;	COMDAT ?getX@CvPlot@@QBEHXZ
_TEXT	SEGMENT
?getX@CvPlot@@QBEHXZ PROC				; CvPlot::getX, COMDAT
; _this$ = ecx

; 307  : 		return m_iX;

	movsx	eax, WORD PTR [ecx]

; 308  : 	}

	ret	0
?getX@CvPlot@@QBEHXZ ENDP				; CvPlot::getX
_TEXT	ENDS
PUBLIC	?getY@CvPlot@@QBEHXZ				; CvPlot::getY
; Function compile flags: /Ogtpy
;	COMDAT ?getY@CvPlot@@QBEHXZ
_TEXT	SEGMENT
?getY@CvPlot@@QBEHXZ PROC				; CvPlot::getY, COMDAT
; _this$ = ecx

; 312  : 		return m_iY;

	movsx	eax, WORD PTR [ecx+2]

; 313  : 	}

	ret	0
?getY@CvPlot@@QBEHXZ ENDP				; CvPlot::getY
_TEXT	ENDS
PUBLIC	?getArea@CvPlot@@QBEHXZ				; CvPlot::getArea
; Function compile flags: /Ogtpy
;	COMDAT ?getArea@CvPlot@@QBEHXZ
_TEXT	SEGMENT
?getArea@CvPlot@@QBEHXZ PROC				; CvPlot::getArea, COMDAT
; _this$ = ecx

; 324  : 		return m_iArea;

	mov	eax, DWORD PTR [ecx+356]

; 325  : 	}

	ret	0
?getArea@CvPlot@@QBEHXZ ENDP				; CvPlot::getArea
_TEXT	ENDS
PUBLIC	?getLandmass@CvPlot@@QBEHXZ			; CvPlot::getLandmass
; Function compile flags: /Ogtpy
;	COMDAT ?getLandmass@CvPlot@@QBEHXZ
_TEXT	SEGMENT
?getLandmass@CvPlot@@QBEHXZ PROC			; CvPlot::getLandmass, COMDAT
; _this$ = ecx

; 331  : 		return m_iLandmass;

	mov	eax, DWORD PTR [ecx+360]

; 332  : 	}

	ret	0
?getLandmass@CvPlot@@QBEHXZ ENDP			; CvPlot::getLandmass
_TEXT	ENDS
PUBLIC	?isWater@CvPlot@@QBE_NXZ			; CvPlot::isWater
; Function compile flags: /Ogtpy
;	COMDAT ?isWater@CvPlot@@QBE_NXZ
_TEXT	SEGMENT
?isWater@CvPlot@@QBE_NXZ PROC				; CvPlot::isWater, COMDAT
; _this$ = ecx

; 409  : 		return (PlotTypes)m_ePlotType == PLOT_OCEAN;

	xor	eax, eax
	cmp	BYTE PTR [ecx+5], 3
	sete	al

; 410  : 	};

	ret	0
?isWater@CvPlot@@QBE_NXZ ENDP				; CvPlot::isWater
_TEXT	ENDS
PUBLIC	?isHills@CvPlot@@QBE_NXZ			; CvPlot::isHills
; Function compile flags: /Ogtpy
;	COMDAT ?isHills@CvPlot@@QBE_NXZ
_TEXT	SEGMENT
?isHills@CvPlot@@QBE_NXZ PROC				; CvPlot::isHills, COMDAT
; _this$ = ecx

; 413  : 		return (PlotTypes)m_ePlotType == PLOT_HILLS;

	xor	eax, eax
	cmp	BYTE PTR [ecx+5], 1
	sete	al

; 414  : 	};

	ret	0
?isHills@CvPlot@@QBE_NXZ ENDP				; CvPlot::isHills
_TEXT	ENDS
PUBLIC	?isMountain@CvPlot@@QBE_NXZ			; CvPlot::isMountain
; Function compile flags: /Ogtpy
;	COMDAT ?isMountain@CvPlot@@QBE_NXZ
_TEXT	SEGMENT
?isMountain@CvPlot@@QBE_NXZ PROC			; CvPlot::isMountain, COMDAT
; _this$ = ecx

; 422  : 		return (PlotTypes)m_ePlotType == PLOT_MOUNTAIN;

	xor	eax, eax
	cmp	BYTE PTR [ecx+5], al
	sete	al

; 423  : 	};

	ret	0
?isMountain@CvPlot@@QBE_NXZ ENDP			; CvPlot::isMountain
_TEXT	ENDS
PUBLIC	?isRiver@CvPlot@@QBE_NXZ			; CvPlot::isRiver
; Function compile flags: /Ogtpy
;	COMDAT ?isRiver@CvPlot@@QBE_NXZ
_TEXT	SEGMENT
?isRiver@CvPlot@@QBE_NXZ PROC				; CvPlot::isRiver, COMDAT
; _this$ = ecx

; 426  : 		return m_iRiverCrossingCount > 0;

	xor	eax, eax
	cmp	BYTE PTR [ecx+457], al
	setg	al

; 427  : 	}

	ret	0
?isRiver@CvPlot@@QBE_NXZ ENDP				; CvPlot::isRiver
_TEXT	ENDS
PUBLIC	?isImpassable@CvPlot@@QBE_NXZ			; CvPlot::isImpassable
; Function compile flags: /Ogtpy
;	COMDAT ?isImpassable@CvPlot@@QBE_NXZ
_TEXT	SEGMENT
?isImpassable@CvPlot@@QBE_NXZ PROC			; CvPlot::isImpassable, COMDAT
; _this$ = ecx

; 444  : 		return m_bIsImpassable;

	mov	al, BYTE PTR [ecx+462]
	shr	al, 7

; 445  : 	}

	ret	0
?isImpassable@CvPlot@@QBE_NXZ ENDP			; CvPlot::isImpassable
_TEXT	ENDS
PUBLIC	?getPlotCity@CvPlot@@QBEPAVCvCity@@XZ		; CvPlot::getPlotCity
; Function compile flags: /Ogtpy
;	COMDAT ?getPlotCity@CvPlot@@QBEPAVCvCity@@XZ
_TEXT	SEGMENT
?getPlotCity@CvPlot@@QBEPAVCvCity@@XZ PROC		; CvPlot::getPlotCity, COMDAT
; _this$ = ecx

; 533  : 		if((m_plotCity.eOwner >= 0) && m_plotCity.eOwner < MAX_PLAYERS)

	mov	eax, DWORD PTR [ecx+104]
	test	eax, eax
	jl	SHORT $LN1@getPlotCit
	cmp	eax, 64					; 00000040H
	jge	SHORT $LN1@getPlotCit

; 534  : 			return (GET_PLAYER((PlayerTypes)m_plotCity.eOwner).getCity(m_plotCity.iID));

	mov	ecx, DWORD PTR [ecx+108]
	imul	eax, 63236				; 0000f704H
	add	eax, DWORD PTR ?m_aPlayers@CvPlayerAI@@1PAV1@A ; CvPlayerAI::m_aPlayers
	push	ecx
	mov	ecx, eax
	call	?getCity@CvPlayer@@QAEPAVCvCity@@H@Z	; CvPlayer::getCity

; 537  : 	}

	ret	0
$LN1@getPlotCit:

; 535  : 
; 536  : 		return NULL;

	xor	eax, eax

; 537  : 	}

	ret	0
?getPlotCity@CvPlot@@QBEPAVCvCity@@XZ ENDP		; CvPlot::getPlotCity
_TEXT	ENDS
PUBLIC	?coordRange@@YAHHH_N@Z				; coordRange
; Function compile flags: /Ogtpy
; File c:\users\enormousapplepie\documents\github\lekmod\lekmod_dll\cvgamecoredll_expansion2\cvmap.h
;	COMDAT ?coordRange@@YAHHH_N@Z
_TEXT	SEGMENT
_iCoord$ = 8						; size = 4
_iRange$ = 12						; size = 4
_bWrap$ = 16						; size = 1
?coordRange@@YAHHH_N@Z PROC				; coordRange, COMDAT

; 88   : 	if(bWrap)

	cmp	BYTE PTR _bWrap$[esp-4], 0
	mov	eax, DWORD PTR _iCoord$[esp-4]
	je	SHORT $LN5@coordRange

; 89   : 	{
; 90   : 		if(iCoord < 0)
; 91   : 		{
; 92   : 			return (iRange + (iCoord % iRange));

	mov	ecx, DWORD PTR _iRange$[esp-4]
	test	eax, eax
	jge	SHORT $LN3@coordRange
	cdq
	idiv	ecx
	mov	eax, edx
	add	eax, ecx

; 97   : 		}
; 98   : 	}
; 99   : 
; 100  : 	return iCoord;
; 101  : }

	ret	0
$LN3@coordRange:

; 93   : 		}
; 94   : 		else if(iCoord >= iRange)

	cmp	eax, ecx
	jl	SHORT $LN5@coordRange

; 95   : 		{
; 96   : 			return (iCoord % iRange);

	cdq
	idiv	ecx
	mov	eax, edx
$LN5@coordRange:

; 97   : 		}
; 98   : 	}
; 99   : 
; 100  : 	return iCoord;
; 101  : }

	ret	0
?coordRange@@YAHHH_N@Z ENDP				; coordRange
_TEXT	ENDS
PUBLIC	?numPlots@CvMap@@QBEHXZ				; CvMap::numPlots
; Function compile flags: /Ogtpy
;	COMDAT ?numPlots@CvMap@@QBEHXZ
_TEXT	SEGMENT
?numPlots@CvMap@@QBEHXZ PROC				; CvMap::numPlots, COMDAT
; _this$ = ecx

; 170  : 		return m_iGridSize;

	mov	eax, DWORD PTR [ecx+4028]

; 171  : 	}

	ret	0
?numPlots@CvMap@@QBEHXZ ENDP				; CvMap::numPlots
_TEXT	ENDS
PUBLIC	?getGridWidth@CvMap@@QBEHXZ			; CvMap::getGridWidth
; Function compile flags: /Ogtpy
;	COMDAT ?getGridWidth@CvMap@@QBEHXZ
_TEXT	SEGMENT
?getGridWidth@CvMap@@QBEHXZ PROC			; CvMap::getGridWidth, COMDAT
; _this$ = ecx

; 198  : 		return m_iGridWidth;

	mov	eax, DWORD PTR [ecx+4020]

; 199  : 	}

	ret	0
?getGridWidth@CvMap@@QBEHXZ ENDP			; CvMap::getGridWidth
_TEXT	ENDS
PUBLIC	?getGridHeight@CvMap@@QBEHXZ			; CvMap::getGridHeight
; Function compile flags: /Ogtpy
;	COMDAT ?getGridHeight@CvMap@@QBEHXZ
_TEXT	SEGMENT
?getGridHeight@CvMap@@QBEHXZ PROC			; CvMap::getGridHeight, COMDAT
; _this$ = ecx

; 206  : 		return m_iGridHeight;

	mov	eax, DWORD PTR [ecx+4024]

; 207  : 	}

	ret	0
?getGridHeight@CvMap@@QBEHXZ ENDP			; CvMap::getGridHeight
_TEXT	ENDS
PUBLIC	?isWrapX@CvMap@@QBE_NXZ				; CvMap::isWrapX
; Function compile flags: /Ogtpy
;	COMDAT ?isWrapX@CvMap@@QBE_NXZ
_TEXT	SEGMENT
?isWrapX@CvMap@@QBE_NXZ PROC				; CvMap::isWrapX, COMDAT
; _this$ = ecx

; 228  : 		return m_bWrapX;

	mov	al, BYTE PTR [ecx+4056]

; 229  : 	}

	ret	0
?isWrapX@CvMap@@QBE_NXZ ENDP				; CvMap::isWrapX
_TEXT	ENDS
PUBLIC	?isWrapY@CvMap@@QBE_NXZ				; CvMap::isWrapY
; Function compile flags: /Ogtpy
;	COMDAT ?isWrapY@CvMap@@QBE_NXZ
_TEXT	SEGMENT
?isWrapY@CvMap@@QBE_NXZ PROC				; CvMap::isWrapY, COMDAT
; _this$ = ecx

; 233  : 		return m_bWrapY;

	mov	al, BYTE PTR [ecx+4057]

; 234  : 	}

	ret	0
?isWrapY@CvMap@@QBE_NXZ ENDP				; CvMap::isWrapY
_TEXT	ENDS
PUBLIC	?plotByIndex@CvMap@@QBEPAVCvPlot@@H@Z		; CvMap::plotByIndex
; Function compile flags: /Ogtpy
;	COMDAT ?plotByIndex@CvMap@@QBEPAVCvPlot@@H@Z
_TEXT	SEGMENT
_iIndex$ = 8						; size = 4
?plotByIndex@CvMap@@QBEPAVCvPlot@@H@Z PROC		; CvMap::plotByIndex, COMDAT
; _this$ = ecx

; 263  : 		return (((iIndex >= 0) && (iIndex < (numPlots()))) ? &(m_pMapPlots[iIndex]) : NULL);

	mov	eax, DWORD PTR _iIndex$[esp-4]
	test	eax, eax
	jl	SHORT $LN3@plotByInde
	cmp	eax, DWORD PTR [ecx+4028]
	jge	SHORT $LN3@plotByInde
	imul	eax, 484				; 000001e4H
	add	eax, DWORD PTR [ecx+4068]

; 264  : 	}

	ret	4
$LN3@plotByInde:

; 263  : 		return (((iIndex >= 0) && (iIndex < (numPlots()))) ? &(m_pMapPlots[iIndex]) : NULL);

	xor	eax, eax

; 264  : 	}

	ret	4
?plotByIndex@CvMap@@QBEPAVCvPlot@@H@Z ENDP		; CvMap::plotByIndex
_TEXT	ENDS
PUBLIC	?plotByIndexUnchecked@CvMap@@QBEPAVCvPlot@@H@Z	; CvMap::plotByIndexUnchecked
; Function compile flags: /Ogtpy
;	COMDAT ?plotByIndexUnchecked@CvMap@@QBEPAVCvPlot@@H@Z
_TEXT	SEGMENT
_iIndex$ = 8						; size = 4
?plotByIndexUnchecked@CvMap@@QBEPAVCvPlot@@H@Z PROC	; CvMap::plotByIndexUnchecked, COMDAT
; _this$ = ecx

; 268  : 		return &m_pMapPlots[iIndex];

	mov	eax, DWORD PTR _iIndex$[esp-4]
	imul	eax, 484				; 000001e4H
	add	eax, DWORD PTR [ecx+4068]

; 269  : 	}

	ret	4
?plotByIndexUnchecked@CvMap@@QBEPAVCvPlot@@H@Z ENDP	; CvMap::plotByIndexUnchecked
_TEXT	ENDS
PUBLIC	?GetLastNode@CvAStar@@QAEPAVCvAStarNode@@XZ	; CvAStar::GetLastNode
; Function compile flags: /Ogtpy
; File c:\users\enormousapplepie\documents\github\lekmod\lekmod_dll\cvgamecoredll_expansion2\cvastar.h
;	COMDAT ?GetLastNode@CvAStar@@QAEPAVCvAStarNode@@XZ
_TEXT	SEGMENT
?GetLastNode@CvAStar@@QAEPAVCvAStarNode@@XZ PROC	; CvAStar::GetLastNode, COMDAT
; _this$ = ecx

; 98   : 		return m_pBest;

	mov	eax, DWORD PTR [ecx+96]

; 99   : 	}

	ret	0
?GetLastNode@CvAStar@@QAEPAVCvAStarNode@@XZ ENDP	; CvAStar::GetLastNode
_TEXT	ENDS
PUBLIC	?SetData@CvAStar@@QAEXPBX@Z			; CvAStar::SetData
; Function compile flags: /Ogtpy
;	COMDAT ?SetData@CvAStar@@QAEXPBX@Z
_TEXT	SEGMENT
_pData$ = 8						; size = 4
?SetData@CvAStar@@QAEXPBX@Z PROC			; CvAStar::SetData, COMDAT
; _this$ = ecx

; 202  : 		if(m_bDataChangeInvalidatesCache && m_pData != pData)

	cmp	BYTE PTR [ecx+80], 0
	mov	eax, DWORD PTR _pData$[esp-4]
	je	SHORT $LN4@SetData
	cmp	DWORD PTR [ecx+44], eax

; 205  : 		m_pData = pData;

	mov	DWORD PTR [ecx+44], eax
	je	SHORT $LN1@SetData

; 203  : #endif
; 204  : 			m_bForceReset = true;

	mov	BYTE PTR [ecx+78], 1

; 206  : #ifdef AUI_ASTAR_TURN_LIMITER
; 207  : 		m_iMaxTurns = iMaxTurns;
; 208  : #endif
; 209  : 	}

	ret	4
$LN4@SetData:

; 205  : 		m_pData = pData;

	mov	DWORD PTR [ecx+44], eax
$LN1@SetData:

; 206  : #ifdef AUI_ASTAR_TURN_LIMITER
; 207  : 		m_iMaxTurns = iMaxTurns;
; 208  : #endif
; 209  : 	}

	ret	4
?SetData@CvAStar@@QAEXPBX@Z ENDP			; CvAStar::SetData
_TEXT	ENDS
PUBLIC	?SetDataChangeInvalidatesCache@CvAStar@@QAE_N_N@Z ; CvAStar::SetDataChangeInvalidatesCache
; Function compile flags: /Ogtpy
;	COMDAT ?SetDataChangeInvalidatesCache@CvAStar@@QAE_N_N@Z
_TEXT	SEGMENT
_bState$ = 8						; size = 1
?SetDataChangeInvalidatesCache@CvAStar@@QAE_N_N@Z PROC	; CvAStar::SetDataChangeInvalidatesCache, COMDAT
; _this$ = ecx

; 235  : 		bool bOldState = m_bDataChangeInvalidatesCache;
; 236  : 		m_bDataChangeInvalidatesCache = bState;

	mov	dl, BYTE PTR _bState$[esp-4]
	mov	al, BYTE PTR [ecx+80]
	mov	BYTE PTR [ecx+80], dl

; 237  : 
; 238  : 		return bOldState;
; 239  : 	}

	ret	4
?SetDataChangeInvalidatesCache@CvAStar@@QAE_N_N@Z ENDP	; CvAStar::SetDataChangeInvalidatesCache
_TEXT	ENDS
PUBLIC	?SetValidFunc@CvAStar@@QAEXP6AHPAVCvAStarNode@@0HPBXPAV1@@Z@Z ; CvAStar::SetValidFunc
; Function compile flags: /Ogtpy
;	COMDAT ?SetValidFunc@CvAStar@@QAEXP6AHPAVCvAStarNode@@0HPBXPAV1@@Z@Z
_TEXT	SEGMENT
_newValidFunc$ = 8					; size = 4
?SetValidFunc@CvAStar@@QAEXP6AHPAVCvAStarNode@@0HPBXPAV1@@Z@Z PROC ; CvAStar::SetValidFunc, COMDAT
; _this$ = ecx

; 308  : 		udValid = newValidFunc;

	mov	eax, DWORD PTR _newValidFunc$[esp-4]
	mov	DWORD PTR [ecx+16], eax

; 309  : 	}

	ret	4
?SetValidFunc@CvAStar@@QAEXP6AHPAVCvAStarNode@@0HPBXPAV1@@Z@Z ENDP ; CvAStar::SetValidFunc
_TEXT	ENDS
PUBLIC	?SetNotifyListFunc@CvAStar@@QAEXP6AHPAVCvAStarNode@@0HPBXPAV1@@Z@Z ; CvAStar::SetNotifyListFunc
; Function compile flags: /Ogtpy
;	COMDAT ?SetNotifyListFunc@CvAStar@@QAEXP6AHPAVCvAStarNode@@0HPBXPAV1@@Z@Z
_TEXT	SEGMENT
_newNotifyListFunc$ = 8					; size = 4
?SetNotifyListFunc@CvAStar@@QAEXP6AHPAVCvAStarNode@@0HPBXPAV1@@Z@Z PROC ; CvAStar::SetNotifyListFunc, COMDAT
; _this$ = ecx

; 336  : 		udNotifyList = newNotifyListFunc;

	mov	eax, DWORD PTR _newNotifyListFunc$[esp-4]
	mov	DWORD PTR [ecx+24], eax

; 337  : 	}

	ret	4
?SetNotifyListFunc@CvAStar@@QAEXP6AHPAVCvAStarNode@@0HPBXPAV1@@Z@Z ENDP ; CvAStar::SetNotifyListFunc
_TEXT	ENDS
PUBLIC	??A?$vector@W4TeamTypes@@V?$allocator@W4TeamTypes@@@std@@@std@@QBEABW4TeamTypes@@I@Z ; std::vector<enum TeamTypes,std::allocator<enum TeamTypes> >::operator[]
; Function compile flags: /Ogtpy
; File c:\program files (x86)\microsoft visual studio 9.0\vc\include\vector
;	COMDAT ??A?$vector@W4TeamTypes@@V?$allocator@W4TeamTypes@@@std@@@std@@QBEABW4TeamTypes@@I@Z
_TEXT	SEGMENT
__Pos$ = 8						; size = 4
??A?$vector@W4TeamTypes@@V?$allocator@W4TeamTypes@@@std@@@std@@QBEABW4TeamTypes@@I@Z PROC ; std::vector<enum TeamTypes,std::allocator<enum TeamTypes> >::operator[], COMDAT
; _this$ = ecx

; 760  : 
; 761  :  #if _HAS_ITERATOR_DEBUGGING
; 762  : 		if (size() <= _Pos)
; 763  : 			{
; 764  : 			_DEBUG_ERROR("vector subscript out of range");
; 765  : 			_SCL_SECURE_OUT_OF_RANGE;
; 766  : 			}
; 767  :  #endif /* _HAS_ITERATOR_DEBUGGING */
; 768  : 		_SCL_SECURE_VALIDATE_RANGE(_Pos < size());
; 769  : 
; 770  : 		return (*(_Myfirst + _Pos));

	mov	eax, DWORD PTR [ecx+4]
	mov	ecx, DWORD PTR __Pos$[esp-4]
	lea	eax, DWORD PTR [eax+ecx*4]

; 771  : 		}

	ret	4
??A?$vector@W4TeamTypes@@V?$allocator@W4TeamTypes@@@std@@@std@@QBEABW4TeamTypes@@I@Z ENDP ; std::vector<enum TeamTypes,std::allocator<enum TeamTypes> >::operator[]
_TEXT	ENDS
PUBLIC	??1?$FFreeListArrayBase@VCvArea@@@@UAE@XZ	; FFreeListArrayBase<CvArea>::~FFreeListArrayBase<CvArea>
; Function compile flags: /Ogtpy
; File c:\users\enormousapplepie\documents\github\lekmod\lekmod_dll\fireplace\include\fireworks\ffreelistarraybase.h
;	COMDAT ??1?$FFreeListArrayBase@VCvArea@@@@UAE@XZ
_TEXT	SEGMENT
??1?$FFreeListArrayBase@VCvArea@@@@UAE@XZ PROC		; FFreeListArrayBase<CvArea>::~FFreeListArrayBase<CvArea>, COMDAT
; _this$ = ecx

; 34   : 	virtual ~FFreeListArrayBase() {}

	mov	DWORD PTR [ecx], OFFSET ??_7?$FFreeListArrayBase@VCvArea@@@@6B@
	ret	0
??1?$FFreeListArrayBase@VCvArea@@@@UAE@XZ ENDP		; FFreeListArrayBase<CvArea>::~FFreeListArrayBase<CvArea>
_TEXT	ENDS
PUBLIC	??1?$FFreeListArrayBase@VCvLandmass@@@@UAE@XZ	; FFreeListArrayBase<CvLandmass>::~FFreeListArrayBase<CvLandmass>
; Function compile flags: /Ogtpy
;	COMDAT ??1?$FFreeListArrayBase@VCvLandmass@@@@UAE@XZ
_TEXT	SEGMENT
??1?$FFreeListArrayBase@VCvLandmass@@@@UAE@XZ PROC	; FFreeListArrayBase<CvLandmass>::~FFreeListArrayBase<CvLandmass>, COMDAT
; _this$ = ecx

; 34   : 	virtual ~FFreeListArrayBase() {}

	mov	DWORD PTR [ecx], OFFSET ??_7?$FFreeListArrayBase@VCvLandmass@@@@6B@
	ret	0
??1?$FFreeListArrayBase@VCvLandmass@@@@UAE@XZ ENDP	; FFreeListArrayBase<CvLandmass>::~FFreeListArrayBase<CvLandmass>
; Function compile flags: /Ogtpy
_TEXT	ENDS
;	COMDAT ??_G?$FFreeListArrayBase@VCvArea@@@@UAEPAXI@Z
_TEXT	SEGMENT
___flags$ = 8						; size = 4
??_G?$FFreeListArrayBase@VCvArea@@@@UAEPAXI@Z PROC	; FFreeListArrayBase<CvArea>::`scalar deleting destructor', COMDAT
; _this$ = ecx
	test	BYTE PTR ___flags$[esp-4], 1
	push	esi
	mov	esi, ecx
	mov	DWORD PTR [esi], OFFSET ??_7?$FFreeListArrayBase@VCvArea@@@@6B@
	je	SHORT $LN6@scalar
	push	esi
	call	??3@YAXPAX@Z				; operator delete
	add	esp, 4
$LN6@scalar:
	mov	eax, esi
	pop	esi
	ret	4
??_G?$FFreeListArrayBase@VCvArea@@@@UAEPAXI@Z ENDP	; FFreeListArrayBase<CvArea>::`scalar deleting destructor'
; Function compile flags: /Ogtpy
_TEXT	ENDS
;	COMDAT ??_G?$FFreeListArrayBase@VCvLandmass@@@@UAEPAXI@Z
_TEXT	SEGMENT
___flags$ = 8						; size = 4
??_G?$FFreeListArrayBase@VCvLandmass@@@@UAEPAXI@Z PROC	; FFreeListArrayBase<CvLandmass>::`scalar deleting destructor', COMDAT
; _this$ = ecx
	test	BYTE PTR ___flags$[esp-4], 1
	push	esi
	mov	esi, ecx
	mov	DWORD PTR [esi], OFFSET ??_7?$FFreeListArrayBase@VCvLandmass@@@@6B@
	je	SHORT $LN6@scalar@2
	push	esi
	call	??3@YAXPAX@Z				; operator delete
	add	esp, 4
$LN6@scalar@2:
	mov	eax, esi
	pop	esi
	ret	4
??_G?$FFreeListArrayBase@VCvLandmass@@@@UAEPAXI@Z ENDP	; FFreeListArrayBase<CvLandmass>::`scalar deleting destructor'
_TEXT	ENDS
PUBLIC	?get@?$FAutoVariable@HVCvUnit@@@@QBEABHXZ	; FAutoVariable<int,CvUnit>::get
; Function compile flags: /Ogtpy
; File c:\users\enormousapplepie\documents\github\lekmod\lekmod_dll\fireplace\include\fireworks\fautovariable.h
;	COMDAT ?get@?$FAutoVariable@HVCvUnit@@@@QBEABHXZ
_TEXT	SEGMENT
?get@?$FAutoVariable@HVCvUnit@@@@QBEABHXZ PROC		; FAutoVariable<int,CvUnit>::get, COMDAT
; _this$ = ecx

; 177  : 	return m_value;

	lea	eax, DWORD PTR [ecx+4]

; 178  : }

	ret	0
?get@?$FAutoVariable@HVCvUnit@@@@QBEABHXZ ENDP		; FAutoVariable<int,CvUnit>::get
_TEXT	ENDS
PUBLIC	??$?6H@FDataStream@@QAEAAV0@ABH@Z		; FDataStream::operator<<<int>
EXTRN	?Write@FDataStream@@IAEXABH@Z:PROC		; FDataStream::Write
; Function compile flags: /Ogtpy
; File c:\users\enormousapplepie\documents\github\lekmod\lekmod_dll\fireplace\include\fireworks\fdatastream.h
;	COMDAT ??$?6H@FDataStream@@QAEAAV0@ABH@Z
_TEXT	SEGMENT
_kData$ = 8						; size = 4
??$?6H@FDataStream@@QAEAAV0@ABH@Z PROC			; FDataStream::operator<<<int>, COMDAT
; _this$ = ecx

; 246  : 	// If the compiler produces an error here complaining about 
; 247  : 	// YouMustImplementASerializeOperatorForThisTypeError then
; 248  : 	// it could not find a specialization for the type supplied
; 249  : 	// in scope. If a specialization exists, be sure to include
; 250  : 	// the header (FStlContainerSerialization.h, for example), 
; 251  : 	// if not, implement :
; 252  : 	// FDataStream & operator<<(FDataStream &, YourCustomType &)
; 253  : 	Write( kData );

	mov	eax, DWORD PTR _kData$[esp-4]
	push	esi
	push	eax
	mov	esi, ecx
	call	?Write@FDataStream@@IAEXABH@Z		; FDataStream::Write

; 254  : 	return ( *this );

	mov	eax, esi
	pop	esi

; 255  : }

	ret	4
??$?6H@FDataStream@@QAEAAV0@ABH@Z ENDP			; FDataStream::operator<<<int>
_TEXT	ENDS
PUBLIC	??$?5H@FDataStream@@QAEAAV0@AAH@Z		; FDataStream::operator>><int>
EXTRN	?Read@FDataStream@@IAEXAAH@Z:PROC		; FDataStream::Read
; Function compile flags: /Ogtpy
;	COMDAT ??$?5H@FDataStream@@QAEAAV0@AAH@Z
_TEXT	SEGMENT
_kData$ = 8						; size = 4
??$?5H@FDataStream@@QAEAAV0@AAH@Z PROC			; FDataStream::operator>><int>, COMDAT
; _this$ = ecx

; 260  : 	// If the compiler produces an error here complaining about 
; 261  : 	// YouMustImplementASerializeOperatorForThisTypeError then
; 262  : 	// it could not find a specialization for the type supplied
; 263  : 	// in scope. If a specialization exists, be sure to include
; 264  : 	// the header (FStlContainerSerialization.h, for example), 
; 265  : 	// if not, implement :
; 266  : 	// FDataStream & operator>>(FDataStream &, YourCustomType &)
; 267  : 	Read( kData );

	mov	eax, DWORD PTR _kData$[esp-4]
	push	esi
	push	eax
	mov	esi, ecx
	call	?Read@FDataStream@@IAEXAAH@Z		; FDataStream::Read

; 268  : 	return ( *this );

	mov	eax, esi
	pop	esi

; 269  : }

	ret	4
??$?5H@FDataStream@@QAEAAV0@AAH@Z ENDP			; FDataStream::operator>><int>
_TEXT	ENDS
PUBLIC	??B?$FAutoVariable@HVCvCity@@@@QBEABHXZ		; FAutoVariable<int,CvCity>::operator int const &
; Function compile flags: /Ogtpy
; File c:\users\enormousapplepie\documents\github\lekmod\lekmod_dll\fireplace\include\fireworks\fautovariable.h
;	COMDAT ??B?$FAutoVariable@HVCvCity@@@@QBEABHXZ
_TEXT	SEGMENT
??B?$FAutoVariable@HVCvCity@@@@QBEABHXZ PROC		; FAutoVariable<int,CvCity>::operator int const &, COMDAT
; _this$ = ecx

; 194  : 	return m_value;

	lea	eax, DWORD PTR [ecx+4]

; 195  : }

	ret	0
??B?$FAutoVariable@HVCvCity@@@@QBEABHXZ ENDP		; FAutoVariable<int,CvCity>::operator int const &
_TEXT	ENDS
PUBLIC	??B?$FAutoVariable@W4PlayerTypes@@VCvPlayer@@@@QBEABW4PlayerTypes@@XZ ; FAutoVariable<enum PlayerTypes,CvPlayer>::operator enum PlayerTypes const &
; Function compile flags: /Ogtpy
;	COMDAT ??B?$FAutoVariable@W4PlayerTypes@@VCvPlayer@@@@QBEABW4PlayerTypes@@XZ
_TEXT	SEGMENT
??B?$FAutoVariable@W4PlayerTypes@@VCvPlayer@@@@QBEABW4PlayerTypes@@XZ PROC ; FAutoVariable<enum PlayerTypes,CvPlayer>::operator enum PlayerTypes const &, COMDAT
; _this$ = ecx

; 194  : 	return m_value;

	lea	eax, DWORD PTR [ecx+4]

; 195  : }

	ret	0
??B?$FAutoVariable@W4PlayerTypes@@VCvPlayer@@@@QBEABW4PlayerTypes@@XZ ENDP ; FAutoVariable<enum PlayerTypes,CvPlayer>::operator enum PlayerTypes const &
_TEXT	ENDS
PUBLIC	??B?$FAutoVariable@_NVCvPlayer@@@@QBEAB_NXZ	; FAutoVariable<bool,CvPlayer>::operator bool const &
; Function compile flags: /Ogtpy
;	COMDAT ??B?$FAutoVariable@_NVCvPlayer@@@@QBEAB_NXZ
_TEXT	SEGMENT
??B?$FAutoVariable@_NVCvPlayer@@@@QBEAB_NXZ PROC	; FAutoVariable<bool,CvPlayer>::operator bool const &, COMDAT
; _this$ = ecx

; 194  : 	return m_value;

	lea	eax, DWORD PTR [ecx+4]

; 195  : }

	ret	0
??B?$FAutoVariable@_NVCvPlayer@@@@QBEAB_NXZ ENDP	; FAutoVariable<bool,CvPlayer>::operator bool const &
_TEXT	ENDS
PUBLIC	??_GCvArea@@QAEPAXI@Z				; CvArea::`scalar deleting destructor'
EXTRN	??1CvArea@@QAE@XZ:PROC				; CvArea::~CvArea
; Function compile flags: /Ogtpy
;	COMDAT ??_GCvArea@@QAEPAXI@Z
_TEXT	SEGMENT
___flags$ = 8						; size = 4
??_GCvArea@@QAEPAXI@Z PROC				; CvArea::`scalar deleting destructor', COMDAT
; _this$ = ecx
	push	esi
	mov	esi, ecx
	call	??1CvArea@@QAE@XZ			; CvArea::~CvArea
	test	BYTE PTR ___flags$[esp], 1
	je	SHORT $LN4@scalar@3
	push	esi
	call	??3@YAXPAX@Z				; operator delete
	add	esp, 4
$LN4@scalar@3:
	mov	eax, esi
	pop	esi
	ret	4
??_GCvArea@@QAEPAXI@Z ENDP				; CvArea::`scalar deleting destructor'
_TEXT	ENDS
PUBLIC	??$?5_N@FDataStream@@QAEAAV0@AA_N@Z		; FDataStream::operator>><bool>
EXTRN	?Read@FDataStream@@IAEXAA_N@Z:PROC		; FDataStream::Read
; Function compile flags: /Ogtpy
; File c:\users\enormousapplepie\documents\github\lekmod\lekmod_dll\fireplace\include\fireworks\fdatastream.h
;	COMDAT ??$?5_N@FDataStream@@QAEAAV0@AA_N@Z
_TEXT	SEGMENT
_kData$ = 8						; size = 4
??$?5_N@FDataStream@@QAEAAV0@AA_N@Z PROC		; FDataStream::operator>><bool>, COMDAT
; _this$ = ecx

; 260  : 	// If the compiler produces an error here complaining about 
; 261  : 	// YouMustImplementASerializeOperatorForThisTypeError then
; 262  : 	// it could not find a specialization for the type supplied
; 263  : 	// in scope. If a specialization exists, be sure to include
; 264  : 	// the header (FStlContainerSerialization.h, for example), 
; 265  : 	// if not, implement :
; 266  : 	// FDataStream & operator>>(FDataStream &, YourCustomType &)
; 267  : 	Read( kData );

	mov	eax, DWORD PTR _kData$[esp-4]
	push	esi
	push	eax
	mov	esi, ecx
	call	?Read@FDataStream@@IAEXAA_N@Z		; FDataStream::Read

; 268  : 	return ( *this );

	mov	eax, esi
	pop	esi

; 269  : }

	ret	4
??$?5_N@FDataStream@@QAEAAV0@AA_N@Z ENDP		; FDataStream::operator>><bool>
_TEXT	ENDS
PUBLIC	??$?6_N@FDataStream@@QAEAAV0@AB_N@Z		; FDataStream::operator<<<bool>
EXTRN	?Write@FDataStream@@IAEXAB_N@Z:PROC		; FDataStream::Write
; Function compile flags: /Ogtpy
;	COMDAT ??$?6_N@FDataStream@@QAEAAV0@AB_N@Z
_TEXT	SEGMENT
_kData$ = 8						; size = 4
??$?6_N@FDataStream@@QAEAAV0@AB_N@Z PROC		; FDataStream::operator<<<bool>, COMDAT
; _this$ = ecx

; 246  : 	// If the compiler produces an error here complaining about 
; 247  : 	// YouMustImplementASerializeOperatorForThisTypeError then
; 248  : 	// it could not find a specialization for the type supplied
; 249  : 	// in scope. If a specialization exists, be sure to include
; 250  : 	// the header (FStlContainerSerialization.h, for example), 
; 251  : 	// if not, implement :
; 252  : 	// FDataStream & operator<<(FDataStream &, YourCustomType &)
; 253  : 	Write( kData );

	mov	eax, DWORD PTR _kData$[esp-4]
	push	esi
	push	eax
	mov	esi, ecx
	call	?Write@FDataStream@@IAEXAB_N@Z		; FDataStream::Write

; 254  : 	return ( *this );

	mov	eax, esi
	pop	esi

; 255  : }

	ret	4
??$?6_N@FDataStream@@QAEAAV0@AB_N@Z ENDP		; FDataStream::operator<<<bool>
_TEXT	ENDS
PUBLIC	??$?5I@FDataStream@@QAEAAV0@AAI@Z		; FDataStream::operator>><unsigned int>
EXTRN	?Read@FDataStream@@IAEXAAI@Z:PROC		; FDataStream::Read
; Function compile flags: /Ogtpy
;	COMDAT ??$?5I@FDataStream@@QAEAAV0@AAI@Z
_TEXT	SEGMENT
_kData$ = 8						; size = 4
??$?5I@FDataStream@@QAEAAV0@AAI@Z PROC			; FDataStream::operator>><unsigned int>, COMDAT
; _this$ = ecx

; 260  : 	// If the compiler produces an error here complaining about 
; 261  : 	// YouMustImplementASerializeOperatorForThisTypeError then
; 262  : 	// it could not find a specialization for the type supplied
; 263  : 	// in scope. If a specialization exists, be sure to include
; 264  : 	// the header (FStlContainerSerialization.h, for example), 
; 265  : 	// if not, implement :
; 266  : 	// FDataStream & operator>>(FDataStream &, YourCustomType &)
; 267  : 	Read( kData );

	mov	eax, DWORD PTR _kData$[esp-4]
	push	esi
	push	eax
	mov	esi, ecx
	call	?Read@FDataStream@@IAEXAAI@Z		; FDataStream::Read

; 268  : 	return ( *this );

	mov	eax, esi
	pop	esi

; 269  : }

	ret	4
??$?5I@FDataStream@@QAEAAV0@AAI@Z ENDP			; FDataStream::operator>><unsigned int>
_TEXT	ENDS
PUBLIC	??$?6I@FDataStream@@QAEAAV0@ABI@Z		; FDataStream::operator<<<unsigned int>
EXTRN	?Write@FDataStream@@IAEXABI@Z:PROC		; FDataStream::Write
; Function compile flags: /Ogtpy
;	COMDAT ??$?6I@FDataStream@@QAEAAV0@ABI@Z
_TEXT	SEGMENT
_kData$ = 8						; size = 4
??$?6I@FDataStream@@QAEAAV0@ABI@Z PROC			; FDataStream::operator<<<unsigned int>, COMDAT
; _this$ = ecx

; 246  : 	// If the compiler produces an error here complaining about 
; 247  : 	// YouMustImplementASerializeOperatorForThisTypeError then
; 248  : 	// it could not find a specialization for the type supplied
; 249  : 	// in scope. If a specialization exists, be sure to include
; 250  : 	// the header (FStlContainerSerialization.h, for example), 
; 251  : 	// if not, implement :
; 252  : 	// FDataStream & operator<<(FDataStream &, YourCustomType &)
; 253  : 	Write( kData );

	mov	eax, DWORD PTR _kData$[esp-4]
	push	esi
	push	eax
	mov	esi, ecx
	call	?Write@FDataStream@@IAEXABI@Z		; FDataStream::Write

; 254  : 	return ( *this );

	mov	eax, esi
	pop	esi

; 255  : }

	ret	4
??$?6I@FDataStream@@QAEAAV0@ABI@Z ENDP			; FDataStream::operator<<<unsigned int>
_TEXT	ENDS
PUBLIC	??$?5D@FDataStream@@QAEAAV0@AAD@Z		; FDataStream::operator>><char>
EXTRN	?Read@FDataStream@@IAEXAAD@Z:PROC		; FDataStream::Read
; Function compile flags: /Ogtpy
;	COMDAT ??$?5D@FDataStream@@QAEAAV0@AAD@Z
_TEXT	SEGMENT
_kData$ = 8						; size = 4
??$?5D@FDataStream@@QAEAAV0@AAD@Z PROC			; FDataStream::operator>><char>, COMDAT
; _this$ = ecx

; 260  : 	// If the compiler produces an error here complaining about 
; 261  : 	// YouMustImplementASerializeOperatorForThisTypeError then
; 262  : 	// it could not find a specialization for the type supplied
; 263  : 	// in scope. If a specialization exists, be sure to include
; 264  : 	// the header (FStlContainerSerialization.h, for example), 
; 265  : 	// if not, implement :
; 266  : 	// FDataStream & operator>>(FDataStream &, YourCustomType &)
; 267  : 	Read( kData );

	mov	eax, DWORD PTR _kData$[esp-4]
	push	esi
	push	eax
	mov	esi, ecx
	call	?Read@FDataStream@@IAEXAAD@Z		; FDataStream::Read

; 268  : 	return ( *this );

	mov	eax, esi
	pop	esi

; 269  : }

	ret	4
??$?5D@FDataStream@@QAEAAV0@AAD@Z ENDP			; FDataStream::operator>><char>
_TEXT	ENDS
PUBLIC	??$?6D@FDataStream@@QAEAAV0@ABD@Z		; FDataStream::operator<<<char>
EXTRN	?Write@FDataStream@@IAEXABD@Z:PROC		; FDataStream::Write
; Function compile flags: /Ogtpy
;	COMDAT ??$?6D@FDataStream@@QAEAAV0@ABD@Z
_TEXT	SEGMENT
_kData$ = 8						; size = 4
??$?6D@FDataStream@@QAEAAV0@ABD@Z PROC			; FDataStream::operator<<<char>, COMDAT
; _this$ = ecx

; 246  : 	// If the compiler produces an error here complaining about 
; 247  : 	// YouMustImplementASerializeOperatorForThisTypeError then
; 248  : 	// it could not find a specialization for the type supplied
; 249  : 	// in scope. If a specialization exists, be sure to include
; 250  : 	// the header (FStlContainerSerialization.h, for example), 
; 251  : 	// if not, implement :
; 252  : 	// FDataStream & operator<<(FDataStream &, YourCustomType &)
; 253  : 	Write( kData );

	mov	eax, DWORD PTR _kData$[esp-4]
	push	esi
	push	eax
	mov	esi, ecx
	call	?Write@FDataStream@@IAEXABD@Z		; FDataStream::Write

; 254  : 	return ( *this );

	mov	eax, esi
	pop	esi

; 255  : }

	ret	4
??$?6D@FDataStream@@QAEAAV0@ABD@Z ENDP			; FDataStream::operator<<<char>
_TEXT	ENDS
PUBLIC	??$SAFE_DELETE_ARRAY@UFFreeListTrashArrayNode@?$FFreeListTrashArray@VCvArea@@@@@@YAXAAPAUFFreeListTrashArrayNode@?$FFreeListTrashArray@VCvArea@@@@@Z ; SAFE_DELETE_ARRAY<FFreeListTrashArray<CvArea>::FFreeListTrashArrayNode>
; Function compile flags: /Ogtpy
; File c:\users\enormousapplepie\documents\github\lekmod\lekmod_dll\fireplace\include\fireworks\ffiretypes.h
;	COMDAT ??$SAFE_DELETE_ARRAY@UFFreeListTrashArrayNode@?$FFreeListTrashArray@VCvArea@@@@@@YAXAAPAUFFreeListTrashArrayNode@?$FFreeListTrashArray@VCvArea@@@@@Z
_TEXT	SEGMENT
_pkInstanceArray$ = 8					; size = 4
??$SAFE_DELETE_ARRAY@UFFreeListTrashArrayNode@?$FFreeListTrashArray@VCvArea@@@@@@YAXAAPAUFFreeListTrashArrayNode@?$FFreeListTrashArray@VCvArea@@@@@Z PROC ; SAFE_DELETE_ARRAY<FFreeListTrashArray<CvArea>::FFreeListTrashArrayNode>, COMDAT

; 311  : {

	push	esi

; 312  : 	delete[] pkInstanceArray;

	mov	esi, DWORD PTR _pkInstanceArray$[esp]
	mov	eax, DWORD PTR [esi]
	push	eax
	call	??_V@YAXPAX@Z				; operator delete[]
	add	esp, 4

; 313  : 	pkInstanceArray = NULL;

	mov	DWORD PTR [esi], 0
	pop	esi

; 314  : };

	ret	0
??$SAFE_DELETE_ARRAY@UFFreeListTrashArrayNode@?$FFreeListTrashArray@VCvArea@@@@@@YAXAAPAUFFreeListTrashArrayNode@?$FFreeListTrashArray@VCvArea@@@@@Z ENDP ; SAFE_DELETE_ARRAY<FFreeListTrashArray<CvArea>::FFreeListTrashArrayNode>
_TEXT	ENDS
PUBLIC	??$SAFE_DELETE_ARRAY@UFFreeListTrashArrayNode@?$FFreeListTrashArray@VCvLandmass@@@@@@YAXAAPAUFFreeListTrashArrayNode@?$FFreeListTrashArray@VCvLandmass@@@@@Z ; SAFE_DELETE_ARRAY<FFreeListTrashArray<CvLandmass>::FFreeListTrashArrayNode>
; Function compile flags: /Ogtpy
;	COMDAT ??$SAFE_DELETE_ARRAY@UFFreeListTrashArrayNode@?$FFreeListTrashArray@VCvLandmass@@@@@@YAXAAPAUFFreeListTrashArrayNode@?$FFreeListTrashArray@VCvLandmass@@@@@Z
_TEXT	SEGMENT
_pkInstanceArray$ = 8					; size = 4
??$SAFE_DELETE_ARRAY@UFFreeListTrashArrayNode@?$FFreeListTrashArray@VCvLandmass@@@@@@YAXAAPAUFFreeListTrashArrayNode@?$FFreeListTrashArray@VCvLandmass@@@@@Z PROC ; SAFE_DELETE_ARRAY<FFreeListTrashArray<CvLandmass>::FFreeListTrashArrayNode>, COMDAT

; 311  : {

	push	esi

; 312  : 	delete[] pkInstanceArray;

	mov	esi, DWORD PTR _pkInstanceArray$[esp]
	mov	eax, DWORD PTR [esi]
	push	eax
	call	??_V@YAXPAX@Z				; operator delete[]
	add	esp, 4

; 313  : 	pkInstanceArray = NULL;

	mov	DWORD PTR [esi], 0
	pop	esi

; 314  : };

	ret	0
??$SAFE_DELETE_ARRAY@UFFreeListTrashArrayNode@?$FFreeListTrashArray@VCvLandmass@@@@@@YAXAAPAUFFreeListTrashArrayNode@?$FFreeListTrashArray@VCvLandmass@@@@@Z ENDP ; SAFE_DELETE_ARRAY<FFreeListTrashArray<CvLandmass>::FFreeListTrashArrayNode>
_TEXT	ENDS
PUBLIC	?dxWrap@@YAHH@Z					; dxWrap
EXTRN	?gGlobals@@3VCvGlobals@@A:BYTE			; gGlobals
; Function compile flags: /Ogtpy
; File c:\users\enormousapplepie\documents\github\lekmod\lekmod_dll\cvgamecoredll_expansion2\cvgamecoreutils.h
;	COMDAT ?dxWrap@@YAHH@Z
_TEXT	SEGMENT
_iDX$ = 8						; size = 4
?dxWrap@@YAHH@Z PROC					; dxWrap, COMDAT

; 74   : 	const CvMap& kMap = GC.getMap();

	mov	eax, DWORD PTR ?gGlobals@@3VCvGlobals@@A+52

; 75   : 	return wrapCoordDifference(iDX, kMap.getGridWidth(), kMap.isWrapX());

	mov	edx, DWORD PTR [eax+4020]
	cmp	BYTE PTR [eax+4056], 0
	mov	eax, DWORD PTR _iDX$[esp-4]
	je	SHORT $LN13@dxWrap
	mov	ecx, edx
	shr	ecx, 1
	cmp	eax, ecx
	jle	SHORT $LN11@dxWrap
	sub	eax, edx

; 76   : }

	ret	0

; 75   : 	return wrapCoordDifference(iDX, kMap.getGridWidth(), kMap.isWrapX());

$LN11@dxWrap:
	neg	ecx
	cmp	eax, ecx
	jge	SHORT $LN13@dxWrap
	add	eax, edx
$LN13@dxWrap:

; 76   : }

	ret	0
?dxWrap@@YAHH@Z ENDP					; dxWrap
_TEXT	ENDS
PUBLIC	?dyWrap@@YAHH@Z					; dyWrap
; Function compile flags: /Ogtpy
;	COMDAT ?dyWrap@@YAHH@Z
_TEXT	SEGMENT
_iDY$ = 8						; size = 4
?dyWrap@@YAHH@Z PROC					; dyWrap, COMDAT

; 80   : 	const CvMap& kMap = GC.getMap();

	mov	eax, DWORD PTR ?gGlobals@@3VCvGlobals@@A+52

; 81   : 	return wrapCoordDifference(iDY, kMap.getGridHeight(), kMap.isWrapY());

	mov	edx, DWORD PTR [eax+4024]
	cmp	BYTE PTR [eax+4057], 0
	mov	eax, DWORD PTR _iDY$[esp-4]
	je	SHORT $LN13@dyWrap
	mov	ecx, edx
	shr	ecx, 1
	cmp	eax, ecx
	jle	SHORT $LN11@dyWrap
	sub	eax, edx

; 82   : }

	ret	0

; 81   : 	return wrapCoordDifference(iDY, kMap.getGridHeight(), kMap.isWrapY());

$LN11@dyWrap:
	neg	ecx
	cmp	eax, ecx
	jge	SHORT $LN13@dyWrap
	add	eax, edx
$LN13@dyWrap:

; 82   : }

	ret	0
?dyWrap@@YAHH@Z ENDP					; dyWrap
_TEXT	ENDS
PUBLIC	?plotDistance@@YAHHHHH@Z			; plotDistance
; Function compile flags: /Ogtpy
;	COMDAT ?plotDistance@@YAHHHHH@Z
_TEXT	SEGMENT
_iDX$ = 8						; size = 4
_iX1$ = 8						; size = 4
_iY1$ = 12						; size = 4
_iDY$ = 16						; size = 4
_iX2$ = 16						; size = 4
_iY2$ = 20						; size = 4
?plotDistance@@YAHHHHH@Z PROC				; plotDistance, COMDAT

; 145  : 	int iDX;
; 146  : 	int iWrappedDX = dxWrap(iX2 - iX1);

	mov	eax, DWORD PTR _iX2$[esp-4]
	sub	eax, DWORD PTR _iX1$[esp-4]
	push	ebx
	mov	ebx, DWORD PTR ?gGlobals@@3VCvGlobals@@A+52
	cmp	BYTE PTR [ebx+4056], 0
	mov	edx, DWORD PTR [ebx+4020]
	push	ebp
	push	esi
	je	SHORT $LN13@plotDistan
	mov	ecx, edx
	shr	ecx, 1
	cmp	eax, ecx
	jle	SHORT $LN15@plotDistan
	sub	eax, edx
	jmp	SHORT $LN13@plotDistan
$LN15@plotDistan:
	neg	ecx
	cmp	eax, ecx
	lea	ecx, DWORD PTR [edx+eax]
	jl	SHORT $LN17@plotDistan
$LN13@plotDistan:
	mov	ecx, eax
$LN17@plotDistan:

; 147  : 	int iWrappedDY = dyWrap(iY2 - iY1);

	mov	eax, DWORD PTR _iY2$[esp+8]
	mov	esi, DWORD PTR [ebx+4024]
	push	edi
	mov	edi, DWORD PTR _iY1$[esp+12]
	sub	eax, edi
	cmp	BYTE PTR [ebx+4057], 0
	je	SHORT $LN27@plotDistan
	mov	edx, esi
	shr	edx, 1
	cmp	eax, edx
	jle	SHORT $LN29@plotDistan
	sub	eax, esi
	jmp	SHORT $LN27@plotDistan
$LN29@plotDistan:
	neg	edx
	cmp	eax, edx
	lea	ebp, DWORD PTR [esi+eax]
	jl	SHORT $LN31@plotDistan
$LN27@plotDistan:
	mov	ebp, eax
$LN31@plotDistan:

; 148  : 	int iDY = abs(iWrappedDY);

	mov	eax, ebp
	cdq
	xor	eax, edx
	sub	eax, edx
	mov	DWORD PTR _iDY$[esp+12], eax

; 149  : 
; 150  : 	// convert to hex-space coordinates - the coordinate system axes are E and NE (not orthogonal)
; 151  : 	int iHX1 = xToHexspaceX(iX1, iY1);

	test	edi, edi
	jl	SHORT $LN35@plotDistan
	mov	eax, edi
	jmp	SHORT $LN59@plotDistan
$LN35@plotDistan:
	lea	eax, DWORD PTR [edi-1]
	cdq
	sub	eax, edx
$LN59@plotDistan:
	mov	esi, DWORD PTR _iX1$[esp+12]
	sar	eax, 1
	sub	esi, eax

; 152  : 	int iHX2 = xToHexspaceX(iX1 + iWrappedDX, iY1 + iWrappedDY);

	lea	eax, DWORD PTR [edi+ebp]
	pop	edi
	test	eax, eax
	jge	SHORT $LN60@plotDistan
	dec	eax
	cdq
	sub	eax, edx
$LN60@plotDistan:

; 153  : 
; 154  : 	iDX = abs(dxWrap(iHX2 - iHX1));

	mov	edx, DWORD PTR [ebx+4020]
	sar	eax, 1
	sub	ecx, eax
	add	ecx, DWORD PTR _iX1$[esp+8]
	sub	ecx, esi
	cmp	BYTE PTR [ebx+4056], 0
	je	SHORT $LN49@plotDistan
	mov	eax, edx
	shr	eax, 1
	cmp	ecx, eax
	jle	SHORT $LN51@plotDistan
	mov	eax, ecx
	sub	eax, edx
	jmp	SHORT $LN53@plotDistan
$LN51@plotDistan:
	neg	eax
	cmp	ecx, eax
	lea	eax, DWORD PTR [edx+ecx]
	jl	SHORT $LN53@plotDistan
$LN49@plotDistan:
	mov	eax, ecx
$LN53@plotDistan:
	cdq
	xor	eax, edx
	sub	eax, edx

; 155  : 
; 156  : #ifdef NQM_GAME_CORE_UTILS_OPTIMIZATIONS
; 157  : 	if (((iHX2 - iHX1) ^ (iWrappedDY)) >= 0)  // the signs match
; 158  : #else
; 159  : 	if((iHX2 - iHX1 >= 0) == (iWrappedDY >= 0))  // the signs match

	xor	edx, edx
	test	ecx, ecx
	setge	dl
	xor	ecx, ecx
	test	ebp, ebp
	setge	cl
	pop	esi
	pop	ebp
	mov	DWORD PTR _iDX$[esp], eax
	pop	ebx
	cmp	edx, ecx
	jne	SHORT $LN2@plotDistan

; 160  : #endif
; 161  : 	{
; 162  : 		return iDX + iDY;

	mov	edx, DWORD PTR _iDY$[esp-4]
	add	eax, edx

; 170  : #endif
; 171  : 	}
; 172  : }

	ret	0
$LN2@plotDistan:

; 163  : 	}
; 164  : 	else
; 165  : 	{
; 166  : #ifdef NQM_FAST_COMP
; 167  : 		return (MAX(iDX, iDY));
; 168  : #else
; 169  : 		return (std::max(iDX, iDY));

	cmp	eax, DWORD PTR _iDY$[esp-4]
	lea	eax, DWORD PTR _iDY$[esp-4]
	jl	SHORT $LN58@plotDistan
	lea	eax, DWORD PTR _iDX$[esp-4]
$LN58@plotDistan:
	mov	eax, DWORD PTR [eax]

; 170  : #endif
; 171  : 	}
; 172  : }

	ret	0
?plotDistance@@YAHHHHH@Z ENDP				; plotDistance
; Function compile flags: /Ogtpy
_TEXT	ENDS
;	COMDAT ??_GCvLandmass@@UAEPAXI@Z
_TEXT	SEGMENT
___flags$ = 8						; size = 4
??_GCvLandmass@@UAEPAXI@Z PROC				; CvLandmass::`scalar deleting destructor', COMDAT
; _this$ = ecx
	test	BYTE PTR ___flags$[esp-4], 1
	push	esi
	mov	esi, ecx
	mov	DWORD PTR [esi], OFFSET ??_7CvLandmass@@6B@
	je	SHORT $LN6@scalar@4
	push	esi
	call	??3@YAXPAX@Z				; operator delete
	add	esp, 4
$LN6@scalar@4:
	mov	eax, esi
	pop	esi
	ret	4
??_GCvLandmass@@UAEPAXI@Z ENDP				; CvLandmass::`scalar deleting destructor'
_TEXT	ENDS
PUBLIC	?isLake@CvLandmass@@QBE_NXZ			; CvLandmass::isLake
; Function compile flags: /Ogtpy
; File c:\users\enormousapplepie\documents\github\lekmod\lekmod_dll\cvgamecoredll_expansion2\cvmap.cpp
;	COMDAT ?isLake@CvLandmass@@QBE_NXZ
_TEXT	SEGMENT
?isLake@CvLandmass@@QBE_NXZ PROC			; CvLandmass::isLake, COMDAT
; _this$ = ecx

; 121  : 	return (m_bWater && (m_iNumTiles <= GC.getLAKE_MAX_AREA_SIZE()));

	cmp	BYTE PTR [ecx+13], 0
	je	SHORT $LN3@isLake
	mov	eax, DWORD PTR [ecx+8]
	cmp	eax, DWORD PTR ?gGlobals@@3VCvGlobals@@A+6508
	jg	SHORT $LN3@isLake
	mov	eax, 1

; 122  : }

	ret	0
$LN3@isLake:

; 121  : 	return (m_bWater && (m_iNumTiles <= GC.getLAKE_MAX_AREA_SIZE()));

	xor	eax, eax

; 122  : }

	ret	0
?isLake@CvLandmass@@QBE_NXZ ENDP			; CvLandmass::isLake
; Function compile flags: /Ogtpy
_TEXT	ENDS
;	COMDAT ?read@CvLandmass@@UAEXAAVFDataStream@@@Z
_TEXT	SEGMENT
_uiVersion$ = 8						; size = 4
_kStream$ = 8						; size = 4
?read@CvLandmass@@UAEXAAVFDataStream@@@Z PROC		; CvLandmass::read, COMDAT
; _this$ = ecx

; 170  : {

	push	esi
	push	edi

; 171  : 	// Version number to maintain backwards compatibility
; 172  : 	uint uiVersion;
; 173  : 	kStream >> uiVersion;

	mov	edi, DWORD PTR _kStream$[esp+4]
	lea	eax, DWORD PTR _uiVersion$[esp+4]
	mov	esi, ecx
	push	eax
	mov	ecx, edi
	call	?Read@FDataStream@@IAEXAAI@Z		; FDataStream::Read

; 174  : 
; 175  : 	kStream >> m_iID;

	lea	ecx, DWORD PTR [esi+4]
	push	ecx
	mov	ecx, edi
	call	?Read@FDataStream@@IAEXAAH@Z		; FDataStream::Read

; 176  : 	kStream >> m_iNumTiles;

	lea	edx, DWORD PTR [esi+8]
	push	edx
	mov	ecx, edi
	call	?Read@FDataStream@@IAEXAAH@Z		; FDataStream::Read

; 177  : 
; 178  : 	kStream >> m_iCentroidX;

	lea	eax, DWORD PTR [esi+16]
	push	eax
	mov	ecx, edi
	call	?Read@FDataStream@@IAEXAAH@Z		; FDataStream::Read

; 179  : 	kStream >> m_iCentroidY;

	lea	ecx, DWORD PTR [esi+20]
	push	ecx
	mov	ecx, edi
	call	?Read@FDataStream@@IAEXAAH@Z		; FDataStream::Read

; 180  : 
; 181  : 	kStream >> m_bWater;

	lea	edx, DWORD PTR [esi+13]
	push	edx
	mov	ecx, edi
	call	?Read@FDataStream@@IAEXAA_N@Z		; FDataStream::Read

; 182  : 
; 183  : 	kStream >> m_cContinentType;

	add	esi, 12					; 0000000cH
	push	esi
	mov	ecx, edi
	call	?Read@FDataStream@@IAEXAAD@Z		; FDataStream::Read
	pop	edi
	pop	esi

; 184  : }

	ret	4
?read@CvLandmass@@UAEXAAVFDataStream@@@Z ENDP		; CvLandmass::read
; Function compile flags: /Ogtpy
_TEXT	ENDS
;	COMDAT ?write@CvLandmass@@UBEXAAVFDataStream@@@Z
_TEXT	SEGMENT
_uiVersion$ = -4					; size = 4
_kStream$ = 8						; size = 4
?write@CvLandmass@@UBEXAAVFDataStream@@@Z PROC		; CvLandmass::write, COMDAT
; _this$ = ecx

; 188  : {

	push	ecx
	push	esi
	push	edi

; 189  : 	// Current version number
; 190  : 	uint uiVersion = 1;
; 191  : 	kStream << uiVersion;

	mov	edi, DWORD PTR _kStream$[esp+8]
	lea	eax, DWORD PTR _uiVersion$[esp+12]
	mov	esi, ecx
	push	eax
	mov	ecx, edi
	mov	DWORD PTR _uiVersion$[esp+16], 1
	call	?Write@FDataStream@@IAEXABI@Z		; FDataStream::Write

; 192  : 
; 193  : 	kStream << m_iID;

	lea	ecx, DWORD PTR [esi+4]
	push	ecx
	mov	ecx, edi
	call	?Write@FDataStream@@IAEXABH@Z		; FDataStream::Write

; 194  : 	kStream << m_iNumTiles;

	lea	edx, DWORD PTR [esi+8]
	push	edx
	mov	ecx, edi
	call	?Write@FDataStream@@IAEXABH@Z		; FDataStream::Write

; 195  : 
; 196  : 	kStream << m_iCentroidX;

	lea	eax, DWORD PTR [esi+16]
	push	eax
	mov	ecx, edi
	call	?Write@FDataStream@@IAEXABH@Z		; FDataStream::Write

; 197  : 	kStream << m_iCentroidY;

	lea	ecx, DWORD PTR [esi+20]
	push	ecx
	mov	ecx, edi
	call	?Write@FDataStream@@IAEXABH@Z		; FDataStream::Write

; 198  : 
; 199  : 	kStream << m_bWater;

	lea	edx, DWORD PTR [esi+13]
	push	edx
	mov	ecx, edi
	call	?Write@FDataStream@@IAEXAB_N@Z		; FDataStream::Write

; 200  : 
; 201  : 	kStream << m_cContinentType;

	add	esi, 12					; 0000000cH
	push	esi
	mov	ecx, edi
	call	?Write@FDataStream@@IAEXABD@Z		; FDataStream::Write
	pop	edi
	pop	esi

; 202  : 
; 203  : }

	pop	ecx
	ret	4
?write@CvLandmass@@UBEXAAVFDataStream@@@Z ENDP		; CvLandmass::write
_TEXT	ENDS
PUBLIC	?InitPlots@CvMap@@IAEXXZ			; CvMap::InitPlots
EXTRN	?Init@CvPlotManager@@QAEXII@Z:PROC		; CvPlotManager::Init
EXTRN	??_L@YGXPAXIHP6EX0@Z1@Z:PROC			; `eh vector constructor iterator'
EXTRN	??0CvPlot@@QAE@XZ:PROC				; CvPlot::CvPlot
EXTRN	_memset:PROC
;	COMDAT xdata$x
; File c:\users\enormousapplepie\documents\github\lekmod\lekmod_dll\cvgamecoredll_expansion2\cvmap.h
xdata$x	SEGMENT
__unwindtable$?InitPlots@CvMap@@IAEXXZ DD 0ffffffffH
	DD	FLAT:__unwindfunclet$?InitPlots@CvMap@@IAEXXZ$0
__ehfuncinfo$?InitPlots@CvMap@@IAEXXZ DD 019930522H
	DD	01H
	DD	FLAT:__unwindtable$?InitPlots@CvMap@@IAEXXZ
	DD	2 DUP(00H)
	DD	2 DUP(00H)
	DD	00H
	DD	01H
; Function compile flags: /Ogtpy
; File c:\users\enormousapplepie\documents\github\lekmod\lekmod_dll\cvgamecoredll_expansion2\cvmap.cpp
xdata$x	ENDS
;	COMDAT ?InitPlots@CvMap@@IAEXXZ
_TEXT	SEGMENT
_pVisibilityCount$ = -40				; size = 4
_pRevealedOwner$ = -36					; size = 4
_pRevealedImprovementType$ = -32			; size = 4
_pRevealedRouteType$ = -28				; size = 4
_pNoSettling$ = -24					; size = 4
_pResourceForceReveal$ = -20				; size = 4
tv410 = -16						; size = 4
tv210 = -16						; size = 4
$T238748 = -16						; size = 4
__$EHRec$ = -12						; size = 12
?InitPlots@CvMap@@IAEXXZ PROC				; CvMap::InitPlots, COMDAT
; _this$ = ecx

; 265  : {

	push	-1
	push	__ehhandler$?InitPlots@CvMap@@IAEXXZ
	mov	eax, DWORD PTR fs:0
	push	eax
	mov	DWORD PTR fs:0, esp
	sub	esp, 28					; 0000001cH
	push	ebx
	push	ebp
	push	esi
	mov	esi, ecx
	push	edi

; 266  : 	m_pMapPlots = FNEW(CvPlot[numPlots()], c_eCiv5GameplayDLL, 0);

	mov	edi, DWORD PTR [esi+4028]
	xor	ecx, ecx
	mov	eax, edi
	mov	edx, 484				; 000001e4H
	mul	edx
	seto	cl
	neg	ecx
	or	ecx, eax
	xor	eax, eax
	add	ecx, 4
	setb	al
	neg	eax
	or	eax, ecx
	push	eax
	call	??_U@YAPAXI@Z				; operator new[]
	add	esp, 4
	mov	DWORD PTR $T238748[esp+56], eax
	mov	DWORD PTR __$EHRec$[esp+64], 0
	test	eax, eax
	je	SHORT $LN6@InitPlots
	push	OFFSET ??1CvPlot@@QAE@XZ		; CvPlot::~CvPlot
	push	OFFSET ??0CvPlot@@QAE@XZ		; CvPlot::CvPlot
	push	edi
	lea	ebx, DWORD PTR [eax+4]
	push	484					; 000001e4H
	push	ebx
	mov	DWORD PTR [eax], edi
	call	??_L@YGXPAXIHP6EX0@Z1@Z
	mov	eax, ebx
	jmp	SHORT $LN7@InitPlots
$LN6@InitPlots:
	xor	eax, eax
$LN7@InitPlots:

; 267  : 	//allocate all the memory we need up front
; 268  : 
; 269  : 	int iNumPlots = numPlots();

	mov	ebp, DWORD PTR [esi+4028]
	mov	DWORD PTR [esi+4068], eax

; 270  : 
; 271  : #ifdef AUI_WARNING_FIXES
; 272  : 	m_pYields					= FNEW(int[NUM_YIELD_TYPES*iNumPlots], c_eCiv5GameplayDLL, 0);
; 273  : 	m_pFoundValue				= FNEW(int[REALLY_MAX_PLAYERS*iNumPlots], c_eCiv5GameplayDLL, 0);
; 274  : 	m_pPlayerCityRadiusCount	= FNEW(int[REALLY_MAX_PLAYERS*iNumPlots], c_eCiv5GameplayDLL, 0);
; 275  : 	m_pVisibilityCount			= FNEW(int[REALLY_MAX_TEAMS*iNumPlots], c_eCiv5GameplayDLL, 0);
; 276  : 	m_pRevealedOwner			= FNEW(int[REALLY_MAX_TEAMS*iNumPlots], c_eCiv5GameplayDLL, 0);
; 277  : 	m_pRevealed					= FNEW(bool[REALLY_MAX_TEAMS*iNumPlots], c_eCiv5GameplayDLL, 0);
; 278  : 	m_pRevealedImprovementType	= FNEW(int[REALLY_MAX_TEAMS*iNumPlots], c_eCiv5GameplayDLL, 0);
; 279  : 	m_pRevealedRouteType		= FNEW(int[REALLY_MAX_TEAMS*iNumPlots], c_eCiv5GameplayDLL, 0);
; 280  : #else
; 281  : 	m_pYields					= FNEW(short[NUM_YIELD_TYPES*iNumPlots], c_eCiv5GameplayDLL, 0);

	xor	ecx, ecx
	lea	eax, DWORD PTR [ebp+ebp*2]
	add	eax, eax
	mov	edx, 2
	mul	edx
	seto	cl
	mov	DWORD PTR __$EHRec$[esp+64], -1
	neg	ecx
	or	ecx, eax
	push	ecx
	call	??_U@YAPAXI@Z				; operator new[]

; 282  : 	m_pFoundValue				= FNEW(int[REALLY_MAX_PLAYERS*iNumPlots], c_eCiv5GameplayDLL, 0);

	lea	edi, DWORD PTR [ebp+ebp*4]
	mov	DWORD PTR [esi+4072], eax
	shl	edi, 4
	xor	ecx, ecx
	mov	eax, edi
	mov	edx, 4
	mul	edx
	seto	cl
	neg	ecx
	or	ecx, eax
	push	ecx
	call	??_U@YAPAXI@Z				; operator new[]

; 283  : 	m_pPlayerCityRadiusCount	= FNEW(char[REALLY_MAX_PLAYERS*iNumPlots], c_eCiv5GameplayDLL, 0);

	push	edi
	mov	DWORD PTR [esi+4076], eax
	call	??_U@YAPAXI@Z				; operator new[]
	mov	DWORD PTR [esi+4080], eax

; 284  : 	m_pVisibilityCount			= FNEW(short[REALLY_MAX_TEAMS*iNumPlots], c_eCiv5GameplayDLL, 0);

	xor	ecx, ecx
	mov	eax, edi
	mov	edx, 2
	mul	edx
	seto	cl
	neg	ecx
	or	ecx, eax
	push	ecx
	call	??_U@YAPAXI@Z				; operator new[]

; 285  : 	m_pRevealedOwner			= FNEW(char[REALLY_MAX_TEAMS*iNumPlots], c_eCiv5GameplayDLL, 0);

	push	edi
	mov	DWORD PTR [esi+4084], eax
	call	??_U@YAPAXI@Z				; operator new[]

; 286  : 	m_pRevealed					= FNEW(bool[REALLY_MAX_TEAMS*iNumPlots], c_eCiv5GameplayDLL, 0);

	push	edi
	mov	DWORD PTR [esi+4088], eax
	call	??_U@YAPAXI@Z				; operator new[]
	mov	DWORD PTR [esi+4092], eax

; 287  : 	m_pRevealedImprovementType  = FNEW(short[REALLY_MAX_TEAMS*iNumPlots], c_eCiv5GameplayDLL, 0);

	xor	ecx, ecx
	mov	eax, edi
	mov	edx, 2
	mul	edx
	seto	cl
	neg	ecx
	or	ecx, eax
	push	ecx
	call	??_U@YAPAXI@Z				; operator new[]
	mov	DWORD PTR [esi+4096], eax

; 288  : 	m_pRevealedRouteType		= FNEW(short[REALLY_MAX_TEAMS*iNumPlots], c_eCiv5GameplayDLL, 0);

	xor	ecx, ecx
	mov	eax, edi
	mov	edx, 2
	mul	edx
	seto	cl
	neg	ecx
	or	ecx, eax
	push	ecx
	call	??_U@YAPAXI@Z				; operator new[]
	mov	DWORD PTR [esi+4100], eax

; 289  : #endif
; 290  : 	m_pNoSettling				= FNEW(bool[MAX_MAJOR_CIVS*iNumPlots], c_eCiv5GameplayDLL, 0);

	mov	eax, ebp
	imul	eax, 22					; 00000016H
	push	eax
	mov	DWORD PTR tv410[esp+92], eax
	call	??_U@YAPAXI@Z				; operator new[]

; 291  : 	m_pResourceForceReveal		= FNEW(bool[REALLY_MAX_TEAMS*iNumPlots], c_eCiv5GameplayDLL, 0);

	push	edi
	mov	DWORD PTR [esi+4104], eax
	call	??_U@YAPAXI@Z				; operator new[]

; 292  : 
; 293  : 	memset(m_pYields, 0, NUM_YIELD_TYPES*iNumPlots*sizeof(short));

	mov	ecx, DWORD PTR [esi+4072]
	mov	DWORD PTR [esi+4108], eax
	lea	eax, DWORD PTR [ebp+ebp*2]
	add	eax, eax
	add	eax, eax
	push	eax
	push	0
	push	ecx
	call	_memset

; 294  : 	memset(m_pFoundValue, 0, REALLY_MAX_PLAYERS*iNumPlots*sizeof(int));

	mov	eax, DWORD PTR [esi+4076]
	lea	edx, DWORD PTR [ebp+ebp*4]
	shl	edx, 6
	push	edx
	push	0
	push	eax
	call	_memset

; 295  : 	memset(m_pPlayerCityRadiusCount, 0, REALLY_MAX_PLAYERS*iNumPlots*sizeof(char));

	mov	ecx, DWORD PTR [esi+4080]
	add	esp, 64					; 00000040H
	push	edi
	push	0
	push	ecx
	call	_memset

; 296  : 	memset(m_pVisibilityCount, 0,REALLY_MAX_TEAMS*iNumPlots *sizeof(short));

	mov	edx, DWORD PTR [esi+4084]
	lea	ebx, DWORD PTR [ebp+ebp*4]
	shl	ebx, 5
	push	ebx
	push	0
	push	edx
	call	_memset

; 297  : 	memset(m_pRevealedOwner, -1 ,REALLY_MAX_TEAMS*iNumPlots *sizeof(char));

	mov	eax, DWORD PTR [esi+4088]
	push	edi
	push	-1
	push	eax
	call	_memset

; 298  : 	memset(m_pRevealed, 0,REALLY_MAX_TEAMS*iNumPlots *sizeof(bool));

	mov	ecx, DWORD PTR [esi+4092]
	push	edi
	push	0
	push	ecx
	call	_memset

; 299  : 	memset(m_pRevealedImprovementType, 0,REALLY_MAX_TEAMS*iNumPlots *sizeof(short));

	mov	edx, DWORD PTR [esi+4096]
	push	ebx
	push	0
	push	edx
	call	_memset

; 300  : 	memset(m_pRevealedRouteType, 0,REALLY_MAX_TEAMS*iNumPlots *sizeof(short));

	mov	eax, DWORD PTR [esi+4100]
	push	ebx
	push	0
	push	eax
	call	_memset

; 301  : 	memset(m_pNoSettling, 0,MAX_MAJOR_CIVS*iNumPlots *sizeof(bool));

	mov	ecx, DWORD PTR tv410[esp+128]
	mov	edx, DWORD PTR [esi+4104]
	add	esp, 72					; 00000048H
	push	ecx
	push	0
	push	edx
	call	_memset

; 302  : 	memset(m_pResourceForceReveal, 0,REALLY_MAX_TEAMS*iNumPlots *sizeof(bool));

	mov	eax, DWORD PTR [esi+4108]
	push	edi
	push	0
	push	eax
	call	_memset

; 303  : 
; 304  : 
; 305  : #ifdef AUI_WARNING_FIXES
; 306  : 	int* pYields					= m_pYields;
; 307  : 	int* pFoundValue				= m_pFoundValue;
; 308  : 	int* pPlayerCityRadiusCount		= m_pPlayerCityRadiusCount;
; 309  : 	int* pVisibilityCount			= m_pVisibilityCount;
; 310  : 	int* pRevealedOwner				= m_pRevealedOwner;
; 311  : 	int* pRevealedImprovementType	= m_pRevealedImprovementType;
; 312  : 	int* pRevealedRouteType			= m_pRevealedRouteType;
; 313  : #else
; 314  : 	short* pYields					= m_pYields;
; 315  : 	int*   pFoundValue				= m_pFoundValue;
; 316  : 	char*  pPlayerCityRadiusCount   = m_pPlayerCityRadiusCount;
; 317  : 	short* pVisibilityCount			= m_pVisibilityCount;

	mov	eax, DWORD PTR [esi+4084]
	mov	ecx, DWORD PTR [esi+4072]
	mov	edx, DWORD PTR [esi+4076]
	mov	edi, DWORD PTR [esi+4080]
	mov	DWORD PTR _pVisibilityCount$[esp+80], eax

; 318  : 	char*  pRevealedOwner			= m_pRevealedOwner;

	mov	eax, DWORD PTR [esi+4088]
	mov	DWORD PTR _pRevealedOwner$[esp+80], eax

; 319  : 	short* pRevealedImprovementType = m_pRevealedImprovementType;

	mov	eax, DWORD PTR [esi+4096]
	mov	DWORD PTR _pRevealedImprovementType$[esp+80], eax

; 320  : 	short* pRevealedRouteType		= m_pRevealedRouteType;

	mov	eax, DWORD PTR [esi+4100]
	mov	DWORD PTR _pRevealedRouteType$[esp+80], eax

; 321  : #endif
; 322  : 	bool*  pNoSettling				= m_pNoSettling;

	mov	eax, DWORD PTR [esi+4104]
	mov	DWORD PTR _pNoSettling$[esp+80], eax

; 323  : 	bool*  pResourceForceReveal		= m_pResourceForceReveal;

	mov	eax, DWORD PTR [esi+4108]
	add	esp, 24					; 00000018H
	mov	DWORD PTR _pResourceForceReveal$[esp+56], eax

; 324  : 
; 325  : 	for(int i = 0; i < iNumPlots; i++)

	test	ebp, ebp
	jle	$LN1@InitPlots
	xor	eax, eax
	mov	DWORD PTR tv210[esp+56], ebp
	npad	5
$LL19@InitPlots:

; 326  : 	{
; 327  : 		m_pMapPlots[i].m_aiYield				= pYields;

	mov	ebx, DWORD PTR [esi+4068]

; 328  : 		m_pMapPlots[i].m_aiFoundValue			= pFoundValue;
; 329  : 		m_pMapPlots[i].m_aiPlayerCityRadiusCount= pPlayerCityRadiusCount;
; 330  : 		m_pMapPlots[i].m_aiVisibilityCount		= pVisibilityCount;

	mov	ebp, DWORD PTR _pVisibilityCount$[esp+56]
	mov	DWORD PTR [eax+ebx+144], ecx
	mov	ebx, DWORD PTR [esi+4068]
	mov	DWORD PTR [eax+ebx+148], edx
	mov	ebx, DWORD PTR [esi+4068]
	mov	DWORD PTR [eax+ebx+152], edi
	mov	ebx, DWORD PTR [esi+4068]
	mov	DWORD PTR [eax+ebx+156], ebp

; 331  : 		m_pMapPlots[i].m_aiRevealedOwner		= pRevealedOwner;

	mov	ebx, DWORD PTR [esi+4068]
	mov	ebp, DWORD PTR _pRevealedOwner$[esp+56]

; 332  : 
; 333  : 		m_pMapPlots[i].m_aeRevealedImprovementType	= pRevealedImprovementType;
; 334  : 		m_pMapPlots[i].m_aeRevealedRouteType		= pRevealedRouteType;
; 335  : 		m_pMapPlots[i].m_abNoSettling				= pNoSettling;
; 336  : 
; 337  : 		m_pMapPlots[i].m_abResourceForceReveal		= pResourceForceReveal;
; 338  : 
; 339  : 
; 340  : 		pYields					+= NUM_YIELD_TYPES;
; 341  : 		pFoundValue				+= REALLY_MAX_PLAYERS;
; 342  : 		pPlayerCityRadiusCount  += REALLY_MAX_PLAYERS;
; 343  : 		pVisibilityCount		+= REALLY_MAX_TEAMS;

	add	DWORD PTR _pVisibilityCount$[esp+56], 160 ; 000000a0H

; 344  : 		pRevealedOwner			+= REALLY_MAX_TEAMS;

	add	DWORD PTR _pRevealedOwner$[esp+56], 80	; 00000050H
	mov	DWORD PTR [eax+ebx+160], ebp
	mov	ebx, DWORD PTR [esi+4068]
	mov	ebp, DWORD PTR _pRevealedImprovementType$[esp+56]

; 345  : 		pRevealedImprovementType+= REALLY_MAX_TEAMS;

	add	DWORD PTR _pRevealedImprovementType$[esp+56], 160 ; 000000a0H
	mov	DWORD PTR [eax+ebx+164], ebp
	mov	ebx, DWORD PTR [esi+4068]
	mov	ebp, DWORD PTR _pRevealedRouteType$[esp+56]

; 346  : 		pRevealedRouteType		+= REALLY_MAX_TEAMS;

	add	DWORD PTR _pRevealedRouteType$[esp+56], 160 ; 000000a0H
	mov	DWORD PTR [eax+ebx+168], ebp
	mov	ebx, DWORD PTR [esi+4068]
	mov	ebp, DWORD PTR _pNoSettling$[esp+56]

; 347  : 		pNoSettling				+= MAX_MAJOR_CIVS;

	add	DWORD PTR _pNoSettling$[esp+56], 22	; 00000016H
	mov	DWORD PTR [eax+ebx+172], ebp
	mov	ebx, DWORD PTR _pResourceForceReveal$[esp+56]
	mov	ebp, DWORD PTR [esi+4068]
	mov	DWORD PTR [eax+ebp+176], ebx

; 348  : 		pResourceForceReveal	+= REALLY_MAX_TEAMS;

	add	ebx, 80					; 00000050H
	add	ecx, 12					; 0000000cH
	add	edx, 320				; 00000140H
	add	edi, 80					; 00000050H
	add	eax, 484				; 000001e4H
	sub	DWORD PTR tv210[esp+56], 1
	mov	DWORD PTR _pResourceForceReveal$[esp+56], ebx
	jne	$LL19@InitPlots
$LN1@InitPlots:

; 349  : 
; 350  : 	}
; 351  : 
; 352  : 	m_kPlotManager.Init(getGridWidth(), getGridHeight());

	mov	ecx, DWORD PTR [esi+4024]
	mov	edx, DWORD PTR [esi+4020]
	push	ecx
	push	edx
	lea	ecx, DWORD PTR [esi+4184]
	call	?Init@CvPlotManager@@QAEXII@Z		; CvPlotManager::Init

; 353  : }

	mov	ecx, DWORD PTR __$EHRec$[esp+56]
	pop	edi
	pop	esi
	pop	ebp
	pop	ebx
	mov	DWORD PTR fs:0, ecx
	add	esp, 40					; 00000028H
	ret	0
_TEXT	ENDS
;	COMDAT text$x
text$x	SEGMENT
__unwindfunclet$?InitPlots@CvMap@@IAEXXZ$0:
	mov	eax, DWORD PTR $T238748[ebp]
	push	eax
	call	??_V@YAXPAX@Z				; operator delete[]
	pop	ecx
	ret	0
__ehhandler$?InitPlots@CvMap@@IAEXXZ:
	mov	eax, OFFSET __ehfuncinfo$?InitPlots@CvMap@@IAEXXZ
	jmp	___CxxFrameHandler3
text$x	ENDS
?InitPlots@CvMap@@IAEXXZ ENDP				; CvMap::InitPlots
PUBLIC	?uninit@CvMap@@QAEXXZ				; CvMap::uninit
EXTRN	?Uninit@CvPlotManager@@QAEXXZ:PROC		; CvPlotManager::Uninit
; Function compile flags: /Ogtpy
;	COMDAT ?uninit@CvMap@@QAEXXZ
_TEXT	SEGMENT
?uninit@CvMap@@QAEXXZ PROC				; CvMap::uninit, COMDAT
; _this$ = ecx

; 406  : {

	push	esi
	mov	esi, ecx

; 407  : 	SAFE_DELETE_ARRAY(m_paiNumResource);

	mov	eax, DWORD PTR [esi+4060]
	push	edi
	push	eax
	call	??_V@YAXPAX@Z				; operator delete[]
	xor	edi, edi
	mov	DWORD PTR [esi+4060], edi

; 408  : 	SAFE_DELETE_ARRAY(m_paiNumResourceOnLand);

	mov	ecx, DWORD PTR [esi+4064]
	push	ecx
	call	??_V@YAXPAX@Z				; operator delete[]
	mov	DWORD PTR [esi+4064], edi

; 409  : 
; 410  : 	SAFE_DELETE_ARRAY(m_pMapPlots);

	mov	eax, DWORD PTR [esi+4068]
	add	esp, 8
	cmp	eax, edi
	je	SHORT $LN9@uninit
	mov	edx, DWORD PTR [eax-4]
	push	ebx
	lea	ebx, DWORD PTR [eax-4]
	push	OFFSET ??1CvPlot@@QAE@XZ		; CvPlot::~CvPlot
	push	edx
	push	484					; 000001e4H
	push	eax
	call	??_M@YGXPAXIHP6EX0@Z@Z
	push	ebx
	call	??_V@YAXPAX@Z				; operator delete[]
	add	esp, 4
	pop	ebx
$LN9@uninit:
	mov	DWORD PTR [esi+4068], edi

; 411  : 
; 412  : 
; 413  : 	SAFE_DELETE_ARRAY(m_pYields);

	mov	eax, DWORD PTR [esi+4072]
	push	eax
	call	??_V@YAXPAX@Z				; operator delete[]
	mov	DWORD PTR [esi+4072], edi

; 414  : 	SAFE_DELETE_ARRAY(m_pFoundValue);

	mov	ecx, DWORD PTR [esi+4076]
	push	ecx
	call	??_V@YAXPAX@Z				; operator delete[]
	mov	DWORD PTR [esi+4076], edi

; 415  : 	SAFE_DELETE_ARRAY(m_pPlayerCityRadiusCount);

	mov	edx, DWORD PTR [esi+4080]
	push	edx
	call	??_V@YAXPAX@Z				; operator delete[]
	mov	DWORD PTR [esi+4080], edi

; 416  : 	SAFE_DELETE_ARRAY(m_pVisibilityCount);

	mov	eax, DWORD PTR [esi+4084]
	push	eax
	call	??_V@YAXPAX@Z				; operator delete[]
	mov	DWORD PTR [esi+4084], edi

; 417  : 	SAFE_DELETE_ARRAY(m_pRevealedOwner);

	mov	ecx, DWORD PTR [esi+4088]
	push	ecx
	call	??_V@YAXPAX@Z				; operator delete[]
	mov	DWORD PTR [esi+4088], edi

; 418  : 	SAFE_DELETE_ARRAY(m_pRevealed);

	mov	edx, DWORD PTR [esi+4092]
	push	edx
	call	??_V@YAXPAX@Z				; operator delete[]
	mov	DWORD PTR [esi+4092], edi

; 419  : 	SAFE_DELETE_ARRAY(m_pRevealedImprovementType);

	mov	eax, DWORD PTR [esi+4096]
	push	eax
	call	??_V@YAXPAX@Z				; operator delete[]
	mov	DWORD PTR [esi+4096], edi

; 420  : 	SAFE_DELETE_ARRAY(m_pRevealedRouteType);

	mov	ecx, DWORD PTR [esi+4100]
	push	ecx
	call	??_V@YAXPAX@Z				; operator delete[]
	mov	DWORD PTR [esi+4100], edi

; 421  : 	SAFE_DELETE_ARRAY(m_pNoSettling);

	mov	edx, DWORD PTR [esi+4104]
	push	edx
	call	??_V@YAXPAX@Z				; operator delete[]
	mov	DWORD PTR [esi+4104], edi

; 422  : 	SAFE_DELETE_ARRAY(m_pResourceForceReveal);

	mov	eax, DWORD PTR [esi+4108]
	push	eax
	call	??_V@YAXPAX@Z				; operator delete[]
	mov	DWORD PTR [esi+4108], edi

; 423  : 
; 424  : 	m_iGridWidth = 0;
; 425  : 	m_iGridHeight = 0;
; 426  : 	m_iGridSize = 0;
; 427  : 	m_iLandPlots = 0;
; 428  : 	m_iOwnedPlots = 0;
; 429  : 	m_iNumNaturalWonders = 0;
; 430  : 
; 431  : 	m_areas.Uninit();

	mov	edx, DWORD PTR [esi+4112]
	mov	eax, DWORD PTR [edx+8]
	lea	ecx, DWORD PTR [esi+4112]
	add	esp, 40					; 00000028H
	mov	DWORD PTR [esi+4020], edi
	mov	DWORD PTR [esi+4024], edi
	mov	DWORD PTR [esi+4028], edi
	mov	DWORD PTR [esi+4032], edi
	mov	DWORD PTR [esi+4036], edi
	mov	DWORD PTR [esi+4048], edi
	call	eax

; 432  : 	m_landmasses.Uninit();

	mov	edx, DWORD PTR [esi+4140]
	mov	eax, DWORD PTR [edx+8]
	lea	ecx, DWORD PTR [esi+4140]
	call	eax
	pop	edi

; 433  : 	m_kPlotManager.Uninit();

	lea	ecx, DWORD PTR [esi+4184]
	pop	esi
	jmp	?Uninit@CvPlotManager@@QAEXXZ		; CvPlotManager::Uninit
?uninit@CvMap@@QAEXXZ ENDP				; CvMap::uninit
_TEXT	ENDS
PUBLIC	?setup@CvMap@@IAEXXZ				; CvMap::setup
EXTRN	?GetTacticalAnalysisMapFinder@CvGlobals@@QAEAAVCvTwoLayerPathFinder@@XZ:PROC ; CvGlobals::GetTacticalAnalysisMapFinder
EXTRN	?TacticalAnalysisMapPathValid@@YAHPAVCvAStarNode@@0HPBXPAVCvAStar@@@Z:PROC ; TacticalAnalysisMapPathValid
EXTRN	?GetInternationalTradeRouteWaterFinder@CvGlobals@@QAEAAVCvAStar@@XZ:PROC ; CvGlobals::GetInternationalTradeRouteWaterFinder
EXTRN	?TradeRouteWaterPathCost@@YAHPAVCvAStarNode@@0HPBXPAVCvAStar@@@Z:PROC ; TradeRouteWaterPathCost
EXTRN	?TradeRouteWaterValid@@YAHPAVCvAStarNode@@0HPBXPAVCvAStar@@@Z:PROC ; TradeRouteWaterValid
EXTRN	?GetInternationalTradeRouteLandFinder@CvGlobals@@QAEAAVCvAStar@@XZ:PROC ; CvGlobals::GetInternationalTradeRouteLandFinder
EXTRN	?TradeRouteHeuristic@@YAHHHHH@Z:PROC		; TradeRouteHeuristic
EXTRN	?TradeRouteLandPathCost@@YAHPAVCvAStarNode@@0HPBXPAVCvAStar@@@Z:PROC ; TradeRouteLandPathCost
EXTRN	?TradeRouteLandValid@@YAHPAVCvAStarNode@@0HPBXPAVCvAStar@@@Z:PROC ; TradeRouteLandValid
EXTRN	?TradePathInitialize@@YAXPBXPAVCvAStar@@@Z:PROC	; TradePathInitialize
EXTRN	?TradePathUninitialize@@YAXPBXPAVCvAStar@@@Z:PROC ; TradePathUninitialize
EXTRN	?GetBuildRouteFinder@CvGlobals@@QAEAAVCvAStar@@XZ:PROC ; CvGlobals::GetBuildRouteFinder
EXTRN	?BuildRouteCost@@YAHPAVCvAStarNode@@0HPBXPAVCvAStar@@@Z:PROC ; BuildRouteCost
EXTRN	?BuildRouteValid@@YAHPAVCvAStarNode@@0HPBXPAVCvAStar@@@Z:PROC ; BuildRouteValid
EXTRN	?getInfluenceFinder@CvGlobals@@QAEAAVCvAStar@@XZ:PROC ; CvGlobals::getInfluenceFinder
EXTRN	?InfluenceDestValid@@YAHHHPBXPAVCvAStar@@@Z:PROC ; InfluenceDestValid
EXTRN	?InfluenceHeuristic@@YAHHHHH@Z:PROC		; InfluenceHeuristic
EXTRN	?InfluenceCost@@YAHPAVCvAStarNode@@0HPBXPAVCvAStar@@@Z:PROC ; InfluenceCost
EXTRN	?InfluenceValid@@YAHPAVCvAStarNode@@0HPBXPAVCvAStar@@@Z:PROC ; InfluenceValid
EXTRN	?InfluenceAdd@@YAHPAVCvAStarNode@@0HPBXPAVCvAStar@@@Z:PROC ; InfluenceAdd
EXTRN	?getAreaFinder@CvGlobals@@QAEAAVCvAStar@@XZ:PROC ; CvGlobals::getAreaFinder
EXTRN	?AreaValid@@YAHPAVCvAStarNode@@0HPBXPAVCvAStar@@@Z:PROC ; AreaValid
EXTRN	?JoinArea@@YAHPAVCvAStarNode@@0HPBXPAVCvAStar@@@Z:PROC ; JoinArea
EXTRN	?GetWaterRouteFinder@CvGlobals@@QAEAAVCvAStar@@XZ:PROC ; CvGlobals::GetWaterRouteFinder
EXTRN	?WaterRouteValid@@YAHPAVCvAStarNode@@0HPBXPAVCvAStar@@@Z:PROC ; WaterRouteValid
EXTRN	?getRouteFinder@CvGlobals@@QAEAAVCvAStar@@XZ:PROC ; CvGlobals::getRouteFinder
EXTRN	?RouteValid@@YAHPAVCvAStarNode@@0HPBXPAVCvAStar@@@Z:PROC ; RouteValid
EXTRN	?RouteGetNumExtraChildren@@YAHPAVCvAStarNode@@PAVCvAStar@@@Z:PROC ; RouteGetNumExtraChildren
EXTRN	?RouteGetExtraChild@@YAHPAVCvAStarNode@@HAAH1PAVCvAStar@@@Z:PROC ; RouteGetExtraChild
EXTRN	?getStepFinder@CvGlobals@@QAEAAVCvStepPathFinder@@XZ:PROC ; CvGlobals::getStepFinder
EXTRN	?StepDestValid@@YAHHHPBXPAVCvAStar@@@Z:PROC	; StepDestValid
EXTRN	?StepHeuristic@@YAHHHHH@Z:PROC			; StepHeuristic
EXTRN	?StepCost@@YAHPAVCvAStarNode@@0HPBXPAVCvAStar@@@Z:PROC ; StepCost
EXTRN	?StepValid@@YAHPAVCvAStarNode@@0HPBXPAVCvAStar@@@Z:PROC ; StepValid
EXTRN	?StepAdd@@YAHPAVCvAStarNode@@0HPBXPAVCvAStar@@@Z:PROC ; StepAdd
EXTRN	?Initialize@CvAStar@@QAEXHH_N0P6AHHHPBXPAV1@@Z3P6AHHHHH@ZP6AHPAVCvAStarNode@@5H12@Z666P6AH52@ZP6AH5HAAH82@ZP6AX12@ZP6AX12@Z1@Z:PROC ; CvAStar::Initialize
EXTRN	?getIgnoreUnitsPathFinder@CvGlobals@@QAEAAVCvIgnoreUnitsPathFinder@@XZ:PROC ; CvGlobals::getIgnoreUnitsPathFinder
EXTRN	?IgnoreUnitsDestValid@@YAHHHPBXPAVCvAStar@@@Z:PROC ; IgnoreUnitsDestValid
EXTRN	?IgnoreUnitsCost@@YAHPAVCvAStarNode@@0HPBXPAVCvAStar@@@Z:PROC ; IgnoreUnitsCost
EXTRN	?IgnoreUnitsValid@@YAHPAVCvAStarNode@@0HPBXPAVCvAStar@@@Z:PROC ; IgnoreUnitsValid
EXTRN	?IgnoreUnitsPathAdd@@YAHPAVCvAStarNode@@0HPBXPAVCvAStar@@@Z:PROC ; IgnoreUnitsPathAdd
EXTRN	?getInterfacePathFinder@CvGlobals@@QAEAAVCvTwoLayerPathFinder@@XZ:PROC ; CvGlobals::getInterfacePathFinder
EXTRN	?Initialize@CvTwoLayerPathFinder@@QAEXHH_N0P6AHHHPBXPAVCvAStar@@@Z3P6AHHHHH@ZP6AHPAVCvAStarNode@@5H12@Z666P6AX12@Z71@Z:PROC ; CvTwoLayerPathFinder::Initialize
EXTRN	?getPathFinder@CvGlobals@@QAEAAVCvTwoLayerPathFinder@@XZ:PROC ; CvGlobals::getPathFinder
EXTRN	?PathDest@@YAHHHPBXPAVCvAStar@@@Z:PROC		; PathDest
EXTRN	?PathDestValid@@YAHHHPBXPAVCvAStar@@@Z:PROC	; PathDestValid
EXTRN	?PathHeuristic@@YAHHHHH@Z:PROC			; PathHeuristic
EXTRN	?PathCost@@YAHPAVCvAStarNode@@0HPBXPAVCvAStar@@@Z:PROC ; PathCost
EXTRN	?PathValid@@YAHPAVCvAStarNode@@0HPBXPAVCvAStar@@@Z:PROC ; PathValid
EXTRN	?PathAdd@@YAHPAVCvAStarNode@@0HPBXPAVCvAStar@@@Z:PROC ; PathAdd
EXTRN	?PathNodeAdd@@YAHPAVCvAStarNode@@0HPBXPAVCvAStar@@@Z:PROC ; PathNodeAdd
EXTRN	?UnitPathInitialize@@YAXPBXPAVCvAStar@@@Z:PROC	; UnitPathInitialize
EXTRN	?UnitPathUninitialize@@YAXPBXPAVCvAStar@@@Z:PROC ; UnitPathUninitialize
; Function compile flags: /Ogtpy
;	COMDAT ?setup@CvMap@@IAEXXZ
_TEXT	SEGMENT
$T239089 = -8						; size = 1
$T239073 = -8						; size = 1
$T239057 = -8						; size = 1
$T239041 = -8						; size = 1
$T239025 = -8						; size = 1
$T239009 = -8						; size = 1
$T238993 = -8						; size = 1
$T238977 = -8						; size = 1
$T238961 = -8						; size = 1
$T238940 = -8						; size = 1
$T238919 = -8						; size = 1
$T238894 = -8						; size = 1
$T239085 = -4						; size = 1
$T239069 = -4						; size = 1
$T239053 = -4						; size = 1
$T239037 = -4						; size = 1
$T239021 = -4						; size = 1
$T239005 = -4						; size = 1
$T238989 = -4						; size = 1
$T238973 = -4						; size = 1
$T238957 = -4						; size = 1
$T238936 = -4						; size = 1
$T238915 = -4						; size = 1
$T238898 = -4						; size = 1
?setup@CvMap@@IAEXXZ PROC				; CvMap::setup, COMDAT
; _this$ = ecx

; 522  : {

	sub	esp, 8
	push	ebx
	push	esi

; 523  : 	GC.getPathFinder().Initialize(getGridWidth(), getGridHeight(), isWrapX(), isWrapY(), PathDest, PathDestValid, PathHeuristic, PathCost, PathValid, PathAdd, PathNodeAdd, UnitPathInitialize, UnitPathUninitialize, NULL);

	push	0
	push	OFFSET ?UnitPathUninitialize@@YAXPBXPAVCvAStar@@@Z ; UnitPathUninitialize
	push	OFFSET ?UnitPathInitialize@@YAXPBXPAVCvAStar@@@Z ; UnitPathInitialize
	push	OFFSET ?PathNodeAdd@@YAHPAVCvAStarNode@@0HPBXPAVCvAStar@@@Z ; PathNodeAdd
	push	OFFSET ?PathAdd@@YAHPAVCvAStarNode@@0HPBXPAVCvAStar@@@Z ; PathAdd
	push	OFFSET ?PathValid@@YAHPAVCvAStarNode@@0HPBXPAVCvAStar@@@Z ; PathValid
	mov	esi, ecx
	movzx	eax, BYTE PTR [esi+4057]
	movzx	ecx, BYTE PTR [esi+4056]
	push	OFFSET ?PathCost@@YAHPAVCvAStarNode@@0HPBXPAVCvAStar@@@Z ; PathCost
	push	OFFSET ?PathHeuristic@@YAHHHHH@Z	; PathHeuristic
	push	OFFSET ?PathDestValid@@YAHHHPBXPAVCvAStar@@@Z ; PathDestValid
	mov	BYTE PTR $T238894[esp+52], al
	mov	edx, DWORD PTR $T238894[esp+52]
	mov	eax, DWORD PTR [esi+4024]
	push	OFFSET ?PathDest@@YAHHHPBXPAVCvAStar@@@Z ; PathDest
	mov	BYTE PTR $T238898[esp+56], cl
	mov	ecx, DWORD PTR [esi+4020]
	push	edx
	mov	edx, DWORD PTR $T238898[esp+60]
	push	edx
	push	eax
	push	ecx
	mov	ecx, OFFSET ?gGlobals@@3VCvGlobals@@A	; gGlobals
	call	?getPathFinder@CvGlobals@@QAEAAVCvTwoLayerPathFinder@@XZ ; CvGlobals::getPathFinder
	mov	ecx, eax
	call	?Initialize@CvTwoLayerPathFinder@@QAEXHH_N0P6AHHHPBXPAVCvAStar@@@Z3P6AHHHHH@ZP6AHPAVCvAStarNode@@5H12@Z666P6AX12@Z71@Z ; CvTwoLayerPathFinder::Initialize

; 524  : 	GC.getPathFinder().SetDataChangeInvalidatesCache(true);

	mov	ecx, OFFSET ?gGlobals@@3VCvGlobals@@A	; gGlobals
	call	?getPathFinder@CvGlobals@@QAEAAVCvTwoLayerPathFinder@@XZ ; CvGlobals::getPathFinder

; 525  : 	GC.getInterfacePathFinder().Initialize(getGridWidth(), getGridHeight(), isWrapX(), isWrapY(), PathDest, PathDestValid, PathHeuristic, PathCost, PathValid, PathAdd, PathNodeAdd, UnitPathInitialize, UnitPathUninitialize, NULL);

	push	0
	push	OFFSET ?UnitPathUninitialize@@YAXPBXPAVCvAStar@@@Z ; UnitPathUninitialize
	push	OFFSET ?UnitPathInitialize@@YAXPBXPAVCvAStar@@@Z ; UnitPathInitialize
	push	OFFSET ?PathNodeAdd@@YAHPAVCvAStarNode@@0HPBXPAVCvAStar@@@Z ; PathNodeAdd
	push	OFFSET ?PathAdd@@YAHPAVCvAStarNode@@0HPBXPAVCvAStar@@@Z ; PathAdd
	push	OFFSET ?PathValid@@YAHPAVCvAStarNode@@0HPBXPAVCvAStar@@@Z ; PathValid
	push	OFFSET ?PathCost@@YAHPAVCvAStarNode@@0HPBXPAVCvAStar@@@Z ; PathCost
	push	OFFSET ?PathHeuristic@@YAHHHHH@Z	; PathHeuristic
	mov	bl, 1
	mov	BYTE PTR [eax+80], bl
	movzx	eax, BYTE PTR [esi+4057]
	movzx	ecx, BYTE PTR [esi+4056]
	push	OFFSET ?PathDestValid@@YAHHHPBXPAVCvAStar@@@Z ; PathDestValid
	mov	BYTE PTR $T238915[esp+52], al
	mov	edx, DWORD PTR $T238915[esp+52]
	mov	eax, DWORD PTR [esi+4024]
	push	OFFSET ?PathDest@@YAHHHPBXPAVCvAStar@@@Z ; PathDest
	mov	BYTE PTR $T238919[esp+56], cl
	mov	ecx, DWORD PTR [esi+4020]
	push	edx
	mov	edx, DWORD PTR $T238919[esp+60]
	push	edx
	push	eax
	push	ecx
	mov	ecx, OFFSET ?gGlobals@@3VCvGlobals@@A	; gGlobals
	call	?getInterfacePathFinder@CvGlobals@@QAEAAVCvTwoLayerPathFinder@@XZ ; CvGlobals::getInterfacePathFinder
	mov	ecx, eax
	call	?Initialize@CvTwoLayerPathFinder@@QAEXHH_N0P6AHHHPBXPAVCvAStar@@@Z3P6AHHHHH@ZP6AHPAVCvAStarNode@@5H12@Z666P6AX12@Z71@Z ; CvTwoLayerPathFinder::Initialize

; 526  : 	GC.getInterfacePathFinder().SetDataChangeInvalidatesCache(true);

	mov	ecx, OFFSET ?gGlobals@@3VCvGlobals@@A	; gGlobals
	call	?getInterfacePathFinder@CvGlobals@@QAEAAVCvTwoLayerPathFinder@@XZ ; CvGlobals::getInterfacePathFinder

; 527  : 	GC.getIgnoreUnitsPathFinder().Initialize(getGridWidth(), getGridHeight(), isWrapX(), isWrapY(), PathDest,  IgnoreUnitsDestValid, PathHeuristic, IgnoreUnitsCost, IgnoreUnitsValid, IgnoreUnitsPathAdd, NULL, NULL, NULL, UnitPathInitialize, UnitPathUninitialize, NULL);

	push	0
	push	OFFSET ?UnitPathUninitialize@@YAXPBXPAVCvAStar@@@Z ; UnitPathUninitialize
	push	OFFSET ?UnitPathInitialize@@YAXPBXPAVCvAStar@@@Z ; UnitPathInitialize
	push	0
	push	0
	push	0
	push	OFFSET ?IgnoreUnitsPathAdd@@YAHPAVCvAStarNode@@0HPBXPAVCvAStar@@@Z ; IgnoreUnitsPathAdd
	push	OFFSET ?IgnoreUnitsValid@@YAHPAVCvAStarNode@@0HPBXPAVCvAStar@@@Z ; IgnoreUnitsValid
	mov	BYTE PTR [eax+80], bl
	movzx	eax, BYTE PTR [esi+4057]
	movzx	ecx, BYTE PTR [esi+4056]
	push	OFFSET ?IgnoreUnitsCost@@YAHPAVCvAStarNode@@0HPBXPAVCvAStar@@@Z ; IgnoreUnitsCost
	push	OFFSET ?PathHeuristic@@YAHHHHH@Z	; PathHeuristic
	mov	BYTE PTR $T238936[esp+56], al
	mov	eax, DWORD PTR [esi+4024]
	mov	edx, DWORD PTR $T238936[esp+56]
	push	OFFSET ?IgnoreUnitsDestValid@@YAHHHPBXPAVCvAStar@@@Z ; IgnoreUnitsDestValid
	mov	BYTE PTR $T238940[esp+60], cl
	mov	ecx, DWORD PTR [esi+4020]
	push	OFFSET ?PathDest@@YAHHHPBXPAVCvAStar@@@Z ; PathDest
	push	edx
	mov	edx, DWORD PTR $T238940[esp+68]
	push	edx
	push	eax
	push	ecx
	mov	ecx, OFFSET ?gGlobals@@3VCvGlobals@@A	; gGlobals
	call	?getIgnoreUnitsPathFinder@CvGlobals@@QAEAAVCvIgnoreUnitsPathFinder@@XZ ; CvGlobals::getIgnoreUnitsPathFinder
	mov	ecx, eax
	call	?Initialize@CvAStar@@QAEXHH_N0P6AHHHPBXPAV1@@Z3P6AHHHHH@ZP6AHPAVCvAStarNode@@5H12@Z666P6AH52@ZP6AH5HAAH82@ZP6AX12@ZP6AX12@Z1@Z ; CvAStar::Initialize

; 528  : 	GC.getIgnoreUnitsPathFinder().SetDataChangeInvalidatesCache(true);

	mov	ecx, OFFSET ?gGlobals@@3VCvGlobals@@A	; gGlobals
	call	?getIgnoreUnitsPathFinder@CvGlobals@@QAEAAVCvIgnoreUnitsPathFinder@@XZ ; CvGlobals::getIgnoreUnitsPathFinder

; 529  : 	GC.getStepFinder().Initialize(getGridWidth(), getGridHeight(), isWrapX(), isWrapY(), PathDest, StepDestValid, StepHeuristic, StepCost, StepValid, StepAdd, NULL, NULL, NULL, NULL, NULL, NULL);

	push	0
	push	0
	push	0
	push	0
	push	0
	push	0
	push	OFFSET ?StepAdd@@YAHPAVCvAStarNode@@0HPBXPAVCvAStar@@@Z ; StepAdd
	push	OFFSET ?StepValid@@YAHPAVCvAStarNode@@0HPBXPAVCvAStar@@@Z ; StepValid
	push	OFFSET ?StepCost@@YAHPAVCvAStarNode@@0HPBXPAVCvAStar@@@Z ; StepCost
	mov	BYTE PTR [eax+80], bl
	movzx	eax, BYTE PTR [esi+4057]
	movzx	ecx, BYTE PTR [esi+4056]
	push	OFFSET ?StepHeuristic@@YAHHHHH@Z	; StepHeuristic
	push	OFFSET ?StepDestValid@@YAHHHPBXPAVCvAStar@@@Z ; StepDestValid
	mov	BYTE PTR $T238957[esp+60], al
	mov	edx, DWORD PTR $T238957[esp+60]
	mov	eax, DWORD PTR [esi+4024]
	push	OFFSET ?PathDest@@YAHHHPBXPAVCvAStar@@@Z ; PathDest
	mov	BYTE PTR $T238961[esp+64], cl
	mov	ecx, DWORD PTR [esi+4020]
	push	edx
	mov	edx, DWORD PTR $T238961[esp+68]
	push	edx
	push	eax
	push	ecx
	mov	ecx, OFFSET ?gGlobals@@3VCvGlobals@@A	; gGlobals
	call	?getStepFinder@CvGlobals@@QAEAAVCvStepPathFinder@@XZ ; CvGlobals::getStepFinder
	mov	ecx, eax
	call	?Initialize@CvAStar@@QAEXHH_N0P6AHHHPBXPAV1@@Z3P6AHHHHH@ZP6AHPAVCvAStarNode@@5H12@Z666P6AH52@ZP6AH5HAAH82@ZP6AX12@ZP6AX12@Z1@Z ; CvAStar::Initialize

; 530  : 	GC.getRouteFinder().Initialize(getGridWidth(), getGridHeight(), isWrapX(), isWrapY(), PathDest, NULL, NULL, NULL, RouteValid, NULL, NULL, RouteGetNumExtraChildren, RouteGetExtraChild, NULL, NULL, NULL);

	movzx	eax, BYTE PTR [esi+4057]
	movzx	ecx, BYTE PTR [esi+4056]
	push	0
	push	0
	push	0
	push	OFFSET ?RouteGetExtraChild@@YAHPAVCvAStarNode@@HAAH1PAVCvAStar@@@Z ; RouteGetExtraChild
	push	OFFSET ?RouteGetNumExtraChildren@@YAHPAVCvAStarNode@@PAVCvAStar@@@Z ; RouteGetNumExtraChildren
	push	0
	push	0
	push	OFFSET ?RouteValid@@YAHPAVCvAStarNode@@0HPBXPAVCvAStar@@@Z ; RouteValid
	push	0
	push	0
	push	0
	mov	BYTE PTR $T238973[esp+60], al
	mov	edx, DWORD PTR $T238973[esp+60]
	mov	eax, DWORD PTR [esi+4024]
	push	OFFSET ?PathDest@@YAHHHPBXPAVCvAStar@@@Z ; PathDest
	mov	BYTE PTR $T238977[esp+64], cl
	mov	ecx, DWORD PTR [esi+4020]
	push	edx
	mov	edx, DWORD PTR $T238977[esp+68]
	push	edx
	push	eax
	push	ecx
	mov	ecx, OFFSET ?gGlobals@@3VCvGlobals@@A	; gGlobals
	call	?getRouteFinder@CvGlobals@@QAEAAVCvAStar@@XZ ; CvGlobals::getRouteFinder
	mov	ecx, eax
	call	?Initialize@CvAStar@@QAEXHH_N0P6AHHHPBXPAV1@@Z3P6AHHHHH@ZP6AHPAVCvAStarNode@@5H12@Z666P6AH52@ZP6AH5HAAH82@ZP6AX12@ZP6AX12@Z1@Z ; CvAStar::Initialize

; 531  : 	GC.GetWaterRouteFinder().Initialize(getGridWidth(), getGridHeight(), isWrapX(), isWrapY(), PathDest, NULL, NULL, NULL, WaterRouteValid, NULL, NULL, NULL, NULL, NULL, NULL, NULL);

	movzx	eax, BYTE PTR [esi+4057]
	movzx	ecx, BYTE PTR [esi+4056]
	push	0
	push	0
	push	0
	push	0
	push	0
	push	0
	mov	BYTE PTR $T238989[esp+40], al
	mov	eax, DWORD PTR [esi+4024]
	mov	BYTE PTR $T238993[esp+40], cl
	mov	ecx, DWORD PTR [esi+4020]
	push	0
	mov	edx, DWORD PTR $T238989[esp+44]
	push	OFFSET ?WaterRouteValid@@YAHPAVCvAStarNode@@0HPBXPAVCvAStar@@@Z ; WaterRouteValid
	push	0
	push	0
	push	0
	push	OFFSET ?PathDest@@YAHHHPBXPAVCvAStar@@@Z ; PathDest
	push	edx
	mov	edx, DWORD PTR $T238993[esp+68]
	push	edx
	push	eax
	push	ecx
	mov	ecx, OFFSET ?gGlobals@@3VCvGlobals@@A	; gGlobals
	call	?GetWaterRouteFinder@CvGlobals@@QAEAAVCvAStar@@XZ ; CvGlobals::GetWaterRouteFinder
	mov	ecx, eax
	call	?Initialize@CvAStar@@QAEXHH_N0P6AHHHPBXPAV1@@Z3P6AHHHHH@ZP6AHPAVCvAStarNode@@5H12@Z666P6AH52@ZP6AH5HAAH82@ZP6AX12@ZP6AX12@Z1@Z ; CvAStar::Initialize

; 532  : 	GC.getAreaFinder().Initialize(getGridWidth(), getGridHeight(), isWrapX(), isWrapY(), PathDest, NULL, NULL, NULL, AreaValid, NULL, JoinArea, NULL, NULL, NULL, NULL, NULL);

	movzx	eax, BYTE PTR [esi+4057]
	movzx	ecx, BYTE PTR [esi+4056]
	push	0
	push	0
	push	0
	push	0
	push	0
	push	OFFSET ?JoinArea@@YAHPAVCvAStarNode@@0HPBXPAVCvAStar@@@Z ; JoinArea
	push	0
	push	OFFSET ?AreaValid@@YAHPAVCvAStarNode@@0HPBXPAVCvAStar@@@Z ; AreaValid
	push	0
	push	0
	push	0
	mov	BYTE PTR $T239005[esp+60], al
	mov	edx, DWORD PTR $T239005[esp+60]
	mov	eax, DWORD PTR [esi+4024]
	push	OFFSET ?PathDest@@YAHHHPBXPAVCvAStar@@@Z ; PathDest
	mov	BYTE PTR $T239009[esp+64], cl
	mov	ecx, DWORD PTR [esi+4020]
	push	edx
	mov	edx, DWORD PTR $T239009[esp+68]
	push	edx
	push	eax
	push	ecx
	mov	ecx, OFFSET ?gGlobals@@3VCvGlobals@@A	; gGlobals
	call	?getAreaFinder@CvGlobals@@QAEAAVCvAStar@@XZ ; CvGlobals::getAreaFinder
	mov	ecx, eax
	call	?Initialize@CvAStar@@QAEXHH_N0P6AHHHPBXPAV1@@Z3P6AHHHHH@ZP6AHPAVCvAStarNode@@5H12@Z666P6AH52@ZP6AH5HAAH82@ZP6AX12@ZP6AX12@Z1@Z ; CvAStar::Initialize

; 533  : 	GC.getInfluenceFinder().Initialize(getGridWidth(), getGridHeight(), isWrapX(), isWrapY(), PathDest, InfluenceDestValid, InfluenceHeuristic, InfluenceCost, InfluenceValid, InfluenceAdd, NULL, NULL, NULL, NULL, NULL, NULL);

	movzx	eax, BYTE PTR [esi+4057]
	movzx	ecx, BYTE PTR [esi+4056]
	push	0
	push	0
	push	0
	push	0
	push	0
	push	0
	push	OFFSET ?InfluenceAdd@@YAHPAVCvAStarNode@@0HPBXPAVCvAStar@@@Z ; InfluenceAdd
	push	OFFSET ?InfluenceValid@@YAHPAVCvAStarNode@@0HPBXPAVCvAStar@@@Z ; InfluenceValid
	push	OFFSET ?InfluenceCost@@YAHPAVCvAStarNode@@0HPBXPAVCvAStar@@@Z ; InfluenceCost
	push	OFFSET ?InfluenceHeuristic@@YAHHHHH@Z	; InfluenceHeuristic
	push	OFFSET ?InfluenceDestValid@@YAHHHPBXPAVCvAStar@@@Z ; InfluenceDestValid
	mov	BYTE PTR $T239021[esp+60], al
	mov	edx, DWORD PTR $T239021[esp+60]
	mov	eax, DWORD PTR [esi+4024]
	push	OFFSET ?PathDest@@YAHHHPBXPAVCvAStar@@@Z ; PathDest
	mov	BYTE PTR $T239025[esp+64], cl
	mov	ecx, DWORD PTR [esi+4020]
	push	edx
	mov	edx, DWORD PTR $T239025[esp+68]
	push	edx
	push	eax
	push	ecx
	mov	ecx, OFFSET ?gGlobals@@3VCvGlobals@@A	; gGlobals
	call	?getInfluenceFinder@CvGlobals@@QAEAAVCvAStar@@XZ ; CvGlobals::getInfluenceFinder
	mov	ecx, eax
	call	?Initialize@CvAStar@@QAEXHH_N0P6AHHHPBXPAV1@@Z3P6AHHHHH@ZP6AHPAVCvAStarNode@@5H12@Z666P6AH52@ZP6AH5HAAH82@ZP6AX12@ZP6AX12@Z1@Z ; CvAStar::Initialize

; 534  : 	GC.GetBuildRouteFinder().Initialize(getGridWidth(), getGridHeight(), isWrapX(), isWrapY(), PathDest, NULL, NULL, BuildRouteCost, BuildRouteValid, NULL, NULL, NULL, NULL, NULL, NULL, NULL);

	movzx	eax, BYTE PTR [esi+4057]
	movzx	ecx, BYTE PTR [esi+4056]
	push	0
	push	0
	push	0
	mov	BYTE PTR $T239037[esp+28], al
	mov	eax, DWORD PTR [esi+4024]
	mov	BYTE PTR $T239041[esp+28], cl
	mov	ecx, DWORD PTR [esi+4020]
	push	0
	mov	edx, DWORD PTR $T239037[esp+32]
	push	0
	push	0
	push	0
	push	OFFSET ?BuildRouteValid@@YAHPAVCvAStarNode@@0HPBXPAVCvAStar@@@Z ; BuildRouteValid
	push	OFFSET ?BuildRouteCost@@YAHPAVCvAStarNode@@0HPBXPAVCvAStar@@@Z ; BuildRouteCost
	push	0
	push	0
	push	OFFSET ?PathDest@@YAHHHPBXPAVCvAStar@@@Z ; PathDest
	push	edx
	mov	edx, DWORD PTR $T239041[esp+68]
	push	edx
	push	eax
	push	ecx
	mov	ecx, OFFSET ?gGlobals@@3VCvGlobals@@A	; gGlobals
	call	?GetBuildRouteFinder@CvGlobals@@QAEAAVCvAStar@@XZ ; CvGlobals::GetBuildRouteFinder
	mov	ecx, eax
	call	?Initialize@CvAStar@@QAEXHH_N0P6AHHHPBXPAV1@@Z3P6AHHHHH@ZP6AHPAVCvAStarNode@@5H12@Z666P6AH52@ZP6AH5HAAH82@ZP6AX12@ZP6AX12@Z1@Z ; CvAStar::Initialize

; 535  : 	GC.GetInternationalTradeRouteLandFinder().Initialize(getGridWidth(), getGridHeight(), isWrapX(), isWrapY(), PathDest, NULL,	TradeRouteHeuristic, TradeRouteLandPathCost, TradeRouteLandValid, NULL, NULL, NULL, NULL, TradePathInitialize, TradePathUninitialize, NULL);

	movzx	eax, BYTE PTR [esi+4057]
	movzx	ecx, BYTE PTR [esi+4056]
	push	0
	push	OFFSET ?TradePathUninitialize@@YAXPBXPAVCvAStar@@@Z ; TradePathUninitialize
	push	OFFSET ?TradePathInitialize@@YAXPBXPAVCvAStar@@@Z ; TradePathInitialize
	push	0
	push	0
	push	0
	push	0
	push	OFFSET ?TradeRouteLandValid@@YAHPAVCvAStarNode@@0HPBXPAVCvAStar@@@Z ; TradeRouteLandValid
	push	OFFSET ?TradeRouteLandPathCost@@YAHPAVCvAStarNode@@0HPBXPAVCvAStar@@@Z ; TradeRouteLandPathCost
	push	OFFSET ?TradeRouteHeuristic@@YAHHHHH@Z	; TradeRouteHeuristic
	push	0
	mov	BYTE PTR $T239053[esp+60], al
	mov	edx, DWORD PTR $T239053[esp+60]
	mov	eax, DWORD PTR [esi+4024]
	push	OFFSET ?PathDest@@YAHHHPBXPAVCvAStar@@@Z ; PathDest
	mov	BYTE PTR $T239057[esp+64], cl
	mov	ecx, DWORD PTR [esi+4020]
	push	edx
	mov	edx, DWORD PTR $T239057[esp+68]
	push	edx
	push	eax
	push	ecx
	mov	ecx, OFFSET ?gGlobals@@3VCvGlobals@@A	; gGlobals
	call	?GetInternationalTradeRouteLandFinder@CvGlobals@@QAEAAVCvAStar@@XZ ; CvGlobals::GetInternationalTradeRouteLandFinder
	mov	ecx, eax
	call	?Initialize@CvAStar@@QAEXHH_N0P6AHHHPBXPAV1@@Z3P6AHHHHH@ZP6AHPAVCvAStarNode@@5H12@Z666P6AH52@ZP6AH5HAAH82@ZP6AX12@ZP6AX12@Z1@Z ; CvAStar::Initialize

; 536  : 	GC.GetInternationalTradeRouteWaterFinder().Initialize(getGridWidth(), getGridHeight(), isWrapX(), isWrapY(), PathDest, NULL, TradeRouteHeuristic, TradeRouteWaterPathCost, TradeRouteWaterValid, NULL, NULL, NULL, NULL, TradePathInitialize, TradePathUninitialize, NULL);

	movzx	eax, BYTE PTR [esi+4057]
	movzx	ecx, BYTE PTR [esi+4056]
	push	0
	push	OFFSET ?TradePathUninitialize@@YAXPBXPAVCvAStar@@@Z ; TradePathUninitialize
	push	OFFSET ?TradePathInitialize@@YAXPBXPAVCvAStar@@@Z ; TradePathInitialize
	push	0
	push	0
	push	0
	push	0
	push	OFFSET ?TradeRouteWaterValid@@YAHPAVCvAStarNode@@0HPBXPAVCvAStar@@@Z ; TradeRouteWaterValid
	push	OFFSET ?TradeRouteWaterPathCost@@YAHPAVCvAStarNode@@0HPBXPAVCvAStar@@@Z ; TradeRouteWaterPathCost
	push	OFFSET ?TradeRouteHeuristic@@YAHHHHH@Z	; TradeRouteHeuristic
	push	0
	mov	BYTE PTR $T239069[esp+60], al
	mov	edx, DWORD PTR $T239069[esp+60]
	mov	eax, DWORD PTR [esi+4024]
	push	OFFSET ?PathDest@@YAHHHPBXPAVCvAStar@@@Z ; PathDest
	mov	BYTE PTR $T239073[esp+64], cl
	mov	ecx, DWORD PTR [esi+4020]
	push	edx
	mov	edx, DWORD PTR $T239073[esp+68]
	push	edx
	push	eax
	push	ecx
	mov	ecx, OFFSET ?gGlobals@@3VCvGlobals@@A	; gGlobals
	call	?GetInternationalTradeRouteWaterFinder@CvGlobals@@QAEAAVCvAStar@@XZ ; CvGlobals::GetInternationalTradeRouteWaterFinder
	mov	ecx, eax
	call	?Initialize@CvAStar@@QAEXHH_N0P6AHHHPBXPAV1@@Z3P6AHHHHH@ZP6AHPAVCvAStarNode@@5H12@Z666P6AH52@ZP6AH5HAAH82@ZP6AX12@ZP6AX12@Z1@Z ; CvAStar::Initialize

; 537  : 	GC.GetTacticalAnalysisMapFinder().Initialize(getGridWidth(), getGridHeight(), isWrapX(), isWrapY(), PathDest, PathDestValid, PathHeuristic, PathCost, TacticalAnalysisMapPathValid, PathAdd, PathNodeAdd, UnitPathInitialize, UnitPathUninitialize, NULL);

	movzx	eax, BYTE PTR [esi+4057]
	movzx	ecx, BYTE PTR [esi+4056]
	mov	BYTE PTR $T239085[esp+16], al
	mov	eax, DWORD PTR [esi+4024]
	mov	esi, DWORD PTR [esi+4020]
	mov	BYTE PTR $T239089[esp+16], cl
	push	0
	mov	edx, DWORD PTR $T239085[esp+20]
	mov	ecx, DWORD PTR $T239089[esp+20]
	push	OFFSET ?UnitPathUninitialize@@YAXPBXPAVCvAStar@@@Z ; UnitPathUninitialize
	push	OFFSET ?UnitPathInitialize@@YAXPBXPAVCvAStar@@@Z ; UnitPathInitialize
	push	OFFSET ?PathNodeAdd@@YAHPAVCvAStarNode@@0HPBXPAVCvAStar@@@Z ; PathNodeAdd
	push	OFFSET ?PathAdd@@YAHPAVCvAStarNode@@0HPBXPAVCvAStar@@@Z ; PathAdd
	push	OFFSET ?TacticalAnalysisMapPathValid@@YAHPAVCvAStarNode@@0HPBXPAVCvAStar@@@Z ; TacticalAnalysisMapPathValid
	push	OFFSET ?PathCost@@YAHPAVCvAStarNode@@0HPBXPAVCvAStar@@@Z ; PathCost
	push	OFFSET ?PathHeuristic@@YAHHHHH@Z	; PathHeuristic
	push	OFFSET ?PathDestValid@@YAHHHPBXPAVCvAStar@@@Z ; PathDestValid
	push	OFFSET ?PathDest@@YAHHHPBXPAVCvAStar@@@Z ; PathDest
	push	edx
	push	ecx
	push	eax
	push	esi
	mov	ecx, OFFSET ?gGlobals@@3VCvGlobals@@A	; gGlobals
	call	?GetTacticalAnalysisMapFinder@CvGlobals@@QAEAAVCvTwoLayerPathFinder@@XZ ; CvGlobals::GetTacticalAnalysisMapFinder
	mov	ecx, eax
	call	?Initialize@CvTwoLayerPathFinder@@QAEXHH_N0P6AHHHPBXPAVCvAStar@@@Z3P6AHHHHH@ZP6AHPAVCvAStarNode@@5H12@Z666P6AX12@Z71@Z ; CvTwoLayerPathFinder::Initialize

; 538  : 	GC.GetTacticalAnalysisMapFinder().SetDataChangeInvalidatesCache(true);

	mov	ecx, OFFSET ?gGlobals@@3VCvGlobals@@A	; gGlobals
	call	?GetTacticalAnalysisMapFinder@CvGlobals@@QAEAAVCvTwoLayerPathFinder@@XZ ; CvGlobals::GetTacticalAnalysisMapFinder
	pop	esi
	mov	BYTE PTR [eax+80], bl
	pop	ebx

; 539  : }

	add	esp, 8
	ret	0
?setup@CvMap@@IAEXXZ ENDP				; CvMap::setup
_TEXT	ENDS
PUBLIC	?setupGraphical@CvMap@@QAEXXZ			; CvMap::setupGraphical
EXTRN	?setupGraphical@CvPlot@@QAEXXZ:PROC		; CvPlot::setupGraphical
EXTRN	?IsGraphicsInitialized@CvGlobals@@QBE_NXZ:PROC	; CvGlobals::IsGraphicsInitialized
; Function compile flags: /Ogtpy
;	COMDAT ?setupGraphical@CvMap@@QAEXXZ
_TEXT	SEGMENT
?setupGraphical@CvMap@@QAEXXZ PROC			; CvMap::setupGraphical, COMDAT
; _this$ = ecx

; 546  : {

	push	esi
	mov	esi, ecx

; 547  : 	if(!GC.IsGraphicsInitialized())

	mov	ecx, OFFSET ?gGlobals@@3VCvGlobals@@A	; gGlobals
	call	?IsGraphicsInitialized@CvGlobals@@QBE_NXZ ; CvGlobals::IsGraphicsInitialized
	test	al, al
	je	SHORT $LN1@setupGraph

; 548  : 		return;
; 549  : 
; 550  : 	if(m_pMapPlots != NULL)

	cmp	DWORD PTR [esi+4068], 0
	je	SHORT $LN1@setupGraph
	push	edi

; 551  : 	{
; 552  : #if defined(AUI_WARNING_FIXES) && defined(AUI_USE_OPENMP)
; 553  : #pragma omp parallel for
; 554  : 		for (int iI = 0; iI < (int)numPlots(); iI++)
; 555  : #elif defined(AUI_WARNING_FIXES)
; 556  : 		for (uint iI = 0; iI < numPlots(); iI++)
; 557  : #elif defined (AUI_USE_OPENMP)
; 558  : #pragma omp parallel for
; 559  : 		for (int iI = 0; iI < numPlots(); iI++)
; 560  : #else
; 561  : 		int iI;
; 562  : 		for(iI = 0; iI < numPlots(); iI++)

	xor	edi, edi
	cmp	DWORD PTR [esi+4028], edi
	jle	SHORT $LN14@setupGraph
	push	ebx
	xor	ebx, ebx
	npad	8
$LL3@setupGraph:

; 563  : #endif
; 564  : 		{
; 565  : 			plotByIndexUnchecked(iI)->setupGraphical();

	mov	ecx, DWORD PTR [esi+4068]
	add	ecx, ebx
	call	?setupGraphical@CvPlot@@QAEXXZ		; CvPlot::setupGraphical
	inc	edi
	add	ebx, 484				; 000001e4H
	cmp	edi, DWORD PTR [esi+4028]
	jl	SHORT $LL3@setupGraph
	pop	ebx
$LN14@setupGraph:
	pop	edi
$LN1@setupGraph:
	pop	esi

; 566  : 		}
; 567  : 	}
; 568  : }

	ret	0
?setupGraphical@CvMap@@QAEXXZ ENDP			; CvMap::setupGraphical
_TEXT	ENDS
PUBLIC	?erasePlots@CvMap@@QAEXXZ			; CvMap::erasePlots
EXTRN	?erase@CvPlot@@QAEX_N@Z:PROC			; CvPlot::erase
; Function compile flags: /Ogtpy
;	COMDAT ?erasePlots@CvMap@@QAEXXZ
_TEXT	SEGMENT
?erasePlots@CvMap@@QAEXXZ PROC				; CvMap::erasePlots, COMDAT
; _this$ = ecx

; 573  : {

	push	esi
	push	edi
	mov	esi, ecx

; 574  : #ifdef AUI_WARNING_FIXES
; 575  : 	for (uint iI = 0; iI < numPlots(); iI++)
; 576  : #else
; 577  : 	int iI;
; 578  : 
; 579  : 	for(iI = 0; iI < numPlots(); iI++)

	xor	edi, edi
	cmp	DWORD PTR [esi+4028], edi
	jle	SHORT $LN1@erasePlots
	push	ebx
	xor	ebx, ebx
$LL3@erasePlots:

; 580  : #endif
; 581  : 	{
; 582  : 		plotByIndexUnchecked(iI)->erase(true/*bEraseUnitsIfWater*/);

	mov	ecx, DWORD PTR [esi+4068]
	push	1
	add	ecx, ebx
	call	?erase@CvPlot@@QAEX_N@Z			; CvPlot::erase
	inc	edi
	add	ebx, 484				; 000001e4H
	cmp	edi, DWORD PTR [esi+4028]
	jl	SHORT $LL3@erasePlots
	pop	ebx
$LN1@erasePlots:
	pop	edi
	pop	esi

; 583  : 	}
; 584  : }

	ret	0
?erasePlots@CvMap@@QAEXXZ ENDP				; CvMap::erasePlots
_TEXT	ENDS
PUBLIC	?setRevealedPlots@CvMap@@QAEXW4TeamTypes@@_N1@Z	; CvMap::setRevealedPlots
EXTRN	?setRevealed@CvPlot@@QAE_NW4TeamTypes@@_N10@Z:PROC ; CvPlot::setRevealed
; Function compile flags: /Ogtpy
;	COMDAT ?setRevealedPlots@CvMap@@QAEXW4TeamTypes@@_N1@Z
_TEXT	SEGMENT
_eTeam$ = 8						; size = 4
_bNewValue$ = 12					; size = 1
_bTerrainOnly$ = 16					; size = 1
?setRevealedPlots@CvMap@@QAEXW4TeamTypes@@_N1@Z PROC	; CvMap::setRevealedPlots, COMDAT
; _this$ = ecx

; 589  : {

	push	esi
	push	edi
	mov	esi, ecx

; 590  : #ifdef AUI_WARNING_FIXES
; 591  : 	for (uint iI = 0; iI < numPlots(); iI++)
; 592  : #else
; 593  : 	int iI;
; 594  : 
; 595  : 	for(iI = 0; iI < numPlots(); iI++)

	xor	edi, edi
	cmp	DWORD PTR [esi+4028], edi
	jle	SHORT $LN1@setReveale
	push	ebx
	push	ebp
	mov	ebp, DWORD PTR _eTeam$[esp+12]
	xor	ebx, ebx
$LL3@setReveale:

; 596  : #endif
; 597  : 	{
; 598  : 		plotByIndexUnchecked(iI)->setRevealed(eTeam, bNewValue, bTerrainOnly);

	mov	eax, DWORD PTR _bTerrainOnly$[esp+12]
	mov	ecx, DWORD PTR _bNewValue$[esp+12]
	push	-1
	push	eax
	push	ecx
	mov	ecx, DWORD PTR [esi+4068]
	push	ebp
	add	ecx, ebx
	call	?setRevealed@CvPlot@@QAE_NW4TeamTypes@@_N10@Z ; CvPlot::setRevealed
	inc	edi
	add	ebx, 484				; 000001e4H
	cmp	edi, DWORD PTR [esi+4028]
	jl	SHORT $LL3@setReveale
	pop	ebp
	pop	ebx
$LN1@setReveale:
	pop	edi
	pop	esi

; 599  : 	}
; 600  : }

	ret	12					; 0000000cH
?setRevealedPlots@CvMap@@QAEXW4TeamTypes@@_N1@Z ENDP	; CvMap::setRevealedPlots
_TEXT	ENDS
PUBLIC	?doTurn@CvMap@@QAEXXZ				; CvMap::doTurn
EXTRN	?doTurn@CvPlot@@QAEXXZ:PROC			; CvPlot::doTurn
; Function compile flags: /Ogtpy
;	COMDAT ?doTurn@CvMap@@QAEXXZ
_TEXT	SEGMENT
?doTurn@CvMap@@QAEXXZ PROC				; CvMap::doTurn, COMDAT
; _this$ = ecx

; 622  : {

	push	esi
	push	edi
	mov	esi, ecx

; 623  : #ifdef AUI_WARNING_FIXES
; 624  : 	for (uint iI = 0; iI < numPlots(); iI++)
; 625  : #else
; 626  : 	int iI;
; 627  : 
; 628  : 	for(iI = 0; iI < numPlots(); iI++)

	xor	edi, edi
	cmp	DWORD PTR [esi+4028], edi
	jle	SHORT $LN1@doTurn
	push	ebx
	xor	ebx, ebx
$LL3@doTurn:

; 629  : #endif
; 630  : 	{
; 631  : 		plotByIndexUnchecked(iI)->doTurn();

	mov	ecx, DWORD PTR [esi+4068]
	add	ecx, ebx
	call	?doTurn@CvPlot@@QAEXXZ			; CvPlot::doTurn
	inc	edi
	add	ebx, 484				; 000001e4H
	cmp	edi, DWORD PTR [esi+4028]
	jl	SHORT $LL3@doTurn
	pop	ebx
$LN1@doTurn:
	pop	edi
	pop	esi

; 632  : 	}
; 633  : }

	ret	0
?doTurn@CvMap@@QAEXXZ ENDP				; CvMap::doTurn
_TEXT	ENDS
PUBLIC	?updateFog@CvMap@@QAEXXZ			; CvMap::updateFog
EXTRN	?updateFog@CvPlot@@QAEX_N@Z:PROC		; CvPlot::updateFog
; Function compile flags: /Ogtpy
;	COMDAT ?updateFog@CvMap@@QAEXXZ
_TEXT	SEGMENT
?updateFog@CvMap@@QAEXXZ PROC				; CvMap::updateFog, COMDAT
; _this$ = ecx

; 638  : {

	push	esi
	push	edi
	mov	esi, ecx

; 639  : #if defined(AUI_WARNING_FIXES) && defined(AUI_USE_OPENMP)
; 640  : #pragma omp parallel for
; 641  : 	for (int iI = 0; iI < (int)numPlots(); iI++)
; 642  : #elif defined(AUI_WARNING_FIXES)
; 643  : 	for (uint iI = 0; iI < numPlots(); iI++)
; 644  : #elif defined(AUI_USE_OPENMP)
; 645  : #pragma omp parallel for
; 646  : 	for (int iI = 0; iI < numPlots(); iI++)
; 647  : #else
; 648  : 	int iI;
; 649  : 
; 650  : 	for(iI = 0; iI < numPlots(); iI++)

	xor	edi, edi
	cmp	DWORD PTR [esi+4028], edi
	jle	SHORT $LN1@updateFog
	push	ebx
	xor	ebx, ebx
$LL3@updateFog:

; 651  : #endif
; 652  : 	{
; 653  : 		plotByIndexUnchecked(iI)->updateFog();

	mov	ecx, DWORD PTR [esi+4068]
	push	0
	add	ecx, ebx
	call	?updateFog@CvPlot@@QAEX_N@Z		; CvPlot::updateFog
	inc	edi
	add	ebx, 484				; 000001e4H
	cmp	edi, DWORD PTR [esi+4028]
	jl	SHORT $LL3@updateFog
	pop	ebx
$LN1@updateFog:
	pop	edi
	pop	esi

; 654  : 	}
; 655  : }

	ret	0
?updateFog@CvMap@@QAEXXZ ENDP				; CvMap::updateFog
_TEXT	ENDS
PUBLIC	?updateVisibility@CvMap@@QAEXXZ			; CvMap::updateVisibility
EXTRN	?updateVisibility@CvPlot@@QAEXXZ:PROC		; CvPlot::updateVisibility
; Function compile flags: /Ogtpy
;	COMDAT ?updateVisibility@CvMap@@QAEXXZ
_TEXT	SEGMENT
?updateVisibility@CvMap@@QAEXXZ PROC			; CvMap::updateVisibility, COMDAT
; _this$ = ecx

; 671  : {

	push	esi
	push	edi
	mov	esi, ecx

; 672  : #if defined(AUI_WARNING_FIXES) && defined(AUI_USE_OPENMP)
; 673  : #pragma omp parallel for
; 674  : 	for (int iI = 0; iI < (int)numPlots(); iI++)
; 675  : #elif defined(AUI_WARNING_FIXES)
; 676  : 	for (uint iI = 0; iI < numPlots(); iI++)
; 677  : #elif defined(AUI_USE_OPENMP)
; 678  : #pragma omp parallel for
; 679  : 	for (int iI = 0; iI < numPlots(); iI++)
; 680  : #else
; 681  : 	int iI;
; 682  : 
; 683  : 	for(iI = 0; iI < numPlots(); iI++)

	xor	edi, edi
	cmp	DWORD PTR [esi+4028], edi
	jle	SHORT $LN1@updateVisi
	push	ebx
	xor	ebx, ebx
$LL3@updateVisi:

; 684  : #endif
; 685  : 	{
; 686  : 		plotByIndexUnchecked(iI)->updateVisibility();

	mov	ecx, DWORD PTR [esi+4068]
	add	ecx, ebx
	call	?updateVisibility@CvPlot@@QAEXXZ	; CvPlot::updateVisibility
	inc	edi
	add	ebx, 484				; 000001e4H
	cmp	edi, DWORD PTR [esi+4028]
	jl	SHORT $LL3@updateVisi
	pop	ebx
$LN1@updateVisi:
	pop	edi
	pop	esi

; 687  : 	}
; 688  : }

	ret	0
?updateVisibility@CvMap@@QAEXXZ ENDP			; CvMap::updateVisibility
_TEXT	ENDS
PUBLIC	?updateLayout@CvMap@@QAEX_N@Z			; CvMap::updateLayout
EXTRN	?setLayoutDirty@CvPlot@@QAEX_N@Z:PROC		; CvPlot::setLayoutDirty
EXTRN	?updateLayout@CvPlot@@QAEX_N@Z:PROC		; CvPlot::updateLayout
EXTRN	?isLayoutDirty@CvPlot@@QBE_NXZ:PROC		; CvPlot::isLayoutDirty
; Function compile flags: /Ogtpy
;	COMDAT ?updateLayout@CvMap@@QAEX_N@Z
_TEXT	SEGMENT
_bDebug$ = 8						; size = 1
?updateLayout@CvMap@@QAEX_N@Z PROC			; CvMap::updateLayout, COMDAT
; _this$ = ecx

; 692  : {

	push	ebx
	push	edi
	mov	edi, ecx

; 693  : #ifdef AUI_WARNING_FIXES
; 694  : 	for (uint iI = 0; iI < numPlots(); iI++)
; 695  : #else
; 696  : 	for(int iI = 0; iI < numPlots(); iI++)

	xor	ebx, ebx
	cmp	DWORD PTR [edi+4028], ebx
	jle	SHORT $LN2@updateLayo
	push	ebp
	push	esi
	xor	ebp, ebp
$LL4@updateLayo:

; 697  : #endif
; 698  : 	{
; 699  : 		CvPlot* pThisPlot = plotByIndexUnchecked(iI);

	mov	esi, DWORD PTR [edi+4068]
	add	esi, ebp

; 700  : 		if(pThisPlot && pThisPlot->isLayoutDirty())

	je	SHORT $LN3@updateLayo
	mov	ecx, esi
	call	?isLayoutDirty@CvPlot@@QBE_NXZ		; CvPlot::isLayoutDirty
	test	al, al
	je	SHORT $LN3@updateLayo

; 701  : 		{
; 702  : 			pThisPlot->updateLayout(bDebug);

	mov	eax, DWORD PTR _bDebug$[esp+12]
	push	eax
	mov	ecx, esi
	call	?updateLayout@CvPlot@@QAEX_N@Z		; CvPlot::updateLayout

; 703  : 			pThisPlot->setLayoutDirty(false);

	push	0
	mov	ecx, esi
	call	?setLayoutDirty@CvPlot@@QAEX_N@Z	; CvPlot::setLayoutDirty
$LN3@updateLayo:
	inc	ebx
	add	ebp, 484				; 000001e4H
	cmp	ebx, DWORD PTR [edi+4028]
	jl	SHORT $LL4@updateLayo
	pop	esi
	pop	ebp
$LN2@updateLayo:

; 704  : 		}
; 705  : 	}
; 706  : 	DLLUI->setDirty(PlotData_DIRTY_BIT,false);

	mov	ecx, DWORD PTR ?gGlobals@@3VCvGlobals@@A+8568
	mov	edx, DWORD PTR [ecx]
	mov	eax, DWORD PTR [edx+260]
	push	0
	push	33					; 00000021H
	call	eax
	pop	edi
	pop	ebx

; 707  : }

	ret	4
?updateLayout@CvMap@@QAEX_N@Z ENDP			; CvMap::updateLayout
_TEXT	ENDS
PUBLIC	?updateSight@CvMap@@QAEX_N@Z			; CvMap::updateSight
EXTRN	?updateSight@CvPlot@@QAEX_N@Z:PROC		; CvPlot::updateSight
; Function compile flags: /Ogtpy
;	COMDAT ?updateSight@CvMap@@QAEX_N@Z
_TEXT	SEGMENT
_bIncrement$ = 8					; size = 1
?updateSight@CvMap@@QAEX_N@Z PROC			; CvMap::updateSight, COMDAT
; _this$ = ecx

; 711  : {

	push	esi
	push	edi
	mov	esi, ecx

; 712  : #ifdef AUI_WARNING_FIXES
; 713  : 	for (uint iI = 0; iI < numPlots(); iI++)
; 714  : #else
; 715  : 	int iI;
; 716  : 
; 717  : 	for(iI = 0; iI < numPlots(); iI++)

	xor	edi, edi
	cmp	DWORD PTR [esi+4028], edi
	jle	SHORT $LN1@updateSigh
	push	ebx
	push	ebp
	mov	ebp, DWORD PTR _bIncrement$[esp+12]
	xor	ebx, ebx
$LL3@updateSigh:

; 718  : #endif
; 719  : 	{
; 720  : 		plotByIndexUnchecked(iI)->updateSight(bIncrement);

	mov	ecx, DWORD PTR [esi+4068]
	push	ebp
	add	ecx, ebx
	call	?updateSight@CvPlot@@QAEX_N@Z		; CvPlot::updateSight
	inc	edi
	add	ebx, 484				; 000001e4H
	cmp	edi, DWORD PTR [esi+4028]
	jl	SHORT $LL3@updateSigh
	pop	ebp
	pop	ebx
$LN1@updateSigh:
	pop	edi
	pop	esi

; 721  : 	}
; 722  : }

	ret	4
?updateSight@CvMap@@QAEX_N@Z ENDP			; CvMap::updateSight
_TEXT	ENDS
PUBLIC	?updateCenterUnit@CvMap@@QAEXXZ			; CvMap::updateCenterUnit
EXTRN	?updateCenterUnit@CvPlot@@QAEXXZ:PROC		; CvPlot::updateCenterUnit
; Function compile flags: /Ogtpy
;	COMDAT ?updateCenterUnit@CvMap@@QAEXXZ
_TEXT	SEGMENT
?updateCenterUnit@CvMap@@QAEXXZ PROC			; CvMap::updateCenterUnit, COMDAT
; _this$ = ecx

; 727  : {

	push	esi
	push	edi
	mov	esi, ecx

; 728  : #if defined(AUI_WARNING_FIXES) && defined(AUI_USE_OPENMP)
; 729  : #pragma omp parallel for
; 730  : 	for (int iI = 0; iI < (int)numPlots(); iI++)
; 731  : #elif defined(AUI_WARNING_FIXES)
; 732  : 	for (uint iI = 0; iI < numPlots(); iI++)
; 733  : #elif defined(AUI_USE_OPENMP)
; 734  : #pragma omp parallel for
; 735  : 	for (int iI = 0; iI < numPlots(); iI++)
; 736  : #else
; 737  : 	int iI;
; 738  : 
; 739  : 	for(iI = 0; iI < numPlots(); iI++)

	xor	edi, edi
	cmp	DWORD PTR [esi+4028], edi
	jle	SHORT $LN1@updateCent
	push	ebx
	xor	ebx, ebx
$LL3@updateCent:

; 740  : #endif
; 741  : 	{
; 742  : 		plotByIndexUnchecked(iI)->updateCenterUnit();

	mov	ecx, DWORD PTR [esi+4068]
	add	ecx, ebx
	call	?updateCenterUnit@CvPlot@@QAEXXZ	; CvPlot::updateCenterUnit
	inc	edi
	add	ebx, 484				; 000001e4H
	cmp	edi, DWORD PTR [esi+4028]
	jl	SHORT $LL3@updateCent
	pop	ebx
$LN1@updateCent:
	pop	edi
	pop	esi

; 743  : 	}
; 744  : }

	ret	0
?updateCenterUnit@CvMap@@QAEXXZ ENDP			; CvMap::updateCenterUnit
_TEXT	ENDS
PUBLIC	?updateYield@CvMap@@QAEXXZ			; CvMap::updateYield
EXTRN	?updateYield@CvPlot@@QAEXXZ:PROC		; CvPlot::updateYield
; Function compile flags: /Ogtpy
;	COMDAT ?updateYield@CvMap@@QAEXXZ
_TEXT	SEGMENT
?updateYield@CvMap@@QAEXXZ PROC				; CvMap::updateYield, COMDAT
; _this$ = ecx

; 792  : {

	push	esi
	push	edi
	mov	esi, ecx

; 793  : #ifdef AUI_WARNING_FIXES
; 794  : 	for (uint iI = 0; iI < numPlots(); iI++)
; 795  : #else
; 796  : 	int iI;
; 797  : 
; 798  : 	for(iI = 0; iI < numPlots(); iI++)

	xor	edi, edi
	cmp	DWORD PTR [esi+4028], edi
	jle	SHORT $LN1@updateYiel
	push	ebx
	xor	ebx, ebx
$LL3@updateYiel:

; 799  : #endif
; 800  : 	{
; 801  : 		plotByIndexUnchecked(iI)->updateYield();

	mov	ecx, DWORD PTR [esi+4068]
	add	ecx, ebx
	call	?updateYield@CvPlot@@QAEXXZ		; CvPlot::updateYield
	inc	edi
	add	ebx, 484				; 000001e4H
	cmp	edi, DWORD PTR [esi+4028]
	jl	SHORT $LL3@updateYiel
	pop	ebx
$LN1@updateYiel:
	pop	edi
	pop	esi

; 802  : 	}
; 803  : }

	ret	0
?updateYield@CvMap@@QAEXXZ ENDP				; CvMap::updateYield
_TEXT	ENDS
PUBLIC	?updateAdjacency@CvMap@@QAEXXZ			; CvMap::updateAdjacency
EXTRN	?isAdjacentToLand@CvPlot@@QBE_NXZ:PROC		; CvPlot::isAdjacentToLand
; Function compile flags: /Ogtpy
;	COMDAT ?updateAdjacency@CvMap@@QAEXXZ
_TEXT	SEGMENT
?updateAdjacency@CvMap@@QAEXXZ PROC			; CvMap::updateAdjacency, COMDAT
; _this$ = ecx

; 808  : {

	push	ebx
	push	edi
	mov	edi, ecx

; 809  : #if defined(AUI_WARNING_FIXES) && defined(AUI_USE_OPENMP)
; 810  : #pragma omp parallel for
; 811  : 	for (int iI = 0; iI < (int)numPlots(); iI++)
; 812  : #elif defined(AUI_WARNING_FIXES)
; 813  : 	for (uint iI = 0; iI < numPlots(); iI++)
; 814  : #elif defined(AUI_USE_OPENMP)
; 815  : #pragma omp parallel for
; 816  : 	for (int iI = 0; iI < numPlots(); iI++)
; 817  : #else
; 818  : 	int iI;
; 819  : 
; 820  : 	for(iI = 0; iI < numPlots(); iI++)

	xor	ebx, ebx
	cmp	DWORD PTR [edi+4028], ebx
	jle	SHORT $LN1@updateAdja
	push	ebp
	push	esi
	xor	ebp, ebp
$LL3@updateAdja:

; 821  : #endif
; 822  : 	{
; 823  : 		CvPlot* pPlot = plotByIndexUnchecked(iI);

	mov	esi, DWORD PTR [edi+4068]
	add	esi, ebp

; 824  : 		pPlot->m_bIsAdjacentToLand = pPlot->isAdjacentToLand();

	mov	ecx, esi
	call	?isAdjacentToLand@CvPlot@@QBE_NXZ	; CvPlot::isAdjacentToLand
	shl	al, 6
	xor	al, BYTE PTR [esi+462]
	inc	ebx
	and	al, 64					; 00000040H
	xor	BYTE PTR [esi+462], al
	add	ebp, 484				; 000001e4H
	cmp	ebx, DWORD PTR [edi+4028]
	jl	SHORT $LL3@updateAdja
	pop	esi
	pop	ebp
$LN1@updateAdja:
	pop	edi
	pop	ebx

; 825  : 	}
; 826  : }

	ret	0
?updateAdjacency@CvMap@@QAEXXZ ENDP			; CvMap::updateAdjacency
_TEXT	ENDS
PUBLIC	?verifyUnitValidPlot@CvMap@@QAEXXZ		; CvMap::verifyUnitValidPlot
EXTRN	?verifyUnitValidPlot@CvPlot@@QAEXXZ:PROC	; CvPlot::verifyUnitValidPlot
; Function compile flags: /Ogtpy
;	COMDAT ?verifyUnitValidPlot@CvMap@@QAEXXZ
_TEXT	SEGMENT
?verifyUnitValidPlot@CvMap@@QAEXXZ PROC			; CvMap::verifyUnitValidPlot, COMDAT
; _this$ = ecx

; 830  : {

	push	esi
	push	edi
	mov	esi, ecx

; 831  : #ifdef AUI_WARNING_FIXES
; 832  : 	for (uint iI = 0; iI < numPlots(); iI++)
; 833  : #else
; 834  : 	int iI;
; 835  : 
; 836  : 	for(iI = 0; iI < numPlots(); iI++)

	xor	edi, edi
	cmp	DWORD PTR [esi+4028], edi
	jle	SHORT $LN1@verifyUnit
	push	ebx
	xor	ebx, ebx
$LL3@verifyUnit:

; 837  : #endif
; 838  : 	{
; 839  : 		plotByIndexUnchecked(iI)->verifyUnitValidPlot();

	mov	ecx, DWORD PTR [esi+4068]
	add	ecx, ebx
	call	?verifyUnitValidPlot@CvPlot@@QAEXXZ	; CvPlot::verifyUnitValidPlot
	inc	edi
	add	ebx, 484				; 000001e4H
	cmp	edi, DWORD PTR [esi+4028]
	jl	SHORT $LL3@verifyUnit
	pop	ebx
$LN1@verifyUnit:
	pop	edi
	pop	esi

; 840  : 	}
; 841  : }

	ret	0
?verifyUnitValidPlot@CvMap@@QAEXXZ ENDP			; CvMap::verifyUnitValidPlot
_TEXT	ENDS
PUBLIC	?getMapFractalFlags@CvMap@@QAEHXZ		; CvMap::getMapFractalFlags
; Function compile flags: /Ogtpy
;	COMDAT ?getMapFractalFlags@CvMap@@QAEHXZ
_TEXT	SEGMENT
?getMapFractalFlags@CvMap@@QAEHXZ PROC			; CvMap::getMapFractalFlags, COMDAT
; _this$ = ecx

; 1167 : 	int wrapX = 0;

	xor	edx, edx

; 1168 : 	if(isWrapX())

	cmp	BYTE PTR [ecx+4056], dl
	je	SHORT $LN2@getMapFrac

; 1169 : 	{
; 1170 : 		wrapX = (int)CvFractal::FRAC_WRAP_X;

	mov	edx, 1
$LN2@getMapFrac:

; 1171 : 	}
; 1172 : 
; 1173 : 	int wrapY = 0;

	xor	eax, eax

; 1174 : 	if(isWrapY())

	cmp	BYTE PTR [ecx+4057], al
	je	SHORT $LN1@getMapFrac

; 1175 : 	{
; 1176 : 		wrapY = (int)CvFractal::FRAC_WRAP_Y;

	mov	eax, 2
$LN1@getMapFrac:

; 1177 : 	}
; 1178 : 
; 1179 : 	return (wrapX | wrapY);

	or	eax, edx

; 1180 : }

	ret	0
?getMapFractalFlags@CvMap@@QAEHXZ ENDP			; CvMap::getMapFractalFlags
_TEXT	ENDS
PUBLIC	?plotX@CvMap@@QBEHH@Z				; CvMap::plotX
; Function compile flags: /Ogtpy
;	COMDAT ?plotX@CvMap@@QBEHH@Z
_TEXT	SEGMENT
_iIndex$ = 8						; size = 4
?plotX@CvMap@@QBEHH@Z PROC				; CvMap::plotX, COMDAT
; _this$ = ecx

; 1235 : 	return (iIndex % getGridWidth());

	mov	eax, DWORD PTR _iIndex$[esp-4]
	cdq
	idiv	DWORD PTR [ecx+4020]
	mov	eax, edx

; 1236 : }

	ret	4
?plotX@CvMap@@QBEHH@Z ENDP				; CvMap::plotX
_TEXT	ENDS
PUBLIC	?plotY@CvMap@@QBEHH@Z				; CvMap::plotY
; Function compile flags: /Ogtpy
;	COMDAT ?plotY@CvMap@@QBEHH@Z
_TEXT	SEGMENT
_iIndex$ = 8						; size = 4
?plotY@CvMap@@QBEHH@Z PROC				; CvMap::plotY, COMDAT
; _this$ = ecx

; 1242 : 	return (iIndex / getGridWidth());

	mov	eax, DWORD PTR _iIndex$[esp-4]
	cdq
	idiv	DWORD PTR [ecx+4020]

; 1243 : }

	ret	4
?plotY@CvMap@@QBEHH@Z ENDP				; CvMap::plotY
_TEXT	ENDS
PUBLIC	?maxPlotDistance@CvMap@@QAEHXZ			; CvMap::maxPlotDistance
; Function compile flags: /Ogtpy
;	COMDAT ?maxPlotDistance@CvMap@@QAEHXZ
_TEXT	SEGMENT
$T239281 = -8						; size = 4
$T239286 = -4						; size = 4
?maxPlotDistance@CvMap@@QAEHXZ PROC			; CvMap::maxPlotDistance, COMDAT
; _this$ = ecx

; 1248 : {

	sub	esp, 8

; 1249 : #ifdef NQM_FAST_COMP
; 1250 : 	return MAX(1, plotDistance(0, 0, ((isWrapX()) ? (getGridWidth() / 2) : (getGridWidth() - 1)), ((isWrapY()) ? (getGridHeight() / 2) : (getGridHeight() - 1))));
; 1251 : #else
; 1252 : 	return std::max(1, plotDistance(0, 0, ((isWrapX()) ? (getGridWidth() / 2) : (getGridWidth() - 1)), ((isWrapY()) ? (getGridHeight() / 2) : (getGridHeight() - 1))));

	cmp	BYTE PTR [ecx+4057], 0
	push	esi
	je	SHORT $LN3@maxPlotDis
	mov	eax, DWORD PTR [ecx+4024]
	cdq
	sub	eax, edx
	mov	esi, eax
	sar	esi, 1
	jmp	SHORT $LN4@maxPlotDis
$LN3@maxPlotDis:
	mov	esi, DWORD PTR [ecx+4024]
	dec	esi
$LN4@maxPlotDis:
	cmp	BYTE PTR [ecx+4056], 0
	mov	eax, DWORD PTR [ecx+4020]
	je	SHORT $LN5@maxPlotDis
	cdq
	sub	eax, edx
	sar	eax, 1
	jmp	SHORT $LN6@maxPlotDis
$LN5@maxPlotDis:
	dec	eax
$LN6@maxPlotDis:
	push	esi
	push	eax
	push	0
	push	0
	call	?plotDistance@@YAHHHHH@Z		; plotDistance
	add	esp, 16					; 00000010H
	mov	DWORD PTR $T239281[esp+12], eax
	cmp	eax, 1
	mov	DWORD PTR $T239286[esp+12], 1
	pop	esi
	lea	eax, DWORD PTR $T239281[esp+8]
	jg	SHORT $LN23@maxPlotDis
	lea	eax, DWORD PTR $T239286[esp+8]
$LN23@maxPlotDis:
	mov	eax, DWORD PTR [eax]

; 1253 : #endif
; 1254 : }

	add	esp, 8
	ret	0
?maxPlotDistance@CvMap@@QAEHXZ ENDP			; CvMap::maxPlotDistance
_TEXT	ENDS
PUBLIC	?getRandomResourceQuantity@CvMap@@QAEHW4ResourceTypes@@@Z ; CvMap::getRandomResourceQuantity
EXTRN	?getJonRandNum@CvGame@@QAEHHPBD@Z:PROC		; CvGame::getJonRandNum
EXTRN	?getResourceQuantityType@CvResourceInfo@@QBEHH@Z:PROC ; CvResourceInfo::getResourceQuantityType
EXTRN	?getResourceInfo@CvGlobals@@QAEPAVCvResourceInfo@@W4ResourceTypes@@@Z:PROC ; CvGlobals::getResourceInfo
; Function compile flags: /Ogtpy
;	COMDAT ?getRandomResourceQuantity@CvMap@@QAEHW4ResourceTypes@@@Z
_TEXT	SEGMENT
_eIndex$ = 8						; size = 4
?getRandomResourceQuantity@CvMap@@QAEHW4ResourceTypes@@@Z PROC ; CvMap::getRandomResourceQuantity, COMDAT
; _this$ = ecx

; 1356 : 	CvResourceInfo* thisResourceInfo = GC.getResourceInfo(eIndex);

	mov	eax, DWORD PTR _eIndex$[esp-4]
	push	ebx
	push	eax
	mov	ecx, OFFSET ?gGlobals@@3VCvGlobals@@A	; gGlobals
	call	?getResourceInfo@CvGlobals@@QAEPAVCvResourceInfo@@W4ResourceTypes@@@Z ; CvGlobals::getResourceInfo
	mov	ebx, eax

; 1357 : 	if(thisResourceInfo == NULL)

	test	ebx, ebx
	jne	SHORT $LN5@getRandomR
	pop	ebx

; 1378 : }

	ret	4
$LN5@getRandomR:
	push	esi
	push	edi

; 1358 : 		return 0;
; 1359 : 
; 1360 : 	int iNumRands = 0;
; 1361 : 
; 1362 : 	// Find how many types of resources quantities there can be to pick from
; 1363 : 	for(int iLoop = 0; iLoop < GC.getNUM_RESOURCE_QUANTITY_TYPES(); iLoop++)

	xor	esi, esi
	xor	edi, edi
	cmp	DWORD PTR ?gGlobals@@3VCvGlobals@@A+7016, esi
	jle	SHORT $LN13@getRandomR
$LL4@getRandomR:

; 1364 : 	{
; 1365 : 		if(thisResourceInfo->getResourceQuantityType(iLoop) <= 0)

	push	esi
	mov	ecx, ebx
	call	?getResourceQuantityType@CvResourceInfo@@QBEHH@Z ; CvResourceInfo::getResourceQuantityType
	test	eax, eax
	jle	SHORT $LN13@getRandomR
	inc	esi

; 1366 : 		{
; 1367 : 			break;
; 1368 : 		}
; 1369 : 
; 1370 : 		iNumRands++;

	inc	edi
	cmp	esi, DWORD PTR ?gGlobals@@3VCvGlobals@@A+7016
	jl	SHORT $LL4@getRandomR
$LN13@getRandomR:

; 1371 : 	}
; 1372 : 
; 1373 : 	CvAssertMsg(iNumRands > 0, "Resource should have at least 1 Quantity type to choose from")
; 1374 : 
; 1375 : 	int iRand = GC.getGame().getJonRandNum(iNumRands, "Picking from random Resource Quantity types");

	mov	ecx, DWORD PTR ?gGlobals@@3VCvGlobals@@A+48
	push	OFFSET $SG236271
	push	edi
	call	?getJonRandNum@CvGame@@QAEHHPBD@Z	; CvGame::getJonRandNum

; 1376 : 
; 1377 : 	return thisResourceInfo->getResourceQuantityType(iRand);

	push	eax
	mov	ecx, ebx
	call	?getResourceQuantityType@CvResourceInfo@@QBEHH@Z ; CvResourceInfo::getResourceQuantityType
	pop	edi
	pop	esi
	pop	ebx

; 1378 : }

	ret	4
?getRandomResourceQuantity@CvMap@@QAEHW4ResourceTypes@@@Z ENDP ; CvMap::getRandomResourceQuantity
_TEXT	ENDS
PUBLIC	?getIndexAfterLastArea@CvMap@@QAEHXZ		; CvMap::getIndexAfterLastArea
; Function compile flags: /Ogtpy
;	COMDAT ?getIndexAfterLastArea@CvMap@@QAEHXZ
_TEXT	SEGMENT
?getIndexAfterLastArea@CvMap@@QAEHXZ PROC		; CvMap::getIndexAfterLastArea, COMDAT
; _this$ = ecx

; 1420 : 	return m_areas.GetIndexAfterLast();

	mov	eax, DWORD PTR [ecx+4124]
	inc	eax

; 1421 : }

	ret	0
?getIndexAfterLastArea@CvMap@@QAEHXZ ENDP		; CvMap::getIndexAfterLastArea
_TEXT	ENDS
PUBLIC	?getNumAreas@CvMap@@QAEHXZ			; CvMap::getNumAreas
; Function compile flags: /Ogtpy
;	COMDAT ?getNumAreas@CvMap@@QAEHXZ
_TEXT	SEGMENT
?getNumAreas@CvMap@@QAEHXZ PROC				; CvMap::getNumAreas, COMDAT
; _this$ = ecx

; 1427 : 	return m_areas.GetCount();

	mov	eax, DWORD PTR [ecx+4124]
	sub	eax, DWORD PTR [ecx+4120]
	inc	eax

; 1428 : }

	ret	0
?getNumAreas@CvMap@@QAEHXZ ENDP				; CvMap::getNumAreas
_TEXT	ENDS
PUBLIC	?addArea@CvMap@@QAEPAVCvArea@@XZ		; CvMap::addArea
; Function compile flags: /Ogtpy
;	COMDAT ?addArea@CvMap@@QAEPAVCvArea@@XZ
_TEXT	SEGMENT
?addArea@CvMap@@QAEPAVCvArea@@XZ PROC			; CvMap::addArea, COMDAT
; _this$ = ecx

; 1462 : 	return m_areas.Add();

	add	ecx, 4112				; 00001010H
	jmp	?Add@?$FFreeListTrashArray@VCvArea@@@@QAEPAVCvArea@@XZ ; FFreeListTrashArray<CvArea>::Add
?addArea@CvMap@@QAEPAVCvArea@@XZ ENDP			; CvMap::addArea
_TEXT	ENDS
PUBLIC	?nextArea@CvMap@@QAEPAVCvArea@@PAH_N@Z		; CvMap::nextArea
; Function compile flags: /Ogtpy
;	COMDAT ?nextArea@CvMap@@QAEPAVCvArea@@PAH_N@Z
_TEXT	SEGMENT
_pIterIdx$ = 8						; size = 4
_bRev$ = 12						; size = 1
?nextArea@CvMap@@QAEPAVCvArea@@PAH_N@Z PROC		; CvMap::nextArea, COMDAT
; _this$ = ecx

; 1483 : 	return !bRev ? m_areas.NextIter(pIterIdx) : m_areas.PrevIter(pIterIdx);

	add	ecx, 4112				; 00001010H
	cmp	BYTE PTR _bRev$[esp-4], 0
	jne	SHORT $LN3@nextArea
	mov	eax, DWORD PTR _pIterIdx$[esp-4]
	push	eax
	call	?NextIter@?$FFreeListArrayBase@VCvArea@@@@QAEPAVCvArea@@PAH@Z ; FFreeListArrayBase<CvArea>::NextIter

; 1484 : }

	ret	8
$LN3@nextArea:

; 1483 : 	return !bRev ? m_areas.NextIter(pIterIdx) : m_areas.PrevIter(pIterIdx);

	mov	edx, DWORD PTR _pIterIdx$[esp-4]
	push	edx
	call	?PrevIter@?$FFreeListArrayBase@VCvArea@@@@QAEPAVCvArea@@PAH@Z ; FFreeListArrayBase<CvArea>::PrevIter

; 1484 : }

	ret	8
?nextArea@CvMap@@QAEPAVCvArea@@PAH_N@Z ENDP		; CvMap::nextArea
_TEXT	ENDS
PUBLIC	?calculateInfluenceDistance@CvMap@@QAEHPAVCvPlot@@0H_N@Z ; CvMap::calculateInfluenceDistance
EXTRN	?GeneratePath@CvAStar@@QAE_NHHHHH_N@Z:PROC	; CvAStar::GeneratePath
; Function compile flags: /Ogtpy
;	COMDAT ?calculateInfluenceDistance@CvMap@@QAEHPAVCvPlot@@0H_N@Z
_TEXT	SEGMENT
_pSource$ = 8						; size = 4
_pDest$ = 12						; size = 4
_iMaxRange$ = 16					; size = 4
_bCorrectButSlower$ = 20				; size = 1
?calculateInfluenceDistance@CvMap@@QAEHPAVCvPlot@@0H_N@Z PROC ; CvMap::calculateInfluenceDistance, COMDAT
; _this$ = ecx

; 1508 : {

	push	esi
	push	edi

; 1509 : 	CvAStarNode* pNode;
; 1510 : 
; 1511 : 	if(pSource == NULL || pDest == NULL)

	mov	edi, DWORD PTR _pSource$[esp+4]
	test	edi, edi
	je	SHORT $LN3@calculateI
	mov	esi, DWORD PTR _pDest$[esp+4]
	test	esi, esi
	je	SHORT $LN3@calculateI

; 1514 : 	}
; 1515 : 
; 1516 : #ifdef AUI_MAP_FIX_CALCULATE_INFLUENCE_DISTANCE_REUSE_PATHFINDER
; 1517 : 	bCorrectButSlower = false;
; 1518 : 	if (m_pLastInfluenceSourcePlot != pSource)
; 1519 : 	{
; 1520 : 		m_pLastInfluenceSourcePlot = pSource;
; 1521 : 		bCorrectButSlower = true;
; 1522 : 	}
; 1523 : #endif
; 1524 : 
; 1525 : 	GC.getInfluenceFinder().SetData(&iMaxRange);

	mov	ecx, OFFSET ?gGlobals@@3VCvGlobals@@A	; gGlobals
	call	?getInfluenceFinder@CvGlobals@@QAEAAVCvAStar@@XZ ; CvGlobals::getInfluenceFinder
	cmp	BYTE PTR [eax+80], 0
	je	SHORT $LN7@calculateI
	lea	ecx, DWORD PTR _iMaxRange$[esp+4]
	cmp	DWORD PTR [eax+44], ecx
	je	SHORT $LN7@calculateI
	mov	BYTE PTR [eax+78], 1
$LN7@calculateI:

; 1526 : 	if(GC.getInfluenceFinder().GeneratePath(pSource->getX(), pSource->getY(), pDest->getX(), pDest->getY(), 0, !bCorrectButSlower))

	cmp	BYTE PTR _bCorrectButSlower$[esp+4], 0
	lea	edx, DWORD PTR _iMaxRange$[esp+4]
	mov	DWORD PTR [eax+44], edx
	movsx	eax, WORD PTR [esi+2]
	movsx	ecx, WORD PTR [esi]
	movsx	esi, WORD PTR [edi+2]
	movsx	edi, WORD PTR [edi]
	sete	dl
	movzx	edx, dl
	push	edx
	push	0
	push	eax
	push	ecx
	push	esi
	push	edi
	mov	ecx, OFFSET ?gGlobals@@3VCvGlobals@@A	; gGlobals
	call	?getInfluenceFinder@CvGlobals@@QAEAAVCvAStar@@XZ ; CvGlobals::getInfluenceFinder
	mov	ecx, eax
	call	?GeneratePath@CvAStar@@QAE_NHHHHH_N@Z	; CvAStar::GeneratePath
	test	al, al
	je	SHORT $LN3@calculateI

; 1527 : 	{
; 1528 : 		pNode = GC.getInfluenceFinder().GetLastNode();

	mov	ecx, OFFSET ?gGlobals@@3VCvGlobals@@A	; gGlobals
	call	?getInfluenceFinder@CvGlobals@@QAEAAVCvAStar@@XZ ; CvGlobals::getInfluenceFinder
	mov	eax, DWORD PTR [eax+96]

; 1529 : 
; 1530 : 		if(pNode != NULL)

	test	eax, eax
	je	SHORT $LN3@calculateI

; 1531 : 		{
; 1532 : 			return pNode->m_iKnownCost;

	mov	eax, DWORD PTR [eax+4]
	pop	edi
	pop	esi

; 1533 : 		}
; 1534 : 	}
; 1535 : 
; 1536 : 	return -1; // no passable path exists
; 1537 : }

	ret	16					; 00000010H
$LN3@calculateI:
	pop	edi

; 1512 : 	{
; 1513 : 		return -1;

	or	eax, -1
	pop	esi

; 1533 : 		}
; 1534 : 	}
; 1535 : 
; 1536 : 	return -1; // no passable path exists
; 1537 : }

	ret	16					; 00000010H
?calculateInfluenceDistance@CvMap@@QAEHPAVCvPlot@@0H_N@Z ENDP ; CvMap::calculateInfluenceDistance
_TEXT	ENDS
PUBLIC	?calculateAreas@CvMap@@QAEXXZ			; CvMap::calculateAreas
EXTRN	?setAreaBoundaries@CvArea@@QAEXUCvAreaBoundaries@@@Z:PROC ; CvArea::setAreaBoundaries
EXTRN	?getAreaBoundaries@CvArea@@QBE?AUCvAreaBoundaries@@XZ:PROC ; CvArea::getAreaBoundaries
EXTRN	?setArea@CvPlot@@QAEXH@Z:PROC			; CvPlot::setArea
EXTRN	?SetMountains@CvArea@@QAEX_N@Z:PROC		; CvArea::SetMountains
EXTRN	?init@CvArea@@QAEXH_N@Z:PROC			; CvArea::init
; Function compile flags: /Ogtpy
;	COMDAT ?calculateAreas@CvMap@@QAEXXZ
_TEXT	SEGMENT
tv334 = -24						; size = 4
_iI$ = -20						; size = 4
_boundaries$236552 = -16				; size = 16
?calculateAreas@CvMap@@QAEXXZ PROC			; CvMap::calculateAreas, COMDAT
; _this$ = ecx

; 1680 : {

	sub	esp, 24					; 00000018H
	push	ebx
	push	ebp

; 1681 : 	CvPlot* pLoopPlot;
; 1682 : 	CvArea* pArea;
; 1683 : 	int iArea;
; 1684 : #ifdef AUI_WARNING_FIXES
; 1685 : 	for (uint iI = 0; iI < numPlots(); iI++)
; 1686 : #else
; 1687 : 	int iI;
; 1688 : 
; 1689 : 	for(iI = 0; iI < numPlots(); iI++)

	xor	eax, eax
	mov	ebx, ecx
	cmp	DWORD PTR [ebx+4028], eax
	push	esi
	push	edi
	mov	DWORD PTR _iI$[esp+40], eax
	jle	$LN11@calculateA
	mov	DWORD PTR tv334[esp+40], eax
	npad	1
$LL13@calculateA:

; 1690 : #endif
; 1691 : 	{
; 1692 : 		pLoopPlot = plotByIndexUnchecked(iI);

	mov	esi, DWORD PTR [ebx+4068]
	add	esi, DWORD PTR tv334[esp+40]

; 1693 : 		CvAssertMsg(pLoopPlot != NULL, "LoopPlot is not assigned a valid value");
; 1694 : 
; 1695 : 		if(!pLoopPlot) continue;

	je	$LN12@calculateA

; 1696 : 
; 1697 : 		if(pLoopPlot->getArea() == FFreeList::INVALID_INDEX)

	mov	eax, DWORD PTR [esi+356]
	cmp	eax, -1
	jne	$LN9@calculateA

; 1698 : 		{
; 1699 : 			pArea = addArea();

	lea	ecx, DWORD PTR [ebx+4112]
	call	?Add@?$FFreeListTrashArray@VCvArea@@@@QAEPAVCvArea@@XZ ; FFreeListTrashArray<CvArea>::Add

; 1700 : 			pArea->init(pArea->GetID(), pLoopPlot->isWater());

	cmp	BYTE PTR [esi+5], 3
	mov	edi, eax
	mov	edx, DWORD PTR [edi+4]
	sete	al
	movzx	ecx, al
	push	ecx
	push	edx
	mov	ecx, edi
	call	?init@CvArea@@QAEXH_N@Z			; CvArea::init

; 1701 : 
; 1702 : 			pArea->SetMountains(pLoopPlot->isMountain());

	cmp	BYTE PTR [esi+5], 0
	sete	al
	movzx	ecx, al
	push	ecx
	mov	ecx, edi
	call	?SetMountains@CvArea@@QAEX_N@Z		; CvArea::SetMountains

; 1703 : 
; 1704 : 			iArea = pArea->GetID();

	mov	ebp, DWORD PTR [edi+4]

; 1705 : 
; 1706 : 			pLoopPlot->setArea(iArea);

	push	ebp
	mov	ecx, esi
	call	?setArea@CvPlot@@QAEXH@Z		; CvPlot::setArea

; 1707 : 
; 1708 : 			GC.getAreaFinder().GeneratePath(pLoopPlot->getX(), pLoopPlot->getY(), -1, -1, iArea);

	movsx	eax, WORD PTR [esi+2]
	movsx	ecx, WORD PTR [esi]
	push	0
	push	ebp
	push	-1
	push	-1
	push	eax
	push	ecx
	mov	ecx, OFFSET ?gGlobals@@3VCvGlobals@@A	; gGlobals
	call	?getAreaFinder@CvGlobals@@QAEAAVCvAStar@@XZ ; CvGlobals::getAreaFinder
	mov	ecx, eax
	call	?GeneratePath@CvAStar@@QAE_NHHHHH_N@Z	; CvAStar::GeneratePath

; 1709 : 
; 1710 : 			CvAreaBoundaries boundaries;
; 1711 : 			boundaries.m_iEastEdge = pLoopPlot->getX();
; 1712 : 			boundaries.m_iWestEdge = pLoopPlot->getX();
; 1713 : 			boundaries.m_iNorthEdge = pLoopPlot->getY();

	movsx	edx, WORD PTR [esi+2]
	movsx	ecx, WORD PTR [esi]

; 1714 : 			boundaries.m_iSouthEdge = pLoopPlot->getY();
; 1715 : 			pArea->setAreaBoundaries(boundaries);

	sub	esp, 16					; 00000010H
	mov	eax, esp
	mov	DWORD PTR [eax], edx
	mov	DWORD PTR [eax+4], edx
	mov	DWORD PTR [eax+8], ecx
	mov	DWORD PTR [eax+12], ecx
	mov	ecx, edi

; 1716 : 		}
; 1717 : 
; 1718 : 		// Update area boundaries if they've grown
; 1719 : 		else

	jmp	$LN60@calculateA
$LN9@calculateA:

; 1720 : 		{
; 1721 : 			int iX, iY;
; 1722 : 			CvAreaBoundaries boundaries = getArea(pLoopPlot->getArea())->getAreaBoundaries();

	lea	edx, DWORD PTR _boundaries$236552[esp+40]
	lea	edi, DWORD PTR [ebx+4112]
	push	edx
	mov	edx, DWORD PTR [edi]
	push	eax
	mov	eax, DWORD PTR [edx+16]
	mov	ecx, edi
	call	eax
	mov	ecx, eax
	call	?getAreaBoundaries@CvArea@@QBE?AUCvAreaBoundaries@@XZ ; CvArea::getAreaBoundaries

; 1723 : 			iX = pLoopPlot->getX();

	movsx	eax, WORD PTR [esi]

; 1724 : 			iY = pLoopPlot->getY();
; 1725 : 
; 1726 : 			if(iX < boundaries.m_iWestEdge)

	cmp	eax, DWORD PTR _boundaries$236552[esp+52]
	movsx	ecx, WORD PTR [esi+2]
	jge	SHORT $LN7@calculateA

; 1727 : 			{
; 1728 : 				boundaries.m_iWestEdge = iX;

	mov	DWORD PTR _boundaries$236552[esp+52], eax
	jmp	SHORT $LN1@calculateA
$LN7@calculateA:

; 1729 : 			}
; 1730 : 			else if(iX > boundaries.m_iEastEdge)

	cmp	eax, DWORD PTR _boundaries$236552[esp+48]
	jle	SHORT $LN5@calculateA

; 1731 : 			{
; 1732 : 				boundaries.m_iEastEdge = iX;

	mov	DWORD PTR _boundaries$236552[esp+48], eax
	jmp	SHORT $LN1@calculateA
$LN5@calculateA:

; 1733 : 			}
; 1734 : 			else if(iY < boundaries.m_iSouthEdge)

	cmp	ecx, DWORD PTR _boundaries$236552[esp+44]
	jge	SHORT $LN3@calculateA

; 1735 : 			{
; 1736 : 				boundaries.m_iSouthEdge = iY;

	mov	DWORD PTR _boundaries$236552[esp+44], ecx
	jmp	SHORT $LN1@calculateA
$LN3@calculateA:

; 1737 : 			}
; 1738 : 			else if(iY > boundaries.m_iNorthEdge)

	cmp	ecx, DWORD PTR _boundaries$236552[esp+40]
	jle	SHORT $LN1@calculateA

; 1739 : 			{
; 1740 : 				boundaries.m_iNorthEdge = iY;

	mov	DWORD PTR _boundaries$236552[esp+40], ecx
$LN1@calculateA:

; 1741 : 			}
; 1742 : 			getArea(pLoopPlot->getArea())->setAreaBoundaries(boundaries);

	mov	esi, DWORD PTR [esi+356]
	mov	edx, DWORD PTR [edi]
	mov	eax, DWORD PTR [edx+16]
	push	esi
	mov	ecx, edi
	call	eax
	mov	ecx, DWORD PTR _boundaries$236552[esp+40]
	sub	esp, 16					; 00000010H
	mov	edx, esp
	mov	DWORD PTR [edx], ecx
	mov	ecx, DWORD PTR _boundaries$236552[esp+60]
	mov	DWORD PTR [edx+4], ecx
	mov	ecx, DWORD PTR _boundaries$236552[esp+64]
	mov	DWORD PTR [edx+8], ecx
	mov	ecx, DWORD PTR _boundaries$236552[esp+68]
	mov	DWORD PTR [edx+12], ecx
	mov	ecx, eax
$LN60@calculateA:
	call	?setAreaBoundaries@CvArea@@QAEXUCvAreaBoundaries@@@Z ; CvArea::setAreaBoundaries
$LN12@calculateA:

; 1681 : 	CvPlot* pLoopPlot;
; 1682 : 	CvArea* pArea;
; 1683 : 	int iArea;
; 1684 : #ifdef AUI_WARNING_FIXES
; 1685 : 	for (uint iI = 0; iI < numPlots(); iI++)
; 1686 : #else
; 1687 : 	int iI;
; 1688 : 
; 1689 : 	for(iI = 0; iI < numPlots(); iI++)

	mov	eax, DWORD PTR _iI$[esp+40]
	add	DWORD PTR tv334[esp+40], 484		; 000001e4H
	inc	eax
	cmp	eax, DWORD PTR [ebx+4028]
	mov	DWORD PTR _iI$[esp+40], eax
	jl	$LL13@calculateA
$LN11@calculateA:

; 1743 : 		}
; 1744 : 	}
; 1745 : }

	pop	edi
	pop	esi
	pop	ebp
	pop	ebx
	add	esp, 24					; 00000018H
	ret	0
?calculateAreas@CvMap@@QAEXXZ ENDP			; CvMap::calculateAreas
_TEXT	ENDS
PUBLIC	?getIndexAfterLastLandmass@CvMap@@QAEHXZ	; CvMap::getIndexAfterLastLandmass
; Function compile flags: /Ogtpy
;	COMDAT ?getIndexAfterLastLandmass@CvMap@@QAEHXZ
_TEXT	SEGMENT
?getIndexAfterLastLandmass@CvMap@@QAEHXZ PROC		; CvMap::getIndexAfterLastLandmass, COMDAT
; _this$ = ecx

; 2289 : 	return m_landmasses.GetIndexAfterLast();

	mov	eax, DWORD PTR [ecx+4152]
	inc	eax

; 2290 : }

	ret	0
?getIndexAfterLastLandmass@CvMap@@QAEHXZ ENDP		; CvMap::getIndexAfterLastLandmass
_TEXT	ENDS
PUBLIC	?getNumLandmasses@CvMap@@QAEHXZ			; CvMap::getNumLandmasses
; Function compile flags: /Ogtpy
;	COMDAT ?getNumLandmasses@CvMap@@QAEHXZ
_TEXT	SEGMENT
?getNumLandmasses@CvMap@@QAEHXZ PROC			; CvMap::getNumLandmasses, COMDAT
; _this$ = ecx

; 2296 : 	return m_landmasses.GetCount();

	mov	eax, DWORD PTR [ecx+4152]
	sub	eax, DWORD PTR [ecx+4148]
	inc	eax

; 2297 : }

	ret	0
?getNumLandmasses@CvMap@@QAEHXZ ENDP			; CvMap::getNumLandmasses
_TEXT	ENDS
PUBLIC	?addLandmass@CvMap@@QAEPAVCvLandmass@@XZ	; CvMap::addLandmass
; Function compile flags: /Ogtpy
;	COMDAT ?addLandmass@CvMap@@QAEPAVCvLandmass@@XZ
_TEXT	SEGMENT
?addLandmass@CvMap@@QAEPAVCvLandmass@@XZ PROC		; CvMap::addLandmass, COMDAT
; _this$ = ecx

; 2331 : 	return m_landmasses.Add();

	add	ecx, 4140				; 0000102cH
	jmp	?Add@?$FFreeListTrashArray@VCvLandmass@@@@QAEPAVCvLandmass@@XZ ; FFreeListTrashArray<CvLandmass>::Add
?addLandmass@CvMap@@QAEPAVCvLandmass@@XZ ENDP		; CvMap::addLandmass
_TEXT	ENDS
PUBLIC	?deleteLandmass@CvMap@@QAEXH@Z			; CvMap::deleteLandmass
; Function compile flags: /Ogtpy
;	COMDAT ?deleteLandmass@CvMap@@QAEXH@Z
_TEXT	SEGMENT
_iID$ = 8						; size = 4
?deleteLandmass@CvMap@@QAEXH@Z PROC			; CvMap::deleteLandmass, COMDAT
; _this$ = ecx

; 2338 : 	m_landmasses.RemoveAt(iID);

	add	ecx, 4140				; 0000102cH
	jmp	?RemoveAt@?$FFreeListTrashArray@VCvLandmass@@@@QAE_NH@Z ; FFreeListTrashArray<CvLandmass>::RemoveAt
?deleteLandmass@CvMap@@QAEXH@Z ENDP			; CvMap::deleteLandmass
_TEXT	ENDS
PUBLIC	?nextLandmass@CvMap@@QAEPAVCvLandmass@@PAH_N@Z	; CvMap::nextLandmass
; Function compile flags: /Ogtpy
;	COMDAT ?nextLandmass@CvMap@@QAEPAVCvLandmass@@PAH_N@Z
_TEXT	SEGMENT
_pIterIdx$ = 8						; size = 4
_bRev$ = 12						; size = 1
?nextLandmass@CvMap@@QAEPAVCvLandmass@@PAH_N@Z PROC	; CvMap::nextLandmass, COMDAT
; _this$ = ecx

; 2352 : 	return !bRev ? m_landmasses.NextIter(pIterIdx) : m_landmasses.PrevIter(pIterIdx);

	add	ecx, 4140				; 0000102cH
	cmp	BYTE PTR _bRev$[esp-4], 0
	jne	SHORT $LN3@nextLandma
	mov	eax, DWORD PTR _pIterIdx$[esp-4]
	push	eax
	call	?NextIter@?$FFreeListArrayBase@VCvLandmass@@@@QAEPAVCvLandmass@@PAH@Z ; FFreeListArrayBase<CvLandmass>::NextIter

; 2353 : }

	ret	8
$LN3@nextLandma:

; 2352 : 	return !bRev ? m_landmasses.NextIter(pIterIdx) : m_landmasses.PrevIter(pIterIdx);

	mov	edx, DWORD PTR _pIterIdx$[esp-4]
	push	edx
	call	?PrevIter@?$FFreeListArrayBase@VCvLandmass@@@@QAEPAVCvLandmass@@PAH@Z ; FFreeListArrayBase<CvLandmass>::PrevIter

; 2353 : }

	ret	8
?nextLandmass@CvMap@@QAEPAVCvLandmass@@PAH_N@Z ENDP	; CvMap::nextLandmass
_TEXT	ENDS
PUBLIC	?calculateLandmasses@CvMap@@QAEXXZ		; CvMap::calculateLandmasses
EXTRN	?setLandmass@CvPlot@@QAEXH@Z:PROC		; CvPlot::setLandmass
EXTRN	?JoinLandmass@@YAHPAVCvAStarNode@@0HPBXPAVCvAStar@@@Z:PROC ; JoinLandmass
EXTRN	?LandmassValid@@YAHPAVCvAStarNode@@0HPBXPAVCvAStar@@@Z:PROC ; LandmassValid
; Function compile flags: /Ogtpy
;	COMDAT ?calculateLandmasses@CvMap@@QAEXXZ
_TEXT	SEGMENT
tv271 = -8						; size = 4
_iI$236837 = -4						; size = 4
?calculateLandmasses@CvMap@@QAEXXZ PROC			; CvMap::calculateLandmasses, COMDAT
; _this$ = ecx

; 2375 : {

	sub	esp, 8
	push	ebx
	push	ebp
	push	esi
	push	edi
	mov	edi, ecx

; 2376 : 	CvPlot* pLoopPlot;
; 2377 : 	CvLandmass* pLandmass;
; 2378 : 	int iLandmassID;
; 2379 : 
; 2380 : 	CvAStar& thePathfinder = GC.getAreaFinder();

	mov	ecx, OFFSET ?gGlobals@@3VCvGlobals@@A	; gGlobals
	call	?getAreaFinder@CvGlobals@@QAEAAVCvAStar@@XZ ; CvGlobals::getAreaFinder
	mov	ebx, eax

; 2381 : 
; 2382 : 	// change the area pathfinder to use these funcs instead
; 2383 : 	thePathfinder.SetValidFunc(LandmassValid);
; 2384 : 	thePathfinder.SetNotifyListFunc(JoinLandmass);
; 2385 : 
; 2386 : #ifdef AUI_WARNING_FIXES
; 2387 : 	for (uint iI = 0; iI < numPlots(); iI++)
; 2388 : #else
; 2389 : 	for(int iI = 0; iI < numPlots(); iI++)

	xor	ebp, ebp
	mov	DWORD PTR [ebx+16], OFFSET ?LandmassValid@@YAHPAVCvAStarNode@@0HPBXPAVCvAStar@@@Z ; LandmassValid
	mov	DWORD PTR [ebx+24], OFFSET ?JoinLandmass@@YAHPAVCvAStarNode@@0HPBXPAVCvAStar@@@Z ; JoinLandmass
	cmp	DWORD PTR [edi+4028], ebp
	mov	DWORD PTR _iI$236837[esp+24], ebp
	jle	SHORT $LN2@calculateL

; 2376 : 	CvPlot* pLoopPlot;
; 2377 : 	CvLandmass* pLandmass;
; 2378 : 	int iLandmassID;
; 2379 : 
; 2380 : 	CvAStar& thePathfinder = GC.getAreaFinder();

	mov	DWORD PTR tv271[esp+24], ebp
$LL4@calculateL:

; 2390 : #endif
; 2391 : 	{
; 2392 : 		pLoopPlot = plotByIndexUnchecked(iI);

	mov	esi, DWORD PTR [edi+4068]
	add	esi, DWORD PTR tv271[esp+24]

; 2393 : 		if(pLoopPlot->getLandmass() == FFreeList::INVALID_INDEX)

	cmp	DWORD PTR [esi+360], -1
	jne	SHORT $LN3@calculateL

; 2394 : 		{
; 2395 : 			pLandmass = addLandmass();

	lea	ecx, DWORD PTR [edi+4140]
	call	?Add@?$FFreeListTrashArray@VCvLandmass@@@@QAEPAVCvLandmass@@XZ ; FFreeListTrashArray<CvLandmass>::Add

; 2396 : 			pLandmass->init(pLandmass->GetID(), pLoopPlot->isWater());

	cmp	BYTE PTR [esi+5], 3
	mov	DWORD PTR [eax+8], ebp
	sete	cl
	mov	DWORD PTR [eax+16], ebp
	mov	DWORD PTR [eax+20], ebp

; 2397 : 
; 2398 : 			iLandmassID = pLandmass->GetID();

	mov	ebp, DWORD PTR [eax+4]
	mov	BYTE PTR [eax+13], cl

; 2399 : 
; 2400 : 			pLoopPlot->setLandmass(iLandmassID);

	push	ebp
	mov	ecx, esi
	mov	BYTE PTR [eax+12], 0
	call	?setLandmass@CvPlot@@QAEXH@Z		; CvPlot::setLandmass

; 2401 : 
; 2402 : 			thePathfinder.GeneratePath(pLoopPlot->getX(), pLoopPlot->getY(), -1, -1, iLandmassID);

	movsx	eax, WORD PTR [esi+2]
	movsx	ecx, WORD PTR [esi]
	push	0
	push	ebp
	push	-1
	push	-1
	push	eax
	push	ecx
	mov	ecx, ebx
	call	?GeneratePath@CvAStar@@QAE_NHHHHH_N@Z	; CvAStar::GeneratePath
	xor	ebp, ebp
$LN3@calculateL:
	mov	eax, DWORD PTR _iI$236837[esp+24]
	add	DWORD PTR tv271[esp+24], 484		; 000001e4H
	inc	eax
	cmp	eax, DWORD PTR [edi+4028]
	mov	DWORD PTR _iI$236837[esp+24], eax
	jl	SHORT $LL4@calculateL
$LN2@calculateL:

; 2403 : 		}
; 2404 : 	}
; 2405 : 	thePathfinder.SetValidFunc(AreaValid);

	mov	DWORD PTR [ebx+16], OFFSET ?AreaValid@@YAHPAVCvAStarNode@@0HPBXPAVCvAStar@@@Z ; AreaValid

; 2406 : 	thePathfinder.SetNotifyListFunc(JoinArea);

	mov	DWORD PTR [ebx+24], OFFSET ?JoinArea@@YAHPAVCvAStarNode@@0HPBXPAVCvAStar@@@Z ; JoinArea

; 2407 : 
; 2408 : 	// KWG: Rebuild the yields here.  Yes, this is called during the landmass rebuild process if the landmass' 'lake' field changes, but
; 2409 : 	//      there is a problem with that. The yield bonus for a lake is dependent on the proximity to a plot that is a lake, and not the general landmass
; 2410 : 	//		'lake' flag.  During recalculation, a neighboring plot's 'lake' flag may not be set yet because it is in a landmass that has yet to be calculated
; 2411 : 	//		resulting in the wrong yield being applied to a plot.
; 2412 : 	updateYield();

	xor	esi, esi
	cmp	DWORD PTR [edi+4028], ebp
	jle	SHORT $LN35@calculateL
	npad	1
$LL37@calculateL:
	mov	ecx, DWORD PTR [edi+4068]
	add	ecx, ebp
	call	?updateYield@CvPlot@@QAEXXZ		; CvPlot::updateYield
	inc	esi
	add	ebp, 484				; 000001e4H
	cmp	esi, DWORD PTR [edi+4028]
	jl	SHORT $LL37@calculateL
$LN35@calculateL:
	pop	edi
	pop	esi
	pop	ebp
	pop	ebx

; 2413 : }

	add	esp, 8
	ret	0
?calculateLandmasses@CvMap@@QAEXXZ ENDP			; CvMap::calculateLandmasses
_TEXT	ENDS
PUBLIC	?clear@?$BaseVector@PAVCvPlot@@$00@@QAEXXZ	; BaseVector<CvPlot *,1>::clear
; Function compile flags: /Ogtpy
; File c:\users\enormousapplepie\documents\github\lekmod\lekmod_dll\fireplace\include\fireworks\ffastvector.h
;	COMDAT ?clear@?$BaseVector@PAVCvPlot@@$00@@QAEXXZ
_TEXT	SEGMENT
?clear@?$BaseVector@PAVCvPlot@@$00@@QAEXXZ PROC		; BaseVector<CvPlot *,1>::clear, COMDAT
; _this$ = ecx

; 121  : 		Destroy(m_pData, m_uiCurrSize);
; 122  : 		m_uiCurrSize = 0;

	mov	DWORD PTR [ecx+4], 0

; 123  : 	};

	ret	0
?clear@?$BaseVector@PAVCvPlot@@$00@@QAEXXZ ENDP		; BaseVector<CvPlot *,1>::clear
_TEXT	ENDS
PUBLIC	??0?$FStaticVector@PAVCvPlot@@$0DOI@$00$0BCJ@$00@@QAE@XZ ; FStaticVector<CvPlot *,1000,1,297,1>::FStaticVector<CvPlot *,1000,1,297,1>
; Function compile flags: /Ogtpy
;	COMDAT ??0?$FStaticVector@PAVCvPlot@@$0DOI@$00$0BCJ@$00@@QAE@XZ
_TEXT	SEGMENT
??0?$FStaticVector@PAVCvPlot@@$0DOI@$00$0BCJ@$00@@QAE@XZ PROC ; FStaticVector<CvPlot *,1000,1,297,1>::FStaticVector<CvPlot *,1000,1,297,1>, COMDAT
; _this$ = ecx

; 601  : 	FStaticVector()

	mov	eax, ecx

; 602  :     {
; 603  : 		m_uiCurrMaxSize = L;
; 604  : 		m_pData = Alloc(m_uiCurrMaxSize);

	lea	ecx, DWORD PTR [eax+12]
	mov	DWORD PTR [eax+4], 0
	mov	DWORD PTR [eax+8], 1000			; 000003e8H
	mov	DWORD PTR [eax], ecx

; 605  : #ifdef BREAK_ON_STATIC_RESIZE
; 606  : 		m_iNumResized = 0;
; 607  : #endif
; 608  :     };

	ret	0
??0?$FStaticVector@PAVCvPlot@@$0DOI@$00$0BCJ@$00@@QAE@XZ ENDP ; FStaticVector<CvPlot *,1000,1,297,1>::FStaticVector<CvPlot *,1000,1,297,1>
_TEXT	ENDS
PUBLIC	??1?$FStaticVector@PAVCvPlot@@$0DOI@$00$0BCJ@$00@@QAE@XZ ; FStaticVector<CvPlot *,1000,1,297,1>::~FStaticVector<CvPlot *,1000,1,297,1>
; Function compile flags: /Ogtpy
;	COMDAT ??1?$FStaticVector@PAVCvPlot@@$0DOI@$00$0BCJ@$00@@QAE@XZ
_TEXT	SEGMENT
??1?$FStaticVector@PAVCvPlot@@$0DOI@$00$0BCJ@$00@@QAE@XZ PROC ; FStaticVector<CvPlot *,1000,1,297,1>::~FStaticVector<CvPlot *,1000,1,297,1>, COMDAT
; _this$ = ecx

; 618  : 		Free(m_pData, m_uiCurrSize);

	mov	eax, DWORD PTR [ecx]
	add	ecx, 12					; 0000000cH
	cmp	eax, ecx
	je	SHORT $LN3@FStaticVec@3
	push	eax
	call	?FireFreeAlignedNoTracking@@YAXPAX@Z	; FireFreeAlignedNoTracking
	pop	ecx
$LN3@FStaticVec@3:

; 619  : 	};

	ret	0
??1?$FStaticVector@PAVCvPlot@@$0DOI@$00$0BCJ@$00@@QAE@XZ ENDP ; FStaticVector<CvPlot *,1000,1,297,1>::~FStaticVector<CvPlot *,1000,1,297,1>
_TEXT	ENDS
PUBLIC	??_7?$FFreeListTrashArray@VCvArea@@@@6B@	; FFreeListTrashArray<CvArea>::`vftable'
PUBLIC	??0?$FFreeListTrashArray@VCvArea@@@@QAE@XZ	; FFreeListTrashArray<CvArea>::FFreeListTrashArray<CvArea>
PUBLIC	??_R4?$FFreeListTrashArray@VCvArea@@@@6B@	; FFreeListTrashArray<CvArea>::`RTTI Complete Object Locator'
PUBLIC	??_R0?AV?$FFreeListTrashArray@VCvArea@@@@@8	; FFreeListTrashArray<CvArea> `RTTI Type Descriptor'
PUBLIC	??_R3?$FFreeListTrashArray@VCvArea@@@@8		; FFreeListTrashArray<CvArea>::`RTTI Class Hierarchy Descriptor'
PUBLIC	??_R2?$FFreeListTrashArray@VCvArea@@@@8		; FFreeListTrashArray<CvArea>::`RTTI Base Class Array'
PUBLIC	??_R1A@?0A@EA@?$FFreeListTrashArray@VCvArea@@@@8 ; FFreeListTrashArray<CvArea>::`RTTI Base Class Descriptor at (0,-1,0,64)'
PUBLIC	?Init@?$FFreeListTrashArray@VCvArea@@@@UAEXH@Z	; FFreeListTrashArray<CvArea>::Init
PUBLIC	?Uninit@?$FFreeListTrashArray@VCvArea@@@@UAEXXZ	; FFreeListTrashArray<CvArea>::Uninit
PUBLIC	?GetAt@?$FFreeListTrashArray@VCvArea@@@@UBEPBVCvArea@@H@Z ; FFreeListTrashArray<CvArea>::GetAt
PUBLIC	?GetAt@?$FFreeListTrashArray@VCvArea@@@@UAEPAVCvArea@@H@Z ; FFreeListTrashArray<CvArea>::GetAt
PUBLIC	?RemoveAll@?$FFreeListTrashArray@VCvArea@@@@UAEXXZ ; FFreeListTrashArray<CvArea>::RemoveAll
PUBLIC	?GrowArray@?$FFreeListTrashArray@VCvArea@@@@MAEXXZ ; FFreeListTrashArray<CvArea>::GrowArray
EXTRN	??_E?$FFreeListTrashArray@VCvArea@@@@UAEPAXI@Z:PROC ; FFreeListTrashArray<CvArea>::`vector deleting destructor'
;	COMDAT ??_R1A@?0A@EA@?$FFreeListTrashArray@VCvArea@@@@8
; File c:\users\enormousapplepie\documents\github\lekmod\lekmod_dll\fireplace\include\fireworks\ffreelistarraybase.h
rdata$r	SEGMENT
??_R1A@?0A@EA@?$FFreeListTrashArray@VCvArea@@@@8 DD FLAT:??_R0?AV?$FFreeListTrashArray@VCvArea@@@@@8 ; FFreeListTrashArray<CvArea>::`RTTI Base Class Descriptor at (0,-1,0,64)'
	DD	01H
	DD	00H
	DD	0ffffffffH
	DD	00H
	DD	040H
	DD	FLAT:??_R3?$FFreeListTrashArray@VCvArea@@@@8
rdata$r	ENDS
;	COMDAT ??_R2?$FFreeListTrashArray@VCvArea@@@@8
rdata$r	SEGMENT
??_R2?$FFreeListTrashArray@VCvArea@@@@8 DD FLAT:??_R1A@?0A@EA@?$FFreeListTrashArray@VCvArea@@@@8 ; FFreeListTrashArray<CvArea>::`RTTI Base Class Array'
	DD	FLAT:??_R1A@?0A@EA@?$FFreeListArrayBase@VCvArea@@@@8
rdata$r	ENDS
;	COMDAT ??_R3?$FFreeListTrashArray@VCvArea@@@@8
rdata$r	SEGMENT
??_R3?$FFreeListTrashArray@VCvArea@@@@8 DD 00H		; FFreeListTrashArray<CvArea>::`RTTI Class Hierarchy Descriptor'
	DD	00H
	DD	02H
	DD	FLAT:??_R2?$FFreeListTrashArray@VCvArea@@@@8
rdata$r	ENDS
;	COMDAT ??_R0?AV?$FFreeListTrashArray@VCvArea@@@@@8
_DATA	SEGMENT
??_R0?AV?$FFreeListTrashArray@VCvArea@@@@@8 DD FLAT:??_7type_info@@6B@ ; FFreeListTrashArray<CvArea> `RTTI Type Descriptor'
	DD	00H
	DB	'.?AV?$FFreeListTrashArray@VCvArea@@@@', 00H
_DATA	ENDS
;	COMDAT ??_R4?$FFreeListTrashArray@VCvArea@@@@6B@
rdata$r	SEGMENT
??_R4?$FFreeListTrashArray@VCvArea@@@@6B@ DD 00H	; FFreeListTrashArray<CvArea>::`RTTI Complete Object Locator'
	DD	00H
	DD	00H
	DD	FLAT:??_R0?AV?$FFreeListTrashArray@VCvArea@@@@@8
	DD	FLAT:??_R3?$FFreeListTrashArray@VCvArea@@@@8
rdata$r	ENDS
;	COMDAT ??_7?$FFreeListTrashArray@VCvArea@@@@6B@
CONST	SEGMENT
??_7?$FFreeListTrashArray@VCvArea@@@@6B@ DD FLAT:??_R4?$FFreeListTrashArray@VCvArea@@@@6B@ ; FFreeListTrashArray<CvArea>::`vftable'
	DD	FLAT:??_E?$FFreeListTrashArray@VCvArea@@@@UAEPAXI@Z
	DD	FLAT:?Init@?$FFreeListTrashArray@VCvArea@@@@UAEXH@Z
	DD	FLAT:?Uninit@?$FFreeListTrashArray@VCvArea@@@@UAEXXZ
	DD	FLAT:?GetAt@?$FFreeListTrashArray@VCvArea@@@@UBEPBVCvArea@@H@Z
	DD	FLAT:?GetAt@?$FFreeListTrashArray@VCvArea@@@@UAEPAVCvArea@@H@Z
	DD	FLAT:?RemoveAll@?$FFreeListTrashArray@VCvArea@@@@UAEXXZ
	DD	FLAT:?GrowArray@?$FFreeListTrashArray@VCvArea@@@@MAEXXZ
; Function compile flags: /Ogtpy
; File c:\users\enormousapplepie\documents\github\lekmod\lekmod_dll\fireplace\include\fireworks\ffreelisttrasharray.h
CONST	ENDS
;	COMDAT ??0?$FFreeListTrashArray@VCvArea@@@@QAE@XZ
_TEXT	SEGMENT
??0?$FFreeListTrashArray@VCvArea@@@@QAE@XZ PROC		; FFreeListTrashArray<CvArea>::FFreeListTrashArray<CvArea>, COMDAT
; _this$ = ecx

; 132  : {

	mov	eax, ecx
	xor	ecx, ecx
	mov	DWORD PTR [eax+4], -2			; fffffffeH
	mov	DWORD PTR [eax+8], ecx
	mov	DWORD PTR [eax+12], -1
	mov	DWORD PTR [eax+16], ecx
	mov	DWORD PTR [eax], OFFSET ??_7?$FFreeListTrashArray@VCvArea@@@@6B@

; 133  : 	m_iCurrentID = FLTA_MAX_BUCKETS;

	mov	DWORD PTR [eax+20], 8192		; 00002000H

; 134  : 	m_pArray = NULL;

	mov	DWORD PTR [eax+24], ecx

; 135  : }

	ret	0
??0?$FFreeListTrashArray@VCvArea@@@@QAE@XZ ENDP		; FFreeListTrashArray<CvArea>::FFreeListTrashArray<CvArea>
; Function compile flags: /Ogtpy
_TEXT	ENDS
;	COMDAT ?Init@?$FFreeListTrashArray@VCvArea@@@@UAEXH@Z
_TEXT	SEGMENT
_iNumSlots$ = 8						; size = 4
?Init@?$FFreeListTrashArray@VCvArea@@@@UAEXH@Z PROC	; FFreeListTrashArray<CvArea>::Init, COMDAT
; _this$ = ecx

; 147  : {

	push	esi
	push	edi

; 148  : 	int iCount;
; 149  : 	int iI;
; 150  : 
; 151  : 	assert(iNumSlots >= 0);
; 152  : 
; 153  : 	// make sure it's binary...
; 154  : 	if ((iNumSlots > 0) && ((iNumSlots - 1) & iNumSlots) != 0)

	mov	edi, DWORD PTR _iNumSlots$[esp+4]
	mov	esi, ecx
	test	edi, edi
	jle	SHORT $LN7@Init
	lea	eax, DWORD PTR [edi-1]
	test	eax, edi
	je	SHORT $LN7@Init

; 155  : 	{
; 156  : 		// find high bit
; 157  : 		iCount = 0;

	xor	eax, eax

; 158  : 		while (iNumSlots != 1)

	cmp	edi, 1
	je	SHORT $LN5@Init
	npad	6
$LL6@Init:

; 159  : 		{
; 160  : 			iNumSlots >>= 1;

	sar	edi, 1

; 161  : 			iCount++;

	inc	eax
	cmp	edi, 1
	jne	SHORT $LL6@Init
$LN5@Init:

; 162  : 		}
; 163  : 		iNumSlots = (1 << (iCount + 1));

	lea	ecx, DWORD PTR [eax+1]
	mov	edi, 1
	shl	edi, cl
$LN7@Init:

; 164  : 	}
; 165  : 
; 166  : 	assert(((iNumSlots - 1) & iNumSlots) == 0);
; 167  : 	assert((this->m_iNumSlots <= FLTA_MAX_BUCKETS) && "FFreeListTrashArray<T>::init() size too large");
; 168  : 
; 169  : 	Uninit();

	mov	edx, DWORD PTR [esi]
	mov	eax, DWORD PTR [edx+8]
	mov	ecx, esi
	call	eax

; 170  : 
; 171  : 	this->m_iNumSlots = iNumSlots;

	mov	DWORD PTR [esi+16], edi

; 172  : 	this->m_iLastIndex = FFreeList::INVALID_INDEX;

	mov	DWORD PTR [esi+12], -1

; 173  : 	this->m_iFreeListHead = FFreeList::INVALID_INDEX;

	mov	DWORD PTR [esi+4], -1

; 174  : 	this->m_iFreeListCount = 0;

	mov	DWORD PTR [esi+8], 0

; 175  : 	m_iCurrentID = FLTA_MAX_BUCKETS;

	mov	DWORD PTR [esi+20], 8192		; 00002000H

; 176  : 
; 177  : 	if (this->m_iNumSlots > 0)

	test	edi, edi
	jle	SHORT $LN1@Init

; 178  : 	{
; 179  : 		m_pArray = FNEW( FFreeListTrashArrayNode[this->m_iNumSlots], c_eMPoolTypeContainer, 0 );

	xor	ecx, ecx
	mov	eax, edi
	mov	edx, 8
	mul	edx
	seto	cl
	neg	ecx
	or	ecx, eax
	push	ecx
	call	??_U@YAPAXI@Z				; operator new[]
	mov	DWORD PTR [esi+24], eax

; 180  : 
; 181  : 		for (iI = 0; iI < this->m_iNumSlots; iI++)

	xor	eax, eax
	add	esp, 4
	cmp	DWORD PTR [esi+16], eax
	jle	SHORT $LN1@Init
$LL3@Init:

; 182  : 		{
; 183  : 			m_pArray[iI].iNextFreeIndex = FFreeList::INVALID_INDEX;

	mov	ecx, DWORD PTR [esi+24]
	mov	DWORD PTR [ecx+eax*8], -1

; 184  : 			m_pArray[iI].pData = NULL;

	mov	edx, DWORD PTR [esi+24]
	mov	DWORD PTR [edx+eax*8+4], 0
	inc	eax
	cmp	eax, DWORD PTR [esi+16]
	jl	SHORT $LL3@Init
$LN1@Init:
	pop	edi
	pop	esi

; 185  : 		}
; 186  : 	}
; 187  : }

	ret	4
?Init@?$FFreeListTrashArray@VCvArea@@@@UAEXH@Z ENDP	; FFreeListTrashArray<CvArea>::Init
; Function compile flags: /Ogtpy
_TEXT	ENDS
;	COMDAT ?GetAt@?$FFreeListTrashArray@VCvArea@@@@UBEPBVCvArea@@H@Z
_TEXT	SEGMENT
_iID$ = 8						; size = 4
?GetAt@?$FFreeListTrashArray@VCvArea@@@@UBEPBVCvArea@@H@Z PROC ; FFreeListTrashArray<CvArea>::GetAt, COMDAT
; _this$ = ecx

; 273  : {

	push	esi

; 274  : 	int iIndex;
; 275  : 
; 276  : 	if ((iID == FFreeList::INVALID_INDEX) || (m_pArray == NULL))

	mov	esi, DWORD PTR _iID$[esp]
	cmp	esi, -1
	je	SHORT $LN4@GetAt
	mov	edx, DWORD PTR [ecx+24]
	test	edx, edx
	je	SHORT $LN4@GetAt

; 279  : 	}
; 280  : 
; 281  : 	iIndex = (iID & FLTA_INDEX_MASK);

	mov	eax, esi
	and	eax, 8191				; 00001fffH

; 282  : 
; 283  : 	assert(iIndex >= 0);
; 284  : 
; 285  : 	if ((iIndex <= this->m_iLastIndex) && 
; 286  : 		(m_pArray[iIndex].pData != NULL))

	cmp	eax, DWORD PTR [ecx+12]
	jg	SHORT $LN4@GetAt
	mov	eax, DWORD PTR [edx+eax*8+4]
	test	eax, eax
	je	SHORT $LN4@GetAt

; 287  : 	{
; 288  : 		if (((iID & FLTA_ID_MASK) == 0) || (m_pArray[iIndex].pData->GetID() == iID))

	test	esi, -8192				; ffffe000H
	je	SHORT $LN6@GetAt
	cmp	DWORD PTR [eax+4], esi

; 289  : 		{
; 290  : 			return m_pArray[iIndex].pData;

	je	SHORT $LN6@GetAt
$LN4@GetAt:

; 277  : 	{
; 278  : 		return NULL;

	xor	eax, eax
$LN6@GetAt:
	pop	esi

; 291  : 		}
; 292  : 	}
; 293  : 
; 294  : 	return NULL;
; 295  : }

	ret	4
?GetAt@?$FFreeListTrashArray@VCvArea@@@@UBEPBVCvArea@@H@Z ENDP ; FFreeListTrashArray<CvArea>::GetAt
; Function compile flags: /Ogtpy
_TEXT	ENDS
;	COMDAT ?GetAt@?$FFreeListTrashArray@VCvArea@@@@UAEPAVCvArea@@H@Z
_TEXT	SEGMENT
_iID$ = 8						; size = 4
?GetAt@?$FFreeListTrashArray@VCvArea@@@@UAEPAVCvArea@@H@Z PROC ; FFreeListTrashArray<CvArea>::GetAt, COMDAT
; _this$ = ecx

; 247  : {

	push	esi

; 248  : 	int iIndex;
; 249  : 
; 250  : 	if ((iID == FFreeList::INVALID_INDEX) || (m_pArray == NULL))

	mov	esi, DWORD PTR _iID$[esp]
	cmp	esi, -1
	je	SHORT $LN4@GetAt@2
	mov	edx, DWORD PTR [ecx+24]
	test	edx, edx
	je	SHORT $LN4@GetAt@2

; 253  : 	}
; 254  : 
; 255  : 	iIndex = (iID & FLTA_INDEX_MASK);

	mov	eax, esi
	and	eax, 8191				; 00001fffH

; 256  : 
; 257  : 	assert(iIndex >= 0);
; 258  : 
; 259  : 	if ((iIndex <= this->m_iLastIndex) && 
; 260  : 		(m_pArray[iIndex].pData != NULL))

	cmp	eax, DWORD PTR [ecx+12]
	jg	SHORT $LN4@GetAt@2
	mov	eax, DWORD PTR [edx+eax*8+4]
	test	eax, eax
	je	SHORT $LN4@GetAt@2

; 261  : 	{
; 262  : 		if (((iID & FLTA_ID_MASK) == 0) || (m_pArray[iIndex].pData->GetID() == iID))

	test	esi, -8192				; ffffe000H
	je	SHORT $LN6@GetAt@2
	cmp	DWORD PTR [eax+4], esi

; 263  : 		{
; 264  : 			return m_pArray[iIndex].pData;

	je	SHORT $LN6@GetAt@2
$LN4@GetAt@2:

; 251  : 	{
; 252  : 		return NULL;

	xor	eax, eax
$LN6@GetAt@2:
	pop	esi

; 265  : 		}
; 266  : 	}
; 267  : 
; 268  : 	return NULL;
; 269  : }

	ret	4
?GetAt@?$FFreeListTrashArray@VCvArea@@@@UAEPAVCvArea@@H@Z ENDP ; FFreeListTrashArray<CvArea>::GetAt
; Function compile flags: /Ogtpy
_TEXT	ENDS
;	COMDAT ?GrowArray@?$FFreeListTrashArray@VCvArea@@@@MAEXXZ
_TEXT	SEGMENT
?GrowArray@?$FFreeListTrashArray@VCvArea@@@@MAEXXZ PROC	; FFreeListTrashArray<CvArea>::GrowArray, COMDAT
; _this$ = ecx

; 406  : {

	push	esi
	mov	esi, ecx
	push	edi

; 407  : 	FFreeListTrashArrayNode* pOldArray;
; 408  : 	int iOldNumSlots;
; 409  : 	int iI;
; 410  : 
; 411  : 	assert(m_pArray != NULL);
; 412  : 	
; 413  : 	if(!m_pArray) return;

	mov	edi, DWORD PTR [esi+24]
	test	edi, edi
	je	SHORT $LN7@GrowArray
	push	ebp

; 414  : 
; 415  : 	pOldArray = m_pArray;
; 416  : 	iOldNumSlots = this->m_iNumSlots;

	mov	ebp, DWORD PTR [esi+16]

; 417  : 
; 418  : 	this->m_iNumSlots *= FLTA_GROWTH_FACTOR;
; 419  : 	assert((this->m_iNumSlots <= FLTA_MAX_BUCKETS) && "FFreeListTrashArray<T>::growArray() size too large");
; 420  : 	m_pArray = FNEW( FFreeListTrashArrayNode[this->m_iNumSlots], c_eMPoolTypeContainer, 0 );

	xor	ecx, ecx
	lea	eax, DWORD PTR [ebp+ebp]
	mov	DWORD PTR [esi+16], eax
	mov	edx, 8
	mul	edx
	seto	cl
	neg	ecx
	or	ecx, eax
	push	ecx
	call	??_U@YAPAXI@Z				; operator new[]
	mov	DWORD PTR [esi+24], eax

; 421  : 
; 422  : 	for (iI = 0; iI < this->m_iNumSlots; iI++)

	xor	eax, eax
	add	esp, 4
	cmp	DWORD PTR [esi+16], eax
	jle	SHORT $LN3@GrowArray
	npad	7
$LL5@GrowArray:

; 423  : 	{
; 424  : 		if (iI < iOldNumSlots)

	cmp	eax, ebp

; 425  : 		{
; 426  : 			m_pArray[iI] = pOldArray[iI];

	mov	ecx, DWORD PTR [esi+24]
	jge	SHORT $LN2@GrowArray
	mov	edx, DWORD PTR [edi+eax*8]
	mov	DWORD PTR [ecx+eax*8], edx
	mov	edx, DWORD PTR [edi+eax*8+4]
	mov	DWORD PTR [ecx+eax*8+4], edx

; 427  : 		}
; 428  : 		else

	jmp	SHORT $LN4@GrowArray
$LN2@GrowArray:

; 429  : 		{
; 430  : 			m_pArray[iI].iNextFreeIndex = FFreeList::INVALID_INDEX;

	mov	DWORD PTR [ecx+eax*8], -1

; 431  : 			m_pArray[iI].pData = NULL;

	mov	edx, DWORD PTR [esi+24]
	mov	DWORD PTR [edx+eax*8+4], 0
$LN4@GrowArray:
	inc	eax
	cmp	eax, DWORD PTR [esi+16]
	jl	SHORT $LL5@GrowArray
$LN3@GrowArray:

; 432  : 		}
; 433  : 	}
; 434  : 
; 435  : 	delete [] pOldArray;

	push	edi
	call	??_V@YAXPAX@Z				; operator delete[]
	add	esp, 4
	pop	ebp
$LN7@GrowArray:
	pop	edi
	pop	esi

; 436  : }

	ret	0
?GrowArray@?$FFreeListTrashArray@VCvArea@@@@MAEXXZ ENDP	; FFreeListTrashArray<CvArea>::GrowArray
_TEXT	ENDS
PUBLIC	?RemoveAt@?$FFreeListTrashArray@VCvArea@@@@QAE_NH@Z ; FFreeListTrashArray<CvArea>::RemoveAt
; Function compile flags: /Ogtpy
