; Listing generated by Microsoft (R) Optimizing Compiler Version 15.00.30729.01 

	TITLE	c:\Users\EnormousApplePie\Documents\GitHub\Lekmod\LEKMOD_DLL\CvGameCoreDLL_Expansion2\CvMilitaryAI.cpp
	.686P
	.XMM
	include listing.inc
	.model	flat

INCLUDELIB MSVCRT
INCLUDELIB OLDNAMES

PUBLIC	?NO_QUEST_DATA@CvMinorCivQuest@@2HB		; CvMinorCivQuest::NO_QUEST_DATA
PUBLIC	?NO_TURN@CvMinorCivQuest@@2HB			; CvMinorCivQuest::NO_TURN
CONST	SEGMENT
$SG225636 DB	'NoMinorCivs', 00H
$SG225637 DB	'OnlyMinorCivs', 00H
	ORG $+2
$SG225638 DB	'UpdateCitySpecializations', 00H
	ORG $+2
$SG225639 DB	'CheckTriggerTurnCount', 00H
	ORG $+2
$SG225640 DB	'FirstTurnExecuted', 00H
	ORG $+2
$SG225641 DB	'MinimumNumTurnsExecuted', 00H
$SG225642 DB	'WeightThreshold', 00H
$SG225644 DB	'Advisor', 00H
$SG225647 DB	'MILITARY', 00H
	ORG $+3
$SG225650 DB	'ECONOMIC', 00H
	ORG $+3
$SG225653 DB	'FOREIGN', 00H
$SG225656 DB	'SCIENCE', 00H
$SG225657 DB	'AdvisorCounsel', 00H
	ORG $+1
$SG225659 DB	'TechObsolete', 00H
	ORG $+3
$SG225660 DB	'TechPrereq', 00H
	ORG $+1
$SG225662 DB	'AIMilitaryStrategyType', 00H
	ORG $+1
$SG225663 DB	'AIMilitaryStrategy_Player_Flavors', 00H
	ORG $+2
$SG225664 DB	'AIMilitaryStrategyType', 00H
	ORG $+1
$SG225665 DB	'AIMilitaryStrategy_City_Flavors', 00H
$SG225666 DB	'AIMilitaryStrategyType', 00H
	ORG $+1
$SG225667 DB	'AIMilitaryStrategy_PersonalityFlavorThresholdMods', 00H
	ORG $+2
$SG226214 DB	'FLAVOR_NAVAL', 00H
	ORG $+3
$SG226286 DB	'Emergency Unit Purchased: %s, ', 00H
	ORG $+1
$SG226296 DB	'Emergency Faith Unit Purchase: %s, ', 00H
$SG226321 DB	'Emergency Building Purchased: %s, ', 00H
	ORG $+1
$SG226787 DB	'Choosing attack target from top 25%% of choices', 00H
$SG227195 DB	'.csv', 00H
	ORG $+3
$SG227196 DB	'OperationalAILog_', 00H
	ORG $+2
$SG227198 DB	'OperationalAILog.csv', 00H
	ORG $+3
$SG227199 DB	'%03d, ', 00H
	ORG $+1
$SG227201 DB	', ', 00H
	ORG $+1
$SG227203 DB	'Basic Attack, ', 00H
	ORG $+1
$SG227206 DB	'Sneak Attack, ', 00H
	ORG $+1
$SG227209 DB	'Pure Naval Attack, ', 00H
$SG227211 DB	'City State Attack, ', 00H
$SG227212 DB	', ', 00H
	ORG $+1
$SG227221 DB	'Target: %s, Muster: %s, %d, Distance: %d', 00H
	ORG $+3
$SG227224 DB	', Sea', 00H
	ORG $+2
$SG227226 DB	', Land', 00H
	ORG $+1
$SG227243 DB	'.csv', 00H
	ORG $+3
$SG227244 DB	'OperationalAILog_', 00H
	ORG $+2
$SG227246 DB	'OperationalAILog.csv', 00H
	ORG $+3
$SG227247 DB	'%03d, ', 00H
	ORG $+1
$SG227249 DB	', ', 00H
	ORG $+1
$SG227251 DB	'Basic Attack, ', 00H
	ORG $+1
$SG227254 DB	'Sneak Attack, ', 00H
	ORG $+1
$SG227257 DB	'Pure Naval Attack, ', 00H
$SG227259 DB	'City State Attack, ', 00H
$SG227260 DB	', ', 00H
	ORG $+1
$SG227263 DB	'CHOSEN: %s, Muster: %s', 00H
	ORG $+1
$SG227266 DB	', Sea', 00H
	ORG $+2
$SG227268 DB	', Land', 00H
	ORG $+1
$SG227281 DB	'%03d, ', 00H
	ORG $+1
$SG227283 DB	', ', 00H
	ORG $+1
$SG227284 DB	'Declared War on: %s', 00H
$SG227296 DB	'%03d, ', 00H
	ORG $+1
$SG227298 DB	', ', 00H
	ORG $+1
$SG227299 DB	'DESTROYED!', 00H
	ORG $+1
$SG227316 DB	'%03d, ', 00H
	ORG $+1
$SG227318 DB	', ', 00H
	ORG $+1
$SG227321 DB	', ', 00H
	ORG $+1
$SG227322 DB	'Captured: ', 00H
	ORG $+1
$SG227324 DB	'From: ', 00H
	ORG $+1
$SG227341 DB	'%03d, ', 00H
	ORG $+1
$SG227343 DB	', ', 00H
	ORG $+1
$SG227346 DB	', ', 00H
	ORG $+1
$SG227347 DB	'Razed: ', 00H
$SG227349 DB	'From: ', 00H
	ORG $+1
$SG227363 DB	'%03d, ', 00H
	ORG $+1
$SG227365 DB	', ', 00H
	ORG $+1
$SG227366 DB	'Made peace with: %s', 00H
$SG227380 DB	'%03d, ', 00H
	ORG $+1
$SG227382 DB	', ', 00H
	ORG $+1
$SG227391 DB	', ', 00H
	ORG $+1
$SG227393 DB	'Made peace with team: %d (%s)', 00H
	ORG $+2
$SG227405 DB	'%03d, ', 00H
	ORG $+1
$SG227407 DB	', ', 00H
	ORG $+1
$SG227408 DB	'Scrapping %s, X: %d, Y: %d, ', 00H
	ORG $+3
$SG227409 DB	'by DoDeficit(), , ', 00H
	ORG $+1
$SG227411 DB	'Num Land Units: %d, In Armies %d, Rec Size: %d, ', 00H
	ORG $+3
$SG227413 DB	'Num Naval Units: %d, In Armies %d, ', 00H
$SG227442 DB	'ECONOMICAISTRATEGY_NAVAL_MAP', 00H
	ORG $+3
$SG227446 DB	'FLAVOR_OFFENSE', 00H
	ORG $+1
$SG227449 DB	'FLAVOR_DEFENSE', 00H
	ORG $+1
$SG227467 DB	'AIGRANDSTRATEGY_CONQUEST', 00H
	ORG $+3
$SG227606 DB	'MILITARYAISTRATEGY_ENOUGH_MILITARY_UNITS', 00H
	ORG $+3
$SG227609 DB	'MILITARYAISTRATEGY_EMPIRE_DEFENSE', 00H
	ORG $+2
$SG227612 DB	'MILITARYAISTRATEGY_EMPIRE_DEFENSE_CRITICAL', 00H
	ORG $+1
$SG227615 DB	'MILITARYAISTRATEGY_ENOUGH_NAVAL_UNITS', 00H
	ORG $+2
$SG227618 DB	'MILITARYAISTRATEGY_NEED_NAVAL_UNITS', 00H
$SG227621 DB	'MILITARYAISTRATEGY_NEED_NAVAL_UNITS_CRITICAL', 00H
	ORG $+3
$SG227624 DB	'MILITARYAISTRATEGY_WAR_MOBILIZATION', 00H
$SG227627 DB	'MILITARYAISTRATEGY_AT_WAR', 00H
	ORG $+2
$SG227630 DB	'MILITARYAISTRATEGY_MINOR_CIV_GENERAL_DEFENSE', 00H
	ORG $+3
$SG227633 DB	'MILITARYAISTRATEGY_MINOR_CIV_THREAT_ELEVATED', 00H
	ORG $+3
$SG227636 DB	'MILITARYAISTRATEGY_MINOR_CIV_THREAT_CRITICAL', 00H
	ORG $+3
$SG227639 DB	'MILITARYAISTRATEGY_ERADICATE_BARBARIANS', 00H
$SG227642 DB	'MILITARYAISTRATEGY_WINNING_WARS', 00H
$SG227645 DB	'MILITARYAISTRATEGY_LOSING_WARS', 00H
	ORG $+1
$SG227648 DB	'MILITARYAISTRATEGY_NEED_RANGED', 00H
	ORG $+1
$SG227651 DB	'MILITARYAISTRATEGY_ENOUGH_RANGED', 00H
	ORG $+3
$SG227654 DB	'MILITARYAISTRATEGY_NEED_RANGED_EARLY', 00H
	ORG $+3
$SG227657 DB	'MILITARYAISTRATEGY_NEED_MOBILE', 00H
	ORG $+1
$SG227660 DB	'MILITARYAISTRATEGY_ENOUGH_MOBILE', 00H
	ORG $+3
$SG227663 DB	'MILITARYAISTRATEGY_NEED_AIR', 00H
$SG227666 DB	'MILITARYAISTRATEGY_ENOUGH_AIR', 00H
	ORG $+2
$SG227669 DB	'MILITARYAISTRATEGY_NEED_NUKE', 00H
	ORG $+3
$SG227672 DB	'MILITARYAISTRATEGY_NEED_ANTIAIR', 00H
$SG227675 DB	'MILITARYAISTRATEGY_ENOUGH_ANTIAIR', 00H
	ORG $+2
$SG227678 DB	'MILITARYAISTRATEGY_NEED_AIR_CARRIER', 00H
$SG227685 DB	'MilitaryStrategyCanActivate', 00H
$SG227729 DB	'MILITARYAISTRATEGY_ERADICATE_BARBARIANS', 00H
$SG227732 DB	'MILITARYAISTRATEGY_AT_WAR', 00H
	ORG $+2
$SG227735 DB	'MILITARYAISTRATEGY_EMPIRE_DEFENSE_CRITICAL', 00H
	ORG $+1
$SG227831 DB	'FLAVOR_USE_NUKE', 00H
$SG227833 DB	'Roll to see if we''re going to nuke!', 00H
$SG227835 DB	'Second roll to see if we''re going to nuke!', 00H
	ORG $+1
$SG227881 DB	'Choosing attack target by weight', 00H
	ORG $+3
$SG227892 DB	'FLAVOR_NAVAL', 00H
	ORG $+3
$SG227912 DB	'MILITARYAISTRATEGY_AT_WAR', 00H
	ORG $+2
$SG227928 DB	'MILITARYAISTRATEGY_AT_WAR', 00H
	ORG $+2
$SG227933 DB	'FLAVOR_OFFENSE', 00H
	ORG $+1
$SG227972 DB	'ECONOMICAISTRATEGY_LOSING_MONEY', 00H
$SG227979 DB	'AIGRANDSTRATEGY_CONQUEST', 00H
	ORG $+3
$SG228209 DB	'.csv', 00H
	ORG $+3
$SG228210 DB	'FlavorAILog_', 00H
	ORG $+3
$SG228212 DB	'FlavorAILog.csv', 00H
$SG228213 DB	'%03d, ', 00H
	ORG $+1
$SG228215 DB	', ', 00H
	ORG $+1
$SG228218 DB	'%s, %d', 00H
	ORG $+1
$SG228223 DB	'.csv', 00H
	ORG $+3
$SG228224 DB	'TechAILog_', 00H
	ORG $+1
$SG228236 DB	'.csv', 00H
	ORG $+3
$SG228237 DB	'_', 00H
	ORG $+2
$SG228238 DB	'CityStrategyAILog_', 00H
	ORG $+1
$SG228240 DB	'CityStrategyAILog.csv', 00H
	ORG $+2
$SG228241 DB	'TechAILog.csv', 00H
	ORG $+6
$SG228255 DB	'Turn, Player, Cities, Settlers, Civ Threat, Barb Threat,'
	DB	' Land Units, Land In Armies, Rec Land Size, Land Reserve, Nav'
	DB	'al Units, Naval In Armies, Rec Naval Size, Most Threatened, D'
	DB	'anger', 00H
$SG228256 DB	'%03d, ', 00H
	ORG $+1
$SG228258 DB	', ', 00H
	ORG $+1
$SG228259 DB	'%d, %d, ', 00H
	ORG $+3
$SG228261 DB	'%d, %d, ', 00H
	ORG $+3
$SG228263 DB	'%d, %d, %d, %d, %d, %d, %d, ', 00H
	ORG $+3
$SG228266 DB	', %d', 00H
	ORG $+3
$SG228281 DB	'%03d, ', 00H
	ORG $+1
$SG228283 DB	', ', 00H
	ORG $+1
$SG228285 DB	'Land Army Under Construction', 00H
	ORG $+3
$SG228287 DB	'Naval Invasion Under Construction', 00H
	ORG $+2
$SG228303 DB	'%s, Damage=%d, ArmyID=%d, X=%d, Y=%d, DistFromCap=%d', 00H
	ORG $+3
$SG228319 DB	'%03d, ', 00H
	ORG $+1
$SG228323 DB	', New War State: ', 00H
	ORG $+2
$SG228324 DB	', vs. ', 00H
	ORG $+1
$SG228330 DB	'Calm', 00H
	ORG $+3
$SG228332 DB	'Nearly Won', 00H
	ORG $+1
$SG228334 DB	'Offensive', 00H
	ORG $+2
$SG228336 DB	'Stalemate', 00H
	ORG $+2
$SG228338 DB	'Defensive', 00H
	ORG $+2
$SG228340 DB	'Nearly Defeated', 00H
$SG228342 DB	'XXX', 00H
$SG228345 DB	', Old War State: ', 00H
	ORG $+2
$SG228351 DB	'Calm', 00H
	ORG $+3
$SG228353 DB	'Nearly Won', 00H
	ORG $+1
$SG228355 DB	'Offensive', 00H
	ORG $+2
$SG228357 DB	'Stalemate', 00H
	ORG $+2
$SG228359 DB	'Defensive', 00H
	ORG $+2
$SG228361 DB	'Nearly Defeated', 00H
$SG228363 DB	'XXX', 00H
$SG228376 DB	'%03d, ', 00H
	ORG $+1
$SG228378 DB	', ', 00H
	ORG $+1
$SG228379 DB	'Scrapping %s, X: %d, Y: %d, ', 00H
	ORG $+3
$SG228381 DB	'IN DEFICIT, ', 00H
	ORG $+3
$SG228383 DB	'Finances ok, ', 00H
	ORG $+2
$SG228385 DB	'CONQUEST, ', 00H
	ORG $+1
$SG228387 DB	'Other GS, ', 00H
	ORG $+1
$SG228389 DB	'Num Land Units: %d, In Armies %d, Rec Size: %d, ', 00H
	ORG $+3
$SG228391 DB	'Num Naval Units: %d, In Armies %d, ', 00H
$SG228402 DB	'%03d, ', 00H
	ORG $+1
$SG228404 DB	', ', 00H
	ORG $+1
$SG228414 DB	'MilitarySummary.csv', 00H
$SG228419 DB	'.csv', 00H
	ORG $+3
$SG228420 DB	'MilitaryAILog_', 00H
	ORG $+1
$SG228422 DB	'MilitaryAILog.csv', 00H
	ORG $+2
$SG228445 DB	'ECONOMICAISTRATEGY_LOSING_MONEY', 00H
$SG228449 DB	'AIGRANDSTRATEGY_CONQUEST', 00H
	ORG $+3
$SG228483 DB	'MILITARYAISTRATEGY_AT_WAR', 00H
	ORG $+2
$SG228488 DB	'AIGRANDSTRATEGY_CONQUEST', 00H
	ORG $+3
$SG228532 DB	'MILITARYAISTRATEGY_AT_WAR', 00H
	ORG $+2
$SG228576 DB	'FLAVOR_RANGED', 00H
	ORG $+2
$SG228587 DB	'FLAVOR_RANGED', 00H
	ORG $+2
$SG228596 DB	'MILITARYAISTRATEGY_WAR_MOBILIZATION', 00H
$SG228606 DB	'FLAVOR_MOBILE', 00H
	ORG $+2
$SG228617 DB	'FLAVOR_MOBILE', 00H
	ORG $+2
$SG228628 DB	'FLAVOR_AIR', 00H
	ORG $+1
$SG228639 DB	'FLAVOR_AIR', 00H
	ORG $+1
$SG228649 DB	'FLAVOR_NUKE', 00H
$SG228698 DB	'SPECIALUNIT_FIGHTER', 00H
$SG228718 DB	'FLAVOR_NAVAL', 00H
	ORG $+3
$SG228737 DB	'ECONOMICAISTRATEGY_NAVAL_MAP', 00H
	ORG $+3
$SG228740 DB	'ECONOMICAISTRATEGY_EXPAND_TO_OTHER_CONTINENTS', 00H
	ORG $+2
$SG228748 DB	'AIGRANDSTRATEGY_CONQUEST', 00H
CONST	ENDS
;	COMDAT ?NO_TURN@CvMinorCivQuest@@2HB
CONST	SEGMENT
?NO_TURN@CvMinorCivQuest@@2HB DD 0ffffffffH		; CvMinorCivQuest::NO_TURN
CONST	ENDS
;	COMDAT ?NO_QUEST_DATA@CvMinorCivQuest@@2HB
CONST	SEGMENT
?NO_QUEST_DATA@CvMinorCivQuest@@2HB DD 0ffffffffH	; CvMinorCivQuest::NO_QUEST_DATA
CONST	ENDS
PUBLIC	?wrapCoordDifference@@YAHHI_N@Z			; wrapCoordDifference
; Function compile flags: /Ogtpy
; File c:\users\enormousapplepie\documents\github\lekmod\lekmod_dll\cvgamecoredll_expansion2\cvgamecoreutils.h
;	COMDAT ?wrapCoordDifference@@YAHHI_N@Z
_TEXT	SEGMENT
_iDiff$ = 8						; size = 4
_uiRange$ = 12						; size = 4
_bWrap$ = 16						; size = 1
?wrapCoordDifference@@YAHHI_N@Z PROC			; wrapCoordDifference, COMDAT

; 57   : 	if(bWrap)

	cmp	BYTE PTR _bWrap$[esp-4], 0
	mov	eax, DWORD PTR _iDiff$[esp-4]
	je	SHORT $LN5@wrapCoordD

; 58   : 	{
; 59   : 		if(iDiff > (int)(uiRange >> 1))		// Using an unsigned int so we can safely assume that value >> 1 == value / 2

	mov	edx, DWORD PTR _uiRange$[esp-4]
	mov	ecx, edx
	shr	ecx, 1
	cmp	eax, ecx
	jle	SHORT $LN3@wrapCoordD

; 60   : 		{
; 61   : 			return (iDiff - (int)uiRange);

	sub	eax, edx

; 66   : 		}
; 67   : 	}
; 68   : 
; 69   : 	return iDiff;
; 70   : }

	ret	0
$LN3@wrapCoordD:

; 62   : 		}
; 63   : 		else if(iDiff < -(int)(uiRange >> 1))

	neg	ecx
	cmp	eax, ecx
	jge	SHORT $LN5@wrapCoordD

; 64   : 		{
; 65   : 			return (iDiff + (int)uiRange);

	add	eax, edx
$LN5@wrapCoordD:

; 66   : 		}
; 67   : 	}
; 68   : 
; 69   : 	return iDiff;
; 70   : }

	ret	0
?wrapCoordDifference@@YAHHI_N@Z ENDP			; wrapCoordDifference
_TEXT	ENDS
PUBLIC	?xToHexspaceX@@YAHHH@Z				; xToHexspaceX
; Function compile flags: /Ogtpy
;	COMDAT ?xToHexspaceX@@YAHHH@Z
_TEXT	SEGMENT
_iX$ = 8						; size = 4
_iY$ = 12						; size = 4
?xToHexspaceX@@YAHHH@Z PROC				; xToHexspaceX, COMDAT

; 86   : 	return iX - ((iY >= 0) ? (iY>>1) : ((iY - 1)/2));

	mov	ecx, DWORD PTR _iY$[esp-4]
	test	ecx, ecx
	jge	SHORT $LN5@xToHexspac
	lea	eax, DWORD PTR [ecx-1]
	cdq
	sub	eax, edx
	mov	ecx, eax
$LN5@xToHexspac:
	mov	eax, DWORD PTR _iX$[esp-4]
	sar	ecx, 1
	sub	eax, ecx

; 87   : }

	ret	0
?xToHexspaceX@@YAHHH@Z ENDP				; xToHexspaceX
_TEXT	ENDS
PUBLIC	?hexspaceXToX@@YAHHH@Z				; hexspaceXToX
; Function compile flags: /Ogtpy
;	COMDAT ?hexspaceXToX@@YAHHH@Z
_TEXT	SEGMENT
_iHexspaceX$ = 8					; size = 4
_iHexspaceY$ = 12					; size = 4
?hexspaceXToX@@YAHHH@Z PROC				; hexspaceXToX, COMDAT

; 91   : 	return iHexspaceX + ((iHexspaceY >= 0) ? (iHexspaceY>>1) : ((iHexspaceY - 1)/2));

	mov	eax, DWORD PTR _iHexspaceY$[esp-4]
	test	eax, eax
	jl	SHORT $LN3@hexspaceXT
	mov	ecx, DWORD PTR _iHexspaceX$[esp-4]
	sar	eax, 1
	add	eax, ecx

; 92   : }

	ret	0
$LN3@hexspaceXT:

; 91   : 	return iHexspaceX + ((iHexspaceY >= 0) ? (iHexspaceY>>1) : ((iHexspaceY - 1)/2));

	dec	eax
	cdq
	sub	eax, edx
	mov	edx, DWORD PTR _iHexspaceX$[esp-4]
	sar	eax, 1
	add	eax, edx

; 92   : }

	ret	0
?hexspaceXToX@@YAHHH@Z ENDP				; hexspaceXToX
_TEXT	ENDS
PUBLIC	??0CvMilitaryTarget@@QAE@XZ			; CvMilitaryTarget::CvMilitaryTarget
; Function compile flags: /Ogtpy
; File c:\users\enormousapplepie\documents\github\lekmod\lekmod_dll\cvgamecoredll_expansion2\cvmilitaryai.h
;	COMDAT ??0CvMilitaryTarget@@QAE@XZ
_TEXT	SEGMENT
??0CvMilitaryTarget@@QAE@XZ PROC			; CvMilitaryTarget::CvMilitaryTarget, COMDAT
; _this$ = ecx

; 130  : 	{

	mov	eax, ecx
	xor	ecx, ecx
	mov	DWORD PTR [eax], ecx
	mov	DWORD PTR [eax+4], ecx
	mov	DWORD PTR [eax+8], ecx
	mov	DWORD PTR [eax+12], ecx
	mov	DWORD PTR [eax+16], ecx
	mov	BYTE PTR [eax+20], cl

; 131  : 	}

	ret	0
??0CvMilitaryTarget@@QAE@XZ ENDP			; CvMilitaryTarget::CvMilitaryTarget
_TEXT	ENDS
PUBLIC	?GetLandDefenseState@CvMilitaryAI@@QBE?AW4DefenseState@@XZ ; CvMilitaryAI::GetLandDefenseState
; Function compile flags: /Ogtpy
;	COMDAT ?GetLandDefenseState@CvMilitaryAI@@QBE?AW4DefenseState@@XZ
_TEXT	SEGMENT
?GetLandDefenseState@CvMilitaryAI@@QBE?AW4DefenseState@@XZ PROC ; CvMilitaryAI::GetLandDefenseState, COMDAT
; _this$ = ecx

; 189  : 		return m_eLandDefenseState;

	mov	eax, DWORD PTR [ecx+112]

; 190  : 	};

	ret	0
?GetLandDefenseState@CvMilitaryAI@@QBE?AW4DefenseState@@XZ ENDP ; CvMilitaryAI::GetLandDefenseState
_TEXT	ENDS
PUBLIC	?GetNavalDefenseState@CvMilitaryAI@@QBE?AW4DefenseState@@XZ ; CvMilitaryAI::GetNavalDefenseState
; Function compile flags: /Ogtpy
;	COMDAT ?GetNavalDefenseState@CvMilitaryAI@@QBE?AW4DefenseState@@XZ
_TEXT	SEGMENT
?GetNavalDefenseState@CvMilitaryAI@@QBE?AW4DefenseState@@XZ PROC ; CvMilitaryAI::GetNavalDefenseState, COMDAT
; _this$ = ecx

; 193  : 		return m_eNavalDefenseState;

	mov	eax, DWORD PTR [ecx+116]

; 194  : 	};

	ret	0
?GetNavalDefenseState@CvMilitaryAI@@QBE?AW4DefenseState@@XZ ENDP ; CvMilitaryAI::GetNavalDefenseState
_TEXT	ENDS
PUBLIC	?GetMandatoryReserveSize@CvMilitaryAI@@QBEHXZ	; CvMilitaryAI::GetMandatoryReserveSize
; Function compile flags: /Ogtpy
;	COMDAT ?GetMandatoryReserveSize@CvMilitaryAI@@QBEHXZ
_TEXT	SEGMENT
?GetMandatoryReserveSize@CvMilitaryAI@@QBEHXZ PROC	; CvMilitaryAI::GetMandatoryReserveSize, COMDAT
; _this$ = ecx

; 239  : 		return m_iMandatoryReserveSize;

	mov	eax, DWORD PTR [ecx+100]

; 240  : 	};

	ret	0
?GetMandatoryReserveSize@CvMilitaryAI@@QBEHXZ ENDP	; CvMilitaryAI::GetMandatoryReserveSize
_TEXT	ENDS
PUBLIC	?GetLandReservesAvailable@CvMilitaryAI@@QBEHXZ	; CvMilitaryAI::GetLandReservesAvailable
; Function compile flags: /Ogtpy
;	COMDAT ?GetLandReservesAvailable@CvMilitaryAI@@QBEHXZ
_TEXT	SEGMENT
?GetLandReservesAvailable@CvMilitaryAI@@QBEHXZ PROC	; CvMilitaryAI::GetLandReservesAvailable, COMDAT
; _this$ = ecx

; 243  : 		return (m_iNumLandUnits - m_iNumLandUnitsInArmies - GetMandatoryReserveSize());

	mov	eax, DWORD PTR [ecx+52]
	sub	eax, DWORD PTR [ecx+100]
	sub	eax, DWORD PTR [ecx+72]

; 244  : 	};

	ret	0
?GetLandReservesAvailable@CvMilitaryAI@@QBEHXZ ENDP	; CvMilitaryAI::GetLandReservesAvailable
_TEXT	ENDS
PUBLIC	?HasAirforce@CvMilitaryAI@@QBE_NXZ		; CvMilitaryAI::HasAirforce
; Function compile flags: /Ogtpy
;	COMDAT ?HasAirforce@CvMilitaryAI@@QBE_NXZ
_TEXT	SEGMENT
?HasAirforce@CvMilitaryAI@@QBE_NXZ PROC			; CvMilitaryAI::HasAirforce, COMDAT
; _this$ = ecx

; 250  : 		return m_iNumAirUnits > 0;

	xor	eax, eax
	cmp	DWORD PTR [ecx+80], eax
	setg	al

; 251  : 	};

	ret	0
?HasAirforce@CvMilitaryAI@@QBE_NXZ ENDP			; CvMilitaryAI::HasAirforce
_TEXT	ENDS
PUBLIC	?GetArmyBeingBuilt@CvMilitaryAI@@QBE?AW4ArmyType@@XZ ; CvMilitaryAI::GetArmyBeingBuilt
; Function compile flags: /Ogtpy
;	COMDAT ?GetArmyBeingBuilt@CvMilitaryAI@@QBE?AW4ArmyType@@XZ
_TEXT	SEGMENT
?GetArmyBeingBuilt@CvMilitaryAI@@QBE?AW4ArmyType@@XZ PROC ; CvMilitaryAI::GetArmyBeingBuilt, COMDAT
; _this$ = ecx

; 255  : 		return m_eArmyTypeBeingBuilt;

	mov	eax, DWORD PTR [ecx+44]

; 256  : 	};

	ret	0
?GetArmyBeingBuilt@CvMilitaryAI@@QBE?AW4ArmyType@@XZ ENDP ; CvMilitaryAI::GetArmyBeingBuilt
_TEXT	ENDS
PUBLIC	?GetPlayerFlavorValue@CvMilitaryAIStrategyXMLEntry@@QBEHH@Z ; CvMilitaryAIStrategyXMLEntry::GetPlayerFlavorValue
; Function compile flags: /Ogtpy
; File c:\users\enormousapplepie\documents\github\lekmod\lekmod_dll\cvgamecoredll_expansion2\cvmilitaryai.cpp
;	COMDAT ?GetPlayerFlavorValue@CvMilitaryAIStrategyXMLEntry@@QBEHH@Z
_TEXT	SEGMENT
_i$ = 8							; size = 4
?GetPlayerFlavorValue@CvMilitaryAIStrategyXMLEntry@@QBEHH@Z PROC ; CvMilitaryAIStrategyXMLEntry::GetPlayerFlavorValue, COMDAT
; _this$ = ecx

; 112  : 	FAssertMsg(i < GC.getNumFlavorTypes(), "Index out of bounds");
; 113  : 	FAssertMsg(i > -1, "Index out of bounds");
; 114  : 	return m_piPlayerFlavorValue ? m_piPlayerFlavorValue[i] : -1;

	mov	eax, DWORD PTR [ecx+260]
	test	eax, eax
	je	SHORT $LN3@GetPlayerF
	mov	ecx, DWORD PTR _i$[esp-4]
	mov	eax, DWORD PTR [eax+ecx*4]

; 115  : }

	ret	4
$LN3@GetPlayerF:

; 112  : 	FAssertMsg(i < GC.getNumFlavorTypes(), "Index out of bounds");
; 113  : 	FAssertMsg(i > -1, "Index out of bounds");
; 114  : 	return m_piPlayerFlavorValue ? m_piPlayerFlavorValue[i] : -1;

	or	eax, -1

; 115  : }

	ret	4
?GetPlayerFlavorValue@CvMilitaryAIStrategyXMLEntry@@QBEHH@Z ENDP ; CvMilitaryAIStrategyXMLEntry::GetPlayerFlavorValue
_TEXT	ENDS
PUBLIC	?GetCityFlavorValue@CvMilitaryAIStrategyXMLEntry@@QBEHH@Z ; CvMilitaryAIStrategyXMLEntry::GetCityFlavorValue
; Function compile flags: /Ogtpy
;	COMDAT ?GetCityFlavorValue@CvMilitaryAIStrategyXMLEntry@@QBEHH@Z
_TEXT	SEGMENT
_i$ = 8							; size = 4
?GetCityFlavorValue@CvMilitaryAIStrategyXMLEntry@@QBEHH@Z PROC ; CvMilitaryAIStrategyXMLEntry::GetCityFlavorValue, COMDAT
; _this$ = ecx

; 120  : 	FAssertMsg(i < GC.getNumFlavorTypes(), "Index out of bounds");
; 121  : 	FAssertMsg(i > -1, "Index out of bounds");
; 122  : 	return m_piCityFlavorValue ? m_piCityFlavorValue[i] : -1;

	mov	eax, DWORD PTR [ecx+264]
	test	eax, eax
	je	SHORT $LN3@GetCityFla
	mov	ecx, DWORD PTR _i$[esp-4]
	mov	eax, DWORD PTR [eax+ecx*4]

; 123  : }

	ret	4
$LN3@GetCityFla:

; 120  : 	FAssertMsg(i < GC.getNumFlavorTypes(), "Index out of bounds");
; 121  : 	FAssertMsg(i > -1, "Index out of bounds");
; 122  : 	return m_piCityFlavorValue ? m_piCityFlavorValue[i] : -1;

	or	eax, -1

; 123  : }

	ret	4
?GetCityFlavorValue@CvMilitaryAIStrategyXMLEntry@@QBEHH@Z ENDP ; CvMilitaryAIStrategyXMLEntry::GetCityFlavorValue
_TEXT	ENDS
PUBLIC	?GetWeightThreshold@CvMilitaryAIStrategyXMLEntry@@QBEHXZ ; CvMilitaryAIStrategyXMLEntry::GetWeightThreshold
; Function compile flags: /Ogtpy
;	COMDAT ?GetWeightThreshold@CvMilitaryAIStrategyXMLEntry@@QBEHXZ
_TEXT	SEGMENT
?GetWeightThreshold@CvMilitaryAIStrategyXMLEntry@@QBEHXZ PROC ; CvMilitaryAIStrategyXMLEntry::GetWeightThreshold, COMDAT
; _this$ = ecx

; 128  : 	return m_iWeightThreshold;

	mov	eax, DWORD PTR [ecx+268]

; 129  : }

	ret	0
?GetWeightThreshold@CvMilitaryAIStrategyXMLEntry@@QBEHXZ ENDP ; CvMilitaryAIStrategyXMLEntry::GetWeightThreshold
_TEXT	ENDS
PUBLIC	?GetPersonalityFlavorThresholdMod@CvMilitaryAIStrategyXMLEntry@@QBEHH@Z ; CvMilitaryAIStrategyXMLEntry::GetPersonalityFlavorThresholdMod
; Function compile flags: /Ogtpy
;	COMDAT ?GetPersonalityFlavorThresholdMod@CvMilitaryAIStrategyXMLEntry@@QBEHH@Z
_TEXT	SEGMENT
_i$ = 8							; size = 4
?GetPersonalityFlavorThresholdMod@CvMilitaryAIStrategyXMLEntry@@QBEHH@Z PROC ; CvMilitaryAIStrategyXMLEntry::GetPersonalityFlavorThresholdMod, COMDAT
; _this$ = ecx

; 134  : 	FAssertMsg(i < GC.getNumFlavorTypes(), "Index out of bounds");
; 135  : 	FAssertMsg(i > -1, "Index out of bounds");
; 136  : 	return m_piPersonalityFlavorThresholdMod ? m_piPersonalityFlavorThresholdMod[i] : -1;

	mov	eax, DWORD PTR [ecx+272]
	test	eax, eax
	je	SHORT $LN3@GetPersona
	mov	ecx, DWORD PTR _i$[esp-4]
	mov	eax, DWORD PTR [eax+ecx*4]

; 137  : }

	ret	4
$LN3@GetPersona:

; 134  : 	FAssertMsg(i < GC.getNumFlavorTypes(), "Index out of bounds");
; 135  : 	FAssertMsg(i > -1, "Index out of bounds");
; 136  : 	return m_piPersonalityFlavorThresholdMod ? m_piPersonalityFlavorThresholdMod[i] : -1;

	or	eax, -1

; 137  : }

	ret	4
?GetPersonalityFlavorThresholdMod@CvMilitaryAIStrategyXMLEntry@@QBEHH@Z ENDP ; CvMilitaryAIStrategyXMLEntry::GetPersonalityFlavorThresholdMod
_TEXT	ENDS
PUBLIC	?IsNoMinorCivs@CvMilitaryAIStrategyXMLEntry@@QBE_NXZ ; CvMilitaryAIStrategyXMLEntry::IsNoMinorCivs
; Function compile flags: /Ogtpy
;	COMDAT ?IsNoMinorCivs@CvMilitaryAIStrategyXMLEntry@@QBE_NXZ
_TEXT	SEGMENT
?IsNoMinorCivs@CvMilitaryAIStrategyXMLEntry@@QBE_NXZ PROC ; CvMilitaryAIStrategyXMLEntry::IsNoMinorCivs, COMDAT
; _this$ = ecx

; 142  : 	return m_bNoMinorCivs;

	mov	al, BYTE PTR [ecx+276]

; 143  : }

	ret	0
?IsNoMinorCivs@CvMilitaryAIStrategyXMLEntry@@QBE_NXZ ENDP ; CvMilitaryAIStrategyXMLEntry::IsNoMinorCivs
_TEXT	ENDS
PUBLIC	?IsOnlyMinorCivs@CvMilitaryAIStrategyXMLEntry@@QBE_NXZ ; CvMilitaryAIStrategyXMLEntry::IsOnlyMinorCivs
; Function compile flags: /Ogtpy
;	COMDAT ?IsOnlyMinorCivs@CvMilitaryAIStrategyXMLEntry@@QBE_NXZ
_TEXT	SEGMENT
?IsOnlyMinorCivs@CvMilitaryAIStrategyXMLEntry@@QBE_NXZ PROC ; CvMilitaryAIStrategyXMLEntry::IsOnlyMinorCivs, COMDAT
; _this$ = ecx

; 148  : 	return m_bOnlyMinorCivs;

	mov	al, BYTE PTR [ecx+277]

; 149  : }

	ret	0
?IsOnlyMinorCivs@CvMilitaryAIStrategyXMLEntry@@QBE_NXZ ENDP ; CvMilitaryAIStrategyXMLEntry::IsOnlyMinorCivs
_TEXT	ENDS
PUBLIC	?RequiresCitySpecializationUpdate@CvMilitaryAIStrategyXMLEntry@@QBE_NXZ ; CvMilitaryAIStrategyXMLEntry::RequiresCitySpecializationUpdate
; Function compile flags: /Ogtpy
;	COMDAT ?RequiresCitySpecializationUpdate@CvMilitaryAIStrategyXMLEntry@@QBE_NXZ
_TEXT	SEGMENT
?RequiresCitySpecializationUpdate@CvMilitaryAIStrategyXMLEntry@@QBE_NXZ PROC ; CvMilitaryAIStrategyXMLEntry::RequiresCitySpecializationUpdate, COMDAT
; _this$ = ecx

; 154  : 	return m_bUpdateCitySpecializations;

	mov	al, BYTE PTR [ecx+278]

; 155  : }

	ret	0
?RequiresCitySpecializationUpdate@CvMilitaryAIStrategyXMLEntry@@QBE_NXZ ENDP ; CvMilitaryAIStrategyXMLEntry::RequiresCitySpecializationUpdate
_TEXT	ENDS
PUBLIC	?GetTechPrereq@CvMilitaryAIStrategyXMLEntry@@QBEHXZ ; CvMilitaryAIStrategyXMLEntry::GetTechPrereq
; Function compile flags: /Ogtpy
;	COMDAT ?GetTechPrereq@CvMilitaryAIStrategyXMLEntry@@QBEHXZ
_TEXT	SEGMENT
?GetTechPrereq@CvMilitaryAIStrategyXMLEntry@@QBEHXZ PROC ; CvMilitaryAIStrategyXMLEntry::GetTechPrereq, COMDAT
; _this$ = ecx

; 160  : 	return m_iTechPrereq;

	mov	eax, DWORD PTR [ecx+280]

; 161  : }

	ret	0
?GetTechPrereq@CvMilitaryAIStrategyXMLEntry@@QBEHXZ ENDP ; CvMilitaryAIStrategyXMLEntry::GetTechPrereq
_TEXT	ENDS
PUBLIC	?GetTechObsolete@CvMilitaryAIStrategyXMLEntry@@QBEHXZ ; CvMilitaryAIStrategyXMLEntry::GetTechObsolete
; Function compile flags: /Ogtpy
;	COMDAT ?GetTechObsolete@CvMilitaryAIStrategyXMLEntry@@QBEHXZ
_TEXT	SEGMENT
?GetTechObsolete@CvMilitaryAIStrategyXMLEntry@@QBEHXZ PROC ; CvMilitaryAIStrategyXMLEntry::GetTechObsolete, COMDAT
; _this$ = ecx

; 166  : 	return m_iTechObsolete;

	mov	eax, DWORD PTR [ecx+284]

; 167  : }

	ret	0
?GetTechObsolete@CvMilitaryAIStrategyXMLEntry@@QBEHXZ ENDP ; CvMilitaryAIStrategyXMLEntry::GetTechObsolete
_TEXT	ENDS
PUBLIC	?GetMinimumNumTurnsExecuted@CvMilitaryAIStrategyXMLEntry@@QBEHXZ ; CvMilitaryAIStrategyXMLEntry::GetMinimumNumTurnsExecuted
; Function compile flags: /Ogtpy
;	COMDAT ?GetMinimumNumTurnsExecuted@CvMilitaryAIStrategyXMLEntry@@QBEHXZ
_TEXT	SEGMENT
?GetMinimumNumTurnsExecuted@CvMilitaryAIStrategyXMLEntry@@QBEHXZ PROC ; CvMilitaryAIStrategyXMLEntry::GetMinimumNumTurnsExecuted, COMDAT
; _this$ = ecx

; 172  : 	return m_iMinimumNumTurnsExecuted;

	mov	eax, DWORD PTR [ecx+288]

; 173  : }

	ret	0
?GetMinimumNumTurnsExecuted@CvMilitaryAIStrategyXMLEntry@@QBEHXZ ENDP ; CvMilitaryAIStrategyXMLEntry::GetMinimumNumTurnsExecuted
_TEXT	ENDS
PUBLIC	?GetCheckTriggerTurnCount@CvMilitaryAIStrategyXMLEntry@@QBEHXZ ; CvMilitaryAIStrategyXMLEntry::GetCheckTriggerTurnCount
; Function compile flags: /Ogtpy
;	COMDAT ?GetCheckTriggerTurnCount@CvMilitaryAIStrategyXMLEntry@@QBEHXZ
_TEXT	SEGMENT
?GetCheckTriggerTurnCount@CvMilitaryAIStrategyXMLEntry@@QBEHXZ PROC ; CvMilitaryAIStrategyXMLEntry::GetCheckTriggerTurnCount, COMDAT
; _this$ = ecx

; 178  : 	return m_iCheckTriggerTurnCount;

	mov	eax, DWORD PTR [ecx+292]

; 179  : }

	ret	0
?GetCheckTriggerTurnCount@CvMilitaryAIStrategyXMLEntry@@QBEHXZ ENDP ; CvMilitaryAIStrategyXMLEntry::GetCheckTriggerTurnCount
_TEXT	ENDS
PUBLIC	?GetFirstTurnExecuted@CvMilitaryAIStrategyXMLEntry@@QBEHXZ ; CvMilitaryAIStrategyXMLEntry::GetFirstTurnExecuted
; Function compile flags: /Ogtpy
;	COMDAT ?GetFirstTurnExecuted@CvMilitaryAIStrategyXMLEntry@@QBEHXZ
_TEXT	SEGMENT
?GetFirstTurnExecuted@CvMilitaryAIStrategyXMLEntry@@QBEHXZ PROC ; CvMilitaryAIStrategyXMLEntry::GetFirstTurnExecuted, COMDAT
; _this$ = ecx

; 184  : 	return m_iFirstTurnExecuted;

	mov	eax, DWORD PTR [ecx+296]

; 185  : }

	ret	0
?GetFirstTurnExecuted@CvMilitaryAIStrategyXMLEntry@@QBEHXZ ENDP ; CvMilitaryAIStrategyXMLEntry::GetFirstTurnExecuted
_TEXT	ENDS
PUBLIC	?GetAdvisor@CvMilitaryAIStrategyXMLEntry@@QBE?AW4AdvisorTypes@@XZ ; CvMilitaryAIStrategyXMLEntry::GetAdvisor
; Function compile flags: /Ogtpy
;	COMDAT ?GetAdvisor@CvMilitaryAIStrategyXMLEntry@@QBE?AW4AdvisorTypes@@XZ
_TEXT	SEGMENT
?GetAdvisor@CvMilitaryAIStrategyXMLEntry@@QBE?AW4AdvisorTypes@@XZ PROC ; CvMilitaryAIStrategyXMLEntry::GetAdvisor, COMDAT
; _this$ = ecx

; 189  : 	return m_eAdvisor;

	mov	eax, DWORD PTR [ecx+300]

; 190  : }

	ret	0
?GetAdvisor@CvMilitaryAIStrategyXMLEntry@@QBE?AW4AdvisorTypes@@XZ ENDP ; CvMilitaryAIStrategyXMLEntry::GetAdvisor
_TEXT	ENDS
PUBLIC	?GetAdvisorCounselText@CvMilitaryAIStrategyXMLEntry@@QBEPBDXZ ; CvMilitaryAIStrategyXMLEntry::GetAdvisorCounselText
EXTRN	__imp_?c_str@?$basic_string@DU?$char_traits@D@std@@V?$allocator@D@2@@std@@QBEPBDXZ:PROC
; Function compile flags: /Ogtpy
;	COMDAT ?GetAdvisorCounselText@CvMilitaryAIStrategyXMLEntry@@QBEPBDXZ
_TEXT	SEGMENT
?GetAdvisorCounselText@CvMilitaryAIStrategyXMLEntry@@QBEPBDXZ PROC ; CvMilitaryAIStrategyXMLEntry::GetAdvisorCounselText, COMDAT
; _this$ = ecx

; 194  : 	return m_strAdvisorCounselText.c_str();

	add	ecx, 304				; 00000130H
	jmp	DWORD PTR __imp_?c_str@?$basic_string@DU?$char_traits@D@std@@V?$allocator@D@2@@std@@QBEPBDXZ
?GetAdvisorCounselText@CvMilitaryAIStrategyXMLEntry@@QBEPBDXZ ENDP ; CvMilitaryAIStrategyXMLEntry::GetAdvisorCounselText
_TEXT	ENDS
PUBLIC	?GetAdvisorCounselImportance@CvMilitaryAIStrategyXMLEntry@@QBEHXZ ; CvMilitaryAIStrategyXMLEntry::GetAdvisorCounselImportance
; Function compile flags: /Ogtpy
;	COMDAT ?GetAdvisorCounselImportance@CvMilitaryAIStrategyXMLEntry@@QBEHXZ
_TEXT	SEGMENT
?GetAdvisorCounselImportance@CvMilitaryAIStrategyXMLEntry@@QBEHXZ PROC ; CvMilitaryAIStrategyXMLEntry::GetAdvisorCounselImportance, COMDAT
; _this$ = ecx

; 199  : 	return m_iAdvisorCounselImportance;

	mov	eax, DWORD PTR [ecx+332]

; 200  : }

	ret	0
?GetAdvisorCounselImportance@CvMilitaryAIStrategyXMLEntry@@QBEHXZ ENDP ; CvMilitaryAIStrategyXMLEntry::GetAdvisorCounselImportance
_TEXT	ENDS
PUBLIC	?GetMilitaryAIStrategyEntries@CvMilitaryAIStrategyXMLEntries@@QAEAAV?$vector@PAVCvMilitaryAIStrategyXMLEntry@@V?$allocator@PAVCvMilitaryAIStrategyXMLEntry@@@std@@@std@@XZ ; CvMilitaryAIStrategyXMLEntries::GetMilitaryAIStrategyEntries
; Function compile flags: /Ogtpy
;	COMDAT ?GetMilitaryAIStrategyEntries@CvMilitaryAIStrategyXMLEntries@@QAEAAV?$vector@PAVCvMilitaryAIStrategyXMLEntry@@V?$allocator@PAVCvMilitaryAIStrategyXMLEntry@@@std@@@std@@XZ
_TEXT	SEGMENT
?GetMilitaryAIStrategyEntries@CvMilitaryAIStrategyXMLEntries@@QAEAAV?$vector@PAVCvMilitaryAIStrategyXMLEntry@@V?$allocator@PAVCvMilitaryAIStrategyXMLEntry@@@std@@@std@@XZ PROC ; CvMilitaryAIStrategyXMLEntries::GetMilitaryAIStrategyEntries, COMDAT
; _this$ = ecx

; 219  : {

	mov	eax, ecx

; 220  : 	return m_paAIStrategyEntries;
; 221  : }

	ret	0
?GetMilitaryAIStrategyEntries@CvMilitaryAIStrategyXMLEntries@@QAEAAV?$vector@PAVCvMilitaryAIStrategyXMLEntry@@V?$allocator@PAVCvMilitaryAIStrategyXMLEntry@@@std@@@std@@XZ ENDP ; CvMilitaryAIStrategyXMLEntries::GetMilitaryAIStrategyEntries
_TEXT	ENDS
PUBLIC	??0CvMilitaryAI@@QAE@XZ				; CvMilitaryAI::CvMilitaryAI
; Function compile flags: /Ogtpy
;	COMDAT ??0CvMilitaryAI@@QAE@XZ
_TEXT	SEGMENT
??0CvMilitaryAI@@QAE@XZ PROC				; CvMilitaryAI::CvMilitaryAI, COMDAT
; _this$ = ecx

; 263  : {

	mov	eax, ecx
	xor	ecx, ecx
	mov	DWORD PTR [eax+12], ecx
	mov	DWORD PTR [eax+16], ecx
	mov	DWORD PTR [eax+20], ecx
	mov	DWORD PTR [eax+24], ecx
	mov	DWORD PTR [eax+28], ecx
	mov	DWORD PTR [eax+32], ecx
	mov	DWORD PTR [eax+36], ecx
	mov	DWORD PTR [eax+40], 1
	mov	DWORD PTR [eax+44], -1
	mov	DWORD PTR [eax+48], ecx

; 264  : }

	ret	0
??0CvMilitaryAI@@QAE@XZ ENDP				; CvMilitaryAI::CvMilitaryAI
_TEXT	ENDS
PUBLIC	??_7bad_alloc@std@@6B@				; std::bad_alloc::`vftable'
PUBLIC	??0bad_alloc@std@@QAE@PBD@Z			; std::bad_alloc::bad_alloc
PUBLIC	??_R4bad_alloc@std@@6B@				; std::bad_alloc::`RTTI Complete Object Locator'
PUBLIC	??_R0?AVbad_alloc@std@@@8			; std::bad_alloc `RTTI Type Descriptor'
PUBLIC	??_R3bad_alloc@std@@8				; std::bad_alloc::`RTTI Class Hierarchy Descriptor'
PUBLIC	??_R2bad_alloc@std@@8				; std::bad_alloc::`RTTI Base Class Array'
PUBLIC	??_R1A@?0A@EA@bad_alloc@std@@8			; std::bad_alloc::`RTTI Base Class Descriptor at (0,-1,0,64)'
PUBLIC	??_R1A@?0A@EA@exception@std@@8			; std::exception::`RTTI Base Class Descriptor at (0,-1,0,64)'
PUBLIC	??_R0?AVexception@std@@@8			; std::exception `RTTI Type Descriptor'
PUBLIC	??_R3exception@std@@8				; std::exception::`RTTI Class Hierarchy Descriptor'
PUBLIC	??_R2exception@std@@8				; std::exception::`RTTI Base Class Array'
EXTRN	__imp_??0exception@std@@QAE@ABQBD@Z:PROC
EXTRN	??_7type_info@@6B@:QWORD			; type_info::`vftable'
EXTRN	??_Ebad_alloc@std@@UAEPAXI@Z:PROC		; std::bad_alloc::`vector deleting destructor'
EXTRN	?what@exception@std@@UBEPBDXZ:PROC		; std::exception::what
;	COMDAT ??_R2exception@std@@8
; File c:\program files (x86)\microsoft visual studio 9.0\vc\include\exception
rdata$r	SEGMENT
??_R2exception@std@@8 DD FLAT:??_R1A@?0A@EA@exception@std@@8 ; std::exception::`RTTI Base Class Array'
rdata$r	ENDS
;	COMDAT ??_R3exception@std@@8
rdata$r	SEGMENT
??_R3exception@std@@8 DD 00H				; std::exception::`RTTI Class Hierarchy Descriptor'
	DD	00H
	DD	01H
	DD	FLAT:??_R2exception@std@@8
rdata$r	ENDS
;	COMDAT ??_R0?AVexception@std@@@8
_DATA	SEGMENT
??_R0?AVexception@std@@@8 DD FLAT:??_7type_info@@6B@	; std::exception `RTTI Type Descriptor'
	DD	00H
	DB	'.?AVexception@std@@', 00H
_DATA	ENDS
;	COMDAT ??_R1A@?0A@EA@exception@std@@8
rdata$r	SEGMENT
??_R1A@?0A@EA@exception@std@@8 DD FLAT:??_R0?AVexception@std@@@8 ; std::exception::`RTTI Base Class Descriptor at (0,-1,0,64)'
	DD	00H
	DD	00H
	DD	0ffffffffH
	DD	00H
	DD	040H
	DD	FLAT:??_R3exception@std@@8
rdata$r	ENDS
;	COMDAT ??_R1A@?0A@EA@bad_alloc@std@@8
rdata$r	SEGMENT
??_R1A@?0A@EA@bad_alloc@std@@8 DD FLAT:??_R0?AVbad_alloc@std@@@8 ; std::bad_alloc::`RTTI Base Class Descriptor at (0,-1,0,64)'
	DD	01H
	DD	00H
	DD	0ffffffffH
	DD	00H
	DD	040H
	DD	FLAT:??_R3bad_alloc@std@@8
rdata$r	ENDS
;	COMDAT ??_R2bad_alloc@std@@8
rdata$r	SEGMENT
??_R2bad_alloc@std@@8 DD FLAT:??_R1A@?0A@EA@bad_alloc@std@@8 ; std::bad_alloc::`RTTI Base Class Array'
	DD	FLAT:??_R1A@?0A@EA@exception@std@@8
rdata$r	ENDS
;	COMDAT ??_R3bad_alloc@std@@8
rdata$r	SEGMENT
??_R3bad_alloc@std@@8 DD 00H				; std::bad_alloc::`RTTI Class Hierarchy Descriptor'
	DD	00H
	DD	02H
	DD	FLAT:??_R2bad_alloc@std@@8
rdata$r	ENDS
;	COMDAT ??_R0?AVbad_alloc@std@@@8
_DATA	SEGMENT
??_R0?AVbad_alloc@std@@@8 DD FLAT:??_7type_info@@6B@	; std::bad_alloc `RTTI Type Descriptor'
	DD	00H
	DB	'.?AVbad_alloc@std@@', 00H
_DATA	ENDS
;	COMDAT ??_R4bad_alloc@std@@6B@
rdata$r	SEGMENT
??_R4bad_alloc@std@@6B@ DD 00H				; std::bad_alloc::`RTTI Complete Object Locator'
	DD	00H
	DD	00H
	DD	FLAT:??_R0?AVbad_alloc@std@@@8
	DD	FLAT:??_R3bad_alloc@std@@8
rdata$r	ENDS
;	COMDAT ??_7bad_alloc@std@@6B@
CONST	SEGMENT
??_7bad_alloc@std@@6B@ DD FLAT:??_R4bad_alloc@std@@6B@	; std::bad_alloc::`vftable'
	DD	FLAT:??_Ebad_alloc@std@@UAEPAXI@Z
	DD	FLAT:?what@exception@std@@UBEPBDXZ
; Function compile flags: /Ogtpy
CONST	ENDS
;	COMDAT ??0bad_alloc@std@@QAE@PBD@Z
_TEXT	SEGMENT
__Message$ = 8						; size = 4
??0bad_alloc@std@@QAE@PBD@Z PROC			; std::bad_alloc::bad_alloc, COMDAT
; _this$ = ecx

; 371  : 		{	// construct from message string

	push	esi
	lea	eax, DWORD PTR __Message$[esp]
	push	eax
	mov	esi, ecx
	call	DWORD PTR __imp_??0exception@std@@QAE@ABQBD@Z
	mov	DWORD PTR [esi], OFFSET ??_7bad_alloc@std@@6B@

; 372  : 		}

	mov	eax, esi
	pop	esi
	ret	4
??0bad_alloc@std@@QAE@PBD@Z ENDP			; std::bad_alloc::bad_alloc
_TEXT	ENDS
PUBLIC	??1bad_alloc@std@@UAE@XZ			; std::bad_alloc::~bad_alloc
EXTRN	__imp_??1exception@std@@UAE@XZ:PROC
; Function compile flags: /Ogtpy
;	COMDAT ??1bad_alloc@std@@UAE@XZ
_TEXT	SEGMENT
??1bad_alloc@std@@UAE@XZ PROC				; std::bad_alloc::~bad_alloc, COMDAT
; _this$ = ecx

; 380  : 		{	// destroy the object

	mov	DWORD PTR [ecx], OFFSET ??_7bad_alloc@std@@6B@

; 381  : 		}

	jmp	DWORD PTR __imp_??1exception@std@@UAE@XZ
??1bad_alloc@std@@UAE@XZ ENDP				; std::bad_alloc::~bad_alloc
_TEXT	ENDS
EXTRN	??3@YAXPAX@Z:PROC				; operator delete
; Function compile flags: /Ogtpy
;	COMDAT ??_Gbad_alloc@std@@UAEPAXI@Z
_TEXT	SEGMENT
___flags$ = 8						; size = 4
??_Gbad_alloc@std@@UAEPAXI@Z PROC			; std::bad_alloc::`scalar deleting destructor', COMDAT
; _this$ = ecx
	push	esi
	mov	esi, ecx
	mov	DWORD PTR [esi], OFFSET ??_7bad_alloc@std@@6B@
	call	DWORD PTR __imp_??1exception@std@@UAE@XZ
	test	BYTE PTR ___flags$[esp], 1
	je	SHORT $LN6@scalar
	push	esi
	call	??3@YAXPAX@Z				; operator delete
	add	esp, 4
$LN6@scalar:
	mov	eax, esi
	pop	esi
	ret	4
??_Gbad_alloc@std@@UAEPAXI@Z ENDP			; std::bad_alloc::`scalar deleting destructor'
_TEXT	ENDS
PUBLIC	??2@YAPAXIPAX@Z					; operator new
; Function compile flags: /Ogtpy
; File c:\program files (x86)\microsoft visual studio 9.0\vc\include\new
;	COMDAT ??2@YAPAXIPAX@Z
_TEXT	SEGMENT
___formal$ = 8						; size = 4
__Where$ = 12						; size = 4
??2@YAPAXIPAX@Z PROC					; operator new, COMDAT

; 59   : 	return (_Where);

	mov	eax, DWORD PTR __Where$[esp-4]

; 60   : 	}

	ret	0
??2@YAPAXIPAX@Z ENDP					; operator new
_TEXT	ENDS
PUBLIC	??3@YAXPAX0@Z					; operator delete
; Function compile flags: /Ogtpy
;	COMDAT ??3@YAXPAX0@Z
_TEXT	SEGMENT
___formal$ = 8						; size = 4
___formal$ = 12						; size = 4
??3@YAXPAX0@Z PROC					; operator delete, COMDAT

; 64   : 	}

	ret	0
??3@YAXPAX0@Z ENDP					; operator delete
_TEXT	ENDS
PUBLIC	?GetPlayer@CvMilitaryAI@@QAEPAVCvPlayer@@XZ	; CvMilitaryAI::GetPlayer
; Function compile flags: /Ogtpy
; File c:\users\enormousapplepie\documents\github\lekmod\lekmod_dll\cvgamecoredll_expansion2\cvmilitaryai.cpp
;	COMDAT ?GetPlayer@CvMilitaryAI@@QAEPAVCvPlayer@@XZ
_TEXT	SEGMENT
?GetPlayer@CvMilitaryAI@@QAEPAVCvPlayer@@XZ PROC	; CvMilitaryAI::GetPlayer, COMDAT
; _this$ = ecx

; 420  : 	return m_pPlayer;

	mov	eax, DWORD PTR [ecx]

; 421  : }

	ret	0
?GetPlayer@CvMilitaryAI@@QAEPAVCvPlayer@@XZ ENDP	; CvMilitaryAI::GetPlayer
_TEXT	ENDS
PUBLIC	?GetMilitaryAIStrategies@CvMilitaryAI@@QAEPAVCvMilitaryAIStrategyXMLEntries@@XZ ; CvMilitaryAI::GetMilitaryAIStrategies
; Function compile flags: /Ogtpy
;	COMDAT ?GetMilitaryAIStrategies@CvMilitaryAI@@QAEPAVCvMilitaryAIStrategyXMLEntries@@XZ
_TEXT	SEGMENT
?GetMilitaryAIStrategies@CvMilitaryAI@@QAEPAVCvMilitaryAIStrategyXMLEntries@@XZ PROC ; CvMilitaryAI::GetMilitaryAIStrategies, COMDAT
; _this$ = ecx

; 426  : 	return m_pAIStrategies;

	mov	eax, DWORD PTR [ecx+8]

; 427  : }

	ret	0
?GetMilitaryAIStrategies@CvMilitaryAI@@QAEPAVCvMilitaryAIStrategyXMLEntries@@XZ ENDP ; CvMilitaryAI::GetMilitaryAIStrategies
_TEXT	ENDS
PUBLIC	?IsUsingStrategy@CvMilitaryAI@@QAE_NW4MilitaryAIStrategyTypes@@@Z ; CvMilitaryAI::IsUsingStrategy
; Function compile flags: /Ogtpy
;	COMDAT ?IsUsingStrategy@CvMilitaryAI@@QAE_NW4MilitaryAIStrategyTypes@@@Z
_TEXT	SEGMENT
_eStrategy$ = 8						; size = 4
?IsUsingStrategy@CvMilitaryAI@@QAE_NW4MilitaryAIStrategyTypes@@@Z PROC ; CvMilitaryAI::IsUsingStrategy, COMDAT
; _this$ = ecx

; 432  : 	return m_pabUsingStrategy[(int) eStrategy];

	mov	eax, DWORD PTR [ecx+12]
	mov	ecx, DWORD PTR _eStrategy$[esp-4]
	mov	al, BYTE PTR [ecx+eax]

; 433  : }

	ret	4
?IsUsingStrategy@CvMilitaryAI@@QAE_NW4MilitaryAIStrategyTypes@@@Z ENDP ; CvMilitaryAI::IsUsingStrategy
_TEXT	ENDS
PUBLIC	?GetTurnStrategyAdopted@CvMilitaryAI@@QAEHW4MilitaryAIStrategyTypes@@@Z ; CvMilitaryAI::GetTurnStrategyAdopted
; Function compile flags: /Ogtpy
;	COMDAT ?GetTurnStrategyAdopted@CvMilitaryAI@@QAEHW4MilitaryAIStrategyTypes@@@Z
_TEXT	SEGMENT
_eStrategy$ = 8						; size = 4
?GetTurnStrategyAdopted@CvMilitaryAI@@QAEHW4MilitaryAIStrategyTypes@@@Z PROC ; CvMilitaryAI::GetTurnStrategyAdopted, COMDAT
; _this$ = ecx

; 458  : 	return m_paiTurnStrategyAdopted[(int) eStrategy];

	mov	eax, DWORD PTR [ecx+16]
	mov	ecx, DWORD PTR _eStrategy$[esp-4]
	mov	eax, DWORD PTR [eax+ecx*4]

; 459  : }

	ret	4
?GetTurnStrategyAdopted@CvMilitaryAI@@QAEHW4MilitaryAIStrategyTypes@@@Z ENDP ; CvMilitaryAI::GetTurnStrategyAdopted
_TEXT	ENDS
PUBLIC	?SetTurnStrategyAdopted@CvMilitaryAI@@QAEXW4MilitaryAIStrategyTypes@@H@Z ; CvMilitaryAI::SetTurnStrategyAdopted
; Function compile flags: /Ogtpy
;	COMDAT ?SetTurnStrategyAdopted@CvMilitaryAI@@QAEXW4MilitaryAIStrategyTypes@@H@Z
_TEXT	SEGMENT
_eStrategy$ = 8						; size = 4
_iValue$ = 12						; size = 4
?SetTurnStrategyAdopted@CvMilitaryAI@@QAEXW4MilitaryAIStrategyTypes@@H@Z PROC ; CvMilitaryAI::SetTurnStrategyAdopted, COMDAT
; _this$ = ecx

; 464  : 	if(m_paiTurnStrategyAdopted[(int) eStrategy] != iValue)

	mov	eax, DWORD PTR [ecx+16]
	mov	ecx, DWORD PTR _eStrategy$[esp-4]
	lea	eax, DWORD PTR [eax+ecx*4]
	mov	ecx, DWORD PTR _iValue$[esp-4]
	cmp	DWORD PTR [eax], ecx
	je	SHORT $LN1@SetTurnStr

; 465  : 	{
; 466  : 		m_paiTurnStrategyAdopted[(int) eStrategy] = iValue;

	mov	DWORD PTR [eax], ecx
$LN1@SetTurnStr:

; 467  : 	}
; 468  : }

	ret	8
?SetTurnStrategyAdopted@CvMilitaryAI@@QAEXW4MilitaryAIStrategyTypes@@H@Z ENDP ; CvMilitaryAI::SetTurnStrategyAdopted
_TEXT	ENDS
PUBLIC	??_7logic_error@std@@6B@			; std::logic_error::`vftable'
PUBLIC	??0logic_error@std@@QAE@ABV?$basic_string@DU?$char_traits@D@std@@V?$allocator@D@2@@1@@Z ; std::logic_error::logic_error
PUBLIC	??_R4logic_error@std@@6B@			; std::logic_error::`RTTI Complete Object Locator'
PUBLIC	??_R0?AVlogic_error@std@@@8			; std::logic_error `RTTI Type Descriptor'
PUBLIC	??_R3logic_error@std@@8				; std::logic_error::`RTTI Class Hierarchy Descriptor'
PUBLIC	??_R2logic_error@std@@8				; std::logic_error::`RTTI Base Class Array'
PUBLIC	??_R1A@?0A@EA@logic_error@std@@8		; std::logic_error::`RTTI Base Class Descriptor at (0,-1,0,64)'
PUBLIC	?what@logic_error@std@@UBEPBDXZ			; std::logic_error::what
EXTRN	__imp_??0?$basic_string@DU?$char_traits@D@std@@V?$allocator@D@2@@std@@QAE@ABV01@@Z:PROC
EXTRN	__imp_??0exception@std@@QAE@XZ:PROC
EXTRN	___CxxFrameHandler3:PROC
EXTRN	??_Elogic_error@std@@UAEPAXI@Z:PROC		; std::logic_error::`vector deleting destructor'
;	COMDAT ??_R1A@?0A@EA@logic_error@std@@8
; File c:\program files (x86)\microsoft visual studio 9.0\vc\include\stdexcept
rdata$r	SEGMENT
??_R1A@?0A@EA@logic_error@std@@8 DD FLAT:??_R0?AVlogic_error@std@@@8 ; std::logic_error::`RTTI Base Class Descriptor at (0,-1,0,64)'
	DD	01H
	DD	00H
	DD	0ffffffffH
	DD	00H
	DD	040H
	DD	FLAT:??_R3logic_error@std@@8
rdata$r	ENDS
;	COMDAT ??_R2logic_error@std@@8
rdata$r	SEGMENT
??_R2logic_error@std@@8 DD FLAT:??_R1A@?0A@EA@logic_error@std@@8 ; std::logic_error::`RTTI Base Class Array'
	DD	FLAT:??_R1A@?0A@EA@exception@std@@8
rdata$r	ENDS
;	COMDAT ??_R3logic_error@std@@8
rdata$r	SEGMENT
??_R3logic_error@std@@8 DD 00H				; std::logic_error::`RTTI Class Hierarchy Descriptor'
	DD	00H
	DD	02H
	DD	FLAT:??_R2logic_error@std@@8
rdata$r	ENDS
;	COMDAT ??_R0?AVlogic_error@std@@@8
_DATA	SEGMENT
??_R0?AVlogic_error@std@@@8 DD FLAT:??_7type_info@@6B@	; std::logic_error `RTTI Type Descriptor'
	DD	00H
	DB	'.?AVlogic_error@std@@', 00H
_DATA	ENDS
;	COMDAT ??_R4logic_error@std@@6B@
rdata$r	SEGMENT
??_R4logic_error@std@@6B@ DD 00H			; std::logic_error::`RTTI Complete Object Locator'
	DD	00H
	DD	00H
	DD	FLAT:??_R0?AVlogic_error@std@@@8
	DD	FLAT:??_R3logic_error@std@@8
rdata$r	ENDS
;	COMDAT ??_7logic_error@std@@6B@
CONST	SEGMENT
??_7logic_error@std@@6B@ DD FLAT:??_R4logic_error@std@@6B@ ; std::logic_error::`vftable'
	DD	FLAT:??_Elogic_error@std@@UAEPAXI@Z
	DD	FLAT:?what@logic_error@std@@UBEPBDXZ
CONST	ENDS
;	COMDAT xdata$x
xdata$x	SEGMENT
__unwindtable$??0logic_error@std@@QAE@ABV?$basic_string@DU?$char_traits@D@std@@V?$allocator@D@2@@1@@Z DD 0ffffffffH
	DD	FLAT:__unwindfunclet$??0logic_error@std@@QAE@ABV?$basic_string@DU?$char_traits@D@std@@V?$allocator@D@2@@1@@Z$0
__ehfuncinfo$??0logic_error@std@@QAE@ABV?$basic_string@DU?$char_traits@D@std@@V?$allocator@D@2@@1@@Z DD 019930522H
	DD	01H
	DD	FLAT:__unwindtable$??0logic_error@std@@QAE@ABV?$basic_string@DU?$char_traits@D@std@@V?$allocator@D@2@@1@@Z
	DD	2 DUP(00H)
	DD	2 DUP(00H)
	DD	00H
	DD	01H
; Function compile flags: /Ogtpy
xdata$x	ENDS
;	COMDAT ??0logic_error@std@@QAE@ABV?$basic_string@DU?$char_traits@D@std@@V?$allocator@D@2@@1@@Z
_TEXT	SEGMENT
_this$ = -16						; size = 4
__$EHRec$ = -12						; size = 12
__Message$ = 8						; size = 4
??0logic_error@std@@QAE@ABV?$basic_string@DU?$char_traits@D@std@@V?$allocator@D@2@@1@@Z PROC ; std::logic_error::logic_error, COMDAT
; _this$ = ecx

; 26   : 		{	// construct from message string

	push	-1
	push	__ehhandler$??0logic_error@std@@QAE@ABV?$basic_string@DU?$char_traits@D@std@@V?$allocator@D@2@@1@@Z
	mov	eax, DWORD PTR fs:0
	push	eax
	mov	DWORD PTR fs:0, esp
	push	ecx
	push	esi
	mov	esi, ecx
	mov	DWORD PTR _this$[esp+20], esi
	call	DWORD PTR __imp_??0exception@std@@QAE@XZ
	mov	eax, DWORD PTR __Message$[esp+16]
	push	eax
	lea	ecx, DWORD PTR [esi+12]
	mov	DWORD PTR __$EHRec$[esp+32], 0
	mov	DWORD PTR [esi], OFFSET ??_7logic_error@std@@6B@
	call	DWORD PTR __imp_??0?$basic_string@DU?$char_traits@D@std@@V?$allocator@D@2@@std@@QAE@ABV01@@Z

; 27   : 		}

	mov	ecx, DWORD PTR __$EHRec$[esp+20]
	mov	eax, esi
	pop	esi
	mov	DWORD PTR fs:0, ecx
	add	esp, 16					; 00000010H
	ret	4
_TEXT	ENDS
;	COMDAT text$x
text$x	SEGMENT
__unwindfunclet$??0logic_error@std@@QAE@ABV?$basic_string@DU?$char_traits@D@std@@V?$allocator@D@2@@1@@Z$0:
	mov	ecx, DWORD PTR _this$[ebp]
	jmp	DWORD PTR __imp_??1exception@std@@UAE@XZ
__ehhandler$??0logic_error@std@@QAE@ABV?$basic_string@DU?$char_traits@D@std@@V?$allocator@D@2@@1@@Z:
	mov	eax, OFFSET __ehfuncinfo$??0logic_error@std@@QAE@ABV?$basic_string@DU?$char_traits@D@std@@V?$allocator@D@2@@1@@Z
	jmp	___CxxFrameHandler3
text$x	ENDS
??0logic_error@std@@QAE@ABV?$basic_string@DU?$char_traits@D@std@@V?$allocator@D@2@@1@@Z ENDP ; std::logic_error::logic_error
PUBLIC	??1logic_error@std@@UAE@XZ			; std::logic_error::~logic_error
EXTRN	__imp_??1?$basic_string@DU?$char_traits@D@std@@V?$allocator@D@2@@std@@QAE@XZ:PROC
; Function compile flags: /Ogtpy
;	COMDAT ??1logic_error@std@@UAE@XZ
_TEXT	SEGMENT
??1logic_error@std@@UAE@XZ PROC				; std::logic_error::~logic_error, COMDAT
; _this$ = ecx

; 30   : 		{	// destroy the object

	push	esi
	mov	esi, ecx

; 31   : 		}

	lea	ecx, DWORD PTR [esi+12]
	mov	DWORD PTR [esi], OFFSET ??_7logic_error@std@@6B@
	call	DWORD PTR __imp_??1?$basic_string@DU?$char_traits@D@std@@V?$allocator@D@2@@std@@QAE@XZ
	mov	ecx, esi
	pop	esi
	jmp	DWORD PTR __imp_??1exception@std@@UAE@XZ
??1logic_error@std@@UAE@XZ ENDP				; std::logic_error::~logic_error
; Function compile flags: /Ogtpy
_TEXT	ENDS
;	COMDAT ?what@logic_error@std@@UBEPBDXZ
_TEXT	SEGMENT
?what@logic_error@std@@UBEPBDXZ PROC			; std::logic_error::what, COMDAT
; _this$ = ecx

; 35   : 		return (_Str.c_str());

	add	ecx, 12					; 0000000cH
	jmp	DWORD PTR __imp_?c_str@?$basic_string@DU?$char_traits@D@std@@V?$allocator@D@2@@std@@QBEPBDXZ
?what@logic_error@std@@UBEPBDXZ ENDP			; std::logic_error::what
; Function compile flags: /Ogtpy
_TEXT	ENDS
;	COMDAT ??_Glogic_error@std@@UAEPAXI@Z
_TEXT	SEGMENT
___flags$ = 8						; size = 4
??_Glogic_error@std@@UAEPAXI@Z PROC			; std::logic_error::`scalar deleting destructor', COMDAT
; _this$ = ecx
	push	esi
	mov	esi, ecx
	lea	ecx, DWORD PTR [esi+12]
	mov	DWORD PTR [esi], OFFSET ??_7logic_error@std@@6B@
	call	DWORD PTR __imp_??1?$basic_string@DU?$char_traits@D@std@@V?$allocator@D@2@@std@@QAE@XZ
	mov	ecx, esi
	call	DWORD PTR __imp_??1exception@std@@UAE@XZ
	test	BYTE PTR ___flags$[esp], 1
	je	SHORT $LN6@scalar@2
	push	esi
	call	??3@YAXPAX@Z				; operator delete
	add	esp, 4
$LN6@scalar@2:
	mov	eax, esi
	pop	esi
	ret	4
??_Glogic_error@std@@UAEPAXI@Z ENDP			; std::logic_error::`scalar deleting destructor'
_TEXT	ENDS
PUBLIC	??_7length_error@std@@6B@			; std::length_error::`vftable'
PUBLIC	??0length_error@std@@QAE@ABV?$basic_string@DU?$char_traits@D@std@@V?$allocator@D@2@@1@@Z ; std::length_error::length_error
PUBLIC	??_R4length_error@std@@6B@			; std::length_error::`RTTI Complete Object Locator'
PUBLIC	??_R0?AVlength_error@std@@@8			; std::length_error `RTTI Type Descriptor'
PUBLIC	??_R3length_error@std@@8			; std::length_error::`RTTI Class Hierarchy Descriptor'
PUBLIC	??_R2length_error@std@@8			; std::length_error::`RTTI Base Class Array'
PUBLIC	??_R1A@?0A@EA@length_error@std@@8		; std::length_error::`RTTI Base Class Descriptor at (0,-1,0,64)'
EXTRN	??_Elength_error@std@@UAEPAXI@Z:PROC		; std::length_error::`vector deleting destructor'
;	COMDAT ??_R1A@?0A@EA@length_error@std@@8
rdata$r	SEGMENT
??_R1A@?0A@EA@length_error@std@@8 DD FLAT:??_R0?AVlength_error@std@@@8 ; std::length_error::`RTTI Base Class Descriptor at (0,-1,0,64)'
	DD	02H
	DD	00H
	DD	0ffffffffH
	DD	00H
	DD	040H
	DD	FLAT:??_R3length_error@std@@8
rdata$r	ENDS
;	COMDAT ??_R2length_error@std@@8
rdata$r	SEGMENT
??_R2length_error@std@@8 DD FLAT:??_R1A@?0A@EA@length_error@std@@8 ; std::length_error::`RTTI Base Class Array'
	DD	FLAT:??_R1A@?0A@EA@logic_error@std@@8
	DD	FLAT:??_R1A@?0A@EA@exception@std@@8
rdata$r	ENDS
;	COMDAT ??_R3length_error@std@@8
rdata$r	SEGMENT
??_R3length_error@std@@8 DD 00H				; std::length_error::`RTTI Class Hierarchy Descriptor'
	DD	00H
	DD	03H
	DD	FLAT:??_R2length_error@std@@8
rdata$r	ENDS
;	COMDAT ??_R0?AVlength_error@std@@@8
_DATA	SEGMENT
??_R0?AVlength_error@std@@@8 DD FLAT:??_7type_info@@6B@	; std::length_error `RTTI Type Descriptor'
	DD	00H
	DB	'.?AVlength_error@std@@', 00H
_DATA	ENDS
;	COMDAT ??_R4length_error@std@@6B@
rdata$r	SEGMENT
??_R4length_error@std@@6B@ DD 00H			; std::length_error::`RTTI Complete Object Locator'
	DD	00H
	DD	00H
	DD	FLAT:??_R0?AVlength_error@std@@@8
	DD	FLAT:??_R3length_error@std@@8
rdata$r	ENDS
;	COMDAT ??_7length_error@std@@6B@
CONST	SEGMENT
??_7length_error@std@@6B@ DD FLAT:??_R4length_error@std@@6B@ ; std::length_error::`vftable'
	DD	FLAT:??_Elength_error@std@@UAEPAXI@Z
	DD	FLAT:?what@logic_error@std@@UBEPBDXZ
; Function compile flags: /Ogtpy
CONST	ENDS
;	COMDAT ??0length_error@std@@QAE@ABV?$basic_string@DU?$char_traits@D@std@@V?$allocator@D@2@@1@@Z
_TEXT	SEGMENT
__Message$ = 8						; size = 4
??0length_error@std@@QAE@ABV?$basic_string@DU?$char_traits@D@std@@V?$allocator@D@2@@1@@Z PROC ; std::length_error::length_error, COMDAT
; _this$ = ecx

; 105  : 		{	// construct from message string

	mov	eax, DWORD PTR __Message$[esp-4]
	push	esi
	push	eax
	mov	esi, ecx
	call	??0logic_error@std@@QAE@ABV?$basic_string@DU?$char_traits@D@std@@V?$allocator@D@2@@1@@Z ; std::logic_error::logic_error
	mov	DWORD PTR [esi], OFFSET ??_7length_error@std@@6B@

; 106  : 		}

	mov	eax, esi
	pop	esi
	ret	4
??0length_error@std@@QAE@ABV?$basic_string@DU?$char_traits@D@std@@V?$allocator@D@2@@1@@Z ENDP ; std::length_error::length_error
_TEXT	ENDS
PUBLIC	??1length_error@std@@UAE@XZ			; std::length_error::~length_error
; Function compile flags: /Ogtpy
;	COMDAT ??1length_error@std@@UAE@XZ
_TEXT	SEGMENT
??1length_error@std@@UAE@XZ PROC			; std::length_error::~length_error, COMDAT
; _this$ = ecx

; 109  : 		{	// destroy the object

	push	esi
	mov	esi, ecx

; 110  : 		}

	lea	ecx, DWORD PTR [esi+12]
	mov	DWORD PTR [esi], OFFSET ??_7logic_error@std@@6B@
	call	DWORD PTR __imp_??1?$basic_string@DU?$char_traits@D@std@@V?$allocator@D@2@@std@@QAE@XZ
	mov	ecx, esi
	pop	esi
	jmp	DWORD PTR __imp_??1exception@std@@UAE@XZ
??1length_error@std@@UAE@XZ ENDP			; std::length_error::~length_error
; Function compile flags: /Ogtpy
_TEXT	ENDS
;	COMDAT ??_Glength_error@std@@UAEPAXI@Z
_TEXT	SEGMENT
___flags$ = 8						; size = 4
??_Glength_error@std@@UAEPAXI@Z PROC			; std::length_error::`scalar deleting destructor', COMDAT
; _this$ = ecx
	push	esi
	mov	esi, ecx
	lea	ecx, DWORD PTR [esi+12]
	mov	DWORD PTR [esi], OFFSET ??_7logic_error@std@@6B@
	call	DWORD PTR __imp_??1?$basic_string@DU?$char_traits@D@std@@V?$allocator@D@2@@std@@QAE@XZ
	mov	ecx, esi
	call	DWORD PTR __imp_??1exception@std@@UAE@XZ
	test	BYTE PTR ___flags$[esp], 1
	je	SHORT $LN8@scalar@3
	push	esi
	call	??3@YAXPAX@Z				; operator delete
	add	esp, 4
$LN8@scalar@3:
	mov	eax, esi
	pop	esi
	ret	4
??_Glength_error@std@@UAEPAXI@Z ENDP			; std::length_error::`scalar deleting destructor'
_TEXT	ENDS
PUBLIC	?GetSneakAttackOperation@CvMilitaryAI@@QAEPAVCvAIOperation@@W4PlayerTypes@@@Z ; CvMilitaryAI::GetSneakAttackOperation
EXTRN	?getAIOperation@CvPlayer@@QAEPAVCvAIOperation@@H@Z:PROC ; CvPlayer::getAIOperation
EXTRN	?haveAIOperationOfType@CvPlayer@@QAE_NHPAHW4PlayerTypes@@PAVCvPlot@@@Z:PROC ; CvPlayer::haveAIOperationOfType
; Function compile flags: /Ogtpy
; File c:\users\enormousapplepie\documents\github\lekmod\lekmod_dll\cvgamecoredll_expansion2\cvmilitaryai.cpp
;	COMDAT ?GetSneakAttackOperation@CvMilitaryAI@@QAEPAVCvAIOperation@@W4PlayerTypes@@@Z
_TEXT	SEGMENT
_iOperationID$ = 8					; size = 4
_eEnemy$ = 8						; size = 4
?GetSneakAttackOperation@CvMilitaryAI@@QAEPAVCvAIOperation@@W4PlayerTypes@@@Z PROC ; CvMilitaryAI::GetSneakAttackOperation, COMDAT
; _this$ = ecx

; 752  : {

	push	esi
	push	edi

; 753  : 	int iOperationID;
; 754  : 	bool bHasOperationUnderway = m_pPlayer->haveAIOperationOfType(AI_OPERATION_SNEAK_CITY_ATTACK, &iOperationID, eEnemy);

	mov	edi, DWORD PTR _eEnemy$[esp+4]
	push	0
	push	edi
	lea	eax, DWORD PTR _iOperationID$[esp+12]
	mov	esi, ecx
	mov	ecx, DWORD PTR [esi]
	push	eax
	push	6
	call	?haveAIOperationOfType@CvPlayer@@QAE_NHPAHW4PlayerTypes@@PAVCvPlot@@@Z ; CvPlayer::haveAIOperationOfType

; 755  : 
; 756  : 	if(bHasOperationUnderway)

	test	al, al
	je	SHORT $LN3@GetSneakAt

; 757  : 	{
; 758  : 		return m_pPlayer->getAIOperation(iOperationID);

	mov	ecx, DWORD PTR _iOperationID$[esp+4]
	push	ecx
	mov	ecx, DWORD PTR [esi]
	call	?getAIOperation@CvPlayer@@QAEPAVCvAIOperation@@H@Z ; CvPlayer::getAIOperation
	pop	edi
	pop	esi

; 771  : }

	ret	4
$LN3@GetSneakAt:

; 759  : 	}
; 760  : 	else
; 761  : 	{
; 762  : 		bool bHasOperationOfType = m_pPlayer->haveAIOperationOfType(AI_OPERATION_NAVAL_SNEAK_ATTACK, &iOperationID, eEnemy);

	mov	ecx, DWORD PTR [esi]
	push	0
	push	edi
	lea	edx, DWORD PTR _iOperationID$[esp+12]
	push	edx
	push	14					; 0000000eH
	call	?haveAIOperationOfType@CvPlayer@@QAE_NHPAHW4PlayerTypes@@PAVCvPlot@@@Z ; CvPlayer::haveAIOperationOfType

; 763  : 
; 764  : 		if(bHasOperationOfType)

	test	al, al
	je	SHORT $LN1@GetSneakAt

; 765  : 		{
; 766  : 			return m_pPlayer->getAIOperation(iOperationID);

	mov	eax, DWORD PTR _iOperationID$[esp+4]
	mov	ecx, DWORD PTR [esi]
	push	eax
	call	?getAIOperation@CvPlayer@@QAEPAVCvAIOperation@@H@Z ; CvPlayer::getAIOperation
	pop	edi
	pop	esi

; 771  : }

	ret	4
$LN1@GetSneakAt:
	pop	edi

; 767  : 		}
; 768  : 	}
; 769  : 
; 770  : 	return NULL;

	xor	eax, eax
	pop	esi

; 771  : }

	ret	4
?GetSneakAttackOperation@CvMilitaryAI@@QAEPAVCvAIOperation@@W4PlayerTypes@@@Z ENDP ; CvMilitaryAI::GetSneakAttackOperation
_TEXT	ENDS
PUBLIC	?GetShowOfForceOperation@CvMilitaryAI@@QAEPAVCvAIOperation@@W4PlayerTypes@@@Z ; CvMilitaryAI::GetShowOfForceOperation
; Function compile flags: /Ogtpy
;	COMDAT ?GetShowOfForceOperation@CvMilitaryAI@@QAEPAVCvAIOperation@@W4PlayerTypes@@@Z
_TEXT	SEGMENT
_iOperationID$ = 8					; size = 4
_eEnemy$ = 8						; size = 4
?GetShowOfForceOperation@CvMilitaryAI@@QAEPAVCvAIOperation@@W4PlayerTypes@@@Z PROC ; CvMilitaryAI::GetShowOfForceOperation, COMDAT
; _this$ = ecx

; 776  : 	int iOperationID;
; 777  : 	bool bHasOperationUnderway = m_pPlayer->haveAIOperationOfType(AI_OPERATION_SMALL_CITY_ATTACK, &iOperationID, eEnemy);

	mov	eax, DWORD PTR _eEnemy$[esp-4]
	push	esi
	push	0
	mov	esi, ecx
	push	eax
	lea	ecx, DWORD PTR _iOperationID$[esp+8]
	push	ecx
	mov	ecx, DWORD PTR [esi]
	push	7
	call	?haveAIOperationOfType@CvPlayer@@QAE_NHPAHW4PlayerTypes@@PAVCvPlot@@@Z ; CvPlayer::haveAIOperationOfType

; 778  : 
; 779  : 	if(bHasOperationUnderway)

	test	al, al
	je	SHORT $LN1@GetShowOfF

; 780  : 	{
; 781  : 		return m_pPlayer->getAIOperation(iOperationID);

	mov	edx, DWORD PTR _iOperationID$[esp]
	mov	ecx, DWORD PTR [esi]
	push	edx
	call	?getAIOperation@CvPlayer@@QAEPAVCvAIOperation@@H@Z ; CvPlayer::getAIOperation
	pop	esi

; 785  : }

	ret	4
$LN1@GetShowOfF:

; 782  : 	}
; 783  : 
; 784  : 	return NULL;

	xor	eax, eax
	pop	esi

; 785  : }

	ret	4
?GetShowOfForceOperation@CvMilitaryAI@@QAEPAVCvAIOperation@@W4PlayerTypes@@@Z ENDP ; CvMilitaryAI::GetShowOfForceOperation
_TEXT	ENDS
PUBLIC	?GetBasicAttackOperation@CvMilitaryAI@@QAEPAVCvAIOperation@@W4PlayerTypes@@@Z ; CvMilitaryAI::GetBasicAttackOperation
; Function compile flags: /Ogtpy
;	COMDAT ?GetBasicAttackOperation@CvMilitaryAI@@QAEPAVCvAIOperation@@W4PlayerTypes@@@Z
_TEXT	SEGMENT
_iOperationID$ = 8					; size = 4
_eEnemy$ = 8						; size = 4
?GetBasicAttackOperation@CvMilitaryAI@@QAEPAVCvAIOperation@@W4PlayerTypes@@@Z PROC ; CvMilitaryAI::GetBasicAttackOperation, COMDAT
; _this$ = ecx

; 789  : {

	push	esi
	push	edi

; 790  : 	int iOperationID;
; 791  : 	bool bHasOperationUnderway = m_pPlayer->haveAIOperationOfType(AI_OPERATION_BASIC_CITY_ATTACK, &iOperationID, eEnemy);

	mov	edi, DWORD PTR _eEnemy$[esp+4]
	push	0
	push	edi
	lea	eax, DWORD PTR _iOperationID$[esp+12]
	mov	esi, ecx
	mov	ecx, DWORD PTR [esi]
	push	eax
	push	2
	call	?haveAIOperationOfType@CvPlayer@@QAE_NHPAHW4PlayerTypes@@PAVCvPlot@@@Z ; CvPlayer::haveAIOperationOfType

; 792  : 
; 793  : 	if(bHasOperationUnderway)

	test	al, al
	je	SHORT $LN3@GetBasicAt

; 794  : 	{
; 795  : 		return m_pPlayer->getAIOperation(iOperationID);

	mov	ecx, DWORD PTR _iOperationID$[esp+4]
	push	ecx
	mov	ecx, DWORD PTR [esi]
	call	?getAIOperation@CvPlayer@@QAEPAVCvAIOperation@@H@Z ; CvPlayer::getAIOperation
	pop	edi
	pop	esi

; 808  : }

	ret	4
$LN3@GetBasicAt:

; 796  : 	}
; 797  : 	else
; 798  : 	{
; 799  : 		bool bHasOperationOfType = m_pPlayer->haveAIOperationOfType(AI_OPERATION_NAVAL_ATTACK, &iOperationID, eEnemy);

	mov	ecx, DWORD PTR [esi]
	push	0
	push	edi
	lea	edx, DWORD PTR _iOperationID$[esp+12]
	push	edx
	push	13					; 0000000dH
	call	?haveAIOperationOfType@CvPlayer@@QAE_NHPAHW4PlayerTypes@@PAVCvPlot@@@Z ; CvPlayer::haveAIOperationOfType

; 800  : 
; 801  : 		if(bHasOperationOfType)

	test	al, al
	je	SHORT $LN1@GetBasicAt

; 802  : 		{
; 803  : 			return m_pPlayer->getAIOperation(iOperationID);

	mov	eax, DWORD PTR _iOperationID$[esp+4]
	mov	ecx, DWORD PTR [esi]
	push	eax
	call	?getAIOperation@CvPlayer@@QAEPAVCvAIOperation@@H@Z ; CvPlayer::getAIOperation
	pop	edi
	pop	esi

; 808  : }

	ret	4
$LN1@GetBasicAt:
	pop	edi

; 804  : 		}
; 805  : 	}
; 806  : 
; 807  : 	return NULL;

	xor	eax, eax
	pop	esi

; 808  : }

	ret	4
?GetBasicAttackOperation@CvMilitaryAI@@QAEPAVCvAIOperation@@W4PlayerTypes@@@Z ENDP ; CvMilitaryAI::GetBasicAttackOperation
_TEXT	ENDS
PUBLIC	?GetCityStateAttackOperation@CvMilitaryAI@@QAEPAVCvAIOperation@@W4PlayerTypes@@@Z ; CvMilitaryAI::GetCityStateAttackOperation
; Function compile flags: /Ogtpy
;	COMDAT ?GetCityStateAttackOperation@CvMilitaryAI@@QAEPAVCvAIOperation@@W4PlayerTypes@@@Z
_TEXT	SEGMENT
_iOperationID$ = 8					; size = 4
_eEnemy$ = 8						; size = 4
?GetCityStateAttackOperation@CvMilitaryAI@@QAEPAVCvAIOperation@@W4PlayerTypes@@@Z PROC ; CvMilitaryAI::GetCityStateAttackOperation, COMDAT
; _this$ = ecx

; 812  : {

	push	esi
	push	edi

; 813  : 	int iOperationID;
; 814  : 	bool bHasOperationUnderway = m_pPlayer->haveAIOperationOfType(AI_OPERATION_CITY_STATE_ATTACK, &iOperationID, eEnemy);

	mov	edi, DWORD PTR _eEnemy$[esp+4]
	push	0
	push	edi
	lea	eax, DWORD PTR _iOperationID$[esp+12]
	mov	esi, ecx
	mov	ecx, DWORD PTR [esi]
	push	eax
	push	15					; 0000000fH
	call	?haveAIOperationOfType@CvPlayer@@QAE_NHPAHW4PlayerTypes@@PAVCvPlot@@@Z ; CvPlayer::haveAIOperationOfType

; 815  : 
; 816  : 	if(bHasOperationUnderway)

	test	al, al
	je	SHORT $LN3@GetCitySta

; 817  : 	{
; 818  : 		return m_pPlayer->getAIOperation(iOperationID);

	mov	ecx, DWORD PTR _iOperationID$[esp+4]
	push	ecx
	mov	ecx, DWORD PTR [esi]
	call	?getAIOperation@CvPlayer@@QAEPAVCvAIOperation@@H@Z ; CvPlayer::getAIOperation
	pop	edi
	pop	esi

; 831  : }

	ret	4
$LN3@GetCitySta:

; 819  : 	}
; 820  : 	else
; 821  : 	{
; 822  : 		bool bHasOperationOfType = m_pPlayer->haveAIOperationOfType(AI_OPERATION_CITY_STATE_NAVAL_ATTACK, &iOperationID, eEnemy);

	mov	ecx, DWORD PTR [esi]
	push	0
	push	edi
	lea	edx, DWORD PTR _iOperationID$[esp+12]
	push	edx
	push	16					; 00000010H
	call	?haveAIOperationOfType@CvPlayer@@QAE_NHPAHW4PlayerTypes@@PAVCvPlot@@@Z ; CvPlayer::haveAIOperationOfType

; 823  : 
; 824  : 		if(bHasOperationOfType)

	test	al, al
	je	SHORT $LN1@GetCitySta

; 825  : 		{
; 826  : 			return m_pPlayer->getAIOperation(iOperationID);

	mov	eax, DWORD PTR _iOperationID$[esp+4]
	mov	ecx, DWORD PTR [esi]
	push	eax
	call	?getAIOperation@CvPlayer@@QAEPAVCvAIOperation@@H@Z ; CvPlayer::getAIOperation
	pop	edi
	pop	esi

; 831  : }

	ret	4
$LN1@GetCitySta:
	pop	edi

; 827  : 		}
; 828  : 	}
; 829  : 
; 830  : 	return NULL;

	xor	eax, eax
	pop	esi

; 831  : }

	ret	4
?GetCityStateAttackOperation@CvMilitaryAI@@QAEPAVCvAIOperation@@W4PlayerTypes@@@Z ENDP ; CvMilitaryAI::GetCityStateAttackOperation
_TEXT	ENDS
PUBLIC	?GetPureNavalAttackOperation@CvMilitaryAI@@QAEPAVCvAIOperation@@W4PlayerTypes@@@Z ; CvMilitaryAI::GetPureNavalAttackOperation
; Function compile flags: /Ogtpy
;	COMDAT ?GetPureNavalAttackOperation@CvMilitaryAI@@QAEPAVCvAIOperation@@W4PlayerTypes@@@Z
_TEXT	SEGMENT
_iOperationID$ = 8					; size = 4
_eEnemy$ = 8						; size = 4
?GetPureNavalAttackOperation@CvMilitaryAI@@QAEPAVCvAIOperation@@W4PlayerTypes@@@Z PROC ; CvMilitaryAI::GetPureNavalAttackOperation, COMDAT
; _this$ = ecx

; 836  : 	int iOperationID;
; 837  : 	bool bHasOperationUnderway = m_pPlayer->haveAIOperationOfType(AI_OPERATION_PURE_NAVAL_CITY_ATTACK, &iOperationID, eEnemy);

	mov	eax, DWORD PTR _eEnemy$[esp-4]
	push	esi
	push	0
	mov	esi, ecx
	push	eax
	lea	ecx, DWORD PTR _iOperationID$[esp+8]
	push	ecx
	mov	ecx, DWORD PTR [esi]
	push	18					; 00000012H
	call	?haveAIOperationOfType@CvPlayer@@QAE_NHPAHW4PlayerTypes@@PAVCvPlot@@@Z ; CvPlayer::haveAIOperationOfType

; 838  : 
; 839  : 	if(bHasOperationUnderway)

	test	al, al
	je	SHORT $LN1@GetPureNav

; 840  : 	{
; 841  : 		return m_pPlayer->getAIOperation(iOperationID);

	mov	edx, DWORD PTR _iOperationID$[esp]
	mov	ecx, DWORD PTR [esi]
	push	edx
	call	?getAIOperation@CvPlayer@@QAEPAVCvAIOperation@@H@Z ; CvPlayer::getAIOperation
	pop	esi

; 845  : }

	ret	4
$LN1@GetPureNav:

; 842  : 	}
; 843  : 
; 844  : 	return NULL;

	xor	eax, eax
	pop	esi

; 845  : }

	ret	4
?GetPureNavalAttackOperation@CvMilitaryAI@@QAEPAVCvAIOperation@@W4PlayerTypes@@@Z ENDP ; CvMilitaryAI::GetPureNavalAttackOperation
_TEXT	ENDS
PUBLIC	?GetPercentOfRecommendedMilitarySize@CvMilitaryAI@@QBEHXZ ; CvMilitaryAI::GetPercentOfRecommendedMilitarySize
; Function compile flags: /Ogtpy
;	COMDAT ?GetPercentOfRecommendedMilitarySize@CvMilitaryAI@@QBEHXZ
_TEXT	SEGMENT
?GetPercentOfRecommendedMilitarySize@CvMilitaryAI@@QBEHXZ PROC ; CvMilitaryAI::GetPercentOfRecommendedMilitarySize, COMDAT
; _this$ = ecx

; 1698 : {

	push	esi

; 1699 : 	if(m_iRecommendedMilitarySize <= 0)

	mov	esi, DWORD PTR [ecx+96]
	test	esi, esi
	jg	SHORT $LN2@GetPercent

; 1700 : 	{
; 1701 : 		return 100;

	mov	eax, 100				; 00000064H
	pop	esi

; 1706 : 	}
; 1707 : }

	ret	0
$LN2@GetPercent:

; 1702 : 	}
; 1703 : 	else
; 1704 : 	{
; 1705 : 		return m_iNumLandUnits * 100 / m_iRecommendedMilitarySize;

	mov	eax, DWORD PTR [ecx+52]
	imul	eax, 100				; 00000064H
	cdq
	idiv	esi
	pop	esi

; 1706 : 	}
; 1707 : }

	ret	0
?GetPercentOfRecommendedMilitarySize@CvMilitaryAI@@QBEHXZ ENDP ; CvMilitaryAI::GetPercentOfRecommendedMilitarySize
_TEXT	ENDS
PUBLIC	?MakeEmergencyPurchases@CvMilitaryAI@@AAEXXZ	; CvMilitaryAI::MakeEmergencyPurchases
EXTRN	?getNextAIOperation@CvPlayer@@QAEPAVCvAIOperation@@XZ:PROC ; CvPlayer::getNextAIOperation
EXTRN	?BuyFinalUnit@CvAIOperation@@QAE_NXZ:PROC	; CvAIOperation::BuyFinalUnit
EXTRN	?HasOneMoreSlotToFill@CvAIOperation@@QBE_NXZ:PROC ; CvAIOperation::HasOneMoreSlotToFill
EXTRN	?getFirstAIOperation@CvPlayer@@QAEPAVCvAIOperation@@XZ:PROC ; CvPlayer::getFirstAIOperation
EXTRN	?GetStateAllWars@CvDiplomacyAI@@QBE?AW4StateAllWars@@XZ:PROC ; CvDiplomacyAI::GetStateAllWars
EXTRN	?GetDiplomacyAI@CvPlayer@@QBEPAVCvDiplomacyAI@@XZ:PROC ; CvPlayer::GetDiplomacyAI
EXTRN	?getInfoTypeForString@CvGlobals@@QBEHPBD_N@Z:PROC ; CvGlobals::getInfoTypeForString
EXTRN	?gGlobals@@3VCvGlobals@@A:BYTE			; gGlobals
; Function compile flags: /Ogtpy
;	COMDAT ?MakeEmergencyPurchases@CvMilitaryAI@@AAEXXZ
_TEXT	SEGMENT
?MakeEmergencyPurchases@CvMilitaryAI@@AAEXXZ PROC	; CvMilitaryAI::MakeEmergencyPurchases, COMDAT
; _this$ = ecx

; 3279 : {

	push	edi

; 3280 : 	AI_PERF_FORMAT("Military-AI-perf.csv", ("MakeEmergencyPurchases, Turn %03d, %s", GC.getGame().getElapsedGameTurns(), m_pPlayer->getCivilizationShortDescription()) );
; 3281 : 
; 3282 : 	CvAIOperation* nextOp;
; 3283 : 
; 3284 : 	// Are we winning all the wars we are in?
; 3285 : 	MilitaryAIStrategyTypes eStrategyAtWar = (MilitaryAIStrategyTypes) GC.getInfoTypeForString("MILITARYAISTRATEGY_AT_WAR");

	push	0
	mov	edi, ecx
	push	OFFSET $SG227912
	mov	ecx, OFFSET ?gGlobals@@3VCvGlobals@@A	; gGlobals
	call	?getInfoTypeForString@CvGlobals@@QBEHPBD_N@Z ; CvGlobals::getInfoTypeForString

; 3286 : 	if(!IsUsingStrategy(eStrategyAtWar) || m_pPlayer->GetDiplomacyAI()->GetStateAllWars() == STATE_ALL_WARS_WINNING)

	mov	ecx, DWORD PTR [edi+12]
	cmp	BYTE PTR [eax+ecx], 0
	je	SHORT $LN5@MakeEmerge@2
	mov	ecx, DWORD PTR [edi]
	call	?GetDiplomacyAI@CvPlayer@@QBEPAVCvDiplomacyAI@@XZ ; CvPlayer::GetDiplomacyAI
	mov	ecx, eax
	call	?GetStateAllWars@CvDiplomacyAI@@QBE?AW4StateAllWars@@XZ ; CvDiplomacyAI::GetStateAllWars
	cmp	eax, 1
	jne	SHORT $LN12@MakeEmerge@2
$LN5@MakeEmerge@2:

; 3287 : 	{
; 3288 : 		// Is there an operation waiting for one more unit?
; 3289 : 		nextOp = m_pPlayer->getFirstAIOperation();

	mov	ecx, DWORD PTR [edi]
	push	esi
	call	?getFirstAIOperation@CvPlayer@@QAEPAVCvAIOperation@@XZ ; CvPlayer::getFirstAIOperation
	mov	esi, eax

; 3290 : 		while(nextOp != NULL)

	test	esi, esi
	je	SHORT $LN14@MakeEmerge@2
	npad	2
$LL4@MakeEmerge@2:

; 3291 : 		{
; 3292 : 			if(nextOp->HasOneMoreSlotToFill())

	mov	ecx, esi
	call	?HasOneMoreSlotToFill@CvAIOperation@@QBE_NXZ ; CvAIOperation::HasOneMoreSlotToFill
	test	al, al
	je	SHORT $LN1@MakeEmerge@2

; 3293 : 			{
; 3294 : 				// Can we buy a unit to fill that slot?
; 3295 : 				if(nextOp->BuyFinalUnit())

	mov	ecx, esi
	call	?BuyFinalUnit@CvAIOperation@@QAE_NXZ	; CvAIOperation::BuyFinalUnit
	test	al, al
	jne	SHORT $LN14@MakeEmerge@2
$LN1@MakeEmerge@2:

; 3296 : 				{
; 3297 : 					break;
; 3298 : 				}
; 3299 : 			}
; 3300 : 			nextOp = m_pPlayer->getNextAIOperation();

	mov	ecx, DWORD PTR [edi]
	call	?getNextAIOperation@CvPlayer@@QAEPAVCvAIOperation@@XZ ; CvPlayer::getNextAIOperation
	mov	esi, eax
	test	esi, esi
	jne	SHORT $LL4@MakeEmerge@2
$LN14@MakeEmerge@2:
	pop	esi
$LN12@MakeEmerge@2:
	pop	edi

; 3301 : 		}
; 3302 : 	}
; 3303 : }

	ret	0
?MakeEmergencyPurchases@CvMilitaryAI@@AAEXXZ ENDP	; CvMilitaryAI::MakeEmergencyPurchases
_TEXT	ENDS
PUBLIC	?RequestImprovements@CvMilitaryAI@@AAEXXZ	; CvMilitaryAI::RequestImprovements
; Function compile flags: /Ogtpy
;	COMDAT ?RequestImprovements@CvMilitaryAI@@AAEXXZ
_TEXT	SEGMENT
?RequestImprovements@CvMilitaryAI@@AAEXXZ PROC		; CvMilitaryAI::RequestImprovements, COMDAT
; _this$ = ecx

; 3393 : 
; 3394 : }

	ret	0
?RequestImprovements@CvMilitaryAI@@AAEXXZ ENDP		; CvMilitaryAI::RequestImprovements
_TEXT	ENDS
PUBLIC	?GetPowerOfStrongestBuildableUnit@CvMilitaryAI@@QAEHW4DomainTypes@@@Z ; CvMilitaryAI::GetPowerOfStrongestBuildableUnit
EXTRN	?canTrain@CvPlayer@@QBE_NW4UnitTypes@@_N111PAVCvString@@@Z:PROC ; CvPlayer::canTrain
EXTRN	?GetPower@CvUnitEntry@@QBEHXZ:PROC		; CvUnitEntry::GetPower
EXTRN	?GetDomainType@CvUnitEntry@@QBEHXZ:PROC		; CvUnitEntry::GetDomainType
EXTRN	?getUnitInfo@CvGlobals@@QAEPAVCvUnitEntry@@W4UnitTypes@@@Z:PROC ; CvGlobals::getUnitInfo
EXTRN	?getNumUnitInfos@CvGlobals@@QAEHXZ:PROC		; CvGlobals::getNumUnitInfos
; Function compile flags: /Ogtpy
;	COMDAT ?GetPowerOfStrongestBuildableUnit@CvMilitaryAI@@QAEHW4DomainTypes@@@Z
_TEXT	SEGMENT
_eDomain$ = 8						; size = 4
?GetPowerOfStrongestBuildableUnit@CvMilitaryAI@@QAEHW4DomainTypes@@@Z PROC ; CvMilitaryAI::GetPowerOfStrongestBuildableUnit, COMDAT
; _this$ = ecx

; 3915 : {

	push	ebx
	push	ebp
	mov	ebp, ecx
	push	edi

; 3916 : 	int iRtnValue = 0;
; 3917 : #ifdef AUI_WARNING_FIXES
; 3918 : 	for (uint iI = 0; iI < GC.getNumUnitInfos(); iI++)
; 3919 : #else
; 3920 : 	for(int iI = 0; iI < GC.getNumUnitInfos(); iI++)

	mov	ecx, OFFSET ?gGlobals@@3VCvGlobals@@A	; gGlobals
	xor	ebx, ebx
	xor	edi, edi
	call	?getNumUnitInfos@CvGlobals@@QAEHXZ	; CvGlobals::getNumUnitInfos
	test	eax, eax
	jle	SHORT $LN11@GetPowerOf
	push	esi
	npad	8
$LL12@GetPowerOf:

; 3921 : #endif
; 3922 : 	{
; 3923 : 		const UnitTypes eUnit = static_cast<UnitTypes>(iI);
; 3924 : 		CvUnitEntry* pkUnitEntry = GC.getUnitInfo(eUnit);

	push	edi
	mov	ecx, OFFSET ?gGlobals@@3VCvGlobals@@A	; gGlobals
	call	?getUnitInfo@CvGlobals@@QAEPAVCvUnitEntry@@W4UnitTypes@@@Z ; CvGlobals::getUnitInfo
	mov	esi, eax

; 3925 : 		if(pkUnitEntry != NULL && pkUnitEntry->GetDomainType() == eDomain)

	test	esi, esi
	je	SHORT $LN5@GetPowerOf
	mov	ecx, esi
	call	?GetDomainType@CvUnitEntry@@QBEHXZ	; CvUnitEntry::GetDomainType
	cmp	eax, DWORD PTR _eDomain$[esp+12]
	jne	SHORT $LN5@GetPowerOf

; 3926 : 		{
; 3927 : 			int iThisPower = pkUnitEntry->GetPower();		// Test the power first, it is much less costly than testing canTrain

	mov	ecx, esi
	call	?GetPower@CvUnitEntry@@QBEHXZ		; CvUnitEntry::GetPower
	mov	esi, eax

; 3928 : 			if(iThisPower > iRtnValue)

	cmp	esi, ebx
	jle	SHORT $LN5@GetPowerOf

; 3929 : 			{
; 3930 : 				if(m_pPlayer->canTrain(eUnit, false /*bContinue*/, false /*bTestVisible*/, true /*bIgnoreCost*/))

	mov	ecx, DWORD PTR [ebp]
	push	0
	push	0
	push	1
	push	0
	push	0
	push	edi
	call	?canTrain@CvPlayer@@QBE_NW4UnitTypes@@_N111PAVCvString@@@Z ; CvPlayer::canTrain
	test	al, al
	je	SHORT $LN5@GetPowerOf

; 3931 : 				{
; 3932 : 					iRtnValue = iThisPower;

	mov	ebx, esi
$LN5@GetPowerOf:

; 3916 : 	int iRtnValue = 0;
; 3917 : #ifdef AUI_WARNING_FIXES
; 3918 : 	for (uint iI = 0; iI < GC.getNumUnitInfos(); iI++)
; 3919 : #else
; 3920 : 	for(int iI = 0; iI < GC.getNumUnitInfos(); iI++)

	mov	ecx, OFFSET ?gGlobals@@3VCvGlobals@@A	; gGlobals
	inc	edi
	call	?getNumUnitInfos@CvGlobals@@QAEHXZ	; CvGlobals::getNumUnitInfos
	cmp	edi, eax
	jl	SHORT $LL12@GetPowerOf
	pop	esi
$LN11@GetPowerOf:
	pop	edi
	pop	ebp

; 3933 : 				}
; 3934 : 			}
; 3935 : 		}
; 3936 : 	}
; 3937 : 
; 3938 : 	return iRtnValue;

	mov	eax, ebx
	pop	ebx

; 3939 : }

	ret	4
?GetPowerOfStrongestBuildableUnit@CvMilitaryAI@@QAEHW4DomainTypes@@@Z ENDP ; CvMilitaryAI::GetPowerOfStrongestBuildableUnit
_TEXT	ENDS
PUBLIC	?IsTestStrategy_EnoughMilitaryUnits@MilitaryAIHelpers@@YA_NPAVCvPlayer@@@Z ; MilitaryAIHelpers::IsTestStrategy_EnoughMilitaryUnits
EXTRN	?GetMilitaryAI@CvPlayer@@QBEPAVCvMilitaryAI@@XZ:PROC ; CvPlayer::GetMilitaryAI
EXTRN	?GetActiveGrandStrategy@CvGrandStrategyAI@@QBE?AW4AIGrandStrategyTypes@@XZ:PROC ; CvGrandStrategyAI::GetActiveGrandStrategy
EXTRN	?GetGrandStrategyAI@CvPlayer@@QBEPAVCvGrandStrategyAI@@XZ:PROC ; CvPlayer::GetGrandStrategyAI
EXTRN	?IsUsingStrategy@CvEconomicAI@@QAE_NW4EconomicAIStrategyTypes@@@Z:PROC ; CvEconomicAI::IsUsingStrategy
EXTRN	?GetEconomicAI@CvPlayer@@QBEPAVCvEconomicAI@@XZ:PROC ; CvPlayer::GetEconomicAI
; Function compile flags: /Ogtpy
;	COMDAT ?IsTestStrategy_EnoughMilitaryUnits@MilitaryAIHelpers@@YA_NPAVCvPlayer@@@Z
_TEXT	SEGMENT
_pPlayer$ = 8						; size = 4
?IsTestStrategy_EnoughMilitaryUnits@MilitaryAIHelpers@@YA_NPAVCvPlayer@@@Z PROC ; MilitaryAIHelpers::IsTestStrategy_EnoughMilitaryUnits, COMDAT

; 4336 : {

	push	ebx
	push	esi
	push	edi

; 4337 : 	// Are we running at a deficit?
; 4338 : 	EconomicAIStrategyTypes eStrategyLosingMoney = (EconomicAIStrategyTypes) GC.getInfoTypeForString("ECONOMICAISTRATEGY_LOSING_MONEY");

	push	0
	push	OFFSET $SG228445
	mov	ecx, OFFSET ?gGlobals@@3VCvGlobals@@A	; gGlobals
	call	?getInfoTypeForString@CvGlobals@@QBEHPBD_N@Z ; CvGlobals::getInfoTypeForString

; 4339 : 	bool bInDeficit = pPlayer->GetEconomicAI()->IsUsingStrategy(eStrategyLosingMoney);

	mov	edi, DWORD PTR _pPlayer$[esp+8]
	push	eax
	mov	ecx, edi
	call	?GetEconomicAI@CvPlayer@@QBEPAVCvEconomicAI@@XZ ; CvPlayer::GetEconomicAI
	mov	ecx, eax
	call	?IsUsingStrategy@CvEconomicAI@@QAE_NW4EconomicAIStrategyTypes@@@Z ; CvEconomicAI::IsUsingStrategy

; 4340 : 
; 4341 : 	// Are we running anything other than the Conquest Grand Strategy?
; 4342 : 	AIGrandStrategyTypes eConquestGrandStrategy = (AIGrandStrategyTypes) GC.getInfoTypeForString("AIGRANDSTRATEGY_CONQUEST");

	push	0
	push	OFFSET $SG228449
	mov	ecx, OFFSET ?gGlobals@@3VCvGlobals@@A	; gGlobals
	mov	bl, al
	call	?getInfoTypeForString@CvGlobals@@QBEHPBD_N@Z ; CvGlobals::getInfoTypeForString
	mov	esi, eax

; 4343 : 	if(eConquestGrandStrategy != NO_AIGRANDSTRATEGY)

	cmp	esi, -1
	je	SHORT $LN2@IsTestStra

; 4344 : 	{
; 4345 : 		if(bInDeficit || pPlayer->GetGrandStrategyAI()->GetActiveGrandStrategy() != eConquestGrandStrategy || pPlayer->GetMilitaryAI()->GetPercentOfRecommendedMilitarySize() > 125)

	test	bl, bl
	jne	SHORT $LN3@IsTestStra
	mov	ecx, edi
	call	?GetGrandStrategyAI@CvPlayer@@QBEPAVCvGrandStrategyAI@@XZ ; CvPlayer::GetGrandStrategyAI
	mov	ecx, eax
	call	?GetActiveGrandStrategy@CvGrandStrategyAI@@QBE?AW4AIGrandStrategyTypes@@XZ ; CvGrandStrategyAI::GetActiveGrandStrategy
	cmp	eax, esi
	jne	SHORT $LN3@IsTestStra
	mov	ecx, edi
	call	?GetMilitaryAI@CvPlayer@@QBEPAVCvMilitaryAI@@XZ ; CvPlayer::GetMilitaryAI
	mov	ecx, DWORD PTR [eax+96]
	test	ecx, ecx
	jle	SHORT $LN2@IsTestStra
	mov	eax, DWORD PTR [eax+52]
	imul	eax, 100				; 00000064H
	cdq
	idiv	ecx
	cmp	eax, 125				; 0000007dH

; 4350 : 			}
; 4351 : 		}
; 4352 : 		else
; 4353 : 		{
; 4354 : 			return false;

	jle	SHORT $LN2@IsTestStra
$LN3@IsTestStra:

; 4346 : 		{
; 4347 : 			if(pPlayer->GetMilitaryAI()->GetLandDefenseState() == DEFENSE_STATE_ENOUGH)

	mov	ecx, edi
	call	?GetMilitaryAI@CvPlayer@@QBEPAVCvMilitaryAI@@XZ ; CvPlayer::GetMilitaryAI
	cmp	DWORD PTR [eax+112], 0
	jne	SHORT $LN2@IsTestStra
	pop	edi
	pop	esi

; 4348 : 			{
; 4349 : 				return true;

	mov	al, 1
	pop	ebx

; 4359 : }

	ret	0
$LN2@IsTestStra:
	pop	edi
	pop	esi

; 4355 : 		}
; 4356 : 	}
; 4357 : 
; 4358 : 	return false;

	xor	al, al
	pop	ebx

; 4359 : }

	ret	0
?IsTestStrategy_EnoughMilitaryUnits@MilitaryAIHelpers@@YA_NPAVCvPlayer@@@Z ENDP ; MilitaryAIHelpers::IsTestStrategy_EnoughMilitaryUnits
_TEXT	ENDS
PUBLIC	?IsTestStrategy_EmpireDefense@MilitaryAIHelpers@@YA_NPAVCvPlayer@@@Z ; MilitaryAIHelpers::IsTestStrategy_EmpireDefense
; Function compile flags: /Ogtpy
;	COMDAT ?IsTestStrategy_EmpireDefense@MilitaryAIHelpers@@YA_NPAVCvPlayer@@@Z
_TEXT	SEGMENT
_pPlayer$ = 8						; size = 4
?IsTestStrategy_EmpireDefense@MilitaryAIHelpers@@YA_NPAVCvPlayer@@@Z PROC ; MilitaryAIHelpers::IsTestStrategy_EmpireDefense, COMDAT

; 4364 : 	if(pPlayer->GetMilitaryAI()->GetLandDefenseState() == DEFENSE_STATE_NEEDED)

	mov	ecx, DWORD PTR _pPlayer$[esp-4]
	call	?GetMilitaryAI@CvPlayer@@QBEPAVCvMilitaryAI@@XZ ; CvPlayer::GetMilitaryAI
	cmp	DWORD PTR [eax+112], 2
	sete	al

; 4365 : 	{
; 4366 : 		return true;
; 4367 : 	}
; 4368 : 
; 4369 : 	return false;
; 4370 : }

	ret	0
?IsTestStrategy_EmpireDefense@MilitaryAIHelpers@@YA_NPAVCvPlayer@@@Z ENDP ; MilitaryAIHelpers::IsTestStrategy_EmpireDefense
_TEXT	ENDS
PUBLIC	?IsTestStrategy_EmpireDefenseCritical@MilitaryAIHelpers@@YA_NPAVCvPlayer@@@Z ; MilitaryAIHelpers::IsTestStrategy_EmpireDefenseCritical
; Function compile flags: /Ogtpy
;	COMDAT ?IsTestStrategy_EmpireDefenseCritical@MilitaryAIHelpers@@YA_NPAVCvPlayer@@@Z
_TEXT	SEGMENT
_pPlayer$ = 8						; size = 4
?IsTestStrategy_EmpireDefenseCritical@MilitaryAIHelpers@@YA_NPAVCvPlayer@@@Z PROC ; MilitaryAIHelpers::IsTestStrategy_EmpireDefenseCritical, COMDAT

; 4375 : 	if(pPlayer->GetMilitaryAI()->GetLandDefenseState() == DEFENSE_STATE_CRITICAL)

	mov	ecx, DWORD PTR _pPlayer$[esp-4]
	call	?GetMilitaryAI@CvPlayer@@QBEPAVCvMilitaryAI@@XZ ; CvPlayer::GetMilitaryAI
	cmp	DWORD PTR [eax+112], 3
	sete	al

; 4376 : 	{
; 4377 : 		return true;
; 4378 : 	}
; 4379 : 
; 4380 : 	return false;
; 4381 : }

	ret	0
?IsTestStrategy_EmpireDefenseCritical@MilitaryAIHelpers@@YA_NPAVCvPlayer@@@Z ENDP ; MilitaryAIHelpers::IsTestStrategy_EmpireDefenseCritical
_TEXT	ENDS
PUBLIC	?IsTestStrategy_EnoughNavalUnits@MilitaryAIHelpers@@YA_NPAVCvPlayer@@@Z ; MilitaryAIHelpers::IsTestStrategy_EnoughNavalUnits
; Function compile flags: /Ogtpy
;	COMDAT ?IsTestStrategy_EnoughNavalUnits@MilitaryAIHelpers@@YA_NPAVCvPlayer@@@Z
_TEXT	SEGMENT
_pPlayer$ = 8						; size = 4
?IsTestStrategy_EnoughNavalUnits@MilitaryAIHelpers@@YA_NPAVCvPlayer@@@Z PROC ; MilitaryAIHelpers::IsTestStrategy_EnoughNavalUnits, COMDAT

; 4386 : 	if(pPlayer->GetMilitaryAI()->GetNavalDefenseState() == DEFENSE_STATE_ENOUGH)

	mov	ecx, DWORD PTR _pPlayer$[esp-4]
	call	?GetMilitaryAI@CvPlayer@@QBEPAVCvMilitaryAI@@XZ ; CvPlayer::GetMilitaryAI
	cmp	DWORD PTR [eax+116], 0
	sete	al

; 4387 : 	{
; 4388 : 		return true;
; 4389 : 	}
; 4390 : 
; 4391 : 	return false;
; 4392 : }

	ret	0
?IsTestStrategy_EnoughNavalUnits@MilitaryAIHelpers@@YA_NPAVCvPlayer@@@Z ENDP ; MilitaryAIHelpers::IsTestStrategy_EnoughNavalUnits
_TEXT	ENDS
PUBLIC	?IsTestStrategy_NeedNavalUnits@MilitaryAIHelpers@@YA_NPAVCvPlayer@@@Z ; MilitaryAIHelpers::IsTestStrategy_NeedNavalUnits
; Function compile flags: /Ogtpy
;	COMDAT ?IsTestStrategy_NeedNavalUnits@MilitaryAIHelpers@@YA_NPAVCvPlayer@@@Z
_TEXT	SEGMENT
_pPlayer$ = 8						; size = 4
?IsTestStrategy_NeedNavalUnits@MilitaryAIHelpers@@YA_NPAVCvPlayer@@@Z PROC ; MilitaryAIHelpers::IsTestStrategy_NeedNavalUnits, COMDAT

; 4397 : 	if(pPlayer->GetMilitaryAI()->GetNavalDefenseState() == DEFENSE_STATE_NEEDED)

	mov	ecx, DWORD PTR _pPlayer$[esp-4]
	call	?GetMilitaryAI@CvPlayer@@QBEPAVCvMilitaryAI@@XZ ; CvPlayer::GetMilitaryAI
	cmp	DWORD PTR [eax+116], 2
	sete	al

; 4398 : 	{
; 4399 : 		return true;
; 4400 : 	}
; 4401 : 
; 4402 : 	return false;
; 4403 : }

	ret	0
?IsTestStrategy_NeedNavalUnits@MilitaryAIHelpers@@YA_NPAVCvPlayer@@@Z ENDP ; MilitaryAIHelpers::IsTestStrategy_NeedNavalUnits
_TEXT	ENDS
PUBLIC	?IsTestStrategy_NeedNavalUnitsCritical@MilitaryAIHelpers@@YA_NPAVCvPlayer@@@Z ; MilitaryAIHelpers::IsTestStrategy_NeedNavalUnitsCritical
; Function compile flags: /Ogtpy
;	COMDAT ?IsTestStrategy_NeedNavalUnitsCritical@MilitaryAIHelpers@@YA_NPAVCvPlayer@@@Z
_TEXT	SEGMENT
_pPlayer$ = 8						; size = 4
?IsTestStrategy_NeedNavalUnitsCritical@MilitaryAIHelpers@@YA_NPAVCvPlayer@@@Z PROC ; MilitaryAIHelpers::IsTestStrategy_NeedNavalUnitsCritical, COMDAT

; 4408 : 	if(pPlayer->GetMilitaryAI()->GetNavalDefenseState() == DEFENSE_STATE_CRITICAL)

	mov	ecx, DWORD PTR _pPlayer$[esp-4]
	call	?GetMilitaryAI@CvPlayer@@QBEPAVCvMilitaryAI@@XZ ; CvPlayer::GetMilitaryAI
	cmp	DWORD PTR [eax+116], 3
	sete	al

; 4409 : 	{
; 4410 : 		return true;
; 4411 : 	}
; 4412 : 
; 4413 : 	return false;
; 4414 : }

	ret	0
?IsTestStrategy_NeedNavalUnitsCritical@MilitaryAIHelpers@@YA_NPAVCvPlayer@@@Z ENDP ; MilitaryAIHelpers::IsTestStrategy_NeedNavalUnitsCritical
_TEXT	ENDS
PUBLIC	?IsTestStrategy_MinorCivGeneralDefense@MilitaryAIHelpers@@YA_NXZ ; MilitaryAIHelpers::IsTestStrategy_MinorCivGeneralDefense
; Function compile flags: /Ogtpy
;	COMDAT ?IsTestStrategy_MinorCivGeneralDefense@MilitaryAIHelpers@@YA_NXZ
_TEXT	SEGMENT
?IsTestStrategy_MinorCivGeneralDefense@MilitaryAIHelpers@@YA_NXZ PROC ; MilitaryAIHelpers::IsTestStrategy_MinorCivGeneralDefense, COMDAT

; 4494 : 	return true;

	mov	al, 1

; 4495 : }

	ret	0
?IsTestStrategy_MinorCivGeneralDefense@MilitaryAIHelpers@@YA_NXZ ENDP ; MilitaryAIHelpers::IsTestStrategy_MinorCivGeneralDefense
_TEXT	ENDS
PUBLIC	?IsTestStrategy_MinorCivThreatElevated@MilitaryAIHelpers@@YA_NPAVCvPlayer@@@Z ; MilitaryAIHelpers::IsTestStrategy_MinorCivThreatElevated
EXTRN	?GetStatus@CvMinorCivAI@@QBE?AW4MinorCivStatusTypes@@XZ:PROC ; CvMinorCivAI::GetStatus
EXTRN	?GetMinorCivAI@CvPlayer@@QBEPAVCvMinorCivAI@@XZ:PROC ; CvPlayer::GetMinorCivAI
; Function compile flags: /Ogtpy
;	COMDAT ?IsTestStrategy_MinorCivThreatElevated@MilitaryAIHelpers@@YA_NPAVCvPlayer@@@Z
_TEXT	SEGMENT
_pPlayer$ = 8						; size = 4
?IsTestStrategy_MinorCivThreatElevated@MilitaryAIHelpers@@YA_NPAVCvPlayer@@@Z PROC ; MilitaryAIHelpers::IsTestStrategy_MinorCivThreatElevated, COMDAT

; 4500 : 	if(pPlayer->GetMinorCivAI()->GetStatus() == MINOR_CIV_STATUS_ELEVATED)

	mov	ecx, DWORD PTR _pPlayer$[esp-4]
	call	?GetMinorCivAI@CvPlayer@@QBEPAVCvMinorCivAI@@XZ ; CvPlayer::GetMinorCivAI
	mov	ecx, eax
	call	?GetStatus@CvMinorCivAI@@QBE?AW4MinorCivStatusTypes@@XZ ; CvMinorCivAI::GetStatus
	cmp	eax, 1
	sete	al

; 4501 : 	{
; 4502 : 		return true;
; 4503 : 	}
; 4504 : 
; 4505 : 	return false;
; 4506 : }

	ret	0
?IsTestStrategy_MinorCivThreatElevated@MilitaryAIHelpers@@YA_NPAVCvPlayer@@@Z ENDP ; MilitaryAIHelpers::IsTestStrategy_MinorCivThreatElevated
_TEXT	ENDS
PUBLIC	?IsTestStrategy_MinorCivThreatCritical@MilitaryAIHelpers@@YA_NPAVCvPlayer@@@Z ; MilitaryAIHelpers::IsTestStrategy_MinorCivThreatCritical
; Function compile flags: /Ogtpy
;	COMDAT ?IsTestStrategy_MinorCivThreatCritical@MilitaryAIHelpers@@YA_NPAVCvPlayer@@@Z
_TEXT	SEGMENT
_pPlayer$ = 8						; size = 4
?IsTestStrategy_MinorCivThreatCritical@MilitaryAIHelpers@@YA_NPAVCvPlayer@@@Z PROC ; MilitaryAIHelpers::IsTestStrategy_MinorCivThreatCritical, COMDAT

; 4511 : 	if(pPlayer->GetMinorCivAI()->GetStatus() == MINOR_CIV_STATUS_CRITICAL)

	mov	ecx, DWORD PTR _pPlayer$[esp-4]
	call	?GetMinorCivAI@CvPlayer@@QBEPAVCvMinorCivAI@@XZ ; CvPlayer::GetMinorCivAI
	mov	ecx, eax
	call	?GetStatus@CvMinorCivAI@@QBE?AW4MinorCivStatusTypes@@XZ ; CvMinorCivAI::GetStatus
	cmp	eax, 2
	sete	al

; 4512 : 	{
; 4513 : 		return true;
; 4514 : 	}
; 4515 : 
; 4516 : 	return false;
; 4517 : }

	ret	0
?IsTestStrategy_MinorCivThreatCritical@MilitaryAIHelpers@@YA_NPAVCvPlayer@@@Z ENDP ; MilitaryAIHelpers::IsTestStrategy_MinorCivThreatCritical
_TEXT	ENDS
PUBLIC	?IsTestStrategy_WinningWars@MilitaryAIHelpers@@YA_NPAVCvPlayer@@@Z ; MilitaryAIHelpers::IsTestStrategy_WinningWars
; Function compile flags: /Ogtpy
;	COMDAT ?IsTestStrategy_WinningWars@MilitaryAIHelpers@@YA_NPAVCvPlayer@@@Z
_TEXT	SEGMENT
_pPlayer$ = 8						; size = 4
?IsTestStrategy_WinningWars@MilitaryAIHelpers@@YA_NPAVCvPlayer@@@Z PROC ; MilitaryAIHelpers::IsTestStrategy_WinningWars, COMDAT

; 4590 : 	if(pPlayer->GetDiplomacyAI()->GetStateAllWars() == STATE_ALL_WARS_WINNING)

	mov	ecx, DWORD PTR _pPlayer$[esp-4]
	call	?GetDiplomacyAI@CvPlayer@@QBEPAVCvDiplomacyAI@@XZ ; CvPlayer::GetDiplomacyAI
	mov	ecx, eax
	call	?GetStateAllWars@CvDiplomacyAI@@QBE?AW4StateAllWars@@XZ ; CvDiplomacyAI::GetStateAllWars
	cmp	eax, 1
	sete	al

; 4591 : 	{
; 4592 : 		return true;
; 4593 : 	}
; 4594 : 	return false;
; 4595 : }

	ret	0
?IsTestStrategy_WinningWars@MilitaryAIHelpers@@YA_NPAVCvPlayer@@@Z ENDP ; MilitaryAIHelpers::IsTestStrategy_WinningWars
_TEXT	ENDS
PUBLIC	?IsTestStrategy_LosingWars@MilitaryAIHelpers@@YA_NPAVCvPlayer@@@Z ; MilitaryAIHelpers::IsTestStrategy_LosingWars
; Function compile flags: /Ogtpy
;	COMDAT ?IsTestStrategy_LosingWars@MilitaryAIHelpers@@YA_NPAVCvPlayer@@@Z
_TEXT	SEGMENT
_pPlayer$ = 8						; size = 4
?IsTestStrategy_LosingWars@MilitaryAIHelpers@@YA_NPAVCvPlayer@@@Z PROC ; MilitaryAIHelpers::IsTestStrategy_LosingWars, COMDAT

; 4600 : 	if(pPlayer->GetDiplomacyAI()->GetStateAllWars() == STATE_ALL_WARS_LOSING)

	mov	ecx, DWORD PTR _pPlayer$[esp-4]
	call	?GetDiplomacyAI@CvPlayer@@QBEPAVCvDiplomacyAI@@XZ ; CvPlayer::GetDiplomacyAI
	mov	ecx, eax
	call	?GetStateAllWars@CvDiplomacyAI@@QBE?AW4StateAllWars@@XZ ; CvDiplomacyAI::GetStateAllWars
	cmp	eax, 2
	sete	al

; 4601 : 	{
; 4602 : 		return true;
; 4603 : 	}
; 4604 : 	return false;
; 4605 : }

	ret	0
?IsTestStrategy_LosingWars@MilitaryAIHelpers@@YA_NPAVCvPlayer@@@Z ENDP ; MilitaryAIHelpers::IsTestStrategy_LosingWars
_TEXT	ENDS
PUBLIC	?IsTestStrategy_NeedRangedDueToEarlySneakAttack@MilitaryAIHelpers@@YA_NPAVCvPlayer@@@Z ; MilitaryAIHelpers::IsTestStrategy_NeedRangedDueToEarlySneakAttack
; Function compile flags: /Ogtpy
;	COMDAT ?IsTestStrategy_NeedRangedDueToEarlySneakAttack@MilitaryAIHelpers@@YA_NPAVCvPlayer@@@Z
_TEXT	SEGMENT
_pPlayer$ = 8						; size = 4
?IsTestStrategy_NeedRangedDueToEarlySneakAttack@MilitaryAIHelpers@@YA_NPAVCvPlayer@@@Z PROC ; MilitaryAIHelpers::IsTestStrategy_NeedRangedDueToEarlySneakAttack, COMDAT

; 4625 : {

	push	esi

; 4626 : 	MilitaryAIStrategyTypes eStrategyWarMob = (MilitaryAIStrategyTypes) GC.getInfoTypeForString("MILITARYAISTRATEGY_WAR_MOBILIZATION");

	push	0
	push	OFFSET $SG228596
	mov	ecx, OFFSET ?gGlobals@@3VCvGlobals@@A	; gGlobals
	call	?getInfoTypeForString@CvGlobals@@QBEHPBD_N@Z ; CvGlobals::getInfoTypeForString
	mov	esi, eax

; 4627 : 	if(eStrategyWarMob != NO_MILITARYAISTRATEGY)

	cmp	esi, -1
	je	SHORT $LN1@IsTestStra@2

; 4628 : 	{
; 4629 : 		if(pPlayer->GetMilitaryAI()->IsUsingStrategy(eStrategyWarMob))

	mov	ecx, DWORD PTR _pPlayer$[esp]
	call	?GetMilitaryAI@CvPlayer@@QBEPAVCvMilitaryAI@@XZ ; CvPlayer::GetMilitaryAI
	mov	eax, DWORD PTR [eax+12]
	cmp	BYTE PTR [esi+eax], 0
	je	SHORT $LN1@IsTestStra@2

; 4630 : 		{
; 4631 : 			return true;

	mov	al, 1
	pop	esi

; 4635 : }

	ret	0
$LN1@IsTestStra@2:

; 4632 : 		}
; 4633 : 	}
; 4634 : 	return false;

	xor	al, al
	pop	esi

; 4635 : }

	ret	0
?IsTestStrategy_NeedRangedDueToEarlySneakAttack@MilitaryAIHelpers@@YA_NPAVCvPlayer@@@Z ENDP ; MilitaryAIHelpers::IsTestStrategy_NeedRangedDueToEarlySneakAttack
_TEXT	ENDS
PUBLIC	?IsTestStrategy_NeedAirCarriers@MilitaryAIHelpers@@YA_NPAVCvPlayer@@@Z ; MilitaryAIHelpers::IsTestStrategy_NeedAirCarriers
EXTRN	?nextUnit@CvPlayer@@QAEPAVCvUnit@@PAH_N@Z:PROC	; CvPlayer::nextUnit
EXTRN	?getSpecialUnitType@CvUnit@@QBE?AW4SpecialUnitTypes@@XZ:PROC ; CvUnit::getSpecialUnitType
EXTRN	?domainCargo@CvUnit@@QBE?AW4DomainTypes@@XZ:PROC ; CvUnit::domainCargo
EXTRN	?specialCargo@CvUnit@@QBE?AW4SpecialUnitTypes@@XZ:PROC ; CvUnit::specialCargo
EXTRN	?cargoSpace@CvUnit@@QBEHXZ:PROC			; CvUnit::cargoSpace
EXTRN	?AI_getUnitAIType@CvUnit@@QBE?AW4UnitAITypes@@XZ:PROC ; CvUnit::AI_getUnitAIType
EXTRN	?firstUnit@CvPlayer@@QAEPAVCvUnit@@PAH_N@Z:PROC	; CvPlayer::firstUnit
; Function compile flags: /Ogtpy
;	COMDAT ?IsTestStrategy_NeedAirCarriers@MilitaryAIHelpers@@YA_NPAVCvPlayer@@@Z
_TEXT	SEGMENT
_iNumTotalCargoSpace$ = -8				; size = 4
_iLoop$ = -4						; size = 4
_pPlayer$ = 8						; size = 4
?IsTestStrategy_NeedAirCarriers@MilitaryAIHelpers@@YA_NPAVCvPlayer@@@Z PROC ; MilitaryAIHelpers::IsTestStrategy_NeedAirCarriers, COMDAT

; 4743 : {

	sub	esp, 8
	push	ebx
	push	ebp
	push	esi
	push	edi

; 4744 : 	int iNumLoadableAirUnits = 0;

	xor	ebp, ebp

; 4745 : 	int iNumTotalCargoSpace = 0;
; 4746 : 	CvUnit* pLoopUnit;
; 4747 : 	int iLoop;
; 4748 : 	SpecialUnitTypes eSpecialUnitPlane = (SpecialUnitTypes) GC.getInfoTypeForString("SPECIALUNIT_FIGHTER");

	push	ebp
	push	OFFSET $SG228698
	mov	ecx, OFFSET ?gGlobals@@3VCvGlobals@@A	; gGlobals
	mov	DWORD PTR _iNumTotalCargoSpace$[esp+32], ebp
	call	?getInfoTypeForString@CvGlobals@@QBEHPBD_N@Z ; CvGlobals::getInfoTypeForString

; 4749 : 	for(pLoopUnit = pPlayer->firstUnit(&iLoop); pLoopUnit != NULL; pLoopUnit = pPlayer->nextUnit(&iLoop))

	mov	ebx, DWORD PTR _pPlayer$[esp+20]
	mov	edi, eax
	push	ebp
	lea	eax, DWORD PTR _iLoop$[esp+28]
	push	eax
	mov	ecx, ebx
	call	?firstUnit@CvPlayer@@QAEPAVCvUnit@@PAH_N@Z ; CvPlayer::firstUnit
	mov	esi, eax
	test	esi, esi
	je	$LN2@IsTestStra@3
	npad	6
$LL13@IsTestStra@3:

; 4750 : 	{
; 4751 : 		// Don't count civilians or exploration units
; 4752 : 		if(pLoopUnit->AI_getUnitAIType() != UNITAI_EXPLORE && pLoopUnit->AI_getUnitAIType() != UNITAI_EXPLORE_SEA)

	mov	ecx, esi
	call	?AI_getUnitAIType@CvUnit@@QBE?AW4UnitAITypes@@XZ ; CvUnit::AI_getUnitAIType
	cmp	eax, 10					; 0000000aH
	je	SHORT $LN12@IsTestStra@3
	mov	ecx, esi
	call	?AI_getUnitAIType@CvUnit@@QBE?AW4UnitAITypes@@XZ ; CvUnit::AI_getUnitAIType
	cmp	eax, 21					; 00000015H
	je	SHORT $LN12@IsTestStra@3

; 4753 : 		{
; 4754 : 			if(pLoopUnit->cargoSpace() > 0)

	mov	ecx, esi
	call	?cargoSpace@CvUnit@@QBEHXZ		; CvUnit::cargoSpace

; 4755 : 			{
; 4756 : 				if(pLoopUnit->specialCargo() != NO_SPECIALUNIT)

	mov	ecx, esi
	test	eax, eax
	jle	SHORT $LN9@IsTestStra@3
	call	?specialCargo@CvUnit@@QBE?AW4SpecialUnitTypes@@XZ ; CvUnit::specialCargo
	cmp	eax, -1
	je	SHORT $LN7@IsTestStra@3

; 4757 : 				{
; 4758 : 					if(pLoopUnit->specialCargo() != eSpecialUnitPlane)

	mov	ecx, esi
	call	?specialCargo@CvUnit@@QBE?AW4SpecialUnitTypes@@XZ ; CvUnit::specialCargo
	cmp	eax, edi
	jne	SHORT $LN12@IsTestStra@3
$LN7@IsTestStra@3:

; 4759 : 					{
; 4760 : 						continue;
; 4761 : 					}
; 4762 : 				}
; 4763 : 
; 4764 : 				if (pLoopUnit->domainCargo() != NO_DOMAIN)

	mov	ecx, esi
	call	?domainCargo@CvUnit@@QBE?AW4DomainTypes@@XZ ; CvUnit::domainCargo
	cmp	eax, -1
	je	SHORT $LN5@IsTestStra@3

; 4765 : 				{
; 4766 : 					if (pLoopUnit->domainCargo() != DOMAIN_AIR)

	mov	ecx, esi
	call	?domainCargo@CvUnit@@QBE?AW4DomainTypes@@XZ ; CvUnit::domainCargo
	cmp	eax, 1
	jne	SHORT $LN12@IsTestStra@3
$LN5@IsTestStra@3:

; 4767 : 					{
; 4768 : 						continue;
; 4769 : 					}
; 4770 : 				}
; 4771 : 				iNumTotalCargoSpace += pLoopUnit->cargoSpace();

	mov	ecx, esi
	call	?cargoSpace@CvUnit@@QBEHXZ		; CvUnit::cargoSpace
	add	DWORD PTR _iNumTotalCargoSpace$[esp+24], eax
	jmp	SHORT $LN12@IsTestStra@3
$LN9@IsTestStra@3:

; 4772 : 			}
; 4773 : 			else if (pLoopUnit->getSpecialUnitType() == eSpecialUnitPlane)

	call	?getSpecialUnitType@CvUnit@@QBE?AW4SpecialUnitTypes@@XZ ; CvUnit::getSpecialUnitType
	cmp	eax, edi
	jne	SHORT $LN12@IsTestStra@3

; 4774 : 			{
; 4775 : 				iNumLoadableAirUnits += 1;

	inc	ebp
$LN12@IsTestStra@3:

; 4749 : 	for(pLoopUnit = pPlayer->firstUnit(&iLoop); pLoopUnit != NULL; pLoopUnit = pPlayer->nextUnit(&iLoop))

	push	0
	lea	ecx, DWORD PTR _iLoop$[esp+28]
	push	ecx
	mov	ecx, ebx
	call	?nextUnit@CvPlayer@@QAEPAVCvUnit@@PAH_N@Z ; CvPlayer::nextUnit
	mov	esi, eax
	test	esi, esi
	jne	SHORT $LL13@IsTestStra@3

; 4776 : 			}
; 4777 : 		}
; 4778 : 	}
; 4779 : 
; 4780 : 	if (iNumLoadableAirUnits > iNumTotalCargoSpace)

	cmp	ebp, DWORD PTR _iNumTotalCargoSpace$[esp+24]
	jle	SHORT $LN2@IsTestStra@3
	pop	edi
	pop	esi
	pop	ebp

; 4781 : 	{
; 4782 : 		return true;

	mov	al, 1
	pop	ebx

; 4787 : 	}
; 4788 : }

	add	esp, 8
	ret	0
$LN2@IsTestStra@3:
	pop	edi
	pop	esi
	pop	ebp

; 4783 : 	}
; 4784 : 	else
; 4785 : 	{
; 4786 : 		return false;

	xor	al, al
	pop	ebx

; 4787 : 	}
; 4788 : }

	add	esp, 8
	ret	0
?IsTestStrategy_NeedAirCarriers@MilitaryAIHelpers@@YA_NPAVCvPlayer@@@Z ENDP ; MilitaryAIHelpers::IsTestStrategy_NeedAirCarriers
_TEXT	ENDS
PUBLIC	??C?$FObjectHandle@VCvUnit@@@@QAEPAVCvUnit@@XZ	; FObjectHandle<CvUnit>::operator->
; Function compile flags: /Ogtpy
; File c:\users\enormousapplepie\documents\github\lekmod\lekmod_dll\fireplace\include\fireworks\fobjecthandle.h
;	COMDAT ??C?$FObjectHandle@VCvUnit@@@@QAEPAVCvUnit@@XZ
_TEXT	SEGMENT
??C?$FObjectHandle@VCvUnit@@@@QAEPAVCvUnit@@XZ PROC	; FObjectHandle<CvUnit>::operator->, COMDAT
; _this$ = ecx

; 88   : 		return m_target;

	mov	eax, DWORD PTR [ecx]

; 89   : 	}

	ret	0
??C?$FObjectHandle@VCvUnit@@@@QAEPAVCvUnit@@XZ ENDP	; FObjectHandle<CvUnit>::operator->
_TEXT	ENDS
PUBLIC	??B?$FObjectHandle@VCvUnit@@@@QBE_NXZ		; FObjectHandle<CvUnit>::operator bool
; Function compile flags: /Ogtpy
;	COMDAT ??B?$FObjectHandle@VCvUnit@@@@QBE_NXZ
_TEXT	SEGMENT
??B?$FObjectHandle@VCvUnit@@@@QBE_NXZ PROC		; FObjectHandle<CvUnit>::operator bool, COMDAT
; _this$ = ecx

; 108  : 		return m_target != 0;

	xor	eax, eax
	cmp	DWORD PTR [ecx], eax
	setne	al

; 109  : 	}

	ret	0
??B?$FObjectHandle@VCvUnit@@@@QBE_NXZ ENDP		; FObjectHandle<CvUnit>::operator bool
_TEXT	ENDS
PUBLIC	??0?$FObjectHandle@VCvUnit@@@@QAE@XZ		; FObjectHandle<CvUnit>::FObjectHandle<CvUnit>
; Function compile flags: /Ogtpy
;	COMDAT ??0?$FObjectHandle@VCvUnit@@@@QAE@XZ
_TEXT	SEGMENT
??0?$FObjectHandle@VCvUnit@@@@QAE@XZ PROC		; FObjectHandle<CvUnit>::FObjectHandle<CvUnit>, COMDAT
; _this$ = ecx

; 215  : 	{

	mov	eax, ecx
	mov	DWORD PTR [eax], 0
	mov	BYTE PTR [eax+4], 0

; 216  : 		OBJECT_HANDLE_STACK;
; 217  : 	}

	ret	0
??0?$FObjectHandle@VCvUnit@@@@QAE@XZ ENDP		; FObjectHandle<CvUnit>::FObjectHandle<CvUnit>
_TEXT	ENDS
PUBLIC	?size@?$vector@PAVCvMilitaryAIStrategyXMLEntry@@V?$allocator@PAVCvMilitaryAIStrategyXMLEntry@@@std@@@std@@QBEIXZ ; std::vector<CvMilitaryAIStrategyXMLEntry *,std::allocator<CvMilitaryAIStrategyXMLEntry *> >::size
; Function compile flags: /Ogtpy
; File c:\program files (x86)\microsoft visual studio 9.0\vc\include\vector
;	COMDAT ?size@?$vector@PAVCvMilitaryAIStrategyXMLEntry@@V?$allocator@PAVCvMilitaryAIStrategyXMLEntry@@@std@@@std@@QBEIXZ
_TEXT	SEGMENT
?size@?$vector@PAVCvMilitaryAIStrategyXMLEntry@@V?$allocator@PAVCvMilitaryAIStrategyXMLEntry@@@std@@@std@@QBEIXZ PROC ; std::vector<CvMilitaryAIStrategyXMLEntry *,std::allocator<CvMilitaryAIStrategyXMLEntry *> >::size, COMDAT
; _this$ = ecx

; 726  : 		return (_Mylast - _Myfirst);

	mov	eax, DWORD PTR [ecx+8]
	sub	eax, DWORD PTR [ecx+4]
	sar	eax, 2

; 727  : 		}

	ret	0
?size@?$vector@PAVCvMilitaryAIStrategyXMLEntry@@V?$allocator@PAVCvMilitaryAIStrategyXMLEntry@@@std@@@std@@QBEIXZ ENDP ; std::vector<CvMilitaryAIStrategyXMLEntry *,std::allocator<CvMilitaryAIStrategyXMLEntry *> >::size
_TEXT	ENDS
PUBLIC	??A?$vector@PAVCvMilitaryAIStrategyXMLEntry@@V?$allocator@PAVCvMilitaryAIStrategyXMLEntry@@@std@@@std@@QAEAAPAVCvMilitaryAIStrategyXMLEntry@@I@Z ; std::vector<CvMilitaryAIStrategyXMLEntry *,std::allocator<CvMilitaryAIStrategyXMLEntry *> >::operator[]
; Function compile flags: /Ogtpy
;	COMDAT ??A?$vector@PAVCvMilitaryAIStrategyXMLEntry@@V?$allocator@PAVCvMilitaryAIStrategyXMLEntry@@@std@@@std@@QAEAAPAVCvMilitaryAIStrategyXMLEntry@@I@Z
_TEXT	SEGMENT
__Pos$ = 8						; size = 4
??A?$vector@PAVCvMilitaryAIStrategyXMLEntry@@V?$allocator@PAVCvMilitaryAIStrategyXMLEntry@@@std@@@std@@QAEAAPAVCvMilitaryAIStrategyXMLEntry@@I@Z PROC ; std::vector<CvMilitaryAIStrategyXMLEntry *,std::allocator<CvMilitaryAIStrategyXMLEntry *> >::operator[], COMDAT
; _this$ = ecx

; 775  : 
; 776  :  #if _HAS_ITERATOR_DEBUGGING
; 777  : 		if (size() <= _Pos)
; 778  : 			{
; 779  : 			_DEBUG_ERROR("vector subscript out of range");
; 780  : 			_SCL_SECURE_OUT_OF_RANGE;
; 781  : 			}
; 782  :  #endif /* _HAS_ITERATOR_DEBUGGING */
; 783  : 		_SCL_SECURE_VALIDATE_RANGE(_Pos < size());
; 784  : 
; 785  : 		return (*(_Myfirst + _Pos));

	mov	eax, DWORD PTR [ecx+4]
	mov	ecx, DWORD PTR __Pos$[esp-4]
	lea	eax, DWORD PTR [eax+ecx*4]

; 786  : 		}

	ret	4
??A?$vector@PAVCvMilitaryAIStrategyXMLEntry@@V?$allocator@PAVCvMilitaryAIStrategyXMLEntry@@@std@@@std@@QAEAAPAVCvMilitaryAIStrategyXMLEntry@@I@Z ENDP ; std::vector<CvMilitaryAIStrategyXMLEntry *,std::allocator<CvMilitaryAIStrategyXMLEntry *> >::operator[]
_TEXT	ENDS
PUBLIC	??0?$ArrayWrapper@_N@@QAE@HPA_N@Z		; ArrayWrapper<bool>::ArrayWrapper<bool>
; Function compile flags: /Ogtpy
; File c:\users\enormousapplepie\documents\github\lekmod\lekmod_dll\fireplace\include\fireworks\fdatastream.h
;	COMDAT ??0?$ArrayWrapper@_N@@QAE@HPA_N@Z
_TEXT	SEGMENT
_count$ = 8						; size = 4
_values$ = 12						; size = 4
??0?$ArrayWrapper@_N@@QAE@HPA_N@Z PROC			; ArrayWrapper<bool>::ArrayWrapper<bool>, COMDAT
; _this$ = ecx

; 378  : 		: m_values(values), m_count(count) {}

	mov	edx, DWORD PTR _count$[esp-4]
	mov	eax, ecx
	mov	ecx, DWORD PTR _values$[esp-4]
	mov	DWORD PTR [eax], ecx
	mov	DWORD PTR [eax+4], edx
	ret	8
??0?$ArrayWrapper@_N@@QAE@HPA_N@Z ENDP			; ArrayWrapper<bool>::ArrayWrapper<bool>
_TEXT	ENDS
PUBLIC	??0?$ArrayWrapper@H@@QAE@HPAH@Z			; ArrayWrapper<int>::ArrayWrapper<int>
; Function compile flags: /Ogtpy
;	COMDAT ??0?$ArrayWrapper@H@@QAE@HPAH@Z
_TEXT	SEGMENT
_count$ = 8						; size = 4
_values$ = 12						; size = 4
??0?$ArrayWrapper@H@@QAE@HPAH@Z PROC			; ArrayWrapper<int>::ArrayWrapper<int>, COMDAT
; _this$ = ecx

; 378  : 		: m_values(values), m_count(count) {}

	mov	edx, DWORD PTR _count$[esp-4]
	mov	eax, ecx
	mov	ecx, DWORD PTR _values$[esp-4]
	mov	DWORD PTR [eax], ecx
	mov	DWORD PTR [eax+4], edx
	ret	8
??0?$ArrayWrapper@H@@QAE@HPAH@Z ENDP			; ArrayWrapper<int>::ArrayWrapper<int>
_TEXT	ENDS
PUBLIC	??A?$BaseVector@PAVCvCity@@$0A@@@QAEAAPAVCvCity@@I@Z ; BaseVector<CvCity *,0>::operator[]
; Function compile flags: /Ogtpy
; File c:\users\enormousapplepie\documents\github\lekmod\lekmod_dll\fireplace\include\fireworks\ffastvector.h
;	COMDAT ??A?$BaseVector@PAVCvCity@@$0A@@@QAEAAPAVCvCity@@I@Z
_TEXT	SEGMENT
_ui$ = 8						; size = 4
??A?$BaseVector@PAVCvCity@@$0A@@@QAEAAPAVCvCity@@I@Z PROC ; BaseVector<CvCity *,0>::operator[], COMDAT
; _this$ = ecx

; 129  : 		FAssert(ui < m_uiCurrSize);
; 130  : 		return m_pData[ui];

	mov	eax, DWORD PTR [ecx]
	mov	ecx, DWORD PTR _ui$[esp-4]
	lea	eax, DWORD PTR [eax+ecx*4]

; 131  : 	};

	ret	4
??A?$BaseVector@PAVCvCity@@$0A@@@QAEAAPAVCvCity@@I@Z ENDP ; BaseVector<CvCity *,0>::operator[]
_TEXT	ENDS
PUBLIC	?size@?$BaseVector@PAVCvCity@@$0A@@@QBEIXZ	; BaseVector<CvCity *,0>::size
; Function compile flags: /Ogtpy
;	COMDAT ?size@?$BaseVector@PAVCvCity@@$0A@@@QBEIXZ
_TEXT	SEGMENT
?size@?$BaseVector@PAVCvCity@@$0A@@@QBEIXZ PROC		; BaseVector<CvCity *,0>::size, COMDAT
; _this$ = ecx

; 169  : 		return m_uiCurrSize;

	mov	eax, DWORD PTR [ecx+4]

; 170  : 	};

	ret	0
?size@?$BaseVector@PAVCvCity@@$0A@@@QBEIXZ ENDP		; BaseVector<CvCity *,0>::size
_TEXT	ENDS
PUBLIC	?erase@?$FStaticVector@VCvFormationSlotEntry@@$09$0A@$0BCJ@$0A@@@QAEXPAVCvFormationSlotEntry@@@Z ; FStaticVector<CvFormationSlotEntry,10,0,297,0>::erase
; Function compile flags: /Ogtpy
;	COMDAT ?erase@?$FStaticVector@VCvFormationSlotEntry@@$09$0A@$0BCJ@$0A@@@QAEXPAVCvFormationSlotEntry@@@Z
_TEXT	SEGMENT
_it$ = 8						; size = 4
?erase@?$FStaticVector@VCvFormationSlotEntry@@$09$0A@$0BCJ@$0A@@@QAEXPAVCvFormationSlotEntry@@@Z PROC ; FStaticVector<CvFormationSlotEntry,10,0,297,0>::erase, COMDAT
; _this$ = ecx

; 703  : 		m_bIsResized = false;
; 704  : 
; 705  : 		unsigned int uIndex = it - m_pData;

	mov	eax, DWORD PTR _it$[esp-4]
	sub	eax, DWORD PTR [ecx]
	push	esi
	sar	eax, 4

; 706  : 
; 707  :         for(unsigned int i = uIndex; i + 1< m_uiCurrSize; ++i)

	lea	esi, DWORD PTR [eax+1]
	mov	BYTE PTR [ecx+172], 0
	cmp	esi, DWORD PTR [ecx+4]
	jae	SHORT $LN8@erase
	shl	eax, 4
	mov	edx, eax
	push	edi
	npad	1
$LL3@erase:

; 708  :         {
; 709  :             m_pData[i] = m_pData[i+1];

	mov	eax, DWORD PTR [ecx]
	mov	edi, DWORD PTR [eax+edx+16]
	add	eax, edx
	mov	DWORD PTR [eax], edi
	mov	edi, DWORD PTR [eax+20]
	mov	DWORD PTR [eax+4], edi
	mov	edi, DWORD PTR [eax+24]
	mov	DWORD PTR [eax+8], edi
	mov	edi, DWORD PTR [eax+28]
	inc	esi
	mov	DWORD PTR [eax+12], edi
	add	edx, 16					; 00000010H
	cmp	esi, DWORD PTR [ecx+4]
	jb	SHORT $LL3@erase
	pop	edi
$LN8@erase:

; 710  :         }
; 711  : 		
; 712  : 		--m_uiCurrSize;

	dec	DWORD PTR [ecx+4]
	pop	esi

; 713  : 	}

	ret	4
?erase@?$FStaticVector@VCvFormationSlotEntry@@$09$0A@$0BCJ@$0A@@@QAEXPAVCvFormationSlotEntry@@@Z ENDP ; FStaticVector<CvFormationSlotEntry,10,0,297,0>::erase
_TEXT	ENDS
PUBLIC	??A?$BaseVector@VCvFormationSlotEntry@@$0A@@@QAEAAVCvFormationSlotEntry@@I@Z ; BaseVector<CvFormationSlotEntry,0>::operator[]
; Function compile flags: /Ogtpy
;	COMDAT ??A?$BaseVector@VCvFormationSlotEntry@@$0A@@@QAEAAVCvFormationSlotEntry@@I@Z
_TEXT	SEGMENT
_ui$ = 8						; size = 4
??A?$BaseVector@VCvFormationSlotEntry@@$0A@@@QAEAAVCvFormationSlotEntry@@I@Z PROC ; BaseVector<CvFormationSlotEntry,0>::operator[], COMDAT
; _this$ = ecx

; 129  : 		FAssert(ui < m_uiCurrSize);
; 130  : 		return m_pData[ui];

	mov	eax, DWORD PTR _ui$[esp-4]
	shl	eax, 4
	add	eax, DWORD PTR [ecx]

; 131  : 	};

	ret	4
??A?$BaseVector@VCvFormationSlotEntry@@$0A@@@QAEAAVCvFormationSlotEntry@@I@Z ENDP ; BaseVector<CvFormationSlotEntry,0>::operator[]
_TEXT	ENDS
PUBLIC	?size@?$BaseVector@VCvFormationSlotEntry@@$0A@@@QBEIXZ ; BaseVector<CvFormationSlotEntry,0>::size
; Function compile flags: /Ogtpy
;	COMDAT ?size@?$BaseVector@VCvFormationSlotEntry@@$0A@@@QBEIXZ
_TEXT	SEGMENT
?size@?$BaseVector@VCvFormationSlotEntry@@$0A@@@QBEIXZ PROC ; BaseVector<CvFormationSlotEntry,0>::size, COMDAT
; _this$ = ecx

; 169  : 		return m_uiCurrSize;

	mov	eax, DWORD PTR [ecx+4]

; 170  : 	};

	ret	0
?size@?$BaseVector@VCvFormationSlotEntry@@$0A@@@QBEIXZ ENDP ; BaseVector<CvFormationSlotEntry,0>::size
_TEXT	ENDS
PUBLIC	?begin@?$BaseVector@VCvFormationSlotEntry@@$0A@@@QAEPAVCvFormationSlotEntry@@XZ ; BaseVector<CvFormationSlotEntry,0>::begin
; Function compile flags: /Ogtpy
;	COMDAT ?begin@?$BaseVector@VCvFormationSlotEntry@@$0A@@@QAEPAVCvFormationSlotEntry@@XZ
_TEXT	SEGMENT
?begin@?$BaseVector@VCvFormationSlotEntry@@$0A@@@QAEPAVCvFormationSlotEntry@@XZ PROC ; BaseVector<CvFormationSlotEntry,0>::begin, COMDAT
; _this$ = ecx

; 194  :         return m_pData; 

	mov	eax, DWORD PTR [ecx]

; 195  :     };

	ret	0
?begin@?$BaseVector@VCvFormationSlotEntry@@$0A@@@QAEPAVCvFormationSlotEntry@@XZ ENDP ; BaseVector<CvFormationSlotEntry,0>::begin
_TEXT	ENDS
PUBLIC	?end@?$BaseVector@VCvFormationSlotEntry@@$0A@@@QAEPAVCvFormationSlotEntry@@XZ ; BaseVector<CvFormationSlotEntry,0>::end
; Function compile flags: /Ogtpy
;	COMDAT ?end@?$BaseVector@VCvFormationSlotEntry@@$0A@@@QAEPAVCvFormationSlotEntry@@XZ
_TEXT	SEGMENT
?end@?$BaseVector@VCvFormationSlotEntry@@$0A@@@QAEPAVCvFormationSlotEntry@@XZ PROC ; BaseVector<CvFormationSlotEntry,0>::end, COMDAT
; _this$ = ecx

; 197  :         return m_pData+m_uiCurrSize; 

	mov	eax, DWORD PTR [ecx+4]
	shl	eax, 4
	add	eax, DWORD PTR [ecx]

; 198  :     };

	ret	0
?end@?$BaseVector@VCvFormationSlotEntry@@$0A@@@QAEPAVCvFormationSlotEntry@@XZ ENDP ; BaseVector<CvFormationSlotEntry,0>::end
_TEXT	ENDS
PUBLIC	?addTarget@?$DestructionNotification@V?$FObjectHandle@VCvUnit@@@@@@QAEXABV?$FObjectHandle@VCvUnit@@@@@Z ; DestructionNotification<FObjectHandle<CvUnit> >::addTarget
; Function compile flags: /Ogtpy
; File c:\users\enormousapplepie\documents\github\lekmod\lekmod_dll\fireplace\include\fireworks\fobjecthandle.h
;	COMDAT ?addTarget@?$DestructionNotification@V?$FObjectHandle@VCvUnit@@@@@@QAEXABV?$FObjectHandle@VCvUnit@@@@@Z
_TEXT	SEGMENT
_target$ = 8						; size = 4
?addTarget@?$DestructionNotification@V?$FObjectHandle@VCvUnit@@@@@@QAEXABV?$FObjectHandle@VCvUnit@@@@@Z PROC ; DestructionNotification<FObjectHandle<CvUnit> >::addTarget, COMDAT
; _this$ = ecx

; 52   : #ifdef TRACK_DESTRUCTION_NOTIFICATION
; 53   : 		m_targets.insert(&target);
; 54   : #endif
; 55   : 	}

	ret	4
?addTarget@?$DestructionNotification@V?$FObjectHandle@VCvUnit@@@@@@QAEXABV?$FObjectHandle@VCvUnit@@@@@Z ENDP ; DestructionNotification<FObjectHandle<CvUnit> >::addTarget
_TEXT	ENDS
PUBLIC	?removeTarget@?$DestructionNotification@V?$FObjectHandle@VCvUnit@@@@@@QAEXABV?$FObjectHandle@VCvUnit@@@@@Z ; DestructionNotification<FObjectHandle<CvUnit> >::removeTarget
; Function compile flags: /Ogtpy
;	COMDAT ?removeTarget@?$DestructionNotification@V?$FObjectHandle@VCvUnit@@@@@@QAEXABV?$FObjectHandle@VCvUnit@@@@@Z
_TEXT	SEGMENT
_target$ = 8						; size = 4
?removeTarget@?$DestructionNotification@V?$FObjectHandle@VCvUnit@@@@@@QAEXABV?$FObjectHandle@VCvUnit@@@@@Z PROC ; DestructionNotification<FObjectHandle<CvUnit> >::removeTarget, COMDAT
; _this$ = ecx

; 63   : #ifdef TRACK_DESTRUCTION_NOTIFICATION
; 64   : 		m_targets.erase(&target);
; 65   : #endif
; 66   : 	}

	ret	4
?removeTarget@?$DestructionNotification@V?$FObjectHandle@VCvUnit@@@@@@QAEXABV?$FObjectHandle@VCvUnit@@@@@Z ENDP ; DestructionNotification<FObjectHandle<CvUnit> >::removeTarget
_TEXT	ENDS
PUBLIC	??1?$_Container_base_aux_alloc_empty@V?$allocator@PAVCvMilitaryAIStrategyXMLEntry@@@std@@@std@@IAE@XZ ; std::_Container_base_aux_alloc_empty<std::allocator<CvMilitaryAIStrategyXMLEntry *> >::~_Container_base_aux_alloc_empty<std::allocator<CvMilitaryAIStrategyXMLEntry *> >
; Function compile flags: /Ogtpy
; File c:\program files (x86)\microsoft visual studio 9.0\vc\include\xutility
;	COMDAT ??1?$_Container_base_aux_alloc_empty@V?$allocator@PAVCvMilitaryAIStrategyXMLEntry@@@std@@@std@@IAE@XZ
_TEXT	SEGMENT
??1?$_Container_base_aux_alloc_empty@V?$allocator@PAVCvMilitaryAIStrategyXMLEntry@@@std@@@std@@IAE@XZ PROC ; std::_Container_base_aux_alloc_empty<std::allocator<CvMilitaryAIStrategyXMLEntry *> >::~_Container_base_aux_alloc_empty<std::allocator<CvMilitaryAIStrategyXMLEntry *> >, COMDAT
; _this$ = ecx

; 627  : 	~_Container_base_aux_alloc_empty() { }

	ret	0
??1?$_Container_base_aux_alloc_empty@V?$allocator@PAVCvMilitaryAIStrategyXMLEntry@@@std@@@std@@IAE@XZ ENDP ; std::_Container_base_aux_alloc_empty<std::allocator<CvMilitaryAIStrategyXMLEntry *> >::~_Container_base_aux_alloc_empty<std::allocator<CvMilitaryAIStrategyXMLEntry *> >
_TEXT	ENDS
PUBLIC	??0?$allocator@PAVCvMilitaryAIStrategyXMLEntry@@@std@@QAE@XZ ; std::allocator<CvMilitaryAIStrategyXMLEntry *>::allocator<CvMilitaryAIStrategyXMLEntry *>
; Function compile flags: /Ogtpy
; File c:\program files (x86)\microsoft visual studio 9.0\vc\include\xmemory
;	COMDAT ??0?$allocator@PAVCvMilitaryAIStrategyXMLEntry@@@std@@QAE@XZ
_TEXT	SEGMENT
??0?$allocator@PAVCvMilitaryAIStrategyXMLEntry@@@std@@QAE@XZ PROC ; std::allocator<CvMilitaryAIStrategyXMLEntry *>::allocator<CvMilitaryAIStrategyXMLEntry *>, COMDAT
; _this$ = ecx

; 119  : 	allocator() _THROW0()

	mov	eax, ecx

; 120  : 		{	// construct default allocator (do nothing)
; 121  : 		}

	ret	0
??0?$allocator@PAVCvMilitaryAIStrategyXMLEntry@@@std@@QAE@XZ ENDP ; std::allocator<CvMilitaryAIStrategyXMLEntry *>::allocator<CvMilitaryAIStrategyXMLEntry *>
_TEXT	ENDS
PUBLIC	??D?$_Vector_const_iterator@PAVCvMilitaryAIStrategyXMLEntry@@V?$allocator@PAVCvMilitaryAIStrategyXMLEntry@@@std@@@std@@QBEABQAVCvMilitaryAIStrategyXMLEntry@@XZ ; std::_Vector_const_iterator<CvMilitaryAIStrategyXMLEntry *,std::allocator<CvMilitaryAIStrategyXMLEntry *> >::operator*
; Function compile flags: /Ogtpy
; File c:\program files (x86)\microsoft visual studio 9.0\vc\include\vector
;	COMDAT ??D?$_Vector_const_iterator@PAVCvMilitaryAIStrategyXMLEntry@@V?$allocator@PAVCvMilitaryAIStrategyXMLEntry@@@std@@@std@@QBEABQAVCvMilitaryAIStrategyXMLEntry@@XZ
_TEXT	SEGMENT
??D?$_Vector_const_iterator@PAVCvMilitaryAIStrategyXMLEntry@@V?$allocator@PAVCvMilitaryAIStrategyXMLEntry@@@std@@@std@@QBEABQAVCvMilitaryAIStrategyXMLEntry@@XZ PROC ; std::_Vector_const_iterator<CvMilitaryAIStrategyXMLEntry *,std::allocator<CvMilitaryAIStrategyXMLEntry *> >::operator*, COMDAT
; _this$ = ecx

; 92   : 
; 93   :  #if _HAS_ITERATOR_DEBUGGING
; 94   : 		if (this->_Mycont == 0
; 95   : 			|| _Myptr < ((_Myvec *)this->_Mycont)->_Myfirst
; 96   : 			|| ((_Myvec *)this->_Mycont)->_Mylast <= _Myptr)
; 97   : 			{
; 98   : 			_DEBUG_ERROR("vector iterator not dereferencable");
; 99   : 			_SCL_SECURE_OUT_OF_RANGE;
; 100  : 			}
; 101  :  #else
; 102  :  		_SCL_SECURE_VALIDATE(this->_Has_container());
; 103  : 		_SCL_SECURE_VALIDATE_RANGE(_Myptr < ((_Myvec *)(this->_Getmycont()))->_Mylast);
; 104  :  #endif /* _HAS_ITERATOR_DEBUGGING */
; 105  : 
; 106  : 		return (*_Myptr);

	mov	eax, DWORD PTR [ecx]

; 107  : 		}

	ret	0
??D?$_Vector_const_iterator@PAVCvMilitaryAIStrategyXMLEntry@@V?$allocator@PAVCvMilitaryAIStrategyXMLEntry@@@std@@@std@@QBEABQAVCvMilitaryAIStrategyXMLEntry@@XZ ENDP ; std::_Vector_const_iterator<CvMilitaryAIStrategyXMLEntry *,std::allocator<CvMilitaryAIStrategyXMLEntry *> >::operator*
_TEXT	ENDS
PUBLIC	??E?$_Vector_const_iterator@PAVCvMilitaryAIStrategyXMLEntry@@V?$allocator@PAVCvMilitaryAIStrategyXMLEntry@@@std@@@std@@QAEAAV01@XZ ; std::_Vector_const_iterator<CvMilitaryAIStrategyXMLEntry *,std::allocator<CvMilitaryAIStrategyXMLEntry *> >::operator++
; Function compile flags: /Ogtpy
;	COMDAT ??E?$_Vector_const_iterator@PAVCvMilitaryAIStrategyXMLEntry@@V?$allocator@PAVCvMilitaryAIStrategyXMLEntry@@@std@@@std@@QAEAAV01@XZ
_TEXT	SEGMENT
??E?$_Vector_const_iterator@PAVCvMilitaryAIStrategyXMLEntry@@V?$allocator@PAVCvMilitaryAIStrategyXMLEntry@@@std@@@std@@QAEAAV01@XZ PROC ; std::_Vector_const_iterator<CvMilitaryAIStrategyXMLEntry *,std::allocator<CvMilitaryAIStrategyXMLEntry *> >::operator++, COMDAT
; _this$ = ecx

; 115  : 		{	// preincrement

	mov	eax, ecx

; 116  : 		_SCL_SECURE_VALIDATE(this->_Has_container());
; 117  : 		_SCL_SECURE_VALIDATE_RANGE(_Myptr < ((_Myvec *)(this->_Getmycont()))->_Mylast);
; 118  : 
; 119  :  #if _HAS_ITERATOR_DEBUGGING
; 120  : 		if (this->_Mycont == 0
; 121  : 			|| ((_Myvec *)this->_Mycont)->_Mylast <= _Myptr)
; 122  : 			_DEBUG_ERROR("vector iterator not incrementable");
; 123  :  #endif /* _HAS_ITERATOR_DEBUGGING */
; 124  : 
; 125  : 		++_Myptr;

	add	DWORD PTR [eax], 4

; 126  : 		return (*this);
; 127  : 		}

	ret	0
??E?$_Vector_const_iterator@PAVCvMilitaryAIStrategyXMLEntry@@V?$allocator@PAVCvMilitaryAIStrategyXMLEntry@@@std@@@std@@QAEAAV01@XZ ENDP ; std::_Vector_const_iterator<CvMilitaryAIStrategyXMLEntry *,std::allocator<CvMilitaryAIStrategyXMLEntry *> >::operator++
_TEXT	ENDS
PUBLIC	??8?$_Vector_const_iterator@PAVCvMilitaryAIStrategyXMLEntry@@V?$allocator@PAVCvMilitaryAIStrategyXMLEntry@@@std@@@std@@QBE_NABV01@@Z ; std::_Vector_const_iterator<CvMilitaryAIStrategyXMLEntry *,std::allocator<CvMilitaryAIStrategyXMLEntry *> >::operator==
; Function compile flags: /Ogtpy
;	COMDAT ??8?$_Vector_const_iterator@PAVCvMilitaryAIStrategyXMLEntry@@V?$allocator@PAVCvMilitaryAIStrategyXMLEntry@@@std@@@std@@QBE_NABV01@@Z
_TEXT	SEGMENT
__Right$ = 8						; size = 4
??8?$_Vector_const_iterator@PAVCvMilitaryAIStrategyXMLEntry@@V?$allocator@PAVCvMilitaryAIStrategyXMLEntry@@@std@@@std@@QBE_NABV01@@Z PROC ; std::_Vector_const_iterator<CvMilitaryAIStrategyXMLEntry *,std::allocator<CvMilitaryAIStrategyXMLEntry *> >::operator==, COMDAT
; _this$ = ecx

; 204  : 
; 205  :  #if _HAS_ITERATOR_DEBUGGING
; 206  : 		_Compat(_Right);
; 207  :  #else
; 208  : 		_SCL_SECURE_VALIDATE(this->_Has_container() && this->_Same_container(_Right));
; 209  :  #endif /* _HAS_ITERATOR_DEBUGGING */
; 210  : 
; 211  : 		return (_Myptr == _Right._Myptr);

	mov	eax, DWORD PTR [ecx]
	mov	edx, DWORD PTR __Right$[esp-4]
	xor	ecx, ecx
	cmp	eax, DWORD PTR [edx]
	sete	cl
	mov	al, cl

; 212  : 		}

	ret	4
??8?$_Vector_const_iterator@PAVCvMilitaryAIStrategyXMLEntry@@V?$allocator@PAVCvMilitaryAIStrategyXMLEntry@@@std@@@std@@QBE_NABV01@@Z ENDP ; std::_Vector_const_iterator<CvMilitaryAIStrategyXMLEntry *,std::allocator<CvMilitaryAIStrategyXMLEntry *> >::operator==
_TEXT	ENDS
PUBLIC	??A?$BaseVector@UWeightedElement@?$CvWeightedVector@UCvMilitaryTarget@@$0CIA@$00@@$00@@QAEAAUWeightedElement@?$CvWeightedVector@UCvMilitaryTarget@@$0CIA@$00@@I@Z ; BaseVector<CvWeightedVector<CvMilitaryTarget,640,1>::WeightedElement,1>::operator[]
; Function compile flags: /Ogtpy
; File c:\users\enormousapplepie\documents\github\lekmod\lekmod_dll\fireplace\include\fireworks\ffastvector.h
;	COMDAT ??A?$BaseVector@UWeightedElement@?$CvWeightedVector@UCvMilitaryTarget@@$0CIA@$00@@$00@@QAEAAUWeightedElement@?$CvWeightedVector@UCvMilitaryTarget@@$0CIA@$00@@I@Z
_TEXT	SEGMENT
_ui$ = 8						; size = 4
??A?$BaseVector@UWeightedElement@?$CvWeightedVector@UCvMilitaryTarget@@$0CIA@$00@@$00@@QAEAAUWeightedElement@?$CvWeightedVector@UCvMilitaryTarget@@$0CIA@$00@@I@Z PROC ; BaseVector<CvWeightedVector<CvMilitaryTarget,640,1>::WeightedElement,1>::operator[], COMDAT
; _this$ = ecx

; 129  : 		FAssert(ui < m_uiCurrSize);
; 130  : 		return m_pData[ui];

	mov	eax, DWORD PTR _ui$[esp-4]
	lea	edx, DWORD PTR [eax*8]
	sub	edx, eax
	mov	eax, DWORD PTR [ecx]
	lea	eax, DWORD PTR [eax+edx*4]

; 131  : 	};

	ret	4
??A?$BaseVector@UWeightedElement@?$CvWeightedVector@UCvMilitaryTarget@@$0CIA@$00@@$00@@QAEAAUWeightedElement@?$CvWeightedVector@UCvMilitaryTarget@@$0CIA@$00@@I@Z ENDP ; BaseVector<CvWeightedVector<CvMilitaryTarget,640,1>::WeightedElement,1>::operator[]
_TEXT	ENDS
PUBLIC	??A?$BaseVector@UWeightedElement@?$CvWeightedVector@UCvMilitaryTarget@@$0CIA@$00@@$00@@QBEABUWeightedElement@?$CvWeightedVector@UCvMilitaryTarget@@$0CIA@$00@@I@Z ; BaseVector<CvWeightedVector<CvMilitaryTarget,640,1>::WeightedElement,1>::operator[]
; Function compile flags: /Ogtpy
;	COMDAT ??A?$BaseVector@UWeightedElement@?$CvWeightedVector@UCvMilitaryTarget@@$0CIA@$00@@$00@@QBEABUWeightedElement@?$CvWeightedVector@UCvMilitaryTarget@@$0CIA@$00@@I@Z
_TEXT	SEGMENT
_ui$ = 8						; size = 4
??A?$BaseVector@UWeightedElement@?$CvWeightedVector@UCvMilitaryTarget@@$0CIA@$00@@$00@@QBEABUWeightedElement@?$CvWeightedVector@UCvMilitaryTarget@@$0CIA@$00@@I@Z PROC ; BaseVector<CvWeightedVector<CvMilitaryTarget,640,1>::WeightedElement,1>::operator[], COMDAT
; _this$ = ecx

; 135  : 		FAssert(ui < m_uiCurrSize);
; 136  : 		return m_pData[ui];

	mov	eax, DWORD PTR _ui$[esp-4]
	lea	edx, DWORD PTR [eax*8]
	sub	edx, eax
	mov	eax, DWORD PTR [ecx]
	lea	eax, DWORD PTR [eax+edx*4]

; 137  : 	};

	ret	4
??A?$BaseVector@UWeightedElement@?$CvWeightedVector@UCvMilitaryTarget@@$0CIA@$00@@$00@@QBEABUWeightedElement@?$CvWeightedVector@UCvMilitaryTarget@@$0CIA@$00@@I@Z ENDP ; BaseVector<CvWeightedVector<CvMilitaryTarget,640,1>::WeightedElement,1>::operator[]
_TEXT	ENDS
PUBLIC	?size@?$BaseVector@UWeightedElement@?$CvWeightedVector@UCvMilitaryTarget@@$0CIA@$00@@$00@@QBEIXZ ; BaseVector<CvWeightedVector<CvMilitaryTarget,640,1>::WeightedElement,1>::size
; Function compile flags: /Ogtpy
;	COMDAT ?size@?$BaseVector@UWeightedElement@?$CvWeightedVector@UCvMilitaryTarget@@$0CIA@$00@@$00@@QBEIXZ
_TEXT	SEGMENT
?size@?$BaseVector@UWeightedElement@?$CvWeightedVector@UCvMilitaryTarget@@$0CIA@$00@@$00@@QBEIXZ PROC ; BaseVector<CvWeightedVector<CvMilitaryTarget,640,1>::WeightedElement,1>::size, COMDAT
; _this$ = ecx

; 169  : 		return m_uiCurrSize;

	mov	eax, DWORD PTR [ecx+4]

; 170  : 	};

	ret	0
?size@?$BaseVector@UWeightedElement@?$CvWeightedVector@UCvMilitaryTarget@@$0CIA@$00@@$00@@QBEIXZ ENDP ; BaseVector<CvWeightedVector<CvMilitaryTarget,640,1>::WeightedElement,1>::size
_TEXT	ENDS
PUBLIC	?begin@?$BaseVector@UWeightedElement@?$CvWeightedVector@UCvMilitaryTarget@@$0CIA@$00@@$00@@QAEPAUWeightedElement@?$CvWeightedVector@UCvMilitaryTarget@@$0CIA@$00@@XZ ; BaseVector<CvWeightedVector<CvMilitaryTarget,640,1>::WeightedElement,1>::begin
; Function compile flags: /Ogtpy
;	COMDAT ?begin@?$BaseVector@UWeightedElement@?$CvWeightedVector@UCvMilitaryTarget@@$0CIA@$00@@$00@@QAEPAUWeightedElement@?$CvWeightedVector@UCvMilitaryTarget@@$0CIA@$00@@XZ
_TEXT	SEGMENT
?begin@?$BaseVector@UWeightedElement@?$CvWeightedVector@UCvMilitaryTarget@@$0CIA@$00@@$00@@QAEPAUWeightedElement@?$CvWeightedVector@UCvMilitaryTarget@@$0CIA@$00@@XZ PROC ; BaseVector<CvWeightedVector<CvMilitaryTarget,640,1>::WeightedElement,1>::begin, COMDAT
; _this$ = ecx

; 194  :         return m_pData; 

	mov	eax, DWORD PTR [ecx]

; 195  :     };

	ret	0
?begin@?$BaseVector@UWeightedElement@?$CvWeightedVector@UCvMilitaryTarget@@$0CIA@$00@@$00@@QAEPAUWeightedElement@?$CvWeightedVector@UCvMilitaryTarget@@$0CIA@$00@@XZ ENDP ; BaseVector<CvWeightedVector<CvMilitaryTarget,640,1>::WeightedElement,1>::begin
_TEXT	ENDS
PUBLIC	?end@?$BaseVector@UWeightedElement@?$CvWeightedVector@UCvMilitaryTarget@@$0CIA@$00@@$00@@QAEPAUWeightedElement@?$CvWeightedVector@UCvMilitaryTarget@@$0CIA@$00@@XZ ; BaseVector<CvWeightedVector<CvMilitaryTarget,640,1>::WeightedElement,1>::end
; Function compile flags: /Ogtpy
;	COMDAT ?end@?$BaseVector@UWeightedElement@?$CvWeightedVector@UCvMilitaryTarget@@$0CIA@$00@@$00@@QAEPAUWeightedElement@?$CvWeightedVector@UCvMilitaryTarget@@$0CIA@$00@@XZ
_TEXT	SEGMENT
?end@?$BaseVector@UWeightedElement@?$CvWeightedVector@UCvMilitaryTarget@@$0CIA@$00@@$00@@QAEPAUWeightedElement@?$CvWeightedVector@UCvMilitaryTarget@@$0CIA@$00@@XZ PROC ; BaseVector<CvWeightedVector<CvMilitaryTarget,640,1>::WeightedElement,1>::end, COMDAT
; _this$ = ecx

; 197  :         return m_pData+m_uiCurrSize; 

	mov	eax, DWORD PTR [ecx+4]
	lea	edx, DWORD PTR [eax*8]
	sub	edx, eax
	mov	eax, DWORD PTR [ecx]
	lea	eax, DWORD PTR [eax+edx*4]

; 198  :     };

	ret	0
?end@?$BaseVector@UWeightedElement@?$CvWeightedVector@UCvMilitaryTarget@@$0CIA@$00@@$00@@QAEPAUWeightedElement@?$CvWeightedVector@UCvMilitaryTarget@@$0CIA@$00@@XZ ENDP ; BaseVector<CvWeightedVector<CvMilitaryTarget,640,1>::WeightedElement,1>::end
_TEXT	ENDS
PUBLIC	??0WeightedElement@?$CvWeightedVector@UCvMilitaryTarget@@$0CIA@$00@@QAE@XZ ; CvWeightedVector<CvMilitaryTarget,640,1>::WeightedElement::WeightedElement
; Function compile flags: /Ogtpy
; File c:\users\enormousapplepie\documents\github\lekmod\lekmod_dll\cvgamecoredllutil\include\cvweightedvector.h
;	COMDAT ??0WeightedElement@?$CvWeightedVector@UCvMilitaryTarget@@$0CIA@$00@@QAE@XZ
_TEXT	SEGMENT
??0WeightedElement@?$CvWeightedVector@UCvMilitaryTarget@@$0CIA@$00@@QAE@XZ PROC ; CvWeightedVector<CvMilitaryTarget,640,1>::WeightedElement::WeightedElement, COMDAT
; _this$ = ecx

; 31   : 		{

	mov	eax, ecx
	xor	ecx, ecx
	mov	DWORD PTR [eax], ecx
	mov	DWORD PTR [eax+4], ecx
	mov	DWORD PTR [eax+8], ecx
	mov	DWORD PTR [eax+12], ecx
	mov	DWORD PTR [eax+16], ecx
	mov	BYTE PTR [eax+20], cl
	mov	DWORD PTR [eax+24], ecx

; 32   : 		}

	ret	0
??0WeightedElement@?$CvWeightedVector@UCvMilitaryTarget@@$0CIA@$00@@QAE@XZ ENDP ; CvWeightedVector<CvMilitaryTarget,640,1>::WeightedElement::WeightedElement
_TEXT	ENDS
PUBLIC	??0WeightedElement@?$CvWeightedVector@UCvMilitaryTarget@@$0CIA@$00@@QAE@ABU01@@Z ; CvWeightedVector<CvMilitaryTarget,640,1>::WeightedElement::WeightedElement
; Function compile flags: /Ogtpy
;	COMDAT ??0WeightedElement@?$CvWeightedVector@UCvMilitaryTarget@@$0CIA@$00@@QAE@ABU01@@Z
_TEXT	SEGMENT
_source$ = 8						; size = 4
??0WeightedElement@?$CvWeightedVector@UCvMilitaryTarget@@$0CIA@$00@@QAE@ABU01@@Z PROC ; CvWeightedVector<CvMilitaryTarget,640,1>::WeightedElement::WeightedElement, COMDAT
; _this$ = ecx

; 37   : 		{

	mov	eax, ecx
	mov	ecx, DWORD PTR _source$[esp-4]
	mov	edx, DWORD PTR [ecx]
	mov	DWORD PTR [eax], edx
	mov	edx, DWORD PTR [ecx+4]
	mov	DWORD PTR [eax+4], edx
	mov	edx, DWORD PTR [ecx+8]
	mov	DWORD PTR [eax+8], edx
	mov	edx, DWORD PTR [ecx+12]
	mov	DWORD PTR [eax+12], edx
	mov	edx, DWORD PTR [ecx+16]
	mov	DWORD PTR [eax+16], edx
	mov	edx, DWORD PTR [ecx+20]
	mov	DWORD PTR [eax+20], edx
	mov	ecx, DWORD PTR [ecx+24]
	mov	DWORD PTR [eax+24], ecx

; 38   : 		}

	ret	4
??0WeightedElement@?$CvWeightedVector@UCvMilitaryTarget@@$0CIA@$00@@QAE@ABU01@@Z ENDP ; CvWeightedVector<CvMilitaryTarget,640,1>::WeightedElement::WeightedElement
_TEXT	ENDS
PUBLIC	??1?$BaseVector@PAVCvCity@@$0A@@@QAE@XZ		; BaseVector<CvCity *,0>::~BaseVector<CvCity *,0>
; Function compile flags: /Ogtpy
; File c:\users\enormousapplepie\documents\github\lekmod\lekmod_dll\fireplace\include\fireworks\ffastvector.h
;	COMDAT ??1?$BaseVector@PAVCvCity@@$0A@@@QAE@XZ
_TEXT	SEGMENT
??1?$BaseVector@PAVCvCity@@$0A@@@QAE@XZ PROC		; BaseVector<CvCity *,0>::~BaseVector<CvCity *,0>, COMDAT
; _this$ = ecx

; 111  : 	~BaseVector(){};

	ret	0
??1?$BaseVector@PAVCvCity@@$0A@@@QAE@XZ ENDP		; BaseVector<CvCity *,0>::~BaseVector<CvCity *,0>
_TEXT	ENDS
PUBLIC	??0?$BaseVector@PAVCvCity@@$0A@@@IAE@XZ		; BaseVector<CvCity *,0>::BaseVector<CvCity *,0>
; Function compile flags: /Ogtpy
;	COMDAT ??0?$BaseVector@PAVCvCity@@$0A@@@IAE@XZ
_TEXT	SEGMENT
??0?$BaseVector@PAVCvCity@@$0A@@@IAE@XZ PROC		; BaseVector<CvCity *,0>::BaseVector<CvCity *,0>, COMDAT
; _this$ = ecx

; 216  : 	BaseVector() : m_uiCurrSize(0), m_uiCurrMaxSize(0), m_pData(NULL) {};

	mov	eax, ecx
	xor	ecx, ecx
	mov	DWORD PTR [eax], ecx
	mov	DWORD PTR [eax+4], ecx
	mov	DWORD PTR [eax+8], ecx
	ret	0
??0?$BaseVector@PAVCvCity@@$0A@@@IAE@XZ ENDP		; BaseVector<CvCity *,0>::BaseVector<CvCity *,0>
_TEXT	ENDS
PUBLIC	??_C@_0GH@ECFAPJEJ@c?3?2users?2enormousapplepie?2docume@ ; `string'
PUBLIC	?Alloc@?$FStaticVector@VCvFormationSlotEntry@@$09$0A@$0BCJ@$0A@@@IAEPAVCvFormationSlotEntry@@I@Z ; FStaticVector<CvFormationSlotEntry,10,0,297,0>::Alloc
EXTRN	?FireMallocAlignedNoTracking@@YAPAXIIPBDH@Z:PROC ; FireMallocAlignedNoTracking
;	COMDAT ??_C@_0GH@ECFAPJEJ@c?3?2users?2enormousapplepie?2docume@
CONST	SEGMENT
??_C@_0GH@ECFAPJEJ@c?3?2users?2enormousapplepie?2docume@ DB 'c:\users\eno'
	DB	'rmousapplepie\documents\github\lekmod\lekmod_dll\fireplace\in'
	DB	'clude\fireworks\FFastVector.h', 00H		; `string'
; Function compile flags: /Ogtpy
CONST	ENDS
;	COMDAT ?Alloc@?$FStaticVector@VCvFormationSlotEntry@@$09$0A@$0BCJ@$0A@@@IAEPAVCvFormationSlotEntry@@I@Z
_TEXT	SEGMENT
_uiSize$ = 8						; size = 4
?Alloc@?$FStaticVector@VCvFormationSlotEntry@@$09$0A@$0BCJ@$0A@@@IAEPAVCvFormationSlotEntry@@I@Z PROC ; FStaticVector<CvFormationSlotEntry,10,0,297,0>::Alloc, COMDAT
; _this$ = ecx

; 795  : 	T* Alloc(unsigned int uiSize){

	push	esi
	push	edi

; 796  : 		T* pRet;
; 797  : 		if( uiSize > L ){

	mov	edi, DWORD PTR _uiSize$[esp+4]
	mov	esi, ecx
	cmp	edi, 10					; 0000000aH
	jbe	SHORT $LN2@Alloc

; 798  : 			pRet = (T*)FMALLOCALIGNED( uiSize*sizeof(T), __alignof(T), AllocPool, nSubID );

	push	798					; 0000031eH
	push	OFFSET ??_C@_0GH@ECFAPJEJ@c?3?2users?2enormousapplepie?2docume@
	mov	eax, edi
	shl	eax, 4
	push	4
	push	eax
	call	?FireMallocAlignedNoTracking@@YAPAXIIPBDH@Z ; FireMallocAlignedNoTracking
	add	esp, 16					; 00000010H

; 799  : 			m_uiCurrMaxSize = uiSize;

	mov	DWORD PTR [esi+8], edi
	pop	edi
	pop	esi

; 803  : 		}
; 804  : 		return pRet;
; 805  : 	};

	ret	4
$LN2@Alloc:
	pop	edi

; 800  : 		}else{
; 801  : 			pRet = (T*)m_aData;

	lea	eax, DWORD PTR [esi+12]

; 802  : 			m_uiCurrMaxSize = L;

	mov	DWORD PTR [esi+8], 10			; 0000000aH
	pop	esi

; 803  : 		}
; 804  : 		return pRet;
; 805  : 	};

	ret	4
?Alloc@?$FStaticVector@VCvFormationSlotEntry@@$09$0A@$0BCJ@$0A@@@IAEPAVCvFormationSlotEntry@@I@Z ENDP ; FStaticVector<CvFormationSlotEntry,10,0,297,0>::Alloc
_TEXT	ENDS
PUBLIC	??1?$BaseVector@VCvFormationSlotEntry@@$0A@@@QAE@XZ ; BaseVector<CvFormationSlotEntry,0>::~BaseVector<CvFormationSlotEntry,0>
; Function compile flags: /Ogtpy
;	COMDAT ??1?$BaseVector@VCvFormationSlotEntry@@$0A@@@QAE@XZ
_TEXT	SEGMENT
??1?$BaseVector@VCvFormationSlotEntry@@$0A@@@QAE@XZ PROC ; BaseVector<CvFormationSlotEntry,0>::~BaseVector<CvFormationSlotEntry,0>, COMDAT
; _this$ = ecx

; 111  : 	~BaseVector(){};

	ret	0
??1?$BaseVector@VCvFormationSlotEntry@@$0A@@@QAE@XZ ENDP ; BaseVector<CvFormationSlotEntry,0>::~BaseVector<CvFormationSlotEntry,0>
_TEXT	ENDS
PUBLIC	??0?$BaseVector@VCvFormationSlotEntry@@$0A@@@IAE@XZ ; BaseVector<CvFormationSlotEntry,0>::BaseVector<CvFormationSlotEntry,0>
; Function compile flags: /Ogtpy
;	COMDAT ??0?$BaseVector@VCvFormationSlotEntry@@$0A@@@IAE@XZ
_TEXT	SEGMENT
??0?$BaseVector@VCvFormationSlotEntry@@$0A@@@IAE@XZ PROC ; BaseVector<CvFormationSlotEntry,0>::BaseVector<CvFormationSlotEntry,0>, COMDAT
; _this$ = ecx

; 216  : 	BaseVector() : m_uiCurrSize(0), m_uiCurrMaxSize(0), m_pData(NULL) {};

	mov	eax, ecx
	xor	ecx, ecx
	mov	DWORD PTR [eax], ecx
	mov	DWORD PTR [eax+4], ecx
	mov	DWORD PTR [eax+8], ecx
	ret	0
??0?$BaseVector@VCvFormationSlotEntry@@$0A@@@IAE@XZ ENDP ; BaseVector<CvFormationSlotEntry,0>::BaseVector<CvFormationSlotEntry,0>
_TEXT	ENDS
PUBLIC	__TI3?AVlength_error@std@@
PUBLIC	??_C@_0BD@OLBABOEK@vector?$DMT?$DO?5too?5long?$AA@ ; `string'
PUBLIC	?_Xlen@?$vector@PAVCvMilitaryAIStrategyXMLEntry@@V?$allocator@PAVCvMilitaryAIStrategyXMLEntry@@@std@@@std@@KAXXZ ; std::vector<CvMilitaryAIStrategyXMLEntry *,std::allocator<CvMilitaryAIStrategyXMLEntry *> >::_Xlen
PUBLIC	__CTA3?AVlength_error@std@@
PUBLIC	__CT??_R0?AVlength_error@std@@@8??0length_error@std@@QAE@ABV01@@Z40
PUBLIC	??0length_error@std@@QAE@ABV01@@Z		; std::length_error::length_error
PUBLIC	__CT??_R0?AVlogic_error@std@@@8??0logic_error@std@@QAE@ABV01@@Z40
PUBLIC	??0logic_error@std@@QAE@ABV01@@Z		; std::logic_error::logic_error
PUBLIC	__CT??_R0?AVexception@std@@@8??0exception@std@@QAE@ABV01@@Z12
EXTRN	__imp_??0?$basic_string@DU?$char_traits@D@std@@V?$allocator@D@2@@std@@QAE@PBD@Z:PROC
EXTRN	__CxxThrowException@8:PROC
EXTRN	??0exception@std@@QAE@ABV01@@Z:PROC		; std::exception::exception
;	COMDAT __CT??_R0?AVexception@std@@@8??0exception@std@@QAE@ABV01@@Z12
; File c:\program files (x86)\microsoft visual studio 9.0\vc\include\stdexcept
xdata$x	SEGMENT
__CT??_R0?AVexception@std@@@8??0exception@std@@QAE@ABV01@@Z12 DD 00H
	DD	FLAT:??_R0?AVexception@std@@@8
	DD	00H
	DD	0ffffffffH
	ORG $+4
	DD	0cH
	DD	FLAT:??0exception@std@@QAE@ABV01@@Z
xdata$x	ENDS
;	COMDAT __CT??_R0?AVlogic_error@std@@@8??0logic_error@std@@QAE@ABV01@@Z40
xdata$x	SEGMENT
__CT??_R0?AVlogic_error@std@@@8??0logic_error@std@@QAE@ABV01@@Z40 DD 00H
	DD	FLAT:??_R0?AVlogic_error@std@@@8
	DD	00H
	DD	0ffffffffH
	ORG $+4
	DD	028H
	DD	FLAT:??0logic_error@std@@QAE@ABV01@@Z
xdata$x	ENDS
;	COMDAT __CT??_R0?AVlength_error@std@@@8??0length_error@std@@QAE@ABV01@@Z40
xdata$x	SEGMENT
__CT??_R0?AVlength_error@std@@@8??0length_error@std@@QAE@ABV01@@Z40 DD 00H
	DD	FLAT:??_R0?AVlength_error@std@@@8
	DD	00H
	DD	0ffffffffH
	ORG $+4
	DD	028H
	DD	FLAT:??0length_error@std@@QAE@ABV01@@Z
xdata$x	ENDS
;	COMDAT __CTA3?AVlength_error@std@@
xdata$x	SEGMENT
__CTA3?AVlength_error@std@@ DD 03H
	DD	FLAT:__CT??_R0?AVlength_error@std@@@8??0length_error@std@@QAE@ABV01@@Z40
	DD	FLAT:__CT??_R0?AVlogic_error@std@@@8??0logic_error@std@@QAE@ABV01@@Z40
	DD	FLAT:__CT??_R0?AVexception@std@@@8??0exception@std@@QAE@ABV01@@Z12
xdata$x	ENDS
;	COMDAT __TI3?AVlength_error@std@@
xdata$x	SEGMENT
__TI3?AVlength_error@std@@ DD 00H
	DD	FLAT:??1length_error@std@@UAE@XZ
	DD	00H
	DD	FLAT:__CTA3?AVlength_error@std@@
xdata$x	ENDS
;	COMDAT ??_C@_0BD@OLBABOEK@vector?$DMT?$DO?5too?5long?$AA@
CONST	SEGMENT
??_C@_0BD@OLBABOEK@vector?$DMT?$DO?5too?5long?$AA@ DB 'vector<T> too long'
	DB	00H						; `string'
CONST	ENDS
;	COMDAT xdata$x
xdata$x	SEGMENT
__unwindtable$?_Xlen@?$vector@PAVCvMilitaryAIStrategyXMLEntry@@V?$allocator@PAVCvMilitaryAIStrategyXMLEntry@@@std@@@std@@KAXXZ DD 0ffffffffH
	DD	FLAT:__unwindfunclet$?_Xlen@?$vector@PAVCvMilitaryAIStrategyXMLEntry@@V?$allocator@PAVCvMilitaryAIStrategyXMLEntry@@@std@@@std@@KAXXZ$0
	DD	00H
	DD	FLAT:__unwindfunclet$?_Xlen@?$vector@PAVCvMilitaryAIStrategyXMLEntry@@V?$allocator@PAVCvMilitaryAIStrategyXMLEntry@@@std@@@std@@KAXXZ$2
__ehfuncinfo$?_Xlen@?$vector@PAVCvMilitaryAIStrategyXMLEntry@@V?$allocator@PAVCvMilitaryAIStrategyXMLEntry@@@std@@@std@@KAXXZ DD 019930522H
	DD	02H
	DD	FLAT:__unwindtable$?_Xlen@?$vector@PAVCvMilitaryAIStrategyXMLEntry@@V?$allocator@PAVCvMilitaryAIStrategyXMLEntry@@@std@@@std@@KAXXZ
	DD	2 DUP(00H)
	DD	2 DUP(00H)
	DD	00H
	DD	01H
; Function compile flags: /Ogtpy
; File c:\program files (x86)\microsoft visual studio 9.0\vc\include\vector
xdata$x	ENDS
;	COMDAT ?_Xlen@?$vector@PAVCvMilitaryAIStrategyXMLEntry@@V?$allocator@PAVCvMilitaryAIStrategyXMLEntry@@@std@@@std@@KAXXZ
_TEXT	SEGMENT
$T231131 = -80						; size = 28
$T231130 = -52						; size = 40
__$EHRec$ = -12						; size = 12
?_Xlen@?$vector@PAVCvMilitaryAIStrategyXMLEntry@@V?$allocator@PAVCvMilitaryAIStrategyXMLEntry@@@std@@@std@@KAXXZ PROC ; std::vector<CvMilitaryAIStrategyXMLEntry *,std::allocator<CvMilitaryAIStrategyXMLEntry *> >::_Xlen, COMDAT

; 1259 : 		{	// report a length_error

	push	-1
	push	__ehhandler$?_Xlen@?$vector@PAVCvMilitaryAIStrategyXMLEntry@@V?$allocator@PAVCvMilitaryAIStrategyXMLEntry@@@std@@@std@@KAXXZ
	mov	eax, DWORD PTR fs:0
	push	eax
	mov	DWORD PTR fs:0, esp
	sub	esp, 68					; 00000044H

; 1260 : 		_THROW(length_error, "vector<T> too long");

	push	OFFSET ??_C@_0BD@OLBABOEK@vector?$DMT?$DO?5too?5long?$AA@
	lea	ecx, DWORD PTR $T231131[esp+84]
	call	DWORD PTR __imp_??0?$basic_string@DU?$char_traits@D@std@@V?$allocator@D@2@@std@@QAE@PBD@Z
	lea	ecx, DWORD PTR $T231130[esp+80]
	mov	DWORD PTR __$EHRec$[esp+88], 0
	call	DWORD PTR __imp_??0exception@std@@QAE@XZ
	lea	eax, DWORD PTR $T231131[esp+80]
	push	eax
	lea	ecx, DWORD PTR $T231130[esp+96]
	mov	BYTE PTR __$EHRec$[esp+92], 1
	mov	DWORD PTR $T231130[esp+84], OFFSET ??_7logic_error@std@@6B@
	call	DWORD PTR __imp_??0?$basic_string@DU?$char_traits@D@std@@V?$allocator@D@2@@std@@QAE@ABV01@@Z
	push	OFFSET __TI3?AVlength_error@std@@
	lea	ecx, DWORD PTR $T231130[esp+84]
	push	ecx
	mov	BYTE PTR __$EHRec$[esp+96], 0
	mov	DWORD PTR $T231130[esp+88], OFFSET ??_7length_error@std@@6B@
	call	__CxxThrowException@8
$LN13@Xlen:
$LN12@Xlen:
	int	3
_TEXT	ENDS
;	COMDAT text$x
text$x	SEGMENT
__unwindfunclet$?_Xlen@?$vector@PAVCvMilitaryAIStrategyXMLEntry@@V?$allocator@PAVCvMilitaryAIStrategyXMLEntry@@@std@@@std@@KAXXZ$0:
	lea	ecx, DWORD PTR $T231131[ebp]
	jmp	DWORD PTR __imp_??1?$basic_string@DU?$char_traits@D@std@@V?$allocator@D@2@@std@@QAE@XZ
__unwindfunclet$?_Xlen@?$vector@PAVCvMilitaryAIStrategyXMLEntry@@V?$allocator@PAVCvMilitaryAIStrategyXMLEntry@@@std@@@std@@KAXXZ$2:
	lea	ecx, DWORD PTR $T231130[ebp]
	jmp	DWORD PTR __imp_??1exception@std@@UAE@XZ
__ehhandler$?_Xlen@?$vector@PAVCvMilitaryAIStrategyXMLEntry@@V?$allocator@PAVCvMilitaryAIStrategyXMLEntry@@@std@@@std@@KAXXZ:
	mov	eax, OFFSET __ehfuncinfo$?_Xlen@?$vector@PAVCvMilitaryAIStrategyXMLEntry@@V?$allocator@PAVCvMilitaryAIStrategyXMLEntry@@@std@@@std@@KAXXZ
	jmp	___CxxFrameHandler3
text$x	ENDS
?_Xlen@?$vector@PAVCvMilitaryAIStrategyXMLEntry@@V?$allocator@PAVCvMilitaryAIStrategyXMLEntry@@@std@@@std@@KAXXZ ENDP ; std::vector<CvMilitaryAIStrategyXMLEntry *,std::allocator<CvMilitaryAIStrategyXMLEntry *> >::_Xlen
PUBLIC	??0?$_Container_base_aux_alloc_empty@V?$allocator@PAVCvMilitaryAIStrategyXMLEntry@@@std@@@std@@IAE@V?$allocator@PAVCvMilitaryAIStrategyXMLEntry@@@1@@Z ; std::_Container_base_aux_alloc_empty<std::allocator<CvMilitaryAIStrategyXMLEntry *> >::_Container_base_aux_alloc_empty<std::allocator<CvMilitaryAIStrategyXMLEntry *> >
; Function compile flags: /Ogtpy
; File c:\program files (x86)\microsoft visual studio 9.0\vc\include\xutility
;	COMDAT ??0?$_Container_base_aux_alloc_empty@V?$allocator@PAVCvMilitaryAIStrategyXMLEntry@@@std@@@std@@IAE@V?$allocator@PAVCvMilitaryAIStrategyXMLEntry@@@1@@Z
_TEXT	SEGMENT
___formal$ = 8						; size = 1
??0?$_Container_base_aux_alloc_empty@V?$allocator@PAVCvMilitaryAIStrategyXMLEntry@@@std@@@std@@IAE@V?$allocator@PAVCvMilitaryAIStrategyXMLEntry@@@1@@Z PROC ; std::_Container_base_aux_alloc_empty<std::allocator<CvMilitaryAIStrategyXMLEntry *> >::_Container_base_aux_alloc_empty<std::allocator<CvMilitaryAIStrategyXMLEntry *> >, COMDAT
; _this$ = ecx

; 618  : 	explicit _Container_base_aux_alloc_empty(_Alloc) { }

	mov	eax, ecx
	ret	4
??0?$_Container_base_aux_alloc_empty@V?$allocator@PAVCvMilitaryAIStrategyXMLEntry@@@std@@@std@@IAE@V?$allocator@PAVCvMilitaryAIStrategyXMLEntry@@@1@@Z ENDP ; std::_Container_base_aux_alloc_empty<std::allocator<CvMilitaryAIStrategyXMLEntry *> >::_Container_base_aux_alloc_empty<std::allocator<CvMilitaryAIStrategyXMLEntry *> >
_TEXT	ENDS
PUBLIC	??0?$allocator@PAVCvMilitaryAIStrategyXMLEntry@@@std@@QAE@ABV01@@Z ; std::allocator<CvMilitaryAIStrategyXMLEntry *>::allocator<CvMilitaryAIStrategyXMLEntry *>
; Function compile flags: /Ogtpy
; File c:\program files (x86)\microsoft visual studio 9.0\vc\include\xmemory
;	COMDAT ??0?$allocator@PAVCvMilitaryAIStrategyXMLEntry@@@std@@QAE@ABV01@@Z
_TEXT	SEGMENT
___formal$ = 8						; size = 4
??0?$allocator@PAVCvMilitaryAIStrategyXMLEntry@@@std@@QAE@ABV01@@Z PROC ; std::allocator<CvMilitaryAIStrategyXMLEntry *>::allocator<CvMilitaryAIStrategyXMLEntry *>, COMDAT
; _this$ = ecx

; 123  : 	allocator(const allocator<_Ty>&) _THROW0()

	mov	eax, ecx

; 124  : 		{	// construct by copying (do nothing)
; 125  : 		}

	ret	4
??0?$allocator@PAVCvMilitaryAIStrategyXMLEntry@@@std@@QAE@ABV01@@Z ENDP ; std::allocator<CvMilitaryAIStrategyXMLEntry *>::allocator<CvMilitaryAIStrategyXMLEntry *>
_TEXT	ENDS
PUBLIC	?deallocate@?$allocator@PAVCvMilitaryAIStrategyXMLEntry@@@std@@QAEXPAPAVCvMilitaryAIStrategyXMLEntry@@I@Z ; std::allocator<CvMilitaryAIStrategyXMLEntry *>::deallocate
; Function compile flags: /Ogtpy
;	COMDAT ?deallocate@?$allocator@PAVCvMilitaryAIStrategyXMLEntry@@@std@@QAEXPAPAVCvMilitaryAIStrategyXMLEntry@@I@Z
_TEXT	SEGMENT
__Ptr$ = 8						; size = 4
___formal$ = 12						; size = 4
?deallocate@?$allocator@PAVCvMilitaryAIStrategyXMLEntry@@@std@@QAEXPAPAVCvMilitaryAIStrategyXMLEntry@@I@Z PROC ; std::allocator<CvMilitaryAIStrategyXMLEntry *>::deallocate, COMDAT
; _this$ = ecx

; 140  : 		::operator delete(_Ptr);

	mov	eax, DWORD PTR __Ptr$[esp-4]
	push	eax
	call	??3@YAXPAX@Z				; operator delete
	pop	ecx

; 141  : 		}

	ret	8
?deallocate@?$allocator@PAVCvMilitaryAIStrategyXMLEntry@@@std@@QAEXPAPAVCvMilitaryAIStrategyXMLEntry@@I@Z ENDP ; std::allocator<CvMilitaryAIStrategyXMLEntry *>::deallocate
_TEXT	ENDS
PUBLIC	??0?$_Vector_const_iterator@PAVCvMilitaryAIStrategyXMLEntry@@V?$allocator@PAVCvMilitaryAIStrategyXMLEntry@@@std@@@std@@QAE@PAPAVCvMilitaryAIStrategyXMLEntry@@@Z ; std::_Vector_const_iterator<CvMilitaryAIStrategyXMLEntry *,std::allocator<CvMilitaryAIStrategyXMLEntry *> >::_Vector_const_iterator<CvMilitaryAIStrategyXMLEntry *,std::allocator<CvMilitaryAIStrategyXMLEntry *> >
; Function compile flags: /Ogtpy
; File c:\program files (x86)\microsoft visual studio 9.0\vc\include\vector
;	COMDAT ??0?$_Vector_const_iterator@PAVCvMilitaryAIStrategyXMLEntry@@V?$allocator@PAVCvMilitaryAIStrategyXMLEntry@@@std@@@std@@QAE@PAPAVCvMilitaryAIStrategyXMLEntry@@@Z
_TEXT	SEGMENT
__Ptr$ = 8						; size = 4
??0?$_Vector_const_iterator@PAVCvMilitaryAIStrategyXMLEntry@@V?$allocator@PAVCvMilitaryAIStrategyXMLEntry@@@std@@@std@@QAE@PAPAVCvMilitaryAIStrategyXMLEntry@@@Z PROC ; std::_Vector_const_iterator<CvMilitaryAIStrategyXMLEntry *,std::allocator<CvMilitaryAIStrategyXMLEntry *> >::_Vector_const_iterator<CvMilitaryAIStrategyXMLEntry *,std::allocator<CvMilitaryAIStrategyXMLEntry *> >, COMDAT
; _this$ = ecx

; 84   : 	explicit _Vector_const_iterator(_Tptr _Ptr)

	mov	eax, ecx

; 85   : 		{	// construct with pointer _Ptr
; 86   : 		_Myptr = _Ptr;

	mov	ecx, DWORD PTR __Ptr$[esp-4]
	mov	DWORD PTR [eax], ecx

; 87   : 		}

	ret	4
??0?$_Vector_const_iterator@PAVCvMilitaryAIStrategyXMLEntry@@V?$allocator@PAVCvMilitaryAIStrategyXMLEntry@@@std@@@std@@QAE@PAPAVCvMilitaryAIStrategyXMLEntry@@@Z ENDP ; std::_Vector_const_iterator<CvMilitaryAIStrategyXMLEntry *,std::allocator<CvMilitaryAIStrategyXMLEntry *> >::_Vector_const_iterator<CvMilitaryAIStrategyXMLEntry *,std::allocator<CvMilitaryAIStrategyXMLEntry *> >
_TEXT	ENDS
PUBLIC	?Alloc@?$FStaticVector@UWeightedElement@?$CvWeightedVector@UCvMilitaryTarget@@$0CIA@$00@@$0CIA@$00$0A@$0A@@@IAEPAUWeightedElement@?$CvWeightedVector@UCvMilitaryTarget@@$0CIA@$00@@I@Z ; FStaticVector<CvWeightedVector<CvMilitaryTarget,640,1>::WeightedElement,640,1,0,0>::Alloc
; Function compile flags: /Ogtpy
; File c:\users\enormousapplepie\documents\github\lekmod\lekmod_dll\fireplace\include\fireworks\ffastvector.h
;	COMDAT ?Alloc@?$FStaticVector@UWeightedElement@?$CvWeightedVector@UCvMilitaryTarget@@$0CIA@$00@@$0CIA@$00$0A@$0A@@@IAEPAUWeightedElement@?$CvWeightedVector@UCvMilitaryTarget@@$0CIA@$00@@I@Z
_TEXT	SEGMENT
_uiSize$ = 8						; size = 4
?Alloc@?$FStaticVector@UWeightedElement@?$CvWeightedVector@UCvMilitaryTarget@@$0CIA@$00@@$0CIA@$00$0A@$0A@@@IAEPAUWeightedElement@?$CvWeightedVector@UCvMilitaryTarget@@$0CIA@$00@@I@Z PROC ; FStaticVector<CvWeightedVector<CvMilitaryTarget,640,1>::WeightedElement,640,1,0,0>::Alloc, COMDAT
; _this$ = ecx

; 795  : 	T* Alloc(unsigned int uiSize){

	push	esi
	push	edi

; 796  : 		T* pRet;
; 797  : 		if( uiSize > L ){

	mov	edi, DWORD PTR _uiSize$[esp+4]
	mov	esi, ecx
	cmp	edi, 640				; 00000280H
	jbe	SHORT $LN2@Alloc@2

; 798  : 			pRet = (T*)FMALLOCALIGNED( uiSize*sizeof(T), __alignof(T), AllocPool, nSubID );

	push	798					; 0000031eH
	lea	eax, DWORD PTR [edi*8]
	sub	eax, edi
	push	OFFSET ??_C@_0GH@ECFAPJEJ@c?3?2users?2enormousapplepie?2docume@
	add	eax, eax
	add	eax, eax
	push	4
	push	eax
	call	?FireMallocAlignedNoTracking@@YAPAXIIPBDH@Z ; FireMallocAlignedNoTracking
	add	esp, 16					; 00000010H

; 799  : 			m_uiCurrMaxSize = uiSize;

	mov	DWORD PTR [esi+8], edi
	pop	edi
	pop	esi

; 803  : 		}
; 804  : 		return pRet;
; 805  : 	};

	ret	4
$LN2@Alloc@2:
	pop	edi

; 800  : 		}else{
; 801  : 			pRet = (T*)m_aData;

	lea	eax, DWORD PTR [esi+12]

; 802  : 			m_uiCurrMaxSize = L;

	mov	DWORD PTR [esi+8], 640			; 00000280H
	pop	esi

; 803  : 		}
; 804  : 		return pRet;
; 805  : 	};

	ret	4
?Alloc@?$FStaticVector@UWeightedElement@?$CvWeightedVector@UCvMilitaryTarget@@$0CIA@$00@@$0CIA@$00$0A@$0A@@@IAEPAUWeightedElement@?$CvWeightedVector@UCvMilitaryTarget@@$0CIA@$00@@I@Z ENDP ; FStaticVector<CvWeightedVector<CvMilitaryTarget,640,1>::WeightedElement,640,1,0,0>::Alloc
_TEXT	ENDS
PUBLIC	??1?$BaseVector@UWeightedElement@?$CvWeightedVector@UCvMilitaryTarget@@$0CIA@$00@@$00@@QAE@XZ ; BaseVector<CvWeightedVector<CvMilitaryTarget,640,1>::WeightedElement,1>::~BaseVector<CvWeightedVector<CvMilitaryTarget,640,1>::WeightedElement,1>
; Function compile flags: /Ogtpy
;	COMDAT ??1?$BaseVector@UWeightedElement@?$CvWeightedVector@UCvMilitaryTarget@@$0CIA@$00@@$00@@QAE@XZ
_TEXT	SEGMENT
??1?$BaseVector@UWeightedElement@?$CvWeightedVector@UCvMilitaryTarget@@$0CIA@$00@@$00@@QAE@XZ PROC ; BaseVector<CvWeightedVector<CvMilitaryTarget,640,1>::WeightedElement,1>::~BaseVector<CvWeightedVector<CvMilitaryTarget,640,1>::WeightedElement,1>, COMDAT
; _this$ = ecx

; 111  : 	~BaseVector(){};

	ret	0
??1?$BaseVector@UWeightedElement@?$CvWeightedVector@UCvMilitaryTarget@@$0CIA@$00@@$00@@QAE@XZ ENDP ; BaseVector<CvWeightedVector<CvMilitaryTarget,640,1>::WeightedElement,1>::~BaseVector<CvWeightedVector<CvMilitaryTarget,640,1>::WeightedElement,1>
_TEXT	ENDS
PUBLIC	??0?$BaseVector@UWeightedElement@?$CvWeightedVector@UCvMilitaryTarget@@$0CIA@$00@@$00@@IAE@XZ ; BaseVector<CvWeightedVector<CvMilitaryTarget,640,1>::WeightedElement,1>::BaseVector<CvWeightedVector<CvMilitaryTarget,640,1>::WeightedElement,1>
; Function compile flags: /Ogtpy
;	COMDAT ??0?$BaseVector@UWeightedElement@?$CvWeightedVector@UCvMilitaryTarget@@$0CIA@$00@@$00@@IAE@XZ
_TEXT	SEGMENT
??0?$BaseVector@UWeightedElement@?$CvWeightedVector@UCvMilitaryTarget@@$0CIA@$00@@$00@@IAE@XZ PROC ; BaseVector<CvWeightedVector<CvMilitaryTarget,640,1>::WeightedElement,1>::BaseVector<CvWeightedVector<CvMilitaryTarget,640,1>::WeightedElement,1>, COMDAT
; _this$ = ecx

; 216  : 	BaseVector() : m_uiCurrSize(0), m_uiCurrMaxSize(0), m_pData(NULL) {};

	mov	eax, ecx
	xor	ecx, ecx
	mov	DWORD PTR [eax], ecx
	mov	DWORD PTR [eax+4], ecx
	mov	DWORD PTR [eax+8], ecx
	ret	0
??0?$BaseVector@UWeightedElement@?$CvWeightedVector@UCvMilitaryTarget@@$0CIA@$00@@$00@@IAE@XZ ENDP ; BaseVector<CvWeightedVector<CvMilitaryTarget,640,1>::WeightedElement,1>::BaseVector<CvWeightedVector<CvMilitaryTarget,640,1>::WeightedElement,1>
_TEXT	ENDS
PUBLIC	?Destroy@?$BaseVector@UWeightedElement@?$CvWeightedVector@UCvMilitaryTarget@@$0CIA@$00@@$00@@IAEXPAUWeightedElement@?$CvWeightedVector@UCvMilitaryTarget@@$0CIA@$00@@I@Z ; BaseVector<CvWeightedVector<CvMilitaryTarget,640,1>::WeightedElement,1>::Destroy
; Function compile flags: /Ogtpy
;	COMDAT ?Destroy@?$BaseVector@UWeightedElement@?$CvWeightedVector@UCvMilitaryTarget@@$0CIA@$00@@$00@@IAEXPAUWeightedElement@?$CvWeightedVector@UCvMilitaryTarget@@$0CIA@$00@@I@Z
_TEXT	SEGMENT
_pVal$ = 8						; size = 4
_uiNumElements$ = 12					; size = 4
?Destroy@?$BaseVector@UWeightedElement@?$CvWeightedVector@UCvMilitaryTarget@@$0CIA@$00@@$00@@IAEXPAUWeightedElement@?$CvWeightedVector@UCvMilitaryTarget@@$0CIA@$00@@I@Z PROC ; BaseVector<CvWeightedVector<CvMilitaryTarget,640,1>::WeightedElement,1>::Destroy, COMDAT
; _this$ = ecx

; 221  : 		if( !bPODType){
; 222  : 			for(unsigned int i = 0; i < uiNumElements; ++i){
; 223  : 				pVal[i].~T();
; 224  : 			}
; 225  : 		}
; 226  : 	};

	ret	8
?Destroy@?$BaseVector@UWeightedElement@?$CvWeightedVector@UCvMilitaryTarget@@$0CIA@$00@@$00@@IAEXPAUWeightedElement@?$CvWeightedVector@UCvMilitaryTarget@@$0CIA@$00@@I@Z ENDP ; BaseVector<CvWeightedVector<CvMilitaryTarget,640,1>::WeightedElement,1>::Destroy
_TEXT	ENDS
PUBLIC	?GetClosureThis@?$ClosurePtr@P8GenericClass@detail@fastdelegate@@AEHHPBD@ZP6AHH0@ZP6AHH0@Z@detail@fastdelegate@@QBEPAVGenericClass@23@XZ ; fastdelegate::detail::ClosurePtr<int (__thiscall fastdelegate::detail::GenericClass::*)(int,char const *),int (__cdecl*)(int,char const *),int (__cdecl*)(int,char const *)>::GetClosureThis
; Function compile flags: /Ogtpy
; File c:\users\enormousapplepie\documents\github\lekmod\lekmod_dll\fireplace\include\fireworks\eventsystem\fastdelegate.h
;	COMDAT ?GetClosureThis@?$ClosurePtr@P8GenericClass@detail@fastdelegate@@AEHHPBD@ZP6AHH0@ZP6AHH0@Z@detail@fastdelegate@@QBEPAVGenericClass@23@XZ
_TEXT	SEGMENT
?GetClosureThis@?$ClosurePtr@P8GenericClass@detail@fastdelegate@@AEHHPBD@ZP6AHH0@ZP6AHH0@Z@detail@fastdelegate@@QBEPAVGenericClass@23@XZ PROC ; fastdelegate::detail::ClosurePtr<int (__thiscall fastdelegate::detail::GenericClass::*)(int,char const *),int (__cdecl*)(int,char const *),int (__cdecl*)(int,char const *)>::GetClosureThis, COMDAT
; _this$ = ecx

; 701  : 	inline GenericClass *GetClosureThis() const { return m_pthis; }

	mov	eax, DWORD PTR [ecx]
	ret	0
?GetClosureThis@?$ClosurePtr@P8GenericClass@detail@fastdelegate@@AEHHPBD@ZP6AHH0@ZP6AHH0@Z@detail@fastdelegate@@QBEPAVGenericClass@23@XZ ENDP ; fastdelegate::detail::ClosurePtr<int (__thiscall fastdelegate::detail::GenericClass::*)(int,char const *),int (__cdecl*)(int,char const *),int (__cdecl*)(int,char const *)>::GetClosureThis
_TEXT	ENDS
PUBLIC	?GetClosureMemPtr@?$ClosurePtr@P8GenericClass@detail@fastdelegate@@AEHHPBD@ZP6AHH0@ZP6AHH0@Z@detail@fastdelegate@@QBEP8GenericClass@23@AEHHPBD@ZXZ ; fastdelegate::detail::ClosurePtr<int (__thiscall fastdelegate::detail::GenericClass::*)(int,char const *),int (__cdecl*)(int,char const *),int (__cdecl*)(int,char const *)>::GetClosureMemPtr
; Function compile flags: /Ogtpy
;	COMDAT ?GetClosureMemPtr@?$ClosurePtr@P8GenericClass@detail@fastdelegate@@AEHHPBD@ZP6AHH0@ZP6AHH0@Z@detail@fastdelegate@@QBEP8GenericClass@23@AEHHPBD@ZXZ
_TEXT	SEGMENT
?GetClosureMemPtr@?$ClosurePtr@P8GenericClass@detail@fastdelegate@@AEHHPBD@ZP6AHH0@ZP6AHH0@Z@detail@fastdelegate@@QBEP8GenericClass@23@AEHHPBD@ZXZ PROC ; fastdelegate::detail::ClosurePtr<int (__thiscall fastdelegate::detail::GenericClass::*)(int,char const *),int (__cdecl*)(int,char const *),int (__cdecl*)(int,char const *)>::GetClosureMemPtr, COMDAT
; _this$ = ecx

; 702  : 	inline GenericMemFunc GetClosureMemPtr() const { return reinterpret_cast<GenericMemFunc>(m_pFunction); }

	mov	eax, DWORD PTR [ecx+4]
	ret	0
?GetClosureMemPtr@?$ClosurePtr@P8GenericClass@detail@fastdelegate@@AEHHPBD@ZP6AHH0@ZP6AHH0@Z@detail@fastdelegate@@QBEP8GenericClass@23@AEHHPBD@ZXZ ENDP ; fastdelegate::detail::ClosurePtr<int (__thiscall fastdelegate::detail::GenericClass::*)(int,char const *),int (__cdecl*)(int,char const *),int (__cdecl*)(int,char const *)>::GetClosureMemPtr
_TEXT	ENDS
PUBLIC	?Destroy@?$BaseVector@PAVCvCity@@$0A@@@IAEXPAPAVCvCity@@I@Z ; BaseVector<CvCity *,0>::Destroy
; Function compile flags: /Ogtpy
; File c:\users\enormousapplepie\documents\github\lekmod\lekmod_dll\fireplace\include\fireworks\ffastvector.h
;	COMDAT ?Destroy@?$BaseVector@PAVCvCity@@$0A@@@IAEXPAPAVCvCity@@I@Z
_TEXT	SEGMENT
_pVal$ = 8						; size = 4
_uiNumElements$ = 12					; size = 4
?Destroy@?$BaseVector@PAVCvCity@@$0A@@@IAEXPAPAVCvCity@@I@Z PROC ; BaseVector<CvCity *,0>::Destroy, COMDAT
; _this$ = ecx

; 221  : 		if( !bPODType){
; 222  : 			for(unsigned int i = 0; i < uiNumElements; ++i){
; 223  : 				pVal[i].~T();
; 224  : 			}
; 225  : 		}
; 226  : 	};

	ret	8
?Destroy@?$BaseVector@PAVCvCity@@$0A@@@IAEXPAPAVCvCity@@I@Z ENDP ; BaseVector<CvCity *,0>::Destroy
_TEXT	ENDS
PUBLIC	?Destroy@?$BaseVector@VCvFormationSlotEntry@@$0A@@@IAEXPAVCvFormationSlotEntry@@I@Z ; BaseVector<CvFormationSlotEntry,0>::Destroy
; Function compile flags: /Ogtpy
;	COMDAT ?Destroy@?$BaseVector@VCvFormationSlotEntry@@$0A@@@IAEXPAVCvFormationSlotEntry@@I@Z
_TEXT	SEGMENT
_pVal$ = 8						; size = 4
_uiNumElements$ = 12					; size = 4
?Destroy@?$BaseVector@VCvFormationSlotEntry@@$0A@@@IAEXPAVCvFormationSlotEntry@@I@Z PROC ; BaseVector<CvFormationSlotEntry,0>::Destroy, COMDAT
; _this$ = ecx

; 221  : 		if( !bPODType){
; 222  : 			for(unsigned int i = 0; i < uiNumElements; ++i){
; 223  : 				pVal[i].~T();
; 224  : 			}
; 225  : 		}
; 226  : 	};

	ret	8
?Destroy@?$BaseVector@VCvFormationSlotEntry@@$0A@@@IAEXPAVCvFormationSlotEntry@@I@Z ENDP ; BaseVector<CvFormationSlotEntry,0>::Destroy
_TEXT	ENDS
PUBLIC	?AllocAligned@FDefaultFastVectorAllocator@?$BaseVector@PAVCvCity@@$0A@@@SAPAXIIII@Z ; BaseVector<CvCity *,0>::FDefaultFastVectorAllocator::AllocAligned
; Function compile flags: /Ogtpy
;	COMDAT ?AllocAligned@FDefaultFastVectorAllocator@?$BaseVector@PAVCvCity@@$0A@@@SAPAXIIII@Z
_TEXT	SEGMENT
_nBytes$ = 8						; size = 4
_nAlign$ = 12						; size = 4
_nAllocPool$ = 16					; size = 4
_nAllocSubID$ = 20					; size = 4
?AllocAligned@FDefaultFastVectorAllocator@?$BaseVector@PAVCvCity@@$0A@@@SAPAXIIII@Z PROC ; BaseVector<CvCity *,0>::FDefaultFastVectorAllocator::AllocAligned, COMDAT

; 85   : 			return FMALLOCALIGNED( nBytes, nAlign, nAllocPool, nAllocSubID );

	mov	DWORD PTR _nAllocSubID$[esp-4], 85	; 00000055H
	mov	DWORD PTR _nAllocPool$[esp-4], OFFSET ??_C@_0GH@ECFAPJEJ@c?3?2users?2enormousapplepie?2docume@
	jmp	?FireMallocAlignedNoTracking@@YAPAXIIPBDH@Z ; FireMallocAlignedNoTracking
?AllocAligned@FDefaultFastVectorAllocator@?$BaseVector@PAVCvCity@@$0A@@@SAPAXIIII@Z ENDP ; BaseVector<CvCity *,0>::FDefaultFastVectorAllocator::AllocAligned
_TEXT	ENDS
PUBLIC	?FreeAligned@FDefaultFastVectorAllocator@?$BaseVector@PAVCvCity@@$0A@@@SAXPAX@Z ; BaseVector<CvCity *,0>::FDefaultFastVectorAllocator::FreeAligned
EXTRN	?FireFreeAlignedNoTracking@@YAXPAX@Z:PROC	; FireFreeAlignedNoTracking
; Function compile flags: /Ogtpy
;	COMDAT ?FreeAligned@FDefaultFastVectorAllocator@?$BaseVector@PAVCvCity@@$0A@@@SAXPAX@Z
_TEXT	SEGMENT
_pBlock$ = 8						; size = 4
?FreeAligned@FDefaultFastVectorAllocator@?$BaseVector@PAVCvCity@@$0A@@@SAXPAX@Z PROC ; BaseVector<CvCity *,0>::FDefaultFastVectorAllocator::FreeAligned, COMDAT

; 90   : 			FFREEALIGNED( pBlock );

	jmp	?FireFreeAlignedNoTracking@@YAXPAX@Z	; FireFreeAlignedNoTracking
?FreeAligned@FDefaultFastVectorAllocator@?$BaseVector@PAVCvCity@@$0A@@@SAXPAX@Z ENDP ; BaseVector<CvCity *,0>::FDefaultFastVectorAllocator::FreeAligned
_TEXT	ENDS
PUBLIC	?max_size@?$allocator@PAVCvMilitaryAIStrategyXMLEntry@@@std@@QBEIXZ ; std::allocator<CvMilitaryAIStrategyXMLEntry *>::max_size
; Function compile flags: /Ogtpy
; File c:\program files (x86)\microsoft visual studio 9.0\vc\include\xmemory
;	COMDAT ?max_size@?$allocator@PAVCvMilitaryAIStrategyXMLEntry@@@std@@QBEIXZ
_TEXT	SEGMENT
?max_size@?$allocator@PAVCvMilitaryAIStrategyXMLEntry@@@std@@QBEIXZ PROC ; std::allocator<CvMilitaryAIStrategyXMLEntry *>::max_size, COMDAT
; _this$ = ecx

; 165  : 		_SIZT _Count = (_SIZT)(-1) / sizeof (_Ty);
; 166  : 		return (0 < _Count ? _Count : 1);

	mov	eax, 1073741823				; 3fffffffH

; 167  : 		}

	ret	0
?max_size@?$allocator@PAVCvMilitaryAIStrategyXMLEntry@@@std@@QBEIXZ ENDP ; std::allocator<CvMilitaryAIStrategyXMLEntry *>::max_size
_TEXT	ENDS
PUBLIC	??$max@H@std@@YAABHABH0@Z			; std::max<int>
; Function compile flags: /Ogtpy
; File c:\program files (x86)\microsoft visual studio 9.0\vc\include\xutility
;	COMDAT ??$max@H@std@@YAABHABH0@Z
_TEXT	SEGMENT
__Left$ = 8						; size = 4
__Right$ = 12						; size = 4
??$max@H@std@@YAABHABH0@Z PROC				; std::max<int>, COMDAT

; 3384 : 	return (_DEBUG_LT(_Left, _Right) ? _Right : _Left);

	mov	eax, DWORD PTR __Left$[esp-4]
	mov	edx, DWORD PTR [eax]
	mov	ecx, DWORD PTR __Right$[esp-4]
	cmp	edx, DWORD PTR [ecx]
	jge	SHORT $LN4@max
	mov	eax, ecx
$LN4@max:

; 3385 : 	}

	ret	0
??$max@H@std@@YAABHABH0@Z ENDP				; std::max<int>
_TEXT	ENDS
PUBLIC	??$SAFE_DELETE_ARRAY@H@@YAXAAPAH@Z		; SAFE_DELETE_ARRAY<int>
EXTRN	??_V@YAXPAX@Z:PROC				; operator delete[]
; Function compile flags: /Ogtpy
; File c:\users\enormousapplepie\documents\github\lekmod\lekmod_dll\fireplace\include\fireworks\ffiretypes.h
;	COMDAT ??$SAFE_DELETE_ARRAY@H@@YAXAAPAH@Z
_TEXT	SEGMENT
_pkInstanceArray$ = 8					; size = 4
??$SAFE_DELETE_ARRAY@H@@YAXAAPAH@Z PROC			; SAFE_DELETE_ARRAY<int>, COMDAT

; 311  : {

	push	esi

; 312  : 	delete[] pkInstanceArray;

	mov	esi, DWORD PTR _pkInstanceArray$[esp]
	mov	eax, DWORD PTR [esi]
	push	eax
	call	??_V@YAXPAX@Z				; operator delete[]
	add	esp, 4

; 313  : 	pkInstanceArray = NULL;

	mov	DWORD PTR [esi], 0
	pop	esi

; 314  : };

	ret	0
??$SAFE_DELETE_ARRAY@H@@YAXAAPAH@Z ENDP			; SAFE_DELETE_ARRAY<int>
_TEXT	ENDS
PUBLIC	??$SAFE_DELETE@VCvMilitaryAIStrategyXMLEntry@@@@YAXAAPAVCvMilitaryAIStrategyXMLEntry@@@Z ; SAFE_DELETE<CvMilitaryAIStrategyXMLEntry>
; Function compile flags: /Ogtpy
;	COMDAT ??$SAFE_DELETE@VCvMilitaryAIStrategyXMLEntry@@@@YAXAAPAVCvMilitaryAIStrategyXMLEntry@@@Z
_TEXT	SEGMENT
_pkInstance$ = 8					; size = 4
??$SAFE_DELETE@VCvMilitaryAIStrategyXMLEntry@@@@YAXAAPAVCvMilitaryAIStrategyXMLEntry@@@Z PROC ; SAFE_DELETE<CvMilitaryAIStrategyXMLEntry>, COMDAT

; 305  : {

	push	esi

; 306  : 	delete pkInstance;

	mov	esi, DWORD PTR _pkInstance$[esp]
	mov	ecx, DWORD PTR [esi]
	test	ecx, ecx
	je	SHORT $LN5@SAFE_DELET
	mov	eax, DWORD PTR [ecx]
	mov	edx, DWORD PTR [eax+16]
	push	1
	call	edx
$LN5@SAFE_DELET:

; 307  : 	pkInstance = NULL;

	mov	DWORD PTR [esi], 0
	pop	esi

; 308  : };

	ret	0
??$SAFE_DELETE@VCvMilitaryAIStrategyXMLEntry@@@@YAXAAPAVCvMilitaryAIStrategyXMLEntry@@@Z ENDP ; SAFE_DELETE<CvMilitaryAIStrategyXMLEntry>
_TEXT	ENDS
PUBLIC	??$SAFE_DELETE_ARRAY@_N@@YAXAAPA_N@Z		; SAFE_DELETE_ARRAY<bool>
; Function compile flags: /Ogtpy
;	COMDAT ??$SAFE_DELETE_ARRAY@_N@@YAXAAPA_N@Z
_TEXT	SEGMENT
_pkInstanceArray$ = 8					; size = 4
??$SAFE_DELETE_ARRAY@_N@@YAXAAPA_N@Z PROC		; SAFE_DELETE_ARRAY<bool>, COMDAT

; 311  : {

	push	esi

; 312  : 	delete[] pkInstanceArray;

	mov	esi, DWORD PTR _pkInstanceArray$[esp]
	mov	eax, DWORD PTR [esi]
	push	eax
	call	??_V@YAXPAX@Z				; operator delete[]
	add	esp, 4

; 313  : 	pkInstanceArray = NULL;

	mov	DWORD PTR [esi], 0
	pop	esi

; 314  : };

	ret	0
??$SAFE_DELETE_ARRAY@_N@@YAXAAPA_N@Z ENDP		; SAFE_DELETE_ARRAY<bool>
_TEXT	ENDS
PUBLIC	??$min@H@std@@YAABHABH0@Z			; std::min<int>
; Function compile flags: /Ogtpy
; File c:\program files (x86)\microsoft visual studio 9.0\vc\include\xutility
;	COMDAT ??$min@H@std@@YAABHABH0@Z
_TEXT	SEGMENT
__Left$ = 8						; size = 4
__Right$ = 12						; size = 4
??$min@H@std@@YAABHABH0@Z PROC				; std::min<int>, COMDAT

; 3399 : 	return (_DEBUG_LT(_Right, _Left) ? _Right : _Left);

	mov	eax, DWORD PTR __Right$[esp-4]
	mov	edx, DWORD PTR [eax]
	mov	ecx, DWORD PTR __Left$[esp-4]
	cmp	edx, DWORD PTR [ecx]
	jl	SHORT $LN4@min
	mov	eax, ecx
$LN4@min:

; 3400 : 	}

	ret	0
??$min@H@std@@YAABHABH0@Z ENDP				; std::min<int>
_TEXT	ENDS
PUBLIC	__TI2?AVbad_alloc@std@@
PUBLIC	??$_Allocate@PAVCvMilitaryAIStrategyXMLEntry@@@std@@YAPAPAVCvMilitaryAIStrategyXMLEntry@@IPAPAV1@@Z ; std::_Allocate<CvMilitaryAIStrategyXMLEntry *>
PUBLIC	__CTA2?AVbad_alloc@std@@
PUBLIC	__CT??_R0?AVbad_alloc@std@@@8??0bad_alloc@std@@QAE@ABV01@@Z12
PUBLIC	??0bad_alloc@std@@QAE@ABV01@@Z			; std::bad_alloc::bad_alloc
EXTRN	??2@YAPAXI@Z:PROC				; operator new
;	COMDAT __CT??_R0?AVbad_alloc@std@@@8??0bad_alloc@std@@QAE@ABV01@@Z12
; File c:\program files (x86)\microsoft visual studio 9.0\vc\include\exception
xdata$x	SEGMENT
__CT??_R0?AVbad_alloc@std@@@8??0bad_alloc@std@@QAE@ABV01@@Z12 DD 00H
	DD	FLAT:??_R0?AVbad_alloc@std@@@8
	DD	00H
	DD	0ffffffffH
	ORG $+4
	DD	0cH
	DD	FLAT:??0bad_alloc@std@@QAE@ABV01@@Z
xdata$x	ENDS
;	COMDAT __CTA2?AVbad_alloc@std@@
xdata$x	SEGMENT
__CTA2?AVbad_alloc@std@@ DD 02H
	DD	FLAT:__CT??_R0?AVbad_alloc@std@@@8??0bad_alloc@std@@QAE@ABV01@@Z12
	DD	FLAT:__CT??_R0?AVexception@std@@@8??0exception@std@@QAE@ABV01@@Z12
xdata$x	ENDS
;	COMDAT __TI2?AVbad_alloc@std@@
xdata$x	SEGMENT
__TI2?AVbad_alloc@std@@ DD 00H
	DD	FLAT:??1bad_alloc@std@@UAE@XZ
	DD	00H
	DD	FLAT:__CTA2?AVbad_alloc@std@@
; Function compile flags: /Ogtpy
; File c:\program files (x86)\microsoft visual studio 9.0\vc\include\xmemory
xdata$x	ENDS
;	COMDAT ??$_Allocate@PAVCvMilitaryAIStrategyXMLEntry@@@std@@YAPAPAVCvMilitaryAIStrategyXMLEntry@@IPAPAV1@@Z
_TEXT	SEGMENT
$T231238 = -12						; size = 12
$T231242 = 8						; size = 4
__Count$ = 8						; size = 4
___formal$ = 12						; size = 4
??$_Allocate@PAVCvMilitaryAIStrategyXMLEntry@@@std@@YAPAPAVCvMilitaryAIStrategyXMLEntry@@IPAPAV1@@Z PROC ; std::_Allocate<CvMilitaryAIStrategyXMLEntry *>, COMDAT

; 37   : 	if (_Count <= 0)

	mov	ecx, DWORD PTR __Count$[esp-4]
	sub	esp, 12					; 0000000cH
	test	ecx, ecx
	ja	SHORT $LN3@Allocate

; 38   : 		_Count = 0;

	xor	ecx, ecx
$LN1@Allocate:

; 41   : 
; 42   : 		// allocate storage for _Count elements of type _Ty
; 43   : 	return ((_Ty _FARQ *)::operator new(_Count * sizeof (_Ty)));

	lea	edx, DWORD PTR [ecx*4]
	push	edx
	call	??2@YAPAXI@Z				; operator new
	add	esp, 4

; 44   : 	}

	add	esp, 12					; 0000000cH
	ret	0
$LN3@Allocate:

; 39   : 	else if (((_SIZT)(-1) / _Count) < sizeof (_Ty))

	or	eax, -1
	xor	edx, edx
	div	ecx
	cmp	eax, 4
	jae	SHORT $LN1@Allocate

; 40   : 		_THROW_NCEE(std::bad_alloc, NULL);

	lea	eax, DWORD PTR $T231242[esp+8]
	push	eax
	lea	ecx, DWORD PTR $T231238[esp+16]
	mov	DWORD PTR $T231242[esp+12], 0
	call	DWORD PTR __imp_??0exception@std@@QAE@ABQBD@Z
	push	OFFSET __TI2?AVbad_alloc@std@@
	lea	ecx, DWORD PTR $T231238[esp+16]
	push	ecx
	mov	DWORD PTR $T231238[esp+20], OFFSET ??_7bad_alloc@std@@6B@
	call	__CxxThrowException@8
$LN9@Allocate:
$LN8@Allocate:
	int	3
??$_Allocate@PAVCvMilitaryAIStrategyXMLEntry@@@std@@YAPAPAVCvMilitaryAIStrategyXMLEntry@@IPAPAV1@@Z ENDP ; std::_Allocate<CvMilitaryAIStrategyXMLEntry *>
_TEXT	ENDS
PUBLIC	?getArray@?$ArrayWrapper@_N@@QAEPA_NXZ		; ArrayWrapper<bool>::getArray
; Function compile flags: /Ogtpy
; File c:\users\enormousapplepie\documents\github\lekmod\lekmod_dll\fireplace\include\fireworks\fdatastream.h
;	COMDAT ?getArray@?$ArrayWrapper@_N@@QAEPA_NXZ
_TEXT	SEGMENT
?getArray@?$ArrayWrapper@_N@@QAEPA_NXZ PROC		; ArrayWrapper<bool>::getArray, COMDAT
; _this$ = ecx

; 382  : 		return m_values;

	mov	eax, DWORD PTR [ecx]

; 383  : 	}

	ret	0
?getArray@?$ArrayWrapper@_N@@QAEPA_NXZ ENDP		; ArrayWrapper<bool>::getArray
_TEXT	ENDS
PUBLIC	?getArray@?$ArrayWrapper@_N@@QBEPB_NXZ		; ArrayWrapper<bool>::getArray
; Function compile flags: /Ogtpy
;	COMDAT ?getArray@?$ArrayWrapper@_N@@QBEPB_NXZ
_TEXT	SEGMENT
?getArray@?$ArrayWrapper@_N@@QBEPB_NXZ PROC		; ArrayWrapper<bool>::getArray, COMDAT
; _this$ = ecx

; 386  : 		return m_values;

	mov	eax, DWORD PTR [ecx]

; 387  : 	}

	ret	0
?getArray@?$ArrayWrapper@_N@@QBEPB_NXZ ENDP		; ArrayWrapper<bool>::getArray
_TEXT	ENDS
PUBLIC	?getCount@?$ArrayWrapper@_N@@QBEHXZ		; ArrayWrapper<bool>::getCount
; Function compile flags: /Ogtpy
;	COMDAT ?getCount@?$ArrayWrapper@_N@@QBEHXZ
_TEXT	SEGMENT
?getCount@?$ArrayWrapper@_N@@QBEHXZ PROC		; ArrayWrapper<bool>::getCount, COMDAT
; _this$ = ecx

; 391  : 		return m_count;

	mov	eax, DWORD PTR [ecx+4]

; 392  : 	}

	ret	0
?getCount@?$ArrayWrapper@_N@@QBEHXZ ENDP		; ArrayWrapper<bool>::getCount
_TEXT	ENDS
PUBLIC	?getArray@?$ArrayWrapper@H@@QAEPAHXZ		; ArrayWrapper<int>::getArray
; Function compile flags: /Ogtpy
;	COMDAT ?getArray@?$ArrayWrapper@H@@QAEPAHXZ
_TEXT	SEGMENT
?getArray@?$ArrayWrapper@H@@QAEPAHXZ PROC		; ArrayWrapper<int>::getArray, COMDAT
; _this$ = ecx

; 382  : 		return m_values;

	mov	eax, DWORD PTR [ecx]

; 383  : 	}

	ret	0
?getArray@?$ArrayWrapper@H@@QAEPAHXZ ENDP		; ArrayWrapper<int>::getArray
_TEXT	ENDS
PUBLIC	?getArray@?$ArrayWrapper@H@@QBEPBHXZ		; ArrayWrapper<int>::getArray
; Function compile flags: /Ogtpy
;	COMDAT ?getArray@?$ArrayWrapper@H@@QBEPBHXZ
_TEXT	SEGMENT
?getArray@?$ArrayWrapper@H@@QBEPBHXZ PROC		; ArrayWrapper<int>::getArray, COMDAT
; _this$ = ecx

; 386  : 		return m_values;

	mov	eax, DWORD PTR [ecx]

; 387  : 	}

	ret	0
?getArray@?$ArrayWrapper@H@@QBEPBHXZ ENDP		; ArrayWrapper<int>::getArray
_TEXT	ENDS
PUBLIC	?getCount@?$ArrayWrapper@H@@QBEHXZ		; ArrayWrapper<int>::getCount
; Function compile flags: /Ogtpy
;	COMDAT ?getCount@?$ArrayWrapper@H@@QBEHXZ
_TEXT	SEGMENT
?getCount@?$ArrayWrapper@H@@QBEHXZ PROC			; ArrayWrapper<int>::getCount, COMDAT
; _this$ = ecx

; 391  : 		return m_count;

	mov	eax, DWORD PTR [ecx+4]

; 392  : 	}

	ret	0
?getCount@?$ArrayWrapper@H@@QBEHXZ ENDP			; ArrayWrapper<int>::getCount
_TEXT	ENDS
PUBLIC	??$_Iter_random@PAPAVCvMilitaryAIStrategyXMLEntry@@PAPAV1@@std@@YA?AUrandom_access_iterator_tag@0@ABQAPAVCvMilitaryAIStrategyXMLEntry@@0@Z ; std::_Iter_random<CvMilitaryAIStrategyXMLEntry * *,CvMilitaryAIStrategyXMLEntry * *>
; Function compile flags: /Ogtpy
; File c:\program files (x86)\microsoft visual studio 9.0\vc\include\xutility
;	COMDAT ??$_Iter_random@PAPAVCvMilitaryAIStrategyXMLEntry@@PAPAV1@@std@@YA?AUrandom_access_iterator_tag@0@ABQAPAVCvMilitaryAIStrategyXMLEntry@@0@Z
_TEXT	SEGMENT
___$ReturnUdt$ = 8					; size = 4
___formal$ = 12						; size = 4
___formal$ = 16						; size = 4
??$_Iter_random@PAPAVCvMilitaryAIStrategyXMLEntry@@PAPAV1@@std@@YA?AUrandom_access_iterator_tag@0@ABQAPAVCvMilitaryAIStrategyXMLEntry@@0@Z PROC ; std::_Iter_random<CvMilitaryAIStrategyXMLEntry * *,CvMilitaryAIStrategyXMLEntry * *>, COMDAT

; 994  : 	typename _Iter_random_helper<
; 995  : 		iterator_traits<_Iter1>::iterator_category, 
; 996  : 		iterator_traits<_Iter2>::iterator_category>::_Iter_random_cat _Cat;
; 997  : 	return (_Cat);

	mov	eax, DWORD PTR ___$ReturnUdt$[esp-4]

; 998  : 	}

	ret	0
??$_Iter_random@PAPAVCvMilitaryAIStrategyXMLEntry@@PAPAV1@@std@@YA?AUrandom_access_iterator_tag@0@ABQAPAVCvMilitaryAIStrategyXMLEntry@@0@Z ENDP ; std::_Iter_random<CvMilitaryAIStrategyXMLEntry * *,CvMilitaryAIStrategyXMLEntry * *>
_TEXT	ENDS
PUBLIC	??$_Ptr_cat@PAPAVCvMilitaryAIStrategyXMLEntry@@PAPAV1@@std@@YA?AU_Scalar_ptr_iterator_tag@0@AAPAPAVCvMilitaryAIStrategyXMLEntry@@0@Z ; std::_Ptr_cat<CvMilitaryAIStrategyXMLEntry * *,CvMilitaryAIStrategyXMLEntry * *>
; Function compile flags: /Ogtpy
;	COMDAT ??$_Ptr_cat@PAPAVCvMilitaryAIStrategyXMLEntry@@PAPAV1@@std@@YA?AU_Scalar_ptr_iterator_tag@0@AAPAPAVCvMilitaryAIStrategyXMLEntry@@0@Z
_TEXT	SEGMENT
__Cat$ = -1						; size = 1
___formal$ = 8						; size = 4
___formal$ = 12						; size = 4
??$_Ptr_cat@PAPAVCvMilitaryAIStrategyXMLEntry@@PAPAV1@@std@@YA?AU_Scalar_ptr_iterator_tag@0@AAPAPAVCvMilitaryAIStrategyXMLEntry@@0@Z PROC ; std::_Ptr_cat<CvMilitaryAIStrategyXMLEntry * *,CvMilitaryAIStrategyXMLEntry * *>, COMDAT

; 1509 : 	{

	push	ecx

; 1510 : 	typename _Ptr_cat_helper<_T1, _T2>::_Ptr_cat _Cat;
; 1511 : 	return (_Cat);

	mov	al, BYTE PTR __Cat$[esp+4]

; 1512 : 	}

	pop	ecx
	ret	0
??$_Ptr_cat@PAPAVCvMilitaryAIStrategyXMLEntry@@PAPAV1@@std@@YA?AU_Scalar_ptr_iterator_tag@0@AAPAPAVCvMilitaryAIStrategyXMLEntry@@0@Z ENDP ; std::_Ptr_cat<CvMilitaryAIStrategyXMLEntry * *,CvMilitaryAIStrategyXMLEntry * *>
_TEXT	ENDS
PUBLIC	??$_Copy_opt@PAPAVCvMilitaryAIStrategyXMLEntry@@PAPAV1@Urandom_access_iterator_tag@std@@@std@@YAPAPAVCvMilitaryAIStrategyXMLEntry@@PAPAV1@00Urandom_access_iterator_tag@0@U_Scalar_ptr_iterator_tag@0@U_Range_checked_iterator_tag@0@@Z ; std::_Copy_opt<CvMilitaryAIStrategyXMLEntry * *,CvMilitaryAIStrategyXMLEntry * *,std::random_access_iterator_tag>
EXTRN	__imp__memmove_s:PROC
; Function compile flags: /Ogtpy
;	COMDAT ??$_Copy_opt@PAPAVCvMilitaryAIStrategyXMLEntry@@PAPAV1@Urandom_access_iterator_tag@std@@@std@@YAPAPAVCvMilitaryAIStrategyXMLEntry@@PAPAV1@00Urandom_access_iterator_tag@0@U_Scalar_ptr_iterator_tag@0@U_Range_checked_iterator_tag@0@@Z
_TEXT	SEGMENT
__First$ = 8						; size = 4
__Last$ = 12						; size = 4
__Dest$ = 16						; size = 4
___formal$ = 20						; size = 1
___formal$ = 24						; size = 1
___formal$ = 28						; size = 1
??$_Copy_opt@PAPAVCvMilitaryAIStrategyXMLEntry@@PAPAV1@Urandom_access_iterator_tag@std@@@std@@YAPAPAVCvMilitaryAIStrategyXMLEntry@@PAPAV1@00Urandom_access_iterator_tag@0@U_Scalar_ptr_iterator_tag@0@U_Range_checked_iterator_tag@0@@Z PROC ; std::_Copy_opt<CvMilitaryAIStrategyXMLEntry * *,CvMilitaryAIStrategyXMLEntry * *,std::random_access_iterator_tag>, COMDAT

; 2495 : 
; 2496 :  #if _HAS_ITERATOR_DEBUGGING
; 2497 : 	_DEBUG_RANGE(_First, _Last);
; 2498 : 	if (_First != _Last)
; 2499 : 		_DEBUG_POINTER(_Dest);
; 2500 :  #endif /* _HAS_ITERATOR_DEBUGGING */
; 2501 : 
; 2502 : 	ptrdiff_t _Off = _Last - _First;	// NB: non-overlapping move

	mov	eax, DWORD PTR __Last$[esp-4]
	mov	edx, DWORD PTR __First$[esp-4]
	sub	eax, edx
	push	esi
	sar	eax, 2
	push	edi

; 2503 : 	// if _OutIt is range checked, this will make sure there is enough space for the memmove
; 2504 : 	_OutIt _Result = _Dest + _Off;

	mov	edi, DWORD PTR __Dest$[esp+4]
	lea	ecx, DWORD PTR [eax*4]
	lea	esi, DWORD PTR [ecx+edi]

; 2505 : 	if (_Off > 0)

	test	eax, eax
	jle	SHORT $LN4@Copy_opt

; 2506 : 		_CRT_SECURE_MEMMOVE(&*_Dest, _Off * sizeof (*_First), &*_First, _Off * sizeof (*_First));

	push	ecx
	push	edx
	push	ecx
	push	edi
	call	DWORD PTR __imp__memmove_s
	add	esp, 16					; 00000010H
$LN4@Copy_opt:
	pop	edi

; 2507 : 	return _Result;

	mov	eax, esi
	pop	esi

; 2508 : 	}

	ret	0
??$_Copy_opt@PAPAVCvMilitaryAIStrategyXMLEntry@@PAPAV1@Urandom_access_iterator_tag@std@@@std@@YAPAPAVCvMilitaryAIStrategyXMLEntry@@PAPAV1@00Urandom_access_iterator_tag@0@U_Scalar_ptr_iterator_tag@0@U_Range_checked_iterator_tag@0@@Z ENDP ; std::_Copy_opt<CvMilitaryAIStrategyXMLEntry * *,CvMilitaryAIStrategyXMLEntry * *,std::random_access_iterator_tag>
_TEXT	ENDS
PUBLIC	??$_Destroy_range@V?$allocator@PAVCvMilitaryAIStrategyXMLEntry@@@std@@@std@@YAXPAPAVCvMilitaryAIStrategyXMLEntry@@0AAV?$allocator@PAVCvMilitaryAIStrategyXMLEntry@@@0@U_Scalar_ptr_iterator_tag@0@@Z ; std::_Destroy_range<std::allocator<CvMilitaryAIStrategyXMLEntry *> >
; Function compile flags: /Ogtpy
; File c:\program files (x86)\microsoft visual studio 9.0\vc\include\xmemory
;	COMDAT ??$_Destroy_range@V?$allocator@PAVCvMilitaryAIStrategyXMLEntry@@@std@@@std@@YAXPAPAVCvMilitaryAIStrategyXMLEntry@@0AAV?$allocator@PAVCvMilitaryAIStrategyXMLEntry@@@0@U_Scalar_ptr_iterator_tag@0@@Z
_TEXT	SEGMENT
__First$ = 8						; size = 4
__Last$ = 12						; size = 4
__Al$ = 16						; size = 4
___formal$ = 20						; size = 1
??$_Destroy_range@V?$allocator@PAVCvMilitaryAIStrategyXMLEntry@@@std@@@std@@YAXPAPAVCvMilitaryAIStrategyXMLEntry@@0AAV?$allocator@PAVCvMilitaryAIStrategyXMLEntry@@@0@U_Scalar_ptr_iterator_tag@0@@Z PROC ; std::_Destroy_range<std::allocator<CvMilitaryAIStrategyXMLEntry *> >, COMDAT

; 242  : 	}

	ret	0
??$_Destroy_range@V?$allocator@PAVCvMilitaryAIStrategyXMLEntry@@@std@@@std@@YAXPAPAVCvMilitaryAIStrategyXMLEntry@@0AAV?$allocator@PAVCvMilitaryAIStrategyXMLEntry@@@0@U_Scalar_ptr_iterator_tag@0@@Z ENDP ; std::_Destroy_range<std::allocator<CvMilitaryAIStrategyXMLEntry *> >
_TEXT	ENDS
PUBLIC	??$implicit_cast@PAVCvGame@@PAV1@@detail@fastdelegate@@YAPAVCvGame@@PAV2@@Z ; fastdelegate::detail::implicit_cast<CvGame *,CvGame *>
; Function compile flags: /Ogtpy
; File c:\users\enormousapplepie\documents\github\lekmod\lekmod_dll\fireplace\include\fireworks\eventsystem\fastdelegate.h
;	COMDAT ??$implicit_cast@PAVCvGame@@PAV1@@detail@fastdelegate@@YAPAVCvGame@@PAV2@@Z
_TEXT	SEGMENT
_input$ = 8						; size = 4
??$implicit_cast@PAVCvGame@@PAV1@@detail@fastdelegate@@YAPAVCvGame@@PAV2@@Z PROC ; fastdelegate::detail::implicit_cast<CvGame *,CvGame *>, COMDAT

; 153  : 	return input;

	mov	eax, DWORD PTR _input$[esp-4]

; 154  : }

	ret	0
??$implicit_cast@PAVCvGame@@PAV1@@detail@fastdelegate@@YAPAVCvGame@@PAV2@@Z ENDP ; fastdelegate::detail::implicit_cast<CvGame *,CvGame *>
_TEXT	ENDS
PUBLIC	??MWeightedElement@?$CvWeightedVector@UCvMilitaryTarget@@$0CIA@$00@@QBE_NABU01@@Z ; CvWeightedVector<CvMilitaryTarget,640,1>::WeightedElement::operator<
; Function compile flags: /Ogtpy
; File c:\users\enormousapplepie\documents\github\lekmod\lekmod_dll\cvgamecoredllutil\include\cvweightedvector.h
;	COMDAT ??MWeightedElement@?$CvWeightedVector@UCvMilitaryTarget@@$0CIA@$00@@QBE_NABU01@@Z
_TEXT	SEGMENT
_b2$ = 8						; size = 4
??MWeightedElement@?$CvWeightedVector@UCvMilitaryTarget@@$0CIA@$00@@QBE_NABU01@@Z PROC ; CvWeightedVector<CvMilitaryTarget,640,1>::WeightedElement::operator<, COMDAT
; _this$ = ecx

; 45   : 			// Reverse of the normal direction because we want highest weight first in our list
; 46   : 			return m_iWeight > b2.m_iWeight;

	mov	eax, DWORD PTR [ecx+24]
	mov	edx, DWORD PTR _b2$[esp-4]
	xor	ecx, ecx
	cmp	eax, DWORD PTR [edx+24]
	setg	cl
	mov	al, cl

; 47   : 		};

	ret	4
??MWeightedElement@?$CvWeightedVector@UCvMilitaryTarget@@$0CIA@$00@@QBE_NABU01@@Z ENDP ; CvWeightedVector<CvMilitaryTarget,640,1>::WeightedElement::operator<
_TEXT	ENDS
PUBLIC	??0?$pair@PAUWeightedElement@?$CvWeightedVector@UCvMilitaryTarget@@$0CIA@$00@@PAU12@@std@@QAE@ABQAUWeightedElement@?$CvWeightedVector@UCvMilitaryTarget@@$0CIA@$00@@0@Z ; std::pair<CvWeightedVector<CvMilitaryTarget,640,1>::WeightedElement *,CvWeightedVector<CvMilitaryTarget,640,1>::WeightedElement *>::pair<CvWeightedVector<CvMilitaryTarget,640,1>::WeightedElement *,CvWeightedVector<CvMilitaryTarget,640,1>::WeightedElement *>
; Function compile flags: /Ogtpy
; File c:\program files (x86)\microsoft visual studio 9.0\vc\include\utility
;	COMDAT ??0?$pair@PAUWeightedElement@?$CvWeightedVector@UCvMilitaryTarget@@$0CIA@$00@@PAU12@@std@@QAE@ABQAUWeightedElement@?$CvWeightedVector@UCvMilitaryTarget@@$0CIA@$00@@0@Z
_TEXT	SEGMENT
__Val1$ = 8						; size = 4
__Val2$ = 12						; size = 4
??0?$pair@PAUWeightedElement@?$CvWeightedVector@UCvMilitaryTarget@@$0CIA@$00@@PAU12@@std@@QAE@ABQAUWeightedElement@?$CvWeightedVector@UCvMilitaryTarget@@$0CIA@$00@@0@Z PROC ; std::pair<CvWeightedVector<CvMilitaryTarget,640,1>::WeightedElement *,CvWeightedVector<CvMilitaryTarget,640,1>::WeightedElement *>::pair<CvWeightedVector<CvMilitaryTarget,640,1>::WeightedElement *,CvWeightedVector<CvMilitaryTarget,640,1>::WeightedElement *>, COMDAT
; _this$ = ecx

; 50   : 		{	// construct from specified values

	mov	eax, ecx
	mov	ecx, DWORD PTR __Val1$[esp-4]
	mov	edx, DWORD PTR [ecx]
	mov	ecx, DWORD PTR __Val2$[esp-4]
	mov	DWORD PTR [eax], edx
	mov	edx, DWORD PTR [ecx]
	mov	DWORD PTR [eax+4], edx

; 51   : 		}

	ret	8
??0?$pair@PAUWeightedElement@?$CvWeightedVector@UCvMilitaryTarget@@$0CIA@$00@@PAU12@@std@@QAE@ABQAUWeightedElement@?$CvWeightedVector@UCvMilitaryTarget@@$0CIA@$00@@0@Z ENDP ; std::pair<CvWeightedVector<CvMilitaryTarget,640,1>::WeightedElement *,CvWeightedVector<CvMilitaryTarget,640,1>::WeightedElement *>::pair<CvWeightedVector<CvMilitaryTarget,640,1>::WeightedElement *,CvWeightedVector<CvMilitaryTarget,640,1>::WeightedElement *>
_TEXT	ENDS
PUBLIC	??$Convert@VCvGame@@P81@AEHHPBD@ZP8GenericClass@detail@fastdelegate@@AEXXZ@?$SimplifyMemFunc@$03@detail@fastdelegate@@SAPAVGenericClass@12@PAVCvGame@@P84@AEHHPBD@ZAAP8312@AEXXZ@Z ; fastdelegate::detail::SimplifyMemFunc<4>::Convert<CvGame,int (__thiscall CvGame::*)(int,char const *),void (__thiscall fastdelegate::detail::GenericClass::*)(void)>
; Function compile flags: /Ogtpy
; File c:\users\enormousapplepie\documents\github\lekmod\lekmod_dll\fireplace\include\fireworks\eventsystem\fastdelegate.h
;	COMDAT ??$Convert@VCvGame@@P81@AEHHPBD@ZP8GenericClass@detail@fastdelegate@@AEXXZ@?$SimplifyMemFunc@$03@detail@fastdelegate@@SAPAVGenericClass@12@PAVCvGame@@P84@AEHHPBD@ZAAP8312@AEXXZ@Z
_TEXT	SEGMENT
_pthis$ = 8						; size = 4
_function_to_bind$ = 12					; size = 4
_bound_func$ = 16					; size = 4
??$Convert@VCvGame@@P81@AEHHPBD@ZP8GenericClass@detail@fastdelegate@@AEXXZ@?$SimplifyMemFunc@$03@detail@fastdelegate@@SAPAVGenericClass@12@PAVCvGame@@P84@AEHHPBD@ZAAP8312@AEXXZ@Z PROC ; fastdelegate::detail::SimplifyMemFunc<4>::Convert<CvGame,int (__thiscall CvGame::*)(int,char const *),void (__thiscall fastdelegate::detail::GenericClass::*)(void)>, COMDAT

; 306  : 			GenericMemFuncType &bound_func) {
; 307  : #if defined __DMC__  
; 308  : 		// Digital Mars doesn't allow you to cast between abitrary PMF's, 
; 309  : 		// even though the standard says you can. The 32-bit compiler lets you
; 310  : 		// static_cast through an int, but the DOS compiler doesn't.
; 311  : 		bound_func = horrible_cast<GenericMemFuncType>(function_to_bind);
; 312  : #else 
; 313  :         bound_func = reinterpret_cast<GenericMemFuncType>(function_to_bind);

	mov	eax, DWORD PTR _bound_func$[esp-4]
	mov	ecx, DWORD PTR _function_to_bind$[esp-4]
	mov	DWORD PTR [eax], ecx

; 314  : #endif
; 315  :         return reinterpret_cast<GenericClass *>(pthis);

	mov	eax, DWORD PTR _pthis$[esp-4]

; 316  : 	}

	ret	0
??$Convert@VCvGame@@P81@AEHHPBD@ZP8GenericClass@detail@fastdelegate@@AEXXZ@?$SimplifyMemFunc@$03@detail@fastdelegate@@SAPAVGenericClass@12@PAVCvGame@@P84@AEHHPBD@ZAAP8312@AEXXZ@Z ENDP ; fastdelegate::detail::SimplifyMemFunc<4>::Convert<CvGame,int (__thiscall CvGame::*)(int,char const *),void (__thiscall fastdelegate::detail::GenericClass::*)(void)>
_TEXT	ENDS
PUBLIC	??$_Dist_type@PAUWeightedElement@?$CvWeightedVector@UCvMilitaryTarget@@$0CIA@$00@@@std@@YAPAHPAUWeightedElement@?$CvWeightedVector@UCvMilitaryTarget@@$0CIA@$00@@@Z ; std::_Dist_type<CvWeightedVector<CvMilitaryTarget,640,1>::WeightedElement *>
; Function compile flags: /Ogtpy
; File c:\program files (x86)\microsoft visual studio 9.0\vc\include\xutility
;	COMDAT ??$_Dist_type@PAUWeightedElement@?$CvWeightedVector@UCvMilitaryTarget@@$0CIA@$00@@@std@@YAPAHPAUWeightedElement@?$CvWeightedVector@UCvMilitaryTarget@@$0CIA@$00@@@Z
_TEXT	SEGMENT
___formal$ = 8						; size = 4
??$_Dist_type@PAUWeightedElement@?$CvWeightedVector@UCvMilitaryTarget@@$0CIA@$00@@@std@@YAPAHPAUWeightedElement@?$CvWeightedVector@UCvMilitaryTarget@@$0CIA@$00@@@Z PROC ; std::_Dist_type<CvWeightedVector<CvMilitaryTarget,640,1>::WeightedElement *>, COMDAT

; 1831 : 	return (0);

	xor	eax, eax

; 1832 : 	}

	ret	0
??$_Dist_type@PAUWeightedElement@?$CvWeightedVector@UCvMilitaryTarget@@$0CIA@$00@@@std@@YAPAHPAUWeightedElement@?$CvWeightedVector@UCvMilitaryTarget@@$0CIA@$00@@@Z ENDP ; std::_Dist_type<CvWeightedVector<CvMilitaryTarget,640,1>::WeightedElement *>
_TEXT	ENDS
PUBLIC	??$_Val_type@PAUWeightedElement@?$CvWeightedVector@UCvMilitaryTarget@@$0CIA@$00@@@std@@YAPAUWeightedElement@?$CvWeightedVector@UCvMilitaryTarget@@$0CIA@$00@@PAU12@@Z ; std::_Val_type<CvWeightedVector<CvMilitaryTarget,640,1>::WeightedElement *>
; Function compile flags: /Ogtpy
;	COMDAT ??$_Val_type@PAUWeightedElement@?$CvWeightedVector@UCvMilitaryTarget@@$0CIA@$00@@@std@@YAPAUWeightedElement@?$CvWeightedVector@UCvMilitaryTarget@@$0CIA@$00@@PAU12@@Z
_TEXT	SEGMENT
___formal$ = 8						; size = 4
??$_Val_type@PAUWeightedElement@?$CvWeightedVector@UCvMilitaryTarget@@$0CIA@$00@@@std@@YAPAUWeightedElement@?$CvWeightedVector@UCvMilitaryTarget@@$0CIA@$00@@PAU12@@Z PROC ; std::_Val_type<CvWeightedVector<CvMilitaryTarget,640,1>::WeightedElement *>, COMDAT

; 1766 : 	return (0);

	xor	eax, eax

; 1767 : 	}

	ret	0
??$_Val_type@PAUWeightedElement@?$CvWeightedVector@UCvMilitaryTarget@@$0CIA@$00@@@std@@YAPAUWeightedElement@?$CvWeightedVector@UCvMilitaryTarget@@$0CIA@$00@@PAU12@@Z ENDP ; std::_Val_type<CvWeightedVector<CvMilitaryTarget,640,1>::WeightedElement *>
_TEXT	ENDS
EXTRN	__imp_??0exception@std@@QAE@ABV01@@Z:PROC
;	COMDAT xdata$x
xdata$x	SEGMENT
__unwindtable$??0logic_error@std@@QAE@ABV01@@Z DD 0ffffffffH
	DD	FLAT:__unwindfunclet$??0logic_error@std@@QAE@ABV01@@Z$0
__ehfuncinfo$??0logic_error@std@@QAE@ABV01@@Z DD 019930522H
	DD	01H
	DD	FLAT:__unwindtable$??0logic_error@std@@QAE@ABV01@@Z
	DD	2 DUP(00H)
	DD	2 DUP(00H)
	DD	00H
	DD	01H
; Function compile flags: /Ogtpy
xdata$x	ENDS
;	COMDAT ??0logic_error@std@@QAE@ABV01@@Z
_TEXT	SEGMENT
_this$ = -16						; size = 4
__$EHRec$ = -12						; size = 12
___that$ = 8						; size = 4
??0logic_error@std@@QAE@ABV01@@Z PROC			; std::logic_error::logic_error, COMDAT
; _this$ = ecx
	push	-1
	push	__ehhandler$??0logic_error@std@@QAE@ABV01@@Z
	mov	eax, DWORD PTR fs:0
	push	eax
	mov	DWORD PTR fs:0, esp
	push	ecx
	push	esi
	push	edi
	mov	edi, DWORD PTR ___that$[esp+20]
	mov	esi, ecx
	push	edi
	mov	DWORD PTR _this$[esp+28], esi
	call	DWORD PTR __imp_??0exception@std@@QAE@ABV01@@Z
	add	edi, 12					; 0000000cH
	push	edi
	lea	ecx, DWORD PTR [esi+12]
	mov	DWORD PTR __$EHRec$[esp+36], 0
	mov	DWORD PTR [esi], OFFSET ??_7logic_error@std@@6B@
	call	DWORD PTR __imp_??0?$basic_string@DU?$char_traits@D@std@@V?$allocator@D@2@@std@@QAE@ABV01@@Z
	mov	ecx, DWORD PTR __$EHRec$[esp+24]
	pop	edi
	mov	eax, esi
	pop	esi
	mov	DWORD PTR fs:0, ecx
	add	esp, 16					; 00000010H
	ret	4
_TEXT	ENDS
;	COMDAT text$x
text$x	SEGMENT
__unwindfunclet$??0logic_error@std@@QAE@ABV01@@Z$0:
	mov	ecx, DWORD PTR _this$[ebp]
	jmp	DWORD PTR __imp_??1exception@std@@UAE@XZ
__ehhandler$??0logic_error@std@@QAE@ABV01@@Z:
	mov	eax, OFFSET __ehfuncinfo$??0logic_error@std@@QAE@ABV01@@Z
	jmp	___CxxFrameHandler3
text$x	ENDS
??0logic_error@std@@QAE@ABV01@@Z ENDP			; std::logic_error::logic_error
PUBLIC	??$swap@UWeightedElement@?$CvWeightedVector@UCvMilitaryTarget@@$0CIA@$00@@@std@@YAXAAUWeightedElement@?$CvWeightedVector@UCvMilitaryTarget@@$0CIA@$00@@0@Z ; std::swap<CvWeightedVector<CvMilitaryTarget,640,1>::WeightedElement>
; Function compile flags: /Ogtpy
; File c:\program files (x86)\microsoft visual studio 9.0\vc\include\utility
;	COMDAT ??$swap@UWeightedElement@?$CvWeightedVector@UCvMilitaryTarget@@$0CIA@$00@@@std@@YAXAAUWeightedElement@?$CvWeightedVector@UCvMilitaryTarget@@$0CIA@$00@@0@Z
_TEXT	SEGMENT
__Tmp$229951 = -28					; size = 28
__Left$ = 8						; size = 4
__Right$ = 12						; size = 4
??$swap@UWeightedElement@?$CvWeightedVector@UCvMilitaryTarget@@$0CIA@$00@@@std@@YAXAAUWeightedElement@?$CvWeightedVector@UCvMilitaryTarget@@$0CIA@$00@@0@Z PROC ; std::swap<CvWeightedVector<CvMilitaryTarget,640,1>::WeightedElement>, COMDAT

; 18   : 	if (&_Left != &_Right)

	mov	eax, DWORD PTR __Right$[esp-4]
	sub	esp, 28					; 0000001cH
	push	edi
	mov	edi, DWORD PTR __Left$[esp+28]
	cmp	edi, eax
	je	SHORT $LN1@swap

; 19   : 		{	// different, worth swapping
; 20   : 		_Ty _Tmp = _Left;

	mov	ecx, DWORD PTR [edi]
	mov	edx, DWORD PTR [edi+4]
	mov	DWORD PTR __Tmp$229951[esp+32], ecx
	mov	ecx, DWORD PTR [edi+8]
	mov	DWORD PTR __Tmp$229951[esp+40], ecx
	mov	ecx, DWORD PTR [edi+16]
	mov	DWORD PTR __Tmp$229951[esp+48], ecx
	mov	ecx, DWORD PTR [edi+24]
	push	esi
	mov	DWORD PTR __Tmp$229951[esp+40], edx
	mov	edx, DWORD PTR [edi+12]
	mov	DWORD PTR __Tmp$229951[esp+60], ecx
	mov	DWORD PTR __Tmp$229951[esp+48], edx
	mov	edx, DWORD PTR [edi+20]

; 21   : 
; 22   : 		_Left = _Right;

	mov	ecx, 7
	mov	esi, eax
	rep movsd

; 23   : 		_Right = _Tmp;

	mov	ecx, 7
	lea	esi, DWORD PTR __Tmp$229951[esp+36]
	mov	edi, eax
	mov	DWORD PTR __Tmp$229951[esp+56], edx
	rep movsd
	pop	esi
$LN1@swap:
	pop	edi

; 24   : 		}
; 25   : 	}

	add	esp, 28					; 0000001cH
	ret	0
??$swap@UWeightedElement@?$CvWeightedVector@UCvMilitaryTarget@@$0CIA@$00@@@std@@YAXAAUWeightedElement@?$CvWeightedVector@UCvMilitaryTarget@@$0CIA@$00@@0@Z ENDP ; std::swap<CvWeightedVector<CvMilitaryTarget,640,1>::WeightedElement>
_TEXT	ENDS
PUBLIC	??$_Push_heap@PAUWeightedElement@?$CvWeightedVector@UCvMilitaryTarget@@$0CIA@$00@@HU12@@std@@YAXPAUWeightedElement@?$CvWeightedVector@UCvMilitaryTarget@@$0CIA@$00@@HHU12@@Z ; std::_Push_heap<CvWeightedVector<CvMilitaryTarget,640,1>::WeightedElement *,int,CvWeightedVector<CvMilitaryTarget,640,1>::WeightedElement>
; Function compile flags: /Ogtpy
; File c:\program files (x86)\microsoft visual studio 9.0\vc\include\algorithm
;	COMDAT ??$_Push_heap@PAUWeightedElement@?$CvWeightedVector@UCvMilitaryTarget@@$0CIA@$00@@HU12@@std@@YAXPAUWeightedElement@?$CvWeightedVector@UCvMilitaryTarget@@$0CIA@$00@@HHU12@@Z
_TEXT	SEGMENT
__First$ = 8						; size = 4
__Hole$ = 12						; size = 4
__Top$ = 16						; size = 4
__Val$ = 20						; size = 28
??$_Push_heap@PAUWeightedElement@?$CvWeightedVector@UCvMilitaryTarget@@$0CIA@$00@@HU12@@std@@YAXPAUWeightedElement@?$CvWeightedVector@UCvMilitaryTarget@@$0CIA@$00@@HHU12@@Z PROC ; std::_Push_heap<CvWeightedVector<CvMilitaryTarget,640,1>::WeightedElement *,int,CvWeightedVector<CvMilitaryTarget,640,1>::WeightedElement>, COMDAT

; 1973 : 	for (_Diff _Idx = (_Hole - 1) / 2;

	mov	ecx, DWORD PTR __Hole$[esp-4]
	push	ebx

; 1974 : 		_Top < _Hole && _DEBUG_LT(*(_First + _Idx), _Val);
; 1975 : 		_Idx = (_Hole - 1) / 2)

	mov	ebx, DWORD PTR __First$[esp]
	lea	eax, DWORD PTR [ecx-1]
	cdq
	push	ebp
	mov	ebp, DWORD PTR __Top$[esp+4]
	sub	eax, edx
	push	esi
	sar	eax, 1
	cmp	ebp, ecx
	push	edi
	jge	SHORT $LN1@Push_heap
	npad	4
$LL3@Push_heap:
	lea	edx, DWORD PTR [eax*8]
	sub	edx, eax
	lea	esi, DWORD PTR [ebx+edx*4]
	mov	edx, DWORD PTR __Val$[esp+36]
	cmp	DWORD PTR [esi+24], edx
	jle	SHORT $LN1@Push_heap

; 1976 : 		{	// move _Hole up to parent
; 1977 : 		*(_First + _Hole) = *(_First + _Idx);

	lea	edx, DWORD PTR [ecx*8]
	sub	edx, ecx
	lea	edi, DWORD PTR [ebx+edx*4]
	mov	ecx, 7
	rep movsd

; 1978 : 		_Hole = _Idx;

	mov	ecx, eax
	dec	eax
	cdq
	sub	eax, edx
	sar	eax, 1
	cmp	ebp, ecx
	jl	SHORT $LL3@Push_heap
$LN1@Push_heap:

; 1979 : 		}
; 1980 : 
; 1981 : 	*(_First + _Hole) = _Val;	// drop _Val into final hole

	lea	eax, DWORD PTR [ecx*8]
	sub	eax, ecx
	lea	edi, DWORD PTR [ebx+eax*4]
	mov	ecx, 7
	lea	esi, DWORD PTR __Val$[esp+12]
	rep movsd
	pop	edi
	pop	esi
	pop	ebp
	pop	ebx

; 1982 : 	}

	ret	0
??$_Push_heap@PAUWeightedElement@?$CvWeightedVector@UCvMilitaryTarget@@$0CIA@$00@@HU12@@std@@YAXPAUWeightedElement@?$CvWeightedVector@UCvMilitaryTarget@@$0CIA@$00@@HHU12@@Z ENDP ; std::_Push_heap<CvWeightedVector<CvMilitaryTarget,640,1>::WeightedElement *,int,CvWeightedVector<CvMilitaryTarget,640,1>::WeightedElement>
_TEXT	ENDS
PUBLIC	??$_Iter_random@PAUWeightedElement@?$CvWeightedVector@UCvMilitaryTarget@@$0CIA@$00@@PAU12@@std@@YA?AUrandom_access_iterator_tag@0@ABQAUWeightedElement@?$CvWeightedVector@UCvMilitaryTarget@@$0CIA@$00@@0@Z ; std::_Iter_random<CvWeightedVector<CvMilitaryTarget,640,1>::WeightedElement *,CvWeightedVector<CvMilitaryTarget,640,1>::WeightedElement *>
; Function compile flags: /Ogtpy
; File c:\program files (x86)\microsoft visual studio 9.0\vc\include\xutility
;	COMDAT ??$_Iter_random@PAUWeightedElement@?$CvWeightedVector@UCvMilitaryTarget@@$0CIA@$00@@PAU12@@std@@YA?AUrandom_access_iterator_tag@0@ABQAUWeightedElement@?$CvWeightedVector@UCvMilitaryTarget@@$0CIA@$00@@0@Z
_TEXT	SEGMENT
___$ReturnUdt$ = 8					; size = 4
___formal$ = 12						; size = 4
___formal$ = 16						; size = 4
??$_Iter_random@PAUWeightedElement@?$CvWeightedVector@UCvMilitaryTarget@@$0CIA@$00@@PAU12@@std@@YA?AUrandom_access_iterator_tag@0@ABQAUWeightedElement@?$CvWeightedVector@UCvMilitaryTarget@@$0CIA@$00@@0@Z PROC ; std::_Iter_random<CvWeightedVector<CvMilitaryTarget,640,1>::WeightedElement *,CvWeightedVector<CvMilitaryTarget,640,1>::WeightedElement *>, COMDAT

; 994  : 	typename _Iter_random_helper<
; 995  : 		iterator_traits<_Iter1>::iterator_category, 
; 996  : 		iterator_traits<_Iter2>::iterator_category>::_Iter_random_cat _Cat;
; 997  : 	return (_Cat);

	mov	eax, DWORD PTR ___$ReturnUdt$[esp-4]

; 998  : 	}

	ret	0
??$_Iter_random@PAUWeightedElement@?$CvWeightedVector@UCvMilitaryTarget@@$0CIA@$00@@PAU12@@std@@YA?AUrandom_access_iterator_tag@0@ABQAUWeightedElement@?$CvWeightedVector@UCvMilitaryTarget@@$0CIA@$00@@0@Z ENDP ; std::_Iter_random<CvWeightedVector<CvMilitaryTarget,640,1>::WeightedElement *,CvWeightedVector<CvMilitaryTarget,640,1>::WeightedElement *>
_TEXT	ENDS
PUBLIC	??$_Ptr_cat@PAUWeightedElement@?$CvWeightedVector@UCvMilitaryTarget@@$0CIA@$00@@PAU12@@std@@YA?AU_Nonscalar_ptr_iterator_tag@0@AAPAUWeightedElement@?$CvWeightedVector@UCvMilitaryTarget@@$0CIA@$00@@0@Z ; std::_Ptr_cat<CvWeightedVector<CvMilitaryTarget,640,1>::WeightedElement *,CvWeightedVector<CvMilitaryTarget,640,1>::WeightedElement *>
; Function compile flags: /Ogtpy
;	COMDAT ??$_Ptr_cat@PAUWeightedElement@?$CvWeightedVector@UCvMilitaryTarget@@$0CIA@$00@@PAU12@@std@@YA?AU_Nonscalar_ptr_iterator_tag@0@AAPAUWeightedElement@?$CvWeightedVector@UCvMilitaryTarget@@$0CIA@$00@@0@Z
_TEXT	SEGMENT
__Cat$ = -1						; size = 1
___formal$ = 8						; size = 4
___formal$ = 12						; size = 4
??$_Ptr_cat@PAUWeightedElement@?$CvWeightedVector@UCvMilitaryTarget@@$0CIA@$00@@PAU12@@std@@YA?AU_Nonscalar_ptr_iterator_tag@0@AAPAUWeightedElement@?$CvWeightedVector@UCvMilitaryTarget@@$0CIA@$00@@0@Z PROC ; std::_Ptr_cat<CvWeightedVector<CvMilitaryTarget,640,1>::WeightedElement *,CvWeightedVector<CvMilitaryTarget,640,1>::WeightedElement *>, COMDAT

; 1509 : 	{

	push	ecx

; 1510 : 	typename _Ptr_cat_helper<_T1, _T2>::_Ptr_cat _Cat;
; 1511 : 	return (_Cat);

	mov	al, BYTE PTR __Cat$[esp+4]

; 1512 : 	}

	pop	ecx
	ret	0
??$_Ptr_cat@PAUWeightedElement@?$CvWeightedVector@UCvMilitaryTarget@@$0CIA@$00@@PAU12@@std@@YA?AU_Nonscalar_ptr_iterator_tag@0@AAPAUWeightedElement@?$CvWeightedVector@UCvMilitaryTarget@@$0CIA@$00@@0@Z ENDP ; std::_Ptr_cat<CvWeightedVector<CvMilitaryTarget,640,1>::WeightedElement *,CvWeightedVector<CvMilitaryTarget,640,1>::WeightedElement *>
_TEXT	ENDS
PUBLIC	??$_Copy_backward_opt@PAUWeightedElement@?$CvWeightedVector@UCvMilitaryTarget@@$0CIA@$00@@PAU12@Urandom_access_iterator_tag@std@@@std@@YAPAUWeightedElement@?$CvWeightedVector@UCvMilitaryTarget@@$0CIA@$00@@PAU12@00Urandom_access_iterator_tag@0@U_Nonscalar_ptr_iterator_tag@0@U_Range_checked_iterator_tag@0@@Z ; std::_Copy_backward_opt<CvWeightedVector<CvMilitaryTarget,640,1>::WeightedElement *,CvWeightedVector<CvMilitaryTarget,640,1>::WeightedElement *,std::random_access_iterator_tag>
; Function compile flags: /Ogtpy
;	COMDAT ??$_Copy_backward_opt@PAUWeightedElement@?$CvWeightedVector@UCvMilitaryTarget@@$0CIA@$00@@PAU12@Urandom_access_iterator_tag@std@@@std@@YAPAUWeightedElement@?$CvWeightedVector@UCvMilitaryTarget@@$0CIA@$00@@PAU12@00Urandom_access_iterator_tag@0@U_Nonscalar_ptr_iterator_tag@0@U_Range_checked_iterator_tag@0@@Z
_TEXT	SEGMENT
__First$ = 8						; size = 4
__Last$ = 12						; size = 4
__Dest$ = 16						; size = 4
___formal$ = 20						; size = 1
___formal$ = 24						; size = 1
___formal$ = 28						; size = 1
??$_Copy_backward_opt@PAUWeightedElement@?$CvWeightedVector@UCvMilitaryTarget@@$0CIA@$00@@PAU12@Urandom_access_iterator_tag@std@@@std@@YAPAUWeightedElement@?$CvWeightedVector@UCvMilitaryTarget@@$0CIA@$00@@PAU12@00Urandom_access_iterator_tag@0@U_Nonscalar_ptr_iterator_tag@0@U_Range_checked_iterator_tag@0@@Z PROC ; std::_Copy_backward_opt<CvWeightedVector<CvMilitaryTarget,640,1>::WeightedElement *,CvWeightedVector<CvMilitaryTarget,640,1>::WeightedElement *,std::random_access_iterator_tag>, COMDAT

; 2674 : 	_DEBUG_RANGE(_First, _Last);
; 2675 : 	while (_First != _Last)

	mov	edx, DWORD PTR __Last$[esp-4]
	mov	eax, DWORD PTR __Dest$[esp-4]
	push	ebx
	mov	ebx, DWORD PTR __First$[esp]
	cmp	ebx, edx
	je	SHORT $LN1@Copy_backw
	push	esi
	push	edi
$LL2@Copy_backw:

; 2676 : 		*--_Dest = *--_Last;

	sub	edx, 28					; 0000001cH
	sub	eax, 28					; 0000001cH
	mov	ecx, 7
	mov	esi, edx
	mov	edi, eax
	rep movsd
	cmp	edx, ebx
	jne	SHORT $LL2@Copy_backw
	pop	edi
	pop	esi
$LN1@Copy_backw:
	pop	ebx

; 2677 : 	return (_Dest);
; 2678 : 	}

	ret	0
??$_Copy_backward_opt@PAUWeightedElement@?$CvWeightedVector@UCvMilitaryTarget@@$0CIA@$00@@PAU12@Urandom_access_iterator_tag@std@@@std@@YAPAUWeightedElement@?$CvWeightedVector@UCvMilitaryTarget@@$0CIA@$00@@PAU12@00Urandom_access_iterator_tag@0@U_Nonscalar_ptr_iterator_tag@0@U_Range_checked_iterator_tag@0@@Z ENDP ; std::_Copy_backward_opt<CvWeightedVector<CvMilitaryTarget,640,1>::WeightedElement *,CvWeightedVector<CvMilitaryTarget,640,1>::WeightedElement *,std::random_access_iterator_tag>
_TEXT	ENDS
PUBLIC	??0CvString@@QAE@XZ				; CvString::CvString
EXTRN	__imp_??0?$basic_string@DU?$char_traits@D@std@@V?$allocator@D@2@@std@@QAE@XZ:PROC
; Function compile flags: /Ogtpy
; File c:\users\enormousapplepie\documents\github\lekmod\lekmod_dll\cvgamecoredllutil\include\cvstring.h
;	COMDAT ??0CvString@@QAE@XZ
_TEXT	SEGMENT
??0CvString@@QAE@XZ PROC				; CvString::CvString, COMDAT
; _this$ = ecx

; 23   : 	CvString() {}

	push	esi
	mov	esi, ecx
	call	DWORD PTR __imp_??0?$basic_string@DU?$char_traits@D@std@@V?$allocator@D@2@@std@@QAE@XZ
	mov	eax, esi
	pop	esi
	ret	0
??0CvString@@QAE@XZ ENDP				; CvString::CvString
_TEXT	ENDS
PUBLIC	??_C@_00CNPNBAHC@?$AA@				; `string'
PUBLIC	??0CvString@@QAE@PBD@Z				; CvString::CvString
;	COMDAT ??_C@_00CNPNBAHC@?$AA@
CONST	SEGMENT
??_C@_00CNPNBAHC@?$AA@ DB 00H				; `string'
; Function compile flags: /Ogtpy
CONST	ENDS
;	COMDAT ??0CvString@@QAE@PBD@Z
_TEXT	SEGMENT
_s$ = 8							; size = 4
??0CvString@@QAE@PBD@Z PROC				; CvString::CvString, COMDAT
; _this$ = ecx

; 25   : 	CvString(const char* s) : std::string(s ? s : "") {CvAssertMsg(s != NULL, "Passing NULL to std::string; possible heap corruption!");}

	mov	eax, DWORD PTR _s$[esp-4]
	push	esi
	mov	esi, ecx
	test	eax, eax
	jne	SHORT $LN4@CvString
	mov	eax, OFFSET ??_C@_00CNPNBAHC@?$AA@
$LN4@CvString:
	push	eax
	call	DWORD PTR __imp_??0?$basic_string@DU?$char_traits@D@std@@V?$allocator@D@2@@std@@QAE@PBD@Z
	mov	eax, esi
	pop	esi
	ret	4
??0CvString@@QAE@PBD@Z ENDP				; CvString::CvString
_TEXT	ENDS
PUBLIC	??1CvString@@QAE@XZ				; CvString::~CvString
; Function compile flags: /Ogtpy
;	COMDAT ??1CvString@@QAE@XZ
_TEXT	SEGMENT
??1CvString@@QAE@XZ PROC				; CvString::~CvString, COMDAT
; _this$ = ecx

; 28   : 	~CvString() {}

	jmp	DWORD PTR __imp_??1?$basic_string@DU?$char_traits@D@std@@V?$allocator@D@2@@std@@QAE@XZ
??1CvString@@QAE@XZ ENDP				; CvString::~CvString
_TEXT	ENDS
PUBLIC	??BCvString@@QBEPBDXZ				; CvString::operator char const *
; Function compile flags: /Ogtpy
;	COMDAT ??BCvString@@QBEPBDXZ
_TEXT	SEGMENT
??BCvString@@QBEPBDXZ PROC				; CvString::operator char const *, COMDAT
; _this$ = ecx

; 31   : 	operator const char*() const 	{ return c_str(); }												

	jmp	DWORD PTR __imp_?c_str@?$basic_string@DU?$char_traits@D@std@@V?$allocator@D@2@@std@@QBEPBDXZ
??BCvString@@QBEPBDXZ ENDP				; CvString::operator char const *
_TEXT	ENDS
PUBLIC	??4CvString@@QAEAAV0@PBD@Z			; CvString::operator=
EXTRN	__imp_?clear@?$basic_string@DU?$char_traits@D@std@@V?$allocator@D@2@@std@@QAEXXZ:PROC
EXTRN	__imp_?assign@?$basic_string@DU?$char_traits@D@std@@V?$allocator@D@2@@std@@QAEAAV12@PBD@Z:PROC
; Function compile flags: /Ogtpy
;	COMDAT ??4CvString@@QAEAAV0@PBD@Z
_TEXT	SEGMENT
_s$ = 8							; size = 4
??4CvString@@QAEAAV0@PBD@Z PROC				; CvString::operator=, COMDAT
; _this$ = ecx

; 37   : 	CvString& operator=( const char* s) { if (s) assign(s); else clear();	return *this; }	

	mov	eax, DWORD PTR _s$[esp-4]
	push	esi
	mov	esi, ecx
	test	eax, eax
	je	SHORT $LN2@operator
	push	eax
	call	DWORD PTR __imp_?assign@?$basic_string@DU?$char_traits@D@std@@V?$allocator@D@2@@std@@QAEAAV12@PBD@Z
	mov	eax, esi
	pop	esi
	ret	4
$LN2@operator:
	call	DWORD PTR __imp_?clear@?$basic_string@DU?$char_traits@D@std@@V?$allocator@D@2@@std@@QAEXXZ
	mov	eax, esi
	pop	esi
	ret	4
??4CvString@@QAEAAV0@PBD@Z ENDP				; CvString::operator=
_TEXT	ENDS
PUBLIC	??4CvString@@QAEAAV0@ABV?$basic_string@DU?$char_traits@D@std@@V?$allocator@D@2@@std@@@Z ; CvString::operator=
; Function compile flags: /Ogtpy
;	COMDAT ??4CvString@@QAEAAV0@ABV?$basic_string@DU?$char_traits@D@std@@V?$allocator@D@2@@std@@@Z
_TEXT	SEGMENT
_s$ = 8							; size = 4
??4CvString@@QAEAAV0@ABV?$basic_string@DU?$char_traits@D@std@@V?$allocator@D@2@@std@@@Z PROC ; CvString::operator=, COMDAT
; _this$ = ecx

; 38   : 	CvString& operator=( const std::string& s) { assign(s.c_str());	return *this; }	

	push	esi
	mov	esi, ecx
	mov	ecx, DWORD PTR _s$[esp]
	call	DWORD PTR __imp_?c_str@?$basic_string@DU?$char_traits@D@std@@V?$allocator@D@2@@std@@QBEPBDXZ
	push	eax
	mov	ecx, esi
	call	DWORD PTR __imp_?assign@?$basic_string@DU?$char_traits@D@std@@V?$allocator@D@2@@std@@QAEAAV12@PBD@Z
	mov	eax, esi
	pop	esi
	ret	4
??4CvString@@QAEAAV0@ABV?$basic_string@DU?$char_traits@D@std@@V?$allocator@D@2@@std@@@Z ENDP ; CvString::operator=
_TEXT	ENDS
PUBLIC	?GetCString@CvString@@QBEPBDXZ			; CvString::GetCString
; Function compile flags: /Ogtpy
;	COMDAT ?GetCString@CvString@@QBEPBDXZ
_TEXT	SEGMENT
?GetCString@CvString@@QBEPBDXZ PROC			; CvString::GetCString, COMDAT
; _this$ = ecx

; 42   : 	const char* GetCString() const 	{ return c_str(); }

	jmp	DWORD PTR __imp_?c_str@?$basic_string@DU?$char_traits@D@std@@V?$allocator@D@2@@std@@QBEPBDXZ
?GetCString@CvString@@QBEPBDXZ ENDP			; CvString::GetCString
_TEXT	ENDS
PUBLIC	?GetLength@CvString@@QBEHXZ			; CvString::GetLength
EXTRN	__imp_?size@?$basic_string@DU?$char_traits@D@std@@V?$allocator@D@2@@std@@QBEIXZ:PROC
; Function compile flags: /Ogtpy
;	COMDAT ?GetLength@CvString@@QBEHXZ
_TEXT	SEGMENT
?GetLength@CvString@@QBEHXZ PROC			; CvString::GetLength, COMDAT
; _this$ = ecx

; 46   : 	int GetLength() const { return (int) size(); }

	jmp	DWORD PTR __imp_?size@?$basic_string@DU?$char_traits@D@std@@V?$allocator@D@2@@std@@QBEIXZ
?GetLength@CvString@@QBEHXZ ENDP			; CvString::GetLength
_TEXT	ENDS
PUBLIC	?formatv@CvString@@SA_NAAV?$basic_string@DU?$char_traits@D@std@@V?$allocator@D@2@@std@@PBDPAD@Z ; CvString::formatv
EXTRN	__imp_??4?$basic_string@DU?$char_traits@D@std@@V?$allocator@D@2@@std@@QAEAAV01@PBD@Z:PROC
EXTRN	??_U@YAPAXI@Z:PROC				; operator new[]
EXTRN	__imp___vsnprintf:PROC
; Function compile flags: /Ogtpy
;	COMDAT ?formatv@CvString@@SA_NAAV?$basic_string@DU?$char_traits@D@std@@V?$allocator@D@2@@std@@PBDPAD@Z
_TEXT	SEGMENT
_buf$ = -2048						; size = 2048
_out$ = 8						; size = 4
_fmt$ = 12						; size = 4
_args$ = 16						; size = 4
?formatv@CvString@@SA_NAAV?$basic_string@DU?$char_traits@D@std@@V?$allocator@D@2@@std@@PBDPAD@Z PROC ; CvString::formatv, COMDAT

; 191  : {

	sub	esp, 2048				; 00000800H
	push	ebx
	push	ebp

; 192  : 	char buf[2048];
; 193  : 	char * pbuf = buf;

	mov	ebp, DWORD PTR _args$[esp+2052]
	push	esi
	push	edi
	lea	edi, DWORD PTR _buf$[esp+2064]
	mov	esi, 2047				; 000007ffH
	npad	6
$LL10@formatv:

; 194  : 	int len = 0;
; 195  : 	int attempts = 0;
; 196  : 	bool success = false;
; 197  : 	const int kMaxAttempts = 40;
; 198  : 
; 199  : 	do
; 200  : 	{
; 201  : 		int maxlen = 2047+2048*attempts;
; 202  : 		len = _vsnprintf(pbuf,maxlen,fmt,args);

	mov	eax, DWORD PTR _fmt$[esp+2060]
	push	ebp
	push	eax
	push	esi
	push	edi
	mov	ebx, esi
	call	DWORD PTR __imp___vsnprintf
	add	esp, 16					; 00000010H

; 203  : 		attempts++;

	add	esi, 2048				; 00000800H

; 204  : 		success = (len>=0 && len<=maxlen);

	test	eax, eax
	jl	SHORT $LN13@formatv
	cmp	eax, ebx
	jle	SHORT $LN18@formatv
$LN13@formatv:

; 205  : 		if (!success)
; 206  : 		{
; 207  : 			if (pbuf!=buf)

	lea	ecx, DWORD PTR _buf$[esp+2064]
	xor	bl, bl
	cmp	edi, ecx
	je	SHORT $LN6@formatv

; 208  : 				delete [] pbuf;

	push	edi
	call	??_V@YAXPAX@Z				; operator delete[]
	add	esp, 4
$LN6@formatv:

; 209  : 			pbuf = new char[2048+2048*attempts];

	lea	edx, DWORD PTR [esi+1]
	push	edx
	call	??_U@YAPAXI@Z				; operator new[]
	add	esp, 4

; 210  : 		}
; 211  : 	}
; 212  : 	while (!success && attempts<kMaxAttempts);

	cmp	esi, 83967				; 000147ffH
	mov	edi, eax
	jl	SHORT $LL10@formatv

; 222  : 		out = "";

	push	OFFSET ??_C@_00CNPNBAHC@?$AA@
$LN21@formatv:
	mov	ecx, DWORD PTR _out$[esp+2064]
	call	DWORD PTR __imp_??4?$basic_string@DU?$char_traits@D@std@@V?$allocator@D@2@@std@@QAEAAV01@PBD@Z

; 223  : 
; 224  : 	if (pbuf!=buf)

	lea	eax, DWORD PTR _buf$[esp+2064]
	cmp	edi, eax
	je	SHORT $LN20@formatv

; 225  : 		delete [] pbuf;

	push	edi
	call	??_V@YAXPAX@Z				; operator delete[]
	add	esp, 4
$LN20@formatv:
	pop	edi
	pop	esi
	pop	ebp

; 226  : 
; 227  : 	return success;

	mov	al, bl
	pop	ebx

; 228  : }

	add	esp, 2048				; 00000800H
	ret	0
$LN18@formatv:

; 204  : 		success = (len>=0 && len<=maxlen);

	mov	bl, 1

; 213  : 
; 214  : 	if ( attempts==kMaxAttempts )
; 215  : 	{
; 216  : 		// dxPrintNL( "CvString::formatv - Max reallocs occurred while formatting string. Result is likely truncated!", 0 );
; 217  : 	}
; 218  : 
; 219  : 	if (success)
; 220  : 		out = pbuf;

	push	edi

; 221  : 	else

	jmp	SHORT $LN21@formatv
?formatv@CvString@@SA_NAAV?$basic_string@DU?$char_traits@D@std@@V?$allocator@D@2@@std@@PBDPAD@Z ENDP ; CvString::formatv
_TEXT	ENDS
PUBLIC	?Format@CvString@@QAAXPBDZZ			; CvString::Format
;	COMDAT xdata$x
xdata$x	SEGMENT
__unwindtable$?Format@CvString@@QAAXPBDZZ DD 0ffffffffH
	DD	FLAT:__unwindfunclet$?Format@CvString@@QAAXPBDZZ$0
__ehfuncinfo$?Format@CvString@@QAAXPBDZZ DD 019930522H
	DD	01H
	DD	FLAT:__unwindtable$?Format@CvString@@QAAXPBDZZ
	DD	2 DUP(00H)
	DD	2 DUP(00H)
	DD	00H
	DD	01H
; Function compile flags: /Ogtpy
xdata$x	ENDS
;	COMDAT ?Format@CvString@@QAAXPBDZZ
_TEXT	SEGMENT
_result$ = -40						; size = 28
__$EHRec$ = -12						; size = 12
_this$ = 8						; size = 4
_lpszFormat$ = 12					; size = 4
?Format@CvString@@QAAXPBDZZ PROC			; CvString::Format, COMDAT

; 269  : {

	push	-1
	push	__ehhandler$?Format@CvString@@QAAXPBDZZ
	mov	eax, DWORD PTR fs:0
	push	eax
	mov	DWORD PTR fs:0, esp
	sub	esp, 28					; 0000001cH

; 270  : 	std::string result;

	lea	ecx, DWORD PTR _result$[esp+40]
	call	DWORD PTR __imp_??0?$basic_string@DU?$char_traits@D@std@@V?$allocator@D@2@@std@@QAE@XZ

; 271  : 	va_list args;
; 272  : 	va_start(args,lpszFormat);
; 273  : 	formatv(result,lpszFormat,args);

	mov	ecx, DWORD PTR _lpszFormat$[esp+36]
	lea	eax, DWORD PTR _lpszFormat$[esp+40]
	push	eax
	push	ecx
	lea	edx, DWORD PTR _result$[esp+48]
	push	edx
	mov	DWORD PTR __$EHRec$[esp+60], 0
	call	?formatv@CvString@@SA_NAAV?$basic_string@DU?$char_traits@D@std@@V?$allocator@D@2@@std@@PBDPAD@Z ; CvString::formatv
	add	esp, 12					; 0000000cH

; 274  : 	va_end(args);
; 275  : 	*this = result;

	lea	ecx, DWORD PTR _result$[esp+40]
	call	DWORD PTR __imp_?c_str@?$basic_string@DU?$char_traits@D@std@@V?$allocator@D@2@@std@@QBEPBDXZ
	mov	ecx, DWORD PTR _this$[esp+36]
	push	eax
	call	DWORD PTR __imp_?assign@?$basic_string@DU?$char_traits@D@std@@V?$allocator@D@2@@std@@QAEAAV12@PBD@Z

; 276  : }

	lea	ecx, DWORD PTR _result$[esp+40]
	mov	DWORD PTR __$EHRec$[esp+48], -1
	call	DWORD PTR __imp_??1?$basic_string@DU?$char_traits@D@std@@V?$allocator@D@2@@std@@QAE@XZ
	mov	ecx, DWORD PTR __$EHRec$[esp+40]
	mov	DWORD PTR fs:0, ecx
	add	esp, 40					; 00000028H
	ret	0
_TEXT	ENDS
;	COMDAT text$x
text$x	SEGMENT
__unwindfunclet$?Format@CvString@@QAAXPBDZZ$0:
	lea	ecx, DWORD PTR _result$[ebp]
	jmp	DWORD PTR __imp_??1?$basic_string@DU?$char_traits@D@std@@V?$allocator@D@2@@std@@QAE@XZ
__ehhandler$?Format@CvString@@QAAXPBDZZ:
	mov	eax, OFFSET __ehfuncinfo$?Format@CvString@@QAAXPBDZZ
	jmp	___CxxFrameHandler3
text$x	ENDS
?Format@CvString@@QAAXPBDZZ ENDP			; CvString::Format
PUBLIC	??CCvLuaArgsHandle@@QBEPAVICvEngineScriptSystemArgs1@@XZ ; CvLuaArgsHandle::operator->
; Function compile flags: /Ogtpy
; File c:\users\enormousapplepie\documents\github\lekmod\lekmod_dll\cvgamecoredll_expansion2\lua\cvluaargshandle.h
;	COMDAT ??CCvLuaArgsHandle@@QBEPAVICvEngineScriptSystemArgs1@@XZ
_TEXT	SEGMENT
??CCvLuaArgsHandle@@QBEPAVICvEngineScriptSystemArgs1@@XZ PROC ; CvLuaArgsHandle::operator->, COMDAT
; _this$ = ecx

; 40   : 	return m_Ptr;

	mov	eax, DWORD PTR [ecx]

; 41   : }

	ret	0
??CCvLuaArgsHandle@@QBEPAVICvEngineScriptSystemArgs1@@XZ ENDP ; CvLuaArgsHandle::operator->
_TEXT	ENDS
PUBLIC	?get@CvLuaArgsHandle@@QBEPAVICvEngineScriptSystemArgs1@@XZ ; CvLuaArgsHandle::get
; Function compile flags: /Ogtpy
;	COMDAT ?get@CvLuaArgsHandle@@QBEPAVICvEngineScriptSystemArgs1@@XZ
_TEXT	SEGMENT
?get@CvLuaArgsHandle@@QBEPAVICvEngineScriptSystemArgs1@@XZ PROC ; CvLuaArgsHandle::get, COMDAT
; _this$ = ecx

; 45   : 	return m_Ptr;

	mov	eax, DWORD PTR [ecx]

; 46   : }

	ret	0
?get@CvLuaArgsHandle@@QBEPAVICvEngineScriptSystemArgs1@@XZ ENDP ; CvLuaArgsHandle::get
_TEXT	ENDS
PUBLIC	?GetID@CvBaseInfo@@QBEHXZ			; CvBaseInfo::GetID
; Function compile flags: /Ogtpy
; File c:\users\enormousapplepie\documents\github\lekmod\lekmod_dll\cvgamecoredll_expansion2\cvinfos.h
;	COMDAT ?GetID@CvBaseInfo@@QBEHXZ
_TEXT	SEGMENT
?GetID@CvBaseInfo@@QBEHXZ PROC				; CvBaseInfo::GetID, COMDAT
; _this$ = ecx

; 54   : 		return m_iID;

	mov	eax, DWORD PTR [ecx+4]

; 55   : 	}

	ret	0
?GetID@CvBaseInfo@@QBEHXZ ENDP				; CvBaseInfo::GetID
_TEXT	ENDS
PUBLIC	?GetDescription@CvBaseInfo@@QBEPBDXZ		; CvBaseInfo::GetDescription
; Function compile flags: /Ogtpy
;	COMDAT ?GetDescription@CvBaseInfo@@QBEPBDXZ
_TEXT	SEGMENT
?GetDescription@CvBaseInfo@@QBEPBDXZ PROC		; CvBaseInfo::GetDescription, COMDAT
; _this$ = ecx

; 64   : 		return m_strDescription.c_str();

	add	ecx, 36					; 00000024H
	jmp	DWORD PTR __imp_?c_str@?$basic_string@DU?$char_traits@D@std@@V?$allocator@D@2@@std@@QBEPBDXZ
?GetDescription@CvBaseInfo@@QBEPBDXZ ENDP		; CvBaseInfo::GetDescription
_TEXT	ENDS
PUBLIC	?GetType@CvBaseInfo@@QBEPBDXZ			; CvBaseInfo::GetType
; Function compile flags: /Ogtpy
;	COMDAT ?GetType@CvBaseInfo@@QBEPBDXZ
_TEXT	SEGMENT
?GetType@CvBaseInfo@@QBEPBDXZ PROC			; CvBaseInfo::GetType, COMDAT
; _this$ = ecx

; 92   : 		return m_strType.c_str();

	add	ecx, 176				; 000000b0H
	jmp	DWORD PTR __imp_?c_str@?$basic_string@DU?$char_traits@D@std@@V?$allocator@D@2@@std@@QBEPBDXZ
?GetType@CvBaseInfo@@QBEPBDXZ ENDP			; CvBaseInfo::GetType
_TEXT	ENDS
PUBLIC	?getMap@CvGlobals@@QAEAAVCvMap@@XZ		; CvGlobals::getMap
; Function compile flags: /Ogtpy
; File c:\users\enormousapplepie\documents\github\lekmod\lekmod_dll\cvgamecoredll_expansion2\cvglobals.h
;	COMDAT ?getMap@CvGlobals@@QAEAAVCvMap@@XZ
_TEXT	SEGMENT
?getMap@CvGlobals@@QAEAAVCvMap@@XZ PROC			; CvGlobals::getMap, COMDAT
; _this$ = ecx

; 175  : 		return *m_map;    // inlined for perf reasons, do not use outside of dll

	mov	eax, DWORD PTR [ecx+52]

; 176  : 	}

	ret	0
?getMap@CvGlobals@@QAEAAVCvMap@@XZ ENDP			; CvGlobals::getMap
_TEXT	ENDS
PUBLIC	?getGame@CvGlobals@@QAEAAVCvGame@@XZ		; CvGlobals::getGame
; Function compile flags: /Ogtpy
;	COMDAT ?getGame@CvGlobals@@QAEAAVCvGame@@XZ
_TEXT	SEGMENT
?getGame@CvGlobals@@QAEAAVCvGame@@XZ PROC		; CvGlobals::getGame, COMDAT
; _this$ = ecx

; 183  : 		return *m_game;    // inlined for perf reasons, do not use outside of dll

	mov	eax, DWORD PTR [ecx+48]

; 184  : 	}

	ret	0
?getGame@CvGlobals@@QAEAAVCvGame@@XZ ENDP		; CvGlobals::getGame
_TEXT	ENDS
PUBLIC	?getPlotDirectionX@CvGlobals@@QAEPAHXZ		; CvGlobals::getPlotDirectionX
; Function compile flags: /Ogtpy
;	COMDAT ?getPlotDirectionX@CvGlobals@@QAEPAHXZ
_TEXT	SEGMENT
?getPlotDirectionX@CvGlobals@@QAEPAHXZ PROC		; CvGlobals::getPlotDirectionX, COMDAT
; _this$ = ecx

; 191  : 		return m_aiPlotDirectionX;

	lea	eax, DWORD PTR [ecx+112]

; 192  : 	}

	ret	0
?getPlotDirectionX@CvGlobals@@QAEPAHXZ ENDP		; CvGlobals::getPlotDirectionX
_TEXT	ENDS
PUBLIC	?getPlotDirectionY@CvGlobals@@QAEPAHXZ		; CvGlobals::getPlotDirectionY
; Function compile flags: /Ogtpy
;	COMDAT ?getPlotDirectionY@CvGlobals@@QAEPAHXZ
_TEXT	SEGMENT
?getPlotDirectionY@CvGlobals@@QAEPAHXZ PROC		; CvGlobals::getPlotDirectionY, COMDAT
; _this$ = ecx

; 195  : 		return m_aiPlotDirectionY;

	lea	eax, DWORD PTR [ecx+136]

; 196  : 	}

	ret	0
?getPlotDirectionY@CvGlobals@@QAEPAHXZ ENDP		; CvGlobals::getPlotDirectionY
_TEXT	ENDS
PUBLIC	?getNumFlavorTypes@CvGlobals@@QAEHXZ		; CvGlobals::getNumFlavorTypes
; Function compile flags: /Ogtpy
;	COMDAT ?getNumFlavorTypes@CvGlobals@@QAEHXZ
_TEXT	SEGMENT
?getNumFlavorTypes@CvGlobals@@QAEHXZ PROC		; CvGlobals::getNumFlavorTypes, COMDAT
; _this$ = ecx

; 804  : 		return m_iNumFlavorTypes;

	mov	eax, DWORD PTR [ecx+1764]

; 805  : 	}

	ret	0
?getNumFlavorTypes@CvGlobals@@QAEHXZ ENDP		; CvGlobals::getNumFlavorTypes
_TEXT	ENDS
PUBLIC	?getAI_GOLD_PRIORITY_UNIT@CvGlobals@@QAEHXZ	; CvGlobals::getAI_GOLD_PRIORITY_UNIT
; Function compile flags: /Ogtpy
;	COMDAT ?getAI_GOLD_PRIORITY_UNIT@CvGlobals@@QAEHXZ
_TEXT	SEGMENT
?getAI_GOLD_PRIORITY_UNIT@CvGlobals@@QAEHXZ PROC	; CvGlobals::getAI_GOLD_PRIORITY_UNIT, COMDAT
; _this$ = ecx

; 1157 : 		return m_iAI_GOLD_PRIORITY_UNIT;

	mov	eax, DWORD PTR [ecx+2092]

; 1158 : 	}

	ret	0
?getAI_GOLD_PRIORITY_UNIT@CvGlobals@@QAEHXZ ENDP	; CvGlobals::getAI_GOLD_PRIORITY_UNIT
_TEXT	ENDS
PUBLIC	?getAI_GOLD_PRIORITY_DEFENSIVE_BUILDING@CvGlobals@@QAEHXZ ; CvGlobals::getAI_GOLD_PRIORITY_DEFENSIVE_BUILDING
; Function compile flags: /Ogtpy
;	COMDAT ?getAI_GOLD_PRIORITY_DEFENSIVE_BUILDING@CvGlobals@@QAEHXZ
_TEXT	SEGMENT
?getAI_GOLD_PRIORITY_DEFENSIVE_BUILDING@CvGlobals@@QAEHXZ PROC ; CvGlobals::getAI_GOLD_PRIORITY_DEFENSIVE_BUILDING, COMDAT
; _this$ = ecx

; 1161 : 		return m_iAI_GOLD_PRIORITY_DEFENSIVE_BUILDING;

	mov	eax, DWORD PTR [ecx+2096]

; 1162 : 	}

	ret	0
?getAI_GOLD_PRIORITY_DEFENSIVE_BUILDING@CvGlobals@@QAEHXZ ENDP ; CvGlobals::getAI_GOLD_PRIORITY_DEFENSIVE_BUILDING
_TEXT	ENDS
PUBLIC	?getAI_MILITARY_THREAT_WEIGHT_MINOR@CvGlobals@@QAEHXZ ; CvGlobals::getAI_MILITARY_THREAT_WEIGHT_MINOR
; Function compile flags: /Ogtpy
;	COMDAT ?getAI_MILITARY_THREAT_WEIGHT_MINOR@CvGlobals@@QAEHXZ
_TEXT	SEGMENT
?getAI_MILITARY_THREAT_WEIGHT_MINOR@CvGlobals@@QAEHXZ PROC ; CvGlobals::getAI_MILITARY_THREAT_WEIGHT_MINOR, COMDAT
; _this$ = ecx

; 1229 : 		return m_iAI_MILITARY_THREAT_WEIGHT_MINOR;

	mov	eax, DWORD PTR [ecx+2164]

; 1230 : 	}

	ret	0
?getAI_MILITARY_THREAT_WEIGHT_MINOR@CvGlobals@@QAEHXZ ENDP ; CvGlobals::getAI_MILITARY_THREAT_WEIGHT_MINOR
_TEXT	ENDS
PUBLIC	?getAI_MILITARY_THREAT_WEIGHT_MAJOR@CvGlobals@@QAEHXZ ; CvGlobals::getAI_MILITARY_THREAT_WEIGHT_MAJOR
; Function compile flags: /Ogtpy
;	COMDAT ?getAI_MILITARY_THREAT_WEIGHT_MAJOR@CvGlobals@@QAEHXZ
_TEXT	SEGMENT
?getAI_MILITARY_THREAT_WEIGHT_MAJOR@CvGlobals@@QAEHXZ PROC ; CvGlobals::getAI_MILITARY_THREAT_WEIGHT_MAJOR, COMDAT
; _this$ = ecx

; 1233 : 		return m_iAI_MILITARY_THREAT_WEIGHT_MAJOR;

	mov	eax, DWORD PTR [ecx+2168]

; 1234 : 	}

	ret	0
?getAI_MILITARY_THREAT_WEIGHT_MAJOR@CvGlobals@@QAEHXZ ENDP ; CvGlobals::getAI_MILITARY_THREAT_WEIGHT_MAJOR
_TEXT	ENDS
PUBLIC	?getAI_MILITARY_THREAT_WEIGHT_SEVERE@CvGlobals@@QAEHXZ ; CvGlobals::getAI_MILITARY_THREAT_WEIGHT_SEVERE
; Function compile flags: /Ogtpy
;	COMDAT ?getAI_MILITARY_THREAT_WEIGHT_SEVERE@CvGlobals@@QAEHXZ
_TEXT	SEGMENT
?getAI_MILITARY_THREAT_WEIGHT_SEVERE@CvGlobals@@QAEHXZ PROC ; CvGlobals::getAI_MILITARY_THREAT_WEIGHT_SEVERE, COMDAT
; _this$ = ecx

; 1237 : 		return m_iAI_MILITARY_THREAT_WEIGHT_SEVERE;

	mov	eax, DWORD PTR [ecx+2172]

; 1238 : 	}

	ret	0
?getAI_MILITARY_THREAT_WEIGHT_SEVERE@CvGlobals@@QAEHXZ ENDP ; CvGlobals::getAI_MILITARY_THREAT_WEIGHT_SEVERE
_TEXT	ENDS
PUBLIC	?getAI_MILITARY_THREAT_WEIGHT_CRITICAL@CvGlobals@@QAEHXZ ; CvGlobals::getAI_MILITARY_THREAT_WEIGHT_CRITICAL
; Function compile flags: /Ogtpy
;	COMDAT ?getAI_MILITARY_THREAT_WEIGHT_CRITICAL@CvGlobals@@QAEHXZ
_TEXT	SEGMENT
?getAI_MILITARY_THREAT_WEIGHT_CRITICAL@CvGlobals@@QAEHXZ PROC ; CvGlobals::getAI_MILITARY_THREAT_WEIGHT_CRITICAL, COMDAT
; _this$ = ecx

; 1241 : 		return m_iAI_MILITARY_THREAT_WEIGHT_CRITICAL;

	mov	eax, DWORD PTR [ecx+2176]

; 1242 : 	}

	ret	0
?getAI_MILITARY_THREAT_WEIGHT_CRITICAL@CvGlobals@@QAEHXZ ENDP ; CvGlobals::getAI_MILITARY_THREAT_WEIGHT_CRITICAL
_TEXT	ENDS
PUBLIC	?getAI_STRATEGY_DEFEND_MY_LANDS_BASE_UNITS@CvGlobals@@QAEHXZ ; CvGlobals::getAI_STRATEGY_DEFEND_MY_LANDS_BASE_UNITS
; Function compile flags: /Ogtpy
;	COMDAT ?getAI_STRATEGY_DEFEND_MY_LANDS_BASE_UNITS@CvGlobals@@QAEHXZ
_TEXT	SEGMENT
?getAI_STRATEGY_DEFEND_MY_LANDS_BASE_UNITS@CvGlobals@@QAEHXZ PROC ; CvGlobals::getAI_STRATEGY_DEFEND_MY_LANDS_BASE_UNITS, COMDAT
; _this$ = ecx

; 1245 : 		return m_iAI_STRATEGY_DEFEND_MY_LANDS_BASE_UNITS;

	mov	eax, DWORD PTR [ecx+2180]

; 1246 : 	}

	ret	0
?getAI_STRATEGY_DEFEND_MY_LANDS_BASE_UNITS@CvGlobals@@QAEHXZ ENDP ; CvGlobals::getAI_STRATEGY_DEFEND_MY_LANDS_BASE_UNITS
_TEXT	ENDS
PUBLIC	?getAI_MILITARY_CITY_THREAT_WEIGHT_CAPITAL@CvGlobals@@QAEHXZ ; CvGlobals::getAI_MILITARY_CITY_THREAT_WEIGHT_CAPITAL
; Function compile flags: /Ogtpy
;	COMDAT ?getAI_MILITARY_CITY_THREAT_WEIGHT_CAPITAL@CvGlobals@@QAEHXZ
_TEXT	SEGMENT
?getAI_MILITARY_CITY_THREAT_WEIGHT_CAPITAL@CvGlobals@@QAEHXZ PROC ; CvGlobals::getAI_MILITARY_CITY_THREAT_WEIGHT_CAPITAL, COMDAT
; _this$ = ecx

; 1253 : 		return m_iAI_MILITARY_CITY_THREAT_WEIGHT_CAPITAL;

	mov	eax, DWORD PTR [ecx+2188]

; 1254 : 	}

	ret	0
?getAI_MILITARY_CITY_THREAT_WEIGHT_CAPITAL@CvGlobals@@QAEHXZ ENDP ; CvGlobals::getAI_MILITARY_CITY_THREAT_WEIGHT_CAPITAL
_TEXT	ENDS
PUBLIC	?getAI_MILITARY_BARBARIANS_FOR_MINOR_THREAT@CvGlobals@@QAEHXZ ; CvGlobals::getAI_MILITARY_BARBARIANS_FOR_MINOR_THREAT
; Function compile flags: /Ogtpy
;	COMDAT ?getAI_MILITARY_BARBARIANS_FOR_MINOR_THREAT@CvGlobals@@QAEHXZ
_TEXT	SEGMENT
?getAI_MILITARY_BARBARIANS_FOR_MINOR_THREAT@CvGlobals@@QAEHXZ PROC ; CvGlobals::getAI_MILITARY_BARBARIANS_FOR_MINOR_THREAT, COMDAT
; _this$ = ecx

; 1257 : 		return m_iAI_MILITARY_BARBARIANS_FOR_MINOR_THREAT;

	mov	eax, DWORD PTR [ecx+2192]

; 1258 : 	}

	ret	0
?getAI_MILITARY_BARBARIANS_FOR_MINOR_THREAT@CvGlobals@@QAEHXZ ENDP ; CvGlobals::getAI_MILITARY_BARBARIANS_FOR_MINOR_THREAT
_TEXT	ENDS
PUBLIC	?getAI_MILITARY_IGNORE_BAD_ODDS@CvGlobals@@QAEHXZ ; CvGlobals::getAI_MILITARY_IGNORE_BAD_ODDS
; Function compile flags: /Ogtpy
;	COMDAT ?getAI_MILITARY_IGNORE_BAD_ODDS@CvGlobals@@QAEHXZ
_TEXT	SEGMENT
?getAI_MILITARY_IGNORE_BAD_ODDS@CvGlobals@@QAEHXZ PROC	; CvGlobals::getAI_MILITARY_IGNORE_BAD_ODDS, COMDAT
; _this$ = ecx

; 1261 : 		return m_iAI_MILITARY_IGNORE_BAD_ODDS;

	mov	eax, DWORD PTR [ecx+2196]

; 1262 : 	}

	ret	0
?getAI_MILITARY_IGNORE_BAD_ODDS@CvGlobals@@QAEHXZ ENDP	; CvGlobals::getAI_MILITARY_IGNORE_BAD_ODDS
_TEXT	ENDS
PUBLIC	?getAI_MILITARY_RECAPTURING_OWN_CITY@CvGlobals@@QAEHXZ ; CvGlobals::getAI_MILITARY_RECAPTURING_OWN_CITY
; Function compile flags: /Ogtpy
;	COMDAT ?getAI_MILITARY_RECAPTURING_OWN_CITY@CvGlobals@@QAEHXZ
_TEXT	SEGMENT
?getAI_MILITARY_RECAPTURING_OWN_CITY@CvGlobals@@QAEHXZ PROC ; CvGlobals::getAI_MILITARY_RECAPTURING_OWN_CITY, COMDAT
; _this$ = ecx

; 1265 : 		return m_iAI_MILITARY_RECAPTURING_OWN_CITY;

	mov	eax, DWORD PTR [ecx+2200]

; 1266 : 	}

	ret	0
?getAI_MILITARY_RECAPTURING_OWN_CITY@CvGlobals@@QAEHXZ ENDP ; CvGlobals::getAI_MILITARY_RECAPTURING_OWN_CITY
_TEXT	ENDS
PUBLIC	?getAI_MILITARY_CAPTURING_ORIGINAL_CAPITAL@CvGlobals@@QAEHXZ ; CvGlobals::getAI_MILITARY_CAPTURING_ORIGINAL_CAPITAL
; Function compile flags: /Ogtpy
;	COMDAT ?getAI_MILITARY_CAPTURING_ORIGINAL_CAPITAL@CvGlobals@@QAEHXZ
_TEXT	SEGMENT
?getAI_MILITARY_CAPTURING_ORIGINAL_CAPITAL@CvGlobals@@QAEHXZ PROC ; CvGlobals::getAI_MILITARY_CAPTURING_ORIGINAL_CAPITAL, COMDAT
; _this$ = ecx

; 1269 : 		return m_iAI_MILITARY_CAPTURING_ORIGINAL_CAPITAL;

	mov	eax, DWORD PTR [ecx+2204]

; 1270 : 	}

	ret	0
?getAI_MILITARY_CAPTURING_ORIGINAL_CAPITAL@CvGlobals@@QAEHXZ ENDP ; CvGlobals::getAI_MILITARY_CAPTURING_ORIGINAL_CAPITAL
_TEXT	ENDS
PUBLIC	?getAI_OPERATIONAL_PERCENT_HEALTH_FOR_OPERATION@CvGlobals@@QAEHXZ ; CvGlobals::getAI_OPERATIONAL_PERCENT_HEALTH_FOR_OPERATION
; Function compile flags: /Ogtpy
;	COMDAT ?getAI_OPERATIONAL_PERCENT_HEALTH_FOR_OPERATION@CvGlobals@@QAEHXZ
_TEXT	SEGMENT
?getAI_OPERATIONAL_PERCENT_HEALTH_FOR_OPERATION@CvGlobals@@QAEHXZ PROC ; CvGlobals::getAI_OPERATIONAL_PERCENT_HEALTH_FOR_OPERATION, COMDAT
; _this$ = ecx

; 1501 : 		return m_iAI_OPERATIONAL_PERCENT_HEALTH_FOR_OPERATION;

	mov	eax, DWORD PTR [ecx+2436]

; 1502 : 	}

	ret	0
?getAI_OPERATIONAL_PERCENT_HEALTH_FOR_OPERATION@CvGlobals@@QAEHXZ ENDP ; CvGlobals::getAI_OPERATIONAL_PERCENT_HEALTH_FOR_OPERATION
_TEXT	ENDS
PUBLIC	?getAI_TACTICAL_MAP_TEMP_ZONE_TURNS@CvGlobals@@QAEHXZ ; CvGlobals::getAI_TACTICAL_MAP_TEMP_ZONE_TURNS
; Function compile flags: /Ogtpy
;	COMDAT ?getAI_TACTICAL_MAP_TEMP_ZONE_TURNS@CvGlobals@@QAEHXZ
_TEXT	SEGMENT
?getAI_TACTICAL_MAP_TEMP_ZONE_TURNS@CvGlobals@@QAEHXZ PROC ; CvGlobals::getAI_TACTICAL_MAP_TEMP_ZONE_TURNS, COMDAT
; _this$ = ecx

; 1517 : 		return m_iAI_TACTICAL_MAP_TEMP_ZONE_TURNS;

	mov	eax, DWORD PTR [ecx+2452]

; 1518 : 	}

	ret	0
?getAI_TACTICAL_MAP_TEMP_ZONE_TURNS@CvGlobals@@QAEHXZ ENDP ; CvGlobals::getAI_TACTICAL_MAP_TEMP_ZONE_TURNS
_TEXT	ENDS
PUBLIC	?getMIN_WATER_SIZE_FOR_OCEAN@CvGlobals@@QAEHXZ	; CvGlobals::getMIN_WATER_SIZE_FOR_OCEAN
; Function compile flags: /Ogtpy
;	COMDAT ?getMIN_WATER_SIZE_FOR_OCEAN@CvGlobals@@QAEHXZ
_TEXT	SEGMENT
?getMIN_WATER_SIZE_FOR_OCEAN@CvGlobals@@QAEHXZ PROC	; CvGlobals::getMIN_WATER_SIZE_FOR_OCEAN, COMDAT
; _this$ = ecx

; 5952 : 		return m_iMIN_WATER_SIZE_FOR_OCEAN;

	mov	eax, DWORD PTR [ecx+6876]

; 5953 : 	}

	ret	0
?getMIN_WATER_SIZE_FOR_OCEAN@CvGlobals@@QAEHXZ ENDP	; CvGlobals::getMIN_WATER_SIZE_FOR_OCEAN
_TEXT	ENDS
PUBLIC	?getMAX_HIT_POINTS@CvGlobals@@QAEHXZ		; CvGlobals::getMAX_HIT_POINTS
; Function compile flags: /Ogtpy
;	COMDAT ?getMAX_HIT_POINTS@CvGlobals@@QAEHXZ
_TEXT	SEGMENT
?getMAX_HIT_POINTS@CvGlobals@@QAEHXZ PROC		; CvGlobals::getMAX_HIT_POINTS, COMDAT
; _this$ = ecx

; 6497 : 		return m_iMAX_HIT_POINTS;

	mov	eax, DWORD PTR [ecx+7368]

; 6498 : 	}

	ret	0
?getMAX_HIT_POINTS@CvGlobals@@QAEHXZ ENDP		; CvGlobals::getMAX_HIT_POINTS
_TEXT	ENDS
PUBLIC	?getAI_STRATEGY_DEFEND_MY_LANDS_UNITS_PER_CITY@CvGlobals@@QAEMXZ ; CvGlobals::getAI_STRATEGY_DEFEND_MY_LANDS_UNITS_PER_CITY
EXTRN	__fltused:DWORD
; Function compile flags: /Ogtpy
;	COMDAT ?getAI_STRATEGY_DEFEND_MY_LANDS_UNITS_PER_CITY@CvGlobals@@QAEMXZ
_TEXT	SEGMENT
?getAI_STRATEGY_DEFEND_MY_LANDS_UNITS_PER_CITY@CvGlobals@@QAEMXZ PROC ; CvGlobals::getAI_STRATEGY_DEFEND_MY_LANDS_UNITS_PER_CITY, COMDAT
; _this$ = ecx

; 7116 : 		return m_fAI_STRATEGY_DEFEND_MY_LANDS_UNITS_PER_CITY;

	fld	DWORD PTR [ecx+8104]

; 7117 : 	}

	ret	0
?getAI_STRATEGY_DEFEND_MY_LANDS_UNITS_PER_CITY@CvGlobals@@QAEMXZ ENDP ; CvGlobals::getAI_STRATEGY_DEFEND_MY_LANDS_UNITS_PER_CITY
_TEXT	ENDS
PUBLIC	?getAI_STRATEGY_NAVAL_UNITS_PER_CITY@CvGlobals@@QAEMXZ ; CvGlobals::getAI_STRATEGY_NAVAL_UNITS_PER_CITY
; Function compile flags: /Ogtpy
;	COMDAT ?getAI_STRATEGY_NAVAL_UNITS_PER_CITY@CvGlobals@@QAEMXZ
_TEXT	SEGMENT
?getAI_STRATEGY_NAVAL_UNITS_PER_CITY@CvGlobals@@QAEMXZ PROC ; CvGlobals::getAI_STRATEGY_NAVAL_UNITS_PER_CITY, COMDAT
; _this$ = ecx

; 7120 : 		return m_fAI_STRATEGY_NAVAL_UNITS_PER_CITY;

	fld	DWORD PTR [ecx+8108]

; 7121 : 	}

	ret	0
?getAI_STRATEGY_NAVAL_UNITS_PER_CITY@CvGlobals@@QAEMXZ ENDP ; CvGlobals::getAI_STRATEGY_NAVAL_UNITS_PER_CITY
_TEXT	ENDS
PUBLIC	?getBARBARIAN_CAMP_IMPROVEMENT@CvGlobals@@QAEHXZ ; CvGlobals::getBARBARIAN_CAMP_IMPROVEMENT
; Function compile flags: /Ogtpy
;	COMDAT ?getBARBARIAN_CAMP_IMPROVEMENT@CvGlobals@@QAEHXZ
_TEXT	SEGMENT
?getBARBARIAN_CAMP_IMPROVEMENT@CvGlobals@@QAEHXZ PROC	; CvGlobals::getBARBARIAN_CAMP_IMPROVEMENT, COMDAT
; _this$ = ecx

; 7355 : 		return m_iBARBARIAN_CAMP_IMPROVEMENT;

	mov	eax, DWORD PTR [ecx+8548]

; 7356 : 	}

	ret	0
?getBARBARIAN_CAMP_IMPROVEMENT@CvGlobals@@QAEHXZ ENDP	; CvGlobals::getBARBARIAN_CAMP_IMPROVEMENT
_TEXT	ENDS
PUBLIC	?getDLLIFace@CvGlobals@@QAEPAVICvEngineUtility4@@XZ ; CvGlobals::getDLLIFace
; Function compile flags: /Ogtpy
;	COMDAT ?getDLLIFace@CvGlobals@@QAEPAVICvEngineUtility4@@XZ
_TEXT	SEGMENT
?getDLLIFace@CvGlobals@@QAEPAVICvEngineUtility4@@XZ PROC ; CvGlobals::getDLLIFace, COMDAT
; _this$ = ecx

; 7738 : 		return m_pDLL;

	mov	eax, DWORD PTR [ecx+8596]

; 7739 : 	}

	ret	0
?getDLLIFace@CvGlobals@@QAEPAVICvEngineUtility4@@XZ ENDP ; CvGlobals::getDLLIFace
_TEXT	ENDS
PUBLIC	?GetOperationState@CvAIOperation@@QAE?AW4AIOperationState@@XZ ; CvAIOperation::GetOperationState
; Function compile flags: /Ogtpy
; File c:\users\enormousapplepie\documents\github\lekmod\lekmod_dll\cvgamecoredll_expansion2\cvaioperation.h
;	COMDAT ?GetOperationState@CvAIOperation@@QAE?AW4AIOperationState@@XZ
_TEXT	SEGMENT
?GetOperationState@CvAIOperation@@QAE?AW4AIOperationState@@XZ PROC ; CvAIOperation::GetOperationState, COMDAT
; _this$ = ecx

; 148  : 	AIOperationState GetOperationState() {return m_eCurrentState;};

	mov	eax, DWORD PTR [ecx+56]
	ret	0
?GetOperationState@CvAIOperation@@QAE?AW4AIOperationState@@XZ ENDP ; CvAIOperation::GetOperationState
_TEXT	ENDS
PUBLIC	??4CvString@@QAEAAV0@ABV0@@Z			; CvString::operator=
EXTRN	__imp_??4?$basic_string@DU?$char_traits@D@std@@V?$allocator@D@2@@std@@QAEAAV01@ABV01@@Z:PROC
; Function compile flags: /Ogtpy
;	COMDAT ??4CvString@@QAEAAV0@ABV0@@Z
_TEXT	SEGMENT
___that$ = 8						; size = 4
??4CvString@@QAEAAV0@ABV0@@Z PROC			; CvString::operator=, COMDAT
; _this$ = ecx
	mov	eax, DWORD PTR ___that$[esp-4]
	push	esi
	push	eax
	mov	esi, ecx
	call	DWORD PTR __imp_??4?$basic_string@DU?$char_traits@D@std@@V?$allocator@D@2@@std@@QAEAAV01@ABV01@@Z
	mov	eax, esi
	pop	esi
	ret	4
??4CvString@@QAEAAV0@ABV0@@Z ENDP			; CvString::operator=
_TEXT	ENDS
PUBLIC	?getPlayer@CvPlayerAI@@SAAAV1@W4PlayerTypes@@@Z	; CvPlayerAI::getPlayer
EXTRN	?m_aPlayers@CvPlayerAI@@1PAV1@A:DWORD		; CvPlayerAI::m_aPlayers
; Function compile flags: /Ogtpy
; File c:\users\enormousapplepie\documents\github\lekmod\lekmod_dll\cvgamecoredll_expansion2\cvplayerai.h
;	COMDAT ?getPlayer@CvPlayerAI@@SAAAV1@W4PlayerTypes@@@Z
_TEXT	SEGMENT
_ePlayer$ = 8						; size = 4
?getPlayer@CvPlayerAI@@SAAAV1@W4PlayerTypes@@@Z PROC	; CvPlayerAI::getPlayer, COMDAT

; 28   : 		CvAssertMsg(ePlayer != NO_PLAYER, "Player is not assigned a valid value");
; 29   : 		CvAssertMsg(ePlayer < MAX_PLAYERS, "Player is not assigned a valid value");
; 30   : 		return m_aPlayers[ePlayer];

	mov	eax, DWORD PTR _ePlayer$[esp-4]
	imul	eax, 63236				; 0000f704H
	add	eax, DWORD PTR ?m_aPlayers@CvPlayerAI@@1PAV1@A ; CvPlayerAI::m_aPlayers

; 31   : 	}

	ret	0
?getPlayer@CvPlayerAI@@SAAAV1@W4PlayerTypes@@@Z ENDP	; CvPlayerAI::getPlayer
_TEXT	ENDS
PUBLIC	?GetExpensePerTurnUnitMaintenance@CvTreasury@@QAEHXZ ; CvTreasury::GetExpensePerTurnUnitMaintenance
; Function compile flags: /Ogtpy
; File c:\users\enormousapplepie\documents\github\lekmod\lekmod_dll\cvgamecoredll_expansion2\cvtreasury.h
;	COMDAT ?GetExpensePerTurnUnitMaintenance@CvTreasury@@QAEHXZ
_TEXT	SEGMENT
?GetExpensePerTurnUnitMaintenance@CvTreasury@@QAEHXZ PROC ; CvTreasury::GetExpensePerTurnUnitMaintenance, COMDAT
; _this$ = ecx

; 91   : 		return m_iExpensePerTurnUnitMaintenance;

	mov	eax, DWORD PTR [ecx+16]

; 92   : 	}

	ret	0
?GetExpensePerTurnUnitMaintenance@CvTreasury@@QAEHXZ ENDP ; CvTreasury::GetExpensePerTurnUnitMaintenance
_TEXT	ENDS
PUBLIC	?isCity@CvPlot@@QBE_NXZ				; CvPlot::isCity
EXTRN	?getCity@CvPlayer@@QAEPAVCvCity@@H@Z:PROC	; CvPlayer::getCity
; Function compile flags: /Ogtpy
; File c:\users\enormousapplepie\documents\github\lekmod\lekmod_dll\cvgamecoredll_expansion2\cvplot.h
;	COMDAT ?isCity@CvPlot@@QBE_NXZ
_TEXT	SEGMENT
?isCity@CvPlot@@QBE_NXZ PROC				; CvPlot::isCity, COMDAT
; _this$ = ecx

; 245  : 		if((m_plotCity.eOwner >= 0) && m_plotCity.eOwner < MAX_PLAYERS)

	mov	eax, DWORD PTR [ecx+104]
	test	eax, eax
	jl	SHORT $LN1@isCity
	cmp	eax, 64					; 00000040H
	jge	SHORT $LN1@isCity

; 246  : 			return (GET_PLAYER((PlayerTypes)m_plotCity.eOwner).getCity(m_plotCity.iID)) != NULL;

	mov	ecx, DWORD PTR [ecx+108]
	imul	eax, 63236				; 0000f704H
	add	eax, DWORD PTR ?m_aPlayers@CvPlayerAI@@1PAV1@A ; CvPlayerAI::m_aPlayers
	push	ecx
	mov	ecx, eax
	call	?getCity@CvPlayer@@QAEPAVCvCity@@H@Z	; CvPlayer::getCity
	neg	eax
	sbb	eax, eax
	neg	eax

; 249  : 	}

	ret	0
$LN1@isCity:

; 247  : 
; 248  : 		return false;

	xor	al, al

; 249  : 	}

	ret	0
?isCity@CvPlot@@QBE_NXZ ENDP				; CvPlot::isCity
_TEXT	ENDS
PUBLIC	?getX@CvPlot@@QBEHXZ				; CvPlot::getX
; Function compile flags: /Ogtpy
;	COMDAT ?getX@CvPlot@@QBEHXZ
_TEXT	SEGMENT
?getX@CvPlot@@QBEHXZ PROC				; CvPlot::getX, COMDAT
; _this$ = ecx

; 307  : 		return m_iX;

	movsx	eax, WORD PTR [ecx]

; 308  : 	}

	ret	0
?getX@CvPlot@@QBEHXZ ENDP				; CvPlot::getX
_TEXT	ENDS
PUBLIC	?getY@CvPlot@@QBEHXZ				; CvPlot::getY
; Function compile flags: /Ogtpy
;	COMDAT ?getY@CvPlot@@QBEHXZ
_TEXT	SEGMENT
?getY@CvPlot@@QBEHXZ PROC				; CvPlot::getY, COMDAT
; _this$ = ecx

; 312  : 		return m_iY;

	movsx	eax, WORD PTR [ecx+2]

; 313  : 	}

	ret	0
?getY@CvPlot@@QBEHXZ ENDP				; CvPlot::getY
_TEXT	ENDS
PUBLIC	?getOwner@CvPlot@@QBE?AW4PlayerTypes@@XZ	; CvPlot::getOwner
; Function compile flags: /Ogtpy
;	COMDAT ?getOwner@CvPlot@@QBE?AW4PlayerTypes@@XZ
_TEXT	SEGMENT
?getOwner@CvPlot@@QBE?AW4PlayerTypes@@XZ PROC		; CvPlot::getOwner, COMDAT
; _this$ = ecx

; 387  : 		return (PlayerTypes)m_eOwner;

	movsx	eax, BYTE PTR [ecx+4]

; 388  : 	}

	ret	0
?getOwner@CvPlot@@QBE?AW4PlayerTypes@@XZ ENDP		; CvPlot::getOwner
_TEXT	ENDS
PUBLIC	?isWater@CvPlot@@QBE_NXZ			; CvPlot::isWater
; Function compile flags: /Ogtpy
;	COMDAT ?isWater@CvPlot@@QBE_NXZ
_TEXT	SEGMENT
?isWater@CvPlot@@QBE_NXZ PROC				; CvPlot::isWater, COMDAT
; _this$ = ecx

; 409  : 		return (PlotTypes)m_ePlotType == PLOT_OCEAN;

	xor	eax, eax
	cmp	BYTE PTR [ecx+5], 3
	sete	al

; 410  : 	};

	ret	0
?isWater@CvPlot@@QBE_NXZ ENDP				; CvPlot::isWater
_TEXT	ENDS
PUBLIC	?isMountain@CvPlot@@QBE_NXZ			; CvPlot::isMountain
; Function compile flags: /Ogtpy
;	COMDAT ?isMountain@CvPlot@@QBE_NXZ
_TEXT	SEGMENT
?isMountain@CvPlot@@QBE_NXZ PROC			; CvPlot::isMountain, COMDAT
; _this$ = ecx

; 422  : 		return (PlotTypes)m_ePlotType == PLOT_MOUNTAIN;

	xor	eax, eax
	cmp	BYTE PTR [ecx+5], al
	sete	al

; 423  : 	};

	ret	0
?isMountain@CvPlot@@QBE_NXZ ENDP			; CvPlot::isMountain
_TEXT	ENDS
PUBLIC	?isImpassable@CvPlot@@QBE_NXZ			; CvPlot::isImpassable
; Function compile flags: /Ogtpy
;	COMDAT ?isImpassable@CvPlot@@QBE_NXZ
_TEXT	SEGMENT
?isImpassable@CvPlot@@QBE_NXZ PROC			; CvPlot::isImpassable, COMDAT
; _this$ = ecx

; 444  : 		return m_bIsImpassable;

	mov	al, BYTE PTR [ecx+462]
	shr	al, 7

; 445  : 	}

	ret	0
?isImpassable@CvPlot@@QBE_NXZ ENDP			; CvPlot::isImpassable
_TEXT	ENDS
PUBLIC	?getPlotCity@CvPlot@@QBEPAVCvCity@@XZ		; CvPlot::getPlotCity
; Function compile flags: /Ogtpy
;	COMDAT ?getPlotCity@CvPlot@@QBEPAVCvCity@@XZ
_TEXT	SEGMENT
?getPlotCity@CvPlot@@QBEPAVCvCity@@XZ PROC		; CvPlot::getPlotCity, COMDAT
; _this$ = ecx

; 533  : 		if((m_plotCity.eOwner >= 0) && m_plotCity.eOwner < MAX_PLAYERS)

	mov	eax, DWORD PTR [ecx+104]
	test	eax, eax
	jl	SHORT $LN1@getPlotCit
	cmp	eax, 64					; 00000040H
	jge	SHORT $LN1@getPlotCit

; 534  : 			return (GET_PLAYER((PlayerTypes)m_plotCity.eOwner).getCity(m_plotCity.iID));

	mov	ecx, DWORD PTR [ecx+108]
	imul	eax, 63236				; 0000f704H
	add	eax, DWORD PTR ?m_aPlayers@CvPlayerAI@@1PAV1@A ; CvPlayerAI::m_aPlayers
	push	ecx
	mov	ecx, eax
	call	?getCity@CvPlayer@@QAEPAVCvCity@@H@Z	; CvPlayer::getCity

; 537  : 	}

	ret	0
$LN1@getPlotCit:

; 535  : 
; 536  : 		return NULL;

	xor	eax, eax

; 537  : 	}

	ret	0
?getPlotCity@CvPlot@@QBEPAVCvCity@@XZ ENDP		; CvPlot::getPlotCity
_TEXT	ENDS
PUBLIC	?getVisibilityCount@CvPlot@@QBEHW4TeamTypes@@@Z	; CvPlot::getVisibilityCount
; Function compile flags: /Ogtpy
;	COMDAT ?getVisibilityCount@CvPlot@@QBEHW4TeamTypes@@@Z
_TEXT	SEGMENT
_eTeam$ = 8						; size = 4
?getVisibilityCount@CvPlot@@QBEHW4TeamTypes@@@Z PROC	; CvPlot::getVisibilityCount, COMDAT
; _this$ = ecx

; 588  : 		CvAssertMsg(eTeam >= 0, "eTeam is expected to be non-negative (invalid Index)");
; 589  : 		CvAssertMsg(eTeam < MAX_TEAMS, "eTeam is expected to be within maximum bounds (invalid Index)");
; 590  : 
; 591  : 		return m_aiVisibilityCount[eTeam];

	mov	eax, DWORD PTR [ecx+156]
	mov	ecx, DWORD PTR _eTeam$[esp-4]
	movsx	eax, WORD PTR [eax+ecx*2]

; 592  : 	}

	ret	4
?getVisibilityCount@CvPlot@@QBEHW4TeamTypes@@@Z ENDP	; CvPlot::getVisibilityCount
_TEXT	ENDS
PUBLIC	?GetBit@PlotBoolField@CvPlot@@QBE_NI@Z		; CvPlot::PlotBoolField::GetBit
; Function compile flags: /Ogtpy
;	COMDAT ?GetBit@PlotBoolField@CvPlot@@QBE_NI@Z
_TEXT	SEGMENT
_uiEntry$ = 8						; size = 4
?GetBit@PlotBoolField@CvPlot@@QBE_NI@Z PROC		; CvPlot::PlotBoolField::GetBit, COMDAT
; _this$ = ecx

; 767  : 		{

	mov	edx, ecx

; 768  : 			const uint uiOffset = uiEntry/eSize;

	mov	ecx, DWORD PTR _uiEntry$[esp-4]
	push	esi
	mov	eax, ecx
	shr	eax, 5

; 769  : 			return m_dwBits[uiOffset] & 1<<(uiEntry-(eSize*uiOffset));

	mov	esi, eax
	shl	esi, 5
	sub	ecx, esi
	mov	esi, 1
	shl	esi, cl
	test	esi, DWORD PTR [edx+eax*4]
	pop	esi
	setne	al

; 770  : 		}

	ret	4
?GetBit@PlotBoolField@CvPlot@@QBE_NI@Z ENDP		; CvPlot::PlotBoolField::GetBit
_TEXT	ENDS
PUBLIC	?coordRange@@YAHHH_N@Z				; coordRange
; Function compile flags: /Ogtpy
; File c:\users\enormousapplepie\documents\github\lekmod\lekmod_dll\cvgamecoredll_expansion2\cvmap.h
;	COMDAT ?coordRange@@YAHHH_N@Z
_TEXT	SEGMENT
_iCoord$ = 8						; size = 4
_iRange$ = 12						; size = 4
_bWrap$ = 16						; size = 1
?coordRange@@YAHHH_N@Z PROC				; coordRange, COMDAT

; 88   : 	if(bWrap)

	cmp	BYTE PTR _bWrap$[esp-4], 0
	mov	eax, DWORD PTR _iCoord$[esp-4]
	je	SHORT $LN5@coordRange

; 89   : 	{
; 90   : 		if(iCoord < 0)
; 91   : 		{
; 92   : 			return (iRange + (iCoord % iRange));

	mov	ecx, DWORD PTR _iRange$[esp-4]
	test	eax, eax
	jge	SHORT $LN3@coordRange
	cdq
	idiv	ecx
	mov	eax, edx
	add	eax, ecx

; 97   : 		}
; 98   : 	}
; 99   : 
; 100  : 	return iCoord;
; 101  : }

	ret	0
$LN3@coordRange:

; 93   : 		}
; 94   : 		else if(iCoord >= iRange)

	cmp	eax, ecx
	jl	SHORT $LN5@coordRange

; 95   : 		{
; 96   : 			return (iCoord % iRange);

	cdq
	idiv	ecx
	mov	eax, edx
$LN5@coordRange:

; 97   : 		}
; 98   : 	}
; 99   : 
; 100  : 	return iCoord;
; 101  : }

	ret	0
?coordRange@@YAHHH_N@Z ENDP				; coordRange
_TEXT	ENDS
PUBLIC	?numPlots@CvMap@@QBEHXZ				; CvMap::numPlots
; Function compile flags: /Ogtpy
;	COMDAT ?numPlots@CvMap@@QBEHXZ
_TEXT	SEGMENT
?numPlots@CvMap@@QBEHXZ PROC				; CvMap::numPlots, COMDAT
; _this$ = ecx

; 170  : 		return m_iGridSize;

	mov	eax, DWORD PTR [ecx+4028]

; 171  : 	}

	ret	0
?numPlots@CvMap@@QBEHXZ ENDP				; CvMap::numPlots
_TEXT	ENDS
PUBLIC	?getGridWidth@CvMap@@QBEHXZ			; CvMap::getGridWidth
; Function compile flags: /Ogtpy
;	COMDAT ?getGridWidth@CvMap@@QBEHXZ
_TEXT	SEGMENT
?getGridWidth@CvMap@@QBEHXZ PROC			; CvMap::getGridWidth, COMDAT
; _this$ = ecx

; 198  : 		return m_iGridWidth;

	mov	eax, DWORD PTR [ecx+4020]

; 199  : 	}

	ret	0
?getGridWidth@CvMap@@QBEHXZ ENDP			; CvMap::getGridWidth
_TEXT	ENDS
PUBLIC	?getGridHeight@CvMap@@QBEHXZ			; CvMap::getGridHeight
; Function compile flags: /Ogtpy
;	COMDAT ?getGridHeight@CvMap@@QBEHXZ
_TEXT	SEGMENT
?getGridHeight@CvMap@@QBEHXZ PROC			; CvMap::getGridHeight, COMDAT
; _this$ = ecx

; 206  : 		return m_iGridHeight;

	mov	eax, DWORD PTR [ecx+4024]

; 207  : 	}

	ret	0
?getGridHeight@CvMap@@QBEHXZ ENDP			; CvMap::getGridHeight
_TEXT	ENDS
PUBLIC	?isWrapX@CvMap@@QBE_NXZ				; CvMap::isWrapX
; Function compile flags: /Ogtpy
;	COMDAT ?isWrapX@CvMap@@QBE_NXZ
_TEXT	SEGMENT
?isWrapX@CvMap@@QBE_NXZ PROC				; CvMap::isWrapX, COMDAT
; _this$ = ecx

; 228  : 		return m_bWrapX;

	mov	al, BYTE PTR [ecx+4056]

; 229  : 	}

	ret	0
?isWrapX@CvMap@@QBE_NXZ ENDP				; CvMap::isWrapX
_TEXT	ENDS
PUBLIC	?isWrapY@CvMap@@QBE_NXZ				; CvMap::isWrapY
; Function compile flags: /Ogtpy
;	COMDAT ?isWrapY@CvMap@@QBE_NXZ
_TEXT	SEGMENT
?isWrapY@CvMap@@QBE_NXZ PROC				; CvMap::isWrapY, COMDAT
; _this$ = ecx

; 233  : 		return m_bWrapY;

	mov	al, BYTE PTR [ecx+4057]

; 234  : 	}

	ret	0
?isWrapY@CvMap@@QBE_NXZ ENDP				; CvMap::isWrapY
_TEXT	ENDS
PUBLIC	?plotByIndexUnchecked@CvMap@@QBEPAVCvPlot@@H@Z	; CvMap::plotByIndexUnchecked
; Function compile flags: /Ogtpy
;	COMDAT ?plotByIndexUnchecked@CvMap@@QBEPAVCvPlot@@H@Z
_TEXT	SEGMENT
_iIndex$ = 8						; size = 4
?plotByIndexUnchecked@CvMap@@QBEPAVCvPlot@@H@Z PROC	; CvMap::plotByIndexUnchecked, COMDAT
; _this$ = ecx

; 268  : 		return &m_pMapPlots[iIndex];

	mov	eax, DWORD PTR _iIndex$[esp-4]
	imul	eax, 484				; 000001e4H
	add	eax, DWORD PTR [ecx+4068]

; 269  : 	}

	ret	4
?plotByIndexUnchecked@CvMap@@QBEPAVCvPlot@@H@Z ENDP	; CvMap::plotByIndexUnchecked
_TEXT	ENDS
PUBLIC	?getTeam@CvTeam@@SAAAV1@W4TeamTypes@@@Z		; CvTeam::getTeam
EXTRN	?m_aTeams@CvTeam@@1PAV1@A:DWORD			; CvTeam::m_aTeams
; Function compile flags: /Ogtpy
; File c:\users\enormousapplepie\documents\github\lekmod\lekmod_dll\cvgamecoredll_expansion2\cvteam.h
;	COMDAT ?getTeam@CvTeam@@SAAAV1@W4TeamTypes@@@Z
_TEXT	SEGMENT
_eTeam$ = 8						; size = 4
?getTeam@CvTeam@@SAAAV1@W4TeamTypes@@@Z PROC		; CvTeam::getTeam, COMDAT

; 29   : 		CvAssertMsg(eTeam != NO_TEAM, "eTeam is not assigned a valid value");
; 30   : 		CvAssertMsg(eTeam < MAX_TEAMS, "eTeam is not assigned a valid value");
; 31   : 		return m_aTeams[eTeam];

	mov	eax, DWORD PTR _eTeam$[esp-4]
	imul	eax, 2984				; 00000ba8H
	add	eax, DWORD PTR ?m_aTeams@CvTeam@@1PAV1@A ; CvTeam::m_aTeams

; 32   : 	}

	ret	0
?getTeam@CvTeam@@SAAAV1@W4TeamTypes@@@Z ENDP		; CvTeam::getTeam
_TEXT	ENDS
PUBLIC	??0CvString@@QAE@ABV0@@Z			; CvString::CvString
; Function compile flags: /Ogtpy
;	COMDAT ??0CvString@@QAE@ABV0@@Z
_TEXT	SEGMENT
___that$ = 8						; size = 4
??0CvString@@QAE@ABV0@@Z PROC				; CvString::CvString, COMDAT
; _this$ = ecx
	mov	eax, DWORD PTR ___that$[esp-4]
	push	esi
	push	eax
	mov	esi, ecx
	call	DWORD PTR __imp_??0?$basic_string@DU?$char_traits@D@std@@V?$allocator@D@2@@std@@QAE@ABV01@@Z
	mov	eax, esi
	pop	esi
	ret	4
??0CvString@@QAE@ABV0@@Z ENDP				; CvString::CvString
_TEXT	ENDS
PUBLIC	?GetLandBarbarianConversionPercent@CvPlayerTraits@@QBEHXZ ; CvPlayerTraits::GetLandBarbarianConversionPercent
; Function compile flags: /Ogtpy
; File c:\users\enormousapplepie\documents\github\lekmod\lekmod_dll\cvgamecoredll_expansion2\cvtraitclasses.h
;	COMDAT ?GetLandBarbarianConversionPercent@CvPlayerTraits@@QBEHXZ
_TEXT	SEGMENT
?GetLandBarbarianConversionPercent@CvPlayerTraits@@QBEHXZ PROC ; CvPlayerTraits::GetLandBarbarianConversionPercent, COMDAT
; _this$ = ecx

; 503  : 		return m_iLandBarbarianConversionPercent;

	mov	eax, DWORD PTR [ecx+100]

; 504  : 	};

	ret	0
?GetLandBarbarianConversionPercent@CvPlayerTraits@@QBEHXZ ENDP ; CvPlayerTraits::GetLandBarbarianConversionPercent
_TEXT	ENDS
PUBLIC	?IsNoAnnexing@CvPlayerTraits@@QBE_NXZ		; CvPlayerTraits::IsNoAnnexing
; Function compile flags: /Ogtpy
;	COMDAT ?IsNoAnnexing@CvPlayerTraits@@QBE_NXZ
_TEXT	SEGMENT
?IsNoAnnexing@CvPlayerTraits@@QBE_NXZ PROC		; CvPlayerTraits::IsNoAnnexing, COMDAT
; _this$ = ecx

; 841  : 		return m_bNoAnnexing;

	mov	al, BYTE PTR [ecx+351]

; 842  : 	};

	ret	0
?IsNoAnnexing@CvPlayerTraits@@QBE_NXZ ENDP		; CvPlayerTraits::IsNoAnnexing
_TEXT	ENDS
PUBLIC	??0DelegateMemento@fastdelegate@@QAE@XZ		; fastdelegate::DelegateMemento::DelegateMemento
; Function compile flags: /Ogtpy
; File c:\users\enormousapplepie\documents\github\lekmod\lekmod_dll\fireplace\include\fireworks\eventsystem\fastdelegate.h
;	COMDAT ??0DelegateMemento@fastdelegate@@QAE@XZ
_TEXT	SEGMENT
??0DelegateMemento@fastdelegate@@QAE@XZ PROC		; fastdelegate::DelegateMemento::DelegateMemento, COMDAT
; _this$ = ecx

; 579  : 	DelegateMemento() : m_pthis(0), m_pFunction(0) {};

	mov	eax, ecx
	mov	DWORD PTR [eax], 0
	mov	DWORD PTR [eax+4], 0
	ret	0
??0DelegateMemento@fastdelegate@@QAE@XZ ENDP		; fastdelegate::DelegateMemento::DelegateMemento
_TEXT	ENDS
PUBLIC	?clear@DelegateMemento@fastdelegate@@QAEXXZ	; fastdelegate::DelegateMemento::clear
; Function compile flags: /Ogtpy
;	COMDAT ?clear@DelegateMemento@fastdelegate@@QAEXXZ
_TEXT	SEGMENT
?clear@DelegateMemento@fastdelegate@@QAEXXZ PROC	; fastdelegate::DelegateMemento::clear, COMDAT
; _this$ = ecx

; 580  : 	void clear() {	m_pthis=0; m_pFunction=0;	}

	mov	DWORD PTR [ecx], 0
	mov	DWORD PTR [ecx+4], 0
	ret	0
?clear@DelegateMemento@fastdelegate@@QAEXXZ ENDP	; fastdelegate::DelegateMemento::clear
_TEXT	ENDS
PUBLIC	?SetMementoFrom@DelegateMemento@fastdelegate@@IAEXABV12@@Z ; fastdelegate::DelegateMemento::SetMementoFrom
; Function compile flags: /Ogtpy
;	COMDAT ?SetMementoFrom@DelegateMemento@fastdelegate@@IAEXABV12@@Z
_TEXT	SEGMENT
_right$ = 8						; size = 4
?SetMementoFrom@DelegateMemento@fastdelegate@@IAEXABV12@@Z PROC ; fastdelegate::DelegateMemento::SetMementoFrom, COMDAT
; _this$ = ecx

; 637  : 		m_pFunction = right.m_pFunction;

	mov	eax, DWORD PTR _right$[esp-4]
	mov	edx, DWORD PTR [eax+4]
	mov	DWORD PTR [ecx+4], edx

; 638  : 		m_pthis = right.m_pthis;

	mov	eax, DWORD PTR [eax]
	mov	DWORD PTR [ecx], eax

; 639  : #if !defined(FASTDELEGATE_USESTATICFUNCTIONHACK)
; 640  : 		m_pStaticFunction = right.m_pStaticFunction;
; 641  : #endif
; 642  : 	}

	ret	4
?SetMementoFrom@DelegateMemento@fastdelegate@@IAEXABV12@@Z ENDP ; fastdelegate::DelegateMemento::SetMementoFrom
_TEXT	ENDS
PUBLIC	?GetLastNode@CvAStar@@QAEPAVCvAStarNode@@XZ	; CvAStar::GetLastNode
; Function compile flags: /Ogtpy
; File c:\users\enormousapplepie\documents\github\lekmod\lekmod_dll\cvgamecoredll_expansion2\cvastar.h
;	COMDAT ?GetLastNode@CvAStar@@QAEPAVCvAStarNode@@XZ
_TEXT	SEGMENT
?GetLastNode@CvAStar@@QAEPAVCvAStarNode@@XZ PROC	; CvAStar::GetLastNode, COMDAT
; _this$ = ecx

; 98   : 		return m_pBest;

	mov	eax, DWORD PTR [ecx+96]

; 99   : 	}

	ret	0
?GetLastNode@CvAStar@@QAEPAVCvAStarNode@@XZ ENDP	; CvAStar::GetLastNode
_TEXT	ENDS
PUBLIC	??A?$vector@HV?$allocator@H@std@@@std@@QBEABHI@Z ; std::vector<int,std::allocator<int> >::operator[]
; Function compile flags: /Ogtpy
; File c:\program files (x86)\microsoft visual studio 9.0\vc\include\vector
;	COMDAT ??A?$vector@HV?$allocator@H@std@@@std@@QBEABHI@Z
_TEXT	SEGMENT
__Pos$ = 8						; size = 4
??A?$vector@HV?$allocator@H@std@@@std@@QBEABHI@Z PROC	; std::vector<int,std::allocator<int> >::operator[], COMDAT
; _this$ = ecx

; 760  : 
; 761  :  #if _HAS_ITERATOR_DEBUGGING
; 762  : 		if (size() <= _Pos)
; 763  : 			{
; 764  : 			_DEBUG_ERROR("vector subscript out of range");
; 765  : 			_SCL_SECURE_OUT_OF_RANGE;
; 766  : 			}
; 767  :  #endif /* _HAS_ITERATOR_DEBUGGING */
; 768  : 		_SCL_SECURE_VALIDATE_RANGE(_Pos < size());
; 769  : 
; 770  : 		return (*(_Myfirst + _Pos));

	mov	eax, DWORD PTR [ecx+4]
	mov	ecx, DWORD PTR __Pos$[esp-4]
	lea	eax, DWORD PTR [eax+ecx*4]

; 771  : 		}

	ret	4
??A?$vector@HV?$allocator@H@std@@@std@@QBEABHI@Z ENDP	; std::vector<int,std::allocator<int> >::operator[]
_TEXT	ENDS
PUBLIC	??A?$vector@W4TeamTypes@@V?$allocator@W4TeamTypes@@@std@@@std@@QBEABW4TeamTypes@@I@Z ; std::vector<enum TeamTypes,std::allocator<enum TeamTypes> >::operator[]
; Function compile flags: /Ogtpy
;	COMDAT ??A?$vector@W4TeamTypes@@V?$allocator@W4TeamTypes@@@std@@@std@@QBEABW4TeamTypes@@I@Z
_TEXT	SEGMENT
__Pos$ = 8						; size = 4
??A?$vector@W4TeamTypes@@V?$allocator@W4TeamTypes@@@std@@@std@@QBEABW4TeamTypes@@I@Z PROC ; std::vector<enum TeamTypes,std::allocator<enum TeamTypes> >::operator[], COMDAT
; _this$ = ecx

; 760  : 
; 761  :  #if _HAS_ITERATOR_DEBUGGING
; 762  : 		if (size() <= _Pos)
; 763  : 			{
; 764  : 			_DEBUG_ERROR("vector subscript out of range");
; 765  : 			_SCL_SECURE_OUT_OF_RANGE;
; 766  : 			}
; 767  :  #endif /* _HAS_ITERATOR_DEBUGGING */
; 768  : 		_SCL_SECURE_VALIDATE_RANGE(_Pos < size());
; 769  : 
; 770  : 		return (*(_Myfirst + _Pos));

	mov	eax, DWORD PTR [ecx+4]
	mov	ecx, DWORD PTR __Pos$[esp-4]
	lea	eax, DWORD PTR [eax+ecx*4]

; 771  : 		}

	ret	4
??A?$vector@W4TeamTypes@@V?$allocator@W4TeamTypes@@@std@@@std@@QBEABW4TeamTypes@@I@Z ENDP ; std::vector<enum TeamTypes,std::allocator<enum TeamTypes> >::operator[]
; Function compile flags: /Ogtpy
_TEXT	ENDS
;	COMDAT ??0length_error@std@@QAE@ABV01@@Z
_TEXT	SEGMENT
___that$ = 8						; size = 4
??0length_error@std@@QAE@ABV01@@Z PROC			; std::length_error::length_error, COMDAT
; _this$ = ecx
	mov	eax, DWORD PTR ___that$[esp-4]
	push	esi
	push	eax
	mov	esi, ecx
	call	??0logic_error@std@@QAE@ABV01@@Z
	mov	DWORD PTR [esi], OFFSET ??_7length_error@std@@6B@
	mov	eax, esi
	pop	esi
	ret	4
??0length_error@std@@QAE@ABV01@@Z ENDP			; std::length_error::length_error
_TEXT	ENDS
PUBLIC	?get@?$FAutoVariable@HVCvUnit@@@@QBEABHXZ	; FAutoVariable<int,CvUnit>::get
; Function compile flags: /Ogtpy
; File c:\users\enormousapplepie\documents\github\lekmod\lekmod_dll\fireplace\include\fireworks\fautovariable.h
;	COMDAT ?get@?$FAutoVariable@HVCvUnit@@@@QBEABHXZ
_TEXT	SEGMENT
?get@?$FAutoVariable@HVCvUnit@@@@QBEABHXZ PROC		; FAutoVariable<int,CvUnit>::get, COMDAT
; _this$ = ecx

; 177  : 	return m_value;

	lea	eax, DWORD PTR [ecx+4]

; 178  : }

	ret	0
?get@?$FAutoVariable@HVCvUnit@@@@QBEABHXZ ENDP		; FAutoVariable<int,CvUnit>::get
_TEXT	ENDS
PUBLIC	??B?$FAutoVariable@HVCvUnit@@@@QBEABHXZ		; FAutoVariable<int,CvUnit>::operator int const &
; Function compile flags: /Ogtpy
;	COMDAT ??B?$FAutoVariable@HVCvUnit@@@@QBEABHXZ
_TEXT	SEGMENT
??B?$FAutoVariable@HVCvUnit@@@@QBEABHXZ PROC		; FAutoVariable<int,CvUnit>::operator int const &, COMDAT
; _this$ = ecx

; 194  : 	return m_value;

	lea	eax, DWORD PTR [ecx+4]

; 195  : }

	ret	0
??B?$FAutoVariable@HVCvUnit@@@@QBEABHXZ ENDP		; FAutoVariable<int,CvUnit>::operator int const &
_TEXT	ENDS
PUBLIC	??A?$FAutoVariable@V?$vector@HV?$allocator@H@std@@@std@@VCvUnit@@@@QBEABHI@Z ; FAutoVariable<std::vector<int,std::allocator<int> >,CvUnit>::operator[]
; Function compile flags: /Ogtpy
; File c:\users\enormousapplepie\documents\github\lekmod\lekmod_dll\fireplace\include\fireworks\fautovector.h
;	COMDAT ??A?$FAutoVariable@V?$vector@HV?$allocator@H@std@@@std@@VCvUnit@@@@QBEABHI@Z
_TEXT	SEGMENT
_index$ = 8						; size = 4
??A?$FAutoVariable@V?$vector@HV?$allocator@H@std@@@std@@VCvUnit@@@@QBEABHI@Z PROC ; FAutoVariable<std::vector<int,std::allocator<int> >,CvUnit>::operator[], COMDAT
; _this$ = ecx

; 329  : 	return m_value[index];

	mov	eax, DWORD PTR [ecx+24]
	mov	ecx, DWORD PTR _index$[esp-4]
	lea	eax, DWORD PTR [eax+ecx*4]

; 330  : }

	ret	4
??A?$FAutoVariable@V?$vector@HV?$allocator@H@std@@@std@@VCvUnit@@@@QBEABHI@Z ENDP ; FAutoVariable<std::vector<int,std::allocator<int> >,CvUnit>::operator[]
_TEXT	ENDS
PUBLIC	??$?6H@FDataStream@@QAEAAV0@ABH@Z		; FDataStream::operator<<<int>
EXTRN	?Write@FDataStream@@IAEXABH@Z:PROC		; FDataStream::Write
; Function compile flags: /Ogtpy
; File c:\users\enormousapplepie\documents\github\lekmod\lekmod_dll\fireplace\include\fireworks\fdatastream.h
;	COMDAT ??$?6H@FDataStream@@QAEAAV0@ABH@Z
_TEXT	SEGMENT
_kData$ = 8						; size = 4
??$?6H@FDataStream@@QAEAAV0@ABH@Z PROC			; FDataStream::operator<<<int>, COMDAT
; _this$ = ecx

; 246  : 	// If the compiler produces an error here complaining about 
; 247  : 	// YouMustImplementASerializeOperatorForThisTypeError then
; 248  : 	// it could not find a specialization for the type supplied
; 249  : 	// in scope. If a specialization exists, be sure to include
; 250  : 	// the header (FStlContainerSerialization.h, for example), 
; 251  : 	// if not, implement :
; 252  : 	// FDataStream & operator<<(FDataStream &, YourCustomType &)
; 253  : 	Write( kData );

	mov	eax, DWORD PTR _kData$[esp-4]
	push	esi
	push	eax
	mov	esi, ecx
	call	?Write@FDataStream@@IAEXABH@Z		; FDataStream::Write

; 254  : 	return ( *this );

	mov	eax, esi
	pop	esi

; 255  : }

	ret	4
??$?6H@FDataStream@@QAEAAV0@ABH@Z ENDP			; FDataStream::operator<<<int>
_TEXT	ENDS
PUBLIC	??$?5H@FDataStream@@QAEAAV0@AAH@Z		; FDataStream::operator>><int>
EXTRN	?Read@FDataStream@@IAEXAAH@Z:PROC		; FDataStream::Read
; Function compile flags: /Ogtpy
;	COMDAT ??$?5H@FDataStream@@QAEAAV0@AAH@Z
_TEXT	SEGMENT
_kData$ = 8						; size = 4
??$?5H@FDataStream@@QAEAAV0@AAH@Z PROC			; FDataStream::operator>><int>, COMDAT
; _this$ = ecx

; 260  : 	// If the compiler produces an error here complaining about 
; 261  : 	// YouMustImplementASerializeOperatorForThisTypeError then
; 262  : 	// it could not find a specialization for the type supplied
; 263  : 	// in scope. If a specialization exists, be sure to include
; 264  : 	// the header (FStlContainerSerialization.h, for example), 
; 265  : 	// if not, implement :
; 266  : 	// FDataStream & operator>>(FDataStream &, YourCustomType &)
; 267  : 	Read( kData );

	mov	eax, DWORD PTR _kData$[esp-4]
	push	esi
	push	eax
	mov	esi, ecx
	call	?Read@FDataStream@@IAEXAAH@Z		; FDataStream::Read

; 268  : 	return ( *this );

	mov	eax, esi
	pop	esi

; 269  : }

	ret	4
??$?5H@FDataStream@@QAEAAV0@AAH@Z ENDP			; FDataStream::operator>><int>
_TEXT	ENDS
PUBLIC	??B?$FAutoVariable@W4PlayerTypes@@VCvCity@@@@QBEABW4PlayerTypes@@XZ ; FAutoVariable<enum PlayerTypes,CvCity>::operator enum PlayerTypes const &
; Function compile flags: /Ogtpy
; File c:\users\enormousapplepie\documents\github\lekmod\lekmod_dll\fireplace\include\fireworks\fautovariable.h
;	COMDAT ??B?$FAutoVariable@W4PlayerTypes@@VCvCity@@@@QBEABW4PlayerTypes@@XZ
_TEXT	SEGMENT
??B?$FAutoVariable@W4PlayerTypes@@VCvCity@@@@QBEABW4PlayerTypes@@XZ PROC ; FAutoVariable<enum PlayerTypes,CvCity>::operator enum PlayerTypes const &, COMDAT
; _this$ = ecx

; 194  : 	return m_value;

	lea	eax, DWORD PTR [ecx+4]

; 195  : }

	ret	0
??B?$FAutoVariable@W4PlayerTypes@@VCvCity@@@@QBEABW4PlayerTypes@@XZ ENDP ; FAutoVariable<enum PlayerTypes,CvCity>::operator enum PlayerTypes const &
_TEXT	ENDS
PUBLIC	??B?$FAutoVariable@HVCvCity@@@@QBEABHXZ		; FAutoVariable<int,CvCity>::operator int const &
; Function compile flags: /Ogtpy
;	COMDAT ??B?$FAutoVariable@HVCvCity@@@@QBEABHXZ
_TEXT	SEGMENT
??B?$FAutoVariable@HVCvCity@@@@QBEABHXZ PROC		; FAutoVariable<int,CvCity>::operator int const &, COMDAT
; _this$ = ecx

; 194  : 	return m_value;

	lea	eax, DWORD PTR [ecx+4]

; 195  : }

	ret	0
??B?$FAutoVariable@HVCvCity@@@@QBEABHXZ ENDP		; FAutoVariable<int,CvCity>::operator int const &
_TEXT	ENDS
PUBLIC	??B?$FAutoVariable@W4PlayerTypes@@VCvPlayer@@@@QBEABW4PlayerTypes@@XZ ; FAutoVariable<enum PlayerTypes,CvPlayer>::operator enum PlayerTypes const &
; Function compile flags: /Ogtpy
;	COMDAT ??B?$FAutoVariable@W4PlayerTypes@@VCvPlayer@@@@QBEABW4PlayerTypes@@XZ
_TEXT	SEGMENT
??B?$FAutoVariable@W4PlayerTypes@@VCvPlayer@@@@QBEABW4PlayerTypes@@XZ PROC ; FAutoVariable<enum PlayerTypes,CvPlayer>::operator enum PlayerTypes const &, COMDAT
; _this$ = ecx

; 194  : 	return m_value;

	lea	eax, DWORD PTR [ecx+4]

; 195  : }

	ret	0
??B?$FAutoVariable@W4PlayerTypes@@VCvPlayer@@@@QBEABW4PlayerTypes@@XZ ENDP ; FAutoVariable<enum PlayerTypes,CvPlayer>::operator enum PlayerTypes const &
_TEXT	ENDS
PUBLIC	??B?$FAutoVariable@_NVCvPlayer@@@@QBEAB_NXZ	; FAutoVariable<bool,CvPlayer>::operator bool const &
; Function compile flags: /Ogtpy
;	COMDAT ??B?$FAutoVariable@_NVCvPlayer@@@@QBEAB_NXZ
_TEXT	SEGMENT
??B?$FAutoVariable@_NVCvPlayer@@@@QBEAB_NXZ PROC	; FAutoVariable<bool,CvPlayer>::operator bool const &, COMDAT
; _this$ = ecx

; 194  : 	return m_value;

	lea	eax, DWORD PTR [ecx+4]

; 195  : }

	ret	0
??B?$FAutoVariable@_NVCvPlayer@@@@QBEAB_NXZ ENDP	; FAutoVariable<bool,CvPlayer>::operator bool const &
; Function compile flags: /Ogtpy
_TEXT	ENDS
;	COMDAT ??0bad_alloc@std@@QAE@ABV01@@Z
_TEXT	SEGMENT
___that$ = 8						; size = 4
??0bad_alloc@std@@QAE@ABV01@@Z PROC			; std::bad_alloc::bad_alloc, COMDAT
; _this$ = ecx
	mov	eax, DWORD PTR ___that$[esp-4]
	push	esi
	push	eax
	mov	esi, ecx
	call	DWORD PTR __imp_??0exception@std@@QAE@ABV01@@Z
	mov	DWORD PTR [esi], OFFSET ??_7bad_alloc@std@@6B@
	mov	eax, esi
	pop	esi
	ret	4
??0bad_alloc@std@@QAE@ABV01@@Z ENDP			; std::bad_alloc::bad_alloc
_TEXT	ENDS
PUBLIC	??$?5_N@FDataStream@@QAEAAV0@AA_N@Z		; FDataStream::operator>><bool>
EXTRN	?Read@FDataStream@@IAEXAA_N@Z:PROC		; FDataStream::Read
; Function compile flags: /Ogtpy
; File c:\users\enormousapplepie\documents\github\lekmod\lekmod_dll\fireplace\include\fireworks\fdatastream.h
;	COMDAT ??$?5_N@FDataStream@@QAEAAV0@AA_N@Z
_TEXT	SEGMENT
_kData$ = 8						; size = 4
??$?5_N@FDataStream@@QAEAAV0@AA_N@Z PROC		; FDataStream::operator>><bool>, COMDAT
; _this$ = ecx

; 260  : 	// If the compiler produces an error here complaining about 
; 261  : 	// YouMustImplementASerializeOperatorForThisTypeError then
; 262  : 	// it could not find a specialization for the type supplied
; 263  : 	// in scope. If a specialization exists, be sure to include
; 264  : 	// the header (FStlContainerSerialization.h, for example), 
; 265  : 	// if not, implement :
; 266  : 	// FDataStream & operator>>(FDataStream &, YourCustomType &)
; 267  : 	Read( kData );

	mov	eax, DWORD PTR _kData$[esp-4]
	push	esi
	push	eax
	mov	esi, ecx
	call	?Read@FDataStream@@IAEXAA_N@Z		; FDataStream::Read

; 268  : 	return ( *this );

	mov	eax, esi
	pop	esi

; 269  : }

	ret	4
??$?5_N@FDataStream@@QAEAAV0@AA_N@Z ENDP		; FDataStream::operator>><bool>
_TEXT	ENDS
PUBLIC	??$?6_N@FDataStream@@QAEAAV0@AB_N@Z		; FDataStream::operator<<<bool>
EXTRN	?Write@FDataStream@@IAEXAB_N@Z:PROC		; FDataStream::Write
; Function compile flags: /Ogtpy
;	COMDAT ??$?6_N@FDataStream@@QAEAAV0@AB_N@Z
_TEXT	SEGMENT
_kData$ = 8						; size = 4
??$?6_N@FDataStream@@QAEAAV0@AB_N@Z PROC		; FDataStream::operator<<<bool>, COMDAT
; _this$ = ecx

; 246  : 	// If the compiler produces an error here complaining about 
; 247  : 	// YouMustImplementASerializeOperatorForThisTypeError then
; 248  : 	// it could not find a specialization for the type supplied
; 249  : 	// in scope. If a specialization exists, be sure to include
; 250  : 	// the header (FStlContainerSerialization.h, for example), 
; 251  : 	// if not, implement :
; 252  : 	// FDataStream & operator<<(FDataStream &, YourCustomType &)
; 253  : 	Write( kData );

	mov	eax, DWORD PTR _kData$[esp-4]
	push	esi
	push	eax
	mov	esi, ecx
	call	?Write@FDataStream@@IAEXAB_N@Z		; FDataStream::Write

; 254  : 	return ( *this );

	mov	eax, esi
	pop	esi

; 255  : }

	ret	4
??$?6_N@FDataStream@@QAEAAV0@AB_N@Z ENDP		; FDataStream::operator<<<bool>
_TEXT	ENDS
PUBLIC	??$?5I@FDataStream@@QAEAAV0@AAI@Z		; FDataStream::operator>><unsigned int>
EXTRN	?Read@FDataStream@@IAEXAAI@Z:PROC		; FDataStream::Read
; Function compile flags: /Ogtpy
;	COMDAT ??$?5I@FDataStream@@QAEAAV0@AAI@Z
_TEXT	SEGMENT
_kData$ = 8						; size = 4
??$?5I@FDataStream@@QAEAAV0@AAI@Z PROC			; FDataStream::operator>><unsigned int>, COMDAT
; _this$ = ecx

; 260  : 	// If the compiler produces an error here complaining about 
; 261  : 	// YouMustImplementASerializeOperatorForThisTypeError then
; 262  : 	// it could not find a specialization for the type supplied
; 263  : 	// in scope. If a specialization exists, be sure to include
; 264  : 	// the header (FStlContainerSerialization.h, for example), 
; 265  : 	// if not, implement :
; 266  : 	// FDataStream & operator>>(FDataStream &, YourCustomType &)
; 267  : 	Read( kData );

	mov	eax, DWORD PTR _kData$[esp-4]
	push	esi
	push	eax
	mov	esi, ecx
	call	?Read@FDataStream@@IAEXAAI@Z		; FDataStream::Read

; 268  : 	return ( *this );

	mov	eax, esi
	pop	esi

; 269  : }

	ret	4
??$?5I@FDataStream@@QAEAAV0@AAI@Z ENDP			; FDataStream::operator>><unsigned int>
_TEXT	ENDS
PUBLIC	??$?6I@FDataStream@@QAEAAV0@ABI@Z		; FDataStream::operator<<<unsigned int>
EXTRN	?Write@FDataStream@@IAEXABI@Z:PROC		; FDataStream::Write
; Function compile flags: /Ogtpy
;	COMDAT ??$?6I@FDataStream@@QAEAAV0@ABI@Z
_TEXT	SEGMENT
_kData$ = 8						; size = 4
??$?6I@FDataStream@@QAEAAV0@ABI@Z PROC			; FDataStream::operator<<<unsigned int>, COMDAT
; _this$ = ecx

; 246  : 	// If the compiler produces an error here complaining about 
; 247  : 	// YouMustImplementASerializeOperatorForThisTypeError then
; 248  : 	// it could not find a specialization for the type supplied
; 249  : 	// in scope. If a specialization exists, be sure to include
; 250  : 	// the header (FStlContainerSerialization.h, for example), 
; 251  : 	// if not, implement :
; 252  : 	// FDataStream & operator<<(FDataStream &, YourCustomType &)
; 253  : 	Write( kData );

	mov	eax, DWORD PTR _kData$[esp-4]
	push	esi
	push	eax
	mov	esi, ecx
	call	?Write@FDataStream@@IAEXABI@Z		; FDataStream::Write

; 254  : 	return ( *this );

	mov	eax, esi
	pop	esi

; 255  : }

	ret	4
??$?6I@FDataStream@@QAEAAV0@ABI@Z ENDP			; FDataStream::operator<<<unsigned int>
_TEXT	ENDS
PUBLIC	?dxWrap@@YAHH@Z					; dxWrap
; Function compile flags: /Ogtpy
; File c:\users\enormousapplepie\documents\github\lekmod\lekmod_dll\cvgamecoredll_expansion2\cvgamecoreutils.h
;	COMDAT ?dxWrap@@YAHH@Z
_TEXT	SEGMENT
_iDX$ = 8						; size = 4
?dxWrap@@YAHH@Z PROC					; dxWrap, COMDAT

; 74   : 	const CvMap& kMap = GC.getMap();

	mov	eax, DWORD PTR ?gGlobals@@3VCvGlobals@@A+52

; 75   : 	return wrapCoordDifference(iDX, kMap.getGridWidth(), kMap.isWrapX());

	mov	edx, DWORD PTR [eax+4020]
	cmp	BYTE PTR [eax+4056], 0
	mov	eax, DWORD PTR _iDX$[esp-4]
	je	SHORT $LN13@dxWrap
	mov	ecx, edx
	shr	ecx, 1
	cmp	eax, ecx
	jle	SHORT $LN11@dxWrap
	sub	eax, edx

; 76   : }

	ret	0

; 75   : 	return wrapCoordDifference(iDX, kMap.getGridWidth(), kMap.isWrapX());

$LN11@dxWrap:
	neg	ecx
	cmp	eax, ecx
	jge	SHORT $LN13@dxWrap
	add	eax, edx
$LN13@dxWrap:

; 76   : }

	ret	0
?dxWrap@@YAHH@Z ENDP					; dxWrap
_TEXT	ENDS
PUBLIC	?dyWrap@@YAHH@Z					; dyWrap
; Function compile flags: /Ogtpy
;	COMDAT ?dyWrap@@YAHH@Z
_TEXT	SEGMENT
_iDY$ = 8						; size = 4
?dyWrap@@YAHH@Z PROC					; dyWrap, COMDAT

; 80   : 	const CvMap& kMap = GC.getMap();

	mov	eax, DWORD PTR ?gGlobals@@3VCvGlobals@@A+52

; 81   : 	return wrapCoordDifference(iDY, kMap.getGridHeight(), kMap.isWrapY());

	mov	edx, DWORD PTR [eax+4024]
	cmp	BYTE PTR [eax+4057], 0
	mov	eax, DWORD PTR _iDY$[esp-4]
	je	SHORT $LN13@dyWrap
	mov	ecx, edx
	shr	ecx, 1
	cmp	eax, ecx
	jle	SHORT $LN11@dyWrap
	sub	eax, edx

; 82   : }

	ret	0

; 81   : 	return wrapCoordDifference(iDY, kMap.getGridHeight(), kMap.isWrapY());

$LN11@dyWrap:
	neg	ecx
	cmp	eax, ecx
	jge	SHORT $LN13@dyWrap
	add	eax, edx
$LN13@dyWrap:

; 82   : }

	ret	0
?dyWrap@@YAHH@Z ENDP					; dyWrap
_TEXT	ENDS
PUBLIC	?plotDistance@@YAHHHHH@Z			; plotDistance
; Function compile flags: /Ogtpy
;	COMDAT ?plotDistance@@YAHHHHH@Z
_TEXT	SEGMENT
_iDY$ = -12						; size = 4
tv320 = -8						; size = 4
tv357 = -4						; size = 4
_iX1$ = 8						; size = 4
_iDX$ = 12						; size = 4
_iY1$ = 12						; size = 4
$T231741 = 16						; size = 4
_iX2$ = 16						; size = 4
_iY2$ = 20						; size = 4
?plotDistance@@YAHHHHH@Z PROC				; plotDistance, COMDAT

; 144  : {

	sub	esp, 12					; 0000000cH

; 145  : 	int iDX;
; 146  : 	int iWrappedDX = dxWrap(iX2 - iX1);

	mov	ecx, DWORD PTR _iX2$[esp+8]
	sub	ecx, DWORD PTR _iX1$[esp+8]
	push	ebx
	push	ebp
	push	esi
	push	edi
	mov	edi, DWORD PTR ?gGlobals@@3VCvGlobals@@A+52
	cmp	BYTE PTR [edi+4056], 0
	mov	edx, DWORD PTR [edi+4020]
	mov	DWORD PTR tv320[esp+28], ecx
	je	SHORT $LN18@plotDistan
	mov	eax, edx
	shr	eax, 1
	cmp	ecx, eax
	jle	SHORT $LN20@plotDistan
	sub	ecx, edx
	jmp	SHORT $LN18@plotDistan
$LN20@plotDistan:
	neg	eax
	cmp	ecx, eax
	jge	SHORT $LN18@plotDistan
	add	ecx, edx
$LN18@plotDistan:

; 147  : 	int iWrappedDY = dyWrap(iY2 - iY1);

	mov	ebp, DWORD PTR _iY2$[esp+24]
	sub	ebp, DWORD PTR _iY1$[esp+24]
	cmp	BYTE PTR [edi+4057], 0
	mov	eax, DWORD PTR [edi+4024]
	je	SHORT $LN32@plotDistan
	mov	edx, eax
	shr	edx, 1
	cmp	ebp, edx
	jle	SHORT $LN34@plotDistan
	mov	ebx, ebp
	sub	ebx, eax
	mov	DWORD PTR $T231741[esp+24], ebx
	jmp	SHORT $LN36@plotDistan
$LN34@plotDistan:
	neg	edx
	cmp	ebp, edx
	jge	SHORT $LN32@plotDistan
	lea	ebx, DWORD PTR [eax+ebp]
	mov	DWORD PTR $T231741[esp+24], ebx
	jmp	SHORT $LN36@plotDistan
$LN32@plotDistan:
	mov	ebx, ebp
	mov	DWORD PTR $T231741[esp+24], ebp
$LN36@plotDistan:

; 148  : 	int iDY = abs(iWrappedDY);

	mov	eax, ebx
	cdq
	mov	esi, eax
	xor	esi, edx
	sub	esi, edx

; 149  : 
; 150  : #ifdef GAMECOREUTILS_FIX_PLOT_DISTANCE
; 151  : 	const CvMap& kMap = GC.getMap();
; 152  : 	// equidistant column joint fix (on X-wrapped maps):
; 153  : 	if ((kMap.isWrapX()) && (abs(iWrappedDX * 2) == kMap.getGridWidth()) && (iDY % 2 != 0) && ((iY1 % 2 == 0) == (iWrappedDX > (kMap.getGridWidth() >> 2))))

	cmp	BYTE PTR [edi+4056], 0
	mov	DWORD PTR _iDY$[esp+28], esi
	je	$LN77@plotDistan
	lea	eax, DWORD PTR [ecx+ecx]
	cdq
	mov	ebx, eax
	mov	eax, DWORD PTR [edi+4020]
	xor	ebx, edx
	sub	ebx, edx
	cmp	ebx, eax
	jne	SHORT $LN73@plotDistan
	mov	edx, esi
	and	edx, -2147483647			; 80000001H
	jns	SHORT $LN79@plotDistan
	dec	edx
	or	edx, -2					; fffffffeH
	inc	edx
$LN79@plotDistan:
	je	SHORT $LN73@plotDistan
	sar	eax, 2
	xor	edx, edx
	cmp	ecx, eax
	mov	eax, DWORD PTR _iY1$[esp+24]
	setg	dl
	and	eax, -2147483647			; 80000001H
	jns	SHORT $LN80@plotDistan
	dec	eax
	or	eax, -2					; fffffffeH
	inc	eax
$LN80@plotDistan:

; 154  : 	{
; 155  : 		iWrappedDX *= -1;  // change polarity

	mov	ebx, DWORD PTR $T231741[esp+24]
	neg	eax
	sbb	eax, eax
	inc	eax
	cmp	eax, edx
	jne	SHORT $LN5@plotDistan
	neg	ecx
	jmp	SHORT $LN5@plotDistan
$LN73@plotDistan:
	mov	ebx, DWORD PTR $T231741[esp+24]
$LN5@plotDistan:

; 156  : 	}
; 157  : 	if ((kMap.isWrapX()) && (abs(iWrappedDX * 2) == kMap.getGridWidth()) && (abs(iWrappedDY) < abs(iY2 - iY1)) && (iDY % 2 == 0) && (iX2 - iX1 < 0))

	cmp	BYTE PTR [edi+4056], 0
	je	$LN77@plotDistan
	lea	eax, DWORD PTR [ecx+ecx]
	cdq
	xor	eax, edx
	sub	eax, edx
	cmp	eax, DWORD PTR [edi+4020]
	jne	SHORT $LN75@plotDistan
	mov	eax, ebp
	cdq
	xor	eax, edx
	sub	eax, edx
	cmp	esi, eax
	jge	SHORT $LN75@plotDistan
	mov	edx, DWORD PTR _iDY$[esp+28]
	and	edx, -2147483647			; 80000001H
	jns	SHORT $LN81@plotDistan
	dec	edx
	or	edx, -2					; fffffffeH
	inc	edx
$LN81@plotDistan:
	jne	SHORT $LN75@plotDistan
	cmp	DWORD PTR tv320[esp+28], 0
	jge	SHORT $LN75@plotDistan

; 158  : 	{
; 159  : 		iWrappedDX *= -1;  // change polarity

	neg	ecx
$LN75@plotDistan:

; 160  : 	}
; 161  : 	// special case when map is toroidal AND map height is odd
; 162  : 	// TODO works but ugly
; 163  : 	if ((kMap.isWrapX()) && (kMap.getGridHeight() % 2 != 0) && (iY1 % 2 == kMap.getGridWidth() % 2) && (iY2 % 2 == 0) &&
; 164  : 		(abs(iWrappedDY) < abs(iY2 - iY1)) && (abs(iX2 - iX1) == kMap.getGridWidth() / 2 + ((kMap.getGridWidth() % 2 == 1) && (iX2 - iX1 > 0)) ? 1 : 0))

	cmp	BYTE PTR [edi+4056], 0
	je	$LN77@plotDistan
	mov	eax, DWORD PTR [edi+4024]
	and	eax, -2147483647			; 80000001H
	jns	SHORT $LN82@plotDistan
	dec	eax
	or	eax, -2					; fffffffeH
	inc	eax
$LN82@plotDistan:
	je	$LN77@plotDistan
	mov	edi, DWORD PTR [edi+4020]
	mov	DWORD PTR tv357[esp+28], edi
	and	edi, -2147483647			; 80000001H
	jns	SHORT $LN83@plotDistan
	dec	edi
	or	edi, -2					; fffffffeH
	inc	edi
$LN83@plotDistan:
	mov	edx, DWORD PTR _iY1$[esp+24]
	and	edx, -2147483647			; 80000001H
	jns	SHORT $LN84@plotDistan
	dec	edx
	or	edx, -2					; fffffffeH
	inc	edx
$LN84@plotDistan:
	cmp	edx, edi
	jne	SHORT $LN77@plotDistan
	mov	eax, DWORD PTR _iY2$[esp+24]
	and	eax, -2147483647			; 80000001H
	jns	SHORT $LN85@plotDistan
	dec	eax
	or	eax, -2					; fffffffeH
	inc	eax
$LN85@plotDistan:
	jne	SHORT $LN77@plotDistan
	mov	eax, ebp
	cdq
	xor	eax, edx
	sub	eax, edx
	cmp	esi, eax
	jge	SHORT $LN77@plotDistan
	cmp	edi, 1
	jne	SHORT $LN76@plotDistan
	cmp	DWORD PTR tv320[esp+28], 0
	jle	SHORT $LN76@plotDistan
	mov	esi, edi
	jmp	SHORT $LN9@plotDistan
$LN76@plotDistan:
	xor	esi, esi
$LN9@plotDistan:
	mov	eax, DWORD PTR tv320[esp+28]
	cdq
	mov	edi, eax
	mov	eax, DWORD PTR tv357[esp+28]
	xor	edi, edx
	sub	edi, edx
	cdq
	sub	eax, edx
	sar	eax, 1
	add	eax, esi
	cmp	edi, eax
	jne	SHORT $LN77@plotDistan

; 165  : 	{
; 166  : 		iWrappedDX -= (iWrappedDX > 0) - (iWrappedDX < 0);  // decrease regardless of polarity

	xor	edx, edx
	test	ecx, ecx
	setl	dl
	xor	eax, eax
	test	ecx, ecx
	setg	al
	sub	edx, eax
	add	ecx, edx
$LN77@plotDistan:

; 167  : 	}
; 168  : #endif
; 169  : 
; 170  : 	// convert to hex-space coordinates - the coordinate system axes are E and NE (not orthogonal)
; 171  : 	int iHX1 = xToHexspaceX(iX1, iY1);

	mov	eax, DWORD PTR _iY1$[esp+24]
	test	eax, eax
	jge	SHORT $LN88@plotDistan
	dec	eax
	cdq
	sub	eax, edx
$LN88@plotDistan:
	mov	edi, DWORD PTR _iX1$[esp+24]

; 172  : 	int iHX2 = xToHexspaceX(iX1 + iWrappedDX, iY1 + iWrappedDY);

	mov	edx, DWORD PTR _iY1$[esp+24]
	sar	eax, 1
	mov	esi, edi
	sub	esi, eax
	lea	eax, DWORD PTR [ebx+edx]
	test	eax, eax
	jge	SHORT $LN89@plotDistan
	dec	eax
	cdq
	sub	eax, edx
$LN89@plotDistan:
	sar	eax, 1
	sub	ecx, eax
	add	ecx, edi

; 173  : 
; 174  : #ifdef GAMECOREUTILS_FIX_PLOT_DISTANCE
; 175  : 	// obvious bug
; 176  : 	iDX = abs(iHX2 - iHX1);

	sub	ecx, esi
	mov	eax, ecx
	cdq
	xor	eax, edx
	sub	eax, edx

; 177  : #else
; 178  : 	iDX = abs(dxWrap(iHX2 - iHX1));
; 179  : #endif
; 180  : 
; 181  : #ifdef NQM_GAME_CORE_UTILS_OPTIMIZATIONS
; 182  : 	if (((iHX2 - iHX1) ^ (iWrappedDY)) >= 0)  // the signs match
; 183  : #else
; 184  : 	if((iHX2 - iHX1 >= 0) == (iWrappedDY >= 0))  // the signs match

	xor	edx, edx
	test	ecx, ecx
	setge	dl
	xor	ecx, ecx
	test	ebx, ebx
	setge	cl
	pop	edi
	pop	esi
	pop	ebp
	mov	DWORD PTR _iDX$[esp+12], eax
	pop	ebx
	cmp	edx, ecx
	jne	SHORT $LN2@plotDistan

; 185  : #endif
; 186  : 	{
; 187  : 		return iDX + iDY;

	mov	edx, DWORD PTR _iDY$[esp+12]
	add	eax, edx

; 195  : #endif
; 196  : 	}
; 197  : }

	add	esp, 12					; 0000000cH
	ret	0
$LN2@plotDistan:

; 188  : 	}
; 189  : 	else
; 190  : 	{
; 191  : #ifdef NQM_FAST_COMP
; 192  : 		return (MAX(iDX, iDY));
; 193  : #else
; 194  : 		return (std::max(iDX, iDY));

	cmp	eax, DWORD PTR _iDY$[esp+12]
	lea	eax, DWORD PTR _iDY$[esp+12]
	jl	SHORT $LN71@plotDistan
	lea	eax, DWORD PTR _iDX$[esp+8]
$LN71@plotDistan:
	mov	eax, DWORD PTR [eax]

; 195  : #endif
; 196  : 	}
; 197  : }

	add	esp, 12					; 0000000cH
	ret	0
?plotDistance@@YAHHHHH@Z ENDP				; plotDistance
_TEXT	ENDS
PUBLIC	??1CvBaseInfo@@QAE@XZ				; CvBaseInfo::~CvBaseInfo
;	COMDAT xdata$x
xdata$x	SEGMENT
__ehfuncinfo$??1CvBaseInfo@@QAE@XZ DD 019930522H
	DD	08H
	DD	FLAT:__unwindtable$??1CvBaseInfo@@QAE@XZ
	DD	2 DUP(00H)
	DD	2 DUP(00H)
	DD	00H
	DD	01H
__unwindtable$??1CvBaseInfo@@QAE@XZ DD 0ffffffffH
	DD	FLAT:__unwindfunclet$??1CvBaseInfo@@QAE@XZ$0
	DD	00H
	DD	FLAT:__unwindfunclet$??1CvBaseInfo@@QAE@XZ$1
	DD	01H
	DD	FLAT:__unwindfunclet$??1CvBaseInfo@@QAE@XZ$2
	DD	02H
	DD	FLAT:__unwindfunclet$??1CvBaseInfo@@QAE@XZ$3
	DD	03H
	DD	FLAT:__unwindfunclet$??1CvBaseInfo@@QAE@XZ$4
	DD	04H
	DD	FLAT:__unwindfunclet$??1CvBaseInfo@@QAE@XZ$5
	DD	05H
	DD	FLAT:__unwindfunclet$??1CvBaseInfo@@QAE@XZ$6
	DD	06H
	DD	FLAT:__unwindfunclet$??1CvBaseInfo@@QAE@XZ$7
