; Listing generated by Microsoft (R) Optimizing Compiler Version 15.00.30729.01 

	TITLE	c:\Users\EnormousApplePie\Documents\GitHub\Lekmod\LEKMOD_DLL\CvGameCoreDLL_Expansion2\CvPlot.cpp
	.686P
	.XMM
	include listing.inc
	.model	flat

INCLUDELIB MSVCRT
INCLUDELIB OLDNAMES

PUBLIC	?NO_QUEST_DATA@CvMinorCivQuest@@2HB		; CvMinorCivQuest::NO_QUEST_DATA
PUBLIC	?NO_TURN@CvMinorCivQuest@@2HB			; CvMinorCivQuest::NO_TURN
CONST	SEGMENT
$SG222132 DB	'CvPlot::m_eFeatureType', 00H
$SG224681 DB	00H
$SG222413 DB	'Resource Discovery', 00H
$SG226739 DB	00H
$SG222419 DB	'RESOURCE_ARTIFACTS', 00H
	ORG $+1
$SG222426 DB	'TXT_KEY_MISC_DISCOVERED_ARTIFACTS_NEAR', 00H
	ORG $+1
$SG222429 DB	'RESOURCE_HIDDEN_ARTIFACTS', 00H
	ORG $+2
$SG222431 DB	'TXT_KEY_MISC_DISCOVERED_HIDDEN_ARTIFACTS_NEAR', 00H
	ORG $+2
$SG222443 DB	'TXT_KEY_MISC_DISCOVERED_NEW_RESOURCE', 00H
	ORG $+3
$SG223668 DB	'FLAVOR_OFFENSE', 00H
	ORG $+1
$SG223669 DB	'FLAVOR_DEFENSE', 00H
	ORG $+1
$SG225234 DB	'IMPROVEMENT_MOTTE_BAILEY', 00H
	ORG $+3
$SG225238 DB	'IMPROVEMENT_FEITORIA', 00H
	ORG $+3
$SG226095 DB	'NaturalWonderDiscovered', 00H
$SG226098 DB	'TXT_KEY_NOTIFICATION_FOUND_NATURAL_WONDER', 00H
	ORG $+2
$SG226107 DB	'TXT_KEY_NOTIFICATION_SUMMARY_FOUND_NATURAL_WONDER', 00H
	ORG $+2
$SG226143 DB	'HANDICAP_PRINCE', 00H
$SG226166 DB	'[COLOR_YELLOW]+%d[ENDCOLOR][ICON_GOLD]', 00H
	ORG $+1
$SG226178 DB	'FEATURE_FOUNTAIN_YOUTH', 00H
	ORG $+1
$SG226181 DB	'FEATURE_EL_DORADO', 00H
	ORG $+2
$SG226196 DB	'TXT_KEY_NOTIFICATION_FOUND_GOODY_HUT', 00H
	ORG $+3
$SG226199 DB	'TXT_KEY_NOTIFICATION_SUMMARY_FOUND_GOODY_HUT', 00H
	ORG $+3
$SG226293 DB	'TXT_KEY_NOTIFICATION_FOUND_BARB_CAMP', 00H
	ORG $+3
$SG226296 DB	'TXT_KEY_NOTIFICATION_SUMMARY_FOUND_BARB_CAMP', 00H
	ORG $+3
$SG226378 DB	'TXT_KEY_NOTIFICATION_CHOOSE_ARCHAEOLOGY', 00H
$SG226381 DB	'TXT_KEY_NOTIFICATION_SUMMARY_CHOOSE_ARCHAEOLOGY', 00H
$SG226384 DB	'CIVILIZATION_AMERICA', 00H
	ORG $+3
$SG226387 DB	'CIVILIZATION_EGYPT', 00H
	ORG $+1
$SG226396 DB	'CIVILIZATION_GERMANY', 00H
	ORG $+3
$SG226403 DB	'UNIT_ARCHAEOLOGIST', 00H
	ORG $+1
$SG226430 DB	'TXT_KEY_MISC_CLEARING_FEATURE_RESOURCE', 00H
	ORG $+1
$SG226438 DB	'TXT_KEY_MISC_CLEARING_FEATURE_FOOD', 00H
	ORG $+1
$SG226449 DB	'BuildFinished', 00H
	ORG $+2
$SG227365 DB	'Game Turn : ', 00H
	ORG $+3
$SG227373 DB	'%d', 00H, 00H
$SG92482 DB	'daf6f887-3614-4169-a0e5-3ac9bd4ef82b', 00H
	ORG $+3
_CIV5_DLC_04_SCENARIO_MODID DD FLAT:$SG92482
$SG207740 DB	0aH, 00H
	ORG $+2
$SG207741 DB	0aH, 00H
CONST	ENDS
;	COMDAT ?NO_TURN@CvMinorCivQuest@@2HB
CONST	SEGMENT
?NO_TURN@CvMinorCivQuest@@2HB DD 0ffffffffH		; CvMinorCivQuest::NO_TURN
CONST	ENDS
;	COMDAT ?NO_QUEST_DATA@CvMinorCivQuest@@2HB
CONST	SEGMENT
?NO_QUEST_DATA@CvMinorCivQuest@@2HB DD 0ffffffffH	; CvMinorCivQuest::NO_QUEST_DATA
CONST	ENDS
PUBLIC	?wrapCoordDifference@@YAHHI_N@Z			; wrapCoordDifference
; Function compile flags: /Ogtpy
; File c:\users\enormousapplepie\documents\github\lekmod\lekmod_dll\cvgamecoredll_expansion2\cvgamecoreutils.h
;	COMDAT ?wrapCoordDifference@@YAHHI_N@Z
_TEXT	SEGMENT
_iDiff$ = 8						; size = 4
_uiRange$ = 12						; size = 4
_bWrap$ = 16						; size = 1
?wrapCoordDifference@@YAHHI_N@Z PROC			; wrapCoordDifference, COMDAT

; 57   : 	if(bWrap)

	cmp	BYTE PTR _bWrap$[esp-4], 0
	mov	eax, DWORD PTR _iDiff$[esp-4]
	je	SHORT $LN5@wrapCoordD

; 58   : 	{
; 59   : 		if(iDiff > (int)(uiRange >> 1))		// Using an unsigned int so we can safely assume that value >> 1 == value / 2

	mov	edx, DWORD PTR _uiRange$[esp-4]
	mov	ecx, edx
	shr	ecx, 1
	cmp	eax, ecx
	jle	SHORT $LN3@wrapCoordD

; 60   : 		{
; 61   : 			return (iDiff - (int)uiRange);

	sub	eax, edx

; 66   : 		}
; 67   : 	}
; 68   : 
; 69   : 	return iDiff;
; 70   : }

	ret	0
$LN3@wrapCoordD:

; 62   : 		}
; 63   : 		else if(iDiff < -(int)(uiRange >> 1))

	neg	ecx
	cmp	eax, ecx
	jge	SHORT $LN5@wrapCoordD

; 64   : 		{
; 65   : 			return (iDiff + (int)uiRange);

	add	eax, edx
$LN5@wrapCoordD:

; 66   : 		}
; 67   : 	}
; 68   : 
; 69   : 	return iDiff;
; 70   : }

	ret	0
?wrapCoordDifference@@YAHHI_N@Z ENDP			; wrapCoordDifference
_TEXT	ENDS
PUBLIC	?xToHexspaceX@@YAHHH@Z				; xToHexspaceX
; Function compile flags: /Ogtpy
;	COMDAT ?xToHexspaceX@@YAHHH@Z
_TEXT	SEGMENT
_iX$ = 8						; size = 4
_iY$ = 12						; size = 4
?xToHexspaceX@@YAHHH@Z PROC				; xToHexspaceX, COMDAT

; 86   : 	return iX - ((iY >= 0) ? (iY>>1) : ((iY - 1)/2));

	mov	ecx, DWORD PTR _iY$[esp-4]
	test	ecx, ecx
	jge	SHORT $LN5@xToHexspac
	lea	eax, DWORD PTR [ecx-1]
	cdq
	sub	eax, edx
	mov	ecx, eax
$LN5@xToHexspac:
	mov	eax, DWORD PTR _iX$[esp-4]
	sar	ecx, 1
	sub	eax, ecx

; 87   : }

	ret	0
?xToHexspaceX@@YAHHH@Z ENDP				; xToHexspaceX
_TEXT	ENDS
PUBLIC	?hexspaceXToX@@YAHHH@Z				; hexspaceXToX
; Function compile flags: /Ogtpy
;	COMDAT ?hexspaceXToX@@YAHHH@Z
_TEXT	SEGMENT
_iHexspaceX$ = 8					; size = 4
_iHexspaceY$ = 12					; size = 4
?hexspaceXToX@@YAHHH@Z PROC				; hexspaceXToX, COMDAT

; 91   : 	return iHexspaceX + ((iHexspaceY >= 0) ? (iHexspaceY>>1) : ((iHexspaceY - 1)/2));

	mov	eax, DWORD PTR _iHexspaceY$[esp-4]
	test	eax, eax
	jl	SHORT $LN3@hexspaceXT
	mov	ecx, DWORD PTR _iHexspaceX$[esp-4]
	sar	eax, 1
	add	eax, ecx

; 92   : }

	ret	0
$LN3@hexspaceXT:

; 91   : 	return iHexspaceX + ((iHexspaceY >= 0) ? (iHexspaceY>>1) : ((iHexspaceY - 1)/2));

	dec	eax
	cdq
	sub	eax, edx
	mov	edx, DWORD PTR _iHexspaceX$[esp-4]
	sar	eax, 1
	add	eax, edx

; 92   : }

	ret	0
?hexspaceXToX@@YAHHH@Z ENDP				; hexspaceXToX
_TEXT	ENDS
PUBLIC	?hexDistance@@YAHHH@Z				; hexDistance
; Function compile flags: /Ogtpy
;	COMDAT ?hexDistance@@YAHHH@Z
_TEXT	SEGMENT
_iDX$ = 8						; size = 4
_iDY$ = 12						; size = 4
?hexDistance@@YAHHH@Z PROC				; hexDistance, COMDAT

; 96   : 	// I'm assuming iDX and iDY are in hex-space
; 97   : #ifdef NQM_GAME_CORE_UTILS_OPTIMIZATIONS
; 98   : 	// Delnar: Using abs() because I trust the compiler to generate more efficient code than if I'd write an abs(int) function myself, especially if the CPU has an abs(int) operation
; 99   : 	if ((iDX ^ iDY) >= 0)  // the signs match
; 100  : 	{
; 101  : 		return abs(iDX) + abs(iDY);
; 102  : 	}
; 103  : 	else
; 104  : 	{
; 105  : 		return MAX(abs(iDX), abs(iDY));
; 106  : 	}
; 107  : #else
; 108  : 	if((iDX >= 0) == (iDY >= 0))  // the signs match

	mov	eax, DWORD PTR _iDX$[esp-4]
	xor	ecx, ecx
	test	eax, eax
	setge	cl
	push	esi
	mov	esi, DWORD PTR _iDY$[esp]
	xor	edx, edx
	test	esi, esi
	setge	dl
	cmp	ecx, edx
	jne	SHORT $LN2@hexDistanc

; 109  : 	{
; 110  : 		int iAbsDX = iDX >= 0 ? iDX : -iDX;

	test	eax, eax
	jge	SHORT $LN6@hexDistanc
	neg	eax
$LN6@hexDistanc:

; 111  : 		int iAbsDY = iDY >= 0 ? iDY : -iDY;

	test	esi, esi
	jge	SHORT $LN8@hexDistanc
	neg	esi
$LN8@hexDistanc:

; 112  : 		return iAbsDX + iAbsDY;

	add	eax, esi
	pop	esi

; 119  : 	}
; 120  : #endif
; 121  : }

	ret	0
$LN2@hexDistanc:

; 113  : 	}
; 114  : 	else
; 115  : 	{
; 116  : 		int iAbsDX = iDX >= 0 ? iDX : -iDX;

	test	eax, eax
	jge	SHORT $LN10@hexDistanc
	neg	eax
$LN10@hexDistanc:

; 117  : 		int iAbsDY = iDY >= 0 ? iDY : -iDY;

	test	esi, esi
	jge	SHORT $LN12@hexDistanc
	neg	esi
$LN12@hexDistanc:

; 118  : 		return iAbsDX >= iAbsDY ? iAbsDX : iAbsDY;

	cmp	eax, esi
	jge	SHORT $LN1@hexDistanc
	mov	eax, esi
$LN1@hexDistanc:
	pop	esi

; 119  : 	}
; 120  : #endif
; 121  : }

	ret	0
?hexDistance@@YAHHH@Z ENDP				; hexDistance
_TEXT	ENDS
PUBLIC	??1?$FAutoArchiveClassContainer@VCvPlot@@@@UAE@XZ ; FAutoArchiveClassContainer<CvPlot>::~FAutoArchiveClassContainer<CvPlot>
EXTRN	??1FAutoArchive@@UAE@XZ:PROC			; FAutoArchive::~FAutoArchive
; Function compile flags: /Ogtpy
;	COMDAT ??1?$FAutoArchiveClassContainer@VCvPlot@@@@UAE@XZ
_TEXT	SEGMENT
??1?$FAutoArchiveClassContainer@VCvPlot@@@@UAE@XZ PROC	; FAutoArchiveClassContainer<CvPlot>::~FAutoArchiveClassContainer<CvPlot>, COMDAT
; _this$ = ecx
	jmp	??1FAutoArchive@@UAE@XZ			; FAutoArchive::~FAutoArchive
??1?$FAutoArchiveClassContainer@VCvPlot@@@@UAE@XZ ENDP	; FAutoArchiveClassContainer<CvPlot>::~FAutoArchiveClassContainer<CvPlot>
_TEXT	ENDS
PUBLIC	??_7bad_alloc@std@@6B@				; std::bad_alloc::`vftable'
PUBLIC	??0bad_alloc@std@@QAE@PBD@Z			; std::bad_alloc::bad_alloc
PUBLIC	??_R4bad_alloc@std@@6B@				; std::bad_alloc::`RTTI Complete Object Locator'
PUBLIC	??_R0?AVbad_alloc@std@@@8			; std::bad_alloc `RTTI Type Descriptor'
PUBLIC	??_R3bad_alloc@std@@8				; std::bad_alloc::`RTTI Class Hierarchy Descriptor'
PUBLIC	??_R2bad_alloc@std@@8				; std::bad_alloc::`RTTI Base Class Array'
PUBLIC	??_R1A@?0A@EA@bad_alloc@std@@8			; std::bad_alloc::`RTTI Base Class Descriptor at (0,-1,0,64)'
PUBLIC	??_R1A@?0A@EA@exception@std@@8			; std::exception::`RTTI Base Class Descriptor at (0,-1,0,64)'
PUBLIC	??_R0?AVexception@std@@@8			; std::exception `RTTI Type Descriptor'
PUBLIC	??_R3exception@std@@8				; std::exception::`RTTI Class Hierarchy Descriptor'
PUBLIC	??_R2exception@std@@8				; std::exception::`RTTI Base Class Array'
EXTRN	__imp_??0exception@std@@QAE@ABQBD@Z:PROC
EXTRN	??_7type_info@@6B@:QWORD			; type_info::`vftable'
EXTRN	??_Ebad_alloc@std@@UAEPAXI@Z:PROC		; std::bad_alloc::`vector deleting destructor'
EXTRN	?what@exception@std@@UBEPBDXZ:PROC		; std::exception::what
;	COMDAT ??_R2exception@std@@8
; File c:\program files (x86)\microsoft visual studio 9.0\vc\include\exception
rdata$r	SEGMENT
??_R2exception@std@@8 DD FLAT:??_R1A@?0A@EA@exception@std@@8 ; std::exception::`RTTI Base Class Array'
rdata$r	ENDS
;	COMDAT ??_R3exception@std@@8
rdata$r	SEGMENT
??_R3exception@std@@8 DD 00H				; std::exception::`RTTI Class Hierarchy Descriptor'
	DD	00H
	DD	01H
	DD	FLAT:??_R2exception@std@@8
rdata$r	ENDS
;	COMDAT ??_R0?AVexception@std@@@8
_DATA	SEGMENT
??_R0?AVexception@std@@@8 DD FLAT:??_7type_info@@6B@	; std::exception `RTTI Type Descriptor'
	DD	00H
	DB	'.?AVexception@std@@', 00H
_DATA	ENDS
;	COMDAT ??_R1A@?0A@EA@exception@std@@8
rdata$r	SEGMENT
??_R1A@?0A@EA@exception@std@@8 DD FLAT:??_R0?AVexception@std@@@8 ; std::exception::`RTTI Base Class Descriptor at (0,-1,0,64)'
	DD	00H
	DD	00H
	DD	0ffffffffH
	DD	00H
	DD	040H
	DD	FLAT:??_R3exception@std@@8
rdata$r	ENDS
;	COMDAT ??_R1A@?0A@EA@bad_alloc@std@@8
rdata$r	SEGMENT
??_R1A@?0A@EA@bad_alloc@std@@8 DD FLAT:??_R0?AVbad_alloc@std@@@8 ; std::bad_alloc::`RTTI Base Class Descriptor at (0,-1,0,64)'
	DD	01H
	DD	00H
	DD	0ffffffffH
	DD	00H
	DD	040H
	DD	FLAT:??_R3bad_alloc@std@@8
rdata$r	ENDS
;	COMDAT ??_R2bad_alloc@std@@8
rdata$r	SEGMENT
??_R2bad_alloc@std@@8 DD FLAT:??_R1A@?0A@EA@bad_alloc@std@@8 ; std::bad_alloc::`RTTI Base Class Array'
	DD	FLAT:??_R1A@?0A@EA@exception@std@@8
rdata$r	ENDS
;	COMDAT ??_R3bad_alloc@std@@8
rdata$r	SEGMENT
??_R3bad_alloc@std@@8 DD 00H				; std::bad_alloc::`RTTI Class Hierarchy Descriptor'
	DD	00H
	DD	02H
	DD	FLAT:??_R2bad_alloc@std@@8
rdata$r	ENDS
;	COMDAT ??_R0?AVbad_alloc@std@@@8
_DATA	SEGMENT
??_R0?AVbad_alloc@std@@@8 DD FLAT:??_7type_info@@6B@	; std::bad_alloc `RTTI Type Descriptor'
	DD	00H
	DB	'.?AVbad_alloc@std@@', 00H
_DATA	ENDS
;	COMDAT ??_R4bad_alloc@std@@6B@
rdata$r	SEGMENT
??_R4bad_alloc@std@@6B@ DD 00H				; std::bad_alloc::`RTTI Complete Object Locator'
	DD	00H
	DD	00H
	DD	FLAT:??_R0?AVbad_alloc@std@@@8
	DD	FLAT:??_R3bad_alloc@std@@8
rdata$r	ENDS
;	COMDAT ??_7bad_alloc@std@@6B@
CONST	SEGMENT
??_7bad_alloc@std@@6B@ DD FLAT:??_R4bad_alloc@std@@6B@	; std::bad_alloc::`vftable'
	DD	FLAT:??_Ebad_alloc@std@@UAEPAXI@Z
	DD	FLAT:?what@exception@std@@UBEPBDXZ
; Function compile flags: /Ogtpy
CONST	ENDS
;	COMDAT ??0bad_alloc@std@@QAE@PBD@Z
_TEXT	SEGMENT
__Message$ = 8						; size = 4
??0bad_alloc@std@@QAE@PBD@Z PROC			; std::bad_alloc::bad_alloc, COMDAT
; _this$ = ecx

; 371  : 		{	// construct from message string

	push	esi
	lea	eax, DWORD PTR __Message$[esp]
	push	eax
	mov	esi, ecx
	call	DWORD PTR __imp_??0exception@std@@QAE@ABQBD@Z
	mov	DWORD PTR [esi], OFFSET ??_7bad_alloc@std@@6B@

; 372  : 		}

	mov	eax, esi
	pop	esi
	ret	4
??0bad_alloc@std@@QAE@PBD@Z ENDP			; std::bad_alloc::bad_alloc
_TEXT	ENDS
PUBLIC	??1bad_alloc@std@@UAE@XZ			; std::bad_alloc::~bad_alloc
EXTRN	__imp_??1exception@std@@UAE@XZ:PROC
; Function compile flags: /Ogtpy
;	COMDAT ??1bad_alloc@std@@UAE@XZ
_TEXT	SEGMENT
??1bad_alloc@std@@UAE@XZ PROC				; std::bad_alloc::~bad_alloc, COMDAT
; _this$ = ecx

; 380  : 		{	// destroy the object

	mov	DWORD PTR [ecx], OFFSET ??_7bad_alloc@std@@6B@

; 381  : 		}

	jmp	DWORD PTR __imp_??1exception@std@@UAE@XZ
??1bad_alloc@std@@UAE@XZ ENDP				; std::bad_alloc::~bad_alloc
_TEXT	ENDS
EXTRN	??3@YAXPAX@Z:PROC				; operator delete
; Function compile flags: /Ogtpy
;	COMDAT ??_Gbad_alloc@std@@UAEPAXI@Z
_TEXT	SEGMENT
___flags$ = 8						; size = 4
??_Gbad_alloc@std@@UAEPAXI@Z PROC			; std::bad_alloc::`scalar deleting destructor', COMDAT
; _this$ = ecx
	push	esi
	mov	esi, ecx
	mov	DWORD PTR [esi], OFFSET ??_7bad_alloc@std@@6B@
	call	DWORD PTR __imp_??1exception@std@@UAE@XZ
	test	BYTE PTR ___flags$[esp], 1
	je	SHORT $LN6@scalar
	push	esi
	call	??3@YAXPAX@Z				; operator delete
	add	esp, 4
$LN6@scalar:
	mov	eax, esi
	pop	esi
	ret	4
??_Gbad_alloc@std@@UAEPAXI@Z ENDP			; std::bad_alloc::`scalar deleting destructor'
_TEXT	ENDS
PUBLIC	??2@YAPAXIPAX@Z					; operator new
; Function compile flags: /Ogtpy
; File c:\program files (x86)\microsoft visual studio 9.0\vc\include\new
;	COMDAT ??2@YAPAXIPAX@Z
_TEXT	SEGMENT
___formal$ = 8						; size = 4
__Where$ = 12						; size = 4
??2@YAPAXIPAX@Z PROC					; operator new, COMDAT

; 59   : 	return (_Where);

	mov	eax, DWORD PTR __Where$[esp-4]

; 60   : 	}

	ret	0
??2@YAPAXIPAX@Z ENDP					; operator new
_TEXT	ENDS
PUBLIC	??3@YAXPAX0@Z					; operator delete
; Function compile flags: /Ogtpy
;	COMDAT ??3@YAXPAX0@Z
_TEXT	SEGMENT
___formal$ = 8						; size = 4
___formal$ = 12						; size = 4
??3@YAXPAX0@Z PROC					; operator delete, COMDAT

; 64   : 	}

	ret	0
??3@YAXPAX0@Z ENDP					; operator delete
_TEXT	ENDS
PUBLIC	??_7logic_error@std@@6B@			; std::logic_error::`vftable'
PUBLIC	??0logic_error@std@@QAE@ABV?$basic_string@DU?$char_traits@D@std@@V?$allocator@D@2@@1@@Z ; std::logic_error::logic_error
PUBLIC	??_R4logic_error@std@@6B@			; std::logic_error::`RTTI Complete Object Locator'
PUBLIC	??_R0?AVlogic_error@std@@@8			; std::logic_error `RTTI Type Descriptor'
PUBLIC	??_R3logic_error@std@@8				; std::logic_error::`RTTI Class Hierarchy Descriptor'
PUBLIC	??_R2logic_error@std@@8				; std::logic_error::`RTTI Base Class Array'
PUBLIC	??_R1A@?0A@EA@logic_error@std@@8		; std::logic_error::`RTTI Base Class Descriptor at (0,-1,0,64)'
PUBLIC	?what@logic_error@std@@UBEPBDXZ			; std::logic_error::what
EXTRN	__imp_??0?$basic_string@DU?$char_traits@D@std@@V?$allocator@D@2@@std@@QAE@ABV01@@Z:PROC
EXTRN	__imp_??0exception@std@@QAE@XZ:PROC
EXTRN	___CxxFrameHandler3:PROC
EXTRN	??_Elogic_error@std@@UAEPAXI@Z:PROC		; std::logic_error::`vector deleting destructor'
;	COMDAT ??_R1A@?0A@EA@logic_error@std@@8
; File c:\program files (x86)\microsoft visual studio 9.0\vc\include\stdexcept
rdata$r	SEGMENT
??_R1A@?0A@EA@logic_error@std@@8 DD FLAT:??_R0?AVlogic_error@std@@@8 ; std::logic_error::`RTTI Base Class Descriptor at (0,-1,0,64)'
	DD	01H
	DD	00H
	DD	0ffffffffH
	DD	00H
	DD	040H
	DD	FLAT:??_R3logic_error@std@@8
rdata$r	ENDS
;	COMDAT ??_R2logic_error@std@@8
rdata$r	SEGMENT
??_R2logic_error@std@@8 DD FLAT:??_R1A@?0A@EA@logic_error@std@@8 ; std::logic_error::`RTTI Base Class Array'
	DD	FLAT:??_R1A@?0A@EA@exception@std@@8
rdata$r	ENDS
;	COMDAT ??_R3logic_error@std@@8
rdata$r	SEGMENT
??_R3logic_error@std@@8 DD 00H				; std::logic_error::`RTTI Class Hierarchy Descriptor'
	DD	00H
	DD	02H
	DD	FLAT:??_R2logic_error@std@@8
rdata$r	ENDS
;	COMDAT ??_R0?AVlogic_error@std@@@8
_DATA	SEGMENT
??_R0?AVlogic_error@std@@@8 DD FLAT:??_7type_info@@6B@	; std::logic_error `RTTI Type Descriptor'
	DD	00H
	DB	'.?AVlogic_error@std@@', 00H
_DATA	ENDS
;	COMDAT ??_R4logic_error@std@@6B@
rdata$r	SEGMENT
??_R4logic_error@std@@6B@ DD 00H			; std::logic_error::`RTTI Complete Object Locator'
	DD	00H
	DD	00H
	DD	FLAT:??_R0?AVlogic_error@std@@@8
	DD	FLAT:??_R3logic_error@std@@8
rdata$r	ENDS
;	COMDAT ??_7logic_error@std@@6B@
CONST	SEGMENT
??_7logic_error@std@@6B@ DD FLAT:??_R4logic_error@std@@6B@ ; std::logic_error::`vftable'
	DD	FLAT:??_Elogic_error@std@@UAEPAXI@Z
	DD	FLAT:?what@logic_error@std@@UBEPBDXZ
CONST	ENDS
;	COMDAT xdata$x
xdata$x	SEGMENT
__unwindtable$??0logic_error@std@@QAE@ABV?$basic_string@DU?$char_traits@D@std@@V?$allocator@D@2@@1@@Z DD 0ffffffffH
	DD	FLAT:__unwindfunclet$??0logic_error@std@@QAE@ABV?$basic_string@DU?$char_traits@D@std@@V?$allocator@D@2@@1@@Z$0
__ehfuncinfo$??0logic_error@std@@QAE@ABV?$basic_string@DU?$char_traits@D@std@@V?$allocator@D@2@@1@@Z DD 019930522H
	DD	01H
	DD	FLAT:__unwindtable$??0logic_error@std@@QAE@ABV?$basic_string@DU?$char_traits@D@std@@V?$allocator@D@2@@1@@Z
	DD	2 DUP(00H)
	DD	2 DUP(00H)
	DD	00H
	DD	01H
; Function compile flags: /Ogtpy
xdata$x	ENDS
;	COMDAT ??0logic_error@std@@QAE@ABV?$basic_string@DU?$char_traits@D@std@@V?$allocator@D@2@@1@@Z
_TEXT	SEGMENT
_this$ = -16						; size = 4
__$EHRec$ = -12						; size = 12
__Message$ = 8						; size = 4
??0logic_error@std@@QAE@ABV?$basic_string@DU?$char_traits@D@std@@V?$allocator@D@2@@1@@Z PROC ; std::logic_error::logic_error, COMDAT
; _this$ = ecx

; 26   : 		{	// construct from message string

	push	-1
	push	__ehhandler$??0logic_error@std@@QAE@ABV?$basic_string@DU?$char_traits@D@std@@V?$allocator@D@2@@1@@Z
	mov	eax, DWORD PTR fs:0
	push	eax
	mov	DWORD PTR fs:0, esp
	push	ecx
	push	esi
	mov	esi, ecx
	mov	DWORD PTR _this$[esp+20], esi
	call	DWORD PTR __imp_??0exception@std@@QAE@XZ
	mov	eax, DWORD PTR __Message$[esp+16]
	push	eax
	lea	ecx, DWORD PTR [esi+12]
	mov	DWORD PTR __$EHRec$[esp+32], 0
	mov	DWORD PTR [esi], OFFSET ??_7logic_error@std@@6B@
	call	DWORD PTR __imp_??0?$basic_string@DU?$char_traits@D@std@@V?$allocator@D@2@@std@@QAE@ABV01@@Z

; 27   : 		}

	mov	ecx, DWORD PTR __$EHRec$[esp+20]
	mov	eax, esi
	pop	esi
	mov	DWORD PTR fs:0, ecx
	add	esp, 16					; 00000010H
	ret	4
_TEXT	ENDS
;	COMDAT text$x
text$x	SEGMENT
__unwindfunclet$??0logic_error@std@@QAE@ABV?$basic_string@DU?$char_traits@D@std@@V?$allocator@D@2@@1@@Z$0:
	mov	ecx, DWORD PTR _this$[ebp]
	jmp	DWORD PTR __imp_??1exception@std@@UAE@XZ
__ehhandler$??0logic_error@std@@QAE@ABV?$basic_string@DU?$char_traits@D@std@@V?$allocator@D@2@@1@@Z:
	mov	eax, OFFSET __ehfuncinfo$??0logic_error@std@@QAE@ABV?$basic_string@DU?$char_traits@D@std@@V?$allocator@D@2@@1@@Z
	jmp	___CxxFrameHandler3
text$x	ENDS
??0logic_error@std@@QAE@ABV?$basic_string@DU?$char_traits@D@std@@V?$allocator@D@2@@1@@Z ENDP ; std::logic_error::logic_error
PUBLIC	??1logic_error@std@@UAE@XZ			; std::logic_error::~logic_error
EXTRN	__imp_??1?$basic_string@DU?$char_traits@D@std@@V?$allocator@D@2@@std@@QAE@XZ:PROC
; Function compile flags: /Ogtpy
;	COMDAT ??1logic_error@std@@UAE@XZ
_TEXT	SEGMENT
??1logic_error@std@@UAE@XZ PROC				; std::logic_error::~logic_error, COMDAT
; _this$ = ecx

; 30   : 		{	// destroy the object

	push	esi
	mov	esi, ecx

; 31   : 		}

	lea	ecx, DWORD PTR [esi+12]
	mov	DWORD PTR [esi], OFFSET ??_7logic_error@std@@6B@
	call	DWORD PTR __imp_??1?$basic_string@DU?$char_traits@D@std@@V?$allocator@D@2@@std@@QAE@XZ
	mov	ecx, esi
	pop	esi
	jmp	DWORD PTR __imp_??1exception@std@@UAE@XZ
??1logic_error@std@@UAE@XZ ENDP				; std::logic_error::~logic_error
_TEXT	ENDS
EXTRN	__imp_?c_str@?$basic_string@DU?$char_traits@D@std@@V?$allocator@D@2@@std@@QBEPBDXZ:PROC
; Function compile flags: /Ogtpy
;	COMDAT ?what@logic_error@std@@UBEPBDXZ
_TEXT	SEGMENT
?what@logic_error@std@@UBEPBDXZ PROC			; std::logic_error::what, COMDAT
; _this$ = ecx

; 35   : 		return (_Str.c_str());

	add	ecx, 12					; 0000000cH
	jmp	DWORD PTR __imp_?c_str@?$basic_string@DU?$char_traits@D@std@@V?$allocator@D@2@@std@@QBEPBDXZ
?what@logic_error@std@@UBEPBDXZ ENDP			; std::logic_error::what
; Function compile flags: /Ogtpy
_TEXT	ENDS
;	COMDAT ??_Glogic_error@std@@UAEPAXI@Z
_TEXT	SEGMENT
___flags$ = 8						; size = 4
??_Glogic_error@std@@UAEPAXI@Z PROC			; std::logic_error::`scalar deleting destructor', COMDAT
; _this$ = ecx
	push	esi
	mov	esi, ecx
	lea	ecx, DWORD PTR [esi+12]
	mov	DWORD PTR [esi], OFFSET ??_7logic_error@std@@6B@
	call	DWORD PTR __imp_??1?$basic_string@DU?$char_traits@D@std@@V?$allocator@D@2@@std@@QAE@XZ
	mov	ecx, esi
	call	DWORD PTR __imp_??1exception@std@@UAE@XZ
	test	BYTE PTR ___flags$[esp], 1
	je	SHORT $LN6@scalar@2
	push	esi
	call	??3@YAXPAX@Z				; operator delete
	add	esp, 4
$LN6@scalar@2:
	mov	eax, esi
	pop	esi
	ret	4
??_Glogic_error@std@@UAEPAXI@Z ENDP			; std::logic_error::`scalar deleting destructor'
_TEXT	ENDS
PUBLIC	??_7length_error@std@@6B@			; std::length_error::`vftable'
PUBLIC	??0length_error@std@@QAE@ABV?$basic_string@DU?$char_traits@D@std@@V?$allocator@D@2@@1@@Z ; std::length_error::length_error
PUBLIC	??_R4length_error@std@@6B@			; std::length_error::`RTTI Complete Object Locator'
PUBLIC	??_R0?AVlength_error@std@@@8			; std::length_error `RTTI Type Descriptor'
PUBLIC	??_R3length_error@std@@8			; std::length_error::`RTTI Class Hierarchy Descriptor'
PUBLIC	??_R2length_error@std@@8			; std::length_error::`RTTI Base Class Array'
PUBLIC	??_R1A@?0A@EA@length_error@std@@8		; std::length_error::`RTTI Base Class Descriptor at (0,-1,0,64)'
EXTRN	??_Elength_error@std@@UAEPAXI@Z:PROC		; std::length_error::`vector deleting destructor'
;	COMDAT ??_R1A@?0A@EA@length_error@std@@8
rdata$r	SEGMENT
??_R1A@?0A@EA@length_error@std@@8 DD FLAT:??_R0?AVlength_error@std@@@8 ; std::length_error::`RTTI Base Class Descriptor at (0,-1,0,64)'
	DD	02H
	DD	00H
	DD	0ffffffffH
	DD	00H
	DD	040H
	DD	FLAT:??_R3length_error@std@@8
rdata$r	ENDS
;	COMDAT ??_R2length_error@std@@8
rdata$r	SEGMENT
??_R2length_error@std@@8 DD FLAT:??_R1A@?0A@EA@length_error@std@@8 ; std::length_error::`RTTI Base Class Array'
	DD	FLAT:??_R1A@?0A@EA@logic_error@std@@8
	DD	FLAT:??_R1A@?0A@EA@exception@std@@8
rdata$r	ENDS
;	COMDAT ??_R3length_error@std@@8
rdata$r	SEGMENT
??_R3length_error@std@@8 DD 00H				; std::length_error::`RTTI Class Hierarchy Descriptor'
	DD	00H
	DD	03H
	DD	FLAT:??_R2length_error@std@@8
rdata$r	ENDS
;	COMDAT ??_R0?AVlength_error@std@@@8
_DATA	SEGMENT
??_R0?AVlength_error@std@@@8 DD FLAT:??_7type_info@@6B@	; std::length_error `RTTI Type Descriptor'
	DD	00H
	DB	'.?AVlength_error@std@@', 00H
_DATA	ENDS
;	COMDAT ??_R4length_error@std@@6B@
rdata$r	SEGMENT
??_R4length_error@std@@6B@ DD 00H			; std::length_error::`RTTI Complete Object Locator'
	DD	00H
	DD	00H
	DD	FLAT:??_R0?AVlength_error@std@@@8
	DD	FLAT:??_R3length_error@std@@8
rdata$r	ENDS
;	COMDAT ??_7length_error@std@@6B@
CONST	SEGMENT
??_7length_error@std@@6B@ DD FLAT:??_R4length_error@std@@6B@ ; std::length_error::`vftable'
	DD	FLAT:??_Elength_error@std@@UAEPAXI@Z
	DD	FLAT:?what@logic_error@std@@UBEPBDXZ
; Function compile flags: /Ogtpy
CONST	ENDS
;	COMDAT ??0length_error@std@@QAE@ABV?$basic_string@DU?$char_traits@D@std@@V?$allocator@D@2@@1@@Z
_TEXT	SEGMENT
__Message$ = 8						; size = 4
??0length_error@std@@QAE@ABV?$basic_string@DU?$char_traits@D@std@@V?$allocator@D@2@@1@@Z PROC ; std::length_error::length_error, COMDAT
; _this$ = ecx

; 105  : 		{	// construct from message string

	mov	eax, DWORD PTR __Message$[esp-4]
	push	esi
	push	eax
	mov	esi, ecx
	call	??0logic_error@std@@QAE@ABV?$basic_string@DU?$char_traits@D@std@@V?$allocator@D@2@@1@@Z ; std::logic_error::logic_error
	mov	DWORD PTR [esi], OFFSET ??_7length_error@std@@6B@

; 106  : 		}

	mov	eax, esi
	pop	esi
	ret	4
??0length_error@std@@QAE@ABV?$basic_string@DU?$char_traits@D@std@@V?$allocator@D@2@@1@@Z ENDP ; std::length_error::length_error
_TEXT	ENDS
PUBLIC	??1length_error@std@@UAE@XZ			; std::length_error::~length_error
; Function compile flags: /Ogtpy
;	COMDAT ??1length_error@std@@UAE@XZ
_TEXT	SEGMENT
??1length_error@std@@UAE@XZ PROC			; std::length_error::~length_error, COMDAT
; _this$ = ecx

; 109  : 		{	// destroy the object

	push	esi
	mov	esi, ecx

; 110  : 		}

	lea	ecx, DWORD PTR [esi+12]
	mov	DWORD PTR [esi], OFFSET ??_7logic_error@std@@6B@
	call	DWORD PTR __imp_??1?$basic_string@DU?$char_traits@D@std@@V?$allocator@D@2@@std@@QAE@XZ
	mov	ecx, esi
	pop	esi
	jmp	DWORD PTR __imp_??1exception@std@@UAE@XZ
??1length_error@std@@UAE@XZ ENDP			; std::length_error::~length_error
; Function compile flags: /Ogtpy
_TEXT	ENDS
;	COMDAT ??_Glength_error@std@@UAEPAXI@Z
_TEXT	SEGMENT
___flags$ = 8						; size = 4
??_Glength_error@std@@UAEPAXI@Z PROC			; std::length_error::`scalar deleting destructor', COMDAT
; _this$ = ecx
	push	esi
	mov	esi, ecx
	lea	ecx, DWORD PTR [esi+12]
	mov	DWORD PTR [esi], OFFSET ??_7logic_error@std@@6B@
	call	DWORD PTR __imp_??1?$basic_string@DU?$char_traits@D@std@@V?$allocator@D@2@@std@@QAE@XZ
	mov	ecx, esi
	call	DWORD PTR __imp_??1exception@std@@UAE@XZ
	test	BYTE PTR ___flags$[esp], 1
	je	SHORT $LN8@scalar@3
	push	esi
	call	??3@YAXPAX@Z				; operator delete
	add	esp, 4
$LN8@scalar@3:
	mov	eax, esi
	pop	esi
	ret	4
??_Glength_error@std@@UAEPAXI@Z ENDP			; std::length_error::`scalar deleting destructor'
_TEXT	ENDS
PUBLIC	??_7out_of_range@std@@6B@			; std::out_of_range::`vftable'
PUBLIC	??0out_of_range@std@@QAE@ABV?$basic_string@DU?$char_traits@D@std@@V?$allocator@D@2@@1@@Z ; std::out_of_range::out_of_range
PUBLIC	??_R4out_of_range@std@@6B@			; std::out_of_range::`RTTI Complete Object Locator'
PUBLIC	??_R0?AVout_of_range@std@@@8			; std::out_of_range `RTTI Type Descriptor'
PUBLIC	??_R3out_of_range@std@@8			; std::out_of_range::`RTTI Class Hierarchy Descriptor'
PUBLIC	??_R2out_of_range@std@@8			; std::out_of_range::`RTTI Base Class Array'
PUBLIC	??_R1A@?0A@EA@out_of_range@std@@8		; std::out_of_range::`RTTI Base Class Descriptor at (0,-1,0,64)'
EXTRN	??_Eout_of_range@std@@UAEPAXI@Z:PROC		; std::out_of_range::`vector deleting destructor'
;	COMDAT ??_R1A@?0A@EA@out_of_range@std@@8
rdata$r	SEGMENT
??_R1A@?0A@EA@out_of_range@std@@8 DD FLAT:??_R0?AVout_of_range@std@@@8 ; std::out_of_range::`RTTI Base Class Descriptor at (0,-1,0,64)'
	DD	02H
	DD	00H
	DD	0ffffffffH
	DD	00H
	DD	040H
	DD	FLAT:??_R3out_of_range@std@@8
rdata$r	ENDS
;	COMDAT ??_R2out_of_range@std@@8
rdata$r	SEGMENT
??_R2out_of_range@std@@8 DD FLAT:??_R1A@?0A@EA@out_of_range@std@@8 ; std::out_of_range::`RTTI Base Class Array'
	DD	FLAT:??_R1A@?0A@EA@logic_error@std@@8
	DD	FLAT:??_R1A@?0A@EA@exception@std@@8
rdata$r	ENDS
;	COMDAT ??_R3out_of_range@std@@8
rdata$r	SEGMENT
??_R3out_of_range@std@@8 DD 00H				; std::out_of_range::`RTTI Class Hierarchy Descriptor'
	DD	00H
	DD	03H
	DD	FLAT:??_R2out_of_range@std@@8
rdata$r	ENDS
;	COMDAT ??_R0?AVout_of_range@std@@@8
_DATA	SEGMENT
??_R0?AVout_of_range@std@@@8 DD FLAT:??_7type_info@@6B@	; std::out_of_range `RTTI Type Descriptor'
	DD	00H
	DB	'.?AVout_of_range@std@@', 00H
_DATA	ENDS
;	COMDAT ??_R4out_of_range@std@@6B@
rdata$r	SEGMENT
??_R4out_of_range@std@@6B@ DD 00H			; std::out_of_range::`RTTI Complete Object Locator'
	DD	00H
	DD	00H
	DD	FLAT:??_R0?AVout_of_range@std@@@8
	DD	FLAT:??_R3out_of_range@std@@8
rdata$r	ENDS
;	COMDAT ??_7out_of_range@std@@6B@
CONST	SEGMENT
??_7out_of_range@std@@6B@ DD FLAT:??_R4out_of_range@std@@6B@ ; std::out_of_range::`vftable'
	DD	FLAT:??_Eout_of_range@std@@UAEPAXI@Z
	DD	FLAT:?what@logic_error@std@@UBEPBDXZ
; Function compile flags: /Ogtpy
CONST	ENDS
;	COMDAT ??0out_of_range@std@@QAE@ABV?$basic_string@DU?$char_traits@D@std@@V?$allocator@D@2@@1@@Z
_TEXT	SEGMENT
__Message$ = 8						; size = 4
??0out_of_range@std@@QAE@ABV?$basic_string@DU?$char_traits@D@std@@V?$allocator@D@2@@1@@Z PROC ; std::out_of_range::out_of_range, COMDAT
; _this$ = ecx

; 129  : 		{	// construct from message string

	mov	eax, DWORD PTR __Message$[esp-4]
	push	esi
	push	eax
	mov	esi, ecx
	call	??0logic_error@std@@QAE@ABV?$basic_string@DU?$char_traits@D@std@@V?$allocator@D@2@@1@@Z ; std::logic_error::logic_error
	mov	DWORD PTR [esi], OFFSET ??_7out_of_range@std@@6B@

; 130  : 		}

	mov	eax, esi
	pop	esi
	ret	4
??0out_of_range@std@@QAE@ABV?$basic_string@DU?$char_traits@D@std@@V?$allocator@D@2@@1@@Z ENDP ; std::out_of_range::out_of_range
_TEXT	ENDS
PUBLIC	??1out_of_range@std@@UAE@XZ			; std::out_of_range::~out_of_range
; Function compile flags: /Ogtpy
;	COMDAT ??1out_of_range@std@@UAE@XZ
_TEXT	SEGMENT
??1out_of_range@std@@UAE@XZ PROC			; std::out_of_range::~out_of_range, COMDAT
; _this$ = ecx

; 133  : 		{	// destroy the object

	push	esi
	mov	esi, ecx

; 134  : 		}

	lea	ecx, DWORD PTR [esi+12]
	mov	DWORD PTR [esi], OFFSET ??_7logic_error@std@@6B@
	call	DWORD PTR __imp_??1?$basic_string@DU?$char_traits@D@std@@V?$allocator@D@2@@std@@QAE@XZ
	mov	ecx, esi
	pop	esi
	jmp	DWORD PTR __imp_??1exception@std@@UAE@XZ
??1out_of_range@std@@UAE@XZ ENDP			; std::out_of_range::~out_of_range
; Function compile flags: /Ogtpy
_TEXT	ENDS
;	COMDAT ??_Gout_of_range@std@@UAEPAXI@Z
_TEXT	SEGMENT
___flags$ = 8						; size = 4
??_Gout_of_range@std@@UAEPAXI@Z PROC			; std::out_of_range::`scalar deleting destructor', COMDAT
; _this$ = ecx
	push	esi
	mov	esi, ecx
	lea	ecx, DWORD PTR [esi+12]
	mov	DWORD PTR [esi], OFFSET ??_7logic_error@std@@6B@
	call	DWORD PTR __imp_??1?$basic_string@DU?$char_traits@D@std@@V?$allocator@D@2@@std@@QAE@XZ
	mov	ecx, esi
	call	DWORD PTR __imp_??1exception@std@@UAE@XZ
	test	BYTE PTR ___flags$[esp], 1
	je	SHORT $LN8@scalar@4
	push	esi
	call	??3@YAXPAX@Z				; operator delete
	add	esp, 4
$LN8@scalar@4:
	mov	eax, esi
	pop	esi
	ret	4
??_Gout_of_range@std@@UAEPAXI@Z ENDP			; std::out_of_range::`scalar deleting destructor'
_TEXT	ENDS
PUBLIC	?nukeExplosion@CvPlot@@QAEXHPAVCvUnit@@@Z	; CvPlot::nukeExplosion
EXTRN	?ApplyNuclearExplosionDamage@CvUnitCombat@@SAIPAVCvPlot@@HPAVCvUnit@@@Z:PROC ; CvUnitCombat::ApplyNuclearExplosionDamage
; Function compile flags: /Ogtpy
; File c:\users\enormousapplepie\documents\github\lekmod\lekmod_dll\cvgamecoredll_expansion2\cvplot.cpp
;	COMDAT ?nukeExplosion@CvPlot@@QAEXHPAVCvUnit@@@Z
_TEXT	SEGMENT
_iDamageLevel$ = 8					; size = 4
___formal$ = 12						; size = 4
?nukeExplosion@CvPlot@@QAEXHPAVCvUnit@@@Z PROC		; CvPlot::nukeExplosion, COMDAT
; _this$ = ecx

; 822  : 	CvUnitCombat::ApplyNuclearExplosionDamage(this, iDamageLevel);

	mov	eax, DWORD PTR _iDamageLevel$[esp-4]
	push	0
	push	eax
	push	ecx
	call	?ApplyNuclearExplosionDamage@CvUnitCombat@@SAIPAVCvPlot@@HPAVCvUnit@@@Z ; CvUnitCombat::ApplyNuclearExplosionDamage
	add	esp, 12					; 0000000cH

; 823  : }

	ret	8
?nukeExplosion@CvPlot@@QAEXHPAVCvUnit@@@Z ENDP		; CvPlot::nukeExplosion
_TEXT	ENDS
PUBLIC	__real@4000000000000000
PUBLIC	__real@c000000000000000
PUBLIC	__real@4056800000000000
PUBLIC	__real@4066800000000000
PUBLIC	__real@4052c00000000000
PUBLIC	__real@400921fb54442d18
PUBLIC	?shouldProcessDisplacementPlot@CvPlot@@QBE_NHHHW4DirectionTypes@@@Z ; CvPlot::shouldProcessDisplacementPlot
EXTRN	_atan2:PROC
EXTRN	__fltused:DWORD
;	COMDAT __real@4000000000000000
CONST	SEGMENT
__real@4000000000000000 DQ 04000000000000000r	; 2
CONST	ENDS
;	COMDAT __real@c000000000000000
CONST	SEGMENT
__real@c000000000000000 DQ 0c000000000000000r	; -2
CONST	ENDS
;	COMDAT __real@4056800000000000
CONST	SEGMENT
__real@4056800000000000 DQ 04056800000000000r	; 90
CONST	ENDS
;	COMDAT __real@4066800000000000
CONST	SEGMENT
__real@4066800000000000 DQ 04066800000000000r	; 180
CONST	ENDS
;	COMDAT __real@4052c00000000000
CONST	SEGMENT
__real@4052c00000000000 DQ 04052c00000000000r	; 75
CONST	ENDS
;	COMDAT __real@400921fb54442d18
CONST	SEGMENT
__real@400921fb54442d18 DQ 0400921fb54442d18r	; 3.14159
; Function compile flags: /Ogtpy
CONST	ENDS
;	COMDAT ?shouldProcessDisplacementPlot@CvPlot@@QBE_NHHHW4DirectionTypes@@@Z
_TEXT	SEGMENT
_theta$223221 = -112					; size = 8
_crossProduct$223219 = -112				; size = 8
_directionX$223217 = -112				; size = 8
_spread$223222 = -104					; size = 8
_dotProduct$223220 = -104				; size = 8
_directionY$223218 = -104				; size = 8
_displacements$223216 = -96				; size = 96
_dx$ = 8						; size = 4
_dy$ = 12						; size = 4
___formal$ = 16						; size = 4
_eFacingDirection$ = 20					; size = 4
?shouldProcessDisplacementPlot@CvPlot@@QBE_NHHHW4DirectionTypes@@@Z PROC ; CvPlot::shouldProcessDisplacementPlot, COMDAT
; _this$ = ecx

; 1761 : {

	push	ebp
	mov	ebp, esp
	and	esp, -64				; ffffffc0H

; 1762 : 	if(eFacingDirection == NO_DIRECTION)

	mov	ecx, DWORD PTR _eFacingDirection$[ebp]
	sub	esp, 120				; 00000078H
	push	ebx
	push	esi
	cmp	ecx, -1

; 1763 : 	{
; 1764 : 		return true;

	je	$LN19@shouldProc

; 1765 : 	}
; 1766 : 	else if((dx == 0) && (dy == 0)) //always process this plot

	mov	esi, DWORD PTR _dx$[ebp]
	mov	ebx, DWORD PTR _dy$[ebp]
	xor	eax, eax
	cmp	esi, eax
	jne	SHORT $LN5@shouldProc
	cmp	ebx, eax

; 1767 : 	{
; 1768 : 		return true;

	je	$LN19@shouldProc
$LN5@shouldProc:

; 1769 : 	}
; 1770 : 	else
; 1771 : 	{
; 1772 : 		//							NE					E		SE					SW					W		NW
; 1773 : 		double displacements[6][2] = { {0.5f, 0.866025f}, {1, 0}, {0.5f, -0.866025f}, {-0.5f, -0.866025f}, {-1, 0}, {-0.5f, -0.866025f}};
; 1774 : 
; 1775 : 		double directionX = displacements[eFacingDirection][0];
; 1776 : 		double directionY = displacements[eFacingDirection][1];
; 1777 : 
; 1778 : 		//compute angle off of direction
; 1779 : 		double crossProduct = directionX * dy - directionY * dx; //cross product

	fild	DWORD PTR _dy$[ebp]
	mov	DWORD PTR _displacements$223216[esp+128], eax
	mov	DWORD PTR _displacements$223216[esp+136], eax
	mov	DWORD PTR _displacements$223216[esp+144], eax
	mov	DWORD PTR _displacements$223216[esp+152], eax
	mov	DWORD PTR _displacements$223216[esp+156], eax
	mov	DWORD PTR _displacements$223216[esp+160], eax
	mov	DWORD PTR _displacements$223216[esp+168], eax
	mov	DWORD PTR _displacements$223216[esp+176], eax
	mov	DWORD PTR _displacements$223216[esp+184], eax
	mov	DWORD PTR _displacements$223216[esp+192], eax
	mov	DWORD PTR _displacements$223216[esp+200], eax
	mov	DWORD PTR _displacements$223216[esp+204], eax
	mov	DWORD PTR _displacements$223216[esp+208], eax
	mov	DWORD PTR _displacements$223216[esp+216], eax
	shl	ecx, 4
	mov	eax, ecx
	mov	edx, 1071644672				; 3fe00000H
	mov	DWORD PTR _displacements$223216[esp+132], edx
	mov	DWORD PTR _displacements$223216[esp+164], edx
	mov	edx, -1075071366			; bfebb67aH
	mov	DWORD PTR _displacements$223216[esp+172], edx
	mov	DWORD PTR _displacements$223216[esp+188], edx
	mov	DWORD PTR _displacements$223216[esp+220], edx
	mov	DWORD PTR _displacements$223216[esp+140], 1072412282 ; 3febb67aH
	mov	DWORD PTR _displacements$223216[esp+148], 1072693248 ; 3ff00000H
	mov	DWORD PTR _displacements$223216[esp+180], -1075838976 ; bfe00000H
	mov	DWORD PTR _displacements$223216[esp+196], -1074790400 ; bff00000H
	mov	DWORD PTR _displacements$223216[esp+212], -1075838976 ; bfe00000H
	mov	ecx, DWORD PTR _displacements$223216[esp+eax+128]
	mov	edx, DWORD PTR _displacements$223216[esp+eax+132]
	mov	DWORD PTR _directionX$223217[esp+128], ecx
	mov	ecx, DWORD PTR _displacements$223216[esp+eax+136]
	mov	DWORD PTR _directionX$223217[esp+132], edx
	mov	edx, DWORD PTR _displacements$223216[esp+eax+140]
	fld	QWORD PTR _directionX$223217[esp+128]
	fmul	ST(1), ST(0)
	mov	DWORD PTR _directionY$223218[esp+128], ecx
	fild	DWORD PTR _dx$[ebp]
	mov	DWORD PTR _directionY$223218[esp+132], edx
	fld	QWORD PTR _directionY$223218[esp+128]

; 1780 : 		double dotProduct = directionX * dx + directionY * dy; //dot product
; 1781 : 
; 1782 : #ifdef AUI_PLOT_VISIBILITY_OPTIMIZATIONS
; 1783 : 		double theta = abs(atan2(crossProduct, dotProduct));
; 1784 : 		double spread = 37.5 * M_PI / 180.0;
; 1785 : #if 0 // Enable if 8 or more directions
; 1786 : 		if ((abs(dx) <= 1) && (abs(dy) <= 1)) //close plots use wider spread
; 1787 : 		{
; 1788 : 			spread = 90 * (double)M_PI / 180;
; 1789 : 		}
; 1790 : #endif
; 1791 : 
; 1792 : 		if (theta <= spread)
; 1793 : 			return true;
; 1794 : 		else
; 1795 : 			return false;
; 1796 : #else
; 1797 : 		double theta = atan2(crossProduct, dotProduct);

	sub	esp, 8
	mov	eax, esp
	fmul	ST(1), ST(0)
	sub	esp, 8
	fxch	ST(3)
	fsubrp	ST(1), ST(0)
	fstp	QWORD PTR _crossProduct$223219[esp+144]
	fild	DWORD PTR _dy$[ebp]
	fmulp	ST(2), ST(0)
	fimul	DWORD PTR _dx$[ebp]
	faddp	ST(1), ST(0)
	fstp	QWORD PTR _dotProduct$223220[esp+144]
	mov	ecx, DWORD PTR _dotProduct$223220[esp+144]
	mov	edx, DWORD PTR _dotProduct$223220[esp+148]
	mov	DWORD PTR [eax], ecx
	mov	ecx, DWORD PTR _crossProduct$223219[esp+144]
	mov	DWORD PTR [eax+4], edx
	mov	edx, DWORD PTR _crossProduct$223219[esp+148]
	mov	eax, esp
	mov	DWORD PTR [eax], ecx
	mov	DWORD PTR [eax+4], edx
	call	_atan2
	fstp	QWORD PTR _theta$223221[esp+144]

; 1798 : 		double spread = 75 * (double) M_PI / 180;

	fld	QWORD PTR __real@400921fb54442d18

; 1799 : 		if((abs(dx) <= 1) && (abs(dy) <= 1)) //close plots use wider spread

	mov	eax, esi
	fld	QWORD PTR __real@4052c00000000000
	cdq
	fmul	ST(0), ST(1)
	xor	eax, edx
	fld	QWORD PTR __real@4066800000000000
	sub	eax, edx
	add	esp, 16					; 00000010H
	cmp	eax, 1
	fdiv	ST(1), ST(0)
	fxch	ST(1)
	fstp	QWORD PTR _spread$223222[esp+128]
	jg	SHORT $LN14@shouldProc
	mov	eax, ebx
	cdq
	xor	eax, edx
	sub	eax, edx
	cmp	eax, 1
	jg	SHORT $LN14@shouldProc

; 1800 : 		{
; 1801 : 			spread = 90 * (double) M_PI / 180;

	fxch	ST(1)
	fmul	QWORD PTR __real@4056800000000000
	fdivrp	ST(1), ST(0)
	fstp	QWORD PTR _spread$223222[esp+128]
	jmp	SHORT $LN3@shouldProc
$LN14@shouldProc:

; 1799 : 		if((abs(dx) <= 1) && (abs(dy) <= 1)) //close plots use wider spread

	fstp	ST(1)
	fstp	ST(0)
$LN3@shouldProc:

; 1802 : 		}
; 1803 : 
; 1804 : 		if((theta >= -spread / 2) && (theta <= spread / 2))

	fld	QWORD PTR _spread$223222[esp+128]
	fld	QWORD PTR __real@c000000000000000
	fdivr	ST(0), ST(1)
	fld	QWORD PTR _theta$223221[esp+128]
	fcom	ST(1)
	fnstsw	ax
	fstp	ST(1)
	test	ah, 1
	jne	SHORT $LN17@shouldProc
	fxch	ST(1)
	fdiv	QWORD PTR __real@4000000000000000
	fcompp
	fnstsw	ax
	test	ah, 1
	jne	SHORT $LN2@shouldProc
$LN19@shouldProc:

; 1805 : 		{
; 1806 : 			return true;

	mov	al, 1

; 1807 : 		}
; 1808 : 		else
; 1809 : 		{
; 1810 : 			return false;
; 1811 : 		}
; 1812 : #endif
; 1813 : 	}
; 1814 : }

	pop	esi
	pop	ebx
	mov	esp, ebp
	pop	ebp
	ret	16					; 00000010H
$LN17@shouldProc:

; 1802 : 		}
; 1803 : 
; 1804 : 		if((theta >= -spread / 2) && (theta <= spread / 2))

	fstp	ST(1)
	fstp	ST(0)
$LN2@shouldProc:

; 1807 : 		}
; 1808 : 		else
; 1809 : 		{
; 1810 : 			return false;
; 1811 : 		}
; 1812 : #endif
; 1813 : 	}
; 1814 : }

	pop	esi
	xor	al, al
	pop	ebx
	mov	esp, ebp
	pop	ebp
	ret	16					; 00000010H
?shouldProcessDisplacementPlot@CvPlot@@QBE_NHHHW4DirectionTypes@@@Z ENDP ; CvPlot::shouldProcessDisplacementPlot
_TEXT	ENDS
PUBLIC	?abs@@YANN@Z					; abs
EXTRN	_fabs:PROC
; Function compile flags: /Ogtpy
; File c:\program files (x86)\microsoft visual studio 9.0\vc\include\math.h
;	COMDAT ?abs@@YANN@Z
_TEXT	SEGMENT
$T229983 = -8						; size = 8
__X$ = 8						; size = 8
?abs@@YANN@Z PROC					; abs, COMDAT

; 488  :         {return (fabs(_X)); }

	sub	esp, 8
	mov	ecx, DWORD PTR __X$[esp+4]
	mov	edx, DWORD PTR __X$[esp+8]
	sub	esp, 8
	mov	eax, esp
	mov	DWORD PTR [eax], ecx
	mov	DWORD PTR [eax+4], edx
	call	_fabs
	fstp	QWORD PTR $T229983[esp+16]
	fld	QWORD PTR $T229983[esp+16]
	add	esp, 16					; 00000010H
	ret	0
?abs@@YANN@Z ENDP					; abs
_TEXT	ENDS
EXTRN	?getTeam@CvUnit@@QBE?AW4TeamTypes@@XZ:PROC	; CvUnit::getTeam
EXTRN	?canCoexistWithEnemyUnit@CvUnit@@QBE_NW4TeamTypes@@@Z:PROC ; CvUnit::canCoexistWithEnemyUnit
; Function compile flags: /Ogtpy
; File c:\users\enormousapplepie\documents\github\lekmod\lekmod_dll\cvgamecoredll_expansion2\cvplot.cpp
;	COMDAT ?isOtherTeam@@YA_NPBVCvUnit@@W4TeamTypes@@@Z
_TEXT	SEGMENT
?isOtherTeam@@YA_NPBVCvUnit@@W4TeamTypes@@@Z PROC	; isOtherTeam, COMDAT
; _pUnit$ = edi
; _eOtherTeam$ = esi

; 3833 : 	if(pUnit->canCoexistWithEnemyUnit(eOtherTeam))

	push	esi
	mov	ecx, edi
	call	?canCoexistWithEnemyUnit@CvUnit@@QBE_NW4TeamTypes@@@Z ; CvUnit::canCoexistWithEnemyUnit
	test	al, al
	je	SHORT $LN1@isOtherTea

; 3834 : 	{
; 3835 : 		return false;

	xor	al, al

; 3839 : }

	ret	0
$LN1@isOtherTea:

; 3836 : 	}
; 3837 : 
; 3838 : 	return (pUnit->getTeam() != eOtherTeam);

	mov	ecx, edi
	call	?getTeam@CvUnit@@QBE?AW4TeamTypes@@XZ	; CvUnit::getTeam
	xor	ecx, ecx
	cmp	eax, esi
	setne	cl
	mov	al, cl

; 3839 : }

	ret	0
?isOtherTeam@@YA_NPBVCvUnit@@W4TeamTypes@@@Z ENDP	; isOtherTeam
_TEXT	ENDS
PUBLIC	?isRoute@CvPlot@@QBE_NXZ			; CvPlot::isRoute
; Function compile flags: /Ogtpy
;	COMDAT ?isRoute@CvPlot@@QBE_NXZ
_TEXT	SEGMENT
?isRoute@CvPlot@@QBE_NXZ PROC				; CvPlot::isRoute, COMDAT
; _this$ = ecx

; 4379 : 	return ((RouteTypes)m_eRouteType != NO_ROUTE);

	xor	eax, eax
	cmp	BYTE PTR [ecx+447], -1
	setne	al

; 4380 : }

	ret	0
?isRoute@CvPlot@@QBE_NXZ ENDP				; CvPlot::isRoute
_TEXT	ENDS
PUBLIC	?IsTradeRoute@CvPlot@@QBE_NW4PlayerTypes@@@Z	; CvPlot::IsTradeRoute
; Function compile flags: /Ogtpy
;	COMDAT ?IsTradeRoute@CvPlot@@QBE_NW4PlayerTypes@@@Z
_TEXT	SEGMENT
_ePlayer$ = 8						; size = 4
?IsTradeRoute@CvPlot@@QBE_NW4PlayerTypes@@@Z PROC	; CvPlot::IsTradeRoute, COMDAT
; _this$ = ecx

; 4443 : {

	mov	eax, ecx

; 4444 : 	if(ePlayer == NO_PLAYER)

	mov	ecx, DWORD PTR _ePlayer$[esp-4]
	cmp	ecx, -1
	jne	SHORT $LN5@IsTradeRou

; 4445 : 	{
; 4446 : 		if(m_uiTradeRouteBitFlags > 0)

	cmp	DWORD PTR [eax+388], 0
	seta	al

; 4455 : 		{
; 4456 : 			return true;
; 4457 : 		}
; 4458 : 		else
; 4459 : 		{
; 4460 : 			return false;
; 4461 : 		}
; 4462 : 	}
; 4463 : 
; 4464 : 	return false;
; 4465 : }

	ret	4
$LN5@IsTradeRou:

; 4447 : 		{
; 4448 : 			return true;
; 4449 : 		}
; 4450 : 	}
; 4451 : 	else
; 4452 : 	{
; 4453 : 		uint uiNewBitValue = (1 << ePlayer);

	mov	edx, 1
	shl	edx, cl

; 4454 : 		if(m_uiTradeRouteBitFlags & uiNewBitValue)

	test	edx, DWORD PTR [eax+388]
	setne	al

; 4455 : 		{
; 4456 : 			return true;
; 4457 : 		}
; 4458 : 		else
; 4459 : 		{
; 4460 : 			return false;
; 4461 : 		}
; 4462 : 	}
; 4463 : 
; 4464 : 	return false;
; 4465 : }

	ret	4
?IsTradeRoute@CvPlot@@QBE_NW4PlayerTypes@@@Z ENDP	; CvPlot::IsTradeRoute
_TEXT	ENDS
PUBLIC	?getFeatureVariety@CvPlot@@QBEHXZ		; CvPlot::getFeatureVariety
; Function compile flags: /Ogtpy
;	COMDAT ?getFeatureVariety@CvPlot@@QBEHXZ
_TEXT	SEGMENT
?getFeatureVariety@CvPlot@@QBEHXZ PROC			; CvPlot::getFeatureVariety, COMDAT
; _this$ = ecx

; 4678 : 	return m_iFeatureVariety;

	movsx	eax, BYTE PTR [ecx+453]

; 4679 : }

	ret	0
?getFeatureVariety@CvPlot@@QBEHXZ ENDP			; CvPlot::getFeatureVariety
_TEXT	ENDS
PUBLIC	?getOwnershipDuration@CvPlot@@QBEHXZ		; CvPlot::getOwnershipDuration
; Function compile flags: /Ogtpy
;	COMDAT ?getOwnershipDuration@CvPlot@@QBEHXZ
_TEXT	SEGMENT
?getOwnershipDuration@CvPlot@@QBEHXZ PROC		; CvPlot::getOwnershipDuration, COMDAT
; _this$ = ecx

; 4685 : 	return m_iOwnershipDuration;

	movsx	eax, WORD PTR [ecx+380]

; 4686 : }

	ret	0
?getOwnershipDuration@CvPlot@@QBEHXZ ENDP		; CvPlot::getOwnershipDuration
_TEXT	ENDS
PUBLIC	?getImprovementDuration@CvPlot@@QBEHXZ		; CvPlot::getImprovementDuration
; Function compile flags: /Ogtpy
;	COMDAT ?getImprovementDuration@CvPlot@@QBEHXZ
_TEXT	SEGMENT
?getImprovementDuration@CvPlot@@QBEHXZ PROC		; CvPlot::getImprovementDuration, COMDAT
; _this$ = ecx

; 4732 : 	return m_iImprovementDuration;

	movsx	eax, WORD PTR [ecx+382]

; 4733 : }

	ret	0
?getImprovementDuration@CvPlot@@QBEHXZ ENDP		; CvPlot::getImprovementDuration
_TEXT	ENDS
PUBLIC	?setImprovementDuration@CvPlot@@QAEXH@Z		; CvPlot::setImprovementDuration
; Function compile flags: /Ogtpy
;	COMDAT ?setImprovementDuration@CvPlot@@QAEXH@Z
_TEXT	SEGMENT
_iNewValue$ = 8						; size = 4
?setImprovementDuration@CvPlot@@QAEXH@Z PROC		; CvPlot::setImprovementDuration, COMDAT
; _this$ = ecx

; 4739 : 	m_iImprovementDuration = iNewValue;

	mov	ax, WORD PTR _iNewValue$[esp-4]
	mov	WORD PTR [ecx+382], ax

; 4740 : 	CvAssert(getImprovementDuration() >= 0);
; 4741 : }

	ret	4
?setImprovementDuration@CvPlot@@QAEXH@Z ENDP		; CvPlot::setImprovementDuration
_TEXT	ENDS
PUBLIC	?changeImprovementDuration@CvPlot@@QAEXH@Z	; CvPlot::changeImprovementDuration
; Function compile flags: /Ogtpy
;	COMDAT ?changeImprovementDuration@CvPlot@@QAEXH@Z
_TEXT	SEGMENT
_iChange$ = 8						; size = 4
?changeImprovementDuration@CvPlot@@QAEXH@Z PROC		; CvPlot::changeImprovementDuration, COMDAT
; _this$ = ecx

; 4747 : 	setImprovementDuration(getImprovementDuration() + iChange);

	mov	ax, WORD PTR _iChange$[esp-4]
	add	WORD PTR [ecx+382], ax

; 4748 : }

	ret	4
?changeImprovementDuration@CvPlot@@QAEXH@Z ENDP		; CvPlot::changeImprovementDuration
_TEXT	ENDS
PUBLIC	?getUpgradeProgress@CvPlot@@QBEHXZ		; CvPlot::getUpgradeProgress
; Function compile flags: /Ogtpy
;	COMDAT ?getUpgradeProgress@CvPlot@@QBEHXZ
_TEXT	SEGMENT
?getUpgradeProgress@CvPlot@@QBEHXZ PROC			; CvPlot::getUpgradeProgress, COMDAT
; _this$ = ecx

; 4754 : 	return m_iUpgradeProgress;

	movsx	eax, WORD PTR [ecx+384]

; 4755 : }

	ret	0
?getUpgradeProgress@CvPlot@@QBEHXZ ENDP			; CvPlot::getUpgradeProgress
_TEXT	ENDS
PUBLIC	?setUpgradeProgress@CvPlot@@QAEXH@Z		; CvPlot::setUpgradeProgress
; Function compile flags: /Ogtpy
;	COMDAT ?setUpgradeProgress@CvPlot@@QAEXH@Z
_TEXT	SEGMENT
_iNewValue$ = 8						; size = 4
?setUpgradeProgress@CvPlot@@QAEXH@Z PROC		; CvPlot::setUpgradeProgress, COMDAT
; _this$ = ecx

; 4795 : 	m_iUpgradeProgress = iNewValue;

	mov	ax, WORD PTR _iNewValue$[esp-4]
	mov	WORD PTR [ecx+384], ax

; 4796 : 	CvAssert(getUpgradeProgress() >= 0);
; 4797 : }

	ret	4
?setUpgradeProgress@CvPlot@@QAEXH@Z ENDP		; CvPlot::setUpgradeProgress
_TEXT	ENDS
PUBLIC	?changeUpgradeProgress@CvPlot@@QAEXH@Z		; CvPlot::changeUpgradeProgress
; Function compile flags: /Ogtpy
;	COMDAT ?changeUpgradeProgress@CvPlot@@QAEXH@Z
_TEXT	SEGMENT
_iChange$ = 8						; size = 4
?changeUpgradeProgress@CvPlot@@QAEXH@Z PROC		; CvPlot::changeUpgradeProgress, COMDAT
; _this$ = ecx

; 4803 : 	setUpgradeProgress(getUpgradeProgress() + iChange);

	mov	ax, WORD PTR _iChange$[esp-4]
	add	WORD PTR [ecx+384], ax

; 4804 : }

	ret	4
?changeUpgradeProgress@CvPlot@@QAEXH@Z ENDP		; CvPlot::changeUpgradeProgress
_TEXT	ENDS
PUBLIC	?getNumMajorCivsRevealed@CvPlot@@QBEHXZ		; CvPlot::getNumMajorCivsRevealed
; Function compile flags: /Ogtpy
;	COMDAT ?getNumMajorCivsRevealed@CvPlot@@QBEHXZ
_TEXT	SEGMENT
?getNumMajorCivsRevealed@CvPlot@@QBEHXZ PROC		; CvPlot::getNumMajorCivsRevealed, COMDAT
; _this$ = ecx

; 4830 : 	return m_iNumMajorCivsRevealed;

	movsx	eax, BYTE PTR [ecx+454]

; 4831 : }

	ret	0
?getNumMajorCivsRevealed@CvPlot@@QBEHXZ ENDP		; CvPlot::getNumMajorCivsRevealed
_TEXT	ENDS
PUBLIC	?setNumMajorCivsRevealed@CvPlot@@QAEXH@Z	; CvPlot::setNumMajorCivsRevealed
; Function compile flags: /Ogtpy
;	COMDAT ?setNumMajorCivsRevealed@CvPlot@@QAEXH@Z
_TEXT	SEGMENT
_iNewValue$ = 8						; size = 4
?setNumMajorCivsRevealed@CvPlot@@QAEXH@Z PROC		; CvPlot::setNumMajorCivsRevealed, COMDAT
; _this$ = ecx

; 4836 : 	m_iNumMajorCivsRevealed = iNewValue;

	mov	al, BYTE PTR _iNewValue$[esp-4]
	mov	BYTE PTR [ecx+454], al

; 4837 : 	CvAssert(getNumMajorCivsRevealed() >= 0);
; 4838 : }

	ret	4
?setNumMajorCivsRevealed@CvPlot@@QAEXH@Z ENDP		; CvPlot::setNumMajorCivsRevealed
_TEXT	ENDS
PUBLIC	?changeNumMajorCivsRevealed@CvPlot@@QAEXH@Z	; CvPlot::changeNumMajorCivsRevealed
; Function compile flags: /Ogtpy
;	COMDAT ?changeNumMajorCivsRevealed@CvPlot@@QAEXH@Z
_TEXT	SEGMENT
_iChange$ = 8						; size = 4
?changeNumMajorCivsRevealed@CvPlot@@QAEXH@Z PROC	; CvPlot::changeNumMajorCivsRevealed, COMDAT
; _this$ = ecx

; 4844 : 	setNumMajorCivsRevealed(getNumMajorCivsRevealed() + iChange);

	mov	al, BYTE PTR _iChange$[esp-4]
	add	BYTE PTR [ecx+454], al

; 4845 : }

	ret	4
?changeNumMajorCivsRevealed@CvPlot@@QAEXH@Z ENDP	; CvPlot::changeNumMajorCivsRevealed
_TEXT	ENDS
PUBLIC	?getCityRadiusCount@CvPlot@@QBEHXZ		; CvPlot::getCityRadiusCount
; Function compile flags: /Ogtpy
;	COMDAT ?getCityRadiusCount@CvPlot@@QBEHXZ
_TEXT	SEGMENT
?getCityRadiusCount@CvPlot@@QBEHXZ PROC			; CvPlot::getCityRadiusCount, COMDAT
; _this$ = ecx

; 4851 : 	return m_iCityRadiusCount;

	movsx	eax, BYTE PTR [ecx+455]

; 4852 : }

	ret	0
?getCityRadiusCount@CvPlot@@QBEHXZ ENDP			; CvPlot::getCityRadiusCount
_TEXT	ENDS
PUBLIC	?isCityRadius@CvPlot@@QBEHXZ			; CvPlot::isCityRadius
; Function compile flags: /Ogtpy
;	COMDAT ?isCityRadius@CvPlot@@QBEHXZ
_TEXT	SEGMENT
?isCityRadius@CvPlot@@QBEHXZ PROC			; CvPlot::isCityRadius, COMDAT
; _this$ = ecx

; 4858 : 	return (getCityRadiusCount() > 0);

	xor	eax, eax
	cmp	BYTE PTR [ecx+455], al
	setg	al

; 4859 : }

	ret	0
?isCityRadius@CvPlot@@QBEHXZ ENDP			; CvPlot::isCityRadius
_TEXT	ENDS
PUBLIC	?changeCityRadiusCount@CvPlot@@QAEXH@Z		; CvPlot::changeCityRadiusCount
; Function compile flags: /Ogtpy
;	COMDAT ?changeCityRadiusCount@CvPlot@@QAEXH@Z
_TEXT	SEGMENT
_iChange$ = 8						; size = 4
?changeCityRadiusCount@CvPlot@@QAEXH@Z PROC		; CvPlot::changeCityRadiusCount, COMDAT
; _this$ = ecx

; 4865 : 	m_iCityRadiusCount = (m_iCityRadiusCount + iChange);

	mov	al, BYTE PTR _iChange$[esp-4]
	add	BYTE PTR [ecx+455], al

; 4866 : 	CvAssert(getCityRadiusCount() >= 0);
; 4867 : }

	ret	4
?changeCityRadiusCount@CvPlot@@QAEXH@Z ENDP		; CvPlot::changeCityRadiusCount
_TEXT	ENDS
PUBLIC	?isStartingPlot@CvPlot@@QBE_NXZ			; CvPlot::isStartingPlot
; Function compile flags: /Ogtpy
;	COMDAT ?isStartingPlot@CvPlot@@QBE_NXZ
_TEXT	SEGMENT
?isStartingPlot@CvPlot@@QBE_NXZ PROC			; CvPlot::isStartingPlot, COMDAT
; _this$ = ecx

; 4873 : 	return m_bStartingPlot;

	mov	al, BYTE PTR [ecx+461]
	shr	al, 2
	and	al, 1

; 4874 : }

	ret	0
?isStartingPlot@CvPlot@@QBE_NXZ ENDP			; CvPlot::isStartingPlot
_TEXT	ENDS
PUBLIC	?setStartingPlot@CvPlot@@QAEX_N@Z		; CvPlot::setStartingPlot
; Function compile flags: /Ogtpy
;	COMDAT ?setStartingPlot@CvPlot@@QAEX_N@Z
_TEXT	SEGMENT
_bNewValue$ = 8						; size = 1
?setStartingPlot@CvPlot@@QAEX_N@Z PROC			; CvPlot::setStartingPlot, COMDAT
; _this$ = ecx

; 4880 : 	m_bStartingPlot = bNewValue;

	mov	al, BYTE PTR _bNewValue$[esp-4]
	add	al, al
	add	al, al
	xor	al, BYTE PTR [ecx+461]
	and	al, 4
	xor	BYTE PTR [ecx+461], al

; 4881 : }

	ret	4
?setStartingPlot@CvPlot@@QAEX_N@Z ENDP			; CvPlot::setStartingPlot
_TEXT	ENDS
PUBLIC	?isNEOfRiver@CvPlot@@QBE_NXZ			; CvPlot::isNEOfRiver
; Function compile flags: /Ogtpy
;	COMDAT ?isNEOfRiver@CvPlot@@QBE_NXZ
_TEXT	SEGMENT
?isNEOfRiver@CvPlot@@QBE_NXZ PROC			; CvPlot::isNEOfRiver, COMDAT
; _this$ = ecx

; 4887 : 	return m_bNEOfRiver;

	mov	al, BYTE PTR [ecx+461]
	shr	al, 4
	and	al, 1

; 4888 : }

	ret	0
?isNEOfRiver@CvPlot@@QBE_NXZ ENDP			; CvPlot::isNEOfRiver
_TEXT	ENDS
PUBLIC	?isWOfRiver@CvPlot@@QBE_NXZ			; CvPlot::isWOfRiver
; Function compile flags: /Ogtpy
;	COMDAT ?isWOfRiver@CvPlot@@QBE_NXZ
_TEXT	SEGMENT
?isWOfRiver@CvPlot@@QBE_NXZ PROC			; CvPlot::isWOfRiver, COMDAT
; _this$ = ecx

; 4933 : 	return m_bWOfRiver;

	mov	al, BYTE PTR [ecx+461]
	shr	al, 5
	and	al, 1

; 4934 : }

	ret	0
?isWOfRiver@CvPlot@@QBE_NXZ ENDP			; CvPlot::isWOfRiver
_TEXT	ENDS
PUBLIC	?isNWOfRiver@CvPlot@@QBE_NXZ			; CvPlot::isNWOfRiver
; Function compile flags: /Ogtpy
;	COMDAT ?isNWOfRiver@CvPlot@@QBE_NXZ
_TEXT	SEGMENT
?isNWOfRiver@CvPlot@@QBE_NXZ PROC			; CvPlot::isNWOfRiver, COMDAT
; _this$ = ecx

; 4979 : 	return m_bNWOfRiver;

	mov	al, BYTE PTR [ecx+461]
	shr	al, 6
	and	al, 1

; 4980 : }

	ret	0
?isNWOfRiver@CvPlot@@QBE_NXZ ENDP			; CvPlot::isNWOfRiver
_TEXT	ENDS
PUBLIC	?getRiverEFlowDirection@CvPlot@@QBE?AW4FlowDirectionTypes@@XZ ; CvPlot::getRiverEFlowDirection
; Function compile flags: /Ogtpy
;	COMDAT ?getRiverEFlowDirection@CvPlot@@QBE?AW4FlowDirectionTypes@@XZ
_TEXT	SEGMENT
?getRiverEFlowDirection@CvPlot@@QBE?AW4FlowDirectionTypes@@XZ PROC ; CvPlot::getRiverEFlowDirection, COMDAT
; _this$ = ecx

; 5025 : 	return (FlowDirectionTypes)m_eRiverEFlowDirection;

	movsx	eax, BYTE PTR [ecx+450]

; 5026 : }

	ret	0
?getRiverEFlowDirection@CvPlot@@QBE?AW4FlowDirectionTypes@@XZ ENDP ; CvPlot::getRiverEFlowDirection
_TEXT	ENDS
PUBLIC	?getRiverSEFlowDirection@CvPlot@@QBE?AW4FlowDirectionTypes@@XZ ; CvPlot::getRiverSEFlowDirection
; Function compile flags: /Ogtpy
;	COMDAT ?getRiverSEFlowDirection@CvPlot@@QBE?AW4FlowDirectionTypes@@XZ
_TEXT	SEGMENT
?getRiverSEFlowDirection@CvPlot@@QBE?AW4FlowDirectionTypes@@XZ PROC ; CvPlot::getRiverSEFlowDirection, COMDAT
; _this$ = ecx

; 5032 : 	return (FlowDirectionTypes)m_eRiverSEFlowDirection;

	movsx	eax, BYTE PTR [ecx+451]

; 5033 : }

	ret	0
?getRiverSEFlowDirection@CvPlot@@QBE?AW4FlowDirectionTypes@@XZ ENDP ; CvPlot::getRiverSEFlowDirection
_TEXT	ENDS
PUBLIC	?getRiverSWFlowDirection@CvPlot@@QBE?AW4FlowDirectionTypes@@XZ ; CvPlot::getRiverSWFlowDirection
; Function compile flags: /Ogtpy
;	COMDAT ?getRiverSWFlowDirection@CvPlot@@QBE?AW4FlowDirectionTypes@@XZ
_TEXT	SEGMENT
?getRiverSWFlowDirection@CvPlot@@QBE?AW4FlowDirectionTypes@@XZ PROC ; CvPlot::getRiverSWFlowDirection, COMDAT
; _this$ = ecx

; 5038 : 	return (FlowDirectionTypes)m_eRiverSWFlowDirection;

	movsx	eax, BYTE PTR [ecx+452]

; 5039 : }

	ret	0
?getRiverSWFlowDirection@CvPlot@@QBE?AW4FlowDirectionTypes@@XZ ENDP ; CvPlot::getRiverSWFlowDirection
_TEXT	ENDS
PUBLIC	?isPotentialCityWork@CvPlot@@QBE_NXZ		; CvPlot::isPotentialCityWork
; Function compile flags: /Ogtpy
;	COMDAT ?isPotentialCityWork@CvPlot@@QBE_NXZ
_TEXT	SEGMENT
?isPotentialCityWork@CvPlot@@QBE_NXZ PROC		; CvPlot::isPotentialCityWork, COMDAT
; _this$ = ecx

; 5113 : 	return m_bPotentialCityWork;

	mov	al, BYTE PTR [ecx+461]
	shr	al, 7

; 5114 : }

	ret	0
?isPotentialCityWork@CvPlot@@QBE_NXZ ENDP		; CvPlot::isPotentialCityWork
_TEXT	ENDS
PUBLIC	?ClearCityPurchaseInfo@CvPlot@@QAEXXZ		; CvPlot::ClearCityPurchaseInfo
; Function compile flags: /Ogtpy
;	COMDAT ?ClearCityPurchaseInfo@CvPlot@@QAEXXZ
_TEXT	SEGMENT
?ClearCityPurchaseInfo@CvPlot@@QAEXXZ PROC		; CvPlot::ClearCityPurchaseInfo, COMDAT
; _this$ = ecx

; 5612 : 	m_purchaseCity.eOwner = NO_PLAYER;

	or	eax, -1
	mov	DWORD PTR [ecx+136], eax

; 5613 : 	m_purchaseCity.iID = -1;

	mov	DWORD PTR [ecx+140], eax

; 5614 : }

	ret	0
?ClearCityPurchaseInfo@CvPlot@@QAEXXZ ENDP		; CvPlot::ClearCityPurchaseInfo
_TEXT	ENDS
PUBLIC	?GetCityPurchaseOwner@CvPlot@@QAE?AW4PlayerTypes@@XZ ; CvPlot::GetCityPurchaseOwner
; Function compile flags: /Ogtpy
;	COMDAT ?GetCityPurchaseOwner@CvPlot@@QAE?AW4PlayerTypes@@XZ
_TEXT	SEGMENT
?GetCityPurchaseOwner@CvPlot@@QAE?AW4PlayerTypes@@XZ PROC ; CvPlot::GetCityPurchaseOwner, COMDAT
; _this$ = ecx

; 5623 : 	return m_purchaseCity.eOwner;

	mov	eax, DWORD PTR [ecx+136]

; 5624 : }

	ret	0
?GetCityPurchaseOwner@CvPlot@@QAE?AW4PlayerTypes@@XZ ENDP ; CvPlot::GetCityPurchaseOwner
_TEXT	ENDS
PUBLIC	?GetCityPurchaseID@CvPlot@@QAEHXZ		; CvPlot::GetCityPurchaseID
; Function compile flags: /Ogtpy
;	COMDAT ?GetCityPurchaseID@CvPlot@@QAEHXZ
_TEXT	SEGMENT
?GetCityPurchaseID@CvPlot@@QAEHXZ PROC			; CvPlot::GetCityPurchaseID, COMDAT
; _this$ = ecx

; 5633 : 	return m_purchaseCity.iID;

	mov	eax, DWORD PTR [ecx+140]

; 5634 : }

	ret	0
?GetCityPurchaseID@CvPlot@@QAEHXZ ENDP			; CvPlot::GetCityPurchaseID
_TEXT	ENDS
PUBLIC	?SetCityPurchaseID@CvPlot@@QAEXH@Z		; CvPlot::SetCityPurchaseID
; Function compile flags: /Ogtpy
;	COMDAT ?SetCityPurchaseID@CvPlot@@QAEXH@Z
_TEXT	SEGMENT
_iAcquiringCityID$ = 8					; size = 4
?SetCityPurchaseID@CvPlot@@QAEXH@Z PROC			; CvPlot::SetCityPurchaseID, COMDAT
; _this$ = ecx

; 5639 : 	m_purchaseCity.iID = iAcquiringCityID;

	mov	eax, DWORD PTR _iAcquiringCityID$[esp-4]
	mov	DWORD PTR [ecx+140], eax

; 5640 : }

	ret	4
?SetCityPurchaseID@CvPlot@@QAEXH@Z ENDP			; CvPlot::SetCityPurchaseID
_TEXT	ENDS
PUBLIC	?IsRoughFeature@CvPlot@@QBE_NXZ			; CvPlot::IsRoughFeature
; Function compile flags: /Ogtpy
;	COMDAT ?IsRoughFeature@CvPlot@@QBE_NXZ
_TEXT	SEGMENT
?IsRoughFeature@CvPlot@@QBE_NXZ PROC			; CvPlot::IsRoughFeature, COMDAT
; _this$ = ecx

; 5682 : 	return m_bRoughFeature;

	mov	al, BYTE PTR [ecx+462]
	shr	al, 3
	and	al, 1

; 5683 : }

	ret	0
?IsRoughFeature@CvPlot@@QBE_NXZ ENDP			; CvPlot::IsRoughFeature
_TEXT	ENDS
PUBLIC	?SetRoughFeature@CvPlot@@QAEX_N@Z		; CvPlot::SetRoughFeature
; Function compile flags: /Ogtpy
;	COMDAT ?SetRoughFeature@CvPlot@@QAEX_N@Z
_TEXT	SEGMENT
_bValue$ = 8						; size = 1
?SetRoughFeature@CvPlot@@QAEX_N@Z PROC			; CvPlot::SetRoughFeature, COMDAT
; _this$ = ecx

; 5688 : 	if(IsRoughFeature() != bValue)

	mov	al, BYTE PTR _bValue$[esp-4]
	push	esi
	mov	esi, ecx
	mov	dl, BYTE PTR [esi+462]
	mov	cl, dl
	shr	cl, 3
	and	cl, 1
	cmp	cl, al
	je	SHORT $LN1@SetRoughFe

; 5689 : 	{
; 5690 : 		m_bRoughFeature = bValue;

	add	al, al
	add	al, al
	add	al, al
	xor	al, dl
	and	al, 8
	xor	al, dl
	mov	BYTE PTR [esi+462], al
$LN1@SetRoughFe:
	pop	esi

; 5691 : 	}
; 5692 : }

	ret	4
?SetRoughFeature@CvPlot@@QAEX_N@Z ENDP			; CvPlot::SetRoughFeature
_TEXT	ENDS
PUBLIC	?getNumResource@CvPlot@@QBEHXZ			; CvPlot::getNumResource
; Function compile flags: /Ogtpy
;	COMDAT ?getNumResource@CvPlot@@QBEHXZ
_TEXT	SEGMENT
?getNumResource@CvPlot@@QBEHXZ PROC			; CvPlot::getNumResource, COMDAT
; _this$ = ecx

; 6193 : 	return m_iResourceNum;

	movsx	eax, BYTE PTR [ecx+458]

; 6194 : }

	ret	0
?getNumResource@CvPlot@@QBEHXZ ENDP			; CvPlot::getNumResource
_TEXT	ENDS
PUBLIC	?setNumResource@CvPlot@@QAEXH@Z			; CvPlot::setNumResource
; Function compile flags: /Ogtpy
;	COMDAT ?setNumResource@CvPlot@@QAEXH@Z
_TEXT	SEGMENT
_iNum$ = 8						; size = 4
?setNumResource@CvPlot@@QAEXH@Z PROC			; CvPlot::setNumResource, COMDAT
; _this$ = ecx

; 6199 : 	m_iResourceNum = iNum;

	mov	al, BYTE PTR _iNum$[esp-4]
	mov	BYTE PTR [ecx+458], al

; 6200 : 	CvAssert(getNumResource() >= 0);
; 6201 : 	FAssertMsg(getResourceType() == NO_RESOURCE || m_iResourceNum > 0, "If a plot contains a Resource it should always have a quantity of at least 1.");
; 6202 : }

	ret	4
?setNumResource@CvPlot@@QAEXH@Z ENDP			; CvPlot::setNumResource
_TEXT	ENDS
PUBLIC	?changeNumResource@CvPlot@@QAEXH@Z		; CvPlot::changeNumResource
; Function compile flags: /Ogtpy
;	COMDAT ?changeNumResource@CvPlot@@QAEXH@Z
_TEXT	SEGMENT
_iChange$ = 8						; size = 4
?changeNumResource@CvPlot@@QAEXH@Z PROC			; CvPlot::changeNumResource, COMDAT
; _this$ = ecx

; 6207 : 	setNumResource(getNumResource() + iChange);

	mov	al, BYTE PTR _iChange$[esp-4]
	add	BYTE PTR [ecx+458], al

; 6208 : 	CvAssert(getNumResource() >= 0);
; 6209 : }

	ret	4
?changeNumResource@CvPlot@@QAEXH@Z ENDP			; CvPlot::changeNumResource
_TEXT	ENDS
PUBLIC	?getImprovementType@CvPlot@@QBE?AW4ImprovementTypes@@XZ ; CvPlot::getImprovementType
; Function compile flags: /Ogtpy
;	COMDAT ?getImprovementType@CvPlot@@QBE?AW4ImprovementTypes@@XZ
_TEXT	SEGMENT
?getImprovementType@CvPlot@@QBE?AW4ImprovementTypes@@XZ PROC ; CvPlot::getImprovementType, COMDAT
; _this$ = ecx

; 6260 : 	return (ImprovementTypes)m_eImprovementType;

	movsx	eax, BYTE PTR [ecx+441]

; 6261 : }

	ret	0
?getImprovementType@CvPlot@@QBE?AW4ImprovementTypes@@XZ ENDP ; CvPlot::getImprovementType
_TEXT	ENDS
PUBLIC	?IsImprovementPillaged@CvPlot@@QBE_NXZ		; CvPlot::IsImprovementPillaged
; Function compile flags: /Ogtpy
;	COMDAT ?IsImprovementPillaged@CvPlot@@QBE_NXZ
_TEXT	SEGMENT
?IsImprovementPillaged@CvPlot@@QBE_NXZ PROC		; CvPlot::IsImprovementPillaged, COMDAT
; _this$ = ecx

; 6644 : 	return m_bImprovementPillaged;

	mov	al, BYTE PTR [ecx+461]
	and	al, 1

; 6645 : }

	ret	0
?IsImprovementPillaged@CvPlot@@QBE_NXZ ENDP		; CvPlot::IsImprovementPillaged
_TEXT	ENDS
PUBLIC	?IsImprovedByGiftFromMajor@CvPlot@@QBE_NXZ	; CvPlot::IsImprovedByGiftFromMajor
; Function compile flags: /Ogtpy
;	COMDAT ?IsImprovedByGiftFromMajor@CvPlot@@QBE_NXZ
_TEXT	SEGMENT
?IsImprovedByGiftFromMajor@CvPlot@@QBE_NXZ PROC		; CvPlot::IsImprovedByGiftFromMajor, COMDAT
; _this$ = ecx

; 6697 : 	return m_bImprovedByGiftFromMajor;

	mov	al, BYTE PTR [ecx+462]
	shr	al, 5
	and	al, 1

; 6698 : }

	ret	0
?IsImprovedByGiftFromMajor@CvPlot@@QBE_NXZ ENDP		; CvPlot::IsImprovedByGiftFromMajor
_TEXT	ENDS
PUBLIC	?SetImprovedByGiftFromMajor@CvPlot@@QAEX_N@Z	; CvPlot::SetImprovedByGiftFromMajor
; Function compile flags: /Ogtpy
;	COMDAT ?SetImprovedByGiftFromMajor@CvPlot@@QAEX_N@Z
_TEXT	SEGMENT
_bValue$ = 8						; size = 1
?SetImprovedByGiftFromMajor@CvPlot@@QAEX_N@Z PROC	; CvPlot::SetImprovedByGiftFromMajor, COMDAT
; _this$ = ecx

; 6703 : 	m_bImprovedByGiftFromMajor = bValue;

	mov	al, BYTE PTR _bValue$[esp-4]
	shl	al, 5
	xor	al, BYTE PTR [ecx+462]
	and	al, 32					; 00000020H
	xor	BYTE PTR [ecx+462], al

; 6704 : }

	ret	4
?SetImprovedByGiftFromMajor@CvPlot@@QAEX_N@Z ENDP	; CvPlot::SetImprovedByGiftFromMajor
_TEXT	ENDS
PUBLIC	?IsBarbarianCampNotConverting@CvPlot@@QBE_NXZ	; CvPlot::IsBarbarianCampNotConverting
; Function compile flags: /Ogtpy
;	COMDAT ?IsBarbarianCampNotConverting@CvPlot@@QBE_NXZ
_TEXT	SEGMENT
?IsBarbarianCampNotConverting@CvPlot@@QBE_NXZ PROC	; CvPlot::IsBarbarianCampNotConverting, COMDAT
; _this$ = ecx

; 6740 : 	return m_bBarbCampNotConverting;

	mov	al, BYTE PTR [ecx+462]
	shr	al, 2
	and	al, 1

; 6741 : }

	ret	0
?IsBarbarianCampNotConverting@CvPlot@@QBE_NXZ ENDP	; CvPlot::IsBarbarianCampNotConverting
_TEXT	ENDS
PUBLIC	?SetBarbarianCampNotConverting@CvPlot@@QAEX_N@Z	; CvPlot::SetBarbarianCampNotConverting
; Function compile flags: /Ogtpy
;	COMDAT ?SetBarbarianCampNotConverting@CvPlot@@QAEX_N@Z
_TEXT	SEGMENT
_bNotConverting$ = 8					; size = 1
?SetBarbarianCampNotConverting@CvPlot@@QAEX_N@Z PROC	; CvPlot::SetBarbarianCampNotConverting, COMDAT
; _this$ = ecx

; 6746 : 	m_bBarbCampNotConverting = bNotConverting;

	mov	al, BYTE PTR _bNotConverting$[esp-4]
	add	al, al
	add	al, al
	xor	al, BYTE PTR [ecx+462]
	and	al, 4
	xor	BYTE PTR [ecx+462], al

; 6747 : }

	ret	4
?SetBarbarianCampNotConverting@CvPlot@@QAEX_N@Z ENDP	; CvPlot::SetBarbarianCampNotConverting
_TEXT	ENDS
PUBLIC	?GetWorldAnchor@CvPlot@@QBE?AW4GenericWorldAnchorTypes@@XZ ; CvPlot::GetWorldAnchor
; Function compile flags: /Ogtpy
;	COMDAT ?GetWorldAnchor@CvPlot@@QBE?AW4GenericWorldAnchorTypes@@XZ
_TEXT	SEGMENT
?GetWorldAnchor@CvPlot@@QBE?AW4GenericWorldAnchorTypes@@XZ PROC ; CvPlot::GetWorldAnchor, COMDAT
; _this$ = ecx

; 6752 : 	return (GenericWorldAnchorTypes) m_eWorldAnchor;

	movsx	eax, BYTE PTR [ecx+448]

; 6753 : }

	ret	0
?GetWorldAnchor@CvPlot@@QBE?AW4GenericWorldAnchorTypes@@XZ ENDP ; CvPlot::GetWorldAnchor
_TEXT	ENDS
PUBLIC	?GetWorldAnchorData@CvPlot@@QBEHXZ		; CvPlot::GetWorldAnchorData
; Function compile flags: /Ogtpy
;	COMDAT ?GetWorldAnchorData@CvPlot@@QBEHXZ
_TEXT	SEGMENT
?GetWorldAnchorData@CvPlot@@QBEHXZ PROC			; CvPlot::GetWorldAnchorData, COMDAT
; _this$ = ecx

; 6758 : 	return (int) m_cWorldAnchorData;

	movsx	eax, BYTE PTR [ecx+449]

; 6759 : }

	ret	0
?GetWorldAnchorData@CvPlot@@QBEHXZ ENDP			; CvPlot::GetWorldAnchorData
_TEXT	ENDS
PUBLIC	?getRouteType@CvPlot@@QBE?AW4RouteTypes@@XZ	; CvPlot::getRouteType
; Function compile flags: /Ogtpy
;	COMDAT ?getRouteType@CvPlot@@QBE?AW4RouteTypes@@XZ
_TEXT	SEGMENT
?getRouteType@CvPlot@@QBE?AW4RouteTypes@@XZ PROC	; CvPlot::getRouteType, COMDAT
; _this$ = ecx

; 6783 : 	return (RouteTypes)m_eRouteType;

	movsx	eax, BYTE PTR [ecx+447]

; 6784 : }

	ret	0
?getRouteType@CvPlot@@QBE?AW4RouteTypes@@XZ ENDP	; CvPlot::getRouteType
_TEXT	ENDS
PUBLIC	?IsRoutePillaged@CvPlot@@QBE_NXZ		; CvPlot::IsRoutePillaged
; Function compile flags: /Ogtpy
;	COMDAT ?IsRoutePillaged@CvPlot@@QBE_NXZ
_TEXT	SEGMENT
?IsRoutePillaged@CvPlot@@QBE_NXZ PROC			; CvPlot::IsRoutePillaged, COMDAT
; _this$ = ecx

; 6901 : 	return m_bRoutePillaged;

	mov	al, BYTE PTR [ecx+461]
	shr	al, 1
	and	al, 1

; 6902 : }

	ret	0
?IsRoutePillaged@CvPlot@@QBE_NXZ ENDP			; CvPlot::IsRoutePillaged
_TEXT	ENDS
PUBLIC	?GetPlayerThatBuiltImprovement@CvPlot@@QBE?AW4PlayerTypes@@XZ ; CvPlot::GetPlayerThatBuiltImprovement
; Function compile flags: /Ogtpy
;	COMDAT ?GetPlayerThatBuiltImprovement@CvPlot@@QBE?AW4PlayerTypes@@XZ
_TEXT	SEGMENT
?GetPlayerThatBuiltImprovement@CvPlot@@QBE?AW4PlayerTypes@@XZ PROC ; CvPlot::GetPlayerThatBuiltImprovement, COMDAT
; _this$ = ecx

; 6967 : 	return (PlayerTypes) m_ePlayerBuiltImprovement;

	movsx	eax, BYTE PTR [ecx+443]

; 6968 : }

	ret	0
?GetPlayerThatBuiltImprovement@CvPlot@@QBE?AW4PlayerTypes@@XZ ENDP ; CvPlot::GetPlayerThatBuiltImprovement
_TEXT	ENDS
PUBLIC	?SetPlayerThatBuiltImprovement@CvPlot@@QAEXW4PlayerTypes@@@Z ; CvPlot::SetPlayerThatBuiltImprovement
; Function compile flags: /Ogtpy
;	COMDAT ?SetPlayerThatBuiltImprovement@CvPlot@@QAEXW4PlayerTypes@@@Z
_TEXT	SEGMENT
_eBuilder$ = 8						; size = 4
?SetPlayerThatBuiltImprovement@CvPlot@@QAEXW4PlayerTypes@@@Z PROC ; CvPlot::SetPlayerThatBuiltImprovement, COMDAT
; _this$ = ecx

; 6974 : 	m_ePlayerBuiltImprovement = eBuilder;

	mov	al, BYTE PTR _eBuilder$[esp-4]
	mov	BYTE PTR [ecx+443], al

; 6975 : }

	ret	4
?SetPlayerThatBuiltImprovement@CvPlot@@QAEXW4PlayerTypes@@@Z ENDP ; CvPlot::SetPlayerThatBuiltImprovement
_TEXT	ENDS
PUBLIC	?GetPlayerResponsibleForImprovement@CvPlot@@QBE?AW4PlayerTypes@@XZ ; CvPlot::GetPlayerResponsibleForImprovement
; Function compile flags: /Ogtpy
;	COMDAT ?GetPlayerResponsibleForImprovement@CvPlot@@QBE?AW4PlayerTypes@@XZ
_TEXT	SEGMENT
?GetPlayerResponsibleForImprovement@CvPlot@@QBE?AW4PlayerTypes@@XZ PROC ; CvPlot::GetPlayerResponsibleForImprovement, COMDAT
; _this$ = ecx

; 6981 : 	return (PlayerTypes) m_ePlayerResponsibleForImprovement;

	movsx	eax, BYTE PTR [ecx+444]

; 6982 : }

	ret	0
?GetPlayerResponsibleForImprovement@CvPlot@@QBE?AW4PlayerTypes@@XZ ENDP ; CvPlot::GetPlayerResponsibleForImprovement
_TEXT	ENDS
PUBLIC	?SetPlayerResponsibleForImprovement@CvPlot@@QAEXW4PlayerTypes@@@Z ; CvPlot::SetPlayerResponsibleForImprovement
; Function compile flags: /Ogtpy
;	COMDAT ?SetPlayerResponsibleForImprovement@CvPlot@@QAEXW4PlayerTypes@@@Z
_TEXT	SEGMENT
_eNewValue$ = 8						; size = 4
?SetPlayerResponsibleForImprovement@CvPlot@@QAEXW4PlayerTypes@@@Z PROC ; CvPlot::SetPlayerResponsibleForImprovement, COMDAT
; _this$ = ecx

; 6988 : 	if(GetPlayerResponsibleForImprovement() != eNewValue)

	movsx	edx, BYTE PTR [ecx+444]
	mov	eax, DWORD PTR _eNewValue$[esp-4]
	cmp	edx, eax
	je	SHORT $LN1@SetPlayerR

; 6989 : 	{
; 6990 : 		m_ePlayerResponsibleForImprovement = eNewValue;

	mov	BYTE PTR [ecx+444], al
$LN1@SetPlayerR:

; 6991 : 	}
; 6992 : }

	ret	4
?SetPlayerResponsibleForImprovement@CvPlot@@QAEXW4PlayerTypes@@@Z ENDP ; CvPlot::SetPlayerResponsibleForImprovement
_TEXT	ENDS
PUBLIC	?GetPlayerResponsibleForRoute@CvPlot@@QBE?AW4PlayerTypes@@XZ ; CvPlot::GetPlayerResponsibleForRoute
; Function compile flags: /Ogtpy
;	COMDAT ?GetPlayerResponsibleForRoute@CvPlot@@QBE?AW4PlayerTypes@@XZ
_TEXT	SEGMENT
?GetPlayerResponsibleForRoute@CvPlot@@QBE?AW4PlayerTypes@@XZ PROC ; CvPlot::GetPlayerResponsibleForRoute, COMDAT
; _this$ = ecx

; 6998 : 	return (PlayerTypes) m_ePlayerResponsibleForRoute;

	movsx	eax, BYTE PTR [ecx+445]

; 6999 : }

	ret	0
?GetPlayerResponsibleForRoute@CvPlot@@QBE?AW4PlayerTypes@@XZ ENDP ; CvPlot::GetPlayerResponsibleForRoute
_TEXT	ENDS
PUBLIC	?SetPlayerResponsibleForRoute@CvPlot@@QAEXW4PlayerTypes@@@Z ; CvPlot::SetPlayerResponsibleForRoute
; Function compile flags: /Ogtpy
;	COMDAT ?SetPlayerResponsibleForRoute@CvPlot@@QAEXW4PlayerTypes@@@Z
_TEXT	SEGMENT
_eNewValue$ = 8						; size = 4
?SetPlayerResponsibleForRoute@CvPlot@@QAEXW4PlayerTypes@@@Z PROC ; CvPlot::SetPlayerResponsibleForRoute, COMDAT
; _this$ = ecx

; 7005 : 	if(GetPlayerResponsibleForRoute() != eNewValue)

	movsx	edx, BYTE PTR [ecx+445]
	mov	eax, DWORD PTR _eNewValue$[esp-4]
	cmp	edx, eax
	je	SHORT $LN1@SetPlayerR@2

; 7006 : 	{
; 7007 : 		m_ePlayerResponsibleForRoute = eNewValue;

	mov	BYTE PTR [ecx+445], al
$LN1@SetPlayerR@2:

; 7008 : 	}
; 7009 : }

	ret	4
?SetPlayerResponsibleForRoute@CvPlot@@QAEXW4PlayerTypes@@@Z ENDP ; CvPlot::SetPlayerResponsibleForRoute
_TEXT	ENDS
PUBLIC	?GetPlayerThatClearedBarbCampHere@CvPlot@@QBE?AW4PlayerTypes@@XZ ; CvPlot::GetPlayerThatClearedBarbCampHere
; Function compile flags: /Ogtpy
;	COMDAT ?GetPlayerThatClearedBarbCampHere@CvPlot@@QBE?AW4PlayerTypes@@XZ
_TEXT	SEGMENT
?GetPlayerThatClearedBarbCampHere@CvPlot@@QBE?AW4PlayerTypes@@XZ PROC ; CvPlot::GetPlayerThatClearedBarbCampHere, COMDAT
; _this$ = ecx

; 7014 : 	return (PlayerTypes) m_ePlayerThatClearedBarbCampHere;

	movsx	eax, BYTE PTR [ecx+446]

; 7015 : }

	ret	0
?GetPlayerThatClearedBarbCampHere@CvPlot@@QBE?AW4PlayerTypes@@XZ ENDP ; CvPlot::GetPlayerThatClearedBarbCampHere
_TEXT	ENDS
PUBLIC	?SetPlayerThatClearedBarbCampHere@CvPlot@@QAEXW4PlayerTypes@@@Z ; CvPlot::SetPlayerThatClearedBarbCampHere
; Function compile flags: /Ogtpy
;	COMDAT ?SetPlayerThatClearedBarbCampHere@CvPlot@@QAEXW4PlayerTypes@@@Z
_TEXT	SEGMENT
_eNewValue$ = 8						; size = 4
?SetPlayerThatClearedBarbCampHere@CvPlot@@QAEXW4PlayerTypes@@@Z PROC ; CvPlot::SetPlayerThatClearedBarbCampHere, COMDAT
; _this$ = ecx

; 7020 : 	m_ePlayerThatClearedBarbCampHere = eNewValue;

	mov	al, BYTE PTR _eNewValue$[esp-4]
	mov	BYTE PTR [ecx+446], al

; 7021 : }

	ret	4
?SetPlayerThatClearedBarbCampHere@CvPlot@@QAEXW4PlayerTypes@@@Z ENDP ; CvPlot::SetPlayerThatClearedBarbCampHere
_TEXT	ENDS
PUBLIC	?GetResourceLinkedCity@CvPlot@@QBEPAVCvCity@@XZ	; CvPlot::GetResourceLinkedCity
EXTRN	?getCity@@YAPAVCvCity@@UIDInfo@@@Z:PROC		; getCity
; Function compile flags: /Ogtpy
;	COMDAT ?GetResourceLinkedCity@CvPlot@@QBEPAVCvCity@@XZ
_TEXT	SEGMENT
?GetResourceLinkedCity@CvPlot@@QBEPAVCvCity@@XZ PROC	; CvPlot::GetResourceLinkedCity, COMDAT
; _this$ = ecx

; 7027 : 	return getCity(m_ResourceLinkedCity);

	mov	eax, DWORD PTR [ecx+132]
	mov	ecx, DWORD PTR [ecx+128]
	push	eax
	push	ecx
	call	?getCity@@YAPAVCvCity@@UIDInfo@@@Z	; getCity
	add	esp, 8

; 7028 : }

	ret	0
?GetResourceLinkedCity@CvPlot@@QBEPAVCvCity@@XZ ENDP	; CvPlot::GetResourceLinkedCity
_TEXT	ENDS
PUBLIC	?IsResourceLinkedCityActive@CvPlot@@QBE_NXZ	; CvPlot::IsResourceLinkedCityActive
; Function compile flags: /Ogtpy
;	COMDAT ?IsResourceLinkedCityActive@CvPlot@@QBE_NXZ
_TEXT	SEGMENT
?IsResourceLinkedCityActive@CvPlot@@QBE_NXZ PROC	; CvPlot::IsResourceLinkedCityActive, COMDAT
; _this$ = ecx

; 7055 : 	return m_bResourceLinkedCityActive;

	mov	al, BYTE PTR [ecx+462]
	shr	al, 4
	and	al, 1

; 7056 : }

	ret	0
?IsResourceLinkedCityActive@CvPlot@@QBE_NXZ ENDP	; CvPlot::IsResourceLinkedCityActive
_TEXT	ENDS
PUBLIC	?getWorkingCity@CvPlot@@QBEPAVCvCity@@XZ	; CvPlot::getWorkingCity
; Function compile flags: /Ogtpy
;	COMDAT ?getWorkingCity@CvPlot@@QBEPAVCvCity@@XZ
_TEXT	SEGMENT
?getWorkingCity@CvPlot@@QBEPAVCvCity@@XZ PROC		; CvPlot::getWorkingCity, COMDAT
; _this$ = ecx

; 7222 : 	return getCity(m_workingCity);

	mov	eax, DWORD PTR [ecx+116]
	mov	ecx, DWORD PTR [ecx+112]
	push	eax
	push	ecx
	call	?getCity@@YAPAVCvCity@@UIDInfo@@@Z	; getCity
	add	esp, 8

; 7223 : }

	ret	0
?getWorkingCity@CvPlot@@QBEPAVCvCity@@XZ ENDP		; CvPlot::getWorkingCity
_TEXT	ENDS
PUBLIC	?getWorkingCityOverride@CvPlot@@QBEPAVCvCity@@XZ ; CvPlot::getWorkingCityOverride
; Function compile flags: /Ogtpy
;	COMDAT ?getWorkingCityOverride@CvPlot@@QBEPAVCvCity@@XZ
_TEXT	SEGMENT
?getWorkingCityOverride@CvPlot@@QBEPAVCvCity@@XZ PROC	; CvPlot::getWorkingCityOverride, COMDAT
; _this$ = ecx

; 7320 : 	return getCity(m_workingCityOverride);

	mov	eax, DWORD PTR [ecx+124]
	mov	ecx, DWORD PTR [ecx+120]
	push	eax
	push	ecx
	call	?getCity@@YAPAVCvCity@@UIDInfo@@@Z	; getCity
	add	esp, 8

; 7321 : }

	ret	0
?getWorkingCityOverride@CvPlot@@QBEPAVCvCity@@XZ ENDP	; CvPlot::getWorkingCityOverride
_TEXT	ENDS
PUBLIC	?getReconCount@CvPlot@@QBEHXZ			; CvPlot::getReconCount
; Function compile flags: /Ogtpy
;	COMDAT ?getReconCount@CvPlot@@QBEHXZ
_TEXT	SEGMENT
?getReconCount@CvPlot@@QBEHXZ PROC			; CvPlot::getReconCount, COMDAT
; _this$ = ecx

; 7346 : 	return m_iReconCount;

	movsx	eax, BYTE PTR [ecx+456]

; 7347 : }

	ret	0
?getReconCount@CvPlot@@QBEHXZ ENDP			; CvPlot::getReconCount
_TEXT	ENDS
PUBLIC	?changeReconCount@CvPlot@@QAEXH@Z		; CvPlot::changeReconCount
; Function compile flags: /Ogtpy
;	COMDAT ?changeReconCount@CvPlot@@QAEXH@Z
_TEXT	SEGMENT
_iChange$ = 8						; size = 4
?changeReconCount@CvPlot@@QAEXH@Z PROC			; CvPlot::changeReconCount, COMDAT
; _this$ = ecx

; 7353 : 	m_iReconCount = (m_iReconCount + iChange);

	mov	al, BYTE PTR _iChange$[esp-4]
	add	BYTE PTR [ecx+456], al

; 7354 : 	CvAssert(getReconCount() >= 0);
; 7355 : }

	ret	4
?changeReconCount@CvPlot@@QAEXH@Z ENDP			; CvPlot::changeReconCount
_TEXT	ENDS
PUBLIC	?getRiverCrossingCount@CvPlot@@QBEHXZ		; CvPlot::getRiverCrossingCount
; Function compile flags: /Ogtpy
;	COMDAT ?getRiverCrossingCount@CvPlot@@QBEHXZ
_TEXT	SEGMENT
?getRiverCrossingCount@CvPlot@@QBEHXZ PROC		; CvPlot::getRiverCrossingCount, COMDAT
; _this$ = ecx

; 7361 : 	return m_iRiverCrossingCount;

	movsx	eax, BYTE PTR [ecx+457]

; 7362 : }

	ret	0
?getRiverCrossingCount@CvPlot@@QBEHXZ ENDP		; CvPlot::getRiverCrossingCount
_TEXT	ENDS
PUBLIC	?changeRiverCrossingCount@CvPlot@@QAEXH@Z	; CvPlot::changeRiverCrossingCount
; Function compile flags: /Ogtpy
;	COMDAT ?changeRiverCrossingCount@CvPlot@@QAEXH@Z
_TEXT	SEGMENT
_iChange$ = 8						; size = 4
?changeRiverCrossingCount@CvPlot@@QAEXH@Z PROC		; CvPlot::changeRiverCrossingCount, COMDAT
; _this$ = ecx

; 7368 : 	m_iRiverCrossingCount = (m_iRiverCrossingCount + iChange);

	mov	al, BYTE PTR _iChange$[esp-4]
	add	BYTE PTR [ecx+457], al

; 7369 : 	CvAssert(getRiverCrossingCount() >= 0);
; 7370 : }

	ret	4
?changeRiverCrossingCount@CvPlot@@QAEXH@Z ENDP		; CvPlot::changeRiverCrossingCount
_TEXT	ENDS
PUBLIC	?getYield@CvPlot@@QAEPAFXZ			; CvPlot::getYield
; Function compile flags: /Ogtpy
;	COMDAT ?getYield@CvPlot@@QAEPAFXZ
_TEXT	SEGMENT
?getYield@CvPlot@@QAEPAFXZ PROC				; CvPlot::getYield, COMDAT
; _this$ = ecx

; 7380 : 	return m_aiYield;

	mov	eax, DWORD PTR [ecx+144]

; 7381 : }

	ret	0
?getYield@CvPlot@@QAEPAFXZ ENDP				; CvPlot::getYield
_TEXT	ENDS
PUBLIC	?getYield@CvPlot@@QBEHW4YieldTypes@@@Z		; CvPlot::getYield
; Function compile flags: /Ogtpy
;	COMDAT ?getYield@CvPlot@@QBEHW4YieldTypes@@@Z
_TEXT	SEGMENT
_eIndex$ = 8						; size = 4
?getYield@CvPlot@@QBEHW4YieldTypes@@@Z PROC		; CvPlot::getYield, COMDAT
; _this$ = ecx

; 7387 : 	CvAssertMsg(eIndex >= 0, "eIndex is expected to be non-negative (invalid Index)");
; 7388 : 	CvAssertMsg(eIndex < NUM_YIELD_TYPES, "eIndex is expected to be within maximum bounds (invalid Index)");
; 7389 : 	return (int)(m_aiYield[eIndex]);

	mov	eax, DWORD PTR [ecx+144]
	mov	ecx, DWORD PTR _eIndex$[esp-4]
	movsx	eax, WORD PTR [eax+ecx*2]

; 7390 : }

	ret	4
?getYield@CvPlot@@QBEHW4YieldTypes@@@Z ENDP		; CvPlot::getYield
_TEXT	ENDS
PUBLIC	?hasYield@CvPlot@@QBE_NXZ			; CvPlot::hasYield
; Function compile flags: /Ogtpy
;	COMDAT ?hasYield@CvPlot@@QBE_NXZ
_TEXT	SEGMENT
?hasYield@CvPlot@@QBE_NXZ PROC				; CvPlot::hasYield, COMDAT
; _this$ = ecx

; 8117 : 	int iI;
; 8118 : 
; 8119 : 	for(iI = 0; iI < NUM_YIELD_TYPES; ++iI)

	mov	ecx, DWORD PTR [ecx+144]
	xor	eax, eax
$LL4@hasYield:

; 8120 : 	{
; 8121 : 		if(getYield((YieldTypes)iI) > 0)

	cmp	WORD PTR [ecx], 0
	jg	SHORT $LN10@hasYield
	inc	eax
	add	ecx, 2
	cmp	eax, 6
	jl	SHORT $LL4@hasYield

; 8124 : 		}
; 8125 : 	}
; 8126 : 
; 8127 : 	return false;

	xor	al, al

; 8128 : }

	ret	0
$LN10@hasYield:

; 8122 : 		{
; 8123 : 			return true;

	mov	al, 1

; 8128 : }

	ret	0
?hasYield@CvPlot@@QBE_NXZ ENDP				; CvPlot::hasYield
_TEXT	ENDS
PUBLIC	?setFoundValue@CvPlot@@QAEXW4PlayerTypes@@H@Z	; CvPlot::setFoundValue
; Function compile flags: /Ogtpy
;	COMDAT ?setFoundValue@CvPlot@@QAEXW4PlayerTypes@@H@Z
_TEXT	SEGMENT
_eIndex$ = 8						; size = 4
_iNewValue$ = 12					; size = 4
?setFoundValue@CvPlot@@QAEXW4PlayerTypes@@H@Z PROC	; CvPlot::setFoundValue, COMDAT
; _this$ = ecx

; 8232 : 	CvAssertMsg(eIndex >= 0, "eIndex is expected to be non-negative (invalid Index)");
; 8233 : 	CvAssertMsg(eIndex < MAX_PLAYERS, "eIndex is expected to be within maximum bounds (invalid Index)");
; 8234 : 
; 8235 : 	m_aiFoundValue[eIndex] = iNewValue;

	mov	eax, DWORD PTR [ecx+148]
	mov	ecx, DWORD PTR _iNewValue$[esp-4]
	mov	edx, DWORD PTR _eIndex$[esp-4]
	mov	DWORD PTR [eax+edx*4], ecx

; 8236 : }

	ret	8
?setFoundValue@CvPlot@@QAEXW4PlayerTypes@@H@Z ENDP	; CvPlot::setFoundValue
_TEXT	ENDS
PUBLIC	?getPlayerCityRadiusCount@CvPlot@@QBEHW4PlayerTypes@@@Z ; CvPlot::getPlayerCityRadiusCount
; Function compile flags: /Ogtpy
;	COMDAT ?getPlayerCityRadiusCount@CvPlot@@QBEHW4PlayerTypes@@@Z
_TEXT	SEGMENT
_eIndex$ = 8						; size = 4
?getPlayerCityRadiusCount@CvPlot@@QBEHW4PlayerTypes@@@Z PROC ; CvPlot::getPlayerCityRadiusCount, COMDAT
; _this$ = ecx

; 8242 : 	CvAssertMsg(eIndex >= 0, "eIndex is expected to be non-negative (invalid Index)");
; 8243 : 	CvAssertMsg(eIndex < MAX_PLAYERS, "eIndex is expected to be within maximum bounds (invalid Index)");
; 8244 : 
; 8245 : 	return m_aiPlayerCityRadiusCount[eIndex];

	mov	eax, DWORD PTR [ecx+152]
	mov	ecx, DWORD PTR _eIndex$[esp-4]
	movsx	eax, BYTE PTR [eax+ecx]

; 8246 : }

	ret	4
?getPlayerCityRadiusCount@CvPlot@@QBEHW4PlayerTypes@@@Z ENDP ; CvPlot::getPlayerCityRadiusCount
_TEXT	ENDS
PUBLIC	?isPlayerCityRadius@CvPlot@@QBE_NW4PlayerTypes@@@Z ; CvPlot::isPlayerCityRadius
; Function compile flags: /Ogtpy
;	COMDAT ?isPlayerCityRadius@CvPlot@@QBE_NW4PlayerTypes@@@Z
_TEXT	SEGMENT
_eIndex$ = 8						; size = 4
?isPlayerCityRadius@CvPlot@@QBE_NW4PlayerTypes@@@Z PROC	; CvPlot::isPlayerCityRadius, COMDAT
; _this$ = ecx

; 8252 : 	return (getPlayerCityRadiusCount(eIndex) > 0);

	mov	eax, DWORD PTR [ecx+152]
	mov	edx, DWORD PTR _eIndex$[esp-4]
	xor	ecx, ecx
	cmp	BYTE PTR [edx+eax], cl
	setg	cl
	mov	al, cl

; 8253 : }

	ret	4
?isPlayerCityRadius@CvPlot@@QBE_NW4PlayerTypes@@@Z ENDP	; CvPlot::isPlayerCityRadius
_TEXT	ENDS
PUBLIC	?changePlayerCityRadiusCount@CvPlot@@QAEXW4PlayerTypes@@H@Z ; CvPlot::changePlayerCityRadiusCount
; Function compile flags: /Ogtpy
;	COMDAT ?changePlayerCityRadiusCount@CvPlot@@QAEXW4PlayerTypes@@H@Z
_TEXT	SEGMENT
_eIndex$ = 8						; size = 4
_iChange$ = 12						; size = 4
?changePlayerCityRadiusCount@CvPlot@@QAEXW4PlayerTypes@@H@Z PROC ; CvPlot::changePlayerCityRadiusCount, COMDAT
; _this$ = ecx

; 8259 : 	CvAssertMsg(eIndex >= 0, "eIndex is expected to be non-negative (invalid Index)");
; 8260 : 	CvAssertMsg(eIndex < MAX_PLAYERS, "eIndex is expected to be within maximum bounds (invalid Index)");
; 8261 : 
; 8262 : 	if(0 != iChange)

	mov	edx, DWORD PTR _iChange$[esp-4]
	test	edx, edx
	je	SHORT $LN1@changePlay

; 8263 : 	{
; 8264 : 		m_aiPlayerCityRadiusCount[eIndex] += iChange;

	mov	eax, DWORD PTR [ecx+152]
	mov	ecx, DWORD PTR _eIndex$[esp-4]
	add	eax, ecx
	add	BYTE PTR [eax], dl
$LN1@changePlay:

; 8265 : 		CvAssert(getPlayerCityRadiusCount(eIndex) >= 0);
; 8266 : 	}
; 8267 : }

	ret	8
?changePlayerCityRadiusCount@CvPlot@@QAEXW4PlayerTypes@@H@Z ENDP ; CvPlot::changePlayerCityRadiusCount
_TEXT	ENDS
PUBLIC	?getRevealedOwner@CvPlot@@QBE?AW4PlayerTypes@@W4TeamTypes@@@Z ; CvPlot::getRevealedOwner
; Function compile flags: /Ogtpy
;	COMDAT ?getRevealedOwner@CvPlot@@QBE?AW4PlayerTypes@@W4TeamTypes@@@Z
_TEXT	SEGMENT
_eTeam$ = 8						; size = 4
?getRevealedOwner@CvPlot@@QBE?AW4PlayerTypes@@W4TeamTypes@@@Z PROC ; CvPlot::getRevealedOwner, COMDAT
; _this$ = ecx

; 8440 : 	CvAssertMsg(eTeam >= 0, "eTeam is expected to be non-negative (invalid Index)");
; 8441 : 	CvAssertMsg(eTeam < MAX_TEAMS, "eTeam is expected to be within maximum bounds (invalid Index)");
; 8442 : 
; 8443 : 	return (PlayerTypes)m_aiRevealedOwner[eTeam];

	mov	eax, DWORD PTR [ecx+160]
	mov	ecx, DWORD PTR _eTeam$[esp-4]
	movsx	eax, BYTE PTR [eax+ecx]

; 8444 : }

	ret	4
?getRevealedOwner@CvPlot@@QBE?AW4PlayerTypes@@W4TeamTypes@@@Z ENDP ; CvPlot::getRevealedOwner
_TEXT	ENDS
PUBLIC	?isRiverCrossing@CvPlot@@QBE_NW4DirectionTypes@@@Z ; CvPlot::isRiverCrossing
; Function compile flags: /Ogtpy
;	COMDAT ?isRiverCrossing@CvPlot@@QBE_NW4DirectionTypes@@@Z
_TEXT	SEGMENT
_eIndex$ = 8						; size = 4
?isRiverCrossing@CvPlot@@QBE_NW4DirectionTypes@@@Z PROC	; CvPlot::isRiverCrossing, COMDAT
; _this$ = ecx

; 8532 : {

	mov	eax, ecx

; 8533 : 	CvAssertMsg(eIndex < NUM_DIRECTION_TYPES, "eIndex is expected to be within maximum bounds (invalid Index)");
; 8534 : 
; 8535 : 	if(eIndex == NO_DIRECTION)

	mov	ecx, DWORD PTR _eIndex$[esp-4]
	cmp	ecx, -1
	jne	SHORT $LN1@isRiverCro

; 8536 : 	{
; 8537 : 		return false;

	xor	al, al

; 8543 : }

	ret	4
$LN1@isRiverCro:

; 8538 : 	}
; 8539 : 
; 8540 : 	int iFlowMask = 1 << eIndex;
; 8541 : 
; 8542 : 	return ((m_cRiverCrossing & iFlowMask) != 0);

	movsx	eax, BYTE PTR [eax+460]
	mov	edx, 1
	shl	edx, cl
	and	eax, edx
	neg	eax
	sbb	eax, eax
	neg	eax

; 8543 : }

	ret	4
?isRiverCrossing@CvPlot@@QBE_NW4DirectionTypes@@@Z ENDP	; CvPlot::isRiverCrossing
_TEXT	ENDS
PUBLIC	?IsResourceForceReveal@CvPlot@@QBE_NW4TeamTypes@@@Z ; CvPlot::IsResourceForceReveal
; Function compile flags: /Ogtpy
;	COMDAT ?IsResourceForceReveal@CvPlot@@QBE_NW4TeamTypes@@@Z
_TEXT	SEGMENT
_eTeam$ = 8						; size = 4
?IsResourceForceReveal@CvPlot@@QBE_NW4TeamTypes@@@Z PROC ; CvPlot::IsResourceForceReveal, COMDAT
; _this$ = ecx

; 8635 : 	return m_abResourceForceReveal[eTeam];

	mov	eax, DWORD PTR [ecx+176]
	mov	ecx, DWORD PTR _eTeam$[esp-4]
	mov	al, BYTE PTR [ecx+eax]

; 8636 : }

	ret	4
?IsResourceForceReveal@CvPlot@@QBE_NW4TeamTypes@@@Z ENDP ; CvPlot::IsResourceForceReveal
_TEXT	ENDS
PUBLIC	?SetResourceForceReveal@CvPlot@@QAEXW4TeamTypes@@_N@Z ; CvPlot::SetResourceForceReveal
; Function compile flags: /Ogtpy
;	COMDAT ?SetResourceForceReveal@CvPlot@@QAEXW4TeamTypes@@_N@Z
_TEXT	SEGMENT
_eTeam$ = 8						; size = 4
_bValue$ = 12						; size = 1
?SetResourceForceReveal@CvPlot@@QAEXW4TeamTypes@@_N@Z PROC ; CvPlot::SetResourceForceReveal, COMDAT
; _this$ = ecx

; 8642 : 	CvAssertMsg(eTeam >= 0, "eTeam is expected to be non-negative (invalid Index)");
; 8643 : 	CvAssertMsg(eTeam < MAX_TEAMS, "eTeam is expected to be within maximum bounds (invalid Index)");
; 8644 : 	m_abResourceForceReveal[eTeam] = bValue;

	mov	eax, DWORD PTR [ecx+176]
	mov	cl, BYTE PTR _bValue$[esp-4]
	mov	edx, DWORD PTR _eTeam$[esp-4]
	mov	BYTE PTR [edx+eax], cl

; 8645 : }

	ret	8
?SetResourceForceReveal@CvPlot@@QAEXW4TeamTypes@@_N@Z ENDP ; CvPlot::SetResourceForceReveal
_TEXT	ENDS
PUBLIC	?IsNoSettling@CvPlot@@QBE_NW4PlayerTypes@@@Z	; CvPlot::IsNoSettling
; Function compile flags: /Ogtpy
;	COMDAT ?IsNoSettling@CvPlot@@QBE_NW4PlayerTypes@@@Z
_TEXT	SEGMENT
_eMajor$ = 8						; size = 4
?IsNoSettling@CvPlot@@QBE_NW4PlayerTypes@@@Z PROC	; CvPlot::IsNoSettling, COMDAT
; _this$ = ecx

; 8650 : 	CvAssertMsg(eMajor >= 0, "eMajor is expected to be non-negative (invalid Index)");
; 8651 : 	CvAssertMsg(eMajor < MAX_MAJOR_CIVS, "eMajor is expected to be within maximum bounds (invalid Index)");
; 8652 : 
; 8653 : 	return m_abNoSettling[eMajor];

	mov	eax, DWORD PTR [ecx+172]
	mov	ecx, DWORD PTR _eMajor$[esp-4]
	mov	al, BYTE PTR [ecx+eax]

; 8654 : }

	ret	4
?IsNoSettling@CvPlot@@QBE_NW4PlayerTypes@@@Z ENDP	; CvPlot::IsNoSettling
_TEXT	ENDS
PUBLIC	?SetNoSettling@CvPlot@@QAEXW4PlayerTypes@@_N@Z	; CvPlot::SetNoSettling
; Function compile flags: /Ogtpy
;	COMDAT ?SetNoSettling@CvPlot@@QAEXW4PlayerTypes@@_N@Z
_TEXT	SEGMENT
_eMajor$ = 8						; size = 4
_bValue$ = 12						; size = 1
?SetNoSettling@CvPlot@@QAEXW4PlayerTypes@@_N@Z PROC	; CvPlot::SetNoSettling, COMDAT
; _this$ = ecx

; 8659 : 	CvAssertMsg(eMajor >= 0, "eMajor is expected to be non-negative (invalid Index)");
; 8660 : 	CvAssertMsg(eMajor < MAX_MAJOR_CIVS, "eMajor is expected to be within maximum bounds (invalid Index)");
; 8661 : 
; 8662 : 	if(bValue != IsNoSettling(eMajor))

	mov	eax, DWORD PTR [ecx+172]
	mov	ecx, DWORD PTR _eMajor$[esp-4]
	add	eax, ecx
	mov	cl, BYTE PTR _bValue$[esp-4]
	cmp	cl, BYTE PTR [eax]
	je	SHORT $LN1@SetNoSettl

; 8663 : 		m_abNoSettling[eMajor] = bValue;

	mov	BYTE PTR [eax], cl
$LN1@SetNoSettl:

; 8664 : }

	ret	8
?SetNoSettling@CvPlot@@QAEXW4PlayerTypes@@_N@Z ENDP	; CvPlot::SetNoSettling
_TEXT	ENDS
PUBLIC	?getRevealedImprovementType@CvPlot@@QBE?AW4ImprovementTypes@@W4TeamTypes@@@Z ; CvPlot::getRevealedImprovementType
; Function compile flags: /Ogtpy
;	COMDAT ?getRevealedImprovementType@CvPlot@@QBE?AW4ImprovementTypes@@W4TeamTypes@@@Z
_TEXT	SEGMENT
_eTeam$ = 8						; size = 4
?getRevealedImprovementType@CvPlot@@QBE?AW4ImprovementTypes@@W4TeamTypes@@@Z PROC ; CvPlot::getRevealedImprovementType, COMDAT
; _this$ = ecx

; 9148 : 	CvAssertMsg(eTeam >= 0, "eTeam is expected to be non-negative (invalid Index)");
; 9149 : 	CvAssertMsg(eTeam < MAX_TEAMS, "eTeam is expected to be within maximum bounds (invalid Index)");
; 9150 : 
; 9151 : 	return (ImprovementTypes)m_aeRevealedImprovementType[eTeam];

	mov	eax, DWORD PTR [ecx+164]
	mov	ecx, DWORD PTR _eTeam$[esp-4]
	movsx	eax, WORD PTR [eax+ecx*2]

; 9152 : }

	ret	4
?getRevealedImprovementType@CvPlot@@QBE?AW4ImprovementTypes@@W4TeamTypes@@@Z ENDP ; CvPlot::getRevealedImprovementType
_TEXT	ENDS
PUBLIC	?getRevealedRouteType@CvPlot@@QBE?AW4RouteTypes@@W4TeamTypes@@@Z ; CvPlot::getRevealedRouteType
; Function compile flags: /Ogtpy
;	COMDAT ?getRevealedRouteType@CvPlot@@QBE?AW4RouteTypes@@W4TeamTypes@@@Z
_TEXT	SEGMENT
_eTeam$ = 8						; size = 4
?getRevealedRouteType@CvPlot@@QBE?AW4RouteTypes@@W4TeamTypes@@@Z PROC ; CvPlot::getRevealedRouteType, COMDAT
; _this$ = ecx

; 9203 : 	CvAssertMsg(eTeam >= 0, "eTeam is expected to be non-negative (invalid Index)");
; 9204 : 	CvAssertMsg(eTeam < MAX_TEAMS, "eTeam is expected to be within maximum bounds (invalid Index)");
; 9205 : 
; 9206 : 	return (RouteTypes)m_aeRevealedRouteType[eTeam];

	mov	eax, DWORD PTR [ecx+168]
	mov	ecx, DWORD PTR _eTeam$[esp-4]
	movsx	eax, WORD PTR [eax+ecx*2]

; 9207 : }

	ret	4
?getRevealedRouteType@CvPlot@@QBE?AW4RouteTypes@@W4TeamTypes@@@Z ENDP ; CvPlot::getRevealedRouteType
_TEXT	ENDS
PUBLIC	?SilentlyResetAllBuildProgress@CvPlot@@QAEXXZ	; CvPlot::SilentlyResetAllBuildProgress
EXTRN	?getImprovement@CvBuildInfo@@QBEHXZ:PROC	; CvBuildInfo::getImprovement
EXTRN	?getBuildInfo@CvGlobals@@QAEPAVCvBuildInfo@@W4BuildTypes@@@Z:PROC ; CvGlobals::getBuildInfo
EXTRN	?getNumBuildInfos@CvGlobals@@QAEHXZ:PROC	; CvGlobals::getNumBuildInfos
EXTRN	?gGlobals@@3VCvGlobals@@A:BYTE			; gGlobals
; Function compile flags: /Ogtpy
;	COMDAT ?SilentlyResetAllBuildProgress@CvPlot@@QAEXXZ
_TEXT	SEGMENT
?SilentlyResetAllBuildProgress@CvPlot@@QAEXXZ PROC	; CvPlot::SilentlyResetAllBuildProgress, COMDAT
; _this$ = ecx

; 9230 : {

	push	ebx
	mov	ebx, ecx

; 9231 : 	if(NULL != m_paiBuildProgress)  // if it doesn't exist no point in clearing it out

	cmp	DWORD PTR [ebx+184], 0
	je	SHORT $LN3@SilentlyRe
	push	esi
	push	edi

; 9232 : 	{
; 9233 : 		int iNumBuildInfos = GC.getNumBuildInfos();

	mov	ecx, OFFSET ?gGlobals@@3VCvGlobals@@A	; gGlobals
	call	?getNumBuildInfos@CvGlobals@@QAEHXZ	; CvGlobals::getNumBuildInfos
	mov	edi, eax

; 9234 : 		for(int iThisBuild = 0 ; iThisBuild < iNumBuildInfos; iThisBuild++)

	xor	esi, esi
	test	edi, edi
	jle	SHORT $LN11@SilentlyRe
$LL5@SilentlyRe:

; 9235 : 		{
; 9236 : 			CvBuildInfo* pkBuildInfo = GC.getBuildInfo((BuildTypes) iThisBuild);

	push	esi
	mov	ecx, OFFSET ?gGlobals@@3VCvGlobals@@A	; gGlobals
	call	?getBuildInfo@CvGlobals@@QAEPAVCvBuildInfo@@W4BuildTypes@@@Z ; CvGlobals::getBuildInfo

; 9237 : 			if(!pkBuildInfo)

	test	eax, eax
	je	SHORT $LN4@SilentlyRe

; 9238 : 			{
; 9239 : 				continue;
; 9240 : 			}
; 9241 : 
; 9242 : 			// Is this an Improvement?
; 9243 : 			if(pkBuildInfo->getImprovement() != NO_IMPROVEMENT)

	mov	ecx, eax
	call	?getImprovement@CvBuildInfo@@QBEHXZ	; CvBuildInfo::getImprovement
	cmp	eax, -1
	je	SHORT $LN4@SilentlyRe

; 9244 : 			{
; 9245 : 				m_paiBuildProgress[iThisBuild] = 0;

	mov	eax, DWORD PTR [ebx+184]
	xor	ecx, ecx
	mov	WORD PTR [eax+esi*2], cx
$LN4@SilentlyRe:
	inc	esi
	cmp	esi, edi
	jl	SHORT $LL5@SilentlyRe
$LN11@SilentlyRe:
	pop	edi
	pop	esi
$LN3@SilentlyRe:
	pop	ebx

; 9246 : 			}
; 9247 : 		}
; 9248 : 	}
; 9249 : }

	ret	0
?SilentlyResetAllBuildProgress@CvPlot@@QAEXXZ ENDP	; CvPlot::SilentlyResetAllBuildProgress
_TEXT	ENDS
PUBLIC	?getBuildProgress@CvPlot@@QBEHW4BuildTypes@@@Z	; CvPlot::getBuildProgress
; Function compile flags: /Ogtpy
;	COMDAT ?getBuildProgress@CvPlot@@QBEHW4BuildTypes@@@Z
_TEXT	SEGMENT
_eBuild$ = 8						; size = 4
?getBuildProgress@CvPlot@@QBEHW4BuildTypes@@@Z PROC	; CvPlot::getBuildProgress, COMDAT
; _this$ = ecx

; 9255 : 	if(NULL == m_paiBuildProgress)

	mov	eax, DWORD PTR [ecx+184]
	test	eax, eax
	jne	SHORT $LN1@getBuildPr

; 9261 : }

	ret	4
$LN1@getBuildPr:

; 9256 : 	{
; 9257 : 		return 0;
; 9258 : 	}
; 9259 : 
; 9260 : 	return m_paiBuildProgress[eBuild];

	mov	ecx, DWORD PTR _eBuild$[esp-4]
	movsx	eax, WORD PTR [eax+ecx*2]

; 9261 : }

	ret	4
?getBuildProgress@CvPlot@@QBEHW4BuildTypes@@@Z ENDP	; CvPlot::getBuildProgress
_TEXT	ENDS
PUBLIC	?getAnyBuildProgress@CvPlot@@QBE_NXZ		; CvPlot::getAnyBuildProgress
; Function compile flags: /Ogtpy
;	COMDAT ?getAnyBuildProgress@CvPlot@@QBE_NXZ
_TEXT	SEGMENT
?getAnyBuildProgress@CvPlot@@QBE_NXZ PROC		; CvPlot::getAnyBuildProgress, COMDAT
; _this$ = ecx

; 9266 : 	return (NULL != m_paiBuildProgress);

	xor	eax, eax
	cmp	DWORD PTR [ecx+184], eax
	setne	al

; 9267 : }

	ret	0
?getAnyBuildProgress@CvPlot@@QBE_NXZ ENDP		; CvPlot::getAnyBuildProgress
_TEXT	ENDS
PUBLIC	?getInvisibleVisibilityCount@CvPlot@@QBEHW4TeamTypes@@W4InvisibleTypes@@@Z ; CvPlot::getInvisibleVisibilityCount
; Function compile flags: /Ogtpy
;	COMDAT ?getInvisibleVisibilityCount@CvPlot@@QBEHW4TeamTypes@@W4InvisibleTypes@@@Z
_TEXT	SEGMENT
_eTeam$ = 8						; size = 4
_eInvisible$ = 12					; size = 4
?getInvisibleVisibilityCount@CvPlot@@QBEHW4TeamTypes@@W4InvisibleTypes@@@Z PROC ; CvPlot::getInvisibleVisibilityCount, COMDAT
; _this$ = ecx

; 9563 : 	CvAssertMsg(eTeam >= 0, "eTeam is expected to be non-negative (invalid Index)");
; 9564 : 	CvAssertMsg(eTeam < MAX_TEAMS, "eTeam is expected to be within maximum bounds (invalid Index)");
; 9565 : 	CvAssertMsg(eInvisible >= 0, "eInvisible is expected to be non-negative (invalid Index)");
; 9566 : 	CvAssertMsg(eInvisible < NUM_INVISIBLE_TYPES, "eInvisible is expected to be within maximum bounds (invalid Index)");
; 9567 : 	if(eTeam < 0 || eTeam >= MAX_TEAMS) return 0;

	mov	eax, DWORD PTR _eTeam$[esp-4]
	cmp	eax, 63					; 0000003fH
	ja	SHORT $LN3@getInvisib

; 9568 : 	if(eInvisible < 0 || eInvisible >= NUM_INVISIBLE_TYPES) return 0;

	mov	edx, DWORD PTR _eInvisible$[esp-4]
	test	edx, edx
	ja	SHORT $LN3@getInvisib

; 9569 : 	return m_apaiInvisibleVisibilityCount[eTeam][eInvisible];

	add	eax, edx
	movsx	eax, WORD PTR [ecx+eax*2+196]

; 9570 : }

	ret	8
$LN3@getInvisib:

; 9563 : 	CvAssertMsg(eTeam >= 0, "eTeam is expected to be non-negative (invalid Index)");
; 9564 : 	CvAssertMsg(eTeam < MAX_TEAMS, "eTeam is expected to be within maximum bounds (invalid Index)");
; 9565 : 	CvAssertMsg(eInvisible >= 0, "eInvisible is expected to be non-negative (invalid Index)");
; 9566 : 	CvAssertMsg(eInvisible < NUM_INVISIBLE_TYPES, "eInvisible is expected to be within maximum bounds (invalid Index)");
; 9567 : 	if(eTeam < 0 || eTeam >= MAX_TEAMS) return 0;

	xor	eax, eax

; 9570 : }

	ret	8
?getInvisibleVisibilityCount@CvPlot@@QBEHW4TeamTypes@@W4InvisibleTypes@@@Z ENDP ; CvPlot::getInvisibleVisibilityCount
_TEXT	ENDS
PUBLIC	?isInvisibleVisible@CvPlot@@QBE_NW4TeamTypes@@W4InvisibleTypes@@@Z ; CvPlot::isInvisibleVisible
; Function compile flags: /Ogtpy
;	COMDAT ?isInvisibleVisible@CvPlot@@QBE_NW4TeamTypes@@W4InvisibleTypes@@@Z
_TEXT	SEGMENT
_eTeam$ = 8						; size = 4
_eInvisible$ = 12					; size = 4
?isInvisibleVisible@CvPlot@@QBE_NW4TeamTypes@@W4InvisibleTypes@@@Z PROC ; CvPlot::isInvisibleVisible, COMDAT
; _this$ = ecx

; 9576 : 	return (getInvisibleVisibilityCount(eTeam, eInvisible) > 0);

	mov	edx, DWORD PTR _eTeam$[esp-4]
	cmp	edx, 63					; 0000003fH
	ja	SHORT $LN5@isInvisibl
	mov	eax, DWORD PTR _eInvisible$[esp-4]
	test	eax, eax
	ja	SHORT $LN5@isInvisibl
	add	edx, eax
	movsx	eax, WORD PTR [ecx+edx*2+196]
	xor	ecx, ecx
	test	eax, eax
	setg	cl
	mov	al, cl

; 9577 : }

	ret	8

; 9576 : 	return (getInvisibleVisibilityCount(eTeam, eInvisible) > 0);

$LN5@isInvisibl:
	xor	eax, eax
	xor	ecx, ecx
	test	eax, eax
	setg	cl
	mov	al, cl

; 9577 : }

	ret	8
?isInvisibleVisible@CvPlot@@QBE_NW4TeamTypes@@W4InvisibleTypes@@@Z ENDP ; CvPlot::isInvisibleVisible
_TEXT	ENDS
PUBLIC	??0CvString@@QAE@XZ				; CvString::CvString
EXTRN	__imp_??0?$basic_string@DU?$char_traits@D@std@@V?$allocator@D@2@@std@@QAE@XZ:PROC
; Function compile flags: /Ogtpy
; File c:\users\enormousapplepie\documents\github\lekmod\lekmod_dll\cvgamecoredllutil\include\cvstring.h
;	COMDAT ??0CvString@@QAE@XZ
_TEXT	SEGMENT
??0CvString@@QAE@XZ PROC				; CvString::CvString, COMDAT
; _this$ = ecx

; 23   : 	CvString() {}

	push	esi
	mov	esi, ecx
	call	DWORD PTR __imp_??0?$basic_string@DU?$char_traits@D@std@@V?$allocator@D@2@@std@@QAE@XZ
	mov	eax, esi
	pop	esi
	ret	0
??0CvString@@QAE@XZ ENDP				; CvString::CvString
_TEXT	ENDS
PUBLIC	??_C@_00CNPNBAHC@?$AA@				; `string'
PUBLIC	??0CvString@@QAE@PBD@Z				; CvString::CvString
EXTRN	__imp_??0?$basic_string@DU?$char_traits@D@std@@V?$allocator@D@2@@std@@QAE@PBD@Z:PROC
;	COMDAT ??_C@_00CNPNBAHC@?$AA@
CONST	SEGMENT
??_C@_00CNPNBAHC@?$AA@ DB 00H				; `string'
; Function compile flags: /Ogtpy
CONST	ENDS
;	COMDAT ??0CvString@@QAE@PBD@Z
_TEXT	SEGMENT
_s$ = 8							; size = 4
??0CvString@@QAE@PBD@Z PROC				; CvString::CvString, COMDAT
; _this$ = ecx

; 25   : 	CvString(const char* s) : std::string(s ? s : "") {CvAssertMsg(s != NULL, "Passing NULL to std::string; possible heap corruption!");}

	mov	eax, DWORD PTR _s$[esp-4]
	push	esi
	mov	esi, ecx
	test	eax, eax
	jne	SHORT $LN4@CvString
	mov	eax, OFFSET ??_C@_00CNPNBAHC@?$AA@
$LN4@CvString:
	push	eax
	call	DWORD PTR __imp_??0?$basic_string@DU?$char_traits@D@std@@V?$allocator@D@2@@std@@QAE@PBD@Z
	mov	eax, esi
	pop	esi
	ret	4
??0CvString@@QAE@PBD@Z ENDP				; CvString::CvString
_TEXT	ENDS
PUBLIC	??1CvString@@QAE@XZ				; CvString::~CvString
; Function compile flags: /Ogtpy
;	COMDAT ??1CvString@@QAE@XZ
_TEXT	SEGMENT
??1CvString@@QAE@XZ PROC				; CvString::~CvString, COMDAT
; _this$ = ecx

; 28   : 	~CvString() {}

	jmp	DWORD PTR __imp_??1?$basic_string@DU?$char_traits@D@std@@V?$allocator@D@2@@std@@QAE@XZ
??1CvString@@QAE@XZ ENDP				; CvString::~CvString
_TEXT	ENDS
PUBLIC	??BCvString@@QBEPBDXZ				; CvString::operator char const *
; Function compile flags: /Ogtpy
;	COMDAT ??BCvString@@QBEPBDXZ
_TEXT	SEGMENT
??BCvString@@QBEPBDXZ PROC				; CvString::operator char const *, COMDAT
; _this$ = ecx

; 31   : 	operator const char*() const 	{ return c_str(); }												

	jmp	DWORD PTR __imp_?c_str@?$basic_string@DU?$char_traits@D@std@@V?$allocator@D@2@@std@@QBEPBDXZ
??BCvString@@QBEPBDXZ ENDP				; CvString::operator char const *
_TEXT	ENDS
PUBLIC	??0CvPopupInfo@@QAE@W4ButtonPopupTypes@@HHHH_N1@Z ; CvPopupInfo::CvPopupInfo
; Function compile flags: /Ogtpy
; File c:\users\enormousapplepie\documents\github\lekmod\lekmod_dll\cvgamecoredllutil\include\cvstructs.h
;	COMDAT ??0CvPopupInfo@@QAE@W4ButtonPopupTypes@@HHHH_N1@Z
_TEXT	SEGMENT
_buttonPopupType$ = 8					; size = 4
_data1$ = 12						; size = 4
_data2$ = 16						; size = 4
_data3$ = 20						; size = 4
_flags$ = 24						; size = 4
_option1$ = 28						; size = 1
_option2$ = 32						; size = 1
??0CvPopupInfo@@QAE@W4ButtonPopupTypes@@HHHH_N1@Z PROC	; CvPopupInfo::CvPopupInfo, COMDAT
; _this$ = ecx

; 119  : 	{

	mov	edx, DWORD PTR _data2$[esp-4]
	mov	eax, ecx
	mov	ecx, DWORD PTR _data1$[esp-4]
	mov	DWORD PTR [eax], ecx
	mov	ecx, DWORD PTR _data3$[esp-4]
	mov	DWORD PTR [eax+4], edx
	mov	edx, DWORD PTR _flags$[esp-4]
	mov	DWORD PTR [eax+8], ecx
	mov	cl, BYTE PTR _option1$[esp-4]
	mov	DWORD PTR [eax+12], edx
	mov	dl, BYTE PTR _option2$[esp-4]
	mov	BYTE PTR [eax+16], cl
	mov	ecx, DWORD PTR _buttonPopupType$[esp-4]
	mov	BYTE PTR [eax+17], dl
	mov	DWORD PTR [eax+20], ecx

; 120  : 		//Nothing
; 121  : 		szText[0] = 0;

	mov	BYTE PTR [eax+24], 0

; 122  : 	}

	ret	28					; 0000001cH
??0CvPopupInfo@@QAE@W4ButtonPopupTypes@@HHHH_N1@Z ENDP	; CvPopupInfo::CvPopupInfo
_TEXT	ENDS
PUBLIC	??0IDInfo@@QAE@W4PlayerTypes@@H@Z		; IDInfo::IDInfo
; Function compile flags: /Ogtpy
;	COMDAT ??0IDInfo@@QAE@W4PlayerTypes@@H@Z
_TEXT	SEGMENT
_eOwner$ = 8						; size = 4
_iID$ = 12						; size = 4
??0IDInfo@@QAE@W4PlayerTypes@@H@Z PROC			; IDInfo::IDInfo, COMDAT
; _this$ = ecx

; 177  : 	IDInfo(PlayerTypes eOwner=NO_PLAYER, int iID=FFreeList::INVALID_INDEX) : eOwner(eOwner), iID(iID) {}

	mov	edx, DWORD PTR _iID$[esp-4]
	mov	eax, ecx
	mov	ecx, DWORD PTR _eOwner$[esp-4]
	mov	DWORD PTR [eax], ecx
	mov	DWORD PTR [eax+4], edx
	ret	8
??0IDInfo@@QAE@W4PlayerTypes@@H@Z ENDP			; IDInfo::IDInfo
_TEXT	ENDS
PUBLIC	??8IDInfo@@QBE_NABU0@@Z				; IDInfo::operator==
; Function compile flags: /Ogtpy
;	COMDAT ??8IDInfo@@QBE_NABU0@@Z
_TEXT	SEGMENT
_info$ = 8						; size = 4
??8IDInfo@@QBE_NABU0@@Z PROC				; IDInfo::operator==, COMDAT
; _this$ = ecx

; 183  : 		return (eOwner == info.eOwner && iID == info.iID);

	mov	edx, DWORD PTR [ecx]
	mov	eax, DWORD PTR _info$[esp-4]
	cmp	edx, DWORD PTR [eax]
	jne	SHORT $LN3@operator
	mov	ecx, DWORD PTR [ecx+4]
	cmp	ecx, DWORD PTR [eax+4]
	jne	SHORT $LN3@operator
	mov	eax, 1

; 184  : 	}

	ret	4
$LN3@operator:

; 183  : 		return (eOwner == info.eOwner && iID == info.iID);

	xor	eax, eax

; 184  : 	}

	ret	4
??8IDInfo@@QBE_NABU0@@Z ENDP				; IDInfo::operator==
_TEXT	ENDS
PUBLIC	?reset@IDInfo@@QAEXXZ				; IDInfo::reset
; Function compile flags: /Ogtpy
;	COMDAT ?reset@IDInfo@@QAEXXZ
_TEXT	SEGMENT
?reset@IDInfo@@QAEXXZ PROC				; IDInfo::reset, COMDAT
; _this$ = ecx

; 193  : 		eOwner = NO_PLAYER;

	mov	DWORD PTR [ecx], -1

; 194  : 		iID = FFreeList::INVALID_INDEX;

	mov	DWORD PTR [ecx+4], -1

; 195  : 	}

	ret	0
?reset@IDInfo@@QAEXXZ ENDP				; IDInfo::reset
_TEXT	ENDS
PUBLIC	?isLayoutDirty@CvPlot@@QBE_NXZ			; CvPlot::isLayoutDirty
; Function compile flags: /Ogtpy
; File c:\users\enormousapplepie\documents\github\lekmod\lekmod_dll\cvgamecoredll_expansion2\cvplot.cpp
;	COMDAT ?isLayoutDirty@CvPlot@@QBE_NXZ
_TEXT	SEGMENT
?isLayoutDirty@CvPlot@@QBE_NXZ PROC			; CvPlot::isLayoutDirty, COMDAT
; _this$ = ecx

; 10441: 	return m_bPlotLayoutDirty;

	mov	al, BYTE PTR [ecx+462]
	and	al, 1

; 10442: }

	ret	0
?isLayoutDirty@CvPlot@@QBE_NXZ ENDP			; CvPlot::isLayoutDirty
_TEXT	ENDS
PUBLIC	??3ICvUnknown@@SGXPAX@Z				; ICvUnknown::operator delete
; Function compile flags: /Ogtpy
; File c:\users\enormousapplepie\documents\github\lekmod\lekmod_dll\cvgamecoredllutil\include\cvdllinterfaces.h
;	COMDAT ??3ICvUnknown@@SGXPAX@Z
_TEXT	SEGMENT
_p$ = 8							; size = 4
??3ICvUnknown@@SGXPAX@Z PROC				; ICvUnknown::operator delete, COMDAT

; 310  : 		if (p)

	mov	eax, DWORD PTR _p$[esp-4]
	test	eax, eax
	je	SHORT $LN1@operator@2

; 311  : 		{
; 312  : 			ICvUnknown* inst = (ICvUnknown*)(p);
; 313  : 			inst->Destroy();

	mov	ecx, DWORD PTR [eax]
	mov	edx, DWORD PTR [ecx+4]
	mov	DWORD PTR _p$[esp-4], eax
	jmp	edx
$LN1@operator@2:

; 314  : 		}
; 315  : 	}

	ret	4
??3ICvUnknown@@SGXPAX@Z ENDP				; ICvUnknown::operator delete
_TEXT	ENDS
PUBLIC	?GetBuilderAIScratchPadPlayer@CvPlot@@QBE?AW4PlayerTypes@@XZ ; CvPlot::GetBuilderAIScratchPadPlayer
; Function compile flags: /Ogtpy
; File c:\users\enormousapplepie\documents\github\lekmod\lekmod_dll\cvgamecoredll_expansion2\cvplot.cpp
;	COMDAT ?GetBuilderAIScratchPadPlayer@CvPlot@@QBE?AW4PlayerTypes@@XZ
_TEXT	SEGMENT
?GetBuilderAIScratchPadPlayer@CvPlot@@QBE?AW4PlayerTypes@@XZ PROC ; CvPlot::GetBuilderAIScratchPadPlayer, COMDAT
; _this$ = ecx

; 11134: 	return (PlayerTypes)m_cBuilderAIScratchPadPlayer;

	movsx	eax, BYTE PTR [ecx+368]

; 11135: }

	ret	0
?GetBuilderAIScratchPadPlayer@CvPlot@@QBE?AW4PlayerTypes@@XZ ENDP ; CvPlot::GetBuilderAIScratchPadPlayer
_TEXT	ENDS
PUBLIC	?SetBuilderAIScratchPadPlayer@CvPlot@@QAEXW4PlayerTypes@@@Z ; CvPlot::SetBuilderAIScratchPadPlayer
; Function compile flags: /Ogtpy
;	COMDAT ?SetBuilderAIScratchPadPlayer@CvPlot@@QAEXW4PlayerTypes@@@Z
_TEXT	SEGMENT
_ePlayer$ = 8						; size = 4
?SetBuilderAIScratchPadPlayer@CvPlot@@QAEXW4PlayerTypes@@@Z PROC ; CvPlot::SetBuilderAIScratchPadPlayer, COMDAT
; _this$ = ecx

; 11140: 	m_cBuilderAIScratchPadPlayer = ePlayer;

	mov	al, BYTE PTR _ePlayer$[esp-4]
	mov	BYTE PTR [ecx+368], al

; 11141: }

	ret	4
?SetBuilderAIScratchPadPlayer@CvPlot@@QAEXW4PlayerTypes@@@Z ENDP ; CvPlot::SetBuilderAIScratchPadPlayer
_TEXT	ENDS
PUBLIC	?GetBuilderAIScratchPadTurn@CvPlot@@QBEFXZ	; CvPlot::GetBuilderAIScratchPadTurn
; Function compile flags: /Ogtpy
;	COMDAT ?GetBuilderAIScratchPadTurn@CvPlot@@QBEFXZ
_TEXT	SEGMENT
?GetBuilderAIScratchPadTurn@CvPlot@@QBEFXZ PROC		; CvPlot::GetBuilderAIScratchPadTurn, COMDAT
; _this$ = ecx

; 11150: 	return m_sBuilderAIScratchPadTurn;

	mov	ax, WORD PTR [ecx+370]

; 11151: }

	ret	0
?GetBuilderAIScratchPadTurn@CvPlot@@QBEFXZ ENDP		; CvPlot::GetBuilderAIScratchPadTurn
_TEXT	ENDS
PUBLIC	?SetBuilderAIScratchPadTurn@CvPlot@@QAEXF@Z	; CvPlot::SetBuilderAIScratchPadTurn
; Function compile flags: /Ogtpy
;	COMDAT ?SetBuilderAIScratchPadTurn@CvPlot@@QAEXF@Z
_TEXT	SEGMENT
_sNewTurnValue$ = 8					; size = 2
?SetBuilderAIScratchPadTurn@CvPlot@@QAEXF@Z PROC	; CvPlot::SetBuilderAIScratchPadTurn, COMDAT
; _this$ = ecx

; 11160: 	m_sBuilderAIScratchPadTurn = sNewTurnValue;

	mov	ax, WORD PTR _sNewTurnValue$[esp-4]
	mov	WORD PTR [ecx+370], ax

; 11161: }

	ret	4
?SetBuilderAIScratchPadTurn@CvPlot@@QAEXF@Z ENDP	; CvPlot::SetBuilderAIScratchPadTurn
_TEXT	ENDS
PUBLIC	?GetBuilderAIScratchPadRoute@CvPlot@@QBE?AW4RouteTypes@@XZ ; CvPlot::GetBuilderAIScratchPadRoute
; Function compile flags: /Ogtpy
;	COMDAT ?GetBuilderAIScratchPadRoute@CvPlot@@QBE?AW4RouteTypes@@XZ
_TEXT	SEGMENT
?GetBuilderAIScratchPadRoute@CvPlot@@QBE?AW4RouteTypes@@XZ PROC ; CvPlot::GetBuilderAIScratchPadRoute, COMDAT
; _this$ = ecx

; 11166: 	return m_eBuilderAIScratchPadRoute;

	mov	eax, DWORD PTR [ecx+376]

; 11167: }

	ret	0
?GetBuilderAIScratchPadRoute@CvPlot@@QBE?AW4RouteTypes@@XZ ENDP ; CvPlot::GetBuilderAIScratchPadRoute
_TEXT	ENDS
PUBLIC	?SetBuilderAIScratchPadRoute@CvPlot@@QAEXW4RouteTypes@@@Z ; CvPlot::SetBuilderAIScratchPadRoute
; Function compile flags: /Ogtpy
;	COMDAT ?SetBuilderAIScratchPadRoute@CvPlot@@QAEXW4RouteTypes@@@Z
_TEXT	SEGMENT
_eRoute$ = 8						; size = 4
?SetBuilderAIScratchPadRoute@CvPlot@@QAEXW4RouteTypes@@@Z PROC ; CvPlot::SetBuilderAIScratchPadRoute, COMDAT
; _this$ = ecx

; 11172: 	m_eBuilderAIScratchPadRoute = eRoute;

	mov	eax, DWORD PTR _eRoute$[esp-4]
	mov	DWORD PTR [ecx+376], eax

; 11173: }

	ret	4
?SetBuilderAIScratchPadRoute@CvPlot@@QAEXW4RouteTypes@@@Z ENDP ; CvPlot::SetBuilderAIScratchPadRoute
_TEXT	ENDS
PUBLIC	?GetBuilderAIScratchPadValue@CvPlot@@QBEFXZ	; CvPlot::GetBuilderAIScratchPadValue
; Function compile flags: /Ogtpy
;	COMDAT ?GetBuilderAIScratchPadValue@CvPlot@@QBEFXZ
_TEXT	SEGMENT
?GetBuilderAIScratchPadValue@CvPlot@@QBEFXZ PROC	; CvPlot::GetBuilderAIScratchPadValue, COMDAT
; _this$ = ecx

; 11182: 	return m_sBuilderAIScratchPadValue;

	mov	ax, WORD PTR [ecx+372]

; 11183: }

	ret	0
?GetBuilderAIScratchPadValue@CvPlot@@QBEFXZ ENDP	; CvPlot::GetBuilderAIScratchPadValue
_TEXT	ENDS
PUBLIC	?SetBuilderAIScratchPadValue@CvPlot@@QAEXF@Z	; CvPlot::SetBuilderAIScratchPadValue
; Function compile flags: /Ogtpy
;	COMDAT ?SetBuilderAIScratchPadValue@CvPlot@@QAEXF@Z
_TEXT	SEGMENT
_sNewValue$ = 8						; size = 2
?SetBuilderAIScratchPadValue@CvPlot@@QAEXF@Z PROC	; CvPlot::SetBuilderAIScratchPadValue, COMDAT
; _this$ = ecx

; 11192: 	m_sBuilderAIScratchPadValue = sNewValue;

	mov	ax, WORD PTR _sNewValue$[esp-4]
	mov	WORD PTR [ecx+372], ax

; 11193: }

	ret	4
?SetBuilderAIScratchPadValue@CvPlot@@QAEXF@Z ENDP	; CvPlot::SetBuilderAIScratchPadValue
_TEXT	ENDS
PUBLIC	?GetContinentType@CvPlot@@QBEDXZ		; CvPlot::GetContinentType
; Function compile flags: /Ogtpy
;	COMDAT ?GetContinentType@CvPlot@@QBEDXZ
_TEXT	SEGMENT
?GetContinentType@CvPlot@@QBEDXZ PROC			; CvPlot::GetContinentType, COMDAT
; _this$ = ecx

; 11212: 	return m_cContinentType;

	mov	al, BYTE PTR [ecx+459]

; 11213: }

	ret	0
?GetContinentType@CvPlot@@QBEDXZ ENDP			; CvPlot::GetContinentType
_TEXT	ENDS
PUBLIC	?SetContinentType@CvPlot@@QAEXD@Z		; CvPlot::SetContinentType
; Function compile flags: /Ogtpy
;	COMDAT ?SetContinentType@CvPlot@@QAEXD@Z
_TEXT	SEGMENT
_cContinent$ = 8					; size = 1
?SetContinentType@CvPlot@@QAEXD@Z PROC			; CvPlot::SetContinentType, COMDAT
; _this$ = ecx

; 11222: 	m_cContinentType = cContinent;

	mov	al, BYTE PTR _cContinent$[esp-4]
	mov	BYTE PTR [ecx+459], al

; 11223: }

	ret	4
?SetContinentType@CvPlot@@QAEXD@Z ENDP			; CvPlot::SetContinentType
_TEXT	ENDS
PUBLIC	?getSyncArchive@CvPlot@@QAEAAVFAutoArchive@@XZ	; CvPlot::getSyncArchive
; Function compile flags: /Ogtpy
;	COMDAT ?getSyncArchive@CvPlot@@QAEAAVFAutoArchive@@XZ
_TEXT	SEGMENT
?getSyncArchive@CvPlot@@QAEAAVFAutoArchive@@XZ PROC	; CvPlot::getSyncArchive, COMDAT
; _this$ = ecx

; 11228: 	return m_syncArchive;

	lea	eax, DWORD PTR [ecx+392]

; 11229: }

	ret	0
?getSyncArchive@CvPlot@@QAEAAVFAutoArchive@@XZ ENDP	; CvPlot::getSyncArchive
_TEXT	ENDS
PUBLIC	?getSyncArchive@CvPlot@@QBEABVFAutoArchive@@XZ	; CvPlot::getSyncArchive
; Function compile flags: /Ogtpy
;	COMDAT ?getSyncArchive@CvPlot@@QBEABVFAutoArchive@@XZ
_TEXT	SEGMENT
?getSyncArchive@CvPlot@@QBEABVFAutoArchive@@XZ PROC	; CvPlot::getSyncArchive, COMDAT
; _this$ = ecx

; 11234: 	return m_syncArchive;

	lea	eax, DWORD PTR [ecx+392]

; 11235: }

	ret	0
?getSyncArchive@CvPlot@@QBEABVFAutoArchive@@XZ ENDP	; CvPlot::getSyncArchive
_TEXT	ENDS
PUBLIC	?ClearArchaeologicalRecord@CvPlot@@QAEXXZ	; CvPlot::ClearArchaeologicalRecord
; Function compile flags: /Ogtpy
;	COMDAT ?ClearArchaeologicalRecord@CvPlot@@QAEXXZ
_TEXT	SEGMENT
?ClearArchaeologicalRecord@CvPlot@@QAEXXZ PROC		; CvPlot::ClearArchaeologicalRecord, COMDAT
; _this$ = ecx

; 11350: 	m_kArchaeologyData.m_eArtifactType = NO_GREAT_WORK_ARTIFACT_CLASS;
; 11351: 	m_kArchaeologyData.m_ePlayer1 = NO_PLAYER;

	or	eax, -1
	mov	DWORD PTR [ecx+464], 0
	mov	DWORD PTR [ecx+472], eax

; 11352: 	m_kArchaeologyData.m_ePlayer2 = NO_PLAYER;

	mov	DWORD PTR [ecx+476], eax

; 11353: 	m_kArchaeologyData.m_eEra = NO_ERA;

	mov	DWORD PTR [ecx+468], eax

; 11354: }

	ret	0
?ClearArchaeologicalRecord@CvPlot@@QAEXXZ ENDP		; CvPlot::ClearArchaeologicalRecord
_TEXT	ENDS
PUBLIC	?GetArchaeologicalRecord@CvPlot@@QBE?AUCvArchaeologyData@@XZ ; CvPlot::GetArchaeologicalRecord
; Function compile flags: /Ogtpy
;	COMDAT ?GetArchaeologicalRecord@CvPlot@@QBE?AUCvArchaeologyData@@XZ
_TEXT	SEGMENT
___$ReturnUdt$ = 8					; size = 4
?GetArchaeologicalRecord@CvPlot@@QBE?AUCvArchaeologyData@@XZ PROC ; CvPlot::GetArchaeologicalRecord, COMDAT
; _this$ = ecx

; 11359: 	return m_kArchaeologyData; // return a copy of the record

	mov	eax, DWORD PTR ___$ReturnUdt$[esp-4]
	mov	edx, DWORD PTR [ecx+464]
	mov	DWORD PTR [eax], edx
	mov	edx, DWORD PTR [ecx+468]
	mov	DWORD PTR [eax+4], edx
	mov	edx, DWORD PTR [ecx+472]
	mov	DWORD PTR [eax+8], edx
	mov	edx, DWORD PTR [ecx+476]
	mov	ecx, DWORD PTR [ecx+480]
	mov	DWORD PTR [eax+12], edx
	mov	DWORD PTR [eax+16], ecx

; 11360: }

	ret	4
?GetArchaeologicalRecord@CvPlot@@QBE?AUCvArchaeologyData@@XZ ENDP ; CvPlot::GetArchaeologicalRecord
_TEXT	ENDS
PUBLIC	?SetArtifactType@CvPlot@@QAEXW4GreatWorkArtifactClass@@@Z ; CvPlot::SetArtifactType
; Function compile flags: /Ogtpy
;	COMDAT ?SetArtifactType@CvPlot@@QAEXW4GreatWorkArtifactClass@@@Z
_TEXT	SEGMENT
_eType$ = 8						; size = 4
?SetArtifactType@CvPlot@@QAEXW4GreatWorkArtifactClass@@@Z PROC ; CvPlot::SetArtifactType, COMDAT
; _this$ = ecx

; 11365: 	m_kArchaeologyData.m_eArtifactType = eType;

	mov	eax, DWORD PTR _eType$[esp-4]
	mov	DWORD PTR [ecx+464], eax

; 11366: }

	ret	4
?SetArtifactType@CvPlot@@QAEXW4GreatWorkArtifactClass@@@Z ENDP ; CvPlot::SetArtifactType
_TEXT	ENDS
PUBLIC	?SetArtifactGreatWork@CvPlot@@QAEXW4GreatWorkType@@@Z ; CvPlot::SetArtifactGreatWork
; Function compile flags: /Ogtpy
;	COMDAT ?SetArtifactGreatWork@CvPlot@@QAEXW4GreatWorkType@@@Z
_TEXT	SEGMENT
_eWork$ = 8						; size = 4
?SetArtifactGreatWork@CvPlot@@QAEXW4GreatWorkType@@@Z PROC ; CvPlot::SetArtifactGreatWork, COMDAT
; _this$ = ecx

; 11371: 	m_kArchaeologyData.m_eWork = eWork;

	mov	eax, DWORD PTR _eWork$[esp-4]
	mov	DWORD PTR [ecx+480], eax

; 11372: }

	ret	4
?SetArtifactGreatWork@CvPlot@@QAEXW4GreatWorkType@@@Z ENDP ; CvPlot::SetArtifactGreatWork
_TEXT	ENDS
PUBLIC	?HasWrittenArtifact@CvPlot@@QBE_NXZ		; CvPlot::HasWrittenArtifact
EXTRN	?getARTIFACT_WRITING@CvTypes@@YA?BW4GreatWorkArtifactClass@@XZ:PROC ; CvTypes::getARTIFACT_WRITING
; Function compile flags: /Ogtpy
;	COMDAT ?HasWrittenArtifact@CvPlot@@QBE_NXZ
_TEXT	SEGMENT
?HasWrittenArtifact@CvPlot@@QBE_NXZ PROC		; CvPlot::HasWrittenArtifact, COMDAT
; _this$ = ecx

; 11376: {

	push	ebx
	push	esi

; 11377: 	bool bRtnValue = false;
; 11378: 	GreatWorkArtifactClass eArtifactClass = m_kArchaeologyData.m_eArtifactType;

	mov	esi, DWORD PTR [ecx+464]
	xor	bl, bl

; 11379: 	if (eArtifactClass == CvTypes::getARTIFACT_WRITING())

	call	?getARTIFACT_WRITING@CvTypes@@YA?BW4GreatWorkArtifactClass@@XZ ; CvTypes::getARTIFACT_WRITING
	cmp	esi, eax

; 11380: 	{
; 11381: 		bRtnValue = true;

	mov	al, 1
	je	SHORT $LN1@HasWritten

; 11382: 	}
; 11383: 	return bRtnValue;

	mov	al, bl
$LN1@HasWritten:
	pop	esi
	pop	ebx

; 11384: }

	ret	0
?HasWrittenArtifact@CvPlot@@QBE_NXZ ENDP		; CvPlot::HasWrittenArtifact
_TEXT	ENDS
PUBLIC	?pointer@?$FObjectHandle@VCvUnit@@@@QAEPAVCvUnit@@XZ ; FObjectHandle<CvUnit>::pointer
; Function compile flags: /Ogtpy
; File c:\users\enormousapplepie\documents\github\lekmod\lekmod_dll\fireplace\include\fireworks\fobjecthandle.h
;	COMDAT ?pointer@?$FObjectHandle@VCvUnit@@@@QAEPAVCvUnit@@XZ
_TEXT	SEGMENT
?pointer@?$FObjectHandle@VCvUnit@@@@QAEPAVCvUnit@@XZ PROC ; FObjectHandle<CvUnit>::pointer, COMDAT
; _this$ = ecx

; 78   : 		return m_target;

	mov	eax, DWORD PTR [ecx]

; 79   : 	}

	ret	0
?pointer@?$FObjectHandle@VCvUnit@@@@QAEPAVCvUnit@@XZ ENDP ; FObjectHandle<CvUnit>::pointer
_TEXT	ENDS
PUBLIC	?pointer@?$FObjectHandle@VCvUnit@@@@QBEPAVCvUnit@@XZ ; FObjectHandle<CvUnit>::pointer
; Function compile flags: /Ogtpy
;	COMDAT ?pointer@?$FObjectHandle@VCvUnit@@@@QBEPAVCvUnit@@XZ
_TEXT	SEGMENT
?pointer@?$FObjectHandle@VCvUnit@@@@QBEPAVCvUnit@@XZ PROC ; FObjectHandle<CvUnit>::pointer, COMDAT
; _this$ = ecx

; 83   : 		return m_target;

	mov	eax, DWORD PTR [ecx]

; 84   : 	}

	ret	0
?pointer@?$FObjectHandle@VCvUnit@@@@QBEPAVCvUnit@@XZ ENDP ; FObjectHandle<CvUnit>::pointer
_TEXT	ENDS
PUBLIC	??C?$FObjectHandle@VCvUnit@@@@QAEPAVCvUnit@@XZ	; FObjectHandle<CvUnit>::operator->
; Function compile flags: /Ogtpy
;	COMDAT ??C?$FObjectHandle@VCvUnit@@@@QAEPAVCvUnit@@XZ
_TEXT	SEGMENT
??C?$FObjectHandle@VCvUnit@@@@QAEPAVCvUnit@@XZ PROC	; FObjectHandle<CvUnit>::operator->, COMDAT
; _this$ = ecx

; 88   : 		return m_target;

	mov	eax, DWORD PTR [ecx]

; 89   : 	}

	ret	0
??C?$FObjectHandle@VCvUnit@@@@QAEPAVCvUnit@@XZ ENDP	; FObjectHandle<CvUnit>::operator->
_TEXT	ENDS
PUBLIC	??C?$FObjectHandle@VCvUnit@@@@QBEPBVCvUnit@@XZ	; FObjectHandle<CvUnit>::operator->
; Function compile flags: /Ogtpy
;	COMDAT ??C?$FObjectHandle@VCvUnit@@@@QBEPBVCvUnit@@XZ
_TEXT	SEGMENT
??C?$FObjectHandle@VCvUnit@@@@QBEPBVCvUnit@@XZ PROC	; FObjectHandle<CvUnit>::operator->, COMDAT
; _this$ = ecx

; 93   : 		return m_target;

	mov	eax, DWORD PTR [ecx]

; 94   : 	}

	ret	0
??C?$FObjectHandle@VCvUnit@@@@QBEPBVCvUnit@@XZ ENDP	; FObjectHandle<CvUnit>::operator->
_TEXT	ENDS
PUBLIC	??B?$FObjectHandle@VCvUnit@@@@QBE_NXZ		; FObjectHandle<CvUnit>::operator bool
; Function compile flags: /Ogtpy
;	COMDAT ??B?$FObjectHandle@VCvUnit@@@@QBE_NXZ
_TEXT	SEGMENT
??B?$FObjectHandle@VCvUnit@@@@QBE_NXZ PROC		; FObjectHandle<CvUnit>::operator bool, COMDAT
; _this$ = ecx

; 108  : 		return m_target != 0;

	xor	eax, eax
	cmp	DWORD PTR [ecx], eax
	setne	al

; 109  : 	}

	ret	0
??B?$FObjectHandle@VCvUnit@@@@QBE_NXZ ENDP		; FObjectHandle<CvUnit>::operator bool
_TEXT	ENDS
PUBLIC	??7?$FObjectHandle@VCvUnit@@@@QBE_NXZ		; FObjectHandle<CvUnit>::operator!
; Function compile flags: /Ogtpy
;	COMDAT ??7?$FObjectHandle@VCvUnit@@@@QBE_NXZ
_TEXT	SEGMENT
??7?$FObjectHandle@VCvUnit@@@@QBE_NXZ PROC		; FObjectHandle<CvUnit>::operator!, COMDAT
; _this$ = ecx

; 113  : 		return m_target == 0;

	xor	eax, eax
	cmp	DWORD PTR [ecx], eax
	sete	al

; 114  : 	}

	ret	0
??7?$FObjectHandle@VCvUnit@@@@QBE_NXZ ENDP		; FObjectHandle<CvUnit>::operator!
_TEXT	ENDS
PUBLIC	??9?$FObjectHandle@VCvUnit@@@@QBE_NPBVCvUnit@@@Z ; FObjectHandle<CvUnit>::operator!=
; Function compile flags: /Ogtpy
;	COMDAT ??9?$FObjectHandle@VCvUnit@@@@QBE_NPBVCvUnit@@@Z
_TEXT	SEGMENT
_rhs$ = 8						; size = 4
??9?$FObjectHandle@VCvUnit@@@@QBE_NPBVCvUnit@@@Z PROC	; FObjectHandle<CvUnit>::operator!=, COMDAT
; _this$ = ecx

; 118  : 		return m_target != rhs;

	mov	ecx, DWORD PTR [ecx]
	xor	eax, eax
	cmp	ecx, DWORD PTR _rhs$[esp-4]
	setne	al

; 119  : 	}

	ret	4
??9?$FObjectHandle@VCvUnit@@@@QBE_NPBVCvUnit@@@Z ENDP	; FObjectHandle<CvUnit>::operator!=
_TEXT	ENDS
PUBLIC	?ignoreDestruction@?$FObjectHandle@VCvUnit@@@@QAEX_N@Z ; FObjectHandle<CvUnit>::ignoreDestruction
; Function compile flags: /Ogtpy
;	COMDAT ?ignoreDestruction@?$FObjectHandle@VCvUnit@@@@QAEX_N@Z
_TEXT	SEGMENT
_ignore$ = 8						; size = 1
?ignoreDestruction@?$FObjectHandle@VCvUnit@@@@QAEX_N@Z PROC ; FObjectHandle<CvUnit>::ignoreDestruction, COMDAT
; _this$ = ecx

; 128  : 		m_ignoreDestruction = ignore;

	mov	al, BYTE PTR _ignore$[esp-4]
	mov	BYTE PTR [ecx+4], al

; 129  : 	}

	ret	4
?ignoreDestruction@?$FObjectHandle@VCvUnit@@@@QAEX_N@Z ENDP ; FObjectHandle<CvUnit>::ignoreDestruction
_TEXT	ENDS
PUBLIC	??0?$FObjectHandle@VCvUnit@@@@QAE@XZ		; FObjectHandle<CvUnit>::FObjectHandle<CvUnit>
; Function compile flags: /Ogtpy
;	COMDAT ??0?$FObjectHandle@VCvUnit@@@@QAE@XZ
_TEXT	SEGMENT
??0?$FObjectHandle@VCvUnit@@@@QAE@XZ PROC		; FObjectHandle<CvUnit>::FObjectHandle<CvUnit>, COMDAT
; _this$ = ecx

; 215  : 	{

	mov	eax, ecx
	mov	DWORD PTR [eax], 0
	mov	BYTE PTR [eax+4], 0

; 216  : 		OBJECT_HANDLE_STACK;
; 217  : 	}

	ret	0
??0?$FObjectHandle@VCvUnit@@@@QAE@XZ ENDP		; FObjectHandle<CvUnit>::FObjectHandle<CvUnit>
_TEXT	ENDS
PUBLIC	?begin@?$BaseVector@PAVCvPlot@@$00@@QAEPAPAVCvPlot@@XZ ; BaseVector<CvPlot *,1>::begin
; Function compile flags: /Ogtpy
; File c:\users\enormousapplepie\documents\github\lekmod\lekmod_dll\fireplace\include\fireworks\ffastvector.h
;	COMDAT ?begin@?$BaseVector@PAVCvPlot@@$00@@QAEPAPAVCvPlot@@XZ
_TEXT	SEGMENT
?begin@?$BaseVector@PAVCvPlot@@$00@@QAEPAPAVCvPlot@@XZ PROC ; BaseVector<CvPlot *,1>::begin, COMDAT
; _this$ = ecx

; 194  :         return m_pData; 

	mov	eax, DWORD PTR [ecx]

; 195  :     };

	ret	0
?begin@?$BaseVector@PAVCvPlot@@$00@@QAEPAPAVCvPlot@@XZ ENDP ; BaseVector<CvPlot *,1>::begin
_TEXT	ENDS
PUBLIC	?end@?$BaseVector@PAVCvPlot@@$00@@QAEPAPAVCvPlot@@XZ ; BaseVector<CvPlot *,1>::end
; Function compile flags: /Ogtpy
;	COMDAT ?end@?$BaseVector@PAVCvPlot@@$00@@QAEPAPAVCvPlot@@XZ
_TEXT	SEGMENT
?end@?$BaseVector@PAVCvPlot@@$00@@QAEPAPAVCvPlot@@XZ PROC ; BaseVector<CvPlot *,1>::end, COMDAT
; _this$ = ecx

; 197  :         return m_pData+m_uiCurrSize; 

	mov	eax, DWORD PTR [ecx+4]
	mov	ecx, DWORD PTR [ecx]
	lea	eax, DWORD PTR [ecx+eax*4]

; 198  :     };

	ret	0
?end@?$BaseVector@PAVCvPlot@@$00@@QAEPAPAVCvPlot@@XZ ENDP ; BaseVector<CvPlot *,1>::end
_TEXT	ENDS
PUBLIC	??A?$BaseVector@UIDInfo@@$00@@QAEAAUIDInfo@@I@Z	; BaseVector<IDInfo,1>::operator[]
; Function compile flags: /Ogtpy
;	COMDAT ??A?$BaseVector@UIDInfo@@$00@@QAEAAUIDInfo@@I@Z
_TEXT	SEGMENT
_ui$ = 8						; size = 4
??A?$BaseVector@UIDInfo@@$00@@QAEAAUIDInfo@@I@Z PROC	; BaseVector<IDInfo,1>::operator[], COMDAT
; _this$ = ecx

; 129  : 		FAssert(ui < m_uiCurrSize);
; 130  : 		return m_pData[ui];

	mov	eax, DWORD PTR [ecx]
	mov	ecx, DWORD PTR _ui$[esp-4]
	lea	eax, DWORD PTR [eax+ecx*8]

; 131  : 	};

	ret	4
??A?$BaseVector@UIDInfo@@$00@@QAEAAUIDInfo@@I@Z ENDP	; BaseVector<IDInfo,1>::operator[]
_TEXT	ENDS
PUBLIC	??A?$BaseVector@UIDInfo@@$00@@QBEABUIDInfo@@I@Z	; BaseVector<IDInfo,1>::operator[]
; Function compile flags: /Ogtpy
;	COMDAT ??A?$BaseVector@UIDInfo@@$00@@QBEABUIDInfo@@I@Z
_TEXT	SEGMENT
_ui$ = 8						; size = 4
??A?$BaseVector@UIDInfo@@$00@@QBEABUIDInfo@@I@Z PROC	; BaseVector<IDInfo,1>::operator[], COMDAT
; _this$ = ecx

; 135  : 		FAssert(ui < m_uiCurrSize);
; 136  : 		return m_pData[ui];

	mov	eax, DWORD PTR [ecx]
	mov	ecx, DWORD PTR _ui$[esp-4]
	lea	eax, DWORD PTR [eax+ecx*8]

; 137  : 	};

	ret	4
??A?$BaseVector@UIDInfo@@$00@@QBEABUIDInfo@@I@Z ENDP	; BaseVector<IDInfo,1>::operator[]
_TEXT	ENDS
PUBLIC	?size@?$BaseVector@UIDInfo@@$00@@QBEIXZ		; BaseVector<IDInfo,1>::size
; Function compile flags: /Ogtpy
;	COMDAT ?size@?$BaseVector@UIDInfo@@$00@@QBEIXZ
_TEXT	SEGMENT
?size@?$BaseVector@UIDInfo@@$00@@QBEIXZ PROC		; BaseVector<IDInfo,1>::size, COMDAT
; _this$ = ecx

; 169  : 		return m_uiCurrSize;

	mov	eax, DWORD PTR [ecx+4]

; 170  : 	};

	ret	0
?size@?$BaseVector@UIDInfo@@$00@@QBEIXZ ENDP		; BaseVector<IDInfo,1>::size
_TEXT	ENDS
PUBLIC	?getAt@?$FFastSmallFixedList@UIDInfo@@$07$00$0BCJ@$0A@@@QBEPBUIDInfo@@H@Z ; FFastSmallFixedList<IDInfo,8,1,297,0>::getAt
; Function compile flags: /Ogtpy
;	COMDAT ?getAt@?$FFastSmallFixedList@UIDInfo@@$07$00$0BCJ@$0A@@@QBEPBUIDInfo@@H@Z
_TEXT	SEGMENT
_iIndex$ = 8						; size = 4
?getAt@?$FFastSmallFixedList@UIDInfo@@$07$00$0BCJ@$0A@@@QBEPBUIDInfo@@H@Z PROC ; FFastSmallFixedList<IDInfo,8,1,297,0>::getAt, COMDAT
; _this$ = ecx

; 900  :         if ( (UINT)iIndex < mVec.size() )

	mov	eax, DWORD PTR _iIndex$[esp-4]
	cmp	eax, DWORD PTR [ecx+4]
	jae	SHORT $LN2@getAt

; 901  : #endif
; 902  : 	    {
; 903  : 		    return &mVec[ iIndex ];

	mov	ecx, DWORD PTR [ecx]
	lea	eax, DWORD PTR [ecx+eax*8]

; 908  : 	    }
; 909  :     };

	ret	4
$LN2@getAt:

; 904  : 	    }
; 905  : 	    else
; 906  : 	    {
; 907  : 		    return NULL;

	xor	eax, eax

; 908  : 	    }
; 909  :     };

	ret	4
?getAt@?$FFastSmallFixedList@UIDInfo@@$07$00$0BCJ@$0A@@@QBEPBUIDInfo@@H@Z ENDP ; FFastSmallFixedList<IDInfo,8,1,297,0>::getAt
_TEXT	ENDS
PUBLIC	?next@?$FFastSmallFixedList@UIDInfo@@$07$00$0BCJ@$0A@@@QBEPBUIDInfo@@PBU2@@Z ; FFastSmallFixedList<IDInfo,8,1,297,0>::next
; Function compile flags: /Ogtpy
;	COMDAT ?next@?$FFastSmallFixedList@UIDInfo@@$07$00$0BCJ@$0A@@@QBEPBUIDInfo@@PBU2@@Z
_TEXT	SEGMENT
_pNode$ = 8						; size = 4
?next@?$FFastSmallFixedList@UIDInfo@@$07$00$0BCJ@$0A@@@QBEPBUIDInfo@@PBU2@@Z PROC ; FFastSmallFixedList<IDInfo,8,1,297,0>::next, COMDAT
; _this$ = ecx

; 936  : #ifdef AUI_FIX_FFASTVECTOR_USE_UNSIGNED
; 937  : 		unsigned int iIndex = (pNode + 1) - &mVec[0];
; 938  : #else
; 939  :         INT iIndex = ( pNode + 1 ) - &mVec[ 0 ];

	mov	edx, DWORD PTR [ecx]
	mov	eax, DWORD PTR _pNode$[esp-4]
	sub	eax, edx
	add	eax, 8
	sar	eax, 3

; 940  : #endif
; 941  :         return getAt( iIndex );

	cmp	eax, DWORD PTR [ecx+4]
	jae	SHORT $LN6@next
	lea	eax, DWORD PTR [edx+eax*8]

; 942  :     }

	ret	4

; 940  : #endif
; 941  :         return getAt( iIndex );

$LN6@next:
	xor	eax, eax

; 942  :     }

	ret	4
?next@?$FFastSmallFixedList@UIDInfo@@$07$00$0BCJ@$0A@@@QBEPBUIDInfo@@PBU2@@Z ENDP ; FFastSmallFixedList<IDInfo,8,1,297,0>::next
_TEXT	ENDS
PUBLIC	?prev@?$FFastSmallFixedList@UIDInfo@@$07$00$0BCJ@$0A@@@QBEPBUIDInfo@@PBU2@@Z ; FFastSmallFixedList<IDInfo,8,1,297,0>::prev
; Function compile flags: /Ogtpy
;	COMDAT ?prev@?$FFastSmallFixedList@UIDInfo@@$07$00$0BCJ@$0A@@@QBEPBUIDInfo@@PBU2@@Z
_TEXT	SEGMENT
_pNode$ = 8						; size = 4
?prev@?$FFastSmallFixedList@UIDInfo@@$07$00$0BCJ@$0A@@@QBEPBUIDInfo@@PBU2@@Z PROC ; FFastSmallFixedList<IDInfo,8,1,297,0>::prev, COMDAT
; _this$ = ecx

; 947  : #ifdef AUI_FIX_FFASTVECTOR_USE_UNSIGNED
; 948  : 		unsigned int iIndex = (pNode - 1) - &mVec[0];
; 949  : #else
; 950  :         INT iIndex = ( pNode - 1 ) - &mVec[ 0 ];

	mov	edx, DWORD PTR [ecx]
	mov	eax, DWORD PTR _pNode$[esp-4]
	sub	eax, edx
	sub	eax, 8
	sar	eax, 3

; 951  : #endif
; 952  :         return getAt( iIndex );

	cmp	eax, DWORD PTR [ecx+4]
	jae	SHORT $LN6@prev
	lea	eax, DWORD PTR [edx+eax*8]

; 953  :     }

	ret	4

; 951  : #endif
; 952  :         return getAt( iIndex );

$LN6@prev:
	xor	eax, eax

; 953  :     }

	ret	4
?prev@?$FFastSmallFixedList@UIDInfo@@$07$00$0BCJ@$0A@@@QBEPBUIDInfo@@PBU2@@Z ENDP ; FFastSmallFixedList<IDInfo,8,1,297,0>::prev
_TEXT	ENDS
PUBLIC	?getLength@?$FFastSmallFixedList@UIDInfo@@$07$00$0BCJ@$0A@@@QBEHXZ ; FFastSmallFixedList<IDInfo,8,1,297,0>::getLength
; Function compile flags: /Ogtpy
;	COMDAT ?getLength@?$FFastSmallFixedList@UIDInfo@@$07$00$0BCJ@$0A@@@QBEHXZ
_TEXT	SEGMENT
?getLength@?$FFastSmallFixedList@UIDInfo@@$07$00$0BCJ@$0A@@@QBEHXZ PROC ; FFastSmallFixedList<IDInfo,8,1,297,0>::getLength, COMDAT
; _this$ = ecx

; 962  :         return mVec.size();

	mov	eax, DWORD PTR [ecx+4]

; 963  :     }

	ret	0
?getLength@?$FFastSmallFixedList@UIDInfo@@$07$00$0BCJ@$0A@@@QBEHXZ ENDP ; FFastSmallFixedList<IDInfo,8,1,297,0>::getLength
_TEXT	ENDS
PUBLIC	?head@?$FFastSmallFixedList@UIDInfo@@$07$00$0BCJ@$0A@@@QAEPAUIDInfo@@XZ ; FFastSmallFixedList<IDInfo,8,1,297,0>::head
; Function compile flags: /Ogtpy
;	COMDAT ?head@?$FFastSmallFixedList@UIDInfo@@$07$00$0BCJ@$0A@@@QAEPAUIDInfo@@XZ
_TEXT	SEGMENT
?head@?$FFastSmallFixedList@UIDInfo@@$07$00$0BCJ@$0A@@@QAEPAUIDInfo@@XZ PROC ; FFastSmallFixedList<IDInfo,8,1,297,0>::head, COMDAT
; _this$ = ecx

; 968  :         UINT uSize = mVec.size();
; 969  : 
; 970  :         if( uSize > 0 )

	cmp	DWORD PTR [ecx+4], 0
	jbe	SHORT $LN2@head

; 971  :         {
; 972  :             return &mVec[ 0 ];

	mov	eax, DWORD PTR [ecx]

; 977  :         }
; 978  :     };

	ret	0
$LN2@head:

; 973  :         }
; 974  :         else
; 975  :         {
; 976  :             return NULL;

	xor	eax, eax

; 977  :         }
; 978  :     };

	ret	0
?head@?$FFastSmallFixedList@UIDInfo@@$07$00$0BCJ@$0A@@@QAEPAUIDInfo@@XZ ENDP ; FFastSmallFixedList<IDInfo,8,1,297,0>::head
_TEXT	ENDS
PUBLIC	?tail@?$FFastSmallFixedList@UIDInfo@@$07$00$0BCJ@$0A@@@QAEPAUIDInfo@@XZ ; FFastSmallFixedList<IDInfo,8,1,297,0>::tail
; Function compile flags: /Ogtpy
;	COMDAT ?tail@?$FFastSmallFixedList@UIDInfo@@$07$00$0BCJ@$0A@@@QAEPAUIDInfo@@XZ
_TEXT	SEGMENT
?tail@?$FFastSmallFixedList@UIDInfo@@$07$00$0BCJ@$0A@@@QAEPAUIDInfo@@XZ PROC ; FFastSmallFixedList<IDInfo,8,1,297,0>::tail, COMDAT
; _this$ = ecx

; 983  :         UINT uSize = mVec.size();

	mov	eax, DWORD PTR [ecx+4]

; 984  : 
; 985  :         if( uSize > 0 )

	test	eax, eax
	jbe	SHORT $LN2@tail

; 986  :         {
; 987  :             return &mVec[ uSize - 1 ];

	mov	ecx, DWORD PTR [ecx]
	lea	eax, DWORD PTR [ecx+eax*8-8]

; 992  :         }
; 993  :     };

	ret	0
$LN2@tail:

; 988  :         }
; 989  :         else
; 990  :         {
; 991  :             return NULL;

	xor	eax, eax

; 992  :         }
; 993  :     };

	ret	0
?tail@?$FFastSmallFixedList@UIDInfo@@$07$00$0BCJ@$0A@@@QAEPAUIDInfo@@XZ ENDP ; FFastSmallFixedList<IDInfo,8,1,297,0>::tail
_TEXT	ENDS
PUBLIC	?head@?$FFastSmallFixedList@UIDInfo@@$07$00$0BCJ@$0A@@@QBEPBUIDInfo@@XZ ; FFastSmallFixedList<IDInfo,8,1,297,0>::head
; Function compile flags: /Ogtpy
;	COMDAT ?head@?$FFastSmallFixedList@UIDInfo@@$07$00$0BCJ@$0A@@@QBEPBUIDInfo@@XZ
_TEXT	SEGMENT
?head@?$FFastSmallFixedList@UIDInfo@@$07$00$0BCJ@$0A@@@QBEPBUIDInfo@@XZ PROC ; FFastSmallFixedList<IDInfo,8,1,297,0>::head, COMDAT
; _this$ = ecx

; 997  :         UINT uSize = mVec.size();
; 998  : 
; 999  :         if( uSize > 0 )

	cmp	DWORD PTR [ecx+4], 0
	jbe	SHORT $LN2@head@2

; 1000 :         {
; 1001 :             return &mVec[ 0];

	mov	eax, DWORD PTR [ecx]

; 1006 :         }
; 1007 :     };

	ret	0
$LN2@head@2:

; 1002 :         }
; 1003 :         else
; 1004 :         {
; 1005 :             return NULL;

	xor	eax, eax

; 1006 :         }
; 1007 :     };

	ret	0
?head@?$FFastSmallFixedList@UIDInfo@@$07$00$0BCJ@$0A@@@QBEPBUIDInfo@@XZ ENDP ; FFastSmallFixedList<IDInfo,8,1,297,0>::head
_TEXT	ENDS
PUBLIC	?tail@?$FFastSmallFixedList@UIDInfo@@$07$00$0BCJ@$0A@@@QBEPBUIDInfo@@XZ ; FFastSmallFixedList<IDInfo,8,1,297,0>::tail
; Function compile flags: /Ogtpy
;	COMDAT ?tail@?$FFastSmallFixedList@UIDInfo@@$07$00$0BCJ@$0A@@@QBEPBUIDInfo@@XZ
_TEXT	SEGMENT
?tail@?$FFastSmallFixedList@UIDInfo@@$07$00$0BCJ@$0A@@@QBEPBUIDInfo@@XZ PROC ; FFastSmallFixedList<IDInfo,8,1,297,0>::tail, COMDAT
; _this$ = ecx

; 1012 :         UINT uSize = mVec.size();

	mov	eax, DWORD PTR [ecx+4]

; 1013 : 
; 1014 :         if( uSize > 0 )

	test	eax, eax
	jbe	SHORT $LN2@tail@2

; 1015 :         {
; 1016 :             return &mVec[ uSize - 1 ];

	mov	ecx, DWORD PTR [ecx]
	lea	eax, DWORD PTR [ecx+eax*8-8]

; 1021 :         }
; 1022 :     };

	ret	0
$LN2@tail@2:

; 1017 :         }
; 1018 :         else
; 1019 :         {
; 1020 :             return NULL;

	xor	eax, eax

; 1021 :         }
; 1022 :     };

	ret	0
?tail@?$FFastSmallFixedList@UIDInfo@@$07$00$0BCJ@$0A@@@QBEPBUIDInfo@@XZ ENDP ; FFastSmallFixedList<IDInfo,8,1,297,0>::tail
_TEXT	ENDS
PUBLIC	??_7?$FAutoArchiveClassContainer@VCvPlot@@@@6B@	; FAutoArchiveClassContainer<CvPlot>::`vftable'
PUBLIC	??0?$FAutoArchiveClassContainer@VCvPlot@@@@QAE@AAVCvPlot@@@Z ; FAutoArchiveClassContainer<CvPlot>::FAutoArchiveClassContainer<CvPlot>
PUBLIC	??_R4?$FAutoArchiveClassContainer@VCvPlot@@@@6B@ ; FAutoArchiveClassContainer<CvPlot>::`RTTI Complete Object Locator'
PUBLIC	??_R0?AV?$FAutoArchiveClassContainer@VCvPlot@@@@@8 ; FAutoArchiveClassContainer<CvPlot> `RTTI Type Descriptor'
PUBLIC	??_R3?$FAutoArchiveClassContainer@VCvPlot@@@@8	; FAutoArchiveClassContainer<CvPlot>::`RTTI Class Hierarchy Descriptor'
PUBLIC	??_R2?$FAutoArchiveClassContainer@VCvPlot@@@@8	; FAutoArchiveClassContainer<CvPlot>::`RTTI Base Class Array'
PUBLIC	??_R1A@?0A@EA@?$FAutoArchiveClassContainer@VCvPlot@@@@8 ; FAutoArchiveClassContainer<CvPlot>::`RTTI Base Class Descriptor at (0,-1,0,64)'
PUBLIC	??_R1A@?0A@EA@FAutoArchive@@8			; FAutoArchive::`RTTI Base Class Descriptor at (0,-1,0,64)'
PUBLIC	??_R0?AVFAutoArchive@@@8			; FAutoArchive `RTTI Type Descriptor'
PUBLIC	??_R3FAutoArchive@@8				; FAutoArchive::`RTTI Class Hierarchy Descriptor'
PUBLIC	??_R2FAutoArchive@@8				; FAutoArchive::`RTTI Base Class Array'
PUBLIC	?getVariableName@?$FAutoArchiveClassContainer@VCvPlot@@@@UBEPBV?$basic_string@DU?$char_traits@D@std@@V?$allocator@D@2@@std@@ABVFAutoVariableBase@@@Z ; FAutoArchiveClassContainer<CvPlot>::getVariableName
PUBLIC	?setVariableName@?$FAutoArchiveClassContainer@VCvPlot@@@@UBEXABVFAutoVariableBase@@ABV?$basic_string@DU?$char_traits@D@std@@V?$allocator@D@2@@std@@@Z ; FAutoArchiveClassContainer<CvPlot>::setVariableName
PUBLIC	?debugDump@?$FAutoArchiveClassContainer@VCvPlot@@@@UBE?AV?$basic_string@DU?$char_traits@D@std@@V?$allocator@D@2@@std@@ABVFAutoVariableBase@@@Z ; FAutoArchiveClassContainer<CvPlot>::debugDump
PUBLIC	?stackTraceRemark@?$FAutoArchiveClassContainer@VCvPlot@@@@UBE?AV?$basic_string@DU?$char_traits@D@std@@V?$allocator@D@2@@std@@ABVFAutoVariableBase@@@Z ; FAutoArchiveClassContainer<CvPlot>::stackTraceRemark
EXTRN	??0FAutoArchive@@QAE@XZ:PROC			; FAutoArchive::FAutoArchive
EXTRN	??_E?$FAutoArchiveClassContainer@VCvPlot@@@@UAEPAXI@Z:PROC ; FAutoArchiveClassContainer<CvPlot>::`vector deleting destructor'
;	COMDAT ??_R2FAutoArchive@@8
; File c:\users\enormousapplepie\documents\github\lekmod\lekmod_dll\fireplace\include\fireworks\fautoarchiveclasscontainer.h
rdata$r	SEGMENT
??_R2FAutoArchive@@8 DD FLAT:??_R1A@?0A@EA@FAutoArchive@@8 ; FAutoArchive::`RTTI Base Class Array'
rdata$r	ENDS
;	COMDAT ??_R3FAutoArchive@@8
rdata$r	SEGMENT
??_R3FAutoArchive@@8 DD 00H				; FAutoArchive::`RTTI Class Hierarchy Descriptor'
	DD	00H
	DD	01H
	DD	FLAT:??_R2FAutoArchive@@8
rdata$r	ENDS
;	COMDAT ??_R0?AVFAutoArchive@@@8
_DATA	SEGMENT
??_R0?AVFAutoArchive@@@8 DD FLAT:??_7type_info@@6B@	; FAutoArchive `RTTI Type Descriptor'
	DD	00H
	DB	'.?AVFAutoArchive@@', 00H
_DATA	ENDS
;	COMDAT ??_R1A@?0A@EA@FAutoArchive@@8
rdata$r	SEGMENT
??_R1A@?0A@EA@FAutoArchive@@8 DD FLAT:??_R0?AVFAutoArchive@@@8 ; FAutoArchive::`RTTI Base Class Descriptor at (0,-1,0,64)'
	DD	00H
	DD	00H
	DD	0ffffffffH
	DD	00H
	DD	040H
	DD	FLAT:??_R3FAutoArchive@@8
rdata$r	ENDS
;	COMDAT ??_R1A@?0A@EA@?$FAutoArchiveClassContainer@VCvPlot@@@@8
rdata$r	SEGMENT
??_R1A@?0A@EA@?$FAutoArchiveClassContainer@VCvPlot@@@@8 DD FLAT:??_R0?AV?$FAutoArchiveClassContainer@VCvPlot@@@@@8 ; FAutoArchiveClassContainer<CvPlot>::`RTTI Base Class Descriptor at (0,-1,0,64)'
	DD	01H
	DD	00H
	DD	0ffffffffH
	DD	00H
	DD	040H
	DD	FLAT:??_R3?$FAutoArchiveClassContainer@VCvPlot@@@@8
rdata$r	ENDS
;	COMDAT ??_R2?$FAutoArchiveClassContainer@VCvPlot@@@@8
rdata$r	SEGMENT
??_R2?$FAutoArchiveClassContainer@VCvPlot@@@@8 DD FLAT:??_R1A@?0A@EA@?$FAutoArchiveClassContainer@VCvPlot@@@@8 ; FAutoArchiveClassContainer<CvPlot>::`RTTI Base Class Array'
	DD	FLAT:??_R1A@?0A@EA@FAutoArchive@@8
rdata$r	ENDS
;	COMDAT ??_R3?$FAutoArchiveClassContainer@VCvPlot@@@@8
rdata$r	SEGMENT
??_R3?$FAutoArchiveClassContainer@VCvPlot@@@@8 DD 00H	; FAutoArchiveClassContainer<CvPlot>::`RTTI Class Hierarchy Descriptor'
	DD	00H
	DD	02H
	DD	FLAT:??_R2?$FAutoArchiveClassContainer@VCvPlot@@@@8
rdata$r	ENDS
;	COMDAT ??_R0?AV?$FAutoArchiveClassContainer@VCvPlot@@@@@8
_DATA	SEGMENT
??_R0?AV?$FAutoArchiveClassContainer@VCvPlot@@@@@8 DD FLAT:??_7type_info@@6B@ ; FAutoArchiveClassContainer<CvPlot> `RTTI Type Descriptor'
	DD	00H
	DB	'.?AV?$FAutoArchiveClassContainer@VCvPlot@@@@', 00H
_DATA	ENDS
;	COMDAT ??_R4?$FAutoArchiveClassContainer@VCvPlot@@@@6B@
rdata$r	SEGMENT
??_R4?$FAutoArchiveClassContainer@VCvPlot@@@@6B@ DD 00H	; FAutoArchiveClassContainer<CvPlot>::`RTTI Complete Object Locator'
	DD	00H
	DD	00H
	DD	FLAT:??_R0?AV?$FAutoArchiveClassContainer@VCvPlot@@@@@8
	DD	FLAT:??_R3?$FAutoArchiveClassContainer@VCvPlot@@@@8
rdata$r	ENDS
;	COMDAT ??_7?$FAutoArchiveClassContainer@VCvPlot@@@@6B@
CONST	SEGMENT
??_7?$FAutoArchiveClassContainer@VCvPlot@@@@6B@ DD FLAT:??_R4?$FAutoArchiveClassContainer@VCvPlot@@@@6B@ ; FAutoArchiveClassContainer<CvPlot>::`vftable'
	DD	FLAT:??_E?$FAutoArchiveClassContainer@VCvPlot@@@@UAEPAXI@Z
	DD	FLAT:?getVariableName@?$FAutoArchiveClassContainer@VCvPlot@@@@UBEPBV?$basic_string@DU?$char_traits@D@std@@V?$allocator@D@2@@std@@ABVFAutoVariableBase@@@Z
	DD	FLAT:?setVariableName@?$FAutoArchiveClassContainer@VCvPlot@@@@UBEXABVFAutoVariableBase@@ABV?$basic_string@DU?$char_traits@D@std@@V?$allocator@D@2@@std@@@Z
	DD	FLAT:?debugDump@?$FAutoArchiveClassContainer@VCvPlot@@@@UBE?AV?$basic_string@DU?$char_traits@D@std@@V?$allocator@D@2@@std@@ABVFAutoVariableBase@@@Z
	DD	FLAT:?stackTraceRemark@?$FAutoArchiveClassContainer@VCvPlot@@@@UBE?AV?$basic_string@DU?$char_traits@D@std@@V?$allocator@D@2@@std@@ABVFAutoVariableBase@@@Z
; Function compile flags: /Ogtpy
CONST	ENDS
;	COMDAT ??0?$FAutoArchiveClassContainer@VCvPlot@@@@QAE@AAVCvPlot@@@Z
_TEXT	SEGMENT
_owner$ = 8						; size = 4
??0?$FAutoArchiveClassContainer@VCvPlot@@@@QAE@AAVCvPlot@@@Z PROC ; FAutoArchiveClassContainer<CvPlot>::FAutoArchiveClassContainer<CvPlot>, COMDAT
; _this$ = ecx

; 34   : 	{

	push	esi
	mov	esi, ecx
	call	??0FAutoArchive@@QAE@XZ			; FAutoArchive::FAutoArchive
	mov	eax, DWORD PTR _owner$[esp]
	mov	DWORD PTR [esi+32], eax
	mov	DWORD PTR [esi], OFFSET ??_7?$FAutoArchiveClassContainer@VCvPlot@@@@6B@

; 35   : 	}

	mov	eax, esi
	pop	esi
	ret	4
??0?$FAutoArchiveClassContainer@VCvPlot@@@@QAE@AAVCvPlot@@@Z ENDP ; FAutoArchiveClassContainer<CvPlot>::FAutoArchiveClassContainer<CvPlot>
_TEXT	ENDS
PUBLIC	??0const_iterator@?$_Tree@V?$_Tset_traits@PAVCvPlot@@U?$less@PAVCvPlot@@@std@@V?$allocator@PAVCvPlot@@@3@$0A@@std@@@std@@QAE@XZ ; std::_Tree<std::_Tset_traits<CvPlot *,std::less<CvPlot *>,std::allocator<CvPlot *>,0> >::const_iterator::const_iterator
; Function compile flags: /Ogtpy
; File c:\program files (x86)\microsoft visual studio 9.0\vc\include\xtree
;	COMDAT ??0const_iterator@?$_Tree@V?$_Tset_traits@PAVCvPlot@@U?$less@PAVCvPlot@@@std@@V?$allocator@PAVCvPlot@@@3@$0A@@std@@@std@@QAE@XZ
_TEXT	SEGMENT
??0const_iterator@?$_Tree@V?$_Tset_traits@PAVCvPlot@@U?$less@PAVCvPlot@@@std@@V?$allocator@PAVCvPlot@@@3@$0A@@std@@@std@@QAE@XZ PROC ; std::_Tree<std::_Tset_traits<CvPlot *,std::less<CvPlot *>,std::allocator<CvPlot *>,0> >::const_iterator::const_iterator, COMDAT
; _this$ = ecx

; 217  : 			{	// construct with null node pointer

	mov	eax, ecx
	mov	DWORD PTR [eax], 0

; 218  : 			}

	ret	0
??0const_iterator@?$_Tree@V?$_Tset_traits@PAVCvPlot@@U?$less@PAVCvPlot@@@std@@V?$allocator@PAVCvPlot@@@3@$0A@@std@@@std@@QAE@XZ ENDP ; std::_Tree<std::_Tset_traits<CvPlot *,std::less<CvPlot *>,std::allocator<CvPlot *>,0> >::const_iterator::const_iterator
_TEXT	ENDS
PUBLIC	??0iterator@?$_Tree@V?$_Tset_traits@PAVCvPlot@@U?$less@PAVCvPlot@@@std@@V?$allocator@PAVCvPlot@@@3@$0A@@std@@@std@@QAE@XZ ; std::_Tree<std::_Tset_traits<CvPlot *,std::less<CvPlot *>,std::allocator<CvPlot *>,0> >::iterator::iterator
; Function compile flags: /Ogtpy
;	COMDAT ??0iterator@?$_Tree@V?$_Tset_traits@PAVCvPlot@@U?$less@PAVCvPlot@@@std@@V?$allocator@PAVCvPlot@@@3@$0A@@std@@@std@@QAE@XZ
_TEXT	SEGMENT
??0iterator@?$_Tree@V?$_Tset_traits@PAVCvPlot@@U?$less@PAVCvPlot@@@std@@V?$allocator@PAVCvPlot@@@3@$0A@@std@@@std@@QAE@XZ PROC ; std::_Tree<std::_Tset_traits<CvPlot *,std::less<CvPlot *>,std::allocator<CvPlot *>,0> >::iterator::iterator, COMDAT
; _this$ = ecx

; 434  : 		iterator()

	mov	eax, ecx
	mov	DWORD PTR [eax], 0

; 435  : 			{	// construct with null node pointer
; 436  : 			}

	ret	0
??0iterator@?$_Tree@V?$_Tset_traits@PAVCvPlot@@U?$less@PAVCvPlot@@@std@@V?$allocator@PAVCvPlot@@@3@$0A@@std@@@std@@QAE@XZ ENDP ; std::_Tree<std::_Tset_traits<CvPlot *,std::less<CvPlot *>,std::allocator<CvPlot *>,0> >::iterator::iterator
_TEXT	ENDS
PUBLIC	?head@?$FFastSmallFixedList@UIDInfo@@$0BJ@$00$0BCJ@$0A@@@QAEPAUIDInfo@@XZ ; FFastSmallFixedList<IDInfo,25,1,297,0>::head
; Function compile flags: /Ogtpy
; File c:\users\enormousapplepie\documents\github\lekmod\lekmod_dll\fireplace\include\fireworks\ffastvector.h
;	COMDAT ?head@?$FFastSmallFixedList@UIDInfo@@$0BJ@$00$0BCJ@$0A@@@QAEPAUIDInfo@@XZ
_TEXT	SEGMENT
?head@?$FFastSmallFixedList@UIDInfo@@$0BJ@$00$0BCJ@$0A@@@QAEPAUIDInfo@@XZ PROC ; FFastSmallFixedList<IDInfo,25,1,297,0>::head, COMDAT
; _this$ = ecx

; 968  :         UINT uSize = mVec.size();
; 969  : 
; 970  :         if( uSize > 0 )

	cmp	DWORD PTR [ecx+4], 0
	jbe	SHORT $LN2@head@3

; 971  :         {
; 972  :             return &mVec[ 0 ];

	mov	eax, DWORD PTR [ecx]

; 977  :         }
; 978  :     };

	ret	0
$LN2@head@3:

; 973  :         }
; 974  :         else
; 975  :         {
; 976  :             return NULL;

	xor	eax, eax

; 977  :         }
; 978  :     };

	ret	0
?head@?$FFastSmallFixedList@UIDInfo@@$0BJ@$00$0BCJ@$0A@@@QAEPAUIDInfo@@XZ ENDP ; FFastSmallFixedList<IDInfo,25,1,297,0>::head
_TEXT	ENDS
PUBLIC	??0?$auto_ptr@VICvUnit1@@@std@@QAE@PAVICvUnit1@@@Z ; std::auto_ptr<ICvUnit1>::auto_ptr<ICvUnit1>
; Function compile flags: /Ogtpy
; File c:\program files (x86)\microsoft visual studio 9.0\vc\include\memory
;	COMDAT ??0?$auto_ptr@VICvUnit1@@@std@@QAE@PAVICvUnit1@@@Z
_TEXT	SEGMENT
__Ptr$ = 8						; size = 4
??0?$auto_ptr@VICvUnit1@@@std@@QAE@PAVICvUnit1@@@Z PROC	; std::auto_ptr<ICvUnit1>::auto_ptr<ICvUnit1>, COMDAT
; _this$ = ecx

; 661  : 		{	// construct from object pointer

	mov	eax, ecx
	mov	ecx, DWORD PTR __Ptr$[esp-4]
	mov	DWORD PTR [eax], ecx

; 662  : 		}

	ret	4
??0?$auto_ptr@VICvUnit1@@@std@@QAE@PAVICvUnit1@@@Z ENDP	; std::auto_ptr<ICvUnit1>::auto_ptr<ICvUnit1>
_TEXT	ENDS
PUBLIC	??1?$auto_ptr@VICvUnit1@@@std@@QAE@XZ		; std::auto_ptr<ICvUnit1>::~auto_ptr<ICvUnit1>
; Function compile flags: /Ogtpy
;	COMDAT ??1?$auto_ptr@VICvUnit1@@@std@@QAE@XZ
_TEXT	SEGMENT
??1?$auto_ptr@VICvUnit1@@@std@@QAE@XZ PROC		; std::auto_ptr<ICvUnit1>::~auto_ptr<ICvUnit1>, COMDAT
; _this$ = ecx

; 721  : 		delete _Myptr;

	mov	eax, DWORD PTR [ecx]
	test	eax, eax
	je	SHORT $LN3@auto_ptr
	mov	ecx, DWORD PTR [eax]
	mov	edx, DWORD PTR [ecx+4]
	push	eax
	call	edx
$LN3@auto_ptr:

; 722  : 		}

	ret	0
??1?$auto_ptr@VICvUnit1@@@std@@QAE@XZ ENDP		; std::auto_ptr<ICvUnit1>::~auto_ptr<ICvUnit1>
_TEXT	ENDS
PUBLIC	?get@?$auto_ptr@VICvUnit1@@@std@@QBEPAVICvUnit1@@XZ ; std::auto_ptr<ICvUnit1>::get
; Function compile flags: /Ogtpy
;	COMDAT ?get@?$auto_ptr@VICvUnit1@@@std@@QBEPAVICvUnit1@@XZ
_TEXT	SEGMENT
?get@?$auto_ptr@VICvUnit1@@@std@@QBEPAVICvUnit1@@XZ PROC ; std::auto_ptr<ICvUnit1>::get, COMDAT
; _this$ = ecx

; 750  : 		return (_Myptr);

	mov	eax, DWORD PTR [ecx]

; 751  : 		}

	ret	0
?get@?$auto_ptr@VICvUnit1@@@std@@QBEPAVICvUnit1@@XZ ENDP ; std::auto_ptr<ICvUnit1>::get
_TEXT	ENDS
PUBLIC	??0?$auto_ptr@VICvPlot1@@@std@@QAE@PAVICvPlot1@@@Z ; std::auto_ptr<ICvPlot1>::auto_ptr<ICvPlot1>
; Function compile flags: /Ogtpy
;	COMDAT ??0?$auto_ptr@VICvPlot1@@@std@@QAE@PAVICvPlot1@@@Z
_TEXT	SEGMENT
__Ptr$ = 8						; size = 4
??0?$auto_ptr@VICvPlot1@@@std@@QAE@PAVICvPlot1@@@Z PROC	; std::auto_ptr<ICvPlot1>::auto_ptr<ICvPlot1>, COMDAT
; _this$ = ecx

; 661  : 		{	// construct from object pointer

	mov	eax, ecx
	mov	ecx, DWORD PTR __Ptr$[esp-4]
	mov	DWORD PTR [eax], ecx

; 662  : 		}

	ret	4
??0?$auto_ptr@VICvPlot1@@@std@@QAE@PAVICvPlot1@@@Z ENDP	; std::auto_ptr<ICvPlot1>::auto_ptr<ICvPlot1>
_TEXT	ENDS
PUBLIC	??0?$auto_ptr@VICvPlot1@@@std@@QAE@U?$auto_ptr_ref@VICvPlot1@@@1@@Z ; std::auto_ptr<ICvPlot1>::auto_ptr<ICvPlot1>
; Function compile flags: /Ogtpy
;	COMDAT ??0?$auto_ptr@VICvPlot1@@@std@@QAE@U?$auto_ptr_ref@VICvPlot1@@@1@@Z
_TEXT	SEGMENT
__Right$ = 8						; size = 4
??0?$auto_ptr@VICvPlot1@@@std@@QAE@U?$auto_ptr_ref@VICvPlot1@@@1@@Z PROC ; std::auto_ptr<ICvPlot1>::auto_ptr<ICvPlot1>, COMDAT
; _this$ = ecx

; 669  : 	auto_ptr(auto_ptr_ref<_Ty> _Right) _THROW0()

	mov	eax, ecx

; 670  : 		{	// construct by assuming pointer from _Right auto_ptr_ref
; 671  : 		_Ty *_Ptr = _Right._Ref;
; 672  : 		_Right._Ref = 0;	// release old
; 673  : 		_Myptr = _Ptr;	// reset this

	mov	ecx, DWORD PTR __Right$[esp-4]
	mov	DWORD PTR [eax], ecx

; 674  : 		}

	ret	4
??0?$auto_ptr@VICvPlot1@@@std@@QAE@U?$auto_ptr_ref@VICvPlot1@@@1@@Z ENDP ; std::auto_ptr<ICvPlot1>::auto_ptr<ICvPlot1>
_TEXT	ENDS
PUBLIC	??1?$auto_ptr@VICvPlot1@@@std@@QAE@XZ		; std::auto_ptr<ICvPlot1>::~auto_ptr<ICvPlot1>
; Function compile flags: /Ogtpy
;	COMDAT ??1?$auto_ptr@VICvPlot1@@@std@@QAE@XZ
_TEXT	SEGMENT
??1?$auto_ptr@VICvPlot1@@@std@@QAE@XZ PROC		; std::auto_ptr<ICvPlot1>::~auto_ptr<ICvPlot1>, COMDAT
; _this$ = ecx

; 721  : 		delete _Myptr;

	mov	eax, DWORD PTR [ecx]
	test	eax, eax
	je	SHORT $LN3@auto_ptr@2
	mov	ecx, DWORD PTR [eax]
	mov	edx, DWORD PTR [ecx+4]
	push	eax
	call	edx
$LN3@auto_ptr@2:

; 722  : 		}

	ret	0
??1?$auto_ptr@VICvPlot1@@@std@@QAE@XZ ENDP		; std::auto_ptr<ICvPlot1>::~auto_ptr<ICvPlot1>
_TEXT	ENDS
PUBLIC	?get@?$auto_ptr@VICvPlot1@@@std@@QBEPAVICvPlot1@@XZ ; std::auto_ptr<ICvPlot1>::get
; Function compile flags: /Ogtpy
;	COMDAT ?get@?$auto_ptr@VICvPlot1@@@std@@QBEPAVICvPlot1@@XZ
_TEXT	SEGMENT
?get@?$auto_ptr@VICvPlot1@@@std@@QBEPAVICvPlot1@@XZ PROC ; std::auto_ptr<ICvPlot1>::get, COMDAT
; _this$ = ecx

; 750  : 		return (_Myptr);

	mov	eax, DWORD PTR [ecx]

; 751  : 		}

	ret	0
?get@?$auto_ptr@VICvPlot1@@@std@@QBEPAVICvPlot1@@XZ ENDP ; std::auto_ptr<ICvPlot1>::get
_TEXT	ENDS
PUBLIC	??0?$auto_ptr@VICvCity1@@@std@@QAE@PAVICvCity1@@@Z ; std::auto_ptr<ICvCity1>::auto_ptr<ICvCity1>
; Function compile flags: /Ogtpy
;	COMDAT ??0?$auto_ptr@VICvCity1@@@std@@QAE@PAVICvCity1@@@Z
_TEXT	SEGMENT
__Ptr$ = 8						; size = 4
??0?$auto_ptr@VICvCity1@@@std@@QAE@PAVICvCity1@@@Z PROC	; std::auto_ptr<ICvCity1>::auto_ptr<ICvCity1>, COMDAT
; _this$ = ecx

; 661  : 		{	// construct from object pointer

	mov	eax, ecx
	mov	ecx, DWORD PTR __Ptr$[esp-4]
	mov	DWORD PTR [eax], ecx

; 662  : 		}

	ret	4
??0?$auto_ptr@VICvCity1@@@std@@QAE@PAVICvCity1@@@Z ENDP	; std::auto_ptr<ICvCity1>::auto_ptr<ICvCity1>
_TEXT	ENDS
PUBLIC	??1?$auto_ptr@VICvCity1@@@std@@QAE@XZ		; std::auto_ptr<ICvCity1>::~auto_ptr<ICvCity1>
; Function compile flags: /Ogtpy
;	COMDAT ??1?$auto_ptr@VICvCity1@@@std@@QAE@XZ
_TEXT	SEGMENT
??1?$auto_ptr@VICvCity1@@@std@@QAE@XZ PROC		; std::auto_ptr<ICvCity1>::~auto_ptr<ICvCity1>, COMDAT
; _this$ = ecx

; 721  : 		delete _Myptr;

	mov	eax, DWORD PTR [ecx]
	test	eax, eax
	je	SHORT $LN3@auto_ptr@3
	mov	ecx, DWORD PTR [eax]
	mov	edx, DWORD PTR [ecx+4]
	push	eax
	call	edx
$LN3@auto_ptr@3:

; 722  : 		}

	ret	0
??1?$auto_ptr@VICvCity1@@@std@@QAE@XZ ENDP		; std::auto_ptr<ICvCity1>::~auto_ptr<ICvCity1>
_TEXT	ENDS
PUBLIC	?get@?$auto_ptr@VICvCity1@@@std@@QBEPAVICvCity1@@XZ ; std::auto_ptr<ICvCity1>::get
; Function compile flags: /Ogtpy
;	COMDAT ?get@?$auto_ptr@VICvCity1@@@std@@QBEPAVICvCity1@@XZ
_TEXT	SEGMENT
?get@?$auto_ptr@VICvCity1@@@std@@QBEPAVICvCity1@@XZ PROC ; std::auto_ptr<ICvCity1>::get, COMDAT
; _this$ = ecx

; 750  : 		return (_Myptr);

	mov	eax, DWORD PTR [ecx]

; 751  : 		}

	ret	0
?get@?$auto_ptr@VICvCity1@@@std@@QBEPAVICvCity1@@XZ ENDP ; std::auto_ptr<ICvCity1>::get
; Function compile flags: /Ogtpy
_TEXT	ENDS
;	COMDAT ??_G?$FAutoArchiveClassContainer@VCvPlot@@@@UAEPAXI@Z
_TEXT	SEGMENT
___flags$ = 8						; size = 4
??_G?$FAutoArchiveClassContainer@VCvPlot@@@@UAEPAXI@Z PROC ; FAutoArchiveClassContainer<CvPlot>::`scalar deleting destructor', COMDAT
; _this$ = ecx
	push	esi
	mov	esi, ecx
	call	??1FAutoArchive@@UAE@XZ			; FAutoArchive::~FAutoArchive
	test	BYTE PTR ___flags$[esp], 1
	je	SHORT $LN7@scalar@5
	push	esi
	call	??3@YAXPAX@Z				; operator delete
	add	esp, 4
$LN7@scalar@5:
	mov	eax, esi
	pop	esi
	ret	4
??_G?$FAutoArchiveClassContainer@VCvPlot@@@@UAEPAXI@Z ENDP ; FAutoArchiveClassContainer<CvPlot>::`scalar deleting destructor'
_TEXT	ENDS
PUBLIC	?addTarget@?$DestructionNotification@V?$FObjectHandle@VCvUnit@@@@@@QAEXABV?$FObjectHandle@VCvUnit@@@@@Z ; DestructionNotification<FObjectHandle<CvUnit> >::addTarget
; Function compile flags: /Ogtpy
; File c:\users\enormousapplepie\documents\github\lekmod\lekmod_dll\fireplace\include\fireworks\fobjecthandle.h
;	COMDAT ?addTarget@?$DestructionNotification@V?$FObjectHandle@VCvUnit@@@@@@QAEXABV?$FObjectHandle@VCvUnit@@@@@Z
_TEXT	SEGMENT
_target$ = 8						; size = 4
?addTarget@?$DestructionNotification@V?$FObjectHandle@VCvUnit@@@@@@QAEXABV?$FObjectHandle@VCvUnit@@@@@Z PROC ; DestructionNotification<FObjectHandle<CvUnit> >::addTarget, COMDAT
; _this$ = ecx

; 52   : #ifdef TRACK_DESTRUCTION_NOTIFICATION
; 53   : 		m_targets.insert(&target);
; 54   : #endif
; 55   : 	}

	ret	4
?addTarget@?$DestructionNotification@V?$FObjectHandle@VCvUnit@@@@@@QAEXABV?$FObjectHandle@VCvUnit@@@@@Z ENDP ; DestructionNotification<FObjectHandle<CvUnit> >::addTarget
_TEXT	ENDS
PUBLIC	?removeTarget@?$DestructionNotification@V?$FObjectHandle@VCvUnit@@@@@@QAEXABV?$FObjectHandle@VCvUnit@@@@@Z ; DestructionNotification<FObjectHandle<CvUnit> >::removeTarget
; Function compile flags: /Ogtpy
;	COMDAT ?removeTarget@?$DestructionNotification@V?$FObjectHandle@VCvUnit@@@@@@QAEXABV?$FObjectHandle@VCvUnit@@@@@Z
_TEXT	SEGMENT
_target$ = 8						; size = 4
?removeTarget@?$DestructionNotification@V?$FObjectHandle@VCvUnit@@@@@@QAEXABV?$FObjectHandle@VCvUnit@@@@@Z PROC ; DestructionNotification<FObjectHandle<CvUnit> >::removeTarget, COMDAT
; _this$ = ecx

; 63   : #ifdef TRACK_DESTRUCTION_NOTIFICATION
; 64   : 		m_targets.erase(&target);
; 65   : #endif
; 66   : 	}

	ret	4
?removeTarget@?$DestructionNotification@V?$FObjectHandle@VCvUnit@@@@@@QAEXABV?$FObjectHandle@VCvUnit@@@@@Z ENDP ; DestructionNotification<FObjectHandle<CvUnit> >::removeTarget
_TEXT	ENDS
PUBLIC	??0?$BaseVector@UIDInfo@@$00@@IAE@XZ		; BaseVector<IDInfo,1>::BaseVector<IDInfo,1>
; Function compile flags: /Ogtpy
; File c:\users\enormousapplepie\documents\github\lekmod\lekmod_dll\fireplace\include\fireworks\ffastvector.h
;	COMDAT ??0?$BaseVector@UIDInfo@@$00@@IAE@XZ
_TEXT	SEGMENT
??0?$BaseVector@UIDInfo@@$00@@IAE@XZ PROC		; BaseVector<IDInfo,1>::BaseVector<IDInfo,1>, COMDAT
; _this$ = ecx

; 216  : 	BaseVector() : m_uiCurrSize(0), m_uiCurrMaxSize(0), m_pData(NULL) {};

	mov	eax, ecx
	xor	ecx, ecx
	mov	DWORD PTR [eax], ecx
	mov	DWORD PTR [eax+4], ecx
	mov	DWORD PTR [eax+8], ecx
	ret	0
??0?$BaseVector@UIDInfo@@$00@@IAE@XZ ENDP		; BaseVector<IDInfo,1>::BaseVector<IDInfo,1>
_TEXT	ENDS
PUBLIC	?getAt@?$FFastSmallFixedList@UIDInfo@@$07$00$0BCJ@$0A@@@QAEPAUIDInfo@@H@Z ; FFastSmallFixedList<IDInfo,8,1,297,0>::getAt
; Function compile flags: /Ogtpy
;	COMDAT ?getAt@?$FFastSmallFixedList@UIDInfo@@$07$00$0BCJ@$0A@@@QAEPAUIDInfo@@H@Z
_TEXT	SEGMENT
_iIndex$ = 8						; size = 4
?getAt@?$FFastSmallFixedList@UIDInfo@@$07$00$0BCJ@$0A@@@QAEPAUIDInfo@@H@Z PROC ; FFastSmallFixedList<IDInfo,8,1,297,0>::getAt, COMDAT
; _this$ = ecx

; 881  :         if ( (UINT)iIndex < mVec.size() )

	mov	eax, DWORD PTR _iIndex$[esp-4]
	cmp	eax, DWORD PTR [ecx+4]
	jae	SHORT $LN2@getAt@2

; 882  : #endif
; 883  : 	    {
; 884  : 		    return &mVec[ iIndex ];

	mov	ecx, DWORD PTR [ecx]
	lea	eax, DWORD PTR [ecx+eax*8]

; 889  : 	    }
; 890  :     };

	ret	4
$LN2@getAt@2:

; 885  : 	    }
; 886  : 	    else
; 887  : 	    {
; 888  : 		    return NULL;

	xor	eax, eax

; 889  : 	    }
; 890  :     };

	ret	4
?getAt@?$FFastSmallFixedList@UIDInfo@@$07$00$0BCJ@$0A@@@QAEPAUIDInfo@@H@Z ENDP ; FFastSmallFixedList<IDInfo,8,1,297,0>::getAt
_TEXT	ENDS
PUBLIC	??CCvLuaArgsHandle@@QBEPAVICvEngineScriptSystemArgs1@@XZ ; CvLuaArgsHandle::operator->
; Function compile flags: /Ogtpy
; File c:\users\enormousapplepie\documents\github\lekmod\lekmod_dll\cvgamecoredll_expansion2\lua\cvluaargshandle.h
;	COMDAT ??CCvLuaArgsHandle@@QBEPAVICvEngineScriptSystemArgs1@@XZ
_TEXT	SEGMENT
??CCvLuaArgsHandle@@QBEPAVICvEngineScriptSystemArgs1@@XZ PROC ; CvLuaArgsHandle::operator->, COMDAT
; _this$ = ecx

; 40   : 	return m_Ptr;

	mov	eax, DWORD PTR [ecx]

; 41   : }

	ret	0
??CCvLuaArgsHandle@@QBEPAVICvEngineScriptSystemArgs1@@XZ ENDP ; CvLuaArgsHandle::operator->
_TEXT	ENDS
PUBLIC	?get@CvLuaArgsHandle@@QBEPAVICvEngineScriptSystemArgs1@@XZ ; CvLuaArgsHandle::get
; Function compile flags: /Ogtpy
;	COMDAT ?get@CvLuaArgsHandle@@QBEPAVICvEngineScriptSystemArgs1@@XZ
_TEXT	SEGMENT
?get@CvLuaArgsHandle@@QBEPAVICvEngineScriptSystemArgs1@@XZ PROC ; CvLuaArgsHandle::get, COMDAT
; _this$ = ecx

; 45   : 	return m_Ptr;

	mov	eax, DWORD PTR [ecx]

; 46   : }

	ret	0
?get@CvLuaArgsHandle@@QBEPAVICvEngineScriptSystemArgs1@@XZ ENDP ; CvLuaArgsHandle::get
_TEXT	ENDS
PUBLIC	?GetType@CvBaseInfo@@QBEPBDXZ			; CvBaseInfo::GetType
; Function compile flags: /Ogtpy
; File c:\users\enormousapplepie\documents\github\lekmod\lekmod_dll\cvgamecoredll_expansion2\cvinfos.h
;	COMDAT ?GetType@CvBaseInfo@@QBEPBDXZ
_TEXT	SEGMENT
?GetType@CvBaseInfo@@QBEPBDXZ PROC			; CvBaseInfo::GetType, COMDAT
; _this$ = ecx

; 92   : 		return m_strType.c_str();

	add	ecx, 176				; 000000b0H
	jmp	DWORD PTR __imp_?c_str@?$basic_string@DU?$char_traits@D@std@@V?$allocator@D@2@@std@@QBEPBDXZ
?GetType@CvBaseInfo@@QBEPBDXZ ENDP			; CvBaseInfo::GetType
_TEXT	ENDS
PUBLIC	??1?$_Container_base_aux_alloc_empty@V?$allocator@PAVCvPlot@@@std@@@std@@IAE@XZ ; std::_Container_base_aux_alloc_empty<std::allocator<CvPlot *> >::~_Container_base_aux_alloc_empty<std::allocator<CvPlot *> >
; Function compile flags: /Ogtpy
; File c:\program files (x86)\microsoft visual studio 9.0\vc\include\xutility
;	COMDAT ??1?$_Container_base_aux_alloc_empty@V?$allocator@PAVCvPlot@@@std@@@std@@IAE@XZ
_TEXT	SEGMENT
??1?$_Container_base_aux_alloc_empty@V?$allocator@PAVCvPlot@@@std@@@std@@IAE@XZ PROC ; std::_Container_base_aux_alloc_empty<std::allocator<CvPlot *> >::~_Container_base_aux_alloc_empty<std::allocator<CvPlot *> >, COMDAT
; _this$ = ecx

; 627  : 	~_Container_base_aux_alloc_empty() { }

	ret	0
??1?$_Container_base_aux_alloc_empty@V?$allocator@PAVCvPlot@@@std@@@std@@IAE@XZ ENDP ; std::_Container_base_aux_alloc_empty<std::allocator<CvPlot *> >::~_Container_base_aux_alloc_empty<std::allocator<CvPlot *> >
_TEXT	ENDS
PUBLIC	??0?$allocator@PAVCvPlot@@@std@@QAE@XZ		; std::allocator<CvPlot *>::allocator<CvPlot *>
; Function compile flags: /Ogtpy
; File c:\program files (x86)\microsoft visual studio 9.0\vc\include\xmemory
;	COMDAT ??0?$allocator@PAVCvPlot@@@std@@QAE@XZ
_TEXT	SEGMENT
??0?$allocator@PAVCvPlot@@@std@@QAE@XZ PROC		; std::allocator<CvPlot *>::allocator<CvPlot *>, COMDAT
; _this$ = ecx

; 119  : 	allocator() _THROW0()

	mov	eax, ecx

; 120  : 		{	// construct default allocator (do nothing)
; 121  : 		}

	ret	0
??0?$allocator@PAVCvPlot@@@std@@QAE@XZ ENDP		; std::allocator<CvPlot *>::allocator<CvPlot *>
_TEXT	ENDS
PUBLIC	?_Isnil@?$_Tree@V?$_Tset_traits@PAVCvPlot@@U?$less@PAVCvPlot@@@std@@V?$allocator@PAVCvPlot@@@3@$0A@@std@@@std@@KAAADPAU_Node@?$_Tree_nod@V?$_Tset_traits@PAVCvPlot@@U?$less@PAVCvPlot@@@std@@V?$allocator@PAVCvPlot@@@3@$0A@@std@@@2@@Z ; std::_Tree<std::_Tset_traits<CvPlot *,std::less<CvPlot *>,std::allocator<CvPlot *>,0> >::_Isnil
; Function compile flags: /Ogtpy
; File c:\program files (x86)\microsoft visual studio 9.0\vc\include\xtree
;	COMDAT ?_Isnil@?$_Tree@V?$_Tset_traits@PAVCvPlot@@U?$less@PAVCvPlot@@@std@@V?$allocator@PAVCvPlot@@@3@$0A@@std@@@std@@KAAADPAU_Node@?$_Tree_nod@V?$_Tset_traits@PAVCvPlot@@U?$less@PAVCvPlot@@@std@@V?$allocator@PAVCvPlot@@@3@$0A@@std@@@2@@Z
_TEXT	SEGMENT
__Pnode$ = 8						; size = 4
?_Isnil@?$_Tree@V?$_Tset_traits@PAVCvPlot@@U?$less@PAVCvPlot@@@std@@V?$allocator@PAVCvPlot@@@3@$0A@@std@@@std@@KAAADPAU_Node@?$_Tree_nod@V?$_Tset_traits@PAVCvPlot@@U?$less@PAVCvPlot@@@std@@V?$allocator@PAVCvPlot@@@3@$0A@@std@@@2@@Z PROC ; std::_Tree<std::_Tset_traits<CvPlot *,std::less<CvPlot *>,std::allocator<CvPlot *>,0> >::_Isnil, COMDAT

; 157  : 		return ((_Charref)(*_Pnode)._Isnil);

	mov	eax, DWORD PTR __Pnode$[esp-4]
	add	eax, 17					; 00000011H

; 158  : 		}

	ret	0
?_Isnil@?$_Tree@V?$_Tset_traits@PAVCvPlot@@U?$less@PAVCvPlot@@@std@@V?$allocator@PAVCvPlot@@@3@$0A@@std@@@std@@KAAADPAU_Node@?$_Tree_nod@V?$_Tset_traits@PAVCvPlot@@U?$less@PAVCvPlot@@@std@@V?$allocator@PAVCvPlot@@@3@$0A@@std@@@2@@Z ENDP ; std::_Tree<std::_Tset_traits<CvPlot *,std::less<CvPlot *>,std::allocator<CvPlot *>,0> >::_Isnil
_TEXT	ENDS
PUBLIC	?_Left@?$_Tree@V?$_Tset_traits@PAVCvPlot@@U?$less@PAVCvPlot@@@std@@V?$allocator@PAVCvPlot@@@3@$0A@@std@@@std@@KAAAPAU_Node@?$_Tree_nod@V?$_Tset_traits@PAVCvPlot@@U?$less@PAVCvPlot@@@std@@V?$allocator@PAVCvPlot@@@3@$0A@@std@@@2@PAU342@@Z ; std::_Tree<std::_Tset_traits<CvPlot *,std::less<CvPlot *>,std::allocator<CvPlot *>,0> >::_Left
; Function compile flags: /Ogtpy
;	COMDAT ?_Left@?$_Tree@V?$_Tset_traits@PAVCvPlot@@U?$less@PAVCvPlot@@@std@@V?$allocator@PAVCvPlot@@@3@$0A@@std@@@std@@KAAAPAU_Node@?$_Tree_nod@V?$_Tset_traits@PAVCvPlot@@U?$less@PAVCvPlot@@@std@@V?$allocator@PAVCvPlot@@@3@$0A@@std@@@2@PAU342@@Z
_TEXT	SEGMENT
__Pnode$ = 8						; size = 4
?_Left@?$_Tree@V?$_Tset_traits@PAVCvPlot@@U?$less@PAVCvPlot@@@std@@V?$allocator@PAVCvPlot@@@3@$0A@@std@@@std@@KAAAPAU_Node@?$_Tree_nod@V?$_Tset_traits@PAVCvPlot@@U?$less@PAVCvPlot@@@std@@V?$allocator@PAVCvPlot@@@3@$0A@@std@@@2@PAU342@@Z PROC ; std::_Tree<std::_Tset_traits<CvPlot *,std::less<CvPlot *>,std::allocator<CvPlot *>,0> >::_Left, COMDAT

; 167  : 		return ((_Nodepref)(*_Pnode)._Left);

	mov	eax, DWORD PTR __Pnode$[esp-4]

; 168  : 		}

	ret	0
?_Left@?$_Tree@V?$_Tset_traits@PAVCvPlot@@U?$less@PAVCvPlot@@@std@@V?$allocator@PAVCvPlot@@@3@$0A@@std@@@std@@KAAAPAU_Node@?$_Tree_nod@V?$_Tset_traits@PAVCvPlot@@U?$less@PAVCvPlot@@@std@@V?$allocator@PAVCvPlot@@@3@$0A@@std@@@2@PAU342@@Z ENDP ; std::_Tree<std::_Tset_traits<CvPlot *,std::less<CvPlot *>,std::allocator<CvPlot *>,0> >::_Left
_TEXT	ENDS
PUBLIC	?_Right@?$_Tree@V?$_Tset_traits@PAVCvPlot@@U?$less@PAVCvPlot@@@std@@V?$allocator@PAVCvPlot@@@3@$0A@@std@@@std@@KAAAPAU_Node@?$_Tree_nod@V?$_Tset_traits@PAVCvPlot@@U?$less@PAVCvPlot@@@std@@V?$allocator@PAVCvPlot@@@3@$0A@@std@@@2@PAU342@@Z ; std::_Tree<std::_Tset_traits<CvPlot *,std::less<CvPlot *>,std::allocator<CvPlot *>,0> >::_Right
; Function compile flags: /Ogtpy
;	COMDAT ?_Right@?$_Tree@V?$_Tset_traits@PAVCvPlot@@U?$less@PAVCvPlot@@@std@@V?$allocator@PAVCvPlot@@@3@$0A@@std@@@std@@KAAAPAU_Node@?$_Tree_nod@V?$_Tset_traits@PAVCvPlot@@U?$less@PAVCvPlot@@@std@@V?$allocator@PAVCvPlot@@@3@$0A@@std@@@2@PAU342@@Z
_TEXT	SEGMENT
__Pnode$ = 8						; size = 4
?_Right@?$_Tree@V?$_Tset_traits@PAVCvPlot@@U?$less@PAVCvPlot@@@std@@V?$allocator@PAVCvPlot@@@3@$0A@@std@@@std@@KAAAPAU_Node@?$_Tree_nod@V?$_Tset_traits@PAVCvPlot@@U?$less@PAVCvPlot@@@std@@V?$allocator@PAVCvPlot@@@3@$0A@@std@@@2@PAU342@@Z PROC ; std::_Tree<std::_Tset_traits<CvPlot *,std::less<CvPlot *>,std::allocator<CvPlot *>,0> >::_Right, COMDAT

; 177  : 		return ((_Nodepref)(*_Pnode)._Right);

	mov	eax, DWORD PTR __Pnode$[esp-4]
	add	eax, 8

; 178  : 		}

	ret	0
?_Right@?$_Tree@V?$_Tset_traits@PAVCvPlot@@U?$less@PAVCvPlot@@@std@@V?$allocator@PAVCvPlot@@@3@$0A@@std@@@std@@KAAAPAU_Node@?$_Tree_nod@V?$_Tset_traits@PAVCvPlot@@U?$less@PAVCvPlot@@@std@@V?$allocator@PAVCvPlot@@@3@$0A@@std@@@2@PAU342@@Z ENDP ; std::_Tree<std::_Tset_traits<CvPlot *,std::less<CvPlot *>,std::allocator<CvPlot *>,0> >::_Right
_TEXT	ENDS
PUBLIC	?_Myval@?$_Tree@V?$_Tset_traits@PAVCvPlot@@U?$less@PAVCvPlot@@@std@@V?$allocator@PAVCvPlot@@@3@$0A@@std@@@std@@KAAAPAVCvPlot@@PAU_Node@?$_Tree_nod@V?$_Tset_traits@PAVCvPlot@@U?$less@PAVCvPlot@@@std@@V?$allocator@PAVCvPlot@@@3@$0A@@std@@@2@@Z ; std::_Tree<std::_Tset_traits<CvPlot *,std::less<CvPlot *>,std::allocator<CvPlot *>,0> >::_Myval
; Function compile flags: /Ogtpy
;	COMDAT ?_Myval@?$_Tree@V?$_Tset_traits@PAVCvPlot@@U?$less@PAVCvPlot@@@std@@V?$allocator@PAVCvPlot@@@3@$0A@@std@@@std@@KAAAPAVCvPlot@@PAU_Node@?$_Tree_nod@V?$_Tset_traits@PAVCvPlot@@U?$less@PAVCvPlot@@@std@@V?$allocator@PAVCvPlot@@@3@$0A@@std@@@2@@Z
_TEXT	SEGMENT
__Pnode$ = 8						; size = 4
?_Myval@?$_Tree@V?$_Tset_traits@PAVCvPlot@@U?$less@PAVCvPlot@@@std@@V?$allocator@PAVCvPlot@@@3@$0A@@std@@@std@@KAAAPAVCvPlot@@PAU_Node@?$_Tree_nod@V?$_Tset_traits@PAVCvPlot@@U?$less@PAVCvPlot@@@std@@V?$allocator@PAVCvPlot@@@3@$0A@@std@@@2@@Z PROC ; std::_Tree<std::_Tset_traits<CvPlot *,std::less<CvPlot *>,std::allocator<CvPlot *>,0> >::_Myval, COMDAT

; 182  : 		return ((_Vref)(*_Pnode)._Myval);

	mov	eax, DWORD PTR __Pnode$[esp-4]
	add	eax, 12					; 0000000cH

; 183  : 		}

	ret	0
?_Myval@?$_Tree@V?$_Tset_traits@PAVCvPlot@@U?$less@PAVCvPlot@@@std@@V?$allocator@PAVCvPlot@@@3@$0A@@std@@@std@@KAAAPAVCvPlot@@PAU_Node@?$_Tree_nod@V?$_Tset_traits@PAVCvPlot@@U?$less@PAVCvPlot@@@std@@V?$allocator@PAVCvPlot@@@3@$0A@@std@@@2@@Z ENDP ; std::_Tree<std::_Tset_traits<CvPlot *,std::less<CvPlot *>,std::allocator<CvPlot *>,0> >::_Myval
_TEXT	ENDS
PUBLIC	?_Lmost@?$_Tree@V?$_Tset_traits@PAVCvPlot@@U?$less@PAVCvPlot@@@std@@V?$allocator@PAVCvPlot@@@3@$0A@@std@@@std@@IBEAAPAU_Node@?$_Tree_nod@V?$_Tset_traits@PAVCvPlot@@U?$less@PAVCvPlot@@@std@@V?$allocator@PAVCvPlot@@@3@$0A@@std@@@2@XZ ; std::_Tree<std::_Tset_traits<CvPlot *,std::less<CvPlot *>,std::allocator<CvPlot *>,0> >::_Lmost
; Function compile flags: /Ogtpy
;	COMDAT ?_Lmost@?$_Tree@V?$_Tset_traits@PAVCvPlot@@U?$less@PAVCvPlot@@@std@@V?$allocator@PAVCvPlot@@@3@$0A@@std@@@std@@IBEAAPAU_Node@?$_Tree_nod@V?$_Tset_traits@PAVCvPlot@@U?$less@PAVCvPlot@@@std@@V?$allocator@PAVCvPlot@@@3@$0A@@std@@@2@XZ
_TEXT	SEGMENT
?_Lmost@?$_Tree@V?$_Tset_traits@PAVCvPlot@@U?$less@PAVCvPlot@@@std@@V?$allocator@PAVCvPlot@@@3@$0A@@std@@@std@@IBEAAPAU_Node@?$_Tree_nod@V?$_Tset_traits@PAVCvPlot@@U?$less@PAVCvPlot@@@std@@V?$allocator@PAVCvPlot@@@3@$0A@@std@@@2@XZ PROC ; std::_Tree<std::_Tset_traits<CvPlot *,std::less<CvPlot *>,std::allocator<CvPlot *>,0> >::_Lmost, COMDAT
; _this$ = ecx

; 1281 : 		return (_Left(_Myhead));

	mov	eax, DWORD PTR [ecx+4]

; 1282 : 		}

	ret	0
?_Lmost@?$_Tree@V?$_Tset_traits@PAVCvPlot@@U?$less@PAVCvPlot@@@std@@V?$allocator@PAVCvPlot@@@3@$0A@@std@@@std@@IBEAAPAU_Node@?$_Tree_nod@V?$_Tset_traits@PAVCvPlot@@U?$less@PAVCvPlot@@@std@@V?$allocator@PAVCvPlot@@@3@$0A@@std@@@2@XZ ENDP ; std::_Tree<std::_Tset_traits<CvPlot *,std::less<CvPlot *>,std::allocator<CvPlot *>,0> >::_Lmost
_TEXT	ENDS
PUBLIC	?_Kfn@?$_Tset_traits@PAVCvPlot@@U?$less@PAVCvPlot@@@std@@V?$allocator@PAVCvPlot@@@3@$0A@@std@@SAABQAVCvPlot@@ABQAV3@@Z ; std::_Tset_traits<CvPlot *,std::less<CvPlot *>,std::allocator<CvPlot *>,0>::_Kfn
; Function compile flags: /Ogtpy
; File c:\program files (x86)\microsoft visual studio 9.0\vc\include\set
;	COMDAT ?_Kfn@?$_Tset_traits@PAVCvPlot@@U?$less@PAVCvPlot@@@std@@V?$allocator@PAVCvPlot@@@3@$0A@@std@@SAABQAVCvPlot@@ABQAV3@@Z
_TEXT	SEGMENT
__Val$ = 8						; size = 4
?_Kfn@?$_Tset_traits@PAVCvPlot@@U?$less@PAVCvPlot@@@std@@V?$allocator@PAVCvPlot@@@3@$0A@@std@@SAABQAVCvPlot@@ABQAV3@@Z PROC ; std::_Tset_traits<CvPlot *,std::less<CvPlot *>,std::allocator<CvPlot *>,0>::_Kfn, COMDAT

; 45   : 		return (_Val);

	mov	eax, DWORD PTR __Val$[esp-4]

; 46   : 		}

	ret	0
?_Kfn@?$_Tset_traits@PAVCvPlot@@U?$less@PAVCvPlot@@@std@@V?$allocator@PAVCvPlot@@@3@$0A@@std@@SAABQAVCvPlot@@ABQAV3@@Z ENDP ; std::_Tset_traits<CvPlot *,std::less<CvPlot *>,std::allocator<CvPlot *>,0>::_Kfn
_TEXT	ENDS
PUBLIC	??R?$less@PAVCvPlot@@@std@@QBE_NABQAVCvPlot@@0@Z ; std::less<CvPlot *>::operator()
; Function compile flags: /Ogtpy
; File c:\program files (x86)\microsoft visual studio 9.0\vc\include\functional
;	COMDAT ??R?$less@PAVCvPlot@@@std@@QBE_NABQAVCvPlot@@0@Z
_TEXT	SEGMENT
__Left$ = 8						; size = 4
__Right$ = 12						; size = 4
??R?$less@PAVCvPlot@@@std@@QBE_NABQAVCvPlot@@0@Z PROC	; std::less<CvPlot *>::operator(), COMDAT
; _this$ = ecx

; 143  : 		return (_Left < _Right);

	mov	eax, DWORD PTR __Left$[esp-4]
	mov	ecx, DWORD PTR [eax]
	mov	edx, DWORD PTR __Right$[esp-4]
	cmp	ecx, DWORD PTR [edx]
	sbb	eax, eax
	neg	eax

; 144  : 		}

	ret	8
??R?$less@PAVCvPlot@@@std@@QBE_NABQAVCvPlot@@0@Z ENDP	; std::less<CvPlot *>::operator()
_TEXT	ENDS
PUBLIC	??8const_iterator@?$_Tree@V?$_Tset_traits@PAVCvPlot@@U?$less@PAVCvPlot@@@std@@V?$allocator@PAVCvPlot@@@3@$0A@@std@@@std@@QBE_NABV012@@Z ; std::_Tree<std::_Tset_traits<CvPlot *,std::less<CvPlot *>,std::allocator<CvPlot *>,0> >::const_iterator::operator==
; Function compile flags: /Ogtpy
; File c:\program files (x86)\microsoft visual studio 9.0\vc\include\xtree
;	COMDAT ??8const_iterator@?$_Tree@V?$_Tset_traits@PAVCvPlot@@U?$less@PAVCvPlot@@@std@@V?$allocator@PAVCvPlot@@@3@$0A@@std@@@std@@QBE_NABV012@@Z
_TEXT	SEGMENT
__Right$ = 8						; size = 4
??8const_iterator@?$_Tree@V?$_Tset_traits@PAVCvPlot@@U?$less@PAVCvPlot@@@std@@V?$allocator@PAVCvPlot@@@3@$0A@@std@@@std@@QBE_NABV012@@Z PROC ; std::_Tree<std::_Tset_traits<CvPlot *,std::less<CvPlot *>,std::allocator<CvPlot *>,0> >::const_iterator::operator==, COMDAT
; _this$ = ecx

; 300  : 
; 301  :  #if _HAS_ITERATOR_DEBUGGING
; 302  : 			if (this->_Mycont == 0 || this->_Mycont != _Right._Mycont)
; 303  : 				{
; 304  : 				_DEBUG_ERROR("map/set iterators incompatible");
; 305  : 				_SCL_SECURE_INVALID_ARGUMENT;
; 306  : 				}
; 307  :  #else
; 308  : 			_SCL_SECURE_VALIDATE(this->_Has_container() && this->_Same_container(_Right));
; 309  :  #endif /* _HAS_ITERATOR_DEBUGGING */
; 310  : 
; 311  : 			return (_Ptr == _Right._Ptr);

	mov	eax, DWORD PTR [ecx]
	mov	edx, DWORD PTR __Right$[esp-4]
	xor	ecx, ecx
	cmp	eax, DWORD PTR [edx]
	sete	cl
	mov	al, cl

; 312  : 			}

	ret	4
??8const_iterator@?$_Tree@V?$_Tset_traits@PAVCvPlot@@U?$less@PAVCvPlot@@@std@@V?$allocator@PAVCvPlot@@@3@$0A@@std@@@std@@QBE_NABV012@@Z ENDP ; std::_Tree<std::_Tset_traits<CvPlot *,std::less<CvPlot *>,std::allocator<CvPlot *>,0> >::const_iterator::operator==
_TEXT	ENDS
PUBLIC	?_Mynode@const_iterator@?$_Tree@V?$_Tset_traits@PAVCvPlot@@U?$less@PAVCvPlot@@@std@@V?$allocator@PAVCvPlot@@@3@$0A@@std@@@std@@QBEPAU_Node@?$_Tree_nod@V?$_Tset_traits@PAVCvPlot@@U?$less@PAVCvPlot@@@std@@V?$allocator@PAVCvPlot@@@3@$0A@@std@@@3@XZ ; std::_Tree<std::_Tset_traits<CvPlot *,std::less<CvPlot *>,std::allocator<CvPlot *>,0> >::const_iterator::_Mynode
; Function compile flags: /Ogtpy
;	COMDAT ?_Mynode@const_iterator@?$_Tree@V?$_Tset_traits@PAVCvPlot@@U?$less@PAVCvPlot@@@std@@V?$allocator@PAVCvPlot@@@3@$0A@@std@@@std@@QBEPAU_Node@?$_Tree_nod@V?$_Tset_traits@PAVCvPlot@@U?$less@PAVCvPlot@@@std@@V?$allocator@PAVCvPlot@@@3@$0A@@std@@@3@XZ
_TEXT	SEGMENT
?_Mynode@const_iterator@?$_Tree@V?$_Tset_traits@PAVCvPlot@@U?$less@PAVCvPlot@@@std@@V?$allocator@PAVCvPlot@@@3@$0A@@std@@@std@@QBEPAU_Node@?$_Tree_nod@V?$_Tset_traits@PAVCvPlot@@U?$less@PAVCvPlot@@@std@@V?$allocator@PAVCvPlot@@@3@$0A@@std@@@3@XZ PROC ; std::_Tree<std::_Tset_traits<CvPlot *,std::less<CvPlot *>,std::allocator<CvPlot *>,0> >::const_iterator::_Mynode, COMDAT
; _this$ = ecx

; 410  : 			return (_Ptr);

	mov	eax, DWORD PTR [ecx]

; 411  : 			}

	ret	0
?_Mynode@const_iterator@?$_Tree@V?$_Tset_traits@PAVCvPlot@@U?$less@PAVCvPlot@@@std@@V?$allocator@PAVCvPlot@@@3@$0A@@std@@@std@@QBEPAU_Node@?$_Tree_nod@V?$_Tset_traits@PAVCvPlot@@U?$less@PAVCvPlot@@@std@@V?$allocator@PAVCvPlot@@@3@$0A@@std@@@3@XZ ENDP ; std::_Tree<std::_Tset_traits<CvPlot *,std::less<CvPlot *>,std::allocator<CvPlot *>,0> >::const_iterator::_Mynode
_TEXT	ENDS
PUBLIC	?getMap@CvGlobals@@QAEAAVCvMap@@XZ		; CvGlobals::getMap
; Function compile flags: /Ogtpy
; File c:\users\enormousapplepie\documents\github\lekmod\lekmod_dll\cvgamecoredll_expansion2\cvglobals.h
;	COMDAT ?getMap@CvGlobals@@QAEAAVCvMap@@XZ
_TEXT	SEGMENT
?getMap@CvGlobals@@QAEAAVCvMap@@XZ PROC			; CvGlobals::getMap, COMDAT
; _this$ = ecx

; 175  : 		return *m_map;    // inlined for perf reasons, do not use outside of dll

	mov	eax, DWORD PTR [ecx+52]

; 176  : 	}

	ret	0
?getMap@CvGlobals@@QAEAAVCvMap@@XZ ENDP			; CvGlobals::getMap
_TEXT	ENDS
PUBLIC	?getGame@CvGlobals@@QAEAAVCvGame@@XZ		; CvGlobals::getGame
; Function compile flags: /Ogtpy
;	COMDAT ?getGame@CvGlobals@@QAEAAVCvGame@@XZ
_TEXT	SEGMENT
?getGame@CvGlobals@@QAEAAVCvGame@@XZ PROC		; CvGlobals::getGame, COMDAT
; _this$ = ecx

; 183  : 		return *m_game;    // inlined for perf reasons, do not use outside of dll

	mov	eax, DWORD PTR [ecx+48]

; 184  : 	}

	ret	0
?getGame@CvGlobals@@QAEAAVCvGame@@XZ ENDP		; CvGlobals::getGame
_TEXT	ENDS
PUBLIC	?getPlotDirectionX@CvGlobals@@QAEPAHXZ		; CvGlobals::getPlotDirectionX
; Function compile flags: /Ogtpy
;	COMDAT ?getPlotDirectionX@CvGlobals@@QAEPAHXZ
_TEXT	SEGMENT
?getPlotDirectionX@CvGlobals@@QAEPAHXZ PROC		; CvGlobals::getPlotDirectionX, COMDAT
; _this$ = ecx

; 191  : 		return m_aiPlotDirectionX;

	lea	eax, DWORD PTR [ecx+112]

; 192  : 	}

	ret	0
?getPlotDirectionX@CvGlobals@@QAEPAHXZ ENDP		; CvGlobals::getPlotDirectionX
_TEXT	ENDS
PUBLIC	?getPlotDirectionY@CvGlobals@@QAEPAHXZ		; CvGlobals::getPlotDirectionY
; Function compile flags: /Ogtpy
;	COMDAT ?getPlotDirectionY@CvGlobals@@QAEPAHXZ
_TEXT	SEGMENT
?getPlotDirectionY@CvGlobals@@QAEPAHXZ PROC		; CvGlobals::getPlotDirectionY, COMDAT
; _this$ = ecx

; 195  : 		return m_aiPlotDirectionY;

	lea	eax, DWORD PTR [ecx+136]

; 196  : 	}

	ret	0
?getPlotDirectionY@CvGlobals@@QAEPAHXZ ENDP		; CvGlobals::getPlotDirectionY
_TEXT	ENDS
PUBLIC	?getNumFlavorTypes@CvGlobals@@QAEHXZ		; CvGlobals::getNumFlavorTypes
; Function compile flags: /Ogtpy
;	COMDAT ?getNumFlavorTypes@CvGlobals@@QAEHXZ
_TEXT	SEGMENT
?getNumFlavorTypes@CvGlobals@@QAEHXZ PROC		; CvGlobals::getNumFlavorTypes, COMDAT
; _this$ = ecx

; 804  : 		return m_iNumFlavorTypes;

	mov	eax, DWORD PTR [ecx+1764]

; 805  : 	}

	ret	0
?getNumFlavorTypes@CvGlobals@@QAEHXZ ENDP		; CvGlobals::getNumFlavorTypes
_TEXT	ENDS
PUBLIC	??1?$_Container_base_aux_alloc_empty@V?$allocator@U?$pair@V?$basic_string@DU?$char_traits@D@std@@V?$allocator@D@2@@std@@V12@@std@@@std@@@std@@IAE@XZ ; std::_Container_base_aux_alloc_empty<std::allocator<std::pair<std::basic_string<char,std::char_traits<char>,std::allocator<char> >,std::basic_string<char,std::char_traits<char>,std::allocator<char> > > > >::~_Container_base_aux_alloc_empty<std::allocator<std::pair<std::basic_string<char,std::char_traits<char>,std::allocator<char> >,std::basic_string<char,std::char_traits<char>,std::allocator<char> > > > >
; Function compile flags: /Ogtpy
; File c:\program files (x86)\microsoft visual studio 9.0\vc\include\xutility
;	COMDAT ??1?$_Container_base_aux_alloc_empty@V?$allocator@U?$pair@V?$basic_string@DU?$char_traits@D@std@@V?$allocator@D@2@@std@@V12@@std@@@std@@@std@@IAE@XZ
_TEXT	SEGMENT
??1?$_Container_base_aux_alloc_empty@V?$allocator@U?$pair@V?$basic_string@DU?$char_traits@D@std@@V?$allocator@D@2@@std@@V12@@std@@@std@@@std@@IAE@XZ PROC ; std::_Container_base_aux_alloc_empty<std::allocator<std::pair<std::basic_string<char,std::char_traits<char>,std::allocator<char> >,std::basic_string<char,std::char_traits<char>,std::allocator<char> > > > >::~_Container_base_aux_alloc_empty<std::allocator<std::pair<std::basic_string<char,std::char_traits<char>,std::allocator<char> >,std::basic_string<char,std::char_traits<char>,std::allocator<char> > > > >, COMDAT
; _this$ = ecx

; 627  : 	~_Container_base_aux_alloc_empty() { }

	ret	0
??1?$_Container_base_aux_alloc_empty@V?$allocator@U?$pair@V?$basic_string@DU?$char_traits@D@std@@V?$allocator@D@2@@std@@V12@@std@@@std@@@std@@IAE@XZ ENDP ; std::_Container_base_aux_alloc_empty<std::allocator<std::pair<std::basic_string<char,std::char_traits<char>,std::allocator<char> >,std::basic_string<char,std::char_traits<char>,std::allocator<char> > > > >::~_Container_base_aux_alloc_empty<std::allocator<std::pair<std::basic_string<char,std::char_traits<char>,std::allocator<char> >,std::basic_string<char,std::char_traits<char>,std::allocator<char> > > > >
_TEXT	ENDS
PUBLIC	??0?$allocator@U?$pair@V?$basic_string@DU?$char_traits@D@std@@V?$allocator@D@2@@std@@V12@@std@@@std@@QAE@XZ ; std::allocator<std::pair<std::basic_string<char,std::char_traits<char>,std::allocator<char> >,std::basic_string<char,std::char_traits<char>,std::allocator<char> > > >::allocator<std::pair<std::basic_string<char,std::char_traits<char>,std::allocator<char> >,std::basic_string<char,std::char_traits<char>,std::allocator<char> > > >
; Function compile flags: /Ogtpy
; File c:\program files (x86)\microsoft visual studio 9.0\vc\include\xmemory
;	COMDAT ??0?$allocator@U?$pair@V?$basic_string@DU?$char_traits@D@std@@V?$allocator@D@2@@std@@V12@@std@@@std@@QAE@XZ
_TEXT	SEGMENT
??0?$allocator@U?$pair@V?$basic_string@DU?$char_traits@D@std@@V?$allocator@D@2@@std@@V12@@std@@@std@@QAE@XZ PROC ; std::allocator<std::pair<std::basic_string<char,std::char_traits<char>,std::allocator<char> >,std::basic_string<char,std::char_traits<char>,std::allocator<char> > > >::allocator<std::pair<std::basic_string<char,std::char_traits<char>,std::allocator<char> >,std::basic_string<char,std::char_traits<char>,std::allocator<char> > > >, COMDAT
; _this$ = ecx

; 119  : 	allocator() _THROW0()

	mov	eax, ecx

; 120  : 		{	// construct default allocator (do nothing)
; 121  : 		}

	ret	0
??0?$allocator@U?$pair@V?$basic_string@DU?$char_traits@D@std@@V?$allocator@D@2@@std@@V12@@std@@@std@@QAE@XZ ENDP ; std::allocator<std::pair<std::basic_string<char,std::char_traits<char>,std::allocator<char> >,std::basic_string<char,std::char_traits<char>,std::allocator<char> > > >::allocator<std::pair<std::basic_string<char,std::char_traits<char>,std::allocator<char> >,std::basic_string<char,std::char_traits<char>,std::allocator<char> > > >
_TEXT	ENDS
PUBLIC	??0?$pair@Viterator@?$_Tree@V?$_Tset_traits@PAVCvPlot@@U?$less@PAVCvPlot@@@std@@V?$allocator@PAVCvPlot@@@3@$0A@@std@@@std@@_N@std@@QAE@ABViterator@?$_Tree@V?$_Tset_traits@PAVCvPlot@@U?$less@PAVCvPlot@@@std@@V?$allocator@PAVCvPlot@@@3@$0A@@std@@@1@AB_N@Z ; std::pair<std::_Tree<std::_Tset_traits<CvPlot *,std::less<CvPlot *>,std::allocator<CvPlot *>,0> >::iterator,bool>::pair<std::_Tree<std::_Tset_traits<CvPlot *,std::less<CvPlot *>,std::allocator<CvPlot *>,0> >::iterator,bool>
; Function compile flags: /Ogtpy
; File c:\program files (x86)\microsoft visual studio 9.0\vc\include\utility
;	COMDAT ??0?$pair@Viterator@?$_Tree@V?$_Tset_traits@PAVCvPlot@@U?$less@PAVCvPlot@@@std@@V?$allocator@PAVCvPlot@@@3@$0A@@std@@@std@@_N@std@@QAE@ABViterator@?$_Tree@V?$_Tset_traits@PAVCvPlot@@U?$less@PAVCvPlot@@@std@@V?$allocator@PAVCvPlot@@@3@$0A@@std@@@1@AB_N@Z
_TEXT	SEGMENT
__Val1$ = 8						; size = 4
__Val2$ = 12						; size = 4
??0?$pair@Viterator@?$_Tree@V?$_Tset_traits@PAVCvPlot@@U?$less@PAVCvPlot@@@std@@V?$allocator@PAVCvPlot@@@3@$0A@@std@@@std@@_N@std@@QAE@ABViterator@?$_Tree@V?$_Tset_traits@PAVCvPlot@@U?$less@PAVCvPlot@@@std@@V?$allocator@PAVCvPlot@@@3@$0A@@std@@@1@AB_N@Z PROC ; std::pair<std::_Tree<std::_Tset_traits<CvPlot *,std::less<CvPlot *>,std::allocator<CvPlot *>,0> >::iterator,bool>::pair<std::_Tree<std::_Tset_traits<CvPlot *,std::less<CvPlot *>,std::allocator<CvPlot *>,0> >::iterator,bool>, COMDAT
; _this$ = ecx

; 50   : 		{	// construct from specified values

	mov	eax, ecx
	mov	ecx, DWORD PTR __Val1$[esp-4]
	mov	edx, DWORD PTR [ecx]
	mov	ecx, DWORD PTR __Val2$[esp-4]
	mov	DWORD PTR [eax], edx
	mov	dl, BYTE PTR [ecx]
	mov	BYTE PTR [eax+4], dl

; 51   : 		}

	ret	8
??0?$pair@Viterator@?$_Tree@V?$_Tset_traits@PAVCvPlot@@U?$less@PAVCvPlot@@@std@@V?$allocator@PAVCvPlot@@@3@$0A@@std@@@std@@_N@std@@QAE@ABViterator@?$_Tree@V?$_Tset_traits@PAVCvPlot@@U?$less@PAVCvPlot@@@std@@V?$allocator@PAVCvPlot@@@3@$0A@@std@@@1@AB_N@Z ENDP ; std::pair<std::_Tree<std::_Tset_traits<CvPlot *,std::less<CvPlot *>,std::allocator<CvPlot *>,0> >::iterator,bool>::pair<std::_Tree<std::_Tset_traits<CvPlot *,std::less<CvPlot *>,std::allocator<CvPlot *>,0> >::iterator,bool>
_TEXT	ENDS
PUBLIC	?getFlavorTypes@CvGlobals@@QAEAAVCvString@@W4FlavorTypes@@@Z ; CvGlobals::getFlavorTypes
; Function compile flags: /Ogtpy
; File c:\users\enormousapplepie\documents\github\lekmod\lekmod_dll\cvgamecoredll_expansion2\cvglobals.h
;	COMDAT ?getFlavorTypes@CvGlobals@@QAEAAVCvString@@W4FlavorTypes@@@Z
_TEXT	SEGMENT
_e$ = 8							; size = 4
?getFlavorTypes@CvGlobals@@QAEAAVCvString@@W4FlavorTypes@@@Z PROC ; CvGlobals::getFlavorTypes, COMDAT
; _this$ = ecx

; 812  : 		CvAssert(e > -1); /*CvAssert(e < GC.getNumFlavorTypes())*/;
; 813  : 		return m_paszFlavorTypes[e];

	mov	eax, DWORD PTR _e$[esp-4]
	lea	edx, DWORD PTR [eax*8]
	sub	edx, eax
	mov	eax, DWORD PTR [ecx+1760]
	lea	eax, DWORD PTR [eax+edx*4]

; 814  : 	}

	ret	4
?getFlavorTypes@CvGlobals@@QAEAAVCvString@@W4FlavorTypes@@@Z ENDP ; CvGlobals::getFlavorTypes
_TEXT	ENDS
PUBLIC	?getAt@?$FFastSmallFixedList@UIDInfo@@$0BJ@$00$0BCJ@$0A@@@QAEPAUIDInfo@@H@Z ; FFastSmallFixedList<IDInfo,25,1,297,0>::getAt
; Function compile flags: /Ogtpy
; File c:\users\enormousapplepie\documents\github\lekmod\lekmod_dll\fireplace\include\fireworks\ffastvector.h
;	COMDAT ?getAt@?$FFastSmallFixedList@UIDInfo@@$0BJ@$00$0BCJ@$0A@@@QAEPAUIDInfo@@H@Z
_TEXT	SEGMENT
_iIndex$ = 8						; size = 4
?getAt@?$FFastSmallFixedList@UIDInfo@@$0BJ@$00$0BCJ@$0A@@@QAEPAUIDInfo@@H@Z PROC ; FFastSmallFixedList<IDInfo,25,1,297,0>::getAt, COMDAT
; _this$ = ecx

; 881  :         if ( (UINT)iIndex < mVec.size() )

	mov	eax, DWORD PTR _iIndex$[esp-4]
	cmp	eax, DWORD PTR [ecx+4]
	jae	SHORT $LN2@getAt@3

; 882  : #endif
; 883  : 	    {
; 884  : 		    return &mVec[ iIndex ];

	mov	ecx, DWORD PTR [ecx]
	lea	eax, DWORD PTR [ecx+eax*8]

; 889  : 	    }
; 890  :     };

	ret	4
$LN2@getAt@3:

; 885  : 	    }
; 886  : 	    else
; 887  : 	    {
; 888  : 		    return NULL;

	xor	eax, eax

; 889  : 	    }
; 890  :     };

	ret	4
?getAt@?$FFastSmallFixedList@UIDInfo@@$0BJ@$00$0BCJ@$0A@@@QAEPAUIDInfo@@H@Z ENDP ; FFastSmallFixedList<IDInfo,25,1,297,0>::getAt
_TEXT	ENDS
PUBLIC	??_C@_0GH@ECFAPJEJ@c?3?2users?2enormousapplepie?2docume@ ; `string'
PUBLIC	?Alloc@?$FStaticVector@UIDInfo@@$0DC@$00$0BCJ@$0A@@@IAEPAUIDInfo@@I@Z ; FStaticVector<IDInfo,50,1,297,0>::Alloc
EXTRN	?FireMallocAlignedNoTracking@@YAPAXIIPBDH@Z:PROC ; FireMallocAlignedNoTracking
;	COMDAT ??_C@_0GH@ECFAPJEJ@c?3?2users?2enormousapplepie?2docume@
CONST	SEGMENT
??_C@_0GH@ECFAPJEJ@c?3?2users?2enormousapplepie?2docume@ DB 'c:\users\eno'
	DB	'rmousapplepie\documents\github\lekmod\lekmod_dll\fireplace\in'
	DB	'clude\fireworks\FFastVector.h', 00H		; `string'
; Function compile flags: /Ogtpy
CONST	ENDS
;	COMDAT ?Alloc@?$FStaticVector@UIDInfo@@$0DC@$00$0BCJ@$0A@@@IAEPAUIDInfo@@I@Z
_TEXT	SEGMENT
_uiSize$ = 8						; size = 4
?Alloc@?$FStaticVector@UIDInfo@@$0DC@$00$0BCJ@$0A@@@IAEPAUIDInfo@@I@Z PROC ; FStaticVector<IDInfo,50,1,297,0>::Alloc, COMDAT
; _this$ = ecx

; 795  : 	T* Alloc(unsigned int uiSize){

	push	esi
	push	edi

; 796  : 		T* pRet;
; 797  : 		if( uiSize > L ){

	mov	edi, DWORD PTR _uiSize$[esp+4]
	mov	esi, ecx
	cmp	edi, 50					; 00000032H
	jbe	SHORT $LN2@Alloc

; 798  : 			pRet = (T*)FMALLOCALIGNED( uiSize*sizeof(T), __alignof(T), AllocPool, nSubID );

	push	798					; 0000031eH
	push	OFFSET ??_C@_0GH@ECFAPJEJ@c?3?2users?2enormousapplepie?2docume@
	lea	eax, DWORD PTR [edi*8]
	push	4
	push	eax
	call	?FireMallocAlignedNoTracking@@YAPAXIIPBDH@Z ; FireMallocAlignedNoTracking
	add	esp, 16					; 00000010H

; 799  : 			m_uiCurrMaxSize = uiSize;

	mov	DWORD PTR [esi+8], edi
	pop	edi
	pop	esi

; 803  : 		}
; 804  : 		return pRet;
; 805  : 	};

	ret	4
$LN2@Alloc:
	pop	edi

; 800  : 		}else{
; 801  : 			pRet = (T*)m_aData;

	lea	eax, DWORD PTR [esi+12]

; 802  : 			m_uiCurrMaxSize = L;

	mov	DWORD PTR [esi+8], 50			; 00000032H
	pop	esi

; 803  : 		}
; 804  : 		return pRet;
; 805  : 	};

	ret	4
?Alloc@?$FStaticVector@UIDInfo@@$0DC@$00$0BCJ@$0A@@@IAEPAUIDInfo@@I@Z ENDP ; FStaticVector<IDInfo,50,1,297,0>::Alloc
_TEXT	ENDS
PUBLIC	?Alloc@?$FStaticVector@PAVCvPlot@@$0DOI@$00$0BCJ@$00@@IAEPAPAVCvPlot@@I@Z ; FStaticVector<CvPlot *,1000,1,297,1>::Alloc
; Function compile flags: /Ogtpy
;	COMDAT ?Alloc@?$FStaticVector@PAVCvPlot@@$0DOI@$00$0BCJ@$00@@IAEPAPAVCvPlot@@I@Z
_TEXT	SEGMENT
_uiSize$ = 8						; size = 4
?Alloc@?$FStaticVector@PAVCvPlot@@$0DOI@$00$0BCJ@$00@@IAEPAPAVCvPlot@@I@Z PROC ; FStaticVector<CvPlot *,1000,1,297,1>::Alloc, COMDAT
; _this$ = ecx

; 795  : 	T* Alloc(unsigned int uiSize){

	push	esi
	push	edi

; 796  : 		T* pRet;
; 797  : 		if( uiSize > L ){

	mov	edi, DWORD PTR _uiSize$[esp+4]
	mov	esi, ecx
	cmp	edi, 1000				; 000003e8H
	jbe	SHORT $LN2@Alloc@2

; 798  : 			pRet = (T*)FMALLOCALIGNED( uiSize*sizeof(T), __alignof(T), AllocPool, nSubID );

	push	798					; 0000031eH
	push	OFFSET ??_C@_0GH@ECFAPJEJ@c?3?2users?2enormousapplepie?2docume@
	lea	eax, DWORD PTR [edi*4]
	push	4
	push	eax
	call	?FireMallocAlignedNoTracking@@YAPAXIIPBDH@Z ; FireMallocAlignedNoTracking
	add	esp, 16					; 00000010H

; 799  : 			m_uiCurrMaxSize = uiSize;

	mov	DWORD PTR [esi+8], edi
	pop	edi
	pop	esi

; 803  : 		}
; 804  : 		return pRet;
; 805  : 	};

	ret	4
$LN2@Alloc@2:
	pop	edi

; 800  : 		}else{
; 801  : 			pRet = (T*)m_aData;

	lea	eax, DWORD PTR [esi+12]

; 802  : 			m_uiCurrMaxSize = L;

	mov	DWORD PTR [esi+8], 1000			; 000003e8H
	pop	esi

; 803  : 		}
; 804  : 		return pRet;
; 805  : 	};

	ret	4
?Alloc@?$FStaticVector@PAVCvPlot@@$0DOI@$00$0BCJ@$00@@IAEPAPAVCvPlot@@I@Z ENDP ; FStaticVector<CvPlot *,1000,1,297,1>::Alloc
_TEXT	ENDS
PUBLIC	??0?$allocator@PAVCvPlot@@@std@@QAE@ABV01@@Z	; std::allocator<CvPlot *>::allocator<CvPlot *>
; Function compile flags: /Ogtpy
; File c:\program files (x86)\microsoft visual studio 9.0\vc\include\xmemory
;	COMDAT ??0?$allocator@PAVCvPlot@@@std@@QAE@ABV01@@Z
_TEXT	SEGMENT
___formal$ = 8						; size = 4
??0?$allocator@PAVCvPlot@@@std@@QAE@ABV01@@Z PROC	; std::allocator<CvPlot *>::allocator<CvPlot *>, COMDAT
; _this$ = ecx

; 123  : 	allocator(const allocator<_Ty>&) _THROW0()

	mov	eax, ecx

; 124  : 		{	// construct by copying (do nothing)
; 125  : 		}

	ret	4
??0?$allocator@PAVCvPlot@@@std@@QAE@ABV01@@Z ENDP	; std::allocator<CvPlot *>::allocator<CvPlot *>
_TEXT	ENDS
PUBLIC	?_Color@?$_Tree@V?$_Tset_traits@PAVCvPlot@@U?$less@PAVCvPlot@@@std@@V?$allocator@PAVCvPlot@@@3@$0A@@std@@@std@@KAAADPAU_Node@?$_Tree_nod@V?$_Tset_traits@PAVCvPlot@@U?$less@PAVCvPlot@@@std@@V?$allocator@PAVCvPlot@@@3@$0A@@std@@@2@@Z ; std::_Tree<std::_Tset_traits<CvPlot *,std::less<CvPlot *>,std::allocator<CvPlot *>,0> >::_Color
; Function compile flags: /Ogtpy
; File c:\program files (x86)\microsoft visual studio 9.0\vc\include\xtree
;	COMDAT ?_Color@?$_Tree@V?$_Tset_traits@PAVCvPlot@@U?$less@PAVCvPlot@@@std@@V?$allocator@PAVCvPlot@@@3@$0A@@std@@@std@@KAAADPAU_Node@?$_Tree_nod@V?$_Tset_traits@PAVCvPlot@@U?$less@PAVCvPlot@@@std@@V?$allocator@PAVCvPlot@@@3@$0A@@std@@@2@@Z
_TEXT	SEGMENT
__Pnode$ = 8						; size = 4
?_Color@?$_Tree@V?$_Tset_traits@PAVCvPlot@@U?$less@PAVCvPlot@@@std@@V?$allocator@PAVCvPlot@@@3@$0A@@std@@@std@@KAAADPAU_Node@?$_Tree_nod@V?$_Tset_traits@PAVCvPlot@@U?$less@PAVCvPlot@@@std@@V?$allocator@PAVCvPlot@@@3@$0A@@std@@@2@@Z PROC ; std::_Tree<std::_Tset_traits<CvPlot *,std::less<CvPlot *>,std::allocator<CvPlot *>,0> >::_Color, COMDAT

; 152  : 		return ((_Charref)(*_Pnode)._Color);

	mov	eax, DWORD PTR __Pnode$[esp-4]
	add	eax, 16					; 00000010H

; 153  : 		}

	ret	0
?_Color@?$_Tree@V?$_Tset_traits@PAVCvPlot@@U?$less@PAVCvPlot@@@std@@V?$allocator@PAVCvPlot@@@3@$0A@@std@@@std@@KAAADPAU_Node@?$_Tree_nod@V?$_Tset_traits@PAVCvPlot@@U?$less@PAVCvPlot@@@std@@V?$allocator@PAVCvPlot@@@3@$0A@@std@@@2@@Z ENDP ; std::_Tree<std::_Tset_traits<CvPlot *,std::less<CvPlot *>,std::allocator<CvPlot *>,0> >::_Color
_TEXT	ENDS
PUBLIC	?_Parent@?$_Tree@V?$_Tset_traits@PAVCvPlot@@U?$less@PAVCvPlot@@@std@@V?$allocator@PAVCvPlot@@@3@$0A@@std@@@std@@KAAAPAU_Node@?$_Tree_nod@V?$_Tset_traits@PAVCvPlot@@U?$less@PAVCvPlot@@@std@@V?$allocator@PAVCvPlot@@@3@$0A@@std@@@2@PAU342@@Z ; std::_Tree<std::_Tset_traits<CvPlot *,std::less<CvPlot *>,std::allocator<CvPlot *>,0> >::_Parent
; Function compile flags: /Ogtpy
;	COMDAT ?_Parent@?$_Tree@V?$_Tset_traits@PAVCvPlot@@U?$less@PAVCvPlot@@@std@@V?$allocator@PAVCvPlot@@@3@$0A@@std@@@std@@KAAAPAU_Node@?$_Tree_nod@V?$_Tset_traits@PAVCvPlot@@U?$less@PAVCvPlot@@@std@@V?$allocator@PAVCvPlot@@@3@$0A@@std@@@2@PAU342@@Z
_TEXT	SEGMENT
__Pnode$ = 8						; size = 4
?_Parent@?$_Tree@V?$_Tset_traits@PAVCvPlot@@U?$less@PAVCvPlot@@@std@@V?$allocator@PAVCvPlot@@@3@$0A@@std@@@std@@KAAAPAU_Node@?$_Tree_nod@V?$_Tset_traits@PAVCvPlot@@U?$less@PAVCvPlot@@@std@@V?$allocator@PAVCvPlot@@@3@$0A@@std@@@2@PAU342@@Z PROC ; std::_Tree<std::_Tset_traits<CvPlot *,std::less<CvPlot *>,std::allocator<CvPlot *>,0> >::_Parent, COMDAT

; 172  : 		return ((_Nodepref)(*_Pnode)._Parent);

	mov	eax, DWORD PTR __Pnode$[esp-4]
	add	eax, 4

; 173  : 		}

	ret	0
?_Parent@?$_Tree@V?$_Tset_traits@PAVCvPlot@@U?$less@PAVCvPlot@@@std@@V?$allocator@PAVCvPlot@@@3@$0A@@std@@@std@@KAAAPAU_Node@?$_Tree_nod@V?$_Tset_traits@PAVCvPlot@@U?$less@PAVCvPlot@@@std@@V?$allocator@PAVCvPlot@@@3@$0A@@std@@@2@PAU342@@Z ENDP ; std::_Tree<std::_Tset_traits<CvPlot *,std::less<CvPlot *>,std::allocator<CvPlot *>,0> >::_Parent
_TEXT	ENDS
PUBLIC	?_Min@?$_Tree@V?$_Tset_traits@PAVCvPlot@@U?$less@PAVCvPlot@@@std@@V?$allocator@PAVCvPlot@@@3@$0A@@std@@@std@@KAPAU_Node@?$_Tree_nod@V?$_Tset_traits@PAVCvPlot@@U?$less@PAVCvPlot@@@std@@V?$allocator@PAVCvPlot@@@3@$0A@@std@@@2@PAU342@@Z ; std::_Tree<std::_Tset_traits<CvPlot *,std::less<CvPlot *>,std::allocator<CvPlot *>,0> >::_Min
; Function compile flags: /Ogtpy
;	COMDAT ?_Min@?$_Tree@V?$_Tset_traits@PAVCvPlot@@U?$less@PAVCvPlot@@@std@@V?$allocator@PAVCvPlot@@@3@$0A@@std@@@std@@KAPAU_Node@?$_Tree_nod@V?$_Tset_traits@PAVCvPlot@@U?$less@PAVCvPlot@@@std@@V?$allocator@PAVCvPlot@@@3@$0A@@std@@@2@PAU342@@Z
_TEXT	SEGMENT
__Pnode$ = 8						; size = 4
?_Min@?$_Tree@V?$_Tset_traits@PAVCvPlot@@U?$less@PAVCvPlot@@@std@@V?$allocator@PAVCvPlot@@@3@$0A@@std@@@std@@KAPAU_Node@?$_Tree_nod@V?$_Tset_traits@PAVCvPlot@@U?$less@PAVCvPlot@@@std@@V?$allocator@PAVCvPlot@@@3@$0A@@std@@@2@PAU342@@Z PROC ; std::_Tree<std::_Tset_traits<CvPlot *,std::less<CvPlot *>,std::allocator<CvPlot *>,0> >::_Min, COMDAT

; 1313 : 		while (!_Isnil(_Left(_Pnode)))

	mov	eax, DWORD PTR __Pnode$[esp-4]
	mov	ecx, DWORD PTR [eax]
	cmp	BYTE PTR [ecx+17], 0
	jne	SHORT $LN1@Min
	npad	4
$LL2@Min:

; 1314 : 			_Pnode = _Left(_Pnode);

	mov	eax, ecx
	mov	ecx, DWORD PTR [eax]
	cmp	BYTE PTR [ecx+17], 0
	je	SHORT $LL2@Min
$LN1@Min:

; 1315 : 		return (_Pnode);
; 1316 : 		}

	ret	0
?_Min@?$_Tree@V?$_Tset_traits@PAVCvPlot@@U?$less@PAVCvPlot@@@std@@V?$allocator@PAVCvPlot@@@3@$0A@@std@@@std@@KAPAU_Node@?$_Tree_nod@V?$_Tset_traits@PAVCvPlot@@U?$less@PAVCvPlot@@@std@@V?$allocator@PAVCvPlot@@@3@$0A@@std@@@2@PAU342@@Z ENDP ; std::_Tree<std::_Tset_traits<CvPlot *,std::less<CvPlot *>,std::allocator<CvPlot *>,0> >::_Min
_TEXT	ENDS
PUBLIC	?_Rmost@?$_Tree@V?$_Tset_traits@PAVCvPlot@@U?$less@PAVCvPlot@@@std@@V?$allocator@PAVCvPlot@@@3@$0A@@std@@@std@@IBEAAPAU_Node@?$_Tree_nod@V?$_Tset_traits@PAVCvPlot@@U?$less@PAVCvPlot@@@std@@V?$allocator@PAVCvPlot@@@3@$0A@@std@@@2@XZ ; std::_Tree<std::_Tset_traits<CvPlot *,std::less<CvPlot *>,std::allocator<CvPlot *>,0> >::_Rmost
; Function compile flags: /Ogtpy
;	COMDAT ?_Rmost@?$_Tree@V?$_Tset_traits@PAVCvPlot@@U?$less@PAVCvPlot@@@std@@V?$allocator@PAVCvPlot@@@3@$0A@@std@@@std@@IBEAAPAU_Node@?$_Tree_nod@V?$_Tset_traits@PAVCvPlot@@U?$less@PAVCvPlot@@@std@@V?$allocator@PAVCvPlot@@@3@$0A@@std@@@2@XZ
_TEXT	SEGMENT
?_Rmost@?$_Tree@V?$_Tset_traits@PAVCvPlot@@U?$less@PAVCvPlot@@@std@@V?$allocator@PAVCvPlot@@@3@$0A@@std@@@std@@IBEAAPAU_Node@?$_Tree_nod@V?$_Tset_traits@PAVCvPlot@@U?$less@PAVCvPlot@@@std@@V?$allocator@PAVCvPlot@@@3@$0A@@std@@@2@XZ PROC ; std::_Tree<std::_Tset_traits<CvPlot *,std::less<CvPlot *>,std::allocator<CvPlot *>,0> >::_Rmost, COMDAT
; _this$ = ecx

; 1320 : 		return (_Right(_Myhead));

	mov	eax, DWORD PTR [ecx+4]
	add	eax, 8

; 1321 : 		}

	ret	0
?_Rmost@?$_Tree@V?$_Tset_traits@PAVCvPlot@@U?$less@PAVCvPlot@@@std@@V?$allocator@PAVCvPlot@@@3@$0A@@std@@@std@@IBEAAPAU_Node@?$_Tree_nod@V?$_Tset_traits@PAVCvPlot@@U?$less@PAVCvPlot@@@std@@V?$allocator@PAVCvPlot@@@3@$0A@@std@@@2@XZ ENDP ; std::_Tree<std::_Tset_traits<CvPlot *,std::less<CvPlot *>,std::allocator<CvPlot *>,0> >::_Rmost
_TEXT	ENDS
PUBLIC	?deallocate@?$allocator@U_Node@?$_Tree_nod@V?$_Tset_traits@PAVCvPlot@@U?$less@PAVCvPlot@@@std@@V?$allocator@PAVCvPlot@@@3@$0A@@std@@@std@@@std@@QAEXPAU_Node@?$_Tree_nod@V?$_Tset_traits@PAVCvPlot@@U?$less@PAVCvPlot@@@std@@V?$allocator@PAVCvPlot@@@3@$0A@@std@@@2@I@Z ; std::allocator<std::_Tree_nod<std::_Tset_traits<CvPlot *,std::less<CvPlot *>,std::allocator<CvPlot *>,0> >::_Node>::deallocate
; Function compile flags: /Ogtpy
; File c:\program files (x86)\microsoft visual studio 9.0\vc\include\xmemory
;	COMDAT ?deallocate@?$allocator@U_Node@?$_Tree_nod@V?$_Tset_traits@PAVCvPlot@@U?$less@PAVCvPlot@@@std@@V?$allocator@PAVCvPlot@@@3@$0A@@std@@@std@@@std@@QAEXPAU_Node@?$_Tree_nod@V?$_Tset_traits@PAVCvPlot@@U?$less@PAVCvPlot@@@std@@V?$allocator@PAVCvPlot@@@3@$0A@@std@@@2@I@Z
_TEXT	SEGMENT
__Ptr$ = 8						; size = 4
___formal$ = 12						; size = 4
?deallocate@?$allocator@U_Node@?$_Tree_nod@V?$_Tset_traits@PAVCvPlot@@U?$less@PAVCvPlot@@@std@@V?$allocator@PAVCvPlot@@@3@$0A@@std@@@std@@@std@@QAEXPAU_Node@?$_Tree_nod@V?$_Tset_traits@PAVCvPlot@@U?$less@PAVCvPlot@@@std@@V?$allocator@PAVCvPlot@@@3@$0A@@std@@@2@I@Z PROC ; std::allocator<std::_Tree_nod<std::_Tset_traits<CvPlot *,std::less<CvPlot *>,std::allocator<CvPlot *>,0> >::_Node>::deallocate, COMDAT
; _this$ = ecx

; 140  : 		::operator delete(_Ptr);

	mov	eax, DWORD PTR __Ptr$[esp-4]
	push	eax
	call	??3@YAXPAX@Z				; operator delete
	pop	ecx

; 141  : 		}

	ret	8
?deallocate@?$allocator@U_Node@?$_Tree_nod@V?$_Tset_traits@PAVCvPlot@@U?$less@PAVCvPlot@@@std@@V?$allocator@PAVCvPlot@@@3@$0A@@std@@@std@@@std@@QAEXPAU_Node@?$_Tree_nod@V?$_Tset_traits@PAVCvPlot@@U?$less@PAVCvPlot@@@std@@V?$allocator@PAVCvPlot@@@3@$0A@@std@@@2@I@Z ENDP ; std::allocator<std::_Tree_nod<std::_Tset_traits<CvPlot *,std::less<CvPlot *>,std::allocator<CvPlot *>,0> >::_Node>::deallocate
_TEXT	ENDS
PUBLIC	??0const_iterator@?$_Tree@V?$_Tset_traits@PAVCvPlot@@U?$less@PAVCvPlot@@@std@@V?$allocator@PAVCvPlot@@@3@$0A@@std@@@std@@QAE@PAU_Node@?$_Tree_nod@V?$_Tset_traits@PAVCvPlot@@U?$less@PAVCvPlot@@@std@@V?$allocator@PAVCvPlot@@@3@$0A@@std@@@2@@Z ; std::_Tree<std::_Tset_traits<CvPlot *,std::less<CvPlot *>,std::allocator<CvPlot *>,0> >::const_iterator::const_iterator
; Function compile flags: /Ogtpy
; File c:\program files (x86)\microsoft visual studio 9.0\vc\include\xtree
;	COMDAT ??0const_iterator@?$_Tree@V?$_Tset_traits@PAVCvPlot@@U?$less@PAVCvPlot@@@std@@V?$allocator@PAVCvPlot@@@3@$0A@@std@@@std@@QAE@PAU_Node@?$_Tree_nod@V?$_Tset_traits@PAVCvPlot@@U?$less@PAVCvPlot@@@std@@V?$allocator@PAVCvPlot@@@3@$0A@@std@@@2@@Z
_TEXT	SEGMENT
__Pnode$ = 8						; size = 4
??0const_iterator@?$_Tree@V?$_Tset_traits@PAVCvPlot@@U?$less@PAVCvPlot@@@std@@V?$allocator@PAVCvPlot@@@3@$0A@@std@@@std@@QAE@PAU_Node@?$_Tree_nod@V?$_Tset_traits@PAVCvPlot@@U?$less@PAVCvPlot@@@std@@V?$allocator@PAVCvPlot@@@3@$0A@@std@@@2@@Z PROC ; std::_Tree<std::_Tset_traits<CvPlot *,std::less<CvPlot *>,std::allocator<CvPlot *>,0> >::const_iterator::const_iterator, COMDAT
; _this$ = ecx

; 244  : 			{	// construct with node pointer _Pnode

	mov	eax, ecx
	mov	ecx, DWORD PTR __Pnode$[esp-4]
	mov	DWORD PTR [eax], ecx

; 245  : 			}

	ret	4
??0const_iterator@?$_Tree@V?$_Tset_traits@PAVCvPlot@@U?$less@PAVCvPlot@@@std@@V?$allocator@PAVCvPlot@@@3@$0A@@std@@@std@@QAE@PAU_Node@?$_Tree_nod@V?$_Tset_traits@PAVCvPlot@@U?$less@PAVCvPlot@@@std@@V?$allocator@PAVCvPlot@@@3@$0A@@std@@@2@@Z ENDP ; std::_Tree<std::_Tset_traits<CvPlot *,std::less<CvPlot *>,std::allocator<CvPlot *>,0> >::const_iterator::const_iterator
_TEXT	ENDS
PUBLIC	__TI3?AVlength_error@std@@
PUBLIC	??_C@_0BD@OLBABOEK@vector?$DMT?$DO?5too?5long?$AA@ ; `string'
PUBLIC	?_Xlen@?$vector@U?$pair@V?$basic_string@DU?$char_traits@D@std@@V?$allocator@D@2@@std@@V12@@std@@V?$allocator@U?$pair@V?$basic_string@DU?$char_traits@D@std@@V?$allocator@D@2@@std@@V12@@std@@@2@@std@@KAXXZ ; std::vector<std::pair<std::basic_string<char,std::char_traits<char>,std::allocator<char> >,std::basic_string<char,std::char_traits<char>,std::allocator<char> > >,std::allocator<std::pair<std::basic_string<char,std::char_traits<char>,std::allocator<char> >,std::basic_string<char,std::char_traits<char>,std::allocator<char> > > > >::_Xlen
PUBLIC	__CTA3?AVlength_error@std@@
PUBLIC	__CT??_R0?AVlength_error@std@@@8??0length_error@std@@QAE@ABV01@@Z40
PUBLIC	??0length_error@std@@QAE@ABV01@@Z		; std::length_error::length_error
PUBLIC	__CT??_R0?AVlogic_error@std@@@8??0logic_error@std@@QAE@ABV01@@Z40
PUBLIC	??0logic_error@std@@QAE@ABV01@@Z		; std::logic_error::logic_error
PUBLIC	__CT??_R0?AVexception@std@@@8??0exception@std@@QAE@ABV01@@Z12
EXTRN	__CxxThrowException@8:PROC
EXTRN	??0exception@std@@QAE@ABV01@@Z:PROC		; std::exception::exception
;	COMDAT __CT??_R0?AVexception@std@@@8??0exception@std@@QAE@ABV01@@Z12
; File c:\program files (x86)\microsoft visual studio 9.0\vc\include\stdexcept
xdata$x	SEGMENT
__CT??_R0?AVexception@std@@@8??0exception@std@@QAE@ABV01@@Z12 DD 00H
	DD	FLAT:??_R0?AVexception@std@@@8
	DD	00H
	DD	0ffffffffH
	ORG $+4
	DD	0cH
	DD	FLAT:??0exception@std@@QAE@ABV01@@Z
xdata$x	ENDS
;	COMDAT __CT??_R0?AVlogic_error@std@@@8??0logic_error@std@@QAE@ABV01@@Z40
xdata$x	SEGMENT
__CT??_R0?AVlogic_error@std@@@8??0logic_error@std@@QAE@ABV01@@Z40 DD 00H
	DD	FLAT:??_R0?AVlogic_error@std@@@8
	DD	00H
	DD	0ffffffffH
	ORG $+4
	DD	028H
	DD	FLAT:??0logic_error@std@@QAE@ABV01@@Z
xdata$x	ENDS
;	COMDAT __CT??_R0?AVlength_error@std@@@8??0length_error@std@@QAE@ABV01@@Z40
xdata$x	SEGMENT
__CT??_R0?AVlength_error@std@@@8??0length_error@std@@QAE@ABV01@@Z40 DD 00H
	DD	FLAT:??_R0?AVlength_error@std@@@8
	DD	00H
	DD	0ffffffffH
	ORG $+4
	DD	028H
	DD	FLAT:??0length_error@std@@QAE@ABV01@@Z
xdata$x	ENDS
;	COMDAT __CTA3?AVlength_error@std@@
xdata$x	SEGMENT
__CTA3?AVlength_error@std@@ DD 03H
	DD	FLAT:__CT??_R0?AVlength_error@std@@@8??0length_error@std@@QAE@ABV01@@Z40
	DD	FLAT:__CT??_R0?AVlogic_error@std@@@8??0logic_error@std@@QAE@ABV01@@Z40
	DD	FLAT:__CT??_R0?AVexception@std@@@8??0exception@std@@QAE@ABV01@@Z12
xdata$x	ENDS
;	COMDAT __TI3?AVlength_error@std@@
xdata$x	SEGMENT
__TI3?AVlength_error@std@@ DD 00H
	DD	FLAT:??1length_error@std@@UAE@XZ
	DD	00H
	DD	FLAT:__CTA3?AVlength_error@std@@
xdata$x	ENDS
;	COMDAT ??_C@_0BD@OLBABOEK@vector?$DMT?$DO?5too?5long?$AA@
CONST	SEGMENT
??_C@_0BD@OLBABOEK@vector?$DMT?$DO?5too?5long?$AA@ DB 'vector<T> too long'
	DB	00H						; `string'
CONST	ENDS
;	COMDAT xdata$x
xdata$x	SEGMENT
__unwindtable$?_Xlen@?$vector@U?$pair@V?$basic_string@DU?$char_traits@D@std@@V?$allocator@D@2@@std@@V12@@std@@V?$allocator@U?$pair@V?$basic_string@DU?$char_traits@D@std@@V?$allocator@D@2@@std@@V12@@std@@@2@@std@@KAXXZ DD 0ffffffffH
	DD	FLAT:__unwindfunclet$?_Xlen@?$vector@U?$pair@V?$basic_string@DU?$char_traits@D@std@@V?$allocator@D@2@@std@@V12@@std@@V?$allocator@U?$pair@V?$basic_string@DU?$char_traits@D@std@@V?$allocator@D@2@@std@@V12@@std@@@2@@std@@KAXXZ$0
	DD	00H
	DD	FLAT:__unwindfunclet$?_Xlen@?$vector@U?$pair@V?$basic_string@DU?$char_traits@D@std@@V?$allocator@D@2@@std@@V12@@std@@V?$allocator@U?$pair@V?$basic_string@DU?$char_traits@D@std@@V?$allocator@D@2@@std@@V12@@std@@@2@@std@@KAXXZ$2
__ehfuncinfo$?_Xlen@?$vector@U?$pair@V?$basic_string@DU?$char_traits@D@std@@V?$allocator@D@2@@std@@V12@@std@@V?$allocator@U?$pair@V?$basic_string@DU?$char_traits@D@std@@V?$allocator@D@2@@std@@V12@@std@@@2@@std@@KAXXZ DD 019930522H
	DD	02H
	DD	FLAT:__unwindtable$?_Xlen@?$vector@U?$pair@V?$basic_string@DU?$char_traits@D@std@@V?$allocator@D@2@@std@@V12@@std@@V?$allocator@U?$pair@V?$basic_string@DU?$char_traits@D@std@@V?$allocator@D@2@@std@@V12@@std@@@2@@std@@KAXXZ
	DD	2 DUP(00H)
	DD	2 DUP(00H)
	DD	00H
	DD	01H
; Function compile flags: /Ogtpy
; File c:\program files (x86)\microsoft visual studio 9.0\vc\include\vector
xdata$x	ENDS
;	COMDAT ?_Xlen@?$vector@U?$pair@V?$basic_string@DU?$char_traits@D@std@@V?$allocator@D@2@@std@@V12@@std@@V?$allocator@U?$pair@V?$basic_string@DU?$char_traits@D@std@@V?$allocator@D@2@@std@@V12@@std@@@2@@std@@KAXXZ
_TEXT	SEGMENT
$T230750 = -80						; size = 28
$T230749 = -52						; size = 40
__$EHRec$ = -12						; size = 12
?_Xlen@?$vector@U?$pair@V?$basic_string@DU?$char_traits@D@std@@V?$allocator@D@2@@std@@V12@@std@@V?$allocator@U?$pair@V?$basic_string@DU?$char_traits@D@std@@V?$allocator@D@2@@std@@V12@@std@@@2@@std@@KAXXZ PROC ; std::vector<std::pair<std::basic_string<char,std::char_traits<char>,std::allocator<char> >,std::basic_string<char,std::char_traits<char>,std::allocator<char> > >,std::allocator<std::pair<std::basic_string<char,std::char_traits<char>,std::allocator<char> >,std::basic_string<char,std::char_traits<char>,std::allocator<char> > > > >::_Xlen, COMDAT

; 1259 : 		{	// report a length_error

	push	-1
	push	__ehhandler$?_Xlen@?$vector@U?$pair@V?$basic_string@DU?$char_traits@D@std@@V?$allocator@D@2@@std@@V12@@std@@V?$allocator@U?$pair@V?$basic_string@DU?$char_traits@D@std@@V?$allocator@D@2@@std@@V12@@std@@@2@@std@@KAXXZ
	mov	eax, DWORD PTR fs:0
	push	eax
	mov	DWORD PTR fs:0, esp
	sub	esp, 68					; 00000044H

; 1260 : 		_THROW(length_error, "vector<T> too long");

	push	OFFSET ??_C@_0BD@OLBABOEK@vector?$DMT?$DO?5too?5long?$AA@
	lea	ecx, DWORD PTR $T230750[esp+84]
	call	DWORD PTR __imp_??0?$basic_string@DU?$char_traits@D@std@@V?$allocator@D@2@@std@@QAE@PBD@Z
	lea	ecx, DWORD PTR $T230749[esp+80]
	mov	DWORD PTR __$EHRec$[esp+88], 0
	call	DWORD PTR __imp_??0exception@std@@QAE@XZ
	lea	eax, DWORD PTR $T230750[esp+80]
	push	eax
	lea	ecx, DWORD PTR $T230749[esp+96]
	mov	BYTE PTR __$EHRec$[esp+92], 1
	mov	DWORD PTR $T230749[esp+84], OFFSET ??_7logic_error@std@@6B@
	call	DWORD PTR __imp_??0?$basic_string@DU?$char_traits@D@std@@V?$allocator@D@2@@std@@QAE@ABV01@@Z
	push	OFFSET __TI3?AVlength_error@std@@
	lea	ecx, DWORD PTR $T230749[esp+84]
	push	ecx
	mov	BYTE PTR __$EHRec$[esp+96], 0
	mov	DWORD PTR $T230749[esp+88], OFFSET ??_7length_error@std@@6B@
	call	__CxxThrowException@8
$LN13@Xlen:
$LN12@Xlen:
	int	3
_TEXT	ENDS
;	COMDAT text$x
text$x	SEGMENT
__unwindfunclet$?_Xlen@?$vector@U?$pair@V?$basic_string@DU?$char_traits@D@std@@V?$allocator@D@2@@std@@V12@@std@@V?$allocator@U?$pair@V?$basic_string@DU?$char_traits@D@std@@V?$allocator@D@2@@std@@V12@@std@@@2@@std@@KAXXZ$0:
	lea	ecx, DWORD PTR $T230750[ebp]
	jmp	DWORD PTR __imp_??1?$basic_string@DU?$char_traits@D@std@@V?$allocator@D@2@@std@@QAE@XZ
__unwindfunclet$?_Xlen@?$vector@U?$pair@V?$basic_string@DU?$char_traits@D@std@@V?$allocator@D@2@@std@@V12@@std@@V?$allocator@U?$pair@V?$basic_string@DU?$char_traits@D@std@@V?$allocator@D@2@@std@@V12@@std@@@2@@std@@KAXXZ$2:
	lea	ecx, DWORD PTR $T230749[ebp]
	jmp	DWORD PTR __imp_??1exception@std@@UAE@XZ
__ehhandler$?_Xlen@?$vector@U?$pair@V?$basic_string@DU?$char_traits@D@std@@V?$allocator@D@2@@std@@V12@@std@@V?$allocator@U?$pair@V?$basic_string@DU?$char_traits@D@std@@V?$allocator@D@2@@std@@V12@@std@@@2@@std@@KAXXZ:
	mov	eax, OFFSET __ehfuncinfo$?_Xlen@?$vector@U?$pair@V?$basic_string@DU?$char_traits@D@std@@V?$allocator@D@2@@std@@V12@@std@@V?$allocator@U?$pair@V?$basic_string@DU?$char_traits@D@std@@V?$allocator@D@2@@std@@V12@@std@@@2@@std@@KAXXZ
	jmp	___CxxFrameHandler3
text$x	ENDS
?_Xlen@?$vector@U?$pair@V?$basic_string@DU?$char_traits@D@std@@V?$allocator@D@2@@std@@V12@@std@@V?$allocator@U?$pair@V?$basic_string@DU?$char_traits@D@std@@V?$allocator@D@2@@std@@V12@@std@@@2@@std@@KAXXZ ENDP ; std::vector<std::pair<std::basic_string<char,std::char_traits<char>,std::allocator<char> >,std::basic_string<char,std::char_traits<char>,std::allocator<char> > >,std::allocator<std::pair<std::basic_string<char,std::char_traits<char>,std::allocator<char> >,std::basic_string<char,std::char_traits<char>,std::allocator<char> > > > >::_Xlen
EXTRN	__imp_??0exception@std@@QAE@ABV01@@Z:PROC
;	COMDAT xdata$x
xdata$x	SEGMENT
__unwindtable$??0logic_error@std@@QAE@ABV01@@Z DD 0ffffffffH
	DD	FLAT:__unwindfunclet$??0logic_error@std@@QAE@ABV01@@Z$0
__ehfuncinfo$??0logic_error@std@@QAE@ABV01@@Z DD 019930522H
	DD	01H
	DD	FLAT:__unwindtable$??0logic_error@std@@QAE@ABV01@@Z
	DD	2 DUP(00H)
	DD	2 DUP(00H)
	DD	00H
	DD	01H
; Function compile flags: /Ogtpy
xdata$x	ENDS
;	COMDAT ??0logic_error@std@@QAE@ABV01@@Z
_TEXT	SEGMENT
_this$ = -16						; size = 4
__$EHRec$ = -12						; size = 12
___that$ = 8						; size = 4
??0logic_error@std@@QAE@ABV01@@Z PROC			; std::logic_error::logic_error, COMDAT
; _this$ = ecx
	push	-1
	push	__ehhandler$??0logic_error@std@@QAE@ABV01@@Z
	mov	eax, DWORD PTR fs:0
	push	eax
	mov	DWORD PTR fs:0, esp
	push	ecx
	push	esi
	push	edi
	mov	edi, DWORD PTR ___that$[esp+20]
	mov	esi, ecx
	push	edi
	mov	DWORD PTR _this$[esp+28], esi
	call	DWORD PTR __imp_??0exception@std@@QAE@ABV01@@Z
	add	edi, 12					; 0000000cH
	push	edi
	lea	ecx, DWORD PTR [esi+12]
	mov	DWORD PTR __$EHRec$[esp+36], 0
	mov	DWORD PTR [esi], OFFSET ??_7logic_error@std@@6B@
	call	DWORD PTR __imp_??0?$basic_string@DU?$char_traits@D@std@@V?$allocator@D@2@@std@@QAE@ABV01@@Z
	mov	ecx, DWORD PTR __$EHRec$[esp+24]
	pop	edi
	mov	eax, esi
	pop	esi
	mov	DWORD PTR fs:0, ecx
	add	esp, 16					; 00000010H
	ret	4
_TEXT	ENDS
;	COMDAT text$x
text$x	SEGMENT
__unwindfunclet$??0logic_error@std@@QAE@ABV01@@Z$0:
	mov	ecx, DWORD PTR _this$[ebp]
	jmp	DWORD PTR __imp_??1exception@std@@UAE@XZ
__ehhandler$??0logic_error@std@@QAE@ABV01@@Z:
	mov	eax, OFFSET __ehfuncinfo$??0logic_error@std@@QAE@ABV01@@Z
	jmp	___CxxFrameHandler3
text$x	ENDS
??0logic_error@std@@QAE@ABV01@@Z ENDP			; std::logic_error::logic_error
PUBLIC	??0?$_Container_base_aux_alloc_empty@V?$allocator@U?$pair@V?$basic_string@DU?$char_traits@D@std@@V?$allocator@D@2@@std@@V12@@std@@@std@@@std@@IAE@V?$allocator@U?$pair@V?$basic_string@DU?$char_traits@D@std@@V?$allocator@D@2@@std@@V12@@std@@@1@@Z ; std::_Container_base_aux_alloc_empty<std::allocator<std::pair<std::basic_string<char,std::char_traits<char>,std::allocator<char> >,std::basic_string<char,std::char_traits<char>,std::allocator<char> > > > >::_Container_base_aux_alloc_empty<std::allocator<std::pair<std::basic_string<char,std::char_traits<char>,std::allocator<char> >,std::basic_string<char,std::char_traits<char>,std::allocator<char> > > > >
; Function compile flags: /Ogtpy
; File c:\program files (x86)\microsoft visual studio 9.0\vc\include\xutility
;	COMDAT ??0?$_Container_base_aux_alloc_empty@V?$allocator@U?$pair@V?$basic_string@DU?$char_traits@D@std@@V?$allocator@D@2@@std@@V12@@std@@@std@@@std@@IAE@V?$allocator@U?$pair@V?$basic_string@DU?$char_traits@D@std@@V?$allocator@D@2@@std@@V12@@std@@@1@@Z
_TEXT	SEGMENT
___formal$ = 8						; size = 1
??0?$_Container_base_aux_alloc_empty@V?$allocator@U?$pair@V?$basic_string@DU?$char_traits@D@std@@V?$allocator@D@2@@std@@V12@@std@@@std@@@std@@IAE@V?$allocator@U?$pair@V?$basic_string@DU?$char_traits@D@std@@V?$allocator@D@2@@std@@V12@@std@@@1@@Z PROC ; std::_Container_base_aux_alloc_empty<std::allocator<std::pair<std::basic_string<char,std::char_traits<char>,std::allocator<char> >,std::basic_string<char,std::char_traits<char>,std::allocator<char> > > > >::_Container_base_aux_alloc_empty<std::allocator<std::pair<std::basic_string<char,std::char_traits<char>,std::allocator<char> >,std::basic_string<char,std::char_traits<char>,std::allocator<char> > > > >, COMDAT
; _this$ = ecx

; 618  : 	explicit _Container_base_aux_alloc_empty(_Alloc) { }

	mov	eax, ecx
	ret	4
??0?$_Container_base_aux_alloc_empty@V?$allocator@U?$pair@V?$basic_string@DU?$char_traits@D@std@@V?$allocator@D@2@@std@@V12@@std@@@std@@@std@@IAE@V?$allocator@U?$pair@V?$basic_string@DU?$char_traits@D@std@@V?$allocator@D@2@@std@@V12@@std@@@1@@Z ENDP ; std::_Container_base_aux_alloc_empty<std::allocator<std::pair<std::basic_string<char,std::char_traits<char>,std::allocator<char> >,std::basic_string<char,std::char_traits<char>,std::allocator<char> > > > >::_Container_base_aux_alloc_empty<std::allocator<std::pair<std::basic_string<char,std::char_traits<char>,std::allocator<char> >,std::basic_string<char,std::char_traits<char>,std::allocator<char> > > > >
_TEXT	ENDS
PUBLIC	??0?$allocator@U?$pair@V?$basic_string@DU?$char_traits@D@std@@V?$allocator@D@2@@std@@V12@@std@@@std@@QAE@ABV01@@Z ; std::allocator<std::pair<std::basic_string<char,std::char_traits<char>,std::allocator<char> >,std::basic_string<char,std::char_traits<char>,std::allocator<char> > > >::allocator<std::pair<std::basic_string<char,std::char_traits<char>,std::allocator<char> >,std::basic_string<char,std::char_traits<char>,std::allocator<char> > > >
; Function compile flags: /Ogtpy
; File c:\program files (x86)\microsoft visual studio 9.0\vc\include\xmemory
;	COMDAT ??0?$allocator@U?$pair@V?$basic_string@DU?$char_traits@D@std@@V?$allocator@D@2@@std@@V12@@std@@@std@@QAE@ABV01@@Z
_TEXT	SEGMENT
___formal$ = 8						; size = 4
??0?$allocator@U?$pair@V?$basic_string@DU?$char_traits@D@std@@V?$allocator@D@2@@std@@V12@@std@@@std@@QAE@ABV01@@Z PROC ; std::allocator<std::pair<std::basic_string<char,std::char_traits<char>,std::allocator<char> >,std::basic_string<char,std::char_traits<char>,std::allocator<char> > > >::allocator<std::pair<std::basic_string<char,std::char_traits<char>,std::allocator<char> >,std::basic_string<char,std::char_traits<char>,std::allocator<char> > > >, COMDAT
; _this$ = ecx

; 123  : 	allocator(const allocator<_Ty>&) _THROW0()

	mov	eax, ecx

; 124  : 		{	// construct by copying (do nothing)
; 125  : 		}

	ret	4
??0?$allocator@U?$pair@V?$basic_string@DU?$char_traits@D@std@@V?$allocator@D@2@@std@@V12@@std@@@std@@QAE@ABV01@@Z ENDP ; std::allocator<std::pair<std::basic_string<char,std::char_traits<char>,std::allocator<char> >,std::basic_string<char,std::char_traits<char>,std::allocator<char> > > >::allocator<std::pair<std::basic_string<char,std::char_traits<char>,std::allocator<char> >,std::basic_string<char,std::char_traits<char>,std::allocator<char> > > >
_TEXT	ENDS
PUBLIC	?deallocate@?$allocator@U?$pair@V?$basic_string@DU?$char_traits@D@std@@V?$allocator@D@2@@std@@V12@@std@@@std@@QAEXPAU?$pair@V?$basic_string@DU?$char_traits@D@std@@V?$allocator@D@2@@std@@V12@@2@I@Z ; std::allocator<std::pair<std::basic_string<char,std::char_traits<char>,std::allocator<char> >,std::basic_string<char,std::char_traits<char>,std::allocator<char> > > >::deallocate
; Function compile flags: /Ogtpy
;	COMDAT ?deallocate@?$allocator@U?$pair@V?$basic_string@DU?$char_traits@D@std@@V?$allocator@D@2@@std@@V12@@std@@@std@@QAEXPAU?$pair@V?$basic_string@DU?$char_traits@D@std@@V?$allocator@D@2@@std@@V12@@2@I@Z
_TEXT	SEGMENT
__Ptr$ = 8						; size = 4
___formal$ = 12						; size = 4
?deallocate@?$allocator@U?$pair@V?$basic_string@DU?$char_traits@D@std@@V?$allocator@D@2@@std@@V12@@std@@@std@@QAEXPAU?$pair@V?$basic_string@DU?$char_traits@D@std@@V?$allocator@D@2@@std@@V12@@2@I@Z PROC ; std::allocator<std::pair<std::basic_string<char,std::char_traits<char>,std::allocator<char> >,std::basic_string<char,std::char_traits<char>,std::allocator<char> > > >::deallocate, COMDAT
; _this$ = ecx

; 140  : 		::operator delete(_Ptr);

	mov	eax, DWORD PTR __Ptr$[esp-4]
	push	eax
	call	??3@YAXPAX@Z				; operator delete
	pop	ecx

; 141  : 		}

	ret	8
?deallocate@?$allocator@U?$pair@V?$basic_string@DU?$char_traits@D@std@@V?$allocator@D@2@@std@@V12@@std@@@std@@QAEXPAU?$pair@V?$basic_string@DU?$char_traits@D@std@@V?$allocator@D@2@@std@@V12@@2@I@Z ENDP ; std::allocator<std::pair<std::basic_string<char,std::char_traits<char>,std::allocator<char> >,std::basic_string<char,std::char_traits<char>,std::allocator<char> > > >::deallocate
_TEXT	ENDS
PUBLIC	?Alloc@?$FStaticVector@UIDInfo@@$0BJ@$00$0BCJ@$0A@@@IAEPAUIDInfo@@I@Z ; FStaticVector<IDInfo,25,1,297,0>::Alloc
; Function compile flags: /Ogtpy
; File c:\users\enormousapplepie\documents\github\lekmod\lekmod_dll\fireplace\include\fireworks\ffastvector.h
;	COMDAT ?Alloc@?$FStaticVector@UIDInfo@@$0BJ@$00$0BCJ@$0A@@@IAEPAUIDInfo@@I@Z
_TEXT	SEGMENT
_uiSize$ = 8						; size = 4
?Alloc@?$FStaticVector@UIDInfo@@$0BJ@$00$0BCJ@$0A@@@IAEPAUIDInfo@@I@Z PROC ; FStaticVector<IDInfo,25,1,297,0>::Alloc, COMDAT
; _this$ = ecx

; 795  : 	T* Alloc(unsigned int uiSize){

	push	esi
	push	edi

; 796  : 		T* pRet;
; 797  : 		if( uiSize > L ){

	mov	edi, DWORD PTR _uiSize$[esp+4]
	mov	esi, ecx
	cmp	edi, 25					; 00000019H
	jbe	SHORT $LN2@Alloc@3

; 798  : 			pRet = (T*)FMALLOCALIGNED( uiSize*sizeof(T), __alignof(T), AllocPool, nSubID );

	push	798					; 0000031eH
	push	OFFSET ??_C@_0GH@ECFAPJEJ@c?3?2users?2enormousapplepie?2docume@
	lea	eax, DWORD PTR [edi*8]
	push	4
	push	eax
	call	?FireMallocAlignedNoTracking@@YAPAXIIPBDH@Z ; FireMallocAlignedNoTracking
	add	esp, 16					; 00000010H

; 799  : 			m_uiCurrMaxSize = uiSize;

	mov	DWORD PTR [esi+8], edi
	pop	edi
	pop	esi

; 803  : 		}
; 804  : 		return pRet;
; 805  : 	};

	ret	4
$LN2@Alloc@3:
	pop	edi

; 800  : 		}else{
; 801  : 			pRet = (T*)m_aData;

	lea	eax, DWORD PTR [esi+12]

; 802  : 			m_uiCurrMaxSize = L;

	mov	DWORD PTR [esi+8], 25			; 00000019H
	pop	esi

; 803  : 		}
; 804  : 		return pRet;
; 805  : 	};

	ret	4
?Alloc@?$FStaticVector@UIDInfo@@$0BJ@$00$0BCJ@$0A@@@IAEPAUIDInfo@@I@Z ENDP ; FStaticVector<IDInfo,25,1,297,0>::Alloc
_TEXT	ENDS
PUBLIC	?Destroy@?$BaseVector@PAVCvPlot@@$00@@IAEXPAPAVCvPlot@@I@Z ; BaseVector<CvPlot *,1>::Destroy
; Function compile flags: /Ogtpy
;	COMDAT ?Destroy@?$BaseVector@PAVCvPlot@@$00@@IAEXPAPAVCvPlot@@I@Z
_TEXT	SEGMENT
_pVal$ = 8						; size = 4
_uiNumElements$ = 12					; size = 4
?Destroy@?$BaseVector@PAVCvPlot@@$00@@IAEXPAPAVCvPlot@@I@Z PROC ; BaseVector<CvPlot *,1>::Destroy, COMDAT
; _this$ = ecx

; 221  : 		if( !bPODType){
; 222  : 			for(unsigned int i = 0; i < uiNumElements; ++i){
; 223  : 				pVal[i].~T();
; 224  : 			}
; 225  : 		}
; 226  : 	};

	ret	8
?Destroy@?$BaseVector@PAVCvPlot@@$00@@IAEXPAPAVCvPlot@@I@Z ENDP ; BaseVector<CvPlot *,1>::Destroy
_TEXT	ENDS
PUBLIC	?max_size@?$allocator@PAVCvPlot@@@std@@QBEIXZ	; std::allocator<CvPlot *>::max_size
; Function compile flags: /Ogtpy
; File c:\program files (x86)\microsoft visual studio 9.0\vc\include\xmemory
;	COMDAT ?max_size@?$allocator@PAVCvPlot@@@std@@QBEIXZ
_TEXT	SEGMENT
?max_size@?$allocator@PAVCvPlot@@@std@@QBEIXZ PROC	; std::allocator<CvPlot *>::max_size, COMDAT
; _this$ = ecx

; 165  : 		_SIZT _Count = (_SIZT)(-1) / sizeof (_Ty);
; 166  : 		return (0 < _Count ? _Count : 1);

	mov	eax, 1073741823				; 3fffffffH

; 167  : 		}

	ret	0
?max_size@?$allocator@PAVCvPlot@@@std@@QBEIXZ ENDP	; std::allocator<CvPlot *>::max_size
_TEXT	ENDS
PUBLIC	?_Max@?$_Tree@V?$_Tset_traits@PAVCvPlot@@U?$less@PAVCvPlot@@@std@@V?$allocator@PAVCvPlot@@@3@$0A@@std@@@std@@KAPAU_Node@?$_Tree_nod@V?$_Tset_traits@PAVCvPlot@@U?$less@PAVCvPlot@@@std@@V?$allocator@PAVCvPlot@@@3@$0A@@std@@@2@PAU342@@Z ; std::_Tree<std::_Tset_traits<CvPlot *,std::less<CvPlot *>,std::allocator<CvPlot *>,0> >::_Max
; Function compile flags: /Ogtpy
; File c:\program files (x86)\microsoft visual studio 9.0\vc\include\xtree
;	COMDAT ?_Max@?$_Tree@V?$_Tset_traits@PAVCvPlot@@U?$less@PAVCvPlot@@@std@@V?$allocator@PAVCvPlot@@@3@$0A@@std@@@std@@KAPAU_Node@?$_Tree_nod@V?$_Tset_traits@PAVCvPlot@@U?$less@PAVCvPlot@@@std@@V?$allocator@PAVCvPlot@@@3@$0A@@std@@@2@PAU342@@Z
_TEXT	SEGMENT
__Pnode$ = 8						; size = 4
?_Max@?$_Tree@V?$_Tset_traits@PAVCvPlot@@U?$less@PAVCvPlot@@@std@@V?$allocator@PAVCvPlot@@@3@$0A@@std@@@std@@KAPAU_Node@?$_Tree_nod@V?$_Tset_traits@PAVCvPlot@@U?$less@PAVCvPlot@@@std@@V?$allocator@PAVCvPlot@@@3@$0A@@std@@@2@PAU342@@Z PROC ; std::_Tree<std::_Tset_traits<CvPlot *,std::less<CvPlot *>,std::allocator<CvPlot *>,0> >::_Max, COMDAT

; 1306 : 		while (!_Isnil(_Right(_Pnode)))

	mov	eax, DWORD PTR __Pnode$[esp-4]
	mov	ecx, DWORD PTR [eax+8]
	cmp	BYTE PTR [ecx+17], 0
	jne	SHORT $LN1@Max
	npad	3
$LL2@Max:

; 1307 : 			_Pnode = _Right(_Pnode);

	mov	eax, ecx
	mov	ecx, DWORD PTR [eax+8]
	cmp	BYTE PTR [ecx+17], 0
	je	SHORT $LL2@Max
$LN1@Max:

; 1308 : 		return (_Pnode);
; 1309 : 		}

	ret	0
?_Max@?$_Tree@V?$_Tset_traits@PAVCvPlot@@U?$less@PAVCvPlot@@@std@@V?$allocator@PAVCvPlot@@@3@$0A@@std@@@std@@KAPAU_Node@?$_Tree_nod@V?$_Tset_traits@PAVCvPlot@@U?$less@PAVCvPlot@@@std@@V?$allocator@PAVCvPlot@@@3@$0A@@std@@@2@PAU342@@Z ENDP ; std::_Tree<std::_Tset_traits<CvPlot *,std::less<CvPlot *>,std::allocator<CvPlot *>,0> >::_Max
_TEXT	ENDS
PUBLIC	?_Dec@const_iterator@?$_Tree@V?$_Tset_traits@PAVCvPlot@@U?$less@PAVCvPlot@@@std@@V?$allocator@PAVCvPlot@@@3@$0A@@std@@@std@@QAEXXZ ; std::_Tree<std::_Tset_traits<CvPlot *,std::less<CvPlot *>,std::allocator<CvPlot *>,0> >::const_iterator::_Dec
; Function compile flags: /Ogtpy
;	COMDAT ?_Dec@const_iterator@?$_Tree@V?$_Tset_traits@PAVCvPlot@@U?$less@PAVCvPlot@@@std@@V?$allocator@PAVCvPlot@@@3@$0A@@std@@@std@@QAEXXZ
_TEXT	SEGMENT
?_Dec@const_iterator@?$_Tree@V?$_Tset_traits@PAVCvPlot@@U?$less@PAVCvPlot@@@std@@V?$allocator@PAVCvPlot@@@3@$0A@@std@@@std@@QAEXXZ PROC ; std::_Tree<std::_Tset_traits<CvPlot *,std::less<CvPlot *>,std::allocator<CvPlot *>,0> >::const_iterator::_Dec, COMDAT
; _this$ = ecx

; 321  : 
; 322  :  #if _HAS_ITERATOR_DEBUGGING
; 323  : 			if (this->_Mycont == 0
; 324  : 				|| _Ptr == 0)
; 325  : 				{
; 326  : 				_DEBUG_ERROR("map/set iterator not decrementable");
; 327  : 				_SCL_SECURE_INVALID_ARGUMENT;
; 328  : 				}
; 329  :  #else
; 330  : 			_SCL_SECURE_VALIDATE(this->_Has_container());
; 331  :  #endif /* _HAS_ITERATOR_DEBUGGING */
; 332  : 
; 333  : 			if (_Isnil(_Ptr))

	mov	eax, DWORD PTR [ecx]
	cmp	BYTE PTR [eax+17], 0
	je	SHORT $LN9@Dec

; 334  : 			{
; 335  : 				_Ptr = _Right(_Ptr);	// end() ==> rightmost

	mov	eax, DWORD PTR [eax+8]

; 359  :  #if _HAS_ITERATOR_DEBUGGING
; 360  :  					{
; 361  : 					_DEBUG_ERROR("map/set iterator not decrementable");
; 362  : 					_SCL_SECURE_OUT_OF_RANGE;
; 363  : 					}
; 364  :  #elif _SECURE_SCL
; 365  : 					{
; 366  : 					_SCL_SECURE_OUT_OF_RANGE;
; 367  : 					}
; 368  :  #else
; 369  : 					return;	// begin() shouldn't be incremented, don't move
; 370  :  #endif
; 371  : 				else
; 372  : 					_Ptr = _Pnode;	// ==> parent if not head

	mov	DWORD PTR [ecx], eax

; 373  : 				}
; 374  : 			}

	ret	0
$LN9@Dec:

; 336  :    				if (_Isnil(_Ptr))
; 337  : #if _HAS_ITERATOR_DEBUGGING
; 338  : 				{
; 339  : 					_DEBUG_ERROR("map/set iterator not decrementable");
; 340  : 					_SCL_SECURE_OUT_OF_RANGE;
; 341  : 				}
; 342  : #elif _SECURE_SCL
; 343  : 				{
; 344  :     				_SCL_SECURE_OUT_OF_RANGE;
; 345  : 				}
; 346  : #else
; 347  : 				return;	// begin() shouldn't be incremented, don't move
; 348  : #endif
; 349  : 			}
; 350  : 			else if (!_Isnil(_Left(_Ptr)))

	mov	edx, DWORD PTR [eax]
	cmp	BYTE PTR [edx+17], 0
	jne	SHORT $LN43@Dec

; 351  : 				_Ptr = _Max(_Left(_Ptr));	// ==> largest of left subtree

	mov	eax, DWORD PTR [edx+8]
	cmp	BYTE PTR [eax+17], 0
	jne	SHORT $LN24@Dec
	npad	1
$LL25@Dec:
	mov	edx, eax
	mov	eax, DWORD PTR [edx+8]
	cmp	BYTE PTR [eax+17], 0
	je	SHORT $LL25@Dec
$LN24@Dec:
	mov	DWORD PTR [ecx], edx

; 373  : 				}
; 374  : 			}

	ret	0
$LN43@Dec:

; 352  : 			else
; 353  : 				{	// climb looking for left subtree
; 354  : 				_Nodeptr _Pnode;
; 355  : 				while (!_Isnil(_Pnode = _Parent(_Ptr))
; 356  : 					&& _Ptr == _Left(_Pnode))

	mov	eax, DWORD PTR [eax+4]
	cmp	BYTE PTR [eax+17], 0
	jne	SHORT $LN3@Dec
$LL4@Dec:
	mov	edx, DWORD PTR [ecx]
	cmp	edx, DWORD PTR [eax]
	jne	SHORT $LN3@Dec

; 357  : 					_Ptr = _Pnode;	// ==> parent while left subtree

	mov	DWORD PTR [ecx], eax
	mov	eax, DWORD PTR [eax+4]
	cmp	BYTE PTR [eax+17], 0
	je	SHORT $LL4@Dec
$LN3@Dec:

; 358  : 				if (_Isnil(_Ptr))

	mov	edx, DWORD PTR [ecx]
	cmp	BYTE PTR [edx+17], 0
	jne	SHORT $LN1@Dec

; 359  :  #if _HAS_ITERATOR_DEBUGGING
; 360  :  					{
; 361  : 					_DEBUG_ERROR("map/set iterator not decrementable");
; 362  : 					_SCL_SECURE_OUT_OF_RANGE;
; 363  : 					}
; 364  :  #elif _SECURE_SCL
; 365  : 					{
; 366  : 					_SCL_SECURE_OUT_OF_RANGE;
; 367  : 					}
; 368  :  #else
; 369  : 					return;	// begin() shouldn't be incremented, don't move
; 370  :  #endif
; 371  : 				else
; 372  : 					_Ptr = _Pnode;	// ==> parent if not head

	mov	DWORD PTR [ecx], eax
$LN1@Dec:

; 373  : 				}
; 374  : 			}

	ret	0
?_Dec@const_iterator@?$_Tree@V?$_Tset_traits@PAVCvPlot@@U?$less@PAVCvPlot@@@std@@V?$allocator@PAVCvPlot@@@3@$0A@@std@@@std@@QAEXXZ ENDP ; std::_Tree<std::_Tset_traits<CvPlot *,std::less<CvPlot *>,std::allocator<CvPlot *>,0> >::const_iterator::_Dec
_TEXT	ENDS
PUBLIC	?max_size@?$allocator@U?$pair@V?$basic_string@DU?$char_traits@D@std@@V?$allocator@D@2@@std@@V12@@std@@@std@@QBEIXZ ; std::allocator<std::pair<std::basic_string<char,std::char_traits<char>,std::allocator<char> >,std::basic_string<char,std::char_traits<char>,std::allocator<char> > > >::max_size
; Function compile flags: /Ogtpy
; File c:\program files (x86)\microsoft visual studio 9.0\vc\include\xmemory
;	COMDAT ?max_size@?$allocator@U?$pair@V?$basic_string@DU?$char_traits@D@std@@V?$allocator@D@2@@std@@V12@@std@@@std@@QBEIXZ
_TEXT	SEGMENT
?max_size@?$allocator@U?$pair@V?$basic_string@DU?$char_traits@D@std@@V?$allocator@D@2@@std@@V12@@std@@@std@@QBEIXZ PROC ; std::allocator<std::pair<std::basic_string<char,std::char_traits<char>,std::allocator<char> >,std::basic_string<char,std::char_traits<char>,std::allocator<char> > > >::max_size, COMDAT
; _this$ = ecx

; 165  : 		_SIZT _Count = (_SIZT)(-1) / sizeof (_Ty);
; 166  : 		return (0 < _Count ? _Count : 1);

	mov	eax, 76695844				; 04924924H

; 167  : 		}

	ret	0
?max_size@?$allocator@U?$pair@V?$basic_string@DU?$char_traits@D@std@@V?$allocator@D@2@@std@@V12@@std@@@std@@QBEIXZ ENDP ; std::allocator<std::pair<std::basic_string<char,std::char_traits<char>,std::allocator<char> >,std::basic_string<char,std::char_traits<char>,std::allocator<char> > > >::max_size
_TEXT	ENDS
PUBLIC	??0?$pair@Viterator@?$_Tree@V?$_Tset_traits@PAVCvPlot@@U?$less@PAVCvPlot@@@std@@V?$allocator@PAVCvPlot@@@3@$0A@@std@@@std@@V123@@std@@QAE@ABViterator@?$_Tree@V?$_Tset_traits@PAVCvPlot@@U?$less@PAVCvPlot@@@std@@V?$allocator@PAVCvPlot@@@3@$0A@@std@@@1@0@Z ; std::pair<std::_Tree<std::_Tset_traits<CvPlot *,std::less<CvPlot *>,std::allocator<CvPlot *>,0> >::iterator,std::_Tree<std::_Tset_traits<CvPlot *,std::less<CvPlot *>,std::allocator<CvPlot *>,0> >::iterator>::pair<std::_Tree<std::_Tset_traits<CvPlot *,std::less<CvPlot *>,std::allocator<CvPlot *>,0> >::iterator,std::_Tree<std::_Tset_traits<CvPlot *,std::less<CvPlot *>,std::allocator<CvPlot *>,0> >::iterator>
; Function compile flags: /Ogtpy
; File c:\program files (x86)\microsoft visual studio 9.0\vc\include\utility
;	COMDAT ??0?$pair@Viterator@?$_Tree@V?$_Tset_traits@PAVCvPlot@@U?$less@PAVCvPlot@@@std@@V?$allocator@PAVCvPlot@@@3@$0A@@std@@@std@@V123@@std@@QAE@ABViterator@?$_Tree@V?$_Tset_traits@PAVCvPlot@@U?$less@PAVCvPlot@@@std@@V?$allocator@PAVCvPlot@@@3@$0A@@std@@@1@0@Z
_TEXT	SEGMENT
__Val1$ = 8						; size = 4
__Val2$ = 12						; size = 4
??0?$pair@Viterator@?$_Tree@V?$_Tset_traits@PAVCvPlot@@U?$less@PAVCvPlot@@@std@@V?$allocator@PAVCvPlot@@@3@$0A@@std@@@std@@V123@@std@@QAE@ABViterator@?$_Tree@V?$_Tset_traits@PAVCvPlot@@U?$less@PAVCvPlot@@@std@@V?$allocator@PAVCvPlot@@@3@$0A@@std@@@1@0@Z PROC ; std::pair<std::_Tree<std::_Tset_traits<CvPlot *,std::less<CvPlot *>,std::allocator<CvPlot *>,0> >::iterator,std::_Tree<std::_Tset_traits<CvPlot *,std::less<CvPlot *>,std::allocator<CvPlot *>,0> >::iterator>::pair<std::_Tree<std::_Tset_traits<CvPlot *,std::less<CvPlot *>,std::allocator<CvPlot *>,0> >::iterator,std::_Tree<std::_Tset_traits<CvPlot *,std::less<CvPlot *>,std::allocator<CvPlot *>,0> >::iterator>, COMDAT
; _this$ = ecx

; 50   : 		{	// construct from specified values

	mov	eax, ecx
	mov	ecx, DWORD PTR __Val1$[esp-4]
	mov	edx, DWORD PTR [ecx]
	mov	ecx, DWORD PTR __Val2$[esp-4]
	mov	DWORD PTR [eax], edx
	mov	edx, DWORD PTR [ecx]
	mov	DWORD PTR [eax+4], edx

; 51   : 		}

	ret	8
??0?$pair@Viterator@?$_Tree@V?$_Tset_traits@PAVCvPlot@@U?$less@PAVCvPlot@@@std@@V?$allocator@PAVCvPlot@@@3@$0A@@std@@@std@@V123@@std@@QAE@ABViterator@?$_Tree@V?$_Tset_traits@PAVCvPlot@@U?$less@PAVCvPlot@@@std@@V?$allocator@PAVCvPlot@@@3@$0A@@std@@@1@0@Z ENDP ; std::pair<std::_Tree<std::_Tset_traits<CvPlot *,std::less<CvPlot *>,std::allocator<CvPlot *>,0> >::iterator,std::_Tree<std::_Tset_traits<CvPlot *,std::less<CvPlot *>,std::allocator<CvPlot *>,0> >::iterator>::pair<std::_Tree<std::_Tset_traits<CvPlot *,std::less<CvPlot *>,std::allocator<CvPlot *>,0> >::iterator,std::_Tree<std::_Tset_traits<CvPlot *,std::less<CvPlot *>,std::allocator<CvPlot *>,0> >::iterator>
_TEXT	ENDS
PUBLIC	??0_Node@?$_Tree_nod@V?$_Tset_traits@PAVCvPlot@@U?$less@PAVCvPlot@@@std@@V?$allocator@PAVCvPlot@@@3@$0A@@std@@@std@@QAE@PAU012@00ABQAVCvPlot@@D@Z ; std::_Tree_nod<std::_Tset_traits<CvPlot *,std::less<CvPlot *>,std::allocator<CvPlot *>,0> >::_Node::_Node
; Function compile flags: /Ogtpy
; File c:\program files (x86)\microsoft visual studio 9.0\vc\include\xtree
;	COMDAT ??0_Node@?$_Tree_nod@V?$_Tset_traits@PAVCvPlot@@U?$less@PAVCvPlot@@@std@@V?$allocator@PAVCvPlot@@@3@$0A@@std@@@std@@QAE@PAU012@00ABQAVCvPlot@@D@Z
_TEXT	SEGMENT
__Larg$ = 8						; size = 4
__Parg$ = 12						; size = 4
__Rarg$ = 16						; size = 4
__Val$ = 20						; size = 4
__Carg$ = 24						; size = 1
??0_Node@?$_Tree_nod@V?$_Tset_traits@PAVCvPlot@@U?$less@PAVCvPlot@@@std@@V?$allocator@PAVCvPlot@@@3@$0A@@std@@@std@@QAE@PAU012@00ABQAVCvPlot@@D@Z PROC ; std::_Tree_nod<std::_Tset_traits<CvPlot *,std::less<CvPlot *>,std::allocator<CvPlot *>,0> >::_Node::_Node, COMDAT
; _this$ = ecx

; 38   : 			{	// construct a node with value

	mov	edx, DWORD PTR __Parg$[esp-4]
	mov	eax, ecx
	mov	ecx, DWORD PTR __Larg$[esp-4]
	mov	DWORD PTR [eax], ecx
	mov	ecx, DWORD PTR __Rarg$[esp-4]
	mov	DWORD PTR [eax+4], edx
	mov	edx, DWORD PTR __Val$[esp-4]
	mov	DWORD PTR [eax+8], ecx
	mov	ecx, DWORD PTR [edx]
	mov	dl, BYTE PTR __Carg$[esp-4]
	mov	DWORD PTR [eax+12], ecx
	mov	BYTE PTR [eax+16], dl
	mov	BYTE PTR [eax+17], 0

; 39   : 			}

	ret	20					; 00000014H
??0_Node@?$_Tree_nod@V?$_Tset_traits@PAVCvPlot@@U?$less@PAVCvPlot@@@std@@V?$allocator@PAVCvPlot@@@3@$0A@@std@@@std@@QAE@PAU012@00ABQAVCvPlot@@D@Z ENDP ; std::_Tree_nod<std::_Tset_traits<CvPlot *,std::less<CvPlot *>,std::allocator<CvPlot *>,0> >::_Node::_Node
_TEXT	ENDS
PUBLIC	?AllocAligned@FDefaultFastVectorAllocator@?$BaseVector@UIDInfo@@$00@@SAPAXIIII@Z ; BaseVector<IDInfo,1>::FDefaultFastVectorAllocator::AllocAligned
; Function compile flags: /Ogtpy
; File c:\users\enormousapplepie\documents\github\lekmod\lekmod_dll\fireplace\include\fireworks\ffastvector.h
;	COMDAT ?AllocAligned@FDefaultFastVectorAllocator@?$BaseVector@UIDInfo@@$00@@SAPAXIIII@Z
_TEXT	SEGMENT
_nBytes$ = 8						; size = 4
_nAlign$ = 12						; size = 4
_nAllocPool$ = 16					; size = 4
_nAllocSubID$ = 20					; size = 4
?AllocAligned@FDefaultFastVectorAllocator@?$BaseVector@UIDInfo@@$00@@SAPAXIIII@Z PROC ; BaseVector<IDInfo,1>::FDefaultFastVectorAllocator::AllocAligned, COMDAT

; 85   : 			return FMALLOCALIGNED( nBytes, nAlign, nAllocPool, nAllocSubID );

	mov	DWORD PTR _nAllocSubID$[esp-4], 85	; 00000055H
	mov	DWORD PTR _nAllocPool$[esp-4], OFFSET ??_C@_0GH@ECFAPJEJ@c?3?2users?2enormousapplepie?2docume@
	jmp	?FireMallocAlignedNoTracking@@YAPAXIIPBDH@Z ; FireMallocAlignedNoTracking
?AllocAligned@FDefaultFastVectorAllocator@?$BaseVector@UIDInfo@@$00@@SAPAXIIII@Z ENDP ; BaseVector<IDInfo,1>::FDefaultFastVectorAllocator::AllocAligned
_TEXT	ENDS
PUBLIC	?FreeAligned@FDefaultFastVectorAllocator@?$BaseVector@UIDInfo@@$00@@SAXPAX@Z ; BaseVector<IDInfo,1>::FDefaultFastVectorAllocator::FreeAligned
EXTRN	?FireFreeAlignedNoTracking@@YAXPAX@Z:PROC	; FireFreeAlignedNoTracking
; Function compile flags: /Ogtpy
;	COMDAT ?FreeAligned@FDefaultFastVectorAllocator@?$BaseVector@UIDInfo@@$00@@SAXPAX@Z
_TEXT	SEGMENT
_pBlock$ = 8						; size = 4
?FreeAligned@FDefaultFastVectorAllocator@?$BaseVector@UIDInfo@@$00@@SAXPAX@Z PROC ; BaseVector<IDInfo,1>::FDefaultFastVectorAllocator::FreeAligned, COMDAT

; 90   : 			FFREEALIGNED( pBlock );

	jmp	?FireFreeAlignedNoTracking@@YAXPAX@Z	; FireFreeAlignedNoTracking
?FreeAligned@FDefaultFastVectorAllocator@?$BaseVector@UIDInfo@@$00@@SAXPAX@Z ENDP ; BaseVector<IDInfo,1>::FDefaultFastVectorAllocator::FreeAligned
_TEXT	ENDS
PUBLIC	?getAI_DIPLO_PLOT_RANGE_FROM_CITY_HOME_FRONT@CvGlobals@@QAEHXZ ; CvGlobals::getAI_DIPLO_PLOT_RANGE_FROM_CITY_HOME_FRONT
; Function compile flags: /Ogtpy
; File c:\users\enormousapplepie\documents\github\lekmod\lekmod_dll\cvgamecoredll_expansion2\cvglobals.h
;	COMDAT ?getAI_DIPLO_PLOT_RANGE_FROM_CITY_HOME_FRONT@CvGlobals@@QAEHXZ
_TEXT	SEGMENT
?getAI_DIPLO_PLOT_RANGE_FROM_CITY_HOME_FRONT@CvGlobals@@QAEHXZ PROC ; CvGlobals::getAI_DIPLO_PLOT_RANGE_FROM_CITY_HOME_FRONT, COMDAT
; _this$ = ecx

; 1769 : 		return m_iAI_DIPLO_PLOT_RANGE_FROM_CITY_HOME_FRONT;

	mov	eax, DWORD PTR [ecx+2704]

; 1770 : 	}

	ret	0
?getAI_DIPLO_PLOT_RANGE_FROM_CITY_HOME_FRONT@CvGlobals@@QAEHXZ ENDP ; CvGlobals::getAI_DIPLO_PLOT_RANGE_FROM_CITY_HOME_FRONT
_TEXT	ENDS
PUBLIC	??0?$_Container_base_aux_alloc_empty@V?$allocator@PAVCvPlot@@@std@@@std@@IAE@V?$allocator@PAVCvPlot@@@1@@Z ; std::_Container_base_aux_alloc_empty<std::allocator<CvPlot *> >::_Container_base_aux_alloc_empty<std::allocator<CvPlot *> >
; Function compile flags: /Ogtpy
; File c:\program files (x86)\microsoft visual studio 9.0\vc\include\xutility
;	COMDAT ??0?$_Container_base_aux_alloc_empty@V?$allocator@PAVCvPlot@@@std@@@std@@IAE@V?$allocator@PAVCvPlot@@@1@@Z
_TEXT	SEGMENT
___formal$ = 8						; size = 1
??0?$_Container_base_aux_alloc_empty@V?$allocator@PAVCvPlot@@@std@@@std@@IAE@V?$allocator@PAVCvPlot@@@1@@Z PROC ; std::_Container_base_aux_alloc_empty<std::allocator<CvPlot *> >::_Container_base_aux_alloc_empty<std::allocator<CvPlot *> >, COMDAT
; _this$ = ecx

; 618  : 	explicit _Container_base_aux_alloc_empty(_Alloc) { }

	mov	eax, ecx
	ret	4
??0?$_Container_base_aux_alloc_empty@V?$allocator@PAVCvPlot@@@std@@@std@@IAE@V?$allocator@PAVCvPlot@@@1@@Z ENDP ; std::_Container_base_aux_alloc_empty<std::allocator<CvPlot *> >::_Container_base_aux_alloc_empty<std::allocator<CvPlot *> >
_TEXT	ENDS
PUBLIC	??_7?$FAutoVariable@DVCvPlot@@@@6B@		; FAutoVariable<char,CvPlot>::`vftable'
PUBLIC	??0?$FAutoVariable@DVCvPlot@@@@QAE@ABV?$basic_string@DU?$char_traits@D@std@@V?$allocator@D@2@@std@@AAV?$FAutoArchiveClassContainer@VCvPlot@@@@_N@Z ; FAutoVariable<char,CvPlot>::FAutoVariable<char,CvPlot>
PUBLIC	??_R4?$FAutoVariable@DVCvPlot@@@@6B@		; FAutoVariable<char,CvPlot>::`RTTI Complete Object Locator'
PUBLIC	??_R0?AV?$FAutoVariable@DVCvPlot@@@@@8		; FAutoVariable<char,CvPlot> `RTTI Type Descriptor'
PUBLIC	??_R3?$FAutoVariable@DVCvPlot@@@@8		; FAutoVariable<char,CvPlot>::`RTTI Class Hierarchy Descriptor'
PUBLIC	??_R2?$FAutoVariable@DVCvPlot@@@@8		; FAutoVariable<char,CvPlot>::`RTTI Base Class Array'
PUBLIC	??_R1A@?0A@EA@?$FAutoVariable@DVCvPlot@@@@8	; FAutoVariable<char,CvPlot>::`RTTI Base Class Descriptor at (0,-1,0,64)'
PUBLIC	??_R1A@?0A@EA@FAutoVariableBase@@8		; FAutoVariableBase::`RTTI Base Class Descriptor at (0,-1,0,64)'
PUBLIC	??_R0?AVFAutoVariableBase@@@8			; FAutoVariableBase `RTTI Type Descriptor'
PUBLIC	??_R3FAutoVariableBase@@8			; FAutoVariableBase::`RTTI Class Hierarchy Descriptor'
PUBLIC	??_R2FAutoVariableBase@@8			; FAutoVariableBase::`RTTI Base Class Array'
PUBLIC	?load@?$FAutoVariable@DVCvPlot@@@@UAEXAAVFDataStream@@@Z ; FAutoVariable<char,CvPlot>::load
PUBLIC	?loadDelta@?$FAutoVariable@DVCvPlot@@@@UAEXAAVFDataStream@@@Z ; FAutoVariable<char,CvPlot>::loadDelta
PUBLIC	?save@?$FAutoVariable@DVCvPlot@@@@UBEXAAVFDataStream@@@Z ; FAutoVariable<char,CvPlot>::save
PUBLIC	?saveDelta@?$FAutoVariable@DVCvPlot@@@@UBEXAAVFDataStream@@@Z ; FAutoVariable<char,CvPlot>::saveDelta
PUBLIC	?clearDelta@?$FAutoVariable@DVCvPlot@@@@UAEXXZ	; FAutoVariable<char,CvPlot>::clearDelta
PUBLIC	?compare@?$FAutoVariable@DVCvPlot@@@@UBE_NAAVFDataStream@@@Z ; FAutoVariable<char,CvPlot>::compare
PUBLIC	?reset@?$FAutoVariable@DVCvPlot@@@@UAEXXZ	; FAutoVariable<char,CvPlot>::reset
PUBLIC	?name@?$FAutoVariable@DVCvPlot@@@@UBEABV?$basic_string@DU?$char_traits@D@std@@V?$allocator@D@2@@std@@XZ ; FAutoVariable<char,CvPlot>::name
PUBLIC	?setStackTraceRemark@?$FAutoVariable@DVCvPlot@@@@UAEXXZ ; FAutoVariable<char,CvPlot>::setStackTraceRemark
PUBLIC	?debugDump@?$FAutoVariable@DVCvPlot@@@@UBE?AV?$basic_string@DU?$char_traits@D@std@@V?$allocator@D@2@@std@@ABV?$vector@U?$pair@V?$basic_string@DU?$char_traits@D@std@@V?$allocator@D@2@@std@@V12@@std@@V?$allocator@U?$pair@V?$basic_string@DU?$char_traits@D@std@@V?$allocator@D@2@@std@@V12@@std@@@2@@3@@Z ; FAutoVariable<char,CvPlot>::debugDump
PUBLIC	?toString@?$FAutoVariable@DVCvPlot@@@@UBE?AV?$basic_string@DU?$char_traits@D@std@@V?$allocator@D@2@@std@@XZ ; FAutoVariable<char,CvPlot>::toString
EXTRN	??0FAutoVariableBase@@QAE@ABV?$basic_string@DU?$char_traits@D@std@@V?$allocator@D@2@@std@@AAVFAutoArchive@@_N@Z:PROC ; FAutoVariableBase::FAutoVariableBase
EXTRN	??_E?$FAutoVariable@DVCvPlot@@@@UAEPAXI@Z:PROC	; FAutoVariable<char,CvPlot>::`vector deleting destructor'
;	COMDAT ??_R2FAutoVariableBase@@8
; File c:\users\enormousapplepie\documents\github\lekmod\lekmod_dll\fireplace\include\fireworks\fautovariable.h
rdata$r	SEGMENT
??_R2FAutoVariableBase@@8 DD FLAT:??_R1A@?0A@EA@FAutoVariableBase@@8 ; FAutoVariableBase::`RTTI Base Class Array'
rdata$r	ENDS
;	COMDAT ??_R3FAutoVariableBase@@8
rdata$r	SEGMENT
??_R3FAutoVariableBase@@8 DD 00H			; FAutoVariableBase::`RTTI Class Hierarchy Descriptor'
	DD	00H
	DD	01H
	DD	FLAT:??_R2FAutoVariableBase@@8
rdata$r	ENDS
;	COMDAT ??_R0?AVFAutoVariableBase@@@8
_DATA	SEGMENT
??_R0?AVFAutoVariableBase@@@8 DD FLAT:??_7type_info@@6B@ ; FAutoVariableBase `RTTI Type Descriptor'
	DD	00H
	DB	'.?AVFAutoVariableBase@@', 00H
_DATA	ENDS
;	COMDAT ??_R1A@?0A@EA@FAutoVariableBase@@8
rdata$r	SEGMENT
??_R1A@?0A@EA@FAutoVariableBase@@8 DD FLAT:??_R0?AVFAutoVariableBase@@@8 ; FAutoVariableBase::`RTTI Base Class Descriptor at (0,-1,0,64)'
	DD	00H
	DD	00H
	DD	0ffffffffH
	DD	00H
	DD	040H
	DD	FLAT:??_R3FAutoVariableBase@@8
rdata$r	ENDS
;	COMDAT ??_R1A@?0A@EA@?$FAutoVariable@DVCvPlot@@@@8
rdata$r	SEGMENT
??_R1A@?0A@EA@?$FAutoVariable@DVCvPlot@@@@8 DD FLAT:??_R0?AV?$FAutoVariable@DVCvPlot@@@@@8 ; FAutoVariable<char,CvPlot>::`RTTI Base Class Descriptor at (0,-1,0,64)'
	DD	01H
	DD	00H
	DD	0ffffffffH
	DD	00H
	DD	040H
	DD	FLAT:??_R3?$FAutoVariable@DVCvPlot@@@@8
rdata$r	ENDS
;	COMDAT ??_R2?$FAutoVariable@DVCvPlot@@@@8
rdata$r	SEGMENT
??_R2?$FAutoVariable@DVCvPlot@@@@8 DD FLAT:??_R1A@?0A@EA@?$FAutoVariable@DVCvPlot@@@@8 ; FAutoVariable<char,CvPlot>::`RTTI Base Class Array'
	DD	FLAT:??_R1A@?0A@EA@FAutoVariableBase@@8
rdata$r	ENDS
;	COMDAT ??_R3?$FAutoVariable@DVCvPlot@@@@8
rdata$r	SEGMENT
??_R3?$FAutoVariable@DVCvPlot@@@@8 DD 00H		; FAutoVariable<char,CvPlot>::`RTTI Class Hierarchy Descriptor'
	DD	00H
	DD	02H
	DD	FLAT:??_R2?$FAutoVariable@DVCvPlot@@@@8
rdata$r	ENDS
;	COMDAT ??_R0?AV?$FAutoVariable@DVCvPlot@@@@@8
_DATA	SEGMENT
??_R0?AV?$FAutoVariable@DVCvPlot@@@@@8 DD FLAT:??_7type_info@@6B@ ; FAutoVariable<char,CvPlot> `RTTI Type Descriptor'
	DD	00H
	DB	'.?AV?$FAutoVariable@DVCvPlot@@@@', 00H
_DATA	ENDS
;	COMDAT ??_R4?$FAutoVariable@DVCvPlot@@@@6B@
rdata$r	SEGMENT
??_R4?$FAutoVariable@DVCvPlot@@@@6B@ DD 00H		; FAutoVariable<char,CvPlot>::`RTTI Complete Object Locator'
	DD	00H
	DD	00H
	DD	FLAT:??_R0?AV?$FAutoVariable@DVCvPlot@@@@@8
	DD	FLAT:??_R3?$FAutoVariable@DVCvPlot@@@@8
rdata$r	ENDS
;	COMDAT ??_7?$FAutoVariable@DVCvPlot@@@@6B@
CONST	SEGMENT
??_7?$FAutoVariable@DVCvPlot@@@@6B@ DD FLAT:??_R4?$FAutoVariable@DVCvPlot@@@@6B@ ; FAutoVariable<char,CvPlot>::`vftable'
	DD	FLAT:??_E?$FAutoVariable@DVCvPlot@@@@UAEPAXI@Z
	DD	FLAT:?load@?$FAutoVariable@DVCvPlot@@@@UAEXAAVFDataStream@@@Z
	DD	FLAT:?loadDelta@?$FAutoVariable@DVCvPlot@@@@UAEXAAVFDataStream@@@Z
	DD	FLAT:?save@?$FAutoVariable@DVCvPlot@@@@UBEXAAVFDataStream@@@Z
	DD	FLAT:?saveDelta@?$FAutoVariable@DVCvPlot@@@@UBEXAAVFDataStream@@@Z
	DD	FLAT:?clearDelta@?$FAutoVariable@DVCvPlot@@@@UAEXXZ
	DD	FLAT:?compare@?$FAutoVariable@DVCvPlot@@@@UBE_NAAVFDataStream@@@Z
	DD	FLAT:?reset@?$FAutoVariable@DVCvPlot@@@@UAEXXZ
	DD	FLAT:?name@?$FAutoVariable@DVCvPlot@@@@UBEABV?$basic_string@DU?$char_traits@D@std@@V?$allocator@D@2@@std@@XZ
	DD	FLAT:?setStackTraceRemark@?$FAutoVariable@DVCvPlot@@@@UAEXXZ
	DD	FLAT:?debugDump@?$FAutoVariable@DVCvPlot@@@@UBE?AV?$basic_string@DU?$char_traits@D@std@@V?$allocator@D@2@@std@@ABV?$vector@U?$pair@V?$basic_string@DU?$char_traits@D@std@@V?$allocator@D@2@@std@@V12@@std@@V?$allocator@U?$pair@V?$basic_string@DU?$char_traits@D@std@@V?$allocator@D@2@@std@@V12@@std@@@2@@3@@Z
	DD	FLAT:?toString@?$FAutoVariable@DVCvPlot@@@@UBE?AV?$basic_string@DU?$char_traits@D@std@@V?$allocator@D@2@@std@@XZ
; Function compile flags: /Ogtpy
CONST	ENDS
;	COMDAT ??0?$FAutoVariable@DVCvPlot@@@@QAE@ABV?$basic_string@DU?$char_traits@D@std@@V?$allocator@D@2@@std@@AAV?$FAutoArchiveClassContainer@VCvPlot@@@@_N@Z
_TEXT	SEGMENT
_name$ = 8						; size = 4
_owner$ = 12						; size = 4
_callStackTracking$ = 16				; size = 1
??0?$FAutoVariable@DVCvPlot@@@@QAE@ABV?$basic_string@DU?$char_traits@D@std@@V?$allocator@D@2@@std@@AAV?$FAutoArchiveClassContainer@VCvPlot@@@@_N@Z PROC ; FAutoVariable<char,CvPlot>::FAutoVariable<char,CvPlot>, COMDAT
; _this$ = ecx

; 147  : {

	mov	eax, DWORD PTR _callStackTracking$[esp-4]
	push	esi
	push	edi
	mov	edi, DWORD PTR _owner$[esp+4]
	push	eax
	mov	esi, ecx
	mov	ecx, DWORD PTR _name$[esp+8]
	push	edi
	push	ecx
	mov	ecx, esi
	call	??0FAutoVariableBase@@QAE@ABV?$basic_string@DU?$char_traits@D@std@@V?$allocator@D@2@@std@@AAVFAutoArchive@@_N@Z ; FAutoVariableBase::FAutoVariableBase
	mov	DWORD PTR [esi+8], edi
	pop	edi
	mov	DWORD PTR [esi], OFFSET ??_7?$FAutoVariable@DVCvPlot@@@@6B@
	mov	BYTE PTR [esi+4], 0

; 148  : }

	mov	eax, esi
	pop	esi
	ret	12					; 0000000cH
??0?$FAutoVariable@DVCvPlot@@@@QAE@ABV?$basic_string@DU?$char_traits@D@std@@V?$allocator@D@2@@std@@AAV?$FAutoArchiveClassContainer@VCvPlot@@@@_N@Z ENDP ; FAutoVariable<char,CvPlot>::FAutoVariable<char,CvPlot>
_TEXT	ENDS
PUBLIC	?get@?$FAutoVariable@DVCvPlot@@@@QBEABDXZ	; FAutoVariable<char,CvPlot>::get
; Function compile flags: /Ogtpy
;	COMDAT ?get@?$FAutoVariable@DVCvPlot@@@@QBEABDXZ
_TEXT	SEGMENT
?get@?$FAutoVariable@DVCvPlot@@@@QBEABDXZ PROC		; FAutoVariable<char,CvPlot>::get, COMDAT
; _this$ = ecx

; 177  : 	return m_value;

	lea	eax, DWORD PTR [ecx+4]

; 178  : }

	ret	0
?get@?$FAutoVariable@DVCvPlot@@@@QBEABDXZ ENDP		; FAutoVariable<char,CvPlot>::get
_TEXT	ENDS
PUBLIC	??$max@H@std@@YAABHABH0@Z			; std::max<int>
; Function compile flags: /Ogtpy
; File c:\program files (x86)\microsoft visual studio 9.0\vc\include\xutility
;	COMDAT ??$max@H@std@@YAABHABH0@Z
_TEXT	SEGMENT
__Left$ = 8						; size = 4
__Right$ = 12						; size = 4
??$max@H@std@@YAABHABH0@Z PROC				; std::max<int>, COMDAT

; 3384 : 	return (_DEBUG_LT(_Left, _Right) ? _Right : _Left);

	mov	eax, DWORD PTR __Left$[esp-4]
	mov	edx, DWORD PTR [eax]
	mov	ecx, DWORD PTR __Right$[esp-4]
	cmp	edx, DWORD PTR [ecx]
	jge	SHORT $LN4@max
	mov	eax, ecx
$LN4@max:

; 3385 : 	}

	ret	0
??$max@H@std@@YAABHABH0@Z ENDP				; std::max<int>
_TEXT	ENDS
PUBLIC	??$?6W4GreatWorkArtifactClass@@@FDataStream@@QAEAAV0@ABW4GreatWorkArtifactClass@@@Z ; FDataStream::operator<<<enum GreatWorkArtifactClass>
EXTRN	?Write@FDataStream@@IAEXABH@Z:PROC		; FDataStream::Write
; Function compile flags: /Ogtpy
; File c:\users\enormousapplepie\documents\github\lekmod\lekmod_dll\fireplace\include\fireworks\fdatastream.h
;	COMDAT ??$?6W4GreatWorkArtifactClass@@@FDataStream@@QAEAAV0@ABW4GreatWorkArtifactClass@@@Z
_TEXT	SEGMENT
$T230921 = 8						; size = 4
_kData$ = 8						; size = 4
??$?6W4GreatWorkArtifactClass@@@FDataStream@@QAEAAV0@ABW4GreatWorkArtifactClass@@@Z PROC ; FDataStream::operator<<<enum GreatWorkArtifactClass>, COMDAT
; _this$ = ecx

; 246  : 	// If the compiler produces an error here complaining about 
; 247  : 	// YouMustImplementASerializeOperatorForThisTypeError then
; 248  : 	// it could not find a specialization for the type supplied
; 249  : 	// in scope. If a specialization exists, be sure to include
; 250  : 	// the header (FStlContainerSerialization.h, for example), 
; 251  : 	// if not, implement :
; 252  : 	// FDataStream & operator<<(FDataStream &, YourCustomType &)
; 253  : 	Write( kData );

	mov	eax, DWORD PTR _kData$[esp-4]
	push	esi
	mov	esi, ecx
	mov	ecx, DWORD PTR [eax]
	lea	edx, DWORD PTR $T230921[esp]
	mov	DWORD PTR $T230921[esp], ecx
	push	edx
	mov	ecx, esi
	call	?Write@FDataStream@@IAEXABH@Z		; FDataStream::Write

; 254  : 	return ( *this );

	mov	eax, esi
	pop	esi

; 255  : }

	ret	4
??$?6W4GreatWorkArtifactClass@@@FDataStream@@QAEAAV0@ABW4GreatWorkArtifactClass@@@Z ENDP ; FDataStream::operator<<<enum GreatWorkArtifactClass>
_TEXT	ENDS
PUBLIC	??$?6W4GreatWorkType@@@FDataStream@@QAEAAV0@ABW4GreatWorkType@@@Z ; FDataStream::operator<<<enum GreatWorkType>
; Function compile flags: /Ogtpy
;	COMDAT ??$?6W4GreatWorkType@@@FDataStream@@QAEAAV0@ABW4GreatWorkType@@@Z
_TEXT	SEGMENT
$T230925 = 8						; size = 4
_kData$ = 8						; size = 4
??$?6W4GreatWorkType@@@FDataStream@@QAEAAV0@ABW4GreatWorkType@@@Z PROC ; FDataStream::operator<<<enum GreatWorkType>, COMDAT
; _this$ = ecx

; 246  : 	// If the compiler produces an error here complaining about 
; 247  : 	// YouMustImplementASerializeOperatorForThisTypeError then
; 248  : 	// it could not find a specialization for the type supplied
; 249  : 	// in scope. If a specialization exists, be sure to include
; 250  : 	// the header (FStlContainerSerialization.h, for example), 
; 251  : 	// if not, implement :
; 252  : 	// FDataStream & operator<<(FDataStream &, YourCustomType &)
; 253  : 	Write( kData );

	mov	eax, DWORD PTR _kData$[esp-4]
	push	esi
	mov	esi, ecx
	mov	ecx, DWORD PTR [eax]
	lea	edx, DWORD PTR $T230925[esp]
	mov	DWORD PTR $T230925[esp], ecx
	push	edx
	mov	ecx, esi
	call	?Write@FDataStream@@IAEXABH@Z		; FDataStream::Write

; 254  : 	return ( *this );

	mov	eax, esi
	pop	esi

; 255  : }

	ret	4
??$?6W4GreatWorkType@@@FDataStream@@QAEAAV0@ABW4GreatWorkType@@@Z ENDP ; FDataStream::operator<<<enum GreatWorkType>
_TEXT	ENDS
PUBLIC	??$SAFE_DELETE_ARRAY@D@@YAXAAPAD@Z		; SAFE_DELETE_ARRAY<char>
EXTRN	??_V@YAXPAX@Z:PROC				; operator delete[]
; Function compile flags: /Ogtpy
; File c:\users\enormousapplepie\documents\github\lekmod\lekmod_dll\fireplace\include\fireworks\ffiretypes.h
;	COMDAT ??$SAFE_DELETE_ARRAY@D@@YAXAAPAD@Z
_TEXT	SEGMENT
_pkInstanceArray$ = 8					; size = 4
??$SAFE_DELETE_ARRAY@D@@YAXAAPAD@Z PROC			; SAFE_DELETE_ARRAY<char>, COMDAT

; 311  : {

	push	esi

; 312  : 	delete[] pkInstanceArray;

	mov	esi, DWORD PTR _pkInstanceArray$[esp]
	mov	eax, DWORD PTR [esi]
	push	eax
	call	??_V@YAXPAX@Z				; operator delete[]
	add	esp, 4

; 313  : 	pkInstanceArray = NULL;

	mov	DWORD PTR [esi], 0
	pop	esi

; 314  : };

	ret	0
??$SAFE_DELETE_ARRAY@D@@YAXAAPAD@Z ENDP			; SAFE_DELETE_ARRAY<char>
_TEXT	ENDS
PUBLIC	??$SAFE_DELETE_ARRAY@F@@YAXAAPAF@Z		; SAFE_DELETE_ARRAY<short>
; Function compile flags: /Ogtpy
;	COMDAT ??$SAFE_DELETE_ARRAY@F@@YAXAAPAF@Z
_TEXT	SEGMENT
_pkInstanceArray$ = 8					; size = 4
??$SAFE_DELETE_ARRAY@F@@YAXAAPAF@Z PROC			; SAFE_DELETE_ARRAY<short>, COMDAT

; 311  : {

	push	esi

; 312  : 	delete[] pkInstanceArray;

	mov	esi, DWORD PTR _pkInstanceArray$[esp]
	mov	eax, DWORD PTR [esi]
	push	eax
	call	??_V@YAXPAX@Z				; operator delete[]
	add	esp, 4

; 313  : 	pkInstanceArray = NULL;

	mov	DWORD PTR [esi], 0
	pop	esi

; 314  : };

	ret	0
??$SAFE_DELETE_ARRAY@F@@YAXAAPAF@Z ENDP			; SAFE_DELETE_ARRAY<short>
_TEXT	ENDS
PUBLIC	??$min@H@std@@YAABHABH0@Z			; std::min<int>
; Function compile flags: /Ogtpy
; File c:\program files (x86)\microsoft visual studio 9.0\vc\include\xutility
;	COMDAT ??$min@H@std@@YAABHABH0@Z
_TEXT	SEGMENT
__Left$ = 8						; size = 4
__Right$ = 12						; size = 4
??$min@H@std@@YAABHABH0@Z PROC				; std::min<int>, COMDAT

; 3399 : 	return (_DEBUG_LT(_Right, _Left) ? _Right : _Left);

	mov	eax, DWORD PTR __Right$[esp-4]
	mov	edx, DWORD PTR [eax]
	mov	ecx, DWORD PTR __Left$[esp-4]
	cmp	edx, DWORD PTR [ecx]
	jl	SHORT $LN4@min
	mov	eax, ecx
$LN4@min:

; 3400 : 	}

	ret	0
??$min@H@std@@YAABHABH0@Z ENDP				; std::min<int>
_TEXT	ENDS
PUBLIC	??$?6H@@YAAAVString@Localization@@AAV01@ABH@Z	; operator<<<int>
EXTRN	__imp_?PushArgument@String@Localization@@QAE_NH@Z:PROC
; Function compile flags: /Ogtpy
; File c:\users\enormousapplepie\documents\github\lekmod\lekmod_dll\cvlocalization\include\cvlocalization.h
;	COMDAT ??$?6H@@YAAAVString@Localization@@AAV01@ABH@Z
_TEXT	SEGMENT
_s$ = 8							; size = 4
_val$ = 12						; size = 4
??$?6H@@YAAAVString@Localization@@AAV01@ABH@Z PROC	; operator<<<int>, COMDAT

; 491  : 	s.PushArgument(val);

	mov	eax, DWORD PTR _val$[esp-4]
	mov	ecx, DWORD PTR [eax]
	push	esi
	mov	esi, DWORD PTR _s$[esp]
	push	ecx
	mov	ecx, esi
	call	DWORD PTR __imp_?PushArgument@String@Localization@@QAE_NH@Z

; 492  : 	return s;

	mov	eax, esi
	pop	esi

; 493  : }

	ret	0
??$?6H@@YAAAVString@Localization@@AAV01@ABH@Z ENDP	; operator<<<int>
_TEXT	ENDS
PUBLIC	??$?6PBD@@YAAAVString@Localization@@AAV01@ABQBD@Z ; operator<<<char const *>
EXTRN	__imp_?PushArgument@String@Localization@@QAE_NPBD@Z:PROC
; Function compile flags: /Ogtpy
;	COMDAT ??$?6PBD@@YAAAVString@Localization@@AAV01@ABQBD@Z
_TEXT	SEGMENT
_s$ = 8							; size = 4
_val$ = 12						; size = 4
??$?6PBD@@YAAAVString@Localization@@AAV01@ABQBD@Z PROC	; operator<<<char const *>, COMDAT

; 491  : 	s.PushArgument(val);

	mov	eax, DWORD PTR _val$[esp-4]
	mov	ecx, DWORD PTR [eax]
	push	esi
	mov	esi, DWORD PTR _s$[esp]
	push	ecx
	mov	ecx, esi
	call	DWORD PTR __imp_?PushArgument@String@Localization@@QAE_NPBD@Z

; 492  : 	return s;

	mov	eax, esi
	pop	esi

; 493  : }

	ret	0
??$?6PBD@@YAAAVString@Localization@@AAV01@ABQBD@Z ENDP	; operator<<<char const *>
_TEXT	ENDS
PUBLIC	??$sprintf_s@$0BAA@@@YAHAAY0BAA@DPBDZZ		; sprintf_s<256>
EXTRN	__imp__vsprintf_s:PROC
; Function compile flags: /Ogtpy
; File c:\program files (x86)\microsoft visual studio 9.0\vc\include\stdio.h
;	COMDAT ??$sprintf_s@$0BAA@@@YAHAAY0BAA@DPBDZZ
_TEXT	SEGMENT
__Dest$ = 8						; size = 4
__Format$ = 12						; size = 4
??$sprintf_s@$0BAA@@@YAHAAY0BAA@DPBDZZ PROC		; sprintf_s<256>, COMDAT

; 322  : __DEFINE_CPP_OVERLOAD_SECURE_FUNC_0_1_ARGLIST(int, sprintf_s, vsprintf_s, char, _Dest, _In_z_ _Printf_format_string_ const char *, _Format)

	mov	ecx, DWORD PTR __Format$[esp-4]
	mov	edx, DWORD PTR __Dest$[esp-4]
	lea	eax, DWORD PTR __Format$[esp]
	push	eax
	push	ecx
	push	256					; 00000100H
	push	edx
	call	DWORD PTR __imp__vsprintf_s
	add	esp, 16					; 00000010H
	ret	0
??$sprintf_s@$0BAA@@@YAHAAY0BAA@DPBDZZ ENDP		; sprintf_s<256>
_TEXT	ENDS
PUBLIC	??$?5F@FDataStream@@QAEAAV0@AAF@Z		; FDataStream::operator>><short>
EXTRN	?Read@FDataStream@@IAEXAAF@Z:PROC		; FDataStream::Read
; Function compile flags: /Ogtpy
; File c:\users\enormousapplepie\documents\github\lekmod\lekmod_dll\fireplace\include\fireworks\fdatastream.h
;	COMDAT ??$?5F@FDataStream@@QAEAAV0@AAF@Z
_TEXT	SEGMENT
_kData$ = 8						; size = 4
??$?5F@FDataStream@@QAEAAV0@AAF@Z PROC			; FDataStream::operator>><short>, COMDAT
; _this$ = ecx

; 260  : 	// If the compiler produces an error here complaining about 
; 261  : 	// YouMustImplementASerializeOperatorForThisTypeError then
; 262  : 	// it could not find a specialization for the type supplied
; 263  : 	// in scope. If a specialization exists, be sure to include
; 264  : 	// the header (FStlContainerSerialization.h, for example), 
; 265  : 	// if not, implement :
; 266  : 	// FDataStream & operator>>(FDataStream &, YourCustomType &)
; 267  : 	Read( kData );

	mov	eax, DWORD PTR _kData$[esp-4]
	push	esi
	push	eax
	mov	esi, ecx
	call	?Read@FDataStream@@IAEXAAF@Z		; FDataStream::Read

; 268  : 	return ( *this );

	mov	eax, esi
	pop	esi

; 269  : }

	ret	4
??$?5F@FDataStream@@QAEAAV0@AAF@Z ENDP			; FDataStream::operator>><short>
_TEXT	ENDS
PUBLIC	??$?5DVCvPlot@@@@YAAAVFDataStream@@AAV0@AAV?$FAutoVariable@DVCvPlot@@@@@Z ; operator>><char,CvPlot>
; Function compile flags: /Ogtpy
; File c:\users\enormousapplepie\documents\github\lekmod\lekmod_dll\fireplace\include\fireworks\fautovariable.h
;	COMDAT ??$?5DVCvPlot@@@@YAAAVFDataStream@@AAV0@AAV?$FAutoVariable@DVCvPlot@@@@@Z
_TEXT	SEGMENT
_archive$ = 8						; size = 4
_object$ = 12						; size = 4
??$?5DVCvPlot@@@@YAAAVFDataStream@@AAV0@AAV?$FAutoVariable@DVCvPlot@@@@@Z PROC ; operator>><char,CvPlot>, COMDAT

; 106  : 	object.load(archive);

	mov	ecx, DWORD PTR _object$[esp-4]
	mov	eax, DWORD PTR [ecx]
	mov	edx, DWORD PTR [eax+4]
	push	esi
	mov	esi, DWORD PTR _archive$[esp]
	push	esi
	call	edx

; 107  : 	return archive;

	mov	eax, esi
	pop	esi

; 108  : }

	ret	0
??$?5DVCvPlot@@@@YAAAVFDataStream@@AAV0@AAV?$FAutoVariable@DVCvPlot@@@@@Z ENDP ; operator>><char,CvPlot>
_TEXT	ENDS
PUBLIC	??$?5K@FDataStream@@QAEAAV0@AAK@Z		; FDataStream::operator>><unsigned long>
EXTRN	?Read@FDataStream@@IAEXAAK@Z:PROC		; FDataStream::Read
; Function compile flags: /Ogtpy
; File c:\users\enormousapplepie\documents\github\lekmod\lekmod_dll\fireplace\include\fireworks\fdatastream.h
;	COMDAT ??$?5K@FDataStream@@QAEAAV0@AAK@Z
_TEXT	SEGMENT
_kData$ = 8						; size = 4
??$?5K@FDataStream@@QAEAAV0@AAK@Z PROC			; FDataStream::operator>><unsigned long>, COMDAT
; _this$ = ecx

; 260  : 	// If the compiler produces an error here complaining about 
; 261  : 	// YouMustImplementASerializeOperatorForThisTypeError then
; 262  : 	// it could not find a specialization for the type supplied
; 263  : 	// in scope. If a specialization exists, be sure to include
; 264  : 	// the header (FStlContainerSerialization.h, for example), 
; 265  : 	// if not, implement :
; 266  : 	// FDataStream & operator>>(FDataStream &, YourCustomType &)
; 267  : 	Read( kData );

	mov	eax, DWORD PTR _kData$[esp-4]
	push	esi
	push	eax
	mov	esi, ecx
	call	?Read@FDataStream@@IAEXAAK@Z		; FDataStream::Read

; 268  : 	return ( *this );

	mov	eax, esi
	pop	esi

; 269  : }

	ret	4
??$?5K@FDataStream@@QAEAAV0@AAK@Z ENDP			; FDataStream::operator>><unsigned long>
_TEXT	ENDS
PUBLIC	??$?6F@FDataStream@@QAEAAV0@ABF@Z		; FDataStream::operator<<<short>
EXTRN	?Write@FDataStream@@IAEXABF@Z:PROC		; FDataStream::Write
; Function compile flags: /Ogtpy
;	COMDAT ??$?6F@FDataStream@@QAEAAV0@ABF@Z
_TEXT	SEGMENT
_kData$ = 8						; size = 4
??$?6F@FDataStream@@QAEAAV0@ABF@Z PROC			; FDataStream::operator<<<short>, COMDAT
; _this$ = ecx

; 246  : 	// If the compiler produces an error here complaining about 
; 247  : 	// YouMustImplementASerializeOperatorForThisTypeError then
; 248  : 	// it could not find a specialization for the type supplied
; 249  : 	// in scope. If a specialization exists, be sure to include
; 250  : 	// the header (FStlContainerSerialization.h, for example), 
; 251  : 	// if not, implement :
; 252  : 	// FDataStream & operator<<(FDataStream &, YourCustomType &)
; 253  : 	Write( kData );

	mov	eax, DWORD PTR _kData$[esp-4]
	push	esi
	push	eax
	mov	esi, ecx
	call	?Write@FDataStream@@IAEXABF@Z		; FDataStream::Write

; 254  : 	return ( *this );

	mov	eax, esi
	pop	esi

; 255  : }

	ret	4
??$?6F@FDataStream@@QAEAAV0@ABF@Z ENDP			; FDataStream::operator<<<short>
_TEXT	ENDS
PUBLIC	??$?6K@FDataStream@@QAEAAV0@ABK@Z		; FDataStream::operator<<<unsigned long>
EXTRN	?Write@FDataStream@@IAEXABK@Z:PROC		; FDataStream::Write
; Function compile flags: /Ogtpy
;	COMDAT ??$?6K@FDataStream@@QAEAAV0@ABK@Z
_TEXT	SEGMENT
_kData$ = 8						; size = 4
??$?6K@FDataStream@@QAEAAV0@ABK@Z PROC			; FDataStream::operator<<<unsigned long>, COMDAT
; _this$ = ecx

; 246  : 	// If the compiler produces an error here complaining about 
; 247  : 	// YouMustImplementASerializeOperatorForThisTypeError then
; 248  : 	// it could not find a specialization for the type supplied
; 249  : 	// in scope. If a specialization exists, be sure to include
; 250  : 	// the header (FStlContainerSerialization.h, for example), 
; 251  : 	// if not, implement :
; 252  : 	// FDataStream & operator<<(FDataStream &, YourCustomType &)
; 253  : 	Write( kData );

	mov	eax, DWORD PTR _kData$[esp-4]
	push	esi
	push	eax
	mov	esi, ecx
	call	?Write@FDataStream@@IAEXABK@Z		; FDataStream::Write

; 254  : 	return ( *this );

	mov	eax, esi
	pop	esi

; 255  : }

	ret	4
??$?6K@FDataStream@@QAEAAV0@ABK@Z ENDP			; FDataStream::operator<<<unsigned long>
_TEXT	ENDS
PUBLIC	??$sprintf_s@$07@@YAHAAY07DPBDZZ		; sprintf_s<8>
; Function compile flags: /Ogtpy
; File c:\program files (x86)\microsoft visual studio 9.0\vc\include\stdio.h
;	COMDAT ??$sprintf_s@$07@@YAHAAY07DPBDZZ
_TEXT	SEGMENT
__Dest$ = 8						; size = 4
__Format$ = 12						; size = 4
??$sprintf_s@$07@@YAHAAY07DPBDZZ PROC			; sprintf_s<8>, COMDAT

; 322  : __DEFINE_CPP_OVERLOAD_SECURE_FUNC_0_1_ARGLIST(int, sprintf_s, vsprintf_s, char, _Dest, _In_z_ _Printf_format_string_ const char *, _Format)

	mov	ecx, DWORD PTR __Format$[esp-4]
	mov	edx, DWORD PTR __Dest$[esp-4]
	lea	eax, DWORD PTR __Format$[esp]
	push	eax
	push	ecx
	push	8
	push	edx
	call	DWORD PTR __imp__vsprintf_s
	add	esp, 16					; 00000010H
	ret	0
??$sprintf_s@$07@@YAHAAY07DPBDZZ ENDP			; sprintf_s<8>
_TEXT	ENDS
PUBLIC	??$_Destroy@PAU_Node@?$_Tree_nod@V?$_Tset_traits@PAVCvPlot@@U?$less@PAVCvPlot@@@std@@V?$allocator@PAVCvPlot@@@3@$0A@@std@@@std@@@std@@YAXPAPAU_Node@?$_Tree_nod@V?$_Tset_traits@PAVCvPlot@@U?$less@PAVCvPlot@@@std@@V?$allocator@PAVCvPlot@@@3@$0A@@std@@@0@@Z ; std::_Destroy<std::_Tree_nod<std::_Tset_traits<CvPlot *,std::less<CvPlot *>,std::allocator<CvPlot *>,0> >::_Node *>
; Function compile flags: /Ogtpy
; File c:\program files (x86)\microsoft visual studio 9.0\vc\include\xmemory
;	COMDAT ??$_Destroy@PAU_Node@?$_Tree_nod@V?$_Tset_traits@PAVCvPlot@@U?$less@PAVCvPlot@@@std@@V?$allocator@PAVCvPlot@@@3@$0A@@std@@@std@@@std@@YAXPAPAU_Node@?$_Tree_nod@V?$_Tset_traits@PAVCvPlot@@U?$less@PAVCvPlot@@@std@@V?$allocator@PAVCvPlot@@@3@$0A@@std@@@0@@Z
_TEXT	SEGMENT
__Ptr$ = 8						; size = 4
??$_Destroy@PAU_Node@?$_Tree_nod@V?$_Tset_traits@PAVCvPlot@@U?$less@PAVCvPlot@@@std@@V?$allocator@PAVCvPlot@@@3@$0A@@std@@@std@@@std@@YAXPAPAU_Node@?$_Tree_nod@V?$_Tset_traits@PAVCvPlot@@U?$less@PAVCvPlot@@@std@@V?$allocator@PAVCvPlot@@@3@$0A@@std@@@0@@Z PROC ; std::_Destroy<std::_Tree_nod<std::_Tset_traits<CvPlot *,std::less<CvPlot *>,std::allocator<CvPlot *>,0> >::_Node *>, COMDAT

; 59   : 	_DESTRUCTOR(_Ty, _Ptr);
; 60   : 	}

	ret	0
??$_Destroy@PAU_Node@?$_Tree_nod@V?$_Tset_traits@PAVCvPlot@@U?$less@PAVCvPlot@@@std@@V?$allocator@PAVCvPlot@@@3@$0A@@std@@@std@@@std@@YAXPAPAU_Node@?$_Tree_nod@V?$_Tset_traits@PAVCvPlot@@U?$less@PAVCvPlot@@@std@@V?$allocator@PAVCvPlot@@@3@$0A@@std@@@0@@Z ENDP ; std::_Destroy<std::_Tree_nod<std::_Tset_traits<CvPlot *,std::less<CvPlot *>,std::allocator<CvPlot *>,0> >::_Node *>
_TEXT	ENDS
PUBLIC	__TI2?AVbad_alloc@std@@
PUBLIC	??$_Allocate@U?$pair@V?$basic_string@DU?$char_traits@D@std@@V?$allocator@D@2@@std@@V12@@std@@@std@@YAPAU?$pair@V?$basic_string@DU?$char_traits@D@std@@V?$allocator@D@2@@std@@V12@@0@IPAU10@@Z ; std::_Allocate<std::pair<std::basic_string<char,std::char_traits<char>,std::allocator<char> >,std::basic_string<char,std::char_traits<char>,std::allocator<char> > > >
PUBLIC	__CTA2?AVbad_alloc@std@@
PUBLIC	__CT??_R0?AVbad_alloc@std@@@8??0bad_alloc@std@@QAE@ABV01@@Z12
PUBLIC	??0bad_alloc@std@@QAE@ABV01@@Z			; std::bad_alloc::bad_alloc
EXTRN	??2@YAPAXI@Z:PROC				; operator new
;	COMDAT __CT??_R0?AVbad_alloc@std@@@8??0bad_alloc@std@@QAE@ABV01@@Z12
; File c:\program files (x86)\microsoft visual studio 9.0\vc\include\exception
xdata$x	SEGMENT
__CT??_R0?AVbad_alloc@std@@@8??0bad_alloc@std@@QAE@ABV01@@Z12 DD 00H
	DD	FLAT:??_R0?AVbad_alloc@std@@@8
	DD	00H
	DD	0ffffffffH
	ORG $+4
	DD	0cH
	DD	FLAT:??0bad_alloc@std@@QAE@ABV01@@Z
xdata$x	ENDS
;	COMDAT __CTA2?AVbad_alloc@std@@
xdata$x	SEGMENT
__CTA2?AVbad_alloc@std@@ DD 02H
	DD	FLAT:__CT??_R0?AVbad_alloc@std@@@8??0bad_alloc@std@@QAE@ABV01@@Z12
	DD	FLAT:__CT??_R0?AVexception@std@@@8??0exception@std@@QAE@ABV01@@Z12
xdata$x	ENDS
;	COMDAT __TI2?AVbad_alloc@std@@
xdata$x	SEGMENT
__TI2?AVbad_alloc@std@@ DD 00H
	DD	FLAT:??1bad_alloc@std@@UAE@XZ
	DD	00H
	DD	FLAT:__CTA2?AVbad_alloc@std@@
; Function compile flags: /Ogtpy
; File c:\program files (x86)\microsoft visual studio 9.0\vc\include\xmemory
xdata$x	ENDS
;	COMDAT ??$_Allocate@U?$pair@V?$basic_string@DU?$char_traits@D@std@@V?$allocator@D@2@@std@@V12@@std@@@std@@YAPAU?$pair@V?$basic_string@DU?$char_traits@D@std@@V?$allocator@D@2@@std@@V12@@0@IPAU10@@Z
_TEXT	SEGMENT
$T230973 = -12						; size = 12
$T230977 = 8						; size = 4
__Count$ = 8						; size = 4
___formal$ = 12						; size = 4
??$_Allocate@U?$pair@V?$basic_string@DU?$char_traits@D@std@@V?$allocator@D@2@@std@@V12@@std@@@std@@YAPAU?$pair@V?$basic_string@DU?$char_traits@D@std@@V?$allocator@D@2@@std@@V12@@0@IPAU10@@Z PROC ; std::_Allocate<std::pair<std::basic_string<char,std::char_traits<char>,std::allocator<char> >,std::basic_string<char,std::char_traits<char>,std::allocator<char> > > >, COMDAT

; 37   : 	if (_Count <= 0)

	mov	ecx, DWORD PTR __Count$[esp-4]
	sub	esp, 12					; 0000000cH
	test	ecx, ecx
	ja	SHORT $LN3@Allocate

; 38   : 		_Count = 0;

	xor	ecx, ecx
$LN1@Allocate:

; 41   : 
; 42   : 		// allocate storage for _Count elements of type _Ty
; 43   : 	return ((_Ty _FARQ *)::operator new(_Count * sizeof (_Ty)));

	lea	edx, DWORD PTR [ecx*8]
	sub	edx, ecx
	add	edx, edx
	add	edx, edx
	add	edx, edx
	push	edx
	call	??2@YAPAXI@Z				; operator new
	add	esp, 4

; 44   : 	}

	add	esp, 12					; 0000000cH
	ret	0
$LN3@Allocate:

; 39   : 	else if (((_SIZT)(-1) / _Count) < sizeof (_Ty))

	or	eax, -1
	xor	edx, edx
	div	ecx
	cmp	eax, 56					; 00000038H
	jae	SHORT $LN1@Allocate

; 40   : 		_THROW_NCEE(std::bad_alloc, NULL);

	lea	eax, DWORD PTR $T230977[esp+8]
	push	eax
	lea	ecx, DWORD PTR $T230973[esp+16]
	mov	DWORD PTR $T230977[esp+12], 0
	call	DWORD PTR __imp_??0exception@std@@QAE@ABQBD@Z
	push	OFFSET __TI2?AVbad_alloc@std@@
	lea	ecx, DWORD PTR $T230973[esp+16]
	push	ecx
	mov	DWORD PTR $T230973[esp+20], OFFSET ??_7bad_alloc@std@@6B@
	call	__CxxThrowException@8
$LN9@Allocate:
$LN8@Allocate:
	int	3
??$_Allocate@U?$pair@V?$basic_string@DU?$char_traits@D@std@@V?$allocator@D@2@@std@@V12@@std@@@std@@YAPAU?$pair@V?$basic_string@DU?$char_traits@D@std@@V?$allocator@D@2@@std@@V12@@0@IPAU10@@Z ENDP ; std::_Allocate<std::pair<std::basic_string<char,std::char_traits<char>,std::allocator<char> >,std::basic_string<char,std::char_traits<char>,std::allocator<char> > > >
_TEXT	ENDS
PUBLIC	??$?0PAVCvPlot@@@?$allocator@PAU_Node@?$_Tree_nod@V?$_Tset_traits@PAVCvPlot@@U?$less@PAVCvPlot@@@std@@V?$allocator@PAVCvPlot@@@3@$0A@@std@@@std@@@std@@QAE@ABV?$allocator@PAVCvPlot@@@1@@Z ; std::allocator<std::_Tree_nod<std::_Tset_traits<CvPlot *,std::less<CvPlot *>,std::allocator<CvPlot *>,0> >::_Node *>::allocator<std::_Tree_nod<std::_Tset_traits<CvPlot *,std::less<CvPlot *>,std::allocator<CvPlot *>,0> >::_Node *><CvPlot *>
; Function compile flags: /Ogtpy
;	COMDAT ??$?0PAVCvPlot@@@?$allocator@PAU_Node@?$_Tree_nod@V?$_Tset_traits@PAVCvPlot@@U?$less@PAVCvPlot@@@std@@V?$allocator@PAVCvPlot@@@3@$0A@@std@@@std@@@std@@QAE@ABV?$allocator@PAVCvPlot@@@1@@Z
_TEXT	SEGMENT
___formal$ = 8						; size = 4
??$?0PAVCvPlot@@@?$allocator@PAU_Node@?$_Tree_nod@V?$_Tset_traits@PAVCvPlot@@U?$less@PAVCvPlot@@@std@@V?$allocator@PAVCvPlot@@@3@$0A@@std@@@std@@@std@@QAE@ABV?$allocator@PAVCvPlot@@@1@@Z PROC ; std::allocator<std::_Tree_nod<std::_Tset_traits<CvPlot *,std::less<CvPlot *>,std::allocator<CvPlot *>,0> >::_Node *>::allocator<std::_Tree_nod<std::_Tset_traits<CvPlot *,std::less<CvPlot *>,std::allocator<CvPlot *>,0> >::_Node *><CvPlot *>, COMDAT
; _this$ = ecx

; 128  : 		allocator(const allocator<_Other>&) _THROW0()

	mov	eax, ecx

; 129  : 		{	// construct from a related allocator (do nothing)
; 130  : 		}

	ret	4
??$?0PAVCvPlot@@@?$allocator@PAU_Node@?$_Tree_nod@V?$_Tset_traits@PAVCvPlot@@U?$less@PAVCvPlot@@@std@@V?$allocator@PAVCvPlot@@@3@$0A@@std@@@std@@@std@@QAE@ABV?$allocator@PAVCvPlot@@@1@@Z ENDP ; std::allocator<std::_Tree_nod<std::_Tset_traits<CvPlot *,std::less<CvPlot *>,std::allocator<CvPlot *>,0> >::_Node *>::allocator<std::_Tree_nod<std::_Tset_traits<CvPlot *,std::less<CvPlot *>,std::allocator<CvPlot *>,0> >::_Node *><CvPlot *>
_TEXT	ENDS
PUBLIC	??$_Allocate@U_Node@?$_Tree_nod@V?$_Tset_traits@PAVCvPlot@@U?$less@PAVCvPlot@@@std@@V?$allocator@PAVCvPlot@@@3@$0A@@std@@@std@@@std@@YAPAU_Node@?$_Tree_nod@V?$_Tset_traits@PAVCvPlot@@U?$less@PAVCvPlot@@@std@@V?$allocator@PAVCvPlot@@@3@$0A@@std@@@0@IPAU120@@Z ; std::_Allocate<std::_Tree_nod<std::_Tset_traits<CvPlot *,std::less<CvPlot *>,std::allocator<CvPlot *>,0> >::_Node>
; Function compile flags: /Ogtpy
;	COMDAT ??$_Allocate@U_Node@?$_Tree_nod@V?$_Tset_traits@PAVCvPlot@@U?$less@PAVCvPlot@@@std@@V?$allocator@PAVCvPlot@@@3@$0A@@std@@@std@@@std@@YAPAU_Node@?$_Tree_nod@V?$_Tset_traits@PAVCvPlot@@U?$less@PAVCvPlot@@@std@@V?$allocator@PAVCvPlot@@@3@$0A@@std@@@0@IPAU120@@Z
_TEXT	SEGMENT
$T230986 = -12						; size = 12
$T230990 = 8						; size = 4
__Count$ = 8						; size = 4
___formal$ = 12						; size = 4
??$_Allocate@U_Node@?$_Tree_nod@V?$_Tset_traits@PAVCvPlot@@U?$less@PAVCvPlot@@@std@@V?$allocator@PAVCvPlot@@@3@$0A@@std@@@std@@@std@@YAPAU_Node@?$_Tree_nod@V?$_Tset_traits@PAVCvPlot@@U?$less@PAVCvPlot@@@std@@V?$allocator@PAVCvPlot@@@3@$0A@@std@@@0@IPAU120@@Z PROC ; std::_Allocate<std::_Tree_nod<std::_Tset_traits<CvPlot *,std::less<CvPlot *>,std::allocator<CvPlot *>,0> >::_Node>, COMDAT

; 37   : 	if (_Count <= 0)

	mov	ecx, DWORD PTR __Count$[esp-4]
	sub	esp, 12					; 0000000cH
	test	ecx, ecx
	ja	SHORT $LN3@Allocate@2

; 38   : 		_Count = 0;

	xor	ecx, ecx
$LN1@Allocate@2:

; 41   : 
; 42   : 		// allocate storage for _Count elements of type _Ty
; 43   : 	return ((_Ty _FARQ *)::operator new(_Count * sizeof (_Ty)));

	lea	edx, DWORD PTR [ecx+ecx*4]
	add	edx, edx
	add	edx, edx
	push	edx
	call	??2@YAPAXI@Z				; operator new
	add	esp, 4

; 44   : 	}

	add	esp, 12					; 0000000cH
	ret	0
$LN3@Allocate@2:

; 39   : 	else if (((_SIZT)(-1) / _Count) < sizeof (_Ty))

	or	eax, -1
	xor	edx, edx
	div	ecx
	cmp	eax, 20					; 00000014H
	jae	SHORT $LN1@Allocate@2

; 40   : 		_THROW_NCEE(std::bad_alloc, NULL);

	lea	eax, DWORD PTR $T230990[esp+8]
	push	eax
	lea	ecx, DWORD PTR $T230986[esp+16]
	mov	DWORD PTR $T230990[esp+12], 0
