; Listing generated by Microsoft (R) Optimizing Compiler Version 15.00.30729.01 

	TITLE	c:\Users\EnormousApplePie\Documents\GitHub\Lekmod\LEKMOD_DLL\CvGameCoreDLL_Expansion2\CvPlayerAI.cpp
	.686P
	.XMM
	include listing.inc
	.model	flat

INCLUDELIB MSVCRT
INCLUDELIB OLDNAMES

PUBLIC	?NO_QUEST_DATA@CvMinorCivQuest@@2HB		; CvMinorCivQuest::NO_QUEST_DATA
PUBLIC	?NO_TURN@CvMinorCivQuest@@2HB			; CvMinorCivQuest::NO_TURN
PUBLIC	?m_aPlayers@CvPlayerAI@@1PAV1@A			; CvPlayerAI::m_aPlayers
_BSS	SEGMENT
?m_aPlayers@CvPlayerAI@@1PAV1@A DD 01H DUP (?)		; CvPlayerAI::m_aPlayers
_BSS	ENDS
CONST	SEGMENT
$SG226239 DB	'PlayerPreAIUnitUpdate', 00H
	ORG $+2
$SG226304 DB	'UNIT_ENGINEER', 00H
	ORG $+2
$SG226309 DB	'AIGRANDSTRATEGY_CONQUEST', 00H
	ORG $+3
$SG226311 DB	'UNIT_GREAT_GENERAL', 00H
	ORG $+1
$SG226315 DB	'AIGRANDSTRATEGY_CULTURE', 00H
$SG226317 DB	'UNIT_ARTIST', 00H
$SG226321 DB	'AIGRANDSTRATEGY_UNITED_NATIONS', 00H
	ORG $+1
$SG226323 DB	'UNIT_MERCHANT', 00H
	ORG $+2
$SG226327 DB	'AIGRANDSTRATEGY_SPACESHIP', 00H
	ORG $+2
$SG226329 DB	'UNIT_SCIENTIST', 00H
	ORG $+1
$SG227049 DB	'SPECIALUNIT_PEOPLE', 00H
	ORG $+1
$SG227079 DB	'MILITARYAISTRATEGY_WAR_MOBILIZATION', 00H
$SG227091 DB	'MILITARYAISTRATEGY_AT_WAR', 00H
	ORG $+2
$SG227172 DB	'SPECIALUNIT_PEOPLE', 00H
CONST	ENDS
;	COMDAT ?NO_TURN@CvMinorCivQuest@@2HB
CONST	SEGMENT
?NO_TURN@CvMinorCivQuest@@2HB DD 0ffffffffH		; CvMinorCivQuest::NO_TURN
CONST	ENDS
;	COMDAT ?NO_QUEST_DATA@CvMinorCivQuest@@2HB
CONST	SEGMENT
?NO_QUEST_DATA@CvMinorCivQuest@@2HB DD 0ffffffffH	; CvMinorCivQuest::NO_QUEST_DATA
CONST	ENDS
PUBLIC	?wrapCoordDifference@@YAHHI_N@Z			; wrapCoordDifference
; Function compile flags: /Ogtpy
; File c:\users\enormousapplepie\documents\github\lekmod\lekmod_dll\cvgamecoredll_expansion2\cvgamecoreutils.h
;	COMDAT ?wrapCoordDifference@@YAHHI_N@Z
_TEXT	SEGMENT
_iDiff$ = 8						; size = 4
_uiRange$ = 12						; size = 4
_bWrap$ = 16						; size = 1
?wrapCoordDifference@@YAHHI_N@Z PROC			; wrapCoordDifference, COMDAT

; 57   : 	if(bWrap)

	cmp	BYTE PTR _bWrap$[esp-4], 0
	mov	eax, DWORD PTR _iDiff$[esp-4]
	je	SHORT $LN5@wrapCoordD

; 58   : 	{
; 59   : 		if(iDiff > (int)(uiRange >> 1))		// Using an unsigned int so we can safely assume that value >> 1 == value / 2

	mov	edx, DWORD PTR _uiRange$[esp-4]
	mov	ecx, edx
	shr	ecx, 1
	cmp	eax, ecx
	jle	SHORT $LN3@wrapCoordD

; 60   : 		{
; 61   : 			return (iDiff - (int)uiRange);

	sub	eax, edx

; 66   : 		}
; 67   : 	}
; 68   : 
; 69   : 	return iDiff;
; 70   : }

	ret	0
$LN3@wrapCoordD:

; 62   : 		}
; 63   : 		else if(iDiff < -(int)(uiRange >> 1))

	neg	ecx
	cmp	eax, ecx
	jge	SHORT $LN5@wrapCoordD

; 64   : 		{
; 65   : 			return (iDiff + (int)uiRange);

	add	eax, edx
$LN5@wrapCoordD:

; 66   : 		}
; 67   : 	}
; 68   : 
; 69   : 	return iDiff;
; 70   : }

	ret	0
?wrapCoordDifference@@YAHHI_N@Z ENDP			; wrapCoordDifference
_TEXT	ENDS
PUBLIC	?xToHexspaceX@@YAHHH@Z				; xToHexspaceX
; Function compile flags: /Ogtpy
;	COMDAT ?xToHexspaceX@@YAHHH@Z
_TEXT	SEGMENT
_iX$ = 8						; size = 4
_iY$ = 12						; size = 4
?xToHexspaceX@@YAHHH@Z PROC				; xToHexspaceX, COMDAT

; 86   : 	return iX - ((iY >= 0) ? (iY>>1) : ((iY - 1)/2));

	mov	ecx, DWORD PTR _iY$[esp-4]
	test	ecx, ecx
	jge	SHORT $LN5@xToHexspac
	lea	eax, DWORD PTR [ecx-1]
	cdq
	sub	eax, edx
	mov	ecx, eax
$LN5@xToHexspac:
	mov	eax, DWORD PTR _iX$[esp-4]
	sar	ecx, 1
	sub	eax, ecx

; 87   : }

	ret	0
?xToHexspaceX@@YAHHH@Z ENDP				; xToHexspaceX
_TEXT	ENDS
PUBLIC	?hexspaceXToX@@YAHHH@Z				; hexspaceXToX
; Function compile flags: /Ogtpy
;	COMDAT ?hexspaceXToX@@YAHHH@Z
_TEXT	SEGMENT
_iHexspaceX$ = 8					; size = 4
_iHexspaceY$ = 12					; size = 4
?hexspaceXToX@@YAHHH@Z PROC				; hexspaceXToX, COMDAT

; 91   : 	return iHexspaceX + ((iHexspaceY >= 0) ? (iHexspaceY>>1) : ((iHexspaceY - 1)/2));

	mov	eax, DWORD PTR _iHexspaceY$[esp-4]
	test	eax, eax
	jl	SHORT $LN3@hexspaceXT
	mov	ecx, DWORD PTR _iHexspaceX$[esp-4]
	sar	eax, 1
	add	eax, ecx

; 92   : }

	ret	0
$LN3@hexspaceXT:

; 91   : 	return iHexspaceX + ((iHexspaceY >= 0) ? (iHexspaceY>>1) : ((iHexspaceY - 1)/2));

	dec	eax
	cdq
	sub	eax, edx
	mov	edx, DWORD PTR _iHexspaceX$[esp-4]
	sar	eax, 1
	add	eax, edx

; 92   : }

	ret	0
?hexspaceXToX@@YAHHH@Z ENDP				; hexspaceXToX
_TEXT	ENDS
PUBLIC	?AI_init@CvPlayerAI@@UAEXXZ			; CvPlayerAI::AI_init
; Function compile flags: /Ogtpy
; File c:\users\enormousapplepie\documents\github\lekmod\lekmod_dll\cvgamecoredll_expansion2\cvplayerai.cpp
;	COMDAT ?AI_init@CvPlayerAI@@UAEXXZ
_TEXT	SEGMENT
?AI_init@CvPlayerAI@@UAEXXZ PROC			; CvPlayerAI::AI_init, COMDAT
; _this$ = ecx

; 72   : 	AI_reset();

	mov	eax, DWORD PTR [ecx]
	mov	edx, DWORD PTR [eax+16]
	jmp	edx
?AI_init@CvPlayerAI@@UAEXXZ ENDP			; CvPlayerAI::AI_init
_TEXT	ENDS
PUBLIC	?AI_uninit@CvPlayerAI@@QAEXXZ			; CvPlayerAI::AI_uninit
; Function compile flags: /Ogtpy
;	COMDAT ?AI_uninit@CvPlayerAI@@QAEXXZ
_TEXT	SEGMENT
?AI_uninit@CvPlayerAI@@QAEXXZ PROC			; CvPlayerAI::AI_uninit, COMDAT
; _this$ = ecx

; 78   : }

	ret	0
?AI_uninit@CvPlayerAI@@QAEXXZ ENDP			; CvPlayerAI::AI_uninit
_TEXT	ENDS
PUBLIC	?AI_reset@CvPlayerAI@@UAEXXZ			; CvPlayerAI::AI_reset
; Function compile flags: /Ogtpy
;	COMDAT ?AI_reset@CvPlayerAI@@UAEXXZ
_TEXT	SEGMENT
?AI_reset@CvPlayerAI@@UAEXXZ PROC			; CvPlayerAI::AI_reset, COMDAT
; _this$ = ecx

; 83   : 	AI_uninit();
; 84   : }

	ret	0
?AI_reset@CvPlayerAI@@UAEXXZ ENDP			; CvPlayerAI::AI_reset
_TEXT	ENDS
PUBLIC	?AI_doTurnUnitsPre@CvPlayerAI@@UAEXXZ		; CvPlayerAI::AI_doTurnUnitsPre
EXTRN	?isBarbarian@CvPlayer@@QBE_NXZ:PROC		; CvPlayer::isBarbarian
EXTRN	?isHuman@CvPlayer@@QBE_NXZ:PROC			; CvPlayer::isHuman
EXTRN	?InitializeQueuedAttacks@CvTacticalAI@@QAEXXZ:PROC ; CvTacticalAI::InitializeQueuedAttacks
EXTRN	?GetTacticalAI@CvPlayer@@QBEPAVCvTacticalAI@@XZ:PROC ; CvPlayer::GetTacticalAI
; Function compile flags: /Ogtpy
;	COMDAT ?AI_doTurnUnitsPre@CvPlayerAI@@UAEXXZ
_TEXT	SEGMENT
?AI_doTurnUnitsPre@CvPlayerAI@@UAEXXZ PROC		; CvPlayerAI::AI_doTurnUnitsPre, COMDAT
; _this$ = ecx

; 139  : {

	push	esi
	mov	esi, ecx

; 140  : 	GetTacticalAI()->InitializeQueuedAttacks();

	call	?GetTacticalAI@CvPlayer@@QBEPAVCvTacticalAI@@XZ ; CvPlayer::GetTacticalAI
	mov	ecx, eax
	call	?InitializeQueuedAttacks@CvTacticalAI@@QAEXXZ ; CvTacticalAI::InitializeQueuedAttacks

; 141  : 
; 142  : 	if(isHuman())

	mov	ecx, esi
	call	?isHuman@CvPlayer@@QBE_NXZ		; CvPlayer::isHuman
	test	al, al
	jne	SHORT $LN1@AI_doTurnU

; 143  : 	{
; 144  : 		return;
; 145  : 	}
; 146  : 
; 147  : 	if(isBarbarian())

	mov	ecx, esi
	pop	esi
	jmp	?isBarbarian@CvPlayer@@QBE_NXZ		; CvPlayer::isBarbarian
$LN1@AI_doTurnU:
	pop	esi

; 148  : 	{
; 149  : 		return;
; 150  : 	}
; 151  : }

	ret	0
?AI_doTurnUnitsPre@CvPlayerAI@@UAEXXZ ENDP		; CvPlayerAI::AI_doTurnUnitsPre
_TEXT	ENDS
PUBLIC	?AI_doTurnUnitsPost@CvPlayerAI@@UAEXXZ		; CvPlayerAI::AI_doTurnUnitsPost
EXTRN	?nextUnit@CvPlayer@@QAEPAVCvUnit@@PAH_N@Z:PROC	; CvPlayer::nextUnit
EXTRN	?AI_promote@CvUnit@@QAEXXZ:PROC			; CvUnit::AI_promote
EXTRN	?firstUnit@CvPlayer@@QAEPAVCvUnit@@PAH_N@Z:PROC	; CvPlayer::firstUnit
; Function compile flags: /Ogtpy
;	COMDAT ?AI_doTurnUnitsPost@CvPlayerAI@@UAEXXZ
_TEXT	SEGMENT
_iLoop$ = -4						; size = 4
?AI_doTurnUnitsPost@CvPlayerAI@@UAEXXZ PROC		; CvPlayerAI::AI_doTurnUnitsPost, COMDAT
; _this$ = ecx

; 155  : {

	push	ecx
	push	esi
	mov	esi, ecx

; 156  : 	CvUnit* pLoopUnit;
; 157  : 	int iLoop;
; 158  : 
; 159  : 	if(!isHuman())

	call	?isHuman@CvPlayer@@QBE_NXZ		; CvPlayer::isHuman
	test	al, al
	jne	SHORT $LN1@AI_doTurnU@2

; 160  : 	{
; 161  : 		for(pLoopUnit = firstUnit(&iLoop); pLoopUnit != NULL; pLoopUnit = nextUnit(&iLoop))

	push	0
	lea	eax, DWORD PTR _iLoop$[esp+12]
	push	eax
	mov	ecx, esi
	call	?firstUnit@CvPlayer@@QAEPAVCvUnit@@PAH_N@Z ; CvPlayer::firstUnit
	test	eax, eax
	je	SHORT $LN1@AI_doTurnU@2
	npad	1
$LL3@AI_doTurnU@2:

; 162  : 		{
; 163  : 			pLoopUnit->AI_promote();

	mov	ecx, eax
	call	?AI_promote@CvUnit@@QAEXXZ		; CvUnit::AI_promote
	push	0
	lea	ecx, DWORD PTR _iLoop$[esp+12]
	push	ecx
	mov	ecx, esi
	call	?nextUnit@CvPlayer@@QAEPAVCvUnit@@PAH_N@Z ; CvPlayer::nextUnit
	test	eax, eax
	jne	SHORT $LL3@AI_doTurnU@2
$LN1@AI_doTurnU@2:
	pop	esi

; 164  : 		}
; 165  : 	}
; 166  : }

	pop	ecx
	ret	0
?AI_doTurnUnitsPost@CvPlayerAI@@UAEXXZ ENDP		; CvPlayerAI::AI_doTurnUnitsPost
_TEXT	ENDS
PUBLIC	??_7bad_alloc@std@@6B@				; std::bad_alloc::`vftable'
PUBLIC	??0bad_alloc@std@@QAE@PBD@Z			; std::bad_alloc::bad_alloc
PUBLIC	??_R4bad_alloc@std@@6B@				; std::bad_alloc::`RTTI Complete Object Locator'
PUBLIC	??_R0?AVbad_alloc@std@@@8			; std::bad_alloc `RTTI Type Descriptor'
PUBLIC	??_R3bad_alloc@std@@8				; std::bad_alloc::`RTTI Class Hierarchy Descriptor'
PUBLIC	??_R2bad_alloc@std@@8				; std::bad_alloc::`RTTI Base Class Array'
PUBLIC	??_R1A@?0A@EA@bad_alloc@std@@8			; std::bad_alloc::`RTTI Base Class Descriptor at (0,-1,0,64)'
PUBLIC	??_R1A@?0A@EA@exception@std@@8			; std::exception::`RTTI Base Class Descriptor at (0,-1,0,64)'
PUBLIC	??_R0?AVexception@std@@@8			; std::exception `RTTI Type Descriptor'
PUBLIC	??_R3exception@std@@8				; std::exception::`RTTI Class Hierarchy Descriptor'
PUBLIC	??_R2exception@std@@8				; std::exception::`RTTI Base Class Array'
EXTRN	__imp_??0exception@std@@QAE@ABQBD@Z:PROC
EXTRN	??_7type_info@@6B@:QWORD			; type_info::`vftable'
EXTRN	??_Ebad_alloc@std@@UAEPAXI@Z:PROC		; std::bad_alloc::`vector deleting destructor'
EXTRN	?what@exception@std@@UBEPBDXZ:PROC		; std::exception::what
;	COMDAT ??_R2exception@std@@8
; File c:\program files (x86)\microsoft visual studio 9.0\vc\include\exception
rdata$r	SEGMENT
??_R2exception@std@@8 DD FLAT:??_R1A@?0A@EA@exception@std@@8 ; std::exception::`RTTI Base Class Array'
rdata$r	ENDS
;	COMDAT ??_R3exception@std@@8
rdata$r	SEGMENT
??_R3exception@std@@8 DD 00H				; std::exception::`RTTI Class Hierarchy Descriptor'
	DD	00H
	DD	01H
	DD	FLAT:??_R2exception@std@@8
rdata$r	ENDS
;	COMDAT ??_R0?AVexception@std@@@8
_DATA	SEGMENT
??_R0?AVexception@std@@@8 DD FLAT:??_7type_info@@6B@	; std::exception `RTTI Type Descriptor'
	DD	00H
	DB	'.?AVexception@std@@', 00H
_DATA	ENDS
;	COMDAT ??_R1A@?0A@EA@exception@std@@8
rdata$r	SEGMENT
??_R1A@?0A@EA@exception@std@@8 DD FLAT:??_R0?AVexception@std@@@8 ; std::exception::`RTTI Base Class Descriptor at (0,-1,0,64)'
	DD	00H
	DD	00H
	DD	0ffffffffH
	DD	00H
	DD	040H
	DD	FLAT:??_R3exception@std@@8
rdata$r	ENDS
;	COMDAT ??_R1A@?0A@EA@bad_alloc@std@@8
rdata$r	SEGMENT
??_R1A@?0A@EA@bad_alloc@std@@8 DD FLAT:??_R0?AVbad_alloc@std@@@8 ; std::bad_alloc::`RTTI Base Class Descriptor at (0,-1,0,64)'
	DD	01H
	DD	00H
	DD	0ffffffffH
	DD	00H
	DD	040H
	DD	FLAT:??_R3bad_alloc@std@@8
rdata$r	ENDS
;	COMDAT ??_R2bad_alloc@std@@8
rdata$r	SEGMENT
??_R2bad_alloc@std@@8 DD FLAT:??_R1A@?0A@EA@bad_alloc@std@@8 ; std::bad_alloc::`RTTI Base Class Array'
	DD	FLAT:??_R1A@?0A@EA@exception@std@@8
rdata$r	ENDS
;	COMDAT ??_R3bad_alloc@std@@8
rdata$r	SEGMENT
??_R3bad_alloc@std@@8 DD 00H				; std::bad_alloc::`RTTI Class Hierarchy Descriptor'
	DD	00H
	DD	02H
	DD	FLAT:??_R2bad_alloc@std@@8
rdata$r	ENDS
;	COMDAT ??_R0?AVbad_alloc@std@@@8
_DATA	SEGMENT
??_R0?AVbad_alloc@std@@@8 DD FLAT:??_7type_info@@6B@	; std::bad_alloc `RTTI Type Descriptor'
	DD	00H
	DB	'.?AVbad_alloc@std@@', 00H
_DATA	ENDS
;	COMDAT ??_R4bad_alloc@std@@6B@
rdata$r	SEGMENT
??_R4bad_alloc@std@@6B@ DD 00H				; std::bad_alloc::`RTTI Complete Object Locator'
	DD	00H
	DD	00H
	DD	FLAT:??_R0?AVbad_alloc@std@@@8
	DD	FLAT:??_R3bad_alloc@std@@8
rdata$r	ENDS
;	COMDAT ??_7bad_alloc@std@@6B@
CONST	SEGMENT
??_7bad_alloc@std@@6B@ DD FLAT:??_R4bad_alloc@std@@6B@	; std::bad_alloc::`vftable'
	DD	FLAT:??_Ebad_alloc@std@@UAEPAXI@Z
	DD	FLAT:?what@exception@std@@UBEPBDXZ
; Function compile flags: /Ogtpy
CONST	ENDS
;	COMDAT ??0bad_alloc@std@@QAE@PBD@Z
_TEXT	SEGMENT
__Message$ = 8						; size = 4
??0bad_alloc@std@@QAE@PBD@Z PROC			; std::bad_alloc::bad_alloc, COMDAT
; _this$ = ecx

; 371  : 		{	// construct from message string

	push	esi
	lea	eax, DWORD PTR __Message$[esp]
	push	eax
	mov	esi, ecx
	call	DWORD PTR __imp_??0exception@std@@QAE@ABQBD@Z
	mov	DWORD PTR [esi], OFFSET ??_7bad_alloc@std@@6B@

; 372  : 		}

	mov	eax, esi
	pop	esi
	ret	4
??0bad_alloc@std@@QAE@PBD@Z ENDP			; std::bad_alloc::bad_alloc
_TEXT	ENDS
PUBLIC	??1bad_alloc@std@@UAE@XZ			; std::bad_alloc::~bad_alloc
EXTRN	__imp_??1exception@std@@UAE@XZ:PROC
; Function compile flags: /Ogtpy
;	COMDAT ??1bad_alloc@std@@UAE@XZ
_TEXT	SEGMENT
??1bad_alloc@std@@UAE@XZ PROC				; std::bad_alloc::~bad_alloc, COMDAT
; _this$ = ecx

; 380  : 		{	// destroy the object

	mov	DWORD PTR [ecx], OFFSET ??_7bad_alloc@std@@6B@

; 381  : 		}

	jmp	DWORD PTR __imp_??1exception@std@@UAE@XZ
??1bad_alloc@std@@UAE@XZ ENDP				; std::bad_alloc::~bad_alloc
_TEXT	ENDS
EXTRN	??3@YAXPAX@Z:PROC				; operator delete
; Function compile flags: /Ogtpy
;	COMDAT ??_Gbad_alloc@std@@UAEPAXI@Z
_TEXT	SEGMENT
___flags$ = 8						; size = 4
??_Gbad_alloc@std@@UAEPAXI@Z PROC			; std::bad_alloc::`scalar deleting destructor', COMDAT
; _this$ = ecx
	push	esi
	mov	esi, ecx
	mov	DWORD PTR [esi], OFFSET ??_7bad_alloc@std@@6B@
	call	DWORD PTR __imp_??1exception@std@@UAE@XZ
	test	BYTE PTR ___flags$[esp], 1
	je	SHORT $LN6@scalar
	push	esi
	call	??3@YAXPAX@Z				; operator delete
	add	esp, 4
$LN6@scalar:
	mov	eax, esi
	pop	esi
	ret	4
??_Gbad_alloc@std@@UAEPAXI@Z ENDP			; std::bad_alloc::`scalar deleting destructor'
_TEXT	ENDS
PUBLIC	??2@YAPAXIPAX@Z					; operator new
; Function compile flags: /Ogtpy
; File c:\program files (x86)\microsoft visual studio 9.0\vc\include\new
;	COMDAT ??2@YAPAXIPAX@Z
_TEXT	SEGMENT
___formal$ = 8						; size = 4
__Where$ = 12						; size = 4
??2@YAPAXIPAX@Z PROC					; operator new, COMDAT

; 59   : 	return (_Where);

	mov	eax, DWORD PTR __Where$[esp-4]

; 60   : 	}

	ret	0
??2@YAPAXIPAX@Z ENDP					; operator new
_TEXT	ENDS
PUBLIC	??3@YAXPAX0@Z					; operator delete
; Function compile flags: /Ogtpy
;	COMDAT ??3@YAXPAX0@Z
_TEXT	SEGMENT
___formal$ = 8						; size = 4
___formal$ = 12						; size = 4
??3@YAXPAX0@Z PROC					; operator delete, COMDAT

; 64   : 	}

	ret	0
??3@YAXPAX0@Z ENDP					; operator delete
_TEXT	ENDS
PUBLIC	??_7logic_error@std@@6B@			; std::logic_error::`vftable'
PUBLIC	??0logic_error@std@@QAE@ABV?$basic_string@DU?$char_traits@D@std@@V?$allocator@D@2@@1@@Z ; std::logic_error::logic_error
PUBLIC	??_R4logic_error@std@@6B@			; std::logic_error::`RTTI Complete Object Locator'
PUBLIC	??_R0?AVlogic_error@std@@@8			; std::logic_error `RTTI Type Descriptor'
PUBLIC	??_R3logic_error@std@@8				; std::logic_error::`RTTI Class Hierarchy Descriptor'
PUBLIC	??_R2logic_error@std@@8				; std::logic_error::`RTTI Base Class Array'
PUBLIC	??_R1A@?0A@EA@logic_error@std@@8		; std::logic_error::`RTTI Base Class Descriptor at (0,-1,0,64)'
PUBLIC	?what@logic_error@std@@UBEPBDXZ			; std::logic_error::what
EXTRN	__imp_??0?$basic_string@DU?$char_traits@D@std@@V?$allocator@D@2@@std@@QAE@ABV01@@Z:PROC
EXTRN	__imp_??0exception@std@@QAE@XZ:PROC
EXTRN	___CxxFrameHandler3:PROC
EXTRN	??_Elogic_error@std@@UAEPAXI@Z:PROC		; std::logic_error::`vector deleting destructor'
;	COMDAT ??_R1A@?0A@EA@logic_error@std@@8
; File c:\program files (x86)\microsoft visual studio 9.0\vc\include\stdexcept
rdata$r	SEGMENT
??_R1A@?0A@EA@logic_error@std@@8 DD FLAT:??_R0?AVlogic_error@std@@@8 ; std::logic_error::`RTTI Base Class Descriptor at (0,-1,0,64)'
	DD	01H
	DD	00H
	DD	0ffffffffH
	DD	00H
	DD	040H
	DD	FLAT:??_R3logic_error@std@@8
rdata$r	ENDS
;	COMDAT ??_R2logic_error@std@@8
rdata$r	SEGMENT
??_R2logic_error@std@@8 DD FLAT:??_R1A@?0A@EA@logic_error@std@@8 ; std::logic_error::`RTTI Base Class Array'
	DD	FLAT:??_R1A@?0A@EA@exception@std@@8
rdata$r	ENDS
;	COMDAT ??_R3logic_error@std@@8
rdata$r	SEGMENT
??_R3logic_error@std@@8 DD 00H				; std::logic_error::`RTTI Class Hierarchy Descriptor'
	DD	00H
	DD	02H
	DD	FLAT:??_R2logic_error@std@@8
rdata$r	ENDS
;	COMDAT ??_R0?AVlogic_error@std@@@8
_DATA	SEGMENT
??_R0?AVlogic_error@std@@@8 DD FLAT:??_7type_info@@6B@	; std::logic_error `RTTI Type Descriptor'
	DD	00H
	DB	'.?AVlogic_error@std@@', 00H
_DATA	ENDS
;	COMDAT ??_R4logic_error@std@@6B@
rdata$r	SEGMENT
??_R4logic_error@std@@6B@ DD 00H			; std::logic_error::`RTTI Complete Object Locator'
	DD	00H
	DD	00H
	DD	FLAT:??_R0?AVlogic_error@std@@@8
	DD	FLAT:??_R3logic_error@std@@8
rdata$r	ENDS
;	COMDAT ??_7logic_error@std@@6B@
CONST	SEGMENT
??_7logic_error@std@@6B@ DD FLAT:??_R4logic_error@std@@6B@ ; std::logic_error::`vftable'
	DD	FLAT:??_Elogic_error@std@@UAEPAXI@Z
	DD	FLAT:?what@logic_error@std@@UBEPBDXZ
CONST	ENDS
;	COMDAT xdata$x
xdata$x	SEGMENT
__unwindtable$??0logic_error@std@@QAE@ABV?$basic_string@DU?$char_traits@D@std@@V?$allocator@D@2@@1@@Z DD 0ffffffffH
	DD	FLAT:__unwindfunclet$??0logic_error@std@@QAE@ABV?$basic_string@DU?$char_traits@D@std@@V?$allocator@D@2@@1@@Z$0
__ehfuncinfo$??0logic_error@std@@QAE@ABV?$basic_string@DU?$char_traits@D@std@@V?$allocator@D@2@@1@@Z DD 019930522H
	DD	01H
	DD	FLAT:__unwindtable$??0logic_error@std@@QAE@ABV?$basic_string@DU?$char_traits@D@std@@V?$allocator@D@2@@1@@Z
	DD	2 DUP(00H)
	DD	2 DUP(00H)
	DD	00H
	DD	01H
; Function compile flags: /Ogtpy
xdata$x	ENDS
;	COMDAT ??0logic_error@std@@QAE@ABV?$basic_string@DU?$char_traits@D@std@@V?$allocator@D@2@@1@@Z
_TEXT	SEGMENT
_this$ = -16						; size = 4
__$EHRec$ = -12						; size = 12
__Message$ = 8						; size = 4
??0logic_error@std@@QAE@ABV?$basic_string@DU?$char_traits@D@std@@V?$allocator@D@2@@1@@Z PROC ; std::logic_error::logic_error, COMDAT
; _this$ = ecx

; 26   : 		{	// construct from message string

	push	-1
	push	__ehhandler$??0logic_error@std@@QAE@ABV?$basic_string@DU?$char_traits@D@std@@V?$allocator@D@2@@1@@Z
	mov	eax, DWORD PTR fs:0
	push	eax
	mov	DWORD PTR fs:0, esp
	push	ecx
	push	esi
	mov	esi, ecx
	mov	DWORD PTR _this$[esp+20], esi
	call	DWORD PTR __imp_??0exception@std@@QAE@XZ
	mov	eax, DWORD PTR __Message$[esp+16]
	push	eax
	lea	ecx, DWORD PTR [esi+12]
	mov	DWORD PTR __$EHRec$[esp+32], 0
	mov	DWORD PTR [esi], OFFSET ??_7logic_error@std@@6B@
	call	DWORD PTR __imp_??0?$basic_string@DU?$char_traits@D@std@@V?$allocator@D@2@@std@@QAE@ABV01@@Z

; 27   : 		}

	mov	ecx, DWORD PTR __$EHRec$[esp+20]
	mov	eax, esi
	pop	esi
	mov	DWORD PTR fs:0, ecx
	add	esp, 16					; 00000010H
	ret	4
_TEXT	ENDS
;	COMDAT text$x
text$x	SEGMENT
__unwindfunclet$??0logic_error@std@@QAE@ABV?$basic_string@DU?$char_traits@D@std@@V?$allocator@D@2@@1@@Z$0:
	mov	ecx, DWORD PTR _this$[ebp]
	jmp	DWORD PTR __imp_??1exception@std@@UAE@XZ
__ehhandler$??0logic_error@std@@QAE@ABV?$basic_string@DU?$char_traits@D@std@@V?$allocator@D@2@@1@@Z:
	mov	eax, OFFSET __ehfuncinfo$??0logic_error@std@@QAE@ABV?$basic_string@DU?$char_traits@D@std@@V?$allocator@D@2@@1@@Z
	jmp	___CxxFrameHandler3
text$x	ENDS
??0logic_error@std@@QAE@ABV?$basic_string@DU?$char_traits@D@std@@V?$allocator@D@2@@1@@Z ENDP ; std::logic_error::logic_error
PUBLIC	??1logic_error@std@@UAE@XZ			; std::logic_error::~logic_error
EXTRN	__imp_??1?$basic_string@DU?$char_traits@D@std@@V?$allocator@D@2@@std@@QAE@XZ:PROC
; Function compile flags: /Ogtpy
;	COMDAT ??1logic_error@std@@UAE@XZ
_TEXT	SEGMENT
??1logic_error@std@@UAE@XZ PROC				; std::logic_error::~logic_error, COMDAT
; _this$ = ecx

; 30   : 		{	// destroy the object

	push	esi
	mov	esi, ecx

; 31   : 		}

	lea	ecx, DWORD PTR [esi+12]
	mov	DWORD PTR [esi], OFFSET ??_7logic_error@std@@6B@
	call	DWORD PTR __imp_??1?$basic_string@DU?$char_traits@D@std@@V?$allocator@D@2@@std@@QAE@XZ
	mov	ecx, esi
	pop	esi
	jmp	DWORD PTR __imp_??1exception@std@@UAE@XZ
??1logic_error@std@@UAE@XZ ENDP				; std::logic_error::~logic_error
_TEXT	ENDS
EXTRN	__imp_?c_str@?$basic_string@DU?$char_traits@D@std@@V?$allocator@D@2@@std@@QBEPBDXZ:PROC
; Function compile flags: /Ogtpy
;	COMDAT ?what@logic_error@std@@UBEPBDXZ
_TEXT	SEGMENT
?what@logic_error@std@@UBEPBDXZ PROC			; std::logic_error::what, COMDAT
; _this$ = ecx

; 35   : 		return (_Str.c_str());

	add	ecx, 12					; 0000000cH
	jmp	DWORD PTR __imp_?c_str@?$basic_string@DU?$char_traits@D@std@@V?$allocator@D@2@@std@@QBEPBDXZ
?what@logic_error@std@@UBEPBDXZ ENDP			; std::logic_error::what
; Function compile flags: /Ogtpy
_TEXT	ENDS
;	COMDAT ??_Glogic_error@std@@UAEPAXI@Z
_TEXT	SEGMENT
___flags$ = 8						; size = 4
??_Glogic_error@std@@UAEPAXI@Z PROC			; std::logic_error::`scalar deleting destructor', COMDAT
; _this$ = ecx
	push	esi
	mov	esi, ecx
	lea	ecx, DWORD PTR [esi+12]
	mov	DWORD PTR [esi], OFFSET ??_7logic_error@std@@6B@
	call	DWORD PTR __imp_??1?$basic_string@DU?$char_traits@D@std@@V?$allocator@D@2@@std@@QAE@XZ
	mov	ecx, esi
	call	DWORD PTR __imp_??1exception@std@@UAE@XZ
	test	BYTE PTR ___flags$[esp], 1
	je	SHORT $LN6@scalar@2
	push	esi
	call	??3@YAXPAX@Z				; operator delete
	add	esp, 4
$LN6@scalar@2:
	mov	eax, esi
	pop	esi
	ret	4
??_Glogic_error@std@@UAEPAXI@Z ENDP			; std::logic_error::`scalar deleting destructor'
_TEXT	ENDS
PUBLIC	??RCityAndProductionEval@@QBE_NABUCityAndProduction@@0@Z ; CityAndProductionEval::operator()
; Function compile flags: /Ogtpy
; File c:\users\enormousapplepie\documents\github\lekmod\lekmod_dll\cvgamecoredll_expansion2\cvplayerai.cpp
;	COMDAT ??RCityAndProductionEval@@QBE_NABUCityAndProduction@@0@Z
_TEXT	SEGMENT
_a$ = 8							; size = 4
_b$ = 12						; size = 4
??RCityAndProductionEval@@QBE_NABUCityAndProduction@@0@Z PROC ; CityAndProductionEval::operator(), COMDAT
; _this$ = ecx

; 549  : 		return (a.iProduction > b.iProduction);

	mov	eax, DWORD PTR _a$[esp-4]
	mov	ecx, DWORD PTR [eax+4]
	mov	edx, DWORD PTR _b$[esp-4]
	xor	eax, eax
	cmp	ecx, DWORD PTR [edx+4]
	setg	al

; 550  : 	}

	ret	8
??RCityAndProductionEval@@QBE_NABUCityAndProduction@@0@Z ENDP ; CityAndProductionEval::operator()
_TEXT	ENDS
PUBLIC	??_7length_error@std@@6B@			; std::length_error::`vftable'
PUBLIC	??0length_error@std@@QAE@ABV?$basic_string@DU?$char_traits@D@std@@V?$allocator@D@2@@1@@Z ; std::length_error::length_error
PUBLIC	??_R4length_error@std@@6B@			; std::length_error::`RTTI Complete Object Locator'
PUBLIC	??_R0?AVlength_error@std@@@8			; std::length_error `RTTI Type Descriptor'
PUBLIC	??_R3length_error@std@@8			; std::length_error::`RTTI Class Hierarchy Descriptor'
PUBLIC	??_R2length_error@std@@8			; std::length_error::`RTTI Base Class Array'
PUBLIC	??_R1A@?0A@EA@length_error@std@@8		; std::length_error::`RTTI Base Class Descriptor at (0,-1,0,64)'
EXTRN	??_Elength_error@std@@UAEPAXI@Z:PROC		; std::length_error::`vector deleting destructor'
;	COMDAT ??_R1A@?0A@EA@length_error@std@@8
; File c:\program files (x86)\microsoft visual studio 9.0\vc\include\stdexcept
rdata$r	SEGMENT
??_R1A@?0A@EA@length_error@std@@8 DD FLAT:??_R0?AVlength_error@std@@@8 ; std::length_error::`RTTI Base Class Descriptor at (0,-1,0,64)'
	DD	02H
	DD	00H
	DD	0ffffffffH
	DD	00H
	DD	040H
	DD	FLAT:??_R3length_error@std@@8
rdata$r	ENDS
;	COMDAT ??_R2length_error@std@@8
rdata$r	SEGMENT
??_R2length_error@std@@8 DD FLAT:??_R1A@?0A@EA@length_error@std@@8 ; std::length_error::`RTTI Base Class Array'
	DD	FLAT:??_R1A@?0A@EA@logic_error@std@@8
	DD	FLAT:??_R1A@?0A@EA@exception@std@@8
rdata$r	ENDS
;	COMDAT ??_R3length_error@std@@8
rdata$r	SEGMENT
??_R3length_error@std@@8 DD 00H				; std::length_error::`RTTI Class Hierarchy Descriptor'
	DD	00H
	DD	03H
	DD	FLAT:??_R2length_error@std@@8
rdata$r	ENDS
;	COMDAT ??_R0?AVlength_error@std@@@8
_DATA	SEGMENT
??_R0?AVlength_error@std@@@8 DD FLAT:??_7type_info@@6B@	; std::length_error `RTTI Type Descriptor'
	DD	00H
	DB	'.?AVlength_error@std@@', 00H
_DATA	ENDS
;	COMDAT ??_R4length_error@std@@6B@
rdata$r	SEGMENT
??_R4length_error@std@@6B@ DD 00H			; std::length_error::`RTTI Complete Object Locator'
	DD	00H
	DD	00H
	DD	FLAT:??_R0?AVlength_error@std@@@8
	DD	FLAT:??_R3length_error@std@@8
rdata$r	ENDS
;	COMDAT ??_7length_error@std@@6B@
CONST	SEGMENT
??_7length_error@std@@6B@ DD FLAT:??_R4length_error@std@@6B@ ; std::length_error::`vftable'
	DD	FLAT:??_Elength_error@std@@UAEPAXI@Z
	DD	FLAT:?what@logic_error@std@@UBEPBDXZ
; Function compile flags: /Ogtpy
CONST	ENDS
;	COMDAT ??0length_error@std@@QAE@ABV?$basic_string@DU?$char_traits@D@std@@V?$allocator@D@2@@1@@Z
_TEXT	SEGMENT
__Message$ = 8						; size = 4
??0length_error@std@@QAE@ABV?$basic_string@DU?$char_traits@D@std@@V?$allocator@D@2@@1@@Z PROC ; std::length_error::length_error, COMDAT
; _this$ = ecx

; 105  : 		{	// construct from message string

	mov	eax, DWORD PTR __Message$[esp-4]
	push	esi
	push	eax
	mov	esi, ecx
	call	??0logic_error@std@@QAE@ABV?$basic_string@DU?$char_traits@D@std@@V?$allocator@D@2@@1@@Z ; std::logic_error::logic_error
	mov	DWORD PTR [esi], OFFSET ??_7length_error@std@@6B@

; 106  : 		}

	mov	eax, esi
	pop	esi
	ret	4
??0length_error@std@@QAE@ABV?$basic_string@DU?$char_traits@D@std@@V?$allocator@D@2@@1@@Z ENDP ; std::length_error::length_error
_TEXT	ENDS
PUBLIC	??1length_error@std@@UAE@XZ			; std::length_error::~length_error
; Function compile flags: /Ogtpy
;	COMDAT ??1length_error@std@@UAE@XZ
_TEXT	SEGMENT
??1length_error@std@@UAE@XZ PROC			; std::length_error::~length_error, COMDAT
; _this$ = ecx

; 109  : 		{	// destroy the object

	push	esi
	mov	esi, ecx

; 110  : 		}

	lea	ecx, DWORD PTR [esi+12]
	mov	DWORD PTR [esi], OFFSET ??_7logic_error@std@@6B@
	call	DWORD PTR __imp_??1?$basic_string@DU?$char_traits@D@std@@V?$allocator@D@2@@std@@QAE@XZ
	mov	ecx, esi
	pop	esi
	jmp	DWORD PTR __imp_??1exception@std@@UAE@XZ
??1length_error@std@@UAE@XZ ENDP			; std::length_error::~length_error
; Function compile flags: /Ogtpy
_TEXT	ENDS
;	COMDAT ??_Glength_error@std@@UAEPAXI@Z
_TEXT	SEGMENT
___flags$ = 8						; size = 4
??_Glength_error@std@@UAEPAXI@Z PROC			; std::length_error::`scalar deleting destructor', COMDAT
; _this$ = ecx
	push	esi
	mov	esi, ecx
	lea	ecx, DWORD PTR [esi+12]
	mov	DWORD PTR [esi], OFFSET ??_7logic_error@std@@6B@
	call	DWORD PTR __imp_??1?$basic_string@DU?$char_traits@D@std@@V?$allocator@D@2@@std@@QAE@XZ
	mov	ecx, esi
	call	DWORD PTR __imp_??1exception@std@@UAE@XZ
	test	BYTE PTR ___flags$[esp], 1
	je	SHORT $LN8@scalar@3
	push	esi
	call	??3@YAXPAX@Z				; operator delete
	add	esp, 4
$LN8@scalar@3:
	mov	eax, esi
	pop	esi
	ret	4
??_Glength_error@std@@UAEPAXI@Z ENDP			; std::length_error::`scalar deleting destructor'
_TEXT	ENDS
PUBLIC	?AI_doResearch@CvPlayerAI@@IAEXXZ		; CvPlayerAI::AI_doResearch
EXTRN	?GetCurrentResearch@CvPlayerTechs@@QBE?AW4TechTypes@@XZ:PROC ; CvPlayerTechs::GetCurrentResearch
EXTRN	?GetPlayerTechs@CvPlayer@@QBEPAVCvPlayerTechs@@XZ:PROC ; CvPlayer::GetPlayerTechs
; Function compile flags: /Ogtpy
; File c:\users\enormousapplepie\documents\github\lekmod\lekmod_dll\cvgamecoredll_expansion2\cvplayerai.cpp
;	COMDAT ?AI_doResearch@CvPlayerAI@@IAEXXZ
_TEXT	SEGMENT
?AI_doResearch@CvPlayerAI@@IAEXXZ PROC			; CvPlayerAI::AI_doResearch, COMDAT
; _this$ = ecx

; 691  : {

	push	esi
	mov	esi, ecx

; 692  : 	CvAssertMsg(!isHuman(), "isHuman did not return false as expected");
; 693  : 
; 694  : 	if(GetPlayerTechs()->GetCurrentResearch() == NO_TECH)

	call	?GetPlayerTechs@CvPlayer@@QBEPAVCvPlayerTechs@@XZ ; CvPlayer::GetPlayerTechs
	mov	ecx, eax
	call	?GetCurrentResearch@CvPlayerTechs@@QBE?AW4TechTypes@@XZ ; CvPlayerTechs::GetCurrentResearch
	cmp	eax, -1
	jne	SHORT $LN1@AI_doResea

; 695  : 	{
; 696  : 		AI_chooseResearch();

	mov	eax, DWORD PTR [esi]
	mov	edx, DWORD PTR [eax+60]
	mov	ecx, esi
	pop	esi
	jmp	edx
$LN1@AI_doResea:
	pop	esi

; 697  : 		//AI_forceUpdateStrategies(); //to account for current research.
; 698  : 	}
; 699  : }

	ret	0
?AI_doResearch@CvPlayerAI@@IAEXXZ ENDP			; CvPlayerAI::AI_doResearch
_TEXT	ENDS
PUBLIC	?CityUncommitToBuildUnitForOperationSlot@CvPlayerAI@@UAEXUOperationSlot@@@Z ; CvPlayerAI::CityUncommitToBuildUnitForOperationSlot
EXTRN	?getAIOperation@CvPlayer@@QAEPAVCvAIOperation@@H@Z:PROC ; CvPlayer::getAIOperation
; Function compile flags: /Ogtpy
;	COMDAT ?CityUncommitToBuildUnitForOperationSlot@CvPlayerAI@@UAEXUOperationSlot@@@Z
_TEXT	SEGMENT
_thisSlot$ = 8						; size = 12
?CityUncommitToBuildUnitForOperationSlot@CvPlayerAI@@UAEXUOperationSlot@@@Z PROC ; CvPlayerAI::CityUncommitToBuildUnitForOperationSlot, COMDAT
; _this$ = ecx

; 795  : 	// find this operation
; 796  : 	CvAIOperation* pThisOperation = getAIOperation(thisSlot.m_iOperationID);

	mov	eax, DWORD PTR _thisSlot$[esp-4]
	push	esi
	push	eax
	call	?getAIOperation@CvPlayer@@QAEPAVCvAIOperation@@H@Z ; CvPlayer::getAIOperation

; 797  : 	if(pThisOperation)

	test	eax, eax
	je	SHORT $LN1@CityUncomm

; 798  : 	{
; 799  : 		pThisOperation->UncommitToBuild(thisSlot);

	mov	ecx, DWORD PTR _thisSlot$[esp]
	mov	esi, DWORD PTR [eax]
	sub	esp, 12					; 0000000cH
	mov	edx, esp
	mov	DWORD PTR [edx], ecx
	mov	ecx, DWORD PTR _thisSlot$[esp+16]
	mov	DWORD PTR [edx+4], ecx
	mov	ecx, DWORD PTR _thisSlot$[esp+20]
	mov	DWORD PTR [edx+8], ecx
	mov	edx, DWORD PTR [esi+104]
	mov	ecx, eax
	call	edx
$LN1@CityUncomm:

; 800  : 	}
; 801  : }

	pop	esi
	ret	12					; 0000000cH
?CityUncommitToBuildUnitForOperationSlot@CvPlayerAI@@UAEXUOperationSlot@@@Z ENDP ; CvPlayerAI::CityUncommitToBuildUnitForOperationSlot
_TEXT	ENDS
PUBLIC	?PreparingForWar@@YA_NPAVCvPlayerAI@@@Z		; PreparingForWar
EXTRN	?IsUsingStrategy@CvMilitaryAI@@QAE_NW4MilitaryAIStrategyTypes@@@Z:PROC ; CvMilitaryAI::IsUsingStrategy
EXTRN	?getInfoTypeForString@CvGlobals@@QBEHPBD_N@Z:PROC ; CvGlobals::getInfoTypeForString
EXTRN	?gGlobals@@3VCvGlobals@@A:BYTE			; gGlobals
EXTRN	?GetMilitaryAI@CvPlayer@@QBEPAVCvMilitaryAI@@XZ:PROC ; CvPlayer::GetMilitaryAI
; Function compile flags: /Ogtpy
;	COMDAT ?PreparingForWar@@YA_NPAVCvPlayerAI@@@Z
_TEXT	SEGMENT
_pPlayer$ = 8						; size = 4
?PreparingForWar@@YA_NPAVCvPlayerAI@@@Z PROC		; PreparingForWar, COMDAT

; 891  : 	CvAssertMsg(pPlayer, "Need a player");
; 892  : 	if(!pPlayer)

	mov	ecx, DWORD PTR _pPlayer$[esp-4]
	test	ecx, ecx
	jne	SHORT $LN3@PreparingF

; 893  : 	{
; 894  : 		return false;

	xor	al, al

; 905  : 	{
; 906  : 		return true;
; 907  : 	}
; 908  : 
; 909  : 	return false;
; 910  : }

	ret	0
$LN3@PreparingF:
	push	esi

; 895  : 	}
; 896  : 	CvMilitaryAI* pMilitaryAI = pPlayer->GetMilitaryAI();

	call	?GetMilitaryAI@CvPlayer@@QBEPAVCvMilitaryAI@@XZ ; CvPlayer::GetMilitaryAI
	mov	esi, eax

; 897  : 	CvAssertMsg(pMilitaryAI, "No military AI");
; 898  : 	if(!pMilitaryAI)

	test	esi, esi
	jne	SHORT $LN2@PreparingF

; 899  : 	{
; 900  : 		return false;

	xor	al, al
	pop	esi

; 905  : 	{
; 906  : 		return true;
; 907  : 	}
; 908  : 
; 909  : 	return false;
; 910  : }

	ret	0
$LN2@PreparingF:

; 901  : 	}
; 902  : 
; 903  : 	MilitaryAIStrategyTypes eWarMobilizationStrategy = (MilitaryAIStrategyTypes)GC.getInfoTypeForString("MILITARYAISTRATEGY_WAR_MOBILIZATION");

	push	0
	push	OFFSET $SG227079
	mov	ecx, OFFSET ?gGlobals@@3VCvGlobals@@A	; gGlobals
	call	?getInfoTypeForString@CvGlobals@@QBEHPBD_N@Z ; CvGlobals::getInfoTypeForString

; 904  : 	if(pMilitaryAI->IsUsingStrategy(eWarMobilizationStrategy))

	push	eax
	mov	ecx, esi
	call	?IsUsingStrategy@CvMilitaryAI@@QAE_NW4MilitaryAIStrategyTypes@@@Z ; CvMilitaryAI::IsUsingStrategy
	test	al, al
	setne	al
	pop	esi

; 905  : 	{
; 906  : 		return true;
; 907  : 	}
; 908  : 
; 909  : 	return false;
; 910  : }

	ret	0
?PreparingForWar@@YA_NPAVCvPlayerAI@@@Z ENDP		; PreparingForWar
_TEXT	ENDS
PUBLIC	?IsSafe@@YA_NPAVCvPlayerAI@@@Z			; IsSafe
EXTRN	?GetStateAllWars@CvDiplomacyAI@@QBE?AW4StateAllWars@@XZ:PROC ; CvDiplomacyAI::GetStateAllWars
EXTRN	?GetDiplomacyAI@CvPlayer@@QBEPAVCvDiplomacyAI@@XZ:PROC ; CvPlayer::GetDiplomacyAI
; Function compile flags: /Ogtpy
;	COMDAT ?IsSafe@@YA_NPAVCvPlayerAI@@@Z
_TEXT	SEGMENT
_pPlayer$ = 8						; size = 4
?IsSafe@@YA_NPAVCvPlayerAI@@@Z PROC			; IsSafe, COMDAT

; 913  : {

	push	esi

; 914  : 	CvAssertMsg(pPlayer, "Need a player");
; 915  : 	if(!pPlayer)

	mov	esi, DWORD PTR _pPlayer$[esp]
	test	esi, esi
	jne	SHORT $LN5@IsSafe
$LN8@IsSafe:

; 916  : 	{
; 917  : 		return false;

	xor	al, al
	pop	esi

; 935  : 		{
; 936  : 			return true;
; 937  : 		}
; 938  : 
; 939  : 		return false;
; 940  : 	}
; 941  : }

	ret	0
$LN5@IsSafe:

; 918  : 	}
; 919  : 
; 920  : 	if(pPlayer->GetDiplomacyAI()->GetStateAllWars() == STATE_ALL_WARS_WINNING)

	mov	ecx, esi
	call	?GetDiplomacyAI@CvPlayer@@QBEPAVCvDiplomacyAI@@XZ ; CvPlayer::GetDiplomacyAI
	mov	ecx, eax
	call	?GetStateAllWars@CvDiplomacyAI@@QBE?AW4StateAllWars@@XZ ; CvDiplomacyAI::GetStateAllWars
	cmp	eax, 1
	jne	SHORT $LN4@IsSafe

; 921  : 	{
; 922  : 		return true;

	mov	al, al
	pop	esi

; 935  : 		{
; 936  : 			return true;
; 937  : 		}
; 938  : 
; 939  : 		return false;
; 940  : 	}
; 941  : }

	ret	0
$LN4@IsSafe:

; 923  : 	}
; 924  : 	else
; 925  : 	{
; 926  : 		CvMilitaryAI* pMilitaryAI = pPlayer->GetMilitaryAI();

	mov	ecx, esi
	call	?GetMilitaryAI@CvPlayer@@QBEPAVCvMilitaryAI@@XZ ; CvPlayer::GetMilitaryAI
	mov	esi, eax

; 927  : 		CvAssertMsg(pMilitaryAI, "No military AI");
; 928  : 		if(!pMilitaryAI)

	test	esi, esi

; 929  : 		{
; 930  : 			return false;

	je	SHORT $LN8@IsSafe

; 931  : 		}
; 932  : 
; 933  : 		MilitaryAIStrategyTypes eAtWarStrategy = (MilitaryAIStrategyTypes)GC.getInfoTypeForString("MILITARYAISTRATEGY_AT_WAR");

	push	0
	push	OFFSET $SG227091
	mov	ecx, OFFSET ?gGlobals@@3VCvGlobals@@A	; gGlobals
	call	?getInfoTypeForString@CvGlobals@@QBEHPBD_N@Z ; CvGlobals::getInfoTypeForString

; 934  : 		if(!pMilitaryAI->IsUsingStrategy(eAtWarStrategy))

	push	eax
	mov	ecx, esi
	call	?IsUsingStrategy@CvMilitaryAI@@QAE_NW4MilitaryAIStrategyTypes@@@Z ; CvMilitaryAI::IsUsingStrategy
	test	al, al
	sete	al
	pop	esi

; 935  : 		{
; 936  : 			return true;
; 937  : 		}
; 938  : 
; 939  : 		return false;
; 940  : 	}
; 941  : }

	ret	0
?IsSafe@@YA_NPAVCvPlayerAI@@@Z ENDP			; IsSafe
_TEXT	ENDS
PUBLIC	?GetDirectiveWriter@CvPlayerAI@@QAE?AW4GreatPeopleDirectiveTypes@@PAVCvUnit@@@Z ; CvPlayerAI::GetDirectiveWriter
EXTRN	?GetBestGreatWorkCity@CvEconomicAI@@QBEPAVCvCity@@PAVCvPlot@@W4GreatWorkType@@@Z:PROC ; CvEconomicAI::GetBestGreatWorkCity
EXTRN	?GetEconomicAI@CvPlayer@@QBEPAVCvEconomicAI@@XZ:PROC ; CvPlayer::GetEconomicAI
EXTRN	?plot@CvUnit@@QBEPAVCvPlot@@XZ:PROC		; CvUnit::plot
EXTRN	?GetGreatWork@CvUnit@@QBE?AW4GreatWorkType@@XZ:PROC ; CvUnit::GetGreatWork
EXTRN	?CanGetAdvancedTenet@CvPlayerPolicies@@QBE_NXZ:PROC ; CvPlayerPolicies::CanGetAdvancedTenet
EXTRN	?GetPlayerPolicies@CvPlayer@@QBEPAVCvPlayerPolicies@@XZ:PROC ; CvPlayer::GetPlayerPolicies
EXTRN	?GetPublicOpinionUnhappiness@CvPlayerCulture@@QBEHXZ:PROC ; CvPlayerCulture::GetPublicOpinionUnhappiness
EXTRN	?GetCulture@CvPlayer@@QBEPAVCvPlayerCulture@@XZ:PROC ; CvPlayer::GetCulture
EXTRN	?IsGoingForCultureVictory@CvDiplomacyAI@@QAE_NXZ:PROC ; CvDiplomacyAI::IsGoingForCultureVictory
; Function compile flags: /Ogtpy
;	COMDAT ?GetDirectiveWriter@CvPlayerAI@@QAE?AW4GreatPeopleDirectiveTypes@@PAVCvUnit@@@Z
_TEXT	SEGMENT
_pGreatWriter$ = 8					; size = 4
?GetDirectiveWriter@CvPlayerAI@@QAE?AW4GreatPeopleDirectiveTypes@@PAVCvUnit@@@Z PROC ; CvPlayerAI::GetDirectiveWriter, COMDAT
; _this$ = ecx

; 944  : {

	push	ebx
	push	esi
	push	edi
	mov	edi, ecx

; 945  : 	GreatPeopleDirectiveTypes eDirective = NO_GREAT_PEOPLE_DIRECTIVE_TYPE;

	or	esi, -1

; 946  : 
; 947  : 	// Defend against ideology pressure if not going for culture win
; 948  : #ifdef AUI_WARNING_FIXES
; 949  : 	if (!GetDiplomacyAI()->IsGoingForCultureVictory() && GetCulture()->GetPublicOpinionUnhappiness() > 10)
; 950  : #else
; 951  : 	if (eDirective == NO_GREAT_PEOPLE_DIRECTIVE_TYPE && !GetDiplomacyAI()->IsGoingForCultureVictory() && GetCulture()->GetPublicOpinionUnhappiness() > 10)

	call	?GetDiplomacyAI@CvPlayer@@QBEPAVCvDiplomacyAI@@XZ ; CvPlayer::GetDiplomacyAI
	mov	ecx, eax
	call	?IsGoingForCultureVictory@CvDiplomacyAI@@QAE_NXZ ; CvDiplomacyAI::IsGoingForCultureVictory
	test	al, al
	jne	SHORT $LN7@GetDirecti
	mov	ecx, edi
	call	?GetCulture@CvPlayer@@QBEPAVCvPlayerCulture@@XZ ; CvPlayer::GetCulture
	mov	ecx, eax
	call	?GetPublicOpinionUnhappiness@CvPlayerCulture@@QBEHXZ ; CvPlayerCulture::GetPublicOpinionUnhappiness
	cmp	eax, 10					; 0000000aH

; 952  : #endif
; 953  : 	{
; 954  : 		eDirective = GREAT_PEOPLE_DIRECTIVE_CULTURE_BLAST;
; 955  : 	}
; 956  : 
; 957  : 	// If not going for culture win and a Level 2 or 3 Tenet is available, try to snag it
; 958  : 	if (eDirective == NO_GREAT_PEOPLE_DIRECTIVE_TYPE && !GetDiplomacyAI()->IsGoingForCultureVictory() && GetPlayerPolicies()->CanGetAdvancedTenet())

	jg	SHORT $LN8@GetDirecti
$LN7@GetDirecti:
	mov	ecx, edi
	call	?GetDiplomacyAI@CvPlayer@@QBEPAVCvDiplomacyAI@@XZ ; CvPlayer::GetDiplomacyAI
	mov	ecx, eax
	call	?IsGoingForCultureVictory@CvDiplomacyAI@@QAE_NXZ ; CvDiplomacyAI::IsGoingForCultureVictory
	test	al, al
	jne	SHORT $LN3@GetDirecti
	mov	ecx, edi
	call	?GetPlayerPolicies@CvPlayer@@QBEPAVCvPlayerPolicies@@XZ ; CvPlayer::GetPlayerPolicies
	mov	ecx, eax
	call	?CanGetAdvancedTenet@CvPlayerPolicies@@QBE_NXZ ; CvPlayerPolicies::CanGetAdvancedTenet
	test	al, al
	je	SHORT $LN3@GetDirecti
$LN8@GetDirecti:

; 959  : 	{
; 960  : 		eDirective = GREAT_PEOPLE_DIRECTIVE_CULTURE_BLAST;

	mov	esi, 4
$LN3@GetDirecti:

; 961  : 	}
; 962  : 
; 963  : 	// Create Great Work if there is a slot
; 964  : 	GreatWorkType eGreatWork = pGreatWriter->GetGreatWork();

	mov	ebx, DWORD PTR _pGreatWriter$[esp+8]
	mov	ecx, ebx
	call	?GetGreatWork@CvUnit@@QBE?AW4GreatWorkType@@XZ ; CvUnit::GetGreatWork

; 965  : 	if (eDirective == NO_GREAT_PEOPLE_DIRECTIVE_TYPE && GetEconomicAI()->GetBestGreatWorkCity(pGreatWriter->plot(), eGreatWork))

	cmp	esi, -1
	jne	SHORT $LN2@GetDirecti
	push	eax
	mov	ecx, ebx
	call	?plot@CvUnit@@QBEPAVCvPlot@@XZ		; CvUnit::plot
	push	eax
	mov	ecx, edi
	call	?GetEconomicAI@CvPlayer@@QBEPAVCvEconomicAI@@XZ ; CvPlayer::GetEconomicAI
	mov	ecx, eax
	call	?GetBestGreatWorkCity@CvEconomicAI@@QBEPAVCvCity@@PAVCvPlot@@W4GreatWorkType@@@Z ; CvEconomicAI::GetBestGreatWorkCity
	test	eax, eax

; 966  : 	{
; 967  : 		eDirective = GREAT_PEOPLE_DIRECTIVE_USE_POWER;

	lea	eax, DWORD PTR [esi+2]
	jne	SHORT $LN1@GetDirecti
$LN2@GetDirecti:

; 968  : 	}
; 969  : 	else
; 970  : 	{
; 971  : 		eDirective = GREAT_PEOPLE_DIRECTIVE_CULTURE_BLAST;

	mov	eax, 4
$LN1@GetDirecti:
	pop	edi
	pop	esi
	pop	ebx

; 972  : 	}
; 973  : 
; 974  : 	return eDirective;
; 975  : }

	ret	4
?GetDirectiveWriter@CvPlayerAI@@QAE?AW4GreatPeopleDirectiveTypes@@PAVCvUnit@@@Z ENDP ; CvPlayerAI::GetDirectiveWriter
_TEXT	ENDS
PUBLIC	?GetDirectiveAdmiral@CvPlayerAI@@QAE?AW4GreatPeopleDirectiveTypes@@PAVCvUnit@@@Z ; CvPlayerAI::GetDirectiveAdmiral
; Function compile flags: /Ogtpy
;	COMDAT ?GetDirectiveAdmiral@CvPlayerAI@@QAE?AW4GreatPeopleDirectiveTypes@@PAVCvUnit@@@Z
_TEXT	SEGMENT
___formal$ = 8						; size = 4
?GetDirectiveAdmiral@CvPlayerAI@@QAE?AW4GreatPeopleDirectiveTypes@@PAVCvUnit@@@Z PROC ; CvPlayerAI::GetDirectiveAdmiral, COMDAT
; _this$ = ecx

; 1264 : 	GreatPeopleDirectiveTypes eDirective = NO_GREAT_PEOPLE_DIRECTIVE_TYPE;
; 1265 : 
; 1266 : 	return eDirective;

	or	eax, -1

; 1267 : }

	ret	4
?GetDirectiveAdmiral@CvPlayerAI@@QAE?AW4GreatPeopleDirectiveTypes@@PAVCvUnit@@@Z ENDP ; CvPlayerAI::GetDirectiveAdmiral
_TEXT	ENDS
PUBLIC	??A?$BaseVector@H$00@@QAEAAHI@Z			; BaseVector<int,1>::operator[]
; Function compile flags: /Ogtpy
; File c:\users\enormousapplepie\documents\github\lekmod\lekmod_dll\fireplace\include\fireworks\ffastvector.h
;	COMDAT ??A?$BaseVector@H$00@@QAEAAHI@Z
_TEXT	SEGMENT
_ui$ = 8						; size = 4
??A?$BaseVector@H$00@@QAEAAHI@Z PROC			; BaseVector<int,1>::operator[], COMDAT
; _this$ = ecx

; 129  : 		FAssert(ui < m_uiCurrSize);
; 130  : 		return m_pData[ui];

	mov	eax, DWORD PTR [ecx]
	mov	ecx, DWORD PTR _ui$[esp-4]
	lea	eax, DWORD PTR [eax+ecx*4]

; 131  : 	};

	ret	4
??A?$BaseVector@H$00@@QAEAAHI@Z ENDP			; BaseVector<int,1>::operator[]
_TEXT	ENDS
PUBLIC	?size@?$BaseVector@H$00@@QBEIXZ			; BaseVector<int,1>::size
; Function compile flags: /Ogtpy
;	COMDAT ?size@?$BaseVector@H$00@@QBEIXZ
_TEXT	SEGMENT
?size@?$BaseVector@H$00@@QBEIXZ PROC			; BaseVector<int,1>::size, COMDAT
; _this$ = ecx

; 169  : 		return m_uiCurrSize;

	mov	eax, DWORD PTR [ecx+4]

; 170  : 	};

	ret	0
?size@?$BaseVector@H$00@@QBEIXZ ENDP			; BaseVector<int,1>::size
_TEXT	ENDS
PUBLIC	?size@?$vector@UCityAndProduction@@V?$allocator@UCityAndProduction@@@std@@@std@@QBEIXZ ; std::vector<CityAndProduction,std::allocator<CityAndProduction> >::size
; Function compile flags: /Ogtpy
; File c:\program files (x86)\microsoft visual studio 9.0\vc\include\vector
;	COMDAT ?size@?$vector@UCityAndProduction@@V?$allocator@UCityAndProduction@@@std@@@std@@QBEIXZ
_TEXT	SEGMENT
?size@?$vector@UCityAndProduction@@V?$allocator@UCityAndProduction@@@std@@@std@@QBEIXZ PROC ; std::vector<CityAndProduction,std::allocator<CityAndProduction> >::size, COMDAT
; _this$ = ecx

; 726  : 		return (_Mylast - _Myfirst);

	mov	eax, DWORD PTR [ecx+8]
	sub	eax, DWORD PTR [ecx+4]
	sar	eax, 3

; 727  : 		}

	ret	0
?size@?$vector@UCityAndProduction@@V?$allocator@UCityAndProduction@@@std@@@std@@QBEIXZ ENDP ; std::vector<CityAndProduction,std::allocator<CityAndProduction> >::size
_TEXT	ENDS
PUBLIC	??A?$vector@UCityAndProduction@@V?$allocator@UCityAndProduction@@@std@@@std@@QAEAAUCityAndProduction@@I@Z ; std::vector<CityAndProduction,std::allocator<CityAndProduction> >::operator[]
; Function compile flags: /Ogtpy
;	COMDAT ??A?$vector@UCityAndProduction@@V?$allocator@UCityAndProduction@@@std@@@std@@QAEAAUCityAndProduction@@I@Z
_TEXT	SEGMENT
__Pos$ = 8						; size = 4
??A?$vector@UCityAndProduction@@V?$allocator@UCityAndProduction@@@std@@@std@@QAEAAUCityAndProduction@@I@Z PROC ; std::vector<CityAndProduction,std::allocator<CityAndProduction> >::operator[], COMDAT
; _this$ = ecx

; 775  : 
; 776  :  #if _HAS_ITERATOR_DEBUGGING
; 777  : 		if (size() <= _Pos)
; 778  : 			{
; 779  : 			_DEBUG_ERROR("vector subscript out of range");
; 780  : 			_SCL_SECURE_OUT_OF_RANGE;
; 781  : 			}
; 782  :  #endif /* _HAS_ITERATOR_DEBUGGING */
; 783  : 		_SCL_SECURE_VALIDATE_RANGE(_Pos < size());
; 784  : 
; 785  : 		return (*(_Myfirst + _Pos));

	mov	eax, DWORD PTR [ecx+4]
	mov	ecx, DWORD PTR __Pos$[esp-4]
	lea	eax, DWORD PTR [eax+ecx*8]

; 786  : 		}

	ret	4
??A?$vector@UCityAndProduction@@V?$allocator@UCityAndProduction@@@std@@@std@@QAEAAUCityAndProduction@@I@Z ENDP ; std::vector<CityAndProduction,std::allocator<CityAndProduction> >::operator[]
_TEXT	ENDS
PUBLIC	?addTarget@?$DestructionNotification@V?$FObjectHandle@VCvUnit@@@@@@QAEXABV?$FObjectHandle@VCvUnit@@@@@Z ; DestructionNotification<FObjectHandle<CvUnit> >::addTarget
; Function compile flags: /Ogtpy
; File c:\users\enormousapplepie\documents\github\lekmod\lekmod_dll\fireplace\include\fireworks\fobjecthandle.h
;	COMDAT ?addTarget@?$DestructionNotification@V?$FObjectHandle@VCvUnit@@@@@@QAEXABV?$FObjectHandle@VCvUnit@@@@@Z
_TEXT	SEGMENT
_target$ = 8						; size = 4
?addTarget@?$DestructionNotification@V?$FObjectHandle@VCvUnit@@@@@@QAEXABV?$FObjectHandle@VCvUnit@@@@@Z PROC ; DestructionNotification<FObjectHandle<CvUnit> >::addTarget, COMDAT
; _this$ = ecx

; 52   : #ifdef TRACK_DESTRUCTION_NOTIFICATION
; 53   : 		m_targets.insert(&target);
; 54   : #endif
; 55   : 	}

	ret	4
?addTarget@?$DestructionNotification@V?$FObjectHandle@VCvUnit@@@@@@QAEXABV?$FObjectHandle@VCvUnit@@@@@Z ENDP ; DestructionNotification<FObjectHandle<CvUnit> >::addTarget
_TEXT	ENDS
PUBLIC	?removeTarget@?$DestructionNotification@V?$FObjectHandle@VCvUnit@@@@@@QAEXABV?$FObjectHandle@VCvUnit@@@@@Z ; DestructionNotification<FObjectHandle<CvUnit> >::removeTarget
; Function compile flags: /Ogtpy
;	COMDAT ?removeTarget@?$DestructionNotification@V?$FObjectHandle@VCvUnit@@@@@@QAEXABV?$FObjectHandle@VCvUnit@@@@@Z
_TEXT	SEGMENT
_target$ = 8						; size = 4
?removeTarget@?$DestructionNotification@V?$FObjectHandle@VCvUnit@@@@@@QAEXABV?$FObjectHandle@VCvUnit@@@@@Z PROC ; DestructionNotification<FObjectHandle<CvUnit> >::removeTarget, COMDAT
; _this$ = ecx

; 63   : #ifdef TRACK_DESTRUCTION_NOTIFICATION
; 64   : 		m_targets.erase(&target);
; 65   : #endif
; 66   : 	}

	ret	4
?removeTarget@?$DestructionNotification@V?$FObjectHandle@VCvUnit@@@@@@QAEXABV?$FObjectHandle@VCvUnit@@@@@Z ENDP ; DestructionNotification<FObjectHandle<CvUnit> >::removeTarget
_TEXT	ENDS
PUBLIC	??0const_iterator@?$_Tree@V?$_Tmap_traits@HPAVCvAIOperation@@U?$less@H@std@@V?$allocator@U?$pair@$$CBHPAVCvAIOperation@@@std@@@3@$0A@@std@@@std@@QAE@XZ ; std::_Tree<std::_Tmap_traits<int,CvAIOperation *,std::less<int>,std::allocator<std::pair<int const ,CvAIOperation *> >,0> >::const_iterator::const_iterator
; Function compile flags: /Ogtpy
; File c:\program files (x86)\microsoft visual studio 9.0\vc\include\xtree
;	COMDAT ??0const_iterator@?$_Tree@V?$_Tmap_traits@HPAVCvAIOperation@@U?$less@H@std@@V?$allocator@U?$pair@$$CBHPAVCvAIOperation@@@std@@@3@$0A@@std@@@std@@QAE@XZ
_TEXT	SEGMENT
??0const_iterator@?$_Tree@V?$_Tmap_traits@HPAVCvAIOperation@@U?$less@H@std@@V?$allocator@U?$pair@$$CBHPAVCvAIOperation@@@std@@@3@$0A@@std@@@std@@QAE@XZ PROC ; std::_Tree<std::_Tmap_traits<int,CvAIOperation *,std::less<int>,std::allocator<std::pair<int const ,CvAIOperation *> >,0> >::const_iterator::const_iterator, COMDAT
; _this$ = ecx

; 217  : 			{	// construct with null node pointer

	mov	eax, ecx
	mov	DWORD PTR [eax], 0

; 218  : 			}

	ret	0
??0const_iterator@?$_Tree@V?$_Tmap_traits@HPAVCvAIOperation@@U?$less@H@std@@V?$allocator@U?$pair@$$CBHPAVCvAIOperation@@@std@@@3@$0A@@std@@@std@@QAE@XZ ENDP ; std::_Tree<std::_Tmap_traits<int,CvAIOperation *,std::less<int>,std::allocator<std::pair<int const ,CvAIOperation *> >,0> >::const_iterator::const_iterator
_TEXT	ENDS
PUBLIC	??8const_iterator@?$_Tree@V?$_Tmap_traits@HPAVCvAIOperation@@U?$less@H@std@@V?$allocator@U?$pair@$$CBHPAVCvAIOperation@@@std@@@3@$0A@@std@@@std@@QBE_NABV012@@Z ; std::_Tree<std::_Tmap_traits<int,CvAIOperation *,std::less<int>,std::allocator<std::pair<int const ,CvAIOperation *> >,0> >::const_iterator::operator==
; Function compile flags: /Ogtpy
;	COMDAT ??8const_iterator@?$_Tree@V?$_Tmap_traits@HPAVCvAIOperation@@U?$less@H@std@@V?$allocator@U?$pair@$$CBHPAVCvAIOperation@@@std@@@3@$0A@@std@@@std@@QBE_NABV012@@Z
_TEXT	SEGMENT
__Right$ = 8						; size = 4
??8const_iterator@?$_Tree@V?$_Tmap_traits@HPAVCvAIOperation@@U?$less@H@std@@V?$allocator@U?$pair@$$CBHPAVCvAIOperation@@@std@@@3@$0A@@std@@@std@@QBE_NABV012@@Z PROC ; std::_Tree<std::_Tmap_traits<int,CvAIOperation *,std::less<int>,std::allocator<std::pair<int const ,CvAIOperation *> >,0> >::const_iterator::operator==, COMDAT
; _this$ = ecx

; 300  : 
; 301  :  #if _HAS_ITERATOR_DEBUGGING
; 302  : 			if (this->_Mycont == 0 || this->_Mycont != _Right._Mycont)
; 303  : 				{
; 304  : 				_DEBUG_ERROR("map/set iterators incompatible");
; 305  : 				_SCL_SECURE_INVALID_ARGUMENT;
; 306  : 				}
; 307  :  #else
; 308  : 			_SCL_SECURE_VALIDATE(this->_Has_container() && this->_Same_container(_Right));
; 309  :  #endif /* _HAS_ITERATOR_DEBUGGING */
; 310  : 
; 311  : 			return (_Ptr == _Right._Ptr);

	mov	eax, DWORD PTR [ecx]
	mov	edx, DWORD PTR __Right$[esp-4]
	xor	ecx, ecx
	cmp	eax, DWORD PTR [edx]
	sete	cl
	mov	al, cl

; 312  : 			}

	ret	4
??8const_iterator@?$_Tree@V?$_Tmap_traits@HPAVCvAIOperation@@U?$less@H@std@@V?$allocator@U?$pair@$$CBHPAVCvAIOperation@@@std@@@3@$0A@@std@@@std@@QBE_NABV012@@Z ENDP ; std::_Tree<std::_Tmap_traits<int,CvAIOperation *,std::less<int>,std::allocator<std::pair<int const ,CvAIOperation *> >,0> >::const_iterator::operator==
_TEXT	ENDS
PUBLIC	?capacity@?$vector@UCityAndProduction@@V?$allocator@UCityAndProduction@@@std@@@std@@QBEIXZ ; std::vector<CityAndProduction,std::allocator<CityAndProduction> >::capacity
; Function compile flags: /Ogtpy
; File c:\program files (x86)\microsoft visual studio 9.0\vc\include\vector
;	COMDAT ?capacity@?$vector@UCityAndProduction@@V?$allocator@UCityAndProduction@@@std@@@std@@QBEIXZ
_TEXT	SEGMENT
?capacity@?$vector@UCityAndProduction@@V?$allocator@UCityAndProduction@@@std@@@std@@QBEIXZ PROC ; std::vector<CityAndProduction,std::allocator<CityAndProduction> >::capacity, COMDAT
; _this$ = ecx

; 635  : 		return (_Myfirst == 0 ? 0 : _Myend - _Myfirst);

	mov	edx, DWORD PTR [ecx+4]
	test	edx, edx
	jne	SHORT $LN3@capacity
	xor	eax, eax

; 636  : 		}

	ret	0
$LN3@capacity:

; 635  : 		return (_Myfirst == 0 ? 0 : _Myend - _Myfirst);

	mov	eax, DWORD PTR [ecx+12]
	sub	eax, edx
	sar	eax, 3

; 636  : 		}

	ret	0
?capacity@?$vector@UCityAndProduction@@V?$allocator@UCityAndProduction@@@std@@@std@@QBEIXZ ENDP ; std::vector<CityAndProduction,std::allocator<CityAndProduction> >::capacity
_TEXT	ENDS
PUBLIC	??1?$_Container_base_aux_alloc_empty@V?$allocator@UCityAndProduction@@@std@@@std@@IAE@XZ ; std::_Container_base_aux_alloc_empty<std::allocator<CityAndProduction> >::~_Container_base_aux_alloc_empty<std::allocator<CityAndProduction> >
; Function compile flags: /Ogtpy
; File c:\program files (x86)\microsoft visual studio 9.0\vc\include\xutility
;	COMDAT ??1?$_Container_base_aux_alloc_empty@V?$allocator@UCityAndProduction@@@std@@@std@@IAE@XZ
_TEXT	SEGMENT
??1?$_Container_base_aux_alloc_empty@V?$allocator@UCityAndProduction@@@std@@@std@@IAE@XZ PROC ; std::_Container_base_aux_alloc_empty<std::allocator<CityAndProduction> >::~_Container_base_aux_alloc_empty<std::allocator<CityAndProduction> >, COMDAT
; _this$ = ecx

; 627  : 	~_Container_base_aux_alloc_empty() { }

	ret	0
??1?$_Container_base_aux_alloc_empty@V?$allocator@UCityAndProduction@@@std@@@std@@IAE@XZ ENDP ; std::_Container_base_aux_alloc_empty<std::allocator<CityAndProduction> >::~_Container_base_aux_alloc_empty<std::allocator<CityAndProduction> >
_TEXT	ENDS
PUBLIC	??0?$allocator@UCityAndProduction@@@std@@QAE@XZ	; std::allocator<CityAndProduction>::allocator<CityAndProduction>
; Function compile flags: /Ogtpy
; File c:\program files (x86)\microsoft visual studio 9.0\vc\include\xmemory
;	COMDAT ??0?$allocator@UCityAndProduction@@@std@@QAE@XZ
_TEXT	SEGMENT
??0?$allocator@UCityAndProduction@@@std@@QAE@XZ PROC	; std::allocator<CityAndProduction>::allocator<CityAndProduction>, COMDAT
; _this$ = ecx

; 119  : 	allocator() _THROW0()

	mov	eax, ecx

; 120  : 		{	// construct default allocator (do nothing)
; 121  : 		}

	ret	0
??0?$allocator@UCityAndProduction@@@std@@QAE@XZ ENDP	; std::allocator<CityAndProduction>::allocator<CityAndProduction>
_TEXT	ENDS
PUBLIC	?_Left@?$_Tree@V?$_Tmap_traits@HPAVCvAIOperation@@U?$less@H@std@@V?$allocator@U?$pair@$$CBHPAVCvAIOperation@@@std@@@3@$0A@@std@@@std@@KAAAPAU_Node@?$_Tree_nod@V?$_Tmap_traits@HPAVCvAIOperation@@U?$less@H@std@@V?$allocator@U?$pair@$$CBHPAVCvAIOperation@@@std@@@3@$0A@@std@@@2@PAU342@@Z ; std::_Tree<std::_Tmap_traits<int,CvAIOperation *,std::less<int>,std::allocator<std::pair<int const ,CvAIOperation *> >,0> >::_Left
; Function compile flags: /Ogtpy
; File c:\program files (x86)\microsoft visual studio 9.0\vc\include\xtree
;	COMDAT ?_Left@?$_Tree@V?$_Tmap_traits@HPAVCvAIOperation@@U?$less@H@std@@V?$allocator@U?$pair@$$CBHPAVCvAIOperation@@@std@@@3@$0A@@std@@@std@@KAAAPAU_Node@?$_Tree_nod@V?$_Tmap_traits@HPAVCvAIOperation@@U?$less@H@std@@V?$allocator@U?$pair@$$CBHPAVCvAIOperation@@@std@@@3@$0A@@std@@@2@PAU342@@Z
_TEXT	SEGMENT
__Pnode$ = 8						; size = 4
?_Left@?$_Tree@V?$_Tmap_traits@HPAVCvAIOperation@@U?$less@H@std@@V?$allocator@U?$pair@$$CBHPAVCvAIOperation@@@std@@@3@$0A@@std@@@std@@KAAAPAU_Node@?$_Tree_nod@V?$_Tmap_traits@HPAVCvAIOperation@@U?$less@H@std@@V?$allocator@U?$pair@$$CBHPAVCvAIOperation@@@std@@@3@$0A@@std@@@2@PAU342@@Z PROC ; std::_Tree<std::_Tmap_traits<int,CvAIOperation *,std::less<int>,std::allocator<std::pair<int const ,CvAIOperation *> >,0> >::_Left, COMDAT

; 167  : 		return ((_Nodepref)(*_Pnode)._Left);

	mov	eax, DWORD PTR __Pnode$[esp-4]

; 168  : 		}

	ret	0
?_Left@?$_Tree@V?$_Tmap_traits@HPAVCvAIOperation@@U?$less@H@std@@V?$allocator@U?$pair@$$CBHPAVCvAIOperation@@@std@@@3@$0A@@std@@@std@@KAAAPAU_Node@?$_Tree_nod@V?$_Tmap_traits@HPAVCvAIOperation@@U?$less@H@std@@V?$allocator@U?$pair@$$CBHPAVCvAIOperation@@@std@@@3@$0A@@std@@@2@PAU342@@Z ENDP ; std::_Tree<std::_Tmap_traits<int,CvAIOperation *,std::less<int>,std::allocator<std::pair<int const ,CvAIOperation *> >,0> >::_Left
_TEXT	ENDS
PUBLIC	??0const_iterator@?$_Tree@V?$_Tmap_traits@HPAVCvAIOperation@@U?$less@H@std@@V?$allocator@U?$pair@$$CBHPAVCvAIOperation@@@std@@@3@$0A@@std@@@std@@QAE@PAU_Node@?$_Tree_nod@V?$_Tmap_traits@HPAVCvAIOperation@@U?$less@H@std@@V?$allocator@U?$pair@$$CBHPAVCvAIOperation@@@std@@@3@$0A@@std@@@2@@Z ; std::_Tree<std::_Tmap_traits<int,CvAIOperation *,std::less<int>,std::allocator<std::pair<int const ,CvAIOperation *> >,0> >::const_iterator::const_iterator
; Function compile flags: /Ogtpy
;	COMDAT ??0const_iterator@?$_Tree@V?$_Tmap_traits@HPAVCvAIOperation@@U?$less@H@std@@V?$allocator@U?$pair@$$CBHPAVCvAIOperation@@@std@@@3@$0A@@std@@@std@@QAE@PAU_Node@?$_Tree_nod@V?$_Tmap_traits@HPAVCvAIOperation@@U?$less@H@std@@V?$allocator@U?$pair@$$CBHPAVCvAIOperation@@@std@@@3@$0A@@std@@@2@@Z
_TEXT	SEGMENT
__Pnode$ = 8						; size = 4
??0const_iterator@?$_Tree@V?$_Tmap_traits@HPAVCvAIOperation@@U?$less@H@std@@V?$allocator@U?$pair@$$CBHPAVCvAIOperation@@@std@@@3@$0A@@std@@@std@@QAE@PAU_Node@?$_Tree_nod@V?$_Tmap_traits@HPAVCvAIOperation@@U?$less@H@std@@V?$allocator@U?$pair@$$CBHPAVCvAIOperation@@@std@@@3@$0A@@std@@@2@@Z PROC ; std::_Tree<std::_Tmap_traits<int,CvAIOperation *,std::less<int>,std::allocator<std::pair<int const ,CvAIOperation *> >,0> >::const_iterator::const_iterator, COMDAT
; _this$ = ecx

; 244  : 			{	// construct with node pointer _Pnode

	mov	eax, ecx
	mov	ecx, DWORD PTR __Pnode$[esp-4]
	mov	DWORD PTR [eax], ecx

; 245  : 			}

	ret	4
??0const_iterator@?$_Tree@V?$_Tmap_traits@HPAVCvAIOperation@@U?$less@H@std@@V?$allocator@U?$pair@$$CBHPAVCvAIOperation@@@std@@@3@$0A@@std@@@std@@QAE@PAU_Node@?$_Tree_nod@V?$_Tmap_traits@HPAVCvAIOperation@@U?$less@H@std@@V?$allocator@U?$pair@$$CBHPAVCvAIOperation@@@std@@@3@$0A@@std@@@2@@Z ENDP ; std::_Tree<std::_Tmap_traits<int,CvAIOperation *,std::less<int>,std::allocator<std::pair<int const ,CvAIOperation *> >,0> >::const_iterator::const_iterator
_TEXT	ENDS
PUBLIC	__TI3?AVlength_error@std@@
PUBLIC	??_C@_0BD@OLBABOEK@vector?$DMT?$DO?5too?5long?$AA@ ; `string'
PUBLIC	?_Xlen@?$vector@UCityAndProduction@@V?$allocator@UCityAndProduction@@@std@@@std@@KAXXZ ; std::vector<CityAndProduction,std::allocator<CityAndProduction> >::_Xlen
PUBLIC	__CTA3?AVlength_error@std@@
PUBLIC	__CT??_R0?AVlength_error@std@@@8??0length_error@std@@QAE@ABV01@@Z40
PUBLIC	??0length_error@std@@QAE@ABV01@@Z		; std::length_error::length_error
PUBLIC	__CT??_R0?AVlogic_error@std@@@8??0logic_error@std@@QAE@ABV01@@Z40
PUBLIC	??0logic_error@std@@QAE@ABV01@@Z		; std::logic_error::logic_error
PUBLIC	__CT??_R0?AVexception@std@@@8??0exception@std@@QAE@ABV01@@Z12
EXTRN	__imp_??0?$basic_string@DU?$char_traits@D@std@@V?$allocator@D@2@@std@@QAE@PBD@Z:PROC
EXTRN	__CxxThrowException@8:PROC
EXTRN	??0exception@std@@QAE@ABV01@@Z:PROC		; std::exception::exception
;	COMDAT __CT??_R0?AVexception@std@@@8??0exception@std@@QAE@ABV01@@Z12
; File c:\program files (x86)\microsoft visual studio 9.0\vc\include\stdexcept
xdata$x	SEGMENT
__CT??_R0?AVexception@std@@@8??0exception@std@@QAE@ABV01@@Z12 DD 00H
	DD	FLAT:??_R0?AVexception@std@@@8
	DD	00H
	DD	0ffffffffH
	ORG $+4
	DD	0cH
	DD	FLAT:??0exception@std@@QAE@ABV01@@Z
xdata$x	ENDS
;	COMDAT __CT??_R0?AVlogic_error@std@@@8??0logic_error@std@@QAE@ABV01@@Z40
xdata$x	SEGMENT
__CT??_R0?AVlogic_error@std@@@8??0logic_error@std@@QAE@ABV01@@Z40 DD 00H
	DD	FLAT:??_R0?AVlogic_error@std@@@8
	DD	00H
	DD	0ffffffffH
	ORG $+4
	DD	028H
	DD	FLAT:??0logic_error@std@@QAE@ABV01@@Z
xdata$x	ENDS
;	COMDAT __CT??_R0?AVlength_error@std@@@8??0length_error@std@@QAE@ABV01@@Z40
xdata$x	SEGMENT
__CT??_R0?AVlength_error@std@@@8??0length_error@std@@QAE@ABV01@@Z40 DD 00H
	DD	FLAT:??_R0?AVlength_error@std@@@8
	DD	00H
	DD	0ffffffffH
	ORG $+4
	DD	028H
	DD	FLAT:??0length_error@std@@QAE@ABV01@@Z
xdata$x	ENDS
;	COMDAT __CTA3?AVlength_error@std@@
xdata$x	SEGMENT
__CTA3?AVlength_error@std@@ DD 03H
	DD	FLAT:__CT??_R0?AVlength_error@std@@@8??0length_error@std@@QAE@ABV01@@Z40
	DD	FLAT:__CT??_R0?AVlogic_error@std@@@8??0logic_error@std@@QAE@ABV01@@Z40
	DD	FLAT:__CT??_R0?AVexception@std@@@8??0exception@std@@QAE@ABV01@@Z12
xdata$x	ENDS
;	COMDAT __TI3?AVlength_error@std@@
xdata$x	SEGMENT
__TI3?AVlength_error@std@@ DD 00H
	DD	FLAT:??1length_error@std@@UAE@XZ
	DD	00H
	DD	FLAT:__CTA3?AVlength_error@std@@
xdata$x	ENDS
;	COMDAT ??_C@_0BD@OLBABOEK@vector?$DMT?$DO?5too?5long?$AA@
CONST	SEGMENT
??_C@_0BD@OLBABOEK@vector?$DMT?$DO?5too?5long?$AA@ DB 'vector<T> too long'
	DB	00H						; `string'
CONST	ENDS
;	COMDAT xdata$x
xdata$x	SEGMENT
__unwindtable$?_Xlen@?$vector@UCityAndProduction@@V?$allocator@UCityAndProduction@@@std@@@std@@KAXXZ DD 0ffffffffH
	DD	FLAT:__unwindfunclet$?_Xlen@?$vector@UCityAndProduction@@V?$allocator@UCityAndProduction@@@std@@@std@@KAXXZ$0
	DD	00H
	DD	FLAT:__unwindfunclet$?_Xlen@?$vector@UCityAndProduction@@V?$allocator@UCityAndProduction@@@std@@@std@@KAXXZ$2
__ehfuncinfo$?_Xlen@?$vector@UCityAndProduction@@V?$allocator@UCityAndProduction@@@std@@@std@@KAXXZ DD 019930522H
	DD	02H
	DD	FLAT:__unwindtable$?_Xlen@?$vector@UCityAndProduction@@V?$allocator@UCityAndProduction@@@std@@@std@@KAXXZ
	DD	2 DUP(00H)
	DD	2 DUP(00H)
	DD	00H
	DD	01H
; Function compile flags: /Ogtpy
; File c:\program files (x86)\microsoft visual studio 9.0\vc\include\vector
xdata$x	ENDS
;	COMDAT ?_Xlen@?$vector@UCityAndProduction@@V?$allocator@UCityAndProduction@@@std@@@std@@KAXXZ
_TEXT	SEGMENT
$T230046 = -80						; size = 28
$T230045 = -52						; size = 40
__$EHRec$ = -12						; size = 12
?_Xlen@?$vector@UCityAndProduction@@V?$allocator@UCityAndProduction@@@std@@@std@@KAXXZ PROC ; std::vector<CityAndProduction,std::allocator<CityAndProduction> >::_Xlen, COMDAT

; 1259 : 		{	// report a length_error

	push	-1
	push	__ehhandler$?_Xlen@?$vector@UCityAndProduction@@V?$allocator@UCityAndProduction@@@std@@@std@@KAXXZ
	mov	eax, DWORD PTR fs:0
	push	eax
	mov	DWORD PTR fs:0, esp
	sub	esp, 68					; 00000044H

; 1260 : 		_THROW(length_error, "vector<T> too long");

	push	OFFSET ??_C@_0BD@OLBABOEK@vector?$DMT?$DO?5too?5long?$AA@
	lea	ecx, DWORD PTR $T230046[esp+84]
	call	DWORD PTR __imp_??0?$basic_string@DU?$char_traits@D@std@@V?$allocator@D@2@@std@@QAE@PBD@Z
	lea	ecx, DWORD PTR $T230045[esp+80]
	mov	DWORD PTR __$EHRec$[esp+88], 0
	call	DWORD PTR __imp_??0exception@std@@QAE@XZ
	lea	eax, DWORD PTR $T230046[esp+80]
	push	eax
	lea	ecx, DWORD PTR $T230045[esp+96]
	mov	BYTE PTR __$EHRec$[esp+92], 1
	mov	DWORD PTR $T230045[esp+84], OFFSET ??_7logic_error@std@@6B@
	call	DWORD PTR __imp_??0?$basic_string@DU?$char_traits@D@std@@V?$allocator@D@2@@std@@QAE@ABV01@@Z
	push	OFFSET __TI3?AVlength_error@std@@
	lea	ecx, DWORD PTR $T230045[esp+84]
	push	ecx
	mov	BYTE PTR __$EHRec$[esp+96], 0
	mov	DWORD PTR $T230045[esp+88], OFFSET ??_7length_error@std@@6B@
	call	__CxxThrowException@8
$LN13@Xlen:
$LN12@Xlen:
	int	3
_TEXT	ENDS
;	COMDAT text$x
text$x	SEGMENT
__unwindfunclet$?_Xlen@?$vector@UCityAndProduction@@V?$allocator@UCityAndProduction@@@std@@@std@@KAXXZ$0:
	lea	ecx, DWORD PTR $T230046[ebp]
	jmp	DWORD PTR __imp_??1?$basic_string@DU?$char_traits@D@std@@V?$allocator@D@2@@std@@QAE@XZ
__unwindfunclet$?_Xlen@?$vector@UCityAndProduction@@V?$allocator@UCityAndProduction@@@std@@@std@@KAXXZ$2:
	lea	ecx, DWORD PTR $T230045[ebp]
	jmp	DWORD PTR __imp_??1exception@std@@UAE@XZ
__ehhandler$?_Xlen@?$vector@UCityAndProduction@@V?$allocator@UCityAndProduction@@@std@@@std@@KAXXZ:
	mov	eax, OFFSET __ehfuncinfo$?_Xlen@?$vector@UCityAndProduction@@V?$allocator@UCityAndProduction@@@std@@@std@@KAXXZ
	jmp	___CxxFrameHandler3
text$x	ENDS
?_Xlen@?$vector@UCityAndProduction@@V?$allocator@UCityAndProduction@@@std@@@std@@KAXXZ ENDP ; std::vector<CityAndProduction,std::allocator<CityAndProduction> >::_Xlen
PUBLIC	??0?$_Container_base_aux_alloc_empty@V?$allocator@UCityAndProduction@@@std@@@std@@IAE@V?$allocator@UCityAndProduction@@@1@@Z ; std::_Container_base_aux_alloc_empty<std::allocator<CityAndProduction> >::_Container_base_aux_alloc_empty<std::allocator<CityAndProduction> >
; Function compile flags: /Ogtpy
; File c:\program files (x86)\microsoft visual studio 9.0\vc\include\xutility
;	COMDAT ??0?$_Container_base_aux_alloc_empty@V?$allocator@UCityAndProduction@@@std@@@std@@IAE@V?$allocator@UCityAndProduction@@@1@@Z
_TEXT	SEGMENT
___formal$ = 8						; size = 1
??0?$_Container_base_aux_alloc_empty@V?$allocator@UCityAndProduction@@@std@@@std@@IAE@V?$allocator@UCityAndProduction@@@1@@Z PROC ; std::_Container_base_aux_alloc_empty<std::allocator<CityAndProduction> >::_Container_base_aux_alloc_empty<std::allocator<CityAndProduction> >, COMDAT
; _this$ = ecx

; 618  : 	explicit _Container_base_aux_alloc_empty(_Alloc) { }

	mov	eax, ecx
	ret	4
??0?$_Container_base_aux_alloc_empty@V?$allocator@UCityAndProduction@@@std@@@std@@IAE@V?$allocator@UCityAndProduction@@@1@@Z ENDP ; std::_Container_base_aux_alloc_empty<std::allocator<CityAndProduction> >::_Container_base_aux_alloc_empty<std::allocator<CityAndProduction> >
_TEXT	ENDS
PUBLIC	??0?$allocator@UCityAndProduction@@@std@@QAE@ABV01@@Z ; std::allocator<CityAndProduction>::allocator<CityAndProduction>
; Function compile flags: /Ogtpy
; File c:\program files (x86)\microsoft visual studio 9.0\vc\include\xmemory
;	COMDAT ??0?$allocator@UCityAndProduction@@@std@@QAE@ABV01@@Z
_TEXT	SEGMENT
___formal$ = 8						; size = 4
??0?$allocator@UCityAndProduction@@@std@@QAE@ABV01@@Z PROC ; std::allocator<CityAndProduction>::allocator<CityAndProduction>, COMDAT
; _this$ = ecx

; 123  : 	allocator(const allocator<_Ty>&) _THROW0()

	mov	eax, ecx

; 124  : 		{	// construct by copying (do nothing)
; 125  : 		}

	ret	4
??0?$allocator@UCityAndProduction@@@std@@QAE@ABV01@@Z ENDP ; std::allocator<CityAndProduction>::allocator<CityAndProduction>
_TEXT	ENDS
PUBLIC	?deallocate@?$allocator@UCityAndProduction@@@std@@QAEXPAUCityAndProduction@@I@Z ; std::allocator<CityAndProduction>::deallocate
; Function compile flags: /Ogtpy
;	COMDAT ?deallocate@?$allocator@UCityAndProduction@@@std@@QAEXPAUCityAndProduction@@I@Z
_TEXT	SEGMENT
__Ptr$ = 8						; size = 4
___formal$ = 12						; size = 4
?deallocate@?$allocator@UCityAndProduction@@@std@@QAEXPAUCityAndProduction@@I@Z PROC ; std::allocator<CityAndProduction>::deallocate, COMDAT
; _this$ = ecx

; 140  : 		::operator delete(_Ptr);

	mov	eax, DWORD PTR __Ptr$[esp-4]
	push	eax
	call	??3@YAXPAX@Z				; operator delete
	pop	ecx

; 141  : 		}

	ret	8
?deallocate@?$allocator@UCityAndProduction@@@std@@QAEXPAUCityAndProduction@@I@Z ENDP ; std::allocator<CityAndProduction>::deallocate
_TEXT	ENDS
PUBLIC	??0?$_Vector_const_iterator@UCityAndProduction@@V?$allocator@UCityAndProduction@@@std@@@std@@QAE@PAUCityAndProduction@@@Z ; std::_Vector_const_iterator<CityAndProduction,std::allocator<CityAndProduction> >::_Vector_const_iterator<CityAndProduction,std::allocator<CityAndProduction> >
; Function compile flags: /Ogtpy
; File c:\program files (x86)\microsoft visual studio 9.0\vc\include\vector
;	COMDAT ??0?$_Vector_const_iterator@UCityAndProduction@@V?$allocator@UCityAndProduction@@@std@@@std@@QAE@PAUCityAndProduction@@@Z
_TEXT	SEGMENT
__Ptr$ = 8						; size = 4
??0?$_Vector_const_iterator@UCityAndProduction@@V?$allocator@UCityAndProduction@@@std@@@std@@QAE@PAUCityAndProduction@@@Z PROC ; std::_Vector_const_iterator<CityAndProduction,std::allocator<CityAndProduction> >::_Vector_const_iterator<CityAndProduction,std::allocator<CityAndProduction> >, COMDAT
; _this$ = ecx

; 84   : 	explicit _Vector_const_iterator(_Tptr _Ptr)

	mov	eax, ecx

; 85   : 		{	// construct with pointer _Ptr
; 86   : 		_Myptr = _Ptr;

	mov	ecx, DWORD PTR __Ptr$[esp-4]
	mov	DWORD PTR [eax], ecx

; 87   : 		}

	ret	4
??0?$_Vector_const_iterator@UCityAndProduction@@V?$allocator@UCityAndProduction@@@std@@@std@@QAE@PAUCityAndProduction@@@Z ENDP ; std::_Vector_const_iterator<CityAndProduction,std::allocator<CityAndProduction> >::_Vector_const_iterator<CityAndProduction,std::allocator<CityAndProduction> >
_TEXT	ENDS
PUBLIC	??G?$_Vector_const_iterator@UCityAndProduction@@V?$allocator@UCityAndProduction@@@std@@@std@@QBEHABV01@@Z ; std::_Vector_const_iterator<CityAndProduction,std::allocator<CityAndProduction> >::operator-
; Function compile flags: /Ogtpy
;	COMDAT ??G?$_Vector_const_iterator@UCityAndProduction@@V?$allocator@UCityAndProduction@@@std@@@std@@QBEHABV01@@Z
_TEXT	SEGMENT
__Right$ = 8						; size = 4
??G?$_Vector_const_iterator@UCityAndProduction@@V?$allocator@UCityAndProduction@@@std@@@std@@QBEHABV01@@Z PROC ; std::_Vector_const_iterator<CityAndProduction,std::allocator<CityAndProduction> >::operator-, COMDAT
; _this$ = ecx

; 187  : 
; 188  :  #if _HAS_ITERATOR_DEBUGGING
; 189  : 		_Compat(_Right);
; 190  :  #else
; 191  : 		_SCL_SECURE_VALIDATE(this->_Has_container() && this->_Same_container(_Right));
; 192  :  #endif /* _HAS_ITERATOR_DEBUGGING */
; 193  : 
; 194  : 		return (_Myptr - _Right._Myptr);

	mov	eax, DWORD PTR [ecx]
	mov	ecx, DWORD PTR __Right$[esp-4]
	sub	eax, DWORD PTR [ecx]
	sar	eax, 3

; 195  : 		}

	ret	4
??G?$_Vector_const_iterator@UCityAndProduction@@V?$allocator@UCityAndProduction@@@std@@@std@@QBEHABV01@@Z ENDP ; std::_Vector_const_iterator<CityAndProduction,std::allocator<CityAndProduction> >::operator-
_TEXT	ENDS
PUBLIC	?_Isnil@?$_Tree@V?$_Tmap_traits@HPAVCvAIOperation@@U?$less@H@std@@V?$allocator@U?$pair@$$CBHPAVCvAIOperation@@@std@@@3@$0A@@std@@@std@@KAAADPAU_Node@?$_Tree_nod@V?$_Tmap_traits@HPAVCvAIOperation@@U?$less@H@std@@V?$allocator@U?$pair@$$CBHPAVCvAIOperation@@@std@@@3@$0A@@std@@@2@@Z ; std::_Tree<std::_Tmap_traits<int,CvAIOperation *,std::less<int>,std::allocator<std::pair<int const ,CvAIOperation *> >,0> >::_Isnil
; Function compile flags: /Ogtpy
; File c:\program files (x86)\microsoft visual studio 9.0\vc\include\xtree
;	COMDAT ?_Isnil@?$_Tree@V?$_Tmap_traits@HPAVCvAIOperation@@U?$less@H@std@@V?$allocator@U?$pair@$$CBHPAVCvAIOperation@@@std@@@3@$0A@@std@@@std@@KAAADPAU_Node@?$_Tree_nod@V?$_Tmap_traits@HPAVCvAIOperation@@U?$less@H@std@@V?$allocator@U?$pair@$$CBHPAVCvAIOperation@@@std@@@3@$0A@@std@@@2@@Z
_TEXT	SEGMENT
__Pnode$ = 8						; size = 4
?_Isnil@?$_Tree@V?$_Tmap_traits@HPAVCvAIOperation@@U?$less@H@std@@V?$allocator@U?$pair@$$CBHPAVCvAIOperation@@@std@@@3@$0A@@std@@@std@@KAAADPAU_Node@?$_Tree_nod@V?$_Tmap_traits@HPAVCvAIOperation@@U?$less@H@std@@V?$allocator@U?$pair@$$CBHPAVCvAIOperation@@@std@@@3@$0A@@std@@@2@@Z PROC ; std::_Tree<std::_Tmap_traits<int,CvAIOperation *,std::less<int>,std::allocator<std::pair<int const ,CvAIOperation *> >,0> >::_Isnil, COMDAT

; 157  : 		return ((_Charref)(*_Pnode)._Isnil);

	mov	eax, DWORD PTR __Pnode$[esp-4]
	add	eax, 21					; 00000015H

; 158  : 		}

	ret	0
?_Isnil@?$_Tree@V?$_Tmap_traits@HPAVCvAIOperation@@U?$less@H@std@@V?$allocator@U?$pair@$$CBHPAVCvAIOperation@@@std@@@3@$0A@@std@@@std@@KAAADPAU_Node@?$_Tree_nod@V?$_Tmap_traits@HPAVCvAIOperation@@U?$less@H@std@@V?$allocator@U?$pair@$$CBHPAVCvAIOperation@@@std@@@3@$0A@@std@@@2@@Z ENDP ; std::_Tree<std::_Tmap_traits<int,CvAIOperation *,std::less<int>,std::allocator<std::pair<int const ,CvAIOperation *> >,0> >::_Isnil
_TEXT	ENDS
PUBLIC	?_Parent@?$_Tree@V?$_Tmap_traits@HPAVCvAIOperation@@U?$less@H@std@@V?$allocator@U?$pair@$$CBHPAVCvAIOperation@@@std@@@3@$0A@@std@@@std@@KAAAPAU_Node@?$_Tree_nod@V?$_Tmap_traits@HPAVCvAIOperation@@U?$less@H@std@@V?$allocator@U?$pair@$$CBHPAVCvAIOperation@@@std@@@3@$0A@@std@@@2@PAU342@@Z ; std::_Tree<std::_Tmap_traits<int,CvAIOperation *,std::less<int>,std::allocator<std::pair<int const ,CvAIOperation *> >,0> >::_Parent
; Function compile flags: /Ogtpy
;	COMDAT ?_Parent@?$_Tree@V?$_Tmap_traits@HPAVCvAIOperation@@U?$less@H@std@@V?$allocator@U?$pair@$$CBHPAVCvAIOperation@@@std@@@3@$0A@@std@@@std@@KAAAPAU_Node@?$_Tree_nod@V?$_Tmap_traits@HPAVCvAIOperation@@U?$less@H@std@@V?$allocator@U?$pair@$$CBHPAVCvAIOperation@@@std@@@3@$0A@@std@@@2@PAU342@@Z
_TEXT	SEGMENT
__Pnode$ = 8						; size = 4
?_Parent@?$_Tree@V?$_Tmap_traits@HPAVCvAIOperation@@U?$less@H@std@@V?$allocator@U?$pair@$$CBHPAVCvAIOperation@@@std@@@3@$0A@@std@@@std@@KAAAPAU_Node@?$_Tree_nod@V?$_Tmap_traits@HPAVCvAIOperation@@U?$less@H@std@@V?$allocator@U?$pair@$$CBHPAVCvAIOperation@@@std@@@3@$0A@@std@@@2@PAU342@@Z PROC ; std::_Tree<std::_Tmap_traits<int,CvAIOperation *,std::less<int>,std::allocator<std::pair<int const ,CvAIOperation *> >,0> >::_Parent, COMDAT

; 172  : 		return ((_Nodepref)(*_Pnode)._Parent);

	mov	eax, DWORD PTR __Pnode$[esp-4]
	add	eax, 4

; 173  : 		}

	ret	0
?_Parent@?$_Tree@V?$_Tmap_traits@HPAVCvAIOperation@@U?$less@H@std@@V?$allocator@U?$pair@$$CBHPAVCvAIOperation@@@std@@@3@$0A@@std@@@std@@KAAAPAU_Node@?$_Tree_nod@V?$_Tmap_traits@HPAVCvAIOperation@@U?$less@H@std@@V?$allocator@U?$pair@$$CBHPAVCvAIOperation@@@std@@@3@$0A@@std@@@2@PAU342@@Z ENDP ; std::_Tree<std::_Tmap_traits<int,CvAIOperation *,std::less<int>,std::allocator<std::pair<int const ,CvAIOperation *> >,0> >::_Parent
_TEXT	ENDS
PUBLIC	?_Right@?$_Tree@V?$_Tmap_traits@HPAVCvAIOperation@@U?$less@H@std@@V?$allocator@U?$pair@$$CBHPAVCvAIOperation@@@std@@@3@$0A@@std@@@std@@KAAAPAU_Node@?$_Tree_nod@V?$_Tmap_traits@HPAVCvAIOperation@@U?$less@H@std@@V?$allocator@U?$pair@$$CBHPAVCvAIOperation@@@std@@@3@$0A@@std@@@2@PAU342@@Z ; std::_Tree<std::_Tmap_traits<int,CvAIOperation *,std::less<int>,std::allocator<std::pair<int const ,CvAIOperation *> >,0> >::_Right
; Function compile flags: /Ogtpy
;	COMDAT ?_Right@?$_Tree@V?$_Tmap_traits@HPAVCvAIOperation@@U?$less@H@std@@V?$allocator@U?$pair@$$CBHPAVCvAIOperation@@@std@@@3@$0A@@std@@@std@@KAAAPAU_Node@?$_Tree_nod@V?$_Tmap_traits@HPAVCvAIOperation@@U?$less@H@std@@V?$allocator@U?$pair@$$CBHPAVCvAIOperation@@@std@@@3@$0A@@std@@@2@PAU342@@Z
_TEXT	SEGMENT
__Pnode$ = 8						; size = 4
?_Right@?$_Tree@V?$_Tmap_traits@HPAVCvAIOperation@@U?$less@H@std@@V?$allocator@U?$pair@$$CBHPAVCvAIOperation@@@std@@@3@$0A@@std@@@std@@KAAAPAU_Node@?$_Tree_nod@V?$_Tmap_traits@HPAVCvAIOperation@@U?$less@H@std@@V?$allocator@U?$pair@$$CBHPAVCvAIOperation@@@std@@@3@$0A@@std@@@2@PAU342@@Z PROC ; std::_Tree<std::_Tmap_traits<int,CvAIOperation *,std::less<int>,std::allocator<std::pair<int const ,CvAIOperation *> >,0> >::_Right, COMDAT

; 177  : 		return ((_Nodepref)(*_Pnode)._Right);

	mov	eax, DWORD PTR __Pnode$[esp-4]
	add	eax, 8

; 178  : 		}

	ret	0
?_Right@?$_Tree@V?$_Tmap_traits@HPAVCvAIOperation@@U?$less@H@std@@V?$allocator@U?$pair@$$CBHPAVCvAIOperation@@@std@@@3@$0A@@std@@@std@@KAAAPAU_Node@?$_Tree_nod@V?$_Tmap_traits@HPAVCvAIOperation@@U?$less@H@std@@V?$allocator@U?$pair@$$CBHPAVCvAIOperation@@@std@@@3@$0A@@std@@@2@PAU342@@Z ENDP ; std::_Tree<std::_Tmap_traits<int,CvAIOperation *,std::less<int>,std::allocator<std::pair<int const ,CvAIOperation *> >,0> >::_Right
_TEXT	ENDS
PUBLIC	?_Myval@?$_Tree@V?$_Tmap_traits@HPAVCvAIOperation@@U?$less@H@std@@V?$allocator@U?$pair@$$CBHPAVCvAIOperation@@@std@@@3@$0A@@std@@@std@@KAAAU?$pair@$$CBHPAVCvAIOperation@@@2@PAU_Node@?$_Tree_nod@V?$_Tmap_traits@HPAVCvAIOperation@@U?$less@H@std@@V?$allocator@U?$pair@$$CBHPAVCvAIOperation@@@std@@@3@$0A@@std@@@2@@Z ; std::_Tree<std::_Tmap_traits<int,CvAIOperation *,std::less<int>,std::allocator<std::pair<int const ,CvAIOperation *> >,0> >::_Myval
; Function compile flags: /Ogtpy
;	COMDAT ?_Myval@?$_Tree@V?$_Tmap_traits@HPAVCvAIOperation@@U?$less@H@std@@V?$allocator@U?$pair@$$CBHPAVCvAIOperation@@@std@@@3@$0A@@std@@@std@@KAAAU?$pair@$$CBHPAVCvAIOperation@@@2@PAU_Node@?$_Tree_nod@V?$_Tmap_traits@HPAVCvAIOperation@@U?$less@H@std@@V?$allocator@U?$pair@$$CBHPAVCvAIOperation@@@std@@@3@$0A@@std@@@2@@Z
_TEXT	SEGMENT
__Pnode$ = 8						; size = 4
?_Myval@?$_Tree@V?$_Tmap_traits@HPAVCvAIOperation@@U?$less@H@std@@V?$allocator@U?$pair@$$CBHPAVCvAIOperation@@@std@@@3@$0A@@std@@@std@@KAAAU?$pair@$$CBHPAVCvAIOperation@@@2@PAU_Node@?$_Tree_nod@V?$_Tmap_traits@HPAVCvAIOperation@@U?$less@H@std@@V?$allocator@U?$pair@$$CBHPAVCvAIOperation@@@std@@@3@$0A@@std@@@2@@Z PROC ; std::_Tree<std::_Tmap_traits<int,CvAIOperation *,std::less<int>,std::allocator<std::pair<int const ,CvAIOperation *> >,0> >::_Myval, COMDAT

; 182  : 		return ((_Vref)(*_Pnode)._Myval);

	mov	eax, DWORD PTR __Pnode$[esp-4]
	add	eax, 12					; 0000000cH

; 183  : 		}

	ret	0
?_Myval@?$_Tree@V?$_Tmap_traits@HPAVCvAIOperation@@U?$less@H@std@@V?$allocator@U?$pair@$$CBHPAVCvAIOperation@@@std@@@3@$0A@@std@@@std@@KAAAU?$pair@$$CBHPAVCvAIOperation@@@2@PAU_Node@?$_Tree_nod@V?$_Tmap_traits@HPAVCvAIOperation@@U?$less@H@std@@V?$allocator@U?$pair@$$CBHPAVCvAIOperation@@@std@@@3@$0A@@std@@@2@@Z ENDP ; std::_Tree<std::_Tmap_traits<int,CvAIOperation *,std::less<int>,std::allocator<std::pair<int const ,CvAIOperation *> >,0> >::_Myval
_TEXT	ENDS
PUBLIC	?_Min@?$_Tree@V?$_Tmap_traits@HPAVCvAIOperation@@U?$less@H@std@@V?$allocator@U?$pair@$$CBHPAVCvAIOperation@@@std@@@3@$0A@@std@@@std@@KAPAU_Node@?$_Tree_nod@V?$_Tmap_traits@HPAVCvAIOperation@@U?$less@H@std@@V?$allocator@U?$pair@$$CBHPAVCvAIOperation@@@std@@@3@$0A@@std@@@2@PAU342@@Z ; std::_Tree<std::_Tmap_traits<int,CvAIOperation *,std::less<int>,std::allocator<std::pair<int const ,CvAIOperation *> >,0> >::_Min
; Function compile flags: /Ogtpy
;	COMDAT ?_Min@?$_Tree@V?$_Tmap_traits@HPAVCvAIOperation@@U?$less@H@std@@V?$allocator@U?$pair@$$CBHPAVCvAIOperation@@@std@@@3@$0A@@std@@@std@@KAPAU_Node@?$_Tree_nod@V?$_Tmap_traits@HPAVCvAIOperation@@U?$less@H@std@@V?$allocator@U?$pair@$$CBHPAVCvAIOperation@@@std@@@3@$0A@@std@@@2@PAU342@@Z
_TEXT	SEGMENT
__Pnode$ = 8						; size = 4
?_Min@?$_Tree@V?$_Tmap_traits@HPAVCvAIOperation@@U?$less@H@std@@V?$allocator@U?$pair@$$CBHPAVCvAIOperation@@@std@@@3@$0A@@std@@@std@@KAPAU_Node@?$_Tree_nod@V?$_Tmap_traits@HPAVCvAIOperation@@U?$less@H@std@@V?$allocator@U?$pair@$$CBHPAVCvAIOperation@@@std@@@3@$0A@@std@@@2@PAU342@@Z PROC ; std::_Tree<std::_Tmap_traits<int,CvAIOperation *,std::less<int>,std::allocator<std::pair<int const ,CvAIOperation *> >,0> >::_Min, COMDAT

; 1313 : 		while (!_Isnil(_Left(_Pnode)))

	mov	eax, DWORD PTR __Pnode$[esp-4]
	mov	ecx, DWORD PTR [eax]
	cmp	BYTE PTR [ecx+21], 0
	jne	SHORT $LN1@Min
	npad	4
$LL2@Min:

; 1314 : 			_Pnode = _Left(_Pnode);

	mov	eax, ecx
	mov	ecx, DWORD PTR [eax]
	cmp	BYTE PTR [ecx+21], 0
	je	SHORT $LL2@Min
$LN1@Min:

; 1315 : 		return (_Pnode);
; 1316 : 		}

	ret	0
?_Min@?$_Tree@V?$_Tmap_traits@HPAVCvAIOperation@@U?$less@H@std@@V?$allocator@U?$pair@$$CBHPAVCvAIOperation@@@std@@@3@$0A@@std@@@std@@KAPAU_Node@?$_Tree_nod@V?$_Tmap_traits@HPAVCvAIOperation@@U?$less@H@std@@V?$allocator@U?$pair@$$CBHPAVCvAIOperation@@@std@@@3@$0A@@std@@@2@PAU342@@Z ENDP ; std::_Tree<std::_Tmap_traits<int,CvAIOperation *,std::less<int>,std::allocator<std::pair<int const ,CvAIOperation *> >,0> >::_Min
_TEXT	ENDS
PUBLIC	?max_size@?$allocator@UCityAndProduction@@@std@@QBEIXZ ; std::allocator<CityAndProduction>::max_size
; Function compile flags: /Ogtpy
; File c:\program files (x86)\microsoft visual studio 9.0\vc\include\xmemory
;	COMDAT ?max_size@?$allocator@UCityAndProduction@@@std@@QBEIXZ
_TEXT	SEGMENT
?max_size@?$allocator@UCityAndProduction@@@std@@QBEIXZ PROC ; std::allocator<CityAndProduction>::max_size, COMDAT
; _this$ = ecx

; 165  : 		_SIZT _Count = (_SIZT)(-1) / sizeof (_Ty);
; 166  : 		return (0 < _Count ? _Count : 1);

	mov	eax, 536870911				; 1fffffffH

; 167  : 		}

	ret	0
?max_size@?$allocator@UCityAndProduction@@@std@@QBEIXZ ENDP ; std::allocator<CityAndProduction>::max_size
_TEXT	ENDS
PUBLIC	??Y?$_Vector_const_iterator@UCityAndProduction@@V?$allocator@UCityAndProduction@@@std@@@std@@QAEAAV01@H@Z ; std::_Vector_const_iterator<CityAndProduction,std::allocator<CityAndProduction> >::operator+=
; Function compile flags: /Ogtpy
; File c:\program files (x86)\microsoft visual studio 9.0\vc\include\vector
;	COMDAT ??Y?$_Vector_const_iterator@UCityAndProduction@@V?$allocator@UCityAndProduction@@@std@@@std@@QAEAAV01@H@Z
_TEXT	SEGMENT
__Off$ = 8						; size = 4
??Y?$_Vector_const_iterator@UCityAndProduction@@V?$allocator@UCityAndProduction@@@std@@@std@@QAEAAV01@H@Z PROC ; std::_Vector_const_iterator<CityAndProduction,std::allocator<CityAndProduction> >::operator+=, COMDAT
; _this$ = ecx

; 159  : 		{	// increment by integer

	mov	eax, ecx

; 160  : 		_SCL_SECURE_VALIDATE(this->_Has_container());
; 161  : 		_SCL_SECURE_VALIDATE_RANGE(
; 162  : 			_Myptr + _Off <= ((_Myvec *)(this->_Getmycont()))->_Mylast &&
; 163  : 			_Myptr + _Off >= ((_Myvec *)(this->_Getmycont()))->_Myfirst);
; 164  : 		_Myptr += _Off;

	mov	ecx, DWORD PTR __Off$[esp-4]
	lea	edx, DWORD PTR [ecx*8]
	add	DWORD PTR [eax], edx

; 165  : 		return (*this);
; 166  : 		}

	ret	4
??Y?$_Vector_const_iterator@UCityAndProduction@@V?$allocator@UCityAndProduction@@@std@@@std@@QAEAAV01@H@Z ENDP ; std::_Vector_const_iterator<CityAndProduction,std::allocator<CityAndProduction> >::operator+=
_TEXT	ENDS
PUBLIC	??$max@H@std@@YAABHABH0@Z			; std::max<int>
; Function compile flags: /Ogtpy
; File c:\program files (x86)\microsoft visual studio 9.0\vc\include\xutility
;	COMDAT ??$max@H@std@@YAABHABH0@Z
_TEXT	SEGMENT
__Left$ = 8						; size = 4
__Right$ = 12						; size = 4
??$max@H@std@@YAABHABH0@Z PROC				; std::max<int>, COMDAT

; 3384 : 	return (_DEBUG_LT(_Left, _Right) ? _Right : _Left);

	mov	eax, DWORD PTR __Left$[esp-4]
	mov	edx, DWORD PTR [eax]
	mov	ecx, DWORD PTR __Right$[esp-4]
	cmp	edx, DWORD PTR [ecx]
	jge	SHORT $LN4@max
	mov	eax, ecx
$LN4@max:

; 3385 : 	}

	ret	0
??$max@H@std@@YAABHABH0@Z ENDP				; std::max<int>
_TEXT	ENDS
PUBLIC	??$SAFE_DELETE_ARRAY@VCvPlayerAI@@@@YAXAAPAVCvPlayerAI@@@Z ; SAFE_DELETE_ARRAY<CvPlayerAI>
EXTRN	??_V@YAXPAX@Z:PROC				; operator delete[]
; Function compile flags: /Ogtpy
; File c:\users\enormousapplepie\documents\github\lekmod\lekmod_dll\fireplace\include\fireworks\ffiretypes.h
;	COMDAT ??$SAFE_DELETE_ARRAY@VCvPlayerAI@@@@YAXAAPAVCvPlayerAI@@@Z
_TEXT	SEGMENT
_pkInstanceArray$ = 8					; size = 4
??$SAFE_DELETE_ARRAY@VCvPlayerAI@@@@YAXAAPAVCvPlayerAI@@@Z PROC ; SAFE_DELETE_ARRAY<CvPlayerAI>, COMDAT

; 311  : {

	push	esi

; 312  : 	delete[] pkInstanceArray;

	mov	esi, DWORD PTR _pkInstanceArray$[esp]
	mov	ecx, DWORD PTR [esi]
	test	ecx, ecx
	je	SHORT $LN7@SAFE_DELET
	cmp	DWORD PTR [ecx-4], 0
	lea	eax, DWORD PTR [ecx-4]
	je	SHORT $LN3@SAFE_DELET
	mov	eax, DWORD PTR [ecx]
	mov	edx, DWORD PTR [eax]
	push	3
	call	edx

; 313  : 	pkInstanceArray = NULL;

	mov	DWORD PTR [esi], 0
	pop	esi

; 314  : };

	ret	0
$LN3@SAFE_DELET:

; 312  : 	delete[] pkInstanceArray;

	push	eax
	call	??_V@YAXPAX@Z				; operator delete[]
	add	esp, 4
$LN7@SAFE_DELET:

; 313  : 	pkInstanceArray = NULL;

	mov	DWORD PTR [esi], 0
	pop	esi

; 314  : };

	ret	0
??$SAFE_DELETE_ARRAY@VCvPlayerAI@@@@YAXAAPAVCvPlayerAI@@@Z ENDP ; SAFE_DELETE_ARRAY<CvPlayerAI>
_TEXT	ENDS
PUBLIC	__TI2?AVbad_alloc@std@@
PUBLIC	??$_Allocate@UCityAndProduction@@@std@@YAPAUCityAndProduction@@IPAU1@@Z ; std::_Allocate<CityAndProduction>
PUBLIC	__CTA2?AVbad_alloc@std@@
PUBLIC	__CT??_R0?AVbad_alloc@std@@@8??0bad_alloc@std@@QAE@ABV01@@Z12
PUBLIC	??0bad_alloc@std@@QAE@ABV01@@Z			; std::bad_alloc::bad_alloc
EXTRN	??2@YAPAXI@Z:PROC				; operator new
;	COMDAT __CT??_R0?AVbad_alloc@std@@@8??0bad_alloc@std@@QAE@ABV01@@Z12
; File c:\program files (x86)\microsoft visual studio 9.0\vc\include\exception
xdata$x	SEGMENT
__CT??_R0?AVbad_alloc@std@@@8??0bad_alloc@std@@QAE@ABV01@@Z12 DD 00H
	DD	FLAT:??_R0?AVbad_alloc@std@@@8
	DD	00H
	DD	0ffffffffH
	ORG $+4
	DD	0cH
	DD	FLAT:??0bad_alloc@std@@QAE@ABV01@@Z
xdata$x	ENDS
;	COMDAT __CTA2?AVbad_alloc@std@@
xdata$x	SEGMENT
__CTA2?AVbad_alloc@std@@ DD 02H
	DD	FLAT:__CT??_R0?AVbad_alloc@std@@@8??0bad_alloc@std@@QAE@ABV01@@Z12
	DD	FLAT:__CT??_R0?AVexception@std@@@8??0exception@std@@QAE@ABV01@@Z12
xdata$x	ENDS
;	COMDAT __TI2?AVbad_alloc@std@@
xdata$x	SEGMENT
__TI2?AVbad_alloc@std@@ DD 00H
	DD	FLAT:??1bad_alloc@std@@UAE@XZ
	DD	00H
	DD	FLAT:__CTA2?AVbad_alloc@std@@
; Function compile flags: /Ogtpy
; File c:\program files (x86)\microsoft visual studio 9.0\vc\include\xmemory
xdata$x	ENDS
;	COMDAT ??$_Allocate@UCityAndProduction@@@std@@YAPAUCityAndProduction@@IPAU1@@Z
_TEXT	SEGMENT
$T230138 = -12						; size = 12
$T230142 = 8						; size = 4
__Count$ = 8						; size = 4
___formal$ = 12						; size = 4
??$_Allocate@UCityAndProduction@@@std@@YAPAUCityAndProduction@@IPAU1@@Z PROC ; std::_Allocate<CityAndProduction>, COMDAT

; 37   : 	if (_Count <= 0)

	mov	ecx, DWORD PTR __Count$[esp-4]
	sub	esp, 12					; 0000000cH
	test	ecx, ecx
	ja	SHORT $LN3@Allocate

; 38   : 		_Count = 0;

	xor	ecx, ecx
$LN1@Allocate:

; 41   : 
; 42   : 		// allocate storage for _Count elements of type _Ty
; 43   : 	return ((_Ty _FARQ *)::operator new(_Count * sizeof (_Ty)));

	lea	edx, DWORD PTR [ecx*8]
	push	edx
	call	??2@YAPAXI@Z				; operator new
	add	esp, 4

; 44   : 	}

	add	esp, 12					; 0000000cH
	ret	0
$LN3@Allocate:

; 39   : 	else if (((_SIZT)(-1) / _Count) < sizeof (_Ty))

	or	eax, -1
	xor	edx, edx
	div	ecx
	cmp	eax, 8
	jae	SHORT $LN1@Allocate

; 40   : 		_THROW_NCEE(std::bad_alloc, NULL);

	lea	eax, DWORD PTR $T230142[esp+8]
	push	eax
	lea	ecx, DWORD PTR $T230138[esp+16]
	mov	DWORD PTR $T230142[esp+12], 0
	call	DWORD PTR __imp_??0exception@std@@QAE@ABQBD@Z
	push	OFFSET __TI2?AVbad_alloc@std@@
	lea	ecx, DWORD PTR $T230138[esp+16]
	push	ecx
	mov	DWORD PTR $T230138[esp+20], OFFSET ??_7bad_alloc@std@@6B@
	call	__CxxThrowException@8
$LN9@Allocate:
$LN8@Allocate:
	int	3
??$_Allocate@UCityAndProduction@@@std@@YAPAUCityAndProduction@@IPAU1@@Z ENDP ; std::_Allocate<CityAndProduction>
_TEXT	ENDS
PUBLIC	??8?$_Vector_const_iterator@UCityAndProduction@@V?$allocator@UCityAndProduction@@@std@@@std@@QBE_NABV01@@Z ; std::_Vector_const_iterator<CityAndProduction,std::allocator<CityAndProduction> >::operator==
; Function compile flags: /Ogtpy
; File c:\program files (x86)\microsoft visual studio 9.0\vc\include\vector
;	COMDAT ??8?$_Vector_const_iterator@UCityAndProduction@@V?$allocator@UCityAndProduction@@@std@@@std@@QBE_NABV01@@Z
_TEXT	SEGMENT
__Right$ = 8						; size = 4
??8?$_Vector_const_iterator@UCityAndProduction@@V?$allocator@UCityAndProduction@@@std@@@std@@QBE_NABV01@@Z PROC ; std::_Vector_const_iterator<CityAndProduction,std::allocator<CityAndProduction> >::operator==, COMDAT
; _this$ = ecx

; 204  : 
; 205  :  #if _HAS_ITERATOR_DEBUGGING
; 206  : 		_Compat(_Right);
; 207  :  #else
; 208  : 		_SCL_SECURE_VALIDATE(this->_Has_container() && this->_Same_container(_Right));
; 209  :  #endif /* _HAS_ITERATOR_DEBUGGING */
; 210  : 
; 211  : 		return (_Myptr == _Right._Myptr);

	mov	eax, DWORD PTR [ecx]
	mov	edx, DWORD PTR __Right$[esp-4]
	xor	ecx, ecx
	cmp	eax, DWORD PTR [edx]
	sete	cl
	mov	al, cl

; 212  : 		}

	ret	4
??8?$_Vector_const_iterator@UCityAndProduction@@V?$allocator@UCityAndProduction@@@std@@@std@@QBE_NABV01@@Z ENDP ; std::_Vector_const_iterator<CityAndProduction,std::allocator<CityAndProduction> >::operator==
_TEXT	ENDS
PUBLIC	??$_Dist_type@V?$_Vector_iterator@UCityAndProduction@@V?$allocator@UCityAndProduction@@@std@@@std@@@std@@YAPAHV?$_Vector_iterator@UCityAndProduction@@V?$allocator@UCityAndProduction@@@std@@@0@@Z ; std::_Dist_type<std::_Vector_iterator<CityAndProduction,std::allocator<CityAndProduction> > >
; Function compile flags: /Ogtpy
; File c:\program files (x86)\microsoft visual studio 9.0\vc\include\xutility
;	COMDAT ??$_Dist_type@V?$_Vector_iterator@UCityAndProduction@@V?$allocator@UCityAndProduction@@@std@@@std@@@std@@YAPAHV?$_Vector_iterator@UCityAndProduction@@V?$allocator@UCityAndProduction@@@std@@@0@@Z
_TEXT	SEGMENT
___formal$ = 8						; size = 4
??$_Dist_type@V?$_Vector_iterator@UCityAndProduction@@V?$allocator@UCityAndProduction@@@std@@@std@@@std@@YAPAHV?$_Vector_iterator@UCityAndProduction@@V?$allocator@UCityAndProduction@@@std@@@0@@Z PROC ; std::_Dist_type<std::_Vector_iterator<CityAndProduction,std::allocator<CityAndProduction> > >, COMDAT

; 1831 : 	return (0);

	xor	eax, eax

; 1832 : 	}

	ret	0
??$_Dist_type@V?$_Vector_iterator@UCityAndProduction@@V?$allocator@UCityAndProduction@@@std@@@std@@@std@@YAPAHV?$_Vector_iterator@UCityAndProduction@@V?$allocator@UCityAndProduction@@@std@@@0@@Z ENDP ; std::_Dist_type<std::_Vector_iterator<CityAndProduction,std::allocator<CityAndProduction> > >
_TEXT	ENDS
PUBLIC	??$_Val_type@V?$_Vector_iterator@UCityAndProduction@@V?$allocator@UCityAndProduction@@@std@@@std@@@std@@YAPAUCityAndProduction@@V?$_Vector_iterator@UCityAndProduction@@V?$allocator@UCityAndProduction@@@std@@@0@@Z ; std::_Val_type<std::_Vector_iterator<CityAndProduction,std::allocator<CityAndProduction> > >
; Function compile flags: /Ogtpy
;	COMDAT ??$_Val_type@V?$_Vector_iterator@UCityAndProduction@@V?$allocator@UCityAndProduction@@@std@@@std@@@std@@YAPAUCityAndProduction@@V?$_Vector_iterator@UCityAndProduction@@V?$allocator@UCityAndProduction@@@std@@@0@@Z
_TEXT	SEGMENT
___formal$ = 8						; size = 4
??$_Val_type@V?$_Vector_iterator@UCityAndProduction@@V?$allocator@UCityAndProduction@@@std@@@std@@@std@@YAPAUCityAndProduction@@V?$_Vector_iterator@UCityAndProduction@@V?$allocator@UCityAndProduction@@@std@@@0@@Z PROC ; std::_Val_type<std::_Vector_iterator<CityAndProduction,std::allocator<CityAndProduction> > >, COMDAT

; 1766 : 	return (0);

	xor	eax, eax

; 1767 : 	}

	ret	0
??$_Val_type@V?$_Vector_iterator@UCityAndProduction@@V?$allocator@UCityAndProduction@@@std@@@std@@@std@@YAPAUCityAndProduction@@V?$_Vector_iterator@UCityAndProduction@@V?$allocator@UCityAndProduction@@@std@@@0@@Z ENDP ; std::_Val_type<std::_Vector_iterator<CityAndProduction,std::allocator<CityAndProduction> > >
_TEXT	ENDS
PUBLIC	??$_Ptr_cat@PAUCityAndProduction@@PAU1@@std@@YA?AU_Nonscalar_ptr_iterator_tag@0@AAPAUCityAndProduction@@0@Z ; std::_Ptr_cat<CityAndProduction *,CityAndProduction *>
; Function compile flags: /Ogtpy
;	COMDAT ??$_Ptr_cat@PAUCityAndProduction@@PAU1@@std@@YA?AU_Nonscalar_ptr_iterator_tag@0@AAPAUCityAndProduction@@0@Z
_TEXT	SEGMENT
__Cat$ = -1						; size = 1
___formal$ = 8						; size = 4
___formal$ = 12						; size = 4
??$_Ptr_cat@PAUCityAndProduction@@PAU1@@std@@YA?AU_Nonscalar_ptr_iterator_tag@0@AAPAUCityAndProduction@@0@Z PROC ; std::_Ptr_cat<CityAndProduction *,CityAndProduction *>, COMDAT

; 1509 : 	{

	push	ecx

; 1510 : 	typename _Ptr_cat_helper<_T1, _T2>::_Ptr_cat _Cat;
; 1511 : 	return (_Cat);

	mov	al, BYTE PTR __Cat$[esp+4]

; 1512 : 	}

	pop	ecx
	ret	0
??$_Ptr_cat@PAUCityAndProduction@@PAU1@@std@@YA?AU_Nonscalar_ptr_iterator_tag@0@AAPAUCityAndProduction@@0@Z ENDP ; std::_Ptr_cat<CityAndProduction *,CityAndProduction *>
_TEXT	ENDS
PUBLIC	??$_Fill@PAUCityAndProduction@@U1@@std@@YAXPAUCityAndProduction@@0ABU1@@Z ; std::_Fill<CityAndProduction *,CityAndProduction>
; Function compile flags: /Ogtpy
;	COMDAT ??$_Fill@PAUCityAndProduction@@U1@@std@@YAXPAUCityAndProduction@@0ABU1@@Z
_TEXT	SEGMENT
__First$ = 8						; size = 4
__Last$ = 12						; size = 4
__Val$ = 16						; size = 4
??$_Fill@PAUCityAndProduction@@U1@@std@@YAXPAUCityAndProduction@@0ABU1@@Z PROC ; std::_Fill<CityAndProduction *,CityAndProduction>, COMDAT

; 3157 : 	_DEBUG_RANGE(_First, _Last);
; 3158 : 	for (; _First != _Last; ++_First)

	mov	eax, DWORD PTR __First$[esp-4]
	mov	edx, DWORD PTR __Last$[esp-4]
	cmp	eax, edx
	je	SHORT $LN1@Fill
	mov	ecx, DWORD PTR __Val$[esp-4]
	push	esi
$LL3@Fill:

; 3159 : 		*_First = _Val;

	mov	esi, DWORD PTR [ecx]
	mov	DWORD PTR [eax], esi
	mov	esi, DWORD PTR [ecx+4]
	mov	DWORD PTR [eax+4], esi
	add	eax, 8
	cmp	eax, edx
	jne	SHORT $LL3@Fill
	pop	esi
$LN1@Fill:

; 3160 : 	}

	ret	0
??$_Fill@PAUCityAndProduction@@U1@@std@@YAXPAUCityAndProduction@@0ABU1@@Z ENDP ; std::_Fill<CityAndProduction *,CityAndProduction>
_TEXT	ENDS
PUBLIC	??$_Iter_random@PAUCityAndProduction@@PAU1@@std@@YA?AUrandom_access_iterator_tag@0@ABQAUCityAndProduction@@0@Z ; std::_Iter_random<CityAndProduction *,CityAndProduction *>
; Function compile flags: /Ogtpy
;	COMDAT ??$_Iter_random@PAUCityAndProduction@@PAU1@@std@@YA?AUrandom_access_iterator_tag@0@ABQAUCityAndProduction@@0@Z
_TEXT	SEGMENT
___$ReturnUdt$ = 8					; size = 4
___formal$ = 12						; size = 4
___formal$ = 16						; size = 4
??$_Iter_random@PAUCityAndProduction@@PAU1@@std@@YA?AUrandom_access_iterator_tag@0@ABQAUCityAndProduction@@0@Z PROC ; std::_Iter_random<CityAndProduction *,CityAndProduction *>, COMDAT

; 994  : 	typename _Iter_random_helper<
; 995  : 		iterator_traits<_Iter1>::iterator_category, 
; 996  : 		iterator_traits<_Iter2>::iterator_category>::_Iter_random_cat _Cat;
; 997  : 	return (_Cat);

	mov	eax, DWORD PTR ___$ReturnUdt$[esp-4]

; 998  : 	}

	ret	0
??$_Iter_random@PAUCityAndProduction@@PAU1@@std@@YA?AUrandom_access_iterator_tag@0@ABQAUCityAndProduction@@0@Z ENDP ; std::_Iter_random<CityAndProduction *,CityAndProduction *>
_TEXT	ENDS
PUBLIC	??$_Move_cat@PAUCityAndProduction@@@std@@YA?AU_Undefined_move_tag@0@ABQAUCityAndProduction@@@Z ; std::_Move_cat<CityAndProduction *>
; Function compile flags: /Ogtpy
;	COMDAT ??$_Move_cat@PAUCityAndProduction@@@std@@YA?AU_Undefined_move_tag@0@ABQAUCityAndProduction@@@Z
_TEXT	SEGMENT
__Cat$ = -1						; size = 1
___formal$ = 8						; size = 4
??$_Move_cat@PAUCityAndProduction@@@std@@YA?AU_Undefined_move_tag@0@ABQAUCityAndProduction@@@Z PROC ; std::_Move_cat<CityAndProduction *>, COMDAT

; 1200 : 	{

	push	ecx

; 1201 : 		typename _Move_operation_category<typename iterator_traits<_Iter>::value_type>::_Move_cat _Cat;
; 1202 : 		return (_Cat);

	mov	al, BYTE PTR __Cat$[esp+4]

; 1203 : 	}

	pop	ecx
	ret	0
??$_Move_cat@PAUCityAndProduction@@@std@@YA?AU_Undefined_move_tag@0@ABQAUCityAndProduction@@@Z ENDP ; std::_Move_cat<CityAndProduction *>
_TEXT	ENDS
PUBLIC	??0?$_Temp_iterator@UCityAndProduction@@@std@@QAE@H@Z ; std::_Temp_iterator<CityAndProduction>::_Temp_iterator<CityAndProduction>
; Function compile flags: /Ogtpy
; File c:\program files (x86)\microsoft visual studio 9.0\vc\include\memory
;	COMDAT ??0?$_Temp_iterator@UCityAndProduction@@@std@@QAE@H@Z
_TEXT	SEGMENT
__Count$ = 8						; size = 4
??0?$_Temp_iterator@UCityAndProduction@@@std@@QAE@H@Z PROC ; std::_Temp_iterator<CityAndProduction>::_Temp_iterator<CityAndProduction>, COMDAT
; _this$ = ecx

; 526  : 	_Temp_iterator(_PDFT _Count = 0)

	mov	eax, ecx

; 527  : 		{	// construct from desired temporary buffer size
; 528  : 		_Buf._Begin = 0;

	xor	ecx, ecx
	mov	DWORD PTR [eax], ecx

; 529  : 		_Buf._Current = 0;

	mov	DWORD PTR [eax+4], ecx

; 530  : 		_Buf._Hiwater = 0;

	mov	DWORD PTR [eax+8], ecx

; 531  : 		_Buf._Size = _Count;	// memorize size for lazy allocation

	mov	ecx, DWORD PTR __Count$[esp-4]
	mov	DWORD PTR [eax+12], ecx

; 532  : 		_Pbuf = &_Buf;

	mov	DWORD PTR [eax+16], eax

; 533  : 		}

	ret	4
??0?$_Temp_iterator@UCityAndProduction@@@std@@QAE@H@Z ENDP ; std::_Temp_iterator<CityAndProduction>::_Temp_iterator<CityAndProduction>
_TEXT	ENDS
PUBLIC	??$_Copy_backward_opt@PAUCityAndProduction@@PAU1@Urandom_access_iterator_tag@std@@@std@@YAPAUCityAndProduction@@PAU1@00Urandom_access_iterator_tag@0@U_Nonscalar_ptr_iterator_tag@0@U_Range_checked_iterator_tag@0@@Z ; std::_Copy_backward_opt<CityAndProduction *,CityAndProduction *,std::random_access_iterator_tag>
; Function compile flags: /Ogtpy
; File c:\program files (x86)\microsoft visual studio 9.0\vc\include\xutility
;	COMDAT ??$_Copy_backward_opt@PAUCityAndProduction@@PAU1@Urandom_access_iterator_tag@std@@@std@@YAPAUCityAndProduction@@PAU1@00Urandom_access_iterator_tag@0@U_Nonscalar_ptr_iterator_tag@0@U_Range_checked_iterator_tag@0@@Z
_TEXT	SEGMENT
__First$ = 8						; size = 4
__Last$ = 12						; size = 4
__Dest$ = 16						; size = 4
___formal$ = 20						; size = 1
___formal$ = 24						; size = 1
___formal$ = 28						; size = 1
??$_Copy_backward_opt@PAUCityAndProduction@@PAU1@Urandom_access_iterator_tag@std@@@std@@YAPAUCityAndProduction@@PAU1@00Urandom_access_iterator_tag@0@U_Nonscalar_ptr_iterator_tag@0@U_Range_checked_iterator_tag@0@@Z PROC ; std::_Copy_backward_opt<CityAndProduction *,CityAndProduction *,std::random_access_iterator_tag>, COMDAT

; 2674 : 	_DEBUG_RANGE(_First, _Last);
; 2675 : 	while (_First != _Last)

	mov	edx, DWORD PTR __First$[esp-4]
	mov	ecx, DWORD PTR __Last$[esp-4]
	mov	eax, DWORD PTR __Dest$[esp-4]
	cmp	edx, ecx
	je	SHORT $LN1@Copy_backw
	push	esi
$LL2@Copy_backw:

; 2676 : 		*--_Dest = *--_Last;

	mov	esi, DWORD PTR [ecx-8]
	sub	ecx, 8
	sub	eax, 8
	mov	DWORD PTR [eax], esi
	mov	esi, DWORD PTR [ecx+4]
	mov	DWORD PTR [eax+4], esi
	cmp	ecx, edx
	jne	SHORT $LL2@Copy_backw
	pop	esi
$LN1@Copy_backw:

; 2677 : 	return (_Dest);
; 2678 : 	}

	ret	0
??$_Copy_backward_opt@PAUCityAndProduction@@PAU1@Urandom_access_iterator_tag@std@@@std@@YAPAUCityAndProduction@@PAU1@00Urandom_access_iterator_tag@0@U_Nonscalar_ptr_iterator_tag@0@U_Range_checked_iterator_tag@0@@Z ENDP ; std::_Copy_backward_opt<CityAndProduction *,CityAndProduction *,std::random_access_iterator_tag>
_TEXT	ENDS
PUBLIC	??$_Construct@UCityAndProduction@@U1@@std@@YAXPAUCityAndProduction@@ABU1@@Z ; std::_Construct<CityAndProduction,CityAndProduction>
; Function compile flags: /Ogtpy
; File c:\program files (x86)\microsoft visual studio 9.0\vc\include\xmemory
;	COMDAT ??$_Construct@UCityAndProduction@@U1@@std@@YAXPAUCityAndProduction@@ABU1@@Z
_TEXT	SEGMENT
__Ptr$ = 8						; size = 4
__Val$ = 12						; size = 4
??$_Construct@UCityAndProduction@@U1@@std@@YAXPAUCityAndProduction@@ABU1@@Z PROC ; std::_Construct<CityAndProduction,CityAndProduction>, COMDAT

; 51   : 	void _FARQ *_Vptr = _Ptr;
; 52   : 	::new (_Vptr) _T1(_Val);

	mov	eax, DWORD PTR __Ptr$[esp-4]
	test	eax, eax
	je	SHORT $LN3@Construct
	mov	ecx, DWORD PTR __Val$[esp-4]
	mov	edx, DWORD PTR [ecx]
	mov	DWORD PTR [eax], edx
	mov	ecx, DWORD PTR [ecx+4]
	mov	DWORD PTR [eax+4], ecx
$LN3@Construct:

; 53   : 	}

	ret	0
??$_Construct@UCityAndProduction@@U1@@std@@YAXPAUCityAndProduction@@ABU1@@Z ENDP ; std::_Construct<CityAndProduction,CityAndProduction>
_TEXT	ENDS
PUBLIC	??$_Destroy@UCityAndProduction@@@std@@YAXPAUCityAndProduction@@@Z ; std::_Destroy<CityAndProduction>
; Function compile flags: /Ogtpy
;	COMDAT ??$_Destroy@UCityAndProduction@@@std@@YAXPAUCityAndProduction@@@Z
_TEXT	SEGMENT
__Ptr$ = 8						; size = 4
??$_Destroy@UCityAndProduction@@@std@@YAXPAUCityAndProduction@@@Z PROC ; std::_Destroy<CityAndProduction>, COMDAT

; 59   : 	_DESTRUCTOR(_Ty, _Ptr);
; 60   : 	}

	ret	0
??$_Destroy@UCityAndProduction@@@std@@YAXPAUCityAndProduction@@@Z ENDP ; std::_Destroy<CityAndProduction>
_TEXT	ENDS
PUBLIC	??$return_temporary_buffer@UCityAndProduction@@@std@@YAXPAUCityAndProduction@@@Z ; std::return_temporary_buffer<CityAndProduction>
; Function compile flags: /Ogtpy
; File c:\program files (x86)\microsoft visual studio 9.0\vc\include\memory
;	COMDAT ??$return_temporary_buffer@UCityAndProduction@@@std@@YAXPAUCityAndProduction@@@Z
_TEXT	SEGMENT
__Pbuf$ = 8						; size = 4
??$return_temporary_buffer@UCityAndProduction@@@std@@YAXPAUCityAndProduction@@@Z PROC ; std::return_temporary_buffer<CityAndProduction>, COMDAT

; 39   : 	operator delete(_Pbuf);

	jmp	??3@YAXPAX@Z				; operator delete
??$return_temporary_buffer@UCityAndProduction@@@std@@YAXPAUCityAndProduction@@@Z ENDP ; std::return_temporary_buffer<CityAndProduction>
_TEXT	ENDS
PUBLIC	??$_Iter_cat@V?$_Vector_iterator@UCityAndProduction@@V?$allocator@UCityAndProduction@@@std@@@std@@@std@@YA?AUrandom_access_iterator_tag@0@ABV?$_Vector_iterator@UCityAndProduction@@V?$allocator@UCityAndProduction@@@std@@@0@@Z ; std::_Iter_cat<std::_Vector_iterator<CityAndProduction,std::allocator<CityAndProduction> > >
; Function compile flags: /Ogtpy
; File c:\program files (x86)\microsoft visual studio 9.0\vc\include\xutility
;	COMDAT ??$_Iter_cat@V?$_Vector_iterator@UCityAndProduction@@V?$allocator@UCityAndProduction@@@std@@@std@@@std@@YA?AUrandom_access_iterator_tag@0@ABV?$_Vector_iterator@UCityAndProduction@@V?$allocator@UCityAndProduction@@@std@@@0@@Z
_TEXT	SEGMENT
___$ReturnUdt$ = 8					; size = 4
___formal$ = 12						; size = 4
??$_Iter_cat@V?$_Vector_iterator@UCityAndProduction@@V?$allocator@UCityAndProduction@@@std@@@std@@@std@@YA?AUrandom_access_iterator_tag@0@ABV?$_Vector_iterator@UCityAndProduction@@V?$allocator@UCityAndProduction@@@std@@@0@@Z PROC ; std::_Iter_cat<std::_Vector_iterator<CityAndProduction,std::allocator<CityAndProduction> > >, COMDAT

; 953  : 	typename iterator_traits<_Iter>::iterator_category _Cat;
; 954  : 	return (_Cat);

	mov	eax, DWORD PTR ___$ReturnUdt$[esp-4]

; 955  : 	}

	ret	0
??$_Iter_cat@V?$_Vector_iterator@UCityAndProduction@@V?$allocator@UCityAndProduction@@@std@@@std@@@std@@YA?AUrandom_access_iterator_tag@0@ABV?$_Vector_iterator@UCityAndProduction@@V?$allocator@UCityAndProduction@@@std@@@0@@Z ENDP ; std::_Iter_cat<std::_Vector_iterator<CityAndProduction,std::allocator<CityAndProduction> > >
_TEXT	ENDS
PUBLIC	??G?$_Vector_iterator@UCityAndProduction@@V?$allocator@UCityAndProduction@@@std@@@std@@QBEHABV?$_Vector_const_iterator@UCityAndProduction@@V?$allocator@UCityAndProduction@@@std@@@1@@Z ; std::_Vector_iterator<CityAndProduction,std::allocator<CityAndProduction> >::operator-
; Function compile flags: /Ogtpy
; File c:\program files (x86)\microsoft visual studio 9.0\vc\include\vector
;	COMDAT ??G?$_Vector_iterator@UCityAndProduction@@V?$allocator@UCityAndProduction@@@std@@@std@@QBEHABV?$_Vector_const_iterator@UCityAndProduction@@V?$allocator@UCityAndProduction@@@std@@@1@@Z
_TEXT	SEGMENT
__Right$ = 8						; size = 4
??G?$_Vector_iterator@UCityAndProduction@@V?$allocator@UCityAndProduction@@@std@@@std@@QBEHABV?$_Vector_const_iterator@UCityAndProduction@@V?$allocator@UCityAndProduction@@@std@@@1@@Z PROC ; std::_Vector_iterator<CityAndProduction,std::allocator<CityAndProduction> >::operator-, COMDAT
; _this$ = ecx

; 398  : 		return (*(_Mybase *)this - _Right);

	mov	eax, DWORD PTR [ecx]
	mov	ecx, DWORD PTR __Right$[esp-4]
	sub	eax, DWORD PTR [ecx]
	sar	eax, 3

; 399  : 		}

	ret	4
??G?$_Vector_iterator@UCityAndProduction@@V?$allocator@UCityAndProduction@@@std@@@std@@QBEHABV?$_Vector_const_iterator@UCityAndProduction@@V?$allocator@UCityAndProduction@@@std@@@1@@Z ENDP ; std::_Vector_iterator<CityAndProduction,std::allocator<CityAndProduction> >::operator-
_TEXT	ENDS
PUBLIC	?_Init@?$_Temp_iterator@UCityAndProduction@@@std@@QAEAAV12@XZ ; std::_Temp_iterator<CityAndProduction>::_Init
; Function compile flags: /Ogtpy
; File c:\program files (x86)\microsoft visual studio 9.0\vc\include\memory
;	COMDAT ?_Init@?$_Temp_iterator@UCityAndProduction@@@std@@QAEAAV12@XZ
_TEXT	SEGMENT
?_Init@?$_Temp_iterator@UCityAndProduction@@@std@@QAEAAV12@XZ PROC ; std::_Temp_iterator<CityAndProduction>::_Init, COMDAT
; _this$ = ecx

; 591  : 		{	// set pointer at beginning of buffer

	mov	eax, ecx

; 592  : 		_Pbuf->_Current = _Pbuf->_Begin;

	mov	ecx, DWORD PTR [eax+16]
	mov	edx, DWORD PTR [ecx]
	mov	DWORD PTR [ecx+4], edx

; 593  : 		return (*this);
; 594  : 		}

	ret	0
?_Init@?$_Temp_iterator@UCityAndProduction@@@std@@QAEAAV12@XZ ENDP ; std::_Temp_iterator<CityAndProduction>::_Init
_TEXT	ENDS
PUBLIC	?_First@?$_Temp_iterator@UCityAndProduction@@@std@@QBEPAUCityAndProduction@@XZ ; std::_Temp_iterator<CityAndProduction>::_First
; Function compile flags: /Ogtpy
;	COMDAT ?_First@?$_Temp_iterator@UCityAndProduction@@@std@@QBEPAUCityAndProduction@@XZ
_TEXT	SEGMENT
?_First@?$_Temp_iterator@UCityAndProduction@@@std@@QBEPAUCityAndProduction@@XZ PROC ; std::_Temp_iterator<CityAndProduction>::_First, COMDAT
; _this$ = ecx

; 598  : 		return (_Pbuf->_Begin);

	mov	eax, DWORD PTR [ecx+16]
	mov	eax, DWORD PTR [eax]

; 599  : 		}

	ret	0
?_First@?$_Temp_iterator@UCityAndProduction@@@std@@QBEPAUCityAndProduction@@XZ ENDP ; std::_Temp_iterator<CityAndProduction>::_First
_TEXT	ENDS
PUBLIC	?_Last@?$_Temp_iterator@UCityAndProduction@@@std@@QBEPAUCityAndProduction@@XZ ; std::_Temp_iterator<CityAndProduction>::_Last
; Function compile flags: /Ogtpy
;	COMDAT ?_Last@?$_Temp_iterator@UCityAndProduction@@@std@@QBEPAUCityAndProduction@@XZ
_TEXT	SEGMENT
?_Last@?$_Temp_iterator@UCityAndProduction@@@std@@QBEPAUCityAndProduction@@XZ PROC ; std::_Temp_iterator<CityAndProduction>::_Last, COMDAT
; _this$ = ecx

; 603  : 		return (_Pbuf->_Current);

	mov	eax, DWORD PTR [ecx+16]
	mov	eax, DWORD PTR [eax+4]

; 604  : 		}

	ret	0
?_Last@?$_Temp_iterator@UCityAndProduction@@@std@@QBEPAUCityAndProduction@@XZ ENDP ; std::_Temp_iterator<CityAndProduction>::_Last
_TEXT	ENDS
PUBLIC	??0?$pair@PAUCityAndProduction@@H@std@@QAE@ABQAUCityAndProduction@@ABH@Z ; std::pair<CityAndProduction *,int>::pair<CityAndProduction *,int>
; Function compile flags: /Ogtpy
; File c:\program files (x86)\microsoft visual studio 9.0\vc\include\utility
;	COMDAT ??0?$pair@PAUCityAndProduction@@H@std@@QAE@ABQAUCityAndProduction@@ABH@Z
_TEXT	SEGMENT
__Val1$ = 8						; size = 4
__Val2$ = 12						; size = 4
??0?$pair@PAUCityAndProduction@@H@std@@QAE@ABQAUCityAndProduction@@ABH@Z PROC ; std::pair<CityAndProduction *,int>::pair<CityAndProduction *,int>, COMDAT
; _this$ = ecx

; 50   : 		{	// construct from specified values

	mov	eax, ecx
	mov	ecx, DWORD PTR __Val1$[esp-4]
	mov	edx, DWORD PTR [ecx]
	mov	ecx, DWORD PTR __Val2$[esp-4]
	mov	DWORD PTR [eax], edx
	mov	edx, DWORD PTR [ecx]
	mov	DWORD PTR [eax+4], edx

; 51   : 		}

	ret	8
??0?$pair@PAUCityAndProduction@@H@std@@QAE@ABQAUCityAndProduction@@ABH@Z ENDP ; std::pair<CityAndProduction *,int>::pair<CityAndProduction *,int>
_TEXT	ENDS
PUBLIC	??0?$_Vector_const_iterator@UCityAndProduction@@V?$allocator@UCityAndProduction@@@std@@@std@@QAE@XZ ; std::_Vector_const_iterator<CityAndProduction,std::allocator<CityAndProduction> >::_Vector_const_iterator<CityAndProduction,std::allocator<CityAndProduction> >
; Function compile flags: /Ogtpy
; File c:\program files (x86)\microsoft visual studio 9.0\vc\include\vector
;	COMDAT ??0?$_Vector_const_iterator@UCityAndProduction@@V?$allocator@UCityAndProduction@@@std@@@std@@QAE@XZ
_TEXT	SEGMENT
??0?$_Vector_const_iterator@UCityAndProduction@@V?$allocator@UCityAndProduction@@@std@@@std@@QAE@XZ PROC ; std::_Vector_const_iterator<CityAndProduction,std::allocator<CityAndProduction> >::_Vector_const_iterator<CityAndProduction,std::allocator<CityAndProduction> >, COMDAT
; _this$ = ecx

; 62   : 	_Vector_const_iterator()

	mov	eax, ecx

; 63   : 		{	// construct with null pointer
; 64   : 		_Myptr = 0;

	mov	DWORD PTR [eax], 0

; 65   : 		}

	ret	0
??0?$_Vector_const_iterator@UCityAndProduction@@V?$allocator@UCityAndProduction@@@std@@@std@@QAE@XZ ENDP ; std::_Vector_const_iterator<CityAndProduction,std::allocator<CityAndProduction> >::_Vector_const_iterator<CityAndProduction,std::allocator<CityAndProduction> >
_TEXT	ENDS
PUBLIC	??D?$_Vector_const_iterator@UCityAndProduction@@V?$allocator@UCityAndProduction@@@std@@@std@@QBEABUCityAndProduction@@XZ ; std::_Vector_const_iterator<CityAndProduction,std::allocator<CityAndProduction> >::operator*
; Function compile flags: /Ogtpy
;	COMDAT ??D?$_Vector_const_iterator@UCityAndProduction@@V?$allocator@UCityAndProduction@@@std@@@std@@QBEABUCityAndProduction@@XZ
_TEXT	SEGMENT
??D?$_Vector_const_iterator@UCityAndProduction@@V?$allocator@UCityAndProduction@@@std@@@std@@QBEABUCityAndProduction@@XZ PROC ; std::_Vector_const_iterator<CityAndProduction,std::allocator<CityAndProduction> >::operator*, COMDAT
; _this$ = ecx

; 92   : 
; 93   :  #if _HAS_ITERATOR_DEBUGGING
; 94   : 		if (this->_Mycont == 0
; 95   : 			|| _Myptr < ((_Myvec *)this->_Mycont)->_Myfirst
; 96   : 			|| ((_Myvec *)this->_Mycont)->_Mylast <= _Myptr)
; 97   : 			{
; 98   : 			_DEBUG_ERROR("vector iterator not dereferencable");
; 99   : 			_SCL_SECURE_OUT_OF_RANGE;
; 100  : 			}
; 101  :  #else
; 102  :  		_SCL_SECURE_VALIDATE(this->_Has_container());
; 103  : 		_SCL_SECURE_VALIDATE_RANGE(_Myptr < ((_Myvec *)(this->_Getmycont()))->_Mylast);
; 104  :  #endif /* _HAS_ITERATOR_DEBUGGING */
; 105  : 
; 106  : 		return (*_Myptr);

	mov	eax, DWORD PTR [ecx]

; 107  : 		}

	ret	0
??D?$_Vector_const_iterator@UCityAndProduction@@V?$allocator@UCityAndProduction@@@std@@@std@@QBEABUCityAndProduction@@XZ ENDP ; std::_Vector_const_iterator<CityAndProduction,std::allocator<CityAndProduction> >::operator*
_TEXT	ENDS
PUBLIC	??4?$_Temp_iterator@UCityAndProduction@@@std@@QAEAAV01@ABV01@@Z ; std::_Temp_iterator<CityAndProduction>::operator=
; Function compile flags: /Ogtpy
; File c:\program files (x86)\microsoft visual studio 9.0\vc\include\memory
;	COMDAT ??4?$_Temp_iterator@UCityAndProduction@@@std@@QAEAAV01@ABV01@@Z
_TEXT	SEGMENT
__Right$ = 8						; size = 4
??4?$_Temp_iterator@UCityAndProduction@@@std@@QAEAAV01@ABV01@@Z PROC ; std::_Temp_iterator<CityAndProduction>::operator=, COMDAT
; _this$ = ecx

; 556  : 		{	// assign _Right (share active buffer)

	mov	eax, ecx

; 557  : 		_Pbuf = _Right._Pbuf;

	mov	ecx, DWORD PTR __Right$[esp-4]
	mov	edx, DWORD PTR [ecx+16]
	mov	DWORD PTR [eax+16], edx

; 558  : 		return (*this);
; 559  : 		}

	ret	4
??4?$_Temp_iterator@UCityAndProduction@@@std@@QAEAAV01@ABV01@@Z ENDP ; std::_Temp_iterator<CityAndProduction>::operator=
_TEXT	ENDS
PUBLIC	??E?$_Vector_const_iterator@UCityAndProduction@@V?$allocator@UCityAndProduction@@@std@@@std@@QAEAAV01@XZ ; std::_Vector_const_iterator<CityAndProduction,std::allocator<CityAndProduction> >::operator++
; Function compile flags: /Ogtpy
; File c:\program files (x86)\microsoft visual studio 9.0\vc\include\vector
;	COMDAT ??E?$_Vector_const_iterator@UCityAndProduction@@V?$allocator@UCityAndProduction@@@std@@@std@@QAEAAV01@XZ
_TEXT	SEGMENT
??E?$_Vector_const_iterator@UCityAndProduction@@V?$allocator@UCityAndProduction@@@std@@@std@@QAEAAV01@XZ PROC ; std::_Vector_const_iterator<CityAndProduction,std::allocator<CityAndProduction> >::operator++, COMDAT
; _this$ = ecx

; 115  : 		{	// preincrement

	mov	eax, ecx

; 116  : 		_SCL_SECURE_VALIDATE(this->_Has_container());
; 117  : 		_SCL_SECURE_VALIDATE_RANGE(_Myptr < ((_Myvec *)(this->_Getmycont()))->_Mylast);
; 118  : 
; 119  :  #if _HAS_ITERATOR_DEBUGGING
; 120  : 		if (this->_Mycont == 0
; 121  : 			|| ((_Myvec *)this->_Mycont)->_Mylast <= _Myptr)
; 122  : 			_DEBUG_ERROR("vector iterator not incrementable");
; 123  :  #endif /* _HAS_ITERATOR_DEBUGGING */
; 124  : 
; 125  : 		++_Myptr;

	add	DWORD PTR [eax], 8

; 126  : 		return (*this);
; 127  : 		}

	ret	0
??E?$_Vector_const_iterator@UCityAndProduction@@V?$allocator@UCityAndProduction@@@std@@@std@@QAEAAV01@XZ ENDP ; std::_Vector_const_iterator<CityAndProduction,std::allocator<CityAndProduction> >::operator++
_TEXT	ENDS
PUBLIC	??F?$_Vector_const_iterator@UCityAndProduction@@V?$allocator@UCityAndProduction@@@std@@@std@@QAEAAV01@XZ ; std::_Vector_const_iterator<CityAndProduction,std::allocator<CityAndProduction> >::operator--
; Function compile flags: /Ogtpy
;	COMDAT ??F?$_Vector_const_iterator@UCityAndProduction@@V?$allocator@UCityAndProduction@@@std@@@std@@QAEAAV01@XZ
_TEXT	SEGMENT
??F?$_Vector_const_iterator@UCityAndProduction@@V?$allocator@UCityAndProduction@@@std@@@std@@QAEAAV01@XZ PROC ; std::_Vector_const_iterator<CityAndProduction,std::allocator<CityAndProduction> >::operator--, COMDAT
; _this$ = ecx

; 137  : 		{	// predecrement

	mov	eax, ecx

; 138  : 		_SCL_SECURE_VALIDATE(this->_Has_container());
; 139  : 		_SCL_SECURE_VALIDATE_RANGE(_Myptr > ((_Myvec *)(this->_Getmycont()))->_Myfirst);
; 140  : 
; 141  :  #if _HAS_ITERATOR_DEBUGGING
; 142  : 		if (this->_Mycont == 0
; 143  : 			|| _Myptr == ((_Myvec *)this->_Mycont)->_Myfirst)
; 144  : 			_DEBUG_ERROR("vector iterator not decrementable");
; 145  :  #endif /* _HAS_ITERATOR_DEBUGGING */
; 146  : 
; 147  : 		--_Myptr;

	add	DWORD PTR [eax], -8			; fffffff8H

; 148  : 		return (*this);
; 149  : 		}

	ret	0
??F?$_Vector_const_iterator@UCityAndProduction@@V?$allocator@UCityAndProduction@@@std@@@std@@QAEAAV01@XZ ENDP ; std::_Vector_const_iterator<CityAndProduction,std::allocator<CityAndProduction> >::operator--
_TEXT	ENDS
PUBLIC	??$swap@UCityAndProduction@@@std@@YAXAAUCityAndProduction@@0@Z ; std::swap<CityAndProduction>
; Function compile flags: /Ogtpy
; File c:\program files (x86)\microsoft visual studio 9.0\vc\include\utility
;	COMDAT ??$swap@UCityAndProduction@@@std@@YAXAAUCityAndProduction@@0@Z
_TEXT	SEGMENT
__Left$ = 8						; size = 4
__Right$ = 12						; size = 4
??$swap@UCityAndProduction@@@std@@YAXAAUCityAndProduction@@0@Z PROC ; std::swap<CityAndProduction>, COMDAT

; 18   : 	if (&_Left != &_Right)

	mov	eax, DWORD PTR __Left$[esp-4]
	mov	ecx, DWORD PTR __Right$[esp-4]
	cmp	eax, ecx
	je	SHORT $LN1@swap

; 19   : 		{	// different, worth swapping
; 20   : 		_Ty _Tmp = _Left;

	mov	edx, DWORD PTR [eax]
	push	esi
	mov	esi, DWORD PTR [eax+4]
	push	edi

; 21   : 
; 22   : 		_Left = _Right;

	mov	edi, DWORD PTR [ecx]
	mov	DWORD PTR [eax], edi
	mov	edi, DWORD PTR [ecx+4]
	mov	DWORD PTR [eax+4], edi
	pop	edi

; 23   : 		_Right = _Tmp;

	mov	DWORD PTR [ecx+4], esi
	mov	DWORD PTR [ecx], edx
	pop	esi
$LN1@swap:

; 24   : 		}
; 25   : 	}

	ret	0
??$swap@UCityAndProduction@@@std@@YAXAAUCityAndProduction@@0@Z ENDP ; std::swap<CityAndProduction>
_TEXT	ENDS
PUBLIC	??$_Iter_random@V?$_Vector_iterator@UCityAndProduction@@V?$allocator@UCityAndProduction@@@std@@@std@@V?$_Temp_iterator@UCityAndProduction@@@2@@std@@YA?AUforward_iterator_tag@0@ABV?$_Vector_iterator@UCityAndProduction@@V?$allocator@UCityAndProduction@@@std@@@0@ABV?$_Temp_iterator@UCityAndProduction@@@0@@Z ; std::_Iter_random<std::_Vector_iterator<CityAndProduction,std::allocator<CityAndProduction> >,std::_Temp_iterator<CityAndProduction> >
; Function compile flags: /Ogtpy
; File c:\program files (x86)\microsoft visual studio 9.0\vc\include\xutility
;	COMDAT ??$_Iter_random@V?$_Vector_iterator@UCityAndProduction@@V?$allocator@UCityAndProduction@@@std@@@std@@V?$_Temp_iterator@UCityAndProduction@@@2@@std@@YA?AUforward_iterator_tag@0@ABV?$_Vector_iterator@UCityAndProduction@@V?$allocator@UCityAndProduction@@@std@@@0@ABV?$_Temp_iterator@UCityAndProduction@@@0@@Z
_TEXT	SEGMENT
___$ReturnUdt$ = 8					; size = 4
___formal$ = 12						; size = 4
___formal$ = 16						; size = 4
??$_Iter_random@V?$_Vector_iterator@UCityAndProduction@@V?$allocator@UCityAndProduction@@@std@@@std@@V?$_Temp_iterator@UCityAndProduction@@@2@@std@@YA?AUforward_iterator_tag@0@ABV?$_Vector_iterator@UCityAndProduction@@V?$allocator@UCityAndProduction@@@std@@@0@ABV?$_Temp_iterator@UCityAndProduction@@@0@@Z PROC ; std::_Iter_random<std::_Vector_iterator<CityAndProduction,std::allocator<CityAndProduction> >,std::_Temp_iterator<CityAndProduction> >, COMDAT

; 994  : 	typename _Iter_random_helper<
; 995  : 		iterator_traits<_Iter1>::iterator_category, 
; 996  : 		iterator_traits<_Iter2>::iterator_category>::_Iter_random_cat _Cat;
; 997  : 	return (_Cat);

	mov	eax, DWORD PTR ___$ReturnUdt$[esp-4]

; 998  : 	}

	ret	0
??$_Iter_random@V?$_Vector_iterator@UCityAndProduction@@V?$allocator@UCityAndProduction@@@std@@@std@@V?$_Temp_iterator@UCityAndProduction@@@2@@std@@YA?AUforward_iterator_tag@0@ABV?$_Vector_iterator@UCityAndProduction@@V?$allocator@UCityAndProduction@@@std@@@0@ABV?$_Temp_iterator@UCityAndProduction@@@0@@Z ENDP ; std::_Iter_random<std::_Vector_iterator<CityAndProduction,std::allocator<CityAndProduction> >,std::_Temp_iterator<CityAndProduction> >
_TEXT	ENDS
PUBLIC	??$_Ptr_cat@V?$_Vector_iterator@UCityAndProduction@@V?$allocator@UCityAndProduction@@@std@@@std@@V?$_Temp_iterator@UCityAndProduction@@@2@@std@@YA?AU_Nonscalar_ptr_iterator_tag@0@AAV?$_Vector_iterator@UCityAndProduction@@V?$allocator@UCityAndProduction@@@std@@@0@AAV?$_Temp_iterator@UCityAndProduction@@@0@@Z ; std::_Ptr_cat<std::_Vector_iterator<CityAndProduction,std::allocator<CityAndProduction> >,std::_Temp_iterator<CityAndProduction> >
; Function compile flags: /Ogtpy
;	COMDAT ??$_Ptr_cat@V?$_Vector_iterator@UCityAndProduction@@V?$allocator@UCityAndProduction@@@std@@@std@@V?$_Temp_iterator@UCityAndProduction@@@2@@std@@YA?AU_Nonscalar_ptr_iterator_tag@0@AAV?$_Vector_iterator@UCityAndProduction@@V?$allocator@UCityAndProduction@@@std@@@0@AAV?$_Temp_iterator@UCityAndProduction@@@0@@Z
_TEXT	SEGMENT
__Cat$ = -1						; size = 1
___formal$ = 8						; size = 4
___formal$ = 12						; size = 4
??$_Ptr_cat@V?$_Vector_iterator@UCityAndProduction@@V?$allocator@UCityAndProduction@@@std@@@std@@V?$_Temp_iterator@UCityAndProduction@@@2@@std@@YA?AU_Nonscalar_ptr_iterator_tag@0@AAV?$_Vector_iterator@UCityAndProduction@@V?$allocator@UCityAndProduction@@@std@@@0@AAV?$_Temp_iterator@UCityAndProduction@@@0@@Z PROC ; std::_Ptr_cat<std::_Vector_iterator<CityAndProduction,std::allocator<CityAndProduction> >,std::_Temp_iterator<CityAndProduction> >, COMDAT

; 1509 : 	{

	push	ecx

; 1510 : 	typename _Ptr_cat_helper<_T1, _T2>::_Ptr_cat _Cat;
; 1511 : 	return (_Cat);

	mov	al, BYTE PTR __Cat$[esp+4]

; 1512 : 	}

	pop	ecx
	ret	0
??$_Ptr_cat@V?$_Vector_iterator@UCityAndProduction@@V?$allocator@UCityAndProduction@@@std@@@std@@V?$_Temp_iterator@UCityAndProduction@@@2@@std@@YA?AU_Nonscalar_ptr_iterator_tag@0@AAV?$_Vector_iterator@UCityAndProduction@@V?$allocator@UCityAndProduction@@@std@@@0@AAV?$_Temp_iterator@UCityAndProduction@@@0@@Z ENDP ; std::_Ptr_cat<std::_Vector_iterator<CityAndProduction,std::allocator<CityAndProduction> >,std::_Temp_iterator<CityAndProduction> >
_TEXT	ENDS
PUBLIC	??$_Iter_random@PAUCityAndProduction@@V?$_Vector_iterator@UCityAndProduction@@V?$allocator@UCityAndProduction@@@std@@@std@@V23@@std@@YA?AUrandom_access_iterator_tag@0@ABQAUCityAndProduction@@ABV?$_Vector_iterator@UCityAndProduction@@V?$allocator@UCityAndProduction@@@std@@@0@1@Z ; std::_Iter_random<CityAndProduction *,std::_Vector_iterator<CityAndProduction,std::allocator<CityAndProduction> >,std::_Vector_iterator<CityAndProduction,std::allocator<CityAndProduction> > >
; Function compile flags: /Ogtpy
;	COMDAT ??$_Iter_random@PAUCityAndProduction@@V?$_Vector_iterator@UCityAndProduction@@V?$allocator@UCityAndProduction@@@std@@@std@@V23@@std@@YA?AUrandom_access_iterator_tag@0@ABQAUCityAndProduction@@ABV?$_Vector_iterator@UCityAndProduction@@V?$allocator@UCityAndProduction@@@std@@@0@1@Z
_TEXT	SEGMENT
___$ReturnUdt$ = 8					; size = 4
___formal$ = 12						; size = 4
___formal$ = 16						; size = 4
___formal$ = 20						; size = 4
??$_Iter_random@PAUCityAndProduction@@V?$_Vector_iterator@UCityAndProduction@@V?$allocator@UCityAndProduction@@@std@@@std@@V23@@std@@YA?AUrandom_access_iterator_tag@0@ABQAUCityAndProduction@@ABV?$_Vector_iterator@UCityAndProduction@@V?$allocator@UCityAndProduction@@@std@@@0@1@Z PROC ; std::_Iter_random<CityAndProduction *,std::_Vector_iterator<CityAndProduction,std::allocator<CityAndProduction> >,std::_Vector_iterator<CityAndProduction,std::allocator<CityAndProduction> > >, COMDAT

; 1007 : 	typename _Iter_random_helper3<
; 1008 : 		iterator_traits<_Iter1>::iterator_category, 
; 1009 : 		iterator_traits<_Iter2>::iterator_category,
; 1010 : 		iterator_traits<_Iter3>::iterator_category>::_Iter_random_cat _Cat;
; 1011 : 	return (_Cat);

	mov	eax, DWORD PTR ___$ReturnUdt$[esp-4]

; 1012 : 	}

	ret	0
??$_Iter_random@PAUCityAndProduction@@V?$_Vector_iterator@UCityAndProduction@@V?$allocator@UCityAndProduction@@@std@@@std@@V23@@std@@YA?AUrandom_access_iterator_tag@0@ABQAUCityAndProduction@@ABV?$_Vector_iterator@UCityAndProduction@@V?$allocator@UCityAndProduction@@@std@@@0@1@Z ENDP ; std::_Iter_random<CityAndProduction *,std::_Vector_iterator<CityAndProduction,std::allocator<CityAndProduction> >,std::_Vector_iterator<CityAndProduction,std::allocator<CityAndProduction> > >
_TEXT	ENDS
PUBLIC	??4?$_Temp_iterator@UCityAndProduction@@@std@@QAEAAV01@ABUCityAndProduction@@@Z ; std::_Temp_iterator<CityAndProduction>::operator=
; Function compile flags: /Ogtpy
; File c:\program files (x86)\microsoft visual studio 9.0\vc\include\memory
;	COMDAT ??4?$_Temp_iterator@UCityAndProduction@@@std@@QAEAAV01@ABUCityAndProduction@@@Z
_TEXT	SEGMENT
__Val$ = 8						; size = 4
??4?$_Temp_iterator@UCityAndProduction@@@std@@QAEAAV01@ABUCityAndProduction@@@Z PROC ; std::_Temp_iterator<CityAndProduction>::operator=, COMDAT
; _this$ = ecx

; 562  : 		{	// assign or construct value into active buffer, and increment

	mov	eax, ecx

; 563  : 		if (_Pbuf->_Current < _Pbuf->_Hiwater)

	mov	ecx, DWORD PTR [eax+16]
	mov	edx, DWORD PTR [ecx+4]
	cmp	edx, DWORD PTR [ecx+8]

; 564  : 			*_Pbuf->_Current++ = _Val;	// below high water mark, assign

	mov	ecx, DWORD PTR [ecx+4]
	push	esi
	jae	SHORT $LN2@operator
	mov	edx, DWORD PTR __Val$[esp]
	mov	esi, DWORD PTR [edx]
	mov	DWORD PTR [ecx], esi
	mov	edx, DWORD PTR [edx+4]
	mov	DWORD PTR [ecx+4], edx
	mov	ecx, DWORD PTR [eax+16]
	add	DWORD PTR [ecx+4], 8
	pop	esi

; 571  : 			}
; 572  : 		return (*this);
; 573  : 		}

	ret	4
$LN2@operator:

; 565  : 		else
; 566  : 			{	// above high water mark, construct
; 567  : 			_SCL_SECURE_VALIDATE((_Pbuf->_Current - _Pbuf->_Begin) < _Pbuf->_Size);
; 568  : 			_Pty _Ptr = &*_Pbuf->_Current;
; 569  : 			_Construct(_Ptr, _Val);

	test	ecx, ecx
	je	SHORT $LN7@operator
	mov	edx, DWORD PTR __Val$[esp]
	mov	esi, DWORD PTR [edx]
	mov	DWORD PTR [ecx], esi
	mov	edx, DWORD PTR [edx+4]
	mov	DWORD PTR [ecx+4], edx
$LN7@operator:

; 570  : 			_Pbuf->_Hiwater = ++_Pbuf->_Current;

	mov	ecx, DWORD PTR [eax+16]
	add	DWORD PTR [ecx+4], 8
	mov	ecx, DWORD PTR [eax+16]
	mov	edx, DWORD PTR [ecx+4]
	mov	DWORD PTR [ecx+8], edx
	pop	esi

; 571  : 			}
; 572  : 		return (*this);
; 573  : 		}

	ret	4
??4?$_Temp_iterator@UCityAndProduction@@@std@@QAEAAV01@ABUCityAndProduction@@@Z ENDP ; std::_Temp_iterator<CityAndProduction>::operator=
_TEXT	ENDS
PUBLIC	??D?$_Temp_iterator@UCityAndProduction@@@std@@QAEAAV01@XZ ; std::_Temp_iterator<CityAndProduction>::operator*
; Function compile flags: /Ogtpy
;	COMDAT ??D?$_Temp_iterator@UCityAndProduction@@@std@@QAEAAV01@XZ
_TEXT	SEGMENT
??D?$_Temp_iterator@UCityAndProduction@@@std@@QAEAAV01@XZ PROC ; std::_Temp_iterator<CityAndProduction>::operator*, COMDAT
; _this$ = ecx

; 576  : 		{	// pretend to return designated value

	mov	eax, ecx

; 577  : 		return (*this);
; 578  : 		}

	ret	0
??D?$_Temp_iterator@UCityAndProduction@@@std@@QAEAAV01@XZ ENDP ; std::_Temp_iterator<CityAndProduction>::operator*
_TEXT	ENDS
PUBLIC	??E?$_Temp_iterator@UCityAndProduction@@@std@@QAEAAV01@XZ ; std::_Temp_iterator<CityAndProduction>::operator++
; Function compile flags: /Ogtpy
;	COMDAT ??E?$_Temp_iterator@UCityAndProduction@@@std@@QAEAAV01@XZ
_TEXT	SEGMENT
??E?$_Temp_iterator@UCityAndProduction@@@std@@QAEAAV01@XZ PROC ; std::_Temp_iterator<CityAndProduction>::operator++, COMDAT
; _this$ = ecx

; 581  : 		{	// pretend to preincrement

	mov	eax, ecx

; 582  : 		return (*this);
; 583  : 		}

	ret	0
??E?$_Temp_iterator@UCityAndProduction@@@std@@QAEAAV01@XZ ENDP ; std::_Temp_iterator<CityAndProduction>::operator++
_TEXT	ENDS
PUBLIC	??$_Iter_random@V?$_Vector_iterator@UCityAndProduction@@V?$allocator@UCityAndProduction@@@std@@@std@@V12@@std@@YA?AUrandom_access_iterator_tag@0@ABV?$_Vector_iterator@UCityAndProduction@@V?$allocator@UCityAndProduction@@@std@@@0@0@Z ; std::_Iter_random<std::_Vector_iterator<CityAndProduction,std::allocator<CityAndProduction> >,std::_Vector_iterator<CityAndProduction,std::allocator<CityAndProduction> > >
; Function compile flags: /Ogtpy
; File c:\program files (x86)\microsoft visual studio 9.0\vc\include\xutility
;	COMDAT ??$_Iter_random@V?$_Vector_iterator@UCityAndProduction@@V?$allocator@UCityAndProduction@@@std@@@std@@V12@@std@@YA?AUrandom_access_iterator_tag@0@ABV?$_Vector_iterator@UCityAndProduction@@V?$allocator@UCityAndProduction@@@std@@@0@0@Z
_TEXT	SEGMENT
___$ReturnUdt$ = 8					; size = 4
___formal$ = 12						; size = 4
___formal$ = 16						; size = 4
??$_Iter_random@V?$_Vector_iterator@UCityAndProduction@@V?$allocator@UCityAndProduction@@@std@@@std@@V12@@std@@YA?AUrandom_access_iterator_tag@0@ABV?$_Vector_iterator@UCityAndProduction@@V?$allocator@UCityAndProduction@@@std@@@0@0@Z PROC ; std::_Iter_random<std::_Vector_iterator<CityAndProduction,std::allocator<CityAndProduction> >,std::_Vector_iterator<CityAndProduction,std::allocator<CityAndProduction> > >, COMDAT

; 994  : 	typename _Iter_random_helper<
; 995  : 		iterator_traits<_Iter1>::iterator_category, 
; 996  : 		iterator_traits<_Iter2>::iterator_category>::_Iter_random_cat _Cat;
; 997  : 	return (_Cat);

	mov	eax, DWORD PTR ___$ReturnUdt$[esp-4]

; 998  : 	}

	ret	0
??$_Iter_random@V?$_Vector_iterator@UCityAndProduction@@V?$allocator@UCityAndProduction@@@std@@@std@@V12@@std@@YA?AUrandom_access_iterator_tag@0@ABV?$_Vector_iterator@UCityAndProduction@@V?$allocator@UCityAndProduction@@@std@@@0@0@Z ENDP ; std::_Iter_random<std::_Vector_iterator<CityAndProduction,std::allocator<CityAndProduction> >,std::_Vector_iterator<CityAndProduction,std::allocator<CityAndProduction> > >
_TEXT	ENDS
PUBLIC	??$_Ptr_cat@V?$_Vector_iterator@UCityAndProduction@@V?$allocator@UCityAndProduction@@@std@@@std@@V12@@std@@YA?AU_Nonscalar_ptr_iterator_tag@0@AAV?$_Vector_iterator@UCityAndProduction@@V?$allocator@UCityAndProduction@@@std@@@0@0@Z ; std::_Ptr_cat<std::_Vector_iterator<CityAndProduction,std::allocator<CityAndProduction> >,std::_Vector_iterator<CityAndProduction,std::allocator<CityAndProduction> > >
; Function compile flags: /Ogtpy
;	COMDAT ??$_Ptr_cat@V?$_Vector_iterator@UCityAndProduction@@V?$allocator@UCityAndProduction@@@std@@@std@@V12@@std@@YA?AU_Nonscalar_ptr_iterator_tag@0@AAV?$_Vector_iterator@UCityAndProduction@@V?$allocator@UCityAndProduction@@@std@@@0@0@Z
_TEXT	SEGMENT
__Cat$ = -1						; size = 1
___formal$ = 8						; size = 4
___formal$ = 12						; size = 4
??$_Ptr_cat@V?$_Vector_iterator@UCityAndProduction@@V?$allocator@UCityAndProduction@@@std@@@std@@V12@@std@@YA?AU_Nonscalar_ptr_iterator_tag@0@AAV?$_Vector_iterator@UCityAndProduction@@V?$allocator@UCityAndProduction@@@std@@@0@0@Z PROC ; std::_Ptr_cat<std::_Vector_iterator<CityAndProduction,std::allocator<CityAndProduction> >,std::_Vector_iterator<CityAndProduction,std::allocator<CityAndProduction> > >, COMDAT

; 1509 : 	{

	push	ecx

; 1510 : 	typename _Ptr_cat_helper<_T1, _T2>::_Ptr_cat _Cat;
; 1511 : 	return (_Cat);

	mov	al, BYTE PTR __Cat$[esp+4]

; 1512 : 	}

	pop	ecx
	ret	0
??$_Ptr_cat@V?$_Vector_iterator@UCityAndProduction@@V?$allocator@UCityAndProduction@@@std@@@std@@V12@@std@@YA?AU_Nonscalar_ptr_iterator_tag@0@AAV?$_Vector_iterator@UCityAndProduction@@V?$allocator@UCityAndProduction@@@std@@@0@0@Z ENDP ; std::_Ptr_cat<std::_Vector_iterator<CityAndProduction,std::allocator<CityAndProduction> >,std::_Vector_iterator<CityAndProduction,std::allocator<CityAndProduction> > >
_TEXT	ENDS
PUBLIC	??$_Iter_random@PAUCityAndProduction@@V?$_Vector_iterator@UCityAndProduction@@V?$allocator@UCityAndProduction@@@std@@@std@@@std@@YA?AUrandom_access_iterator_tag@0@ABQAUCityAndProduction@@ABV?$_Vector_iterator@UCityAndProduction@@V?$allocator@UCityAndProduction@@@std@@@0@@Z ; std::_Iter_random<CityAndProduction *,std::_Vector_iterator<CityAndProduction,std::allocator<CityAndProduction> > >
; Function compile flags: /Ogtpy
;	COMDAT ??$_Iter_random@PAUCityAndProduction@@V?$_Vector_iterator@UCityAndProduction@@V?$allocator@UCityAndProduction@@@std@@@std@@@std@@YA?AUrandom_access_iterator_tag@0@ABQAUCityAndProduction@@ABV?$_Vector_iterator@UCityAndProduction@@V?$allocator@UCityAndProduction@@@std@@@0@@Z
_TEXT	SEGMENT
___$ReturnUdt$ = 8					; size = 4
___formal$ = 12						; size = 4
___formal$ = 16						; size = 4
??$_Iter_random@PAUCityAndProduction@@V?$_Vector_iterator@UCityAndProduction@@V?$allocator@UCityAndProduction@@@std@@@std@@@std@@YA?AUrandom_access_iterator_tag@0@ABQAUCityAndProduction@@ABV?$_Vector_iterator@UCityAndProduction@@V?$allocator@UCityAndProduction@@@std@@@0@@Z PROC ; std::_Iter_random<CityAndProduction *,std::_Vector_iterator<CityAndProduction,std::allocator<CityAndProduction> > >, COMDAT

; 994  : 	typename _Iter_random_helper<
; 995  : 		iterator_traits<_Iter1>::iterator_category, 
; 996  : 		iterator_traits<_Iter2>::iterator_category>::_Iter_random_cat _Cat;
; 997  : 	return (_Cat);

	mov	eax, DWORD PTR ___$ReturnUdt$[esp-4]

; 998  : 	}

	ret	0
??$_Iter_random@PAUCityAndProduction@@V?$_Vector_iterator@UCityAndProduction@@V?$allocator@UCityAndProduction@@@std@@@std@@@std@@YA?AUrandom_access_iterator_tag@0@ABQAUCityAndProduction@@ABV?$_Vector_iterator@UCityAndProduction@@V?$allocator@UCityAndProduction@@@std@@@0@@Z ENDP ; std::_Iter_random<CityAndProduction *,std::_Vector_iterator<CityAndProduction,std::allocator<CityAndProduction> > >
_TEXT	ENDS
PUBLIC	??$_Ptr_cat@PAUCityAndProduction@@V?$_Vector_iterator@UCityAndProduction@@V?$allocator@UCityAndProduction@@@std@@@std@@@std@@YA?AU_Nonscalar_ptr_iterator_tag@0@AAPAUCityAndProduction@@AAV?$_Vector_iterator@UCityAndProduction@@V?$allocator@UCityAndProduction@@@std@@@0@@Z ; std::_Ptr_cat<CityAndProduction *,std::_Vector_iterator<CityAndProduction,std::allocator<CityAndProduction> > >
; Function compile flags: /Ogtpy
;	COMDAT ??$_Ptr_cat@PAUCityAndProduction@@V?$_Vector_iterator@UCityAndProduction@@V?$allocator@UCityAndProduction@@@std@@@std@@@std@@YA?AU_Nonscalar_ptr_iterator_tag@0@AAPAUCityAndProduction@@AAV?$_Vector_iterator@UCityAndProduction@@V?$allocator@UCityAndProduction@@@std@@@0@@Z
_TEXT	SEGMENT
__Cat$ = -1						; size = 1
___formal$ = 8						; size = 4
___formal$ = 12						; size = 4
??$_Ptr_cat@PAUCityAndProduction@@V?$_Vector_iterator@UCityAndProduction@@V?$allocator@UCityAndProduction@@@std@@@std@@@std@@YA?AU_Nonscalar_ptr_iterator_tag@0@AAPAUCityAndProduction@@AAV?$_Vector_iterator@UCityAndProduction@@V?$allocator@UCityAndProduction@@@std@@@0@@Z PROC ; std::_Ptr_cat<CityAndProduction *,std::_Vector_iterator<CityAndProduction,std::allocator<CityAndProduction> > >, COMDAT

; 1509 : 	{

	push	ecx

; 1510 : 	typename _Ptr_cat_helper<_T1, _T2>::_Ptr_cat _Cat;
; 1511 : 	return (_Cat);

	mov	al, BYTE PTR __Cat$[esp+4]

; 1512 : 	}

	pop	ecx
	ret	0
??$_Ptr_cat@PAUCityAndProduction@@V?$_Vector_iterator@UCityAndProduction@@V?$allocator@UCityAndProduction@@@std@@@std@@@std@@YA?AU_Nonscalar_ptr_iterator_tag@0@AAPAUCityAndProduction@@AAV?$_Vector_iterator@UCityAndProduction@@V?$allocator@UCityAndProduction@@@std@@@0@@Z ENDP ; std::_Ptr_cat<CityAndProduction *,std::_Vector_iterator<CityAndProduction,std::allocator<CityAndProduction> > >
_TEXT	ENDS
PUBLIC	??$_Iter_random@V?$_Vector_iterator@UCityAndProduction@@V?$allocator@UCityAndProduction@@@std@@@std@@V12@V?$_Temp_iterator@UCityAndProduction@@@2@@std@@YA?AUforward_iterator_tag@0@ABV?$_Vector_iterator@UCityAndProduction@@V?$allocator@UCityAndProduction@@@std@@@0@0ABV?$_Temp_iterator@UCityAndProduction@@@0@@Z ; std::_Iter_random<std::_Vector_iterator<CityAndProduction,std::allocator<CityAndProduction> >,std::_Vector_iterator<CityAndProduction,std::allocator<CityAndProduction> >,std::_Temp_iterator<CityAndProduction> >
; Function compile flags: /Ogtpy
;	COMDAT ??$_Iter_random@V?$_Vector_iterator@UCityAndProduction@@V?$allocator@UCityAndProduction@@@std@@@std@@V12@V?$_Temp_iterator@UCityAndProduction@@@2@@std@@YA?AUforward_iterator_tag@0@ABV?$_Vector_iterator@UCityAndProduction@@V?$allocator@UCityAndProduction@@@std@@@0@0ABV?$_Temp_iterator@UCityAndProduction@@@0@@Z
_TEXT	SEGMENT
___$ReturnUdt$ = 8					; size = 4
___formal$ = 12						; size = 4
___formal$ = 16						; size = 4
___formal$ = 20						; size = 4
??$_Iter_random@V?$_Vector_iterator@UCityAndProduction@@V?$allocator@UCityAndProduction@@@std@@@std@@V12@V?$_Temp_iterator@UCityAndProduction@@@2@@std@@YA?AUforward_iterator_tag@0@ABV?$_Vector_iterator@UCityAndProduction@@V?$allocator@UCityAndProduction@@@std@@@0@0ABV?$_Temp_iterator@UCityAndProduction@@@0@@Z PROC ; std::_Iter_random<std::_Vector_iterator<CityAndProduction,std::allocator<CityAndProduction> >,std::_Vector_iterator<CityAndProduction,std::allocator<CityAndProduction> >,std::_Temp_iterator<CityAndProduction> >, COMDAT

; 1007 : 	typename _Iter_random_helper3<
; 1008 : 		iterator_traits<_Iter1>::iterator_category, 
; 1009 : 		iterator_traits<_Iter2>::iterator_category,
; 1010 : 		iterator_traits<_Iter3>::iterator_category>::_Iter_random_cat _Cat;
; 1011 : 	return (_Cat);

	mov	eax, DWORD PTR ___$ReturnUdt$[esp-4]

; 1012 : 	}

	ret	0
??$_Iter_random@V?$_Vector_iterator@UCityAndProduction@@V?$allocator@UCityAndProduction@@@std@@@std@@V12@V?$_Temp_iterator@UCityAndProduction@@@2@@std@@YA?AUforward_iterator_tag@0@ABV?$_Vector_iterator@UCityAndProduction@@V?$allocator@UCityAndProduction@@@std@@@0@0ABV?$_Temp_iterator@UCityAndProduction@@@0@@Z ENDP ; std::_Iter_random<std::_Vector_iterator<CityAndProduction,std::allocator<CityAndProduction> >,std::_Vector_iterator<CityAndProduction,std::allocator<CityAndProduction> >,std::_Temp_iterator<CityAndProduction> >
_TEXT	ENDS
PUBLIC	??$_Iter_cat@PAUCityAndProduction@@@std@@YA?AUrandom_access_iterator_tag@0@ABQAUCityAndProduction@@@Z ; std::_Iter_cat<CityAndProduction *>
; Function compile flags: /Ogtpy
;	COMDAT ??$_Iter_cat@PAUCityAndProduction@@@std@@YA?AUrandom_access_iterator_tag@0@ABQAUCityAndProduction@@@Z
_TEXT	SEGMENT
___$ReturnUdt$ = 8					; size = 4
___formal$ = 12						; size = 4
??$_Iter_cat@PAUCityAndProduction@@@std@@YA?AUrandom_access_iterator_tag@0@ABQAUCityAndProduction@@@Z PROC ; std::_Iter_cat<CityAndProduction *>, COMDAT

; 953  : 	typename iterator_traits<_Iter>::iterator_category _Cat;
; 954  : 	return (_Cat);

	mov	eax, DWORD PTR ___$ReturnUdt$[esp-4]

; 955  : 	}

	ret	0
??$_Iter_cat@PAUCityAndProduction@@@std@@YA?AUrandom_access_iterator_tag@0@ABQAUCityAndProduction@@@Z ENDP ; std::_Iter_cat<CityAndProduction *>
_TEXT	ENDS
PUBLIC	??$_Advance@PAUCityAndProduction@@H@std@@YAXAAPAUCityAndProduction@@HUrandom_access_iterator_tag@0@@Z ; std::_Advance<CityAndProduction *,int>
; Function compile flags: /Ogtpy
;	COMDAT ??$_Advance@PAUCityAndProduction@@H@std@@YAXAAPAUCityAndProduction@@HUrandom_access_iterator_tag@0@@Z
_TEXT	SEGMENT
__Where$ = 8						; size = 4
__Off$ = 12						; size = 4
___formal$ = 16						; size = 1
??$_Advance@PAUCityAndProduction@@H@std@@YAXAAPAUCityAndProduction@@HUrandom_access_iterator_tag@0@@Z PROC ; std::_Advance<CityAndProduction *,int>, COMDAT

; 1822 : 	_Where += _Off;

	mov	eax, DWORD PTR __Off$[esp-4]
	lea	ecx, DWORD PTR [eax*8]
	mov	eax, DWORD PTR __Where$[esp-4]
	add	DWORD PTR [eax], ecx

; 1823 : 	}

	ret	0
??$_Advance@PAUCityAndProduction@@H@std@@YAXAAPAUCityAndProduction@@HUrandom_access_iterator_tag@0@@Z ENDP ; std::_Advance<CityAndProduction *,int>
_TEXT	ENDS
PUBLIC	??$_Iter_random@PAUCityAndProduction@@PAU1@V?$_Vector_iterator@UCityAndProduction@@V?$allocator@UCityAndProduction@@@std@@@std@@@std@@YA?AUrandom_access_iterator_tag@0@ABQAUCityAndProduction@@0ABV?$_Vector_iterator@UCityAndProduction@@V?$allocator@UCityAndProduction@@@std@@@0@@Z ; std::_Iter_random<CityAndProduction *,CityAndProduction *,std::_Vector_iterator<CityAndProduction,std::allocator<CityAndProduction> > >
; Function compile flags: /Ogtpy
;	COMDAT ??$_Iter_random@PAUCityAndProduction@@PAU1@V?$_Vector_iterator@UCityAndProduction@@V?$allocator@UCityAndProduction@@@std@@@std@@@std@@YA?AUrandom_access_iterator_tag@0@ABQAUCityAndProduction@@0ABV?$_Vector_iterator@UCityAndProduction@@V?$allocator@UCityAndProduction@@@std@@@0@@Z
_TEXT	SEGMENT
___$ReturnUdt$ = 8					; size = 4
___formal$ = 12						; size = 4
___formal$ = 16						; size = 4
___formal$ = 20						; size = 4
??$_Iter_random@PAUCityAndProduction@@PAU1@V?$_Vector_iterator@UCityAndProduction@@V?$allocator@UCityAndProduction@@@std@@@std@@@std@@YA?AUrandom_access_iterator_tag@0@ABQAUCityAndProduction@@0ABV?$_Vector_iterator@UCityAndProduction@@V?$allocator@UCityAndProduction@@@std@@@0@@Z PROC ; std::_Iter_random<CityAndProduction *,CityAndProduction *,std::_Vector_iterator<CityAndProduction,std::allocator<CityAndProduction> > >, COMDAT

; 1007 : 	typename _Iter_random_helper3<
; 1008 : 		iterator_traits<_Iter1>::iterator_category, 
; 1009 : 		iterator_traits<_Iter2>::iterator_category,
; 1010 : 		iterator_traits<_Iter3>::iterator_category>::_Iter_random_cat _Cat;
; 1011 : 	return (_Cat);

	mov	eax, DWORD PTR ___$ReturnUdt$[esp-4]

; 1012 : 	}

	ret	0
??$_Iter_random@PAUCityAndProduction@@PAU1@V?$_Vector_iterator@UCityAndProduction@@V?$allocator@UCityAndProduction@@@std@@@std@@@std@@YA?AUrandom_access_iterator_tag@0@ABQAUCityAndProduction@@0ABV?$_Vector_iterator@UCityAndProduction@@V?$allocator@UCityAndProduction@@@std@@@0@@Z ENDP ; std::_Iter_random<CityAndProduction *,CityAndProduction *,std::_Vector_iterator<CityAndProduction,std::allocator<CityAndProduction> > >
_TEXT	ENDS
EXTRN	__imp_??0exception@std@@QAE@ABV01@@Z:PROC
;	COMDAT xdata$x
xdata$x	SEGMENT
__unwindtable$??0logic_error@std@@QAE@ABV01@@Z DD 0ffffffffH
	DD	FLAT:__unwindfunclet$??0logic_error@std@@QAE@ABV01@@Z$0
__ehfuncinfo$??0logic_error@std@@QAE@ABV01@@Z DD 019930522H
	DD	01H
	DD	FLAT:__unwindtable$??0logic_error@std@@QAE@ABV01@@Z
	DD	2 DUP(00H)
	DD	2 DUP(00H)
	DD	00H
	DD	01H
; Function compile flags: /Ogtpy
xdata$x	ENDS
;	COMDAT ??0logic_error@std@@QAE@ABV01@@Z
_TEXT	SEGMENT
_this$ = -16						; size = 4
__$EHRec$ = -12						; size = 12
___that$ = 8						; size = 4
??0logic_error@std@@QAE@ABV01@@Z PROC			; std::logic_error::logic_error, COMDAT
; _this$ = ecx
	push	-1
	push	__ehhandler$??0logic_error@std@@QAE@ABV01@@Z
	mov	eax, DWORD PTR fs:0
	push	eax
	mov	DWORD PTR fs:0, esp
	push	ecx
	push	esi
	push	edi
	mov	edi, DWORD PTR ___that$[esp+20]
	mov	esi, ecx
	push	edi
	mov	DWORD PTR _this$[esp+28], esi
	call	DWORD PTR __imp_??0exception@std@@QAE@ABV01@@Z
	add	edi, 12					; 0000000cH
	push	edi
	lea	ecx, DWORD PTR [esi+12]
	mov	DWORD PTR __$EHRec$[esp+36], 0
	mov	DWORD PTR [esi], OFFSET ??_7logic_error@std@@6B@
	call	DWORD PTR __imp_??0?$basic_string@DU?$char_traits@D@std@@V?$allocator@D@2@@std@@QAE@ABV01@@Z
	mov	ecx, DWORD PTR __$EHRec$[esp+24]
	pop	edi
	mov	eax, esi
	pop	esi
	mov	DWORD PTR fs:0, ecx
	add	esp, 16					; 00000010H
	ret	4
_TEXT	ENDS
;	COMDAT text$x
text$x	SEGMENT
__unwindfunclet$??0logic_error@std@@QAE@ABV01@@Z$0:
	mov	ecx, DWORD PTR _this$[ebp]
	jmp	DWORD PTR __imp_??1exception@std@@UAE@XZ
__ehhandler$??0logic_error@std@@QAE@ABV01@@Z:
	mov	eax, OFFSET __ehfuncinfo$??0logic_error@std@@QAE@ABV01@@Z
	jmp	___CxxFrameHandler3
text$x	ENDS
??0logic_error@std@@QAE@ABV01@@Z ENDP			; std::logic_error::logic_error
PUBLIC	??CCvLuaArgsHandle@@QBEPAVICvEngineScriptSystemArgs1@@XZ ; CvLuaArgsHandle::operator->
; Function compile flags: /Ogtpy
; File c:\users\enormousapplepie\documents\github\lekmod\lekmod_dll\cvgamecoredll_expansion2\lua\cvluaargshandle.h
;	COMDAT ??CCvLuaArgsHandle@@QBEPAVICvEngineScriptSystemArgs1@@XZ
_TEXT	SEGMENT
??CCvLuaArgsHandle@@QBEPAVICvEngineScriptSystemArgs1@@XZ PROC ; CvLuaArgsHandle::operator->, COMDAT
; _this$ = ecx

; 40   : 	return m_Ptr;

	mov	eax, DWORD PTR [ecx]

; 41   : }

	ret	0
??CCvLuaArgsHandle@@QBEPAVICvEngineScriptSystemArgs1@@XZ ENDP ; CvLuaArgsHandle::operator->
_TEXT	ENDS
PUBLIC	?get@CvLuaArgsHandle@@QBEPAVICvEngineScriptSystemArgs1@@XZ ; CvLuaArgsHandle::get
; Function compile flags: /Ogtpy
;	COMDAT ?get@CvLuaArgsHandle@@QBEPAVICvEngineScriptSystemArgs1@@XZ
_TEXT	SEGMENT
?get@CvLuaArgsHandle@@QBEPAVICvEngineScriptSystemArgs1@@XZ PROC ; CvLuaArgsHandle::get, COMDAT
; _this$ = ecx

; 45   : 	return m_Ptr;

	mov	eax, DWORD PTR [ecx]

; 46   : }

	ret	0
?get@CvLuaArgsHandle@@QBEPAVICvEngineScriptSystemArgs1@@XZ ENDP ; CvLuaArgsHandle::get
_TEXT	ENDS
PUBLIC	?getMap@CvGlobals@@QAEAAVCvMap@@XZ		; CvGlobals::getMap
; Function compile flags: /Ogtpy
; File c:\users\enormousapplepie\documents\github\lekmod\lekmod_dll\cvgamecoredll_expansion2\cvglobals.h
;	COMDAT ?getMap@CvGlobals@@QAEAAVCvMap@@XZ
_TEXT	SEGMENT
?getMap@CvGlobals@@QAEAAVCvMap@@XZ PROC			; CvGlobals::getMap, COMDAT
; _this$ = ecx

; 175  : 		return *m_map;    // inlined for perf reasons, do not use outside of dll

	mov	eax, DWORD PTR [ecx+52]

; 176  : 	}

	ret	0
?getMap@CvGlobals@@QAEAAVCvMap@@XZ ENDP			; CvGlobals::getMap
_TEXT	ENDS
PUBLIC	?getGame@CvGlobals@@QAEAAVCvGame@@XZ		; CvGlobals::getGame
; Function compile flags: /Ogtpy
;	COMDAT ?getGame@CvGlobals@@QAEAAVCvGame@@XZ
_TEXT	SEGMENT
?getGame@CvGlobals@@QAEAAVCvGame@@XZ PROC		; CvGlobals::getGame, COMDAT
; _this$ = ecx

; 183  : 		return *m_game;    // inlined for perf reasons, do not use outside of dll

	mov	eax, DWORD PTR [ecx+48]

; 184  : 	}

	ret	0
?getGame@CvGlobals@@QAEAAVCvGame@@XZ ENDP		; CvGlobals::getGame
_TEXT	ENDS
PUBLIC	?getPlotDirectionX@CvGlobals@@QAEPAHXZ		; CvGlobals::getPlotDirectionX
; Function compile flags: /Ogtpy
;	COMDAT ?getPlotDirectionX@CvGlobals@@QAEPAHXZ
_TEXT	SEGMENT
?getPlotDirectionX@CvGlobals@@QAEPAHXZ PROC		; CvGlobals::getPlotDirectionX, COMDAT
; _this$ = ecx

; 191  : 		return m_aiPlotDirectionX;

	lea	eax, DWORD PTR [ecx+112]

; 192  : 	}

	ret	0
?getPlotDirectionX@CvGlobals@@QAEPAHXZ ENDP		; CvGlobals::getPlotDirectionX
_TEXT	ENDS
PUBLIC	?getPlotDirectionY@CvGlobals@@QAEPAHXZ		; CvGlobals::getPlotDirectionY
; Function compile flags: /Ogtpy
;	COMDAT ?getPlotDirectionY@CvGlobals@@QAEPAHXZ
_TEXT	SEGMENT
?getPlotDirectionY@CvGlobals@@QAEPAHXZ PROC		; CvGlobals::getPlotDirectionY, COMDAT
; _this$ = ecx

; 195  : 		return m_aiPlotDirectionY;

	lea	eax, DWORD PTR [ecx+136]

; 196  : 	}

	ret	0
?getPlotDirectionY@CvGlobals@@QAEPAHXZ ENDP		; CvGlobals::getPlotDirectionY
_TEXT	ENDS
PUBLIC	?getAI_STRATEGY_MINIMUM_SETTLE_FERTILITY@CvGlobals@@QAEHXZ ; CvGlobals::getAI_STRATEGY_MINIMUM_SETTLE_FERTILITY
; Function compile flags: /Ogtpy
;	COMDAT ?getAI_STRATEGY_MINIMUM_SETTLE_FERTILITY@CvGlobals@@QAEHXZ
_TEXT	SEGMENT
?getAI_STRATEGY_MINIMUM_SETTLE_FERTILITY@CvGlobals@@QAEHXZ PROC ; CvGlobals::getAI_STRATEGY_MINIMUM_SETTLE_FERTILITY, COMDAT
; _this$ = ecx

; 1093 : 		return m_iAI_STRATEGY_MINIMUM_SETTLE_FERTILITY;

	mov	eax, DWORD PTR [ecx+2028]

; 1094 : 	}

	ret	0
?getAI_STRATEGY_MINIMUM_SETTLE_FERTILITY@CvGlobals@@QAEHXZ ENDP ; CvGlobals::getAI_STRATEGY_MINIMUM_SETTLE_FERTILITY
_TEXT	ENDS
PUBLIC	?getAI_HOMELAND_GREAT_PERSON_TURNS_TO_WAIT@CvGlobals@@QAEHXZ ; CvGlobals::getAI_HOMELAND_GREAT_PERSON_TURNS_TO_WAIT
; Function compile flags: /Ogtpy
;	COMDAT ?getAI_HOMELAND_GREAT_PERSON_TURNS_TO_WAIT@CvGlobals@@QAEHXZ
_TEXT	SEGMENT
?getAI_HOMELAND_GREAT_PERSON_TURNS_TO_WAIT@CvGlobals@@QAEHXZ PROC ; CvGlobals::getAI_HOMELAND_GREAT_PERSON_TURNS_TO_WAIT, COMDAT
; _this$ = ecx

; 1765 : 		return m_iAI_HOMELAND_GREAT_PERSON_TURNS_TO_WAIT;

	mov	eax, DWORD PTR [ecx+2700]

; 1766 : 	}

	ret	0
?getAI_HOMELAND_GREAT_PERSON_TURNS_TO_WAIT@CvGlobals@@QAEHXZ ENDP ; CvGlobals::getAI_HOMELAND_GREAT_PERSON_TURNS_TO_WAIT
_TEXT	ENDS
PUBLIC	?getNORMAL_ANNEX@CvGlobals@@QAEMXZ		; CvGlobals::getNORMAL_ANNEX
EXTRN	__fltused:DWORD
; Function compile flags: /Ogtpy
;	COMDAT ?getNORMAL_ANNEX@CvGlobals@@QAEMXZ
_TEXT	SEGMENT
?getNORMAL_ANNEX@CvGlobals@@QAEMXZ PROC			; CvGlobals::getNORMAL_ANNEX, COMDAT
; _this$ = ecx

; 2505 : 		return m_fNORMAL_ANNEX;

	fld	DWORD PTR [ecx+8192]

; 2506 : 	}

	ret	0
?getNORMAL_ANNEX@CvGlobals@@QAEMXZ ENDP			; CvGlobals::getNORMAL_ANNEX
_TEXT	ENDS
PUBLIC	?getAGGRESIVE_ANNEX@CvGlobals@@QAEMXZ		; CvGlobals::getAGGRESIVE_ANNEX
; Function compile flags: /Ogtpy
;	COMDAT ?getAGGRESIVE_ANNEX@CvGlobals@@QAEMXZ
_TEXT	SEGMENT
?getAGGRESIVE_ANNEX@CvGlobals@@QAEMXZ PROC		; CvGlobals::getAGGRESIVE_ANNEX, COMDAT
; _this$ = ecx

; 2509 : 		return m_fAGGRESSIVE_ANNEX;

	fld	DWORD PTR [ecx+8196]

; 2510 : 	}

	ret	0
?getAGGRESIVE_ANNEX@CvGlobals@@QAEMXZ ENDP		; CvGlobals::getAGGRESIVE_ANNEX
_TEXT	ENDS
PUBLIC	?getDLLIFace@CvGlobals@@QAEPAVICvEngineUtility4@@XZ ; CvGlobals::getDLLIFace
; Function compile flags: /Ogtpy
;	COMDAT ?getDLLIFace@CvGlobals@@QAEPAVICvEngineUtility4@@XZ
_TEXT	SEGMENT
?getDLLIFace@CvGlobals@@QAEPAVICvEngineUtility4@@XZ PROC ; CvGlobals::getDLLIFace, COMDAT
; _this$ = ecx

; 7703 : 		return m_pDLL;

	mov	eax, DWORD PTR [ecx+8564]

; 7704 : 	}

	ret	0
?getDLLIFace@CvGlobals@@QAEPAVICvEngineUtility4@@XZ ENDP ; CvGlobals::getDLLIFace
_TEXT	ENDS
PUBLIC	??0OperationSlot@@QAE@XZ			; OperationSlot::OperationSlot
; Function compile flags: /Ogtpy
; File c:\users\enormousapplepie\documents\github\lekmod\lekmod_dll\cvgamecoredll_expansion2\cvaioperation.h
;	COMDAT ??0OperationSlot@@QAE@XZ
_TEXT	SEGMENT
??0OperationSlot@@QAE@XZ PROC				; OperationSlot::OperationSlot, COMDAT
; _this$ = ecx

; 94   : 	OperationSlot()

	mov	eax, ecx

; 95   : 	{
; 96   : 		m_iOperationID = -1;

	or	ecx, -1
	mov	DWORD PTR [eax], ecx

; 97   : 		m_iArmyID = FFreeList::INVALID_INDEX;

	mov	DWORD PTR [eax+4], ecx

; 98   : 		m_iSlotID = -1;

	mov	DWORD PTR [eax+8], ecx

; 99   : 	}

	ret	0
??0OperationSlot@@QAE@XZ ENDP				; OperationSlot::OperationSlot
_TEXT	ENDS
PUBLIC	?IsValid@OperationSlot@@QBE_NXZ			; OperationSlot::IsValid
; Function compile flags: /Ogtpy
;	COMDAT ?IsValid@OperationSlot@@QBE_NXZ
_TEXT	SEGMENT
?IsValid@OperationSlot@@QBE_NXZ PROC			; OperationSlot::IsValid, COMDAT
; _this$ = ecx

; 108  : 		return (m_iArmyID != FFreeList::INVALID_INDEX && m_iSlotID != -1 && m_iOperationID != -1);

	or	eax, -1
	cmp	DWORD PTR [ecx+4], eax
	je	SHORT $LN3@IsValid
	cmp	DWORD PTR [ecx+8], eax
	je	SHORT $LN3@IsValid
	cmp	DWORD PTR [ecx], eax
	je	SHORT $LN3@IsValid
	mov	eax, 1

; 109  : 	}

	ret	0
$LN3@IsValid:

; 108  : 		return (m_iArmyID != FFreeList::INVALID_INDEX && m_iSlotID != -1 && m_iOperationID != -1);

	xor	eax, eax

; 109  : 	}

	ret	0
?IsValid@OperationSlot@@QBE_NXZ ENDP			; OperationSlot::IsValid
_TEXT	ENDS
PUBLIC	?getPlayer@CvPlayerAI@@SAAAV1@W4PlayerTypes@@@Z	; CvPlayerAI::getPlayer
; Function compile flags: /Ogtpy
; File c:\users\enormousapplepie\documents\github\lekmod\lekmod_dll\cvgamecoredll_expansion2\cvplayerai.h
;	COMDAT ?getPlayer@CvPlayerAI@@SAAAV1@W4PlayerTypes@@@Z
_TEXT	SEGMENT
_ePlayer$ = 8						; size = 4
?getPlayer@CvPlayerAI@@SAAAV1@W4PlayerTypes@@@Z PROC	; CvPlayerAI::getPlayer, COMDAT

; 28   : 		CvAssertMsg(ePlayer != NO_PLAYER, "Player is not assigned a valid value");
; 29   : 		CvAssertMsg(ePlayer < MAX_PLAYERS, "Player is not assigned a valid value");
; 30   : 		return m_aPlayers[ePlayer];

	mov	eax, DWORD PTR _ePlayer$[esp-4]
	imul	eax, 63236				; 0000f704H
	add	eax, DWORD PTR ?m_aPlayers@CvPlayerAI@@1PAV1@A ; CvPlayerAI::m_aPlayers

; 31   : 	}

	ret	0
?getPlayer@CvPlayerAI@@SAAAV1@W4PlayerTypes@@@Z ENDP	; CvPlayerAI::getPlayer
_TEXT	ENDS
PUBLIC	?getX@CvPlot@@QBEHXZ				; CvPlot::getX
; Function compile flags: /Ogtpy
; File c:\users\enormousapplepie\documents\github\lekmod\lekmod_dll\cvgamecoredll_expansion2\cvplot.h
;	COMDAT ?getX@CvPlot@@QBEHXZ
_TEXT	SEGMENT
?getX@CvPlot@@QBEHXZ PROC				; CvPlot::getX, COMDAT
; _this$ = ecx

; 307  : 		return m_iX;

	movsx	eax, WORD PTR [ecx]

; 308  : 	}

	ret	0
?getX@CvPlot@@QBEHXZ ENDP				; CvPlot::getX
_TEXT	ENDS
PUBLIC	?getY@CvPlot@@QBEHXZ				; CvPlot::getY
; Function compile flags: /Ogtpy
;	COMDAT ?getY@CvPlot@@QBEHXZ
_TEXT	SEGMENT
?getY@CvPlot@@QBEHXZ PROC				; CvPlot::getY, COMDAT
; _this$ = ecx

; 312  : 		return m_iY;

	movsx	eax, WORD PTR [ecx+2]

; 313  : 	}

	ret	0
?getY@CvPlot@@QBEHXZ ENDP				; CvPlot::getY
_TEXT	ENDS
PUBLIC	?getArea@CvPlot@@QBEHXZ				; CvPlot::getArea
; Function compile flags: /Ogtpy
;	COMDAT ?getArea@CvPlot@@QBEHXZ
_TEXT	SEGMENT
?getArea@CvPlot@@QBEHXZ PROC				; CvPlot::getArea, COMDAT
; _this$ = ecx

; 324  : 		return m_iArea;

	mov	eax, DWORD PTR [ecx+356]

; 325  : 	}

	ret	0
?getArea@CvPlot@@QBEHXZ ENDP				; CvPlot::getArea
_TEXT	ENDS
PUBLIC	?getOwner@CvPlot@@QBE?AW4PlayerTypes@@XZ	; CvPlot::getOwner
; Function compile flags: /Ogtpy
;	COMDAT ?getOwner@CvPlot@@QBE?AW4PlayerTypes@@XZ
_TEXT	SEGMENT
?getOwner@CvPlot@@QBE?AW4PlayerTypes@@XZ PROC		; CvPlot::getOwner, COMDAT
; _this$ = ecx

; 387  : 		return (PlayerTypes)m_eOwner;

	movsx	eax, BYTE PTR [ecx+4]

; 388  : 	}

	ret	0
?getOwner@CvPlot@@QBE?AW4PlayerTypes@@XZ ENDP		; CvPlot::getOwner
_TEXT	ENDS
PUBLIC	?isWater@CvPlot@@QBE_NXZ			; CvPlot::isWater
; Function compile flags: /Ogtpy
;	COMDAT ?isWater@CvPlot@@QBE_NXZ
_TEXT	SEGMENT
?isWater@CvPlot@@QBE_NXZ PROC				; CvPlot::isWater, COMDAT
; _this$ = ecx

; 409  : 		return (PlotTypes)m_ePlotType == PLOT_OCEAN;

	xor	eax, eax
	cmp	BYTE PTR [ecx+5], 3
	sete	al

; 410  : 	};

	ret	0
?isWater@CvPlot@@QBE_NXZ ENDP				; CvPlot::isWater
_TEXT	ENDS
PUBLIC	?getPlotCity@CvPlot@@QBEPAVCvCity@@XZ		; CvPlot::getPlotCity
EXTRN	?getCity@CvPlayer@@QAEPAVCvCity@@H@Z:PROC	; CvPlayer::getCity
; Function compile flags: /Ogtpy
;	COMDAT ?getPlotCity@CvPlot@@QBEPAVCvCity@@XZ
_TEXT	SEGMENT
?getPlotCity@CvPlot@@QBEPAVCvCity@@XZ PROC		; CvPlot::getPlotCity, COMDAT
; _this$ = ecx

; 533  : 		if((m_plotCity.eOwner >= 0) && m_plotCity.eOwner < MAX_PLAYERS)

	mov	eax, DWORD PTR [ecx+104]
	test	eax, eax
	jl	SHORT $LN1@getPlotCit
	cmp	eax, 64					; 00000040H
	jge	SHORT $LN1@getPlotCit

; 534  : 			return (GET_PLAYER((PlayerTypes)m_plotCity.eOwner).getCity(m_plotCity.iID));

	mov	ecx, DWORD PTR [ecx+108]
	imul	eax, 63236				; 0000f704H
	add	eax, DWORD PTR ?m_aPlayers@CvPlayerAI@@1PAV1@A ; CvPlayerAI::m_aPlayers
	push	ecx
	mov	ecx, eax
	call	?getCity@CvPlayer@@QAEPAVCvCity@@H@Z	; CvPlayer::getCity

; 537  : 	}

	ret	0
$LN1@getPlotCit:

; 535  : 
; 536  : 		return NULL;

	xor	eax, eax

; 537  : 	}

	ret	0
?getPlotCity@CvPlot@@QBEPAVCvCity@@XZ ENDP		; CvPlot::getPlotCity
_TEXT	ENDS
PUBLIC	?GetBit@PlotBoolField@CvPlot@@QBE_NI@Z		; CvPlot::PlotBoolField::GetBit
; Function compile flags: /Ogtpy
;	COMDAT ?GetBit@PlotBoolField@CvPlot@@QBE_NI@Z
_TEXT	SEGMENT
_uiEntry$ = 8						; size = 4
?GetBit@PlotBoolField@CvPlot@@QBE_NI@Z PROC		; CvPlot::PlotBoolField::GetBit, COMDAT
; _this$ = ecx

; 767  : 		{

	mov	edx, ecx

; 768  : 			const uint uiOffset = uiEntry/eSize;

	mov	ecx, DWORD PTR _uiEntry$[esp-4]
	push	esi
	mov	eax, ecx
	shr	eax, 5

; 769  : 			return m_dwBits[uiOffset] & 1<<(uiEntry-(eSize*uiOffset));

	mov	esi, eax
	shl	esi, 5
	sub	ecx, esi
	mov	esi, 1
	shl	esi, cl
	test	esi, DWORD PTR [edx+eax*4]
	pop	esi
	setne	al

; 770  : 		}

	ret	4
?GetBit@PlotBoolField@CvPlot@@QBE_NI@Z ENDP		; CvPlot::PlotBoolField::GetBit
_TEXT	ENDS
PUBLIC	?coordRange@@YAHHH_N@Z				; coordRange
; Function compile flags: /Ogtpy
; File c:\users\enormousapplepie\documents\github\lekmod\lekmod_dll\cvgamecoredll_expansion2\cvmap.h
;	COMDAT ?coordRange@@YAHHH_N@Z
_TEXT	SEGMENT
_iCoord$ = 8						; size = 4
_iRange$ = 12						; size = 4
_bWrap$ = 16						; size = 1
?coordRange@@YAHHH_N@Z PROC				; coordRange, COMDAT

; 88   : 	if(bWrap)

	cmp	BYTE PTR _bWrap$[esp-4], 0
	mov	eax, DWORD PTR _iCoord$[esp-4]
	je	SHORT $LN5@coordRange

; 89   : 	{
; 90   : 		if(iCoord < 0)
; 91   : 		{
; 92   : 			return (iRange + (iCoord % iRange));

	mov	ecx, DWORD PTR _iRange$[esp-4]
	test	eax, eax
	jge	SHORT $LN3@coordRange
	cdq
	idiv	ecx
	mov	eax, edx
	add	eax, ecx

; 97   : 		}
; 98   : 	}
; 99   : 
; 100  : 	return iCoord;
; 101  : }

	ret	0
$LN3@coordRange:

; 93   : 		}
; 94   : 		else if(iCoord >= iRange)

	cmp	eax, ecx
	jl	SHORT $LN5@coordRange

; 95   : 		{
; 96   : 			return (iCoord % iRange);

	cdq
	idiv	ecx
	mov	eax, edx
$LN5@coordRange:

; 97   : 		}
; 98   : 	}
; 99   : 
; 100  : 	return iCoord;
; 101  : }

	ret	0
?coordRange@@YAHHH_N@Z ENDP				; coordRange
_TEXT	ENDS
PUBLIC	?numPlots@CvMap@@QBEHXZ				; CvMap::numPlots
; Function compile flags: /Ogtpy
;	COMDAT ?numPlots@CvMap@@QBEHXZ
_TEXT	SEGMENT
?numPlots@CvMap@@QBEHXZ PROC				; CvMap::numPlots, COMDAT
; _this$ = ecx

; 170  : 		return m_iGridSize;

	mov	eax, DWORD PTR [ecx+4028]

; 171  : 	}

	ret	0
?numPlots@CvMap@@QBEHXZ ENDP				; CvMap::numPlots
_TEXT	ENDS
PUBLIC	?getGridWidth@CvMap@@QBEHXZ			; CvMap::getGridWidth
; Function compile flags: /Ogtpy
;	COMDAT ?getGridWidth@CvMap@@QBEHXZ
_TEXT	SEGMENT
?getGridWidth@CvMap@@QBEHXZ PROC			; CvMap::getGridWidth, COMDAT
; _this$ = ecx

; 198  : 		return m_iGridWidth;

	mov	eax, DWORD PTR [ecx+4020]

; 199  : 	}

	ret	0
?getGridWidth@CvMap@@QBEHXZ ENDP			; CvMap::getGridWidth
_TEXT	ENDS
PUBLIC	?getGridHeight@CvMap@@QBEHXZ			; CvMap::getGridHeight
; Function compile flags: /Ogtpy
;	COMDAT ?getGridHeight@CvMap@@QBEHXZ
_TEXT	SEGMENT
?getGridHeight@CvMap@@QBEHXZ PROC			; CvMap::getGridHeight, COMDAT
; _this$ = ecx

; 206  : 		return m_iGridHeight;

	mov	eax, DWORD PTR [ecx+4024]

; 207  : 	}

	ret	0
?getGridHeight@CvMap@@QBEHXZ ENDP			; CvMap::getGridHeight
_TEXT	ENDS
PUBLIC	?isWrapX@CvMap@@QBE_NXZ				; CvMap::isWrapX
; Function compile flags: /Ogtpy
;	COMDAT ?isWrapX@CvMap@@QBE_NXZ
_TEXT	SEGMENT
?isWrapX@CvMap@@QBE_NXZ PROC				; CvMap::isWrapX, COMDAT
; _this$ = ecx

; 228  : 		return m_bWrapX;

	mov	al, BYTE PTR [ecx+4056]

; 229  : 	}

	ret	0
?isWrapX@CvMap@@QBE_NXZ ENDP				; CvMap::isWrapX
_TEXT	ENDS
PUBLIC	?isWrapY@CvMap@@QBE_NXZ				; CvMap::isWrapY
; Function compile flags: /Ogtpy
;	COMDAT ?isWrapY@CvMap@@QBE_NXZ
_TEXT	SEGMENT
?isWrapY@CvMap@@QBE_NXZ PROC				; CvMap::isWrapY, COMDAT
; _this$ = ecx

; 233  : 		return m_bWrapY;

	mov	al, BYTE PTR [ecx+4057]

; 234  : 	}

	ret	0
?isWrapY@CvMap@@QBE_NXZ ENDP				; CvMap::isWrapY
_TEXT	ENDS
PUBLIC	?plotByIndex@CvMap@@QBEPAVCvPlot@@H@Z		; CvMap::plotByIndex
; Function compile flags: /Ogtpy
;	COMDAT ?plotByIndex@CvMap@@QBEPAVCvPlot@@H@Z
_TEXT	SEGMENT
_iIndex$ = 8						; size = 4
?plotByIndex@CvMap@@QBEPAVCvPlot@@H@Z PROC		; CvMap::plotByIndex, COMDAT
; _this$ = ecx

; 263  : 		return (((iIndex >= 0) && (iIndex < (numPlots()))) ? &(m_pMapPlots[iIndex]) : NULL);

	mov	eax, DWORD PTR _iIndex$[esp-4]
	test	eax, eax
	jl	SHORT $LN3@plotByInde
	cmp	eax, DWORD PTR [ecx+4028]
	jge	SHORT $LN3@plotByInde
	imul	eax, 484				; 000001e4H
	add	eax, DWORD PTR [ecx+4068]

; 264  : 	}

	ret	4
$LN3@plotByInde:

; 263  : 		return (((iIndex >= 0) && (iIndex < (numPlots()))) ? &(m_pMapPlots[iIndex]) : NULL);

	xor	eax, eax

; 264  : 	}

	ret	4
?plotByIndex@CvMap@@QBEPAVCvPlot@@H@Z ENDP		; CvMap::plotByIndex
_TEXT	ENDS
PUBLIC	?plotByIndexUnchecked@CvMap@@QBEPAVCvPlot@@H@Z	; CvMap::plotByIndexUnchecked
; Function compile flags: /Ogtpy
;	COMDAT ?plotByIndexUnchecked@CvMap@@QBEPAVCvPlot@@H@Z
_TEXT	SEGMENT
_iIndex$ = 8						; size = 4
?plotByIndexUnchecked@CvMap@@QBEPAVCvPlot@@H@Z PROC	; CvMap::plotByIndexUnchecked, COMDAT
; _this$ = ecx

; 268  : 		return &m_pMapPlots[iIndex];

	mov	eax, DWORD PTR _iIndex$[esp-4]
	imul	eax, 484				; 000001e4H
	add	eax, DWORD PTR [ecx+4068]

; 269  : 	}

	ret	4
?plotByIndexUnchecked@CvMap@@QBEPAVCvPlot@@H@Z ENDP	; CvMap::plotByIndexUnchecked
_TEXT	ENDS
PUBLIC	?getTeam@CvTeam@@SAAAV1@W4TeamTypes@@@Z		; CvTeam::getTeam
EXTRN	?m_aTeams@CvTeam@@1PAV1@A:DWORD			; CvTeam::m_aTeams
; Function compile flags: /Ogtpy
; File c:\users\enormousapplepie\documents\github\lekmod\lekmod_dll\cvgamecoredll_expansion2\cvteam.h
;	COMDAT ?getTeam@CvTeam@@SAAAV1@W4TeamTypes@@@Z
_TEXT	SEGMENT
_eTeam$ = 8						; size = 4
?getTeam@CvTeam@@SAAAV1@W4TeamTypes@@@Z PROC		; CvTeam::getTeam, COMDAT

; 29   : 		CvAssertMsg(eTeam != NO_TEAM, "eTeam is not assigned a valid value");
; 30   : 		CvAssertMsg(eTeam < MAX_TEAMS, "eTeam is not assigned a valid value");
; 31   : 		return m_aTeams[eTeam];

	mov	eax, DWORD PTR _eTeam$[esp-4]
	imul	eax, 2984				; 00000ba8H
	add	eax, DWORD PTR ?m_aTeams@CvTeam@@1PAV1@A ; CvTeam::m_aTeams

; 32   : 	}

	ret	0
?getTeam@CvTeam@@SAAAV1@W4TeamTypes@@@Z ENDP		; CvTeam::getTeam
_TEXT	ENDS
PUBLIC	?GetGoldenAgeMoveChange@CvPlayerTraits@@QBEHXZ	; CvPlayerTraits::GetGoldenAgeMoveChange
; Function compile flags: /Ogtpy
; File c:\users\enormousapplepie\documents\github\lekmod\lekmod_dll\cvgamecoredll_expansion2\cvtraitclasses.h
;	COMDAT ?GetGoldenAgeMoveChange@CvPlayerTraits@@QBEHXZ
_TEXT	SEGMENT
?GetGoldenAgeMoveChange@CvPlayerTraits@@QBEHXZ PROC	; CvPlayerTraits::GetGoldenAgeMoveChange, COMDAT
; _this$ = ecx

; 585  : 		return m_iGoldenAgeMoveChange;

	mov	eax, DWORD PTR [ecx+176]

; 586  : 	};

	ret	0
?GetGoldenAgeMoveChange@CvPlayerTraits@@QBEHXZ ENDP	; CvPlayerTraits::GetGoldenAgeMoveChange
_TEXT	ENDS
PUBLIC	?GetGoldenAgeTourismModifier@CvPlayerTraits@@QBEHXZ ; CvPlayerTraits::GetGoldenAgeTourismModifier
; Function compile flags: /Ogtpy
;	COMDAT ?GetGoldenAgeTourismModifier@CvPlayerTraits@@QBEHXZ
_TEXT	SEGMENT
?GetGoldenAgeTourismModifier@CvPlayerTraits@@QBEHXZ PROC ; CvPlayerTraits::GetGoldenAgeTourismModifier, COMDAT
; _this$ = ecx

; 593  : 		return m_iGoldenAgeTourismModifier;

	mov	eax, DWORD PTR [ecx+184]

; 594  : 	};

	ret	0
?GetGoldenAgeTourismModifier@CvPlayerTraits@@QBEHXZ ENDP ; CvPlayerTraits::GetGoldenAgeTourismModifier
_TEXT	ENDS
PUBLIC	?GetRazeSpeedModifier@CvPlayerTraits@@QBEHXZ	; CvPlayerTraits::GetRazeSpeedModifier
; Function compile flags: /Ogtpy
;	COMDAT ?GetRazeSpeedModifier@CvPlayerTraits@@QBEHXZ
_TEXT	SEGMENT
?GetRazeSpeedModifier@CvPlayerTraits@@QBEHXZ PROC	; CvPlayerTraits::GetRazeSpeedModifier, COMDAT
; _this$ = ecx

; 672  : 		return m_iRazeSpeedModifier;

	mov	eax, DWORD PTR [ecx+256]

; 673  : 	};

	ret	0
?GetRazeSpeedModifier@CvPlayerTraits@@QBEHXZ ENDP	; CvPlayerTraits::GetRazeSpeedModifier
_TEXT	ENDS
PUBLIC	?IsNoAnnexing@CvPlayerTraits@@QBE_NXZ		; CvPlayerTraits::IsNoAnnexing
; Function compile flags: /Ogtpy
;	COMDAT ?IsNoAnnexing@CvPlayerTraits@@QBE_NXZ
_TEXT	SEGMENT
?IsNoAnnexing@CvPlayerTraits@@QBE_NXZ PROC		; CvPlayerTraits::IsNoAnnexing, COMDAT
; _this$ = ecx

; 841  : 		return m_bNoAnnexing;

	mov	al, BYTE PTR [ecx+351]

; 842  : 	};

	ret	0
?IsNoAnnexing@CvPlayerTraits@@QBE_NXZ ENDP		; CvPlayerTraits::IsNoAnnexing
_TEXT	ENDS
PUBLIC	?ForceReset@CvAStar@@QAEXXZ			; CvAStar::ForceReset
; Function compile flags: /Ogtpy
; File c:\users\enormousapplepie\documents\github\lekmod\lekmod_dll\cvgamecoredll_expansion2\cvastar.h
;	COMDAT ?ForceReset@CvAStar@@QAEXXZ
_TEXT	SEGMENT
?ForceReset@CvAStar@@QAEXXZ PROC			; CvAStar::ForceReset, COMDAT
; _this$ = ecx

; 178  : 		m_bForceReset = true;

	mov	BYTE PTR [ecx+78], 1

; 179  : 	}

	ret	0
?ForceReset@CvAStar@@QAEXXZ ENDP			; CvAStar::ForceReset
_TEXT	ENDS
PUBLIC	?SetMPCacheSafe@CvAStar@@QAE_N_N@Z		; CvAStar::SetMPCacheSafe
; Function compile flags: /Ogtpy
;	COMDAT ?SetMPCacheSafe@CvAStar@@QAE_N_N@Z
_TEXT	SEGMENT
_bState$ = 8						; size = 1
?SetMPCacheSafe@CvAStar@@QAE_N_N@Z PROC			; CvAStar::SetMPCacheSafe, COMDAT
; _this$ = ecx

; 218  : 		bool bOldState = m_bIsMPCacheSafe;

	mov	al, BYTE PTR [ecx+79]

; 219  : 		if(bState != m_bIsMPCacheSafe)

	mov	dl, BYTE PTR _bState$[esp-4]
	cmp	dl, al
	je	SHORT $LN1@SetMPCache

; 220  : 		{
; 221  : 			m_bForceReset = true;

	mov	BYTE PTR [ecx+78], 1

; 222  : 			m_bIsMPCacheSafe = bState;

	mov	BYTE PTR [ecx+79], dl
$LN1@SetMPCache:

; 223  : 		}
; 224  : 
; 225  : 		return bOldState;
; 226  : 	}

	ret	4
?SetMPCacheSafe@CvAStar@@QAE_N_N@Z ENDP			; CvAStar::SetMPCacheSafe
_TEXT	ENDS
PUBLIC	??A?$vector@W4TeamTypes@@V?$allocator@W4TeamTypes@@@std@@@std@@QBEABW4TeamTypes@@I@Z ; std::vector<enum TeamTypes,std::allocator<enum TeamTypes> >::operator[]
; Function compile flags: /Ogtpy
; File c:\program files (x86)\microsoft visual studio 9.0\vc\include\vector
;	COMDAT ??A?$vector@W4TeamTypes@@V?$allocator@W4TeamTypes@@@std@@@std@@QBEABW4TeamTypes@@I@Z
_TEXT	SEGMENT
__Pos$ = 8						; size = 4
??A?$vector@W4TeamTypes@@V?$allocator@W4TeamTypes@@@std@@@std@@QBEABW4TeamTypes@@I@Z PROC ; std::vector<enum TeamTypes,std::allocator<enum TeamTypes> >::operator[], COMDAT
; _this$ = ecx

; 760  : 
; 761  :  #if _HAS_ITERATOR_DEBUGGING
; 762  : 		if (size() <= _Pos)
; 763  : 			{
; 764  : 			_DEBUG_ERROR("vector subscript out of range");
; 765  : 			_SCL_SECURE_OUT_OF_RANGE;
; 766  : 			}
; 767  :  #endif /* _HAS_ITERATOR_DEBUGGING */
; 768  : 		_SCL_SECURE_VALIDATE_RANGE(_Pos < size());
; 769  : 
; 770  : 		return (*(_Myfirst + _Pos));

	mov	eax, DWORD PTR [ecx+4]
	mov	ecx, DWORD PTR __Pos$[esp-4]
	lea	eax, DWORD PTR [eax+ecx*4]

; 771  : 		}

	ret	4
??A?$vector@W4TeamTypes@@V?$allocator@W4TeamTypes@@@std@@@std@@QBEABW4TeamTypes@@I@Z ENDP ; std::vector<enum TeamTypes,std::allocator<enum TeamTypes> >::operator[]
_TEXT	ENDS
PUBLIC	?size@?$vector@UOperationSlot@@V?$allocator@UOperationSlot@@@std@@@std@@QBEIXZ ; std::vector<OperationSlot,std::allocator<OperationSlot> >::size
; Function compile flags: /Ogtpy
;	COMDAT ?size@?$vector@UOperationSlot@@V?$allocator@UOperationSlot@@@std@@@std@@QBEIXZ
_TEXT	SEGMENT
?size@?$vector@UOperationSlot@@V?$allocator@UOperationSlot@@@std@@@std@@QBEIXZ PROC ; std::vector<OperationSlot,std::allocator<OperationSlot> >::size, COMDAT
; _this$ = ecx

; 726  : 		return (_Mylast - _Myfirst);

	mov	edx, DWORD PTR [ecx+8]
	sub	edx, DWORD PTR [ecx+4]
	mov	eax, 715827883				; 2aaaaaabH
	imul	edx
	sar	edx, 1
	mov	eax, edx
	shr	eax, 31					; 0000001fH
	add	eax, edx

; 727  : 		}

	ret	0
?size@?$vector@UOperationSlot@@V?$allocator@UOperationSlot@@@std@@@std@@QBEIXZ ENDP ; std::vector<OperationSlot,std::allocator<OperationSlot> >::size
_TEXT	ENDS
PUBLIC	?_Isnil@?$_Tree@V?$_Tset_traits@PAVFAutoVariableBase@@U?$less@PAVFAutoVariableBase@@@std@@V?$allocator@PAVFAutoVariableBase@@@3@$0A@@std@@@std@@KAAADPAU_Node@?$_Tree_nod@V?$_Tset_traits@PAVFAutoVariableBase@@U?$less@PAVFAutoVariableBase@@@std@@V?$allocator@PAVFAutoVariableBase@@@3@$0A@@std@@@2@@Z ; std::_Tree<std::_Tset_traits<FAutoVariableBase *,std::less<FAutoVariableBase *>,std::allocator<FAutoVariableBase *>,0> >::_Isnil
; Function compile flags: /Ogtpy
; File c:\program files (x86)\microsoft visual studio 9.0\vc\include\xtree
;	COMDAT ?_Isnil@?$_Tree@V?$_Tset_traits@PAVFAutoVariableBase@@U?$less@PAVFAutoVariableBase@@@std@@V?$allocator@PAVFAutoVariableBase@@@3@$0A@@std@@@std@@KAAADPAU_Node@?$_Tree_nod@V?$_Tset_traits@PAVFAutoVariableBase@@U?$less@PAVFAutoVariableBase@@@std@@V?$allocator@PAVFAutoVariableBase@@@3@$0A@@std@@@2@@Z
_TEXT	SEGMENT
__Pnode$ = 8						; size = 4
?_Isnil@?$_Tree@V?$_Tset_traits@PAVFAutoVariableBase@@U?$less@PAVFAutoVariableBase@@@std@@V?$allocator@PAVFAutoVariableBase@@@3@$0A@@std@@@std@@KAAADPAU_Node@?$_Tree_nod@V?$_Tset_traits@PAVFAutoVariableBase@@U?$less@PAVFAutoVariableBase@@@std@@V?$allocator@PAVFAutoVariableBase@@@3@$0A@@std@@@2@@Z PROC ; std::_Tree<std::_Tset_traits<FAutoVariableBase *,std::less<FAutoVariableBase *>,std::allocator<FAutoVariableBase *>,0> >::_Isnil, COMDAT

; 157  : 		return ((_Charref)(*_Pnode)._Isnil);

	mov	eax, DWORD PTR __Pnode$[esp-4]
	add	eax, 17					; 00000011H

; 158  : 		}

	ret	0
?_Isnil@?$_Tree@V?$_Tset_traits@PAVFAutoVariableBase@@U?$less@PAVFAutoVariableBase@@@std@@V?$allocator@PAVFAutoVariableBase@@@3@$0A@@std@@@std@@KAAADPAU_Node@?$_Tree_nod@V?$_Tset_traits@PAVFAutoVariableBase@@U?$less@PAVFAutoVariableBase@@@std@@V?$allocator@PAVFAutoVariableBase@@@3@$0A@@std@@@2@@Z ENDP ; std::_Tree<std::_Tset_traits<FAutoVariableBase *,std::less<FAutoVariableBase *>,std::allocator<FAutoVariableBase *>,0> >::_Isnil
_TEXT	ENDS
PUBLIC	?_Left@?$_Tree@V?$_Tset_traits@PAVFAutoVariableBase@@U?$less@PAVFAutoVariableBase@@@std@@V?$allocator@PAVFAutoVariableBase@@@3@$0A@@std@@@std@@KAAAPAU_Node@?$_Tree_nod@V?$_Tset_traits@PAVFAutoVariableBase@@U?$less@PAVFAutoVariableBase@@@std@@V?$allocator@PAVFAutoVariableBase@@@3@$0A@@std@@@2@PAU342@@Z ; std::_Tree<std::_Tset_traits<FAutoVariableBase *,std::less<FAutoVariableBase *>,std::allocator<FAutoVariableBase *>,0> >::_Left
; Function compile flags: /Ogtpy
;	COMDAT ?_Left@?$_Tree@V?$_Tset_traits@PAVFAutoVariableBase@@U?$less@PAVFAutoVariableBase@@@std@@V?$allocator@PAVFAutoVariableBase@@@3@$0A@@std@@@std@@KAAAPAU_Node@?$_Tree_nod@V?$_Tset_traits@PAVFAutoVariableBase@@U?$less@PAVFAutoVariableBase@@@std@@V?$allocator@PAVFAutoVariableBase@@@3@$0A@@std@@@2@PAU342@@Z
_TEXT	SEGMENT
__Pnode$ = 8						; size = 4
?_Left@?$_Tree@V?$_Tset_traits@PAVFAutoVariableBase@@U?$less@PAVFAutoVariableBase@@@std@@V?$allocator@PAVFAutoVariableBase@@@3@$0A@@std@@@std@@KAAAPAU_Node@?$_Tree_nod@V?$_Tset_traits@PAVFAutoVariableBase@@U?$less@PAVFAutoVariableBase@@@std@@V?$allocator@PAVFAutoVariableBase@@@3@$0A@@std@@@2@PAU342@@Z PROC ; std::_Tree<std::_Tset_traits<FAutoVariableBase *,std::less<FAutoVariableBase *>,std::allocator<FAutoVariableBase *>,0> >::_Left, COMDAT

; 167  : 		return ((_Nodepref)(*_Pnode)._Left);

	mov	eax, DWORD PTR __Pnode$[esp-4]

; 168  : 		}

	ret	0
?_Left@?$_Tree@V?$_Tset_traits@PAVFAutoVariableBase@@U?$less@PAVFAutoVariableBase@@@std@@V?$allocator@PAVFAutoVariableBase@@@3@$0A@@std@@@std@@KAAAPAU_Node@?$_Tree_nod@V?$_Tset_traits@PAVFAutoVariableBase@@U?$less@PAVFAutoVariableBase@@@std@@V?$allocator@PAVFAutoVariableBase@@@3@$0A@@std@@@2@PAU342@@Z ENDP ; std::_Tree<std::_Tset_traits<FAutoVariableBase *,std::less<FAutoVariableBase *>,std::allocator<FAutoVariableBase *>,0> >::_Left
_TEXT	ENDS
PUBLIC	?_Right@?$_Tree@V?$_Tset_traits@PAVFAutoVariableBase@@U?$less@PAVFAutoVariableBase@@@std@@V?$allocator@PAVFAutoVariableBase@@@3@$0A@@std@@@std@@KAAAPAU_Node@?$_Tree_nod@V?$_Tset_traits@PAVFAutoVariableBase@@U?$less@PAVFAutoVariableBase@@@std@@V?$allocator@PAVFAutoVariableBase@@@3@$0A@@std@@@2@PAU342@@Z ; std::_Tree<std::_Tset_traits<FAutoVariableBase *,std::less<FAutoVariableBase *>,std::allocator<FAutoVariableBase *>,0> >::_Right
; Function compile flags: /Ogtpy
;	COMDAT ?_Right@?$_Tree@V?$_Tset_traits@PAVFAutoVariableBase@@U?$less@PAVFAutoVariableBase@@@std@@V?$allocator@PAVFAutoVariableBase@@@3@$0A@@std@@@std@@KAAAPAU_Node@?$_Tree_nod@V?$_Tset_traits@PAVFAutoVariableBase@@U?$less@PAVFAutoVariableBase@@@std@@V?$allocator@PAVFAutoVariableBase@@@3@$0A@@std@@@2@PAU342@@Z
_TEXT	SEGMENT
__Pnode$ = 8						; size = 4
?_Right@?$_Tree@V?$_Tset_traits@PAVFAutoVariableBase@@U?$less@PAVFAutoVariableBase@@@std@@V?$allocator@PAVFAutoVariableBase@@@3@$0A@@std@@@std@@KAAAPAU_Node@?$_Tree_nod@V?$_Tset_traits@PAVFAutoVariableBase@@U?$less@PAVFAutoVariableBase@@@std@@V?$allocator@PAVFAutoVariableBase@@@3@$0A@@std@@@2@PAU342@@Z PROC ; std::_Tree<std::_Tset_traits<FAutoVariableBase *,std::less<FAutoVariableBase *>,std::allocator<FAutoVariableBase *>,0> >::_Right, COMDAT

; 177  : 		return ((_Nodepref)(*_Pnode)._Right);

	mov	eax, DWORD PTR __Pnode$[esp-4]
	add	eax, 8

; 178  : 		}

	ret	0
?_Right@?$_Tree@V?$_Tset_traits@PAVFAutoVariableBase@@U?$less@PAVFAutoVariableBase@@@std@@V?$allocator@PAVFAutoVariableBase@@@3@$0A@@std@@@std@@KAAAPAU_Node@?$_Tree_nod@V?$_Tset_traits@PAVFAutoVariableBase@@U?$less@PAVFAutoVariableBase@@@std@@V?$allocator@PAVFAutoVariableBase@@@3@$0A@@std@@@2@PAU342@@Z ENDP ; std::_Tree<std::_Tset_traits<FAutoVariableBase *,std::less<FAutoVariableBase *>,std::allocator<FAutoVariableBase *>,0> >::_Right
_TEXT	ENDS
PUBLIC	?_Kfn@?$_Tset_traits@PAVFAutoVariableBase@@U?$less@PAVFAutoVariableBase@@@std@@V?$allocator@PAVFAutoVariableBase@@@3@$0A@@std@@SAABQAVFAutoVariableBase@@ABQAV3@@Z ; std::_Tset_traits<FAutoVariableBase *,std::less<FAutoVariableBase *>,std::allocator<FAutoVariableBase *>,0>::_Kfn
; Function compile flags: /Ogtpy
; File c:\program files (x86)\microsoft visual studio 9.0\vc\include\set
;	COMDAT ?_Kfn@?$_Tset_traits@PAVFAutoVariableBase@@U?$less@PAVFAutoVariableBase@@@std@@V?$allocator@PAVFAutoVariableBase@@@3@$0A@@std@@SAABQAVFAutoVariableBase@@ABQAV3@@Z
_TEXT	SEGMENT
__Val$ = 8						; size = 4
?_Kfn@?$_Tset_traits@PAVFAutoVariableBase@@U?$less@PAVFAutoVariableBase@@@std@@V?$allocator@PAVFAutoVariableBase@@@3@$0A@@std@@SAABQAVFAutoVariableBase@@ABQAV3@@Z PROC ; std::_Tset_traits<FAutoVariableBase *,std::less<FAutoVariableBase *>,std::allocator<FAutoVariableBase *>,0>::_Kfn, COMDAT

; 45   : 		return (_Val);

	mov	eax, DWORD PTR __Val$[esp-4]

; 46   : 		}

	ret	0
?_Kfn@?$_Tset_traits@PAVFAutoVariableBase@@U?$less@PAVFAutoVariableBase@@@std@@V?$allocator@PAVFAutoVariableBase@@@3@$0A@@std@@SAABQAVFAutoVariableBase@@ABQAV3@@Z ENDP ; std::_Tset_traits<FAutoVariableBase *,std::less<FAutoVariableBase *>,std::allocator<FAutoVariableBase *>,0>::_Kfn
_TEXT	ENDS
PUBLIC	??R?$less@PAVFAutoVariableBase@@@std@@QBE_NABQAVFAutoVariableBase@@0@Z ; std::less<FAutoVariableBase *>::operator()
; Function compile flags: /Ogtpy
; File c:\program files (x86)\microsoft visual studio 9.0\vc\include\functional
;	COMDAT ??R?$less@PAVFAutoVariableBase@@@std@@QBE_NABQAVFAutoVariableBase@@0@Z
_TEXT	SEGMENT
__Left$ = 8						; size = 4
__Right$ = 12						; size = 4
??R?$less@PAVFAutoVariableBase@@@std@@QBE_NABQAVFAutoVariableBase@@0@Z PROC ; std::less<FAutoVariableBase *>::operator(), COMDAT
; _this$ = ecx

; 143  : 		return (_Left < _Right);

	mov	eax, DWORD PTR __Left$[esp-4]
	mov	ecx, DWORD PTR [eax]
	mov	edx, DWORD PTR __Right$[esp-4]
	cmp	ecx, DWORD PTR [edx]
	sbb	eax, eax
	neg	eax

; 144  : 		}

	ret	8
??R?$less@PAVFAutoVariableBase@@@std@@QBE_NABQAVFAutoVariableBase@@0@Z ENDP ; std::less<FAutoVariableBase *>::operator()
_TEXT	ENDS
PUBLIC	??0?$pair@Viterator@?$_Tree@V?$_Tset_traits@PAVFAutoVariableBase@@U?$less@PAVFAutoVariableBase@@@std@@V?$allocator@PAVFAutoVariableBase@@@3@$0A@@std@@@std@@_N@std@@QAE@ABViterator@?$_Tree@V?$_Tset_traits@PAVFAutoVariableBase@@U?$less@PAVFAutoVariableBase@@@std@@V?$allocator@PAVFAutoVariableBase@@@3@$0A@@std@@@1@AB_N@Z ; std::pair<std::_Tree<std::_Tset_traits<FAutoVariableBase *,std::less<FAutoVariableBase *>,std::allocator<FAutoVariableBase *>,0> >::iterator,bool>::pair<std::_Tree<std::_Tset_traits<FAutoVariableBase *,std::less<FAutoVariableBase *>,std::allocator<FAutoVariableBase *>,0> >::iterator,bool>
; Function compile flags: /Ogtpy
; File c:\program files (x86)\microsoft visual studio 9.0\vc\include\utility
;	COMDAT ??0?$pair@Viterator@?$_Tree@V?$_Tset_traits@PAVFAutoVariableBase@@U?$less@PAVFAutoVariableBase@@@std@@V?$allocator@PAVFAutoVariableBase@@@3@$0A@@std@@@std@@_N@std@@QAE@ABViterator@?$_Tree@V?$_Tset_traits@PAVFAutoVariableBase@@U?$less@PAVFAutoVariableBase@@@std@@V?$allocator@PAVFAutoVariableBase@@@3@$0A@@std@@@1@AB_N@Z
_TEXT	SEGMENT
__Val1$ = 8						; size = 4
__Val2$ = 12						; size = 4
??0?$pair@Viterator@?$_Tree@V?$_Tset_traits@PAVFAutoVariableBase@@U?$less@PAVFAutoVariableBase@@@std@@V?$allocator@PAVFAutoVariableBase@@@3@$0A@@std@@@std@@_N@std@@QAE@ABViterator@?$_Tree@V?$_Tset_traits@PAVFAutoVariableBase@@U?$less@PAVFAutoVariableBase@@@std@@V?$allocator@PAVFAutoVariableBase@@@3@$0A@@std@@@1@AB_N@Z PROC ; std::pair<std::_Tree<std::_Tset_traits<FAutoVariableBase *,std::less<FAutoVariableBase *>,std::allocator<FAutoVariableBase *>,0> >::iterator,bool>::pair<std::_Tree<std::_Tset_traits<FAutoVariableBase *,std::less<FAutoVariableBase *>,std::allocator<FAutoVariableBase *>,0> >::iterator,bool>, COMDAT
; _this$ = ecx

; 50   : 		{	// construct from specified values

	mov	eax, ecx
	mov	ecx, DWORD PTR __Val1$[esp-4]
	mov	edx, DWORD PTR [ecx]
	mov	ecx, DWORD PTR __Val2$[esp-4]
	mov	DWORD PTR [eax], edx
	mov	dl, BYTE PTR [ecx]
	mov	BYTE PTR [eax+4], dl

; 51   : 		}

	ret	8
??0?$pair@Viterator@?$_Tree@V?$_Tset_traits@PAVFAutoVariableBase@@U?$less@PAVFAutoVariableBase@@@std@@V?$allocator@PAVFAutoVariableBase@@@3@$0A@@std@@@std@@_N@std@@QAE@ABViterator@?$_Tree@V?$_Tset_traits@PAVFAutoVariableBase@@U?$less@PAVFAutoVariableBase@@@std@@V?$allocator@PAVFAutoVariableBase@@@3@$0A@@std@@@1@AB_N@Z ENDP ; std::pair<std::_Tree<std::_Tset_traits<FAutoVariableBase *,std::less<FAutoVariableBase *>,std::allocator<FAutoVariableBase *>,0> >::iterator,bool>::pair<std::_Tree<std::_Tset_traits<FAutoVariableBase *,std::less<FAutoVariableBase *>,std::allocator<FAutoVariableBase *>,0> >::iterator,bool>
_TEXT	ENDS
PUBLIC	??8const_iterator@?$_Tree@V?$_Tset_traits@PAVFAutoVariableBase@@U?$less@PAVFAutoVariableBase@@@std@@V?$allocator@PAVFAutoVariableBase@@@3@$0A@@std@@@std@@QBE_NABV012@@Z ; std::_Tree<std::_Tset_traits<FAutoVariableBase *,std::less<FAutoVariableBase *>,std::allocator<FAutoVariableBase *>,0> >::const_iterator::operator==
; Function compile flags: /Ogtpy
; File c:\program files (x86)\microsoft visual studio 9.0\vc\include\xtree
;	COMDAT ??8const_iterator@?$_Tree@V?$_Tset_traits@PAVFAutoVariableBase@@U?$less@PAVFAutoVariableBase@@@std@@V?$allocator@PAVFAutoVariableBase@@@3@$0A@@std@@@std@@QBE_NABV012@@Z
_TEXT	SEGMENT
__Right$ = 8						; size = 4
??8const_iterator@?$_Tree@V?$_Tset_traits@PAVFAutoVariableBase@@U?$less@PAVFAutoVariableBase@@@std@@V?$allocator@PAVFAutoVariableBase@@@3@$0A@@std@@@std@@QBE_NABV012@@Z PROC ; std::_Tree<std::_Tset_traits<FAutoVariableBase *,std::less<FAutoVariableBase *>,std::allocator<FAutoVariableBase *>,0> >::const_iterator::operator==, COMDAT
; _this$ = ecx

; 300  : 
; 301  :  #if _HAS_ITERATOR_DEBUGGING
; 302  : 			if (this->_Mycont == 0 || this->_Mycont != _Right._Mycont)
; 303  : 				{
; 304  : 				_DEBUG_ERROR("map/set iterators incompatible");
; 305  : 				_SCL_SECURE_INVALID_ARGUMENT;
; 306  : 				}
; 307  :  #else
; 308  : 			_SCL_SECURE_VALIDATE(this->_Has_container() && this->_Same_container(_Right));
; 309  :  #endif /* _HAS_ITERATOR_DEBUGGING */
; 310  : 
; 311  : 			return (_Ptr == _Right._Ptr);

	mov	eax, DWORD PTR [ecx]
	mov	edx, DWORD PTR __Right$[esp-4]
	xor	ecx, ecx
	cmp	eax, DWORD PTR [edx]
	sete	cl
	mov	al, cl

; 312  : 			}

	ret	4
??8const_iterator@?$_Tree@V?$_Tset_traits@PAVFAutoVariableBase@@U?$less@PAVFAutoVariableBase@@@std@@V?$allocator@PAVFAutoVariableBase@@@3@$0A@@std@@@std@@QBE_NABV012@@Z ENDP ; std::_Tree<std::_Tset_traits<FAutoVariableBase *,std::less<FAutoVariableBase *>,std::allocator<FAutoVariableBase *>,0> >::const_iterator::operator==
_TEXT	ENDS
PUBLIC	?_Mynode@const_iterator@?$_Tree@V?$_Tset_traits@PAVFAutoVariableBase@@U?$less@PAVFAutoVariableBase@@@std@@V?$allocator@PAVFAutoVariableBase@@@3@$0A@@std@@@std@@QBEPAU_Node@?$_Tree_nod@V?$_Tset_traits@PAVFAutoVariableBase@@U?$less@PAVFAutoVariableBase@@@std@@V?$allocator@PAVFAutoVariableBase@@@3@$0A@@std@@@3@XZ ; std::_Tree<std::_Tset_traits<FAutoVariableBase *,std::less<FAutoVariableBase *>,std::allocator<FAutoVariableBase *>,0> >::const_iterator::_Mynode
; Function compile flags: /Ogtpy
;	COMDAT ?_Mynode@const_iterator@?$_Tree@V?$_Tset_traits@PAVFAutoVariableBase@@U?$less@PAVFAutoVariableBase@@@std@@V?$allocator@PAVFAutoVariableBase@@@3@$0A@@std@@@std@@QBEPAU_Node@?$_Tree_nod@V?$_Tset_traits@PAVFAutoVariableBase@@U?$less@PAVFAutoVariableBase@@@std@@V?$allocator@PAVFAutoVariableBase@@@3@$0A@@std@@@3@XZ
_TEXT	SEGMENT
?_Mynode@const_iterator@?$_Tree@V?$_Tset_traits@PAVFAutoVariableBase@@U?$less@PAVFAutoVariableBase@@@std@@V?$allocator@PAVFAutoVariableBase@@@3@$0A@@std@@@std@@QBEPAU_Node@?$_Tree_nod@V?$_Tset_traits@PAVFAutoVariableBase@@U?$less@PAVFAutoVariableBase@@@std@@V?$allocator@PAVFAutoVariableBase@@@3@$0A@@std@@@3@XZ PROC ; std::_Tree<std::_Tset_traits<FAutoVariableBase *,std::less<FAutoVariableBase *>,std::allocator<FAutoVariableBase *>,0> >::const_iterator::_Mynode, COMDAT
; _this$ = ecx

; 410  : 			return (_Ptr);

	mov	eax, DWORD PTR [ecx]

; 411  : 			}

	ret	0
?_Mynode@const_iterator@?$_Tree@V?$_Tset_traits@PAVFAutoVariableBase@@U?$less@PAVFAutoVariableBase@@@std@@V?$allocator@PAVFAutoVariableBase@@@3@$0A@@std@@@std@@QBEPAU_Node@?$_Tree_nod@V?$_Tset_traits@PAVFAutoVariableBase@@U?$less@PAVFAutoVariableBase@@@std@@V?$allocator@PAVFAutoVariableBase@@@3@$0A@@std@@@3@XZ ENDP ; std::_Tree<std::_Tset_traits<FAutoVariableBase *,std::less<FAutoVariableBase *>,std::allocator<FAutoVariableBase *>,0> >::const_iterator::_Mynode
; Function compile flags: /Ogtpy
_TEXT	ENDS
;	COMDAT ??0length_error@std@@QAE@ABV01@@Z
_TEXT	SEGMENT
___that$ = 8						; size = 4
??0length_error@std@@QAE@ABV01@@Z PROC			; std::length_error::length_error, COMDAT
; _this$ = ecx
	mov	eax, DWORD PTR ___that$[esp-4]
	push	esi
	push	eax
	mov	esi, ecx
	call	??0logic_error@std@@QAE@ABV01@@Z
	mov	DWORD PTR [esi], OFFSET ??_7length_error@std@@6B@
	mov	eax, esi
	pop	esi
	ret	4
??0length_error@std@@QAE@ABV01@@Z ENDP			; std::length_error::length_error
_TEXT	ENDS
PUBLIC	?_Color@?$_Tree@V?$_Tset_traits@PAVFAutoVariableBase@@U?$less@PAVFAutoVariableBase@@@std@@V?$allocator@PAVFAutoVariableBase@@@3@$0A@@std@@@std@@KAAADPAU_Node@?$_Tree_nod@V?$_Tset_traits@PAVFAutoVariableBase@@U?$less@PAVFAutoVariableBase@@@std@@V?$allocator@PAVFAutoVariableBase@@@3@$0A@@std@@@2@@Z ; std::_Tree<std::_Tset_traits<FAutoVariableBase *,std::less<FAutoVariableBase *>,std::allocator<FAutoVariableBase *>,0> >::_Color
; Function compile flags: /Ogtpy
;	COMDAT ?_Color@?$_Tree@V?$_Tset_traits@PAVFAutoVariableBase@@U?$less@PAVFAutoVariableBase@@@std@@V?$allocator@PAVFAutoVariableBase@@@3@$0A@@std@@@std@@KAAADPAU_Node@?$_Tree_nod@V?$_Tset_traits@PAVFAutoVariableBase@@U?$less@PAVFAutoVariableBase@@@std@@V?$allocator@PAVFAutoVariableBase@@@3@$0A@@std@@@2@@Z
_TEXT	SEGMENT
__Pnode$ = 8						; size = 4
?_Color@?$_Tree@V?$_Tset_traits@PAVFAutoVariableBase@@U?$less@PAVFAutoVariableBase@@@std@@V?$allocator@PAVFAutoVariableBase@@@3@$0A@@std@@@std@@KAAADPAU_Node@?$_Tree_nod@V?$_Tset_traits@PAVFAutoVariableBase@@U?$less@PAVFAutoVariableBase@@@std@@V?$allocator@PAVFAutoVariableBase@@@3@$0A@@std@@@2@@Z PROC ; std::_Tree<std::_Tset_traits<FAutoVariableBase *,std::less<FAutoVariableBase *>,std::allocator<FAutoVariableBase *>,0> >::_Color, COMDAT

; 152  : 		return ((_Charref)(*_Pnode)._Color);

	mov	eax, DWORD PTR __Pnode$[esp-4]
	add	eax, 16					; 00000010H

; 153  : 		}

	ret	0
?_Color@?$_Tree@V?$_Tset_traits@PAVFAutoVariableBase@@U?$less@PAVFAutoVariableBase@@@std@@V?$allocator@PAVFAutoVariableBase@@@3@$0A@@std@@@std@@KAAADPAU_Node@?$_Tree_nod@V?$_Tset_traits@PAVFAutoVariableBase@@U?$less@PAVFAutoVariableBase@@@std@@V?$allocator@PAVFAutoVariableBase@@@3@$0A@@std@@@2@@Z ENDP ; std::_Tree<std::_Tset_traits<FAutoVariableBase *,std::less<FAutoVariableBase *>,std::allocator<FAutoVariableBase *>,0> >::_Color
_TEXT	ENDS
PUBLIC	?_Parent@?$_Tree@V?$_Tset_traits@PAVFAutoVariableBase@@U?$less@PAVFAutoVariableBase@@@std@@V?$allocator@PAVFAutoVariableBase@@@3@$0A@@std@@@std@@KAAAPAU_Node@?$_Tree_nod@V?$_Tset_traits@PAVFAutoVariableBase@@U?$less@PAVFAutoVariableBase@@@std@@V?$allocator@PAVFAutoVariableBase@@@3@$0A@@std@@@2@PAU342@@Z ; std::_Tree<std::_Tset_traits<FAutoVariableBase *,std::less<FAutoVariableBase *>,std::allocator<FAutoVariableBase *>,0> >::_Parent
; Function compile flags: /Ogtpy
;	COMDAT ?_Parent@?$_Tree@V?$_Tset_traits@PAVFAutoVariableBase@@U?$less@PAVFAutoVariableBase@@@std@@V?$allocator@PAVFAutoVariableBase@@@3@$0A@@std@@@std@@KAAAPAU_Node@?$_Tree_nod@V?$_Tset_traits@PAVFAutoVariableBase@@U?$less@PAVFAutoVariableBase@@@std@@V?$allocator@PAVFAutoVariableBase@@@3@$0A@@std@@@2@PAU342@@Z
_TEXT	SEGMENT
__Pnode$ = 8						; size = 4
?_Parent@?$_Tree@V?$_Tset_traits@PAVFAutoVariableBase@@U?$less@PAVFAutoVariableBase@@@std@@V?$allocator@PAVFAutoVariableBase@@@3@$0A@@std@@@std@@KAAAPAU_Node@?$_Tree_nod@V?$_Tset_traits@PAVFAutoVariableBase@@U?$less@PAVFAutoVariableBase@@@std@@V?$allocator@PAVFAutoVariableBase@@@3@$0A@@std@@@2@PAU342@@Z PROC ; std::_Tree<std::_Tset_traits<FAutoVariableBase *,std::less<FAutoVariableBase *>,std::allocator<FAutoVariableBase *>,0> >::_Parent, COMDAT

; 172  : 		return ((_Nodepref)(*_Pnode)._Parent);

	mov	eax, DWORD PTR __Pnode$[esp-4]
	add	eax, 4

; 173  : 		}

	ret	0
?_Parent@?$_Tree@V?$_Tset_traits@PAVFAutoVariableBase@@U?$less@PAVFAutoVariableBase@@@std@@V?$allocator@PAVFAutoVariableBase@@@3@$0A@@std@@@std@@KAAAPAU_Node@?$_Tree_nod@V?$_Tset_traits@PAVFAutoVariableBase@@U?$less@PAVFAutoVariableBase@@@std@@V?$allocator@PAVFAutoVariableBase@@@3@$0A@@std@@@2@PAU342@@Z ENDP ; std::_Tree<std::_Tset_traits<FAutoVariableBase *,std::less<FAutoVariableBase *>,std::allocator<FAutoVariableBase *>,0> >::_Parent
_TEXT	ENDS
PUBLIC	?_Myval@?$_Tree@V?$_Tset_traits@PAVFAutoVariableBase@@U?$less@PAVFAutoVariableBase@@@std@@V?$allocator@PAVFAutoVariableBase@@@3@$0A@@std@@@std@@KAAAPAVFAutoVariableBase@@PAU_Node@?$_Tree_nod@V?$_Tset_traits@PAVFAutoVariableBase@@U?$less@PAVFAutoVariableBase@@@std@@V?$allocator@PAVFAutoVariableBase@@@3@$0A@@std@@@2@@Z ; std::_Tree<std::_Tset_traits<FAutoVariableBase *,std::less<FAutoVariableBase *>,std::allocator<FAutoVariableBase *>,0> >::_Myval
; Function compile flags: /Ogtpy
;	COMDAT ?_Myval@?$_Tree@V?$_Tset_traits@PAVFAutoVariableBase@@U?$less@PAVFAutoVariableBase@@@std@@V?$allocator@PAVFAutoVariableBase@@@3@$0A@@std@@@std@@KAAAPAVFAutoVariableBase@@PAU_Node@?$_Tree_nod@V?$_Tset_traits@PAVFAutoVariableBase@@U?$less@PAVFAutoVariableBase@@@std@@V?$allocator@PAVFAutoVariableBase@@@3@$0A@@std@@@2@@Z
_TEXT	SEGMENT
__Pnode$ = 8						; size = 4
?_Myval@?$_Tree@V?$_Tset_traits@PAVFAutoVariableBase@@U?$less@PAVFAutoVariableBase@@@std@@V?$allocator@PAVFAutoVariableBase@@@3@$0A@@std@@@std@@KAAAPAVFAutoVariableBase@@PAU_Node@?$_Tree_nod@V?$_Tset_traits@PAVFAutoVariableBase@@U?$less@PAVFAutoVariableBase@@@std@@V?$allocator@PAVFAutoVariableBase@@@3@$0A@@std@@@2@@Z PROC ; std::_Tree<std::_Tset_traits<FAutoVariableBase *,std::less<FAutoVariableBase *>,std::allocator<FAutoVariableBase *>,0> >::_Myval, COMDAT

; 182  : 		return ((_Vref)(*_Pnode)._Myval);

	mov	eax, DWORD PTR __Pnode$[esp-4]
	add	eax, 12					; 0000000cH

; 183  : 		}

	ret	0
?_Myval@?$_Tree@V?$_Tset_traits@PAVFAutoVariableBase@@U?$less@PAVFAutoVariableBase@@@std@@V?$allocator@PAVFAutoVariableBase@@@3@$0A@@std@@@std@@KAAAPAVFAutoVariableBase@@PAU_Node@?$_Tree_nod@V?$_Tset_traits@PAVFAutoVariableBase@@U?$less@PAVFAutoVariableBase@@@std@@V?$allocator@PAVFAutoVariableBase@@@3@$0A@@std@@@2@@Z ENDP ; std::_Tree<std::_Tset_traits<FAutoVariableBase *,std::less<FAutoVariableBase *>,std::allocator<FAutoVariableBase *>,0> >::_Myval
_TEXT	ENDS
PUBLIC	?_Lmost@?$_Tree@V?$_Tset_traits@PAVFAutoVariableBase@@U?$less@PAVFAutoVariableBase@@@std@@V?$allocator@PAVFAutoVariableBase@@@3@$0A@@std@@@std@@IBEAAPAU_Node@?$_Tree_nod@V?$_Tset_traits@PAVFAutoVariableBase@@U?$less@PAVFAutoVariableBase@@@std@@V?$allocator@PAVFAutoVariableBase@@@3@$0A@@std@@@2@XZ ; std::_Tree<std::_Tset_traits<FAutoVariableBase *,std::less<FAutoVariableBase *>,std::allocator<FAutoVariableBase *>,0> >::_Lmost
; Function compile flags: /Ogtpy
;	COMDAT ?_Lmost@?$_Tree@V?$_Tset_traits@PAVFAutoVariableBase@@U?$less@PAVFAutoVariableBase@@@std@@V?$allocator@PAVFAutoVariableBase@@@3@$0A@@std@@@std@@IBEAAPAU_Node@?$_Tree_nod@V?$_Tset_traits@PAVFAutoVariableBase@@U?$less@PAVFAutoVariableBase@@@std@@V?$allocator@PAVFAutoVariableBase@@@3@$0A@@std@@@2@XZ
_TEXT	SEGMENT
?_Lmost@?$_Tree@V?$_Tset_traits@PAVFAutoVariableBase@@U?$less@PAVFAutoVariableBase@@@std@@V?$allocator@PAVFAutoVariableBase@@@3@$0A@@std@@@std@@IBEAAPAU_Node@?$_Tree_nod@V?$_Tset_traits@PAVFAutoVariableBase@@U?$less@PAVFAutoVariableBase@@@std@@V?$allocator@PAVFAutoVariableBase@@@3@$0A@@std@@@2@XZ PROC ; std::_Tree<std::_Tset_traits<FAutoVariableBase *,std::less<FAutoVariableBase *>,std::allocator<FAutoVariableBase *>,0> >::_Lmost, COMDAT
; _this$ = ecx

; 1281 : 		return (_Left(_Myhead));

	mov	eax, DWORD PTR [ecx+4]

; 1282 : 		}

	ret	0
?_Lmost@?$_Tree@V?$_Tset_traits@PAVFAutoVariableBase@@U?$less@PAVFAutoVariableBase@@@std@@V?$allocator@PAVFAutoVariableBase@@@3@$0A@@std@@@std@@IBEAAPAU_Node@?$_Tree_nod@V?$_Tset_traits@PAVFAutoVariableBase@@U?$less@PAVFAutoVariableBase@@@std@@V?$allocator@PAVFAutoVariableBase@@@3@$0A@@std@@@2@XZ ENDP ; std::_Tree<std::_Tset_traits<FAutoVariableBase *,std::less<FAutoVariableBase *>,std::allocator<FAutoVariableBase *>,0> >::_Lmost
_TEXT	ENDS
PUBLIC	?_Rmost@?$_Tree@V?$_Tset_traits@PAVFAutoVariableBase@@U?$less@PAVFAutoVariableBase@@@std@@V?$allocator@PAVFAutoVariableBase@@@3@$0A@@std@@@std@@IBEAAPAU_Node@?$_Tree_nod@V?$_Tset_traits@PAVFAutoVariableBase@@U?$less@PAVFAutoVariableBase@@@std@@V?$allocator@PAVFAutoVariableBase@@@3@$0A@@std@@@2@XZ ; std::_Tree<std::_Tset_traits<FAutoVariableBase *,std::less<FAutoVariableBase *>,std::allocator<FAutoVariableBase *>,0> >::_Rmost
; Function compile flags: /Ogtpy
;	COMDAT ?_Rmost@?$_Tree@V?$_Tset_traits@PAVFAutoVariableBase@@U?$less@PAVFAutoVariableBase@@@std@@V?$allocator@PAVFAutoVariableBase@@@3@$0A@@std@@@std@@IBEAAPAU_Node@?$_Tree_nod@V?$_Tset_traits@PAVFAutoVariableBase@@U?$less@PAVFAutoVariableBase@@@std@@V?$allocator@PAVFAutoVariableBase@@@3@$0A@@std@@@2@XZ
_TEXT	SEGMENT
?_Rmost@?$_Tree@V?$_Tset_traits@PAVFAutoVariableBase@@U?$less@PAVFAutoVariableBase@@@std@@V?$allocator@PAVFAutoVariableBase@@@3@$0A@@std@@@std@@IBEAAPAU_Node@?$_Tree_nod@V?$_Tset_traits@PAVFAutoVariableBase@@U?$less@PAVFAutoVariableBase@@@std@@V?$allocator@PAVFAutoVariableBase@@@3@$0A@@std@@@2@XZ PROC ; std::_Tree<std::_Tset_traits<FAutoVariableBase *,std::less<FAutoVariableBase *>,std::allocator<FAutoVariableBase *>,0> >::_Rmost, COMDAT
; _this$ = ecx

; 1320 : 		return (_Right(_Myhead));

	mov	eax, DWORD PTR [ecx+4]
	add	eax, 8

; 1321 : 		}

	ret	0
?_Rmost@?$_Tree@V?$_Tset_traits@PAVFAutoVariableBase@@U?$less@PAVFAutoVariableBase@@@std@@V?$allocator@PAVFAutoVariableBase@@@3@$0A@@std@@@std@@IBEAAPAU_Node@?$_Tree_nod@V?$_Tset_traits@PAVFAutoVariableBase@@U?$less@PAVFAutoVariableBase@@@std@@V?$allocator@PAVFAutoVariableBase@@@3@$0A@@std@@@2@XZ ENDP ; std::_Tree<std::_Tset_traits<FAutoVariableBase *,std::less<FAutoVariableBase *>,std::allocator<FAutoVariableBase *>,0> >::_Rmost
_TEXT	ENDS
PUBLIC	??0const_iterator@?$_Tree@V?$_Tset_traits@PAVFAutoVariableBase@@U?$less@PAVFAutoVariableBase@@@std@@V?$allocator@PAVFAutoVariableBase@@@3@$0A@@std@@@std@@QAE@PAU_Node@?$_Tree_nod@V?$_Tset_traits@PAVFAutoVariableBase@@U?$less@PAVFAutoVariableBase@@@std@@V?$allocator@PAVFAutoVariableBase@@@3@$0A@@std@@@2@@Z ; std::_Tree<std::_Tset_traits<FAutoVariableBase *,std::less<FAutoVariableBase *>,std::allocator<FAutoVariableBase *>,0> >::const_iterator::const_iterator
; Function compile flags: /Ogtpy
;	COMDAT ??0const_iterator@?$_Tree@V?$_Tset_traits@PAVFAutoVariableBase@@U?$less@PAVFAutoVariableBase@@@std@@V?$allocator@PAVFAutoVariableBase@@@3@$0A@@std@@@std@@QAE@PAU_Node@?$_Tree_nod@V?$_Tset_traits@PAVFAutoVariableBase@@U?$less@PAVFAutoVariableBase@@@std@@V?$allocator@PAVFAutoVariableBase@@@3@$0A@@std@@@2@@Z
_TEXT	SEGMENT
__Pnode$ = 8						; size = 4
??0const_iterator@?$_Tree@V?$_Tset_traits@PAVFAutoVariableBase@@U?$less@PAVFAutoVariableBase@@@std@@V?$allocator@PAVFAutoVariableBase@@@3@$0A@@std@@@std@@QAE@PAU_Node@?$_Tree_nod@V?$_Tset_traits@PAVFAutoVariableBase@@U?$less@PAVFAutoVariableBase@@@std@@V?$allocator@PAVFAutoVariableBase@@@3@$0A@@std@@@2@@Z PROC ; std::_Tree<std::_Tset_traits<FAutoVariableBase *,std::less<FAutoVariableBase *>,std::allocator<FAutoVariableBase *>,0> >::const_iterator::const_iterator, COMDAT
; _this$ = ecx

; 244  : 			{	// construct with node pointer _Pnode

	mov	eax, ecx
	mov	ecx, DWORD PTR __Pnode$[esp-4]
	mov	DWORD PTR [eax], ecx

; 245  : 			}

	ret	4
??0const_iterator@?$_Tree@V?$_Tset_traits@PAVFAutoVariableBase@@U?$less@PAVFAutoVariableBase@@@std@@V?$allocator@PAVFAutoVariableBase@@@3@$0A@@std@@@std@@QAE@PAU_Node@?$_Tree_nod@V?$_Tset_traits@PAVFAutoVariableBase@@U?$less@PAVFAutoVariableBase@@@std@@V?$allocator@PAVFAutoVariableBase@@@3@$0A@@std@@@2@@Z ENDP ; std::_Tree<std::_Tset_traits<FAutoVariableBase *,std::less<FAutoVariableBase *>,std::allocator<FAutoVariableBase *>,0> >::const_iterator::const_iterator
_TEXT	ENDS
PUBLIC	?max_size@?$allocator@PAVFAutoVariableBase@@@std@@QBEIXZ ; std::allocator<FAutoVariableBase *>::max_size
; Function compile flags: /Ogtpy
; File c:\program files (x86)\microsoft visual studio 9.0\vc\include\xmemory
;	COMDAT ?max_size@?$allocator@PAVFAutoVariableBase@@@std@@QBEIXZ
_TEXT	SEGMENT
?max_size@?$allocator@PAVFAutoVariableBase@@@std@@QBEIXZ PROC ; std::allocator<FAutoVariableBase *>::max_size, COMDAT
; _this$ = ecx

; 165  : 		_SIZT _Count = (_SIZT)(-1) / sizeof (_Ty);
; 166  : 		return (0 < _Count ? _Count : 1);

	mov	eax, 1073741823				; 3fffffffH

; 167  : 		}

	ret	0
?max_size@?$allocator@PAVFAutoVariableBase@@@std@@QBEIXZ ENDP ; std::allocator<FAutoVariableBase *>::max_size
_TEXT	ENDS
PUBLIC	?deallocate@?$allocator@U_Node@?$_Tree_nod@V?$_Tset_traits@PAVFAutoVariableBase@@U?$less@PAVFAutoVariableBase@@@std@@V?$allocator@PAVFAutoVariableBase@@@3@$0A@@std@@@std@@@std@@QAEXPAU_Node@?$_Tree_nod@V?$_Tset_traits@PAVFAutoVariableBase@@U?$less@PAVFAutoVariableBase@@@std@@V?$allocator@PAVFAutoVariableBase@@@3@$0A@@std@@@2@I@Z ; std::allocator<std::_Tree_nod<std::_Tset_traits<FAutoVariableBase *,std::less<FAutoVariableBase *>,std::allocator<FAutoVariableBase *>,0> >::_Node>::deallocate
; Function compile flags: /Ogtpy
;	COMDAT ?deallocate@?$allocator@U_Node@?$_Tree_nod@V?$_Tset_traits@PAVFAutoVariableBase@@U?$less@PAVFAutoVariableBase@@@std@@V?$allocator@PAVFAutoVariableBase@@@3@$0A@@std@@@std@@@std@@QAEXPAU_Node@?$_Tree_nod@V?$_Tset_traits@PAVFAutoVariableBase@@U?$less@PAVFAutoVariableBase@@@std@@V?$allocator@PAVFAutoVariableBase@@@3@$0A@@std@@@2@I@Z
_TEXT	SEGMENT
__Ptr$ = 8						; size = 4
___formal$ = 12						; size = 4
?deallocate@?$allocator@U_Node@?$_Tree_nod@V?$_Tset_traits@PAVFAutoVariableBase@@U?$less@PAVFAutoVariableBase@@@std@@V?$allocator@PAVFAutoVariableBase@@@3@$0A@@std@@@std@@@std@@QAEXPAU_Node@?$_Tree_nod@V?$_Tset_traits@PAVFAutoVariableBase@@U?$less@PAVFAutoVariableBase@@@std@@V?$allocator@PAVFAutoVariableBase@@@3@$0A@@std@@@2@I@Z PROC ; std::allocator<std::_Tree_nod<std::_Tset_traits<FAutoVariableBase *,std::less<FAutoVariableBase *>,std::allocator<FAutoVariableBase *>,0> >::_Node>::deallocate, COMDAT
; _this$ = ecx

; 140  : 		::operator delete(_Ptr);

	mov	eax, DWORD PTR __Ptr$[esp-4]
	push	eax
	call	??3@YAXPAX@Z				; operator delete
	pop	ecx

; 141  : 		}

	ret	8
?deallocate@?$allocator@U_Node@?$_Tree_nod@V?$_Tset_traits@PAVFAutoVariableBase@@U?$less@PAVFAutoVariableBase@@@std@@V?$allocator@PAVFAutoVariableBase@@@3@$0A@@std@@@std@@@std@@QAEXPAU_Node@?$_Tree_nod@V?$_Tset_traits@PAVFAutoVariableBase@@U?$less@PAVFAutoVariableBase@@@std@@V?$allocator@PAVFAutoVariableBase@@@3@$0A@@std@@@2@I@Z ENDP ; std::allocator<std::_Tree_nod<std::_Tset_traits<FAutoVariableBase *,std::less<FAutoVariableBase *>,std::allocator<FAutoVariableBase *>,0> >::_Node>::deallocate
_TEXT	ENDS
PUBLIC	??0_Node@?$_Tree_nod@V?$_Tset_traits@PAVFAutoVariableBase@@U?$less@PAVFAutoVariableBase@@@std@@V?$allocator@PAVFAutoVariableBase@@@3@$0A@@std@@@std@@QAE@PAU012@00ABQAVFAutoVariableBase@@D@Z ; std::_Tree_nod<std::_Tset_traits<FAutoVariableBase *,std::less<FAutoVariableBase *>,std::allocator<FAutoVariableBase *>,0> >::_Node::_Node
; Function compile flags: /Ogtpy
; File c:\program files (x86)\microsoft visual studio 9.0\vc\include\xtree
;	COMDAT ??0_Node@?$_Tree_nod@V?$_Tset_traits@PAVFAutoVariableBase@@U?$less@PAVFAutoVariableBase@@@std@@V?$allocator@PAVFAutoVariableBase@@@3@$0A@@std@@@std@@QAE@PAU012@00ABQAVFAutoVariableBase@@D@Z
_TEXT	SEGMENT
__Larg$ = 8						; size = 4
__Parg$ = 12						; size = 4
__Rarg$ = 16						; size = 4
__Val$ = 20						; size = 4
__Carg$ = 24						; size = 1
??0_Node@?$_Tree_nod@V?$_Tset_traits@PAVFAutoVariableBase@@U?$less@PAVFAutoVariableBase@@@std@@V?$allocator@PAVFAutoVariableBase@@@3@$0A@@std@@@std@@QAE@PAU012@00ABQAVFAutoVariableBase@@D@Z PROC ; std::_Tree_nod<std::_Tset_traits<FAutoVariableBase *,std::less<FAutoVariableBase *>,std::allocator<FAutoVariableBase *>,0> >::_Node::_Node, COMDAT
; _this$ = ecx

; 38   : 			{	// construct a node with value

	mov	edx, DWORD PTR __Parg$[esp-4]
	mov	eax, ecx
	mov	ecx, DWORD PTR __Larg$[esp-4]
	mov	DWORD PTR [eax], ecx
	mov	ecx, DWORD PTR __Rarg$[esp-4]
	mov	DWORD PTR [eax+4], edx
	mov	edx, DWORD PTR __Val$[esp-4]
	mov	DWORD PTR [eax+8], ecx
	mov	ecx, DWORD PTR [edx]
	mov	dl, BYTE PTR __Carg$[esp-4]
	mov	DWORD PTR [eax+12], ecx
	mov	BYTE PTR [eax+16], dl
	mov	BYTE PTR [eax+17], 0

; 39   : 			}

	ret	20					; 00000014H
??0_Node@?$_Tree_nod@V?$_Tset_traits@PAVFAutoVariableBase@@U?$less@PAVFAutoVariableBase@@@std@@V?$allocator@PAVFAutoVariableBase@@@3@$0A@@std@@@std@@QAE@PAU012@00ABQAVFAutoVariableBase@@D@Z ENDP ; std::_Tree_nod<std::_Tset_traits<FAutoVariableBase *,std::less<FAutoVariableBase *>,std::allocator<FAutoVariableBase *>,0> >::_Node::_Node
_TEXT	ENDS
PUBLIC	?_Max@?$_Tree@V?$_Tset_traits@PAVFAutoVariableBase@@U?$less@PAVFAutoVariableBase@@@std@@V?$allocator@PAVFAutoVariableBase@@@3@$0A@@std@@@std@@KAPAU_Node@?$_Tree_nod@V?$_Tset_traits@PAVFAutoVariableBase@@U?$less@PAVFAutoVariableBase@@@std@@V?$allocator@PAVFAutoVariableBase@@@3@$0A@@std@@@2@PAU342@@Z ; std::_Tree<std::_Tset_traits<FAutoVariableBase *,std::less<FAutoVariableBase *>,std::allocator<FAutoVariableBase *>,0> >::_Max
; Function compile flags: /Ogtpy
;	COMDAT ?_Max@?$_Tree@V?$_Tset_traits@PAVFAutoVariableBase@@U?$less@PAVFAutoVariableBase@@@std@@V?$allocator@PAVFAutoVariableBase@@@3@$0A@@std@@@std@@KAPAU_Node@?$_Tree_nod@V?$_Tset_traits@PAVFAutoVariableBase@@U?$less@PAVFAutoVariableBase@@@std@@V?$allocator@PAVFAutoVariableBase@@@3@$0A@@std@@@2@PAU342@@Z
_TEXT	SEGMENT
__Pnode$ = 8						; size = 4
?_Max@?$_Tree@V?$_Tset_traits@PAVFAutoVariableBase@@U?$less@PAVFAutoVariableBase@@@std@@V?$allocator@PAVFAutoVariableBase@@@3@$0A@@std@@@std@@KAPAU_Node@?$_Tree_nod@V?$_Tset_traits@PAVFAutoVariableBase@@U?$less@PAVFAutoVariableBase@@@std@@V?$allocator@PAVFAutoVariableBase@@@3@$0A@@std@@@2@PAU342@@Z PROC ; std::_Tree<std::_Tset_traits<FAutoVariableBase *,std::less<FAutoVariableBase *>,std::allocator<FAutoVariableBase *>,0> >::_Max, COMDAT

; 1306 : 		while (!_Isnil(_Right(_Pnode)))

	mov	eax, DWORD PTR __Pnode$[esp-4]
	mov	ecx, DWORD PTR [eax+8]
	cmp	BYTE PTR [ecx+17], 0
	jne	SHORT $LN1@Max
	npad	3
$LL2@Max:

; 1307 : 			_Pnode = _Right(_Pnode);

	mov	eax, ecx
	mov	ecx, DWORD PTR [eax+8]
	cmp	BYTE PTR [ecx+17], 0
	je	SHORT $LL2@Max
$LN1@Max:

; 1308 : 		return (_Pnode);
; 1309 : 		}

	ret	0
?_Max@?$_Tree@V?$_Tset_traits@PAVFAutoVariableBase@@U?$less@PAVFAutoVariableBase@@@std@@V?$allocator@PAVFAutoVariableBase@@@3@$0A@@std@@@std@@KAPAU_Node@?$_Tree_nod@V?$_Tset_traits@PAVFAutoVariableBase@@U?$less@PAVFAutoVariableBase@@@std@@V?$allocator@PAVFAutoVariableBase@@@3@$0A@@std@@@2@PAU342@@Z ENDP ; std::_Tree<std::_Tset_traits<FAutoVariableBase *,std::less<FAutoVariableBase *>,std::allocator<FAutoVariableBase *>,0> >::_Max
_TEXT	ENDS
PUBLIC	?get@?$FAutoVariable@W4PlayerTypes@@VCvUnit@@@@QBEABW4PlayerTypes@@XZ ; FAutoVariable<enum PlayerTypes,CvUnit>::get
; Function compile flags: /Ogtpy
; File c:\users\enormousapplepie\documents\github\lekmod\lekmod_dll\fireplace\include\fireworks\fautovariable.h
;	COMDAT ?get@?$FAutoVariable@W4PlayerTypes@@VCvUnit@@@@QBEABW4PlayerTypes@@XZ
_TEXT	SEGMENT
?get@?$FAutoVariable@W4PlayerTypes@@VCvUnit@@@@QBEABW4PlayerTypes@@XZ PROC ; FAutoVariable<enum PlayerTypes,CvUnit>::get, COMDAT
; _this$ = ecx

; 177  : 	return m_value;

	lea	eax, DWORD PTR [ecx+4]

; 178  : }

	ret	0
?get@?$FAutoVariable@W4PlayerTypes@@VCvUnit@@@@QBEABW4PlayerTypes@@XZ ENDP ; FAutoVariable<enum PlayerTypes,CvUnit>::get
_TEXT	ENDS
PUBLIC	??B?$FAutoVariable@HVCvUnit@@@@QBEABHXZ		; FAutoVariable<int,CvUnit>::operator int const &
; Function compile flags: /Ogtpy
;	COMDAT ??B?$FAutoVariable@HVCvUnit@@@@QBEABHXZ
_TEXT	SEGMENT
??B?$FAutoVariable@HVCvUnit@@@@QBEABHXZ PROC		; FAutoVariable<int,CvUnit>::operator int const &, COMDAT
; _this$ = ecx

; 194  : 	return m_value;

	lea	eax, DWORD PTR [ecx+4]

; 195  : }

	ret	0
??B?$FAutoVariable@HVCvUnit@@@@QBEABHXZ ENDP		; FAutoVariable<int,CvUnit>::operator int const &
_TEXT	ENDS
PUBLIC	??B?$FAutoVariable@HVCvCity@@@@QBEABHXZ		; FAutoVariable<int,CvCity>::operator int const &
; Function compile flags: /Ogtpy
;	COMDAT ??B?$FAutoVariable@HVCvCity@@@@QBEABHXZ
_TEXT	SEGMENT
??B?$FAutoVariable@HVCvCity@@@@QBEABHXZ PROC		; FAutoVariable<int,CvCity>::operator int const &, COMDAT
; _this$ = ecx

; 194  : 	return m_value;

	lea	eax, DWORD PTR [ecx+4]

; 195  : }

	ret	0
??B?$FAutoVariable@HVCvCity@@@@QBEABHXZ ENDP		; FAutoVariable<int,CvCity>::operator int const &
_TEXT	ENDS
PUBLIC	??B?$FAutoVariable@W4PlayerTypes@@VCvPlayer@@@@QBEABW4PlayerTypes@@XZ ; FAutoVariable<enum PlayerTypes,CvPlayer>::operator enum PlayerTypes const &
; Function compile flags: /Ogtpy
;	COMDAT ??B?$FAutoVariable@W4PlayerTypes@@VCvPlayer@@@@QBEABW4PlayerTypes@@XZ
_TEXT	SEGMENT
??B?$FAutoVariable@W4PlayerTypes@@VCvPlayer@@@@QBEABW4PlayerTypes@@XZ PROC ; FAutoVariable<enum PlayerTypes,CvPlayer>::operator enum PlayerTypes const &, COMDAT
; _this$ = ecx

; 194  : 	return m_value;

	lea	eax, DWORD PTR [ecx+4]

; 195  : }

	ret	0
??B?$FAutoVariable@W4PlayerTypes@@VCvPlayer@@@@QBEABW4PlayerTypes@@XZ ENDP ; FAutoVariable<enum PlayerTypes,CvPlayer>::operator enum PlayerTypes const &
_TEXT	ENDS
PUBLIC	??B?$FAutoVariable@_NVCvPlayer@@@@QBEAB_NXZ	; FAutoVariable<bool,CvPlayer>::operator bool const &
; Function compile flags: /Ogtpy
;	COMDAT ??B?$FAutoVariable@_NVCvPlayer@@@@QBEAB_NXZ
_TEXT	SEGMENT
??B?$FAutoVariable@_NVCvPlayer@@@@QBEAB_NXZ PROC	; FAutoVariable<bool,CvPlayer>::operator bool const &, COMDAT
; _this$ = ecx

; 194  : 	return m_value;

	lea	eax, DWORD PTR [ecx+4]

; 195  : }

	ret	0
??B?$FAutoVariable@_NVCvPlayer@@@@QBEAB_NXZ ENDP	; FAutoVariable<bool,CvPlayer>::operator bool const &
_TEXT	ENDS
PUBLIC	??B?$FAutoVariable@DVCvPlot@@@@QBEABDXZ		; FAutoVariable<char,CvPlot>::operator char const &
; Function compile flags: /Ogtpy
;	COMDAT ??B?$FAutoVariable@DVCvPlot@@@@QBEABDXZ
_TEXT	SEGMENT
??B?$FAutoVariable@DVCvPlot@@@@QBEABDXZ PROC		; FAutoVariable<char,CvPlot>::operator char const &, COMDAT
; _this$ = ecx

; 194  : 	return m_value;

	lea	eax, DWORD PTR [ecx+4]

; 195  : }

	ret	0
??B?$FAutoVariable@DVCvPlot@@@@QBEABDXZ ENDP		; FAutoVariable<char,CvPlot>::operator char const &
_TEXT	ENDS
PUBLIC	??$_Allocate@U_Node@?$_Tree_nod@V?$_Tset_traits@PAVFAutoVariableBase@@U?$less@PAVFAutoVariableBase@@@std@@V?$allocator@PAVFAutoVariableBase@@@3@$0A@@std@@@std@@@std@@YAPAU_Node@?$_Tree_nod@V?$_Tset_traits@PAVFAutoVariableBase@@U?$less@PAVFAutoVariableBase@@@std@@V?$allocator@PAVFAutoVariableBase@@@3@$0A@@std@@@0@IPAU120@@Z ; std::_Allocate<std::_Tree_nod<std::_Tset_traits<FAutoVariableBase *,std::less<FAutoVariableBase *>,std::allocator<FAutoVariableBase *>,0> >::_Node>
; Function compile flags: /Ogtpy
; File c:\program files (x86)\microsoft visual studio 9.0\vc\include\xmemory
;	COMDAT ??$_Allocate@U_Node@?$_Tree_nod@V?$_Tset_traits@PAVFAutoVariableBase@@U?$less@PAVFAutoVariableBase@@@std@@V?$allocator@PAVFAutoVariableBase@@@3@$0A@@std@@@std@@@std@@YAPAU_Node@?$_Tree_nod@V?$_Tset_traits@PAVFAutoVariableBase@@U?$less@PAVFAutoVariableBase@@@std@@V?$allocator@PAVFAutoVariableBase@@@3@$0A@@std@@@0@IPAU120@@Z
_TEXT	SEGMENT
$T230528 = -12						; size = 12
$T230532 = 8						; size = 4
__Count$ = 8						; size = 4
___formal$ = 12						; size = 4
??$_Allocate@U_Node@?$_Tree_nod@V?$_Tset_traits@PAVFAutoVariableBase@@U?$less@PAVFAutoVariableBase@@@std@@V?$allocator@PAVFAutoVariableBase@@@3@$0A@@std@@@std@@@std@@YAPAU_Node@?$_Tree_nod@V?$_Tset_traits@PAVFAutoVariableBase@@U?$less@PAVFAutoVariableBase@@@std@@V?$allocator@PAVFAutoVariableBase@@@3@$0A@@std@@@0@IPAU120@@Z PROC ; std::_Allocate<std::_Tree_nod<std::_Tset_traits<FAutoVariableBase *,std::less<FAutoVariableBase *>,std::allocator<FAutoVariableBase *>,0> >::_Node>, COMDAT

; 37   : 	if (_Count <= 0)

	mov	ecx, DWORD PTR __Count$[esp-4]
	sub	esp, 12					; 0000000cH
	test	ecx, ecx
	ja	SHORT $LN3@Allocate@2

; 38   : 		_Count = 0;

	xor	ecx, ecx
$LN1@Allocate@2:

; 41   : 
; 42   : 		// allocate storage for _Count elements of type _Ty
; 43   : 	return ((_Ty _FARQ *)::operator new(_Count * sizeof (_Ty)));

	lea	edx, DWORD PTR [ecx+ecx*4]
	add	edx, edx
	add	edx, edx
	push	edx
	call	??2@YAPAXI@Z				; operator new
	add	esp, 4

; 44   : 	}

	add	esp, 12					; 0000000cH
	ret	0
$LN3@Allocate@2:

; 39   : 	else if (((_SIZT)(-1) / _Count) < sizeof (_Ty))

	or	eax, -1
	xor	edx, edx
	div	ecx
	cmp	eax, 20					; 00000014H
	jae	SHORT $LN1@Allocate@2

; 40   : 		_THROW_NCEE(std::bad_alloc, NULL);

	lea	eax, DWORD PTR $T230532[esp+8]
	push	eax
	lea	ecx, DWORD PTR $T230528[esp+16]
	mov	DWORD PTR $T230532[esp+12], 0
	call	DWORD PTR __imp_??0exception@std@@QAE@ABQBD@Z
	push	OFFSET __TI2?AVbad_alloc@std@@
	lea	ecx, DWORD PTR $T230528[esp+16]
	push	ecx
	mov	DWORD PTR $T230528[esp+20], OFFSET ??_7bad_alloc@std@@6B@
	call	__CxxThrowException@8
$LN9@Allocate@2:
$LN8@Allocate@2:
	int	3
??$_Allocate@U_Node@?$_Tree_nod@V?$_Tset_traits@PAVFAutoVariableBase@@U?$less@PAVFAutoVariableBase@@@std@@V?$allocator@PAVFAutoVariableBase@@@3@$0A@@std@@@std@@@std@@YAPAU_Node@?$_Tree_nod@V?$_Tset_traits@PAVFAutoVariableBase@@U?$less@PAVFAutoVariableBase@@@std@@V?$allocator@PAVFAutoVariableBase@@@3@$0A@@std@@@0@IPAU120@@Z ENDP ; std::_Allocate<std::_Tree_nod<std::_Tset_traits<FAutoVariableBase *,std::less<FAutoVariableBase *>,std::allocator<FAutoVariableBase *>,0> >::_Node>
; Function compile flags: /Ogtpy
_TEXT	ENDS
;	COMDAT ??0bad_alloc@std@@QAE@ABV01@@Z
_TEXT	SEGMENT
___that$ = 8						; size = 4
??0bad_alloc@std@@QAE@ABV01@@Z PROC			; std::bad_alloc::bad_alloc, COMDAT
; _this$ = ecx
	mov	eax, DWORD PTR ___that$[esp-4]
	push	esi
	push	eax
	mov	esi, ecx
	call	DWORD PTR __imp_??0exception@std@@QAE@ABV01@@Z
	mov	DWORD PTR [esi], OFFSET ??_7bad_alloc@std@@6B@
	mov	eax, esi
	pop	esi
	ret	4
??0bad_alloc@std@@QAE@ABV01@@Z ENDP			; std::bad_alloc::bad_alloc
_TEXT	ENDS
PUBLIC	??$?5I@FDataStream@@QAEAAV0@AAI@Z		; FDataStream::operator>><unsigned int>
EXTRN	?Read@FDataStream@@IAEXAAI@Z:PROC		; FDataStream::Read
; Function compile flags: /Ogtpy
; File c:\users\enormousapplepie\documents\github\lekmod\lekmod_dll\fireplace\include\fireworks\fdatastream.h
;	COMDAT ??$?5I@FDataStream@@QAEAAV0@AAI@Z
_TEXT	SEGMENT
_kData$ = 8						; size = 4
??$?5I@FDataStream@@QAEAAV0@AAI@Z PROC			; FDataStream::operator>><unsigned int>, COMDAT
; _this$ = ecx

; 260  : 	// If the compiler produces an error here complaining about 
; 261  : 	// YouMustImplementASerializeOperatorForThisTypeError then
; 262  : 	// it could not find a specialization for the type supplied
; 263  : 	// in scope. If a specialization exists, be sure to include
; 264  : 	// the header (FStlContainerSerialization.h, for example), 
; 265  : 	// if not, implement :
; 266  : 	// FDataStream & operator>>(FDataStream &, YourCustomType &)
; 267  : 	Read( kData );

	mov	eax, DWORD PTR _kData$[esp-4]
	push	esi
	push	eax
	mov	esi, ecx
	call	?Read@FDataStream@@IAEXAAI@Z		; FDataStream::Read

; 268  : 	return ( *this );

	mov	eax, esi
	pop	esi

; 269  : }

	ret	4
??$?5I@FDataStream@@QAEAAV0@AAI@Z ENDP			; FDataStream::operator>><unsigned int>
_TEXT	ENDS
PUBLIC	??$?6I@FDataStream@@QAEAAV0@ABI@Z		; FDataStream::operator<<<unsigned int>
EXTRN	?Write@FDataStream@@IAEXABI@Z:PROC		; FDataStream::Write
; Function compile flags: /Ogtpy
;	COMDAT ??$?6I@FDataStream@@QAEAAV0@ABI@Z
_TEXT	SEGMENT
_kData$ = 8						; size = 4
??$?6I@FDataStream@@QAEAAV0@ABI@Z PROC			; FDataStream::operator<<<unsigned int>, COMDAT
; _this$ = ecx

; 246  : 	// If the compiler produces an error here complaining about 
; 247  : 	// YouMustImplementASerializeOperatorForThisTypeError then
; 248  : 	// it could not find a specialization for the type supplied
; 249  : 	// in scope. If a specialization exists, be sure to include
; 250  : 	// the header (FStlContainerSerialization.h, for example), 
; 251  : 	// if not, implement :
; 252  : 	// FDataStream & operator<<(FDataStream &, YourCustomType &)
; 253  : 	Write( kData );

	mov	eax, DWORD PTR _kData$[esp-4]
	push	esi
	push	eax
	mov	esi, ecx
	call	?Write@FDataStream@@IAEXABI@Z		; FDataStream::Write

; 254  : 	return ( *this );

	mov	eax, esi
	pop	esi

; 255  : }

	ret	4
??$?6I@FDataStream@@QAEAAV0@ABI@Z ENDP			; FDataStream::operator<<<unsigned int>
_TEXT	ENDS
PUBLIC	?dxWrap@@YAHH@Z					; dxWrap
; Function compile flags: /Ogtpy
; File c:\users\enormousapplepie\documents\github\lekmod\lekmod_dll\cvgamecoredll_expansion2\cvgamecoreutils.h
;	COMDAT ?dxWrap@@YAHH@Z
_TEXT	SEGMENT
_iDX$ = 8						; size = 4
?dxWrap@@YAHH@Z PROC					; dxWrap, COMDAT

; 74   : 	const CvMap& kMap = GC.getMap();

	mov	eax, DWORD PTR ?gGlobals@@3VCvGlobals@@A+52

; 75   : 	return wrapCoordDifference(iDX, kMap.getGridWidth(), kMap.isWrapX());

	mov	edx, DWORD PTR [eax+4020]
	cmp	BYTE PTR [eax+4056], 0
	mov	eax, DWORD PTR _iDX$[esp-4]
	je	SHORT $LN13@dxWrap
	mov	ecx, edx
	shr	ecx, 1
	cmp	eax, ecx
	jle	SHORT $LN11@dxWrap
	sub	eax, edx

; 76   : }

	ret	0

; 75   : 	return wrapCoordDifference(iDX, kMap.getGridWidth(), kMap.isWrapX());

$LN11@dxWrap:
	neg	ecx
	cmp	eax, ecx
	jge	SHORT $LN13@dxWrap
	add	eax, edx
$LN13@dxWrap:

; 76   : }

	ret	0
?dxWrap@@YAHH@Z ENDP					; dxWrap
_TEXT	ENDS
PUBLIC	?dyWrap@@YAHH@Z					; dyWrap
; Function compile flags: /Ogtpy
;	COMDAT ?dyWrap@@YAHH@Z
_TEXT	SEGMENT
_iDY$ = 8						; size = 4
?dyWrap@@YAHH@Z PROC					; dyWrap, COMDAT

; 80   : 	const CvMap& kMap = GC.getMap();

	mov	eax, DWORD PTR ?gGlobals@@3VCvGlobals@@A+52

; 81   : 	return wrapCoordDifference(iDY, kMap.getGridHeight(), kMap.isWrapY());

	mov	edx, DWORD PTR [eax+4024]
	cmp	BYTE PTR [eax+4057], 0
	mov	eax, DWORD PTR _iDY$[esp-4]
	je	SHORT $LN13@dyWrap
	mov	ecx, edx
	shr	ecx, 1
	cmp	eax, ecx
	jle	SHORT $LN11@dyWrap
	sub	eax, edx

; 82   : }

	ret	0

; 81   : 	return wrapCoordDifference(iDY, kMap.getGridHeight(), kMap.isWrapY());

$LN11@dyWrap:
	neg	ecx
	cmp	eax, ecx
	jge	SHORT $LN13@dyWrap
	add	eax, edx
$LN13@dyWrap:

; 82   : }

	ret	0
?dyWrap@@YAHH@Z ENDP					; dyWrap
_TEXT	ENDS
PUBLIC	?plotDistance@@YAHHHHH@Z			; plotDistance
; Function compile flags: /Ogtpy
;	COMDAT ?plotDistance@@YAHHHHH@Z
_TEXT	SEGMENT
_iDX$ = 8						; size = 4
_iX1$ = 8						; size = 4
_iY1$ = 12						; size = 4
_iDY$ = 16						; size = 4
_iX2$ = 16						; size = 4
_iY2$ = 20						; size = 4
?plotDistance@@YAHHHHH@Z PROC				; plotDistance, COMDAT

; 145  : 	int iDX;
; 146  : 	int iWrappedDX = dxWrap(iX2 - iX1);

	mov	eax, DWORD PTR _iX2$[esp-4]
	sub	eax, DWORD PTR _iX1$[esp-4]
	push	ebx
	mov	ebx, DWORD PTR ?gGlobals@@3VCvGlobals@@A+52
	cmp	BYTE PTR [ebx+4056], 0
	mov	edx, DWORD PTR [ebx+4020]
	push	ebp
	push	esi
	je	SHORT $LN13@plotDistan
	mov	ecx, edx
	shr	ecx, 1
	cmp	eax, ecx
	jle	SHORT $LN15@plotDistan
	sub	eax, edx
	jmp	SHORT $LN13@plotDistan
$LN15@plotDistan:
	neg	ecx
	cmp	eax, ecx
	lea	ecx, DWORD PTR [edx+eax]
	jl	SHORT $LN17@plotDistan
$LN13@plotDistan:
	mov	ecx, eax
$LN17@plotDistan:

; 147  : 	int iWrappedDY = dyWrap(iY2 - iY1);

	mov	eax, DWORD PTR _iY2$[esp+8]
	mov	esi, DWORD PTR [ebx+4024]
	push	edi
	mov	edi, DWORD PTR _iY1$[esp+12]
	sub	eax, edi
	cmp	BYTE PTR [ebx+4057], 0
	je	SHORT $LN27@plotDistan
	mov	edx, esi
	shr	edx, 1
	cmp	eax, edx
	jle	SHORT $LN29@plotDistan
	sub	eax, esi
	jmp	SHORT $LN27@plotDistan
$LN29@plotDistan:
	neg	edx
	cmp	eax, edx
	lea	ebp, DWORD PTR [esi+eax]
	jl	SHORT $LN31@plotDistan
$LN27@plotDistan:
	mov	ebp, eax
$LN31@plotDistan:

; 148  : 	int iDY = abs(iWrappedDY);

	mov	eax, ebp
	cdq
	xor	eax, edx
	sub	eax, edx
	mov	DWORD PTR _iDY$[esp+12], eax

; 149  : 
; 150  : 	// convert to hex-space coordinates - the coordinate system axes are E and NE (not orthogonal)
; 151  : 	int iHX1 = xToHexspaceX(iX1, iY1);

	test	edi, edi
	jl	SHORT $LN35@plotDistan
	mov	eax, edi
	jmp	SHORT $LN59@plotDistan
$LN35@plotDistan:
	lea	eax, DWORD PTR [edi-1]
	cdq
	sub	eax, edx
$LN59@plotDistan:
	mov	esi, DWORD PTR _iX1$[esp+12]
	sar	eax, 1
	sub	esi, eax

; 152  : 	int iHX2 = xToHexspaceX(iX1 + iWrappedDX, iY1 + iWrappedDY);

	lea	eax, DWORD PTR [edi+ebp]
	pop	edi
	test	eax, eax
	jge	SHORT $LN60@plotDistan
	dec	eax
	cdq
	sub	eax, edx
$LN60@plotDistan:

; 153  : 
; 154  : 	iDX = abs(dxWrap(iHX2 - iHX1));

	mov	edx, DWORD PTR [ebx+4020]
	sar	eax, 1
	sub	ecx, eax
	add	ecx, DWORD PTR _iX1$[esp+8]
	sub	ecx, esi
	cmp	BYTE PTR [ebx+4056], 0
	je	SHORT $LN49@plotDistan
	mov	eax, edx
	shr	eax, 1
	cmp	ecx, eax
	jle	SHORT $LN51@plotDistan
	mov	eax, ecx
	sub	eax, edx
	jmp	SHORT $LN53@plotDistan
$LN51@plotDistan:
	neg	eax
	cmp	ecx, eax
	lea	eax, DWORD PTR [edx+ecx]
	jl	SHORT $LN53@plotDistan
$LN49@plotDistan:
	mov	eax, ecx
$LN53@plotDistan:
	cdq
	xor	eax, edx
	sub	eax, edx

; 155  : 
; 156  : #ifdef NQM_GAME_CORE_UTILS_OPTIMIZATIONS
; 157  : 	if (((iHX2 - iHX1) ^ (iWrappedDY)) >= 0)  // the signs match
; 158  : #else
; 159  : 	if((iHX2 - iHX1 >= 0) == (iWrappedDY >= 0))  // the signs match

	xor	edx, edx
	test	ecx, ecx
	setge	dl
	xor	ecx, ecx
	test	ebp, ebp
	setge	cl
	pop	esi
	pop	ebp
	mov	DWORD PTR _iDX$[esp], eax
	pop	ebx
	cmp	edx, ecx
	jne	SHORT $LN2@plotDistan

; 160  : #endif
; 161  : 	{
; 162  : 		return iDX + iDY;

	mov	edx, DWORD PTR _iDY$[esp-4]
	add	eax, edx

; 170  : #endif
; 171  : 	}
; 172  : }

	ret	0
$LN2@plotDistan:

; 163  : 	}
; 164  : 	else
; 165  : 	{
; 166  : #ifdef NQM_FAST_COMP
; 167  : 		return (MAX(iDX, iDY));
; 168  : #else
; 169  : 		return (std::max(iDX, iDY));

	cmp	eax, DWORD PTR _iDY$[esp-4]
	lea	eax, DWORD PTR _iDY$[esp-4]
	jl	SHORT $LN58@plotDistan
	lea	eax, DWORD PTR _iDX$[esp-4]
$LN58@plotDistan:
	mov	eax, DWORD PTR [eax]

; 170  : #endif
; 171  : 	}
; 172  : }

	ret	0
?plotDistance@@YAHHHHH@Z ENDP				; plotDistance
_TEXT	ENDS
PUBLIC	?freeStatics@CvPlayerAI@@SAXXZ			; CvPlayerAI::freeStatics
; Function compile flags: /Ogtpy
; File c:\users\enormousapplepie\documents\github\lekmod\lekmod_dll\cvgamecoredll_expansion2\cvplayerai.cpp
;	COMDAT ?freeStatics@CvPlayerAI@@SAXXZ
_TEXT	SEGMENT
?freeStatics@CvPlayerAI@@SAXXZ PROC			; CvPlayerAI::freeStatics, COMDAT

; 54   : 	SAFE_DELETE_ARRAY(m_aPlayers);

	mov	ecx, DWORD PTR ?m_aPlayers@CvPlayerAI@@1PAV1@A ; CvPlayerAI::m_aPlayers
	test	ecx, ecx
	je	SHORT $LN9@freeStatic
	cmp	DWORD PTR [ecx-4], 0
	lea	eax, DWORD PTR [ecx-4]
	je	SHORT $LN5@freeStatic
	mov	eax, DWORD PTR [ecx]
	mov	edx, DWORD PTR [eax]
	push	3
	call	edx
	mov	DWORD PTR ?m_aPlayers@CvPlayerAI@@1PAV1@A, 0 ; CvPlayerAI::m_aPlayers

; 55   : }

	ret	0

; 54   : 	SAFE_DELETE_ARRAY(m_aPlayers);

$LN5@freeStatic:
	push	eax
	call	??_V@YAXPAX@Z				; operator delete[]
	add	esp, 4
$LN9@freeStatic:
	mov	DWORD PTR ?m_aPlayers@CvPlayerAI@@1PAV1@A, 0 ; CvPlayerAI::m_aPlayers

; 55   : }

	ret	0
?freeStatics@CvPlayerAI@@SAXXZ ENDP			; CvPlayerAI::freeStatics
_TEXT	ENDS
PUBLIC	??_7CvPlayerAI@@6B@				; CvPlayerAI::`vftable'
PUBLIC	??0CvPlayerAI@@QAE@XZ				; CvPlayerAI::CvPlayerAI
PUBLIC	??_R4CvPlayerAI@@6B@				; CvPlayerAI::`RTTI Complete Object Locator'
PUBLIC	??_R0?AVCvPlayerAI@@@8				; CvPlayerAI `RTTI Type Descriptor'
PUBLIC	??_R3CvPlayerAI@@8				; CvPlayerAI::`RTTI Class Hierarchy Descriptor'
PUBLIC	??_R2CvPlayerAI@@8				; CvPlayerAI::`RTTI Base Class Array'
PUBLIC	??_R1A@?0A@EA@CvPlayerAI@@8			; CvPlayerAI::`RTTI Base Class Descriptor at (0,-1,0,64)'
PUBLIC	??_R1A@?0A@EA@CvPlayer@@8			; CvPlayer::`RTTI Base Class Descriptor at (0,-1,0,64)'
PUBLIC	??_R0?AVCvPlayer@@@8				; CvPlayer `RTTI Type Descriptor'
PUBLIC	??_R3CvPlayer@@8				; CvPlayer::`RTTI Class Hierarchy Descriptor'
PUBLIC	??_R2CvPlayer@@8				; CvPlayer::`RTTI Base Class Array'
PUBLIC	??_ECvPlayerAI@@UAEPAXI@Z			; CvPlayerAI::`vector deleting destructor'
PUBLIC	?Read@CvPlayerAI@@UAEXAAVFDataStream@@@Z	; CvPlayerAI::Read
PUBLIC	?Write@CvPlayerAI@@UBEXAAVFDataStream@@@Z	; CvPlayerAI::Write
PUBLIC	?AI_doTurnPre@CvPlayerAI@@UAEXXZ		; CvPlayerAI::AI_doTurnPre
PUBLIC	?AI_doTurnPost@CvPlayerAI@@UAEXXZ		; CvPlayerAI::AI_doTurnPost
PUBLIC	?AI_updateFoundValues@CvPlayerAI@@UAEX_N@Z	; CvPlayerAI::AI_updateFoundValues
PUBLIC	?AI_unitUpdate@CvPlayerAI@@UAEXXZ		; CvPlayerAI::AI_unitUpdate
PUBLIC	?AI_conquerCity@CvPlayerAI@@UAEXPAVCvCity@@W4PlayerTypes@@@Z ; CvPlayerAI::AI_conquerCity
PUBLIC	?AI_foundValue@CvPlayerAI@@UAEHHHH_N@Z		; CvPlayerAI::AI_foundValue
PUBLIC	?AI_chooseFreeGreatPerson@CvPlayerAI@@UAEXXZ	; CvPlayerAI::AI_chooseFreeGreatPerson
PUBLIC	?AI_chooseFreeTech@CvPlayerAI@@UAEXXZ		; CvPlayerAI::AI_chooseFreeTech
PUBLIC	?AI_chooseResearch@CvPlayerAI@@UAEXXZ		; CvPlayerAI::AI_chooseResearch
PUBLIC	?AI_plotTargetMissionAIs@CvPlayerAI@@UAEHPAVCvPlot@@W4MissionAITypes@@H@Z ; CvPlayerAI::AI_plotTargetMissionAIs
PUBLIC	?AI_launch@CvPlayerAI@@UAEXW4VictoryTypes@@@Z	; CvPlayerAI::AI_launch
PUBLIC	?PeekAtNextUnitToBuildForOperationSlot@CvPlayerAI@@UAE?AUOperationSlot@@H@Z ; CvPlayerAI::PeekAtNextUnitToBuildForOperationSlot
PUBLIC	?CityCommitToBuildUnitForOperationSlot@CvPlayerAI@@UAE?AUOperationSlot@@HHPAVCvCity@@@Z ; CvPlayerAI::CityCommitToBuildUnitForOperationSlot
PUBLIC	?CityFinishedBuildingUnitForOperationSlot@CvPlayerAI@@UAEXUOperationSlot@@PAVCvUnit@@@Z ; CvPlayerAI::CityFinishedBuildingUnitForOperationSlot
PUBLIC	?GetNumUnitsNeededToBeBuilt@CvPlayerAI@@UAEHXZ	; CvPlayerAI::GetNumUnitsNeededToBeBuilt
EXTRN	??0CvPlayer@@QAE@XZ:PROC			; CvPlayer::CvPlayer
;	COMDAT ??_R2CvPlayer@@8
rdata$r	SEGMENT
??_R2CvPlayer@@8 DD FLAT:??_R1A@?0A@EA@CvPlayer@@8	; CvPlayer::`RTTI Base Class Array'
rdata$r	ENDS
;	COMDAT ??_R3CvPlayer@@8
rdata$r	SEGMENT
??_R3CvPlayer@@8 DD 00H					; CvPlayer::`RTTI Class Hierarchy Descriptor'
	DD	00H
	DD	01H
	DD	FLAT:??_R2CvPlayer@@8
rdata$r	ENDS
;	COMDAT ??_R0?AVCvPlayer@@@8
_DATA	SEGMENT
??_R0?AVCvPlayer@@@8 DD FLAT:??_7type_info@@6B@		; CvPlayer `RTTI Type Descriptor'
	DD	00H
	DB	'.?AVCvPlayer@@', 00H
_DATA	ENDS
;	COMDAT ??_R1A@?0A@EA@CvPlayer@@8
rdata$r	SEGMENT
??_R1A@?0A@EA@CvPlayer@@8 DD FLAT:??_R0?AVCvPlayer@@@8	; CvPlayer::`RTTI Base Class Descriptor at (0,-1,0,64)'
	DD	00H
	DD	00H
	DD	0ffffffffH
	DD	00H
	DD	040H
	DD	FLAT:??_R3CvPlayer@@8
rdata$r	ENDS
;	COMDAT ??_R1A@?0A@EA@CvPlayerAI@@8
rdata$r	SEGMENT
??_R1A@?0A@EA@CvPlayerAI@@8 DD FLAT:??_R0?AVCvPlayerAI@@@8 ; CvPlayerAI::`RTTI Base Class Descriptor at (0,-1,0,64)'
	DD	01H
	DD	00H
	DD	0ffffffffH
	DD	00H
	DD	040H
	DD	FLAT:??_R3CvPlayerAI@@8
rdata$r	ENDS
;	COMDAT ??_R2CvPlayerAI@@8
rdata$r	SEGMENT
??_R2CvPlayerAI@@8 DD FLAT:??_R1A@?0A@EA@CvPlayerAI@@8	; CvPlayerAI::`RTTI Base Class Array'
	DD	FLAT:??_R1A@?0A@EA@CvPlayer@@8
rdata$r	ENDS
;	COMDAT ??_R3CvPlayerAI@@8
rdata$r	SEGMENT
??_R3CvPlayerAI@@8 DD 00H				; CvPlayerAI::`RTTI Class Hierarchy Descriptor'
	DD	00H
	DD	02H
	DD	FLAT:??_R2CvPlayerAI@@8
rdata$r	ENDS
;	COMDAT ??_R0?AVCvPlayerAI@@@8
_DATA	SEGMENT
??_R0?AVCvPlayerAI@@@8 DD FLAT:??_7type_info@@6B@	; CvPlayerAI `RTTI Type Descriptor'
	DD	00H
	DB	'.?AVCvPlayerAI@@', 00H
_DATA	ENDS
;	COMDAT ??_R4CvPlayerAI@@6B@
rdata$r	SEGMENT
??_R4CvPlayerAI@@6B@ DD 00H				; CvPlayerAI::`RTTI Complete Object Locator'
	DD	00H
	DD	00H
	DD	FLAT:??_R0?AVCvPlayerAI@@@8
	DD	FLAT:??_R3CvPlayerAI@@8
rdata$r	ENDS
;	COMDAT ??_7CvPlayerAI@@6B@
CONST	SEGMENT
??_7CvPlayerAI@@6B@ DD FLAT:??_R4CvPlayerAI@@6B@	; CvPlayerAI::`vftable'
	DD	FLAT:??_ECvPlayerAI@@UAEPAXI@Z
	DD	FLAT:?Read@CvPlayerAI@@UAEXAAVFDataStream@@@Z
	DD	FLAT:?Write@CvPlayerAI@@UBEXAAVFDataStream@@@Z
	DD	FLAT:?AI_init@CvPlayerAI@@UAEXXZ
	DD	FLAT:?AI_reset@CvPlayerAI@@UAEXXZ
	DD	FLAT:?AI_doTurnPre@CvPlayerAI@@UAEXXZ
	DD	FLAT:?AI_doTurnPost@CvPlayerAI@@UAEXXZ
	DD	FLAT:?AI_doTurnUnitsPre@CvPlayerAI@@UAEXXZ
	DD	FLAT:?AI_doTurnUnitsPost@CvPlayerAI@@UAEXXZ
	DD	FLAT:?AI_updateFoundValues@CvPlayerAI@@UAEX_N@Z
	DD	FLAT:?AI_unitUpdate@CvPlayerAI@@UAEXXZ
	DD	FLAT:?AI_conquerCity@CvPlayerAI@@UAEXPAVCvCity@@W4PlayerTypes@@@Z
	DD	FLAT:?AI_foundValue@CvPlayerAI@@UAEHHHH_N@Z
	DD	FLAT:?AI_chooseFreeGreatPerson@CvPlayerAI@@UAEXXZ
	DD	FLAT:?AI_chooseFreeTech@CvPlayerAI@@UAEXXZ
	DD	FLAT:?AI_chooseResearch@CvPlayerAI@@UAEXXZ
	DD	FLAT:?AI_plotTargetMissionAIs@CvPlayerAI@@UAEHPAVCvPlot@@W4MissionAITypes@@H@Z
	DD	FLAT:?AI_launch@CvPlayerAI@@UAEXW4VictoryTypes@@@Z
	DD	FLAT:?PeekAtNextUnitToBuildForOperationSlot@CvPlayerAI@@UAE?AUOperationSlot@@H@Z
	DD	FLAT:?CityCommitToBuildUnitForOperationSlot@CvPlayerAI@@UAE?AUOperationSlot@@HHPAVCvCity@@@Z
	DD	FLAT:?CityUncommitToBuildUnitForOperationSlot@CvPlayerAI@@UAEXUOperationSlot@@@Z
	DD	FLAT:?CityFinishedBuildingUnitForOperationSlot@CvPlayerAI@@UAEXUOperationSlot@@PAVCvUnit@@@Z
	DD	FLAT:?GetNumUnitsNeededToBeBuilt@CvPlayerAI@@UAEHXZ
; Function compile flags: /Ogtpy
CONST	ENDS
;	COMDAT ??0CvPlayerAI@@QAE@XZ
_TEXT	SEGMENT
??0CvPlayerAI@@QAE@XZ PROC				; CvPlayerAI::CvPlayerAI, COMDAT
; _this$ = ecx

; 59   : {

	push	esi
	mov	esi, ecx
	call	??0CvPlayer@@QAE@XZ			; CvPlayer::CvPlayer
	mov	DWORD PTR [esi], OFFSET ??_7CvPlayerAI@@6B@

; 60   : 	AI_reset();
; 61   : }

	mov	eax, esi
	pop	esi
	ret	0
??0CvPlayerAI@@QAE@XZ ENDP				; CvPlayerAI::CvPlayerAI
_TEXT	ENDS
PUBLIC	??1CvPlayerAI@@UAE@XZ				; CvPlayerAI::~CvPlayerAI
EXTRN	??1CvPlayer@@UAE@XZ:PROC			; CvPlayer::~CvPlayer
; Function compile flags: /Ogtpy
;	COMDAT ??1CvPlayerAI@@UAE@XZ
_TEXT	SEGMENT
??1CvPlayerAI@@UAE@XZ PROC				; CvPlayerAI::~CvPlayerAI, COMDAT
; _this$ = ecx

; 65   : {

	mov	DWORD PTR [ecx], OFFSET ??_7CvPlayerAI@@6B@

; 66   : 	AI_uninit();
; 67   : }

	jmp	??1CvPlayer@@UAE@XZ			; CvPlayer::~CvPlayer
??1CvPlayerAI@@UAE@XZ ENDP				; CvPlayerAI::~CvPlayerAI
_TEXT	ENDS
EXTRN	?ChangeNumFreeGreatPeople@CvPlayer@@QAEXH@Z:PROC ; CvPlayer::ChangeNumFreeGreatPeople
EXTRN	?DoSpawnGreatPerson@CvCityCitizens@@QAEXW4UnitTypes@@_N1@Z:PROC ; CvCityCitizens::DoSpawnGreatPerson
EXTRN	?GetCityCitizens@CvCity@@QBEPAVCvCityCitizens@@XZ:PROC ; CvCity::GetCityCitizens
EXTRN	?getCapitalCity@CvPlayer@@QAEPAVCvCity@@XZ:PROC	; CvPlayer::getCapitalCity
EXTRN	?GetActiveGrandStrategy@CvGrandStrategyAI@@QBE?AW4AIGrandStrategyTypes@@XZ:PROC ; CvGrandStrategyAI::GetActiveGrandStrategy
EXTRN	?GetGrandStrategyAI@CvPlayer@@QBEPAVCvGrandStrategyAI@@XZ:PROC ; CvPlayer::GetGrandStrategyAI
EXTRN	?getGameTurn@CvGame@@QAEHXZ:PROC		; CvGame::getGameTurn
EXTRN	?getEstimateEndTurn@CvGame@@QBEHXZ:PROC		; CvGame::getEstimateEndTurn
EXTRN	?GetWonderCompetitiveness@CvDiplomacyAI@@QBEHXZ:PROC ; CvDiplomacyAI::GetWonderCompetitiveness
EXTRN	?GetNumFreeGreatPeople@CvPlayer@@QBEHXZ:PROC	; CvPlayer::GetNumFreeGreatPeople
; Function compile flags: /Ogtpy
;	COMDAT ?AI_chooseFreeGreatPerson@CvPlayerAI@@UAEXXZ
_TEXT	SEGMENT
?AI_chooseFreeGreatPerson@CvPlayerAI@@UAEXXZ PROC	; CvPlayerAI::AI_chooseFreeGreatPerson, COMDAT
; _this$ = ecx

; 420  : {

	push	ebx
	mov	ebx, ecx

; 421  : 	while(GetNumFreeGreatPeople() > 0)

	call	?GetNumFreeGreatPeople@CvPlayer@@QBEHXZ	; CvPlayer::GetNumFreeGreatPeople
	test	eax, eax
	jle	$LN3@AI_chooseF
	push	esi
	push	edi
$LL14@AI_chooseF:

; 422  : 	{
; 423  : 		UnitTypes eDesiredGreatPerson = NO_UNIT;
; 424  : 
; 425  : 		// Highly wonder competitive and still early in game?
; 426  : 		if(GetDiplomacyAI()->GetWonderCompetitiveness() >= 8 && GC.getGame().getGameTurn() <= (GC.getGame().getEstimateEndTurn() / 2))

	mov	ecx, ebx
	call	?GetDiplomacyAI@CvPlayer@@QBEPAVCvDiplomacyAI@@XZ ; CvPlayer::GetDiplomacyAI
	mov	ecx, eax
	call	?GetWonderCompetitiveness@CvDiplomacyAI@@QBEHXZ ; CvDiplomacyAI::GetWonderCompetitiveness
	cmp	eax, 8
	jl	SHORT $LN12@AI_chooseF
	mov	ecx, DWORD PTR ?gGlobals@@3VCvGlobals@@A+48
	mov	edi, ecx
	call	?getEstimateEndTurn@CvGame@@QBEHXZ	; CvGame::getEstimateEndTurn
	cdq
	sub	eax, edx
	mov	esi, eax
	mov	ecx, edi
	sar	esi, 1
	call	?getGameTurn@CvGame@@QAEHXZ		; CvGame::getGameTurn
	cmp	eax, esi
	jg	SHORT $LN12@AI_chooseF

; 427  : 		{
; 428  : 			eDesiredGreatPerson = (UnitTypes)GC.getInfoTypeForString("UNIT_ENGINEER");

	push	0
	push	OFFSET $SG226304

; 429  : 		}
; 430  : 		else

	jmp	$LN24@AI_chooseF
$LN12@AI_chooseF:

; 431  : 		{
; 432  : 			// Pick the person based on our victory method
; 433  : 			AIGrandStrategyTypes eVictoryStrategy = GetGrandStrategyAI()->GetActiveGrandStrategy();

	mov	ecx, ebx
	call	?GetGrandStrategyAI@CvPlayer@@QBEPAVCvGrandStrategyAI@@XZ ; CvPlayer::GetGrandStrategyAI
	mov	ecx, eax
	call	?GetActiveGrandStrategy@CvGrandStrategyAI@@QBE?AW4AIGrandStrategyTypes@@XZ ; CvGrandStrategyAI::GetActiveGrandStrategy

; 434  : 			if(eVictoryStrategy == (AIGrandStrategyTypes) GC.getInfoTypeForString("AIGRANDSTRATEGY_CONQUEST"))

	push	0
	push	OFFSET $SG226309
	mov	ecx, OFFSET ?gGlobals@@3VCvGlobals@@A	; gGlobals
	mov	esi, eax
	call	?getInfoTypeForString@CvGlobals@@QBEHPBD_N@Z ; CvGlobals::getInfoTypeForString

; 435  : 			{
; 436  : 				eDesiredGreatPerson = (UnitTypes)GC.getInfoTypeForString("UNIT_GREAT_GENERAL");

	push	0
	mov	ecx, OFFSET ?gGlobals@@3VCvGlobals@@A	; gGlobals
	cmp	esi, eax
	jne	SHORT $LN10@AI_chooseF
	push	OFFSET $SG226311
	jmp	SHORT $LN25@AI_chooseF
$LN10@AI_chooseF:

; 437  : 			}
; 438  : 			else if(eVictoryStrategy == (AIGrandStrategyTypes) GC.getInfoTypeForString("AIGRANDSTRATEGY_CULTURE"))

	push	OFFSET $SG226315
	call	?getInfoTypeForString@CvGlobals@@QBEHPBD_N@Z ; CvGlobals::getInfoTypeForString

; 439  : 			{
; 440  : 				eDesiredGreatPerson = (UnitTypes)GC.getInfoTypeForString("UNIT_ARTIST");

	push	0
	mov	ecx, OFFSET ?gGlobals@@3VCvGlobals@@A	; gGlobals
	cmp	esi, eax
	jne	SHORT $LN8@AI_chooseF
	push	OFFSET $SG226317
	jmp	SHORT $LN25@AI_chooseF
$LN8@AI_chooseF:

; 441  : 			}
; 442  : 			else if(eVictoryStrategy == (AIGrandStrategyTypes) GC.getInfoTypeForString("AIGRANDSTRATEGY_UNITED_NATIONS"))

	push	OFFSET $SG226321
	call	?getInfoTypeForString@CvGlobals@@QBEHPBD_N@Z ; CvGlobals::getInfoTypeForString

; 443  : 			{
; 444  : 				eDesiredGreatPerson = (UnitTypes)GC.getInfoTypeForString("UNIT_MERCHANT");

	push	0
	mov	ecx, OFFSET ?gGlobals@@3VCvGlobals@@A	; gGlobals
	cmp	esi, eax
	jne	SHORT $LN6@AI_chooseF
	push	OFFSET $SG226323
	jmp	SHORT $LN25@AI_chooseF
$LN6@AI_chooseF:

; 445  : 			}
; 446  : 			else if(eVictoryStrategy == (AIGrandStrategyTypes) GC.getInfoTypeForString("AIGRANDSTRATEGY_SPACESHIP"))

	push	OFFSET $SG226327
	call	?getInfoTypeForString@CvGlobals@@QBEHPBD_N@Z ; CvGlobals::getInfoTypeForString
	cmp	esi, eax
	jne	SHORT $LN22@AI_chooseF

; 447  : 			{
; 448  : 				eDesiredGreatPerson = (UnitTypes)GC.getInfoTypeForString("UNIT_SCIENTIST");

	push	0
	push	OFFSET $SG226329
$LN24@AI_chooseF:
	mov	ecx, OFFSET ?gGlobals@@3VCvGlobals@@A	; gGlobals
$LN25@AI_chooseF:
	call	?getInfoTypeForString@CvGlobals@@QBEHPBD_N@Z ; CvGlobals::getInfoTypeForString
	mov	esi, eax

; 449  : 			}
; 450  : 		}
; 451  : 
; 452  : 		if(eDesiredGreatPerson != NO_UNIT)

	cmp	esi, -1
	je	SHORT $LN22@AI_chooseF

; 453  : 		{
; 454  : 			CvCity* pCapital = getCapitalCity();

	mov	ecx, ebx
	call	?getCapitalCity@CvPlayer@@QAEPAVCvCity@@XZ ; CvPlayer::getCapitalCity

; 455  : 			if(pCapital)

	test	eax, eax
	je	SHORT $LN2@AI_chooseF

; 456  : 			{
; 457  : 				// NQMP GJS: AI should also get truly "free" Great People when the player would as well. Changed 2nd parameter below from true to false.
; 458  : 				pCapital->GetCityCitizens()->DoSpawnGreatPerson(eDesiredGreatPerson, false, false);

	push	0
	push	0
	push	esi
	mov	ecx, eax
	call	?GetCityCitizens@CvCity@@QBEPAVCvCityCitizens@@XZ ; CvCity::GetCityCitizens
	mov	ecx, eax
	call	?DoSpawnGreatPerson@CvCityCitizens@@QAEXW4UnitTypes@@_N1@Z ; CvCityCitizens::DoSpawnGreatPerson
$LN2@AI_chooseF:

; 459  : 			}
; 460  : 			ChangeNumFreeGreatPeople(-1);

	push	-1
	mov	ecx, ebx
	call	?ChangeNumFreeGreatPeople@CvPlayer@@QAEXH@Z ; CvPlayer::ChangeNumFreeGreatPeople
	mov	ecx, ebx
	call	?GetNumFreeGreatPeople@CvPlayer@@QBEHXZ	; CvPlayer::GetNumFreeGreatPeople
	test	eax, eax
	jg	$LL14@AI_chooseF
$LN22@AI_chooseF:
	pop	edi
	pop	esi
$LN3@AI_chooseF:
	pop	ebx

; 461  : 		}
; 462  : 		else
; 463  : 		{
; 464  : 			break;
; 465  : 		}
; 466  : 	}
; 467  : }

	ret	0
?AI_chooseFreeGreatPerson@CvPlayerAI@@UAEXXZ ENDP	; CvPlayerAI::AI_chooseFreeGreatPerson
_TEXT	ENDS
EXTRN	?GetMissionAIType@CvUnit@@QAE?AW4MissionAITypes@@XZ:PROC ; CvUnit::GetMissionAIType
EXTRN	?GetMissionAIPlot@CvUnit@@QAEPAVCvPlot@@XZ:PROC	; CvUnit::GetMissionAIPlot
; Function compile flags: /Ogtpy
;	COMDAT ?AI_plotTargetMissionAIs@CvPlayerAI@@UAEHPAVCvPlot@@W4MissionAITypes@@H@Z
_TEXT	SEGMENT
_iCount$ = -8						; size = 4
_iLoop$ = -4						; size = 4
_pPlot$ = 8						; size = 4
_eMissionAI$ = 12					; size = 4
_iRange$ = 16						; size = 4
?AI_plotTargetMissionAIs@CvPlayerAI@@UAEHPAVCvPlot@@W4MissionAITypes@@H@Z PROC ; CvPlayerAI::AI_plotTargetMissionAIs, COMDAT
; _this$ = ecx

; 660  : {

	sub	esp, 8
	push	ebp
	push	esi
	push	edi

; 661  : 	int iCount = 0;

	xor	edi, edi

; 662  : 
; 663  : 	int iLoop;
; 664  : 	for(CvUnit* pLoopUnit = firstUnit(&iLoop); pLoopUnit; pLoopUnit = nextUnit(&iLoop))

	push	edi
	lea	eax, DWORD PTR _iLoop$[esp+24]
	push	eax
	mov	ebp, ecx
	mov	DWORD PTR _iCount$[esp+28], edi
	call	?firstUnit@CvPlayer@@QAEPAVCvUnit@@PAH_N@Z ; CvPlayer::firstUnit
	mov	esi, eax
	test	esi, esi
	je	SHORT $LN19@AI_plotTar
	push	ebx
	mov	ebx, DWORD PTR _pPlot$[esp+20]
$LL6@AI_plotTar:

; 665  : 	{
; 666  : 		CvPlot* pMissionPlot = pLoopUnit->GetMissionAIPlot();

	mov	ecx, esi
	call	?GetMissionAIPlot@CvUnit@@QAEPAVCvPlot@@XZ ; CvUnit::GetMissionAIPlot
	mov	edi, eax

; 667  : 		if(!pMissionPlot)

	test	edi, edi
	je	SHORT $LN5@AI_plotTar

; 668  : 		{
; 669  : 			continue;
; 670  : 		}
; 671  : 
; 672  : 		MissionAITypes eGroupMissionAI = pLoopUnit->GetMissionAIType();

	mov	ecx, esi
	call	?GetMissionAIType@CvUnit@@QAE?AW4MissionAITypes@@XZ ; CvUnit::GetMissionAIType

; 673  : 		if(eGroupMissionAI != eMissionAI)

	cmp	eax, DWORD PTR _eMissionAI$[esp+20]
	jne	SHORT $LN5@AI_plotTar

; 674  : 		{
; 675  : 			continue;
; 676  : 		}
; 677  : 
; 678  : 		int iDistance = plotDistance(pPlot->getX(), pPlot->getY(), pMissionPlot->getX(), pMissionPlot->getY());
; 679  : 		if(iDistance == iRange)

	movsx	ecx, WORD PTR [edi+2]
	movsx	edx, WORD PTR [edi]
	movsx	eax, WORD PTR [ebx+2]
	push	ecx
	movsx	ecx, WORD PTR [ebx]
	push	edx
	push	eax
	push	ecx
	call	?plotDistance@@YAHHHHH@Z		; plotDistance
	add	esp, 16					; 00000010H
	cmp	eax, DWORD PTR _iRange$[esp+20]
	jne	SHORT $LN5@AI_plotTar

; 680  : 		{
; 681  : 			iCount++;

	inc	DWORD PTR _iCount$[esp+24]
$LN5@AI_plotTar:

; 662  : 
; 663  : 	int iLoop;
; 664  : 	for(CvUnit* pLoopUnit = firstUnit(&iLoop); pLoopUnit; pLoopUnit = nextUnit(&iLoop))

	push	0
	lea	edx, DWORD PTR _iLoop$[esp+28]
	push	edx
	mov	ecx, ebp
	call	?nextUnit@CvPlayer@@QAEPAVCvUnit@@PAH_N@Z ; CvPlayer::nextUnit
	mov	esi, eax
	test	esi, esi
	jne	SHORT $LL6@AI_plotTar

; 682  : 		}
; 683  : 	}
; 684  : 
; 685  : 	return iCount;

	mov	eax, DWORD PTR _iCount$[esp+24]
	pop	ebx
	pop	edi
	pop	esi
	pop	ebp

; 686  : }

	add	esp, 8
	ret	12					; 0000000cH
$LN19@AI_plotTar:

; 682  : 		}
; 683  : 	}
; 684  : 
; 685  : 	return iCount;

	mov	eax, edi
	pop	edi
	pop	esi
	pop	ebp

; 686  : }

	add	esp, 8
	ret	12					; 0000000cH
?AI_plotTargetMissionAIs@CvPlayerAI@@UAEHPAVCvPlot@@W4MissionAITypes@@H@Z ENDP ; CvPlayerAI::AI_plotTargetMissionAIs
_TEXT	ENDS
EXTRN	?Read@CvPlayer@@UAEXAAVFDataStream@@@Z:PROC	; CvPlayer::Read
; Function compile flags: /Ogtpy
;	COMDAT ?Read@CvPlayerAI@@UAEXAAVFDataStream@@@Z
_TEXT	SEGMENT
_uiVersion$ = 8						; size = 4
_kStream$ = 8						; size = 4
?Read@CvPlayerAI@@UAEXAAVFDataStream@@@Z PROC		; CvPlayerAI::Read, COMDAT
; _this$ = ecx

; 707  : {

	push	esi

; 708  : 	CvPlayer::Read(kStream);	// read base class data first

	mov	esi, DWORD PTR _kStream$[esp]
	push	esi
	call	?Read@CvPlayer@@UAEXAAVFDataStream@@@Z	; CvPlayer::Read

; 709  : 
; 710  : 	// Version number to maintain backwards compatibility
; 711  : 	uint uiVersion;
; 712  : 	kStream >> uiVersion;

	lea	eax, DWORD PTR _uiVersion$[esp]
	push	eax
	mov	ecx, esi
	call	?Read@FDataStream@@IAEXAAI@Z		; FDataStream::Read
	pop	esi

; 713  : }

	ret	4
?Read@CvPlayerAI@@UAEXAAVFDataStream@@@Z ENDP		; CvPlayerAI::Read
_TEXT	ENDS
EXTRN	?Write@CvPlayer@@UBEXAAVFDataStream@@@Z:PROC	; CvPlayer::Write
; Function compile flags: /Ogtpy
;	COMDAT ?Write@CvPlayerAI@@UBEXAAVFDataStream@@@Z
_TEXT	SEGMENT
_uiVersion$ = 8						; size = 4
_kStream$ = 8						; size = 4
?Write@CvPlayerAI@@UBEXAAVFDataStream@@@Z PROC		; CvPlayerAI::Write, COMDAT
; _this$ = ecx

; 721  : {

	push	esi

; 722  : 	CvPlayer::Write(kStream);	// write base class data first

	mov	esi, DWORD PTR _kStream$[esp]
	push	esi
	call	?Write@CvPlayer@@UBEXAAVFDataStream@@@Z	; CvPlayer::Write

; 723  : 
; 724  : 	// Current version number
; 725  : 	uint uiVersion = 1;
; 726  : 	kStream << uiVersion;

	lea	eax, DWORD PTR _uiVersion$[esp]
	push	eax
	mov	ecx, esi
	mov	DWORD PTR _uiVersion$[esp+4], 1
	call	?Write@FDataStream@@IAEXABI@Z		; FDataStream::Write
	pop	esi

; 727  : }

	ret	4
?Write@CvPlayerAI@@UBEXAAVFDataStream@@@Z ENDP		; CvPlayerAI::Write
_TEXT	ENDS
PUBLIC	?GetDirectiveArtist@CvPlayerAI@@QAE?AW4GreatPeopleDirectiveTypes@@PAVCvUnit@@@Z ; CvPlayerAI::GetDirectiveArtist
EXTRN	?GetNumCivsInfluentialOn@CvPlayerCulture@@QBEHXZ:PROC ; CvPlayerCulture::GetNumCivsInfluentialOn
EXTRN	?isGoldenAge@CvPlayer@@QBE_NXZ:PROC		; CvPlayer::isGoldenAge
EXTRN	?GetNumberCivsAtWarWith@CvMilitaryAI@@QBEHXZ:PROC ; CvMilitaryAI::GetNumberCivsAtWarWith
EXTRN	?GetPlayerTraits@CvPlayer@@QBEPAVCvPlayerTraits@@XZ:PROC ; CvPlayer::GetPlayerTraits
EXTRN	?IsTestStrategy_GS_SpaceshipHomestretch@EconomicAIHelpers@@YA_NPAVCvPlayer@@@Z:PROC ; EconomicAIHelpers::IsTestStrategy_GS_SpaceshipHomestretch
EXTRN	?IsGoingForSpaceshipVictory@CvDiplomacyAI@@QAE_NXZ:PROC ; CvDiplomacyAI::IsGoingForSpaceshipVictory
; Function compile flags: /Ogtpy
;	COMDAT ?GetDirectiveArtist@CvPlayerAI@@QAE?AW4GreatPeopleDirectiveTypes@@PAVCvUnit@@@Z
_TEXT	SEGMENT
_pGreatArtist$ = 8					; size = 4
?GetDirectiveArtist@CvPlayerAI@@QAE?AW4GreatPeopleDirectiveTypes@@PAVCvUnit@@@Z PROC ; CvPlayerAI::GetDirectiveArtist, COMDAT
; _this$ = ecx

; 978  : {

	push	ebx
	push	esi
	push	edi
	mov	esi, ecx

; 979  : 	GreatPeopleDirectiveTypes eDirective = NO_GREAT_PEOPLE_DIRECTIVE_TYPE;

	or	edi, -1

; 980  : 
; 981  : 	// Defend against ideology pressure if not going for culture win
; 982  : #ifdef AUI_WARNING_FIXES
; 983  : 	if (!GetDiplomacyAI()->IsGoingForCultureVictory() && GetCulture()->GetPublicOpinionUnhappiness() > 10)
; 984  : #else
; 985  : 	if (eDirective == NO_GREAT_PEOPLE_DIRECTIVE_TYPE && !GetDiplomacyAI()->IsGoingForCultureVictory() && GetCulture()->GetPublicOpinionUnhappiness() > 10)

	call	?GetDiplomacyAI@CvPlayer@@QBEPAVCvDiplomacyAI@@XZ ; CvPlayer::GetDiplomacyAI
	mov	ecx, eax
	call	?IsGoingForCultureVictory@CvDiplomacyAI@@QAE_NXZ ; CvDiplomacyAI::IsGoingForCultureVictory
	test	al, al
	jne	SHORT $LN14@GetDirecti@2
	mov	ecx, esi
	call	?GetCulture@CvPlayer@@QBEPAVCvPlayerCulture@@XZ ; CvPlayer::GetCulture
	mov	ecx, eax
	call	?GetPublicOpinionUnhappiness@CvPlayerCulture@@QBEHXZ ; CvPlayerCulture::GetPublicOpinionUnhappiness
	cmp	eax, 10					; 0000000aH

; 986  : #endif
; 987  : 	{
; 988  : 		eDirective = GREAT_PEOPLE_DIRECTIVE_GOLDEN_AGE;
; 989  : 	}
; 990  : 
; 991  : 	// If prepping for war, Golden Age will build units quickly
; 992  : 	if (eDirective == NO_GREAT_PEOPLE_DIRECTIVE_TYPE && !GetDiplomacyAI()->IsGoingForCultureVictory() && PreparingForWar(this))

	jg	$LN21@GetDirecti@2
$LN14@GetDirecti@2:
	mov	ecx, esi
	call	?GetDiplomacyAI@CvPlayer@@QBEPAVCvDiplomacyAI@@XZ ; CvPlayer::GetDiplomacyAI
	mov	ecx, eax
	call	?IsGoingForCultureVictory@CvDiplomacyAI@@QAE_NXZ ; CvDiplomacyAI::IsGoingForCultureVictory
	test	al, al
	jne	SHORT $LN15@GetDirecti@2
	push	esi
	call	?PreparingForWar@@YA_NPAVCvPlayerAI@@@Z	; PreparingForWar
	add	esp, 4
	test	al, al

; 993  : 	{
; 994  : 		eDirective = GREAT_PEOPLE_DIRECTIVE_GOLDEN_AGE;
; 995  : 	}
; 996  : 
; 997  : 	// If finishing up spaceship parts, Golden Age will help build those quickly
; 998  : 	if (eDirective == NO_GREAT_PEOPLE_DIRECTIVE_TYPE && GetDiplomacyAI()->IsGoingForSpaceshipVictory() && EconomicAIHelpers::IsTestStrategy_GS_SpaceshipHomestretch(this))

	jne	SHORT $LN21@GetDirecti@2
$LN15@GetDirecti@2:
	mov	ecx, esi
	call	?GetDiplomacyAI@CvPlayer@@QBEPAVCvDiplomacyAI@@XZ ; CvPlayer::GetDiplomacyAI
	mov	ecx, eax
	call	?IsGoingForSpaceshipVictory@CvDiplomacyAI@@QAE_NXZ ; CvDiplomacyAI::IsGoingForSpaceshipVictory
	test	al, al
	je	SHORT $LN16@GetDirecti@2
	push	esi
	call	?IsTestStrategy_GS_SpaceshipHomestretch@EconomicAIHelpers@@YA_NPAVCvPlayer@@@Z ; EconomicAIHelpers::IsTestStrategy_GS_SpaceshipHomestretch
	add	esp, 4
	test	al, al

; 999  : 	{
; 1000 : 		eDirective = GREAT_PEOPLE_DIRECTIVE_GOLDEN_AGE;
; 1001 : 	}
; 1002 : 
; 1003 : 	// If Persia and I'm at war, get a Golden Age going
; 1004 : 	if (eDirective == NO_GREAT_PEOPLE_DIRECTIVE_TYPE && GetPlayerTraits()->GetGoldenAgeMoveChange() > 0 && GetMilitaryAI()->GetNumberCivsAtWarWith() > 1 && !isGoldenAge())

	jne	SHORT $LN21@GetDirecti@2
$LN16@GetDirecti@2:
	mov	ecx, esi
	call	?GetPlayerTraits@CvPlayer@@QBEPAVCvPlayerTraits@@XZ ; CvPlayer::GetPlayerTraits
	cmp	DWORD PTR [eax+176], 0
	jle	SHORT $LN17@GetDirecti@2
	mov	ecx, esi
	call	?GetMilitaryAI@CvPlayer@@QBEPAVCvMilitaryAI@@XZ ; CvPlayer::GetMilitaryAI
	mov	ecx, eax
	call	?GetNumberCivsAtWarWith@CvMilitaryAI@@QBEHXZ ; CvMilitaryAI::GetNumberCivsAtWarWith
	cmp	eax, 1
	jle	SHORT $LN17@GetDirecti@2
	mov	ecx, esi
	call	?isGoldenAge@CvPlayer@@QBE_NXZ		; CvPlayer::isGoldenAge
	test	al, al

; 1005 : 	{
; 1006 : 		eDirective = GREAT_PEOPLE_DIRECTIVE_GOLDEN_AGE;
; 1007 : 	}
; 1008 : 
; 1009 : 	// If Brazil and we're closing in on Culture Victory
; 1010 : 	if (eDirective == NO_GREAT_PEOPLE_DIRECTIVE_TYPE && GetPlayerTraits()->GetGoldenAgeTourismModifier() > 0 && GetCulture()->GetNumCivsInfluentialOn() > 0)

	je	SHORT $LN21@GetDirecti@2
$LN17@GetDirecti@2:
	mov	ecx, esi
	call	?GetPlayerTraits@CvPlayer@@QBEPAVCvPlayerTraits@@XZ ; CvPlayer::GetPlayerTraits
	cmp	DWORD PTR [eax+184], 0
	jle	SHORT $LN3@GetDirecti@2
	mov	ecx, esi
	call	?GetCulture@CvPlayer@@QBEPAVCvPlayerCulture@@XZ ; CvPlayer::GetCulture
	mov	ecx, eax
	call	?GetNumCivsInfluentialOn@CvPlayerCulture@@QBEHXZ ; CvPlayerCulture::GetNumCivsInfluentialOn
	test	eax, eax
	jle	SHORT $LN3@GetDirecti@2
$LN21@GetDirecti@2:

; 1011 : 	{
; 1012 : 		eDirective = GREAT_PEOPLE_DIRECTIVE_GOLDEN_AGE;

	xor	edi, edi
$LN3@GetDirecti@2:

; 1013 : 	}
; 1014 : 
; 1015 : 	// Create Great Work if there is a slot
; 1016 : 	GreatWorkType eGreatWork = pGreatArtist->GetGreatWork();

	mov	ebx, DWORD PTR _pGreatArtist$[esp+8]
	mov	ecx, ebx
	call	?GetGreatWork@CvUnit@@QBE?AW4GreatWorkType@@XZ ; CvUnit::GetGreatWork

; 1017 : 	if (eDirective == NO_GREAT_PEOPLE_DIRECTIVE_TYPE && GetEconomicAI()->GetBestGreatWorkCity(pGreatArtist->plot(), eGreatWork))

	cmp	edi, -1
	jne	SHORT $LN20@GetDirecti@2
	push	eax
	mov	ecx, ebx
	call	?plot@CvUnit@@QBEPAVCvPlot@@XZ		; CvUnit::plot
	push	eax
	mov	ecx, esi
	call	?GetEconomicAI@CvPlayer@@QBEPAVCvEconomicAI@@XZ ; CvPlayer::GetEconomicAI
	mov	ecx, eax
	call	?GetBestGreatWorkCity@CvEconomicAI@@QBEPAVCvCity@@PAVCvPlot@@W4GreatWorkType@@@Z ; CvEconomicAI::GetBestGreatWorkCity
	test	eax, eax
	je	SHORT $LN18@GetDirecti@2

; 1018 : 	{
; 1019 : 		eDirective = GREAT_PEOPLE_DIRECTIVE_USE_POWER;

	lea	eax, DWORD PTR [edi+2]
	pop	edi
	pop	esi
	pop	ebx

; 1028 : }

	ret	4
$LN18@GetDirecti@2:

; 1020 : 	}
; 1021 : 
; 1022 : 	if (eDirective == NO_GREAT_PEOPLE_DIRECTIVE_TYPE && !isGoldenAge())

	mov	ecx, esi
	call	?isGoldenAge@CvPlayer@@QBE_NXZ		; CvPlayer::isGoldenAge
	test	al, al
	jne	SHORT $LN20@GetDirecti@2
	pop	edi
	pop	esi

; 1023 : 	{
; 1024 : 		eDirective = GREAT_PEOPLE_DIRECTIVE_GOLDEN_AGE;

	xor	eax, eax
	pop	ebx

; 1028 : }

	ret	4
$LN20@GetDirecti@2:

; 1025 : 	}
; 1026 : 
; 1027 : 	return eDirective;

	mov	eax, edi
	pop	edi
	pop	esi
	pop	ebx

; 1028 : }

	ret	4
?GetDirectiveArtist@CvPlayerAI@@QAE?AW4GreatPeopleDirectiveTypes@@PAVCvUnit@@@Z ENDP ; CvPlayerAI::GetDirectiveArtist
_TEXT	ENDS
PUBLIC	?GetDirectiveEngineer@CvPlayerAI@@QAE?AW4GreatPeopleDirectiveTypes@@PAVCvUnit@@@Z ; CvPlayerAI::GetDirectiveEngineer
EXTRN	?getGameTurnCreated@CvUnit@@QBEHXZ:PROC		; CvUnit::getGameTurnCreated
EXTRN	?IsGoingForWorldConquest@CvDiplomacyAI@@QAE_NXZ:PROC ; CvDiplomacyAI::IsGoingForWorldConquest
EXTRN	?ChooseWonder@CvWonderProductionAI@@QAE?AW4BuildingTypes@@_N0AAH@Z:PROC ; CvWonderProductionAI::ChooseWonder
EXTRN	?GetWonderProductionAI@CvPlayer@@QBEPAVCvWonderProductionAI@@XZ:PROC ; CvPlayer::GetWonderProductionAI
; Function compile flags: /Ogtpy
;	COMDAT ?GetDirectiveEngineer@CvPlayerAI@@QAE?AW4GreatPeopleDirectiveTypes@@PAVCvUnit@@@Z
_TEXT	SEGMENT
_iNextWonderWeight$227136 = -4				; size = 4
_pGreatEngineer$ = 8					; size = 4
?GetDirectiveEngineer@CvPlayerAI@@QAE?AW4GreatPeopleDirectiveTypes@@PAVCvUnit@@@Z PROC ; CvPlayerAI::GetDirectiveEngineer, COMDAT
; _this$ = ecx

; 1069 : {

	push	ecx
	push	ebx
	push	ebp

; 1070 : 	GreatPeopleDirectiveTypes eDirective = NO_GREAT_PEOPLE_DIRECTIVE_TYPE;
; 1071 : 
; 1072 : 	// look for a wonder to rush
; 1073 : 	if(eDirective == NO_GREAT_PEOPLE_DIRECTIVE_TYPE)
; 1074 : 	{
; 1075 : 		int iNextWonderWeight;
; 1076 : 		BuildingTypes eNextWonderDesired = GetWonderProductionAI()->ChooseWonder(false /*bUseAsyncRandom*/, false /*bAdjustForOtherPlayers*/, iNextWonderWeight);

	lea	eax, DWORD PTR _iNextWonderWeight$227136[esp+12]
	push	eax
	push	0
	push	0
	mov	ebx, ecx
	or	ebp, -1
	call	?GetWonderProductionAI@CvPlayer@@QBEPAVCvWonderProductionAI@@XZ ; CvPlayer::GetWonderProductionAI
	mov	ecx, eax
	call	?ChooseWonder@CvWonderProductionAI@@QAE?AW4BuildingTypes@@_N0AAH@Z ; CvWonderProductionAI::ChooseWonder

; 1077 : 		if(eNextWonderDesired != NO_BUILDING)

	cmp	eax, ebp
	je	SHORT $LN16@GetDirecti@3

; 1078 : 		{
; 1079 : 			eDirective = GREAT_PEOPLE_DIRECTIVE_USE_POWER;

	lea	eax, DWORD PTR [ebp+2]
	pop	ebp
	pop	ebx

; 1097 : }

	pop	ecx
	ret	4
$LN16@GetDirecti@3:

; 1080 : 		}
; 1081 : 	}
; 1082 : 
; 1083 : 	if (eDirective == NO_GREAT_PEOPLE_DIRECTIVE_TYPE && GC.getGame().getGameTurn() <= ((GC.getGame().getEstimateEndTurn() * 3) / 4))

	mov	ecx, DWORD PTR ?gGlobals@@3VCvGlobals@@A+48
	push	esi
	push	edi
	mov	edi, ecx
	call	?getEstimateEndTurn@CvGame@@QBEHXZ	; CvGame::getEstimateEndTurn
	lea	eax, DWORD PTR [eax+eax*2]
	cdq
	and	edx, 3
	add	eax, edx
	mov	esi, eax
	mov	ecx, edi
	sar	esi, 2
	call	?getGameTurn@CvGame@@QAEHXZ		; CvGame::getGameTurn
	cmp	eax, esi
	jg	SHORT $LN17@GetDirecti@3

; 1084 : 	{
; 1085 : 		if (GetDiplomacyAI()->IsGoingForWorldConquest())

	mov	ecx, ebx
	call	?GetDiplomacyAI@CvPlayer@@QBEPAVCvDiplomacyAI@@XZ ; CvPlayer::GetDiplomacyAI
	mov	ecx, eax
	call	?IsGoingForWorldConquest@CvDiplomacyAI@@QAE_NXZ ; CvDiplomacyAI::IsGoingForWorldConquest
	test	al, al
	je	SHORT $LN17@GetDirecti@3
	pop	edi
	pop	esi
	pop	ebp

; 1086 : 		{
; 1087 : 			eDirective = GREAT_PEOPLE_DIRECTIVE_CONSTRUCT_IMPROVEMENT;

	mov	eax, 2
	pop	ebx

; 1097 : }

	pop	ecx
	ret	4
$LN17@GetDirecti@3:

; 1088 : 		}
; 1089 : 	}
; 1090 : 
; 1091 : 	if(eDirective == NO_GREAT_PEOPLE_DIRECTIVE_TYPE && (GC.getGame().getGameTurn() - pGreatEngineer->getGameTurnCreated()) >= GC.getAI_HOMELAND_GREAT_PERSON_TURNS_TO_WAIT())

	mov	ecx, DWORD PTR ?gGlobals@@3VCvGlobals@@A+48
	mov	esi, DWORD PTR ?gGlobals@@3VCvGlobals@@A+2700
	call	?getGameTurn@CvGame@@QAEHXZ		; CvGame::getGameTurn
	mov	ecx, DWORD PTR _pGreatEngineer$[esp+16]
	mov	edi, eax
	call	?getGameTurnCreated@CvUnit@@QBEHXZ	; CvUnit::getGameTurnCreated
	sub	edi, eax
	cmp	edi, esi

; 1092 : 	{
; 1093 : 		eDirective = GREAT_PEOPLE_DIRECTIVE_CONSTRUCT_IMPROVEMENT;

	mov	eax, 2
	jge	SHORT $LN19@GetDirecti@3

; 1094 : 	}
; 1095 : 
; 1096 : 	return eDirective;

	mov	eax, ebp
$LN19@GetDirecti@3:
	pop	edi
	pop	esi
	pop	ebp
	pop	ebx

; 1097 : }

	pop	ecx
	ret	4
?GetDirectiveEngineer@CvPlayerAI@@QAE?AW4GreatPeopleDirectiveTypes@@PAVCvUnit@@@Z ENDP ; CvPlayerAI::GetDirectiveEngineer
_TEXT	ENDS
PUBLIC	?GetDirectiveScientist@CvPlayerAI@@QAE?AW4GreatPeopleDirectiveTypes@@PAVCvUnit@@@Z ; CvPlayerAI::GetDirectiveScientist
; Function compile flags: /Ogtpy
;	COMDAT ?GetDirectiveScientist@CvPlayerAI@@QAE?AW4GreatPeopleDirectiveTypes@@PAVCvUnit@@@Z
_TEXT	SEGMENT
___formal$ = 8						; size = 4
?GetDirectiveScientist@CvPlayerAI@@QAE?AW4GreatPeopleDirectiveTypes@@PAVCvUnit@@@Z PROC ; CvPlayerAI::GetDirectiveScientist, COMDAT
; _this$ = ecx

; 1146 : {

	push	ebx
	mov	ebx, ecx

; 1147 : 	GreatPeopleDirectiveTypes eDirective = NO_GREAT_PEOPLE_DIRECTIVE_TYPE;
; 1148 : 
; 1149 : 	// If I'm in danger, use great person to get a tech boost
; 1150 : #ifdef AUI_WARNING_FIXES
; 1151 : 	if (!IsSafe(this))
; 1152 : #else
; 1153 : 	if(eDirective == NO_GREAT_PEOPLE_DIRECTIVE_TYPE && !IsSafe(this))

	push	ebx
	call	?IsSafe@@YA_NPAVCvPlayerAI@@@Z		; IsSafe
	add	esp, 4
	test	al, al

; 1154 : #endif
; 1155 : 	{
; 1156 : 		eDirective = GREAT_PEOPLE_DIRECTIVE_USE_POWER;
; 1157 : 	}
; 1158 : 
; 1159 : 	if(eDirective == NO_GREAT_PEOPLE_DIRECTIVE_TYPE && GC.getGame().getGameTurn() <= ((GC.getGame().getEstimateEndTurn() * 1) / 4))

	je	SHORT $LN12@GetDirecti@4
	mov	ecx, DWORD PTR ?gGlobals@@3VCvGlobals@@A+48
	push	esi
	push	edi
	mov	edi, ecx
	call	?getEstimateEndTurn@CvGame@@QBEHXZ	; CvGame::getEstimateEndTurn
	cdq
	and	edx, 3
	add	eax, edx
	mov	esi, eax
	mov	ecx, edi
	sar	esi, 2
	call	?getGameTurn@CvGame@@QAEHXZ		; CvGame::getGameTurn
	pop	edi
	cmp	eax, esi
	pop	esi
	jg	SHORT $LN12@GetDirecti@4

; 1160 : 	{
; 1161 : 		if(GetDiplomacyAI()->IsGoingForSpaceshipVictory())

	mov	ecx, ebx
	call	?GetDiplomacyAI@CvPlayer@@QBEPAVCvDiplomacyAI@@XZ ; CvPlayer::GetDiplomacyAI
	mov	ecx, eax
	call	?IsGoingForSpaceshipVictory@CvDiplomacyAI@@QAE_NXZ ; CvDiplomacyAI::IsGoingForSpaceshipVictory
	test	al, al

; 1162 : 		{
; 1163 : 			eDirective = GREAT_PEOPLE_DIRECTIVE_CONSTRUCT_IMPROVEMENT;

	mov	eax, 2
	jne	SHORT $LN1@GetDirecti@4
$LN12@GetDirecti@4:

; 1164 : 		}
; 1165 : 	}
; 1166 : 
; 1167 : 	if (eDirective == NO_GREAT_PEOPLE_DIRECTIVE_TYPE)
; 1168 : 	{
; 1169 : 		// a tech boost is never bad
; 1170 : 		eDirective = GREAT_PEOPLE_DIRECTIVE_USE_POWER;

	mov	eax, 1
$LN1@GetDirecti@4:
	pop	ebx

; 1171 : 	}
; 1172 : 
; 1173 : 	return eDirective;
; 1174 : }

	ret	4
?GetDirectiveScientist@CvPlayerAI@@QAE?AW4GreatPeopleDirectiveTypes@@PAVCvUnit@@@Z ENDP ; CvPlayerAI::GetDirectiveScientist
_TEXT	ENDS
PUBLIC	?GreatMerchantWantsCash@CvPlayerAI@@QAE_NXZ	; CvPlayerAI::GreatMerchantWantsCash
EXTRN	?getNumCities@CvPlayer@@QBEHXZ:PROC		; CvPlayer::getNumCities
; Function compile flags: /Ogtpy
;	COMDAT ?GreatMerchantWantsCash@CvPlayerAI@@QAE_NXZ
_TEXT	SEGMENT
?GreatMerchantWantsCash@CvPlayerAI@@QAE_NXZ PROC	; CvPlayerAI::GreatMerchantWantsCash, COMDAT
; _this$ = ecx

; 1270 : {

	push	esi
	mov	esi, ecx

; 1271 : 	// slewis - everybody wants cash . . .
; 1272 : 	// slewis - . . . except Venice. Venice wants to buy city states, unless it already has enough cities, then it doesn't want city states.
; 1273 : 	bool bIsVenice = GetPlayerTraits()->IsNoAnnexing();

	call	?GetPlayerTraits@CvPlayer@@QBEPAVCvPlayerTraits@@XZ ; CvPlayer::GetPlayerTraits

; 1274 : 	if (bIsVenice)

	cmp	BYTE PTR [eax+351], 0
	je	SHORT $LN1@GreatMerch

; 1275 : 	{
; 1276 : 		if (getNumCities() >= 4)

	mov	ecx, esi
	call	?getNumCities@CvPlayer@@QBEHXZ		; CvPlayer::getNumCities
	cmp	eax, 4
	setge	al
	pop	esi

; 1287 : }

	ret	0
$LN1@GreatMerch:

; 1277 : 		{
; 1278 : 			return true;
; 1279 : 		}
; 1280 : 		else
; 1281 : 		{
; 1282 : 			return false;
; 1283 : 		}
; 1284 : 	}
; 1285 : 
; 1286 : 	return true;

	mov	al, 1
	pop	esi

; 1287 : }

	ret	0
?GreatMerchantWantsCash@CvPlayerAI@@QAE_NXZ ENDP	; CvPlayerAI::GreatMerchantWantsCash
_TEXT	ENDS
PUBLIC	??1?$FObjectHandle@VCvUnit@@@@QAE@XZ		; FObjectHandle<CvUnit>::~FObjectHandle<CvUnit>
EXTRN	?getDestructionNotification@CvUnit@@QAEAAU?$DestructionNotification@V?$FObjectHandle@VCvUnit@@@@@@XZ:PROC ; CvUnit::getDestructionNotification
; Function compile flags: /Ogtpy
; File c:\users\enormousapplepie\documents\github\lekmod\lekmod_dll\fireplace\include\fireworks\fobjecthandle.h
;	COMDAT ??1?$FObjectHandle@VCvUnit@@@@QAE@XZ
_TEXT	SEGMENT
??1?$FObjectHandle@VCvUnit@@@@QAE@XZ PROC		; FObjectHandle<CvUnit>::~FObjectHandle<CvUnit>, COMDAT
; _this$ = ecx

; 147  : 		if(m_target) 

	mov	ecx, DWORD PTR [ecx]
	test	ecx, ecx
	je	SHORT $LN4@FObjectHan

; 148  : 		{
; 149  : 			m_target->getDestructionNotification().removeTarget(*this);

	jmp	?getDestructionNotification@CvUnit@@QAEAAU?$DestructionNotification@V?$FObjectHandle@VCvUnit@@@@@@XZ ; CvUnit::getDestructionNotification
$LN4@FObjectHan:

; 150  : 		}
; 151  : 	}

	ret	0
??1?$FObjectHandle@VCvUnit@@@@QAE@XZ ENDP		; FObjectHandle<CvUnit>::~FObjectHandle<CvUnit>
_TEXT	ENDS
PUBLIC	??0?$FObjectHandle@VCvUnit@@@@QAE@PAVCvUnit@@@Z	; FObjectHandle<CvUnit>::FObjectHandle<CvUnit>
; Function compile flags: /Ogtpy
;	COMDAT ??0?$FObjectHandle@VCvUnit@@@@QAE@PAVCvUnit@@@Z
_TEXT	SEGMENT
_target$ = 8						; size = 4
??0?$FObjectHandle@VCvUnit@@@@QAE@PAVCvUnit@@@Z PROC	; FObjectHandle<CvUnit>::FObjectHandle<CvUnit>, COMDAT
; _this$ = ecx

; 156  : 	{

	push	esi
	mov	esi, ecx
	mov	ecx, DWORD PTR _target$[esp]
	mov	DWORD PTR [esi], ecx
	mov	BYTE PTR [esi+4], 0

; 157  : 		OBJECT_HANDLE_STACK;
; 158  : 		if(m_target)

	test	ecx, ecx
	je	SHORT $LN6@FObjectHan@2

; 159  : 		{
; 160  : 			m_target->getDestructionNotification().addTarget(*this);

	call	?getDestructionNotification@CvUnit@@QAEAAU?$DestructionNotification@V?$FObjectHandle@VCvUnit@@@@@@XZ ; CvUnit::getDestructionNotification
$LN6@FObjectHan@2:

; 161  : 		}
; 162  : 	}

	mov	eax, esi
	pop	esi
	ret	4
??0?$FObjectHandle@VCvUnit@@@@QAE@PAVCvUnit@@@Z ENDP	; FObjectHandle<CvUnit>::FObjectHandle<CvUnit>
_TEXT	ENDS
PUBLIC	??0?$FObjectHandle@VCvUnit@@@@QAE@ABV0@@Z	; FObjectHandle<CvUnit>::FObjectHandle<CvUnit>
; Function compile flags: /Ogtpy
;	COMDAT ??0?$FObjectHandle@VCvUnit@@@@QAE@ABV0@@Z
_TEXT	SEGMENT
_source$ = 8						; size = 4
??0?$FObjectHandle@VCvUnit@@@@QAE@ABV0@@Z PROC		; FObjectHandle<CvUnit>::FObjectHandle<CvUnit>, COMDAT
; _this$ = ecx

; 222  : 	{

	mov	eax, DWORD PTR _source$[esp-4]
	push	esi
	mov	esi, ecx
	mov	ecx, DWORD PTR [eax]
	mov	DWORD PTR [esi], ecx
	mov	dl, BYTE PTR [eax+4]
	mov	BYTE PTR [esi+4], dl

; 223  : 		OBJECT_HANDLE_STACK;
; 224  : 		if(m_target)

	test	ecx, ecx
	je	SHORT $LN6@FObjectHan@3

; 225  : 		{
; 226  : 			m_target->getDestructionNotification().addTarget(*this);

	call	?getDestructionNotification@CvUnit@@QAEAAU?$DestructionNotification@V?$FObjectHandle@VCvUnit@@@@@@XZ ; CvUnit::getDestructionNotification
$LN6@FObjectHan@3:

; 227  : 		}
; 228  : 	}

	mov	eax, esi
	pop	esi
	ret	4
??0?$FObjectHandle@VCvUnit@@@@QAE@ABV0@@Z ENDP		; FObjectHandle<CvUnit>::FObjectHandle<CvUnit>
_TEXT	ENDS
PUBLIC	??0iterator@?$_Tree@V?$_Tmap_traits@HPAVCvAIOperation@@U?$less@H@std@@V?$allocator@U?$pair@$$CBHPAVCvAIOperation@@@std@@@3@$0A@@std@@@std@@QAE@XZ ; std::_Tree<std::_Tmap_traits<int,CvAIOperation *,std::less<int>,std::allocator<std::pair<int const ,CvAIOperation *> >,0> >::iterator::iterator
; Function compile flags: /Ogtpy
; File c:\program files (x86)\microsoft visual studio 9.0\vc\include\xtree
;	COMDAT ??0iterator@?$_Tree@V?$_Tmap_traits@HPAVCvAIOperation@@U?$less@H@std@@V?$allocator@U?$pair@$$CBHPAVCvAIOperation@@@std@@@3@$0A@@std@@@std@@QAE@XZ
_TEXT	SEGMENT
??0iterator@?$_Tree@V?$_Tmap_traits@HPAVCvAIOperation@@U?$less@H@std@@V?$allocator@U?$pair@$$CBHPAVCvAIOperation@@@std@@@3@$0A@@std@@@std@@QAE@XZ PROC ; std::_Tree<std::_Tmap_traits<int,CvAIOperation *,std::less<int>,std::allocator<std::pair<int const ,CvAIOperation *> >,0> >::iterator::iterator, COMDAT
; _this$ = ecx

; 434  : 		iterator()

	mov	eax, ecx
	mov	DWORD PTR [eax], 0

; 435  : 			{	// construct with null node pointer
; 436  : 			}

	ret	0
??0iterator@?$_Tree@V?$_Tmap_traits@HPAVCvAIOperation@@U?$less@H@std@@V?$allocator@U?$pair@$$CBHPAVCvAIOperation@@@std@@@3@$0A@@std@@@std@@QAE@XZ ENDP ; std::_Tree<std::_Tmap_traits<int,CvAIOperation *,std::less<int>,std::allocator<std::pair<int const ,CvAIOperation *> >,0> >::iterator::iterator
_TEXT	ENDS
PUBLIC	??9const_iterator@?$_Tree@V?$_Tmap_traits@HPAVCvAIOperation@@U?$less@H@std@@V?$allocator@U?$pair@$$CBHPAVCvAIOperation@@@std@@@3@$0A@@std@@@std@@QBE_NABV012@@Z ; std::_Tree<std::_Tmap_traits<int,CvAIOperation *,std::less<int>,std::allocator<std::pair<int const ,CvAIOperation *> >,0> >::const_iterator::operator!=
; Function compile flags: /Ogtpy
;	COMDAT ??9const_iterator@?$_Tree@V?$_Tmap_traits@HPAVCvAIOperation@@U?$less@H@std@@V?$allocator@U?$pair@$$CBHPAVCvAIOperation@@@std@@@3@$0A@@std@@@std@@QBE_NABV012@@Z
_TEXT	SEGMENT
__Right$ = 8						; size = 4
??9const_iterator@?$_Tree@V?$_Tmap_traits@HPAVCvAIOperation@@U?$less@H@std@@V?$allocator@U?$pair@$$CBHPAVCvAIOperation@@@std@@@3@$0A@@std@@@std@@QBE_NABV012@@Z PROC ; std::_Tree<std::_Tmap_traits<int,CvAIOperation *,std::less<int>,std::allocator<std::pair<int const ,CvAIOperation *> >,0> >::const_iterator::operator!=, COMDAT
; _this$ = ecx

; 316  : 			return (!(*this == _Right));

	mov	eax, DWORD PTR [ecx]
	mov	edx, DWORD PTR __Right$[esp-4]
	xor	ecx, ecx
	cmp	eax, DWORD PTR [edx]
	setne	cl
	mov	al, cl

; 317  : 			}

	ret	4
??9const_iterator@?$_Tree@V?$_Tmap_traits@HPAVCvAIOperation@@U?$less@H@std@@V?$allocator@U?$pair@$$CBHPAVCvAIOperation@@@std@@@3@$0A@@std@@@std@@QBE_NABV012@@Z ENDP ; std::_Tree<std::_Tmap_traits<int,CvAIOperation *,std::less<int>,std::allocator<std::pair<int const ,CvAIOperation *> >,0> >::const_iterator::operator!=
_TEXT	ENDS
PUBLIC	??1?$_Vector_val@UCityAndProduction@@V?$allocator@UCityAndProduction@@@std@@@std@@QAE@XZ ; std::_Vector_val<CityAndProduction,std::allocator<CityAndProduction> >::~_Vector_val<CityAndProduction,std::allocator<CityAndProduction> >
; Function compile flags: /Ogtpy
;	COMDAT ??1?$_Vector_val@UCityAndProduction@@V?$allocator@UCityAndProduction@@@std@@@std@@QAE@XZ
_TEXT	SEGMENT
??1?$_Vector_val@UCityAndProduction@@V?$allocator@UCityAndProduction@@@std@@@std@@QAE@XZ PROC ; std::_Vector_val<CityAndProduction,std::allocator<CityAndProduction> >::~_Vector_val<CityAndProduction,std::allocator<CityAndProduction> >, COMDAT
; _this$ = ecx
	ret	0
??1?$_Vector_val@UCityAndProduction@@V?$allocator@UCityAndProduction@@@std@@@std@@QAE@XZ ENDP ; std::_Vector_val<CityAndProduction,std::allocator<CityAndProduction> >::~_Vector_val<CityAndProduction,std::allocator<CityAndProduction> >
_TEXT	ENDS
PUBLIC	?_Lmost@?$_Tree@V?$_Tmap_traits@HPAVCvAIOperation@@U?$less@H@std@@V?$allocator@U?$pair@$$CBHPAVCvAIOperation@@@std@@@3@$0A@@std@@@std@@IBEAAPAU_Node@?$_Tree_nod@V?$_Tmap_traits@HPAVCvAIOperation@@U?$less@H@std@@V?$allocator@U?$pair@$$CBHPAVCvAIOperation@@@std@@@3@$0A@@std@@@2@XZ ; std::_Tree<std::_Tmap_traits<int,CvAIOperation *,std::less<int>,std::allocator<std::pair<int const ,CvAIOperation *> >,0> >::_Lmost
; Function compile flags: /Ogtpy
;	COMDAT ?_Lmost@?$_Tree@V?$_Tmap_traits@HPAVCvAIOperation@@U?$less@H@std@@V?$allocator@U?$pair@$$CBHPAVCvAIOperation@@@std@@@3@$0A@@std@@@std@@IBEAAPAU_Node@?$_Tree_nod@V?$_Tmap_traits@HPAVCvAIOperation@@U?$less@H@std@@V?$allocator@U?$pair@$$CBHPAVCvAIOperation@@@std@@@3@$0A@@std@@@2@XZ
_TEXT	SEGMENT
?_Lmost@?$_Tree@V?$_Tmap_traits@HPAVCvAIOperation@@U?$less@H@std@@V?$allocator@U?$pair@$$CBHPAVCvAIOperation@@@std@@@3@$0A@@std@@@std@@IBEAAPAU_Node@?$_Tree_nod@V?$_Tmap_traits@HPAVCvAIOperation@@U?$less@H@std@@V?$allocator@U?$pair@$$CBHPAVCvAIOperation@@@std@@@3@$0A@@std@@@2@XZ PROC ; std::_Tree<std::_Tmap_traits<int,CvAIOperation *,std::less<int>,std::allocator<std::pair<int const ,CvAIOperation *> >,0> >::_Lmost, COMDAT
; _this$ = ecx

; 1281 : 		return (_Left(_Myhead));

	mov	eax, DWORD PTR [ecx+4]

; 1282 : 		}

	ret	0
?_Lmost@?$_Tree@V?$_Tmap_traits@HPAVCvAIOperation@@U?$less@H@std@@V?$allocator@U?$pair@$$CBHPAVCvAIOperation@@@std@@@3@$0A@@std@@@std@@IBEAAPAU_Node@?$_Tree_nod@V?$_Tmap_traits@HPAVCvAIOperation@@U?$less@H@std@@V?$allocator@U?$pair@$$CBHPAVCvAIOperation@@@std@@@3@$0A@@std@@@2@XZ ENDP ; std::_Tree<std::_Tmap_traits<int,CvAIOperation *,std::less<int>,std::allocator<std::pair<int const ,CvAIOperation *> >,0> >::_Lmost
_TEXT	ENDS
PUBLIC	??0iterator@?$_Tree@V?$_Tmap_traits@HPAVCvAIOperation@@U?$less@H@std@@V?$allocator@U?$pair@$$CBHPAVCvAIOperation@@@std@@@3@$0A@@std@@@std@@QAE@PAU_Node@?$_Tree_nod@V?$_Tmap_traits@HPAVCvAIOperation@@U?$less@H@std@@V?$allocator@U?$pair@$$CBHPAVCvAIOperation@@@std@@@3@$0A@@std@@@2@@Z ; std::_Tree<std::_Tmap_traits<int,CvAIOperation *,std::less<int>,std::allocator<std::pair<int const ,CvAIOperation *> >,0> >::iterator::iterator
; Function compile flags: /Ogtpy
;	COMDAT ??0iterator@?$_Tree@V?$_Tmap_traits@HPAVCvAIOperation@@U?$less@H@std@@V?$allocator@U?$pair@$$CBHPAVCvAIOperation@@@std@@@3@$0A@@std@@@std@@QAE@PAU_Node@?$_Tree_nod@V?$_Tmap_traits@HPAVCvAIOperation@@U?$less@H@std@@V?$allocator@U?$pair@$$CBHPAVCvAIOperation@@@std@@@3@$0A@@std@@@2@@Z
_TEXT	SEGMENT
__Pnode$ = 8						; size = 4
??0iterator@?$_Tree@V?$_Tmap_traits@HPAVCvAIOperation@@U?$less@H@std@@V?$allocator@U?$pair@$$CBHPAVCvAIOperation@@@std@@@3@$0A@@std@@@std@@QAE@PAU_Node@?$_Tree_nod@V?$_Tmap_traits@HPAVCvAIOperation@@U?$less@H@std@@V?$allocator@U?$pair@$$CBHPAVCvAIOperation@@@std@@@3@$0A@@std@@@2@@Z PROC ; std::_Tree<std::_Tmap_traits<int,CvAIOperation *,std::less<int>,std::allocator<std::pair<int const ,CvAIOperation *> >,0> >::iterator::iterator, COMDAT
; _this$ = ecx

; 459  : 			{	// construct with node pointer _Pnode

	mov	eax, ecx
	mov	ecx, DWORD PTR __Pnode$[esp-4]
	mov	DWORD PTR [eax], ecx

; 460  : 			}

	ret	4
??0iterator@?$_Tree@V?$_Tmap_traits@HPAVCvAIOperation@@U?$less@H@std@@V?$allocator@U?$pair@$$CBHPAVCvAIOperation@@@std@@@3@$0A@@std@@@std@@QAE@PAU_Node@?$_Tree_nod@V?$_Tmap_traits@HPAVCvAIOperation@@U?$less@H@std@@V?$allocator@U?$pair@$$CBHPAVCvAIOperation@@@std@@@3@$0A@@std@@@2@@Z ENDP ; std::_Tree<std::_Tmap_traits<int,CvAIOperation *,std::less<int>,std::allocator<std::pair<int const ,CvAIOperation *> >,0> >::iterator::iterator
_TEXT	ENDS
PUBLIC	??0?$_Vector_val@UCityAndProduction@@V?$allocator@UCityAndProduction@@@std@@@std@@IAE@V?$allocator@UCityAndProduction@@@1@@Z ; std::_Vector_val<CityAndProduction,std::allocator<CityAndProduction> >::_Vector_val<CityAndProduction,std::allocator<CityAndProduction> >
; Function compile flags: /Ogtpy
; File c:\program files (x86)\microsoft visual studio 9.0\vc\include\vector
;	COMDAT ??0?$_Vector_val@UCityAndProduction@@V?$allocator@UCityAndProduction@@@std@@@std@@IAE@V?$allocator@UCityAndProduction@@@1@@Z
_TEXT	SEGMENT
__Al$ = 8						; size = 1
??0?$_Vector_val@UCityAndProduction@@V?$allocator@UCityAndProduction@@@std@@@std@@IAE@V?$allocator@UCityAndProduction@@@1@@Z PROC ; std::_Vector_val<CityAndProduction,std::allocator<CityAndProduction> >::_Vector_val<CityAndProduction,std::allocator<CityAndProduction> >, COMDAT
; _this$ = ecx

; 425  : 		{	// construct allocator from _Al

	mov	eax, ecx

; 426  : 		}

	ret	4
??0?$_Vector_val@UCityAndProduction@@V?$allocator@UCityAndProduction@@@std@@@std@@IAE@V?$allocator@UCityAndProduction@@@1@@Z ENDP ; std::_Vector_val<CityAndProduction,std::allocator<CityAndProduction> >::_Vector_val<CityAndProduction,std::allocator<CityAndProduction> >
_TEXT	ENDS
PUBLIC	??0?$_Vector_iterator@UCityAndProduction@@V?$allocator@UCityAndProduction@@@std@@@std@@QAE@PAUCityAndProduction@@@Z ; std::_Vector_iterator<CityAndProduction,std::allocator<CityAndProduction> >::_Vector_iterator<CityAndProduction,std::allocator<CityAndProduction> >
; Function compile flags: /Ogtpy
;	COMDAT ??0?$_Vector_iterator@UCityAndProduction@@V?$allocator@UCityAndProduction@@@std@@@std@@QAE@PAUCityAndProduction@@@Z
_TEXT	SEGMENT
__Ptr$ = 8						; size = 4
??0?$_Vector_iterator@UCityAndProduction@@V?$allocator@UCityAndProduction@@@std@@@std@@QAE@PAUCityAndProduction@@@Z PROC ; std::_Vector_iterator<CityAndProduction,std::allocator<CityAndProduction> >::_Vector_iterator<CityAndProduction,std::allocator<CityAndProduction> >, COMDAT
; _this$ = ecx

; 333  : 		{	// construct with pointer _Ptr

	mov	eax, ecx
	mov	ecx, DWORD PTR __Ptr$[esp-4]
	mov	DWORD PTR [eax], ecx

; 334  : 		}

	ret	4
??0?$_Vector_iterator@UCityAndProduction@@V?$allocator@UCityAndProduction@@@std@@@std@@QAE@PAUCityAndProduction@@@Z ENDP ; std::_Vector_iterator<CityAndProduction,std::allocator<CityAndProduction> >::_Vector_iterator<CityAndProduction,std::allocator<CityAndProduction> >
_TEXT	ENDS
PUBLIC	??Dconst_iterator@?$_Tree@V?$_Tmap_traits@HPAVCvAIOperation@@U?$less@H@std@@V?$allocator@U?$pair@$$CBHPAVCvAIOperation@@@std@@@3@$0A@@std@@@std@@QBEABU?$pair@$$CBHPAVCvAIOperation@@@2@XZ ; std::_Tree<std::_Tmap_traits<int,CvAIOperation *,std::less<int>,std::allocator<std::pair<int const ,CvAIOperation *> >,0> >::const_iterator::operator*
; Function compile flags: /Ogtpy
; File c:\program files (x86)\microsoft visual studio 9.0\vc\include\xtree
;	COMDAT ??Dconst_iterator@?$_Tree@V?$_Tmap_traits@HPAVCvAIOperation@@U?$less@H@std@@V?$allocator@U?$pair@$$CBHPAVCvAIOperation@@@std@@@3@$0A@@std@@@std@@QBEABU?$pair@$$CBHPAVCvAIOperation@@@2@XZ
_TEXT	SEGMENT
