; Listing generated by Microsoft (R) Optimizing Compiler Version 15.00.30729.01 

	TITLE	c:\Users\EnormousApplePie\Documents\GitHub\Lekmod\LEKMOD_DLL\CvGameCoreDLL_Expansion2\CvProjectProductionAI.cpp
	.686P
	.XMM
	include listing.inc
	.model	flat

INCLUDELIB MSVCRT
INCLUDELIB OLDNAMES

CONST	SEGMENT
$SG217754 DB	'%03d, ', 00H
	ORG $+1
$SG217758 DB	', ', 00H
	ORG $+1
$SG217759 DB	', ', 00H
	ORG $+1
$SG217765 DB	'Unknown', 00H
$SG217766 DB	'Project, %s, %d', 00H
CONST	ENDS
PUBLIC	??A?$BaseVector@UWeightedElement@?$CvWeightedVector@H$0BC@$00@@$00@@QAEAAUWeightedElement@?$CvWeightedVector@H$0BC@$00@@I@Z ; BaseVector<CvWeightedVector<int,18,1>::WeightedElement,1>::operator[]
; Function compile flags: /Ogtpy
; File c:\users\enormousapplepie\documents\github\lekmod\lekmod_dll\fireplace\include\fireworks\ffastvector.h
;	COMDAT ??A?$BaseVector@UWeightedElement@?$CvWeightedVector@H$0BC@$00@@$00@@QAEAAUWeightedElement@?$CvWeightedVector@H$0BC@$00@@I@Z
_TEXT	SEGMENT
_ui$ = 8						; size = 4
??A?$BaseVector@UWeightedElement@?$CvWeightedVector@H$0BC@$00@@$00@@QAEAAUWeightedElement@?$CvWeightedVector@H$0BC@$00@@I@Z PROC ; BaseVector<CvWeightedVector<int,18,1>::WeightedElement,1>::operator[], COMDAT
; _this$ = ecx

; 129  : 		FAssert(ui < m_uiCurrSize);
; 130  : 		return m_pData[ui];

	mov	eax, DWORD PTR [ecx]
	mov	ecx, DWORD PTR _ui$[esp-4]
	lea	eax, DWORD PTR [eax+ecx*8]

; 131  : 	};

	ret	4
??A?$BaseVector@UWeightedElement@?$CvWeightedVector@H$0BC@$00@@$00@@QAEAAUWeightedElement@?$CvWeightedVector@H$0BC@$00@@I@Z ENDP ; BaseVector<CvWeightedVector<int,18,1>::WeightedElement,1>::operator[]
_TEXT	ENDS
PUBLIC	??A?$BaseVector@UWeightedElement@?$CvWeightedVector@H$0BC@$00@@$00@@QBEABUWeightedElement@?$CvWeightedVector@H$0BC@$00@@I@Z ; BaseVector<CvWeightedVector<int,18,1>::WeightedElement,1>::operator[]
; Function compile flags: /Ogtpy
;	COMDAT ??A?$BaseVector@UWeightedElement@?$CvWeightedVector@H$0BC@$00@@$00@@QBEABUWeightedElement@?$CvWeightedVector@H$0BC@$00@@I@Z
_TEXT	SEGMENT
_ui$ = 8						; size = 4
??A?$BaseVector@UWeightedElement@?$CvWeightedVector@H$0BC@$00@@$00@@QBEABUWeightedElement@?$CvWeightedVector@H$0BC@$00@@I@Z PROC ; BaseVector<CvWeightedVector<int,18,1>::WeightedElement,1>::operator[], COMDAT
; _this$ = ecx

; 135  : 		FAssert(ui < m_uiCurrSize);
; 136  : 		return m_pData[ui];

	mov	eax, DWORD PTR [ecx]
	mov	ecx, DWORD PTR _ui$[esp-4]
	lea	eax, DWORD PTR [eax+ecx*8]

; 137  : 	};

	ret	4
??A?$BaseVector@UWeightedElement@?$CvWeightedVector@H$0BC@$00@@$00@@QBEABUWeightedElement@?$CvWeightedVector@H$0BC@$00@@I@Z ENDP ; BaseVector<CvWeightedVector<int,18,1>::WeightedElement,1>::operator[]
_TEXT	ENDS
PUBLIC	?size@?$BaseVector@UWeightedElement@?$CvWeightedVector@H$0BC@$00@@$00@@QBEIXZ ; BaseVector<CvWeightedVector<int,18,1>::WeightedElement,1>::size
; Function compile flags: /Ogtpy
;	COMDAT ?size@?$BaseVector@UWeightedElement@?$CvWeightedVector@H$0BC@$00@@$00@@QBEIXZ
_TEXT	SEGMENT
?size@?$BaseVector@UWeightedElement@?$CvWeightedVector@H$0BC@$00@@$00@@QBEIXZ PROC ; BaseVector<CvWeightedVector<int,18,1>::WeightedElement,1>::size, COMDAT
; _this$ = ecx

; 169  : 		return m_uiCurrSize;

	mov	eax, DWORD PTR [ecx+4]

; 170  : 	};

	ret	0
?size@?$BaseVector@UWeightedElement@?$CvWeightedVector@H$0BC@$00@@$00@@QBEIXZ ENDP ; BaseVector<CvWeightedVector<int,18,1>::WeightedElement,1>::size
_TEXT	ENDS
PUBLIC	?begin@?$BaseVector@UWeightedElement@?$CvWeightedVector@H$0BC@$00@@$00@@QAEPAUWeightedElement@?$CvWeightedVector@H$0BC@$00@@XZ ; BaseVector<CvWeightedVector<int,18,1>::WeightedElement,1>::begin
; Function compile flags: /Ogtpy
;	COMDAT ?begin@?$BaseVector@UWeightedElement@?$CvWeightedVector@H$0BC@$00@@$00@@QAEPAUWeightedElement@?$CvWeightedVector@H$0BC@$00@@XZ
_TEXT	SEGMENT
?begin@?$BaseVector@UWeightedElement@?$CvWeightedVector@H$0BC@$00@@$00@@QAEPAUWeightedElement@?$CvWeightedVector@H$0BC@$00@@XZ PROC ; BaseVector<CvWeightedVector<int,18,1>::WeightedElement,1>::begin, COMDAT
; _this$ = ecx

; 194  :         return m_pData; 

	mov	eax, DWORD PTR [ecx]

; 195  :     };

	ret	0
?begin@?$BaseVector@UWeightedElement@?$CvWeightedVector@H$0BC@$00@@$00@@QAEPAUWeightedElement@?$CvWeightedVector@H$0BC@$00@@XZ ENDP ; BaseVector<CvWeightedVector<int,18,1>::WeightedElement,1>::begin
_TEXT	ENDS
PUBLIC	?end@?$BaseVector@UWeightedElement@?$CvWeightedVector@H$0BC@$00@@$00@@QAEPAUWeightedElement@?$CvWeightedVector@H$0BC@$00@@XZ ; BaseVector<CvWeightedVector<int,18,1>::WeightedElement,1>::end
; Function compile flags: /Ogtpy
;	COMDAT ?end@?$BaseVector@UWeightedElement@?$CvWeightedVector@H$0BC@$00@@$00@@QAEPAUWeightedElement@?$CvWeightedVector@H$0BC@$00@@XZ
_TEXT	SEGMENT
?end@?$BaseVector@UWeightedElement@?$CvWeightedVector@H$0BC@$00@@$00@@QAEPAUWeightedElement@?$CvWeightedVector@H$0BC@$00@@XZ PROC ; BaseVector<CvWeightedVector<int,18,1>::WeightedElement,1>::end, COMDAT
; _this$ = ecx

; 197  :         return m_pData+m_uiCurrSize; 

	mov	eax, DWORD PTR [ecx+4]
	mov	ecx, DWORD PTR [ecx]
	lea	eax, DWORD PTR [ecx+eax*8]

; 198  :     };

	ret	0
?end@?$BaseVector@UWeightedElement@?$CvWeightedVector@H$0BC@$00@@$00@@QAEPAUWeightedElement@?$CvWeightedVector@H$0BC@$00@@XZ ENDP ; BaseVector<CvWeightedVector<int,18,1>::WeightedElement,1>::end
_TEXT	ENDS
PUBLIC	??0WeightedElement@?$CvWeightedVector@H$0BC@$00@@QAE@XZ ; CvWeightedVector<int,18,1>::WeightedElement::WeightedElement
; Function compile flags: /Ogtpy
; File c:\users\enormousapplepie\documents\github\lekmod\lekmod_dll\cvgamecoredllutil\include\cvweightedvector.h
;	COMDAT ??0WeightedElement@?$CvWeightedVector@H$0BC@$00@@QAE@XZ
_TEXT	SEGMENT
??0WeightedElement@?$CvWeightedVector@H$0BC@$00@@QAE@XZ PROC ; CvWeightedVector<int,18,1>::WeightedElement::WeightedElement, COMDAT
; _this$ = ecx

; 31   : 		{

	mov	eax, ecx
	mov	DWORD PTR [eax], 0
	mov	DWORD PTR [eax+4], 0

; 32   : 		}

	ret	0
??0WeightedElement@?$CvWeightedVector@H$0BC@$00@@QAE@XZ ENDP ; CvWeightedVector<int,18,1>::WeightedElement::WeightedElement
_TEXT	ENDS
PUBLIC	??_C@_0GH@ECFAPJEJ@c?3?2users?2enormousapplepie?2docume@ ; `string'
PUBLIC	?Alloc@?$FStaticVector@UWeightedElement@?$CvWeightedVector@H$0BC@$00@@$0BC@$00$0A@$0A@@@IAEPAUWeightedElement@?$CvWeightedVector@H$0BC@$00@@I@Z ; FStaticVector<CvWeightedVector<int,18,1>::WeightedElement,18,1,0,0>::Alloc
EXTRN	?FireMallocAlignedNoTracking@@YAPAXIIPBDH@Z:PROC ; FireMallocAlignedNoTracking
;	COMDAT ??_C@_0GH@ECFAPJEJ@c?3?2users?2enormousapplepie?2docume@
; File c:\users\enormousapplepie\documents\github\lekmod\lekmod_dll\fireplace\include\fireworks\ffastvector.h
CONST	SEGMENT
??_C@_0GH@ECFAPJEJ@c?3?2users?2enormousapplepie?2docume@ DB 'c:\users\eno'
	DB	'rmousapplepie\documents\github\lekmod\lekmod_dll\fireplace\in'
	DB	'clude\fireworks\FFastVector.h', 00H		; `string'
; Function compile flags: /Ogtpy
CONST	ENDS
;	COMDAT ?Alloc@?$FStaticVector@UWeightedElement@?$CvWeightedVector@H$0BC@$00@@$0BC@$00$0A@$0A@@@IAEPAUWeightedElement@?$CvWeightedVector@H$0BC@$00@@I@Z
_TEXT	SEGMENT
_uiSize$ = 8						; size = 4
?Alloc@?$FStaticVector@UWeightedElement@?$CvWeightedVector@H$0BC@$00@@$0BC@$00$0A@$0A@@@IAEPAUWeightedElement@?$CvWeightedVector@H$0BC@$00@@I@Z PROC ; FStaticVector<CvWeightedVector<int,18,1>::WeightedElement,18,1,0,0>::Alloc, COMDAT
; _this$ = ecx

; 795  : 	T* Alloc(unsigned int uiSize){

	push	esi
	push	edi

; 796  : 		T* pRet;
; 797  : 		if( uiSize > L ){

	mov	edi, DWORD PTR _uiSize$[esp+4]
	mov	esi, ecx
	cmp	edi, 18					; 00000012H
	jbe	SHORT $LN2@Alloc

; 798  : 			pRet = (T*)FMALLOCALIGNED( uiSize*sizeof(T), __alignof(T), AllocPool, nSubID );

	push	798					; 0000031eH
	push	OFFSET ??_C@_0GH@ECFAPJEJ@c?3?2users?2enormousapplepie?2docume@
	lea	eax, DWORD PTR [edi*8]
	push	4
	push	eax
	call	?FireMallocAlignedNoTracking@@YAPAXIIPBDH@Z ; FireMallocAlignedNoTracking
	add	esp, 16					; 00000010H

; 799  : 			m_uiCurrMaxSize = uiSize;

	mov	DWORD PTR [esi+8], edi
	pop	edi
	pop	esi

; 803  : 		}
; 804  : 		return pRet;
; 805  : 	};

	ret	4
$LN2@Alloc:
	pop	edi

; 800  : 		}else{
; 801  : 			pRet = (T*)m_aData;

	lea	eax, DWORD PTR [esi+12]

; 802  : 			m_uiCurrMaxSize = L;

	mov	DWORD PTR [esi+8], 18			; 00000012H
	pop	esi

; 803  : 		}
; 804  : 		return pRet;
; 805  : 	};

	ret	4
?Alloc@?$FStaticVector@UWeightedElement@?$CvWeightedVector@H$0BC@$00@@$0BC@$00$0A@$0A@@@IAEPAUWeightedElement@?$CvWeightedVector@H$0BC@$00@@I@Z ENDP ; FStaticVector<CvWeightedVector<int,18,1>::WeightedElement,18,1,0,0>::Alloc
_TEXT	ENDS
PUBLIC	??1?$BaseVector@UWeightedElement@?$CvWeightedVector@H$0BC@$00@@$00@@QAE@XZ ; BaseVector<CvWeightedVector<int,18,1>::WeightedElement,1>::~BaseVector<CvWeightedVector<int,18,1>::WeightedElement,1>
; Function compile flags: /Ogtpy
;	COMDAT ??1?$BaseVector@UWeightedElement@?$CvWeightedVector@H$0BC@$00@@$00@@QAE@XZ
_TEXT	SEGMENT
??1?$BaseVector@UWeightedElement@?$CvWeightedVector@H$0BC@$00@@$00@@QAE@XZ PROC ; BaseVector<CvWeightedVector<int,18,1>::WeightedElement,1>::~BaseVector<CvWeightedVector<int,18,1>::WeightedElement,1>, COMDAT
; _this$ = ecx

; 111  : 	~BaseVector(){};

	ret	0
??1?$BaseVector@UWeightedElement@?$CvWeightedVector@H$0BC@$00@@$00@@QAE@XZ ENDP ; BaseVector<CvWeightedVector<int,18,1>::WeightedElement,1>::~BaseVector<CvWeightedVector<int,18,1>::WeightedElement,1>
_TEXT	ENDS
PUBLIC	??0?$BaseVector@UWeightedElement@?$CvWeightedVector@H$0BC@$00@@$00@@IAE@XZ ; BaseVector<CvWeightedVector<int,18,1>::WeightedElement,1>::BaseVector<CvWeightedVector<int,18,1>::WeightedElement,1>
; Function compile flags: /Ogtpy
;	COMDAT ??0?$BaseVector@UWeightedElement@?$CvWeightedVector@H$0BC@$00@@$00@@IAE@XZ
_TEXT	SEGMENT
??0?$BaseVector@UWeightedElement@?$CvWeightedVector@H$0BC@$00@@$00@@IAE@XZ PROC ; BaseVector<CvWeightedVector<int,18,1>::WeightedElement,1>::BaseVector<CvWeightedVector<int,18,1>::WeightedElement,1>, COMDAT
; _this$ = ecx

; 216  : 	BaseVector() : m_uiCurrSize(0), m_uiCurrMaxSize(0), m_pData(NULL) {};

	mov	eax, ecx
	xor	ecx, ecx
	mov	DWORD PTR [eax], ecx
	mov	DWORD PTR [eax+4], ecx
	mov	DWORD PTR [eax+8], ecx
	ret	0
??0?$BaseVector@UWeightedElement@?$CvWeightedVector@H$0BC@$00@@$00@@IAE@XZ ENDP ; BaseVector<CvWeightedVector<int,18,1>::WeightedElement,1>::BaseVector<CvWeightedVector<int,18,1>::WeightedElement,1>
_TEXT	ENDS
PUBLIC	?Destroy@?$BaseVector@UWeightedElement@?$CvWeightedVector@H$0BC@$00@@$00@@IAEXPAUWeightedElement@?$CvWeightedVector@H$0BC@$00@@I@Z ; BaseVector<CvWeightedVector<int,18,1>::WeightedElement,1>::Destroy
; Function compile flags: /Ogtpy
;	COMDAT ?Destroy@?$BaseVector@UWeightedElement@?$CvWeightedVector@H$0BC@$00@@$00@@IAEXPAUWeightedElement@?$CvWeightedVector@H$0BC@$00@@I@Z
_TEXT	SEGMENT
_pVal$ = 8						; size = 4
_uiNumElements$ = 12					; size = 4
?Destroy@?$BaseVector@UWeightedElement@?$CvWeightedVector@H$0BC@$00@@$00@@IAEXPAUWeightedElement@?$CvWeightedVector@H$0BC@$00@@I@Z PROC ; BaseVector<CvWeightedVector<int,18,1>::WeightedElement,1>::Destroy, COMDAT
; _this$ = ecx

; 221  : 		if( !bPODType){
; 222  : 			for(unsigned int i = 0; i < uiNumElements; ++i){
; 223  : 				pVal[i].~T();
; 224  : 			}
; 225  : 		}
; 226  : 	};

	ret	8
?Destroy@?$BaseVector@UWeightedElement@?$CvWeightedVector@H$0BC@$00@@$00@@IAEXPAUWeightedElement@?$CvWeightedVector@H$0BC@$00@@I@Z ENDP ; BaseVector<CvWeightedVector<int,18,1>::WeightedElement,1>::Destroy
_TEXT	ENDS
PUBLIC	??0WeightedElement@?$CvWeightedVector@H$0BC@$00@@QAE@ABU01@@Z ; CvWeightedVector<int,18,1>::WeightedElement::WeightedElement
; Function compile flags: /Ogtpy
; File c:\users\enormousapplepie\documents\github\lekmod\lekmod_dll\cvgamecoredllutil\include\cvweightedvector.h
;	COMDAT ??0WeightedElement@?$CvWeightedVector@H$0BC@$00@@QAE@ABU01@@Z
_TEXT	SEGMENT
_source$ = 8						; size = 4
??0WeightedElement@?$CvWeightedVector@H$0BC@$00@@QAE@ABU01@@Z PROC ; CvWeightedVector<int,18,1>::WeightedElement::WeightedElement, COMDAT
; _this$ = ecx

; 37   : 		{

	mov	eax, ecx
	mov	ecx, DWORD PTR _source$[esp-4]
	mov	edx, DWORD PTR [ecx]
	mov	DWORD PTR [eax], edx
	mov	ecx, DWORD PTR [ecx+4]
	mov	DWORD PTR [eax+4], ecx

; 38   : 		}

	ret	4
??0WeightedElement@?$CvWeightedVector@H$0BC@$00@@QAE@ABU01@@Z ENDP ; CvWeightedVector<int,18,1>::WeightedElement::WeightedElement
_TEXT	ENDS
PUBLIC	??MWeightedElement@?$CvWeightedVector@H$0BC@$00@@QBE_NABU01@@Z ; CvWeightedVector<int,18,1>::WeightedElement::operator<
; Function compile flags: /Ogtpy
;	COMDAT ??MWeightedElement@?$CvWeightedVector@H$0BC@$00@@QBE_NABU01@@Z
_TEXT	SEGMENT
_b2$ = 8						; size = 4
??MWeightedElement@?$CvWeightedVector@H$0BC@$00@@QBE_NABU01@@Z PROC ; CvWeightedVector<int,18,1>::WeightedElement::operator<, COMDAT
; _this$ = ecx

; 45   : 			// Reverse of the normal direction because we want highest weight first in our list
; 46   : 			return m_iWeight > b2.m_iWeight;

	mov	eax, DWORD PTR [ecx+4]
	mov	edx, DWORD PTR _b2$[esp-4]
	xor	ecx, ecx
	cmp	eax, DWORD PTR [edx+4]
	setg	cl
	mov	al, cl

; 47   : 		};

	ret	4
??MWeightedElement@?$CvWeightedVector@H$0BC@$00@@QBE_NABU01@@Z ENDP ; CvWeightedVector<int,18,1>::WeightedElement::operator<
_TEXT	ENDS
PUBLIC	??0?$pair@PAUWeightedElement@?$CvWeightedVector@H$0BC@$00@@PAU12@@std@@QAE@ABQAUWeightedElement@?$CvWeightedVector@H$0BC@$00@@0@Z ; std::pair<CvWeightedVector<int,18,1>::WeightedElement *,CvWeightedVector<int,18,1>::WeightedElement *>::pair<CvWeightedVector<int,18,1>::WeightedElement *,CvWeightedVector<int,18,1>::WeightedElement *>
; Function compile flags: /Ogtpy
; File c:\program files (x86)\microsoft visual studio 9.0\vc\include\utility
;	COMDAT ??0?$pair@PAUWeightedElement@?$CvWeightedVector@H$0BC@$00@@PAU12@@std@@QAE@ABQAUWeightedElement@?$CvWeightedVector@H$0BC@$00@@0@Z
_TEXT	SEGMENT
__Val1$ = 8						; size = 4
__Val2$ = 12						; size = 4
??0?$pair@PAUWeightedElement@?$CvWeightedVector@H$0BC@$00@@PAU12@@std@@QAE@ABQAUWeightedElement@?$CvWeightedVector@H$0BC@$00@@0@Z PROC ; std::pair<CvWeightedVector<int,18,1>::WeightedElement *,CvWeightedVector<int,18,1>::WeightedElement *>::pair<CvWeightedVector<int,18,1>::WeightedElement *,CvWeightedVector<int,18,1>::WeightedElement *>, COMDAT
; _this$ = ecx

; 50   : 		{	// construct from specified values

	mov	eax, ecx
	mov	ecx, DWORD PTR __Val1$[esp-4]
	mov	edx, DWORD PTR [ecx]
	mov	ecx, DWORD PTR __Val2$[esp-4]
	mov	DWORD PTR [eax], edx
	mov	edx, DWORD PTR [ecx]
	mov	DWORD PTR [eax+4], edx

; 51   : 		}

	ret	8
??0?$pair@PAUWeightedElement@?$CvWeightedVector@H$0BC@$00@@PAU12@@std@@QAE@ABQAUWeightedElement@?$CvWeightedVector@H$0BC@$00@@0@Z ENDP ; std::pair<CvWeightedVector<int,18,1>::WeightedElement *,CvWeightedVector<int,18,1>::WeightedElement *>::pair<CvWeightedVector<int,18,1>::WeightedElement *,CvWeightedVector<int,18,1>::WeightedElement *>
_TEXT	ENDS
PUBLIC	??$_Dist_type@PAUWeightedElement@?$CvWeightedVector@H$0BC@$00@@@std@@YAPAHPAUWeightedElement@?$CvWeightedVector@H$0BC@$00@@@Z ; std::_Dist_type<CvWeightedVector<int,18,1>::WeightedElement *>
; Function compile flags: /Ogtpy
; File c:\program files (x86)\microsoft visual studio 9.0\vc\include\xutility
;	COMDAT ??$_Dist_type@PAUWeightedElement@?$CvWeightedVector@H$0BC@$00@@@std@@YAPAHPAUWeightedElement@?$CvWeightedVector@H$0BC@$00@@@Z
_TEXT	SEGMENT
___formal$ = 8						; size = 4
??$_Dist_type@PAUWeightedElement@?$CvWeightedVector@H$0BC@$00@@@std@@YAPAHPAUWeightedElement@?$CvWeightedVector@H$0BC@$00@@@Z PROC ; std::_Dist_type<CvWeightedVector<int,18,1>::WeightedElement *>, COMDAT

; 1831 : 	return (0);

	xor	eax, eax

; 1832 : 	}

	ret	0
??$_Dist_type@PAUWeightedElement@?$CvWeightedVector@H$0BC@$00@@@std@@YAPAHPAUWeightedElement@?$CvWeightedVector@H$0BC@$00@@@Z ENDP ; std::_Dist_type<CvWeightedVector<int,18,1>::WeightedElement *>
_TEXT	ENDS
PUBLIC	??$_Val_type@PAUWeightedElement@?$CvWeightedVector@H$0BC@$00@@@std@@YAPAUWeightedElement@?$CvWeightedVector@H$0BC@$00@@PAU12@@Z ; std::_Val_type<CvWeightedVector<int,18,1>::WeightedElement *>
; Function compile flags: /Ogtpy
;	COMDAT ??$_Val_type@PAUWeightedElement@?$CvWeightedVector@H$0BC@$00@@@std@@YAPAUWeightedElement@?$CvWeightedVector@H$0BC@$00@@PAU12@@Z
_TEXT	SEGMENT
___formal$ = 8						; size = 4
??$_Val_type@PAUWeightedElement@?$CvWeightedVector@H$0BC@$00@@@std@@YAPAUWeightedElement@?$CvWeightedVector@H$0BC@$00@@PAU12@@Z PROC ; std::_Val_type<CvWeightedVector<int,18,1>::WeightedElement *>, COMDAT

; 1766 : 	return (0);

	xor	eax, eax

; 1767 : 	}

	ret	0
??$_Val_type@PAUWeightedElement@?$CvWeightedVector@H$0BC@$00@@@std@@YAPAUWeightedElement@?$CvWeightedVector@H$0BC@$00@@PAU12@@Z ENDP ; std::_Val_type<CvWeightedVector<int,18,1>::WeightedElement *>
_TEXT	ENDS
PUBLIC	??$swap@UWeightedElement@?$CvWeightedVector@H$0BC@$00@@@std@@YAXAAUWeightedElement@?$CvWeightedVector@H$0BC@$00@@0@Z ; std::swap<CvWeightedVector<int,18,1>::WeightedElement>
; Function compile flags: /Ogtpy
; File c:\program files (x86)\microsoft visual studio 9.0\vc\include\utility
;	COMDAT ??$swap@UWeightedElement@?$CvWeightedVector@H$0BC@$00@@@std@@YAXAAUWeightedElement@?$CvWeightedVector@H$0BC@$00@@0@Z
_TEXT	SEGMENT
__Left$ = 8						; size = 4
__Right$ = 12						; size = 4
??$swap@UWeightedElement@?$CvWeightedVector@H$0BC@$00@@@std@@YAXAAUWeightedElement@?$CvWeightedVector@H$0BC@$00@@0@Z PROC ; std::swap<CvWeightedVector<int,18,1>::WeightedElement>, COMDAT

; 18   : 	if (&_Left != &_Right)

	mov	eax, DWORD PTR __Left$[esp-4]
	mov	ecx, DWORD PTR __Right$[esp-4]
	cmp	eax, ecx
	je	SHORT $LN1@swap

; 19   : 		{	// different, worth swapping
; 20   : 		_Ty _Tmp = _Left;

	mov	edx, DWORD PTR [eax]
	push	esi
	mov	esi, DWORD PTR [eax+4]
	push	edi

; 21   : 
; 22   : 		_Left = _Right;

	mov	edi, DWORD PTR [ecx]
	mov	DWORD PTR [eax], edi
	mov	edi, DWORD PTR [ecx+4]
	mov	DWORD PTR [eax+4], edi
	pop	edi

; 23   : 		_Right = _Tmp;

	mov	DWORD PTR [ecx+4], esi
	mov	DWORD PTR [ecx], edx
	pop	esi
$LN1@swap:

; 24   : 		}
; 25   : 	}

	ret	0
??$swap@UWeightedElement@?$CvWeightedVector@H$0BC@$00@@@std@@YAXAAUWeightedElement@?$CvWeightedVector@H$0BC@$00@@0@Z ENDP ; std::swap<CvWeightedVector<int,18,1>::WeightedElement>
_TEXT	ENDS
PUBLIC	??$_Push_heap@PAUWeightedElement@?$CvWeightedVector@H$0BC@$00@@HU12@@std@@YAXPAUWeightedElement@?$CvWeightedVector@H$0BC@$00@@HHU12@@Z ; std::_Push_heap<CvWeightedVector<int,18,1>::WeightedElement *,int,CvWeightedVector<int,18,1>::WeightedElement>
; Function compile flags: /Ogtpy
; File c:\program files (x86)\microsoft visual studio 9.0\vc\include\algorithm
;	COMDAT ??$_Push_heap@PAUWeightedElement@?$CvWeightedVector@H$0BC@$00@@HU12@@std@@YAXPAUWeightedElement@?$CvWeightedVector@H$0BC@$00@@HHU12@@Z
_TEXT	SEGMENT
__First$ = 8						; size = 4
__Hole$ = 12						; size = 4
__Top$ = 16						; size = 4
__Val$ = 20						; size = 8
??$_Push_heap@PAUWeightedElement@?$CvWeightedVector@H$0BC@$00@@HU12@@std@@YAXPAUWeightedElement@?$CvWeightedVector@H$0BC@$00@@HHU12@@Z PROC ; std::_Push_heap<CvWeightedVector<int,18,1>::WeightedElement *,int,CvWeightedVector<int,18,1>::WeightedElement>, COMDAT

; 1973 : 	for (_Diff _Idx = (_Hole - 1) / 2;

	mov	ecx, DWORD PTR __Hole$[esp-4]
	push	ebx

; 1974 : 		_Top < _Hole && _DEBUG_LT(*(_First + _Idx), _Val);
; 1975 : 		_Idx = (_Hole - 1) / 2)

	mov	ebx, DWORD PTR __Val$[esp+4]
	lea	eax, DWORD PTR [ecx-1]
	cdq
	push	esi
	mov	esi, DWORD PTR __First$[esp+4]
	sub	eax, edx
	push	edi
	mov	edi, DWORD PTR __Top$[esp+8]
	sar	eax, 1
	cmp	edi, ecx
	jge	SHORT $LN1@Push_heap
	npad	1
$LL3@Push_heap:
	cmp	DWORD PTR [esi+eax*8+4], ebx
	jle	SHORT $LN1@Push_heap

; 1976 : 		{	// move _Hole up to parent
; 1977 : 		*(_First + _Hole) = *(_First + _Idx);

	mov	edx, DWORD PTR [esi+eax*8]
	mov	DWORD PTR [esi+ecx*8], edx
	mov	edx, DWORD PTR [esi+eax*8+4]
	mov	DWORD PTR [esi+ecx*8+4], edx

; 1978 : 		_Hole = _Idx;

	mov	ecx, eax
	dec	eax
	cdq
	sub	eax, edx
	sar	eax, 1
	cmp	edi, ecx
	jl	SHORT $LL3@Push_heap
$LN1@Push_heap:

; 1979 : 		}
; 1980 : 
; 1981 : 	*(_First + _Hole) = _Val;	// drop _Val into final hole

	mov	eax, DWORD PTR __Val$[esp+8]
	pop	edi
	mov	DWORD PTR [esi+ecx*8+4], ebx
	mov	DWORD PTR [esi+ecx*8], eax
	pop	esi
	pop	ebx

; 1982 : 	}

	ret	0
??$_Push_heap@PAUWeightedElement@?$CvWeightedVector@H$0BC@$00@@HU12@@std@@YAXPAUWeightedElement@?$CvWeightedVector@H$0BC@$00@@HHU12@@Z ENDP ; std::_Push_heap<CvWeightedVector<int,18,1>::WeightedElement *,int,CvWeightedVector<int,18,1>::WeightedElement>
_TEXT	ENDS
PUBLIC	??$_Iter_random@PAUWeightedElement@?$CvWeightedVector@H$0BC@$00@@PAU12@@std@@YA?AUrandom_access_iterator_tag@0@ABQAUWeightedElement@?$CvWeightedVector@H$0BC@$00@@0@Z ; std::_Iter_random<CvWeightedVector<int,18,1>::WeightedElement *,CvWeightedVector<int,18,1>::WeightedElement *>
; Function compile flags: /Ogtpy
; File c:\program files (x86)\microsoft visual studio 9.0\vc\include\xutility
;	COMDAT ??$_Iter_random@PAUWeightedElement@?$CvWeightedVector@H$0BC@$00@@PAU12@@std@@YA?AUrandom_access_iterator_tag@0@ABQAUWeightedElement@?$CvWeightedVector@H$0BC@$00@@0@Z
_TEXT	SEGMENT
___$ReturnUdt$ = 8					; size = 4
___formal$ = 12						; size = 4
___formal$ = 16						; size = 4
??$_Iter_random@PAUWeightedElement@?$CvWeightedVector@H$0BC@$00@@PAU12@@std@@YA?AUrandom_access_iterator_tag@0@ABQAUWeightedElement@?$CvWeightedVector@H$0BC@$00@@0@Z PROC ; std::_Iter_random<CvWeightedVector<int,18,1>::WeightedElement *,CvWeightedVector<int,18,1>::WeightedElement *>, COMDAT

; 994  : 	typename _Iter_random_helper<
; 995  : 		iterator_traits<_Iter1>::iterator_category, 
; 996  : 		iterator_traits<_Iter2>::iterator_category>::_Iter_random_cat _Cat;
; 997  : 	return (_Cat);

	mov	eax, DWORD PTR ___$ReturnUdt$[esp-4]

; 998  : 	}

	ret	0
??$_Iter_random@PAUWeightedElement@?$CvWeightedVector@H$0BC@$00@@PAU12@@std@@YA?AUrandom_access_iterator_tag@0@ABQAUWeightedElement@?$CvWeightedVector@H$0BC@$00@@0@Z ENDP ; std::_Iter_random<CvWeightedVector<int,18,1>::WeightedElement *,CvWeightedVector<int,18,1>::WeightedElement *>
_TEXT	ENDS
PUBLIC	??$_Ptr_cat@PAUWeightedElement@?$CvWeightedVector@H$0BC@$00@@PAU12@@std@@YA?AU_Nonscalar_ptr_iterator_tag@0@AAPAUWeightedElement@?$CvWeightedVector@H$0BC@$00@@0@Z ; std::_Ptr_cat<CvWeightedVector<int,18,1>::WeightedElement *,CvWeightedVector<int,18,1>::WeightedElement *>
; Function compile flags: /Ogtpy
;	COMDAT ??$_Ptr_cat@PAUWeightedElement@?$CvWeightedVector@H$0BC@$00@@PAU12@@std@@YA?AU_Nonscalar_ptr_iterator_tag@0@AAPAUWeightedElement@?$CvWeightedVector@H$0BC@$00@@0@Z
_TEXT	SEGMENT
__Cat$ = -1						; size = 1
___formal$ = 8						; size = 4
___formal$ = 12						; size = 4
??$_Ptr_cat@PAUWeightedElement@?$CvWeightedVector@H$0BC@$00@@PAU12@@std@@YA?AU_Nonscalar_ptr_iterator_tag@0@AAPAUWeightedElement@?$CvWeightedVector@H$0BC@$00@@0@Z PROC ; std::_Ptr_cat<CvWeightedVector<int,18,1>::WeightedElement *,CvWeightedVector<int,18,1>::WeightedElement *>, COMDAT

; 1509 : 	{

	push	ecx

; 1510 : 	typename _Ptr_cat_helper<_T1, _T2>::_Ptr_cat _Cat;
; 1511 : 	return (_Cat);

	mov	al, BYTE PTR __Cat$[esp+4]

; 1512 : 	}

	pop	ecx
	ret	0
??$_Ptr_cat@PAUWeightedElement@?$CvWeightedVector@H$0BC@$00@@PAU12@@std@@YA?AU_Nonscalar_ptr_iterator_tag@0@AAPAUWeightedElement@?$CvWeightedVector@H$0BC@$00@@0@Z ENDP ; std::_Ptr_cat<CvWeightedVector<int,18,1>::WeightedElement *,CvWeightedVector<int,18,1>::WeightedElement *>
_TEXT	ENDS
PUBLIC	??$_Copy_backward_opt@PAUWeightedElement@?$CvWeightedVector@H$0BC@$00@@PAU12@Urandom_access_iterator_tag@std@@@std@@YAPAUWeightedElement@?$CvWeightedVector@H$0BC@$00@@PAU12@00Urandom_access_iterator_tag@0@U_Nonscalar_ptr_iterator_tag@0@U_Range_checked_iterator_tag@0@@Z ; std::_Copy_backward_opt<CvWeightedVector<int,18,1>::WeightedElement *,CvWeightedVector<int,18,1>::WeightedElement *,std::random_access_iterator_tag>
; Function compile flags: /Ogtpy
;	COMDAT ??$_Copy_backward_opt@PAUWeightedElement@?$CvWeightedVector@H$0BC@$00@@PAU12@Urandom_access_iterator_tag@std@@@std@@YAPAUWeightedElement@?$CvWeightedVector@H$0BC@$00@@PAU12@00Urandom_access_iterator_tag@0@U_Nonscalar_ptr_iterator_tag@0@U_Range_checked_iterator_tag@0@@Z
_TEXT	SEGMENT
__First$ = 8						; size = 4
__Last$ = 12						; size = 4
__Dest$ = 16						; size = 4
___formal$ = 20						; size = 1
___formal$ = 24						; size = 1
___formal$ = 28						; size = 1
??$_Copy_backward_opt@PAUWeightedElement@?$CvWeightedVector@H$0BC@$00@@PAU12@Urandom_access_iterator_tag@std@@@std@@YAPAUWeightedElement@?$CvWeightedVector@H$0BC@$00@@PAU12@00Urandom_access_iterator_tag@0@U_Nonscalar_ptr_iterator_tag@0@U_Range_checked_iterator_tag@0@@Z PROC ; std::_Copy_backward_opt<CvWeightedVector<int,18,1>::WeightedElement *,CvWeightedVector<int,18,1>::WeightedElement *,std::random_access_iterator_tag>, COMDAT

; 2674 : 	_DEBUG_RANGE(_First, _Last);
; 2675 : 	while (_First != _Last)

	mov	edx, DWORD PTR __First$[esp-4]
	mov	ecx, DWORD PTR __Last$[esp-4]
	mov	eax, DWORD PTR __Dest$[esp-4]
	cmp	edx, ecx
	je	SHORT $LN1@Copy_backw
	push	esi
$LL2@Copy_backw:

; 2676 : 		*--_Dest = *--_Last;

	mov	esi, DWORD PTR [ecx-8]
	sub	ecx, 8
	sub	eax, 8
	mov	DWORD PTR [eax], esi
	mov	esi, DWORD PTR [ecx+4]
	mov	DWORD PTR [eax+4], esi
	cmp	ecx, edx
	jne	SHORT $LL2@Copy_backw
	pop	esi
$LN1@Copy_backw:

; 2677 : 	return (_Dest);
; 2678 : 	}

	ret	0
??$_Copy_backward_opt@PAUWeightedElement@?$CvWeightedVector@H$0BC@$00@@PAU12@Urandom_access_iterator_tag@std@@@std@@YAPAUWeightedElement@?$CvWeightedVector@H$0BC@$00@@PAU12@00Urandom_access_iterator_tag@0@U_Nonscalar_ptr_iterator_tag@0@U_Range_checked_iterator_tag@0@@Z ENDP ; std::_Copy_backward_opt<CvWeightedVector<int,18,1>::WeightedElement *,CvWeightedVector<int,18,1>::WeightedElement *,std::random_access_iterator_tag>
_TEXT	ENDS
PUBLIC	??2@YAPAXIPAX@Z					; operator new
; Function compile flags: /Ogtpy
; File c:\program files (x86)\microsoft visual studio 9.0\vc\include\new
;	COMDAT ??2@YAPAXIPAX@Z
_TEXT	SEGMENT
___formal$ = 8						; size = 4
__Where$ = 12						; size = 4
??2@YAPAXIPAX@Z PROC					; operator new, COMDAT

; 59   : 	return (_Where);

	mov	eax, DWORD PTR __Where$[esp-4]

; 60   : 	}

	ret	0
??2@YAPAXIPAX@Z ENDP					; operator new
_TEXT	ENDS
PUBLIC	??3@YAXPAX0@Z					; operator delete
; Function compile flags: /Ogtpy
;	COMDAT ??3@YAXPAX0@Z
_TEXT	SEGMENT
___formal$ = 8						; size = 4
___formal$ = 12						; size = 4
??3@YAXPAX0@Z PROC					; operator delete, COMDAT

; 64   : 	}

	ret	0
??3@YAXPAX0@Z ENDP					; operator delete
_TEXT	ENDS
PUBLIC	??0CvString@@QAE@XZ				; CvString::CvString
EXTRN	__imp_??0?$basic_string@DU?$char_traits@D@std@@V?$allocator@D@2@@std@@QAE@XZ:PROC
; Function compile flags: /Ogtpy
; File c:\users\enormousapplepie\documents\github\lekmod\lekmod_dll\cvgamecoredllutil\include\cvstring.h
;	COMDAT ??0CvString@@QAE@XZ
_TEXT	SEGMENT
??0CvString@@QAE@XZ PROC				; CvString::CvString, COMDAT
; _this$ = ecx

; 23   : 	CvString() {}

	push	esi
	mov	esi, ecx
	call	DWORD PTR __imp_??0?$basic_string@DU?$char_traits@D@std@@V?$allocator@D@2@@std@@QAE@XZ
	mov	eax, esi
	pop	esi
	ret	0
??0CvString@@QAE@XZ ENDP				; CvString::CvString
_TEXT	ENDS
PUBLIC	??1CvString@@QAE@XZ				; CvString::~CvString
EXTRN	__imp_??1?$basic_string@DU?$char_traits@D@std@@V?$allocator@D@2@@std@@QAE@XZ:PROC
; Function compile flags: /Ogtpy
;	COMDAT ??1CvString@@QAE@XZ
_TEXT	SEGMENT
??1CvString@@QAE@XZ PROC				; CvString::~CvString, COMDAT
; _this$ = ecx

; 28   : 	~CvString() {}

	jmp	DWORD PTR __imp_??1?$basic_string@DU?$char_traits@D@std@@V?$allocator@D@2@@std@@QAE@XZ
??1CvString@@QAE@XZ ENDP				; CvString::~CvString
_TEXT	ENDS
PUBLIC	??BCvString@@QBEPBDXZ				; CvString::operator char const *
EXTRN	__imp_?c_str@?$basic_string@DU?$char_traits@D@std@@V?$allocator@D@2@@std@@QBEPBDXZ:PROC
; Function compile flags: /Ogtpy
;	COMDAT ??BCvString@@QBEPBDXZ
_TEXT	SEGMENT
??BCvString@@QBEPBDXZ PROC				; CvString::operator char const *, COMDAT
; _this$ = ecx

; 31   : 	operator const char*() const 	{ return c_str(); }												

	jmp	DWORD PTR __imp_?c_str@?$basic_string@DU?$char_traits@D@std@@V?$allocator@D@2@@std@@QBEPBDXZ
??BCvString@@QBEPBDXZ ENDP				; CvString::operator char const *
_TEXT	ENDS
PUBLIC	??4CvString@@QAEAAV0@PBD@Z			; CvString::operator=
EXTRN	__imp_?clear@?$basic_string@DU?$char_traits@D@std@@V?$allocator@D@2@@std@@QAEXXZ:PROC
EXTRN	__imp_?assign@?$basic_string@DU?$char_traits@D@std@@V?$allocator@D@2@@std@@QAEAAV12@PBD@Z:PROC
; Function compile flags: /Ogtpy
;	COMDAT ??4CvString@@QAEAAV0@PBD@Z
_TEXT	SEGMENT
_s$ = 8							; size = 4
??4CvString@@QAEAAV0@PBD@Z PROC				; CvString::operator=, COMDAT
; _this$ = ecx

; 37   : 	CvString& operator=( const char* s) { if (s) assign(s); else clear();	return *this; }	

	mov	eax, DWORD PTR _s$[esp-4]
	push	esi
	mov	esi, ecx
	test	eax, eax
	je	SHORT $LN2@operator
	push	eax
	call	DWORD PTR __imp_?assign@?$basic_string@DU?$char_traits@D@std@@V?$allocator@D@2@@std@@QAEAAV12@PBD@Z
	mov	eax, esi
	pop	esi
	ret	4
$LN2@operator:
	call	DWORD PTR __imp_?clear@?$basic_string@DU?$char_traits@D@std@@V?$allocator@D@2@@std@@QAEXXZ
	mov	eax, esi
	pop	esi
	ret	4
??4CvString@@QAEAAV0@PBD@Z ENDP				; CvString::operator=
_TEXT	ENDS
PUBLIC	??4CvString@@QAEAAV0@ABV?$basic_string@DU?$char_traits@D@std@@V?$allocator@D@2@@std@@@Z ; CvString::operator=
; Function compile flags: /Ogtpy
;	COMDAT ??4CvString@@QAEAAV0@ABV?$basic_string@DU?$char_traits@D@std@@V?$allocator@D@2@@std@@@Z
_TEXT	SEGMENT
_s$ = 8							; size = 4
??4CvString@@QAEAAV0@ABV?$basic_string@DU?$char_traits@D@std@@V?$allocator@D@2@@std@@@Z PROC ; CvString::operator=, COMDAT
; _this$ = ecx

; 38   : 	CvString& operator=( const std::string& s) { assign(s.c_str());	return *this; }	

	push	esi
	mov	esi, ecx
	mov	ecx, DWORD PTR _s$[esp]
	call	DWORD PTR __imp_?c_str@?$basic_string@DU?$char_traits@D@std@@V?$allocator@D@2@@std@@QBEPBDXZ
	push	eax
	mov	ecx, esi
	call	DWORD PTR __imp_?assign@?$basic_string@DU?$char_traits@D@std@@V?$allocator@D@2@@std@@QAEAAV12@PBD@Z
	mov	eax, esi
	pop	esi
	ret	4
??4CvString@@QAEAAV0@ABV?$basic_string@DU?$char_traits@D@std@@V?$allocator@D@2@@std@@@Z ENDP ; CvString::operator=
_TEXT	ENDS
PUBLIC	?GetCString@CvString@@QBEPBDXZ			; CvString::GetCString
; Function compile flags: /Ogtpy
;	COMDAT ?GetCString@CvString@@QBEPBDXZ
_TEXT	SEGMENT
?GetCString@CvString@@QBEPBDXZ PROC			; CvString::GetCString, COMDAT
; _this$ = ecx

; 42   : 	const char* GetCString() const 	{ return c_str(); }

	jmp	DWORD PTR __imp_?c_str@?$basic_string@DU?$char_traits@D@std@@V?$allocator@D@2@@std@@QBEPBDXZ
?GetCString@CvString@@QBEPBDXZ ENDP			; CvString::GetCString
_TEXT	ENDS
PUBLIC	??_C@_00CNPNBAHC@?$AA@				; `string'
PUBLIC	?formatv@CvString@@SA_NAAV?$basic_string@DU?$char_traits@D@std@@V?$allocator@D@2@@std@@PBDPAD@Z ; CvString::formatv
EXTRN	__imp_??4?$basic_string@DU?$char_traits@D@std@@V?$allocator@D@2@@std@@QAEAAV01@PBD@Z:PROC
EXTRN	??_U@YAPAXI@Z:PROC				; operator new[]
EXTRN	??_V@YAXPAX@Z:PROC				; operator delete[]
EXTRN	__imp___vsnprintf:PROC
;	COMDAT ??_C@_00CNPNBAHC@?$AA@
CONST	SEGMENT
??_C@_00CNPNBAHC@?$AA@ DB 00H				; `string'
; Function compile flags: /Ogtpy
CONST	ENDS
;	COMDAT ?formatv@CvString@@SA_NAAV?$basic_string@DU?$char_traits@D@std@@V?$allocator@D@2@@std@@PBDPAD@Z
_TEXT	SEGMENT
_buf$ = -2048						; size = 2048
_out$ = 8						; size = 4
_fmt$ = 12						; size = 4
_args$ = 16						; size = 4
?formatv@CvString@@SA_NAAV?$basic_string@DU?$char_traits@D@std@@V?$allocator@D@2@@std@@PBDPAD@Z PROC ; CvString::formatv, COMDAT

; 191  : {

	sub	esp, 2048				; 00000800H
	push	ebx
	push	ebp

; 192  : 	char buf[2048];
; 193  : 	char * pbuf = buf;

	mov	ebp, DWORD PTR _args$[esp+2052]
	push	esi
	push	edi
	lea	edi, DWORD PTR _buf$[esp+2064]
	mov	esi, 2047				; 000007ffH
	npad	6
$LL10@formatv:

; 194  : 	int len = 0;
; 195  : 	int attempts = 0;
; 196  : 	bool success = false;
; 197  : 	const int kMaxAttempts = 40;
; 198  : 
; 199  : 	do
; 200  : 	{
; 201  : 		int maxlen = 2047+2048*attempts;
; 202  : 		len = _vsnprintf(pbuf,maxlen,fmt,args);

	mov	eax, DWORD PTR _fmt$[esp+2060]
	push	ebp
	push	eax
	push	esi
	push	edi
	mov	ebx, esi
	call	DWORD PTR __imp___vsnprintf
	add	esp, 16					; 00000010H

; 203  : 		attempts++;

	add	esi, 2048				; 00000800H

; 204  : 		success = (len>=0 && len<=maxlen);

	test	eax, eax
	jl	SHORT $LN13@formatv
	cmp	eax, ebx
	jle	SHORT $LN18@formatv
$LN13@formatv:

; 205  : 		if (!success)
; 206  : 		{
; 207  : 			if (pbuf!=buf)

	lea	ecx, DWORD PTR _buf$[esp+2064]
	xor	bl, bl
	cmp	edi, ecx
	je	SHORT $LN6@formatv

; 208  : 				delete [] pbuf;

	push	edi
	call	??_V@YAXPAX@Z				; operator delete[]
	add	esp, 4
$LN6@formatv:

; 209  : 			pbuf = new char[2048+2048*attempts];

	lea	edx, DWORD PTR [esi+1]
	push	edx
	call	??_U@YAPAXI@Z				; operator new[]
	add	esp, 4

; 210  : 		}
; 211  : 	}
; 212  : 	while (!success && attempts<kMaxAttempts);

	cmp	esi, 83967				; 000147ffH
	mov	edi, eax
	jl	SHORT $LL10@formatv

; 222  : 		out = "";

	push	OFFSET ??_C@_00CNPNBAHC@?$AA@
$LN21@formatv:
	mov	ecx, DWORD PTR _out$[esp+2064]
	call	DWORD PTR __imp_??4?$basic_string@DU?$char_traits@D@std@@V?$allocator@D@2@@std@@QAEAAV01@PBD@Z

; 223  : 
; 224  : 	if (pbuf!=buf)

	lea	eax, DWORD PTR _buf$[esp+2064]
	cmp	edi, eax
	je	SHORT $LN20@formatv

; 225  : 		delete [] pbuf;

	push	edi
	call	??_V@YAXPAX@Z				; operator delete[]
	add	esp, 4
$LN20@formatv:
	pop	edi
	pop	esi
	pop	ebp

; 226  : 
; 227  : 	return success;

	mov	al, bl
	pop	ebx

; 228  : }

	add	esp, 2048				; 00000800H
	ret	0
$LN18@formatv:

; 204  : 		success = (len>=0 && len<=maxlen);

	mov	bl, 1

; 213  : 
; 214  : 	if ( attempts==kMaxAttempts )
; 215  : 	{
; 216  : 		// dxPrintNL( "CvString::formatv - Max reallocs occurred while formatting string. Result is likely truncated!", 0 );
; 217  : 	}
; 218  : 
; 219  : 	if (success)
; 220  : 		out = pbuf;

	push	edi

; 221  : 	else

	jmp	SHORT $LN21@formatv
?formatv@CvString@@SA_NAAV?$basic_string@DU?$char_traits@D@std@@V?$allocator@D@2@@std@@PBDPAD@Z ENDP ; CvString::formatv
_TEXT	ENDS
PUBLIC	?Format@CvString@@QAAXPBDZZ			; CvString::Format
EXTRN	___CxxFrameHandler3:PROC
;	COMDAT xdata$x
xdata$x	SEGMENT
__unwindtable$?Format@CvString@@QAAXPBDZZ DD 0ffffffffH
	DD	FLAT:__unwindfunclet$?Format@CvString@@QAAXPBDZZ$0
__ehfuncinfo$?Format@CvString@@QAAXPBDZZ DD 019930522H
	DD	01H
	DD	FLAT:__unwindtable$?Format@CvString@@QAAXPBDZZ
	DD	2 DUP(00H)
	DD	2 DUP(00H)
	DD	00H
	DD	01H
; Function compile flags: /Ogtpy
xdata$x	ENDS
;	COMDAT ?Format@CvString@@QAAXPBDZZ
_TEXT	SEGMENT
_result$ = -40						; size = 28
__$EHRec$ = -12						; size = 12
_this$ = 8						; size = 4
_lpszFormat$ = 12					; size = 4
?Format@CvString@@QAAXPBDZZ PROC			; CvString::Format, COMDAT

; 269  : {

	push	-1
	push	__ehhandler$?Format@CvString@@QAAXPBDZZ
	mov	eax, DWORD PTR fs:0
	push	eax
	mov	DWORD PTR fs:0, esp
	sub	esp, 28					; 0000001cH

; 270  : 	std::string result;

	lea	ecx, DWORD PTR _result$[esp+40]
	call	DWORD PTR __imp_??0?$basic_string@DU?$char_traits@D@std@@V?$allocator@D@2@@std@@QAE@XZ

; 271  : 	va_list args;
; 272  : 	va_start(args,lpszFormat);
; 273  : 	formatv(result,lpszFormat,args);

	mov	ecx, DWORD PTR _lpszFormat$[esp+36]
	lea	eax, DWORD PTR _lpszFormat$[esp+40]
	push	eax
	push	ecx
	lea	edx, DWORD PTR _result$[esp+48]
	push	edx
	mov	DWORD PTR __$EHRec$[esp+60], 0
	call	?formatv@CvString@@SA_NAAV?$basic_string@DU?$char_traits@D@std@@V?$allocator@D@2@@std@@PBDPAD@Z ; CvString::formatv
	add	esp, 12					; 0000000cH

; 274  : 	va_end(args);
; 275  : 	*this = result;

	lea	ecx, DWORD PTR _result$[esp+40]
	call	DWORD PTR __imp_?c_str@?$basic_string@DU?$char_traits@D@std@@V?$allocator@D@2@@std@@QBEPBDXZ
	mov	ecx, DWORD PTR _this$[esp+36]
	push	eax
	call	DWORD PTR __imp_?assign@?$basic_string@DU?$char_traits@D@std@@V?$allocator@D@2@@std@@QAEAAV12@PBD@Z

; 276  : }

	lea	ecx, DWORD PTR _result$[esp+40]
	mov	DWORD PTR __$EHRec$[esp+48], -1
	call	DWORD PTR __imp_??1?$basic_string@DU?$char_traits@D@std@@V?$allocator@D@2@@std@@QAE@XZ
	mov	ecx, DWORD PTR __$EHRec$[esp+40]
	mov	DWORD PTR fs:0, ecx
	add	esp, 40					; 00000028H
	ret	0
_TEXT	ENDS
;	COMDAT text$x
text$x	SEGMENT
__unwindfunclet$?Format@CvString@@QAAXPBDZZ$0:
	lea	ecx, DWORD PTR _result$[ebp]
	jmp	DWORD PTR __imp_??1?$basic_string@DU?$char_traits@D@std@@V?$allocator@D@2@@std@@QAE@XZ
__ehhandler$?Format@CvString@@QAAXPBDZZ:
	mov	eax, OFFSET __ehfuncinfo$?Format@CvString@@QAAXPBDZZ
	jmp	___CxxFrameHandler3
text$x	ENDS
?Format@CvString@@QAAXPBDZZ ENDP			; CvString::Format
PUBLIC	?GetDescription@CvBaseInfo@@QBEPBDXZ		; CvBaseInfo::GetDescription
; Function compile flags: /Ogtpy
; File c:\users\enormousapplepie\documents\github\lekmod\lekmod_dll\cvgamecoredll_expansion2\cvinfos.h
;	COMDAT ?GetDescription@CvBaseInfo@@QBEPBDXZ
_TEXT	SEGMENT
?GetDescription@CvBaseInfo@@QBEPBDXZ PROC		; CvBaseInfo::GetDescription, COMDAT
; _this$ = ecx

; 64   : 		return m_strDescription.c_str();

	add	ecx, 36					; 00000024H
	jmp	DWORD PTR __imp_?c_str@?$basic_string@DU?$char_traits@D@std@@V?$allocator@D@2@@std@@QBEPBDXZ
?GetDescription@CvBaseInfo@@QBEPBDXZ ENDP		; CvBaseInfo::GetDescription
_TEXT	ENDS
PUBLIC	?getGame@CvGlobals@@QAEAAVCvGame@@XZ		; CvGlobals::getGame
; Function compile flags: /Ogtpy
; File c:\users\enormousapplepie\documents\github\lekmod\lekmod_dll\cvgamecoredll_expansion2\cvglobals.h
;	COMDAT ?getGame@CvGlobals@@QAEAAVCvGame@@XZ
_TEXT	SEGMENT
?getGame@CvGlobals@@QAEAAVCvGame@@XZ PROC		; CvGlobals::getGame, COMDAT
; _this$ = ecx

; 183  : 		return *m_game;    // inlined for perf reasons, do not use outside of dll

	mov	eax, DWORD PTR [ecx+48]

; 184  : 	}

	ret	0
?getGame@CvGlobals@@QAEAAVCvGame@@XZ ENDP		; CvGlobals::getGame
_TEXT	ENDS
PUBLIC	??4CvString@@QAEAAV0@ABV0@@Z			; CvString::operator=
EXTRN	__imp_??4?$basic_string@DU?$char_traits@D@std@@V?$allocator@D@2@@std@@QAEAAV01@ABV01@@Z:PROC
; Function compile flags: /Ogtpy
;	COMDAT ??4CvString@@QAEAAV0@ABV0@@Z
_TEXT	SEGMENT
___that$ = 8						; size = 4
??4CvString@@QAEAAV0@ABV0@@Z PROC			; CvString::operator=, COMDAT
; _this$ = ecx
	mov	eax, DWORD PTR ___that$[esp-4]
	push	esi
	push	eax
	mov	esi, ecx
	call	DWORD PTR __imp_??4?$basic_string@DU?$char_traits@D@std@@V?$allocator@D@2@@std@@QAEAAV01@ABV01@@Z
	mov	eax, esi
	pop	esi
	ret	4
??4CvString@@QAEAAV0@ABV0@@Z ENDP			; CvString::operator=
_TEXT	ENDS
PUBLIC	?getPlayer@CvPlayerAI@@SAAAV1@W4PlayerTypes@@@Z	; CvPlayerAI::getPlayer
EXTRN	?m_aPlayers@CvPlayerAI@@1PAV1@A:DWORD		; CvPlayerAI::m_aPlayers
; Function compile flags: /Ogtpy
; File c:\users\enormousapplepie\documents\github\lekmod\lekmod_dll\cvgamecoredll_expansion2\cvplayerai.h
;	COMDAT ?getPlayer@CvPlayerAI@@SAAAV1@W4PlayerTypes@@@Z
_TEXT	SEGMENT
_ePlayer$ = 8						; size = 4
?getPlayer@CvPlayerAI@@SAAAV1@W4PlayerTypes@@@Z PROC	; CvPlayerAI::getPlayer, COMDAT

; 28   : 		CvAssertMsg(ePlayer != NO_PLAYER, "Player is not assigned a valid value");
; 29   : 		CvAssertMsg(ePlayer < MAX_PLAYERS, "Player is not assigned a valid value");
; 30   : 		return m_aPlayers[ePlayer];

	mov	eax, DWORD PTR _ePlayer$[esp-4]
	imul	eax, 63236				; 0000f704H
	add	eax, DWORD PTR ?m_aPlayers@CvPlayerAI@@1PAV1@A ; CvPlayerAI::m_aPlayers

; 31   : 	}

	ret	0
?getPlayer@CvPlayerAI@@SAAAV1@W4PlayerTypes@@@Z ENDP	; CvPlayerAI::getPlayer
_TEXT	ENDS
PUBLIC	??$?6H@FDataStream@@QAEAAV0@ABH@Z		; FDataStream::operator<<<int>
EXTRN	?Write@FDataStream@@IAEXABH@Z:PROC		; FDataStream::Write
; Function compile flags: /Ogtpy
; File c:\users\enormousapplepie\documents\github\lekmod\lekmod_dll\fireplace\include\fireworks\fdatastream.h
;	COMDAT ??$?6H@FDataStream@@QAEAAV0@ABH@Z
_TEXT	SEGMENT
_kData$ = 8						; size = 4
??$?6H@FDataStream@@QAEAAV0@ABH@Z PROC			; FDataStream::operator<<<int>, COMDAT
; _this$ = ecx

; 246  : 	// If the compiler produces an error here complaining about 
; 247  : 	// YouMustImplementASerializeOperatorForThisTypeError then
; 248  : 	// it could not find a specialization for the type supplied
; 249  : 	// in scope. If a specialization exists, be sure to include
; 250  : 	// the header (FStlContainerSerialization.h, for example), 
; 251  : 	// if not, implement :
; 252  : 	// FDataStream & operator<<(FDataStream &, YourCustomType &)
; 253  : 	Write( kData );

	mov	eax, DWORD PTR _kData$[esp-4]
	push	esi
	push	eax
	mov	esi, ecx
	call	?Write@FDataStream@@IAEXABH@Z		; FDataStream::Write

; 254  : 	return ( *this );

	mov	eax, esi
	pop	esi

; 255  : }

	ret	4
??$?6H@FDataStream@@QAEAAV0@ABH@Z ENDP			; FDataStream::operator<<<int>
_TEXT	ENDS
PUBLIC	??$?5H@FDataStream@@QAEAAV0@AAH@Z		; FDataStream::operator>><int>
EXTRN	?Read@FDataStream@@IAEXAAH@Z:PROC		; FDataStream::Read
; Function compile flags: /Ogtpy
;	COMDAT ??$?5H@FDataStream@@QAEAAV0@AAH@Z
_TEXT	SEGMENT
_kData$ = 8						; size = 4
??$?5H@FDataStream@@QAEAAV0@AAH@Z PROC			; FDataStream::operator>><int>, COMDAT
; _this$ = ecx

; 260  : 	// If the compiler produces an error here complaining about 
; 261  : 	// YouMustImplementASerializeOperatorForThisTypeError then
; 262  : 	// it could not find a specialization for the type supplied
; 263  : 	// in scope. If a specialization exists, be sure to include
; 264  : 	// the header (FStlContainerSerialization.h, for example), 
; 265  : 	// if not, implement :
; 266  : 	// FDataStream & operator>>(FDataStream &, YourCustomType &)
; 267  : 	Read( kData );

	mov	eax, DWORD PTR _kData$[esp-4]
	push	esi
	push	eax
	mov	esi, ecx
	call	?Read@FDataStream@@IAEXAAH@Z		; FDataStream::Read

; 268  : 	return ( *this );

	mov	eax, esi
	pop	esi

; 269  : }

	ret	4
??$?5H@FDataStream@@QAEAAV0@AAH@Z ENDP			; FDataStream::operator>><int>
_TEXT	ENDS
PUBLIC	??B?$FAutoVariable@W4PlayerTypes@@VCvCity@@@@QBEABW4PlayerTypes@@XZ ; FAutoVariable<enum PlayerTypes,CvCity>::operator enum PlayerTypes const &
; Function compile flags: /Ogtpy
; File c:\users\enormousapplepie\documents\github\lekmod\lekmod_dll\fireplace\include\fireworks\fautovariable.h
;	COMDAT ??B?$FAutoVariable@W4PlayerTypes@@VCvCity@@@@QBEABW4PlayerTypes@@XZ
_TEXT	SEGMENT
??B?$FAutoVariable@W4PlayerTypes@@VCvCity@@@@QBEABW4PlayerTypes@@XZ PROC ; FAutoVariable<enum PlayerTypes,CvCity>::operator enum PlayerTypes const &, COMDAT
; _this$ = ecx

; 194  : 	return m_value;

	lea	eax, DWORD PTR [ecx+4]

; 195  : }

	ret	0
??B?$FAutoVariable@W4PlayerTypes@@VCvCity@@@@QBEABW4PlayerTypes@@XZ ENDP ; FAutoVariable<enum PlayerTypes,CvCity>::operator enum PlayerTypes const &
_TEXT	ENDS
PUBLIC	??$?5I@FDataStream@@QAEAAV0@AAI@Z		; FDataStream::operator>><unsigned int>
EXTRN	?Read@FDataStream@@IAEXAAI@Z:PROC		; FDataStream::Read
; Function compile flags: /Ogtpy
; File c:\users\enormousapplepie\documents\github\lekmod\lekmod_dll\fireplace\include\fireworks\fdatastream.h
;	COMDAT ??$?5I@FDataStream@@QAEAAV0@AAI@Z
_TEXT	SEGMENT
_kData$ = 8						; size = 4
??$?5I@FDataStream@@QAEAAV0@AAI@Z PROC			; FDataStream::operator>><unsigned int>, COMDAT
; _this$ = ecx

; 260  : 	// If the compiler produces an error here complaining about 
; 261  : 	// YouMustImplementASerializeOperatorForThisTypeError then
; 262  : 	// it could not find a specialization for the type supplied
; 263  : 	// in scope. If a specialization exists, be sure to include
; 264  : 	// the header (FStlContainerSerialization.h, for example), 
; 265  : 	// if not, implement :
; 266  : 	// FDataStream & operator>>(FDataStream &, YourCustomType &)
; 267  : 	Read( kData );

	mov	eax, DWORD PTR _kData$[esp-4]
	push	esi
	push	eax
	mov	esi, ecx
	call	?Read@FDataStream@@IAEXAAI@Z		; FDataStream::Read

; 268  : 	return ( *this );

	mov	eax, esi
	pop	esi

; 269  : }

	ret	4
??$?5I@FDataStream@@QAEAAV0@AAI@Z ENDP			; FDataStream::operator>><unsigned int>
_TEXT	ENDS
PUBLIC	??$?6I@FDataStream@@QAEAAV0@ABI@Z		; FDataStream::operator<<<unsigned int>
EXTRN	?Write@FDataStream@@IAEXABI@Z:PROC		; FDataStream::Write
; Function compile flags: /Ogtpy
;	COMDAT ??$?6I@FDataStream@@QAEAAV0@ABI@Z
_TEXT	SEGMENT
_kData$ = 8						; size = 4
??$?6I@FDataStream@@QAEAAV0@ABI@Z PROC			; FDataStream::operator<<<unsigned int>, COMDAT
; _this$ = ecx

; 246  : 	// If the compiler produces an error here complaining about 
; 247  : 	// YouMustImplementASerializeOperatorForThisTypeError then
; 248  : 	// it could not find a specialization for the type supplied
; 249  : 	// in scope. If a specialization exists, be sure to include
; 250  : 	// the header (FStlContainerSerialization.h, for example), 
; 251  : 	// if not, implement :
; 252  : 	// FDataStream & operator<<(FDataStream &, YourCustomType &)
; 253  : 	Write( kData );

	mov	eax, DWORD PTR _kData$[esp-4]
	push	esi
	push	eax
	mov	esi, ecx
	call	?Write@FDataStream@@IAEXABI@Z		; FDataStream::Write

; 254  : 	return ( *this );

	mov	eax, esi
	pop	esi

; 255  : }

	ret	4
??$?6I@FDataStream@@QAEAAV0@ABI@Z ENDP			; FDataStream::operator<<<unsigned int>
_TEXT	ENDS
PUBLIC	?GetElement@?$CvWeightedVector@H$0BC@$00@@QBEABHI@Z ; CvWeightedVector<int,18,1>::GetElement
; Function compile flags: /Ogtpy
; File c:\users\enormousapplepie\documents\github\lekmod\lekmod_dll\cvgamecoredllutil\include\cvweightedvector.h
;	COMDAT ?GetElement@?$CvWeightedVector@H$0BC@$00@@QBEABHI@Z
_TEXT	SEGMENT
_iIndex$ = 8						; size = 4
?GetElement@?$CvWeightedVector@H$0BC@$00@@QBEABHI@Z PROC ; CvWeightedVector<int,18,1>::GetElement, COMDAT
; _this$ = ecx

; 64   : 		assert(iIndex < m_pItems.size());
; 65   : 		return m_pItems[iIndex].m_Element;

	mov	eax, DWORD PTR [ecx]
	mov	ecx, DWORD PTR _iIndex$[esp-4]
	lea	eax, DWORD PTR [eax+ecx*8]

; 66   : 	};

	ret	4
?GetElement@?$CvWeightedVector@H$0BC@$00@@QBEABHI@Z ENDP ; CvWeightedVector<int,18,1>::GetElement
_TEXT	ENDS
PUBLIC	?GetWeight@?$CvWeightedVector@H$0BC@$00@@QBEHI@Z ; CvWeightedVector<int,18,1>::GetWeight
; Function compile flags: /Ogtpy
;	COMDAT ?GetWeight@?$CvWeightedVector@H$0BC@$00@@QBEHI@Z
_TEXT	SEGMENT
_elem$ = -8						; size = 8
_iIndex$ = 8						; size = 4
?GetWeight@?$CvWeightedVector@H$0BC@$00@@QBEHI@Z PROC	; CvWeightedVector<int,18,1>::GetWeight, COMDAT
; _this$ = ecx

; 70   : 	{

	sub	esp, 8

; 71   : 		WeightedElement elem;
; 72   : 		assert(iIndex < m_pItems.size());
; 73   : 		elem = m_pItems[iIndex];

	mov	eax, DWORD PTR [ecx]
	mov	ecx, DWORD PTR _iIndex$[esp+4]
	mov	edx, DWORD PTR [eax+ecx*8]

; 74   : 		return elem.m_iWeight;

	mov	eax, DWORD PTR [eax+ecx*8+4]
	mov	DWORD PTR _elem$[esp+8], edx

; 75   : 	}

	add	esp, 8
	ret	4
?GetWeight@?$CvWeightedVector@H$0BC@$00@@QBEHI@Z ENDP	; CvWeightedVector<int,18,1>::GetWeight
_TEXT	ENDS
PUBLIC	?IncreaseWeight@?$CvWeightedVector@H$0BC@$00@@QAEXIH@Z ; CvWeightedVector<int,18,1>::IncreaseWeight
; Function compile flags: /Ogtpy
;	COMDAT ?IncreaseWeight@?$CvWeightedVector@H$0BC@$00@@QAEXIH@Z
_TEXT	SEGMENT
_iIndex$ = 8						; size = 4
_iWeight$ = 12						; size = 4
?IncreaseWeight@?$CvWeightedVector@H$0BC@$00@@QAEXIH@Z PROC ; CvWeightedVector<int,18,1>::IncreaseWeight, COMDAT
; _this$ = ecx

; 78   : 		m_pItems[iIndex].m_iWeight += iWeight;

	mov	eax, DWORD PTR [ecx]
	mov	ecx, DWORD PTR _iIndex$[esp-4]
	mov	edx, DWORD PTR _iWeight$[esp-4]
	add	DWORD PTR [eax+ecx*8+4], edx
	lea	eax, DWORD PTR [eax+ecx*8+4]

; 79   : 		CvAssertMsg(m_pItems[iIndex].m_iWeight >= 0, "Weight should not be negative.");
; 80   : 	}

	ret	8
?IncreaseWeight@?$CvWeightedVector@H$0BC@$00@@QAEXIH@Z ENDP ; CvWeightedVector<int,18,1>::IncreaseWeight
_TEXT	ENDS
PUBLIC	?size@?$CvWeightedVector@H$0BC@$00@@QAEHXZ	; CvWeightedVector<int,18,1>::size
; Function compile flags: /Ogtpy
;	COMDAT ?size@?$CvWeightedVector@H$0BC@$00@@QAEHXZ
_TEXT	SEGMENT
?size@?$CvWeightedVector@H$0BC@$00@@QAEHXZ PROC		; CvWeightedVector<int,18,1>::size, COMDAT
; _this$ = ecx

; 134  : 		return m_pItems.size();

	mov	eax, DWORD PTR [ecx+4]

; 135  : 	};

	ret	0
?size@?$CvWeightedVector@H$0BC@$00@@QAEHXZ ENDP		; CvWeightedVector<int,18,1>::size
_TEXT	ENDS
PUBLIC	??0?$FStaticVector@UWeightedElement@?$CvWeightedVector@H$0BC@$00@@$0BC@$00$0A@$0A@@@QAE@XZ ; FStaticVector<CvWeightedVector<int,18,1>::WeightedElement,18,1,0,0>::FStaticVector<CvWeightedVector<int,18,1>::WeightedElement,18,1,0,0>
; Function compile flags: /Ogtpy
; File c:\users\enormousapplepie\documents\github\lekmod\lekmod_dll\fireplace\include\fireworks\ffastvector.h
;	COMDAT ??0?$FStaticVector@UWeightedElement@?$CvWeightedVector@H$0BC@$00@@$0BC@$00$0A@$0A@@@QAE@XZ
_TEXT	SEGMENT
??0?$FStaticVector@UWeightedElement@?$CvWeightedVector@H$0BC@$00@@$0BC@$00$0A@$0A@@@QAE@XZ PROC ; FStaticVector<CvWeightedVector<int,18,1>::WeightedElement,18,1,0,0>::FStaticVector<CvWeightedVector<int,18,1>::WeightedElement,18,1,0,0>, COMDAT
; _this$ = ecx

; 601  : 	FStaticVector()

	mov	eax, ecx

; 602  :     {
; 603  : 		m_uiCurrMaxSize = L;
; 604  : 		m_pData = Alloc(m_uiCurrMaxSize);

	lea	ecx, DWORD PTR [eax+12]
	mov	DWORD PTR [eax+4], 0
	mov	DWORD PTR [eax+8], 18			; 00000012H
	mov	DWORD PTR [eax], ecx

; 605  : #ifdef BREAK_ON_STATIC_RESIZE
; 606  : 		m_iNumResized = 0;
; 607  : #endif
; 608  :     };

	ret	0
??0?$FStaticVector@UWeightedElement@?$CvWeightedVector@H$0BC@$00@@$0BC@$00$0A@$0A@@@QAE@XZ ENDP ; FStaticVector<CvWeightedVector<int,18,1>::WeightedElement,18,1,0,0>::FStaticVector<CvWeightedVector<int,18,1>::WeightedElement,18,1,0,0>
_TEXT	ENDS
PUBLIC	?clear@?$BaseVector@UWeightedElement@?$CvWeightedVector@H$0BC@$00@@$00@@QAEXXZ ; BaseVector<CvWeightedVector<int,18,1>::WeightedElement,1>::clear
; Function compile flags: /Ogtpy
;	COMDAT ?clear@?$BaseVector@UWeightedElement@?$CvWeightedVector@H$0BC@$00@@$00@@QAEXXZ
_TEXT	SEGMENT
?clear@?$BaseVector@UWeightedElement@?$CvWeightedVector@H$0BC@$00@@$00@@QAEXXZ PROC ; BaseVector<CvWeightedVector<int,18,1>::WeightedElement,1>::clear, COMDAT
; _this$ = ecx

; 121  : 		Destroy(m_pData, m_uiCurrSize);
; 122  : 		m_uiCurrSize = 0;

	mov	DWORD PTR [ecx+4], 0

; 123  : 	};

	ret	0
?clear@?$BaseVector@UWeightedElement@?$CvWeightedVector@H$0BC@$00@@$00@@QAEXXZ ENDP ; BaseVector<CvWeightedVector<int,18,1>::WeightedElement,1>::clear
_TEXT	ENDS
PUBLIC	?Free@?$FStaticVector@UWeightedElement@?$CvWeightedVector@H$0BC@$00@@$0BC@$00$0A@$0A@@@IAEXPAUWeightedElement@?$CvWeightedVector@H$0BC@$00@@I@Z ; FStaticVector<CvWeightedVector<int,18,1>::WeightedElement,18,1,0,0>::Free
EXTRN	?FireFreeAlignedNoTracking@@YAXPAX@Z:PROC	; FireFreeAlignedNoTracking
; Function compile flags: /Ogtpy
;	COMDAT ?Free@?$FStaticVector@UWeightedElement@?$CvWeightedVector@H$0BC@$00@@$0BC@$00$0A@$0A@@@IAEXPAUWeightedElement@?$CvWeightedVector@H$0BC@$00@@I@Z
_TEXT	SEGMENT
_pVal$ = 8						; size = 4
_uiNumElements$ = 12					; size = 4
?Free@?$FStaticVector@UWeightedElement@?$CvWeightedVector@H$0BC@$00@@$0BC@$00$0A@$0A@@@IAEXPAUWeightedElement@?$CvWeightedVector@H$0BC@$00@@I@Z PROC ; FStaticVector<CvWeightedVector<int,18,1>::WeightedElement,18,1,0,0>::Free, COMDAT
; _this$ = ecx

; 810  : 		if( !bPODType) Destroy(pVal, uiNumElements);
; 811  : 		if( pVal != (T*)m_aData )

	mov	eax, DWORD PTR _pVal$[esp-4]
	add	ecx, 12					; 0000000cH
	cmp	eax, ecx
	je	SHORT $LN1@Free

; 812  : 			FFREEALIGNED( (unsigned char*)pVal );

	push	eax
	call	?FireFreeAlignedNoTracking@@YAXPAX@Z	; FireFreeAlignedNoTracking
	pop	ecx
$LN1@Free:

; 813  : 	};

	ret	8
?Free@?$FStaticVector@UWeightedElement@?$CvWeightedVector@H$0BC@$00@@$0BC@$00$0A@$0A@@@IAEXPAUWeightedElement@?$CvWeightedVector@H$0BC@$00@@I@Z ENDP ; FStaticVector<CvWeightedVector<int,18,1>::WeightedElement,18,1,0,0>::Free
_TEXT	ENDS
PUBLIC	??$iter_swap@PAUWeightedElement@?$CvWeightedVector@H$0BC@$00@@PAU12@@std@@YAXPAUWeightedElement@?$CvWeightedVector@H$0BC@$00@@0@Z ; std::iter_swap<CvWeightedVector<int,18,1>::WeightedElement *,CvWeightedVector<int,18,1>::WeightedElement *>
; Function compile flags: /Ogtpy
; File c:\program files (x86)\microsoft visual studio 9.0\vc\include\algorithm
;	COMDAT ??$iter_swap@PAUWeightedElement@?$CvWeightedVector@H$0BC@$00@@PAU12@@std@@YAXPAUWeightedElement@?$CvWeightedVector@H$0BC@$00@@0@Z
_TEXT	SEGMENT
__Left$ = 8						; size = 4
__Right$ = 12						; size = 4
??$iter_swap@PAUWeightedElement@?$CvWeightedVector@H$0BC@$00@@PAU12@@std@@YAXPAUWeightedElement@?$CvWeightedVector@H$0BC@$00@@0@Z PROC ; std::iter_swap<CvWeightedVector<int,18,1>::WeightedElement *,CvWeightedVector<int,18,1>::WeightedElement *>, COMDAT

; 594  : 	swap(*_Left, *_Right);

	mov	eax, DWORD PTR __Left$[esp-4]
	mov	ecx, DWORD PTR __Right$[esp-4]
	cmp	eax, ecx
	je	SHORT $LN3@iter_swap
	mov	edx, DWORD PTR [eax]
	push	esi
	mov	esi, DWORD PTR [eax+4]
	push	edi
	mov	edi, DWORD PTR [ecx]
	mov	DWORD PTR [eax], edi
	mov	edi, DWORD PTR [ecx+4]
	mov	DWORD PTR [eax+4], edi
	pop	edi
	mov	DWORD PTR [ecx+4], esi
	mov	DWORD PTR [ecx], edx
	pop	esi
$LN3@iter_swap:

; 595  : 	}

	ret	0
??$iter_swap@PAUWeightedElement@?$CvWeightedVector@H$0BC@$00@@PAU12@@std@@YAXPAUWeightedElement@?$CvWeightedVector@H$0BC@$00@@0@Z ENDP ; std::iter_swap<CvWeightedVector<int,18,1>::WeightedElement *,CvWeightedVector<int,18,1>::WeightedElement *>
_TEXT	ENDS
PUBLIC	??$_Med3@PAUWeightedElement@?$CvWeightedVector@H$0BC@$00@@@std@@YAXPAUWeightedElement@?$CvWeightedVector@H$0BC@$00@@00@Z ; std::_Med3<CvWeightedVector<int,18,1>::WeightedElement *>
; Function compile flags: /Ogtpy
;	COMDAT ??$_Med3@PAUWeightedElement@?$CvWeightedVector@H$0BC@$00@@@std@@YAXPAUWeightedElement@?$CvWeightedVector@H$0BC@$00@@00@Z
_TEXT	SEGMENT
__First$ = 8						; size = 4
__Mid$ = 12						; size = 4
__Last$ = 16						; size = 4
??$_Med3@PAUWeightedElement@?$CvWeightedVector@H$0BC@$00@@@std@@YAXPAUWeightedElement@?$CvWeightedVector@H$0BC@$00@@00@Z PROC ; std::_Med3<CvWeightedVector<int,18,1>::WeightedElement *>, COMDAT

; 2999 : 	if (_DEBUG_LT(*_Mid, *_First))

	mov	eax, DWORD PTR __Mid$[esp-4]
	mov	ecx, DWORD PTR __First$[esp-4]
	mov	edx, DWORD PTR [eax+4]
	cmp	edx, DWORD PTR [ecx+4]
	push	esi
	push	edi
	jle	SHORT $LN10@Med3

; 3000 : 		std::iter_swap(_Mid, _First);

	cmp	eax, ecx
	je	SHORT $LN10@Med3
	mov	edi, DWORD PTR [ecx]
	mov	esi, DWORD PTR [eax]
	mov	DWORD PTR [eax], edi
	mov	edi, DWORD PTR [ecx+4]
	mov	DWORD PTR [eax+4], edi
	mov	DWORD PTR [ecx], esi
	mov	DWORD PTR [ecx+4], edx
$LN10@Med3:

; 3001 : 	if (_DEBUG_LT(*_Last, *_Mid))

	mov	edx, DWORD PTR __Last$[esp+4]
	mov	esi, DWORD PTR [edx+4]
	cmp	esi, DWORD PTR [eax+4]
	jle	SHORT $LN19@Med3

; 3002 : 		std::iter_swap(_Last, _Mid);

	cmp	edx, eax
	je	SHORT $LN19@Med3
	mov	edi, DWORD PTR [edx]
	push	ebx
	mov	ebx, DWORD PTR [eax]
	mov	DWORD PTR [edx], ebx
	mov	ebx, DWORD PTR [eax+4]
	mov	DWORD PTR [edx+4], ebx
	mov	DWORD PTR [eax], edi
	mov	DWORD PTR [eax+4], esi
	pop	ebx
$LN19@Med3:

; 3003 : 	if (_DEBUG_LT(*_Mid, *_First))

	mov	edx, DWORD PTR [eax+4]
	cmp	edx, DWORD PTR [ecx+4]
	jle	SHORT $LN28@Med3

; 3004 : 		std::iter_swap(_Mid, _First);

	cmp	eax, ecx
	je	SHORT $LN28@Med3
	mov	edi, DWORD PTR [ecx]
	mov	esi, DWORD PTR [eax]
	mov	DWORD PTR [eax], edi
	mov	edi, DWORD PTR [ecx+4]
	mov	DWORD PTR [eax+4], edi
	mov	DWORD PTR [ecx], esi
	mov	DWORD PTR [ecx+4], edx
$LN28@Med3:
	pop	edi
	pop	esi

; 3005 : 	}

	ret	0
??$_Med3@PAUWeightedElement@?$CvWeightedVector@H$0BC@$00@@@std@@YAXPAUWeightedElement@?$CvWeightedVector@H$0BC@$00@@00@Z ENDP ; std::_Med3<CvWeightedVector<int,18,1>::WeightedElement *>
_TEXT	ENDS
PUBLIC	??$_Adjust_heap@PAUWeightedElement@?$CvWeightedVector@H$0BC@$00@@HU12@@std@@YAXPAUWeightedElement@?$CvWeightedVector@H$0BC@$00@@HHU12@@Z ; std::_Adjust_heap<CvWeightedVector<int,18,1>::WeightedElement *,int,CvWeightedVector<int,18,1>::WeightedElement>
; Function compile flags: /Ogtpy
;	COMDAT ??$_Adjust_heap@PAUWeightedElement@?$CvWeightedVector@H$0BC@$00@@HU12@@std@@YAXPAUWeightedElement@?$CvWeightedVector@H$0BC@$00@@HHU12@@Z
_TEXT	SEGMENT
__First$ = 8						; size = 4
__Hole$ = 12						; size = 4
__Bottom$ = 16						; size = 4
__Val$ = 20						; size = 8
??$_Adjust_heap@PAUWeightedElement@?$CvWeightedVector@H$0BC@$00@@HU12@@std@@YAXPAUWeightedElement@?$CvWeightedVector@H$0BC@$00@@HHU12@@Z PROC ; std::_Adjust_heap<CvWeightedVector<int,18,1>::WeightedElement *,int,CvWeightedVector<int,18,1>::WeightedElement>, COMDAT

; 2056 : 	_Diff _Top = _Hole;

	mov	edx, DWORD PTR __Hole$[esp-4]

; 2057 : 	_Diff _Idx = 2 * _Hole + 2;
; 2058 : 
; 2059 : 	for (; _Idx < _Bottom; _Idx = 2 * _Idx + 2)

	mov	ecx, DWORD PTR __First$[esp-4]
	push	ebx
	push	esi
	mov	esi, DWORD PTR __Bottom$[esp+4]
	lea	eax, DWORD PTR [edx+edx+2]
	cmp	eax, esi
	push	edi
	mov	edi, edx
	jge	SHORT $LN14@Adjust_hea
	npad	7
$LL5@Adjust_hea:

; 2060 : 		{	// move _Hole down to larger child
; 2061 : 		if (_DEBUG_LT(*(_First + _Idx), *(_First + (_Idx - 1))))

	mov	ebx, DWORD PTR [ecx+eax*8+4]
	cmp	ebx, DWORD PTR [ecx+eax*8-4]
	jle	SHORT $LN2@Adjust_hea

; 2062 : 			--_Idx;

	dec	eax
$LN2@Adjust_hea:

; 2063 : 		*(_First + _Hole) = *(_First + _Idx), _Hole = _Idx;

	mov	ebx, DWORD PTR [ecx+eax*8]
	mov	DWORD PTR [ecx+edx*8], ebx
	mov	ebx, DWORD PTR [ecx+eax*8+4]
	mov	DWORD PTR [ecx+edx*8+4], ebx
	mov	edx, eax
	lea	eax, DWORD PTR [eax+eax+2]
	cmp	eax, esi
	jl	SHORT $LL5@Adjust_hea
$LN14@Adjust_hea:

; 2064 : 		}
; 2065 : 
; 2066 : 	if (_Idx == _Bottom)

	jne	SHORT $LN1@Adjust_hea

; 2067 : 		{	// only child at bottom, move _Hole down to it
; 2068 : 		*(_First + _Hole) = *(_First + (_Bottom - 1));

	mov	eax, DWORD PTR [ecx+esi*8-8]
	mov	DWORD PTR [ecx+edx*8], eax
	mov	eax, DWORD PTR [ecx+esi*8-4]
	mov	DWORD PTR [ecx+edx*8+4], eax

; 2069 : 		_Hole = _Bottom - 1;

	lea	edx, DWORD PTR [esi-1]
$LN1@Adjust_hea:

; 2070 : 		}
; 2071 : 	std::_Push_heap(_First, _Hole, _Top, _Val);

	mov	esi, DWORD PTR __Val$[esp+8]
	sub	esp, 8
	mov	eax, esp
	push	edi
	mov	DWORD PTR [eax], esi
	mov	esi, DWORD PTR __Val$[esp+24]
	push	edx
	push	ecx
	mov	DWORD PTR [eax+4], esi
	call	??$_Push_heap@PAUWeightedElement@?$CvWeightedVector@H$0BC@$00@@HU12@@std@@YAXPAUWeightedElement@?$CvWeightedVector@H$0BC@$00@@HHU12@@Z ; std::_Push_heap<CvWeightedVector<int,18,1>::WeightedElement *,int,CvWeightedVector<int,18,1>::WeightedElement>
	add	esp, 20					; 00000014H

; 2072 : 	}

	pop	edi
	pop	esi
	pop	ebx
	ret	0
??$_Adjust_heap@PAUWeightedElement@?$CvWeightedVector@H$0BC@$00@@HU12@@std@@YAXPAUWeightedElement@?$CvWeightedVector@H$0BC@$00@@HHU12@@Z ENDP ; std::_Adjust_heap<CvWeightedVector<int,18,1>::WeightedElement *,int,CvWeightedVector<int,18,1>::WeightedElement>
_TEXT	ENDS
PUBLIC	??$unchecked_copy_backward@PAUWeightedElement@?$CvWeightedVector@H$0BC@$00@@PAU12@@stdext@@YAPAUWeightedElement@?$CvWeightedVector@H$0BC@$00@@PAU12@00@Z ; stdext::unchecked_copy_backward<CvWeightedVector<int,18,1>::WeightedElement *,CvWeightedVector<int,18,1>::WeightedElement *>
; Function compile flags: /Ogtpy
; File c:\program files (x86)\microsoft visual studio 9.0\vc\include\xutility
;	COMDAT ??$unchecked_copy_backward@PAUWeightedElement@?$CvWeightedVector@H$0BC@$00@@PAU12@@stdext@@YAPAUWeightedElement@?$CvWeightedVector@H$0BC@$00@@PAU12@00@Z
_TEXT	SEGMENT
__First$ = 8						; size = 4
__Last$ = 12						; size = 4
__Dest$ = 16						; size = 4
??$unchecked_copy_backward@PAUWeightedElement@?$CvWeightedVector@H$0BC@$00@@PAU12@@stdext@@YAPAUWeightedElement@?$CvWeightedVector@H$0BC@$00@@PAU12@00@Z PROC ; stdext::unchecked_copy_backward<CvWeightedVector<int,18,1>::WeightedElement *,CvWeightedVector<int,18,1>::WeightedElement *>, COMDAT

; 3637 : 		return (_STD _Copy_backward_opt(_CHECKED_BASE(_First), _CHECKED_BASE(_Last), _Dest,
; 3638 : 			_STD _Iter_random(_First, _Dest), _STD _Ptr_cat(_First, _Dest), _STD _Range_checked_iterator_tag()));

	mov	ecx, DWORD PTR __Last$[esp-4]
	mov	edx, DWORD PTR __First$[esp-4]
	mov	eax, DWORD PTR __Dest$[esp-4]
	cmp	edx, ecx
	je	SHORT $LN7@unchecked_
	push	esi
$LL8@unchecked_:
	mov	esi, DWORD PTR [ecx-8]
	sub	ecx, 8
	sub	eax, 8
	mov	DWORD PTR [eax], esi
	mov	esi, DWORD PTR [ecx+4]
	mov	DWORD PTR [eax+4], esi
	cmp	ecx, edx
	jne	SHORT $LL8@unchecked_
	pop	esi
$LN7@unchecked_:

; 3639 : 	}

	ret	0
??$unchecked_copy_backward@PAUWeightedElement@?$CvWeightedVector@H$0BC@$00@@PAU12@@stdext@@YAPAUWeightedElement@?$CvWeightedVector@H$0BC@$00@@PAU12@00@Z ENDP ; stdext::unchecked_copy_backward<CvWeightedVector<int,18,1>::WeightedElement *,CvWeightedVector<int,18,1>::WeightedElement *>
_TEXT	ENDS
PUBLIC	??$_Pop_heap@PAUWeightedElement@?$CvWeightedVector@H$0BC@$00@@HU12@@std@@YAXPAUWeightedElement@?$CvWeightedVector@H$0BC@$00@@00U12@PAH@Z ; std::_Pop_heap<CvWeightedVector<int,18,1>::WeightedElement *,int,CvWeightedVector<int,18,1>::WeightedElement>
; Function compile flags: /Ogtpy
; File c:\program files (x86)\microsoft visual studio 9.0\vc\include\algorithm
;	COMDAT ??$_Pop_heap@PAUWeightedElement@?$CvWeightedVector@H$0BC@$00@@HU12@@std@@YAXPAUWeightedElement@?$CvWeightedVector@H$0BC@$00@@00U12@PAH@Z
_TEXT	SEGMENT
__First$ = 8						; size = 4
__Last$ = 12						; size = 4
__Dest$ = 16						; size = 4
__Val$ = 20						; size = 8
___formal$ = 28						; size = 4
??$_Pop_heap@PAUWeightedElement@?$CvWeightedVector@H$0BC@$00@@HU12@@std@@YAXPAUWeightedElement@?$CvWeightedVector@H$0BC@$00@@00U12@PAH@Z PROC ; std::_Pop_heap<CvWeightedVector<int,18,1>::WeightedElement *,int,CvWeightedVector<int,18,1>::WeightedElement>, COMDAT

; 2080 : 	*_Dest = *_First;

	mov	eax, DWORD PTR __First$[esp-4]
	mov	edx, DWORD PTR [eax]
	mov	ecx, DWORD PTR __Dest$[esp-4]
	mov	DWORD PTR [ecx], edx
	mov	edx, DWORD PTR [eax+4]
	mov	DWORD PTR [ecx+4], edx

; 2081 : 	std::_Adjust_heap(_First, _Diff(0), _Diff(_Last - _First), _Val);

	mov	edx, DWORD PTR __Val$[esp-4]
	sub	esp, 8
	mov	ecx, esp
	mov	DWORD PTR [ecx], edx
	mov	edx, DWORD PTR __Val$[esp+8]
	mov	DWORD PTR [ecx+4], edx
	mov	ecx, DWORD PTR __Last$[esp+4]
	sub	ecx, eax
	sar	ecx, 3
	push	ecx
	push	0
	push	eax
	call	??$_Adjust_heap@PAUWeightedElement@?$CvWeightedVector@H$0BC@$00@@HU12@@std@@YAXPAUWeightedElement@?$CvWeightedVector@H$0BC@$00@@HHU12@@Z ; std::_Adjust_heap<CvWeightedVector<int,18,1>::WeightedElement *,int,CvWeightedVector<int,18,1>::WeightedElement>
	add	esp, 20					; 00000014H

; 2082 : 	}

	ret	0
??$_Pop_heap@PAUWeightedElement@?$CvWeightedVector@H$0BC@$00@@HU12@@std@@YAXPAUWeightedElement@?$CvWeightedVector@H$0BC@$00@@00U12@PAH@Z ENDP ; std::_Pop_heap<CvWeightedVector<int,18,1>::WeightedElement *,int,CvWeightedVector<int,18,1>::WeightedElement>
_TEXT	ENDS
PUBLIC	?getOwner@CvCity@@QBE?AW4PlayerTypes@@XZ	; CvCity::getOwner
; Function compile flags: /Ogtpy
; File c:\users\enormousapplepie\documents\github\lekmod\lekmod_dll\cvgamecoredll_expansion2\cvcity.h
;	COMDAT ?getOwner@CvCity@@QBE?AW4PlayerTypes@@XZ
_TEXT	SEGMENT
?getOwner@CvCity@@QBE?AW4PlayerTypes@@XZ PROC		; CvCity::getOwner, COMDAT
; _this$ = ecx

; 604  : 		return m_eOwner;

	mov	eax, DWORD PTR [ecx+84]

; 605  : 	}

	ret	0
?getOwner@CvCity@@QBE?AW4PlayerTypes@@XZ ENDP		; CvCity::getOwner
_TEXT	ENDS
PUBLIC	?Write@CvProjectProductionAI@@QBEXAAVFDataStream@@@Z ; CvProjectProductionAI::Write
EXTRN	?GetNumProjects@CvProjectXMLEntries@@QAEHXZ:PROC ; CvProjectXMLEntries::GetNumProjects
EXTRN	?GetGameProjects@CvGlobals@@QBEPAVCvProjectXMLEntries@@XZ:PROC ; CvGlobals::GetGameProjects
EXTRN	?gGlobals@@3VCvGlobals@@A:BYTE			; gGlobals
; Function compile flags: /Ogtpy
; File c:\users\enormousapplepie\documents\github\lekmod\lekmod_dll\cvgamecoredll_expansion2\cvprojectproductionai.cpp
;	COMDAT ?Write@CvProjectProductionAI@@QBEXAAVFDataStream@@@Z
_TEXT	SEGMENT
_uiVersion$ = -12					; size = 4
_elem$218861 = -8					; size = 8
$T218849 = 8						; size = 4
_kStream$ = 8						; size = 4
?Write@CvProjectProductionAI@@QBEXAAVFDataStream@@@Z PROC ; CvProjectProductionAI::Write, COMDAT
; _this$ = ecx

; 67   : {

	sub	esp, 12					; 0000000cH
	push	ebx

; 68   : 	// Current version number
; 69   : 	uint uiVersion = 1;
; 70   : 	kStream << uiVersion;

	mov	ebx, DWORD PTR _kStream$[esp+12]
	push	esi
	push	edi
	lea	eax, DWORD PTR _uiVersion$[esp+24]
	mov	edi, ecx
	push	eax
	mov	ecx, ebx
	mov	DWORD PTR _uiVersion$[esp+28], 1
	call	?Write@FDataStream@@IAEXABI@Z		; FDataStream::Write

; 71   : 
; 72   : 	// Loop through writing each entry
; 73   : #ifdef AUI_WARNING_FIXES
; 74   : 	for (uint i = 0; i < GC.GetGameProjects()->GetNumProjects(); i++)
; 75   : #else
; 76   : 	for(int i = 0; i < GC.GetGameProjects()->GetNumProjects(); i++)

	mov	ecx, OFFSET ?gGlobals@@3VCvGlobals@@A	; gGlobals
	xor	esi, esi
	call	?GetGameProjects@CvGlobals@@QBEPAVCvProjectXMLEntries@@XZ ; CvGlobals::GetGameProjects
	mov	ecx, eax
	call	?GetNumProjects@CvProjectXMLEntries@@QAEHXZ ; CvProjectXMLEntries::GetNumProjects
	test	eax, eax
	jle	SHORT $LN1@Write
	npad	9
$LL3@Write:

; 77   : #endif
; 78   : 	{
; 79   : 		kStream << m_ProjectAIWeights.GetWeight(i);

	mov	eax, DWORD PTR [edi+4]
	mov	ecx, DWORD PTR [eax+esi*8]
	mov	eax, DWORD PTR [eax+esi*8+4]
	lea	edx, DWORD PTR $T218849[esp+20]
	mov	DWORD PTR _elem$218861[esp+24], ecx
	push	edx
	mov	ecx, ebx
	mov	DWORD PTR $T218849[esp+24], eax
	call	?Write@FDataStream@@IAEXABH@Z		; FDataStream::Write
	mov	ecx, OFFSET ?gGlobals@@3VCvGlobals@@A	; gGlobals
	inc	esi
	call	?GetGameProjects@CvGlobals@@QBEPAVCvProjectXMLEntries@@XZ ; CvGlobals::GetGameProjects
	mov	ecx, eax
	call	?GetNumProjects@CvProjectXMLEntries@@QAEHXZ ; CvProjectXMLEntries::GetNumProjects
	cmp	esi, eax
	jl	SHORT $LL3@Write
$LN1@Write:
	pop	edi
	pop	esi
	pop	ebx

; 80   : 	}
; 81   : }

	add	esp, 12					; 0000000cH
	ret	4
?Write@CvProjectProductionAI@@QBEXAAVFDataStream@@@Z ENDP ; CvProjectProductionAI::Write
_TEXT	ENDS
PUBLIC	?AddFlavorWeights@CvProjectProductionAI@@QAEXW4FlavorTypes@@H@Z ; CvProjectProductionAI::AddFlavorWeights
EXTRN	?GetFlavorValue@CvProjectEntry@@QBEHH@Z:PROC	; CvProjectEntry::GetFlavorValue
EXTRN	?GetEntry@CvProjectXMLEntries@@QAEPAVCvProjectEntry@@H@Z:PROC ; CvProjectXMLEntries::GetEntry
; Function compile flags: /Ogtpy
;	COMDAT ?AddFlavorWeights@CvProjectProductionAI@@QAEXW4FlavorTypes@@H@Z
_TEXT	SEGMENT
_eFlavor$ = 8						; size = 4
_iWeight$ = 12						; size = 4
?AddFlavorWeights@CvProjectProductionAI@@QAEXW4FlavorTypes@@H@Z PROC ; CvProjectProductionAI::AddFlavorWeights, COMDAT
; _this$ = ecx

; 85   : {

	push	esi
	push	edi
	mov	edi, ecx

; 86   : #ifdef AUI_WARNING_FIXES
; 87   : 	uint iProject;
; 88   : #else
; 89   : 	int iProject;
; 90   : #endif
; 91   : 	CvProjectEntry* entry(NULL);
; 92   : 
; 93   : 	// Loop through all projects
; 94   : 	for(iProject = 0; iProject < GC.GetGameProjects()->GetNumProjects(); iProject++)

	mov	ecx, OFFSET ?gGlobals@@3VCvGlobals@@A	; gGlobals
	xor	esi, esi
	call	?GetGameProjects@CvGlobals@@QBEPAVCvProjectXMLEntries@@XZ ; CvGlobals::GetGameProjects
	mov	ecx, eax
	call	?GetNumProjects@CvProjectXMLEntries@@QAEHXZ ; CvProjectXMLEntries::GetNumProjects
	test	eax, eax
	jle	SHORT $LN2@AddFlavorW
	push	ebx
	mov	ebx, DWORD PTR _iWeight$[esp+8]
	push	ebp
	mov	ebp, DWORD PTR _eFlavor$[esp+12]
$LL4@AddFlavorW:

; 95   : 	{
; 96   : 		entry = GC.GetGameProjects()->GetEntry(iProject);

	push	esi
	mov	ecx, OFFSET ?gGlobals@@3VCvGlobals@@A	; gGlobals
	call	?GetGameProjects@CvGlobals@@QBEPAVCvProjectXMLEntries@@XZ ; CvGlobals::GetGameProjects
	mov	ecx, eax
	call	?GetEntry@CvProjectXMLEntries@@QAEPAVCvProjectEntry@@H@Z ; CvProjectXMLEntries::GetEntry

; 97   : 		if(entry)

	test	eax, eax
	je	SHORT $LN3@AddFlavorW

; 98   : 		{
; 99   : 			// Set its weight by looking at project's weight for this flavor and using iWeight multiplier passed in
; 100  : 			m_ProjectAIWeights.IncreaseWeight(iProject, entry->GetFlavorValue(eFlavor) * iWeight);

	push	ebp
	mov	ecx, eax
	call	?GetFlavorValue@CvProjectEntry@@QBEHH@Z	; CvProjectEntry::GetFlavorValue
	imul	eax, ebx
	mov	ecx, DWORD PTR [edi+4]
	add	DWORD PTR [ecx+esi*8+4], eax
	lea	ecx, DWORD PTR [ecx+esi*8+4]
$LN3@AddFlavorW:
	mov	ecx, OFFSET ?gGlobals@@3VCvGlobals@@A	; gGlobals
	inc	esi
	call	?GetGameProjects@CvGlobals@@QBEPAVCvProjectXMLEntries@@XZ ; CvGlobals::GetGameProjects
	mov	ecx, eax
	call	?GetNumProjects@CvProjectXMLEntries@@QAEHXZ ; CvProjectXMLEntries::GetNumProjects
	cmp	esi, eax
	jl	SHORT $LL4@AddFlavorW
	pop	ebp
	pop	ebx
$LN2@AddFlavorW:
	pop	edi
	pop	esi

; 101  : 		}
; 102  : 	}
; 103  : }

	ret	8
?AddFlavorWeights@CvProjectProductionAI@@QAEXW4FlavorTypes@@H@Z ENDP ; CvProjectProductionAI::AddFlavorWeights
_TEXT	ENDS
PUBLIC	?GetWeight@CvProjectProductionAI@@QAEHW4ProjectTypes@@@Z ; CvProjectProductionAI::GetWeight
; Function compile flags: /Ogtpy
;	COMDAT ?GetWeight@CvProjectProductionAI@@QAEHW4ProjectTypes@@@Z
_TEXT	SEGMENT
_elem$218897 = -8					; size = 8
_eProject$ = 8						; size = 4
?GetWeight@CvProjectProductionAI@@QAEHW4ProjectTypes@@@Z PROC ; CvProjectProductionAI::GetWeight, COMDAT
; _this$ = ecx

; 107  : {

	sub	esp, 8

; 108  : 	return m_ProjectAIWeights.GetWeight(eProject);

	mov	eax, DWORD PTR [ecx+4]
	mov	ecx, DWORD PTR _eProject$[esp+4]
	mov	edx, DWORD PTR [eax+ecx*8]
	mov	eax, DWORD PTR [eax+ecx*8+4]
	mov	DWORD PTR _elem$218897[esp+8], edx

; 109  : }

	add	esp, 8
	ret	4
?GetWeight@CvProjectProductionAI@@QAEHW4ProjectTypes@@@Z ENDP ; CvProjectProductionAI::GetWeight
_TEXT	ENDS
PUBLIC	?LogPossibleBuilds@CvProjectProductionAI@@QAEXXZ ; CvProjectProductionAI::LogPossibleBuilds
EXTRN	__imp_??Y?$basic_string@DU?$char_traits@D@std@@V?$allocator@D@2@@std@@QAEAAV01@ABV01@@Z:PROC
EXTRN	__imp_??$?HDU?$char_traits@D@std@@V?$allocator@D@1@@std@@YA?AV?$basic_string@DU?$char_traits@D@std@@V?$allocator@D@2@@0@ABV10@0@Z:PROC
EXTRN	__imp_??$?HDU?$char_traits@D@std@@V?$allocator@D@1@@std@@YA?AV?$basic_string@DU?$char_traits@D@std@@V?$allocator@D@2@@0@ABV10@PBD@Z:PROC
EXTRN	?getElapsedGameTurns@CvGame@@QBEHXZ:PROC	; CvGame::getElapsedGameTurns
EXTRN	?GetLogFileName@CvCityStrategyAI@@QBE?AVCvString@@AAV2@0@Z:PROC ; CvCityStrategyAI::GetLogFileName
EXTRN	?GetCityStrategyAI@CvCity@@QBEPAVCvCityStrategyAI@@XZ:PROC ; CvCity::GetCityStrategyAI
EXTRN	?GetInstance@FILogFileMgr@@SAAAV1@XZ:PROC	; FILogFileMgr::GetInstance
EXTRN	?getName@CvCity@@QBE?BVCvString@@XZ:PROC	; CvCity::getName
EXTRN	?getCivilizationShortDescription@CvPlayer@@QBEPBDXZ:PROC ; CvPlayer::getCivilizationShortDescription
EXTRN	?getAILogging@CvGlobals@@QAE_NXZ:PROC		; CvGlobals::getAILogging
EXTRN	?getLogging@CvGlobals@@QAE_NXZ:PROC		; CvGlobals::getLogging
;	COMDAT xdata$x
; File c:\users\enormousapplepie\documents\github\lekmod\lekmod_dll\cvgamecoredllutil\include\cvstring.h
xdata$x	SEGMENT
__ehfuncinfo$?LogPossibleBuilds@CvProjectProductionAI@@QAEXXZ DD 019930522H
	DD	0dH
	DD	FLAT:__unwindtable$?LogPossibleBuilds@CvProjectProductionAI@@QAEXXZ
	DD	2 DUP(00H)
	DD	2 DUP(00H)
	DD	00H
	DD	01H
__unwindtable$?LogPossibleBuilds@CvProjectProductionAI@@QAEXXZ DD 0ffffffffH
	DD	FLAT:__unwindfunclet$?LogPossibleBuilds@CvProjectProductionAI@@QAEXXZ$0
	DD	00H
	DD	FLAT:__unwindfunclet$?LogPossibleBuilds@CvProjectProductionAI@@QAEXXZ$1
	DD	01H
	DD	FLAT:__unwindfunclet$?LogPossibleBuilds@CvProjectProductionAI@@QAEXXZ$2
	DD	02H
	DD	FLAT:__unwindfunclet$?LogPossibleBuilds@CvProjectProductionAI@@QAEXXZ$3
	DD	03H
	DD	FLAT:__unwindfunclet$?LogPossibleBuilds@CvProjectProductionAI@@QAEXXZ$4
	DD	04H
	DD	FLAT:__unwindfunclet$?LogPossibleBuilds@CvProjectProductionAI@@QAEXXZ$5
	DD	05H
	DD	FLAT:__unwindfunclet$?LogPossibleBuilds@CvProjectProductionAI@@QAEXXZ$6
	DD	06H
	DD	FLAT:__unwindfunclet$?LogPossibleBuilds@CvProjectProductionAI@@QAEXXZ$7
	DD	06H
	DD	FLAT:__unwindfunclet$?LogPossibleBuilds@CvProjectProductionAI@@QAEXXZ$8
	DD	06H
	DD	FLAT:__unwindfunclet$?LogPossibleBuilds@CvProjectProductionAI@@QAEXXZ$9
	DD	09H
	DD	FLAT:__unwindfunclet$?LogPossibleBuilds@CvProjectProductionAI@@QAEXXZ$10
	DD	0aH
	DD	FLAT:__unwindfunclet$?LogPossibleBuilds@CvProjectProductionAI@@QAEXXZ$11
	DD	06H
	DD	FLAT:__unwindfunclet$?LogPossibleBuilds@CvProjectProductionAI@@QAEXXZ$12
; Function compile flags: /Ogtpy
; File c:\users\enormousapplepie\documents\github\lekmod\lekmod_dll\cvgamecoredll_expansion2\cvprojectproductionai.cpp
xdata$x	ENDS
;	COMDAT ?LogPossibleBuilds@CvProjectProductionAI@@QAEXXZ
_TEXT	SEGMENT
_playerName$217745 = -328				; size = 28
_strDesc$217747 = -300					; size = 28
_strBaseString$217743 = -272				; size = 28
_cityName$217746 = -244					; size = 28
_strTemp$217744 = -216					; size = 28
_strOutBuf$217742 = -188				; size = 28
$T218907 = -160						; size = 28
$T218906 = -160						; size = 28
_strLogName$217748 = -132				; size = 28
$T218913 = -104						; size = 28
$T218908 = -104						; size = 28
_elem$219086 = -76					; size = 8
$T218910 = -68						; size = 28
$T218909 = -40						; size = 28
__$EHRec$ = -12						; size = 12
?LogPossibleBuilds@CvProjectProductionAI@@QAEXXZ PROC	; CvProjectProductionAI::LogPossibleBuilds, COMDAT
; _this$ = ecx

; 159  : {

	mov	eax, DWORD PTR fs:0
	push	-1
	push	__ehhandler$?LogPossibleBuilds@CvProjectProductionAI@@QAEXXZ
	push	eax
	mov	DWORD PTR fs:0, esp
	sub	esp, 316				; 0000013cH
	push	esi
	mov	esi, ecx

; 160  : 	if(GC.getLogging() && GC.getAILogging())

	mov	ecx, OFFSET ?gGlobals@@3VCvGlobals@@A	; gGlobals
	call	?getLogging@CvGlobals@@QAE_NXZ		; CvGlobals::getLogging
	test	al, al
	je	$LN6@LogPossibl
	mov	ecx, OFFSET ?gGlobals@@3VCvGlobals@@A	; gGlobals
	call	?getAILogging@CvGlobals@@QAE_NXZ	; CvGlobals::getAILogging
	test	al, al
	je	$LN6@LogPossibl
	push	ebp

; 161  : 	{
; 162  : 		CvString strOutBuf;

	lea	ecx, DWORD PTR _strOutBuf$217742[esp+336]
	call	DWORD PTR __imp_??0?$basic_string@DU?$char_traits@D@std@@V?$allocator@D@2@@std@@QAE@XZ
	xor	ebp, ebp

; 163  : 		CvString strBaseString;

	lea	ecx, DWORD PTR _strBaseString$217743[esp+336]
	mov	DWORD PTR __$EHRec$[esp+344], ebp
	call	DWORD PTR __imp_??0?$basic_string@DU?$char_traits@D@std@@V?$allocator@D@2@@std@@QAE@XZ

; 164  : 		CvString strTemp;

	lea	ecx, DWORD PTR _strTemp$217744[esp+336]
	mov	BYTE PTR __$EHRec$[esp+344], 1
	call	DWORD PTR __imp_??0?$basic_string@DU?$char_traits@D@std@@V?$allocator@D@2@@std@@QAE@XZ

; 165  : 		CvString playerName;

	lea	ecx, DWORD PTR _playerName$217745[esp+336]
	mov	BYTE PTR __$EHRec$[esp+344], 2
	call	DWORD PTR __imp_??0?$basic_string@DU?$char_traits@D@std@@V?$allocator@D@2@@std@@QAE@XZ

; 166  : 		CvString cityName;

	lea	ecx, DWORD PTR _cityName$217746[esp+336]
	mov	BYTE PTR __$EHRec$[esp+344], 3
	call	DWORD PTR __imp_??0?$basic_string@DU?$char_traits@D@std@@V?$allocator@D@2@@std@@QAE@XZ

; 167  : 		CvString strDesc;

	lea	ecx, DWORD PTR _strDesc$217747[esp+336]
	mov	BYTE PTR __$EHRec$[esp+344], 4
	call	DWORD PTR __imp_??0?$basic_string@DU?$char_traits@D@std@@V?$allocator@D@2@@std@@QAE@XZ

; 168  : 		CvString strLogName;

	lea	ecx, DWORD PTR _strLogName$217748[esp+336]
	mov	BYTE PTR __$EHRec$[esp+344], 5
	call	DWORD PTR __imp_??0?$basic_string@DU?$char_traits@D@std@@V?$allocator@D@2@@std@@QAE@XZ

; 169  : 
; 170  : 		CvAssert(m_pCity);
; 171  : 		if(!m_pCity) return;

	mov	eax, DWORD PTR [esi]
	mov	BYTE PTR __$EHRec$[esp+344], 6
	cmp	eax, ebp
	jne	$LN5@LogPossibl
	lea	ecx, DWORD PTR _strLogName$217748[esp+336]
	mov	BYTE PTR __$EHRec$[esp+344], 5
	call	DWORD PTR __imp_??1?$basic_string@DU?$char_traits@D@std@@V?$allocator@D@2@@std@@QAE@XZ
	lea	ecx, DWORD PTR _strDesc$217747[esp+336]
	mov	BYTE PTR __$EHRec$[esp+344], 4
	call	DWORD PTR __imp_??1?$basic_string@DU?$char_traits@D@std@@V?$allocator@D@2@@std@@QAE@XZ
	lea	ecx, DWORD PTR _cityName$217746[esp+336]
	mov	BYTE PTR __$EHRec$[esp+344], 3
	call	DWORD PTR __imp_??1?$basic_string@DU?$char_traits@D@std@@V?$allocator@D@2@@std@@QAE@XZ
	lea	ecx, DWORD PTR _playerName$217745[esp+336]
	mov	BYTE PTR __$EHRec$[esp+344], 2
	call	DWORD PTR __imp_??1?$basic_string@DU?$char_traits@D@std@@V?$allocator@D@2@@std@@QAE@XZ
	lea	ecx, DWORD PTR _strTemp$217744[esp+336]
	mov	BYTE PTR __$EHRec$[esp+344], 1
	call	DWORD PTR __imp_??1?$basic_string@DU?$char_traits@D@std@@V?$allocator@D@2@@std@@QAE@XZ
	lea	ecx, DWORD PTR _strBaseString$217743[esp+336]
	mov	BYTE PTR __$EHRec$[esp+344], 0
	call	DWORD PTR __imp_??1?$basic_string@DU?$char_traits@D@std@@V?$allocator@D@2@@std@@QAE@XZ
	lea	ecx, DWORD PTR _strOutBuf$217742[esp+336]
	mov	DWORD PTR __$EHRec$[esp+344], -1
	call	DWORD PTR __imp_??1?$basic_string@DU?$char_traits@D@std@@V?$allocator@D@2@@std@@QAE@XZ
	pop	ebp
	pop	esi

; 198  : }

	mov	ecx, DWORD PTR __$EHRec$[esp+328]
	mov	DWORD PTR fs:0, ecx
	add	esp, 328				; 00000148H
	ret	0
$LN5@LogPossibl:

; 172  : 
; 173  : 		// Find the name of this civ and city
; 174  : 		playerName = GET_PLAYER(m_pCity->getOwner()).getCivilizationShortDescription();

	mov	eax, DWORD PTR [eax+84]
	imul	eax, 63236				; 0000f704H
	add	eax, DWORD PTR ?m_aPlayers@CvPlayerAI@@1PAV1@A ; CvPlayerAI::m_aPlayers
	mov	ecx, eax
	call	?getCivilizationShortDescription@CvPlayer@@QBEPBDXZ ; CvPlayer::getCivilizationShortDescription
	lea	ecx, DWORD PTR _playerName$217745[esp+336]
	cmp	eax, ebp
	je	SHORT $LN73@LogPossibl
	push	eax
	call	DWORD PTR __imp_?assign@?$basic_string@DU?$char_traits@D@std@@V?$allocator@D@2@@std@@QAEAAV12@PBD@Z
	jmp	SHORT $LN72@LogPossibl
$LN73@LogPossibl:
	call	DWORD PTR __imp_?clear@?$basic_string@DU?$char_traits@D@std@@V?$allocator@D@2@@std@@QAEXXZ
$LN72@LogPossibl:

; 175  : 		cityName = m_pCity->getName();

	mov	ecx, DWORD PTR [esi]
	push	ebx
	push	edi
	lea	eax, DWORD PTR $T218906[esp+344]
	push	eax
	call	?getName@CvCity@@QBE?BVCvString@@XZ	; CvCity::getName
	push	eax
	lea	ecx, DWORD PTR _cityName$217746[esp+348]
	mov	BYTE PTR __$EHRec$[esp+356], 7
	call	DWORD PTR __imp_??4?$basic_string@DU?$char_traits@D@std@@V?$allocator@D@2@@std@@QAEAAV01@ABV01@@Z
	lea	ecx, DWORD PTR $T218906[esp+344]
	mov	BYTE PTR __$EHRec$[esp+352], 6
	call	DWORD PTR __imp_??1?$basic_string@DU?$char_traits@D@std@@V?$allocator@D@2@@std@@QAE@XZ

; 176  : 
; 177  : 		// Open the log file
; 178  : 		FILogFile* pLog;
; 179  : 		pLog = LOGFILEMGR.GetLog(m_pCity->GetCityStrategyAI()->GetLogFileName(playerName, cityName), FILogFile::kDontTimeStamp);

	call	?GetInstance@FILogFileMgr@@SAAAV1@XZ	; FILogFileMgr::GetInstance
	lea	ecx, DWORD PTR _cityName$217746[esp+344]
	push	ecx
	mov	ecx, DWORD PTR [esi]
	lea	edx, DWORD PTR _playerName$217745[esp+348]
	mov	edi, eax
	push	edx
	lea	eax, DWORD PTR $T218907[esp+352]
	push	eax
	call	?GetCityStrategyAI@CvCity@@QBEPAVCvCityStrategyAI@@XZ ; CvCity::GetCityStrategyAI
	mov	ecx, eax
	call	?GetLogFileName@CvCityStrategyAI@@QBE?AVCvString@@AAV2@0@Z ; CvCityStrategyAI::GetLogFileName
	mov	ecx, eax
	mov	BYTE PTR __$EHRec$[esp+352], 8
	call	DWORD PTR __imp_?c_str@?$basic_string@DU?$char_traits@D@std@@V?$allocator@D@2@@std@@QBEPBDXZ
	mov	edx, DWORD PTR [edi]
	push	ebp
	push	1
	push	eax
	mov	eax, DWORD PTR [edx+12]
	mov	ecx, edi
	call	eax
	lea	ecx, DWORD PTR $T218907[esp+344]
	mov	ebx, eax
	mov	BYTE PTR __$EHRec$[esp+352], 6
	call	DWORD PTR __imp_??1?$basic_string@DU?$char_traits@D@std@@V?$allocator@D@2@@std@@QAE@XZ

; 180  : 		CvAssert(pLog);
; 181  : 		if(!pLog) return;

	cmp	ebx, ebp
	je	$LN1@LogPossibl

; 182  : 
; 183  : 		// Get the leading info for this line
; 184  : 		strBaseString.Format("%03d, ", GC.getGame().getElapsedGameTurns());

	mov	ecx, DWORD PTR ?gGlobals@@3VCvGlobals@@A+48
	call	?getElapsedGameTurns@CvGame@@QBEHXZ	; CvGame::getElapsedGameTurns
	push	eax
	lea	ecx, DWORD PTR _strBaseString$217743[esp+348]
	push	OFFSET $SG217754
	push	ecx
	call	?Format@CvString@@QAAXPBDZZ		; CvString::Format

; 185  : 		strBaseString += playerName + ", " + cityName + ", ";

	mov	edi, DWORD PTR __imp_??$?HDU?$char_traits@D@std@@V?$allocator@D@1@@std@@YA?AV?$basic_string@DU?$char_traits@D@std@@V?$allocator@D@2@@0@ABV10@PBD@Z
	push	OFFSET $SG217759
	lea	edx, DWORD PTR _playerName$217745[esp+360]
	push	edx
	lea	eax, DWORD PTR $T218908[esp+364]
	push	eax
	call	edi
	lea	ecx, DWORD PTR _cityName$217746[esp+368]
	push	ecx
	push	eax
	lea	edx, DWORD PTR $T218909[esp+376]
	push	edx
	mov	BYTE PTR __$EHRec$[esp+388], 9
	call	DWORD PTR __imp_??$?HDU?$char_traits@D@std@@V?$allocator@D@1@@std@@YA?AV?$basic_string@DU?$char_traits@D@std@@V?$allocator@D@2@@0@ABV10@0@Z
	push	OFFSET $SG217758
	push	eax
	lea	eax, DWORD PTR $T218910[esp+388]
	push	eax
	mov	BYTE PTR __$EHRec$[esp+400], 10		; 0000000aH
	call	edi
	add	esp, 48					; 00000030H
	push	eax
	lea	ecx, DWORD PTR _strBaseString$217743[esp+348]
	mov	BYTE PTR __$EHRec$[esp+356], 11		; 0000000bH
	call	DWORD PTR __imp_??Y?$basic_string@DU?$char_traits@D@std@@V?$allocator@D@2@@std@@QAEAAV01@ABV01@@Z
	lea	ecx, DWORD PTR $T218910[esp+344]
	mov	BYTE PTR __$EHRec$[esp+352], 10		; 0000000aH
	call	DWORD PTR __imp_??1?$basic_string@DU?$char_traits@D@std@@V?$allocator@D@2@@std@@QAE@XZ
	lea	ecx, DWORD PTR $T218909[esp+344]
	mov	BYTE PTR __$EHRec$[esp+352], 9
	call	DWORD PTR __imp_??1?$basic_string@DU?$char_traits@D@std@@V?$allocator@D@2@@std@@QAE@XZ
	lea	ecx, DWORD PTR $T218908[esp+344]
	mov	BYTE PTR __$EHRec$[esp+352], 6
	call	DWORD PTR __imp_??1?$basic_string@DU?$char_traits@D@std@@V?$allocator@D@2@@std@@QAE@XZ

; 186  : 
; 187  : 		// Dump out the weight of each buildable item
; 188  : 		for(int iI = 0; iI < m_Buildables.size(); iI++)

	cmp	DWORD PTR [esi+168], ebp
	jle	$LN1@LogPossibl
	npad	13
$LL3@LogPossibl:
	mov	eax, DWORD PTR [esi+164]
	lea	edi, DWORD PTR [ebp*8]

; 189  : 		{
; 190  : 			CvProjectEntry* pProjectEntry = GC.GetGameProjects()->GetEntry(m_Buildables.GetElement(iI));

	mov	ecx, DWORD PTR [eax+edi]
	add	eax, edi
	push	ecx
	mov	ecx, OFFSET ?gGlobals@@3VCvGlobals@@A	; gGlobals
	call	?GetGameProjects@CvGlobals@@QBEPAVCvProjectXMLEntries@@XZ ; CvGlobals::GetGameProjects
	mov	ecx, eax
	call	?GetEntry@CvProjectXMLEntries@@QAEPAVCvProjectEntry@@H@Z ; CvProjectXMLEntries::GetEntry

; 191  : 
; 192  : 			strDesc = (pProjectEntry != NULL)? pProjectEntry->GetDescription() : "Unknown";

	test	eax, eax
	je	SHORT $LN9@LogPossibl
	lea	ecx, DWORD PTR [eax+36]
	call	DWORD PTR __imp_?c_str@?$basic_string@DU?$char_traits@D@std@@V?$allocator@D@2@@std@@QBEPBDXZ
	test	eax, eax
	je	SHORT $LN120@LogPossibl
	push	eax
	lea	ecx, DWORD PTR _strDesc$217747[esp+348]
	call	DWORD PTR __imp_?assign@?$basic_string@DU?$char_traits@D@std@@V?$allocator@D@2@@std@@QAEAAV12@PBD@Z
	jmp	SHORT $LN119@LogPossibl
$LN9@LogPossibl:
	mov	eax, OFFSET $SG217765
	push	eax
	lea	ecx, DWORD PTR _strDesc$217747[esp+348]
	call	DWORD PTR __imp_?assign@?$basic_string@DU?$char_traits@D@std@@V?$allocator@D@2@@std@@QAEAAV12@PBD@Z
	jmp	SHORT $LN119@LogPossibl
$LN120@LogPossibl:
	lea	ecx, DWORD PTR _strDesc$217747[esp+344]
	call	DWORD PTR __imp_?clear@?$basic_string@DU?$char_traits@D@std@@V?$allocator@D@2@@std@@QAEXXZ
$LN119@LogPossibl:

; 193  : 			strTemp.Format("Project, %s, %d", strDesc.GetCString(), m_Buildables.GetWeight(iI));

	mov	eax, DWORD PTR [esi+164]
	mov	edx, DWORD PTR [edi+eax]
	mov	eax, DWORD PTR [edi+eax+4]
	push	eax
	lea	ecx, DWORD PTR _strDesc$217747[esp+348]
	mov	DWORD PTR _elem$219086[esp+348], edx
	call	DWORD PTR __imp_?c_str@?$basic_string@DU?$char_traits@D@std@@V?$allocator@D@2@@std@@QBEPBDXZ
	push	eax
	lea	eax, DWORD PTR _strTemp$217744[esp+352]
	push	OFFSET $SG217766
	push	eax
	call	?Format@CvString@@QAAXPBDZZ		; CvString::Format

; 194  : 			strOutBuf = strBaseString + strTemp;

	lea	ecx, DWORD PTR _strTemp$217744[esp+360]
	push	ecx
	lea	edx, DWORD PTR _strBaseString$217743[esp+364]
	push	edx
	lea	eax, DWORD PTR $T218913[esp+368]
	push	eax
	call	DWORD PTR __imp_??$?HDU?$char_traits@D@std@@V?$allocator@D@1@@std@@YA?AV?$basic_string@DU?$char_traits@D@std@@V?$allocator@D@2@@0@ABV10@0@Z
	add	esp, 28					; 0000001cH
	mov	ecx, eax
	mov	BYTE PTR __$EHRec$[esp+352], 12		; 0000000cH
	call	DWORD PTR __imp_?c_str@?$basic_string@DU?$char_traits@D@std@@V?$allocator@D@2@@std@@QBEPBDXZ
	push	eax
	lea	ecx, DWORD PTR _strOutBuf$217742[esp+348]
	call	DWORD PTR __imp_?assign@?$basic_string@DU?$char_traits@D@std@@V?$allocator@D@2@@std@@QAEAAV12@PBD@Z
	lea	ecx, DWORD PTR $T218913[esp+344]
	mov	BYTE PTR __$EHRec$[esp+352], 6
	call	DWORD PTR __imp_??1?$basic_string@DU?$char_traits@D@std@@V?$allocator@D@2@@std@@QAE@XZ

; 195  : 			pLog->Msg(strOutBuf);

	lea	ecx, DWORD PTR _strOutBuf$217742[esp+344]
	call	DWORD PTR __imp_?c_str@?$basic_string@DU?$char_traits@D@std@@V?$allocator@D@2@@std@@QBEPBDXZ
	mov	ecx, DWORD PTR [ebx]
	mov	edx, DWORD PTR [ecx]
	push	eax
	push	ebx
	call	edx
	inc	ebp
	add	esp, 8
	cmp	ebp, DWORD PTR [esi+168]
	jl	$LL3@LogPossibl
$LN1@LogPossibl:

; 196  : 		}
; 197  : 	}

	lea	ecx, DWORD PTR _strLogName$217748[esp+344]
	mov	BYTE PTR __$EHRec$[esp+352], 5
	call	DWORD PTR __imp_??1?$basic_string@DU?$char_traits@D@std@@V?$allocator@D@2@@std@@QAE@XZ
	lea	ecx, DWORD PTR _strDesc$217747[esp+344]
	mov	BYTE PTR __$EHRec$[esp+352], 4
	call	DWORD PTR __imp_??1?$basic_string@DU?$char_traits@D@std@@V?$allocator@D@2@@std@@QAE@XZ
	lea	ecx, DWORD PTR _cityName$217746[esp+344]
	mov	BYTE PTR __$EHRec$[esp+352], 3
	call	DWORD PTR __imp_??1?$basic_string@DU?$char_traits@D@std@@V?$allocator@D@2@@std@@QAE@XZ
	lea	ecx, DWORD PTR _playerName$217745[esp+344]
	mov	BYTE PTR __$EHRec$[esp+352], 2
	call	DWORD PTR __imp_??1?$basic_string@DU?$char_traits@D@std@@V?$allocator@D@2@@std@@QAE@XZ
	lea	ecx, DWORD PTR _strTemp$217744[esp+344]
	mov	BYTE PTR __$EHRec$[esp+352], 1
	call	DWORD PTR __imp_??1?$basic_string@DU?$char_traits@D@std@@V?$allocator@D@2@@std@@QAE@XZ
	lea	ecx, DWORD PTR _strBaseString$217743[esp+344]
	mov	BYTE PTR __$EHRec$[esp+352], 0
	call	DWORD PTR __imp_??1?$basic_string@DU?$char_traits@D@std@@V?$allocator@D@2@@std@@QAE@XZ
	lea	ecx, DWORD PTR _strOutBuf$217742[esp+344]
	mov	DWORD PTR __$EHRec$[esp+352], -1
	call	DWORD PTR __imp_??1?$basic_string@DU?$char_traits@D@std@@V?$allocator@D@2@@std@@QAE@XZ
	pop	edi
	pop	ebx
	pop	ebp
$LN6@LogPossibl:

; 198  : }

	mov	ecx, DWORD PTR __$EHRec$[esp+332]
	pop	esi
	mov	DWORD PTR fs:0, ecx
	add	esp, 328				; 00000148H
	ret	0
_TEXT	ENDS
;	COMDAT text$x
text$x	SEGMENT
__unwindfunclet$?LogPossibleBuilds@CvProjectProductionAI@@QAEXXZ$0:
	lea	ecx, DWORD PTR _strOutBuf$217742[ebp]
	jmp	??1CvString@@QAE@XZ			; CvString::~CvString
__unwindfunclet$?LogPossibleBuilds@CvProjectProductionAI@@QAEXXZ$1:
	lea	ecx, DWORD PTR _strBaseString$217743[ebp]
	jmp	??1CvString@@QAE@XZ			; CvString::~CvString
__unwindfunclet$?LogPossibleBuilds@CvProjectProductionAI@@QAEXXZ$2:
	lea	ecx, DWORD PTR _strTemp$217744[ebp]
	jmp	??1CvString@@QAE@XZ			; CvString::~CvString
__unwindfunclet$?LogPossibleBuilds@CvProjectProductionAI@@QAEXXZ$3:
	lea	ecx, DWORD PTR _playerName$217745[ebp]
	jmp	??1CvString@@QAE@XZ			; CvString::~CvString
__unwindfunclet$?LogPossibleBuilds@CvProjectProductionAI@@QAEXXZ$4:
	lea	ecx, DWORD PTR _cityName$217746[ebp]
	jmp	??1CvString@@QAE@XZ			; CvString::~CvString
__unwindfunclet$?LogPossibleBuilds@CvProjectProductionAI@@QAEXXZ$5:
	lea	ecx, DWORD PTR _strDesc$217747[ebp]
	jmp	??1CvString@@QAE@XZ			; CvString::~CvString
__unwindfunclet$?LogPossibleBuilds@CvProjectProductionAI@@QAEXXZ$6:
	lea	ecx, DWORD PTR _strLogName$217748[ebp]
	jmp	??1CvString@@QAE@XZ			; CvString::~CvString
__unwindfunclet$?LogPossibleBuilds@CvProjectProductionAI@@QAEXXZ$7:
	lea	ecx, DWORD PTR $T218906[ebp]
	jmp	??1CvString@@QAE@XZ			; CvString::~CvString
__unwindfunclet$?LogPossibleBuilds@CvProjectProductionAI@@QAEXXZ$8:
	lea	ecx, DWORD PTR $T218907[ebp]
	jmp	??1CvString@@QAE@XZ			; CvString::~CvString
__unwindfunclet$?LogPossibleBuilds@CvProjectProductionAI@@QAEXXZ$9:
	lea	ecx, DWORD PTR $T218908[ebp]
	jmp	DWORD PTR __imp_??1?$basic_string@DU?$char_traits@D@std@@V?$allocator@D@2@@std@@QAE@XZ
__unwindfunclet$?LogPossibleBuilds@CvProjectProductionAI@@QAEXXZ$10:
	lea	ecx, DWORD PTR $T218909[ebp]
	jmp	DWORD PTR __imp_??1?$basic_string@DU?$char_traits@D@std@@V?$allocator@D@2@@std@@QAE@XZ
__unwindfunclet$?LogPossibleBuilds@CvProjectProductionAI@@QAEXXZ$11:
	lea	ecx, DWORD PTR $T218910[ebp]
	jmp	DWORD PTR __imp_??1?$basic_string@DU?$char_traits@D@std@@V?$allocator@D@2@@std@@QAE@XZ
__unwindfunclet$?LogPossibleBuilds@CvProjectProductionAI@@QAEXXZ$12:
	lea	ecx, DWORD PTR $T218913[ebp]
	jmp	DWORD PTR __imp_??1?$basic_string@DU?$char_traits@D@std@@V?$allocator@D@2@@std@@QAE@XZ
__ehhandler$?LogPossibleBuilds@CvProjectProductionAI@@QAEXXZ:
	mov	eax, OFFSET __ehfuncinfo$?LogPossibleBuilds@CvProjectProductionAI@@QAEXXZ
	jmp	___CxxFrameHandler3
text$x	ENDS
?LogPossibleBuilds@CvProjectProductionAI@@QAEXXZ ENDP	; CvProjectProductionAI::LogPossibleBuilds
PUBLIC	?clear@?$CvWeightedVector@H$0BC@$00@@QAEXXZ	; CvWeightedVector<int,18,1>::clear
; Function compile flags: /Ogtpy
; File c:\users\enormousapplepie\documents\github\lekmod\lekmod_dll\cvgamecoredllutil\include\cvweightedvector.h
;	COMDAT ?clear@?$CvWeightedVector@H$0BC@$00@@QAEXXZ
_TEXT	SEGMENT
?clear@?$CvWeightedVector@H$0BC@$00@@QAEXXZ PROC	; CvWeightedVector<int,18,1>::clear, COMDAT
; _this$ = ecx

; 116  : 		m_pItems.clear();

	mov	DWORD PTR [ecx+4], 0

; 117  : 	};

	ret	0
?clear@?$CvWeightedVector@H$0BC@$00@@QAEXXZ ENDP	; CvWeightedVector<int,18,1>::clear
_TEXT	ENDS
PUBLIC	??1?$FStaticVector@UWeightedElement@?$CvWeightedVector@H$0BC@$00@@$0BC@$00$0A@$0A@@@QAE@XZ ; FStaticVector<CvWeightedVector<int,18,1>::WeightedElement,18,1,0,0>::~FStaticVector<CvWeightedVector<int,18,1>::WeightedElement,18,1,0,0>
; Function compile flags: /Ogtpy
; File c:\users\enormousapplepie\documents\github\lekmod\lekmod_dll\fireplace\include\fireworks\ffastvector.h
;	COMDAT ??1?$FStaticVector@UWeightedElement@?$CvWeightedVector@H$0BC@$00@@$0BC@$00$0A@$0A@@@QAE@XZ
_TEXT	SEGMENT
??1?$FStaticVector@UWeightedElement@?$CvWeightedVector@H$0BC@$00@@$0BC@$00$0A@$0A@@@QAE@XZ PROC ; FStaticVector<CvWeightedVector<int,18,1>::WeightedElement,18,1,0,0>::~FStaticVector<CvWeightedVector<int,18,1>::WeightedElement,18,1,0,0>, COMDAT
; _this$ = ecx

; 618  : 		Free(m_pData, m_uiCurrSize);

	mov	eax, DWORD PTR [ecx]
	add	ecx, 12					; 0000000cH
	cmp	eax, ecx
	je	SHORT $LN3@FStaticVec
	push	eax
	call	?FireFreeAlignedNoTracking@@YAXPAX@Z	; FireFreeAlignedNoTracking
	pop	ecx
$LN3@FStaticVec:

; 619  : 	};

	ret	0
??1?$FStaticVector@UWeightedElement@?$CvWeightedVector@H$0BC@$00@@$0BC@$00$0A@$0A@@@QAE@XZ ENDP ; FStaticVector<CvWeightedVector<int,18,1>::WeightedElement,18,1,0,0>::~FStaticVector<CvWeightedVector<int,18,1>::WeightedElement,18,1,0,0>
_TEXT	ENDS
PUBLIC	?GrowSize@?$FStaticVector@UWeightedElement@?$CvWeightedVector@H$0BC@$00@@$0BC@$00$0A@$0A@@@IAEXI@Z ; FStaticVector<CvWeightedVector<int,18,1>::WeightedElement,18,1,0,0>::GrowSize
EXTRN	_memcpy:PROC
; Function compile flags: /Ogtpy
;	COMDAT ?GrowSize@?$FStaticVector@UWeightedElement@?$CvWeightedVector@H$0BC@$00@@$0BC@$00$0A@$0A@@@IAEXI@Z
_TEXT	SEGMENT
_uiFit$ = 8						; size = 4
?GrowSize@?$FStaticVector@UWeightedElement@?$CvWeightedVector@H$0BC@$00@@$0BC@$00$0A@$0A@@@IAEXI@Z PROC ; FStaticVector<CvWeightedVector<int,18,1>::WeightedElement,18,1,0,0>::GrowSize, COMDAT
; _this$ = ecx

; 744  : 	{

	push	esi
	mov	esi, ecx

; 745  : 		if( m_uiCurrMaxSize == 0 ) m_uiCurrMaxSize = 1;

	cmp	DWORD PTR [esi+8], 0
	push	edi
	jne	SHORT $LN33@GrowSize
	mov	DWORD PTR [esi+8], 1
$LN33@GrowSize:

; 746  : 		while( uiFit >= m_uiCurrMaxSize ){

	mov	edx, DWORD PTR _uiFit$[esp+4]
	cmp	edx, DWORD PTR [esi+8]
	jb	SHORT $LN7@GrowSize
	npad	6
$LL8@GrowSize:

; 747  : 
; 748  : 			//Try to double size...
; 749  : 			UINT uiNewSize = m_uiCurrMaxSize<<1;

	mov	eax, DWORD PTR [esi+8]
	lea	ecx, DWORD PTR [eax+eax]

; 750  : 
; 751  : 			//...on overflow bail and set to exact size
; 752  : 			if( uiNewSize < m_uiCurrMaxSize ){

	cmp	ecx, eax
	jb	SHORT $LN34@GrowSize

; 754  : 				break;
; 755  : 			}
; 756  : 
; 757  : 			//...otherwise use the doubled size
; 758  : 			m_uiCurrMaxSize = uiNewSize;

	mov	DWORD PTR [esi+8], ecx
	cmp	edx, ecx
	jae	SHORT $LL8@GrowSize

; 750  : 
; 751  : 			//...on overflow bail and set to exact size
; 752  : 			if( uiNewSize < m_uiCurrMaxSize ){

	jmp	SHORT $LN7@GrowSize
$LN34@GrowSize:

; 753  : 				m_uiCurrMaxSize = uiFit;

	mov	DWORD PTR [esi+8], edx
$LN7@GrowSize:
	push	ebp

; 759  : 		}
; 760  : 
; 761  : 		T* pTemp = Alloc(m_uiCurrMaxSize);

	mov	ebp, DWORD PTR [esi+8]
	cmp	ebp, 18					; 00000012H
	jbe	SHORT $LN16@GrowSize
	push	798					; 0000031eH
	push	OFFSET ??_C@_0GH@ECFAPJEJ@c?3?2users?2enormousapplepie?2docume@
	lea	eax, DWORD PTR [ebp*8]
	push	4
	push	eax
	call	?FireMallocAlignedNoTracking@@YAPAXIIPBDH@Z ; FireMallocAlignedNoTracking
	add	esp, 16					; 00000010H
	mov	edi, eax
	mov	DWORD PTR [esi+8], ebp
	jmp	SHORT $LN15@GrowSize
$LN16@GrowSize:
	lea	edi, DWORD PTR [esi+12]
	mov	DWORD PTR [esi+8], 18			; 00000012H
$LN15@GrowSize:

; 762  : 		if( bPODType ){
; 763  : 			memcpy( (void*)pTemp, (void*)m_pData, sizeof(T)*m_uiCurrSize);

	mov	ecx, DWORD PTR [esi+4]
	mov	edx, DWORD PTR [esi]
	add	ecx, ecx
	add	ecx, ecx
	add	ecx, ecx
	push	ecx
	push	edx
	push	edi
	call	_memcpy

; 764  : 		}else{
; 765  : 			for(unsigned int i = 0; i < m_uiCurrSize; ++i)
; 766  : 				new( (void*)&(pTemp[i]) )T( m_pData[i]);
; 767  : 		}
; 768  : 		Free(m_pData, m_uiCurrSize);

	mov	eax, DWORD PTR [esi]
	add	esp, 12					; 0000000cH
	lea	ecx, DWORD PTR [esi+12]
	pop	ebp
	cmp	eax, ecx
	je	SHORT $LN36@GrowSize
	push	eax
	call	?FireFreeAlignedNoTracking@@YAXPAX@Z	; FireFreeAlignedNoTracking
	add	esp, 4
$LN36@GrowSize:

; 769  : 		m_pData = pTemp;

	mov	DWORD PTR [esi], edi
	pop	edi

; 770  : 
; 771  : 		m_bIsResized = true;

	mov	BYTE PTR [esi+156], 1
	pop	esi

; 772  : 	};

	ret	4
?GrowSize@?$FStaticVector@UWeightedElement@?$CvWeightedVector@H$0BC@$00@@$0BC@$00$0A@$0A@@@IAEXI@Z ENDP ; FStaticVector<CvWeightedVector<int,18,1>::WeightedElement,18,1,0,0>::GrowSize
_TEXT	ENDS
PUBLIC	??$_Median@PAUWeightedElement@?$CvWeightedVector@H$0BC@$00@@@std@@YAXPAUWeightedElement@?$CvWeightedVector@H$0BC@$00@@00@Z ; std::_Median<CvWeightedVector<int,18,1>::WeightedElement *>
; Function compile flags: /Ogtpy
; File c:\program files (x86)\microsoft visual studio 9.0\vc\include\algorithm
;	COMDAT ??$_Median@PAUWeightedElement@?$CvWeightedVector@H$0BC@$00@@@std@@YAXPAUWeightedElement@?$CvWeightedVector@H$0BC@$00@@00@Z
_TEXT	SEGMENT
tv200 = 8						; size = 4
__First$ = 8						; size = 4
__Mid$ = 12						; size = 4
tv203 = 16						; size = 4
__Last$ = 16						; size = 4
??$_Median@PAUWeightedElement@?$CvWeightedVector@H$0BC@$00@@@std@@YAXPAUWeightedElement@?$CvWeightedVector@H$0BC@$00@@00@Z PROC ; std::_Median<CvWeightedVector<int,18,1>::WeightedElement *>, COMDAT

; 3010 : 	if (40 < _Last - _First)

	mov	ecx, DWORD PTR __First$[esp-4]
	push	esi
	mov	esi, DWORD PTR __Last$[esp]
	mov	eax, esi
	sub	eax, ecx
	sar	eax, 3
	cmp	eax, 40					; 00000028H
	jle	SHORT $LN2@Median

; 3011 : 		{	// median of nine
; 3012 : 		size_t _Step = (_Last - _First + 1) / 8;

	inc	eax
	cdq
	push	ebx
	and	edx, 7
	add	eax, edx
	push	ebp
	push	edi
	sar	eax, 3

; 3013 : 		std::_Med3(_First, _First + _Step, _First + 2 * _Step);

	mov	edi, eax
	shl	edi, 4
	lea	ebx, DWORD PTR [eax*8]
	lea	edx, DWORD PTR [edi+ecx]
	lea	eax, DWORD PTR [ebx+ecx]
	push	edx
	push	eax
	push	ecx
	mov	DWORD PTR tv200[esp+24], eax
	call	??$_Med3@PAUWeightedElement@?$CvWeightedVector@H$0BC@$00@@@std@@YAXPAUWeightedElement@?$CvWeightedVector@H$0BC@$00@@00@Z ; std::_Med3<CvWeightedVector<int,18,1>::WeightedElement *>

; 3014 : 		std::_Med3(_Mid - _Step, _Mid, _Mid + _Step);

	mov	ebp, DWORD PTR __Mid$[esp+24]
	lea	eax, DWORD PTR [ebx+ebp]
	push	eax
	mov	ecx, ebp
	sub	ecx, ebx
	push	ebp
	push	ecx
	call	??$_Med3@PAUWeightedElement@?$CvWeightedVector@H$0BC@$00@@@std@@YAXPAUWeightedElement@?$CvWeightedVector@H$0BC@$00@@00@Z ; std::_Med3<CvWeightedVector<int,18,1>::WeightedElement *>

; 3015 : 		std::_Med3(_Last - 2 * _Step, _Last - _Step, _Last);

	mov	eax, esi
	sub	eax, ebx
	push	esi
	push	eax
	sub	esi, edi
	push	esi
	mov	DWORD PTR tv203[esp+48], eax
	call	??$_Med3@PAUWeightedElement@?$CvWeightedVector@H$0BC@$00@@@std@@YAXPAUWeightedElement@?$CvWeightedVector@H$0BC@$00@@00@Z ; std::_Med3<CvWeightedVector<int,18,1>::WeightedElement *>

; 3016 : 		std::_Med3(_First + _Step, _Mid, _Last - _Step);

	mov	edx, DWORD PTR tv203[esp+48]
	mov	eax, DWORD PTR tv200[esp+48]
	push	edx
	push	ebp
	push	eax
	call	??$_Med3@PAUWeightedElement@?$CvWeightedVector@H$0BC@$00@@@std@@YAXPAUWeightedElement@?$CvWeightedVector@H$0BC@$00@@00@Z ; std::_Med3<CvWeightedVector<int,18,1>::WeightedElement *>
	add	esp, 48					; 00000030H
	pop	edi
	pop	ebp
	pop	ebx
	pop	esi

; 3020 : 	}

	ret	0
$LN2@Median:

; 3017 : 		}
; 3018 : 	else
; 3019 : 		std::_Med3(_First, _Mid, _Last);

	mov	edx, DWORD PTR __Mid$[esp]
	push	esi
	push	edx
	push	ecx
	call	??$_Med3@PAUWeightedElement@?$CvWeightedVector@H$0BC@$00@@@std@@YAXPAUWeightedElement@?$CvWeightedVector@H$0BC@$00@@00@Z ; std::_Med3<CvWeightedVector<int,18,1>::WeightedElement *>
	add	esp, 12					; 0000000cH
	pop	esi

; 3020 : 	}

	ret	0
??$_Median@PAUWeightedElement@?$CvWeightedVector@H$0BC@$00@@@std@@YAXPAUWeightedElement@?$CvWeightedVector@H$0BC@$00@@00@Z ENDP ; std::_Median<CvWeightedVector<int,18,1>::WeightedElement *>
_TEXT	ENDS
PUBLIC	??$_Make_heap@PAUWeightedElement@?$CvWeightedVector@H$0BC@$00@@HU12@@std@@YAXPAUWeightedElement@?$CvWeightedVector@H$0BC@$00@@0PAH0@Z ; std::_Make_heap<CvWeightedVector<int,18,1>::WeightedElement *,int,CvWeightedVector<int,18,1>::WeightedElement>
; Function compile flags: /Ogtpy
;	COMDAT ??$_Make_heap@PAUWeightedElement@?$CvWeightedVector@H$0BC@$00@@HU12@@std@@YAXPAUWeightedElement@?$CvWeightedVector@H$0BC@$00@@0PAH0@Z
_TEXT	SEGMENT
__First$ = 8						; size = 4
__Last$ = 12						; size = 4
___formal$ = 16						; size = 4
___formal$ = 20						; size = 4
??$_Make_heap@PAUWeightedElement@?$CvWeightedVector@H$0BC@$00@@HU12@@std@@YAXPAUWeightedElement@?$CvWeightedVector@H$0BC@$00@@0PAH0@Z PROC ; std::_Make_heap<CvWeightedVector<int,18,1>::WeightedElement *,int,CvWeightedVector<int,18,1>::WeightedElement>, COMDAT

; 2164 : 	{	// make nontrivial [_First, _Last) into a heap, using operator<

	push	ebx

; 2165 : 	_Diff _Bottom = _Last - _First;

	mov	ebx, DWORD PTR __Last$[esp]
	push	esi
	push	edi
	mov	edi, DWORD PTR __First$[esp+8]
	sub	ebx, edi
	sar	ebx, 3

; 2166 : 
; 2167 : 	for (_Diff _Hole = _Bottom / 2; 0 < _Hole; )

	mov	eax, ebx
	cdq
	sub	eax, edx
	mov	esi, eax
	sar	esi, 1
	test	esi, esi
	jle	SHORT $LN1@Make_heap
	npad	3
$LL2@Make_heap:

; 2168 : 		{	// reheap top half, bottom to top
; 2169 : 		--_Hole;
; 2170 : 		std::_Adjust_heap(_First, _Hole, _Bottom,
; 2171 : 			_Ty(*(_First + _Hole)));

	mov	ecx, DWORD PTR [edi+esi*8-8]
	sub	esp, 8
	mov	eax, esp
	dec	esi
	push	ebx
	mov	DWORD PTR [eax], ecx
	mov	edx, DWORD PTR [edi+esi*8+4]
	push	esi
	push	edi
	mov	DWORD PTR [eax+4], edx
	call	??$_Adjust_heap@PAUWeightedElement@?$CvWeightedVector@H$0BC@$00@@HU12@@std@@YAXPAUWeightedElement@?$CvWeightedVector@H$0BC@$00@@HHU12@@Z ; std::_Adjust_heap<CvWeightedVector<int,18,1>::WeightedElement *,int,CvWeightedVector<int,18,1>::WeightedElement>
	add	esp, 20					; 00000014H
	test	esi, esi
	jg	SHORT $LL2@Make_heap
$LN1@Make_heap:

; 2172 : 		}
; 2173 : 	}

	pop	edi
	pop	esi
	pop	ebx
	ret	0
??$_Make_heap@PAUWeightedElement@?$CvWeightedVector@H$0BC@$00@@HU12@@std@@YAXPAUWeightedElement@?$CvWeightedVector@H$0BC@$00@@0PAH0@Z ENDP ; std::_Make_heap<CvWeightedVector<int,18,1>::WeightedElement *,int,CvWeightedVector<int,18,1>::WeightedElement>
_TEXT	ENDS
PUBLIC	??$_Insertion_sort1@PAUWeightedElement@?$CvWeightedVector@H$0BC@$00@@U12@@std@@YAXPAUWeightedElement@?$CvWeightedVector@H$0BC@$00@@00@Z ; std::_Insertion_sort1<CvWeightedVector<int,18,1>::WeightedElement *,CvWeightedVector<int,18,1>::WeightedElement>
; Function compile flags: /Ogtpy
;	COMDAT ??$_Insertion_sort1@PAUWeightedElement@?$CvWeightedVector@H$0BC@$00@@U12@@std@@YAXPAUWeightedElement@?$CvWeightedVector@H$0BC@$00@@00@Z
_TEXT	SEGMENT
__First$ = 8						; size = 4
__Last$ = 12						; size = 4
___formal$ = 16						; size = 4
??$_Insertion_sort1@PAUWeightedElement@?$CvWeightedVector@H$0BC@$00@@U12@@std@@YAXPAUWeightedElement@?$CvWeightedVector@H$0BC@$00@@00@Z PROC ; std::_Insertion_sort1<CvWeightedVector<int,18,1>::WeightedElement *,CvWeightedVector<int,18,1>::WeightedElement>, COMDAT

; 2967 : 	{	// insertion sort [_First, _Last), using operator<

	push	ebp

; 2968 : 	if (_First != _Last)

	mov	ebp, DWORD PTR __Last$[esp]
	push	edi
	mov	edi, DWORD PTR __First$[esp+4]
	cmp	edi, ebp
	je	SHORT $LN6@Insertion_

; 2969 : 		for (_BidIt _Next = _First; ++_Next != _Last; )

	lea	edx, DWORD PTR [edi+8]
	cmp	edx, ebp
	je	SHORT $LN6@Insertion_
	push	ebx
	push	esi
$LL7@Insertion_:

; 2970 : 			{	// order next element
; 2971 : 			_BidIt _Next1 = _Next;
; 2972 : 			_Ty _Val = *_Next;

	mov	esi, DWORD PTR [edx+4]

; 2973 : 
; 2974 : 			if (_DEBUG_LT(_Val, *_First))

	cmp	esi, DWORD PTR [edi+4]
	mov	ebx, DWORD PTR [edx]
	mov	ecx, edx
	jle	SHORT $LN5@Insertion_

; 2975 : 				{	// found new earliest element, move to front
; 2976 : 				_STDEXT unchecked_copy_backward(_First, _Next, ++_Next1);

	mov	eax, edx
	cmp	edi, edx
	je	SHORT $LN21@Insertion_
	npad	7
$LL22@Insertion_:
	mov	ecx, DWORD PTR [eax-8]
	sub	eax, 8
	mov	DWORD PTR [eax+8], ecx
	mov	ecx, DWORD PTR [eax+4]
	mov	DWORD PTR [eax+12], ecx
	cmp	eax, edi
	jne	SHORT $LL22@Insertion_
$LN21@Insertion_:

; 2977 : 				*_First = _Val;

	mov	DWORD PTR [edi], ebx
	mov	DWORD PTR [edi+4], esi

; 2978 : 				}
; 2979 : 			else

	jmp	SHORT $LN4@Insertion_
$LN5@Insertion_:

; 2980 : 				{	// look for insertion point after first
; 2981 : 				for (_BidIt _First1 = _Next1;
; 2982 : 					_DEBUG_LT(_Val, *--_First1);
; 2983 : 					_Next1 = _First1)

	cmp	esi, DWORD PTR [edx-4]
	lea	eax, DWORD PTR [edx-8]
	jle	SHORT $LN1@Insertion_
$LL3@Insertion_:

; 2984 : 					*_Next1 = *_First1;	// move hole down

	mov	ebp, DWORD PTR [eax]
	mov	DWORD PTR [ecx], ebp
	mov	ebp, DWORD PTR [eax+4]
	mov	DWORD PTR [ecx+4], ebp
	mov	ecx, eax
	sub	eax, 8
	cmp	esi, DWORD PTR [eax+4]
	jg	SHORT $LL3@Insertion_

; 2980 : 				{	// look for insertion point after first
; 2981 : 				for (_BidIt _First1 = _Next1;
; 2982 : 					_DEBUG_LT(_Val, *--_First1);
; 2983 : 					_Next1 = _First1)

	mov	ebp, DWORD PTR __Last$[esp+12]
$LN1@Insertion_:

; 2985 : 				*_Next1 = _Val;	// insert element in hole

	mov	DWORD PTR [ecx], ebx
	mov	DWORD PTR [ecx+4], esi
$LN4@Insertion_:
	add	edx, 8
	cmp	edx, ebp
	jne	SHORT $LL7@Insertion_
	pop	esi
	pop	ebx
$LN6@Insertion_:
	pop	edi
	pop	ebp

; 2986 : 				}
; 2987 : 			}
; 2988 : 	}

	ret	0
??$_Insertion_sort1@PAUWeightedElement@?$CvWeightedVector@H$0BC@$00@@U12@@std@@YAXPAUWeightedElement@?$CvWeightedVector@H$0BC@$00@@00@Z ENDP ; std::_Insertion_sort1<CvWeightedVector<int,18,1>::WeightedElement *,CvWeightedVector<int,18,1>::WeightedElement>
_TEXT	ENDS
PUBLIC	??$_Pop_heap_0@PAUWeightedElement@?$CvWeightedVector@H$0BC@$00@@U12@@std@@YAXPAUWeightedElement@?$CvWeightedVector@H$0BC@$00@@00@Z ; std::_Pop_heap_0<CvWeightedVector<int,18,1>::WeightedElement *,CvWeightedVector<int,18,1>::WeightedElement>
; Function compile flags: /Ogtpy
;	COMDAT ??$_Pop_heap_0@PAUWeightedElement@?$CvWeightedVector@H$0BC@$00@@U12@@std@@YAXPAUWeightedElement@?$CvWeightedVector@H$0BC@$00@@00@Z
_TEXT	SEGMENT
__First$ = 8						; size = 4
__Last$ = 12						; size = 4
___formal$ = 16						; size = 4
??$_Pop_heap_0@PAUWeightedElement@?$CvWeightedVector@H$0BC@$00@@U12@@std@@YAXPAUWeightedElement@?$CvWeightedVector@H$0BC@$00@@00@Z PROC ; std::_Pop_heap_0<CvWeightedVector<int,18,1>::WeightedElement *,CvWeightedVector<int,18,1>::WeightedElement>, COMDAT

; 2088 : 	_Pop_heap(_First, _Last - 1, _Last - 1,
; 2089 : 		_Ty(*(_Last - 1)), _Dist_type(_First));

	mov	ecx, DWORD PTR __First$[esp-4]
	mov	eax, DWORD PTR __Last$[esp-4]
	mov	edx, DWORD PTR [ecx]
	push	esi
	mov	esi, DWORD PTR [eax-8]
	push	edi
	mov	edi, DWORD PTR [eax-4]
	mov	DWORD PTR [eax-8], edx
	mov	edx, DWORD PTR [ecx+4]
	mov	DWORD PTR [eax-4], edx
	sub	eax, ecx
	sub	esp, 8
	mov	edx, esp
	sub	eax, 8
	sar	eax, 3
	push	eax
	push	0
	push	ecx
	mov	DWORD PTR [edx], esi
	mov	DWORD PTR [edx+4], edi
	call	??$_Adjust_heap@PAUWeightedElement@?$CvWeightedVector@H$0BC@$00@@HU12@@std@@YAXPAUWeightedElement@?$CvWeightedVector@H$0BC@$00@@HHU12@@Z ; std::_Adjust_heap<CvWeightedVector<int,18,1>::WeightedElement *,int,CvWeightedVector<int,18,1>::WeightedElement>
	add	esp, 20					; 00000014H

; 2090 : 	}

	pop	edi
	pop	esi
	ret	0
??$_Pop_heap_0@PAUWeightedElement@?$CvWeightedVector@H$0BC@$00@@U12@@std@@YAXPAUWeightedElement@?$CvWeightedVector@H$0BC@$00@@00@Z ENDP ; std::_Pop_heap_0<CvWeightedVector<int,18,1>::WeightedElement *,CvWeightedVector<int,18,1>::WeightedElement>
_TEXT	ENDS
PUBLIC	??0?$CvWeightedVector@H$0BC@$00@@QAE@XZ		; CvWeightedVector<int,18,1>::CvWeightedVector<int,18,1>
; Function compile flags: /Ogtpy
; File c:\users\enormousapplepie\documents\github\lekmod\lekmod_dll\cvgamecoredllutil\include\cvweightedvector.h
;	COMDAT ??0?$CvWeightedVector@H$0BC@$00@@QAE@XZ
_TEXT	SEGMENT
??0?$CvWeightedVector@H$0BC@$00@@QAE@XZ PROC		; CvWeightedVector<int,18,1>::CvWeightedVector<int,18,1>, COMDAT
; _this$ = ecx

; 52   : 	CvWeightedVector(void)

	mov	eax, ecx
	lea	ecx, DWORD PTR [eax+12]
	mov	DWORD PTR [eax+4], 0
	mov	DWORD PTR [eax+8], 18			; 00000012H
	mov	DWORD PTR [eax], ecx

; 53   : 	{
; 54   : 	};

	ret	0
??0?$CvWeightedVector@H$0BC@$00@@QAE@XZ ENDP		; CvWeightedVector<int,18,1>::CvWeightedVector<int,18,1>
_TEXT	ENDS
PUBLIC	??1?$CvWeightedVector@H$0BC@$00@@QAE@XZ		; CvWeightedVector<int,18,1>::~CvWeightedVector<int,18,1>
; Function compile flags: /Ogtpy
;	COMDAT ??1?$CvWeightedVector@H$0BC@$00@@QAE@XZ
_TEXT	SEGMENT
??1?$CvWeightedVector@H$0BC@$00@@QAE@XZ PROC		; CvWeightedVector<int,18,1>::~CvWeightedVector<int,18,1>, COMDAT
; _this$ = ecx

; 59   : 	};

	mov	eax, DWORD PTR [ecx]
	add	ecx, 12					; 0000000cH
	cmp	eax, ecx
	je	SHORT $LN6@CvWeighted
	push	eax
	call	?FireFreeAlignedNoTracking@@YAXPAX@Z	; FireFreeAlignedNoTracking
	pop	ecx
$LN6@CvWeighted:
	ret	0
??1?$CvWeightedVector@H$0BC@$00@@QAE@XZ ENDP		; CvWeightedVector<int,18,1>::~CvWeightedVector<int,18,1>
_TEXT	ENDS
PUBLIC	?push_back@?$FStaticVector@UWeightedElement@?$CvWeightedVector@H$0BC@$00@@$0BC@$00$0A@$0A@@@QAEIABUWeightedElement@?$CvWeightedVector@H$0BC@$00@@@Z ; FStaticVector<CvWeightedVector<int,18,1>::WeightedElement,18,1,0,0>::push_back
; Function compile flags: /Ogtpy
; File c:\users\enormousapplepie\documents\github\lekmod\lekmod_dll\fireplace\include\fireworks\ffastvector.h
;	COMDAT ?push_back@?$FStaticVector@UWeightedElement@?$CvWeightedVector@H$0BC@$00@@$0BC@$00$0A@$0A@@@QAEIABUWeightedElement@?$CvWeightedVector@H$0BC@$00@@@Z
_TEXT	SEGMENT
_element$ = 8						; size = 4
?push_back@?$FStaticVector@UWeightedElement@?$CvWeightedVector@H$0BC@$00@@$0BC@$00$0A@$0A@@@QAEIABUWeightedElement@?$CvWeightedVector@H$0BC@$00@@@Z PROC ; FStaticVector<CvWeightedVector<int,18,1>::WeightedElement,18,1,0,0>::push_back, COMDAT
; _this$ = ecx

; 676  : 	unsigned int push_back(const T& element){

	push	esi
	mov	esi, ecx

; 677  : 		m_bIsResized = false;
; 678  : 		if( m_uiCurrSize == m_uiCurrMaxSize )

	mov	eax, DWORD PTR [esi+8]
	mov	BYTE PTR [esi+156], 0
	cmp	DWORD PTR [esi+4], eax
	jne	SHORT $LN1@push_back

; 679  : 			GrowSize(m_uiCurrMaxSize);

	push	eax
	call	?GrowSize@?$FStaticVector@UWeightedElement@?$CvWeightedVector@H$0BC@$00@@$0BC@$00$0A@$0A@@@IAEXI@Z ; FStaticVector<CvWeightedVector<int,18,1>::WeightedElement,18,1,0,0>::GrowSize
$LN1@push_back:

; 680  : 		new( (void*)&m_pData[m_uiCurrSize] )T(element);

	mov	eax, DWORD PTR [esi+4]
	mov	ecx, DWORD PTR [esi]
	lea	eax, DWORD PTR [ecx+eax*8]
	test	eax, eax
	je	SHORT $LN4@push_back
	mov	ecx, DWORD PTR _element$[esp]
	mov	edx, DWORD PTR [ecx]
	mov	DWORD PTR [eax], edx
	mov	ecx, DWORD PTR [ecx+4]
	mov	DWORD PTR [eax+4], ecx
$LN4@push_back:

; 681  : 		return m_uiCurrSize++;

	mov	eax, DWORD PTR [esi+4]
	lea	edx, DWORD PTR [eax+1]
	mov	DWORD PTR [esi+4], edx
	pop	esi

; 682  : 	};

	ret	4
?push_back@?$FStaticVector@UWeightedElement@?$CvWeightedVector@H$0BC@$00@@$0BC@$00$0A@$0A@@@QAEIABUWeightedElement@?$CvWeightedVector@H$0BC@$00@@@Z ENDP ; FStaticVector<CvWeightedVector<int,18,1>::WeightedElement,18,1,0,0>::push_back
_TEXT	ENDS
PUBLIC	??$_Unguarded_partition@PAUWeightedElement@?$CvWeightedVector@H$0BC@$00@@@std@@YA?AU?$pair@PAUWeightedElement@?$CvWeightedVector@H$0BC@$00@@PAU12@@0@PAUWeightedElement@?$CvWeightedVector@H$0BC@$00@@0@Z ; std::_Unguarded_partition<CvWeightedVector<int,18,1>::WeightedElement *>
; Function compile flags: /Ogtpy
; File c:\program files (x86)\microsoft visual studio 9.0\vc\include\algorithm
;	COMDAT ??$_Unguarded_partition@PAUWeightedElement@?$CvWeightedVector@H$0BC@$00@@@std@@YA?AU?$pair@PAUWeightedElement@?$CvWeightedVector@H$0BC@$00@@PAU12@@0@PAUWeightedElement@?$CvWeightedVector@H$0BC@$00@@0@Z
_TEXT	SEGMENT
__Tmp$219525 = -24					; size = 8
__Tmp$219454 = -16					; size = 8
__Tmp$219480 = -8					; size = 8
___$ReturnUdt$ = 8					; size = 4
__First$ = 12						; size = 4
__Last$ = 16						; size = 4
??$_Unguarded_partition@PAUWeightedElement@?$CvWeightedVector@H$0BC@$00@@@std@@YA?AU?$pair@PAUWeightedElement@?$CvWeightedVector@H$0BC@$00@@PAU12@@0@PAUWeightedElement@?$CvWeightedVector@H$0BC@$00@@0@Z PROC ; std::_Unguarded_partition<CvWeightedVector<int,18,1>::WeightedElement *>, COMDAT

; 3024 : 	{	// partition [_First, _Last), using operator<

	sub	esp, 24					; 00000018H
	push	ebx

; 3025 : 	_RanIt _Mid = _First + (_Last - _First) / 2;	// sort median to _Mid

	mov	ebx, DWORD PTR __First$[esp+24]
	push	ebp
	mov	ebp, DWORD PTR __Last$[esp+28]
	mov	eax, ebp
	sub	eax, ebx
	sar	eax, 3
	cdq
	push	esi
	sub	eax, edx
	push	edi
	sar	eax, 1
	lea	edi, DWORD PTR [ebx+eax*8]

; 3026 : 	std::_Median(_First, _Mid, _Last - 1);

	lea	eax, DWORD PTR [ebp-8]
	push	eax
	push	edi
	push	ebx
	call	??$_Median@PAUWeightedElement@?$CvWeightedVector@H$0BC@$00@@@std@@YAXPAUWeightedElement@?$CvWeightedVector@H$0BC@$00@@00@Z ; std::_Median<CvWeightedVector<int,18,1>::WeightedElement *>
	add	esp, 12					; 0000000cH

; 3027 : 	_RanIt _Pfirst = _Mid;

	mov	ecx, edi

; 3028 : 	_RanIt _Plast = _Pfirst + 1;

	lea	esi, DWORD PTR [edi+8]

; 3029 : 
; 3030 : 	while (_First < _Pfirst
; 3031 : 		&& !_DEBUG_LT(*(_Pfirst - 1), *_Pfirst)
; 3032 : 		&& !(*_Pfirst < *(_Pfirst - 1)))

	cmp	ebx, edi
	jae	SHORT $LN99@Unguarded_
$LL27@Unguarded_:
	mov	eax, DWORD PTR [ecx-4]
	mov	edx, DWORD PTR [ecx+4]
	cmp	edx, eax
	jl	SHORT $LN99@Unguarded_
	jg	SHORT $LN99@Unguarded_

; 3033 : 		--_Pfirst;

	sub	ecx, 8
	cmp	ebx, ecx
	jb	SHORT $LL27@Unguarded_
$LN99@Unguarded_:

; 3034 : 	while (_Plast < _Last
; 3035 : 		&& !_DEBUG_LT(*_Plast, *_Pfirst)
; 3036 : 		&& !(*_Pfirst < *_Plast))

	cmp	esi, ebp
	jae	SHORT $LN24@Unguarded_
	mov	edx, DWORD PTR [ecx+4]
	npad	1
$LL25@Unguarded_:
	mov	eax, DWORD PTR [esi+4]
	cmp	edx, eax
	jl	SHORT $LN24@Unguarded_
	jg	SHORT $LN24@Unguarded_

; 3037 : 		++_Plast;

	add	esi, 8
	cmp	esi, ebp
	jb	SHORT $LL25@Unguarded_
$LN24@Unguarded_:

; 3038 : 
; 3039 : 	_RanIt _Gfirst = _Plast;

	mov	eax, esi

; 3040 : 	_RanIt _Glast = _Pfirst;

	mov	ebx, ecx
$LL23@Unguarded_:

; 3041 : 
; 3042 : 	for (; ; )
; 3043 : 		{	// partition
; 3044 : 		for (; _Gfirst < _Last; ++_Gfirst)

	cmp	eax, DWORD PTR __Last$[esp+36]
	jae	SHORT $LN103@Unguarded_
	npad	6
$LL21@Unguarded_:

; 3045 : 			if (_DEBUG_LT(*_Pfirst, *_Gfirst))

	mov	edx, DWORD PTR [eax+4]
	mov	edi, DWORD PTR [ecx+4]
	cmp	edx, edi
	jl	SHORT $LN20@Unguarded_

; 3046 : 				;
; 3047 : 			else if (*_Gfirst < *_Pfirst)

	jg	SHORT $LN103@Unguarded_

; 3048 : 				break;
; 3049 : 			else
; 3050 : 				std::iter_swap(_Plast++, _Gfirst);

	mov	edx, esi
	add	esi, 8
	cmp	edx, eax
	je	SHORT $LN20@Unguarded_
	mov	ebp, DWORD PTR [edx+4]
	mov	edi, DWORD PTR [edx]
	mov	DWORD PTR __Tmp$219454[esp+44], ebp
	mov	ebp, DWORD PTR [eax]
	mov	DWORD PTR [edx], ebp
	mov	ebp, DWORD PTR [eax+4]
	mov	DWORD PTR [edx+4], ebp
	mov	edx, DWORD PTR __Tmp$219454[esp+44]
	mov	DWORD PTR [eax], edi
	mov	DWORD PTR [eax+4], edx
$LN20@Unguarded_:
	add	eax, 8
	cmp	eax, DWORD PTR __Last$[esp+36]
	jb	SHORT $LL21@Unguarded_
$LN103@Unguarded_:

; 3051 : 		for (; _First < _Glast; --_Glast)

	cmp	ebx, DWORD PTR __First$[esp+36]
	jbe	SHORT $LN115@Unguarded_
	lea	edx, DWORD PTR [ebx-8]
$LL14@Unguarded_:

; 3052 : 			if (_DEBUG_LT(*(_Glast - 1), *_Pfirst))

	mov	edi, DWORD PTR [edx+4]
	mov	ebp, DWORD PTR [ecx+4]
	cmp	ebp, edi
	jl	SHORT $LN13@Unguarded_

; 3053 : 				;
; 3054 : 			else if (*_Pfirst < *(_Glast - 1))

	jg	SHORT $LN111@Unguarded_

; 3055 : 				break;
; 3056 : 			else
; 3057 : 				std::iter_swap(--_Pfirst, _Glast - 1);

	sub	ecx, 8
	cmp	ecx, edx
	je	SHORT $LN13@Unguarded_
	mov	ebp, DWORD PTR [ecx+4]
	mov	edi, DWORD PTR [ecx]
	mov	DWORD PTR __Tmp$219480[esp+44], ebp
	mov	ebp, DWORD PTR [edx]
	mov	DWORD PTR [ecx], ebp
	mov	ebp, DWORD PTR [edx+4]
	mov	DWORD PTR [ecx+4], ebp
	mov	DWORD PTR [edx], edi
	mov	edi, DWORD PTR __Tmp$219480[esp+44]
	mov	DWORD PTR [edx+4], edi
$LN13@Unguarded_:
	sub	ebx, 8
	sub	edx, 8
	cmp	DWORD PTR __First$[esp+36], ebx
	jb	SHORT $LL14@Unguarded_
$LN111@Unguarded_:

; 3058 : 		if (_Glast == _First && _Gfirst == _Last)

	cmp	ebx, DWORD PTR __First$[esp+36]
$LN115@Unguarded_:
	jne	SHORT $LN6@Unguarded_
	cmp	eax, DWORD PTR __Last$[esp+36]
	je	$LN105@Unguarded_

; 3060 : 
; 3061 : 		if (_Glast == _First)
; 3062 : 			{	// no room at bottom, rotate pivot upward
; 3063 : 			if (_Plast != _Gfirst)

	cmp	esi, eax
	je	SHORT $LN64@Unguarded_

; 3064 : 				std::iter_swap(_Pfirst, _Plast);

	cmp	ecx, esi
	je	SHORT $LN64@Unguarded_
	mov	ebp, DWORD PTR [esi]
	mov	edx, DWORD PTR [ecx]
	mov	edi, DWORD PTR [ecx+4]
	mov	DWORD PTR [ecx], ebp
	mov	ebp, DWORD PTR [esi+4]
	mov	DWORD PTR [ecx+4], ebp
	mov	DWORD PTR [esi], edx
	mov	DWORD PTR [esi+4], edi
$LN64@Unguarded_:

; 3065 : 			++_Plast;
; 3066 : 			std::iter_swap(_Pfirst++, _Gfirst++);

	mov	edx, eax
	mov	edi, ecx
	add	esi, 8
	add	ecx, 8
	add	eax, 8
	cmp	edi, edx
	je	$LL23@Unguarded_
	mov	ebp, DWORD PTR [edi]
	mov	DWORD PTR __Tmp$219525[esp+40], ebp
	mov	ebp, DWORD PTR [edi+4]
	mov	DWORD PTR __Tmp$219525[esp+44], ebp
	mov	ebp, DWORD PTR [edx]
	mov	DWORD PTR [edi], ebp
	mov	ebp, DWORD PTR [edx+4]
	mov	DWORD PTR [edi+4], ebp
	mov	edi, DWORD PTR __Tmp$219525[esp+40]
	mov	DWORD PTR [edx], edi
	mov	edi, DWORD PTR __Tmp$219525[esp+44]
	mov	DWORD PTR [edx+4], edi
	jmp	$LL23@Unguarded_
$LN6@Unguarded_:

; 3067 : 			}
; 3068 : 		else if (_Gfirst == _Last)
; 3069 : 			{	// no room at top, rotate pivot downward
; 3070 : 			if (--_Glast != --_Pfirst)

	sub	ebx, 8
	cmp	eax, DWORD PTR __Last$[esp+36]
	jne	SHORT $LN3@Unguarded_
	sub	ecx, 8
	cmp	ebx, ecx
	je	SHORT $LN78@Unguarded_

; 3071 : 				std::iter_swap(_Glast, _Pfirst);

	mov	ebp, DWORD PTR [ecx]
	mov	edx, DWORD PTR [ebx]
	mov	edi, DWORD PTR [ebx+4]
	mov	DWORD PTR [ebx], ebp
	mov	ebp, DWORD PTR [ecx+4]
	mov	DWORD PTR [ebx+4], ebp
	mov	DWORD PTR [ecx], edx
	mov	DWORD PTR [ecx+4], edi
$LN78@Unguarded_:

; 3072 : 			std::iter_swap(_Pfirst, --_Plast);

	sub	esi, 8
	cmp	ecx, esi
	je	$LL23@Unguarded_
	mov	ebp, DWORD PTR [esi]
	mov	edx, DWORD PTR [ecx]
	mov	edi, DWORD PTR [ecx+4]
	mov	DWORD PTR [ecx], ebp
	mov	ebp, DWORD PTR [esi+4]
	mov	DWORD PTR [ecx+4], ebp
	mov	DWORD PTR [esi], edx
	mov	DWORD PTR [esi+4], edi

; 3073 : 			}
; 3074 : 		else

	jmp	$LL23@Unguarded_
$LN3@Unguarded_:

; 3075 : 			std::iter_swap(_Gfirst++, --_Glast);

	cmp	eax, ebx
	je	SHORT $LN92@Unguarded_
	mov	ebp, DWORD PTR [ebx]
	mov	edx, DWORD PTR [eax]
	mov	edi, DWORD PTR [eax+4]
	mov	DWORD PTR [eax], ebp
	mov	ebp, DWORD PTR [ebx+4]
	mov	DWORD PTR [eax+4], ebp
	mov	DWORD PTR [ebx], edx
	mov	DWORD PTR [ebx+4], edi
$LN92@Unguarded_:
	add	eax, 8

; 3076 : 		}

	jmp	$LL23@Unguarded_
$LN105@Unguarded_:

; 3059 : 			return (pair<_RanIt, _RanIt>(_Pfirst, _Plast));

	mov	eax, DWORD PTR ___$ReturnUdt$[esp+36]
	pop	edi
	mov	DWORD PTR [eax+4], esi
	pop	esi
	pop	ebp
	mov	DWORD PTR [eax], ecx
	pop	ebx

; 3077 : 	}

	add	esp, 24					; 00000018H
	ret	0
??$_Unguarded_partition@PAUWeightedElement@?$CvWeightedVector@H$0BC@$00@@@std@@YA?AU?$pair@PAUWeightedElement@?$CvWeightedVector@H$0BC@$00@@PAU12@@0@PAUWeightedElement@?$CvWeightedVector@H$0BC@$00@@0@Z ENDP ; std::_Unguarded_partition<CvWeightedVector<int,18,1>::WeightedElement *>
_TEXT	ENDS
PUBLIC	??$make_heap@PAUWeightedElement@?$CvWeightedVector@H$0BC@$00@@@std@@YAXPAUWeightedElement@?$CvWeightedVector@H$0BC@$00@@0@Z ; std::make_heap<CvWeightedVector<int,18,1>::WeightedElement *>
; Function compile flags: /Ogtpy
;	COMDAT ??$make_heap@PAUWeightedElement@?$CvWeightedVector@H$0BC@$00@@@std@@YAXPAUWeightedElement@?$CvWeightedVector@H$0BC@$00@@0@Z
_TEXT	SEGMENT
__First$ = 8						; size = 4
__Last$ = 12						; size = 4
??$make_heap@PAUWeightedElement@?$CvWeightedVector@H$0BC@$00@@@std@@YAXPAUWeightedElement@?$CvWeightedVector@H$0BC@$00@@0@Z PROC ; std::make_heap<CvWeightedVector<int,18,1>::WeightedElement *>, COMDAT

; 2178 : 	_DEBUG_RANGE(_First, _Last);
; 2179 : 	if (1 < _Last - _First)

	mov	eax, DWORD PTR __Last$[esp-4]
	mov	ecx, DWORD PTR __First$[esp-4]
	mov	edx, eax
	sub	edx, ecx
	and	edx, -8					; fffffff8H
	cmp	edx, 8
	jle	SHORT $LN1@make_heap

; 2180 : 		_Make_heap(_CHECKED_BASE(_First), _CHECKED_BASE(_Last),
; 2181 : 			_Dist_type(_First), _Val_type(_First));

	push	0
	push	0
	push	eax
	push	ecx
	call	??$_Make_heap@PAUWeightedElement@?$CvWeightedVector@H$0BC@$00@@HU12@@std@@YAXPAUWeightedElement@?$CvWeightedVector@H$0BC@$00@@0PAH0@Z ; std::_Make_heap<CvWeightedVector<int,18,1>::WeightedElement *,int,CvWeightedVector<int,18,1>::WeightedElement>
	add	esp, 16					; 00000010H
$LN1@make_heap:

; 2182 : 	}

	ret	0
??$make_heap@PAUWeightedElement@?$CvWeightedVector@H$0BC@$00@@@std@@YAXPAUWeightedElement@?$CvWeightedVector@H$0BC@$00@@0@Z ENDP ; std::make_heap<CvWeightedVector<int,18,1>::WeightedElement *>
_TEXT	ENDS
PUBLIC	??$_Insertion_sort@PAUWeightedElement@?$CvWeightedVector@H$0BC@$00@@@std@@YAXPAUWeightedElement@?$CvWeightedVector@H$0BC@$00@@0@Z ; std::_Insertion_sort<CvWeightedVector<int,18,1>::WeightedElement *>
; Function compile flags: /Ogtpy
;	COMDAT ??$_Insertion_sort@PAUWeightedElement@?$CvWeightedVector@H$0BC@$00@@@std@@YAXPAUWeightedElement@?$CvWeightedVector@H$0BC@$00@@0@Z
_TEXT	SEGMENT
__First$ = 8						; size = 4
__Last$ = 12						; size = 4
??$_Insertion_sort@PAUWeightedElement@?$CvWeightedVector@H$0BC@$00@@@std@@YAXPAUWeightedElement@?$CvWeightedVector@H$0BC@$00@@0@Z PROC ; std::_Insertion_sort<CvWeightedVector<int,18,1>::WeightedElement *>, COMDAT

; 2993 : 	std::_Insertion_sort1(_First, _Last, _Val_type(_First));

	mov	eax, DWORD PTR __Last$[esp-4]
	mov	ecx, DWORD PTR __First$[esp-4]
	push	0
	push	eax
	push	ecx
	call	??$_Insertion_sort1@PAUWeightedElement@?$CvWeightedVector@H$0BC@$00@@U12@@std@@YAXPAUWeightedElement@?$CvWeightedVector@H$0BC@$00@@00@Z ; std::_Insertion_sort1<CvWeightedVector<int,18,1>::WeightedElement *,CvWeightedVector<int,18,1>::WeightedElement>
	add	esp, 12					; 0000000cH

; 2994 : 	}

	ret	0
??$_Insertion_sort@PAUWeightedElement@?$CvWeightedVector@H$0BC@$00@@@std@@YAXPAUWeightedElement@?$CvWeightedVector@H$0BC@$00@@0@Z ENDP ; std::_Insertion_sort<CvWeightedVector<int,18,1>::WeightedElement *>
_TEXT	ENDS
PUBLIC	??$pop_heap@PAUWeightedElement@?$CvWeightedVector@H$0BC@$00@@@std@@YAXPAUWeightedElement@?$CvWeightedVector@H$0BC@$00@@0@Z ; std::pop_heap<CvWeightedVector<int,18,1>::WeightedElement *>
; Function compile flags: /Ogtpy
;	COMDAT ??$pop_heap@PAUWeightedElement@?$CvWeightedVector@H$0BC@$00@@@std@@YAXPAUWeightedElement@?$CvWeightedVector@H$0BC@$00@@0@Z
_TEXT	SEGMENT
__First$ = 8						; size = 4
__Last$ = 12						; size = 4
??$pop_heap@PAUWeightedElement@?$CvWeightedVector@H$0BC@$00@@@std@@YAXPAUWeightedElement@?$CvWeightedVector@H$0BC@$00@@0@Z PROC ; std::pop_heap<CvWeightedVector<int,18,1>::WeightedElement *>, COMDAT

; 2095 : 	_DEBUG_RANGE(_First, _Last);
; 2096 : 	_DEBUG_HEAP(_First, _Last);
; 2097 : 	if (1 < _Last - _First)

	mov	eax, DWORD PTR __Last$[esp-4]
	mov	ecx, DWORD PTR __First$[esp-4]
	push	ebx
	mov	edx, eax
	push	esi
	sub	edx, ecx
	mov	esi, edx
	and	esi, -8					; fffffff8H
	cmp	esi, 8
	push	edi
	jle	SHORT $LN12@pop_heap

; 2098 : 		_Pop_heap_0(_CHECKED_BASE(_First), _CHECKED_BASE(_Last), _Val_type(_First));

	mov	ebx, DWORD PTR [ecx]
	mov	esi, DWORD PTR [eax-8]
	mov	edi, DWORD PTR [eax-4]
	mov	DWORD PTR [eax-8], ebx
	mov	ebx, DWORD PTR [ecx+4]
	sub	esp, 8
	mov	DWORD PTR [eax-4], ebx
	mov	eax, esp
	add	edx, -8					; fffffff8H
	sar	edx, 3
	push	edx
	push	0
	push	ecx
	mov	DWORD PTR [eax], esi
	mov	DWORD PTR [eax+4], edi
	call	??$_Adjust_heap@PAUWeightedElement@?$CvWeightedVector@H$0BC@$00@@HU12@@std@@YAXPAUWeightedElement@?$CvWeightedVector@H$0BC@$00@@HHU12@@Z ; std::_Adjust_heap<CvWeightedVector<int,18,1>::WeightedElement *,int,CvWeightedVector<int,18,1>::WeightedElement>
	add	esp, 20					; 00000014H
$LN12@pop_heap:

; 2099 : 	}

	pop	edi
	pop	esi
	pop	ebx
	ret	0
??$pop_heap@PAUWeightedElement@?$CvWeightedVector@H$0BC@$00@@@std@@YAXPAUWeightedElement@?$CvWeightedVector@H$0BC@$00@@0@Z ENDP ; std::pop_heap<CvWeightedVector<int,18,1>::WeightedElement *>
_TEXT	ENDS
PUBLIC	??0CvProjectProductionAI@@QAE@PAVCvCity@@@Z	; CvProjectProductionAI::CvProjectProductionAI
;	COMDAT xdata$x
; File c:\users\enormousapplepie\documents\github\lekmod\lekmod_dll\fireplace\include\fireworks\ffastvector.h
xdata$x	SEGMENT
__unwindtable$??0CvProjectProductionAI@@QAE@PAVCvCity@@@Z DD 0ffffffffH
	DD	FLAT:__unwindfunclet$??0CvProjectProductionAI@@QAE@PAVCvCity@@@Z$0
__ehfuncinfo$??0CvProjectProductionAI@@QAE@PAVCvCity@@@Z DD 019930522H
	DD	01H
	DD	FLAT:__unwindtable$??0CvProjectProductionAI@@QAE@PAVCvCity@@@Z
	DD	2 DUP(00H)
	DD	2 DUP(00H)
	DD	00H
	DD	01H
; Function compile flags: /Ogtpy
; File c:\users\enormousapplepie\documents\github\lekmod\lekmod_dll\cvgamecoredll_expansion2\cvprojectproductionai.cpp
xdata$x	ENDS
;	COMDAT ??0CvProjectProductionAI@@QAE@PAVCvCity@@@Z
_TEXT	SEGMENT
_this$ = -16						; size = 4
__$EHRec$ = -12						; size = 12
_pCity$ = 8						; size = 4
??0CvProjectProductionAI@@QAE@PAVCvCity@@@Z PROC	; CvProjectProductionAI::CvProjectProductionAI, COMDAT
; _this$ = ecx

; 17   : {

	push	-1
	push	__ehhandler$??0CvProjectProductionAI@@QAE@PAVCvCity@@@Z
	mov	eax, DWORD PTR fs:0
	push	eax
	mov	DWORD PTR fs:0, esp
	push	ecx
	mov	eax, ecx
	mov	ecx, DWORD PTR _pCity$[esp+12]
	mov	DWORD PTR [eax], ecx
	lea	ecx, DWORD PTR [eax+16]
	mov	edx, 18					; 00000012H
	mov	DWORD PTR [eax+8], 0
	mov	DWORD PTR [eax+12], edx
	mov	DWORD PTR [eax+4], ecx
	lea	ecx, DWORD PTR [eax+176]
	mov	DWORD PTR [eax+164], ecx

; 18   : }

	mov	ecx, DWORD PTR __$EHRec$[esp+16]
	mov	DWORD PTR [eax+168], 0
	mov	DWORD PTR [eax+172], edx
	mov	DWORD PTR fs:0, ecx
	add	esp, 16					; 00000010H
	ret	4
_TEXT	ENDS
;	COMDAT text$x
text$x	SEGMENT
__unwindfunclet$??0CvProjectProductionAI@@QAE@PAVCvCity@@@Z$0:
	mov	ecx, DWORD PTR _this$[ebp]
	add	ecx, 4
	jmp	??1?$CvWeightedVector@H$0BC@$00@@QAE@XZ	; CvWeightedVector<int,18,1>::~CvWeightedVector<int,18,1>
__ehhandler$??0CvProjectProductionAI@@QAE@PAVCvCity@@@Z:
	mov	eax, OFFSET __ehfuncinfo$??0CvProjectProductionAI@@QAE@PAVCvCity@@@Z
	jmp	___CxxFrameHandler3
text$x	ENDS
??0CvProjectProductionAI@@QAE@PAVCvCity@@@Z ENDP	; CvProjectProductionAI::CvProjectProductionAI
PUBLIC	??1CvProjectProductionAI@@QAE@XZ		; CvProjectProductionAI::~CvProjectProductionAI
;	COMDAT xdata$x
; File c:\users\enormousapplepie\documents\github\lekmod\lekmod_dll\fireplace\include\fireworks\ffastvector.h
xdata$x	SEGMENT
__unwindtable$??1CvProjectProductionAI@@QAE@XZ DD 0ffffffffH
	DD	FLAT:__unwindfunclet$??1CvProjectProductionAI@@QAE@XZ$0
__ehfuncinfo$??1CvProjectProductionAI@@QAE@XZ DD 019930522H
	DD	01H
	DD	FLAT:__unwindtable$??1CvProjectProductionAI@@QAE@XZ
	DD	2 DUP(00H)
	DD	2 DUP(00H)
	DD	00H
	DD	01H
; Function compile flags: /Ogtpy
; File c:\users\enormousapplepie\documents\github\lekmod\lekmod_dll\cvgamecoredll_expansion2\cvprojectproductionai.cpp
xdata$x	ENDS
;	COMDAT ??1CvProjectProductionAI@@QAE@XZ
_TEXT	SEGMENT
_this$ = -16						; size = 4
__$EHRec$ = -12						; size = 12
??1CvProjectProductionAI@@QAE@XZ PROC			; CvProjectProductionAI::~CvProjectProductionAI, COMDAT
; _this$ = ecx

; 22   : {

	push	-1
	push	__ehhandler$??1CvProjectProductionAI@@QAE@XZ
	mov	eax, DWORD PTR fs:0
	push	eax
	mov	DWORD PTR fs:0, esp
	push	ecx
	push	esi
	mov	esi, ecx
	mov	DWORD PTR _this$[esp+20], esi

; 23   : }

	mov	eax, DWORD PTR [esi+164]
	lea	ecx, DWORD PTR [esi+176]
	mov	DWORD PTR __$EHRec$[esp+28], 0
	cmp	eax, ecx
	je	SHORT $LN10@CvProjectP
	push	eax
	call	?FireFreeAlignedNoTracking@@YAXPAX@Z	; FireFreeAlignedNoTracking
	add	esp, 4
$LN10@CvProjectP:
	mov	eax, DWORD PTR [esi+4]
	add	esi, 16					; 00000010H
	cmp	eax, esi
	mov	DWORD PTR __$EHRec$[esp+28], -1
	pop	esi
	je	SHORT $LN27@CvProjectP
	push	eax
	call	?FireFreeAlignedNoTracking@@YAXPAX@Z	; FireFreeAlignedNoTracking
	add	esp, 4
$LN27@CvProjectP:
	mov	ecx, DWORD PTR __$EHRec$[esp+16]
	mov	DWORD PTR fs:0, ecx
	add	esp, 16					; 00000010H
	ret	0
_TEXT	ENDS
;	COMDAT text$x
text$x	SEGMENT
__unwindfunclet$??1CvProjectProductionAI@@QAE@XZ$0:
	mov	ecx, DWORD PTR _this$[ebp]
	add	ecx, 4
	jmp	??1?$CvWeightedVector@H$0BC@$00@@QAE@XZ	; CvWeightedVector<int,18,1>::~CvWeightedVector<int,18,1>
__ehhandler$??1CvProjectProductionAI@@QAE@XZ:
	mov	eax, OFFSET __ehfuncinfo$??1CvProjectProductionAI@@QAE@XZ
	jmp	___CxxFrameHandler3
text$x	ENDS
??1CvProjectProductionAI@@QAE@XZ ENDP			; CvProjectProductionAI::~CvProjectProductionAI
PUBLIC	?push_back@?$CvWeightedVector@H$0BC@$00@@QAEIABHH@Z ; CvWeightedVector<int,18,1>::push_back
; Function compile flags: /Ogtpy
; File c:\users\enormousapplepie\documents\github\lekmod\lekmod_dll\cvgamecoredllutil\include\cvweightedvector.h
;	COMDAT ?push_back@?$CvWeightedVector@H$0BC@$00@@QAEIABHH@Z
_TEXT	SEGMENT
_element$ = 8						; size = 4
_iWeight$ = 12						; size = 4
?push_back@?$CvWeightedVector@H$0BC@$00@@QAEIABHH@Z PROC ; CvWeightedVector<int,18,1>::push_back, COMDAT
; _this$ = ecx

; 104  : //		FAssertMsg(iWeight >= 0, "Weight should not be negative.");
; 105  : 
; 106  : 		WeightedElement weightedElem;
; 107  : 		weightedElem.m_Element = element;

	mov	eax, DWORD PTR _element$[esp-4]
	push	esi
	mov	esi, ecx
	push	edi
	mov	edi, DWORD PTR [eax]

; 108  : 		weightedElem.m_iWeight = iWeight;
; 109  : 
; 110  : 		return m_pItems.push_back(weightedElem);

	mov	eax, DWORD PTR [esi+8]
	mov	BYTE PTR [esi+156], 0
	cmp	DWORD PTR [esi+4], eax
	jne	SHORT $LN5@push_back@2
	push	eax
	call	?GrowSize@?$FStaticVector@UWeightedElement@?$CvWeightedVector@H$0BC@$00@@$0BC@$00$0A@$0A@@@IAEXI@Z ; FStaticVector<CvWeightedVector<int,18,1>::WeightedElement,18,1,0,0>::GrowSize
$LN5@push_back@2:
	mov	ecx, DWORD PTR [esi+4]
	mov	edx, DWORD PTR [esi]
	lea	eax, DWORD PTR [edx+ecx*8]
	test	eax, eax
	je	SHORT $LN8@push_back@2
	mov	ecx, DWORD PTR _iWeight$[esp+4]
	mov	DWORD PTR [eax], edi
	mov	DWORD PTR [eax+4], ecx
$LN8@push_back@2:
	mov	eax, DWORD PTR [esi+4]
	lea	edx, DWORD PTR [eax+1]
	pop	edi
	mov	DWORD PTR [esi+4], edx
	pop	esi

; 111  : 	};

	ret	8
?push_back@?$CvWeightedVector@H$0BC@$00@@QAEIABHH@Z ENDP ; CvWeightedVector<int,18,1>::push_back
_TEXT	ENDS
PUBLIC	??$_Sort_heap@PAUWeightedElement@?$CvWeightedVector@H$0BC@$00@@@std@@YAXPAUWeightedElement@?$CvWeightedVector@H$0BC@$00@@0@Z ; std::_Sort_heap<CvWeightedVector<int,18,1>::WeightedElement *>
; Function compile flags: /Ogtpy
; File c:\program files (x86)\microsoft visual studio 9.0\vc\include\algorithm
;	COMDAT ??$_Sort_heap@PAUWeightedElement@?$CvWeightedVector@H$0BC@$00@@@std@@YAXPAUWeightedElement@?$CvWeightedVector@H$0BC@$00@@0@Z
_TEXT	SEGMENT
__First$ = 8						; size = 4
__Last$ = 12						; size = 4
??$_Sort_heap@PAUWeightedElement@?$CvWeightedVector@H$0BC@$00@@@std@@YAXPAUWeightedElement@?$CvWeightedVector@H$0BC@$00@@0@Z PROC ; std::_Sort_heap<CvWeightedVector<int,18,1>::WeightedElement *>, COMDAT

; 2215 : 	_DEBUG_RANGE(_First, _Last);
; 2216 : 	_DEBUG_HEAP(_First, _Last);
; 2217 : 	for (; 1 < _Last - _First; --_Last)

	mov	ecx, DWORD PTR __Last$[esp-4]
	push	ebx
	push	esi
	push	edi
	mov	edi, DWORD PTR __First$[esp+8]
	mov	eax, ecx
	sub	eax, edi
	sar	eax, 3
	cmp	eax, 1
	jle	SHORT $LN1@Sort_heap
	mov	ebx, 8
	sub	ebx, edi

; 2218 : 		std::pop_heap(_First, _Last);

	cmp	eax, 1
	lea	esi, DWORD PTR [ecx-8]
	jle	SHORT $LN2@Sort_heap
$LN24@Sort_heap:
	mov	eax, DWORD PTR [edi]
	mov	ecx, DWORD PTR [esi]
	mov	edx, DWORD PTR [esi+4]
	mov	DWORD PTR [esi], eax
	mov	eax, DWORD PTR [edi+4]
	sub	esp, 8
	mov	DWORD PTR [esi+4], eax
	mov	eax, esp
	mov	DWORD PTR [eax], ecx
	lea	ecx, DWORD PTR [ebx+esi-8]
	sar	ecx, 3
	push	ecx
	push	0
	push	edi
	mov	DWORD PTR [eax+4], edx
	call	??$_Adjust_heap@PAUWeightedElement@?$CvWeightedVector@H$0BC@$00@@HU12@@std@@YAXPAUWeightedElement@?$CvWeightedVector@H$0BC@$00@@HHU12@@Z ; std::_Adjust_heap<CvWeightedVector<int,18,1>::WeightedElement *,int,CvWeightedVector<int,18,1>::WeightedElement>
	add	esp, 20					; 00000014H
$LN2@Sort_heap:
	sub	esi, 8
	lea	eax, DWORD PTR [ebx+esi]
	sar	eax, 3
	cmp	eax, 1
	jg	SHORT $LN24@Sort_heap
$LN1@Sort_heap:

; 2219 : 	}

	pop	edi
	pop	esi
	pop	ebx
	ret	0
??$_Sort_heap@PAUWeightedElement@?$CvWeightedVector@H$0BC@$00@@@std@@YAXPAUWeightedElement@?$CvWeightedVector@H$0BC@$00@@0@Z ENDP ; std::_Sort_heap<CvWeightedVector<int,18,1>::WeightedElement *>
_TEXT	ENDS
PUBLIC	?Reset@CvProjectProductionAI@@QAEXXZ		; CvProjectProductionAI::Reset
; Function compile flags: /Ogtpy
; File c:\users\enormousapplepie\documents\github\lekmod\lekmod_dll\cvgamecoredll_expansion2\cvprojectproductionai.cpp
;	COMDAT ?Reset@CvProjectProductionAI@@QAEXXZ
_TEXT	SEGMENT
?Reset@CvProjectProductionAI@@QAEXXZ PROC		; CvProjectProductionAI::Reset, COMDAT
; _this$ = ecx

; 27   : {

	push	ebx
	push	esi
	mov	esi, ecx
	push	edi

; 28   : 	m_ProjectAIWeights.clear();

	xor	ebx, ebx

; 29   : 
; 30   : 	// Loop through reading each one and add an entry with 0 weight to our vector
; 31   : #ifdef AUI_WARNING_FIXES
; 32   : 	for (uint i = 0; i < GC.GetGameProjects()->GetNumProjects(); i++)
; 33   : #else
; 34   : 	for(int i = 0; i < GC.GetGameProjects()->GetNumProjects(); i++)

	mov	ecx, OFFSET ?gGlobals@@3VCvGlobals@@A	; gGlobals
	mov	DWORD PTR [esi+8], ebx
	xor	edi, edi
	call	?GetGameProjects@CvGlobals@@QBEPAVCvProjectXMLEntries@@XZ ; CvGlobals::GetGameProjects
	mov	ecx, eax
	call	?GetNumProjects@CvProjectXMLEntries@@QAEHXZ ; CvProjectXMLEntries::GetNumProjects
	test	eax, eax
	jle	SHORT $LN1@Reset
	add	esi, 4
$LL3@Reset:

; 35   : #endif
; 36   : 	{
; 37   : 		m_ProjectAIWeights.push_back(i, 0);

	mov	eax, DWORD PTR [esi+8]
	mov	BYTE PTR [esi+156], bl
	cmp	DWORD PTR [esi+4], eax
	jne	SHORT $LN20@Reset
	push	eax
	mov	ecx, esi
	call	?GrowSize@?$FStaticVector@UWeightedElement@?$CvWeightedVector@H$0BC@$00@@$0BC@$00$0A@$0A@@@IAEXI@Z ; FStaticVector<CvWeightedVector<int,18,1>::WeightedElement,18,1,0,0>::GrowSize
$LN20@Reset:
	mov	eax, DWORD PTR [esi+4]
	mov	ecx, DWORD PTR [esi]
	lea	eax, DWORD PTR [ecx+eax*8]
	cmp	eax, ebx
	je	SHORT $LN23@Reset
	mov	DWORD PTR [eax], edi
	mov	DWORD PTR [eax+4], ebx
$LN23@Reset:
	inc	DWORD PTR [esi+4]
	mov	ecx, OFFSET ?gGlobals@@3VCvGlobals@@A	; gGlobals
	inc	edi
	call	?GetGameProjects@CvGlobals@@QBEPAVCvProjectXMLEntries@@XZ ; CvGlobals::GetGameProjects
	mov	ecx, eax
	call	?GetNumProjects@CvProjectXMLEntries@@QAEHXZ ; CvProjectXMLEntries::GetNumProjects
	cmp	edi, eax
	jl	SHORT $LL3@Reset
$LN1@Reset:
	pop	edi
	pop	esi
	pop	ebx

; 38   : 	}
; 39   : }

	ret	0
?Reset@CvProjectProductionAI@@QAEXXZ ENDP		; CvProjectProductionAI::Reset
_TEXT	ENDS
PUBLIC	?Read@CvProjectProductionAI@@QAEXAAVFDataStream@@@Z ; CvProjectProductionAI::Read
; Function compile flags: /Ogtpy
;	COMDAT ?Read@CvProjectProductionAI@@QAEXAAVFDataStream@@@Z
_TEXT	SEGMENT
_uiVersion$ = -4					; size = 4
_iWeight$ = 8						; size = 4
_kStream$ = 8						; size = 4
?Read@CvProjectProductionAI@@QAEXAAVFDataStream@@@Z PROC ; CvProjectProductionAI::Read, COMDAT
; _this$ = ecx

; 43   : {

	push	ecx
	push	ebx

; 44   : 	// Version number to maintain backwards compatibility
; 45   : 	uint uiVersion;
; 46   : 	kStream >> uiVersion;

	mov	ebx, DWORD PTR _kStream$[esp+4]
	push	esi
	push	edi
	lea	eax, DWORD PTR _uiVersion$[esp+16]
	mov	esi, ecx
	push	eax
	mov	ecx, ebx
	call	?Read@FDataStream@@IAEXAAI@Z		; FDataStream::Read

; 47   : 
; 48   : 	int iWeight;
; 49   : 
; 50   : 	// Reset vector
; 51   : 	m_ProjectAIWeights.clear();

	xor	edi, edi

; 52   : 
; 53   : 	// Loop through reading each one and adding it to our vector
; 54   : #ifdef AUI_WARNING_FIXES
; 55   : 	for (uint i = 0; i < GC.GetGameProjects()->GetNumProjects(); i++)
; 56   : #else
; 57   : 	for(int i = 0; i < GC.GetGameProjects()->GetNumProjects(); i++)

	mov	ecx, OFFSET ?gGlobals@@3VCvGlobals@@A	; gGlobals
	mov	DWORD PTR [esi+8], edi
	call	?GetGameProjects@CvGlobals@@QBEPAVCvProjectXMLEntries@@XZ ; CvGlobals::GetGameProjects
	mov	ecx, eax
	call	?GetNumProjects@CvProjectXMLEntries@@QAEHXZ ; CvProjectXMLEntries::GetNumProjects
	test	eax, eax
	jle	SHORT $LN1@Read
	add	esi, 4
	push	ebp
$LL3@Read:

; 58   : #endif
; 59   : 	{
; 60   : 		kStream >> iWeight;

	lea	ecx, DWORD PTR _iWeight$[esp+16]
	push	ecx
	mov	ecx, ebx
	call	?Read@FDataStream@@IAEXAAH@Z		; FDataStream::Read

; 61   : 		m_ProjectAIWeights.push_back(i, iWeight);

	mov	eax, DWORD PTR [esi+8]
	mov	ebp, DWORD PTR _iWeight$[esp+16]
	mov	BYTE PTR [esi+156], 0
	cmp	DWORD PTR [esi+4], eax
	jne	SHORT $LN24@Read
	push	eax
	mov	ecx, esi
	call	?GrowSize@?$FStaticVector@UWeightedElement@?$CvWeightedVector@H$0BC@$00@@$0BC@$00$0A@$0A@@@IAEXI@Z ; FStaticVector<CvWeightedVector<int,18,1>::WeightedElement,18,1,0,0>::GrowSize
$LN24@Read:
	mov	edx, DWORD PTR [esi+4]
	mov	eax, DWORD PTR [esi]
	lea	eax, DWORD PTR [eax+edx*8]
	test	eax, eax
	je	SHORT $LN27@Read
	mov	DWORD PTR [eax], edi
	mov	DWORD PTR [eax+4], ebp
$LN27@Read:
	inc	DWORD PTR [esi+4]
	mov	ecx, OFFSET ?gGlobals@@3VCvGlobals@@A	; gGlobals
	inc	edi
	call	?GetGameProjects@CvGlobals@@QBEPAVCvProjectXMLEntries@@XZ ; CvGlobals::GetGameProjects
	mov	ecx, eax
	call	?GetNumProjects@CvProjectXMLEntries@@QAEHXZ ; CvProjectXMLEntries::GetNumProjects
	cmp	edi, eax
	jl	SHORT $LL3@Read
	pop	ebp
$LN1@Read:
	pop	edi
	pop	esi
	pop	ebx

; 62   : 	}
; 63   : }

	pop	ecx
	ret	4
?Read@CvProjectProductionAI@@QAEXAAVFDataStream@@@Z ENDP ; CvProjectProductionAI::Read
_TEXT	ENDS
PUBLIC	??$sort_heap@PAUWeightedElement@?$CvWeightedVector@H$0BC@$00@@@std@@YAXPAUWeightedElement@?$CvWeightedVector@H$0BC@$00@@0@Z ; std::sort_heap<CvWeightedVector<int,18,1>::WeightedElement *>
; Function compile flags: /Ogtpy
; File c:\program files (x86)\microsoft visual studio 9.0\vc\include\algorithm
;	COMDAT ??$sort_heap@PAUWeightedElement@?$CvWeightedVector@H$0BC@$00@@@std@@YAXPAUWeightedElement@?$CvWeightedVector@H$0BC@$00@@0@Z
_TEXT	SEGMENT
__First$ = 8						; size = 4
__Last$ = 12						; size = 4
??$sort_heap@PAUWeightedElement@?$CvWeightedVector@H$0BC@$00@@@std@@YAXPAUWeightedElement@?$CvWeightedVector@H$0BC@$00@@0@Z PROC ; std::sort_heap<CvWeightedVector<int,18,1>::WeightedElement *>, COMDAT

; 2224 : 	_DEBUG_HEAP(_First, _Last);
; 2225 : 	_Sort_heap(_CHECKED_BASE(_First), _CHECKED_BASE(_Last));

	jmp	??$_Sort_heap@PAUWeightedElement@?$CvWeightedVector@H$0BC@$00@@@std@@YAXPAUWeightedElement@?$CvWeightedVector@H$0BC@$00@@0@Z ; std::_Sort_heap<CvWeightedVector<int,18,1>::WeightedElement *>
??$sort_heap@PAUWeightedElement@?$CvWeightedVector@H$0BC@$00@@@std@@YAXPAUWeightedElement@?$CvWeightedVector@H$0BC@$00@@0@Z ENDP ; std::sort_heap<CvWeightedVector<int,18,1>::WeightedElement *>
_TEXT	ENDS
PUBLIC	??$_Sort@PAUWeightedElement@?$CvWeightedVector@H$0BC@$00@@H@std@@YAXPAUWeightedElement@?$CvWeightedVector@H$0BC@$00@@0H@Z ; std::_Sort<CvWeightedVector<int,18,1>::WeightedElement *,int>
; Function compile flags: /Ogtpy
;	COMDAT ??$_Sort@PAUWeightedElement@?$CvWeightedVector@H$0BC@$00@@H@std@@YAXPAUWeightedElement@?$CvWeightedVector@H$0BC@$00@@0H@Z
_TEXT	SEGMENT
__Mid$217916 = -8					; size = 8
__First$ = 8						; size = 4
__Last$ = 12						; size = 4
__Ideal$ = 16						; size = 4
??$_Sort@PAUWeightedElement@?$CvWeightedVector@H$0BC@$00@@H@std@@YAXPAUWeightedElement@?$CvWeightedVector@H$0BC@$00@@0H@Z PROC ; std::_Sort<CvWeightedVector<int,18,1>::WeightedElement *,int>, COMDAT

; 3082 : 	{	// order [_First, _Last), using operator<

	sub	esp, 8
	push	ebx

; 3083 : 	_Diff _Count;
; 3084 : 	for (; _ISORT_MAX < (_Count = _Last - _First) && 0 < _Ideal; )

	mov	ebx, DWORD PTR __First$[esp+8]
	push	ebp
	push	esi
	push	edi
	mov	edi, DWORD PTR __Last$[esp+20]
	mov	eax, edi
	sub	eax, ebx
	sar	eax, 3
	cmp	eax, 32					; 00000020H
	jle	SHORT $LN25@Sort
	mov	esi, DWORD PTR __Ideal$[esp+20]
	npad	1
$LL7@Sort:
	test	esi, esi
	jle	SHORT $LN6@Sort

; 3085 : 		{	// divide and conquer by quicksort
; 3086 : 		pair<_RanIt, _RanIt> _Mid =
; 3087 : 			std::_Unguarded_partition(_First, _Last);

	push	edi
	lea	eax, DWORD PTR __Mid$217916[esp+28]
	push	ebx
	push	eax
	call	??$_Unguarded_partition@PAUWeightedElement@?$CvWeightedVector@H$0BC@$00@@@std@@YA?AU?$pair@PAUWeightedElement@?$CvWeightedVector@H$0BC@$00@@PAU12@@0@PAUWeightedElement@?$CvWeightedVector@H$0BC@$00@@0@Z ; std::_Unguarded_partition<CvWeightedVector<int,18,1>::WeightedElement *>

; 3088 : 		_Ideal /= 2, _Ideal += _Ideal / 2;	// allow 1.5 log2(N) divisions
; 3089 : 
; 3090 : 		if (_Mid.first - _First < _Last - _Mid.second)

	mov	ebp, DWORD PTR __Mid$217916[esp+40]
	mov	eax, esi
	cdq
	sub	eax, edx
	sar	eax, 1
	mov	esi, eax
	cdq
	sub	eax, edx
	sar	eax, 1
	add	esi, eax
	mov	eax, DWORD PTR __Mid$217916[esp+36]
	mov	ecx, edi
	mov	edx, eax
	sub	ecx, ebp
	sub	edx, ebx
	add	esp, 12					; 0000000cH
	and	ecx, -8					; fffffff8H
	and	edx, -8					; fffffff8H
	cmp	edx, ecx

; 3091 : 			{	// loop on second half
; 3092 : 			std::_Sort(_First, _Mid.first, _Ideal);

	push	esi
	jge	SHORT $LN5@Sort
	push	eax
	push	ebx
	call	??$_Sort@PAUWeightedElement@?$CvWeightedVector@H$0BC@$00@@H@std@@YAXPAUWeightedElement@?$CvWeightedVector@H$0BC@$00@@0H@Z ; std::_Sort<CvWeightedVector<int,18,1>::WeightedElement *,int>

; 3093 : 			_First = _Mid.second;

	mov	ebx, ebp

; 3094 : 			}
; 3095 : 		else

	jmp	SHORT $LN26@Sort
$LN5@Sort:

; 3096 : 			{	// loop on first half
; 3097 : 			std::_Sort(_Mid.second, _Last, _Ideal);

	push	edi
	push	ebp
	call	??$_Sort@PAUWeightedElement@?$CvWeightedVector@H$0BC@$00@@H@std@@YAXPAUWeightedElement@?$CvWeightedVector@H$0BC@$00@@0H@Z ; std::_Sort<CvWeightedVector<int,18,1>::WeightedElement *,int>

; 3098 : 			_Last = _Mid.first;

	mov	edi, DWORD PTR __Mid$217916[esp+36]
$LN26@Sort:
	mov	eax, edi
	sub	eax, ebx
	sar	eax, 3
	add	esp, 12					; 0000000cH
	cmp	eax, 32					; 00000020H
	jg	SHORT $LL7@Sort
$LN25@Sort:

; 3106 : 		}
; 3107 : 	else if (1 < _Count)

	cmp	eax, 1
	jle	SHORT $LN19@Sort

; 3108 : 		std::_Insertion_sort(_First, _Last);	// small

	push	0
	push	edi
	push	ebx
	call	??$_Insertion_sort1@PAUWeightedElement@?$CvWeightedVector@H$0BC@$00@@U12@@std@@YAXPAUWeightedElement@?$CvWeightedVector@H$0BC@$00@@00@Z ; std::_Insertion_sort1<CvWeightedVector<int,18,1>::WeightedElement *,CvWeightedVector<int,18,1>::WeightedElement>
	add	esp, 12					; 0000000cH
$LN19@Sort:
	pop	edi
	pop	esi
	pop	ebp
	pop	ebx

; 3109 : 	}

	add	esp, 8
	ret	0
$LN6@Sort:

; 3099 : 			}
; 3100 : 		}
; 3101 : 
; 3102 : 	if (_ISORT_MAX < _Count)

	cmp	eax, 32					; 00000020H
	jle	SHORT $LN25@Sort

; 3103 : 		{	// heap sort if too many divisions
; 3104 : 		std::make_heap(_First, _Last);

	mov	eax, edi
	sub	eax, ebx
	and	eax, -8					; fffffff8H
	cmp	eax, 8
	jle	SHORT $LN10@Sort
	push	0
	push	0
	push	edi
	push	ebx
	call	??$_Make_heap@PAUWeightedElement@?$CvWeightedVector@H$0BC@$00@@HU12@@std@@YAXPAUWeightedElement@?$CvWeightedVector@H$0BC@$00@@0PAH0@Z ; std::_Make_heap<CvWeightedVector<int,18,1>::WeightedElement *,int,CvWeightedVector<int,18,1>::WeightedElement>
	add	esp, 16					; 00000010H
$LN10@Sort:

; 3105 : 		std::sort_heap(_First, _Last);

	push	edi
	push	ebx
	call	??$_Sort_heap@PAUWeightedElement@?$CvWeightedVector@H$0BC@$00@@@std@@YAXPAUWeightedElement@?$CvWeightedVector@H$0BC@$00@@0@Z ; std::_Sort_heap<CvWeightedVector<int,18,1>::WeightedElement *>
	add	esp, 8
	pop	edi
	pop	esi
	pop	ebp
	pop	ebx

; 3109 : 	}

	add	esp, 8
	ret	0
??$_Sort@PAUWeightedElement@?$CvWeightedVector@H$0BC@$00@@H@std@@YAXPAUWeightedElement@?$CvWeightedVector@H$0BC@$00@@0H@Z ENDP ; std::_Sort<CvWeightedVector<int,18,1>::WeightedElement *,int>
_TEXT	ENDS
PUBLIC	??$sort@PAUWeightedElement@?$CvWeightedVector@H$0BC@$00@@@std@@YAXPAUWeightedElement@?$CvWeightedVector@H$0BC@$00@@0@Z ; std::sort<CvWeightedVector<int,18,1>::WeightedElement *>
; Function compile flags: /Ogtpy
;	COMDAT ??$sort@PAUWeightedElement@?$CvWeightedVector@H$0BC@$00@@@std@@YAXPAUWeightedElement@?$CvWeightedVector@H$0BC@$00@@0@Z
_TEXT	SEGMENT
__First$ = 8						; size = 4
__Last$ = 12						; size = 4
??$sort@PAUWeightedElement@?$CvWeightedVector@H$0BC@$00@@@std@@YAXPAUWeightedElement@?$CvWeightedVector@H$0BC@$00@@0@Z PROC ; std::sort<CvWeightedVector<int,18,1>::WeightedElement *>, COMDAT

; 3114 : 	_DEBUG_RANGE(_First, _Last);
; 3115 : 	std::_Sort(_CHECKED_BASE(_First), _CHECKED_BASE(_Last), _Last - _First);

	mov	eax, DWORD PTR __Last$[esp-4]
	mov	ecx, DWORD PTR __First$[esp-4]
	mov	edx, eax
	sub	edx, ecx
	sar	edx, 3
	push	edx
	push	eax
	push	ecx
	call	??$_Sort@PAUWeightedElement@?$CvWeightedVector@H$0BC@$00@@H@std@@YAXPAUWeightedElement@?$CvWeightedVector@H$0BC@$00@@0H@Z ; std::_Sort<CvWeightedVector<int,18,1>::WeightedElement *,int>
	add	esp, 12					; 0000000cH

; 3116 : 	}

	ret	0
??$sort@PAUWeightedElement@?$CvWeightedVector@H$0BC@$00@@@std@@YAXPAUWeightedElement@?$CvWeightedVector@H$0BC@$00@@0@Z ENDP ; std::sort<CvWeightedVector<int,18,1>::WeightedElement *>
_TEXT	ENDS
PUBLIC	?SortItems@?$CvWeightedVector@H$0BC@$00@@QAEXXZ	; CvWeightedVector<int,18,1>::SortItems
; Function compile flags: /Ogtpy
; File c:\users\enormousapplepie\documents\github\lekmod\lekmod_dll\cvgamecoredllutil\include\cvweightedvector.h
;	COMDAT ?SortItems@?$CvWeightedVector@H$0BC@$00@@QAEXXZ
_TEXT	SEGMENT
?SortItems@?$CvWeightedVector@H$0BC@$00@@QAEXXZ PROC	; CvWeightedVector<int,18,1>::SortItems, COMDAT
; _this$ = ecx

; 140  : 		std::sort(m_pItems.begin(), m_pItems.end());

	mov	eax, DWORD PTR [ecx]
	mov	ecx, DWORD PTR [ecx+4]
	lea	ecx, DWORD PTR [eax+ecx*8]
	mov	edx, ecx
	sub	edx, eax
	sar	edx, 3
	push	edx
	push	ecx
	push	eax
	call	??$_Sort@PAUWeightedElement@?$CvWeightedVector@H$0BC@$00@@H@std@@YAXPAUWeightedElement@?$CvWeightedVector@H$0BC@$00@@0H@Z ; std::_Sort<CvWeightedVector<int,18,1>::WeightedElement *,int>
	add	esp, 12					; 0000000cH

; 141  : 	}

	ret	0
?SortItems@?$CvWeightedVector@H$0BC@$00@@QAEXXZ ENDP	; CvWeightedVector<int,18,1>::SortItems
_TEXT	ENDS
PUBLIC	?RecommendProject@CvProjectProductionAI@@QAE?AW4ProjectTypes@@XZ ; CvProjectProductionAI::RecommendProject
EXTRN	?ReweightByTurnsLeft@CityStrategyAIHelpers@@YAHHH@Z:PROC ; CityStrategyAIHelpers::ReweightByTurnsLeft
EXTRN	?getProductionTurnsLeft@CvCity@@QBEHW4ProjectTypes@@H@Z:PROC ; CvCity::getProductionTurnsLeft
EXTRN	?canCreate@CvCity@@QBE_NW4ProjectTypes@@_N1@Z:PROC ; CvCity::canCreate
; Function compile flags: /Ogtpy
; File c:\users\enormousapplepie\documents\github\lekmod\lekmod_dll\cvgamecoredll_expansion2\cvprojectproductionai.cpp
;	COMDAT ?RecommendProject@CvProjectProductionAI@@QAE?AW4ProjectTypes@@XZ
_TEXT	SEGMENT
_elem$220237 = -8					; size = 8
?RecommendProject@CvProjectProductionAI@@QAE?AW4ProjectTypes@@XZ PROC ; CvProjectProductionAI::RecommendProject, COMDAT
; _this$ = ecx

; 113  : {

	sub	esp, 8
	push	ebp
	push	edi
	mov	ebp, ecx

; 114  : 	CvAssert(m_pCity);
; 115  : 	if(!m_pCity)

	xor	edi, edi
	cmp	DWORD PTR [ebp], edi

; 116  : 		return NO_PROJECT;

	je	$LN2@RecommendP

; 117  : 
; 118  : #ifdef AUI_WARNING_FIXES
; 119  : 	uint iProjectLoop;
; 120  : #else
; 121  : 	int iProjectLoop;
; 122  : #endif
; 123  : 	int iWeight;
; 124  : 	int iTurnsLeft;
; 125  : 
; 126  : 	// Reset list of all the possible projects
; 127  : 	m_Buildables.clear();
; 128  : 
; 129  : 	// Loop through adding the available projects
; 130  : 	for(iProjectLoop = 0; iProjectLoop < GC.GetGameProjects()->GetNumProjects(); iProjectLoop++)

	mov	ecx, OFFSET ?gGlobals@@3VCvGlobals@@A	; gGlobals
	mov	DWORD PTR [ebp+168], edi
	call	?GetGameProjects@CvGlobals@@QBEPAVCvProjectXMLEntries@@XZ ; CvGlobals::GetGameProjects
	mov	ecx, eax
	call	?GetNumProjects@CvProjectXMLEntries@@QAEHXZ ; CvProjectXMLEntries::GetNumProjects
	test	eax, eax
	jle	$LN4@RecommendP
	push	ebx
	push	esi
$LL59@RecommendP:

; 131  : 	{
; 132  : 		// Make sure this project can be built now
; 133  : 		if(m_pCity->canCreate((ProjectTypes)iProjectLoop))

	mov	ecx, DWORD PTR [ebp]
	push	0
	push	0
	push	edi
	call	?canCreate@CvCity@@QBE_NW4ProjectTypes@@_N1@Z ; CvCity::canCreate
	test	al, al
	je	SHORT $LN5@RecommendP

; 134  : 		{
; 135  : 			// Update weight based on turns to construct
; 136  : 			iTurnsLeft = m_pCity->getProductionTurnsLeft((ProjectTypes) iProjectLoop, 0);

	mov	ecx, DWORD PTR [ebp]
	push	0
	push	edi
	call	?getProductionTurnsLeft@CvCity@@QBEHW4ProjectTypes@@H@Z ; CvCity::getProductionTurnsLeft

; 137  : 			iWeight = CityStrategyAIHelpers::ReweightByTurnsLeft(m_ProjectAIWeights.GetWeight((ProjectTypes)iProjectLoop), iTurnsLeft);

	mov	ecx, DWORD PTR [ebp+4]
	mov	edx, DWORD PTR [ecx+edi*8]
	mov	ecx, DWORD PTR [ecx+edi*8+4]
	push	eax
	push	ecx
	mov	DWORD PTR _elem$220237[esp+32], edx

; 138  : 			m_Buildables.push_back(iProjectLoop, iWeight);

	lea	esi, DWORD PTR [ebp+164]
	call	?ReweightByTurnsLeft@CityStrategyAIHelpers@@YAHHH@Z ; CityStrategyAIHelpers::ReweightByTurnsLeft
	mov	ebx, eax
	mov	eax, DWORD PTR [esi+8]
	add	esp, 8
	mov	BYTE PTR [esi+156], 0
	cmp	DWORD PTR [esi+4], eax
	jne	SHORT $LN30@RecommendP
	push	eax
	mov	ecx, esi
	call	?GrowSize@?$FStaticVector@UWeightedElement@?$CvWeightedVector@H$0BC@$00@@$0BC@$00$0A@$0A@@@IAEXI@Z ; FStaticVector<CvWeightedVector<int,18,1>::WeightedElement,18,1,0,0>::GrowSize
$LN30@RecommendP:
	mov	eax, DWORD PTR [esi+4]
	mov	ecx, DWORD PTR [esi]
	lea	eax, DWORD PTR [ecx+eax*8]
	test	eax, eax
	je	SHORT $LN33@RecommendP
	mov	DWORD PTR [eax], edi
	mov	DWORD PTR [eax+4], ebx
$LN33@RecommendP:
	inc	DWORD PTR [esi+4]
$LN5@RecommendP:

; 117  : 
; 118  : #ifdef AUI_WARNING_FIXES
; 119  : 	uint iProjectLoop;
; 120  : #else
; 121  : 	int iProjectLoop;
; 122  : #endif
; 123  : 	int iWeight;
; 124  : 	int iTurnsLeft;
; 125  : 
; 126  : 	// Reset list of all the possible projects
; 127  : 	m_Buildables.clear();
; 128  : 
; 129  : 	// Loop through adding the available projects
; 130  : 	for(iProjectLoop = 0; iProjectLoop < GC.GetGameProjects()->GetNumProjects(); iProjectLoop++)

	mov	ecx, OFFSET ?gGlobals@@3VCvGlobals@@A	; gGlobals
	inc	edi
	call	?GetGameProjects@CvGlobals@@QBEPAVCvProjectXMLEntries@@XZ ; CvGlobals::GetGameProjects
	mov	ecx, eax
	call	?GetNumProjects@CvProjectXMLEntries@@QAEHXZ ; CvProjectXMLEntries::GetNumProjects
	cmp	edi, eax
	jl	SHORT $LL59@RecommendP
	pop	esi
	pop	ebx
$LN4@RecommendP:

; 139  : 		}
; 140  : 	}
; 141  : 
; 142  : 	// Sort items and grab the first one
; 143  : 	if(m_Buildables.size() > 0)

	cmp	DWORD PTR [ebp+168], 0
	jle	SHORT $LN2@RecommendP

; 144  : 	{
; 145  : 		m_Buildables.SortItems();

	mov	eax, DWORD PTR [ebp+164]
	mov	edx, DWORD PTR [ebp+168]
	lea	ecx, DWORD PTR [eax+edx*8]
	mov	edx, ecx
	sub	edx, eax
	sar	edx, 3
	push	edx
	push	ecx
	push	eax
	call	??$_Sort@PAUWeightedElement@?$CvWeightedVector@H$0BC@$00@@H@std@@YAXPAUWeightedElement@?$CvWeightedVector@H$0BC@$00@@0H@Z ; std::_Sort<CvWeightedVector<int,18,1>::WeightedElement *,int>
	add	esp, 12					; 0000000cH

; 146  : 		LogPossibleBuilds();

	mov	ecx, ebp
	call	?LogPossibleBuilds@CvProjectProductionAI@@QAEXXZ ; CvProjectProductionAI::LogPossibleBuilds

; 147  : 		return (ProjectTypes)m_Buildables.GetElement(0);

	mov	eax, DWORD PTR [ebp+164]
	mov	eax, DWORD PTR [eax]
	pop	edi
	pop	ebp

; 154  : 	}
; 155  : }

	add	esp, 8
	ret	0
$LN2@RecommendP:
	pop	edi

; 148  : 	}
; 149  : 
; 150  : 	// Unless we didn't find any
; 151  : 	else
; 152  : 	{
; 153  : 		return NO_PROJECT;

	or	eax, -1
	pop	ebp

; 154  : 	}
; 155  : }

	add	esp, 8
	ret	0
?RecommendProject@CvProjectProductionAI@@QAE?AW4ProjectTypes@@XZ ENDP ; CvProjectProductionAI::RecommendProject
_TEXT	ENDS
END
