; Listing generated by Microsoft (R) Optimizing Compiler Version 15.00.30729.01 

	TITLE	c:\Users\EnormousApplePie\Desktop\Lekmod Files\Lekmod DLL versions\v29\LEKMOD_DLL\CvGameCoreDLL_Expansion2\CvReplayMessage.cpp
	.686P
	.XMM
	include listing.inc
	.model	flat

INCLUDELIB MSVCRT
INCLUDELIB OLDNAMES

PUBLIC	?Version@CvReplayMessage@@SAIXZ			; CvReplayMessage::Version
; Function compile flags: /Ogtpy
; File c:\users\enormousapplepie\desktop\lekmod files\lekmod dll versions\v29\lekmod_dll\cvgamecoredll_expansion2\cvreplaymessage.cpp
;	COMDAT ?Version@CvReplayMessage@@SAIXZ
_TEXT	SEGMENT
?Version@CvReplayMessage@@SAIXZ PROC			; CvReplayMessage::Version, COMDAT

; 18   : 	return 2;

	mov	eax, 2

; 19   : }

	ret	0
?Version@CvReplayMessage@@SAIXZ ENDP			; CvReplayMessage::Version
_TEXT	ENDS
PUBLIC	?setTurn@CvReplayMessage@@QAEXH@Z		; CvReplayMessage::setTurn
; Function compile flags: /Ogtpy
;	COMDAT ?setTurn@CvReplayMessage@@QAEXH@Z
_TEXT	SEGMENT
_iTurn$ = 8						; size = 4
?setTurn@CvReplayMessage@@QAEXH@Z PROC			; CvReplayMessage::setTurn, COMDAT
; _this$ = ecx

; 41   : 	m_iTurn = iTurn;

	mov	eax, DWORD PTR _iTurn$[esp-4]
	mov	DWORD PTR [ecx+4], eax

; 42   : }

	ret	4
?setTurn@CvReplayMessage@@QAEXH@Z ENDP			; CvReplayMessage::setTurn
_TEXT	ENDS
PUBLIC	?getTurn@CvReplayMessage@@QBEHXZ		; CvReplayMessage::getTurn
; Function compile flags: /Ogtpy
;	COMDAT ?getTurn@CvReplayMessage@@QBEHXZ
_TEXT	SEGMENT
?getTurn@CvReplayMessage@@QBEHXZ PROC			; CvReplayMessage::getTurn, COMDAT
; _this$ = ecx

; 46   : 	return m_iTurn;

	mov	eax, DWORD PTR [ecx+4]

; 47   : }

	ret	0
?getTurn@CvReplayMessage@@QBEHXZ ENDP			; CvReplayMessage::getTurn
_TEXT	ENDS
PUBLIC	?setType@CvReplayMessage@@QAEXW4ReplayMessageTypes@@@Z ; CvReplayMessage::setType
; Function compile flags: /Ogtpy
;	COMDAT ?setType@CvReplayMessage@@QAEXW4ReplayMessageTypes@@@Z
_TEXT	SEGMENT
_eType$ = 8						; size = 4
?setType@CvReplayMessage@@QAEXW4ReplayMessageTypes@@@Z PROC ; CvReplayMessage::setType, COMDAT
; _this$ = ecx

; 51   : 	m_eType = eType;

	mov	eax, DWORD PTR _eType$[esp-4]
	mov	DWORD PTR [ecx+8], eax

; 52   : }

	ret	4
?setType@CvReplayMessage@@QAEXW4ReplayMessageTypes@@@Z ENDP ; CvReplayMessage::setType
_TEXT	ENDS
PUBLIC	?getType@CvReplayMessage@@QBE?AW4ReplayMessageTypes@@XZ ; CvReplayMessage::getType
; Function compile flags: /Ogtpy
;	COMDAT ?getType@CvReplayMessage@@QBE?AW4ReplayMessageTypes@@XZ
_TEXT	SEGMENT
?getType@CvReplayMessage@@QBE?AW4ReplayMessageTypes@@XZ PROC ; CvReplayMessage::getType, COMDAT
; _this$ = ecx

; 56   : 	return m_eType;

	mov	eax, DWORD PTR [ecx+8]

; 57   : }

	ret	0
?getType@CvReplayMessage@@QBE?AW4ReplayMessageTypes@@XZ ENDP ; CvReplayMessage::getType
_TEXT	ENDS
PUBLIC	?setPlayer@CvReplayMessage@@QAEXW4PlayerTypes@@@Z ; CvReplayMessage::setPlayer
; Function compile flags: /Ogtpy
;	COMDAT ?setPlayer@CvReplayMessage@@QAEXW4PlayerTypes@@@Z
_TEXT	SEGMENT
_ePlayer$ = 8						; size = 4
?setPlayer@CvReplayMessage@@QAEXW4PlayerTypes@@@Z PROC	; CvReplayMessage::setPlayer, COMDAT
; _this$ = ecx

; 61   : 	m_ePlayer = ePlayer;

	mov	eax, DWORD PTR _ePlayer$[esp-4]
	mov	DWORD PTR [ecx+28], eax

; 62   : }

	ret	4
?setPlayer@CvReplayMessage@@QAEXW4PlayerTypes@@@Z ENDP	; CvReplayMessage::setPlayer
_TEXT	ENDS
PUBLIC	?getPlayer@CvReplayMessage@@QBE?AW4PlayerTypes@@XZ ; CvReplayMessage::getPlayer
; Function compile flags: /Ogtpy
;	COMDAT ?getPlayer@CvReplayMessage@@QBE?AW4PlayerTypes@@XZ
_TEXT	SEGMENT
?getPlayer@CvReplayMessage@@QBE?AW4PlayerTypes@@XZ PROC	; CvReplayMessage::getPlayer, COMDAT
; _this$ = ecx

; 66   : 	return m_ePlayer;

	mov	eax, DWORD PTR [ecx+28]

; 67   : }

	ret	0
?getPlayer@CvReplayMessage@@QBE?AW4PlayerTypes@@XZ ENDP	; CvReplayMessage::getPlayer
_TEXT	ENDS
PUBLIC	?getText@CvReplayMessage@@QBEABVCvString@@XZ	; CvReplayMessage::getText
; Function compile flags: /Ogtpy
;	COMDAT ?getText@CvReplayMessage@@QBEABVCvString@@XZ
_TEXT	SEGMENT
?getText@CvReplayMessage@@QBEABVCvString@@XZ PROC	; CvReplayMessage::getText, COMDAT
; _this$ = ecx

; 76   : 	return m_strText;

	lea	eax, DWORD PTR [ecx+32]

; 77   : }

	ret	0
?getText@CvReplayMessage@@QBEABVCvString@@XZ ENDP	; CvReplayMessage::getText
_TEXT	ENDS
PUBLIC	?size@?$vector@U?$pair@FF@std@@V?$allocator@U?$pair@FF@std@@@2@@std@@QBEIXZ ; std::vector<std::pair<short,short>,std::allocator<std::pair<short,short> > >::size
; Function compile flags: /Ogtpy
; File c:\program files (x86)\microsoft visual studio 9.0\vc\include\vector
;	COMDAT ?size@?$vector@U?$pair@FF@std@@V?$allocator@U?$pair@FF@std@@@2@@std@@QBEIXZ
_TEXT	SEGMENT
?size@?$vector@U?$pair@FF@std@@V?$allocator@U?$pair@FF@std@@@2@@std@@QBEIXZ PROC ; std::vector<std::pair<short,short>,std::allocator<std::pair<short,short> > >::size, COMDAT
; _this$ = ecx

; 726  : 		return (_Mylast - _Myfirst);

	mov	eax, DWORD PTR [ecx+8]
	sub	eax, DWORD PTR [ecx+4]
	sar	eax, 2

; 727  : 		}

	ret	0
?size@?$vector@U?$pair@FF@std@@V?$allocator@U?$pair@FF@std@@@2@@std@@QBEIXZ ENDP ; std::vector<std::pair<short,short>,std::allocator<std::pair<short,short> > >::size
_TEXT	ENDS
PUBLIC	??A?$vector@U?$pair@FF@std@@V?$allocator@U?$pair@FF@std@@@2@@std@@QBEABU?$pair@FF@1@I@Z ; std::vector<std::pair<short,short>,std::allocator<std::pair<short,short> > >::operator[]
; Function compile flags: /Ogtpy
;	COMDAT ??A?$vector@U?$pair@FF@std@@V?$allocator@U?$pair@FF@std@@@2@@std@@QBEABU?$pair@FF@1@I@Z
_TEXT	SEGMENT
__Pos$ = 8						; size = 4
??A?$vector@U?$pair@FF@std@@V?$allocator@U?$pair@FF@std@@@2@@std@@QBEABU?$pair@FF@1@I@Z PROC ; std::vector<std::pair<short,short>,std::allocator<std::pair<short,short> > >::operator[], COMDAT
; _this$ = ecx

; 760  : 
; 761  :  #if _HAS_ITERATOR_DEBUGGING
; 762  : 		if (size() <= _Pos)
; 763  : 			{
; 764  : 			_DEBUG_ERROR("vector subscript out of range");
; 765  : 			_SCL_SECURE_OUT_OF_RANGE;
; 766  : 			}
; 767  :  #endif /* _HAS_ITERATOR_DEBUGGING */
; 768  : 		_SCL_SECURE_VALIDATE_RANGE(_Pos < size());
; 769  : 
; 770  : 		return (*(_Myfirst + _Pos));

	mov	eax, DWORD PTR [ecx+4]
	mov	ecx, DWORD PTR __Pos$[esp-4]
	lea	eax, DWORD PTR [eax+ecx*4]

; 771  : 		}

	ret	4
??A?$vector@U?$pair@FF@std@@V?$allocator@U?$pair@FF@std@@@2@@std@@QBEABU?$pair@FF@1@I@Z ENDP ; std::vector<std::pair<short,short>,std::allocator<std::pair<short,short> > >::operator[]
_TEXT	ENDS
PUBLIC	??D?$_Vector_const_iterator@U?$pair@FF@std@@V?$allocator@U?$pair@FF@std@@@2@@std@@QBEABU?$pair@FF@1@XZ ; std::_Vector_const_iterator<std::pair<short,short>,std::allocator<std::pair<short,short> > >::operator*
; Function compile flags: /Ogtpy
;	COMDAT ??D?$_Vector_const_iterator@U?$pair@FF@std@@V?$allocator@U?$pair@FF@std@@@2@@std@@QBEABU?$pair@FF@1@XZ
_TEXT	SEGMENT
??D?$_Vector_const_iterator@U?$pair@FF@std@@V?$allocator@U?$pair@FF@std@@@2@@std@@QBEABU?$pair@FF@1@XZ PROC ; std::_Vector_const_iterator<std::pair<short,short>,std::allocator<std::pair<short,short> > >::operator*, COMDAT
; _this$ = ecx

; 92   : 
; 93   :  #if _HAS_ITERATOR_DEBUGGING
; 94   : 		if (this->_Mycont == 0
; 95   : 			|| _Myptr < ((_Myvec *)this->_Mycont)->_Myfirst
; 96   : 			|| ((_Myvec *)this->_Mycont)->_Mylast <= _Myptr)
; 97   : 			{
; 98   : 			_DEBUG_ERROR("vector iterator not dereferencable");
; 99   : 			_SCL_SECURE_OUT_OF_RANGE;
; 100  : 			}
; 101  :  #else
; 102  :  		_SCL_SECURE_VALIDATE(this->_Has_container());
; 103  : 		_SCL_SECURE_VALIDATE_RANGE(_Myptr < ((_Myvec *)(this->_Getmycont()))->_Mylast);
; 104  :  #endif /* _HAS_ITERATOR_DEBUGGING */
; 105  : 
; 106  : 		return (*_Myptr);

	mov	eax, DWORD PTR [ecx]

; 107  : 		}

	ret	0
??D?$_Vector_const_iterator@U?$pair@FF@std@@V?$allocator@U?$pair@FF@std@@@2@@std@@QBEABU?$pair@FF@1@XZ ENDP ; std::_Vector_const_iterator<std::pair<short,short>,std::allocator<std::pair<short,short> > >::operator*
_TEXT	ENDS
PUBLIC	??E?$_Vector_const_iterator@U?$pair@FF@std@@V?$allocator@U?$pair@FF@std@@@2@@std@@QAEAAV01@XZ ; std::_Vector_const_iterator<std::pair<short,short>,std::allocator<std::pair<short,short> > >::operator++
; Function compile flags: /Ogtpy
;	COMDAT ??E?$_Vector_const_iterator@U?$pair@FF@std@@V?$allocator@U?$pair@FF@std@@@2@@std@@QAEAAV01@XZ
_TEXT	SEGMENT
??E?$_Vector_const_iterator@U?$pair@FF@std@@V?$allocator@U?$pair@FF@std@@@2@@std@@QAEAAV01@XZ PROC ; std::_Vector_const_iterator<std::pair<short,short>,std::allocator<std::pair<short,short> > >::operator++, COMDAT
; _this$ = ecx

; 115  : 		{	// preincrement

	mov	eax, ecx

; 116  : 		_SCL_SECURE_VALIDATE(this->_Has_container());
; 117  : 		_SCL_SECURE_VALIDATE_RANGE(_Myptr < ((_Myvec *)(this->_Getmycont()))->_Mylast);
; 118  : 
; 119  :  #if _HAS_ITERATOR_DEBUGGING
; 120  : 		if (this->_Mycont == 0
; 121  : 			|| ((_Myvec *)this->_Mycont)->_Mylast <= _Myptr)
; 122  : 			_DEBUG_ERROR("vector iterator not incrementable");
; 123  :  #endif /* _HAS_ITERATOR_DEBUGGING */
; 124  : 
; 125  : 		++_Myptr;

	add	DWORD PTR [eax], 4

; 126  : 		return (*this);
; 127  : 		}

	ret	0
??E?$_Vector_const_iterator@U?$pair@FF@std@@V?$allocator@U?$pair@FF@std@@@2@@std@@QAEAAV01@XZ ENDP ; std::_Vector_const_iterator<std::pair<short,short>,std::allocator<std::pair<short,short> > >::operator++
_TEXT	ENDS
PUBLIC	??0?$pair@FF@std@@QAE@ABF0@Z			; std::pair<short,short>::pair<short,short>
; Function compile flags: /Ogtpy
; File c:\program files (x86)\microsoft visual studio 9.0\vc\include\utility
;	COMDAT ??0?$pair@FF@std@@QAE@ABF0@Z
_TEXT	SEGMENT
__Val1$ = 8						; size = 4
__Val2$ = 12						; size = 4
??0?$pair@FF@std@@QAE@ABF0@Z PROC			; std::pair<short,short>::pair<short,short>, COMDAT
; _this$ = ecx

; 50   : 		{	// construct from specified values

	mov	eax, ecx
	mov	ecx, DWORD PTR __Val1$[esp-4]
	movzx	edx, WORD PTR [ecx]
	mov	ecx, DWORD PTR __Val2$[esp-4]
	mov	WORD PTR [eax], dx
	movzx	edx, WORD PTR [ecx]
	mov	WORD PTR [eax+2], dx

; 51   : 		}

	ret	8
??0?$pair@FF@std@@QAE@ABF0@Z ENDP			; std::pair<short,short>::pair<short,short>
_TEXT	ENDS
PUBLIC	?capacity@?$vector@U?$pair@FF@std@@V?$allocator@U?$pair@FF@std@@@2@@std@@QBEIXZ ; std::vector<std::pair<short,short>,std::allocator<std::pair<short,short> > >::capacity
; Function compile flags: /Ogtpy
; File c:\program files (x86)\microsoft visual studio 9.0\vc\include\vector
;	COMDAT ?capacity@?$vector@U?$pair@FF@std@@V?$allocator@U?$pair@FF@std@@@2@@std@@QBEIXZ
_TEXT	SEGMENT
?capacity@?$vector@U?$pair@FF@std@@V?$allocator@U?$pair@FF@std@@@2@@std@@QBEIXZ PROC ; std::vector<std::pair<short,short>,std::allocator<std::pair<short,short> > >::capacity, COMDAT
; _this$ = ecx

; 635  : 		return (_Myfirst == 0 ? 0 : _Myend - _Myfirst);

	mov	edx, DWORD PTR [ecx+4]
	test	edx, edx
	jne	SHORT $LN3@capacity
	xor	eax, eax

; 636  : 		}

	ret	0
$LN3@capacity:

; 635  : 		return (_Myfirst == 0 ? 0 : _Myend - _Myfirst);

	mov	eax, DWORD PTR [ecx+12]
	sub	eax, edx
	sar	eax, 2

; 636  : 		}

	ret	0
?capacity@?$vector@U?$pair@FF@std@@V?$allocator@U?$pair@FF@std@@@2@@std@@QBEIXZ ENDP ; std::vector<std::pair<short,short>,std::allocator<std::pair<short,short> > >::capacity
_TEXT	ENDS
PUBLIC	??1?$_Container_base_aux_alloc_empty@V?$allocator@U?$pair@FF@std@@@std@@@std@@IAE@XZ ; std::_Container_base_aux_alloc_empty<std::allocator<std::pair<short,short> > >::~_Container_base_aux_alloc_empty<std::allocator<std::pair<short,short> > >
; Function compile flags: /Ogtpy
; File c:\program files (x86)\microsoft visual studio 9.0\vc\include\xutility
;	COMDAT ??1?$_Container_base_aux_alloc_empty@V?$allocator@U?$pair@FF@std@@@std@@@std@@IAE@XZ
_TEXT	SEGMENT
??1?$_Container_base_aux_alloc_empty@V?$allocator@U?$pair@FF@std@@@std@@@std@@IAE@XZ PROC ; std::_Container_base_aux_alloc_empty<std::allocator<std::pair<short,short> > >::~_Container_base_aux_alloc_empty<std::allocator<std::pair<short,short> > >, COMDAT
; _this$ = ecx

; 627  : 	~_Container_base_aux_alloc_empty() { }

	ret	0
??1?$_Container_base_aux_alloc_empty@V?$allocator@U?$pair@FF@std@@@std@@@std@@IAE@XZ ENDP ; std::_Container_base_aux_alloc_empty<std::allocator<std::pair<short,short> > >::~_Container_base_aux_alloc_empty<std::allocator<std::pair<short,short> > >
_TEXT	ENDS
PUBLIC	??0?$allocator@U?$pair@FF@std@@@std@@QAE@XZ	; std::allocator<std::pair<short,short> >::allocator<std::pair<short,short> >
; Function compile flags: /Ogtpy
; File c:\program files (x86)\microsoft visual studio 9.0\vc\include\xmemory
;	COMDAT ??0?$allocator@U?$pair@FF@std@@@std@@QAE@XZ
_TEXT	SEGMENT
??0?$allocator@U?$pair@FF@std@@@std@@QAE@XZ PROC	; std::allocator<std::pair<short,short> >::allocator<std::pair<short,short> >, COMDAT
; _this$ = ecx

; 119  : 	allocator() _THROW0()

	mov	eax, ecx

; 120  : 		{	// construct default allocator (do nothing)
; 121  : 		}

	ret	0
??0?$allocator@U?$pair@FF@std@@@std@@QAE@XZ ENDP	; std::allocator<std::pair<short,short> >::allocator<std::pair<short,short> >
_TEXT	ENDS
PUBLIC	?deallocate@?$allocator@U?$pair@FF@std@@@std@@QAEXPAU?$pair@FF@2@I@Z ; std::allocator<std::pair<short,short> >::deallocate
EXTRN	??3@YAXPAX@Z:PROC				; operator delete
; Function compile flags: /Ogtpy
;	COMDAT ?deallocate@?$allocator@U?$pair@FF@std@@@std@@QAEXPAU?$pair@FF@2@I@Z
_TEXT	SEGMENT
__Ptr$ = 8						; size = 4
___formal$ = 12						; size = 4
?deallocate@?$allocator@U?$pair@FF@std@@@std@@QAEXPAU?$pair@FF@2@I@Z PROC ; std::allocator<std::pair<short,short> >::deallocate, COMDAT
; _this$ = ecx

; 140  : 		::operator delete(_Ptr);

	mov	eax, DWORD PTR __Ptr$[esp-4]
	push	eax
	call	??3@YAXPAX@Z				; operator delete
	pop	ecx

; 141  : 		}

	ret	8
?deallocate@?$allocator@U?$pair@FF@std@@@std@@QAEXPAU?$pair@FF@2@I@Z ENDP ; std::allocator<std::pair<short,short> >::deallocate
_TEXT	ENDS
PUBLIC	??0?$_Vector_const_iterator@U?$pair@FF@std@@V?$allocator@U?$pair@FF@std@@@2@@std@@QAE@PAU?$pair@FF@1@@Z ; std::_Vector_const_iterator<std::pair<short,short>,std::allocator<std::pair<short,short> > >::_Vector_const_iterator<std::pair<short,short>,std::allocator<std::pair<short,short> > >
; Function compile flags: /Ogtpy
; File c:\program files (x86)\microsoft visual studio 9.0\vc\include\vector
;	COMDAT ??0?$_Vector_const_iterator@U?$pair@FF@std@@V?$allocator@U?$pair@FF@std@@@2@@std@@QAE@PAU?$pair@FF@1@@Z
_TEXT	SEGMENT
__Ptr$ = 8						; size = 4
??0?$_Vector_const_iterator@U?$pair@FF@std@@V?$allocator@U?$pair@FF@std@@@2@@std@@QAE@PAU?$pair@FF@1@@Z PROC ; std::_Vector_const_iterator<std::pair<short,short>,std::allocator<std::pair<short,short> > >::_Vector_const_iterator<std::pair<short,short>,std::allocator<std::pair<short,short> > >, COMDAT
; _this$ = ecx

; 84   : 	explicit _Vector_const_iterator(_Tptr _Ptr)

	mov	eax, ecx

; 85   : 		{	// construct with pointer _Ptr
; 86   : 		_Myptr = _Ptr;

	mov	ecx, DWORD PTR __Ptr$[esp-4]
	mov	DWORD PTR [eax], ecx

; 87   : 		}

	ret	4
??0?$_Vector_const_iterator@U?$pair@FF@std@@V?$allocator@U?$pair@FF@std@@@2@@std@@QAE@PAU?$pair@FF@1@@Z ENDP ; std::_Vector_const_iterator<std::pair<short,short>,std::allocator<std::pair<short,short> > >::_Vector_const_iterator<std::pair<short,short>,std::allocator<std::pair<short,short> > >
_TEXT	ENDS
PUBLIC	??8?$_Vector_const_iterator@U?$pair@FF@std@@V?$allocator@U?$pair@FF@std@@@2@@std@@QBE_NABV01@@Z ; std::_Vector_const_iterator<std::pair<short,short>,std::allocator<std::pair<short,short> > >::operator==
; Function compile flags: /Ogtpy
;	COMDAT ??8?$_Vector_const_iterator@U?$pair@FF@std@@V?$allocator@U?$pair@FF@std@@@2@@std@@QBE_NABV01@@Z
_TEXT	SEGMENT
__Right$ = 8						; size = 4
??8?$_Vector_const_iterator@U?$pair@FF@std@@V?$allocator@U?$pair@FF@std@@@2@@std@@QBE_NABV01@@Z PROC ; std::_Vector_const_iterator<std::pair<short,short>,std::allocator<std::pair<short,short> > >::operator==, COMDAT
; _this$ = ecx

; 204  : 
; 205  :  #if _HAS_ITERATOR_DEBUGGING
; 206  : 		_Compat(_Right);
; 207  :  #else
; 208  : 		_SCL_SECURE_VALIDATE(this->_Has_container() && this->_Same_container(_Right));
; 209  :  #endif /* _HAS_ITERATOR_DEBUGGING */
; 210  : 
; 211  : 		return (_Myptr == _Right._Myptr);

	mov	eax, DWORD PTR [ecx]
	mov	edx, DWORD PTR __Right$[esp-4]
	xor	ecx, ecx
	cmp	eax, DWORD PTR [edx]
	sete	cl
	mov	al, cl

; 212  : 		}

	ret	4
??8?$_Vector_const_iterator@U?$pair@FF@std@@V?$allocator@U?$pair@FF@std@@@2@@std@@QBE_NABV01@@Z ENDP ; std::_Vector_const_iterator<std::pair<short,short>,std::allocator<std::pair<short,short> > >::operator==
_TEXT	ENDS
PUBLIC	??0?$_Container_base_aux_alloc_empty@V?$allocator@U?$pair@FF@std@@@std@@@std@@IAE@V?$allocator@U?$pair@FF@std@@@1@@Z ; std::_Container_base_aux_alloc_empty<std::allocator<std::pair<short,short> > >::_Container_base_aux_alloc_empty<std::allocator<std::pair<short,short> > >
; Function compile flags: /Ogtpy
; File c:\program files (x86)\microsoft visual studio 9.0\vc\include\xutility
;	COMDAT ??0?$_Container_base_aux_alloc_empty@V?$allocator@U?$pair@FF@std@@@std@@@std@@IAE@V?$allocator@U?$pair@FF@std@@@1@@Z
_TEXT	SEGMENT
___formal$ = 8						; size = 1
??0?$_Container_base_aux_alloc_empty@V?$allocator@U?$pair@FF@std@@@std@@@std@@IAE@V?$allocator@U?$pair@FF@std@@@1@@Z PROC ; std::_Container_base_aux_alloc_empty<std::allocator<std::pair<short,short> > >::_Container_base_aux_alloc_empty<std::allocator<std::pair<short,short> > >, COMDAT
; _this$ = ecx

; 618  : 	explicit _Container_base_aux_alloc_empty(_Alloc) { }

	mov	eax, ecx
	ret	4
??0?$_Container_base_aux_alloc_empty@V?$allocator@U?$pair@FF@std@@@std@@@std@@IAE@V?$allocator@U?$pair@FF@std@@@1@@Z ENDP ; std::_Container_base_aux_alloc_empty<std::allocator<std::pair<short,short> > >::_Container_base_aux_alloc_empty<std::allocator<std::pair<short,short> > >
_TEXT	ENDS
PUBLIC	??0?$allocator@U?$pair@FF@std@@@std@@QAE@ABV01@@Z ; std::allocator<std::pair<short,short> >::allocator<std::pair<short,short> >
; Function compile flags: /Ogtpy
; File c:\program files (x86)\microsoft visual studio 9.0\vc\include\xmemory
;	COMDAT ??0?$allocator@U?$pair@FF@std@@@std@@QAE@ABV01@@Z
_TEXT	SEGMENT
___formal$ = 8						; size = 4
??0?$allocator@U?$pair@FF@std@@@std@@QAE@ABV01@@Z PROC	; std::allocator<std::pair<short,short> >::allocator<std::pair<short,short> >, COMDAT
; _this$ = ecx

; 123  : 	allocator(const allocator<_Ty>&) _THROW0()

	mov	eax, ecx

; 124  : 		{	// construct by copying (do nothing)
; 125  : 		}

	ret	4
??0?$allocator@U?$pair@FF@std@@@std@@QAE@ABV01@@Z ENDP	; std::allocator<std::pair<short,short> >::allocator<std::pair<short,short> >
_TEXT	ENDS
PUBLIC	?max_size@?$allocator@U?$pair@FF@std@@@std@@QBEIXZ ; std::allocator<std::pair<short,short> >::max_size
; Function compile flags: /Ogtpy
;	COMDAT ?max_size@?$allocator@U?$pair@FF@std@@@std@@QBEIXZ
_TEXT	SEGMENT
?max_size@?$allocator@U?$pair@FF@std@@@std@@QBEIXZ PROC	; std::allocator<std::pair<short,short> >::max_size, COMDAT
; _this$ = ecx

; 165  : 		_SIZT _Count = (_SIZT)(-1) / sizeof (_Ty);
; 166  : 		return (0 < _Count ? _Count : 1);

	mov	eax, 1073741823				; 3fffffffH

; 167  : 		}

	ret	0
?max_size@?$allocator@U?$pair@FF@std@@@std@@QBEIXZ ENDP	; std::allocator<std::pair<short,short> >::max_size
_TEXT	ENDS
PUBLIC	??G?$_Vector_const_iterator@U?$pair@FF@std@@V?$allocator@U?$pair@FF@std@@@2@@std@@QBEHABV01@@Z ; std::_Vector_const_iterator<std::pair<short,short>,std::allocator<std::pair<short,short> > >::operator-
; Function compile flags: /Ogtpy
; File c:\program files (x86)\microsoft visual studio 9.0\vc\include\vector
;	COMDAT ??G?$_Vector_const_iterator@U?$pair@FF@std@@V?$allocator@U?$pair@FF@std@@@2@@std@@QBEHABV01@@Z
_TEXT	SEGMENT
__Right$ = 8						; size = 4
??G?$_Vector_const_iterator@U?$pair@FF@std@@V?$allocator@U?$pair@FF@std@@@2@@std@@QBEHABV01@@Z PROC ; std::_Vector_const_iterator<std::pair<short,short>,std::allocator<std::pair<short,short> > >::operator-, COMDAT
; _this$ = ecx

; 187  : 
; 188  :  #if _HAS_ITERATOR_DEBUGGING
; 189  : 		_Compat(_Right);
; 190  :  #else
; 191  : 		_SCL_SECURE_VALIDATE(this->_Has_container() && this->_Same_container(_Right));
; 192  :  #endif /* _HAS_ITERATOR_DEBUGGING */
; 193  : 
; 194  : 		return (_Myptr - _Right._Myptr);

	mov	eax, DWORD PTR [ecx]
	mov	ecx, DWORD PTR __Right$[esp-4]
	sub	eax, DWORD PTR [ecx]
	sar	eax, 2

; 195  : 		}

	ret	4
??G?$_Vector_const_iterator@U?$pair@FF@std@@V?$allocator@U?$pair@FF@std@@@2@@std@@QBEHABV01@@Z ENDP ; std::_Vector_const_iterator<std::pair<short,short>,std::allocator<std::pair<short,short> > >::operator-
_TEXT	ENDS
PUBLIC	??Y?$_Vector_const_iterator@U?$pair@FF@std@@V?$allocator@U?$pair@FF@std@@@2@@std@@QAEAAV01@H@Z ; std::_Vector_const_iterator<std::pair<short,short>,std::allocator<std::pair<short,short> > >::operator+=
; Function compile flags: /Ogtpy
;	COMDAT ??Y?$_Vector_const_iterator@U?$pair@FF@std@@V?$allocator@U?$pair@FF@std@@@2@@std@@QAEAAV01@H@Z
_TEXT	SEGMENT
__Off$ = 8						; size = 4
??Y?$_Vector_const_iterator@U?$pair@FF@std@@V?$allocator@U?$pair@FF@std@@@2@@std@@QAEAAV01@H@Z PROC ; std::_Vector_const_iterator<std::pair<short,short>,std::allocator<std::pair<short,short> > >::operator+=, COMDAT
; _this$ = ecx

; 159  : 		{	// increment by integer

	mov	eax, ecx

; 160  : 		_SCL_SECURE_VALIDATE(this->_Has_container());
; 161  : 		_SCL_SECURE_VALIDATE_RANGE(
; 162  : 			_Myptr + _Off <= ((_Myvec *)(this->_Getmycont()))->_Mylast &&
; 163  : 			_Myptr + _Off >= ((_Myvec *)(this->_Getmycont()))->_Myfirst);
; 164  : 		_Myptr += _Off;

	mov	ecx, DWORD PTR __Off$[esp-4]
	lea	edx, DWORD PTR [ecx*4]
	add	DWORD PTR [eax], edx

; 165  : 		return (*this);
; 166  : 		}

	ret	4
??Y?$_Vector_const_iterator@U?$pair@FF@std@@V?$allocator@U?$pair@FF@std@@@2@@std@@QAEAAV01@H@Z ENDP ; std::_Vector_const_iterator<std::pair<short,short>,std::allocator<std::pair<short,short> > >::operator+=
_TEXT	ENDS
PUBLIC	??$?5F@FDataStream@@QAEAAV0@AAF@Z		; FDataStream::operator>><short>
EXTRN	?Read@FDataStream@@IAEXAAF@Z:PROC		; FDataStream::Read
; Function compile flags: /Ogtpy
; File c:\users\enormousapplepie\desktop\lekmod files\lekmod dll versions\v29\lekmod_dll\fireplace\include\fireworks\fdatastream.h
;	COMDAT ??$?5F@FDataStream@@QAEAAV0@AAF@Z
_TEXT	SEGMENT
_kData$ = 8						; size = 4
??$?5F@FDataStream@@QAEAAV0@AAF@Z PROC			; FDataStream::operator>><short>, COMDAT
; _this$ = ecx

; 260  : 	// If the compiler produces an error here complaining about 
; 261  : 	// YouMustImplementASerializeOperatorForThisTypeError then
; 262  : 	// it could not find a specialization for the type supplied
; 263  : 	// in scope. If a specialization exists, be sure to include
; 264  : 	// the header (FStlContainerSerialization.h, for example), 
; 265  : 	// if not, implement :
; 266  : 	// FDataStream & operator>>(FDataStream &, YourCustomType &)
; 267  : 	Read( kData );

	mov	eax, DWORD PTR _kData$[esp-4]
	push	esi
	push	eax
	mov	esi, ecx
	call	?Read@FDataStream@@IAEXAAF@Z		; FDataStream::Read

; 268  : 	return ( *this );

	mov	eax, esi
	pop	esi

; 269  : }

	ret	4
??$?5F@FDataStream@@QAEAAV0@AAF@Z ENDP			; FDataStream::operator>><short>
_TEXT	ENDS
PUBLIC	??$?6F@FDataStream@@QAEAAV0@ABF@Z		; FDataStream::operator<<<short>
EXTRN	?Write@FDataStream@@IAEXABF@Z:PROC		; FDataStream::Write
; Function compile flags: /Ogtpy
;	COMDAT ??$?6F@FDataStream@@QAEAAV0@ABF@Z
_TEXT	SEGMENT
_kData$ = 8						; size = 4
??$?6F@FDataStream@@QAEAAV0@ABF@Z PROC			; FDataStream::operator<<<short>, COMDAT
; _this$ = ecx

; 246  : 	// If the compiler produces an error here complaining about 
; 247  : 	// YouMustImplementASerializeOperatorForThisTypeError then
; 248  : 	// it could not find a specialization for the type supplied
; 249  : 	// in scope. If a specialization exists, be sure to include
; 250  : 	// the header (FStlContainerSerialization.h, for example), 
; 251  : 	// if not, implement :
; 252  : 	// FDataStream & operator<<(FDataStream &, YourCustomType &)
; 253  : 	Write( kData );

	mov	eax, DWORD PTR _kData$[esp-4]
	push	esi
	push	eax
	mov	esi, ecx
	call	?Write@FDataStream@@IAEXABF@Z		; FDataStream::Write

; 254  : 	return ( *this );

	mov	eax, esi
	pop	esi

; 255  : }

	ret	4
??$?6F@FDataStream@@QAEAAV0@ABF@Z ENDP			; FDataStream::operator<<<short>
_TEXT	ENDS
PUBLIC	??$_Iter_random@PAU?$pair@FF@std@@PAU12@@std@@YA?AUrandom_access_iterator_tag@0@ABQAU?$pair@FF@0@0@Z ; std::_Iter_random<std::pair<short,short> *,std::pair<short,short> *>
; Function compile flags: /Ogtpy
; File c:\program files (x86)\microsoft visual studio 9.0\vc\include\xutility
;	COMDAT ??$_Iter_random@PAU?$pair@FF@std@@PAU12@@std@@YA?AUrandom_access_iterator_tag@0@ABQAU?$pair@FF@0@0@Z
_TEXT	SEGMENT
___$ReturnUdt$ = 8					; size = 4
___formal$ = 12						; size = 4
___formal$ = 16						; size = 4
??$_Iter_random@PAU?$pair@FF@std@@PAU12@@std@@YA?AUrandom_access_iterator_tag@0@ABQAU?$pair@FF@0@0@Z PROC ; std::_Iter_random<std::pair<short,short> *,std::pair<short,short> *>, COMDAT

; 994  : 	typename _Iter_random_helper<
; 995  : 		iterator_traits<_Iter1>::iterator_category, 
; 996  : 		iterator_traits<_Iter2>::iterator_category>::_Iter_random_cat _Cat;
; 997  : 	return (_Cat);

	mov	eax, DWORD PTR ___$ReturnUdt$[esp-4]

; 998  : 	}

	ret	0
??$_Iter_random@PAU?$pair@FF@std@@PAU12@@std@@YA?AUrandom_access_iterator_tag@0@ABQAU?$pair@FF@0@0@Z ENDP ; std::_Iter_random<std::pair<short,short> *,std::pair<short,short> *>
_TEXT	ENDS
PUBLIC	??$_Ptr_cat@PAU?$pair@FF@std@@PAU12@@std@@YA?AU_Nonscalar_ptr_iterator_tag@0@AAPAU?$pair@FF@0@0@Z ; std::_Ptr_cat<std::pair<short,short> *,std::pair<short,short> *>
; Function compile flags: /Ogtpy
;	COMDAT ??$_Ptr_cat@PAU?$pair@FF@std@@PAU12@@std@@YA?AU_Nonscalar_ptr_iterator_tag@0@AAPAU?$pair@FF@0@0@Z
_TEXT	SEGMENT
__Cat$ = -1						; size = 1
___formal$ = 8						; size = 4
___formal$ = 12						; size = 4
??$_Ptr_cat@PAU?$pair@FF@std@@PAU12@@std@@YA?AU_Nonscalar_ptr_iterator_tag@0@AAPAU?$pair@FF@0@0@Z PROC ; std::_Ptr_cat<std::pair<short,short> *,std::pair<short,short> *>, COMDAT

; 1509 : 	{

	push	ecx

; 1510 : 	typename _Ptr_cat_helper<_T1, _T2>::_Ptr_cat _Cat;
; 1511 : 	return (_Cat);

	mov	al, BYTE PTR __Cat$[esp+4]

; 1512 : 	}

	pop	ecx
	ret	0
??$_Ptr_cat@PAU?$pair@FF@std@@PAU12@@std@@YA?AU_Nonscalar_ptr_iterator_tag@0@AAPAU?$pair@FF@0@0@Z ENDP ; std::_Ptr_cat<std::pair<short,short> *,std::pair<short,short> *>
_TEXT	ENDS
PUBLIC	??$_Copy_opt@PAU?$pair@FF@std@@PAU12@Urandom_access_iterator_tag@2@@std@@YAPAU?$pair@FF@0@PAU10@00Urandom_access_iterator_tag@0@U_Nonscalar_ptr_iterator_tag@0@U_Range_checked_iterator_tag@0@@Z ; std::_Copy_opt<std::pair<short,short> *,std::pair<short,short> *,std::random_access_iterator_tag>
; Function compile flags: /Ogtpy
;	COMDAT ??$_Copy_opt@PAU?$pair@FF@std@@PAU12@Urandom_access_iterator_tag@2@@std@@YAPAU?$pair@FF@0@PAU10@00Urandom_access_iterator_tag@0@U_Nonscalar_ptr_iterator_tag@0@U_Range_checked_iterator_tag@0@@Z
_TEXT	SEGMENT
__First$ = 8						; size = 4
__Last$ = 12						; size = 4
__Dest$ = 16						; size = 4
___formal$ = 20						; size = 1
___formal$ = 24						; size = 1
___formal$ = 28						; size = 1
??$_Copy_opt@PAU?$pair@FF@std@@PAU12@Urandom_access_iterator_tag@2@@std@@YAPAU?$pair@FF@0@PAU10@00Urandom_access_iterator_tag@0@U_Nonscalar_ptr_iterator_tag@0@U_Range_checked_iterator_tag@0@@Z PROC ; std::_Copy_opt<std::pair<short,short> *,std::pair<short,short> *,std::random_access_iterator_tag>, COMDAT

; 2470 : 	_DEBUG_RANGE(_First, _Last);
; 2471 : 	for (; _First != _Last; ++_Dest, ++_First)

	mov	ecx, DWORD PTR __First$[esp-4]
	mov	edx, DWORD PTR __Last$[esp-4]
	mov	eax, DWORD PTR __Dest$[esp-4]
	cmp	ecx, edx
	je	SHORT $LN1@Copy_opt
	push	esi
$LL3@Copy_opt:

; 2472 : 		*_Dest = *_First;

	mov	esi, DWORD PTR [ecx]
	mov	DWORD PTR [eax], esi
	add	ecx, 4
	add	eax, 4
	cmp	ecx, edx
	jne	SHORT $LL3@Copy_opt
	pop	esi
$LN1@Copy_opt:

; 2473 : 	return (_Dest);
; 2474 : 	}

	ret	0
??$_Copy_opt@PAU?$pair@FF@std@@PAU12@Urandom_access_iterator_tag@2@@std@@YAPAU?$pair@FF@0@PAU10@00Urandom_access_iterator_tag@0@U_Nonscalar_ptr_iterator_tag@0@U_Range_checked_iterator_tag@0@@Z ENDP ; std::_Copy_opt<std::pair<short,short> *,std::pair<short,short> *,std::random_access_iterator_tag>
_TEXT	ENDS
PUBLIC	??$_Fill@PAU?$pair@FF@std@@U12@@std@@YAXPAU?$pair@FF@0@0ABU10@@Z ; std::_Fill<std::pair<short,short> *,std::pair<short,short> >
; Function compile flags: /Ogtpy
;	COMDAT ??$_Fill@PAU?$pair@FF@std@@U12@@std@@YAXPAU?$pair@FF@0@0ABU10@@Z
_TEXT	SEGMENT
__First$ = 8						; size = 4
__Last$ = 12						; size = 4
__Val$ = 16						; size = 4
??$_Fill@PAU?$pair@FF@std@@U12@@std@@YAXPAU?$pair@FF@0@0ABU10@@Z PROC ; std::_Fill<std::pair<short,short> *,std::pair<short,short> >, COMDAT

; 3157 : 	_DEBUG_RANGE(_First, _Last);
; 3158 : 	for (; _First != _Last; ++_First)

	mov	eax, DWORD PTR __First$[esp-4]
	mov	ecx, DWORD PTR __Last$[esp-4]
	cmp	eax, ecx
	je	SHORT $LN1@Fill
	mov	edx, DWORD PTR __Val$[esp-4]
	push	esi
$LL3@Fill:

; 3159 : 		*_First = _Val;

	mov	esi, DWORD PTR [edx]
	mov	DWORD PTR [eax], esi
	add	eax, 4
	cmp	eax, ecx
	jne	SHORT $LL3@Fill
	pop	esi
$LN1@Fill:

; 3160 : 	}

	ret	0
??$_Fill@PAU?$pair@FF@std@@U12@@std@@YAXPAU?$pair@FF@0@0ABU10@@Z ENDP ; std::_Fill<std::pair<short,short> *,std::pair<short,short> >
_TEXT	ENDS
PUBLIC	??_7bad_alloc@std@@6B@				; std::bad_alloc::`vftable'
PUBLIC	??0bad_alloc@std@@QAE@PBD@Z			; std::bad_alloc::bad_alloc
PUBLIC	??_R4bad_alloc@std@@6B@				; std::bad_alloc::`RTTI Complete Object Locator'
PUBLIC	??_R0?AVbad_alloc@std@@@8			; std::bad_alloc `RTTI Type Descriptor'
PUBLIC	??_R3bad_alloc@std@@8				; std::bad_alloc::`RTTI Class Hierarchy Descriptor'
PUBLIC	??_R2bad_alloc@std@@8				; std::bad_alloc::`RTTI Base Class Array'
PUBLIC	??_R1A@?0A@EA@bad_alloc@std@@8			; std::bad_alloc::`RTTI Base Class Descriptor at (0,-1,0,64)'
PUBLIC	??_R1A@?0A@EA@exception@std@@8			; std::exception::`RTTI Base Class Descriptor at (0,-1,0,64)'
PUBLIC	??_R0?AVexception@std@@@8			; std::exception `RTTI Type Descriptor'
PUBLIC	??_R3exception@std@@8				; std::exception::`RTTI Class Hierarchy Descriptor'
PUBLIC	??_R2exception@std@@8				; std::exception::`RTTI Base Class Array'
EXTRN	__imp_??0exception@std@@QAE@ABQBD@Z:PROC
EXTRN	??_7type_info@@6B@:QWORD			; type_info::`vftable'
EXTRN	??_Ebad_alloc@std@@UAEPAXI@Z:PROC		; std::bad_alloc::`vector deleting destructor'
EXTRN	?what@exception@std@@UBEPBDXZ:PROC		; std::exception::what
;	COMDAT ??_R2exception@std@@8
; File c:\program files (x86)\microsoft visual studio 9.0\vc\include\exception
rdata$r	SEGMENT
??_R2exception@std@@8 DD FLAT:??_R1A@?0A@EA@exception@std@@8 ; std::exception::`RTTI Base Class Array'
rdata$r	ENDS
;	COMDAT ??_R3exception@std@@8
rdata$r	SEGMENT
??_R3exception@std@@8 DD 00H				; std::exception::`RTTI Class Hierarchy Descriptor'
	DD	00H
	DD	01H
	DD	FLAT:??_R2exception@std@@8
rdata$r	ENDS
;	COMDAT ??_R0?AVexception@std@@@8
_DATA	SEGMENT
??_R0?AVexception@std@@@8 DD FLAT:??_7type_info@@6B@	; std::exception `RTTI Type Descriptor'
	DD	00H
	DB	'.?AVexception@std@@', 00H
_DATA	ENDS
;	COMDAT ??_R1A@?0A@EA@exception@std@@8
rdata$r	SEGMENT
??_R1A@?0A@EA@exception@std@@8 DD FLAT:??_R0?AVexception@std@@@8 ; std::exception::`RTTI Base Class Descriptor at (0,-1,0,64)'
	DD	00H
	DD	00H
	DD	0ffffffffH
	DD	00H
	DD	040H
	DD	FLAT:??_R3exception@std@@8
rdata$r	ENDS
;	COMDAT ??_R1A@?0A@EA@bad_alloc@std@@8
rdata$r	SEGMENT
??_R1A@?0A@EA@bad_alloc@std@@8 DD FLAT:??_R0?AVbad_alloc@std@@@8 ; std::bad_alloc::`RTTI Base Class Descriptor at (0,-1,0,64)'
	DD	01H
	DD	00H
	DD	0ffffffffH
	DD	00H
	DD	040H
	DD	FLAT:??_R3bad_alloc@std@@8
rdata$r	ENDS
;	COMDAT ??_R2bad_alloc@std@@8
rdata$r	SEGMENT
??_R2bad_alloc@std@@8 DD FLAT:??_R1A@?0A@EA@bad_alloc@std@@8 ; std::bad_alloc::`RTTI Base Class Array'
	DD	FLAT:??_R1A@?0A@EA@exception@std@@8
rdata$r	ENDS
;	COMDAT ??_R3bad_alloc@std@@8
rdata$r	SEGMENT
??_R3bad_alloc@std@@8 DD 00H				; std::bad_alloc::`RTTI Class Hierarchy Descriptor'
	DD	00H
	DD	02H
	DD	FLAT:??_R2bad_alloc@std@@8
rdata$r	ENDS
;	COMDAT ??_R0?AVbad_alloc@std@@@8
_DATA	SEGMENT
??_R0?AVbad_alloc@std@@@8 DD FLAT:??_7type_info@@6B@	; std::bad_alloc `RTTI Type Descriptor'
	DD	00H
	DB	'.?AVbad_alloc@std@@', 00H
_DATA	ENDS
;	COMDAT ??_R4bad_alloc@std@@6B@
rdata$r	SEGMENT
??_R4bad_alloc@std@@6B@ DD 00H				; std::bad_alloc::`RTTI Complete Object Locator'
	DD	00H
	DD	00H
	DD	FLAT:??_R0?AVbad_alloc@std@@@8
	DD	FLAT:??_R3bad_alloc@std@@8
rdata$r	ENDS
;	COMDAT ??_7bad_alloc@std@@6B@
CONST	SEGMENT
??_7bad_alloc@std@@6B@ DD FLAT:??_R4bad_alloc@std@@6B@	; std::bad_alloc::`vftable'
	DD	FLAT:??_Ebad_alloc@std@@UAEPAXI@Z
	DD	FLAT:?what@exception@std@@UBEPBDXZ
; Function compile flags: /Ogtpy
CONST	ENDS
;	COMDAT ??0bad_alloc@std@@QAE@PBD@Z
_TEXT	SEGMENT
__Message$ = 8						; size = 4
??0bad_alloc@std@@QAE@PBD@Z PROC			; std::bad_alloc::bad_alloc, COMDAT
; _this$ = ecx

; 371  : 		{	// construct from message string

	push	esi
	lea	eax, DWORD PTR __Message$[esp]
	push	eax
	mov	esi, ecx
	call	DWORD PTR __imp_??0exception@std@@QAE@ABQBD@Z
	mov	DWORD PTR [esi], OFFSET ??_7bad_alloc@std@@6B@

; 372  : 		}

	mov	eax, esi
	pop	esi
	ret	4
??0bad_alloc@std@@QAE@PBD@Z ENDP			; std::bad_alloc::bad_alloc
_TEXT	ENDS
PUBLIC	??$_Move_cat@PAU?$pair@FF@std@@@std@@YA?AU_Undefined_move_tag@0@ABQAU?$pair@FF@0@@Z ; std::_Move_cat<std::pair<short,short> *>
; Function compile flags: /Ogtpy
; File c:\program files (x86)\microsoft visual studio 9.0\vc\include\xutility
;	COMDAT ??$_Move_cat@PAU?$pair@FF@std@@@std@@YA?AU_Undefined_move_tag@0@ABQAU?$pair@FF@0@@Z
_TEXT	SEGMENT
__Cat$ = -1						; size = 1
___formal$ = 8						; size = 4
??$_Move_cat@PAU?$pair@FF@std@@@std@@YA?AU_Undefined_move_tag@0@ABQAU?$pair@FF@0@@Z PROC ; std::_Move_cat<std::pair<short,short> *>, COMDAT

; 1200 : 	{

	push	ecx

; 1201 : 		typename _Move_operation_category<typename iterator_traits<_Iter>::value_type>::_Move_cat _Cat;
; 1202 : 		return (_Cat);

	mov	al, BYTE PTR __Cat$[esp+4]

; 1203 : 	}

	pop	ecx
	ret	0
??$_Move_cat@PAU?$pair@FF@std@@@std@@YA?AU_Undefined_move_tag@0@ABQAU?$pair@FF@0@@Z ENDP ; std::_Move_cat<std::pair<short,short> *>
_TEXT	ENDS
PUBLIC	??1bad_alloc@std@@UAE@XZ			; std::bad_alloc::~bad_alloc
EXTRN	__imp_??1exception@std@@UAE@XZ:PROC
; Function compile flags: /Ogtpy
; File c:\program files (x86)\microsoft visual studio 9.0\vc\include\exception
;	COMDAT ??1bad_alloc@std@@UAE@XZ
_TEXT	SEGMENT
??1bad_alloc@std@@UAE@XZ PROC				; std::bad_alloc::~bad_alloc, COMDAT
; _this$ = ecx

; 380  : 		{	// destroy the object

	mov	DWORD PTR [ecx], OFFSET ??_7bad_alloc@std@@6B@

; 381  : 		}

	jmp	DWORD PTR __imp_??1exception@std@@UAE@XZ
??1bad_alloc@std@@UAE@XZ ENDP				; std::bad_alloc::~bad_alloc
; Function compile flags: /Ogtpy
_TEXT	ENDS
;	COMDAT ??_Gbad_alloc@std@@UAEPAXI@Z
_TEXT	SEGMENT
___flags$ = 8						; size = 4
??_Gbad_alloc@std@@UAEPAXI@Z PROC			; std::bad_alloc::`scalar deleting destructor', COMDAT
; _this$ = ecx
	push	esi
	mov	esi, ecx
	mov	DWORD PTR [esi], OFFSET ??_7bad_alloc@std@@6B@
	call	DWORD PTR __imp_??1exception@std@@UAE@XZ
	test	BYTE PTR ___flags$[esp], 1
	je	SHORT $LN6@scalar
	push	esi
	call	??3@YAXPAX@Z				; operator delete
	add	esp, 4
$LN6@scalar:
	mov	eax, esi
	pop	esi
	ret	4
??_Gbad_alloc@std@@UAEPAXI@Z ENDP			; std::bad_alloc::`scalar deleting destructor'
_TEXT	ENDS
PUBLIC	??2@YAPAXIPAX@Z					; operator new
; Function compile flags: /Ogtpy
; File c:\program files (x86)\microsoft visual studio 9.0\vc\include\new
;	COMDAT ??2@YAPAXIPAX@Z
_TEXT	SEGMENT
___formal$ = 8						; size = 4
__Where$ = 12						; size = 4
??2@YAPAXIPAX@Z PROC					; operator new, COMDAT

; 59   : 	return (_Where);

	mov	eax, DWORD PTR __Where$[esp-4]

; 60   : 	}

	ret	0
??2@YAPAXIPAX@Z ENDP					; operator new
_TEXT	ENDS
PUBLIC	??$_Copy_backward_opt@PAU?$pair@FF@std@@PAU12@Urandom_access_iterator_tag@2@@std@@YAPAU?$pair@FF@0@PAU10@00Urandom_access_iterator_tag@0@U_Nonscalar_ptr_iterator_tag@0@U_Range_checked_iterator_tag@0@@Z ; std::_Copy_backward_opt<std::pair<short,short> *,std::pair<short,short> *,std::random_access_iterator_tag>
; Function compile flags: /Ogtpy
; File c:\program files (x86)\microsoft visual studio 9.0\vc\include\xutility
;	COMDAT ??$_Copy_backward_opt@PAU?$pair@FF@std@@PAU12@Urandom_access_iterator_tag@2@@std@@YAPAU?$pair@FF@0@PAU10@00Urandom_access_iterator_tag@0@U_Nonscalar_ptr_iterator_tag@0@U_Range_checked_iterator_tag@0@@Z
_TEXT	SEGMENT
__First$ = 8						; size = 4
__Last$ = 12						; size = 4
__Dest$ = 16						; size = 4
___formal$ = 20						; size = 1
___formal$ = 24						; size = 1
___formal$ = 28						; size = 1
??$_Copy_backward_opt@PAU?$pair@FF@std@@PAU12@Urandom_access_iterator_tag@2@@std@@YAPAU?$pair@FF@0@PAU10@00Urandom_access_iterator_tag@0@U_Nonscalar_ptr_iterator_tag@0@U_Range_checked_iterator_tag@0@@Z PROC ; std::_Copy_backward_opt<std::pair<short,short> *,std::pair<short,short> *,std::random_access_iterator_tag>, COMDAT

; 2674 : 	_DEBUG_RANGE(_First, _Last);
; 2675 : 	while (_First != _Last)

	mov	edx, DWORD PTR __First$[esp-4]
	mov	ecx, DWORD PTR __Last$[esp-4]
	mov	eax, DWORD PTR __Dest$[esp-4]
	cmp	edx, ecx
	je	SHORT $LN1@Copy_backw
	push	esi
$LL2@Copy_backw:

; 2676 : 		*--_Dest = *--_Last;

	mov	esi, DWORD PTR [ecx-4]
	sub	ecx, 4
	sub	eax, 4
	mov	DWORD PTR [eax], esi
	cmp	ecx, edx
	jne	SHORT $LL2@Copy_backw
	pop	esi
$LN1@Copy_backw:

; 2677 : 	return (_Dest);
; 2678 : 	}

	ret	0
??$_Copy_backward_opt@PAU?$pair@FF@std@@PAU12@Urandom_access_iterator_tag@2@@std@@YAPAU?$pair@FF@0@PAU10@00Urandom_access_iterator_tag@0@U_Nonscalar_ptr_iterator_tag@0@U_Range_checked_iterator_tag@0@@Z ENDP ; std::_Copy_backward_opt<std::pair<short,short> *,std::pair<short,short> *,std::random_access_iterator_tag>
_TEXT	ENDS
PUBLIC	??$_Construct@U?$pair@FF@std@@U12@@std@@YAXPAU?$pair@FF@0@ABU10@@Z ; std::_Construct<std::pair<short,short>,std::pair<short,short> >
; Function compile flags: /Ogtpy
; File c:\program files (x86)\microsoft visual studio 9.0\vc\include\xmemory
;	COMDAT ??$_Construct@U?$pair@FF@std@@U12@@std@@YAXPAU?$pair@FF@0@ABU10@@Z
_TEXT	SEGMENT
__Ptr$ = 8						; size = 4
__Val$ = 12						; size = 4
??$_Construct@U?$pair@FF@std@@U12@@std@@YAXPAU?$pair@FF@0@ABU10@@Z PROC ; std::_Construct<std::pair<short,short>,std::pair<short,short> >, COMDAT

; 51   : 	void _FARQ *_Vptr = _Ptr;
; 52   : 	::new (_Vptr) _T1(_Val);

	mov	eax, DWORD PTR __Ptr$[esp-4]
	test	eax, eax
	je	SHORT $LN3@Construct
	mov	ecx, DWORD PTR __Val$[esp-4]
	mov	edx, DWORD PTR [ecx]
	mov	DWORD PTR [eax], edx
$LN3@Construct:

; 53   : 	}

	ret	0
??$_Construct@U?$pair@FF@std@@U12@@std@@YAXPAU?$pair@FF@0@ABU10@@Z ENDP ; std::_Construct<std::pair<short,short>,std::pair<short,short> >
_TEXT	ENDS
PUBLIC	??$_Destroy@U?$pair@FF@std@@@std@@YAXPAU?$pair@FF@0@@Z ; std::_Destroy<std::pair<short,short> >
; Function compile flags: /Ogtpy
;	COMDAT ??$_Destroy@U?$pair@FF@std@@@std@@YAXPAU?$pair@FF@0@@Z
_TEXT	SEGMENT
__Ptr$ = 8						; size = 4
??$_Destroy@U?$pair@FF@std@@@std@@YAXPAU?$pair@FF@0@@Z PROC ; std::_Destroy<std::pair<short,short> >, COMDAT

; 59   : 	_DESTRUCTOR(_Ty, _Ptr);
; 60   : 	}

	ret	0
??$_Destroy@U?$pair@FF@std@@@std@@YAXPAU?$pair@FF@0@@Z ENDP ; std::_Destroy<std::pair<short,short> >
_TEXT	ENDS
PUBLIC	??$_Ptr_cat@V?$_Vector_iterator@U?$pair@FF@std@@V?$allocator@U?$pair@FF@std@@@2@@std@@PAU?$pair@FF@2@@std@@YA?AU_Nonscalar_ptr_iterator_tag@0@AAV?$_Vector_iterator@U?$pair@FF@std@@V?$allocator@U?$pair@FF@std@@@2@@0@AAPAU?$pair@FF@0@@Z ; std::_Ptr_cat<std::_Vector_iterator<std::pair<short,short>,std::allocator<std::pair<short,short> > >,std::pair<short,short> *>
; Function compile flags: /Ogtpy
; File c:\program files (x86)\microsoft visual studio 9.0\vc\include\xutility
;	COMDAT ??$_Ptr_cat@V?$_Vector_iterator@U?$pair@FF@std@@V?$allocator@U?$pair@FF@std@@@2@@std@@PAU?$pair@FF@2@@std@@YA?AU_Nonscalar_ptr_iterator_tag@0@AAV?$_Vector_iterator@U?$pair@FF@std@@V?$allocator@U?$pair@FF@std@@@2@@0@AAPAU?$pair@FF@0@@Z
_TEXT	SEGMENT
__Cat$ = -1						; size = 1
___formal$ = 8						; size = 4
___formal$ = 12						; size = 4
??$_Ptr_cat@V?$_Vector_iterator@U?$pair@FF@std@@V?$allocator@U?$pair@FF@std@@@2@@std@@PAU?$pair@FF@2@@std@@YA?AU_Nonscalar_ptr_iterator_tag@0@AAV?$_Vector_iterator@U?$pair@FF@std@@V?$allocator@U?$pair@FF@std@@@2@@0@AAPAU?$pair@FF@0@@Z PROC ; std::_Ptr_cat<std::_Vector_iterator<std::pair<short,short>,std::allocator<std::pair<short,short> > >,std::pair<short,short> *>, COMDAT

; 1509 : 	{

	push	ecx

; 1510 : 	typename _Ptr_cat_helper<_T1, _T2>::_Ptr_cat _Cat;
; 1511 : 	return (_Cat);

	mov	al, BYTE PTR __Cat$[esp+4]

; 1512 : 	}

	pop	ecx
	ret	0
??$_Ptr_cat@V?$_Vector_iterator@U?$pair@FF@std@@V?$allocator@U?$pair@FF@std@@@2@@std@@PAU?$pair@FF@2@@std@@YA?AU_Nonscalar_ptr_iterator_tag@0@AAV?$_Vector_iterator@U?$pair@FF@std@@V?$allocator@U?$pair@FF@std@@@2@@0@AAPAU?$pair@FF@0@@Z ENDP ; std::_Ptr_cat<std::_Vector_iterator<std::pair<short,short>,std::allocator<std::pair<short,short> > >,std::pair<short,short> *>
_TEXT	ENDS
PUBLIC	??_7logic_error@std@@6B@			; std::logic_error::`vftable'
PUBLIC	??0logic_error@std@@QAE@ABV?$basic_string@DU?$char_traits@D@std@@V?$allocator@D@2@@1@@Z ; std::logic_error::logic_error
PUBLIC	??_R4logic_error@std@@6B@			; std::logic_error::`RTTI Complete Object Locator'
PUBLIC	??_R0?AVlogic_error@std@@@8			; std::logic_error `RTTI Type Descriptor'
PUBLIC	??_R3logic_error@std@@8				; std::logic_error::`RTTI Class Hierarchy Descriptor'
PUBLIC	??_R2logic_error@std@@8				; std::logic_error::`RTTI Base Class Array'
PUBLIC	??_R1A@?0A@EA@logic_error@std@@8		; std::logic_error::`RTTI Base Class Descriptor at (0,-1,0,64)'
PUBLIC	?what@logic_error@std@@UBEPBDXZ			; std::logic_error::what
EXTRN	__imp_??0?$basic_string@DU?$char_traits@D@std@@V?$allocator@D@2@@std@@QAE@ABV01@@Z:PROC
EXTRN	__imp_??0exception@std@@QAE@XZ:PROC
EXTRN	___CxxFrameHandler3:PROC
EXTRN	??_Elogic_error@std@@UAEPAXI@Z:PROC		; std::logic_error::`vector deleting destructor'
;	COMDAT ??_R1A@?0A@EA@logic_error@std@@8
; File c:\program files (x86)\microsoft visual studio 9.0\vc\include\stdexcept
rdata$r	SEGMENT
??_R1A@?0A@EA@logic_error@std@@8 DD FLAT:??_R0?AVlogic_error@std@@@8 ; std::logic_error::`RTTI Base Class Descriptor at (0,-1,0,64)'
	DD	01H
	DD	00H
	DD	0ffffffffH
	DD	00H
	DD	040H
	DD	FLAT:??_R3logic_error@std@@8
rdata$r	ENDS
;	COMDAT ??_R2logic_error@std@@8
rdata$r	SEGMENT
??_R2logic_error@std@@8 DD FLAT:??_R1A@?0A@EA@logic_error@std@@8 ; std::logic_error::`RTTI Base Class Array'
	DD	FLAT:??_R1A@?0A@EA@exception@std@@8
rdata$r	ENDS
;	COMDAT ??_R3logic_error@std@@8
rdata$r	SEGMENT
??_R3logic_error@std@@8 DD 00H				; std::logic_error::`RTTI Class Hierarchy Descriptor'
	DD	00H
	DD	02H
	DD	FLAT:??_R2logic_error@std@@8
rdata$r	ENDS
;	COMDAT ??_R0?AVlogic_error@std@@@8
_DATA	SEGMENT
??_R0?AVlogic_error@std@@@8 DD FLAT:??_7type_info@@6B@	; std::logic_error `RTTI Type Descriptor'
	DD	00H
	DB	'.?AVlogic_error@std@@', 00H
_DATA	ENDS
;	COMDAT ??_R4logic_error@std@@6B@
rdata$r	SEGMENT
??_R4logic_error@std@@6B@ DD 00H			; std::logic_error::`RTTI Complete Object Locator'
	DD	00H
	DD	00H
	DD	FLAT:??_R0?AVlogic_error@std@@@8
	DD	FLAT:??_R3logic_error@std@@8
rdata$r	ENDS
;	COMDAT ??_7logic_error@std@@6B@
CONST	SEGMENT
??_7logic_error@std@@6B@ DD FLAT:??_R4logic_error@std@@6B@ ; std::logic_error::`vftable'
	DD	FLAT:??_Elogic_error@std@@UAEPAXI@Z
	DD	FLAT:?what@logic_error@std@@UBEPBDXZ
CONST	ENDS
;	COMDAT xdata$x
xdata$x	SEGMENT
__unwindtable$??0logic_error@std@@QAE@ABV?$basic_string@DU?$char_traits@D@std@@V?$allocator@D@2@@1@@Z DD 0ffffffffH
	DD	FLAT:__unwindfunclet$??0logic_error@std@@QAE@ABV?$basic_string@DU?$char_traits@D@std@@V?$allocator@D@2@@1@@Z$0
__ehfuncinfo$??0logic_error@std@@QAE@ABV?$basic_string@DU?$char_traits@D@std@@V?$allocator@D@2@@1@@Z DD 019930522H
	DD	01H
	DD	FLAT:__unwindtable$??0logic_error@std@@QAE@ABV?$basic_string@DU?$char_traits@D@std@@V?$allocator@D@2@@1@@Z
	DD	2 DUP(00H)
	DD	2 DUP(00H)
	DD	00H
	DD	01H
; Function compile flags: /Ogtpy
xdata$x	ENDS
;	COMDAT ??0logic_error@std@@QAE@ABV?$basic_string@DU?$char_traits@D@std@@V?$allocator@D@2@@1@@Z
_TEXT	SEGMENT
_this$ = -16						; size = 4
__$EHRec$ = -12						; size = 12
__Message$ = 8						; size = 4
??0logic_error@std@@QAE@ABV?$basic_string@DU?$char_traits@D@std@@V?$allocator@D@2@@1@@Z PROC ; std::logic_error::logic_error, COMDAT
; _this$ = ecx

; 26   : 		{	// construct from message string

	push	-1
	push	__ehhandler$??0logic_error@std@@QAE@ABV?$basic_string@DU?$char_traits@D@std@@V?$allocator@D@2@@1@@Z
	mov	eax, DWORD PTR fs:0
	push	eax
	mov	DWORD PTR fs:0, esp
	push	ecx
	push	esi
	mov	esi, ecx
	mov	DWORD PTR _this$[esp+20], esi
	call	DWORD PTR __imp_??0exception@std@@QAE@XZ
	mov	eax, DWORD PTR __Message$[esp+16]
	push	eax
	lea	ecx, DWORD PTR [esi+12]
	mov	DWORD PTR __$EHRec$[esp+32], 0
	mov	DWORD PTR [esi], OFFSET ??_7logic_error@std@@6B@
	call	DWORD PTR __imp_??0?$basic_string@DU?$char_traits@D@std@@V?$allocator@D@2@@std@@QAE@ABV01@@Z

; 27   : 		}

	mov	ecx, DWORD PTR __$EHRec$[esp+20]
	mov	eax, esi
	pop	esi
	mov	DWORD PTR fs:0, ecx
	add	esp, 16					; 00000010H
	ret	4
_TEXT	ENDS
;	COMDAT text$x
text$x	SEGMENT
__unwindfunclet$??0logic_error@std@@QAE@ABV?$basic_string@DU?$char_traits@D@std@@V?$allocator@D@2@@1@@Z$0:
	mov	ecx, DWORD PTR _this$[ebp]
	jmp	DWORD PTR __imp_??1exception@std@@UAE@XZ
__ehhandler$??0logic_error@std@@QAE@ABV?$basic_string@DU?$char_traits@D@std@@V?$allocator@D@2@@1@@Z:
	mov	eax, OFFSET __ehfuncinfo$??0logic_error@std@@QAE@ABV?$basic_string@DU?$char_traits@D@std@@V?$allocator@D@2@@1@@Z
	jmp	___CxxFrameHandler3
text$x	ENDS
??0logic_error@std@@QAE@ABV?$basic_string@DU?$char_traits@D@std@@V?$allocator@D@2@@1@@Z ENDP ; std::logic_error::logic_error
PUBLIC	??1logic_error@std@@UAE@XZ			; std::logic_error::~logic_error
EXTRN	__imp_??1?$basic_string@DU?$char_traits@D@std@@V?$allocator@D@2@@std@@QAE@XZ:PROC
; Function compile flags: /Ogtpy
;	COMDAT ??1logic_error@std@@UAE@XZ
_TEXT	SEGMENT
??1logic_error@std@@UAE@XZ PROC				; std::logic_error::~logic_error, COMDAT
; _this$ = ecx

; 30   : 		{	// destroy the object

	push	esi
	mov	esi, ecx

; 31   : 		}

	lea	ecx, DWORD PTR [esi+12]
	mov	DWORD PTR [esi], OFFSET ??_7logic_error@std@@6B@
	call	DWORD PTR __imp_??1?$basic_string@DU?$char_traits@D@std@@V?$allocator@D@2@@std@@QAE@XZ
	mov	ecx, esi
	pop	esi
	jmp	DWORD PTR __imp_??1exception@std@@UAE@XZ
??1logic_error@std@@UAE@XZ ENDP				; std::logic_error::~logic_error
_TEXT	ENDS
EXTRN	__imp_?c_str@?$basic_string@DU?$char_traits@D@std@@V?$allocator@D@2@@std@@QBEPBDXZ:PROC
; Function compile flags: /Ogtpy
;	COMDAT ?what@logic_error@std@@UBEPBDXZ
_TEXT	SEGMENT
?what@logic_error@std@@UBEPBDXZ PROC			; std::logic_error::what, COMDAT
; _this$ = ecx

; 35   : 		return (_Str.c_str());

	add	ecx, 12					; 0000000cH
	jmp	DWORD PTR __imp_?c_str@?$basic_string@DU?$char_traits@D@std@@V?$allocator@D@2@@std@@QBEPBDXZ
?what@logic_error@std@@UBEPBDXZ ENDP			; std::logic_error::what
; Function compile flags: /Ogtpy
_TEXT	ENDS
;	COMDAT ??_Glogic_error@std@@UAEPAXI@Z
_TEXT	SEGMENT
___flags$ = 8						; size = 4
??_Glogic_error@std@@UAEPAXI@Z PROC			; std::logic_error::`scalar deleting destructor', COMDAT
; _this$ = ecx
	push	esi
	mov	esi, ecx
	lea	ecx, DWORD PTR [esi+12]
	mov	DWORD PTR [esi], OFFSET ??_7logic_error@std@@6B@
	call	DWORD PTR __imp_??1?$basic_string@DU?$char_traits@D@std@@V?$allocator@D@2@@std@@QAE@XZ
	mov	ecx, esi
	call	DWORD PTR __imp_??1exception@std@@UAE@XZ
	test	BYTE PTR ___flags$[esp], 1
	je	SHORT $LN6@scalar@2
	push	esi
	call	??3@YAXPAX@Z				; operator delete
	add	esp, 4
$LN6@scalar@2:
	mov	eax, esi
	pop	esi
	ret	4
??_Glogic_error@std@@UAEPAXI@Z ENDP			; std::logic_error::`scalar deleting destructor'
_TEXT	ENDS
PUBLIC	??_7length_error@std@@6B@			; std::length_error::`vftable'
PUBLIC	??0length_error@std@@QAE@ABV?$basic_string@DU?$char_traits@D@std@@V?$allocator@D@2@@1@@Z ; std::length_error::length_error
PUBLIC	??_R4length_error@std@@6B@			; std::length_error::`RTTI Complete Object Locator'
PUBLIC	??_R0?AVlength_error@std@@@8			; std::length_error `RTTI Type Descriptor'
PUBLIC	??_R3length_error@std@@8			; std::length_error::`RTTI Class Hierarchy Descriptor'
PUBLIC	??_R2length_error@std@@8			; std::length_error::`RTTI Base Class Array'
PUBLIC	??_R1A@?0A@EA@length_error@std@@8		; std::length_error::`RTTI Base Class Descriptor at (0,-1,0,64)'
EXTRN	??_Elength_error@std@@UAEPAXI@Z:PROC		; std::length_error::`vector deleting destructor'
;	COMDAT ??_R1A@?0A@EA@length_error@std@@8
rdata$r	SEGMENT
??_R1A@?0A@EA@length_error@std@@8 DD FLAT:??_R0?AVlength_error@std@@@8 ; std::length_error::`RTTI Base Class Descriptor at (0,-1,0,64)'
	DD	02H
	DD	00H
	DD	0ffffffffH
	DD	00H
	DD	040H
	DD	FLAT:??_R3length_error@std@@8
rdata$r	ENDS
;	COMDAT ??_R2length_error@std@@8
rdata$r	SEGMENT
??_R2length_error@std@@8 DD FLAT:??_R1A@?0A@EA@length_error@std@@8 ; std::length_error::`RTTI Base Class Array'
	DD	FLAT:??_R1A@?0A@EA@logic_error@std@@8
	DD	FLAT:??_R1A@?0A@EA@exception@std@@8
rdata$r	ENDS
;	COMDAT ??_R3length_error@std@@8
rdata$r	SEGMENT
??_R3length_error@std@@8 DD 00H				; std::length_error::`RTTI Class Hierarchy Descriptor'
	DD	00H
	DD	03H
	DD	FLAT:??_R2length_error@std@@8
rdata$r	ENDS
;	COMDAT ??_R0?AVlength_error@std@@@8
_DATA	SEGMENT
??_R0?AVlength_error@std@@@8 DD FLAT:??_7type_info@@6B@	; std::length_error `RTTI Type Descriptor'
	DD	00H
	DB	'.?AVlength_error@std@@', 00H
_DATA	ENDS
;	COMDAT ??_R4length_error@std@@6B@
rdata$r	SEGMENT
??_R4length_error@std@@6B@ DD 00H			; std::length_error::`RTTI Complete Object Locator'
	DD	00H
	DD	00H
	DD	FLAT:??_R0?AVlength_error@std@@@8
	DD	FLAT:??_R3length_error@std@@8
rdata$r	ENDS
;	COMDAT ??_7length_error@std@@6B@
CONST	SEGMENT
??_7length_error@std@@6B@ DD FLAT:??_R4length_error@std@@6B@ ; std::length_error::`vftable'
	DD	FLAT:??_Elength_error@std@@UAEPAXI@Z
	DD	FLAT:?what@logic_error@std@@UBEPBDXZ
; Function compile flags: /Ogtpy
CONST	ENDS
;	COMDAT ??0length_error@std@@QAE@ABV?$basic_string@DU?$char_traits@D@std@@V?$allocator@D@2@@1@@Z
_TEXT	SEGMENT
__Message$ = 8						; size = 4
??0length_error@std@@QAE@ABV?$basic_string@DU?$char_traits@D@std@@V?$allocator@D@2@@1@@Z PROC ; std::length_error::length_error, COMDAT
; _this$ = ecx

; 105  : 		{	// construct from message string

	mov	eax, DWORD PTR __Message$[esp-4]
	push	esi
	push	eax
	mov	esi, ecx
	call	??0logic_error@std@@QAE@ABV?$basic_string@DU?$char_traits@D@std@@V?$allocator@D@2@@1@@Z ; std::logic_error::logic_error
	mov	DWORD PTR [esi], OFFSET ??_7length_error@std@@6B@

; 106  : 		}

	mov	eax, esi
	pop	esi
	ret	4
??0length_error@std@@QAE@ABV?$basic_string@DU?$char_traits@D@std@@V?$allocator@D@2@@1@@Z ENDP ; std::length_error::length_error
_TEXT	ENDS
PUBLIC	??1length_error@std@@UAE@XZ			; std::length_error::~length_error
; Function compile flags: /Ogtpy
;	COMDAT ??1length_error@std@@UAE@XZ
_TEXT	SEGMENT
??1length_error@std@@UAE@XZ PROC			; std::length_error::~length_error, COMDAT
; _this$ = ecx

; 109  : 		{	// destroy the object

	push	esi
	mov	esi, ecx

; 110  : 		}

	lea	ecx, DWORD PTR [esi+12]
	mov	DWORD PTR [esi], OFFSET ??_7logic_error@std@@6B@
	call	DWORD PTR __imp_??1?$basic_string@DU?$char_traits@D@std@@V?$allocator@D@2@@std@@QAE@XZ
	mov	ecx, esi
	pop	esi
	jmp	DWORD PTR __imp_??1exception@std@@UAE@XZ
??1length_error@std@@UAE@XZ ENDP			; std::length_error::~length_error
; Function compile flags: /Ogtpy
_TEXT	ENDS
;	COMDAT ??_Glength_error@std@@UAEPAXI@Z
_TEXT	SEGMENT
___flags$ = 8						; size = 4
??_Glength_error@std@@UAEPAXI@Z PROC			; std::length_error::`scalar deleting destructor', COMDAT
; _this$ = ecx
	push	esi
	mov	esi, ecx
	lea	ecx, DWORD PTR [esi+12]
	mov	DWORD PTR [esi], OFFSET ??_7logic_error@std@@6B@
	call	DWORD PTR __imp_??1?$basic_string@DU?$char_traits@D@std@@V?$allocator@D@2@@std@@QAE@XZ
	mov	ecx, esi
	call	DWORD PTR __imp_??1exception@std@@UAE@XZ
	test	BYTE PTR ___flags$[esp], 1
	je	SHORT $LN8@scalar@3
	push	esi
	call	??3@YAXPAX@Z				; operator delete
	add	esp, 4
$LN8@scalar@3:
	mov	eax, esi
	pop	esi
	ret	4
??_Glength_error@std@@UAEPAXI@Z ENDP			; std::length_error::`scalar deleting destructor'
_TEXT	ENDS
PUBLIC	??0CvString@@QAE@XZ				; CvString::CvString
EXTRN	__imp_??0?$basic_string@DU?$char_traits@D@std@@V?$allocator@D@2@@std@@QAE@XZ:PROC
; Function compile flags: /Ogtpy
; File c:\users\enormousapplepie\desktop\lekmod files\lekmod dll versions\v29\lekmod_dll\cvgamecoredllutil\include\cvstring.h
;	COMDAT ??0CvString@@QAE@XZ
_TEXT	SEGMENT
??0CvString@@QAE@XZ PROC				; CvString::CvString, COMDAT
; _this$ = ecx

; 23   : 	CvString() {}

	push	esi
	mov	esi, ecx
	call	DWORD PTR __imp_??0?$basic_string@DU?$char_traits@D@std@@V?$allocator@D@2@@std@@QAE@XZ
	mov	eax, esi
	pop	esi
	ret	0
??0CvString@@QAE@XZ ENDP				; CvString::CvString
_TEXT	ENDS
PUBLIC	??1CvString@@QAE@XZ				; CvString::~CvString
; Function compile flags: /Ogtpy
;	COMDAT ??1CvString@@QAE@XZ
_TEXT	SEGMENT
??1CvString@@QAE@XZ PROC				; CvString::~CvString, COMDAT
; _this$ = ecx

; 28   : 	~CvString() {}

	jmp	DWORD PTR __imp_??1?$basic_string@DU?$char_traits@D@std@@V?$allocator@D@2@@std@@QAE@XZ
??1CvString@@QAE@XZ ENDP				; CvString::~CvString
_TEXT	ENDS
PUBLIC	??4CvString@@QAEAAV0@ABV0@@Z			; CvString::operator=
EXTRN	__imp_??4?$basic_string@DU?$char_traits@D@std@@V?$allocator@D@2@@std@@QAEAAV01@ABV01@@Z:PROC
; Function compile flags: /Ogtpy
;	COMDAT ??4CvString@@QAEAAV0@ABV0@@Z
_TEXT	SEGMENT
___that$ = 8						; size = 4
??4CvString@@QAEAAV0@ABV0@@Z PROC			; CvString::operator=, COMDAT
; _this$ = ecx
	mov	eax, DWORD PTR ___that$[esp-4]
	push	esi
	push	eax
	mov	esi, ecx
	call	DWORD PTR __imp_??4?$basic_string@DU?$char_traits@D@std@@V?$allocator@D@2@@std@@QAEAAV01@ABV01@@Z
	mov	eax, esi
	pop	esi
	ret	4
??4CvString@@QAEAAV0@ABV0@@Z ENDP			; CvString::operator=
_TEXT	ENDS
PUBLIC	??$?6H@FDataStream@@QAEAAV0@ABH@Z		; FDataStream::operator<<<int>
EXTRN	?Write@FDataStream@@IAEXABH@Z:PROC		; FDataStream::Write
; Function compile flags: /Ogtpy
; File c:\users\enormousapplepie\desktop\lekmod files\lekmod dll versions\v29\lekmod_dll\fireplace\include\fireworks\fdatastream.h
;	COMDAT ??$?6H@FDataStream@@QAEAAV0@ABH@Z
_TEXT	SEGMENT
_kData$ = 8						; size = 4
??$?6H@FDataStream@@QAEAAV0@ABH@Z PROC			; FDataStream::operator<<<int>, COMDAT
; _this$ = ecx

; 246  : 	// If the compiler produces an error here complaining about 
; 247  : 	// YouMustImplementASerializeOperatorForThisTypeError then
; 248  : 	// it could not find a specialization for the type supplied
; 249  : 	// in scope. If a specialization exists, be sure to include
; 250  : 	// the header (FStlContainerSerialization.h, for example), 
; 251  : 	// if not, implement :
; 252  : 	// FDataStream & operator<<(FDataStream &, YourCustomType &)
; 253  : 	Write( kData );

	mov	eax, DWORD PTR _kData$[esp-4]
	push	esi
	push	eax
	mov	esi, ecx
	call	?Write@FDataStream@@IAEXABH@Z		; FDataStream::Write

; 254  : 	return ( *this );

	mov	eax, esi
	pop	esi

; 255  : }

	ret	4
??$?6H@FDataStream@@QAEAAV0@ABH@Z ENDP			; FDataStream::operator<<<int>
_TEXT	ENDS
PUBLIC	??$?5H@FDataStream@@QAEAAV0@AAH@Z		; FDataStream::operator>><int>
EXTRN	?Read@FDataStream@@IAEXAAH@Z:PROC		; FDataStream::Read
; Function compile flags: /Ogtpy
;	COMDAT ??$?5H@FDataStream@@QAEAAV0@AAH@Z
_TEXT	SEGMENT
_kData$ = 8						; size = 4
??$?5H@FDataStream@@QAEAAV0@AAH@Z PROC			; FDataStream::operator>><int>, COMDAT
; _this$ = ecx

; 260  : 	// If the compiler produces an error here complaining about 
; 261  : 	// YouMustImplementASerializeOperatorForThisTypeError then
; 262  : 	// it could not find a specialization for the type supplied
; 263  : 	// in scope. If a specialization exists, be sure to include
; 264  : 	// the header (FStlContainerSerialization.h, for example), 
; 265  : 	// if not, implement :
; 266  : 	// FDataStream & operator>>(FDataStream &, YourCustomType &)
; 267  : 	Read( kData );

	mov	eax, DWORD PTR _kData$[esp-4]
	push	esi
	push	eax
	mov	esi, ecx
	call	?Read@FDataStream@@IAEXAAH@Z		; FDataStream::Read

; 268  : 	return ( *this );

	mov	eax, esi
	pop	esi

; 269  : }

	ret	4
??$?5H@FDataStream@@QAEAAV0@AAH@Z ENDP			; FDataStream::operator>><int>
_TEXT	ENDS
PUBLIC	??$?5VCvString@@@FDataStream@@QAEAAV0@AAVCvString@@@Z ; FDataStream::operator>><CvString>
EXTRN	?Read@FDataStream@@IAEXAAV?$basic_string@DU?$char_traits@D@std@@V?$allocator@D@2@@std@@@Z:PROC ; FDataStream::Read
; Function compile flags: /Ogtpy
;	COMDAT ??$?5VCvString@@@FDataStream@@QAEAAV0@AAVCvString@@@Z
_TEXT	SEGMENT
_kData$ = 8						; size = 4
??$?5VCvString@@@FDataStream@@QAEAAV0@AAVCvString@@@Z PROC ; FDataStream::operator>><CvString>, COMDAT
; _this$ = ecx

; 260  : 	// If the compiler produces an error here complaining about 
; 261  : 	// YouMustImplementASerializeOperatorForThisTypeError then
; 262  : 	// it could not find a specialization for the type supplied
; 263  : 	// in scope. If a specialization exists, be sure to include
; 264  : 	// the header (FStlContainerSerialization.h, for example), 
; 265  : 	// if not, implement :
; 266  : 	// FDataStream & operator>>(FDataStream &, YourCustomType &)
; 267  : 	Read( kData );

	mov	eax, DWORD PTR _kData$[esp-4]
	push	esi
	push	eax
	mov	esi, ecx
	call	?Read@FDataStream@@IAEXAAV?$basic_string@DU?$char_traits@D@std@@V?$allocator@D@2@@std@@@Z ; FDataStream::Read

; 268  : 	return ( *this );

	mov	eax, esi
	pop	esi

; 269  : }

	ret	4
??$?5VCvString@@@FDataStream@@QAEAAV0@AAVCvString@@@Z ENDP ; FDataStream::operator>><CvString>
_TEXT	ENDS
PUBLIC	??$?6VCvString@@@FDataStream@@QAEAAV0@ABVCvString@@@Z ; FDataStream::operator<<<CvString>
EXTRN	?Write@FDataStream@@IAEXABV?$basic_string@DU?$char_traits@D@std@@V?$allocator@D@2@@std@@@Z:PROC ; FDataStream::Write
; Function compile flags: /Ogtpy
;	COMDAT ??$?6VCvString@@@FDataStream@@QAEAAV0@ABVCvString@@@Z
_TEXT	SEGMENT
_kData$ = 8						; size = 4
??$?6VCvString@@@FDataStream@@QAEAAV0@ABVCvString@@@Z PROC ; FDataStream::operator<<<CvString>, COMDAT
; _this$ = ecx

; 246  : 	// If the compiler produces an error here complaining about 
; 247  : 	// YouMustImplementASerializeOperatorForThisTypeError then
; 248  : 	// it could not find a specialization for the type supplied
; 249  : 	// in scope. If a specialization exists, be sure to include
; 250  : 	// the header (FStlContainerSerialization.h, for example), 
; 251  : 	// if not, implement :
; 252  : 	// FDataStream & operator<<(FDataStream &, YourCustomType &)
; 253  : 	Write( kData );

	mov	eax, DWORD PTR _kData$[esp-4]
	push	esi
	push	eax
	mov	esi, ecx
	call	?Write@FDataStream@@IAEXABV?$basic_string@DU?$char_traits@D@std@@V?$allocator@D@2@@std@@@Z ; FDataStream::Write

; 254  : 	return ( *this );

	mov	eax, esi
	pop	esi

; 255  : }

	ret	4
??$?6VCvString@@@FDataStream@@QAEAAV0@ABVCvString@@@Z ENDP ; FDataStream::operator<<<CvString>
_TEXT	ENDS
PUBLIC	?setText@CvReplayMessage@@QAEXABVCvString@@@Z	; CvReplayMessage::setText
; Function compile flags: /Ogtpy
; File c:\users\enormousapplepie\desktop\lekmod files\lekmod dll versions\v29\lekmod_dll\cvgamecoredll_expansion2\cvreplaymessage.cpp
;	COMDAT ?setText@CvReplayMessage@@QAEXABVCvString@@@Z
_TEXT	SEGMENT
_strText$ = 8						; size = 4
?setText@CvReplayMessage@@QAEXABVCvString@@@Z PROC	; CvReplayMessage::setText, COMDAT
; _this$ = ecx

; 71   : 	m_strText = strText;

	add	ecx, 32					; 00000020H
	jmp	DWORD PTR __imp_??4?$basic_string@DU?$char_traits@D@std@@V?$allocator@D@2@@std@@QAEAAV01@ABV01@@Z
?setText@CvReplayMessage@@QAEXABVCvString@@@Z ENDP	; CvReplayMessage::setText
_TEXT	ENDS
PUBLIC	?getPlot@CvReplayMessage@@QBE_NIAAH0@Z		; CvReplayMessage::getPlot
; Function compile flags: /Ogtpy
;	COMDAT ?getPlot@CvReplayMessage@@QBE_NIAAH0@Z
_TEXT	SEGMENT
_idx$ = 8						; size = 4
_iPlotX$ = 12						; size = 4
_iPlotY$ = 16						; size = 4
?getPlot@CvReplayMessage@@QBE_NIAAH0@Z PROC		; CvReplayMessage::getPlot, COMDAT
; _this$ = ecx

; 96   : 	if(idx < m_Plots.size())

	mov	edx, DWORD PTR [ecx+20]
	sub	edx, DWORD PTR [ecx+16]
	mov	eax, DWORD PTR _idx$[esp-4]
	sar	edx, 2
	cmp	eax, edx
	jae	SHORT $LN1@getPlot

; 97   : 	{
; 98   : 		const PlotPosition& position = m_Plots[idx];

	mov	ecx, DWORD PTR [ecx+16]

; 99   : 		iPlotX = (int)position.first;

	movsx	edx, WORD PTR [ecx+eax*4]
	lea	eax, DWORD PTR [ecx+eax*4]
	mov	ecx, DWORD PTR _iPlotX$[esp-4]
	mov	DWORD PTR [ecx], edx

; 100  : 		iPlotY = (int)position.second;

	movsx	edx, WORD PTR [eax+2]
	mov	eax, DWORD PTR _iPlotY$[esp-4]
	mov	DWORD PTR [eax], edx

; 101  : 		return true;

	mov	al, 1

; 105  : }

	ret	12					; 0000000cH
$LN1@getPlot:

; 102  : 	}
; 103  : 
; 104  : 	return false;

	xor	al, al

; 105  : }

	ret	12					; 0000000cH
?getPlot@CvReplayMessage@@QBE_NIAAH0@Z ENDP		; CvReplayMessage::getPlot
_TEXT	ENDS
PUBLIC	?getNumPlots@CvReplayMessage@@QBEIXZ		; CvReplayMessage::getNumPlots
; Function compile flags: /Ogtpy
;	COMDAT ?getNumPlots@CvReplayMessage@@QBEIXZ
_TEXT	SEGMENT
?getNumPlots@CvReplayMessage@@QBEIXZ PROC		; CvReplayMessage::getNumPlots, COMDAT
; _this$ = ecx

; 109  : 	return m_Plots.size();

	mov	eax, DWORD PTR [ecx+20]
	sub	eax, DWORD PTR [ecx+16]
	sar	eax, 2

; 110  : }

	ret	0
?getNumPlots@CvReplayMessage@@QBEIXZ ENDP		; CvReplayMessage::getNumPlots
_TEXT	ENDS
PUBLIC	?begin@?$vector@U?$pair@FF@std@@V?$allocator@U?$pair@FF@std@@@2@@std@@QBE?AV?$_Vector_const_iterator@U?$pair@FF@std@@V?$allocator@U?$pair@FF@std@@@2@@2@XZ ; std::vector<std::pair<short,short>,std::allocator<std::pair<short,short> > >::begin
; Function compile flags: /Ogtpy
; File c:\program files (x86)\microsoft visual studio 9.0\vc\include\vector
;	COMDAT ?begin@?$vector@U?$pair@FF@std@@V?$allocator@U?$pair@FF@std@@@2@@std@@QBE?AV?$_Vector_const_iterator@U?$pair@FF@std@@V?$allocator@U?$pair@FF@std@@@2@@2@XZ
_TEXT	SEGMENT
___$ReturnUdt$ = 8					; size = 4
?begin@?$vector@U?$pair@FF@std@@V?$allocator@U?$pair@FF@std@@@2@@std@@QBE?AV?$_Vector_const_iterator@U?$pair@FF@std@@V?$allocator@U?$pair@FF@std@@@2@@2@XZ PROC ; std::vector<std::pair<short,short>,std::allocator<std::pair<short,short> > >::begin, COMDAT
; _this$ = ecx

; 672  : 		return (const_iterator(_Myfirst));

	mov	ecx, DWORD PTR [ecx+4]
	mov	eax, DWORD PTR ___$ReturnUdt$[esp-4]
	mov	DWORD PTR [eax], ecx

; 673  : 		}

	ret	4
?begin@?$vector@U?$pair@FF@std@@V?$allocator@U?$pair@FF@std@@@2@@std@@QBE?AV?$_Vector_const_iterator@U?$pair@FF@std@@V?$allocator@U?$pair@FF@std@@@2@@2@XZ ENDP ; std::vector<std::pair<short,short>,std::allocator<std::pair<short,short> > >::begin
_TEXT	ENDS
PUBLIC	?end@?$vector@U?$pair@FF@std@@V?$allocator@U?$pair@FF@std@@@2@@std@@QBE?AV?$_Vector_const_iterator@U?$pair@FF@std@@V?$allocator@U?$pair@FF@std@@@2@@2@XZ ; std::vector<std::pair<short,short>,std::allocator<std::pair<short,short> > >::end
; Function compile flags: /Ogtpy
;	COMDAT ?end@?$vector@U?$pair@FF@std@@V?$allocator@U?$pair@FF@std@@@2@@std@@QBE?AV?$_Vector_const_iterator@U?$pair@FF@std@@V?$allocator@U?$pair@FF@std@@@2@@2@XZ
_TEXT	SEGMENT
___$ReturnUdt$ = 8					; size = 4
?end@?$vector@U?$pair@FF@std@@V?$allocator@U?$pair@FF@std@@@2@@std@@QBE?AV?$_Vector_const_iterator@U?$pair@FF@std@@V?$allocator@U?$pair@FF@std@@@2@@2@XZ PROC ; std::vector<std::pair<short,short>,std::allocator<std::pair<short,short> > >::end, COMDAT
; _this$ = ecx

; 682  : 		return (const_iterator(_Mylast));

	mov	ecx, DWORD PTR [ecx+8]
	mov	eax, DWORD PTR ___$ReturnUdt$[esp-4]
	mov	DWORD PTR [eax], ecx

; 683  : 		}

	ret	4
?end@?$vector@U?$pair@FF@std@@V?$allocator@U?$pair@FF@std@@@2@@std@@QBE?AV?$_Vector_const_iterator@U?$pair@FF@std@@V?$allocator@U?$pair@FF@std@@@2@@2@XZ ENDP ; std::vector<std::pair<short,short>,std::allocator<std::pair<short,short> > >::end
_TEXT	ENDS
PUBLIC	??D?$_Vector_iterator@U?$pair@FF@std@@V?$allocator@U?$pair@FF@std@@@2@@std@@QBEAAU?$pair@FF@1@XZ ; std::_Vector_iterator<std::pair<short,short>,std::allocator<std::pair<short,short> > >::operator*
; Function compile flags: /Ogtpy
;	COMDAT ??D?$_Vector_iterator@U?$pair@FF@std@@V?$allocator@U?$pair@FF@std@@@2@@std@@QBEAAU?$pair@FF@1@XZ
_TEXT	SEGMENT
??D?$_Vector_iterator@U?$pair@FF@std@@V?$allocator@U?$pair@FF@std@@@2@@std@@QBEAAU?$pair@FF@1@XZ PROC ; std::_Vector_iterator<std::pair<short,short>,std::allocator<std::pair<short,short> > >::operator*, COMDAT
; _this$ = ecx

; 339  : 		return ((reference)**(_Mybase *)this);

	mov	eax, DWORD PTR [ecx]

; 340  : 		}

	ret	0
??D?$_Vector_iterator@U?$pair@FF@std@@V?$allocator@U?$pair@FF@std@@@2@@std@@QBEAAU?$pair@FF@1@XZ ENDP ; std::_Vector_iterator<std::pair<short,short>,std::allocator<std::pair<short,short> > >::operator*
_TEXT	ENDS
PUBLIC	??E?$_Vector_iterator@U?$pair@FF@std@@V?$allocator@U?$pair@FF@std@@@2@@std@@QAEAAV01@XZ ; std::_Vector_iterator<std::pair<short,short>,std::allocator<std::pair<short,short> > >::operator++
; Function compile flags: /Ogtpy
;	COMDAT ??E?$_Vector_iterator@U?$pair@FF@std@@V?$allocator@U?$pair@FF@std@@@2@@std@@QAEAAV01@XZ
_TEXT	SEGMENT
??E?$_Vector_iterator@U?$pair@FF@std@@V?$allocator@U?$pair@FF@std@@@2@@std@@QAEAAV01@XZ PROC ; std::_Vector_iterator<std::pair<short,short>,std::allocator<std::pair<short,short> > >::operator++, COMDAT
; _this$ = ecx

; 348  : 		{	// preincrement

	mov	eax, ecx

; 349  : 		++(*(_Mybase *)this);

	add	DWORD PTR [eax], 4

; 350  : 		return (*this);
; 351  : 		}

	ret	0
??E?$_Vector_iterator@U?$pair@FF@std@@V?$allocator@U?$pair@FF@std@@@2@@std@@QAEAAV01@XZ ENDP ; std::_Vector_iterator<std::pair<short,short>,std::allocator<std::pair<short,short> > >::operator++
_TEXT	ENDS
PUBLIC	??9?$_Vector_const_iterator@U?$pair@FF@std@@V?$allocator@U?$pair@FF@std@@@2@@std@@QBE_NABV01@@Z ; std::_Vector_const_iterator<std::pair<short,short>,std::allocator<std::pair<short,short> > >::operator!=
; Function compile flags: /Ogtpy
;	COMDAT ??9?$_Vector_const_iterator@U?$pair@FF@std@@V?$allocator@U?$pair@FF@std@@@2@@std@@QBE_NABV01@@Z
_TEXT	SEGMENT
__Right$ = 8						; size = 4
??9?$_Vector_const_iterator@U?$pair@FF@std@@V?$allocator@U?$pair@FF@std@@@2@@std@@QBE_NABV01@@Z PROC ; std::_Vector_const_iterator<std::pair<short,short>,std::allocator<std::pair<short,short> > >::operator!=, COMDAT
; _this$ = ecx

; 216  : 		return (!(*this == _Right));

	mov	eax, DWORD PTR [ecx]
	mov	edx, DWORD PTR __Right$[esp-4]
	xor	ecx, ecx
	cmp	eax, DWORD PTR [edx]
	setne	cl
	mov	al, cl

; 217  : 		}

	ret	4
??9?$_Vector_const_iterator@U?$pair@FF@std@@V?$allocator@U?$pair@FF@std@@@2@@std@@QBE_NABV01@@Z ENDP ; std::_Vector_const_iterator<std::pair<short,short>,std::allocator<std::pair<short,short> > >::operator!=
_TEXT	ENDS
PUBLIC	??1?$_Vector_val@U?$pair@FF@std@@V?$allocator@U?$pair@FF@std@@@2@@std@@QAE@XZ ; std::_Vector_val<std::pair<short,short>,std::allocator<std::pair<short,short> > >::~_Vector_val<std::pair<short,short>,std::allocator<std::pair<short,short> > >
; Function compile flags: /Ogtpy
;	COMDAT ??1?$_Vector_val@U?$pair@FF@std@@V?$allocator@U?$pair@FF@std@@@2@@std@@QAE@XZ
_TEXT	SEGMENT
??1?$_Vector_val@U?$pair@FF@std@@V?$allocator@U?$pair@FF@std@@@2@@std@@QAE@XZ PROC ; std::_Vector_val<std::pair<short,short>,std::allocator<std::pair<short,short> > >::~_Vector_val<std::pair<short,short>,std::allocator<std::pair<short,short> > >, COMDAT
; _this$ = ecx
	ret	0
??1?$_Vector_val@U?$pair@FF@std@@V?$allocator@U?$pair@FF@std@@@2@@std@@QAE@XZ ENDP ; std::_Vector_val<std::pair<short,short>,std::allocator<std::pair<short,short> > >::~_Vector_val<std::pair<short,short>,std::allocator<std::pair<short,short> > >
_TEXT	ENDS
PUBLIC	?max_size@?$vector@U?$pair@FF@std@@V?$allocator@U?$pair@FF@std@@@2@@std@@QBEIXZ ; std::vector<std::pair<short,short>,std::allocator<std::pair<short,short> > >::max_size
; Function compile flags: /Ogtpy
;	COMDAT ?max_size@?$vector@U?$pair@FF@std@@V?$allocator@U?$pair@FF@std@@@2@@std@@QBEIXZ
_TEXT	SEGMENT
?max_size@?$vector@U?$pair@FF@std@@V?$allocator@U?$pair@FF@std@@@2@@std@@QBEIXZ PROC ; std::vector<std::pair<short,short>,std::allocator<std::pair<short,short> > >::max_size, COMDAT
; _this$ = ecx

; 731  : 		return (this->_Alval.max_size());

	mov	eax, 1073741823				; 3fffffffH

; 732  : 		}

	ret	0
?max_size@?$vector@U?$pair@FF@std@@V?$allocator@U?$pair@FF@std@@@2@@std@@QBEIXZ ENDP ; std::vector<std::pair<short,short>,std::allocator<std::pair<short,short> > >::max_size
_TEXT	ENDS
PUBLIC	__TI3?AVlength_error@std@@
PUBLIC	??_C@_0BD@OLBABOEK@vector?$DMT?$DO?5too?5long?$AA@ ; `string'
PUBLIC	?_Xlen@?$vector@U?$pair@FF@std@@V?$allocator@U?$pair@FF@std@@@2@@std@@KAXXZ ; std::vector<std::pair<short,short>,std::allocator<std::pair<short,short> > >::_Xlen
PUBLIC	__CTA3?AVlength_error@std@@
PUBLIC	__CT??_R0?AVlength_error@std@@@8??0length_error@std@@QAE@ABV01@@Z40
PUBLIC	??0length_error@std@@QAE@ABV01@@Z		; std::length_error::length_error
PUBLIC	__CT??_R0?AVlogic_error@std@@@8??0logic_error@std@@QAE@ABV01@@Z40
PUBLIC	??0logic_error@std@@QAE@ABV01@@Z		; std::logic_error::logic_error
PUBLIC	__CT??_R0?AVexception@std@@@8??0exception@std@@QAE@ABV01@@Z12
EXTRN	__imp_??0?$basic_string@DU?$char_traits@D@std@@V?$allocator@D@2@@std@@QAE@PBD@Z:PROC
EXTRN	__CxxThrowException@8:PROC
EXTRN	??0exception@std@@QAE@ABV01@@Z:PROC		; std::exception::exception
;	COMDAT __CT??_R0?AVexception@std@@@8??0exception@std@@QAE@ABV01@@Z12
; File c:\program files (x86)\microsoft visual studio 9.0\vc\include\stdexcept
xdata$x	SEGMENT
__CT??_R0?AVexception@std@@@8??0exception@std@@QAE@ABV01@@Z12 DD 00H
	DD	FLAT:??_R0?AVexception@std@@@8
	DD	00H
	DD	0ffffffffH
	ORG $+4
	DD	0cH
	DD	FLAT:??0exception@std@@QAE@ABV01@@Z
xdata$x	ENDS
;	COMDAT __CT??_R0?AVlogic_error@std@@@8??0logic_error@std@@QAE@ABV01@@Z40
xdata$x	SEGMENT
__CT??_R0?AVlogic_error@std@@@8??0logic_error@std@@QAE@ABV01@@Z40 DD 00H
	DD	FLAT:??_R0?AVlogic_error@std@@@8
	DD	00H
	DD	0ffffffffH
	ORG $+4
	DD	028H
	DD	FLAT:??0logic_error@std@@QAE@ABV01@@Z
xdata$x	ENDS
;	COMDAT __CT??_R0?AVlength_error@std@@@8??0length_error@std@@QAE@ABV01@@Z40
xdata$x	SEGMENT
__CT??_R0?AVlength_error@std@@@8??0length_error@std@@QAE@ABV01@@Z40 DD 00H
	DD	FLAT:??_R0?AVlength_error@std@@@8
	DD	00H
	DD	0ffffffffH
	ORG $+4
	DD	028H
	DD	FLAT:??0length_error@std@@QAE@ABV01@@Z
xdata$x	ENDS
;	COMDAT __CTA3?AVlength_error@std@@
xdata$x	SEGMENT
__CTA3?AVlength_error@std@@ DD 03H
	DD	FLAT:__CT??_R0?AVlength_error@std@@@8??0length_error@std@@QAE@ABV01@@Z40
	DD	FLAT:__CT??_R0?AVlogic_error@std@@@8??0logic_error@std@@QAE@ABV01@@Z40
	DD	FLAT:__CT??_R0?AVexception@std@@@8??0exception@std@@QAE@ABV01@@Z12
xdata$x	ENDS
;	COMDAT __TI3?AVlength_error@std@@
xdata$x	SEGMENT
__TI3?AVlength_error@std@@ DD 00H
	DD	FLAT:??1length_error@std@@UAE@XZ
	DD	00H
	DD	FLAT:__CTA3?AVlength_error@std@@
xdata$x	ENDS
;	COMDAT ??_C@_0BD@OLBABOEK@vector?$DMT?$DO?5too?5long?$AA@
CONST	SEGMENT
??_C@_0BD@OLBABOEK@vector?$DMT?$DO?5too?5long?$AA@ DB 'vector<T> too long'
	DB	00H						; `string'
CONST	ENDS
;	COMDAT xdata$x
xdata$x	SEGMENT
__unwindtable$?_Xlen@?$vector@U?$pair@FF@std@@V?$allocator@U?$pair@FF@std@@@2@@std@@KAXXZ DD 0ffffffffH
	DD	FLAT:__unwindfunclet$?_Xlen@?$vector@U?$pair@FF@std@@V?$allocator@U?$pair@FF@std@@@2@@std@@KAXXZ$0
	DD	00H
	DD	FLAT:__unwindfunclet$?_Xlen@?$vector@U?$pair@FF@std@@V?$allocator@U?$pair@FF@std@@@2@@std@@KAXXZ$2
__ehfuncinfo$?_Xlen@?$vector@U?$pair@FF@std@@V?$allocator@U?$pair@FF@std@@@2@@std@@KAXXZ DD 019930522H
	DD	02H
	DD	FLAT:__unwindtable$?_Xlen@?$vector@U?$pair@FF@std@@V?$allocator@U?$pair@FF@std@@@2@@std@@KAXXZ
	DD	2 DUP(00H)
	DD	2 DUP(00H)
	DD	00H
	DD	01H
; Function compile flags: /Ogtpy
; File c:\program files (x86)\microsoft visual studio 9.0\vc\include\vector
xdata$x	ENDS
;	COMDAT ?_Xlen@?$vector@U?$pair@FF@std@@V?$allocator@U?$pair@FF@std@@@2@@std@@KAXXZ
_TEXT	SEGMENT
$T219075 = -80						; size = 28
$T219074 = -52						; size = 40
__$EHRec$ = -12						; size = 12
?_Xlen@?$vector@U?$pair@FF@std@@V?$allocator@U?$pair@FF@std@@@2@@std@@KAXXZ PROC ; std::vector<std::pair<short,short>,std::allocator<std::pair<short,short> > >::_Xlen, COMDAT

; 1259 : 		{	// report a length_error

	push	-1
	push	__ehhandler$?_Xlen@?$vector@U?$pair@FF@std@@V?$allocator@U?$pair@FF@std@@@2@@std@@KAXXZ
	mov	eax, DWORD PTR fs:0
	push	eax
	mov	DWORD PTR fs:0, esp
	sub	esp, 68					; 00000044H

; 1260 : 		_THROW(length_error, "vector<T> too long");

	push	OFFSET ??_C@_0BD@OLBABOEK@vector?$DMT?$DO?5too?5long?$AA@
	lea	ecx, DWORD PTR $T219075[esp+84]
	call	DWORD PTR __imp_??0?$basic_string@DU?$char_traits@D@std@@V?$allocator@D@2@@std@@QAE@PBD@Z
	lea	ecx, DWORD PTR $T219074[esp+80]
	mov	DWORD PTR __$EHRec$[esp+88], 0
	call	DWORD PTR __imp_??0exception@std@@QAE@XZ
	lea	eax, DWORD PTR $T219075[esp+80]
	push	eax
	lea	ecx, DWORD PTR $T219074[esp+96]
	mov	BYTE PTR __$EHRec$[esp+92], 1
	mov	DWORD PTR $T219074[esp+84], OFFSET ??_7logic_error@std@@6B@
	call	DWORD PTR __imp_??0?$basic_string@DU?$char_traits@D@std@@V?$allocator@D@2@@std@@QAE@ABV01@@Z
	push	OFFSET __TI3?AVlength_error@std@@
	lea	ecx, DWORD PTR $T219074[esp+84]
	push	ecx
	mov	BYTE PTR __$EHRec$[esp+96], 0
	mov	DWORD PTR $T219074[esp+88], OFFSET ??_7length_error@std@@6B@
	call	__CxxThrowException@8
$LN13@Xlen:
$LN12@Xlen:
	int	3
_TEXT	ENDS
;	COMDAT text$x
text$x	SEGMENT
__unwindfunclet$?_Xlen@?$vector@U?$pair@FF@std@@V?$allocator@U?$pair@FF@std@@@2@@std@@KAXXZ$0:
	lea	ecx, DWORD PTR $T219075[ebp]
	jmp	DWORD PTR __imp_??1?$basic_string@DU?$char_traits@D@std@@V?$allocator@D@2@@std@@QAE@XZ
__unwindfunclet$?_Xlen@?$vector@U?$pair@FF@std@@V?$allocator@U?$pair@FF@std@@@2@@std@@KAXXZ$2:
	lea	ecx, DWORD PTR $T219074[ebp]
	jmp	DWORD PTR __imp_??1exception@std@@UAE@XZ
__ehhandler$?_Xlen@?$vector@U?$pair@FF@std@@V?$allocator@U?$pair@FF@std@@@2@@std@@KAXXZ:
	mov	eax, OFFSET __ehfuncinfo$?_Xlen@?$vector@U?$pair@FF@std@@V?$allocator@U?$pair@FF@std@@@2@@std@@KAXXZ
	jmp	___CxxFrameHandler3
text$x	ENDS
?_Xlen@?$vector@U?$pair@FF@std@@V?$allocator@U?$pair@FF@std@@@2@@std@@KAXXZ ENDP ; std::vector<std::pair<short,short>,std::allocator<std::pair<short,short> > >::_Xlen
EXTRN	__imp_??0exception@std@@QAE@ABV01@@Z:PROC
;	COMDAT xdata$x
xdata$x	SEGMENT
__unwindtable$??0logic_error@std@@QAE@ABV01@@Z DD 0ffffffffH
	DD	FLAT:__unwindfunclet$??0logic_error@std@@QAE@ABV01@@Z$0
__ehfuncinfo$??0logic_error@std@@QAE@ABV01@@Z DD 019930522H
	DD	01H
	DD	FLAT:__unwindtable$??0logic_error@std@@QAE@ABV01@@Z
	DD	2 DUP(00H)
	DD	2 DUP(00H)
	DD	00H
	DD	01H
; Function compile flags: /Ogtpy
xdata$x	ENDS
;	COMDAT ??0logic_error@std@@QAE@ABV01@@Z
_TEXT	SEGMENT
_this$ = -16						; size = 4
__$EHRec$ = -12						; size = 12
___that$ = 8						; size = 4
??0logic_error@std@@QAE@ABV01@@Z PROC			; std::logic_error::logic_error, COMDAT
; _this$ = ecx
	push	-1
	push	__ehhandler$??0logic_error@std@@QAE@ABV01@@Z
	mov	eax, DWORD PTR fs:0
	push	eax
	mov	DWORD PTR fs:0, esp
	push	ecx
	push	esi
	push	edi
	mov	edi, DWORD PTR ___that$[esp+20]
	mov	esi, ecx
	push	edi
	mov	DWORD PTR _this$[esp+28], esi
	call	DWORD PTR __imp_??0exception@std@@QAE@ABV01@@Z
	add	edi, 12					; 0000000cH
	push	edi
	lea	ecx, DWORD PTR [esi+12]
	mov	DWORD PTR __$EHRec$[esp+36], 0
	mov	DWORD PTR [esi], OFFSET ??_7logic_error@std@@6B@
	call	DWORD PTR __imp_??0?$basic_string@DU?$char_traits@D@std@@V?$allocator@D@2@@std@@QAE@ABV01@@Z
	mov	ecx, DWORD PTR __$EHRec$[esp+24]
	pop	edi
	mov	eax, esi
	pop	esi
	mov	DWORD PTR fs:0, ecx
	add	esp, 16					; 00000010H
	ret	4
_TEXT	ENDS
;	COMDAT text$x
text$x	SEGMENT
__unwindfunclet$??0logic_error@std@@QAE@ABV01@@Z$0:
	mov	ecx, DWORD PTR _this$[ebp]
	jmp	DWORD PTR __imp_??1exception@std@@UAE@XZ
__ehhandler$??0logic_error@std@@QAE@ABV01@@Z:
	mov	eax, OFFSET __ehfuncinfo$??0logic_error@std@@QAE@ABV01@@Z
	jmp	___CxxFrameHandler3
text$x	ENDS
??0logic_error@std@@QAE@ABV01@@Z ENDP			; std::logic_error::logic_error
; Function compile flags: /Ogtpy
;	COMDAT ??0length_error@std@@QAE@ABV01@@Z
_TEXT	SEGMENT
___that$ = 8						; size = 4
??0length_error@std@@QAE@ABV01@@Z PROC			; std::length_error::length_error, COMDAT
; _this$ = ecx
	mov	eax, DWORD PTR ___that$[esp-4]
	push	esi
	push	eax
	mov	esi, ecx
	call	??0logic_error@std@@QAE@ABV01@@Z
	mov	DWORD PTR [esi], OFFSET ??_7length_error@std@@6B@
	mov	eax, esi
	pop	esi
	ret	4
??0length_error@std@@QAE@ABV01@@Z ENDP			; std::length_error::length_error
_TEXT	ENDS
PUBLIC	??0?$_Vector_val@U?$pair@FF@std@@V?$allocator@U?$pair@FF@std@@@2@@std@@IAE@V?$allocator@U?$pair@FF@std@@@1@@Z ; std::_Vector_val<std::pair<short,short>,std::allocator<std::pair<short,short> > >::_Vector_val<std::pair<short,short>,std::allocator<std::pair<short,short> > >
; Function compile flags: /Ogtpy
;	COMDAT ??0?$_Vector_val@U?$pair@FF@std@@V?$allocator@U?$pair@FF@std@@@2@@std@@IAE@V?$allocator@U?$pair@FF@std@@@1@@Z
_TEXT	SEGMENT
__Al$ = 8						; size = 1
??0?$_Vector_val@U?$pair@FF@std@@V?$allocator@U?$pair@FF@std@@@2@@std@@IAE@V?$allocator@U?$pair@FF@std@@@1@@Z PROC ; std::_Vector_val<std::pair<short,short>,std::allocator<std::pair<short,short> > >::_Vector_val<std::pair<short,short>,std::allocator<std::pair<short,short> > >, COMDAT
; _this$ = ecx

; 425  : 		{	// construct allocator from _Al

	mov	eax, ecx

; 426  : 		}

	ret	4
??0?$_Vector_val@U?$pair@FF@std@@V?$allocator@U?$pair@FF@std@@@2@@std@@IAE@V?$allocator@U?$pair@FF@std@@@1@@Z ENDP ; std::_Vector_val<std::pair<short,short>,std::allocator<std::pair<short,short> > >::_Vector_val<std::pair<short,short>,std::allocator<std::pair<short,short> > >
_TEXT	ENDS
PUBLIC	??0?$_Vector_iterator@U?$pair@FF@std@@V?$allocator@U?$pair@FF@std@@@2@@std@@QAE@PAU?$pair@FF@1@@Z ; std::_Vector_iterator<std::pair<short,short>,std::allocator<std::pair<short,short> > >::_Vector_iterator<std::pair<short,short>,std::allocator<std::pair<short,short> > >
; Function compile flags: /Ogtpy
;	COMDAT ??0?$_Vector_iterator@U?$pair@FF@std@@V?$allocator@U?$pair@FF@std@@@2@@std@@QAE@PAU?$pair@FF@1@@Z
_TEXT	SEGMENT
__Ptr$ = 8						; size = 4
??0?$_Vector_iterator@U?$pair@FF@std@@V?$allocator@U?$pair@FF@std@@@2@@std@@QAE@PAU?$pair@FF@1@@Z PROC ; std::_Vector_iterator<std::pair<short,short>,std::allocator<std::pair<short,short> > >::_Vector_iterator<std::pair<short,short>,std::allocator<std::pair<short,short> > >, COMDAT
; _this$ = ecx

; 333  : 		{	// construct with pointer _Ptr

	mov	eax, ecx
	mov	ecx, DWORD PTR __Ptr$[esp-4]
	mov	DWORD PTR [eax], ecx

; 334  : 		}

	ret	4
??0?$_Vector_iterator@U?$pair@FF@std@@V?$allocator@U?$pair@FF@std@@@2@@std@@QAE@PAU?$pair@FF@1@@Z ENDP ; std::_Vector_iterator<std::pair<short,short>,std::allocator<std::pair<short,short> > >::_Vector_iterator<std::pair<short,short>,std::allocator<std::pair<short,short> > >
_TEXT	ENDS
PUBLIC	?_Make_iter@?$vector@U?$pair@FF@std@@V?$allocator@U?$pair@FF@std@@@2@@std@@QBE?AV?$_Vector_iterator@U?$pair@FF@std@@V?$allocator@U?$pair@FF@std@@@2@@2@V?$_Vector_const_iterator@U?$pair@FF@std@@V?$allocator@U?$pair@FF@std@@@2@@2@@Z ; std::vector<std::pair<short,short>,std::allocator<std::pair<short,short> > >::_Make_iter
; Function compile flags: /Ogtpy
;	COMDAT ?_Make_iter@?$vector@U?$pair@FF@std@@V?$allocator@U?$pair@FF@std@@@2@@std@@QBE?AV?$_Vector_iterator@U?$pair@FF@std@@V?$allocator@U?$pair@FF@std@@@2@@2@V?$_Vector_const_iterator@U?$pair@FF@std@@V?$allocator@U?$pair@FF@std@@@2@@2@@Z
_TEXT	SEGMENT
___$ReturnUdt$ = 8					; size = 4
__Where$ = 12						; size = 4
?_Make_iter@?$vector@U?$pair@FF@std@@V?$allocator@U?$pair@FF@std@@@2@@std@@QBE?AV?$_Vector_iterator@U?$pair@FF@std@@V?$allocator@U?$pair@FF@std@@@2@@2@V?$_Vector_const_iterator@U?$pair@FF@std@@V?$allocator@U?$pair@FF@std@@@2@@2@@Z PROC ; std::vector<std::pair<short,short>,std::allocator<std::pair<short,short> > >::_Make_iter, COMDAT
; _this$ = ecx

; 687  : 		return (iterator(_Where._Myptr));

	mov	eax, DWORD PTR ___$ReturnUdt$[esp-4]
	mov	ecx, DWORD PTR __Where$[esp-4]
	mov	DWORD PTR [eax], ecx

; 688  : 		}

	ret	8
?_Make_iter@?$vector@U?$pair@FF@std@@V?$allocator@U?$pair@FF@std@@@2@@std@@QBE?AV?$_Vector_iterator@U?$pair@FF@std@@V?$allocator@U?$pair@FF@std@@@2@@2@V?$_Vector_const_iterator@U?$pair@FF@std@@V?$allocator@U?$pair@FF@std@@@2@@2@@Z ENDP ; std::vector<std::pair<short,short>,std::allocator<std::pair<short,short> > >::_Make_iter
_TEXT	ENDS
PUBLIC	??Y?$_Vector_iterator@U?$pair@FF@std@@V?$allocator@U?$pair@FF@std@@@2@@std@@QAEAAV01@H@Z ; std::_Vector_iterator<std::pair<short,short>,std::allocator<std::pair<short,short> > >::operator+=
; Function compile flags: /Ogtpy
;	COMDAT ??Y?$_Vector_iterator@U?$pair@FF@std@@V?$allocator@U?$pair@FF@std@@@2@@std@@QAEAAV01@H@Z
_TEXT	SEGMENT
__Off$ = 8						; size = 4
??Y?$_Vector_iterator@U?$pair@FF@std@@V?$allocator@U?$pair@FF@std@@@2@@std@@QAEAAV01@H@Z PROC ; std::_Vector_iterator<std::pair<short,short>,std::allocator<std::pair<short,short> > >::operator+=, COMDAT
; _this$ = ecx

; 374  : 		{	// increment by integer

	mov	eax, ecx

; 375  : 		(*(_Mybase *)this) += _Off;

	mov	ecx, DWORD PTR __Off$[esp-4]
	lea	edx, DWORD PTR [ecx*4]
	add	DWORD PTR [eax], edx

; 376  : 		return (*this);
; 377  : 		}

	ret	4
??Y?$_Vector_iterator@U?$pair@FF@std@@V?$allocator@U?$pair@FF@std@@@2@@std@@QAEAAV01@H@Z ENDP ; std::_Vector_iterator<std::pair<short,short>,std::allocator<std::pair<short,short> > >::operator+=
_TEXT	ENDS
PUBLIC	??$unchecked_copy@PAU?$pair@FF@std@@PAU12@@stdext@@YAPAU?$pair@FF@std@@PAU12@00@Z ; stdext::unchecked_copy<std::pair<short,short> *,std::pair<short,short> *>
; Function compile flags: /Ogtpy
; File c:\program files (x86)\microsoft visual studio 9.0\vc\include\xutility
;	COMDAT ??$unchecked_copy@PAU?$pair@FF@std@@PAU12@@stdext@@YAPAU?$pair@FF@std@@PAU12@00@Z
_TEXT	SEGMENT
__First$ = 8						; size = 4
__Last$ = 12						; size = 4
__Dest$ = 16						; size = 4
??$unchecked_copy@PAU?$pair@FF@std@@PAU12@@stdext@@YAPAU?$pair@FF@std@@PAU12@00@Z PROC ; stdext::unchecked_copy<std::pair<short,short> *,std::pair<short,short> *>, COMDAT

; 3605 : 		return (_STD _Copy_opt(_CHECKED_BASE(_First), _CHECKED_BASE(_Last), _Dest,
; 3606 : 			_STD _Iter_random(_First, _Dest), _STD _Ptr_cat(_First, _Dest), _STD _Range_checked_iterator_tag()));

	mov	ecx, DWORD PTR __First$[esp-4]
	mov	edx, DWORD PTR __Last$[esp-4]
	mov	eax, DWORD PTR __Dest$[esp-4]
	cmp	ecx, edx
	je	SHORT $LN7@unchecked_
	push	esi
$LL9@unchecked_:
	mov	esi, DWORD PTR [ecx]
	mov	DWORD PTR [eax], esi
	add	ecx, 4
	add	eax, 4
	cmp	ecx, edx
	jne	SHORT $LL9@unchecked_
	pop	esi
$LN7@unchecked_:

; 3607 : 	}

	ret	0
??$unchecked_copy@PAU?$pair@FF@std@@PAU12@@stdext@@YAPAU?$pair@FF@std@@PAU12@00@Z ENDP ; stdext::unchecked_copy<std::pair<short,short> *,std::pair<short,short> *>
_TEXT	ENDS
PUBLIC	__TI2?AVbad_alloc@std@@
PUBLIC	??$_Allocate@U?$pair@FF@std@@@std@@YAPAU?$pair@FF@0@IPAU10@@Z ; std::_Allocate<std::pair<short,short> >
PUBLIC	__CTA2?AVbad_alloc@std@@
PUBLIC	__CT??_R0?AVbad_alloc@std@@@8??0bad_alloc@std@@QAE@ABV01@@Z12
PUBLIC	??0bad_alloc@std@@QAE@ABV01@@Z			; std::bad_alloc::bad_alloc
EXTRN	??2@YAPAXI@Z:PROC				; operator new
;	COMDAT __CT??_R0?AVbad_alloc@std@@@8??0bad_alloc@std@@QAE@ABV01@@Z12
; File c:\program files (x86)\microsoft visual studio 9.0\vc\include\exception
xdata$x	SEGMENT
__CT??_R0?AVbad_alloc@std@@@8??0bad_alloc@std@@QAE@ABV01@@Z12 DD 00H
	DD	FLAT:??_R0?AVbad_alloc@std@@@8
	DD	00H
	DD	0ffffffffH
	ORG $+4
	DD	0cH
	DD	FLAT:??0bad_alloc@std@@QAE@ABV01@@Z
xdata$x	ENDS
;	COMDAT __CTA2?AVbad_alloc@std@@
xdata$x	SEGMENT
__CTA2?AVbad_alloc@std@@ DD 02H
	DD	FLAT:__CT??_R0?AVbad_alloc@std@@@8??0bad_alloc@std@@QAE@ABV01@@Z12
	DD	FLAT:__CT??_R0?AVexception@std@@@8??0exception@std@@QAE@ABV01@@Z12
xdata$x	ENDS
;	COMDAT __TI2?AVbad_alloc@std@@
xdata$x	SEGMENT
__TI2?AVbad_alloc@std@@ DD 00H
	DD	FLAT:??1bad_alloc@std@@UAE@XZ
	DD	00H
	DD	FLAT:__CTA2?AVbad_alloc@std@@
; Function compile flags: /Ogtpy
; File c:\program files (x86)\microsoft visual studio 9.0\vc\include\xmemory
xdata$x	ENDS
;	COMDAT ??$_Allocate@U?$pair@FF@std@@@std@@YAPAU?$pair@FF@0@IPAU10@@Z
_TEXT	SEGMENT
$T219180 = -12						; size = 12
$T219184 = 8						; size = 4
__Count$ = 8						; size = 4
___formal$ = 12						; size = 4
??$_Allocate@U?$pair@FF@std@@@std@@YAPAU?$pair@FF@0@IPAU10@@Z PROC ; std::_Allocate<std::pair<short,short> >, COMDAT

; 37   : 	if (_Count <= 0)

	mov	ecx, DWORD PTR __Count$[esp-4]
	sub	esp, 12					; 0000000cH
	test	ecx, ecx
	ja	SHORT $LN3@Allocate

; 38   : 		_Count = 0;

	xor	ecx, ecx
$LN1@Allocate:

; 41   : 
; 42   : 		// allocate storage for _Count elements of type _Ty
; 43   : 	return ((_Ty _FARQ *)::operator new(_Count * sizeof (_Ty)));

	lea	edx, DWORD PTR [ecx*4]
	push	edx
	call	??2@YAPAXI@Z				; operator new
	add	esp, 4

; 44   : 	}

	add	esp, 12					; 0000000cH
	ret	0
$LN3@Allocate:

; 39   : 	else if (((_SIZT)(-1) / _Count) < sizeof (_Ty))

	or	eax, -1
	xor	edx, edx
	div	ecx
	cmp	eax, 4
	jae	SHORT $LN1@Allocate

; 40   : 		_THROW_NCEE(std::bad_alloc, NULL);

	lea	eax, DWORD PTR $T219184[esp+8]
	push	eax
	lea	ecx, DWORD PTR $T219180[esp+16]
	mov	DWORD PTR $T219184[esp+12], 0
	call	DWORD PTR __imp_??0exception@std@@QAE@ABQBD@Z
	push	OFFSET __TI2?AVbad_alloc@std@@
	lea	ecx, DWORD PTR $T219180[esp+16]
	push	ecx
	mov	DWORD PTR $T219180[esp+20], OFFSET ??_7bad_alloc@std@@6B@
	call	__CxxThrowException@8
$LN9@Allocate:
$LN8@Allocate:
	int	3
??$_Allocate@U?$pair@FF@std@@@std@@YAPAU?$pair@FF@0@IPAU10@@Z ENDP ; std::_Allocate<std::pair<short,short> >
; Function compile flags: /Ogtpy
_TEXT	ENDS
;	COMDAT ??0bad_alloc@std@@QAE@ABV01@@Z
_TEXT	SEGMENT
___that$ = 8						; size = 4
??0bad_alloc@std@@QAE@ABV01@@Z PROC			; std::bad_alloc::bad_alloc, COMDAT
; _this$ = ecx
	mov	eax, DWORD PTR ___that$[esp-4]
	push	esi
	push	eax
	mov	esi, ecx
	call	DWORD PTR __imp_??0exception@std@@QAE@ABV01@@Z
	mov	DWORD PTR [esi], OFFSET ??_7bad_alloc@std@@6B@
	mov	eax, esi
	pop	esi
	ret	4
??0bad_alloc@std@@QAE@ABV01@@Z ENDP			; std::bad_alloc::bad_alloc
_TEXT	ENDS
PUBLIC	??$fill@PAU?$pair@FF@std@@U12@@std@@YAXPAU?$pair@FF@0@0ABU10@@Z ; std::fill<std::pair<short,short> *,std::pair<short,short> >
; Function compile flags: /Ogtpy
; File c:\program files (x86)\microsoft visual studio 9.0\vc\include\xutility
;	COMDAT ??$fill@PAU?$pair@FF@std@@U12@@std@@YAXPAU?$pair@FF@0@0ABU10@@Z
_TEXT	SEGMENT
__First$ = 8						; size = 4
__Last$ = 12						; size = 4
__Val$ = 16						; size = 4
??$fill@PAU?$pair@FF@std@@U12@@std@@YAXPAU?$pair@FF@0@0ABU10@@Z PROC ; std::fill<std::pair<short,short> *,std::pair<short,short> >, COMDAT

; 3187 : 	_Fill(_CHECKED_BASE(_First), _CHECKED_BASE(_Last), _Val);

	mov	eax, DWORD PTR __First$[esp-4]
	mov	ecx, DWORD PTR __Last$[esp-4]
	cmp	eax, ecx
	je	SHORT $LN3@fill
	mov	edx, DWORD PTR __Val$[esp-4]
	push	esi
$LL5@fill:
	mov	esi, DWORD PTR [edx]
	mov	DWORD PTR [eax], esi
	add	eax, 4
	cmp	eax, ecx
	jne	SHORT $LL5@fill
	pop	esi
$LN3@fill:

; 3188 : 	}

	ret	0
??$fill@PAU?$pair@FF@std@@U12@@std@@YAXPAU?$pair@FF@0@0ABU10@@Z ENDP ; std::fill<std::pair<short,short> *,std::pair<short,short> >
_TEXT	ENDS
PUBLIC	??$_Move_backward_opt@PAU?$pair@FF@std@@PAU12@Urandom_access_iterator_tag@2@U_Undefined_move_tag@2@@std@@YAPAU?$pair@FF@0@PAU10@00Urandom_access_iterator_tag@0@U_Undefined_move_tag@0@U_Range_checked_iterator_tag@0@@Z ; std::_Move_backward_opt<std::pair<short,short> *,std::pair<short,short> *,std::random_access_iterator_tag,std::_Undefined_move_tag>
; Function compile flags: /Ogtpy
;	COMDAT ??$_Move_backward_opt@PAU?$pair@FF@std@@PAU12@Urandom_access_iterator_tag@2@U_Undefined_move_tag@2@@std@@YAPAU?$pair@FF@0@PAU10@00Urandom_access_iterator_tag@0@U_Undefined_move_tag@0@U_Range_checked_iterator_tag@0@@Z
_TEXT	SEGMENT
__First$ = 8						; size = 4
__Last$ = 12						; size = 4
__Dest$ = 16						; size = 4
__First_dest_cat$ = 20					; size = 1
___formal$ = 24						; size = 1
___formal$ = 28						; size = 1
??$_Move_backward_opt@PAU?$pair@FF@std@@PAU12@Urandom_access_iterator_tag@2@U_Undefined_move_tag@2@@std@@YAPAU?$pair@FF@0@PAU10@00Urandom_access_iterator_tag@0@U_Undefined_move_tag@0@U_Range_checked_iterator_tag@0@@Z PROC ; std::_Move_backward_opt<std::pair<short,short> *,std::pair<short,short> *,std::random_access_iterator_tag,std::_Undefined_move_tag>, COMDAT

; 2753 : 	return _Copy_backward_opt(_First, _Last, _Dest,
; 2754 : 		_First_dest_cat, _Ptr_cat(_First, _Dest), _Range_checked_iterator_tag());

	mov	ecx, DWORD PTR __Last$[esp-4]
	mov	edx, DWORD PTR __First$[esp-4]
	mov	eax, DWORD PTR __Dest$[esp-4]
	cmp	edx, ecx
	je	SHORT $LN5@Move_backw
	push	esi
$LL6@Move_backw:
	mov	esi, DWORD PTR [ecx-4]
	sub	ecx, 4
	sub	eax, 4
	mov	DWORD PTR [eax], esi
	cmp	ecx, edx
	jne	SHORT $LL6@Move_backw
	pop	esi
$LN5@Move_backw:

; 2755 : 	}

	ret	0
??$_Move_backward_opt@PAU?$pair@FF@std@@PAU12@Urandom_access_iterator_tag@2@U_Undefined_move_tag@2@@std@@YAPAU?$pair@FF@0@PAU10@00Urandom_access_iterator_tag@0@U_Undefined_move_tag@0@U_Range_checked_iterator_tag@0@@Z ENDP ; std::_Move_backward_opt<std::pair<short,short> *,std::pair<short,short> *,std::random_access_iterator_tag,std::_Undefined_move_tag>
_TEXT	ENDS
PUBLIC	?construct@?$allocator@U?$pair@FF@std@@@std@@QAEXPAU?$pair@FF@2@ABU32@@Z ; std::allocator<std::pair<short,short> >::construct
; Function compile flags: /Ogtpy
; File c:\program files (x86)\microsoft visual studio 9.0\vc\include\xmemory
;	COMDAT ?construct@?$allocator@U?$pair@FF@std@@@std@@QAEXPAU?$pair@FF@2@ABU32@@Z
_TEXT	SEGMENT
__Ptr$ = 8						; size = 4
__Val$ = 12						; size = 4
?construct@?$allocator@U?$pair@FF@std@@@std@@QAEXPAU?$pair@FF@2@ABU32@@Z PROC ; std::allocator<std::pair<short,short> >::construct, COMDAT
; _this$ = ecx

; 155  : 		_Construct(_Ptr, _Val);

	mov	eax, DWORD PTR __Ptr$[esp-4]
	test	eax, eax
	je	SHORT $LN5@construct
	mov	ecx, DWORD PTR __Val$[esp-4]
	mov	edx, DWORD PTR [ecx]
	mov	DWORD PTR [eax], edx
$LN5@construct:

; 156  : 		}

	ret	8
?construct@?$allocator@U?$pair@FF@std@@@std@@QAEXPAU?$pair@FF@2@ABU32@@Z ENDP ; std::allocator<std::pair<short,short> >::construct
_TEXT	ENDS
PUBLIC	?destroy@?$allocator@U?$pair@FF@std@@@std@@QAEXPAU?$pair@FF@2@@Z ; std::allocator<std::pair<short,short> >::destroy
; Function compile flags: /Ogtpy
;	COMDAT ?destroy@?$allocator@U?$pair@FF@std@@@std@@QAEXPAU?$pair@FF@2@@Z
_TEXT	SEGMENT
__Ptr$ = 8						; size = 4
?destroy@?$allocator@U?$pair@FF@std@@@std@@QAEXPAU?$pair@FF@2@@Z PROC ; std::allocator<std::pair<short,short> >::destroy, COMDAT
; _this$ = ecx

; 160  : 		_Destroy(_Ptr);
; 161  : 		}

	ret	4
?destroy@?$allocator@U?$pair@FF@std@@@std@@QAEXPAU?$pair@FF@2@@Z ENDP ; std::allocator<std::pair<short,short> >::destroy
_TEXT	ENDS
PUBLIC	??$_Uninit_copy@V?$_Vector_iterator@U?$pair@FF@std@@V?$allocator@U?$pair@FF@std@@@2@@std@@PAU?$pair@FF@2@V?$allocator@U?$pair@FF@std@@@2@@std@@YAPAU?$pair@FF@0@V?$_Vector_iterator@U?$pair@FF@std@@V?$allocator@U?$pair@FF@std@@@2@@0@0PAU10@AAV?$allocator@U?$pair@FF@std@@@0@U_Nonscalar_ptr_iterator_tag@0@U_Range_checked_iterator_tag@0@@Z ; std::_Uninit_copy<std::_Vector_iterator<std::pair<short,short>,std::allocator<std::pair<short,short> > >,std::pair<short,short> *,std::allocator<std::pair<short,short> > >
; Function compile flags: /Ogtpy
; File c:\program files (x86)\microsoft visual studio 9.0\vc\include\memory
;	COMDAT ??$_Uninit_copy@V?$_Vector_iterator@U?$pair@FF@std@@V?$allocator@U?$pair@FF@std@@@2@@std@@PAU?$pair@FF@2@V?$allocator@U?$pair@FF@std@@@2@@std@@YAPAU?$pair@FF@0@V?$_Vector_iterator@U?$pair@FF@std@@V?$allocator@U?$pair@FF@std@@@2@@0@0PAU10@AAV?$allocator@U?$pair@FF@std@@@0@U_Nonscalar_ptr_iterator_tag@0@U_Range_checked_iterator_tag@0@@Z
_TEXT	SEGMENT
__First$ = 8						; size = 4
__Last$ = 12						; size = 4
__Dest$ = 16						; size = 4
__Al$ = 20						; size = 4
___formal$ = 24						; size = 1
___formal$ = 28						; size = 1
??$_Uninit_copy@V?$_Vector_iterator@U?$pair@FF@std@@V?$allocator@U?$pair@FF@std@@@2@@std@@PAU?$pair@FF@2@V?$allocator@U?$pair@FF@std@@@2@@std@@YAPAU?$pair@FF@0@V?$_Vector_iterator@U?$pair@FF@std@@V?$allocator@U?$pair@FF@std@@@2@@0@0PAU10@AAV?$allocator@U?$pair@FF@std@@@0@U_Nonscalar_ptr_iterator_tag@0@U_Range_checked_iterator_tag@0@@Z PROC ; std::_Uninit_copy<std::_Vector_iterator<std::pair<short,short>,std::allocator<std::pair<short,short> > >,std::pair<short,short> *,std::allocator<std::pair<short,short> > >, COMDAT

; 125  : 	_DEBUG_RANGE(_First, _Last);
; 126  : 	_DEBUG_POINTER(_Dest);
; 127  : 	_FwdIt _Next = _Dest;
; 128  : 
; 129  : 	_TRY_BEGIN
; 130  : 	for (; _First != _Last; ++_Dest, ++_First)

	mov	ecx, DWORD PTR __First$[esp-4]
	mov	edx, DWORD PTR __Last$[esp-4]
	mov	eax, DWORD PTR __Dest$[esp-4]
	cmp	ecx, edx
	je	SHORT $LN4@Uninit_cop
	push	esi
$LL16@Uninit_cop:

; 131  : 		_Al.construct(_Dest, *_First);

	test	eax, eax
	je	SHORT $LN5@Uninit_cop
	mov	esi, DWORD PTR [ecx]
	mov	DWORD PTR [eax], esi
$LN5@Uninit_cop:
	add	ecx, 4
	add	eax, 4
	mov	DWORD PTR __First$[esp], ecx
	cmp	ecx, edx
	jne	SHORT $LL16@Uninit_cop
	pop	esi
$LN4@Uninit_cop:

; 132  : 	_CATCH_ALL
; 133  : 	for (; _Next != _Dest; ++_Next)
; 134  : 		_Al.destroy(_Next);
; 135  : 	_RERAISE;
; 136  : 	_CATCH_END
; 137  : 	return (_Dest);
; 138  : 	}

	ret	0
??$_Uninit_copy@V?$_Vector_iterator@U?$pair@FF@std@@V?$allocator@U?$pair@FF@std@@@2@@std@@PAU?$pair@FF@2@V?$allocator@U?$pair@FF@std@@@2@@std@@YAPAU?$pair@FF@0@V?$_Vector_iterator@U?$pair@FF@std@@V?$allocator@U?$pair@FF@std@@@2@@0@0PAU10@AAV?$allocator@U?$pair@FF@std@@@0@U_Nonscalar_ptr_iterator_tag@0@U_Range_checked_iterator_tag@0@@Z ENDP ; std::_Uninit_copy<std::_Vector_iterator<std::pair<short,short>,std::allocator<std::pair<short,short> > >,std::pair<short,short> *,std::allocator<std::pair<short,short> > >
_TEXT	ENDS
PUBLIC	??$_Uninit_copy@PAU?$pair@FF@std@@PAU12@V?$allocator@U?$pair@FF@std@@@2@@std@@YAPAU?$pair@FF@0@PAU10@00AAV?$allocator@U?$pair@FF@std@@@0@U_Nonscalar_ptr_iterator_tag@0@U_Range_checked_iterator_tag@0@@Z ; std::_Uninit_copy<std::pair<short,short> *,std::pair<short,short> *,std::allocator<std::pair<short,short> > >
; Function compile flags: /Ogtpy
;	COMDAT ??$_Uninit_copy@PAU?$pair@FF@std@@PAU12@V?$allocator@U?$pair@FF@std@@@2@@std@@YAPAU?$pair@FF@0@PAU10@00AAV?$allocator@U?$pair@FF@std@@@0@U_Nonscalar_ptr_iterator_tag@0@U_Range_checked_iterator_tag@0@@Z
_TEXT	SEGMENT
__First$ = 8						; size = 4
__Last$ = 12						; size = 4
__Dest$ = 16						; size = 4
__Al$ = 20						; size = 4
___formal$ = 24						; size = 1
___formal$ = 28						; size = 1
??$_Uninit_copy@PAU?$pair@FF@std@@PAU12@V?$allocator@U?$pair@FF@std@@@2@@std@@YAPAU?$pair@FF@0@PAU10@00AAV?$allocator@U?$pair@FF@std@@@0@U_Nonscalar_ptr_iterator_tag@0@U_Range_checked_iterator_tag@0@@Z PROC ; std::_Uninit_copy<std::pair<short,short> *,std::pair<short,short> *,std::allocator<std::pair<short,short> > >, COMDAT

; 125  : 	_DEBUG_RANGE(_First, _Last);
; 126  : 	_DEBUG_POINTER(_Dest);
; 127  : 	_FwdIt _Next = _Dest;
; 128  : 
; 129  : 	_TRY_BEGIN
; 130  : 	for (; _First != _Last; ++_Dest, ++_First)

	mov	ecx, DWORD PTR __First$[esp-4]
	mov	edx, DWORD PTR __Last$[esp-4]
	mov	eax, DWORD PTR __Dest$[esp-4]
	cmp	ecx, edx
	je	SHORT $LN4@Uninit_cop@2
	push	esi
$LL6@Uninit_cop@2:

; 131  : 		_Al.construct(_Dest, *_First);

	test	eax, eax
	je	SHORT $LN5@Uninit_cop@2
	mov	esi, DWORD PTR [ecx]
	mov	DWORD PTR [eax], esi
$LN5@Uninit_cop@2:
	add	ecx, 4
	add	eax, 4
	cmp	ecx, edx
	jne	SHORT $LL6@Uninit_cop@2
	pop	esi
$LN4@Uninit_cop@2:

; 132  : 	_CATCH_ALL
; 133  : 	for (; _Next != _Dest; ++_Next)
; 134  : 		_Al.destroy(_Next);
; 135  : 	_RERAISE;
; 136  : 	_CATCH_END
; 137  : 	return (_Dest);
; 138  : 	}

	ret	0
??$_Uninit_copy@PAU?$pair@FF@std@@PAU12@V?$allocator@U?$pair@FF@std@@@2@@std@@YAPAU?$pair@FF@0@PAU10@00AAV?$allocator@U?$pair@FF@std@@@0@U_Nonscalar_ptr_iterator_tag@0@U_Range_checked_iterator_tag@0@@Z ENDP ; std::_Uninit_copy<std::pair<short,short> *,std::pair<short,short> *,std::allocator<std::pair<short,short> > >
_TEXT	ENDS
PUBLIC	?write@CvReplayMessage@@QBEXAAVFDataStream@@@Z	; CvReplayMessage::write
EXTRN	??6@YAAAVFDataStream@@AAV0@ABW4PlayerTypes@@@Z:PROC ; operator<<
EXTRN	??6@YAAAVFDataStream@@AAV0@ABW4ReplayMessageTypes@@@Z:PROC ; operator<<
; Function compile flags: /Ogtpy
; File c:\users\enormousapplepie\desktop\lekmod files\lekmod dll versions\v29\lekmod_dll\cvgamecoredll_expansion2\cvreplaymessage.cpp
;	COMDAT ?write@CvReplayMessage@@QBEXAAVFDataStream@@@Z
_TEXT	SEGMENT
$T219354 = 8						; size = 4
_kStream$ = 8						; size = 4
?write@CvReplayMessage@@QBEXAAVFDataStream@@@Z PROC	; CvReplayMessage::write, COMDAT
; _this$ = ecx

; 143  : {

	push	ebx

; 144  : 	kStream << m_iTurn;

	mov	ebx, DWORD PTR _kStream$[esp]
	push	esi
	push	edi
	mov	edi, ecx
	lea	eax, DWORD PTR [edi+4]
	push	eax
	mov	ecx, ebx
	call	?Write@FDataStream@@IAEXABH@Z		; FDataStream::Write

; 145  : 	kStream << m_eType;

	lea	ecx, DWORD PTR [edi+8]
	push	ecx
	push	ebx
	call	??6@YAAAVFDataStream@@AAV0@ABW4ReplayMessageTypes@@@Z ; operator<<

; 146  : 
; 147  : 	kStream << (int)m_Plots.size();

	mov	edx, DWORD PTR [edi+20]
	sub	edx, DWORD PTR [edi+16]
	add	esp, 8
	lea	eax, DWORD PTR $T219354[esp+8]
	sar	edx, 2
	push	eax
	mov	ecx, ebx
	mov	DWORD PTR $T219354[esp+12], edx
	call	?Write@FDataStream@@IAEXABH@Z		; FDataStream::Write

; 148  : 	for(PlotPositionList::const_iterator it = m_Plots.begin(); it != m_Plots.end(); ++it)

	mov	esi, DWORD PTR [edi+16]
	cmp	esi, DWORD PTR [edi+20]
	je	SHORT $LN1@write
$LL16@write:

; 149  : 	{
; 150  : 		kStream << (*it).first;

	push	esi
	mov	ecx, ebx
	call	?Write@FDataStream@@IAEXABF@Z		; FDataStream::Write
	lea	ecx, DWORD PTR [esi+2]

; 151  : 		kStream << (*it).second;

	push	ecx
	mov	ecx, ebx
	call	?Write@FDataStream@@IAEXABF@Z		; FDataStream::Write
	add	esi, 4
	cmp	esi, DWORD PTR [edi+20]
	jne	SHORT $LL16@write
$LN1@write:

; 152  : 	}
; 153  : 
; 154  : 	kStream << m_ePlayer;

	lea	edx, DWORD PTR [edi+28]
	push	edx
	push	ebx
	call	??6@YAAAVFDataStream@@AAV0@ABW4PlayerTypes@@@Z ; operator<<
	add	esp, 8

; 155  : 	kStream << m_strText;

	add	edi, 32					; 00000020H
	push	edi
	mov	ecx, ebx
	call	?Write@FDataStream@@IAEXABV?$basic_string@DU?$char_traits@D@std@@V?$allocator@D@2@@std@@@Z ; FDataStream::Write
	pop	edi
	pop	esi
	pop	ebx

; 156  : }

	ret	4
?write@CvReplayMessage@@QBEXAAVFDataStream@@@Z ENDP	; CvReplayMessage::write
_TEXT	ENDS
PUBLIC	?begin@?$vector@U?$pair@FF@std@@V?$allocator@U?$pair@FF@std@@@2@@std@@QAE?AV?$_Vector_iterator@U?$pair@FF@std@@V?$allocator@U?$pair@FF@std@@@2@@2@XZ ; std::vector<std::pair<short,short>,std::allocator<std::pair<short,short> > >::begin
; Function compile flags: /Ogtpy
; File c:\program files (x86)\microsoft visual studio 9.0\vc\include\vector
;	COMDAT ?begin@?$vector@U?$pair@FF@std@@V?$allocator@U?$pair@FF@std@@@2@@std@@QAE?AV?$_Vector_iterator@U?$pair@FF@std@@V?$allocator@U?$pair@FF@std@@@2@@2@XZ
_TEXT	SEGMENT
___$ReturnUdt$ = 8					; size = 4
?begin@?$vector@U?$pair@FF@std@@V?$allocator@U?$pair@FF@std@@@2@@std@@QAE?AV?$_Vector_iterator@U?$pair@FF@std@@V?$allocator@U?$pair@FF@std@@@2@@2@XZ PROC ; std::vector<std::pair<short,short>,std::allocator<std::pair<short,short> > >::begin, COMDAT
; _this$ = ecx

; 667  : 		return (iterator(_Myfirst));

	mov	ecx, DWORD PTR [ecx+4]
	mov	eax, DWORD PTR ___$ReturnUdt$[esp-4]
	mov	DWORD PTR [eax], ecx

; 668  : 		}

	ret	4
?begin@?$vector@U?$pair@FF@std@@V?$allocator@U?$pair@FF@std@@@2@@std@@QAE?AV?$_Vector_iterator@U?$pair@FF@std@@V?$allocator@U?$pair@FF@std@@@2@@2@XZ ENDP ; std::vector<std::pair<short,short>,std::allocator<std::pair<short,short> > >::begin
_TEXT	ENDS
PUBLIC	?end@?$vector@U?$pair@FF@std@@V?$allocator@U?$pair@FF@std@@@2@@std@@QAE?AV?$_Vector_iterator@U?$pair@FF@std@@V?$allocator@U?$pair@FF@std@@@2@@2@XZ ; std::vector<std::pair<short,short>,std::allocator<std::pair<short,short> > >::end
; Function compile flags: /Ogtpy
;	COMDAT ?end@?$vector@U?$pair@FF@std@@V?$allocator@U?$pair@FF@std@@@2@@std@@QAE?AV?$_Vector_iterator@U?$pair@FF@std@@V?$allocator@U?$pair@FF@std@@@2@@2@XZ
_TEXT	SEGMENT
___$ReturnUdt$ = 8					; size = 4
?end@?$vector@U?$pair@FF@std@@V?$allocator@U?$pair@FF@std@@@2@@std@@QAE?AV?$_Vector_iterator@U?$pair@FF@std@@V?$allocator@U?$pair@FF@std@@@2@@2@XZ PROC ; std::vector<std::pair<short,short>,std::allocator<std::pair<short,short> > >::end, COMDAT
; _this$ = ecx

; 677  : 		return (iterator(_Mylast));

	mov	ecx, DWORD PTR [ecx+8]
	mov	eax, DWORD PTR ___$ReturnUdt$[esp-4]
	mov	DWORD PTR [eax], ecx

; 678  : 		}

	ret	4
?end@?$vector@U?$pair@FF@std@@V?$allocator@U?$pair@FF@std@@@2@@std@@QAE?AV?$_Vector_iterator@U?$pair@FF@std@@V?$allocator@U?$pair@FF@std@@@2@@2@XZ ENDP ; std::vector<std::pair<short,short>,std::allocator<std::pair<short,short> > >::end
_TEXT	ENDS
PUBLIC	?allocate@?$allocator@U?$pair@FF@std@@@std@@QAEPAU?$pair@FF@2@I@Z ; std::allocator<std::pair<short,short> >::allocate
; Function compile flags: /Ogtpy
; File c:\program files (x86)\microsoft visual studio 9.0\vc\include\xmemory
;	COMDAT ?allocate@?$allocator@U?$pair@FF@std@@@std@@QAEPAU?$pair@FF@2@I@Z
_TEXT	SEGMENT
__Count$ = 8						; size = 4
?allocate@?$allocator@U?$pair@FF@std@@@std@@QAEPAU?$pair@FF@2@I@Z PROC ; std::allocator<std::pair<short,short> >::allocate, COMDAT
; _this$ = ecx

; 145  : 		return (_Allocate(_Count, (pointer)0));

	mov	eax, DWORD PTR __Count$[esp-4]
	push	0
	push	eax
	call	??$_Allocate@U?$pair@FF@std@@@std@@YAPAU?$pair@FF@0@IPAU10@@Z ; std::_Allocate<std::pair<short,short> >
	add	esp, 8

; 146  : 		}

	ret	4
?allocate@?$allocator@U?$pair@FF@std@@@std@@QAEPAU?$pair@FF@2@I@Z ENDP ; std::allocator<std::pair<short,short> >::allocate
_TEXT	ENDS
PUBLIC	??H?$_Vector_iterator@U?$pair@FF@std@@V?$allocator@U?$pair@FF@std@@@2@@std@@QBE?AV01@H@Z ; std::_Vector_iterator<std::pair<short,short>,std::allocator<std::pair<short,short> > >::operator+
; Function compile flags: /Ogtpy
; File c:\program files (x86)\microsoft visual studio 9.0\vc\include\vector
;	COMDAT ??H?$_Vector_iterator@U?$pair@FF@std@@V?$allocator@U?$pair@FF@std@@@2@@std@@QBE?AV01@H@Z
_TEXT	SEGMENT
___$ReturnUdt$ = 8					; size = 4
__Off$ = 12						; size = 4
??H?$_Vector_iterator@U?$pair@FF@std@@V?$allocator@U?$pair@FF@std@@@2@@std@@QBE?AV01@H@Z PROC ; std::_Vector_iterator<std::pair<short,short>,std::allocator<std::pair<short,short> > >::operator+, COMDAT
; _this$ = ecx

; 381  : 		_Myt _Tmp = *this;
; 382  : 		return (_Tmp += _Off);

	mov	eax, DWORD PTR [ecx]
	mov	ecx, DWORD PTR __Off$[esp-4]
	lea	edx, DWORD PTR [eax+ecx*4]
	mov	eax, DWORD PTR ___$ReturnUdt$[esp-4]
	mov	DWORD PTR [eax], edx

; 383  : 		}

	ret	8
??H?$_Vector_iterator@U?$pair@FF@std@@V?$allocator@U?$pair@FF@std@@@2@@std@@QBE?AV01@H@Z ENDP ; std::_Vector_iterator<std::pair<short,short>,std::allocator<std::pair<short,short> > >::operator+
_TEXT	ENDS
PUBLIC	??$_Unchecked_move_backward@PAU?$pair@FF@std@@PAU12@@stdext@@YAPAU?$pair@FF@std@@PAU12@00@Z ; stdext::_Unchecked_move_backward<std::pair<short,short> *,std::pair<short,short> *>
; Function compile flags: /Ogtpy
; File c:\program files (x86)\microsoft visual studio 9.0\vc\include\xutility
;	COMDAT ??$_Unchecked_move_backward@PAU?$pair@FF@std@@PAU12@@stdext@@YAPAU?$pair@FF@std@@PAU12@00@Z
_TEXT	SEGMENT
__First$ = 8						; size = 4
__Last$ = 12						; size = 4
__Dest$ = 16						; size = 4
??$_Unchecked_move_backward@PAU?$pair@FF@std@@PAU12@@stdext@@YAPAU?$pair@FF@std@@PAU12@00@Z PROC ; stdext::_Unchecked_move_backward<std::pair<short,short> *,std::pair<short,short> *>, COMDAT

; 3695 : 		return (_STD _Move_backward_opt(_CHECKED_BASE(_First), _CHECKED_BASE(_Last), _Dest,
; 3696 : 			_STD _Iter_random(_First, _Dest), _STD _Move_cat(_Dest), _STD _Range_checked_iterator_tag()));

	mov	ecx, DWORD PTR __Last$[esp-4]
	mov	edx, DWORD PTR __First$[esp-4]
	mov	eax, DWORD PTR __Dest$[esp-4]
	cmp	edx, ecx
	je	SHORT $LN11@Unchecked_
	push	esi
$LL12@Unchecked_:
	mov	esi, DWORD PTR [ecx-4]
	sub	ecx, 4
	sub	eax, 4
	mov	DWORD PTR [eax], esi
	cmp	ecx, edx
	jne	SHORT $LL12@Unchecked_
	pop	esi
$LN11@Unchecked_:

; 3697 : 	}

	ret	0
??$_Unchecked_move_backward@PAU?$pair@FF@std@@PAU12@@stdext@@YAPAU?$pair@FF@std@@PAU12@00@Z ENDP ; stdext::_Unchecked_move_backward<std::pair<short,short> *,std::pair<short,short> *>
_TEXT	ENDS
PUBLIC	??$_Destroy_range@V?$allocator@U?$pair@FF@std@@@std@@@std@@YAXPAU?$pair@FF@0@0AAV?$allocator@U?$pair@FF@std@@@0@U_Nonscalar_ptr_iterator_tag@0@@Z ; std::_Destroy_range<std::allocator<std::pair<short,short> > >
; Function compile flags: /Ogtpy
; File c:\program files (x86)\microsoft visual studio 9.0\vc\include\xmemory
;	COMDAT ??$_Destroy_range@V?$allocator@U?$pair@FF@std@@@std@@@std@@YAXPAU?$pair@FF@0@0AAV?$allocator@U?$pair@FF@std@@@0@U_Nonscalar_ptr_iterator_tag@0@@Z
_TEXT	SEGMENT
__First$ = 8						; size = 4
__Last$ = 12						; size = 4
__Al$ = 16						; size = 4
___formal$ = 20						; size = 1
??$_Destroy_range@V?$allocator@U?$pair@FF@std@@@std@@@std@@YAXPAU?$pair@FF@0@0AAV?$allocator@U?$pair@FF@std@@@0@U_Nonscalar_ptr_iterator_tag@0@@Z PROC ; std::_Destroy_range<std::allocator<std::pair<short,short> > >, COMDAT

; 233  : 	for (; _First != _Last; ++_First)
; 234  : 		_Al.destroy(_First);
; 235  : 	}

	ret	0
??$_Destroy_range@V?$allocator@U?$pair@FF@std@@@std@@@std@@YAXPAU?$pair@FF@0@0AAV?$allocator@U?$pair@FF@std@@@0@U_Nonscalar_ptr_iterator_tag@0@@Z ENDP ; std::_Destroy_range<std::allocator<std::pair<short,short> > >
_TEXT	ENDS
PUBLIC	??$_Uninit_fill_n@PAU?$pair@FF@std@@IU12@V?$allocator@U?$pair@FF@std@@@2@@std@@YAXPAU?$pair@FF@0@IABU10@AAV?$allocator@U?$pair@FF@std@@@0@U_Nonscalar_ptr_iterator_tag@0@U_Range_checked_iterator_tag@0@@Z ; std::_Uninit_fill_n<std::pair<short,short> *,unsigned int,std::pair<short,short>,std::allocator<std::pair<short,short> > >
; Function compile flags: /Ogtpy
; File c:\program files (x86)\microsoft visual studio 9.0\vc\include\memory
;	COMDAT ??$_Uninit_fill_n@PAU?$pair@FF@std@@IU12@V?$allocator@U?$pair@FF@std@@@2@@std@@YAXPAU?$pair@FF@0@IABU10@AAV?$allocator@U?$pair@FF@std@@@0@U_Nonscalar_ptr_iterator_tag@0@U_Range_checked_iterator_tag@0@@Z
_TEXT	SEGMENT
__First$ = 8						; size = 4
__Count$ = 12						; size = 4
__Val$ = 16						; size = 4
__Al$ = 20						; size = 4
___formal$ = 24						; size = 1
___formal$ = 28						; size = 1
??$_Uninit_fill_n@PAU?$pair@FF@std@@IU12@V?$allocator@U?$pair@FF@std@@@2@@std@@YAXPAU?$pair@FF@0@IABU10@AAV?$allocator@U?$pair@FF@std@@@0@U_Nonscalar_ptr_iterator_tag@0@U_Range_checked_iterator_tag@0@@Z PROC ; std::_Uninit_fill_n<std::pair<short,short> *,unsigned int,std::pair<short,short>,std::allocator<std::pair<short,short> > >, COMDAT

; 394  : 
; 395  :  #if _HAS_ITERATOR_DEBUGGING
; 396  : //	if (_Count < 0)
; 397  : //		_DEBUG_ERROR("negative count in uninitialized fill");
; 398  :  #endif /* _HAS_ITERATOR_DEBUGGING */
; 399  : 
; 400  : 	_FwdIt _Next = _First;
; 401  : 
; 402  : 	_TRY_BEGIN
; 403  : 	for (; 0 < _Count; --_Count, ++_First)

	mov	ecx, DWORD PTR __Count$[esp-4]
	test	ecx, ecx
	jbe	SHORT $LN4@Uninit_fil
	mov	edx, DWORD PTR __Val$[esp-4]
	mov	eax, DWORD PTR __First$[esp-4]
	push	esi
$LL6@Uninit_fil:

; 404  : 		_Al.construct(_First, _Val);

	test	eax, eax
	je	SHORT $LN5@Uninit_fil
	mov	esi, DWORD PTR [edx]
	mov	DWORD PTR [eax], esi
$LN5@Uninit_fil:
	dec	ecx
	add	eax, 4
	test	ecx, ecx
	ja	SHORT $LL6@Uninit_fil
	pop	esi
$LN4@Uninit_fil:

; 405  : 	_CATCH_ALL
; 406  : 	for (; _Next != _First; ++_Next)
; 407  : 		_Al.destroy(_Next);
; 408  : 	_RERAISE;
; 409  : 	_CATCH_END
; 410  : 	}

	ret	0
??$_Uninit_fill_n@PAU?$pair@FF@std@@IU12@V?$allocator@U?$pair@FF@std@@@2@@std@@YAXPAU?$pair@FF@0@IABU10@AAV?$allocator@U?$pair@FF@std@@@0@U_Nonscalar_ptr_iterator_tag@0@U_Range_checked_iterator_tag@0@@Z ENDP ; std::_Uninit_fill_n<std::pair<short,short> *,unsigned int,std::pair<short,short>,std::allocator<std::pair<short,short> > >
_TEXT	ENDS
PUBLIC	??$unchecked_uninitialized_copy@V?$_Vector_iterator@U?$pair@FF@std@@V?$allocator@U?$pair@FF@std@@@2@@std@@PAU?$pair@FF@2@V?$allocator@U?$pair@FF@std@@@2@@stdext@@YAPAU?$pair@FF@std@@V?$_Vector_iterator@U?$pair@FF@std@@V?$allocator@U?$pair@FF@std@@@2@@2@0PAU12@AAV?$allocator@U?$pair@FF@std@@@2@@Z ; stdext::unchecked_uninitialized_copy<std::_Vector_iterator<std::pair<short,short>,std::allocator<std::pair<short,short> > >,std::pair<short,short> *,std::allocator<std::pair<short,short> > >
; Function compile flags: /Ogtpy
;	COMDAT ??$unchecked_uninitialized_copy@V?$_Vector_iterator@U?$pair@FF@std@@V?$allocator@U?$pair@FF@std@@@2@@std@@PAU?$pair@FF@2@V?$allocator@U?$pair@FF@std@@@2@@stdext@@YAPAU?$pair@FF@std@@V?$_Vector_iterator@U?$pair@FF@std@@V?$allocator@U?$pair@FF@std@@@2@@2@0PAU12@AAV?$allocator@U?$pair@FF@std@@@2@@Z
_TEXT	SEGMENT
$T219546 = -4						; size = 1
__Cat$219550 = -4					; size = 1
__First$ = 8						; size = 4
__Last$ = 12						; size = 4
__Dest$ = 16						; size = 4
__Al$ = 20						; size = 4
??$unchecked_uninitialized_copy@V?$_Vector_iterator@U?$pair@FF@std@@V?$allocator@U?$pair@FF@std@@@2@@std@@PAU?$pair@FF@2@V?$allocator@U?$pair@FF@std@@@2@@stdext@@YAPAU?$pair@FF@std@@V?$_Vector_iterator@U?$pair@FF@std@@V?$allocator@U?$pair@FF@std@@@2@@2@0PAU12@AAV?$allocator@U?$pair@FF@std@@@2@@Z PROC ; stdext::unchecked_uninitialized_copy<std::_Vector_iterator<std::pair<short,short>,std::allocator<std::pair<short,short> > >,std::pair<short,short> *,std::allocator<std::pair<short,short> > >, COMDAT

; 819  : 	{	// copy [_First, _Last) to raw _Dest, using _Al

	push	ecx

; 820  : 	return (_STD _Uninit_copy(_CHECKED_BASE(_First),
; 821  : 		_CHECKED_BASE(_Last), _Dest, _Al,
; 822  : 		_STD _Ptr_cat(_First, _Dest), _STD _Range_checked_iterator_tag()));

	mov	edx, DWORD PTR __Al$[esp]
	mov	BYTE PTR $T219546[esp+4], 0
	mov	eax, DWORD PTR $T219546[esp+4]
	mov	ecx, DWORD PTR __Cat$219550[esp+4]
	push	eax
	mov	eax, DWORD PTR __Dest$[esp+4]
	push	ecx
	mov	ecx, DWORD PTR __Last$[esp+8]
	push	edx
	mov	edx, DWORD PTR __First$[esp+12]
	push	eax
	push	ecx
	push	edx
	call	??$_Uninit_copy@V?$_Vector_iterator@U?$pair@FF@std@@V?$allocator@U?$pair@FF@std@@@2@@std@@PAU?$pair@FF@2@V?$allocator@U?$pair@FF@std@@@2@@std@@YAPAU?$pair@FF@0@V?$_Vector_iterator@U?$pair@FF@std@@V?$allocator@U?$pair@FF@std@@@2@@0@0PAU10@AAV?$allocator@U?$pair@FF@std@@@0@U_Nonscalar_ptr_iterator_tag@0@U_Range_checked_iterator_tag@0@@Z ; std::_Uninit_copy<std::_Vector_iterator<std::pair<short,short>,std::allocator<std::pair<short,short> > >,std::pair<short,short> *,std::allocator<std::pair<short,short> > >

; 823  : 	}

	add	esp, 28					; 0000001cH
	ret	0
??$unchecked_uninitialized_copy@V?$_Vector_iterator@U?$pair@FF@std@@V?$allocator@U?$pair@FF@std@@@2@@std@@PAU?$pair@FF@2@V?$allocator@U?$pair@FF@std@@@2@@stdext@@YAPAU?$pair@FF@std@@V?$_Vector_iterator@U?$pair@FF@std@@V?$allocator@U?$pair@FF@std@@@2@@2@0PAU12@AAV?$allocator@U?$pair@FF@std@@@2@@Z ENDP ; stdext::unchecked_uninitialized_copy<std::_Vector_iterator<std::pair<short,short>,std::allocator<std::pair<short,short> > >,std::pair<short,short> *,std::allocator<std::pair<short,short> > >
_TEXT	ENDS
PUBLIC	??$unchecked_uninitialized_copy@PAU?$pair@FF@std@@PAU12@V?$allocator@U?$pair@FF@std@@@2@@stdext@@YAPAU?$pair@FF@std@@PAU12@00AAV?$allocator@U?$pair@FF@std@@@2@@Z ; stdext::unchecked_uninitialized_copy<std::pair<short,short> *,std::pair<short,short> *,std::allocator<std::pair<short,short> > >
; Function compile flags: /Ogtpy
;	COMDAT ??$unchecked_uninitialized_copy@PAU?$pair@FF@std@@PAU12@V?$allocator@U?$pair@FF@std@@@2@@stdext@@YAPAU?$pair@FF@std@@PAU12@00AAV?$allocator@U?$pair@FF@std@@@2@@Z
_TEXT	SEGMENT
$T219555 = -4						; size = 1
__Cat$219559 = -4					; size = 1
__First$ = 8						; size = 4
__Last$ = 12						; size = 4
__Dest$ = 16						; size = 4
__Al$ = 20						; size = 4
??$unchecked_uninitialized_copy@PAU?$pair@FF@std@@PAU12@V?$allocator@U?$pair@FF@std@@@2@@stdext@@YAPAU?$pair@FF@std@@PAU12@00AAV?$allocator@U?$pair@FF@std@@@2@@Z PROC ; stdext::unchecked_uninitialized_copy<std::pair<short,short> *,std::pair<short,short> *,std::allocator<std::pair<short,short> > >, COMDAT

; 819  : 	{	// copy [_First, _Last) to raw _Dest, using _Al

	push	ecx

; 820  : 	return (_STD _Uninit_copy(_CHECKED_BASE(_First),
; 821  : 		_CHECKED_BASE(_Last), _Dest, _Al,
; 822  : 		_STD _Ptr_cat(_First, _Dest), _STD _Range_checked_iterator_tag()));

	mov	edx, DWORD PTR __Al$[esp]
	mov	BYTE PTR $T219555[esp+4], 0
	mov	eax, DWORD PTR $T219555[esp+4]
	mov	ecx, DWORD PTR __Cat$219559[esp+4]
	push	eax
	mov	eax, DWORD PTR __Dest$[esp+4]
	push	ecx
	mov	ecx, DWORD PTR __Last$[esp+8]
	push	edx
	mov	edx, DWORD PTR __First$[esp+12]
	push	eax
	push	ecx
	push	edx
	call	??$_Uninit_copy@PAU?$pair@FF@std@@PAU12@V?$allocator@U?$pair@FF@std@@@2@@std@@YAPAU?$pair@FF@0@PAU10@00AAV?$allocator@U?$pair@FF@std@@@0@U_Nonscalar_ptr_iterator_tag@0@U_Range_checked_iterator_tag@0@@Z ; std::_Uninit_copy<std::pair<short,short> *,std::pair<short,short> *,std::allocator<std::pair<short,short> > >

; 823  : 	}

	add	esp, 28					; 0000001cH
	ret	0
??$unchecked_uninitialized_copy@PAU?$pair@FF@std@@PAU12@V?$allocator@U?$pair@FF@std@@@2@@stdext@@YAPAU?$pair@FF@std@@PAU12@00AAV?$allocator@U?$pair@FF@std@@@2@@Z ENDP ; stdext::unchecked_uninitialized_copy<std::pair<short,short> *,std::pair<short,short> *,std::allocator<std::pair<short,short> > >
_TEXT	ENDS
PUBLIC	?_Buy@?$vector@U?$pair@FF@std@@V?$allocator@U?$pair@FF@std@@@2@@std@@IAE_NI@Z ; std::vector<std::pair<short,short>,std::allocator<std::pair<short,short> > >::_Buy
; Function compile flags: /Ogtpy
; File c:\program files (x86)\microsoft visual studio 9.0\vc\include\vector
;	COMDAT ?_Buy@?$vector@U?$pair@FF@std@@V?$allocator@U?$pair@FF@std@@@2@@std@@IAE_NI@Z
_TEXT	SEGMENT
__Capacity$ = 8						; size = 4
?_Buy@?$vector@U?$pair@FF@std@@V?$allocator@U?$pair@FF@std@@@2@@std@@IAE_NI@Z PROC ; std::vector<std::pair<short,short>,std::allocator<std::pair<short,short> > >::_Buy, COMDAT
; _this$ = ecx

; 1102 : 		{	// allocate array with _Capacity elements

	push	esi

; 1103 : 		_Myfirst = 0, _Mylast = 0, _Myend = 0;

	xor	eax, eax
	push	edi

; 1104 : 		if (_Capacity == 0)

	mov	edi, DWORD PTR __Capacity$[esp+4]
	mov	esi, ecx
	mov	DWORD PTR [esi+4], eax
	mov	DWORD PTR [esi+8], eax
	mov	DWORD PTR [esi+12], eax
	cmp	edi, eax
	jne	SHORT $LN4@Buy
	pop	edi

; 1105 : 			return (false);

	xor	al, al
	pop	esi

; 1115 : 		}

	ret	4
$LN4@Buy:

; 1106 : 		else if (max_size() < _Capacity)

	cmp	edi, 1073741823				; 3fffffffH
	jbe	SHORT $LN2@Buy

; 1107 : 			_Xlen();	// result too long

	call	?_Xlen@?$vector@U?$pair@FF@std@@V?$allocator@U?$pair@FF@std@@@2@@std@@KAXXZ ; std::vector<std::pair<short,short>,std::allocator<std::pair<short,short> > >::_Xlen
$LN16@Buy:
$LN2@Buy:

; 1108 : 		else
; 1109 : 			{	// nonempty array, allocate storage
; 1110 : 			_Myfirst = this->_Alval.allocate(_Capacity);

	push	eax
	push	edi
	call	??$_Allocate@U?$pair@FF@std@@@std@@YAPAU?$pair@FF@0@IPAU10@@Z ; std::_Allocate<std::pair<short,short> >
	mov	DWORD PTR [esi+4], eax

; 1111 : 			_Mylast = _Myfirst;

	mov	DWORD PTR [esi+8], eax
	add	esp, 8

; 1112 : 			_Myend = _Myfirst + _Capacity;

	lea	eax, DWORD PTR [eax+edi*4]
	mov	DWORD PTR [esi+12], eax
	pop	edi

; 1113 : 			}
; 1114 : 		return (true);

	mov	al, 1
	pop	esi

; 1115 : 		}

	ret	4
$LN15@Buy:
?_Buy@?$vector@U?$pair@FF@std@@V?$allocator@U?$pair@FF@std@@@2@@std@@IAE_NI@Z ENDP ; std::vector<std::pair<short,short>,std::allocator<std::pair<short,short> > >::_Buy
_TEXT	ENDS
PUBLIC	??$_Destroy_range@V?$allocator@U?$pair@FF@std@@@std@@@std@@YAXPAU?$pair@FF@0@0AAV?$allocator@U?$pair@FF@std@@@0@@Z ; std::_Destroy_range<std::allocator<std::pair<short,short> > >
; Function compile flags: /Ogtpy
; File c:\program files (x86)\microsoft visual studio 9.0\vc\include\xmemory
;	COMDAT ??$_Destroy_range@V?$allocator@U?$pair@FF@std@@@std@@@std@@YAXPAU?$pair@FF@0@0AAV?$allocator@U?$pair@FF@std@@@0@@Z
_TEXT	SEGMENT
__First$ = 8						; size = 4
__Last$ = 12						; size = 4
__Al$ = 16						; size = 4
??$_Destroy_range@V?$allocator@U?$pair@FF@std@@@std@@@std@@YAXPAU?$pair@FF@0@0AAV?$allocator@U?$pair@FF@std@@@0@@Z PROC ; std::_Destroy_range<std::allocator<std::pair<short,short> > >, COMDAT

; 225  : 	_Destroy_range(_First, _Last, _Al, _Ptr_cat(_First, _Last));
; 226  : 	}

	ret	0
??$_Destroy_range@V?$allocator@U?$pair@FF@std@@@std@@@std@@YAXPAU?$pair@FF@0@0AAV?$allocator@U?$pair@FF@std@@@0@@Z ENDP ; std::_Destroy_range<std::allocator<std::pair<short,short> > >
_TEXT	ENDS
PUBLIC	??$unchecked_uninitialized_fill_n@PAU?$pair@FF@std@@IU12@V?$allocator@U?$pair@FF@std@@@2@@stdext@@YAXPAU?$pair@FF@std@@IABU12@AAV?$allocator@U?$pair@FF@std@@@2@@Z ; stdext::unchecked_uninitialized_fill_n<std::pair<short,short> *,unsigned int,std::pair<short,short>,std::allocator<std::pair<short,short> > >
; Function compile flags: /Ogtpy
; File c:\program files (x86)\microsoft visual studio 9.0\vc\include\memory
;	COMDAT ??$unchecked_uninitialized_fill_n@PAU?$pair@FF@std@@IU12@V?$allocator@U?$pair@FF@std@@@2@@stdext@@YAXPAU?$pair@FF@std@@IABU12@AAV?$allocator@U?$pair@FF@std@@@2@@Z
_TEXT	SEGMENT
$T219596 = -4						; size = 1
__Cat$219600 = -4					; size = 1
__First$ = 8						; size = 4
__Count$ = 12						; size = 4
__Val$ = 16						; size = 4
__Al$ = 20						; size = 4
??$unchecked_uninitialized_fill_n@PAU?$pair@FF@std@@IU12@V?$allocator@U?$pair@FF@std@@@2@@stdext@@YAXPAU?$pair@FF@std@@IABU12@AAV?$allocator@U?$pair@FF@std@@@2@@Z PROC ; stdext::unchecked_uninitialized_fill_n<std::pair<short,short> *,unsigned int,std::pair<short,short>,std::allocator<std::pair<short,short> > >, COMDAT

; 940  : 	{	// copy _Count *_Val to raw _First, using _Al

	push	ecx

; 941  : 	_STD _Uninit_fill_n(_First, _Count, _Val, _Al,
; 942  : 		_STD _Ptr_cat(_First, _First), _STD _Range_checked_iterator_tag());

	mov	edx, DWORD PTR __Al$[esp]
	mov	BYTE PTR $T219596[esp+4], 0
	mov	eax, DWORD PTR $T219596[esp+4]
	mov	ecx, DWORD PTR __Cat$219600[esp+4]
	push	eax
	mov	eax, DWORD PTR __Val$[esp+4]
	push	ecx
	mov	ecx, DWORD PTR __Count$[esp+8]
	push	edx
	mov	edx, DWORD PTR __First$[esp+12]
	push	eax
	push	ecx
	push	edx
	call	??$_Uninit_fill_n@PAU?$pair@FF@std@@IU12@V?$allocator@U?$pair@FF@std@@@2@@std@@YAXPAU?$pair@FF@0@IABU10@AAV?$allocator@U?$pair@FF@std@@@0@U_Nonscalar_ptr_iterator_tag@0@U_Range_checked_iterator_tag@0@@Z ; std::_Uninit_fill_n<std::pair<short,short> *,unsigned int,std::pair<short,short>,std::allocator<std::pair<short,short> > >

; 943  : 	}

	add	esp, 28					; 0000001cH
	ret	0
??$unchecked_uninitialized_fill_n@PAU?$pair@FF@std@@IU12@V?$allocator@U?$pair@FF@std@@@2@@stdext@@YAXPAU?$pair@FF@std@@IABU12@AAV?$allocator@U?$pair@FF@std@@@2@@Z ENDP ; stdext::unchecked_uninitialized_fill_n<std::pair<short,short> *,unsigned int,std::pair<short,short>,std::allocator<std::pair<short,short> > >
_TEXT	ENDS
PUBLIC	??$_Uninit_move@V?$_Vector_iterator@U?$pair@FF@std@@V?$allocator@U?$pair@FF@std@@@2@@std@@PAU?$pair@FF@2@V?$allocator@U?$pair@FF@std@@@2@U_Undefined_move_tag@2@@std@@YAPAU?$pair@FF@0@V?$_Vector_iterator@U?$pair@FF@std@@V?$allocator@U?$pair@FF@std@@@2@@0@0PAU10@AAV?$allocator@U?$pair@FF@std@@@0@U_Undefined_move_tag@0@U_Range_checked_iterator_tag@0@@Z ; std::_Uninit_move<std::_Vector_iterator<std::pair<short,short>,std::allocator<std::pair<short,short> > >,std::pair<short,short> *,std::allocator<std::pair<short,short> >,std::_Undefined_move_tag>
; Function compile flags: /Ogtpy
;	COMDAT ??$_Uninit_move@V?$_Vector_iterator@U?$pair@FF@std@@V?$allocator@U?$pair@FF@std@@@2@@std@@PAU?$pair@FF@2@V?$allocator@U?$pair@FF@std@@@2@U_Undefined_move_tag@2@@std@@YAPAU?$pair@FF@0@V?$_Vector_iterator@U?$pair@FF@std@@V?$allocator@U?$pair@FF@std@@@2@@0@0PAU10@AAV?$allocator@U?$pair@FF@std@@@0@U_Undefined_move_tag@0@U_Range_checked_iterator_tag@0@@Z
_TEXT	SEGMENT
$T219614 = -4						; size = 1
__First$ = 8						; size = 4
__Last$ = 12						; size = 4
__Cat$219617 = 16					; size = 1
__Dest$ = 16						; size = 4
__Al$ = 20						; size = 4
___formal$ = 24						; size = 1
___formal$ = 28						; size = 1
??$_Uninit_move@V?$_Vector_iterator@U?$pair@FF@std@@V?$allocator@U?$pair@FF@std@@@2@@std@@PAU?$pair@FF@2@V?$allocator@U?$pair@FF@std@@@2@U_Undefined_move_tag@2@@std@@YAPAU?$pair@FF@0@V?$_Vector_iterator@U?$pair@FF@std@@V?$allocator@U?$pair@FF@std@@@2@@0@0PAU10@AAV?$allocator@U?$pair@FF@std@@@0@U_Undefined_move_tag@0@U_Range_checked_iterator_tag@0@@Z PROC ; std::_Uninit_move<std::_Vector_iterator<std::pair<short,short>,std::allocator<std::pair<short,short> > >,std::pair<short,short> *,std::allocator<std::pair<short,short> >,std::_Undefined_move_tag>, COMDAT

; 206  : 	{	// move defaults to copy if there is not a more effecient way

	push	ecx

; 207  : 	return (_STDEXT unchecked_uninitialized_copy(_First, _Last, _Dest, _Al));

	mov	ecx, DWORD PTR __Cat$219617[esp]
	mov	edx, DWORD PTR __Al$[esp]
	mov	BYTE PTR $T219614[esp+4], 0
	mov	eax, DWORD PTR $T219614[esp+4]
	push	eax
	mov	eax, DWORD PTR __Dest$[esp+4]
	push	ecx
	mov	ecx, DWORD PTR __Last$[esp+8]
	push	edx
	mov	edx, DWORD PTR __First$[esp+12]
	push	eax
	push	ecx
	push	edx
	call	??$_Uninit_copy@V?$_Vector_iterator@U?$pair@FF@std@@V?$allocator@U?$pair@FF@std@@@2@@std@@PAU?$pair@FF@2@V?$allocator@U?$pair@FF@std@@@2@@std@@YAPAU?$pair@FF@0@V?$_Vector_iterator@U?$pair@FF@std@@V?$allocator@U?$pair@FF@std@@@2@@0@0PAU10@AAV?$allocator@U?$pair@FF@std@@@0@U_Nonscalar_ptr_iterator_tag@0@U_Range_checked_iterator_tag@0@@Z ; std::_Uninit_copy<std::_Vector_iterator<std::pair<short,short>,std::allocator<std::pair<short,short> > >,std::pair<short,short> *,std::allocator<std::pair<short,short> > >

; 208  : 	}

	add	esp, 28					; 0000001cH
	ret	0
??$_Uninit_move@V?$_Vector_iterator@U?$pair@FF@std@@V?$allocator@U?$pair@FF@std@@@2@@std@@PAU?$pair@FF@2@V?$allocator@U?$pair@FF@std@@@2@U_Undefined_move_tag@2@@std@@YAPAU?$pair@FF@0@V?$_Vector_iterator@U?$pair@FF@std@@V?$allocator@U?$pair@FF@std@@@2@@0@0PAU10@AAV?$allocator@U?$pair@FF@std@@@0@U_Undefined_move_tag@0@U_Range_checked_iterator_tag@0@@Z ENDP ; std::_Uninit_move<std::_Vector_iterator<std::pair<short,short>,std::allocator<std::pair<short,short> > >,std::pair<short,short> *,std::allocator<std::pair<short,short> >,std::_Undefined_move_tag>
_TEXT	ENDS
PUBLIC	??$_Uninit_move@PAU?$pair@FF@std@@PAU12@V?$allocator@U?$pair@FF@std@@@2@U_Undefined_move_tag@2@@std@@YAPAU?$pair@FF@0@PAU10@00AAV?$allocator@U?$pair@FF@std@@@0@U_Undefined_move_tag@0@U_Range_checked_iterator_tag@0@@Z ; std::_Uninit_move<std::pair<short,short> *,std::pair<short,short> *,std::allocator<std::pair<short,short> >,std::_Undefined_move_tag>
; Function compile flags: /Ogtpy
;	COMDAT ??$_Uninit_move@PAU?$pair@FF@std@@PAU12@V?$allocator@U?$pair@FF@std@@@2@U_Undefined_move_tag@2@@std@@YAPAU?$pair@FF@0@PAU10@00AAV?$allocator@U?$pair@FF@std@@@0@U_Undefined_move_tag@0@U_Range_checked_iterator_tag@0@@Z
_TEXT	SEGMENT
$T219633 = -4						; size = 1
__First$ = 8						; size = 4
__Last$ = 12						; size = 4
__Cat$219636 = 16					; size = 1
__Dest$ = 16						; size = 4
__Al$ = 20						; size = 4
___formal$ = 24						; size = 1
___formal$ = 28						; size = 1
??$_Uninit_move@PAU?$pair@FF@std@@PAU12@V?$allocator@U?$pair@FF@std@@@2@U_Undefined_move_tag@2@@std@@YAPAU?$pair@FF@0@PAU10@00AAV?$allocator@U?$pair@FF@std@@@0@U_Undefined_move_tag@0@U_Range_checked_iterator_tag@0@@Z PROC ; std::_Uninit_move<std::pair<short,short> *,std::pair<short,short> *,std::allocator<std::pair<short,short> >,std::_Undefined_move_tag>, COMDAT

; 206  : 	{	// move defaults to copy if there is not a more effecient way

	push	ecx

; 207  : 	return (_STDEXT unchecked_uninitialized_copy(_First, _Last, _Dest, _Al));

	mov	ecx, DWORD PTR __Cat$219636[esp]
	mov	edx, DWORD PTR __Al$[esp]
	mov	BYTE PTR $T219633[esp+4], 0
	mov	eax, DWORD PTR $T219633[esp+4]
	push	eax
	mov	eax, DWORD PTR __Dest$[esp+4]
	push	ecx
	mov	ecx, DWORD PTR __Last$[esp+8]
	push	edx
	mov	edx, DWORD PTR __First$[esp+12]
	push	eax
	push	ecx
	push	edx
	call	??$_Uninit_copy@PAU?$pair@FF@std@@PAU12@V?$allocator@U?$pair@FF@std@@@2@@std@@YAPAU?$pair@FF@0@PAU10@00AAV?$allocator@U?$pair@FF@std@@@0@U_Nonscalar_ptr_iterator_tag@0@U_Range_checked_iterator_tag@0@@Z ; std::_Uninit_copy<std::pair<short,short> *,std::pair<short,short> *,std::allocator<std::pair<short,short> > >

; 208  : 	}

	add	esp, 28					; 0000001cH
	ret	0
??$_Uninit_move@PAU?$pair@FF@std@@PAU12@V?$allocator@U?$pair@FF@std@@@2@U_Undefined_move_tag@2@@std@@YAPAU?$pair@FF@0@PAU10@00AAV?$allocator@U?$pair@FF@std@@@0@U_Undefined_move_tag@0@U_Range_checked_iterator_tag@0@@Z ENDP ; std::_Uninit_move<std::pair<short,short> *,std::pair<short,short> *,std::allocator<std::pair<short,short> >,std::_Undefined_move_tag>
_TEXT	ENDS
PUBLIC	??0?$vector@U?$pair@FF@std@@V?$allocator@U?$pair@FF@std@@@2@@std@@QAE@XZ ; std::vector<std::pair<short,short>,std::allocator<std::pair<short,short> > >::vector<std::pair<short,short>,std::allocator<std::pair<short,short> > >
; Function compile flags: /Ogtpy
; File c:\program files (x86)\microsoft visual studio 9.0\vc\include\vector
;	COMDAT ??0?$vector@U?$pair@FF@std@@V?$allocator@U?$pair@FF@std@@@2@@std@@QAE@XZ
_TEXT	SEGMENT
??0?$vector@U?$pair@FF@std@@V?$allocator@U?$pair@FF@std@@@2@@std@@QAE@XZ PROC ; std::vector<std::pair<short,short>,std::allocator<std::pair<short,short> > >::vector<std::pair<short,short>,std::allocator<std::pair<short,short> > >, COMDAT
; _this$ = ecx

; 470  : 		{	// construct empty vector

	mov	eax, ecx

; 471  : 		_Buy(0);

	xor	ecx, ecx
	mov	DWORD PTR [eax+4], ecx
	mov	DWORD PTR [eax+8], ecx
	mov	DWORD PTR [eax+12], ecx

; 472  : 		}

	ret	0
??0?$vector@U?$pair@FF@std@@V?$allocator@U?$pair@FF@std@@@2@@std@@QAE@XZ ENDP ; std::vector<std::pair<short,short>,std::allocator<std::pair<short,short> > >::vector<std::pair<short,short>,std::allocator<std::pair<short,short> > >
_TEXT	ENDS
PUBLIC	?_Destroy@?$vector@U?$pair@FF@std@@V?$allocator@U?$pair@FF@std@@@2@@std@@IAEXPAU?$pair@FF@2@0@Z ; std::vector<std::pair<short,short>,std::allocator<std::pair<short,short> > >::_Destroy
; Function compile flags: /Ogtpy
;	COMDAT ?_Destroy@?$vector@U?$pair@FF@std@@V?$allocator@U?$pair@FF@std@@@2@@std@@IAEXPAU?$pair@FF@2@0@Z
_TEXT	SEGMENT
__First$ = 8						; size = 4
__Last$ = 12						; size = 4
?_Destroy@?$vector@U?$pair@FF@std@@V?$allocator@U?$pair@FF@std@@@2@@std@@IAEXPAU?$pair@FF@2@0@Z PROC ; std::vector<std::pair<short,short>,std::allocator<std::pair<short,short> > >::_Destroy, COMDAT
; _this$ = ecx

; 1119 : 		_Destroy_range(_First, _Last, this->_Alval);
; 1120 : 		}

	ret	8
?_Destroy@?$vector@U?$pair@FF@std@@V?$allocator@U?$pair@FF@std@@@2@@std@@IAEXPAU?$pair@FF@2@0@Z ENDP ; std::vector<std::pair<short,short>,std::allocator<std::pair<short,short> > >::_Destroy
_TEXT	ENDS
PUBLIC	?_Tidy@?$vector@U?$pair@FF@std@@V?$allocator@U?$pair@FF@std@@@2@@std@@IAEXXZ ; std::vector<std::pair<short,short>,std::allocator<std::pair<short,short> > >::_Tidy
; Function compile flags: /Ogtpy
;	COMDAT ?_Tidy@?$vector@U?$pair@FF@std@@V?$allocator@U?$pair@FF@std@@@2@@std@@IAEXXZ
_TEXT	SEGMENT
?_Tidy@?$vector@U?$pair@FF@std@@V?$allocator@U?$pair@FF@std@@@2@@std@@IAEXXZ PROC ; std::vector<std::pair<short,short>,std::allocator<std::pair<short,short> > >::_Tidy, COMDAT
; _this$ = ecx

; 1123 : 		{	// free all storage

	push	esi
	mov	esi, ecx

; 1124 : 		if (_Myfirst != 0)

	mov	eax, DWORD PTR [esi+4]
	test	eax, eax
	je	SHORT $LN4@Tidy

; 1125 : 			{	// something to free, destroy and deallocate it
; 1126 : 
; 1127 :  #if _HAS_ITERATOR_DEBUGGING
; 1128 : 			this->_Orphan_all();
; 1129 :  #endif /* _HAS_ITERATOR_DEBUGGING */
; 1130 : 
; 1131 : 			_Destroy(_Myfirst, _Mylast);
; 1132 : 			this->_Alval.deallocate(_Myfirst, _Myend - _Myfirst);

	push	eax
	call	??3@YAXPAX@Z				; operator delete
	add	esp, 4
$LN4@Tidy:

; 1133 : 			}
; 1134 : 		_Myfirst = 0, _Mylast = 0, _Myend = 0;

	mov	DWORD PTR [esi+4], 0
	mov	DWORD PTR [esi+8], 0
	mov	DWORD PTR [esi+12], 0
	pop	esi

; 1135 : 		}

	ret	0
?_Tidy@?$vector@U?$pair@FF@std@@V?$allocator@U?$pair@FF@std@@@2@@std@@IAEXXZ ENDP ; std::vector<std::pair<short,short>,std::allocator<std::pair<short,short> > >::_Tidy
_TEXT	ENDS
PUBLIC	?_Ufill@?$vector@U?$pair@FF@std@@V?$allocator@U?$pair@FF@std@@@2@@std@@IAEPAU?$pair@FF@2@PAU32@IABU32@@Z ; std::vector<std::pair<short,short>,std::allocator<std::pair<short,short> > >::_Ufill
; Function compile flags: /Ogtpy
;	COMDAT ?_Ufill@?$vector@U?$pair@FF@std@@V?$allocator@U?$pair@FF@std@@@2@@std@@IAEPAU?$pair@FF@2@PAU32@IABU32@@Z
_TEXT	SEGMENT
$T219765 = -4						; size = 1
__Ptr$ = 8						; size = 4
__Count$ = 12						; size = 4
__Cat$219768 = 16					; size = 1
__Val$ = 16						; size = 4
?_Ufill@?$vector@U?$pair@FF@std@@V?$allocator@U?$pair@FF@std@@@2@@std@@IAEPAU?$pair@FF@2@PAU32@IABU32@@Z PROC ; std::vector<std::pair<short,short>,std::allocator<std::pair<short,short> > >::_Ufill, COMDAT
; _this$ = ecx

; 1253 : 		{	// copy initializing _Count * _Val, using allocator

	push	ecx

; 1254 : 		_STDEXT unchecked_uninitialized_fill_n(_Ptr, _Count, _Val, this->_Alval);

	mov	edx, DWORD PTR __Cat$219768[esp]
	push	esi
	mov	esi, DWORD PTR __Count$[esp+4]
	push	edi
	mov	edi, DWORD PTR __Ptr$[esp+8]
	mov	BYTE PTR $T219765[esp+12], 0
	mov	eax, DWORD PTR $T219765[esp+12]
	push	eax
	mov	eax, DWORD PTR __Val$[esp+12]
	push	edx
	push	ecx
	push	eax
	push	esi
	push	edi
	call	??$_Uninit_fill_n@PAU?$pair@FF@std@@IU12@V?$allocator@U?$pair@FF@std@@@2@@std@@YAXPAU?$pair@FF@0@IABU10@AAV?$allocator@U?$pair@FF@std@@@0@U_Nonscalar_ptr_iterator_tag@0@U_Range_checked_iterator_tag@0@@Z ; std::_Uninit_fill_n<std::pair<short,short> *,unsigned int,std::pair<short,short>,std::allocator<std::pair<short,short> > >
	add	esp, 24					; 00000018H

; 1255 : 		return (_Ptr + _Count);

	lea	eax, DWORD PTR [edi+esi*4]
	pop	edi
	pop	esi

; 1256 : 		}

	pop	ecx
	ret	12					; 0000000cH
?_Ufill@?$vector@U?$pair@FF@std@@V?$allocator@U?$pair@FF@std@@@2@@std@@IAEPAU?$pair@FF@2@PAU32@IABU32@@Z ENDP ; std::vector<std::pair<short,short>,std::allocator<std::pair<short,short> > >::_Ufill
_TEXT	ENDS
PUBLIC	??$_Unchecked_uninitialized_move@V?$_Vector_iterator@U?$pair@FF@std@@V?$allocator@U?$pair@FF@std@@@2@@std@@PAU?$pair@FF@2@V?$allocator@U?$pair@FF@std@@@2@@stdext@@YAPAU?$pair@FF@std@@V?$_Vector_iterator@U?$pair@FF@std@@V?$allocator@U?$pair@FF@std@@@2@@2@0PAU12@AAV?$allocator@U?$pair@FF@std@@@2@@Z ; stdext::_Unchecked_uninitialized_move<std::_Vector_iterator<std::pair<short,short>,std::allocator<std::pair<short,short> > >,std::pair<short,short> *,std::allocator<std::pair<short,short> > >
; Function compile flags: /Ogtpy
; File c:\program files (x86)\microsoft visual studio 9.0\vc\include\memory
;	COMDAT ??$_Unchecked_uninitialized_move@V?$_Vector_iterator@U?$pair@FF@std@@V?$allocator@U?$pair@FF@std@@@2@@std@@PAU?$pair@FF@2@V?$allocator@U?$pair@FF@std@@@2@@stdext@@YAPAU?$pair@FF@std@@V?$_Vector_iterator@U?$pair@FF@std@@V?$allocator@U?$pair@FF@std@@@2@@2@0PAU12@AAV?$allocator@U?$pair@FF@std@@@2@@Z
_TEXT	SEGMENT
$T219801 = -4						; size = 1
__First$ = 8						; size = 4
__Last$ = 12						; size = 4
__Cat$219804 = 16					; size = 1
__Dest$ = 16						; size = 4
__Al$ = 20						; size = 4
??$_Unchecked_uninitialized_move@V?$_Vector_iterator@U?$pair@FF@std@@V?$allocator@U?$pair@FF@std@@@2@@std@@PAU?$pair@FF@2@V?$allocator@U?$pair@FF@std@@@2@@stdext@@YAPAU?$pair@FF@std@@V?$_Vector_iterator@U?$pair@FF@std@@V?$allocator@U?$pair@FF@std@@@2@@2@0PAU12@AAV?$allocator@U?$pair@FF@std@@@2@@Z PROC ; stdext::_Unchecked_uninitialized_move<std::_Vector_iterator<std::pair<short,short>,std::allocator<std::pair<short,short> > >,std::pair<short,short> *,std::allocator<std::pair<short,short> > >, COMDAT

; 861  : 	{	// move [_First, _Last) to raw _Dest, using _Al

	push	ecx

; 862  : 	return (_STD _Uninit_move(_CHECKED_BASE(_First),
; 863  : 		_CHECKED_BASE(_Last), _Dest, _Al,
; 864  : 		_STD _Move_cat(_Dest), _STD _Range_checked_iterator_tag()));

	mov	ecx, DWORD PTR __Cat$219804[esp]
	mov	edx, DWORD PTR __Al$[esp]
	mov	BYTE PTR $T219801[esp+4], 0
	mov	eax, DWORD PTR $T219801[esp+4]
	push	eax
	mov	eax, DWORD PTR __Dest$[esp+4]
	push	ecx
	mov	ecx, DWORD PTR __Last$[esp+8]
	push	edx
	mov	edx, DWORD PTR __First$[esp+12]
	push	eax
	push	ecx
	push	edx
	call	??$_Uninit_copy@V?$_Vector_iterator@U?$pair@FF@std@@V?$allocator@U?$pair@FF@std@@@2@@std@@PAU?$pair@FF@2@V?$allocator@U?$pair@FF@std@@@2@@std@@YAPAU?$pair@FF@0@V?$_Vector_iterator@U?$pair@FF@std@@V?$allocator@U?$pair@FF@std@@@2@@0@0PAU10@AAV?$allocator@U?$pair@FF@std@@@0@U_Nonscalar_ptr_iterator_tag@0@U_Range_checked_iterator_tag@0@@Z ; std::_Uninit_copy<std::_Vector_iterator<std::pair<short,short>,std::allocator<std::pair<short,short> > >,std::pair<short,short> *,std::allocator<std::pair<short,short> > >

; 865  : 	}

	add	esp, 28					; 0000001cH
	ret	0
??$_Unchecked_uninitialized_move@V?$_Vector_iterator@U?$pair@FF@std@@V?$allocator@U?$pair@FF@std@@@2@@std@@PAU?$pair@FF@2@V?$allocator@U?$pair@FF@std@@@2@@stdext@@YAPAU?$pair@FF@std@@V?$_Vector_iterator@U?$pair@FF@std@@V?$allocator@U?$pair@FF@std@@@2@@2@0PAU12@AAV?$allocator@U?$pair@FF@std@@@2@@Z ENDP ; stdext::_Unchecked_uninitialized_move<std::_Vector_iterator<std::pair<short,short>,std::allocator<std::pair<short,short> > >,std::pair<short,short> *,std::allocator<std::pair<short,short> > >
_TEXT	ENDS
PUBLIC	??$_Unchecked_uninitialized_move@PAU?$pair@FF@std@@PAU12@V?$allocator@U?$pair@FF@std@@@2@@stdext@@YAPAU?$pair@FF@std@@PAU12@00AAV?$allocator@U?$pair@FF@std@@@2@@Z ; stdext::_Unchecked_uninitialized_move<std::pair<short,short> *,std::pair<short,short> *,std::allocator<std::pair<short,short> > >
; Function compile flags: /Ogtpy
;	COMDAT ??$_Unchecked_uninitialized_move@PAU?$pair@FF@std@@PAU12@V?$allocator@U?$pair@FF@std@@@2@@stdext@@YAPAU?$pair@FF@std@@PAU12@00AAV?$allocator@U?$pair@FF@std@@@2@@Z
_TEXT	SEGMENT
$T219838 = -4						; size = 1
__First$ = 8						; size = 4
__Last$ = 12						; size = 4
__Cat$219841 = 16					; size = 1
__Dest$ = 16						; size = 4
__Al$ = 20						; size = 4
??$_Unchecked_uninitialized_move@PAU?$pair@FF@std@@PAU12@V?$allocator@U?$pair@FF@std@@@2@@stdext@@YAPAU?$pair@FF@std@@PAU12@00AAV?$allocator@U?$pair@FF@std@@@2@@Z PROC ; stdext::_Unchecked_uninitialized_move<std::pair<short,short> *,std::pair<short,short> *,std::allocator<std::pair<short,short> > >, COMDAT

; 861  : 	{	// move [_First, _Last) to raw _Dest, using _Al

	push	ecx

; 862  : 	return (_STD _Uninit_move(_CHECKED_BASE(_First),
; 863  : 		_CHECKED_BASE(_Last), _Dest, _Al,
; 864  : 		_STD _Move_cat(_Dest), _STD _Range_checked_iterator_tag()));

	mov	ecx, DWORD PTR __Cat$219841[esp]
	mov	edx, DWORD PTR __Al$[esp]
	mov	BYTE PTR $T219838[esp+4], 0
	mov	eax, DWORD PTR $T219838[esp+4]
	push	eax
	mov	eax, DWORD PTR __Dest$[esp+4]
	push	ecx
	mov	ecx, DWORD PTR __Last$[esp+8]
	push	edx
	mov	edx, DWORD PTR __First$[esp+12]
	push	eax
	push	ecx
	push	edx
	call	??$_Uninit_copy@PAU?$pair@FF@std@@PAU12@V?$allocator@U?$pair@FF@std@@@2@@std@@YAPAU?$pair@FF@0@PAU10@00AAV?$allocator@U?$pair@FF@std@@@0@U_Nonscalar_ptr_iterator_tag@0@U_Range_checked_iterator_tag@0@@Z ; std::_Uninit_copy<std::pair<short,short> *,std::pair<short,short> *,std::allocator<std::pair<short,short> > >

; 865  : 	}

	add	esp, 28					; 0000001cH
	ret	0
??$_Unchecked_uninitialized_move@PAU?$pair@FF@std@@PAU12@V?$allocator@U?$pair@FF@std@@@2@@stdext@@YAPAU?$pair@FF@std@@PAU12@00AAV?$allocator@U?$pair@FF@std@@@2@@Z ENDP ; stdext::_Unchecked_uninitialized_move<std::pair<short,short> *,std::pair<short,short> *,std::allocator<std::pair<short,short> > >
_TEXT	ENDS
PUBLIC	??1?$vector@U?$pair@FF@std@@V?$allocator@U?$pair@FF@std@@@2@@std@@QAE@XZ ; std::vector<std::pair<short,short>,std::allocator<std::pair<short,short> > >::~vector<std::pair<short,short>,std::allocator<std::pair<short,short> > >
; Function compile flags: /Ogtpy
; File c:\program files (x86)\microsoft visual studio 9.0\vc\include\vector
;	COMDAT ??1?$vector@U?$pair@FF@std@@V?$allocator@U?$pair@FF@std@@@2@@std@@QAE@XZ
_TEXT	SEGMENT
??1?$vector@U?$pair@FF@std@@V?$allocator@U?$pair@FF@std@@@2@@std@@QAE@XZ PROC ; std::vector<std::pair<short,short>,std::allocator<std::pair<short,short> > >::~vector<std::pair<short,short>,std::allocator<std::pair<short,short> > >, COMDAT
; _this$ = ecx

; 558  : 		{	// destroy the object

	push	esi
	mov	esi, ecx

; 559  : 		_Tidy();

	mov	eax, DWORD PTR [esi+4]
	test	eax, eax
	je	SHORT $LN6@vector
	push	eax
	call	??3@YAXPAX@Z				; operator delete
	add	esp, 4
$LN6@vector:
	mov	DWORD PTR [esi+4], 0
	mov	DWORD PTR [esi+8], 0
	mov	DWORD PTR [esi+12], 0
	pop	esi

; 560  : 		}

	ret	0
??1?$vector@U?$pair@FF@std@@V?$allocator@U?$pair@FF@std@@@2@@std@@QAE@XZ ENDP ; std::vector<std::pair<short,short>,std::allocator<std::pair<short,short> > >::~vector<std::pair<short,short>,std::allocator<std::pair<short,short> > >
_TEXT	ENDS
PUBLIC	?erase@?$vector@U?$pair@FF@std@@V?$allocator@U?$pair@FF@std@@@2@@std@@QAE?AV?$_Vector_iterator@U?$pair@FF@std@@V?$allocator@U?$pair@FF@std@@@2@@2@V?$_Vector_const_iterator@U?$pair@FF@std@@V?$allocator@U?$pair@FF@std@@@2@@2@0@Z ; std::vector<std::pair<short,short>,std::allocator<std::pair<short,short> > >::erase
; Function compile flags: /Ogtpy
;	COMDAT ?erase@?$vector@U?$pair@FF@std@@V?$allocator@U?$pair@FF@std@@@2@@std@@QAE?AV?$_Vector_iterator@U?$pair@FF@std@@V?$allocator@U?$pair@FF@std@@@2@@2@V?$_Vector_const_iterator@U?$pair@FF@std@@V?$allocator@U?$pair@FF@std@@@2@@2@0@Z
_TEXT	SEGMENT
___$ReturnUdt$ = 8					; size = 4
__First_arg$ = 12					; size = 4
__Last_arg$ = 16					; size = 4
?erase@?$vector@U?$pair@FF@std@@V?$allocator@U?$pair@FF@std@@@2@@std@@QAE?AV?$_Vector_iterator@U?$pair@FF@std@@V?$allocator@U?$pair@FF@std@@@2@@2@V?$_Vector_const_iterator@U?$pair@FF@std@@V?$allocator@U?$pair@FF@std@@@2@@2@0@Z PROC ; std::vector<std::pair<short,short>,std::allocator<std::pair<short,short> > >::erase, COMDAT
; _this$ = ecx

; 1029 : 		iterator _First = _Make_iter(_First_arg);
; 1030 : 		iterator _Last = _Make_iter(_Last_arg);
; 1031 : 
; 1032 : 		if (_First != _Last)

	mov	edx, DWORD PTR __Last_arg$[esp-4]
	mov	eax, DWORD PTR ___$ReturnUdt$[esp-4]
	push	esi
	mov	esi, DWORD PTR __First_arg$[esp]
	mov	DWORD PTR [eax], esi
	cmp	esi, edx
	je	SHORT $LN1@erase
	push	edi

; 1033 : 			{	// worth doing, copy down over hole
; 1034 : 
; 1035 :  #if _HAS_ITERATOR_DEBUGGING
; 1036 : 			if (_Last < _First || _First._Mycont != this
; 1037 : 				|| _First._Myptr < _Myfirst || _Mylast < _Last._Myptr)
; 1038 : 				_DEBUG_ERROR("vector erase iterator outside range");
; 1039 : 			pointer _Ptr = _STDEXT unchecked_copy(_VEC_ITER_BASE(_Last), _Mylast,
; 1040 : 				_VEC_ITER_BASE(_First));
; 1041 : 			_Orphan_range(_First._Myptr, _Mylast);
; 1042 : 
; 1043 :  #else /* _HAS_ITERATOR_DEBUGGING */
; 1044 : 			pointer _Ptr = _STDEXT unchecked_copy(_VEC_ITER_BASE(_Last), _Mylast,
; 1045 : 				_VEC_ITER_BASE(_First));

	mov	edi, DWORD PTR [ecx+8]
	cmp	edx, edi
	je	SHORT $LN26@erase
	push	ebx
	npad	4
$LL28@erase:
	mov	ebx, DWORD PTR [edx]
	mov	DWORD PTR [esi], ebx
	add	edx, 4
	add	esi, 4
	cmp	edx, edi
	jne	SHORT $LL28@erase
	pop	ebx
$LN26@erase:

; 1046 :  #endif /* _HAS_ITERATOR_DEBUGGING */
; 1047 : 
; 1048 : 			_Destroy(_Ptr, _Mylast);
; 1049 : 			_Mylast = _Ptr;

	mov	DWORD PTR [ecx+8], esi
	pop	edi
$LN1@erase:
	pop	esi

; 1050 : 			}
; 1051 : #if _HAS_ITERATOR_DEBUGGING
; 1052 :         return (iterator(_First._Myptr, this));
; 1053 : #else
; 1054 : 		return (_First);
; 1055 : #endif
; 1056 : 		}

	ret	12					; 0000000cH
?erase@?$vector@U?$pair@FF@std@@V?$allocator@U?$pair@FF@std@@@2@@std@@QAE?AV?$_Vector_iterator@U?$pair@FF@std@@V?$allocator@U?$pair@FF@std@@@2@@2@V?$_Vector_const_iterator@U?$pair@FF@std@@V?$allocator@U?$pair@FF@std@@@2@@2@0@Z ENDP ; std::vector<std::pair<short,short>,std::allocator<std::pair<short,short> > >::erase
_TEXT	ENDS
PUBLIC	??$_Umove@V?$_Vector_iterator@U?$pair@FF@std@@V?$allocator@U?$pair@FF@std@@@2@@std@@@?$vector@U?$pair@FF@std@@V?$allocator@U?$pair@FF@std@@@2@@std@@IAEPAU?$pair@FF@1@V?$_Vector_iterator@U?$pair@FF@std@@V?$allocator@U?$pair@FF@std@@@2@@1@0PAU21@@Z ; std::vector<std::pair<short,short>,std::allocator<std::pair<short,short> > >::_Umove<std::_Vector_iterator<std::pair<short,short>,std::allocator<std::pair<short,short> > > >
; Function compile flags: /Ogtpy
;	COMDAT ??$_Umove@V?$_Vector_iterator@U?$pair@FF@std@@V?$allocator@U?$pair@FF@std@@@2@@std@@@?$vector@U?$pair@FF@std@@V?$allocator@U?$pair@FF@std@@@2@@std@@IAEPAU?$pair@FF@1@V?$_Vector_iterator@U?$pair@FF@std@@V?$allocator@U?$pair@FF@std@@@2@@1@0PAU21@@Z
_TEXT	SEGMENT
$T219993 = -4						; size = 1
__First$ = 8						; size = 4
__Last$ = 12						; size = 4
__Cat$219996 = 16					; size = 1
__Ptr$ = 16						; size = 4
??$_Umove@V?$_Vector_iterator@U?$pair@FF@std@@V?$allocator@U?$pair@FF@std@@@2@@std@@@?$vector@U?$pair@FF@std@@V?$allocator@U?$pair@FF@std@@@2@@std@@IAEPAU?$pair@FF@1@V?$_Vector_iterator@U?$pair@FF@std@@V?$allocator@U?$pair@FF@std@@@2@@1@0PAU21@@Z PROC ; std::vector<std::pair<short,short>,std::allocator<std::pair<short,short> > >::_Umove<std::_Vector_iterator<std::pair<short,short>,std::allocator<std::pair<short,short> > > >, COMDAT
; _this$ = ecx

; 1145 : 		pointer _Umove(_Iter _First, _Iter _Last, pointer _Ptr)

	push	ecx

; 1146 : 		{	// move initializing [_First, _Last), using allocator
; 1147 : 		return (_STDEXT _Unchecked_uninitialized_move(_First, _Last,
; 1148 : 			_Ptr, this->_Alval));

	mov	edx, DWORD PTR __Cat$219996[esp]
	mov	BYTE PTR $T219993[esp+4], 0
	mov	eax, DWORD PTR $T219993[esp+4]
	push	eax
	mov	eax, DWORD PTR __Ptr$[esp+4]
	push	edx
	mov	edx, DWORD PTR __First$[esp+8]
	push	ecx
	mov	ecx, DWORD PTR __Last$[esp+12]
	push	eax
	push	ecx
	push	edx
	call	??$_Uninit_copy@V?$_Vector_iterator@U?$pair@FF@std@@V?$allocator@U?$pair@FF@std@@@2@@std@@PAU?$pair@FF@2@V?$allocator@U?$pair@FF@std@@@2@@std@@YAPAU?$pair@FF@0@V?$_Vector_iterator@U?$pair@FF@std@@V?$allocator@U?$pair@FF@std@@@2@@0@0PAU10@AAV?$allocator@U?$pair@FF@std@@@0@U_Nonscalar_ptr_iterator_tag@0@U_Range_checked_iterator_tag@0@@Z ; std::_Uninit_copy<std::_Vector_iterator<std::pair<short,short>,std::allocator<std::pair<short,short> > >,std::pair<short,short> *,std::allocator<std::pair<short,short> > >

; 1149 : 		}

	add	esp, 28					; 0000001cH
	ret	12					; 0000000cH
??$_Umove@V?$_Vector_iterator@U?$pair@FF@std@@V?$allocator@U?$pair@FF@std@@@2@@std@@@?$vector@U?$pair@FF@std@@V?$allocator@U?$pair@FF@std@@@2@@std@@IAEPAU?$pair@FF@1@V?$_Vector_iterator@U?$pair@FF@std@@V?$allocator@U?$pair@FF@std@@@2@@1@0PAU21@@Z ENDP ; std::vector<std::pair<short,short>,std::allocator<std::pair<short,short> > >::_Umove<std::_Vector_iterator<std::pair<short,short>,std::allocator<std::pair<short,short> > > >
_TEXT	ENDS
PUBLIC	??$_Umove@PAU?$pair@FF@std@@@?$vector@U?$pair@FF@std@@V?$allocator@U?$pair@FF@std@@@2@@std@@IAEPAU?$pair@FF@1@PAU21@00@Z ; std::vector<std::pair<short,short>,std::allocator<std::pair<short,short> > >::_Umove<std::pair<short,short> *>
; Function compile flags: /Ogtpy
;	COMDAT ??$_Umove@PAU?$pair@FF@std@@@?$vector@U?$pair@FF@std@@V?$allocator@U?$pair@FF@std@@@2@@std@@IAEPAU?$pair@FF@1@PAU21@00@Z
_TEXT	SEGMENT
$T220048 = -4						; size = 1
__First$ = 8						; size = 4
__Last$ = 12						; size = 4
__Cat$220051 = 16					; size = 1
__Ptr$ = 16						; size = 4
??$_Umove@PAU?$pair@FF@std@@@?$vector@U?$pair@FF@std@@V?$allocator@U?$pair@FF@std@@@2@@std@@IAEPAU?$pair@FF@1@PAU21@00@Z PROC ; std::vector<std::pair<short,short>,std::allocator<std::pair<short,short> > >::_Umove<std::pair<short,short> *>, COMDAT
; _this$ = ecx

; 1145 : 		pointer _Umove(_Iter _First, _Iter _Last, pointer _Ptr)

	push	ecx

; 1146 : 		{	// move initializing [_First, _Last), using allocator
; 1147 : 		return (_STDEXT _Unchecked_uninitialized_move(_First, _Last,
; 1148 : 			_Ptr, this->_Alval));

	mov	edx, DWORD PTR __Cat$220051[esp]
	mov	BYTE PTR $T220048[esp+4], 0
	mov	eax, DWORD PTR $T220048[esp+4]
	push	eax
	mov	eax, DWORD PTR __Ptr$[esp+4]
	push	edx
	mov	edx, DWORD PTR __First$[esp+8]
	push	ecx
	mov	ecx, DWORD PTR __Last$[esp+12]
	push	eax
	push	ecx
	push	edx
	call	??$_Uninit_copy@PAU?$pair@FF@std@@PAU12@V?$allocator@U?$pair@FF@std@@@2@@std@@YAPAU?$pair@FF@0@PAU10@00AAV?$allocator@U?$pair@FF@std@@@0@U_Nonscalar_ptr_iterator_tag@0@U_Range_checked_iterator_tag@0@@Z ; std::_Uninit_copy<std::pair<short,short> *,std::pair<short,short> *,std::allocator<std::pair<short,short> > >

; 1149 : 		}

	add	esp, 28					; 0000001cH
	ret	12					; 0000000cH
??$_Umove@PAU?$pair@FF@std@@@?$vector@U?$pair@FF@std@@V?$allocator@U?$pair@FF@std@@@2@@std@@IAEPAU?$pair@FF@1@PAU21@00@Z ENDP ; std::vector<std::pair<short,short>,std::allocator<std::pair<short,short> > >::_Umove<std::pair<short,short> *>
_TEXT	ENDS
PUBLIC	??_7CvReplayMessage@@6B@			; CvReplayMessage::`vftable'
PUBLIC	??0CvReplayMessage@@QAE@XZ			; CvReplayMessage::CvReplayMessage
PUBLIC	??_R4CvReplayMessage@@6B@			; CvReplayMessage::`RTTI Complete Object Locator'
PUBLIC	??_R0?AVCvReplayMessage@@@8			; CvReplayMessage `RTTI Type Descriptor'
PUBLIC	??_R3CvReplayMessage@@8				; CvReplayMessage::`RTTI Class Hierarchy Descriptor'
PUBLIC	??_R2CvReplayMessage@@8				; CvReplayMessage::`RTTI Base Class Array'
PUBLIC	??_R1A@?0A@EA@CvReplayMessage@@8		; CvReplayMessage::`RTTI Base Class Descriptor at (0,-1,0,64)'
EXTRN	??_ECvReplayMessage@@UAEPAXI@Z:PROC		; CvReplayMessage::`vector deleting destructor'
;	COMDAT ??_R1A@?0A@EA@CvReplayMessage@@8
; File c:\users\enormousapplepie\desktop\lekmod files\lekmod dll versions\v29\lekmod_dll\cvgamecoredllutil\include\cvstring.h
rdata$r	SEGMENT
??_R1A@?0A@EA@CvReplayMessage@@8 DD FLAT:??_R0?AVCvReplayMessage@@@8 ; CvReplayMessage::`RTTI Base Class Descriptor at (0,-1,0,64)'
	DD	00H
	DD	00H
	DD	0ffffffffH
	DD	00H
	DD	040H
	DD	FLAT:??_R3CvReplayMessage@@8
rdata$r	ENDS
;	COMDAT ??_R2CvReplayMessage@@8
rdata$r	SEGMENT
??_R2CvReplayMessage@@8 DD FLAT:??_R1A@?0A@EA@CvReplayMessage@@8 ; CvReplayMessage::`RTTI Base Class Array'
rdata$r	ENDS
;	COMDAT ??_R3CvReplayMessage@@8
rdata$r	SEGMENT
??_R3CvReplayMessage@@8 DD 00H				; CvReplayMessage::`RTTI Class Hierarchy Descriptor'
	DD	00H
	DD	01H
	DD	FLAT:??_R2CvReplayMessage@@8
rdata$r	ENDS
;	COMDAT ??_R0?AVCvReplayMessage@@@8
_DATA	SEGMENT
??_R0?AVCvReplayMessage@@@8 DD FLAT:??_7type_info@@6B@	; CvReplayMessage `RTTI Type Descriptor'
	DD	00H
	DB	'.?AVCvReplayMessage@@', 00H
_DATA	ENDS
;	COMDAT ??_R4CvReplayMessage@@6B@
rdata$r	SEGMENT
??_R4CvReplayMessage@@6B@ DD 00H			; CvReplayMessage::`RTTI Complete Object Locator'
	DD	00H
	DD	00H
	DD	FLAT:??_R0?AVCvReplayMessage@@@8
	DD	FLAT:??_R3CvReplayMessage@@8
rdata$r	ENDS
;	COMDAT ??_7CvReplayMessage@@6B@
CONST	SEGMENT
??_7CvReplayMessage@@6B@ DD FLAT:??_R4CvReplayMessage@@6B@ ; CvReplayMessage::`vftable'
	DD	FLAT:??_ECvReplayMessage@@UAEPAXI@Z
CONST	ENDS
;	COMDAT xdata$x
xdata$x	SEGMENT
__unwindtable$??0CvReplayMessage@@QAE@XZ DD 0ffffffffH
	DD	FLAT:__unwindfunclet$??0CvReplayMessage@@QAE@XZ$0
__ehfuncinfo$??0CvReplayMessage@@QAE@XZ DD 019930522H
	DD	01H
	DD	FLAT:__unwindtable$??0CvReplayMessage@@QAE@XZ
	DD	2 DUP(00H)
	DD	2 DUP(00H)
	DD	00H
	DD	01H
; Function compile flags: /Ogtpy
; File c:\users\enormousapplepie\desktop\lekmod files\lekmod dll versions\v29\lekmod_dll\cvgamecoredll_expansion2\cvreplaymessage.cpp
xdata$x	ENDS
;	COMDAT ??0CvReplayMessage@@QAE@XZ
_TEXT	SEGMENT
_this$ = -16						; size = 4
__$EHRec$ = -12						; size = 12
??0CvReplayMessage@@QAE@XZ PROC				; CvReplayMessage::CvReplayMessage, COMDAT
; _this$ = ecx

; 25   : {

	push	-1
	push	__ehhandler$??0CvReplayMessage@@QAE@XZ
	mov	eax, DWORD PTR fs:0
	push	eax
	mov	DWORD PTR fs:0, esp
	push	ecx
	push	esi
	mov	esi, ecx
	or	ecx, -1
	xor	eax, eax
	mov	DWORD PTR [esi], OFFSET ??_7CvReplayMessage@@6B@
	mov	DWORD PTR [esi+4], ecx
	mov	DWORD PTR [esi+8], ecx
	mov	DWORD PTR _this$[esp+20], esi
	mov	DWORD PTR [esi+16], eax
	mov	DWORD PTR [esi+20], eax
	mov	DWORD PTR [esi+24], eax
	mov	DWORD PTR [esi+28], ecx
	lea	ecx, DWORD PTR [esi+32]
	mov	DWORD PTR __$EHRec$[esp+28], eax
	call	DWORD PTR __imp_??0?$basic_string@DU?$char_traits@D@std@@V?$allocator@D@2@@std@@QAE@XZ

; 26   : }

	mov	ecx, DWORD PTR __$EHRec$[esp+20]
	mov	eax, esi
	pop	esi
	mov	DWORD PTR fs:0, ecx
	add	esp, 16					; 00000010H
	ret	0
_TEXT	ENDS
;	COMDAT text$x
text$x	SEGMENT
__unwindfunclet$??0CvReplayMessage@@QAE@XZ$0:
	mov	ecx, DWORD PTR _this$[ebp]
	add	ecx, 12					; 0000000cH
	jmp	??1?$vector@U?$pair@FF@std@@V?$allocator@U?$pair@FF@std@@@2@@std@@QAE@XZ ; std::vector<std::pair<short,short>,std::allocator<std::pair<short,short> > >::~vector<std::pair<short,short>,std::allocator<std::pair<short,short> > >
__ehhandler$??0CvReplayMessage@@QAE@XZ:
	mov	eax, OFFSET __ehfuncinfo$??0CvReplayMessage@@QAE@XZ
	jmp	___CxxFrameHandler3
text$x	ENDS
??0CvReplayMessage@@QAE@XZ ENDP				; CvReplayMessage::CvReplayMessage
PUBLIC	??0CvReplayMessage@@QAE@HW4ReplayMessageTypes@@W4PlayerTypes@@@Z ; CvReplayMessage::CvReplayMessage
;	COMDAT xdata$x
; File c:\users\enormousapplepie\desktop\lekmod files\lekmod dll versions\v29\lekmod_dll\cvgamecoredllutil\include\cvstring.h
xdata$x	SEGMENT
__unwindtable$??0CvReplayMessage@@QAE@HW4ReplayMessageTypes@@W4PlayerTypes@@@Z DD 0ffffffffH
	DD	FLAT:__unwindfunclet$??0CvReplayMessage@@QAE@HW4ReplayMessageTypes@@W4PlayerTypes@@@Z$0
__ehfuncinfo$??0CvReplayMessage@@QAE@HW4ReplayMessageTypes@@W4PlayerTypes@@@Z DD 019930522H
	DD	01H
	DD	FLAT:__unwindtable$??0CvReplayMessage@@QAE@HW4ReplayMessageTypes@@W4PlayerTypes@@@Z
	DD	2 DUP(00H)
	DD	2 DUP(00H)
	DD	00H
	DD	01H
; Function compile flags: /Ogtpy
; File c:\users\enormousapplepie\desktop\lekmod files\lekmod dll versions\v29\lekmod_dll\cvgamecoredll_expansion2\cvreplaymessage.cpp
xdata$x	ENDS
;	COMDAT ??0CvReplayMessage@@QAE@HW4ReplayMessageTypes@@W4PlayerTypes@@@Z
_TEXT	SEGMENT
_this$ = -16						; size = 4
__$EHRec$ = -12						; size = 12
_iTurn$ = 8						; size = 4
_eType$ = 12						; size = 4
_ePlayer$ = 16						; size = 4
??0CvReplayMessage@@QAE@HW4ReplayMessageTypes@@W4PlayerTypes@@@Z PROC ; CvReplayMessage::CvReplayMessage, COMDAT
; _this$ = ecx

; 32   : {

	push	-1
	push	__ehhandler$??0CvReplayMessage@@QAE@HW4ReplayMessageTypes@@W4PlayerTypes@@@Z
	mov	eax, DWORD PTR fs:0
	push	eax
	mov	DWORD PTR fs:0, esp
	push	ecx
	mov	eax, DWORD PTR _iTurn$[esp+12]
	push	esi
	mov	esi, ecx
	mov	ecx, DWORD PTR _eType$[esp+16]
	mov	DWORD PTR [esi+4], eax
	xor	eax, eax
	mov	DWORD PTR [esi], OFFSET ??_7CvReplayMessage@@6B@
	mov	DWORD PTR [esi+8], ecx
	mov	DWORD PTR _this$[esp+20], esi
	mov	DWORD PTR [esi+16], eax
	mov	DWORD PTR [esi+20], eax
	mov	DWORD PTR [esi+24], eax
	mov	edx, DWORD PTR _ePlayer$[esp+16]
	lea	ecx, DWORD PTR [esi+32]
	mov	DWORD PTR __$EHRec$[esp+28], eax
	mov	DWORD PTR [esi+28], edx
	call	DWORD PTR __imp_??0?$basic_string@DU?$char_traits@D@std@@V?$allocator@D@2@@std@@QAE@XZ

; 33   : }

	mov	ecx, DWORD PTR __$EHRec$[esp+20]
	mov	eax, esi
	pop	esi
	mov	DWORD PTR fs:0, ecx
	add	esp, 16					; 00000010H
	ret	12					; 0000000cH
_TEXT	ENDS
;	COMDAT text$x
text$x	SEGMENT
__unwindfunclet$??0CvReplayMessage@@QAE@HW4ReplayMessageTypes@@W4PlayerTypes@@@Z$0:
	mov	ecx, DWORD PTR _this$[ebp]
	add	ecx, 12					; 0000000cH
	jmp	??1?$vector@U?$pair@FF@std@@V?$allocator@U?$pair@FF@std@@@2@@std@@QAE@XZ ; std::vector<std::pair<short,short>,std::allocator<std::pair<short,short> > >::~vector<std::pair<short,short>,std::allocator<std::pair<short,short> > >
__ehhandler$??0CvReplayMessage@@QAE@HW4ReplayMessageTypes@@W4PlayerTypes@@@Z:
	mov	eax, OFFSET __ehfuncinfo$??0CvReplayMessage@@QAE@HW4ReplayMessageTypes@@W4PlayerTypes@@@Z
	jmp	___CxxFrameHandler3
text$x	ENDS
??0CvReplayMessage@@QAE@HW4ReplayMessageTypes@@W4PlayerTypes@@@Z ENDP ; CvReplayMessage::CvReplayMessage
PUBLIC	??1CvReplayMessage@@UAE@XZ			; CvReplayMessage::~CvReplayMessage
;	COMDAT xdata$x
; File c:\program files (x86)\microsoft visual studio 9.0\vc\include\xmemory
xdata$x	SEGMENT
__unwindtable$??1CvReplayMessage@@UAE@XZ DD 0ffffffffH
	DD	FLAT:__unwindfunclet$??1CvReplayMessage@@UAE@XZ$0
__ehfuncinfo$??1CvReplayMessage@@UAE@XZ DD 019930522H
	DD	01H
	DD	FLAT:__unwindtable$??1CvReplayMessage@@UAE@XZ
	DD	2 DUP(00H)
	DD	2 DUP(00H)
	DD	00H
	DD	01H
; Function compile flags: /Ogtpy
; File c:\users\enormousapplepie\desktop\lekmod files\lekmod dll versions\v29\lekmod_dll\cvgamecoredll_expansion2\cvreplaymessage.cpp
xdata$x	ENDS
;	COMDAT ??1CvReplayMessage@@UAE@XZ
_TEXT	SEGMENT
_this$ = -16						; size = 4
__$EHRec$ = -12						; size = 12
??1CvReplayMessage@@UAE@XZ PROC				; CvReplayMessage::~CvReplayMessage, COMDAT
; _this$ = ecx

; 36   : {

	push	-1
	push	__ehhandler$??1CvReplayMessage@@UAE@XZ
	mov	eax, DWORD PTR fs:0
	push	eax
	mov	DWORD PTR fs:0, esp
	push	ecx
	push	esi
	mov	esi, ecx
	push	edi
	mov	DWORD PTR _this$[esp+24], esi
	mov	DWORD PTR [esi], OFFSET ??_7CvReplayMessage@@6B@
	xor	edi, edi

; 37   : }

	lea	ecx, DWORD PTR [esi+32]
	mov	DWORD PTR __$EHRec$[esp+32], edi
	call	DWORD PTR __imp_??1?$basic_string@DU?$char_traits@D@std@@V?$allocator@D@2@@std@@QAE@XZ
	mov	eax, DWORD PTR [esi+16]
	cmp	eax, edi
	je	SHORT $LN13@CvReplayMe
	push	eax
	call	??3@YAXPAX@Z				; operator delete
	add	esp, 4
$LN13@CvReplayMe:
	mov	ecx, DWORD PTR __$EHRec$[esp+24]
	mov	DWORD PTR [esi+16], edi
	mov	DWORD PTR [esi+20], edi
	mov	DWORD PTR [esi+24], edi
	pop	edi
	pop	esi
	mov	DWORD PTR fs:0, ecx
	add	esp, 16					; 00000010H
	ret	0
_TEXT	ENDS
;	COMDAT text$x
text$x	SEGMENT
__unwindfunclet$??1CvReplayMessage@@UAE@XZ$0:
	mov	ecx, DWORD PTR _this$[ebp]
	add	ecx, 12					; 0000000cH
	jmp	??1?$vector@U?$pair@FF@std@@V?$allocator@U?$pair@FF@std@@@2@@std@@QAE@XZ ; std::vector<std::pair<short,short>,std::allocator<std::pair<short,short> > >::~vector<std::pair<short,short>,std::allocator<std::pair<short,short> > >
__ehhandler$??1CvReplayMessage@@UAE@XZ:
	mov	eax, OFFSET __ehfuncinfo$??1CvReplayMessage@@UAE@XZ
	jmp	___CxxFrameHandler3
text$x	ENDS
??1CvReplayMessage@@UAE@XZ ENDP				; CvReplayMessage::~CvReplayMessage
PUBLIC	?reserve@?$vector@U?$pair@FF@std@@V?$allocator@U?$pair@FF@std@@@2@@std@@QAEXI@Z ; std::vector<std::pair<short,short>,std::allocator<std::pair<short,short> > >::reserve
;	COMDAT xdata$x
; File c:\program files (x86)\microsoft visual studio 9.0\vc\include\xmemory
xdata$x	SEGMENT
__catchsym$?reserve@?$vector@U?$pair@FF@std@@V?$allocator@U?$pair@FF@std@@@2@@std@@QAEXI@Z$2 DD 040H
	DD	00H
	DD	00H
	DD	FLAT:__catch$?reserve@?$vector@U?$pair@FF@std@@V?$allocator@U?$pair@FF@std@@@2@@std@@QAEXI@Z$0
__unwindtable$?reserve@?$vector@U?$pair@FF@std@@V?$allocator@U?$pair@FF@std@@@2@@std@@QAEXI@Z DD 0ffffffffH
	DD	00H
	DD	0ffffffffH
	DD	00H
__tryblocktable$?reserve@?$vector@U?$pair@FF@std@@V?$allocator@U?$pair@FF@std@@@2@@std@@QAEXI@Z DD 00H
	DD	00H
	DD	01H
	DD	01H
	DD	FLAT:__catchsym$?reserve@?$vector@U?$pair@FF@std@@V?$allocator@U?$pair@FF@std@@@2@@std@@QAEXI@Z$2
__ehfuncinfo$?reserve@?$vector@U?$pair@FF@std@@V?$allocator@U?$pair@FF@std@@@2@@std@@QAEXI@Z DD 019930522H
	DD	02H
	DD	FLAT:__unwindtable$?reserve@?$vector@U?$pair@FF@std@@V?$allocator@U?$pair@FF@std@@@2@@std@@QAEXI@Z
	DD	01H
	DD	FLAT:__tryblocktable$?reserve@?$vector@U?$pair@FF@std@@V?$allocator@U?$pair@FF@std@@@2@@std@@QAEXI@Z
	DD	2 DUP(00H)
	DD	00H
	DD	01H
; Function compile flags: /Ogtpy
; File c:\program files (x86)\microsoft visual studio 9.0\vc\include\vector
xdata$x	ENDS
;	COMDAT ?reserve@?$vector@U?$pair@FF@std@@V?$allocator@U?$pair@FF@std@@@2@@std@@QAEXI@Z
_TEXT	SEGMENT
__Ptr$217786 = -24					; size = 4
$T220532 = -20						; size = 1
__$EHRec$ = -16						; size = 16
__Cat$220536 = 8					; size = 1
__Count$ = 8						; size = 4
?reserve@?$vector@U?$pair@FF@std@@V?$allocator@U?$pair@FF@std@@@2@@std@@QAEXI@Z PROC ; std::vector<std::pair<short,short>,std::allocator<std::pair<short,short> > >::reserve, COMDAT
; _this$ = ecx

; 602  : 		{	// determine new minimum length of allocated storage

	push	ebp
	mov	ebp, esp
	push	-1
	push	__ehhandler$?reserve@?$vector@U?$pair@FF@std@@V?$allocator@U?$pair@FF@std@@@2@@std@@QAEXI@Z
	mov	eax, DWORD PTR fs:0
	push	eax
	mov	DWORD PTR fs:0, esp
	sub	esp, 12					; 0000000cH

; 603  : 		if (max_size() < _Count)

	mov	edx, DWORD PTR __Count$[ebp]
	push	ebx
	push	esi
	push	edi
	mov	DWORD PTR __$EHRec$[ebp], esp
	mov	esi, ecx
	cmp	edx, 1073741823				; 3fffffffH
	jbe	SHORT $LN5@reserve

; 604  : 			_Xlen();	// result too long

	call	?_Xlen@?$vector@U?$pair@FF@std@@V?$allocator@U?$pair@FF@std@@@2@@std@@KAXXZ ; std::vector<std::pair<short,short>,std::allocator<std::pair<short,short> > >::_Xlen
$LN57@reserve:
$LN5@reserve:

; 605  : 		else if (capacity() < _Count)

	mov	ecx, DWORD PTR [esi+4]
	test	ecx, ecx
	jne	SHORT $LN20@reserve
	xor	eax, eax
	jmp	SHORT $LN21@reserve
$LN20@reserve:
	mov	eax, DWORD PTR [esi+12]
	sub	eax, ecx
	sar	eax, 2
$LN21@reserve:
	cmp	eax, edx
	jae	SHORT $LN3@reserve

; 606  : 			{	// not enough room, reallocate
; 607  : 			pointer _Ptr = this->_Alval.allocate(_Count);

	push	0
	push	edx
	call	??$_Allocate@U?$pair@FF@std@@@std@@YAPAU?$pair@FF@0@IPAU10@@Z ; std::_Allocate<std::pair<short,short> >

; 608  : 
; 609  : 			_TRY_BEGIN
; 610  : 			_Umove(begin(), end(), _Ptr);

	mov	ecx, DWORD PTR [esi+4]
	mov	BYTE PTR $T220532[ebp], 0
	mov	edx, DWORD PTR $T220532[ebp]
	push	edx
	mov	edx, DWORD PTR __Cat$220536[ebp]
	push	edx
	mov	ebx, eax
	mov	eax, DWORD PTR [esi+8]
	push	esi
	push	ebx
	push	eax
	push	ecx
	mov	DWORD PTR __Ptr$217786[ebp], ebx
	mov	DWORD PTR __$EHRec$[ebp+12], 0
	call	??$_Uninit_copy@V?$_Vector_iterator@U?$pair@FF@std@@V?$allocator@U?$pair@FF@std@@@2@@std@@PAU?$pair@FF@2@V?$allocator@U?$pair@FF@std@@@2@@std@@YAPAU?$pair@FF@0@V?$_Vector_iterator@U?$pair@FF@std@@V?$allocator@U?$pair@FF@std@@@2@@0@0PAU10@AAV?$allocator@U?$pair@FF@std@@@0@U_Nonscalar_ptr_iterator_tag@0@U_Range_checked_iterator_tag@0@@Z ; std::_Uninit_copy<std::_Vector_iterator<std::pair<short,short>,std::allocator<std::pair<short,short> > >,std::pair<short,short> *,std::allocator<std::pair<short,short> > >

; 614  : 			_CATCH_END
; 615  : 
; 616  : 			size_type _Size = size();

	mov	eax, DWORD PTR [esi+4]
	mov	edi, DWORD PTR [esi+8]
	sub	edi, eax
	add	esp, 32					; 00000020H
	sar	edi, 2

; 617  : 			if (_Myfirst != 0)

	test	eax, eax
	je	SHORT $LN52@reserve

; 618  : 				{	// destroy and deallocate old array
; 619  : 				_Destroy(_Myfirst, _Mylast);
; 620  : 				this->_Alval.deallocate(_Myfirst, _Myend - _Myfirst);

	push	eax
	call	??3@YAXPAX@Z				; operator delete
	add	esp, 4
$LN52@reserve:

; 621  : 				}
; 622  : 
; 623  :  #if _HAS_ITERATOR_DEBUGGING
; 624  : 			this->_Orphan_all();
; 625  :  #endif /* _HAS_ITERATOR_DEBUGGING */
; 626  : 
; 627  : 			_Myend = _Ptr + _Count;

	mov	eax, DWORD PTR __Count$[ebp]
	lea	ecx, DWORD PTR [ebx+eax*4]

; 628  : 			_Mylast = _Ptr + _Size;

	lea	edx, DWORD PTR [ebx+edi*4]
	mov	DWORD PTR [esi+12], ecx
	mov	DWORD PTR [esi+8], edx

; 629  : 			_Myfirst = _Ptr;

	mov	DWORD PTR [esi+4], ebx
$LN3@reserve:

; 630  : 			}
; 631  : 		}

	mov	ecx, DWORD PTR __$EHRec$[ebp+4]
	pop	edi
	pop	esi
	mov	DWORD PTR fs:0, ecx
	pop	ebx
	mov	esp, ebp
	pop	ebp
	ret	4
__catch$?reserve@?$vector@U?$pair@FF@std@@V?$allocator@U?$pair@FF@std@@@2@@std@@QAEXI@Z$0:

; 611  : 			_CATCH_ALL
; 612  : 			this->_Alval.deallocate(_Ptr, _Count);

	mov	eax, DWORD PTR __Ptr$217786[ebp]
	push	eax
	call	??3@YAXPAX@Z				; operator delete
	add	esp, 4

; 613  : 			_RERAISE;

	push	0
	push	0
	call	__CxxThrowException@8
$LN58@reserve:
$LN56@reserve:
	int	3
_TEXT	ENDS
;	COMDAT text$x
text$x	SEGMENT
__ehhandler$?reserve@?$vector@U?$pair@FF@std@@V?$allocator@U?$pair@FF@std@@@2@@std@@QAEXI@Z:
	mov	eax, OFFSET __ehfuncinfo$?reserve@?$vector@U?$pair@FF@std@@V?$allocator@U?$pair@FF@std@@@2@@std@@QAEXI@Z
	jmp	___CxxFrameHandler3
text$x	ENDS
?reserve@?$vector@U?$pair@FF@std@@V?$allocator@U?$pair@FF@std@@@2@@std@@QAEXI@Z ENDP ; std::vector<std::pair<short,short>,std::allocator<std::pair<short,short> > >::reserve
PUBLIC	?clear@?$vector@U?$pair@FF@std@@V?$allocator@U?$pair@FF@std@@@2@@std@@QAEXXZ ; std::vector<std::pair<short,short>,std::allocator<std::pair<short,short> > >::clear
; Function compile flags: /Ogtpy
;	COMDAT ?clear@?$vector@U?$pair@FF@std@@V?$allocator@U?$pair@FF@std@@@2@@std@@QAEXXZ
_TEXT	SEGMENT
?clear@?$vector@U?$pair@FF@std@@V?$allocator@U?$pair@FF@std@@@2@@std@@QAEXXZ PROC ; std::vector<std::pair<short,short>,std::allocator<std::pair<short,short> > >::clear, COMDAT
; _this$ = ecx

; 1060 : 		erase(begin(), end());

	mov	edx, DWORD PTR [ecx+8]
	push	esi
	mov	esi, DWORD PTR [ecx+4]
	cmp	esi, edx
	je	SHORT $LN15@clear
	mov	eax, edx
	cmp	edx, edx
	je	SHORT $LN40@clear
	push	edi
$LL42@clear:
	mov	edi, DWORD PTR [eax]
	mov	DWORD PTR [esi], edi
	add	eax, 4
	add	esi, 4
	cmp	eax, edx
	jne	SHORT $LL42@clear
	pop	edi
$LN40@clear:
	mov	DWORD PTR [ecx+8], esi
$LN15@clear:
	pop	esi

; 1061 : 		}

	ret	0
?clear@?$vector@U?$pair@FF@std@@V?$allocator@U?$pair@FF@std@@@2@@std@@QAEXXZ ENDP ; std::vector<std::pair<short,short>,std::allocator<std::pair<short,short> > >::clear
_TEXT	ENDS
PUBLIC	?_Insert_n@?$vector@U?$pair@FF@std@@V?$allocator@U?$pair@FF@std@@@2@@std@@IAEXV?$_Vector_const_iterator@U?$pair@FF@std@@V?$allocator@U?$pair@FF@std@@@2@@2@IABU?$pair@FF@2@@Z ; std::vector<std::pair<short,short>,std::allocator<std::pair<short,short> > >::_Insert_n
;	COMDAT xdata$x
; File c:\program files (x86)\microsoft visual studio 9.0\vc\include\xmemory
xdata$x	SEGMENT
__catchsym$?_Insert_n@?$vector@U?$pair@FF@std@@V?$allocator@U?$pair@FF@std@@@2@@std@@IAEXV?$_Vector_const_iterator@U?$pair@FF@std@@V?$allocator@U?$pair@FF@std@@@2@@2@IABU?$pair@FF@2@@Z$5 DD 040H
	DD	00H
	DD	00H
	DD	FLAT:__catch$?_Insert_n@?$vector@U?$pair@FF@std@@V?$allocator@U?$pair@FF@std@@@2@@std@@IAEXV?$_Vector_const_iterator@U?$pair@FF@std@@V?$allocator@U?$pair@FF@std@@@2@@2@IABU?$pair@FF@2@@Z$2
__catchsym$?_Insert_n@?$vector@U?$pair@FF@std@@V?$allocator@U?$pair@FF@std@@@2@@std@@IAEXV?$_Vector_const_iterator@U?$pair@FF@std@@V?$allocator@U?$pair@FF@std@@@2@@2@IABU?$pair@FF@2@@Z$4 DD 040H
	DD	00H
	DD	00H
	DD	FLAT:__catch$?_Insert_n@?$vector@U?$pair@FF@std@@V?$allocator@U?$pair@FF@std@@@2@@std@@IAEXV?$_Vector_const_iterator@U?$pair@FF@std@@V?$allocator@U?$pair@FF@std@@@2@@2@IABU?$pair@FF@2@@Z$0
__unwindtable$?_Insert_n@?$vector@U?$pair@FF@std@@V?$allocator@U?$pair@FF@std@@@2@@std@@IAEXV?$_Vector_const_iterator@U?$pair@FF@std@@V?$allocator@U?$pair@FF@std@@@2@@2@IABU?$pair@FF@2@@Z DD 0ffffffffH
	DD	00H
	DD	0ffffffffH
	DD	00H
	DD	0ffffffffH
	DD	00H
	DD	0ffffffffH
	DD	00H
__ehfuncinfo$?_Insert_n@?$vector@U?$pair@FF@std@@V?$allocator@U?$pair@FF@std@@@2@@std@@IAEXV?$_Vector_const_iterator@U?$pair@FF@std@@V?$allocator@U?$pair@FF@std@@@2@@2@IABU?$pair@FF@2@@Z DD 019930522H
	DD	04H
	DD	FLAT:__unwindtable$?_Insert_n@?$vector@U?$pair@FF@std@@V?$allocator@U?$pair@FF@std@@@2@@std@@IAEXV?$_Vector_const_iterator@U?$pair@FF@std@@V?$allocator@U?$pair@FF@std@@@2@@2@IABU?$pair@FF@2@@Z
	DD	02H
	DD	FLAT:__tryblocktable$?_Insert_n@?$vector@U?$pair@FF@std@@V?$allocator@U?$pair@FF@std@@@2@@std@@IAEXV?$_Vector_const_iterator@U?$pair@FF@std@@V?$allocator@U?$pair@FF@std@@@2@@2@IABU?$pair@FF@2@@Z
	DD	2 DUP(00H)
	DD	00H
	DD	01H
__tryblocktable$?_Insert_n@?$vector@U?$pair@FF@std@@V?$allocator@U?$pair@FF@std@@@2@@std@@IAEXV?$_Vector_const_iterator@U?$pair@FF@std@@V?$allocator@U?$pair@FF@std@@@2@@2@IABU?$pair@FF@2@@Z DD 00H
	DD	00H
	DD	01H
	DD	01H
	DD	FLAT:__catchsym$?_Insert_n@?$vector@U?$pair@FF@std@@V?$allocator@U?$pair@FF@std@@@2@@std@@IAEXV?$_Vector_const_iterator@U?$pair@FF@std@@V?$allocator@U?$pair@FF@std@@@2@@2@IABU?$pair@FF@2@@Z$4
	DD	02H
	DD	02H
	DD	03H
	DD	01H
	DD	FLAT:__catchsym$?_Insert_n@?$vector@U?$pair@FF@std@@V?$allocator@U?$pair@FF@std@@@2@@std@@IAEXV?$_Vector_const_iterator@U?$pair@FF@std@@V?$allocator@U?$pair@FF@std@@@2@@2@IABU?$pair@FF@2@@Z$5
; Function compile flags: /Ogtpy
; File c:\program files (x86)\microsoft visual studio 9.0\vc\include\vector
xdata$x	ENDS
;	COMDAT ?_Insert_n@?$vector@U?$pair@FF@std@@V?$allocator@U?$pair@FF@std@@@2@@std@@IAEXV?$_Vector_const_iterator@U?$pair@FF@std@@V?$allocator@U?$pair@FF@std@@@2@@2@IABU?$pair@FF@2@@Z
_TEXT	SEGMENT
__Capacity$ = -20					; size = 4
__$EHRec$ = -16						; size = 16
__Cat$220930 = 8					; size = 1
__Cat$220858 = 8					; size = 1
__Where$ = 8						; size = 4
__Tmp$217979 = 12					; size = 4
__Tmp$217961 = 12					; size = 4
__Newvec$217946 = 12					; size = 4
__Count$ = 12						; size = 4
tv515 = 16						; size = 4
$T220927 = 16						; size = 1
$T220855 = 16						; size = 1
__Val$ = 16						; size = 4
?_Insert_n@?$vector@U?$pair@FF@std@@V?$allocator@U?$pair@FF@std@@@2@@std@@IAEXV?$_Vector_const_iterator@U?$pair@FF@std@@V?$allocator@U?$pair@FF@std@@@2@@2@IABU?$pair@FF@2@@Z PROC ; std::vector<std::pair<short,short>,std::allocator<std::pair<short,short> > >::_Insert_n, COMDAT
; _this$ = ecx

; 1153 : 		{	// insert _Count * _Val at _Where

	push	ebp
	mov	ebp, esp
	push	-1
	push	__ehhandler$?_Insert_n@?$vector@U?$pair@FF@std@@V?$allocator@U?$pair@FF@std@@@2@@std@@IAEXV?$_Vector_const_iterator@U?$pair@FF@std@@V?$allocator@U?$pair@FF@std@@@2@@2@IABU?$pair@FF@2@@Z
	mov	eax, DWORD PTR fs:0
	push	eax
	mov	DWORD PTR fs:0, esp
	sub	esp, 8
	push	ebx
	push	esi
	mov	esi, ecx

; 1154 : 
; 1155 :  #if _HAS_ITERATOR_DEBUGGING
; 1156 : 		if (_Where._Mycont != this
; 1157 : 			|| _Where._Myptr < _Myfirst || _Mylast < _Where._Myptr)
; 1158 : 			_DEBUG_ERROR("vector insert iterator outside range");
; 1159 :  #endif /* _HAS_ITERATOR_DEBUGGING */
; 1160 : 
; 1161 : 		size_type _Capacity = capacity();

	mov	edx, DWORD PTR [esi+4]
	push	edi
	mov	DWORD PTR __$EHRec$[ebp], esp
	test	edx, edx
	jne	SHORT $LN29@Insert_n
	xor	ecx, ecx
	jmp	SHORT $LN30@Insert_n
$LN29@Insert_n:
	mov	eax, DWORD PTR [esi+12]
	sub	eax, edx
	sar	eax, 2
	mov	ecx, eax
$LN30@Insert_n:

; 1162 : 
; 1163 : 		if (_Count == 0)

	mov	edi, DWORD PTR __Count$[ebp]
	test	edi, edi
	je	$LN1@Insert_n

; 1164 : 			;
; 1165 : 		else if (max_size() - size() < _Count)

	mov	ebx, DWORD PTR [esi+8]
	mov	eax, ebx
	sub	eax, edx
	sar	eax, 2
	mov	edx, 1073741823				; 3fffffffH
	sub	edx, eax
	cmp	edx, edi
	jae	SHORT $LN12@Insert_n

; 1166 : 			_Xlen();	// result too long

	call	?_Xlen@?$vector@U?$pair@FF@std@@V?$allocator@U?$pair@FF@std@@@2@@std@@KAXXZ ; std::vector<std::pair<short,short>,std::allocator<std::pair<short,short> > >::_Xlen
$LN87@Insert_n:
$LN12@Insert_n:

; 1167 : 		else if (_Capacity < size() + _Count)

	lea	edx, DWORD PTR [eax+edi]
	cmp	ecx, edx
	jae	$LN10@Insert_n

; 1168 : 			{	// not enough room, reallocate
; 1169 : 			_Capacity = max_size() - _Capacity / 2 < _Capacity
; 1170 : 				? 0 : _Capacity + _Capacity / 2;	// try to grow by 50%

	mov	eax, ecx
	shr	eax, 1
	mov	ebx, 1073741823				; 3fffffffH
	sub	ebx, eax
	cmp	ebx, ecx
	jae	SHORT $LN17@Insert_n
	mov	DWORD PTR __Capacity$[ebp], 0
	mov	ecx, DWORD PTR __Capacity$[ebp]
	jmp	SHORT $LN18@Insert_n
$LN17@Insert_n:
	add	ecx, eax
	mov	DWORD PTR __Capacity$[ebp], ecx
$LN18@Insert_n:

; 1171 : 			if (_Capacity < size() + _Count)

	cmp	ecx, edx
	jae	SHORT $LN9@Insert_n

; 1172 : 				_Capacity = size() + _Count;

	mov	DWORD PTR __Capacity$[ebp], edx
	mov	ecx, edx
$LN9@Insert_n:

; 1173 : 			pointer _Newvec = this->_Alval.allocate(_Capacity);

	push	0
	push	ecx
	call	??$_Allocate@U?$pair@FF@std@@@std@@YAPAU?$pair@FF@0@IPAU10@@Z ; std::_Allocate<std::pair<short,short> >

; 1174 : 			size_type _Whereoff = _VEC_ITER_BASE(_Where) - _Myfirst;

	mov	ebx, DWORD PTR __Where$[ebp]
	sub	ebx, DWORD PTR [esi+4]

; 1175 : 			int _Ncopied = 0;
; 1176 : 
; 1177 : 			_TRY_BEGIN
; 1178 : 			_Ufill(_Newvec + _Whereoff, _Count, _Val);	// add new stuff

	mov	ecx, DWORD PTR __Val$[ebp]
	add	esp, 8
	push	ecx
	sar	ebx, 2
	push	edi
	lea	edx, DWORD PTR [eax+ebx*4]
	push	edx
	mov	ecx, esi
	mov	DWORD PTR __Newvec$217946[ebp], eax
	mov	DWORD PTR __$EHRec$[ebp+12], 0
	call	?_Ufill@?$vector@U?$pair@FF@std@@V?$allocator@U?$pair@FF@std@@@2@@std@@IAEPAU?$pair@FF@2@PAU32@IABU32@@Z ; std::vector<std::pair<short,short>,std::allocator<std::pair<short,short> > >::_Ufill

; 1179 : 			++_Ncopied;
; 1180 : 			_Umove(this->_Myfirst, _VEC_ITER_BASE(_Where),
; 1181 : 				_Newvec);	// move prefix

	mov	edx, DWORD PTR __Cat$220858[ebp]
	mov	eax, DWORD PTR [esi+4]
	mov	BYTE PTR $T220855[ebp], 0
	mov	ecx, DWORD PTR $T220855[ebp]
	push	ecx
	mov	ecx, DWORD PTR __Newvec$217946[ebp]
	push	edx
	mov	edx, DWORD PTR __Where$[ebp]
	push	esi
	push	ecx
	push	edx
	push	eax
	call	??$_Uninit_copy@PAU?$pair@FF@std@@PAU12@V?$allocator@U?$pair@FF@std@@@2@@std@@YAPAU?$pair@FF@0@PAU10@00AAV?$allocator@U?$pair@FF@std@@@0@U_Nonscalar_ptr_iterator_tag@0@U_Range_checked_iterator_tag@0@@Z ; std::_Uninit_copy<std::pair<short,short> *,std::pair<short,short> *,std::allocator<std::pair<short,short> > >

; 1182 : 			++_Ncopied;
; 1183 : 			_Umove(_VEC_ITER_BASE(_Where), this->_Mylast,
; 1184 : 				_Newvec + (_Whereoff + _Count));	// move suffix

	mov	eax, DWORD PTR [esi+8]
	add	esp, 24					; 00000018H
	mov	BYTE PTR $T220927[ebp], 0
	mov	edx, DWORD PTR $T220927[ebp]
	push	edx
	mov	edx, DWORD PTR __Cat$220930[ebp]
	push	edx
	lea	ecx, DWORD PTR [ebx+edi]
	mov	ebx, DWORD PTR __Newvec$217946[ebp]
	push	esi
	lea	ecx, DWORD PTR [ebx+ecx*4]
	push	ecx
	push	eax
	mov	eax, DWORD PTR __Where$[ebp]
	push	eax
	call	??$_Uninit_copy@PAU?$pair@FF@std@@PAU12@V?$allocator@U?$pair@FF@std@@@2@@std@@YAPAU?$pair@FF@0@PAU10@00AAV?$allocator@U?$pair@FF@std@@@0@U_Nonscalar_ptr_iterator_tag@0@U_Range_checked_iterator_tag@0@@Z ; std::_Uninit_copy<std::pair<short,short> *,std::pair<short,short> *,std::allocator<std::pair<short,short> > >

; 1192 : 			_CATCH_END
; 1193 : 
; 1194 : 			_Count += size();

	mov	eax, DWORD PTR [esi+4]
	mov	ecx, DWORD PTR [esi+8]
	sub	ecx, eax
	sar	ecx, 2
	add	esp, 24					; 00000018H
	add	edi, ecx

; 1195 : 			if (_Myfirst != 0)

	test	eax, eax
	je	SHORT $LN81@Insert_n

; 1196 : 				{	// destroy and deallocate old array
; 1197 : 				_Destroy(_Myfirst, _Mylast);
; 1198 : 				this->_Alval.deallocate(_Myfirst, _Myend - _Myfirst);

	push	eax
	call	??3@YAXPAX@Z				; operator delete
	add	esp, 4
$LN81@Insert_n:

; 1199 : 				}
; 1200 : 
; 1201 :  #if _HAS_ITERATOR_DEBUGGING
; 1202 : 			this->_Orphan_all();
; 1203 :  #endif /* _HAS_ITERATOR_DEBUGGING */
; 1204 : 
; 1205 : 			_Myend = _Newvec + _Capacity;

	mov	edx, DWORD PTR __Capacity$[ebp]
	lea	eax, DWORD PTR [ebx+edx*4]

; 1206 : 			_Mylast = _Newvec + _Count;

	lea	ecx, DWORD PTR [ebx+edi*4]
	mov	DWORD PTR [esi+12], eax
	mov	DWORD PTR [esi+8], ecx

; 1207 : 			_Myfirst = _Newvec;

	mov	DWORD PTR [esi+4], ebx

; 1249 : 			}
; 1250 : 		}

	mov	ecx, DWORD PTR __$EHRec$[ebp+4]
	mov	DWORD PTR fs:0, ecx
	pop	edi
	pop	esi
	pop	ebx
	mov	esp, ebp
	pop	ebp
	ret	12					; 0000000cH
__catch$?_Insert_n@?$vector@U?$pair@FF@std@@V?$allocator@U?$pair@FF@std@@@2@@std@@IAEXV?$_Vector_const_iterator@U?$pair@FF@std@@V?$allocator@U?$pair@FF@std@@@2@@2@IABU?$pair@FF@2@@Z$0:

; 1185 : 			_CATCH_ALL
; 1186 : 			if (1 < _Ncopied)
; 1187 : 				_Destroy(_Newvec, _Newvec + _Whereoff);
; 1188 : 			if (0 < _Ncopied)
; 1189 : 				_Destroy(_Newvec + _Whereoff, _Newvec + _Whereoff + _Count);
; 1190 : 			this->_Alval.deallocate(_Newvec, _Capacity);

	mov	edx, DWORD PTR __Newvec$217946[ebp]
	push	edx
	call	??3@YAXPAX@Z				; operator delete
	add	esp, 4
__catch$?_Insert_n@?$vector@U?$pair@FF@std@@V?$allocator@U?$pair@FF@std@@@2@@std@@IAEXV?$_Vector_const_iterator@U?$pair@FF@std@@V?$allocator@U?$pair@FF@std@@@2@@2@IABU?$pair@FF@2@@Z$2:

; 1191 : 			_RERAISE;

	push	0
	push	0
	call	__CxxThrowException@8
$LN88@Insert_n:
$LN10@Insert_n:

; 1208 : 			}
; 1209 : 		else if ((size_type)(_Mylast - _VEC_ITER_BASE(_Where)) < _Count)

	mov	eax, DWORD PTR __Where$[ebp]
	mov	ecx, ebx
	sub	ecx, eax
	sar	ecx, 2
	cmp	ecx, edi
	jae	SHORT $LN3@Insert_n

; 1210 : 			{	// new stuff spills off end
; 1211 : 			_Ty _Tmp = _Val;	// in case _Val is in sequence

	mov	edx, DWORD PTR __Val$[ebp]
	mov	ecx, DWORD PTR [edx]
	mov	DWORD PTR __Tmp$217961[ebp], ecx

; 1212 : 
; 1213 : 			_Umove(_VEC_ITER_BASE(_Where), _Mylast,
; 1214 : 				_VEC_ITER_BASE(_Where) + _Count);	// copy suffix

	lea	ecx, DWORD PTR [edi*4]
	mov	DWORD PTR tv515[ebp], ecx
	add	ecx, eax
	push	ecx
	push	ebx
	push	eax
	mov	ecx, esi
	call	??$_Umove@PAU?$pair@FF@std@@@?$vector@U?$pair@FF@std@@V?$allocator@U?$pair@FF@std@@@2@@std@@IAEPAU?$pair@FF@1@PAU21@00@Z ; std::vector<std::pair<short,short>,std::allocator<std::pair<short,short> > >::_Umove<std::pair<short,short> *>

; 1215 : 
; 1216 : 			_TRY_BEGIN
; 1217 : 			_Ufill(_Mylast, _Count - (_Mylast - _VEC_ITER_BASE(_Where)),
; 1218 : 				_Tmp);	// insert new stuff off end

	mov	eax, DWORD PTR [esi+8]
	mov	ecx, eax
	sub	ecx, DWORD PTR __Where$[ebp]
	lea	edx, DWORD PTR __Tmp$217961[ebp]
	sar	ecx, 2
	push	edx
	sub	edi, ecx
	push	edi
	push	eax
	mov	ecx, esi
	mov	DWORD PTR __$EHRec$[ebp+12], 2
	call	?_Ufill@?$vector@U?$pair@FF@std@@V?$allocator@U?$pair@FF@std@@@2@@std@@IAEPAU?$pair@FF@2@PAU32@IABU32@@Z ; std::vector<std::pair<short,short>,std::allocator<std::pair<short,short> > >::_Ufill

; 1219 : 			_CATCH_ALL
; 1220 : 			_Destroy(_VEC_ITER_BASE(_Where) + _Count, _Mylast + _Count);
; 1221 : 			_RERAISE;
; 1222 : 			_CATCH_END
; 1223 : 
; 1224 : 			_Mylast += _Count;

	mov	eax, DWORD PTR tv515[ebp]
	add	DWORD PTR [esi+8], eax
	mov	esi, DWORD PTR [esi+8]

; 1225 : 
; 1226 :  #if _HAS_ITERATOR_DEBUGGING
; 1227 : 			_Orphan_range(_Where._Myptr, _Mylast);
; 1228 :  #endif /* _HAS_ITERATOR_DEBUGGING */
; 1229 : 
; 1230 : 			std::fill(_VEC_ITER_BASE(_Where), _Mylast - _Count,
; 1231 : 				_Tmp);	// insert up to old end

	lea	edx, DWORD PTR __Tmp$217961[ebp]
	push	edx
	sub	esi, eax
	mov	eax, DWORD PTR __Where$[ebp]
	push	esi
	push	eax
	call	??$fill@PAU?$pair@FF@std@@U12@@std@@YAXPAU?$pair@FF@0@0ABU10@@Z ; std::fill<std::pair<short,short> *,std::pair<short,short> >
	add	esp, 12					; 0000000cH

; 1249 : 			}
; 1250 : 		}

	mov	ecx, DWORD PTR __$EHRec$[ebp+4]
	mov	DWORD PTR fs:0, ecx
	pop	edi
	pop	esi
	pop	ebx
	mov	esp, ebp
	pop	ebp
	ret	12					; 0000000cH
$LN3@Insert_n:

; 1232 : 			}
; 1233 : 		else
; 1234 : 			{	// new stuff can all be assigned
; 1235 : 			_Ty _Tmp = _Val;	// in case _Val is in sequence

	mov	ecx, DWORD PTR __Val$[ebp]
	mov	edx, DWORD PTR [ecx]

; 1236 : 
; 1237 : 			pointer _Oldend = _Mylast;
; 1238 : 			_Mylast = _Umove(_Oldend - _Count, _Oldend,
; 1239 : 				_Mylast);	// copy suffix

	lea	eax, DWORD PTR [edi*4]
	push	ebx
	mov	edi, ebx
	sub	edi, eax
	push	ebx
	push	edi
	mov	ecx, esi
	mov	DWORD PTR __Tmp$217979[ebp], edx
	mov	DWORD PTR tv515[ebp], eax
	call	??$_Umove@PAU?$pair@FF@std@@@?$vector@U?$pair@FF@std@@V?$allocator@U?$pair@FF@std@@@2@@std@@IAEPAU?$pair@FF@1@PAU21@00@Z ; std::vector<std::pair<short,short>,std::allocator<std::pair<short,short> > >::_Umove<std::pair<short,short> *>

; 1240 : 
; 1241 :  #if _HAS_ITERATOR_DEBUGGING
; 1242 : 			_Orphan_range(_Where._Myptr, _Mylast);
; 1243 :  #endif /* _HAS_ITERATOR_DEBUGGING */
; 1244 : 
; 1245 : 			_STDEXT _Unchecked_move_backward(_VEC_ITER_BASE(_Where), _Oldend - _Count,
; 1246 : 				_Oldend);	// copy hole

	push	ebx
	mov	DWORD PTR [esi+8], eax
	mov	eax, DWORD PTR __Where$[ebp]
	push	edi
	push	eax
	call	??$_Unchecked_move_backward@PAU?$pair@FF@std@@PAU12@@stdext@@YAPAU?$pair@FF@std@@PAU12@00@Z ; stdext::_Unchecked_move_backward<std::pair<short,short> *,std::pair<short,short> *>

; 1247 : 			std::fill(_VEC_ITER_BASE(_Where), _VEC_ITER_BASE(_Where) + _Count,
; 1248 : 				_Tmp);	// insert into hole

	mov	eax, DWORD PTR __Where$[ebp]
	mov	edx, DWORD PTR tv515[ebp]
	lea	ecx, DWORD PTR __Tmp$217979[ebp]
	push	ecx
	add	edx, eax
	push	edx
	push	eax
	call	??$fill@PAU?$pair@FF@std@@U12@@std@@YAXPAU?$pair@FF@0@0ABU10@@Z ; std::fill<std::pair<short,short> *,std::pair<short,short> >
	add	esp, 24					; 00000018H
$LN1@Insert_n:

; 1249 : 			}
; 1250 : 		}

	mov	ecx, DWORD PTR __$EHRec$[ebp+4]
	pop	edi
	pop	esi
	mov	DWORD PTR fs:0, ecx
	pop	ebx
	mov	esp, ebp
	pop	ebp
	ret	12					; 0000000cH
$LN86@Insert_n:
_TEXT	ENDS
;	COMDAT text$x
text$x	SEGMENT
__ehhandler$?_Insert_n@?$vector@U?$pair@FF@std@@V?$allocator@U?$pair@FF@std@@@2@@std@@IAEXV?$_Vector_const_iterator@U?$pair@FF@std@@V?$allocator@U?$pair@FF@std@@@2@@2@IABU?$pair@FF@2@@Z:
	mov	eax, OFFSET __ehfuncinfo$?_Insert_n@?$vector@U?$pair@FF@std@@V?$allocator@U?$pair@FF@std@@@2@@std@@IAEXV?$_Vector_const_iterator@U?$pair@FF@std@@V?$allocator@U?$pair@FF@std@@@2@@2@IABU?$pair@FF@2@@Z
	jmp	___CxxFrameHandler3
text$x	ENDS
?_Insert_n@?$vector@U?$pair@FF@std@@V?$allocator@U?$pair@FF@std@@@2@@std@@IAEXV?$_Vector_const_iterator@U?$pair@FF@std@@V?$allocator@U?$pair@FF@std@@@2@@2@IABU?$pair@FF@2@@Z ENDP ; std::vector<std::pair<short,short>,std::allocator<std::pair<short,short> > >::_Insert_n
; Function compile flags: /Ogtpy
;	COMDAT ??_GCvReplayMessage@@UAEPAXI@Z
_TEXT	SEGMENT
___flags$ = 8						; size = 4
??_GCvReplayMessage@@UAEPAXI@Z PROC			; CvReplayMessage::`scalar deleting destructor', COMDAT
; _this$ = ecx
	push	esi
	mov	esi, ecx
	call	??1CvReplayMessage@@UAE@XZ		; CvReplayMessage::~CvReplayMessage
	test	BYTE PTR ___flags$[esp], 1
	je	SHORT $LN4@scalar@4
	push	esi
	call	??3@YAXPAX@Z				; operator delete
	add	esp, 4
$LN4@scalar@4:
	mov	eax, esi
	pop	esi
	ret	4
??_GCvReplayMessage@@UAEPAXI@Z ENDP			; CvReplayMessage::`scalar deleting destructor'
_TEXT	ENDS
PUBLIC	?clearPlots@CvReplayMessage@@QAEXXZ		; CvReplayMessage::clearPlots
; Function compile flags: /Ogtpy
; File c:\users\enormousapplepie\desktop\lekmod files\lekmod dll versions\v29\lekmod_dll\cvgamecoredll_expansion2\cvreplaymessage.cpp
;	COMDAT ?clearPlots@CvReplayMessage@@QAEXXZ
_TEXT	SEGMENT
?clearPlots@CvReplayMessage@@QAEXXZ PROC		; CvReplayMessage::clearPlots, COMDAT
; _this$ = ecx

; 114  : 	m_Plots.clear();

	mov	edx, DWORD PTR [ecx+20]
	push	esi
	mov	esi, DWORD PTR [ecx+16]
	cmp	esi, edx
	je	SHORT $LN17@clearPlots
	mov	eax, edx
	cmp	edx, edx
	je	SHORT $LN42@clearPlots
	push	edi
$LL44@clearPlots:
	mov	edi, DWORD PTR [eax]
	mov	DWORD PTR [esi], edi
	add	eax, 4
	add	esi, 4
	cmp	eax, edx
	jne	SHORT $LL44@clearPlots
	pop	edi
$LN42@clearPlots:
	mov	DWORD PTR [ecx+20], esi
$LN17@clearPlots:
	pop	esi

; 115  : }

	ret	0
?clearPlots@CvReplayMessage@@QAEXXZ ENDP		; CvReplayMessage::clearPlots
_TEXT	ENDS
PUBLIC	?insert@?$vector@U?$pair@FF@std@@V?$allocator@U?$pair@FF@std@@@2@@std@@QAE?AV?$_Vector_iterator@U?$pair@FF@std@@V?$allocator@U?$pair@FF@std@@@2@@2@V?$_Vector_const_iterator@U?$pair@FF@std@@V?$allocator@U?$pair@FF@std@@@2@@2@ABU?$pair@FF@2@@Z ; std::vector<std::pair<short,short>,std::allocator<std::pair<short,short> > >::insert
; Function compile flags: /Ogtpy
; File c:\program files (x86)\microsoft visual studio 9.0\vc\include\vector
;	COMDAT ?insert@?$vector@U?$pair@FF@std@@V?$allocator@U?$pair@FF@std@@@2@@std@@QAE?AV?$_Vector_iterator@U?$pair@FF@std@@V?$allocator@U?$pair@FF@std@@@2@@2@V?$_Vector_const_iterator@U?$pair@FF@std@@V?$allocator@U?$pair@FF@std@@@2@@2@ABU?$pair@FF@2@@Z
_TEXT	SEGMENT
___$ReturnUdt$ = 8					; size = 4
__Where$ = 12						; size = 4
__Val$ = 16						; size = 4
?insert@?$vector@U?$pair@FF@std@@V?$allocator@U?$pair@FF@std@@@2@@std@@QAE?AV?$_Vector_iterator@U?$pair@FF@std@@V?$allocator@U?$pair@FF@std@@@2@@2@V?$_Vector_const_iterator@U?$pair@FF@std@@V?$allocator@U?$pair@FF@std@@@2@@2@ABU?$pair@FF@2@@Z PROC ; std::vector<std::pair<short,short>,std::allocator<std::pair<short,short> > >::insert, COMDAT
; _this$ = ecx

; 875  : 		{	// insert _Val at _Where

	push	esi
	push	edi
	mov	edi, ecx

; 876  : 		size_type _Off = size() == 0 ? 0 : _Where - begin();

	mov	eax, DWORD PTR [edi+4]
	mov	ecx, DWORD PTR [edi+8]
	sub	ecx, eax
	test	ecx, -4					; fffffffcH
	mov	ecx, DWORD PTR __Where$[esp+4]
	jne	SHORT $LN3@insert
	xor	esi, esi
	jmp	SHORT $LN4@insert
$LN3@insert:
	mov	esi, ecx
	sub	esi, eax
	sar	esi, 2
$LN4@insert:

; 877  : 		_Insert_n(_Where, (size_type)1, _Val);

	mov	edx, DWORD PTR __Val$[esp+4]
	push	edx
	push	1
	push	ecx
	mov	ecx, edi
	call	?_Insert_n@?$vector@U?$pair@FF@std@@V?$allocator@U?$pair@FF@std@@@2@@std@@IAEXV?$_Vector_const_iterator@U?$pair@FF@std@@V?$allocator@U?$pair@FF@std@@@2@@2@IABU?$pair@FF@2@@Z ; std::vector<std::pair<short,short>,std::allocator<std::pair<short,short> > >::_Insert_n

; 878  : 		return (begin() + _Off);

	mov	eax, DWORD PTR [edi+4]
	lea	ecx, DWORD PTR [eax+esi*4]
	mov	eax, DWORD PTR ___$ReturnUdt$[esp+4]
	pop	edi
	mov	DWORD PTR [eax], ecx
	pop	esi

; 879  : 		}

	ret	12					; 0000000cH
?insert@?$vector@U?$pair@FF@std@@V?$allocator@U?$pair@FF@std@@@2@@std@@QAE?AV?$_Vector_iterator@U?$pair@FF@std@@V?$allocator@U?$pair@FF@std@@@2@@2@V?$_Vector_const_iterator@U?$pair@FF@std@@V?$allocator@U?$pair@FF@std@@@2@@2@ABU?$pair@FF@2@@Z ENDP ; std::vector<std::pair<short,short>,std::allocator<std::pair<short,short> > >::insert
_TEXT	ENDS
PUBLIC	?push_back@?$vector@U?$pair@FF@std@@V?$allocator@U?$pair@FF@std@@@2@@std@@QAEXABU?$pair@FF@2@@Z ; std::vector<std::pair<short,short>,std::allocator<std::pair<short,short> > >::push_back
; Function compile flags: /Ogtpy
;	COMDAT ?push_back@?$vector@U?$pair@FF@std@@V?$allocator@U?$pair@FF@std@@@2@@std@@QAEXABU?$pair@FF@2@@Z
_TEXT	SEGMENT
$T221276 = -4						; size = 1
__Cat$221280 = 8					; size = 1
__Val$ = 8						; size = 4
?push_back@?$vector@U?$pair@FF@std@@V?$allocator@U?$pair@FF@std@@@2@@std@@QAEXABU?$pair@FF@2@@Z PROC ; std::vector<std::pair<short,short>,std::allocator<std::pair<short,short> > >::push_back, COMDAT
; _this$ = ecx

; 809  : 		{	// insert element at end

	push	ecx
	push	esi
	mov	esi, ecx

; 810  : 		if (size() < capacity())

	mov	ecx, DWORD PTR [esi+4]
	push	edi
	test	ecx, ecx
	jne	SHORT $LN9@push_back
	xor	eax, eax
	jmp	SHORT $LN10@push_back
$LN9@push_back:
	mov	eax, DWORD PTR [esi+12]
	sub	eax, ecx
	sar	eax, 2
$LN10@push_back:
	mov	edi, DWORD PTR [esi+8]
	mov	edx, edi
	sub	edx, ecx
	sar	edx, 2
	cmp	edx, eax
	jae	SHORT $LN2@push_back

; 811  : 
; 812  :  #if _HAS_ITERATOR_DEBUGGING
; 813  : 			{ // room at end, construct it there
; 814  : 			_Orphan_range(_Mylast, _Mylast);
; 815  : 			_Mylast = _Ufill(_Mylast, 1, _Val);
; 816  : 			}
; 817  : 
; 818  :  #else /* _HAS_ITERATOR_DEBUGGING */
; 819  : 			_Mylast = _Ufill(_Mylast, 1, _Val);

	mov	ecx, DWORD PTR __Cat$221280[esp+8]
	mov	edx, DWORD PTR __Val$[esp+8]
	mov	BYTE PTR $T221276[esp+12], 0
	mov	eax, DWORD PTR $T221276[esp+12]
	push	eax
	push	ecx
	push	esi
	push	edx
	push	1
	push	edi
	call	??$_Uninit_fill_n@PAU?$pair@FF@std@@IU12@V?$allocator@U?$pair@FF@std@@@2@@std@@YAXPAU?$pair@FF@0@IABU10@AAV?$allocator@U?$pair@FF@std@@@0@U_Nonscalar_ptr_iterator_tag@0@U_Range_checked_iterator_tag@0@@Z ; std::_Uninit_fill_n<std::pair<short,short> *,unsigned int,std::pair<short,short>,std::allocator<std::pair<short,short> > >
	add	esp, 24					; 00000018H
	add	edi, 4
	mov	DWORD PTR [esi+8], edi
	pop	edi
	pop	esi

; 824  : 		}

	pop	ecx
	ret	4
$LN2@push_back:

; 820  :  #endif /* _HAS_ITERATOR_DEBUGGING */
; 821  : 
; 822  : 		else
; 823  : 			insert(end(), _Val);

	mov	eax, DWORD PTR __Val$[esp+8]
	push	eax
	push	1
	push	edi
	mov	ecx, esi
	call	?_Insert_n@?$vector@U?$pair@FF@std@@V?$allocator@U?$pair@FF@std@@@2@@std@@IAEXV?$_Vector_const_iterator@U?$pair@FF@std@@V?$allocator@U?$pair@FF@std@@@2@@2@IABU?$pair@FF@2@@Z ; std::vector<std::pair<short,short>,std::allocator<std::pair<short,short> > >::_Insert_n
	pop	edi
	pop	esi

; 824  : 		}

	pop	ecx
	ret	4
?push_back@?$vector@U?$pair@FF@std@@V?$allocator@U?$pair@FF@std@@@2@@std@@QAEXABU?$pair@FF@2@@Z ENDP ; std::vector<std::pair<short,short>,std::allocator<std::pair<short,short> > >::push_back
_TEXT	ENDS
PUBLIC	?addPlot@CvReplayMessage@@QAEXHH@Z		; CvReplayMessage::addPlot
; Function compile flags: /Ogtpy
; File c:\users\enormousapplepie\desktop\lekmod files\lekmod dll versions\v29\lekmod_dll\cvgamecoredll_expansion2\cvreplaymessage.cpp
;	COMDAT ?addPlot@CvReplayMessage@@QAEXHH@Z
_TEXT	SEGMENT
$T221612 = 8						; size = 1
_iPlotX$ = 8						; size = 4
__Cat$221615 = 12					; size = 1
$T221393 = 12						; size = 4
_iPlotY$ = 12						; size = 4
?addPlot@CvReplayMessage@@QAEXHH@Z PROC			; CvReplayMessage::addPlot, COMDAT
; _this$ = ecx

; 81   : 	short sPlotX = (short)iPlotX;
; 82   : 	short sPlotY = (short)iPlotY;
; 83   : 
; 84   : 	for(PlotPositionList::iterator it = m_Plots.begin(); it != m_Plots.end(); ++it)

	mov	eax, DWORD PTR [ecx+16]
	mov	edx, DWORD PTR [ecx+20]
	push	esi
	mov	esi, DWORD PTR _iPlotY$[esp]
	push	edi
	mov	edi, DWORD PTR _iPlotX$[esp+4]
	cmp	eax, edx
	je	SHORT $LN2@addPlot
$LL15@addPlot:

; 85   : 	{
; 86   : 		const PlotPosition& position = (*it);
; 87   : 		if(position.first == sPlotX && position.second == sPlotY)

	cmp	WORD PTR [eax], di
	jne	SHORT $LN3@addPlot
	cmp	WORD PTR [eax+2], si
	je	SHORT $LN75@addPlot
$LN3@addPlot:

; 81   : 	short sPlotX = (short)iPlotX;
; 82   : 	short sPlotY = (short)iPlotY;
; 83   : 
; 84   : 	for(PlotPositionList::iterator it = m_Plots.begin(); it != m_Plots.end(); ++it)

	add	eax, 4
	cmp	eax, edx
	jne	SHORT $LL15@addPlot
$LN2@addPlot:

; 88   : 			return;
; 89   : 	}
; 90   : 
; 91   : 	m_Plots.push_back(PlotPosition(sPlotX, sPlotY));

	mov	WORD PTR $T221393[esp+6], si
	lea	esi, DWORD PTR [ecx+12]
	mov	ecx, DWORD PTR [esi+4]
	mov	WORD PTR $T221393[esp+4], di
	test	ecx, ecx
	jne	SHORT $LN41@addPlot
	xor	eax, eax
	jmp	SHORT $LN42@addPlot
$LN41@addPlot:
	mov	eax, DWORD PTR [esi+12]
	sub	eax, ecx
	sar	eax, 2
$LN42@addPlot:
	mov	edi, DWORD PTR [esi+8]
	mov	edx, edi
	sub	edx, ecx
	sar	edx, 2
	cmp	edx, eax
	jae	SHORT $LN34@addPlot
	mov	ecx, DWORD PTR __Cat$221615[esp+4]
	mov	BYTE PTR $T221612[esp+4], 0
	mov	eax, DWORD PTR $T221612[esp+4]
	push	eax
	push	ecx
	push	esi
	lea	edx, DWORD PTR $T221393[esp+16]
	push	edx
	push	1
	push	edi
	call	??$_Uninit_fill_n@PAU?$pair@FF@std@@IU12@V?$allocator@U?$pair@FF@std@@@2@@std@@YAXPAU?$pair@FF@0@IABU10@AAV?$allocator@U?$pair@FF@std@@@0@U_Nonscalar_ptr_iterator_tag@0@U_Range_checked_iterator_tag@0@@Z ; std::_Uninit_fill_n<std::pair<short,short> *,unsigned int,std::pair<short,short>,std::allocator<std::pair<short,short> > >
	add	esp, 24					; 00000018H
	add	edi, 4
	mov	DWORD PTR [esi+8], edi
	pop	edi
	pop	esi

; 92   : }

	ret	8

; 88   : 			return;
; 89   : 	}
; 90   : 
; 91   : 	m_Plots.push_back(PlotPosition(sPlotX, sPlotY));

$LN34@addPlot:
	lea	eax, DWORD PTR $T221393[esp+4]
	push	eax
	push	1
	push	edi
	mov	ecx, esi
	call	?_Insert_n@?$vector@U?$pair@FF@std@@V?$allocator@U?$pair@FF@std@@@2@@std@@IAEXV?$_Vector_const_iterator@U?$pair@FF@std@@V?$allocator@U?$pair@FF@std@@@2@@2@IABU?$pair@FF@2@@Z ; std::vector<std::pair<short,short>,std::allocator<std::pair<short,short> > >::_Insert_n
$LN75@addPlot:
	pop	edi
	pop	esi

; 92   : }

	ret	8
?addPlot@CvReplayMessage@@QAEXHH@Z ENDP			; CvReplayMessage::addPlot
_TEXT	ENDS
PUBLIC	?read@CvReplayMessage@@QAEXAAVFDataStream@@I@Z	; CvReplayMessage::read
EXTRN	??5@YAAAVFDataStream@@AAV0@AAW4PlayerTypes@@@Z:PROC ; operator>>
EXTRN	??5@YAAAVFDataStream@@AAV0@AAW4ReplayMessageTypes@@@Z:PROC ; operator>>
; Function compile flags: /Ogtpy
;	COMDAT ?read@CvReplayMessage@@QAEXAAVFDataStream@@I@Z
_TEXT	SEGMENT
_sPlotY$217736 = -12					; size = 2
_nPlots$ = -8						; size = 4
$T221665 = -4						; size = 4
_sPlotX$217735 = 8					; size = 2
_kStream$ = 8						; size = 4
_uiVersion$ = 12					; size = 4
?read@CvReplayMessage@@QAEXAAVFDataStream@@I@Z PROC	; CvReplayMessage::read, COMDAT
; _this$ = ecx

; 118  : {

	sub	esp, 12					; 0000000cH
	push	ebp
	mov	ebp, ecx
	push	esi

; 119  : 	UNREFERENCED_PARAMETER(uiVersion);
; 120  : 
; 121  : 	kStream >> m_iTurn;

	mov	esi, DWORD PTR _kStream$[esp+16]
	lea	eax, DWORD PTR [ebp+4]
	push	eax
	mov	ecx, esi
	call	?Read@FDataStream@@IAEXAAH@Z		; FDataStream::Read

; 122  : 	kStream >> m_eType;

	lea	ecx, DWORD PTR [ebp+8]
	push	ecx
	push	esi
	call	??5@YAAAVFDataStream@@AAV0@AAW4ReplayMessageTypes@@@Z ; operator>>
	add	esp, 8

; 123  : 
; 124  : 	int nPlots = -1;
; 125  : 	kStream >> nPlots;

	lea	edx, DWORD PTR _nPlots$[esp+20]
	push	edx
	mov	ecx, esi
	mov	DWORD PTR _nPlots$[esp+24], -1
	call	?Read@FDataStream@@IAEXAAH@Z		; FDataStream::Read

; 126  : 	if(nPlots > 0)

	mov	eax, DWORD PTR _nPlots$[esp+20]
	test	eax, eax
	jle	SHORT $LN1@read
	push	ebx
	push	edi

; 127  : 	{
; 128  : 		m_Plots.reserve(nPlots);

	lea	ebx, DWORD PTR [ebp+12]
	push	eax
	mov	ecx, ebx
	call	?reserve@?$vector@U?$pair@FF@std@@V?$allocator@U?$pair@FF@std@@@2@@std@@QAEXI@Z ; std::vector<std::pair<short,short>,std::allocator<std::pair<short,short> > >::reserve

; 129  : 		for(int i = 0; i < nPlots; ++i)

	xor	edi, edi
	cmp	DWORD PTR _nPlots$[esp+28], edi
	jle	SHORT $LN21@read
$LL3@read:

; 130  : 		{
; 131  : 			short sPlotX, sPlotY;
; 132  : 			kStream >> sPlotX;

	lea	eax, DWORD PTR _sPlotX$217735[esp+24]
	push	eax
	mov	ecx, esi
	call	?Read@FDataStream@@IAEXAAF@Z		; FDataStream::Read

; 133  : 			kStream >> sPlotY;

	lea	ecx, DWORD PTR _sPlotY$217736[esp+28]
	push	ecx
	mov	ecx, esi
	call	?Read@FDataStream@@IAEXAAF@Z		; FDataStream::Read

; 134  : 			m_Plots.push_back(PlotPosition(sPlotX, sPlotY));

	mov	dx, WORD PTR _sPlotX$217735[esp+24]
	mov	ax, WORD PTR _sPlotY$217736[esp+28]
	lea	ecx, DWORD PTR $T221665[esp+28]
	push	ecx
	mov	ecx, ebx
	mov	WORD PTR $T221665[esp+32], dx
	mov	WORD PTR $T221665[esp+34], ax
	call	?push_back@?$vector@U?$pair@FF@std@@V?$allocator@U?$pair@FF@std@@@2@@std@@QAEXABU?$pair@FF@2@@Z ; std::vector<std::pair<short,short>,std::allocator<std::pair<short,short> > >::push_back
	inc	edi
	cmp	edi, DWORD PTR _nPlots$[esp+28]
	jl	SHORT $LL3@read
$LN21@read:
	pop	edi
	pop	ebx
$LN1@read:

; 135  : 		}
; 136  : 	}
; 137  : 
; 138  : 	kStream >> m_ePlayer;

	lea	edx, DWORD PTR [ebp+28]
	push	edx
	push	esi
	call	??5@YAAAVFDataStream@@AAV0@AAW4PlayerTypes@@@Z ; operator>>
	add	esp, 8

; 139  : 	kStream >> m_strText;

	add	ebp, 32					; 00000020H
	push	ebp
	mov	ecx, esi
	call	?Read@FDataStream@@IAEXAAV?$basic_string@DU?$char_traits@D@std@@V?$allocator@D@2@@std@@@Z ; FDataStream::Read
	pop	esi
	pop	ebp

; 140  : }

	add	esp, 12					; 0000000cH
	ret	8
?read@CvReplayMessage@@QAEXAAVFDataStream@@I@Z ENDP	; CvReplayMessage::read
_TEXT	ENDS
END
