; Listing generated by Microsoft (R) Optimizing Compiler Version 15.00.30729.01 

	TITLE	c:\Users\EnormousApplePie\Documents\GitHub\Lekmod\LEKMOD_DLL\CvGameCoreDLL_Expansion2\CvTacticalAnalysisMap.cpp
	.686P
	.XMM
	include listing.inc
	.model	flat

INCLUDELIB MSVCRT
INCLUDELIB OLDNAMES

PUBLIC	?NO_QUEST_DATA@CvMinorCivQuest@@2HB		; CvMinorCivQuest::NO_QUEST_DATA
PUBLIC	?NO_TURN@CvMinorCivQuest@@2HB			; CvMinorCivQuest::NO_TURN
CONST	SEGMENT
$SG222824 DB	'Zone ID: %d, Area ID: %d, Value: %d, FRIENDLY Str: %d (%'
	DB	'd), Ranged: %d (%d), ENEMY Str: %d (%d), Ranged: %d (%d), Clo'
	DB	'sest Enemy: %d', 00H
$SG222826 DB	', Friendly', 00H
	ORG $+1
$SG222829 DB	', Enemy', 00H
$SG222832 DB	', Even', 00H
	ORG $+1
$SG222835 DB	', No Units Visible', 00H
	ORG $+1
$SG222837 DB	', Water', 00H
$SG222839 DB	', Land', 00H
	ORG $+1
$SG222841 DB	', Temporary Zone', 00H
	ORG $+3
$SG222846 DB	', ', 00H
	ORG $+1
$SG222848 DB	' (Temp)', 00H
CONST	ENDS
;	COMDAT ?NO_TURN@CvMinorCivQuest@@2HB
CONST	SEGMENT
?NO_TURN@CvMinorCivQuest@@2HB DD 0ffffffffH		; CvMinorCivQuest::NO_TURN
CONST	ENDS
;	COMDAT ?NO_QUEST_DATA@CvMinorCivQuest@@2HB
CONST	SEGMENT
?NO_QUEST_DATA@CvMinorCivQuest@@2HB DD 0ffffffffH	; CvMinorCivQuest::NO_QUEST_DATA
CONST	ENDS
PUBLIC	?wrapCoordDifference@@YAHHI_N@Z			; wrapCoordDifference
; Function compile flags: /Ogtpy
; File c:\users\enormousapplepie\documents\github\lekmod\lekmod_dll\cvgamecoredll_expansion2\cvgamecoreutils.h
;	COMDAT ?wrapCoordDifference@@YAHHI_N@Z
_TEXT	SEGMENT
_iDiff$ = 8						; size = 4
_uiRange$ = 12						; size = 4
_bWrap$ = 16						; size = 1
?wrapCoordDifference@@YAHHI_N@Z PROC			; wrapCoordDifference, COMDAT

; 57   : 	if(bWrap)

	cmp	BYTE PTR _bWrap$[esp-4], 0
	mov	eax, DWORD PTR _iDiff$[esp-4]
	je	SHORT $LN5@wrapCoordD

; 58   : 	{
; 59   : 		if(iDiff > (int)(uiRange >> 1))		// Using an unsigned int so we can safely assume that value >> 1 == value / 2

	mov	edx, DWORD PTR _uiRange$[esp-4]
	mov	ecx, edx
	shr	ecx, 1
	cmp	eax, ecx
	jle	SHORT $LN3@wrapCoordD

; 60   : 		{
; 61   : 			return (iDiff - (int)uiRange);

	sub	eax, edx

; 66   : 		}
; 67   : 	}
; 68   : 
; 69   : 	return iDiff;
; 70   : }

	ret	0
$LN3@wrapCoordD:

; 62   : 		}
; 63   : 		else if(iDiff < -(int)(uiRange >> 1))

	neg	ecx
	cmp	eax, ecx
	jge	SHORT $LN5@wrapCoordD

; 64   : 		{
; 65   : 			return (iDiff + (int)uiRange);

	add	eax, edx
$LN5@wrapCoordD:

; 66   : 		}
; 67   : 	}
; 68   : 
; 69   : 	return iDiff;
; 70   : }

	ret	0
?wrapCoordDifference@@YAHHI_N@Z ENDP			; wrapCoordDifference
_TEXT	ENDS
PUBLIC	?xToHexspaceX@@YAHHH@Z				; xToHexspaceX
; Function compile flags: /Ogtpy
;	COMDAT ?xToHexspaceX@@YAHHH@Z
_TEXT	SEGMENT
_iX$ = 8						; size = 4
_iY$ = 12						; size = 4
?xToHexspaceX@@YAHHH@Z PROC				; xToHexspaceX, COMDAT

; 86   : 	return iX - ((iY >= 0) ? (iY>>1) : ((iY - 1)/2));

	mov	ecx, DWORD PTR _iY$[esp-4]
	test	ecx, ecx
	jge	SHORT $LN5@xToHexspac
	lea	eax, DWORD PTR [ecx-1]
	cdq
	sub	eax, edx
	mov	ecx, eax
$LN5@xToHexspac:
	mov	eax, DWORD PTR _iX$[esp-4]
	sar	ecx, 1
	sub	eax, ecx

; 87   : }

	ret	0
?xToHexspaceX@@YAHHH@Z ENDP				; xToHexspaceX
_TEXT	ENDS
PUBLIC	?hexspaceXToX@@YAHHH@Z				; hexspaceXToX
; Function compile flags: /Ogtpy
;	COMDAT ?hexspaceXToX@@YAHHH@Z
_TEXT	SEGMENT
_iHexspaceX$ = 8					; size = 4
_iHexspaceY$ = 12					; size = 4
?hexspaceXToX@@YAHHH@Z PROC				; hexspaceXToX, COMDAT

; 91   : 	return iHexspaceX + ((iHexspaceY >= 0) ? (iHexspaceY>>1) : ((iHexspaceY - 1)/2));

	mov	eax, DWORD PTR _iHexspaceY$[esp-4]
	test	eax, eax
	jl	SHORT $LN3@hexspaceXT
	mov	ecx, DWORD PTR _iHexspaceX$[esp-4]
	sar	eax, 1
	add	eax, ecx

; 92   : }

	ret	0
$LN3@hexspaceXT:

; 91   : 	return iHexspaceX + ((iHexspaceY >= 0) ? (iHexspaceY>>1) : ((iHexspaceY - 1)/2));

	dec	eax
	cdq
	sub	eax, edx
	mov	edx, DWORD PTR _iHexspaceX$[esp-4]
	sar	eax, 1
	add	eax, edx

; 92   : }

	ret	0
?hexspaceXToX@@YAHHH@Z ENDP				; hexspaceXToX
_TEXT	ENDS
PUBLIC	??0CvTacticalDominanceZone@@QAE@XZ		; CvTacticalDominanceZone::CvTacticalDominanceZone
; Function compile flags: /Ogtpy
; File c:\users\enormousapplepie\documents\github\lekmod\lekmod_dll\cvgamecoredll_expansion2\cvtacticalanalysismap.cpp
;	COMDAT ??0CvTacticalDominanceZone@@QAE@XZ
_TEXT	SEGMENT
??0CvTacticalDominanceZone@@QAE@XZ PROC			; CvTacticalDominanceZone::CvTacticalDominanceZone, COMDAT
; _this$ = ecx

; 77   : {

	mov	eax, ecx

; 78   : 	m_iDominanceZoneID = -1;
; 79   : 	m_eTerritoryType = TACTICAL_TERRITORY_NONE;

	xor	ecx, ecx
	or	edx, -1
	mov	DWORD PTR [eax], edx
	mov	DWORD PTR [eax+4], ecx

; 80   : 	m_eDominanceFlag = TACTICAL_DOMINANCE_NO_UNITS_VISIBLE;

	mov	DWORD PTR [eax+8], ecx

; 81   : 	m_eOwner = NO_PLAYER;

	mov	DWORD PTR [eax+12], edx

; 82   : 	m_iCityID = -1;

	mov	DWORD PTR [eax+16], edx

; 83   : 	m_iAreaID = 0;

	mov	DWORD PTR [eax+20], ecx

; 84   : 	m_iFriendlyStrength = 0;

	mov	DWORD PTR [eax+24], ecx

; 85   : 	m_iEnemyStrength = 0;

	mov	DWORD PTR [eax+28], ecx

; 86   : 	m_iFriendlyRangedStrength = 0;

	mov	DWORD PTR [eax+32], ecx

; 87   : 	m_iEnemyRangedStrength = 0;

	mov	DWORD PTR [eax+36], ecx

; 88   : 	m_iFriendlyUnitCount = 0;

	mov	DWORD PTR [eax+40], ecx

; 89   : 	m_iEnemyUnitCount = 0;

	mov	DWORD PTR [eax+44], ecx

; 90   : 	m_iFriendlyRangedUnitCount = 0;

	mov	DWORD PTR [eax+48], ecx

; 91   : 	m_iEnemyRangedUnitCount = 0;

	mov	DWORD PTR [eax+52], ecx

; 92   : 	m_iEnemyNavalUnitCount = 0;

	mov	DWORD PTR [eax+56], ecx

; 93   : 	m_iZoneValue = 0;

	mov	DWORD PTR [eax+60], ecx

; 94   : 	m_iRangeClosestEnemyUnit = MAX_INT;

	mov	DWORD PTR [eax+64], 2147483647		; 7fffffffH

; 95   : 	m_bIsWater = false;

	mov	BYTE PTR [eax+68], cl

; 96   : 	m_bIsNavalInvasion = false;

	mov	BYTE PTR [eax+69], cl

; 97   : 	m_pTempZoneCenter = NULL;

	mov	DWORD PTR [eax+72], ecx

; 98   : }

	ret	0
??0CvTacticalDominanceZone@@QAE@XZ ENDP			; CvTacticalDominanceZone::CvTacticalDominanceZone
_TEXT	ENDS
PUBLIC	?GetRangeClosestEnemyUnit@CvTacticalDominanceZone@@QBEHXZ ; CvTacticalDominanceZone::GetRangeClosestEnemyUnit
; Function compile flags: /Ogtpy
;	COMDAT ?GetRangeClosestEnemyUnit@CvTacticalDominanceZone@@QBEHXZ
_TEXT	SEGMENT
?GetRangeClosestEnemyUnit@CvTacticalDominanceZone@@QBEHXZ PROC ; CvTacticalDominanceZone::GetRangeClosestEnemyUnit, COMDAT
; _this$ = ecx

; 127  : 	return m_iRangeClosestEnemyUnit;

	mov	eax, DWORD PTR [ecx+64]

; 128  : }

	ret	0
?GetRangeClosestEnemyUnit@CvTacticalDominanceZone@@QBEHXZ ENDP ; CvTacticalDominanceZone::GetRangeClosestEnemyUnit
_TEXT	ENDS
PUBLIC	?SetRangeClosestEnemyUnit@CvTacticalDominanceZone@@QAEXH@Z ; CvTacticalDominanceZone::SetRangeClosestEnemyUnit
; Function compile flags: /Ogtpy
;	COMDAT ?SetRangeClosestEnemyUnit@CvTacticalDominanceZone@@QAEXH@Z
_TEXT	SEGMENT
_iRange$ = 8						; size = 4
?SetRangeClosestEnemyUnit@CvTacticalDominanceZone@@QAEXH@Z PROC ; CvTacticalDominanceZone::SetRangeClosestEnemyUnit, COMDAT
; _this$ = ecx

; 133  : 	m_iRangeClosestEnemyUnit = iRange;

	mov	eax, DWORD PTR _iRange$[esp-4]
	mov	DWORD PTR [ecx+64], eax

; 134  : }

	ret	4
?SetRangeClosestEnemyUnit@CvTacticalDominanceZone@@QAEXH@Z ENDP ; CvTacticalDominanceZone::SetRangeClosestEnemyUnit
_TEXT	ENDS
PUBLIC	?GetZoneType@CvTacticalDominanceZone@@QBE?AW4TacticalMoveZoneType@@XZ ; CvTacticalDominanceZone::GetZoneType
; Function compile flags: /Ogtpy
;	COMDAT ?GetZoneType@CvTacticalDominanceZone@@QBE?AW4TacticalMoveZoneType@@XZ
_TEXT	SEGMENT
?GetZoneType@CvTacticalDominanceZone@@QBE?AW4TacticalMoveZoneType@@XZ PROC ; CvTacticalDominanceZone::GetZoneType, COMDAT
; _this$ = ecx

; 139  : 	if(m_eTerritoryType == TACTICAL_TERRITORY_FRIENDLY)

	mov	eax, DWORD PTR [ecx+4]
	cmp	eax, 2
	jne	SHORT $LN12@GetZoneTyp

; 140  : 	{
; 141  : 		if(m_eDominanceFlag == TACTICAL_DOMINANCE_FRIENDLY)

	mov	ecx, DWORD PTR [ecx+8]

; 142  : 		{
; 143  : 			return AI_TACTICAL_MOVE_ZONE_FRIENDLY_WINNING;

	xor	eax, eax
	cmp	ecx, 1
	je	SHORT $LN1@GetZoneTyp

; 144  : 		}
; 145  : 		else if(m_eDominanceFlag == TACTICAL_DOMINANCE_EVEN)

	cmp	ecx, 3
	setne	al
	inc	eax

; 174  : 	}
; 175  : }

	ret	0
$LN12@GetZoneTyp:

; 146  : 		{
; 147  : 			return AI_TACTICAL_MOVE_ZONE_FRIENDLY_EVEN;
; 148  : 		}
; 149  : 		else
; 150  : 		{
; 151  : 			return AI_TACTICAL_MOVE_ZONE_FRIENDLY_LOSING;
; 152  : 		}
; 153  : 	}
; 154  : 
; 155  : 	else if(m_eTerritoryType == TACTICAL_TERRITORY_ENEMY)

	cmp	eax, 3
	jne	SHORT $LN6@GetZoneTyp

; 156  : 	{
; 157  : 		if(m_eDominanceFlag == TACTICAL_DOMINANCE_FRIENDLY)

	mov	ecx, DWORD PTR [ecx+8]
	cmp	ecx, 1
	jne	SHORT $LN5@GetZoneTyp

; 174  : 	}
; 175  : }

	ret	0
$LN5@GetZoneTyp:

; 158  : 		{
; 159  : 			return AI_TACTICAL_MOVE_ZONE_ENEMY_WINNING;
; 160  : 		}
; 161  : 		else if(m_eDominanceFlag == TACTICAL_DOMINANCE_EVEN)

	xor	eax, eax
	cmp	ecx, 3
	setne	al
	add	eax, 4

; 174  : 	}
; 175  : }

	ret	0
$LN6@GetZoneTyp:

; 162  : 		{
; 163  : 			return AI_TACTICAL_MOVE_ZONE_ENEMY_EVEN;
; 164  : 		}
; 165  : 		else
; 166  : 		{
; 167  : 			return AI_TACTICAL_MOVE_ZONE_ENEMY_LOSING;
; 168  : 		}
; 169  : 	}
; 170  : 
; 171  : 	else
; 172  : 	{
; 173  : 		return AI_TACTICAL_MOVE_ZONE_UNOWNED;

	mov	eax, 6
$LN1@GetZoneTyp:

; 174  : 	}
; 175  : }

	ret	0
?GetZoneType@CvTacticalDominanceZone@@QBE?AW4TacticalMoveZoneType@@XZ ENDP ; CvTacticalDominanceZone::GetZoneType
_TEXT	ENDS
PUBLIC	??_H@YGXPAXIHP6EPAX0@Z@Z			; `vector constructor iterator'
; Function compile flags: /Ogtpy
;	COMDAT ??_H@YGXPAXIHP6EPAX0@Z@Z
_TEXT	SEGMENT
___t$ = 8						; size = 4
___s$ = 12						; size = 4
___n$ = 16						; size = 4
___f$ = 20						; size = 4
??_H@YGXPAXIHP6EPAX0@Z@Z PROC				; `vector constructor iterator', COMDAT
	push	edi
	mov	edi, DWORD PTR ___n$[esp]
	sub	edi, 1
	js	SHORT $LN1@vector
	push	ebx
	mov	ebx, DWORD PTR ___f$[esp+4]
	push	ebp
	mov	ebp, DWORD PTR ___s$[esp+8]
	push	esi
	mov	esi, DWORD PTR ___t$[esp+12]
	npad	7
$LL2@vector:
	mov	ecx, esi
	call	ebx
	add	esi, ebp
	sub	edi, 1
	jns	SHORT $LL2@vector
	pop	esi
	pop	ebp
	pop	ebx
$LN1@vector:
	pop	edi
	ret	16					; 00000010H
??_H@YGXPAXIHP6EPAX0@Z@Z ENDP				; `vector constructor iterator'
_TEXT	ENDS
PUBLIC	??_7bad_alloc@std@@6B@				; std::bad_alloc::`vftable'
PUBLIC	??0bad_alloc@std@@QAE@PBD@Z			; std::bad_alloc::bad_alloc
PUBLIC	??_R4bad_alloc@std@@6B@				; std::bad_alloc::`RTTI Complete Object Locator'
PUBLIC	??_R0?AVbad_alloc@std@@@8			; std::bad_alloc `RTTI Type Descriptor'
PUBLIC	??_R3bad_alloc@std@@8				; std::bad_alloc::`RTTI Class Hierarchy Descriptor'
PUBLIC	??_R2bad_alloc@std@@8				; std::bad_alloc::`RTTI Base Class Array'
PUBLIC	??_R1A@?0A@EA@bad_alloc@std@@8			; std::bad_alloc::`RTTI Base Class Descriptor at (0,-1,0,64)'
PUBLIC	??_R1A@?0A@EA@exception@std@@8			; std::exception::`RTTI Base Class Descriptor at (0,-1,0,64)'
PUBLIC	??_R0?AVexception@std@@@8			; std::exception `RTTI Type Descriptor'
PUBLIC	??_R3exception@std@@8				; std::exception::`RTTI Class Hierarchy Descriptor'
PUBLIC	??_R2exception@std@@8				; std::exception::`RTTI Base Class Array'
EXTRN	__imp_??0exception@std@@QAE@ABQBD@Z:PROC
EXTRN	??_7type_info@@6B@:QWORD			; type_info::`vftable'
EXTRN	??_Ebad_alloc@std@@UAEPAXI@Z:PROC		; std::bad_alloc::`vector deleting destructor'
EXTRN	?what@exception@std@@UBEPBDXZ:PROC		; std::exception::what
;	COMDAT ??_R2exception@std@@8
; File c:\program files (x86)\microsoft visual studio 9.0\vc\include\exception
rdata$r	SEGMENT
??_R2exception@std@@8 DD FLAT:??_R1A@?0A@EA@exception@std@@8 ; std::exception::`RTTI Base Class Array'
rdata$r	ENDS
;	COMDAT ??_R3exception@std@@8
rdata$r	SEGMENT
??_R3exception@std@@8 DD 00H				; std::exception::`RTTI Class Hierarchy Descriptor'
	DD	00H
	DD	01H
	DD	FLAT:??_R2exception@std@@8
rdata$r	ENDS
;	COMDAT ??_R0?AVexception@std@@@8
_DATA	SEGMENT
??_R0?AVexception@std@@@8 DD FLAT:??_7type_info@@6B@	; std::exception `RTTI Type Descriptor'
	DD	00H
	DB	'.?AVexception@std@@', 00H
_DATA	ENDS
;	COMDAT ??_R1A@?0A@EA@exception@std@@8
rdata$r	SEGMENT
??_R1A@?0A@EA@exception@std@@8 DD FLAT:??_R0?AVexception@std@@@8 ; std::exception::`RTTI Base Class Descriptor at (0,-1,0,64)'
	DD	00H
	DD	00H
	DD	0ffffffffH
	DD	00H
	DD	040H
	DD	FLAT:??_R3exception@std@@8
rdata$r	ENDS
;	COMDAT ??_R1A@?0A@EA@bad_alloc@std@@8
rdata$r	SEGMENT
??_R1A@?0A@EA@bad_alloc@std@@8 DD FLAT:??_R0?AVbad_alloc@std@@@8 ; std::bad_alloc::`RTTI Base Class Descriptor at (0,-1,0,64)'
	DD	01H
	DD	00H
	DD	0ffffffffH
	DD	00H
	DD	040H
	DD	FLAT:??_R3bad_alloc@std@@8
rdata$r	ENDS
;	COMDAT ??_R2bad_alloc@std@@8
rdata$r	SEGMENT
??_R2bad_alloc@std@@8 DD FLAT:??_R1A@?0A@EA@bad_alloc@std@@8 ; std::bad_alloc::`RTTI Base Class Array'
	DD	FLAT:??_R1A@?0A@EA@exception@std@@8
rdata$r	ENDS
;	COMDAT ??_R3bad_alloc@std@@8
rdata$r	SEGMENT
??_R3bad_alloc@std@@8 DD 00H				; std::bad_alloc::`RTTI Class Hierarchy Descriptor'
	DD	00H
	DD	02H
	DD	FLAT:??_R2bad_alloc@std@@8
rdata$r	ENDS
;	COMDAT ??_R0?AVbad_alloc@std@@@8
_DATA	SEGMENT
??_R0?AVbad_alloc@std@@@8 DD FLAT:??_7type_info@@6B@	; std::bad_alloc `RTTI Type Descriptor'
	DD	00H
	DB	'.?AVbad_alloc@std@@', 00H
_DATA	ENDS
;	COMDAT ??_R4bad_alloc@std@@6B@
rdata$r	SEGMENT
??_R4bad_alloc@std@@6B@ DD 00H				; std::bad_alloc::`RTTI Complete Object Locator'
	DD	00H
	DD	00H
	DD	FLAT:??_R0?AVbad_alloc@std@@@8
	DD	FLAT:??_R3bad_alloc@std@@8
rdata$r	ENDS
;	COMDAT ??_7bad_alloc@std@@6B@
CONST	SEGMENT
??_7bad_alloc@std@@6B@ DD FLAT:??_R4bad_alloc@std@@6B@	; std::bad_alloc::`vftable'
	DD	FLAT:??_Ebad_alloc@std@@UAEPAXI@Z
	DD	FLAT:?what@exception@std@@UBEPBDXZ
; Function compile flags: /Ogtpy
CONST	ENDS
;	COMDAT ??0bad_alloc@std@@QAE@PBD@Z
_TEXT	SEGMENT
__Message$ = 8						; size = 4
??0bad_alloc@std@@QAE@PBD@Z PROC			; std::bad_alloc::bad_alloc, COMDAT
; _this$ = ecx

; 371  : 		{	// construct from message string

	push	esi
	lea	eax, DWORD PTR __Message$[esp]
	push	eax
	mov	esi, ecx
	call	DWORD PTR __imp_??0exception@std@@QAE@ABQBD@Z
	mov	DWORD PTR [esi], OFFSET ??_7bad_alloc@std@@6B@

; 372  : 		}

	mov	eax, esi
	pop	esi
	ret	4
??0bad_alloc@std@@QAE@PBD@Z ENDP			; std::bad_alloc::bad_alloc
_TEXT	ENDS
PUBLIC	??1bad_alloc@std@@UAE@XZ			; std::bad_alloc::~bad_alloc
EXTRN	__imp_??1exception@std@@UAE@XZ:PROC
; Function compile flags: /Ogtpy
;	COMDAT ??1bad_alloc@std@@UAE@XZ
_TEXT	SEGMENT
??1bad_alloc@std@@UAE@XZ PROC				; std::bad_alloc::~bad_alloc, COMDAT
; _this$ = ecx

; 380  : 		{	// destroy the object

	mov	DWORD PTR [ecx], OFFSET ??_7bad_alloc@std@@6B@

; 381  : 		}

	jmp	DWORD PTR __imp_??1exception@std@@UAE@XZ
??1bad_alloc@std@@UAE@XZ ENDP				; std::bad_alloc::~bad_alloc
_TEXT	ENDS
EXTRN	??3@YAXPAX@Z:PROC				; operator delete
; Function compile flags: /Ogtpy
;	COMDAT ??_Gbad_alloc@std@@UAEPAXI@Z
_TEXT	SEGMENT
___flags$ = 8						; size = 4
??_Gbad_alloc@std@@UAEPAXI@Z PROC			; std::bad_alloc::`scalar deleting destructor', COMDAT
; _this$ = ecx
	push	esi
	mov	esi, ecx
	mov	DWORD PTR [esi], OFFSET ??_7bad_alloc@std@@6B@
	call	DWORD PTR __imp_??1exception@std@@UAE@XZ
	test	BYTE PTR ___flags$[esp], 1
	je	SHORT $LN6@scalar
	push	esi
	call	??3@YAXPAX@Z				; operator delete
	add	esp, 4
$LN6@scalar:
	mov	eax, esi
	pop	esi
	ret	4
??_Gbad_alloc@std@@UAEPAXI@Z ENDP			; std::bad_alloc::`scalar deleting destructor'
_TEXT	ENDS
PUBLIC	??2@YAPAXIPAX@Z					; operator new
; Function compile flags: /Ogtpy
; File c:\program files (x86)\microsoft visual studio 9.0\vc\include\new
;	COMDAT ??2@YAPAXIPAX@Z
_TEXT	SEGMENT
___formal$ = 8						; size = 4
__Where$ = 12						; size = 4
??2@YAPAXIPAX@Z PROC					; operator new, COMDAT

; 59   : 	return (_Where);

	mov	eax, DWORD PTR __Where$[esp-4]

; 60   : 	}

	ret	0
??2@YAPAXIPAX@Z ENDP					; operator new
_TEXT	ENDS
PUBLIC	??A?$BaseVector@VCvTacticalDominanceZone@@$00@@QAEAAVCvTacticalDominanceZone@@I@Z ; BaseVector<CvTacticalDominanceZone,1>::operator[]
; Function compile flags: /Ogtpy
; File c:\users\enormousapplepie\documents\github\lekmod\lekmod_dll\fireplace\include\fireworks\ffastvector.h
;	COMDAT ??A?$BaseVector@VCvTacticalDominanceZone@@$00@@QAEAAVCvTacticalDominanceZone@@I@Z
_TEXT	SEGMENT
_ui$ = 8						; size = 4
??A?$BaseVector@VCvTacticalDominanceZone@@$00@@QAEAAVCvTacticalDominanceZone@@I@Z PROC ; BaseVector<CvTacticalDominanceZone,1>::operator[], COMDAT
; _this$ = ecx

; 129  : 		FAssert(ui < m_uiCurrSize);
; 130  : 		return m_pData[ui];

	mov	eax, DWORD PTR _ui$[esp-4]
	imul	eax, 76					; 0000004cH
	add	eax, DWORD PTR [ecx]

; 131  : 	};

	ret	4
??A?$BaseVector@VCvTacticalDominanceZone@@$00@@QAEAAVCvTacticalDominanceZone@@I@Z ENDP ; BaseVector<CvTacticalDominanceZone,1>::operator[]
_TEXT	ENDS
PUBLIC	?begin@?$BaseVector@VCvTacticalDominanceZone@@$00@@QAEPAVCvTacticalDominanceZone@@XZ ; BaseVector<CvTacticalDominanceZone,1>::begin
; Function compile flags: /Ogtpy
;	COMDAT ?begin@?$BaseVector@VCvTacticalDominanceZone@@$00@@QAEPAVCvTacticalDominanceZone@@XZ
_TEXT	SEGMENT
?begin@?$BaseVector@VCvTacticalDominanceZone@@$00@@QAEPAVCvTacticalDominanceZone@@XZ PROC ; BaseVector<CvTacticalDominanceZone,1>::begin, COMDAT
; _this$ = ecx

; 194  :         return m_pData; 

	mov	eax, DWORD PTR [ecx]

; 195  :     };

	ret	0
?begin@?$BaseVector@VCvTacticalDominanceZone@@$00@@QAEPAVCvTacticalDominanceZone@@XZ ENDP ; BaseVector<CvTacticalDominanceZone,1>::begin
_TEXT	ENDS
PUBLIC	?end@?$BaseVector@VCvTacticalDominanceZone@@$00@@QAEPAVCvTacticalDominanceZone@@XZ ; BaseVector<CvTacticalDominanceZone,1>::end
; Function compile flags: /Ogtpy
;	COMDAT ?end@?$BaseVector@VCvTacticalDominanceZone@@$00@@QAEPAVCvTacticalDominanceZone@@XZ
_TEXT	SEGMENT
?end@?$BaseVector@VCvTacticalDominanceZone@@$00@@QAEPAVCvTacticalDominanceZone@@XZ PROC ; BaseVector<CvTacticalDominanceZone,1>::end, COMDAT
; _this$ = ecx

; 197  :         return m_pData+m_uiCurrSize; 

	mov	eax, DWORD PTR [ecx+4]
	imul	eax, 76					; 0000004cH
	add	eax, DWORD PTR [ecx]

; 198  :     };

	ret	0
?end@?$BaseVector@VCvTacticalDominanceZone@@$00@@QAEPAVCvTacticalDominanceZone@@XZ ENDP ; BaseVector<CvTacticalDominanceZone,1>::end
_TEXT	ENDS
PUBLIC	??A?$BaseVector@PAVCvUnit@@$00@@QAEAAPAVCvUnit@@I@Z ; BaseVector<CvUnit *,1>::operator[]
; Function compile flags: /Ogtpy
;	COMDAT ??A?$BaseVector@PAVCvUnit@@$00@@QAEAAPAVCvUnit@@I@Z
_TEXT	SEGMENT
_ui$ = 8						; size = 4
??A?$BaseVector@PAVCvUnit@@$00@@QAEAAPAVCvUnit@@I@Z PROC ; BaseVector<CvUnit *,1>::operator[], COMDAT
; _this$ = ecx

; 129  : 		FAssert(ui < m_uiCurrSize);
; 130  : 		return m_pData[ui];

	mov	eax, DWORD PTR [ecx]
	mov	ecx, DWORD PTR _ui$[esp-4]
	lea	eax, DWORD PTR [eax+ecx*4]

; 131  : 	};

	ret	4
??A?$BaseVector@PAVCvUnit@@$00@@QAEAAPAVCvUnit@@I@Z ENDP ; BaseVector<CvUnit *,1>::operator[]
_TEXT	ENDS
PUBLIC	?size@?$BaseVector@PAVCvUnit@@$00@@QBEIXZ	; BaseVector<CvUnit *,1>::size
; Function compile flags: /Ogtpy
;	COMDAT ?size@?$BaseVector@PAVCvUnit@@$00@@QBEIXZ
_TEXT	SEGMENT
?size@?$BaseVector@PAVCvUnit@@$00@@QBEIXZ PROC		; BaseVector<CvUnit *,1>::size, COMDAT
; _this$ = ecx

; 169  : 		return m_uiCurrSize;

	mov	eax, DWORD PTR [ecx+4]

; 170  : 	};

	ret	0
?size@?$BaseVector@PAVCvUnit@@$00@@QBEIXZ ENDP		; BaseVector<CvUnit *,1>::size
_TEXT	ENDS
PUBLIC	?addTarget@?$DestructionNotification@V?$FObjectHandle@VCvUnit@@@@@@QAEXABV?$FObjectHandle@VCvUnit@@@@@Z ; DestructionNotification<FObjectHandle<CvUnit> >::addTarget
; Function compile flags: /Ogtpy
; File c:\users\enormousapplepie\documents\github\lekmod\lekmod_dll\fireplace\include\fireworks\fobjecthandle.h
;	COMDAT ?addTarget@?$DestructionNotification@V?$FObjectHandle@VCvUnit@@@@@@QAEXABV?$FObjectHandle@VCvUnit@@@@@Z
_TEXT	SEGMENT
_target$ = 8						; size = 4
?addTarget@?$DestructionNotification@V?$FObjectHandle@VCvUnit@@@@@@QAEXABV?$FObjectHandle@VCvUnit@@@@@Z PROC ; DestructionNotification<FObjectHandle<CvUnit> >::addTarget, COMDAT
; _this$ = ecx

; 52   : #ifdef TRACK_DESTRUCTION_NOTIFICATION
; 53   : 		m_targets.insert(&target);
; 54   : #endif
; 55   : 	}

	ret	4
?addTarget@?$DestructionNotification@V?$FObjectHandle@VCvUnit@@@@@@QAEXABV?$FObjectHandle@VCvUnit@@@@@Z ENDP ; DestructionNotification<FObjectHandle<CvUnit> >::addTarget
_TEXT	ENDS
PUBLIC	?removeTarget@?$DestructionNotification@V?$FObjectHandle@VCvUnit@@@@@@QAEXABV?$FObjectHandle@VCvUnit@@@@@Z ; DestructionNotification<FObjectHandle<CvUnit> >::removeTarget
; Function compile flags: /Ogtpy
;	COMDAT ?removeTarget@?$DestructionNotification@V?$FObjectHandle@VCvUnit@@@@@@QAEXABV?$FObjectHandle@VCvUnit@@@@@Z
_TEXT	SEGMENT
_target$ = 8						; size = 4
?removeTarget@?$DestructionNotification@V?$FObjectHandle@VCvUnit@@@@@@QAEXABV?$FObjectHandle@VCvUnit@@@@@Z PROC ; DestructionNotification<FObjectHandle<CvUnit> >::removeTarget, COMDAT
; _this$ = ecx

; 63   : #ifdef TRACK_DESTRUCTION_NOTIFICATION
; 64   : 		m_targets.erase(&target);
; 65   : #endif
; 66   : 	}

	ret	4
?removeTarget@?$DestructionNotification@V?$FObjectHandle@VCvUnit@@@@@@QAEXABV?$FObjectHandle@VCvUnit@@@@@Z ENDP ; DestructionNotification<FObjectHandle<CvUnit> >::removeTarget
_TEXT	ENDS
PUBLIC	??_C@_0GH@ECFAPJEJ@c?3?2users?2enormousapplepie?2docume@ ; `string'
PUBLIC	?Alloc@?$FStaticVector@VCvTacticalDominanceZone@@$0GO@$00$0BCJ@$0A@@@IAEPAVCvTacticalDominanceZone@@I@Z ; FStaticVector<CvTacticalDominanceZone,110,1,297,0>::Alloc
EXTRN	?FireMallocAlignedNoTracking@@YAPAXIIPBDH@Z:PROC ; FireMallocAlignedNoTracking
;	COMDAT ??_C@_0GH@ECFAPJEJ@c?3?2users?2enormousapplepie?2docume@
; File c:\users\enormousapplepie\documents\github\lekmod\lekmod_dll\fireplace\include\fireworks\ffastvector.h
CONST	SEGMENT
??_C@_0GH@ECFAPJEJ@c?3?2users?2enormousapplepie?2docume@ DB 'c:\users\eno'
	DB	'rmousapplepie\documents\github\lekmod\lekmod_dll\fireplace\in'
	DB	'clude\fireworks\FFastVector.h', 00H		; `string'
; Function compile flags: /Ogtpy
CONST	ENDS
;	COMDAT ?Alloc@?$FStaticVector@VCvTacticalDominanceZone@@$0GO@$00$0BCJ@$0A@@@IAEPAVCvTacticalDominanceZone@@I@Z
_TEXT	SEGMENT
_uiSize$ = 8						; size = 4
?Alloc@?$FStaticVector@VCvTacticalDominanceZone@@$0GO@$00$0BCJ@$0A@@@IAEPAVCvTacticalDominanceZone@@I@Z PROC ; FStaticVector<CvTacticalDominanceZone,110,1,297,0>::Alloc, COMDAT
; _this$ = ecx

; 795  : 	T* Alloc(unsigned int uiSize){

	push	esi
	push	edi

; 796  : 		T* pRet;
; 797  : 		if( uiSize > L ){

	mov	edi, DWORD PTR _uiSize$[esp+4]
	mov	esi, ecx
	cmp	edi, 110				; 0000006eH
	jbe	SHORT $LN2@Alloc

; 798  : 			pRet = (T*)FMALLOCALIGNED( uiSize*sizeof(T), __alignof(T), AllocPool, nSubID );

	mov	eax, edi
	imul	eax, 76					; 0000004cH
	push	798					; 0000031eH
	push	OFFSET ??_C@_0GH@ECFAPJEJ@c?3?2users?2enormousapplepie?2docume@
	push	4
	push	eax
	call	?FireMallocAlignedNoTracking@@YAPAXIIPBDH@Z ; FireMallocAlignedNoTracking
	add	esp, 16					; 00000010H

; 799  : 			m_uiCurrMaxSize = uiSize;

	mov	DWORD PTR [esi+8], edi
	pop	edi
	pop	esi

; 803  : 		}
; 804  : 		return pRet;
; 805  : 	};

	ret	4
$LN2@Alloc:
	pop	edi

; 800  : 		}else{
; 801  : 			pRet = (T*)m_aData;

	lea	eax, DWORD PTR [esi+12]

; 802  : 			m_uiCurrMaxSize = L;

	mov	DWORD PTR [esi+8], 110			; 0000006eH
	pop	esi

; 803  : 		}
; 804  : 		return pRet;
; 805  : 	};

	ret	4
?Alloc@?$FStaticVector@VCvTacticalDominanceZone@@$0GO@$00$0BCJ@$0A@@@IAEPAVCvTacticalDominanceZone@@I@Z ENDP ; FStaticVector<CvTacticalDominanceZone,110,1,297,0>::Alloc
_TEXT	ENDS
PUBLIC	??1?$BaseVector@VCvTacticalDominanceZone@@$00@@QAE@XZ ; BaseVector<CvTacticalDominanceZone,1>::~BaseVector<CvTacticalDominanceZone,1>
; Function compile flags: /Ogtpy
;	COMDAT ??1?$BaseVector@VCvTacticalDominanceZone@@$00@@QAE@XZ
_TEXT	SEGMENT
??1?$BaseVector@VCvTacticalDominanceZone@@$00@@QAE@XZ PROC ; BaseVector<CvTacticalDominanceZone,1>::~BaseVector<CvTacticalDominanceZone,1>, COMDAT
; _this$ = ecx

; 111  : 	~BaseVector(){};

	ret	0
??1?$BaseVector@VCvTacticalDominanceZone@@$00@@QAE@XZ ENDP ; BaseVector<CvTacticalDominanceZone,1>::~BaseVector<CvTacticalDominanceZone,1>
_TEXT	ENDS
PUBLIC	??0?$BaseVector@VCvTacticalDominanceZone@@$00@@IAE@XZ ; BaseVector<CvTacticalDominanceZone,1>::BaseVector<CvTacticalDominanceZone,1>
; Function compile flags: /Ogtpy
;	COMDAT ??0?$BaseVector@VCvTacticalDominanceZone@@$00@@IAE@XZ
_TEXT	SEGMENT
??0?$BaseVector@VCvTacticalDominanceZone@@$00@@IAE@XZ PROC ; BaseVector<CvTacticalDominanceZone,1>::BaseVector<CvTacticalDominanceZone,1>, COMDAT
; _this$ = ecx

; 216  : 	BaseVector() : m_uiCurrSize(0), m_uiCurrMaxSize(0), m_pData(NULL) {};

	mov	eax, ecx
	xor	ecx, ecx
	mov	DWORD PTR [eax], ecx
	mov	DWORD PTR [eax+4], ecx
	mov	DWORD PTR [eax+8], ecx
	ret	0
??0?$BaseVector@VCvTacticalDominanceZone@@$00@@IAE@XZ ENDP ; BaseVector<CvTacticalDominanceZone,1>::BaseVector<CvTacticalDominanceZone,1>
_TEXT	ENDS
PUBLIC	?Destroy@?$BaseVector@VCvTacticalDominanceZone@@$00@@IAEXPAVCvTacticalDominanceZone@@I@Z ; BaseVector<CvTacticalDominanceZone,1>::Destroy
; Function compile flags: /Ogtpy
;	COMDAT ?Destroy@?$BaseVector@VCvTacticalDominanceZone@@$00@@IAEXPAVCvTacticalDominanceZone@@I@Z
_TEXT	SEGMENT
_pVal$ = 8						; size = 4
_uiNumElements$ = 12					; size = 4
?Destroy@?$BaseVector@VCvTacticalDominanceZone@@$00@@IAEXPAVCvTacticalDominanceZone@@I@Z PROC ; BaseVector<CvTacticalDominanceZone,1>::Destroy, COMDAT
; _this$ = ecx

; 221  : 		if( !bPODType){
; 222  : 			for(unsigned int i = 0; i < uiNumElements; ++i){
; 223  : 				pVal[i].~T();
; 224  : 			}
; 225  : 		}
; 226  : 	};

	ret	8
?Destroy@?$BaseVector@VCvTacticalDominanceZone@@$00@@IAEXPAVCvTacticalDominanceZone@@I@Z ENDP ; BaseVector<CvTacticalDominanceZone,1>::Destroy
_TEXT	ENDS
PUBLIC	?Alloc@?$FStaticVector@PAVCvUnit@@$0PK@$00$0BCJ@$0A@@@IAEPAPAVCvUnit@@I@Z ; FStaticVector<CvUnit *,250,1,297,0>::Alloc
; Function compile flags: /Ogtpy
;	COMDAT ?Alloc@?$FStaticVector@PAVCvUnit@@$0PK@$00$0BCJ@$0A@@@IAEPAPAVCvUnit@@I@Z
_TEXT	SEGMENT
_uiSize$ = 8						; size = 4
?Alloc@?$FStaticVector@PAVCvUnit@@$0PK@$00$0BCJ@$0A@@@IAEPAPAVCvUnit@@I@Z PROC ; FStaticVector<CvUnit *,250,1,297,0>::Alloc, COMDAT
; _this$ = ecx

; 795  : 	T* Alloc(unsigned int uiSize){

	push	esi
	push	edi

; 796  : 		T* pRet;
; 797  : 		if( uiSize > L ){

	mov	edi, DWORD PTR _uiSize$[esp+4]
	mov	esi, ecx
	cmp	edi, 250				; 000000faH
	jbe	SHORT $LN2@Alloc@2

; 798  : 			pRet = (T*)FMALLOCALIGNED( uiSize*sizeof(T), __alignof(T), AllocPool, nSubID );

	push	798					; 0000031eH
	push	OFFSET ??_C@_0GH@ECFAPJEJ@c?3?2users?2enormousapplepie?2docume@
	lea	eax, DWORD PTR [edi*4]
	push	4
	push	eax
	call	?FireMallocAlignedNoTracking@@YAPAXIIPBDH@Z ; FireMallocAlignedNoTracking
	add	esp, 16					; 00000010H

; 799  : 			m_uiCurrMaxSize = uiSize;

	mov	DWORD PTR [esi+8], edi
	pop	edi
	pop	esi

; 803  : 		}
; 804  : 		return pRet;
; 805  : 	};

	ret	4
$LN2@Alloc@2:
	pop	edi

; 800  : 		}else{
; 801  : 			pRet = (T*)m_aData;

	lea	eax, DWORD PTR [esi+12]

; 802  : 			m_uiCurrMaxSize = L;

	mov	DWORD PTR [esi+8], 250			; 000000faH
	pop	esi

; 803  : 		}
; 804  : 		return pRet;
; 805  : 	};

	ret	4
?Alloc@?$FStaticVector@PAVCvUnit@@$0PK@$00$0BCJ@$0A@@@IAEPAPAVCvUnit@@I@Z ENDP ; FStaticVector<CvUnit *,250,1,297,0>::Alloc
_TEXT	ENDS
PUBLIC	??1?$BaseVector@PAVCvUnit@@$00@@QAE@XZ		; BaseVector<CvUnit *,1>::~BaseVector<CvUnit *,1>
; Function compile flags: /Ogtpy
;	COMDAT ??1?$BaseVector@PAVCvUnit@@$00@@QAE@XZ
_TEXT	SEGMENT
??1?$BaseVector@PAVCvUnit@@$00@@QAE@XZ PROC		; BaseVector<CvUnit *,1>::~BaseVector<CvUnit *,1>, COMDAT
; _this$ = ecx

; 111  : 	~BaseVector(){};

	ret	0
??1?$BaseVector@PAVCvUnit@@$00@@QAE@XZ ENDP		; BaseVector<CvUnit *,1>::~BaseVector<CvUnit *,1>
_TEXT	ENDS
PUBLIC	??0?$BaseVector@PAVCvUnit@@$00@@IAE@XZ		; BaseVector<CvUnit *,1>::BaseVector<CvUnit *,1>
; Function compile flags: /Ogtpy
;	COMDAT ??0?$BaseVector@PAVCvUnit@@$00@@IAE@XZ
_TEXT	SEGMENT
??0?$BaseVector@PAVCvUnit@@$00@@IAE@XZ PROC		; BaseVector<CvUnit *,1>::BaseVector<CvUnit *,1>, COMDAT
; _this$ = ecx

; 216  : 	BaseVector() : m_uiCurrSize(0), m_uiCurrMaxSize(0), m_pData(NULL) {};

	mov	eax, ecx
	xor	ecx, ecx
	mov	DWORD PTR [eax], ecx
	mov	DWORD PTR [eax+4], ecx
	mov	DWORD PTR [eax+8], ecx
	ret	0
??0?$BaseVector@PAVCvUnit@@$00@@IAE@XZ ENDP		; BaseVector<CvUnit *,1>::BaseVector<CvUnit *,1>
_TEXT	ENDS
PUBLIC	?Destroy@?$BaseVector@PAVCvUnit@@$00@@IAEXPAPAVCvUnit@@I@Z ; BaseVector<CvUnit *,1>::Destroy
; Function compile flags: /Ogtpy
;	COMDAT ?Destroy@?$BaseVector@PAVCvUnit@@$00@@IAEXPAPAVCvUnit@@I@Z
_TEXT	SEGMENT
_pVal$ = 8						; size = 4
_uiNumElements$ = 12					; size = 4
?Destroy@?$BaseVector@PAVCvUnit@@$00@@IAEXPAPAVCvUnit@@I@Z PROC ; BaseVector<CvUnit *,1>::Destroy, COMDAT
; _this$ = ecx

; 221  : 		if( !bPODType){
; 222  : 			for(unsigned int i = 0; i < uiNumElements; ++i){
; 223  : 				pVal[i].~T();
; 224  : 			}
; 225  : 		}
; 226  : 	};

	ret	8
?Destroy@?$BaseVector@PAVCvUnit@@$00@@IAEXPAPAVCvUnit@@I@Z ENDP ; BaseVector<CvUnit *,1>::Destroy
_TEXT	ENDS
PUBLIC	??$max@H@std@@YAABHABH0@Z			; std::max<int>
; Function compile flags: /Ogtpy
; File c:\program files (x86)\microsoft visual studio 9.0\vc\include\xutility
;	COMDAT ??$max@H@std@@YAABHABH0@Z
_TEXT	SEGMENT
__Left$ = 8						; size = 4
__Right$ = 12						; size = 4
??$max@H@std@@YAABHABH0@Z PROC				; std::max<int>, COMDAT

; 3384 : 	return (_DEBUG_LT(_Left, _Right) ? _Right : _Left);

	mov	eax, DWORD PTR __Left$[esp-4]
	mov	edx, DWORD PTR [eax]
	mov	ecx, DWORD PTR __Right$[esp-4]
	cmp	edx, DWORD PTR [ecx]
	jge	SHORT $LN4@max
	mov	eax, ecx
$LN4@max:

; 3385 : 	}

	ret	0
??$max@H@std@@YAABHABH0@Z ENDP				; std::max<int>
_TEXT	ENDS
PUBLIC	??$SAFE_DELETE_ARRAY@VCvTacticalAnalysisCell@@@@YAXAAPAVCvTacticalAnalysisCell@@@Z ; SAFE_DELETE_ARRAY<CvTacticalAnalysisCell>
EXTRN	??_V@YAXPAX@Z:PROC				; operator delete[]
; Function compile flags: /Ogtpy
; File c:\users\enormousapplepie\documents\github\lekmod\lekmod_dll\fireplace\include\fireworks\ffiretypes.h
;	COMDAT ??$SAFE_DELETE_ARRAY@VCvTacticalAnalysisCell@@@@YAXAAPAVCvTacticalAnalysisCell@@@Z
_TEXT	SEGMENT
_pkInstanceArray$ = 8					; size = 4
??$SAFE_DELETE_ARRAY@VCvTacticalAnalysisCell@@@@YAXAAPAVCvTacticalAnalysisCell@@@Z PROC ; SAFE_DELETE_ARRAY<CvTacticalAnalysisCell>, COMDAT

; 311  : {

	push	esi

; 312  : 	delete[] pkInstanceArray;

	mov	esi, DWORD PTR _pkInstanceArray$[esp]
	mov	eax, DWORD PTR [esi]
	push	eax
	call	??_V@YAXPAX@Z				; operator delete[]
	add	esp, 4

; 313  : 	pkInstanceArray = NULL;

	mov	DWORD PTR [esi], 0
	pop	esi

; 314  : };

	ret	0
??$SAFE_DELETE_ARRAY@VCvTacticalAnalysisCell@@@@YAXAAPAVCvTacticalAnalysisCell@@@Z ENDP ; SAFE_DELETE_ARRAY<CvTacticalAnalysisCell>
_TEXT	ENDS
PUBLIC	??$_Dist_type@PAVCvTacticalDominanceZone@@@std@@YAPAHPAVCvTacticalDominanceZone@@@Z ; std::_Dist_type<CvTacticalDominanceZone *>
; Function compile flags: /Ogtpy
; File c:\program files (x86)\microsoft visual studio 9.0\vc\include\xutility
;	COMDAT ??$_Dist_type@PAVCvTacticalDominanceZone@@@std@@YAPAHPAVCvTacticalDominanceZone@@@Z
_TEXT	SEGMENT
___formal$ = 8						; size = 4
??$_Dist_type@PAVCvTacticalDominanceZone@@@std@@YAPAHPAVCvTacticalDominanceZone@@@Z PROC ; std::_Dist_type<CvTacticalDominanceZone *>, COMDAT

; 1831 : 	return (0);

	xor	eax, eax

; 1832 : 	}

	ret	0
??$_Dist_type@PAVCvTacticalDominanceZone@@@std@@YAPAHPAVCvTacticalDominanceZone@@@Z ENDP ; std::_Dist_type<CvTacticalDominanceZone *>
_TEXT	ENDS
PUBLIC	??$_Val_type@PAVCvTacticalDominanceZone@@@std@@YAPAVCvTacticalDominanceZone@@PAV1@@Z ; std::_Val_type<CvTacticalDominanceZone *>
; Function compile flags: /Ogtpy
;	COMDAT ??$_Val_type@PAVCvTacticalDominanceZone@@@std@@YAPAVCvTacticalDominanceZone@@PAV1@@Z
_TEXT	SEGMENT
___formal$ = 8						; size = 4
??$_Val_type@PAVCvTacticalDominanceZone@@@std@@YAPAVCvTacticalDominanceZone@@PAV1@@Z PROC ; std::_Val_type<CvTacticalDominanceZone *>, COMDAT

; 1766 : 	return (0);

	xor	eax, eax

; 1767 : 	}

	ret	0
??$_Val_type@PAVCvTacticalDominanceZone@@@std@@YAPAVCvTacticalDominanceZone@@PAV1@@Z ENDP ; std::_Val_type<CvTacticalDominanceZone *>
_TEXT	ENDS
PUBLIC	??0?$_Temp_iterator@VCvTacticalDominanceZone@@@std@@QAE@H@Z ; std::_Temp_iterator<CvTacticalDominanceZone>::_Temp_iterator<CvTacticalDominanceZone>
; Function compile flags: /Ogtpy
; File c:\program files (x86)\microsoft visual studio 9.0\vc\include\memory
;	COMDAT ??0?$_Temp_iterator@VCvTacticalDominanceZone@@@std@@QAE@H@Z
_TEXT	SEGMENT
__Count$ = 8						; size = 4
??0?$_Temp_iterator@VCvTacticalDominanceZone@@@std@@QAE@H@Z PROC ; std::_Temp_iterator<CvTacticalDominanceZone>::_Temp_iterator<CvTacticalDominanceZone>, COMDAT
; _this$ = ecx

; 526  : 	_Temp_iterator(_PDFT _Count = 0)

	mov	eax, ecx

; 527  : 		{	// construct from desired temporary buffer size
; 528  : 		_Buf._Begin = 0;

	xor	ecx, ecx
	mov	DWORD PTR [eax], ecx

; 529  : 		_Buf._Current = 0;

	mov	DWORD PTR [eax+4], ecx

; 530  : 		_Buf._Hiwater = 0;

	mov	DWORD PTR [eax+8], ecx

; 531  : 		_Buf._Size = _Count;	// memorize size for lazy allocation

	mov	ecx, DWORD PTR __Count$[esp-4]
	mov	DWORD PTR [eax+12], ecx

; 532  : 		_Pbuf = &_Buf;

	mov	DWORD PTR [eax+16], eax

; 533  : 		}

	ret	4
??0?$_Temp_iterator@VCvTacticalDominanceZone@@@std@@QAE@H@Z ENDP ; std::_Temp_iterator<CvTacticalDominanceZone>::_Temp_iterator<CvTacticalDominanceZone>
_TEXT	ENDS
PUBLIC	_sqrtf
EXTRN	_sqrt:PROC
EXTRN	__fltused:DWORD
; Function compile flags: /Ogtpy
; File c:\program files (x86)\microsoft visual studio 9.0\vc\include\math.h
;	COMDAT _sqrtf
_TEXT	SEGMENT
tv71 = 8						; size = 4
__X$ = 8						; size = 4
_sqrtf	PROC						; COMDAT

; 423  :         {return ((float)sqrt((double)_X)); }

	fld	DWORD PTR __X$[esp-4]
	sub	esp, 8
	fstp	QWORD PTR [esp]
	call	_sqrt
	fstp	DWORD PTR tv71[esp+4]
	add	esp, 8
	fld	DWORD PTR tv71[esp-4]
	ret	0
_sqrtf	ENDP
_TEXT	ENDS
PUBLIC	??$_Destroy@VCvTacticalDominanceZone@@@std@@YAXPAVCvTacticalDominanceZone@@@Z ; std::_Destroy<CvTacticalDominanceZone>
; Function compile flags: /Ogtpy
; File c:\program files (x86)\microsoft visual studio 9.0\vc\include\xmemory
;	COMDAT ??$_Destroy@VCvTacticalDominanceZone@@@std@@YAXPAVCvTacticalDominanceZone@@@Z
_TEXT	SEGMENT
__Ptr$ = 8						; size = 4
??$_Destroy@VCvTacticalDominanceZone@@@std@@YAXPAVCvTacticalDominanceZone@@@Z PROC ; std::_Destroy<CvTacticalDominanceZone>, COMDAT

; 59   : 	_DESTRUCTOR(_Ty, _Ptr);
; 60   : 	}

	ret	0
??$_Destroy@VCvTacticalDominanceZone@@@std@@YAXPAVCvTacticalDominanceZone@@@Z ENDP ; std::_Destroy<CvTacticalDominanceZone>
_TEXT	ENDS
PUBLIC	??$return_temporary_buffer@VCvTacticalDominanceZone@@@std@@YAXPAVCvTacticalDominanceZone@@@Z ; std::return_temporary_buffer<CvTacticalDominanceZone>
; Function compile flags: /Ogtpy
; File c:\program files (x86)\microsoft visual studio 9.0\vc\include\memory
;	COMDAT ??$return_temporary_buffer@VCvTacticalDominanceZone@@@std@@YAXPAVCvTacticalDominanceZone@@@Z
_TEXT	SEGMENT
__Pbuf$ = 8						; size = 4
??$return_temporary_buffer@VCvTacticalDominanceZone@@@std@@YAXPAVCvTacticalDominanceZone@@@Z PROC ; std::return_temporary_buffer<CvTacticalDominanceZone>, COMDAT

; 39   : 	operator delete(_Pbuf);

	jmp	??3@YAXPAX@Z				; operator delete
??$return_temporary_buffer@VCvTacticalDominanceZone@@@std@@YAXPAVCvTacticalDominanceZone@@@Z ENDP ; std::return_temporary_buffer<CvTacticalDominanceZone>
_TEXT	ENDS
PUBLIC	??$_Iter_cat@PAVCvTacticalDominanceZone@@@std@@YA?AUrandom_access_iterator_tag@0@ABQAVCvTacticalDominanceZone@@@Z ; std::_Iter_cat<CvTacticalDominanceZone *>
; Function compile flags: /Ogtpy
; File c:\program files (x86)\microsoft visual studio 9.0\vc\include\xutility
;	COMDAT ??$_Iter_cat@PAVCvTacticalDominanceZone@@@std@@YA?AUrandom_access_iterator_tag@0@ABQAVCvTacticalDominanceZone@@@Z
_TEXT	SEGMENT
___$ReturnUdt$ = 8					; size = 4
___formal$ = 12						; size = 4
??$_Iter_cat@PAVCvTacticalDominanceZone@@@std@@YA?AUrandom_access_iterator_tag@0@ABQAVCvTacticalDominanceZone@@@Z PROC ; std::_Iter_cat<CvTacticalDominanceZone *>, COMDAT

; 953  : 	typename iterator_traits<_Iter>::iterator_category _Cat;
; 954  : 	return (_Cat);

	mov	eax, DWORD PTR ___$ReturnUdt$[esp-4]

; 955  : 	}

	ret	0
??$_Iter_cat@PAVCvTacticalDominanceZone@@@std@@YA?AUrandom_access_iterator_tag@0@ABQAVCvTacticalDominanceZone@@@Z ENDP ; std::_Iter_cat<CvTacticalDominanceZone *>
_TEXT	ENDS
PUBLIC	??$_Distance2@PAVCvTacticalDominanceZone@@H@std@@YAXPAVCvTacticalDominanceZone@@0AAHUrandom_access_iterator_tag@0@@Z ; std::_Distance2<CvTacticalDominanceZone *,int>
; Function compile flags: /Ogtpy
;	COMDAT ??$_Distance2@PAVCvTacticalDominanceZone@@H@std@@YAXPAVCvTacticalDominanceZone@@0AAHUrandom_access_iterator_tag@0@@Z
_TEXT	SEGMENT
__First$ = 8						; size = 4
__Last$ = 12						; size = 4
__Off$ = 16						; size = 4
___formal$ = 20						; size = 1
??$_Distance2@PAVCvTacticalDominanceZone@@H@std@@YAXPAVCvTacticalDominanceZone@@0AAHUrandom_access_iterator_tag@0@@Z PROC ; std::_Distance2<CvTacticalDominanceZone *,int>, COMDAT

; 1867 : 
; 1868 :  #if _HAS_ITERATOR_DEBUGGING
; 1869 : 	if (_First != _Last)
; 1870 : 		{	// check for null pointers
; 1871 : 		_DEBUG_POINTER(_First);
; 1872 : 		_DEBUG_POINTER(_Last);
; 1873 : 		}
; 1874 :  #endif /* _HAS_ITERATOR_DEBUGGING */
; 1875 : 
; 1876 : 	_Off += _Last - _First;

	mov	ecx, DWORD PTR __Last$[esp-4]
	sub	ecx, DWORD PTR __First$[esp-4]
	mov	eax, 1808407283				; 6bca1af3H
	imul	ecx
	mov	eax, DWORD PTR __Off$[esp-4]
	sar	edx, 5
	mov	ecx, edx
	shr	ecx, 31					; 0000001fH
	add	ecx, edx
	add	DWORD PTR [eax], ecx

; 1877 : 	}

	ret	0
??$_Distance2@PAVCvTacticalDominanceZone@@H@std@@YAXPAVCvTacticalDominanceZone@@0AAHUrandom_access_iterator_tag@0@@Z ENDP ; std::_Distance2<CvTacticalDominanceZone *,int>
_TEXT	ENDS
PUBLIC	?sqrt@@YAMM@Z					; sqrt
; Function compile flags: /Ogtpy
; File c:\program files (x86)\microsoft visual studio 9.0\vc\include\math.h
;	COMDAT ?sqrt@@YAMM@Z
_TEXT	SEGMENT
tv73 = 8						; size = 4
$T224702 = 8						; size = 4
__X$ = 8						; size = 4
?sqrt@@YAMM@Z PROC					; sqrt, COMDAT

; 534  :         {return (sqrtf(_X)); }

	fld	DWORD PTR __X$[esp-4]
	sub	esp, 8
	fstp	QWORD PTR [esp]
	call	_sqrt
	fstp	DWORD PTR tv73[esp+4]
	add	esp, 8
	fld	DWORD PTR tv73[esp-4]
	fstp	DWORD PTR $T224702[esp-4]
	fld	DWORD PTR $T224702[esp-4]
	ret	0
?sqrt@@YAMM@Z ENDP					; sqrt
_TEXT	ENDS
PUBLIC	?_Init@?$_Temp_iterator@VCvTacticalDominanceZone@@@std@@QAEAAV12@XZ ; std::_Temp_iterator<CvTacticalDominanceZone>::_Init
; Function compile flags: /Ogtpy
; File c:\program files (x86)\microsoft visual studio 9.0\vc\include\memory
;	COMDAT ?_Init@?$_Temp_iterator@VCvTacticalDominanceZone@@@std@@QAEAAV12@XZ
_TEXT	SEGMENT
?_Init@?$_Temp_iterator@VCvTacticalDominanceZone@@@std@@QAEAAV12@XZ PROC ; std::_Temp_iterator<CvTacticalDominanceZone>::_Init, COMDAT
; _this$ = ecx

; 591  : 		{	// set pointer at beginning of buffer

	mov	eax, ecx

; 592  : 		_Pbuf->_Current = _Pbuf->_Begin;

	mov	ecx, DWORD PTR [eax+16]
	mov	edx, DWORD PTR [ecx]
	mov	DWORD PTR [ecx+4], edx

; 593  : 		return (*this);
; 594  : 		}

	ret	0
?_Init@?$_Temp_iterator@VCvTacticalDominanceZone@@@std@@QAEAAV12@XZ ENDP ; std::_Temp_iterator<CvTacticalDominanceZone>::_Init
_TEXT	ENDS
PUBLIC	?_First@?$_Temp_iterator@VCvTacticalDominanceZone@@@std@@QBEPAVCvTacticalDominanceZone@@XZ ; std::_Temp_iterator<CvTacticalDominanceZone>::_First
; Function compile flags: /Ogtpy
;	COMDAT ?_First@?$_Temp_iterator@VCvTacticalDominanceZone@@@std@@QBEPAVCvTacticalDominanceZone@@XZ
_TEXT	SEGMENT
?_First@?$_Temp_iterator@VCvTacticalDominanceZone@@@std@@QBEPAVCvTacticalDominanceZone@@XZ PROC ; std::_Temp_iterator<CvTacticalDominanceZone>::_First, COMDAT
; _this$ = ecx

; 598  : 		return (_Pbuf->_Begin);

	mov	eax, DWORD PTR [ecx+16]
	mov	eax, DWORD PTR [eax]

; 599  : 		}

	ret	0
?_First@?$_Temp_iterator@VCvTacticalDominanceZone@@@std@@QBEPAVCvTacticalDominanceZone@@XZ ENDP ; std::_Temp_iterator<CvTacticalDominanceZone>::_First
_TEXT	ENDS
PUBLIC	?_Last@?$_Temp_iterator@VCvTacticalDominanceZone@@@std@@QBEPAVCvTacticalDominanceZone@@XZ ; std::_Temp_iterator<CvTacticalDominanceZone>::_Last
; Function compile flags: /Ogtpy
;	COMDAT ?_Last@?$_Temp_iterator@VCvTacticalDominanceZone@@@std@@QBEPAVCvTacticalDominanceZone@@XZ
_TEXT	SEGMENT
?_Last@?$_Temp_iterator@VCvTacticalDominanceZone@@@std@@QBEPAVCvTacticalDominanceZone@@XZ PROC ; std::_Temp_iterator<CvTacticalDominanceZone>::_Last, COMDAT
; _this$ = ecx

; 603  : 		return (_Pbuf->_Current);

	mov	eax, DWORD PTR [ecx+16]
	mov	eax, DWORD PTR [eax+4]

; 604  : 		}

	ret	0
?_Last@?$_Temp_iterator@VCvTacticalDominanceZone@@@std@@QBEPAVCvTacticalDominanceZone@@XZ ENDP ; std::_Temp_iterator<CvTacticalDominanceZone>::_Last
_TEXT	ENDS
PUBLIC	??0?$pair@PAVCvTacticalDominanceZone@@H@std@@QAE@ABQAVCvTacticalDominanceZone@@ABH@Z ; std::pair<CvTacticalDominanceZone *,int>::pair<CvTacticalDominanceZone *,int>
; Function compile flags: /Ogtpy
; File c:\program files (x86)\microsoft visual studio 9.0\vc\include\utility
;	COMDAT ??0?$pair@PAVCvTacticalDominanceZone@@H@std@@QAE@ABQAVCvTacticalDominanceZone@@ABH@Z
_TEXT	SEGMENT
__Val1$ = 8						; size = 4
__Val2$ = 12						; size = 4
??0?$pair@PAVCvTacticalDominanceZone@@H@std@@QAE@ABQAVCvTacticalDominanceZone@@ABH@Z PROC ; std::pair<CvTacticalDominanceZone *,int>::pair<CvTacticalDominanceZone *,int>, COMDAT
; _this$ = ecx

; 50   : 		{	// construct from specified values

	mov	eax, ecx
	mov	ecx, DWORD PTR __Val1$[esp-4]
	mov	edx, DWORD PTR [ecx]
	mov	ecx, DWORD PTR __Val2$[esp-4]
	mov	DWORD PTR [eax], edx
	mov	edx, DWORD PTR [ecx]
	mov	DWORD PTR [eax+4], edx

; 51   : 		}

	ret	8
??0?$pair@PAVCvTacticalDominanceZone@@H@std@@QAE@ABQAVCvTacticalDominanceZone@@ABH@Z ENDP ; std::pair<CvTacticalDominanceZone *,int>::pair<CvTacticalDominanceZone *,int>
_TEXT	ENDS
PUBLIC	??4?$_Temp_iterator@VCvTacticalDominanceZone@@@std@@QAEAAV01@ABV01@@Z ; std::_Temp_iterator<CvTacticalDominanceZone>::operator=
; Function compile flags: /Ogtpy
; File c:\program files (x86)\microsoft visual studio 9.0\vc\include\memory
;	COMDAT ??4?$_Temp_iterator@VCvTacticalDominanceZone@@@std@@QAEAAV01@ABV01@@Z
_TEXT	SEGMENT
__Right$ = 8						; size = 4
??4?$_Temp_iterator@VCvTacticalDominanceZone@@@std@@QAEAAV01@ABV01@@Z PROC ; std::_Temp_iterator<CvTacticalDominanceZone>::operator=, COMDAT
; _this$ = ecx

; 556  : 		{	// assign _Right (share active buffer)

	mov	eax, ecx

; 557  : 		_Pbuf = _Right._Pbuf;

	mov	ecx, DWORD PTR __Right$[esp-4]
	mov	edx, DWORD PTR [ecx+16]
	mov	DWORD PTR [eax+16], edx

; 558  : 		return (*this);
; 559  : 		}

	ret	4
??4?$_Temp_iterator@VCvTacticalDominanceZone@@@std@@QAEAAV01@ABV01@@Z ENDP ; std::_Temp_iterator<CvTacticalDominanceZone>::operator=
_TEXT	ENDS
PUBLIC	??$_Advance@PAVCvTacticalDominanceZone@@H@std@@YAXAAPAVCvTacticalDominanceZone@@HUrandom_access_iterator_tag@0@@Z ; std::_Advance<CvTacticalDominanceZone *,int>
; Function compile flags: /Ogtpy
; File c:\program files (x86)\microsoft visual studio 9.0\vc\include\xutility
;	COMDAT ??$_Advance@PAVCvTacticalDominanceZone@@H@std@@YAXAAPAVCvTacticalDominanceZone@@HUrandom_access_iterator_tag@0@@Z
_TEXT	SEGMENT
__Where$ = 8						; size = 4
__Off$ = 12						; size = 4
___formal$ = 16						; size = 1
??$_Advance@PAVCvTacticalDominanceZone@@H@std@@YAXAAPAVCvTacticalDominanceZone@@HUrandom_access_iterator_tag@0@@Z PROC ; std::_Advance<CvTacticalDominanceZone *,int>, COMDAT

; 1822 : 	_Where += _Off;

	mov	ecx, DWORD PTR __Off$[esp-4]
	mov	eax, DWORD PTR __Where$[esp-4]
	imul	ecx, 76					; 0000004cH
	add	DWORD PTR [eax], ecx

; 1823 : 	}

	ret	0
??$_Advance@PAVCvTacticalDominanceZone@@H@std@@YAXAAPAVCvTacticalDominanceZone@@HUrandom_access_iterator_tag@0@@Z ENDP ; std::_Advance<CvTacticalDominanceZone *,int>
_TEXT	ENDS
PUBLIC	??$swap@VCvTacticalDominanceZone@@@std@@YAXAAVCvTacticalDominanceZone@@0@Z ; std::swap<CvTacticalDominanceZone>
; Function compile flags: /Ogtpy
; File c:\program files (x86)\microsoft visual studio 9.0\vc\include\utility
;	COMDAT ??$swap@VCvTacticalDominanceZone@@@std@@YAXAAVCvTacticalDominanceZone@@0@Z
_TEXT	SEGMENT
__Tmp$223918 = -76					; size = 76
__Left$ = 8						; size = 4
__Right$ = 12						; size = 4
??$swap@VCvTacticalDominanceZone@@@std@@YAXAAVCvTacticalDominanceZone@@0@Z PROC ; std::swap<CvTacticalDominanceZone>, COMDAT

; 18   : 	if (&_Left != &_Right)

	mov	eax, DWORD PTR __Left$[esp-4]
	mov	edx, DWORD PTR __Right$[esp-4]
	sub	esp, 76					; 0000004cH
	cmp	eax, edx
	je	SHORT $LN1@swap
	push	esi
	push	edi

; 19   : 		{	// different, worth swapping
; 20   : 		_Ty _Tmp = _Left;

	mov	ecx, 19					; 00000013H
	mov	esi, eax
	lea	edi, DWORD PTR __Tmp$223918[esp+84]
	rep movsd

; 21   : 
; 22   : 		_Left = _Right;

	mov	ecx, 19					; 00000013H
	mov	esi, edx
	mov	edi, eax
	rep movsd

; 23   : 		_Right = _Tmp;

	mov	ecx, 19					; 00000013H
	lea	esi, DWORD PTR __Tmp$223918[esp+84]
	mov	edi, edx
	rep movsd
	pop	edi
	pop	esi
$LN1@swap:

; 24   : 		}
; 25   : 	}

	add	esp, 76					; 0000004cH
	ret	0
??$swap@VCvTacticalDominanceZone@@@std@@YAXAAVCvTacticalDominanceZone@@0@Z ENDP ; std::swap<CvTacticalDominanceZone>
_TEXT	ENDS
PUBLIC	??$_Iter_random@PAVCvTacticalDominanceZone@@V?$_Temp_iterator@VCvTacticalDominanceZone@@@std@@@std@@YA?AUforward_iterator_tag@0@ABQAVCvTacticalDominanceZone@@ABV?$_Temp_iterator@VCvTacticalDominanceZone@@@0@@Z ; std::_Iter_random<CvTacticalDominanceZone *,std::_Temp_iterator<CvTacticalDominanceZone> >
; Function compile flags: /Ogtpy
; File c:\program files (x86)\microsoft visual studio 9.0\vc\include\xutility
;	COMDAT ??$_Iter_random@PAVCvTacticalDominanceZone@@V?$_Temp_iterator@VCvTacticalDominanceZone@@@std@@@std@@YA?AUforward_iterator_tag@0@ABQAVCvTacticalDominanceZone@@ABV?$_Temp_iterator@VCvTacticalDominanceZone@@@0@@Z
_TEXT	SEGMENT
___$ReturnUdt$ = 8					; size = 4
___formal$ = 12						; size = 4
___formal$ = 16						; size = 4
??$_Iter_random@PAVCvTacticalDominanceZone@@V?$_Temp_iterator@VCvTacticalDominanceZone@@@std@@@std@@YA?AUforward_iterator_tag@0@ABQAVCvTacticalDominanceZone@@ABV?$_Temp_iterator@VCvTacticalDominanceZone@@@0@@Z PROC ; std::_Iter_random<CvTacticalDominanceZone *,std::_Temp_iterator<CvTacticalDominanceZone> >, COMDAT

; 994  : 	typename _Iter_random_helper<
; 995  : 		iterator_traits<_Iter1>::iterator_category, 
; 996  : 		iterator_traits<_Iter2>::iterator_category>::_Iter_random_cat _Cat;
; 997  : 	return (_Cat);

	mov	eax, DWORD PTR ___$ReturnUdt$[esp-4]

; 998  : 	}

	ret	0
??$_Iter_random@PAVCvTacticalDominanceZone@@V?$_Temp_iterator@VCvTacticalDominanceZone@@@std@@@std@@YA?AUforward_iterator_tag@0@ABQAVCvTacticalDominanceZone@@ABV?$_Temp_iterator@VCvTacticalDominanceZone@@@0@@Z ENDP ; std::_Iter_random<CvTacticalDominanceZone *,std::_Temp_iterator<CvTacticalDominanceZone> >
_TEXT	ENDS
PUBLIC	??$_Ptr_cat@PAVCvTacticalDominanceZone@@V?$_Temp_iterator@VCvTacticalDominanceZone@@@std@@@std@@YA?AU_Nonscalar_ptr_iterator_tag@0@AAPAVCvTacticalDominanceZone@@AAV?$_Temp_iterator@VCvTacticalDominanceZone@@@0@@Z ; std::_Ptr_cat<CvTacticalDominanceZone *,std::_Temp_iterator<CvTacticalDominanceZone> >
; Function compile flags: /Ogtpy
;	COMDAT ??$_Ptr_cat@PAVCvTacticalDominanceZone@@V?$_Temp_iterator@VCvTacticalDominanceZone@@@std@@@std@@YA?AU_Nonscalar_ptr_iterator_tag@0@AAPAVCvTacticalDominanceZone@@AAV?$_Temp_iterator@VCvTacticalDominanceZone@@@0@@Z
_TEXT	SEGMENT
__Cat$ = -1						; size = 1
___formal$ = 8						; size = 4
___formal$ = 12						; size = 4
??$_Ptr_cat@PAVCvTacticalDominanceZone@@V?$_Temp_iterator@VCvTacticalDominanceZone@@@std@@@std@@YA?AU_Nonscalar_ptr_iterator_tag@0@AAPAVCvTacticalDominanceZone@@AAV?$_Temp_iterator@VCvTacticalDominanceZone@@@0@@Z PROC ; std::_Ptr_cat<CvTacticalDominanceZone *,std::_Temp_iterator<CvTacticalDominanceZone> >, COMDAT

; 1509 : 	{

	push	ecx

; 1510 : 	typename _Ptr_cat_helper<_T1, _T2>::_Ptr_cat _Cat;
; 1511 : 	return (_Cat);

	mov	al, BYTE PTR __Cat$[esp+4]

; 1512 : 	}

	pop	ecx
	ret	0
??$_Ptr_cat@PAVCvTacticalDominanceZone@@V?$_Temp_iterator@VCvTacticalDominanceZone@@@std@@@std@@YA?AU_Nonscalar_ptr_iterator_tag@0@AAPAVCvTacticalDominanceZone@@AAV?$_Temp_iterator@VCvTacticalDominanceZone@@@0@@Z ENDP ; std::_Ptr_cat<CvTacticalDominanceZone *,std::_Temp_iterator<CvTacticalDominanceZone> >
_TEXT	ENDS
PUBLIC	??$_Iter_random@PAVCvTacticalDominanceZone@@PAV1@PAV1@@std@@YA?AUrandom_access_iterator_tag@0@ABQAVCvTacticalDominanceZone@@00@Z ; std::_Iter_random<CvTacticalDominanceZone *,CvTacticalDominanceZone *,CvTacticalDominanceZone *>
; Function compile flags: /Ogtpy
;	COMDAT ??$_Iter_random@PAVCvTacticalDominanceZone@@PAV1@PAV1@@std@@YA?AUrandom_access_iterator_tag@0@ABQAVCvTacticalDominanceZone@@00@Z
_TEXT	SEGMENT
___$ReturnUdt$ = 8					; size = 4
___formal$ = 12						; size = 4
___formal$ = 16						; size = 4
___formal$ = 20						; size = 4
??$_Iter_random@PAVCvTacticalDominanceZone@@PAV1@PAV1@@std@@YA?AUrandom_access_iterator_tag@0@ABQAVCvTacticalDominanceZone@@00@Z PROC ; std::_Iter_random<CvTacticalDominanceZone *,CvTacticalDominanceZone *,CvTacticalDominanceZone *>, COMDAT

; 1007 : 	typename _Iter_random_helper3<
; 1008 : 		iterator_traits<_Iter1>::iterator_category, 
; 1009 : 		iterator_traits<_Iter2>::iterator_category,
; 1010 : 		iterator_traits<_Iter3>::iterator_category>::_Iter_random_cat _Cat;
; 1011 : 	return (_Cat);

	mov	eax, DWORD PTR ___$ReturnUdt$[esp-4]

; 1012 : 	}

	ret	0
??$_Iter_random@PAVCvTacticalDominanceZone@@PAV1@PAV1@@std@@YA?AUrandom_access_iterator_tag@0@ABQAVCvTacticalDominanceZone@@00@Z ENDP ; std::_Iter_random<CvTacticalDominanceZone *,CvTacticalDominanceZone *,CvTacticalDominanceZone *>
_TEXT	ENDS
PUBLIC	??D?$_Temp_iterator@VCvTacticalDominanceZone@@@std@@QAEAAV01@XZ ; std::_Temp_iterator<CvTacticalDominanceZone>::operator*
; Function compile flags: /Ogtpy
; File c:\program files (x86)\microsoft visual studio 9.0\vc\include\memory
;	COMDAT ??D?$_Temp_iterator@VCvTacticalDominanceZone@@@std@@QAEAAV01@XZ
_TEXT	SEGMENT
??D?$_Temp_iterator@VCvTacticalDominanceZone@@@std@@QAEAAV01@XZ PROC ; std::_Temp_iterator<CvTacticalDominanceZone>::operator*, COMDAT
; _this$ = ecx

; 576  : 		{	// pretend to return designated value

	mov	eax, ecx

; 577  : 		return (*this);
; 578  : 		}

	ret	0
??D?$_Temp_iterator@VCvTacticalDominanceZone@@@std@@QAEAAV01@XZ ENDP ; std::_Temp_iterator<CvTacticalDominanceZone>::operator*
_TEXT	ENDS
PUBLIC	??E?$_Temp_iterator@VCvTacticalDominanceZone@@@std@@QAEAAV01@XZ ; std::_Temp_iterator<CvTacticalDominanceZone>::operator++
; Function compile flags: /Ogtpy
;	COMDAT ??E?$_Temp_iterator@VCvTacticalDominanceZone@@@std@@QAEAAV01@XZ
_TEXT	SEGMENT
??E?$_Temp_iterator@VCvTacticalDominanceZone@@@std@@QAEAAV01@XZ PROC ; std::_Temp_iterator<CvTacticalDominanceZone>::operator++, COMDAT
; _this$ = ecx

; 581  : 		{	// pretend to preincrement

	mov	eax, ecx

; 582  : 		return (*this);
; 583  : 		}

	ret	0
??E?$_Temp_iterator@VCvTacticalDominanceZone@@@std@@QAEAAV01@XZ ENDP ; std::_Temp_iterator<CvTacticalDominanceZone>::operator++
_TEXT	ENDS
PUBLIC	??$_Iter_random@PAVCvTacticalDominanceZone@@PAV1@@std@@YA?AUrandom_access_iterator_tag@0@ABQAVCvTacticalDominanceZone@@0@Z ; std::_Iter_random<CvTacticalDominanceZone *,CvTacticalDominanceZone *>
; Function compile flags: /Ogtpy
; File c:\program files (x86)\microsoft visual studio 9.0\vc\include\xutility
;	COMDAT ??$_Iter_random@PAVCvTacticalDominanceZone@@PAV1@@std@@YA?AUrandom_access_iterator_tag@0@ABQAVCvTacticalDominanceZone@@0@Z
_TEXT	SEGMENT
___$ReturnUdt$ = 8					; size = 4
___formal$ = 12						; size = 4
___formal$ = 16						; size = 4
??$_Iter_random@PAVCvTacticalDominanceZone@@PAV1@@std@@YA?AUrandom_access_iterator_tag@0@ABQAVCvTacticalDominanceZone@@0@Z PROC ; std::_Iter_random<CvTacticalDominanceZone *,CvTacticalDominanceZone *>, COMDAT

; 994  : 	typename _Iter_random_helper<
; 995  : 		iterator_traits<_Iter1>::iterator_category, 
; 996  : 		iterator_traits<_Iter2>::iterator_category>::_Iter_random_cat _Cat;
; 997  : 	return (_Cat);

	mov	eax, DWORD PTR ___$ReturnUdt$[esp-4]

; 998  : 	}

	ret	0
??$_Iter_random@PAVCvTacticalDominanceZone@@PAV1@@std@@YA?AUrandom_access_iterator_tag@0@ABQAVCvTacticalDominanceZone@@0@Z ENDP ; std::_Iter_random<CvTacticalDominanceZone *,CvTacticalDominanceZone *>
_TEXT	ENDS
PUBLIC	??$_Ptr_cat@PAVCvTacticalDominanceZone@@PAV1@@std@@YA?AU_Nonscalar_ptr_iterator_tag@0@AAPAVCvTacticalDominanceZone@@0@Z ; std::_Ptr_cat<CvTacticalDominanceZone *,CvTacticalDominanceZone *>
; Function compile flags: /Ogtpy
;	COMDAT ??$_Ptr_cat@PAVCvTacticalDominanceZone@@PAV1@@std@@YA?AU_Nonscalar_ptr_iterator_tag@0@AAPAVCvTacticalDominanceZone@@0@Z
_TEXT	SEGMENT
__Cat$ = -1						; size = 1
___formal$ = 8						; size = 4
___formal$ = 12						; size = 4
??$_Ptr_cat@PAVCvTacticalDominanceZone@@PAV1@@std@@YA?AU_Nonscalar_ptr_iterator_tag@0@AAPAVCvTacticalDominanceZone@@0@Z PROC ; std::_Ptr_cat<CvTacticalDominanceZone *,CvTacticalDominanceZone *>, COMDAT

; 1509 : 	{

	push	ecx

; 1510 : 	typename _Ptr_cat_helper<_T1, _T2>::_Ptr_cat _Cat;
; 1511 : 	return (_Cat);

	mov	al, BYTE PTR __Cat$[esp+4]

; 1512 : 	}

	pop	ecx
	ret	0
??$_Ptr_cat@PAVCvTacticalDominanceZone@@PAV1@@std@@YA?AU_Nonscalar_ptr_iterator_tag@0@AAPAVCvTacticalDominanceZone@@0@Z ENDP ; std::_Ptr_cat<CvTacticalDominanceZone *,CvTacticalDominanceZone *>
_TEXT	ENDS
PUBLIC	??$_Copy_backward_opt@PAVCvTacticalDominanceZone@@PAV1@Urandom_access_iterator_tag@std@@@std@@YAPAVCvTacticalDominanceZone@@PAV1@00Urandom_access_iterator_tag@0@U_Nonscalar_ptr_iterator_tag@0@U_Range_checked_iterator_tag@0@@Z ; std::_Copy_backward_opt<CvTacticalDominanceZone *,CvTacticalDominanceZone *,std::random_access_iterator_tag>
; Function compile flags: /Ogtpy
;	COMDAT ??$_Copy_backward_opt@PAVCvTacticalDominanceZone@@PAV1@Urandom_access_iterator_tag@std@@@std@@YAPAVCvTacticalDominanceZone@@PAV1@00Urandom_access_iterator_tag@0@U_Nonscalar_ptr_iterator_tag@0@U_Range_checked_iterator_tag@0@@Z
_TEXT	SEGMENT
__First$ = 8						; size = 4
__Last$ = 12						; size = 4
__Dest$ = 16						; size = 4
___formal$ = 20						; size = 1
___formal$ = 24						; size = 1
___formal$ = 28						; size = 1
??$_Copy_backward_opt@PAVCvTacticalDominanceZone@@PAV1@Urandom_access_iterator_tag@std@@@std@@YAPAVCvTacticalDominanceZone@@PAV1@00Urandom_access_iterator_tag@0@U_Nonscalar_ptr_iterator_tag@0@U_Range_checked_iterator_tag@0@@Z PROC ; std::_Copy_backward_opt<CvTacticalDominanceZone *,CvTacticalDominanceZone *,std::random_access_iterator_tag>, COMDAT

; 2674 : 	_DEBUG_RANGE(_First, _Last);
; 2675 : 	while (_First != _Last)

	mov	edx, DWORD PTR __Last$[esp-4]
	mov	eax, DWORD PTR __Dest$[esp-4]
	push	ebx
	mov	ebx, DWORD PTR __First$[esp]
	cmp	ebx, edx
	je	SHORT $LN1@Copy_backw
	push	esi
	push	edi
$LL2@Copy_backw:

; 2676 : 		*--_Dest = *--_Last;

	sub	edx, 76					; 0000004cH
	sub	eax, 76					; 0000004cH
	mov	ecx, 19					; 00000013H
	mov	esi, edx
	mov	edi, eax
	rep movsd
	cmp	edx, ebx
	jne	SHORT $LL2@Copy_backw
	pop	edi
	pop	esi
$LN1@Copy_backw:
	pop	ebx

; 2677 : 	return (_Dest);
; 2678 : 	}

	ret	0
??$_Copy_backward_opt@PAVCvTacticalDominanceZone@@PAV1@Urandom_access_iterator_tag@std@@@std@@YAPAVCvTacticalDominanceZone@@PAV1@00Urandom_access_iterator_tag@0@U_Nonscalar_ptr_iterator_tag@0@U_Range_checked_iterator_tag@0@@Z ENDP ; std::_Copy_backward_opt<CvTacticalDominanceZone *,CvTacticalDominanceZone *,std::random_access_iterator_tag>
_TEXT	ENDS
PUBLIC	??$_Copy_opt@PAVCvTacticalDominanceZone@@PAV1@Urandom_access_iterator_tag@std@@@std@@YAPAVCvTacticalDominanceZone@@PAV1@00Urandom_access_iterator_tag@0@U_Nonscalar_ptr_iterator_tag@0@U_Range_checked_iterator_tag@0@@Z ; std::_Copy_opt<CvTacticalDominanceZone *,CvTacticalDominanceZone *,std::random_access_iterator_tag>
; Function compile flags: /Ogtpy
;	COMDAT ??$_Copy_opt@PAVCvTacticalDominanceZone@@PAV1@Urandom_access_iterator_tag@std@@@std@@YAPAVCvTacticalDominanceZone@@PAV1@00Urandom_access_iterator_tag@0@U_Nonscalar_ptr_iterator_tag@0@U_Range_checked_iterator_tag@0@@Z
_TEXT	SEGMENT
__First$ = 8						; size = 4
__Last$ = 12						; size = 4
__Dest$ = 16						; size = 4
___formal$ = 20						; size = 1
___formal$ = 24						; size = 1
___formal$ = 28						; size = 1
??$_Copy_opt@PAVCvTacticalDominanceZone@@PAV1@Urandom_access_iterator_tag@std@@@std@@YAPAVCvTacticalDominanceZone@@PAV1@00Urandom_access_iterator_tag@0@U_Nonscalar_ptr_iterator_tag@0@U_Range_checked_iterator_tag@0@@Z PROC ; std::_Copy_opt<CvTacticalDominanceZone *,CvTacticalDominanceZone *,std::random_access_iterator_tag>, COMDAT

; 2470 : 	_DEBUG_RANGE(_First, _Last);
; 2471 : 	for (; _First != _Last; ++_Dest, ++_First)

	mov	edx, DWORD PTR __First$[esp-4]
	mov	eax, DWORD PTR __Dest$[esp-4]
	push	ebx
	mov	ebx, DWORD PTR __Last$[esp]
	cmp	edx, ebx
	je	SHORT $LN1@Copy_opt
	push	esi
	push	edi
$LL3@Copy_opt:

; 2472 : 		*_Dest = *_First;

	mov	esi, edx
	mov	edi, eax
	add	edx, 76					; 0000004cH
	mov	ecx, 19					; 00000013H
	add	eax, 76					; 0000004cH
	rep movsd
	cmp	edx, ebx
	jne	SHORT $LL3@Copy_opt
	pop	edi
	pop	esi
$LN1@Copy_opt:
	pop	ebx

; 2473 : 	return (_Dest);
; 2474 : 	}

	ret	0
??$_Copy_opt@PAVCvTacticalDominanceZone@@PAV1@Urandom_access_iterator_tag@std@@@std@@YAPAVCvTacticalDominanceZone@@PAV1@00Urandom_access_iterator_tag@0@U_Nonscalar_ptr_iterator_tag@0@U_Range_checked_iterator_tag@0@@Z ENDP ; std::_Copy_opt<CvTacticalDominanceZone *,CvTacticalDominanceZone *,std::random_access_iterator_tag>
_TEXT	ENDS
PUBLIC	??$_Construct@VCvTacticalDominanceZone@@V1@@std@@YAXPAVCvTacticalDominanceZone@@ABV1@@Z ; std::_Construct<CvTacticalDominanceZone,CvTacticalDominanceZone>
; Function compile flags: /Ogtpy
; File c:\program files (x86)\microsoft visual studio 9.0\vc\include\xmemory
;	COMDAT ??$_Construct@VCvTacticalDominanceZone@@V1@@std@@YAXPAVCvTacticalDominanceZone@@ABV1@@Z
_TEXT	SEGMENT
__Ptr$ = 8						; size = 4
__Val$ = 12						; size = 4
??$_Construct@VCvTacticalDominanceZone@@V1@@std@@YAXPAVCvTacticalDominanceZone@@ABV1@@Z PROC ; std::_Construct<CvTacticalDominanceZone,CvTacticalDominanceZone>, COMDAT

; 50   : 	{	// construct object at _Ptr with value _Val

	push	edi

; 51   : 	void _FARQ *_Vptr = _Ptr;
; 52   : 	::new (_Vptr) _T1(_Val);

	mov	edi, DWORD PTR __Ptr$[esp]
	test	edi, edi
	je	SHORT $LN3@Construct
	push	esi
	mov	esi, DWORD PTR __Val$[esp+4]
	mov	ecx, 19					; 00000013H
	rep movsd
	pop	esi
$LN3@Construct:
	pop	edi

; 53   : 	}

	ret	0
??$_Construct@VCvTacticalDominanceZone@@V1@@std@@YAXPAVCvTacticalDominanceZone@@ABV1@@Z ENDP ; std::_Construct<CvTacticalDominanceZone,CvTacticalDominanceZone>
_TEXT	ENDS
PUBLIC	??$_Iter_random@PAVCvTacticalDominanceZone@@PAV1@V?$_Temp_iterator@VCvTacticalDominanceZone@@@std@@@std@@YA?AUforward_iterator_tag@0@ABQAVCvTacticalDominanceZone@@0ABV?$_Temp_iterator@VCvTacticalDominanceZone@@@0@@Z ; std::_Iter_random<CvTacticalDominanceZone *,CvTacticalDominanceZone *,std::_Temp_iterator<CvTacticalDominanceZone> >
; Function compile flags: /Ogtpy
; File c:\program files (x86)\microsoft visual studio 9.0\vc\include\xutility
;	COMDAT ??$_Iter_random@PAVCvTacticalDominanceZone@@PAV1@V?$_Temp_iterator@VCvTacticalDominanceZone@@@std@@@std@@YA?AUforward_iterator_tag@0@ABQAVCvTacticalDominanceZone@@0ABV?$_Temp_iterator@VCvTacticalDominanceZone@@@0@@Z
_TEXT	SEGMENT
___$ReturnUdt$ = 8					; size = 4
___formal$ = 12						; size = 4
___formal$ = 16						; size = 4
___formal$ = 20						; size = 4
??$_Iter_random@PAVCvTacticalDominanceZone@@PAV1@V?$_Temp_iterator@VCvTacticalDominanceZone@@@std@@@std@@YA?AUforward_iterator_tag@0@ABQAVCvTacticalDominanceZone@@0ABV?$_Temp_iterator@VCvTacticalDominanceZone@@@0@@Z PROC ; std::_Iter_random<CvTacticalDominanceZone *,CvTacticalDominanceZone *,std::_Temp_iterator<CvTacticalDominanceZone> >, COMDAT

; 1007 : 	typename _Iter_random_helper3<
; 1008 : 		iterator_traits<_Iter1>::iterator_category, 
; 1009 : 		iterator_traits<_Iter2>::iterator_category,
; 1010 : 		iterator_traits<_Iter3>::iterator_category>::_Iter_random_cat _Cat;
; 1011 : 	return (_Cat);

	mov	eax, DWORD PTR ___$ReturnUdt$[esp-4]

; 1012 : 	}

	ret	0
??$_Iter_random@PAVCvTacticalDominanceZone@@PAV1@V?$_Temp_iterator@VCvTacticalDominanceZone@@@std@@@std@@YA?AUforward_iterator_tag@0@ABQAVCvTacticalDominanceZone@@0ABV?$_Temp_iterator@VCvTacticalDominanceZone@@@0@@Z ENDP ; std::_Iter_random<CvTacticalDominanceZone *,CvTacticalDominanceZone *,std::_Temp_iterator<CvTacticalDominanceZone> >
_TEXT	ENDS
PUBLIC	??$_Rotate@PAVCvTacticalDominanceZone@@HV1@@std@@YAXPAVCvTacticalDominanceZone@@00PAH0@Z ; std::_Rotate<CvTacticalDominanceZone *,int,CvTacticalDominanceZone>
; Function compile flags: /Ogtpy
; File c:\program files (x86)\microsoft visual studio 9.0\vc\include\algorithm
;	COMDAT ??$_Rotate@PAVCvTacticalDominanceZone@@HV1@@std@@YAXPAVCvTacticalDominanceZone@@00PAH0@Z
_TEXT	SEGMENT
tv257 = -88						; size = 4
tv172 = -84						; size = 4
__Next$224154 = -80					; size = 4
__Holeval$224155 = -76					; size = 76
__First$ = 8						; size = 4
__Count$ = 12						; size = 4
__Mid$ = 12						; size = 4
__Last$ = 16						; size = 4
___formal$ = 20						; size = 4
___formal$ = 24						; size = 4
??$_Rotate@PAVCvTacticalDominanceZone@@HV1@@std@@YAXPAVCvTacticalDominanceZone@@00PAH0@Z PROC ; std::_Rotate<CvTacticalDominanceZone *,int,CvTacticalDominanceZone>, COMDAT

; 1679 : 	{	// rotate [_First, _Last), random-access iterators

	sub	esp, 88					; 00000058H

; 1680 : 	_DEBUG_RANGE(_First, _Mid);
; 1681 : 	_DEBUG_RANGE(_Mid, _Last);
; 1682 : 	_Diff _Shift = _Mid - _First;

	mov	ecx, DWORD PTR __Mid$[esp+84]
	push	ebp
	push	esi
	push	edi
	mov	edi, DWORD PTR __First$[esp+96]
	sub	ecx, edi
	mov	eax, 1808407283				; 6bca1af3H
	imul	ecx

; 1683 : 	_Diff _Count = _Last - _First;

	mov	ecx, DWORD PTR __Last$[esp+96]
	sar	edx, 5
	mov	ebp, edx
	sub	ecx, edi
	shr	ebp, 31					; 0000001fH
	add	ebp, edx
	mov	eax, 1808407283				; 6bca1af3H
	imul	ecx
	sar	edx, 5
	mov	ecx, edx
	shr	ecx, 31					; 0000001fH
	add	ecx, edx
	mov	eax, ecx
	mov	DWORD PTR __Count$[esp+96], eax

; 1684 : 
; 1685 : 	for (_Diff _Factor = _Shift; _Factor != 0; )

	mov	esi, ebp
	test	ebp, ebp
	je	SHORT $LN7@Rotate
$LL21@Rotate:

; 1686 : 		{	// find subcycle count as GCD of shift count and length
; 1687 : 		_Diff _Tmp = _Count % _Factor;

	cdq
	idiv	esi

; 1688 : 		_Count = _Factor, _Factor = _Tmp;

	mov	DWORD PTR __Count$[esp+96], esi
	mov	eax, DWORD PTR __Count$[esp+96]
	mov	esi, edx
	test	edx, edx
	jne	SHORT $LL21@Rotate
$LN7@Rotate:

; 1689 : 		}
; 1690 : 
; 1691 : 	if (_Count < _Last - _First)

	cmp	eax, ecx
	jge	$LN3@Rotate

; 1692 : 		for (; 0 < _Count; --_Count)

	test	eax, eax
	jle	$LN3@Rotate
	push	ebx
	mov	edx, eax
	mov	ebx, ebp
	imul	edx, 76					; 0000004cH
	imul	ebx, 76					; 0000004cH
	add	edx, edi
	mov	DWORD PTR tv172[esp+104], ebx
	mov	DWORD PTR tv257[esp+104], edx
	jmp	SHORT $LN5@Rotate
	npad	4
$LL22@Rotate:
	mov	ebx, DWORD PTR tv172[esp+104]
$LN5@Rotate:

; 1693 : 			{	// rotate each subcycle
; 1694 : 			_RanIt _Hole = _First + _Count;
; 1695 : 			_RanIt _Next = _Hole;
; 1696 : 			_Ty _Holeval = *_Hole;

	mov	ecx, 19					; 00000013H
	mov	esi, edx
	lea	edi, DWORD PTR __Holeval$224155[esp+104]
	rep movsd

; 1697 : 			_RanIt _Next1 = _Next + _Shift == _Last ? _First : _Next + _Shift;

	lea	ecx, DWORD PTR [edx+ebx]
	mov	ebx, DWORD PTR __First$[esp+100]
	mov	eax, edx
	cmp	ecx, DWORD PTR __Last$[esp+100]
	je	SHORT $LN12@Rotate
	mov	ebx, ecx
$LN12@Rotate:

; 1698 : 			while (_Next1 != _Hole)

	cmp	ebx, edx
	je	SHORT $LN1@Rotate
$LL2@Rotate:

; 1699 : 				{	// percolate elements back around subcycle
; 1700 : 				*_Next = *_Next1;

	mov	edi, eax
	mov	ecx, 19					; 00000013H
	mov	esi, ebx
	rep movsd

; 1701 : 				_Next = _Next1;
; 1702 : 				_Next1 = _Shift < _Last - _Next1 ? _Next1 + _Shift
; 1703 : 					: _First + (_Shift - (_Last - _Next1));

	mov	ecx, DWORD PTR __Last$[esp+100]
	sub	ecx, ebx
	mov	eax, 1808407283				; 6bca1af3H
	imul	ecx
	sar	edx, 5
	mov	eax, edx
	shr	eax, 31					; 0000001fH
	add	eax, edx
	cmp	ebp, eax
	mov	DWORD PTR __Next$224154[esp+104], ebx
	jge	SHORT $LN13@Rotate
	add	ebx, DWORD PTR tv172[esp+104]
	jmp	SHORT $LN14@Rotate
$LN13@Rotate:
	mov	ebx, ebp
	sub	ebx, eax
	imul	ebx, 76					; 0000004cH
	add	ebx, DWORD PTR __First$[esp+100]
$LN14@Rotate:
	mov	eax, DWORD PTR __Next$224154[esp+104]
	cmp	ebx, DWORD PTR tv257[esp+104]
	jne	SHORT $LL2@Rotate

; 1698 : 			while (_Next1 != _Hole)

	mov	edx, DWORD PTR tv257[esp+104]
$LN1@Rotate:

; 1704 : 				}
; 1705 : 			*_Next = _Holeval;

	mov	edi, eax
	mov	eax, DWORD PTR __Count$[esp+100]
	dec	eax
	sub	edx, 76					; 0000004cH
	mov	ecx, 19					; 00000013H
	lea	esi, DWORD PTR __Holeval$224155[esp+104]
	rep movsd
	mov	DWORD PTR __Count$[esp+100], eax
	mov	DWORD PTR tv257[esp+104], edx
	test	eax, eax
	jg	$LL22@Rotate
	pop	ebx
$LN3@Rotate:
	pop	edi
	pop	esi
	pop	ebp

; 1706 : 			}
; 1707 : 	}

	add	esp, 88					; 00000058H
	ret	0
??$_Rotate@PAVCvTacticalDominanceZone@@HV1@@std@@YAXPAVCvTacticalDominanceZone@@00PAH0@Z ENDP ; std::_Rotate<CvTacticalDominanceZone *,int,CvTacticalDominanceZone>
_TEXT	ENDS
PUBLIC	??0CvString@@QAE@XZ				; CvString::CvString
EXTRN	__imp_??0?$basic_string@DU?$char_traits@D@std@@V?$allocator@D@2@@std@@QAE@XZ:PROC
; Function compile flags: /Ogtpy
; File c:\users\enormousapplepie\documents\github\lekmod\lekmod_dll\cvgamecoredllutil\include\cvstring.h
;	COMDAT ??0CvString@@QAE@XZ
_TEXT	SEGMENT
??0CvString@@QAE@XZ PROC				; CvString::CvString, COMDAT
; _this$ = ecx

; 23   : 	CvString() {}

	push	esi
	mov	esi, ecx
	call	DWORD PTR __imp_??0?$basic_string@DU?$char_traits@D@std@@V?$allocator@D@2@@std@@QAE@XZ
	mov	eax, esi
	pop	esi
	ret	0
??0CvString@@QAE@XZ ENDP				; CvString::CvString
_TEXT	ENDS
PUBLIC	??1CvString@@QAE@XZ				; CvString::~CvString
EXTRN	__imp_??1?$basic_string@DU?$char_traits@D@std@@V?$allocator@D@2@@std@@QAE@XZ:PROC
; Function compile flags: /Ogtpy
;	COMDAT ??1CvString@@QAE@XZ
_TEXT	SEGMENT
??1CvString@@QAE@XZ PROC				; CvString::~CvString, COMDAT
; _this$ = ecx

; 28   : 	~CvString() {}

	jmp	DWORD PTR __imp_??1?$basic_string@DU?$char_traits@D@std@@V?$allocator@D@2@@std@@QAE@XZ
??1CvString@@QAE@XZ ENDP				; CvString::~CvString
_TEXT	ENDS
PUBLIC	??4CvString@@QAEAAV0@ABV?$basic_string@DU?$char_traits@D@std@@V?$allocator@D@2@@std@@@Z ; CvString::operator=
EXTRN	__imp_?assign@?$basic_string@DU?$char_traits@D@std@@V?$allocator@D@2@@std@@QAEAAV12@PBD@Z:PROC
EXTRN	__imp_?c_str@?$basic_string@DU?$char_traits@D@std@@V?$allocator@D@2@@std@@QBEPBDXZ:PROC
; Function compile flags: /Ogtpy
;	COMDAT ??4CvString@@QAEAAV0@ABV?$basic_string@DU?$char_traits@D@std@@V?$allocator@D@2@@std@@@Z
_TEXT	SEGMENT
_s$ = 8							; size = 4
??4CvString@@QAEAAV0@ABV?$basic_string@DU?$char_traits@D@std@@V?$allocator@D@2@@std@@@Z PROC ; CvString::operator=, COMDAT
; _this$ = ecx

; 38   : 	CvString& operator=( const std::string& s) { assign(s.c_str());	return *this; }	

	push	esi
	mov	esi, ecx
	mov	ecx, DWORD PTR _s$[esp]
	call	DWORD PTR __imp_?c_str@?$basic_string@DU?$char_traits@D@std@@V?$allocator@D@2@@std@@QBEPBDXZ
	push	eax
	mov	ecx, esi
	call	DWORD PTR __imp_?assign@?$basic_string@DU?$char_traits@D@std@@V?$allocator@D@2@@std@@QAEAAV12@PBD@Z
	mov	eax, esi
	pop	esi
	ret	4
??4CvString@@QAEAAV0@ABV?$basic_string@DU?$char_traits@D@std@@V?$allocator@D@2@@std@@@Z ENDP ; CvString::operator=
_TEXT	ENDS
PUBLIC	??_C@_00CNPNBAHC@?$AA@				; `string'
PUBLIC	?formatv@CvString@@SA_NAAV?$basic_string@DU?$char_traits@D@std@@V?$allocator@D@2@@std@@PBDPAD@Z ; CvString::formatv
EXTRN	__imp_??4?$basic_string@DU?$char_traits@D@std@@V?$allocator@D@2@@std@@QAEAAV01@PBD@Z:PROC
EXTRN	??_U@YAPAXI@Z:PROC				; operator new[]
EXTRN	__imp___vsnprintf:PROC
;	COMDAT ??_C@_00CNPNBAHC@?$AA@
CONST	SEGMENT
??_C@_00CNPNBAHC@?$AA@ DB 00H				; `string'
; Function compile flags: /Ogtpy
CONST	ENDS
;	COMDAT ?formatv@CvString@@SA_NAAV?$basic_string@DU?$char_traits@D@std@@V?$allocator@D@2@@std@@PBDPAD@Z
_TEXT	SEGMENT
_buf$ = -2048						; size = 2048
_out$ = 8						; size = 4
_fmt$ = 12						; size = 4
_args$ = 16						; size = 4
?formatv@CvString@@SA_NAAV?$basic_string@DU?$char_traits@D@std@@V?$allocator@D@2@@std@@PBDPAD@Z PROC ; CvString::formatv, COMDAT

; 191  : {

	sub	esp, 2048				; 00000800H
	push	ebx
	push	ebp

; 192  : 	char buf[2048];
; 193  : 	char * pbuf = buf;

	mov	ebp, DWORD PTR _args$[esp+2052]
	push	esi
	push	edi
	lea	edi, DWORD PTR _buf$[esp+2064]
	mov	esi, 2047				; 000007ffH
	npad	6
$LL10@formatv:

; 194  : 	int len = 0;
; 195  : 	int attempts = 0;
; 196  : 	bool success = false;
; 197  : 	const int kMaxAttempts = 40;
; 198  : 
; 199  : 	do
; 200  : 	{
; 201  : 		int maxlen = 2047+2048*attempts;
; 202  : 		len = _vsnprintf(pbuf,maxlen,fmt,args);

	mov	eax, DWORD PTR _fmt$[esp+2060]
	push	ebp
	push	eax
	push	esi
	push	edi
	mov	ebx, esi
	call	DWORD PTR __imp___vsnprintf
	add	esp, 16					; 00000010H

; 203  : 		attempts++;

	add	esi, 2048				; 00000800H

; 204  : 		success = (len>=0 && len<=maxlen);

	test	eax, eax
	jl	SHORT $LN13@formatv
	cmp	eax, ebx
	jle	SHORT $LN18@formatv
$LN13@formatv:

; 205  : 		if (!success)
; 206  : 		{
; 207  : 			if (pbuf!=buf)

	lea	ecx, DWORD PTR _buf$[esp+2064]
	xor	bl, bl
	cmp	edi, ecx
	je	SHORT $LN6@formatv

; 208  : 				delete [] pbuf;

	push	edi
	call	??_V@YAXPAX@Z				; operator delete[]
	add	esp, 4
$LN6@formatv:

; 209  : 			pbuf = new char[2048+2048*attempts];

	lea	edx, DWORD PTR [esi+1]
	push	edx
	call	??_U@YAPAXI@Z				; operator new[]
	add	esp, 4

; 210  : 		}
; 211  : 	}
; 212  : 	while (!success && attempts<kMaxAttempts);

	cmp	esi, 83967				; 000147ffH
	mov	edi, eax
	jl	SHORT $LL10@formatv

; 222  : 		out = "";

	push	OFFSET ??_C@_00CNPNBAHC@?$AA@
$LN21@formatv:
	mov	ecx, DWORD PTR _out$[esp+2064]
	call	DWORD PTR __imp_??4?$basic_string@DU?$char_traits@D@std@@V?$allocator@D@2@@std@@QAEAAV01@PBD@Z

; 223  : 
; 224  : 	if (pbuf!=buf)

	lea	eax, DWORD PTR _buf$[esp+2064]
	cmp	edi, eax
	je	SHORT $LN20@formatv

; 225  : 		delete [] pbuf;

	push	edi
	call	??_V@YAXPAX@Z				; operator delete[]
	add	esp, 4
$LN20@formatv:
	pop	edi
	pop	esi
	pop	ebp

; 226  : 
; 227  : 	return success;

	mov	al, bl
	pop	ebx

; 228  : }

	add	esp, 2048				; 00000800H
	ret	0
$LN18@formatv:

; 204  : 		success = (len>=0 && len<=maxlen);

	mov	bl, 1

; 213  : 
; 214  : 	if ( attempts==kMaxAttempts )
; 215  : 	{
; 216  : 		// dxPrintNL( "CvString::formatv - Max reallocs occurred while formatting string. Result is likely truncated!", 0 );
; 217  : 	}
; 218  : 
; 219  : 	if (success)
; 220  : 		out = pbuf;

	push	edi

; 221  : 	else

	jmp	SHORT $LN21@formatv
?formatv@CvString@@SA_NAAV?$basic_string@DU?$char_traits@D@std@@V?$allocator@D@2@@std@@PBDPAD@Z ENDP ; CvString::formatv
_TEXT	ENDS
PUBLIC	?Format@CvString@@QAAXPBDZZ			; CvString::Format
EXTRN	___CxxFrameHandler3:PROC
;	COMDAT xdata$x
xdata$x	SEGMENT
__unwindtable$?Format@CvString@@QAAXPBDZZ DD 0ffffffffH
	DD	FLAT:__unwindfunclet$?Format@CvString@@QAAXPBDZZ$0
__ehfuncinfo$?Format@CvString@@QAAXPBDZZ DD 019930522H
	DD	01H
	DD	FLAT:__unwindtable$?Format@CvString@@QAAXPBDZZ
	DD	2 DUP(00H)
	DD	2 DUP(00H)
	DD	00H
	DD	01H
; Function compile flags: /Ogtpy
xdata$x	ENDS
;	COMDAT ?Format@CvString@@QAAXPBDZZ
_TEXT	SEGMENT
_result$ = -40						; size = 28
__$EHRec$ = -12						; size = 12
_this$ = 8						; size = 4
_lpszFormat$ = 12					; size = 4
?Format@CvString@@QAAXPBDZZ PROC			; CvString::Format, COMDAT

; 269  : {

	push	-1
	push	__ehhandler$?Format@CvString@@QAAXPBDZZ
	mov	eax, DWORD PTR fs:0
	push	eax
	mov	DWORD PTR fs:0, esp
	sub	esp, 28					; 0000001cH

; 270  : 	std::string result;

	lea	ecx, DWORD PTR _result$[esp+40]
	call	DWORD PTR __imp_??0?$basic_string@DU?$char_traits@D@std@@V?$allocator@D@2@@std@@QAE@XZ

; 271  : 	va_list args;
; 272  : 	va_start(args,lpszFormat);
; 273  : 	formatv(result,lpszFormat,args);

	mov	ecx, DWORD PTR _lpszFormat$[esp+36]
	lea	eax, DWORD PTR _lpszFormat$[esp+40]
	push	eax
	push	ecx
	lea	edx, DWORD PTR _result$[esp+48]
	push	edx
	mov	DWORD PTR __$EHRec$[esp+60], 0
	call	?formatv@CvString@@SA_NAAV?$basic_string@DU?$char_traits@D@std@@V?$allocator@D@2@@std@@PBDPAD@Z ; CvString::formatv
	add	esp, 12					; 0000000cH

; 274  : 	va_end(args);
; 275  : 	*this = result;

	lea	ecx, DWORD PTR _result$[esp+40]
	call	DWORD PTR __imp_?c_str@?$basic_string@DU?$char_traits@D@std@@V?$allocator@D@2@@std@@QBEPBDXZ
	mov	ecx, DWORD PTR _this$[esp+36]
	push	eax
	call	DWORD PTR __imp_?assign@?$basic_string@DU?$char_traits@D@std@@V?$allocator@D@2@@std@@QAEAAV12@PBD@Z

; 276  : }

	lea	ecx, DWORD PTR _result$[esp+40]
	mov	DWORD PTR __$EHRec$[esp+48], -1
	call	DWORD PTR __imp_??1?$basic_string@DU?$char_traits@D@std@@V?$allocator@D@2@@std@@QAE@XZ
	mov	ecx, DWORD PTR __$EHRec$[esp+40]
	mov	DWORD PTR fs:0, ecx
	add	esp, 40					; 00000028H
	ret	0
_TEXT	ENDS
;	COMDAT text$x
text$x	SEGMENT
__unwindfunclet$?Format@CvString@@QAAXPBDZZ$0:
	lea	ecx, DWORD PTR _result$[ebp]
	jmp	DWORD PTR __imp_??1?$basic_string@DU?$char_traits@D@std@@V?$allocator@D@2@@std@@QAE@XZ
__ehhandler$?Format@CvString@@QAAXPBDZZ:
	mov	eax, OFFSET __ehfuncinfo$?Format@CvString@@QAAXPBDZZ
	jmp	___CxxFrameHandler3
text$x	ENDS
?Format@CvString@@QAAXPBDZZ ENDP			; CvString::Format
PUBLIC	?getMap@CvGlobals@@QAEAAVCvMap@@XZ		; CvGlobals::getMap
; Function compile flags: /Ogtpy
; File c:\users\enormousapplepie\documents\github\lekmod\lekmod_dll\cvgamecoredll_expansion2\cvglobals.h
;	COMDAT ?getMap@CvGlobals@@QAEAAVCvMap@@XZ
_TEXT	SEGMENT
?getMap@CvGlobals@@QAEAAVCvMap@@XZ PROC			; CvGlobals::getMap, COMDAT
; _this$ = ecx

; 175  : 		return *m_map;    // inlined for perf reasons, do not use outside of dll

	mov	eax, DWORD PTR [ecx+52]

; 176  : 	}

	ret	0
?getMap@CvGlobals@@QAEAAVCvMap@@XZ ENDP			; CvGlobals::getMap
_TEXT	ENDS
PUBLIC	?getGame@CvGlobals@@QAEAAVCvGame@@XZ		; CvGlobals::getGame
; Function compile flags: /Ogtpy
;	COMDAT ?getGame@CvGlobals@@QAEAAVCvGame@@XZ
_TEXT	SEGMENT
?getGame@CvGlobals@@QAEAAVCvGame@@XZ PROC		; CvGlobals::getGame, COMDAT
; _this$ = ecx

; 183  : 		return *m_game;    // inlined for perf reasons, do not use outside of dll

	mov	eax, DWORD PTR [ecx+48]

; 184  : 	}

	ret	0
?getGame@CvGlobals@@QAEAAVCvGame@@XZ ENDP		; CvGlobals::getGame
_TEXT	ENDS
PUBLIC	?getPlotDirectionX@CvGlobals@@QAEPAHXZ		; CvGlobals::getPlotDirectionX
; Function compile flags: /Ogtpy
;	COMDAT ?getPlotDirectionX@CvGlobals@@QAEPAHXZ
_TEXT	SEGMENT
?getPlotDirectionX@CvGlobals@@QAEPAHXZ PROC		; CvGlobals::getPlotDirectionX, COMDAT
; _this$ = ecx

; 191  : 		return m_aiPlotDirectionX;

	lea	eax, DWORD PTR [ecx+112]

; 192  : 	}

	ret	0
?getPlotDirectionX@CvGlobals@@QAEPAHXZ ENDP		; CvGlobals::getPlotDirectionX
_TEXT	ENDS
PUBLIC	?getPlotDirectionY@CvGlobals@@QAEPAHXZ		; CvGlobals::getPlotDirectionY
; Function compile flags: /Ogtpy
;	COMDAT ?getPlotDirectionY@CvGlobals@@QAEPAHXZ
_TEXT	SEGMENT
?getPlotDirectionY@CvGlobals@@QAEPAHXZ PROC		; CvGlobals::getPlotDirectionY, COMDAT
; _this$ = ecx

; 195  : 		return m_aiPlotDirectionY;

	lea	eax, DWORD PTR [ecx+136]

; 196  : 	}

	ret	0
?getPlotDirectionY@CvGlobals@@QAEPAHXZ ENDP		; CvGlobals::getPlotDirectionY
_TEXT	ENDS
PUBLIC	?getAI_TACTICAL_MAP_UNIT_STRENGTH_MULTIPLIER@CvGlobals@@QAEHXZ ; CvGlobals::getAI_TACTICAL_MAP_UNIT_STRENGTH_MULTIPLIER
; Function compile flags: /Ogtpy
;	COMDAT ?getAI_TACTICAL_MAP_UNIT_STRENGTH_MULTIPLIER@CvGlobals@@QAEHXZ
_TEXT	SEGMENT
?getAI_TACTICAL_MAP_UNIT_STRENGTH_MULTIPLIER@CvGlobals@@QAEHXZ PROC ; CvGlobals::getAI_TACTICAL_MAP_UNIT_STRENGTH_MULTIPLIER, COMDAT
; _this$ = ecx

; 1505 : 		return m_iAI_TACTICAL_MAP_UNIT_STRENGTH_MULTIPLIER;

	mov	eax, DWORD PTR [ecx+2440]

; 1506 : 	}

	ret	0
?getAI_TACTICAL_MAP_UNIT_STRENGTH_MULTIPLIER@CvGlobals@@QAEHXZ ENDP ; CvGlobals::getAI_TACTICAL_MAP_UNIT_STRENGTH_MULTIPLIER
_TEXT	ENDS
PUBLIC	?getAI_TACTICAL_MAP_DOMINANCE_PERCENTAGE@CvGlobals@@QAEHXZ ; CvGlobals::getAI_TACTICAL_MAP_DOMINANCE_PERCENTAGE
; Function compile flags: /Ogtpy
;	COMDAT ?getAI_TACTICAL_MAP_DOMINANCE_PERCENTAGE@CvGlobals@@QAEHXZ
_TEXT	SEGMENT
?getAI_TACTICAL_MAP_DOMINANCE_PERCENTAGE@CvGlobals@@QAEHXZ PROC ; CvGlobals::getAI_TACTICAL_MAP_DOMINANCE_PERCENTAGE, COMDAT
; _this$ = ecx

; 1509 : 		return m_iAI_TACTICAL_MAP_DOMINANCE_PERCENTAGE;

	mov	eax, DWORD PTR [ecx+2444]

; 1510 : 	}

	ret	0
?getAI_TACTICAL_MAP_DOMINANCE_PERCENTAGE@CvGlobals@@QAEHXZ ENDP ; CvGlobals::getAI_TACTICAL_MAP_DOMINANCE_PERCENTAGE
_TEXT	ENDS
PUBLIC	?getAI_TACTICAL_RECRUIT_RANGE@CvGlobals@@QAEHXZ	; CvGlobals::getAI_TACTICAL_RECRUIT_RANGE
; Function compile flags: /Ogtpy
;	COMDAT ?getAI_TACTICAL_RECRUIT_RANGE@CvGlobals@@QAEHXZ
_TEXT	SEGMENT
?getAI_TACTICAL_RECRUIT_RANGE@CvGlobals@@QAEHXZ PROC	; CvGlobals::getAI_TACTICAL_RECRUIT_RANGE, COMDAT
; _this$ = ecx

; 1525 : 		return m_iAI_TACTICAL_RECRUIT_RANGE;

	mov	eax, DWORD PTR [ecx+2460]

; 1526 : 	}

	ret	0
?getAI_TACTICAL_RECRUIT_RANGE@CvGlobals@@QAEHXZ ENDP	; CvGlobals::getAI_TACTICAL_RECRUIT_RANGE
_TEXT	ENDS
PUBLIC	?getMAX_CITY_HIT_POINTS@CvGlobals@@QAEHXZ	; CvGlobals::getMAX_CITY_HIT_POINTS
; Function compile flags: /Ogtpy
;	COMDAT ?getMAX_CITY_HIT_POINTS@CvGlobals@@QAEHXZ
_TEXT	SEGMENT
?getMAX_CITY_HIT_POINTS@CvGlobals@@QAEHXZ PROC		; CvGlobals::getMAX_CITY_HIT_POINTS, COMDAT
; _this$ = ecx

; 6501 : 		return m_iMAX_CITY_HIT_POINTS;

	mov	eax, DWORD PTR [ecx+7372]

; 6502 : 	}

	ret	0
?getMAX_CITY_HIT_POINTS@CvGlobals@@QAEHXZ ENDP		; CvGlobals::getMAX_CITY_HIT_POINTS
_TEXT	ENDS
PUBLIC	?getPlayer@CvPlayerAI@@SAAAV1@W4PlayerTypes@@@Z	; CvPlayerAI::getPlayer
EXTRN	?m_aPlayers@CvPlayerAI@@1PAV1@A:DWORD		; CvPlayerAI::m_aPlayers
; Function compile flags: /Ogtpy
; File c:\users\enormousapplepie\documents\github\lekmod\lekmod_dll\cvgamecoredll_expansion2\cvplayerai.h
;	COMDAT ?getPlayer@CvPlayerAI@@SAAAV1@W4PlayerTypes@@@Z
_TEXT	SEGMENT
_ePlayer$ = 8						; size = 4
?getPlayer@CvPlayerAI@@SAAAV1@W4PlayerTypes@@@Z PROC	; CvPlayerAI::getPlayer, COMDAT

; 28   : 		CvAssertMsg(ePlayer != NO_PLAYER, "Player is not assigned a valid value");
; 29   : 		CvAssertMsg(ePlayer < MAX_PLAYERS, "Player is not assigned a valid value");
; 30   : 		return m_aPlayers[ePlayer];

	mov	eax, DWORD PTR _ePlayer$[esp-4]
	imul	eax, 63236				; 0000f704H
	add	eax, DWORD PTR ?m_aPlayers@CvPlayerAI@@1PAV1@A ; CvPlayerAI::m_aPlayers

; 31   : 	}

	ret	0
?getPlayer@CvPlayerAI@@SAAAV1@W4PlayerTypes@@@Z ENDP	; CvPlayerAI::getPlayer
_TEXT	ENDS
PUBLIC	?isCity@CvPlot@@QBE_NXZ				; CvPlot::isCity
EXTRN	?getCity@CvPlayer@@QAEPAVCvCity@@H@Z:PROC	; CvPlayer::getCity
; Function compile flags: /Ogtpy
; File c:\users\enormousapplepie\documents\github\lekmod\lekmod_dll\cvgamecoredll_expansion2\cvplot.h
;	COMDAT ?isCity@CvPlot@@QBE_NXZ
_TEXT	SEGMENT
?isCity@CvPlot@@QBE_NXZ PROC				; CvPlot::isCity, COMDAT
; _this$ = ecx

; 245  : 		if((m_plotCity.eOwner >= 0) && m_plotCity.eOwner < MAX_PLAYERS)

	mov	eax, DWORD PTR [ecx+104]
	test	eax, eax
	jl	SHORT $LN1@isCity
	cmp	eax, 64					; 00000040H
	jge	SHORT $LN1@isCity

; 246  : 			return (GET_PLAYER((PlayerTypes)m_plotCity.eOwner).getCity(m_plotCity.iID)) != NULL;

	mov	ecx, DWORD PTR [ecx+108]
	imul	eax, 63236				; 0000f704H
	add	eax, DWORD PTR ?m_aPlayers@CvPlayerAI@@1PAV1@A ; CvPlayerAI::m_aPlayers
	push	ecx
	mov	ecx, eax
	call	?getCity@CvPlayer@@QAEPAVCvCity@@H@Z	; CvPlayer::getCity
	neg	eax
	sbb	eax, eax
	neg	eax

; 249  : 	}

	ret	0
$LN1@isCity:

; 247  : 
; 248  : 		return false;

	xor	al, al

; 249  : 	}

	ret	0
?isCity@CvPlot@@QBE_NXZ ENDP				; CvPlot::isCity
_TEXT	ENDS
PUBLIC	?getX@CvPlot@@QBEHXZ				; CvPlot::getX
; Function compile flags: /Ogtpy
;	COMDAT ?getX@CvPlot@@QBEHXZ
_TEXT	SEGMENT
?getX@CvPlot@@QBEHXZ PROC				; CvPlot::getX, COMDAT
; _this$ = ecx

; 307  : 		return m_iX;

	movsx	eax, WORD PTR [ecx]

; 308  : 	}

	ret	0
?getX@CvPlot@@QBEHXZ ENDP				; CvPlot::getX
_TEXT	ENDS
PUBLIC	?getY@CvPlot@@QBEHXZ				; CvPlot::getY
; Function compile flags: /Ogtpy
;	COMDAT ?getY@CvPlot@@QBEHXZ
_TEXT	SEGMENT
?getY@CvPlot@@QBEHXZ PROC				; CvPlot::getY, COMDAT
; _this$ = ecx

; 312  : 		return m_iY;

	movsx	eax, WORD PTR [ecx+2]

; 313  : 	}

	ret	0
?getY@CvPlot@@QBEHXZ ENDP				; CvPlot::getY
_TEXT	ENDS
PUBLIC	?getArea@CvPlot@@QBEHXZ				; CvPlot::getArea
; Function compile flags: /Ogtpy
;	COMDAT ?getArea@CvPlot@@QBEHXZ
_TEXT	SEGMENT
?getArea@CvPlot@@QBEHXZ PROC				; CvPlot::getArea, COMDAT
; _this$ = ecx

; 324  : 		return m_iArea;

	mov	eax, DWORD PTR [ecx+356]

; 325  : 	}

	ret	0
?getArea@CvPlot@@QBEHXZ ENDP				; CvPlot::getArea
_TEXT	ENDS
PUBLIC	?getOwner@CvPlot@@QBE?AW4PlayerTypes@@XZ	; CvPlot::getOwner
; Function compile flags: /Ogtpy
;	COMDAT ?getOwner@CvPlot@@QBE?AW4PlayerTypes@@XZ
_TEXT	SEGMENT
?getOwner@CvPlot@@QBE?AW4PlayerTypes@@XZ PROC		; CvPlot::getOwner, COMDAT
; _this$ = ecx

; 387  : 		return (PlayerTypes)m_eOwner;

	movsx	eax, BYTE PTR [ecx+4]

; 388  : 	}

	ret	0
?getOwner@CvPlot@@QBE?AW4PlayerTypes@@XZ ENDP		; CvPlot::getOwner
_TEXT	ENDS
PUBLIC	?isWater@CvPlot@@QBE_NXZ			; CvPlot::isWater
; Function compile flags: /Ogtpy
;	COMDAT ?isWater@CvPlot@@QBE_NXZ
_TEXT	SEGMENT
?isWater@CvPlot@@QBE_NXZ PROC				; CvPlot::isWater, COMDAT
; _this$ = ecx

; 409  : 		return (PlotTypes)m_ePlotType == PLOT_OCEAN;

	xor	eax, eax
	cmp	BYTE PTR [ecx+5], 3
	sete	al

; 410  : 	};

	ret	0
?isWater@CvPlot@@QBE_NXZ ENDP				; CvPlot::isWater
_TEXT	ENDS
PUBLIC	?isMountain@CvPlot@@QBE_NXZ			; CvPlot::isMountain
; Function compile flags: /Ogtpy
;	COMDAT ?isMountain@CvPlot@@QBE_NXZ
_TEXT	SEGMENT
?isMountain@CvPlot@@QBE_NXZ PROC			; CvPlot::isMountain, COMDAT
; _this$ = ecx

; 422  : 		return (PlotTypes)m_ePlotType == PLOT_MOUNTAIN;

	xor	eax, eax
	cmp	BYTE PTR [ecx+5], al
	sete	al

; 423  : 	};

	ret	0
?isMountain@CvPlot@@QBE_NXZ ENDP			; CvPlot::isMountain
_TEXT	ENDS
PUBLIC	?isImpassable@CvPlot@@QBE_NXZ			; CvPlot::isImpassable
; Function compile flags: /Ogtpy
;	COMDAT ?isImpassable@CvPlot@@QBE_NXZ
_TEXT	SEGMENT
?isImpassable@CvPlot@@QBE_NXZ PROC			; CvPlot::isImpassable, COMDAT
; _this$ = ecx

; 444  : 		return m_bIsImpassable;

	mov	al, BYTE PTR [ecx+462]
	shr	al, 7

; 445  : 	}

	ret	0
?isImpassable@CvPlot@@QBE_NXZ ENDP			; CvPlot::isImpassable
_TEXT	ENDS
PUBLIC	?getVisibilityCount@CvPlot@@QBEHW4TeamTypes@@@Z	; CvPlot::getVisibilityCount
; Function compile flags: /Ogtpy
;	COMDAT ?getVisibilityCount@CvPlot@@QBEHW4TeamTypes@@@Z
_TEXT	SEGMENT
_eTeam$ = 8						; size = 4
?getVisibilityCount@CvPlot@@QBEHW4TeamTypes@@@Z PROC	; CvPlot::getVisibilityCount, COMDAT
; _this$ = ecx

; 588  : 		CvAssertMsg(eTeam >= 0, "eTeam is expected to be non-negative (invalid Index)");
; 589  : 		CvAssertMsg(eTeam < MAX_TEAMS, "eTeam is expected to be within maximum bounds (invalid Index)");
; 590  : 
; 591  : 		return m_aiVisibilityCount[eTeam];

	mov	eax, DWORD PTR [ecx+156]
	mov	ecx, DWORD PTR _eTeam$[esp-4]
	movsx	eax, WORD PTR [eax+ecx*2]

; 592  : 	}

	ret	4
?getVisibilityCount@CvPlot@@QBEHW4TeamTypes@@@Z ENDP	; CvPlot::getVisibilityCount
_TEXT	ENDS
PUBLIC	?GetBit@PlotBoolField@CvPlot@@QBE_NI@Z		; CvPlot::PlotBoolField::GetBit
; Function compile flags: /Ogtpy
;	COMDAT ?GetBit@PlotBoolField@CvPlot@@QBE_NI@Z
_TEXT	SEGMENT
_uiEntry$ = 8						; size = 4
?GetBit@PlotBoolField@CvPlot@@QBE_NI@Z PROC		; CvPlot::PlotBoolField::GetBit, COMDAT
; _this$ = ecx

; 767  : 		{

	mov	edx, ecx

; 768  : 			const uint uiOffset = uiEntry/eSize;

	mov	ecx, DWORD PTR _uiEntry$[esp-4]
	push	esi
	mov	eax, ecx
	shr	eax, 5

; 769  : 			return m_dwBits[uiOffset] & 1<<(uiEntry-(eSize*uiOffset));

	mov	esi, eax
	shl	esi, 5
	sub	ecx, esi
	mov	esi, 1
	shl	esi, cl
	test	esi, DWORD PTR [edx+eax*4]
	pop	esi
	setne	al

; 770  : 		}

	ret	4
?GetBit@PlotBoolField@CvPlot@@QBE_NI@Z ENDP		; CvPlot::PlotBoolField::GetBit
_TEXT	ENDS
PUBLIC	?coordRange@@YAHHH_N@Z				; coordRange
; Function compile flags: /Ogtpy
; File c:\users\enormousapplepie\documents\github\lekmod\lekmod_dll\cvgamecoredll_expansion2\cvmap.h
;	COMDAT ?coordRange@@YAHHH_N@Z
_TEXT	SEGMENT
_iCoord$ = 8						; size = 4
_iRange$ = 12						; size = 4
_bWrap$ = 16						; size = 1
?coordRange@@YAHHH_N@Z PROC				; coordRange, COMDAT

; 88   : 	if(bWrap)

	cmp	BYTE PTR _bWrap$[esp-4], 0
	mov	eax, DWORD PTR _iCoord$[esp-4]
	je	SHORT $LN5@coordRange

; 89   : 	{
; 90   : 		if(iCoord < 0)
; 91   : 		{
; 92   : 			return (iRange + (iCoord % iRange));

	mov	ecx, DWORD PTR _iRange$[esp-4]
	test	eax, eax
	jge	SHORT $LN3@coordRange
	cdq
	idiv	ecx
	mov	eax, edx
	add	eax, ecx

; 97   : 		}
; 98   : 	}
; 99   : 
; 100  : 	return iCoord;
; 101  : }

	ret	0
$LN3@coordRange:

; 93   : 		}
; 94   : 		else if(iCoord >= iRange)

	cmp	eax, ecx
	jl	SHORT $LN5@coordRange

; 95   : 		{
; 96   : 			return (iCoord % iRange);

	cdq
	idiv	ecx
	mov	eax, edx
$LN5@coordRange:

; 97   : 		}
; 98   : 	}
; 99   : 
; 100  : 	return iCoord;
; 101  : }

	ret	0
?coordRange@@YAHHH_N@Z ENDP				; coordRange
_TEXT	ENDS
PUBLIC	?numPlots@CvMap@@QBEHXZ				; CvMap::numPlots
; Function compile flags: /Ogtpy
;	COMDAT ?numPlots@CvMap@@QBEHXZ
_TEXT	SEGMENT
?numPlots@CvMap@@QBEHXZ PROC				; CvMap::numPlots, COMDAT
; _this$ = ecx

; 170  : 		return m_iGridSize;

	mov	eax, DWORD PTR [ecx+4028]

; 171  : 	}

	ret	0
?numPlots@CvMap@@QBEHXZ ENDP				; CvMap::numPlots
_TEXT	ENDS
PUBLIC	?getGridWidth@CvMap@@QBEHXZ			; CvMap::getGridWidth
; Function compile flags: /Ogtpy
;	COMDAT ?getGridWidth@CvMap@@QBEHXZ
_TEXT	SEGMENT
?getGridWidth@CvMap@@QBEHXZ PROC			; CvMap::getGridWidth, COMDAT
; _this$ = ecx

; 198  : 		return m_iGridWidth;

	mov	eax, DWORD PTR [ecx+4020]

; 199  : 	}

	ret	0
?getGridWidth@CvMap@@QBEHXZ ENDP			; CvMap::getGridWidth
_TEXT	ENDS
PUBLIC	?getGridHeight@CvMap@@QBEHXZ			; CvMap::getGridHeight
; Function compile flags: /Ogtpy
;	COMDAT ?getGridHeight@CvMap@@QBEHXZ
_TEXT	SEGMENT
?getGridHeight@CvMap@@QBEHXZ PROC			; CvMap::getGridHeight, COMDAT
; _this$ = ecx

; 206  : 		return m_iGridHeight;

	mov	eax, DWORD PTR [ecx+4024]

; 207  : 	}

	ret	0
?getGridHeight@CvMap@@QBEHXZ ENDP			; CvMap::getGridHeight
_TEXT	ENDS
PUBLIC	?isWrapX@CvMap@@QBE_NXZ				; CvMap::isWrapX
; Function compile flags: /Ogtpy
;	COMDAT ?isWrapX@CvMap@@QBE_NXZ
_TEXT	SEGMENT
?isWrapX@CvMap@@QBE_NXZ PROC				; CvMap::isWrapX, COMDAT
; _this$ = ecx

; 228  : 		return m_bWrapX;

	mov	al, BYTE PTR [ecx+4056]

; 229  : 	}

	ret	0
?isWrapX@CvMap@@QBE_NXZ ENDP				; CvMap::isWrapX
_TEXT	ENDS
PUBLIC	?isWrapY@CvMap@@QBE_NXZ				; CvMap::isWrapY
; Function compile flags: /Ogtpy
;	COMDAT ?isWrapY@CvMap@@QBE_NXZ
_TEXT	SEGMENT
?isWrapY@CvMap@@QBE_NXZ PROC				; CvMap::isWrapY, COMDAT
; _this$ = ecx

; 233  : 		return m_bWrapY;

	mov	al, BYTE PTR [ecx+4057]

; 234  : 	}

	ret	0
?isWrapY@CvMap@@QBE_NXZ ENDP				; CvMap::isWrapY
_TEXT	ENDS
PUBLIC	?plotByIndex@CvMap@@QBEPAVCvPlot@@H@Z		; CvMap::plotByIndex
; Function compile flags: /Ogtpy
;	COMDAT ?plotByIndex@CvMap@@QBEPAVCvPlot@@H@Z
_TEXT	SEGMENT
_iIndex$ = 8						; size = 4
?plotByIndex@CvMap@@QBEPAVCvPlot@@H@Z PROC		; CvMap::plotByIndex, COMDAT
; _this$ = ecx

; 263  : 		return (((iIndex >= 0) && (iIndex < (numPlots()))) ? &(m_pMapPlots[iIndex]) : NULL);

	mov	eax, DWORD PTR _iIndex$[esp-4]
	test	eax, eax
	jl	SHORT $LN3@plotByInde
	cmp	eax, DWORD PTR [ecx+4028]
	jge	SHORT $LN3@plotByInde
	imul	eax, 484				; 000001e4H
	add	eax, DWORD PTR [ecx+4068]

; 264  : 	}

	ret	4
$LN3@plotByInde:

; 263  : 		return (((iIndex >= 0) && (iIndex < (numPlots()))) ? &(m_pMapPlots[iIndex]) : NULL);

	xor	eax, eax

; 264  : 	}

	ret	4
?plotByIndex@CvMap@@QBEPAVCvPlot@@H@Z ENDP		; CvMap::plotByIndex
_TEXT	ENDS
PUBLIC	?plotByIndexUnchecked@CvMap@@QBEPAVCvPlot@@H@Z	; CvMap::plotByIndexUnchecked
; Function compile flags: /Ogtpy
;	COMDAT ?plotByIndexUnchecked@CvMap@@QBEPAVCvPlot@@H@Z
_TEXT	SEGMENT
_iIndex$ = 8						; size = 4
?plotByIndexUnchecked@CvMap@@QBEPAVCvPlot@@H@Z PROC	; CvMap::plotByIndexUnchecked, COMDAT
; _this$ = ecx

; 268  : 		return &m_pMapPlots[iIndex];

	mov	eax, DWORD PTR _iIndex$[esp-4]
	imul	eax, 484				; 000001e4H
	add	eax, DWORD PTR [ecx+4068]

; 269  : 	}

	ret	4
?plotByIndexUnchecked@CvMap@@QBEPAVCvPlot@@H@Z ENDP	; CvMap::plotByIndexUnchecked
_TEXT	ENDS
PUBLIC	?GetBit@CvTacticalAnalysisCell@@QBE_NI@Z	; CvTacticalAnalysisCell::GetBit
; Function compile flags: /Ogtpy
; File c:\users\enormousapplepie\documents\github\lekmod\lekmod_dll\cvgamecoredll_expansion2\cvtacticalanalysismap.h
;	COMDAT ?GetBit@CvTacticalAnalysisCell@@QBE_NI@Z
_TEXT	SEGMENT
_uiFlag$ = 8						; size = 4
?GetBit@CvTacticalAnalysisCell@@QBE_NI@Z PROC		; CvTacticalAnalysisCell::GetBit, COMDAT
; _this$ = ecx

; 83   : 	FBITFLAGS(uint);

	mov	eax, DWORD PTR [ecx]
	and	eax, DWORD PTR _uiFlag$[esp-4]
	neg	eax
	sbb	eax, eax
	neg	eax
	ret	4
?GetBit@CvTacticalAnalysisCell@@QBE_NI@Z ENDP		; CvTacticalAnalysisCell::GetBit
_TEXT	ENDS
PUBLIC	?SetBit@CvTacticalAnalysisCell@@QAEXI_N@Z	; CvTacticalAnalysisCell::SetBit
; Function compile flags: /Ogtpy
;	COMDAT ?SetBit@CvTacticalAnalysisCell@@QAEXI_N@Z
_TEXT	SEGMENT
_uiFlag$ = 8						; size = 4
_bOn$ = 12						; size = 1
?SetBit@CvTacticalAnalysisCell@@QAEXI_N@Z PROC		; CvTacticalAnalysisCell::SetBit, COMDAT
; _this$ = ecx

; 83   : 	FBITFLAGS(uint);

	cmp	BYTE PTR _bOn$[esp-4], 0
	je	SHORT $LN2@SetBit
	mov	eax, DWORD PTR _uiFlag$[esp-4]
	or	DWORD PTR [ecx], eax
	ret	8
$LN2@SetBit:
	mov	edx, DWORD PTR _uiFlag$[esp-4]
	not	edx
	and	DWORD PTR [ecx], edx
	ret	8
?SetBit@CvTacticalAnalysisCell@@QAEXI_N@Z ENDP		; CvTacticalAnalysisCell::SetBit
_TEXT	ENDS
PUBLIC	?ClearFlags@CvTacticalAnalysisCell@@QAEXXZ	; CvTacticalAnalysisCell::ClearFlags
; Function compile flags: /Ogtpy
;	COMDAT ?ClearFlags@CvTacticalAnalysisCell@@QAEXXZ
_TEXT	SEGMENT
?ClearFlags@CvTacticalAnalysisCell@@QAEXXZ PROC		; CvTacticalAnalysisCell::ClearFlags, COMDAT
; _this$ = ecx

; 83   : 	FBITFLAGS(uint);

	mov	DWORD PTR [ecx], 0
	ret	0
?ClearFlags@CvTacticalAnalysisCell@@QAEXXZ ENDP		; CvTacticalAnalysisCell::ClearFlags
_TEXT	ENDS
PUBLIC	?IsRevealed@CvTacticalAnalysisCell@@QAE_NXZ	; CvTacticalAnalysisCell::IsRevealed
; Function compile flags: /Ogtpy
;	COMDAT ?IsRevealed@CvTacticalAnalysisCell@@QAE_NXZ
_TEXT	SEGMENT
?IsRevealed@CvTacticalAnalysisCell@@QAE_NXZ PROC	; CvTacticalAnalysisCell::IsRevealed, COMDAT
; _this$ = ecx

; 92   : 		return GetBit(TACTICAL_FLAG_REVEALED);

	mov	eax, DWORD PTR [ecx]
	and	eax, 1

; 93   : 	};

	ret	0
?IsRevealed@CvTacticalAnalysisCell@@QAE_NXZ ENDP	; CvTacticalAnalysisCell::IsRevealed
_TEXT	ENDS
PUBLIC	?SetRevealed@CvTacticalAnalysisCell@@QAEX_N@Z	; CvTacticalAnalysisCell::SetRevealed
; Function compile flags: /Ogtpy
;	COMDAT ?SetRevealed@CvTacticalAnalysisCell@@QAEX_N@Z
_TEXT	SEGMENT
_bNewValue$ = 8						; size = 1
?SetRevealed@CvTacticalAnalysisCell@@QAEX_N@Z PROC	; CvTacticalAnalysisCell::SetRevealed, COMDAT
; _this$ = ecx

; 96   : 		SetBit(TACTICAL_FLAG_REVEALED, bNewValue);

	cmp	BYTE PTR _bNewValue$[esp-4], 0
	je	SHORT $LN4@SetReveale
	or	DWORD PTR [ecx], 1

; 97   : 	};

	ret	4

; 96   : 		SetBit(TACTICAL_FLAG_REVEALED, bNewValue);

$LN4@SetReveale:
	and	DWORD PTR [ecx], -2			; fffffffeH

; 97   : 	};

	ret	4
?SetRevealed@CvTacticalAnalysisCell@@QAEX_N@Z ENDP	; CvTacticalAnalysisCell::SetRevealed
_TEXT	ENDS
PUBLIC	?SetVisible@CvTacticalAnalysisCell@@QAEX_N@Z	; CvTacticalAnalysisCell::SetVisible
; Function compile flags: /Ogtpy
;	COMDAT ?SetVisible@CvTacticalAnalysisCell@@QAEX_N@Z
_TEXT	SEGMENT
_bNewValue$ = 8						; size = 1
?SetVisible@CvTacticalAnalysisCell@@QAEX_N@Z PROC	; CvTacticalAnalysisCell::SetVisible, COMDAT
; _this$ = ecx

; 104  : 		SetBit(TACTICAL_FLAG_VISIBLE, bNewValue);

	cmp	BYTE PTR _bNewValue$[esp-4], 0
	je	SHORT $LN4@SetVisible
	or	DWORD PTR [ecx], 2

; 105  : 	};

	ret	4

; 104  : 		SetBit(TACTICAL_FLAG_VISIBLE, bNewValue);

$LN4@SetVisible:
	and	DWORD PTR [ecx], -3			; fffffffdH

; 105  : 	};

	ret	4
?SetVisible@CvTacticalAnalysisCell@@QAEX_N@Z ENDP	; CvTacticalAnalysisCell::SetVisible
_TEXT	ENDS
PUBLIC	?IsImpassableTerrain@CvTacticalAnalysisCell@@QAE_NXZ ; CvTacticalAnalysisCell::IsImpassableTerrain
; Function compile flags: /Ogtpy
;	COMDAT ?IsImpassableTerrain@CvTacticalAnalysisCell@@QAE_NXZ
_TEXT	SEGMENT
?IsImpassableTerrain@CvTacticalAnalysisCell@@QAE_NXZ PROC ; CvTacticalAnalysisCell::IsImpassableTerrain, COMDAT
; _this$ = ecx

; 108  : 		return GetBit(TACTICAL_FLAG_IMPASSABLE_TERRAIN);

	mov	eax, DWORD PTR [ecx]
	shr	eax, 2
	and	eax, 1

; 109  : 	};

	ret	0
?IsImpassableTerrain@CvTacticalAnalysisCell@@QAE_NXZ ENDP ; CvTacticalAnalysisCell::IsImpassableTerrain
_TEXT	ENDS
PUBLIC	?SetImpassableTerrain@CvTacticalAnalysisCell@@QAEX_N@Z ; CvTacticalAnalysisCell::SetImpassableTerrain
; Function compile flags: /Ogtpy
;	COMDAT ?SetImpassableTerrain@CvTacticalAnalysisCell@@QAEX_N@Z
_TEXT	SEGMENT
_bNewValue$ = 8						; size = 1
?SetImpassableTerrain@CvTacticalAnalysisCell@@QAEX_N@Z PROC ; CvTacticalAnalysisCell::SetImpassableTerrain, COMDAT
; _this$ = ecx

; 112  : 		SetBit(TACTICAL_FLAG_IMPASSABLE_TERRAIN, bNewValue);

	cmp	BYTE PTR _bNewValue$[esp-4], 0
	je	SHORT $LN4@SetImpassa
	or	DWORD PTR [ecx], 4

; 113  : 	};

	ret	4

; 112  : 		SetBit(TACTICAL_FLAG_IMPASSABLE_TERRAIN, bNewValue);

$LN4@SetImpassa:
	and	DWORD PTR [ecx], -5			; fffffffbH

; 113  : 	};

	ret	4
?SetImpassableTerrain@CvTacticalAnalysisCell@@QAEX_N@Z ENDP ; CvTacticalAnalysisCell::SetImpassableTerrain
_TEXT	ENDS
PUBLIC	?IsImpassableTerritory@CvTacticalAnalysisCell@@QAE_NXZ ; CvTacticalAnalysisCell::IsImpassableTerritory
; Function compile flags: /Ogtpy
;	COMDAT ?IsImpassableTerritory@CvTacticalAnalysisCell@@QAE_NXZ
_TEXT	SEGMENT
?IsImpassableTerritory@CvTacticalAnalysisCell@@QAE_NXZ PROC ; CvTacticalAnalysisCell::IsImpassableTerritory, COMDAT
; _this$ = ecx

; 116  : 		return GetBit(TACTICAL_FLAG_IMPASSABLE_TERRITORY);

	mov	eax, DWORD PTR [ecx]
	shr	eax, 3
	and	eax, 1

; 117  : 	};

	ret	0
?IsImpassableTerritory@CvTacticalAnalysisCell@@QAE_NXZ ENDP ; CvTacticalAnalysisCell::IsImpassableTerritory
_TEXT	ENDS
PUBLIC	?SetImpassableTerritory@CvTacticalAnalysisCell@@QAEX_N@Z ; CvTacticalAnalysisCell::SetImpassableTerritory
; Function compile flags: /Ogtpy
;	COMDAT ?SetImpassableTerritory@CvTacticalAnalysisCell@@QAEX_N@Z
_TEXT	SEGMENT
_bNewValue$ = 8						; size = 1
?SetImpassableTerritory@CvTacticalAnalysisCell@@QAEX_N@Z PROC ; CvTacticalAnalysisCell::SetImpassableTerritory, COMDAT
; _this$ = ecx

; 120  : 		SetBit(TACTICAL_FLAG_IMPASSABLE_TERRITORY, bNewValue);

	cmp	BYTE PTR _bNewValue$[esp-4], 0
	je	SHORT $LN4@SetImpassa@2
	or	DWORD PTR [ecx], 8

; 121  : 	};

	ret	4

; 120  : 		SetBit(TACTICAL_FLAG_IMPASSABLE_TERRITORY, bNewValue);

$LN4@SetImpassa@2:
	and	DWORD PTR [ecx], -9			; fffffff7H

; 121  : 	};

	ret	4
?SetImpassableTerritory@CvTacticalAnalysisCell@@QAEX_N@Z ENDP ; CvTacticalAnalysisCell::SetImpassableTerritory
_TEXT	ENDS
PUBLIC	?SetNotVisibleToEnemy@CvTacticalAnalysisCell@@QAEX_N@Z ; CvTacticalAnalysisCell::SetNotVisibleToEnemy
; Function compile flags: /Ogtpy
;	COMDAT ?SetNotVisibleToEnemy@CvTacticalAnalysisCell@@QAEX_N@Z
_TEXT	SEGMENT
_bNewValue$ = 8						; size = 1
?SetNotVisibleToEnemy@CvTacticalAnalysisCell@@QAEX_N@Z PROC ; CvTacticalAnalysisCell::SetNotVisibleToEnemy, COMDAT
; _this$ = ecx

; 128  : 		SetBit(TACTICAL_FLAG_NOT_VISIBLE_TO_ENEMY, bNewValue);

	cmp	BYTE PTR _bNewValue$[esp-4], 0
	je	SHORT $LN4@SetNotVisi
	or	DWORD PTR [ecx], 16			; 00000010H

; 129  : 	};

	ret	4

; 128  : 		SetBit(TACTICAL_FLAG_NOT_VISIBLE_TO_ENEMY, bNewValue);

$LN4@SetNotVisi:
	and	DWORD PTR [ecx], -17			; ffffffefH

; 129  : 	};

	ret	4
?SetNotVisibleToEnemy@CvTacticalAnalysisCell@@QAEX_N@Z ENDP ; CvTacticalAnalysisCell::SetNotVisibleToEnemy
_TEXT	ENDS
PUBLIC	?IsSubjectToAttack@CvTacticalAnalysisCell@@QAE_NXZ ; CvTacticalAnalysisCell::IsSubjectToAttack
; Function compile flags: /Ogtpy
;	COMDAT ?IsSubjectToAttack@CvTacticalAnalysisCell@@QAE_NXZ
_TEXT	SEGMENT
?IsSubjectToAttack@CvTacticalAnalysisCell@@QAE_NXZ PROC	; CvTacticalAnalysisCell::IsSubjectToAttack, COMDAT
; _this$ = ecx

; 132  : 		return GetBit(TACTICAL_FLAG_SUBJECT_TO_ENEMY_ATTACK);

	mov	eax, DWORD PTR [ecx]
	shr	eax, 5
	and	eax, 1

; 133  : 	};

	ret	0
?IsSubjectToAttack@CvTacticalAnalysisCell@@QAE_NXZ ENDP	; CvTacticalAnalysisCell::IsSubjectToAttack
_TEXT	ENDS
PUBLIC	?SetSubjectToAttack@CvTacticalAnalysisCell@@QAEX_N@Z ; CvTacticalAnalysisCell::SetSubjectToAttack
; Function compile flags: /Ogtpy
;	COMDAT ?SetSubjectToAttack@CvTacticalAnalysisCell@@QAEX_N@Z
_TEXT	SEGMENT
_bNewValue$ = 8						; size = 1
?SetSubjectToAttack@CvTacticalAnalysisCell@@QAEX_N@Z PROC ; CvTacticalAnalysisCell::SetSubjectToAttack, COMDAT
; _this$ = ecx

; 136  : 		SetBit(TACTICAL_FLAG_SUBJECT_TO_ENEMY_ATTACK, bNewValue);

	cmp	BYTE PTR _bNewValue$[esp-4], 0
	je	SHORT $LN4@SetSubject
	or	DWORD PTR [ecx], 32			; 00000020H

; 137  : 	};

	ret	4

; 136  : 		SetBit(TACTICAL_FLAG_SUBJECT_TO_ENEMY_ATTACK, bNewValue);

$LN4@SetSubject:
	and	DWORD PTR [ecx], -33			; ffffffdfH

; 137  : 	};

	ret	4
?SetSubjectToAttack@CvTacticalAnalysisCell@@QAEX_N@Z ENDP ; CvTacticalAnalysisCell::SetSubjectToAttack
_TEXT	ENDS
PUBLIC	?SetEnemyCanMovePast@CvTacticalAnalysisCell@@QAEX_N@Z ; CvTacticalAnalysisCell::SetEnemyCanMovePast
; Function compile flags: /Ogtpy
;	COMDAT ?SetEnemyCanMovePast@CvTacticalAnalysisCell@@QAEX_N@Z
_TEXT	SEGMENT
_bNewValue$ = 8						; size = 1
?SetEnemyCanMovePast@CvTacticalAnalysisCell@@QAEX_N@Z PROC ; CvTacticalAnalysisCell::SetEnemyCanMovePast, COMDAT
; _this$ = ecx

; 144  : 		SetBit(TACTICAL_FLAG_ENEMY_CAN_REACH_WITH_MOVES, bNewValue);

	cmp	BYTE PTR _bNewValue$[esp-4], 0
	je	SHORT $LN4@SetEnemyCa
	or	DWORD PTR [ecx], 64			; 00000040H

; 145  : 	};

	ret	4

; 144  : 		SetBit(TACTICAL_FLAG_ENEMY_CAN_REACH_WITH_MOVES, bNewValue);

$LN4@SetEnemyCa:
	and	DWORD PTR [ecx], -65			; ffffffbfH

; 145  : 	};

	ret	4
?SetEnemyCanMovePast@CvTacticalAnalysisCell@@QAEX_N@Z ENDP ; CvTacticalAnalysisCell::SetEnemyCanMovePast
_TEXT	ENDS
PUBLIC	?IsFriendlyTurnEndTile@CvTacticalAnalysisCell@@QAE_NXZ ; CvTacticalAnalysisCell::IsFriendlyTurnEndTile
; Function compile flags: /Ogtpy
;	COMDAT ?IsFriendlyTurnEndTile@CvTacticalAnalysisCell@@QAE_NXZ
_TEXT	SEGMENT
?IsFriendlyTurnEndTile@CvTacticalAnalysisCell@@QAE_NXZ PROC ; CvTacticalAnalysisCell::IsFriendlyTurnEndTile, COMDAT
; _this$ = ecx

; 148  : 		return GetBit(TACTICAL_FLAG_FRIENDLY_TURN_END_TILE);

	mov	eax, DWORD PTR [ecx]
	shr	eax, 7
	and	eax, 1

; 149  : 	};

	ret	0
?IsFriendlyTurnEndTile@CvTacticalAnalysisCell@@QAE_NXZ ENDP ; CvTacticalAnalysisCell::IsFriendlyTurnEndTile
_TEXT	ENDS
PUBLIC	?IsFriendlyCity@CvTacticalAnalysisCell@@QAE_NXZ	; CvTacticalAnalysisCell::IsFriendlyCity
; Function compile flags: /Ogtpy
;	COMDAT ?IsFriendlyCity@CvTacticalAnalysisCell@@QAE_NXZ
_TEXT	SEGMENT
?IsFriendlyCity@CvTacticalAnalysisCell@@QAE_NXZ PROC	; CvTacticalAnalysisCell::IsFriendlyCity, COMDAT
; _this$ = ecx

; 156  : 		return GetBit(TACTICAL_FLAG_FRIENDLY_CITY);

	mov	eax, DWORD PTR [ecx]
	shr	eax, 8
	and	eax, 1

; 157  : 	};

	ret	0
?IsFriendlyCity@CvTacticalAnalysisCell@@QAE_NXZ ENDP	; CvTacticalAnalysisCell::IsFriendlyCity
_TEXT	ENDS
PUBLIC	?SetFriendlyCity@CvTacticalAnalysisCell@@QAEX_N@Z ; CvTacticalAnalysisCell::SetFriendlyCity
; Function compile flags: /Ogtpy
;	COMDAT ?SetFriendlyCity@CvTacticalAnalysisCell@@QAEX_N@Z
_TEXT	SEGMENT
_bNewValue$ = 8						; size = 1
?SetFriendlyCity@CvTacticalAnalysisCell@@QAEX_N@Z PROC	; CvTacticalAnalysisCell::SetFriendlyCity, COMDAT
; _this$ = ecx

; 160  : 		SetBit(TACTICAL_FLAG_FRIENDLY_CITY, bNewValue);

	cmp	BYTE PTR _bNewValue$[esp-4], 0
	je	SHORT $LN4@SetFriendl
	or	DWORD PTR [ecx], 256			; 00000100H

; 161  : 	};

	ret	4

; 160  : 		SetBit(TACTICAL_FLAG_FRIENDLY_CITY, bNewValue);

$LN4@SetFriendl:
	and	DWORD PTR [ecx], -257			; fffffeffH

; 161  : 	};

	ret	4
?SetFriendlyCity@CvTacticalAnalysisCell@@QAEX_N@Z ENDP	; CvTacticalAnalysisCell::SetFriendlyCity
_TEXT	ENDS
PUBLIC	?IsEnemyCity@CvTacticalAnalysisCell@@QAE_NXZ	; CvTacticalAnalysisCell::IsEnemyCity
; Function compile flags: /Ogtpy
;	COMDAT ?IsEnemyCity@CvTacticalAnalysisCell@@QAE_NXZ
_TEXT	SEGMENT
?IsEnemyCity@CvTacticalAnalysisCell@@QAE_NXZ PROC	; CvTacticalAnalysisCell::IsEnemyCity, COMDAT
; _this$ = ecx

; 164  : 		return GetBit(TACTICAL_FLAG_ENEMY_CITY);

	mov	eax, DWORD PTR [ecx]
	shr	eax, 9
	and	eax, 1

; 165  : 	};

	ret	0
?IsEnemyCity@CvTacticalAnalysisCell@@QAE_NXZ ENDP	; CvTacticalAnalysisCell::IsEnemyCity
_TEXT	ENDS
PUBLIC	?SetEnemyCity@CvTacticalAnalysisCell@@QAEX_N@Z	; CvTacticalAnalysisCell::SetEnemyCity
; Function compile flags: /Ogtpy
;	COMDAT ?SetEnemyCity@CvTacticalAnalysisCell@@QAEX_N@Z
_TEXT	SEGMENT
_bNewValue$ = 8						; size = 1
?SetEnemyCity@CvTacticalAnalysisCell@@QAEX_N@Z PROC	; CvTacticalAnalysisCell::SetEnemyCity, COMDAT
; _this$ = ecx

; 168  : 		SetBit(TACTICAL_FLAG_ENEMY_CITY, bNewValue);

	cmp	BYTE PTR _bNewValue$[esp-4], 0
	je	SHORT $LN4@SetEnemyCi
	or	DWORD PTR [ecx], 512			; 00000200H

; 169  : 	};

	ret	4

; 168  : 		SetBit(TACTICAL_FLAG_ENEMY_CITY, bNewValue);

$LN4@SetEnemyCi:
	and	DWORD PTR [ecx], -513			; fffffdffH

; 169  : 	};

	ret	4
?SetEnemyCity@CvTacticalAnalysisCell@@QAEX_N@Z ENDP	; CvTacticalAnalysisCell::SetEnemyCity
_TEXT	ENDS
PUBLIC	?IsNeutralCity@CvTacticalAnalysisCell@@QAE_NXZ	; CvTacticalAnalysisCell::IsNeutralCity
; Function compile flags: /Ogtpy
;	COMDAT ?IsNeutralCity@CvTacticalAnalysisCell@@QAE_NXZ
_TEXT	SEGMENT
?IsNeutralCity@CvTacticalAnalysisCell@@QAE_NXZ PROC	; CvTacticalAnalysisCell::IsNeutralCity, COMDAT
; _this$ = ecx

; 172  : 		return GetBit(TACTICAL_FLAG_NEUTRAL_CITY);

	mov	eax, DWORD PTR [ecx]
	shr	eax, 10					; 0000000aH
	and	eax, 1

; 173  : 	};

	ret	0
?IsNeutralCity@CvTacticalAnalysisCell@@QAE_NXZ ENDP	; CvTacticalAnalysisCell::IsNeutralCity
_TEXT	ENDS
PUBLIC	?SetNeutralCity@CvTacticalAnalysisCell@@QAEX_N@Z ; CvTacticalAnalysisCell::SetNeutralCity
; Function compile flags: /Ogtpy
;	COMDAT ?SetNeutralCity@CvTacticalAnalysisCell@@QAEX_N@Z
_TEXT	SEGMENT
_bNewValue$ = 8						; size = 1
?SetNeutralCity@CvTacticalAnalysisCell@@QAEX_N@Z PROC	; CvTacticalAnalysisCell::SetNeutralCity, COMDAT
; _this$ = ecx

; 176  : 		SetBit(TACTICAL_FLAG_NEUTRAL_CITY, bNewValue);

	cmp	BYTE PTR _bNewValue$[esp-4], 0
	je	SHORT $LN4@SetNeutral
	or	DWORD PTR [ecx], 1024			; 00000400H

; 177  : 	};

	ret	4

; 176  : 		SetBit(TACTICAL_FLAG_NEUTRAL_CITY, bNewValue);

$LN4@SetNeutral:
	and	DWORD PTR [ecx], -1025			; fffffbffH

; 177  : 	};

	ret	4
?SetNeutralCity@CvTacticalAnalysisCell@@QAEX_N@Z ENDP	; CvTacticalAnalysisCell::SetNeutralCity
_TEXT	ENDS
PUBLIC	?IsWater@CvTacticalAnalysisCell@@QAE_NXZ	; CvTacticalAnalysisCell::IsWater
; Function compile flags: /Ogtpy
;	COMDAT ?IsWater@CvTacticalAnalysisCell@@QAE_NXZ
_TEXT	SEGMENT
?IsWater@CvTacticalAnalysisCell@@QAE_NXZ PROC		; CvTacticalAnalysisCell::IsWater, COMDAT
; _this$ = ecx

; 184  : 		return GetBit(TACTICAL_FLAG_WATER);

	mov	eax, DWORD PTR [ecx]
	shr	eax, 11					; 0000000bH
	and	eax, 1

; 185  : 	};

	ret	0
?IsWater@CvTacticalAnalysisCell@@QAE_NXZ ENDP		; CvTacticalAnalysisCell::IsWater
_TEXT	ENDS
PUBLIC	?SetWater@CvTacticalAnalysisCell@@QAEX_N@Z	; CvTacticalAnalysisCell::SetWater
; Function compile flags: /Ogtpy
;	COMDAT ?SetWater@CvTacticalAnalysisCell@@QAEX_N@Z
_TEXT	SEGMENT
_bNewValue$ = 8						; size = 1
?SetWater@CvTacticalAnalysisCell@@QAEX_N@Z PROC		; CvTacticalAnalysisCell::SetWater, COMDAT
; _this$ = ecx

; 188  : 		SetBit(TACTICAL_FLAG_WATER, bNewValue);

	cmp	BYTE PTR _bNewValue$[esp-4], 0
	je	SHORT $LN4@SetWater
	or	DWORD PTR [ecx], 2048			; 00000800H

; 189  : 	};

	ret	4

; 188  : 		SetBit(TACTICAL_FLAG_WATER, bNewValue);

$LN4@SetWater:
	and	DWORD PTR [ecx], -2049			; fffff7ffH

; 189  : 	};

	ret	4
?SetWater@CvTacticalAnalysisCell@@QAEX_N@Z ENDP		; CvTacticalAnalysisCell::SetWater
_TEXT	ENDS
PUBLIC	?SetOcean@CvTacticalAnalysisCell@@QAEX_N@Z	; CvTacticalAnalysisCell::SetOcean
; Function compile flags: /Ogtpy
;	COMDAT ?SetOcean@CvTacticalAnalysisCell@@QAEX_N@Z
_TEXT	SEGMENT
_bNewValue$ = 8						; size = 1
?SetOcean@CvTacticalAnalysisCell@@QAEX_N@Z PROC		; CvTacticalAnalysisCell::SetOcean, COMDAT
; _this$ = ecx

; 196  : 		SetBit(TACTICAL_FLAG_OCEAN, bNewValue);

	cmp	BYTE PTR _bNewValue$[esp-4], 0
	je	SHORT $LN4@SetOcean
	or	DWORD PTR [ecx], 4096			; 00001000H

; 197  : 	};

	ret	4

; 196  : 		SetBit(TACTICAL_FLAG_OCEAN, bNewValue);

$LN4@SetOcean:
	and	DWORD PTR [ecx], -4097			; ffffefffH

; 197  : 	};

	ret	4
?SetOcean@CvTacticalAnalysisCell@@QAEX_N@Z ENDP		; CvTacticalAnalysisCell::SetOcean
_TEXT	ENDS
PUBLIC	?SetOwnTerritory@CvTacticalAnalysisCell@@QAEX_N@Z ; CvTacticalAnalysisCell::SetOwnTerritory
; Function compile flags: /Ogtpy
;	COMDAT ?SetOwnTerritory@CvTacticalAnalysisCell@@QAEX_N@Z
_TEXT	SEGMENT
_bNewValue$ = 8						; size = 1
?SetOwnTerritory@CvTacticalAnalysisCell@@QAEX_N@Z PROC	; CvTacticalAnalysisCell::SetOwnTerritory, COMDAT
; _this$ = ecx

; 204  : 		SetBit(TACTICAL_FLAG_OWN_TERRITORY, bNewValue);

	cmp	BYTE PTR _bNewValue$[esp-4], 0
	je	SHORT $LN4@SetOwnTerr
	or	DWORD PTR [ecx], 8192			; 00002000H

; 205  : 	};

	ret	4

; 204  : 		SetBit(TACTICAL_FLAG_OWN_TERRITORY, bNewValue);

$LN4@SetOwnTerr:
	and	DWORD PTR [ecx], -8193			; ffffdfffH

; 205  : 	};

	ret	4
?SetOwnTerritory@CvTacticalAnalysisCell@@QAEX_N@Z ENDP	; CvTacticalAnalysisCell::SetOwnTerritory
_TEXT	ENDS
PUBLIC	?SetFriendlyTerritory@CvTacticalAnalysisCell@@QAEX_N@Z ; CvTacticalAnalysisCell::SetFriendlyTerritory
; Function compile flags: /Ogtpy
;	COMDAT ?SetFriendlyTerritory@CvTacticalAnalysisCell@@QAEX_N@Z
_TEXT	SEGMENT
_bNewValue$ = 8						; size = 1
?SetFriendlyTerritory@CvTacticalAnalysisCell@@QAEX_N@Z PROC ; CvTacticalAnalysisCell::SetFriendlyTerritory, COMDAT
; _this$ = ecx

; 212  : 		SetBit(TACTICAL_FLAG_FRIENDLY_TERRITORY, bNewValue);

	cmp	BYTE PTR _bNewValue$[esp-4], 0
	je	SHORT $LN4@SetFriendl@2
	or	DWORD PTR [ecx], 16384			; 00004000H

; 213  : 	};

	ret	4

; 212  : 		SetBit(TACTICAL_FLAG_FRIENDLY_TERRITORY, bNewValue);

$LN4@SetFriendl@2:
	and	DWORD PTR [ecx], -16385			; ffffbfffH

; 213  : 	};

	ret	4
?SetFriendlyTerritory@CvTacticalAnalysisCell@@QAEX_N@Z ENDP ; CvTacticalAnalysisCell::SetFriendlyTerritory
_TEXT	ENDS
PUBLIC	?SetEnemyTerritory@CvTacticalAnalysisCell@@QAEX_N@Z ; CvTacticalAnalysisCell::SetEnemyTerritory
; Function compile flags: /Ogtpy
;	COMDAT ?SetEnemyTerritory@CvTacticalAnalysisCell@@QAEX_N@Z
_TEXT	SEGMENT
_bNewValue$ = 8						; size = 1
?SetEnemyTerritory@CvTacticalAnalysisCell@@QAEX_N@Z PROC ; CvTacticalAnalysisCell::SetEnemyTerritory, COMDAT
; _this$ = ecx

; 220  : 		SetBit(TACTICAL_FLAG_ENEMY_TERRITORY, bNewValue);

	cmp	BYTE PTR _bNewValue$[esp-4], 0
	je	SHORT $LN4@SetEnemyTe
	or	DWORD PTR [ecx], 32768			; 00008000H

; 221  : 	};

	ret	4

; 220  : 		SetBit(TACTICAL_FLAG_ENEMY_TERRITORY, bNewValue);

$LN4@SetEnemyTe:
	and	DWORD PTR [ecx], -32769			; ffff7fffH

; 221  : 	};

	ret	4
?SetEnemyTerritory@CvTacticalAnalysisCell@@QAEX_N@Z ENDP ; CvTacticalAnalysisCell::SetEnemyTerritory
_TEXT	ENDS
PUBLIC	?SetUnclaimedTerritory@CvTacticalAnalysisCell@@QAEX_N@Z ; CvTacticalAnalysisCell::SetUnclaimedTerritory
; Function compile flags: /Ogtpy
;	COMDAT ?SetUnclaimedTerritory@CvTacticalAnalysisCell@@QAEX_N@Z
_TEXT	SEGMENT
_bNewValue$ = 8						; size = 1
?SetUnclaimedTerritory@CvTacticalAnalysisCell@@QAEX_N@Z PROC ; CvTacticalAnalysisCell::SetUnclaimedTerritory, COMDAT
; _this$ = ecx

; 228  : 		SetBit(TACTICAL_FLAG_UNCLAIMED_TERRITORY, bNewValue);

	cmp	BYTE PTR _bNewValue$[esp-4], 0
	je	SHORT $LN4@SetUnclaim
	or	DWORD PTR [ecx], 65536			; 00010000H

; 229  : 	};

	ret	4

; 228  : 		SetBit(TACTICAL_FLAG_UNCLAIMED_TERRITORY, bNewValue);

$LN4@SetUnclaim:
	and	DWORD PTR [ecx], -65537			; fffeffffH

; 229  : 	};

	ret	4
?SetUnclaimedTerritory@CvTacticalAnalysisCell@@QAEX_N@Z ENDP ; CvTacticalAnalysisCell::SetUnclaimedTerritory
_TEXT	ENDS
PUBLIC	?SetWithinRangeOfTarget@CvTacticalAnalysisCell@@QAEX_N@Z ; CvTacticalAnalysisCell::SetWithinRangeOfTarget
; Function compile flags: /Ogtpy
;	COMDAT ?SetWithinRangeOfTarget@CvTacticalAnalysisCell@@QAEX_N@Z
_TEXT	SEGMENT
_bNewValue$ = 8						; size = 1
?SetWithinRangeOfTarget@CvTacticalAnalysisCell@@QAEX_N@Z PROC ; CvTacticalAnalysisCell::SetWithinRangeOfTarget, COMDAT
; _this$ = ecx

; 237  : 		SetBit(TACTICAL_FLAG_WITHIN_RANGE_OF_TARGET, bNewValue);

	cmp	BYTE PTR _bNewValue$[esp-4], 0
	je	SHORT $LN4@SetWithinR
	or	DWORD PTR [ecx], 131072			; 00020000H

; 238  : 	};

	ret	4

; 237  : 		SetBit(TACTICAL_FLAG_WITHIN_RANGE_OF_TARGET, bNewValue);

$LN4@SetWithinR:
	and	DWORD PTR [ecx], -131073		; fffdffffH

; 238  : 	};

	ret	4
?SetWithinRangeOfTarget@CvTacticalAnalysisCell@@QAEX_N@Z ENDP ; CvTacticalAnalysisCell::SetWithinRangeOfTarget
_TEXT	ENDS
PUBLIC	?SetHelpsProvidesFlankBonus@CvTacticalAnalysisCell@@QAEX_N@Z ; CvTacticalAnalysisCell::SetHelpsProvidesFlankBonus
; Function compile flags: /Ogtpy
;	COMDAT ?SetHelpsProvidesFlankBonus@CvTacticalAnalysisCell@@QAEX_N@Z
_TEXT	SEGMENT
_bNewValue$ = 8						; size = 1
?SetHelpsProvidesFlankBonus@CvTacticalAnalysisCell@@QAEX_N@Z PROC ; CvTacticalAnalysisCell::SetHelpsProvidesFlankBonus, COMDAT
; _this$ = ecx

; 245  : 		SetBit(TACTICAL_FLAG_CAN_USE_TO_FLANK, bNewValue);

	cmp	BYTE PTR _bNewValue$[esp-4], 0
	je	SHORT $LN4@SetHelpsPr
	or	DWORD PTR [ecx], 262144			; 00040000H

; 246  : 	};

	ret	4

; 245  : 		SetBit(TACTICAL_FLAG_CAN_USE_TO_FLANK, bNewValue);

$LN4@SetHelpsPr:
	and	DWORD PTR [ecx], -262145		; fffbffffH

; 246  : 	};

	ret	4
?SetHelpsProvidesFlankBonus@CvTacticalAnalysisCell@@QAEX_N@Z ENDP ; CvTacticalAnalysisCell::SetHelpsProvidesFlankBonus
_TEXT	ENDS
PUBLIC	?SetSafeForDeployment@CvTacticalAnalysisCell@@QAEX_N@Z ; CvTacticalAnalysisCell::SetSafeForDeployment
; Function compile flags: /Ogtpy
;	COMDAT ?SetSafeForDeployment@CvTacticalAnalysisCell@@QAEX_N@Z
_TEXT	SEGMENT
_bNewValue$ = 8						; size = 1
?SetSafeForDeployment@CvTacticalAnalysisCell@@QAEX_N@Z PROC ; CvTacticalAnalysisCell::SetSafeForDeployment, COMDAT
; _this$ = ecx

; 253  : 		SetBit(TACTICAL_FLAG_SAFE_DEPLOYMENT, bNewValue);

	cmp	BYTE PTR _bNewValue$[esp-4], 0
	je	SHORT $LN4@SetSafeFor
	or	DWORD PTR [ecx], 524288			; 00080000H

; 254  : 	};

	ret	4

; 253  : 		SetBit(TACTICAL_FLAG_SAFE_DEPLOYMENT, bNewValue);

$LN4@SetSafeFor:
	and	DWORD PTR [ecx], -524289		; fff7ffffH

; 254  : 	};

	ret	4
?SetSafeForDeployment@CvTacticalAnalysisCell@@QAEX_N@Z ENDP ; CvTacticalAnalysisCell::SetSafeForDeployment
_TEXT	ENDS
PUBLIC	?GetEnemyMilitaryUnit@CvTacticalAnalysisCell@@QAEPAVCvUnit@@XZ ; CvTacticalAnalysisCell::GetEnemyMilitaryUnit
; Function compile flags: /Ogtpy
;	COMDAT ?GetEnemyMilitaryUnit@CvTacticalAnalysisCell@@QAEPAVCvUnit@@XZ
_TEXT	SEGMENT
?GetEnemyMilitaryUnit@CvTacticalAnalysisCell@@QAEPAVCvUnit@@XZ PROC ; CvTacticalAnalysisCell::GetEnemyMilitaryUnit, COMDAT
; _this$ = ecx

; 258  : 		return m_pEnemyMilitary;

	mov	eax, DWORD PTR [ecx+4]

; 259  : 	};

	ret	0
?GetEnemyMilitaryUnit@CvTacticalAnalysisCell@@QAEPAVCvUnit@@XZ ENDP ; CvTacticalAnalysisCell::GetEnemyMilitaryUnit
_TEXT	ENDS
PUBLIC	?SetEnemyMilitaryUnit@CvTacticalAnalysisCell@@QAEXPAVCvUnit@@@Z ; CvTacticalAnalysisCell::SetEnemyMilitaryUnit
; Function compile flags: /Ogtpy
;	COMDAT ?SetEnemyMilitaryUnit@CvTacticalAnalysisCell@@QAEXPAVCvUnit@@@Z
_TEXT	SEGMENT
_pUnit$ = 8						; size = 4
?SetEnemyMilitaryUnit@CvTacticalAnalysisCell@@QAEXPAVCvUnit@@@Z PROC ; CvTacticalAnalysisCell::SetEnemyMilitaryUnit, COMDAT
; _this$ = ecx

; 262  : 		m_pEnemyMilitary = pUnit;

	mov	eax, DWORD PTR _pUnit$[esp-4]
	mov	DWORD PTR [ecx+4], eax

; 263  : 	};

	ret	4
?SetEnemyMilitaryUnit@CvTacticalAnalysisCell@@QAEXPAVCvUnit@@@Z ENDP ; CvTacticalAnalysisCell::SetEnemyMilitaryUnit
_TEXT	ENDS
PUBLIC	?GetNeutralMilitaryUnit@CvTacticalAnalysisCell@@QAEPAVCvUnit@@XZ ; CvTacticalAnalysisCell::GetNeutralMilitaryUnit
; Function compile flags: /Ogtpy
;	COMDAT ?GetNeutralMilitaryUnit@CvTacticalAnalysisCell@@QAEPAVCvUnit@@XZ
_TEXT	SEGMENT
?GetNeutralMilitaryUnit@CvTacticalAnalysisCell@@QAEPAVCvUnit@@XZ PROC ; CvTacticalAnalysisCell::GetNeutralMilitaryUnit, COMDAT
; _this$ = ecx

; 266  : 		return m_pNeutralMilitary;

	mov	eax, DWORD PTR [ecx+12]

; 267  : 	};

	ret	0
?GetNeutralMilitaryUnit@CvTacticalAnalysisCell@@QAEPAVCvUnit@@XZ ENDP ; CvTacticalAnalysisCell::GetNeutralMilitaryUnit
_TEXT	ENDS
PUBLIC	?SetNeutralMilitaryUnit@CvTacticalAnalysisCell@@QAEXPAVCvUnit@@@Z ; CvTacticalAnalysisCell::SetNeutralMilitaryUnit
; Function compile flags: /Ogtpy
;	COMDAT ?SetNeutralMilitaryUnit@CvTacticalAnalysisCell@@QAEXPAVCvUnit@@@Z
_TEXT	SEGMENT
_pUnit$ = 8						; size = 4
?SetNeutralMilitaryUnit@CvTacticalAnalysisCell@@QAEXPAVCvUnit@@@Z PROC ; CvTacticalAnalysisCell::SetNeutralMilitaryUnit, COMDAT
; _this$ = ecx

; 270  : 		m_pNeutralMilitary = pUnit;

	mov	eax, DWORD PTR _pUnit$[esp-4]
	mov	DWORD PTR [ecx+12], eax

; 271  : 	};

	ret	4
?SetNeutralMilitaryUnit@CvTacticalAnalysisCell@@QAEXPAVCvUnit@@@Z ENDP ; CvTacticalAnalysisCell::SetNeutralMilitaryUnit
_TEXT	ENDS
PUBLIC	?GetFriendlyMilitaryUnit@CvTacticalAnalysisCell@@QAEPAVCvUnit@@XZ ; CvTacticalAnalysisCell::GetFriendlyMilitaryUnit
; Function compile flags: /Ogtpy
;	COMDAT ?GetFriendlyMilitaryUnit@CvTacticalAnalysisCell@@QAEPAVCvUnit@@XZ
_TEXT	SEGMENT
?GetFriendlyMilitaryUnit@CvTacticalAnalysisCell@@QAEPAVCvUnit@@XZ PROC ; CvTacticalAnalysisCell::GetFriendlyMilitaryUnit, COMDAT
; _this$ = ecx

; 274  : 		return m_pFriendlyMilitary;

	mov	eax, DWORD PTR [ecx+20]

; 275  : 	};

	ret	0
?GetFriendlyMilitaryUnit@CvTacticalAnalysisCell@@QAEPAVCvUnit@@XZ ENDP ; CvTacticalAnalysisCell::GetFriendlyMilitaryUnit
_TEXT	ENDS
PUBLIC	?SetFriendlyMilitaryUnit@CvTacticalAnalysisCell@@QAEXPAVCvUnit@@@Z ; CvTacticalAnalysisCell::SetFriendlyMilitaryUnit
; Function compile flags: /Ogtpy
;	COMDAT ?SetFriendlyMilitaryUnit@CvTacticalAnalysisCell@@QAEXPAVCvUnit@@@Z
_TEXT	SEGMENT
_pUnit$ = 8						; size = 4
?SetFriendlyMilitaryUnit@CvTacticalAnalysisCell@@QAEXPAVCvUnit@@@Z PROC ; CvTacticalAnalysisCell::SetFriendlyMilitaryUnit, COMDAT
; _this$ = ecx

; 278  : 		m_pFriendlyMilitary = pUnit;

	mov	eax, DWORD PTR _pUnit$[esp-4]
	mov	DWORD PTR [ecx+20], eax

; 279  : 	};

	ret	4
?SetFriendlyMilitaryUnit@CvTacticalAnalysisCell@@QAEXPAVCvUnit@@@Z ENDP ; CvTacticalAnalysisCell::SetFriendlyMilitaryUnit
_TEXT	ENDS
PUBLIC	?SetEnemyCivilianUnit@CvTacticalAnalysisCell@@QAEXPAVCvUnit@@@Z ; CvTacticalAnalysisCell::SetEnemyCivilianUnit
; Function compile flags: /Ogtpy
;	COMDAT ?SetEnemyCivilianUnit@CvTacticalAnalysisCell@@QAEXPAVCvUnit@@@Z
_TEXT	SEGMENT
_pUnit$ = 8						; size = 4
?SetEnemyCivilianUnit@CvTacticalAnalysisCell@@QAEXPAVCvUnit@@@Z PROC ; CvTacticalAnalysisCell::SetEnemyCivilianUnit, COMDAT
; _this$ = ecx

; 286  : 		m_pEnemyCivilian = pUnit;

	mov	eax, DWORD PTR _pUnit$[esp-4]
	mov	DWORD PTR [ecx+8], eax

; 287  : 	};

	ret	4
?SetEnemyCivilianUnit@CvTacticalAnalysisCell@@QAEXPAVCvUnit@@@Z ENDP ; CvTacticalAnalysisCell::SetEnemyCivilianUnit
_TEXT	ENDS
PUBLIC	?GetNeutralCivilianUnit@CvTacticalAnalysisCell@@QAEPAVCvUnit@@XZ ; CvTacticalAnalysisCell::GetNeutralCivilianUnit
; Function compile flags: /Ogtpy
;	COMDAT ?GetNeutralCivilianUnit@CvTacticalAnalysisCell@@QAEPAVCvUnit@@XZ
_TEXT	SEGMENT
?GetNeutralCivilianUnit@CvTacticalAnalysisCell@@QAEPAVCvUnit@@XZ PROC ; CvTacticalAnalysisCell::GetNeutralCivilianUnit, COMDAT
; _this$ = ecx

; 290  : 		return m_pNeutralCivilian;

	mov	eax, DWORD PTR [ecx+16]

; 291  : 	};

	ret	0
?GetNeutralCivilianUnit@CvTacticalAnalysisCell@@QAEPAVCvUnit@@XZ ENDP ; CvTacticalAnalysisCell::GetNeutralCivilianUnit
_TEXT	ENDS
PUBLIC	?SetNeutralCivilianUnit@CvTacticalAnalysisCell@@QAEXPAVCvUnit@@@Z ; CvTacticalAnalysisCell::SetNeutralCivilianUnit
; Function compile flags: /Ogtpy
;	COMDAT ?SetNeutralCivilianUnit@CvTacticalAnalysisCell@@QAEXPAVCvUnit@@@Z
_TEXT	SEGMENT
_pUnit$ = 8						; size = 4
?SetNeutralCivilianUnit@CvTacticalAnalysisCell@@QAEXPAVCvUnit@@@Z PROC ; CvTacticalAnalysisCell::SetNeutralCivilianUnit, COMDAT
; _this$ = ecx

; 294  : 		m_pNeutralCivilian = pUnit;

	mov	eax, DWORD PTR _pUnit$[esp-4]
	mov	DWORD PTR [ecx+16], eax

; 295  : 	};

	ret	4
?SetNeutralCivilianUnit@CvTacticalAnalysisCell@@QAEXPAVCvUnit@@@Z ENDP ; CvTacticalAnalysisCell::SetNeutralCivilianUnit
_TEXT	ENDS
PUBLIC	?SetFriendlyCivilianUnit@CvTacticalAnalysisCell@@QAEXPAVCvUnit@@@Z ; CvTacticalAnalysisCell::SetFriendlyCivilianUnit
; Function compile flags: /Ogtpy
;	COMDAT ?SetFriendlyCivilianUnit@CvTacticalAnalysisCell@@QAEXPAVCvUnit@@@Z
_TEXT	SEGMENT
_pUnit$ = 8						; size = 4
?SetFriendlyCivilianUnit@CvTacticalAnalysisCell@@QAEXPAVCvUnit@@@Z PROC ; CvTacticalAnalysisCell::SetFriendlyCivilianUnit, COMDAT
; _this$ = ecx

; 302  : 		m_pFriendlyCivilian = pUnit;

	mov	eax, DWORD PTR _pUnit$[esp-4]
	mov	DWORD PTR [ecx+24], eax

; 303  : 	};

	ret	4
?SetFriendlyCivilianUnit@CvTacticalAnalysisCell@@QAEXPAVCvUnit@@@Z ENDP ; CvTacticalAnalysisCell::SetFriendlyCivilianUnit
_TEXT	ENDS
PUBLIC	?SetDefenseModifier@CvTacticalAnalysisCell@@QAEXH@Z ; CvTacticalAnalysisCell::SetDefenseModifier
; Function compile flags: /Ogtpy
;	COMDAT ?SetDefenseModifier@CvTacticalAnalysisCell@@QAEXH@Z
_TEXT	SEGMENT
_iModifier$ = 8						; size = 4
?SetDefenseModifier@CvTacticalAnalysisCell@@QAEXH@Z PROC ; CvTacticalAnalysisCell::SetDefenseModifier, COMDAT
; _this$ = ecx

; 311  : 		m_iDefenseModifier = iModifier;

	mov	eax, DWORD PTR _iModifier$[esp-4]
	mov	DWORD PTR [ecx+28], eax

; 312  : 	};

	ret	4
?SetDefenseModifier@CvTacticalAnalysisCell@@QAEXH@Z ENDP ; CvTacticalAnalysisCell::SetDefenseModifier
_TEXT	ENDS
PUBLIC	?SetDeploymentScore@CvTacticalAnalysisCell@@QAEXH@Z ; CvTacticalAnalysisCell::SetDeploymentScore
; Function compile flags: /Ogtpy
;	COMDAT ?SetDeploymentScore@CvTacticalAnalysisCell@@QAEXH@Z
_TEXT	SEGMENT
_iScore$ = 8						; size = 4
?SetDeploymentScore@CvTacticalAnalysisCell@@QAEXH@Z PROC ; CvTacticalAnalysisCell::SetDeploymentScore, COMDAT
; _this$ = ecx

; 319  : 		m_iDeploymentScore = iScore;

	mov	eax, DWORD PTR _iScore$[esp-4]
	mov	DWORD PTR [ecx+32], eax

; 320  : 	};

	ret	4
?SetDeploymentScore@CvTacticalAnalysisCell@@QAEXH@Z ENDP ; CvTacticalAnalysisCell::SetDeploymentScore
_TEXT	ENDS
PUBLIC	?GetDominanceZone@CvTacticalAnalysisCell@@QBEHXZ ; CvTacticalAnalysisCell::GetDominanceZone
; Function compile flags: /Ogtpy
;	COMDAT ?GetDominanceZone@CvTacticalAnalysisCell@@QBEHXZ
_TEXT	SEGMENT
?GetDominanceZone@CvTacticalAnalysisCell@@QBEHXZ PROC	; CvTacticalAnalysisCell::GetDominanceZone, COMDAT
; _this$ = ecx

; 323  : 		return m_iDominanceZoneID;

	mov	eax, DWORD PTR [ecx+40]

; 324  : 	};

	ret	0
?GetDominanceZone@CvTacticalAnalysisCell@@QBEHXZ ENDP	; CvTacticalAnalysisCell::GetDominanceZone
_TEXT	ENDS
PUBLIC	?SetDominanceZone@CvTacticalAnalysisCell@@QAEXH@Z ; CvTacticalAnalysisCell::SetDominanceZone
; Function compile flags: /Ogtpy
;	COMDAT ?SetDominanceZone@CvTacticalAnalysisCell@@QAEXH@Z
_TEXT	SEGMENT
_iZone$ = 8						; size = 4
?SetDominanceZone@CvTacticalAnalysisCell@@QAEXH@Z PROC	; CvTacticalAnalysisCell::SetDominanceZone, COMDAT
; _this$ = ecx

; 327  : 		m_iDominanceZoneID = iZone;

	mov	eax, DWORD PTR _iZone$[esp-4]
	mov	DWORD PTR [ecx+40], eax

; 328  : 	};

	ret	4
?SetDominanceZone@CvTacticalAnalysisCell@@QAEXH@Z ENDP	; CvTacticalAnalysisCell::SetDominanceZone
_TEXT	ENDS
PUBLIC	??MCvTacticalDominanceZone@@QBE_NABV0@@Z	; CvTacticalDominanceZone::operator<
; Function compile flags: /Ogtpy
;	COMDAT ??MCvTacticalDominanceZone@@QBE_NABV0@@Z
_TEXT	SEGMENT
_zone$ = 8						; size = 4
??MCvTacticalDominanceZone@@QBE_NABV0@@Z PROC		; CvTacticalDominanceZone::operator<, COMDAT
; _this$ = ecx

; 390  : 		return (m_iZoneValue > zone.m_iZoneValue);

	mov	eax, DWORD PTR [ecx+60]
	mov	edx, DWORD PTR _zone$[esp-4]
	xor	ecx, ecx
	cmp	eax, DWORD PTR [edx+60]
	setg	cl
	mov	al, cl

; 391  : 	}

	ret	4
??MCvTacticalDominanceZone@@QBE_NABV0@@Z ENDP		; CvTacticalDominanceZone::operator<
_TEXT	ENDS
PUBLIC	?GetDominanceZoneID@CvTacticalDominanceZone@@QBEHXZ ; CvTacticalDominanceZone::GetDominanceZoneID
; Function compile flags: /Ogtpy
;	COMDAT ?GetDominanceZoneID@CvTacticalDominanceZone@@QBEHXZ
_TEXT	SEGMENT
?GetDominanceZoneID@CvTacticalDominanceZone@@QBEHXZ PROC ; CvTacticalDominanceZone::GetDominanceZoneID, COMDAT
; _this$ = ecx

; 396  : 		return m_iDominanceZoneID;

	mov	eax, DWORD PTR [ecx]

; 397  : 	};

	ret	0
?GetDominanceZoneID@CvTacticalDominanceZone@@QBEHXZ ENDP ; CvTacticalDominanceZone::GetDominanceZoneID
_TEXT	ENDS
PUBLIC	?SetDominanceZoneID@CvTacticalDominanceZone@@QAEXH@Z ; CvTacticalDominanceZone::SetDominanceZoneID
; Function compile flags: /Ogtpy
;	COMDAT ?SetDominanceZoneID@CvTacticalDominanceZone@@QAEXH@Z
_TEXT	SEGMENT
_iID$ = 8						; size = 4
?SetDominanceZoneID@CvTacticalDominanceZone@@QAEXH@Z PROC ; CvTacticalDominanceZone::SetDominanceZoneID, COMDAT
; _this$ = ecx

; 400  : 		m_iDominanceZoneID = iID;

	mov	eax, DWORD PTR _iID$[esp-4]
	mov	DWORD PTR [ecx], eax

; 401  : 	};

	ret	4
?SetDominanceZoneID@CvTacticalDominanceZone@@QAEXH@Z ENDP ; CvTacticalDominanceZone::SetDominanceZoneID
_TEXT	ENDS
PUBLIC	?GetTerritoryType@CvTacticalDominanceZone@@QBE?AW4eDominanceTerritoryTypes@@XZ ; CvTacticalDominanceZone::GetTerritoryType
; Function compile flags: /Ogtpy
;	COMDAT ?GetTerritoryType@CvTacticalDominanceZone@@QBE?AW4eDominanceTerritoryTypes@@XZ
_TEXT	SEGMENT
?GetTerritoryType@CvTacticalDominanceZone@@QBE?AW4eDominanceTerritoryTypes@@XZ PROC ; CvTacticalDominanceZone::GetTerritoryType, COMDAT
; _this$ = ecx

; 404  : 		return m_eTerritoryType;

	mov	eax, DWORD PTR [ecx+4]

; 405  : 	};

	ret	0
?GetTerritoryType@CvTacticalDominanceZone@@QBE?AW4eDominanceTerritoryTypes@@XZ ENDP ; CvTacticalDominanceZone::GetTerritoryType
_TEXT	ENDS
PUBLIC	?SetTerritoryType@CvTacticalDominanceZone@@QAEXW4eDominanceTerritoryTypes@@@Z ; CvTacticalDominanceZone::SetTerritoryType
; Function compile flags: /Ogtpy
;	COMDAT ?SetTerritoryType@CvTacticalDominanceZone@@QAEXW4eDominanceTerritoryTypes@@@Z
_TEXT	SEGMENT
_eTerritoryType$ = 8					; size = 4
?SetTerritoryType@CvTacticalDominanceZone@@QAEXW4eDominanceTerritoryTypes@@@Z PROC ; CvTacticalDominanceZone::SetTerritoryType, COMDAT
; _this$ = ecx

; 408  : 		m_eTerritoryType = eTerritoryType;

	mov	eax, DWORD PTR _eTerritoryType$[esp-4]
	mov	DWORD PTR [ecx+4], eax

; 409  : 	};

	ret	4
?SetTerritoryType@CvTacticalDominanceZone@@QAEXW4eDominanceTerritoryTypes@@@Z ENDP ; CvTacticalDominanceZone::SetTerritoryType
_TEXT	ENDS
PUBLIC	?GetDominanceFlag@CvTacticalDominanceZone@@QBE?AW4eTacticalDominanceFlags@@XZ ; CvTacticalDominanceZone::GetDominanceFlag
; Function compile flags: /Ogtpy
;	COMDAT ?GetDominanceFlag@CvTacticalDominanceZone@@QBE?AW4eTacticalDominanceFlags@@XZ
_TEXT	SEGMENT
?GetDominanceFlag@CvTacticalDominanceZone@@QBE?AW4eTacticalDominanceFlags@@XZ PROC ; CvTacticalDominanceZone::GetDominanceFlag, COMDAT
; _this$ = ecx

; 412  : 		return m_eDominanceFlag;

	mov	eax, DWORD PTR [ecx+8]

; 413  : 	};

	ret	0
?GetDominanceFlag@CvTacticalDominanceZone@@QBE?AW4eTacticalDominanceFlags@@XZ ENDP ; CvTacticalDominanceZone::GetDominanceFlag
_TEXT	ENDS
PUBLIC	?SetDominanceFlag@CvTacticalDominanceZone@@QAEXW4eTacticalDominanceFlags@@@Z ; CvTacticalDominanceZone::SetDominanceFlag
; Function compile flags: /Ogtpy
;	COMDAT ?SetDominanceFlag@CvTacticalDominanceZone@@QAEXW4eTacticalDominanceFlags@@@Z
_TEXT	SEGMENT
_eDominanceFlag$ = 8					; size = 4
?SetDominanceFlag@CvTacticalDominanceZone@@QAEXW4eTacticalDominanceFlags@@@Z PROC ; CvTacticalDominanceZone::SetDominanceFlag, COMDAT
; _this$ = ecx

; 416  : 		m_eDominanceFlag = eDominanceFlag;

	mov	eax, DWORD PTR _eDominanceFlag$[esp-4]
	mov	DWORD PTR [ecx+8], eax

; 417  : 	};

	ret	4
?SetDominanceFlag@CvTacticalDominanceZone@@QAEXW4eTacticalDominanceFlags@@@Z ENDP ; CvTacticalDominanceZone::SetDominanceFlag
_TEXT	ENDS
PUBLIC	?GetOwner@CvTacticalDominanceZone@@QBE?AW4PlayerTypes@@XZ ; CvTacticalDominanceZone::GetOwner
; Function compile flags: /Ogtpy
;	COMDAT ?GetOwner@CvTacticalDominanceZone@@QBE?AW4PlayerTypes@@XZ
_TEXT	SEGMENT
?GetOwner@CvTacticalDominanceZone@@QBE?AW4PlayerTypes@@XZ PROC ; CvTacticalDominanceZone::GetOwner, COMDAT
; _this$ = ecx

; 420  : 		return m_eOwner;

	mov	eax, DWORD PTR [ecx+12]

; 421  : 	};

	ret	0
?GetOwner@CvTacticalDominanceZone@@QBE?AW4PlayerTypes@@XZ ENDP ; CvTacticalDominanceZone::GetOwner
_TEXT	ENDS
PUBLIC	?SetOwner@CvTacticalDominanceZone@@QAEXW4PlayerTypes@@@Z ; CvTacticalDominanceZone::SetOwner
; Function compile flags: /Ogtpy
;	COMDAT ?SetOwner@CvTacticalDominanceZone@@QAEXW4PlayerTypes@@@Z
_TEXT	SEGMENT
_eOwner$ = 8						; size = 4
?SetOwner@CvTacticalDominanceZone@@QAEXW4PlayerTypes@@@Z PROC ; CvTacticalDominanceZone::SetOwner, COMDAT
; _this$ = ecx

; 424  : 		m_eOwner = eOwner;

	mov	eax, DWORD PTR _eOwner$[esp-4]
	mov	DWORD PTR [ecx+12], eax

; 425  : 	};

	ret	4
?SetOwner@CvTacticalDominanceZone@@QAEXW4PlayerTypes@@@Z ENDP ; CvTacticalDominanceZone::SetOwner
_TEXT	ENDS
PUBLIC	?GetAreaID@CvTacticalDominanceZone@@QBEHXZ	; CvTacticalDominanceZone::GetAreaID
; Function compile flags: /Ogtpy
;	COMDAT ?GetAreaID@CvTacticalDominanceZone@@QBEHXZ
_TEXT	SEGMENT
?GetAreaID@CvTacticalDominanceZone@@QBEHXZ PROC		; CvTacticalDominanceZone::GetAreaID, COMDAT
; _this$ = ecx

; 432  : 		return m_iAreaID;

	mov	eax, DWORD PTR [ecx+20]

; 433  : 	};

	ret	0
?GetAreaID@CvTacticalDominanceZone@@QBEHXZ ENDP		; CvTacticalDominanceZone::GetAreaID
_TEXT	ENDS
PUBLIC	?SetAreaID@CvTacticalDominanceZone@@QAEXH@Z	; CvTacticalDominanceZone::SetAreaID
; Function compile flags: /Ogtpy
;	COMDAT ?SetAreaID@CvTacticalDominanceZone@@QAEXH@Z
_TEXT	SEGMENT
_iID$ = 8						; size = 4
?SetAreaID@CvTacticalDominanceZone@@QAEXH@Z PROC	; CvTacticalDominanceZone::SetAreaID, COMDAT
; _this$ = ecx

; 436  : 		m_iAreaID = iID;

	mov	eax, DWORD PTR _iID$[esp-4]
	mov	DWORD PTR [ecx+20], eax

; 437  : 	};

	ret	4
?SetAreaID@CvTacticalDominanceZone@@QAEXH@Z ENDP	; CvTacticalDominanceZone::SetAreaID
_TEXT	ENDS
PUBLIC	?GetFriendlyStrength@CvTacticalDominanceZone@@QBEHXZ ; CvTacticalDominanceZone::GetFriendlyStrength
; Function compile flags: /Ogtpy
;	COMDAT ?GetFriendlyStrength@CvTacticalDominanceZone@@QBEHXZ
_TEXT	SEGMENT
?GetFriendlyStrength@CvTacticalDominanceZone@@QBEHXZ PROC ; CvTacticalDominanceZone::GetFriendlyStrength, COMDAT
; _this$ = ecx

; 440  : 		return m_iFriendlyStrength;

	mov	eax, DWORD PTR [ecx+24]

; 441  : 	};

	ret	0
?GetFriendlyStrength@CvTacticalDominanceZone@@QBEHXZ ENDP ; CvTacticalDominanceZone::GetFriendlyStrength
_TEXT	ENDS
PUBLIC	?AddFriendlyStrength@CvTacticalDominanceZone@@QAEXH@Z ; CvTacticalDominanceZone::AddFriendlyStrength
; Function compile flags: /Ogtpy
;	COMDAT ?AddFriendlyStrength@CvTacticalDominanceZone@@QAEXH@Z
_TEXT	SEGMENT
_iStrength$ = 8						; size = 4
?AddFriendlyStrength@CvTacticalDominanceZone@@QAEXH@Z PROC ; CvTacticalDominanceZone::AddFriendlyStrength, COMDAT
; _this$ = ecx

; 444  : 		m_iFriendlyStrength += iStrength;

	mov	eax, DWORD PTR _iStrength$[esp-4]
	add	DWORD PTR [ecx+24], eax

; 445  : 	};

	ret	4
?AddFriendlyStrength@CvTacticalDominanceZone@@QAEXH@Z ENDP ; CvTacticalDominanceZone::AddFriendlyStrength
_TEXT	ENDS
PUBLIC	?GetEnemyStrength@CvTacticalDominanceZone@@QBEHXZ ; CvTacticalDominanceZone::GetEnemyStrength
; Function compile flags: /Ogtpy
;	COMDAT ?GetEnemyStrength@CvTacticalDominanceZone@@QBEHXZ
_TEXT	SEGMENT
?GetEnemyStrength@CvTacticalDominanceZone@@QBEHXZ PROC	; CvTacticalDominanceZone::GetEnemyStrength, COMDAT
; _this$ = ecx

; 448  : 		return m_iEnemyStrength;

	mov	eax, DWORD PTR [ecx+28]

; 449  : 	};

	ret	0
?GetEnemyStrength@CvTacticalDominanceZone@@QBEHXZ ENDP	; CvTacticalDominanceZone::GetEnemyStrength
_TEXT	ENDS
PUBLIC	?AddEnemyStrength@CvTacticalDominanceZone@@QAEXH@Z ; CvTacticalDominanceZone::AddEnemyStrength
; Function compile flags: /Ogtpy
;	COMDAT ?AddEnemyStrength@CvTacticalDominanceZone@@QAEXH@Z
_TEXT	SEGMENT
_iStrength$ = 8						; size = 4
?AddEnemyStrength@CvTacticalDominanceZone@@QAEXH@Z PROC	; CvTacticalDominanceZone::AddEnemyStrength, COMDAT
; _this$ = ecx

; 452  : 		m_iEnemyStrength += iStrength;

	mov	eax, DWORD PTR _iStrength$[esp-4]
	add	DWORD PTR [ecx+28], eax

; 453  : 	};

	ret	4
?AddEnemyStrength@CvTacticalDominanceZone@@QAEXH@Z ENDP	; CvTacticalDominanceZone::AddEnemyStrength
_TEXT	ENDS
PUBLIC	?GetFriendlyRangedStrength@CvTacticalDominanceZone@@QBEHXZ ; CvTacticalDominanceZone::GetFriendlyRangedStrength
; Function compile flags: /Ogtpy
;	COMDAT ?GetFriendlyRangedStrength@CvTacticalDominanceZone@@QBEHXZ
_TEXT	SEGMENT
?GetFriendlyRangedStrength@CvTacticalDominanceZone@@QBEHXZ PROC ; CvTacticalDominanceZone::GetFriendlyRangedStrength, COMDAT
; _this$ = ecx

; 456  : 		return m_iFriendlyRangedStrength;

	mov	eax, DWORD PTR [ecx+32]

; 457  : 	};

	ret	0
?GetFriendlyRangedStrength@CvTacticalDominanceZone@@QBEHXZ ENDP ; CvTacticalDominanceZone::GetFriendlyRangedStrength
_TEXT	ENDS
PUBLIC	?AddFriendlyRangedStrength@CvTacticalDominanceZone@@QAEXH@Z ; CvTacticalDominanceZone::AddFriendlyRangedStrength
; Function compile flags: /Ogtpy
;	COMDAT ?AddFriendlyRangedStrength@CvTacticalDominanceZone@@QAEXH@Z
_TEXT	SEGMENT
_iRangedStrength$ = 8					; size = 4
?AddFriendlyRangedStrength@CvTacticalDominanceZone@@QAEXH@Z PROC ; CvTacticalDominanceZone::AddFriendlyRangedStrength, COMDAT
; _this$ = ecx

; 460  : 		m_iFriendlyRangedStrength += iRangedStrength;

	mov	eax, DWORD PTR _iRangedStrength$[esp-4]
	add	DWORD PTR [ecx+32], eax

; 461  : 	};

	ret	4
?AddFriendlyRangedStrength@CvTacticalDominanceZone@@QAEXH@Z ENDP ; CvTacticalDominanceZone::AddFriendlyRangedStrength
_TEXT	ENDS
PUBLIC	?GetEnemyRangedStrength@CvTacticalDominanceZone@@QBEHXZ ; CvTacticalDominanceZone::GetEnemyRangedStrength
; Function compile flags: /Ogtpy
;	COMDAT ?GetEnemyRangedStrength@CvTacticalDominanceZone@@QBEHXZ
_TEXT	SEGMENT
?GetEnemyRangedStrength@CvTacticalDominanceZone@@QBEHXZ PROC ; CvTacticalDominanceZone::GetEnemyRangedStrength, COMDAT
; _this$ = ecx

; 464  : 		return m_iEnemyRangedStrength;

	mov	eax, DWORD PTR [ecx+36]

; 465  : 	};

	ret	0
?GetEnemyRangedStrength@CvTacticalDominanceZone@@QBEHXZ ENDP ; CvTacticalDominanceZone::GetEnemyRangedStrength
_TEXT	ENDS
PUBLIC	?AddEnemyRangedStrength@CvTacticalDominanceZone@@QAEXH@Z ; CvTacticalDominanceZone::AddEnemyRangedStrength
; Function compile flags: /Ogtpy
;	COMDAT ?AddEnemyRangedStrength@CvTacticalDominanceZone@@QAEXH@Z
_TEXT	SEGMENT
_iRangedStrength$ = 8					; size = 4
?AddEnemyRangedStrength@CvTacticalDominanceZone@@QAEXH@Z PROC ; CvTacticalDominanceZone::AddEnemyRangedStrength, COMDAT
; _this$ = ecx

; 468  : 		m_iEnemyRangedStrength += iRangedStrength;

	mov	eax, DWORD PTR _iRangedStrength$[esp-4]
	add	DWORD PTR [ecx+36], eax

; 469  : 	};

	ret	4
?AddEnemyRangedStrength@CvTacticalDominanceZone@@QAEXH@Z ENDP ; CvTacticalDominanceZone::AddEnemyRangedStrength
_TEXT	ENDS
PUBLIC	?GetFriendlyUnitCount@CvTacticalDominanceZone@@QBEHXZ ; CvTacticalDominanceZone::GetFriendlyUnitCount
; Function compile flags: /Ogtpy
;	COMDAT ?GetFriendlyUnitCount@CvTacticalDominanceZone@@QBEHXZ
_TEXT	SEGMENT
?GetFriendlyUnitCount@CvTacticalDominanceZone@@QBEHXZ PROC ; CvTacticalDominanceZone::GetFriendlyUnitCount, COMDAT
; _this$ = ecx

; 472  : 		return m_iFriendlyUnitCount;

	mov	eax, DWORD PTR [ecx+40]

; 473  : 	};

	ret	0
?GetFriendlyUnitCount@CvTacticalDominanceZone@@QBEHXZ ENDP ; CvTacticalDominanceZone::GetFriendlyUnitCount
_TEXT	ENDS
PUBLIC	?AddFriendlyUnitCount@CvTacticalDominanceZone@@QAEXH@Z ; CvTacticalDominanceZone::AddFriendlyUnitCount
; Function compile flags: /Ogtpy
;	COMDAT ?AddFriendlyUnitCount@CvTacticalDominanceZone@@QAEXH@Z
_TEXT	SEGMENT
_iUnitCount$ = 8					; size = 4
?AddFriendlyUnitCount@CvTacticalDominanceZone@@QAEXH@Z PROC ; CvTacticalDominanceZone::AddFriendlyUnitCount, COMDAT
; _this$ = ecx

; 476  : 		m_iFriendlyUnitCount += iUnitCount;

	mov	eax, DWORD PTR _iUnitCount$[esp-4]
	add	DWORD PTR [ecx+40], eax

; 477  : 	};

	ret	4
?AddFriendlyUnitCount@CvTacticalDominanceZone@@QAEXH@Z ENDP ; CvTacticalDominanceZone::AddFriendlyUnitCount
_TEXT	ENDS
PUBLIC	?GetEnemyUnitCount@CvTacticalDominanceZone@@QBEHXZ ; CvTacticalDominanceZone::GetEnemyUnitCount
; Function compile flags: /Ogtpy
;	COMDAT ?GetEnemyUnitCount@CvTacticalDominanceZone@@QBEHXZ
_TEXT	SEGMENT
?GetEnemyUnitCount@CvTacticalDominanceZone@@QBEHXZ PROC	; CvTacticalDominanceZone::GetEnemyUnitCount, COMDAT
; _this$ = ecx

; 480  : 		return m_iEnemyUnitCount;

	mov	eax, DWORD PTR [ecx+44]

; 481  : 	};

	ret	0
?GetEnemyUnitCount@CvTacticalDominanceZone@@QBEHXZ ENDP	; CvTacticalDominanceZone::GetEnemyUnitCount
_TEXT	ENDS
PUBLIC	?AddEnemyUnitCount@CvTacticalDominanceZone@@QAEXH@Z ; CvTacticalDominanceZone::AddEnemyUnitCount
; Function compile flags: /Ogtpy
;	COMDAT ?AddEnemyUnitCount@CvTacticalDominanceZone@@QAEXH@Z
_TEXT	SEGMENT
_iUnitCount$ = 8					; size = 4
?AddEnemyUnitCount@CvTacticalDominanceZone@@QAEXH@Z PROC ; CvTacticalDominanceZone::AddEnemyUnitCount, COMDAT
; _this$ = ecx

; 484  : 		m_iEnemyUnitCount += iUnitCount;

	mov	eax, DWORD PTR _iUnitCount$[esp-4]
	add	DWORD PTR [ecx+44], eax

; 485  : 	};

	ret	4
?AddEnemyUnitCount@CvTacticalDominanceZone@@QAEXH@Z ENDP ; CvTacticalDominanceZone::AddEnemyUnitCount
_TEXT	ENDS
PUBLIC	?GetFriendlyRangedUnitCount@CvTacticalDominanceZone@@QBEHXZ ; CvTacticalDominanceZone::GetFriendlyRangedUnitCount
; Function compile flags: /Ogtpy
;	COMDAT ?GetFriendlyRangedUnitCount@CvTacticalDominanceZone@@QBEHXZ
_TEXT	SEGMENT
?GetFriendlyRangedUnitCount@CvTacticalDominanceZone@@QBEHXZ PROC ; CvTacticalDominanceZone::GetFriendlyRangedUnitCount, COMDAT
; _this$ = ecx

; 488  : 		return m_iFriendlyRangedUnitCount;

	mov	eax, DWORD PTR [ecx+48]

; 489  : 	};

	ret	0
?GetFriendlyRangedUnitCount@CvTacticalDominanceZone@@QBEHXZ ENDP ; CvTacticalDominanceZone::GetFriendlyRangedUnitCount
_TEXT	ENDS
PUBLIC	?AddFriendlyRangedUnitCount@CvTacticalDominanceZone@@QAEXH@Z ; CvTacticalDominanceZone::AddFriendlyRangedUnitCount
; Function compile flags: /Ogtpy
;	COMDAT ?AddFriendlyRangedUnitCount@CvTacticalDominanceZone@@QAEXH@Z
_TEXT	SEGMENT
_iUnitCount$ = 8					; size = 4
?AddFriendlyRangedUnitCount@CvTacticalDominanceZone@@QAEXH@Z PROC ; CvTacticalDominanceZone::AddFriendlyRangedUnitCount, COMDAT
; _this$ = ecx

; 492  : 		m_iFriendlyRangedUnitCount += iUnitCount;

	mov	eax, DWORD PTR _iUnitCount$[esp-4]
	add	DWORD PTR [ecx+48], eax

; 493  : 	};

	ret	4
?AddFriendlyRangedUnitCount@CvTacticalDominanceZone@@QAEXH@Z ENDP ; CvTacticalDominanceZone::AddFriendlyRangedUnitCount
_TEXT	ENDS
PUBLIC	?GetEnemyRangedUnitCount@CvTacticalDominanceZone@@QBEHXZ ; CvTacticalDominanceZone::GetEnemyRangedUnitCount
; Function compile flags: /Ogtpy
;	COMDAT ?GetEnemyRangedUnitCount@CvTacticalDominanceZone@@QBEHXZ
_TEXT	SEGMENT
?GetEnemyRangedUnitCount@CvTacticalDominanceZone@@QBEHXZ PROC ; CvTacticalDominanceZone::GetEnemyRangedUnitCount, COMDAT
; _this$ = ecx

; 496  : 		return m_iEnemyRangedUnitCount;

	mov	eax, DWORD PTR [ecx+52]

; 497  : 	};

	ret	0
?GetEnemyRangedUnitCount@CvTacticalDominanceZone@@QBEHXZ ENDP ; CvTacticalDominanceZone::GetEnemyRangedUnitCount
_TEXT	ENDS
PUBLIC	?AddEnemyRangedUnitCount@CvTacticalDominanceZone@@QAEXH@Z ; CvTacticalDominanceZone::AddEnemyRangedUnitCount
; Function compile flags: /Ogtpy
;	COMDAT ?AddEnemyRangedUnitCount@CvTacticalDominanceZone@@QAEXH@Z
_TEXT	SEGMENT
_iUnitCount$ = 8					; size = 4
?AddEnemyRangedUnitCount@CvTacticalDominanceZone@@QAEXH@Z PROC ; CvTacticalDominanceZone::AddEnemyRangedUnitCount, COMDAT
; _this$ = ecx

; 500  : 		m_iEnemyRangedUnitCount += iUnitCount;

	mov	eax, DWORD PTR _iUnitCount$[esp-4]
	add	DWORD PTR [ecx+52], eax

; 501  : 	};

	ret	4
?AddEnemyRangedUnitCount@CvTacticalDominanceZone@@QAEXH@Z ENDP ; CvTacticalDominanceZone::AddEnemyRangedUnitCount
_TEXT	ENDS
PUBLIC	?AddEnemyNavalUnitCount@CvTacticalDominanceZone@@QAEXH@Z ; CvTacticalDominanceZone::AddEnemyNavalUnitCount
; Function compile flags: /Ogtpy
;	COMDAT ?AddEnemyNavalUnitCount@CvTacticalDominanceZone@@QAEXH@Z
_TEXT	SEGMENT
_iUnitCount$ = 8					; size = 4
?AddEnemyNavalUnitCount@CvTacticalDominanceZone@@QAEXH@Z PROC ; CvTacticalDominanceZone::AddEnemyNavalUnitCount, COMDAT
; _this$ = ecx

; 508  : 		m_iEnemyNavalUnitCount += iUnitCount;

	mov	eax, DWORD PTR _iUnitCount$[esp-4]
	add	DWORD PTR [ecx+56], eax

; 509  : 	};

	ret	4
?AddEnemyNavalUnitCount@CvTacticalDominanceZone@@QAEXH@Z ENDP ; CvTacticalDominanceZone::AddEnemyNavalUnitCount
_TEXT	ENDS
PUBLIC	?GetDominanceZoneValue@CvTacticalDominanceZone@@QBEHXZ ; CvTacticalDominanceZone::GetDominanceZoneValue
; Function compile flags: /Ogtpy
;	COMDAT ?GetDominanceZoneValue@CvTacticalDominanceZone@@QBEHXZ
_TEXT	SEGMENT
?GetDominanceZoneValue@CvTacticalDominanceZone@@QBEHXZ PROC ; CvTacticalDominanceZone::GetDominanceZoneValue, COMDAT
; _this$ = ecx

; 512  : 		return m_iZoneValue;

	mov	eax, DWORD PTR [ecx+60]

; 513  : 	};

	ret	0
?GetDominanceZoneValue@CvTacticalDominanceZone@@QBEHXZ ENDP ; CvTacticalDominanceZone::GetDominanceZoneValue
_TEXT	ENDS
PUBLIC	?SetDominanceZoneValue@CvTacticalDominanceZone@@QAEXH@Z ; CvTacticalDominanceZone::SetDominanceZoneValue
; Function compile flags: /Ogtpy
;	COMDAT ?SetDominanceZoneValue@CvTacticalDominanceZone@@QAEXH@Z
_TEXT	SEGMENT
_iValue$ = 8						; size = 4
?SetDominanceZoneValue@CvTacticalDominanceZone@@QAEXH@Z PROC ; CvTacticalDominanceZone::SetDominanceZoneValue, COMDAT
; _this$ = ecx

; 516  : 		m_iZoneValue = iValue;

	mov	eax, DWORD PTR _iValue$[esp-4]
	mov	DWORD PTR [ecx+60], eax

; 517  : 	};

	ret	4
?SetDominanceZoneValue@CvTacticalDominanceZone@@QAEXH@Z ENDP ; CvTacticalDominanceZone::SetDominanceZoneValue
_TEXT	ENDS
PUBLIC	?IsWater@CvTacticalDominanceZone@@QBE_NXZ	; CvTacticalDominanceZone::IsWater
; Function compile flags: /Ogtpy
;	COMDAT ?IsWater@CvTacticalDominanceZone@@QBE_NXZ
_TEXT	SEGMENT
?IsWater@CvTacticalDominanceZone@@QBE_NXZ PROC		; CvTacticalDominanceZone::IsWater, COMDAT
; _this$ = ecx

; 520  : 		return m_bIsWater;

	mov	al, BYTE PTR [ecx+68]

; 521  : 	};

	ret	0
?IsWater@CvTacticalDominanceZone@@QBE_NXZ ENDP		; CvTacticalDominanceZone::IsWater
_TEXT	ENDS
PUBLIC	?SetWater@CvTacticalDominanceZone@@QAEX_N@Z	; CvTacticalDominanceZone::SetWater
; Function compile flags: /Ogtpy
;	COMDAT ?SetWater@CvTacticalDominanceZone@@QAEX_N@Z
_TEXT	SEGMENT
_bWater$ = 8						; size = 1
?SetWater@CvTacticalDominanceZone@@QAEX_N@Z PROC	; CvTacticalDominanceZone::SetWater, COMDAT
; _this$ = ecx

; 524  : 		m_bIsWater = bWater;

	mov	al, BYTE PTR _bWater$[esp-4]
	mov	BYTE PTR [ecx+68], al

; 525  : 	};

	ret	4
?SetWater@CvTacticalDominanceZone@@QAEX_N@Z ENDP	; CvTacticalDominanceZone::SetWater
_TEXT	ENDS
PUBLIC	?SetNavalInvasion@CvTacticalDominanceZone@@QAEX_N@Z ; CvTacticalDominanceZone::SetNavalInvasion
; Function compile flags: /Ogtpy
;	COMDAT ?SetNavalInvasion@CvTacticalDominanceZone@@QAEX_N@Z
_TEXT	SEGMENT
_bIsNavalInvasion$ = 8					; size = 1
?SetNavalInvasion@CvTacticalDominanceZone@@QAEX_N@Z PROC ; CvTacticalDominanceZone::SetNavalInvasion, COMDAT
; _this$ = ecx

; 532  : 		m_bIsNavalInvasion = bIsNavalInvasion;

	mov	al, BYTE PTR _bIsNavalInvasion$[esp-4]
	mov	BYTE PTR [ecx+69], al

; 533  : 	};

	ret	4
?SetNavalInvasion@CvTacticalDominanceZone@@QAEX_N@Z ENDP ; CvTacticalDominanceZone::SetNavalInvasion
_TEXT	ENDS
PUBLIC	?GetTempZoneCenter@CvTacticalDominanceZone@@QBEPAVCvPlot@@XZ ; CvTacticalDominanceZone::GetTempZoneCenter
; Function compile flags: /Ogtpy
;	COMDAT ?GetTempZoneCenter@CvTacticalDominanceZone@@QBEPAVCvPlot@@XZ
_TEXT	SEGMENT
?GetTempZoneCenter@CvTacticalDominanceZone@@QBEPAVCvPlot@@XZ PROC ; CvTacticalDominanceZone::GetTempZoneCenter, COMDAT
; _this$ = ecx

; 536  : 		return m_pTempZoneCenter;

	mov	eax, DWORD PTR [ecx+72]

; 537  : 	};

	ret	0
?GetTempZoneCenter@CvTacticalDominanceZone@@QBEPAVCvPlot@@XZ ENDP ; CvTacticalDominanceZone::GetTempZoneCenter
_TEXT	ENDS
PUBLIC	?SetTempZoneCenter@CvTacticalDominanceZone@@QAEXPAVCvPlot@@@Z ; CvTacticalDominanceZone::SetTempZoneCenter
; Function compile flags: /Ogtpy
;	COMDAT ?SetTempZoneCenter@CvTacticalDominanceZone@@QAEXPAVCvPlot@@@Z
_TEXT	SEGMENT
_pPlot$ = 8						; size = 4
?SetTempZoneCenter@CvTacticalDominanceZone@@QAEXPAVCvPlot@@@Z PROC ; CvTacticalDominanceZone::SetTempZoneCenter, COMDAT
; _this$ = ecx

; 540  : 		m_pTempZoneCenter = pPlot;

	mov	eax, DWORD PTR _pPlot$[esp-4]
	mov	DWORD PTR [ecx+72], eax

; 541  : 	};

	ret	4
?SetTempZoneCenter@CvTacticalDominanceZone@@QAEXPAVCvPlot@@@Z ENDP ; CvTacticalDominanceZone::SetTempZoneCenter
_TEXT	ENDS
PUBLIC	??0CvTacticalAnalysisEnemy@@QAE@XZ		; CvTacticalAnalysisEnemy::CvTacticalAnalysisEnemy
; Function compile flags: /Ogtpy
;	COMDAT ??0CvTacticalAnalysisEnemy@@QAE@XZ
_TEXT	SEGMENT
??0CvTacticalAnalysisEnemy@@QAE@XZ PROC			; CvTacticalAnalysisEnemy::CvTacticalAnalysisEnemy, COMDAT
; _this$ = ecx

; 581  : 	CvTacticalAnalysisEnemy(void)

	mov	eax, ecx

; 582  : 	{
; 583  : 		m_pUnit = NULL;

	mov	DWORD PTR [eax], 0

; 584  : 	}

	ret	0
??0CvTacticalAnalysisEnemy@@QAE@XZ ENDP			; CvTacticalAnalysisEnemy::CvTacticalAnalysisEnemy
_TEXT	ENDS
PUBLIC	?GetCell@CvTacticalAnalysisMap@@QAEPAVCvTacticalAnalysisCell@@H@Z ; CvTacticalAnalysisMap::GetCell
; Function compile flags: /Ogtpy
;	COMDAT ?GetCell@CvTacticalAnalysisMap@@QAEPAVCvTacticalAnalysisCell@@H@Z
_TEXT	SEGMENT
_iPlotIndex$ = 8					; size = 4
?GetCell@CvTacticalAnalysisMap@@QAEPAVCvTacticalAnalysisCell@@H@Z PROC ; CvTacticalAnalysisMap::GetCell, COMDAT
; _this$ = ecx

; 630  : 		return &m_pPlots[iPlotIndex];

	mov	eax, DWORD PTR _iPlotIndex$[esp-4]
	imul	eax, 44					; 0000002cH
	add	eax, DWORD PTR [ecx+12]

; 631  : 	};

	ret	4
?GetCell@CvTacticalAnalysisMap@@QAEPAVCvTacticalAnalysisCell@@H@Z ENDP ; CvTacticalAnalysisMap::GetCell
_TEXT	ENDS
PUBLIC	?GetBestFriendlyRange@CvTacticalAnalysisMap@@QBEHXZ ; CvTacticalAnalysisMap::GetBestFriendlyRange
; Function compile flags: /Ogtpy
;	COMDAT ?GetBestFriendlyRange@CvTacticalAnalysisMap@@QBEHXZ
_TEXT	SEGMENT
?GetBestFriendlyRange@CvTacticalAnalysisMap@@QBEHXZ PROC ; CvTacticalAnalysisMap::GetBestFriendlyRange, COMDAT
; _this$ = ecx

; 641  : 		return m_iBestFriendlyRange;

	mov	eax, DWORD PTR [ecx+28]

; 642  : 	};

	ret	0
?GetBestFriendlyRange@CvTacticalAnalysisMap@@QBEHXZ ENDP ; CvTacticalAnalysisMap::GetBestFriendlyRange
_TEXT	ENDS
PUBLIC	?SetBestFriendlyRange@CvTacticalAnalysisMap@@QAEXH@Z ; CvTacticalAnalysisMap::SetBestFriendlyRange
; Function compile flags: /Ogtpy
;	COMDAT ?SetBestFriendlyRange@CvTacticalAnalysisMap@@QAEXH@Z
_TEXT	SEGMENT
_iNewRange$ = 8						; size = 4
?SetBestFriendlyRange@CvTacticalAnalysisMap@@QAEXH@Z PROC ; CvTacticalAnalysisMap::SetBestFriendlyRange, COMDAT
; _this$ = ecx

; 645  : 		m_iBestFriendlyRange = iNewRange;

	mov	eax, DWORD PTR _iNewRange$[esp-4]
	mov	DWORD PTR [ecx+28], eax

; 646  : 	};

	ret	4
?SetBestFriendlyRange@CvTacticalAnalysisMap@@QAEXH@Z ENDP ; CvTacticalAnalysisMap::SetBestFriendlyRange
_TEXT	ENDS
PUBLIC	?SetIgnoreLOS@CvTacticalAnalysisMap@@QAEX_N@Z	; CvTacticalAnalysisMap::SetIgnoreLOS
; Function compile flags: /Ogtpy
;	COMDAT ?SetIgnoreLOS@CvTacticalAnalysisMap@@QAEX_N@Z
_TEXT	SEGMENT
_bNewValue$ = 8						; size = 1
?SetIgnoreLOS@CvTacticalAnalysisMap@@QAEX_N@Z PROC	; CvTacticalAnalysisMap::SetIgnoreLOS, COMDAT
; _this$ = ecx

; 653  : 		m_bIgnoreLOS = bNewValue;

	mov	al, BYTE PTR _bNewValue$[esp-4]
	mov	BYTE PTR [ecx+32], al

; 654  : 	};

	ret	4
?SetIgnoreLOS@CvTacticalAnalysisMap@@QAEX_N@Z ENDP	; CvTacticalAnalysisMap::SetIgnoreLOS
_TEXT	ENDS
PUBLIC	?GetX@CvTemporaryZone@@QBEHXZ			; CvTemporaryZone::GetX
; Function compile flags: /Ogtpy
; File c:\users\enormousapplepie\documents\github\lekmod\lekmod_dll\cvgamecoredll_expansion2\cvtacticalai.h
;	COMDAT ?GetX@CvTemporaryZone@@QBEHXZ
_TEXT	SEGMENT
?GetX@CvTemporaryZone@@QBEHXZ PROC			; CvTemporaryZone::GetX, COMDAT
; _this$ = ecx

; 577  : 		return m_iX;

	mov	eax, DWORD PTR [ecx]

; 578  : 	};

	ret	0
?GetX@CvTemporaryZone@@QBEHXZ ENDP			; CvTemporaryZone::GetX
_TEXT	ENDS
PUBLIC	?GetY@CvTemporaryZone@@QBEHXZ			; CvTemporaryZone::GetY
; Function compile flags: /Ogtpy
;	COMDAT ?GetY@CvTemporaryZone@@QBEHXZ
_TEXT	SEGMENT
?GetY@CvTemporaryZone@@QBEHXZ PROC			; CvTemporaryZone::GetY, COMDAT
; _this$ = ecx

; 585  : 		return m_iY;

	mov	eax, DWORD PTR [ecx+4]

; 586  : 	};

	ret	0
?GetY@CvTemporaryZone@@QBEHXZ ENDP			; CvTemporaryZone::GetY
_TEXT	ENDS
PUBLIC	?GetTargetType@CvTemporaryZone@@QBE?AW4AITacticalTargetType@@XZ ; CvTemporaryZone::GetTargetType
; Function compile flags: /Ogtpy
;	COMDAT ?GetTargetType@CvTemporaryZone@@QBE?AW4AITacticalTargetType@@XZ
_TEXT	SEGMENT
?GetTargetType@CvTemporaryZone@@QBE?AW4AITacticalTargetType@@XZ PROC ; CvTemporaryZone::GetTargetType, COMDAT
; _this$ = ecx

; 593  : 		return m_eTargetType;

	mov	eax, DWORD PTR [ecx+8]

; 594  : 	};

	ret	0
?GetTargetType@CvTemporaryZone@@QBE?AW4AITacticalTargetType@@XZ ENDP ; CvTemporaryZone::GetTargetType
_TEXT	ENDS
PUBLIC	?IsNavalInvasion@CvTemporaryZone@@QBE_NXZ	; CvTemporaryZone::IsNavalInvasion
; Function compile flags: /Ogtpy
;	COMDAT ?IsNavalInvasion@CvTemporaryZone@@QBE_NXZ
_TEXT	SEGMENT
?IsNavalInvasion@CvTemporaryZone@@QBE_NXZ PROC		; CvTemporaryZone::IsNavalInvasion, COMDAT
; _this$ = ecx

; 609  : 		return m_bIsNavalInvasion;

	mov	al, BYTE PTR [ecx+16]

; 610  : 	};

	ret	0
?IsNavalInvasion@CvTemporaryZone@@QBE_NXZ ENDP		; CvTemporaryZone::IsNavalInvasion
_TEXT	ENDS
PUBLIC	?getTeam@CvTeam@@SAAAV1@W4TeamTypes@@@Z		; CvTeam::getTeam
EXTRN	?m_aTeams@CvTeam@@1PAV1@A:DWORD			; CvTeam::m_aTeams
; Function compile flags: /Ogtpy
; File c:\users\enormousapplepie\documents\github\lekmod\lekmod_dll\cvgamecoredll_expansion2\cvteam.h
;	COMDAT ?getTeam@CvTeam@@SAAAV1@W4TeamTypes@@@Z
_TEXT	SEGMENT
_eTeam$ = 8						; size = 4
?getTeam@CvTeam@@SAAAV1@W4TeamTypes@@@Z PROC		; CvTeam::getTeam, COMDAT

; 29   : 		CvAssertMsg(eTeam != NO_TEAM, "eTeam is not assigned a valid value");
; 30   : 		CvAssertMsg(eTeam < MAX_TEAMS, "eTeam is not assigned a valid value");
; 31   : 		return m_aTeams[eTeam];

	mov	eax, DWORD PTR _eTeam$[esp-4]
	imul	eax, 2984				; 00000ba8H
	add	eax, DWORD PTR ?m_aTeams@CvTeam@@1PAV1@A ; CvTeam::m_aTeams

; 32   : 	}

	ret	0
?getTeam@CvTeam@@SAAAV1@W4TeamTypes@@@Z ENDP		; CvTeam::getTeam
_TEXT	ENDS
PUBLIC	??A?$vector@W4TeamTypes@@V?$allocator@W4TeamTypes@@@std@@@std@@QBEABW4TeamTypes@@I@Z ; std::vector<enum TeamTypes,std::allocator<enum TeamTypes> >::operator[]
; Function compile flags: /Ogtpy
; File c:\program files (x86)\microsoft visual studio 9.0\vc\include\vector
;	COMDAT ??A?$vector@W4TeamTypes@@V?$allocator@W4TeamTypes@@@std@@@std@@QBEABW4TeamTypes@@I@Z
_TEXT	SEGMENT
__Pos$ = 8						; size = 4
??A?$vector@W4TeamTypes@@V?$allocator@W4TeamTypes@@@std@@@std@@QBEABW4TeamTypes@@I@Z PROC ; std::vector<enum TeamTypes,std::allocator<enum TeamTypes> >::operator[], COMDAT
; _this$ = ecx

; 760  : 
; 761  :  #if _HAS_ITERATOR_DEBUGGING
; 762  : 		if (size() <= _Pos)
; 763  : 			{
; 764  : 			_DEBUG_ERROR("vector subscript out of range");
; 765  : 			_SCL_SECURE_OUT_OF_RANGE;
; 766  : 			}
; 767  :  #endif /* _HAS_ITERATOR_DEBUGGING */
; 768  : 		_SCL_SECURE_VALIDATE_RANGE(_Pos < size());
; 769  : 
; 770  : 		return (*(_Myfirst + _Pos));

	mov	eax, DWORD PTR [ecx+4]
	mov	ecx, DWORD PTR __Pos$[esp-4]
	lea	eax, DWORD PTR [eax+ecx*4]

; 771  : 		}

	ret	4
??A?$vector@W4TeamTypes@@V?$allocator@W4TeamTypes@@@std@@@std@@QBEABW4TeamTypes@@I@Z ENDP ; std::vector<enum TeamTypes,std::allocator<enum TeamTypes> >::operator[]
_TEXT	ENDS
PUBLIC	?size@?$BaseVector@VCvTacticalDominanceZone@@$00@@QBEIXZ ; BaseVector<CvTacticalDominanceZone,1>::size
; Function compile flags: /Ogtpy
; File c:\users\enormousapplepie\documents\github\lekmod\lekmod_dll\fireplace\include\fireworks\ffastvector.h
;	COMDAT ?size@?$BaseVector@VCvTacticalDominanceZone@@$00@@QBEIXZ
_TEXT	SEGMENT
?size@?$BaseVector@VCvTacticalDominanceZone@@$00@@QBEIXZ PROC ; BaseVector<CvTacticalDominanceZone,1>::size, COMDAT
; _this$ = ecx

; 169  : 		return m_uiCurrSize;

	mov	eax, DWORD PTR [ecx+4]

; 170  : 	};

	ret	0
?size@?$BaseVector@VCvTacticalDominanceZone@@$00@@QBEIXZ ENDP ; BaseVector<CvTacticalDominanceZone,1>::size
_TEXT	ENDS
PUBLIC	?get@?$FAutoVariable@W4PlayerTypes@@VCvUnit@@@@QBEABW4PlayerTypes@@XZ ; FAutoVariable<enum PlayerTypes,CvUnit>::get
; Function compile flags: /Ogtpy
; File c:\users\enormousapplepie\documents\github\lekmod\lekmod_dll\fireplace\include\fireworks\fautovariable.h
;	COMDAT ?get@?$FAutoVariable@W4PlayerTypes@@VCvUnit@@@@QBEABW4PlayerTypes@@XZ
_TEXT	SEGMENT
?get@?$FAutoVariable@W4PlayerTypes@@VCvUnit@@@@QBEABW4PlayerTypes@@XZ PROC ; FAutoVariable<enum PlayerTypes,CvUnit>::get, COMDAT
; _this$ = ecx

; 177  : 	return m_value;

	lea	eax, DWORD PTR [ecx+4]

; 178  : }

	ret	0
?get@?$FAutoVariable@W4PlayerTypes@@VCvUnit@@@@QBEABW4PlayerTypes@@XZ ENDP ; FAutoVariable<enum PlayerTypes,CvUnit>::get
_TEXT	ENDS
PUBLIC	?get@?$FAutoVariable@HVCvUnit@@@@QBEABHXZ	; FAutoVariable<int,CvUnit>::get
; Function compile flags: /Ogtpy
;	COMDAT ?get@?$FAutoVariable@HVCvUnit@@@@QBEABHXZ
_TEXT	SEGMENT
?get@?$FAutoVariable@HVCvUnit@@@@QBEABHXZ PROC		; FAutoVariable<int,CvUnit>::get, COMDAT
; _this$ = ecx

; 177  : 	return m_value;

	lea	eax, DWORD PTR [ecx+4]

; 178  : }

	ret	0
?get@?$FAutoVariable@HVCvUnit@@@@QBEABHXZ ENDP		; FAutoVariable<int,CvUnit>::get
_TEXT	ENDS
PUBLIC	??B?$FAutoVariable@HVCvUnit@@@@QBEABHXZ		; FAutoVariable<int,CvUnit>::operator int const &
; Function compile flags: /Ogtpy
;	COMDAT ??B?$FAutoVariable@HVCvUnit@@@@QBEABHXZ
_TEXT	SEGMENT
??B?$FAutoVariable@HVCvUnit@@@@QBEABHXZ PROC		; FAutoVariable<int,CvUnit>::operator int const &, COMDAT
; _this$ = ecx

; 194  : 	return m_value;

	lea	eax, DWORD PTR [ecx+4]

; 195  : }

	ret	0
??B?$FAutoVariable@HVCvUnit@@@@QBEABHXZ ENDP		; FAutoVariable<int,CvUnit>::operator int const &
_TEXT	ENDS
PUBLIC	??B?$FAutoVariable@_NVCvUnit@@@@QBEAB_NXZ	; FAutoVariable<bool,CvUnit>::operator bool const &
; Function compile flags: /Ogtpy
;	COMDAT ??B?$FAutoVariable@_NVCvUnit@@@@QBEAB_NXZ
_TEXT	SEGMENT
??B?$FAutoVariable@_NVCvUnit@@@@QBEAB_NXZ PROC		; FAutoVariable<bool,CvUnit>::operator bool const &, COMDAT
; _this$ = ecx

; 194  : 	return m_value;

	lea	eax, DWORD PTR [ecx+4]

; 195  : }

	ret	0
??B?$FAutoVariable@_NVCvUnit@@@@QBEAB_NXZ ENDP		; FAutoVariable<bool,CvUnit>::operator bool const &
_TEXT	ENDS
PUBLIC	??B?$FAutoVariable@HVCvCity@@@@QBEABHXZ		; FAutoVariable<int,CvCity>::operator int const &
; Function compile flags: /Ogtpy
;	COMDAT ??B?$FAutoVariable@HVCvCity@@@@QBEABHXZ
_TEXT	SEGMENT
??B?$FAutoVariable@HVCvCity@@@@QBEABHXZ PROC		; FAutoVariable<int,CvCity>::operator int const &, COMDAT
; _this$ = ecx

; 194  : 	return m_value;

	lea	eax, DWORD PTR [ecx+4]

; 195  : }

	ret	0
??B?$FAutoVariable@HVCvCity@@@@QBEABHXZ ENDP		; FAutoVariable<int,CvCity>::operator int const &
_TEXT	ENDS
PUBLIC	??B?$FAutoVariable@W4PlayerTypes@@VCvPlayer@@@@QBEABW4PlayerTypes@@XZ ; FAutoVariable<enum PlayerTypes,CvPlayer>::operator enum PlayerTypes const &
; Function compile flags: /Ogtpy
;	COMDAT ??B?$FAutoVariable@W4PlayerTypes@@VCvPlayer@@@@QBEABW4PlayerTypes@@XZ
_TEXT	SEGMENT
??B?$FAutoVariable@W4PlayerTypes@@VCvPlayer@@@@QBEABW4PlayerTypes@@XZ PROC ; FAutoVariable<enum PlayerTypes,CvPlayer>::operator enum PlayerTypes const &, COMDAT
; _this$ = ecx

; 194  : 	return m_value;

	lea	eax, DWORD PTR [ecx+4]

; 195  : }

	ret	0
??B?$FAutoVariable@W4PlayerTypes@@VCvPlayer@@@@QBEABW4PlayerTypes@@XZ ENDP ; FAutoVariable<enum PlayerTypes,CvPlayer>::operator enum PlayerTypes const &
_TEXT	ENDS
PUBLIC	??B?$FAutoVariable@_NVCvPlayer@@@@QBEAB_NXZ	; FAutoVariable<bool,CvPlayer>::operator bool const &
; Function compile flags: /Ogtpy
;	COMDAT ??B?$FAutoVariable@_NVCvPlayer@@@@QBEAB_NXZ
_TEXT	SEGMENT
??B?$FAutoVariable@_NVCvPlayer@@@@QBEAB_NXZ PROC	; FAutoVariable<bool,CvPlayer>::operator bool const &, COMDAT
; _this$ = ecx

; 194  : 	return m_value;

	lea	eax, DWORD PTR [ecx+4]

; 195  : }

	ret	0
??B?$FAutoVariable@_NVCvPlayer@@@@QBEAB_NXZ ENDP	; FAutoVariable<bool,CvPlayer>::operator bool const &
_TEXT	ENDS
PUBLIC	?dxWrap@@YAHH@Z					; dxWrap
EXTRN	?gGlobals@@3VCvGlobals@@A:BYTE			; gGlobals
; Function compile flags: /Ogtpy
; File c:\users\enormousapplepie\documents\github\lekmod\lekmod_dll\cvgamecoredll_expansion2\cvgamecoreutils.h
;	COMDAT ?dxWrap@@YAHH@Z
_TEXT	SEGMENT
_iDX$ = 8						; size = 4
?dxWrap@@YAHH@Z PROC					; dxWrap, COMDAT

; 74   : 	const CvMap& kMap = GC.getMap();

	mov	eax, DWORD PTR ?gGlobals@@3VCvGlobals@@A+52

; 75   : 	return wrapCoordDifference(iDX, kMap.getGridWidth(), kMap.isWrapX());

	mov	edx, DWORD PTR [eax+4020]
	cmp	BYTE PTR [eax+4056], 0
	mov	eax, DWORD PTR _iDX$[esp-4]
	je	SHORT $LN13@dxWrap
	mov	ecx, edx
	shr	ecx, 1
	cmp	eax, ecx
	jle	SHORT $LN11@dxWrap
	sub	eax, edx

; 76   : }

	ret	0

; 75   : 	return wrapCoordDifference(iDX, kMap.getGridWidth(), kMap.isWrapX());

$LN11@dxWrap:
	neg	ecx
	cmp	eax, ecx
	jge	SHORT $LN13@dxWrap
	add	eax, edx
$LN13@dxWrap:

; 76   : }

	ret	0
?dxWrap@@YAHH@Z ENDP					; dxWrap
_TEXT	ENDS
PUBLIC	?dyWrap@@YAHH@Z					; dyWrap
; Function compile flags: /Ogtpy
;	COMDAT ?dyWrap@@YAHH@Z
_TEXT	SEGMENT
_iDY$ = 8						; size = 4
?dyWrap@@YAHH@Z PROC					; dyWrap, COMDAT

; 80   : 	const CvMap& kMap = GC.getMap();

	mov	eax, DWORD PTR ?gGlobals@@3VCvGlobals@@A+52

; 81   : 	return wrapCoordDifference(iDY, kMap.getGridHeight(), kMap.isWrapY());

	mov	edx, DWORD PTR [eax+4024]
	cmp	BYTE PTR [eax+4057], 0
	mov	eax, DWORD PTR _iDY$[esp-4]
	je	SHORT $LN13@dyWrap
	mov	ecx, edx
	shr	ecx, 1
	cmp	eax, ecx
	jle	SHORT $LN11@dyWrap
	sub	eax, edx

; 82   : }

	ret	0

; 81   : 	return wrapCoordDifference(iDY, kMap.getGridHeight(), kMap.isWrapY());

$LN11@dyWrap:
	neg	ecx
	cmp	eax, ecx
	jge	SHORT $LN13@dyWrap
	add	eax, edx
$LN13@dyWrap:

; 82   : }

	ret	0
?dyWrap@@YAHH@Z ENDP					; dyWrap
_TEXT	ENDS
PUBLIC	?plotDistance@@YAHHHHH@Z			; plotDistance
; Function compile flags: /Ogtpy
;	COMDAT ?plotDistance@@YAHHHHH@Z
_TEXT	SEGMENT
_iDY$ = -12						; size = 4
tv320 = -8						; size = 4
tv357 = -4						; size = 4
_iX1$ = 8						; size = 4
_iDX$ = 12						; size = 4
_iY1$ = 12						; size = 4
$T225441 = 16						; size = 4
_iX2$ = 16						; size = 4
_iY2$ = 20						; size = 4
?plotDistance@@YAHHHHH@Z PROC				; plotDistance, COMDAT

; 144  : {

	sub	esp, 12					; 0000000cH

; 145  : 	int iDX;
; 146  : 	int iWrappedDX = dxWrap(iX2 - iX1);

	mov	ecx, DWORD PTR _iX2$[esp+8]
	sub	ecx, DWORD PTR _iX1$[esp+8]
	push	ebx
	push	ebp
	push	esi
	push	edi
	mov	edi, DWORD PTR ?gGlobals@@3VCvGlobals@@A+52
	cmp	BYTE PTR [edi+4056], 0
	mov	edx, DWORD PTR [edi+4020]
	mov	DWORD PTR tv320[esp+28], ecx
	je	SHORT $LN18@plotDistan
	mov	eax, edx
	shr	eax, 1
	cmp	ecx, eax
	jle	SHORT $LN20@plotDistan
	sub	ecx, edx
	jmp	SHORT $LN18@plotDistan
$LN20@plotDistan:
	neg	eax
	cmp	ecx, eax
	jge	SHORT $LN18@plotDistan
	add	ecx, edx
$LN18@plotDistan:

; 147  : 	int iWrappedDY = dyWrap(iY2 - iY1);

	mov	ebp, DWORD PTR _iY2$[esp+24]
	sub	ebp, DWORD PTR _iY1$[esp+24]
	cmp	BYTE PTR [edi+4057], 0
	mov	eax, DWORD PTR [edi+4024]
	je	SHORT $LN32@plotDistan
	mov	edx, eax
	shr	edx, 1
	cmp	ebp, edx
	jle	SHORT $LN34@plotDistan
	mov	ebx, ebp
	sub	ebx, eax
	mov	DWORD PTR $T225441[esp+24], ebx
	jmp	SHORT $LN36@plotDistan
$LN34@plotDistan:
	neg	edx
	cmp	ebp, edx
	jge	SHORT $LN32@plotDistan
	lea	ebx, DWORD PTR [eax+ebp]
	mov	DWORD PTR $T225441[esp+24], ebx
	jmp	SHORT $LN36@plotDistan
$LN32@plotDistan:
	mov	ebx, ebp
	mov	DWORD PTR $T225441[esp+24], ebp
$LN36@plotDistan:

; 148  : 	int iDY = abs(iWrappedDY);

	mov	eax, ebx
	cdq
	mov	esi, eax
	xor	esi, edx
	sub	esi, edx

; 149  : 
; 150  : #ifdef GAMECOREUTILS_FIX_PLOT_DISTANCE
; 151  : 	const CvMap& kMap = GC.getMap();
; 152  : 	// equidistant column joint fix (on X-wrapped maps):
; 153  : 	if ((kMap.isWrapX()) && (abs(iWrappedDX * 2) == kMap.getGridWidth()) && (iDY % 2 != 0) && ((iY1 % 2 == 0) == (iWrappedDX > (kMap.getGridWidth() >> 2))))

	cmp	BYTE PTR [edi+4056], 0
	mov	DWORD PTR _iDY$[esp+28], esi
	je	$LN77@plotDistan
	lea	eax, DWORD PTR [ecx+ecx]
	cdq
	mov	ebx, eax
	mov	eax, DWORD PTR [edi+4020]
	xor	ebx, edx
	sub	ebx, edx
	cmp	ebx, eax
	jne	SHORT $LN73@plotDistan
	mov	edx, esi
	and	edx, -2147483647			; 80000001H
	jns	SHORT $LN79@plotDistan
	dec	edx
	or	edx, -2					; fffffffeH
	inc	edx
$LN79@plotDistan:
	je	SHORT $LN73@plotDistan
	sar	eax, 2
	xor	edx, edx
	cmp	ecx, eax
	mov	eax, DWORD PTR _iY1$[esp+24]
	setg	dl
	and	eax, -2147483647			; 80000001H
	jns	SHORT $LN80@plotDistan
	dec	eax
	or	eax, -2					; fffffffeH
	inc	eax
$LN80@plotDistan:

; 154  : 	{
; 155  : 		iWrappedDX *= -1;  // change polarity

	mov	ebx, DWORD PTR $T225441[esp+24]
	neg	eax
	sbb	eax, eax
	inc	eax
	cmp	eax, edx
	jne	SHORT $LN5@plotDistan
	neg	ecx
	jmp	SHORT $LN5@plotDistan
$LN73@plotDistan:
	mov	ebx, DWORD PTR $T225441[esp+24]
$LN5@plotDistan:

; 156  : 	}
; 157  : 	if ((kMap.isWrapX()) && (abs(iWrappedDX * 2) == kMap.getGridWidth()) && (abs(iWrappedDY) < abs(iY2 - iY1)) && (iDY % 2 == 0) && (iX2 - iX1 < 0))

	cmp	BYTE PTR [edi+4056], 0
	je	$LN77@plotDistan
	lea	eax, DWORD PTR [ecx+ecx]
	cdq
	xor	eax, edx
	sub	eax, edx
	cmp	eax, DWORD PTR [edi+4020]
	jne	SHORT $LN75@plotDistan
	mov	eax, ebp
	cdq
	xor	eax, edx
	sub	eax, edx
	cmp	esi, eax
	jge	SHORT $LN75@plotDistan
	mov	edx, DWORD PTR _iDY$[esp+28]
	and	edx, -2147483647			; 80000001H
	jns	SHORT $LN81@plotDistan
	dec	edx
	or	edx, -2					; fffffffeH
	inc	edx
$LN81@plotDistan:
	jne	SHORT $LN75@plotDistan
	cmp	DWORD PTR tv320[esp+28], 0
	jge	SHORT $LN75@plotDistan

; 158  : 	{
; 159  : 		iWrappedDX *= -1;  // change polarity

	neg	ecx
$LN75@plotDistan:

; 160  : 	}
; 161  : 	// special case when map is toroidal AND map height is odd
; 162  : 	// TODO works but ugly
; 163  : 	if ((kMap.isWrapX()) && (kMap.getGridHeight() % 2 != 0) && (iY1 % 2 == kMap.getGridWidth() % 2) && (iY2 % 2 == 0) &&
; 164  : 		(abs(iWrappedDY) < abs(iY2 - iY1)) && (abs(iX2 - iX1) == kMap.getGridWidth() / 2 + ((kMap.getGridWidth() % 2 == 1) && (iX2 - iX1 > 0)) ? 1 : 0))

	cmp	BYTE PTR [edi+4056], 0
	je	$LN77@plotDistan
	mov	eax, DWORD PTR [edi+4024]
	and	eax, -2147483647			; 80000001H
	jns	SHORT $LN82@plotDistan
	dec	eax
	or	eax, -2					; fffffffeH
	inc	eax
$LN82@plotDistan:
	je	$LN77@plotDistan
	mov	edi, DWORD PTR [edi+4020]
	mov	DWORD PTR tv357[esp+28], edi
	and	edi, -2147483647			; 80000001H
	jns	SHORT $LN83@plotDistan
	dec	edi
	or	edi, -2					; fffffffeH
	inc	edi
$LN83@plotDistan:
	mov	edx, DWORD PTR _iY1$[esp+24]
	and	edx, -2147483647			; 80000001H
	jns	SHORT $LN84@plotDistan
	dec	edx
	or	edx, -2					; fffffffeH
	inc	edx
$LN84@plotDistan:
	cmp	edx, edi
	jne	SHORT $LN77@plotDistan
	mov	eax, DWORD PTR _iY2$[esp+24]
	and	eax, -2147483647			; 80000001H
	jns	SHORT $LN85@plotDistan
	dec	eax
	or	eax, -2					; fffffffeH
	inc	eax
$LN85@plotDistan:
	jne	SHORT $LN77@plotDistan
	mov	eax, ebp
	cdq
	xor	eax, edx
	sub	eax, edx
	cmp	esi, eax
	jge	SHORT $LN77@plotDistan
	cmp	edi, 1
	jne	SHORT $LN76@plotDistan
	cmp	DWORD PTR tv320[esp+28], 0
	jle	SHORT $LN76@plotDistan
	mov	esi, edi
	jmp	SHORT $LN9@plotDistan
$LN76@plotDistan:
	xor	esi, esi
$LN9@plotDistan:
	mov	eax, DWORD PTR tv320[esp+28]
	cdq
	mov	edi, eax
	mov	eax, DWORD PTR tv357[esp+28]
	xor	edi, edx
	sub	edi, edx
	cdq
	sub	eax, edx
	sar	eax, 1
	add	eax, esi
	cmp	edi, eax
	jne	SHORT $LN77@plotDistan

; 165  : 	{
; 166  : 		iWrappedDX -= (iWrappedDX > 0) - (iWrappedDX < 0);  // decrease regardless of polarity

	xor	edx, edx
	test	ecx, ecx
	setl	dl
	xor	eax, eax
	test	ecx, ecx
	setg	al
	sub	edx, eax
	add	ecx, edx
$LN77@plotDistan:

; 167  : 	}
; 168  : #endif
; 169  : 
; 170  : 	// convert to hex-space coordinates - the coordinate system axes are E and NE (not orthogonal)
; 171  : 	int iHX1 = xToHexspaceX(iX1, iY1);

	mov	eax, DWORD PTR _iY1$[esp+24]
	test	eax, eax
	jge	SHORT $LN88@plotDistan
	dec	eax
	cdq
	sub	eax, edx
$LN88@plotDistan:
	mov	edi, DWORD PTR _iX1$[esp+24]

; 172  : 	int iHX2 = xToHexspaceX(iX1 + iWrappedDX, iY1 + iWrappedDY);

	mov	edx, DWORD PTR _iY1$[esp+24]
	sar	eax, 1
	mov	esi, edi
	sub	esi, eax
	lea	eax, DWORD PTR [ebx+edx]
	test	eax, eax
	jge	SHORT $LN89@plotDistan
	dec	eax
	cdq
	sub	eax, edx
$LN89@plotDistan:
	sar	eax, 1
	sub	ecx, eax
	add	ecx, edi

; 173  : 
; 174  : #ifdef GAMECOREUTILS_FIX_PLOT_DISTANCE
; 175  : 	// obvious bug
; 176  : 	iDX = abs(iHX2 - iHX1);

	sub	ecx, esi
	mov	eax, ecx
	cdq
	xor	eax, edx
	sub	eax, edx

; 177  : #else
; 178  : 	iDX = abs(dxWrap(iHX2 - iHX1));
; 179  : #endif
; 180  : 
; 181  : #ifdef NQM_GAME_CORE_UTILS_OPTIMIZATIONS
; 182  : 	if (((iHX2 - iHX1) ^ (iWrappedDY)) >= 0)  // the signs match
; 183  : #else
; 184  : 	if((iHX2 - iHX1 >= 0) == (iWrappedDY >= 0))  // the signs match

	xor	edx, edx
	test	ecx, ecx
	setge	dl
	xor	ecx, ecx
	test	ebx, ebx
	setge	cl
	pop	edi
	pop	esi
	pop	ebp
	mov	DWORD PTR _iDX$[esp+12], eax
	pop	ebx
	cmp	edx, ecx
	jne	SHORT $LN2@plotDistan

; 185  : #endif
; 186  : 	{
; 187  : 		return iDX + iDY;

	mov	edx, DWORD PTR _iDY$[esp+12]
	add	eax, edx

; 195  : #endif
; 196  : 	}
; 197  : }

	add	esp, 12					; 0000000cH
	ret	0
$LN2@plotDistan:

; 188  : 	}
; 189  : 	else
; 190  : 	{
; 191  : #ifdef NQM_FAST_COMP
; 192  : 		return (MAX(iDX, iDY));
; 193  : #else
; 194  : 		return (std::max(iDX, iDY));

	cmp	eax, DWORD PTR _iDY$[esp+12]
	lea	eax, DWORD PTR _iDY$[esp+12]
	jl	SHORT $LN71@plotDistan
	lea	eax, DWORD PTR _iDX$[esp+8]
$LN71@plotDistan:
	mov	eax, DWORD PTR [eax]

; 195  : #endif
; 196  : 	}
; 197  : }

	add	esp, 12					; 0000000cH
	ret	0
?plotDistance@@YAHHHHH@Z ENDP				; plotDistance
_TEXT	ENDS
PUBLIC	?Clear@CvTacticalAnalysisCell@@QAEXXZ		; CvTacticalAnalysisCell::Clear
; Function compile flags: /Ogtpy
; File c:\users\enormousapplepie\documents\github\lekmod\lekmod_dll\cvgamecoredll_expansion2\cvtacticalanalysismap.cpp
;	COMDAT ?Clear@CvTacticalAnalysisCell@@QAEXXZ
_TEXT	SEGMENT
?Clear@CvTacticalAnalysisCell@@QAEXXZ PROC		; CvTacticalAnalysisCell::Clear, COMDAT
; _this$ = ecx

; 39   : 	ClearFlags();

	xor	eax, eax
	mov	DWORD PTR [ecx], eax

; 40   : 	m_pEnemyMilitary = NULL;

	mov	DWORD PTR [ecx+4], eax

; 41   : 	m_pEnemyCivilian = NULL;

	mov	DWORD PTR [ecx+8], eax

; 42   : 	m_pNeutralMilitary = NULL;

	mov	DWORD PTR [ecx+12], eax

; 43   : 	m_pNeutralCivilian = NULL;

	mov	DWORD PTR [ecx+16], eax

; 44   : 	m_pFriendlyMilitary = NULL;

	mov	DWORD PTR [ecx+20], eax

; 45   : 	m_pFriendlyCivilian = NULL;

	mov	DWORD PTR [ecx+24], eax

; 46   : 	m_iDefenseModifier = 0;

	mov	DWORD PTR [ecx+28], eax

; 47   : 	m_iDeploymentScore = 0;

	mov	DWORD PTR [ecx+32], eax

; 48   : 	m_eTargetType = AI_TACTICAL_TARGET_NONE;

	mov	DWORD PTR [ecx+36], eax

; 49   : 	m_iDominanceZoneID = -1;

	mov	DWORD PTR [ecx+40], -1

; 50   : }

	ret	0
?Clear@CvTacticalAnalysisCell@@QAEXXZ ENDP		; CvTacticalAnalysisCell::Clear
_TEXT	ENDS
PUBLIC	?CanUseForOperationGathering@CvTacticalAnalysisCell@@QAE_NXZ ; CvTacticalAnalysisCell::CanUseForOperationGathering
; Function compile flags: /Ogtpy
;	COMDAT ?CanUseForOperationGathering@CvTacticalAnalysisCell@@QAE_NXZ
_TEXT	SEGMENT
?CanUseForOperationGathering@CvTacticalAnalysisCell@@QAE_NXZ PROC ; CvTacticalAnalysisCell::CanUseForOperationGathering, COMDAT
; _this$ = ecx

; 54   : 	if(IsImpassableTerrain() || IsImpassableTerritory() || GetEnemyMilitaryUnit() || GetNeutralMilitaryUnit() || GetNeutralCivilianUnit() || IsFriendlyTurnEndTile() || IsEnemyCity() || IsNeutralCity())

	mov	eax, DWORD PTR [ecx]
	mov	edx, eax
	shr	edx, 2
	test	dl, 1
	jne	SHORT $LN1@CanUseForO
	mov	edx, eax
	shr	edx, 3
	test	dl, 1
	jne	SHORT $LN1@CanUseForO
	cmp	DWORD PTR [ecx+4], 0
	jne	SHORT $LN1@CanUseForO
	cmp	DWORD PTR [ecx+12], 0
	jne	SHORT $LN1@CanUseForO
	cmp	DWORD PTR [ecx+16], 0
	jne	SHORT $LN1@CanUseForO
	mov	ecx, eax
	shr	ecx, 7
	test	cl, 1
	jne	SHORT $LN1@CanUseForO
	mov	edx, eax
	shr	edx, 9
	test	dl, 1
	jne	SHORT $LN1@CanUseForO
	shr	eax, 10					; 0000000aH
	test	al, 1
	jne	SHORT $LN1@CanUseForO

; 57   : 	}
; 58   : 
; 59   : 	return true;

	mov	al, 1

; 60   : }

	ret	0
$LN1@CanUseForO:

; 55   : 	{
; 56   : 		return false;

	xor	al, al

; 60   : }

	ret	0
?CanUseForOperationGathering@CvTacticalAnalysisCell@@QAE_NXZ ENDP ; CvTacticalAnalysisCell::CanUseForOperationGathering
_TEXT	ENDS
PUBLIC	?CanUseForOperationGatheringCheckWater@CvTacticalAnalysisCell@@QAE_N_N@Z ; CvTacticalAnalysisCell::CanUseForOperationGatheringCheckWater
; Function compile flags: /Ogtpy
;	COMDAT ?CanUseForOperationGatheringCheckWater@CvTacticalAnalysisCell@@QAE_N_N@Z
_TEXT	SEGMENT
_bWater$ = 8						; size = 1
?CanUseForOperationGatheringCheckWater@CvTacticalAnalysisCell@@QAE_N_N@Z PROC ; CvTacticalAnalysisCell::CanUseForOperationGatheringCheckWater, COMDAT
; _this$ = ecx

; 64   : 	if(bWater != IsWater() || IsImpassableTerrain() || IsImpassableTerritory() || GetEnemyMilitaryUnit() || GetNeutralMilitaryUnit() || GetNeutralCivilianUnit() || IsFriendlyTurnEndTile() || IsEnemyCity() || IsNeutralCity())

	mov	eax, DWORD PTR [ecx]
	mov	edx, eax
	shr	edx, 11					; 0000000bH
	and	dl, 1
	cmp	BYTE PTR _bWater$[esp-4], dl
	jne	SHORT $LN1@CanUseForO@2
	mov	edx, eax
	shr	edx, 2
	test	dl, 1
	jne	SHORT $LN1@CanUseForO@2
	mov	edx, eax
	shr	edx, 3
	test	dl, 1
	jne	SHORT $LN1@CanUseForO@2
	cmp	DWORD PTR [ecx+4], 0
	jne	SHORT $LN1@CanUseForO@2
	cmp	DWORD PTR [ecx+12], 0
	jne	SHORT $LN1@CanUseForO@2
	cmp	DWORD PTR [ecx+16], 0
	jne	SHORT $LN1@CanUseForO@2
	mov	ecx, eax
	shr	ecx, 7
	test	cl, 1
	jne	SHORT $LN1@CanUseForO@2
	mov	edx, eax
	shr	edx, 9
	test	dl, 1
	jne	SHORT $LN1@CanUseForO@2
	shr	eax, 10					; 0000000aH
	test	al, 1
	jne	SHORT $LN1@CanUseForO@2

; 67   : 	}
; 68   : 
; 69   : 	return true;

	mov	al, 1

; 70   : }

	ret	4
$LN1@CanUseForO@2:

; 65   : 	{
; 66   : 		return false;

	xor	al, al

; 70   : }

	ret	4
?CanUseForOperationGatheringCheckWater@CvTacticalAnalysisCell@@QAE_N_N@Z ENDP ; CvTacticalAnalysisCell::CanUseForOperationGatheringCheckWater
_TEXT	ENDS
PUBLIC	?GetClosestCity@CvTacticalDominanceZone@@QBEPAVCvCity@@XZ ; CvTacticalDominanceZone::GetClosestCity
; Function compile flags: /Ogtpy
;	COMDAT ?GetClosestCity@CvTacticalDominanceZone@@QBEPAVCvCity@@XZ
_TEXT	SEGMENT
?GetClosestCity@CvTacticalDominanceZone@@QBEPAVCvCity@@XZ PROC ; CvTacticalDominanceZone::GetClosestCity, COMDAT
; _this$ = ecx

; 103  : 	if(m_eOwner != NO_PLAYER)

	mov	eax, DWORD PTR [ecx+12]
	cmp	eax, -1
	je	SHORT $LN1@GetClosest

; 104  : 	{
; 105  : 		return GET_PLAYER(m_eOwner).getCity(m_iCityID);

	mov	ecx, DWORD PTR [ecx+16]
	imul	eax, 63236				; 0000f704H
	add	eax, DWORD PTR ?m_aPlayers@CvPlayerAI@@1PAV1@A ; CvPlayerAI::m_aPlayers
	push	ecx
	mov	ecx, eax
	call	?getCity@CvPlayer@@QAEPAVCvCity@@H@Z	; CvPlayer::getCity

; 109  : }

	ret	0
$LN1@GetClosest:

; 106  : 	}
; 107  : 
; 108  : 	return NULL;

	xor	eax, eax

; 109  : }

	ret	0
?GetClosestCity@CvTacticalDominanceZone@@QBEPAVCvCity@@XZ ENDP ; CvTacticalDominanceZone::GetClosestCity
_TEXT	ENDS
PUBLIC	?ClearDynamicFlags@CvTacticalAnalysisMap@@QAEXXZ ; CvTacticalAnalysisMap::ClearDynamicFlags
; Function compile flags: /Ogtpy
;	COMDAT ?ClearDynamicFlags@CvTacticalAnalysisMap@@QAEXXZ
_TEXT	SEGMENT
?ClearDynamicFlags@CvTacticalAnalysisMap@@QAEXXZ PROC	; CvTacticalAnalysisMap::ClearDynamicFlags, COMDAT
; _this$ = ecx

; 398  : #ifdef AUI_WARNING_FIXES
; 399  : 	for (uint iI = 0; iI < GC.getMap().numPlots(); iI++)
; 400  : #else
; 401  : 	for(int iI = 0; iI < GC.getMap().numPlots(); iI++)

	mov	eax, DWORD PTR ?gGlobals@@3VCvGlobals@@A+52
	push	esi
	xor	esi, esi
	cmp	DWORD PTR [eax+4028], esi
	jle	SHORT $LN1@ClearDynam
	xor	edx, edx
$LL3@ClearDynam:

; 402  : #endif
; 403  : 	{
; 404  : 		// Erase this cell
; 405  : 		m_pPlots[iI].SetWithinRangeOfTarget(false);

	mov	eax, DWORD PTR [ecx+12]
	and	DWORD PTR [eax+edx], -131073		; fffdffffH
	add	eax, edx

; 406  : 		m_pPlots[iI].SetHelpsProvidesFlankBonus(false);

	mov	eax, DWORD PTR [ecx+12]
	and	DWORD PTR [eax+edx], -262145		; fffbffffH
	add	eax, edx

; 407  : 		m_pPlots[iI].SetSafeForDeployment(false);

	mov	eax, DWORD PTR [ecx+12]
	and	DWORD PTR [eax+edx], -524289		; fff7ffffH
	add	eax, edx

; 408  : 		m_pPlots[iI].SetDeploymentScore(0);

	mov	eax, DWORD PTR [ecx+12]
	mov	DWORD PTR [eax+edx+32], 0
	mov	eax, DWORD PTR ?gGlobals@@3VCvGlobals@@A+52
	inc	esi
	add	edx, 44					; 0000002cH
	cmp	esi, DWORD PTR [eax+4028]
	jl	SHORT $LL3@ClearDynam
$LN1@ClearDynam:
	pop	esi

; 409  : 	}
; 410  : }

	ret	0
?ClearDynamicFlags@CvTacticalAnalysisMap@@QAEXXZ ENDP	; CvTacticalAnalysisMap::ClearDynamicFlags
_TEXT	ENDS
PUBLIC	?LogZones@CvTacticalAnalysisMap@@IAEXXZ		; CvTacticalAnalysisMap::LogZones
EXTRN	?IsTemporaryZoneCity@CvTacticalAI@@QAE_NPAVCvCity@@@Z:PROC ; CvTacticalAI::IsTemporaryZoneCity
EXTRN	__imp_??Y?$basic_string@DU?$char_traits@D@std@@V?$allocator@D@2@@std@@QAEAAV01@ABV01@@Z:PROC
EXTRN	__imp_??$?HDU?$char_traits@D@std@@V?$allocator@D@1@@std@@YA?AV?$basic_string@DU?$char_traits@D@std@@V?$allocator@D@2@@0@PBDABV10@@Z:PROC
EXTRN	?getName@CvCity@@QBE?BVCvString@@XZ:PROC	; CvCity::getName
EXTRN	?LogTacticalMessage@CvTacticalAI@@QAEXAAVCvString@@_N@Z:PROC ; CvTacticalAI::LogTacticalMessage
EXTRN	?GetTacticalAI@CvPlayer@@QBEPAVCvTacticalAI@@XZ:PROC ; CvPlayer::GetTacticalAI
EXTRN	__imp_??Y?$basic_string@DU?$char_traits@D@std@@V?$allocator@D@2@@std@@QAEAAV01@PBD@Z:PROC
EXTRN	?getAILogging@CvGlobals@@QAE_NXZ:PROC		; CvGlobals::getAILogging
EXTRN	?getLogging@CvGlobals@@QAE_NXZ:PROC		; CvGlobals::getLogging
;	COMDAT xdata$x
; File c:\users\enormousapplepie\documents\github\lekmod\lekmod_dll\cvgamecoredllutil\include\cvstring.h
xdata$x	SEGMENT
__unwindtable$?LogZones@CvTacticalAnalysisMap@@IAEXXZ DD 0ffffffffH
	DD	FLAT:__unwindfunclet$?LogZones@CvTacticalAnalysisMap@@IAEXXZ$0
	DD	00H
	DD	FLAT:__unwindfunclet$?LogZones@CvTacticalAnalysisMap@@IAEXXZ$1
	DD	01H
	DD	FLAT:__unwindfunclet$?LogZones@CvTacticalAnalysisMap@@IAEXXZ$2
__ehfuncinfo$?LogZones@CvTacticalAnalysisMap@@IAEXXZ DD 019930522H
	DD	03H
	DD	FLAT:__unwindtable$?LogZones@CvTacticalAnalysisMap@@IAEXXZ
	DD	2 DUP(00H)
	DD	2 DUP(00H)
	DD	00H
	DD	01H
; Function compile flags: /Ogtpy
; File c:\users\enormousapplepie\documents\github\lekmod\lekmod_dll\cvgamecoredll_expansion2\cvtacticalanalysismap.cpp
xdata$x	ENDS
;	COMDAT ?LogZones@CvTacticalAnalysisMap@@IAEXXZ
_TEXT	SEGMENT
_this$ = -132						; size = 4
_iI$222820 = -128					; size = 4
tv514 = -124						; size = 4
$T225772 = -120						; size = 4
$T225776 = -116						; size = 4
$T225780 = -112						; size = 4
$T225784 = -108						; size = 4
$T225788 = -104						; size = 4
$T225792 = -100						; size = 4
_szLogMsg$222818 = -96					; size = 28
$T225734 = -68						; size = 28
$T225733 = -40						; size = 28
__$EHRec$ = -12						; size = 12
?LogZones@CvTacticalAnalysisMap@@IAEXXZ PROC		; CvTacticalAnalysisMap::LogZones, COMDAT
; _this$ = ecx

; 1070 : {

	push	-1
	push	__ehhandler$?LogZones@CvTacticalAnalysisMap@@IAEXXZ
	mov	eax, DWORD PTR fs:0
	push	eax
	mov	DWORD PTR fs:0, esp
	sub	esp, 120				; 00000078H
	push	esi
	mov	esi, ecx

; 1071 : 	if(GC.getLogging() && GC.getAILogging())

	mov	ecx, OFFSET ?gGlobals@@3VCvGlobals@@A	; gGlobals
	mov	DWORD PTR _this$[esp+136], esi
	call	?getLogging@CvGlobals@@QAE_NXZ		; CvGlobals::getLogging
	test	al, al
	je	$LN17@LogZones
	mov	ecx, OFFSET ?gGlobals@@3VCvGlobals@@A	; gGlobals
	call	?getAILogging@CvGlobals@@QAE_NXZ	; CvGlobals::getAILogging
	test	al, al
	je	$LN17@LogZones

; 1072 : 	{
; 1073 : 		CvString szLogMsg;

	lea	ecx, DWORD PTR _szLogMsg$222818[esp+136]
	call	DWORD PTR __imp_??0?$basic_string@DU?$char_traits@D@std@@V?$allocator@D@2@@std@@QAE@XZ

; 1074 : 		CvTacticalDominanceZone* pZone;
; 1075 : 
; 1076 : 		for(unsigned int iI = 0; iI < m_DominanceZones.size(); iI++)

	mov	eax, DWORD PTR [esi+116]
	xor	ecx, ecx
	mov	DWORD PTR __$EHRec$[esp+144], ecx
	mov	DWORD PTR _iI$222820[esp+136], ecx
	cmp	eax, ecx
	jbe	$LN14@LogZones
	push	ebx
	push	ebp
	mov	DWORD PTR tv514[esp+144], ecx
	push	edi
	npad	4
$LL16@LogZones:

; 1077 : 		{
; 1078 : 			pZone = &m_DominanceZones[iI];

	mov	esi, DWORD PTR [esi+112]

; 1079 : 
; 1080 : 			szLogMsg.Format("Zone ID: %d, Area ID: %d, Value: %d, FRIENDLY Str: %d (%d), Ranged: %d (%d), ENEMY Str: %d (%d), Ranged: %d (%d), Closest Enemy: %d",
; 1081 : 			                pZone->GetDominanceZoneID(), pZone->GetAreaID(), pZone->GetDominanceZoneValue(),
; 1082 : 			                pZone->GetFriendlyStrength(), pZone->GetFriendlyUnitCount(), pZone->GetFriendlyRangedStrength(), pZone->GetFriendlyRangedUnitCount(),
; 1083 : 			                pZone->GetEnemyStrength(), pZone->GetEnemyUnitCount(), pZone->GetEnemyRangedStrength(), pZone->GetEnemyRangedUnitCount(), pZone->GetRangeClosestEnemyUnit());

	mov	eax, DWORD PTR [esi+ecx+64]
	mov	ebx, DWORD PTR [esi+ecx+48]
	mov	edx, DWORD PTR [esi+ecx+36]
	mov	edi, DWORD PTR [esi+ecx+44]
	mov	ebp, DWORD PTR [esi+ecx+28]
	add	esi, ecx
	mov	ecx, DWORD PTR [esi+52]
	push	eax
	push	ecx
	push	edx
	mov	DWORD PTR $T225772[esp+160], ebx
	mov	ebx, DWORD PTR [esi+32]
	mov	eax, DWORD PTR $T225772[esp+160]
	push	edi
	mov	DWORD PTR $T225776[esp+164], ebx
	mov	ebx, DWORD PTR [esi+40]
	mov	ecx, DWORD PTR $T225776[esp+164]
	push	ebp
	push	eax
	mov	DWORD PTR $T225780[esp+172], ebx
	mov	ebx, DWORD PTR [esi+24]
	mov	edx, DWORD PTR $T225780[esp+172]
	push	ecx
	mov	DWORD PTR $T225784[esp+176], ebx
	mov	ebx, DWORD PTR [esi+60]
	mov	eax, DWORD PTR $T225784[esp+176]
	push	edx
	push	eax
	mov	DWORD PTR $T225788[esp+184], ebx
	mov	ebx, DWORD PTR [esi+20]
	mov	ecx, DWORD PTR $T225788[esp+184]
	push	ecx
	mov	DWORD PTR $T225792[esp+188], ebx
	mov	edx, DWORD PTR $T225792[esp+188]
	mov	ebx, DWORD PTR [esi]
	push	edx
	push	ebx
	lea	eax, DWORD PTR _szLogMsg$222818[esp+196]
	push	OFFSET $SG222824
	push	eax
	call	?Format@CvString@@QAAXPBDZZ		; CvString::Format

; 1084 : 			if(pZone->GetDominanceFlag() == TACTICAL_DOMINANCE_FRIENDLY)

	mov	eax, DWORD PTR [esi+8]
	mov	ebx, 1
	add	esp, 56					; 00000038H
	cmp	eax, ebx
	jne	SHORT $LN13@LogZones

; 1085 : 			{
; 1086 : 				szLogMsg += ", Friendly";

	push	OFFSET $SG222826
	jmp	SHORT $LN91@LogZones
$LN13@LogZones:

; 1087 : 			}
; 1088 : 			else if(pZone->GetDominanceFlag() == TACTICAL_DOMINANCE_ENEMY)

	cmp	eax, 2
	jne	SHORT $LN11@LogZones

; 1089 : 			{
; 1090 : 				szLogMsg += ", Enemy";

	push	OFFSET $SG222829
	jmp	SHORT $LN91@LogZones
$LN11@LogZones:

; 1091 : 			}
; 1092 : 			else if(pZone->GetDominanceFlag() == TACTICAL_DOMINANCE_EVEN)

	cmp	eax, 3
	jne	SHORT $LN9@LogZones

; 1093 : 			{
; 1094 : 				szLogMsg += ", Even";

	push	OFFSET $SG222832
	jmp	SHORT $LN91@LogZones
$LN9@LogZones:

; 1095 : 			}
; 1096 : 			else if(pZone->GetDominanceFlag() == TACTICAL_DOMINANCE_NO_UNITS_VISIBLE)

	test	eax, eax
	jne	SHORT $LN7@LogZones

; 1097 : 			{
; 1098 : 				szLogMsg += ", No Units Visible";

	push	OFFSET $SG222835
$LN91@LogZones:
	lea	ecx, DWORD PTR _szLogMsg$222818[esp+152]
	call	DWORD PTR __imp_??Y?$basic_string@DU?$char_traits@D@std@@V?$allocator@D@2@@std@@QAEAAV01@PBD@Z
$LN7@LogZones:

; 1099 : 			}
; 1100 : 
; 1101 : 			if(pZone->IsWater())

	cmp	BYTE PTR [esi+68], 0

; 1102 : 			{
; 1103 : 				szLogMsg += ", Water";

	lea	ecx, DWORD PTR _szLogMsg$222818[esp+148]
	je	SHORT $LN6@LogZones
	push	OFFSET $SG222837

; 1104 : 			}
; 1105 : 			else

	jmp	SHORT $LN92@LogZones
$LN6@LogZones:

; 1106 : 			{
; 1107 : 				szLogMsg += ", Land";

	push	OFFSET $SG222839
$LN92@LogZones:
	call	DWORD PTR __imp_??Y?$basic_string@DU?$char_traits@D@std@@V?$allocator@D@2@@std@@QAEAAV01@PBD@Z

; 1108 : 			}
; 1109 : 
; 1110 : 			if(pZone->GetTerritoryType() == TACTICAL_TERRITORY_TEMP_ZONE)

	cmp	DWORD PTR [esi+4], 5
	jne	SHORT $LN4@LogZones

; 1111 : 			{
; 1112 : 				szLogMsg += ", Temporary Zone";

	push	OFFSET $SG222841
	lea	ecx, DWORD PTR _szLogMsg$222818[esp+152]
	call	DWORD PTR __imp_??Y?$basic_string@DU?$char_traits@D@std@@V?$allocator@D@2@@std@@QAEAAV01@PBD@Z
$LN89@LogZones:

; 1118 : 				{
; 1119 : 					szLogMsg += " (Temp)";

	mov	esi, DWORD PTR _this$[esp+148]
$LN1@LogZones:

; 1120 : 				}
; 1121 : 			}
; 1122 : 
; 1123 : 			m_pPlayer->GetTacticalAI()->LogTacticalMessage(szLogMsg, true /*bSkipLogDominanceZone*/);

	mov	ecx, DWORD PTR [esi+20]
	push	ebx
	lea	edx, DWORD PTR _szLogMsg$222818[esp+152]
	push	edx
	call	?GetTacticalAI@CvPlayer@@QBEPAVCvTacticalAI@@XZ ; CvPlayer::GetTacticalAI
	mov	ecx, eax
	call	?LogTacticalMessage@CvTacticalAI@@QAEXAAVCvString@@_N@Z ; CvTacticalAI::LogTacticalMessage
	mov	eax, DWORD PTR _iI$222820[esp+148]
	mov	ecx, DWORD PTR tv514[esp+148]
	add	eax, ebx
	add	ecx, 76					; 0000004cH
	mov	DWORD PTR _iI$222820[esp+148], eax
	mov	DWORD PTR tv514[esp+148], ecx
	cmp	eax, DWORD PTR [esi+116]
	jb	$LL16@LogZones
	pop	edi
	pop	ebp
	pop	ebx
$LN14@LogZones:

; 1124 : 		}
; 1125 : 	}

	lea	ecx, DWORD PTR _szLogMsg$222818[esp+136]
	mov	DWORD PTR __$EHRec$[esp+144], -1
	call	DWORD PTR __imp_??1?$basic_string@DU?$char_traits@D@std@@V?$allocator@D@2@@std@@QAE@XZ
$LN17@LogZones:

; 1126 : }

	mov	ecx, DWORD PTR __$EHRec$[esp+136]
	pop	esi
	mov	DWORD PTR fs:0, ecx
	add	esp, 132				; 00000084H
	ret	0
$LN4@LogZones:

; 1113 : 			}
; 1114 : 			else if(pZone->GetClosestCity())

	mov	eax, DWORD PTR [esi+12]
	cmp	eax, -1
	je	SHORT $LN89@LogZones
	mov	ecx, DWORD PTR [esi+16]
	imul	eax, 63236				; 0000f704H
	add	eax, DWORD PTR ?m_aPlayers@CvPlayerAI@@1PAV1@A ; CvPlayerAI::m_aPlayers
	push	ecx
	mov	ecx, eax
	call	?getCity@CvPlayer@@QAEPAVCvCity@@H@Z	; CvPlayer::getCity
	test	eax, eax
	je	$LN89@LogZones

; 1115 : 			{
; 1116 : 				szLogMsg += ", " + pZone->GetClosestCity()->getName();

	mov	eax, DWORD PTR [esi+12]
	cmp	eax, -1
	je	SHORT $LN71@LogZones
	mov	edx, DWORD PTR [esi+16]
	imul	eax, 63236				; 0000f704H
	add	eax, DWORD PTR ?m_aPlayers@CvPlayerAI@@1PAV1@A ; CvPlayerAI::m_aPlayers
	push	edx
	mov	ecx, eax
	call	?getCity@CvPlayer@@QAEPAVCvCity@@H@Z	; CvPlayer::getCity
	jmp	SHORT $LN72@LogZones
$LN71@LogZones:
	xor	eax, eax
$LN72@LogZones:
	lea	ecx, DWORD PTR $T225733[esp+148]
	push	ecx
	mov	ecx, eax
	call	?getName@CvCity@@QBE?BVCvString@@XZ	; CvCity::getName
	push	eax
	lea	edx, DWORD PTR $T225734[esp+152]
	push	OFFSET $SG222846
	push	edx
	mov	BYTE PTR __$EHRec$[esp+168], bl
	call	DWORD PTR __imp_??$?HDU?$char_traits@D@std@@V?$allocator@D@1@@std@@YA?AV?$basic_string@DU?$char_traits@D@std@@V?$allocator@D@2@@0@PBDABV10@@Z
	add	esp, 12					; 0000000cH
	push	eax
	lea	ecx, DWORD PTR _szLogMsg$222818[esp+152]
	mov	BYTE PTR __$EHRec$[esp+160], 2
	call	DWORD PTR __imp_??Y?$basic_string@DU?$char_traits@D@std@@V?$allocator@D@2@@std@@QAEAAV01@ABV01@@Z
	lea	ecx, DWORD PTR $T225734[esp+148]
	mov	BYTE PTR __$EHRec$[esp+156], bl
	call	DWORD PTR __imp_??1?$basic_string@DU?$char_traits@D@std@@V?$allocator@D@2@@std@@QAE@XZ
	lea	ecx, DWORD PTR $T225733[esp+148]
	mov	BYTE PTR __$EHRec$[esp+156], 0
	call	DWORD PTR __imp_??1?$basic_string@DU?$char_traits@D@std@@V?$allocator@D@2@@std@@QAE@XZ

; 1117 : 				if (m_pPlayer->GetTacticalAI()->IsTemporaryZoneCity(pZone->GetClosestCity()))

	mov	eax, DWORD PTR [esi+12]
	cmp	eax, -1
	je	SHORT $LN79@LogZones
	mov	ecx, DWORD PTR [esi+16]
	imul	eax, 63236				; 0000f704H
	add	eax, DWORD PTR ?m_aPlayers@CvPlayerAI@@1PAV1@A ; CvPlayerAI::m_aPlayers
	push	ecx
	mov	ecx, eax
	call	?getCity@CvPlayer@@QAEPAVCvCity@@H@Z	; CvPlayer::getCity
	jmp	SHORT $LN80@LogZones
$LN79@LogZones:
	xor	eax, eax
$LN80@LogZones:
	mov	esi, DWORD PTR _this$[esp+148]
	mov	ecx, DWORD PTR [esi+20]
	push	eax
	call	?GetTacticalAI@CvPlayer@@QBEPAVCvTacticalAI@@XZ ; CvPlayer::GetTacticalAI
	mov	ecx, eax
	call	?IsTemporaryZoneCity@CvTacticalAI@@QAE_NPAVCvCity@@@Z ; CvTacticalAI::IsTemporaryZoneCity
	test	al, al
	je	$LN1@LogZones

; 1118 : 				{
; 1119 : 					szLogMsg += " (Temp)";

	push	OFFSET $SG222848
	lea	ecx, DWORD PTR _szLogMsg$222818[esp+152]
	call	DWORD PTR __imp_??Y?$basic_string@DU?$char_traits@D@std@@V?$allocator@D@2@@std@@QAEAAV01@PBD@Z
	jmp	$LN1@LogZones
_TEXT	ENDS
;	COMDAT text$x
text$x	SEGMENT
__unwindfunclet$?LogZones@CvTacticalAnalysisMap@@IAEXXZ$0:
	lea	ecx, DWORD PTR _szLogMsg$222818[ebp]
	jmp	??1CvString@@QAE@XZ			; CvString::~CvString
__unwindfunclet$?LogZones@CvTacticalAnalysisMap@@IAEXXZ$1:
	lea	ecx, DWORD PTR $T225733[ebp]
	jmp	??1CvString@@QAE@XZ			; CvString::~CvString
__unwindfunclet$?LogZones@CvTacticalAnalysisMap@@IAEXXZ$2:
	lea	ecx, DWORD PTR $T225734[ebp]
	jmp	DWORD PTR __imp_??1?$basic_string@DU?$char_traits@D@std@@V?$allocator@D@2@@std@@QAE@XZ
__ehhandler$?LogZones@CvTacticalAnalysisMap@@IAEXXZ:
	mov	eax, OFFSET __ehfuncinfo$?LogZones@CvTacticalAnalysisMap@@IAEXXZ
	jmp	___CxxFrameHandler3
text$x	ENDS
?LogZones@CvTacticalAnalysisMap@@IAEXXZ ENDP		; CvTacticalAnalysisMap::LogZones
PUBLIC	?FindExistingZone@CvTacticalAnalysisMap@@IAEPAVCvTacticalDominanceZone@@PAVCvPlot@@@Z ; CvTacticalAnalysisMap::FindExistingZone
; Function compile flags: /Ogtpy
;	COMDAT ?FindExistingZone@CvTacticalAnalysisMap@@IAEPAVCvTacticalDominanceZone@@PAVCvPlot@@@Z
_TEXT	SEGMENT
_iI$222854 = -4						; size = 4
_pPlot$ = 8						; size = 4
?FindExistingZone@CvTacticalAnalysisMap@@IAEPAVCvTacticalDominanceZone@@PAVCvPlot@@@Z PROC ; CvTacticalAnalysisMap::FindExistingZone, COMDAT
; _this$ = ecx

; 1130 : {

	push	ecx
	push	ebx
	push	ebp
	push	esi

; 1131 : 	CvTacticalDominanceZone* pZone;
; 1132 : 
; 1133 : 	for(unsigned int iI = 0; iI < m_DominanceZones.size(); iI++)

	xor	ebp, ebp
	mov	esi, ecx
	push	edi
	mov	DWORD PTR _iI$222854[esp+20], ebp
	cmp	DWORD PTR [esi+116], ebp
	jbe	$LN8@FindExisti
$LL10@FindExisti:

; 1134 : 	{
; 1135 : 		pZone = &m_DominanceZones[iI];

	mov	edi, DWORD PTR [esi+112]

; 1136 : 
; 1137 : 		// If this is a temporary zone, matches if unowned and close enough
; 1138 : 		if((pZone->GetTerritoryType() == TACTICAL_TERRITORY_TEMP_ZONE) &&
; 1139 : 		        (m_TempZone.GetTerritoryType() == TACTICAL_TERRITORY_NO_OWNER || m_TempZone.GetTerritoryType() == TACTICAL_TERRITORY_NEUTRAL) &&
; 1140 : 		        (plotDistance(pPlot->getX(), pPlot->getY(), pZone->GetTempZoneCenter()->getX(), pZone->GetTempZoneCenter()->getY()) <= m_iTacticalRange))

	mov	ebx, DWORD PTR [edi+ebp+4]
	add	edi, ebp
	cmp	ebx, 5
	jne	SHORT $LN74@FindExisti
	mov	eax, DWORD PTR [esi+40]
	cmp	eax, 1
	je	SHORT $LN6@FindExisti
	cmp	eax, 4
	jne	SHORT $LN74@FindExisti
$LN6@FindExisti:
	mov	eax, DWORD PTR [edi+72]
	movsx	ecx, WORD PTR [eax+2]
	movsx	edx, WORD PTR [eax]
	mov	eax, DWORD PTR _pPlot$[esp+16]
	push	ecx
	movsx	ecx, WORD PTR [eax+2]
	push	edx
	movsx	edx, WORD PTR [eax]
	push	ecx
	push	edx
	call	?plotDistance@@YAHHHHH@Z		; plotDistance
	add	esp, 16					; 00000010H
	cmp	eax, DWORD PTR [esi+8]
	jle	$LN70@FindExisti
$LN74@FindExisti:

; 1143 : 		}
; 1144 : 
; 1145 : 		// If not friendly or enemy, just 1 zone per area
; 1146 : 		if((pZone->GetTerritoryType() == TACTICAL_TERRITORY_NO_OWNER || pZone->GetTerritoryType() == TACTICAL_TERRITORY_NEUTRAL) &&
; 1147 : 		        (m_TempZone.GetTerritoryType() == TACTICAL_TERRITORY_NO_OWNER || m_TempZone.GetTerritoryType() == TACTICAL_TERRITORY_NEUTRAL))

	cmp	ebx, 1
	je	SHORT $LN76@FindExisti
	cmp	ebx, 4
	jne	SHORT $LN2@FindExisti
$LN76@FindExisti:
	mov	eax, DWORD PTR [esi+40]
	cmp	eax, 1
	je	SHORT $LN3@FindExisti
	cmp	eax, 4
	jne	SHORT $LN2@FindExisti
$LN3@FindExisti:

; 1148 : 		{
; 1149 : 			if(pZone->GetAreaID() == m_TempZone.GetAreaID())

	mov	eax, DWORD PTR [edi+20]
	cmp	eax, DWORD PTR [esi+56]
	je	SHORT $LN70@FindExisti
$LN2@FindExisti:

; 1150 : 			{
; 1151 : 				return pZone;
; 1152 : 			}
; 1153 : 		}
; 1154 : 
; 1155 : 		// Otherwise everything needs to match
; 1156 : 		if(pZone->GetTerritoryType() == m_TempZone.GetTerritoryType() &&
; 1157 : 		        pZone->GetOwner() == m_TempZone.GetOwner() &&
; 1158 : 		        pZone->GetAreaID() == m_TempZone.GetAreaID() &&
; 1159 : 		        pZone->GetClosestCity() == m_TempZone.GetClosestCity())

	cmp	ebx, DWORD PTR [esi+40]
	jne	SHORT $LN9@FindExisti
	mov	eax, DWORD PTR [edi+12]
	cmp	eax, DWORD PTR [esi+48]
	jne	SHORT $LN9@FindExisti
	mov	ecx, DWORD PTR [edi+20]
	cmp	ecx, DWORD PTR [esi+56]
	jne	SHORT $LN9@FindExisti
	cmp	eax, -1
	je	SHORT $LN59@FindExisti
	mov	edx, DWORD PTR [edi+16]
	imul	eax, 63236				; 0000f704H
	add	eax, DWORD PTR ?m_aPlayers@CvPlayerAI@@1PAV1@A ; CvPlayerAI::m_aPlayers
	push	edx
	mov	ecx, eax
	call	?getCity@CvPlayer@@QAEPAVCvCity@@H@Z	; CvPlayer::getCity
	mov	ebx, eax
	jmp	SHORT $LN60@FindExisti
$LN59@FindExisti:
	xor	ebx, ebx
$LN60@FindExisti:
	mov	eax, DWORD PTR [esi+48]
	cmp	eax, -1
	je	SHORT $LN64@FindExisti
	mov	ecx, DWORD PTR [esi+52]
	imul	eax, 63236				; 0000f704H
	add	eax, DWORD PTR ?m_aPlayers@CvPlayerAI@@1PAV1@A ; CvPlayerAI::m_aPlayers
	push	ecx
	mov	ecx, eax
	call	?getCity@CvPlayer@@QAEPAVCvCity@@H@Z	; CvPlayer::getCity
	jmp	SHORT $LN65@FindExisti
$LN64@FindExisti:
	xor	eax, eax
$LN65@FindExisti:
	cmp	ebx, eax
	je	SHORT $LN70@FindExisti
$LN9@FindExisti:

; 1131 : 	CvTacticalDominanceZone* pZone;
; 1132 : 
; 1133 : 	for(unsigned int iI = 0; iI < m_DominanceZones.size(); iI++)

	mov	eax, DWORD PTR _iI$222854[esp+20]
	inc	eax
	add	ebp, 76					; 0000004cH
	mov	DWORD PTR _iI$222854[esp+20], eax
	cmp	eax, DWORD PTR [esi+116]
	jb	$LL10@FindExisti
$LN8@FindExisti:
	pop	edi
	pop	esi
	pop	ebp

; 1160 : 		{
; 1161 : 			return pZone;
; 1162 : 		}
; 1163 : 	}
; 1164 : 
; 1165 : 	return NULL;

	xor	eax, eax
	pop	ebx

; 1166 : }

	pop	ecx
	ret	4
$LN70@FindExisti:

; 1141 : 		{
; 1142 : 			return pZone;

	mov	eax, edi
	pop	edi
	pop	esi
	pop	ebp
	pop	ebx

; 1166 : }

	pop	ecx
	ret	4
?FindExistingZone@CvTacticalAnalysisMap@@IAEPAVCvTacticalDominanceZone@@PAVCvPlot@@@Z ENDP ; CvTacticalAnalysisMap::FindExistingZone
_TEXT	ENDS
PUBLIC	?GetZone@CvTacticalAnalysisMap@@QAEPAVCvTacticalDominanceZone@@H@Z ; CvTacticalAnalysisMap::GetZone
; Function compile flags: /Ogtpy
;	COMDAT ?GetZone@CvTacticalAnalysisMap@@QAEPAVCvTacticalDominanceZone@@H@Z
_TEXT	SEGMENT
_iIndex$ = 8						; size = 4
?GetZone@CvTacticalAnalysisMap@@QAEPAVCvTacticalDominanceZone@@H@Z PROC ; CvTacticalAnalysisMap::GetZone, COMDAT
; _this$ = ecx

; 1171 : 	if(iIndex < 0 || iIndex >= (int)m_DominanceZones.size())

	mov	eax, DWORD PTR _iIndex$[esp-4]
	test	eax, eax
	jl	SHORT $LN1@GetZone
	cmp	eax, DWORD PTR [ecx+116]
	jge	SHORT $LN1@GetZone

; 1173 : 	return &m_DominanceZones[iIndex];

	imul	eax, 76					; 0000004cH
	add	eax, DWORD PTR [ecx+112]

; 1174 : }

	ret	4
$LN1@GetZone:

; 1172 : 		return 0;

	xor	eax, eax

; 1174 : }

	ret	4
?GetZone@CvTacticalAnalysisMap@@QAEPAVCvTacticalDominanceZone@@H@Z ENDP ; CvTacticalAnalysisMap::GetZone
_TEXT	ENDS
PUBLIC	?ComputeDominance@CvTacticalAnalysisMap@@IAE?AW4eTacticalDominanceFlags@@PAVCvTacticalDominanceZone@@@Z ; CvTacticalAnalysisMap::ComputeDominance
; Function compile flags: /Ogtpy
;	COMDAT ?ComputeDominance@CvTacticalAnalysisMap@@IAE?AW4eTacticalDominanceFlags@@PAVCvTacticalDominanceZone@@@Z
_TEXT	SEGMENT
_pZone$ = 8						; size = 4
?ComputeDominance@CvTacticalAnalysisMap@@IAE?AW4eTacticalDominanceFlags@@PAVCvTacticalDominanceZone@@@Z PROC ; CvTacticalAnalysisMap::ComputeDominance, COMDAT
; _this$ = ecx

; 1216 : {

	push	esi

; 1217 : 	// Look at ratio of friendly to enemy strength
; 1218 : 	if(pZone->GetTerritoryType() != TACTICAL_TERRITORY_ENEMY && pZone->GetEnemyUnitCount() <= 0)

	mov	esi, DWORD PTR _pZone$[esp]
	cmp	DWORD PTR [esi+4], 3
	je	SHORT $LN8@ComputeDom
	cmp	DWORD PTR [esi+44], 0
	jg	SHORT $LN8@ComputeDom

; 1219 : 	{
; 1220 : 		pZone->SetDominanceFlag(TACTICAL_DOMINANCE_NO_UNITS_VISIBLE);

	mov	DWORD PTR [esi+8], 0

; 1244 : 			}
; 1245 : 		}
; 1246 : 	}
; 1247 : 
; 1248 : 	return pZone->GetDominanceFlag();

	mov	eax, DWORD PTR [esi+8]
	pop	esi

; 1249 : }

	ret	4
$LN8@ComputeDom:
	push	edi

; 1221 : 	}
; 1222 : 
; 1223 : 	else
; 1224 : 	{
; 1225 : 		// Otherwise compute it by strength
; 1226 : 		if(pZone->GetEnemyStrength() <= 0)

	mov	edi, DWORD PTR [esi+28]
	test	edi, edi
	jg	SHORT $LN6@ComputeDom
$LN35@ComputeDom:

; 1227 : 		{
; 1228 : 			pZone->SetDominanceFlag(TACTICAL_DOMINANCE_FRIENDLY);

	mov	DWORD PTR [esi+8], 1

; 1244 : 			}
; 1245 : 		}
; 1246 : 	}
; 1247 : 
; 1248 : 	return pZone->GetDominanceFlag();

	mov	eax, DWORD PTR [esi+8]
	pop	edi
	pop	esi

; 1249 : }

	ret	4
$LN6@ComputeDom:

; 1229 : 		}
; 1230 : 		else
; 1231 : 		{
; 1232 : 			int iRatio = (pZone->GetFriendlyStrength()  * 100) / pZone->GetEnemyStrength();

	mov	eax, DWORD PTR [esi+24]
	imul	eax, 100				; 00000064H
	cdq
	idiv	edi

; 1233 : 			if(iRatio > 100 + m_iDominancePercentage)

	mov	ecx, DWORD PTR [ecx]
	lea	edx, DWORD PTR [ecx+100]
	cmp	eax, edx

; 1234 : 			{
; 1235 : 				pZone->SetDominanceFlag(TACTICAL_DOMINANCE_FRIENDLY);

	jg	SHORT $LN35@ComputeDom

; 1236 : 			}
; 1237 : 			else if(iRatio < 100 - m_iDominancePercentage)

	mov	edx, 100				; 00000064H
	sub	edx, ecx
	cmp	eax, edx
	jge	SHORT $LN2@ComputeDom

; 1238 : 			{
; 1239 : 				pZone->SetDominanceFlag(TACTICAL_DOMINANCE_ENEMY);

	mov	DWORD PTR [esi+8], 2

; 1244 : 			}
; 1245 : 		}
; 1246 : 	}
; 1247 : 
; 1248 : 	return pZone->GetDominanceFlag();

	mov	eax, DWORD PTR [esi+8]
	pop	edi
	pop	esi

; 1249 : }

	ret	4
$LN2@ComputeDom:

; 1240 : 			}
; 1241 : 			else
; 1242 : 			{
; 1243 : 				pZone->SetDominanceFlag(TACTICAL_DOMINANCE_EVEN);

	mov	DWORD PTR [esi+8], 3

; 1244 : 			}
; 1245 : 		}
; 1246 : 	}
; 1247 : 
; 1248 : 	return pZone->GetDominanceFlag();

	mov	eax, DWORD PTR [esi+8]
	pop	edi
	pop	esi

; 1249 : }

	ret	4
?ComputeDominance@CvTacticalAnalysisMap@@IAE?AW4eTacticalDominanceFlags@@PAVCvTacticalDominanceZone@@@Z ENDP ; CvTacticalAnalysisMap::ComputeDominance
_TEXT	ENDS
PUBLIC	??1?$FObjectHandle@VCvUnit@@@@QAE@XZ		; FObjectHandle<CvUnit>::~FObjectHandle<CvUnit>
EXTRN	?getDestructionNotification@CvUnit@@QAEAAU?$DestructionNotification@V?$FObjectHandle@VCvUnit@@@@@@XZ:PROC ; CvUnit::getDestructionNotification
; Function compile flags: /Ogtpy
; File c:\users\enormousapplepie\documents\github\lekmod\lekmod_dll\fireplace\include\fireworks\fobjecthandle.h
;	COMDAT ??1?$FObjectHandle@VCvUnit@@@@QAE@XZ
_TEXT	SEGMENT
??1?$FObjectHandle@VCvUnit@@@@QAE@XZ PROC		; FObjectHandle<CvUnit>::~FObjectHandle<CvUnit>, COMDAT
; _this$ = ecx

; 147  : 		if(m_target) 

	mov	ecx, DWORD PTR [ecx]
	test	ecx, ecx
	je	SHORT $LN4@FObjectHan

; 148  : 		{
; 149  : 			m_target->getDestructionNotification().removeTarget(*this);

	jmp	?getDestructionNotification@CvUnit@@QAEAAU?$DestructionNotification@V?$FObjectHandle@VCvUnit@@@@@@XZ ; CvUnit::getDestructionNotification
$LN4@FObjectHan:

; 150  : 		}
; 151  : 	}

	ret	0
??1?$FObjectHandle@VCvUnit@@@@QAE@XZ ENDP		; FObjectHandle<CvUnit>::~FObjectHandle<CvUnit>
_TEXT	ENDS
PUBLIC	??0?$FObjectHandle@VCvUnit@@@@QAE@PAVCvUnit@@@Z	; FObjectHandle<CvUnit>::FObjectHandle<CvUnit>
; Function compile flags: /Ogtpy
;	COMDAT ??0?$FObjectHandle@VCvUnit@@@@QAE@PAVCvUnit@@@Z
_TEXT	SEGMENT
_target$ = 8						; size = 4
??0?$FObjectHandle@VCvUnit@@@@QAE@PAVCvUnit@@@Z PROC	; FObjectHandle<CvUnit>::FObjectHandle<CvUnit>, COMDAT
; _this$ = ecx

; 156  : 	{

	push	esi
	mov	esi, ecx
	mov	ecx, DWORD PTR _target$[esp]
	mov	DWORD PTR [esi], ecx
	mov	BYTE PTR [esi+4], 0

; 157  : 		OBJECT_HANDLE_STACK;
; 158  : 		if(m_target)

	test	ecx, ecx
	je	SHORT $LN6@FObjectHan@2

; 159  : 		{
; 160  : 			m_target->getDestructionNotification().addTarget(*this);

	call	?getDestructionNotification@CvUnit@@QAEAAU?$DestructionNotification@V?$FObjectHandle@VCvUnit@@@@@@XZ ; CvUnit::getDestructionNotification
$LN6@FObjectHan@2:

; 161  : 		}
; 162  : 	}

	mov	eax, esi
	pop	esi
	ret	4
??0?$FObjectHandle@VCvUnit@@@@QAE@PAVCvUnit@@@Z ENDP	; FObjectHandle<CvUnit>::FObjectHandle<CvUnit>
_TEXT	ENDS
PUBLIC	??0?$FStaticVector@VCvTacticalDominanceZone@@$0GO@$00$0BCJ@$0A@@@QAE@XZ ; FStaticVector<CvTacticalDominanceZone,110,1,297,0>::FStaticVector<CvTacticalDominanceZone,110,1,297,0>
; Function compile flags: /Ogtpy
; File c:\users\enormousapplepie\documents\github\lekmod\lekmod_dll\fireplace\include\fireworks\ffastvector.h
;	COMDAT ??0?$FStaticVector@VCvTacticalDominanceZone@@$0GO@$00$0BCJ@$0A@@@QAE@XZ
_TEXT	SEGMENT
??0?$FStaticVector@VCvTacticalDominanceZone@@$0GO@$00$0BCJ@$0A@@@QAE@XZ PROC ; FStaticVector<CvTacticalDominanceZone,110,1,297,0>::FStaticVector<CvTacticalDominanceZone,110,1,297,0>, COMDAT
; _this$ = ecx

; 601  : 	FStaticVector()

	mov	eax, ecx

; 602  :     {
; 603  : 		m_uiCurrMaxSize = L;
; 604  : 		m_pData = Alloc(m_uiCurrMaxSize);

	lea	ecx, DWORD PTR [eax+12]
	mov	DWORD PTR [eax+4], 0
	mov	DWORD PTR [eax+8], 110			; 0000006eH
	mov	DWORD PTR [eax], ecx

; 605  : #ifdef BREAK_ON_STATIC_RESIZE
; 606  : 		m_iNumResized = 0;
; 607  : #endif
; 608  :     };

	ret	0
??0?$FStaticVector@VCvTacticalDominanceZone@@$0GO@$00$0BCJ@$0A@@@QAE@XZ ENDP ; FStaticVector<CvTacticalDominanceZone,110,1,297,0>::FStaticVector<CvTacticalDominanceZone,110,1,297,0>
_TEXT	ENDS
PUBLIC	?clear@?$BaseVector@VCvTacticalDominanceZone@@$00@@QAEXXZ ; BaseVector<CvTacticalDominanceZone,1>::clear
; Function compile flags: /Ogtpy
;	COMDAT ?clear@?$BaseVector@VCvTacticalDominanceZone@@$00@@QAEXXZ
_TEXT	SEGMENT
?clear@?$BaseVector@VCvTacticalDominanceZone@@$00@@QAEXXZ PROC ; BaseVector<CvTacticalDominanceZone,1>::clear, COMDAT
; _this$ = ecx

; 121  : 		Destroy(m_pData, m_uiCurrSize);
; 122  : 		m_uiCurrSize = 0;

	mov	DWORD PTR [ecx+4], 0

; 123  : 	};

	ret	0
?clear@?$BaseVector@VCvTacticalDominanceZone@@$00@@QAEXXZ ENDP ; BaseVector<CvTacticalDominanceZone,1>::clear
_TEXT	ENDS
PUBLIC	??0?$FStaticVector@PAVCvUnit@@$0PK@$00$0BCJ@$0A@@@QAE@XZ ; FStaticVector<CvUnit *,250,1,297,0>::FStaticVector<CvUnit *,250,1,297,0>
; Function compile flags: /Ogtpy
;	COMDAT ??0?$FStaticVector@PAVCvUnit@@$0PK@$00$0BCJ@$0A@@@QAE@XZ
_TEXT	SEGMENT
??0?$FStaticVector@PAVCvUnit@@$0PK@$00$0BCJ@$0A@@@QAE@XZ PROC ; FStaticVector<CvUnit *,250,1,297,0>::FStaticVector<CvUnit *,250,1,297,0>, COMDAT
; _this$ = ecx

; 601  : 	FStaticVector()

	mov	eax, ecx

; 602  :     {
; 603  : 		m_uiCurrMaxSize = L;
; 604  : 		m_pData = Alloc(m_uiCurrMaxSize);

	lea	ecx, DWORD PTR [eax+12]
	mov	DWORD PTR [eax+4], 0
	mov	DWORD PTR [eax+8], 250			; 000000faH
	mov	DWORD PTR [eax], ecx

; 605  : #ifdef BREAK_ON_STATIC_RESIZE
; 606  : 		m_iNumResized = 0;
; 607  : #endif
; 608  :     };

	ret	0
??0?$FStaticVector@PAVCvUnit@@$0PK@$00$0BCJ@$0A@@@QAE@XZ ENDP ; FStaticVector<CvUnit *,250,1,297,0>::FStaticVector<CvUnit *,250,1,297,0>
_TEXT	ENDS
PUBLIC	?clear@?$BaseVector@PAVCvUnit@@$00@@QAEXXZ	; BaseVector<CvUnit *,1>::clear
; Function compile flags: /Ogtpy
;	COMDAT ?clear@?$BaseVector@PAVCvUnit@@$00@@QAEXXZ
_TEXT	SEGMENT
?clear@?$BaseVector@PAVCvUnit@@$00@@QAEXXZ PROC		; BaseVector<CvUnit *,1>::clear, COMDAT
; _this$ = ecx

; 121  : 		Destroy(m_pData, m_uiCurrSize);
; 122  : 		m_uiCurrSize = 0;

	mov	DWORD PTR [ecx+4], 0

; 123  : 	};

	ret	0
?clear@?$BaseVector@PAVCvUnit@@$00@@QAEXXZ ENDP		; BaseVector<CvUnit *,1>::clear
_TEXT	ENDS
PUBLIC	?Free@?$FStaticVector@VCvTacticalDominanceZone@@$0GO@$00$0BCJ@$0A@@@IAEXPAVCvTacticalDominanceZone@@I@Z ; FStaticVector<CvTacticalDominanceZone,110,1,297,0>::Free
EXTRN	?FireFreeAlignedNoTracking@@YAXPAX@Z:PROC	; FireFreeAlignedNoTracking
; Function compile flags: /Ogtpy
;	COMDAT ?Free@?$FStaticVector@VCvTacticalDominanceZone@@$0GO@$00$0BCJ@$0A@@@IAEXPAVCvTacticalDominanceZone@@I@Z
_TEXT	SEGMENT
_pVal$ = 8						; size = 4
_uiNumElements$ = 12					; size = 4
?Free@?$FStaticVector@VCvTacticalDominanceZone@@$0GO@$00$0BCJ@$0A@@@IAEXPAVCvTacticalDominanceZone@@I@Z PROC ; FStaticVector<CvTacticalDominanceZone,110,1,297,0>::Free, COMDAT
; _this$ = ecx

; 810  : 		if( !bPODType) Destroy(pVal, uiNumElements);
; 811  : 		if( pVal != (T*)m_aData )

	mov	eax, DWORD PTR _pVal$[esp-4]
	add	ecx, 12					; 0000000cH
	cmp	eax, ecx
	je	SHORT $LN1@Free

; 812  : 			FFREEALIGNED( (unsigned char*)pVal );

	push	eax
	call	?FireFreeAlignedNoTracking@@YAXPAX@Z	; FireFreeAlignedNoTracking
	pop	ecx
$LN1@Free:

; 813  : 	};

	ret	8
?Free@?$FStaticVector@VCvTacticalDominanceZone@@$0GO@$00$0BCJ@$0A@@@IAEXPAVCvTacticalDominanceZone@@I@Z ENDP ; FStaticVector<CvTacticalDominanceZone,110,1,297,0>::Free
_TEXT	ENDS
PUBLIC	?Free@?$FStaticVector@PAVCvUnit@@$0PK@$00$0BCJ@$0A@@@IAEXPAPAVCvUnit@@I@Z ; FStaticVector<CvUnit *,250,1,297,0>::Free
; Function compile flags: /Ogtpy
;	COMDAT ?Free@?$FStaticVector@PAVCvUnit@@$0PK@$00$0BCJ@$0A@@@IAEXPAPAVCvUnit@@I@Z
_TEXT	SEGMENT
_pVal$ = 8						; size = 4
_uiNumElements$ = 12					; size = 4
?Free@?$FStaticVector@PAVCvUnit@@$0PK@$00$0BCJ@$0A@@@IAEXPAPAVCvUnit@@I@Z PROC ; FStaticVector<CvUnit *,250,1,297,0>::Free, COMDAT
; _this$ = ecx

; 810  : 		if( !bPODType) Destroy(pVal, uiNumElements);
; 811  : 		if( pVal != (T*)m_aData )

	mov	eax, DWORD PTR _pVal$[esp-4]
	add	ecx, 12					; 0000000cH
	cmp	eax, ecx
	je	SHORT $LN1@Free@2

; 812  : 			FFREEALIGNED( (unsigned char*)pVal );

	push	eax
	call	?FireFreeAlignedNoTracking@@YAXPAX@Z	; FireFreeAlignedNoTracking
	pop	ecx
$LN1@Free@2:

; 813  : 	};

	ret	8
?Free@?$FStaticVector@PAVCvUnit@@$0PK@$00$0BCJ@$0A@@@IAEXPAPAVCvUnit@@I@Z ENDP ; FStaticVector<CvUnit *,250,1,297,0>::Free
_TEXT	ENDS
PUBLIC	??1?$_Temp_iterator@VCvTacticalDominanceZone@@@std@@QAE@XZ ; std::_Temp_iterator<CvTacticalDominanceZone>::~_Temp_iterator<CvTacticalDominanceZone>
; Function compile flags: /Ogtpy
; File c:\program files (x86)\microsoft visual studio 9.0\vc\include\memory
;	COMDAT ??1?$_Temp_iterator@VCvTacticalDominanceZone@@@std@@QAE@XZ
_TEXT	SEGMENT
??1?$_Temp_iterator@VCvTacticalDominanceZone@@@std@@QAE@XZ PROC ; std::_Temp_iterator<CvTacticalDominanceZone>::~_Temp_iterator<CvTacticalDominanceZone>, COMDAT
; _this$ = ecx

; 546  : 		if (_Buf._Begin != 0)

	mov	eax, DWORD PTR [ecx]
	test	eax, eax
	je	SHORT $LN9@Temp_itera

; 547  : 			{	// destroy any constructed elements in buffer
; 548  : 			for (_Pty _Next = _Buf._Begin;
; 549  : 				_Next != _Buf._Hiwater; ++_Next)
; 550  : 				_Destroy(&*_Next);
; 551  : 			std::return_temporary_buffer(_Buf._Begin);

	push	eax
	call	??3@YAXPAX@Z				; operator delete
	pop	ecx
$LN9@Temp_itera:

; 552  : 			}
; 553  : 		}

	ret	0
??1?$_Temp_iterator@VCvTacticalDominanceZone@@@std@@QAE@XZ ENDP ; std::_Temp_iterator<CvTacticalDominanceZone>::~_Temp_iterator<CvTacticalDominanceZone>
_TEXT	ENDS
PUBLIC	??$_Distance@PAVCvTacticalDominanceZone@@H@std@@YAXPAVCvTacticalDominanceZone@@0AAH@Z ; std::_Distance<CvTacticalDominanceZone *,int>
; Function compile flags: /Ogtpy
; File c:\program files (x86)\microsoft visual studio 9.0\vc\include\xutility
;	COMDAT ??$_Distance@PAVCvTacticalDominanceZone@@H@std@@YAXPAVCvTacticalDominanceZone@@0AAH@Z
_TEXT	SEGMENT
__First$ = 8						; size = 4
__Last$ = 12						; size = 4
__Off$ = 16						; size = 4
??$_Distance@PAVCvTacticalDominanceZone@@H@std@@YAXPAVCvTacticalDominanceZone@@0AAH@Z PROC ; std::_Distance<CvTacticalDominanceZone *,int>, COMDAT

; 1893 : 	_Distance2(_First, _Last, _Off, _Iter_cat(_First));

	mov	ecx, DWORD PTR __Last$[esp-4]
	sub	ecx, DWORD PTR __First$[esp-4]
	mov	eax, 1808407283				; 6bca1af3H
	imul	ecx
	mov	eax, DWORD PTR __Off$[esp-4]
	sar	edx, 5
	mov	ecx, edx
	shr	ecx, 31					; 0000001fH
	add	ecx, edx
	add	DWORD PTR [eax], ecx

; 1894 : 	}

	ret	0
??$_Distance@PAVCvTacticalDominanceZone@@H@std@@YAXPAVCvTacticalDominanceZone@@0AAH@Z ENDP ; std::_Distance<CvTacticalDominanceZone *,int>
_TEXT	ENDS
PUBLIC	??$advance@PAVCvTacticalDominanceZone@@H@std@@YAXAAPAVCvTacticalDominanceZone@@H@Z ; std::advance<CvTacticalDominanceZone *,int>
; Function compile flags: /Ogtpy
;	COMDAT ??$advance@PAVCvTacticalDominanceZone@@H@std@@YAXAAPAVCvTacticalDominanceZone@@H@Z
_TEXT	SEGMENT
__Where$ = 8						; size = 4
__Off$ = 12						; size = 4
??$advance@PAVCvTacticalDominanceZone@@H@std@@YAXAAPAVCvTacticalDominanceZone@@H@Z PROC ; std::advance<CvTacticalDominanceZone *,int>, COMDAT

; 1774 : 	_Advance(_Where, _Off, _Iter_cat(_Where));

	mov	ecx, DWORD PTR __Off$[esp-4]
	mov	eax, DWORD PTR __Where$[esp-4]
	imul	ecx, 76					; 0000004cH
	add	DWORD PTR [eax], ecx

; 1775 : 	}

	ret	0
??$advance@PAVCvTacticalDominanceZone@@H@std@@YAXAAPAVCvTacticalDominanceZone@@H@Z ENDP ; std::advance<CvTacticalDominanceZone *,int>
_TEXT	ENDS
PUBLIC	__TI2?AVbad_alloc@std@@
PUBLIC	??$get_temporary_buffer@VCvTacticalDominanceZone@@@std@@YA?AU?$pair@PAVCvTacticalDominanceZone@@H@0@H@Z ; std::get_temporary_buffer<CvTacticalDominanceZone>
PUBLIC	__CTA2?AVbad_alloc@std@@
PUBLIC	__CT??_R0?AVbad_alloc@std@@@8??0bad_alloc@std@@QAE@ABV01@@Z12
PUBLIC	??0bad_alloc@std@@QAE@ABV01@@Z			; std::bad_alloc::bad_alloc
PUBLIC	__CT??_R0?AVexception@std@@@8??0exception@std@@QAE@ABV01@@Z12
EXTRN	??2@YAPAXIABUnothrow_t@std@@@Z:PROC		; operator new
EXTRN	?nothrow@std@@3Unothrow_t@1@B:BYTE		; std::nothrow
EXTRN	__CxxThrowException@8:PROC
EXTRN	??0exception@std@@QAE@ABV01@@Z:PROC		; std::exception::exception
;	COMDAT __CT??_R0?AVexception@std@@@8??0exception@std@@QAE@ABV01@@Z12
; File c:\program files (x86)\microsoft visual studio 9.0\vc\include\utility
xdata$x	SEGMENT
__CT??_R0?AVexception@std@@@8??0exception@std@@QAE@ABV01@@Z12 DD 00H
	DD	FLAT:??_R0?AVexception@std@@@8
	DD	00H
	DD	0ffffffffH
	ORG $+4
	DD	0cH
	DD	FLAT:??0exception@std@@QAE@ABV01@@Z
xdata$x	ENDS
;	COMDAT __CT??_R0?AVbad_alloc@std@@@8??0bad_alloc@std@@QAE@ABV01@@Z12
xdata$x	SEGMENT
__CT??_R0?AVbad_alloc@std@@@8??0bad_alloc@std@@QAE@ABV01@@Z12 DD 00H
	DD	FLAT:??_R0?AVbad_alloc@std@@@8
	DD	00H
	DD	0ffffffffH
	ORG $+4
	DD	0cH
	DD	FLAT:??0bad_alloc@std@@QAE@ABV01@@Z
xdata$x	ENDS
;	COMDAT __CTA2?AVbad_alloc@std@@
xdata$x	SEGMENT
__CTA2?AVbad_alloc@std@@ DD 02H
	DD	FLAT:__CT??_R0?AVbad_alloc@std@@@8??0bad_alloc@std@@QAE@ABV01@@Z12
	DD	FLAT:__CT??_R0?AVexception@std@@@8??0exception@std@@QAE@ABV01@@Z12
xdata$x	ENDS
;	COMDAT __TI2?AVbad_alloc@std@@
xdata$x	SEGMENT
__TI2?AVbad_alloc@std@@ DD 00H
	DD	FLAT:??1bad_alloc@std@@UAE@XZ
	DD	00H
	DD	FLAT:__CTA2?AVbad_alloc@std@@
; Function compile flags: /Ogtpy
; File c:\program files (x86)\microsoft visual studio 9.0\vc\include\memory
xdata$x	ENDS
;	COMDAT ??$get_temporary_buffer@VCvTacticalDominanceZone@@@std@@YA?AU?$pair@PAVCvTacticalDominanceZone@@H@0@H@Z
_TEXT	SEGMENT
$T226175 = -12						; size = 12
___$ReturnUdt$ = 8					; size = 4
$T226180 = 12						; size = 4
__Count$ = 12						; size = 4
??$get_temporary_buffer@VCvTacticalDominanceZone@@@std@@YA?AU?$pair@PAVCvTacticalDominanceZone@@H@0@H@Z PROC ; std::get_temporary_buffer<CvTacticalDominanceZone>, COMDAT

; 19   : 	{	// get raw temporary buffer of up to _Count elements

	sub	esp, 12					; 0000000cH
	push	esi

; 20   : 	_Ty _FARQ *_Pbuf;
; 21   : 
; 22   : 	if (_Count <= 0)

	mov	esi, DWORD PTR __Count$[esp+12]
	test	esi, esi
	jg	SHORT $LN7@get_tempor

; 23   : 		_Count = 0;

	xor	esi, esi
$LN5@get_tempor:

; 26   : 
; 27   : 	for (_Pbuf = 0; 0 < _Count; _Count /= 2)

	xor	ecx, ecx
	test	esi, esi
	jle	SHORT $LN15@get_tempor
$LL4@get_tempor:

; 28   : 		if ((_Pbuf = (_Ty _FARQ *)operator new(
; 29   : 			(_SIZT)_Count * sizeof (_Ty), nothrow)) != 0)

	mov	edx, esi
	imul	edx, 76					; 0000004cH
	push	OFFSET ?nothrow@std@@3Unothrow_t@1@B	; std::nothrow
	push	edx
	call	??2@YAPAXIABUnothrow_t@std@@@Z		; operator new
	mov	ecx, eax
	add	esp, 8
	test	ecx, ecx
	jne	SHORT $LN15@get_tempor
	mov	eax, esi
	cdq
	sub	eax, edx
	sar	eax, 1
	mov	esi, eax
	test	esi, esi
	jg	SHORT $LL4@get_tempor
$LN15@get_tempor:

; 30   : 			break;
; 31   : 
; 32   : 	return (pair<_Ty _FARQ *, _PDFT>(_Pbuf, _Count));

	mov	eax, DWORD PTR ___$ReturnUdt$[esp+12]
	mov	DWORD PTR [eax+4], esi
	mov	DWORD PTR [eax], ecx
	pop	esi

; 33   : 	}

	add	esp, 12					; 0000000cH
	ret	0
$LN7@get_tempor:

; 24   : 	else if (((size_t)(-1) / _Count) < sizeof (_Ty))

	or	eax, -1
	xor	edx, edx
	div	esi
	cmp	eax, 76					; 0000004cH
	jae	SHORT $LN5@get_tempor

; 25   : 		_THROW_NCEE(std::bad_alloc, NULL);

	lea	eax, DWORD PTR $T226180[esp+12]
	push	eax
	lea	ecx, DWORD PTR $T226175[esp+20]
	mov	DWORD PTR $T226180[esp+16], 0
	call	DWORD PTR __imp_??0exception@std@@QAE@ABQBD@Z
	push	OFFSET __TI2?AVbad_alloc@std@@
	lea	ecx, DWORD PTR $T226175[esp+20]
	push	ecx
	mov	DWORD PTR $T226175[esp+24], OFFSET ??_7bad_alloc@std@@6B@
	call	__CxxThrowException@8
$LN18@get_tempor:
$LN17@get_tempor:
	int	3
??$get_temporary_buffer@VCvTacticalDominanceZone@@@std@@YA?AU?$pair@PAVCvTacticalDominanceZone@@H@0@H@Z ENDP ; std::get_temporary_buffer<CvTacticalDominanceZone>
_TEXT	ENDS
EXTRN	__imp_??0exception@std@@QAE@ABV01@@Z:PROC
; Function compile flags: /Ogtpy
;	COMDAT ??0bad_alloc@std@@QAE@ABV01@@Z
_TEXT	SEGMENT
___that$ = 8						; size = 4
??0bad_alloc@std@@QAE@ABV01@@Z PROC			; std::bad_alloc::bad_alloc, COMDAT
; _this$ = ecx
	mov	eax, DWORD PTR ___that$[esp-4]
	push	esi
	push	eax
	mov	esi, ecx
	call	DWORD PTR __imp_??0exception@std@@QAE@ABV01@@Z
	mov	DWORD PTR [esi], OFFSET ??_7bad_alloc@std@@6B@
	mov	eax, esi
	pop	esi
	ret	4
??0bad_alloc@std@@QAE@ABV01@@Z ENDP			; std::bad_alloc::bad_alloc
_TEXT	ENDS
PUBLIC	??0?$_Temp_iterator@VCvTacticalDominanceZone@@@std@@QAE@ABV01@@Z ; std::_Temp_iterator<CvTacticalDominanceZone>::_Temp_iterator<CvTacticalDominanceZone>
; Function compile flags: /Ogtpy
;	COMDAT ??0?$_Temp_iterator@VCvTacticalDominanceZone@@@std@@QAE@ABV01@@Z
_TEXT	SEGMENT
__Right$ = 8						; size = 4
??0?$_Temp_iterator@VCvTacticalDominanceZone@@@std@@QAE@ABV01@@Z PROC ; std::_Temp_iterator<CvTacticalDominanceZone>::_Temp_iterator<CvTacticalDominanceZone>, COMDAT
; _this$ = ecx

; 535  : 	_Temp_iterator(const _Temp_iterator<_Ty>& _Right)

	mov	eax, ecx

; 536  : 		{	// construct from _Right (share active buffer)
; 537  : 		_Buf._Begin = 0;	// clear stored buffer, for safe destruction

	xor	ecx, ecx
	mov	DWORD PTR [eax], ecx

; 538  : 		_Buf._Current = 0;

	mov	DWORD PTR [eax+4], ecx

; 539  : 		_Buf._Hiwater = 0;

	mov	DWORD PTR [eax+8], ecx

; 540  : 		_Buf._Size = 0;

	mov	DWORD PTR [eax+12], ecx

; 541  : 		*this = _Right;

	mov	ecx, DWORD PTR __Right$[esp-4]
	mov	edx, DWORD PTR [ecx+16]
	mov	DWORD PTR [eax+16], edx

; 542  : 		}

	ret	4
??0?$_Temp_iterator@VCvTacticalDominanceZone@@@std@@QAE@ABV01@@Z ENDP ; std::_Temp_iterator<CvTacticalDominanceZone>::_Temp_iterator<CvTacticalDominanceZone>
_TEXT	ENDS
PUBLIC	??$iter_swap@PAVCvTacticalDominanceZone@@PAV1@@std@@YAXPAVCvTacticalDominanceZone@@0@Z ; std::iter_swap<CvTacticalDominanceZone *,CvTacticalDominanceZone *>
; Function compile flags: /Ogtpy
; File c:\program files (x86)\microsoft visual studio 9.0\vc\include\algorithm
;	COMDAT ??$iter_swap@PAVCvTacticalDominanceZone@@PAV1@@std@@YAXPAVCvTacticalDominanceZone@@0@Z
_TEXT	SEGMENT
__Tmp$226205 = -76					; size = 76
__Left$ = 8						; size = 4
__Right$ = 12						; size = 4
??$iter_swap@PAVCvTacticalDominanceZone@@PAV1@@std@@YAXPAVCvTacticalDominanceZone@@0@Z PROC ; std::iter_swap<CvTacticalDominanceZone *,CvTacticalDominanceZone *>, COMDAT

; 594  : 	swap(*_Left, *_Right);

	mov	eax, DWORD PTR __Left$[esp-4]
	mov	edx, DWORD PTR __Right$[esp-4]
	sub	esp, 76					; 0000004cH
	cmp	eax, edx
	je	SHORT $LN3@iter_swap
	push	esi
	push	edi
	mov	ecx, 19					; 00000013H
	mov	esi, eax
	lea	edi, DWORD PTR __Tmp$226205[esp+84]
	rep movsd
	mov	ecx, 19					; 00000013H
	mov	esi, edx
	mov	edi, eax
	rep movsd
	mov	ecx, 19					; 00000013H
	lea	esi, DWORD PTR __Tmp$226205[esp+84]
	mov	edi, edx
	rep movsd
	pop	edi
	pop	esi
$LN3@iter_swap:

; 595  : 	}

	add	esp, 76					; 0000004cH
	ret	0
??$iter_swap@PAVCvTacticalDominanceZone@@PAV1@@std@@YAXPAVCvTacticalDominanceZone@@0@Z ENDP ; std::iter_swap<CvTacticalDominanceZone *,CvTacticalDominanceZone *>
_TEXT	ENDS
PUBLIC	??$unchecked_copy_backward@PAVCvTacticalDominanceZone@@PAV1@@stdext@@YAPAVCvTacticalDominanceZone@@PAV1@00@Z ; stdext::unchecked_copy_backward<CvTacticalDominanceZone *,CvTacticalDominanceZone *>
; Function compile flags: /Ogtpy
; File c:\program files (x86)\microsoft visual studio 9.0\vc\include\xutility
;	COMDAT ??$unchecked_copy_backward@PAVCvTacticalDominanceZone@@PAV1@@stdext@@YAPAVCvTacticalDominanceZone@@PAV1@00@Z
_TEXT	SEGMENT
__First$ = 8						; size = 4
__Last$ = 12						; size = 4
__Dest$ = 16						; size = 4
??$unchecked_copy_backward@PAVCvTacticalDominanceZone@@PAV1@@stdext@@YAPAVCvTacticalDominanceZone@@PAV1@00@Z PROC ; stdext::unchecked_copy_backward<CvTacticalDominanceZone *,CvTacticalDominanceZone *>, COMDAT

; 3637 : 		return (_STD _Copy_backward_opt(_CHECKED_BASE(_First), _CHECKED_BASE(_Last), _Dest,
; 3638 : 			_STD _Iter_random(_First, _Dest), _STD _Ptr_cat(_First, _Dest), _STD _Range_checked_iterator_tag()));

	mov	edx, DWORD PTR __Last$[esp-4]
	mov	eax, DWORD PTR __Dest$[esp-4]
	push	ebx
	mov	ebx, DWORD PTR __First$[esp]
	cmp	ebx, edx
	je	SHORT $LN7@unchecked_
	push	esi
	push	edi
$LL8@unchecked_:
	sub	edx, 76					; 0000004cH
	sub	eax, 76					; 0000004cH
	mov	ecx, 19					; 00000013H
	mov	esi, edx
	mov	edi, eax
	rep movsd
	cmp	edx, ebx
	jne	SHORT $LL8@unchecked_
	pop	edi
	pop	esi
$LN7@unchecked_:
	pop	ebx

; 3639 : 	}

	ret	0
??$unchecked_copy_backward@PAVCvTacticalDominanceZone@@PAV1@@stdext@@YAPAVCvTacticalDominanceZone@@PAV1@00@Z ENDP ; stdext::unchecked_copy_backward<CvTacticalDominanceZone *,CvTacticalDominanceZone *>
_TEXT	ENDS
PUBLIC	??$_Merge_backward@PAVCvTacticalDominanceZone@@PAV1@PAV1@@std@@YAPAVCvTacticalDominanceZone@@PAV1@0000U_Range_checked_iterator_tag@0@@Z ; std::_Merge_backward<CvTacticalDominanceZone *,CvTacticalDominanceZone *,CvTacticalDominanceZone *>
; Function compile flags: /Ogtpy
; File c:\program files (x86)\microsoft visual studio 9.0\vc\include\algorithm
;	COMDAT ??$_Merge_backward@PAVCvTacticalDominanceZone@@PAV1@PAV1@@std@@YAPAVCvTacticalDominanceZone@@PAV1@0000U_Range_checked_iterator_tag@0@@Z
_TEXT	SEGMENT
__First1$ = 8						; size = 4
__Last1$ = 12						; size = 4
__First2$ = 16						; size = 4
__Last2$ = 20						; size = 4
__Dest$ = 24						; size = 4
___formal$ = 28						; size = 1
??$_Merge_backward@PAVCvTacticalDominanceZone@@PAV1@PAV1@@std@@YAPAVCvTacticalDominanceZone@@PAV1@0000U_Range_checked_iterator_tag@0@@Z PROC ; std::_Merge_backward<CvTacticalDominanceZone *,CvTacticalDominanceZone *,CvTacticalDominanceZone *>, COMDAT

; 2711 : 	for (; ; )
; 2712 : 		if (_First1 == _Last1)

	mov	edx, DWORD PTR __Last1$[esp-4]
	mov	eax, DWORD PTR __Dest$[esp-4]
	push	ebx
	mov	ebx, DWORD PTR __Last2$[esp]
	push	ebp
	mov	ebp, DWORD PTR __First1$[esp+4]
	push	esi
	push	edi
	cmp	ebp, edx
	je	SHORT $LN37@Merge_back
$LL8@Merge_back:

; 2714 : 		else if (_First2 == _Last2)

	cmp	DWORD PTR __First2$[esp+12], ebx
	je	SHORT $LN38@Merge_back

; 2716 : 		else if (_DEBUG_LT(*--_Last2, *--_Last1))

	mov	ecx, DWORD PTR [ebx-16]
	sub	ebx, 76					; 0000004cH
	sub	edx, 76					; 0000004cH

; 2717 : 			*--_Dest = *_Last1, ++_Last2;

	sub	eax, 76					; 0000004cH
	cmp	ecx, DWORD PTR [edx+60]
	mov	edi, eax
	mov	ecx, 19					; 00000013H
	jle	SHORT $LN2@Merge_back
	mov	esi, edx
	add	ebx, 76					; 0000004cH

; 2718 : 		else

	jmp	SHORT $LN42@Merge_back
$LN2@Merge_back:

; 2719 : 			*--_Dest = *_Last2, ++_Last1;

	mov	esi, ebx
	add	edx, 76					; 0000004cH
$LN42@Merge_back:
	rep movsd
	cmp	ebp, edx
	jne	SHORT $LL8@Merge_back
$LN37@Merge_back:

; 2713 : 			return (_STDEXT unchecked_copy_backward(_First2, _Last2, _Dest));

	mov	ebp, DWORD PTR __First2$[esp+12]
	mov	edx, ebx
	cmp	ebp, ebx
	je	SHORT $LN7@Merge_back
$LL18@Merge_back:
	sub	edx, 76					; 0000004cH
	sub	eax, 76					; 0000004cH
	mov	ecx, 19					; 00000013H
	mov	esi, edx
	mov	edi, eax
	rep movsd
	cmp	edx, ebp
	jne	SHORT $LL18@Merge_back
	pop	edi
	pop	esi
	pop	ebp
	pop	ebx

; 2720 : 	}

	ret	0
$LN38@Merge_back:

; 2715 : 			return (_STDEXT unchecked_copy_backward(_First1, _Last1, _Dest));

	cmp	ebp, edx
	je	SHORT $LN7@Merge_back
$LL28@Merge_back:
	sub	edx, 76					; 0000004cH
	sub	eax, 76					; 0000004cH
	mov	ecx, 19					; 00000013H
	mov	esi, edx
	mov	edi, eax
	rep movsd
	cmp	edx, ebp
	jne	SHORT $LL28@Merge_back
$LN7@Merge_back:
	pop	edi
	pop	esi
	pop	ebp
	pop	ebx

; 2720 : 	}

	ret	0
??$_Merge_backward@PAVCvTacticalDominanceZone@@PAV1@PAV1@@std@@YAPAVCvTacticalDominanceZone@@PAV1@0000U_Range_checked_iterator_tag@0@@Z ENDP ; std::_Merge_backward<CvTacticalDominanceZone *,CvTacticalDominanceZone *,CvTacticalDominanceZone *>
_TEXT	ENDS
PUBLIC	??$_Lower_bound@PAVCvTacticalDominanceZone@@V1@H@std@@YAPAVCvTacticalDominanceZone@@PAV1@0ABV1@PAH@Z ; std::_Lower_bound<CvTacticalDominanceZone *,CvTacticalDominanceZone,int>
; Function compile flags: /Ogtpy
;	COMDAT ??$_Lower_bound@PAVCvTacticalDominanceZone@@V1@H@std@@YAPAVCvTacticalDominanceZone@@PAV1@0ABV1@PAH@Z
_TEXT	SEGMENT
__First$ = 8						; size = 4
__Last$ = 12						; size = 4
__Val$ = 16						; size = 4
___formal$ = 20						; size = 4
??$_Lower_bound@PAVCvTacticalDominanceZone@@V1@H@std@@YAPAVCvTacticalDominanceZone@@PAV1@0ABV1@PAH@Z PROC ; std::_Lower_bound<CvTacticalDominanceZone *,CvTacticalDominanceZone,int>, COMDAT

; 2253 : 	_DEBUG_ORDER_SINGLE(_First, _Last, true);
; 2254 : 	_Diff _Count = 0;
; 2255 : 	_Distance(_First, _Last, _Count);

	mov	ecx, DWORD PTR __Last$[esp-4]
	push	esi
	push	edi
	mov	edi, DWORD PTR __First$[esp+4]
	sub	ecx, edi
	mov	eax, 1808407283				; 6bca1af3H
	imul	ecx
	sar	edx, 5
	mov	esi, edx
	shr	esi, 31					; 0000001fH
	add	esi, edx

; 2256 : 
; 2257 : 	for (; 0 < _Count; )

	test	esi, esi
	jle	SHORT $LN22@Lower_boun
	mov	eax, DWORD PTR __Val$[esp+4]
	push	ebx
	mov	ebx, DWORD PTR [eax+60]
	npad	7
$LL4@Lower_boun:

; 2258 : 		{	// divide and conquer, find half that contains answer
; 2259 : 		_Diff _Count2 = _Count / 2;

	mov	eax, esi
	cdq
	sub	eax, edx
	sar	eax, 1

; 2260 : 		_FwdIt _Mid = _First;
; 2261 : 		std::advance(_Mid, _Count2);

	mov	ecx, eax
	imul	ecx, 76					; 0000004cH
	add	ecx, edi

; 2262 : 		_DEBUG_ORDER_SINGLE(_Mid, _Last, false);
; 2263 : 
; 2264 : 		if (_DEBUG_LT(*_Mid, _Val))

	cmp	DWORD PTR [ecx+60], ebx
	jle	SHORT $LN2@Lower_boun

; 2265 : 			_First = ++_Mid, _Count -= _Count2 + 1;

	lea	edi, DWORD PTR [ecx+76]
	or	ecx, -1
	sub	ecx, eax
	add	esi, ecx

; 2266 : 		else

	jmp	SHORT $LN1@Lower_boun
$LN2@Lower_boun:

; 2267 : 			_Count = _Count2;

	mov	esi, eax
$LN1@Lower_boun:

; 2256 : 
; 2257 : 	for (; 0 < _Count; )

	test	esi, esi
	jg	SHORT $LL4@Lower_boun
	pop	ebx
$LN22@Lower_boun:

; 2268 : 		}
; 2269 : 	return (_First);

	mov	eax, edi
	pop	edi
	pop	esi

; 2270 : 	}

	ret	0
??$_Lower_bound@PAVCvTacticalDominanceZone@@V1@H@std@@YAPAVCvTacticalDominanceZone@@PAV1@0ABV1@PAH@Z ENDP ; std::_Lower_bound<CvTacticalDominanceZone *,CvTacticalDominanceZone,int>
_TEXT	ENDS
PUBLIC	??$_Upper_bound@PAVCvTacticalDominanceZone@@V1@H@std@@YAPAVCvTacticalDominanceZone@@PAV1@0ABV1@PAH@Z ; std::_Upper_bound<CvTacticalDominanceZone *,CvTacticalDominanceZone,int>
; Function compile flags: /Ogtpy
;	COMDAT ??$_Upper_bound@PAVCvTacticalDominanceZone@@V1@H@std@@YAPAVCvTacticalDominanceZone@@PAV1@0ABV1@PAH@Z
_TEXT	SEGMENT
__First$ = 8						; size = 4
__Last$ = 12						; size = 4
__Val$ = 16						; size = 4
___formal$ = 20						; size = 4
??$_Upper_bound@PAVCvTacticalDominanceZone@@V1@H@std@@YAPAVCvTacticalDominanceZone@@PAV1@0ABV1@PAH@Z PROC ; std::_Upper_bound<CvTacticalDominanceZone *,CvTacticalDominanceZone,int>, COMDAT

; 2325 : 	_DEBUG_ORDER_SINGLE(_First, _Last, true);
; 2326 : 	_Diff _Count = 0;
; 2327 : 	_Distance(_First, _Last, _Count);

	mov	ecx, DWORD PTR __Last$[esp-4]
	push	esi
	push	edi
	mov	edi, DWORD PTR __First$[esp+4]
	sub	ecx, edi
	mov	eax, 1808407283				; 6bca1af3H
	imul	ecx
	sar	edx, 5
	mov	esi, edx
	shr	esi, 31					; 0000001fH
	add	esi, edx

; 2328 : 	for (; 0 < _Count; )

	test	esi, esi
	jle	SHORT $LN22@Upper_boun
	mov	eax, DWORD PTR __Val$[esp+4]
	push	ebx
	mov	ebx, DWORD PTR [eax+60]
	npad	7
$LL4@Upper_boun:

; 2329 : 		{	// divide and conquer, find half that contains answer
; 2330 : 		_Diff _Count2 = _Count / 2;

	mov	eax, esi
	cdq
	sub	eax, edx
	sar	eax, 1

; 2331 : 		_FwdIt _Mid = _First;
; 2332 : 		std::advance(_Mid, _Count2);

	mov	ecx, eax
	imul	ecx, 76					; 0000004cH
	add	ecx, edi

; 2333 : 		_DEBUG_ORDER_SINGLE(_Mid, _Last, false);
; 2334 : 
; 2335 : 		if (!_DEBUG_LT(_Val, *_Mid))

	cmp	ebx, DWORD PTR [ecx+60]
	jg	SHORT $LN2@Upper_boun

; 2336 : 			_First = ++_Mid, _Count -= _Count2 + 1;

	lea	edi, DWORD PTR [ecx+76]
	or	ecx, -1
	sub	ecx, eax
	add	esi, ecx

; 2337 : 		else

	jmp	SHORT $LN1@Upper_boun
$LN2@Upper_boun:

; 2338 : 			_Count = _Count2;

	mov	esi, eax
$LN1@Upper_boun:

; 2328 : 	for (; 0 < _Count; )

	test	esi, esi
	jg	SHORT $LL4@Upper_boun
	pop	ebx
$LN22@Upper_boun:

; 2339 : 		}
; 2340 : 	return (_First);

	mov	eax, edi
	pop	edi
	pop	esi

; 2341 : 	}

	ret	0
??$_Upper_bound@PAVCvTacticalDominanceZone@@V1@H@std@@YAPAVCvTacticalDominanceZone@@PAV1@0ABV1@PAH@Z ENDP ; std::_Upper_bound<CvTacticalDominanceZone *,CvTacticalDominanceZone,int>
_TEXT	ENDS
PUBLIC	??$unchecked_copy@PAVCvTacticalDominanceZone@@PAV1@@stdext@@YAPAVCvTacticalDominanceZone@@PAV1@00@Z ; stdext::unchecked_copy<CvTacticalDominanceZone *,CvTacticalDominanceZone *>
; Function compile flags: /Ogtpy
; File c:\program files (x86)\microsoft visual studio 9.0\vc\include\xutility
;	COMDAT ??$unchecked_copy@PAVCvTacticalDominanceZone@@PAV1@@stdext@@YAPAVCvTacticalDominanceZone@@PAV1@00@Z
_TEXT	SEGMENT
__First$ = 8						; size = 4
__Last$ = 12						; size = 4
__Dest$ = 16						; size = 4
??$unchecked_copy@PAVCvTacticalDominanceZone@@PAV1@@stdext@@YAPAVCvTacticalDominanceZone@@PAV1@00@Z PROC ; stdext::unchecked_copy<CvTacticalDominanceZone *,CvTacticalDominanceZone *>, COMDAT

; 3605 : 		return (_STD _Copy_opt(_CHECKED_BASE(_First), _CHECKED_BASE(_Last), _Dest,
; 3606 : 			_STD _Iter_random(_First, _Dest), _STD _Ptr_cat(_First, _Dest), _STD _Range_checked_iterator_tag()));

	mov	edx, DWORD PTR __First$[esp-4]
	mov	eax, DWORD PTR __Dest$[esp-4]
	push	ebx
	mov	ebx, DWORD PTR __Last$[esp]
	cmp	edx, ebx
	je	SHORT $LN7@unchecked_@2
	push	esi
	push	edi
$LL9@unchecked_@2:
	mov	esi, edx
	mov	edi, eax
	add	edx, 76					; 0000004cH
	mov	ecx, 19					; 00000013H
	add	eax, 76					; 0000004cH
	rep movsd
	cmp	edx, ebx
	jne	SHORT $LL9@unchecked_@2
	pop	edi
	pop	esi
$LN7@unchecked_@2:
	pop	ebx

; 3607 : 	}

	ret	0
??$unchecked_copy@PAVCvTacticalDominanceZone@@PAV1@@stdext@@YAPAVCvTacticalDominanceZone@@PAV1@00@Z ENDP ; stdext::unchecked_copy<CvTacticalDominanceZone *,CvTacticalDominanceZone *>
_TEXT	ENDS
PUBLIC	??4?$_Temp_iterator@VCvTacticalDominanceZone@@@std@@QAEAAV01@ABVCvTacticalDominanceZone@@@Z ; std::_Temp_iterator<CvTacticalDominanceZone>::operator=
; Function compile flags: /Ogtpy
; File c:\program files (x86)\microsoft visual studio 9.0\vc\include\memory
;	COMDAT ??4?$_Temp_iterator@VCvTacticalDominanceZone@@@std@@QAEAAV01@ABVCvTacticalDominanceZone@@@Z
_TEXT	SEGMENT
__Val$ = 8						; size = 4
??4?$_Temp_iterator@VCvTacticalDominanceZone@@@std@@QAEAAV01@ABVCvTacticalDominanceZone@@@Z PROC ; std::_Temp_iterator<CvTacticalDominanceZone>::operator=, COMDAT
; _this$ = ecx

; 562  : 		{	// assign or construct value into active buffer, and increment

	mov	eax, ecx

; 563  : 		if (_Pbuf->_Current < _Pbuf->_Hiwater)

	mov	ecx, DWORD PTR [eax+16]
	mov	edx, DWORD PTR [ecx+4]
	push	esi
	push	edi
	cmp	edx, DWORD PTR [ecx+8]
	jae	SHORT $LN2@operator

; 564  : 			*_Pbuf->_Current++ = _Val;	// below high water mark, assign

	mov	esi, DWORD PTR __Val$[esp+4]
	mov	edx, ecx
	mov	edi, DWORD PTR [edx+4]
	mov	ecx, 19					; 00000013H
	rep movsd
	mov	ecx, DWORD PTR [eax+16]
	add	DWORD PTR [ecx+4], 76			; 0000004cH
	pop	edi
	pop	esi

; 571  : 			}
; 572  : 		return (*this);
; 573  : 		}

	ret	4
$LN2@operator:

; 565  : 		else
; 566  : 			{	// above high water mark, construct
; 567  : 			_SCL_SECURE_VALIDATE((_Pbuf->_Current - _Pbuf->_Begin) < _Pbuf->_Size);
; 568  : 			_Pty _Ptr = &*_Pbuf->_Current;
; 569  : 			_Construct(_Ptr, _Val);

	mov	edi, DWORD PTR [ecx+4]
	test	edi, edi
	je	SHORT $LN7@operator
	mov	esi, DWORD PTR __Val$[esp+4]
	mov	ecx, 19					; 00000013H
	rep movsd
$LN7@operator:

; 570  : 			_Pbuf->_Hiwater = ++_Pbuf->_Current;

	mov	ecx, DWORD PTR [eax+16]
	add	DWORD PTR [ecx+4], 76			; 0000004cH
	mov	ecx, DWORD PTR [eax+16]
	mov	edx, DWORD PTR [ecx+4]
	pop	edi
	mov	DWORD PTR [ecx+8], edx
	pop	esi

; 571  : 			}
; 572  : 		return (*this);
; 573  : 		}

	ret	4
??4?$_Temp_iterator@VCvTacticalDominanceZone@@@std@@QAEAAV01@ABVCvTacticalDominanceZone@@@Z ENDP ; std::_Temp_iterator<CvTacticalDominanceZone>::operator=
_TEXT	ENDS
PUBLIC	??$_Rotate@PAVCvTacticalDominanceZone@@@std@@YAXPAVCvTacticalDominanceZone@@00Urandom_access_iterator_tag@0@@Z ; std::_Rotate<CvTacticalDominanceZone *>
; Function compile flags: /Ogtpy
; File c:\program files (x86)\microsoft visual studio 9.0\vc\include\algorithm
;	COMDAT ??$_Rotate@PAVCvTacticalDominanceZone@@@std@@YAXPAVCvTacticalDominanceZone@@00Urandom_access_iterator_tag@0@@Z
_TEXT	SEGMENT
__First$ = 8						; size = 4
__Mid$ = 12						; size = 4
__Last$ = 16						; size = 4
___formal$ = 20						; size = 1
??$_Rotate@PAVCvTacticalDominanceZone@@@std@@YAXPAVCvTacticalDominanceZone@@00Urandom_access_iterator_tag@0@@Z PROC ; std::_Rotate<CvTacticalDominanceZone *>, COMDAT

; 1713 : 	_Rotate(_First, _Mid, _Last, _Dist_type(_First), _Val_type(_First));

	mov	eax, DWORD PTR __Last$[esp-4]
	mov	ecx, DWORD PTR __Mid$[esp-4]
	mov	edx, DWORD PTR __First$[esp-4]
	push	0
	push	0
	push	eax
	push	ecx
	push	edx
	call	??$_Rotate@PAVCvTacticalDominanceZone@@HV1@@std@@YAXPAVCvTacticalDominanceZone@@00PAH0@Z ; std::_Rotate<CvTacticalDominanceZone *,int,CvTacticalDominanceZone>
	add	esp, 20					; 00000014H

; 1714 : 	}

	ret	0
??$_Rotate@PAVCvTacticalDominanceZone@@@std@@YAXPAVCvTacticalDominanceZone@@00Urandom_access_iterator_tag@0@@Z ENDP ; std::_Rotate<CvTacticalDominanceZone *>
_TEXT	ENDS
PUBLIC	?isEmbarked@CvUnit@@QBE_NXZ			; CvUnit::isEmbarked
; Function compile flags: /Ogtpy
; File c:\users\enormousapplepie\documents\github\lekmod\lekmod_dll\cvgamecoredll_expansion2\cvunit.h
;	COMDAT ?isEmbarked@CvUnit@@QBE_NXZ
_TEXT	SEGMENT
?isEmbarked@CvUnit@@QBE_NXZ PROC			; CvUnit::isEmbarked, COMDAT
; _this$ = ecx

; 257  : 		return m_bEmbarked;

	mov	al, BYTE PTR [ecx+1652]

; 258  : 	}

	ret	0
?isEmbarked@CvUnit@@QBE_NXZ ENDP			; CvUnit::isEmbarked
_TEXT	ENDS
PUBLIC	?getX@CvUnit@@QBEHXZ				; CvUnit::getX
; Function compile flags: /Ogtpy
;	COMDAT ?getX@CvUnit@@QBEHXZ
_TEXT	SEGMENT
?getX@CvUnit@@QBEHXZ PROC				; CvUnit::getX, COMDAT
; _this$ = ecx

; 673  : 		return m_iX.get();

	mov	eax, DWORD PTR [ecx+76]

; 674  : 	}

	ret	0
?getX@CvUnit@@QBEHXZ ENDP				; CvUnit::getX
_TEXT	ENDS
PUBLIC	?getY@CvUnit@@QBEHXZ				; CvUnit::getY
; Function compile flags: /Ogtpy
;	COMDAT ?getY@CvUnit@@QBEHXZ
_TEXT	SEGMENT
?getY@CvUnit@@QBEHXZ PROC				; CvUnit::getY, COMDAT
; _this$ = ecx

; 678  : 		return m_iY.get();

	mov	eax, DWORD PTR [ecx+88]

; 679  : 	}

	ret	0
?getY@CvUnit@@QBEHXZ ENDP				; CvUnit::getY
_TEXT	ENDS
PUBLIC	?getOwner@CvUnit@@QBE?AW4PlayerTypes@@XZ	; CvUnit::getOwner
; Function compile flags: /Ogtpy
;	COMDAT ?getOwner@CvUnit@@QBE?AW4PlayerTypes@@XZ
_TEXT	SEGMENT
?getOwner@CvUnit@@QBE?AW4PlayerTypes@@XZ PROC		; CvUnit::getOwner, COMDAT
; _this$ = ecx

; 1046 : 		return m_eOwner.get();

	mov	eax, DWORD PTR [ecx+40]

; 1047 : 	}

	ret	0
?getOwner@CvUnit@@QBE?AW4PlayerTypes@@XZ ENDP		; CvUnit::getOwner
_TEXT	ENDS
PUBLIC	?IsCombatUnit@CvUnit@@QBE_NXZ			; CvUnit::IsCombatUnit
; Function compile flags: /Ogtpy
;	COMDAT ?IsCombatUnit@CvUnit@@QBE_NXZ
_TEXT	SEGMENT
?IsCombatUnit@CvUnit@@QBE_NXZ PROC			; CvUnit::IsCombatUnit, COMDAT
; _this$ = ecx

; 1243 : 		return (m_iBaseCombat > 0);

	xor	eax, eax
	cmp	DWORD PTR [ecx+1044], eax
	setg	al

; 1244 : 	}

	ret	0
?IsCombatUnit@CvUnit@@QBE_NXZ ENDP			; CvUnit::IsCombatUnit
_TEXT	ENDS
EXTRN	?sr_TeamTypes@CvPreGame@@3ABV?$vector@W4TeamTypes@@V?$allocator@W4TeamTypes@@@std@@@std@@B:DWORD ; CvPreGame::sr_TeamTypes
; Function compile flags: /Ogtpy
; File c:\users\enormousapplepie\documents\github\lekmod\lekmod_dll\cvgamecoredll_expansion2\cvpregame.h
;	COMDAT ?teamType@CvPreGame@@YA?AW4TeamTypes@@W4PlayerTypes@@@Z
_TEXT	SEGMENT
?teamType@CvPreGame@@YA?AW4TeamTypes@@W4PlayerTypes@@@Z PROC ; CvPreGame::teamType, COMDAT
; _p$ = eax

; 299  : 	if(p >= 0 && p < MAX_PLAYERS)

	cmp	eax, 63					; 0000003fH
	ja	SHORT $LN1@teamType

; 300  : 		return sr_TeamTypes[p];

	mov	ecx, DWORD PTR ?sr_TeamTypes@CvPreGame@@3ABV?$vector@W4TeamTypes@@V?$allocator@W4TeamTypes@@@std@@@std@@B ; CvPreGame::sr_TeamTypes
	mov	edx, DWORD PTR [ecx+4]
	mov	eax, DWORD PTR [edx+eax*4]

; 302  : }

	ret	0
$LN1@teamType:

; 301  : 	return NO_TEAM;

	or	eax, -1

; 302  : }

	ret	0
?teamType@CvPreGame@@YA?AW4TeamTypes@@W4PlayerTypes@@@Z ENDP ; CvPreGame::teamType
_TEXT	ENDS
PUBLIC	?GetID@CvCity@@QBEHXZ				; CvCity::GetID
; Function compile flags: /Ogtpy
; File c:\users\enormousapplepie\documents\github\lekmod\lekmod_dll\cvgamecoredll_expansion2\cvcity.h
;	COMDAT ?GetID@CvCity@@QBEHXZ
_TEXT	SEGMENT
?GetID@CvCity@@QBEHXZ PROC				; CvCity::GetID, COMDAT
; _this$ = ecx

; 331  : 		return m_iID;

	mov	eax, DWORD PTR [ecx+120]

; 332  : 	}

	ret	0
?GetID@CvCity@@QBEHXZ ENDP				; CvCity::GetID
_TEXT	ENDS
PUBLIC	?getX@CvCity@@QBEHXZ				; CvCity::getX
; Function compile flags: /Ogtpy
;	COMDAT ?getX@CvCity@@QBEHXZ
_TEXT	SEGMENT
?getX@CvCity@@QBEHXZ PROC				; CvCity::getX, COMDAT
; _this$ = ecx

; 340  : 		return m_iX;

	mov	eax, DWORD PTR [ecx+96]

; 341  : 	}

	ret	0
?getX@CvCity@@QBEHXZ ENDP				; CvCity::getX
_TEXT	ENDS
PUBLIC	?getY@CvCity@@QBEHXZ				; CvCity::getY
; Function compile flags: /Ogtpy
;	COMDAT ?getY@CvCity@@QBEHXZ
_TEXT	SEGMENT
?getY@CvCity@@QBEHXZ PROC				; CvCity::getY, COMDAT
; _this$ = ecx

; 345  : 		return m_iY;

	mov	eax, DWORD PTR [ecx+108]

; 346  : 	}

	ret	0
?getY@CvCity@@QBEHXZ ENDP				; CvCity::getY
_TEXT	ENDS
PUBLIC	?isAlive@CvPlayer@@QBE_NXZ			; CvPlayer::isAlive
; Function compile flags: /Ogtpy
; File c:\users\enormousapplepie\documents\github\lekmod\lekmod_dll\cvgamecoredll_expansion2\cvplayer.h
;	COMDAT ?isAlive@CvPlayer@@QBE_NXZ
_TEXT	SEGMENT
?isAlive@CvPlayer@@QBE_NXZ PROC				; CvPlayer::isAlive, COMDAT
; _this$ = ecx

; 1096 : 		return m_bAlive;

	mov	al, BYTE PTR [ecx+2256]

; 1097 : 	}

	ret	0
?isAlive@CvPlayer@@QBE_NXZ ENDP				; CvPlayer::isAlive
_TEXT	ENDS
PUBLIC	?GetID@CvPlayer@@QBE?AW4PlayerTypes@@XZ		; CvPlayer::GetID
; Function compile flags: /Ogtpy
;	COMDAT ?GetID@CvPlayer@@QBE?AW4PlayerTypes@@XZ
_TEXT	SEGMENT
?GetID@CvPlayer@@QBE?AW4PlayerTypes@@XZ PROC		; CvPlayer::GetID, COMDAT
; _this$ = ecx

; 1172 : 		return m_eID;

	mov	eax, DWORD PTR [ecx+44]

; 1173 : 	}

	ret	0
?GetID@CvPlayer@@QBE?AW4PlayerTypes@@XZ ENDP		; CvPlayer::GetID
_TEXT	ENDS
PUBLIC	?getTeam@CvPlayer@@SA?AW4TeamTypes@@W4PlayerTypes@@@Z ; CvPlayer::getTeam
; Function compile flags: /Ogtpy
;	COMDAT ?getTeam@CvPlayer@@SA?AW4TeamTypes@@W4PlayerTypes@@@Z
_TEXT	SEGMENT
_ePlayerID$ = 8						; size = 4
?getTeam@CvPlayer@@SA?AW4TeamTypes@@W4PlayerTypes@@@Z PROC ; CvPlayer::getTeam, COMDAT

; 1177 : 		return CvPreGame::teamType(ePlayerID);

	mov	eax, DWORD PTR _ePlayerID$[esp-4]
	cmp	eax, 63					; 0000003fH
	ja	SHORT $LN3@getTeam
	mov	ecx, DWORD PTR ?sr_TeamTypes@CvPreGame@@3ABV?$vector@W4TeamTypes@@V?$allocator@W4TeamTypes@@@std@@@std@@B ; CvPreGame::sr_TeamTypes
	mov	edx, DWORD PTR [ecx+4]
	mov	eax, DWORD PTR [edx+eax*4]

; 1178 : 	}

	ret	0

; 1177 : 		return CvPreGame::teamType(ePlayerID);

$LN3@getTeam:
	or	eax, -1

; 1178 : 	}

	ret	0
?getTeam@CvPlayer@@SA?AW4TeamTypes@@W4PlayerTypes@@@Z ENDP ; CvPlayer::getTeam
_TEXT	ENDS
PUBLIC	?getTeam@CvPlayer@@QBE?AW4TeamTypes@@XZ		; CvPlayer::getTeam
; Function compile flags: /Ogtpy
;	COMDAT ?getTeam@CvPlayer@@QBE?AW4TeamTypes@@XZ
_TEXT	SEGMENT
?getTeam@CvPlayer@@QBE?AW4TeamTypes@@XZ PROC		; CvPlayer::getTeam, COMDAT
; _this$ = ecx

; 1182 : 		return CvPreGame::teamType(m_eID);

	mov	eax, DWORD PTR [ecx+44]
	cmp	eax, 63					; 0000003fH
	ja	SHORT $LN5@getTeam@2
	mov	ecx, DWORD PTR ?sr_TeamTypes@CvPreGame@@3ABV?$vector@W4TeamTypes@@V?$allocator@W4TeamTypes@@@std@@@std@@B ; CvPreGame::sr_TeamTypes
	mov	edx, DWORD PTR [ecx+4]
	mov	eax, DWORD PTR [edx+eax*4]

; 1183 : 	}

	ret	0

; 1182 : 		return CvPreGame::teamType(m_eID);

$LN5@getTeam@2:
	or	eax, -1

; 1183 : 	}

	ret	0
?getTeam@CvPlayer@@QBE?AW4TeamTypes@@XZ ENDP		; CvPlayer::getTeam
_TEXT	ENDS
PUBLIC	?isVisible@CvPlot@@QBE_NW4TeamTypes@@@Z		; CvPlot::isVisible
; Function compile flags: /Ogtpy
; File c:\users\enormousapplepie\documents\github\lekmod\lekmod_dll\cvgamecoredll_expansion2\cvplot.h
;	COMDAT ?isVisible@CvPlot@@QBE_NW4TeamTypes@@@Z
_TEXT	SEGMENT
_eTeam$ = 8						; size = 4
?isVisible@CvPlot@@QBE_NW4TeamTypes@@@Z PROC		; CvPlot::isVisible, COMDAT
; _this$ = ecx

; 210  : 		if(eTeam == NO_TEAM)

	mov	eax, DWORD PTR _eTeam$[esp-4]
	cmp	eax, -1
	jne	SHORT $LN1@isVisible

; 211  : 			return false;

	xor	al, al

; 214  : 	}

	ret	4
$LN1@isVisible:

; 212  : 
; 213  : 		return ((getVisibilityCount(eTeam) > 0));

	mov	ecx, DWORD PTR [ecx+156]
	xor	edx, edx
	cmp	WORD PTR [ecx+eax*2], dx
	setg	dl
	mov	al, dl

; 214  : 	}

	ret	4
?isVisible@CvPlot@@QBE_NW4TeamTypes@@@Z ENDP		; CvPlot::isVisible
_TEXT	ENDS
PUBLIC	?getTeam@CvPlot@@QBE?AW4TeamTypes@@XZ		; CvPlot::getTeam
; Function compile flags: /Ogtpy
;	COMDAT ?getTeam@CvPlot@@QBE?AW4TeamTypes@@XZ
_TEXT	SEGMENT
?getTeam@CvPlot@@QBE?AW4TeamTypes@@XZ PROC		; CvPlot::getTeam, COMDAT
; _this$ = ecx

; 232  : 		PlayerTypes playerID = getOwner();

	movsx	eax, BYTE PTR [ecx+4]

; 233  : 		if(playerID != NO_PLAYER)

	cmp	eax, -1
	je	SHORT $LN2@getTeam@3

; 234  : 		{
; 235  : 			return CvPlayer::getTeam(playerID);

	cmp	eax, 63					; 0000003fH
	ja	SHORT $LN2@getTeam@3
	mov	ecx, DWORD PTR ?sr_TeamTypes@CvPreGame@@3ABV?$vector@W4TeamTypes@@V?$allocator@W4TeamTypes@@@std@@@std@@B ; CvPreGame::sr_TeamTypes
	mov	edx, DWORD PTR [ecx+4]
	mov	eax, DWORD PTR [edx+eax*4]

; 240  : 		}
; 241  : 	}

	ret	0
$LN2@getTeam@3:

; 236  : 		}
; 237  : 		else
; 238  : 		{
; 239  : 			return NO_TEAM;

	or	eax, -1

; 240  : 		}
; 241  : 	}

	ret	0
?getTeam@CvPlot@@QBE?AW4TeamTypes@@XZ ENDP		; CvPlot::getTeam
_TEXT	ENDS
PUBLIC	?isRevealed@CvPlot@@QBE_NW4TeamTypes@@@Z	; CvPlot::isRevealed
; Function compile flags: /Ogtpy
;	COMDAT ?isRevealed@CvPlot@@QBE_NW4TeamTypes@@@Z
_TEXT	SEGMENT
_eTeam$ = 8						; size = 4
?isRevealed@CvPlot@@QBE_NW4TeamTypes@@@Z PROC		; CvPlot::isRevealed, COMDAT
; _this$ = ecx

; 620  : 	{

	mov	edx, ecx

; 621  : 		CvAssertMsg(eTeam >= 0, "eTeam is expected to be non-negative (invalid Index)");
; 622  : 		CvAssertMsg(eTeam < MAX_TEAMS, "eTeam is expected to be within maximum bounds (invalid Index)");
; 623  : 		return m_bfRevealed.GetBit(eTeam);

	mov	ecx, DWORD PTR _eTeam$[esp-4]
	push	esi
	mov	eax, ecx
	shr	eax, 5
	mov	esi, eax
	shl	esi, 5
	sub	ecx, esi
	mov	esi, 1
	shl	esi, cl
	test	esi, DWORD PTR [edx+eax*4+8]
	pop	esi
	setne	al

; 624  : 	}

	ret	4
?isRevealed@CvPlot@@QBE_NW4TeamTypes@@@Z ENDP		; CvPlot::isRevealed
_TEXT	ENDS
PUBLIC	?isPlot@CvMap@@QBEHHH@Z				; CvMap::isPlot
; Function compile flags: /Ogtpy
; File c:\users\enormousapplepie\documents\github\lekmod\lekmod_dll\cvgamecoredll_expansion2\cvmap.h
;	COMDAT ?isPlot@CvMap@@QBEHHH@Z
_TEXT	SEGMENT
_iX$ = 8						; size = 4
_iY$ = 12						; size = 4
?isPlot@CvMap@@QBEHHH@Z PROC				; CvMap::isPlot, COMDAT
; _this$ = ecx

; 157  : #ifdef AUI_WARNING_FIXES
; 158  : 		return ((iX >= 0) && (uint(iX) < getGridWidth()) && (iY >= 0) && (uint(iY) < getGridHeight()));
; 159  : #else
; 160  : 		return ((iX >= 0) && (iX < getGridWidth()) && (iY >= 0) && (iY < getGridHeight()));

	mov	eax, DWORD PTR _iX$[esp-4]
	test	eax, eax
	jl	SHORT $LN3@isPlot
	cmp	eax, DWORD PTR [ecx+4020]
	jge	SHORT $LN3@isPlot
	mov	eax, DWORD PTR _iY$[esp-4]
	test	eax, eax
	jl	SHORT $LN3@isPlot
	cmp	eax, DWORD PTR [ecx+4024]
	jge	SHORT $LN3@isPlot
	mov	eax, 1

; 161  : #endif
; 162  : 	}

	ret	8
$LN3@isPlot:

; 157  : #ifdef AUI_WARNING_FIXES
; 158  : 		return ((iX >= 0) && (uint(iX) < getGridWidth()) && (iY >= 0) && (uint(iY) < getGridHeight()));
; 159  : #else
; 160  : 		return ((iX >= 0) && (iX < getGridWidth()) && (iY >= 0) && (iY < getGridHeight()));

	xor	eax, eax

; 161  : #endif
; 162  : 	}

	ret	8
?isPlot@CvMap@@QBEHHH@Z ENDP				; CvMap::isPlot
_TEXT	ENDS
PUBLIC	?plotNum@CvMap@@QBEHHH@Z			; CvMap::plotNum
; Function compile flags: /Ogtpy
;	COMDAT ?plotNum@CvMap@@QBEHHH@Z
_TEXT	SEGMENT
_iX$ = 8						; size = 4
_iY$ = 12						; size = 4
?plotNum@CvMap@@QBEHHH@Z PROC				; CvMap::plotNum, COMDAT
; _this$ = ecx

; 183  : 		return ((iY * getGridWidth()) + iX);

	mov	eax, DWORD PTR [ecx+4020]
	imul	eax, DWORD PTR _iY$[esp-4]
	add	eax, DWORD PTR _iX$[esp-4]

; 184  : #endif
; 185  : 	}

	ret	8
?plotNum@CvMap@@QBEHHH@Z ENDP				; CvMap::plotNum
_TEXT	ENDS
PUBLIC	?plot@CvMap@@QBEPAVCvPlot@@HH@Z			; CvMap::plot
; Function compile flags: /Ogtpy
;	COMDAT ?plot@CvMap@@QBEPAVCvPlot@@HH@Z
_TEXT	SEGMENT
_iX$ = 8						; size = 4
_iY$ = 12						; size = 4
?plot@CvMap@@QBEPAVCvPlot@@HH@Z PROC			; CvMap::plot, COMDAT
; _this$ = ecx

; 273  : 		if((iX == INVALID_PLOT_COORD) || (iY == INVALID_PLOT_COORD))

	mov	eax, DWORD PTR _iX$[esp-4]
	push	ebp
	cmp	eax, -2147483647			; 80000001H
	je	$LN1@plot
	mov	ebp, DWORD PTR _iY$[esp]
	cmp	ebp, -2147483647			; 80000001H
	je	$LN1@plot

; 276  : 		}
; 277  : 		int iMapX = coordRange(iX, getGridWidth(), isWrapX());

	cmp	BYTE PTR [ecx+4056], 0
	push	ebx
	push	esi
	mov	esi, DWORD PTR [ecx+4020]
	push	edi
	je	SHORT $LN11@plot
	test	eax, eax
	jge	SHORT $LN13@plot
	cdq
	idiv	esi
	mov	edi, edx
	add	edi, esi
	jmp	SHORT $LN15@plot
$LN13@plot:
	cmp	eax, esi
	jl	SHORT $LN11@plot
	cdq
	idiv	esi
	mov	edi, edx
	jmp	SHORT $LN15@plot
$LN11@plot:
	mov	edi, eax
$LN15@plot:

; 278  : 		int iMapY = coordRange(iY, getGridHeight(), isWrapY());

	cmp	BYTE PTR [ecx+4057], 0
	mov	ebx, DWORD PTR [ecx+4024]
	je	SHORT $LN40@plot
	test	ebp, ebp
	jge	SHORT $LN23@plot
	mov	eax, ebp
	cdq
	idiv	ebx
	add	edx, ebx
	jmp	SHORT $LN25@plot
$LN23@plot:
	cmp	ebp, ebx
	jl	SHORT $LN40@plot
	mov	eax, ebp
	cdq
	idiv	ebx
	jmp	SHORT $LN25@plot
$LN40@plot:
	mov	edx, ebp
$LN25@plot:

; 279  : 		return ((isPlot(iMapX, iMapY)) ? &(m_pMapPlots[plotNum(iMapX, iMapY)]) : NULL);

	test	edi, edi
	jl	SHORT $LN5@plot
	cmp	edi, esi
	jge	SHORT $LN5@plot
	test	edx, edx
	jl	SHORT $LN5@plot
	cmp	edx, ebx
	jge	SHORT $LN5@plot
	imul	esi, edx
	add	esi, edi
	imul	esi, 484				; 000001e4H
	add	esi, DWORD PTR [ecx+4068]
	pop	edi
	mov	eax, esi
	pop	esi
	pop	ebx
	pop	ebp

; 280  : 	}

	ret	8
$LN5@plot:
	pop	edi
	pop	esi
	pop	ebx

; 279  : 		return ((isPlot(iMapX, iMapY)) ? &(m_pMapPlots[plotNum(iMapX, iMapY)]) : NULL);

	xor	eax, eax
	pop	ebp

; 280  : 	}

	ret	8
$LN1@plot:

; 274  : 		{
; 275  : 			return NULL;

	xor	eax, eax
	pop	ebp

; 280  : 	}

	ret	8
?plot@CvMap@@QBEPAVCvPlot@@HH@Z ENDP			; CvMap::plot
_TEXT	ENDS
PUBLIC	?GetNumZones@CvTacticalAnalysisMap@@QBEHXZ	; CvTacticalAnalysisMap::GetNumZones
; Function compile flags: /Ogtpy
; File c:\users\enormousapplepie\documents\github\lekmod\lekmod_dll\cvgamecoredll_expansion2\cvtacticalanalysismap.h
;	COMDAT ?GetNumZones@CvTacticalAnalysisMap@@QBEHXZ
_TEXT	SEGMENT
?GetNumZones@CvTacticalAnalysisMap@@QBEHXZ PROC		; CvTacticalAnalysisMap::GetNumZones, COMDAT
; _this$ = ecx

; 624  : 		return m_DominanceZones.size();

	mov	eax, DWORD PTR [ecx+116]

; 625  : 	};

	ret	0
?GetNumZones@CvTacticalAnalysisMap@@QBEHXZ ENDP		; CvTacticalAnalysisMap::GetNumZones
_TEXT	ENDS
PUBLIC	?plotDirection@@YAPAVCvPlot@@HHW4DirectionTypes@@@Z ; plotDirection
; Function compile flags: /Ogtpy
; File c:\users\enormousapplepie\documents\github\lekmod\lekmod_dll\cvgamecoredll_expansion2\cvgamecoreutils.h
;	COMDAT ?plotDirection@@YAPAVCvPlot@@HHW4DirectionTypes@@@Z
_TEXT	SEGMENT
_iX$ = 8						; size = 4
_iY$ = 12						; size = 4
_eDirection$ = 16					; size = 4
?plotDirection@@YAPAVCvPlot@@HHW4DirectionTypes@@@Z PROC ; plotDirection, COMDAT

; 219  : 	if(eDirection == NO_DIRECTION)

	mov	ecx, DWORD PTR _eDirection$[esp-4]
	push	ebx
	push	ebp
	push	esi
	push	edi
	cmp	ecx, -1
	jne	$LN2@plotDirect

; 220  : 	{
; 221  : 		return GC.getMap().plot(iX, iY);

	mov	eax, DWORD PTR _iX$[esp+12]
	cmp	eax, -2147483647			; 80000001H
	je	$LN59@plotDirect
	mov	ebx, DWORD PTR _iY$[esp+12]
	cmp	ebx, -2147483647			; 80000001H
	je	$LN59@plotDirect
	mov	ebp, DWORD PTR ?gGlobals@@3VCvGlobals@@A+52
	cmp	BYTE PTR [ebp+4056], 0
	mov	ecx, DWORD PTR [ebp+4020]
	je	SHORT $LN99@plotDirect
	test	eax, eax
	jge	SHORT $LN19@plotDirect
	cdq
	idiv	ecx
	mov	esi, edx
	add	esi, ecx
	jmp	SHORT $LN21@plotDirect
$LN19@plotDirect:
	cmp	eax, ecx
	jl	SHORT $LN99@plotDirect
	cdq
	idiv	ecx
	mov	esi, edx
	jmp	SHORT $LN21@plotDirect
$LN99@plotDirect:
	mov	esi, eax
$LN21@plotDirect:
	cmp	BYTE PTR [ebp+4057], 0
	mov	edi, DWORD PTR [ebp+4024]
	je	SHORT $LN101@plotDirect
	test	ebx, ebx
	jge	SHORT $LN29@plotDirect
	mov	eax, ebx
	cdq
	idiv	edi
	add	edx, edi
	jmp	SHORT $LN31@plotDirect
$LN29@plotDirect:
	cmp	ebx, edi
	jl	SHORT $LN101@plotDirect
	mov	eax, ebx
	cdq
	idiv	edi
	jmp	SHORT $LN31@plotDirect
$LN101@plotDirect:
	mov	edx, ebx
$LN31@plotDirect:
	test	esi, esi
	jl	$LN59@plotDirect
	cmp	esi, ecx
	jge	$LN59@plotDirect
	test	edx, edx
	jl	$LN59@plotDirect
	cmp	edx, edi
	jge	$LN59@plotDirect
	imul	ecx, edx
	add	ecx, esi
	imul	ecx, 484				; 000001e4H
	add	ecx, DWORD PTR [ebp+4068]
	pop	edi
	pop	esi
	pop	ebp
	mov	eax, ecx
	pop	ebx

; 234  : 	}
; 235  : }

	ret	0
$LN2@plotDirect:

; 222  : 	}
; 223  : 	else
; 224  : 	{
; 225  : 		// convert to hex-space coordinates - the coordinate system axes are E and NE (not orthogonal)
; 226  : 		iX = xToHexspaceX(iX , iY);

	mov	esi, DWORD PTR _iY$[esp+12]
	test	esi, esi
	jl	SHORT $LN47@plotDirect
	mov	eax, esi
	jmp	SHORT $LN103@plotDirect
$LN47@plotDirect:
	lea	eax, DWORD PTR [esi-1]
	cdq
	sub	eax, edx
$LN103@plotDirect:

; 227  : 		iX += GC.getPlotDirectionX()[eDirection];

	mov	edx, DWORD PTR ?gGlobals@@3VCvGlobals@@A[ecx*4+112]
	mov	edi, DWORD PTR _iX$[esp+12]
	sar	eax, 1
	sub	edx, eax
	add	edi, edx

; 228  : 		iY += GC.getPlotDirectionY()[eDirection];

	add	esi, DWORD PTR ?gGlobals@@3VCvGlobals@@A[ecx*4+136]

; 229  : 
; 230  : 		// convert from hex-space coordinates to the storage array
; 231  : 		iX = hexspaceXToX(iX, iY);

	js	SHORT $LN55@plotDirect
	mov	eax, esi
	jmp	SHORT $LN104@plotDirect
$LN55@plotDirect:
	lea	eax, DWORD PTR [esi-1]
	cdq
	sub	eax, edx
$LN104@plotDirect:
	sar	eax, 1
	add	edi, eax

; 232  : 
; 233  : 		return GC.getMap().plot(iX, iY);

	cmp	edi, -2147483647			; 80000001H
	je	$LN59@plotDirect
	cmp	esi, -2147483647			; 80000001H
	je	$LN59@plotDirect
	mov	ebp, DWORD PTR ?gGlobals@@3VCvGlobals@@A+52
	cmp	BYTE PTR [ebp+4056], 0
	mov	ecx, DWORD PTR [ebp+4020]
	je	SHORT $LN69@plotDirect
	test	edi, edi
	jge	SHORT $LN71@plotDirect
	mov	eax, edi
	cdq
	idiv	ecx
	mov	edi, edx
	add	edi, ecx
	jmp	SHORT $LN69@plotDirect
$LN71@plotDirect:
	cmp	edi, ecx
	jl	SHORT $LN69@plotDirect
	mov	eax, edi
	cdq
	idiv	ecx
	mov	edi, edx
$LN69@plotDirect:
	cmp	BYTE PTR [ebp+4057], 0
	mov	ebx, DWORD PTR [ebp+4024]
	je	SHORT $LN100@plotDirect
	test	esi, esi
	jge	SHORT $LN81@plotDirect
	mov	eax, esi
	cdq
	idiv	ebx
	add	edx, ebx
	jmp	SHORT $LN83@plotDirect
$LN81@plotDirect:
	cmp	esi, ebx
	jl	SHORT $LN100@plotDirect
	mov	eax, esi
	cdq
	idiv	ebx
	jmp	SHORT $LN83@plotDirect
$LN100@plotDirect:
	mov	edx, esi
$LN83@plotDirect:
	test	edi, edi
	jl	SHORT $LN59@plotDirect
	cmp	edi, ecx
	jge	SHORT $LN59@plotDirect
	test	edx, edx
	jl	SHORT $LN59@plotDirect
	cmp	edx, ebx
	jge	SHORT $LN59@plotDirect
	imul	ecx, edx
	add	ecx, edi
	imul	ecx, 484				; 000001e4H
	add	ecx, DWORD PTR [ebp+4068]
	pop	edi
	pop	esi
	pop	ebp
	mov	eax, ecx
	pop	ebx

; 234  : 	}
; 235  : }

	ret	0

; 232  : 
; 233  : 		return GC.getMap().plot(iX, iY);

$LN59@plotDirect:
	pop	edi
	pop	esi
	pop	ebp
	xor	eax, eax
	pop	ebx

; 234  : 	}
; 235  : }

	ret	0
?plotDirection@@YAPAVCvPlot@@HHW4DirectionTypes@@@Z ENDP ; plotDirection
_TEXT	ENDS
PUBLIC	?plotXY@@YAPAVCvPlot@@HHHH@Z			; plotXY
; Function compile flags: /Ogtpy
;	COMDAT ?plotXY@@YAPAVCvPlot@@HHHH@Z
_TEXT	SEGMENT
_iX$ = 8						; size = 4
_iY$ = 12						; size = 4
_iDX$ = 16						; size = 4
_iDY$ = 20						; size = 4
?plotXY@@YAPAVCvPlot@@HHHH@Z PROC			; plotXY, COMDAT

; 239  : 	// convert the start coord to hex-space coordinates
; 240  : 	int iStartHexX = xToHexspaceX(iX, iY);

	mov	ecx, DWORD PTR _iY$[esp-4]
	test	ecx, ecx
	jl	SHORT $LN5@plotXY
	mov	eax, ecx
	jmp	SHORT $LN55@plotXY
$LN5@plotXY:
	lea	eax, DWORD PTR [ecx-1]
	cdq
	sub	eax, edx
$LN55@plotXY:
	push	esi

; 241  : 
; 242  : 	int iPlotHexX = iStartHexX + iDX;

	mov	esi, DWORD PTR _iX$[esp]
	sar	eax, 1
	sub	esi, eax

; 243  : 	int iPlotY = iY + iDY; // Y is the same in both coordinate systems

	mov	eax, DWORD PTR _iDY$[esp]
	add	esi, DWORD PTR _iDX$[esp]
	push	edi
	lea	edi, DWORD PTR [ecx+eax]

; 244  : 
; 245  : 	// convert from hex-space coordinates to the storage array
; 246  : 	iPlotHexX = hexspaceXToX(iPlotHexX, iPlotY);

	test	edi, edi
	jl	SHORT $LN9@plotXY
	mov	eax, edi
	jmp	SHORT $LN56@plotXY
$LN9@plotXY:
	lea	eax, DWORD PTR [edi-1]
	cdq
	sub	eax, edx
$LN56@plotXY:
	sar	eax, 1
	add	esi, eax

; 247  : 
; 248  : 	return GC.getMap().plot(iPlotHexX , iPlotY);

	cmp	esi, -2147483647			; 80000001H
	je	$LN13@plotXY
	cmp	edi, -2147483647			; 80000001H
	je	$LN13@plotXY
	push	ebp
	mov	ebp, DWORD PTR ?gGlobals@@3VCvGlobals@@A+52
	cmp	BYTE PTR [ebp+4056], 0
	mov	ecx, DWORD PTR [ebp+4020]
	je	SHORT $LN23@plotXY
	test	esi, esi
	jge	SHORT $LN25@plotXY
	mov	eax, esi
	cdq
	idiv	ecx
	mov	esi, edx
	add	esi, ecx
	jmp	SHORT $LN23@plotXY
$LN25@plotXY:
	cmp	esi, ecx
	jl	SHORT $LN23@plotXY
	mov	eax, esi
	cdq
	idiv	ecx
	mov	esi, edx
$LN23@plotXY:
	cmp	BYTE PTR [ebp+4057], 0
	push	ebx
	mov	ebx, DWORD PTR [ebp+4024]
	je	SHORT $LN52@plotXY
	test	edi, edi
	jge	SHORT $LN35@plotXY
	mov	eax, edi
	cdq
	idiv	ebx
	add	edx, ebx
	jmp	SHORT $LN37@plotXY
$LN35@plotXY:
	cmp	edi, ebx
	jl	SHORT $LN52@plotXY
	mov	eax, edi
	cdq
	idiv	ebx
	jmp	SHORT $LN37@plotXY
$LN52@plotXY:
	mov	edx, edi
$LN37@plotXY:
	test	esi, esi
	jl	SHORT $LN17@plotXY
	cmp	esi, ecx
	jge	SHORT $LN17@plotXY
	test	edx, edx
	jl	SHORT $LN17@plotXY
	cmp	edx, ebx
	jge	SHORT $LN17@plotXY
	imul	ecx, edx
	add	ecx, esi
	imul	ecx, 484				; 000001e4H
	add	ecx, DWORD PTR [ebp+4068]
	pop	ebx
	pop	ebp
	pop	edi
	mov	eax, ecx
	pop	esi

; 249  : }

	ret	0

; 247  : 
; 248  : 	return GC.getMap().plot(iPlotHexX , iPlotY);

$LN17@plotXY:
	pop	ebx
	pop	ebp
	pop	edi
	xor	eax, eax
	pop	esi

; 249  : }

	ret	0

; 247  : 
; 248  : 	return GC.getMap().plot(iPlotHexX , iPlotY);

$LN13@plotXY:
	pop	edi
	xor	eax, eax
	pop	esi

; 249  : }

	ret	0
?plotXY@@YAPAVCvPlot@@HHHH@Z ENDP			; plotXY
_TEXT	ENDS
PUBLIC	??0CvTacticalAnalysisCell@@QAE@XZ		; CvTacticalAnalysisCell::CvTacticalAnalysisCell
; Function compile flags: /Ogtpy
; File c:\users\enormousapplepie\documents\github\lekmod\lekmod_dll\cvgamecoredll_expansion2\cvtacticalanalysismap.cpp
;	COMDAT ??0CvTacticalAnalysisCell@@QAE@XZ
_TEXT	SEGMENT
??0CvTacticalAnalysisCell@@QAE@XZ PROC			; CvTacticalAnalysisCell::CvTacticalAnalysisCell, COMDAT
; _this$ = ecx

; 32   : {

	mov	eax, ecx

; 33   : 	Clear();

	xor	ecx, ecx
	mov	DWORD PTR [eax], ecx
	mov	DWORD PTR [eax+4], ecx
	mov	DWORD PTR [eax+8], ecx
	mov	DWORD PTR [eax+12], ecx
	mov	DWORD PTR [eax+16], ecx
	mov	DWORD PTR [eax+20], ecx
	mov	DWORD PTR [eax+24], ecx
	mov	DWORD PTR [eax+28], ecx
	mov	DWORD PTR [eax+32], ecx
	mov	DWORD PTR [eax+36], ecx
	mov	DWORD PTR [eax+40], -1

; 34   : }

	ret	0
??0CvTacticalAnalysisCell@@QAE@XZ ENDP			; CvTacticalAnalysisCell::CvTacticalAnalysisCell
_TEXT	ENDS
PUBLIC	?SetClosestCity@CvTacticalDominanceZone@@QAEXPAVCvCity@@@Z ; CvTacticalDominanceZone::SetClosestCity
; Function compile flags: /Ogtpy
;	COMDAT ?SetClosestCity@CvTacticalDominanceZone@@QAEXPAVCvCity@@@Z
_TEXT	SEGMENT
_pCity$ = 8						; size = 4
?SetClosestCity@CvTacticalDominanceZone@@QAEXPAVCvCity@@@Z PROC ; CvTacticalDominanceZone::SetClosestCity, COMDAT
; _this$ = ecx

; 114  : 	if(pCity != NULL)

	mov	eax, DWORD PTR _pCity$[esp-4]
	test	eax, eax
	je	SHORT $LN2@SetClosest

; 115  : 	{
; 116  : 		m_iCityID = pCity->GetID();

	mov	eax, DWORD PTR [eax+120]
	mov	DWORD PTR [ecx+16], eax

; 121  : 	}
; 122  : }

	ret	4
$LN2@SetClosest:

; 117  : 	}
; 118  : 	else
; 119  : 	{
; 120  : 		m_iCityID = -1;

	mov	DWORD PTR [ecx+16], -1

; 121  : 	}
; 122  : }

	ret	4
?SetClosestCity@CvTacticalDominanceZone@@QAEXPAVCvCity@@@Z ENDP ; CvTacticalDominanceZone::SetClosestCity
_TEXT	ENDS
PUBLIC	?Init@CvTacticalAnalysisMap@@QAEXH@Z		; CvTacticalAnalysisMap::Init
;	COMDAT xdata$x
; File c:\users\enormousapplepie\documents\github\lekmod\lekmod_dll\cvgamecoredll_expansion2\cvglobals.h
xdata$x	SEGMENT
__unwindtable$?Init@CvTacticalAnalysisMap@@QAEXH@Z DD 0ffffffffH
	DD	FLAT:__unwindfunclet$?Init@CvTacticalAnalysisMap@@QAEXH@Z$0
__ehfuncinfo$?Init@CvTacticalAnalysisMap@@QAEXH@Z DD 019930522H
	DD	01H
	DD	FLAT:__unwindtable$?Init@CvTacticalAnalysisMap@@QAEXH@Z
	DD	2 DUP(00H)
	DD	2 DUP(00H)
	DD	00H
	DD	01H
; Function compile flags: /Ogtpy
; File c:\users\enormousapplepie\documents\github\lekmod\lekmod_dll\cvgamecoredll_expansion2\cvtacticalanalysismap.cpp
xdata$x	ENDS
;	COMDAT ?Init@CvTacticalAnalysisMap@@QAEXH@Z
_TEXT	SEGMENT
__$EHRec$ = -12						; size = 12
$T227093 = 8						; size = 4
_iNumPlots$ = 8						; size = 4
?Init@CvTacticalAnalysisMap@@QAEXH@Z PROC		; CvTacticalAnalysisMap::Init, COMDAT
; _this$ = ecx

; 204  : {

	mov	eax, DWORD PTR fs:0
	push	-1
	push	__ehhandler$?Init@CvTacticalAnalysisMap@@QAEXH@Z
	push	eax
	mov	DWORD PTR fs:0, esp
	push	ebp
	push	esi
	push	edi
	mov	edi, ecx

; 205  : 	// Time building of these maps
; 206  : 	AI_PERF("AI-perf-tact.csv", "CvTacticalAnalysisMap::Init()" );
; 207  : 
; 208  : 	if(m_pPlots)

	cmp	DWORD PTR [edi+12], 0
	je	SHORT $LN7@Init

; 209  : 	{
; 210  : 		SAFE_DELETE_ARRAY(m_pPlots);

	mov	eax, DWORD PTR [edi+12]
	push	eax
	call	??_V@YAXPAX@Z				; operator delete[]
	add	esp, 4
	mov	DWORD PTR [edi+12], 0
$LN7@Init:

; 211  : 	}
; 212  : 	m_pPlots = FNEW(CvTacticalAnalysisCell[iNumPlots], c_eCiv5GameplayDLL, 0);

	mov	ebp, DWORD PTR _iNumPlots$[esp+20]
	xor	ecx, ecx
	mov	eax, ebp
	mov	edx, 44					; 0000002cH
	mul	edx
	seto	cl
	neg	ecx
	or	ecx, eax
	push	ecx
	call	??_U@YAPAXI@Z				; operator new[]
	mov	esi, eax
	add	esp, 4
	mov	DWORD PTR $T227093[esp+20], esi
	mov	DWORD PTR __$EHRec$[esp+32], 0
	test	esi, esi
	je	SHORT $LN4@Init
	push	OFFSET ??0CvTacticalAnalysisCell@@QAE@XZ ; CvTacticalAnalysisCell::CvTacticalAnalysisCell
	push	ebp
	push	44					; 0000002cH
	push	esi
	call	??_H@YGXPAXIHP6EPAX0@Z@Z
	jmp	SHORT $LN5@Init
$LN4@Init:
	xor	esi, esi
$LN5@Init:

; 213  : 	m_iNumPlots = iNumPlots;
; 214  : 
; 215  : 	m_iDominancePercentage = GC.getAI_TACTICAL_MAP_DOMINANCE_PERCENTAGE();
; 216  : }

	mov	ecx, DWORD PTR __$EHRec$[esp+24]
	mov	DWORD PTR [edi+12], esi
	mov	DWORD PTR [edi+16], ebp
	mov	eax, DWORD PTR ?gGlobals@@3VCvGlobals@@A+2444
	mov	DWORD PTR [edi], eax
	pop	edi
	pop	esi
	mov	DWORD PTR fs:0, ecx
	pop	ebp
	add	esp, 12					; 0000000cH
	ret	4
_TEXT	ENDS
;	COMDAT text$x
text$x	SEGMENT
__unwindfunclet$?Init@CvTacticalAnalysisMap@@QAEXH@Z$0:
	mov	eax, DWORD PTR $T227093[ebp-4]
	push	eax
	call	??_V@YAXPAX@Z				; operator delete[]
	pop	ecx
	ret	0
__ehhandler$?Init@CvTacticalAnalysisMap@@QAEXH@Z:
	mov	eax, OFFSET __ehfuncinfo$?Init@CvTacticalAnalysisMap@@QAEXH@Z
	jmp	___CxxFrameHandler3
text$x	ENDS
?Init@CvTacticalAnalysisMap@@QAEXH@Z ENDP		; CvTacticalAnalysisMap::Init
PUBLIC	?MarkCellsNearEnemy@CvTacticalAnalysisMap@@IAEXXZ ; CvTacticalAnalysisMap::MarkCellsNearEnemy
EXTRN	?GetNearbyEnemyDamage@CvImprovementEntry@@QBEHXZ:PROC ; CvImprovementEntry::GetNearbyEnemyDamage
EXTRN	?getImprovementInfo@CvGlobals@@QAEPAVCvImprovementEntry@@W4ImprovementTypes@@@Z:PROC ; CvGlobals::getImprovementInfo
EXTRN	?getImprovementType@CvPlot@@QBE?AW4ImprovementTypes@@XZ:PROC ; CvPlot::getImprovementType
EXTRN	?atWar@@YA_NW4TeamTypes@@0@Z:PROC		; atWar
EXTRN	?TurnsToReachTarget@@YAHV?$FObjectHandle@VCvUnit@@@@PAVCvPlot@@_N22@Z:PROC ; TurnsToReachTarget
EXTRN	?baseMoves@CvUnit@@QBEHW4DomainTypes@@@Z:PROC	; CvUnit::baseMoves
EXTRN	?getArea@CvUnit@@QBEHXZ:PROC			; CvUnit::getArea
EXTRN	?isVisibleToEnemyTeam@CvPlot@@QBE_NW4TeamTypes@@@Z:PROC ; CvPlot::isVisibleToEnemyTeam
; Function compile flags: /Ogtpy
;	COMDAT ?MarkCellsNearEnemy@CvTacticalAnalysisMap@@IAEXXZ
_TEXT	SEGMENT
_bMarkedIt$222522 = -21					; size = 1
tv716 = -20						; size = 4
_iUnitIndex$222528 = -16				; size = 4
tv718 = -12						; size = 4
_iI$222518 = -8						; size = 4
$T227116 = -4						; size = 4
?MarkCellsNearEnemy@CvTacticalAnalysisMap@@IAEXXZ PROC	; CvTacticalAnalysisMap::MarkCellsNearEnemy, COMDAT
; _this$ = ecx

; 312  : {

	sub	esp, 24					; 00000018H

; 313  : 	int iDistance;
; 314  : 
; 315  : 	// Look at every cell on the map
; 316  : #ifdef AUI_WARNING_FIXES
; 317  : 	for (uint iI = 0; iI < GC.getMap().numPlots(); iI++)
; 318  : #else
; 319  : 	for(int iI = 0; iI < GC.getMap().numPlots(); iI++)

	mov	eax, DWORD PTR ?gGlobals@@3VCvGlobals@@A+52
	push	ebx
	push	ebp
	xor	ebp, ebp
	cmp	DWORD PTR [eax+4028], ebp
	push	esi
	push	edi
	mov	edi, ecx
	mov	DWORD PTR _iI$222518[esp+40], ebp
	jle	$LN21@MarkCellsN
	xor	esi, esi
	mov	DWORD PTR tv716[esp+40], esi
	mov	DWORD PTR tv718[esp+40], ebp
	jmp	SHORT $LN23@MarkCellsN
	npad	4
$LL156@MarkCellsN:
	xor	ebp, ebp
$LN23@MarkCellsN:

; 320  : #endif
; 321  : 	{
; 322  : 		bool bMarkedIt = false;   // Set true once we've found one that enemy can move past (worst case)
; 323  : 
; 324  : 		CvPlot* pPlot = GC.getMap().plotByIndexUnchecked(iI);

	mov	ebx, DWORD PTR [eax+4068]

; 325  : 		if(m_pPlots[iI].IsRevealed() && !m_pPlots[iI].IsImpassableTerrain() && !m_pPlots[iI].IsImpassableTerritory())

	mov	eax, DWORD PTR [edi+12]
	add	ebx, DWORD PTR tv718[esp+40]
	add	eax, esi
	test	BYTE PTR [eax], 1
	mov	BYTE PTR _bMarkedIt$222522[esp+40], 0
	je	$LN22@MarkCellsN
	mov	eax, DWORD PTR [eax]
	mov	ecx, eax
	shr	ecx, 2
	test	cl, 1
	jne	$LN22@MarkCellsN
	mov	edx, eax
	shr	edx, 3
	test	dl, 1
	jne	$LN22@MarkCellsN

; 326  : 		{
; 327  : 			// Friendly cities always safe
; 328  : 			if(!m_pPlots[iI].IsFriendlyCity())

	shr	eax, 8
	test	al, 1
	jne	$LN22@MarkCellsN

; 329  : 			{
; 330  : 				if(!pPlot->isVisibleToEnemyTeam(m_pPlayer->getTeam()))

	mov	eax, DWORD PTR [edi+20]
	mov	eax, DWORD PTR [eax+44]
	cmp	eax, 63					; 0000003fH
	ja	SHORT $LN55@MarkCellsN
	mov	ecx, DWORD PTR ?sr_TeamTypes@CvPreGame@@3ABV?$vector@W4TeamTypes@@V?$allocator@W4TeamTypes@@@std@@@std@@B ; CvPreGame::sr_TeamTypes
	mov	edx, DWORD PTR [ecx+4]
	mov	eax, DWORD PTR [edx+eax*4]
	jmp	SHORT $LN56@MarkCellsN
$LN55@MarkCellsN:
	or	eax, -1
$LN56@MarkCellsN:
	push	eax
	mov	ecx, ebx
	call	?isVisibleToEnemyTeam@CvPlot@@QBE_NW4TeamTypes@@@Z ; CvPlot::isVisibleToEnemyTeam
	test	al, al
	jne	SHORT $LN18@MarkCellsN

; 331  : 				{
; 332  : 					m_pPlots[iI].SetNotVisibleToEnemy(true);

	mov	eax, DWORD PTR [edi+12]
	add	eax, esi
	or	DWORD PTR [eax], 16			; 00000010H

; 333  : 				}
; 334  : 				else

	jmp	$LN22@MarkCellsN
$LN18@MarkCellsN:

; 335  : 				{
; 336  : 					for(unsigned int iUnitIndex = 0;  iUnitIndex < m_EnemyUnits.size() && !bMarkedIt; iUnitIndex++)

	mov	DWORD PTR _iUnitIndex$222528[esp+40], ebp
	cmp	DWORD PTR [edi+8492], ebp
	jbe	$LN14@MarkCellsN
$LN16@MarkCellsN:
	cmp	BYTE PTR _bMarkedIt$222522[esp+40], 0
	jne	$LN14@MarkCellsN

; 337  : 					{
; 338  : 						CvUnit* pUnit = m_EnemyUnits[iUnitIndex];

	mov	eax, DWORD PTR [edi+8488]
	mov	ecx, DWORD PTR _iUnitIndex$222528[esp+40]
	mov	esi, DWORD PTR [eax+ecx*4]

; 339  : 						if(pUnit->getArea() == pPlot->getArea())

	mov	ebp, DWORD PTR [ebx+356]
	mov	ecx, esi
	call	?getArea@CvUnit@@QBEHXZ			; CvUnit::getArea
	cmp	eax, ebp
	jne	$LN15@MarkCellsN

; 340  : 						{
; 341  : 							// Distance check before hitting pathfinder
; 342  : 							iDistance = plotDistance(pUnit->getX(), pUnit->getY(), pPlot->getX(), pPlot->getY());

	movsx	edx, WORD PTR [ebx+2]
	mov	eax, DWORD PTR [esi+88]
	mov	ecx, DWORD PTR [esi+76]
	push	edx
	movsx	edx, WORD PTR [ebx]
	push	edx
	push	eax
	push	ecx
	call	?plotDistance@@YAHHHHH@Z		; plotDistance
	mov	ebp, eax
	add	esp, 16					; 00000010H

; 343  : 							if(iDistance == 0)

	test	ebp, ebp
	jne	SHORT $LN12@MarkCellsN

; 344  : 							{
; 345  : 								m_pPlots[iI].SetSubjectToAttack(true);

	mov	eax, DWORD PTR [edi+12]
	mov	ecx, DWORD PTR tv716[esp+40]
	or	DWORD PTR [eax+ecx], 32			; 00000020H
	add	eax, ecx

; 346  : 								m_pPlots[iI].SetEnemyCanMovePast(true);

	mov	eax, DWORD PTR [edi+12]
	add	eax, ecx

; 347  : 								bMarkedIt = true;

	jmp	SHORT $LN157@MarkCellsN
$LN12@MarkCellsN:

; 348  : 							}
; 349  : 
