; Listing generated by Microsoft (R) Optimizing Compiler Version 15.00.30729.01 

	TITLE	c:\Users\EnormousApplePie\Desktop\Lekmod Files\Lekmod DLL versions\v29\LEKMOD_DLL\CvGameCoreDLL_Expansion2\CvTacticalAI.cpp
	.686P
	.XMM
	include listing.inc
	.model	flat

INCLUDELIB MSVCRT
INCLUDELIB OLDNAMES

CONST	SEGMENT
$SG219922 DB	'Type', 00H
$SG221574 DB	00H
	ORG $+2
$SG219924 DB	'Priority', 00H
	ORG $+3
$SG219925 DB	'OffenseFlavorWeight', 00H
$SG219926 DB	'DefenseFlavorWeight', 00H
$SG219927 DB	'OperationsCanRecruit', 00H
	ORG $+3
$SG219928 DB	'DominanceZoneMove', 00H
	ORG $+2
$SG220174 DB	'TACTICAL_UNASSIGNED', 00H
$SG220175 DB	'TACTICAL_POSTURE_SIT_AND_BOMBARD', 00H
	ORG $+3
$SG220176 DB	'TACTICAL_POSTURE_ATTRIT_FROM_RANGE', 00H
	ORG $+1
$SG220177 DB	'TACTICAL_POSTURE_EXPLOIT_FLANKS', 00H
$SG220178 DB	'TACTICAL_POSTURE_STEAMROLL', 00H
	ORG $+1
$SG220179 DB	'TACTICAL_POSTURE_SURGICAL_CITY_STRIKE', 00H
	ORG $+2
$SG220180 DB	'TACTICAL_POSTURE_COUNTERATTACK', 00H
	ORG $+1
$SG220181 DB	'TACTICAL_MOVE_NONCOMBATANTS_TO_SAFETY', 00H
	ORG $+2
$SG220182 DB	'TACTICAL_CAPTURE_CITY', 00H
	ORG $+2
$SG220183 DB	'TACTICAL_DAMAGE_CITY', 00H
	ORG $+3
$SG220184 DB	'TACTICAL_DESTROY_HIGH_UNIT', 00H
	ORG $+1
$SG220185 DB	'TACTICAL_DESTROY_MEDIUM_UNIT', 00H
	ORG $+3
$SG220186 DB	'TACTICAL_DESTROY_LOW_UNIT', 00H
	ORG $+2
$SG220187 DB	'TACTICAL_TO_SAFETY', 00H
	ORG $+1
$SG220188 DB	'TACTICAL_ATTRIT_HIGH_UNIT', 00H
	ORG $+2
$SG220189 DB	'TACTICAL_ATTRIT_MEDIUM_UNIT', 00H
$SG220190 DB	'TACTICAL_ATTRIT_LOW_UNIT', 00H
	ORG $+3
$SG220191 DB	'TACTICAL_REPOSITION', 00H
$SG220192 DB	'TACTICAL_BARBARIAN_CAMP', 00H
$SG220193 DB	'TACTICAL_PILLAGE', 00H
	ORG $+3
$SG220194 DB	'TACTICAL_ATTACK_VERY_HIGH_PRIORITY_CIVILIAN', 00H
$SG220195 DB	'TACTICAL_ATTACK_HIGH_PRIORITY_CIVILIAN', 00H
	ORG $+1
$SG220196 DB	'TACTICAL_ATTACK_MEDIUM_PRIORITY_CIVILIAN', 00H
	ORG $+3
$SG220197 DB	'TACTICAL_ATTACK_LOW_PRIORITY_CIVILIAN', 00H
	ORG $+2
$SG220198 DB	'TACTICAL_SAFE_BOMBARDS', 00H
	ORG $+1
$SG220199 DB	'TACTICAL_HEAL', 00H
	ORG $+2
$SG220200 DB	'TACTICAL_ANCIENT_RUINS', 00H
	ORG $+1
$SG220201 DB	'TACTICAL_GARRISON_TO_ALLOW_BOMBARD', 00H
	ORG $+1
$SG220202 DB	'TACTICAL_GARRISON_ALREADY_THERE', 00H
$SG220203 DB	'TACTICAL_BASTION_ALREADY_THERE', 00H
	ORG $+1
$SG220204 DB	'TACTICAL_GUARD_IMPROVEMENT_ALREADY_THERE', 00H
	ORG $+3
$SG220205 DB	'TACTICAL_GARRISON_1_TURN', 00H
	ORG $+3
$SG220206 DB	'TACTICAL_BASTION_1_TURN', 00H
$SG220207 DB	'TACTICAL_GUARD_IMPROVEMENT_1_TURN', 00H
	ORG $+2
$SG220208 DB	'TACTICAL_AIR_INTERCEPT', 00H
	ORG $+1
$SG220209 DB	'TACTICAL_AIR_SWEEP', 00H
	ORG $+1
$SG220210 DB	'TACTICAL_POSTURE_HEDGEHOG', 00H
	ORG $+2
$SG220211 DB	'TACTICAL_POSTURE_WITHDRAW', 00H
	ORG $+2
$SG220212 DB	'TACTICAL_POSTURE_SHORE_BOMBARDMENT', 00H
	ORG $+1
$SG220213 DB	'TACTICAL_CLOSE_ON_TARGET', 00H
	ORG $+3
$SG220214 DB	'TACTICAL_MOVE_OPERATIONS', 00H
	ORG $+3
$SG220215 DB	'TACTICAL_EMERGENCY_PURCHASES', 00H
	ORG $+3
$SG220216 DB	'TACTICAL_ESCORT_EMBARKED_UNIT', 00H
	ORG $+2
$SG220217 DB	'TACTICAL_PLUNDER_TRADE_UNIT', 00H
$SG220218 DB	'TACTICAL_PARK_ON_TRADE_ROUTE', 00H
	ORG $+3
$SG220219 DB	'TACTICAL_DEFENSIVE_AIRLIFT', 00H
	ORG $+1
$SG220220 DB	'TACTICAL_PILLAGE_CITADEL', 00H
	ORG $+3
$SG220221 DB	'TACTICAL_PILLAGE_RESOURCE', 00H
	ORG $+2
$SG220222 DB	'TACTICAL_PILLAGE_CITADEL_NEXT_TURN', 00H
	ORG $+1
$SG220223 DB	'TACTICAL_PILLAGE_RESOURCE_NEXT_TURN', 00H
$SG220224 DB	'TACTICAL_PILLAGE_NEXT_TURN', 00H
	ORG $+1
$SG220225 DB	'MUPOSITION_CIVILIAN_SUPPORT', 00H
$SG220226 DB	'MUPOSITION_NAVAL_ESCORT', 00H
$SG220227 DB	'MUPOSITION_BOMBARD', 00H
	ORG $+1
$SG220228 DB	'MUPOSITION_FRONT_LINE', 00H
	ORG $+6
$SG220395 DB	'Queued attack with %s, To X: %d, To Y: %d, From X: %d, F'
	DB	'rom Y: %d', 00H
	ORG $+6
$SG220421 DB	'Made initial ranged attack with %s, at X: %d, Y: %d, vs.'
	DB	' target at X: %d, Y: %d', 00H
$SG220423 DB	'Made follow-on ranged attack with %s, at X: %d, Y: %d, v'
	DB	's. target at X: %d, Y: %d', 00H
	ORG $+6
$SG220426 DB	'Made initial attack with %s, at X: %d, Y: %d, vs. target'
	DB	' at X: %d, Y: %d', 00H
	ORG $+7
$SG220428 DB	'Made follow-on attack with %s, at X: %d, Y: %d, vs. targ'
	DB	'et at X: %d, Y: %d', 00H
	ORG $+1
$SG220678 DB	'Zone ID: %d, ', 00H
	ORG $+2
$SG220684 DB	'Sit and Bombard', 00H
$SG220686 DB	'Attrit from Range', 00H
	ORG $+2
$SG220688 DB	'Exploit Flanks', 00H
	ORG $+1
$SG220690 DB	'Steamroll', 00H
	ORG $+2
$SG220692 DB	'Surgical City Strike', 00H
	ORG $+3
$SG220694 DB	'Hedgehog', 00H
	ORG $+3
$SG220696 DB	'Counterattack', 00H
	ORG $+2
$SG220698 DB	'Withdraw', 00H
	ORG $+3
$SG220700 DB	'Shore Bombardment', 00H
	ORG $+2
$SG220843 DB	'Tactical AI Move Priority', 00H
	ORG $+2
$SG220969 DB	'TACTICAL_CLOSE_ON_TARGET', 00H
	ORG $+3
$SG220972 DB	'TACTICAL_POSTURE_WITHDRAW', 00H
	ORG $+2
$SG220975 DB	'TACTICAL_POSTURE_HEDGEHOG', 00H
	ORG $+2
$SG220978 DB	'TACTICAL_POSTURE_SHORE_BOMBARDMENT', 00H
	ORG $+1
$SG220981 DB	'TACTICAL_EMERGENCY_PURCHASES', 00H
	ORG $+3
$SG220984 DB	'TACTICAL_DEFENSIVE_AIRLIFT', 00H
	ORG $+1
$SG220987 DB	'TACTICAL_OFFENSIVE_POSTURE_MOVES', 00H
	ORG $+3
$SG221220 DB	'Attacking city of ', 00H
	ORG $+1
$SG221221 DB	' to capture, X: %d, Y: %d,', 00H
	ORG $+1
$SG221246 DB	'Attacking city of ', 00H
	ORG $+1
$SG221247 DB	' to damage, X: %d, Y: %d,', 00H
	ORG $+2
$SG221261 DB	'Removing barbarian camp, X: %d, Y: %d', 00H
	ORG $+2
$SG221288 DB	'Unknown Unit Type', 00H
	ORG $+2
$SG221294 DB	'Looking at damaging high priority %s, X: %d, Y: %d,', 00H
$SG221296 DB	'Looking at damaging medium priority %s, X: %d, Y: %d,', 00H
	ORG $+2
$SG221298 DB	'Looking at damaging low priority %s, X: %d, Y: %d,', 00H
	ORG $+1
$SG221314 DB	'Looking at killing high priority %s, X: %d, Y: %d,', 00H
	ORG $+1
$SG221316 DB	'Looking at killing medium priority %s, X: %d, Y: %d,', 00H
	ORG $+3
$SG221318 DB	'Looking at killing low priority %s, X: %d, Y: %d,', 00H
	ORG $+2
$SG221533 DB	'Plundering trade unit, X: %d, Y: %d', 00H
$SG221577 DB	'Citadel', 00H
$SG221580 DB	'Improved Resource', 00H
	ORG $+2
$SG221582 DB	'Improvement', 00H
$SG221591 DB	'Paratrooping in to pillage %s, X: %d, Y: %d', 00H
$SG221596 DB	'Pillaging %s, X: %d, Y: %d', 00H
	ORG $+1
$SG221601 DB	'Moving toward %s for pillage, X: %d, Y: %d', 00H
	ORG $+1
$SG221648 DB	'Plundering trade unit, X: %d, Y: %d', 00H
$SG221660 DB	'Blockading naval resource(s) with move to, X: %d, Y: %d', 00H
$SG221678 DB	'Attacking very high priority civilian, X: %d, Y: %d', 00H
$SG221680 DB	'Attacking high priority civilian, X: %d, Y: %d', 00H
	ORG $+1
$SG221682 DB	'Attacking medium priority civilian, X: %d, Y: %d', 00H
	ORG $+3
$SG221684 DB	'Attacking low priority civilian, X: %d, Y: %d', 00H
	ORG $+2
$SG221728 DB	'Healing at, X: %d, Y: %d', 00H
	ORG $+3
$SG221741 DB	'Moving to protect camp, X: %d, Y: %d', 00H
	ORG $+3
$SG221758 DB	'Garrison, X: %d, Y: %d, Priority: %d, Turns Away: %d', 00H
	ORG $+3
$SG221760 DB	', Allows bombard', 00H
	ORG $+3
$SG221774 DB	'Bastion, X: %d, Y: %d, Priority: %d, Turns Away: %d', 00H
$SG221788 DB	'Guard Improvement, X: %d, Y: %d, Turns Away: %d', 00H
$SG221802 DB	'Moving to goody hut, X: %d, Y: %d, Turns Away: %d', 00H
	ORG $+2
$SG221831 DB	'Ready to intercept enemy air units at, X: %d, Y: %d', 00H
$SG221859 DB	'Ready to air sweep enemy air units at, X: %d, Y: %d', 00H
$SG221929 DB	'Airlifting %s to city of %s, Current X: %d, Current Y: %'
	DB	'd', 00H
	ORG $+2
$SG222154 DB	'Unassigned %s at, X: %d, Y: %d', 00H
	ORG $+1
$SG222181 DB	'Moving escorting %s to civilian for operation, Civilian '
	DB	'X: %d, Civilian Y: %d, X: %d, Y: %d', 00H
$SG222219 DB	'Moving %s without escort to target, X: %d, Y: %d', 00H
	ORG $+3
$SG222198 DB	'Moving escorting %s to open hex, Open hex X: %d, Open he'
	DB	'x Y: %d, X: %d, Y: %d', 00H
	ORG $+2
$SG222199 DB	'Moving %s to open hex, Open hex X: %d, Open hex Y: %d, X'
	DB	': %d, Y: %d', 00H
$SG222228 DB	'Moving %s to target, X: %d, Y: %d', 00H
	ORG $+2
$SG222203 DB	'Retargeting civilian escort operation. No empty tile adj'
	DB	'acent to civilian to meet.', 00H
	ORG $+5
$SG222212 DB	'Retargeting civilian escort operation (path lost to targ'
	DB	'et), X: %d, Y: %d', 00H
	ORG $+2
$SG222229 DB	'Moving escorting %s to target, X: %d, Y: %d', 00H
$SG222239 DB	'Retargeting civilian escort operation (path lost to targ'
	DB	'et), X: %d, Y: %d', 00H
	ORG $+2
$SG222248 DB	'Moving escorting %s to target, X: %d, Y: %d', 00H
$SG222249 DB	'Moving %s to target, X: %d, Y: %d', 00H
	ORG $+6
$SG222253 DB	'Retargeting civilian escort operation. Too many blocking'
	DB	' units.', 00H
$SG222262 DB	'Moving escorting %s to target, X: %d, Y: %d', 00H
$SG222263 DB	'Moving %s to target, X: %d, Y: %d', 00H
	ORG $+2
$SG222267 DB	'Retargeting civilian escort operation. Could not move bl'
	DB	'ocking unit.', 00H
	ORG $+3
$SG222390 DB	'City founded, At X=%d, At Y=%d', 00H
	ORG $+1
$SG222400 DB	'Moving %s to target, X: %d, Y: %d', 00H
	ORG $+2
$SG222406 DB	'Moving %s to target, X: %d, Y: %d', 00H
	ORG $+2
$SG222419 DB	'Moving %s near target, Now at X: %d, Y: %d', 00H
	ORG $+5
$SG222446 DB	'Retargeting naval escort operation (no unit in water!), '
	DB	'X: %d, Y: %d', 00H
	ORG $+3
$SG222481 DB	'Retargeting naval escort operation (path lost to target)'
	DB	', X: %d, Y: %d', 00H
	ORG $+1
$SG222501 DB	'Retargeting naval escort operation (path lost to target)'
	DB	', X: %d, Y: %d', 00H
	ORG $+1
$SG222529 DB	'Retargeting naval escort operation (no unit in water!), '
	DB	'X: %d, Y: %d', 00H
	ORG $+3
$SG222644 DB	'Operation aborting. Army ID: %d. Not enough spaces to de'
	DB	'ploy near target', 00H
	ORG $+3
$SG222667 DB	'No gather move for %d units', 00H
$SG222691 DB	'Operation aborting. Army ID: %d. Not enough spaces to de'
	DB	'ploy along formation''s path', 00H
$SG222714 DB	'No army deployment move for %d melee units', 00H
	ORG $+1
$SG222709 DB	'Deploying melee unit, %s, To X: %d, To Y: %d, At X: %d, '
	DB	'At Y: %d', 00H
	ORG $+7
$SG222731 DB	'Deploying ranged unit, %s, To X: %d, To Y: %d, At X: %d,'
	DB	' At Y: %d', 00H
	ORG $+6
$SG222747 DB	'Deploying ranged unit (Pass 2), %s, To X: %d, To Y: %d, '
	DB	'At X: %d, At Y: %d', 00H
	ORG $+1
$SG222752 DB	'No army deployment move for %d ranged units', 00H
$SG222889 DB	'Operation aborting. Army ID: %d. Not enough spaces to de'
	DB	'ploy near turn target', 00H
	ORG $+2
$SG222909 DB	'No naval deployment move for %d units in first pass', 00H
$SG222933 DB	'No naval deployment move for %d units in second pass', 00H
	ORG $+3
$SG223273 DB	'Set up %s for ranged attack', 00H
$SG223283 DB	'Not attacking with unit. We''ll destroy ourself, %s, X: '
	DB	'%d, Y: %d', 00H
	ORG $+3
$SG223287 DB	'Not attacking with unit. Can''t generate a good damage r'
	DB	'atio.', 00H
	ORG $+7
$SG223483 DB	'Not enough free hexes next for all melee units to attack'
	DB	', Target X: %d, Y: %d', 00H
	ORG $+2
$SG223488 DB	'Moving adjacent for attack next turn, Now at X: %d, Y: %'
	DB	'd', 00H
	ORG $+6
$SG223497 DB	'Not attacking with unit. We''ll destroy ourself, %s, X: '
	DB	'%d, Y: %d', 00H
	ORG $+3
$SG223501 DB	'Not attacking with unit. Can''t generate a good damage r'
	DB	'atio.', 00H
	ORG $+7
$SG223521 DB	'%s moved to empty space near target, X: %d, Y: %d, Curre'
	DB	'nt X: %d, Current Y: %d', 00H
$SG223817 DB	'Moving %s to safety, To X: %d, Y: %d, From X: %d, Y: %d', 00H
$SG223822 DB	'Failed to find destination moving %s to safety from, X: '
	DB	'%d, Y: %d', 00H
	ORG $+6
$SG223858 DB	'%s moved to empty space near target, X: %d, Y: %d, Curre'
	DB	'nt X: %d, Current Y: %d', 00H
$SG223862 DB	'No target for %s at position, Current X: %d, Current Y: '
	DB	'%d', 00H
	ORG $+5
$SG223876 DB	'Moving %s to new position, X: %d, Y: %d, Current X: %d, '
	DB	'Current Y: %d', 00H
	ORG $+2
$SG223880 DB	'No target for %s at position, Current X: %d, Current Y: '
	DB	'%d', 00H
	ORG $+5
$SG223913 DB	'Retargeting civilian escort operation (path lost to targ'
	DB	'et), X: %d, Y: %d', 00H
	ORG $+2
$SG223928 DB	'Moving escorting %s to take over camp defense, X: %d, Y:'
	DB	' %d', 00H
$SG223929 DB	'Moving %s to camp, X: %d, Y: %d', 00H
$SG223935 DB	'Moving %s to camp, X: %d, Y: %d', 00H
$SG223941 DB	'Moving %s to camp, X: %d, Y: %d', 00H
$SG223948 DB	'Moving %s without escort to target, X: %d, Y: %d', 00H
	ORG $+3
$SG223957 DB	'Moving escorting %s to target, X: %d, Y: %d', 00H
$SG223958 DB	'Moving %s to target, X: %d, Y: %d', 00H
	ORG $+6
$SG223967 DB	'Retargeting civilian escort operation (path lost to targ'
	DB	'et), X: %d, Y: %d', 00H
	ORG $+2
$SG223976 DB	'Moving escorting %s to target, X: %d, Y: %d', 00H
$SG223977 DB	'Moving %s to target, X: %d, Y: %d', 00H
	ORG $+6
$SG223981 DB	'Retargeting civilian escort operation. Too many blocking'
	DB	' units.', 00H
$SG223990 DB	'Moving escorting %s to target, X: %d, Y: %d', 00H
$SG223991 DB	'Moving %s to target, X: %d, Y: %d', 00H
	ORG $+2
$SG223995 DB	'Retargeting civilian escort operation. Could not move bl'
	DB	'ocking unit.', 00H
	ORG $+3
$SG224037 DB	'Moving blocking %s out of way, Leaving X: %d, Y: %d, Now'
	DB	' At X: %d, Y: %d', 00H
	ORG $+3
$SG224296 DB	'Set up %s for ranged attack', 00H
$SG224301 DB	'Making a safe bombard (no move) with %s, Target X: %d, T'
	DB	'arget Y: %d, At X: %d, At Y: %d', 00H
$SG224348 DB	'Moving closer for safe bombard with %s, Target X: %d, Y:'
	DB	' %d, Bombard From X: %d, Y: %d, Now At X: %d, Y: %d', 00H
$SG224353 DB	'Set up %s for ranged attack', 00H
$SG224358 DB	'Making a safe bombard (half move) with %s, Target X: %d,'
	DB	' Target Y: %d, At X: %d, At Y: %d', 00H
	ORG $+2
$SG224444 DB	'Moving to cover a protected bombard with %s, X: %d, Y: %'
	DB	'd', 00H
	ORG $+2
$SG224450 DB	'Pillaging during a protected bombard with %s, X: %d, Y: '
	DB	'%d', 00H
	ORG $+1
$SG224456 DB	'Fortifying during a protected bombard with %s, X: %d, Y:'
	DB	' %d', 00H
$SG224461 DB	'Sitting during a protected bombard with %s, X: %d, Y: %d'
	DB	00H
	ORG $+7
$SG224468 DB	'Moving closer for protected bombard with %s, Target X: %'
	DB	'd, Target Y: %d, At X: %d, At Y: %d', 00H
$SG224473 DB	'Set up %s for ranged attack', 00H
$SG224478 DB	'Making a protected bombard with %s, Target X: %d, Target'
	DB	' Y: %d, At X: %d, At Y: %d', 00H
	ORG $+1
$SG224541 DB	'Already in a flanking position with %s, X: %d, Y: %d', 00H
	ORG $+3
$SG224546 DB	'Moving into a flanking position with %s, X: %d, Y: %d', 00H
	ORG $+2
$SG224744 DB	'%s withdrew toward %s, Current X: %d, Current Y: %d', 00H
$SG224781 DB	'%s escorted embarked unit at, Current X: %d, Current Y: '
	DB	'%d', 00H
	ORG $+5
$SG225697 DB	'Deploying %s (to get out of way), To X: %d, To Y: %d, At'
	DB	' X: %d, At Y: %d, Distance Before Move: %d', 00H
	ORG $+5
$SG225713 DB	'Deploying %s, To X: %d, To Y: %d, At X: %d, At Y: %d, Di'
	DB	'stance Before Move: %d', 00H
	ORG $+1
$SG225730 DB	'Deploying %s to space near target, Target X: %d, Target '
	DB	'Y: %d, At X: %d, At Y: %d, Distance Before Move: %d', 00H
$SG225769 DB	'Already in position, no move for %s, X: %d, Y: %d', 00H
	ORG $+2
$SG225746 DB	'Deploying %s to space within 2 of target, Target X: %d, '
	DB	'Target Y: %d, At X: %d, At Y: %d, Distance Before Move: %d', 00H
	ORG $+1
$SG225758 DB	'Already in position, will pillage with %s, X: %d, Y: %d', 00H
$SG225764 DB	'Already in position, will fortify with %s, X: %d, Y: %d', 00H
$SG226154 DB	', ', 00H
	ORG $+1
$SG225807 DB	'Deploying %s, To X: %d, To Y: %d, At X: %d, At Y: %d, Pl'
	DB	'ot Score: %d, Dist from COM: %d', 00H
$SG226152 DB	'%03d, ', 00H
	ORG $+1
$SG226155 DB	'no zone, ', 00H
	ORG $+2
$SG226159 DB	'Zone ID: %d, ', 00H
	ORG $+2
$SG226170 DB	'.csv', 00H
	ORG $+3
$SG226171 DB	'PlayerTacticalAILog_', 00H
	ORG $+3
$SG226173 DB	'PlayerTacticalAILog.csv', 00H
$SG226185 DB	'No Tactic', 00H
	ORG $+2
$SG226187 DB	'Attack Stationary Target', 00H
	ORG $+3
$SG226189 DB	'Pillage Enemy Improvements', 00H
CONST	ENDS
PUBLIC	?wrapCoordDifference@@YAHHI_N@Z			; wrapCoordDifference
; Function compile flags: /Ogtpy
; File c:\users\enormousapplepie\desktop\lekmod files\lekmod dll versions\v29\lekmod_dll\cvgamecoredll_expansion2\cvgamecoreutils.h
;	COMDAT ?wrapCoordDifference@@YAHHI_N@Z
_TEXT	SEGMENT
_iDiff$ = 8						; size = 4
_uiRange$ = 12						; size = 4
_bWrap$ = 16						; size = 1
?wrapCoordDifference@@YAHHI_N@Z PROC			; wrapCoordDifference, COMDAT

; 57   : 	if(bWrap)

	cmp	BYTE PTR _bWrap$[esp-4], 0
	mov	eax, DWORD PTR _iDiff$[esp-4]
	je	SHORT $LN5@wrapCoordD

; 58   : 	{
; 59   : 		if(iDiff > (int)(uiRange >> 1))		// Using an unsigned int so we can safely assume that value >> 1 == value / 2

	mov	edx, DWORD PTR _uiRange$[esp-4]
	mov	ecx, edx
	shr	ecx, 1
	cmp	eax, ecx
	jle	SHORT $LN3@wrapCoordD

; 60   : 		{
; 61   : 			return (iDiff - (int)uiRange);

	sub	eax, edx

; 66   : 		}
; 67   : 	}
; 68   : 
; 69   : 	return iDiff;
; 70   : }

	ret	0
$LN3@wrapCoordD:

; 62   : 		}
; 63   : 		else if(iDiff < -(int)(uiRange >> 1))

	neg	ecx
	cmp	eax, ecx
	jge	SHORT $LN5@wrapCoordD

; 64   : 		{
; 65   : 			return (iDiff + (int)uiRange);

	add	eax, edx
$LN5@wrapCoordD:

; 66   : 		}
; 67   : 	}
; 68   : 
; 69   : 	return iDiff;
; 70   : }

	ret	0
?wrapCoordDifference@@YAHHI_N@Z ENDP			; wrapCoordDifference
_TEXT	ENDS
PUBLIC	?xToHexspaceX@@YAHHH@Z				; xToHexspaceX
; Function compile flags: /Ogtpy
;	COMDAT ?xToHexspaceX@@YAHHH@Z
_TEXT	SEGMENT
_iX$ = 8						; size = 4
_iY$ = 12						; size = 4
?xToHexspaceX@@YAHHH@Z PROC				; xToHexspaceX, COMDAT

; 86   : 	return iX - ((iY >= 0) ? (iY>>1) : ((iY - 1)/2));

	mov	ecx, DWORD PTR _iY$[esp-4]
	test	ecx, ecx
	jge	SHORT $LN5@xToHexspac
	lea	eax, DWORD PTR [ecx-1]
	cdq
	sub	eax, edx
	mov	ecx, eax
$LN5@xToHexspac:
	mov	eax, DWORD PTR _iX$[esp-4]
	sar	ecx, 1
	sub	eax, ecx

; 87   : }

	ret	0
?xToHexspaceX@@YAHHH@Z ENDP				; xToHexspaceX
_TEXT	ENDS
PUBLIC	?hexspaceXToX@@YAHHH@Z				; hexspaceXToX
; Function compile flags: /Ogtpy
;	COMDAT ?hexspaceXToX@@YAHHH@Z
_TEXT	SEGMENT
_iHexspaceX$ = 8					; size = 4
_iHexspaceY$ = 12					; size = 4
?hexspaceXToX@@YAHHH@Z PROC				; hexspaceXToX, COMDAT

; 91   : 	return iHexspaceX + ((iHexspaceY >= 0) ? (iHexspaceY>>1) : ((iHexspaceY - 1)/2));

	mov	eax, DWORD PTR _iHexspaceY$[esp-4]
	test	eax, eax
	jl	SHORT $LN3@hexspaceXT
	mov	ecx, DWORD PTR _iHexspaceX$[esp-4]
	sar	eax, 1
	add	eax, ecx

; 92   : }

	ret	0
$LN3@hexspaceXT:

; 91   : 	return iHexspaceX + ((iHexspaceY >= 0) ? (iHexspaceY>>1) : ((iHexspaceY - 1)/2));

	dec	eax
	cdq
	sub	eax, edx
	mov	edx, DWORD PTR _iHexspaceX$[esp-4]
	sar	eax, 1
	add	eax, edx

; 92   : }

	ret	0
?hexspaceXToX@@YAHHH@Z ENDP				; hexspaceXToX
_TEXT	ENDS
PUBLIC	??0CvTacticalUnit@@QAE@XZ			; CvTacticalUnit::CvTacticalUnit
; Function compile flags: /Ogtpy
; File c:\users\enormousapplepie\desktop\lekmod files\lekmod dll versions\v29\lekmod_dll\cvgamecoredll_expansion2\cvtacticalai.cpp
;	COMDAT ??0CvTacticalUnit@@QAE@XZ
_TEXT	SEGMENT
??0CvTacticalUnit@@QAE@XZ PROC				; CvTacticalUnit::CvTacticalUnit, COMDAT
; _this$ = ecx

; 28   : {

	mov	eax, ecx
	xor	ecx, ecx
	mov	DWORD PTR [eax], ecx
	mov	DWORD PTR [eax+4], ecx
	mov	DWORD PTR [eax+8], ecx
	mov	DWORD PTR [eax+12], ecx
	mov	DWORD PTR [eax+16], ecx
	mov	DWORD PTR [eax+20], ecx

; 29   : }

	ret	0
??0CvTacticalUnit@@QAE@XZ ENDP				; CvTacticalUnit::CvTacticalUnit
_TEXT	ENDS
PUBLIC	?CacheResults@CvTacticalMoveXMLEntry@@UAE_NAAVResults@Database@@AAVCvDatabaseUtility@@@Z ; CvTacticalMoveXMLEntry::CacheResults
EXTRN	__imp_?GetInt@Results@Database@@QAEHPBD@Z:PROC
EXTRN	?getInfoTypeForString@CvGlobals@@QBEHPBD_N@Z:PROC ; CvGlobals::getInfoTypeForString
EXTRN	?gGlobals@@3VCvGlobals@@A:BYTE			; gGlobals
EXTRN	__imp_?GetText@Results@Database@@QAEPBDPBD@Z:PROC
EXTRN	?CacheResults@CvBaseInfo@@UAE_NAAVResults@Database@@AAVCvDatabaseUtility@@@Z:PROC ; CvBaseInfo::CacheResults
; Function compile flags: /Ogtpy
;	COMDAT ?CacheResults@CvTacticalMoveXMLEntry@@UAE_NAAVResults@Database@@AAVCvDatabaseUtility@@@Z
_TEXT	SEGMENT
_kResults$ = 8						; size = 4
_kUtility$ = 12						; size = 4
?CacheResults@CvTacticalMoveXMLEntry@@UAE_NAAVResults@Database@@AAVCvDatabaseUtility@@@Z PROC ; CvTacticalMoveXMLEntry::CacheResults, COMDAT
; _this$ = ecx

; 57   : 	if(!CvBaseInfo::CacheResults(kResults, kUtility))

	mov	eax, DWORD PTR _kUtility$[esp-4]
	push	esi
	push	edi
	mov	edi, DWORD PTR _kResults$[esp+4]
	push	eax
	push	edi
	mov	esi, ecx
	call	?CacheResults@CvBaseInfo@@UAE_NAAVResults@Database@@AAVCvDatabaseUtility@@@Z ; CvBaseInfo::CacheResults
	test	al, al
	jne	SHORT $LN1@CacheResul
	pop	edi
	pop	esi

; 72   : }

	ret	8
$LN1@CacheResul:
	push	ebx

; 58   : 		return false;
; 59   : 
; 60   : 	const char* szMoveType = kResults.GetText("Type");

	push	OFFSET $SG219922
	mov	ecx, edi
	call	DWORD PTR __imp_?GetText@Results@Database@@QAEPBDPBD@Z

; 61   : 	m_eMoveType = (TacticalAIMoveTypes)GC.getInfoTypeForString(szMoveType);

	push	0
	push	eax
	mov	ecx, OFFSET ?gGlobals@@3VCvGlobals@@A	; gGlobals
	call	?getInfoTypeForString@CvGlobals@@QBEHPBD_N@Z ; CvGlobals::getInfoTypeForString

; 62   : 
; 63   : 	m_iPriority = kResults.GetInt("Priority");

	mov	ebx, DWORD PTR __imp_?GetInt@Results@Database@@QAEHPBD@Z
	push	OFFSET $SG219924
	mov	ecx, edi
	mov	DWORD PTR [esi+260], eax
	call	ebx

; 64   : 
; 65   : 	m_iOffenseWeight = kResults.GetInt("OffenseFlavorWeight");

	push	OFFSET $SG219925
	mov	ecx, edi
	mov	DWORD PTR [esi+264], eax
	call	ebx

; 66   : 	m_iDefenseWeight = kResults.GetInt("DefenseFlavorWeight");

	push	OFFSET $SG219926
	mov	ecx, edi
	mov	DWORD PTR [esi+268], eax
	call	ebx

; 67   : 
; 68   : 	m_bOperationsCanRecruit = kResults.GetInt("OperationsCanRecruit");

	push	OFFSET $SG219927
	mov	ecx, edi
	mov	DWORD PTR [esi+272], eax
	call	ebx
	test	eax, eax
	setne	cl
	mov	BYTE PTR [esi+276], cl

; 69   : 	m_bDominanceZoneMove = kResults.GetInt("DominanceZoneMove");

	push	OFFSET $SG219928
	mov	ecx, edi
	call	ebx
	test	eax, eax
	pop	ebx
	setne	dl
	pop	edi
	mov	BYTE PTR [esi+277], dl

; 70   : 
; 71   : 	return true;

	mov	al, 1
	pop	esi

; 72   : }

	ret	8
?CacheResults@CvTacticalMoveXMLEntry@@UAE_NAAVResults@Database@@AAVCvDatabaseUtility@@@Z ENDP ; CvTacticalMoveXMLEntry::CacheResults
_TEXT	ENDS
PUBLIC	?GetTacticalMoveEntries@CvTacticalMoveXMLEntries@@QAEAAV?$vector@PAVCvTacticalMoveXMLEntry@@V?$allocator@PAVCvTacticalMoveXMLEntry@@@std@@@std@@XZ ; CvTacticalMoveXMLEntries::GetTacticalMoveEntries
; Function compile flags: /Ogtpy
;	COMDAT ?GetTacticalMoveEntries@CvTacticalMoveXMLEntries@@QAEAAV?$vector@PAVCvTacticalMoveXMLEntry@@V?$allocator@PAVCvTacticalMoveXMLEntry@@@std@@@std@@XZ
_TEXT	SEGMENT
?GetTacticalMoveEntries@CvTacticalMoveXMLEntries@@QAEAAV?$vector@PAVCvTacticalMoveXMLEntry@@V?$allocator@PAVCvTacticalMoveXMLEntry@@@std@@@std@@XZ PROC ; CvTacticalMoveXMLEntries::GetTacticalMoveEntries, COMDAT
; _this$ = ecx

; 90   : {

	mov	eax, ecx

; 91   : 	return m_paTacticalMoveEntries;
; 92   : }

	ret	0
?GetTacticalMoveEntries@CvTacticalMoveXMLEntries@@QAEAAV?$vector@PAVCvTacticalMoveXMLEntry@@V?$allocator@PAVCvTacticalMoveXMLEntry@@@std@@@std@@XZ ENDP ; CvTacticalMoveXMLEntries::GetTacticalMoveEntries
_TEXT	ENDS
PUBLIC	??_7bad_alloc@std@@6B@				; std::bad_alloc::`vftable'
PUBLIC	??0bad_alloc@std@@QAE@PBD@Z			; std::bad_alloc::bad_alloc
PUBLIC	??_R4bad_alloc@std@@6B@				; std::bad_alloc::`RTTI Complete Object Locator'
PUBLIC	??_R0?AVbad_alloc@std@@@8			; std::bad_alloc `RTTI Type Descriptor'
PUBLIC	??_R3bad_alloc@std@@8				; std::bad_alloc::`RTTI Class Hierarchy Descriptor'
PUBLIC	??_R2bad_alloc@std@@8				; std::bad_alloc::`RTTI Base Class Array'
PUBLIC	??_R1A@?0A@EA@bad_alloc@std@@8			; std::bad_alloc::`RTTI Base Class Descriptor at (0,-1,0,64)'
PUBLIC	??_R1A@?0A@EA@exception@std@@8			; std::exception::`RTTI Base Class Descriptor at (0,-1,0,64)'
PUBLIC	??_R0?AVexception@std@@@8			; std::exception `RTTI Type Descriptor'
PUBLIC	??_R3exception@std@@8				; std::exception::`RTTI Class Hierarchy Descriptor'
PUBLIC	??_R2exception@std@@8				; std::exception::`RTTI Base Class Array'
EXTRN	__imp_??0exception@std@@QAE@ABQBD@Z:PROC
EXTRN	??_7type_info@@6B@:QWORD			; type_info::`vftable'
EXTRN	??_Ebad_alloc@std@@UAEPAXI@Z:PROC		; std::bad_alloc::`vector deleting destructor'
EXTRN	?what@exception@std@@UBEPBDXZ:PROC		; std::exception::what
;	COMDAT ??_R2exception@std@@8
; File c:\program files (x86)\microsoft visual studio 9.0\vc\include\exception
rdata$r	SEGMENT
??_R2exception@std@@8 DD FLAT:??_R1A@?0A@EA@exception@std@@8 ; std::exception::`RTTI Base Class Array'
rdata$r	ENDS
;	COMDAT ??_R3exception@std@@8
rdata$r	SEGMENT
??_R3exception@std@@8 DD 00H				; std::exception::`RTTI Class Hierarchy Descriptor'
	DD	00H
	DD	01H
	DD	FLAT:??_R2exception@std@@8
rdata$r	ENDS
;	COMDAT ??_R0?AVexception@std@@@8
_DATA	SEGMENT
??_R0?AVexception@std@@@8 DD FLAT:??_7type_info@@6B@	; std::exception `RTTI Type Descriptor'
	DD	00H
	DB	'.?AVexception@std@@', 00H
_DATA	ENDS
;	COMDAT ??_R1A@?0A@EA@exception@std@@8
rdata$r	SEGMENT
??_R1A@?0A@EA@exception@std@@8 DD FLAT:??_R0?AVexception@std@@@8 ; std::exception::`RTTI Base Class Descriptor at (0,-1,0,64)'
	DD	00H
	DD	00H
	DD	0ffffffffH
	DD	00H
	DD	040H
	DD	FLAT:??_R3exception@std@@8
rdata$r	ENDS
;	COMDAT ??_R1A@?0A@EA@bad_alloc@std@@8
rdata$r	SEGMENT
??_R1A@?0A@EA@bad_alloc@std@@8 DD FLAT:??_R0?AVbad_alloc@std@@@8 ; std::bad_alloc::`RTTI Base Class Descriptor at (0,-1,0,64)'
	DD	01H
	DD	00H
	DD	0ffffffffH
	DD	00H
	DD	040H
	DD	FLAT:??_R3bad_alloc@std@@8
rdata$r	ENDS
;	COMDAT ??_R2bad_alloc@std@@8
rdata$r	SEGMENT
??_R2bad_alloc@std@@8 DD FLAT:??_R1A@?0A@EA@bad_alloc@std@@8 ; std::bad_alloc::`RTTI Base Class Array'
	DD	FLAT:??_R1A@?0A@EA@exception@std@@8
rdata$r	ENDS
;	COMDAT ??_R3bad_alloc@std@@8
rdata$r	SEGMENT
??_R3bad_alloc@std@@8 DD 00H				; std::bad_alloc::`RTTI Class Hierarchy Descriptor'
	DD	00H
	DD	02H
	DD	FLAT:??_R2bad_alloc@std@@8
rdata$r	ENDS
;	COMDAT ??_R0?AVbad_alloc@std@@@8
_DATA	SEGMENT
??_R0?AVbad_alloc@std@@@8 DD FLAT:??_7type_info@@6B@	; std::bad_alloc `RTTI Type Descriptor'
	DD	00H
	DB	'.?AVbad_alloc@std@@', 00H
_DATA	ENDS
;	COMDAT ??_R4bad_alloc@std@@6B@
rdata$r	SEGMENT
??_R4bad_alloc@std@@6B@ DD 00H				; std::bad_alloc::`RTTI Complete Object Locator'
	DD	00H
	DD	00H
	DD	FLAT:??_R0?AVbad_alloc@std@@@8
	DD	FLAT:??_R3bad_alloc@std@@8
rdata$r	ENDS
;	COMDAT ??_7bad_alloc@std@@6B@
CONST	SEGMENT
??_7bad_alloc@std@@6B@ DD FLAT:??_R4bad_alloc@std@@6B@	; std::bad_alloc::`vftable'
	DD	FLAT:??_Ebad_alloc@std@@UAEPAXI@Z
	DD	FLAT:?what@exception@std@@UBEPBDXZ
; Function compile flags: /Ogtpy
CONST	ENDS
;	COMDAT ??0bad_alloc@std@@QAE@PBD@Z
_TEXT	SEGMENT
__Message$ = 8						; size = 4
??0bad_alloc@std@@QAE@PBD@Z PROC			; std::bad_alloc::bad_alloc, COMDAT
; _this$ = ecx

; 371  : 		{	// construct from message string

	push	esi
	lea	eax, DWORD PTR __Message$[esp]
	push	eax
	mov	esi, ecx
	call	DWORD PTR __imp_??0exception@std@@QAE@ABQBD@Z
	mov	DWORD PTR [esi], OFFSET ??_7bad_alloc@std@@6B@

; 372  : 		}

	mov	eax, esi
	pop	esi
	ret	4
??0bad_alloc@std@@QAE@PBD@Z ENDP			; std::bad_alloc::bad_alloc
_TEXT	ENDS
PUBLIC	??1bad_alloc@std@@UAE@XZ			; std::bad_alloc::~bad_alloc
EXTRN	__imp_??1exception@std@@UAE@XZ:PROC
; Function compile flags: /Ogtpy
;	COMDAT ??1bad_alloc@std@@UAE@XZ
_TEXT	SEGMENT
??1bad_alloc@std@@UAE@XZ PROC				; std::bad_alloc::~bad_alloc, COMDAT
; _this$ = ecx

; 380  : 		{	// destroy the object

	mov	DWORD PTR [ecx], OFFSET ??_7bad_alloc@std@@6B@

; 381  : 		}

	jmp	DWORD PTR __imp_??1exception@std@@UAE@XZ
??1bad_alloc@std@@UAE@XZ ENDP				; std::bad_alloc::~bad_alloc
_TEXT	ENDS
EXTRN	??3@YAXPAX@Z:PROC				; operator delete
; Function compile flags: /Ogtpy
;	COMDAT ??_Gbad_alloc@std@@UAEPAXI@Z
_TEXT	SEGMENT
___flags$ = 8						; size = 4
??_Gbad_alloc@std@@UAEPAXI@Z PROC			; std::bad_alloc::`scalar deleting destructor', COMDAT
; _this$ = ecx
	push	esi
	mov	esi, ecx
	mov	DWORD PTR [esi], OFFSET ??_7bad_alloc@std@@6B@
	call	DWORD PTR __imp_??1exception@std@@UAE@XZ
	test	BYTE PTR ___flags$[esp], 1
	je	SHORT $LN6@scalar
	push	esi
	call	??3@YAXPAX@Z				; operator delete
	add	esp, 4
$LN6@scalar:
	mov	eax, esi
	pop	esi
	ret	4
??_Gbad_alloc@std@@UAEPAXI@Z ENDP			; std::bad_alloc::`scalar deleting destructor'
_TEXT	ENDS
PUBLIC	??2@YAPAXIPAX@Z					; operator new
; Function compile flags: /Ogtpy
; File c:\program files (x86)\microsoft visual studio 9.0\vc\include\new
;	COMDAT ??2@YAPAXIPAX@Z
_TEXT	SEGMENT
___formal$ = 8						; size = 4
__Where$ = 12						; size = 4
??2@YAPAXIPAX@Z PROC					; operator new, COMDAT

; 59   : 	return (_Where);

	mov	eax, DWORD PTR __Where$[esp-4]

; 60   : 	}

	ret	0
??2@YAPAXIPAX@Z ENDP					; operator new
_TEXT	ENDS
PUBLIC	??3@YAXPAX0@Z					; operator delete
; Function compile flags: /Ogtpy
;	COMDAT ??3@YAXPAX0@Z
_TEXT	SEGMENT
___formal$ = 8						; size = 4
___formal$ = 12						; size = 4
??3@YAXPAX0@Z PROC					; operator delete, COMDAT

; 64   : 	}

	ret	0
??3@YAXPAX0@Z ENDP					; operator delete
_TEXT	ENDS
PUBLIC	?Uninit@CvTacticalAI@@QAEXXZ			; CvTacticalAI::Uninit
; Function compile flags: /Ogtpy
; File c:\users\enormousapplepie\desktop\lekmod files\lekmod dll versions\v29\lekmod_dll\cvgamecoredll_expansion2\cvtacticalai.cpp
;	COMDAT ?Uninit@CvTacticalAI@@QAEXXZ
_TEXT	SEGMENT
?Uninit@CvTacticalAI@@QAEXXZ PROC			; CvTacticalAI::Uninit, COMDAT
; _this$ = ecx

; 326  : }

	ret	0
?Uninit@CvTacticalAI@@QAEXXZ ENDP			; CvTacticalAI::Uninit
_TEXT	ENDS
PUBLIC	?Reset@CvTacticalAI@@QAEXXZ			; CvTacticalAI::Reset
; Function compile flags: /Ogtpy
;	COMDAT ?Reset@CvTacticalAI@@QAEXXZ
_TEXT	SEGMENT
?Reset@CvTacticalAI@@QAEXXZ PROC			; CvTacticalAI::Reset, COMDAT
; _this$ = ecx

; 331  : 	m_MovePriorityTurn = -1;

	mov	DWORD PTR [ecx+2132], -1

; 332  : 	m_pMap = NULL;

	mov	DWORD PTR [ecx+4], 0

; 333  : }

	ret	0
?Reset@CvTacticalAI@@QAEXXZ ENDP			; CvTacticalAI::Reset
_TEXT	ENDS
PUBLIC	??_7logic_error@std@@6B@			; std::logic_error::`vftable'
PUBLIC	??0logic_error@std@@QAE@ABV?$basic_string@DU?$char_traits@D@std@@V?$allocator@D@2@@1@@Z ; std::logic_error::logic_error
PUBLIC	??_R4logic_error@std@@6B@			; std::logic_error::`RTTI Complete Object Locator'
PUBLIC	??_R0?AVlogic_error@std@@@8			; std::logic_error `RTTI Type Descriptor'
PUBLIC	??_R3logic_error@std@@8				; std::logic_error::`RTTI Class Hierarchy Descriptor'
PUBLIC	??_R2logic_error@std@@8				; std::logic_error::`RTTI Base Class Array'
PUBLIC	??_R1A@?0A@EA@logic_error@std@@8		; std::logic_error::`RTTI Base Class Descriptor at (0,-1,0,64)'
PUBLIC	?what@logic_error@std@@UBEPBDXZ			; std::logic_error::what
EXTRN	__imp_??0?$basic_string@DU?$char_traits@D@std@@V?$allocator@D@2@@std@@QAE@ABV01@@Z:PROC
EXTRN	__imp_??0exception@std@@QAE@XZ:PROC
EXTRN	___CxxFrameHandler3:PROC
EXTRN	??_Elogic_error@std@@UAEPAXI@Z:PROC		; std::logic_error::`vector deleting destructor'
;	COMDAT ??_R1A@?0A@EA@logic_error@std@@8
; File c:\program files (x86)\microsoft visual studio 9.0\vc\include\stdexcept
rdata$r	SEGMENT
??_R1A@?0A@EA@logic_error@std@@8 DD FLAT:??_R0?AVlogic_error@std@@@8 ; std::logic_error::`RTTI Base Class Descriptor at (0,-1,0,64)'
	DD	01H
	DD	00H
	DD	0ffffffffH
	DD	00H
	DD	040H
	DD	FLAT:??_R3logic_error@std@@8
rdata$r	ENDS
;	COMDAT ??_R2logic_error@std@@8
rdata$r	SEGMENT
??_R2logic_error@std@@8 DD FLAT:??_R1A@?0A@EA@logic_error@std@@8 ; std::logic_error::`RTTI Base Class Array'
	DD	FLAT:??_R1A@?0A@EA@exception@std@@8
rdata$r	ENDS
;	COMDAT ??_R3logic_error@std@@8
rdata$r	SEGMENT
??_R3logic_error@std@@8 DD 00H				; std::logic_error::`RTTI Class Hierarchy Descriptor'
	DD	00H
	DD	02H
	DD	FLAT:??_R2logic_error@std@@8
rdata$r	ENDS
;	COMDAT ??_R0?AVlogic_error@std@@@8
_DATA	SEGMENT
??_R0?AVlogic_error@std@@@8 DD FLAT:??_7type_info@@6B@	; std::logic_error `RTTI Type Descriptor'
	DD	00H
	DB	'.?AVlogic_error@std@@', 00H
_DATA	ENDS
;	COMDAT ??_R4logic_error@std@@6B@
rdata$r	SEGMENT
??_R4logic_error@std@@6B@ DD 00H			; std::logic_error::`RTTI Complete Object Locator'
	DD	00H
	DD	00H
	DD	FLAT:??_R0?AVlogic_error@std@@@8
	DD	FLAT:??_R3logic_error@std@@8
rdata$r	ENDS
;	COMDAT ??_7logic_error@std@@6B@
CONST	SEGMENT
??_7logic_error@std@@6B@ DD FLAT:??_R4logic_error@std@@6B@ ; std::logic_error::`vftable'
	DD	FLAT:??_Elogic_error@std@@UAEPAXI@Z
	DD	FLAT:?what@logic_error@std@@UBEPBDXZ
CONST	ENDS
;	COMDAT xdata$x
xdata$x	SEGMENT
__unwindtable$??0logic_error@std@@QAE@ABV?$basic_string@DU?$char_traits@D@std@@V?$allocator@D@2@@1@@Z DD 0ffffffffH
	DD	FLAT:__unwindfunclet$??0logic_error@std@@QAE@ABV?$basic_string@DU?$char_traits@D@std@@V?$allocator@D@2@@1@@Z$0
__ehfuncinfo$??0logic_error@std@@QAE@ABV?$basic_string@DU?$char_traits@D@std@@V?$allocator@D@2@@1@@Z DD 019930522H
	DD	01H
	DD	FLAT:__unwindtable$??0logic_error@std@@QAE@ABV?$basic_string@DU?$char_traits@D@std@@V?$allocator@D@2@@1@@Z
	DD	2 DUP(00H)
	DD	2 DUP(00H)
	DD	00H
	DD	01H
; Function compile flags: /Ogtpy
xdata$x	ENDS
;	COMDAT ??0logic_error@std@@QAE@ABV?$basic_string@DU?$char_traits@D@std@@V?$allocator@D@2@@1@@Z
_TEXT	SEGMENT
_this$ = -16						; size = 4
__$EHRec$ = -12						; size = 12
__Message$ = 8						; size = 4
??0logic_error@std@@QAE@ABV?$basic_string@DU?$char_traits@D@std@@V?$allocator@D@2@@1@@Z PROC ; std::logic_error::logic_error, COMDAT
; _this$ = ecx

; 26   : 		{	// construct from message string

	push	-1
	push	__ehhandler$??0logic_error@std@@QAE@ABV?$basic_string@DU?$char_traits@D@std@@V?$allocator@D@2@@1@@Z
	mov	eax, DWORD PTR fs:0
	push	eax
	mov	DWORD PTR fs:0, esp
	push	ecx
	push	esi
	mov	esi, ecx
	mov	DWORD PTR _this$[esp+20], esi
	call	DWORD PTR __imp_??0exception@std@@QAE@XZ
	mov	eax, DWORD PTR __Message$[esp+16]
	push	eax
	lea	ecx, DWORD PTR [esi+12]
	mov	DWORD PTR __$EHRec$[esp+32], 0
	mov	DWORD PTR [esi], OFFSET ??_7logic_error@std@@6B@
	call	DWORD PTR __imp_??0?$basic_string@DU?$char_traits@D@std@@V?$allocator@D@2@@std@@QAE@ABV01@@Z

; 27   : 		}

	mov	ecx, DWORD PTR __$EHRec$[esp+20]
	mov	eax, esi
	pop	esi
	mov	DWORD PTR fs:0, ecx
	add	esp, 16					; 00000010H
	ret	4
_TEXT	ENDS
;	COMDAT text$x
text$x	SEGMENT
__unwindfunclet$??0logic_error@std@@QAE@ABV?$basic_string@DU?$char_traits@D@std@@V?$allocator@D@2@@1@@Z$0:
	mov	ecx, DWORD PTR _this$[ebp]
	jmp	DWORD PTR __imp_??1exception@std@@UAE@XZ
__ehhandler$??0logic_error@std@@QAE@ABV?$basic_string@DU?$char_traits@D@std@@V?$allocator@D@2@@1@@Z:
	mov	eax, OFFSET __ehfuncinfo$??0logic_error@std@@QAE@ABV?$basic_string@DU?$char_traits@D@std@@V?$allocator@D@2@@1@@Z
	jmp	___CxxFrameHandler3
text$x	ENDS
??0logic_error@std@@QAE@ABV?$basic_string@DU?$char_traits@D@std@@V?$allocator@D@2@@1@@Z ENDP ; std::logic_error::logic_error
PUBLIC	??1logic_error@std@@UAE@XZ			; std::logic_error::~logic_error
EXTRN	__imp_??1?$basic_string@DU?$char_traits@D@std@@V?$allocator@D@2@@std@@QAE@XZ:PROC
; Function compile flags: /Ogtpy
;	COMDAT ??1logic_error@std@@UAE@XZ
_TEXT	SEGMENT
??1logic_error@std@@UAE@XZ PROC				; std::logic_error::~logic_error, COMDAT
; _this$ = ecx

; 30   : 		{	// destroy the object

	push	esi
	mov	esi, ecx

; 31   : 		}

	lea	ecx, DWORD PTR [esi+12]
	mov	DWORD PTR [esi], OFFSET ??_7logic_error@std@@6B@
	call	DWORD PTR __imp_??1?$basic_string@DU?$char_traits@D@std@@V?$allocator@D@2@@std@@QAE@XZ
	mov	ecx, esi
	pop	esi
	jmp	DWORD PTR __imp_??1exception@std@@UAE@XZ
??1logic_error@std@@UAE@XZ ENDP				; std::logic_error::~logic_error
_TEXT	ENDS
EXTRN	__imp_?c_str@?$basic_string@DU?$char_traits@D@std@@V?$allocator@D@2@@std@@QBEPBDXZ:PROC
; Function compile flags: /Ogtpy
;	COMDAT ?what@logic_error@std@@UBEPBDXZ
_TEXT	SEGMENT
?what@logic_error@std@@UBEPBDXZ PROC			; std::logic_error::what, COMDAT
; _this$ = ecx

; 35   : 		return (_Str.c_str());

	add	ecx, 12					; 0000000cH
	jmp	DWORD PTR __imp_?c_str@?$basic_string@DU?$char_traits@D@std@@V?$allocator@D@2@@std@@QBEPBDXZ
?what@logic_error@std@@UBEPBDXZ ENDP			; std::logic_error::what
; Function compile flags: /Ogtpy
_TEXT	ENDS
;	COMDAT ??_Glogic_error@std@@UAEPAXI@Z
_TEXT	SEGMENT
___flags$ = 8						; size = 4
??_Glogic_error@std@@UAEPAXI@Z PROC			; std::logic_error::`scalar deleting destructor', COMDAT
; _this$ = ecx
	push	esi
	mov	esi, ecx
	lea	ecx, DWORD PTR [esi+12]
	mov	DWORD PTR [esi], OFFSET ??_7logic_error@std@@6B@
	call	DWORD PTR __imp_??1?$basic_string@DU?$char_traits@D@std@@V?$allocator@D@2@@std@@QAE@XZ
	mov	ecx, esi
	call	DWORD PTR __imp_??1exception@std@@UAE@XZ
	test	BYTE PTR ___flags$[esp], 1
	je	SHORT $LN6@scalar@2
	push	esi
	call	??3@YAXPAX@Z				; operator delete
	add	esp, 4
$LN6@scalar@2:
	mov	eax, esi
	pop	esi
	ret	4
??_Glogic_error@std@@UAEPAXI@Z ENDP			; std::logic_error::`scalar deleting destructor'
_TEXT	ENDS
PUBLIC	?DoTurn@CvTacticalAI@@QAEXXZ			; CvTacticalAI::DoTurn
; Function compile flags: /Ogtpy
; File c:\users\enormousapplepie\desktop\lekmod files\lekmod dll versions\v29\lekmod_dll\cvgamecoredll_expansion2\cvtacticalai.cpp
;	COMDAT ?DoTurn@CvTacticalAI@@QAEXXZ
_TEXT	SEGMENT
?DoTurn@CvTacticalAI@@QAEXXZ PROC			; CvTacticalAI::DoTurn, COMDAT
; _this$ = ecx

; 421  : }

	ret	0
?DoTurn@CvTacticalAI@@QAEXXZ ENDP			; CvTacticalAI::DoTurn
_TEXT	ENDS
PUBLIC	??_7length_error@std@@6B@			; std::length_error::`vftable'
PUBLIC	??0length_error@std@@QAE@ABV?$basic_string@DU?$char_traits@D@std@@V?$allocator@D@2@@1@@Z ; std::length_error::length_error
PUBLIC	??_R4length_error@std@@6B@			; std::length_error::`RTTI Complete Object Locator'
PUBLIC	??_R0?AVlength_error@std@@@8			; std::length_error `RTTI Type Descriptor'
PUBLIC	??_R3length_error@std@@8			; std::length_error::`RTTI Class Hierarchy Descriptor'
PUBLIC	??_R2length_error@std@@8			; std::length_error::`RTTI Base Class Array'
PUBLIC	??_R1A@?0A@EA@length_error@std@@8		; std::length_error::`RTTI Base Class Descriptor at (0,-1,0,64)'
EXTRN	??_Elength_error@std@@UAEPAXI@Z:PROC		; std::length_error::`vector deleting destructor'
;	COMDAT ??_R1A@?0A@EA@length_error@std@@8
; File c:\program files (x86)\microsoft visual studio 9.0\vc\include\stdexcept
rdata$r	SEGMENT
??_R1A@?0A@EA@length_error@std@@8 DD FLAT:??_R0?AVlength_error@std@@@8 ; std::length_error::`RTTI Base Class Descriptor at (0,-1,0,64)'
	DD	02H
	DD	00H
	DD	0ffffffffH
	DD	00H
	DD	040H
	DD	FLAT:??_R3length_error@std@@8
rdata$r	ENDS
;	COMDAT ??_R2length_error@std@@8
rdata$r	SEGMENT
??_R2length_error@std@@8 DD FLAT:??_R1A@?0A@EA@length_error@std@@8 ; std::length_error::`RTTI Base Class Array'
	DD	FLAT:??_R1A@?0A@EA@logic_error@std@@8
	DD	FLAT:??_R1A@?0A@EA@exception@std@@8
rdata$r	ENDS
;	COMDAT ??_R3length_error@std@@8
rdata$r	SEGMENT
??_R3length_error@std@@8 DD 00H				; std::length_error::`RTTI Class Hierarchy Descriptor'
	DD	00H
	DD	03H
	DD	FLAT:??_R2length_error@std@@8
rdata$r	ENDS
;	COMDAT ??_R0?AVlength_error@std@@@8
_DATA	SEGMENT
??_R0?AVlength_error@std@@@8 DD FLAT:??_7type_info@@6B@	; std::length_error `RTTI Type Descriptor'
	DD	00H
	DB	'.?AVlength_error@std@@', 00H
_DATA	ENDS
;	COMDAT ??_R4length_error@std@@6B@
rdata$r	SEGMENT
??_R4length_error@std@@6B@ DD 00H			; std::length_error::`RTTI Complete Object Locator'
	DD	00H
	DD	00H
	DD	FLAT:??_R0?AVlength_error@std@@@8
	DD	FLAT:??_R3length_error@std@@8
rdata$r	ENDS
;	COMDAT ??_7length_error@std@@6B@
CONST	SEGMENT
??_7length_error@std@@6B@ DD FLAT:??_R4length_error@std@@6B@ ; std::length_error::`vftable'
	DD	FLAT:??_Elength_error@std@@UAEPAXI@Z
	DD	FLAT:?what@logic_error@std@@UBEPBDXZ
; Function compile flags: /Ogtpy
CONST	ENDS
;	COMDAT ??0length_error@std@@QAE@ABV?$basic_string@DU?$char_traits@D@std@@V?$allocator@D@2@@1@@Z
_TEXT	SEGMENT
__Message$ = 8						; size = 4
??0length_error@std@@QAE@ABV?$basic_string@DU?$char_traits@D@std@@V?$allocator@D@2@@1@@Z PROC ; std::length_error::length_error, COMDAT
; _this$ = ecx

; 105  : 		{	// construct from message string

	mov	eax, DWORD PTR __Message$[esp-4]
	push	esi
	push	eax
	mov	esi, ecx
	call	??0logic_error@std@@QAE@ABV?$basic_string@DU?$char_traits@D@std@@V?$allocator@D@2@@1@@Z ; std::logic_error::logic_error
	mov	DWORD PTR [esi], OFFSET ??_7length_error@std@@6B@

; 106  : 		}

	mov	eax, esi
	pop	esi
	ret	4
??0length_error@std@@QAE@ABV?$basic_string@DU?$char_traits@D@std@@V?$allocator@D@2@@1@@Z ENDP ; std::length_error::length_error
_TEXT	ENDS
PUBLIC	??1length_error@std@@UAE@XZ			; std::length_error::~length_error
; Function compile flags: /Ogtpy
;	COMDAT ??1length_error@std@@UAE@XZ
_TEXT	SEGMENT
??1length_error@std@@UAE@XZ PROC			; std::length_error::~length_error, COMDAT
; _this$ = ecx

; 109  : 		{	// destroy the object

	push	esi
	mov	esi, ecx

; 110  : 		}

	lea	ecx, DWORD PTR [esi+12]
	mov	DWORD PTR [esi], OFFSET ??_7logic_error@std@@6B@
	call	DWORD PTR __imp_??1?$basic_string@DU?$char_traits@D@std@@V?$allocator@D@2@@std@@QAE@XZ
	mov	ecx, esi
	pop	esi
	jmp	DWORD PTR __imp_??1exception@std@@UAE@XZ
??1length_error@std@@UAE@XZ ENDP			; std::length_error::~length_error
; Function compile flags: /Ogtpy
_TEXT	ENDS
;	COMDAT ??_Glength_error@std@@UAEPAXI@Z
_TEXT	SEGMENT
___flags$ = 8						; size = 4
??_Glength_error@std@@UAEPAXI@Z PROC			; std::length_error::`scalar deleting destructor', COMDAT
; _this$ = ecx
	push	esi
	mov	esi, ecx
	lea	ecx, DWORD PTR [esi+12]
	mov	DWORD PTR [esi], OFFSET ??_7logic_error@std@@6B@
	call	DWORD PTR __imp_??1?$basic_string@DU?$char_traits@D@std@@V?$allocator@D@2@@std@@QAE@XZ
	mov	ecx, esi
	call	DWORD PTR __imp_??1exception@std@@UAE@XZ
	test	BYTE PTR ___flags$[esp], 1
	je	SHORT $LN8@scalar@3
	push	esi
	call	??3@YAXPAX@Z				; operator delete
	add	esp, 4
$LN8@scalar@3:
	mov	eax, esi
	pop	esi
	ret	4
??_Glength_error@std@@UAEPAXI@Z ENDP			; std::length_error::`scalar deleting destructor'
_TEXT	ENDS
PUBLIC	??0CvString@@QAE@XZ				; CvString::CvString
EXTRN	__imp_??0?$basic_string@DU?$char_traits@D@std@@V?$allocator@D@2@@std@@QAE@XZ:PROC
; Function compile flags: /Ogtpy
; File c:\users\enormousapplepie\desktop\lekmod files\lekmod dll versions\v29\lekmod_dll\cvgamecoredllutil\include\cvstring.h
;	COMDAT ??0CvString@@QAE@XZ
_TEXT	SEGMENT
??0CvString@@QAE@XZ PROC				; CvString::CvString, COMDAT
; _this$ = ecx

; 23   : 	CvString() {}

	push	esi
	mov	esi, ecx
	call	DWORD PTR __imp_??0?$basic_string@DU?$char_traits@D@std@@V?$allocator@D@2@@std@@QAE@XZ
	mov	eax, esi
	pop	esi
	ret	0
??0CvString@@QAE@XZ ENDP				; CvString::CvString
_TEXT	ENDS
PUBLIC	??_C@_00CNPNBAHC@?$AA@				; `string'
PUBLIC	??0CvString@@QAE@PBD@Z				; CvString::CvString
EXTRN	__imp_??0?$basic_string@DU?$char_traits@D@std@@V?$allocator@D@2@@std@@QAE@PBD@Z:PROC
;	COMDAT ??_C@_00CNPNBAHC@?$AA@
CONST	SEGMENT
??_C@_00CNPNBAHC@?$AA@ DB 00H				; `string'
; Function compile flags: /Ogtpy
CONST	ENDS
;	COMDAT ??0CvString@@QAE@PBD@Z
_TEXT	SEGMENT
_s$ = 8							; size = 4
??0CvString@@QAE@PBD@Z PROC				; CvString::CvString, COMDAT
; _this$ = ecx

; 25   : 	CvString(const char* s) : std::string(s ? s : "") {CvAssertMsg(s != NULL, "Passing NULL to std::string; possible heap corruption!");}

	mov	eax, DWORD PTR _s$[esp-4]
	push	esi
	mov	esi, ecx
	test	eax, eax
	jne	SHORT $LN4@CvString
	mov	eax, OFFSET ??_C@_00CNPNBAHC@?$AA@
$LN4@CvString:
	push	eax
	call	DWORD PTR __imp_??0?$basic_string@DU?$char_traits@D@std@@V?$allocator@D@2@@std@@QAE@PBD@Z
	mov	eax, esi
	pop	esi
	ret	4
??0CvString@@QAE@PBD@Z ENDP				; CvString::CvString
_TEXT	ENDS
PUBLIC	??1CvString@@QAE@XZ				; CvString::~CvString
; Function compile flags: /Ogtpy
;	COMDAT ??1CvString@@QAE@XZ
_TEXT	SEGMENT
??1CvString@@QAE@XZ PROC				; CvString::~CvString, COMDAT
; _this$ = ecx

; 28   : 	~CvString() {}

	jmp	DWORD PTR __imp_??1?$basic_string@DU?$char_traits@D@std@@V?$allocator@D@2@@std@@QAE@XZ
??1CvString@@QAE@XZ ENDP				; CvString::~CvString
_TEXT	ENDS
PUBLIC	??BCvString@@QBEPBDXZ				; CvString::operator char const *
; Function compile flags: /Ogtpy
;	COMDAT ??BCvString@@QBEPBDXZ
_TEXT	SEGMENT
??BCvString@@QBEPBDXZ PROC				; CvString::operator char const *, COMDAT
; _this$ = ecx

; 31   : 	operator const char*() const 	{ return c_str(); }												

	jmp	DWORD PTR __imp_?c_str@?$basic_string@DU?$char_traits@D@std@@V?$allocator@D@2@@std@@QBEPBDXZ
??BCvString@@QBEPBDXZ ENDP				; CvString::operator char const *
_TEXT	ENDS
PUBLIC	??4CvString@@QAEAAV0@PBD@Z			; CvString::operator=
EXTRN	__imp_?clear@?$basic_string@DU?$char_traits@D@std@@V?$allocator@D@2@@std@@QAEXXZ:PROC
EXTRN	__imp_?assign@?$basic_string@DU?$char_traits@D@std@@V?$allocator@D@2@@std@@QAEAAV12@PBD@Z:PROC
; Function compile flags: /Ogtpy
;	COMDAT ??4CvString@@QAEAAV0@PBD@Z
_TEXT	SEGMENT
_s$ = 8							; size = 4
??4CvString@@QAEAAV0@PBD@Z PROC				; CvString::operator=, COMDAT
; _this$ = ecx

; 37   : 	CvString& operator=( const char* s) { if (s) assign(s); else clear();	return *this; }	

	mov	eax, DWORD PTR _s$[esp-4]
	push	esi
	mov	esi, ecx
	test	eax, eax
	je	SHORT $LN2@operator
	push	eax
	call	DWORD PTR __imp_?assign@?$basic_string@DU?$char_traits@D@std@@V?$allocator@D@2@@std@@QAEAAV12@PBD@Z
	mov	eax, esi
	pop	esi
	ret	4
$LN2@operator:
	call	DWORD PTR __imp_?clear@?$basic_string@DU?$char_traits@D@std@@V?$allocator@D@2@@std@@QAEXXZ
	mov	eax, esi
	pop	esi
	ret	4
??4CvString@@QAEAAV0@PBD@Z ENDP				; CvString::operator=
_TEXT	ENDS
PUBLIC	??4CvString@@QAEAAV0@ABV?$basic_string@DU?$char_traits@D@std@@V?$allocator@D@2@@std@@@Z ; CvString::operator=
; Function compile flags: /Ogtpy
;	COMDAT ??4CvString@@QAEAAV0@ABV?$basic_string@DU?$char_traits@D@std@@V?$allocator@D@2@@std@@@Z
_TEXT	SEGMENT
_s$ = 8							; size = 4
??4CvString@@QAEAAV0@ABV?$basic_string@DU?$char_traits@D@std@@V?$allocator@D@2@@std@@@Z PROC ; CvString::operator=, COMDAT
; _this$ = ecx

; 38   : 	CvString& operator=( const std::string& s) { assign(s.c_str());	return *this; }	

	push	esi
	mov	esi, ecx
	mov	ecx, DWORD PTR _s$[esp]
	call	DWORD PTR __imp_?c_str@?$basic_string@DU?$char_traits@D@std@@V?$allocator@D@2@@std@@QBEPBDXZ
	push	eax
	mov	ecx, esi
	call	DWORD PTR __imp_?assign@?$basic_string@DU?$char_traits@D@std@@V?$allocator@D@2@@std@@QAEAAV12@PBD@Z
	mov	eax, esi
	pop	esi
	ret	4
??4CvString@@QAEAAV0@ABV?$basic_string@DU?$char_traits@D@std@@V?$allocator@D@2@@std@@@Z ENDP ; CvString::operator=
_TEXT	ENDS
PUBLIC	?GetCString@CvString@@QBEPBDXZ			; CvString::GetCString
; Function compile flags: /Ogtpy
;	COMDAT ?GetCString@CvString@@QBEPBDXZ
_TEXT	SEGMENT
?GetCString@CvString@@QBEPBDXZ PROC			; CvString::GetCString, COMDAT
; _this$ = ecx

; 42   : 	const char* GetCString() const 	{ return c_str(); }

	jmp	DWORD PTR __imp_?c_str@?$basic_string@DU?$char_traits@D@std@@V?$allocator@D@2@@std@@QBEPBDXZ
?GetCString@CvString@@QBEPBDXZ ENDP			; CvString::GetCString
_TEXT	ENDS
PUBLIC	?formatv@CvString@@SA_NAAV?$basic_string@DU?$char_traits@D@std@@V?$allocator@D@2@@std@@PBDPAD@Z ; CvString::formatv
EXTRN	__imp_??4?$basic_string@DU?$char_traits@D@std@@V?$allocator@D@2@@std@@QAEAAV01@PBD@Z:PROC
EXTRN	??_U@YAPAXI@Z:PROC				; operator new[]
EXTRN	??_V@YAXPAX@Z:PROC				; operator delete[]
EXTRN	__imp___vsnprintf:PROC
; Function compile flags: /Ogtpy
;	COMDAT ?formatv@CvString@@SA_NAAV?$basic_string@DU?$char_traits@D@std@@V?$allocator@D@2@@std@@PBDPAD@Z
_TEXT	SEGMENT
_buf$ = -2048						; size = 2048
_out$ = 8						; size = 4
_fmt$ = 12						; size = 4
_args$ = 16						; size = 4
?formatv@CvString@@SA_NAAV?$basic_string@DU?$char_traits@D@std@@V?$allocator@D@2@@std@@PBDPAD@Z PROC ; CvString::formatv, COMDAT

; 191  : {

	sub	esp, 2048				; 00000800H
	push	ebx
	push	ebp

; 192  : 	char buf[2048];
; 193  : 	char * pbuf = buf;

	mov	ebp, DWORD PTR _args$[esp+2052]
	push	esi
	push	edi
	lea	edi, DWORD PTR _buf$[esp+2064]
	mov	esi, 2047				; 000007ffH
	npad	6
$LL10@formatv:

; 194  : 	int len = 0;
; 195  : 	int attempts = 0;
; 196  : 	bool success = false;
; 197  : 	const int kMaxAttempts = 40;
; 198  : 
; 199  : 	do
; 200  : 	{
; 201  : 		int maxlen = 2047+2048*attempts;
; 202  : 		len = _vsnprintf(pbuf,maxlen,fmt,args);

	mov	eax, DWORD PTR _fmt$[esp+2060]
	push	ebp
	push	eax
	push	esi
	push	edi
	mov	ebx, esi
	call	DWORD PTR __imp___vsnprintf
	add	esp, 16					; 00000010H

; 203  : 		attempts++;

	add	esi, 2048				; 00000800H

; 204  : 		success = (len>=0 && len<=maxlen);

	test	eax, eax
	jl	SHORT $LN13@formatv
	cmp	eax, ebx
	jle	SHORT $LN18@formatv
$LN13@formatv:

; 205  : 		if (!success)
; 206  : 		{
; 207  : 			if (pbuf!=buf)

	lea	ecx, DWORD PTR _buf$[esp+2064]
	xor	bl, bl
	cmp	edi, ecx
	je	SHORT $LN6@formatv

; 208  : 				delete [] pbuf;

	push	edi
	call	??_V@YAXPAX@Z				; operator delete[]
	add	esp, 4
$LN6@formatv:

; 209  : 			pbuf = new char[2048+2048*attempts];

	lea	edx, DWORD PTR [esi+1]
	push	edx
	call	??_U@YAPAXI@Z				; operator new[]
	add	esp, 4

; 210  : 		}
; 211  : 	}
; 212  : 	while (!success && attempts<kMaxAttempts);

	cmp	esi, 83967				; 000147ffH
	mov	edi, eax
	jl	SHORT $LL10@formatv

; 222  : 		out = "";

	push	OFFSET ??_C@_00CNPNBAHC@?$AA@
$LN21@formatv:
	mov	ecx, DWORD PTR _out$[esp+2064]
	call	DWORD PTR __imp_??4?$basic_string@DU?$char_traits@D@std@@V?$allocator@D@2@@std@@QAEAAV01@PBD@Z

; 223  : 
; 224  : 	if (pbuf!=buf)

	lea	eax, DWORD PTR _buf$[esp+2064]
	cmp	edi, eax
	je	SHORT $LN20@formatv

; 225  : 		delete [] pbuf;

	push	edi
	call	??_V@YAXPAX@Z				; operator delete[]
	add	esp, 4
$LN20@formatv:
	pop	edi
	pop	esi
	pop	ebp

; 226  : 
; 227  : 	return success;

	mov	al, bl
	pop	ebx

; 228  : }

	add	esp, 2048				; 00000800H
	ret	0
$LN18@formatv:

; 204  : 		success = (len>=0 && len<=maxlen);

	mov	bl, 1

; 213  : 
; 214  : 	if ( attempts==kMaxAttempts )
; 215  : 	{
; 216  : 		// dxPrintNL( "CvString::formatv - Max reallocs occurred while formatting string. Result is likely truncated!", 0 );
; 217  : 	}
; 218  : 
; 219  : 	if (success)
; 220  : 		out = pbuf;

	push	edi

; 221  : 	else

	jmp	SHORT $LN21@formatv
?formatv@CvString@@SA_NAAV?$basic_string@DU?$char_traits@D@std@@V?$allocator@D@2@@std@@PBDPAD@Z ENDP ; CvString::formatv
_TEXT	ENDS
PUBLIC	?Format@CvString@@QAAXPBDZZ			; CvString::Format
;	COMDAT xdata$x
xdata$x	SEGMENT
__unwindtable$?Format@CvString@@QAAXPBDZZ DD 0ffffffffH
	DD	FLAT:__unwindfunclet$?Format@CvString@@QAAXPBDZZ$0
__ehfuncinfo$?Format@CvString@@QAAXPBDZZ DD 019930522H
	DD	01H
	DD	FLAT:__unwindtable$?Format@CvString@@QAAXPBDZZ
	DD	2 DUP(00H)
	DD	2 DUP(00H)
	DD	00H
	DD	01H
; Function compile flags: /Ogtpy
xdata$x	ENDS
;	COMDAT ?Format@CvString@@QAAXPBDZZ
_TEXT	SEGMENT
_result$ = -40						; size = 28
__$EHRec$ = -12						; size = 12
_this$ = 8						; size = 4
_lpszFormat$ = 12					; size = 4
?Format@CvString@@QAAXPBDZZ PROC			; CvString::Format, COMDAT

; 269  : {

	push	-1
	push	__ehhandler$?Format@CvString@@QAAXPBDZZ
	mov	eax, DWORD PTR fs:0
	push	eax
	mov	DWORD PTR fs:0, esp
	sub	esp, 28					; 0000001cH

; 270  : 	std::string result;

	lea	ecx, DWORD PTR _result$[esp+40]
	call	DWORD PTR __imp_??0?$basic_string@DU?$char_traits@D@std@@V?$allocator@D@2@@std@@QAE@XZ

; 271  : 	va_list args;
; 272  : 	va_start(args,lpszFormat);
; 273  : 	formatv(result,lpszFormat,args);

	mov	ecx, DWORD PTR _lpszFormat$[esp+36]
	lea	eax, DWORD PTR _lpszFormat$[esp+40]
	push	eax
	push	ecx
	lea	edx, DWORD PTR _result$[esp+48]
	push	edx
	mov	DWORD PTR __$EHRec$[esp+60], 0
	call	?formatv@CvString@@SA_NAAV?$basic_string@DU?$char_traits@D@std@@V?$allocator@D@2@@std@@PBDPAD@Z ; CvString::formatv
	add	esp, 12					; 0000000cH

; 274  : 	va_end(args);
; 275  : 	*this = result;

	lea	ecx, DWORD PTR _result$[esp+40]
	call	DWORD PTR __imp_?c_str@?$basic_string@DU?$char_traits@D@std@@V?$allocator@D@2@@std@@QBEPBDXZ
	mov	ecx, DWORD PTR _this$[esp+36]
	push	eax
	call	DWORD PTR __imp_?assign@?$basic_string@DU?$char_traits@D@std@@V?$allocator@D@2@@std@@QAEAAV12@PBD@Z

; 276  : }

	lea	ecx, DWORD PTR _result$[esp+40]
	mov	DWORD PTR __$EHRec$[esp+48], -1
	call	DWORD PTR __imp_??1?$basic_string@DU?$char_traits@D@std@@V?$allocator@D@2@@std@@QAE@XZ
	mov	ecx, DWORD PTR __$EHRec$[esp+40]
	mov	DWORD PTR fs:0, ecx
	add	esp, 40					; 00000028H
	ret	0
_TEXT	ENDS
;	COMDAT text$x
text$x	SEGMENT
__unwindfunclet$?Format@CvString@@QAAXPBDZZ$0:
	lea	ecx, DWORD PTR _result$[ebp]
	jmp	DWORD PTR __imp_??1?$basic_string@DU?$char_traits@D@std@@V?$allocator@D@2@@std@@QAE@XZ
__ehhandler$?Format@CvString@@QAAXPBDZZ:
	mov	eax, OFFSET __ehfuncinfo$?Format@CvString@@QAAXPBDZZ
	jmp	___CxxFrameHandler3
text$x	ENDS
?Format@CvString@@QAAXPBDZZ ENDP			; CvString::Format
PUBLIC	?GetDescription@CvBaseInfo@@QBEPBDXZ		; CvBaseInfo::GetDescription
; Function compile flags: /Ogtpy
; File c:\users\enormousapplepie\desktop\lekmod files\lekmod dll versions\v29\lekmod_dll\cvgamecoredll_expansion2\cvinfos.h
;	COMDAT ?GetDescription@CvBaseInfo@@QBEPBDXZ
_TEXT	SEGMENT
?GetDescription@CvBaseInfo@@QBEPBDXZ PROC		; CvBaseInfo::GetDescription, COMDAT
; _this$ = ecx

; 64   : 		return m_strDescription.c_str();

	add	ecx, 36					; 00000024H
	jmp	DWORD PTR __imp_?c_str@?$basic_string@DU?$char_traits@D@std@@V?$allocator@D@2@@std@@QBEPBDXZ
?GetDescription@CvBaseInfo@@QBEPBDXZ ENDP		; CvBaseInfo::GetDescription
_TEXT	ENDS
PUBLIC	?GetType@CvBaseInfo@@QBEPBDXZ			; CvBaseInfo::GetType
; Function compile flags: /Ogtpy
;	COMDAT ?GetType@CvBaseInfo@@QBEPBDXZ
_TEXT	SEGMENT
?GetType@CvBaseInfo@@QBEPBDXZ PROC			; CvBaseInfo::GetType, COMDAT
; _this$ = ecx

; 92   : 		return m_strType.c_str();

	add	ecx, 176				; 000000b0H
	jmp	DWORD PTR __imp_?c_str@?$basic_string@DU?$char_traits@D@std@@V?$allocator@D@2@@std@@QBEPBDXZ
?GetType@CvBaseInfo@@QBEPBDXZ ENDP			; CvBaseInfo::GetType
_TEXT	ENDS
PUBLIC	?getMap@CvGlobals@@QAEAAVCvMap@@XZ		; CvGlobals::getMap
; Function compile flags: /Ogtpy
; File c:\users\enormousapplepie\desktop\lekmod files\lekmod dll versions\v29\lekmod_dll\cvgamecoredll_expansion2\cvglobals.h
;	COMDAT ?getMap@CvGlobals@@QAEAAVCvMap@@XZ
_TEXT	SEGMENT
?getMap@CvGlobals@@QAEAAVCvMap@@XZ PROC			; CvGlobals::getMap, COMDAT
; _this$ = ecx

; 175  : 		return *m_map;    // inlined for perf reasons, do not use outside of dll

	mov	eax, DWORD PTR [ecx+52]

; 176  : 	}

	ret	0
?getMap@CvGlobals@@QAEAAVCvMap@@XZ ENDP			; CvGlobals::getMap
_TEXT	ENDS
PUBLIC	?getGame@CvGlobals@@QAEAAVCvGame@@XZ		; CvGlobals::getGame
; Function compile flags: /Ogtpy
;	COMDAT ?getGame@CvGlobals@@QAEAAVCvGame@@XZ
_TEXT	SEGMENT
?getGame@CvGlobals@@QAEAAVCvGame@@XZ PROC		; CvGlobals::getGame, COMDAT
; _this$ = ecx

; 183  : 		return *m_game;    // inlined for perf reasons, do not use outside of dll

	mov	eax, DWORD PTR [ecx+48]

; 184  : 	}

	ret	0
?getGame@CvGlobals@@QAEAAVCvGame@@XZ ENDP		; CvGlobals::getGame
_TEXT	ENDS
PUBLIC	?getPlotDirectionX@CvGlobals@@QAEPAHXZ		; CvGlobals::getPlotDirectionX
; Function compile flags: /Ogtpy
;	COMDAT ?getPlotDirectionX@CvGlobals@@QAEPAHXZ
_TEXT	SEGMENT
?getPlotDirectionX@CvGlobals@@QAEPAHXZ PROC		; CvGlobals::getPlotDirectionX, COMDAT
; _this$ = ecx

; 191  : 		return m_aiPlotDirectionX;

	lea	eax, DWORD PTR [ecx+112]

; 192  : 	}

	ret	0
?getPlotDirectionX@CvGlobals@@QAEPAHXZ ENDP		; CvGlobals::getPlotDirectionX
_TEXT	ENDS
PUBLIC	?getPlotDirectionY@CvGlobals@@QAEPAHXZ		; CvGlobals::getPlotDirectionY
; Function compile flags: /Ogtpy
;	COMDAT ?getPlotDirectionY@CvGlobals@@QAEPAHXZ
_TEXT	SEGMENT
?getPlotDirectionY@CvGlobals@@QAEPAHXZ PROC		; CvGlobals::getPlotDirectionY, COMDAT
; _this$ = ecx

; 195  : 		return m_aiPlotDirectionY;

	lea	eax, DWORD PTR [ecx+136]

; 196  : 	}

	ret	0
?getPlotDirectionY@CvGlobals@@QAEPAHXZ ENDP		; CvGlobals::getPlotDirectionY
_TEXT	ENDS
PUBLIC	?getAI_OPERATIONAL_CITY_ATTACK_DEPLOY_RANGE@CvGlobals@@QAEHXZ ; CvGlobals::getAI_OPERATIONAL_CITY_ATTACK_DEPLOY_RANGE
; Function compile flags: /Ogtpy
;	COMDAT ?getAI_OPERATIONAL_CITY_ATTACK_DEPLOY_RANGE@CvGlobals@@QAEHXZ
_TEXT	SEGMENT
?getAI_OPERATIONAL_CITY_ATTACK_DEPLOY_RANGE@CvGlobals@@QAEHXZ PROC ; CvGlobals::getAI_OPERATIONAL_CITY_ATTACK_DEPLOY_RANGE, COMDAT
; _this$ = ecx

; 1485 : 		return m_iAI_OPERATIONAL_CITY_ATTACK_DEPLOY_RANGE;

	mov	eax, DWORD PTR [ecx+2420]

; 1486 : 	}

	ret	0
?getAI_OPERATIONAL_CITY_ATTACK_DEPLOY_RANGE@CvGlobals@@QAEHXZ ENDP ; CvGlobals::getAI_OPERATIONAL_CITY_ATTACK_DEPLOY_RANGE
_TEXT	ENDS
PUBLIC	?getAI_TACTICAL_MAP_TEMP_ZONE_TURNS@CvGlobals@@QAEHXZ ; CvGlobals::getAI_TACTICAL_MAP_TEMP_ZONE_TURNS
; Function compile flags: /Ogtpy
;	COMDAT ?getAI_TACTICAL_MAP_TEMP_ZONE_TURNS@CvGlobals@@QAEHXZ
_TEXT	SEGMENT
?getAI_TACTICAL_MAP_TEMP_ZONE_TURNS@CvGlobals@@QAEHXZ PROC ; CvGlobals::getAI_TACTICAL_MAP_TEMP_ZONE_TURNS, COMDAT
; _this$ = ecx

; 1517 : 		return m_iAI_TACTICAL_MAP_TEMP_ZONE_TURNS;

	mov	eax, DWORD PTR [ecx+2452]

; 1518 : 	}

	ret	0
?getAI_TACTICAL_MAP_TEMP_ZONE_TURNS@CvGlobals@@QAEHXZ ENDP ; CvGlobals::getAI_TACTICAL_MAP_TEMP_ZONE_TURNS
_TEXT	ENDS
PUBLIC	?getAI_TACTICAL_RECRUIT_RANGE@CvGlobals@@QAEHXZ	; CvGlobals::getAI_TACTICAL_RECRUIT_RANGE
; Function compile flags: /Ogtpy
;	COMDAT ?getAI_TACTICAL_RECRUIT_RANGE@CvGlobals@@QAEHXZ
_TEXT	SEGMENT
?getAI_TACTICAL_RECRUIT_RANGE@CvGlobals@@QAEHXZ PROC	; CvGlobals::getAI_TACTICAL_RECRUIT_RANGE, COMDAT
; _this$ = ecx

; 1525 : 		return m_iAI_TACTICAL_RECRUIT_RANGE;

	mov	eax, DWORD PTR [ecx+2460]

; 1526 : 	}

	ret	0
?getAI_TACTICAL_RECRUIT_RANGE@CvGlobals@@QAEHXZ ENDP	; CvGlobals::getAI_TACTICAL_RECRUIT_RANGE
_TEXT	ENDS
PUBLIC	?getAI_TACTICAL_REPOSITION_RANGE@CvGlobals@@QAEHXZ ; CvGlobals::getAI_TACTICAL_REPOSITION_RANGE
; Function compile flags: /Ogtpy
;	COMDAT ?getAI_TACTICAL_REPOSITION_RANGE@CvGlobals@@QAEHXZ
_TEXT	SEGMENT
?getAI_TACTICAL_REPOSITION_RANGE@CvGlobals@@QAEHXZ PROC	; CvGlobals::getAI_TACTICAL_REPOSITION_RANGE, COMDAT
; _this$ = ecx

; 1529 : 		return m_iAI_TACTICAL_REPOSITION_RANGE;

	mov	eax, DWORD PTR [ecx+2464]

; 1530 : 	}

	ret	0
?getAI_TACTICAL_REPOSITION_RANGE@CvGlobals@@QAEHXZ ENDP	; CvGlobals::getAI_TACTICAL_REPOSITION_RANGE
_TEXT	ENDS
PUBLIC	?getAI_TACTICAL_OVERKILL_PERCENT@CvGlobals@@QAEHXZ ; CvGlobals::getAI_TACTICAL_OVERKILL_PERCENT
; Function compile flags: /Ogtpy
;	COMDAT ?getAI_TACTICAL_OVERKILL_PERCENT@CvGlobals@@QAEHXZ
_TEXT	SEGMENT
?getAI_TACTICAL_OVERKILL_PERCENT@CvGlobals@@QAEHXZ PROC	; CvGlobals::getAI_TACTICAL_OVERKILL_PERCENT, COMDAT
; _this$ = ecx

; 1533 : 		return m_iAI_TACTICAL_OVERKILL_PERCENT;

	mov	eax, DWORD PTR [ecx+2468]

; 1534 : 	}

	ret	0
?getAI_TACTICAL_OVERKILL_PERCENT@CvGlobals@@QAEHXZ ENDP	; CvGlobals::getAI_TACTICAL_OVERKILL_PERCENT
_TEXT	ENDS
PUBLIC	?getAI_TACTICAL_MOVE_PRIORITY_RANDOMNESS@CvGlobals@@QAEHXZ ; CvGlobals::getAI_TACTICAL_MOVE_PRIORITY_RANDOMNESS
; Function compile flags: /Ogtpy
;	COMDAT ?getAI_TACTICAL_MOVE_PRIORITY_RANDOMNESS@CvGlobals@@QAEHXZ
_TEXT	SEGMENT
?getAI_TACTICAL_MOVE_PRIORITY_RANDOMNESS@CvGlobals@@QAEHXZ PROC ; CvGlobals::getAI_TACTICAL_MOVE_PRIORITY_RANDOMNESS, COMDAT
; _this$ = ecx

; 1541 : 		return m_iAI_TACTICAL_MOVE_PRIORITY_RANDOMNESS;

	mov	eax, DWORD PTR [ecx+2476]

; 1542 : 	}

	ret	0
?getAI_TACTICAL_MOVE_PRIORITY_RANDOMNESS@CvGlobals@@QAEHXZ ENDP ; CvGlobals::getAI_TACTICAL_MOVE_PRIORITY_RANDOMNESS
_TEXT	ENDS
PUBLIC	?getAI_TACTICAL_BARBARIAN_PRIORITY_CAPTURE_CITY@CvGlobals@@QAEHXZ ; CvGlobals::getAI_TACTICAL_BARBARIAN_PRIORITY_CAPTURE_CITY
; Function compile flags: /Ogtpy
;	COMDAT ?getAI_TACTICAL_BARBARIAN_PRIORITY_CAPTURE_CITY@CvGlobals@@QAEHXZ
_TEXT	SEGMENT
?getAI_TACTICAL_BARBARIAN_PRIORITY_CAPTURE_CITY@CvGlobals@@QAEHXZ PROC ; CvGlobals::getAI_TACTICAL_BARBARIAN_PRIORITY_CAPTURE_CITY, COMDAT
; _this$ = ecx

; 1545 : 		return m_iAI_TACTICAL_BARBARIAN_PRIORITY_CAPTURE_CITY;

	mov	eax, DWORD PTR [ecx+2480]

; 1546 : 	}

	ret	0
?getAI_TACTICAL_BARBARIAN_PRIORITY_CAPTURE_CITY@CvGlobals@@QAEHXZ ENDP ; CvGlobals::getAI_TACTICAL_BARBARIAN_PRIORITY_CAPTURE_CITY
_TEXT	ENDS
PUBLIC	?getAI_TACTICAL_BARBARIAN_PRIORITY_DAMAGE_CITY@CvGlobals@@QAEHXZ ; CvGlobals::getAI_TACTICAL_BARBARIAN_PRIORITY_DAMAGE_CITY
; Function compile flags: /Ogtpy
;	COMDAT ?getAI_TACTICAL_BARBARIAN_PRIORITY_DAMAGE_CITY@CvGlobals@@QAEHXZ
_TEXT	SEGMENT
?getAI_TACTICAL_BARBARIAN_PRIORITY_DAMAGE_CITY@CvGlobals@@QAEHXZ PROC ; CvGlobals::getAI_TACTICAL_BARBARIAN_PRIORITY_DAMAGE_CITY, COMDAT
; _this$ = ecx

; 1549 : 		return m_iAI_TACTICAL_BARBARIAN_PRIORITY_DAMAGE_CITY;

	mov	eax, DWORD PTR [ecx+2484]

; 1550 : 	}

	ret	0
?getAI_TACTICAL_BARBARIAN_PRIORITY_DAMAGE_CITY@CvGlobals@@QAEHXZ ENDP ; CvGlobals::getAI_TACTICAL_BARBARIAN_PRIORITY_DAMAGE_CITY
_TEXT	ENDS
PUBLIC	?getAI_TACTICAL_BARBARIAN_PRIORITY_DESTROY_HIGH_UNIT@CvGlobals@@QAEHXZ ; CvGlobals::getAI_TACTICAL_BARBARIAN_PRIORITY_DESTROY_HIGH_UNIT
; Function compile flags: /Ogtpy
;	COMDAT ?getAI_TACTICAL_BARBARIAN_PRIORITY_DESTROY_HIGH_UNIT@CvGlobals@@QAEHXZ
_TEXT	SEGMENT
?getAI_TACTICAL_BARBARIAN_PRIORITY_DESTROY_HIGH_UNIT@CvGlobals@@QAEHXZ PROC ; CvGlobals::getAI_TACTICAL_BARBARIAN_PRIORITY_DESTROY_HIGH_UNIT, COMDAT
; _this$ = ecx

; 1553 : 		return m_iAI_TACTICAL_BARBARIAN_PRIORITY_DESTROY_HIGH_UNIT;

	mov	eax, DWORD PTR [ecx+2488]

; 1554 : 	}

	ret	0
?getAI_TACTICAL_BARBARIAN_PRIORITY_DESTROY_HIGH_UNIT@CvGlobals@@QAEHXZ ENDP ; CvGlobals::getAI_TACTICAL_BARBARIAN_PRIORITY_DESTROY_HIGH_UNIT
_TEXT	ENDS
PUBLIC	?getAI_TACTICAL_BARBARIAN_PRIORITY_DESTROY_MEDIUM_UNIT@CvGlobals@@QAEHXZ ; CvGlobals::getAI_TACTICAL_BARBARIAN_PRIORITY_DESTROY_MEDIUM_UNIT
; Function compile flags: /Ogtpy
;	COMDAT ?getAI_TACTICAL_BARBARIAN_PRIORITY_DESTROY_MEDIUM_UNIT@CvGlobals@@QAEHXZ
_TEXT	SEGMENT
?getAI_TACTICAL_BARBARIAN_PRIORITY_DESTROY_MEDIUM_UNIT@CvGlobals@@QAEHXZ PROC ; CvGlobals::getAI_TACTICAL_BARBARIAN_PRIORITY_DESTROY_MEDIUM_UNIT, COMDAT
; _this$ = ecx

; 1557 : 		return m_iAI_TACTICAL_BARBARIAN_PRIORITY_DESTROY_MEDIUM_UNIT;

	mov	eax, DWORD PTR [ecx+2492]

; 1558 : 	}

	ret	0
?getAI_TACTICAL_BARBARIAN_PRIORITY_DESTROY_MEDIUM_UNIT@CvGlobals@@QAEHXZ ENDP ; CvGlobals::getAI_TACTICAL_BARBARIAN_PRIORITY_DESTROY_MEDIUM_UNIT
_TEXT	ENDS
PUBLIC	?getAI_TACTICAL_BARBARIAN_PRIORITY_DESTROY_LOW_UNIT@CvGlobals@@QAEHXZ ; CvGlobals::getAI_TACTICAL_BARBARIAN_PRIORITY_DESTROY_LOW_UNIT
; Function compile flags: /Ogtpy
;	COMDAT ?getAI_TACTICAL_BARBARIAN_PRIORITY_DESTROY_LOW_UNIT@CvGlobals@@QAEHXZ
_TEXT	SEGMENT
?getAI_TACTICAL_BARBARIAN_PRIORITY_DESTROY_LOW_UNIT@CvGlobals@@QAEHXZ PROC ; CvGlobals::getAI_TACTICAL_BARBARIAN_PRIORITY_DESTROY_LOW_UNIT, COMDAT
; _this$ = ecx

; 1561 : 		return m_iAI_TACTICAL_BARBARIAN_PRIORITY_DESTROY_LOW_UNIT;

	mov	eax, DWORD PTR [ecx+2496]

; 1562 : 	}

	ret	0
?getAI_TACTICAL_BARBARIAN_PRIORITY_DESTROY_LOW_UNIT@CvGlobals@@QAEHXZ ENDP ; CvGlobals::getAI_TACTICAL_BARBARIAN_PRIORITY_DESTROY_LOW_UNIT
_TEXT	ENDS
PUBLIC	?getAI_TACTICAL_BARBARIAN_PRIORITY_TO_SAFETY@CvGlobals@@QAEHXZ ; CvGlobals::getAI_TACTICAL_BARBARIAN_PRIORITY_TO_SAFETY
; Function compile flags: /Ogtpy
;	COMDAT ?getAI_TACTICAL_BARBARIAN_PRIORITY_TO_SAFETY@CvGlobals@@QAEHXZ
_TEXT	SEGMENT
?getAI_TACTICAL_BARBARIAN_PRIORITY_TO_SAFETY@CvGlobals@@QAEHXZ PROC ; CvGlobals::getAI_TACTICAL_BARBARIAN_PRIORITY_TO_SAFETY, COMDAT
; _this$ = ecx

; 1565 : 		return m_iAI_TACTICAL_BARBARIAN_PRIORITY_TO_SAFETY;

	mov	eax, DWORD PTR [ecx+2500]

; 1566 : 	}

	ret	0
?getAI_TACTICAL_BARBARIAN_PRIORITY_TO_SAFETY@CvGlobals@@QAEHXZ ENDP ; CvGlobals::getAI_TACTICAL_BARBARIAN_PRIORITY_TO_SAFETY
_TEXT	ENDS
PUBLIC	?getAI_TACTICAL_BARBARIAN_PRIORITY_ATTRIT_HIGH_UNIT@CvGlobals@@QAEHXZ ; CvGlobals::getAI_TACTICAL_BARBARIAN_PRIORITY_ATTRIT_HIGH_UNIT
; Function compile flags: /Ogtpy
;	COMDAT ?getAI_TACTICAL_BARBARIAN_PRIORITY_ATTRIT_HIGH_UNIT@CvGlobals@@QAEHXZ
_TEXT	SEGMENT
?getAI_TACTICAL_BARBARIAN_PRIORITY_ATTRIT_HIGH_UNIT@CvGlobals@@QAEHXZ PROC ; CvGlobals::getAI_TACTICAL_BARBARIAN_PRIORITY_ATTRIT_HIGH_UNIT, COMDAT
; _this$ = ecx

; 1569 : 		return m_iAI_TACTICAL_BARBARIAN_PRIORITY_ATTRIT_HIGH_UNIT;

	mov	eax, DWORD PTR [ecx+2504]

; 1570 : 	}

	ret	0
?getAI_TACTICAL_BARBARIAN_PRIORITY_ATTRIT_HIGH_UNIT@CvGlobals@@QAEHXZ ENDP ; CvGlobals::getAI_TACTICAL_BARBARIAN_PRIORITY_ATTRIT_HIGH_UNIT
_TEXT	ENDS
PUBLIC	?getAI_TACTICAL_BARBARIAN_PRIORITY_ATTRIT_MEDIUM_UNIT@CvGlobals@@QAEHXZ ; CvGlobals::getAI_TACTICAL_BARBARIAN_PRIORITY_ATTRIT_MEDIUM_UNIT
; Function compile flags: /Ogtpy
;	COMDAT ?getAI_TACTICAL_BARBARIAN_PRIORITY_ATTRIT_MEDIUM_UNIT@CvGlobals@@QAEHXZ
_TEXT	SEGMENT
?getAI_TACTICAL_BARBARIAN_PRIORITY_ATTRIT_MEDIUM_UNIT@CvGlobals@@QAEHXZ PROC ; CvGlobals::getAI_TACTICAL_BARBARIAN_PRIORITY_ATTRIT_MEDIUM_UNIT, COMDAT
; _this$ = ecx

; 1573 : 		return m_iAI_TACTICAL_BARBARIAN_PRIORITY_ATTRIT_MEDIUM_UNIT;

	mov	eax, DWORD PTR [ecx+2508]

; 1574 : 	}

	ret	0
?getAI_TACTICAL_BARBARIAN_PRIORITY_ATTRIT_MEDIUM_UNIT@CvGlobals@@QAEHXZ ENDP ; CvGlobals::getAI_TACTICAL_BARBARIAN_PRIORITY_ATTRIT_MEDIUM_UNIT
_TEXT	ENDS
PUBLIC	?getAI_TACTICAL_BARBARIAN_PRIORITY_ATTRIT_LOW_UNIT@CvGlobals@@QAEHXZ ; CvGlobals::getAI_TACTICAL_BARBARIAN_PRIORITY_ATTRIT_LOW_UNIT
; Function compile flags: /Ogtpy
;	COMDAT ?getAI_TACTICAL_BARBARIAN_PRIORITY_ATTRIT_LOW_UNIT@CvGlobals@@QAEHXZ
_TEXT	SEGMENT
?getAI_TACTICAL_BARBARIAN_PRIORITY_ATTRIT_LOW_UNIT@CvGlobals@@QAEHXZ PROC ; CvGlobals::getAI_TACTICAL_BARBARIAN_PRIORITY_ATTRIT_LOW_UNIT, COMDAT
; _this$ = ecx

; 1577 : 		return m_iAI_TACTICAL_BARBARIAN_PRIORITY_ATTRIT_LOW_UNIT;

	mov	eax, DWORD PTR [ecx+2512]

; 1578 : 	}

	ret	0
?getAI_TACTICAL_BARBARIAN_PRIORITY_ATTRIT_LOW_UNIT@CvGlobals@@QAEHXZ ENDP ; CvGlobals::getAI_TACTICAL_BARBARIAN_PRIORITY_ATTRIT_LOW_UNIT
_TEXT	ENDS
PUBLIC	?getAI_TACTICAL_BARBARIAN_PRIORITY_DESPERATE_ATTACK@CvGlobals@@QAEHXZ ; CvGlobals::getAI_TACTICAL_BARBARIAN_PRIORITY_DESPERATE_ATTACK
; Function compile flags: /Ogtpy
;	COMDAT ?getAI_TACTICAL_BARBARIAN_PRIORITY_DESPERATE_ATTACK@CvGlobals@@QAEHXZ
_TEXT	SEGMENT
?getAI_TACTICAL_BARBARIAN_PRIORITY_DESPERATE_ATTACK@CvGlobals@@QAEHXZ PROC ; CvGlobals::getAI_TACTICAL_BARBARIAN_PRIORITY_DESPERATE_ATTACK, COMDAT
; _this$ = ecx

; 1581 : 		return m_iAI_TACTICAL_BARBARIAN_PRIORITY_DESPERATE_ATTACK;

	mov	eax, DWORD PTR [ecx+2516]

; 1582 : 	}

	ret	0
?getAI_TACTICAL_BARBARIAN_PRIORITY_DESPERATE_ATTACK@CvGlobals@@QAEHXZ ENDP ; CvGlobals::getAI_TACTICAL_BARBARIAN_PRIORITY_DESPERATE_ATTACK
_TEXT	ENDS
PUBLIC	?getAI_TACTICAL_BARBARIAN_PRIORITY_PILLAGE@CvGlobals@@QAEHXZ ; CvGlobals::getAI_TACTICAL_BARBARIAN_PRIORITY_PILLAGE
; Function compile flags: /Ogtpy
;	COMDAT ?getAI_TACTICAL_BARBARIAN_PRIORITY_PILLAGE@CvGlobals@@QAEHXZ
_TEXT	SEGMENT
?getAI_TACTICAL_BARBARIAN_PRIORITY_PILLAGE@CvGlobals@@QAEHXZ PROC ; CvGlobals::getAI_TACTICAL_BARBARIAN_PRIORITY_PILLAGE, COMDAT
; _this$ = ecx

; 1585 : 		return m_iAI_TACTICAL_BARBARIAN_PRIORITY_PILLAGE;

	mov	eax, DWORD PTR [ecx+2520]

; 1586 : 	}

	ret	0
?getAI_TACTICAL_BARBARIAN_PRIORITY_PILLAGE@CvGlobals@@QAEHXZ ENDP ; CvGlobals::getAI_TACTICAL_BARBARIAN_PRIORITY_PILLAGE
_TEXT	ENDS
PUBLIC	?getAI_TACTICAL_BARBARIAN_PRIORITY_PILLAGE_CITADEL@CvGlobals@@QAEHXZ ; CvGlobals::getAI_TACTICAL_BARBARIAN_PRIORITY_PILLAGE_CITADEL
; Function compile flags: /Ogtpy
;	COMDAT ?getAI_TACTICAL_BARBARIAN_PRIORITY_PILLAGE_CITADEL@CvGlobals@@QAEHXZ
_TEXT	SEGMENT
?getAI_TACTICAL_BARBARIAN_PRIORITY_PILLAGE_CITADEL@CvGlobals@@QAEHXZ PROC ; CvGlobals::getAI_TACTICAL_BARBARIAN_PRIORITY_PILLAGE_CITADEL, COMDAT
; _this$ = ecx

; 1589 : 		return m_iAI_TACTICAL_BARBARIAN_PRIORITY_PILLAGE_CITADEL;

	mov	eax, DWORD PTR [ecx+2524]

; 1590 : 	}

	ret	0
?getAI_TACTICAL_BARBARIAN_PRIORITY_PILLAGE_CITADEL@CvGlobals@@QAEHXZ ENDP ; CvGlobals::getAI_TACTICAL_BARBARIAN_PRIORITY_PILLAGE_CITADEL
_TEXT	ENDS
PUBLIC	?getAI_TACTICAL_BARBARIAN_PRIORITY_PILLAGE_NEXT_TURN@CvGlobals@@QAEHXZ ; CvGlobals::getAI_TACTICAL_BARBARIAN_PRIORITY_PILLAGE_NEXT_TURN
; Function compile flags: /Ogtpy
;	COMDAT ?getAI_TACTICAL_BARBARIAN_PRIORITY_PILLAGE_NEXT_TURN@CvGlobals@@QAEHXZ
_TEXT	SEGMENT
?getAI_TACTICAL_BARBARIAN_PRIORITY_PILLAGE_NEXT_TURN@CvGlobals@@QAEHXZ PROC ; CvGlobals::getAI_TACTICAL_BARBARIAN_PRIORITY_PILLAGE_NEXT_TURN, COMDAT
; _this$ = ecx

; 1593 : 		return m_iAI_TACTICAL_BARBARIAN_PRIORITY_PILLAGE_NEXT_TURN;

	mov	eax, DWORD PTR [ecx+2528]

; 1594 : 	}

	ret	0
?getAI_TACTICAL_BARBARIAN_PRIORITY_PILLAGE_NEXT_TURN@CvGlobals@@QAEHXZ ENDP ; CvGlobals::getAI_TACTICAL_BARBARIAN_PRIORITY_PILLAGE_NEXT_TURN
_TEXT	ENDS
PUBLIC	?getAI_TACTICAL_BARBARIAN_PRIORITY_BLOCKADE_RESOURCE@CvGlobals@@QAEHXZ ; CvGlobals::getAI_TACTICAL_BARBARIAN_PRIORITY_BLOCKADE_RESOURCE
; Function compile flags: /Ogtpy
;	COMDAT ?getAI_TACTICAL_BARBARIAN_PRIORITY_BLOCKADE_RESOURCE@CvGlobals@@QAEHXZ
_TEXT	SEGMENT
?getAI_TACTICAL_BARBARIAN_PRIORITY_BLOCKADE_RESOURCE@CvGlobals@@QAEHXZ PROC ; CvGlobals::getAI_TACTICAL_BARBARIAN_PRIORITY_BLOCKADE_RESOURCE, COMDAT
; _this$ = ecx

; 1597 : 		return m_iAI_TACTICAL_BARBARIAN_PRIORITY_BLOCKADE_RESOURCE;

	mov	eax, DWORD PTR [ecx+2532]

; 1598 : 	}

	ret	0
?getAI_TACTICAL_BARBARIAN_PRIORITY_BLOCKADE_RESOURCE@CvGlobals@@QAEHXZ ENDP ; CvGlobals::getAI_TACTICAL_BARBARIAN_PRIORITY_BLOCKADE_RESOURCE
_TEXT	ENDS
PUBLIC	?getAI_TACTICAL_BARBARIAN_PRIORITY_CIVILIAN_ATTACK@CvGlobals@@QAEHXZ ; CvGlobals::getAI_TACTICAL_BARBARIAN_PRIORITY_CIVILIAN_ATTACK
; Function compile flags: /Ogtpy
;	COMDAT ?getAI_TACTICAL_BARBARIAN_PRIORITY_CIVILIAN_ATTACK@CvGlobals@@QAEHXZ
_TEXT	SEGMENT
?getAI_TACTICAL_BARBARIAN_PRIORITY_CIVILIAN_ATTACK@CvGlobals@@QAEHXZ PROC ; CvGlobals::getAI_TACTICAL_BARBARIAN_PRIORITY_CIVILIAN_ATTACK, COMDAT
; _this$ = ecx

; 1601 : 		return m_iAI_TACTICAL_BARBARIAN_PRIORITY_CIVILIAN_ATTACK;

	mov	eax, DWORD PTR [ecx+2536]

; 1602 : 	}

	ret	0
?getAI_TACTICAL_BARBARIAN_PRIORITY_CIVILIAN_ATTACK@CvGlobals@@QAEHXZ ENDP ; CvGlobals::getAI_TACTICAL_BARBARIAN_PRIORITY_CIVILIAN_ATTACK
_TEXT	ENDS
PUBLIC	?getAI_TACTICAL_BARBARIAN_PRIORITY_PASSIVE_MOVE@CvGlobals@@QAEHXZ ; CvGlobals::getAI_TACTICAL_BARBARIAN_PRIORITY_PASSIVE_MOVE
; Function compile flags: /Ogtpy
;	COMDAT ?getAI_TACTICAL_BARBARIAN_PRIORITY_PASSIVE_MOVE@CvGlobals@@QAEHXZ
_TEXT	SEGMENT
?getAI_TACTICAL_BARBARIAN_PRIORITY_PASSIVE_MOVE@CvGlobals@@QAEHXZ PROC ; CvGlobals::getAI_TACTICAL_BARBARIAN_PRIORITY_PASSIVE_MOVE, COMDAT
; _this$ = ecx

; 1605 : 		return m_iAI_TACTICAL_BARBARIAN_PRIORITY_PASSIVE_MOVE;

	mov	eax, DWORD PTR [ecx+2540]

; 1606 : 	}

	ret	0
?getAI_TACTICAL_BARBARIAN_PRIORITY_PASSIVE_MOVE@CvGlobals@@QAEHXZ ENDP ; CvGlobals::getAI_TACTICAL_BARBARIAN_PRIORITY_PASSIVE_MOVE
_TEXT	ENDS
PUBLIC	?getAI_TACTICAL_BARBARIAN_PRIORITY_AGGRESSIVE_MOVE@CvGlobals@@QAEHXZ ; CvGlobals::getAI_TACTICAL_BARBARIAN_PRIORITY_AGGRESSIVE_MOVE
; Function compile flags: /Ogtpy
;	COMDAT ?getAI_TACTICAL_BARBARIAN_PRIORITY_AGGRESSIVE_MOVE@CvGlobals@@QAEHXZ
_TEXT	SEGMENT
?getAI_TACTICAL_BARBARIAN_PRIORITY_AGGRESSIVE_MOVE@CvGlobals@@QAEHXZ PROC ; CvGlobals::getAI_TACTICAL_BARBARIAN_PRIORITY_AGGRESSIVE_MOVE, COMDAT
; _this$ = ecx

; 1609 : 		return m_iAI_TACTICAL_BARBARIAN_PRIORITY_AGGRESSIVE_MOVE;

	mov	eax, DWORD PTR [ecx+2544]

; 1610 : 	}

	ret	0
?getAI_TACTICAL_BARBARIAN_PRIORITY_AGGRESSIVE_MOVE@CvGlobals@@QAEHXZ ENDP ; CvGlobals::getAI_TACTICAL_BARBARIAN_PRIORITY_AGGRESSIVE_MOVE
_TEXT	ENDS
PUBLIC	?getAI_TACTICAL_BARBARIAN_PRIORITY_CAMP_DEFENSE@CvGlobals@@QAEHXZ ; CvGlobals::getAI_TACTICAL_BARBARIAN_PRIORITY_CAMP_DEFENSE
; Function compile flags: /Ogtpy
;	COMDAT ?getAI_TACTICAL_BARBARIAN_PRIORITY_CAMP_DEFENSE@CvGlobals@@QAEHXZ
_TEXT	SEGMENT
?getAI_TACTICAL_BARBARIAN_PRIORITY_CAMP_DEFENSE@CvGlobals@@QAEHXZ PROC ; CvGlobals::getAI_TACTICAL_BARBARIAN_PRIORITY_CAMP_DEFENSE, COMDAT
; _this$ = ecx

; 1613 : 		return m_iAI_TACTICAL_BARBARIAN_PRIORITY_CAMP_DEFENSE;

	mov	eax, DWORD PTR [ecx+2548]

; 1614 : 	}

	ret	0
?getAI_TACTICAL_BARBARIAN_PRIORITY_CAMP_DEFENSE@CvGlobals@@QAEHXZ ENDP ; CvGlobals::getAI_TACTICAL_BARBARIAN_PRIORITY_CAMP_DEFENSE
_TEXT	ENDS
PUBLIC	?getAI_TACTICAL_BARBARIAN_PRIORITY_ESCORT_CIVILIAN@CvGlobals@@QAEHXZ ; CvGlobals::getAI_TACTICAL_BARBARIAN_PRIORITY_ESCORT_CIVILIAN
; Function compile flags: /Ogtpy
;	COMDAT ?getAI_TACTICAL_BARBARIAN_PRIORITY_ESCORT_CIVILIAN@CvGlobals@@QAEHXZ
_TEXT	SEGMENT
?getAI_TACTICAL_BARBARIAN_PRIORITY_ESCORT_CIVILIAN@CvGlobals@@QAEHXZ PROC ; CvGlobals::getAI_TACTICAL_BARBARIAN_PRIORITY_ESCORT_CIVILIAN, COMDAT
; _this$ = ecx

; 1617 : 		return m_iAI_TACTICAL_BARBARIAN_PRIORITY_ESCORT_CIVILIAN;

	mov	eax, DWORD PTR [ecx+2552]

; 1618 : 	}

	ret	0
?getAI_TACTICAL_BARBARIAN_PRIORITY_ESCORT_CIVILIAN@CvGlobals@@QAEHXZ ENDP ; CvGlobals::getAI_TACTICAL_BARBARIAN_PRIORITY_ESCORT_CIVILIAN
_TEXT	ENDS
PUBLIC	?getAI_TACTICAL_BARBARIAN_PRIORITY_PLUNDER_TRADE_UNIT@CvGlobals@@QAEHXZ ; CvGlobals::getAI_TACTICAL_BARBARIAN_PRIORITY_PLUNDER_TRADE_UNIT
; Function compile flags: /Ogtpy
;	COMDAT ?getAI_TACTICAL_BARBARIAN_PRIORITY_PLUNDER_TRADE_UNIT@CvGlobals@@QAEHXZ
_TEXT	SEGMENT
?getAI_TACTICAL_BARBARIAN_PRIORITY_PLUNDER_TRADE_UNIT@CvGlobals@@QAEHXZ PROC ; CvGlobals::getAI_TACTICAL_BARBARIAN_PRIORITY_PLUNDER_TRADE_UNIT, COMDAT
; _this$ = ecx

; 1621 : 		return m_iAI_TACTICAL_BARBARIAN_PRIORITY_PLUNDER_TRADE_UNIT;

	mov	eax, DWORD PTR [ecx+2556]

; 1622 : 	}

	ret	0
?getAI_TACTICAL_BARBARIAN_PRIORITY_PLUNDER_TRADE_UNIT@CvGlobals@@QAEHXZ ENDP ; CvGlobals::getAI_TACTICAL_BARBARIAN_PRIORITY_PLUNDER_TRADE_UNIT
_TEXT	ENDS
PUBLIC	?pointer@?$FObjectHandle@VCvUnit@@@@QAEPAVCvUnit@@XZ ; FObjectHandle<CvUnit>::pointer
; Function compile flags: /Ogtpy
; File c:\users\enormousapplepie\desktop\lekmod files\lekmod dll versions\v29\lekmod_dll\fireplace\include\fireworks\fobjecthandle.h
;	COMDAT ?pointer@?$FObjectHandle@VCvUnit@@@@QAEPAVCvUnit@@XZ
_TEXT	SEGMENT
?pointer@?$FObjectHandle@VCvUnit@@@@QAEPAVCvUnit@@XZ PROC ; FObjectHandle<CvUnit>::pointer, COMDAT
; _this$ = ecx

; 78   : 		return m_target;

	mov	eax, DWORD PTR [ecx]

; 79   : 	}

	ret	0
?pointer@?$FObjectHandle@VCvUnit@@@@QAEPAVCvUnit@@XZ ENDP ; FObjectHandle<CvUnit>::pointer
_TEXT	ENDS
PUBLIC	??C?$FObjectHandle@VCvUnit@@@@QAEPAVCvUnit@@XZ	; FObjectHandle<CvUnit>::operator->
; Function compile flags: /Ogtpy
;	COMDAT ??C?$FObjectHandle@VCvUnit@@@@QAEPAVCvUnit@@XZ
_TEXT	SEGMENT
??C?$FObjectHandle@VCvUnit@@@@QAEPAVCvUnit@@XZ PROC	; FObjectHandle<CvUnit>::operator->, COMDAT
; _this$ = ecx

; 88   : 		return m_target;

	mov	eax, DWORD PTR [ecx]

; 89   : 	}

	ret	0
??C?$FObjectHandle@VCvUnit@@@@QAEPAVCvUnit@@XZ ENDP	; FObjectHandle<CvUnit>::operator->
_TEXT	ENDS
PUBLIC	??D?$FObjectHandle@VCvUnit@@@@QAEAAVCvUnit@@XZ	; FObjectHandle<CvUnit>::operator*
; Function compile flags: /Ogtpy
;	COMDAT ??D?$FObjectHandle@VCvUnit@@@@QAEAAVCvUnit@@XZ
_TEXT	SEGMENT
??D?$FObjectHandle@VCvUnit@@@@QAEAAVCvUnit@@XZ PROC	; FObjectHandle<CvUnit>::operator*, COMDAT
; _this$ = ecx

; 98   : 		return *m_target;

	mov	eax, DWORD PTR [ecx]

; 99   : 	}

	ret	0
??D?$FObjectHandle@VCvUnit@@@@QAEAAVCvUnit@@XZ ENDP	; FObjectHandle<CvUnit>::operator*
_TEXT	ENDS
PUBLIC	??B?$FObjectHandle@VCvUnit@@@@QBE_NXZ		; FObjectHandle<CvUnit>::operator bool
; Function compile flags: /Ogtpy
;	COMDAT ??B?$FObjectHandle@VCvUnit@@@@QBE_NXZ
_TEXT	SEGMENT
??B?$FObjectHandle@VCvUnit@@@@QBE_NXZ PROC		; FObjectHandle<CvUnit>::operator bool, COMDAT
; _this$ = ecx

; 108  : 		return m_target != 0;

	xor	eax, eax
	cmp	DWORD PTR [ecx], eax
	setne	al

; 109  : 	}

	ret	0
??B?$FObjectHandle@VCvUnit@@@@QBE_NXZ ENDP		; FObjectHandle<CvUnit>::operator bool
_TEXT	ENDS
PUBLIC	??7?$FObjectHandle@VCvUnit@@@@QBE_NXZ		; FObjectHandle<CvUnit>::operator!
; Function compile flags: /Ogtpy
;	COMDAT ??7?$FObjectHandle@VCvUnit@@@@QBE_NXZ
_TEXT	SEGMENT
??7?$FObjectHandle@VCvUnit@@@@QBE_NXZ PROC		; FObjectHandle<CvUnit>::operator!, COMDAT
; _this$ = ecx

; 113  : 		return m_target == 0;

	xor	eax, eax
	cmp	DWORD PTR [ecx], eax
	sete	al

; 114  : 	}

	ret	0
??7?$FObjectHandle@VCvUnit@@@@QBE_NXZ ENDP		; FObjectHandle<CvUnit>::operator!
_TEXT	ENDS
PUBLIC	??0?$FObjectHandle@VCvUnit@@@@QAE@XZ		; FObjectHandle<CvUnit>::FObjectHandle<CvUnit>
; Function compile flags: /Ogtpy
;	COMDAT ??0?$FObjectHandle@VCvUnit@@@@QAE@XZ
_TEXT	SEGMENT
??0?$FObjectHandle@VCvUnit@@@@QAE@XZ PROC		; FObjectHandle<CvUnit>::FObjectHandle<CvUnit>, COMDAT
; _this$ = ecx

; 215  : 	{

	mov	eax, ecx
	mov	DWORD PTR [eax], 0
	mov	BYTE PTR [eax+4], 0

; 216  : 		OBJECT_HANDLE_STACK;
; 217  : 	}

	ret	0
??0?$FObjectHandle@VCvUnit@@@@QAE@XZ ENDP		; FObjectHandle<CvUnit>::FObjectHandle<CvUnit>
_TEXT	ENDS
PUBLIC	?size@?$vector@PAVCvTacticalMoveXMLEntry@@V?$allocator@PAVCvTacticalMoveXMLEntry@@@std@@@std@@QBEIXZ ; std::vector<CvTacticalMoveXMLEntry *,std::allocator<CvTacticalMoveXMLEntry *> >::size
; Function compile flags: /Ogtpy
; File c:\program files (x86)\microsoft visual studio 9.0\vc\include\vector
;	COMDAT ?size@?$vector@PAVCvTacticalMoveXMLEntry@@V?$allocator@PAVCvTacticalMoveXMLEntry@@@std@@@std@@QBEIXZ
_TEXT	SEGMENT
?size@?$vector@PAVCvTacticalMoveXMLEntry@@V?$allocator@PAVCvTacticalMoveXMLEntry@@@std@@@std@@QBEIXZ PROC ; std::vector<CvTacticalMoveXMLEntry *,std::allocator<CvTacticalMoveXMLEntry *> >::size, COMDAT
; _this$ = ecx

; 726  : 		return (_Mylast - _Myfirst);

	mov	eax, DWORD PTR [ecx+8]
	sub	eax, DWORD PTR [ecx+4]
	sar	eax, 2

; 727  : 		}

	ret	0
?size@?$vector@PAVCvTacticalMoveXMLEntry@@V?$allocator@PAVCvTacticalMoveXMLEntry@@@std@@@std@@QBEIXZ ENDP ; std::vector<CvTacticalMoveXMLEntry *,std::allocator<CvTacticalMoveXMLEntry *> >::size
_TEXT	ENDS
PUBLIC	??A?$vector@PAVCvTacticalMoveXMLEntry@@V?$allocator@PAVCvTacticalMoveXMLEntry@@@std@@@std@@QAEAAPAVCvTacticalMoveXMLEntry@@I@Z ; std::vector<CvTacticalMoveXMLEntry *,std::allocator<CvTacticalMoveXMLEntry *> >::operator[]
; Function compile flags: /Ogtpy
;	COMDAT ??A?$vector@PAVCvTacticalMoveXMLEntry@@V?$allocator@PAVCvTacticalMoveXMLEntry@@@std@@@std@@QAEAAPAVCvTacticalMoveXMLEntry@@I@Z
_TEXT	SEGMENT
__Pos$ = 8						; size = 4
??A?$vector@PAVCvTacticalMoveXMLEntry@@V?$allocator@PAVCvTacticalMoveXMLEntry@@@std@@@std@@QAEAAPAVCvTacticalMoveXMLEntry@@I@Z PROC ; std::vector<CvTacticalMoveXMLEntry *,std::allocator<CvTacticalMoveXMLEntry *> >::operator[], COMDAT
; _this$ = ecx

; 775  : 
; 776  :  #if _HAS_ITERATOR_DEBUGGING
; 777  : 		if (size() <= _Pos)
; 778  : 			{
; 779  : 			_DEBUG_ERROR("vector subscript out of range");
; 780  : 			_SCL_SECURE_OUT_OF_RANGE;
; 781  : 			}
; 782  :  #endif /* _HAS_ITERATOR_DEBUGGING */
; 783  : 		_SCL_SECURE_VALIDATE_RANGE(_Pos < size());
; 784  : 
; 785  : 		return (*(_Myfirst + _Pos));

	mov	eax, DWORD PTR [ecx+4]
	mov	ecx, DWORD PTR __Pos$[esp-4]
	lea	eax, DWORD PTR [eax+ecx*4]

; 786  : 		}

	ret	4
??A?$vector@PAVCvTacticalMoveXMLEntry@@V?$allocator@PAVCvTacticalMoveXMLEntry@@@std@@@std@@QAEAAPAVCvTacticalMoveXMLEntry@@I@Z ENDP ; std::vector<CvTacticalMoveXMLEntry *,std::allocator<CvTacticalMoveXMLEntry *> >::operator[]
_TEXT	ENDS
PUBLIC	?size@?$list@HV?$allocator@H@std@@@std@@QBEIXZ	; std::list<int,std::allocator<int> >::size
; Function compile flags: /Ogtpy
; File c:\program files (x86)\microsoft visual studio 9.0\vc\include\list
;	COMDAT ?size@?$list@HV?$allocator@H@std@@@std@@QBEIXZ
_TEXT	SEGMENT
?size@?$list@HV?$allocator@H@std@@@std@@QBEIXZ PROC	; std::list<int,std::allocator<int> >::size, COMDAT
; _this$ = ecx

; 620  : 		return (_Mysize);

	mov	eax, DWORD PTR [ecx+8]

; 621  : 		}

	ret	0
?size@?$list@HV?$allocator@H@std@@@std@@QBEIXZ ENDP	; std::list<int,std::allocator<int> >::size
_TEXT	ENDS
PUBLIC	?size@?$vector@VCvTacticalUnit@@V?$allocator@VCvTacticalUnit@@@std@@@std@@QBEIXZ ; std::vector<CvTacticalUnit,std::allocator<CvTacticalUnit> >::size
; Function compile flags: /Ogtpy
; File c:\program files (x86)\microsoft visual studio 9.0\vc\include\vector
;	COMDAT ?size@?$vector@VCvTacticalUnit@@V?$allocator@VCvTacticalUnit@@@std@@@std@@QBEIXZ
_TEXT	SEGMENT
?size@?$vector@VCvTacticalUnit@@V?$allocator@VCvTacticalUnit@@@std@@@std@@QBEIXZ PROC ; std::vector<CvTacticalUnit,std::allocator<CvTacticalUnit> >::size, COMDAT
; _this$ = ecx

; 726  : 		return (_Mylast - _Myfirst);

	mov	edx, DWORD PTR [ecx+8]
	sub	edx, DWORD PTR [ecx+4]
	mov	eax, 715827883				; 2aaaaaabH
	imul	edx
	sar	edx, 2
	mov	eax, edx
	shr	eax, 31					; 0000001fH
	add	eax, edx

; 727  : 		}

	ret	0
?size@?$vector@VCvTacticalUnit@@V?$allocator@VCvTacticalUnit@@@std@@@std@@QBEIXZ ENDP ; std::vector<CvTacticalUnit,std::allocator<CvTacticalUnit> >::size
_TEXT	ENDS
PUBLIC	??A?$vector@VCvTacticalUnit@@V?$allocator@VCvTacticalUnit@@@std@@@std@@QAEAAVCvTacticalUnit@@I@Z ; std::vector<CvTacticalUnit,std::allocator<CvTacticalUnit> >::operator[]
; Function compile flags: /Ogtpy
;	COMDAT ??A?$vector@VCvTacticalUnit@@V?$allocator@VCvTacticalUnit@@@std@@@std@@QAEAAVCvTacticalUnit@@I@Z
_TEXT	SEGMENT
__Pos$ = 8						; size = 4
??A?$vector@VCvTacticalUnit@@V?$allocator@VCvTacticalUnit@@@std@@@std@@QAEAAVCvTacticalUnit@@I@Z PROC ; std::vector<CvTacticalUnit,std::allocator<CvTacticalUnit> >::operator[], COMDAT
; _this$ = ecx

; 775  : 
; 776  :  #if _HAS_ITERATOR_DEBUGGING
; 777  : 		if (size() <= _Pos)
; 778  : 			{
; 779  : 			_DEBUG_ERROR("vector subscript out of range");
; 780  : 			_SCL_SECURE_OUT_OF_RANGE;
; 781  : 			}
; 782  :  #endif /* _HAS_ITERATOR_DEBUGGING */
; 783  : 		_SCL_SECURE_VALIDATE_RANGE(_Pos < size());
; 784  : 
; 785  : 		return (*(_Myfirst + _Pos));

	mov	eax, DWORD PTR __Pos$[esp-4]
	mov	ecx, DWORD PTR [ecx+4]
	lea	eax, DWORD PTR [eax+eax*2]
	lea	eax, DWORD PTR [ecx+eax*8]

; 786  : 		}

	ret	4
??A?$vector@VCvTacticalUnit@@V?$allocator@VCvTacticalUnit@@@std@@@std@@QAEAAVCvTacticalUnit@@I@Z ENDP ; std::vector<CvTacticalUnit,std::allocator<CvTacticalUnit> >::operator[]
_TEXT	ENDS
PUBLIC	?size@?$vector@VCvTacticalCity@@V?$allocator@VCvTacticalCity@@@std@@@std@@QBEIXZ ; std::vector<CvTacticalCity,std::allocator<CvTacticalCity> >::size
; Function compile flags: /Ogtpy
;	COMDAT ?size@?$vector@VCvTacticalCity@@V?$allocator@VCvTacticalCity@@@std@@@std@@QBEIXZ
_TEXT	SEGMENT
?size@?$vector@VCvTacticalCity@@V?$allocator@VCvTacticalCity@@@std@@@std@@QBEIXZ PROC ; std::vector<CvTacticalCity,std::allocator<CvTacticalCity> >::size, COMDAT
; _this$ = ecx

; 726  : 		return (_Mylast - _Myfirst);

	mov	edx, DWORD PTR [ecx+8]
	sub	edx, DWORD PTR [ecx+4]
	mov	eax, 715827883				; 2aaaaaabH
	imul	edx
	sar	edx, 1
	mov	eax, edx
	shr	eax, 31					; 0000001fH
	add	eax, edx

; 727  : 		}

	ret	0
?size@?$vector@VCvTacticalCity@@V?$allocator@VCvTacticalCity@@@std@@@std@@QBEIXZ ENDP ; std::vector<CvTacticalCity,std::allocator<CvTacticalCity> >::size
_TEXT	ENDS
PUBLIC	??A?$vector@VCvTacticalCity@@V?$allocator@VCvTacticalCity@@@std@@@std@@QAEAAVCvTacticalCity@@I@Z ; std::vector<CvTacticalCity,std::allocator<CvTacticalCity> >::operator[]
; Function compile flags: /Ogtpy
;	COMDAT ??A?$vector@VCvTacticalCity@@V?$allocator@VCvTacticalCity@@@std@@@std@@QAEAAVCvTacticalCity@@I@Z
_TEXT	SEGMENT
__Pos$ = 8						; size = 4
??A?$vector@VCvTacticalCity@@V?$allocator@VCvTacticalCity@@@std@@@std@@QAEAAVCvTacticalCity@@I@Z PROC ; std::vector<CvTacticalCity,std::allocator<CvTacticalCity> >::operator[], COMDAT
; _this$ = ecx

; 775  : 
; 776  :  #if _HAS_ITERATOR_DEBUGGING
; 777  : 		if (size() <= _Pos)
; 778  : 			{
; 779  : 			_DEBUG_ERROR("vector subscript out of range");
; 780  : 			_SCL_SECURE_OUT_OF_RANGE;
; 781  : 			}
; 782  :  #endif /* _HAS_ITERATOR_DEBUGGING */
; 783  : 		_SCL_SECURE_VALIDATE_RANGE(_Pos < size());
; 784  : 
; 785  : 		return (*(_Myfirst + _Pos));

	mov	eax, DWORD PTR __Pos$[esp-4]
	mov	ecx, DWORD PTR [ecx+4]
	lea	eax, DWORD PTR [eax+eax*2]
	lea	eax, DWORD PTR [ecx+eax*4]

; 786  : 		}

	ret	4
??A?$vector@VCvTacticalCity@@V?$allocator@VCvTacticalCity@@@std@@@std@@QAEAAVCvTacticalCity@@I@Z ENDP ; std::vector<CvTacticalCity,std::allocator<CvTacticalCity> >::operator[]
_TEXT	ENDS
PUBLIC	?begin@?$BaseVector@VCvTacticalMove@@$00@@QAEPAVCvTacticalMove@@XZ ; BaseVector<CvTacticalMove,1>::begin
; Function compile flags: /Ogtpy
; File c:\users\enormousapplepie\desktop\lekmod files\lekmod dll versions\v29\lekmod_dll\fireplace\include\fireworks\ffastvector.h
;	COMDAT ?begin@?$BaseVector@VCvTacticalMove@@$00@@QAEPAVCvTacticalMove@@XZ
_TEXT	SEGMENT
?begin@?$BaseVector@VCvTacticalMove@@$00@@QAEPAVCvTacticalMove@@XZ PROC ; BaseVector<CvTacticalMove,1>::begin, COMDAT
; _this$ = ecx

; 194  :         return m_pData; 

	mov	eax, DWORD PTR [ecx]

; 195  :     };

	ret	0
?begin@?$BaseVector@VCvTacticalMove@@$00@@QAEPAVCvTacticalMove@@XZ ENDP ; BaseVector<CvTacticalMove,1>::begin
_TEXT	ENDS
PUBLIC	?end@?$BaseVector@VCvTacticalMove@@$00@@QAEPAVCvTacticalMove@@XZ ; BaseVector<CvTacticalMove,1>::end
; Function compile flags: /Ogtpy
;	COMDAT ?end@?$BaseVector@VCvTacticalMove@@$00@@QAEPAVCvTacticalMove@@XZ
_TEXT	SEGMENT
?end@?$BaseVector@VCvTacticalMove@@$00@@QAEPAVCvTacticalMove@@XZ PROC ; BaseVector<CvTacticalMove,1>::end, COMDAT
; _this$ = ecx

; 197  :         return m_pData+m_uiCurrSize; 

	mov	eax, DWORD PTR [ecx+4]
	mov	ecx, DWORD PTR [ecx]
	lea	eax, DWORD PTR [ecx+eax*8]

; 198  :     };

	ret	0
?end@?$BaseVector@VCvTacticalMove@@$00@@QAEPAVCvTacticalMove@@XZ ENDP ; BaseVector<CvTacticalMove,1>::end
_TEXT	ENDS
PUBLIC	?size@?$list@VCvQueuedAttack@@V?$allocator@VCvQueuedAttack@@@std@@@std@@QBEIXZ ; std::list<CvQueuedAttack,std::allocator<CvQueuedAttack> >::size
; Function compile flags: /Ogtpy
; File c:\program files (x86)\microsoft visual studio 9.0\vc\include\list
;	COMDAT ?size@?$list@VCvQueuedAttack@@V?$allocator@VCvQueuedAttack@@@std@@@std@@QBEIXZ
_TEXT	SEGMENT
?size@?$list@VCvQueuedAttack@@V?$allocator@VCvQueuedAttack@@@std@@@std@@QBEIXZ PROC ; std::list<CvQueuedAttack,std::allocator<CvQueuedAttack> >::size, COMDAT
; _this$ = ecx

; 620  : 		return (_Mysize);

	mov	eax, DWORD PTR [ecx+8]

; 621  : 		}

	ret	0
?size@?$list@VCvQueuedAttack@@V?$allocator@VCvQueuedAttack@@@std@@@std@@QBEIXZ ENDP ; std::list<CvQueuedAttack,std::allocator<CvQueuedAttack> >::size
_TEXT	ENDS
PUBLIC	??A?$BaseVector@VCvTacticalTarget@@$0A@@@QAEAAVCvTacticalTarget@@I@Z ; BaseVector<CvTacticalTarget,0>::operator[]
; Function compile flags: /Ogtpy
; File c:\users\enormousapplepie\desktop\lekmod files\lekmod dll versions\v29\lekmod_dll\fireplace\include\fireworks\ffastvector.h
;	COMDAT ??A?$BaseVector@VCvTacticalTarget@@$0A@@@QAEAAVCvTacticalTarget@@I@Z
_TEXT	SEGMENT
_ui$ = 8						; size = 4
??A?$BaseVector@VCvTacticalTarget@@$0A@@@QAEAAVCvTacticalTarget@@I@Z PROC ; BaseVector<CvTacticalTarget,0>::operator[], COMDAT
; _this$ = ecx

; 129  : 		FAssert(ui < m_uiCurrSize);
; 130  : 		return m_pData[ui];

	mov	eax, DWORD PTR _ui$[esp-4]
	lea	edx, DWORD PTR [eax*8]
	sub	edx, eax
	mov	eax, DWORD PTR [ecx]
	lea	eax, DWORD PTR [eax+edx*4]

; 131  : 	};

	ret	4
??A?$BaseVector@VCvTacticalTarget@@$0A@@@QAEAAVCvTacticalTarget@@I@Z ENDP ; BaseVector<CvTacticalTarget,0>::operator[]
_TEXT	ENDS
PUBLIC	?size@?$BaseVector@VCvTacticalTarget@@$0A@@@QBEIXZ ; BaseVector<CvTacticalTarget,0>::size
; Function compile flags: /Ogtpy
;	COMDAT ?size@?$BaseVector@VCvTacticalTarget@@$0A@@@QBEIXZ
_TEXT	SEGMENT
?size@?$BaseVector@VCvTacticalTarget@@$0A@@@QBEIXZ PROC	; BaseVector<CvTacticalTarget,0>::size, COMDAT
; _this$ = ecx

; 169  : 		return m_uiCurrSize;

	mov	eax, DWORD PTR [ecx+4]

; 170  : 	};

	ret	0
?size@?$BaseVector@VCvTacticalTarget@@$0A@@@QBEIXZ ENDP	; BaseVector<CvTacticalTarget,0>::size
_TEXT	ENDS
PUBLIC	?begin@?$BaseVector@VCvTacticalTarget@@$0A@@@QAEPAVCvTacticalTarget@@XZ ; BaseVector<CvTacticalTarget,0>::begin
; Function compile flags: /Ogtpy
;	COMDAT ?begin@?$BaseVector@VCvTacticalTarget@@$0A@@@QAEPAVCvTacticalTarget@@XZ
_TEXT	SEGMENT
?begin@?$BaseVector@VCvTacticalTarget@@$0A@@@QAEPAVCvTacticalTarget@@XZ PROC ; BaseVector<CvTacticalTarget,0>::begin, COMDAT
; _this$ = ecx

; 194  :         return m_pData; 

	mov	eax, DWORD PTR [ecx]

; 195  :     };

	ret	0
?begin@?$BaseVector@VCvTacticalTarget@@$0A@@@QAEPAVCvTacticalTarget@@XZ ENDP ; BaseVector<CvTacticalTarget,0>::begin
_TEXT	ENDS
PUBLIC	?end@?$BaseVector@VCvTacticalTarget@@$0A@@@QAEPAVCvTacticalTarget@@XZ ; BaseVector<CvTacticalTarget,0>::end
; Function compile flags: /Ogtpy
;	COMDAT ?end@?$BaseVector@VCvTacticalTarget@@$0A@@@QAEPAVCvTacticalTarget@@XZ
_TEXT	SEGMENT
?end@?$BaseVector@VCvTacticalTarget@@$0A@@@QAEPAVCvTacticalTarget@@XZ PROC ; BaseVector<CvTacticalTarget,0>::end, COMDAT
; _this$ = ecx

; 197  :         return m_pData+m_uiCurrSize; 

	mov	eax, DWORD PTR [ecx+4]
	lea	edx, DWORD PTR [eax*8]
	sub	edx, eax
	mov	eax, DWORD PTR [ecx]
	lea	eax, DWORD PTR [eax+edx*4]

; 198  :     };

	ret	0
?end@?$BaseVector@VCvTacticalTarget@@$0A@@@QAEPAVCvTacticalTarget@@XZ ENDP ; BaseVector<CvTacticalTarget,0>::end
_TEXT	ENDS
PUBLIC	??A?$BaseVector@VCvTacticalTarget@@$00@@QAEAAVCvTacticalTarget@@I@Z ; BaseVector<CvTacticalTarget,1>::operator[]
; Function compile flags: /Ogtpy
;	COMDAT ??A?$BaseVector@VCvTacticalTarget@@$00@@QAEAAVCvTacticalTarget@@I@Z
_TEXT	SEGMENT
_ui$ = 8						; size = 4
??A?$BaseVector@VCvTacticalTarget@@$00@@QAEAAVCvTacticalTarget@@I@Z PROC ; BaseVector<CvTacticalTarget,1>::operator[], COMDAT
; _this$ = ecx

; 129  : 		FAssert(ui < m_uiCurrSize);
; 130  : 		return m_pData[ui];

	mov	eax, DWORD PTR _ui$[esp-4]
	lea	edx, DWORD PTR [eax*8]
	sub	edx, eax
	mov	eax, DWORD PTR [ecx]
	lea	eax, DWORD PTR [eax+edx*4]

; 131  : 	};

	ret	4
??A?$BaseVector@VCvTacticalTarget@@$00@@QAEAAVCvTacticalTarget@@I@Z ENDP ; BaseVector<CvTacticalTarget,1>::operator[]
_TEXT	ENDS
PUBLIC	?size@?$BaseVector@VCvTacticalTarget@@$00@@QBEIXZ ; BaseVector<CvTacticalTarget,1>::size
; Function compile flags: /Ogtpy
;	COMDAT ?size@?$BaseVector@VCvTacticalTarget@@$00@@QBEIXZ
_TEXT	SEGMENT
?size@?$BaseVector@VCvTacticalTarget@@$00@@QBEIXZ PROC	; BaseVector<CvTacticalTarget,1>::size, COMDAT
; _this$ = ecx

; 169  : 		return m_uiCurrSize;

	mov	eax, DWORD PTR [ecx+4]

; 170  : 	};

	ret	0
?size@?$BaseVector@VCvTacticalTarget@@$00@@QBEIXZ ENDP	; BaseVector<CvTacticalTarget,1>::size
_TEXT	ENDS
PUBLIC	?begin@?$BaseVector@VCvTacticalTarget@@$00@@QAEPAVCvTacticalTarget@@XZ ; BaseVector<CvTacticalTarget,1>::begin
; Function compile flags: /Ogtpy
;	COMDAT ?begin@?$BaseVector@VCvTacticalTarget@@$00@@QAEPAVCvTacticalTarget@@XZ
_TEXT	SEGMENT
?begin@?$BaseVector@VCvTacticalTarget@@$00@@QAEPAVCvTacticalTarget@@XZ PROC ; BaseVector<CvTacticalTarget,1>::begin, COMDAT
; _this$ = ecx

; 194  :         return m_pData; 

	mov	eax, DWORD PTR [ecx]

; 195  :     };

	ret	0
?begin@?$BaseVector@VCvTacticalTarget@@$00@@QAEPAVCvTacticalTarget@@XZ ENDP ; BaseVector<CvTacticalTarget,1>::begin
_TEXT	ENDS
PUBLIC	?end@?$BaseVector@VCvTacticalTarget@@$00@@QAEPAVCvTacticalTarget@@XZ ; BaseVector<CvTacticalTarget,1>::end
; Function compile flags: /Ogtpy
;	COMDAT ?end@?$BaseVector@VCvTacticalTarget@@$00@@QAEPAVCvTacticalTarget@@XZ
_TEXT	SEGMENT
?end@?$BaseVector@VCvTacticalTarget@@$00@@QAEPAVCvTacticalTarget@@XZ PROC ; BaseVector<CvTacticalTarget,1>::end, COMDAT
; _this$ = ecx

; 197  :         return m_pData+m_uiCurrSize; 

	mov	eax, DWORD PTR [ecx+4]
	lea	edx, DWORD PTR [eax*8]
	sub	edx, eax
	mov	eax, DWORD PTR [ecx]
	lea	eax, DWORD PTR [eax+edx*4]

; 198  :     };

	ret	0
?end@?$BaseVector@VCvTacticalTarget@@$00@@QAEPAVCvTacticalTarget@@XZ ENDP ; BaseVector<CvTacticalTarget,1>::end
_TEXT	ENDS
PUBLIC	??A?$BaseVector@VCvTacticalPosture@@$00@@QAEAAVCvTacticalPosture@@I@Z ; BaseVector<CvTacticalPosture,1>::operator[]
; Function compile flags: /Ogtpy
;	COMDAT ??A?$BaseVector@VCvTacticalPosture@@$00@@QAEAAVCvTacticalPosture@@I@Z
_TEXT	SEGMENT
_ui$ = 8						; size = 4
??A?$BaseVector@VCvTacticalPosture@@$00@@QAEAAVCvTacticalPosture@@I@Z PROC ; BaseVector<CvTacticalPosture,1>::operator[], COMDAT
; _this$ = ecx

; 129  : 		FAssert(ui < m_uiCurrSize);
; 130  : 		return m_pData[ui];

	mov	eax, DWORD PTR _ui$[esp-4]
	mov	ecx, DWORD PTR [ecx]
	lea	eax, DWORD PTR [eax+eax*2]
	lea	eax, DWORD PTR [ecx+eax*4]

; 131  : 	};

	ret	4
??A?$BaseVector@VCvTacticalPosture@@$00@@QAEAAVCvTacticalPosture@@I@Z ENDP ; BaseVector<CvTacticalPosture,1>::operator[]
_TEXT	ENDS
PUBLIC	?size@?$BaseVector@VCvTacticalPosture@@$00@@QBEIXZ ; BaseVector<CvTacticalPosture,1>::size
; Function compile flags: /Ogtpy
;	COMDAT ?size@?$BaseVector@VCvTacticalPosture@@$00@@QBEIXZ
_TEXT	SEGMENT
?size@?$BaseVector@VCvTacticalPosture@@$00@@QBEIXZ PROC	; BaseVector<CvTacticalPosture,1>::size, COMDAT
; _this$ = ecx

; 169  : 		return m_uiCurrSize;

	mov	eax, DWORD PTR [ecx+4]

; 170  : 	};

	ret	0
?size@?$BaseVector@VCvTacticalPosture@@$00@@QBEIXZ ENDP	; BaseVector<CvTacticalPosture,1>::size
_TEXT	ENDS
PUBLIC	??A?$BaseVector@VCvTemporaryZone@@$00@@QAEAAVCvTemporaryZone@@I@Z ; BaseVector<CvTemporaryZone,1>::operator[]
; Function compile flags: /Ogtpy
;	COMDAT ??A?$BaseVector@VCvTemporaryZone@@$00@@QAEAAVCvTemporaryZone@@I@Z
_TEXT	SEGMENT
_ui$ = 8						; size = 4
??A?$BaseVector@VCvTemporaryZone@@$00@@QAEAAVCvTemporaryZone@@I@Z PROC ; BaseVector<CvTemporaryZone,1>::operator[], COMDAT
; _this$ = ecx

; 129  : 		FAssert(ui < m_uiCurrSize);
; 130  : 		return m_pData[ui];

	mov	eax, DWORD PTR _ui$[esp-4]
	mov	ecx, DWORD PTR [ecx]
	lea	eax, DWORD PTR [eax+eax*4]
	lea	eax, DWORD PTR [ecx+eax*4]

; 131  : 	};

	ret	4
??A?$BaseVector@VCvTemporaryZone@@$00@@QAEAAVCvTemporaryZone@@I@Z ENDP ; BaseVector<CvTemporaryZone,1>::operator[]
_TEXT	ENDS
PUBLIC	?size@?$BaseVector@VCvTemporaryZone@@$00@@QBEIXZ ; BaseVector<CvTemporaryZone,1>::size
; Function compile flags: /Ogtpy
;	COMDAT ?size@?$BaseVector@VCvTemporaryZone@@$00@@QBEIXZ
_TEXT	SEGMENT
?size@?$BaseVector@VCvTemporaryZone@@$00@@QBEIXZ PROC	; BaseVector<CvTemporaryZone,1>::size, COMDAT
; _this$ = ecx

; 169  : 		return m_uiCurrSize;

	mov	eax, DWORD PTR [ecx+4]

; 170  : 	};

	ret	0
?size@?$BaseVector@VCvTemporaryZone@@$00@@QBEIXZ ENDP	; BaseVector<CvTemporaryZone,1>::size
_TEXT	ENDS
PUBLIC	??A?$BaseVector@VCvBlockingUnit@@$00@@QAEAAVCvBlockingUnit@@I@Z ; BaseVector<CvBlockingUnit,1>::operator[]
; Function compile flags: /Ogtpy
;	COMDAT ??A?$BaseVector@VCvBlockingUnit@@$00@@QAEAAVCvBlockingUnit@@I@Z
_TEXT	SEGMENT
_ui$ = 8						; size = 4
??A?$BaseVector@VCvBlockingUnit@@$00@@QAEAAVCvBlockingUnit@@I@Z PROC ; BaseVector<CvBlockingUnit,1>::operator[], COMDAT
; _this$ = ecx

; 129  : 		FAssert(ui < m_uiCurrSize);
; 130  : 		return m_pData[ui];

	mov	eax, DWORD PTR _ui$[esp-4]
	shl	eax, 4
	add	eax, DWORD PTR [ecx]

; 131  : 	};

	ret	4
??A?$BaseVector@VCvBlockingUnit@@$00@@QAEAAVCvBlockingUnit@@I@Z ENDP ; BaseVector<CvBlockingUnit,1>::operator[]
_TEXT	ENDS
PUBLIC	?size@?$BaseVector@VCvBlockingUnit@@$00@@QBEIXZ	; BaseVector<CvBlockingUnit,1>::size
; Function compile flags: /Ogtpy
;	COMDAT ?size@?$BaseVector@VCvBlockingUnit@@$00@@QBEIXZ
_TEXT	SEGMENT
?size@?$BaseVector@VCvBlockingUnit@@$00@@QBEIXZ PROC	; BaseVector<CvBlockingUnit,1>::size, COMDAT
; _this$ = ecx

; 169  : 		return m_uiCurrSize;

	mov	eax, DWORD PTR [ecx+4]

; 170  : 	};

	ret	0
?size@?$BaseVector@VCvBlockingUnit@@$00@@QBEIXZ ENDP	; BaseVector<CvBlockingUnit,1>::size
_TEXT	ENDS
PUBLIC	?begin@?$BaseVector@VCvBlockingUnit@@$00@@QAEPAVCvBlockingUnit@@XZ ; BaseVector<CvBlockingUnit,1>::begin
; Function compile flags: /Ogtpy
;	COMDAT ?begin@?$BaseVector@VCvBlockingUnit@@$00@@QAEPAVCvBlockingUnit@@XZ
_TEXT	SEGMENT
?begin@?$BaseVector@VCvBlockingUnit@@$00@@QAEPAVCvBlockingUnit@@XZ PROC ; BaseVector<CvBlockingUnit,1>::begin, COMDAT
; _this$ = ecx

; 194  :         return m_pData; 

	mov	eax, DWORD PTR [ecx]

; 195  :     };

	ret	0
?begin@?$BaseVector@VCvBlockingUnit@@$00@@QAEPAVCvBlockingUnit@@XZ ENDP ; BaseVector<CvBlockingUnit,1>::begin
_TEXT	ENDS
PUBLIC	?end@?$BaseVector@VCvBlockingUnit@@$00@@QAEPAVCvBlockingUnit@@XZ ; BaseVector<CvBlockingUnit,1>::end
; Function compile flags: /Ogtpy
;	COMDAT ?end@?$BaseVector@VCvBlockingUnit@@$00@@QAEPAVCvBlockingUnit@@XZ
_TEXT	SEGMENT
?end@?$BaseVector@VCvBlockingUnit@@$00@@QAEPAVCvBlockingUnit@@XZ PROC ; BaseVector<CvBlockingUnit,1>::end, COMDAT
; _this$ = ecx

; 197  :         return m_pData+m_uiCurrSize; 

	mov	eax, DWORD PTR [ecx+4]
	shl	eax, 4
	add	eax, DWORD PTR [ecx]

; 198  :     };

	ret	0
?end@?$BaseVector@VCvBlockingUnit@@$00@@QAEPAVCvBlockingUnit@@XZ ENDP ; BaseVector<CvBlockingUnit,1>::end
_TEXT	ENDS
PUBLIC	??A?$BaseVector@VCvOperationUnit@@$00@@QAEAAVCvOperationUnit@@I@Z ; BaseVector<CvOperationUnit,1>::operator[]
; Function compile flags: /Ogtpy
;	COMDAT ??A?$BaseVector@VCvOperationUnit@@$00@@QAEAAVCvOperationUnit@@I@Z
_TEXT	SEGMENT
_ui$ = 8						; size = 4
??A?$BaseVector@VCvOperationUnit@@$00@@QAEAAVCvOperationUnit@@I@Z PROC ; BaseVector<CvOperationUnit,1>::operator[], COMDAT
; _this$ = ecx

; 129  : 		FAssert(ui < m_uiCurrSize);
; 130  : 		return m_pData[ui];

	mov	eax, DWORD PTR [ecx]
	mov	ecx, DWORD PTR _ui$[esp-4]
	lea	eax, DWORD PTR [eax+ecx*8]

; 131  : 	};

	ret	4
??A?$BaseVector@VCvOperationUnit@@$00@@QAEAAVCvOperationUnit@@I@Z ENDP ; BaseVector<CvOperationUnit,1>::operator[]
_TEXT	ENDS
PUBLIC	?size@?$BaseVector@VCvOperationUnit@@$00@@QBEIXZ ; BaseVector<CvOperationUnit,1>::size
; Function compile flags: /Ogtpy
;	COMDAT ?size@?$BaseVector@VCvOperationUnit@@$00@@QBEIXZ
_TEXT	SEGMENT
?size@?$BaseVector@VCvOperationUnit@@$00@@QBEIXZ PROC	; BaseVector<CvOperationUnit,1>::size, COMDAT
; _this$ = ecx

; 169  : 		return m_uiCurrSize;

	mov	eax, DWORD PTR [ecx+4]

; 170  : 	};

	ret	0
?size@?$BaseVector@VCvOperationUnit@@$00@@QBEIXZ ENDP	; BaseVector<CvOperationUnit,1>::size
_TEXT	ENDS
PUBLIC	?begin@?$BaseVector@VCvOperationUnit@@$00@@QAEPAVCvOperationUnit@@XZ ; BaseVector<CvOperationUnit,1>::begin
; Function compile flags: /Ogtpy
;	COMDAT ?begin@?$BaseVector@VCvOperationUnit@@$00@@QAEPAVCvOperationUnit@@XZ
_TEXT	SEGMENT
?begin@?$BaseVector@VCvOperationUnit@@$00@@QAEPAVCvOperationUnit@@XZ PROC ; BaseVector<CvOperationUnit,1>::begin, COMDAT
; _this$ = ecx

; 194  :         return m_pData; 

	mov	eax, DWORD PTR [ecx]

; 195  :     };

	ret	0
?begin@?$BaseVector@VCvOperationUnit@@$00@@QAEPAVCvOperationUnit@@XZ ENDP ; BaseVector<CvOperationUnit,1>::begin
_TEXT	ENDS
PUBLIC	?end@?$BaseVector@VCvOperationUnit@@$00@@QAEPAVCvOperationUnit@@XZ ; BaseVector<CvOperationUnit,1>::end
; Function compile flags: /Ogtpy
;	COMDAT ?end@?$BaseVector@VCvOperationUnit@@$00@@QAEPAVCvOperationUnit@@XZ
_TEXT	SEGMENT
?end@?$BaseVector@VCvOperationUnit@@$00@@QAEPAVCvOperationUnit@@XZ PROC ; BaseVector<CvOperationUnit,1>::end, COMDAT
; _this$ = ecx

; 197  :         return m_pData+m_uiCurrSize; 

	mov	eax, DWORD PTR [ecx+4]
	mov	ecx, DWORD PTR [ecx]
	lea	eax, DWORD PTR [ecx+eax*8]

; 198  :     };

	ret	0
?end@?$BaseVector@VCvOperationUnit@@$00@@QAEPAVCvOperationUnit@@XZ ENDP ; BaseVector<CvOperationUnit,1>::end
_TEXT	ENDS
PUBLIC	??8?$_Const_iterator@$0A@@?$list@HV?$allocator@H@std@@@std@@QBE_NABV012@@Z ; std::list<int,std::allocator<int> >::_Const_iterator<0>::operator==
; Function compile flags: /Ogtpy
; File c:\program files (x86)\microsoft visual studio 9.0\vc\include\list
;	COMDAT ??8?$_Const_iterator@$0A@@?$list@HV?$allocator@H@std@@@std@@QBE_NABV012@@Z
_TEXT	SEGMENT
__Right$ = 8						; size = 4
??8?$_Const_iterator@$0A@@?$list@HV?$allocator@H@std@@@std@@QBE_NABV012@@Z PROC ; std::list<int,std::allocator<int> >::_Const_iterator<0>::operator==, COMDAT
; _this$ = ecx

; 291  : 
; 292  :  #if _HAS_ITERATOR_DEBUGGING
; 293  : 			_Compat(_Right);
; 294  :  #else
; 295  : 			_SCL_SECURE_TRAITS_VALIDATE(this->_Has_container() && this->_Same_container(_Right));
; 296  :  #endif /* _HAS_ITERATOR_DEBUGGING */
; 297  : 
; 298  : 			return (_Ptr == _Right._Ptr);

	mov	eax, DWORD PTR [ecx]
	mov	edx, DWORD PTR __Right$[esp-4]
	xor	ecx, ecx
	cmp	eax, DWORD PTR [edx]
	sete	cl
	mov	al, cl

; 299  : 			}

	ret	4
??8?$_Const_iterator@$0A@@?$list@HV?$allocator@H@std@@@std@@QBE_NABV012@@Z ENDP ; std::list<int,std::allocator<int> >::_Const_iterator<0>::operator==
_TEXT	ENDS
PUBLIC	??9?$_Const_iterator@$0A@@?$list@HV?$allocator@H@std@@@std@@QBE_NABV012@@Z ; std::list<int,std::allocator<int> >::_Const_iterator<0>::operator!=
; Function compile flags: /Ogtpy
;	COMDAT ??9?$_Const_iterator@$0A@@?$list@HV?$allocator@H@std@@@std@@QBE_NABV012@@Z
_TEXT	SEGMENT
__Right$ = 8						; size = 4
??9?$_Const_iterator@$0A@@?$list@HV?$allocator@H@std@@@std@@QBE_NABV012@@Z PROC ; std::list<int,std::allocator<int> >::_Const_iterator<0>::operator!=, COMDAT
; _this$ = ecx

; 303  : 			return (!(*this == _Right));

	mov	eax, DWORD PTR [ecx]
	mov	edx, DWORD PTR __Right$[esp-4]
	xor	ecx, ecx
	cmp	eax, DWORD PTR [edx]
	setne	cl
	mov	al, cl

; 304  : 			}

	ret	4
??9?$_Const_iterator@$0A@@?$list@HV?$allocator@H@std@@@std@@QBE_NABV012@@Z ENDP ; std::list<int,std::allocator<int> >::_Const_iterator<0>::operator!=
_TEXT	ENDS
PUBLIC	?addTarget@?$DestructionNotification@V?$FObjectHandle@VCvUnit@@@@@@QAEXABV?$FObjectHandle@VCvUnit@@@@@Z ; DestructionNotification<FObjectHandle<CvUnit> >::addTarget
; Function compile flags: /Ogtpy
; File c:\users\enormousapplepie\desktop\lekmod files\lekmod dll versions\v29\lekmod_dll\fireplace\include\fireworks\fobjecthandle.h
;	COMDAT ?addTarget@?$DestructionNotification@V?$FObjectHandle@VCvUnit@@@@@@QAEXABV?$FObjectHandle@VCvUnit@@@@@Z
_TEXT	SEGMENT
_target$ = 8						; size = 4
?addTarget@?$DestructionNotification@V?$FObjectHandle@VCvUnit@@@@@@QAEXABV?$FObjectHandle@VCvUnit@@@@@Z PROC ; DestructionNotification<FObjectHandle<CvUnit> >::addTarget, COMDAT
; _this$ = ecx

; 52   : #ifdef TRACK_DESTRUCTION_NOTIFICATION
; 53   : 		m_targets.insert(&target);
; 54   : #endif
; 55   : 	}

	ret	4
?addTarget@?$DestructionNotification@V?$FObjectHandle@VCvUnit@@@@@@QAEXABV?$FObjectHandle@VCvUnit@@@@@Z ENDP ; DestructionNotification<FObjectHandle<CvUnit> >::addTarget
_TEXT	ENDS
PUBLIC	?removeTarget@?$DestructionNotification@V?$FObjectHandle@VCvUnit@@@@@@QAEXABV?$FObjectHandle@VCvUnit@@@@@Z ; DestructionNotification<FObjectHandle<CvUnit> >::removeTarget
; Function compile flags: /Ogtpy
;	COMDAT ?removeTarget@?$DestructionNotification@V?$FObjectHandle@VCvUnit@@@@@@QAEXABV?$FObjectHandle@VCvUnit@@@@@Z
_TEXT	SEGMENT
_target$ = 8						; size = 4
?removeTarget@?$DestructionNotification@V?$FObjectHandle@VCvUnit@@@@@@QAEXABV?$FObjectHandle@VCvUnit@@@@@Z PROC ; DestructionNotification<FObjectHandle<CvUnit> >::removeTarget, COMDAT
; _this$ = ecx

; 63   : #ifdef TRACK_DESTRUCTION_NOTIFICATION
; 64   : 		m_targets.erase(&target);
; 65   : #endif
; 66   : 	}

	ret	4
?removeTarget@?$DestructionNotification@V?$FObjectHandle@VCvUnit@@@@@@QAEXABV?$FObjectHandle@VCvUnit@@@@@Z ENDP ; DestructionNotification<FObjectHandle<CvUnit> >::removeTarget
_TEXT	ENDS
PUBLIC	??1?$_Container_base_aux_alloc_empty@V?$allocator@PAVCvTacticalMoveXMLEntry@@@std@@@std@@IAE@XZ ; std::_Container_base_aux_alloc_empty<std::allocator<CvTacticalMoveXMLEntry *> >::~_Container_base_aux_alloc_empty<std::allocator<CvTacticalMoveXMLEntry *> >
; Function compile flags: /Ogtpy
; File c:\program files (x86)\microsoft visual studio 9.0\vc\include\xutility
;	COMDAT ??1?$_Container_base_aux_alloc_empty@V?$allocator@PAVCvTacticalMoveXMLEntry@@@std@@@std@@IAE@XZ
_TEXT	SEGMENT
??1?$_Container_base_aux_alloc_empty@V?$allocator@PAVCvTacticalMoveXMLEntry@@@std@@@std@@IAE@XZ PROC ; std::_Container_base_aux_alloc_empty<std::allocator<CvTacticalMoveXMLEntry *> >::~_Container_base_aux_alloc_empty<std::allocator<CvTacticalMoveXMLEntry *> >, COMDAT
; _this$ = ecx

; 627  : 	~_Container_base_aux_alloc_empty() { }

	ret	0
??1?$_Container_base_aux_alloc_empty@V?$allocator@PAVCvTacticalMoveXMLEntry@@@std@@@std@@IAE@XZ ENDP ; std::_Container_base_aux_alloc_empty<std::allocator<CvTacticalMoveXMLEntry *> >::~_Container_base_aux_alloc_empty<std::allocator<CvTacticalMoveXMLEntry *> >
_TEXT	ENDS
PUBLIC	??0?$allocator@PAVCvTacticalMoveXMLEntry@@@std@@QAE@XZ ; std::allocator<CvTacticalMoveXMLEntry *>::allocator<CvTacticalMoveXMLEntry *>
; Function compile flags: /Ogtpy
; File c:\program files (x86)\microsoft visual studio 9.0\vc\include\xmemory
;	COMDAT ??0?$allocator@PAVCvTacticalMoveXMLEntry@@@std@@QAE@XZ
_TEXT	SEGMENT
??0?$allocator@PAVCvTacticalMoveXMLEntry@@@std@@QAE@XZ PROC ; std::allocator<CvTacticalMoveXMLEntry *>::allocator<CvTacticalMoveXMLEntry *>, COMDAT
; _this$ = ecx

; 119  : 	allocator() _THROW0()

	mov	eax, ecx

; 120  : 		{	// construct default allocator (do nothing)
; 121  : 		}

	ret	0
??0?$allocator@PAVCvTacticalMoveXMLEntry@@@std@@QAE@XZ ENDP ; std::allocator<CvTacticalMoveXMLEntry *>::allocator<CvTacticalMoveXMLEntry *>
_TEXT	ENDS
PUBLIC	?_Nextnode@?$list@HV?$allocator@H@std@@@std@@KAAAPAU_Node@?$_List_nod@HV?$allocator@H@std@@@2@PAU342@@Z ; std::list<int,std::allocator<int> >::_Nextnode
; Function compile flags: /Ogtpy
; File c:\program files (x86)\microsoft visual studio 9.0\vc\include\list
;	COMDAT ?_Nextnode@?$list@HV?$allocator@H@std@@@std@@KAAAPAU_Node@?$_List_nod@HV?$allocator@H@std@@@2@PAU342@@Z
_TEXT	SEGMENT
__Pnode$ = 8						; size = 4
?_Nextnode@?$list@HV?$allocator@H@std@@@std@@KAAAPAU_Node@?$_List_nod@HV?$allocator@H@std@@@2@PAU342@@Z PROC ; std::list<int,std::allocator<int> >::_Nextnode, COMDAT

; 115  : 		return ((_Nodepref)(*_Pnode)._Next);

	mov	eax, DWORD PTR __Pnode$[esp-4]

; 116  : 		}

	ret	0
?_Nextnode@?$list@HV?$allocator@H@std@@@std@@KAAAPAU_Node@?$_List_nod@HV?$allocator@H@std@@@2@PAU342@@Z ENDP ; std::list<int,std::allocator<int> >::_Nextnode
_TEXT	ENDS
PUBLIC	?_Prevnode@?$list@HV?$allocator@H@std@@@std@@KAAAPAU_Node@?$_List_nod@HV?$allocator@H@std@@@2@PAU342@@Z ; std::list<int,std::allocator<int> >::_Prevnode
; Function compile flags: /Ogtpy
;	COMDAT ?_Prevnode@?$list@HV?$allocator@H@std@@@std@@KAAAPAU_Node@?$_List_nod@HV?$allocator@H@std@@@2@PAU342@@Z
_TEXT	SEGMENT
__Pnode$ = 8						; size = 4
?_Prevnode@?$list@HV?$allocator@H@std@@@std@@KAAAPAU_Node@?$_List_nod@HV?$allocator@H@std@@@2@PAU342@@Z PROC ; std::list<int,std::allocator<int> >::_Prevnode, COMDAT

; 120  : 		return ((_Nodepref)(*_Pnode)._Prev);

	mov	eax, DWORD PTR __Pnode$[esp-4]
	add	eax, 4

; 121  : 		}

	ret	0
?_Prevnode@?$list@HV?$allocator@H@std@@@std@@KAAAPAU_Node@?$_List_nod@HV?$allocator@H@std@@@2@PAU342@@Z ENDP ; std::list<int,std::allocator<int> >::_Prevnode
_TEXT	ENDS
PUBLIC	?deallocate@?$allocator@U_Node@?$_List_nod@HV?$allocator@H@std@@@std@@@std@@QAEXPAU_Node@?$_List_nod@HV?$allocator@H@std@@@2@I@Z ; std::allocator<std::_List_nod<int,std::allocator<int> >::_Node>::deallocate
; Function compile flags: /Ogtpy
; File c:\program files (x86)\microsoft visual studio 9.0\vc\include\xmemory
;	COMDAT ?deallocate@?$allocator@U_Node@?$_List_nod@HV?$allocator@H@std@@@std@@@std@@QAEXPAU_Node@?$_List_nod@HV?$allocator@H@std@@@2@I@Z
_TEXT	SEGMENT
__Ptr$ = 8						; size = 4
___formal$ = 12						; size = 4
?deallocate@?$allocator@U_Node@?$_List_nod@HV?$allocator@H@std@@@std@@@std@@QAEXPAU_Node@?$_List_nod@HV?$allocator@H@std@@@2@I@Z PROC ; std::allocator<std::_List_nod<int,std::allocator<int> >::_Node>::deallocate, COMDAT
; _this$ = ecx

; 140  : 		::operator delete(_Ptr);

	mov	eax, DWORD PTR __Ptr$[esp-4]
	push	eax
	call	??3@YAXPAX@Z				; operator delete
	pop	ecx

; 141  : 		}

	ret	8
?deallocate@?$allocator@U_Node@?$_List_nod@HV?$allocator@H@std@@@std@@@std@@QAEXPAU_Node@?$_List_nod@HV?$allocator@H@std@@@2@I@Z ENDP ; std::allocator<std::_List_nod<int,std::allocator<int> >::_Node>::deallocate
_TEXT	ENDS
PUBLIC	?capacity@?$vector@VCvTacticalUnit@@V?$allocator@VCvTacticalUnit@@@std@@@std@@QBEIXZ ; std::vector<CvTacticalUnit,std::allocator<CvTacticalUnit> >::capacity
; Function compile flags: /Ogtpy
; File c:\program files (x86)\microsoft visual studio 9.0\vc\include\vector
;	COMDAT ?capacity@?$vector@VCvTacticalUnit@@V?$allocator@VCvTacticalUnit@@@std@@@std@@QBEIXZ
_TEXT	SEGMENT
?capacity@?$vector@VCvTacticalUnit@@V?$allocator@VCvTacticalUnit@@@std@@@std@@QBEIXZ PROC ; std::vector<CvTacticalUnit,std::allocator<CvTacticalUnit> >::capacity, COMDAT
; _this$ = ecx

; 635  : 		return (_Myfirst == 0 ? 0 : _Myend - _Myfirst);

	mov	eax, DWORD PTR [ecx+4]
	test	eax, eax
	jne	SHORT $LN3@capacity

; 636  : 		}

	ret	0
$LN3@capacity:

; 635  : 		return (_Myfirst == 0 ? 0 : _Myend - _Myfirst);

	mov	ecx, DWORD PTR [ecx+12]
	sub	ecx, eax
	mov	eax, 715827883				; 2aaaaaabH
	imul	ecx
	sar	edx, 2
	mov	eax, edx
	shr	eax, 31					; 0000001fH
	add	eax, edx

; 636  : 		}

	ret	0
?capacity@?$vector@VCvTacticalUnit@@V?$allocator@VCvTacticalUnit@@@std@@@std@@QBEIXZ ENDP ; std::vector<CvTacticalUnit,std::allocator<CvTacticalUnit> >::capacity
_TEXT	ENDS
PUBLIC	??1?$_Container_base_aux_alloc_empty@V?$allocator@VCvTacticalUnit@@@std@@@std@@IAE@XZ ; std::_Container_base_aux_alloc_empty<std::allocator<CvTacticalUnit> >::~_Container_base_aux_alloc_empty<std::allocator<CvTacticalUnit> >
; Function compile flags: /Ogtpy
; File c:\program files (x86)\microsoft visual studio 9.0\vc\include\xutility
;	COMDAT ??1?$_Container_base_aux_alloc_empty@V?$allocator@VCvTacticalUnit@@@std@@@std@@IAE@XZ
_TEXT	SEGMENT
??1?$_Container_base_aux_alloc_empty@V?$allocator@VCvTacticalUnit@@@std@@@std@@IAE@XZ PROC ; std::_Container_base_aux_alloc_empty<std::allocator<CvTacticalUnit> >::~_Container_base_aux_alloc_empty<std::allocator<CvTacticalUnit> >, COMDAT
; _this$ = ecx

; 627  : 	~_Container_base_aux_alloc_empty() { }

	ret	0
??1?$_Container_base_aux_alloc_empty@V?$allocator@VCvTacticalUnit@@@std@@@std@@IAE@XZ ENDP ; std::_Container_base_aux_alloc_empty<std::allocator<CvTacticalUnit> >::~_Container_base_aux_alloc_empty<std::allocator<CvTacticalUnit> >
_TEXT	ENDS
PUBLIC	??0?$allocator@VCvTacticalUnit@@@std@@QAE@XZ	; std::allocator<CvTacticalUnit>::allocator<CvTacticalUnit>
; Function compile flags: /Ogtpy
; File c:\program files (x86)\microsoft visual studio 9.0\vc\include\xmemory
;	COMDAT ??0?$allocator@VCvTacticalUnit@@@std@@QAE@XZ
_TEXT	SEGMENT
??0?$allocator@VCvTacticalUnit@@@std@@QAE@XZ PROC	; std::allocator<CvTacticalUnit>::allocator<CvTacticalUnit>, COMDAT
; _this$ = ecx

; 119  : 	allocator() _THROW0()

	mov	eax, ecx

; 120  : 		{	// construct default allocator (do nothing)
; 121  : 		}

	ret	0
??0?$allocator@VCvTacticalUnit@@@std@@QAE@XZ ENDP	; std::allocator<CvTacticalUnit>::allocator<CvTacticalUnit>
_TEXT	ENDS
PUBLIC	?capacity@?$vector@VCvTacticalCity@@V?$allocator@VCvTacticalCity@@@std@@@std@@QBEIXZ ; std::vector<CvTacticalCity,std::allocator<CvTacticalCity> >::capacity
; Function compile flags: /Ogtpy
; File c:\program files (x86)\microsoft visual studio 9.0\vc\include\vector
;	COMDAT ?capacity@?$vector@VCvTacticalCity@@V?$allocator@VCvTacticalCity@@@std@@@std@@QBEIXZ
_TEXT	SEGMENT
?capacity@?$vector@VCvTacticalCity@@V?$allocator@VCvTacticalCity@@@std@@@std@@QBEIXZ PROC ; std::vector<CvTacticalCity,std::allocator<CvTacticalCity> >::capacity, COMDAT
; _this$ = ecx

; 635  : 		return (_Myfirst == 0 ? 0 : _Myend - _Myfirst);

	mov	eax, DWORD PTR [ecx+4]
	test	eax, eax
	jne	SHORT $LN3@capacity@2

; 636  : 		}

	ret	0
$LN3@capacity@2:

; 635  : 		return (_Myfirst == 0 ? 0 : _Myend - _Myfirst);

	mov	ecx, DWORD PTR [ecx+12]
	sub	ecx, eax
	mov	eax, 715827883				; 2aaaaaabH
	imul	ecx
	sar	edx, 1
	mov	eax, edx
	shr	eax, 31					; 0000001fH
	add	eax, edx

; 636  : 		}

	ret	0
?capacity@?$vector@VCvTacticalCity@@V?$allocator@VCvTacticalCity@@@std@@@std@@QBEIXZ ENDP ; std::vector<CvTacticalCity,std::allocator<CvTacticalCity> >::capacity
_TEXT	ENDS
PUBLIC	?getMOVE_DENOMINATOR@CvGlobals@@QAEHXZ		; CvGlobals::getMOVE_DENOMINATOR
; Function compile flags: /Ogtpy
; File c:\users\enormousapplepie\desktop\lekmod files\lekmod dll versions\v29\lekmod_dll\cvgamecoredll_expansion2\cvglobals.h
;	COMDAT ?getMOVE_DENOMINATOR@CvGlobals@@QAEHXZ
_TEXT	SEGMENT
?getMOVE_DENOMINATOR@CvGlobals@@QAEHXZ PROC		; CvGlobals::getMOVE_DENOMINATOR, COMDAT
; _this$ = ecx

; 5312 : 		return m_iMOVE_DENOMINATOR;

	mov	eax, DWORD PTR [ecx+6236]

; 5313 : 	}

	ret	0
?getMOVE_DENOMINATOR@CvGlobals@@QAEHXZ ENDP		; CvGlobals::getMOVE_DENOMINATOR
_TEXT	ENDS
PUBLIC	??1?$_Container_base_aux_alloc_empty@V?$allocator@VCvTacticalCity@@@std@@@std@@IAE@XZ ; std::_Container_base_aux_alloc_empty<std::allocator<CvTacticalCity> >::~_Container_base_aux_alloc_empty<std::allocator<CvTacticalCity> >
; Function compile flags: /Ogtpy
; File c:\program files (x86)\microsoft visual studio 9.0\vc\include\xutility
;	COMDAT ??1?$_Container_base_aux_alloc_empty@V?$allocator@VCvTacticalCity@@@std@@@std@@IAE@XZ
_TEXT	SEGMENT
??1?$_Container_base_aux_alloc_empty@V?$allocator@VCvTacticalCity@@@std@@@std@@IAE@XZ PROC ; std::_Container_base_aux_alloc_empty<std::allocator<CvTacticalCity> >::~_Container_base_aux_alloc_empty<std::allocator<CvTacticalCity> >, COMDAT
; _this$ = ecx

; 627  : 	~_Container_base_aux_alloc_empty() { }

	ret	0
??1?$_Container_base_aux_alloc_empty@V?$allocator@VCvTacticalCity@@@std@@@std@@IAE@XZ ENDP ; std::_Container_base_aux_alloc_empty<std::allocator<CvTacticalCity> >::~_Container_base_aux_alloc_empty<std::allocator<CvTacticalCity> >
_TEXT	ENDS
PUBLIC	??0?$allocator@VCvTacticalCity@@@std@@QAE@XZ	; std::allocator<CvTacticalCity>::allocator<CvTacticalCity>
; Function compile flags: /Ogtpy
; File c:\program files (x86)\microsoft visual studio 9.0\vc\include\xmemory
;	COMDAT ??0?$allocator@VCvTacticalCity@@@std@@QAE@XZ
_TEXT	SEGMENT
??0?$allocator@VCvTacticalCity@@@std@@QAE@XZ PROC	; std::allocator<CvTacticalCity>::allocator<CvTacticalCity>, COMDAT
; _this$ = ecx

; 119  : 	allocator() _THROW0()

	mov	eax, ecx

; 120  : 		{	// construct default allocator (do nothing)
; 121  : 		}

	ret	0
??0?$allocator@VCvTacticalCity@@@std@@QAE@XZ ENDP	; std::allocator<CvTacticalCity>::allocator<CvTacticalCity>
_TEXT	ENDS
PUBLIC	??_C@_0HM@IMGGMCHG@c?3?2users?2enormousapplepie?2deskto@ ; `string'
PUBLIC	?Alloc@?$FStaticVector@VCvTacticalMove@@$0BAA@$00$0BCJ@$0A@@@IAEPAVCvTacticalMove@@I@Z ; FStaticVector<CvTacticalMove,256,1,297,0>::Alloc
EXTRN	?FireMallocAlignedNoTracking@@YAPAXIIPBDH@Z:PROC ; FireMallocAlignedNoTracking
;	COMDAT ??_C@_0HM@IMGGMCHG@c?3?2users?2enormousapplepie?2deskto@
; File c:\users\enormousapplepie\desktop\lekmod files\lekmod dll versions\v29\lekmod_dll\fireplace\include\fireworks\ffastvector.h
CONST	SEGMENT
??_C@_0HM@IMGGMCHG@c?3?2users?2enormousapplepie?2deskto@ DB 'c:\users\eno'
	DB	'rmousapplepie\desktop\lekmod files\lekmod dll versions\v29\le'
	DB	'kmod_dll\fireplace\include\fireworks\FFastVector.h', 00H ; `string'
; Function compile flags: /Ogtpy
CONST	ENDS
;	COMDAT ?Alloc@?$FStaticVector@VCvTacticalMove@@$0BAA@$00$0BCJ@$0A@@@IAEPAVCvTacticalMove@@I@Z
_TEXT	SEGMENT
_uiSize$ = 8						; size = 4
?Alloc@?$FStaticVector@VCvTacticalMove@@$0BAA@$00$0BCJ@$0A@@@IAEPAVCvTacticalMove@@I@Z PROC ; FStaticVector<CvTacticalMove,256,1,297,0>::Alloc, COMDAT
; _this$ = ecx

; 795  : 	T* Alloc(unsigned int uiSize){

	push	esi
	push	edi

; 796  : 		T* pRet;
; 797  : 		if( uiSize > L ){

	mov	edi, DWORD PTR _uiSize$[esp+4]
	mov	esi, ecx
	cmp	edi, 256				; 00000100H
	jbe	SHORT $LN2@Alloc

; 798  : 			pRet = (T*)FMALLOCALIGNED( uiSize*sizeof(T), __alignof(T), AllocPool, nSubID );

	push	798					; 0000031eH
	push	OFFSET ??_C@_0HM@IMGGMCHG@c?3?2users?2enormousapplepie?2deskto@
	lea	eax, DWORD PTR [edi*8]
	push	4
	push	eax
	call	?FireMallocAlignedNoTracking@@YAPAXIIPBDH@Z ; FireMallocAlignedNoTracking
	add	esp, 16					; 00000010H

; 799  : 			m_uiCurrMaxSize = uiSize;

	mov	DWORD PTR [esi+8], edi
	pop	edi
	pop	esi

; 803  : 		}
; 804  : 		return pRet;
; 805  : 	};

	ret	4
$LN2@Alloc:
	pop	edi

; 800  : 		}else{
; 801  : 			pRet = (T*)m_aData;

	lea	eax, DWORD PTR [esi+12]

; 802  : 			m_uiCurrMaxSize = L;

	mov	DWORD PTR [esi+8], 256			; 00000100H
	pop	esi

; 803  : 		}
; 804  : 		return pRet;
; 805  : 	};

	ret	4
?Alloc@?$FStaticVector@VCvTacticalMove@@$0BAA@$00$0BCJ@$0A@@@IAEPAVCvTacticalMove@@I@Z ENDP ; FStaticVector<CvTacticalMove,256,1,297,0>::Alloc
_TEXT	ENDS
PUBLIC	??1?$BaseVector@VCvTacticalMove@@$00@@QAE@XZ	; BaseVector<CvTacticalMove,1>::~BaseVector<CvTacticalMove,1>
; Function compile flags: /Ogtpy
;	COMDAT ??1?$BaseVector@VCvTacticalMove@@$00@@QAE@XZ
_TEXT	SEGMENT
??1?$BaseVector@VCvTacticalMove@@$00@@QAE@XZ PROC	; BaseVector<CvTacticalMove,1>::~BaseVector<CvTacticalMove,1>, COMDAT
; _this$ = ecx

; 111  : 	~BaseVector(){};

	ret	0
??1?$BaseVector@VCvTacticalMove@@$00@@QAE@XZ ENDP	; BaseVector<CvTacticalMove,1>::~BaseVector<CvTacticalMove,1>
_TEXT	ENDS
PUBLIC	??0?$BaseVector@VCvTacticalMove@@$00@@IAE@XZ	; BaseVector<CvTacticalMove,1>::BaseVector<CvTacticalMove,1>
; Function compile flags: /Ogtpy
;	COMDAT ??0?$BaseVector@VCvTacticalMove@@$00@@IAE@XZ
_TEXT	SEGMENT
??0?$BaseVector@VCvTacticalMove@@$00@@IAE@XZ PROC	; BaseVector<CvTacticalMove,1>::BaseVector<CvTacticalMove,1>, COMDAT
; _this$ = ecx

; 216  : 	BaseVector() : m_uiCurrSize(0), m_uiCurrMaxSize(0), m_pData(NULL) {};

	mov	eax, ecx
	xor	ecx, ecx
	mov	DWORD PTR [eax], ecx
	mov	DWORD PTR [eax+4], ecx
	mov	DWORD PTR [eax+8], ecx
	ret	0
??0?$BaseVector@VCvTacticalMove@@$00@@IAE@XZ ENDP	; BaseVector<CvTacticalMove,1>::BaseVector<CvTacticalMove,1>
_TEXT	ENDS
PUBLIC	?Destroy@?$BaseVector@VCvTacticalMove@@$00@@IAEXPAVCvTacticalMove@@I@Z ; BaseVector<CvTacticalMove,1>::Destroy
; Function compile flags: /Ogtpy
;	COMDAT ?Destroy@?$BaseVector@VCvTacticalMove@@$00@@IAEXPAVCvTacticalMove@@I@Z
_TEXT	SEGMENT
_pVal$ = 8						; size = 4
_uiNumElements$ = 12					; size = 4
?Destroy@?$BaseVector@VCvTacticalMove@@$00@@IAEXPAVCvTacticalMove@@I@Z PROC ; BaseVector<CvTacticalMove,1>::Destroy, COMDAT
; _this$ = ecx

; 221  : 		if( !bPODType){
; 222  : 			for(unsigned int i = 0; i < uiNumElements; ++i){
; 223  : 				pVal[i].~T();
; 224  : 			}
; 225  : 		}
; 226  : 	};

	ret	8
?Destroy@?$BaseVector@VCvTacticalMove@@$00@@IAEXPAVCvTacticalMove@@I@Z ENDP ; BaseVector<CvTacticalMove,1>::Destroy
_TEXT	ENDS
PUBLIC	?_Nextnode@?$list@VCvQueuedAttack@@V?$allocator@VCvQueuedAttack@@@std@@@std@@KAAAPAU_Node@?$_List_nod@VCvQueuedAttack@@V?$allocator@VCvQueuedAttack@@@std@@@2@PAU342@@Z ; std::list<CvQueuedAttack,std::allocator<CvQueuedAttack> >::_Nextnode
; Function compile flags: /Ogtpy
; File c:\program files (x86)\microsoft visual studio 9.0\vc\include\list
;	COMDAT ?_Nextnode@?$list@VCvQueuedAttack@@V?$allocator@VCvQueuedAttack@@@std@@@std@@KAAAPAU_Node@?$_List_nod@VCvQueuedAttack@@V?$allocator@VCvQueuedAttack@@@std@@@2@PAU342@@Z
_TEXT	SEGMENT
__Pnode$ = 8						; size = 4
?_Nextnode@?$list@VCvQueuedAttack@@V?$allocator@VCvQueuedAttack@@@std@@@std@@KAAAPAU_Node@?$_List_nod@VCvQueuedAttack@@V?$allocator@VCvQueuedAttack@@@std@@@2@PAU342@@Z PROC ; std::list<CvQueuedAttack,std::allocator<CvQueuedAttack> >::_Nextnode, COMDAT

; 115  : 		return ((_Nodepref)(*_Pnode)._Next);

	mov	eax, DWORD PTR __Pnode$[esp-4]

; 116  : 		}

	ret	0
?_Nextnode@?$list@VCvQueuedAttack@@V?$allocator@VCvQueuedAttack@@@std@@@std@@KAAAPAU_Node@?$_List_nod@VCvQueuedAttack@@V?$allocator@VCvQueuedAttack@@@std@@@2@PAU342@@Z ENDP ; std::list<CvQueuedAttack,std::allocator<CvQueuedAttack> >::_Nextnode
_TEXT	ENDS
PUBLIC	?_Prevnode@?$list@VCvQueuedAttack@@V?$allocator@VCvQueuedAttack@@@std@@@std@@KAAAPAU_Node@?$_List_nod@VCvQueuedAttack@@V?$allocator@VCvQueuedAttack@@@std@@@2@PAU342@@Z ; std::list<CvQueuedAttack,std::allocator<CvQueuedAttack> >::_Prevnode
; Function compile flags: /Ogtpy
;	COMDAT ?_Prevnode@?$list@VCvQueuedAttack@@V?$allocator@VCvQueuedAttack@@@std@@@std@@KAAAPAU_Node@?$_List_nod@VCvQueuedAttack@@V?$allocator@VCvQueuedAttack@@@std@@@2@PAU342@@Z
_TEXT	SEGMENT
__Pnode$ = 8						; size = 4
?_Prevnode@?$list@VCvQueuedAttack@@V?$allocator@VCvQueuedAttack@@@std@@@std@@KAAAPAU_Node@?$_List_nod@VCvQueuedAttack@@V?$allocator@VCvQueuedAttack@@@std@@@2@PAU342@@Z PROC ; std::list<CvQueuedAttack,std::allocator<CvQueuedAttack> >::_Prevnode, COMDAT

; 120  : 		return ((_Nodepref)(*_Pnode)._Prev);

	mov	eax, DWORD PTR __Pnode$[esp-4]
	add	eax, 4

; 121  : 		}

	ret	0
?_Prevnode@?$list@VCvQueuedAttack@@V?$allocator@VCvQueuedAttack@@@std@@@std@@KAAAPAU_Node@?$_List_nod@VCvQueuedAttack@@V?$allocator@VCvQueuedAttack@@@std@@@2@PAU342@@Z ENDP ; std::list<CvQueuedAttack,std::allocator<CvQueuedAttack> >::_Prevnode
_TEXT	ENDS
PUBLIC	??1?$_Container_base_aux_alloc_empty@V?$allocator@VCvQueuedAttack@@@std@@@std@@IAE@XZ ; std::_Container_base_aux_alloc_empty<std::allocator<CvQueuedAttack> >::~_Container_base_aux_alloc_empty<std::allocator<CvQueuedAttack> >
; Function compile flags: /Ogtpy
; File c:\program files (x86)\microsoft visual studio 9.0\vc\include\xutility
;	COMDAT ??1?$_Container_base_aux_alloc_empty@V?$allocator@VCvQueuedAttack@@@std@@@std@@IAE@XZ
_TEXT	SEGMENT
??1?$_Container_base_aux_alloc_empty@V?$allocator@VCvQueuedAttack@@@std@@@std@@IAE@XZ PROC ; std::_Container_base_aux_alloc_empty<std::allocator<CvQueuedAttack> >::~_Container_base_aux_alloc_empty<std::allocator<CvQueuedAttack> >, COMDAT
; _this$ = ecx

; 627  : 	~_Container_base_aux_alloc_empty() { }

	ret	0
??1?$_Container_base_aux_alloc_empty@V?$allocator@VCvQueuedAttack@@@std@@@std@@IAE@XZ ENDP ; std::_Container_base_aux_alloc_empty<std::allocator<CvQueuedAttack> >::~_Container_base_aux_alloc_empty<std::allocator<CvQueuedAttack> >
_TEXT	ENDS
PUBLIC	??0?$allocator@VCvQueuedAttack@@@std@@QAE@XZ	; std::allocator<CvQueuedAttack>::allocator<CvQueuedAttack>
; Function compile flags: /Ogtpy
; File c:\program files (x86)\microsoft visual studio 9.0\vc\include\xmemory
;	COMDAT ??0?$allocator@VCvQueuedAttack@@@std@@QAE@XZ
_TEXT	SEGMENT
??0?$allocator@VCvQueuedAttack@@@std@@QAE@XZ PROC	; std::allocator<CvQueuedAttack>::allocator<CvQueuedAttack>, COMDAT
; _this$ = ecx

; 119  : 	allocator() _THROW0()

	mov	eax, ecx

; 120  : 		{	// construct default allocator (do nothing)
; 121  : 		}

	ret	0
??0?$allocator@VCvQueuedAttack@@@std@@QAE@XZ ENDP	; std::allocator<CvQueuedAttack>::allocator<CvQueuedAttack>
_TEXT	ENDS
PUBLIC	?deallocate@?$allocator@U_Node@?$_List_nod@VCvQueuedAttack@@V?$allocator@VCvQueuedAttack@@@std@@@std@@@std@@QAEXPAU_Node@?$_List_nod@VCvQueuedAttack@@V?$allocator@VCvQueuedAttack@@@std@@@2@I@Z ; std::allocator<std::_List_nod<CvQueuedAttack,std::allocator<CvQueuedAttack> >::_Node>::deallocate
; Function compile flags: /Ogtpy
;	COMDAT ?deallocate@?$allocator@U_Node@?$_List_nod@VCvQueuedAttack@@V?$allocator@VCvQueuedAttack@@@std@@@std@@@std@@QAEXPAU_Node@?$_List_nod@VCvQueuedAttack@@V?$allocator@VCvQueuedAttack@@@std@@@2@I@Z
_TEXT	SEGMENT
__Ptr$ = 8						; size = 4
___formal$ = 12						; size = 4
?deallocate@?$allocator@U_Node@?$_List_nod@VCvQueuedAttack@@V?$allocator@VCvQueuedAttack@@@std@@@std@@@std@@QAEXPAU_Node@?$_List_nod@VCvQueuedAttack@@V?$allocator@VCvQueuedAttack@@@std@@@2@I@Z PROC ; std::allocator<std::_List_nod<CvQueuedAttack,std::allocator<CvQueuedAttack> >::_Node>::deallocate, COMDAT
; _this$ = ecx

; 140  : 		::operator delete(_Ptr);

	mov	eax, DWORD PTR __Ptr$[esp-4]
	push	eax
	call	??3@YAXPAX@Z				; operator delete
	pop	ecx

; 141  : 		}

	ret	8
?deallocate@?$allocator@U_Node@?$_List_nod@VCvQueuedAttack@@V?$allocator@VCvQueuedAttack@@@std@@@std@@@std@@QAEXPAU_Node@?$_List_nod@VCvQueuedAttack@@V?$allocator@VCvQueuedAttack@@@std@@@2@I@Z ENDP ; std::allocator<std::_List_nod<CvQueuedAttack,std::allocator<CvQueuedAttack> >::_Node>::deallocate
_TEXT	ENDS
PUBLIC	?Alloc@?$FStaticVector@VCvTacticalTarget@@$0BAA@$0A@$0BCJ@$0A@@@IAEPAVCvTacticalTarget@@I@Z ; FStaticVector<CvTacticalTarget,256,0,297,0>::Alloc
; Function compile flags: /Ogtpy
; File c:\users\enormousapplepie\desktop\lekmod files\lekmod dll versions\v29\lekmod_dll\fireplace\include\fireworks\ffastvector.h
;	COMDAT ?Alloc@?$FStaticVector@VCvTacticalTarget@@$0BAA@$0A@$0BCJ@$0A@@@IAEPAVCvTacticalTarget@@I@Z
_TEXT	SEGMENT
_uiSize$ = 8						; size = 4
?Alloc@?$FStaticVector@VCvTacticalTarget@@$0BAA@$0A@$0BCJ@$0A@@@IAEPAVCvTacticalTarget@@I@Z PROC ; FStaticVector<CvTacticalTarget,256,0,297,0>::Alloc, COMDAT
; _this$ = ecx

; 795  : 	T* Alloc(unsigned int uiSize){

	push	esi
	push	edi

; 796  : 		T* pRet;
; 797  : 		if( uiSize > L ){

	mov	edi, DWORD PTR _uiSize$[esp+4]
	mov	esi, ecx
	cmp	edi, 256				; 00000100H
	jbe	SHORT $LN2@Alloc@2

; 798  : 			pRet = (T*)FMALLOCALIGNED( uiSize*sizeof(T), __alignof(T), AllocPool, nSubID );

	push	798					; 0000031eH
	lea	eax, DWORD PTR [edi*8]
	sub	eax, edi
	push	OFFSET ??_C@_0HM@IMGGMCHG@c?3?2users?2enormousapplepie?2deskto@
	add	eax, eax
	add	eax, eax
	push	4
	push	eax
	call	?FireMallocAlignedNoTracking@@YAPAXIIPBDH@Z ; FireMallocAlignedNoTracking
	add	esp, 16					; 00000010H

; 799  : 			m_uiCurrMaxSize = uiSize;

	mov	DWORD PTR [esi+8], edi
	pop	edi
	pop	esi

; 803  : 		}
; 804  : 		return pRet;
; 805  : 	};

	ret	4
$LN2@Alloc@2:
	pop	edi

; 800  : 		}else{
; 801  : 			pRet = (T*)m_aData;

	lea	eax, DWORD PTR [esi+12]

; 802  : 			m_uiCurrMaxSize = L;

	mov	DWORD PTR [esi+8], 256			; 00000100H
	pop	esi

; 803  : 		}
; 804  : 		return pRet;
; 805  : 	};

	ret	4
?Alloc@?$FStaticVector@VCvTacticalTarget@@$0BAA@$0A@$0BCJ@$0A@@@IAEPAVCvTacticalTarget@@I@Z ENDP ; FStaticVector<CvTacticalTarget,256,0,297,0>::Alloc
_TEXT	ENDS
PUBLIC	??1?$BaseVector@VCvTacticalTarget@@$0A@@@QAE@XZ	; BaseVector<CvTacticalTarget,0>::~BaseVector<CvTacticalTarget,0>
; Function compile flags: /Ogtpy
;	COMDAT ??1?$BaseVector@VCvTacticalTarget@@$0A@@@QAE@XZ
_TEXT	SEGMENT
??1?$BaseVector@VCvTacticalTarget@@$0A@@@QAE@XZ PROC	; BaseVector<CvTacticalTarget,0>::~BaseVector<CvTacticalTarget,0>, COMDAT
; _this$ = ecx

; 111  : 	~BaseVector(){};

	ret	0
??1?$BaseVector@VCvTacticalTarget@@$0A@@@QAE@XZ ENDP	; BaseVector<CvTacticalTarget,0>::~BaseVector<CvTacticalTarget,0>
_TEXT	ENDS
PUBLIC	??0?$BaseVector@VCvTacticalTarget@@$0A@@@IAE@XZ	; BaseVector<CvTacticalTarget,0>::BaseVector<CvTacticalTarget,0>
; Function compile flags: /Ogtpy
;	COMDAT ??0?$BaseVector@VCvTacticalTarget@@$0A@@@IAE@XZ
_TEXT	SEGMENT
??0?$BaseVector@VCvTacticalTarget@@$0A@@@IAE@XZ PROC	; BaseVector<CvTacticalTarget,0>::BaseVector<CvTacticalTarget,0>, COMDAT
; _this$ = ecx

; 216  : 	BaseVector() : m_uiCurrSize(0), m_uiCurrMaxSize(0), m_pData(NULL) {};

	mov	eax, ecx
	xor	ecx, ecx
	mov	DWORD PTR [eax], ecx
	mov	DWORD PTR [eax+4], ecx
	mov	DWORD PTR [eax+8], ecx
	ret	0
??0?$BaseVector@VCvTacticalTarget@@$0A@@@IAE@XZ ENDP	; BaseVector<CvTacticalTarget,0>::BaseVector<CvTacticalTarget,0>
_TEXT	ENDS
PUBLIC	?Destroy@?$BaseVector@VCvTacticalTarget@@$0A@@@IAEXPAVCvTacticalTarget@@I@Z ; BaseVector<CvTacticalTarget,0>::Destroy
; Function compile flags: /Ogtpy
;	COMDAT ?Destroy@?$BaseVector@VCvTacticalTarget@@$0A@@@IAEXPAVCvTacticalTarget@@I@Z
_TEXT	SEGMENT
_pVal$ = 8						; size = 4
_uiNumElements$ = 12					; size = 4
?Destroy@?$BaseVector@VCvTacticalTarget@@$0A@@@IAEXPAVCvTacticalTarget@@I@Z PROC ; BaseVector<CvTacticalTarget,0>::Destroy, COMDAT
; _this$ = ecx

; 221  : 		if( !bPODType){
; 222  : 			for(unsigned int i = 0; i < uiNumElements; ++i){
; 223  : 				pVal[i].~T();
; 224  : 			}
; 225  : 		}
; 226  : 	};

	ret	8
?Destroy@?$BaseVector@VCvTacticalTarget@@$0A@@@IAEXPAVCvTacticalTarget@@I@Z ENDP ; BaseVector<CvTacticalTarget,0>::Destroy
_TEXT	ENDS
PUBLIC	?Copy@?$BaseVector@VCvTacticalTarget@@$0A@@@IAEXABV1@@Z ; BaseVector<CvTacticalTarget,0>::Copy
; Function compile flags: /Ogtpy
;	COMDAT ?Copy@?$BaseVector@VCvTacticalTarget@@$0A@@@IAEXABV1@@Z
_TEXT	SEGMENT
_RHS$ = 8						; size = 4
?Copy@?$BaseVector@VCvTacticalTarget@@$0A@@@IAEXABV1@@Z PROC ; BaseVector<CvTacticalTarget,0>::Copy, COMDAT
; _this$ = ecx

; 229  : 	void Copy(const THIS_TYPE& RHS){

	push	ebx
	push	ebp

; 230  : 		m_uiCurrSize = RHS.m_uiCurrSize;

	mov	ebp, DWORD PTR _RHS$[esp+4]
	mov	eax, DWORD PTR [ebp+4]
	mov	edx, ecx

; 231  : 		if( bPODType ){
; 232  : 			memcpy( (void*)m_pData, (void*)RHS.m_pData, sizeof(T)*RHS.m_uiCurrSize);
; 233  : 		}else{
; 234  : 			for(unsigned int i = 0; i < m_uiCurrSize; ++i){

	xor	ebx, ebx
	mov	DWORD PTR [edx+4], eax
	test	eax, eax
	jbe	SHORT $LN1@Copy
	push	esi
	xor	eax, eax
	push	edi
$LL3@Copy:

; 235  : 				new( (void*)&m_pData[i] )T( RHS.m_pData[i] );

	mov	edi, DWORD PTR [edx]
	add	edi, eax
	je	SHORT $LN2@Copy
	mov	esi, DWORD PTR [ebp]
	add	esi, eax
	mov	ecx, 7
	rep movsd
$LN2@Copy:
	inc	ebx
	add	eax, 28					; 0000001cH
	cmp	ebx, DWORD PTR [edx+4]
	jb	SHORT $LL3@Copy
	pop	edi
	pop	esi
$LN1@Copy:
	pop	ebp
	pop	ebx

; 236  : 			}
; 237  : 		}
; 238  : 	};

	ret	4
?Copy@?$BaseVector@VCvTacticalTarget@@$0A@@@IAEXABV1@@Z ENDP ; BaseVector<CvTacticalTarget,0>::Copy
_TEXT	ENDS
PUBLIC	?Alloc@?$FStaticVector@VCvTacticalTarget@@$0CF@$00$0BCJ@$0A@@@IAEPAVCvTacticalTarget@@I@Z ; FStaticVector<CvTacticalTarget,37,1,297,0>::Alloc
; Function compile flags: /Ogtpy
;	COMDAT ?Alloc@?$FStaticVector@VCvTacticalTarget@@$0CF@$00$0BCJ@$0A@@@IAEPAVCvTacticalTarget@@I@Z
_TEXT	SEGMENT
_uiSize$ = 8						; size = 4
?Alloc@?$FStaticVector@VCvTacticalTarget@@$0CF@$00$0BCJ@$0A@@@IAEPAVCvTacticalTarget@@I@Z PROC ; FStaticVector<CvTacticalTarget,37,1,297,0>::Alloc, COMDAT
; _this$ = ecx

; 795  : 	T* Alloc(unsigned int uiSize){

	push	esi
	push	edi

; 796  : 		T* pRet;
; 797  : 		if( uiSize > L ){

	mov	edi, DWORD PTR _uiSize$[esp+4]
	mov	esi, ecx
	cmp	edi, 37					; 00000025H
	jbe	SHORT $LN2@Alloc@3

; 798  : 			pRet = (T*)FMALLOCALIGNED( uiSize*sizeof(T), __alignof(T), AllocPool, nSubID );

	push	798					; 0000031eH
	lea	eax, DWORD PTR [edi*8]
	sub	eax, edi
	push	OFFSET ??_C@_0HM@IMGGMCHG@c?3?2users?2enormousapplepie?2deskto@
	add	eax, eax
	add	eax, eax
	push	4
	push	eax
	call	?FireMallocAlignedNoTracking@@YAPAXIIPBDH@Z ; FireMallocAlignedNoTracking
	add	esp, 16					; 00000010H

; 799  : 			m_uiCurrMaxSize = uiSize;

	mov	DWORD PTR [esi+8], edi
	pop	edi
	pop	esi

; 803  : 		}
; 804  : 		return pRet;
; 805  : 	};

	ret	4
$LN2@Alloc@3:
	pop	edi

; 800  : 		}else{
; 801  : 			pRet = (T*)m_aData;

	lea	eax, DWORD PTR [esi+12]

; 802  : 			m_uiCurrMaxSize = L;

	mov	DWORD PTR [esi+8], 37			; 00000025H
	pop	esi

; 803  : 		}
; 804  : 		return pRet;
; 805  : 	};

	ret	4
?Alloc@?$FStaticVector@VCvTacticalTarget@@$0CF@$00$0BCJ@$0A@@@IAEPAVCvTacticalTarget@@I@Z ENDP ; FStaticVector<CvTacticalTarget,37,1,297,0>::Alloc
_TEXT	ENDS
PUBLIC	??1?$BaseVector@VCvTacticalTarget@@$00@@QAE@XZ	; BaseVector<CvTacticalTarget,1>::~BaseVector<CvTacticalTarget,1>
; Function compile flags: /Ogtpy
;	COMDAT ??1?$BaseVector@VCvTacticalTarget@@$00@@QAE@XZ
_TEXT	SEGMENT
??1?$BaseVector@VCvTacticalTarget@@$00@@QAE@XZ PROC	; BaseVector<CvTacticalTarget,1>::~BaseVector<CvTacticalTarget,1>, COMDAT
; _this$ = ecx

; 111  : 	~BaseVector(){};

	ret	0
??1?$BaseVector@VCvTacticalTarget@@$00@@QAE@XZ ENDP	; BaseVector<CvTacticalTarget,1>::~BaseVector<CvTacticalTarget,1>
_TEXT	ENDS
PUBLIC	??0?$BaseVector@VCvTacticalTarget@@$00@@IAE@XZ	; BaseVector<CvTacticalTarget,1>::BaseVector<CvTacticalTarget,1>
; Function compile flags: /Ogtpy
;	COMDAT ??0?$BaseVector@VCvTacticalTarget@@$00@@IAE@XZ
_TEXT	SEGMENT
??0?$BaseVector@VCvTacticalTarget@@$00@@IAE@XZ PROC	; BaseVector<CvTacticalTarget,1>::BaseVector<CvTacticalTarget,1>, COMDAT
; _this$ = ecx

; 216  : 	BaseVector() : m_uiCurrSize(0), m_uiCurrMaxSize(0), m_pData(NULL) {};

	mov	eax, ecx
	xor	ecx, ecx
	mov	DWORD PTR [eax], ecx
	mov	DWORD PTR [eax+4], ecx
	mov	DWORD PTR [eax+8], ecx
	ret	0
??0?$BaseVector@VCvTacticalTarget@@$00@@IAE@XZ ENDP	; BaseVector<CvTacticalTarget,1>::BaseVector<CvTacticalTarget,1>
_TEXT	ENDS
PUBLIC	?Destroy@?$BaseVector@VCvTacticalTarget@@$00@@IAEXPAVCvTacticalTarget@@I@Z ; BaseVector<CvTacticalTarget,1>::Destroy
; Function compile flags: /Ogtpy
;	COMDAT ?Destroy@?$BaseVector@VCvTacticalTarget@@$00@@IAEXPAVCvTacticalTarget@@I@Z
_TEXT	SEGMENT
_pVal$ = 8						; size = 4
_uiNumElements$ = 12					; size = 4
?Destroy@?$BaseVector@VCvTacticalTarget@@$00@@IAEXPAVCvTacticalTarget@@I@Z PROC ; BaseVector<CvTacticalTarget,1>::Destroy, COMDAT
; _this$ = ecx

; 221  : 		if( !bPODType){
; 222  : 			for(unsigned int i = 0; i < uiNumElements; ++i){
; 223  : 				pVal[i].~T();
; 224  : 			}
; 225  : 		}
; 226  : 	};

	ret	8
?Destroy@?$BaseVector@VCvTacticalTarget@@$00@@IAEXPAVCvTacticalTarget@@I@Z ENDP ; BaseVector<CvTacticalTarget,1>::Destroy
_TEXT	ENDS
PUBLIC	?Alloc@?$FStaticVector@VCvTacticalPosture@@$0EA@$00$0BCJ@$0A@@@IAEPAVCvTacticalPosture@@I@Z ; FStaticVector<CvTacticalPosture,64,1,297,0>::Alloc
; Function compile flags: /Ogtpy
;	COMDAT ?Alloc@?$FStaticVector@VCvTacticalPosture@@$0EA@$00$0BCJ@$0A@@@IAEPAVCvTacticalPosture@@I@Z
_TEXT	SEGMENT
_uiSize$ = 8						; size = 4
?Alloc@?$FStaticVector@VCvTacticalPosture@@$0EA@$00$0BCJ@$0A@@@IAEPAVCvTacticalPosture@@I@Z PROC ; FStaticVector<CvTacticalPosture,64,1,297,0>::Alloc, COMDAT
; _this$ = ecx

; 795  : 	T* Alloc(unsigned int uiSize){

	push	esi
	push	edi

; 796  : 		T* pRet;
; 797  : 		if( uiSize > L ){

	mov	edi, DWORD PTR _uiSize$[esp+4]
	mov	esi, ecx
	cmp	edi, 64					; 00000040H
	jbe	SHORT $LN2@Alloc@4

; 798  : 			pRet = (T*)FMALLOCALIGNED( uiSize*sizeof(T), __alignof(T), AllocPool, nSubID );

	push	798					; 0000031eH
	lea	eax, DWORD PTR [edi+edi*2]
	push	OFFSET ??_C@_0HM@IMGGMCHG@c?3?2users?2enormousapplepie?2deskto@
	add	eax, eax
	add	eax, eax
	push	4
	push	eax
	call	?FireMallocAlignedNoTracking@@YAPAXIIPBDH@Z ; FireMallocAlignedNoTracking
	add	esp, 16					; 00000010H

; 799  : 			m_uiCurrMaxSize = uiSize;

	mov	DWORD PTR [esi+8], edi
	pop	edi
	pop	esi

; 803  : 		}
; 804  : 		return pRet;
; 805  : 	};

	ret	4
$LN2@Alloc@4:
	pop	edi

; 800  : 		}else{
; 801  : 			pRet = (T*)m_aData;

	lea	eax, DWORD PTR [esi+12]

; 802  : 			m_uiCurrMaxSize = L;

	mov	DWORD PTR [esi+8], 64			; 00000040H
	pop	esi

; 803  : 		}
; 804  : 		return pRet;
; 805  : 	};

	ret	4
?Alloc@?$FStaticVector@VCvTacticalPosture@@$0EA@$00$0BCJ@$0A@@@IAEPAVCvTacticalPosture@@I@Z ENDP ; FStaticVector<CvTacticalPosture,64,1,297,0>::Alloc
_TEXT	ENDS
PUBLIC	??1?$BaseVector@VCvTacticalPosture@@$00@@QAE@XZ	; BaseVector<CvTacticalPosture,1>::~BaseVector<CvTacticalPosture,1>
; Function compile flags: /Ogtpy
;	COMDAT ??1?$BaseVector@VCvTacticalPosture@@$00@@QAE@XZ
_TEXT	SEGMENT
??1?$BaseVector@VCvTacticalPosture@@$00@@QAE@XZ PROC	; BaseVector<CvTacticalPosture,1>::~BaseVector<CvTacticalPosture,1>, COMDAT
; _this$ = ecx

; 111  : 	~BaseVector(){};

	ret	0
??1?$BaseVector@VCvTacticalPosture@@$00@@QAE@XZ ENDP	; BaseVector<CvTacticalPosture,1>::~BaseVector<CvTacticalPosture,1>
_TEXT	ENDS
PUBLIC	??0?$BaseVector@VCvTacticalPosture@@$00@@IAE@XZ	; BaseVector<CvTacticalPosture,1>::BaseVector<CvTacticalPosture,1>
; Function compile flags: /Ogtpy
;	COMDAT ??0?$BaseVector@VCvTacticalPosture@@$00@@IAE@XZ
_TEXT	SEGMENT
??0?$BaseVector@VCvTacticalPosture@@$00@@IAE@XZ PROC	; BaseVector<CvTacticalPosture,1>::BaseVector<CvTacticalPosture,1>, COMDAT
; _this$ = ecx

; 216  : 	BaseVector() : m_uiCurrSize(0), m_uiCurrMaxSize(0), m_pData(NULL) {};

	mov	eax, ecx
	xor	ecx, ecx
	mov	DWORD PTR [eax], ecx
	mov	DWORD PTR [eax+4], ecx
	mov	DWORD PTR [eax+8], ecx
	ret	0
??0?$BaseVector@VCvTacticalPosture@@$00@@IAE@XZ ENDP	; BaseVector<CvTacticalPosture,1>::BaseVector<CvTacticalPosture,1>
_TEXT	ENDS
PUBLIC	?Destroy@?$BaseVector@VCvTacticalPosture@@$00@@IAEXPAVCvTacticalPosture@@I@Z ; BaseVector<CvTacticalPosture,1>::Destroy
; Function compile flags: /Ogtpy
;	COMDAT ?Destroy@?$BaseVector@VCvTacticalPosture@@$00@@IAEXPAVCvTacticalPosture@@I@Z
_TEXT	SEGMENT
_pVal$ = 8						; size = 4
_uiNumElements$ = 12					; size = 4
?Destroy@?$BaseVector@VCvTacticalPosture@@$00@@IAEXPAVCvTacticalPosture@@I@Z PROC ; BaseVector<CvTacticalPosture,1>::Destroy, COMDAT
; _this$ = ecx

; 221  : 		if( !bPODType){
; 222  : 			for(unsigned int i = 0; i < uiNumElements; ++i){
; 223  : 				pVal[i].~T();
; 224  : 			}
; 225  : 		}
; 226  : 	};

	ret	8
?Destroy@?$BaseVector@VCvTacticalPosture@@$00@@IAEXPAVCvTacticalPosture@@I@Z ENDP ; BaseVector<CvTacticalPosture,1>::Destroy
_TEXT	ENDS
PUBLIC	?Copy@?$BaseVector@VCvTacticalPosture@@$00@@IAEXABV1@@Z ; BaseVector<CvTacticalPosture,1>::Copy
EXTRN	_memcpy:PROC
; Function compile flags: /Ogtpy
;	COMDAT ?Copy@?$BaseVector@VCvTacticalPosture@@$00@@IAEXABV1@@Z
_TEXT	SEGMENT
_RHS$ = 8						; size = 4
?Copy@?$BaseVector@VCvTacticalPosture@@$00@@IAEXABV1@@Z PROC ; BaseVector<CvTacticalPosture,1>::Copy, COMDAT
; _this$ = ecx

; 230  : 		m_uiCurrSize = RHS.m_uiCurrSize;

	mov	eax, DWORD PTR _RHS$[esp-4]
	mov	edx, DWORD PTR [eax+4]
	mov	DWORD PTR [ecx+4], edx

; 231  : 		if( bPODType ){
; 232  : 			memcpy( (void*)m_pData, (void*)RHS.m_pData, sizeof(T)*RHS.m_uiCurrSize);

	mov	edx, DWORD PTR [eax+4]
	mov	eax, DWORD PTR [eax]
	mov	ecx, DWORD PTR [ecx]
	lea	edx, DWORD PTR [edx+edx*2]
	add	edx, edx
	add	edx, edx
	push	edx
	push	eax
	push	ecx
	call	_memcpy
	add	esp, 12					; 0000000cH

; 233  : 		}else{
; 234  : 			for(unsigned int i = 0; i < m_uiCurrSize; ++i){
; 235  : 				new( (void*)&m_pData[i] )T( RHS.m_pData[i] );
; 236  : 			}
; 237  : 		}
; 238  : 	};

	ret	4
?Copy@?$BaseVector@VCvTacticalPosture@@$00@@IAEXABV1@@Z ENDP ; BaseVector<CvTacticalPosture,1>::Copy
_TEXT	ENDS
PUBLIC	?Alloc@?$FStaticVector@VCvTemporaryZone@@$09$00$0BCJ@$0A@@@IAEPAVCvTemporaryZone@@I@Z ; FStaticVector<CvTemporaryZone,10,1,297,0>::Alloc
; Function compile flags: /Ogtpy
;	COMDAT ?Alloc@?$FStaticVector@VCvTemporaryZone@@$09$00$0BCJ@$0A@@@IAEPAVCvTemporaryZone@@I@Z
_TEXT	SEGMENT
_uiSize$ = 8						; size = 4
?Alloc@?$FStaticVector@VCvTemporaryZone@@$09$00$0BCJ@$0A@@@IAEPAVCvTemporaryZone@@I@Z PROC ; FStaticVector<CvTemporaryZone,10,1,297,0>::Alloc, COMDAT
; _this$ = ecx

; 795  : 	T* Alloc(unsigned int uiSize){

	push	esi
	push	edi

; 796  : 		T* pRet;
; 797  : 		if( uiSize > L ){

	mov	edi, DWORD PTR _uiSize$[esp+4]
	mov	esi, ecx
	cmp	edi, 10					; 0000000aH
	jbe	SHORT $LN2@Alloc@5

; 798  : 			pRet = (T*)FMALLOCALIGNED( uiSize*sizeof(T), __alignof(T), AllocPool, nSubID );

	push	798					; 0000031eH
	lea	eax, DWORD PTR [edi+edi*4]
	push	OFFSET ??_C@_0HM@IMGGMCHG@c?3?2users?2enormousapplepie?2deskto@
	add	eax, eax
	add	eax, eax
	push	4
	push	eax
	call	?FireMallocAlignedNoTracking@@YAPAXIIPBDH@Z ; FireMallocAlignedNoTracking
	add	esp, 16					; 00000010H

; 799  : 			m_uiCurrMaxSize = uiSize;

	mov	DWORD PTR [esi+8], edi
	pop	edi
	pop	esi

; 803  : 		}
; 804  : 		return pRet;
; 805  : 	};

	ret	4
$LN2@Alloc@5:
	pop	edi

; 800  : 		}else{
; 801  : 			pRet = (T*)m_aData;

	lea	eax, DWORD PTR [esi+12]

; 802  : 			m_uiCurrMaxSize = L;

	mov	DWORD PTR [esi+8], 10			; 0000000aH
	pop	esi

; 803  : 		}
; 804  : 		return pRet;
; 805  : 	};

	ret	4
?Alloc@?$FStaticVector@VCvTemporaryZone@@$09$00$0BCJ@$0A@@@IAEPAVCvTemporaryZone@@I@Z ENDP ; FStaticVector<CvTemporaryZone,10,1,297,0>::Alloc
_TEXT	ENDS
PUBLIC	??1?$BaseVector@VCvTemporaryZone@@$00@@QAE@XZ	; BaseVector<CvTemporaryZone,1>::~BaseVector<CvTemporaryZone,1>
; Function compile flags: /Ogtpy
;	COMDAT ??1?$BaseVector@VCvTemporaryZone@@$00@@QAE@XZ
_TEXT	SEGMENT
??1?$BaseVector@VCvTemporaryZone@@$00@@QAE@XZ PROC	; BaseVector<CvTemporaryZone,1>::~BaseVector<CvTemporaryZone,1>, COMDAT
; _this$ = ecx

; 111  : 	~BaseVector(){};

	ret	0
??1?$BaseVector@VCvTemporaryZone@@$00@@QAE@XZ ENDP	; BaseVector<CvTemporaryZone,1>::~BaseVector<CvTemporaryZone,1>
_TEXT	ENDS
PUBLIC	??0?$BaseVector@VCvTemporaryZone@@$00@@IAE@XZ	; BaseVector<CvTemporaryZone,1>::BaseVector<CvTemporaryZone,1>
; Function compile flags: /Ogtpy
;	COMDAT ??0?$BaseVector@VCvTemporaryZone@@$00@@IAE@XZ
_TEXT	SEGMENT
??0?$BaseVector@VCvTemporaryZone@@$00@@IAE@XZ PROC	; BaseVector<CvTemporaryZone,1>::BaseVector<CvTemporaryZone,1>, COMDAT
; _this$ = ecx

; 216  : 	BaseVector() : m_uiCurrSize(0), m_uiCurrMaxSize(0), m_pData(NULL) {};

	mov	eax, ecx
	xor	ecx, ecx
	mov	DWORD PTR [eax], ecx
	mov	DWORD PTR [eax+4], ecx
	mov	DWORD PTR [eax+8], ecx
	ret	0
??0?$BaseVector@VCvTemporaryZone@@$00@@IAE@XZ ENDP	; BaseVector<CvTemporaryZone,1>::BaseVector<CvTemporaryZone,1>
_TEXT	ENDS
PUBLIC	?Destroy@?$BaseVector@VCvTemporaryZone@@$00@@IAEXPAVCvTemporaryZone@@I@Z ; BaseVector<CvTemporaryZone,1>::Destroy
; Function compile flags: /Ogtpy
;	COMDAT ?Destroy@?$BaseVector@VCvTemporaryZone@@$00@@IAEXPAVCvTemporaryZone@@I@Z
_TEXT	SEGMENT
_pVal$ = 8						; size = 4
_uiNumElements$ = 12					; size = 4
?Destroy@?$BaseVector@VCvTemporaryZone@@$00@@IAEXPAVCvTemporaryZone@@I@Z PROC ; BaseVector<CvTemporaryZone,1>::Destroy, COMDAT
; _this$ = ecx

; 221  : 		if( !bPODType){
; 222  : 			for(unsigned int i = 0; i < uiNumElements; ++i){
; 223  : 				pVal[i].~T();
; 224  : 			}
; 225  : 		}
; 226  : 	};

	ret	8
?Destroy@?$BaseVector@VCvTemporaryZone@@$00@@IAEXPAVCvTemporaryZone@@I@Z ENDP ; BaseVector<CvTemporaryZone,1>::Destroy
_TEXT	ENDS
PUBLIC	?Copy@?$BaseVector@VCvTemporaryZone@@$00@@IAEXABV1@@Z ; BaseVector<CvTemporaryZone,1>::Copy
; Function compile flags: /Ogtpy
;	COMDAT ?Copy@?$BaseVector@VCvTemporaryZone@@$00@@IAEXABV1@@Z
_TEXT	SEGMENT
_RHS$ = 8						; size = 4
?Copy@?$BaseVector@VCvTemporaryZone@@$00@@IAEXABV1@@Z PROC ; BaseVector<CvTemporaryZone,1>::Copy, COMDAT
; _this$ = ecx

; 230  : 		m_uiCurrSize = RHS.m_uiCurrSize;

	mov	eax, DWORD PTR _RHS$[esp-4]
	mov	edx, DWORD PTR [eax+4]
	mov	DWORD PTR [ecx+4], edx

; 231  : 		if( bPODType ){
; 232  : 			memcpy( (void*)m_pData, (void*)RHS.m_pData, sizeof(T)*RHS.m_uiCurrSize);

	mov	edx, DWORD PTR [eax+4]
	mov	eax, DWORD PTR [eax]
	mov	ecx, DWORD PTR [ecx]
	lea	edx, DWORD PTR [edx+edx*4]
	add	edx, edx
	add	edx, edx
	push	edx
	push	eax
	push	ecx
	call	_memcpy
	add	esp, 12					; 0000000cH

; 233  : 		}else{
; 234  : 			for(unsigned int i = 0; i < m_uiCurrSize; ++i){
; 235  : 				new( (void*)&m_pData[i] )T( RHS.m_pData[i] );
; 236  : 			}
; 237  : 		}
; 238  : 	};

	ret	4
?Copy@?$BaseVector@VCvTemporaryZone@@$00@@IAEXABV1@@Z ENDP ; BaseVector<CvTemporaryZone,1>::Copy
_TEXT	ENDS
PUBLIC	?Alloc@?$FStaticVector@VCvBlockingUnit@@$0BJ@$00$0BCJ@$0A@@@IAEPAVCvBlockingUnit@@I@Z ; FStaticVector<CvBlockingUnit,25,1,297,0>::Alloc
; Function compile flags: /Ogtpy
;	COMDAT ?Alloc@?$FStaticVector@VCvBlockingUnit@@$0BJ@$00$0BCJ@$0A@@@IAEPAVCvBlockingUnit@@I@Z
_TEXT	SEGMENT
_uiSize$ = 8						; size = 4
?Alloc@?$FStaticVector@VCvBlockingUnit@@$0BJ@$00$0BCJ@$0A@@@IAEPAVCvBlockingUnit@@I@Z PROC ; FStaticVector<CvBlockingUnit,25,1,297,0>::Alloc, COMDAT
; _this$ = ecx

; 795  : 	T* Alloc(unsigned int uiSize){

	push	esi
	push	edi

; 796  : 		T* pRet;
; 797  : 		if( uiSize > L ){

	mov	edi, DWORD PTR _uiSize$[esp+4]
	mov	esi, ecx
	cmp	edi, 25					; 00000019H
	jbe	SHORT $LN2@Alloc@6

; 798  : 			pRet = (T*)FMALLOCALIGNED( uiSize*sizeof(T), __alignof(T), AllocPool, nSubID );

	push	798					; 0000031eH
	push	OFFSET ??_C@_0HM@IMGGMCHG@c?3?2users?2enormousapplepie?2deskto@
	mov	eax, edi
	shl	eax, 4
	push	4
	push	eax
	call	?FireMallocAlignedNoTracking@@YAPAXIIPBDH@Z ; FireMallocAlignedNoTracking
	add	esp, 16					; 00000010H

; 799  : 			m_uiCurrMaxSize = uiSize;

	mov	DWORD PTR [esi+8], edi
	pop	edi
	pop	esi

; 803  : 		}
; 804  : 		return pRet;
; 805  : 	};

	ret	4
$LN2@Alloc@6:
	pop	edi

; 800  : 		}else{
; 801  : 			pRet = (T*)m_aData;

	lea	eax, DWORD PTR [esi+12]

; 802  : 			m_uiCurrMaxSize = L;

	mov	DWORD PTR [esi+8], 25			; 00000019H
	pop	esi

; 803  : 		}
; 804  : 		return pRet;
; 805  : 	};

	ret	4
?Alloc@?$FStaticVector@VCvBlockingUnit@@$0BJ@$00$0BCJ@$0A@@@IAEPAVCvBlockingUnit@@I@Z ENDP ; FStaticVector<CvBlockingUnit,25,1,297,0>::Alloc
_TEXT	ENDS
PUBLIC	??1?$BaseVector@VCvBlockingUnit@@$00@@QAE@XZ	; BaseVector<CvBlockingUnit,1>::~BaseVector<CvBlockingUnit,1>
; Function compile flags: /Ogtpy
;	COMDAT ??1?$BaseVector@VCvBlockingUnit@@$00@@QAE@XZ
_TEXT	SEGMENT
??1?$BaseVector@VCvBlockingUnit@@$00@@QAE@XZ PROC	; BaseVector<CvBlockingUnit,1>::~BaseVector<CvBlockingUnit,1>, COMDAT
; _this$ = ecx

; 111  : 	~BaseVector(){};

	ret	0
??1?$BaseVector@VCvBlockingUnit@@$00@@QAE@XZ ENDP	; BaseVector<CvBlockingUnit,1>::~BaseVector<CvBlockingUnit,1>
_TEXT	ENDS
PUBLIC	??0?$BaseVector@VCvBlockingUnit@@$00@@IAE@XZ	; BaseVector<CvBlockingUnit,1>::BaseVector<CvBlockingUnit,1>
; Function compile flags: /Ogtpy
;	COMDAT ??0?$BaseVector@VCvBlockingUnit@@$00@@IAE@XZ
_TEXT	SEGMENT
??0?$BaseVector@VCvBlockingUnit@@$00@@IAE@XZ PROC	; BaseVector<CvBlockingUnit,1>::BaseVector<CvBlockingUnit,1>, COMDAT
; _this$ = ecx

; 216  : 	BaseVector() : m_uiCurrSize(0), m_uiCurrMaxSize(0), m_pData(NULL) {};

	mov	eax, ecx
	xor	ecx, ecx
	mov	DWORD PTR [eax], ecx
	mov	DWORD PTR [eax+4], ecx
	mov	DWORD PTR [eax+8], ecx
	ret	0
??0?$BaseVector@VCvBlockingUnit@@$00@@IAE@XZ ENDP	; BaseVector<CvBlockingUnit,1>::BaseVector<CvBlockingUnit,1>
_TEXT	ENDS
PUBLIC	?Destroy@?$BaseVector@VCvBlockingUnit@@$00@@IAEXPAVCvBlockingUnit@@I@Z ; BaseVector<CvBlockingUnit,1>::Destroy
; Function compile flags: /Ogtpy
;	COMDAT ?Destroy@?$BaseVector@VCvBlockingUnit@@$00@@IAEXPAVCvBlockingUnit@@I@Z
_TEXT	SEGMENT
_pVal$ = 8						; size = 4
_uiNumElements$ = 12					; size = 4
?Destroy@?$BaseVector@VCvBlockingUnit@@$00@@IAEXPAVCvBlockingUnit@@I@Z PROC ; BaseVector<CvBlockingUnit,1>::Destroy, COMDAT
; _this$ = ecx

; 221  : 		if( !bPODType){
; 222  : 			for(unsigned int i = 0; i < uiNumElements; ++i){
; 223  : 				pVal[i].~T();
; 224  : 			}
; 225  : 		}
; 226  : 	};

	ret	8
?Destroy@?$BaseVector@VCvBlockingUnit@@$00@@IAEXPAVCvBlockingUnit@@I@Z ENDP ; BaseVector<CvBlockingUnit,1>::Destroy
_TEXT	ENDS
PUBLIC	?Copy@?$BaseVector@VCvBlockingUnit@@$00@@IAEXABV1@@Z ; BaseVector<CvBlockingUnit,1>::Copy
; Function compile flags: /Ogtpy
;	COMDAT ?Copy@?$BaseVector@VCvBlockingUnit@@$00@@IAEXABV1@@Z
_TEXT	SEGMENT
_RHS$ = 8						; size = 4
?Copy@?$BaseVector@VCvBlockingUnit@@$00@@IAEXABV1@@Z PROC ; BaseVector<CvBlockingUnit,1>::Copy, COMDAT
; _this$ = ecx

; 230  : 		m_uiCurrSize = RHS.m_uiCurrSize;

	mov	eax, DWORD PTR _RHS$[esp-4]
	mov	edx, DWORD PTR [eax+4]
	mov	DWORD PTR [ecx+4], edx

; 231  : 		if( bPODType ){
; 232  : 			memcpy( (void*)m_pData, (void*)RHS.m_pData, sizeof(T)*RHS.m_uiCurrSize);

	mov	edx, DWORD PTR [eax+4]
	mov	eax, DWORD PTR [eax]
	mov	ecx, DWORD PTR [ecx]
	shl	edx, 4
	push	edx
	push	eax
	push	ecx
	call	_memcpy
	add	esp, 12					; 0000000cH

; 233  : 		}else{
; 234  : 			for(unsigned int i = 0; i < m_uiCurrSize; ++i){
; 235  : 				new( (void*)&m_pData[i] )T( RHS.m_pData[i] );
; 236  : 			}
; 237  : 		}
; 238  : 	};

	ret	4
?Copy@?$BaseVector@VCvBlockingUnit@@$00@@IAEXABV1@@Z ENDP ; BaseVector<CvBlockingUnit,1>::Copy
_TEXT	ENDS
PUBLIC	?Alloc@?$FStaticVector@VCvBlockingUnit@@$0CF@$00$0BCJ@$0A@@@IAEPAVCvBlockingUnit@@I@Z ; FStaticVector<CvBlockingUnit,37,1,297,0>::Alloc
; Function compile flags: /Ogtpy
;	COMDAT ?Alloc@?$FStaticVector@VCvBlockingUnit@@$0CF@$00$0BCJ@$0A@@@IAEPAVCvBlockingUnit@@I@Z
_TEXT	SEGMENT
_uiSize$ = 8						; size = 4
?Alloc@?$FStaticVector@VCvBlockingUnit@@$0CF@$00$0BCJ@$0A@@@IAEPAVCvBlockingUnit@@I@Z PROC ; FStaticVector<CvBlockingUnit,37,1,297,0>::Alloc, COMDAT
; _this$ = ecx

; 795  : 	T* Alloc(unsigned int uiSize){

	push	esi
	push	edi

; 796  : 		T* pRet;
; 797  : 		if( uiSize > L ){

	mov	edi, DWORD PTR _uiSize$[esp+4]
	mov	esi, ecx
	cmp	edi, 37					; 00000025H
	jbe	SHORT $LN2@Alloc@7

; 798  : 			pRet = (T*)FMALLOCALIGNED( uiSize*sizeof(T), __alignof(T), AllocPool, nSubID );

	push	798					; 0000031eH
	push	OFFSET ??_C@_0HM@IMGGMCHG@c?3?2users?2enormousapplepie?2deskto@
	mov	eax, edi
	shl	eax, 4
	push	4
	push	eax
	call	?FireMallocAlignedNoTracking@@YAPAXIIPBDH@Z ; FireMallocAlignedNoTracking
	add	esp, 16					; 00000010H

; 799  : 			m_uiCurrMaxSize = uiSize;

	mov	DWORD PTR [esi+8], edi
	pop	edi
	pop	esi

; 803  : 		}
; 804  : 		return pRet;
; 805  : 	};

	ret	4
$LN2@Alloc@7:
	pop	edi

; 800  : 		}else{
; 801  : 			pRet = (T*)m_aData;

	lea	eax, DWORD PTR [esi+12]

; 802  : 			m_uiCurrMaxSize = L;

	mov	DWORD PTR [esi+8], 37			; 00000025H
	pop	esi

; 803  : 		}
; 804  : 		return pRet;
; 805  : 	};

	ret	4
?Alloc@?$FStaticVector@VCvBlockingUnit@@$0CF@$00$0BCJ@$0A@@@IAEPAVCvBlockingUnit@@I@Z ENDP ; FStaticVector<CvBlockingUnit,37,1,297,0>::Alloc
_TEXT	ENDS
PUBLIC	?Free@?$FStaticVector@VCvBlockingUnit@@$0CF@$00$0BCJ@$0A@@@IAEXPAVCvBlockingUnit@@I@Z ; FStaticVector<CvBlockingUnit,37,1,297,0>::Free
EXTRN	?FireFreeAlignedNoTracking@@YAXPAX@Z:PROC	; FireFreeAlignedNoTracking
; Function compile flags: /Ogtpy
;	COMDAT ?Free@?$FStaticVector@VCvBlockingUnit@@$0CF@$00$0BCJ@$0A@@@IAEXPAVCvBlockingUnit@@I@Z
_TEXT	SEGMENT
_pVal$ = 8						; size = 4
_uiNumElements$ = 12					; size = 4
?Free@?$FStaticVector@VCvBlockingUnit@@$0CF@$00$0BCJ@$0A@@@IAEXPAVCvBlockingUnit@@I@Z PROC ; FStaticVector<CvBlockingUnit,37,1,297,0>::Free, COMDAT
; _this$ = ecx

; 810  : 		if( !bPODType) Destroy(pVal, uiNumElements);
; 811  : 		if( pVal != (T*)m_aData )

	mov	eax, DWORD PTR _pVal$[esp-4]
	add	ecx, 12					; 0000000cH
	cmp	eax, ecx
	je	SHORT $LN1@Free

; 812  : 			FFREEALIGNED( (unsigned char*)pVal );

	push	eax
	call	?FireFreeAlignedNoTracking@@YAXPAX@Z	; FireFreeAlignedNoTracking
	pop	ecx
$LN1@Free:

; 813  : 	};

	ret	8
?Free@?$FStaticVector@VCvBlockingUnit@@$0CF@$00$0BCJ@$0A@@@IAEXPAVCvBlockingUnit@@I@Z ENDP ; FStaticVector<CvBlockingUnit,37,1,297,0>::Free
_TEXT	ENDS
PUBLIC	?Alloc@?$FStaticVector@VCvOperationUnit@@$0BE@$00$0BCJ@$0A@@@IAEPAVCvOperationUnit@@I@Z ; FStaticVector<CvOperationUnit,20,1,297,0>::Alloc
; Function compile flags: /Ogtpy
;	COMDAT ?Alloc@?$FStaticVector@VCvOperationUnit@@$0BE@$00$0BCJ@$0A@@@IAEPAVCvOperationUnit@@I@Z
_TEXT	SEGMENT
_uiSize$ = 8						; size = 4
?Alloc@?$FStaticVector@VCvOperationUnit@@$0BE@$00$0BCJ@$0A@@@IAEPAVCvOperationUnit@@I@Z PROC ; FStaticVector<CvOperationUnit,20,1,297,0>::Alloc, COMDAT
; _this$ = ecx

; 795  : 	T* Alloc(unsigned int uiSize){

	push	esi
	push	edi

; 796  : 		T* pRet;
; 797  : 		if( uiSize > L ){

	mov	edi, DWORD PTR _uiSize$[esp+4]
	mov	esi, ecx
	cmp	edi, 20					; 00000014H
	jbe	SHORT $LN2@Alloc@8

; 798  : 			pRet = (T*)FMALLOCALIGNED( uiSize*sizeof(T), __alignof(T), AllocPool, nSubID );

	push	798					; 0000031eH
	push	OFFSET ??_C@_0HM@IMGGMCHG@c?3?2users?2enormousapplepie?2deskto@
	lea	eax, DWORD PTR [edi*8]
	push	4
	push	eax
	call	?FireMallocAlignedNoTracking@@YAPAXIIPBDH@Z ; FireMallocAlignedNoTracking
	add	esp, 16					; 00000010H

; 799  : 			m_uiCurrMaxSize = uiSize;

	mov	DWORD PTR [esi+8], edi
	pop	edi
	pop	esi

; 803  : 		}
; 804  : 		return pRet;
; 805  : 	};

	ret	4
$LN2@Alloc@8:
	pop	edi

; 800  : 		}else{
; 801  : 			pRet = (T*)m_aData;

	lea	eax, DWORD PTR [esi+12]

; 802  : 			m_uiCurrMaxSize = L;

	mov	DWORD PTR [esi+8], 20			; 00000014H
	pop	esi

; 803  : 		}
; 804  : 		return pRet;
; 805  : 	};

	ret	4
?Alloc@?$FStaticVector@VCvOperationUnit@@$0BE@$00$0BCJ@$0A@@@IAEPAVCvOperationUnit@@I@Z ENDP ; FStaticVector<CvOperationUnit,20,1,297,0>::Alloc
_TEXT	ENDS
PUBLIC	??1?$BaseVector@VCvOperationUnit@@$00@@QAE@XZ	; BaseVector<CvOperationUnit,1>::~BaseVector<CvOperationUnit,1>
; Function compile flags: /Ogtpy
;	COMDAT ??1?$BaseVector@VCvOperationUnit@@$00@@QAE@XZ
_TEXT	SEGMENT
??1?$BaseVector@VCvOperationUnit@@$00@@QAE@XZ PROC	; BaseVector<CvOperationUnit,1>::~BaseVector<CvOperationUnit,1>, COMDAT
; _this$ = ecx

; 111  : 	~BaseVector(){};

	ret	0
??1?$BaseVector@VCvOperationUnit@@$00@@QAE@XZ ENDP	; BaseVector<CvOperationUnit,1>::~BaseVector<CvOperationUnit,1>
_TEXT	ENDS
PUBLIC	??0?$BaseVector@VCvOperationUnit@@$00@@IAE@XZ	; BaseVector<CvOperationUnit,1>::BaseVector<CvOperationUnit,1>
; Function compile flags: /Ogtpy
;	COMDAT ??0?$BaseVector@VCvOperationUnit@@$00@@IAE@XZ
_TEXT	SEGMENT
??0?$BaseVector@VCvOperationUnit@@$00@@IAE@XZ PROC	; BaseVector<CvOperationUnit,1>::BaseVector<CvOperationUnit,1>, COMDAT
; _this$ = ecx

; 216  : 	BaseVector() : m_uiCurrSize(0), m_uiCurrMaxSize(0), m_pData(NULL) {};

	mov	eax, ecx
	xor	ecx, ecx
	mov	DWORD PTR [eax], ecx
	mov	DWORD PTR [eax+4], ecx
	mov	DWORD PTR [eax+8], ecx
	ret	0
??0?$BaseVector@VCvOperationUnit@@$00@@IAE@XZ ENDP	; BaseVector<CvOperationUnit,1>::BaseVector<CvOperationUnit,1>
_TEXT	ENDS
PUBLIC	?Destroy@?$BaseVector@VCvOperationUnit@@$00@@IAEXPAVCvOperationUnit@@I@Z ; BaseVector<CvOperationUnit,1>::Destroy
; Function compile flags: /Ogtpy
;	COMDAT ?Destroy@?$BaseVector@VCvOperationUnit@@$00@@IAEXPAVCvOperationUnit@@I@Z
_TEXT	SEGMENT
_pVal$ = 8						; size = 4
_uiNumElements$ = 12					; size = 4
?Destroy@?$BaseVector@VCvOperationUnit@@$00@@IAEXPAVCvOperationUnit@@I@Z PROC ; BaseVector<CvOperationUnit,1>::Destroy, COMDAT
; _this$ = ecx

; 221  : 		if( !bPODType){
; 222  : 			for(unsigned int i = 0; i < uiNumElements; ++i){
; 223  : 				pVal[i].~T();
; 224  : 			}
; 225  : 		}
; 226  : 	};

	ret	8
?Destroy@?$BaseVector@VCvOperationUnit@@$00@@IAEXPAVCvOperationUnit@@I@Z ENDP ; BaseVector<CvOperationUnit,1>::Destroy
_TEXT	ENDS
PUBLIC	?capacity@?$vector@PAVCvPlot@@V?$allocator@PAVCvPlot@@@std@@@std@@QBEIXZ ; std::vector<CvPlot *,std::allocator<CvPlot *> >::capacity
; Function compile flags: /Ogtpy
; File c:\program files (x86)\microsoft visual studio 9.0\vc\include\vector
;	COMDAT ?capacity@?$vector@PAVCvPlot@@V?$allocator@PAVCvPlot@@@std@@@std@@QBEIXZ
_TEXT	SEGMENT
?capacity@?$vector@PAVCvPlot@@V?$allocator@PAVCvPlot@@@std@@@std@@QBEIXZ PROC ; std::vector<CvPlot *,std::allocator<CvPlot *> >::capacity, COMDAT
; _this$ = ecx

; 635  : 		return (_Myfirst == 0 ? 0 : _Myend - _Myfirst);

	mov	edx, DWORD PTR [ecx+4]
	test	edx, edx
	jne	SHORT $LN3@capacity@3
	xor	eax, eax

; 636  : 		}

	ret	0
$LN3@capacity@3:

; 635  : 		return (_Myfirst == 0 ? 0 : _Myend - _Myfirst);

	mov	eax, DWORD PTR [ecx+12]
	sub	eax, edx
	sar	eax, 2

; 636  : 		}

	ret	0
?capacity@?$vector@PAVCvPlot@@V?$allocator@PAVCvPlot@@@std@@@std@@QBEIXZ ENDP ; std::vector<CvPlot *,std::allocator<CvPlot *> >::capacity
_TEXT	ENDS
PUBLIC	?size@?$vector@PAVCvPlot@@V?$allocator@PAVCvPlot@@@std@@@std@@QBEIXZ ; std::vector<CvPlot *,std::allocator<CvPlot *> >::size
; Function compile flags: /Ogtpy
;	COMDAT ?size@?$vector@PAVCvPlot@@V?$allocator@PAVCvPlot@@@std@@@std@@QBEIXZ
_TEXT	SEGMENT
?size@?$vector@PAVCvPlot@@V?$allocator@PAVCvPlot@@@std@@@std@@QBEIXZ PROC ; std::vector<CvPlot *,std::allocator<CvPlot *> >::size, COMDAT
; _this$ = ecx

; 726  : 		return (_Mylast - _Myfirst);

	mov	eax, DWORD PTR [ecx+8]
	sub	eax, DWORD PTR [ecx+4]
	sar	eax, 2

; 727  : 		}

	ret	0
?size@?$vector@PAVCvPlot@@V?$allocator@PAVCvPlot@@@std@@@std@@QBEIXZ ENDP ; std::vector<CvPlot *,std::allocator<CvPlot *> >::size
_TEXT	ENDS
PUBLIC	??1?$_Container_base_aux_alloc_empty@V?$allocator@PAVCvPlot@@@std@@@std@@IAE@XZ ; std::_Container_base_aux_alloc_empty<std::allocator<CvPlot *> >::~_Container_base_aux_alloc_empty<std::allocator<CvPlot *> >
; Function compile flags: /Ogtpy
; File c:\program files (x86)\microsoft visual studio 9.0\vc\include\xutility
;	COMDAT ??1?$_Container_base_aux_alloc_empty@V?$allocator@PAVCvPlot@@@std@@@std@@IAE@XZ
_TEXT	SEGMENT
??1?$_Container_base_aux_alloc_empty@V?$allocator@PAVCvPlot@@@std@@@std@@IAE@XZ PROC ; std::_Container_base_aux_alloc_empty<std::allocator<CvPlot *> >::~_Container_base_aux_alloc_empty<std::allocator<CvPlot *> >, COMDAT
; _this$ = ecx

; 627  : 	~_Container_base_aux_alloc_empty() { }

	ret	0
??1?$_Container_base_aux_alloc_empty@V?$allocator@PAVCvPlot@@@std@@@std@@IAE@XZ ENDP ; std::_Container_base_aux_alloc_empty<std::allocator<CvPlot *> >::~_Container_base_aux_alloc_empty<std::allocator<CvPlot *> >
_TEXT	ENDS
PUBLIC	??0?$allocator@PAVCvPlot@@@std@@QAE@XZ		; std::allocator<CvPlot *>::allocator<CvPlot *>
; Function compile flags: /Ogtpy
; File c:\program files (x86)\microsoft visual studio 9.0\vc\include\xmemory
;	COMDAT ??0?$allocator@PAVCvPlot@@@std@@QAE@XZ
_TEXT	SEGMENT
??0?$allocator@PAVCvPlot@@@std@@QAE@XZ PROC		; std::allocator<CvPlot *>::allocator<CvPlot *>, COMDAT
; _this$ = ecx

; 119  : 	allocator() _THROW0()

	mov	eax, ecx

; 120  : 		{	// construct default allocator (do nothing)
; 121  : 		}

	ret	0
??0?$allocator@PAVCvPlot@@@std@@QAE@XZ ENDP		; std::allocator<CvPlot *>::allocator<CvPlot *>
_TEXT	ENDS
PUBLIC	??D?$_Vector_const_iterator@PAVCvTacticalMoveXMLEntry@@V?$allocator@PAVCvTacticalMoveXMLEntry@@@std@@@std@@QBEABQAVCvTacticalMoveXMLEntry@@XZ ; std::_Vector_const_iterator<CvTacticalMoveXMLEntry *,std::allocator<CvTacticalMoveXMLEntry *> >::operator*
; Function compile flags: /Ogtpy
; File c:\program files (x86)\microsoft visual studio 9.0\vc\include\vector
;	COMDAT ??D?$_Vector_const_iterator@PAVCvTacticalMoveXMLEntry@@V?$allocator@PAVCvTacticalMoveXMLEntry@@@std@@@std@@QBEABQAVCvTacticalMoveXMLEntry@@XZ
_TEXT	SEGMENT
??D?$_Vector_const_iterator@PAVCvTacticalMoveXMLEntry@@V?$allocator@PAVCvTacticalMoveXMLEntry@@@std@@@std@@QBEABQAVCvTacticalMoveXMLEntry@@XZ PROC ; std::_Vector_const_iterator<CvTacticalMoveXMLEntry *,std::allocator<CvTacticalMoveXMLEntry *> >::operator*, COMDAT
; _this$ = ecx

; 92   : 
; 93   :  #if _HAS_ITERATOR_DEBUGGING
; 94   : 		if (this->_Mycont == 0
; 95   : 			|| _Myptr < ((_Myvec *)this->_Mycont)->_Myfirst
; 96   : 			|| ((_Myvec *)this->_Mycont)->_Mylast <= _Myptr)
; 97   : 			{
; 98   : 			_DEBUG_ERROR("vector iterator not dereferencable");
; 99   : 			_SCL_SECURE_OUT_OF_RANGE;
; 100  : 			}
; 101  :  #else
; 102  :  		_SCL_SECURE_VALIDATE(this->_Has_container());
; 103  : 		_SCL_SECURE_VALIDATE_RANGE(_Myptr < ((_Myvec *)(this->_Getmycont()))->_Mylast);
; 104  :  #endif /* _HAS_ITERATOR_DEBUGGING */
; 105  : 
; 106  : 		return (*_Myptr);

	mov	eax, DWORD PTR [ecx]

; 107  : 		}

	ret	0
??D?$_Vector_const_iterator@PAVCvTacticalMoveXMLEntry@@V?$allocator@PAVCvTacticalMoveXMLEntry@@@std@@@std@@QBEABQAVCvTacticalMoveXMLEntry@@XZ ENDP ; std::_Vector_const_iterator<CvTacticalMoveXMLEntry *,std::allocator<CvTacticalMoveXMLEntry *> >::operator*
_TEXT	ENDS
PUBLIC	??E?$_Vector_const_iterator@PAVCvTacticalMoveXMLEntry@@V?$allocator@PAVCvTacticalMoveXMLEntry@@@std@@@std@@QAEAAV01@XZ ; std::_Vector_const_iterator<CvTacticalMoveXMLEntry *,std::allocator<CvTacticalMoveXMLEntry *> >::operator++
; Function compile flags: /Ogtpy
;	COMDAT ??E?$_Vector_const_iterator@PAVCvTacticalMoveXMLEntry@@V?$allocator@PAVCvTacticalMoveXMLEntry@@@std@@@std@@QAEAAV01@XZ
_TEXT	SEGMENT
??E?$_Vector_const_iterator@PAVCvTacticalMoveXMLEntry@@V?$allocator@PAVCvTacticalMoveXMLEntry@@@std@@@std@@QAEAAV01@XZ PROC ; std::_Vector_const_iterator<CvTacticalMoveXMLEntry *,std::allocator<CvTacticalMoveXMLEntry *> >::operator++, COMDAT
; _this$ = ecx

; 115  : 		{	// preincrement

	mov	eax, ecx

; 116  : 		_SCL_SECURE_VALIDATE(this->_Has_container());
; 117  : 		_SCL_SECURE_VALIDATE_RANGE(_Myptr < ((_Myvec *)(this->_Getmycont()))->_Mylast);
; 118  : 
; 119  :  #if _HAS_ITERATOR_DEBUGGING
; 120  : 		if (this->_Mycont == 0
; 121  : 			|| ((_Myvec *)this->_Mycont)->_Mylast <= _Myptr)
; 122  : 			_DEBUG_ERROR("vector iterator not incrementable");
; 123  :  #endif /* _HAS_ITERATOR_DEBUGGING */
; 124  : 
; 125  : 		++_Myptr;

	add	DWORD PTR [eax], 4

; 126  : 		return (*this);
; 127  : 		}

	ret	0
??E?$_Vector_const_iterator@PAVCvTacticalMoveXMLEntry@@V?$allocator@PAVCvTacticalMoveXMLEntry@@@std@@@std@@QAEAAV01@XZ ENDP ; std::_Vector_const_iterator<CvTacticalMoveXMLEntry *,std::allocator<CvTacticalMoveXMLEntry *> >::operator++
_TEXT	ENDS
PUBLIC	??8?$_Vector_const_iterator@PAVCvTacticalMoveXMLEntry@@V?$allocator@PAVCvTacticalMoveXMLEntry@@@std@@@std@@QBE_NABV01@@Z ; std::_Vector_const_iterator<CvTacticalMoveXMLEntry *,std::allocator<CvTacticalMoveXMLEntry *> >::operator==
; Function compile flags: /Ogtpy
;	COMDAT ??8?$_Vector_const_iterator@PAVCvTacticalMoveXMLEntry@@V?$allocator@PAVCvTacticalMoveXMLEntry@@@std@@@std@@QBE_NABV01@@Z
_TEXT	SEGMENT
__Right$ = 8						; size = 4
??8?$_Vector_const_iterator@PAVCvTacticalMoveXMLEntry@@V?$allocator@PAVCvTacticalMoveXMLEntry@@@std@@@std@@QBE_NABV01@@Z PROC ; std::_Vector_const_iterator<CvTacticalMoveXMLEntry *,std::allocator<CvTacticalMoveXMLEntry *> >::operator==, COMDAT
; _this$ = ecx

; 204  : 
; 205  :  #if _HAS_ITERATOR_DEBUGGING
; 206  : 		_Compat(_Right);
; 207  :  #else
; 208  : 		_SCL_SECURE_VALIDATE(this->_Has_container() && this->_Same_container(_Right));
; 209  :  #endif /* _HAS_ITERATOR_DEBUGGING */
; 210  : 
; 211  : 		return (_Myptr == _Right._Myptr);

	mov	eax, DWORD PTR [ecx]
	mov	edx, DWORD PTR __Right$[esp-4]
	xor	ecx, ecx
	cmp	eax, DWORD PTR [edx]
	sete	cl
	mov	al, cl

; 212  : 		}

	ret	4
??8?$_Vector_const_iterator@PAVCvTacticalMoveXMLEntry@@V?$allocator@PAVCvTacticalMoveXMLEntry@@@std@@@std@@QBE_NABV01@@Z ENDP ; std::_Vector_const_iterator<CvTacticalMoveXMLEntry *,std::allocator<CvTacticalMoveXMLEntry *> >::operator==
_TEXT	ENDS
PUBLIC	??0?$_Const_iterator@$0A@@?$list@VCvQueuedAttack@@V?$allocator@VCvQueuedAttack@@@std@@@std@@QAE@XZ ; std::list<CvQueuedAttack,std::allocator<CvQueuedAttack> >::_Const_iterator<0>::_Const_iterator<0>
; Function compile flags: /Ogtpy
; File c:\program files (x86)\microsoft visual studio 9.0\vc\include\list
;	COMDAT ??0?$_Const_iterator@$0A@@?$list@VCvQueuedAttack@@V?$allocator@VCvQueuedAttack@@@std@@@std@@QAE@XZ
_TEXT	SEGMENT
??0?$_Const_iterator@$0A@@?$list@VCvQueuedAttack@@V?$allocator@VCvQueuedAttack@@@std@@@std@@QAE@XZ PROC ; std::list<CvQueuedAttack,std::allocator<CvQueuedAttack> >::_Const_iterator<0>::_Const_iterator<0>, COMDAT
; _this$ = ecx

; 163  : 			{	// construct with null node pointer

	mov	eax, ecx
	mov	DWORD PTR [eax], 0

; 164  : 			}

	ret	0
??0?$_Const_iterator@$0A@@?$list@VCvQueuedAttack@@V?$allocator@VCvQueuedAttack@@@std@@@std@@QAE@XZ ENDP ; std::list<CvQueuedAttack,std::allocator<CvQueuedAttack> >::_Const_iterator<0>::_Const_iterator<0>
_TEXT	ENDS
PUBLIC	??8?$_Const_iterator@$0A@@?$list@VCvQueuedAttack@@V?$allocator@VCvQueuedAttack@@@std@@@std@@QBE_NABV012@@Z ; std::list<CvQueuedAttack,std::allocator<CvQueuedAttack> >::_Const_iterator<0>::operator==
; Function compile flags: /Ogtpy
;	COMDAT ??8?$_Const_iterator@$0A@@?$list@VCvQueuedAttack@@V?$allocator@VCvQueuedAttack@@@std@@@std@@QBE_NABV012@@Z
_TEXT	SEGMENT
__Right$ = 8						; size = 4
??8?$_Const_iterator@$0A@@?$list@VCvQueuedAttack@@V?$allocator@VCvQueuedAttack@@@std@@@std@@QBE_NABV012@@Z PROC ; std::list<CvQueuedAttack,std::allocator<CvQueuedAttack> >::_Const_iterator<0>::operator==, COMDAT
; _this$ = ecx

; 291  : 
; 292  :  #if _HAS_ITERATOR_DEBUGGING
; 293  : 			_Compat(_Right);
; 294  :  #else
; 295  : 			_SCL_SECURE_TRAITS_VALIDATE(this->_Has_container() && this->_Same_container(_Right));
; 296  :  #endif /* _HAS_ITERATOR_DEBUGGING */
; 297  : 
; 298  : 			return (_Ptr == _Right._Ptr);

	mov	eax, DWORD PTR [ecx]
	mov	edx, DWORD PTR __Right$[esp-4]
	xor	ecx, ecx
	cmp	eax, DWORD PTR [edx]
	sete	cl
	mov	al, cl

; 299  : 			}

	ret	4
??8?$_Const_iterator@$0A@@?$list@VCvQueuedAttack@@V?$allocator@VCvQueuedAttack@@@std@@@std@@QBE_NABV012@@Z ENDP ; std::list<CvQueuedAttack,std::allocator<CvQueuedAttack> >::_Const_iterator<0>::operator==
_TEXT	ENDS
PUBLIC	?_Mynode@?$_Const_iterator@$0A@@?$list@VCvQueuedAttack@@V?$allocator@VCvQueuedAttack@@@std@@@std@@QBEPAU_Node@?$_List_nod@VCvQueuedAttack@@V?$allocator@VCvQueuedAttack@@@std@@@3@XZ ; std::list<CvQueuedAttack,std::allocator<CvQueuedAttack> >::_Const_iterator<0>::_Mynode
; Function compile flags: /Ogtpy
;	COMDAT ?_Mynode@?$_Const_iterator@$0A@@?$list@VCvQueuedAttack@@V?$allocator@VCvQueuedAttack@@@std@@@std@@QBEPAU_Node@?$_List_nod@VCvQueuedAttack@@V?$allocator@VCvQueuedAttack@@@std@@@3@XZ
_TEXT	SEGMENT
?_Mynode@?$_Const_iterator@$0A@@?$list@VCvQueuedAttack@@V?$allocator@VCvQueuedAttack@@@std@@@std@@QBEPAU_Node@?$_List_nod@VCvQueuedAttack@@V?$allocator@VCvQueuedAttack@@@std@@@3@XZ PROC ; std::list<CvQueuedAttack,std::allocator<CvQueuedAttack> >::_Const_iterator<0>::_Mynode, COMDAT
; _this$ = ecx

; 308  : 			return (_Ptr);

	mov	eax, DWORD PTR [ecx]

; 309  : 			}

	ret	0
?_Mynode@?$_Const_iterator@$0A@@?$list@VCvQueuedAttack@@V?$allocator@VCvQueuedAttack@@@std@@@std@@QBEPAU_Node@?$_List_nod@VCvQueuedAttack@@V?$allocator@VCvQueuedAttack@@@std@@@3@XZ ENDP ; std::list<CvQueuedAttack,std::allocator<CvQueuedAttack> >::_Const_iterator<0>::_Mynode
_TEXT	ENDS
PUBLIC	?getMAX_HIT_POINTS@CvGlobals@@QAEHXZ		; CvGlobals::getMAX_HIT_POINTS
; Function compile flags: /Ogtpy
; File c:\users\enormousapplepie\desktop\lekmod files\lekmod dll versions\v29\lekmod_dll\cvgamecoredll_expansion2\cvglobals.h
;	COMDAT ?getMAX_HIT_POINTS@CvGlobals@@QAEHXZ
_TEXT	SEGMENT
?getMAX_HIT_POINTS@CvGlobals@@QAEHXZ PROC		; CvGlobals::getMAX_HIT_POINTS, COMDAT
; _this$ = ecx

; 6497 : 		return m_iMAX_HIT_POINTS;

	mov	eax, DWORD PTR [ecx+7368]

; 6498 : 	}

	ret	0
?getMAX_HIT_POINTS@CvGlobals@@QAEHXZ ENDP		; CvGlobals::getMAX_HIT_POINTS
_TEXT	ENDS
PUBLIC	??0?$_Const_iterator@$0A@@?$list@HV?$allocator@H@std@@@std@@QAE@XZ ; std::list<int,std::allocator<int> >::_Const_iterator<0>::_Const_iterator<0>
; Function compile flags: /Ogtpy
; File c:\program files (x86)\microsoft visual studio 9.0\vc\include\list
;	COMDAT ??0?$_Const_iterator@$0A@@?$list@HV?$allocator@H@std@@@std@@QAE@XZ
_TEXT	SEGMENT
??0?$_Const_iterator@$0A@@?$list@HV?$allocator@H@std@@@std@@QAE@XZ PROC ; std::list<int,std::allocator<int> >::_Const_iterator<0>::_Const_iterator<0>, COMDAT
; _this$ = ecx

; 163  : 			{	// construct with null node pointer

	mov	eax, ecx
	mov	DWORD PTR [eax], 0

; 164  : 			}

	ret	0
??0?$_Const_iterator@$0A@@?$list@HV?$allocator@H@std@@@std@@QAE@XZ ENDP ; std::list<int,std::allocator<int> >::_Const_iterator<0>::_Const_iterator<0>
_TEXT	ENDS
PUBLIC	??0?$_Vector_const_iterator@PAVCvPlot@@V?$allocator@PAVCvPlot@@@std@@@std@@QAE@XZ ; std::_Vector_const_iterator<CvPlot *,std::allocator<CvPlot *> >::_Vector_const_iterator<CvPlot *,std::allocator<CvPlot *> >
; Function compile flags: /Ogtpy
; File c:\program files (x86)\microsoft visual studio 9.0\vc\include\vector
;	COMDAT ??0?$_Vector_const_iterator@PAVCvPlot@@V?$allocator@PAVCvPlot@@@std@@@std@@QAE@XZ
_TEXT	SEGMENT
??0?$_Vector_const_iterator@PAVCvPlot@@V?$allocator@PAVCvPlot@@@std@@@std@@QAE@XZ PROC ; std::_Vector_const_iterator<CvPlot *,std::allocator<CvPlot *> >::_Vector_const_iterator<CvPlot *,std::allocator<CvPlot *> >, COMDAT
; _this$ = ecx

; 62   : 	_Vector_const_iterator()

	mov	eax, ecx

; 63   : 		{	// construct with null pointer
; 64   : 		_Myptr = 0;

	mov	DWORD PTR [eax], 0

; 65   : 		}

	ret	0
??0?$_Vector_const_iterator@PAVCvPlot@@V?$allocator@PAVCvPlot@@@std@@@std@@QAE@XZ ENDP ; std::_Vector_const_iterator<CvPlot *,std::allocator<CvPlot *> >::_Vector_const_iterator<CvPlot *,std::allocator<CvPlot *> >
_TEXT	ENDS
PUBLIC	??D?$_Vector_const_iterator@PAVCvPlot@@V?$allocator@PAVCvPlot@@@std@@@std@@QBEABQAVCvPlot@@XZ ; std::_Vector_const_iterator<CvPlot *,std::allocator<CvPlot *> >::operator*
; Function compile flags: /Ogtpy
;	COMDAT ??D?$_Vector_const_iterator@PAVCvPlot@@V?$allocator@PAVCvPlot@@@std@@@std@@QBEABQAVCvPlot@@XZ
_TEXT	SEGMENT
??D?$_Vector_const_iterator@PAVCvPlot@@V?$allocator@PAVCvPlot@@@std@@@std@@QBEABQAVCvPlot@@XZ PROC ; std::_Vector_const_iterator<CvPlot *,std::allocator<CvPlot *> >::operator*, COMDAT
; _this$ = ecx

; 92   : 
; 93   :  #if _HAS_ITERATOR_DEBUGGING
; 94   : 		if (this->_Mycont == 0
; 95   : 			|| _Myptr < ((_Myvec *)this->_Mycont)->_Myfirst
; 96   : 			|| ((_Myvec *)this->_Mycont)->_Mylast <= _Myptr)
; 97   : 			{
; 98   : 			_DEBUG_ERROR("vector iterator not dereferencable");
; 99   : 			_SCL_SECURE_OUT_OF_RANGE;
; 100  : 			}
; 101  :  #else
; 102  :  		_SCL_SECURE_VALIDATE(this->_Has_container());
; 103  : 		_SCL_SECURE_VALIDATE_RANGE(_Myptr < ((_Myvec *)(this->_Getmycont()))->_Mylast);
; 104  :  #endif /* _HAS_ITERATOR_DEBUGGING */
; 105  : 
; 106  : 		return (*_Myptr);

	mov	eax, DWORD PTR [ecx]

; 107  : 		}

	ret	0
??D?$_Vector_const_iterator@PAVCvPlot@@V?$allocator@PAVCvPlot@@@std@@@std@@QBEABQAVCvPlot@@XZ ENDP ; std::_Vector_const_iterator<CvPlot *,std::allocator<CvPlot *> >::operator*
_TEXT	ENDS
PUBLIC	??8?$_Vector_const_iterator@PAVCvPlot@@V?$allocator@PAVCvPlot@@@std@@@std@@QBE_NABV01@@Z ; std::_Vector_const_iterator<CvPlot *,std::allocator<CvPlot *> >::operator==
; Function compile flags: /Ogtpy
;	COMDAT ??8?$_Vector_const_iterator@PAVCvPlot@@V?$allocator@PAVCvPlot@@@std@@@std@@QBE_NABV01@@Z
_TEXT	SEGMENT
__Right$ = 8						; size = 4
??8?$_Vector_const_iterator@PAVCvPlot@@V?$allocator@PAVCvPlot@@@std@@@std@@QBE_NABV01@@Z PROC ; std::_Vector_const_iterator<CvPlot *,std::allocator<CvPlot *> >::operator==, COMDAT
; _this$ = ecx

; 204  : 
; 205  :  #if _HAS_ITERATOR_DEBUGGING
; 206  : 		_Compat(_Right);
; 207  :  #else
; 208  : 		_SCL_SECURE_VALIDATE(this->_Has_container() && this->_Same_container(_Right));
; 209  :  #endif /* _HAS_ITERATOR_DEBUGGING */
; 210  : 
; 211  : 		return (_Myptr == _Right._Myptr);

	mov	eax, DWORD PTR [ecx]
	mov	edx, DWORD PTR __Right$[esp-4]
	xor	ecx, ecx
	cmp	eax, DWORD PTR [edx]
	sete	cl
	mov	al, cl

; 212  : 		}

	ret	4
??8?$_Vector_const_iterator@PAVCvPlot@@V?$allocator@PAVCvPlot@@@std@@@std@@QBE_NABV01@@Z ENDP ; std::_Vector_const_iterator<CvPlot *,std::allocator<CvPlot *> >::operator==
_TEXT	ENDS
PUBLIC	??A?$BaseVector@UWeightedElement@?$CvWeightedVector@PAVCvPlot@@$00$00@@$00@@QBEABUWeightedElement@?$CvWeightedVector@PAVCvPlot@@$00$00@@I@Z ; BaseVector<CvWeightedVector<CvPlot *,1,1>::WeightedElement,1>::operator[]
; Function compile flags: /Ogtpy
; File c:\users\enormousapplepie\desktop\lekmod files\lekmod dll versions\v29\lekmod_dll\fireplace\include\fireworks\ffastvector.h
;	COMDAT ??A?$BaseVector@UWeightedElement@?$CvWeightedVector@PAVCvPlot@@$00$00@@$00@@QBEABUWeightedElement@?$CvWeightedVector@PAVCvPlot@@$00$00@@I@Z
_TEXT	SEGMENT
_ui$ = 8						; size = 4
??A?$BaseVector@UWeightedElement@?$CvWeightedVector@PAVCvPlot@@$00$00@@$00@@QBEABUWeightedElement@?$CvWeightedVector@PAVCvPlot@@$00$00@@I@Z PROC ; BaseVector<CvWeightedVector<CvPlot *,1,1>::WeightedElement,1>::operator[], COMDAT
; _this$ = ecx

; 135  : 		FAssert(ui < m_uiCurrSize);
; 136  : 		return m_pData[ui];

	mov	eax, DWORD PTR [ecx]
	mov	ecx, DWORD PTR _ui$[esp-4]
	lea	eax, DWORD PTR [eax+ecx*8]

; 137  : 	};

	ret	4
??A?$BaseVector@UWeightedElement@?$CvWeightedVector@PAVCvPlot@@$00$00@@$00@@QBEABUWeightedElement@?$CvWeightedVector@PAVCvPlot@@$00$00@@I@Z ENDP ; BaseVector<CvWeightedVector<CvPlot *,1,1>::WeightedElement,1>::operator[]
_TEXT	ENDS
PUBLIC	?size@?$BaseVector@UWeightedElement@?$CvWeightedVector@PAVCvPlot@@$00$00@@$00@@QBEIXZ ; BaseVector<CvWeightedVector<CvPlot *,1,1>::WeightedElement,1>::size
; Function compile flags: /Ogtpy
;	COMDAT ?size@?$BaseVector@UWeightedElement@?$CvWeightedVector@PAVCvPlot@@$00$00@@$00@@QBEIXZ
_TEXT	SEGMENT
?size@?$BaseVector@UWeightedElement@?$CvWeightedVector@PAVCvPlot@@$00$00@@$00@@QBEIXZ PROC ; BaseVector<CvWeightedVector<CvPlot *,1,1>::WeightedElement,1>::size, COMDAT
; _this$ = ecx

; 169  : 		return m_uiCurrSize;

	mov	eax, DWORD PTR [ecx+4]

; 170  : 	};

	ret	0
?size@?$BaseVector@UWeightedElement@?$CvWeightedVector@PAVCvPlot@@$00$00@@$00@@QBEIXZ ENDP ; BaseVector<CvWeightedVector<CvPlot *,1,1>::WeightedElement,1>::size
_TEXT	ENDS
PUBLIC	?begin@?$BaseVector@UWeightedElement@?$CvWeightedVector@PAVCvPlot@@$00$00@@$00@@QAEPAUWeightedElement@?$CvWeightedVector@PAVCvPlot@@$00$00@@XZ ; BaseVector<CvWeightedVector<CvPlot *,1,1>::WeightedElement,1>::begin
; Function compile flags: /Ogtpy
;	COMDAT ?begin@?$BaseVector@UWeightedElement@?$CvWeightedVector@PAVCvPlot@@$00$00@@$00@@QAEPAUWeightedElement@?$CvWeightedVector@PAVCvPlot@@$00$00@@XZ
_TEXT	SEGMENT
?begin@?$BaseVector@UWeightedElement@?$CvWeightedVector@PAVCvPlot@@$00$00@@$00@@QAEPAUWeightedElement@?$CvWeightedVector@PAVCvPlot@@$00$00@@XZ PROC ; BaseVector<CvWeightedVector<CvPlot *,1,1>::WeightedElement,1>::begin, COMDAT
; _this$ = ecx

; 194  :         return m_pData; 

	mov	eax, DWORD PTR [ecx]

; 195  :     };

	ret	0
?begin@?$BaseVector@UWeightedElement@?$CvWeightedVector@PAVCvPlot@@$00$00@@$00@@QAEPAUWeightedElement@?$CvWeightedVector@PAVCvPlot@@$00$00@@XZ ENDP ; BaseVector<CvWeightedVector<CvPlot *,1,1>::WeightedElement,1>::begin
_TEXT	ENDS
PUBLIC	?end@?$BaseVector@UWeightedElement@?$CvWeightedVector@PAVCvPlot@@$00$00@@$00@@QAEPAUWeightedElement@?$CvWeightedVector@PAVCvPlot@@$00$00@@XZ ; BaseVector<CvWeightedVector<CvPlot *,1,1>::WeightedElement,1>::end
; Function compile flags: /Ogtpy
;	COMDAT ?end@?$BaseVector@UWeightedElement@?$CvWeightedVector@PAVCvPlot@@$00$00@@$00@@QAEPAUWeightedElement@?$CvWeightedVector@PAVCvPlot@@$00$00@@XZ
_TEXT	SEGMENT
?end@?$BaseVector@UWeightedElement@?$CvWeightedVector@PAVCvPlot@@$00$00@@$00@@QAEPAUWeightedElement@?$CvWeightedVector@PAVCvPlot@@$00$00@@XZ PROC ; BaseVector<CvWeightedVector<CvPlot *,1,1>::WeightedElement,1>::end, COMDAT
; _this$ = ecx

; 197  :         return m_pData+m_uiCurrSize; 

	mov	eax, DWORD PTR [ecx+4]
	mov	ecx, DWORD PTR [ecx]
	lea	eax, DWORD PTR [ecx+eax*8]

; 198  :     };

	ret	0
?end@?$BaseVector@UWeightedElement@?$CvWeightedVector@PAVCvPlot@@$00$00@@$00@@QAEPAUWeightedElement@?$CvWeightedVector@PAVCvPlot@@$00$00@@XZ ENDP ; BaseVector<CvWeightedVector<CvPlot *,1,1>::WeightedElement,1>::end
_TEXT	ENDS
PUBLIC	??0WeightedElement@?$CvWeightedVector@PAVCvPlot@@$00$00@@QAE@XZ ; CvWeightedVector<CvPlot *,1,1>::WeightedElement::WeightedElement
; Function compile flags: /Ogtpy
; File c:\users\enormousapplepie\desktop\lekmod files\lekmod dll versions\v29\lekmod_dll\cvgamecoredllutil\include\cvweightedvector.h
;	COMDAT ??0WeightedElement@?$CvWeightedVector@PAVCvPlot@@$00$00@@QAE@XZ
_TEXT	SEGMENT
??0WeightedElement@?$CvWeightedVector@PAVCvPlot@@$00$00@@QAE@XZ PROC ; CvWeightedVector<CvPlot *,1,1>::WeightedElement::WeightedElement, COMDAT
; _this$ = ecx

; 31   : 		{

	mov	eax, ecx
	mov	DWORD PTR [eax], 0
	mov	DWORD PTR [eax+4], 0

; 32   : 		}

	ret	0
??0WeightedElement@?$CvWeightedVector@PAVCvPlot@@$00$00@@QAE@XZ ENDP ; CvWeightedVector<CvPlot *,1,1>::WeightedElement::WeightedElement
_TEXT	ENDS
PUBLIC	??0?$_Vector_const_iterator@VCvTacticalUnit@@V?$allocator@VCvTacticalUnit@@@std@@@std@@QAE@XZ ; std::_Vector_const_iterator<CvTacticalUnit,std::allocator<CvTacticalUnit> >::_Vector_const_iterator<CvTacticalUnit,std::allocator<CvTacticalUnit> >
; Function compile flags: /Ogtpy
; File c:\program files (x86)\microsoft visual studio 9.0\vc\include\vector
;	COMDAT ??0?$_Vector_const_iterator@VCvTacticalUnit@@V?$allocator@VCvTacticalUnit@@@std@@@std@@QAE@XZ
_TEXT	SEGMENT
??0?$_Vector_const_iterator@VCvTacticalUnit@@V?$allocator@VCvTacticalUnit@@@std@@@std@@QAE@XZ PROC ; std::_Vector_const_iterator<CvTacticalUnit,std::allocator<CvTacticalUnit> >::_Vector_const_iterator<CvTacticalUnit,std::allocator<CvTacticalUnit> >, COMDAT
; _this$ = ecx

; 62   : 	_Vector_const_iterator()

	mov	eax, ecx

; 63   : 		{	// construct with null pointer
; 64   : 		_Myptr = 0;

	mov	DWORD PTR [eax], 0

; 65   : 		}

	ret	0
??0?$_Vector_const_iterator@VCvTacticalUnit@@V?$allocator@VCvTacticalUnit@@@std@@@std@@QAE@XZ ENDP ; std::_Vector_const_iterator<CvTacticalUnit,std::allocator<CvTacticalUnit> >::_Vector_const_iterator<CvTacticalUnit,std::allocator<CvTacticalUnit> >
_TEXT	ENDS
PUBLIC	??E?$_Vector_const_iterator@VCvTacticalUnit@@V?$allocator@VCvTacticalUnit@@@std@@@std@@QAEAAV01@XZ ; std::_Vector_const_iterator<CvTacticalUnit,std::allocator<CvTacticalUnit> >::operator++
; Function compile flags: /Ogtpy
;	COMDAT ??E?$_Vector_const_iterator@VCvTacticalUnit@@V?$allocator@VCvTacticalUnit@@@std@@@std@@QAEAAV01@XZ
_TEXT	SEGMENT
??E?$_Vector_const_iterator@VCvTacticalUnit@@V?$allocator@VCvTacticalUnit@@@std@@@std@@QAEAAV01@XZ PROC ; std::_Vector_const_iterator<CvTacticalUnit,std::allocator<CvTacticalUnit> >::operator++, COMDAT
; _this$ = ecx

; 115  : 		{	// preincrement

	mov	eax, ecx

; 116  : 		_SCL_SECURE_VALIDATE(this->_Has_container());
; 117  : 		_SCL_SECURE_VALIDATE_RANGE(_Myptr < ((_Myvec *)(this->_Getmycont()))->_Mylast);
; 118  : 
; 119  :  #if _HAS_ITERATOR_DEBUGGING
; 120  : 		if (this->_Mycont == 0
; 121  : 			|| ((_Myvec *)this->_Mycont)->_Mylast <= _Myptr)
; 122  : 			_DEBUG_ERROR("vector iterator not incrementable");
; 123  :  #endif /* _HAS_ITERATOR_DEBUGGING */
; 124  : 
; 125  : 		++_Myptr;

	add	DWORD PTR [eax], 24			; 00000018H

; 126  : 		return (*this);
; 127  : 		}

	ret	0
??E?$_Vector_const_iterator@VCvTacticalUnit@@V?$allocator@VCvTacticalUnit@@@std@@@std@@QAEAAV01@XZ ENDP ; std::_Vector_const_iterator<CvTacticalUnit,std::allocator<CvTacticalUnit> >::operator++
_TEXT	ENDS
PUBLIC	??8?$_Vector_const_iterator@VCvTacticalUnit@@V?$allocator@VCvTacticalUnit@@@std@@@std@@QBE_NABV01@@Z ; std::_Vector_const_iterator<CvTacticalUnit,std::allocator<CvTacticalUnit> >::operator==
; Function compile flags: /Ogtpy
;	COMDAT ??8?$_Vector_const_iterator@VCvTacticalUnit@@V?$allocator@VCvTacticalUnit@@@std@@@std@@QBE_NABV01@@Z
_TEXT	SEGMENT
__Right$ = 8						; size = 4
??8?$_Vector_const_iterator@VCvTacticalUnit@@V?$allocator@VCvTacticalUnit@@@std@@@std@@QBE_NABV01@@Z PROC ; std::_Vector_const_iterator<CvTacticalUnit,std::allocator<CvTacticalUnit> >::operator==, COMDAT
; _this$ = ecx

; 204  : 
; 205  :  #if _HAS_ITERATOR_DEBUGGING
; 206  : 		_Compat(_Right);
; 207  :  #else
; 208  : 		_SCL_SECURE_VALIDATE(this->_Has_container() && this->_Same_container(_Right));
; 209  :  #endif /* _HAS_ITERATOR_DEBUGGING */
; 210  : 
; 211  : 		return (_Myptr == _Right._Myptr);

	mov	eax, DWORD PTR [ecx]
	mov	edx, DWORD PTR __Right$[esp-4]
	xor	ecx, ecx
	cmp	eax, DWORD PTR [edx]
	sete	cl
	mov	al, cl

; 212  : 		}

	ret	4
??8?$_Vector_const_iterator@VCvTacticalUnit@@V?$allocator@VCvTacticalUnit@@@std@@@std@@QBE_NABV01@@Z ENDP ; std::_Vector_const_iterator<CvTacticalUnit,std::allocator<CvTacticalUnit> >::operator==
_TEXT	ENDS
PUBLIC	__TI3?AVlength_error@std@@
PUBLIC	??_C@_0BD@OLBABOEK@vector?$DMT?$DO?5too?5long?$AA@ ; `string'
PUBLIC	?_Xlen@?$vector@PAVCvTacticalMoveXMLEntry@@V?$allocator@PAVCvTacticalMoveXMLEntry@@@std@@@std@@KAXXZ ; std::vector<CvTacticalMoveXMLEntry *,std::allocator<CvTacticalMoveXMLEntry *> >::_Xlen
PUBLIC	__CTA3?AVlength_error@std@@
PUBLIC	__CT??_R0?AVlength_error@std@@@8??0length_error@std@@QAE@ABV01@@Z40
PUBLIC	??0length_error@std@@QAE@ABV01@@Z		; std::length_error::length_error
PUBLIC	__CT??_R0?AVlogic_error@std@@@8??0logic_error@std@@QAE@ABV01@@Z40
PUBLIC	??0logic_error@std@@QAE@ABV01@@Z		; std::logic_error::logic_error
PUBLIC	__CT??_R0?AVexception@std@@@8??0exception@std@@QAE@ABV01@@Z12
EXTRN	__CxxThrowException@8:PROC
EXTRN	??0exception@std@@QAE@ABV01@@Z:PROC		; std::exception::exception
;	COMDAT __CT??_R0?AVexception@std@@@8??0exception@std@@QAE@ABV01@@Z12
; File c:\program files (x86)\microsoft visual studio 9.0\vc\include\stdexcept
xdata$x	SEGMENT
__CT??_R0?AVexception@std@@@8??0exception@std@@QAE@ABV01@@Z12 DD 00H
	DD	FLAT:??_R0?AVexception@std@@@8
	DD	00H
	DD	0ffffffffH
	ORG $+4
	DD	0cH
	DD	FLAT:??0exception@std@@QAE@ABV01@@Z
xdata$x	ENDS
;	COMDAT __CT??_R0?AVlogic_error@std@@@8??0logic_error@std@@QAE@ABV01@@Z40
xdata$x	SEGMENT
__CT??_R0?AVlogic_error@std@@@8??0logic_error@std@@QAE@ABV01@@Z40 DD 00H
	DD	FLAT:??_R0?AVlogic_error@std@@@8
	DD	00H
	DD	0ffffffffH
	ORG $+4
	DD	028H
	DD	FLAT:??0logic_error@std@@QAE@ABV01@@Z
xdata$x	ENDS
;	COMDAT __CT??_R0?AVlength_error@std@@@8??0length_error@std@@QAE@ABV01@@Z40
xdata$x	SEGMENT
__CT??_R0?AVlength_error@std@@@8??0length_error@std@@QAE@ABV01@@Z40 DD 00H
	DD	FLAT:??_R0?AVlength_error@std@@@8
	DD	00H
	DD	0ffffffffH
	ORG $+4
	DD	028H
	DD	FLAT:??0length_error@std@@QAE@ABV01@@Z
xdata$x	ENDS
;	COMDAT __CTA3?AVlength_error@std@@
xdata$x	SEGMENT
__CTA3?AVlength_error@std@@ DD 03H
	DD	FLAT:__CT??_R0?AVlength_error@std@@@8??0length_error@std@@QAE@ABV01@@Z40
	DD	FLAT:__CT??_R0?AVlogic_error@std@@@8??0logic_error@std@@QAE@ABV01@@Z40
	DD	FLAT:__CT??_R0?AVexception@std@@@8??0exception@std@@QAE@ABV01@@Z12
xdata$x	ENDS
;	COMDAT __TI3?AVlength_error@std@@
xdata$x	SEGMENT
__TI3?AVlength_error@std@@ DD 00H
	DD	FLAT:??1length_error@std@@UAE@XZ
	DD	00H
	DD	FLAT:__CTA3?AVlength_error@std@@
xdata$x	ENDS
;	COMDAT ??_C@_0BD@OLBABOEK@vector?$DMT?$DO?5too?5long?$AA@
CONST	SEGMENT
??_C@_0BD@OLBABOEK@vector?$DMT?$DO?5too?5long?$AA@ DB 'vector<T> too long'
	DB	00H						; `string'
CONST	ENDS
;	COMDAT xdata$x
xdata$x	SEGMENT
__unwindtable$?_Xlen@?$vector@PAVCvTacticalMoveXMLEntry@@V?$allocator@PAVCvTacticalMoveXMLEntry@@@std@@@std@@KAXXZ DD 0ffffffffH
	DD	FLAT:__unwindfunclet$?_Xlen@?$vector@PAVCvTacticalMoveXMLEntry@@V?$allocator@PAVCvTacticalMoveXMLEntry@@@std@@@std@@KAXXZ$0
	DD	00H
	DD	FLAT:__unwindfunclet$?_Xlen@?$vector@PAVCvTacticalMoveXMLEntry@@V?$allocator@PAVCvTacticalMoveXMLEntry@@@std@@@std@@KAXXZ$2
__ehfuncinfo$?_Xlen@?$vector@PAVCvTacticalMoveXMLEntry@@V?$allocator@PAVCvTacticalMoveXMLEntry@@@std@@@std@@KAXXZ DD 019930522H
	DD	02H
	DD	FLAT:__unwindtable$?_Xlen@?$vector@PAVCvTacticalMoveXMLEntry@@V?$allocator@PAVCvTacticalMoveXMLEntry@@@std@@@std@@KAXXZ
	DD	2 DUP(00H)
	DD	2 DUP(00H)
	DD	00H
	DD	01H
; Function compile flags: /Ogtpy
; File c:\program files (x86)\microsoft visual studio 9.0\vc\include\vector
xdata$x	ENDS
;	COMDAT ?_Xlen@?$vector@PAVCvTacticalMoveXMLEntry@@V?$allocator@PAVCvTacticalMoveXMLEntry@@@std@@@std@@KAXXZ
_TEXT	SEGMENT
$T238464 = -80						; size = 28
$T238463 = -52						; size = 40
__$EHRec$ = -12						; size = 12
?_Xlen@?$vector@PAVCvTacticalMoveXMLEntry@@V?$allocator@PAVCvTacticalMoveXMLEntry@@@std@@@std@@KAXXZ PROC ; std::vector<CvTacticalMoveXMLEntry *,std::allocator<CvTacticalMoveXMLEntry *> >::_Xlen, COMDAT

; 1259 : 		{	// report a length_error

	push	-1
	push	__ehhandler$?_Xlen@?$vector@PAVCvTacticalMoveXMLEntry@@V?$allocator@PAVCvTacticalMoveXMLEntry@@@std@@@std@@KAXXZ
	mov	eax, DWORD PTR fs:0
	push	eax
	mov	DWORD PTR fs:0, esp
	sub	esp, 68					; 00000044H

; 1260 : 		_THROW(length_error, "vector<T> too long");

	push	OFFSET ??_C@_0BD@OLBABOEK@vector?$DMT?$DO?5too?5long?$AA@
	lea	ecx, DWORD PTR $T238464[esp+84]
	call	DWORD PTR __imp_??0?$basic_string@DU?$char_traits@D@std@@V?$allocator@D@2@@std@@QAE@PBD@Z
	lea	ecx, DWORD PTR $T238463[esp+80]
	mov	DWORD PTR __$EHRec$[esp+88], 0
	call	DWORD PTR __imp_??0exception@std@@QAE@XZ
	lea	eax, DWORD PTR $T238464[esp+80]
	push	eax
	lea	ecx, DWORD PTR $T238463[esp+96]
	mov	BYTE PTR __$EHRec$[esp+92], 1
	mov	DWORD PTR $T238463[esp+84], OFFSET ??_7logic_error@std@@6B@
	call	DWORD PTR __imp_??0?$basic_string@DU?$char_traits@D@std@@V?$allocator@D@2@@std@@QAE@ABV01@@Z
	push	OFFSET __TI3?AVlength_error@std@@
	lea	ecx, DWORD PTR $T238463[esp+84]
	push	ecx
	mov	BYTE PTR __$EHRec$[esp+96], 0
	mov	DWORD PTR $T238463[esp+88], OFFSET ??_7length_error@std@@6B@
	call	__CxxThrowException@8
$LN13@Xlen:
$LN12@Xlen:
	int	3
_TEXT	ENDS
;	COMDAT text$x
text$x	SEGMENT
__unwindfunclet$?_Xlen@?$vector@PAVCvTacticalMoveXMLEntry@@V?$allocator@PAVCvTacticalMoveXMLEntry@@@std@@@std@@KAXXZ$0:
	lea	ecx, DWORD PTR $T238464[ebp]
	jmp	DWORD PTR __imp_??1?$basic_string@DU?$char_traits@D@std@@V?$allocator@D@2@@std@@QAE@XZ
__unwindfunclet$?_Xlen@?$vector@PAVCvTacticalMoveXMLEntry@@V?$allocator@PAVCvTacticalMoveXMLEntry@@@std@@@std@@KAXXZ$2:
	lea	ecx, DWORD PTR $T238463[ebp]
	jmp	DWORD PTR __imp_??1exception@std@@UAE@XZ
__ehhandler$?_Xlen@?$vector@PAVCvTacticalMoveXMLEntry@@V?$allocator@PAVCvTacticalMoveXMLEntry@@@std@@@std@@KAXXZ:
	mov	eax, OFFSET __ehfuncinfo$?_Xlen@?$vector@PAVCvTacticalMoveXMLEntry@@V?$allocator@PAVCvTacticalMoveXMLEntry@@@std@@@std@@KAXXZ
	jmp	___CxxFrameHandler3
text$x	ENDS
?_Xlen@?$vector@PAVCvTacticalMoveXMLEntry@@V?$allocator@PAVCvTacticalMoveXMLEntry@@@std@@@std@@KAXXZ ENDP ; std::vector<CvTacticalMoveXMLEntry *,std::allocator<CvTacticalMoveXMLEntry *> >::_Xlen
EXTRN	__imp_??0exception@std@@QAE@ABV01@@Z:PROC
;	COMDAT xdata$x
xdata$x	SEGMENT
__unwindtable$??0logic_error@std@@QAE@ABV01@@Z DD 0ffffffffH
	DD	FLAT:__unwindfunclet$??0logic_error@std@@QAE@ABV01@@Z$0
__ehfuncinfo$??0logic_error@std@@QAE@ABV01@@Z DD 019930522H
	DD	01H
	DD	FLAT:__unwindtable$??0logic_error@std@@QAE@ABV01@@Z
	DD	2 DUP(00H)
	DD	2 DUP(00H)
	DD	00H
	DD	01H
; Function compile flags: /Ogtpy
xdata$x	ENDS
;	COMDAT ??0logic_error@std@@QAE@ABV01@@Z
_TEXT	SEGMENT
_this$ = -16						; size = 4
__$EHRec$ = -12						; size = 12
___that$ = 8						; size = 4
??0logic_error@std@@QAE@ABV01@@Z PROC			; std::logic_error::logic_error, COMDAT
; _this$ = ecx
	push	-1
	push	__ehhandler$??0logic_error@std@@QAE@ABV01@@Z
	mov	eax, DWORD PTR fs:0
	push	eax
	mov	DWORD PTR fs:0, esp
	push	ecx
	push	esi
	push	edi
	mov	edi, DWORD PTR ___that$[esp+20]
	mov	esi, ecx
	push	edi
	mov	DWORD PTR _this$[esp+28], esi
	call	DWORD PTR __imp_??0exception@std@@QAE@ABV01@@Z
	add	edi, 12					; 0000000cH
	push	edi
	lea	ecx, DWORD PTR [esi+12]
	mov	DWORD PTR __$EHRec$[esp+36], 0
	mov	DWORD PTR [esi], OFFSET ??_7logic_error@std@@6B@
	call	DWORD PTR __imp_??0?$basic_string@DU?$char_traits@D@std@@V?$allocator@D@2@@std@@QAE@ABV01@@Z
	mov	ecx, DWORD PTR __$EHRec$[esp+24]
	pop	edi
	mov	eax, esi
	pop	esi
	mov	DWORD PTR fs:0, ecx
	add	esp, 16					; 00000010H
	ret	4
_TEXT	ENDS
;	COMDAT text$x
text$x	SEGMENT
__unwindfunclet$??0logic_error@std@@QAE@ABV01@@Z$0:
	mov	ecx, DWORD PTR _this$[ebp]
	jmp	DWORD PTR __imp_??1exception@std@@UAE@XZ
__ehhandler$??0logic_error@std@@QAE@ABV01@@Z:
	mov	eax, OFFSET __ehfuncinfo$??0logic_error@std@@QAE@ABV01@@Z
	jmp	___CxxFrameHandler3
text$x	ENDS
??0logic_error@std@@QAE@ABV01@@Z ENDP			; std::logic_error::logic_error
PUBLIC	??0?$_Container_base_aux_alloc_empty@V?$allocator@PAVCvTacticalMoveXMLEntry@@@std@@@std@@IAE@V?$allocator@PAVCvTacticalMoveXMLEntry@@@1@@Z ; std::_Container_base_aux_alloc_empty<std::allocator<CvTacticalMoveXMLEntry *> >::_Container_base_aux_alloc_empty<std::allocator<CvTacticalMoveXMLEntry *> >
; Function compile flags: /Ogtpy
; File c:\program files (x86)\microsoft visual studio 9.0\vc\include\xutility
;	COMDAT ??0?$_Container_base_aux_alloc_empty@V?$allocator@PAVCvTacticalMoveXMLEntry@@@std@@@std@@IAE@V?$allocator@PAVCvTacticalMoveXMLEntry@@@1@@Z
_TEXT	SEGMENT
___formal$ = 8						; size = 1
??0?$_Container_base_aux_alloc_empty@V?$allocator@PAVCvTacticalMoveXMLEntry@@@std@@@std@@IAE@V?$allocator@PAVCvTacticalMoveXMLEntry@@@1@@Z PROC ; std::_Container_base_aux_alloc_empty<std::allocator<CvTacticalMoveXMLEntry *> >::_Container_base_aux_alloc_empty<std::allocator<CvTacticalMoveXMLEntry *> >, COMDAT
; _this$ = ecx

; 618  : 	explicit _Container_base_aux_alloc_empty(_Alloc) { }

	mov	eax, ecx
	ret	4
??0?$_Container_base_aux_alloc_empty@V?$allocator@PAVCvTacticalMoveXMLEntry@@@std@@@std@@IAE@V?$allocator@PAVCvTacticalMoveXMLEntry@@@1@@Z ENDP ; std::_Container_base_aux_alloc_empty<std::allocator<CvTacticalMoveXMLEntry *> >::_Container_base_aux_alloc_empty<std::allocator<CvTacticalMoveXMLEntry *> >
_TEXT	ENDS
PUBLIC	??0?$allocator@PAVCvTacticalMoveXMLEntry@@@std@@QAE@ABV01@@Z ; std::allocator<CvTacticalMoveXMLEntry *>::allocator<CvTacticalMoveXMLEntry *>
; Function compile flags: /Ogtpy
; File c:\program files (x86)\microsoft visual studio 9.0\vc\include\xmemory
;	COMDAT ??0?$allocator@PAVCvTacticalMoveXMLEntry@@@std@@QAE@ABV01@@Z
_TEXT	SEGMENT
___formal$ = 8						; size = 4
??0?$allocator@PAVCvTacticalMoveXMLEntry@@@std@@QAE@ABV01@@Z PROC ; std::allocator<CvTacticalMoveXMLEntry *>::allocator<CvTacticalMoveXMLEntry *>, COMDAT
; _this$ = ecx

; 123  : 	allocator(const allocator<_Ty>&) _THROW0()

	mov	eax, ecx

; 124  : 		{	// construct by copying (do nothing)
; 125  : 		}

	ret	4
??0?$allocator@PAVCvTacticalMoveXMLEntry@@@std@@QAE@ABV01@@Z ENDP ; std::allocator<CvTacticalMoveXMLEntry *>::allocator<CvTacticalMoveXMLEntry *>
_TEXT	ENDS
PUBLIC	?deallocate@?$allocator@PAVCvTacticalMoveXMLEntry@@@std@@QAEXPAPAVCvTacticalMoveXMLEntry@@I@Z ; std::allocator<CvTacticalMoveXMLEntry *>::deallocate
; Function compile flags: /Ogtpy
;	COMDAT ?deallocate@?$allocator@PAVCvTacticalMoveXMLEntry@@@std@@QAEXPAPAVCvTacticalMoveXMLEntry@@I@Z
_TEXT	SEGMENT
__Ptr$ = 8						; size = 4
___formal$ = 12						; size = 4
?deallocate@?$allocator@PAVCvTacticalMoveXMLEntry@@@std@@QAEXPAPAVCvTacticalMoveXMLEntry@@I@Z PROC ; std::allocator<CvTacticalMoveXMLEntry *>::deallocate, COMDAT
; _this$ = ecx

; 140  : 		::operator delete(_Ptr);

	mov	eax, DWORD PTR __Ptr$[esp-4]
	push	eax
	call	??3@YAXPAX@Z				; operator delete
	pop	ecx

; 141  : 		}

	ret	8
?deallocate@?$allocator@PAVCvTacticalMoveXMLEntry@@@std@@QAEXPAPAVCvTacticalMoveXMLEntry@@I@Z ENDP ; std::allocator<CvTacticalMoveXMLEntry *>::deallocate
_TEXT	ENDS
PUBLIC	?_Myval@?$list@HV?$allocator@H@std@@@std@@KAAAHPAU_Node@?$_List_nod@HV?$allocator@H@std@@@2@@Z ; std::list<int,std::allocator<int> >::_Myval
; Function compile flags: /Ogtpy
; File c:\program files (x86)\microsoft visual studio 9.0\vc\include\list
;	COMDAT ?_Myval@?$list@HV?$allocator@H@std@@@std@@KAAAHPAU_Node@?$_List_nod@HV?$allocator@H@std@@@2@@Z
_TEXT	SEGMENT
__Pnode$ = 8						; size = 4
?_Myval@?$list@HV?$allocator@H@std@@@std@@KAAAHPAU_Node@?$_List_nod@HV?$allocator@H@std@@@2@@Z PROC ; std::list<int,std::allocator<int> >::_Myval, COMDAT

; 125  : 		return ((_Vref)(*_Pnode)._Myval);

	mov	eax, DWORD PTR __Pnode$[esp-4]
	add	eax, 8

; 126  : 		}

	ret	0
?_Myval@?$list@HV?$allocator@H@std@@@std@@KAAAHPAU_Node@?$_List_nod@HV?$allocator@H@std@@@2@@Z ENDP ; std::list<int,std::allocator<int> >::_Myval
_TEXT	ENDS
PUBLIC	?_Xlen@?$vector@VCvTacticalUnit@@V?$allocator@VCvTacticalUnit@@@std@@@std@@KAXXZ ; std::vector<CvTacticalUnit,std::allocator<CvTacticalUnit> >::_Xlen
;	COMDAT xdata$x
; File c:\program files (x86)\microsoft visual studio 9.0\vc\include\stdexcept
xdata$x	SEGMENT
__unwindtable$?_Xlen@?$vector@VCvTacticalUnit@@V?$allocator@VCvTacticalUnit@@@std@@@std@@KAXXZ DD 0ffffffffH
	DD	FLAT:__unwindfunclet$?_Xlen@?$vector@VCvTacticalUnit@@V?$allocator@VCvTacticalUnit@@@std@@@std@@KAXXZ$0
	DD	00H
	DD	FLAT:__unwindfunclet$?_Xlen@?$vector@VCvTacticalUnit@@V?$allocator@VCvTacticalUnit@@@std@@@std@@KAXXZ$2
__ehfuncinfo$?_Xlen@?$vector@VCvTacticalUnit@@V?$allocator@VCvTacticalUnit@@@std@@@std@@KAXXZ DD 019930522H
	DD	02H
	DD	FLAT:__unwindtable$?_Xlen@?$vector@VCvTacticalUnit@@V?$allocator@VCvTacticalUnit@@@std@@@std@@KAXXZ
	DD	2 DUP(00H)
	DD	2 DUP(00H)
	DD	00H
	DD	01H
; Function compile flags: /Ogtpy
; File c:\program files (x86)\microsoft visual studio 9.0\vc\include\vector
xdata$x	ENDS
;	COMDAT ?_Xlen@?$vector@VCvTacticalUnit@@V?$allocator@VCvTacticalUnit@@@std@@@std@@KAXXZ
_TEXT	SEGMENT
$T238513 = -80						; size = 28
$T238512 = -52						; size = 40
__$EHRec$ = -12						; size = 12
?_Xlen@?$vector@VCvTacticalUnit@@V?$allocator@VCvTacticalUnit@@@std@@@std@@KAXXZ PROC ; std::vector<CvTacticalUnit,std::allocator<CvTacticalUnit> >::_Xlen, COMDAT

; 1259 : 		{	// report a length_error

	push	-1
	push	__ehhandler$?_Xlen@?$vector@VCvTacticalUnit@@V?$allocator@VCvTacticalUnit@@@std@@@std@@KAXXZ
	mov	eax, DWORD PTR fs:0
	push	eax
	mov	DWORD PTR fs:0, esp
	sub	esp, 68					; 00000044H

; 1260 : 		_THROW(length_error, "vector<T> too long");

	push	OFFSET ??_C@_0BD@OLBABOEK@vector?$DMT?$DO?5too?5long?$AA@
	lea	ecx, DWORD PTR $T238513[esp+84]
	call	DWORD PTR __imp_??0?$basic_string@DU?$char_traits@D@std@@V?$allocator@D@2@@std@@QAE@PBD@Z
	lea	ecx, DWORD PTR $T238512[esp+80]
	mov	DWORD PTR __$EHRec$[esp+88], 0
	call	DWORD PTR __imp_??0exception@std@@QAE@XZ
	lea	eax, DWORD PTR $T238513[esp+80]
	push	eax
	lea	ecx, DWORD PTR $T238512[esp+96]
	mov	BYTE PTR __$EHRec$[esp+92], 1
	mov	DWORD PTR $T238512[esp+84], OFFSET ??_7logic_error@std@@6B@
	call	DWORD PTR __imp_??0?$basic_string@DU?$char_traits@D@std@@V?$allocator@D@2@@std@@QAE@ABV01@@Z
	push	OFFSET __TI3?AVlength_error@std@@
	lea	ecx, DWORD PTR $T238512[esp+84]
	push	ecx
	mov	BYTE PTR __$EHRec$[esp+96], 0
	mov	DWORD PTR $T238512[esp+88], OFFSET ??_7length_error@std@@6B@
	call	__CxxThrowException@8
$LN13@Xlen@2:
$LN12@Xlen@2:
	int	3
_TEXT	ENDS
;	COMDAT text$x
text$x	SEGMENT
__unwindfunclet$?_Xlen@?$vector@VCvTacticalUnit@@V?$allocator@VCvTacticalUnit@@@std@@@std@@KAXXZ$0:
	lea	ecx, DWORD PTR $T238513[ebp]
	jmp	DWORD PTR __imp_??1?$basic_string@DU?$char_traits@D@std@@V?$allocator@D@2@@std@@QAE@XZ
__unwindfunclet$?_Xlen@?$vector@VCvTacticalUnit@@V?$allocator@VCvTacticalUnit@@@std@@@std@@KAXXZ$2:
	lea	ecx, DWORD PTR $T238512[ebp]
	jmp	DWORD PTR __imp_??1exception@std@@UAE@XZ
__ehhandler$?_Xlen@?$vector@VCvTacticalUnit@@V?$allocator@VCvTacticalUnit@@@std@@@std@@KAXXZ:
	mov	eax, OFFSET __ehfuncinfo$?_Xlen@?$vector@VCvTacticalUnit@@V?$allocator@VCvTacticalUnit@@@std@@@std@@KAXXZ
	jmp	___CxxFrameHandler3
text$x	ENDS
?_Xlen@?$vector@VCvTacticalUnit@@V?$allocator@VCvTacticalUnit@@@std@@@std@@KAXXZ ENDP ; std::vector<CvTacticalUnit,std::allocator<CvTacticalUnit> >::_Xlen
PUBLIC	??0?$_Container_base_aux_alloc_empty@V?$allocator@VCvTacticalUnit@@@std@@@std@@IAE@V?$allocator@VCvTacticalUnit@@@1@@Z ; std::_Container_base_aux_alloc_empty<std::allocator<CvTacticalUnit> >::_Container_base_aux_alloc_empty<std::allocator<CvTacticalUnit> >
; Function compile flags: /Ogtpy
; File c:\program files (x86)\microsoft visual studio 9.0\vc\include\xutility
;	COMDAT ??0?$_Container_base_aux_alloc_empty@V?$allocator@VCvTacticalUnit@@@std@@@std@@IAE@V?$allocator@VCvTacticalUnit@@@1@@Z
_TEXT	SEGMENT
___formal$ = 8						; size = 1
??0?$_Container_base_aux_alloc_empty@V?$allocator@VCvTacticalUnit@@@std@@@std@@IAE@V?$allocator@VCvTacticalUnit@@@1@@Z PROC ; std::_Container_base_aux_alloc_empty<std::allocator<CvTacticalUnit> >::_Container_base_aux_alloc_empty<std::allocator<CvTacticalUnit> >, COMDAT
; _this$ = ecx

; 618  : 	explicit _Container_base_aux_alloc_empty(_Alloc) { }

	mov	eax, ecx
	ret	4
??0?$_Container_base_aux_alloc_empty@V?$allocator@VCvTacticalUnit@@@std@@@std@@IAE@V?$allocator@VCvTacticalUnit@@@1@@Z ENDP ; std::_Container_base_aux_alloc_empty<std::allocator<CvTacticalUnit> >::_Container_base_aux_alloc_empty<std::allocator<CvTacticalUnit> >
_TEXT	ENDS
PUBLIC	??0?$allocator@VCvTacticalUnit@@@std@@QAE@ABV01@@Z ; std::allocator<CvTacticalUnit>::allocator<CvTacticalUnit>
; Function compile flags: /Ogtpy
; File c:\program files (x86)\microsoft visual studio 9.0\vc\include\xmemory
;	COMDAT ??0?$allocator@VCvTacticalUnit@@@std@@QAE@ABV01@@Z
_TEXT	SEGMENT
___formal$ = 8						; size = 4
??0?$allocator@VCvTacticalUnit@@@std@@QAE@ABV01@@Z PROC	; std::allocator<CvTacticalUnit>::allocator<CvTacticalUnit>, COMDAT
; _this$ = ecx

; 123  : 	allocator(const allocator<_Ty>&) _THROW0()

	mov	eax, ecx

; 124  : 		{	// construct by copying (do nothing)
; 125  : 		}

	ret	4
??0?$allocator@VCvTacticalUnit@@@std@@QAE@ABV01@@Z ENDP	; std::allocator<CvTacticalUnit>::allocator<CvTacticalUnit>
_TEXT	ENDS
PUBLIC	?deallocate@?$allocator@VCvTacticalUnit@@@std@@QAEXPAVCvTacticalUnit@@I@Z ; std::allocator<CvTacticalUnit>::deallocate
; Function compile flags: /Ogtpy
;	COMDAT ?deallocate@?$allocator@VCvTacticalUnit@@@std@@QAEXPAVCvTacticalUnit@@I@Z
_TEXT	SEGMENT
__Ptr$ = 8						; size = 4
___formal$ = 12						; size = 4
?deallocate@?$allocator@VCvTacticalUnit@@@std@@QAEXPAVCvTacticalUnit@@I@Z PROC ; std::allocator<CvTacticalUnit>::deallocate, COMDAT
; _this$ = ecx

; 140  : 		::operator delete(_Ptr);

	mov	eax, DWORD PTR __Ptr$[esp-4]
	push	eax
	call	??3@YAXPAX@Z				; operator delete
	pop	ecx

; 141  : 		}

	ret	8
?deallocate@?$allocator@VCvTacticalUnit@@@std@@QAEXPAVCvTacticalUnit@@I@Z ENDP ; std::allocator<CvTacticalUnit>::deallocate
_TEXT	ENDS
PUBLIC	?getAI_TACTICAL_FLAVOR_DAMPENING_FOR_MOVE_PRIORITIZATION@CvGlobals@@QAEMXZ ; CvGlobals::getAI_TACTICAL_FLAVOR_DAMPENING_FOR_MOVE_PRIORITIZATION
EXTRN	__fltused:DWORD
; Function compile flags: /Ogtpy
; File c:\users\enormousapplepie\desktop\lekmod files\lekmod dll versions\v29\lekmod_dll\cvgamecoredll_expansion2\cvglobals.h
;	COMDAT ?getAI_TACTICAL_FLAVOR_DAMPENING_FOR_MOVE_PRIORITIZATION@CvGlobals@@QAEMXZ
_TEXT	SEGMENT
?getAI_TACTICAL_FLAVOR_DAMPENING_FOR_MOVE_PRIORITIZATION@CvGlobals@@QAEMXZ PROC ; CvGlobals::getAI_TACTICAL_FLAVOR_DAMPENING_FOR_MOVE_PRIORITIZATION, COMDAT
; _this$ = ecx

; 7112 : 		return m_fAI_TACTICAL_FLAVOR_DAMPENING_FOR_MOVE_PRIORITIZATION;

	fld	DWORD PTR [ecx+8100]

; 7113 : 	}

	ret	0
?getAI_TACTICAL_FLAVOR_DAMPENING_FOR_MOVE_PRIORITIZATION@CvGlobals@@QAEMXZ ENDP ; CvGlobals::getAI_TACTICAL_FLAVOR_DAMPENING_FOR_MOVE_PRIORITIZATION
_TEXT	ENDS
PUBLIC	?_Xlen@?$vector@VCvTacticalCity@@V?$allocator@VCvTacticalCity@@@std@@@std@@KAXXZ ; std::vector<CvTacticalCity,std::allocator<CvTacticalCity> >::_Xlen
;	COMDAT xdata$x
; File c:\program files (x86)\microsoft visual studio 9.0\vc\include\stdexcept
xdata$x	SEGMENT
__unwindtable$?_Xlen@?$vector@VCvTacticalCity@@V?$allocator@VCvTacticalCity@@@std@@@std@@KAXXZ DD 0ffffffffH
	DD	FLAT:__unwindfunclet$?_Xlen@?$vector@VCvTacticalCity@@V?$allocator@VCvTacticalCity@@@std@@@std@@KAXXZ$0
	DD	00H
	DD	FLAT:__unwindfunclet$?_Xlen@?$vector@VCvTacticalCity@@V?$allocator@VCvTacticalCity@@@std@@@std@@KAXXZ$2
__ehfuncinfo$?_Xlen@?$vector@VCvTacticalCity@@V?$allocator@VCvTacticalCity@@@std@@@std@@KAXXZ DD 019930522H
	DD	02H
	DD	FLAT:__unwindtable$?_Xlen@?$vector@VCvTacticalCity@@V?$allocator@VCvTacticalCity@@@std@@@std@@KAXXZ
	DD	2 DUP(00H)
	DD	2 DUP(00H)
	DD	00H
	DD	01H
; Function compile flags: /Ogtpy
; File c:\program files (x86)\microsoft visual studio 9.0\vc\include\vector
xdata$x	ENDS
;	COMDAT ?_Xlen@?$vector@VCvTacticalCity@@V?$allocator@VCvTacticalCity@@@std@@@std@@KAXXZ
_TEXT	SEGMENT
$T238551 = -80						; size = 28
$T238550 = -52						; size = 40
__$EHRec$ = -12						; size = 12
?_Xlen@?$vector@VCvTacticalCity@@V?$allocator@VCvTacticalCity@@@std@@@std@@KAXXZ PROC ; std::vector<CvTacticalCity,std::allocator<CvTacticalCity> >::_Xlen, COMDAT

; 1259 : 		{	// report a length_error

	push	-1
	push	__ehhandler$?_Xlen@?$vector@VCvTacticalCity@@V?$allocator@VCvTacticalCity@@@std@@@std@@KAXXZ
	mov	eax, DWORD PTR fs:0
	push	eax
	mov	DWORD PTR fs:0, esp
	sub	esp, 68					; 00000044H

; 1260 : 		_THROW(length_error, "vector<T> too long");

	push	OFFSET ??_C@_0BD@OLBABOEK@vector?$DMT?$DO?5too?5long?$AA@
	lea	ecx, DWORD PTR $T238551[esp+84]
	call	DWORD PTR __imp_??0?$basic_string@DU?$char_traits@D@std@@V?$allocator@D@2@@std@@QAE@PBD@Z
	lea	ecx, DWORD PTR $T238550[esp+80]
	mov	DWORD PTR __$EHRec$[esp+88], 0
	call	DWORD PTR __imp_??0exception@std@@QAE@XZ
	lea	eax, DWORD PTR $T238551[esp+80]
	push	eax
	lea	ecx, DWORD PTR $T238550[esp+96]
	mov	BYTE PTR __$EHRec$[esp+92], 1
	mov	DWORD PTR $T238550[esp+84], OFFSET ??_7logic_error@std@@6B@
	call	DWORD PTR __imp_??0?$basic_string@DU?$char_traits@D@std@@V?$allocator@D@2@@std@@QAE@ABV01@@Z
	push	OFFSET __TI3?AVlength_error@std@@
	lea	ecx, DWORD PTR $T238550[esp+84]
	push	ecx
	mov	BYTE PTR __$EHRec$[esp+96], 0
	mov	DWORD PTR $T238550[esp+88], OFFSET ??_7length_error@std@@6B@
	call	__CxxThrowException@8
$LN13@Xlen@3:
$LN12@Xlen@3:
	int	3
_TEXT	ENDS
;	COMDAT text$x
text$x	SEGMENT
__unwindfunclet$?_Xlen@?$vector@VCvTacticalCity@@V?$allocator@VCvTacticalCity@@@std@@@std@@KAXXZ$0:
	lea	ecx, DWORD PTR $T238551[ebp]
	jmp	DWORD PTR __imp_??1?$basic_string@DU?$char_traits@D@std@@V?$allocator@D@2@@std@@QAE@XZ
__unwindfunclet$?_Xlen@?$vector@VCvTacticalCity@@V?$allocator@VCvTacticalCity@@@std@@@std@@KAXXZ$2:
	lea	ecx, DWORD PTR $T238550[ebp]
	jmp	DWORD PTR __imp_??1exception@std@@UAE@XZ
__ehhandler$?_Xlen@?$vector@VCvTacticalCity@@V?$allocator@VCvTacticalCity@@@std@@@std@@KAXXZ:
	mov	eax, OFFSET __ehfuncinfo$?_Xlen@?$vector@VCvTacticalCity@@V?$allocator@VCvTacticalCity@@@std@@@std@@KAXXZ
	jmp	___CxxFrameHandler3
text$x	ENDS
?_Xlen@?$vector@VCvTacticalCity@@V?$allocator@VCvTacticalCity@@@std@@@std@@KAXXZ ENDP ; std::vector<CvTacticalCity,std::allocator<CvTacticalCity> >::_Xlen
PUBLIC	??0?$_Container_base_aux_alloc_empty@V?$allocator@VCvTacticalCity@@@std@@@std@@IAE@V?$allocator@VCvTacticalCity@@@1@@Z ; std::_Container_base_aux_alloc_empty<std::allocator<CvTacticalCity> >::_Container_base_aux_alloc_empty<std::allocator<CvTacticalCity> >
; Function compile flags: /Ogtpy
; File c:\program files (x86)\microsoft visual studio 9.0\vc\include\xutility
;	COMDAT ??0?$_Container_base_aux_alloc_empty@V?$allocator@VCvTacticalCity@@@std@@@std@@IAE@V?$allocator@VCvTacticalCity@@@1@@Z
_TEXT	SEGMENT
___formal$ = 8						; size = 1
??0?$_Container_base_aux_alloc_empty@V?$allocator@VCvTacticalCity@@@std@@@std@@IAE@V?$allocator@VCvTacticalCity@@@1@@Z PROC ; std::_Container_base_aux_alloc_empty<std::allocator<CvTacticalCity> >::_Container_base_aux_alloc_empty<std::allocator<CvTacticalCity> >, COMDAT
; _this$ = ecx

; 618  : 	explicit _Container_base_aux_alloc_empty(_Alloc) { }

	mov	eax, ecx
	ret	4
??0?$_Container_base_aux_alloc_empty@V?$allocator@VCvTacticalCity@@@std@@@std@@IAE@V?$allocator@VCvTacticalCity@@@1@@Z ENDP ; std::_Container_base_aux_alloc_empty<std::allocator<CvTacticalCity> >::_Container_base_aux_alloc_empty<std::allocator<CvTacticalCity> >
_TEXT	ENDS
PUBLIC	??0?$allocator@VCvTacticalCity@@@std@@QAE@ABV01@@Z ; std::allocator<CvTacticalCity>::allocator<CvTacticalCity>
; Function compile flags: /Ogtpy
; File c:\program files (x86)\microsoft visual studio 9.0\vc\include\xmemory
;	COMDAT ??0?$allocator@VCvTacticalCity@@@std@@QAE@ABV01@@Z
_TEXT	SEGMENT
___formal$ = 8						; size = 4
??0?$allocator@VCvTacticalCity@@@std@@QAE@ABV01@@Z PROC	; std::allocator<CvTacticalCity>::allocator<CvTacticalCity>, COMDAT
; _this$ = ecx

; 123  : 	allocator(const allocator<_Ty>&) _THROW0()

	mov	eax, ecx

; 124  : 		{	// construct by copying (do nothing)
; 125  : 		}

	ret	4
??0?$allocator@VCvTacticalCity@@@std@@QAE@ABV01@@Z ENDP	; std::allocator<CvTacticalCity>::allocator<CvTacticalCity>
_TEXT	ENDS
PUBLIC	?deallocate@?$allocator@VCvTacticalCity@@@std@@QAEXPAVCvTacticalCity@@I@Z ; std::allocator<CvTacticalCity>::deallocate
; Function compile flags: /Ogtpy
;	COMDAT ?deallocate@?$allocator@VCvTacticalCity@@@std@@QAEXPAVCvTacticalCity@@I@Z
_TEXT	SEGMENT
__Ptr$ = 8						; size = 4
___formal$ = 12						; size = 4
?deallocate@?$allocator@VCvTacticalCity@@@std@@QAEXPAVCvTacticalCity@@I@Z PROC ; std::allocator<CvTacticalCity>::deallocate, COMDAT
; _this$ = ecx

; 140  : 		::operator delete(_Ptr);

	mov	eax, DWORD PTR __Ptr$[esp-4]
	push	eax
	call	??3@YAXPAX@Z				; operator delete
	pop	ecx

; 141  : 		}

	ret	8
?deallocate@?$allocator@VCvTacticalCity@@@std@@QAEXPAVCvTacticalCity@@I@Z ENDP ; std::allocator<CvTacticalCity>::deallocate
_TEXT	ENDS
PUBLIC	?_Myval@?$list@VCvQueuedAttack@@V?$allocator@VCvQueuedAttack@@@std@@@std@@KAAAVCvQueuedAttack@@PAU_Node@?$_List_nod@VCvQueuedAttack@@V?$allocator@VCvQueuedAttack@@@std@@@2@@Z ; std::list<CvQueuedAttack,std::allocator<CvQueuedAttack> >::_Myval
; Function compile flags: /Ogtpy
; File c:\program files (x86)\microsoft visual studio 9.0\vc\include\list
;	COMDAT ?_Myval@?$list@VCvQueuedAttack@@V?$allocator@VCvQueuedAttack@@@std@@@std@@KAAAVCvQueuedAttack@@PAU_Node@?$_List_nod@VCvQueuedAttack@@V?$allocator@VCvQueuedAttack@@@std@@@2@@Z
_TEXT	SEGMENT
__Pnode$ = 8						; size = 4
?_Myval@?$list@VCvQueuedAttack@@V?$allocator@VCvQueuedAttack@@@std@@@std@@KAAAVCvQueuedAttack@@PAU_Node@?$_List_nod@VCvQueuedAttack@@V?$allocator@VCvQueuedAttack@@@std@@@2@@Z PROC ; std::list<CvQueuedAttack,std::allocator<CvQueuedAttack> >::_Myval, COMDAT

; 125  : 		return ((_Vref)(*_Pnode)._Myval);

	mov	eax, DWORD PTR __Pnode$[esp-4]
	add	eax, 8

; 126  : 		}

	ret	0
?_Myval@?$list@VCvQueuedAttack@@V?$allocator@VCvQueuedAttack@@@std@@@std@@KAAAVCvQueuedAttack@@PAU_Node@?$_List_nod@VCvQueuedAttack@@V?$allocator@VCvQueuedAttack@@@std@@@2@@Z ENDP ; std::list<CvQueuedAttack,std::allocator<CvQueuedAttack> >::_Myval
_TEXT	ENDS
PUBLIC	??0?$allocator@VCvQueuedAttack@@@std@@QAE@ABV01@@Z ; std::allocator<CvQueuedAttack>::allocator<CvQueuedAttack>
; Function compile flags: /Ogtpy
; File c:\program files (x86)\microsoft visual studio 9.0\vc\include\xmemory
;	COMDAT ??0?$allocator@VCvQueuedAttack@@@std@@QAE@ABV01@@Z
_TEXT	SEGMENT
___formal$ = 8						; size = 4
??0?$allocator@VCvQueuedAttack@@@std@@QAE@ABV01@@Z PROC	; std::allocator<CvQueuedAttack>::allocator<CvQueuedAttack>, COMDAT
; _this$ = ecx

; 123  : 	allocator(const allocator<_Ty>&) _THROW0()

	mov	eax, ecx

; 124  : 		{	// construct by copying (do nothing)
; 125  : 		}

	ret	4
??0?$allocator@VCvQueuedAttack@@@std@@QAE@ABV01@@Z ENDP	; std::allocator<CvQueuedAttack>::allocator<CvQueuedAttack>
_TEXT	ENDS
PUBLIC	?_Xlen@?$vector@PAVCvPlot@@V?$allocator@PAVCvPlot@@@std@@@std@@KAXXZ ; std::vector<CvPlot *,std::allocator<CvPlot *> >::_Xlen
;	COMDAT xdata$x
; File c:\program files (x86)\microsoft visual studio 9.0\vc\include\stdexcept
xdata$x	SEGMENT
__unwindtable$?_Xlen@?$vector@PAVCvPlot@@V?$allocator@PAVCvPlot@@@std@@@std@@KAXXZ DD 0ffffffffH
	DD	FLAT:__unwindfunclet$?_Xlen@?$vector@PAVCvPlot@@V?$allocator@PAVCvPlot@@@std@@@std@@KAXXZ$0
	DD	00H
	DD	FLAT:__unwindfunclet$?_Xlen@?$vector@PAVCvPlot@@V?$allocator@PAVCvPlot@@@std@@@std@@KAXXZ$2
__ehfuncinfo$?_Xlen@?$vector@PAVCvPlot@@V?$allocator@PAVCvPlot@@@std@@@std@@KAXXZ DD 019930522H
	DD	02H
	DD	FLAT:__unwindtable$?_Xlen@?$vector@PAVCvPlot@@V?$allocator@PAVCvPlot@@@std@@@std@@KAXXZ
	DD	2 DUP(00H)
	DD	2 DUP(00H)
	DD	00H
	DD	01H
; Function compile flags: /Ogtpy
; File c:\program files (x86)\microsoft visual studio 9.0\vc\include\vector
xdata$x	ENDS
;	COMDAT ?_Xlen@?$vector@PAVCvPlot@@V?$allocator@PAVCvPlot@@@std@@@std@@KAXXZ
_TEXT	SEGMENT
$T238591 = -80						; size = 28
$T238590 = -52						; size = 40
__$EHRec$ = -12						; size = 12
?_Xlen@?$vector@PAVCvPlot@@V?$allocator@PAVCvPlot@@@std@@@std@@KAXXZ PROC ; std::vector<CvPlot *,std::allocator<CvPlot *> >::_Xlen, COMDAT

; 1259 : 		{	// report a length_error

	push	-1
	push	__ehhandler$?_Xlen@?$vector@PAVCvPlot@@V?$allocator@PAVCvPlot@@@std@@@std@@KAXXZ
	mov	eax, DWORD PTR fs:0
	push	eax
	mov	DWORD PTR fs:0, esp
	sub	esp, 68					; 00000044H

; 1260 : 		_THROW(length_error, "vector<T> too long");

	push	OFFSET ??_C@_0BD@OLBABOEK@vector?$DMT?$DO?5too?5long?$AA@
	lea	ecx, DWORD PTR $T238591[esp+84]
	call	DWORD PTR __imp_??0?$basic_string@DU?$char_traits@D@std@@V?$allocator@D@2@@std@@QAE@PBD@Z
	lea	ecx, DWORD PTR $T238590[esp+80]
	mov	DWORD PTR __$EHRec$[esp+88], 0
	call	DWORD PTR __imp_??0exception@std@@QAE@XZ
	lea	eax, DWORD PTR $T238591[esp+80]
	push	eax
	lea	ecx, DWORD PTR $T238590[esp+96]
	mov	BYTE PTR __$EHRec$[esp+92], 1
	mov	DWORD PTR $T238590[esp+84], OFFSET ??_7logic_error@std@@6B@
	call	DWORD PTR __imp_??0?$basic_string@DU?$char_traits@D@std@@V?$allocator@D@2@@std@@QAE@ABV01@@Z
	push	OFFSET __TI3?AVlength_error@std@@
	lea	ecx, DWORD PTR $T238590[esp+84]
	push	ecx
	mov	BYTE PTR __$EHRec$[esp+96], 0
	mov	DWORD PTR $T238590[esp+88], OFFSET ??_7length_error@std@@6B@
	call	__CxxThrowException@8
$LN13@Xlen@4:
$LN12@Xlen@4:
	int	3
_TEXT	ENDS
;	COMDAT text$x
text$x	SEGMENT
__unwindfunclet$?_Xlen@?$vector@PAVCvPlot@@V?$allocator@PAVCvPlot@@@std@@@std@@KAXXZ$0:
	lea	ecx, DWORD PTR $T238591[ebp]
	jmp	DWORD PTR __imp_??1?$basic_string@DU?$char_traits@D@std@@V?$allocator@D@2@@std@@QAE@XZ
__unwindfunclet$?_Xlen@?$vector@PAVCvPlot@@V?$allocator@PAVCvPlot@@@std@@@std@@KAXXZ$2:
	lea	ecx, DWORD PTR $T238590[ebp]
	jmp	DWORD PTR __imp_??1exception@std@@UAE@XZ
__ehhandler$?_Xlen@?$vector@PAVCvPlot@@V?$allocator@PAVCvPlot@@@std@@@std@@KAXXZ:
	mov	eax, OFFSET __ehfuncinfo$?_Xlen@?$vector@PAVCvPlot@@V?$allocator@PAVCvPlot@@@std@@@std@@KAXXZ
	jmp	___CxxFrameHandler3
text$x	ENDS
?_Xlen@?$vector@PAVCvPlot@@V?$allocator@PAVCvPlot@@@std@@@std@@KAXXZ ENDP ; std::vector<CvPlot *,std::allocator<CvPlot *> >::_Xlen
PUBLIC	??0?$_Container_base_aux_alloc_empty@V?$allocator@PAVCvPlot@@@std@@@std@@IAE@V?$allocator@PAVCvPlot@@@1@@Z ; std::_Container_base_aux_alloc_empty<std::allocator<CvPlot *> >::_Container_base_aux_alloc_empty<std::allocator<CvPlot *> >
; Function compile flags: /Ogtpy
; File c:\program files (x86)\microsoft visual studio 9.0\vc\include\xutility
;	COMDAT ??0?$_Container_base_aux_alloc_empty@V?$allocator@PAVCvPlot@@@std@@@std@@IAE@V?$allocator@PAVCvPlot@@@1@@Z
_TEXT	SEGMENT
___formal$ = 8						; size = 1
??0?$_Container_base_aux_alloc_empty@V?$allocator@PAVCvPlot@@@std@@@std@@IAE@V?$allocator@PAVCvPlot@@@1@@Z PROC ; std::_Container_base_aux_alloc_empty<std::allocator<CvPlot *> >::_Container_base_aux_alloc_empty<std::allocator<CvPlot *> >, COMDAT
; _this$ = ecx

; 618  : 	explicit _Container_base_aux_alloc_empty(_Alloc) { }

	mov	eax, ecx
	ret	4
??0?$_Container_base_aux_alloc_empty@V?$allocator@PAVCvPlot@@@std@@@std@@IAE@V?$allocator@PAVCvPlot@@@1@@Z ENDP ; std::_Container_base_aux_alloc_empty<std::allocator<CvPlot *> >::_Container_base_aux_alloc_empty<std::allocator<CvPlot *> >
_TEXT	ENDS
PUBLIC	??0?$allocator@PAVCvPlot@@@std@@QAE@ABV01@@Z	; std::allocator<CvPlot *>::allocator<CvPlot *>
; Function compile flags: /Ogtpy
; File c:\program files (x86)\microsoft visual studio 9.0\vc\include\xmemory
;	COMDAT ??0?$allocator@PAVCvPlot@@@std@@QAE@ABV01@@Z
_TEXT	SEGMENT
___formal$ = 8						; size = 4
??0?$allocator@PAVCvPlot@@@std@@QAE@ABV01@@Z PROC	; std::allocator<CvPlot *>::allocator<CvPlot *>, COMDAT
; _this$ = ecx

; 123  : 	allocator(const allocator<_Ty>&) _THROW0()

	mov	eax, ecx

; 124  : 		{	// construct by copying (do nothing)
; 125  : 		}

	ret	4
??0?$allocator@PAVCvPlot@@@std@@QAE@ABV01@@Z ENDP	; std::allocator<CvPlot *>::allocator<CvPlot *>
_TEXT	ENDS
PUBLIC	?deallocate@?$allocator@PAVCvPlot@@@std@@QAEXPAPAVCvPlot@@I@Z ; std::allocator<CvPlot *>::deallocate
; Function compile flags: /Ogtpy
;	COMDAT ?deallocate@?$allocator@PAVCvPlot@@@std@@QAEXPAPAVCvPlot@@I@Z
_TEXT	SEGMENT
__Ptr$ = 8						; size = 4
___formal$ = 12						; size = 4
?deallocate@?$allocator@PAVCvPlot@@@std@@QAEXPAPAVCvPlot@@I@Z PROC ; std::allocator<CvPlot *>::deallocate, COMDAT
; _this$ = ecx

; 140  : 		::operator delete(_Ptr);

	mov	eax, DWORD PTR __Ptr$[esp-4]
	push	eax
	call	??3@YAXPAX@Z				; operator delete
	pop	ecx

; 141  : 		}

	ret	8
?deallocate@?$allocator@PAVCvPlot@@@std@@QAEXPAPAVCvPlot@@I@Z ENDP ; std::allocator<CvPlot *>::deallocate
_TEXT	ENDS
PUBLIC	?getBARBARIAN_CAMP_IMPROVEMENT@CvGlobals@@QAEHXZ ; CvGlobals::getBARBARIAN_CAMP_IMPROVEMENT
; Function compile flags: /Ogtpy
; File c:\users\enormousapplepie\desktop\lekmod files\lekmod dll versions\v29\lekmod_dll\cvgamecoredll_expansion2\cvglobals.h
;	COMDAT ?getBARBARIAN_CAMP_IMPROVEMENT@CvGlobals@@QAEHXZ
_TEXT	SEGMENT
?getBARBARIAN_CAMP_IMPROVEMENT@CvGlobals@@QAEHXZ PROC	; CvGlobals::getBARBARIAN_CAMP_IMPROVEMENT, COMDAT
; _this$ = ecx

; 7355 : 		return m_iBARBARIAN_CAMP_IMPROVEMENT;

	mov	eax, DWORD PTR [ecx+8548]

; 7356 : 	}

	ret	0
?getBARBARIAN_CAMP_IMPROVEMENT@CvGlobals@@QAEHXZ ENDP	; CvGlobals::getBARBARIAN_CAMP_IMPROVEMENT
_TEXT	ENDS
PUBLIC	??0?$_Vector_const_iterator@PAVCvTacticalMoveXMLEntry@@V?$allocator@PAVCvTacticalMoveXMLEntry@@@std@@@std@@QAE@PAPAVCvTacticalMoveXMLEntry@@@Z ; std::_Vector_const_iterator<CvTacticalMoveXMLEntry *,std::allocator<CvTacticalMoveXMLEntry *> >::_Vector_const_iterator<CvTacticalMoveXMLEntry *,std::allocator<CvTacticalMoveXMLEntry *> >
; Function compile flags: /Ogtpy
; File c:\program files (x86)\microsoft visual studio 9.0\vc\include\vector
;	COMDAT ??0?$_Vector_const_iterator@PAVCvTacticalMoveXMLEntry@@V?$allocator@PAVCvTacticalMoveXMLEntry@@@std@@@std@@QAE@PAPAVCvTacticalMoveXMLEntry@@@Z
_TEXT	SEGMENT
__Ptr$ = 8						; size = 4
??0?$_Vector_const_iterator@PAVCvTacticalMoveXMLEntry@@V?$allocator@PAVCvTacticalMoveXMLEntry@@@std@@@std@@QAE@PAPAVCvTacticalMoveXMLEntry@@@Z PROC ; std::_Vector_const_iterator<CvTacticalMoveXMLEntry *,std::allocator<CvTacticalMoveXMLEntry *> >::_Vector_const_iterator<CvTacticalMoveXMLEntry *,std::allocator<CvTacticalMoveXMLEntry *> >, COMDAT
; _this$ = ecx

; 84   : 	explicit _Vector_const_iterator(_Tptr _Ptr)

	mov	eax, ecx

; 85   : 		{	// construct with pointer _Ptr
; 86   : 		_Myptr = _Ptr;

	mov	ecx, DWORD PTR __Ptr$[esp-4]
	mov	DWORD PTR [eax], ecx

; 87   : 		}

	ret	4
??0?$_Vector_const_iterator@PAVCvTacticalMoveXMLEntry@@V?$allocator@PAVCvTacticalMoveXMLEntry@@@std@@@std@@QAE@PAPAVCvTacticalMoveXMLEntry@@@Z ENDP ; std::_Vector_const_iterator<CvTacticalMoveXMLEntry *,std::allocator<CvTacticalMoveXMLEntry *> >::_Vector_const_iterator<CvTacticalMoveXMLEntry *,std::allocator<CvTacticalMoveXMLEntry *> >
_TEXT	ENDS
PUBLIC	??0?$_Const_iterator@$0A@@?$list@VCvQueuedAttack@@V?$allocator@VCvQueuedAttack@@@std@@@std@@QAE@PAU_Node@?$_List_nod@VCvQueuedAttack@@V?$allocator@VCvQueuedAttack@@@std@@@2@@Z ; std::list<CvQueuedAttack,std::allocator<CvQueuedAttack> >::_Const_iterator<0>::_Const_iterator<0>
; Function compile flags: /Ogtpy
; File c:\program files (x86)\microsoft visual studio 9.0\vc\include\list
;	COMDAT ??0?$_Const_iterator@$0A@@?$list@VCvQueuedAttack@@V?$allocator@VCvQueuedAttack@@@std@@@std@@QAE@PAU_Node@?$_List_nod@VCvQueuedAttack@@V?$allocator@VCvQueuedAttack@@@std@@@2@@Z
_TEXT	SEGMENT
__Pnode$ = 8						; size = 4
??0?$_Const_iterator@$0A@@?$list@VCvQueuedAttack@@V?$allocator@VCvQueuedAttack@@@std@@@std@@QAE@PAU_Node@?$_List_nod@VCvQueuedAttack@@V?$allocator@VCvQueuedAttack@@@std@@@2@@Z PROC ; std::list<CvQueuedAttack,std::allocator<CvQueuedAttack> >::_Const_iterator<0>::_Const_iterator<0>, COMDAT
; _this$ = ecx

; 184  : 			{	// construct with node pointer _Pnode

	mov	eax, ecx
	mov	ecx, DWORD PTR __Pnode$[esp-4]
	mov	DWORD PTR [eax], ecx

; 185  : 			}

	ret	4
??0?$_Const_iterator@$0A@@?$list@VCvQueuedAttack@@V?$allocator@VCvQueuedAttack@@@std@@@std@@QAE@PAU_Node@?$_List_nod@VCvQueuedAttack@@V?$allocator@VCvQueuedAttack@@@std@@@2@@Z ENDP ; std::list<CvQueuedAttack,std::allocator<CvQueuedAttack> >::_Const_iterator<0>::_Const_iterator<0>
_TEXT	ENDS
PUBLIC	??E?$_Const_iterator@$0A@@?$list@VCvQueuedAttack@@V?$allocator@VCvQueuedAttack@@@std@@@std@@QAEAAV012@XZ ; std::list<CvQueuedAttack,std::allocator<CvQueuedAttack> >::_Const_iterator<0>::operator++
; Function compile flags: /Ogtpy
;	COMDAT ??E?$_Const_iterator@$0A@@?$list@VCvQueuedAttack@@V?$allocator@VCvQueuedAttack@@@std@@@std@@QAEAAV012@XZ
_TEXT	SEGMENT
??E?$_Const_iterator@$0A@@?$list@VCvQueuedAttack@@V?$allocator@VCvQueuedAttack@@@std@@@std@@QAEAAV012@XZ PROC ; std::list<CvQueuedAttack,std::allocator<CvQueuedAttack> >::_Const_iterator<0>::operator++, COMDAT
; _this$ = ecx

; 235  : 			{	// preincrement

	mov	eax, ecx

; 236  : 
; 237  :  #if _HAS_ITERATOR_DEBUGGING
; 238  : 			if (this->_Mycont == 0
; 239  : 				|| _Ptr == 0
; 240  : 				|| _Ptr == ((_Myt *)this->_Mycont)->_Myhead)
; 241  : 				{
; 242  : 				_DEBUG_ERROR("list iterator not incrementable");
; 243  : 				_SCL_SECURE_TRAITS_OUT_OF_RANGE;
; 244  : 				}
; 245  :  #else
; 246  : 			_SCL_SECURE_TRAITS_VALIDATE(this->_Has_container());
; 247  : 			_SCL_SECURE_TRAITS_VALIDATE_RANGE(_Ptr != ((_Myt *)(this->_Getmycont()))->_Myhead);
; 248  :  #endif /* _HAS_ITERATOR_DEBUGGING */
; 249  : 
; 250  : 			_Ptr = _Nextnode(_Ptr);

	mov	ecx, DWORD PTR [eax]
	mov	edx, DWORD PTR [ecx]
	mov	DWORD PTR [eax], edx

; 251  : 			return (*this);
; 252  : 			}

	ret	0
??E?$_Const_iterator@$0A@@?$list@VCvQueuedAttack@@V?$allocator@VCvQueuedAttack@@@std@@@std@@QAEAAV012@XZ ENDP ; std::list<CvQueuedAttack,std::allocator<CvQueuedAttack> >::_Const_iterator<0>::operator++
_TEXT	ENDS
PUBLIC	??0?$_Const_iterator@$0A@@?$list@HV?$allocator@H@std@@@std@@QAE@PAU_Node@?$_List_nod@HV?$allocator@H@std@@@2@@Z ; std::list<int,std::allocator<int> >::_Const_iterator<0>::_Const_iterator<0>
; Function compile flags: /Ogtpy
;	COMDAT ??0?$_Const_iterator@$0A@@?$list@HV?$allocator@H@std@@@std@@QAE@PAU_Node@?$_List_nod@HV?$allocator@H@std@@@2@@Z
_TEXT	SEGMENT
__Pnode$ = 8						; size = 4
??0?$_Const_iterator@$0A@@?$list@HV?$allocator@H@std@@@std@@QAE@PAU_Node@?$_List_nod@HV?$allocator@H@std@@@2@@Z PROC ; std::list<int,std::allocator<int> >::_Const_iterator<0>::_Const_iterator<0>, COMDAT
; _this$ = ecx

; 184  : 			{	// construct with node pointer _Pnode

	mov	eax, ecx
	mov	ecx, DWORD PTR __Pnode$[esp-4]
	mov	DWORD PTR [eax], ecx

; 185  : 			}

	ret	4
??0?$_Const_iterator@$0A@@?$list@HV?$allocator@H@std@@@std@@QAE@PAU_Node@?$_List_nod@HV?$allocator@H@std@@@2@@Z ENDP ; std::list<int,std::allocator<int> >::_Const_iterator<0>::_Const_iterator<0>
_TEXT	ENDS
PUBLIC	??E?$_Const_iterator@$0A@@?$list@HV?$allocator@H@std@@@std@@QAEAAV012@XZ ; std::list<int,std::allocator<int> >::_Const_iterator<0>::operator++
; Function compile flags: /Ogtpy
;	COMDAT ??E?$_Const_iterator@$0A@@?$list@HV?$allocator@H@std@@@std@@QAEAAV012@XZ
_TEXT	SEGMENT
??E?$_Const_iterator@$0A@@?$list@HV?$allocator@H@std@@@std@@QAEAAV012@XZ PROC ; std::list<int,std::allocator<int> >::_Const_iterator<0>::operator++, COMDAT
; _this$ = ecx

; 235  : 			{	// preincrement

	mov	eax, ecx

; 236  : 
; 237  :  #if _HAS_ITERATOR_DEBUGGING
; 238  : 			if (this->_Mycont == 0
; 239  : 				|| _Ptr == 0
; 240  : 				|| _Ptr == ((_Myt *)this->_Mycont)->_Myhead)
; 241  : 				{
; 242  : 				_DEBUG_ERROR("list iterator not incrementable");
; 243  : 				_SCL_SECURE_TRAITS_OUT_OF_RANGE;
; 244  : 				}
; 245  :  #else
; 246  : 			_SCL_SECURE_TRAITS_VALIDATE(this->_Has_container());
; 247  : 			_SCL_SECURE_TRAITS_VALIDATE_RANGE(_Ptr != ((_Myt *)(this->_Getmycont()))->_Myhead);
; 248  :  #endif /* _HAS_ITERATOR_DEBUGGING */
; 249  : 
; 250  : 			_Ptr = _Nextnode(_Ptr);

	mov	ecx, DWORD PTR [eax]
	mov	edx, DWORD PTR [ecx]
	mov	DWORD PTR [eax], edx

; 251  : 			return (*this);
; 252  : 			}

	ret	0
??E?$_Const_iterator@$0A@@?$list@HV?$allocator@H@std@@@std@@QAEAAV012@XZ ENDP ; std::list<int,std::allocator<int> >::_Const_iterator<0>::operator++
_TEXT	ENDS
PUBLIC	??E?$_Const_iterator@$0A@@?$list@HV?$allocator@H@std@@@std@@QAE?AV012@H@Z ; std::list<int,std::allocator<int> >::_Const_iterator<0>::operator++
; Function compile flags: /Ogtpy
;	COMDAT ??E?$_Const_iterator@$0A@@?$list@HV?$allocator@H@std@@@std@@QAE?AV012@H@Z
_TEXT	SEGMENT
___$ReturnUdt$ = 8					; size = 4
___formal$ = 12						; size = 4
??E?$_Const_iterator@$0A@@?$list@HV?$allocator@H@std@@@std@@QAE?AV012@H@Z PROC ; std::list<int,std::allocator<int> >::_Const_iterator<0>::operator++, COMDAT
; _this$ = ecx

; 256  : 			_Myt_iter _Tmp = *this;

	mov	edx, DWORD PTR [ecx]
	mov	eax, DWORD PTR ___$ReturnUdt$[esp-4]
	mov	DWORD PTR [eax], edx

; 257  : 			++*this;

	mov	edx, DWORD PTR [edx]
	mov	DWORD PTR [ecx], edx

; 258  : 			return (_Tmp);
; 259  : 			}

	ret	8
??E?$_Const_iterator@$0A@@?$list@HV?$allocator@H@std@@@std@@QAE?AV012@H@Z ENDP ; std::list<int,std::allocator<int> >::_Const_iterator<0>::operator++
_TEXT	ENDS
PUBLIC	?_Mynode@?$_Const_iterator@$0A@@?$list@HV?$allocator@H@std@@@std@@QBEPAU_Node@?$_List_nod@HV?$allocator@H@std@@@3@XZ ; std::list<int,std::allocator<int> >::_Const_iterator<0>::_Mynode
; Function compile flags: /Ogtpy
;	COMDAT ?_Mynode@?$_Const_iterator@$0A@@?$list@HV?$allocator@H@std@@@std@@QBEPAU_Node@?$_List_nod@HV?$allocator@H@std@@@3@XZ
_TEXT	SEGMENT
?_Mynode@?$_Const_iterator@$0A@@?$list@HV?$allocator@H@std@@@std@@QBEPAU_Node@?$_List_nod@HV?$allocator@H@std@@@3@XZ PROC ; std::list<int,std::allocator<int> >::_Const_iterator<0>::_Mynode, COMDAT
; _this$ = ecx

; 308  : 			return (_Ptr);

	mov	eax, DWORD PTR [ecx]

; 309  : 			}

	ret	0
?_Mynode@?$_Const_iterator@$0A@@?$list@HV?$allocator@H@std@@@std@@QBEPAU_Node@?$_List_nod@HV?$allocator@H@std@@@3@XZ ENDP ; std::list<int,std::allocator<int> >::_Const_iterator<0>::_Mynode
_TEXT	ENDS
PUBLIC	??0?$_Vector_const_iterator@PAVCvPlot@@V?$allocator@PAVCvPlot@@@std@@@std@@QAE@PAPAVCvPlot@@@Z ; std::_Vector_const_iterator<CvPlot *,std::allocator<CvPlot *> >::_Vector_const_iterator<CvPlot *,std::allocator<CvPlot *> >
; Function compile flags: /Ogtpy
; File c:\program files (x86)\microsoft visual studio 9.0\vc\include\vector
;	COMDAT ??0?$_Vector_const_iterator@PAVCvPlot@@V?$allocator@PAVCvPlot@@@std@@@std@@QAE@PAPAVCvPlot@@@Z
_TEXT	SEGMENT
__Ptr$ = 8						; size = 4
??0?$_Vector_const_iterator@PAVCvPlot@@V?$allocator@PAVCvPlot@@@std@@@std@@QAE@PAPAVCvPlot@@@Z PROC ; std::_Vector_const_iterator<CvPlot *,std::allocator<CvPlot *> >::_Vector_const_iterator<CvPlot *,std::allocator<CvPlot *> >, COMDAT
; _this$ = ecx

; 84   : 	explicit _Vector_const_iterator(_Tptr _Ptr)

	mov	eax, ecx

; 85   : 		{	// construct with pointer _Ptr
; 86   : 		_Myptr = _Ptr;

	mov	ecx, DWORD PTR __Ptr$[esp-4]
	mov	DWORD PTR [eax], ecx

; 87   : 		}

	ret	4
??0?$_Vector_const_iterator@PAVCvPlot@@V?$allocator@PAVCvPlot@@@std@@@std@@QAE@PAPAVCvPlot@@@Z ENDP ; std::_Vector_const_iterator<CvPlot *,std::allocator<CvPlot *> >::_Vector_const_iterator<CvPlot *,std::allocator<CvPlot *> >
_TEXT	ENDS
PUBLIC	??E?$_Vector_const_iterator@PAVCvPlot@@V?$allocator@PAVCvPlot@@@std@@@std@@QAEAAV01@XZ ; std::_Vector_const_iterator<CvPlot *,std::allocator<CvPlot *> >::operator++
; Function compile flags: /Ogtpy
;	COMDAT ??E?$_Vector_const_iterator@PAVCvPlot@@V?$allocator@PAVCvPlot@@@std@@@std@@QAEAAV01@XZ
_TEXT	SEGMENT
??E?$_Vector_const_iterator@PAVCvPlot@@V?$allocator@PAVCvPlot@@@std@@@std@@QAEAAV01@XZ PROC ; std::_Vector_const_iterator<CvPlot *,std::allocator<CvPlot *> >::operator++, COMDAT
; _this$ = ecx

; 115  : 		{	// preincrement

	mov	eax, ecx

; 116  : 		_SCL_SECURE_VALIDATE(this->_Has_container());
; 117  : 		_SCL_SECURE_VALIDATE_RANGE(_Myptr < ((_Myvec *)(this->_Getmycont()))->_Mylast);
; 118  : 
; 119  :  #if _HAS_ITERATOR_DEBUGGING
; 120  : 		if (this->_Mycont == 0
; 121  : 			|| ((_Myvec *)this->_Mycont)->_Mylast <= _Myptr)
; 122  : 			_DEBUG_ERROR("vector iterator not incrementable");
; 123  :  #endif /* _HAS_ITERATOR_DEBUGGING */
; 124  : 
; 125  : 		++_Myptr;

	add	DWORD PTR [eax], 4

; 126  : 		return (*this);
; 127  : 		}

	ret	0
??E?$_Vector_const_iterator@PAVCvPlot@@V?$allocator@PAVCvPlot@@@std@@@std@@QAEAAV01@XZ ENDP ; std::_Vector_const_iterator<CvPlot *,std::allocator<CvPlot *> >::operator++
_TEXT	ENDS
PUBLIC	??G?$_Vector_const_iterator@PAVCvPlot@@V?$allocator@PAVCvPlot@@@std@@@std@@QBEHABV01@@Z ; std::_Vector_const_iterator<CvPlot *,std::allocator<CvPlot *> >::operator-
; Function compile flags: /Ogtpy
;	COMDAT ??G?$_Vector_const_iterator@PAVCvPlot@@V?$allocator@PAVCvPlot@@@std@@@std@@QBEHABV01@@Z
_TEXT	SEGMENT
__Right$ = 8						; size = 4
??G?$_Vector_const_iterator@PAVCvPlot@@V?$allocator@PAVCvPlot@@@std@@@std@@QBEHABV01@@Z PROC ; std::_Vector_const_iterator<CvPlot *,std::allocator<CvPlot *> >::operator-, COMDAT
; _this$ = ecx

; 187  : 
; 188  :  #if _HAS_ITERATOR_DEBUGGING
; 189  : 		_Compat(_Right);
; 190  :  #else
; 191  : 		_SCL_SECURE_VALIDATE(this->_Has_container() && this->_Same_container(_Right));
; 192  :  #endif /* _HAS_ITERATOR_DEBUGGING */
; 193  : 
; 194  : 		return (_Myptr - _Right._Myptr);

	mov	eax, DWORD PTR [ecx]
	mov	ecx, DWORD PTR __Right$[esp-4]
	sub	eax, DWORD PTR [ecx]
	sar	eax, 2

; 195  : 		}

	ret	4
??G?$_Vector_const_iterator@PAVCvPlot@@V?$allocator@PAVCvPlot@@@std@@@std@@QBEHABV01@@Z ENDP ; std::_Vector_const_iterator<CvPlot *,std::allocator<CvPlot *> >::operator-
_TEXT	ENDS
PUBLIC	?getPILLAGE_HEAL_AMOUNT@CvGlobals@@QAEHXZ	; CvGlobals::getPILLAGE_HEAL_AMOUNT
; Function compile flags: /Ogtpy
; File c:\users\enormousapplepie\desktop\lekmod files\lekmod dll versions\v29\lekmod_dll\cvgamecoredll_expansion2\cvglobals.h
;	COMDAT ?getPILLAGE_HEAL_AMOUNT@CvGlobals@@QAEHXZ
_TEXT	SEGMENT
?getPILLAGE_HEAL_AMOUNT@CvGlobals@@QAEHXZ PROC		; CvGlobals::getPILLAGE_HEAL_AMOUNT, COMDAT
; _this$ = ecx

; 7495 : 		return m_iPILLAGE_HEAL_AMOUNT;

	mov	eax, DWORD PTR [ecx+8184]

; 7496 : 	}

	ret	0
?getPILLAGE_HEAL_AMOUNT@CvGlobals@@QAEHXZ ENDP		; CvGlobals::getPILLAGE_HEAL_AMOUNT
_TEXT	ENDS
PUBLIC	?Alloc@?$FStaticVector@UWeightedElement@?$CvWeightedVector@PAVCvPlot@@$00$00@@$00$00$0A@$0A@@@IAEPAUWeightedElement@?$CvWeightedVector@PAVCvPlot@@$00$00@@I@Z ; FStaticVector<CvWeightedVector<CvPlot *,1,1>::WeightedElement,1,1,0,0>::Alloc
; Function compile flags: /Ogtpy
; File c:\users\enormousapplepie\desktop\lekmod files\lekmod dll versions\v29\lekmod_dll\fireplace\include\fireworks\ffastvector.h
;	COMDAT ?Alloc@?$FStaticVector@UWeightedElement@?$CvWeightedVector@PAVCvPlot@@$00$00@@$00$00$0A@$0A@@@IAEPAUWeightedElement@?$CvWeightedVector@PAVCvPlot@@$00$00@@I@Z
_TEXT	SEGMENT
_uiSize$ = 8						; size = 4
?Alloc@?$FStaticVector@UWeightedElement@?$CvWeightedVector@PAVCvPlot@@$00$00@@$00$00$0A@$0A@@@IAEPAUWeightedElement@?$CvWeightedVector@PAVCvPlot@@$00$00@@I@Z PROC ; FStaticVector<CvWeightedVector<CvPlot *,1,1>::WeightedElement,1,1,0,0>::Alloc, COMDAT
; _this$ = ecx

; 795  : 	T* Alloc(unsigned int uiSize){

	push	esi
	push	edi

; 796  : 		T* pRet;
; 797  : 		if( uiSize > L ){

	mov	edi, DWORD PTR _uiSize$[esp+4]
	mov	esi, ecx
	cmp	edi, 1
	jbe	SHORT $LN2@Alloc@9

; 798  : 			pRet = (T*)FMALLOCALIGNED( uiSize*sizeof(T), __alignof(T), AllocPool, nSubID );

	push	798					; 0000031eH
	push	OFFSET ??_C@_0HM@IMGGMCHG@c?3?2users?2enormousapplepie?2deskto@
	lea	eax, DWORD PTR [edi*8]
	push	4
	push	eax
	call	?FireMallocAlignedNoTracking@@YAPAXIIPBDH@Z ; FireMallocAlignedNoTracking
	add	esp, 16					; 00000010H

; 799  : 			m_uiCurrMaxSize = uiSize;

	mov	DWORD PTR [esi+8], edi
	pop	edi
	pop	esi

; 803  : 		}
; 804  : 		return pRet;
; 805  : 	};

	ret	4
$LN2@Alloc@9:
	pop	edi

; 800  : 		}else{
; 801  : 			pRet = (T*)m_aData;

	lea	eax, DWORD PTR [esi+12]

; 802  : 			m_uiCurrMaxSize = L;

	mov	DWORD PTR [esi+8], 1
	pop	esi

; 803  : 		}
; 804  : 		return pRet;
; 805  : 	};

	ret	4
?Alloc@?$FStaticVector@UWeightedElement@?$CvWeightedVector@PAVCvPlot@@$00$00@@$00$00$0A@$0A@@@IAEPAUWeightedElement@?$CvWeightedVector@PAVCvPlot@@$00$00@@I@Z ENDP ; FStaticVector<CvWeightedVector<CvPlot *,1,1>::WeightedElement,1,1,0,0>::Alloc
_TEXT	ENDS
PUBLIC	??1?$BaseVector@UWeightedElement@?$CvWeightedVector@PAVCvPlot@@$00$00@@$00@@QAE@XZ ; BaseVector<CvWeightedVector<CvPlot *,1,1>::WeightedElement,1>::~BaseVector<CvWeightedVector<CvPlot *,1,1>::WeightedElement,1>
; Function compile flags: /Ogtpy
;	COMDAT ??1?$BaseVector@UWeightedElement@?$CvWeightedVector@PAVCvPlot@@$00$00@@$00@@QAE@XZ
_TEXT	SEGMENT
??1?$BaseVector@UWeightedElement@?$CvWeightedVector@PAVCvPlot@@$00$00@@$00@@QAE@XZ PROC ; BaseVector<CvWeightedVector<CvPlot *,1,1>::WeightedElement,1>::~BaseVector<CvWeightedVector<CvPlot *,1,1>::WeightedElement,1>, COMDAT
; _this$ = ecx

; 111  : 	~BaseVector(){};

	ret	0
??1?$BaseVector@UWeightedElement@?$CvWeightedVector@PAVCvPlot@@$00$00@@$00@@QAE@XZ ENDP ; BaseVector<CvWeightedVector<CvPlot *,1,1>::WeightedElement,1>::~BaseVector<CvWeightedVector<CvPlot *,1,1>::WeightedElement,1>
_TEXT	ENDS
PUBLIC	??0?$BaseVector@UWeightedElement@?$CvWeightedVector@PAVCvPlot@@$00$00@@$00@@IAE@XZ ; BaseVector<CvWeightedVector<CvPlot *,1,1>::WeightedElement,1>::BaseVector<CvWeightedVector<CvPlot *,1,1>::WeightedElement,1>
; Function compile flags: /Ogtpy
;	COMDAT ??0?$BaseVector@UWeightedElement@?$CvWeightedVector@PAVCvPlot@@$00$00@@$00@@IAE@XZ
_TEXT	SEGMENT
??0?$BaseVector@UWeightedElement@?$CvWeightedVector@PAVCvPlot@@$00$00@@$00@@IAE@XZ PROC ; BaseVector<CvWeightedVector<CvPlot *,1,1>::WeightedElement,1>::BaseVector<CvWeightedVector<CvPlot *,1,1>::WeightedElement,1>, COMDAT
; _this$ = ecx

; 216  : 	BaseVector() : m_uiCurrSize(0), m_uiCurrMaxSize(0), m_pData(NULL) {};

	mov	eax, ecx
	xor	ecx, ecx
	mov	DWORD PTR [eax], ecx
	mov	DWORD PTR [eax+4], ecx
	mov	DWORD PTR [eax+8], ecx
	ret	0
??0?$BaseVector@UWeightedElement@?$CvWeightedVector@PAVCvPlot@@$00$00@@$00@@IAE@XZ ENDP ; BaseVector<CvWeightedVector<CvPlot *,1,1>::WeightedElement,1>::BaseVector<CvWeightedVector<CvPlot *,1,1>::WeightedElement,1>
_TEXT	ENDS
PUBLIC	?Destroy@?$BaseVector@UWeightedElement@?$CvWeightedVector@PAVCvPlot@@$00$00@@$00@@IAEXPAUWeightedElement@?$CvWeightedVector@PAVCvPlot@@$00$00@@I@Z ; BaseVector<CvWeightedVector<CvPlot *,1,1>::WeightedElement,1>::Destroy
; Function compile flags: /Ogtpy
;	COMDAT ?Destroy@?$BaseVector@UWeightedElement@?$CvWeightedVector@PAVCvPlot@@$00$00@@$00@@IAEXPAUWeightedElement@?$CvWeightedVector@PAVCvPlot@@$00$00@@I@Z
_TEXT	SEGMENT
_pVal$ = 8						; size = 4
_uiNumElements$ = 12					; size = 4
?Destroy@?$BaseVector@UWeightedElement@?$CvWeightedVector@PAVCvPlot@@$00$00@@$00@@IAEXPAUWeightedElement@?$CvWeightedVector@PAVCvPlot@@$00$00@@I@Z PROC ; BaseVector<CvWeightedVector<CvPlot *,1,1>::WeightedElement,1>::Destroy, COMDAT
; _this$ = ecx

; 221  : 		if( !bPODType){
; 222  : 			for(unsigned int i = 0; i < uiNumElements; ++i){
; 223  : 				pVal[i].~T();
; 224  : 			}
; 225  : 		}
; 226  : 	};

	ret	8
?Destroy@?$BaseVector@UWeightedElement@?$CvWeightedVector@PAVCvPlot@@$00$00@@$00@@IAEXPAUWeightedElement@?$CvWeightedVector@PAVCvPlot@@$00$00@@I@Z ENDP ; BaseVector<CvWeightedVector<CvPlot *,1,1>::WeightedElement,1>::Destroy
_TEXT	ENDS
PUBLIC	??0WeightedElement@?$CvWeightedVector@PAVCvPlot@@$00$00@@QAE@ABU01@@Z ; CvWeightedVector<CvPlot *,1,1>::WeightedElement::WeightedElement
; Function compile flags: /Ogtpy
; File c:\users\enormousapplepie\desktop\lekmod files\lekmod dll versions\v29\lekmod_dll\cvgamecoredllutil\include\cvweightedvector.h
;	COMDAT ??0WeightedElement@?$CvWeightedVector@PAVCvPlot@@$00$00@@QAE@ABU01@@Z
_TEXT	SEGMENT
_source$ = 8						; size = 4
??0WeightedElement@?$CvWeightedVector@PAVCvPlot@@$00$00@@QAE@ABU01@@Z PROC ; CvWeightedVector<CvPlot *,1,1>::WeightedElement::WeightedElement, COMDAT
; _this$ = ecx

; 37   : 		{

	mov	eax, ecx
	mov	ecx, DWORD PTR _source$[esp-4]
	mov	edx, DWORD PTR [ecx]
	mov	DWORD PTR [eax], edx
	mov	ecx, DWORD PTR [ecx+4]
	mov	DWORD PTR [eax+4], ecx

; 38   : 		}

	ret	4
??0WeightedElement@?$CvWeightedVector@PAVCvPlot@@$00$00@@QAE@ABU01@@Z ENDP ; CvWeightedVector<CvPlot *,1,1>::WeightedElement::WeightedElement
_TEXT	ENDS
PUBLIC	??0?$_Vector_const_iterator@VCvTacticalUnit@@V?$allocator@VCvTacticalUnit@@@std@@@std@@QAE@PAVCvTacticalUnit@@@Z ; std::_Vector_const_iterator<CvTacticalUnit,std::allocator<CvTacticalUnit> >::_Vector_const_iterator<CvTacticalUnit,std::allocator<CvTacticalUnit> >
; Function compile flags: /Ogtpy
; File c:\program files (x86)\microsoft visual studio 9.0\vc\include\vector
;	COMDAT ??0?$_Vector_const_iterator@VCvTacticalUnit@@V?$allocator@VCvTacticalUnit@@@std@@@std@@QAE@PAVCvTacticalUnit@@@Z
_TEXT	SEGMENT
__Ptr$ = 8						; size = 4
??0?$_Vector_const_iterator@VCvTacticalUnit@@V?$allocator@VCvTacticalUnit@@@std@@@std@@QAE@PAVCvTacticalUnit@@@Z PROC ; std::_Vector_const_iterator<CvTacticalUnit,std::allocator<CvTacticalUnit> >::_Vector_const_iterator<CvTacticalUnit,std::allocator<CvTacticalUnit> >, COMDAT
; _this$ = ecx

; 84   : 	explicit _Vector_const_iterator(_Tptr _Ptr)

	mov	eax, ecx

; 85   : 		{	// construct with pointer _Ptr
; 86   : 		_Myptr = _Ptr;

	mov	ecx, DWORD PTR __Ptr$[esp-4]
	mov	DWORD PTR [eax], ecx

; 87   : 		}

	ret	4
??0?$_Vector_const_iterator@VCvTacticalUnit@@V?$allocator@VCvTacticalUnit@@@std@@@std@@QAE@PAVCvTacticalUnit@@@Z ENDP ; std::_Vector_const_iterator<CvTacticalUnit,std::allocator<CvTacticalUnit> >::_Vector_const_iterator<CvTacticalUnit,std::allocator<CvTacticalUnit> >
_TEXT	ENDS
PUBLIC	??D?$_Vector_const_iterator@VCvTacticalUnit@@V?$allocator@VCvTacticalUnit@@@std@@@std@@QBEABVCvTacticalUnit@@XZ ; std::_Vector_const_iterator<CvTacticalUnit,std::allocator<CvTacticalUnit> >::operator*
; Function compile flags: /Ogtpy
;	COMDAT ??D?$_Vector_const_iterator@VCvTacticalUnit@@V?$allocator@VCvTacticalUnit@@@std@@@std@@QBEABVCvTacticalUnit@@XZ
_TEXT	SEGMENT
??D?$_Vector_const_iterator@VCvTacticalUnit@@V?$allocator@VCvTacticalUnit@@@std@@@std@@QBEABVCvTacticalUnit@@XZ PROC ; std::_Vector_const_iterator<CvTacticalUnit,std::allocator<CvTacticalUnit> >::operator*, COMDAT
; _this$ = ecx

; 92   : 
; 93   :  #if _HAS_ITERATOR_DEBUGGING
; 94   : 		if (this->_Mycont == 0
; 95   : 			|| _Myptr < ((_Myvec *)this->_Mycont)->_Myfirst
; 96   : 			|| ((_Myvec *)this->_Mycont)->_Mylast <= _Myptr)
; 97   : 			{
; 98   : 			_DEBUG_ERROR("vector iterator not dereferencable");
; 99   : 			_SCL_SECURE_OUT_OF_RANGE;
; 100  : 			}
; 101  :  #else
; 102  :  		_SCL_SECURE_VALIDATE(this->_Has_container());
; 103  : 		_SCL_SECURE_VALIDATE_RANGE(_Myptr < ((_Myvec *)(this->_Getmycont()))->_Mylast);
; 104  :  #endif /* _HAS_ITERATOR_DEBUGGING */
; 105  : 
; 106  : 		return (*_Myptr);

	mov	eax, DWORD PTR [ecx]

; 107  : 		}

	ret	0
??D?$_Vector_const_iterator@VCvTacticalUnit@@V?$allocator@VCvTacticalUnit@@@std@@@std@@QBEABVCvTacticalUnit@@XZ ENDP ; std::_Vector_const_iterator<CvTacticalUnit,std::allocator<CvTacticalUnit> >::operator*
_TEXT	ENDS
PUBLIC	??G?$_Vector_const_iterator@VCvTacticalUnit@@V?$allocator@VCvTacticalUnit@@@std@@@std@@QBEHABV01@@Z ; std::_Vector_const_iterator<CvTacticalUnit,std::allocator<CvTacticalUnit> >::operator-
; Function compile flags: /Ogtpy
;	COMDAT ??G?$_Vector_const_iterator@VCvTacticalUnit@@V?$allocator@VCvTacticalUnit@@@std@@@std@@QBEHABV01@@Z
_TEXT	SEGMENT
__Right$ = 8						; size = 4
??G?$_Vector_const_iterator@VCvTacticalUnit@@V?$allocator@VCvTacticalUnit@@@std@@@std@@QBEHABV01@@Z PROC ; std::_Vector_const_iterator<CvTacticalUnit,std::allocator<CvTacticalUnit> >::operator-, COMDAT
; _this$ = ecx

; 187  : 
; 188  :  #if _HAS_ITERATOR_DEBUGGING
; 189  : 		_Compat(_Right);
; 190  :  #else
; 191  : 		_SCL_SECURE_VALIDATE(this->_Has_container() && this->_Same_container(_Right));
; 192  :  #endif /* _HAS_ITERATOR_DEBUGGING */
; 193  : 
; 194  : 		return (_Myptr - _Right._Myptr);

	mov	eax, DWORD PTR __Right$[esp-4]
	mov	ecx, DWORD PTR [ecx]
	sub	ecx, DWORD PTR [eax]
	mov	eax, 715827883				; 2aaaaaabH
	imul	ecx
	sar	edx, 2
	mov	eax, edx
	shr	eax, 31					; 0000001fH
	add	eax, edx

; 195  : 		}

	ret	4
??G?$_Vector_const_iterator@VCvTacticalUnit@@V?$allocator@VCvTacticalUnit@@@std@@@std@@QBEHABV01@@Z ENDP ; std::_Vector_const_iterator<CvTacticalUnit,std::allocator<CvTacticalUnit> >::operator-
_TEXT	ENDS
PUBLIC	??0?$_Vector_const_iterator@VCvTacticalCity@@V?$allocator@VCvTacticalCity@@@std@@@std@@QAE@PAVCvTacticalCity@@@Z ; std::_Vector_const_iterator<CvTacticalCity,std::allocator<CvTacticalCity> >::_Vector_const_iterator<CvTacticalCity,std::allocator<CvTacticalCity> >
; Function compile flags: /Ogtpy
;	COMDAT ??0?$_Vector_const_iterator@VCvTacticalCity@@V?$allocator@VCvTacticalCity@@@std@@@std@@QAE@PAVCvTacticalCity@@@Z
_TEXT	SEGMENT
__Ptr$ = 8						; size = 4
??0?$_Vector_const_iterator@VCvTacticalCity@@V?$allocator@VCvTacticalCity@@@std@@@std@@QAE@PAVCvTacticalCity@@@Z PROC ; std::_Vector_const_iterator<CvTacticalCity,std::allocator<CvTacticalCity> >::_Vector_const_iterator<CvTacticalCity,std::allocator<CvTacticalCity> >, COMDAT
; _this$ = ecx

; 84   : 	explicit _Vector_const_iterator(_Tptr _Ptr)

	mov	eax, ecx

; 85   : 		{	// construct with pointer _Ptr
; 86   : 		_Myptr = _Ptr;

	mov	ecx, DWORD PTR __Ptr$[esp-4]
	mov	DWORD PTR [eax], ecx

; 87   : 		}

	ret	4
??0?$_Vector_const_iterator@VCvTacticalCity@@V?$allocator@VCvTacticalCity@@@std@@@std@@QAE@PAVCvTacticalCity@@@Z ENDP ; std::_Vector_const_iterator<CvTacticalCity,std::allocator<CvTacticalCity> >::_Vector_const_iterator<CvTacticalCity,std::allocator<CvTacticalCity> >
_TEXT	ENDS
PUBLIC	??G?$_Vector_const_iterator@VCvTacticalCity@@V?$allocator@VCvTacticalCity@@@std@@@std@@QBEHABV01@@Z ; std::_Vector_const_iterator<CvTacticalCity,std::allocator<CvTacticalCity> >::operator-
; Function compile flags: /Ogtpy
;	COMDAT ??G?$_Vector_const_iterator@VCvTacticalCity@@V?$allocator@VCvTacticalCity@@@std@@@std@@QBEHABV01@@Z
_TEXT	SEGMENT
__Right$ = 8						; size = 4
??G?$_Vector_const_iterator@VCvTacticalCity@@V?$allocator@VCvTacticalCity@@@std@@@std@@QBEHABV01@@Z PROC ; std::_Vector_const_iterator<CvTacticalCity,std::allocator<CvTacticalCity> >::operator-, COMDAT
; _this$ = ecx

; 187  : 
; 188  :  #if _HAS_ITERATOR_DEBUGGING
; 189  : 		_Compat(_Right);
; 190  :  #else
; 191  : 		_SCL_SECURE_VALIDATE(this->_Has_container() && this->_Same_container(_Right));
; 192  :  #endif /* _HAS_ITERATOR_DEBUGGING */
; 193  : 
; 194  : 		return (_Myptr - _Right._Myptr);

	mov	eax, DWORD PTR __Right$[esp-4]
	mov	ecx, DWORD PTR [ecx]
	sub	ecx, DWORD PTR [eax]
	mov	eax, 715827883				; 2aaaaaabH
	imul	ecx
	sar	edx, 1
	mov	eax, edx
	shr	eax, 31					; 0000001fH
	add	eax, edx

; 195  : 		}

	ret	4
??G?$_Vector_const_iterator@VCvTacticalCity@@V?$allocator@VCvTacticalCity@@@std@@@std@@QBEHABV01@@Z ENDP ; std::_Vector_const_iterator<CvTacticalCity,std::allocator<CvTacticalCity> >::operator-
_TEXT	ENDS
PUBLIC	?AllocAligned@FDefaultFastVectorAllocator@?$BaseVector@VCvTacticalTarget@@$0A@@@SAPAXIIII@Z ; BaseVector<CvTacticalTarget,0>::FDefaultFastVectorAllocator::AllocAligned
; Function compile flags: /Ogtpy
; File c:\users\enormousapplepie\desktop\lekmod files\lekmod dll versions\v29\lekmod_dll\fireplace\include\fireworks\ffastvector.h
;	COMDAT ?AllocAligned@FDefaultFastVectorAllocator@?$BaseVector@VCvTacticalTarget@@$0A@@@SAPAXIIII@Z
_TEXT	SEGMENT
_nBytes$ = 8						; size = 4
_nAlign$ = 12						; size = 4
_nAllocPool$ = 16					; size = 4
_nAllocSubID$ = 20					; size = 4
?AllocAligned@FDefaultFastVectorAllocator@?$BaseVector@VCvTacticalTarget@@$0A@@@SAPAXIIII@Z PROC ; BaseVector<CvTacticalTarget,0>::FDefaultFastVectorAllocator::AllocAligned, COMDAT

; 85   : 			return FMALLOCALIGNED( nBytes, nAlign, nAllocPool, nAllocSubID );

	mov	DWORD PTR _nAllocSubID$[esp-4], 85	; 00000055H
	mov	DWORD PTR _nAllocPool$[esp-4], OFFSET ??_C@_0HM@IMGGMCHG@c?3?2users?2enormousapplepie?2deskto@
	jmp	?FireMallocAlignedNoTracking@@YAPAXIIPBDH@Z ; FireMallocAlignedNoTracking
?AllocAligned@FDefaultFastVectorAllocator@?$BaseVector@VCvTacticalTarget@@$0A@@@SAPAXIIII@Z ENDP ; BaseVector<CvTacticalTarget,0>::FDefaultFastVectorAllocator::AllocAligned
_TEXT	ENDS
PUBLIC	?FreeAligned@FDefaultFastVectorAllocator@?$BaseVector@VCvTacticalTarget@@$0A@@@SAXPAX@Z ; BaseVector<CvTacticalTarget,0>::FDefaultFastVectorAllocator::FreeAligned
; Function compile flags: /Ogtpy
;	COMDAT ?FreeAligned@FDefaultFastVectorAllocator@?$BaseVector@VCvTacticalTarget@@$0A@@@SAXPAX@Z
_TEXT	SEGMENT
_pBlock$ = 8						; size = 4
?FreeAligned@FDefaultFastVectorAllocator@?$BaseVector@VCvTacticalTarget@@$0A@@@SAXPAX@Z PROC ; BaseVector<CvTacticalTarget,0>::FDefaultFastVectorAllocator::FreeAligned, COMDAT

; 90   : 			FFREEALIGNED( pBlock );

	jmp	?FireFreeAlignedNoTracking@@YAXPAX@Z	; FireFreeAlignedNoTracking
?FreeAligned@FDefaultFastVectorAllocator@?$BaseVector@VCvTacticalTarget@@$0A@@@SAXPAX@Z ENDP ; BaseVector<CvTacticalTarget,0>::FDefaultFastVectorAllocator::FreeAligned
_TEXT	ENDS
PUBLIC	?max_size@?$allocator@PAVCvTacticalMoveXMLEntry@@@std@@QBEIXZ ; std::allocator<CvTacticalMoveXMLEntry *>::max_size
; Function compile flags: /Ogtpy
; File c:\program files (x86)\microsoft visual studio 9.0\vc\include\xmemory
;	COMDAT ?max_size@?$allocator@PAVCvTacticalMoveXMLEntry@@@std@@QBEIXZ
_TEXT	SEGMENT
?max_size@?$allocator@PAVCvTacticalMoveXMLEntry@@@std@@QBEIXZ PROC ; std::allocator<CvTacticalMoveXMLEntry *>::max_size, COMDAT
; _this$ = ecx

; 165  : 		_SIZT _Count = (_SIZT)(-1) / sizeof (_Ty);
; 166  : 		return (0 < _Count ? _Count : 1);

	mov	eax, 1073741823				; 3fffffffH

; 167  : 		}

	ret	0
?max_size@?$allocator@PAVCvTacticalMoveXMLEntry@@@std@@QBEIXZ ENDP ; std::allocator<CvTacticalMoveXMLEntry *>::max_size
_TEXT	ENDS
PUBLIC	?max_size@?$allocator@VCvTacticalUnit@@@std@@QBEIXZ ; std::allocator<CvTacticalUnit>::max_size
; Function compile flags: /Ogtpy
;	COMDAT ?max_size@?$allocator@VCvTacticalUnit@@@std@@QBEIXZ
_TEXT	SEGMENT
?max_size@?$allocator@VCvTacticalUnit@@@std@@QBEIXZ PROC ; std::allocator<CvTacticalUnit>::max_size, COMDAT
; _this$ = ecx

; 165  : 		_SIZT _Count = (_SIZT)(-1) / sizeof (_Ty);
; 166  : 		return (0 < _Count ? _Count : 1);

	mov	eax, 178956970				; 0aaaaaaaH

; 167  : 		}

	ret	0
?max_size@?$allocator@VCvTacticalUnit@@@std@@QBEIXZ ENDP ; std::allocator<CvTacticalUnit>::max_size
_TEXT	ENDS
PUBLIC	?max_size@?$allocator@VCvTacticalCity@@@std@@QBEIXZ ; std::allocator<CvTacticalCity>::max_size
; Function compile flags: /Ogtpy
;	COMDAT ?max_size@?$allocator@VCvTacticalCity@@@std@@QBEIXZ
_TEXT	SEGMENT
?max_size@?$allocator@VCvTacticalCity@@@std@@QBEIXZ PROC ; std::allocator<CvTacticalCity>::max_size, COMDAT
; _this$ = ecx

; 165  : 		_SIZT _Count = (_SIZT)(-1) / sizeof (_Ty);
; 166  : 		return (0 < _Count ? _Count : 1);

	mov	eax, 357913941				; 15555555H

; 167  : 		}

	ret	0
?max_size@?$allocator@VCvTacticalCity@@@std@@QBEIXZ ENDP ; std::allocator<CvTacticalCity>::max_size
_TEXT	ENDS
PUBLIC	?max_size@?$allocator@PAVCvPlot@@@std@@QBEIXZ	; std::allocator<CvPlot *>::max_size
; Function compile flags: /Ogtpy
;	COMDAT ?max_size@?$allocator@PAVCvPlot@@@std@@QBEIXZ
_TEXT	SEGMENT
?max_size@?$allocator@PAVCvPlot@@@std@@QBEIXZ PROC	; std::allocator<CvPlot *>::max_size, COMDAT
; _this$ = ecx

; 165  : 		_SIZT _Count = (_SIZT)(-1) / sizeof (_Ty);
; 166  : 		return (0 < _Count ? _Count : 1);

	mov	eax, 1073741823				; 3fffffffH

; 167  : 		}

	ret	0
?max_size@?$allocator@PAVCvPlot@@@std@@QBEIXZ ENDP	; std::allocator<CvPlot *>::max_size
_TEXT	ENDS
PUBLIC	??8?$_Vector_const_iterator@VCvTacticalCity@@V?$allocator@VCvTacticalCity@@@std@@@std@@QBE_NABV01@@Z ; std::_Vector_const_iterator<CvTacticalCity,std::allocator<CvTacticalCity> >::operator==
; Function compile flags: /Ogtpy
; File c:\program files (x86)\microsoft visual studio 9.0\vc\include\vector
;	COMDAT ??8?$_Vector_const_iterator@VCvTacticalCity@@V?$allocator@VCvTacticalCity@@@std@@@std@@QBE_NABV01@@Z
_TEXT	SEGMENT
__Right$ = 8						; size = 4
??8?$_Vector_const_iterator@VCvTacticalCity@@V?$allocator@VCvTacticalCity@@@std@@@std@@QBE_NABV01@@Z PROC ; std::_Vector_const_iterator<CvTacticalCity,std::allocator<CvTacticalCity> >::operator==, COMDAT
; _this$ = ecx

; 204  : 
; 205  :  #if _HAS_ITERATOR_DEBUGGING
; 206  : 		_Compat(_Right);
; 207  :  #else
; 208  : 		_SCL_SECURE_VALIDATE(this->_Has_container() && this->_Same_container(_Right));
; 209  :  #endif /* _HAS_ITERATOR_DEBUGGING */
; 210  : 
; 211  : 		return (_Myptr == _Right._Myptr);

	mov	eax, DWORD PTR [ecx]
	mov	edx, DWORD PTR __Right$[esp-4]
	xor	ecx, ecx
	cmp	eax, DWORD PTR [edx]
	sete	cl
	mov	al, cl

; 212  : 		}

	ret	4
??8?$_Vector_const_iterator@VCvTacticalCity@@V?$allocator@VCvTacticalCity@@@std@@@std@@QBE_NABV01@@Z ENDP ; std::_Vector_const_iterator<CvTacticalCity,std::allocator<CvTacticalCity> >::operator==
_TEXT	ENDS
PUBLIC	??0?$_Container_base_aux_alloc_empty@V?$allocator@VCvQueuedAttack@@@std@@@std@@IAE@V?$allocator@VCvQueuedAttack@@@1@@Z ; std::_Container_base_aux_alloc_empty<std::allocator<CvQueuedAttack> >::_Container_base_aux_alloc_empty<std::allocator<CvQueuedAttack> >
; Function compile flags: /Ogtpy
; File c:\program files (x86)\microsoft visual studio 9.0\vc\include\xutility
;	COMDAT ??0?$_Container_base_aux_alloc_empty@V?$allocator@VCvQueuedAttack@@@std@@@std@@IAE@V?$allocator@VCvQueuedAttack@@@1@@Z
_TEXT	SEGMENT
___formal$ = 8						; size = 1
??0?$_Container_base_aux_alloc_empty@V?$allocator@VCvQueuedAttack@@@std@@@std@@IAE@V?$allocator@VCvQueuedAttack@@@1@@Z PROC ; std::_Container_base_aux_alloc_empty<std::allocator<CvQueuedAttack> >::_Container_base_aux_alloc_empty<std::allocator<CvQueuedAttack> >, COMDAT
; _this$ = ecx

; 618  : 	explicit _Container_base_aux_alloc_empty(_Alloc) { }

	mov	eax, ecx
	ret	4
??0?$_Container_base_aux_alloc_empty@V?$allocator@VCvQueuedAttack@@@std@@@std@@IAE@V?$allocator@VCvQueuedAttack@@@1@@Z ENDP ; std::_Container_base_aux_alloc_empty<std::allocator<CvQueuedAttack> >::_Container_base_aux_alloc_empty<std::allocator<CvQueuedAttack> >
_TEXT	ENDS
PUBLIC	?max_size@?$allocator@VCvQueuedAttack@@@std@@QBEIXZ ; std::allocator<CvQueuedAttack>::max_size
; Function compile flags: /Ogtpy
; File c:\program files (x86)\microsoft visual studio 9.0\vc\include\xmemory
;	COMDAT ?max_size@?$allocator@VCvQueuedAttack@@@std@@QBEIXZ
_TEXT	SEGMENT
?max_size@?$allocator@VCvQueuedAttack@@@std@@QBEIXZ PROC ; std::allocator<CvQueuedAttack>::max_size, COMDAT
; _this$ = ecx

; 165  : 		_SIZT _Count = (_SIZT)(-1) / sizeof (_Ty);
; 166  : 		return (0 < _Count ? _Count : 1);

	mov	eax, 107374182				; 06666666H

; 167  : 		}

	ret	0
?max_size@?$allocator@VCvQueuedAttack@@@std@@QBEIXZ ENDP ; std::allocator<CvQueuedAttack>::max_size
_TEXT	ENDS
PUBLIC	??Y?$_Vector_const_iterator@PAVCvPlot@@V?$allocator@PAVCvPlot@@@std@@@std@@QAEAAV01@H@Z ; std::_Vector_const_iterator<CvPlot *,std::allocator<CvPlot *> >::operator+=
; Function compile flags: /Ogtpy
; File c:\program files (x86)\microsoft visual studio 9.0\vc\include\vector
;	COMDAT ??Y?$_Vector_const_iterator@PAVCvPlot@@V?$allocator@PAVCvPlot@@@std@@@std@@QAEAAV01@H@Z
_TEXT	SEGMENT
__Off$ = 8						; size = 4
??Y?$_Vector_const_iterator@PAVCvPlot@@V?$allocator@PAVCvPlot@@@std@@@std@@QAEAAV01@H@Z PROC ; std::_Vector_const_iterator<CvPlot *,std::allocator<CvPlot *> >::operator+=, COMDAT
; _this$ = ecx

; 159  : 		{	// increment by integer

	mov	eax, ecx

; 160  : 		_SCL_SECURE_VALIDATE(this->_Has_container());
; 161  : 		_SCL_SECURE_VALIDATE_RANGE(
; 162  : 			_Myptr + _Off <= ((_Myvec *)(this->_Getmycont()))->_Mylast &&
; 163  : 			_Myptr + _Off >= ((_Myvec *)(this->_Getmycont()))->_Myfirst);
; 164  : 		_Myptr += _Off;

	mov	ecx, DWORD PTR __Off$[esp-4]
	lea	edx, DWORD PTR [ecx*4]
	add	DWORD PTR [eax], edx

; 165  : 		return (*this);
; 166  : 		}

	ret	4
??Y?$_Vector_const_iterator@PAVCvPlot@@V?$allocator@PAVCvPlot@@@std@@@std@@QAEAAV01@H@Z ENDP ; std::_Vector_const_iterator<CvPlot *,std::allocator<CvPlot *> >::operator+=
_TEXT	ENDS
PUBLIC	??Y?$_Vector_const_iterator@VCvTacticalUnit@@V?$allocator@VCvTacticalUnit@@@std@@@std@@QAEAAV01@H@Z ; std::_Vector_const_iterator<CvTacticalUnit,std::allocator<CvTacticalUnit> >::operator+=
; Function compile flags: /Ogtpy
;	COMDAT ??Y?$_Vector_const_iterator@VCvTacticalUnit@@V?$allocator@VCvTacticalUnit@@@std@@@std@@QAEAAV01@H@Z
_TEXT	SEGMENT
__Off$ = 8						; size = 4
??Y?$_Vector_const_iterator@VCvTacticalUnit@@V?$allocator@VCvTacticalUnit@@@std@@@std@@QAEAAV01@H@Z PROC ; std::_Vector_const_iterator<CvTacticalUnit,std::allocator<CvTacticalUnit> >::operator+=, COMDAT
; _this$ = ecx

; 159  : 		{	// increment by integer

	mov	eax, ecx

; 160  : 		_SCL_SECURE_VALIDATE(this->_Has_container());
; 161  : 		_SCL_SECURE_VALIDATE_RANGE(
; 162  : 			_Myptr + _Off <= ((_Myvec *)(this->_Getmycont()))->_Mylast &&
; 163  : 			_Myptr + _Off >= ((_Myvec *)(this->_Getmycont()))->_Myfirst);
; 164  : 		_Myptr += _Off;

	mov	ecx, DWORD PTR __Off$[esp-4]
	lea	ecx, DWORD PTR [ecx+ecx*2]
	add	ecx, ecx
	add	ecx, ecx
	add	ecx, ecx
	add	DWORD PTR [eax], ecx

; 165  : 		return (*this);
; 166  : 		}

	ret	4
??Y?$_Vector_const_iterator@VCvTacticalUnit@@V?$allocator@VCvTacticalUnit@@@std@@@std@@QAEAAV01@H@Z ENDP ; std::_Vector_const_iterator<CvTacticalUnit,std::allocator<CvTacticalUnit> >::operator+=
_TEXT	ENDS
PUBLIC	??Y?$_Vector_const_iterator@VCvTacticalCity@@V?$allocator@VCvTacticalCity@@@std@@@std@@QAEAAV01@H@Z ; std::_Vector_const_iterator<CvTacticalCity,std::allocator<CvTacticalCity> >::operator+=
; Function compile flags: /Ogtpy
;	COMDAT ??Y?$_Vector_const_iterator@VCvTacticalCity@@V?$allocator@VCvTacticalCity@@@std@@@std@@QAEAAV01@H@Z
_TEXT	SEGMENT
__Off$ = 8						; size = 4
??Y?$_Vector_const_iterator@VCvTacticalCity@@V?$allocator@VCvTacticalCity@@@std@@@std@@QAEAAV01@H@Z PROC ; std::_Vector_const_iterator<CvTacticalCity,std::allocator<CvTacticalCity> >::operator+=, COMDAT
; _this$ = ecx

; 159  : 		{	// increment by integer

	mov	eax, ecx

; 160  : 		_SCL_SECURE_VALIDATE(this->_Has_container());
; 161  : 		_SCL_SECURE_VALIDATE_RANGE(
; 162  : 			_Myptr + _Off <= ((_Myvec *)(this->_Getmycont()))->_Mylast &&
; 163  : 			_Myptr + _Off >= ((_Myvec *)(this->_Getmycont()))->_Myfirst);
; 164  : 		_Myptr += _Off;

	mov	ecx, DWORD PTR __Off$[esp-4]
	lea	ecx, DWORD PTR [ecx+ecx*2]
	add	ecx, ecx
	add	ecx, ecx
	add	DWORD PTR [eax], ecx

; 165  : 		return (*this);
; 166  : 		}

	ret	4
??Y?$_Vector_const_iterator@VCvTacticalCity@@V?$allocator@VCvTacticalCity@@@std@@@std@@QAEAAV01@H@Z ENDP ; std::_Vector_const_iterator<CvTacticalCity,std::allocator<CvTacticalCity> >::operator+=
_TEXT	ENDS
PUBLIC	??$max@H@std@@YAABHABH0@Z			; std::max<int>
; Function compile flags: /Ogtpy
; File c:\program files (x86)\microsoft visual studio 9.0\vc\include\xutility
;	COMDAT ??$max@H@std@@YAABHABH0@Z
_TEXT	SEGMENT
__Left$ = 8						; size = 4
__Right$ = 12						; size = 4
??$max@H@std@@YAABHABH0@Z PROC				; std::max<int>, COMDAT

; 3384 : 	return (_DEBUG_LT(_Left, _Right) ? _Right : _Left);

	mov	eax, DWORD PTR __Left$[esp-4]
	mov	edx, DWORD PTR [eax]
	mov	ecx, DWORD PTR __Right$[esp-4]
	cmp	edx, DWORD PTR [ecx]
	jge	SHORT $LN4@max
	mov	eax, ecx
$LN4@max:

; 3385 : 	}

	ret	0
??$max@H@std@@YAABHABH0@Z ENDP				; std::max<int>
_TEXT	ENDS
PUBLIC	??$SAFE_DELETE@VCvTacticalMoveXMLEntry@@@@YAXAAPAVCvTacticalMoveXMLEntry@@@Z ; SAFE_DELETE<CvTacticalMoveXMLEntry>
; Function compile flags: /Ogtpy
; File c:\users\enormousapplepie\desktop\lekmod files\lekmod dll versions\v29\lekmod_dll\fireplace\include\fireworks\ffiretypes.h
;	COMDAT ??$SAFE_DELETE@VCvTacticalMoveXMLEntry@@@@YAXAAPAVCvTacticalMoveXMLEntry@@@Z
_TEXT	SEGMENT
_pkInstance$ = 8					; size = 4
??$SAFE_DELETE@VCvTacticalMoveXMLEntry@@@@YAXAAPAVCvTacticalMoveXMLEntry@@@Z PROC ; SAFE_DELETE<CvTacticalMoveXMLEntry>, COMDAT

; 305  : {

	push	esi

; 306  : 	delete pkInstance;

	mov	esi, DWORD PTR _pkInstance$[esp]
	mov	ecx, DWORD PTR [esi]
	test	ecx, ecx
	je	SHORT $LN5@SAFE_DELET
	mov	eax, DWORD PTR [ecx]
	mov	edx, DWORD PTR [eax+16]
	push	1
	call	edx
$LN5@SAFE_DELET:

; 307  : 	pkInstance = NULL;

	mov	DWORD PTR [esi], 0
	pop	esi

; 308  : };

	ret	0
??$SAFE_DELETE@VCvTacticalMoveXMLEntry@@@@YAXAAPAVCvTacticalMoveXMLEntry@@@Z ENDP ; SAFE_DELETE<CvTacticalMoveXMLEntry>
_TEXT	ENDS
PUBLIC	??$min@H@std@@YAABHABH0@Z			; std::min<int>
; Function compile flags: /Ogtpy
; File c:\program files (x86)\microsoft visual studio 9.0\vc\include\xutility
;	COMDAT ??$min@H@std@@YAABHABH0@Z
_TEXT	SEGMENT
__Left$ = 8						; size = 4
__Right$ = 12						; size = 4
??$min@H@std@@YAABHABH0@Z PROC				; std::min<int>, COMDAT

; 3399 : 	return (_DEBUG_LT(_Right, _Left) ? _Right : _Left);

	mov	eax, DWORD PTR __Right$[esp-4]
	mov	edx, DWORD PTR [eax]
	mov	ecx, DWORD PTR __Left$[esp-4]
	cmp	edx, DWORD PTR [ecx]
	jl	SHORT $LN4@min
	mov	eax, ecx
$LN4@min:

; 3400 : 	}

	ret	0
??$min@H@std@@YAABHABH0@Z ENDP				; std::min<int>
_TEXT	ENDS
PUBLIC	??$_Destroy@U_Node@?$_List_nod@HV?$allocator@H@std@@@std@@@std@@YAXPAU_Node@?$_List_nod@HV?$allocator@H@std@@@0@@Z ; std::_Destroy<std::_List_nod<int,std::allocator<int> >::_Node>
; Function compile flags: /Ogtpy
; File c:\program files (x86)\microsoft visual studio 9.0\vc\include\xmemory
;	COMDAT ??$_Destroy@U_Node@?$_List_nod@HV?$allocator@H@std@@@std@@@std@@YAXPAU_Node@?$_List_nod@HV?$allocator@H@std@@@0@@Z
_TEXT	SEGMENT
__Ptr$ = 8						; size = 4
??$_Destroy@U_Node@?$_List_nod@HV?$allocator@H@std@@@std@@@std@@YAXPAU_Node@?$_List_nod@HV?$allocator@H@std@@@0@@Z PROC ; std::_Destroy<std::_List_nod<int,std::allocator<int> >::_Node>, COMDAT

; 59   : 	_DESTRUCTOR(_Ty, _Ptr);
; 60   : 	}

	ret	0
??$_Destroy@U_Node@?$_List_nod@HV?$allocator@H@std@@@std@@@std@@YAXPAU_Node@?$_List_nod@HV?$allocator@H@std@@@0@@Z ENDP ; std::_Destroy<std::_List_nod<int,std::allocator<int> >::_Node>
_TEXT	ENDS
PUBLIC	?GetBarbarianReleaseTurn@CvGame@@QBEHXZ		; CvGame::GetBarbarianReleaseTurn
; Function compile flags: /Ogtpy
; File c:\users\enormousapplepie\desktop\lekmod files\lekmod dll versions\v29\lekmod_dll\cvgamecoredll_expansion2\cvgame.h
;	COMDAT ?GetBarbarianReleaseTurn@CvGame@@QBEHXZ
_TEXT	SEGMENT
?GetBarbarianReleaseTurn@CvGame@@QBEHXZ PROC		; CvGame::GetBarbarianReleaseTurn, COMDAT
; _this$ = ecx

; 501  : 		return m_iEarliestBarbarianReleaseTurn;

	mov	eax, DWORD PTR [ecx+604]

; 502  : 	};

	ret	0
?GetBarbarianReleaseTurn@CvGame@@QBEHXZ ENDP		; CvGame::GetBarbarianReleaseTurn
_TEXT	ENDS
PUBLIC	??$_Destroy@U_Node@?$_List_nod@VCvQueuedAttack@@V?$allocator@VCvQueuedAttack@@@std@@@std@@@std@@YAXPAU_Node@?$_List_nod@VCvQueuedAttack@@V?$allocator@VCvQueuedAttack@@@std@@@0@@Z ; std::_Destroy<std::_List_nod<CvQueuedAttack,std::allocator<CvQueuedAttack> >::_Node>
; Function compile flags: /Ogtpy
; File c:\program files (x86)\microsoft visual studio 9.0\vc\include\xmemory
;	COMDAT ??$_Destroy@U_Node@?$_List_nod@VCvQueuedAttack@@V?$allocator@VCvQueuedAttack@@@std@@@std@@@std@@YAXPAU_Node@?$_List_nod@VCvQueuedAttack@@V?$allocator@VCvQueuedAttack@@@std@@@0@@Z
_TEXT	SEGMENT
__Ptr$ = 8						; size = 4
??$_Destroy@U_Node@?$_List_nod@VCvQueuedAttack@@V?$allocator@VCvQueuedAttack@@@std@@@std@@@std@@YAXPAU_Node@?$_List_nod@VCvQueuedAttack@@V?$allocator@VCvQueuedAttack@@@std@@@0@@Z PROC ; std::_Destroy<std::_List_nod<CvQueuedAttack,std::allocator<CvQueuedAttack> >::_Node>, COMDAT

; 59   : 	_DESTRUCTOR(_Ty, _Ptr);
; 60   : 	}

	ret	0
??$_Destroy@U_Node@?$_List_nod@VCvQueuedAttack@@V?$allocator@VCvQueuedAttack@@@std@@@std@@@std@@YAXPAU_Node@?$_List_nod@VCvQueuedAttack@@V?$allocator@VCvQueuedAttack@@@std@@@0@@Z ENDP ; std::_Destroy<std::_List_nod<CvQueuedAttack,std::allocator<CvQueuedAttack> >::_Node>
_TEXT	ENDS
PUBLIC	?GetLastTurnMoved@CvAIOperation@@QBEHXZ		; CvAIOperation::GetLastTurnMoved
; Function compile flags: /Ogtpy
