; Listing generated by Microsoft (R) Optimizing Compiler Version 15.00.30729.01 

	TITLE	c:\Users\EnormousApplePie\Documents\GitHub\Lekmod\LEKMOD_DLL\CvGameCoreDLL_Expansion2\CvTraitClasses.cpp
	.686P
	.XMM
	include listing.inc
	.model	flat

INCLUDELIB MSVCRT
INCLUDELIB OLDNAMES

PUBLIC	?NO_QUEST_DATA@CvMinorCivQuest@@2HB		; CvMinorCivQuest::NO_QUEST_DATA
PUBLIC	?NO_TURN@CvMinorCivQuest@@2HB			; CvMinorCivQuest::NO_TURN
CONST	SEGMENT
$SG223032 DB	'ShortDescription', 00H
	ORG $+3
$SG223033 DB	'LevelExperienceModifier', 00H
$SG223034 DB	'GreatPeopleRateModifier', 00H
$SG223035 DB	'GreatScientistRateModifier', 00H
	ORG $+1
$SG223036 DB	'GreatGeneralRateModifier', 00H
	ORG $+3
$SG223037 DB	'GreatGeneralExtraBonus', 00H
	ORG $+1
$SG223038 DB	'GreatPersonGiftInfluence', 00H
	ORG $+3
$SG223039 DB	'MaxGlobalBuildingProductionModifier', 00H
$SG223040 DB	'MaxTeamBuildingProductionModifier', 00H
	ORG $+2
$SG223041 DB	'MaxPlayerBuildingProductionModifier', 00H
$SG223042 DB	'CityUnhappinessModifier', 00H
$SG223043 DB	'PopulationUnhappinessModifier', 00H
	ORG $+2
$SG223044 DB	'CityStateBonusModifier', 00H
	ORG $+1
$SG223045 DB	'CityStateFriendshipModifier', 00H
$SG223046 DB	'CityStateCombatModifier', 00H
$SG223047 DB	'LandBarbarianConversionPercent', 00H
	ORG $+1
$SG223048 DB	'LandBarbarianConversionExtraUnits', 00H
	ORG $+2
$SG223049 DB	'SeaBarbarianConversionPercent', 00H
	ORG $+2
$SG223050 DB	'CapitalBuildingModifier', 00H
$SG223051 DB	'PlotBuyCostModifier', 00H
$SG223052 DB	'PlotCultureCostModifier', 00H
$SG223053 DB	'SciencePerGreatPersonBorn', 00H
	ORG $+2
$SG223054 DB	'NumTurnsBeforeMinorAlliesRefuseBribes', 00H
	ORG $+2
$SG223055 DB	'GoldenAgeTileBonusFaith', 00H
$SG223056 DB	'CultureFromKills', 00H
	ORG $+3
$SG223057 DB	'FaithFromKills', 00H
	ORG $+1
$SG223058 DB	'CityCultureBonus', 00H
	ORG $+3
$SG223059 DB	'CapitalThemingBonusModifier', 00H
$SG223060 DB	'PolicyCostModifier', 00H
	ORG $+1
$SG223061 DB	'CityConnectionTradeRouteChange', 00H
	ORG $+1
$SG223062 DB	'WonderProductionModifier', 00H
	ORG $+3
$SG223063 DB	'PlunderModifier', 00H
$SG223064 DB	'ImprovementMaintenanceModifier', 00H
	ORG $+1
$SG223065 DB	'GoldenAgeDurationModifier', 00H
	ORG $+2
$SG223066 DB	'GoldenAgeMoveChange', 00H
$SG223067 DB	'GoldenAgeCombatModifier', 00H
$SG223068 DB	'GoldenAgeTourismModifier', 00H
	ORG $+3
$SG223069 DB	'GoldenAgeGreatArtistRateModifier', 00H
	ORG $+3
$SG223070 DB	'GoldenAgeGreatMusicianRateModifier', 00H
	ORG $+1
$SG223071 DB	'GoldenAgeGreatWriterRateModifier', 00H
	ORG $+3
$SG223072 DB	'ExtraEmbarkMoves', 00H
	ORG $+3
$SG223073 DB	'NaturalWonderFirstFinderGold', 00H
	ORG $+3
$SG223074 DB	'NaturalWonderSubsequentFinderGold', 00H
	ORG $+2
$SG223075 DB	'NaturalWonderFirstFinderFaith', 00H
	ORG $+2
$SG223076 DB	'NaturalWonderSubsequentFinderFaith', 00H
	ORG $+1
$SG223077 DB	'NaturalWonderYieldModifier', 00H
	ORG $+1
$SG223078 DB	'NaturalWonderHappinessModifier', 00H
	ORG $+1
$SG223079 DB	'NearbyImprovementCombatBonus', 00H
	ORG $+3
$SG223080 DB	'NearbyImprovementBonusRange', 00H
$SG223081 DB	'CultureBuildingYieldChange', 00H
	ORG $+1
$SG223082 DB	'CombatBonusVsHigherTech', 00H
$SG223083 DB	'CombatBonusVsLargerCiv', 00H
	ORG $+1
$SG223084 DB	'LandUnitMaintenanceModifier', 00H
$SG223085 DB	'NavalUnitMaintenanceModifier', 00H
	ORG $+3
$SG223086 DB	'RazeSpeedModifier', 00H
	ORG $+2
$SG223087 DB	'DOFGreatPersonModifier', 00H
	ORG $+1
$SG223088 DB	'LuxuryHappinessRetention', 00H
	ORG $+3
$SG223089 DB	'ExtraHappinessPerLuxury', 00H
$SG223090 DB	'ExtraSpies', 00H
	ORG $+1
$SG223091 DB	'HappinessPerReligion', 00H
	ORG $+3
$SG223092 DB	'UnresearchedTechBonusFromKills', 00H
	ORG $+1
$SG223093 DB	'ExtraFoundedCityTerritoryClaimRange', 00H
$SG223094 DB	'FreeSocialPoliciesPerEra', 00H
	ORG $+3
$SG223095 DB	'NumTradeRoutesModifier', 00H
	ORG $+1
$SG223096 DB	'TradeRouteResourceModifier', 00H
	ORG $+1
$SG223097 DB	'UniqueLuxuryCities', 00H
	ORG $+1
$SG223098 DB	'UniqueLuxuryQuantity', 00H
	ORG $+3
$SG223099 DB	'WorkerSpeedModifier', 00H
$SG223100 DB	'AfraidMinorPerTurnInfluence', 00H
$SG223101 DB	'LandTradeRouteRangeBonus', 00H
	ORG $+3
$SG223102 DB	'TradeReligionModifier', 00H
	ORG $+2
$SG223103 DB	'TradeBuildingModifier', 00H
	ORG $+2
$SG223105 DB	'FreeUnit', 00H
	ORG $+3
$SG223107 DB	'FreeUnitPrereqTech', 00H
	ORG $+1
$SG223110 DB	'FreeBuildingPrereqTech', 00H
	ORG $+1
$SG223113 DB	'CapitalFreeBuildingPrereqTech', 00H
	ORG $+2
$SG223116 DB	'CombatBonusImprovement', 00H
	ORG $+1
$SG223119 DB	'ObsoleteTech', 00H
	ORG $+3
$SG223121 DB	'PrereqTech', 00H
	ORG $+1
$SG223123 DB	'FreeBuilding', 00H
	ORG $+3
$SG223126 DB	'FreeCapitalBuilding', 00H
$SG223129 DB	'FreeBuildingOnConquest', 00H
	ORG $+1
$SG223132 DB	'FightWellDamaged', 00H
	ORG $+3
$SG223133 DB	'MoveFriendlyWoodsAsRoad', 00H
$SG223134 DB	'FasterAlongRiver', 00H
	ORG $+3
$SG223135 DB	'FasterInHills', 00H
	ORG $+2
$SG223136 DB	'EmbarkedAllWater', 00H
	ORG $+3
$SG223137 DB	'EmbarkedToLandFlatCost', 00H
	ORG $+1
$SG223138 DB	'NoHillsImprovementMaintenance', 00H
	ORG $+2
$SG223139 DB	'TechBoostFromCapitalScienceBuildings', 00H
	ORG $+3
$SG223140 DB	'StaysAliveZeroCities', 00H
	ORG $+3
$SG223141 DB	'FaithFromUnimprovedForest', 00H
	ORG $+2
$SG223142 DB	'SeaTradeRoutesArePlunderImmune', 00H
	ORG $+1
$SG223143 DB	'EarnsGreatPersonOnSlotOrGuild', 00H
	ORG $+2
$SG223144 DB	'BonusReligiousBelief', 00H
	ORG $+3
$SG223145 DB	'AbleToAnnexCityStates', 00H
	ORG $+2
$SG223146 DB	'CrossesMountainsAfterGreatGeneral', 00H
	ORG $+2
$SG223147 DB	'MayaCalendarBonuses', 00H
$SG223148 DB	'NoAnnexing', 00H
	ORG $+1
$SG223149 DB	'TechFromCityConquer', 00H
$SG223150 DB	'UniqueLuxuryRequiresNewArea', 00H
$SG223151 DB	'RiverTradeRoad', 00H
	ORG $+1
$SG223152 DB	'AngerFreeIntrusionOfCityStates', 00H
	ORG $+1
$SG223154 DB	'TraitType', 00H
	ORG $+2
$SG223155 DB	'Trait_ExtraYieldThresholds', 00H
	ORG $+1
$SG223156 DB	'TraitType', 00H
	ORG $+2
$SG223157 DB	'Trait_YieldChanges', 00H
	ORG $+1
$SG223158 DB	'TraitType', 00H
	ORG $+2
$SG223159 DB	'Trait_YieldChangesStrategicResources', 00H
	ORG $+3
$SG223160 DB	'TraitType', 00H
	ORG $+2
$SG223161 DB	'Trait_YieldChangesLuxuryResources', 00H
	ORG $+2
$SG223162 DB	'TraitType', 00H
	ORG $+2
$SG223163 DB	'Trait_YieldChangesNaturalWonder', 00H
$SG223164 DB	'TraitType', 00H
	ORG $+2
$SG223165 DB	'Trait_YieldChangesPerTradePartner', 00H
	ORG $+2
$SG223166 DB	'TraitType', 00H
	ORG $+2
$SG223167 DB	'Trait_YieldChangesIncomingTradeRoute', 00H
	ORG $+3
$SG223168 DB	'TraitType', 00H
	ORG $+2
$SG223169 DB	'Trait_YieldModifiers', 00H
	ORG $+3
$SG223177 DB	'Trait_Terrains', 00H
	ORG $+1
$SG223181 DB	'select TraitType, Terrains.ID as TerrainID, StrategicRes'
	DB	'ourceQuantityModifier from Trait_Terrains join Terrains on Te'
	DB	'rrains.Type = TerrainType where TraitType = ?', 00H
	ORG $+1
$SG223186 DB	'TerrainID', 00H
	ORG $+2
$SG223188 DB	'StrategicResourceQuantityModifier', 00H
	ORG $+2
$SG223190 DB	'FreePromotionUnitCombats', 00H
	ORG $+3
$SG223194 DB	'select UnitPromotions.ID, UnitCombatInfos.ID from Trait_'
	DB	'FreePromotionUnitCombats, UnitPromotions, UnitCombatInfos whe'
	DB	're TraitType = ? and PromotionType = UnitPromotions.Type and '
	DB	'UnitCombatType = UnitCombatInfos.Type', 00H
$SG223274 DB	'ResourceQuantityModifier', 00H
	ORG $+3
$SG223275 DB	'TraitType', 00H
	ORG $+2
$SG223276 DB	'ResourceType', 00H
	ORG $+3
$SG223277 DB	'Trait_ResourceQuantityModifiers', 00H
$SG223278 DB	'Resources', 00H
	ORG $+2
$SG223280 DB	'UnitCombatInfos', 00H
$SG223282 DB	'Trait_MovesChangeUnitCombats', 00H
	ORG $+7
$SG223286 DB	'select UnitCombatInfos.ID, MovesChange from Trait_MovesC'
	DB	'hangeUnitCombats inner join UnitCombatInfos on UnitCombatInfo'
	DB	's.Type = UnitCombatType where TraitType = ?;', 00H
	ORG $+2
$SG223293 DB	'UnitCombatInfos', 00H
$SG223295 DB	'Trait_MaintenanceModifierUnitCombats', 00H
	ORG $+7
$SG223299 DB	'select UnitCombatInfos.ID, MaintenanceModifier from Trai'
	DB	't_MaintenanceModifierUnitCombats inner join UnitCombatInfos o'
	DB	'n UnitCombatInfos.Type = UnitCombatType where TraitType = ?;', 00H
	ORG $+2
$SG223305 DB	'Yields', 00H
	ORG $+1
$SG223306 DB	'Improvements', 00H
	ORG $+3
$SG223308 DB	'Trait_ImprovementYieldChanges', 00H
	ORG $+6
$SG223311 DB	'select Improvements.ID as ImprovementID, Yields.ID as Yi'
	DB	'eldID, Yield from Trait_ImprovementYieldChanges inner join Im'
	DB	'provements on Improvements.Type = ImprovementType inner join '
	DB	'Yields on Yields.Type = YieldType where TraitType = ?', 00H
$SG223318 DB	'Yields', 00H
	ORG $+1
$SG223319 DB	'Specialists', 00H
$SG223321 DB	'Building_SpecialistYieldChanges', 00H
$SG223332 DB	'Features', 00H
	ORG $+3
$SG223324 DB	'select Specialists.ID as SpecialistID, Yields.ID as Yiel'
	DB	'dID, Yield from Trait_SpecialistYieldChanges inner join Speci'
	DB	'alists on Specialists.Type = SpecialistType inner join Yields'
	DB	' on Yields.Type = YieldType where TraitType = ?', 00H
	ORG $+2
$SG223331 DB	'Yields', 00H
	ORG $+1
$SG223334 DB	'Trait_UnimprovedFeatureYieldChanges', 00H
$SG223337 DB	'select Features.ID as FeatureID, Yields.ID as YieldID, Y'
	DB	'ield from Trait_UnimprovedFeatureYieldChanges inner join Feat'
	DB	'ures on Features.Type = FeatureType inner join Yields on Yiel'
	DB	'ds.Type = YieldType where TraitType = ?', 00H
	ORG $+2
$SG223349 DB	'Trait_NoTrain', 00H
	ORG $+6
$SG223352 DB	'SELECT Traits.ID, UnitClasses.ID FROM Trait_NoTrain inne'
	DB	'r join Traits on Trait_NoTrain.TraitType = Traits.Type inner '
	DB	'join UnitClasses on Trait_NoTrain.UnitClassType = UnitClasses'
	DB	'.Type where TraitType = ?', 00H
$SG223364 DB	'Trait_NoBuild', 00H
	ORG $+6
$SG223367 DB	'SELECT Traits.ID, Improvements.ID FROM Trait_NoBuild inn'
	DB	'er join Traits on Trait_NoBuild.TraitType = Traits.Type inner'
	DB	' join Improvements on Trait_NoBuild.ImprovementType = Improve'
	DB	'ments.Type where TraitType = ?', 00H
	ORG $+3
$SG223379 DB	'Trait_FreeResourceFirstXCities', 00H
	ORG $+5
$SG223382 DB	'select Resources.ID as ResourceID, ResourceQuantity, Num'
	DB	'Cities from Trait_FreeResourceFirstXCities inner join Resourc'
	DB	'es on Resources.Type = ResourceType where TraitType = ?', 00H
	ORG $+3
_CALENDAR_START DD 0c542865br			; -3112.4
_DAYS_IN_BAKTUN DD 0480ca000r			; 144000
_DAYS_IN_KATUN DD 045e10000r			; 7200
_DAYS_IN_TUN DD	043b40000r			; 360
_DAYS_IN_WINAL DD 041a00000r			; 20
_DAYS_IN_YEAR DD 043b69f00r			; 365.242
$SG224046 DB	'%d.%d.%d.%d.%d', 00H
	ORG $+1
$SG224066 DB	'TXT_KEY_MAYA_CALENDAR_LONG_STRING', 00H
	ORG $+2
$SG224073 DB	'UNIT_PROPHET', 00H
	ORG $+3
$SG224084 DB	'UNIT_ENGINEER', 00H
	ORG $+2
$SG224090 DB	'UNIT_SCIENTIST', 00H
	ORG $+1
$SG224094 DB	'AIGRANDSTRATEGY_SPACESHIP', 00H
	ORG $+2
$SG224097 DB	'UNIT_ARTIST', 00H
$SG224101 DB	'AIGRANDSTRATEGY_CULTURE', 00H
$SG224104 DB	'UNIT_MERCHANT', 00H
	ORG $+2
$SG224108 DB	'AIGRANDSTRATEGY_UNITED_NATIONS', 00H
	ORG $+1
$SG224111 DB	'UNIT_GREAT_GENERAL', 00H
	ORG $+1
$SG224115 DB	'AIGRANDSTRATEGY_CONQUEST', 00H
	ORG $+3
$SG224118 DB	'UNIT_PROPHET', 00H
	ORG $+3
$SG224122 DB	'UNIT_ENGINEER', 00H
	ORG $+2
$SG224126 DB	'UNIT_WRITER', 00H
$SG224130 DB	'UNIT_MERCHANT', 00H
	ORG $+2
$SG224134 DB	'UNIT_SCIENTIST', 00H
	ORG $+1
$SG224138 DB	'UNIT_ARTIST', 00H
$SG224142 DB	'UNIT_MUSICIAN', 00H
	ORG $+2
$SG224146 DB	'UNIT_GREAT_GENERAL', 00H
	ORG $+1
$SG224150 DB	'UNIT_GREAT_ADMIRAL', 00H
	ORG $+1
$SG224304 DB	'SPECIALUNIT_PEOPLE', 00H
	ORG $+1
$SG224662 DB	'Barbarian Camp Conversion', 00H
	ORG $+2
$SG224674 DB	'Converted barbarian camp, X: %d, Y: %d', 00H
	ORG $+1
$SG224677 DB	'TXT_KEY_NOTIFICATION_BARB_CAMP_CONVERTS', 00H
$SG224680 DB	'TXT_KEY_NOTIFICATION_SUMMARY_BARB_CAMP_CONVERTS', 00H
$SG224693 DB	'Barbarian Naval Unit Conversion', 00H
$SG224696 DB	'LEADER_SULEIMAN', 00H
$SG224699 DB	'Converted barbarian naval unit, X: %d, Y: %d', 00H
	ORG $+3
$SG224702 DB	'TXT_KEY_NOTIFICATION_BARB_NAVAL_UNIT_CONVERTS', 00H
	ORG $+2
$SG224705 DB	'TXT_KEY_NOTIFICATION_SUMMARY_BARB_NAVAL_UNIT_CONVERTS', 00H
CONST	ENDS
;	COMDAT ?NO_TURN@CvMinorCivQuest@@2HB
CONST	SEGMENT
?NO_TURN@CvMinorCivQuest@@2HB DD 0ffffffffH		; CvMinorCivQuest::NO_TURN
CONST	ENDS
;	COMDAT ?NO_QUEST_DATA@CvMinorCivQuest@@2HB
CONST	SEGMENT
?NO_QUEST_DATA@CvMinorCivQuest@@2HB DD 0ffffffffH	; CvMinorCivQuest::NO_QUEST_DATA
CONST	ENDS
PUBLIC	?xToHexspaceX@@YAHHH@Z				; xToHexspaceX
; Function compile flags: /Ogtpy
; File c:\users\enormousapplepie\documents\github\lekmod\lekmod_dll\cvgamecoredll_expansion2\cvgamecoreutils.h
;	COMDAT ?xToHexspaceX@@YAHHH@Z
_TEXT	SEGMENT
_iX$ = 8						; size = 4
_iY$ = 12						; size = 4
?xToHexspaceX@@YAHHH@Z PROC				; xToHexspaceX, COMDAT

; 86   : 	return iX - ((iY >= 0) ? (iY>>1) : ((iY - 1)/2));

	mov	ecx, DWORD PTR _iY$[esp-4]
	test	ecx, ecx
	jge	SHORT $LN5@xToHexspac
	lea	eax, DWORD PTR [ecx-1]
	cdq
	sub	eax, edx
	mov	ecx, eax
$LN5@xToHexspac:
	mov	eax, DWORD PTR _iX$[esp-4]
	sar	ecx, 1
	sub	eax, ecx

; 87   : }

	ret	0
?xToHexspaceX@@YAHHH@Z ENDP				; xToHexspaceX
_TEXT	ENDS
PUBLIC	?hexspaceXToX@@YAHHH@Z				; hexspaceXToX
; Function compile flags: /Ogtpy
;	COMDAT ?hexspaceXToX@@YAHHH@Z
_TEXT	SEGMENT
_iHexspaceX$ = 8					; size = 4
_iHexspaceY$ = 12					; size = 4
?hexspaceXToX@@YAHHH@Z PROC				; hexspaceXToX, COMDAT

; 91   : 	return iHexspaceX + ((iHexspaceY >= 0) ? (iHexspaceY>>1) : ((iHexspaceY - 1)/2));

	mov	eax, DWORD PTR _iHexspaceY$[esp-4]
	test	eax, eax
	jl	SHORT $LN3@hexspaceXT
	mov	ecx, DWORD PTR _iHexspaceX$[esp-4]
	sar	eax, 1
	add	eax, ecx

; 92   : }

	ret	0
$LN3@hexspaceXT:

; 91   : 	return iHexspaceX + ((iHexspaceY >= 0) ? (iHexspaceY>>1) : ((iHexspaceY - 1)/2));

	dec	eax
	cdq
	sub	eax, edx
	mov	edx, DWORD PTR _iHexspaceX$[esp-4]
	sar	eax, 1
	add	eax, edx

; 92   : }

	ret	0
?hexspaceXToX@@YAHHH@Z ENDP				; hexspaceXToX
_TEXT	ENDS
PUBLIC	?GetLevelExperienceModifier@CvTraitEntry@@QBEHXZ ; CvTraitEntry::GetLevelExperienceModifier
; Function compile flags: /Ogtpy
; File c:\users\enormousapplepie\documents\github\lekmod\lekmod_dll\cvgamecoredll_expansion2\cvtraitclasses.cpp
;	COMDAT ?GetLevelExperienceModifier@CvTraitEntry@@QBEHXZ
_TEXT	SEGMENT
?GetLevelExperienceModifier@CvTraitEntry@@QBEHXZ PROC	; CvTraitEntry::GetLevelExperienceModifier, COMDAT
; _this$ = ecx

; 210  : 	return m_iLevelExperienceModifier;

	mov	eax, DWORD PTR [ecx+260]

; 211  : }

	ret	0
?GetLevelExperienceModifier@CvTraitEntry@@QBEHXZ ENDP	; CvTraitEntry::GetLevelExperienceModifier
_TEXT	ENDS
PUBLIC	?GetGreatPeopleRateModifier@CvTraitEntry@@QBEHXZ ; CvTraitEntry::GetGreatPeopleRateModifier
; Function compile flags: /Ogtpy
;	COMDAT ?GetGreatPeopleRateModifier@CvTraitEntry@@QBEHXZ
_TEXT	SEGMENT
?GetGreatPeopleRateModifier@CvTraitEntry@@QBEHXZ PROC	; CvTraitEntry::GetGreatPeopleRateModifier, COMDAT
; _this$ = ecx

; 216  : 	return m_iGreatPeopleRateModifier;

	mov	eax, DWORD PTR [ecx+264]

; 217  : }

	ret	0
?GetGreatPeopleRateModifier@CvTraitEntry@@QBEHXZ ENDP	; CvTraitEntry::GetGreatPeopleRateModifier
_TEXT	ENDS
PUBLIC	?GetGreatScientistRateModifier@CvTraitEntry@@QBEHXZ ; CvTraitEntry::GetGreatScientistRateModifier
; Function compile flags: /Ogtpy
;	COMDAT ?GetGreatScientistRateModifier@CvTraitEntry@@QBEHXZ
_TEXT	SEGMENT
?GetGreatScientistRateModifier@CvTraitEntry@@QBEHXZ PROC ; CvTraitEntry::GetGreatScientistRateModifier, COMDAT
; _this$ = ecx

; 222  : 	return m_iGreatScientistRateModifier;

	mov	eax, DWORD PTR [ecx+268]

; 223  : }

	ret	0
?GetGreatScientistRateModifier@CvTraitEntry@@QBEHXZ ENDP ; CvTraitEntry::GetGreatScientistRateModifier
_TEXT	ENDS
PUBLIC	?GetGreatGeneralRateModifier@CvTraitEntry@@QBEHXZ ; CvTraitEntry::GetGreatGeneralRateModifier
; Function compile flags: /Ogtpy
;	COMDAT ?GetGreatGeneralRateModifier@CvTraitEntry@@QBEHXZ
_TEXT	SEGMENT
?GetGreatGeneralRateModifier@CvTraitEntry@@QBEHXZ PROC	; CvTraitEntry::GetGreatGeneralRateModifier, COMDAT
; _this$ = ecx

; 228  : 	return m_iGreatGeneralRateModifier;

	mov	eax, DWORD PTR [ecx+272]

; 229  : }

	ret	0
?GetGreatGeneralRateModifier@CvTraitEntry@@QBEHXZ ENDP	; CvTraitEntry::GetGreatGeneralRateModifier
_TEXT	ENDS
PUBLIC	?GetGreatGeneralExtraBonus@CvTraitEntry@@QBEHXZ	; CvTraitEntry::GetGreatGeneralExtraBonus
; Function compile flags: /Ogtpy
;	COMDAT ?GetGreatGeneralExtraBonus@CvTraitEntry@@QBEHXZ
_TEXT	SEGMENT
?GetGreatGeneralExtraBonus@CvTraitEntry@@QBEHXZ PROC	; CvTraitEntry::GetGreatGeneralExtraBonus, COMDAT
; _this$ = ecx

; 234  : 	return m_iGreatGeneralExtraBonus;

	mov	eax, DWORD PTR [ecx+276]

; 235  : }

	ret	0
?GetGreatGeneralExtraBonus@CvTraitEntry@@QBEHXZ ENDP	; CvTraitEntry::GetGreatGeneralExtraBonus
_TEXT	ENDS
PUBLIC	?GetGreatPersonGiftInfluence@CvTraitEntry@@QBEHXZ ; CvTraitEntry::GetGreatPersonGiftInfluence
; Function compile flags: /Ogtpy
;	COMDAT ?GetGreatPersonGiftInfluence@CvTraitEntry@@QBEHXZ
_TEXT	SEGMENT
?GetGreatPersonGiftInfluence@CvTraitEntry@@QBEHXZ PROC	; CvTraitEntry::GetGreatPersonGiftInfluence, COMDAT
; _this$ = ecx

; 240  : 	return m_iGreatPersonGiftInfluence;

	mov	eax, DWORD PTR [ecx+280]

; 241  : }

	ret	0
?GetGreatPersonGiftInfluence@CvTraitEntry@@QBEHXZ ENDP	; CvTraitEntry::GetGreatPersonGiftInfluence
_TEXT	ENDS
PUBLIC	?GetMaxGlobalBuildingProductionModifier@CvTraitEntry@@QBEHXZ ; CvTraitEntry::GetMaxGlobalBuildingProductionModifier
; Function compile flags: /Ogtpy
;	COMDAT ?GetMaxGlobalBuildingProductionModifier@CvTraitEntry@@QBEHXZ
_TEXT	SEGMENT
?GetMaxGlobalBuildingProductionModifier@CvTraitEntry@@QBEHXZ PROC ; CvTraitEntry::GetMaxGlobalBuildingProductionModifier, COMDAT
; _this$ = ecx

; 246  : 	return m_iMaxGlobalBuildingProductionModifier;

	mov	eax, DWORD PTR [ecx+284]

; 247  : }

	ret	0
?GetMaxGlobalBuildingProductionModifier@CvTraitEntry@@QBEHXZ ENDP ; CvTraitEntry::GetMaxGlobalBuildingProductionModifier
_TEXT	ENDS
PUBLIC	?GetMaxTeamBuildingProductionModifier@CvTraitEntry@@QBEHXZ ; CvTraitEntry::GetMaxTeamBuildingProductionModifier
; Function compile flags: /Ogtpy
;	COMDAT ?GetMaxTeamBuildingProductionModifier@CvTraitEntry@@QBEHXZ
_TEXT	SEGMENT
?GetMaxTeamBuildingProductionModifier@CvTraitEntry@@QBEHXZ PROC ; CvTraitEntry::GetMaxTeamBuildingProductionModifier, COMDAT
; _this$ = ecx

; 252  : 	return m_iMaxTeamBuildingProductionModifier;

	mov	eax, DWORD PTR [ecx+288]

; 253  : }

	ret	0
?GetMaxTeamBuildingProductionModifier@CvTraitEntry@@QBEHXZ ENDP ; CvTraitEntry::GetMaxTeamBuildingProductionModifier
_TEXT	ENDS
PUBLIC	?GetMaxPlayerBuildingProductionModifier@CvTraitEntry@@QBEHXZ ; CvTraitEntry::GetMaxPlayerBuildingProductionModifier
; Function compile flags: /Ogtpy
;	COMDAT ?GetMaxPlayerBuildingProductionModifier@CvTraitEntry@@QBEHXZ
_TEXT	SEGMENT
?GetMaxPlayerBuildingProductionModifier@CvTraitEntry@@QBEHXZ PROC ; CvTraitEntry::GetMaxPlayerBuildingProductionModifier, COMDAT
; _this$ = ecx

; 258  : 	return m_iMaxPlayerBuildingProductionModifier;

	mov	eax, DWORD PTR [ecx+292]

; 259  : }

	ret	0
?GetMaxPlayerBuildingProductionModifier@CvTraitEntry@@QBEHXZ ENDP ; CvTraitEntry::GetMaxPlayerBuildingProductionModifier
_TEXT	ENDS
PUBLIC	?GetCityUnhappinessModifier@CvTraitEntry@@QBEHXZ ; CvTraitEntry::GetCityUnhappinessModifier
; Function compile flags: /Ogtpy
;	COMDAT ?GetCityUnhappinessModifier@CvTraitEntry@@QBEHXZ
_TEXT	SEGMENT
?GetCityUnhappinessModifier@CvTraitEntry@@QBEHXZ PROC	; CvTraitEntry::GetCityUnhappinessModifier, COMDAT
; _this$ = ecx

; 264  : 	return m_iCityUnhappinessModifier;

	mov	eax, DWORD PTR [ecx+296]

; 265  : }

	ret	0
?GetCityUnhappinessModifier@CvTraitEntry@@QBEHXZ ENDP	; CvTraitEntry::GetCityUnhappinessModifier
_TEXT	ENDS
PUBLIC	?GetPopulationUnhappinessModifier@CvTraitEntry@@QBEHXZ ; CvTraitEntry::GetPopulationUnhappinessModifier
; Function compile flags: /Ogtpy
;	COMDAT ?GetPopulationUnhappinessModifier@CvTraitEntry@@QBEHXZ
_TEXT	SEGMENT
?GetPopulationUnhappinessModifier@CvTraitEntry@@QBEHXZ PROC ; CvTraitEntry::GetPopulationUnhappinessModifier, COMDAT
; _this$ = ecx

; 270  : 	return m_iPopulationUnhappinessModifier;

	mov	eax, DWORD PTR [ecx+300]

; 271  : }

	ret	0
?GetPopulationUnhappinessModifier@CvTraitEntry@@QBEHXZ ENDP ; CvTraitEntry::GetPopulationUnhappinessModifier
_TEXT	ENDS
PUBLIC	?GetCityStateBonusModifier@CvTraitEntry@@QBEHXZ	; CvTraitEntry::GetCityStateBonusModifier
; Function compile flags: /Ogtpy
;	COMDAT ?GetCityStateBonusModifier@CvTraitEntry@@QBEHXZ
_TEXT	SEGMENT
?GetCityStateBonusModifier@CvTraitEntry@@QBEHXZ PROC	; CvTraitEntry::GetCityStateBonusModifier, COMDAT
; _this$ = ecx

; 276  : 	return m_iCityStateBonusModifier;

	mov	eax, DWORD PTR [ecx+304]

; 277  : }

	ret	0
?GetCityStateBonusModifier@CvTraitEntry@@QBEHXZ ENDP	; CvTraitEntry::GetCityStateBonusModifier
_TEXT	ENDS
PUBLIC	?GetCityStateFriendshipModifier@CvTraitEntry@@QBEHXZ ; CvTraitEntry::GetCityStateFriendshipModifier
; Function compile flags: /Ogtpy
;	COMDAT ?GetCityStateFriendshipModifier@CvTraitEntry@@QBEHXZ
_TEXT	SEGMENT
?GetCityStateFriendshipModifier@CvTraitEntry@@QBEHXZ PROC ; CvTraitEntry::GetCityStateFriendshipModifier, COMDAT
; _this$ = ecx

; 282  : 	return m_iCityStateFriendshipModifier;

	mov	eax, DWORD PTR [ecx+308]

; 283  : }

	ret	0
?GetCityStateFriendshipModifier@CvTraitEntry@@QBEHXZ ENDP ; CvTraitEntry::GetCityStateFriendshipModifier
_TEXT	ENDS
PUBLIC	?GetCityStateCombatModifier@CvTraitEntry@@QBEHXZ ; CvTraitEntry::GetCityStateCombatModifier
; Function compile flags: /Ogtpy
;	COMDAT ?GetCityStateCombatModifier@CvTraitEntry@@QBEHXZ
_TEXT	SEGMENT
?GetCityStateCombatModifier@CvTraitEntry@@QBEHXZ PROC	; CvTraitEntry::GetCityStateCombatModifier, COMDAT
; _this$ = ecx

; 288  : 	return m_iCityStateCombatModifier;

	mov	eax, DWORD PTR [ecx+312]

; 289  : }

	ret	0
?GetCityStateCombatModifier@CvTraitEntry@@QBEHXZ ENDP	; CvTraitEntry::GetCityStateCombatModifier
_TEXT	ENDS
PUBLIC	?GetLandBarbarianConversionPercent@CvTraitEntry@@QBEHXZ ; CvTraitEntry::GetLandBarbarianConversionPercent
; Function compile flags: /Ogtpy
;	COMDAT ?GetLandBarbarianConversionPercent@CvTraitEntry@@QBEHXZ
_TEXT	SEGMENT
?GetLandBarbarianConversionPercent@CvTraitEntry@@QBEHXZ PROC ; CvTraitEntry::GetLandBarbarianConversionPercent, COMDAT
; _this$ = ecx

; 294  : 	return m_iLandBarbarianConversionPercent;

	mov	eax, DWORD PTR [ecx+316]

; 295  : }

	ret	0
?GetLandBarbarianConversionPercent@CvTraitEntry@@QBEHXZ ENDP ; CvTraitEntry::GetLandBarbarianConversionPercent
_TEXT	ENDS
PUBLIC	?GetLandBarbarianConversionExtraUnits@CvTraitEntry@@QBEHXZ ; CvTraitEntry::GetLandBarbarianConversionExtraUnits
; Function compile flags: /Ogtpy
;	COMDAT ?GetLandBarbarianConversionExtraUnits@CvTraitEntry@@QBEHXZ
_TEXT	SEGMENT
?GetLandBarbarianConversionExtraUnits@CvTraitEntry@@QBEHXZ PROC ; CvTraitEntry::GetLandBarbarianConversionExtraUnits, COMDAT
; _this$ = ecx

; 300  : 	return m_iLandBarbarianConversionExtraUnits;

	mov	eax, DWORD PTR [ecx+320]

; 301  : }

	ret	0
?GetLandBarbarianConversionExtraUnits@CvTraitEntry@@QBEHXZ ENDP ; CvTraitEntry::GetLandBarbarianConversionExtraUnits
_TEXT	ENDS
PUBLIC	?GetSeaBarbarianConversionPercent@CvTraitEntry@@QBEHXZ ; CvTraitEntry::GetSeaBarbarianConversionPercent
; Function compile flags: /Ogtpy
;	COMDAT ?GetSeaBarbarianConversionPercent@CvTraitEntry@@QBEHXZ
_TEXT	SEGMENT
?GetSeaBarbarianConversionPercent@CvTraitEntry@@QBEHXZ PROC ; CvTraitEntry::GetSeaBarbarianConversionPercent, COMDAT
; _this$ = ecx

; 306  : 	return m_iSeaBarbarianConversionPercent;

	mov	eax, DWORD PTR [ecx+324]

; 307  : }

	ret	0
?GetSeaBarbarianConversionPercent@CvTraitEntry@@QBEHXZ ENDP ; CvTraitEntry::GetSeaBarbarianConversionPercent
_TEXT	ENDS
PUBLIC	?GetCapitalBuildingModifier@CvTraitEntry@@QBEHXZ ; CvTraitEntry::GetCapitalBuildingModifier
; Function compile flags: /Ogtpy
;	COMDAT ?GetCapitalBuildingModifier@CvTraitEntry@@QBEHXZ
_TEXT	SEGMENT
?GetCapitalBuildingModifier@CvTraitEntry@@QBEHXZ PROC	; CvTraitEntry::GetCapitalBuildingModifier, COMDAT
; _this$ = ecx

; 312  : 	return m_iCapitalBuildingModifier;

	mov	eax, DWORD PTR [ecx+328]

; 313  : }

	ret	0
?GetCapitalBuildingModifier@CvTraitEntry@@QBEHXZ ENDP	; CvTraitEntry::GetCapitalBuildingModifier
_TEXT	ENDS
PUBLIC	?GetPlotBuyCostModifier@CvTraitEntry@@QBEHXZ	; CvTraitEntry::GetPlotBuyCostModifier
; Function compile flags: /Ogtpy
;	COMDAT ?GetPlotBuyCostModifier@CvTraitEntry@@QBEHXZ
_TEXT	SEGMENT
?GetPlotBuyCostModifier@CvTraitEntry@@QBEHXZ PROC	; CvTraitEntry::GetPlotBuyCostModifier, COMDAT
; _this$ = ecx

; 318  : 	return m_iPlotBuyCostModifier;

	mov	eax, DWORD PTR [ecx+332]

; 319  : }

	ret	0
?GetPlotBuyCostModifier@CvTraitEntry@@QBEHXZ ENDP	; CvTraitEntry::GetPlotBuyCostModifier
_TEXT	ENDS
PUBLIC	?GetPlotCultureCostModifier@CvTraitEntry@@QBEHXZ ; CvTraitEntry::GetPlotCultureCostModifier
; Function compile flags: /Ogtpy
;	COMDAT ?GetPlotCultureCostModifier@CvTraitEntry@@QBEHXZ
_TEXT	SEGMENT
?GetPlotCultureCostModifier@CvTraitEntry@@QBEHXZ PROC	; CvTraitEntry::GetPlotCultureCostModifier, COMDAT
; _this$ = ecx

; 324  : 	return m_iPlotCultureCostModifier;

	mov	eax, DWORD PTR [ecx+336]

; 325  : }

	ret	0
?GetPlotCultureCostModifier@CvTraitEntry@@QBEHXZ ENDP	; CvTraitEntry::GetPlotCultureCostModifier
_TEXT	ENDS
PUBLIC	?GetSciencePerGreatPersonBorn@CvTraitEntry@@QBEHXZ ; CvTraitEntry::GetSciencePerGreatPersonBorn
; Function compile flags: /Ogtpy
;	COMDAT ?GetSciencePerGreatPersonBorn@CvTraitEntry@@QBEHXZ
_TEXT	SEGMENT
?GetSciencePerGreatPersonBorn@CvTraitEntry@@QBEHXZ PROC	; CvTraitEntry::GetSciencePerGreatPersonBorn, COMDAT
; _this$ = ecx

; 331  : 	return m_iSciencePerGreatPersonBorn;

	mov	eax, DWORD PTR [ecx+340]

; 332  : }

	ret	0
?GetSciencePerGreatPersonBorn@CvTraitEntry@@QBEHXZ ENDP	; CvTraitEntry::GetSciencePerGreatPersonBorn
_TEXT	ENDS
PUBLIC	?GetNumTurnsBeforeMinorAlliesRefuseBribes@CvTraitEntry@@QBEHXZ ; CvTraitEntry::GetNumTurnsBeforeMinorAlliesRefuseBribes
; Function compile flags: /Ogtpy
;	COMDAT ?GetNumTurnsBeforeMinorAlliesRefuseBribes@CvTraitEntry@@QBEHXZ
_TEXT	SEGMENT
?GetNumTurnsBeforeMinorAlliesRefuseBribes@CvTraitEntry@@QBEHXZ PROC ; CvTraitEntry::GetNumTurnsBeforeMinorAlliesRefuseBribes, COMDAT
; _this$ = ecx

; 339  : 	return m_iNumTurnsBeforeMinorAlliesRefuseBribes;

	mov	eax, DWORD PTR [ecx+344]

; 340  : }

	ret	0
?GetNumTurnsBeforeMinorAlliesRefuseBribes@CvTraitEntry@@QBEHXZ ENDP ; CvTraitEntry::GetNumTurnsBeforeMinorAlliesRefuseBribes
_TEXT	ENDS
PUBLIC	?GetGoldenAgeTileBonusFaith@CvTraitEntry@@QBEHXZ ; CvTraitEntry::GetGoldenAgeTileBonusFaith
; Function compile flags: /Ogtpy
;	COMDAT ?GetGoldenAgeTileBonusFaith@CvTraitEntry@@QBEHXZ
_TEXT	SEGMENT
?GetGoldenAgeTileBonusFaith@CvTraitEntry@@QBEHXZ PROC	; CvTraitEntry::GetGoldenAgeTileBonusFaith, COMDAT
; _this$ = ecx

; 347  : 	return m_iGoldenAgeTileBonusFaith;

	mov	eax, DWORD PTR [ecx+348]

; 348  : }

	ret	0
?GetGoldenAgeTileBonusFaith@CvTraitEntry@@QBEHXZ ENDP	; CvTraitEntry::GetGoldenAgeTileBonusFaith
_TEXT	ENDS
PUBLIC	?GetCultureFromKills@CvTraitEntry@@QBEHXZ	; CvTraitEntry::GetCultureFromKills
; Function compile flags: /Ogtpy
;	COMDAT ?GetCultureFromKills@CvTraitEntry@@QBEHXZ
_TEXT	SEGMENT
?GetCultureFromKills@CvTraitEntry@@QBEHXZ PROC		; CvTraitEntry::GetCultureFromKills, COMDAT
; _this$ = ecx

; 355  : 	return m_iCultureFromKills;

	mov	eax, DWORD PTR [ecx+352]

; 356  : }

	ret	0
?GetCultureFromKills@CvTraitEntry@@QBEHXZ ENDP		; CvTraitEntry::GetCultureFromKills
_TEXT	ENDS
PUBLIC	?GetFaithFromKills@CvTraitEntry@@QBEHXZ		; CvTraitEntry::GetFaithFromKills
; Function compile flags: /Ogtpy
;	COMDAT ?GetFaithFromKills@CvTraitEntry@@QBEHXZ
_TEXT	SEGMENT
?GetFaithFromKills@CvTraitEntry@@QBEHXZ PROC		; CvTraitEntry::GetFaithFromKills, COMDAT
; _this$ = ecx

; 361  : 	return m_iFaithFromKills;

	mov	eax, DWORD PTR [ecx+356]

; 362  : }

	ret	0
?GetFaithFromKills@CvTraitEntry@@QBEHXZ ENDP		; CvTraitEntry::GetFaithFromKills
_TEXT	ENDS
PUBLIC	?GetCityCultureBonus@CvTraitEntry@@QBEHXZ	; CvTraitEntry::GetCityCultureBonus
; Function compile flags: /Ogtpy
;	COMDAT ?GetCityCultureBonus@CvTraitEntry@@QBEHXZ
_TEXT	SEGMENT
?GetCityCultureBonus@CvTraitEntry@@QBEHXZ PROC		; CvTraitEntry::GetCityCultureBonus, COMDAT
; _this$ = ecx

; 367  : 	return m_iCityCultureBonus;

	mov	eax, DWORD PTR [ecx+360]

; 368  : }

	ret	0
?GetCityCultureBonus@CvTraitEntry@@QBEHXZ ENDP		; CvTraitEntry::GetCityCultureBonus
_TEXT	ENDS
PUBLIC	?GetCapitalThemingBonusModifier@CvTraitEntry@@QBEHXZ ; CvTraitEntry::GetCapitalThemingBonusModifier
; Function compile flags: /Ogtpy
;	COMDAT ?GetCapitalThemingBonusModifier@CvTraitEntry@@QBEHXZ
_TEXT	SEGMENT
?GetCapitalThemingBonusModifier@CvTraitEntry@@QBEHXZ PROC ; CvTraitEntry::GetCapitalThemingBonusModifier, COMDAT
; _this$ = ecx

; 373  : 	return m_iCapitalThemingBonusModifier;

	mov	eax, DWORD PTR [ecx+364]

; 374  : }

	ret	0
?GetCapitalThemingBonusModifier@CvTraitEntry@@QBEHXZ ENDP ; CvTraitEntry::GetCapitalThemingBonusModifier
_TEXT	ENDS
PUBLIC	?GetPolicyCostModifier@CvTraitEntry@@QBEHXZ	; CvTraitEntry::GetPolicyCostModifier
; Function compile flags: /Ogtpy
;	COMDAT ?GetPolicyCostModifier@CvTraitEntry@@QBEHXZ
_TEXT	SEGMENT
?GetPolicyCostModifier@CvTraitEntry@@QBEHXZ PROC	; CvTraitEntry::GetPolicyCostModifier, COMDAT
; _this$ = ecx

; 379  : 	return m_iPolicyCostModifier;

	mov	eax, DWORD PTR [ecx+368]

; 380  : }

	ret	0
?GetPolicyCostModifier@CvTraitEntry@@QBEHXZ ENDP	; CvTraitEntry::GetPolicyCostModifier
_TEXT	ENDS
PUBLIC	?GetCityConnectionTradeRouteChange@CvTraitEntry@@QBEHXZ ; CvTraitEntry::GetCityConnectionTradeRouteChange
; Function compile flags: /Ogtpy
;	COMDAT ?GetCityConnectionTradeRouteChange@CvTraitEntry@@QBEHXZ
_TEXT	SEGMENT
?GetCityConnectionTradeRouteChange@CvTraitEntry@@QBEHXZ PROC ; CvTraitEntry::GetCityConnectionTradeRouteChange, COMDAT
; _this$ = ecx

; 385  : 	return m_iCityConnectionTradeRouteChange;

	mov	eax, DWORD PTR [ecx+372]

; 386  : }

	ret	0
?GetCityConnectionTradeRouteChange@CvTraitEntry@@QBEHXZ ENDP ; CvTraitEntry::GetCityConnectionTradeRouteChange
_TEXT	ENDS
PUBLIC	?GetWonderProductionModifier@CvTraitEntry@@QBEHXZ ; CvTraitEntry::GetWonderProductionModifier
; Function compile flags: /Ogtpy
;	COMDAT ?GetWonderProductionModifier@CvTraitEntry@@QBEHXZ
_TEXT	SEGMENT
?GetWonderProductionModifier@CvTraitEntry@@QBEHXZ PROC	; CvTraitEntry::GetWonderProductionModifier, COMDAT
; _this$ = ecx

; 391  : 	return m_iWonderProductionModifier;

	mov	eax, DWORD PTR [ecx+376]

; 392  : }

	ret	0
?GetWonderProductionModifier@CvTraitEntry@@QBEHXZ ENDP	; CvTraitEntry::GetWonderProductionModifier
_TEXT	ENDS
PUBLIC	?GetPlunderModifier@CvTraitEntry@@QBEHXZ	; CvTraitEntry::GetPlunderModifier
; Function compile flags: /Ogtpy
;	COMDAT ?GetPlunderModifier@CvTraitEntry@@QBEHXZ
_TEXT	SEGMENT
?GetPlunderModifier@CvTraitEntry@@QBEHXZ PROC		; CvTraitEntry::GetPlunderModifier, COMDAT
; _this$ = ecx

; 397  : 	return m_iPlunderModifier;

	mov	eax, DWORD PTR [ecx+380]

; 398  : }

	ret	0
?GetPlunderModifier@CvTraitEntry@@QBEHXZ ENDP		; CvTraitEntry::GetPlunderModifier
_TEXT	ENDS
PUBLIC	?GetImprovementMaintenanceModifier@CvTraitEntry@@QBEHXZ ; CvTraitEntry::GetImprovementMaintenanceModifier
; Function compile flags: /Ogtpy
;	COMDAT ?GetImprovementMaintenanceModifier@CvTraitEntry@@QBEHXZ
_TEXT	SEGMENT
?GetImprovementMaintenanceModifier@CvTraitEntry@@QBEHXZ PROC ; CvTraitEntry::GetImprovementMaintenanceModifier, COMDAT
; _this$ = ecx

; 403  : 	return m_iImprovementMaintenanceModifier;

	mov	eax, DWORD PTR [ecx+384]

; 404  : }

	ret	0
?GetImprovementMaintenanceModifier@CvTraitEntry@@QBEHXZ ENDP ; CvTraitEntry::GetImprovementMaintenanceModifier
_TEXT	ENDS
PUBLIC	?GetGoldenAgeDurationModifier@CvTraitEntry@@QBEHXZ ; CvTraitEntry::GetGoldenAgeDurationModifier
; Function compile flags: /Ogtpy
;	COMDAT ?GetGoldenAgeDurationModifier@CvTraitEntry@@QBEHXZ
_TEXT	SEGMENT
?GetGoldenAgeDurationModifier@CvTraitEntry@@QBEHXZ PROC	; CvTraitEntry::GetGoldenAgeDurationModifier, COMDAT
; _this$ = ecx

; 409  : 	return m_iGoldenAgeDurationModifier;

	mov	eax, DWORD PTR [ecx+388]

; 410  : }

	ret	0
?GetGoldenAgeDurationModifier@CvTraitEntry@@QBEHXZ ENDP	; CvTraitEntry::GetGoldenAgeDurationModifier
_TEXT	ENDS
PUBLIC	?GetGoldenAgeMoveChange@CvTraitEntry@@QBEHXZ	; CvTraitEntry::GetGoldenAgeMoveChange
; Function compile flags: /Ogtpy
;	COMDAT ?GetGoldenAgeMoveChange@CvTraitEntry@@QBEHXZ
_TEXT	SEGMENT
?GetGoldenAgeMoveChange@CvTraitEntry@@QBEHXZ PROC	; CvTraitEntry::GetGoldenAgeMoveChange, COMDAT
; _this$ = ecx

; 415  : 	return m_iGoldenAgeMoveChange;

	mov	eax, DWORD PTR [ecx+392]

; 416  : }

	ret	0
?GetGoldenAgeMoveChange@CvTraitEntry@@QBEHXZ ENDP	; CvTraitEntry::GetGoldenAgeMoveChange
_TEXT	ENDS
PUBLIC	?GetGoldenAgeCombatModifier@CvTraitEntry@@QBEHXZ ; CvTraitEntry::GetGoldenAgeCombatModifier
; Function compile flags: /Ogtpy
;	COMDAT ?GetGoldenAgeCombatModifier@CvTraitEntry@@QBEHXZ
_TEXT	SEGMENT
?GetGoldenAgeCombatModifier@CvTraitEntry@@QBEHXZ PROC	; CvTraitEntry::GetGoldenAgeCombatModifier, COMDAT
; _this$ = ecx

; 421  : 	return m_iGoldenAgeCombatModifier;

	mov	eax, DWORD PTR [ecx+396]

; 422  : }

	ret	0
?GetGoldenAgeCombatModifier@CvTraitEntry@@QBEHXZ ENDP	; CvTraitEntry::GetGoldenAgeCombatModifier
_TEXT	ENDS
PUBLIC	?GetGoldenAgeTourismModifier@CvTraitEntry@@QBEHXZ ; CvTraitEntry::GetGoldenAgeTourismModifier
; Function compile flags: /Ogtpy
;	COMDAT ?GetGoldenAgeTourismModifier@CvTraitEntry@@QBEHXZ
_TEXT	SEGMENT
?GetGoldenAgeTourismModifier@CvTraitEntry@@QBEHXZ PROC	; CvTraitEntry::GetGoldenAgeTourismModifier, COMDAT
; _this$ = ecx

; 427  : 	return m_iGoldenAgeTourismModifier;

	mov	eax, DWORD PTR [ecx+400]

; 428  : }

	ret	0
?GetGoldenAgeTourismModifier@CvTraitEntry@@QBEHXZ ENDP	; CvTraitEntry::GetGoldenAgeTourismModifier
_TEXT	ENDS
PUBLIC	?GetGoldenAgeGreatArtistRateModifier@CvTraitEntry@@QBEHXZ ; CvTraitEntry::GetGoldenAgeGreatArtistRateModifier
; Function compile flags: /Ogtpy
;	COMDAT ?GetGoldenAgeGreatArtistRateModifier@CvTraitEntry@@QBEHXZ
_TEXT	SEGMENT
?GetGoldenAgeGreatArtistRateModifier@CvTraitEntry@@QBEHXZ PROC ; CvTraitEntry::GetGoldenAgeGreatArtistRateModifier, COMDAT
; _this$ = ecx

; 433  : 	return m_iGoldenAgeGreatArtistRateModifier;

	mov	eax, DWORD PTR [ecx+404]

; 434  : }

	ret	0
?GetGoldenAgeGreatArtistRateModifier@CvTraitEntry@@QBEHXZ ENDP ; CvTraitEntry::GetGoldenAgeGreatArtistRateModifier
_TEXT	ENDS
PUBLIC	?GetGoldenAgeGreatMusicianRateModifier@CvTraitEntry@@QBEHXZ ; CvTraitEntry::GetGoldenAgeGreatMusicianRateModifier
; Function compile flags: /Ogtpy
;	COMDAT ?GetGoldenAgeGreatMusicianRateModifier@CvTraitEntry@@QBEHXZ
_TEXT	SEGMENT
?GetGoldenAgeGreatMusicianRateModifier@CvTraitEntry@@QBEHXZ PROC ; CvTraitEntry::GetGoldenAgeGreatMusicianRateModifier, COMDAT
; _this$ = ecx

; 439  : 	return m_iGoldenAgeGreatMusicianRateModifier;

	mov	eax, DWORD PTR [ecx+408]

; 440  : }

	ret	0
?GetGoldenAgeGreatMusicianRateModifier@CvTraitEntry@@QBEHXZ ENDP ; CvTraitEntry::GetGoldenAgeGreatMusicianRateModifier
_TEXT	ENDS
PUBLIC	?GetGoldenAgeGreatWriterRateModifier@CvTraitEntry@@QBEHXZ ; CvTraitEntry::GetGoldenAgeGreatWriterRateModifier
; Function compile flags: /Ogtpy
;	COMDAT ?GetGoldenAgeGreatWriterRateModifier@CvTraitEntry@@QBEHXZ
_TEXT	SEGMENT
?GetGoldenAgeGreatWriterRateModifier@CvTraitEntry@@QBEHXZ PROC ; CvTraitEntry::GetGoldenAgeGreatWriterRateModifier, COMDAT
; _this$ = ecx

; 445  : 	return m_iGoldenAgeGreatWriterRateModifier;

	mov	eax, DWORD PTR [ecx+412]

; 446  : }

	ret	0
?GetGoldenAgeGreatWriterRateModifier@CvTraitEntry@@QBEHXZ ENDP ; CvTraitEntry::GetGoldenAgeGreatWriterRateModifier
_TEXT	ENDS
PUBLIC	?GetExtraEmbarkMoves@CvTraitEntry@@QBEHXZ	; CvTraitEntry::GetExtraEmbarkMoves
; Function compile flags: /Ogtpy
;	COMDAT ?GetExtraEmbarkMoves@CvTraitEntry@@QBEHXZ
_TEXT	SEGMENT
?GetExtraEmbarkMoves@CvTraitEntry@@QBEHXZ PROC		; CvTraitEntry::GetExtraEmbarkMoves, COMDAT
; _this$ = ecx

; 451  : 	return m_iExtraEmbarkMoves;

	mov	eax, DWORD PTR [ecx+424]

; 452  : }

	ret	0
?GetExtraEmbarkMoves@CvTraitEntry@@QBEHXZ ENDP		; CvTraitEntry::GetExtraEmbarkMoves
_TEXT	ENDS
PUBLIC	?GetFreeUnitClassType@CvTraitEntry@@QBEHXZ	; CvTraitEntry::GetFreeUnitClassType
; Function compile flags: /Ogtpy
;	COMDAT ?GetFreeUnitClassType@CvTraitEntry@@QBEHXZ
_TEXT	SEGMENT
?GetFreeUnitClassType@CvTraitEntry@@QBEHXZ PROC		; CvTraitEntry::GetFreeUnitClassType, COMDAT
; _this$ = ecx

; 457  : 	return m_iFreeUnitClassType;

	mov	eax, DWORD PTR [ecx+428]

; 458  : }

	ret	0
?GetFreeUnitClassType@CvTraitEntry@@QBEHXZ ENDP		; CvTraitEntry::GetFreeUnitClassType
_TEXT	ENDS
PUBLIC	?GetNaturalWonderFirstFinderGold@CvTraitEntry@@QBEHXZ ; CvTraitEntry::GetNaturalWonderFirstFinderGold
; Function compile flags: /Ogtpy
;	COMDAT ?GetNaturalWonderFirstFinderGold@CvTraitEntry@@QBEHXZ
_TEXT	SEGMENT
?GetNaturalWonderFirstFinderGold@CvTraitEntry@@QBEHXZ PROC ; CvTraitEntry::GetNaturalWonderFirstFinderGold, COMDAT
; _this$ = ecx

; 463  : 	return m_iNaturalWonderFirstFinderGold;

	mov	eax, DWORD PTR [ecx+432]

; 464  : }

	ret	0
?GetNaturalWonderFirstFinderGold@CvTraitEntry@@QBEHXZ ENDP ; CvTraitEntry::GetNaturalWonderFirstFinderGold
_TEXT	ENDS
PUBLIC	?GetNaturalWonderSubsequentFinderGold@CvTraitEntry@@QBEHXZ ; CvTraitEntry::GetNaturalWonderSubsequentFinderGold
; Function compile flags: /Ogtpy
;	COMDAT ?GetNaturalWonderSubsequentFinderGold@CvTraitEntry@@QBEHXZ
_TEXT	SEGMENT
?GetNaturalWonderSubsequentFinderGold@CvTraitEntry@@QBEHXZ PROC ; CvTraitEntry::GetNaturalWonderSubsequentFinderGold, COMDAT
; _this$ = ecx

; 469  : 	return m_iNaturalWonderSubsequentFinderGold;

	mov	eax, DWORD PTR [ecx+436]

; 470  : }

	ret	0
?GetNaturalWonderSubsequentFinderGold@CvTraitEntry@@QBEHXZ ENDP ; CvTraitEntry::GetNaturalWonderSubsequentFinderGold
_TEXT	ENDS
PUBLIC	?GetNaturalWonderFirstFinderFaith@CvTraitEntry@@QBEHXZ ; CvTraitEntry::GetNaturalWonderFirstFinderFaith
; Function compile flags: /Ogtpy
;	COMDAT ?GetNaturalWonderFirstFinderFaith@CvTraitEntry@@QBEHXZ
_TEXT	SEGMENT
?GetNaturalWonderFirstFinderFaith@CvTraitEntry@@QBEHXZ PROC ; CvTraitEntry::GetNaturalWonderFirstFinderFaith, COMDAT
; _this$ = ecx

; 477  : 	return m_iNaturalWonderFirstFinderFaith;

	mov	eax, DWORD PTR [ecx+440]

; 478  : }

	ret	0
?GetNaturalWonderFirstFinderFaith@CvTraitEntry@@QBEHXZ ENDP ; CvTraitEntry::GetNaturalWonderFirstFinderFaith
_TEXT	ENDS
PUBLIC	?GetNaturalWonderSubsequentFinderFaith@CvTraitEntry@@QBEHXZ ; CvTraitEntry::GetNaturalWonderSubsequentFinderFaith
; Function compile flags: /Ogtpy
;	COMDAT ?GetNaturalWonderSubsequentFinderFaith@CvTraitEntry@@QBEHXZ
_TEXT	SEGMENT
?GetNaturalWonderSubsequentFinderFaith@CvTraitEntry@@QBEHXZ PROC ; CvTraitEntry::GetNaturalWonderSubsequentFinderFaith, COMDAT
; _this$ = ecx

; 483  : 	return m_iNaturalWonderSubsequentFinderFaith;

	mov	eax, DWORD PTR [ecx+444]

; 484  : }

	ret	0
?GetNaturalWonderSubsequentFinderFaith@CvTraitEntry@@QBEHXZ ENDP ; CvTraitEntry::GetNaturalWonderSubsequentFinderFaith
_TEXT	ENDS
PUBLIC	?GetNaturalWonderYieldModifier@CvTraitEntry@@QBEHXZ ; CvTraitEntry::GetNaturalWonderYieldModifier
; Function compile flags: /Ogtpy
;	COMDAT ?GetNaturalWonderYieldModifier@CvTraitEntry@@QBEHXZ
_TEXT	SEGMENT
?GetNaturalWonderYieldModifier@CvTraitEntry@@QBEHXZ PROC ; CvTraitEntry::GetNaturalWonderYieldModifier, COMDAT
; _this$ = ecx

; 491  : 	return m_iNaturalWonderYieldModifier;

	mov	eax, DWORD PTR [ecx+448]

; 492  : }

	ret	0
?GetNaturalWonderYieldModifier@CvTraitEntry@@QBEHXZ ENDP ; CvTraitEntry::GetNaturalWonderYieldModifier
_TEXT	ENDS
PUBLIC	?GetNaturalWonderHappinessModifier@CvTraitEntry@@QBEHXZ ; CvTraitEntry::GetNaturalWonderHappinessModifier
; Function compile flags: /Ogtpy
;	COMDAT ?GetNaturalWonderHappinessModifier@CvTraitEntry@@QBEHXZ
_TEXT	SEGMENT
?GetNaturalWonderHappinessModifier@CvTraitEntry@@QBEHXZ PROC ; CvTraitEntry::GetNaturalWonderHappinessModifier, COMDAT
; _this$ = ecx

; 497  : 	return m_iNaturalWonderHappinessModifier;

	mov	eax, DWORD PTR [ecx+452]

; 498  : }

	ret	0
?GetNaturalWonderHappinessModifier@CvTraitEntry@@QBEHXZ ENDP ; CvTraitEntry::GetNaturalWonderHappinessModifier
_TEXT	ENDS
PUBLIC	?GetNearbyImprovementCombatBonus@CvTraitEntry@@QBEHXZ ; CvTraitEntry::GetNearbyImprovementCombatBonus
; Function compile flags: /Ogtpy
;	COMDAT ?GetNearbyImprovementCombatBonus@CvTraitEntry@@QBEHXZ
_TEXT	SEGMENT
?GetNearbyImprovementCombatBonus@CvTraitEntry@@QBEHXZ PROC ; CvTraitEntry::GetNearbyImprovementCombatBonus, COMDAT
; _this$ = ecx

; 503  : 	return m_iNearbyImprovementCombatBonus;

	mov	eax, DWORD PTR [ecx+456]

; 504  : }

	ret	0
?GetNearbyImprovementCombatBonus@CvTraitEntry@@QBEHXZ ENDP ; CvTraitEntry::GetNearbyImprovementCombatBonus
_TEXT	ENDS
PUBLIC	?GetNearbyImprovementBonusRange@CvTraitEntry@@QBEHXZ ; CvTraitEntry::GetNearbyImprovementBonusRange
; Function compile flags: /Ogtpy
;	COMDAT ?GetNearbyImprovementBonusRange@CvTraitEntry@@QBEHXZ
_TEXT	SEGMENT
?GetNearbyImprovementBonusRange@CvTraitEntry@@QBEHXZ PROC ; CvTraitEntry::GetNearbyImprovementBonusRange, COMDAT
; _this$ = ecx

; 509  : 	return m_iNearbyImprovementBonusRange;

	mov	eax, DWORD PTR [ecx+460]

; 510  : }

	ret	0
?GetNearbyImprovementBonusRange@CvTraitEntry@@QBEHXZ ENDP ; CvTraitEntry::GetNearbyImprovementBonusRange
_TEXT	ENDS
PUBLIC	?GetCultureBuildingYieldChange@CvTraitEntry@@QBEHXZ ; CvTraitEntry::GetCultureBuildingYieldChange
; Function compile flags: /Ogtpy
;	COMDAT ?GetCultureBuildingYieldChange@CvTraitEntry@@QBEHXZ
_TEXT	SEGMENT
?GetCultureBuildingYieldChange@CvTraitEntry@@QBEHXZ PROC ; CvTraitEntry::GetCultureBuildingYieldChange, COMDAT
; _this$ = ecx

; 515  : 	return m_iCultureBuildingYieldChange;

	mov	eax, DWORD PTR [ecx+464]

; 516  : }

	ret	0
?GetCultureBuildingYieldChange@CvTraitEntry@@QBEHXZ ENDP ; CvTraitEntry::GetCultureBuildingYieldChange
_TEXT	ENDS
PUBLIC	?GetCombatBonusVsHigherTech@CvTraitEntry@@QBEHXZ ; CvTraitEntry::GetCombatBonusVsHigherTech
; Function compile flags: /Ogtpy
;	COMDAT ?GetCombatBonusVsHigherTech@CvTraitEntry@@QBEHXZ
_TEXT	SEGMENT
?GetCombatBonusVsHigherTech@CvTraitEntry@@QBEHXZ PROC	; CvTraitEntry::GetCombatBonusVsHigherTech, COMDAT
; _this$ = ecx

; 521  : 	return m_iCombatBonusVsHigherTech;

	mov	eax, DWORD PTR [ecx+468]

; 522  : }

	ret	0
?GetCombatBonusVsHigherTech@CvTraitEntry@@QBEHXZ ENDP	; CvTraitEntry::GetCombatBonusVsHigherTech
_TEXT	ENDS
PUBLIC	?_Swap_aux@_Container_base@std@@QAEXAAV12@@Z	; std::_Container_base::_Swap_aux
; Function compile flags: /Ogtpy
; File c:\program files (x86)\microsoft visual studio 9.0\vc\include\xutility
;	COMDAT ?_Swap_aux@_Container_base@std@@QAEXAAV12@@Z
_TEXT	SEGMENT
___formal$ = 8						; size = 4
?_Swap_aux@_Container_base@std@@QAEXAAV12@@Z PROC	; std::_Container_base::_Swap_aux, COMDAT
; _this$ = ecx

; 602  : 		// Do nothing: we don't have an aux object.
; 603  : 		}

	ret	4
?_Swap_aux@_Container_base@std@@QAEXAAV12@@Z ENDP	; std::_Container_base::_Swap_aux
_TEXT	ENDS
PUBLIC	?GetCombatBonusVsLargerCiv@CvTraitEntry@@QBEHXZ	; CvTraitEntry::GetCombatBonusVsLargerCiv
; Function compile flags: /Ogtpy
; File c:\users\enormousapplepie\documents\github\lekmod\lekmod_dll\cvgamecoredll_expansion2\cvtraitclasses.cpp
;	COMDAT ?GetCombatBonusVsLargerCiv@CvTraitEntry@@QBEHXZ
_TEXT	SEGMENT
?GetCombatBonusVsLargerCiv@CvTraitEntry@@QBEHXZ PROC	; CvTraitEntry::GetCombatBonusVsLargerCiv, COMDAT
; _this$ = ecx

; 527  : 	return m_iCombatBonusVsLargerCiv;

	mov	eax, DWORD PTR [ecx+472]

; 528  : }

	ret	0
?GetCombatBonusVsLargerCiv@CvTraitEntry@@QBEHXZ ENDP	; CvTraitEntry::GetCombatBonusVsLargerCiv
_TEXT	ENDS
PUBLIC	?GetRazeSpeedModifier@CvTraitEntry@@QBEHXZ	; CvTraitEntry::GetRazeSpeedModifier
; Function compile flags: /Ogtpy
;	COMDAT ?GetRazeSpeedModifier@CvTraitEntry@@QBEHXZ
_TEXT	SEGMENT
?GetRazeSpeedModifier@CvTraitEntry@@QBEHXZ PROC		; CvTraitEntry::GetRazeSpeedModifier, COMDAT
; _this$ = ecx

; 533  : 	return m_iRazeSpeedModifier;

	mov	eax, DWORD PTR [ecx+484]

; 534  : }

	ret	0
?GetRazeSpeedModifier@CvTraitEntry@@QBEHXZ ENDP		; CvTraitEntry::GetRazeSpeedModifier
_TEXT	ENDS
PUBLIC	?GetDOFGreatPersonModifier@CvTraitEntry@@QBEHXZ	; CvTraitEntry::GetDOFGreatPersonModifier
; Function compile flags: /Ogtpy
;	COMDAT ?GetDOFGreatPersonModifier@CvTraitEntry@@QBEHXZ
_TEXT	SEGMENT
?GetDOFGreatPersonModifier@CvTraitEntry@@QBEHXZ PROC	; CvTraitEntry::GetDOFGreatPersonModifier, COMDAT
; _this$ = ecx

; 539  : 	return m_iDOFGreatPersonModifier;

	mov	eax, DWORD PTR [ecx+488]

; 540  : }

	ret	0
?GetDOFGreatPersonModifier@CvTraitEntry@@QBEHXZ ENDP	; CvTraitEntry::GetDOFGreatPersonModifier
_TEXT	ENDS
PUBLIC	?GetLandUnitMaintenanceModifier@CvTraitEntry@@QBEHXZ ; CvTraitEntry::GetLandUnitMaintenanceModifier
; Function compile flags: /Ogtpy
;	COMDAT ?GetLandUnitMaintenanceModifier@CvTraitEntry@@QBEHXZ
_TEXT	SEGMENT
?GetLandUnitMaintenanceModifier@CvTraitEntry@@QBEHXZ PROC ; CvTraitEntry::GetLandUnitMaintenanceModifier, COMDAT
; _this$ = ecx

; 545  : 	return m_iLandUnitMaintenanceModifier;

	mov	eax, DWORD PTR [ecx+476]

; 546  : }

	ret	0
?GetLandUnitMaintenanceModifier@CvTraitEntry@@QBEHXZ ENDP ; CvTraitEntry::GetLandUnitMaintenanceModifier
_TEXT	ENDS
PUBLIC	?GetNavalUnitMaintenanceModifier@CvTraitEntry@@QBEHXZ ; CvTraitEntry::GetNavalUnitMaintenanceModifier
; Function compile flags: /Ogtpy
;	COMDAT ?GetNavalUnitMaintenanceModifier@CvTraitEntry@@QBEHXZ
_TEXT	SEGMENT
?GetNavalUnitMaintenanceModifier@CvTraitEntry@@QBEHXZ PROC ; CvTraitEntry::GetNavalUnitMaintenanceModifier, COMDAT
; _this$ = ecx

; 551  : 	return m_iNavalUnitMaintenanceModifier;

	mov	eax, DWORD PTR [ecx+480]

; 552  : }

	ret	0
?GetNavalUnitMaintenanceModifier@CvTraitEntry@@QBEHXZ ENDP ; CvTraitEntry::GetNavalUnitMaintenanceModifier
_TEXT	ENDS
PUBLIC	?GetLuxuryHappinessRetention@CvTraitEntry@@QBEHXZ ; CvTraitEntry::GetLuxuryHappinessRetention
; Function compile flags: /Ogtpy
;	COMDAT ?GetLuxuryHappinessRetention@CvTraitEntry@@QBEHXZ
_TEXT	SEGMENT
?GetLuxuryHappinessRetention@CvTraitEntry@@QBEHXZ PROC	; CvTraitEntry::GetLuxuryHappinessRetention, COMDAT
; _this$ = ecx

; 557  : 	return m_iLuxuryHappinessRetention;

	mov	eax, DWORD PTR [ecx+492]

; 558  : }

	ret	0
?GetLuxuryHappinessRetention@CvTraitEntry@@QBEHXZ ENDP	; CvTraitEntry::GetLuxuryHappinessRetention
_TEXT	ENDS
PUBLIC	?GetExtraHappinessPerLuxury@CvTraitEntry@@QBEHXZ ; CvTraitEntry::GetExtraHappinessPerLuxury
; Function compile flags: /Ogtpy
;	COMDAT ?GetExtraHappinessPerLuxury@CvTraitEntry@@QBEHXZ
_TEXT	SEGMENT
?GetExtraHappinessPerLuxury@CvTraitEntry@@QBEHXZ PROC	; CvTraitEntry::GetExtraHappinessPerLuxury, COMDAT
; _this$ = ecx

; 564  : 	return m_iExtraHappinessPerLuxury;

	mov	eax, DWORD PTR [ecx+496]

; 565  : }

	ret	0
?GetExtraHappinessPerLuxury@CvTraitEntry@@QBEHXZ ENDP	; CvTraitEntry::GetExtraHappinessPerLuxury
_TEXT	ENDS
PUBLIC	?GetExtraSpies@CvTraitEntry@@QBEHXZ		; CvTraitEntry::GetExtraSpies
; Function compile flags: /Ogtpy
;	COMDAT ?GetExtraSpies@CvTraitEntry@@QBEHXZ
_TEXT	SEGMENT
?GetExtraSpies@CvTraitEntry@@QBEHXZ PROC		; CvTraitEntry::GetExtraSpies, COMDAT
; _this$ = ecx

; 572  : 	return m_iExtraSpies;

	mov	eax, DWORD PTR [ecx+500]

; 573  : }

	ret	0
?GetExtraSpies@CvTraitEntry@@QBEHXZ ENDP		; CvTraitEntry::GetExtraSpies
_TEXT	ENDS
PUBLIC	?GetHappinessPerReligion@CvTraitEntry@@QBEHXZ	; CvTraitEntry::GetHappinessPerReligion
; Function compile flags: /Ogtpy
;	COMDAT ?GetHappinessPerReligion@CvTraitEntry@@QBEHXZ
_TEXT	SEGMENT
?GetHappinessPerReligion@CvTraitEntry@@QBEHXZ PROC	; CvTraitEntry::GetHappinessPerReligion, COMDAT
; _this$ = ecx

; 579  : 	return m_iHappinessPerReligion;

	mov	eax, DWORD PTR [ecx+504]

; 580  : }

	ret	0
?GetHappinessPerReligion@CvTraitEntry@@QBEHXZ ENDP	; CvTraitEntry::GetHappinessPerReligion
_TEXT	ENDS
PUBLIC	?GetUnresearchedTechBonusFromKills@CvTraitEntry@@QBEHXZ ; CvTraitEntry::GetUnresearchedTechBonusFromKills
; Function compile flags: /Ogtpy
;	COMDAT ?GetUnresearchedTechBonusFromKills@CvTraitEntry@@QBEHXZ
_TEXT	SEGMENT
?GetUnresearchedTechBonusFromKills@CvTraitEntry@@QBEHXZ PROC ; CvTraitEntry::GetUnresearchedTechBonusFromKills, COMDAT
; _this$ = ecx

; 586  : 	return m_iUnresearchedTechBonusFromKills;

	mov	eax, DWORD PTR [ecx+508]

; 587  : }

	ret	0
?GetUnresearchedTechBonusFromKills@CvTraitEntry@@QBEHXZ ENDP ; CvTraitEntry::GetUnresearchedTechBonusFromKills
_TEXT	ENDS
PUBLIC	?GetExtraFoundedCityTerritoryClaimRange@CvTraitEntry@@QBEHXZ ; CvTraitEntry::GetExtraFoundedCityTerritoryClaimRange
; Function compile flags: /Ogtpy
;	COMDAT ?GetExtraFoundedCityTerritoryClaimRange@CvTraitEntry@@QBEHXZ
_TEXT	SEGMENT
?GetExtraFoundedCityTerritoryClaimRange@CvTraitEntry@@QBEHXZ PROC ; CvTraitEntry::GetExtraFoundedCityTerritoryClaimRange, COMDAT
; _this$ = ecx

; 591  : 	return m_iExtraFoundedCityTerritoryClaimRange;

	mov	eax, DWORD PTR [ecx+512]

; 592  : }

	ret	0
?GetExtraFoundedCityTerritoryClaimRange@CvTraitEntry@@QBEHXZ ENDP ; CvTraitEntry::GetExtraFoundedCityTerritoryClaimRange
_TEXT	ENDS
PUBLIC	?GetFreeSocialPoliciesPerEra@CvTraitEntry@@QBEHXZ ; CvTraitEntry::GetFreeSocialPoliciesPerEra
; Function compile flags: /Ogtpy
;	COMDAT ?GetFreeSocialPoliciesPerEra@CvTraitEntry@@QBEHXZ
_TEXT	SEGMENT
?GetFreeSocialPoliciesPerEra@CvTraitEntry@@QBEHXZ PROC	; CvTraitEntry::GetFreeSocialPoliciesPerEra, COMDAT
; _this$ = ecx

; 597  : 	return m_iFreeSocialPoliciesPerEra;

	mov	eax, DWORD PTR [ecx+516]

; 598  : }

	ret	0
?GetFreeSocialPoliciesPerEra@CvTraitEntry@@QBEHXZ ENDP	; CvTraitEntry::GetFreeSocialPoliciesPerEra
_TEXT	ENDS
PUBLIC	?GetNumTradeRoutesModifier@CvTraitEntry@@QBEHXZ	; CvTraitEntry::GetNumTradeRoutesModifier
; Function compile flags: /Ogtpy
;	COMDAT ?GetNumTradeRoutesModifier@CvTraitEntry@@QBEHXZ
_TEXT	SEGMENT
?GetNumTradeRoutesModifier@CvTraitEntry@@QBEHXZ PROC	; CvTraitEntry::GetNumTradeRoutesModifier, COMDAT
; _this$ = ecx

; 602  : 	return m_iNumTradeRoutesModifier;

	mov	eax, DWORD PTR [ecx+520]

; 603  : }

	ret	0
?GetNumTradeRoutesModifier@CvTraitEntry@@QBEHXZ ENDP	; CvTraitEntry::GetNumTradeRoutesModifier
_TEXT	ENDS
PUBLIC	?GetTradeRouteResourceModifier@CvTraitEntry@@QBEHXZ ; CvTraitEntry::GetTradeRouteResourceModifier
; Function compile flags: /Ogtpy
;	COMDAT ?GetTradeRouteResourceModifier@CvTraitEntry@@QBEHXZ
_TEXT	SEGMENT
?GetTradeRouteResourceModifier@CvTraitEntry@@QBEHXZ PROC ; CvTraitEntry::GetTradeRouteResourceModifier, COMDAT
; _this$ = ecx

; 607  : 	return m_iTradeRouteResourceModifier;

	mov	eax, DWORD PTR [ecx+524]

; 608  : }

	ret	0
?GetTradeRouteResourceModifier@CvTraitEntry@@QBEHXZ ENDP ; CvTraitEntry::GetTradeRouteResourceModifier
_TEXT	ENDS
PUBLIC	?GetUniqueLuxuryCities@CvTraitEntry@@QBEHXZ	; CvTraitEntry::GetUniqueLuxuryCities
; Function compile flags: /Ogtpy
;	COMDAT ?GetUniqueLuxuryCities@CvTraitEntry@@QBEHXZ
_TEXT	SEGMENT
?GetUniqueLuxuryCities@CvTraitEntry@@QBEHXZ PROC	; CvTraitEntry::GetUniqueLuxuryCities, COMDAT
; _this$ = ecx

; 612  : 	return m_iUniqueLuxuryCities;

	mov	eax, DWORD PTR [ecx+528]

; 613  : }

	ret	0
?GetUniqueLuxuryCities@CvTraitEntry@@QBEHXZ ENDP	; CvTraitEntry::GetUniqueLuxuryCities
_TEXT	ENDS
PUBLIC	?GetUniqueLuxuryQuantity@CvTraitEntry@@QBEHXZ	; CvTraitEntry::GetUniqueLuxuryQuantity
; Function compile flags: /Ogtpy
;	COMDAT ?GetUniqueLuxuryQuantity@CvTraitEntry@@QBEHXZ
_TEXT	SEGMENT
?GetUniqueLuxuryQuantity@CvTraitEntry@@QBEHXZ PROC	; CvTraitEntry::GetUniqueLuxuryQuantity, COMDAT
; _this$ = ecx

; 617  : 	return m_iUniqueLuxuryQuantity;

	mov	eax, DWORD PTR [ecx+532]

; 618  : }

	ret	0
?GetUniqueLuxuryQuantity@CvTraitEntry@@QBEHXZ ENDP	; CvTraitEntry::GetUniqueLuxuryQuantity
_TEXT	ENDS
PUBLIC	?GetWorkerSpeedModifier@CvTraitEntry@@QBEHXZ	; CvTraitEntry::GetWorkerSpeedModifier
; Function compile flags: /Ogtpy
;	COMDAT ?GetWorkerSpeedModifier@CvTraitEntry@@QBEHXZ
_TEXT	SEGMENT
?GetWorkerSpeedModifier@CvTraitEntry@@QBEHXZ PROC	; CvTraitEntry::GetWorkerSpeedModifier, COMDAT
; _this$ = ecx

; 622  : 	return m_iWorkerSpeedModifier;

	mov	eax, DWORD PTR [ecx+536]

; 623  : }

	ret	0
?GetWorkerSpeedModifier@CvTraitEntry@@QBEHXZ ENDP	; CvTraitEntry::GetWorkerSpeedModifier
_TEXT	ENDS
PUBLIC	?GetAfraidMinorPerTurnInfluence@CvTraitEntry@@QBEHXZ ; CvTraitEntry::GetAfraidMinorPerTurnInfluence
; Function compile flags: /Ogtpy
;	COMDAT ?GetAfraidMinorPerTurnInfluence@CvTraitEntry@@QBEHXZ
_TEXT	SEGMENT
?GetAfraidMinorPerTurnInfluence@CvTraitEntry@@QBEHXZ PROC ; CvTraitEntry::GetAfraidMinorPerTurnInfluence, COMDAT
; _this$ = ecx

; 627  : 	return m_iAfraidMinorPerTurnInfluence;

	mov	eax, DWORD PTR [ecx+540]

; 628  : }

	ret	0
?GetAfraidMinorPerTurnInfluence@CvTraitEntry@@QBEHXZ ENDP ; CvTraitEntry::GetAfraidMinorPerTurnInfluence
_TEXT	ENDS
PUBLIC	?GetLandTradeRouteRangeBonus@CvTraitEntry@@QBEHXZ ; CvTraitEntry::GetLandTradeRouteRangeBonus
; Function compile flags: /Ogtpy
;	COMDAT ?GetLandTradeRouteRangeBonus@CvTraitEntry@@QBEHXZ
_TEXT	SEGMENT
?GetLandTradeRouteRangeBonus@CvTraitEntry@@QBEHXZ PROC	; CvTraitEntry::GetLandTradeRouteRangeBonus, COMDAT
; _this$ = ecx

; 632  : 	return m_iLandTradeRouteRangeBonus;

	mov	eax, DWORD PTR [ecx+544]

; 633  : }

	ret	0
?GetLandTradeRouteRangeBonus@CvTraitEntry@@QBEHXZ ENDP	; CvTraitEntry::GetLandTradeRouteRangeBonus
_TEXT	ENDS
PUBLIC	?GetTradeReligionModifier@CvTraitEntry@@QBEHXZ	; CvTraitEntry::GetTradeReligionModifier
; Function compile flags: /Ogtpy
;	COMDAT ?GetTradeReligionModifier@CvTraitEntry@@QBEHXZ
_TEXT	SEGMENT
?GetTradeReligionModifier@CvTraitEntry@@QBEHXZ PROC	; CvTraitEntry::GetTradeReligionModifier, COMDAT
; _this$ = ecx

; 637  : 	return m_iTradeReligionModifier;

	mov	eax, DWORD PTR [ecx+548]

; 638  : }

	ret	0
?GetTradeReligionModifier@CvTraitEntry@@QBEHXZ ENDP	; CvTraitEntry::GetTradeReligionModifier
_TEXT	ENDS
PUBLIC	?GetTradeBuildingModifier@CvTraitEntry@@QBEHXZ	; CvTraitEntry::GetTradeBuildingModifier
; Function compile flags: /Ogtpy
;	COMDAT ?GetTradeBuildingModifier@CvTraitEntry@@QBEHXZ
_TEXT	SEGMENT
?GetTradeBuildingModifier@CvTraitEntry@@QBEHXZ PROC	; CvTraitEntry::GetTradeBuildingModifier, COMDAT
; _this$ = ecx

; 642  : 	return m_iTradeBuildingModifier;

	mov	eax, DWORD PTR [ecx+552]

; 643  : }

	ret	0
?GetTradeBuildingModifier@CvTraitEntry@@QBEHXZ ENDP	; CvTraitEntry::GetTradeBuildingModifier
_TEXT	ENDS
PUBLIC	?GetFreeBuildingPrereqTech@CvTraitEntry@@QBE?AW4TechTypes@@XZ ; CvTraitEntry::GetFreeBuildingPrereqTech
; Function compile flags: /Ogtpy
;	COMDAT ?GetFreeBuildingPrereqTech@CvTraitEntry@@QBE?AW4TechTypes@@XZ
_TEXT	SEGMENT
?GetFreeBuildingPrereqTech@CvTraitEntry@@QBE?AW4TechTypes@@XZ PROC ; CvTraitEntry::GetFreeBuildingPrereqTech, COMDAT
; _this$ = ecx

; 649  : 	return m_eFreeBuildingPrereqTech;

	mov	eax, DWORD PTR [ecx+572]

; 650  : }

	ret	0
?GetFreeBuildingPrereqTech@CvTraitEntry@@QBE?AW4TechTypes@@XZ ENDP ; CvTraitEntry::GetFreeBuildingPrereqTech
_TEXT	ENDS
PUBLIC	??_7bad_alloc@std@@6B@				; std::bad_alloc::`vftable'
PUBLIC	??0bad_alloc@std@@QAE@PBD@Z			; std::bad_alloc::bad_alloc
PUBLIC	??_R4bad_alloc@std@@6B@				; std::bad_alloc::`RTTI Complete Object Locator'
PUBLIC	??_R0?AVbad_alloc@std@@@8			; std::bad_alloc `RTTI Type Descriptor'
PUBLIC	??_R3bad_alloc@std@@8				; std::bad_alloc::`RTTI Class Hierarchy Descriptor'
PUBLIC	??_R2bad_alloc@std@@8				; std::bad_alloc::`RTTI Base Class Array'
PUBLIC	??_R1A@?0A@EA@bad_alloc@std@@8			; std::bad_alloc::`RTTI Base Class Descriptor at (0,-1,0,64)'
PUBLIC	??_R1A@?0A@EA@exception@std@@8			; std::exception::`RTTI Base Class Descriptor at (0,-1,0,64)'
PUBLIC	??_R0?AVexception@std@@@8			; std::exception `RTTI Type Descriptor'
PUBLIC	??_R3exception@std@@8				; std::exception::`RTTI Class Hierarchy Descriptor'
PUBLIC	??_R2exception@std@@8				; std::exception::`RTTI Base Class Array'
EXTRN	__imp_??0exception@std@@QAE@ABQBD@Z:PROC
EXTRN	??_7type_info@@6B@:QWORD			; type_info::`vftable'
EXTRN	??_Ebad_alloc@std@@UAEPAXI@Z:PROC		; std::bad_alloc::`vector deleting destructor'
EXTRN	?what@exception@std@@UBEPBDXZ:PROC		; std::exception::what
;	COMDAT ??_R2exception@std@@8
; File c:\program files (x86)\microsoft visual studio 9.0\vc\include\exception
rdata$r	SEGMENT
??_R2exception@std@@8 DD FLAT:??_R1A@?0A@EA@exception@std@@8 ; std::exception::`RTTI Base Class Array'
rdata$r	ENDS
;	COMDAT ??_R3exception@std@@8
rdata$r	SEGMENT
??_R3exception@std@@8 DD 00H				; std::exception::`RTTI Class Hierarchy Descriptor'
	DD	00H
	DD	01H
	DD	FLAT:??_R2exception@std@@8
rdata$r	ENDS
;	COMDAT ??_R0?AVexception@std@@@8
_DATA	SEGMENT
??_R0?AVexception@std@@@8 DD FLAT:??_7type_info@@6B@	; std::exception `RTTI Type Descriptor'
	DD	00H
	DB	'.?AVexception@std@@', 00H
_DATA	ENDS
;	COMDAT ??_R1A@?0A@EA@exception@std@@8
rdata$r	SEGMENT
??_R1A@?0A@EA@exception@std@@8 DD FLAT:??_R0?AVexception@std@@@8 ; std::exception::`RTTI Base Class Descriptor at (0,-1,0,64)'
	DD	00H
	DD	00H
	DD	0ffffffffH
	DD	00H
	DD	040H
	DD	FLAT:??_R3exception@std@@8
rdata$r	ENDS
;	COMDAT ??_R1A@?0A@EA@bad_alloc@std@@8
rdata$r	SEGMENT
??_R1A@?0A@EA@bad_alloc@std@@8 DD FLAT:??_R0?AVbad_alloc@std@@@8 ; std::bad_alloc::`RTTI Base Class Descriptor at (0,-1,0,64)'
	DD	01H
	DD	00H
	DD	0ffffffffH
	DD	00H
	DD	040H
	DD	FLAT:??_R3bad_alloc@std@@8
rdata$r	ENDS
;	COMDAT ??_R2bad_alloc@std@@8
rdata$r	SEGMENT
??_R2bad_alloc@std@@8 DD FLAT:??_R1A@?0A@EA@bad_alloc@std@@8 ; std::bad_alloc::`RTTI Base Class Array'
	DD	FLAT:??_R1A@?0A@EA@exception@std@@8
rdata$r	ENDS
;	COMDAT ??_R3bad_alloc@std@@8
rdata$r	SEGMENT
??_R3bad_alloc@std@@8 DD 00H				; std::bad_alloc::`RTTI Class Hierarchy Descriptor'
	DD	00H
	DD	02H
	DD	FLAT:??_R2bad_alloc@std@@8
rdata$r	ENDS
;	COMDAT ??_R0?AVbad_alloc@std@@@8
_DATA	SEGMENT
??_R0?AVbad_alloc@std@@@8 DD FLAT:??_7type_info@@6B@	; std::bad_alloc `RTTI Type Descriptor'
	DD	00H
	DB	'.?AVbad_alloc@std@@', 00H
_DATA	ENDS
;	COMDAT ??_R4bad_alloc@std@@6B@
rdata$r	SEGMENT
??_R4bad_alloc@std@@6B@ DD 00H				; std::bad_alloc::`RTTI Complete Object Locator'
	DD	00H
	DD	00H
	DD	FLAT:??_R0?AVbad_alloc@std@@@8
	DD	FLAT:??_R3bad_alloc@std@@8
rdata$r	ENDS
;	COMDAT ??_7bad_alloc@std@@6B@
CONST	SEGMENT
??_7bad_alloc@std@@6B@ DD FLAT:??_R4bad_alloc@std@@6B@	; std::bad_alloc::`vftable'
	DD	FLAT:??_Ebad_alloc@std@@UAEPAXI@Z
	DD	FLAT:?what@exception@std@@UBEPBDXZ
; Function compile flags: /Ogtpy
CONST	ENDS
;	COMDAT ??0bad_alloc@std@@QAE@PBD@Z
_TEXT	SEGMENT
__Message$ = 8						; size = 4
??0bad_alloc@std@@QAE@PBD@Z PROC			; std::bad_alloc::bad_alloc, COMDAT
; _this$ = ecx

; 371  : 		{	// construct from message string

	push	esi
	lea	eax, DWORD PTR __Message$[esp]
	push	eax
	mov	esi, ecx
	call	DWORD PTR __imp_??0exception@std@@QAE@ABQBD@Z
	mov	DWORD PTR [esi], OFFSET ??_7bad_alloc@std@@6B@

; 372  : 		}

	mov	eax, esi
	pop	esi
	ret	4
??0bad_alloc@std@@QAE@PBD@Z ENDP			; std::bad_alloc::bad_alloc
_TEXT	ENDS
PUBLIC	?GetCapitalFreeBuildingPrereqTech@CvTraitEntry@@QBE?AW4TechTypes@@XZ ; CvTraitEntry::GetCapitalFreeBuildingPrereqTech
; Function compile flags: /Ogtpy
; File c:\users\enormousapplepie\documents\github\lekmod\lekmod_dll\cvgamecoredll_expansion2\cvtraitclasses.cpp
;	COMDAT ?GetCapitalFreeBuildingPrereqTech@CvTraitEntry@@QBE?AW4TechTypes@@XZ
_TEXT	SEGMENT
?GetCapitalFreeBuildingPrereqTech@CvTraitEntry@@QBE?AW4TechTypes@@XZ PROC ; CvTraitEntry::GetCapitalFreeBuildingPrereqTech, COMDAT
; _this$ = ecx

; 653  : 	return m_eCapitalFreeBuildingPrereqTech;

	mov	eax, DWORD PTR [ecx+576]

; 654  : }

	ret	0
?GetCapitalFreeBuildingPrereqTech@CvTraitEntry@@QBE?AW4TechTypes@@XZ ENDP ; CvTraitEntry::GetCapitalFreeBuildingPrereqTech
_TEXT	ENDS
PUBLIC	?GetFreeUnitPrereqTech@CvTraitEntry@@QBE?AW4TechTypes@@XZ ; CvTraitEntry::GetFreeUnitPrereqTech
; Function compile flags: /Ogtpy
;	COMDAT ?GetFreeUnitPrereqTech@CvTraitEntry@@QBE?AW4TechTypes@@XZ
_TEXT	SEGMENT
?GetFreeUnitPrereqTech@CvTraitEntry@@QBE?AW4TechTypes@@XZ PROC ; CvTraitEntry::GetFreeUnitPrereqTech, COMDAT
; _this$ = ecx

; 659  : 	return m_eFreeUnitPrereqTech;

	mov	eax, DWORD PTR [ecx+556]

; 660  : }

	ret	0
?GetFreeUnitPrereqTech@CvTraitEntry@@QBE?AW4TechTypes@@XZ ENDP ; CvTraitEntry::GetFreeUnitPrereqTech
_TEXT	ENDS
PUBLIC	?GetCombatBonusImprovement@CvTraitEntry@@QBE?AW4ImprovementTypes@@XZ ; CvTraitEntry::GetCombatBonusImprovement
; Function compile flags: /Ogtpy
;	COMDAT ?GetCombatBonusImprovement@CvTraitEntry@@QBE?AW4ImprovementTypes@@XZ
_TEXT	SEGMENT
?GetCombatBonusImprovement@CvTraitEntry@@QBE?AW4ImprovementTypes@@XZ PROC ; CvTraitEntry::GetCombatBonusImprovement, COMDAT
; _this$ = ecx

; 665  : 	return m_eCombatBonusImprovement;

	mov	eax, DWORD PTR [ecx+560]

; 666  : }

	ret	0
?GetCombatBonusImprovement@CvTraitEntry@@QBE?AW4ImprovementTypes@@XZ ENDP ; CvTraitEntry::GetCombatBonusImprovement
_TEXT	ENDS
PUBLIC	?GetFreeBuilding@CvTraitEntry@@QBE?AW4BuildingTypes@@XZ ; CvTraitEntry::GetFreeBuilding
; Function compile flags: /Ogtpy
;	COMDAT ?GetFreeBuilding@CvTraitEntry@@QBE?AW4BuildingTypes@@XZ
_TEXT	SEGMENT
?GetFreeBuilding@CvTraitEntry@@QBE?AW4BuildingTypes@@XZ PROC ; CvTraitEntry::GetFreeBuilding, COMDAT
; _this$ = ecx

; 671  : 	return m_eFreeBuilding;

	mov	eax, DWORD PTR [ecx+564]

; 672  : }

	ret	0
?GetFreeBuilding@CvTraitEntry@@QBE?AW4BuildingTypes@@XZ ENDP ; CvTraitEntry::GetFreeBuilding
_TEXT	ENDS
PUBLIC	??1bad_alloc@std@@UAE@XZ			; std::bad_alloc::~bad_alloc
EXTRN	__imp_??1exception@std@@UAE@XZ:PROC
; Function compile flags: /Ogtpy
; File c:\program files (x86)\microsoft visual studio 9.0\vc\include\exception
;	COMDAT ??1bad_alloc@std@@UAE@XZ
_TEXT	SEGMENT
??1bad_alloc@std@@UAE@XZ PROC				; std::bad_alloc::~bad_alloc, COMDAT
; _this$ = ecx

; 380  : 		{	// destroy the object

	mov	DWORD PTR [ecx], OFFSET ??_7bad_alloc@std@@6B@

; 381  : 		}

	jmp	DWORD PTR __imp_??1exception@std@@UAE@XZ
??1bad_alloc@std@@UAE@XZ ENDP				; std::bad_alloc::~bad_alloc
_TEXT	ENDS
PUBLIC	?GetFreeCapitalBuilding@CvTraitEntry@@QBE?AW4BuildingTypes@@XZ ; CvTraitEntry::GetFreeCapitalBuilding
; Function compile flags: /Ogtpy
; File c:\users\enormousapplepie\documents\github\lekmod\lekmod_dll\cvgamecoredll_expansion2\cvtraitclasses.cpp
;	COMDAT ?GetFreeCapitalBuilding@CvTraitEntry@@QBE?AW4BuildingTypes@@XZ
_TEXT	SEGMENT
?GetFreeCapitalBuilding@CvTraitEntry@@QBE?AW4BuildingTypes@@XZ PROC ; CvTraitEntry::GetFreeCapitalBuilding, COMDAT
; _this$ = ecx

; 677  : 	return m_eFreeCapitalBuilding;

	mov	eax, DWORD PTR [ecx+568]

; 678  : }

	ret	0
?GetFreeCapitalBuilding@CvTraitEntry@@QBE?AW4BuildingTypes@@XZ ENDP ; CvTraitEntry::GetFreeCapitalBuilding
_TEXT	ENDS
EXTRN	??3@YAXPAX@Z:PROC				; operator delete
; Function compile flags: /Ogtpy
;	COMDAT ??_Gbad_alloc@std@@UAEPAXI@Z
_TEXT	SEGMENT
___flags$ = 8						; size = 4
??_Gbad_alloc@std@@UAEPAXI@Z PROC			; std::bad_alloc::`scalar deleting destructor', COMDAT
; _this$ = ecx
	push	esi
	mov	esi, ecx
	mov	DWORD PTR [esi], OFFSET ??_7bad_alloc@std@@6B@
	call	DWORD PTR __imp_??1exception@std@@UAE@XZ
	test	BYTE PTR ___flags$[esp], 1
	je	SHORT $LN6@scalar
	push	esi
	call	??3@YAXPAX@Z				; operator delete
	add	esp, 4
$LN6@scalar:
	mov	eax, esi
	pop	esi
	ret	4
??_Gbad_alloc@std@@UAEPAXI@Z ENDP			; std::bad_alloc::`scalar deleting destructor'
_TEXT	ENDS
PUBLIC	?GetFreeBuildingOnConquest@CvTraitEntry@@QBE?AW4BuildingTypes@@XZ ; CvTraitEntry::GetFreeBuildingOnConquest
; Function compile flags: /Ogtpy
;	COMDAT ?GetFreeBuildingOnConquest@CvTraitEntry@@QBE?AW4BuildingTypes@@XZ
_TEXT	SEGMENT
?GetFreeBuildingOnConquest@CvTraitEntry@@QBE?AW4BuildingTypes@@XZ PROC ; CvTraitEntry::GetFreeBuildingOnConquest, COMDAT
; _this$ = ecx

; 683  : 	return m_eFreeBuildingOnConquest;

	mov	eax, DWORD PTR [ecx+580]

; 684  : }

	ret	0
?GetFreeBuildingOnConquest@CvTraitEntry@@QBE?AW4BuildingTypes@@XZ ENDP ; CvTraitEntry::GetFreeBuildingOnConquest
_TEXT	ENDS
PUBLIC	??2@YAPAXIPAX@Z					; operator new
; Function compile flags: /Ogtpy
; File c:\program files (x86)\microsoft visual studio 9.0\vc\include\new
;	COMDAT ??2@YAPAXIPAX@Z
_TEXT	SEGMENT
___formal$ = 8						; size = 4
__Where$ = 12						; size = 4
??2@YAPAXIPAX@Z PROC					; operator new, COMDAT

; 59   : 	return (_Where);

	mov	eax, DWORD PTR __Where$[esp-4]

; 60   : 	}

	ret	0
??2@YAPAXIPAX@Z ENDP					; operator new
_TEXT	ENDS
PUBLIC	?IsFightWellDamaged@CvTraitEntry@@QBE_NXZ	; CvTraitEntry::IsFightWellDamaged
; Function compile flags: /Ogtpy
; File c:\users\enormousapplepie\documents\github\lekmod\lekmod_dll\cvgamecoredll_expansion2\cvtraitclasses.cpp
;	COMDAT ?IsFightWellDamaged@CvTraitEntry@@QBE_NXZ
_TEXT	SEGMENT
?IsFightWellDamaged@CvTraitEntry@@QBE_NXZ PROC		; CvTraitEntry::IsFightWellDamaged, COMDAT
; _this$ = ecx

; 689  : 	return m_bFightWellDamaged;

	mov	al, BYTE PTR [ecx+584]

; 690  : }

	ret	0
?IsFightWellDamaged@CvTraitEntry@@QBE_NXZ ENDP		; CvTraitEntry::IsFightWellDamaged
_TEXT	ENDS
PUBLIC	??3@YAXPAX0@Z					; operator delete
; Function compile flags: /Ogtpy
; File c:\program files (x86)\microsoft visual studio 9.0\vc\include\new
;	COMDAT ??3@YAXPAX0@Z
_TEXT	SEGMENT
___formal$ = 8						; size = 4
___formal$ = 12						; size = 4
??3@YAXPAX0@Z PROC					; operator delete, COMDAT

; 64   : 	}

	ret	0
??3@YAXPAX0@Z ENDP					; operator delete
_TEXT	ENDS
PUBLIC	?IsMoveFriendlyWoodsAsRoad@CvTraitEntry@@QBE_NXZ ; CvTraitEntry::IsMoveFriendlyWoodsAsRoad
; Function compile flags: /Ogtpy
; File c:\users\enormousapplepie\documents\github\lekmod\lekmod_dll\cvgamecoredll_expansion2\cvtraitclasses.cpp
;	COMDAT ?IsMoveFriendlyWoodsAsRoad@CvTraitEntry@@QBE_NXZ
_TEXT	SEGMENT
?IsMoveFriendlyWoodsAsRoad@CvTraitEntry@@QBE_NXZ PROC	; CvTraitEntry::IsMoveFriendlyWoodsAsRoad, COMDAT
; _this$ = ecx

; 695  : 	return m_bMoveFriendlyWoodsAsRoad;

	mov	al, BYTE PTR [ecx+585]

; 696  : }

	ret	0
?IsMoveFriendlyWoodsAsRoad@CvTraitEntry@@QBE_NXZ ENDP	; CvTraitEntry::IsMoveFriendlyWoodsAsRoad
_TEXT	ENDS
PUBLIC	?IsFasterAlongRiver@CvTraitEntry@@QBE_NXZ	; CvTraitEntry::IsFasterAlongRiver
; Function compile flags: /Ogtpy
;	COMDAT ?IsFasterAlongRiver@CvTraitEntry@@QBE_NXZ
_TEXT	SEGMENT
?IsFasterAlongRiver@CvTraitEntry@@QBE_NXZ PROC		; CvTraitEntry::IsFasterAlongRiver, COMDAT
; _this$ = ecx

; 701  : 	return m_bFasterAlongRiver;

	mov	al, BYTE PTR [ecx+586]

; 702  : }

	ret	0
?IsFasterAlongRiver@CvTraitEntry@@QBE_NXZ ENDP		; CvTraitEntry::IsFasterAlongRiver
_TEXT	ENDS
PUBLIC	?IsFasterInHills@CvTraitEntry@@QBE_NXZ		; CvTraitEntry::IsFasterInHills
; Function compile flags: /Ogtpy
;	COMDAT ?IsFasterInHills@CvTraitEntry@@QBE_NXZ
_TEXT	SEGMENT
?IsFasterInHills@CvTraitEntry@@QBE_NXZ PROC		; CvTraitEntry::IsFasterInHills, COMDAT
; _this$ = ecx

; 707  : 	return m_bFasterInHills;

	mov	al, BYTE PTR [ecx+587]

; 708  : }

	ret	0
?IsFasterInHills@CvTraitEntry@@QBE_NXZ ENDP		; CvTraitEntry::IsFasterInHills
_TEXT	ENDS
PUBLIC	?IsEmbarkedAllWater@CvTraitEntry@@QBE_NXZ	; CvTraitEntry::IsEmbarkedAllWater
; Function compile flags: /Ogtpy
;	COMDAT ?IsEmbarkedAllWater@CvTraitEntry@@QBE_NXZ
_TEXT	SEGMENT
?IsEmbarkedAllWater@CvTraitEntry@@QBE_NXZ PROC		; CvTraitEntry::IsEmbarkedAllWater, COMDAT
; _this$ = ecx

; 713  : 	return m_bEmbarkedAllWater;

	mov	al, BYTE PTR [ecx+588]

; 714  : }

	ret	0
?IsEmbarkedAllWater@CvTraitEntry@@QBE_NXZ ENDP		; CvTraitEntry::IsEmbarkedAllWater
_TEXT	ENDS
PUBLIC	?IsEmbarkedToLandFlatCost@CvTraitEntry@@QBE_NXZ	; CvTraitEntry::IsEmbarkedToLandFlatCost
; Function compile flags: /Ogtpy
;	COMDAT ?IsEmbarkedToLandFlatCost@CvTraitEntry@@QBE_NXZ
_TEXT	SEGMENT
?IsEmbarkedToLandFlatCost@CvTraitEntry@@QBE_NXZ PROC	; CvTraitEntry::IsEmbarkedToLandFlatCost, COMDAT
; _this$ = ecx

; 719  : 	return m_bEmbarkedToLandFlatCost;

	mov	al, BYTE PTR [ecx+589]

; 720  : }

	ret	0
?IsEmbarkedToLandFlatCost@CvTraitEntry@@QBE_NXZ ENDP	; CvTraitEntry::IsEmbarkedToLandFlatCost
_TEXT	ENDS
PUBLIC	?IsNoHillsImprovementMaintenance@CvTraitEntry@@QBE_NXZ ; CvTraitEntry::IsNoHillsImprovementMaintenance
; Function compile flags: /Ogtpy
;	COMDAT ?IsNoHillsImprovementMaintenance@CvTraitEntry@@QBE_NXZ
_TEXT	SEGMENT
?IsNoHillsImprovementMaintenance@CvTraitEntry@@QBE_NXZ PROC ; CvTraitEntry::IsNoHillsImprovementMaintenance, COMDAT
; _this$ = ecx

; 725  : 	return m_bNoHillsImprovementMaintenance;

	mov	al, BYTE PTR [ecx+590]

; 726  : }

	ret	0
?IsNoHillsImprovementMaintenance@CvTraitEntry@@QBE_NXZ ENDP ; CvTraitEntry::IsNoHillsImprovementMaintenance
_TEXT	ENDS
PUBLIC	?IsTechBoostFromCapitalScienceBuildings@CvTraitEntry@@QBE_NXZ ; CvTraitEntry::IsTechBoostFromCapitalScienceBuildings
; Function compile flags: /Ogtpy
;	COMDAT ?IsTechBoostFromCapitalScienceBuildings@CvTraitEntry@@QBE_NXZ
_TEXT	SEGMENT
?IsTechBoostFromCapitalScienceBuildings@CvTraitEntry@@QBE_NXZ PROC ; CvTraitEntry::IsTechBoostFromCapitalScienceBuildings, COMDAT
; _this$ = ecx

; 731  : 	return m_bTechBoostFromCapitalScienceBuildings;

	mov	al, BYTE PTR [ecx+591]

; 732  : }

	ret	0
?IsTechBoostFromCapitalScienceBuildings@CvTraitEntry@@QBE_NXZ ENDP ; CvTraitEntry::IsTechBoostFromCapitalScienceBuildings
_TEXT	ENDS
PUBLIC	?IsStaysAliveZeroCities@CvTraitEntry@@QBE_NXZ	; CvTraitEntry::IsStaysAliveZeroCities
; Function compile flags: /Ogtpy
;	COMDAT ?IsStaysAliveZeroCities@CvTraitEntry@@QBE_NXZ
_TEXT	SEGMENT
?IsStaysAliveZeroCities@CvTraitEntry@@QBE_NXZ PROC	; CvTraitEntry::IsStaysAliveZeroCities, COMDAT
; _this$ = ecx

; 737  : 	return m_bStaysAliveZeroCities;

	mov	al, BYTE PTR [ecx+592]

; 738  : }

	ret	0
?IsStaysAliveZeroCities@CvTraitEntry@@QBE_NXZ ENDP	; CvTraitEntry::IsStaysAliveZeroCities
_TEXT	ENDS
PUBLIC	?IsFaithFromUnimprovedForest@CvTraitEntry@@QBE_NXZ ; CvTraitEntry::IsFaithFromUnimprovedForest
; Function compile flags: /Ogtpy
;	COMDAT ?IsFaithFromUnimprovedForest@CvTraitEntry@@QBE_NXZ
_TEXT	SEGMENT
?IsFaithFromUnimprovedForest@CvTraitEntry@@QBE_NXZ PROC	; CvTraitEntry::IsFaithFromUnimprovedForest, COMDAT
; _this$ = ecx

; 743  : 	return m_bFaithFromUnimprovedForest;

	mov	al, BYTE PTR [ecx+593]

; 744  : }

	ret	0
?IsFaithFromUnimprovedForest@CvTraitEntry@@QBE_NXZ ENDP	; CvTraitEntry::IsFaithFromUnimprovedForest
_TEXT	ENDS
PUBLIC	?IsSeaTradeRoutesArePlunderImmune@CvTraitEntry@@QBE_NXZ ; CvTraitEntry::IsSeaTradeRoutesArePlunderImmune
; Function compile flags: /Ogtpy
;	COMDAT ?IsSeaTradeRoutesArePlunderImmune@CvTraitEntry@@QBE_NXZ
_TEXT	SEGMENT
?IsSeaTradeRoutesArePlunderImmune@CvTraitEntry@@QBE_NXZ PROC ; CvTraitEntry::IsSeaTradeRoutesArePlunderImmune, COMDAT
; _this$ = ecx

; 750  : 	return m_bSeaTradeRoutesArePlunderImmune;

	mov	al, BYTE PTR [ecx+594]

; 751  : }

	ret	0
?IsSeaTradeRoutesArePlunderImmune@CvTraitEntry@@QBE_NXZ ENDP ; CvTraitEntry::IsSeaTradeRoutesArePlunderImmune
_TEXT	ENDS
PUBLIC	?IsEarnsGreatPersonOnSlotOrGuild@CvTraitEntry@@QBE_NXZ ; CvTraitEntry::IsEarnsGreatPersonOnSlotOrGuild
; Function compile flags: /Ogtpy
;	COMDAT ?IsEarnsGreatPersonOnSlotOrGuild@CvTraitEntry@@QBE_NXZ
_TEXT	SEGMENT
?IsEarnsGreatPersonOnSlotOrGuild@CvTraitEntry@@QBE_NXZ PROC ; CvTraitEntry::IsEarnsGreatPersonOnSlotOrGuild, COMDAT
; _this$ = ecx

; 758  : 	return m_bEarnsGreatPersonOnSlotOrGuild;

	mov	al, BYTE PTR [ecx+595]

; 759  : }

	ret	0
?IsEarnsGreatPersonOnSlotOrGuild@CvTraitEntry@@QBE_NXZ ENDP ; CvTraitEntry::IsEarnsGreatPersonOnSlotOrGuild
_TEXT	ENDS
PUBLIC	?IsHasBuiltWritersGuild@CvTraitEntry@@QBE_NXZ	; CvTraitEntry::IsHasBuiltWritersGuild
; Function compile flags: /Ogtpy
;	COMDAT ?IsHasBuiltWritersGuild@CvTraitEntry@@QBE_NXZ
_TEXT	SEGMENT
?IsHasBuiltWritersGuild@CvTraitEntry@@QBE_NXZ PROC	; CvTraitEntry::IsHasBuiltWritersGuild, COMDAT
; _this$ = ecx

; 763  : 	return m_bHasBuiltWritersGuild;

	mov	al, BYTE PTR [ecx+596]

; 764  : };

	ret	0
?IsHasBuiltWritersGuild@CvTraitEntry@@QBE_NXZ ENDP	; CvTraitEntry::IsHasBuiltWritersGuild
_TEXT	ENDS
PUBLIC	?SetHasBuiltWritersGuild@CvTraitEntry@@QAEX_N@Z	; CvTraitEntry::SetHasBuiltWritersGuild
; Function compile flags: /Ogtpy
;	COMDAT ?SetHasBuiltWritersGuild@CvTraitEntry@@QAEX_N@Z
_TEXT	SEGMENT
_hasBuilt$ = 8						; size = 1
?SetHasBuiltWritersGuild@CvTraitEntry@@QAEX_N@Z PROC	; CvTraitEntry::SetHasBuiltWritersGuild, COMDAT
; _this$ = ecx

; 768  : 	m_bHasBuiltWritersGuild = hasBuilt;

	mov	al, BYTE PTR _hasBuilt$[esp-4]
	mov	BYTE PTR [ecx+596], al

; 769  : };

	ret	4
?SetHasBuiltWritersGuild@CvTraitEntry@@QAEX_N@Z ENDP	; CvTraitEntry::SetHasBuiltWritersGuild
_TEXT	ENDS
PUBLIC	?IsHasBuiltArtistsGuild@CvTraitEntry@@QBE_NXZ	; CvTraitEntry::IsHasBuiltArtistsGuild
; Function compile flags: /Ogtpy
;	COMDAT ?IsHasBuiltArtistsGuild@CvTraitEntry@@QBE_NXZ
_TEXT	SEGMENT
?IsHasBuiltArtistsGuild@CvTraitEntry@@QBE_NXZ PROC	; CvTraitEntry::IsHasBuiltArtistsGuild, COMDAT
; _this$ = ecx

; 773  : 	return m_bHasBuiltArtistsGuild;

	mov	al, BYTE PTR [ecx+597]

; 774  : };

	ret	0
?IsHasBuiltArtistsGuild@CvTraitEntry@@QBE_NXZ ENDP	; CvTraitEntry::IsHasBuiltArtistsGuild
_TEXT	ENDS
PUBLIC	?SetHasBuiltArtistsGuild@CvTraitEntry@@QAEX_N@Z	; CvTraitEntry::SetHasBuiltArtistsGuild
; Function compile flags: /Ogtpy
;	COMDAT ?SetHasBuiltArtistsGuild@CvTraitEntry@@QAEX_N@Z
_TEXT	SEGMENT
_hasBuilt$ = 8						; size = 1
?SetHasBuiltArtistsGuild@CvTraitEntry@@QAEX_N@Z PROC	; CvTraitEntry::SetHasBuiltArtistsGuild, COMDAT
; _this$ = ecx

; 778  : 	m_bHasBuiltArtistsGuild = hasBuilt;

	mov	al, BYTE PTR _hasBuilt$[esp-4]
	mov	BYTE PTR [ecx+597], al

; 779  : };

	ret	4
?SetHasBuiltArtistsGuild@CvTraitEntry@@QAEX_N@Z ENDP	; CvTraitEntry::SetHasBuiltArtistsGuild
_TEXT	ENDS
PUBLIC	?IsHasBuiltMusiciansGuild@CvTraitEntry@@QBE_NXZ	; CvTraitEntry::IsHasBuiltMusiciansGuild
; Function compile flags: /Ogtpy
;	COMDAT ?IsHasBuiltMusiciansGuild@CvTraitEntry@@QBE_NXZ
_TEXT	SEGMENT
?IsHasBuiltMusiciansGuild@CvTraitEntry@@QBE_NXZ PROC	; CvTraitEntry::IsHasBuiltMusiciansGuild, COMDAT
; _this$ = ecx

; 783  : 	return m_bHasBuiltMusiciansGuild;

	mov	al, BYTE PTR [ecx+598]

; 784  : };

	ret	0
?IsHasBuiltMusiciansGuild@CvTraitEntry@@QBE_NXZ ENDP	; CvTraitEntry::IsHasBuiltMusiciansGuild
_TEXT	ENDS
PUBLIC	?SetHasBuiltMusiciansGuild@CvTraitEntry@@QAEX_N@Z ; CvTraitEntry::SetHasBuiltMusiciansGuild
; Function compile flags: /Ogtpy
;	COMDAT ?SetHasBuiltMusiciansGuild@CvTraitEntry@@QAEX_N@Z
_TEXT	SEGMENT
_hasBuilt$ = 8						; size = 1
?SetHasBuiltMusiciansGuild@CvTraitEntry@@QAEX_N@Z PROC	; CvTraitEntry::SetHasBuiltMusiciansGuild, COMDAT
; _this$ = ecx

; 788  : 	m_bHasBuiltMusiciansGuild = hasBuilt;

	mov	al, BYTE PTR _hasBuilt$[esp-4]
	mov	BYTE PTR [ecx+598], al

; 789  : };

	ret	4
?SetHasBuiltMusiciansGuild@CvTraitEntry@@QAEX_N@Z ENDP	; CvTraitEntry::SetHasBuiltMusiciansGuild
_TEXT	ENDS
PUBLIC	?IsBonusReligiousBelief@CvTraitEntry@@QBE_NXZ	; CvTraitEntry::IsBonusReligiousBelief
; Function compile flags: /Ogtpy
;	COMDAT ?IsBonusReligiousBelief@CvTraitEntry@@QBE_NXZ
_TEXT	SEGMENT
?IsBonusReligiousBelief@CvTraitEntry@@QBE_NXZ PROC	; CvTraitEntry::IsBonusReligiousBelief, COMDAT
; _this$ = ecx

; 795  : 	return m_bBonusReligiousBelief;

	mov	al, BYTE PTR [ecx+599]

; 796  : }

	ret	0
?IsBonusReligiousBelief@CvTraitEntry@@QBE_NXZ ENDP	; CvTraitEntry::IsBonusReligiousBelief
_TEXT	ENDS
PUBLIC	?IsAbleToAnnexCityStates@CvTraitEntry@@QBE_NXZ	; CvTraitEntry::IsAbleToAnnexCityStates
; Function compile flags: /Ogtpy
;	COMDAT ?IsAbleToAnnexCityStates@CvTraitEntry@@QBE_NXZ
_TEXT	SEGMENT
?IsAbleToAnnexCityStates@CvTraitEntry@@QBE_NXZ PROC	; CvTraitEntry::IsAbleToAnnexCityStates, COMDAT
; _this$ = ecx

; 801  : 	return m_bAbleToAnnexCityStates;

	mov	al, BYTE PTR [ecx+600]

; 802  : }

	ret	0
?IsAbleToAnnexCityStates@CvTraitEntry@@QBE_NXZ ENDP	; CvTraitEntry::IsAbleToAnnexCityStates
_TEXT	ENDS
PUBLIC	?IsCrossesMountainsAfterGreatGeneral@CvTraitEntry@@QBE_NXZ ; CvTraitEntry::IsCrossesMountainsAfterGreatGeneral
; Function compile flags: /Ogtpy
;	COMDAT ?IsCrossesMountainsAfterGreatGeneral@CvTraitEntry@@QBE_NXZ
_TEXT	SEGMENT
?IsCrossesMountainsAfterGreatGeneral@CvTraitEntry@@QBE_NXZ PROC ; CvTraitEntry::IsCrossesMountainsAfterGreatGeneral, COMDAT
; _this$ = ecx

; 807  : 	return m_bCrossesMountainsAfterGreatGeneral;

	mov	al, BYTE PTR [ecx+601]

; 808  : }

	ret	0
?IsCrossesMountainsAfterGreatGeneral@CvTraitEntry@@QBE_NXZ ENDP ; CvTraitEntry::IsCrossesMountainsAfterGreatGeneral
_TEXT	ENDS
PUBLIC	?IsMayaCalendarBonuses@CvTraitEntry@@QBE_NXZ	; CvTraitEntry::IsMayaCalendarBonuses
; Function compile flags: /Ogtpy
;	COMDAT ?IsMayaCalendarBonuses@CvTraitEntry@@QBE_NXZ
_TEXT	SEGMENT
?IsMayaCalendarBonuses@CvTraitEntry@@QBE_NXZ PROC	; CvTraitEntry::IsMayaCalendarBonuses, COMDAT
; _this$ = ecx

; 813  : 	return m_bMayaCalendarBonuses;

	mov	al, BYTE PTR [ecx+602]

; 814  : }

	ret	0
?IsMayaCalendarBonuses@CvTraitEntry@@QBE_NXZ ENDP	; CvTraitEntry::IsMayaCalendarBonuses
_TEXT	ENDS
PUBLIC	?IsNoAnnexing@CvTraitEntry@@QBE_NXZ		; CvTraitEntry::IsNoAnnexing
; Function compile flags: /Ogtpy
;	COMDAT ?IsNoAnnexing@CvTraitEntry@@QBE_NXZ
_TEXT	SEGMENT
?IsNoAnnexing@CvTraitEntry@@QBE_NXZ PROC		; CvTraitEntry::IsNoAnnexing, COMDAT
; _this$ = ecx

; 819  : 	return m_bNoAnnexing;

	mov	al, BYTE PTR [ecx+603]

; 820  : }

	ret	0
?IsNoAnnexing@CvTraitEntry@@QBE_NXZ ENDP		; CvTraitEntry::IsNoAnnexing
_TEXT	ENDS
PUBLIC	?IsTechFromCityConquer@CvTraitEntry@@QBE_NXZ	; CvTraitEntry::IsTechFromCityConquer
; Function compile flags: /Ogtpy
;	COMDAT ?IsTechFromCityConquer@CvTraitEntry@@QBE_NXZ
_TEXT	SEGMENT
?IsTechFromCityConquer@CvTraitEntry@@QBE_NXZ PROC	; CvTraitEntry::IsTechFromCityConquer, COMDAT
; _this$ = ecx

; 825  : 	return m_bTechFromCityConquer;

	mov	al, BYTE PTR [ecx+604]

; 826  : }

	ret	0
?IsTechFromCityConquer@CvTraitEntry@@QBE_NXZ ENDP	; CvTraitEntry::IsTechFromCityConquer
_TEXT	ENDS
PUBLIC	?IsUniqueLuxuryRequiresNewArea@CvTraitEntry@@QBE_NXZ ; CvTraitEntry::IsUniqueLuxuryRequiresNewArea
; Function compile flags: /Ogtpy
;	COMDAT ?IsUniqueLuxuryRequiresNewArea@CvTraitEntry@@QBE_NXZ
_TEXT	SEGMENT
?IsUniqueLuxuryRequiresNewArea@CvTraitEntry@@QBE_NXZ PROC ; CvTraitEntry::IsUniqueLuxuryRequiresNewArea, COMDAT
; _this$ = ecx

; 831  : 	return m_bUniqueLuxuryRequiresNewArea;

	mov	al, BYTE PTR [ecx+605]

; 832  : }

	ret	0
?IsUniqueLuxuryRequiresNewArea@CvTraitEntry@@QBE_NXZ ENDP ; CvTraitEntry::IsUniqueLuxuryRequiresNewArea
_TEXT	ENDS
PUBLIC	?IsRiverTradeRoad@CvTraitEntry@@QBE_NXZ		; CvTraitEntry::IsRiverTradeRoad
; Function compile flags: /Ogtpy
;	COMDAT ?IsRiverTradeRoad@CvTraitEntry@@QBE_NXZ
_TEXT	SEGMENT
?IsRiverTradeRoad@CvTraitEntry@@QBE_NXZ PROC		; CvTraitEntry::IsRiverTradeRoad, COMDAT
; _this$ = ecx

; 837  : 	return m_bRiverTradeRoad;

	mov	al, BYTE PTR [ecx+606]

; 838  : }

	ret	0
?IsRiverTradeRoad@CvTraitEntry@@QBE_NXZ ENDP		; CvTraitEntry::IsRiverTradeRoad
_TEXT	ENDS
PUBLIC	?IsAngerFreeIntrusionOfCityStates@CvTraitEntry@@QBE_NXZ ; CvTraitEntry::IsAngerFreeIntrusionOfCityStates
; Function compile flags: /Ogtpy
;	COMDAT ?IsAngerFreeIntrusionOfCityStates@CvTraitEntry@@QBE_NXZ
_TEXT	SEGMENT
?IsAngerFreeIntrusionOfCityStates@CvTraitEntry@@QBE_NXZ PROC ; CvTraitEntry::IsAngerFreeIntrusionOfCityStates, COMDAT
; _this$ = ecx

; 843  : 	return m_bAngerFreeIntrusionOfCityStates;

	mov	al, BYTE PTR [ecx+607]

; 844  : }

	ret	0
?IsAngerFreeIntrusionOfCityStates@CvTraitEntry@@QBE_NXZ ENDP ; CvTraitEntry::IsAngerFreeIntrusionOfCityStates
_TEXT	ENDS
PUBLIC	??_7logic_error@std@@6B@			; std::logic_error::`vftable'
PUBLIC	??0logic_error@std@@QAE@ABV?$basic_string@DU?$char_traits@D@std@@V?$allocator@D@2@@1@@Z ; std::logic_error::logic_error
PUBLIC	??_R4logic_error@std@@6B@			; std::logic_error::`RTTI Complete Object Locator'
PUBLIC	??_R0?AVlogic_error@std@@@8			; std::logic_error `RTTI Type Descriptor'
PUBLIC	??_R3logic_error@std@@8				; std::logic_error::`RTTI Class Hierarchy Descriptor'
PUBLIC	??_R2logic_error@std@@8				; std::logic_error::`RTTI Base Class Array'
PUBLIC	??_R1A@?0A@EA@logic_error@std@@8		; std::logic_error::`RTTI Base Class Descriptor at (0,-1,0,64)'
PUBLIC	?what@logic_error@std@@UBEPBDXZ			; std::logic_error::what
EXTRN	__imp_??0?$basic_string@DU?$char_traits@D@std@@V?$allocator@D@2@@std@@QAE@ABV01@@Z:PROC
EXTRN	__imp_??0exception@std@@QAE@XZ:PROC
EXTRN	___CxxFrameHandler3:PROC
EXTRN	??_Elogic_error@std@@UAEPAXI@Z:PROC		; std::logic_error::`vector deleting destructor'
;	COMDAT ??_R1A@?0A@EA@logic_error@std@@8
; File c:\program files (x86)\microsoft visual studio 9.0\vc\include\stdexcept
rdata$r	SEGMENT
??_R1A@?0A@EA@logic_error@std@@8 DD FLAT:??_R0?AVlogic_error@std@@@8 ; std::logic_error::`RTTI Base Class Descriptor at (0,-1,0,64)'
	DD	01H
	DD	00H
	DD	0ffffffffH
	DD	00H
	DD	040H
	DD	FLAT:??_R3logic_error@std@@8
rdata$r	ENDS
;	COMDAT ??_R2logic_error@std@@8
rdata$r	SEGMENT
??_R2logic_error@std@@8 DD FLAT:??_R1A@?0A@EA@logic_error@std@@8 ; std::logic_error::`RTTI Base Class Array'
	DD	FLAT:??_R1A@?0A@EA@exception@std@@8
rdata$r	ENDS
;	COMDAT ??_R3logic_error@std@@8
rdata$r	SEGMENT
??_R3logic_error@std@@8 DD 00H				; std::logic_error::`RTTI Class Hierarchy Descriptor'
	DD	00H
	DD	02H
	DD	FLAT:??_R2logic_error@std@@8
rdata$r	ENDS
;	COMDAT ??_R0?AVlogic_error@std@@@8
_DATA	SEGMENT
??_R0?AVlogic_error@std@@@8 DD FLAT:??_7type_info@@6B@	; std::logic_error `RTTI Type Descriptor'
	DD	00H
	DB	'.?AVlogic_error@std@@', 00H
_DATA	ENDS
;	COMDAT ??_R4logic_error@std@@6B@
rdata$r	SEGMENT
??_R4logic_error@std@@6B@ DD 00H			; std::logic_error::`RTTI Complete Object Locator'
	DD	00H
	DD	00H
	DD	FLAT:??_R0?AVlogic_error@std@@@8
	DD	FLAT:??_R3logic_error@std@@8
rdata$r	ENDS
;	COMDAT ??_7logic_error@std@@6B@
CONST	SEGMENT
??_7logic_error@std@@6B@ DD FLAT:??_R4logic_error@std@@6B@ ; std::logic_error::`vftable'
	DD	FLAT:??_Elogic_error@std@@UAEPAXI@Z
	DD	FLAT:?what@logic_error@std@@UBEPBDXZ
CONST	ENDS
;	COMDAT xdata$x
xdata$x	SEGMENT
__unwindtable$??0logic_error@std@@QAE@ABV?$basic_string@DU?$char_traits@D@std@@V?$allocator@D@2@@1@@Z DD 0ffffffffH
	DD	FLAT:__unwindfunclet$??0logic_error@std@@QAE@ABV?$basic_string@DU?$char_traits@D@std@@V?$allocator@D@2@@1@@Z$0
__ehfuncinfo$??0logic_error@std@@QAE@ABV?$basic_string@DU?$char_traits@D@std@@V?$allocator@D@2@@1@@Z DD 019930522H
	DD	01H
	DD	FLAT:__unwindtable$??0logic_error@std@@QAE@ABV?$basic_string@DU?$char_traits@D@std@@V?$allocator@D@2@@1@@Z
	DD	2 DUP(00H)
	DD	2 DUP(00H)
	DD	00H
	DD	01H
; Function compile flags: /Ogtpy
xdata$x	ENDS
;	COMDAT ??0logic_error@std@@QAE@ABV?$basic_string@DU?$char_traits@D@std@@V?$allocator@D@2@@1@@Z
_TEXT	SEGMENT
_this$ = -16						; size = 4
__$EHRec$ = -12						; size = 12
__Message$ = 8						; size = 4
??0logic_error@std@@QAE@ABV?$basic_string@DU?$char_traits@D@std@@V?$allocator@D@2@@1@@Z PROC ; std::logic_error::logic_error, COMDAT
; _this$ = ecx

; 26   : 		{	// construct from message string

	push	-1
	push	__ehhandler$??0logic_error@std@@QAE@ABV?$basic_string@DU?$char_traits@D@std@@V?$allocator@D@2@@1@@Z
	mov	eax, DWORD PTR fs:0
	push	eax
	mov	DWORD PTR fs:0, esp
	push	ecx
	push	esi
	mov	esi, ecx
	mov	DWORD PTR _this$[esp+20], esi
	call	DWORD PTR __imp_??0exception@std@@QAE@XZ
	mov	eax, DWORD PTR __Message$[esp+16]
	push	eax
	lea	ecx, DWORD PTR [esi+12]
	mov	DWORD PTR __$EHRec$[esp+32], 0
	mov	DWORD PTR [esi], OFFSET ??_7logic_error@std@@6B@
	call	DWORD PTR __imp_??0?$basic_string@DU?$char_traits@D@std@@V?$allocator@D@2@@std@@QAE@ABV01@@Z

; 27   : 		}

	mov	ecx, DWORD PTR __$EHRec$[esp+20]
	mov	eax, esi
	pop	esi
	mov	DWORD PTR fs:0, ecx
	add	esp, 16					; 00000010H
	ret	4
_TEXT	ENDS
;	COMDAT text$x
text$x	SEGMENT
__unwindfunclet$??0logic_error@std@@QAE@ABV?$basic_string@DU?$char_traits@D@std@@V?$allocator@D@2@@1@@Z$0:
	mov	ecx, DWORD PTR _this$[ebp]
	jmp	DWORD PTR __imp_??1exception@std@@UAE@XZ
__ehhandler$??0logic_error@std@@QAE@ABV?$basic_string@DU?$char_traits@D@std@@V?$allocator@D@2@@1@@Z:
	mov	eax, OFFSET __ehfuncinfo$??0logic_error@std@@QAE@ABV?$basic_string@DU?$char_traits@D@std@@V?$allocator@D@2@@1@@Z
	jmp	___CxxFrameHandler3
text$x	ENDS
??0logic_error@std@@QAE@ABV?$basic_string@DU?$char_traits@D@std@@V?$allocator@D@2@@1@@Z ENDP ; std::logic_error::logic_error
PUBLIC	?GetExtraYieldThreshold@CvTraitEntry@@QBEHH@Z	; CvTraitEntry::GetExtraYieldThreshold
; Function compile flags: /Ogtpy
; File c:\users\enormousapplepie\documents\github\lekmod\lekmod_dll\cvgamecoredll_expansion2\cvtraitclasses.cpp
;	COMDAT ?GetExtraYieldThreshold@CvTraitEntry@@QBEHH@Z
_TEXT	SEGMENT
_i$ = 8							; size = 4
?GetExtraYieldThreshold@CvTraitEntry@@QBEHH@Z PROC	; CvTraitEntry::GetExtraYieldThreshold, COMDAT
; _this$ = ecx

; 861  : 	return m_paiExtraYieldThreshold ? m_paiExtraYieldThreshold[i] : -1;

	mov	eax, DWORD PTR [ecx+636]
	test	eax, eax
	je	SHORT $LN3@GetExtraYi
	mov	ecx, DWORD PTR _i$[esp-4]
	mov	eax, DWORD PTR [eax+ecx*4]

; 862  : }

	ret	4
$LN3@GetExtraYi:

; 861  : 	return m_paiExtraYieldThreshold ? m_paiExtraYieldThreshold[i] : -1;

	or	eax, -1

; 862  : }

	ret	4
?GetExtraYieldThreshold@CvTraitEntry@@QBEHH@Z ENDP	; CvTraitEntry::GetExtraYieldThreshold
_TEXT	ENDS
PUBLIC	??1logic_error@std@@UAE@XZ			; std::logic_error::~logic_error
EXTRN	__imp_??1?$basic_string@DU?$char_traits@D@std@@V?$allocator@D@2@@std@@QAE@XZ:PROC
; Function compile flags: /Ogtpy
; File c:\program files (x86)\microsoft visual studio 9.0\vc\include\stdexcept
;	COMDAT ??1logic_error@std@@UAE@XZ
_TEXT	SEGMENT
??1logic_error@std@@UAE@XZ PROC				; std::logic_error::~logic_error, COMDAT
; _this$ = ecx

; 30   : 		{	// destroy the object

	push	esi
	mov	esi, ecx

; 31   : 		}

	lea	ecx, DWORD PTR [esi+12]
	mov	DWORD PTR [esi], OFFSET ??_7logic_error@std@@6B@
	call	DWORD PTR __imp_??1?$basic_string@DU?$char_traits@D@std@@V?$allocator@D@2@@std@@QAE@XZ
	mov	ecx, esi
	pop	esi
	jmp	DWORD PTR __imp_??1exception@std@@UAE@XZ
??1logic_error@std@@UAE@XZ ENDP				; std::logic_error::~logic_error
_TEXT	ENDS
PUBLIC	?GetYieldChange@CvTraitEntry@@QBEHH@Z		; CvTraitEntry::GetYieldChange
; Function compile flags: /Ogtpy
; File c:\users\enormousapplepie\documents\github\lekmod\lekmod_dll\cvgamecoredll_expansion2\cvtraitclasses.cpp
;	COMDAT ?GetYieldChange@CvTraitEntry@@QBEHH@Z
_TEXT	SEGMENT
_i$ = 8							; size = 4
?GetYieldChange@CvTraitEntry@@QBEHH@Z PROC		; CvTraitEntry::GetYieldChange, COMDAT
; _this$ = ecx

; 867  : 	return m_paiYieldChange ? m_paiYieldChange[i] : -1;

	mov	eax, DWORD PTR [ecx+640]
	test	eax, eax
	je	SHORT $LN3@GetYieldCh
	mov	ecx, DWORD PTR _i$[esp-4]
	mov	eax, DWORD PTR [eax+ecx*4]

; 868  : }

	ret	4
$LN3@GetYieldCh:

; 867  : 	return m_paiYieldChange ? m_paiYieldChange[i] : -1;

	or	eax, -1

; 868  : }

	ret	4
?GetYieldChange@CvTraitEntry@@QBEHH@Z ENDP		; CvTraitEntry::GetYieldChange
_TEXT	ENDS
EXTRN	__imp_?c_str@?$basic_string@DU?$char_traits@D@std@@V?$allocator@D@2@@std@@QBEPBDXZ:PROC
; Function compile flags: /Ogtpy
; File c:\program files (x86)\microsoft visual studio 9.0\vc\include\stdexcept
;	COMDAT ?what@logic_error@std@@UBEPBDXZ
_TEXT	SEGMENT
?what@logic_error@std@@UBEPBDXZ PROC			; std::logic_error::what, COMDAT
; _this$ = ecx

; 35   : 		return (_Str.c_str());

	add	ecx, 12					; 0000000cH
	jmp	DWORD PTR __imp_?c_str@?$basic_string@DU?$char_traits@D@std@@V?$allocator@D@2@@std@@QBEPBDXZ
?what@logic_error@std@@UBEPBDXZ ENDP			; std::logic_error::what
_TEXT	ENDS
PUBLIC	?GetYieldChangeStrategicResources@CvTraitEntry@@QBEHH@Z ; CvTraitEntry::GetYieldChangeStrategicResources
; Function compile flags: /Ogtpy
; File c:\users\enormousapplepie\documents\github\lekmod\lekmod_dll\cvgamecoredll_expansion2\cvtraitclasses.cpp
;	COMDAT ?GetYieldChangeStrategicResources@CvTraitEntry@@QBEHH@Z
_TEXT	SEGMENT
_i$ = 8							; size = 4
?GetYieldChangeStrategicResources@CvTraitEntry@@QBEHH@Z PROC ; CvTraitEntry::GetYieldChangeStrategicResources, COMDAT
; _this$ = ecx

; 873  : 	return m_paiYieldChangeStrategicResources ? m_paiYieldChangeStrategicResources[i] : -1;

	mov	eax, DWORD PTR [ecx+644]
	test	eax, eax
	je	SHORT $LN3@GetYieldCh@2
	mov	ecx, DWORD PTR _i$[esp-4]
	mov	eax, DWORD PTR [eax+ecx*4]

; 874  : }

	ret	4
$LN3@GetYieldCh@2:

; 873  : 	return m_paiYieldChangeStrategicResources ? m_paiYieldChangeStrategicResources[i] : -1;

	or	eax, -1

; 874  : }

	ret	4
?GetYieldChangeStrategicResources@CvTraitEntry@@QBEHH@Z ENDP ; CvTraitEntry::GetYieldChangeStrategicResources
; Function compile flags: /Ogtpy
_TEXT	ENDS
;	COMDAT ??_Glogic_error@std@@UAEPAXI@Z
_TEXT	SEGMENT
___flags$ = 8						; size = 4
??_Glogic_error@std@@UAEPAXI@Z PROC			; std::logic_error::`scalar deleting destructor', COMDAT
; _this$ = ecx
	push	esi
	mov	esi, ecx
	lea	ecx, DWORD PTR [esi+12]
	mov	DWORD PTR [esi], OFFSET ??_7logic_error@std@@6B@
	call	DWORD PTR __imp_??1?$basic_string@DU?$char_traits@D@std@@V?$allocator@D@2@@std@@QAE@XZ
	mov	ecx, esi
	call	DWORD PTR __imp_??1exception@std@@UAE@XZ
	test	BYTE PTR ___flags$[esp], 1
	je	SHORT $LN6@scalar@2
	push	esi
	call	??3@YAXPAX@Z				; operator delete
	add	esp, 4
$LN6@scalar@2:
	mov	eax, esi
	pop	esi
	ret	4
??_Glogic_error@std@@UAEPAXI@Z ENDP			; std::logic_error::`scalar deleting destructor'
_TEXT	ENDS
PUBLIC	?GetYieldChangeLuxuryResources@CvTraitEntry@@QBEHH@Z ; CvTraitEntry::GetYieldChangeLuxuryResources
; Function compile flags: /Ogtpy
;	COMDAT ?GetYieldChangeLuxuryResources@CvTraitEntry@@QBEHH@Z
_TEXT	SEGMENT
_i$ = 8							; size = 4
?GetYieldChangeLuxuryResources@CvTraitEntry@@QBEHH@Z PROC ; CvTraitEntry::GetYieldChangeLuxuryResources, COMDAT
; _this$ = ecx

; 880  : 	return m_paiYieldChangeLuxuryResources ? m_paiYieldChangeLuxuryResources[i] : -1;

	mov	eax, DWORD PTR [ecx+648]
	test	eax, eax
	je	SHORT $LN3@GetYieldCh@3
	mov	ecx, DWORD PTR _i$[esp-4]
	mov	eax, DWORD PTR [eax+ecx*4]

; 881  : }

	ret	4
$LN3@GetYieldCh@3:

; 880  : 	return m_paiYieldChangeLuxuryResources ? m_paiYieldChangeLuxuryResources[i] : -1;

	or	eax, -1

; 881  : }

	ret	4
?GetYieldChangeLuxuryResources@CvTraitEntry@@QBEHH@Z ENDP ; CvTraitEntry::GetYieldChangeLuxuryResources
_TEXT	ENDS
PUBLIC	?GetYieldChangeNaturalWonder@CvTraitEntry@@QBEHH@Z ; CvTraitEntry::GetYieldChangeNaturalWonder
; Function compile flags: /Ogtpy
;	COMDAT ?GetYieldChangeNaturalWonder@CvTraitEntry@@QBEHH@Z
_TEXT	SEGMENT
_i$ = 8							; size = 4
?GetYieldChangeNaturalWonder@CvTraitEntry@@QBEHH@Z PROC	; CvTraitEntry::GetYieldChangeNaturalWonder, COMDAT
; _this$ = ecx

; 887  : 	return m_paiYieldChangeNaturalWonder ? m_paiYieldChangeNaturalWonder[i] : -1;

	mov	eax, DWORD PTR [ecx+652]
	test	eax, eax
	je	SHORT $LN3@GetYieldCh@4
	mov	ecx, DWORD PTR _i$[esp-4]
	mov	eax, DWORD PTR [eax+ecx*4]

; 888  : }

	ret	4
$LN3@GetYieldCh@4:

; 887  : 	return m_paiYieldChangeNaturalWonder ? m_paiYieldChangeNaturalWonder[i] : -1;

	or	eax, -1

; 888  : }

	ret	4
?GetYieldChangeNaturalWonder@CvTraitEntry@@QBEHH@Z ENDP	; CvTraitEntry::GetYieldChangeNaturalWonder
_TEXT	ENDS
PUBLIC	?GetYieldChangePerTradePartner@CvTraitEntry@@QBEHH@Z ; CvTraitEntry::GetYieldChangePerTradePartner
; Function compile flags: /Ogtpy
;	COMDAT ?GetYieldChangePerTradePartner@CvTraitEntry@@QBEHH@Z
_TEXT	SEGMENT
_i$ = 8							; size = 4
?GetYieldChangePerTradePartner@CvTraitEntry@@QBEHH@Z PROC ; CvTraitEntry::GetYieldChangePerTradePartner, COMDAT
; _this$ = ecx

; 893  : 	return m_paiYieldChangePerTradePartner ? m_paiYieldChangePerTradePartner[i] : -1;

	mov	eax, DWORD PTR [ecx+656]
	test	eax, eax
	je	SHORT $LN3@GetYieldCh@5
	mov	ecx, DWORD PTR _i$[esp-4]
	mov	eax, DWORD PTR [eax+ecx*4]

; 894  : }

	ret	4
$LN3@GetYieldCh@5:

; 893  : 	return m_paiYieldChangePerTradePartner ? m_paiYieldChangePerTradePartner[i] : -1;

	or	eax, -1

; 894  : }

	ret	4
?GetYieldChangePerTradePartner@CvTraitEntry@@QBEHH@Z ENDP ; CvTraitEntry::GetYieldChangePerTradePartner
_TEXT	ENDS
PUBLIC	?GetYieldChangeIncomingTradeRoute@CvTraitEntry@@QBEHH@Z ; CvTraitEntry::GetYieldChangeIncomingTradeRoute
; Function compile flags: /Ogtpy
;	COMDAT ?GetYieldChangeIncomingTradeRoute@CvTraitEntry@@QBEHH@Z
_TEXT	SEGMENT
_i$ = 8							; size = 4
?GetYieldChangeIncomingTradeRoute@CvTraitEntry@@QBEHH@Z PROC ; CvTraitEntry::GetYieldChangeIncomingTradeRoute, COMDAT
; _this$ = ecx

; 899  : 	return m_paiYieldChangeIncomingTradeRoute ? m_paiYieldChangeIncomingTradeRoute[i] : -1;

	mov	eax, DWORD PTR [ecx+660]
	test	eax, eax
	je	SHORT $LN3@GetYieldCh@6
	mov	ecx, DWORD PTR _i$[esp-4]
	mov	eax, DWORD PTR [eax+ecx*4]

; 900  : }

	ret	4
$LN3@GetYieldCh@6:

; 899  : 	return m_paiYieldChangeIncomingTradeRoute ? m_paiYieldChangeIncomingTradeRoute[i] : -1;

	or	eax, -1

; 900  : }

	ret	4
?GetYieldChangeIncomingTradeRoute@CvTraitEntry@@QBEHH@Z ENDP ; CvTraitEntry::GetYieldChangeIncomingTradeRoute
_TEXT	ENDS
PUBLIC	?GetYieldModifier@CvTraitEntry@@QBEHH@Z		; CvTraitEntry::GetYieldModifier
; Function compile flags: /Ogtpy
;	COMDAT ?GetYieldModifier@CvTraitEntry@@QBEHH@Z
_TEXT	SEGMENT
_i$ = 8							; size = 4
?GetYieldModifier@CvTraitEntry@@QBEHH@Z PROC		; CvTraitEntry::GetYieldModifier, COMDAT
; _this$ = ecx

; 905  : 	return m_paiYieldModifier ? m_paiYieldModifier[i] : -1;

	mov	eax, DWORD PTR [ecx+664]
	test	eax, eax
	je	SHORT $LN3@GetYieldMo
	mov	ecx, DWORD PTR _i$[esp-4]
	mov	eax, DWORD PTR [eax+ecx*4]

; 906  : }

	ret	4
$LN3@GetYieldMo:

; 905  : 	return m_paiYieldModifier ? m_paiYieldModifier[i] : -1;

	or	eax, -1

; 906  : }

	ret	4
?GetYieldModifier@CvTraitEntry@@QBEHH@Z ENDP		; CvTraitEntry::GetYieldModifier
_TEXT	ENDS
PUBLIC	?GetStrategicResourceQuantityModifier@CvTraitEntry@@QBEHH@Z ; CvTraitEntry::GetStrategicResourceQuantityModifier
; Function compile flags: /Ogtpy
;	COMDAT ?GetStrategicResourceQuantityModifier@CvTraitEntry@@QBEHH@Z
_TEXT	SEGMENT
_i$ = 8							; size = 4
?GetStrategicResourceQuantityModifier@CvTraitEntry@@QBEHH@Z PROC ; CvTraitEntry::GetStrategicResourceQuantityModifier, COMDAT
; _this$ = ecx

; 911  : 	return m_piStrategicResourceQuantityModifier ? m_piStrategicResourceQuantityModifier[i] : -1;

	mov	eax, DWORD PTR [ecx+668]
	test	eax, eax
	je	SHORT $LN3@GetStrateg
	mov	ecx, DWORD PTR _i$[esp-4]
	mov	eax, DWORD PTR [eax+ecx*4]

; 912  : }

	ret	4
$LN3@GetStrateg:

; 911  : 	return m_piStrategicResourceQuantityModifier ? m_piStrategicResourceQuantityModifier[i] : -1;

	or	eax, -1

; 912  : }

	ret	4
?GetStrategicResourceQuantityModifier@CvTraitEntry@@QBEHH@Z ENDP ; CvTraitEntry::GetStrategicResourceQuantityModifier
_TEXT	ENDS
PUBLIC	?GetResourceQuantityModifier@CvTraitEntry@@QBEHH@Z ; CvTraitEntry::GetResourceQuantityModifier
; Function compile flags: /Ogtpy
;	COMDAT ?GetResourceQuantityModifier@CvTraitEntry@@QBEHH@Z
_TEXT	SEGMENT
_i$ = 8							; size = 4
?GetResourceQuantityModifier@CvTraitEntry@@QBEHH@Z PROC	; CvTraitEntry::GetResourceQuantityModifier, COMDAT
; _this$ = ecx

; 917  : 	CvAssertMsg(i < GC.getNumResourceInfos(), "Index out of bounds");
; 918  : 	CvAssertMsg(i > -1, "Index out of bounds");
; 919  : 	return m_piResourceQuantityModifiers ? m_piResourceQuantityModifiers[i] : -1;

	mov	eax, DWORD PTR [ecx+672]
	test	eax, eax
	je	SHORT $LN3@GetResourc
	mov	ecx, DWORD PTR _i$[esp-4]
	mov	eax, DWORD PTR [eax+ecx*4]

; 920  : }

	ret	4
$LN3@GetResourc:

; 917  : 	CvAssertMsg(i < GC.getNumResourceInfos(), "Index out of bounds");
; 918  : 	CvAssertMsg(i > -1, "Index out of bounds");
; 919  : 	return m_piResourceQuantityModifiers ? m_piResourceQuantityModifiers[i] : -1;

	or	eax, -1

; 920  : }

	ret	4
?GetResourceQuantityModifier@CvTraitEntry@@QBEHH@Z ENDP	; CvTraitEntry::GetResourceQuantityModifier
_TEXT	ENDS
PUBLIC	??_7length_error@std@@6B@			; std::length_error::`vftable'
PUBLIC	??0length_error@std@@QAE@ABV?$basic_string@DU?$char_traits@D@std@@V?$allocator@D@2@@1@@Z ; std::length_error::length_error
PUBLIC	??_R4length_error@std@@6B@			; std::length_error::`RTTI Complete Object Locator'
PUBLIC	??_R0?AVlength_error@std@@@8			; std::length_error `RTTI Type Descriptor'
PUBLIC	??_R3length_error@std@@8			; std::length_error::`RTTI Class Hierarchy Descriptor'
PUBLIC	??_R2length_error@std@@8			; std::length_error::`RTTI Base Class Array'
PUBLIC	??_R1A@?0A@EA@length_error@std@@8		; std::length_error::`RTTI Base Class Descriptor at (0,-1,0,64)'
EXTRN	??_Elength_error@std@@UAEPAXI@Z:PROC		; std::length_error::`vector deleting destructor'
;	COMDAT ??_R1A@?0A@EA@length_error@std@@8
; File c:\program files (x86)\microsoft visual studio 9.0\vc\include\stdexcept
rdata$r	SEGMENT
??_R1A@?0A@EA@length_error@std@@8 DD FLAT:??_R0?AVlength_error@std@@@8 ; std::length_error::`RTTI Base Class Descriptor at (0,-1,0,64)'
	DD	02H
	DD	00H
	DD	0ffffffffH
	DD	00H
	DD	040H
	DD	FLAT:??_R3length_error@std@@8
rdata$r	ENDS
;	COMDAT ??_R2length_error@std@@8
rdata$r	SEGMENT
??_R2length_error@std@@8 DD FLAT:??_R1A@?0A@EA@length_error@std@@8 ; std::length_error::`RTTI Base Class Array'
	DD	FLAT:??_R1A@?0A@EA@logic_error@std@@8
	DD	FLAT:??_R1A@?0A@EA@exception@std@@8
rdata$r	ENDS
;	COMDAT ??_R3length_error@std@@8
rdata$r	SEGMENT
??_R3length_error@std@@8 DD 00H				; std::length_error::`RTTI Class Hierarchy Descriptor'
	DD	00H
	DD	03H
	DD	FLAT:??_R2length_error@std@@8
rdata$r	ENDS
;	COMDAT ??_R0?AVlength_error@std@@@8
_DATA	SEGMENT
??_R0?AVlength_error@std@@@8 DD FLAT:??_7type_info@@6B@	; std::length_error `RTTI Type Descriptor'
	DD	00H
	DB	'.?AVlength_error@std@@', 00H
_DATA	ENDS
;	COMDAT ??_R4length_error@std@@6B@
rdata$r	SEGMENT
??_R4length_error@std@@6B@ DD 00H			; std::length_error::`RTTI Complete Object Locator'
	DD	00H
	DD	00H
	DD	FLAT:??_R0?AVlength_error@std@@@8
	DD	FLAT:??_R3length_error@std@@8
rdata$r	ENDS
;	COMDAT ??_7length_error@std@@6B@
CONST	SEGMENT
??_7length_error@std@@6B@ DD FLAT:??_R4length_error@std@@6B@ ; std::length_error::`vftable'
	DD	FLAT:??_Elength_error@std@@UAEPAXI@Z
	DD	FLAT:?what@logic_error@std@@UBEPBDXZ
; Function compile flags: /Ogtpy
CONST	ENDS
;	COMDAT ??0length_error@std@@QAE@ABV?$basic_string@DU?$char_traits@D@std@@V?$allocator@D@2@@1@@Z
_TEXT	SEGMENT
__Message$ = 8						; size = 4
??0length_error@std@@QAE@ABV?$basic_string@DU?$char_traits@D@std@@V?$allocator@D@2@@1@@Z PROC ; std::length_error::length_error, COMDAT
; _this$ = ecx

; 105  : 		{	// construct from message string

	mov	eax, DWORD PTR __Message$[esp-4]
	push	esi
	push	eax
	mov	esi, ecx
	call	??0logic_error@std@@QAE@ABV?$basic_string@DU?$char_traits@D@std@@V?$allocator@D@2@@1@@Z ; std::logic_error::logic_error
	mov	DWORD PTR [esi], OFFSET ??_7length_error@std@@6B@

; 106  : 		}

	mov	eax, esi
	pop	esi
	ret	4
??0length_error@std@@QAE@ABV?$basic_string@DU?$char_traits@D@std@@V?$allocator@D@2@@1@@Z ENDP ; std::length_error::length_error
_TEXT	ENDS
PUBLIC	?GetImprovementYieldChanges@CvTraitEntry@@QBEHW4ImprovementTypes@@W4YieldTypes@@@Z ; CvTraitEntry::GetImprovementYieldChanges
; Function compile flags: /Ogtpy
; File c:\users\enormousapplepie\documents\github\lekmod\lekmod_dll\cvgamecoredll_expansion2\cvtraitclasses.cpp
;	COMDAT ?GetImprovementYieldChanges@CvTraitEntry@@QBEHW4ImprovementTypes@@W4YieldTypes@@@Z
_TEXT	SEGMENT
_eIndex1$ = 8						; size = 4
_eIndex2$ = 12						; size = 4
?GetImprovementYieldChanges@CvTraitEntry@@QBEHW4ImprovementTypes@@W4YieldTypes@@@Z PROC ; CvTraitEntry::GetImprovementYieldChanges, COMDAT
; _this$ = ecx

; 925  : 	CvAssertMsg(eIndex1 < GC.getNumImprovementInfos(), "Index out of bounds");
; 926  : 	CvAssertMsg(eIndex1 > -1, "Index out of bounds");
; 927  : 	CvAssertMsg(eIndex2 < NUM_YIELD_TYPES, "Index out of bounds");
; 928  : 	CvAssertMsg(eIndex2 > -1, "Index out of bounds");
; 929  : #ifdef AUI_DATABASE_UTILITY_PROPER_2D_ALLOCATION_AND_DESTRUCTION
; 930  : 	return m_ppiImprovementYieldChanges.first ? m_ppiImprovementYieldChanges.first[eIndex1][eIndex2] : 0;
; 931  : #else
; 932  : 	return m_ppiImprovementYieldChanges ? m_ppiImprovementYieldChanges[eIndex1][eIndex2] : 0;

	mov	eax, DWORD PTR [ecx+684]
	test	eax, eax
	je	SHORT $LN3@GetImprove
	mov	ecx, DWORD PTR _eIndex1$[esp-4]
	mov	edx, DWORD PTR [eax+ecx*4]
	mov	eax, DWORD PTR _eIndex2$[esp-4]
	mov	eax, DWORD PTR [edx+eax*4]

; 933  : #endif
; 934  : }

	ret	8
$LN3@GetImprove:

; 925  : 	CvAssertMsg(eIndex1 < GC.getNumImprovementInfos(), "Index out of bounds");
; 926  : 	CvAssertMsg(eIndex1 > -1, "Index out of bounds");
; 927  : 	CvAssertMsg(eIndex2 < NUM_YIELD_TYPES, "Index out of bounds");
; 928  : 	CvAssertMsg(eIndex2 > -1, "Index out of bounds");
; 929  : #ifdef AUI_DATABASE_UTILITY_PROPER_2D_ALLOCATION_AND_DESTRUCTION
; 930  : 	return m_ppiImprovementYieldChanges.first ? m_ppiImprovementYieldChanges.first[eIndex1][eIndex2] : 0;
; 931  : #else
; 932  : 	return m_ppiImprovementYieldChanges ? m_ppiImprovementYieldChanges[eIndex1][eIndex2] : 0;

	xor	eax, eax

; 933  : #endif
; 934  : }

	ret	8
?GetImprovementYieldChanges@CvTraitEntry@@QBEHW4ImprovementTypes@@W4YieldTypes@@@Z ENDP ; CvTraitEntry::GetImprovementYieldChanges
_TEXT	ENDS
PUBLIC	?GetSpecialistYieldChanges@CvTraitEntry@@QBEHW4SpecialistTypes@@W4YieldTypes@@@Z ; CvTraitEntry::GetSpecialistYieldChanges
; Function compile flags: /Ogtpy
;	COMDAT ?GetSpecialistYieldChanges@CvTraitEntry@@QBEHW4SpecialistTypes@@W4YieldTypes@@@Z
_TEXT	SEGMENT
_eIndex1$ = 8						; size = 4
_eIndex2$ = 12						; size = 4
?GetSpecialistYieldChanges@CvTraitEntry@@QBEHW4SpecialistTypes@@W4YieldTypes@@@Z PROC ; CvTraitEntry::GetSpecialistYieldChanges, COMDAT
; _this$ = ecx

; 939  : 	CvAssertMsg(eIndex1 < GC.getNumSpecialistInfos(), "Index out of bounds");
; 940  : 	CvAssertMsg(eIndex1 > -1, "Index out of bounds");
; 941  : 	CvAssertMsg(eIndex2 < NUM_YIELD_TYPES, "Index out of bounds");
; 942  : 	CvAssertMsg(eIndex2 > -1, "Index out of bounds");
; 943  : #ifdef AUI_DATABASE_UTILITY_PROPER_2D_ALLOCATION_AND_DESTRUCTION
; 944  : 	return m_ppiSpecialistYieldChanges.first ? m_ppiSpecialistYieldChanges.first[eIndex1][eIndex2] : 0;
; 945  : #else
; 946  : 	return m_ppiSpecialistYieldChanges ? m_ppiSpecialistYieldChanges[eIndex1][eIndex2] : 0;

	mov	eax, DWORD PTR [ecx+688]
	test	eax, eax
	je	SHORT $LN3@GetSpecial
	mov	ecx, DWORD PTR _eIndex1$[esp-4]
	mov	edx, DWORD PTR [eax+ecx*4]
	mov	eax, DWORD PTR _eIndex2$[esp-4]
	mov	eax, DWORD PTR [edx+eax*4]

; 947  : #endif
; 948  : }

	ret	8
$LN3@GetSpecial:

; 939  : 	CvAssertMsg(eIndex1 < GC.getNumSpecialistInfos(), "Index out of bounds");
; 940  : 	CvAssertMsg(eIndex1 > -1, "Index out of bounds");
; 941  : 	CvAssertMsg(eIndex2 < NUM_YIELD_TYPES, "Index out of bounds");
; 942  : 	CvAssertMsg(eIndex2 > -1, "Index out of bounds");
; 943  : #ifdef AUI_DATABASE_UTILITY_PROPER_2D_ALLOCATION_AND_DESTRUCTION
; 944  : 	return m_ppiSpecialistYieldChanges.first ? m_ppiSpecialistYieldChanges.first[eIndex1][eIndex2] : 0;
; 945  : #else
; 946  : 	return m_ppiSpecialistYieldChanges ? m_ppiSpecialistYieldChanges[eIndex1][eIndex2] : 0;

	xor	eax, eax

; 947  : #endif
; 948  : }

	ret	8
?GetSpecialistYieldChanges@CvTraitEntry@@QBEHW4SpecialistTypes@@W4YieldTypes@@@Z ENDP ; CvTraitEntry::GetSpecialistYieldChanges
_TEXT	ENDS
PUBLIC	??1length_error@std@@UAE@XZ			; std::length_error::~length_error
; Function compile flags: /Ogtpy
; File c:\program files (x86)\microsoft visual studio 9.0\vc\include\stdexcept
;	COMDAT ??1length_error@std@@UAE@XZ
_TEXT	SEGMENT
??1length_error@std@@UAE@XZ PROC			; std::length_error::~length_error, COMDAT
; _this$ = ecx

; 109  : 		{	// destroy the object

	push	esi
	mov	esi, ecx

; 110  : 		}

	lea	ecx, DWORD PTR [esi+12]
	mov	DWORD PTR [esi], OFFSET ??_7logic_error@std@@6B@
	call	DWORD PTR __imp_??1?$basic_string@DU?$char_traits@D@std@@V?$allocator@D@2@@std@@QAE@XZ
	mov	ecx, esi
	pop	esi
	jmp	DWORD PTR __imp_??1exception@std@@UAE@XZ
??1length_error@std@@UAE@XZ ENDP			; std::length_error::~length_error
; Function compile flags: /Ogtpy
_TEXT	ENDS
;	COMDAT ??_Glength_error@std@@UAEPAXI@Z
_TEXT	SEGMENT
___flags$ = 8						; size = 4
??_Glength_error@std@@UAEPAXI@Z PROC			; std::length_error::`scalar deleting destructor', COMDAT
; _this$ = ecx
	push	esi
	mov	esi, ecx
	lea	ecx, DWORD PTR [esi+12]
	mov	DWORD PTR [esi], OFFSET ??_7logic_error@std@@6B@
	call	DWORD PTR __imp_??1?$basic_string@DU?$char_traits@D@std@@V?$allocator@D@2@@std@@QAE@XZ
	mov	ecx, esi
	call	DWORD PTR __imp_??1exception@std@@UAE@XZ
	test	BYTE PTR ___flags$[esp], 1
	je	SHORT $LN8@scalar@3
	push	esi
	call	??3@YAXPAX@Z				; operator delete
	add	esp, 4
$LN8@scalar@3:
	mov	eax, esi
	pop	esi
	ret	4
??_Glength_error@std@@UAEPAXI@Z ENDP			; std::length_error::`scalar deleting destructor'
_TEXT	ENDS
PUBLIC	?GetUnimprovedFeatureYieldChanges@CvTraitEntry@@QBEHW4FeatureTypes@@W4YieldTypes@@@Z ; CvTraitEntry::GetUnimprovedFeatureYieldChanges
; Function compile flags: /Ogtpy
; File c:\users\enormousapplepie\documents\github\lekmod\lekmod_dll\cvgamecoredll_expansion2\cvtraitclasses.cpp
;	COMDAT ?GetUnimprovedFeatureYieldChanges@CvTraitEntry@@QBEHW4FeatureTypes@@W4YieldTypes@@@Z
_TEXT	SEGMENT
_eIndex1$ = 8						; size = 4
_eIndex2$ = 12						; size = 4
?GetUnimprovedFeatureYieldChanges@CvTraitEntry@@QBEHW4FeatureTypes@@W4YieldTypes@@@Z PROC ; CvTraitEntry::GetUnimprovedFeatureYieldChanges, COMDAT
; _this$ = ecx

; 967  : 	CvAssertMsg(eIndex1 < GC.getNumFeatureInfos(), "Index out of bounds");
; 968  : 	CvAssertMsg(eIndex1 > -1, "Index out of bounds");
; 969  : 	CvAssertMsg(eIndex2 < NUM_YIELD_TYPES, "Index out of bounds");
; 970  : 	CvAssertMsg(eIndex2 > -1, "Index out of bounds");
; 971  : #ifdef AUI_DATABASE_UTILITY_PROPER_2D_ALLOCATION_AND_DESTRUCTION
; 972  : 	return m_ppiUnimprovedFeatureYieldChanges.first ? m_ppiUnimprovedFeatureYieldChanges.first[eIndex1][eIndex2] : 0;
; 973  : #else
; 974  : 	return m_ppiUnimprovedFeatureYieldChanges ? m_ppiUnimprovedFeatureYieldChanges[eIndex1][eIndex2] : 0;

	mov	eax, DWORD PTR [ecx+692]
	test	eax, eax
	je	SHORT $LN3@GetUnimpro
	mov	ecx, DWORD PTR _eIndex1$[esp-4]
	mov	edx, DWORD PTR [eax+ecx*4]
	mov	eax, DWORD PTR _eIndex2$[esp-4]
	mov	eax, DWORD PTR [edx+eax*4]

; 975  : #endif
; 976  : }

	ret	8
$LN3@GetUnimpro:

; 967  : 	CvAssertMsg(eIndex1 < GC.getNumFeatureInfos(), "Index out of bounds");
; 968  : 	CvAssertMsg(eIndex1 > -1, "Index out of bounds");
; 969  : 	CvAssertMsg(eIndex2 < NUM_YIELD_TYPES, "Index out of bounds");
; 970  : 	CvAssertMsg(eIndex2 > -1, "Index out of bounds");
; 971  : #ifdef AUI_DATABASE_UTILITY_PROPER_2D_ALLOCATION_AND_DESTRUCTION
; 972  : 	return m_ppiUnimprovedFeatureYieldChanges.first ? m_ppiUnimprovedFeatureYieldChanges.first[eIndex1][eIndex2] : 0;
; 973  : #else
; 974  : 	return m_ppiUnimprovedFeatureYieldChanges ? m_ppiUnimprovedFeatureYieldChanges[eIndex1][eIndex2] : 0;

	xor	eax, eax

; 975  : #endif
; 976  : }

	ret	8
?GetUnimprovedFeatureYieldChanges@CvTraitEntry@@QBEHW4FeatureTypes@@W4YieldTypes@@@Z ENDP ; CvTraitEntry::GetUnimprovedFeatureYieldChanges
_TEXT	ENDS
PUBLIC	??_7out_of_range@std@@6B@			; std::out_of_range::`vftable'
PUBLIC	??0out_of_range@std@@QAE@ABV?$basic_string@DU?$char_traits@D@std@@V?$allocator@D@2@@1@@Z ; std::out_of_range::out_of_range
PUBLIC	??_R4out_of_range@std@@6B@			; std::out_of_range::`RTTI Complete Object Locator'
PUBLIC	??_R0?AVout_of_range@std@@@8			; std::out_of_range `RTTI Type Descriptor'
PUBLIC	??_R3out_of_range@std@@8			; std::out_of_range::`RTTI Class Hierarchy Descriptor'
PUBLIC	??_R2out_of_range@std@@8			; std::out_of_range::`RTTI Base Class Array'
PUBLIC	??_R1A@?0A@EA@out_of_range@std@@8		; std::out_of_range::`RTTI Base Class Descriptor at (0,-1,0,64)'
EXTRN	??_Eout_of_range@std@@UAEPAXI@Z:PROC		; std::out_of_range::`vector deleting destructor'
;	COMDAT ??_R1A@?0A@EA@out_of_range@std@@8
; File c:\program files (x86)\microsoft visual studio 9.0\vc\include\stdexcept
rdata$r	SEGMENT
??_R1A@?0A@EA@out_of_range@std@@8 DD FLAT:??_R0?AVout_of_range@std@@@8 ; std::out_of_range::`RTTI Base Class Descriptor at (0,-1,0,64)'
	DD	02H
	DD	00H
	DD	0ffffffffH
	DD	00H
	DD	040H
	DD	FLAT:??_R3out_of_range@std@@8
rdata$r	ENDS
;	COMDAT ??_R2out_of_range@std@@8
rdata$r	SEGMENT
??_R2out_of_range@std@@8 DD FLAT:??_R1A@?0A@EA@out_of_range@std@@8 ; std::out_of_range::`RTTI Base Class Array'
	DD	FLAT:??_R1A@?0A@EA@logic_error@std@@8
	DD	FLAT:??_R1A@?0A@EA@exception@std@@8
rdata$r	ENDS
;	COMDAT ??_R3out_of_range@std@@8
rdata$r	SEGMENT
??_R3out_of_range@std@@8 DD 00H				; std::out_of_range::`RTTI Class Hierarchy Descriptor'
	DD	00H
	DD	03H
	DD	FLAT:??_R2out_of_range@std@@8
rdata$r	ENDS
;	COMDAT ??_R0?AVout_of_range@std@@@8
_DATA	SEGMENT
??_R0?AVout_of_range@std@@@8 DD FLAT:??_7type_info@@6B@	; std::out_of_range `RTTI Type Descriptor'
	DD	00H
	DB	'.?AVout_of_range@std@@', 00H
_DATA	ENDS
;	COMDAT ??_R4out_of_range@std@@6B@
rdata$r	SEGMENT
??_R4out_of_range@std@@6B@ DD 00H			; std::out_of_range::`RTTI Complete Object Locator'
	DD	00H
	DD	00H
	DD	FLAT:??_R0?AVout_of_range@std@@@8
	DD	FLAT:??_R3out_of_range@std@@8
rdata$r	ENDS
;	COMDAT ??_7out_of_range@std@@6B@
CONST	SEGMENT
??_7out_of_range@std@@6B@ DD FLAT:??_R4out_of_range@std@@6B@ ; std::out_of_range::`vftable'
	DD	FLAT:??_Eout_of_range@std@@UAEPAXI@Z
	DD	FLAT:?what@logic_error@std@@UBEPBDXZ
; Function compile flags: /Ogtpy
CONST	ENDS
;	COMDAT ??0out_of_range@std@@QAE@ABV?$basic_string@DU?$char_traits@D@std@@V?$allocator@D@2@@1@@Z
_TEXT	SEGMENT
__Message$ = 8						; size = 4
??0out_of_range@std@@QAE@ABV?$basic_string@DU?$char_traits@D@std@@V?$allocator@D@2@@1@@Z PROC ; std::out_of_range::out_of_range, COMDAT
; _this$ = ecx

; 129  : 		{	// construct from message string

	mov	eax, DWORD PTR __Message$[esp-4]
	push	esi
	push	eax
	mov	esi, ecx
	call	??0logic_error@std@@QAE@ABV?$basic_string@DU?$char_traits@D@std@@V?$allocator@D@2@@1@@Z ; std::logic_error::logic_error
	mov	DWORD PTR [esi], OFFSET ??_7out_of_range@std@@6B@

; 130  : 		}

	mov	eax, esi
	pop	esi
	ret	4
??0out_of_range@std@@QAE@ABV?$basic_string@DU?$char_traits@D@std@@V?$allocator@D@2@@1@@Z ENDP ; std::out_of_range::out_of_range
_TEXT	ENDS
PUBLIC	?GetMovesChangeUnitCombat@CvTraitEntry@@QBEHH@Z	; CvTraitEntry::GetMovesChangeUnitCombat
; Function compile flags: /Ogtpy
; File c:\users\enormousapplepie\documents\github\lekmod\lekmod_dll\cvgamecoredll_expansion2\cvtraitclasses.cpp
;	COMDAT ?GetMovesChangeUnitCombat@CvTraitEntry@@QBEHH@Z
_TEXT	SEGMENT
_unitCombatID$ = 8					; size = 4
?GetMovesChangeUnitCombat@CvTraitEntry@@QBEHH@Z PROC	; CvTraitEntry::GetMovesChangeUnitCombat, COMDAT
; _this$ = ecx

; 981  : 	CvAssertMsg((unitCombatID >= 0), "unitCombatID is less than zero");
; 982  : 	CvAssertMsg((unitCombatID < GC.getNumUnitCombatClassInfos()), "unitCombatID exceeds number of combat classes");
; 983  : 
; 984  : 	return m_piMovesChangeUnitCombats[unitCombatID];

	mov	eax, DWORD PTR [ecx+676]
	mov	ecx, DWORD PTR _unitCombatID$[esp-4]
	mov	eax, DWORD PTR [eax+ecx*4]

; 985  : }

	ret	4
?GetMovesChangeUnitCombat@CvTraitEntry@@QBEHH@Z ENDP	; CvTraitEntry::GetMovesChangeUnitCombat
_TEXT	ENDS
PUBLIC	?GetMaintenanceModifierUnitCombat@CvTraitEntry@@QBEHH@Z ; CvTraitEntry::GetMaintenanceModifierUnitCombat
; Function compile flags: /Ogtpy
;	COMDAT ?GetMaintenanceModifierUnitCombat@CvTraitEntry@@QBEHH@Z
_TEXT	SEGMENT
_unitCombatID$ = 8					; size = 4
?GetMaintenanceModifierUnitCombat@CvTraitEntry@@QBEHH@Z PROC ; CvTraitEntry::GetMaintenanceModifierUnitCombat, COMDAT
; _this$ = ecx

; 990  : 	CvAssertMsg((unitCombatID >= 0), "unitCombatID is less than zero");
; 991  : 	CvAssertMsg((unitCombatID < GC.getNumUnitCombatClassInfos()), "unitCombatID exceeds number of combat classes");
; 992  : 
; 993  : 	return m_piMaintenanceModifierUnitCombats[unitCombatID];

	mov	eax, DWORD PTR [ecx+680]
	mov	ecx, DWORD PTR _unitCombatID$[esp-4]
	mov	eax, DWORD PTR [eax+ecx*4]

; 994  : }

	ret	4
?GetMaintenanceModifierUnitCombat@CvTraitEntry@@QBEHH@Z ENDP ; CvTraitEntry::GetMaintenanceModifierUnitCombat
_TEXT	ENDS
PUBLIC	??1out_of_range@std@@UAE@XZ			; std::out_of_range::~out_of_range
; Function compile flags: /Ogtpy
; File c:\program files (x86)\microsoft visual studio 9.0\vc\include\stdexcept
;	COMDAT ??1out_of_range@std@@UAE@XZ
_TEXT	SEGMENT
??1out_of_range@std@@UAE@XZ PROC			; std::out_of_range::~out_of_range, COMDAT
; _this$ = ecx

; 133  : 		{	// destroy the object

	push	esi
	mov	esi, ecx

; 134  : 		}

	lea	ecx, DWORD PTR [esi+12]
	mov	DWORD PTR [esi], OFFSET ??_7logic_error@std@@6B@
	call	DWORD PTR __imp_??1?$basic_string@DU?$char_traits@D@std@@V?$allocator@D@2@@std@@QAE@XZ
	mov	ecx, esi
	pop	esi
	jmp	DWORD PTR __imp_??1exception@std@@UAE@XZ
??1out_of_range@std@@UAE@XZ ENDP			; std::out_of_range::~out_of_range
; Function compile flags: /Ogtpy
_TEXT	ENDS
;	COMDAT ??_Gout_of_range@std@@UAEPAXI@Z
_TEXT	SEGMENT
___flags$ = 8						; size = 4
??_Gout_of_range@std@@UAEPAXI@Z PROC			; std::out_of_range::`scalar deleting destructor', COMDAT
; _this$ = ecx
	push	esi
	mov	esi, ecx
	lea	ecx, DWORD PTR [esi+12]
	mov	DWORD PTR [esi], OFFSET ??_7logic_error@std@@6B@
	call	DWORD PTR __imp_??1?$basic_string@DU?$char_traits@D@std@@V?$allocator@D@2@@std@@QAE@XZ
	mov	ecx, esi
	call	DWORD PTR __imp_??1exception@std@@UAE@XZ
	test	BYTE PTR ___flags$[esp], 1
	je	SHORT $LN8@scalar@4
	push	esi
	call	??3@YAXPAX@Z				; operator delete
	add	esp, 4
$LN8@scalar@4:
	mov	eax, esi
	pop	esi
	ret	4
??_Gout_of_range@std@@UAEPAXI@Z ENDP			; std::out_of_range::`scalar deleting destructor'
_TEXT	ENDS
PUBLIC	?GetObsoleteTech@CvTraitEntry@@QBEHXZ		; CvTraitEntry::GetObsoleteTech
; Function compile flags: /Ogtpy
; File c:\users\enormousapplepie\documents\github\lekmod\lekmod_dll\cvgamecoredll_expansion2\cvtraitclasses.cpp
;	COMDAT ?GetObsoleteTech@CvTraitEntry@@QBEHXZ
_TEXT	SEGMENT
?GetObsoleteTech@CvTraitEntry@@QBEHXZ PROC		; CvTraitEntry::GetObsoleteTech, COMDAT
; _this$ = ecx

; 1005 : 	return m_iObsoleteTech;

	mov	eax, DWORD PTR [ecx+416]

; 1006 : }

	ret	0
?GetObsoleteTech@CvTraitEntry@@QBEHXZ ENDP		; CvTraitEntry::GetObsoleteTech
_TEXT	ENDS
PUBLIC	?GetPrereqTech@CvTraitEntry@@QBEHXZ		; CvTraitEntry::GetPrereqTech
; Function compile flags: /Ogtpy
;	COMDAT ?GetPrereqTech@CvTraitEntry@@QBEHXZ
_TEXT	SEGMENT
?GetPrereqTech@CvTraitEntry@@QBEHXZ PROC		; CvTraitEntry::GetPrereqTech, COMDAT
; _this$ = ecx

; 1011 : 	return m_iPrereqTech;

	mov	eax, DWORD PTR [ecx+420]

; 1012 : }

	ret	0
?GetPrereqTech@CvTraitEntry@@QBEHXZ ENDP		; CvTraitEntry::GetPrereqTech
_TEXT	ENDS
PUBLIC	?GetTraitEntries@CvTraitXMLEntries@@QAEAAV?$vector@PAVCvTraitEntry@@V?$allocator@PAVCvTraitEntry@@@std@@@std@@XZ ; CvTraitXMLEntries::GetTraitEntries
; Function compile flags: /Ogtpy
;	COMDAT ?GetTraitEntries@CvTraitXMLEntries@@QAEAAV?$vector@PAVCvTraitEntry@@V?$allocator@PAVCvTraitEntry@@@std@@@std@@XZ
_TEXT	SEGMENT
?GetTraitEntries@CvTraitXMLEntries@@QAEAAV?$vector@PAVCvTraitEntry@@V?$allocator@PAVCvTraitEntry@@@std@@@std@@XZ PROC ; CvTraitXMLEntries::GetTraitEntries, COMDAT
; _this$ = ecx

; 1635 : {

	mov	eax, ecx

; 1636 : 	return m_paTraitEntries;
; 1637 : }

	ret	0
?GetTraitEntries@CvTraitXMLEntries@@QAEAAV?$vector@PAVCvTraitEntry@@V?$allocator@PAVCvTraitEntry@@@std@@@std@@XZ ENDP ; CvTraitXMLEntries::GetTraitEntries
_TEXT	ENDS
PUBLIC	?GetCapitalBuildingDiscount@CvPlayerTraits@@QAEHW4BuildingTypes@@@Z ; CvPlayerTraits::GetCapitalBuildingDiscount
EXTRN	?GetNumBuilding@CvCityBuildings@@QBEHW4BuildingTypes@@@Z:PROC ; CvCityBuildings::GetNumBuilding
EXTRN	?GetCityBuildings@CvCity@@QBEPAVCvCityBuildings@@XZ:PROC ; CvCity::GetCityBuildings
EXTRN	?getCapitalCity@CvPlayer@@QAEPAVCvCity@@XZ:PROC	; CvPlayer::getCapitalCity
; Function compile flags: /Ogtpy
;	COMDAT ?GetCapitalBuildingDiscount@CvPlayerTraits@@QAEHW4BuildingTypes@@@Z
_TEXT	SEGMENT
_eBuilding$ = 8						; size = 4
?GetCapitalBuildingDiscount@CvPlayerTraits@@QAEHW4BuildingTypes@@@Z PROC ; CvPlayerTraits::GetCapitalBuildingDiscount, COMDAT
; _this$ = ecx

; 2704 : {

	push	esi
	mov	esi, ecx

; 2705 : 	if(m_iCapitalBuildingModifier > 0)

	cmp	DWORD PTR [esi+112], 0
	jle	SHORT $LN1@GetCapital

; 2706 : 	{
; 2707 : 		// Find this player's capital
; 2708 : 		CvCity* pCapital = m_pPlayer->getCapitalCity();

	mov	ecx, DWORD PTR [esi+4]
	call	?getCapitalCity@CvPlayer@@QAEPAVCvCity@@XZ ; CvPlayer::getCapitalCity

; 2709 : 		if(pCapital)

	test	eax, eax
	je	SHORT $LN1@GetCapital

; 2710 : 		{
; 2711 : 			if(pCapital->GetCityBuildings()->GetNumBuilding(eBuilding) > 0)

	mov	ecx, DWORD PTR _eBuilding$[esp]
	push	ecx
	mov	ecx, eax
	call	?GetCityBuildings@CvCity@@QBEPAVCvCityBuildings@@XZ ; CvCity::GetCityBuildings
	mov	ecx, eax
	call	?GetNumBuilding@CvCityBuildings@@QBEHW4BuildingTypes@@@Z ; CvCityBuildings::GetNumBuilding
	test	eax, eax
	jle	SHORT $LN1@GetCapital

; 2712 : 			{
; 2713 : 				return m_iCapitalBuildingModifier;

	mov	eax, DWORD PTR [esi+112]
	pop	esi

; 2718 : }

	ret	4
$LN1@GetCapital:

; 2714 : 			}
; 2715 : 		}
; 2716 : 	}
; 2717 : 	return 0;

	xor	eax, eax
	pop	esi

; 2718 : }

	ret	4
?GetCapitalBuildingDiscount@CvPlayerTraits@@QAEHW4BuildingTypes@@@Z ENDP ; CvPlayerTraits::GetCapitalBuildingDiscount
_TEXT	ENDS
PUBLIC	?IsAbleToCrossMountains@CvPlayerTraits@@QBE_NXZ	; CvPlayerTraits::IsAbleToCrossMountains
; Function compile flags: /Ogtpy
;	COMDAT ?IsAbleToCrossMountains@CvPlayerTraits@@QBE_NXZ
_TEXT	SEGMENT
?IsAbleToCrossMountains@CvPlayerTraits@@QBE_NXZ PROC	; CvPlayerTraits::IsAbleToCrossMountains, COMDAT
; _this$ = ecx

; 2793 : 	return (m_bCrossesMountainsAfterGreatGeneral /*&& m_pPlayer->getGreatGeneralsCreated() > 0*/); // NQMP GJS - new Carthage UA no longer needs Great General

	mov	al, BYTE PTR [ecx+349]

; 2794 : }

	ret	0
?IsAbleToCrossMountains@CvPlayerTraits@@QBE_NXZ ENDP	; CvPlayerTraits::IsAbleToCrossMountains
_TEXT	ENDS
PUBLIC	??A?$vector@HV?$allocator@H@std@@@std@@QAEAAHI@Z ; std::vector<int,std::allocator<int> >::operator[]
; Function compile flags: /Ogtpy
; File c:\program files (x86)\microsoft visual studio 9.0\vc\include\vector
;	COMDAT ??A?$vector@HV?$allocator@H@std@@@std@@QAEAAHI@Z
_TEXT	SEGMENT
__Pos$ = 8						; size = 4
??A?$vector@HV?$allocator@H@std@@@std@@QAEAAHI@Z PROC	; std::vector<int,std::allocator<int> >::operator[], COMDAT
; _this$ = ecx

; 775  : 
; 776  :  #if _HAS_ITERATOR_DEBUGGING
; 777  : 		if (size() <= _Pos)
; 778  : 			{
; 779  : 			_DEBUG_ERROR("vector subscript out of range");
; 780  : 			_SCL_SECURE_OUT_OF_RANGE;
; 781  : 			}
; 782  :  #endif /* _HAS_ITERATOR_DEBUGGING */
; 783  : 		_SCL_SECURE_VALIDATE_RANGE(_Pos < size());
; 784  : 
; 785  : 		return (*(_Myfirst + _Pos));

	mov	eax, DWORD PTR [ecx+4]
	mov	ecx, DWORD PTR __Pos$[esp-4]
	lea	eax, DWORD PTR [eax+ecx*4]

; 786  : 		}

	ret	4
??A?$vector@HV?$allocator@H@std@@@std@@QAEAAHI@Z ENDP	; std::vector<int,std::allocator<int> >::operator[]
_TEXT	ENDS
PUBLIC	??4?$_Container_base_aux_alloc_empty@V?$allocator@_N@std@@@std@@IAEAAV01@ABV01@@Z ; std::_Container_base_aux_alloc_empty<std::allocator<bool> >::operator=
; Function compile flags: /Ogtpy
; File c:\program files (x86)\microsoft visual studio 9.0\vc\include\xutility
;	COMDAT ??4?$_Container_base_aux_alloc_empty@V?$allocator@_N@std@@@std@@IAEAAV01@ABV01@@Z
_TEXT	SEGMENT
___formal$ = 8						; size = 4
??4?$_Container_base_aux_alloc_empty@V?$allocator@_N@std@@@std@@IAEAAV01@ABV01@@Z PROC ; std::_Container_base_aux_alloc_empty<std::allocator<bool> >::operator=, COMDAT
; _this$ = ecx

; 623  : 		{

	mov	eax, ecx

; 624  : 		return *this;
; 625  : 		}

	ret	4
??4?$_Container_base_aux_alloc_empty@V?$allocator@_N@std@@@std@@IAEAAV01@ABV01@@Z ENDP ; std::_Container_base_aux_alloc_empty<std::allocator<bool> >::operator=
_TEXT	ENDS
PUBLIC	?pointer@?$FObjectHandle@VCvUnit@@@@QAEPAVCvUnit@@XZ ; FObjectHandle<CvUnit>::pointer
; Function compile flags: /Ogtpy
; File c:\users\enormousapplepie\documents\github\lekmod\lekmod_dll\fireplace\include\fireworks\fobjecthandle.h
;	COMDAT ?pointer@?$FObjectHandle@VCvUnit@@@@QAEPAVCvUnit@@XZ
_TEXT	SEGMENT
?pointer@?$FObjectHandle@VCvUnit@@@@QAEPAVCvUnit@@XZ PROC ; FObjectHandle<CvUnit>::pointer, COMDAT
; _this$ = ecx

; 78   : 		return m_target;

	mov	eax, DWORD PTR [ecx]

; 79   : 	}

	ret	0
?pointer@?$FObjectHandle@VCvUnit@@@@QAEPAVCvUnit@@XZ ENDP ; FObjectHandle<CvUnit>::pointer
_TEXT	ENDS
PUBLIC	??C?$FObjectHandle@VCvUnit@@@@QAEPAVCvUnit@@XZ	; FObjectHandle<CvUnit>::operator->
; Function compile flags: /Ogtpy
;	COMDAT ??C?$FObjectHandle@VCvUnit@@@@QAEPAVCvUnit@@XZ
_TEXT	SEGMENT
??C?$FObjectHandle@VCvUnit@@@@QAEPAVCvUnit@@XZ PROC	; FObjectHandle<CvUnit>::operator->, COMDAT
; _this$ = ecx

; 88   : 		return m_target;

	mov	eax, DWORD PTR [ecx]

; 89   : 	}

	ret	0
??C?$FObjectHandle@VCvUnit@@@@QAEPAVCvUnit@@XZ ENDP	; FObjectHandle<CvUnit>::operator->
_TEXT	ENDS
PUBLIC	??B?$FObjectHandle@VCvUnit@@@@QBE_NXZ		; FObjectHandle<CvUnit>::operator bool
; Function compile flags: /Ogtpy
;	COMDAT ??B?$FObjectHandle@VCvUnit@@@@QBE_NXZ
_TEXT	SEGMENT
??B?$FObjectHandle@VCvUnit@@@@QBE_NXZ PROC		; FObjectHandle<CvUnit>::operator bool, COMDAT
; _this$ = ecx

; 108  : 		return m_target != 0;

	xor	eax, eax
	cmp	DWORD PTR [ecx], eax
	setne	al

; 109  : 	}

	ret	0
??B?$FObjectHandle@VCvUnit@@@@QBE_NXZ ENDP		; FObjectHandle<CvUnit>::operator bool
_TEXT	ENDS
PUBLIC	??0?$FObjectHandle@VCvUnit@@@@QAE@XZ		; FObjectHandle<CvUnit>::FObjectHandle<CvUnit>
; Function compile flags: /Ogtpy
;	COMDAT ??0?$FObjectHandle@VCvUnit@@@@QAE@XZ
_TEXT	SEGMENT
??0?$FObjectHandle@VCvUnit@@@@QAE@XZ PROC		; FObjectHandle<CvUnit>::FObjectHandle<CvUnit>, COMDAT
; _this$ = ecx

; 215  : 	{

	mov	eax, ecx
	mov	DWORD PTR [eax], 0
	mov	BYTE PTR [eax+4], 0

; 216  : 		OBJECT_HANDLE_STACK;
; 217  : 	}

	ret	0
??0?$FObjectHandle@VCvUnit@@@@QAE@XZ ENDP		; FObjectHandle<CvUnit>::FObjectHandle<CvUnit>
_TEXT	ENDS
PUBLIC	??A?$vector@V?$Array@H$05@Firaxis@@V?$allocator@V?$Array@H$05@Firaxis@@@std@@@std@@QBEABV?$Array@H$05@Firaxis@@I@Z ; std::vector<Firaxis::Array<int,6>,std::allocator<Firaxis::Array<int,6> > >::operator[]
; Function compile flags: /Ogtpy
; File c:\program files (x86)\microsoft visual studio 9.0\vc\include\vector
;	COMDAT ??A?$vector@V?$Array@H$05@Firaxis@@V?$allocator@V?$Array@H$05@Firaxis@@@std@@@std@@QBEABV?$Array@H$05@Firaxis@@I@Z
_TEXT	SEGMENT
__Pos$ = 8						; size = 4
??A?$vector@V?$Array@H$05@Firaxis@@V?$allocator@V?$Array@H$05@Firaxis@@@std@@@std@@QBEABV?$Array@H$05@Firaxis@@I@Z PROC ; std::vector<Firaxis::Array<int,6>,std::allocator<Firaxis::Array<int,6> > >::operator[], COMDAT
; _this$ = ecx

; 760  : 
; 761  :  #if _HAS_ITERATOR_DEBUGGING
; 762  : 		if (size() <= _Pos)
; 763  : 			{
; 764  : 			_DEBUG_ERROR("vector subscript out of range");
; 765  : 			_SCL_SECURE_OUT_OF_RANGE;
; 766  : 			}
; 767  :  #endif /* _HAS_ITERATOR_DEBUGGING */
; 768  : 		_SCL_SECURE_VALIDATE_RANGE(_Pos < size());
; 769  : 
; 770  : 		return (*(_Myfirst + _Pos));

	mov	eax, DWORD PTR __Pos$[esp-4]
	mov	ecx, DWORD PTR [ecx+4]
	lea	eax, DWORD PTR [eax+eax*2]
	lea	eax, DWORD PTR [ecx+eax*8]

; 771  : 		}

	ret	4
??A?$vector@V?$Array@H$05@Firaxis@@V?$allocator@V?$Array@H$05@Firaxis@@@std@@@std@@QBEABV?$Array@H$05@Firaxis@@I@Z ENDP ; std::vector<Firaxis::Array<int,6>,std::allocator<Firaxis::Array<int,6> > >::operator[]
_TEXT	ENDS
PUBLIC	??A?$vector@V?$Array@H$05@Firaxis@@V?$allocator@V?$Array@H$05@Firaxis@@@std@@@std@@QAEAAV?$Array@H$05@Firaxis@@I@Z ; std::vector<Firaxis::Array<int,6>,std::allocator<Firaxis::Array<int,6> > >::operator[]
; Function compile flags: /Ogtpy
;	COMDAT ??A?$vector@V?$Array@H$05@Firaxis@@V?$allocator@V?$Array@H$05@Firaxis@@@std@@@std@@QAEAAV?$Array@H$05@Firaxis@@I@Z
_TEXT	SEGMENT
__Pos$ = 8						; size = 4
??A?$vector@V?$Array@H$05@Firaxis@@V?$allocator@V?$Array@H$05@Firaxis@@@std@@@std@@QAEAAV?$Array@H$05@Firaxis@@I@Z PROC ; std::vector<Firaxis::Array<int,6>,std::allocator<Firaxis::Array<int,6> > >::operator[], COMDAT
; _this$ = ecx

; 775  : 
; 776  :  #if _HAS_ITERATOR_DEBUGGING
; 777  : 		if (size() <= _Pos)
; 778  : 			{
; 779  : 			_DEBUG_ERROR("vector subscript out of range");
; 780  : 			_SCL_SECURE_OUT_OF_RANGE;
; 781  : 			}
; 782  :  #endif /* _HAS_ITERATOR_DEBUGGING */
; 783  : 		_SCL_SECURE_VALIDATE_RANGE(_Pos < size());
; 784  : 
; 785  : 		return (*(_Myfirst + _Pos));

	mov	eax, DWORD PTR __Pos$[esp-4]
	mov	ecx, DWORD PTR [ecx+4]
	lea	eax, DWORD PTR [eax+eax*2]
	lea	eax, DWORD PTR [ecx+eax*8]

; 786  : 		}

	ret	4
??A?$vector@V?$Array@H$05@Firaxis@@V?$allocator@V?$Array@H$05@Firaxis@@@std@@@std@@QAEAAV?$Array@H$05@Firaxis@@I@Z ENDP ; std::vector<Firaxis::Array<int,6>,std::allocator<Firaxis::Array<int,6> > >::operator[]
_TEXT	ENDS
PUBLIC	??A?$vector@UFreeResourceXCities@@V?$allocator@UFreeResourceXCities@@@std@@@std@@QBEABUFreeResourceXCities@@I@Z ; std::vector<FreeResourceXCities,std::allocator<FreeResourceXCities> >::operator[]
; Function compile flags: /Ogtpy
;	COMDAT ??A?$vector@UFreeResourceXCities@@V?$allocator@UFreeResourceXCities@@@std@@@std@@QBEABUFreeResourceXCities@@I@Z
_TEXT	SEGMENT
__Pos$ = 8						; size = 4
??A?$vector@UFreeResourceXCities@@V?$allocator@UFreeResourceXCities@@@std@@@std@@QBEABUFreeResourceXCities@@I@Z PROC ; std::vector<FreeResourceXCities,std::allocator<FreeResourceXCities> >::operator[], COMDAT
; _this$ = ecx

; 760  : 
; 761  :  #if _HAS_ITERATOR_DEBUGGING
; 762  : 		if (size() <= _Pos)
; 763  : 			{
; 764  : 			_DEBUG_ERROR("vector subscript out of range");
; 765  : 			_SCL_SECURE_OUT_OF_RANGE;
; 766  : 			}
; 767  :  #endif /* _HAS_ITERATOR_DEBUGGING */
; 768  : 		_SCL_SECURE_VALIDATE_RANGE(_Pos < size());
; 769  : 
; 770  : 		return (*(_Myfirst + _Pos));

	mov	eax, DWORD PTR [ecx+4]
	mov	ecx, DWORD PTR __Pos$[esp-4]
	lea	eax, DWORD PTR [eax+ecx*8]

; 771  : 		}

	ret	4
??A?$vector@UFreeResourceXCities@@V?$allocator@UFreeResourceXCities@@@std@@@std@@QBEABUFreeResourceXCities@@I@Z ENDP ; std::vector<FreeResourceXCities,std::allocator<FreeResourceXCities> >::operator[]
_TEXT	ENDS
PUBLIC	??A?$vector@UFreeResourceXCities@@V?$allocator@UFreeResourceXCities@@@std@@@std@@QAEAAUFreeResourceXCities@@I@Z ; std::vector<FreeResourceXCities,std::allocator<FreeResourceXCities> >::operator[]
; Function compile flags: /Ogtpy
;	COMDAT ??A?$vector@UFreeResourceXCities@@V?$allocator@UFreeResourceXCities@@@std@@@std@@QAEAAUFreeResourceXCities@@I@Z
_TEXT	SEGMENT
__Pos$ = 8						; size = 4
??A?$vector@UFreeResourceXCities@@V?$allocator@UFreeResourceXCities@@@std@@@std@@QAEAAUFreeResourceXCities@@I@Z PROC ; std::vector<FreeResourceXCities,std::allocator<FreeResourceXCities> >::operator[], COMDAT
; _this$ = ecx

; 775  : 
; 776  :  #if _HAS_ITERATOR_DEBUGGING
; 777  : 		if (size() <= _Pos)
; 778  : 			{
; 779  : 			_DEBUG_ERROR("vector subscript out of range");
; 780  : 			_SCL_SECURE_OUT_OF_RANGE;
; 781  : 			}
; 782  :  #endif /* _HAS_ITERATOR_DEBUGGING */
; 783  : 		_SCL_SECURE_VALIDATE_RANGE(_Pos < size());
; 784  : 
; 785  : 		return (*(_Myfirst + _Pos));

	mov	eax, DWORD PTR [ecx+4]
	mov	ecx, DWORD PTR __Pos$[esp-4]
	lea	eax, DWORD PTR [eax+ecx*8]

; 786  : 		}

	ret	4
??A?$vector@UFreeResourceXCities@@V?$allocator@UFreeResourceXCities@@@std@@@std@@QAEAAUFreeResourceXCities@@I@Z ENDP ; std::vector<FreeResourceXCities,std::allocator<FreeResourceXCities> >::operator[]
_TEXT	ENDS
PUBLIC	?size@?$vector@PAVCvTraitEntry@@V?$allocator@PAVCvTraitEntry@@@std@@@std@@QBEIXZ ; std::vector<CvTraitEntry *,std::allocator<CvTraitEntry *> >::size
; Function compile flags: /Ogtpy
;	COMDAT ?size@?$vector@PAVCvTraitEntry@@V?$allocator@PAVCvTraitEntry@@@std@@@std@@QBEIXZ
_TEXT	SEGMENT
?size@?$vector@PAVCvTraitEntry@@V?$allocator@PAVCvTraitEntry@@@std@@@std@@QBEIXZ PROC ; std::vector<CvTraitEntry *,std::allocator<CvTraitEntry *> >::size, COMDAT
; _this$ = ecx

; 726  : 		return (_Mylast - _Myfirst);

	mov	eax, DWORD PTR [ecx+8]
	sub	eax, DWORD PTR [ecx+4]
	sar	eax, 2

; 727  : 		}

	ret	0
?size@?$vector@PAVCvTraitEntry@@V?$allocator@PAVCvTraitEntry@@@std@@@std@@QBEIXZ ENDP ; std::vector<CvTraitEntry *,std::allocator<CvTraitEntry *> >::size
_TEXT	ENDS
PUBLIC	??A?$vector@PAVCvTraitEntry@@V?$allocator@PAVCvTraitEntry@@@std@@@std@@QAEAAPAVCvTraitEntry@@I@Z ; std::vector<CvTraitEntry *,std::allocator<CvTraitEntry *> >::operator[]
; Function compile flags: /Ogtpy
;	COMDAT ??A?$vector@PAVCvTraitEntry@@V?$allocator@PAVCvTraitEntry@@@std@@@std@@QAEAAPAVCvTraitEntry@@I@Z
_TEXT	SEGMENT
__Pos$ = 8						; size = 4
??A?$vector@PAVCvTraitEntry@@V?$allocator@PAVCvTraitEntry@@@std@@@std@@QAEAAPAVCvTraitEntry@@I@Z PROC ; std::vector<CvTraitEntry *,std::allocator<CvTraitEntry *> >::operator[], COMDAT
; _this$ = ecx

; 775  : 
; 776  :  #if _HAS_ITERATOR_DEBUGGING
; 777  : 		if (size() <= _Pos)
; 778  : 			{
; 779  : 			_DEBUG_ERROR("vector subscript out of range");
; 780  : 			_SCL_SECURE_OUT_OF_RANGE;
; 781  : 			}
; 782  :  #endif /* _HAS_ITERATOR_DEBUGGING */
; 783  : 		_SCL_SECURE_VALIDATE_RANGE(_Pos < size());
; 784  : 
; 785  : 		return (*(_Myfirst + _Pos));

	mov	eax, DWORD PTR [ecx+4]
	mov	ecx, DWORD PTR __Pos$[esp-4]
	lea	eax, DWORD PTR [eax+ecx*4]

; 786  : 		}

	ret	4
??A?$vector@PAVCvTraitEntry@@V?$allocator@PAVCvTraitEntry@@@std@@@std@@QAEAAPAVCvTraitEntry@@I@Z ENDP ; std::vector<CvTraitEntry *,std::allocator<CvTraitEntry *> >::operator[]
_TEXT	ENDS
PUBLIC	??A?$vector@W4TraitTypes@@V?$allocator@W4TraitTypes@@@std@@@std@@QBEABW4TraitTypes@@I@Z ; std::vector<enum TraitTypes,std::allocator<enum TraitTypes> >::operator[]
; Function compile flags: /Ogtpy
;	COMDAT ??A?$vector@W4TraitTypes@@V?$allocator@W4TraitTypes@@@std@@@std@@QBEABW4TraitTypes@@I@Z
_TEXT	SEGMENT
__Pos$ = 8						; size = 4
??A?$vector@W4TraitTypes@@V?$allocator@W4TraitTypes@@@std@@@std@@QBEABW4TraitTypes@@I@Z PROC ; std::vector<enum TraitTypes,std::allocator<enum TraitTypes> >::operator[], COMDAT
; _this$ = ecx

; 760  : 
; 761  :  #if _HAS_ITERATOR_DEBUGGING
; 762  : 		if (size() <= _Pos)
; 763  : 			{
; 764  : 			_DEBUG_ERROR("vector subscript out of range");
; 765  : 			_SCL_SECURE_OUT_OF_RANGE;
; 766  : 			}
; 767  :  #endif /* _HAS_ITERATOR_DEBUGGING */
; 768  : 		_SCL_SECURE_VALIDATE_RANGE(_Pos < size());
; 769  : 
; 770  : 		return (*(_Myfirst + _Pos));

	mov	eax, DWORD PTR [ecx+4]
	mov	ecx, DWORD PTR __Pos$[esp-4]
	lea	eax, DWORD PTR [eax+ecx*4]

; 771  : 		}

	ret	4
??A?$vector@W4TraitTypes@@V?$allocator@W4TraitTypes@@@std@@@std@@QBEABW4TraitTypes@@I@Z ENDP ; std::vector<enum TraitTypes,std::allocator<enum TraitTypes> >::operator[]
_TEXT	ENDS
PUBLIC	??A?$BaseVector@UFreeTraitUnit@@$00@@QAEAAUFreeTraitUnit@@I@Z ; BaseVector<FreeTraitUnit,1>::operator[]
; Function compile flags: /Ogtpy
; File c:\users\enormousapplepie\documents\github\lekmod\lekmod_dll\fireplace\include\fireworks\ffastvector.h
;	COMDAT ??A?$BaseVector@UFreeTraitUnit@@$00@@QAEAAUFreeTraitUnit@@I@Z
_TEXT	SEGMENT
_ui$ = 8						; size = 4
??A?$BaseVector@UFreeTraitUnit@@$00@@QAEAAUFreeTraitUnit@@I@Z PROC ; BaseVector<FreeTraitUnit,1>::operator[], COMDAT
; _this$ = ecx

; 129  : 		FAssert(ui < m_uiCurrSize);
; 130  : 		return m_pData[ui];

	mov	eax, DWORD PTR [ecx]
	mov	ecx, DWORD PTR _ui$[esp-4]
	lea	eax, DWORD PTR [eax+ecx*8]

; 131  : 	};

	ret	4
??A?$BaseVector@UFreeTraitUnit@@$00@@QAEAAUFreeTraitUnit@@I@Z ENDP ; BaseVector<FreeTraitUnit,1>::operator[]
_TEXT	ENDS
PUBLIC	?size@?$BaseVector@UFreeTraitUnit@@$00@@QBEIXZ	; BaseVector<FreeTraitUnit,1>::size
; Function compile flags: /Ogtpy
;	COMDAT ?size@?$BaseVector@UFreeTraitUnit@@$00@@QBEIXZ
_TEXT	SEGMENT
?size@?$BaseVector@UFreeTraitUnit@@$00@@QBEIXZ PROC	; BaseVector<FreeTraitUnit,1>::size, COMDAT
; _this$ = ecx

; 169  : 		return m_uiCurrSize;

	mov	eax, DWORD PTR [ecx+4]

; 170  : 	};

	ret	0
?size@?$BaseVector@UFreeTraitUnit@@$00@@QBEIXZ ENDP	; BaseVector<FreeTraitUnit,1>::size
_TEXT	ENDS
PUBLIC	?size@?$vector@UMayaBonusChoice@@V?$allocator@UMayaBonusChoice@@@std@@@std@@QBEIXZ ; std::vector<MayaBonusChoice,std::allocator<MayaBonusChoice> >::size
; Function compile flags: /Ogtpy
; File c:\program files (x86)\microsoft visual studio 9.0\vc\include\vector
;	COMDAT ?size@?$vector@UMayaBonusChoice@@V?$allocator@UMayaBonusChoice@@@std@@@std@@QBEIXZ
_TEXT	SEGMENT
?size@?$vector@UMayaBonusChoice@@V?$allocator@UMayaBonusChoice@@@std@@@std@@QBEIXZ PROC ; std::vector<MayaBonusChoice,std::allocator<MayaBonusChoice> >::size, COMDAT
; _this$ = ecx

; 726  : 		return (_Mylast - _Myfirst);

	mov	eax, DWORD PTR [ecx+8]
	sub	eax, DWORD PTR [ecx+4]
	sar	eax, 3

; 727  : 		}

	ret	0
?size@?$vector@UMayaBonusChoice@@V?$allocator@UMayaBonusChoice@@@std@@@std@@QBEIXZ ENDP ; std::vector<MayaBonusChoice,std::allocator<MayaBonusChoice> >::size
_TEXT	ENDS
PUBLIC	??0?$pair@HH@std@@QAE@ABH0@Z			; std::pair<int,int>::pair<int,int>
; Function compile flags: /Ogtpy
; File c:\program files (x86)\microsoft visual studio 9.0\vc\include\utility
;	COMDAT ??0?$pair@HH@std@@QAE@ABH0@Z
_TEXT	SEGMENT
__Val1$ = 8						; size = 4
__Val2$ = 12						; size = 4
??0?$pair@HH@std@@QAE@ABH0@Z PROC			; std::pair<int,int>::pair<int,int>, COMDAT
; _this$ = ecx

; 50   : 		{	// construct from specified values

	mov	eax, ecx
	mov	ecx, DWORD PTR __Val1$[esp-4]
	mov	edx, DWORD PTR [ecx]
	mov	ecx, DWORD PTR __Val2$[esp-4]
	mov	DWORD PTR [eax], edx
	mov	edx, DWORD PTR [ecx]
	mov	DWORD PTR [eax+4], edx

; 51   : 		}

	ret	8
??0?$pair@HH@std@@QAE@ABH0@Z ENDP			; std::pair<int,int>::pair<int,int>
_TEXT	ENDS
PUBLIC	??0?$_Vector_const_iterator@UMayaBonusChoice@@V?$allocator@UMayaBonusChoice@@@std@@@std@@QAE@XZ ; std::_Vector_const_iterator<MayaBonusChoice,std::allocator<MayaBonusChoice> >::_Vector_const_iterator<MayaBonusChoice,std::allocator<MayaBonusChoice> >
; Function compile flags: /Ogtpy
; File c:\program files (x86)\microsoft visual studio 9.0\vc\include\vector
;	COMDAT ??0?$_Vector_const_iterator@UMayaBonusChoice@@V?$allocator@UMayaBonusChoice@@@std@@@std@@QAE@XZ
_TEXT	SEGMENT
??0?$_Vector_const_iterator@UMayaBonusChoice@@V?$allocator@UMayaBonusChoice@@@std@@@std@@QAE@XZ PROC ; std::_Vector_const_iterator<MayaBonusChoice,std::allocator<MayaBonusChoice> >::_Vector_const_iterator<MayaBonusChoice,std::allocator<MayaBonusChoice> >, COMDAT
; _this$ = ecx

; 62   : 	_Vector_const_iterator()

	mov	eax, ecx

; 63   : 		{	// construct with null pointer
; 64   : 		_Myptr = 0;

	mov	DWORD PTR [eax], 0

; 65   : 		}

	ret	0
??0?$_Vector_const_iterator@UMayaBonusChoice@@V?$allocator@UMayaBonusChoice@@@std@@@std@@QAE@XZ ENDP ; std::_Vector_const_iterator<MayaBonusChoice,std::allocator<MayaBonusChoice> >::_Vector_const_iterator<MayaBonusChoice,std::allocator<MayaBonusChoice> >
_TEXT	ENDS
PUBLIC	??0?$ArrayWrapper@H@@QAE@HPAH@Z			; ArrayWrapper<int>::ArrayWrapper<int>
; Function compile flags: /Ogtpy
; File c:\users\enormousapplepie\documents\github\lekmod\lekmod_dll\fireplace\include\fireworks\fdatastream.h
;	COMDAT ??0?$ArrayWrapper@H@@QAE@HPAH@Z
_TEXT	SEGMENT
_count$ = 8						; size = 4
_values$ = 12						; size = 4
??0?$ArrayWrapper@H@@QAE@HPAH@Z PROC			; ArrayWrapper<int>::ArrayWrapper<int>, COMDAT
; _this$ = ecx

; 378  : 		: m_values(values), m_count(count) {}

	mov	edx, DWORD PTR _count$[esp-4]
	mov	eax, ecx
	mov	ecx, DWORD PTR _values$[esp-4]
	mov	DWORD PTR [eax], ecx
	mov	DWORD PTR [eax+4], edx
	ret	8
??0?$ArrayWrapper@H@@QAE@HPAH@Z ENDP			; ArrayWrapper<int>::ArrayWrapper<int>
_TEXT	ENDS
PUBLIC	??R?$less@H@std@@QBE_NABH0@Z			; std::less<int>::operator()
; Function compile flags: /Ogtpy
; File c:\program files (x86)\microsoft visual studio 9.0\vc\include\functional
;	COMDAT ??R?$less@H@std@@QBE_NABH0@Z
_TEXT	SEGMENT
__Left$ = 8						; size = 4
__Right$ = 12						; size = 4
??R?$less@H@std@@QBE_NABH0@Z PROC			; std::less<int>::operator(), COMDAT
; _this$ = ecx

; 143  : 		return (_Left < _Right);

	mov	eax, DWORD PTR __Left$[esp-4]
	mov	ecx, DWORD PTR [eax]
	mov	edx, DWORD PTR __Right$[esp-4]
	xor	eax, eax
	cmp	ecx, DWORD PTR [edx]
	setl	al

; 144  : 		}

	ret	8
??R?$less@H@std@@QBE_NABH0@Z ENDP			; std::less<int>::operator()
_TEXT	ENDS
PUBLIC	?addTarget@?$DestructionNotification@V?$FObjectHandle@VCvUnit@@@@@@QAEXABV?$FObjectHandle@VCvUnit@@@@@Z ; DestructionNotification<FObjectHandle<CvUnit> >::addTarget
; Function compile flags: /Ogtpy
; File c:\users\enormousapplepie\documents\github\lekmod\lekmod_dll\fireplace\include\fireworks\fobjecthandle.h
;	COMDAT ?addTarget@?$DestructionNotification@V?$FObjectHandle@VCvUnit@@@@@@QAEXABV?$FObjectHandle@VCvUnit@@@@@Z
_TEXT	SEGMENT
_target$ = 8						; size = 4
?addTarget@?$DestructionNotification@V?$FObjectHandle@VCvUnit@@@@@@QAEXABV?$FObjectHandle@VCvUnit@@@@@Z PROC ; DestructionNotification<FObjectHandle<CvUnit> >::addTarget, COMDAT
; _this$ = ecx

; 52   : #ifdef TRACK_DESTRUCTION_NOTIFICATION
; 53   : 		m_targets.insert(&target);
; 54   : #endif
; 55   : 	}

	ret	4
?addTarget@?$DestructionNotification@V?$FObjectHandle@VCvUnit@@@@@@QAEXABV?$FObjectHandle@VCvUnit@@@@@Z ENDP ; DestructionNotification<FObjectHandle<CvUnit> >::addTarget
_TEXT	ENDS
PUBLIC	?removeTarget@?$DestructionNotification@V?$FObjectHandle@VCvUnit@@@@@@QAEXABV?$FObjectHandle@VCvUnit@@@@@Z ; DestructionNotification<FObjectHandle<CvUnit> >::removeTarget
; Function compile flags: /Ogtpy
;	COMDAT ?removeTarget@?$DestructionNotification@V?$FObjectHandle@VCvUnit@@@@@@QAEXABV?$FObjectHandle@VCvUnit@@@@@Z
_TEXT	SEGMENT
_target$ = 8						; size = 4
?removeTarget@?$DestructionNotification@V?$FObjectHandle@VCvUnit@@@@@@QAEXABV?$FObjectHandle@VCvUnit@@@@@Z PROC ; DestructionNotification<FObjectHandle<CvUnit> >::removeTarget, COMDAT
; _this$ = ecx

; 63   : #ifdef TRACK_DESTRUCTION_NOTIFICATION
; 64   : 		m_targets.erase(&target);
; 65   : #endif
; 66   : 	}

	ret	4
?removeTarget@?$DestructionNotification@V?$FObjectHandle@VCvUnit@@@@@@QAEXABV?$FObjectHandle@VCvUnit@@@@@Z ENDP ; DestructionNotification<FObjectHandle<CvUnit> >::removeTarget
_TEXT	ENDS
PUBLIC	?key_comp@?$_Tree@V?$_Tmap_traits@HHU?$less@H@std@@V?$allocator@U?$pair@$$CBHH@std@@@2@$00@std@@@std@@QBE?AU?$less@H@2@XZ ; std::_Tree<std::_Tmap_traits<int,int,std::less<int>,std::allocator<std::pair<int const ,int> >,1> >::key_comp
; Function compile flags: /Ogtpy
; File c:\program files (x86)\microsoft visual studio 9.0\vc\include\xtree
;	COMDAT ?key_comp@?$_Tree@V?$_Tmap_traits@HHU?$less@H@std@@V?$allocator@U?$pair@$$CBHH@std@@@2@$00@std@@@std@@QBE?AU?$less@H@2@XZ
_TEXT	SEGMENT
___$ReturnUdt$ = 8					; size = 4
?key_comp@?$_Tree@V?$_Tmap_traits@HHU?$less@H@std@@V?$allocator@U?$pair@$$CBHH@std@@@2@$00@std@@@std@@QBE?AU?$less@H@2@XZ PROC ; std::_Tree<std::_Tmap_traits<int,int,std::less<int>,std::allocator<std::pair<int const ,int> >,1> >::key_comp, COMDAT
; _this$ = ecx

; 621  : 		return (this->comp);

	mov	eax, DWORD PTR ___$ReturnUdt$[esp-4]

; 622  : 		}

	ret	4
?key_comp@?$_Tree@V?$_Tmap_traits@HHU?$less@H@std@@V?$allocator@U?$pair@$$CBHH@std@@@2@$00@std@@@std@@QBE?AU?$less@H@2@XZ ENDP ; std::_Tree<std::_Tmap_traits<int,int,std::less<int>,std::allocator<std::pair<int const ,int> >,1> >::key_comp
_TEXT	ENDS
PUBLIC	??1?$_Container_base_aux_alloc_empty@V?$allocator@U?$pair@$$CBHH@std@@@std@@@std@@IAE@XZ ; std::_Container_base_aux_alloc_empty<std::allocator<std::pair<int const ,int> > >::~_Container_base_aux_alloc_empty<std::allocator<std::pair<int const ,int> > >
; Function compile flags: /Ogtpy
; File c:\program files (x86)\microsoft visual studio 9.0\vc\include\xutility
;	COMDAT ??1?$_Container_base_aux_alloc_empty@V?$allocator@U?$pair@$$CBHH@std@@@std@@@std@@IAE@XZ
_TEXT	SEGMENT
??1?$_Container_base_aux_alloc_empty@V?$allocator@U?$pair@$$CBHH@std@@@std@@@std@@IAE@XZ PROC ; std::_Container_base_aux_alloc_empty<std::allocator<std::pair<int const ,int> > >::~_Container_base_aux_alloc_empty<std::allocator<std::pair<int const ,int> > >, COMDAT
; _this$ = ecx

; 627  : 	~_Container_base_aux_alloc_empty() { }

	ret	0
??1?$_Container_base_aux_alloc_empty@V?$allocator@U?$pair@$$CBHH@std@@@std@@@std@@IAE@XZ ENDP ; std::_Container_base_aux_alloc_empty<std::allocator<std::pair<int const ,int> > >::~_Container_base_aux_alloc_empty<std::allocator<std::pair<int const ,int> > >
_TEXT	ENDS
PUBLIC	??0?$allocator@U?$pair@$$CBHH@std@@@std@@QAE@XZ	; std::allocator<std::pair<int const ,int> >::allocator<std::pair<int const ,int> >
; Function compile flags: /Ogtpy
; File c:\program files (x86)\microsoft visual studio 9.0\vc\include\xmemory
;	COMDAT ??0?$allocator@U?$pair@$$CBHH@std@@@std@@QAE@XZ
_TEXT	SEGMENT
??0?$allocator@U?$pair@$$CBHH@std@@@std@@QAE@XZ PROC	; std::allocator<std::pair<int const ,int> >::allocator<std::pair<int const ,int> >, COMDAT
; _this$ = ecx

; 119  : 	allocator() _THROW0()

	mov	eax, ecx

; 120  : 		{	// construct default allocator (do nothing)
; 121  : 		}

	ret	0
??0?$allocator@U?$pair@$$CBHH@std@@@std@@QAE@XZ ENDP	; std::allocator<std::pair<int const ,int> >::allocator<std::pair<int const ,int> >
_TEXT	ENDS
PUBLIC	?capacity@?$vector@UFreeResourceXCities@@V?$allocator@UFreeResourceXCities@@@std@@@std@@QBEIXZ ; std::vector<FreeResourceXCities,std::allocator<FreeResourceXCities> >::capacity
; Function compile flags: /Ogtpy
; File c:\program files (x86)\microsoft visual studio 9.0\vc\include\vector
;	COMDAT ?capacity@?$vector@UFreeResourceXCities@@V?$allocator@UFreeResourceXCities@@@std@@@std@@QBEIXZ
_TEXT	SEGMENT
?capacity@?$vector@UFreeResourceXCities@@V?$allocator@UFreeResourceXCities@@@std@@@std@@QBEIXZ PROC ; std::vector<FreeResourceXCities,std::allocator<FreeResourceXCities> >::capacity, COMDAT
; _this$ = ecx

; 635  : 		return (_Myfirst == 0 ? 0 : _Myend - _Myfirst);

	mov	edx, DWORD PTR [ecx+4]
	test	edx, edx
	jne	SHORT $LN3@capacity
	xor	eax, eax

; 636  : 		}

	ret	0
$LN3@capacity:

; 635  : 		return (_Myfirst == 0 ? 0 : _Myend - _Myfirst);

	mov	eax, DWORD PTR [ecx+12]
	sub	eax, edx
	sar	eax, 3

; 636  : 		}

	ret	0
?capacity@?$vector@UFreeResourceXCities@@V?$allocator@UFreeResourceXCities@@@std@@@std@@QBEIXZ ENDP ; std::vector<FreeResourceXCities,std::allocator<FreeResourceXCities> >::capacity
_TEXT	ENDS
PUBLIC	?size@?$vector@UFreeResourceXCities@@V?$allocator@UFreeResourceXCities@@@std@@@std@@QBEIXZ ; std::vector<FreeResourceXCities,std::allocator<FreeResourceXCities> >::size
; Function compile flags: /Ogtpy
;	COMDAT ?size@?$vector@UFreeResourceXCities@@V?$allocator@UFreeResourceXCities@@@std@@@std@@QBEIXZ
_TEXT	SEGMENT
?size@?$vector@UFreeResourceXCities@@V?$allocator@UFreeResourceXCities@@@std@@@std@@QBEIXZ PROC ; std::vector<FreeResourceXCities,std::allocator<FreeResourceXCities> >::size, COMDAT
; _this$ = ecx

; 726  : 		return (_Mylast - _Myfirst);

	mov	eax, DWORD PTR [ecx+8]
	sub	eax, DWORD PTR [ecx+4]
	sar	eax, 3

; 727  : 		}

	ret	0
?size@?$vector@UFreeResourceXCities@@V?$allocator@UFreeResourceXCities@@@std@@@std@@QBEIXZ ENDP ; std::vector<FreeResourceXCities,std::allocator<FreeResourceXCities> >::size
_TEXT	ENDS
PUBLIC	??1?$_Container_base_aux_alloc_empty@V?$allocator@UFreeResourceXCities@@@std@@@std@@IAE@XZ ; std::_Container_base_aux_alloc_empty<std::allocator<FreeResourceXCities> >::~_Container_base_aux_alloc_empty<std::allocator<FreeResourceXCities> >
; Function compile flags: /Ogtpy
; File c:\program files (x86)\microsoft visual studio 9.0\vc\include\xutility
;	COMDAT ??1?$_Container_base_aux_alloc_empty@V?$allocator@UFreeResourceXCities@@@std@@@std@@IAE@XZ
_TEXT	SEGMENT
??1?$_Container_base_aux_alloc_empty@V?$allocator@UFreeResourceXCities@@@std@@@std@@IAE@XZ PROC ; std::_Container_base_aux_alloc_empty<std::allocator<FreeResourceXCities> >::~_Container_base_aux_alloc_empty<std::allocator<FreeResourceXCities> >, COMDAT
; _this$ = ecx

; 627  : 	~_Container_base_aux_alloc_empty() { }

	ret	0
??1?$_Container_base_aux_alloc_empty@V?$allocator@UFreeResourceXCities@@@std@@@std@@IAE@XZ ENDP ; std::_Container_base_aux_alloc_empty<std::allocator<FreeResourceXCities> >::~_Container_base_aux_alloc_empty<std::allocator<FreeResourceXCities> >
_TEXT	ENDS
PUBLIC	??0?$allocator@UFreeResourceXCities@@@std@@QAE@XZ ; std::allocator<FreeResourceXCities>::allocator<FreeResourceXCities>
; Function compile flags: /Ogtpy
; File c:\program files (x86)\microsoft visual studio 9.0\vc\include\xmemory
;	COMDAT ??0?$allocator@UFreeResourceXCities@@@std@@QAE@XZ
_TEXT	SEGMENT
??0?$allocator@UFreeResourceXCities@@@std@@QAE@XZ PROC	; std::allocator<FreeResourceXCities>::allocator<FreeResourceXCities>, COMDAT
; _this$ = ecx

; 119  : 	allocator() _THROW0()

	mov	eax, ecx

; 120  : 		{	// construct default allocator (do nothing)
; 121  : 		}

	ret	0
??0?$allocator@UFreeResourceXCities@@@std@@QAE@XZ ENDP	; std::allocator<FreeResourceXCities>::allocator<FreeResourceXCities>
_TEXT	ENDS
PUBLIC	??1?$_Container_base_aux_alloc_empty@V?$allocator@PAVCvTraitEntry@@@std@@@std@@IAE@XZ ; std::_Container_base_aux_alloc_empty<std::allocator<CvTraitEntry *> >::~_Container_base_aux_alloc_empty<std::allocator<CvTraitEntry *> >
; Function compile flags: /Ogtpy
; File c:\program files (x86)\microsoft visual studio 9.0\vc\include\xutility
;	COMDAT ??1?$_Container_base_aux_alloc_empty@V?$allocator@PAVCvTraitEntry@@@std@@@std@@IAE@XZ
_TEXT	SEGMENT
??1?$_Container_base_aux_alloc_empty@V?$allocator@PAVCvTraitEntry@@@std@@@std@@IAE@XZ PROC ; std::_Container_base_aux_alloc_empty<std::allocator<CvTraitEntry *> >::~_Container_base_aux_alloc_empty<std::allocator<CvTraitEntry *> >, COMDAT
; _this$ = ecx

; 627  : 	~_Container_base_aux_alloc_empty() { }

	ret	0
??1?$_Container_base_aux_alloc_empty@V?$allocator@PAVCvTraitEntry@@@std@@@std@@IAE@XZ ENDP ; std::_Container_base_aux_alloc_empty<std::allocator<CvTraitEntry *> >::~_Container_base_aux_alloc_empty<std::allocator<CvTraitEntry *> >
_TEXT	ENDS
PUBLIC	??0?$allocator@PAVCvTraitEntry@@@std@@QAE@XZ	; std::allocator<CvTraitEntry *>::allocator<CvTraitEntry *>
; Function compile flags: /Ogtpy
; File c:\program files (x86)\microsoft visual studio 9.0\vc\include\xmemory
;	COMDAT ??0?$allocator@PAVCvTraitEntry@@@std@@QAE@XZ
_TEXT	SEGMENT
??0?$allocator@PAVCvTraitEntry@@@std@@QAE@XZ PROC	; std::allocator<CvTraitEntry *>::allocator<CvTraitEntry *>, COMDAT
; _this$ = ecx

; 119  : 	allocator() _THROW0()

	mov	eax, ecx

; 120  : 		{	// construct default allocator (do nothing)
; 121  : 		}

	ret	0
??0?$allocator@PAVCvTraitEntry@@@std@@QAE@XZ ENDP	; std::allocator<CvTraitEntry *>::allocator<CvTraitEntry *>
_TEXT	ENDS
PUBLIC	?capacity@?$vector@W4TraitTypes@@V?$allocator@W4TraitTypes@@@std@@@std@@QBEIXZ ; std::vector<enum TraitTypes,std::allocator<enum TraitTypes> >::capacity
; Function compile flags: /Ogtpy
; File c:\program files (x86)\microsoft visual studio 9.0\vc\include\vector
;	COMDAT ?capacity@?$vector@W4TraitTypes@@V?$allocator@W4TraitTypes@@@std@@@std@@QBEIXZ
_TEXT	SEGMENT
?capacity@?$vector@W4TraitTypes@@V?$allocator@W4TraitTypes@@@std@@@std@@QBEIXZ PROC ; std::vector<enum TraitTypes,std::allocator<enum TraitTypes> >::capacity, COMDAT
; _this$ = ecx

; 635  : 		return (_Myfirst == 0 ? 0 : _Myend - _Myfirst);

	mov	edx, DWORD PTR [ecx+4]
	test	edx, edx
	jne	SHORT $LN3@capacity@2
	xor	eax, eax

; 636  : 		}

	ret	0
$LN3@capacity@2:

; 635  : 		return (_Myfirst == 0 ? 0 : _Myend - _Myfirst);

	mov	eax, DWORD PTR [ecx+12]
	sub	eax, edx
	sar	eax, 2

; 636  : 		}

	ret	0
?capacity@?$vector@W4TraitTypes@@V?$allocator@W4TraitTypes@@@std@@@std@@QBEIXZ ENDP ; std::vector<enum TraitTypes,std::allocator<enum TraitTypes> >::capacity
_TEXT	ENDS
PUBLIC	??0?$allocator@W4TraitTypes@@@std@@QAE@XZ	; std::allocator<enum TraitTypes>::allocator<enum TraitTypes>
; Function compile flags: /Ogtpy
; File c:\program files (x86)\microsoft visual studio 9.0\vc\include\xmemory
;	COMDAT ??0?$allocator@W4TraitTypes@@@std@@QAE@XZ
_TEXT	SEGMENT
??0?$allocator@W4TraitTypes@@@std@@QAE@XZ PROC		; std::allocator<enum TraitTypes>::allocator<enum TraitTypes>, COMDAT
; _this$ = ecx

; 119  : 	allocator() _THROW0()

	mov	eax, ecx

; 120  : 		{	// construct default allocator (do nothing)
; 121  : 		}

	ret	0
??0?$allocator@W4TraitTypes@@@std@@QAE@XZ ENDP		; std::allocator<enum TraitTypes>::allocator<enum TraitTypes>
_TEXT	ENDS
PUBLIC	??_C@_0GH@ECFAPJEJ@c?3?2users?2enormousapplepie?2docume@ ; `string'
PUBLIC	?Alloc@?$FStaticVector@UFreeTraitUnit@@$04$00$0BCJ@$0A@@@IAEPAUFreeTraitUnit@@I@Z ; FStaticVector<FreeTraitUnit,5,1,297,0>::Alloc
EXTRN	?FireMallocAlignedNoTracking@@YAPAXIIPBDH@Z:PROC ; FireMallocAlignedNoTracking
;	COMDAT ??_C@_0GH@ECFAPJEJ@c?3?2users?2enormousapplepie?2docume@
; File c:\users\enormousapplepie\documents\github\lekmod\lekmod_dll\fireplace\include\fireworks\ffastvector.h
CONST	SEGMENT
??_C@_0GH@ECFAPJEJ@c?3?2users?2enormousapplepie?2docume@ DB 'c:\users\eno'
	DB	'rmousapplepie\documents\github\lekmod\lekmod_dll\fireplace\in'
	DB	'clude\fireworks\FFastVector.h', 00H		; `string'
; Function compile flags: /Ogtpy
CONST	ENDS
;	COMDAT ?Alloc@?$FStaticVector@UFreeTraitUnit@@$04$00$0BCJ@$0A@@@IAEPAUFreeTraitUnit@@I@Z
_TEXT	SEGMENT
_uiSize$ = 8						; size = 4
?Alloc@?$FStaticVector@UFreeTraitUnit@@$04$00$0BCJ@$0A@@@IAEPAUFreeTraitUnit@@I@Z PROC ; FStaticVector<FreeTraitUnit,5,1,297,0>::Alloc, COMDAT
; _this$ = ecx

; 795  : 	T* Alloc(unsigned int uiSize){

	push	esi
	push	edi

; 796  : 		T* pRet;
; 797  : 		if( uiSize > L ){

	mov	edi, DWORD PTR _uiSize$[esp+4]
	mov	esi, ecx
	cmp	edi, 5
	jbe	SHORT $LN2@Alloc

; 798  : 			pRet = (T*)FMALLOCALIGNED( uiSize*sizeof(T), __alignof(T), AllocPool, nSubID );

	push	798					; 0000031eH
	push	OFFSET ??_C@_0GH@ECFAPJEJ@c?3?2users?2enormousapplepie?2docume@
	lea	eax, DWORD PTR [edi*8]
	push	4
	push	eax
	call	?FireMallocAlignedNoTracking@@YAPAXIIPBDH@Z ; FireMallocAlignedNoTracking
	add	esp, 16					; 00000010H

; 799  : 			m_uiCurrMaxSize = uiSize;

	mov	DWORD PTR [esi+8], edi
	pop	edi
	pop	esi

; 803  : 		}
; 804  : 		return pRet;
; 805  : 	};

	ret	4
$LN2@Alloc:
	pop	edi

; 800  : 		}else{
; 801  : 			pRet = (T*)m_aData;

	lea	eax, DWORD PTR [esi+12]

; 802  : 			m_uiCurrMaxSize = L;

	mov	DWORD PTR [esi+8], 5
	pop	esi

; 803  : 		}
; 804  : 		return pRet;
; 805  : 	};

	ret	4
?Alloc@?$FStaticVector@UFreeTraitUnit@@$04$00$0BCJ@$0A@@@IAEPAUFreeTraitUnit@@I@Z ENDP ; FStaticVector<FreeTraitUnit,5,1,297,0>::Alloc
_TEXT	ENDS
PUBLIC	??1?$BaseVector@UFreeTraitUnit@@$00@@QAE@XZ	; BaseVector<FreeTraitUnit,1>::~BaseVector<FreeTraitUnit,1>
; Function compile flags: /Ogtpy
;	COMDAT ??1?$BaseVector@UFreeTraitUnit@@$00@@QAE@XZ
_TEXT	SEGMENT
??1?$BaseVector@UFreeTraitUnit@@$00@@QAE@XZ PROC	; BaseVector<FreeTraitUnit,1>::~BaseVector<FreeTraitUnit,1>, COMDAT
; _this$ = ecx

; 111  : 	~BaseVector(){};

	ret	0
??1?$BaseVector@UFreeTraitUnit@@$00@@QAE@XZ ENDP	; BaseVector<FreeTraitUnit,1>::~BaseVector<FreeTraitUnit,1>
_TEXT	ENDS
PUBLIC	??0?$BaseVector@UFreeTraitUnit@@$00@@IAE@XZ	; BaseVector<FreeTraitUnit,1>::BaseVector<FreeTraitUnit,1>
; Function compile flags: /Ogtpy
;	COMDAT ??0?$BaseVector@UFreeTraitUnit@@$00@@IAE@XZ
_TEXT	SEGMENT
??0?$BaseVector@UFreeTraitUnit@@$00@@IAE@XZ PROC	; BaseVector<FreeTraitUnit,1>::BaseVector<FreeTraitUnit,1>, COMDAT
; _this$ = ecx

; 216  : 	BaseVector() : m_uiCurrSize(0), m_uiCurrMaxSize(0), m_pData(NULL) {};

	mov	eax, ecx
	xor	ecx, ecx
	mov	DWORD PTR [eax], ecx
	mov	DWORD PTR [eax+4], ecx
	mov	DWORD PTR [eax+8], ecx
	ret	0
??0?$BaseVector@UFreeTraitUnit@@$00@@IAE@XZ ENDP	; BaseVector<FreeTraitUnit,1>::BaseVector<FreeTraitUnit,1>
_TEXT	ENDS
PUBLIC	?Destroy@?$BaseVector@UFreeTraitUnit@@$00@@IAEXPAUFreeTraitUnit@@I@Z ; BaseVector<FreeTraitUnit,1>::Destroy
; Function compile flags: /Ogtpy
;	COMDAT ?Destroy@?$BaseVector@UFreeTraitUnit@@$00@@IAEXPAUFreeTraitUnit@@I@Z
_TEXT	SEGMENT
_pVal$ = 8						; size = 4
_uiNumElements$ = 12					; size = 4
?Destroy@?$BaseVector@UFreeTraitUnit@@$00@@IAEXPAUFreeTraitUnit@@I@Z PROC ; BaseVector<FreeTraitUnit,1>::Destroy, COMDAT
; _this$ = ecx

; 221  : 		if( !bPODType){
; 222  : 			for(unsigned int i = 0; i < uiNumElements; ++i){
; 223  : 				pVal[i].~T();
; 224  : 			}
; 225  : 		}
; 226  : 	};

	ret	8
?Destroy@?$BaseVector@UFreeTraitUnit@@$00@@IAEXPAUFreeTraitUnit@@I@Z ENDP ; BaseVector<FreeTraitUnit,1>::Destroy
_TEXT	ENDS
PUBLIC	?capacity@?$vector@UMayaBonusChoice@@V?$allocator@UMayaBonusChoice@@@std@@@std@@QBEIXZ ; std::vector<MayaBonusChoice,std::allocator<MayaBonusChoice> >::capacity
; Function compile flags: /Ogtpy
; File c:\program files (x86)\microsoft visual studio 9.0\vc\include\vector
;	COMDAT ?capacity@?$vector@UMayaBonusChoice@@V?$allocator@UMayaBonusChoice@@@std@@@std@@QBEIXZ
_TEXT	SEGMENT
?capacity@?$vector@UMayaBonusChoice@@V?$allocator@UMayaBonusChoice@@@std@@@std@@QBEIXZ PROC ; std::vector<MayaBonusChoice,std::allocator<MayaBonusChoice> >::capacity, COMDAT
; _this$ = ecx

; 635  : 		return (_Myfirst == 0 ? 0 : _Myend - _Myfirst);

	mov	edx, DWORD PTR [ecx+4]
	test	edx, edx
	jne	SHORT $LN3@capacity@3
	xor	eax, eax

; 636  : 		}

	ret	0
$LN3@capacity@3:

; 635  : 		return (_Myfirst == 0 ? 0 : _Myend - _Myfirst);

	mov	eax, DWORD PTR [ecx+12]
	sub	eax, edx
	sar	eax, 3

; 636  : 		}

	ret	0
?capacity@?$vector@UMayaBonusChoice@@V?$allocator@UMayaBonusChoice@@@std@@@std@@QBEIXZ ENDP ; std::vector<MayaBonusChoice,std::allocator<MayaBonusChoice> >::capacity
_TEXT	ENDS
PUBLIC	??1?$_Container_base_aux_alloc_empty@V?$allocator@UMayaBonusChoice@@@std@@@std@@IAE@XZ ; std::_Container_base_aux_alloc_empty<std::allocator<MayaBonusChoice> >::~_Container_base_aux_alloc_empty<std::allocator<MayaBonusChoice> >
; Function compile flags: /Ogtpy
; File c:\program files (x86)\microsoft visual studio 9.0\vc\include\xutility
;	COMDAT ??1?$_Container_base_aux_alloc_empty@V?$allocator@UMayaBonusChoice@@@std@@@std@@IAE@XZ
_TEXT	SEGMENT
??1?$_Container_base_aux_alloc_empty@V?$allocator@UMayaBonusChoice@@@std@@@std@@IAE@XZ PROC ; std::_Container_base_aux_alloc_empty<std::allocator<MayaBonusChoice> >::~_Container_base_aux_alloc_empty<std::allocator<MayaBonusChoice> >, COMDAT
; _this$ = ecx

; 627  : 	~_Container_base_aux_alloc_empty() { }

	ret	0
??1?$_Container_base_aux_alloc_empty@V?$allocator@UMayaBonusChoice@@@std@@@std@@IAE@XZ ENDP ; std::_Container_base_aux_alloc_empty<std::allocator<MayaBonusChoice> >::~_Container_base_aux_alloc_empty<std::allocator<MayaBonusChoice> >
_TEXT	ENDS
PUBLIC	??0?$allocator@UMayaBonusChoice@@@std@@QAE@XZ	; std::allocator<MayaBonusChoice>::allocator<MayaBonusChoice>
; Function compile flags: /Ogtpy
; File c:\program files (x86)\microsoft visual studio 9.0\vc\include\xmemory
;	COMDAT ??0?$allocator@UMayaBonusChoice@@@std@@QAE@XZ
_TEXT	SEGMENT
??0?$allocator@UMayaBonusChoice@@@std@@QAE@XZ PROC	; std::allocator<MayaBonusChoice>::allocator<MayaBonusChoice>, COMDAT
; _this$ = ecx

; 119  : 	allocator() _THROW0()

	mov	eax, ecx

; 120  : 		{	// construct default allocator (do nothing)
; 121  : 		}

	ret	0
??0?$allocator@UMayaBonusChoice@@@std@@QAE@XZ ENDP	; std::allocator<MayaBonusChoice>::allocator<MayaBonusChoice>
_TEXT	ENDS
PUBLIC	??0const_iterator@?$_Tree@V?$_Tmap_traits@HHU?$less@H@std@@V?$allocator@U?$pair@$$CBHH@std@@@2@$00@std@@@std@@QAE@PAU_Node@?$_Tree_nod@V?$_Tmap_traits@HHU?$less@H@std@@V?$allocator@U?$pair@$$CBHH@std@@@2@$00@std@@@2@@Z ; std::_Tree<std::_Tmap_traits<int,int,std::less<int>,std::allocator<std::pair<int const ,int> >,1> >::const_iterator::const_iterator
; Function compile flags: /Ogtpy
; File c:\program files (x86)\microsoft visual studio 9.0\vc\include\xtree
;	COMDAT ??0const_iterator@?$_Tree@V?$_Tmap_traits@HHU?$less@H@std@@V?$allocator@U?$pair@$$CBHH@std@@@2@$00@std@@@std@@QAE@PAU_Node@?$_Tree_nod@V?$_Tmap_traits@HHU?$less@H@std@@V?$allocator@U?$pair@$$CBHH@std@@@2@$00@std@@@2@@Z
_TEXT	SEGMENT
__Pnode$ = 8						; size = 4
??0const_iterator@?$_Tree@V?$_Tmap_traits@HHU?$less@H@std@@V?$allocator@U?$pair@$$CBHH@std@@@2@$00@std@@@std@@QAE@PAU_Node@?$_Tree_nod@V?$_Tmap_traits@HHU?$less@H@std@@V?$allocator@U?$pair@$$CBHH@std@@@2@$00@std@@@2@@Z PROC ; std::_Tree<std::_Tmap_traits<int,int,std::less<int>,std::allocator<std::pair<int const ,int> >,1> >::const_iterator::const_iterator, COMDAT
; _this$ = ecx

; 244  : 			{	// construct with node pointer _Pnode

	mov	eax, ecx
	mov	ecx, DWORD PTR __Pnode$[esp-4]
	mov	DWORD PTR [eax], ecx

; 245  : 			}

	ret	4
??0const_iterator@?$_Tree@V?$_Tmap_traits@HHU?$less@H@std@@V?$allocator@U?$pair@$$CBHH@std@@@2@$00@std@@@std@@QAE@PAU_Node@?$_Tree_nod@V?$_Tmap_traits@HHU?$less@H@std@@V?$allocator@U?$pair@$$CBHH@std@@@2@$00@std@@@2@@Z ENDP ; std::_Tree<std::_Tmap_traits<int,int,std::less<int>,std::allocator<std::pair<int const ,int> >,1> >::const_iterator::const_iterator
_TEXT	ENDS
PUBLIC	??8const_iterator@?$_Tree@V?$_Tmap_traits@HHU?$less@H@std@@V?$allocator@U?$pair@$$CBHH@std@@@2@$00@std@@@std@@QBE_NABV012@@Z ; std::_Tree<std::_Tmap_traits<int,int,std::less<int>,std::allocator<std::pair<int const ,int> >,1> >::const_iterator::operator==
; Function compile flags: /Ogtpy
;	COMDAT ??8const_iterator@?$_Tree@V?$_Tmap_traits@HHU?$less@H@std@@V?$allocator@U?$pair@$$CBHH@std@@@2@$00@std@@@std@@QBE_NABV012@@Z
_TEXT	SEGMENT
__Right$ = 8						; size = 4
??8const_iterator@?$_Tree@V?$_Tmap_traits@HHU?$less@H@std@@V?$allocator@U?$pair@$$CBHH@std@@@2@$00@std@@@std@@QBE_NABV012@@Z PROC ; std::_Tree<std::_Tmap_traits<int,int,std::less<int>,std::allocator<std::pair<int const ,int> >,1> >::const_iterator::operator==, COMDAT
; _this$ = ecx

; 300  : 
; 301  :  #if _HAS_ITERATOR_DEBUGGING
; 302  : 			if (this->_Mycont == 0 || this->_Mycont != _Right._Mycont)
; 303  : 				{
; 304  : 				_DEBUG_ERROR("map/set iterators incompatible");
; 305  : 				_SCL_SECURE_INVALID_ARGUMENT;
; 306  : 				}
; 307  :  #else
; 308  : 			_SCL_SECURE_VALIDATE(this->_Has_container() && this->_Same_container(_Right));
; 309  :  #endif /* _HAS_ITERATOR_DEBUGGING */
; 310  : 
; 311  : 			return (_Ptr == _Right._Ptr);

	mov	eax, DWORD PTR [ecx]
	mov	edx, DWORD PTR __Right$[esp-4]
	xor	ecx, ecx
	cmp	eax, DWORD PTR [edx]
	sete	cl
	mov	al, cl

; 312  : 			}

	ret	4
??8const_iterator@?$_Tree@V?$_Tmap_traits@HHU?$less@H@std@@V?$allocator@U?$pair@$$CBHH@std@@@2@$00@std@@@std@@QBE_NABV012@@Z ENDP ; std::_Tree<std::_Tmap_traits<int,int,std::less<int>,std::allocator<std::pair<int const ,int> >,1> >::const_iterator::operator==
_TEXT	ENDS
PUBLIC	?_Mynode@const_iterator@?$_Tree@V?$_Tmap_traits@HHU?$less@H@std@@V?$allocator@U?$pair@$$CBHH@std@@@2@$00@std@@@std@@QBEPAU_Node@?$_Tree_nod@V?$_Tmap_traits@HHU?$less@H@std@@V?$allocator@U?$pair@$$CBHH@std@@@2@$00@std@@@3@XZ ; std::_Tree<std::_Tmap_traits<int,int,std::less<int>,std::allocator<std::pair<int const ,int> >,1> >::const_iterator::_Mynode
; Function compile flags: /Ogtpy
;	COMDAT ?_Mynode@const_iterator@?$_Tree@V?$_Tmap_traits@HHU?$less@H@std@@V?$allocator@U?$pair@$$CBHH@std@@@2@$00@std@@@std@@QBEPAU_Node@?$_Tree_nod@V?$_Tmap_traits@HHU?$less@H@std@@V?$allocator@U?$pair@$$CBHH@std@@@2@$00@std@@@3@XZ
_TEXT	SEGMENT
?_Mynode@const_iterator@?$_Tree@V?$_Tmap_traits@HHU?$less@H@std@@V?$allocator@U?$pair@$$CBHH@std@@@2@$00@std@@@std@@QBEPAU_Node@?$_Tree_nod@V?$_Tmap_traits@HHU?$less@H@std@@V?$allocator@U?$pair@$$CBHH@std@@@2@$00@std@@@3@XZ PROC ; std::_Tree<std::_Tmap_traits<int,int,std::less<int>,std::allocator<std::pair<int const ,int> >,1> >::const_iterator::_Mynode, COMDAT
; _this$ = ecx

; 410  : 			return (_Ptr);

	mov	eax, DWORD PTR [ecx]

; 411  : 			}

	ret	0
?_Mynode@const_iterator@?$_Tree@V?$_Tmap_traits@HHU?$less@H@std@@V?$allocator@U?$pair@$$CBHH@std@@@2@$00@std@@@std@@QBEPAU_Node@?$_Tree_nod@V?$_Tmap_traits@HHU?$less@H@std@@V?$allocator@U?$pair@$$CBHH@std@@@2@$00@std@@@3@XZ ENDP ; std::_Tree<std::_Tmap_traits<int,int,std::less<int>,std::allocator<std::pair<int const ,int> >,1> >::const_iterator::_Mynode
_TEXT	ENDS
PUBLIC	??D?$_Vector_const_iterator@PAVCvTraitEntry@@V?$allocator@PAVCvTraitEntry@@@std@@@std@@QBEABQAVCvTraitEntry@@XZ ; std::_Vector_const_iterator<CvTraitEntry *,std::allocator<CvTraitEntry *> >::operator*
; Function compile flags: /Ogtpy
; File c:\program files (x86)\microsoft visual studio 9.0\vc\include\vector
;	COMDAT ??D?$_Vector_const_iterator@PAVCvTraitEntry@@V?$allocator@PAVCvTraitEntry@@@std@@@std@@QBEABQAVCvTraitEntry@@XZ
_TEXT	SEGMENT
??D?$_Vector_const_iterator@PAVCvTraitEntry@@V?$allocator@PAVCvTraitEntry@@@std@@@std@@QBEABQAVCvTraitEntry@@XZ PROC ; std::_Vector_const_iterator<CvTraitEntry *,std::allocator<CvTraitEntry *> >::operator*, COMDAT
; _this$ = ecx

; 92   : 
; 93   :  #if _HAS_ITERATOR_DEBUGGING
; 94   : 		if (this->_Mycont == 0
; 95   : 			|| _Myptr < ((_Myvec *)this->_Mycont)->_Myfirst
; 96   : 			|| ((_Myvec *)this->_Mycont)->_Mylast <= _Myptr)
; 97   : 			{
; 98   : 			_DEBUG_ERROR("vector iterator not dereferencable");
; 99   : 			_SCL_SECURE_OUT_OF_RANGE;
; 100  : 			}
; 101  :  #else
; 102  :  		_SCL_SECURE_VALIDATE(this->_Has_container());
; 103  : 		_SCL_SECURE_VALIDATE_RANGE(_Myptr < ((_Myvec *)(this->_Getmycont()))->_Mylast);
; 104  :  #endif /* _HAS_ITERATOR_DEBUGGING */
; 105  : 
; 106  : 		return (*_Myptr);

	mov	eax, DWORD PTR [ecx]

; 107  : 		}

	ret	0
??D?$_Vector_const_iterator@PAVCvTraitEntry@@V?$allocator@PAVCvTraitEntry@@@std@@@std@@QBEABQAVCvTraitEntry@@XZ ENDP ; std::_Vector_const_iterator<CvTraitEntry *,std::allocator<CvTraitEntry *> >::operator*
_TEXT	ENDS
PUBLIC	??E?$_Vector_const_iterator@PAVCvTraitEntry@@V?$allocator@PAVCvTraitEntry@@@std@@@std@@QAEAAV01@XZ ; std::_Vector_const_iterator<CvTraitEntry *,std::allocator<CvTraitEntry *> >::operator++
; Function compile flags: /Ogtpy
;	COMDAT ??E?$_Vector_const_iterator@PAVCvTraitEntry@@V?$allocator@PAVCvTraitEntry@@@std@@@std@@QAEAAV01@XZ
_TEXT	SEGMENT
??E?$_Vector_const_iterator@PAVCvTraitEntry@@V?$allocator@PAVCvTraitEntry@@@std@@@std@@QAEAAV01@XZ PROC ; std::_Vector_const_iterator<CvTraitEntry *,std::allocator<CvTraitEntry *> >::operator++, COMDAT
; _this$ = ecx

; 115  : 		{	// preincrement

	mov	eax, ecx

; 116  : 		_SCL_SECURE_VALIDATE(this->_Has_container());
; 117  : 		_SCL_SECURE_VALIDATE_RANGE(_Myptr < ((_Myvec *)(this->_Getmycont()))->_Mylast);
; 118  : 
; 119  :  #if _HAS_ITERATOR_DEBUGGING
; 120  : 		if (this->_Mycont == 0
; 121  : 			|| ((_Myvec *)this->_Mycont)->_Mylast <= _Myptr)
; 122  : 			_DEBUG_ERROR("vector iterator not incrementable");
; 123  :  #endif /* _HAS_ITERATOR_DEBUGGING */
; 124  : 
; 125  : 		++_Myptr;

	add	DWORD PTR [eax], 4

; 126  : 		return (*this);
; 127  : 		}

	ret	0
??E?$_Vector_const_iterator@PAVCvTraitEntry@@V?$allocator@PAVCvTraitEntry@@@std@@@std@@QAEAAV01@XZ ENDP ; std::_Vector_const_iterator<CvTraitEntry *,std::allocator<CvTraitEntry *> >::operator++
_TEXT	ENDS
PUBLIC	??8?$_Vector_const_iterator@PAVCvTraitEntry@@V?$allocator@PAVCvTraitEntry@@@std@@@std@@QBE_NABV01@@Z ; std::_Vector_const_iterator<CvTraitEntry *,std::allocator<CvTraitEntry *> >::operator==
; Function compile flags: /Ogtpy
;	COMDAT ??8?$_Vector_const_iterator@PAVCvTraitEntry@@V?$allocator@PAVCvTraitEntry@@@std@@@std@@QBE_NABV01@@Z
_TEXT	SEGMENT
__Right$ = 8						; size = 4
??8?$_Vector_const_iterator@PAVCvTraitEntry@@V?$allocator@PAVCvTraitEntry@@@std@@@std@@QBE_NABV01@@Z PROC ; std::_Vector_const_iterator<CvTraitEntry *,std::allocator<CvTraitEntry *> >::operator==, COMDAT
; _this$ = ecx

; 204  : 
; 205  :  #if _HAS_ITERATOR_DEBUGGING
; 206  : 		_Compat(_Right);
; 207  :  #else
; 208  : 		_SCL_SECURE_VALIDATE(this->_Has_container() && this->_Same_container(_Right));
; 209  :  #endif /* _HAS_ITERATOR_DEBUGGING */
; 210  : 
; 211  : 		return (_Myptr == _Right._Myptr);

	mov	eax, DWORD PTR [ecx]
	mov	edx, DWORD PTR __Right$[esp-4]
	xor	ecx, ecx
	cmp	eax, DWORD PTR [edx]
	sete	cl
	mov	al, cl

; 212  : 		}

	ret	4
??8?$_Vector_const_iterator@PAVCvTraitEntry@@V?$allocator@PAVCvTraitEntry@@@std@@@std@@QBE_NABV01@@Z ENDP ; std::_Vector_const_iterator<CvTraitEntry *,std::allocator<CvTraitEntry *> >::operator==
_TEXT	ENDS
PUBLIC	??0?$_Vector_const_iterator@UMayaBonusChoice@@V?$allocator@UMayaBonusChoice@@@std@@@std@@QAE@PAUMayaBonusChoice@@@Z ; std::_Vector_const_iterator<MayaBonusChoice,std::allocator<MayaBonusChoice> >::_Vector_const_iterator<MayaBonusChoice,std::allocator<MayaBonusChoice> >
; Function compile flags: /Ogtpy
;	COMDAT ??0?$_Vector_const_iterator@UMayaBonusChoice@@V?$allocator@UMayaBonusChoice@@@std@@@std@@QAE@PAUMayaBonusChoice@@@Z
_TEXT	SEGMENT
__Ptr$ = 8						; size = 4
??0?$_Vector_const_iterator@UMayaBonusChoice@@V?$allocator@UMayaBonusChoice@@@std@@@std@@QAE@PAUMayaBonusChoice@@@Z PROC ; std::_Vector_const_iterator<MayaBonusChoice,std::allocator<MayaBonusChoice> >::_Vector_const_iterator<MayaBonusChoice,std::allocator<MayaBonusChoice> >, COMDAT
; _this$ = ecx

; 84   : 	explicit _Vector_const_iterator(_Tptr _Ptr)

	mov	eax, ecx

; 85   : 		{	// construct with pointer _Ptr
; 86   : 		_Myptr = _Ptr;

	mov	ecx, DWORD PTR __Ptr$[esp-4]
	mov	DWORD PTR [eax], ecx

; 87   : 		}

	ret	4
??0?$_Vector_const_iterator@UMayaBonusChoice@@V?$allocator@UMayaBonusChoice@@@std@@@std@@QAE@PAUMayaBonusChoice@@@Z ENDP ; std::_Vector_const_iterator<MayaBonusChoice,std::allocator<MayaBonusChoice> >::_Vector_const_iterator<MayaBonusChoice,std::allocator<MayaBonusChoice> >
_TEXT	ENDS
PUBLIC	??D?$_Vector_const_iterator@UMayaBonusChoice@@V?$allocator@UMayaBonusChoice@@@std@@@std@@QBEABUMayaBonusChoice@@XZ ; std::_Vector_const_iterator<MayaBonusChoice,std::allocator<MayaBonusChoice> >::operator*
; Function compile flags: /Ogtpy
;	COMDAT ??D?$_Vector_const_iterator@UMayaBonusChoice@@V?$allocator@UMayaBonusChoice@@@std@@@std@@QBEABUMayaBonusChoice@@XZ
_TEXT	SEGMENT
??D?$_Vector_const_iterator@UMayaBonusChoice@@V?$allocator@UMayaBonusChoice@@@std@@@std@@QBEABUMayaBonusChoice@@XZ PROC ; std::_Vector_const_iterator<MayaBonusChoice,std::allocator<MayaBonusChoice> >::operator*, COMDAT
; _this$ = ecx

; 92   : 
; 93   :  #if _HAS_ITERATOR_DEBUGGING
; 94   : 		if (this->_Mycont == 0
; 95   : 			|| _Myptr < ((_Myvec *)this->_Mycont)->_Myfirst
; 96   : 			|| ((_Myvec *)this->_Mycont)->_Mylast <= _Myptr)
; 97   : 			{
; 98   : 			_DEBUG_ERROR("vector iterator not dereferencable");
; 99   : 			_SCL_SECURE_OUT_OF_RANGE;
; 100  : 			}
; 101  :  #else
; 102  :  		_SCL_SECURE_VALIDATE(this->_Has_container());
; 103  : 		_SCL_SECURE_VALIDATE_RANGE(_Myptr < ((_Myvec *)(this->_Getmycont()))->_Mylast);
; 104  :  #endif /* _HAS_ITERATOR_DEBUGGING */
; 105  : 
; 106  : 		return (*_Myptr);

	mov	eax, DWORD PTR [ecx]

; 107  : 		}

	ret	0
??D?$_Vector_const_iterator@UMayaBonusChoice@@V?$allocator@UMayaBonusChoice@@@std@@@std@@QBEABUMayaBonusChoice@@XZ ENDP ; std::_Vector_const_iterator<MayaBonusChoice,std::allocator<MayaBonusChoice> >::operator*
_TEXT	ENDS
PUBLIC	??E?$_Vector_const_iterator@UMayaBonusChoice@@V?$allocator@UMayaBonusChoice@@@std@@@std@@QAEAAV01@XZ ; std::_Vector_const_iterator<MayaBonusChoice,std::allocator<MayaBonusChoice> >::operator++
; Function compile flags: /Ogtpy
;	COMDAT ??E?$_Vector_const_iterator@UMayaBonusChoice@@V?$allocator@UMayaBonusChoice@@@std@@@std@@QAEAAV01@XZ
_TEXT	SEGMENT
??E?$_Vector_const_iterator@UMayaBonusChoice@@V?$allocator@UMayaBonusChoice@@@std@@@std@@QAEAAV01@XZ PROC ; std::_Vector_const_iterator<MayaBonusChoice,std::allocator<MayaBonusChoice> >::operator++, COMDAT
; _this$ = ecx

; 115  : 		{	// preincrement

	mov	eax, ecx

; 116  : 		_SCL_SECURE_VALIDATE(this->_Has_container());
; 117  : 		_SCL_SECURE_VALIDATE_RANGE(_Myptr < ((_Myvec *)(this->_Getmycont()))->_Mylast);
; 118  : 
; 119  :  #if _HAS_ITERATOR_DEBUGGING
; 120  : 		if (this->_Mycont == 0
; 121  : 			|| ((_Myvec *)this->_Mycont)->_Mylast <= _Myptr)
; 122  : 			_DEBUG_ERROR("vector iterator not incrementable");
; 123  :  #endif /* _HAS_ITERATOR_DEBUGGING */
; 124  : 
; 125  : 		++_Myptr;

	add	DWORD PTR [eax], 8

; 126  : 		return (*this);
; 127  : 		}

	ret	0
??E?$_Vector_const_iterator@UMayaBonusChoice@@V?$allocator@UMayaBonusChoice@@@std@@@std@@QAEAAV01@XZ ENDP ; std::_Vector_const_iterator<MayaBonusChoice,std::allocator<MayaBonusChoice> >::operator++
_TEXT	ENDS
PUBLIC	??8?$_Vector_const_iterator@UMayaBonusChoice@@V?$allocator@UMayaBonusChoice@@@std@@@std@@QBE_NABV01@@Z ; std::_Vector_const_iterator<MayaBonusChoice,std::allocator<MayaBonusChoice> >::operator==
; Function compile flags: /Ogtpy
;	COMDAT ??8?$_Vector_const_iterator@UMayaBonusChoice@@V?$allocator@UMayaBonusChoice@@@std@@@std@@QBE_NABV01@@Z
_TEXT	SEGMENT
__Right$ = 8						; size = 4
??8?$_Vector_const_iterator@UMayaBonusChoice@@V?$allocator@UMayaBonusChoice@@@std@@@std@@QBE_NABV01@@Z PROC ; std::_Vector_const_iterator<MayaBonusChoice,std::allocator<MayaBonusChoice> >::operator==, COMDAT
; _this$ = ecx

; 204  : 
; 205  :  #if _HAS_ITERATOR_DEBUGGING
; 206  : 		_Compat(_Right);
; 207  :  #else
; 208  : 		_SCL_SECURE_VALIDATE(this->_Has_container() && this->_Same_container(_Right));
; 209  :  #endif /* _HAS_ITERATOR_DEBUGGING */
; 210  : 
; 211  : 		return (_Myptr == _Right._Myptr);

	mov	eax, DWORD PTR [ecx]
	mov	edx, DWORD PTR __Right$[esp-4]
	xor	ecx, ecx
	cmp	eax, DWORD PTR [edx]
	sete	cl
	mov	al, cl

; 212  : 		}

	ret	4
??8?$_Vector_const_iterator@UMayaBonusChoice@@V?$allocator@UMayaBonusChoice@@@std@@@std@@QBE_NABV01@@Z ENDP ; std::_Vector_const_iterator<MayaBonusChoice,std::allocator<MayaBonusChoice> >::operator==
_TEXT	ENDS
PUBLIC	??0?$_Vector_iterator@UMayaBonusChoice@@V?$allocator@UMayaBonusChoice@@@std@@@std@@QAE@PAUMayaBonusChoice@@@Z ; std::_Vector_iterator<MayaBonusChoice,std::allocator<MayaBonusChoice> >::_Vector_iterator<MayaBonusChoice,std::allocator<MayaBonusChoice> >
; Function compile flags: /Ogtpy
;	COMDAT ??0?$_Vector_iterator@UMayaBonusChoice@@V?$allocator@UMayaBonusChoice@@@std@@@std@@QAE@PAUMayaBonusChoice@@@Z
_TEXT	SEGMENT
__Ptr$ = 8						; size = 4
??0?$_Vector_iterator@UMayaBonusChoice@@V?$allocator@UMayaBonusChoice@@@std@@@std@@QAE@PAUMayaBonusChoice@@@Z PROC ; std::_Vector_iterator<MayaBonusChoice,std::allocator<MayaBonusChoice> >::_Vector_iterator<MayaBonusChoice,std::allocator<MayaBonusChoice> >, COMDAT
; _this$ = ecx

; 333  : 		{	// construct with pointer _Ptr

	mov	eax, ecx
	mov	ecx, DWORD PTR __Ptr$[esp-4]
	mov	DWORD PTR [eax], ecx

; 334  : 		}

	ret	4
??0?$_Vector_iterator@UMayaBonusChoice@@V?$allocator@UMayaBonusChoice@@@std@@@std@@QAE@PAUMayaBonusChoice@@@Z ENDP ; std::_Vector_iterator<MayaBonusChoice,std::allocator<MayaBonusChoice> >::_Vector_iterator<MayaBonusChoice,std::allocator<MayaBonusChoice> >
_TEXT	ENDS
PUBLIC	?_Isnil@?$_Tree@V?$_Tmap_traits@HHU?$less@H@std@@V?$allocator@U?$pair@$$CBHH@std@@@2@$00@std@@@std@@KAAADPAU_Node@?$_Tree_nod@V?$_Tmap_traits@HHU?$less@H@std@@V?$allocator@U?$pair@$$CBHH@std@@@2@$00@std@@@2@@Z ; std::_Tree<std::_Tmap_traits<int,int,std::less<int>,std::allocator<std::pair<int const ,int> >,1> >::_Isnil
; Function compile flags: /Ogtpy
; File c:\program files (x86)\microsoft visual studio 9.0\vc\include\xtree
;	COMDAT ?_Isnil@?$_Tree@V?$_Tmap_traits@HHU?$less@H@std@@V?$allocator@U?$pair@$$CBHH@std@@@2@$00@std@@@std@@KAAADPAU_Node@?$_Tree_nod@V?$_Tmap_traits@HHU?$less@H@std@@V?$allocator@U?$pair@$$CBHH@std@@@2@$00@std@@@2@@Z
_TEXT	SEGMENT
__Pnode$ = 8						; size = 4
?_Isnil@?$_Tree@V?$_Tmap_traits@HHU?$less@H@std@@V?$allocator@U?$pair@$$CBHH@std@@@2@$00@std@@@std@@KAAADPAU_Node@?$_Tree_nod@V?$_Tmap_traits@HHU?$less@H@std@@V?$allocator@U?$pair@$$CBHH@std@@@2@$00@std@@@2@@Z PROC ; std::_Tree<std::_Tmap_traits<int,int,std::less<int>,std::allocator<std::pair<int const ,int> >,1> >::_Isnil, COMDAT

; 157  : 		return ((_Charref)(*_Pnode)._Isnil);

	mov	eax, DWORD PTR __Pnode$[esp-4]
	add	eax, 21					; 00000015H

; 158  : 		}

	ret	0
?_Isnil@?$_Tree@V?$_Tmap_traits@HHU?$less@H@std@@V?$allocator@U?$pair@$$CBHH@std@@@2@$00@std@@@std@@KAAADPAU_Node@?$_Tree_nod@V?$_Tmap_traits@HHU?$less@H@std@@V?$allocator@U?$pair@$$CBHH@std@@@2@$00@std@@@2@@Z ENDP ; std::_Tree<std::_Tmap_traits<int,int,std::less<int>,std::allocator<std::pair<int const ,int> >,1> >::_Isnil
_TEXT	ENDS
PUBLIC	?_Left@?$_Tree@V?$_Tmap_traits@HHU?$less@H@std@@V?$allocator@U?$pair@$$CBHH@std@@@2@$00@std@@@std@@KAAAPAU_Node@?$_Tree_nod@V?$_Tmap_traits@HHU?$less@H@std@@V?$allocator@U?$pair@$$CBHH@std@@@2@$00@std@@@2@PAU342@@Z ; std::_Tree<std::_Tmap_traits<int,int,std::less<int>,std::allocator<std::pair<int const ,int> >,1> >::_Left
; Function compile flags: /Ogtpy
;	COMDAT ?_Left@?$_Tree@V?$_Tmap_traits@HHU?$less@H@std@@V?$allocator@U?$pair@$$CBHH@std@@@2@$00@std@@@std@@KAAAPAU_Node@?$_Tree_nod@V?$_Tmap_traits@HHU?$less@H@std@@V?$allocator@U?$pair@$$CBHH@std@@@2@$00@std@@@2@PAU342@@Z
_TEXT	SEGMENT
__Pnode$ = 8						; size = 4
?_Left@?$_Tree@V?$_Tmap_traits@HHU?$less@H@std@@V?$allocator@U?$pair@$$CBHH@std@@@2@$00@std@@@std@@KAAAPAU_Node@?$_Tree_nod@V?$_Tmap_traits@HHU?$less@H@std@@V?$allocator@U?$pair@$$CBHH@std@@@2@$00@std@@@2@PAU342@@Z PROC ; std::_Tree<std::_Tmap_traits<int,int,std::less<int>,std::allocator<std::pair<int const ,int> >,1> >::_Left, COMDAT

; 167  : 		return ((_Nodepref)(*_Pnode)._Left);

	mov	eax, DWORD PTR __Pnode$[esp-4]

; 168  : 		}

	ret	0
?_Left@?$_Tree@V?$_Tmap_traits@HHU?$less@H@std@@V?$allocator@U?$pair@$$CBHH@std@@@2@$00@std@@@std@@KAAAPAU_Node@?$_Tree_nod@V?$_Tmap_traits@HHU?$less@H@std@@V?$allocator@U?$pair@$$CBHH@std@@@2@$00@std@@@2@PAU342@@Z ENDP ; std::_Tree<std::_Tmap_traits<int,int,std::less<int>,std::allocator<std::pair<int const ,int> >,1> >::_Left
_TEXT	ENDS
PUBLIC	?_Parent@?$_Tree@V?$_Tmap_traits@HHU?$less@H@std@@V?$allocator@U?$pair@$$CBHH@std@@@2@$00@std@@@std@@KAAAPAU_Node@?$_Tree_nod@V?$_Tmap_traits@HHU?$less@H@std@@V?$allocator@U?$pair@$$CBHH@std@@@2@$00@std@@@2@PAU342@@Z ; std::_Tree<std::_Tmap_traits<int,int,std::less<int>,std::allocator<std::pair<int const ,int> >,1> >::_Parent
; Function compile flags: /Ogtpy
;	COMDAT ?_Parent@?$_Tree@V?$_Tmap_traits@HHU?$less@H@std@@V?$allocator@U?$pair@$$CBHH@std@@@2@$00@std@@@std@@KAAAPAU_Node@?$_Tree_nod@V?$_Tmap_traits@HHU?$less@H@std@@V?$allocator@U?$pair@$$CBHH@std@@@2@$00@std@@@2@PAU342@@Z
_TEXT	SEGMENT
__Pnode$ = 8						; size = 4
?_Parent@?$_Tree@V?$_Tmap_traits@HHU?$less@H@std@@V?$allocator@U?$pair@$$CBHH@std@@@2@$00@std@@@std@@KAAAPAU_Node@?$_Tree_nod@V?$_Tmap_traits@HHU?$less@H@std@@V?$allocator@U?$pair@$$CBHH@std@@@2@$00@std@@@2@PAU342@@Z PROC ; std::_Tree<std::_Tmap_traits<int,int,std::less<int>,std::allocator<std::pair<int const ,int> >,1> >::_Parent, COMDAT

; 172  : 		return ((_Nodepref)(*_Pnode)._Parent);

	mov	eax, DWORD PTR __Pnode$[esp-4]
	add	eax, 4

; 173  : 		}

	ret	0
?_Parent@?$_Tree@V?$_Tmap_traits@HHU?$less@H@std@@V?$allocator@U?$pair@$$CBHH@std@@@2@$00@std@@@std@@KAAAPAU_Node@?$_Tree_nod@V?$_Tmap_traits@HHU?$less@H@std@@V?$allocator@U?$pair@$$CBHH@std@@@2@$00@std@@@2@PAU342@@Z ENDP ; std::_Tree<std::_Tmap_traits<int,int,std::less<int>,std::allocator<std::pair<int const ,int> >,1> >::_Parent
_TEXT	ENDS
PUBLIC	?_Right@?$_Tree@V?$_Tmap_traits@HHU?$less@H@std@@V?$allocator@U?$pair@$$CBHH@std@@@2@$00@std@@@std@@KAAAPAU_Node@?$_Tree_nod@V?$_Tmap_traits@HHU?$less@H@std@@V?$allocator@U?$pair@$$CBHH@std@@@2@$00@std@@@2@PAU342@@Z ; std::_Tree<std::_Tmap_traits<int,int,std::less<int>,std::allocator<std::pair<int const ,int> >,1> >::_Right
; Function compile flags: /Ogtpy
;	COMDAT ?_Right@?$_Tree@V?$_Tmap_traits@HHU?$less@H@std@@V?$allocator@U?$pair@$$CBHH@std@@@2@$00@std@@@std@@KAAAPAU_Node@?$_Tree_nod@V?$_Tmap_traits@HHU?$less@H@std@@V?$allocator@U?$pair@$$CBHH@std@@@2@$00@std@@@2@PAU342@@Z
_TEXT	SEGMENT
__Pnode$ = 8						; size = 4
?_Right@?$_Tree@V?$_Tmap_traits@HHU?$less@H@std@@V?$allocator@U?$pair@$$CBHH@std@@@2@$00@std@@@std@@KAAAPAU_Node@?$_Tree_nod@V?$_Tmap_traits@HHU?$less@H@std@@V?$allocator@U?$pair@$$CBHH@std@@@2@$00@std@@@2@PAU342@@Z PROC ; std::_Tree<std::_Tmap_traits<int,int,std::less<int>,std::allocator<std::pair<int const ,int> >,1> >::_Right, COMDAT

; 177  : 		return ((_Nodepref)(*_Pnode)._Right);

	mov	eax, DWORD PTR __Pnode$[esp-4]
	add	eax, 8

; 178  : 		}

	ret	0
?_Right@?$_Tree@V?$_Tmap_traits@HHU?$less@H@std@@V?$allocator@U?$pair@$$CBHH@std@@@2@$00@std@@@std@@KAAAPAU_Node@?$_Tree_nod@V?$_Tmap_traits@HHU?$less@H@std@@V?$allocator@U?$pair@$$CBHH@std@@@2@$00@std@@@2@PAU342@@Z ENDP ; std::_Tree<std::_Tmap_traits<int,int,std::less<int>,std::allocator<std::pair<int const ,int> >,1> >::_Right
_TEXT	ENDS
PUBLIC	?_Myval@?$_Tree@V?$_Tmap_traits@HHU?$less@H@std@@V?$allocator@U?$pair@$$CBHH@std@@@2@$00@std@@@std@@KAAAU?$pair@$$CBHH@2@PAU_Node@?$_Tree_nod@V?$_Tmap_traits@HHU?$less@H@std@@V?$allocator@U?$pair@$$CBHH@std@@@2@$00@std@@@2@@Z ; std::_Tree<std::_Tmap_traits<int,int,std::less<int>,std::allocator<std::pair<int const ,int> >,1> >::_Myval
; Function compile flags: /Ogtpy
;	COMDAT ?_Myval@?$_Tree@V?$_Tmap_traits@HHU?$less@H@std@@V?$allocator@U?$pair@$$CBHH@std@@@2@$00@std@@@std@@KAAAU?$pair@$$CBHH@2@PAU_Node@?$_Tree_nod@V?$_Tmap_traits@HHU?$less@H@std@@V?$allocator@U?$pair@$$CBHH@std@@@2@$00@std@@@2@@Z
_TEXT	SEGMENT
__Pnode$ = 8						; size = 4
?_Myval@?$_Tree@V?$_Tmap_traits@HHU?$less@H@std@@V?$allocator@U?$pair@$$CBHH@std@@@2@$00@std@@@std@@KAAAU?$pair@$$CBHH@2@PAU_Node@?$_Tree_nod@V?$_Tmap_traits@HHU?$less@H@std@@V?$allocator@U?$pair@$$CBHH@std@@@2@$00@std@@@2@@Z PROC ; std::_Tree<std::_Tmap_traits<int,int,std::less<int>,std::allocator<std::pair<int const ,int> >,1> >::_Myval, COMDAT

; 182  : 		return ((_Vref)(*_Pnode)._Myval);

	mov	eax, DWORD PTR __Pnode$[esp-4]
	add	eax, 12					; 0000000cH

; 183  : 		}

	ret	0
?_Myval@?$_Tree@V?$_Tmap_traits@HHU?$less@H@std@@V?$allocator@U?$pair@$$CBHH@std@@@2@$00@std@@@std@@KAAAU?$pair@$$CBHH@2@PAU_Node@?$_Tree_nod@V?$_Tmap_traits@HHU?$less@H@std@@V?$allocator@U?$pair@$$CBHH@std@@@2@$00@std@@@2@@Z ENDP ; std::_Tree<std::_Tmap_traits<int,int,std::less<int>,std::allocator<std::pair<int const ,int> >,1> >::_Myval
_TEXT	ENDS
PUBLIC	?size@?$_Tree@V?$_Tmap_traits@HHU?$less@H@std@@V?$allocator@U?$pair@$$CBHH@std@@@2@$00@std@@@std@@QBEIXZ ; std::_Tree<std::_Tmap_traits<int,int,std::less<int>,std::allocator<std::pair<int const ,int> >,1> >::size
; Function compile flags: /Ogtpy
;	COMDAT ?size@?$_Tree@V?$_Tmap_traits@HHU?$less@H@std@@V?$allocator@U?$pair@$$CBHH@std@@@2@$00@std@@@std@@QBEIXZ
_TEXT	SEGMENT
?size@?$_Tree@V?$_Tmap_traits@HHU?$less@H@std@@V?$allocator@U?$pair@$$CBHH@std@@@2@$00@std@@@std@@QBEIXZ PROC ; std::_Tree<std::_Tmap_traits<int,int,std::less<int>,std::allocator<std::pair<int const ,int> >,1> >::size, COMDAT
; _this$ = ecx

; 601  : 		return (_Mysize);

	mov	eax, DWORD PTR [ecx+8]

; 602  : 		}

	ret	0
?size@?$_Tree@V?$_Tmap_traits@HHU?$less@H@std@@V?$allocator@U?$pair@$$CBHH@std@@@2@$00@std@@@std@@QBEIXZ ENDP ; std::_Tree<std::_Tmap_traits<int,int,std::less<int>,std::allocator<std::pair<int const ,int> >,1> >::size
_TEXT	ENDS
PUBLIC	?_Lmost@?$_Tree@V?$_Tmap_traits@HHU?$less@H@std@@V?$allocator@U?$pair@$$CBHH@std@@@2@$00@std@@@std@@IBEAAPAU_Node@?$_Tree_nod@V?$_Tmap_traits@HHU?$less@H@std@@V?$allocator@U?$pair@$$CBHH@std@@@2@$00@std@@@2@XZ ; std::_Tree<std::_Tmap_traits<int,int,std::less<int>,std::allocator<std::pair<int const ,int> >,1> >::_Lmost
; Function compile flags: /Ogtpy
;	COMDAT ?_Lmost@?$_Tree@V?$_Tmap_traits@HHU?$less@H@std@@V?$allocator@U?$pair@$$CBHH@std@@@2@$00@std@@@std@@IBEAAPAU_Node@?$_Tree_nod@V?$_Tmap_traits@HHU?$less@H@std@@V?$allocator@U?$pair@$$CBHH@std@@@2@$00@std@@@2@XZ
_TEXT	SEGMENT
?_Lmost@?$_Tree@V?$_Tmap_traits@HHU?$less@H@std@@V?$allocator@U?$pair@$$CBHH@std@@@2@$00@std@@@std@@IBEAAPAU_Node@?$_Tree_nod@V?$_Tmap_traits@HHU?$less@H@std@@V?$allocator@U?$pair@$$CBHH@std@@@2@$00@std@@@2@XZ PROC ; std::_Tree<std::_Tmap_traits<int,int,std::less<int>,std::allocator<std::pair<int const ,int> >,1> >::_Lmost, COMDAT
; _this$ = ecx

; 1281 : 		return (_Left(_Myhead));

	mov	eax, DWORD PTR [ecx+4]

; 1282 : 		}

	ret	0
?_Lmost@?$_Tree@V?$_Tmap_traits@HHU?$less@H@std@@V?$allocator@U?$pair@$$CBHH@std@@@2@$00@std@@@std@@IBEAAPAU_Node@?$_Tree_nod@V?$_Tmap_traits@HHU?$less@H@std@@V?$allocator@U?$pair@$$CBHH@std@@@2@$00@std@@@2@XZ ENDP ; std::_Tree<std::_Tmap_traits<int,int,std::less<int>,std::allocator<std::pair<int const ,int> >,1> >::_Lmost
_TEXT	ENDS
PUBLIC	?_Max@?$_Tree@V?$_Tmap_traits@HHU?$less@H@std@@V?$allocator@U?$pair@$$CBHH@std@@@2@$00@std@@@std@@KAPAU_Node@?$_Tree_nod@V?$_Tmap_traits@HHU?$less@H@std@@V?$allocator@U?$pair@$$CBHH@std@@@2@$00@std@@@2@PAU342@@Z ; std::_Tree<std::_Tmap_traits<int,int,std::less<int>,std::allocator<std::pair<int const ,int> >,1> >::_Max
; Function compile flags: /Ogtpy
;	COMDAT ?_Max@?$_Tree@V?$_Tmap_traits@HHU?$less@H@std@@V?$allocator@U?$pair@$$CBHH@std@@@2@$00@std@@@std@@KAPAU_Node@?$_Tree_nod@V?$_Tmap_traits@HHU?$less@H@std@@V?$allocator@U?$pair@$$CBHH@std@@@2@$00@std@@@2@PAU342@@Z
_TEXT	SEGMENT
__Pnode$ = 8						; size = 4
?_Max@?$_Tree@V?$_Tmap_traits@HHU?$less@H@std@@V?$allocator@U?$pair@$$CBHH@std@@@2@$00@std@@@std@@KAPAU_Node@?$_Tree_nod@V?$_Tmap_traits@HHU?$less@H@std@@V?$allocator@U?$pair@$$CBHH@std@@@2@$00@std@@@2@PAU342@@Z PROC ; std::_Tree<std::_Tmap_traits<int,int,std::less<int>,std::allocator<std::pair<int const ,int> >,1> >::_Max, COMDAT

; 1306 : 		while (!_Isnil(_Right(_Pnode)))

	mov	eax, DWORD PTR __Pnode$[esp-4]
	mov	ecx, DWORD PTR [eax+8]
	cmp	BYTE PTR [ecx+21], 0
	jne	SHORT $LN1@Max
	npad	3
$LL2@Max:

; 1307 : 			_Pnode = _Right(_Pnode);

	mov	eax, ecx
	mov	ecx, DWORD PTR [eax+8]
	cmp	BYTE PTR [ecx+21], 0
	je	SHORT $LL2@Max
$LN1@Max:

; 1308 : 		return (_Pnode);
; 1309 : 		}

	ret	0
?_Max@?$_Tree@V?$_Tmap_traits@HHU?$less@H@std@@V?$allocator@U?$pair@$$CBHH@std@@@2@$00@std@@@std@@KAPAU_Node@?$_Tree_nod@V?$_Tmap_traits@HHU?$less@H@std@@V?$allocator@U?$pair@$$CBHH@std@@@2@$00@std@@@2@PAU342@@Z ENDP ; std::_Tree<std::_Tmap_traits<int,int,std::less<int>,std::allocator<std::pair<int const ,int> >,1> >::_Max
_TEXT	ENDS
PUBLIC	?_Min@?$_Tree@V?$_Tmap_traits@HHU?$less@H@std@@V?$allocator@U?$pair@$$CBHH@std@@@2@$00@std@@@std@@KAPAU_Node@?$_Tree_nod@V?$_Tmap_traits@HHU?$less@H@std@@V?$allocator@U?$pair@$$CBHH@std@@@2@$00@std@@@2@PAU342@@Z ; std::_Tree<std::_Tmap_traits<int,int,std::less<int>,std::allocator<std::pair<int const ,int> >,1> >::_Min
; Function compile flags: /Ogtpy
;	COMDAT ?_Min@?$_Tree@V?$_Tmap_traits@HHU?$less@H@std@@V?$allocator@U?$pair@$$CBHH@std@@@2@$00@std@@@std@@KAPAU_Node@?$_Tree_nod@V?$_Tmap_traits@HHU?$less@H@std@@V?$allocator@U?$pair@$$CBHH@std@@@2@$00@std@@@2@PAU342@@Z
_TEXT	SEGMENT
__Pnode$ = 8						; size = 4
?_Min@?$_Tree@V?$_Tmap_traits@HHU?$less@H@std@@V?$allocator@U?$pair@$$CBHH@std@@@2@$00@std@@@std@@KAPAU_Node@?$_Tree_nod@V?$_Tmap_traits@HHU?$less@H@std@@V?$allocator@U?$pair@$$CBHH@std@@@2@$00@std@@@2@PAU342@@Z PROC ; std::_Tree<std::_Tmap_traits<int,int,std::less<int>,std::allocator<std::pair<int const ,int> >,1> >::_Min, COMDAT

; 1313 : 		while (!_Isnil(_Left(_Pnode)))

	mov	eax, DWORD PTR __Pnode$[esp-4]
	mov	ecx, DWORD PTR [eax]
	cmp	BYTE PTR [ecx+21], 0
	jne	SHORT $LN1@Min
	npad	4
$LL2@Min:

; 1314 : 			_Pnode = _Left(_Pnode);

	mov	eax, ecx
	mov	ecx, DWORD PTR [eax]
	cmp	BYTE PTR [ecx+21], 0
	je	SHORT $LL2@Min
$LN1@Min:

; 1315 : 		return (_Pnode);
; 1316 : 		}

	ret	0
?_Min@?$_Tree@V?$_Tmap_traits@HHU?$less@H@std@@V?$allocator@U?$pair@$$CBHH@std@@@2@$00@std@@@std@@KAPAU_Node@?$_Tree_nod@V?$_Tmap_traits@HHU?$less@H@std@@V?$allocator@U?$pair@$$CBHH@std@@@2@$00@std@@@2@PAU342@@Z ENDP ; std::_Tree<std::_Tmap_traits<int,int,std::less<int>,std::allocator<std::pair<int const ,int> >,1> >::_Min
_TEXT	ENDS
PUBLIC	?_Rmost@?$_Tree@V?$_Tmap_traits@HHU?$less@H@std@@V?$allocator@U?$pair@$$CBHH@std@@@2@$00@std@@@std@@IBEAAPAU_Node@?$_Tree_nod@V?$_Tmap_traits@HHU?$less@H@std@@V?$allocator@U?$pair@$$CBHH@std@@@2@$00@std@@@2@XZ ; std::_Tree<std::_Tmap_traits<int,int,std::less<int>,std::allocator<std::pair<int const ,int> >,1> >::_Rmost
; Function compile flags: /Ogtpy
;	COMDAT ?_Rmost@?$_Tree@V?$_Tmap_traits@HHU?$less@H@std@@V?$allocator@U?$pair@$$CBHH@std@@@2@$00@std@@@std@@IBEAAPAU_Node@?$_Tree_nod@V?$_Tmap_traits@HHU?$less@H@std@@V?$allocator@U?$pair@$$CBHH@std@@@2@$00@std@@@2@XZ
_TEXT	SEGMENT
?_Rmost@?$_Tree@V?$_Tmap_traits@HHU?$less@H@std@@V?$allocator@U?$pair@$$CBHH@std@@@2@$00@std@@@std@@IBEAAPAU_Node@?$_Tree_nod@V?$_Tmap_traits@HHU?$less@H@std@@V?$allocator@U?$pair@$$CBHH@std@@@2@$00@std@@@2@XZ PROC ; std::_Tree<std::_Tmap_traits<int,int,std::less<int>,std::allocator<std::pair<int const ,int> >,1> >::_Rmost, COMDAT
; _this$ = ecx

; 1320 : 		return (_Right(_Myhead));

	mov	eax, DWORD PTR [ecx+4]
	add	eax, 8

; 1321 : 		}

	ret	0
?_Rmost@?$_Tree@V?$_Tmap_traits@HHU?$less@H@std@@V?$allocator@U?$pair@$$CBHH@std@@@2@$00@std@@@std@@IBEAAPAU_Node@?$_Tree_nod@V?$_Tmap_traits@HHU?$less@H@std@@V?$allocator@U?$pair@$$CBHH@std@@@2@$00@std@@@2@XZ ENDP ; std::_Tree<std::_Tmap_traits<int,int,std::less<int>,std::allocator<std::pair<int const ,int> >,1> >::_Rmost
_TEXT	ENDS
PUBLIC	?_Root@?$_Tree@V?$_Tmap_traits@HHU?$less@H@std@@V?$allocator@U?$pair@$$CBHH@std@@@2@$00@std@@@std@@IBEAAPAU_Node@?$_Tree_nod@V?$_Tmap_traits@HHU?$less@H@std@@V?$allocator@U?$pair@$$CBHH@std@@@2@$00@std@@@2@XZ ; std::_Tree<std::_Tmap_traits<int,int,std::less<int>,std::allocator<std::pair<int const ,int> >,1> >::_Root
; Function compile flags: /Ogtpy
;	COMDAT ?_Root@?$_Tree@V?$_Tmap_traits@HHU?$less@H@std@@V?$allocator@U?$pair@$$CBHH@std@@@2@$00@std@@@std@@IBEAAPAU_Node@?$_Tree_nod@V?$_Tmap_traits@HHU?$less@H@std@@V?$allocator@U?$pair@$$CBHH@std@@@2@$00@std@@@2@XZ
_TEXT	SEGMENT
?_Root@?$_Tree@V?$_Tmap_traits@HHU?$less@H@std@@V?$allocator@U?$pair@$$CBHH@std@@@2@$00@std@@@std@@IBEAAPAU_Node@?$_Tree_nod@V?$_Tmap_traits@HHU?$less@H@std@@V?$allocator@U?$pair@$$CBHH@std@@@2@$00@std@@@2@XZ PROC ; std::_Tree<std::_Tmap_traits<int,int,std::less<int>,std::allocator<std::pair<int const ,int> >,1> >::_Root, COMDAT
; _this$ = ecx

; 1325 : 		return (_Parent(_Myhead));

	mov	eax, DWORD PTR [ecx+4]
	add	eax, 4

; 1326 : 		}

	ret	0
?_Root@?$_Tree@V?$_Tmap_traits@HHU?$less@H@std@@V?$allocator@U?$pair@$$CBHH@std@@@2@$00@std@@@std@@IBEAAPAU_Node@?$_Tree_nod@V?$_Tmap_traits@HHU?$less@H@std@@V?$allocator@U?$pair@$$CBHH@std@@@2@$00@std@@@2@XZ ENDP ; std::_Tree<std::_Tmap_traits<int,int,std::less<int>,std::allocator<std::pair<int const ,int> >,1> >::_Root
_TEXT	ENDS
PUBLIC	?_Kfn@?$_Tmap_traits@HHU?$less@H@std@@V?$allocator@U?$pair@$$CBHH@std@@@2@$00@std@@SAABHABU?$pair@$$CBHH@2@@Z ; std::_Tmap_traits<int,int,std::less<int>,std::allocator<std::pair<int const ,int> >,1>::_Kfn
; Function compile flags: /Ogtpy
; File c:\program files (x86)\microsoft visual studio 9.0\vc\include\map
;	COMDAT ?_Kfn@?$_Tmap_traits@HHU?$less@H@std@@V?$allocator@U?$pair@$$CBHH@std@@@2@$00@std@@SAABHABU?$pair@$$CBHH@2@@Z
_TEXT	SEGMENT
__Val$ = 8						; size = 4
?_Kfn@?$_Tmap_traits@HHU?$less@H@std@@V?$allocator@U?$pair@$$CBHH@std@@@2@$00@std@@SAABHABU?$pair@$$CBHH@2@@Z PROC ; std::_Tmap_traits<int,int,std::less<int>,std::allocator<std::pair<int const ,int> >,1>::_Kfn, COMDAT

; 65   : 		return (_Val.first);

	mov	eax, DWORD PTR __Val$[esp-4]

; 66   : 		}

	ret	0
?_Kfn@?$_Tmap_traits@HHU?$less@H@std@@V?$allocator@U?$pair@$$CBHH@std@@@2@$00@std@@SAABHABU?$pair@$$CBHH@2@@Z ENDP ; std::_Tmap_traits<int,int,std::less<int>,std::allocator<std::pair<int const ,int> >,1>::_Kfn
_TEXT	ENDS
PUBLIC	??0?$allocator@U?$pair@$$CBHH@std@@@std@@QAE@ABV01@@Z ; std::allocator<std::pair<int const ,int> >::allocator<std::pair<int const ,int> >
; Function compile flags: /Ogtpy
; File c:\program files (x86)\microsoft visual studio 9.0\vc\include\xmemory
;	COMDAT ??0?$allocator@U?$pair@$$CBHH@std@@@std@@QAE@ABV01@@Z
_TEXT	SEGMENT
___formal$ = 8						; size = 4
??0?$allocator@U?$pair@$$CBHH@std@@@std@@QAE@ABV01@@Z PROC ; std::allocator<std::pair<int const ,int> >::allocator<std::pair<int const ,int> >, COMDAT
; _this$ = ecx

; 123  : 	allocator(const allocator<_Ty>&) _THROW0()

	mov	eax, ecx

; 124  : 		{	// construct by copying (do nothing)
; 125  : 		}

	ret	4
??0?$allocator@U?$pair@$$CBHH@std@@@std@@QAE@ABV01@@Z ENDP ; std::allocator<std::pair<int const ,int> >::allocator<std::pair<int const ,int> >
_TEXT	ENDS
PUBLIC	?deallocate@?$allocator@U_Node@?$_Tree_nod@V?$_Tmap_traits@HHU?$less@H@std@@V?$allocator@U?$pair@$$CBHH@std@@@2@$00@std@@@std@@@std@@QAEXPAU_Node@?$_Tree_nod@V?$_Tmap_traits@HHU?$less@H@std@@V?$allocator@U?$pair@$$CBHH@std@@@2@$00@std@@@2@I@Z ; std::allocator<std::_Tree_nod<std::_Tmap_traits<int,int,std::less<int>,std::allocator<std::pair<int const ,int> >,1> >::_Node>::deallocate
; Function compile flags: /Ogtpy
;	COMDAT ?deallocate@?$allocator@U_Node@?$_Tree_nod@V?$_Tmap_traits@HHU?$less@H@std@@V?$allocator@U?$pair@$$CBHH@std@@@2@$00@std@@@std@@@std@@QAEXPAU_Node@?$_Tree_nod@V?$_Tmap_traits@HHU?$less@H@std@@V?$allocator@U?$pair@$$CBHH@std@@@2@$00@std@@@2@I@Z
_TEXT	SEGMENT
__Ptr$ = 8						; size = 4
___formal$ = 12						; size = 4
?deallocate@?$allocator@U_Node@?$_Tree_nod@V?$_Tmap_traits@HHU?$less@H@std@@V?$allocator@U?$pair@$$CBHH@std@@@2@$00@std@@@std@@@std@@QAEXPAU_Node@?$_Tree_nod@V?$_Tmap_traits@HHU?$less@H@std@@V?$allocator@U?$pair@$$CBHH@std@@@2@$00@std@@@2@I@Z PROC ; std::allocator<std::_Tree_nod<std::_Tmap_traits<int,int,std::less<int>,std::allocator<std::pair<int const ,int> >,1> >::_Node>::deallocate, COMDAT
; _this$ = ecx

; 140  : 		::operator delete(_Ptr);

	mov	eax, DWORD PTR __Ptr$[esp-4]
	push	eax
	call	??3@YAXPAX@Z				; operator delete
	pop	ecx

; 141  : 		}

	ret	8
?deallocate@?$allocator@U_Node@?$_Tree_nod@V?$_Tmap_traits@HHU?$less@H@std@@V?$allocator@U?$pair@$$CBHH@std@@@2@$00@std@@@std@@@std@@QAEXPAU_Node@?$_Tree_nod@V?$_Tmap_traits@HHU?$less@H@std@@V?$allocator@U?$pair@$$CBHH@std@@@2@$00@std@@@2@I@Z ENDP ; std::allocator<std::_Tree_nod<std::_Tmap_traits<int,int,std::less<int>,std::allocator<std::pair<int const ,int> >,1> >::_Node>::deallocate
_TEXT	ENDS
PUBLIC	__TI3?AVlength_error@std@@
PUBLIC	??_C@_0BD@OLBABOEK@vector?$DMT?$DO?5too?5long?$AA@ ; `string'
PUBLIC	?_Xlen@?$vector@UFreeResourceXCities@@V?$allocator@UFreeResourceXCities@@@std@@@std@@KAXXZ ; std::vector<FreeResourceXCities,std::allocator<FreeResourceXCities> >::_Xlen
PUBLIC	__CTA3?AVlength_error@std@@
PUBLIC	__CT??_R0?AVlength_error@std@@@8??0length_error@std@@QAE@ABV01@@Z40
PUBLIC	??0length_error@std@@QAE@ABV01@@Z		; std::length_error::length_error
PUBLIC	__CT??_R0?AVlogic_error@std@@@8??0logic_error@std@@QAE@ABV01@@Z40
PUBLIC	??0logic_error@std@@QAE@ABV01@@Z		; std::logic_error::logic_error
PUBLIC	__CT??_R0?AVexception@std@@@8??0exception@std@@QAE@ABV01@@Z12
EXTRN	__imp_??0?$basic_string@DU?$char_traits@D@std@@V?$allocator@D@2@@std@@QAE@PBD@Z:PROC
EXTRN	__CxxThrowException@8:PROC
EXTRN	??0exception@std@@QAE@ABV01@@Z:PROC		; std::exception::exception
;	COMDAT __CT??_R0?AVexception@std@@@8??0exception@std@@QAE@ABV01@@Z12
; File c:\program files (x86)\microsoft visual studio 9.0\vc\include\stdexcept
xdata$x	SEGMENT
__CT??_R0?AVexception@std@@@8??0exception@std@@QAE@ABV01@@Z12 DD 00H
	DD	FLAT:??_R0?AVexception@std@@@8
	DD	00H
	DD	0ffffffffH
	ORG $+4
	DD	0cH
	DD	FLAT:??0exception@std@@QAE@ABV01@@Z
xdata$x	ENDS
;	COMDAT __CT??_R0?AVlogic_error@std@@@8??0logic_error@std@@QAE@ABV01@@Z40
xdata$x	SEGMENT
__CT??_R0?AVlogic_error@std@@@8??0logic_error@std@@QAE@ABV01@@Z40 DD 00H
	DD	FLAT:??_R0?AVlogic_error@std@@@8
	DD	00H
	DD	0ffffffffH
	ORG $+4
	DD	028H
	DD	FLAT:??0logic_error@std@@QAE@ABV01@@Z
xdata$x	ENDS
;	COMDAT __CT??_R0?AVlength_error@std@@@8??0length_error@std@@QAE@ABV01@@Z40
xdata$x	SEGMENT
__CT??_R0?AVlength_error@std@@@8??0length_error@std@@QAE@ABV01@@Z40 DD 00H
	DD	FLAT:??_R0?AVlength_error@std@@@8
	DD	00H
	DD	0ffffffffH
	ORG $+4
	DD	028H
	DD	FLAT:??0length_error@std@@QAE@ABV01@@Z
xdata$x	ENDS
;	COMDAT __CTA3?AVlength_error@std@@
xdata$x	SEGMENT
__CTA3?AVlength_error@std@@ DD 03H
	DD	FLAT:__CT??_R0?AVlength_error@std@@@8??0length_error@std@@QAE@ABV01@@Z40
	DD	FLAT:__CT??_R0?AVlogic_error@std@@@8??0logic_error@std@@QAE@ABV01@@Z40
	DD	FLAT:__CT??_R0?AVexception@std@@@8??0exception@std@@QAE@ABV01@@Z12
xdata$x	ENDS
;	COMDAT __TI3?AVlength_error@std@@
xdata$x	SEGMENT
__TI3?AVlength_error@std@@ DD 00H
	DD	FLAT:??1length_error@std@@UAE@XZ
	DD	00H
	DD	FLAT:__CTA3?AVlength_error@std@@
xdata$x	ENDS
;	COMDAT ??_C@_0BD@OLBABOEK@vector?$DMT?$DO?5too?5long?$AA@
CONST	SEGMENT
??_C@_0BD@OLBABOEK@vector?$DMT?$DO?5too?5long?$AA@ DB 'vector<T> too long'
	DB	00H						; `string'
CONST	ENDS
;	COMDAT xdata$x
xdata$x	SEGMENT
__unwindtable$?_Xlen@?$vector@UFreeResourceXCities@@V?$allocator@UFreeResourceXCities@@@std@@@std@@KAXXZ DD 0ffffffffH
	DD	FLAT:__unwindfunclet$?_Xlen@?$vector@UFreeResourceXCities@@V?$allocator@UFreeResourceXCities@@@std@@@std@@KAXXZ$0
	DD	00H
	DD	FLAT:__unwindfunclet$?_Xlen@?$vector@UFreeResourceXCities@@V?$allocator@UFreeResourceXCities@@@std@@@std@@KAXXZ$2
__ehfuncinfo$?_Xlen@?$vector@UFreeResourceXCities@@V?$allocator@UFreeResourceXCities@@@std@@@std@@KAXXZ DD 019930522H
	DD	02H
	DD	FLAT:__unwindtable$?_Xlen@?$vector@UFreeResourceXCities@@V?$allocator@UFreeResourceXCities@@@std@@@std@@KAXXZ
	DD	2 DUP(00H)
	DD	2 DUP(00H)
	DD	00H
	DD	01H
; Function compile flags: /Ogtpy
; File c:\program files (x86)\microsoft visual studio 9.0\vc\include\vector
xdata$x	ENDS
;	COMDAT ?_Xlen@?$vector@UFreeResourceXCities@@V?$allocator@UFreeResourceXCities@@@std@@@std@@KAXXZ
_TEXT	SEGMENT
$T229398 = -80						; size = 28
$T229397 = -52						; size = 40
__$EHRec$ = -12						; size = 12
?_Xlen@?$vector@UFreeResourceXCities@@V?$allocator@UFreeResourceXCities@@@std@@@std@@KAXXZ PROC ; std::vector<FreeResourceXCities,std::allocator<FreeResourceXCities> >::_Xlen, COMDAT

; 1259 : 		{	// report a length_error

	push	-1
	push	__ehhandler$?_Xlen@?$vector@UFreeResourceXCities@@V?$allocator@UFreeResourceXCities@@@std@@@std@@KAXXZ
	mov	eax, DWORD PTR fs:0
	push	eax
	mov	DWORD PTR fs:0, esp
	sub	esp, 68					; 00000044H

; 1260 : 		_THROW(length_error, "vector<T> too long");

	push	OFFSET ??_C@_0BD@OLBABOEK@vector?$DMT?$DO?5too?5long?$AA@
	lea	ecx, DWORD PTR $T229398[esp+84]
	call	DWORD PTR __imp_??0?$basic_string@DU?$char_traits@D@std@@V?$allocator@D@2@@std@@QAE@PBD@Z
	lea	ecx, DWORD PTR $T229397[esp+80]
	mov	DWORD PTR __$EHRec$[esp+88], 0
	call	DWORD PTR __imp_??0exception@std@@QAE@XZ
	lea	eax, DWORD PTR $T229398[esp+80]
	push	eax
	lea	ecx, DWORD PTR $T229397[esp+96]
	mov	BYTE PTR __$EHRec$[esp+92], 1
	mov	DWORD PTR $T229397[esp+84], OFFSET ??_7logic_error@std@@6B@
	call	DWORD PTR __imp_??0?$basic_string@DU?$char_traits@D@std@@V?$allocator@D@2@@std@@QAE@ABV01@@Z
	push	OFFSET __TI3?AVlength_error@std@@
	lea	ecx, DWORD PTR $T229397[esp+84]
	push	ecx
	mov	BYTE PTR __$EHRec$[esp+96], 0
	mov	DWORD PTR $T229397[esp+88], OFFSET ??_7length_error@std@@6B@
	call	__CxxThrowException@8
$LN13@Xlen:
$LN12@Xlen:
	int	3
_TEXT	ENDS
;	COMDAT text$x
text$x	SEGMENT
__unwindfunclet$?_Xlen@?$vector@UFreeResourceXCities@@V?$allocator@UFreeResourceXCities@@@std@@@std@@KAXXZ$0:
	lea	ecx, DWORD PTR $T229398[ebp]
	jmp	DWORD PTR __imp_??1?$basic_string@DU?$char_traits@D@std@@V?$allocator@D@2@@std@@QAE@XZ
__unwindfunclet$?_Xlen@?$vector@UFreeResourceXCities@@V?$allocator@UFreeResourceXCities@@@std@@@std@@KAXXZ$2:
	lea	ecx, DWORD PTR $T229397[ebp]
	jmp	DWORD PTR __imp_??1exception@std@@UAE@XZ
__ehhandler$?_Xlen@?$vector@UFreeResourceXCities@@V?$allocator@UFreeResourceXCities@@@std@@@std@@KAXXZ:
	mov	eax, OFFSET __ehfuncinfo$?_Xlen@?$vector@UFreeResourceXCities@@V?$allocator@UFreeResourceXCities@@@std@@@std@@KAXXZ
	jmp	___CxxFrameHandler3
text$x	ENDS
?_Xlen@?$vector@UFreeResourceXCities@@V?$allocator@UFreeResourceXCities@@@std@@@std@@KAXXZ ENDP ; std::vector<FreeResourceXCities,std::allocator<FreeResourceXCities> >::_Xlen
PUBLIC	??0?$_Container_base_aux_alloc_empty@V?$allocator@UFreeResourceXCities@@@std@@@std@@IAE@V?$allocator@UFreeResourceXCities@@@1@@Z ; std::_Container_base_aux_alloc_empty<std::allocator<FreeResourceXCities> >::_Container_base_aux_alloc_empty<std::allocator<FreeResourceXCities> >
; Function compile flags: /Ogtpy
; File c:\program files (x86)\microsoft visual studio 9.0\vc\include\xutility
;	COMDAT ??0?$_Container_base_aux_alloc_empty@V?$allocator@UFreeResourceXCities@@@std@@@std@@IAE@V?$allocator@UFreeResourceXCities@@@1@@Z
_TEXT	SEGMENT
___formal$ = 8						; size = 1
??0?$_Container_base_aux_alloc_empty@V?$allocator@UFreeResourceXCities@@@std@@@std@@IAE@V?$allocator@UFreeResourceXCities@@@1@@Z PROC ; std::_Container_base_aux_alloc_empty<std::allocator<FreeResourceXCities> >::_Container_base_aux_alloc_empty<std::allocator<FreeResourceXCities> >, COMDAT
; _this$ = ecx

; 618  : 	explicit _Container_base_aux_alloc_empty(_Alloc) { }

	mov	eax, ecx
	ret	4
??0?$_Container_base_aux_alloc_empty@V?$allocator@UFreeResourceXCities@@@std@@@std@@IAE@V?$allocator@UFreeResourceXCities@@@1@@Z ENDP ; std::_Container_base_aux_alloc_empty<std::allocator<FreeResourceXCities> >::_Container_base_aux_alloc_empty<std::allocator<FreeResourceXCities> >
_TEXT	ENDS
PUBLIC	??0?$allocator@UFreeResourceXCities@@@std@@QAE@ABV01@@Z ; std::allocator<FreeResourceXCities>::allocator<FreeResourceXCities>
; Function compile flags: /Ogtpy
; File c:\program files (x86)\microsoft visual studio 9.0\vc\include\xmemory
;	COMDAT ??0?$allocator@UFreeResourceXCities@@@std@@QAE@ABV01@@Z
_TEXT	SEGMENT
___formal$ = 8						; size = 4
??0?$allocator@UFreeResourceXCities@@@std@@QAE@ABV01@@Z PROC ; std::allocator<FreeResourceXCities>::allocator<FreeResourceXCities>, COMDAT
; _this$ = ecx

; 123  : 	allocator(const allocator<_Ty>&) _THROW0()

	mov	eax, ecx

; 124  : 		{	// construct by copying (do nothing)
; 125  : 		}

	ret	4
??0?$allocator@UFreeResourceXCities@@@std@@QAE@ABV01@@Z ENDP ; std::allocator<FreeResourceXCities>::allocator<FreeResourceXCities>
_TEXT	ENDS
PUBLIC	?deallocate@?$allocator@UFreeResourceXCities@@@std@@QAEXPAUFreeResourceXCities@@I@Z ; std::allocator<FreeResourceXCities>::deallocate
; Function compile flags: /Ogtpy
;	COMDAT ?deallocate@?$allocator@UFreeResourceXCities@@@std@@QAEXPAUFreeResourceXCities@@I@Z
_TEXT	SEGMENT
__Ptr$ = 8						; size = 4
___formal$ = 12						; size = 4
?deallocate@?$allocator@UFreeResourceXCities@@@std@@QAEXPAUFreeResourceXCities@@I@Z PROC ; std::allocator<FreeResourceXCities>::deallocate, COMDAT
; _this$ = ecx

; 140  : 		::operator delete(_Ptr);

	mov	eax, DWORD PTR __Ptr$[esp-4]
	push	eax
	call	??3@YAXPAX@Z				; operator delete
	pop	ecx

; 141  : 		}

	ret	8
?deallocate@?$allocator@UFreeResourceXCities@@@std@@QAEXPAUFreeResourceXCities@@I@Z ENDP ; std::allocator<FreeResourceXCities>::deallocate
_TEXT	ENDS
PUBLIC	?_Xlen@?$vector@PAVCvTraitEntry@@V?$allocator@PAVCvTraitEntry@@@std@@@std@@KAXXZ ; std::vector<CvTraitEntry *,std::allocator<CvTraitEntry *> >::_Xlen
;	COMDAT xdata$x
; File c:\program files (x86)\microsoft visual studio 9.0\vc\include\stdexcept
xdata$x	SEGMENT
__unwindtable$?_Xlen@?$vector@PAVCvTraitEntry@@V?$allocator@PAVCvTraitEntry@@@std@@@std@@KAXXZ DD 0ffffffffH
	DD	FLAT:__unwindfunclet$?_Xlen@?$vector@PAVCvTraitEntry@@V?$allocator@PAVCvTraitEntry@@@std@@@std@@KAXXZ$0
	DD	00H
	DD	FLAT:__unwindfunclet$?_Xlen@?$vector@PAVCvTraitEntry@@V?$allocator@PAVCvTraitEntry@@@std@@@std@@KAXXZ$2
__ehfuncinfo$?_Xlen@?$vector@PAVCvTraitEntry@@V?$allocator@PAVCvTraitEntry@@@std@@@std@@KAXXZ DD 019930522H
	DD	02H
	DD	FLAT:__unwindtable$?_Xlen@?$vector@PAVCvTraitEntry@@V?$allocator@PAVCvTraitEntry@@@std@@@std@@KAXXZ
	DD	2 DUP(00H)
	DD	2 DUP(00H)
	DD	00H
	DD	01H
; Function compile flags: /Ogtpy
; File c:\program files (x86)\microsoft visual studio 9.0\vc\include\vector
xdata$x	ENDS
;	COMDAT ?_Xlen@?$vector@PAVCvTraitEntry@@V?$allocator@PAVCvTraitEntry@@@std@@@std@@KAXXZ
_TEXT	SEGMENT
$T229433 = -80						; size = 28
$T229432 = -52						; size = 40
__$EHRec$ = -12						; size = 12
?_Xlen@?$vector@PAVCvTraitEntry@@V?$allocator@PAVCvTraitEntry@@@std@@@std@@KAXXZ PROC ; std::vector<CvTraitEntry *,std::allocator<CvTraitEntry *> >::_Xlen, COMDAT

; 1259 : 		{	// report a length_error

	push	-1
	push	__ehhandler$?_Xlen@?$vector@PAVCvTraitEntry@@V?$allocator@PAVCvTraitEntry@@@std@@@std@@KAXXZ
	mov	eax, DWORD PTR fs:0
	push	eax
	mov	DWORD PTR fs:0, esp
	sub	esp, 68					; 00000044H

; 1260 : 		_THROW(length_error, "vector<T> too long");

	push	OFFSET ??_C@_0BD@OLBABOEK@vector?$DMT?$DO?5too?5long?$AA@
	lea	ecx, DWORD PTR $T229433[esp+84]
	call	DWORD PTR __imp_??0?$basic_string@DU?$char_traits@D@std@@V?$allocator@D@2@@std@@QAE@PBD@Z
	lea	ecx, DWORD PTR $T229432[esp+80]
	mov	DWORD PTR __$EHRec$[esp+88], 0
	call	DWORD PTR __imp_??0exception@std@@QAE@XZ
	lea	eax, DWORD PTR $T229433[esp+80]
	push	eax
	lea	ecx, DWORD PTR $T229432[esp+96]
	mov	BYTE PTR __$EHRec$[esp+92], 1
	mov	DWORD PTR $T229432[esp+84], OFFSET ??_7logic_error@std@@6B@
	call	DWORD PTR __imp_??0?$basic_string@DU?$char_traits@D@std@@V?$allocator@D@2@@std@@QAE@ABV01@@Z
	push	OFFSET __TI3?AVlength_error@std@@
	lea	ecx, DWORD PTR $T229432[esp+84]
	push	ecx
	mov	BYTE PTR __$EHRec$[esp+96], 0
	mov	DWORD PTR $T229432[esp+88], OFFSET ??_7length_error@std@@6B@
	call	__CxxThrowException@8
$LN13@Xlen@2:
$LN12@Xlen@2:
	int	3
_TEXT	ENDS
;	COMDAT text$x
text$x	SEGMENT
__unwindfunclet$?_Xlen@?$vector@PAVCvTraitEntry@@V?$allocator@PAVCvTraitEntry@@@std@@@std@@KAXXZ$0:
	lea	ecx, DWORD PTR $T229433[ebp]
	jmp	DWORD PTR __imp_??1?$basic_string@DU?$char_traits@D@std@@V?$allocator@D@2@@std@@QAE@XZ
__unwindfunclet$?_Xlen@?$vector@PAVCvTraitEntry@@V?$allocator@PAVCvTraitEntry@@@std@@@std@@KAXXZ$2:
	lea	ecx, DWORD PTR $T229432[ebp]
	jmp	DWORD PTR __imp_??1exception@std@@UAE@XZ
__ehhandler$?_Xlen@?$vector@PAVCvTraitEntry@@V?$allocator@PAVCvTraitEntry@@@std@@@std@@KAXXZ:
	mov	eax, OFFSET __ehfuncinfo$?_Xlen@?$vector@PAVCvTraitEntry@@V?$allocator@PAVCvTraitEntry@@@std@@@std@@KAXXZ
	jmp	___CxxFrameHandler3
text$x	ENDS
?_Xlen@?$vector@PAVCvTraitEntry@@V?$allocator@PAVCvTraitEntry@@@std@@@std@@KAXXZ ENDP ; std::vector<CvTraitEntry *,std::allocator<CvTraitEntry *> >::_Xlen
PUBLIC	??0?$_Container_base_aux_alloc_empty@V?$allocator@PAVCvTraitEntry@@@std@@@std@@IAE@V?$allocator@PAVCvTraitEntry@@@1@@Z ; std::_Container_base_aux_alloc_empty<std::allocator<CvTraitEntry *> >::_Container_base_aux_alloc_empty<std::allocator<CvTraitEntry *> >
; Function compile flags: /Ogtpy
; File c:\program files (x86)\microsoft visual studio 9.0\vc\include\xutility
;	COMDAT ??0?$_Container_base_aux_alloc_empty@V?$allocator@PAVCvTraitEntry@@@std@@@std@@IAE@V?$allocator@PAVCvTraitEntry@@@1@@Z
_TEXT	SEGMENT
___formal$ = 8						; size = 1
??0?$_Container_base_aux_alloc_empty@V?$allocator@PAVCvTraitEntry@@@std@@@std@@IAE@V?$allocator@PAVCvTraitEntry@@@1@@Z PROC ; std::_Container_base_aux_alloc_empty<std::allocator<CvTraitEntry *> >::_Container_base_aux_alloc_empty<std::allocator<CvTraitEntry *> >, COMDAT
; _this$ = ecx

; 618  : 	explicit _Container_base_aux_alloc_empty(_Alloc) { }

	mov	eax, ecx
	ret	4
??0?$_Container_base_aux_alloc_empty@V?$allocator@PAVCvTraitEntry@@@std@@@std@@IAE@V?$allocator@PAVCvTraitEntry@@@1@@Z ENDP ; std::_Container_base_aux_alloc_empty<std::allocator<CvTraitEntry *> >::_Container_base_aux_alloc_empty<std::allocator<CvTraitEntry *> >
_TEXT	ENDS
PUBLIC	??0?$allocator@PAVCvTraitEntry@@@std@@QAE@ABV01@@Z ; std::allocator<CvTraitEntry *>::allocator<CvTraitEntry *>
; Function compile flags: /Ogtpy
; File c:\program files (x86)\microsoft visual studio 9.0\vc\include\xmemory
;	COMDAT ??0?$allocator@PAVCvTraitEntry@@@std@@QAE@ABV01@@Z
_TEXT	SEGMENT
___formal$ = 8						; size = 4
??0?$allocator@PAVCvTraitEntry@@@std@@QAE@ABV01@@Z PROC	; std::allocator<CvTraitEntry *>::allocator<CvTraitEntry *>, COMDAT
; _this$ = ecx

; 123  : 	allocator(const allocator<_Ty>&) _THROW0()

	mov	eax, ecx

; 124  : 		{	// construct by copying (do nothing)
; 125  : 		}

	ret	4
??0?$allocator@PAVCvTraitEntry@@@std@@QAE@ABV01@@Z ENDP	; std::allocator<CvTraitEntry *>::allocator<CvTraitEntry *>
_TEXT	ENDS
PUBLIC	?deallocate@?$allocator@PAVCvTraitEntry@@@std@@QAEXPAPAVCvTraitEntry@@I@Z ; std::allocator<CvTraitEntry *>::deallocate
; Function compile flags: /Ogtpy
;	COMDAT ?deallocate@?$allocator@PAVCvTraitEntry@@@std@@QAEXPAPAVCvTraitEntry@@I@Z
_TEXT	SEGMENT
__Ptr$ = 8						; size = 4
___formal$ = 12						; size = 4
?deallocate@?$allocator@PAVCvTraitEntry@@@std@@QAEXPAPAVCvTraitEntry@@I@Z PROC ; std::allocator<CvTraitEntry *>::deallocate, COMDAT
; _this$ = ecx

; 140  : 		::operator delete(_Ptr);

	mov	eax, DWORD PTR __Ptr$[esp-4]
	push	eax
	call	??3@YAXPAX@Z				; operator delete
	pop	ecx

; 141  : 		}

	ret	8
?deallocate@?$allocator@PAVCvTraitEntry@@@std@@QAEXPAPAVCvTraitEntry@@I@Z ENDP ; std::allocator<CvTraitEntry *>::deallocate
_TEXT	ENDS
PUBLIC	?_Make_iter@?$vector@UMayaBonusChoice@@V?$allocator@UMayaBonusChoice@@@std@@@std@@QBE?AV?$_Vector_iterator@UMayaBonusChoice@@V?$allocator@UMayaBonusChoice@@@std@@@2@V?$_Vector_const_iterator@UMayaBonusChoice@@V?$allocator@UMayaBonusChoice@@@std@@@2@@Z ; std::vector<MayaBonusChoice,std::allocator<MayaBonusChoice> >::_Make_iter
; Function compile flags: /Ogtpy
; File c:\program files (x86)\microsoft visual studio 9.0\vc\include\vector
;	COMDAT ?_Make_iter@?$vector@UMayaBonusChoice@@V?$allocator@UMayaBonusChoice@@@std@@@std@@QBE?AV?$_Vector_iterator@UMayaBonusChoice@@V?$allocator@UMayaBonusChoice@@@std@@@2@V?$_Vector_const_iterator@UMayaBonusChoice@@V?$allocator@UMayaBonusChoice@@@std@@@2@@Z
_TEXT	SEGMENT
___$ReturnUdt$ = 8					; size = 4
__Where$ = 12						; size = 4
?_Make_iter@?$vector@UMayaBonusChoice@@V?$allocator@UMayaBonusChoice@@@std@@@std@@QBE?AV?$_Vector_iterator@UMayaBonusChoice@@V?$allocator@UMayaBonusChoice@@@std@@@2@V?$_Vector_const_iterator@UMayaBonusChoice@@V?$allocator@UMayaBonusChoice@@@std@@@2@@Z PROC ; std::vector<MayaBonusChoice,std::allocator<MayaBonusChoice> >::_Make_iter, COMDAT
; _this$ = ecx

; 687  : 		return (iterator(_Where._Myptr));

	mov	eax, DWORD PTR ___$ReturnUdt$[esp-4]
	mov	ecx, DWORD PTR __Where$[esp-4]
	mov	DWORD PTR [eax], ecx

; 688  : 		}

	ret	8
?_Make_iter@?$vector@UMayaBonusChoice@@V?$allocator@UMayaBonusChoice@@@std@@@std@@QBE?AV?$_Vector_iterator@UMayaBonusChoice@@V?$allocator@UMayaBonusChoice@@@std@@@2@V?$_Vector_const_iterator@UMayaBonusChoice@@V?$allocator@UMayaBonusChoice@@@std@@@2@@Z ENDP ; std::vector<MayaBonusChoice,std::allocator<MayaBonusChoice> >::_Make_iter
_TEXT	ENDS
PUBLIC	?_Xlen@?$vector@UMayaBonusChoice@@V?$allocator@UMayaBonusChoice@@@std@@@std@@KAXXZ ; std::vector<MayaBonusChoice,std::allocator<MayaBonusChoice> >::_Xlen
;	COMDAT xdata$x
; File c:\program files (x86)\microsoft visual studio 9.0\vc\include\stdexcept
xdata$x	SEGMENT
__unwindtable$?_Xlen@?$vector@UMayaBonusChoice@@V?$allocator@UMayaBonusChoice@@@std@@@std@@KAXXZ DD 0ffffffffH
	DD	FLAT:__unwindfunclet$?_Xlen@?$vector@UMayaBonusChoice@@V?$allocator@UMayaBonusChoice@@@std@@@std@@KAXXZ$0
	DD	00H
	DD	FLAT:__unwindfunclet$?_Xlen@?$vector@UMayaBonusChoice@@V?$allocator@UMayaBonusChoice@@@std@@@std@@KAXXZ$2
__ehfuncinfo$?_Xlen@?$vector@UMayaBonusChoice@@V?$allocator@UMayaBonusChoice@@@std@@@std@@KAXXZ DD 019930522H
	DD	02H
	DD	FLAT:__unwindtable$?_Xlen@?$vector@UMayaBonusChoice@@V?$allocator@UMayaBonusChoice@@@std@@@std@@KAXXZ
	DD	2 DUP(00H)
	DD	2 DUP(00H)
	DD	00H
	DD	01H
; Function compile flags: /Ogtpy
; File c:\program files (x86)\microsoft visual studio 9.0\vc\include\vector
xdata$x	ENDS
;	COMDAT ?_Xlen@?$vector@UMayaBonusChoice@@V?$allocator@UMayaBonusChoice@@@std@@@std@@KAXXZ
_TEXT	SEGMENT
$T229478 = -80						; size = 28
$T229477 = -52						; size = 40
__$EHRec$ = -12						; size = 12
?_Xlen@?$vector@UMayaBonusChoice@@V?$allocator@UMayaBonusChoice@@@std@@@std@@KAXXZ PROC ; std::vector<MayaBonusChoice,std::allocator<MayaBonusChoice> >::_Xlen, COMDAT

; 1259 : 		{	// report a length_error

	push	-1
	push	__ehhandler$?_Xlen@?$vector@UMayaBonusChoice@@V?$allocator@UMayaBonusChoice@@@std@@@std@@KAXXZ
	mov	eax, DWORD PTR fs:0
	push	eax
	mov	DWORD PTR fs:0, esp
	sub	esp, 68					; 00000044H

; 1260 : 		_THROW(length_error, "vector<T> too long");

	push	OFFSET ??_C@_0BD@OLBABOEK@vector?$DMT?$DO?5too?5long?$AA@
	lea	ecx, DWORD PTR $T229478[esp+84]
	call	DWORD PTR __imp_??0?$basic_string@DU?$char_traits@D@std@@V?$allocator@D@2@@std@@QAE@PBD@Z
	lea	ecx, DWORD PTR $T229477[esp+80]
	mov	DWORD PTR __$EHRec$[esp+88], 0
	call	DWORD PTR __imp_??0exception@std@@QAE@XZ
	lea	eax, DWORD PTR $T229478[esp+80]
	push	eax
	lea	ecx, DWORD PTR $T229477[esp+96]
	mov	BYTE PTR __$EHRec$[esp+92], 1
	mov	DWORD PTR $T229477[esp+84], OFFSET ??_7logic_error@std@@6B@
	call	DWORD PTR __imp_??0?$basic_string@DU?$char_traits@D@std@@V?$allocator@D@2@@std@@QAE@ABV01@@Z
	push	OFFSET __TI3?AVlength_error@std@@
	lea	ecx, DWORD PTR $T229477[esp+84]
	push	ecx
	mov	BYTE PTR __$EHRec$[esp+96], 0
	mov	DWORD PTR $T229477[esp+88], OFFSET ??_7length_error@std@@6B@
	call	__CxxThrowException@8
$LN13@Xlen@3:
$LN12@Xlen@3:
	int	3
_TEXT	ENDS
;	COMDAT text$x
text$x	SEGMENT
__unwindfunclet$?_Xlen@?$vector@UMayaBonusChoice@@V?$allocator@UMayaBonusChoice@@@std@@@std@@KAXXZ$0:
	lea	ecx, DWORD PTR $T229478[ebp]
	jmp	DWORD PTR __imp_??1?$basic_string@DU?$char_traits@D@std@@V?$allocator@D@2@@std@@QAE@XZ
__unwindfunclet$?_Xlen@?$vector@UMayaBonusChoice@@V?$allocator@UMayaBonusChoice@@@std@@@std@@KAXXZ$2:
	lea	ecx, DWORD PTR $T229477[ebp]
	jmp	DWORD PTR __imp_??1exception@std@@UAE@XZ
__ehhandler$?_Xlen@?$vector@UMayaBonusChoice@@V?$allocator@UMayaBonusChoice@@@std@@@std@@KAXXZ:
	mov	eax, OFFSET __ehfuncinfo$?_Xlen@?$vector@UMayaBonusChoice@@V?$allocator@UMayaBonusChoice@@@std@@@std@@KAXXZ
	jmp	___CxxFrameHandler3
text$x	ENDS
?_Xlen@?$vector@UMayaBonusChoice@@V?$allocator@UMayaBonusChoice@@@std@@@std@@KAXXZ ENDP ; std::vector<MayaBonusChoice,std::allocator<MayaBonusChoice> >::_Xlen
PUBLIC	??0?$_Container_base_aux_alloc_empty@V?$allocator@UMayaBonusChoice@@@std@@@std@@IAE@V?$allocator@UMayaBonusChoice@@@1@@Z ; std::_Container_base_aux_alloc_empty<std::allocator<MayaBonusChoice> >::_Container_base_aux_alloc_empty<std::allocator<MayaBonusChoice> >
; Function compile flags: /Ogtpy
; File c:\program files (x86)\microsoft visual studio 9.0\vc\include\xutility
;	COMDAT ??0?$_Container_base_aux_alloc_empty@V?$allocator@UMayaBonusChoice@@@std@@@std@@IAE@V?$allocator@UMayaBonusChoice@@@1@@Z
_TEXT	SEGMENT
___formal$ = 8						; size = 1
??0?$_Container_base_aux_alloc_empty@V?$allocator@UMayaBonusChoice@@@std@@@std@@IAE@V?$allocator@UMayaBonusChoice@@@1@@Z PROC ; std::_Container_base_aux_alloc_empty<std::allocator<MayaBonusChoice> >::_Container_base_aux_alloc_empty<std::allocator<MayaBonusChoice> >, COMDAT
; _this$ = ecx

; 618  : 	explicit _Container_base_aux_alloc_empty(_Alloc) { }

	mov	eax, ecx
	ret	4
??0?$_Container_base_aux_alloc_empty@V?$allocator@UMayaBonusChoice@@@std@@@std@@IAE@V?$allocator@UMayaBonusChoice@@@1@@Z ENDP ; std::_Container_base_aux_alloc_empty<std::allocator<MayaBonusChoice> >::_Container_base_aux_alloc_empty<std::allocator<MayaBonusChoice> >
_TEXT	ENDS
PUBLIC	??0?$allocator@UMayaBonusChoice@@@std@@QAE@ABV01@@Z ; std::allocator<MayaBonusChoice>::allocator<MayaBonusChoice>
; Function compile flags: /Ogtpy
; File c:\program files (x86)\microsoft visual studio 9.0\vc\include\xmemory
;	COMDAT ??0?$allocator@UMayaBonusChoice@@@std@@QAE@ABV01@@Z
_TEXT	SEGMENT
___formal$ = 8						; size = 4
??0?$allocator@UMayaBonusChoice@@@std@@QAE@ABV01@@Z PROC ; std::allocator<MayaBonusChoice>::allocator<MayaBonusChoice>, COMDAT
; _this$ = ecx

; 123  : 	allocator(const allocator<_Ty>&) _THROW0()

	mov	eax, ecx

; 124  : 		{	// construct by copying (do nothing)
; 125  : 		}

	ret	4
??0?$allocator@UMayaBonusChoice@@@std@@QAE@ABV01@@Z ENDP ; std::allocator<MayaBonusChoice>::allocator<MayaBonusChoice>
_TEXT	ENDS
PUBLIC	?deallocate@?$allocator@UMayaBonusChoice@@@std@@QAEXPAUMayaBonusChoice@@I@Z ; std::allocator<MayaBonusChoice>::deallocate
; Function compile flags: /Ogtpy
;	COMDAT ?deallocate@?$allocator@UMayaBonusChoice@@@std@@QAEXPAUMayaBonusChoice@@I@Z
_TEXT	SEGMENT
__Ptr$ = 8						; size = 4
___formal$ = 12						; size = 4
?deallocate@?$allocator@UMayaBonusChoice@@@std@@QAEXPAUMayaBonusChoice@@I@Z PROC ; std::allocator<MayaBonusChoice>::deallocate, COMDAT
; _this$ = ecx

; 140  : 		::operator delete(_Ptr);

	mov	eax, DWORD PTR __Ptr$[esp-4]
	push	eax
	call	??3@YAXPAX@Z				; operator delete
	pop	ecx

; 141  : 		}

	ret	8
?deallocate@?$allocator@UMayaBonusChoice@@@std@@QAEXPAUMayaBonusChoice@@I@Z ENDP ; std::allocator<MayaBonusChoice>::deallocate
_TEXT	ENDS
PUBLIC	??G?$_Vector_const_iterator@W4TraitTypes@@V?$allocator@W4TraitTypes@@@std@@@std@@QBEHABV01@@Z ; std::_Vector_const_iterator<enum TraitTypes,std::allocator<enum TraitTypes> >::operator-
; Function compile flags: /Ogtpy
; File c:\program files (x86)\microsoft visual studio 9.0\vc\include\vector
;	COMDAT ??G?$_Vector_const_iterator@W4TraitTypes@@V?$allocator@W4TraitTypes@@@std@@@std@@QBEHABV01@@Z
_TEXT	SEGMENT
__Right$ = 8						; size = 4
??G?$_Vector_const_iterator@W4TraitTypes@@V?$allocator@W4TraitTypes@@@std@@@std@@QBEHABV01@@Z PROC ; std::_Vector_const_iterator<enum TraitTypes,std::allocator<enum TraitTypes> >::operator-, COMDAT
; _this$ = ecx

; 187  : 
; 188  :  #if _HAS_ITERATOR_DEBUGGING
; 189  : 		_Compat(_Right);
; 190  :  #else
; 191  : 		_SCL_SECURE_VALIDATE(this->_Has_container() && this->_Same_container(_Right));
; 192  :  #endif /* _HAS_ITERATOR_DEBUGGING */
; 193  : 
; 194  : 		return (_Myptr - _Right._Myptr);

	mov	eax, DWORD PTR [ecx]
	mov	ecx, DWORD PTR __Right$[esp-4]
	sub	eax, DWORD PTR [ecx]
	sar	eax, 2

; 195  : 		}

	ret	4
??G?$_Vector_const_iterator@W4TraitTypes@@V?$allocator@W4TraitTypes@@@std@@@std@@QBEHABV01@@Z ENDP ; std::_Vector_const_iterator<enum TraitTypes,std::allocator<enum TraitTypes> >::operator-
_TEXT	ENDS
PUBLIC	??0iterator@?$_Tree@V?$_Tmap_traits@HHU?$less@H@std@@V?$allocator@U?$pair@$$CBHH@std@@@2@$00@std@@@std@@QAE@PAU_Node@?$_Tree_nod@V?$_Tmap_traits@HHU?$less@H@std@@V?$allocator@U?$pair@$$CBHH@std@@@2@$00@std@@@2@@Z ; std::_Tree<std::_Tmap_traits<int,int,std::less<int>,std::allocator<std::pair<int const ,int> >,1> >::iterator::iterator
; Function compile flags: /Ogtpy
; File c:\program files (x86)\microsoft visual studio 9.0\vc\include\xtree
;	COMDAT ??0iterator@?$_Tree@V?$_Tmap_traits@HHU?$less@H@std@@V?$allocator@U?$pair@$$CBHH@std@@@2@$00@std@@@std@@QAE@PAU_Node@?$_Tree_nod@V?$_Tmap_traits@HHU?$less@H@std@@V?$allocator@U?$pair@$$CBHH@std@@@2@$00@std@@@2@@Z
_TEXT	SEGMENT
__Pnode$ = 8						; size = 4
??0iterator@?$_Tree@V?$_Tmap_traits@HHU?$less@H@std@@V?$allocator@U?$pair@$$CBHH@std@@@2@$00@std@@@std@@QAE@PAU_Node@?$_Tree_nod@V?$_Tmap_traits@HHU?$less@H@std@@V?$allocator@U?$pair@$$CBHH@std@@@2@$00@std@@@2@@Z PROC ; std::_Tree<std::_Tmap_traits<int,int,std::less<int>,std::allocator<std::pair<int const ,int> >,1> >::iterator::iterator, COMDAT
; _this$ = ecx

; 459  : 			{	// construct with node pointer _Pnode

	mov	eax, ecx
	mov	ecx, DWORD PTR __Pnode$[esp-4]
	mov	DWORD PTR [eax], ecx

; 460  : 			}

	ret	4
??0iterator@?$_Tree@V?$_Tmap_traits@HHU?$less@H@std@@V?$allocator@U?$pair@$$CBHH@std@@@2@$00@std@@@std@@QAE@PAU_Node@?$_Tree_nod@V?$_Tmap_traits@HHU?$less@H@std@@V?$allocator@U?$pair@$$CBHH@std@@@2@$00@std@@@2@@Z ENDP ; std::_Tree<std::_Tmap_traits<int,int,std::less<int>,std::allocator<std::pair<int const ,int> >,1> >::iterator::iterator
_TEXT	ENDS
PUBLIC	??0?$_Vector_const_iterator@PAVCvTraitEntry@@V?$allocator@PAVCvTraitEntry@@@std@@@std@@QAE@PAPAVCvTraitEntry@@@Z ; std::_Vector_const_iterator<CvTraitEntry *,std::allocator<CvTraitEntry *> >::_Vector_const_iterator<CvTraitEntry *,std::allocator<CvTraitEntry *> >
; Function compile flags: /Ogtpy
; File c:\program files (x86)\microsoft visual studio 9.0\vc\include\vector
;	COMDAT ??0?$_Vector_const_iterator@PAVCvTraitEntry@@V?$allocator@PAVCvTraitEntry@@@std@@@std@@QAE@PAPAVCvTraitEntry@@@Z
_TEXT	SEGMENT
__Ptr$ = 8						; size = 4
??0?$_Vector_const_iterator@PAVCvTraitEntry@@V?$allocator@PAVCvTraitEntry@@@std@@@std@@QAE@PAPAVCvTraitEntry@@@Z PROC ; std::_Vector_const_iterator<CvTraitEntry *,std::allocator<CvTraitEntry *> >::_Vector_const_iterator<CvTraitEntry *,std::allocator<CvTraitEntry *> >, COMDAT
; _this$ = ecx

; 84   : 	explicit _Vector_const_iterator(_Tptr _Ptr)

	mov	eax, ecx

; 85   : 		{	// construct with pointer _Ptr
; 86   : 		_Myptr = _Ptr;

	mov	ecx, DWORD PTR __Ptr$[esp-4]
	mov	DWORD PTR [eax], ecx

; 87   : 		}

	ret	4
??0?$_Vector_const_iterator@PAVCvTraitEntry@@V?$allocator@PAVCvTraitEntry@@@std@@@std@@QAE@PAPAVCvTraitEntry@@@Z ENDP ; std::_Vector_const_iterator<CvTraitEntry *,std::allocator<CvTraitEntry *> >::_Vector_const_iterator<CvTraitEntry *,std::allocator<CvTraitEntry *> >
_TEXT	ENDS
PUBLIC	??G?$_Vector_const_iterator@UMayaBonusChoice@@V?$allocator@UMayaBonusChoice@@@std@@@std@@QBEHABV01@@Z ; std::_Vector_const_iterator<MayaBonusChoice,std::allocator<MayaBonusChoice> >::operator-
; Function compile flags: /Ogtpy
;	COMDAT ??G?$_Vector_const_iterator@UMayaBonusChoice@@V?$allocator@UMayaBonusChoice@@@std@@@std@@QBEHABV01@@Z
_TEXT	SEGMENT
__Right$ = 8						; size = 4
??G?$_Vector_const_iterator@UMayaBonusChoice@@V?$allocator@UMayaBonusChoice@@@std@@@std@@QBEHABV01@@Z PROC ; std::_Vector_const_iterator<MayaBonusChoice,std::allocator<MayaBonusChoice> >::operator-, COMDAT
; _this$ = ecx

; 187  : 
; 188  :  #if _HAS_ITERATOR_DEBUGGING
; 189  : 		_Compat(_Right);
; 190  :  #else
; 191  : 		_SCL_SECURE_VALIDATE(this->_Has_container() && this->_Same_container(_Right));
; 192  :  #endif /* _HAS_ITERATOR_DEBUGGING */
; 193  : 
; 194  : 		return (_Myptr - _Right._Myptr);

	mov	eax, DWORD PTR [ecx]
	mov	ecx, DWORD PTR __Right$[esp-4]
	sub	eax, DWORD PTR [ecx]
	sar	eax, 3

; 195  : 		}

	ret	4
??G?$_Vector_const_iterator@UMayaBonusChoice@@V?$allocator@UMayaBonusChoice@@@std@@@std@@QBEHABV01@@Z ENDP ; std::_Vector_const_iterator<MayaBonusChoice,std::allocator<MayaBonusChoice> >::operator-
_TEXT	ENDS
PUBLIC	??0?$pair@Viterator@?$_Tree@V?$_Tmap_traits@HHU?$less@H@std@@V?$allocator@U?$pair@$$CBHH@std@@@2@$00@std@@@std@@_N@std@@QAE@ABViterator@?$_Tree@V?$_Tmap_traits@HHU?$less@H@std@@V?$allocator@U?$pair@$$CBHH@std@@@2@$00@std@@@1@AB_N@Z ; std::pair<std::_Tree<std::_Tmap_traits<int,int,std::less<int>,std::allocator<std::pair<int const ,int> >,1> >::iterator,bool>::pair<std::_Tree<std::_Tmap_traits<int,int,std::less<int>,std::allocator<std::pair<int const ,int> >,1> >::iterator,bool>
; Function compile flags: /Ogtpy
; File c:\program files (x86)\microsoft visual studio 9.0\vc\include\utility
;	COMDAT ??0?$pair@Viterator@?$_Tree@V?$_Tmap_traits@HHU?$less@H@std@@V?$allocator@U?$pair@$$CBHH@std@@@2@$00@std@@@std@@_N@std@@QAE@ABViterator@?$_Tree@V?$_Tmap_traits@HHU?$less@H@std@@V?$allocator@U?$pair@$$CBHH@std@@@2@$00@std@@@1@AB_N@Z
_TEXT	SEGMENT
__Val1$ = 8						; size = 4
__Val2$ = 12						; size = 4
??0?$pair@Viterator@?$_Tree@V?$_Tmap_traits@HHU?$less@H@std@@V?$allocator@U?$pair@$$CBHH@std@@@2@$00@std@@@std@@_N@std@@QAE@ABViterator@?$_Tree@V?$_Tmap_traits@HHU?$less@H@std@@V?$allocator@U?$pair@$$CBHH@std@@@2@$00@std@@@1@AB_N@Z PROC ; std::pair<std::_Tree<std::_Tmap_traits<int,int,std::less<int>,std::allocator<std::pair<int const ,int> >,1> >::iterator,bool>::pair<std::_Tree<std::_Tmap_traits<int,int,std::less<int>,std::allocator<std::pair<int const ,int> >,1> >::iterator,bool>, COMDAT
; _this$ = ecx

; 50   : 		{	// construct from specified values

	mov	eax, ecx
	mov	ecx, DWORD PTR __Val1$[esp-4]
	mov	edx, DWORD PTR [ecx]
	mov	ecx, DWORD PTR __Val2$[esp-4]
	mov	DWORD PTR [eax], edx
	mov	dl, BYTE PTR [ecx]
	mov	BYTE PTR [eax+4], dl

; 51   : 		}

	ret	8
??0?$pair@Viterator@?$_Tree@V?$_Tmap_traits@HHU?$less@H@std@@V?$allocator@U?$pair@$$CBHH@std@@@2@$00@std@@@std@@_N@std@@QAE@ABViterator@?$_Tree@V?$_Tmap_traits@HHU?$less@H@std@@V?$allocator@U?$pair@$$CBHH@std@@@2@$00@std@@@1@AB_N@Z ENDP ; std::pair<std::_Tree<std::_Tmap_traits<int,int,std::less<int>,std::allocator<std::pair<int const ,int> >,1> >::iterator,bool>::pair<std::_Tree<std::_Tmap_traits<int,int,std::less<int>,std::allocator<std::pair<int const ,int> >,1> >::iterator,bool>
_TEXT	ENDS
PUBLIC	??G?$_Vector_const_iterator@UFreeResourceXCities@@V?$allocator@UFreeResourceXCities@@@std@@@std@@QBEHABV01@@Z ; std::_Vector_const_iterator<FreeResourceXCities,std::allocator<FreeResourceXCities> >::operator-
; Function compile flags: /Ogtpy
; File c:\program files (x86)\microsoft visual studio 9.0\vc\include\vector
;	COMDAT ??G?$_Vector_const_iterator@UFreeResourceXCities@@V?$allocator@UFreeResourceXCities@@@std@@@std@@QBEHABV01@@Z
_TEXT	SEGMENT
__Right$ = 8						; size = 4
??G?$_Vector_const_iterator@UFreeResourceXCities@@V?$allocator@UFreeResourceXCities@@@std@@@std@@QBEHABV01@@Z PROC ; std::_Vector_const_iterator<FreeResourceXCities,std::allocator<FreeResourceXCities> >::operator-, COMDAT
; _this$ = ecx

; 187  : 
; 188  :  #if _HAS_ITERATOR_DEBUGGING
; 189  : 		_Compat(_Right);
; 190  :  #else
; 191  : 		_SCL_SECURE_VALIDATE(this->_Has_container() && this->_Same_container(_Right));
; 192  :  #endif /* _HAS_ITERATOR_DEBUGGING */
; 193  : 
; 194  : 		return (_Myptr - _Right._Myptr);

	mov	eax, DWORD PTR [ecx]
	mov	ecx, DWORD PTR __Right$[esp-4]
	sub	eax, DWORD PTR [ecx]
	sar	eax, 3

; 195  : 		}

	ret	4
??G?$_Vector_const_iterator@UFreeResourceXCities@@V?$allocator@UFreeResourceXCities@@@std@@@std@@QBEHABV01@@Z ENDP ; std::_Vector_const_iterator<FreeResourceXCities,std::allocator<FreeResourceXCities> >::operator-
_TEXT	ENDS
PUBLIC	?_Color@?$_Tree@V?$_Tmap_traits@HHU?$less@H@std@@V?$allocator@U?$pair@$$CBHH@std@@@2@$00@std@@@std@@KAAADPAU_Node@?$_Tree_nod@V?$_Tmap_traits@HHU?$less@H@std@@V?$allocator@U?$pair@$$CBHH@std@@@2@$00@std@@@2@@Z ; std::_Tree<std::_Tmap_traits<int,int,std::less<int>,std::allocator<std::pair<int const ,int> >,1> >::_Color
; Function compile flags: /Ogtpy
; File c:\program files (x86)\microsoft visual studio 9.0\vc\include\xtree
;	COMDAT ?_Color@?$_Tree@V?$_Tmap_traits@HHU?$less@H@std@@V?$allocator@U?$pair@$$CBHH@std@@@2@$00@std@@@std@@KAAADPAU_Node@?$_Tree_nod@V?$_Tmap_traits@HHU?$less@H@std@@V?$allocator@U?$pair@$$CBHH@std@@@2@$00@std@@@2@@Z
_TEXT	SEGMENT
__Pnode$ = 8						; size = 4
?_Color@?$_Tree@V?$_Tmap_traits@HHU?$less@H@std@@V?$allocator@U?$pair@$$CBHH@std@@@2@$00@std@@@std@@KAAADPAU_Node@?$_Tree_nod@V?$_Tmap_traits@HHU?$less@H@std@@V?$allocator@U?$pair@$$CBHH@std@@@2@$00@std@@@2@@Z PROC ; std::_Tree<std::_Tmap_traits<int,int,std::less<int>,std::allocator<std::pair<int const ,int> >,1> >::_Color, COMDAT

; 152  : 		return ((_Charref)(*_Pnode)._Color);

	mov	eax, DWORD PTR __Pnode$[esp-4]
	add	eax, 20					; 00000014H

; 153  : 		}

	ret	0
?_Color@?$_Tree@V?$_Tmap_traits@HHU?$less@H@std@@V?$allocator@U?$pair@$$CBHH@std@@@2@$00@std@@@std@@KAAADPAU_Node@?$_Tree_nod@V?$_Tmap_traits@HHU?$less@H@std@@V?$allocator@U?$pair@$$CBHH@std@@@2@$00@std@@@2@@Z ENDP ; std::_Tree<std::_Tmap_traits<int,int,std::less<int>,std::allocator<std::pair<int const ,int> >,1> >::_Color
_TEXT	ENDS
PUBLIC	?_Make_iter@?$_Tree@V?$_Tmap_traits@HHU?$less@H@std@@V?$allocator@U?$pair@$$CBHH@std@@@2@$00@std@@@std@@QBE?AViterator@12@Vconst_iterator@12@@Z ; std::_Tree<std::_Tmap_traits<int,int,std::less<int>,std::allocator<std::pair<int const ,int> >,1> >::_Make_iter
; Function compile flags: /Ogtpy
;	COMDAT ?_Make_iter@?$_Tree@V?$_Tmap_traits@HHU?$less@H@std@@V?$allocator@U?$pair@$$CBHH@std@@@2@$00@std@@@std@@QBE?AViterator@12@Vconst_iterator@12@@Z
_TEXT	SEGMENT
___$ReturnUdt$ = 8					; size = 4
__Where$ = 12						; size = 4
?_Make_iter@?$_Tree@V?$_Tmap_traits@HHU?$less@H@std@@V?$allocator@U?$pair@$$CBHH@std@@@2@$00@std@@@std@@QBE?AViterator@12@Vconst_iterator@12@@Z PROC ; std::_Tree<std::_Tmap_traits<int,int,std::less<int>,std::allocator<std::pair<int const ,int> >,1> >::_Make_iter, COMDAT
; _this$ = ecx

; 576  : 		return (iterator(_TREE_ITERATOR(_Where._Ptr)));

	mov	eax, DWORD PTR ___$ReturnUdt$[esp-4]
	mov	ecx, DWORD PTR __Where$[esp-4]
	mov	DWORD PTR [eax], ecx

; 577  : 		}

	ret	8
?_Make_iter@?$_Tree@V?$_Tmap_traits@HHU?$less@H@std@@V?$allocator@U?$pair@$$CBHH@std@@@2@$00@std@@@std@@QBE?AViterator@12@Vconst_iterator@12@@Z ENDP ; std::_Tree<std::_Tmap_traits<int,int,std::less<int>,std::allocator<std::pair<int const ,int> >,1> >::_Make_iter
_TEXT	ENDS
PUBLIC	?_Lrotate@?$_Tree@V?$_Tmap_traits@HHU?$less@H@std@@V?$allocator@U?$pair@$$CBHH@std@@@2@$00@std@@@std@@IAEXPAU_Node@?$_Tree_nod@V?$_Tmap_traits@HHU?$less@H@std@@V?$allocator@U?$pair@$$CBHH@std@@@2@$00@std@@@2@@Z ; std::_Tree<std::_Tmap_traits<int,int,std::less<int>,std::allocator<std::pair<int const ,int> >,1> >::_Lrotate
; Function compile flags: /Ogtpy
;	COMDAT ?_Lrotate@?$_Tree@V?$_Tmap_traits@HHU?$less@H@std@@V?$allocator@U?$pair@$$CBHH@std@@@2@$00@std@@@std@@IAEXPAU_Node@?$_Tree_nod@V?$_Tmap_traits@HHU?$less@H@std@@V?$allocator@U?$pair@$$CBHH@std@@@2@$00@std@@@2@@Z
_TEXT	SEGMENT
__Wherenode$ = 8					; size = 4
?_Lrotate@?$_Tree@V?$_Tmap_traits@HHU?$less@H@std@@V?$allocator@U?$pair@$$CBHH@std@@@2@$00@std@@@std@@IAEXPAU_Node@?$_Tree_nod@V?$_Tmap_traits@HHU?$less@H@std@@V?$allocator@U?$pair@$$CBHH@std@@@2@$00@std@@@2@@Z PROC ; std::_Tree<std::_Tmap_traits<int,int,std::less<int>,std::allocator<std::pair<int const ,int> >,1> >::_Lrotate, COMDAT
; _this$ = ecx

; 1286 : 		_Nodeptr _Pnode = _Right(_Wherenode);

	mov	edx, DWORD PTR __Wherenode$[esp-4]
	mov	eax, DWORD PTR [edx+8]
	push	esi

; 1287 : 		_Right(_Wherenode) = _Left(_Pnode);

	mov	esi, DWORD PTR [eax]
	mov	DWORD PTR [edx+8], esi

; 1288 : 
; 1289 : 		if (!_Isnil(_Left(_Pnode)))

	mov	esi, DWORD PTR [eax]
	cmp	BYTE PTR [esi+21], 0
	jne	SHORT $LN5@Lrotate

; 1290 : 			_Parent(_Left(_Pnode)) = _Wherenode;

	mov	DWORD PTR [esi+4], edx
$LN5@Lrotate:

; 1291 : 		_Parent(_Pnode) = _Parent(_Wherenode);

	mov	esi, DWORD PTR [edx+4]
	mov	DWORD PTR [eax+4], esi

; 1292 : 
; 1293 : 		if (_Wherenode == _Root())

	mov	ecx, DWORD PTR [ecx+4]
	pop	esi
	cmp	edx, DWORD PTR [ecx+4]
	jne	SHORT $LN4@Lrotate

; 1294 : 			_Root() = _Pnode;

	mov	DWORD PTR [ecx+4], eax

; 1299 : 
; 1300 : 		_Left(_Pnode) = _Wherenode;

	mov	DWORD PTR [eax], edx

; 1301 : 		_Parent(_Wherenode) = _Pnode;

	mov	DWORD PTR [edx+4], eax

; 1302 : 		}

	ret	4
$LN4@Lrotate:

; 1295 : 		else if (_Wherenode == _Left(_Parent(_Wherenode)))

	mov	ecx, DWORD PTR [edx+4]
	cmp	edx, DWORD PTR [ecx]
	jne	SHORT $LN2@Lrotate

; 1296 : 			_Left(_Parent(_Wherenode)) = _Pnode;

	mov	DWORD PTR [ecx], eax

; 1299 : 
; 1300 : 		_Left(_Pnode) = _Wherenode;

	mov	DWORD PTR [eax], edx

; 1301 : 		_Parent(_Wherenode) = _Pnode;

	mov	DWORD PTR [edx+4], eax

; 1302 : 		}

	ret	4
$LN2@Lrotate:

; 1297 : 		else
; 1298 : 			_Right(_Parent(_Wherenode)) = _Pnode;

	mov	DWORD PTR [ecx+8], eax

; 1299 : 
; 1300 : 		_Left(_Pnode) = _Wherenode;

	mov	DWORD PTR [eax], edx

; 1301 : 		_Parent(_Wherenode) = _Pnode;

	mov	DWORD PTR [edx+4], eax

; 1302 : 		}

	ret	4
?_Lrotate@?$_Tree@V?$_Tmap_traits@HHU?$less@H@std@@V?$allocator@U?$pair@$$CBHH@std@@@2@$00@std@@@std@@IAEXPAU_Node@?$_Tree_nod@V?$_Tmap_traits@HHU?$less@H@std@@V?$allocator@U?$pair@$$CBHH@std@@@2@$00@std@@@2@@Z ENDP ; std::_Tree<std::_Tmap_traits<int,int,std::less<int>,std::allocator<std::pair<int const ,int> >,1> >::_Lrotate
_TEXT	ENDS
PUBLIC	?_Rrotate@?$_Tree@V?$_Tmap_traits@HHU?$less@H@std@@V?$allocator@U?$pair@$$CBHH@std@@@2@$00@std@@@std@@IAEXPAU_Node@?$_Tree_nod@V?$_Tmap_traits@HHU?$less@H@std@@V?$allocator@U?$pair@$$CBHH@std@@@2@$00@std@@@2@@Z ; std::_Tree<std::_Tmap_traits<int,int,std::less<int>,std::allocator<std::pair<int const ,int> >,1> >::_Rrotate
; Function compile flags: /Ogtpy
;	COMDAT ?_Rrotate@?$_Tree@V?$_Tmap_traits@HHU?$less@H@std@@V?$allocator@U?$pair@$$CBHH@std@@@2@$00@std@@@std@@IAEXPAU_Node@?$_Tree_nod@V?$_Tmap_traits@HHU?$less@H@std@@V?$allocator@U?$pair@$$CBHH@std@@@2@$00@std@@@2@@Z
_TEXT	SEGMENT
__Wherenode$ = 8					; size = 4
?_Rrotate@?$_Tree@V?$_Tmap_traits@HHU?$less@H@std@@V?$allocator@U?$pair@$$CBHH@std@@@2@$00@std@@@std@@IAEXPAU_Node@?$_Tree_nod@V?$_Tmap_traits@HHU?$less@H@std@@V?$allocator@U?$pair@$$CBHH@std@@@2@$00@std@@@2@@Z PROC ; std::_Tree<std::_Tmap_traits<int,int,std::less<int>,std::allocator<std::pair<int const ,int> >,1> >::_Rrotate, COMDAT
; _this$ = ecx

; 1330 : 		_Nodeptr _Pnode = _Left(_Wherenode);

	mov	edx, DWORD PTR __Wherenode$[esp-4]
	mov	eax, DWORD PTR [edx]
	push	esi

; 1331 : 		_Left(_Wherenode) = _Right(_Pnode);

	mov	esi, DWORD PTR [eax+8]
	mov	DWORD PTR [edx], esi

; 1332 : 
; 1333 : 		if (!_Isnil(_Right(_Pnode)))

	mov	esi, DWORD PTR [eax+8]
	cmp	BYTE PTR [esi+21], 0
	jne	SHORT $LN5@Rrotate

; 1334 : 			_Parent(_Right(_Pnode)) = _Wherenode;

	mov	DWORD PTR [esi+4], edx
$LN5@Rrotate:

; 1335 : 		_Parent(_Pnode) = _Parent(_Wherenode);

	mov	esi, DWORD PTR [edx+4]
	mov	DWORD PTR [eax+4], esi

; 1336 : 
; 1337 : 		if (_Wherenode == _Root())

	mov	ecx, DWORD PTR [ecx+4]
	pop	esi
	cmp	edx, DWORD PTR [ecx+4]
	jne	SHORT $LN4@Rrotate

; 1338 : 			_Root() = _Pnode;

	mov	DWORD PTR [ecx+4], eax

; 1343 : 
; 1344 : 		_Right(_Pnode) = _Wherenode;

	mov	DWORD PTR [eax+8], edx

; 1345 : 		_Parent(_Wherenode) = _Pnode;

	mov	DWORD PTR [edx+4], eax

; 1346 : 		}

	ret	4
$LN4@Rrotate:

; 1339 : 		else if (_Wherenode == _Right(_Parent(_Wherenode)))

	mov	ecx, DWORD PTR [edx+4]
	cmp	edx, DWORD PTR [ecx+8]
	jne	SHORT $LN2@Rrotate

; 1340 : 			_Right(_Parent(_Wherenode)) = _Pnode;

	mov	DWORD PTR [ecx+8], eax

; 1343 : 
; 1344 : 		_Right(_Pnode) = _Wherenode;

	mov	DWORD PTR [eax+8], edx

; 1345 : 		_Parent(_Wherenode) = _Pnode;

	mov	DWORD PTR [edx+4], eax

; 1346 : 		}

	ret	4
$LN2@Rrotate:

; 1341 : 		else
; 1342 : 			_Left(_Parent(_Wherenode)) = _Pnode;

	mov	DWORD PTR [ecx], eax

; 1343 : 
; 1344 : 		_Right(_Pnode) = _Wherenode;

	mov	DWORD PTR [eax+8], edx

; 1345 : 		_Parent(_Wherenode) = _Pnode;

	mov	DWORD PTR [edx+4], eax

; 1346 : 		}

	ret	4
?_Rrotate@?$_Tree@V?$_Tmap_traits@HHU?$less@H@std@@V?$allocator@U?$pair@$$CBHH@std@@@2@$00@std@@@std@@IAEXPAU_Node@?$_Tree_nod@V?$_Tmap_traits@HHU?$less@H@std@@V?$allocator@U?$pair@$$CBHH@std@@@2@$00@std@@@2@@Z ENDP ; std::_Tree<std::_Tmap_traits<int,int,std::less<int>,std::allocator<std::pair<int const ,int> >,1> >::_Rrotate
_TEXT	ENDS
EXTRN	__imp_??0exception@std@@QAE@ABV01@@Z:PROC
;	COMDAT xdata$x
xdata$x	SEGMENT
__unwindtable$??0logic_error@std@@QAE@ABV01@@Z DD 0ffffffffH
	DD	FLAT:__unwindfunclet$??0logic_error@std@@QAE@ABV01@@Z$0
__ehfuncinfo$??0logic_error@std@@QAE@ABV01@@Z DD 019930522H
	DD	01H
	DD	FLAT:__unwindtable$??0logic_error@std@@QAE@ABV01@@Z
	DD	2 DUP(00H)
	DD	2 DUP(00H)
	DD	00H
	DD	01H
; Function compile flags: /Ogtpy
xdata$x	ENDS
;	COMDAT ??0logic_error@std@@QAE@ABV01@@Z
_TEXT	SEGMENT
_this$ = -16						; size = 4
__$EHRec$ = -12						; size = 12
___that$ = 8						; size = 4
??0logic_error@std@@QAE@ABV01@@Z PROC			; std::logic_error::logic_error, COMDAT
; _this$ = ecx
	push	-1
	push	__ehhandler$??0logic_error@std@@QAE@ABV01@@Z
	mov	eax, DWORD PTR fs:0
	push	eax
	mov	DWORD PTR fs:0, esp
	push	ecx
	push	esi
	push	edi
	mov	edi, DWORD PTR ___that$[esp+20]
	mov	esi, ecx
	push	edi
	mov	DWORD PTR _this$[esp+28], esi
	call	DWORD PTR __imp_??0exception@std@@QAE@ABV01@@Z
	add	edi, 12					; 0000000cH
	push	edi
	lea	ecx, DWORD PTR [esi+12]
	mov	DWORD PTR __$EHRec$[esp+36], 0
	mov	DWORD PTR [esi], OFFSET ??_7logic_error@std@@6B@
	call	DWORD PTR __imp_??0?$basic_string@DU?$char_traits@D@std@@V?$allocator@D@2@@std@@QAE@ABV01@@Z
	mov	ecx, DWORD PTR __$EHRec$[esp+24]
	pop	edi
	mov	eax, esi
	pop	esi
	mov	DWORD PTR fs:0, ecx
	add	esp, 16					; 00000010H
	ret	4
_TEXT	ENDS
;	COMDAT text$x
text$x	SEGMENT
__unwindfunclet$??0logic_error@std@@QAE@ABV01@@Z$0:
	mov	ecx, DWORD PTR _this$[ebp]
	jmp	DWORD PTR __imp_??1exception@std@@UAE@XZ
__ehhandler$??0logic_error@std@@QAE@ABV01@@Z:
	mov	eax, OFFSET __ehfuncinfo$??0logic_error@std@@QAE@ABV01@@Z
	jmp	___CxxFrameHandler3
text$x	ENDS
??0logic_error@std@@QAE@ABV01@@Z ENDP			; std::logic_error::logic_error
PUBLIC	?max_size@?$allocator@UFreeResourceXCities@@@std@@QBEIXZ ; std::allocator<FreeResourceXCities>::max_size
; Function compile flags: /Ogtpy
; File c:\program files (x86)\microsoft visual studio 9.0\vc\include\xmemory
;	COMDAT ?max_size@?$allocator@UFreeResourceXCities@@@std@@QBEIXZ
_TEXT	SEGMENT
?max_size@?$allocator@UFreeResourceXCities@@@std@@QBEIXZ PROC ; std::allocator<FreeResourceXCities>::max_size, COMDAT
; _this$ = ecx

; 165  : 		_SIZT _Count = (_SIZT)(-1) / sizeof (_Ty);
; 166  : 		return (0 < _Count ? _Count : 1);

	mov	eax, 536870911				; 1fffffffH

; 167  : 		}

	ret	0
?max_size@?$allocator@UFreeResourceXCities@@@std@@QBEIXZ ENDP ; std::allocator<FreeResourceXCities>::max_size
_TEXT	ENDS
PUBLIC	?max_size@?$allocator@PAVCvTraitEntry@@@std@@QBEIXZ ; std::allocator<CvTraitEntry *>::max_size
; Function compile flags: /Ogtpy
;	COMDAT ?max_size@?$allocator@PAVCvTraitEntry@@@std@@QBEIXZ
_TEXT	SEGMENT
?max_size@?$allocator@PAVCvTraitEntry@@@std@@QBEIXZ PROC ; std::allocator<CvTraitEntry *>::max_size, COMDAT
; _this$ = ecx

; 165  : 		_SIZT _Count = (_SIZT)(-1) / sizeof (_Ty);
; 166  : 		return (0 < _Count ? _Count : 1);

	mov	eax, 1073741823				; 3fffffffH

; 167  : 		}

	ret	0
?max_size@?$allocator@PAVCvTraitEntry@@@std@@QBEIXZ ENDP ; std::allocator<CvTraitEntry *>::max_size
_TEXT	ENDS
PUBLIC	?max_size@?$allocator@UMayaBonusChoice@@@std@@QBEIXZ ; std::allocator<MayaBonusChoice>::max_size
; Function compile flags: /Ogtpy
;	COMDAT ?max_size@?$allocator@UMayaBonusChoice@@@std@@QBEIXZ
_TEXT	SEGMENT
?max_size@?$allocator@UMayaBonusChoice@@@std@@QBEIXZ PROC ; std::allocator<MayaBonusChoice>::max_size, COMDAT
; _this$ = ecx

; 165  : 		_SIZT _Count = (_SIZT)(-1) / sizeof (_Ty);
; 166  : 		return (0 < _Count ? _Count : 1);

	mov	eax, 536870911				; 1fffffffH

; 167  : 		}

	ret	0
?max_size@?$allocator@UMayaBonusChoice@@@std@@QBEIXZ ENDP ; std::allocator<MayaBonusChoice>::max_size
_TEXT	ENDS
PUBLIC	??0?$_Vector_const_iterator@UFreeResourceXCities@@V?$allocator@UFreeResourceXCities@@@std@@@std@@QAE@PAUFreeResourceXCities@@@Z ; std::_Vector_const_iterator<FreeResourceXCities,std::allocator<FreeResourceXCities> >::_Vector_const_iterator<FreeResourceXCities,std::allocator<FreeResourceXCities> >
; Function compile flags: /Ogtpy
; File c:\program files (x86)\microsoft visual studio 9.0\vc\include\vector
;	COMDAT ??0?$_Vector_const_iterator@UFreeResourceXCities@@V?$allocator@UFreeResourceXCities@@@std@@@std@@QAE@PAUFreeResourceXCities@@@Z
_TEXT	SEGMENT
__Ptr$ = 8						; size = 4
??0?$_Vector_const_iterator@UFreeResourceXCities@@V?$allocator@UFreeResourceXCities@@@std@@@std@@QAE@PAUFreeResourceXCities@@@Z PROC ; std::_Vector_const_iterator<FreeResourceXCities,std::allocator<FreeResourceXCities> >::_Vector_const_iterator<FreeResourceXCities,std::allocator<FreeResourceXCities> >, COMDAT
; _this$ = ecx

; 84   : 	explicit _Vector_const_iterator(_Tptr _Ptr)

	mov	eax, ecx

; 85   : 		{	// construct with pointer _Ptr
; 86   : 		_Myptr = _Ptr;

	mov	ecx, DWORD PTR __Ptr$[esp-4]
	mov	DWORD PTR [eax], ecx

; 87   : 		}

	ret	4
??0?$_Vector_const_iterator@UFreeResourceXCities@@V?$allocator@UFreeResourceXCities@@@std@@@std@@QAE@PAUFreeResourceXCities@@@Z ENDP ; std::_Vector_const_iterator<FreeResourceXCities,std::allocator<FreeResourceXCities> >::_Vector_const_iterator<FreeResourceXCities,std::allocator<FreeResourceXCities> >
_TEXT	ENDS
PUBLIC	??8?$_Vector_const_iterator@UFreeResourceXCities@@V?$allocator@UFreeResourceXCities@@@std@@@std@@QBE_NABV01@@Z ; std::_Vector_const_iterator<FreeResourceXCities,std::allocator<FreeResourceXCities> >::operator==
; Function compile flags: /Ogtpy
;	COMDAT ??8?$_Vector_const_iterator@UFreeResourceXCities@@V?$allocator@UFreeResourceXCities@@@std@@@std@@QBE_NABV01@@Z
_TEXT	SEGMENT
__Right$ = 8						; size = 4
??8?$_Vector_const_iterator@UFreeResourceXCities@@V?$allocator@UFreeResourceXCities@@@std@@@std@@QBE_NABV01@@Z PROC ; std::_Vector_const_iterator<FreeResourceXCities,std::allocator<FreeResourceXCities> >::operator==, COMDAT
; _this$ = ecx

; 204  : 
; 205  :  #if _HAS_ITERATOR_DEBUGGING
; 206  : 		_Compat(_Right);
; 207  :  #else
; 208  : 		_SCL_SECURE_VALIDATE(this->_Has_container() && this->_Same_container(_Right));
; 209  :  #endif /* _HAS_ITERATOR_DEBUGGING */
; 210  : 
; 211  : 		return (_Myptr == _Right._Myptr);

	mov	eax, DWORD PTR [ecx]
	mov	edx, DWORD PTR __Right$[esp-4]
	xor	ecx, ecx
	cmp	eax, DWORD PTR [edx]
	sete	cl
	mov	al, cl

; 212  : 		}

	ret	4
??8?$_Vector_const_iterator@UFreeResourceXCities@@V?$allocator@UFreeResourceXCities@@@std@@@std@@QBE_NABV01@@Z ENDP ; std::_Vector_const_iterator<FreeResourceXCities,std::allocator<FreeResourceXCities> >::operator==
_TEXT	ENDS
PUBLIC	?max_size@?$allocator@U?$pair@$$CBHH@std@@@std@@QBEIXZ ; std::allocator<std::pair<int const ,int> >::max_size
; Function compile flags: /Ogtpy
; File c:\program files (x86)\microsoft visual studio 9.0\vc\include\xmemory
;	COMDAT ?max_size@?$allocator@U?$pair@$$CBHH@std@@@std@@QBEIXZ
_TEXT	SEGMENT
?max_size@?$allocator@U?$pair@$$CBHH@std@@@std@@QBEIXZ PROC ; std::allocator<std::pair<int const ,int> >::max_size, COMDAT
; _this$ = ecx

; 165  : 		_SIZT _Count = (_SIZT)(-1) / sizeof (_Ty);
; 166  : 		return (0 < _Count ? _Count : 1);

	mov	eax, 536870911				; 1fffffffH

; 167  : 		}

	ret	0
?max_size@?$allocator@U?$pair@$$CBHH@std@@@std@@QBEIXZ ENDP ; std::allocator<std::pair<int const ,int> >::max_size
_TEXT	ENDS
PUBLIC	??Y?$_Vector_const_iterator@W4TraitTypes@@V?$allocator@W4TraitTypes@@@std@@@std@@QAEAAV01@H@Z ; std::_Vector_const_iterator<enum TraitTypes,std::allocator<enum TraitTypes> >::operator+=
; Function compile flags: /Ogtpy
; File c:\program files (x86)\microsoft visual studio 9.0\vc\include\vector
;	COMDAT ??Y?$_Vector_const_iterator@W4TraitTypes@@V?$allocator@W4TraitTypes@@@std@@@std@@QAEAAV01@H@Z
_TEXT	SEGMENT
__Off$ = 8						; size = 4
??Y?$_Vector_const_iterator@W4TraitTypes@@V?$allocator@W4TraitTypes@@@std@@@std@@QAEAAV01@H@Z PROC ; std::_Vector_const_iterator<enum TraitTypes,std::allocator<enum TraitTypes> >::operator+=, COMDAT
; _this$ = ecx

; 159  : 		{	// increment by integer

	mov	eax, ecx

; 160  : 		_SCL_SECURE_VALIDATE(this->_Has_container());
; 161  : 		_SCL_SECURE_VALIDATE_RANGE(
; 162  : 			_Myptr + _Off <= ((_Myvec *)(this->_Getmycont()))->_Mylast &&
; 163  : 			_Myptr + _Off >= ((_Myvec *)(this->_Getmycont()))->_Myfirst);
; 164  : 		_Myptr += _Off;

	mov	ecx, DWORD PTR __Off$[esp-4]
	lea	edx, DWORD PTR [ecx*4]
	add	DWORD PTR [eax], edx

; 165  : 		return (*this);
; 166  : 		}

	ret	4
??Y?$_Vector_const_iterator@W4TraitTypes@@V?$allocator@W4TraitTypes@@@std@@@std@@QAEAAV01@H@Z ENDP ; std::_Vector_const_iterator<enum TraitTypes,std::allocator<enum TraitTypes> >::operator+=
_TEXT	ENDS
PUBLIC	?_Dec@const_iterator@?$_Tree@V?$_Tmap_traits@HHU?$less@H@std@@V?$allocator@U?$pair@$$CBHH@std@@@2@$00@std@@@std@@QAEXXZ ; std::_Tree<std::_Tmap_traits<int,int,std::less<int>,std::allocator<std::pair<int const ,int> >,1> >::const_iterator::_Dec
; Function compile flags: /Ogtpy
; File c:\program files (x86)\microsoft visual studio 9.0\vc\include\xtree
;	COMDAT ?_Dec@const_iterator@?$_Tree@V?$_Tmap_traits@HHU?$less@H@std@@V?$allocator@U?$pair@$$CBHH@std@@@2@$00@std@@@std@@QAEXXZ
_TEXT	SEGMENT
?_Dec@const_iterator@?$_Tree@V?$_Tmap_traits@HHU?$less@H@std@@V?$allocator@U?$pair@$$CBHH@std@@@2@$00@std@@@std@@QAEXXZ PROC ; std::_Tree<std::_Tmap_traits<int,int,std::less<int>,std::allocator<std::pair<int const ,int> >,1> >::const_iterator::_Dec, COMDAT
; _this$ = ecx

; 321  : 
; 322  :  #if _HAS_ITERATOR_DEBUGGING
; 323  : 			if (this->_Mycont == 0
; 324  : 				|| _Ptr == 0)
; 325  : 				{
; 326  : 				_DEBUG_ERROR("map/set iterator not decrementable");
; 327  : 				_SCL_SECURE_INVALID_ARGUMENT;
; 328  : 				}
; 329  :  #else
; 330  : 			_SCL_SECURE_VALIDATE(this->_Has_container());
; 331  :  #endif /* _HAS_ITERATOR_DEBUGGING */
; 332  : 
; 333  : 			if (_Isnil(_Ptr))

	mov	eax, DWORD PTR [ecx]
	cmp	BYTE PTR [eax+21], 0
	je	SHORT $LN9@Dec

; 334  : 			{
; 335  : 				_Ptr = _Right(_Ptr);	// end() ==> rightmost

	mov	eax, DWORD PTR [eax+8]

; 359  :  #if _HAS_ITERATOR_DEBUGGING
; 360  :  					{
; 361  : 					_DEBUG_ERROR("map/set iterator not decrementable");
; 362  : 					_SCL_SECURE_OUT_OF_RANGE;
; 363  : 					}
; 364  :  #elif _SECURE_SCL
; 365  : 					{
; 366  : 					_SCL_SECURE_OUT_OF_RANGE;
; 367  : 					}
; 368  :  #else
; 369  : 					return;	// begin() shouldn't be incremented, don't move
; 370  :  #endif
; 371  : 				else
; 372  : 					_Ptr = _Pnode;	// ==> parent if not head

	mov	DWORD PTR [ecx], eax

; 373  : 				}
; 374  : 			}

	ret	0
$LN9@Dec:

; 336  :    				if (_Isnil(_Ptr))
; 337  : #if _HAS_ITERATOR_DEBUGGING
; 338  : 				{
; 339  : 					_DEBUG_ERROR("map/set iterator not decrementable");
; 340  : 					_SCL_SECURE_OUT_OF_RANGE;
; 341  : 				}
; 342  : #elif _SECURE_SCL
; 343  : 				{
; 344  :     				_SCL_SECURE_OUT_OF_RANGE;
; 345  : 				}
; 346  : #else
; 347  : 				return;	// begin() shouldn't be incremented, don't move
; 348  : #endif
; 349  : 			}
; 350  : 			else if (!_Isnil(_Left(_Ptr)))

	mov	edx, DWORD PTR [eax]
	cmp	BYTE PTR [edx+21], 0
	jne	SHORT $LN43@Dec

; 351  : 				_Ptr = _Max(_Left(_Ptr));	// ==> largest of left subtree

	mov	eax, DWORD PTR [edx+8]
	cmp	BYTE PTR [eax+21], 0
	jne	SHORT $LN24@Dec
	npad	1
$LL25@Dec:
	mov	edx, eax
	mov	eax, DWORD PTR [edx+8]
	cmp	BYTE PTR [eax+21], 0
	je	SHORT $LL25@Dec
$LN24@Dec:
	mov	DWORD PTR [ecx], edx

; 373  : 				}
; 374  : 			}

	ret	0
$LN43@Dec:

; 352  : 			else
; 353  : 				{	// climb looking for left subtree
; 354  : 				_Nodeptr _Pnode;
; 355  : 				while (!_Isnil(_Pnode = _Parent(_Ptr))
; 356  : 					&& _Ptr == _Left(_Pnode))

	mov	eax, DWORD PTR [eax+4]
	cmp	BYTE PTR [eax+21], 0
	jne	SHORT $LN3@Dec
$LL4@Dec:
	mov	edx, DWORD PTR [ecx]
	cmp	edx, DWORD PTR [eax]
	jne	SHORT $LN3@Dec

; 357  : 					_Ptr = _Pnode;	// ==> parent while left subtree

	mov	DWORD PTR [ecx], eax
	mov	eax, DWORD PTR [eax+4]
	cmp	BYTE PTR [eax+21], 0
	je	SHORT $LL4@Dec
$LN3@Dec:

; 358  : 				if (_Isnil(_Ptr))

	mov	edx, DWORD PTR [ecx]
	cmp	BYTE PTR [edx+21], 0
	jne	SHORT $LN1@Dec

; 359  :  #if _HAS_ITERATOR_DEBUGGING
; 360  :  					{
; 361  : 					_DEBUG_ERROR("map/set iterator not decrementable");
; 362  : 					_SCL_SECURE_OUT_OF_RANGE;
; 363  : 					}
; 364  :  #elif _SECURE_SCL
; 365  : 					{
; 366  : 					_SCL_SECURE_OUT_OF_RANGE;
; 367  : 					}
; 368  :  #else
; 369  : 					return;	// begin() shouldn't be incremented, don't move
; 370  :  #endif
; 371  : 				else
; 372  : 					_Ptr = _Pnode;	// ==> parent if not head

	mov	DWORD PTR [ecx], eax
$LN1@Dec:

; 373  : 				}
; 374  : 			}

	ret	0
?_Dec@const_iterator@?$_Tree@V?$_Tmap_traits@HHU?$less@H@std@@V?$allocator@U?$pair@$$CBHH@std@@@2@$00@std@@@std@@QAEXXZ ENDP ; std::_Tree<std::_Tmap_traits<int,int,std::less<int>,std::allocator<std::pair<int const ,int> >,1> >::const_iterator::_Dec
_TEXT	ENDS
PUBLIC	??Y?$_Vector_const_iterator@UMayaBonusChoice@@V?$allocator@UMayaBonusChoice@@@std@@@std@@QAEAAV01@H@Z ; std::_Vector_const_iterator<MayaBonusChoice,std::allocator<MayaBonusChoice> >::operator+=
; Function compile flags: /Ogtpy
; File c:\program files (x86)\microsoft visual studio 9.0\vc\include\vector
;	COMDAT ??Y?$_Vector_const_iterator@UMayaBonusChoice@@V?$allocator@UMayaBonusChoice@@@std@@@std@@QAEAAV01@H@Z
_TEXT	SEGMENT
__Off$ = 8						; size = 4
??Y?$_Vector_const_iterator@UMayaBonusChoice@@V?$allocator@UMayaBonusChoice@@@std@@@std@@QAEAAV01@H@Z PROC ; std::_Vector_const_iterator<MayaBonusChoice,std::allocator<MayaBonusChoice> >::operator+=, COMDAT
; _this$ = ecx

; 159  : 		{	// increment by integer

	mov	eax, ecx

; 160  : 		_SCL_SECURE_VALIDATE(this->_Has_container());
; 161  : 		_SCL_SECURE_VALIDATE_RANGE(
; 162  : 			_Myptr + _Off <= ((_Myvec *)(this->_Getmycont()))->_Mylast &&
; 163  : 			_Myptr + _Off >= ((_Myvec *)(this->_Getmycont()))->_Myfirst);
; 164  : 		_Myptr += _Off;

	mov	ecx, DWORD PTR __Off$[esp-4]
	lea	edx, DWORD PTR [ecx*8]
	add	DWORD PTR [eax], edx

; 165  : 		return (*this);
; 166  : 		}

	ret	4
??Y?$_Vector_const_iterator@UMayaBonusChoice@@V?$allocator@UMayaBonusChoice@@@std@@@std@@QAEAAV01@H@Z ENDP ; std::_Vector_const_iterator<MayaBonusChoice,std::allocator<MayaBonusChoice> >::operator+=
_TEXT	ENDS
PUBLIC	??Y?$_Vector_const_iterator@UFreeResourceXCities@@V?$allocator@UFreeResourceXCities@@@std@@@std@@QAEAAV01@H@Z ; std::_Vector_const_iterator<FreeResourceXCities,std::allocator<FreeResourceXCities> >::operator+=
; Function compile flags: /Ogtpy
;	COMDAT ??Y?$_Vector_const_iterator@UFreeResourceXCities@@V?$allocator@UFreeResourceXCities@@@std@@@std@@QAEAAV01@H@Z
_TEXT	SEGMENT
__Off$ = 8						; size = 4
??Y?$_Vector_const_iterator@UFreeResourceXCities@@V?$allocator@UFreeResourceXCities@@@std@@@std@@QAEAAV01@H@Z PROC ; std::_Vector_const_iterator<FreeResourceXCities,std::allocator<FreeResourceXCities> >::operator+=, COMDAT
; _this$ = ecx

; 159  : 		{	// increment by integer

	mov	eax, ecx

; 160  : 		_SCL_SECURE_VALIDATE(this->_Has_container());
; 161  : 		_SCL_SECURE_VALIDATE_RANGE(
; 162  : 			_Myptr + _Off <= ((_Myvec *)(this->_Getmycont()))->_Mylast &&
; 163  : 			_Myptr + _Off >= ((_Myvec *)(this->_Getmycont()))->_Myfirst);
; 164  : 		_Myptr += _Off;

	mov	ecx, DWORD PTR __Off$[esp-4]
	lea	edx, DWORD PTR [ecx*8]
	add	DWORD PTR [eax], edx

; 165  : 		return (*this);
; 166  : 		}

	ret	4
??Y?$_Vector_const_iterator@UFreeResourceXCities@@V?$allocator@UFreeResourceXCities@@@std@@@std@@QAEAAV01@H@Z ENDP ; std::_Vector_const_iterator<FreeResourceXCities,std::allocator<FreeResourceXCities> >::operator+=
_TEXT	ENDS
PUBLIC	??0_Node@?$_Tree_nod@V?$_Tmap_traits@HHU?$less@H@std@@V?$allocator@U?$pair@$$CBHH@std@@@2@$00@std@@@std@@QAE@PAU012@00ABU?$pair@$$CBHH@2@D@Z ; std::_Tree_nod<std::_Tmap_traits<int,int,std::less<int>,std::allocator<std::pair<int const ,int> >,1> >::_Node::_Node
; Function compile flags: /Ogtpy
; File c:\program files (x86)\microsoft visual studio 9.0\vc\include\xtree
;	COMDAT ??0_Node@?$_Tree_nod@V?$_Tmap_traits@HHU?$less@H@std@@V?$allocator@U?$pair@$$CBHH@std@@@2@$00@std@@@std@@QAE@PAU012@00ABU?$pair@$$CBHH@2@D@Z
_TEXT	SEGMENT
__Larg$ = 8						; size = 4
__Parg$ = 12						; size = 4
__Rarg$ = 16						; size = 4
__Val$ = 20						; size = 4
__Carg$ = 24						; size = 1
??0_Node@?$_Tree_nod@V?$_Tmap_traits@HHU?$less@H@std@@V?$allocator@U?$pair@$$CBHH@std@@@2@$00@std@@@std@@QAE@PAU012@00ABU?$pair@$$CBHH@2@D@Z PROC ; std::_Tree_nod<std::_Tmap_traits<int,int,std::less<int>,std::allocator<std::pair<int const ,int> >,1> >::_Node::_Node, COMDAT
; _this$ = ecx

; 38   : 			{	// construct a node with value

	mov	edx, DWORD PTR __Parg$[esp-4]
	mov	eax, ecx
	mov	ecx, DWORD PTR __Larg$[esp-4]
	mov	DWORD PTR [eax], ecx
	mov	ecx, DWORD PTR __Rarg$[esp-4]
	mov	DWORD PTR [eax+8], ecx
	mov	ecx, DWORD PTR __Val$[esp-4]
	mov	DWORD PTR [eax+4], edx
	mov	edx, DWORD PTR [ecx]
	mov	DWORD PTR [eax+12], edx
	mov	ecx, DWORD PTR [ecx+4]
	mov	dl, BYTE PTR __Carg$[esp-4]
	mov	DWORD PTR [eax+16], ecx
	mov	BYTE PTR [eax+20], dl
	mov	BYTE PTR [eax+21], 0

; 39   : 			}

	ret	20					; 00000014H
??0_Node@?$_Tree_nod@V?$_Tmap_traits@HHU?$less@H@std@@V?$allocator@U?$pair@$$CBHH@std@@@2@$00@std@@@std@@QAE@PAU012@00ABU?$pair@$$CBHH@2@D@Z ENDP ; std::_Tree_nod<std::_Tmap_traits<int,int,std::less<int>,std::allocator<std::pair<int const ,int> >,1> >::_Node::_Node
_TEXT	ENDS
PUBLIC	??0?$_Container_base_aux_alloc_empty@V?$allocator@U?$pair@$$CBHH@std@@@std@@@std@@IAE@V?$allocator@U?$pair@$$CBHH@std@@@1@@Z ; std::_Container_base_aux_alloc_empty<std::allocator<std::pair<int const ,int> > >::_Container_base_aux_alloc_empty<std::allocator<std::pair<int const ,int> > >
; Function compile flags: /Ogtpy
; File c:\program files (x86)\microsoft visual studio 9.0\vc\include\xutility
;	COMDAT ??0?$_Container_base_aux_alloc_empty@V?$allocator@U?$pair@$$CBHH@std@@@std@@@std@@IAE@V?$allocator@U?$pair@$$CBHH@std@@@1@@Z
_TEXT	SEGMENT
___formal$ = 8						; size = 1
??0?$_Container_base_aux_alloc_empty@V?$allocator@U?$pair@$$CBHH@std@@@std@@@std@@IAE@V?$allocator@U?$pair@$$CBHH@std@@@1@@Z PROC ; std::_Container_base_aux_alloc_empty<std::allocator<std::pair<int const ,int> > >::_Container_base_aux_alloc_empty<std::allocator<std::pair<int const ,int> > >, COMDAT
; _this$ = ecx

; 618  : 	explicit _Container_base_aux_alloc_empty(_Alloc) { }

	mov	eax, ecx
	ret	4
??0?$_Container_base_aux_alloc_empty@V?$allocator@U?$pair@$$CBHH@std@@@std@@@std@@IAE@V?$allocator@U?$pair@$$CBHH@std@@@1@@Z ENDP ; std::_Container_base_aux_alloc_empty<std::allocator<std::pair<int const ,int> > >::_Container_base_aux_alloc_empty<std::allocator<std::pair<int const ,int> > >
_TEXT	ENDS
PUBLIC	??$?0HH@?$pair@$$CBHH@std@@QAE@ABU?$pair@HH@1@@Z ; std::pair<int const ,int>::pair<int const ,int><int,int>
; Function compile flags: /Ogtpy
; File c:\program files (x86)\microsoft visual studio 9.0\vc\include\utility
;	COMDAT ??$?0HH@?$pair@$$CBHH@std@@QAE@ABU?$pair@HH@1@@Z
_TEXT	SEGMENT
__Right$ = 8						; size = 4
??$?0HH@?$pair@$$CBHH@std@@QAE@ABU?$pair@HH@1@@Z PROC	; std::pair<int const ,int>::pair<int const ,int><int,int>, COMDAT
; _this$ = ecx

; 57   : 		{	// construct from compatible pair

	mov	eax, ecx
	mov	ecx, DWORD PTR __Right$[esp-4]
	mov	edx, DWORD PTR [ecx]
	mov	DWORD PTR [eax], edx
	mov	ecx, DWORD PTR [ecx+4]
	mov	DWORD PTR [eax+4], ecx

; 58   : 		}

	ret	4
??$?0HH@?$pair@$$CBHH@std@@QAE@ABU?$pair@HH@1@@Z ENDP	; std::pair<int const ,int>::pair<int const ,int><int,int>
_TEXT	ENDS
PUBLIC	??$?8U?$pair@$$CBHH@std@@U01@@std@@YA_NABV?$allocator@U?$pair@$$CBHH@std@@@0@0@Z ; std::operator==<std::pair<int const ,int>,std::pair<int const ,int> >
; Function compile flags: /Ogtpy
; File c:\program files (x86)\microsoft visual studio 9.0\vc\include\xmemory
;	COMDAT ??$?8U?$pair@$$CBHH@std@@U01@@std@@YA_NABV?$allocator@U?$pair@$$CBHH@std@@@0@0@Z
_TEXT	SEGMENT
___formal$ = 8						; size = 4
___formal$ = 12						; size = 4
??$?8U?$pair@$$CBHH@std@@U01@@std@@YA_NABV?$allocator@U?$pair@$$CBHH@std@@@0@0@Z PROC ; std::operator==<std::pair<int const ,int>,std::pair<int const ,int> >, COMDAT

; 175  : 	return (true);

	mov	al, 1

; 176  : 	}

	ret	0
??$?8U?$pair@$$CBHH@std@@U01@@std@@YA_NABV?$allocator@U?$pair@$$CBHH@std@@@0@0@Z ENDP ; std::operator==<std::pair<int const ,int>,std::pair<int const ,int> >
_TEXT	ENDS
PUBLIC	??$swap@PAU_Node@?$_Tree_nod@V?$_Tmap_traits@HHU?$less@H@std@@V?$allocator@U?$pair@$$CBHH@std@@@2@$00@std@@@std@@@std@@YAXAAPAU_Node@?$_Tree_nod@V?$_Tmap_traits@HHU?$less@H@std@@V?$allocator@U?$pair@$$CBHH@std@@@2@$00@std@@@0@0@Z ; std::swap<std::_Tree_nod<std::_Tmap_traits<int,int,std::less<int>,std::allocator<std::pair<int const ,int> >,1> >::_Node *>
; Function compile flags: /Ogtpy
; File c:\program files (x86)\microsoft visual studio 9.0\vc\include\utility
;	COMDAT ??$swap@PAU_Node@?$_Tree_nod@V?$_Tmap_traits@HHU?$less@H@std@@V?$allocator@U?$pair@$$CBHH@std@@@2@$00@std@@@std@@@std@@YAXAAPAU_Node@?$_Tree_nod@V?$_Tmap_traits@HHU?$less@H@std@@V?$allocator@U?$pair@$$CBHH@std@@@2@$00@std@@@0@0@Z
_TEXT	SEGMENT
__Left$ = 8						; size = 4
__Right$ = 12						; size = 4
??$swap@PAU_Node@?$_Tree_nod@V?$_Tmap_traits@HHU?$less@H@std@@V?$allocator@U?$pair@$$CBHH@std@@@2@$00@std@@@std@@@std@@YAXAAPAU_Node@?$_Tree_nod@V?$_Tmap_traits@HHU?$less@H@std@@V?$allocator@U?$pair@$$CBHH@std@@@2@$00@std@@@0@0@Z PROC ; std::swap<std::_Tree_nod<std::_Tmap_traits<int,int,std::less<int>,std::allocator<std::pair<int const ,int> >,1> >::_Node *>, COMDAT

; 18   : 	if (&_Left != &_Right)

	mov	eax, DWORD PTR __Left$[esp-4]
	mov	ecx, DWORD PTR __Right$[esp-4]
	cmp	eax, ecx
	je	SHORT $LN1@swap

; 19   : 		{	// different, worth swapping
; 20   : 		_Ty _Tmp = _Left;

	mov	edx, DWORD PTR [eax]
	push	esi

; 21   : 
; 22   : 		_Left = _Right;

	mov	esi, DWORD PTR [ecx]
	mov	DWORD PTR [eax], esi

; 23   : 		_Right = _Tmp;

	mov	DWORD PTR [ecx], edx
	pop	esi
$LN1@swap:

; 24   : 		}
; 25   : 	}

	ret	0
??$swap@PAU_Node@?$_Tree_nod@V?$_Tmap_traits@HHU?$less@H@std@@V?$allocator@U?$pair@$$CBHH@std@@@2@$00@std@@@std@@@std@@YAXAAPAU_Node@?$_Tree_nod@V?$_Tmap_traits@HHU?$less@H@std@@V?$allocator@U?$pair@$$CBHH@std@@@2@$00@std@@@0@0@Z ENDP ; std::swap<std::_Tree_nod<std::_Tmap_traits<int,int,std::less<int>,std::allocator<std::pair<int const ,int> >,1> >::_Node *>
_TEXT	ENDS
PUBLIC	??$swap@I@std@@YAXAAI0@Z			; std::swap<unsigned int>
; Function compile flags: /Ogtpy
;	COMDAT ??$swap@I@std@@YAXAAI0@Z
_TEXT	SEGMENT
__Left$ = 8						; size = 4
__Right$ = 12						; size = 4
??$swap@I@std@@YAXAAI0@Z PROC				; std::swap<unsigned int>, COMDAT

; 18   : 	if (&_Left != &_Right)

	mov	eax, DWORD PTR __Left$[esp-4]
	mov	ecx, DWORD PTR __Right$[esp-4]
	cmp	eax, ecx
	je	SHORT $LN1@swap@2

; 19   : 		{	// different, worth swapping
; 20   : 		_Ty _Tmp = _Left;

	mov	edx, DWORD PTR [eax]
	push	esi

; 21   : 
; 22   : 		_Left = _Right;

	mov	esi, DWORD PTR [ecx]
	mov	DWORD PTR [eax], esi

; 23   : 		_Right = _Tmp;

	mov	DWORD PTR [ecx], edx
	pop	esi
$LN1@swap@2:

; 24   : 		}
; 25   : 	}

	ret	0
??$swap@I@std@@YAXAAI0@Z ENDP				; std::swap<unsigned int>
_TEXT	ENDS
