; Listing generated by Microsoft (R) Optimizing Compiler Version 15.00.30729.01 

	TITLE	c:\Users\EnormousApplePie\Documents\GitHub\Lekmod\LEKMOD_DLL\CvGameCoreDLL_Expansion2\CvTradeClasses.cpp
	.686P
	.XMM
	include listing.inc
	.model	flat

INCLUDELIB MSVCRT
INCLUDELIB OLDNAMES

CONST	SEGMENT
$SG220350 DB	'land', 00H
$SG222724 DB	00H
	ORG $+2
$SG220352 DB	'sea', 00H
$SG220359 DB	'food', 00H
	ORG $+3
$SG220361 DB	'production', 00H
	ORG $+1
$SG220363 DB	'international', 00H
	ORG $+2
$SG220366 DB	'%s, New Trade Route, %s, %s, %s, %i, %s', 00H
$SG221030 DB	'TradeRouteLog.csv', 00H
	ORG $+2
$SG221040 DB	'%03d,', 00H
	ORG $+2
$SG222009 DB	'CIVILIZATION_ARABIA', 00H
$SG222012 DB	'CIVILIZATION_PERSIA', 00H
$SG222015 DB	'CIVILIZATION_MONGOL', 00H
$SG222018 DB	'CIVILIZATION_CHINA', 00H
	ORG $+1
$SG222021 DB	'CIVILIZATION_INDIA', 00H
	ORG $+1
$SG222282 DB	'[COLOR_YELLOW]+%d[ENDCOLOR][ICON_GOLD]', 00H
	ORG $+1
$SG222294 DB	'TXT_KEY_UNIT_CARAVAN', 00H
	ORG $+3
$SG222295 DB	'TXT_KEY_MISC_PLUNDERED_GOLD_FROM_IMP', 00H
	ORG $+3
$SG222305 DB	'TXT_KEY_UNIT_CARGO_SHIP', 00H
$SG222306 DB	'TXT_KEY_MISC_PLUNDERED_GOLD_FROM_IMP', 00H
	ORG $+3
$SG222320 DB	'TXT_KEY_NOTIFICATION_TRADE_UNIT_PLUNDERED_TRADER_SUMMARY'
	DB	00H
	ORG $+3
$SG222323 DB	'TXT_KEY_NOTIFICATION_TRADE_UNIT_PLUNDERED_TRADER_BARBARI'
	DB	'AN', 00H
	ORG $+1
$SG222334 DB	'TXT_KEY_NOTIFICATION_TRADE_UNIT_PLUNDERED_TRADER_KNOWN', 00H
	ORG $+1
$SG222343 DB	'TXT_KEY_NOTIFICATION_TRADE_UNIT_PLUNDERED_TRADER_UNKNOWN'
	DB	00H
	ORG $+3
$SG222351 DB	'TXT_KEY_NOTIFICATION_TRADE_UNIT_PLUNDERED_TRADEE_SUMMARY'
	DB	00H
	ORG $+3
$SG222354 DB	'TXT_KEY_NOTIFICATION_TRADE_UNIT_PLUNDERED_TRADEE_BARBARI'
	DB	'ANS', 00H
$SG222364 DB	'TXT_KEY_NOTIFICATION_TRADE_UNIT_PLUNDERED_TRADEE_KNOWN', 00H
	ORG $+1
$SG222377 DB	'TXT_KEY_NOTIFICATION_TRADE_UNIT_PLUNDERED_TRADEE_UNKNOWN'
	DB	00H
	ORG $+3
$SG222599 DB	'UNIT_CARAVAN', 00H
	ORG $+3
$SG222603 DB	'UNIT_CARGO_SHIP', 00H
$SG222650 DB	'TXT_KEY_TRADE_ROUTE_TT_PLOT_CARAVAN', 00H
$SG222657 DB	'TXT_KEY_TRADE_ROUTE_TT_PLOT_CARGO_SHIP', 00H
	ORG $+1
$SG222663 DB	'TXT_KEY_TRADE_ROUTE_TT_PLOT_MAJOR_MINOR', 00H
$SG222665 DB	'NULL Origin City', 00H
	ORG $+3
$SG222668 DB	'NULL Dest City', 00H
	ORG $+1
$SG222671 DB	'TXT_KEY_TRADE_ROUTE_TT_PLOT_MAJOR_MAJOR', 00H
$SG222673 DB	'NULL Origin City', 00H
	ORG $+3
$SG222676 DB	'NULL Dest City', 00H
	ORG $+1
$SG222726 DB	'TXT_KEY_MULTIPLAYER_UNIT_TT', 00H
$SG222732 DB	'TXT_KEY_PLOTROLL_UNIT_DESCRIPTION_CIV', 00H
	ORG $+2
$SG222738 DB	'[COLOR_WHITE]{1_InnerStr}[ENDCOLOR]', 00H
$SG222746 DB	'[COLOR_NEGATIVE_TEXT]{1_InnerStr}[ENDCOLOR]', 00H
$SG222748 DB	'[COLOR_POSITIVE_TEXT]{1_InnerStr}[ENDCOLOR]', 00H
CONST	ENDS
PUBLIC	?wrapCoordDifference@@YAHHI_N@Z			; wrapCoordDifference
; Function compile flags: /Ogtpy
; File c:\users\enormousapplepie\documents\github\lekmod\lekmod_dll\cvgamecoredll_expansion2\cvgamecoreutils.h
;	COMDAT ?wrapCoordDifference@@YAHHI_N@Z
_TEXT	SEGMENT
_iDiff$ = 8						; size = 4
_uiRange$ = 12						; size = 4
_bWrap$ = 16						; size = 1
?wrapCoordDifference@@YAHHI_N@Z PROC			; wrapCoordDifference, COMDAT

; 57   : 	if(bWrap)

	cmp	BYTE PTR _bWrap$[esp-4], 0
	mov	eax, DWORD PTR _iDiff$[esp-4]
	je	SHORT $LN5@wrapCoordD

; 58   : 	{
; 59   : 		if(iDiff > (int)(uiRange >> 1))		// Using an unsigned int so we can safely assume that value >> 1 == value / 2

	mov	edx, DWORD PTR _uiRange$[esp-4]
	mov	ecx, edx
	shr	ecx, 1
	cmp	eax, ecx
	jle	SHORT $LN3@wrapCoordD

; 60   : 		{
; 61   : 			return (iDiff - (int)uiRange);

	sub	eax, edx

; 66   : 		}
; 67   : 	}
; 68   : 
; 69   : 	return iDiff;
; 70   : }

	ret	0
$LN3@wrapCoordD:

; 62   : 		}
; 63   : 		else if(iDiff < -(int)(uiRange >> 1))

	neg	ecx
	cmp	eax, ecx
	jge	SHORT $LN5@wrapCoordD

; 64   : 		{
; 65   : 			return (iDiff + (int)uiRange);

	add	eax, edx
$LN5@wrapCoordD:

; 66   : 		}
; 67   : 	}
; 68   : 
; 69   : 	return iDiff;
; 70   : }

	ret	0
?wrapCoordDifference@@YAHHI_N@Z ENDP			; wrapCoordDifference
_TEXT	ENDS
PUBLIC	?xToHexspaceX@@YAHHH@Z				; xToHexspaceX
; Function compile flags: /Ogtpy
;	COMDAT ?xToHexspaceX@@YAHHH@Z
_TEXT	SEGMENT
_iX$ = 8						; size = 4
_iY$ = 12						; size = 4
?xToHexspaceX@@YAHHH@Z PROC				; xToHexspaceX, COMDAT

; 86   : 	return iX - ((iY >= 0) ? (iY>>1) : ((iY - 1)/2));

	mov	ecx, DWORD PTR _iY$[esp-4]
	test	ecx, ecx
	jge	SHORT $LN5@xToHexspac
	lea	eax, DWORD PTR [ecx-1]
	cdq
	sub	eax, edx
	mov	ecx, eax
$LN5@xToHexspac:
	mov	eax, DWORD PTR _iX$[esp-4]
	sar	ecx, 1
	sub	eax, ecx

; 87   : }

	ret	0
?xToHexspaceX@@YAHHH@Z ENDP				; xToHexspaceX
_TEXT	ENDS
PUBLIC	?hexspaceXToX@@YAHHH@Z				; hexspaceXToX
; Function compile flags: /Ogtpy
;	COMDAT ?hexspaceXToX@@YAHHH@Z
_TEXT	SEGMENT
_iHexspaceX$ = 8					; size = 4
_iHexspaceY$ = 12					; size = 4
?hexspaceXToX@@YAHHH@Z PROC				; hexspaceXToX, COMDAT

; 91   : 	return iHexspaceX + ((iHexspaceY >= 0) ? (iHexspaceY>>1) : ((iHexspaceY - 1)/2));

	mov	eax, DWORD PTR _iHexspaceY$[esp-4]
	test	eax, eax
	jl	SHORT $LN3@hexspaceXT
	mov	ecx, DWORD PTR _iHexspaceX$[esp-4]
	sar	eax, 1
	add	eax, ecx

; 92   : }

	ret	0
$LN3@hexspaceXT:

; 91   : 	return iHexspaceX + ((iHexspaceY >= 0) ? (iHexspaceY>>1) : ((iHexspaceY - 1)/2));

	dec	eax
	cdq
	sub	eax, edx
	mov	edx, DWORD PTR _iHexspaceX$[esp-4]
	sar	eax, 1
	add	eax, edx

; 92   : }

	ret	0
?hexspaceXToX@@YAHHH@Z ENDP				; hexspaceXToX
_TEXT	ENDS
PUBLIC	??_7bad_alloc@std@@6B@				; std::bad_alloc::`vftable'
PUBLIC	??0bad_alloc@std@@QAE@PBD@Z			; std::bad_alloc::bad_alloc
PUBLIC	??_R4bad_alloc@std@@6B@				; std::bad_alloc::`RTTI Complete Object Locator'
PUBLIC	??_R0?AVbad_alloc@std@@@8			; std::bad_alloc `RTTI Type Descriptor'
PUBLIC	??_R3bad_alloc@std@@8				; std::bad_alloc::`RTTI Class Hierarchy Descriptor'
PUBLIC	??_R2bad_alloc@std@@8				; std::bad_alloc::`RTTI Base Class Array'
PUBLIC	??_R1A@?0A@EA@bad_alloc@std@@8			; std::bad_alloc::`RTTI Base Class Descriptor at (0,-1,0,64)'
PUBLIC	??_R1A@?0A@EA@exception@std@@8			; std::exception::`RTTI Base Class Descriptor at (0,-1,0,64)'
PUBLIC	??_R0?AVexception@std@@@8			; std::exception `RTTI Type Descriptor'
PUBLIC	??_R3exception@std@@8				; std::exception::`RTTI Class Hierarchy Descriptor'
PUBLIC	??_R2exception@std@@8				; std::exception::`RTTI Base Class Array'
EXTRN	__imp_??0exception@std@@QAE@ABQBD@Z:PROC
EXTRN	??_7type_info@@6B@:QWORD			; type_info::`vftable'
EXTRN	??_Ebad_alloc@std@@UAEPAXI@Z:PROC		; std::bad_alloc::`vector deleting destructor'
EXTRN	?what@exception@std@@UBEPBDXZ:PROC		; std::exception::what
;	COMDAT ??_R2exception@std@@8
; File c:\program files (x86)\microsoft visual studio 9.0\vc\include\exception
rdata$r	SEGMENT
??_R2exception@std@@8 DD FLAT:??_R1A@?0A@EA@exception@std@@8 ; std::exception::`RTTI Base Class Array'
rdata$r	ENDS
;	COMDAT ??_R3exception@std@@8
rdata$r	SEGMENT
??_R3exception@std@@8 DD 00H				; std::exception::`RTTI Class Hierarchy Descriptor'
	DD	00H
	DD	01H
	DD	FLAT:??_R2exception@std@@8
rdata$r	ENDS
;	COMDAT ??_R0?AVexception@std@@@8
_DATA	SEGMENT
??_R0?AVexception@std@@@8 DD FLAT:??_7type_info@@6B@	; std::exception `RTTI Type Descriptor'
	DD	00H
	DB	'.?AVexception@std@@', 00H
_DATA	ENDS
;	COMDAT ??_R1A@?0A@EA@exception@std@@8
rdata$r	SEGMENT
??_R1A@?0A@EA@exception@std@@8 DD FLAT:??_R0?AVexception@std@@@8 ; std::exception::`RTTI Base Class Descriptor at (0,-1,0,64)'
	DD	00H
	DD	00H
	DD	0ffffffffH
	DD	00H
	DD	040H
	DD	FLAT:??_R3exception@std@@8
rdata$r	ENDS
;	COMDAT ??_R1A@?0A@EA@bad_alloc@std@@8
rdata$r	SEGMENT
??_R1A@?0A@EA@bad_alloc@std@@8 DD FLAT:??_R0?AVbad_alloc@std@@@8 ; std::bad_alloc::`RTTI Base Class Descriptor at (0,-1,0,64)'
	DD	01H
	DD	00H
	DD	0ffffffffH
	DD	00H
	DD	040H
	DD	FLAT:??_R3bad_alloc@std@@8
rdata$r	ENDS
;	COMDAT ??_R2bad_alloc@std@@8
rdata$r	SEGMENT
??_R2bad_alloc@std@@8 DD FLAT:??_R1A@?0A@EA@bad_alloc@std@@8 ; std::bad_alloc::`RTTI Base Class Array'
	DD	FLAT:??_R1A@?0A@EA@exception@std@@8
rdata$r	ENDS
;	COMDAT ??_R3bad_alloc@std@@8
rdata$r	SEGMENT
??_R3bad_alloc@std@@8 DD 00H				; std::bad_alloc::`RTTI Class Hierarchy Descriptor'
	DD	00H
	DD	02H
	DD	FLAT:??_R2bad_alloc@std@@8
rdata$r	ENDS
;	COMDAT ??_R0?AVbad_alloc@std@@@8
_DATA	SEGMENT
??_R0?AVbad_alloc@std@@@8 DD FLAT:??_7type_info@@6B@	; std::bad_alloc `RTTI Type Descriptor'
	DD	00H
	DB	'.?AVbad_alloc@std@@', 00H
_DATA	ENDS
;	COMDAT ??_R4bad_alloc@std@@6B@
rdata$r	SEGMENT
??_R4bad_alloc@std@@6B@ DD 00H				; std::bad_alloc::`RTTI Complete Object Locator'
	DD	00H
	DD	00H
	DD	FLAT:??_R0?AVbad_alloc@std@@@8
	DD	FLAT:??_R3bad_alloc@std@@8
rdata$r	ENDS
;	COMDAT ??_7bad_alloc@std@@6B@
CONST	SEGMENT
??_7bad_alloc@std@@6B@ DD FLAT:??_R4bad_alloc@std@@6B@	; std::bad_alloc::`vftable'
	DD	FLAT:??_Ebad_alloc@std@@UAEPAXI@Z
	DD	FLAT:?what@exception@std@@UBEPBDXZ
; Function compile flags: /Ogtpy
CONST	ENDS
;	COMDAT ??0bad_alloc@std@@QAE@PBD@Z
_TEXT	SEGMENT
__Message$ = 8						; size = 4
??0bad_alloc@std@@QAE@PBD@Z PROC			; std::bad_alloc::bad_alloc, COMDAT
; _this$ = ecx

; 371  : 		{	// construct from message string

	push	esi
	lea	eax, DWORD PTR __Message$[esp]
	push	eax
	mov	esi, ecx
	call	DWORD PTR __imp_??0exception@std@@QAE@ABQBD@Z
	mov	DWORD PTR [esi], OFFSET ??_7bad_alloc@std@@6B@

; 372  : 		}

	mov	eax, esi
	pop	esi
	ret	4
??0bad_alloc@std@@QAE@PBD@Z ENDP			; std::bad_alloc::bad_alloc
_TEXT	ENDS
PUBLIC	??1bad_alloc@std@@UAE@XZ			; std::bad_alloc::~bad_alloc
EXTRN	__imp_??1exception@std@@UAE@XZ:PROC
; Function compile flags: /Ogtpy
;	COMDAT ??1bad_alloc@std@@UAE@XZ
_TEXT	SEGMENT
??1bad_alloc@std@@UAE@XZ PROC				; std::bad_alloc::~bad_alloc, COMDAT
; _this$ = ecx

; 380  : 		{	// destroy the object

	mov	DWORD PTR [ecx], OFFSET ??_7bad_alloc@std@@6B@

; 381  : 		}

	jmp	DWORD PTR __imp_??1exception@std@@UAE@XZ
??1bad_alloc@std@@UAE@XZ ENDP				; std::bad_alloc::~bad_alloc
_TEXT	ENDS
EXTRN	??3@YAXPAX@Z:PROC				; operator delete
; Function compile flags: /Ogtpy
;	COMDAT ??_Gbad_alloc@std@@UAEPAXI@Z
_TEXT	SEGMENT
___flags$ = 8						; size = 4
??_Gbad_alloc@std@@UAEPAXI@Z PROC			; std::bad_alloc::`scalar deleting destructor', COMDAT
; _this$ = ecx
	push	esi
	mov	esi, ecx
	mov	DWORD PTR [esi], OFFSET ??_7bad_alloc@std@@6B@
	call	DWORD PTR __imp_??1exception@std@@UAE@XZ
	test	BYTE PTR ___flags$[esp], 1
	je	SHORT $LN6@scalar
	push	esi
	call	??3@YAXPAX@Z				; operator delete
	add	esp, 4
$LN6@scalar:
	mov	eax, esi
	pop	esi
	ret	4
??_Gbad_alloc@std@@UAEPAXI@Z ENDP			; std::bad_alloc::`scalar deleting destructor'
_TEXT	ENDS
PUBLIC	??2@YAPAXIPAX@Z					; operator new
; Function compile flags: /Ogtpy
; File c:\program files (x86)\microsoft visual studio 9.0\vc\include\new
;	COMDAT ??2@YAPAXIPAX@Z
_TEXT	SEGMENT
___formal$ = 8						; size = 4
__Where$ = 12						; size = 4
??2@YAPAXIPAX@Z PROC					; operator new, COMDAT

; 59   : 	return (_Where);

	mov	eax, DWORD PTR __Where$[esp-4]

; 60   : 	}

	ret	0
??2@YAPAXIPAX@Z ENDP					; operator new
_TEXT	ENDS
PUBLIC	??3@YAXPAX0@Z					; operator delete
; Function compile flags: /Ogtpy
;	COMDAT ??3@YAXPAX0@Z
_TEXT	SEGMENT
___formal$ = 8						; size = 4
___formal$ = 12						; size = 4
??3@YAXPAX0@Z PROC					; operator delete, COMDAT

; 64   : 	}

	ret	0
??3@YAXPAX0@Z ENDP					; operator delete
_TEXT	ENDS
PUBLIC	?GetDomainModifierTimes100@CvGameTrade@@QAEHW4DomainTypes@@@Z ; CvGameTrade::GetDomainModifierTimes100
; Function compile flags: /Ogtpy
; File c:\users\enormousapplepie\documents\github\lekmod\lekmod_dll\cvgamecoredll_expansion2\cvtradeclasses.cpp
;	COMDAT ?GetDomainModifierTimes100@CvGameTrade@@QAEHW4DomainTypes@@@Z
_TEXT	SEGMENT
_eDomain$ = 8						; size = 4
?GetDomainModifierTimes100@CvGameTrade@@QAEHW4DomainTypes@@@Z PROC ; CvGameTrade::GetDomainModifierTimes100, COMDAT
; _this$ = ecx

; 727  : 	if (eDomain == DOMAIN_SEA)

	mov	eax, DWORD PTR _eDomain$[esp-4]
	neg	eax
	sbb	eax, eax
	and	eax, -100				; ffffff9cH
	add	eax, 100				; 00000064H

; 728  : 	{
; 729  : 		return 100;
; 730  : 	}
; 731  : 	else
; 732  : 	{
; 733  : 		return 0;
; 734  : 	}
; 735  : }

	ret	4
?GetDomainModifierTimes100@CvGameTrade@@QAEHW4DomainTypes@@@Z ENDP ; CvGameTrade::GetDomainModifierTimes100
_TEXT	ENDS
PUBLIC	??_7logic_error@std@@6B@			; std::logic_error::`vftable'
PUBLIC	??0logic_error@std@@QAE@ABV?$basic_string@DU?$char_traits@D@std@@V?$allocator@D@2@@1@@Z ; std::logic_error::logic_error
PUBLIC	??_R4logic_error@std@@6B@			; std::logic_error::`RTTI Complete Object Locator'
PUBLIC	??_R0?AVlogic_error@std@@@8			; std::logic_error `RTTI Type Descriptor'
PUBLIC	??_R3logic_error@std@@8				; std::logic_error::`RTTI Class Hierarchy Descriptor'
PUBLIC	??_R2logic_error@std@@8				; std::logic_error::`RTTI Base Class Array'
PUBLIC	??_R1A@?0A@EA@logic_error@std@@8		; std::logic_error::`RTTI Base Class Descriptor at (0,-1,0,64)'
PUBLIC	?what@logic_error@std@@UBEPBDXZ			; std::logic_error::what
EXTRN	__imp_??0?$basic_string@DU?$char_traits@D@std@@V?$allocator@D@2@@std@@QAE@ABV01@@Z:PROC
EXTRN	__imp_??0exception@std@@QAE@XZ:PROC
EXTRN	___CxxFrameHandler3:PROC
EXTRN	??_Elogic_error@std@@UAEPAXI@Z:PROC		; std::logic_error::`vector deleting destructor'
;	COMDAT ??_R1A@?0A@EA@logic_error@std@@8
; File c:\program files (x86)\microsoft visual studio 9.0\vc\include\stdexcept
rdata$r	SEGMENT
??_R1A@?0A@EA@logic_error@std@@8 DD FLAT:??_R0?AVlogic_error@std@@@8 ; std::logic_error::`RTTI Base Class Descriptor at (0,-1,0,64)'
	DD	01H
	DD	00H
	DD	0ffffffffH
	DD	00H
	DD	040H
	DD	FLAT:??_R3logic_error@std@@8
rdata$r	ENDS
;	COMDAT ??_R2logic_error@std@@8
rdata$r	SEGMENT
??_R2logic_error@std@@8 DD FLAT:??_R1A@?0A@EA@logic_error@std@@8 ; std::logic_error::`RTTI Base Class Array'
	DD	FLAT:??_R1A@?0A@EA@exception@std@@8
rdata$r	ENDS
;	COMDAT ??_R3logic_error@std@@8
rdata$r	SEGMENT
??_R3logic_error@std@@8 DD 00H				; std::logic_error::`RTTI Class Hierarchy Descriptor'
	DD	00H
	DD	02H
	DD	FLAT:??_R2logic_error@std@@8
rdata$r	ENDS
;	COMDAT ??_R0?AVlogic_error@std@@@8
_DATA	SEGMENT
??_R0?AVlogic_error@std@@@8 DD FLAT:??_7type_info@@6B@	; std::logic_error `RTTI Type Descriptor'
	DD	00H
	DB	'.?AVlogic_error@std@@', 00H
_DATA	ENDS
;	COMDAT ??_R4logic_error@std@@6B@
rdata$r	SEGMENT
??_R4logic_error@std@@6B@ DD 00H			; std::logic_error::`RTTI Complete Object Locator'
	DD	00H
	DD	00H
	DD	FLAT:??_R0?AVlogic_error@std@@@8
	DD	FLAT:??_R3logic_error@std@@8
rdata$r	ENDS
;	COMDAT ??_7logic_error@std@@6B@
CONST	SEGMENT
??_7logic_error@std@@6B@ DD FLAT:??_R4logic_error@std@@6B@ ; std::logic_error::`vftable'
	DD	FLAT:??_Elogic_error@std@@UAEPAXI@Z
	DD	FLAT:?what@logic_error@std@@UBEPBDXZ
CONST	ENDS
;	COMDAT xdata$x
xdata$x	SEGMENT
__unwindtable$??0logic_error@std@@QAE@ABV?$basic_string@DU?$char_traits@D@std@@V?$allocator@D@2@@1@@Z DD 0ffffffffH
	DD	FLAT:__unwindfunclet$??0logic_error@std@@QAE@ABV?$basic_string@DU?$char_traits@D@std@@V?$allocator@D@2@@1@@Z$0
__ehfuncinfo$??0logic_error@std@@QAE@ABV?$basic_string@DU?$char_traits@D@std@@V?$allocator@D@2@@1@@Z DD 019930522H
	DD	01H
	DD	FLAT:__unwindtable$??0logic_error@std@@QAE@ABV?$basic_string@DU?$char_traits@D@std@@V?$allocator@D@2@@1@@Z
	DD	2 DUP(00H)
	DD	2 DUP(00H)
	DD	00H
	DD	01H
; Function compile flags: /Ogtpy
xdata$x	ENDS
;	COMDAT ??0logic_error@std@@QAE@ABV?$basic_string@DU?$char_traits@D@std@@V?$allocator@D@2@@1@@Z
_TEXT	SEGMENT
_this$ = -16						; size = 4
__$EHRec$ = -12						; size = 12
__Message$ = 8						; size = 4
??0logic_error@std@@QAE@ABV?$basic_string@DU?$char_traits@D@std@@V?$allocator@D@2@@1@@Z PROC ; std::logic_error::logic_error, COMDAT
; _this$ = ecx

; 26   : 		{	// construct from message string

	push	-1
	push	__ehhandler$??0logic_error@std@@QAE@ABV?$basic_string@DU?$char_traits@D@std@@V?$allocator@D@2@@1@@Z
	mov	eax, DWORD PTR fs:0
	push	eax
	mov	DWORD PTR fs:0, esp
	push	ecx
	push	esi
	mov	esi, ecx
	mov	DWORD PTR _this$[esp+20], esi
	call	DWORD PTR __imp_??0exception@std@@QAE@XZ
	mov	eax, DWORD PTR __Message$[esp+16]
	push	eax
	lea	ecx, DWORD PTR [esi+12]
	mov	DWORD PTR __$EHRec$[esp+32], 0
	mov	DWORD PTR [esi], OFFSET ??_7logic_error@std@@6B@
	call	DWORD PTR __imp_??0?$basic_string@DU?$char_traits@D@std@@V?$allocator@D@2@@std@@QAE@ABV01@@Z

; 27   : 		}

	mov	ecx, DWORD PTR __$EHRec$[esp+20]
	mov	eax, esi
	pop	esi
	mov	DWORD PTR fs:0, ecx
	add	esp, 16					; 00000010H
	ret	4
_TEXT	ENDS
;	COMDAT text$x
text$x	SEGMENT
__unwindfunclet$??0logic_error@std@@QAE@ABV?$basic_string@DU?$char_traits@D@std@@V?$allocator@D@2@@1@@Z$0:
	mov	ecx, DWORD PTR _this$[ebp]
	jmp	DWORD PTR __imp_??1exception@std@@UAE@XZ
__ehhandler$??0logic_error@std@@QAE@ABV?$basic_string@DU?$char_traits@D@std@@V?$allocator@D@2@@1@@Z:
	mov	eax, OFFSET __ehfuncinfo$??0logic_error@std@@QAE@ABV?$basic_string@DU?$char_traits@D@std@@V?$allocator@D@2@@1@@Z
	jmp	___CxxFrameHandler3
text$x	ENDS
??0logic_error@std@@QAE@ABV?$basic_string@DU?$char_traits@D@std@@V?$allocator@D@2@@1@@Z ENDP ; std::logic_error::logic_error
PUBLIC	??1logic_error@std@@UAE@XZ			; std::logic_error::~logic_error
EXTRN	__imp_??1?$basic_string@DU?$char_traits@D@std@@V?$allocator@D@2@@std@@QAE@XZ:PROC
; Function compile flags: /Ogtpy
;	COMDAT ??1logic_error@std@@UAE@XZ
_TEXT	SEGMENT
??1logic_error@std@@UAE@XZ PROC				; std::logic_error::~logic_error, COMDAT
; _this$ = ecx

; 30   : 		{	// destroy the object

	push	esi
	mov	esi, ecx

; 31   : 		}

	lea	ecx, DWORD PTR [esi+12]
	mov	DWORD PTR [esi], OFFSET ??_7logic_error@std@@6B@
	call	DWORD PTR __imp_??1?$basic_string@DU?$char_traits@D@std@@V?$allocator@D@2@@std@@QAE@XZ
	mov	ecx, esi
	pop	esi
	jmp	DWORD PTR __imp_??1exception@std@@UAE@XZ
??1logic_error@std@@UAE@XZ ENDP				; std::logic_error::~logic_error
_TEXT	ENDS
EXTRN	__imp_?c_str@?$basic_string@DU?$char_traits@D@std@@V?$allocator@D@2@@std@@QBEPBDXZ:PROC
; Function compile flags: /Ogtpy
;	COMDAT ?what@logic_error@std@@UBEPBDXZ
_TEXT	SEGMENT
?what@logic_error@std@@UBEPBDXZ PROC			; std::logic_error::what, COMDAT
; _this$ = ecx

; 35   : 		return (_Str.c_str());

	add	ecx, 12					; 0000000cH
	jmp	DWORD PTR __imp_?c_str@?$basic_string@DU?$char_traits@D@std@@V?$allocator@D@2@@std@@QBEPBDXZ
?what@logic_error@std@@UBEPBDXZ ENDP			; std::logic_error::what
; Function compile flags: /Ogtpy
_TEXT	ENDS
;	COMDAT ??_Glogic_error@std@@UAEPAXI@Z
_TEXT	SEGMENT
___flags$ = 8						; size = 4
??_Glogic_error@std@@UAEPAXI@Z PROC			; std::logic_error::`scalar deleting destructor', COMDAT
; _this$ = ecx
	push	esi
	mov	esi, ecx
	lea	ecx, DWORD PTR [esi+12]
	mov	DWORD PTR [esi], OFFSET ??_7logic_error@std@@6B@
	call	DWORD PTR __imp_??1?$basic_string@DU?$char_traits@D@std@@V?$allocator@D@2@@std@@QAE@XZ
	mov	ecx, esi
	call	DWORD PTR __imp_??1exception@std@@UAE@XZ
	test	BYTE PTR ___flags$[esp], 1
	je	SHORT $LN6@scalar@2
	push	esi
	call	??3@YAXPAX@Z				; operator delete
	add	esp, 4
$LN6@scalar@2:
	mov	eax, esi
	pop	esi
	ret	4
??_Glogic_error@std@@UAEPAXI@Z ENDP			; std::logic_error::`scalar deleting destructor'
_TEXT	ENDS
PUBLIC	??_7length_error@std@@6B@			; std::length_error::`vftable'
PUBLIC	??0length_error@std@@QAE@ABV?$basic_string@DU?$char_traits@D@std@@V?$allocator@D@2@@1@@Z ; std::length_error::length_error
PUBLIC	??_R4length_error@std@@6B@			; std::length_error::`RTTI Complete Object Locator'
PUBLIC	??_R0?AVlength_error@std@@@8			; std::length_error `RTTI Type Descriptor'
PUBLIC	??_R3length_error@std@@8			; std::length_error::`RTTI Class Hierarchy Descriptor'
PUBLIC	??_R2length_error@std@@8			; std::length_error::`RTTI Base Class Array'
PUBLIC	??_R1A@?0A@EA@length_error@std@@8		; std::length_error::`RTTI Base Class Descriptor at (0,-1,0,64)'
EXTRN	??_Elength_error@std@@UAEPAXI@Z:PROC		; std::length_error::`vector deleting destructor'
;	COMDAT ??_R1A@?0A@EA@length_error@std@@8
rdata$r	SEGMENT
??_R1A@?0A@EA@length_error@std@@8 DD FLAT:??_R0?AVlength_error@std@@@8 ; std::length_error::`RTTI Base Class Descriptor at (0,-1,0,64)'
	DD	02H
	DD	00H
	DD	0ffffffffH
	DD	00H
	DD	040H
	DD	FLAT:??_R3length_error@std@@8
rdata$r	ENDS
;	COMDAT ??_R2length_error@std@@8
rdata$r	SEGMENT
??_R2length_error@std@@8 DD FLAT:??_R1A@?0A@EA@length_error@std@@8 ; std::length_error::`RTTI Base Class Array'
	DD	FLAT:??_R1A@?0A@EA@logic_error@std@@8
	DD	FLAT:??_R1A@?0A@EA@exception@std@@8
rdata$r	ENDS
;	COMDAT ??_R3length_error@std@@8
rdata$r	SEGMENT
??_R3length_error@std@@8 DD 00H				; std::length_error::`RTTI Class Hierarchy Descriptor'
	DD	00H
	DD	03H
	DD	FLAT:??_R2length_error@std@@8
rdata$r	ENDS
;	COMDAT ??_R0?AVlength_error@std@@@8
_DATA	SEGMENT
??_R0?AVlength_error@std@@@8 DD FLAT:??_7type_info@@6B@	; std::length_error `RTTI Type Descriptor'
	DD	00H
	DB	'.?AVlength_error@std@@', 00H
_DATA	ENDS
;	COMDAT ??_R4length_error@std@@6B@
rdata$r	SEGMENT
??_R4length_error@std@@6B@ DD 00H			; std::length_error::`RTTI Complete Object Locator'
	DD	00H
	DD	00H
	DD	FLAT:??_R0?AVlength_error@std@@@8
	DD	FLAT:??_R3length_error@std@@8
rdata$r	ENDS
;	COMDAT ??_7length_error@std@@6B@
CONST	SEGMENT
??_7length_error@std@@6B@ DD FLAT:??_R4length_error@std@@6B@ ; std::length_error::`vftable'
	DD	FLAT:??_Elength_error@std@@UAEPAXI@Z
	DD	FLAT:?what@logic_error@std@@UBEPBDXZ
; Function compile flags: /Ogtpy
CONST	ENDS
;	COMDAT ??0length_error@std@@QAE@ABV?$basic_string@DU?$char_traits@D@std@@V?$allocator@D@2@@1@@Z
_TEXT	SEGMENT
__Message$ = 8						; size = 4
??0length_error@std@@QAE@ABV?$basic_string@DU?$char_traits@D@std@@V?$allocator@D@2@@1@@Z PROC ; std::length_error::length_error, COMDAT
; _this$ = ecx

; 105  : 		{	// construct from message string

	mov	eax, DWORD PTR __Message$[esp-4]
	push	esi
	push	eax
	mov	esi, ecx
	call	??0logic_error@std@@QAE@ABV?$basic_string@DU?$char_traits@D@std@@V?$allocator@D@2@@1@@Z ; std::logic_error::logic_error
	mov	DWORD PTR [esi], OFFSET ??_7length_error@std@@6B@

; 106  : 		}

	mov	eax, esi
	pop	esi
	ret	4
??0length_error@std@@QAE@ABV?$basic_string@DU?$char_traits@D@std@@V?$allocator@D@2@@1@@Z ENDP ; std::length_error::length_error
_TEXT	ENDS
PUBLIC	??1length_error@std@@UAE@XZ			; std::length_error::~length_error
; Function compile flags: /Ogtpy
;	COMDAT ??1length_error@std@@UAE@XZ
_TEXT	SEGMENT
??1length_error@std@@UAE@XZ PROC			; std::length_error::~length_error, COMDAT
; _this$ = ecx

; 109  : 		{	// destroy the object

	push	esi
	mov	esi, ecx

; 110  : 		}

	lea	ecx, DWORD PTR [esi+12]
	mov	DWORD PTR [esi], OFFSET ??_7logic_error@std@@6B@
	call	DWORD PTR __imp_??1?$basic_string@DU?$char_traits@D@std@@V?$allocator@D@2@@std@@QAE@XZ
	mov	ecx, esi
	pop	esi
	jmp	DWORD PTR __imp_??1exception@std@@UAE@XZ
??1length_error@std@@UAE@XZ ENDP			; std::length_error::~length_error
; Function compile flags: /Ogtpy
_TEXT	ENDS
;	COMDAT ??_Glength_error@std@@UAEPAXI@Z
_TEXT	SEGMENT
___flags$ = 8						; size = 4
??_Glength_error@std@@UAEPAXI@Z PROC			; std::length_error::`scalar deleting destructor', COMDAT
; _this$ = ecx
	push	esi
	mov	esi, ecx
	lea	ecx, DWORD PTR [esi+12]
	mov	DWORD PTR [esi], OFFSET ??_7logic_error@std@@6B@
	call	DWORD PTR __imp_??1?$basic_string@DU?$char_traits@D@std@@V?$allocator@D@2@@std@@QAE@XZ
	mov	ecx, esi
	call	DWORD PTR __imp_??1exception@std@@UAE@XZ
	test	BYTE PTR ___flags$[esp], 1
	je	SHORT $LN8@scalar@3
	push	esi
	call	??3@YAXPAX@Z				; operator delete
	add	esp, 4
$LN8@scalar@3:
	mov	eax, esi
	pop	esi
	ret	4
??_Glength_error@std@@UAEPAXI@Z ENDP			; std::length_error::`scalar deleting destructor'
_TEXT	ENDS
PUBLIC	?ResetTechDifference@CvGameTrade@@QAEXXZ	; CvGameTrade::ResetTechDifference
; Function compile flags: /Ogtpy
; File c:\users\enormousapplepie\documents\github\lekmod\lekmod_dll\cvgamecoredll_expansion2\cvtradeclasses.cpp
;	COMDAT ?ResetTechDifference@CvGameTrade@@QAEXXZ
_TEXT	SEGMENT
?ResetTechDifference@CvGameTrade@@QAEXXZ PROC		; CvGameTrade::ResetTechDifference, COMDAT
; _this$ = ecx

; 1590 : {

	push	edi

; 1591 : 	for (uint ui = 0; ui < MAX_MAJOR_CIVS; ui++)

	lea	edi, DWORD PTR [ecx+74612]

; 1592 : 	{
; 1593 : 		for (uint ui2 = 0; ui2 < MAX_MAJOR_CIVS; ui2++)
; 1594 : 		{
; 1595 : 			m_aaiTechDifference[ui][ui2] = -1; // undefined

	mov	ecx, 484				; 000001e4H
	or	eax, -1
	rep stosd
	pop	edi

; 1596 : #endif
; 1597 : 		}
; 1598 : 	}
; 1599 : }

	ret	0
?ResetTechDifference@CvGameTrade@@QAEXXZ ENDP		; CvGameTrade::ResetTechDifference
_TEXT	ENDS
PUBLIC	_ceilf
EXTRN	__imp__ceil:PROC
EXTRN	__fltused:DWORD
; Function compile flags: /Ogtpy
; File c:\program files (x86)\microsoft visual studio 9.0\vc\include\math.h
;	COMDAT _ceilf
_TEXT	SEGMENT
tv71 = 8						; size = 4
__X$ = 8						; size = 4
_ceilf	PROC						; COMDAT

; 397  :         {return ((float)ceil((double)_X)); }

	fld	DWORD PTR __X$[esp-4]
	sub	esp, 8
	fstp	QWORD PTR [esp]
	call	DWORD PTR __imp__ceil
	fstp	DWORD PTR tv71[esp+4]
	add	esp, 8
	fld	DWORD PTR tv71[esp-4]
	ret	0
_ceilf	ENDP
_TEXT	ENDS
PUBLIC	?ceil@@YAMM@Z					; ceil
; Function compile flags: /Ogtpy
;	COMDAT ?ceil@@YAMM@Z
_TEXT	SEGMENT
tv73 = 8						; size = 4
$T228568 = 8						; size = 4
__X$ = 8						; size = 4
?ceil@@YAMM@Z PROC					; ceil, COMDAT

; 502  :         {return (ceilf(_X)); }

	fld	DWORD PTR __X$[esp-4]
	sub	esp, 8
	fstp	QWORD PTR [esp]
	call	DWORD PTR __imp__ceil
	fstp	DWORD PTR tv73[esp+4]
	add	esp, 8
	fld	DWORD PTR tv73[esp-4]
	fstp	DWORD PTR $T228568[esp-4]
	fld	DWORD PTR $T228568[esp-4]
	ret	0
?ceil@@YAMM@Z ENDP					; ceil
_TEXT	ENDS
PUBLIC	?GetTradeRouteSpeed@CvPlayerTrade@@QAEHW4DomainTypes@@@Z ; CvPlayerTrade::GetTradeRouteSpeed
; Function compile flags: /Ogtpy
; File c:\users\enormousapplepie\documents\github\lekmod\lekmod_dll\cvgamecoredll_expansion2\cvtradeclasses.cpp
;	COMDAT ?GetTradeRouteSpeed@CvPlayerTrade@@QAEHW4DomainTypes@@@Z
_TEXT	SEGMENT
_eDomain$ = 8						; size = 4
?GetTradeRouteSpeed@CvPlayerTrade@@QAEHW4DomainTypes@@@Z PROC ; CvPlayerTrade::GetTradeRouteSpeed, COMDAT
; _this$ = ecx

; 4141 : 	switch (eDomain)

	mov	eax, DWORD PTR _eDomain$[esp-4]
	sub	eax, 0
	je	SHORT $LN2@GetTradeRo
	sub	eax, 2
	je	SHORT $LN1@GetTradeRo

; 4148 : 		break;
; 4149 : 	}
; 4150 : 
; 4151 : 	CvAssertMsg(false, "Undefined domain for trade route speed");
; 4152 : 	return -1;

	or	eax, -1

; 4153 : }

	ret	4
$LN1@GetTradeRo:

; 4145 : 		break;
; 4146 : 	case DOMAIN_LAND:
; 4147 : 		return 2;

	mov	eax, 2

; 4153 : }

	ret	4
$LN2@GetTradeRo:

; 4142 : 	{
; 4143 : 	case DOMAIN_SEA:
; 4144 : 		return 4;

	mov	eax, 4

; 4153 : }

	ret	4
?GetTradeRouteSpeed@CvPlayerTrade@@QAEHW4DomainTypes@@@Z ENDP ; CvPlayerTrade::GetTradeRouteSpeed
_TEXT	ENDS
PUBLIC	?GetNumTradeRoutesUsed@CvPlayerTrade@@QAEH_N@Z	; CvPlayerTrade::GetNumTradeRoutesUsed
EXTRN	?nextCity@CvPlayer@@QAEPAVCvCity@@PAH_N@Z:PROC	; CvPlayer::nextCity
EXTRN	?getNumTrainUnitAI@CvCity@@QBEHW4UnitAITypes@@@Z:PROC ; CvCity::getNumTrainUnitAI
EXTRN	?firstCity@CvPlayer@@QAEPAVCvCity@@PAH_N@Z:PROC	; CvPlayer::firstCity
EXTRN	?nextUnit@CvPlayer@@QAEPAVCvUnit@@PAH_N@Z:PROC	; CvPlayer::nextUnit
EXTRN	?isTrade@CvUnit@@QBE_NXZ:PROC			; CvUnit::isTrade
EXTRN	?firstUnit@CvPlayer@@QAEPAVCvUnit@@PAH_N@Z:PROC	; CvPlayer::firstUnit
; Function compile flags: /Ogtpy
;	COMDAT ?GetNumTradeRoutesUsed@CvPlayerTrade@@QAEH_N@Z
_TEXT	SEGMENT
_iLoop$ = -4						; size = 4
_bContinueTraining$ = 8					; size = 1
?GetNumTradeRoutesUsed@CvPlayerTrade@@QAEH_N@Z PROC	; CvPlayerTrade::GetNumTradeRoutesUsed, COMDAT
; _this$ = ecx

; 4254 : {

	push	ecx
	push	esi
	push	edi

; 4255 : 	int iReturnValue = 0;

	xor	edi, edi
	mov	esi, ecx

; 4256 : 	int iLoop;
; 4257 : 
; 4258 : 	// look for units on the map
; 4259 : 	CvUnit* pLoopUnit;
; 4260 : 	for(pLoopUnit = m_pPlayer->firstUnit(&iLoop); pLoopUnit != NULL; pLoopUnit = m_pPlayer->nextUnit(&iLoop))

	mov	ecx, DWORD PTR [esi+79104]
	push	edi
	lea	eax, DWORD PTR _iLoop$[esp+16]
	push	eax
	call	?firstUnit@CvPlayer@@QAEPAVCvUnit@@PAH_N@Z ; CvPlayer::firstUnit
	test	eax, eax
	je	SHORT $LN6@GetNumTrad
	npad	4
$LL8@GetNumTrad:

; 4261 : 	{
; 4262 : 		if (pLoopUnit->isTrade())

	mov	ecx, eax
	call	?isTrade@CvUnit@@QBE_NXZ		; CvUnit::isTrade
	test	al, al
	je	SHORT $LN7@GetNumTrad

; 4263 : 		{
; 4264 : 			iReturnValue++;

	inc	edi
$LN7@GetNumTrad:

; 4256 : 	int iLoop;
; 4257 : 
; 4258 : 	// look for units on the map
; 4259 : 	CvUnit* pLoopUnit;
; 4260 : 	for(pLoopUnit = m_pPlayer->firstUnit(&iLoop); pLoopUnit != NULL; pLoopUnit = m_pPlayer->nextUnit(&iLoop))

	push	0
	lea	ecx, DWORD PTR _iLoop$[esp+16]
	push	ecx
	mov	ecx, DWORD PTR [esi+79104]
	call	?nextUnit@CvPlayer@@QAEPAVCvUnit@@PAH_N@Z ; CvPlayer::nextUnit
	test	eax, eax
	jne	SHORT $LL8@GetNumTrad
$LN6@GetNumTrad:

; 4265 : 		}
; 4266 : 	}
; 4267 : 
; 4268 : 	// look inside cities
; 4269 : 	if (!bContinueTraining)

	cmp	BYTE PTR _bContinueTraining$[esp+8], 0
	jne	SHORT $LN16@GetNumTrad

; 4270 : 	{
; 4271 : 		CvCity* pLoopCity;
; 4272 : 		for(pLoopCity = m_pPlayer->firstCity(&iLoop); pLoopCity != NULL; pLoopCity = m_pPlayer->nextCity(&iLoop))

	mov	ecx, DWORD PTR [esi+79104]
	push	0
	lea	edx, DWORD PTR _iLoop$[esp+16]
	push	edx
	call	?firstCity@CvPlayer@@QAEPAVCvCity@@PAH_N@Z ; CvPlayer::firstCity
	test	eax, eax
	je	SHORT $LN16@GetNumTrad
	npad	1
$LL3@GetNumTrad:

; 4273 : 		{
; 4274 : 			iReturnValue += pLoopCity->getNumTrainUnitAI(UNITAI_TRADE_UNIT);

	push	38					; 00000026H
	mov	ecx, eax
	call	?getNumTrainUnitAI@CvCity@@QBEHW4UnitAITypes@@@Z ; CvCity::getNumTrainUnitAI
	mov	ecx, DWORD PTR [esi+79104]
	add	edi, eax
	push	0
	lea	eax, DWORD PTR _iLoop$[esp+16]
	push	eax
	call	?nextCity@CvPlayer@@QAEPAVCvCity@@PAH_N@Z ; CvPlayer::nextCity
	test	eax, eax
	jne	SHORT $LL3@GetNumTrad
$LN16@GetNumTrad:

; 4275 : 		}
; 4276 : 	}
; 4277 : 
; 4278 : 	return iReturnValue;

	mov	eax, edi
	pop	edi
	pop	esi

; 4279 : }

	pop	ecx
	ret	4
?GetNumTradeRoutesUsed@CvPlayerTrade@@QAEH_N@Z ENDP	; CvPlayerTrade::GetNumTradeRoutesUsed
_TEXT	ENDS
PUBLIC	?GetTradeUnit@CvPlayerTrade@@SA?AW4UnitTypes@@W4DomainTypes@@@Z ; CvPlayerTrade::GetTradeUnit
EXTRN	?getInfoTypeForString@CvGlobals@@QBEHPBD_N@Z:PROC ; CvGlobals::getInfoTypeForString
EXTRN	?gGlobals@@3VCvGlobals@@A:BYTE			; gGlobals
; Function compile flags: /Ogtpy
;	COMDAT ?GetTradeUnit@CvPlayerTrade@@SA?AW4UnitTypes@@W4DomainTypes@@@Z
_TEXT	SEGMENT
_eDomain$ = 8						; size = 4
?GetTradeUnit@CvPlayerTrade@@SA?AW4UnitTypes@@W4DomainTypes@@@Z PROC ; CvPlayerTrade::GetTradeUnit, COMDAT

; 4487 : 	UnitTypes eUnitType = NO_UNIT;
; 4488 : 	if (eDomain == DOMAIN_LAND)

	mov	ecx, DWORD PTR _eDomain$[esp-4]
	or	eax, -1
	cmp	ecx, 2
	jne	SHORT $LN3@GetTradeUn

; 4489 : 	{
; 4490 : 		eUnitType = (UnitTypes)GC.getInfoTypeForString("UNIT_CARAVAN");

	push	0
	push	OFFSET $SG222599

; 4493 : 	{
; 4494 : 		eUnitType = (UnitTypes)GC.getInfoTypeForString("UNIT_CARGO_SHIP");

	mov	ecx, OFFSET ?gGlobals@@3VCvGlobals@@A	; gGlobals
	call	?getInfoTypeForString@CvGlobals@@QBEHPBD_N@Z ; CvGlobals::getInfoTypeForString

; 4495 : 	}
; 4496 : 
; 4497 : 	return eUnitType;
; 4498 : }

	ret	0
$LN3@GetTradeUn:

; 4491 : 	}
; 4492 : 	else if (eDomain == DOMAIN_SEA)

	test	ecx, ecx
	jne	SHORT $LN1@GetTradeUn

; 4493 : 	{
; 4494 : 		eUnitType = (UnitTypes)GC.getInfoTypeForString("UNIT_CARGO_SHIP");

	push	ecx
	push	OFFSET $SG222603
	mov	ecx, OFFSET ?gGlobals@@3VCvGlobals@@A	; gGlobals
	call	?getInfoTypeForString@CvGlobals@@QBEHPBD_N@Z ; CvGlobals::getInfoTypeForString
$LN1@GetTradeUn:

; 4495 : 	}
; 4496 : 
; 4497 : 	return eUnitType;
; 4498 : }

	ret	0
?GetTradeUnit@CvPlayerTrade@@SA?AW4UnitTypes@@W4DomainTypes@@@Z ENDP ; CvPlayerTrade::GetTradeUnit
_TEXT	ENDS
PUBLIC	??0CvTradeAI@@QAE@XZ				; CvTradeAI::CvTradeAI
; Function compile flags: /Ogtpy
;	COMDAT ??0CvTradeAI@@QAE@XZ
_TEXT	SEGMENT
??0CvTradeAI@@QAE@XZ PROC				; CvTradeAI::CvTradeAI, COMDAT
; _this$ = ecx

; 4926 : {

	mov	eax, ecx
	mov	DWORD PTR [eax+4], 0

; 4927 : }

	ret	0
??0CvTradeAI@@QAE@XZ ENDP				; CvTradeAI::CvTradeAI
_TEXT	ENDS
PUBLIC	?Reset@CvTradeAI@@QAEXXZ			; CvTradeAI::Reset
; Function compile flags: /Ogtpy
;	COMDAT ?Reset@CvTradeAI@@QAEXXZ
_TEXT	SEGMENT
?Reset@CvTradeAI@@QAEXXZ PROC				; CvTradeAI::Reset, COMDAT
; _this$ = ecx

; 4952 : 	m_pPlayer = NULL;

	mov	DWORD PTR [ecx+4], 0

; 4953 : }

	ret	0
?Reset@CvTradeAI@@QAEXXZ ENDP				; CvTradeAI::Reset
_TEXT	ENDS
PUBLIC	?DoTurn@CvTradeAI@@QAEXXZ			; CvTradeAI::DoTurn
; Function compile flags: /Ogtpy
;	COMDAT ?DoTurn@CvTradeAI@@QAEXXZ
_TEXT	SEGMENT
?DoTurn@CvTradeAI@@QAEXXZ PROC				; CvTradeAI::DoTurn, COMDAT
; _this$ = ecx

; 4958 : 
; 4959 : }

	ret	0
?DoTurn@CvTradeAI@@QAEXXZ ENDP				; CvTradeAI::DoTurn
_TEXT	ENDS
PUBLIC	??RSortTR@@QBE_NABUTRSortElement@@0@Z		; SortTR::operator()
; Function compile flags: /Ogtpy
;	COMDAT ??RSortTR@@QBE_NABUTRSortElement@@0@Z
_TEXT	SEGMENT
_a$ = 8							; size = 4
_b$ = 12						; size = 4
??RSortTR@@QBE_NABUTRSortElement@@0@Z PROC		; SortTR::operator(), COMDAT
; _this$ = ecx

; 5339 : 		return a.m_iScore < b.m_iScore;

	mov	eax, DWORD PTR _a$[esp-4]
	mov	ecx, DWORD PTR [eax+444]
	mov	edx, DWORD PTR _b$[esp-4]
	xor	eax, eax
	cmp	ecx, DWORD PTR [edx+444]
	setl	al

; 5340 : 	}

	ret	8
??RSortTR@@QBE_NABUTRSortElement@@0@Z ENDP		; SortTR::operator()
_TEXT	ENDS
PUBLIC	??A?$BaseVector@UTradeConnectionPlot@@$0A@@@QAEAAUTradeConnectionPlot@@I@Z ; BaseVector<TradeConnectionPlot,0>::operator[]
; Function compile flags: /Ogtpy
; File c:\users\enormousapplepie\documents\github\lekmod\lekmod_dll\fireplace\include\fireworks\ffastvector.h
;	COMDAT ??A?$BaseVector@UTradeConnectionPlot@@$0A@@@QAEAAUTradeConnectionPlot@@I@Z
_TEXT	SEGMENT
_ui$ = 8						; size = 4
??A?$BaseVector@UTradeConnectionPlot@@$0A@@@QAEAAUTradeConnectionPlot@@I@Z PROC ; BaseVector<TradeConnectionPlot,0>::operator[], COMDAT
; _this$ = ecx

; 129  : 		FAssert(ui < m_uiCurrSize);
; 130  : 		return m_pData[ui];

	mov	eax, DWORD PTR [ecx]
	mov	ecx, DWORD PTR _ui$[esp-4]
	lea	eax, DWORD PTR [eax+ecx*8]

; 131  : 	};

	ret	4
??A?$BaseVector@UTradeConnectionPlot@@$0A@@@QAEAAUTradeConnectionPlot@@I@Z ENDP ; BaseVector<TradeConnectionPlot,0>::operator[]
_TEXT	ENDS
PUBLIC	??A?$BaseVector@UTradeConnectionPlot@@$0A@@@QBEABUTradeConnectionPlot@@I@Z ; BaseVector<TradeConnectionPlot,0>::operator[]
; Function compile flags: /Ogtpy
;	COMDAT ??A?$BaseVector@UTradeConnectionPlot@@$0A@@@QBEABUTradeConnectionPlot@@I@Z
_TEXT	SEGMENT
_ui$ = 8						; size = 4
??A?$BaseVector@UTradeConnectionPlot@@$0A@@@QBEABUTradeConnectionPlot@@I@Z PROC ; BaseVector<TradeConnectionPlot,0>::operator[], COMDAT
; _this$ = ecx

; 135  : 		FAssert(ui < m_uiCurrSize);
; 136  : 		return m_pData[ui];

	mov	eax, DWORD PTR [ecx]
	mov	ecx, DWORD PTR _ui$[esp-4]
	lea	eax, DWORD PTR [eax+ecx*8]

; 137  : 	};

	ret	4
??A?$BaseVector@UTradeConnectionPlot@@$0A@@@QBEABUTradeConnectionPlot@@I@Z ENDP ; BaseVector<TradeConnectionPlot,0>::operator[]
_TEXT	ENDS
PUBLIC	?size@?$BaseVector@UTradeConnectionPlot@@$0A@@@QBEIXZ ; BaseVector<TradeConnectionPlot,0>::size
; Function compile flags: /Ogtpy
;	COMDAT ?size@?$BaseVector@UTradeConnectionPlot@@$0A@@@QBEIXZ
_TEXT	SEGMENT
?size@?$BaseVector@UTradeConnectionPlot@@$0A@@@QBEIXZ PROC ; BaseVector<TradeConnectionPlot,0>::size, COMDAT
; _this$ = ecx

; 169  : 		return m_uiCurrSize;

	mov	eax, DWORD PTR [ecx+4]

; 170  : 	};

	ret	0
?size@?$BaseVector@UTradeConnectionPlot@@$0A@@@QBEIXZ ENDP ; BaseVector<TradeConnectionPlot,0>::size
_TEXT	ENDS
PUBLIC	??A?$BaseVector@UTradeConnection@@$0A@@@QAEAAUTradeConnection@@I@Z ; BaseVector<TradeConnection,0>::operator[]
; Function compile flags: /Ogtpy
;	COMDAT ??A?$BaseVector@UTradeConnection@@$0A@@@QAEAAUTradeConnection@@I@Z
_TEXT	SEGMENT
_ui$ = 8						; size = 4
??A?$BaseVector@UTradeConnection@@$0A@@@QAEAAUTradeConnection@@I@Z PROC ; BaseVector<TradeConnection,0>::operator[], COMDAT
; _this$ = ecx

; 129  : 		FAssert(ui < m_uiCurrSize);
; 130  : 		return m_pData[ui];

	mov	eax, DWORD PTR _ui$[esp-4]
	imul	eax, 444				; 000001bcH
	add	eax, DWORD PTR [ecx]

; 131  : 	};

	ret	4
??A?$BaseVector@UTradeConnection@@$0A@@@QAEAAUTradeConnection@@I@Z ENDP ; BaseVector<TradeConnection,0>::operator[]
_TEXT	ENDS
PUBLIC	??A?$BaseVector@UTradeConnection@@$0A@@@QBEABUTradeConnection@@I@Z ; BaseVector<TradeConnection,0>::operator[]
; Function compile flags: /Ogtpy
;	COMDAT ??A?$BaseVector@UTradeConnection@@$0A@@@QBEABUTradeConnection@@I@Z
_TEXT	SEGMENT
_ui$ = 8						; size = 4
??A?$BaseVector@UTradeConnection@@$0A@@@QBEABUTradeConnection@@I@Z PROC ; BaseVector<TradeConnection,0>::operator[], COMDAT
; _this$ = ecx

; 135  : 		FAssert(ui < m_uiCurrSize);
; 136  : 		return m_pData[ui];

	mov	eax, DWORD PTR _ui$[esp-4]
	imul	eax, 444				; 000001bcH
	add	eax, DWORD PTR [ecx]

; 137  : 	};

	ret	4
??A?$BaseVector@UTradeConnection@@$0A@@@QBEABUTradeConnection@@I@Z ENDP ; BaseVector<TradeConnection,0>::operator[]
_TEXT	ENDS
PUBLIC	?size@?$BaseVector@UTradeConnection@@$0A@@@QBEIXZ ; BaseVector<TradeConnection,0>::size
; Function compile flags: /Ogtpy
;	COMDAT ?size@?$BaseVector@UTradeConnection@@$0A@@@QBEIXZ
_TEXT	SEGMENT
?size@?$BaseVector@UTradeConnection@@$0A@@@QBEIXZ PROC	; BaseVector<TradeConnection,0>::size, COMDAT
; _this$ = ecx

; 169  : 		return m_uiCurrSize;

	mov	eax, DWORD PTR [ecx+4]

; 170  : 	};

	ret	0
?size@?$BaseVector@UTradeConnection@@$0A@@@QBEIXZ ENDP	; BaseVector<TradeConnection,0>::size
_TEXT	ENDS
PUBLIC	??A?$BaseVector@UTradeConnectionWasPlundered@@$0A@@@QAEAAUTradeConnectionWasPlundered@@I@Z ; BaseVector<TradeConnectionWasPlundered,0>::operator[]
; Function compile flags: /Ogtpy
;	COMDAT ??A?$BaseVector@UTradeConnectionWasPlundered@@$0A@@@QAEAAUTradeConnectionWasPlundered@@I@Z
_TEXT	SEGMENT
_ui$ = 8						; size = 4
??A?$BaseVector@UTradeConnectionWasPlundered@@$0A@@@QAEAAUTradeConnectionWasPlundered@@I@Z PROC ; BaseVector<TradeConnectionWasPlundered,0>::operator[], COMDAT
; _this$ = ecx

; 129  : 		FAssert(ui < m_uiCurrSize);
; 130  : 		return m_pData[ui];

	mov	eax, DWORD PTR _ui$[esp-4]
	imul	eax, 448				; 000001c0H
	add	eax, DWORD PTR [ecx]

; 131  : 	};

	ret	4
??A?$BaseVector@UTradeConnectionWasPlundered@@$0A@@@QAEAAUTradeConnectionWasPlundered@@I@Z ENDP ; BaseVector<TradeConnectionWasPlundered,0>::operator[]
_TEXT	ENDS
PUBLIC	??A?$BaseVector@UTradeConnectionWasPlundered@@$0A@@@QBEABUTradeConnectionWasPlundered@@I@Z ; BaseVector<TradeConnectionWasPlundered,0>::operator[]
; Function compile flags: /Ogtpy
;	COMDAT ??A?$BaseVector@UTradeConnectionWasPlundered@@$0A@@@QBEABUTradeConnectionWasPlundered@@I@Z
_TEXT	SEGMENT
_ui$ = 8						; size = 4
??A?$BaseVector@UTradeConnectionWasPlundered@@$0A@@@QBEABUTradeConnectionWasPlundered@@I@Z PROC ; BaseVector<TradeConnectionWasPlundered,0>::operator[], COMDAT
; _this$ = ecx

; 135  : 		FAssert(ui < m_uiCurrSize);
; 136  : 		return m_pData[ui];

	mov	eax, DWORD PTR _ui$[esp-4]
	imul	eax, 448				; 000001c0H
	add	eax, DWORD PTR [ecx]

; 137  : 	};

	ret	4
??A?$BaseVector@UTradeConnectionWasPlundered@@$0A@@@QBEABUTradeConnectionWasPlundered@@I@Z ENDP ; BaseVector<TradeConnectionWasPlundered,0>::operator[]
_TEXT	ENDS
PUBLIC	?size@?$BaseVector@UTradeConnectionWasPlundered@@$0A@@@QBEIXZ ; BaseVector<TradeConnectionWasPlundered,0>::size
; Function compile flags: /Ogtpy
;	COMDAT ?size@?$BaseVector@UTradeConnectionWasPlundered@@$0A@@@QBEIXZ
_TEXT	SEGMENT
?size@?$BaseVector@UTradeConnectionWasPlundered@@$0A@@@QBEIXZ PROC ; BaseVector<TradeConnectionWasPlundered,0>::size, COMDAT
; _this$ = ecx

; 169  : 		return m_uiCurrSize;

	mov	eax, DWORD PTR [ecx+4]

; 170  : 	};

	ret	0
?size@?$BaseVector@UTradeConnectionWasPlundered@@$0A@@@QBEIXZ ENDP ; BaseVector<TradeConnectionWasPlundered,0>::size
_TEXT	ENDS
PUBLIC	??0?$auto_ptr@VICvUnit1@@@std@@QAE@PAVICvUnit1@@@Z ; std::auto_ptr<ICvUnit1>::auto_ptr<ICvUnit1>
; Function compile flags: /Ogtpy
; File c:\program files (x86)\microsoft visual studio 9.0\vc\include\memory
;	COMDAT ??0?$auto_ptr@VICvUnit1@@@std@@QAE@PAVICvUnit1@@@Z
_TEXT	SEGMENT
__Ptr$ = 8						; size = 4
??0?$auto_ptr@VICvUnit1@@@std@@QAE@PAVICvUnit1@@@Z PROC	; std::auto_ptr<ICvUnit1>::auto_ptr<ICvUnit1>, COMDAT
; _this$ = ecx

; 661  : 		{	// construct from object pointer

	mov	eax, ecx
	mov	ecx, DWORD PTR __Ptr$[esp-4]
	mov	DWORD PTR [eax], ecx

; 662  : 		}

	ret	4
??0?$auto_ptr@VICvUnit1@@@std@@QAE@PAVICvUnit1@@@Z ENDP	; std::auto_ptr<ICvUnit1>::auto_ptr<ICvUnit1>
_TEXT	ENDS
PUBLIC	?get@?$auto_ptr@VICvUnit1@@@std@@QBEPAVICvUnit1@@XZ ; std::auto_ptr<ICvUnit1>::get
; Function compile flags: /Ogtpy
;	COMDAT ?get@?$auto_ptr@VICvUnit1@@@std@@QBEPAVICvUnit1@@XZ
_TEXT	SEGMENT
?get@?$auto_ptr@VICvUnit1@@@std@@QBEPAVICvUnit1@@XZ PROC ; std::auto_ptr<ICvUnit1>::get, COMDAT
; _this$ = ecx

; 750  : 		return (_Myptr);

	mov	eax, DWORD PTR [ecx]

; 751  : 		}

	ret	0
?get@?$auto_ptr@VICvUnit1@@@std@@QBEPAVICvUnit1@@XZ ENDP ; std::auto_ptr<ICvUnit1>::get
_TEXT	ENDS
PUBLIC	?size@?$vector@PAVCvCity@@V?$allocator@PAVCvCity@@@std@@@std@@QBEIXZ ; std::vector<CvCity *,std::allocator<CvCity *> >::size
; Function compile flags: /Ogtpy
; File c:\program files (x86)\microsoft visual studio 9.0\vc\include\vector
;	COMDAT ?size@?$vector@PAVCvCity@@V?$allocator@PAVCvCity@@@std@@@std@@QBEIXZ
_TEXT	SEGMENT
?size@?$vector@PAVCvCity@@V?$allocator@PAVCvCity@@@std@@@std@@QBEIXZ PROC ; std::vector<CvCity *,std::allocator<CvCity *> >::size, COMDAT
; _this$ = ecx

; 726  : 		return (_Mylast - _Myfirst);

	mov	eax, DWORD PTR [ecx+8]
	sub	eax, DWORD PTR [ecx+4]
	sar	eax, 2

; 727  : 		}

	ret	0
?size@?$vector@PAVCvCity@@V?$allocator@PAVCvCity@@@std@@@std@@QBEIXZ ENDP ; std::vector<CvCity *,std::allocator<CvCity *> >::size
_TEXT	ENDS
PUBLIC	??A?$vector@PAVCvCity@@V?$allocator@PAVCvCity@@@std@@@std@@QAEAAPAVCvCity@@I@Z ; std::vector<CvCity *,std::allocator<CvCity *> >::operator[]
; Function compile flags: /Ogtpy
;	COMDAT ??A?$vector@PAVCvCity@@V?$allocator@PAVCvCity@@@std@@@std@@QAEAAPAVCvCity@@I@Z
_TEXT	SEGMENT
__Pos$ = 8						; size = 4
??A?$vector@PAVCvCity@@V?$allocator@PAVCvCity@@@std@@@std@@QAEAAPAVCvCity@@I@Z PROC ; std::vector<CvCity *,std::allocator<CvCity *> >::operator[], COMDAT
; _this$ = ecx

; 775  : 
; 776  :  #if _HAS_ITERATOR_DEBUGGING
; 777  : 		if (size() <= _Pos)
; 778  : 			{
; 779  : 			_DEBUG_ERROR("vector subscript out of range");
; 780  : 			_SCL_SECURE_OUT_OF_RANGE;
; 781  : 			}
; 782  :  #endif /* _HAS_ITERATOR_DEBUGGING */
; 783  : 		_SCL_SECURE_VALIDATE_RANGE(_Pos < size());
; 784  : 
; 785  : 		return (*(_Myfirst + _Pos));

	mov	eax, DWORD PTR [ecx+4]
	mov	ecx, DWORD PTR __Pos$[esp-4]
	lea	eax, DWORD PTR [eax+ecx*4]

; 786  : 		}

	ret	4
??A?$vector@PAVCvCity@@V?$allocator@PAVCvCity@@@std@@@std@@QAEAAPAVCvCity@@I@Z ENDP ; std::vector<CvCity *,std::allocator<CvCity *> >::operator[]
_TEXT	ENDS
PUBLIC	??D?$_Vector_const_iterator@PAVCvCity@@V?$allocator@PAVCvCity@@@std@@@std@@QBEABQAVCvCity@@XZ ; std::_Vector_const_iterator<CvCity *,std::allocator<CvCity *> >::operator*
; Function compile flags: /Ogtpy
;	COMDAT ??D?$_Vector_const_iterator@PAVCvCity@@V?$allocator@PAVCvCity@@@std@@@std@@QBEABQAVCvCity@@XZ
_TEXT	SEGMENT
??D?$_Vector_const_iterator@PAVCvCity@@V?$allocator@PAVCvCity@@@std@@@std@@QBEABQAVCvCity@@XZ PROC ; std::_Vector_const_iterator<CvCity *,std::allocator<CvCity *> >::operator*, COMDAT
; _this$ = ecx

; 92   : 
; 93   :  #if _HAS_ITERATOR_DEBUGGING
; 94   : 		if (this->_Mycont == 0
; 95   : 			|| _Myptr < ((_Myvec *)this->_Mycont)->_Myfirst
; 96   : 			|| ((_Myvec *)this->_Mycont)->_Mylast <= _Myptr)
; 97   : 			{
; 98   : 			_DEBUG_ERROR("vector iterator not dereferencable");
; 99   : 			_SCL_SECURE_OUT_OF_RANGE;
; 100  : 			}
; 101  :  #else
; 102  :  		_SCL_SECURE_VALIDATE(this->_Has_container());
; 103  : 		_SCL_SECURE_VALIDATE_RANGE(_Myptr < ((_Myvec *)(this->_Getmycont()))->_Mylast);
; 104  :  #endif /* _HAS_ITERATOR_DEBUGGING */
; 105  : 
; 106  : 		return (*_Myptr);

	mov	eax, DWORD PTR [ecx]

; 107  : 		}

	ret	0
??D?$_Vector_const_iterator@PAVCvCity@@V?$allocator@PAVCvCity@@@std@@@std@@QBEABQAVCvCity@@XZ ENDP ; std::_Vector_const_iterator<CvCity *,std::allocator<CvCity *> >::operator*
_TEXT	ENDS
PUBLIC	??E?$_Vector_const_iterator@PAVCvCity@@V?$allocator@PAVCvCity@@@std@@@std@@QAEAAV01@XZ ; std::_Vector_const_iterator<CvCity *,std::allocator<CvCity *> >::operator++
; Function compile flags: /Ogtpy
;	COMDAT ??E?$_Vector_const_iterator@PAVCvCity@@V?$allocator@PAVCvCity@@@std@@@std@@QAEAAV01@XZ
_TEXT	SEGMENT
??E?$_Vector_const_iterator@PAVCvCity@@V?$allocator@PAVCvCity@@@std@@@std@@QAEAAV01@XZ PROC ; std::_Vector_const_iterator<CvCity *,std::allocator<CvCity *> >::operator++, COMDAT
; _this$ = ecx

; 115  : 		{	// preincrement

	mov	eax, ecx

; 116  : 		_SCL_SECURE_VALIDATE(this->_Has_container());
; 117  : 		_SCL_SECURE_VALIDATE_RANGE(_Myptr < ((_Myvec *)(this->_Getmycont()))->_Mylast);
; 118  : 
; 119  :  #if _HAS_ITERATOR_DEBUGGING
; 120  : 		if (this->_Mycont == 0
; 121  : 			|| ((_Myvec *)this->_Mycont)->_Mylast <= _Myptr)
; 122  : 			_DEBUG_ERROR("vector iterator not incrementable");
; 123  :  #endif /* _HAS_ITERATOR_DEBUGGING */
; 124  : 
; 125  : 		++_Myptr;

	add	DWORD PTR [eax], 4

; 126  : 		return (*this);
; 127  : 		}

	ret	0
??E?$_Vector_const_iterator@PAVCvCity@@V?$allocator@PAVCvCity@@@std@@@std@@QAEAAV01@XZ ENDP ; std::_Vector_const_iterator<CvCity *,std::allocator<CvCity *> >::operator++
_TEXT	ENDS
PUBLIC	?size@?$vector@UTRSortElement@@V?$allocator@UTRSortElement@@@std@@@std@@QBEIXZ ; std::vector<TRSortElement,std::allocator<TRSortElement> >::size
; Function compile flags: /Ogtpy
;	COMDAT ?size@?$vector@UTRSortElement@@V?$allocator@UTRSortElement@@@std@@@std@@QBEIXZ
_TEXT	SEGMENT
?size@?$vector@UTRSortElement@@V?$allocator@UTRSortElement@@@std@@@std@@QBEIXZ PROC ; std::vector<TRSortElement,std::allocator<TRSortElement> >::size, COMDAT
; _this$ = ecx

; 725  : 		{	// return length of sequence

	push	esi

; 726  : 		return (_Mylast - _Myfirst);

	mov	esi, DWORD PTR [ecx+8]
	sub	esi, DWORD PTR [ecx+4]
	mov	eax, -1840700269			; 92492493H
	imul	esi
	add	edx, esi
	sar	edx, 8
	mov	eax, edx
	shr	eax, 31					; 0000001fH
	add	eax, edx
	pop	esi

; 727  : 		}

	ret	0
?size@?$vector@UTRSortElement@@V?$allocator@UTRSortElement@@@std@@@std@@QBEIXZ ENDP ; std::vector<TRSortElement,std::allocator<TRSortElement> >::size
_TEXT	ENDS
PUBLIC	??A?$vector@UTRSortElement@@V?$allocator@UTRSortElement@@@std@@@std@@QAEAAUTRSortElement@@I@Z ; std::vector<TRSortElement,std::allocator<TRSortElement> >::operator[]
; Function compile flags: /Ogtpy
;	COMDAT ??A?$vector@UTRSortElement@@V?$allocator@UTRSortElement@@@std@@@std@@QAEAAUTRSortElement@@I@Z
_TEXT	SEGMENT
__Pos$ = 8						; size = 4
??A?$vector@UTRSortElement@@V?$allocator@UTRSortElement@@@std@@@std@@QAEAAUTRSortElement@@I@Z PROC ; std::vector<TRSortElement,std::allocator<TRSortElement> >::operator[], COMDAT
; _this$ = ecx

; 775  : 
; 776  :  #if _HAS_ITERATOR_DEBUGGING
; 777  : 		if (size() <= _Pos)
; 778  : 			{
; 779  : 			_DEBUG_ERROR("vector subscript out of range");
; 780  : 			_SCL_SECURE_OUT_OF_RANGE;
; 781  : 			}
; 782  :  #endif /* _HAS_ITERATOR_DEBUGGING */
; 783  : 		_SCL_SECURE_VALIDATE_RANGE(_Pos < size());
; 784  : 
; 785  : 		return (*(_Myfirst + _Pos));

	mov	eax, DWORD PTR __Pos$[esp-4]
	imul	eax, 448				; 000001c0H
	add	eax, DWORD PTR [ecx+4]

; 786  : 		}

	ret	4
??A?$vector@UTRSortElement@@V?$allocator@UTRSortElement@@@std@@@std@@QAEAAUTRSortElement@@I@Z ENDP ; std::vector<TRSortElement,std::allocator<TRSortElement> >::operator[]
_TEXT	ENDS
PUBLIC	?capacity@?$vector@VCvString@@V?$allocator@VCvString@@@std@@@std@@QBEIXZ ; std::vector<CvString,std::allocator<CvString> >::capacity
; Function compile flags: /Ogtpy
;	COMDAT ?capacity@?$vector@VCvString@@V?$allocator@VCvString@@@std@@@std@@QBEIXZ
_TEXT	SEGMENT
?capacity@?$vector@VCvString@@V?$allocator@VCvString@@@std@@@std@@QBEIXZ PROC ; std::vector<CvString,std::allocator<CvString> >::capacity, COMDAT
; _this$ = ecx

; 635  : 		return (_Myfirst == 0 ? 0 : _Myend - _Myfirst);

	mov	eax, DWORD PTR [ecx+4]
	test	eax, eax
	jne	SHORT $LN3@capacity

; 636  : 		}

	ret	0
$LN3@capacity:

; 635  : 		return (_Myfirst == 0 ? 0 : _Myend - _Myfirst);

	mov	ecx, DWORD PTR [ecx+12]
	sub	ecx, eax
	mov	eax, -1840700269			; 92492493H
	imul	ecx
	add	edx, ecx
	sar	edx, 4
	mov	eax, edx
	shr	eax, 31					; 0000001fH
	add	eax, edx

; 636  : 		}

	ret	0
?capacity@?$vector@VCvString@@V?$allocator@VCvString@@@std@@@std@@QBEIXZ ENDP ; std::vector<CvString,std::allocator<CvString> >::capacity
_TEXT	ENDS
PUBLIC	?size@?$vector@VCvString@@V?$allocator@VCvString@@@std@@@std@@QBEIXZ ; std::vector<CvString,std::allocator<CvString> >::size
; Function compile flags: /Ogtpy
;	COMDAT ?size@?$vector@VCvString@@V?$allocator@VCvString@@@std@@@std@@QBEIXZ
_TEXT	SEGMENT
?size@?$vector@VCvString@@V?$allocator@VCvString@@@std@@@std@@QBEIXZ PROC ; std::vector<CvString,std::allocator<CvString> >::size, COMDAT
; _this$ = ecx

; 725  : 		{	// return length of sequence

	push	esi

; 726  : 		return (_Mylast - _Myfirst);

	mov	esi, DWORD PTR [ecx+8]
	sub	esi, DWORD PTR [ecx+4]
	mov	eax, -1840700269			; 92492493H
	imul	esi
	add	edx, esi
	sar	edx, 4
	mov	eax, edx
	shr	eax, 31					; 0000001fH
	add	eax, edx
	pop	esi

; 727  : 		}

	ret	0
?size@?$vector@VCvString@@V?$allocator@VCvString@@@std@@@std@@QBEIXZ ENDP ; std::vector<CvString,std::allocator<CvString> >::size
_TEXT	ENDS
PUBLIC	??1?$_Container_base_aux_alloc_empty@V?$allocator@VCvString@@@std@@@std@@IAE@XZ ; std::_Container_base_aux_alloc_empty<std::allocator<CvString> >::~_Container_base_aux_alloc_empty<std::allocator<CvString> >
; Function compile flags: /Ogtpy
; File c:\program files (x86)\microsoft visual studio 9.0\vc\include\xutility
;	COMDAT ??1?$_Container_base_aux_alloc_empty@V?$allocator@VCvString@@@std@@@std@@IAE@XZ
_TEXT	SEGMENT
??1?$_Container_base_aux_alloc_empty@V?$allocator@VCvString@@@std@@@std@@IAE@XZ PROC ; std::_Container_base_aux_alloc_empty<std::allocator<CvString> >::~_Container_base_aux_alloc_empty<std::allocator<CvString> >, COMDAT
; _this$ = ecx

; 627  : 	~_Container_base_aux_alloc_empty() { }

	ret	0
??1?$_Container_base_aux_alloc_empty@V?$allocator@VCvString@@@std@@@std@@IAE@XZ ENDP ; std::_Container_base_aux_alloc_empty<std::allocator<CvString> >::~_Container_base_aux_alloc_empty<std::allocator<CvString> >
_TEXT	ENDS
PUBLIC	??0?$allocator@VCvString@@@std@@QAE@XZ		; std::allocator<CvString>::allocator<CvString>
; Function compile flags: /Ogtpy
; File c:\program files (x86)\microsoft visual studio 9.0\vc\include\xmemory
;	COMDAT ??0?$allocator@VCvString@@@std@@QAE@XZ
_TEXT	SEGMENT
??0?$allocator@VCvString@@@std@@QAE@XZ PROC		; std::allocator<CvString>::allocator<CvString>, COMDAT
; _this$ = ecx

; 119  : 	allocator() _THROW0()

	mov	eax, ecx

; 120  : 		{	// construct default allocator (do nothing)
; 121  : 		}

	ret	0
??0?$allocator@VCvString@@@std@@QAE@XZ ENDP		; std::allocator<CvString>::allocator<CvString>
_TEXT	ENDS
PUBLIC	??0?$allocator@VCvString@@@std@@QAE@ABV01@@Z	; std::allocator<CvString>::allocator<CvString>
; Function compile flags: /Ogtpy
;	COMDAT ??0?$allocator@VCvString@@@std@@QAE@ABV01@@Z
_TEXT	SEGMENT
___formal$ = 8						; size = 4
??0?$allocator@VCvString@@@std@@QAE@ABV01@@Z PROC	; std::allocator<CvString>::allocator<CvString>, COMDAT
; _this$ = ecx

; 123  : 	allocator(const allocator<_Ty>&) _THROW0()

	mov	eax, ecx

; 124  : 		{	// construct by copying (do nothing)
; 125  : 		}

	ret	4
??0?$allocator@VCvString@@@std@@QAE@ABV01@@Z ENDP	; std::allocator<CvString>::allocator<CvString>
_TEXT	ENDS
PUBLIC	??_C@_0GH@ECFAPJEJ@c?3?2users?2enormousapplepie?2docume@ ; `string'
PUBLIC	?Alloc@?$FStaticVector@UTradeConnectionPlot@@$0CI@$0A@$0BCJ@$0A@@@IAEPAUTradeConnectionPlot@@I@Z ; FStaticVector<TradeConnectionPlot,40,0,297,0>::Alloc
EXTRN	?FireMallocAlignedNoTracking@@YAPAXIIPBDH@Z:PROC ; FireMallocAlignedNoTracking
;	COMDAT ??_C@_0GH@ECFAPJEJ@c?3?2users?2enormousapplepie?2docume@
; File c:\users\enormousapplepie\documents\github\lekmod\lekmod_dll\fireplace\include\fireworks\ffastvector.h
CONST	SEGMENT
??_C@_0GH@ECFAPJEJ@c?3?2users?2enormousapplepie?2docume@ DB 'c:\users\eno'
	DB	'rmousapplepie\documents\github\lekmod\lekmod_dll\fireplace\in'
	DB	'clude\fireworks\FFastVector.h', 00H		; `string'
; Function compile flags: /Ogtpy
CONST	ENDS
;	COMDAT ?Alloc@?$FStaticVector@UTradeConnectionPlot@@$0CI@$0A@$0BCJ@$0A@@@IAEPAUTradeConnectionPlot@@I@Z
_TEXT	SEGMENT
_uiSize$ = 8						; size = 4
?Alloc@?$FStaticVector@UTradeConnectionPlot@@$0CI@$0A@$0BCJ@$0A@@@IAEPAUTradeConnectionPlot@@I@Z PROC ; FStaticVector<TradeConnectionPlot,40,0,297,0>::Alloc, COMDAT
; _this$ = ecx

; 795  : 	T* Alloc(unsigned int uiSize){

	push	esi
	push	edi

; 796  : 		T* pRet;
; 797  : 		if( uiSize > L ){

	mov	edi, DWORD PTR _uiSize$[esp+4]
	mov	esi, ecx
	cmp	edi, 40					; 00000028H
	jbe	SHORT $LN2@Alloc

; 798  : 			pRet = (T*)FMALLOCALIGNED( uiSize*sizeof(T), __alignof(T), AllocPool, nSubID );

	push	798					; 0000031eH
	push	OFFSET ??_C@_0GH@ECFAPJEJ@c?3?2users?2enormousapplepie?2docume@
	lea	eax, DWORD PTR [edi*8]
	push	4
	push	eax
	call	?FireMallocAlignedNoTracking@@YAPAXIIPBDH@Z ; FireMallocAlignedNoTracking
	add	esp, 16					; 00000010H

; 799  : 			m_uiCurrMaxSize = uiSize;

	mov	DWORD PTR [esi+8], edi
	pop	edi
	pop	esi

; 803  : 		}
; 804  : 		return pRet;
; 805  : 	};

	ret	4
$LN2@Alloc:
	pop	edi

; 800  : 		}else{
; 801  : 			pRet = (T*)m_aData;

	lea	eax, DWORD PTR [esi+12]

; 802  : 			m_uiCurrMaxSize = L;

	mov	DWORD PTR [esi+8], 40			; 00000028H
	pop	esi

; 803  : 		}
; 804  : 		return pRet;
; 805  : 	};

	ret	4
?Alloc@?$FStaticVector@UTradeConnectionPlot@@$0CI@$0A@$0BCJ@$0A@@@IAEPAUTradeConnectionPlot@@I@Z ENDP ; FStaticVector<TradeConnectionPlot,40,0,297,0>::Alloc
_TEXT	ENDS
PUBLIC	??1?$BaseVector@UTradeConnectionPlot@@$0A@@@QAE@XZ ; BaseVector<TradeConnectionPlot,0>::~BaseVector<TradeConnectionPlot,0>
; Function compile flags: /Ogtpy
;	COMDAT ??1?$BaseVector@UTradeConnectionPlot@@$0A@@@QAE@XZ
_TEXT	SEGMENT
??1?$BaseVector@UTradeConnectionPlot@@$0A@@@QAE@XZ PROC	; BaseVector<TradeConnectionPlot,0>::~BaseVector<TradeConnectionPlot,0>, COMDAT
; _this$ = ecx

; 111  : 	~BaseVector(){};

	ret	0
??1?$BaseVector@UTradeConnectionPlot@@$0A@@@QAE@XZ ENDP	; BaseVector<TradeConnectionPlot,0>::~BaseVector<TradeConnectionPlot,0>
_TEXT	ENDS
PUBLIC	??0?$BaseVector@UTradeConnectionPlot@@$0A@@@IAE@XZ ; BaseVector<TradeConnectionPlot,0>::BaseVector<TradeConnectionPlot,0>
; Function compile flags: /Ogtpy
;	COMDAT ??0?$BaseVector@UTradeConnectionPlot@@$0A@@@IAE@XZ
_TEXT	SEGMENT
??0?$BaseVector@UTradeConnectionPlot@@$0A@@@IAE@XZ PROC	; BaseVector<TradeConnectionPlot,0>::BaseVector<TradeConnectionPlot,0>, COMDAT
; _this$ = ecx

; 216  : 	BaseVector() : m_uiCurrSize(0), m_uiCurrMaxSize(0), m_pData(NULL) {};

	mov	eax, ecx
	xor	ecx, ecx
	mov	DWORD PTR [eax], ecx
	mov	DWORD PTR [eax+4], ecx
	mov	DWORD PTR [eax+8], ecx
	ret	0
??0?$BaseVector@UTradeConnectionPlot@@$0A@@@IAE@XZ ENDP	; BaseVector<TradeConnectionPlot,0>::BaseVector<TradeConnectionPlot,0>
_TEXT	ENDS
PUBLIC	?Destroy@?$BaseVector@UTradeConnectionPlot@@$0A@@@IAEXPAUTradeConnectionPlot@@I@Z ; BaseVector<TradeConnectionPlot,0>::Destroy
; Function compile flags: /Ogtpy
;	COMDAT ?Destroy@?$BaseVector@UTradeConnectionPlot@@$0A@@@IAEXPAUTradeConnectionPlot@@I@Z
_TEXT	SEGMENT
_pVal$ = 8						; size = 4
_uiNumElements$ = 12					; size = 4
?Destroy@?$BaseVector@UTradeConnectionPlot@@$0A@@@IAEXPAUTradeConnectionPlot@@I@Z PROC ; BaseVector<TradeConnectionPlot,0>::Destroy, COMDAT
; _this$ = ecx

; 221  : 		if( !bPODType){
; 222  : 			for(unsigned int i = 0; i < uiNumElements; ++i){
; 223  : 				pVal[i].~T();
; 224  : 			}
; 225  : 		}
; 226  : 	};

	ret	8
?Destroy@?$BaseVector@UTradeConnectionPlot@@$0A@@@IAEXPAUTradeConnectionPlot@@I@Z ENDP ; BaseVector<TradeConnectionPlot,0>::Destroy
_TEXT	ENDS
PUBLIC	?Copy@?$BaseVector@UTradeConnectionPlot@@$0A@@@IAEXABV1@@Z ; BaseVector<TradeConnectionPlot,0>::Copy
; Function compile flags: /Ogtpy
;	COMDAT ?Copy@?$BaseVector@UTradeConnectionPlot@@$0A@@@IAEXABV1@@Z
_TEXT	SEGMENT
_RHS$ = 8						; size = 4
?Copy@?$BaseVector@UTradeConnectionPlot@@$0A@@@IAEXABV1@@Z PROC ; BaseVector<TradeConnectionPlot,0>::Copy, COMDAT
; _this$ = ecx

; 229  : 	void Copy(const THIS_TYPE& RHS){

	push	ebx

; 230  : 		m_uiCurrSize = RHS.m_uiCurrSize;

	mov	ebx, DWORD PTR _RHS$[esp]
	mov	eax, DWORD PTR [ebx+4]
	push	edi

; 231  : 		if( bPODType ){
; 232  : 			memcpy( (void*)m_pData, (void*)RHS.m_pData, sizeof(T)*RHS.m_uiCurrSize);
; 233  : 		}else{
; 234  : 			for(unsigned int i = 0; i < m_uiCurrSize; ++i){

	xor	edi, edi
	mov	DWORD PTR [ecx+4], eax
	test	eax, eax
	jbe	SHORT $LN1@Copy
	push	ebp
	push	esi
$LL3@Copy:
	mov	eax, DWORD PTR [ecx]
	lea	edx, DWORD PTR [edi*8]
	add	eax, edx

; 235  : 				new( (void*)&m_pData[i] )T( RHS.m_pData[i] );

	je	SHORT $LN2@Copy
	mov	esi, DWORD PTR [ebx]
	mov	ebp, DWORD PTR [esi+edx]
	mov	DWORD PTR [eax], ebp
	mov	edx, DWORD PTR [esi+edx+4]
	mov	DWORD PTR [eax+4], edx
$LN2@Copy:
	inc	edi
	cmp	edi, DWORD PTR [ecx+4]
	jb	SHORT $LL3@Copy
	pop	esi
	pop	ebp
$LN1@Copy:
	pop	edi
	pop	ebx

; 236  : 			}
; 237  : 		}
; 238  : 	};

	ret	4
?Copy@?$BaseVector@UTradeConnectionPlot@@$0A@@@IAEXABV1@@Z ENDP ; BaseVector<TradeConnectionPlot,0>::Copy
_TEXT	ENDS
PUBLIC	?Alloc@?$FStaticVector@UTradeConnection@@$0KI@$0A@$0BCJ@$0A@@@IAEPAUTradeConnection@@I@Z ; FStaticVector<TradeConnection,168,0,297,0>::Alloc
; Function compile flags: /Ogtpy
;	COMDAT ?Alloc@?$FStaticVector@UTradeConnection@@$0KI@$0A@$0BCJ@$0A@@@IAEPAUTradeConnection@@I@Z
_TEXT	SEGMENT
_uiSize$ = 8						; size = 4
?Alloc@?$FStaticVector@UTradeConnection@@$0KI@$0A@$0BCJ@$0A@@@IAEPAUTradeConnection@@I@Z PROC ; FStaticVector<TradeConnection,168,0,297,0>::Alloc, COMDAT
; _this$ = ecx

; 795  : 	T* Alloc(unsigned int uiSize){

	push	esi
	push	edi

; 796  : 		T* pRet;
; 797  : 		if( uiSize > L ){

	mov	edi, DWORD PTR _uiSize$[esp+4]
	mov	esi, ecx
	cmp	edi, 168				; 000000a8H
	jbe	SHORT $LN2@Alloc@2

; 798  : 			pRet = (T*)FMALLOCALIGNED( uiSize*sizeof(T), __alignof(T), AllocPool, nSubID );

	mov	eax, edi
	imul	eax, 444				; 000001bcH
	push	798					; 0000031eH
	push	OFFSET ??_C@_0GH@ECFAPJEJ@c?3?2users?2enormousapplepie?2docume@
	push	4
	push	eax
	call	?FireMallocAlignedNoTracking@@YAPAXIIPBDH@Z ; FireMallocAlignedNoTracking
	add	esp, 16					; 00000010H

; 799  : 			m_uiCurrMaxSize = uiSize;

	mov	DWORD PTR [esi+8], edi
	pop	edi
	pop	esi

; 803  : 		}
; 804  : 		return pRet;
; 805  : 	};

	ret	4
$LN2@Alloc@2:
	pop	edi

; 800  : 		}else{
; 801  : 			pRet = (T*)m_aData;

	lea	eax, DWORD PTR [esi+12]

; 802  : 			m_uiCurrMaxSize = L;

	mov	DWORD PTR [esi+8], 168			; 000000a8H
	pop	esi

; 803  : 		}
; 804  : 		return pRet;
; 805  : 	};

	ret	4
?Alloc@?$FStaticVector@UTradeConnection@@$0KI@$0A@$0BCJ@$0A@@@IAEPAUTradeConnection@@I@Z ENDP ; FStaticVector<TradeConnection,168,0,297,0>::Alloc
_TEXT	ENDS
PUBLIC	??1?$BaseVector@UTradeConnection@@$0A@@@QAE@XZ	; BaseVector<TradeConnection,0>::~BaseVector<TradeConnection,0>
; Function compile flags: /Ogtpy
;	COMDAT ??1?$BaseVector@UTradeConnection@@$0A@@@QAE@XZ
_TEXT	SEGMENT
??1?$BaseVector@UTradeConnection@@$0A@@@QAE@XZ PROC	; BaseVector<TradeConnection,0>::~BaseVector<TradeConnection,0>, COMDAT
; _this$ = ecx

; 111  : 	~BaseVector(){};

	ret	0
??1?$BaseVector@UTradeConnection@@$0A@@@QAE@XZ ENDP	; BaseVector<TradeConnection,0>::~BaseVector<TradeConnection,0>
_TEXT	ENDS
PUBLIC	??0?$BaseVector@UTradeConnection@@$0A@@@IAE@XZ	; BaseVector<TradeConnection,0>::BaseVector<TradeConnection,0>
; Function compile flags: /Ogtpy
;	COMDAT ??0?$BaseVector@UTradeConnection@@$0A@@@IAE@XZ
_TEXT	SEGMENT
??0?$BaseVector@UTradeConnection@@$0A@@@IAE@XZ PROC	; BaseVector<TradeConnection,0>::BaseVector<TradeConnection,0>, COMDAT
; _this$ = ecx

; 216  : 	BaseVector() : m_uiCurrSize(0), m_uiCurrMaxSize(0), m_pData(NULL) {};

	mov	eax, ecx
	xor	ecx, ecx
	mov	DWORD PTR [eax], ecx
	mov	DWORD PTR [eax+4], ecx
	mov	DWORD PTR [eax+8], ecx
	ret	0
??0?$BaseVector@UTradeConnection@@$0A@@@IAE@XZ ENDP	; BaseVector<TradeConnection,0>::BaseVector<TradeConnection,0>
_TEXT	ENDS
PUBLIC	?Alloc@?$FStaticVector@UTradeConnectionWasPlundered@@$09$0A@$0BCJ@$0A@@@IAEPAUTradeConnectionWasPlundered@@I@Z ; FStaticVector<TradeConnectionWasPlundered,10,0,297,0>::Alloc
; Function compile flags: /Ogtpy
;	COMDAT ?Alloc@?$FStaticVector@UTradeConnectionWasPlundered@@$09$0A@$0BCJ@$0A@@@IAEPAUTradeConnectionWasPlundered@@I@Z
_TEXT	SEGMENT
_uiSize$ = 8						; size = 4
?Alloc@?$FStaticVector@UTradeConnectionWasPlundered@@$09$0A@$0BCJ@$0A@@@IAEPAUTradeConnectionWasPlundered@@I@Z PROC ; FStaticVector<TradeConnectionWasPlundered,10,0,297,0>::Alloc, COMDAT
; _this$ = ecx

; 795  : 	T* Alloc(unsigned int uiSize){

	push	esi
	push	edi

; 796  : 		T* pRet;
; 797  : 		if( uiSize > L ){

	mov	edi, DWORD PTR _uiSize$[esp+4]
	mov	esi, ecx
	cmp	edi, 10					; 0000000aH
	jbe	SHORT $LN2@Alloc@3

; 798  : 			pRet = (T*)FMALLOCALIGNED( uiSize*sizeof(T), __alignof(T), AllocPool, nSubID );

	mov	eax, edi
	imul	eax, 448				; 000001c0H
	push	798					; 0000031eH
	push	OFFSET ??_C@_0GH@ECFAPJEJ@c?3?2users?2enormousapplepie?2docume@
	push	4
	push	eax
	call	?FireMallocAlignedNoTracking@@YAPAXIIPBDH@Z ; FireMallocAlignedNoTracking
	add	esp, 16					; 00000010H

; 799  : 			m_uiCurrMaxSize = uiSize;

	mov	DWORD PTR [esi+8], edi
	pop	edi
	pop	esi

; 803  : 		}
; 804  : 		return pRet;
; 805  : 	};

	ret	4
$LN2@Alloc@3:
	pop	edi

; 800  : 		}else{
; 801  : 			pRet = (T*)m_aData;

	lea	eax, DWORD PTR [esi+12]

; 802  : 			m_uiCurrMaxSize = L;

	mov	DWORD PTR [esi+8], 10			; 0000000aH
	pop	esi

; 803  : 		}
; 804  : 		return pRet;
; 805  : 	};

	ret	4
?Alloc@?$FStaticVector@UTradeConnectionWasPlundered@@$09$0A@$0BCJ@$0A@@@IAEPAUTradeConnectionWasPlundered@@I@Z ENDP ; FStaticVector<TradeConnectionWasPlundered,10,0,297,0>::Alloc
_TEXT	ENDS
PUBLIC	??1?$BaseVector@UTradeConnectionWasPlundered@@$0A@@@QAE@XZ ; BaseVector<TradeConnectionWasPlundered,0>::~BaseVector<TradeConnectionWasPlundered,0>
; Function compile flags: /Ogtpy
;	COMDAT ??1?$BaseVector@UTradeConnectionWasPlundered@@$0A@@@QAE@XZ
_TEXT	SEGMENT
??1?$BaseVector@UTradeConnectionWasPlundered@@$0A@@@QAE@XZ PROC ; BaseVector<TradeConnectionWasPlundered,0>::~BaseVector<TradeConnectionWasPlundered,0>, COMDAT
; _this$ = ecx

; 111  : 	~BaseVector(){};

	ret	0
??1?$BaseVector@UTradeConnectionWasPlundered@@$0A@@@QAE@XZ ENDP ; BaseVector<TradeConnectionWasPlundered,0>::~BaseVector<TradeConnectionWasPlundered,0>
_TEXT	ENDS
PUBLIC	??0?$BaseVector@UTradeConnectionWasPlundered@@$0A@@@IAE@XZ ; BaseVector<TradeConnectionWasPlundered,0>::BaseVector<TradeConnectionWasPlundered,0>
; Function compile flags: /Ogtpy
;	COMDAT ??0?$BaseVector@UTradeConnectionWasPlundered@@$0A@@@IAE@XZ
_TEXT	SEGMENT
??0?$BaseVector@UTradeConnectionWasPlundered@@$0A@@@IAE@XZ PROC ; BaseVector<TradeConnectionWasPlundered,0>::BaseVector<TradeConnectionWasPlundered,0>, COMDAT
; _this$ = ecx

; 216  : 	BaseVector() : m_uiCurrSize(0), m_uiCurrMaxSize(0), m_pData(NULL) {};

	mov	eax, ecx
	xor	ecx, ecx
	mov	DWORD PTR [eax], ecx
	mov	DWORD PTR [eax+4], ecx
	mov	DWORD PTR [eax+8], ecx
	ret	0
??0?$BaseVector@UTradeConnectionWasPlundered@@$0A@@@IAE@XZ ENDP ; BaseVector<TradeConnectionWasPlundered,0>::BaseVector<TradeConnectionWasPlundered,0>
_TEXT	ENDS
PUBLIC	?capacity@?$vector@PAVCvCity@@V?$allocator@PAVCvCity@@@std@@@std@@QBEIXZ ; std::vector<CvCity *,std::allocator<CvCity *> >::capacity
; Function compile flags: /Ogtpy
; File c:\program files (x86)\microsoft visual studio 9.0\vc\include\vector
;	COMDAT ?capacity@?$vector@PAVCvCity@@V?$allocator@PAVCvCity@@@std@@@std@@QBEIXZ
_TEXT	SEGMENT
?capacity@?$vector@PAVCvCity@@V?$allocator@PAVCvCity@@@std@@@std@@QBEIXZ PROC ; std::vector<CvCity *,std::allocator<CvCity *> >::capacity, COMDAT
; _this$ = ecx

; 635  : 		return (_Myfirst == 0 ? 0 : _Myend - _Myfirst);

	mov	edx, DWORD PTR [ecx+4]
	test	edx, edx
	jne	SHORT $LN3@capacity@2
	xor	eax, eax

; 636  : 		}

	ret	0
$LN3@capacity@2:

; 635  : 		return (_Myfirst == 0 ? 0 : _Myend - _Myfirst);

	mov	eax, DWORD PTR [ecx+12]
	sub	eax, edx
	sar	eax, 2

; 636  : 		}

	ret	0
?capacity@?$vector@PAVCvCity@@V?$allocator@PAVCvCity@@@std@@@std@@QBEIXZ ENDP ; std::vector<CvCity *,std::allocator<CvCity *> >::capacity
_TEXT	ENDS
PUBLIC	??1?$_Container_base_aux_alloc_empty@V?$allocator@PAVCvCity@@@std@@@std@@IAE@XZ ; std::_Container_base_aux_alloc_empty<std::allocator<CvCity *> >::~_Container_base_aux_alloc_empty<std::allocator<CvCity *> >
; Function compile flags: /Ogtpy
; File c:\program files (x86)\microsoft visual studio 9.0\vc\include\xutility
;	COMDAT ??1?$_Container_base_aux_alloc_empty@V?$allocator@PAVCvCity@@@std@@@std@@IAE@XZ
_TEXT	SEGMENT
??1?$_Container_base_aux_alloc_empty@V?$allocator@PAVCvCity@@@std@@@std@@IAE@XZ PROC ; std::_Container_base_aux_alloc_empty<std::allocator<CvCity *> >::~_Container_base_aux_alloc_empty<std::allocator<CvCity *> >, COMDAT
; _this$ = ecx

; 627  : 	~_Container_base_aux_alloc_empty() { }

	ret	0
??1?$_Container_base_aux_alloc_empty@V?$allocator@PAVCvCity@@@std@@@std@@IAE@XZ ENDP ; std::_Container_base_aux_alloc_empty<std::allocator<CvCity *> >::~_Container_base_aux_alloc_empty<std::allocator<CvCity *> >
_TEXT	ENDS
PUBLIC	??0?$allocator@PAVCvCity@@@std@@QAE@XZ		; std::allocator<CvCity *>::allocator<CvCity *>
; Function compile flags: /Ogtpy
; File c:\program files (x86)\microsoft visual studio 9.0\vc\include\xmemory
;	COMDAT ??0?$allocator@PAVCvCity@@@std@@QAE@XZ
_TEXT	SEGMENT
??0?$allocator@PAVCvCity@@@std@@QAE@XZ PROC		; std::allocator<CvCity *>::allocator<CvCity *>, COMDAT
; _this$ = ecx

; 119  : 	allocator() _THROW0()

	mov	eax, ecx

; 120  : 		{	// construct default allocator (do nothing)
; 121  : 		}

	ret	0
??0?$allocator@PAVCvCity@@@std@@QAE@XZ ENDP		; std::allocator<CvCity *>::allocator<CvCity *>
_TEXT	ENDS
PUBLIC	??0?$allocator@PAVCvCity@@@std@@QAE@ABV01@@Z	; std::allocator<CvCity *>::allocator<CvCity *>
; Function compile flags: /Ogtpy
;	COMDAT ??0?$allocator@PAVCvCity@@@std@@QAE@ABV01@@Z
_TEXT	SEGMENT
___formal$ = 8						; size = 4
??0?$allocator@PAVCvCity@@@std@@QAE@ABV01@@Z PROC	; std::allocator<CvCity *>::allocator<CvCity *>, COMDAT
; _this$ = ecx

; 123  : 	allocator(const allocator<_Ty>&) _THROW0()

	mov	eax, ecx

; 124  : 		{	// construct by copying (do nothing)
; 125  : 		}

	ret	4
??0?$allocator@PAVCvCity@@@std@@QAE@ABV01@@Z ENDP	; std::allocator<CvCity *>::allocator<CvCity *>
_TEXT	ENDS
PUBLIC	??0?$_Vector_const_iterator@PAVCvCity@@V?$allocator@PAVCvCity@@@std@@@std@@QAE@PAPAVCvCity@@@Z ; std::_Vector_const_iterator<CvCity *,std::allocator<CvCity *> >::_Vector_const_iterator<CvCity *,std::allocator<CvCity *> >
; Function compile flags: /Ogtpy
; File c:\program files (x86)\microsoft visual studio 9.0\vc\include\vector
;	COMDAT ??0?$_Vector_const_iterator@PAVCvCity@@V?$allocator@PAVCvCity@@@std@@@std@@QAE@PAPAVCvCity@@@Z
_TEXT	SEGMENT
__Ptr$ = 8						; size = 4
??0?$_Vector_const_iterator@PAVCvCity@@V?$allocator@PAVCvCity@@@std@@@std@@QAE@PAPAVCvCity@@@Z PROC ; std::_Vector_const_iterator<CvCity *,std::allocator<CvCity *> >::_Vector_const_iterator<CvCity *,std::allocator<CvCity *> >, COMDAT
; _this$ = ecx

; 84   : 	explicit _Vector_const_iterator(_Tptr _Ptr)

	mov	eax, ecx

; 85   : 		{	// construct with pointer _Ptr
; 86   : 		_Myptr = _Ptr;

	mov	ecx, DWORD PTR __Ptr$[esp-4]
	mov	DWORD PTR [eax], ecx

; 87   : 		}

	ret	4
??0?$_Vector_const_iterator@PAVCvCity@@V?$allocator@PAVCvCity@@@std@@@std@@QAE@PAPAVCvCity@@@Z ENDP ; std::_Vector_const_iterator<CvCity *,std::allocator<CvCity *> >::_Vector_const_iterator<CvCity *,std::allocator<CvCity *> >
_TEXT	ENDS
PUBLIC	??8?$_Vector_const_iterator@PAVCvCity@@V?$allocator@PAVCvCity@@@std@@@std@@QBE_NABV01@@Z ; std::_Vector_const_iterator<CvCity *,std::allocator<CvCity *> >::operator==
; Function compile flags: /Ogtpy
;	COMDAT ??8?$_Vector_const_iterator@PAVCvCity@@V?$allocator@PAVCvCity@@@std@@@std@@QBE_NABV01@@Z
_TEXT	SEGMENT
__Right$ = 8						; size = 4
??8?$_Vector_const_iterator@PAVCvCity@@V?$allocator@PAVCvCity@@@std@@@std@@QBE_NABV01@@Z PROC ; std::_Vector_const_iterator<CvCity *,std::allocator<CvCity *> >::operator==, COMDAT
; _this$ = ecx

; 204  : 
; 205  :  #if _HAS_ITERATOR_DEBUGGING
; 206  : 		_Compat(_Right);
; 207  :  #else
; 208  : 		_SCL_SECURE_VALIDATE(this->_Has_container() && this->_Same_container(_Right));
; 209  :  #endif /* _HAS_ITERATOR_DEBUGGING */
; 210  : 
; 211  : 		return (_Myptr == _Right._Myptr);

	mov	eax, DWORD PTR [ecx]
	mov	edx, DWORD PTR __Right$[esp-4]
	xor	ecx, ecx
	cmp	eax, DWORD PTR [edx]
	sete	cl
	mov	al, cl

; 212  : 		}

	ret	4
??8?$_Vector_const_iterator@PAVCvCity@@V?$allocator@PAVCvCity@@@std@@@std@@QBE_NABV01@@Z ENDP ; std::_Vector_const_iterator<CvCity *,std::allocator<CvCity *> >::operator==
_TEXT	ENDS
PUBLIC	?capacity@?$vector@UTRSortElement@@V?$allocator@UTRSortElement@@@std@@@std@@QBEIXZ ; std::vector<TRSortElement,std::allocator<TRSortElement> >::capacity
; Function compile flags: /Ogtpy
;	COMDAT ?capacity@?$vector@UTRSortElement@@V?$allocator@UTRSortElement@@@std@@@std@@QBEIXZ
_TEXT	SEGMENT
?capacity@?$vector@UTRSortElement@@V?$allocator@UTRSortElement@@@std@@@std@@QBEIXZ PROC ; std::vector<TRSortElement,std::allocator<TRSortElement> >::capacity, COMDAT
; _this$ = ecx

; 635  : 		return (_Myfirst == 0 ? 0 : _Myend - _Myfirst);

	mov	eax, DWORD PTR [ecx+4]
	test	eax, eax
	jne	SHORT $LN3@capacity@3

; 636  : 		}

	ret	0
$LN3@capacity@3:

; 635  : 		return (_Myfirst == 0 ? 0 : _Myend - _Myfirst);

	mov	ecx, DWORD PTR [ecx+12]
	sub	ecx, eax
	mov	eax, -1840700269			; 92492493H
	imul	ecx
	add	edx, ecx
	sar	edx, 8
	mov	eax, edx
	shr	eax, 31					; 0000001fH
	add	eax, edx

; 636  : 		}

	ret	0
?capacity@?$vector@UTRSortElement@@V?$allocator@UTRSortElement@@@std@@@std@@QBEIXZ ENDP ; std::vector<TRSortElement,std::allocator<TRSortElement> >::capacity
_TEXT	ENDS
PUBLIC	??1?$_Container_base_aux_alloc_empty@V?$allocator@UTRSortElement@@@std@@@std@@IAE@XZ ; std::_Container_base_aux_alloc_empty<std::allocator<TRSortElement> >::~_Container_base_aux_alloc_empty<std::allocator<TRSortElement> >
; Function compile flags: /Ogtpy
; File c:\program files (x86)\microsoft visual studio 9.0\vc\include\xutility
;	COMDAT ??1?$_Container_base_aux_alloc_empty@V?$allocator@UTRSortElement@@@std@@@std@@IAE@XZ
_TEXT	SEGMENT
??1?$_Container_base_aux_alloc_empty@V?$allocator@UTRSortElement@@@std@@@std@@IAE@XZ PROC ; std::_Container_base_aux_alloc_empty<std::allocator<TRSortElement> >::~_Container_base_aux_alloc_empty<std::allocator<TRSortElement> >, COMDAT
; _this$ = ecx

; 627  : 	~_Container_base_aux_alloc_empty() { }

	ret	0
??1?$_Container_base_aux_alloc_empty@V?$allocator@UTRSortElement@@@std@@@std@@IAE@XZ ENDP ; std::_Container_base_aux_alloc_empty<std::allocator<TRSortElement> >::~_Container_base_aux_alloc_empty<std::allocator<TRSortElement> >
_TEXT	ENDS
PUBLIC	??0?$allocator@UTRSortElement@@@std@@QAE@XZ	; std::allocator<TRSortElement>::allocator<TRSortElement>
; Function compile flags: /Ogtpy
; File c:\program files (x86)\microsoft visual studio 9.0\vc\include\xmemory
;	COMDAT ??0?$allocator@UTRSortElement@@@std@@QAE@XZ
_TEXT	SEGMENT
??0?$allocator@UTRSortElement@@@std@@QAE@XZ PROC	; std::allocator<TRSortElement>::allocator<TRSortElement>, COMDAT
; _this$ = ecx

; 119  : 	allocator() _THROW0()

	mov	eax, ecx

; 120  : 		{	// construct default allocator (do nothing)
; 121  : 		}

	ret	0
??0?$allocator@UTRSortElement@@@std@@QAE@XZ ENDP	; std::allocator<TRSortElement>::allocator<TRSortElement>
_TEXT	ENDS
PUBLIC	__TI3?AVlength_error@std@@
PUBLIC	??_C@_0BD@OLBABOEK@vector?$DMT?$DO?5too?5long?$AA@ ; `string'
PUBLIC	?_Xlen@?$vector@VCvString@@V?$allocator@VCvString@@@std@@@std@@KAXXZ ; std::vector<CvString,std::allocator<CvString> >::_Xlen
PUBLIC	__CTA3?AVlength_error@std@@
PUBLIC	__CT??_R0?AVlength_error@std@@@8??0length_error@std@@QAE@ABV01@@Z40
PUBLIC	??0length_error@std@@QAE@ABV01@@Z		; std::length_error::length_error
PUBLIC	__CT??_R0?AVlogic_error@std@@@8??0logic_error@std@@QAE@ABV01@@Z40
PUBLIC	??0logic_error@std@@QAE@ABV01@@Z		; std::logic_error::logic_error
PUBLIC	__CT??_R0?AVexception@std@@@8??0exception@std@@QAE@ABV01@@Z12
EXTRN	__imp_??0?$basic_string@DU?$char_traits@D@std@@V?$allocator@D@2@@std@@QAE@PBD@Z:PROC
EXTRN	__CxxThrowException@8:PROC
EXTRN	??0exception@std@@QAE@ABV01@@Z:PROC		; std::exception::exception
;	COMDAT __CT??_R0?AVexception@std@@@8??0exception@std@@QAE@ABV01@@Z12
; File c:\program files (x86)\microsoft visual studio 9.0\vc\include\stdexcept
xdata$x	SEGMENT
__CT??_R0?AVexception@std@@@8??0exception@std@@QAE@ABV01@@Z12 DD 00H
	DD	FLAT:??_R0?AVexception@std@@@8
	DD	00H
	DD	0ffffffffH
	ORG $+4
	DD	0cH
	DD	FLAT:??0exception@std@@QAE@ABV01@@Z
xdata$x	ENDS
;	COMDAT __CT??_R0?AVlogic_error@std@@@8??0logic_error@std@@QAE@ABV01@@Z40
xdata$x	SEGMENT
__CT??_R0?AVlogic_error@std@@@8??0logic_error@std@@QAE@ABV01@@Z40 DD 00H
	DD	FLAT:??_R0?AVlogic_error@std@@@8
	DD	00H
	DD	0ffffffffH
	ORG $+4
	DD	028H
	DD	FLAT:??0logic_error@std@@QAE@ABV01@@Z
xdata$x	ENDS
;	COMDAT __CT??_R0?AVlength_error@std@@@8??0length_error@std@@QAE@ABV01@@Z40
xdata$x	SEGMENT
__CT??_R0?AVlength_error@std@@@8??0length_error@std@@QAE@ABV01@@Z40 DD 00H
	DD	FLAT:??_R0?AVlength_error@std@@@8
	DD	00H
	DD	0ffffffffH
	ORG $+4
	DD	028H
	DD	FLAT:??0length_error@std@@QAE@ABV01@@Z
xdata$x	ENDS
;	COMDAT __CTA3?AVlength_error@std@@
xdata$x	SEGMENT
__CTA3?AVlength_error@std@@ DD 03H
	DD	FLAT:__CT??_R0?AVlength_error@std@@@8??0length_error@std@@QAE@ABV01@@Z40
	DD	FLAT:__CT??_R0?AVlogic_error@std@@@8??0logic_error@std@@QAE@ABV01@@Z40
	DD	FLAT:__CT??_R0?AVexception@std@@@8??0exception@std@@QAE@ABV01@@Z12
xdata$x	ENDS
;	COMDAT __TI3?AVlength_error@std@@
xdata$x	SEGMENT
__TI3?AVlength_error@std@@ DD 00H
	DD	FLAT:??1length_error@std@@UAE@XZ
	DD	00H
	DD	FLAT:__CTA3?AVlength_error@std@@
xdata$x	ENDS
;	COMDAT ??_C@_0BD@OLBABOEK@vector?$DMT?$DO?5too?5long?$AA@
CONST	SEGMENT
??_C@_0BD@OLBABOEK@vector?$DMT?$DO?5too?5long?$AA@ DB 'vector<T> too long'
	DB	00H						; `string'
CONST	ENDS
;	COMDAT xdata$x
xdata$x	SEGMENT
__unwindtable$?_Xlen@?$vector@VCvString@@V?$allocator@VCvString@@@std@@@std@@KAXXZ DD 0ffffffffH
	DD	FLAT:__unwindfunclet$?_Xlen@?$vector@VCvString@@V?$allocator@VCvString@@@std@@@std@@KAXXZ$0
	DD	00H
	DD	FLAT:__unwindfunclet$?_Xlen@?$vector@VCvString@@V?$allocator@VCvString@@@std@@@std@@KAXXZ$2
__ehfuncinfo$?_Xlen@?$vector@VCvString@@V?$allocator@VCvString@@@std@@@std@@KAXXZ DD 019930522H
	DD	02H
	DD	FLAT:__unwindtable$?_Xlen@?$vector@VCvString@@V?$allocator@VCvString@@@std@@@std@@KAXXZ
	DD	2 DUP(00H)
	DD	2 DUP(00H)
	DD	00H
	DD	01H
; Function compile flags: /Ogtpy
; File c:\program files (x86)\microsoft visual studio 9.0\vc\include\vector
xdata$x	ENDS
;	COMDAT ?_Xlen@?$vector@VCvString@@V?$allocator@VCvString@@@std@@@std@@KAXXZ
_TEXT	SEGMENT
$T228744 = -80						; size = 28
$T228743 = -52						; size = 40
__$EHRec$ = -12						; size = 12
?_Xlen@?$vector@VCvString@@V?$allocator@VCvString@@@std@@@std@@KAXXZ PROC ; std::vector<CvString,std::allocator<CvString> >::_Xlen, COMDAT

; 1259 : 		{	// report a length_error

	push	-1
	push	__ehhandler$?_Xlen@?$vector@VCvString@@V?$allocator@VCvString@@@std@@@std@@KAXXZ
	mov	eax, DWORD PTR fs:0
	push	eax
	mov	DWORD PTR fs:0, esp
	sub	esp, 68					; 00000044H

; 1260 : 		_THROW(length_error, "vector<T> too long");

	push	OFFSET ??_C@_0BD@OLBABOEK@vector?$DMT?$DO?5too?5long?$AA@
	lea	ecx, DWORD PTR $T228744[esp+84]
	call	DWORD PTR __imp_??0?$basic_string@DU?$char_traits@D@std@@V?$allocator@D@2@@std@@QAE@PBD@Z
	lea	ecx, DWORD PTR $T228743[esp+80]
	mov	DWORD PTR __$EHRec$[esp+88], 0
	call	DWORD PTR __imp_??0exception@std@@QAE@XZ
	lea	eax, DWORD PTR $T228744[esp+80]
	push	eax
	lea	ecx, DWORD PTR $T228743[esp+96]
	mov	BYTE PTR __$EHRec$[esp+92], 1
	mov	DWORD PTR $T228743[esp+84], OFFSET ??_7logic_error@std@@6B@
	call	DWORD PTR __imp_??0?$basic_string@DU?$char_traits@D@std@@V?$allocator@D@2@@std@@QAE@ABV01@@Z
	push	OFFSET __TI3?AVlength_error@std@@
	lea	ecx, DWORD PTR $T228743[esp+84]
	push	ecx
	mov	BYTE PTR __$EHRec$[esp+96], 0
	mov	DWORD PTR $T228743[esp+88], OFFSET ??_7length_error@std@@6B@
	call	__CxxThrowException@8
$LN13@Xlen:
$LN12@Xlen:
	int	3
_TEXT	ENDS
;	COMDAT text$x
text$x	SEGMENT
__unwindfunclet$?_Xlen@?$vector@VCvString@@V?$allocator@VCvString@@@std@@@std@@KAXXZ$0:
	lea	ecx, DWORD PTR $T228744[ebp]
	jmp	DWORD PTR __imp_??1?$basic_string@DU?$char_traits@D@std@@V?$allocator@D@2@@std@@QAE@XZ
__unwindfunclet$?_Xlen@?$vector@VCvString@@V?$allocator@VCvString@@@std@@@std@@KAXXZ$2:
	lea	ecx, DWORD PTR $T228743[ebp]
	jmp	DWORD PTR __imp_??1exception@std@@UAE@XZ
__ehhandler$?_Xlen@?$vector@VCvString@@V?$allocator@VCvString@@@std@@@std@@KAXXZ:
	mov	eax, OFFSET __ehfuncinfo$?_Xlen@?$vector@VCvString@@V?$allocator@VCvString@@@std@@@std@@KAXXZ
	jmp	___CxxFrameHandler3
text$x	ENDS
?_Xlen@?$vector@VCvString@@V?$allocator@VCvString@@@std@@@std@@KAXXZ ENDP ; std::vector<CvString,std::allocator<CvString> >::_Xlen
EXTRN	__imp_??0exception@std@@QAE@ABV01@@Z:PROC
;	COMDAT xdata$x
xdata$x	SEGMENT
__unwindtable$??0logic_error@std@@QAE@ABV01@@Z DD 0ffffffffH
	DD	FLAT:__unwindfunclet$??0logic_error@std@@QAE@ABV01@@Z$0
__ehfuncinfo$??0logic_error@std@@QAE@ABV01@@Z DD 019930522H
	DD	01H
	DD	FLAT:__unwindtable$??0logic_error@std@@QAE@ABV01@@Z
	DD	2 DUP(00H)
	DD	2 DUP(00H)
	DD	00H
	DD	01H
; Function compile flags: /Ogtpy
xdata$x	ENDS
;	COMDAT ??0logic_error@std@@QAE@ABV01@@Z
_TEXT	SEGMENT
_this$ = -16						; size = 4
__$EHRec$ = -12						; size = 12
___that$ = 8						; size = 4
??0logic_error@std@@QAE@ABV01@@Z PROC			; std::logic_error::logic_error, COMDAT
; _this$ = ecx
	push	-1
	push	__ehhandler$??0logic_error@std@@QAE@ABV01@@Z
	mov	eax, DWORD PTR fs:0
	push	eax
	mov	DWORD PTR fs:0, esp
	push	ecx
	push	esi
	push	edi
	mov	edi, DWORD PTR ___that$[esp+20]
	mov	esi, ecx
	push	edi
	mov	DWORD PTR _this$[esp+28], esi
	call	DWORD PTR __imp_??0exception@std@@QAE@ABV01@@Z
	add	edi, 12					; 0000000cH
	push	edi
	lea	ecx, DWORD PTR [esi+12]
	mov	DWORD PTR __$EHRec$[esp+36], 0
	mov	DWORD PTR [esi], OFFSET ??_7logic_error@std@@6B@
	call	DWORD PTR __imp_??0?$basic_string@DU?$char_traits@D@std@@V?$allocator@D@2@@std@@QAE@ABV01@@Z
	mov	ecx, DWORD PTR __$EHRec$[esp+24]
	pop	edi
	mov	eax, esi
	pop	esi
	mov	DWORD PTR fs:0, ecx
	add	esp, 16					; 00000010H
	ret	4
_TEXT	ENDS
;	COMDAT text$x
text$x	SEGMENT
__unwindfunclet$??0logic_error@std@@QAE@ABV01@@Z$0:
	mov	ecx, DWORD PTR _this$[ebp]
	jmp	DWORD PTR __imp_??1exception@std@@UAE@XZ
__ehhandler$??0logic_error@std@@QAE@ABV01@@Z:
	mov	eax, OFFSET __ehfuncinfo$??0logic_error@std@@QAE@ABV01@@Z
	jmp	___CxxFrameHandler3
text$x	ENDS
??0logic_error@std@@QAE@ABV01@@Z ENDP			; std::logic_error::logic_error
PUBLIC	??0?$_Container_base_aux_alloc_empty@V?$allocator@VCvString@@@std@@@std@@IAE@V?$allocator@VCvString@@@1@@Z ; std::_Container_base_aux_alloc_empty<std::allocator<CvString> >::_Container_base_aux_alloc_empty<std::allocator<CvString> >
; Function compile flags: /Ogtpy
; File c:\program files (x86)\microsoft visual studio 9.0\vc\include\xutility
;	COMDAT ??0?$_Container_base_aux_alloc_empty@V?$allocator@VCvString@@@std@@@std@@IAE@V?$allocator@VCvString@@@1@@Z
_TEXT	SEGMENT
___formal$ = 8						; size = 1
??0?$_Container_base_aux_alloc_empty@V?$allocator@VCvString@@@std@@@std@@IAE@V?$allocator@VCvString@@@1@@Z PROC ; std::_Container_base_aux_alloc_empty<std::allocator<CvString> >::_Container_base_aux_alloc_empty<std::allocator<CvString> >, COMDAT
; _this$ = ecx

; 618  : 	explicit _Container_base_aux_alloc_empty(_Alloc) { }

	mov	eax, ecx
	ret	4
??0?$_Container_base_aux_alloc_empty@V?$allocator@VCvString@@@std@@@std@@IAE@V?$allocator@VCvString@@@1@@Z ENDP ; std::_Container_base_aux_alloc_empty<std::allocator<CvString> >::_Container_base_aux_alloc_empty<std::allocator<CvString> >
_TEXT	ENDS
PUBLIC	?deallocate@?$allocator@VCvString@@@std@@QAEXPAVCvString@@I@Z ; std::allocator<CvString>::deallocate
; Function compile flags: /Ogtpy
; File c:\program files (x86)\microsoft visual studio 9.0\vc\include\xmemory
;	COMDAT ?deallocate@?$allocator@VCvString@@@std@@QAEXPAVCvString@@I@Z
_TEXT	SEGMENT
__Ptr$ = 8						; size = 4
___formal$ = 12						; size = 4
?deallocate@?$allocator@VCvString@@@std@@QAEXPAVCvString@@I@Z PROC ; std::allocator<CvString>::deallocate, COMDAT
; _this$ = ecx

; 140  : 		::operator delete(_Ptr);

	mov	eax, DWORD PTR __Ptr$[esp-4]
	push	eax
	call	??3@YAXPAX@Z				; operator delete
	pop	ecx

; 141  : 		}

	ret	8
?deallocate@?$allocator@VCvString@@@std@@QAEXPAVCvString@@I@Z ENDP ; std::allocator<CvString>::deallocate
_TEXT	ENDS
PUBLIC	?_Xlen@?$vector@PAVCvCity@@V?$allocator@PAVCvCity@@@std@@@std@@KAXXZ ; std::vector<CvCity *,std::allocator<CvCity *> >::_Xlen
;	COMDAT xdata$x
; File c:\program files (x86)\microsoft visual studio 9.0\vc\include\stdexcept
xdata$x	SEGMENT
__unwindtable$?_Xlen@?$vector@PAVCvCity@@V?$allocator@PAVCvCity@@@std@@@std@@KAXXZ DD 0ffffffffH
	DD	FLAT:__unwindfunclet$?_Xlen@?$vector@PAVCvCity@@V?$allocator@PAVCvCity@@@std@@@std@@KAXXZ$0
	DD	00H
	DD	FLAT:__unwindfunclet$?_Xlen@?$vector@PAVCvCity@@V?$allocator@PAVCvCity@@@std@@@std@@KAXXZ$2
__ehfuncinfo$?_Xlen@?$vector@PAVCvCity@@V?$allocator@PAVCvCity@@@std@@@std@@KAXXZ DD 019930522H
	DD	02H
	DD	FLAT:__unwindtable$?_Xlen@?$vector@PAVCvCity@@V?$allocator@PAVCvCity@@@std@@@std@@KAXXZ
	DD	2 DUP(00H)
	DD	2 DUP(00H)
	DD	00H
	DD	01H
; Function compile flags: /Ogtpy
; File c:\program files (x86)\microsoft visual studio 9.0\vc\include\vector
xdata$x	ENDS
;	COMDAT ?_Xlen@?$vector@PAVCvCity@@V?$allocator@PAVCvCity@@@std@@@std@@KAXXZ
_TEXT	SEGMENT
$T228787 = -80						; size = 28
$T228786 = -52						; size = 40
__$EHRec$ = -12						; size = 12
?_Xlen@?$vector@PAVCvCity@@V?$allocator@PAVCvCity@@@std@@@std@@KAXXZ PROC ; std::vector<CvCity *,std::allocator<CvCity *> >::_Xlen, COMDAT

; 1259 : 		{	// report a length_error

	push	-1
	push	__ehhandler$?_Xlen@?$vector@PAVCvCity@@V?$allocator@PAVCvCity@@@std@@@std@@KAXXZ
	mov	eax, DWORD PTR fs:0
	push	eax
	mov	DWORD PTR fs:0, esp
	sub	esp, 68					; 00000044H

; 1260 : 		_THROW(length_error, "vector<T> too long");

	push	OFFSET ??_C@_0BD@OLBABOEK@vector?$DMT?$DO?5too?5long?$AA@
	lea	ecx, DWORD PTR $T228787[esp+84]
	call	DWORD PTR __imp_??0?$basic_string@DU?$char_traits@D@std@@V?$allocator@D@2@@std@@QAE@PBD@Z
	lea	ecx, DWORD PTR $T228786[esp+80]
	mov	DWORD PTR __$EHRec$[esp+88], 0
	call	DWORD PTR __imp_??0exception@std@@QAE@XZ
	lea	eax, DWORD PTR $T228787[esp+80]
	push	eax
	lea	ecx, DWORD PTR $T228786[esp+96]
	mov	BYTE PTR __$EHRec$[esp+92], 1
	mov	DWORD PTR $T228786[esp+84], OFFSET ??_7logic_error@std@@6B@
	call	DWORD PTR __imp_??0?$basic_string@DU?$char_traits@D@std@@V?$allocator@D@2@@std@@QAE@ABV01@@Z
	push	OFFSET __TI3?AVlength_error@std@@
	lea	ecx, DWORD PTR $T228786[esp+84]
	push	ecx
	mov	BYTE PTR __$EHRec$[esp+96], 0
	mov	DWORD PTR $T228786[esp+88], OFFSET ??_7length_error@std@@6B@
	call	__CxxThrowException@8
$LN13@Xlen@2:
$LN12@Xlen@2:
	int	3
_TEXT	ENDS
;	COMDAT text$x
text$x	SEGMENT
__unwindfunclet$?_Xlen@?$vector@PAVCvCity@@V?$allocator@PAVCvCity@@@std@@@std@@KAXXZ$0:
	lea	ecx, DWORD PTR $T228787[ebp]
	jmp	DWORD PTR __imp_??1?$basic_string@DU?$char_traits@D@std@@V?$allocator@D@2@@std@@QAE@XZ
__unwindfunclet$?_Xlen@?$vector@PAVCvCity@@V?$allocator@PAVCvCity@@@std@@@std@@KAXXZ$2:
	lea	ecx, DWORD PTR $T228786[ebp]
	jmp	DWORD PTR __imp_??1exception@std@@UAE@XZ
__ehhandler$?_Xlen@?$vector@PAVCvCity@@V?$allocator@PAVCvCity@@@std@@@std@@KAXXZ:
	mov	eax, OFFSET __ehfuncinfo$?_Xlen@?$vector@PAVCvCity@@V?$allocator@PAVCvCity@@@std@@@std@@KAXXZ
	jmp	___CxxFrameHandler3
text$x	ENDS
?_Xlen@?$vector@PAVCvCity@@V?$allocator@PAVCvCity@@@std@@@std@@KAXXZ ENDP ; std::vector<CvCity *,std::allocator<CvCity *> >::_Xlen
PUBLIC	??0?$_Container_base_aux_alloc_empty@V?$allocator@PAVCvCity@@@std@@@std@@IAE@V?$allocator@PAVCvCity@@@1@@Z ; std::_Container_base_aux_alloc_empty<std::allocator<CvCity *> >::_Container_base_aux_alloc_empty<std::allocator<CvCity *> >
; Function compile flags: /Ogtpy
; File c:\program files (x86)\microsoft visual studio 9.0\vc\include\xutility
;	COMDAT ??0?$_Container_base_aux_alloc_empty@V?$allocator@PAVCvCity@@@std@@@std@@IAE@V?$allocator@PAVCvCity@@@1@@Z
_TEXT	SEGMENT
___formal$ = 8						; size = 1
??0?$_Container_base_aux_alloc_empty@V?$allocator@PAVCvCity@@@std@@@std@@IAE@V?$allocator@PAVCvCity@@@1@@Z PROC ; std::_Container_base_aux_alloc_empty<std::allocator<CvCity *> >::_Container_base_aux_alloc_empty<std::allocator<CvCity *> >, COMDAT
; _this$ = ecx

; 618  : 	explicit _Container_base_aux_alloc_empty(_Alloc) { }

	mov	eax, ecx
	ret	4
??0?$_Container_base_aux_alloc_empty@V?$allocator@PAVCvCity@@@std@@@std@@IAE@V?$allocator@PAVCvCity@@@1@@Z ENDP ; std::_Container_base_aux_alloc_empty<std::allocator<CvCity *> >::_Container_base_aux_alloc_empty<std::allocator<CvCity *> >
_TEXT	ENDS
PUBLIC	?deallocate@?$allocator@PAVCvCity@@@std@@QAEXPAPAVCvCity@@I@Z ; std::allocator<CvCity *>::deallocate
; Function compile flags: /Ogtpy
; File c:\program files (x86)\microsoft visual studio 9.0\vc\include\xmemory
;	COMDAT ?deallocate@?$allocator@PAVCvCity@@@std@@QAEXPAPAVCvCity@@I@Z
_TEXT	SEGMENT
__Ptr$ = 8						; size = 4
___formal$ = 12						; size = 4
?deallocate@?$allocator@PAVCvCity@@@std@@QAEXPAPAVCvCity@@I@Z PROC ; std::allocator<CvCity *>::deallocate, COMDAT
; _this$ = ecx

; 140  : 		::operator delete(_Ptr);

	mov	eax, DWORD PTR __Ptr$[esp-4]
	push	eax
	call	??3@YAXPAX@Z				; operator delete
	pop	ecx

; 141  : 		}

	ret	8
?deallocate@?$allocator@PAVCvCity@@@std@@QAEXPAPAVCvCity@@I@Z ENDP ; std::allocator<CvCity *>::deallocate
_TEXT	ENDS
PUBLIC	??G?$_Vector_const_iterator@PAVCvCity@@V?$allocator@PAVCvCity@@@std@@@std@@QBEHABV01@@Z ; std::_Vector_const_iterator<CvCity *,std::allocator<CvCity *> >::operator-
; Function compile flags: /Ogtpy
; File c:\program files (x86)\microsoft visual studio 9.0\vc\include\vector
;	COMDAT ??G?$_Vector_const_iterator@PAVCvCity@@V?$allocator@PAVCvCity@@@std@@@std@@QBEHABV01@@Z
_TEXT	SEGMENT
__Right$ = 8						; size = 4
??G?$_Vector_const_iterator@PAVCvCity@@V?$allocator@PAVCvCity@@@std@@@std@@QBEHABV01@@Z PROC ; std::_Vector_const_iterator<CvCity *,std::allocator<CvCity *> >::operator-, COMDAT
; _this$ = ecx

; 187  : 
; 188  :  #if _HAS_ITERATOR_DEBUGGING
; 189  : 		_Compat(_Right);
; 190  :  #else
; 191  : 		_SCL_SECURE_VALIDATE(this->_Has_container() && this->_Same_container(_Right));
; 192  :  #endif /* _HAS_ITERATOR_DEBUGGING */
; 193  : 
; 194  : 		return (_Myptr - _Right._Myptr);

	mov	eax, DWORD PTR [ecx]
	mov	ecx, DWORD PTR __Right$[esp-4]
	sub	eax, DWORD PTR [ecx]
	sar	eax, 2

; 195  : 		}

	ret	4
??G?$_Vector_const_iterator@PAVCvCity@@V?$allocator@PAVCvCity@@@std@@@std@@QBEHABV01@@Z ENDP ; std::_Vector_const_iterator<CvCity *,std::allocator<CvCity *> >::operator-
_TEXT	ENDS
PUBLIC	?_Xlen@?$vector@UTRSortElement@@V?$allocator@UTRSortElement@@@std@@@std@@KAXXZ ; std::vector<TRSortElement,std::allocator<TRSortElement> >::_Xlen
;	COMDAT xdata$x
; File c:\program files (x86)\microsoft visual studio 9.0\vc\include\stdexcept
xdata$x	SEGMENT
__unwindtable$?_Xlen@?$vector@UTRSortElement@@V?$allocator@UTRSortElement@@@std@@@std@@KAXXZ DD 0ffffffffH
	DD	FLAT:__unwindfunclet$?_Xlen@?$vector@UTRSortElement@@V?$allocator@UTRSortElement@@@std@@@std@@KAXXZ$0
	DD	00H
	DD	FLAT:__unwindfunclet$?_Xlen@?$vector@UTRSortElement@@V?$allocator@UTRSortElement@@@std@@@std@@KAXXZ$2
__ehfuncinfo$?_Xlen@?$vector@UTRSortElement@@V?$allocator@UTRSortElement@@@std@@@std@@KAXXZ DD 019930522H
	DD	02H
	DD	FLAT:__unwindtable$?_Xlen@?$vector@UTRSortElement@@V?$allocator@UTRSortElement@@@std@@@std@@KAXXZ
	DD	2 DUP(00H)
	DD	2 DUP(00H)
	DD	00H
	DD	01H
; Function compile flags: /Ogtpy
; File c:\program files (x86)\microsoft visual studio 9.0\vc\include\vector
xdata$x	ENDS
;	COMDAT ?_Xlen@?$vector@UTRSortElement@@V?$allocator@UTRSortElement@@@std@@@std@@KAXXZ
_TEXT	SEGMENT
$T228821 = -80						; size = 28
$T228820 = -52						; size = 40
__$EHRec$ = -12						; size = 12
?_Xlen@?$vector@UTRSortElement@@V?$allocator@UTRSortElement@@@std@@@std@@KAXXZ PROC ; std::vector<TRSortElement,std::allocator<TRSortElement> >::_Xlen, COMDAT

; 1259 : 		{	// report a length_error

	push	-1
	push	__ehhandler$?_Xlen@?$vector@UTRSortElement@@V?$allocator@UTRSortElement@@@std@@@std@@KAXXZ
	mov	eax, DWORD PTR fs:0
	push	eax
	mov	DWORD PTR fs:0, esp
	sub	esp, 68					; 00000044H

; 1260 : 		_THROW(length_error, "vector<T> too long");

	push	OFFSET ??_C@_0BD@OLBABOEK@vector?$DMT?$DO?5too?5long?$AA@
	lea	ecx, DWORD PTR $T228821[esp+84]
	call	DWORD PTR __imp_??0?$basic_string@DU?$char_traits@D@std@@V?$allocator@D@2@@std@@QAE@PBD@Z
	lea	ecx, DWORD PTR $T228820[esp+80]
	mov	DWORD PTR __$EHRec$[esp+88], 0
	call	DWORD PTR __imp_??0exception@std@@QAE@XZ
	lea	eax, DWORD PTR $T228821[esp+80]
	push	eax
	lea	ecx, DWORD PTR $T228820[esp+96]
	mov	BYTE PTR __$EHRec$[esp+92], 1
	mov	DWORD PTR $T228820[esp+84], OFFSET ??_7logic_error@std@@6B@
	call	DWORD PTR __imp_??0?$basic_string@DU?$char_traits@D@std@@V?$allocator@D@2@@std@@QAE@ABV01@@Z
	push	OFFSET __TI3?AVlength_error@std@@
	lea	ecx, DWORD PTR $T228820[esp+84]
	push	ecx
	mov	BYTE PTR __$EHRec$[esp+96], 0
	mov	DWORD PTR $T228820[esp+88], OFFSET ??_7length_error@std@@6B@
	call	__CxxThrowException@8
$LN13@Xlen@3:
$LN12@Xlen@3:
	int	3
_TEXT	ENDS
;	COMDAT text$x
text$x	SEGMENT
__unwindfunclet$?_Xlen@?$vector@UTRSortElement@@V?$allocator@UTRSortElement@@@std@@@std@@KAXXZ$0:
	lea	ecx, DWORD PTR $T228821[ebp]
	jmp	DWORD PTR __imp_??1?$basic_string@DU?$char_traits@D@std@@V?$allocator@D@2@@std@@QAE@XZ
__unwindfunclet$?_Xlen@?$vector@UTRSortElement@@V?$allocator@UTRSortElement@@@std@@@std@@KAXXZ$2:
	lea	ecx, DWORD PTR $T228820[ebp]
	jmp	DWORD PTR __imp_??1exception@std@@UAE@XZ
__ehhandler$?_Xlen@?$vector@UTRSortElement@@V?$allocator@UTRSortElement@@@std@@@std@@KAXXZ:
	mov	eax, OFFSET __ehfuncinfo$?_Xlen@?$vector@UTRSortElement@@V?$allocator@UTRSortElement@@@std@@@std@@KAXXZ
	jmp	___CxxFrameHandler3
text$x	ENDS
?_Xlen@?$vector@UTRSortElement@@V?$allocator@UTRSortElement@@@std@@@std@@KAXXZ ENDP ; std::vector<TRSortElement,std::allocator<TRSortElement> >::_Xlen
PUBLIC	??0?$_Container_base_aux_alloc_empty@V?$allocator@UTRSortElement@@@std@@@std@@IAE@V?$allocator@UTRSortElement@@@1@@Z ; std::_Container_base_aux_alloc_empty<std::allocator<TRSortElement> >::_Container_base_aux_alloc_empty<std::allocator<TRSortElement> >
; Function compile flags: /Ogtpy
; File c:\program files (x86)\microsoft visual studio 9.0\vc\include\xutility
;	COMDAT ??0?$_Container_base_aux_alloc_empty@V?$allocator@UTRSortElement@@@std@@@std@@IAE@V?$allocator@UTRSortElement@@@1@@Z
_TEXT	SEGMENT
___formal$ = 8						; size = 1
??0?$_Container_base_aux_alloc_empty@V?$allocator@UTRSortElement@@@std@@@std@@IAE@V?$allocator@UTRSortElement@@@1@@Z PROC ; std::_Container_base_aux_alloc_empty<std::allocator<TRSortElement> >::_Container_base_aux_alloc_empty<std::allocator<TRSortElement> >, COMDAT
; _this$ = ecx

; 618  : 	explicit _Container_base_aux_alloc_empty(_Alloc) { }

	mov	eax, ecx
	ret	4
??0?$_Container_base_aux_alloc_empty@V?$allocator@UTRSortElement@@@std@@@std@@IAE@V?$allocator@UTRSortElement@@@1@@Z ENDP ; std::_Container_base_aux_alloc_empty<std::allocator<TRSortElement> >::_Container_base_aux_alloc_empty<std::allocator<TRSortElement> >
_TEXT	ENDS
PUBLIC	??0?$allocator@UTRSortElement@@@std@@QAE@ABV01@@Z ; std::allocator<TRSortElement>::allocator<TRSortElement>
; Function compile flags: /Ogtpy
; File c:\program files (x86)\microsoft visual studio 9.0\vc\include\xmemory
;	COMDAT ??0?$allocator@UTRSortElement@@@std@@QAE@ABV01@@Z
_TEXT	SEGMENT
___formal$ = 8						; size = 4
??0?$allocator@UTRSortElement@@@std@@QAE@ABV01@@Z PROC	; std::allocator<TRSortElement>::allocator<TRSortElement>, COMDAT
; _this$ = ecx

; 123  : 	allocator(const allocator<_Ty>&) _THROW0()

	mov	eax, ecx

; 124  : 		{	// construct by copying (do nothing)
; 125  : 		}

	ret	4
??0?$allocator@UTRSortElement@@@std@@QAE@ABV01@@Z ENDP	; std::allocator<TRSortElement>::allocator<TRSortElement>
_TEXT	ENDS
PUBLIC	?deallocate@?$allocator@UTRSortElement@@@std@@QAEXPAUTRSortElement@@I@Z ; std::allocator<TRSortElement>::deallocate
; Function compile flags: /Ogtpy
;	COMDAT ?deallocate@?$allocator@UTRSortElement@@@std@@QAEXPAUTRSortElement@@I@Z
_TEXT	SEGMENT
__Ptr$ = 8						; size = 4
___formal$ = 12						; size = 4
?deallocate@?$allocator@UTRSortElement@@@std@@QAEXPAUTRSortElement@@I@Z PROC ; std::allocator<TRSortElement>::deallocate, COMDAT
; _this$ = ecx

; 140  : 		::operator delete(_Ptr);

	mov	eax, DWORD PTR __Ptr$[esp-4]
	push	eax
	call	??3@YAXPAX@Z				; operator delete
	pop	ecx

; 141  : 		}

	ret	8
?deallocate@?$allocator@UTRSortElement@@@std@@QAEXPAUTRSortElement@@I@Z ENDP ; std::allocator<TRSortElement>::deallocate
_TEXT	ENDS
PUBLIC	??0?$_Vector_const_iterator@UTRSortElement@@V?$allocator@UTRSortElement@@@std@@@std@@QAE@PAUTRSortElement@@@Z ; std::_Vector_const_iterator<TRSortElement,std::allocator<TRSortElement> >::_Vector_const_iterator<TRSortElement,std::allocator<TRSortElement> >
; Function compile flags: /Ogtpy
; File c:\program files (x86)\microsoft visual studio 9.0\vc\include\vector
;	COMDAT ??0?$_Vector_const_iterator@UTRSortElement@@V?$allocator@UTRSortElement@@@std@@@std@@QAE@PAUTRSortElement@@@Z
_TEXT	SEGMENT
__Ptr$ = 8						; size = 4
??0?$_Vector_const_iterator@UTRSortElement@@V?$allocator@UTRSortElement@@@std@@@std@@QAE@PAUTRSortElement@@@Z PROC ; std::_Vector_const_iterator<TRSortElement,std::allocator<TRSortElement> >::_Vector_const_iterator<TRSortElement,std::allocator<TRSortElement> >, COMDAT
; _this$ = ecx

; 84   : 	explicit _Vector_const_iterator(_Tptr _Ptr)

	mov	eax, ecx

; 85   : 		{	// construct with pointer _Ptr
; 86   : 		_Myptr = _Ptr;

	mov	ecx, DWORD PTR __Ptr$[esp-4]
	mov	DWORD PTR [eax], ecx

; 87   : 		}

	ret	4
??0?$_Vector_const_iterator@UTRSortElement@@V?$allocator@UTRSortElement@@@std@@@std@@QAE@PAUTRSortElement@@@Z ENDP ; std::_Vector_const_iterator<TRSortElement,std::allocator<TRSortElement> >::_Vector_const_iterator<TRSortElement,std::allocator<TRSortElement> >
_TEXT	ENDS
PUBLIC	??G?$_Vector_const_iterator@UTRSortElement@@V?$allocator@UTRSortElement@@@std@@@std@@QBEHABV01@@Z ; std::_Vector_const_iterator<TRSortElement,std::allocator<TRSortElement> >::operator-
; Function compile flags: /Ogtpy
;	COMDAT ??G?$_Vector_const_iterator@UTRSortElement@@V?$allocator@UTRSortElement@@@std@@@std@@QBEHABV01@@Z
_TEXT	SEGMENT
__Right$ = 8						; size = 4
??G?$_Vector_const_iterator@UTRSortElement@@V?$allocator@UTRSortElement@@@std@@@std@@QBEHABV01@@Z PROC ; std::_Vector_const_iterator<TRSortElement,std::allocator<TRSortElement> >::operator-, COMDAT
; _this$ = ecx

; 187  : 
; 188  :  #if _HAS_ITERATOR_DEBUGGING
; 189  : 		_Compat(_Right);
; 190  :  #else
; 191  : 		_SCL_SECURE_VALIDATE(this->_Has_container() && this->_Same_container(_Right));
; 192  :  #endif /* _HAS_ITERATOR_DEBUGGING */
; 193  : 
; 194  : 		return (_Myptr - _Right._Myptr);

	mov	eax, DWORD PTR __Right$[esp-4]
	mov	ecx, DWORD PTR [ecx]
	sub	ecx, DWORD PTR [eax]
	mov	eax, -1840700269			; 92492493H
	imul	ecx
	add	edx, ecx
	sar	edx, 8
	mov	eax, edx
	shr	eax, 31					; 0000001fH
	add	eax, edx

; 195  : 		}

	ret	4
??G?$_Vector_const_iterator@UTRSortElement@@V?$allocator@UTRSortElement@@@std@@@std@@QBEHABV01@@Z ENDP ; std::_Vector_const_iterator<TRSortElement,std::allocator<TRSortElement> >::operator-
_TEXT	ENDS
PUBLIC	??0?$_Vector_const_iterator@VCvString@@V?$allocator@VCvString@@@std@@@std@@QAE@PAVCvString@@@Z ; std::_Vector_const_iterator<CvString,std::allocator<CvString> >::_Vector_const_iterator<CvString,std::allocator<CvString> >
; Function compile flags: /Ogtpy
;	COMDAT ??0?$_Vector_const_iterator@VCvString@@V?$allocator@VCvString@@@std@@@std@@QAE@PAVCvString@@@Z
_TEXT	SEGMENT
__Ptr$ = 8						; size = 4
??0?$_Vector_const_iterator@VCvString@@V?$allocator@VCvString@@@std@@@std@@QAE@PAVCvString@@@Z PROC ; std::_Vector_const_iterator<CvString,std::allocator<CvString> >::_Vector_const_iterator<CvString,std::allocator<CvString> >, COMDAT
; _this$ = ecx

; 84   : 	explicit _Vector_const_iterator(_Tptr _Ptr)

	mov	eax, ecx

; 85   : 		{	// construct with pointer _Ptr
; 86   : 		_Myptr = _Ptr;

	mov	ecx, DWORD PTR __Ptr$[esp-4]
	mov	DWORD PTR [eax], ecx

; 87   : 		}

	ret	4
??0?$_Vector_const_iterator@VCvString@@V?$allocator@VCvString@@@std@@@std@@QAE@PAVCvString@@@Z ENDP ; std::_Vector_const_iterator<CvString,std::allocator<CvString> >::_Vector_const_iterator<CvString,std::allocator<CvString> >
_TEXT	ENDS
PUBLIC	??G?$_Vector_const_iterator@VCvString@@V?$allocator@VCvString@@@std@@@std@@QBEHABV01@@Z ; std::_Vector_const_iterator<CvString,std::allocator<CvString> >::operator-
; Function compile flags: /Ogtpy
;	COMDAT ??G?$_Vector_const_iterator@VCvString@@V?$allocator@VCvString@@@std@@@std@@QBEHABV01@@Z
_TEXT	SEGMENT
__Right$ = 8						; size = 4
??G?$_Vector_const_iterator@VCvString@@V?$allocator@VCvString@@@std@@@std@@QBEHABV01@@Z PROC ; std::_Vector_const_iterator<CvString,std::allocator<CvString> >::operator-, COMDAT
; _this$ = ecx

; 187  : 
; 188  :  #if _HAS_ITERATOR_DEBUGGING
; 189  : 		_Compat(_Right);
; 190  :  #else
; 191  : 		_SCL_SECURE_VALIDATE(this->_Has_container() && this->_Same_container(_Right));
; 192  :  #endif /* _HAS_ITERATOR_DEBUGGING */
; 193  : 
; 194  : 		return (_Myptr - _Right._Myptr);

	mov	eax, DWORD PTR __Right$[esp-4]
	mov	ecx, DWORD PTR [ecx]
	sub	ecx, DWORD PTR [eax]
	mov	eax, -1840700269			; 92492493H
	imul	ecx
	add	edx, ecx
	sar	edx, 4
	mov	eax, edx
	shr	eax, 31					; 0000001fH
	add	eax, edx

; 195  : 		}

	ret	4
??G?$_Vector_const_iterator@VCvString@@V?$allocator@VCvString@@@std@@@std@@QBEHABV01@@Z ENDP ; std::_Vector_const_iterator<CvString,std::allocator<CvString> >::operator-
_TEXT	ENDS
PUBLIC	??0?$_Vector_iterator@VCvString@@V?$allocator@VCvString@@@std@@@std@@QAE@PAVCvString@@@Z ; std::_Vector_iterator<CvString,std::allocator<CvString> >::_Vector_iterator<CvString,std::allocator<CvString> >
; Function compile flags: /Ogtpy
;	COMDAT ??0?$_Vector_iterator@VCvString@@V?$allocator@VCvString@@@std@@@std@@QAE@PAVCvString@@@Z
_TEXT	SEGMENT
__Ptr$ = 8						; size = 4
??0?$_Vector_iterator@VCvString@@V?$allocator@VCvString@@@std@@@std@@QAE@PAVCvString@@@Z PROC ; std::_Vector_iterator<CvString,std::allocator<CvString> >::_Vector_iterator<CvString,std::allocator<CvString> >, COMDAT
; _this$ = ecx

; 333  : 		{	// construct with pointer _Ptr

	mov	eax, ecx
	mov	ecx, DWORD PTR __Ptr$[esp-4]
	mov	DWORD PTR [eax], ecx

; 334  : 		}

	ret	4
??0?$_Vector_iterator@VCvString@@V?$allocator@VCvString@@@std@@@std@@QAE@PAVCvString@@@Z ENDP ; std::_Vector_iterator<CvString,std::allocator<CvString> >::_Vector_iterator<CvString,std::allocator<CvString> >
_TEXT	ENDS
PUBLIC	??0?$_Vector_iterator@PAVCvCity@@V?$allocator@PAVCvCity@@@std@@@std@@QAE@PAPAVCvCity@@@Z ; std::_Vector_iterator<CvCity *,std::allocator<CvCity *> >::_Vector_iterator<CvCity *,std::allocator<CvCity *> >
; Function compile flags: /Ogtpy
;	COMDAT ??0?$_Vector_iterator@PAVCvCity@@V?$allocator@PAVCvCity@@@std@@@std@@QAE@PAPAVCvCity@@@Z
_TEXT	SEGMENT
__Ptr$ = 8						; size = 4
??0?$_Vector_iterator@PAVCvCity@@V?$allocator@PAVCvCity@@@std@@@std@@QAE@PAPAVCvCity@@@Z PROC ; std::_Vector_iterator<CvCity *,std::allocator<CvCity *> >::_Vector_iterator<CvCity *,std::allocator<CvCity *> >, COMDAT
; _this$ = ecx

; 333  : 		{	// construct with pointer _Ptr

	mov	eax, ecx
	mov	ecx, DWORD PTR __Ptr$[esp-4]
	mov	DWORD PTR [eax], ecx

; 334  : 		}

	ret	4
??0?$_Vector_iterator@PAVCvCity@@V?$allocator@PAVCvCity@@@std@@@std@@QAE@PAPAVCvCity@@@Z ENDP ; std::_Vector_iterator<CvCity *,std::allocator<CvCity *> >::_Vector_iterator<CvCity *,std::allocator<CvCity *> >
_TEXT	ENDS
PUBLIC	?max_size@?$allocator@VCvString@@@std@@QBEIXZ	; std::allocator<CvString>::max_size
; Function compile flags: /Ogtpy
; File c:\program files (x86)\microsoft visual studio 9.0\vc\include\xmemory
;	COMDAT ?max_size@?$allocator@VCvString@@@std@@QBEIXZ
_TEXT	SEGMENT
?max_size@?$allocator@VCvString@@@std@@QBEIXZ PROC	; std::allocator<CvString>::max_size, COMDAT
; _this$ = ecx

; 165  : 		_SIZT _Count = (_SIZT)(-1) / sizeof (_Ty);
; 166  : 		return (0 < _Count ? _Count : 1);

	mov	eax, 153391689				; 09249249H

; 167  : 		}

	ret	0
?max_size@?$allocator@VCvString@@@std@@QBEIXZ ENDP	; std::allocator<CvString>::max_size
_TEXT	ENDS
PUBLIC	?max_size@?$allocator@PAVCvCity@@@std@@QBEIXZ	; std::allocator<CvCity *>::max_size
; Function compile flags: /Ogtpy
;	COMDAT ?max_size@?$allocator@PAVCvCity@@@std@@QBEIXZ
_TEXT	SEGMENT
?max_size@?$allocator@PAVCvCity@@@std@@QBEIXZ PROC	; std::allocator<CvCity *>::max_size, COMDAT
; _this$ = ecx

; 165  : 		_SIZT _Count = (_SIZT)(-1) / sizeof (_Ty);
; 166  : 		return (0 < _Count ? _Count : 1);

	mov	eax, 1073741823				; 3fffffffH

; 167  : 		}

	ret	0
?max_size@?$allocator@PAVCvCity@@@std@@QBEIXZ ENDP	; std::allocator<CvCity *>::max_size
_TEXT	ENDS
PUBLIC	?max_size@?$allocator@UTRSortElement@@@std@@QBEIXZ ; std::allocator<TRSortElement>::max_size
; Function compile flags: /Ogtpy
;	COMDAT ?max_size@?$allocator@UTRSortElement@@@std@@QBEIXZ
_TEXT	SEGMENT
?max_size@?$allocator@UTRSortElement@@@std@@QBEIXZ PROC	; std::allocator<TRSortElement>::max_size, COMDAT
; _this$ = ecx

; 165  : 		_SIZT _Count = (_SIZT)(-1) / sizeof (_Ty);
; 166  : 		return (0 < _Count ? _Count : 1);

	mov	eax, 9586980				; 00924924H

; 167  : 		}

	ret	0
?max_size@?$allocator@UTRSortElement@@@std@@QBEIXZ ENDP	; std::allocator<TRSortElement>::max_size
_TEXT	ENDS
PUBLIC	??8?$_Vector_const_iterator@UTRSortElement@@V?$allocator@UTRSortElement@@@std@@@std@@QBE_NABV01@@Z ; std::_Vector_const_iterator<TRSortElement,std::allocator<TRSortElement> >::operator==
; Function compile flags: /Ogtpy
; File c:\program files (x86)\microsoft visual studio 9.0\vc\include\vector
;	COMDAT ??8?$_Vector_const_iterator@UTRSortElement@@V?$allocator@UTRSortElement@@@std@@@std@@QBE_NABV01@@Z
_TEXT	SEGMENT
__Right$ = 8						; size = 4
??8?$_Vector_const_iterator@UTRSortElement@@V?$allocator@UTRSortElement@@@std@@@std@@QBE_NABV01@@Z PROC ; std::_Vector_const_iterator<TRSortElement,std::allocator<TRSortElement> >::operator==, COMDAT
; _this$ = ecx

; 204  : 
; 205  :  #if _HAS_ITERATOR_DEBUGGING
; 206  : 		_Compat(_Right);
; 207  :  #else
; 208  : 		_SCL_SECURE_VALIDATE(this->_Has_container() && this->_Same_container(_Right));
; 209  :  #endif /* _HAS_ITERATOR_DEBUGGING */
; 210  : 
; 211  : 		return (_Myptr == _Right._Myptr);

	mov	eax, DWORD PTR [ecx]
	mov	edx, DWORD PTR __Right$[esp-4]
	xor	ecx, ecx
	cmp	eax, DWORD PTR [edx]
	sete	cl
	mov	al, cl

; 212  : 		}

	ret	4
??8?$_Vector_const_iterator@UTRSortElement@@V?$allocator@UTRSortElement@@@std@@@std@@QBE_NABV01@@Z ENDP ; std::_Vector_const_iterator<TRSortElement,std::allocator<TRSortElement> >::operator==
_TEXT	ENDS
PUBLIC	??Y?$_Vector_const_iterator@PAVCvCity@@V?$allocator@PAVCvCity@@@std@@@std@@QAEAAV01@H@Z ; std::_Vector_const_iterator<CvCity *,std::allocator<CvCity *> >::operator+=
; Function compile flags: /Ogtpy
;	COMDAT ??Y?$_Vector_const_iterator@PAVCvCity@@V?$allocator@PAVCvCity@@@std@@@std@@QAEAAV01@H@Z
_TEXT	SEGMENT
__Off$ = 8						; size = 4
??Y?$_Vector_const_iterator@PAVCvCity@@V?$allocator@PAVCvCity@@@std@@@std@@QAEAAV01@H@Z PROC ; std::_Vector_const_iterator<CvCity *,std::allocator<CvCity *> >::operator+=, COMDAT
; _this$ = ecx

; 159  : 		{	// increment by integer

	mov	eax, ecx

; 160  : 		_SCL_SECURE_VALIDATE(this->_Has_container());
; 161  : 		_SCL_SECURE_VALIDATE_RANGE(
; 162  : 			_Myptr + _Off <= ((_Myvec *)(this->_Getmycont()))->_Mylast &&
; 163  : 			_Myptr + _Off >= ((_Myvec *)(this->_Getmycont()))->_Myfirst);
; 164  : 		_Myptr += _Off;

	mov	ecx, DWORD PTR __Off$[esp-4]
	lea	edx, DWORD PTR [ecx*4]
	add	DWORD PTR [eax], edx

; 165  : 		return (*this);
; 166  : 		}

	ret	4
??Y?$_Vector_const_iterator@PAVCvCity@@V?$allocator@PAVCvCity@@@std@@@std@@QAEAAV01@H@Z ENDP ; std::_Vector_const_iterator<CvCity *,std::allocator<CvCity *> >::operator+=
_TEXT	ENDS
PUBLIC	??Y?$_Vector_const_iterator@UTRSortElement@@V?$allocator@UTRSortElement@@@std@@@std@@QAEAAV01@H@Z ; std::_Vector_const_iterator<TRSortElement,std::allocator<TRSortElement> >::operator+=
; Function compile flags: /Ogtpy
;	COMDAT ??Y?$_Vector_const_iterator@UTRSortElement@@V?$allocator@UTRSortElement@@@std@@@std@@QAEAAV01@H@Z
_TEXT	SEGMENT
__Off$ = 8						; size = 4
??Y?$_Vector_const_iterator@UTRSortElement@@V?$allocator@UTRSortElement@@@std@@@std@@QAEAAV01@H@Z PROC ; std::_Vector_const_iterator<TRSortElement,std::allocator<TRSortElement> >::operator+=, COMDAT
; _this$ = ecx

; 159  : 		{	// increment by integer

	mov	eax, ecx

; 160  : 		_SCL_SECURE_VALIDATE(this->_Has_container());
; 161  : 		_SCL_SECURE_VALIDATE_RANGE(
; 162  : 			_Myptr + _Off <= ((_Myvec *)(this->_Getmycont()))->_Mylast &&
; 163  : 			_Myptr + _Off >= ((_Myvec *)(this->_Getmycont()))->_Myfirst);
; 164  : 		_Myptr += _Off;

	mov	ecx, DWORD PTR __Off$[esp-4]
	imul	ecx, 448				; 000001c0H
	add	DWORD PTR [eax], ecx

; 165  : 		return (*this);
; 166  : 		}

	ret	4
??Y?$_Vector_const_iterator@UTRSortElement@@V?$allocator@UTRSortElement@@@std@@@std@@QAEAAV01@H@Z ENDP ; std::_Vector_const_iterator<TRSortElement,std::allocator<TRSortElement> >::operator+=
_TEXT	ENDS
PUBLIC	??Y?$_Vector_const_iterator@VCvString@@V?$allocator@VCvString@@@std@@@std@@QAEAAV01@H@Z ; std::_Vector_const_iterator<CvString,std::allocator<CvString> >::operator+=
; Function compile flags: /Ogtpy
;	COMDAT ??Y?$_Vector_const_iterator@VCvString@@V?$allocator@VCvString@@@std@@@std@@QAEAAV01@H@Z
_TEXT	SEGMENT
__Off$ = 8						; size = 4
??Y?$_Vector_const_iterator@VCvString@@V?$allocator@VCvString@@@std@@@std@@QAEAAV01@H@Z PROC ; std::_Vector_const_iterator<CvString,std::allocator<CvString> >::operator+=, COMDAT
; _this$ = ecx

; 159  : 		{	// increment by integer

	mov	eax, ecx

; 160  : 		_SCL_SECURE_VALIDATE(this->_Has_container());
; 161  : 		_SCL_SECURE_VALIDATE_RANGE(
; 162  : 			_Myptr + _Off <= ((_Myvec *)(this->_Getmycont()))->_Mylast &&
; 163  : 			_Myptr + _Off >= ((_Myvec *)(this->_Getmycont()))->_Myfirst);
; 164  : 		_Myptr += _Off;

	mov	ecx, DWORD PTR __Off$[esp-4]
	lea	edx, DWORD PTR [ecx*8]
	sub	edx, ecx
	add	edx, edx
	add	edx, edx
	add	DWORD PTR [eax], edx

; 165  : 		return (*this);
; 166  : 		}

	ret	4
??Y?$_Vector_const_iterator@VCvString@@V?$allocator@VCvString@@@std@@@std@@QAEAAV01@H@Z ENDP ; std::_Vector_const_iterator<CvString,std::allocator<CvString> >::operator+=
_TEXT	ENDS
PUBLIC	??$max@H@std@@YAABHABH0@Z			; std::max<int>
; Function compile flags: /Ogtpy
; File c:\program files (x86)\microsoft visual studio 9.0\vc\include\xutility
;	COMDAT ??$max@H@std@@YAABHABH0@Z
_TEXT	SEGMENT
__Left$ = 8						; size = 4
__Right$ = 12						; size = 4
??$max@H@std@@YAABHABH0@Z PROC				; std::max<int>, COMDAT

; 3384 : 	return (_DEBUG_LT(_Left, _Right) ? _Right : _Left);

	mov	eax, DWORD PTR __Left$[esp-4]
	mov	edx, DWORD PTR [eax]
	mov	ecx, DWORD PTR __Right$[esp-4]
	cmp	edx, DWORD PTR [ecx]
	jge	SHORT $LN4@max
	mov	eax, ecx
$LN4@max:

; 3385 : 	}

	ret	0
??$max@H@std@@YAABHABH0@Z ENDP				; std::max<int>
_TEXT	ENDS
PUBLIC	??$sprintf_s@$0BAA@@@YAHAAY0BAA@DPBDZZ		; sprintf_s<256>
EXTRN	__imp__vsprintf_s:PROC
; Function compile flags: /Ogtpy
; File c:\program files (x86)\microsoft visual studio 9.0\vc\include\stdio.h
;	COMDAT ??$sprintf_s@$0BAA@@@YAHAAY0BAA@DPBDZZ
_TEXT	SEGMENT
__Dest$ = 8						; size = 4
__Format$ = 12						; size = 4
??$sprintf_s@$0BAA@@@YAHAAY0BAA@DPBDZZ PROC		; sprintf_s<256>, COMDAT

; 322  : __DEFINE_CPP_OVERLOAD_SECURE_FUNC_0_1_ARGLIST(int, sprintf_s, vsprintf_s, char, _Dest, _In_z_ _Printf_format_string_ const char *, _Format)

	mov	ecx, DWORD PTR __Format$[esp-4]
	mov	edx, DWORD PTR __Dest$[esp-4]
	lea	eax, DWORD PTR __Format$[esp]
	push	eax
	push	ecx
	push	256					; 00000100H
	push	edx
	call	DWORD PTR __imp__vsprintf_s
	add	esp, 16					; 00000010H
	ret	0
??$sprintf_s@$0BAA@@@YAHAAY0BAA@DPBDZZ ENDP		; sprintf_s<256>
_TEXT	ENDS
PUBLIC	??$?6PBD@@YAAAVString@Localization@@AAV01@ABQBD@Z ; operator<<<char const *>
EXTRN	__imp_?PushArgument@String@Localization@@QAE_NPBD@Z:PROC
; Function compile flags: /Ogtpy
; File c:\users\enormousapplepie\documents\github\lekmod\lekmod_dll\cvlocalization\include\cvlocalization.h
;	COMDAT ??$?6PBD@@YAAAVString@Localization@@AAV01@ABQBD@Z
_TEXT	SEGMENT
_s$ = 8							; size = 4
_val$ = 12						; size = 4
??$?6PBD@@YAAAVString@Localization@@AAV01@ABQBD@Z PROC	; operator<<<char const *>, COMDAT

; 491  : 	s.PushArgument(val);

	mov	eax, DWORD PTR _val$[esp-4]
	mov	ecx, DWORD PTR [eax]
	push	esi
	mov	esi, DWORD PTR _s$[esp]
	push	ecx
	mov	ecx, esi
	call	DWORD PTR __imp_?PushArgument@String@Localization@@QAE_NPBD@Z

; 492  : 	return s;

	mov	eax, esi
	pop	esi

; 493  : }

	ret	0
??$?6PBD@@YAAAVString@Localization@@AAV01@ABQBD@Z ENDP	; operator<<<char const *>
_TEXT	ENDS
PUBLIC	??$?6VString@Localization@@@@YAAAVString@Localization@@AAV01@ABV01@@Z ; operator<<<Localization::String>
EXTRN	__imp_?PushArgument@String@Localization@@QAE_NABV12@@Z:PROC
; Function compile flags: /Ogtpy
;	COMDAT ??$?6VString@Localization@@@@YAAAVString@Localization@@AAV01@ABV01@@Z
_TEXT	SEGMENT
_s$ = 8							; size = 4
_val$ = 12						; size = 4
??$?6VString@Localization@@@@YAAAVString@Localization@@AAV01@ABV01@@Z PROC ; operator<<<Localization::String>, COMDAT

; 491  : 	s.PushArgument(val);

	mov	eax, DWORD PTR _val$[esp-4]
	push	esi
	mov	esi, DWORD PTR _s$[esp]
	push	eax
	mov	ecx, esi
	call	DWORD PTR __imp_?PushArgument@String@Localization@@QAE_NABV12@@Z

; 492  : 	return s;

	mov	eax, esi
	pop	esi

; 493  : }

	ret	0
??$?6VString@Localization@@@@YAAAVString@Localization@@AAV01@ABV01@@Z ENDP ; operator<<<Localization::String>
_TEXT	ENDS
PUBLIC	__TI2?AVbad_alloc@std@@
PUBLIC	??$_Allocate@VCvString@@@std@@YAPAVCvString@@IPAV1@@Z ; std::_Allocate<CvString>
PUBLIC	__CTA2?AVbad_alloc@std@@
PUBLIC	__CT??_R0?AVbad_alloc@std@@@8??0bad_alloc@std@@QAE@ABV01@@Z12
PUBLIC	??0bad_alloc@std@@QAE@ABV01@@Z			; std::bad_alloc::bad_alloc
EXTRN	??2@YAPAXI@Z:PROC				; operator new
;	COMDAT __CT??_R0?AVbad_alloc@std@@@8??0bad_alloc@std@@QAE@ABV01@@Z12
; File c:\program files (x86)\microsoft visual studio 9.0\vc\include\exception
xdata$x	SEGMENT
__CT??_R0?AVbad_alloc@std@@@8??0bad_alloc@std@@QAE@ABV01@@Z12 DD 00H
	DD	FLAT:??_R0?AVbad_alloc@std@@@8
	DD	00H
	DD	0ffffffffH
	ORG $+4
	DD	0cH
	DD	FLAT:??0bad_alloc@std@@QAE@ABV01@@Z
xdata$x	ENDS
;	COMDAT __CTA2?AVbad_alloc@std@@
xdata$x	SEGMENT
__CTA2?AVbad_alloc@std@@ DD 02H
	DD	FLAT:__CT??_R0?AVbad_alloc@std@@@8??0bad_alloc@std@@QAE@ABV01@@Z12
	DD	FLAT:__CT??_R0?AVexception@std@@@8??0exception@std@@QAE@ABV01@@Z12
xdata$x	ENDS
;	COMDAT __TI2?AVbad_alloc@std@@
xdata$x	SEGMENT
__TI2?AVbad_alloc@std@@ DD 00H
	DD	FLAT:??1bad_alloc@std@@UAE@XZ
	DD	00H
	DD	FLAT:__CTA2?AVbad_alloc@std@@
; Function compile flags: /Ogtpy
; File c:\program files (x86)\microsoft visual studio 9.0\vc\include\xmemory
xdata$x	ENDS
;	COMDAT ??$_Allocate@VCvString@@@std@@YAPAVCvString@@IPAV1@@Z
_TEXT	SEGMENT
$T228920 = -12						; size = 12
$T228924 = 8						; size = 4
__Count$ = 8						; size = 4
___formal$ = 12						; size = 4
??$_Allocate@VCvString@@@std@@YAPAVCvString@@IPAV1@@Z PROC ; std::_Allocate<CvString>, COMDAT

; 37   : 	if (_Count <= 0)

	mov	ecx, DWORD PTR __Count$[esp-4]
	sub	esp, 12					; 0000000cH
	test	ecx, ecx
	ja	SHORT $LN3@Allocate

; 38   : 		_Count = 0;

	xor	ecx, ecx
$LN1@Allocate:

; 41   : 
; 42   : 		// allocate storage for _Count elements of type _Ty
; 43   : 	return ((_Ty _FARQ *)::operator new(_Count * sizeof (_Ty)));

	lea	edx, DWORD PTR [ecx*8]
	sub	edx, ecx
	add	edx, edx
	add	edx, edx
	push	edx
	call	??2@YAPAXI@Z				; operator new
	add	esp, 4

; 44   : 	}

	add	esp, 12					; 0000000cH
	ret	0
$LN3@Allocate:

; 39   : 	else if (((_SIZT)(-1) / _Count) < sizeof (_Ty))

	or	eax, -1
	xor	edx, edx
	div	ecx
	cmp	eax, 28					; 0000001cH
	jae	SHORT $LN1@Allocate

; 40   : 		_THROW_NCEE(std::bad_alloc, NULL);

	lea	eax, DWORD PTR $T228924[esp+8]
	push	eax
	lea	ecx, DWORD PTR $T228920[esp+16]
	mov	DWORD PTR $T228924[esp+12], 0
	call	DWORD PTR __imp_??0exception@std@@QAE@ABQBD@Z
	push	OFFSET __TI2?AVbad_alloc@std@@
	lea	ecx, DWORD PTR $T228920[esp+16]
	push	ecx
	mov	DWORD PTR $T228920[esp+20], OFFSET ??_7bad_alloc@std@@6B@
	call	__CxxThrowException@8
$LN9@Allocate:
$LN8@Allocate:
	int	3
??$_Allocate@VCvString@@@std@@YAPAVCvString@@IPAV1@@Z ENDP ; std::_Allocate<CvString>
_TEXT	ENDS
PUBLIC	??$_Allocate@PAVCvCity@@@std@@YAPAPAVCvCity@@IPAPAV1@@Z ; std::_Allocate<CvCity *>
; Function compile flags: /Ogtpy
;	COMDAT ??$_Allocate@PAVCvCity@@@std@@YAPAPAVCvCity@@IPAPAV1@@Z
_TEXT	SEGMENT
$T228930 = -12						; size = 12
$T228934 = 8						; size = 4
__Count$ = 8						; size = 4
___formal$ = 12						; size = 4
??$_Allocate@PAVCvCity@@@std@@YAPAPAVCvCity@@IPAPAV1@@Z PROC ; std::_Allocate<CvCity *>, COMDAT

; 37   : 	if (_Count <= 0)

	mov	ecx, DWORD PTR __Count$[esp-4]
	sub	esp, 12					; 0000000cH
	test	ecx, ecx
	ja	SHORT $LN3@Allocate@2

; 38   : 		_Count = 0;

	xor	ecx, ecx
$LN1@Allocate@2:

; 41   : 
; 42   : 		// allocate storage for _Count elements of type _Ty
; 43   : 	return ((_Ty _FARQ *)::operator new(_Count * sizeof (_Ty)));

	lea	edx, DWORD PTR [ecx*4]
	push	edx
	call	??2@YAPAXI@Z				; operator new
	add	esp, 4

; 44   : 	}

	add	esp, 12					; 0000000cH
	ret	0
$LN3@Allocate@2:

; 39   : 	else if (((_SIZT)(-1) / _Count) < sizeof (_Ty))

	or	eax, -1
	xor	edx, edx
	div	ecx
	cmp	eax, 4
	jae	SHORT $LN1@Allocate@2

; 40   : 		_THROW_NCEE(std::bad_alloc, NULL);

	lea	eax, DWORD PTR $T228934[esp+8]
	push	eax
	lea	ecx, DWORD PTR $T228930[esp+16]
	mov	DWORD PTR $T228934[esp+12], 0
	call	DWORD PTR __imp_??0exception@std@@QAE@ABQBD@Z
	push	OFFSET __TI2?AVbad_alloc@std@@
	lea	ecx, DWORD PTR $T228930[esp+16]
	push	ecx
	mov	DWORD PTR $T228930[esp+20], OFFSET ??_7bad_alloc@std@@6B@
	call	__CxxThrowException@8
$LN9@Allocate@2:
$LN8@Allocate@2:
	int	3
??$_Allocate@PAVCvCity@@@std@@YAPAPAVCvCity@@IPAPAV1@@Z ENDP ; std::_Allocate<CvCity *>
_TEXT	ENDS
PUBLIC	??$_Allocate@UTRSortElement@@@std@@YAPAUTRSortElement@@IPAU1@@Z ; std::_Allocate<TRSortElement>
; Function compile flags: /Ogtpy
;	COMDAT ??$_Allocate@UTRSortElement@@@std@@YAPAUTRSortElement@@IPAU1@@Z
_TEXT	SEGMENT
$T228940 = -12						; size = 12
$T228944 = 8						; size = 4
__Count$ = 8						; size = 4
___formal$ = 12						; size = 4
??$_Allocate@UTRSortElement@@@std@@YAPAUTRSortElement@@IPAU1@@Z PROC ; std::_Allocate<TRSortElement>, COMDAT

; 37   : 	if (_Count <= 0)

	mov	ecx, DWORD PTR __Count$[esp-4]
	sub	esp, 12					; 0000000cH
	test	ecx, ecx
	ja	SHORT $LN3@Allocate@3

; 38   : 		_Count = 0;

	xor	ecx, ecx
$LN1@Allocate@3:

; 41   : 
; 42   : 		// allocate storage for _Count elements of type _Ty
; 43   : 	return ((_Ty _FARQ *)::operator new(_Count * sizeof (_Ty)));

	imul	ecx, 448				; 000001c0H
	push	ecx
	call	??2@YAPAXI@Z				; operator new
	add	esp, 4

; 44   : 	}

	add	esp, 12					; 0000000cH
	ret	0
$LN3@Allocate@3:

; 39   : 	else if (((_SIZT)(-1) / _Count) < sizeof (_Ty))

	or	eax, -1
	xor	edx, edx
	div	ecx
	cmp	eax, 448				; 000001c0H
	jae	SHORT $LN1@Allocate@3

; 40   : 		_THROW_NCEE(std::bad_alloc, NULL);

	lea	eax, DWORD PTR $T228944[esp+8]
	push	eax
	lea	ecx, DWORD PTR $T228940[esp+16]
	mov	DWORD PTR $T228944[esp+12], 0
	call	DWORD PTR __imp_??0exception@std@@QAE@ABQBD@Z
	push	OFFSET __TI2?AVbad_alloc@std@@
	lea	ecx, DWORD PTR $T228940[esp+16]
	push	ecx
	mov	DWORD PTR $T228940[esp+20], OFFSET ??_7bad_alloc@std@@6B@
	call	__CxxThrowException@8
$LN9@Allocate@3:
$LN8@Allocate@3:
	int	3
??$_Allocate@UTRSortElement@@@std@@YAPAUTRSortElement@@IPAU1@@Z ENDP ; std::_Allocate<TRSortElement>
_TEXT	ENDS
PUBLIC	??$?6H@@YAAAVString@Localization@@AAV01@ABH@Z	; operator<<<int>
EXTRN	__imp_?PushArgument@String@Localization@@QAE_NH@Z:PROC
; Function compile flags: /Ogtpy
; File c:\users\enormousapplepie\documents\github\lekmod\lekmod_dll\cvlocalization\include\cvlocalization.h
;	COMDAT ??$?6H@@YAAAVString@Localization@@AAV01@ABH@Z
_TEXT	SEGMENT
_s$ = 8							; size = 4
_val$ = 12						; size = 4
??$?6H@@YAAAVString@Localization@@AAV01@ABH@Z PROC	; operator<<<int>, COMDAT

; 491  : 	s.PushArgument(val);

	mov	eax, DWORD PTR _val$[esp-4]
	mov	ecx, DWORD PTR [eax]
	push	esi
	mov	esi, DWORD PTR _s$[esp]
	push	ecx
	mov	ecx, esi
	call	DWORD PTR __imp_?PushArgument@String@Localization@@QAE_NH@Z

; 492  : 	return s;

	mov	eax, esi
	pop	esi

; 493  : }

	ret	0
??$?6H@@YAAAVString@Localization@@AAV01@ABH@Z ENDP	; operator<<<int>
_TEXT	ENDS
PUBLIC	??$?6$0BF@@@YAAAVString@Localization@@AAV01@AAY0BF@$$CBD@Z ; operator<<<21>
EXTRN	__imp_?PushArgument@String@Localization@@QAE_NPBDI@Z:PROC
; Function compile flags: /Ogtpy
;	COMDAT ??$?6$0BF@@@YAAAVString@Localization@@AAV01@AAY0BF@$$CBD@Z
_TEXT	SEGMENT
_s$ = 8							; size = 4
_val$ = 12						; size = 4
??$?6$0BF@@@YAAAVString@Localization@@AAV01@AAY0BF@$$CBD@Z PROC ; operator<<<21>, COMDAT

; 498  : 	s.PushArgument(val, N - 1);

	mov	eax, DWORD PTR _val$[esp-4]
	push	esi
	mov	esi, DWORD PTR _s$[esp]
	push	20					; 00000014H
	push	eax
	mov	ecx, esi
	call	DWORD PTR __imp_?PushArgument@String@Localization@@QAE_NPBDI@Z

; 499  : 	return s;

	mov	eax, esi
	pop	esi

; 500  : }

	ret	0
??$?6$0BF@@@YAAAVString@Localization@@AAV01@AAY0BF@$$CBD@Z ENDP ; operator<<<21>
_TEXT	ENDS
PUBLIC	??$?6$0BI@@@YAAAVString@Localization@@AAV01@AAY0BI@$$CBD@Z ; operator<<<24>
; Function compile flags: /Ogtpy
;	COMDAT ??$?6$0BI@@@YAAAVString@Localization@@AAV01@AAY0BI@$$CBD@Z
_TEXT	SEGMENT
_s$ = 8							; size = 4
_val$ = 12						; size = 4
??$?6$0BI@@@YAAAVString@Localization@@AAV01@AAY0BI@$$CBD@Z PROC ; operator<<<24>, COMDAT

; 498  : 	s.PushArgument(val, N - 1);

	mov	eax, DWORD PTR _val$[esp-4]
	push	esi
	mov	esi, DWORD PTR _s$[esp]
	push	23					; 00000017H
	push	eax
	mov	ecx, esi
	call	DWORD PTR __imp_?PushArgument@String@Localization@@QAE_NPBDI@Z

; 499  : 	return s;

	mov	eax, esi
	pop	esi

; 500  : }

	ret	0
??$?6$0BI@@@YAAAVString@Localization@@AAV01@AAY0BI@$$CBD@Z ENDP ; operator<<<24>
_TEXT	ENDS
PUBLIC	??$_Dist_type@V?$_Vector_iterator@UTRSortElement@@V?$allocator@UTRSortElement@@@std@@@std@@@std@@YAPAHV?$_Vector_iterator@UTRSortElement@@V?$allocator@UTRSortElement@@@std@@@0@@Z ; std::_Dist_type<std::_Vector_iterator<TRSortElement,std::allocator<TRSortElement> > >
; Function compile flags: /Ogtpy
; File c:\program files (x86)\microsoft visual studio 9.0\vc\include\xutility
;	COMDAT ??$_Dist_type@V?$_Vector_iterator@UTRSortElement@@V?$allocator@UTRSortElement@@@std@@@std@@@std@@YAPAHV?$_Vector_iterator@UTRSortElement@@V?$allocator@UTRSortElement@@@std@@@0@@Z
_TEXT	SEGMENT
___formal$ = 8						; size = 4
??$_Dist_type@V?$_Vector_iterator@UTRSortElement@@V?$allocator@UTRSortElement@@@std@@@std@@@std@@YAPAHV?$_Vector_iterator@UTRSortElement@@V?$allocator@UTRSortElement@@@std@@@0@@Z PROC ; std::_Dist_type<std::_Vector_iterator<TRSortElement,std::allocator<TRSortElement> > >, COMDAT

; 1831 : 	return (0);

	xor	eax, eax

; 1832 : 	}

	ret	0
??$_Dist_type@V?$_Vector_iterator@UTRSortElement@@V?$allocator@UTRSortElement@@@std@@@std@@@std@@YAPAHV?$_Vector_iterator@UTRSortElement@@V?$allocator@UTRSortElement@@@std@@@0@@Z ENDP ; std::_Dist_type<std::_Vector_iterator<TRSortElement,std::allocator<TRSortElement> > >
_TEXT	ENDS
PUBLIC	??$_Val_type@V?$_Vector_iterator@UTRSortElement@@V?$allocator@UTRSortElement@@@std@@@std@@@std@@YAPAUTRSortElement@@V?$_Vector_iterator@UTRSortElement@@V?$allocator@UTRSortElement@@@std@@@0@@Z ; std::_Val_type<std::_Vector_iterator<TRSortElement,std::allocator<TRSortElement> > >
; Function compile flags: /Ogtpy
;	COMDAT ??$_Val_type@V?$_Vector_iterator@UTRSortElement@@V?$allocator@UTRSortElement@@@std@@@std@@@std@@YAPAUTRSortElement@@V?$_Vector_iterator@UTRSortElement@@V?$allocator@UTRSortElement@@@std@@@0@@Z
_TEXT	SEGMENT
___formal$ = 8						; size = 4
??$_Val_type@V?$_Vector_iterator@UTRSortElement@@V?$allocator@UTRSortElement@@@std@@@std@@@std@@YAPAUTRSortElement@@V?$_Vector_iterator@UTRSortElement@@V?$allocator@UTRSortElement@@@std@@@0@@Z PROC ; std::_Val_type<std::_Vector_iterator<TRSortElement,std::allocator<TRSortElement> > >, COMDAT

; 1766 : 	return (0);

	xor	eax, eax

; 1767 : 	}

	ret	0
??$_Val_type@V?$_Vector_iterator@UTRSortElement@@V?$allocator@UTRSortElement@@@std@@@std@@@std@@YAPAUTRSortElement@@V?$_Vector_iterator@UTRSortElement@@V?$allocator@UTRSortElement@@@std@@@0@@Z ENDP ; std::_Val_type<std::_Vector_iterator<TRSortElement,std::allocator<TRSortElement> > >
_TEXT	ENDS
PUBLIC	??$_Ptr_cat@PAVCvString@@PAV1@@std@@YA?AU_Nonscalar_ptr_iterator_tag@0@AAPAVCvString@@0@Z ; std::_Ptr_cat<CvString *,CvString *>
; Function compile flags: /Ogtpy
;	COMDAT ??$_Ptr_cat@PAVCvString@@PAV1@@std@@YA?AU_Nonscalar_ptr_iterator_tag@0@AAPAVCvString@@0@Z
_TEXT	SEGMENT
__Cat$ = -1						; size = 1
___formal$ = 8						; size = 4
___formal$ = 12						; size = 4
??$_Ptr_cat@PAVCvString@@PAV1@@std@@YA?AU_Nonscalar_ptr_iterator_tag@0@AAPAVCvString@@0@Z PROC ; std::_Ptr_cat<CvString *,CvString *>, COMDAT

; 1509 : 	{

	push	ecx

; 1510 : 	typename _Ptr_cat_helper<_T1, _T2>::_Ptr_cat _Cat;
; 1511 : 	return (_Cat);

	mov	al, BYTE PTR __Cat$[esp+4]

; 1512 : 	}

	pop	ecx
	ret	0
??$_Ptr_cat@PAVCvString@@PAV1@@std@@YA?AU_Nonscalar_ptr_iterator_tag@0@AAPAVCvString@@0@Z ENDP ; std::_Ptr_cat<CvString *,CvString *>
_TEXT	ENDS
PUBLIC	??$_Ptr_cat@PAPAVCvCity@@PAPAV1@@std@@YA?AU_Scalar_ptr_iterator_tag@0@AAPAPAVCvCity@@0@Z ; std::_Ptr_cat<CvCity * *,CvCity * *>
; Function compile flags: /Ogtpy
;	COMDAT ??$_Ptr_cat@PAPAVCvCity@@PAPAV1@@std@@YA?AU_Scalar_ptr_iterator_tag@0@AAPAPAVCvCity@@0@Z
_TEXT	SEGMENT
__Cat$ = -1						; size = 1
___formal$ = 8						; size = 4
___formal$ = 12						; size = 4
??$_Ptr_cat@PAPAVCvCity@@PAPAV1@@std@@YA?AU_Scalar_ptr_iterator_tag@0@AAPAPAVCvCity@@0@Z PROC ; std::_Ptr_cat<CvCity * *,CvCity * *>, COMDAT

; 1509 : 	{

	push	ecx

; 1510 : 	typename _Ptr_cat_helper<_T1, _T2>::_Ptr_cat _Cat;
; 1511 : 	return (_Cat);

	mov	al, BYTE PTR __Cat$[esp+4]

; 1512 : 	}

	pop	ecx
	ret	0
??$_Ptr_cat@PAPAVCvCity@@PAPAV1@@std@@YA?AU_Scalar_ptr_iterator_tag@0@AAPAPAVCvCity@@0@Z ENDP ; std::_Ptr_cat<CvCity * *,CvCity * *>
_TEXT	ENDS
PUBLIC	??$_Iter_random@PAUTRSortElement@@PAU1@@std@@YA?AUrandom_access_iterator_tag@0@ABQAUTRSortElement@@0@Z ; std::_Iter_random<TRSortElement *,TRSortElement *>
; Function compile flags: /Ogtpy
;	COMDAT ??$_Iter_random@PAUTRSortElement@@PAU1@@std@@YA?AUrandom_access_iterator_tag@0@ABQAUTRSortElement@@0@Z
_TEXT	SEGMENT
___$ReturnUdt$ = 8					; size = 4
___formal$ = 12						; size = 4
___formal$ = 16						; size = 4
??$_Iter_random@PAUTRSortElement@@PAU1@@std@@YA?AUrandom_access_iterator_tag@0@ABQAUTRSortElement@@0@Z PROC ; std::_Iter_random<TRSortElement *,TRSortElement *>, COMDAT

; 994  : 	typename _Iter_random_helper<
; 995  : 		iterator_traits<_Iter1>::iterator_category, 
; 996  : 		iterator_traits<_Iter2>::iterator_category>::_Iter_random_cat _Cat;
; 997  : 	return (_Cat);

	mov	eax, DWORD PTR ___$ReturnUdt$[esp-4]

; 998  : 	}

	ret	0
??$_Iter_random@PAUTRSortElement@@PAU1@@std@@YA?AUrandom_access_iterator_tag@0@ABQAUTRSortElement@@0@Z ENDP ; std::_Iter_random<TRSortElement *,TRSortElement *>
_TEXT	ENDS
PUBLIC	??$_Ptr_cat@PAUTRSortElement@@PAU1@@std@@YA?AU_Nonscalar_ptr_iterator_tag@0@AAPAUTRSortElement@@0@Z ; std::_Ptr_cat<TRSortElement *,TRSortElement *>
; Function compile flags: /Ogtpy
;	COMDAT ??$_Ptr_cat@PAUTRSortElement@@PAU1@@std@@YA?AU_Nonscalar_ptr_iterator_tag@0@AAPAUTRSortElement@@0@Z
_TEXT	SEGMENT
__Cat$ = -1						; size = 1
___formal$ = 8						; size = 4
___formal$ = 12						; size = 4
??$_Ptr_cat@PAUTRSortElement@@PAU1@@std@@YA?AU_Nonscalar_ptr_iterator_tag@0@AAPAUTRSortElement@@0@Z PROC ; std::_Ptr_cat<TRSortElement *,TRSortElement *>, COMDAT

; 1509 : 	{

	push	ecx

; 1510 : 	typename _Ptr_cat_helper<_T1, _T2>::_Ptr_cat _Cat;
; 1511 : 	return (_Cat);

	mov	al, BYTE PTR __Cat$[esp+4]

; 1512 : 	}

	pop	ecx
	ret	0
??$_Ptr_cat@PAUTRSortElement@@PAU1@@std@@YA?AU_Nonscalar_ptr_iterator_tag@0@AAPAUTRSortElement@@0@Z ENDP ; std::_Ptr_cat<TRSortElement *,TRSortElement *>
_TEXT	ENDS
PUBLIC	??$_Iter_random@PAVCvString@@PAV1@@std@@YA?AUrandom_access_iterator_tag@0@ABQAVCvString@@0@Z ; std::_Iter_random<CvString *,CvString *>
; Function compile flags: /Ogtpy
;	COMDAT ??$_Iter_random@PAVCvString@@PAV1@@std@@YA?AUrandom_access_iterator_tag@0@ABQAVCvString@@0@Z
_TEXT	SEGMENT
___$ReturnUdt$ = 8					; size = 4
___formal$ = 12						; size = 4
___formal$ = 16						; size = 4
??$_Iter_random@PAVCvString@@PAV1@@std@@YA?AUrandom_access_iterator_tag@0@ABQAVCvString@@0@Z PROC ; std::_Iter_random<CvString *,CvString *>, COMDAT

; 994  : 	typename _Iter_random_helper<
; 995  : 		iterator_traits<_Iter1>::iterator_category, 
; 996  : 		iterator_traits<_Iter2>::iterator_category>::_Iter_random_cat _Cat;
; 997  : 	return (_Cat);

	mov	eax, DWORD PTR ___$ReturnUdt$[esp-4]

; 998  : 	}

	ret	0
??$_Iter_random@PAVCvString@@PAV1@@std@@YA?AUrandom_access_iterator_tag@0@ABQAVCvString@@0@Z ENDP ; std::_Iter_random<CvString *,CvString *>
_TEXT	ENDS
PUBLIC	??$_Move_cat@PAVCvString@@@std@@YA?AU_Undefined_move_tag@0@ABQAVCvString@@@Z ; std::_Move_cat<CvString *>
; Function compile flags: /Ogtpy
;	COMDAT ??$_Move_cat@PAVCvString@@@std@@YA?AU_Undefined_move_tag@0@ABQAVCvString@@@Z
_TEXT	SEGMENT
__Cat$ = -1						; size = 1
___formal$ = 8						; size = 4
??$_Move_cat@PAVCvString@@@std@@YA?AU_Undefined_move_tag@0@ABQAVCvString@@@Z PROC ; std::_Move_cat<CvString *>, COMDAT

; 1200 : 	{

	push	ecx

; 1201 : 		typename _Move_operation_category<typename iterator_traits<_Iter>::value_type>::_Move_cat _Cat;
; 1202 : 		return (_Cat);

	mov	al, BYTE PTR __Cat$[esp+4]

; 1203 : 	}

	pop	ecx
	ret	0
??$_Move_cat@PAVCvString@@@std@@YA?AU_Undefined_move_tag@0@ABQAVCvString@@@Z ENDP ; std::_Move_cat<CvString *>
_TEXT	ENDS
PUBLIC	??$_Destroy_range@V?$allocator@PAVCvCity@@@std@@@std@@YAXPAPAVCvCity@@0AAV?$allocator@PAVCvCity@@@0@U_Scalar_ptr_iterator_tag@0@@Z ; std::_Destroy_range<std::allocator<CvCity *> >
; Function compile flags: /Ogtpy
; File c:\program files (x86)\microsoft visual studio 9.0\vc\include\xmemory
;	COMDAT ??$_Destroy_range@V?$allocator@PAVCvCity@@@std@@@std@@YAXPAPAVCvCity@@0AAV?$allocator@PAVCvCity@@@0@U_Scalar_ptr_iterator_tag@0@@Z
_TEXT	SEGMENT
__First$ = 8						; size = 4
__Last$ = 12						; size = 4
__Al$ = 16						; size = 4
___formal$ = 20						; size = 1
??$_Destroy_range@V?$allocator@PAVCvCity@@@std@@@std@@YAXPAPAVCvCity@@0AAV?$allocator@PAVCvCity@@@0@U_Scalar_ptr_iterator_tag@0@@Z PROC ; std::_Destroy_range<std::allocator<CvCity *> >, COMDAT

; 242  : 	}

	ret	0
??$_Destroy_range@V?$allocator@PAVCvCity@@@std@@@std@@YAXPAPAVCvCity@@0AAV?$allocator@PAVCvCity@@@0@U_Scalar_ptr_iterator_tag@0@@Z ENDP ; std::_Destroy_range<std::allocator<CvCity *> >
_TEXT	ENDS
PUBLIC	??$_Fill@PAPAVCvCity@@PAV1@@std@@YAXPAPAVCvCity@@0ABQAV1@@Z ; std::_Fill<CvCity * *,CvCity *>
; Function compile flags: /Ogtpy
; File c:\program files (x86)\microsoft visual studio 9.0\vc\include\xutility
;	COMDAT ??$_Fill@PAPAVCvCity@@PAV1@@std@@YAXPAPAVCvCity@@0ABQAV1@@Z
_TEXT	SEGMENT
__First$ = 8						; size = 4
__Last$ = 12						; size = 4
__Val$ = 16						; size = 4
??$_Fill@PAPAVCvCity@@PAV1@@std@@YAXPAPAVCvCity@@0ABQAV1@@Z PROC ; std::_Fill<CvCity * *,CvCity *>, COMDAT

; 3157 : 	_DEBUG_RANGE(_First, _Last);
; 3158 : 	for (; _First != _Last; ++_First)

	mov	eax, DWORD PTR __First$[esp-4]
	mov	ecx, DWORD PTR __Last$[esp-4]
	cmp	eax, ecx
	je	SHORT $LN1@Fill
	mov	edx, DWORD PTR __Val$[esp-4]
	push	esi
$LL3@Fill:

; 3159 : 		*_First = _Val;

	mov	esi, DWORD PTR [edx]
	mov	DWORD PTR [eax], esi
	add	eax, 4
	cmp	eax, ecx
	jne	SHORT $LL3@Fill
	pop	esi
$LN1@Fill:

; 3160 : 	}

	ret	0
??$_Fill@PAPAVCvCity@@PAV1@@std@@YAXPAPAVCvCity@@0ABQAV1@@Z ENDP ; std::_Fill<CvCity * *,CvCity *>
_TEXT	ENDS
PUBLIC	??$_Iter_random@PAPAVCvCity@@PAPAV1@@std@@YA?AUrandom_access_iterator_tag@0@ABQAPAVCvCity@@0@Z ; std::_Iter_random<CvCity * *,CvCity * *>
; Function compile flags: /Ogtpy
;	COMDAT ??$_Iter_random@PAPAVCvCity@@PAPAV1@@std@@YA?AUrandom_access_iterator_tag@0@ABQAPAVCvCity@@0@Z
_TEXT	SEGMENT
___$ReturnUdt$ = 8					; size = 4
___formal$ = 12						; size = 4
___formal$ = 16						; size = 4
??$_Iter_random@PAPAVCvCity@@PAPAV1@@std@@YA?AUrandom_access_iterator_tag@0@ABQAPAVCvCity@@0@Z PROC ; std::_Iter_random<CvCity * *,CvCity * *>, COMDAT

; 994  : 	typename _Iter_random_helper<
; 995  : 		iterator_traits<_Iter1>::iterator_category, 
; 996  : 		iterator_traits<_Iter2>::iterator_category>::_Iter_random_cat _Cat;
; 997  : 	return (_Cat);

	mov	eax, DWORD PTR ___$ReturnUdt$[esp-4]

; 998  : 	}

	ret	0
??$_Iter_random@PAPAVCvCity@@PAPAV1@@std@@YA?AUrandom_access_iterator_tag@0@ABQAPAVCvCity@@0@Z ENDP ; std::_Iter_random<CvCity * *,CvCity * *>
_TEXT	ENDS
PUBLIC	??$_Move_cat@PAPAVCvCity@@@std@@YA?AU_Undefined_move_tag@0@ABQAPAVCvCity@@@Z ; std::_Move_cat<CvCity * *>
; Function compile flags: /Ogtpy
;	COMDAT ??$_Move_cat@PAPAVCvCity@@@std@@YA?AU_Undefined_move_tag@0@ABQAPAVCvCity@@@Z
_TEXT	SEGMENT
__Cat$ = -1						; size = 1
___formal$ = 8						; size = 4
??$_Move_cat@PAPAVCvCity@@@std@@YA?AU_Undefined_move_tag@0@ABQAPAVCvCity@@@Z PROC ; std::_Move_cat<CvCity * *>, COMDAT

; 1200 : 	{

	push	ecx

; 1201 : 		typename _Move_operation_category<typename iterator_traits<_Iter>::value_type>::_Move_cat _Cat;
; 1202 : 		return (_Cat);

	mov	al, BYTE PTR __Cat$[esp+4]

; 1203 : 	}

	pop	ecx
	ret	0
??$_Move_cat@PAPAVCvCity@@@std@@YA?AU_Undefined_move_tag@0@ABQAPAVCvCity@@@Z ENDP ; std::_Move_cat<CvCity * *>
_TEXT	ENDS
PUBLIC	??$_Move_cat@PAUTRSortElement@@@std@@YA?AU_Undefined_move_tag@0@ABQAUTRSortElement@@@Z ; std::_Move_cat<TRSortElement *>
; Function compile flags: /Ogtpy
;	COMDAT ??$_Move_cat@PAUTRSortElement@@@std@@YA?AU_Undefined_move_tag@0@ABQAUTRSortElement@@@Z
_TEXT	SEGMENT
__Cat$ = -1						; size = 1
___formal$ = 8						; size = 4
??$_Move_cat@PAUTRSortElement@@@std@@YA?AU_Undefined_move_tag@0@ABQAUTRSortElement@@@Z PROC ; std::_Move_cat<TRSortElement *>, COMDAT

; 1200 : 	{

	push	ecx

; 1201 : 		typename _Move_operation_category<typename iterator_traits<_Iter>::value_type>::_Move_cat _Cat;
; 1202 : 		return (_Cat);

	mov	al, BYTE PTR __Cat$[esp+4]

; 1203 : 	}

	pop	ecx
	ret	0
??$_Move_cat@PAUTRSortElement@@@std@@YA?AU_Undefined_move_tag@0@ABQAUTRSortElement@@@Z ENDP ; std::_Move_cat<TRSortElement *>
_TEXT	ENDS
PUBLIC	??0?$_Temp_iterator@UTRSortElement@@@std@@QAE@H@Z ; std::_Temp_iterator<TRSortElement>::_Temp_iterator<TRSortElement>
; Function compile flags: /Ogtpy
; File c:\program files (x86)\microsoft visual studio 9.0\vc\include\memory
;	COMDAT ??0?$_Temp_iterator@UTRSortElement@@@std@@QAE@H@Z
_TEXT	SEGMENT
__Count$ = 8						; size = 4
??0?$_Temp_iterator@UTRSortElement@@@std@@QAE@H@Z PROC	; std::_Temp_iterator<TRSortElement>::_Temp_iterator<TRSortElement>, COMDAT
; _this$ = ecx

; 526  : 	_Temp_iterator(_PDFT _Count = 0)

	mov	eax, ecx

; 527  : 		{	// construct from desired temporary buffer size
; 528  : 		_Buf._Begin = 0;

	xor	ecx, ecx
	mov	DWORD PTR [eax], ecx

; 529  : 		_Buf._Current = 0;

	mov	DWORD PTR [eax+4], ecx

; 530  : 		_Buf._Hiwater = 0;

	mov	DWORD PTR [eax+8], ecx

; 531  : 		_Buf._Size = _Count;	// memorize size for lazy allocation

	mov	ecx, DWORD PTR __Count$[esp-4]
	mov	DWORD PTR [eax+12], ecx

; 532  : 		_Pbuf = &_Buf;

	mov	DWORD PTR [eax+16], eax

; 533  : 		}

	ret	4
??0?$_Temp_iterator@UTRSortElement@@@std@@QAE@H@Z ENDP	; std::_Temp_iterator<TRSortElement>::_Temp_iterator<TRSortElement>
_TEXT	ENDS
PUBLIC	??$_Ptr_cat@V?$_Vector_const_iterator@HV?$allocator@H@std@@@std@@PAH@std@@YA?AU_Nonscalar_ptr_iterator_tag@0@AAV?$_Vector_const_iterator@HV?$allocator@H@std@@@0@AAPAH@Z ; std::_Ptr_cat<std::_Vector_const_iterator<int,std::allocator<int> >,int *>
; Function compile flags: /Ogtpy
; File c:\program files (x86)\microsoft visual studio 9.0\vc\include\xutility
;	COMDAT ??$_Ptr_cat@V?$_Vector_const_iterator@HV?$allocator@H@std@@@std@@PAH@std@@YA?AU_Nonscalar_ptr_iterator_tag@0@AAV?$_Vector_const_iterator@HV?$allocator@H@std@@@0@AAPAH@Z
_TEXT	SEGMENT
__Cat$ = -1						; size = 1
___formal$ = 8						; size = 4
___formal$ = 12						; size = 4
??$_Ptr_cat@V?$_Vector_const_iterator@HV?$allocator@H@std@@@std@@PAH@std@@YA?AU_Nonscalar_ptr_iterator_tag@0@AAV?$_Vector_const_iterator@HV?$allocator@H@std@@@0@AAPAH@Z PROC ; std::_Ptr_cat<std::_Vector_const_iterator<int,std::allocator<int> >,int *>, COMDAT

; 1509 : 	{

	push	ecx

; 1510 : 	typename _Ptr_cat_helper<_T1, _T2>::_Ptr_cat _Cat;
; 1511 : 	return (_Cat);

	mov	al, BYTE PTR __Cat$[esp+4]

; 1512 : 	}

	pop	ecx
	ret	0
??$_Ptr_cat@V?$_Vector_const_iterator@HV?$allocator@H@std@@@std@@PAH@std@@YA?AU_Nonscalar_ptr_iterator_tag@0@AAV?$_Vector_const_iterator@HV?$allocator@H@std@@@0@AAPAH@Z ENDP ; std::_Ptr_cat<std::_Vector_const_iterator<int,std::allocator<int> >,int *>
_TEXT	ENDS
PUBLIC	??$_Ptr_cat@V?$_Vector_const_iterator@VCvString@@V?$allocator@VCvString@@@std@@@std@@PAVCvString@@@std@@YA?AU_Nonscalar_ptr_iterator_tag@0@AAV?$_Vector_const_iterator@VCvString@@V?$allocator@VCvString@@@std@@@0@AAPAVCvString@@@Z ; std::_Ptr_cat<std::_Vector_const_iterator<CvString,std::allocator<CvString> >,CvString *>
; Function compile flags: /Ogtpy
;	COMDAT ??$_Ptr_cat@V?$_Vector_const_iterator@VCvString@@V?$allocator@VCvString@@@std@@@std@@PAVCvString@@@std@@YA?AU_Nonscalar_ptr_iterator_tag@0@AAV?$_Vector_const_iterator@VCvString@@V?$allocator@VCvString@@@std@@@0@AAPAVCvString@@@Z
_TEXT	SEGMENT
__Cat$ = -1						; size = 1
___formal$ = 8						; size = 4
___formal$ = 12						; size = 4
??$_Ptr_cat@V?$_Vector_const_iterator@VCvString@@V?$allocator@VCvString@@@std@@@std@@PAVCvString@@@std@@YA?AU_Nonscalar_ptr_iterator_tag@0@AAV?$_Vector_const_iterator@VCvString@@V?$allocator@VCvString@@@std@@@0@AAPAVCvString@@@Z PROC ; std::_Ptr_cat<std::_Vector_const_iterator<CvString,std::allocator<CvString> >,CvString *>, COMDAT

; 1509 : 	{

	push	ecx

; 1510 : 	typename _Ptr_cat_helper<_T1, _T2>::_Ptr_cat _Cat;
; 1511 : 	return (_Cat);

	mov	al, BYTE PTR __Cat$[esp+4]

; 1512 : 	}

	pop	ecx
	ret	0
??$_Ptr_cat@V?$_Vector_const_iterator@VCvString@@V?$allocator@VCvString@@@std@@@std@@PAVCvString@@@std@@YA?AU_Nonscalar_ptr_iterator_tag@0@AAV?$_Vector_const_iterator@VCvString@@V?$allocator@VCvString@@@std@@@0@AAPAVCvString@@@Z ENDP ; std::_Ptr_cat<std::_Vector_const_iterator<CvString,std::allocator<CvString> >,CvString *>
_TEXT	ENDS
PUBLIC	??$_Ptr_cat@V?$_Vector_const_iterator@PAVCvCity@@V?$allocator@PAVCvCity@@@std@@@std@@PAPAVCvCity@@@std@@YA?AU_Nonscalar_ptr_iterator_tag@0@AAV?$_Vector_const_iterator@PAVCvCity@@V?$allocator@PAVCvCity@@@std@@@0@AAPAPAVCvCity@@@Z ; std::_Ptr_cat<std::_Vector_const_iterator<CvCity *,std::allocator<CvCity *> >,CvCity * *>
; Function compile flags: /Ogtpy
;	COMDAT ??$_Ptr_cat@V?$_Vector_const_iterator@PAVCvCity@@V?$allocator@PAVCvCity@@@std@@@std@@PAPAVCvCity@@@std@@YA?AU_Nonscalar_ptr_iterator_tag@0@AAV?$_Vector_const_iterator@PAVCvCity@@V?$allocator@PAVCvCity@@@std@@@0@AAPAPAVCvCity@@@Z
_TEXT	SEGMENT
__Cat$ = -1						; size = 1
___formal$ = 8						; size = 4
___formal$ = 12						; size = 4
??$_Ptr_cat@V?$_Vector_const_iterator@PAVCvCity@@V?$allocator@PAVCvCity@@@std@@@std@@PAPAVCvCity@@@std@@YA?AU_Nonscalar_ptr_iterator_tag@0@AAV?$_Vector_const_iterator@PAVCvCity@@V?$allocator@PAVCvCity@@@std@@@0@AAPAPAVCvCity@@@Z PROC ; std::_Ptr_cat<std::_Vector_const_iterator<CvCity *,std::allocator<CvCity *> >,CvCity * *>, COMDAT

; 1509 : 	{

	push	ecx

; 1510 : 	typename _Ptr_cat_helper<_T1, _T2>::_Ptr_cat _Cat;
; 1511 : 	return (_Cat);

	mov	al, BYTE PTR __Cat$[esp+4]

; 1512 : 	}

	pop	ecx
	ret	0
??$_Ptr_cat@V?$_Vector_const_iterator@PAVCvCity@@V?$allocator@PAVCvCity@@@std@@@std@@PAPAVCvCity@@@std@@YA?AU_Nonscalar_ptr_iterator_tag@0@AAV?$_Vector_const_iterator@PAVCvCity@@V?$allocator@PAVCvCity@@@std@@@0@AAPAPAVCvCity@@@Z ENDP ; std::_Ptr_cat<std::_Vector_const_iterator<CvCity *,std::allocator<CvCity *> >,CvCity * *>
_TEXT	ENDS
PUBLIC	??$_Copy_backward_opt@PAPAVCvCity@@PAPAV1@Urandom_access_iterator_tag@std@@@std@@YAPAPAVCvCity@@PAPAV1@00Urandom_access_iterator_tag@0@U_Scalar_ptr_iterator_tag@0@U_Range_checked_iterator_tag@0@@Z ; std::_Copy_backward_opt<CvCity * *,CvCity * *,std::random_access_iterator_tag>
EXTRN	__imp__memmove_s:PROC
; Function compile flags: /Ogtpy
;	COMDAT ??$_Copy_backward_opt@PAPAVCvCity@@PAPAV1@Urandom_access_iterator_tag@std@@@std@@YAPAPAVCvCity@@PAPAV1@00Urandom_access_iterator_tag@0@U_Scalar_ptr_iterator_tag@0@U_Range_checked_iterator_tag@0@@Z
_TEXT	SEGMENT
__First$ = 8						; size = 4
__Last$ = 12						; size = 4
__Dest$ = 16						; size = 4
___formal$ = 20						; size = 1
___formal$ = 24						; size = 1
___formal$ = 28						; size = 1
??$_Copy_backward_opt@PAPAVCvCity@@PAPAV1@Urandom_access_iterator_tag@std@@@std@@YAPAPAVCvCity@@PAPAV1@00Urandom_access_iterator_tag@0@U_Scalar_ptr_iterator_tag@0@U_Range_checked_iterator_tag@0@@Z PROC ; std::_Copy_backward_opt<CvCity * *,CvCity * *,std::random_access_iterator_tag>, COMDAT

; 2699 : 
; 2700 :  #if _HAS_ITERATOR_DEBUGGING
; 2701 : 	_DEBUG_RANGE(_First, _Last);
; 2702 : 	if (_First != _Last)
; 2703 : 		_DEBUG_POINTER(_Dest);
; 2704 :  #endif /* _HAS_ITERATOR_DEBUGGING */
; 2705 : 
; 2706 : 	ptrdiff_t _Off = _Last - _First;	// NB: non-overlapping move

	mov	eax, DWORD PTR __Last$[esp-4]
	mov	edx, DWORD PTR __First$[esp-4]
	sub	eax, edx
	sar	eax, 2
	push	esi

; 2707 : 	/* if _OutIt is range checked, this will make sure there is enough space for 
; 2708 : 	 * the memmove
; 2709 : 	 */
; 2710 : 	_OutIt _Result = _Dest - _Off;

	mov	esi, DWORD PTR __Dest$[esp]
	lea	ecx, DWORD PTR [eax*4]
	sub	esi, ecx

; 2711 : 	if (_Off > 0)

	test	eax, eax
	jle	SHORT $LN4@Copy_backw

; 2712 : 		_CRT_SECURE_MEMMOVE(&*_Result, _Off * sizeof (*_First), &*_First, _Off * sizeof (*_First));

	push	ecx
	push	edx
	push	ecx
	push	esi
	call	DWORD PTR __imp__memmove_s
	add	esp, 16					; 00000010H
$LN4@Copy_backw:

; 2713 : 	return _Result;

	mov	eax, esi
	pop	esi

; 2714 : 	}

	ret	0
??$_Copy_backward_opt@PAPAVCvCity@@PAPAV1@Urandom_access_iterator_tag@std@@@std@@YAPAPAVCvCity@@PAPAV1@00Urandom_access_iterator_tag@0@U_Scalar_ptr_iterator_tag@0@U_Range_checked_iterator_tag@0@@Z ENDP ; std::_Copy_backward_opt<CvCity * *,CvCity * *,std::random_access_iterator_tag>
_TEXT	ENDS
PUBLIC	??$return_temporary_buffer@UTRSortElement@@@std@@YAXPAUTRSortElement@@@Z ; std::return_temporary_buffer<TRSortElement>
; Function compile flags: /Ogtpy
; File c:\program files (x86)\microsoft visual studio 9.0\vc\include\memory
;	COMDAT ??$return_temporary_buffer@UTRSortElement@@@std@@YAXPAUTRSortElement@@@Z
_TEXT	SEGMENT
__Pbuf$ = 8						; size = 4
??$return_temporary_buffer@UTRSortElement@@@std@@YAXPAUTRSortElement@@@Z PROC ; std::return_temporary_buffer<TRSortElement>, COMDAT

; 39   : 	operator delete(_Pbuf);

	jmp	??3@YAXPAX@Z				; operator delete
??$return_temporary_buffer@UTRSortElement@@@std@@YAXPAUTRSortElement@@@Z ENDP ; std::return_temporary_buffer<TRSortElement>
_TEXT	ENDS
PUBLIC	??0CvString@@QAE@XZ				; CvString::CvString
EXTRN	__imp_??0?$basic_string@DU?$char_traits@D@std@@V?$allocator@D@2@@std@@QAE@XZ:PROC
; Function compile flags: /Ogtpy
; File c:\users\enormousapplepie\documents\github\lekmod\lekmod_dll\cvgamecoredllutil\include\cvstring.h
;	COMDAT ??0CvString@@QAE@XZ
_TEXT	SEGMENT
??0CvString@@QAE@XZ PROC				; CvString::CvString, COMDAT
; _this$ = ecx

; 23   : 	CvString() {}

	push	esi
	mov	esi, ecx
	call	DWORD PTR __imp_??0?$basic_string@DU?$char_traits@D@std@@V?$allocator@D@2@@std@@QAE@XZ
	mov	eax, esi
	pop	esi
	ret	0
??0CvString@@QAE@XZ ENDP				; CvString::CvString
_TEXT	ENDS
PUBLIC	??_C@_00CNPNBAHC@?$AA@				; `string'
PUBLIC	??0CvString@@QAE@PBD@Z				; CvString::CvString
;	COMDAT ??_C@_00CNPNBAHC@?$AA@
CONST	SEGMENT
??_C@_00CNPNBAHC@?$AA@ DB 00H				; `string'
; Function compile flags: /Ogtpy
CONST	ENDS
;	COMDAT ??0CvString@@QAE@PBD@Z
_TEXT	SEGMENT
_s$ = 8							; size = 4
??0CvString@@QAE@PBD@Z PROC				; CvString::CvString, COMDAT
; _this$ = ecx

; 25   : 	CvString(const char* s) : std::string(s ? s : "") {CvAssertMsg(s != NULL, "Passing NULL to std::string; possible heap corruption!");}

	mov	eax, DWORD PTR _s$[esp-4]
	push	esi
	mov	esi, ecx
	test	eax, eax
	jne	SHORT $LN4@CvString
	mov	eax, OFFSET ??_C@_00CNPNBAHC@?$AA@
$LN4@CvString:
	push	eax
	call	DWORD PTR __imp_??0?$basic_string@DU?$char_traits@D@std@@V?$allocator@D@2@@std@@QAE@PBD@Z
	mov	eax, esi
	pop	esi
	ret	4
??0CvString@@QAE@PBD@Z ENDP				; CvString::CvString
_TEXT	ENDS
PUBLIC	??D?$_Vector_const_iterator@VCvString@@V?$allocator@VCvString@@@std@@@std@@QBEABVCvString@@XZ ; std::_Vector_const_iterator<CvString,std::allocator<CvString> >::operator*
; Function compile flags: /Ogtpy
; File c:\program files (x86)\microsoft visual studio 9.0\vc\include\vector
;	COMDAT ??D?$_Vector_const_iterator@VCvString@@V?$allocator@VCvString@@@std@@@std@@QBEABVCvString@@XZ
_TEXT	SEGMENT
??D?$_Vector_const_iterator@VCvString@@V?$allocator@VCvString@@@std@@@std@@QBEABVCvString@@XZ PROC ; std::_Vector_const_iterator<CvString,std::allocator<CvString> >::operator*, COMDAT
; _this$ = ecx

; 92   : 
; 93   :  #if _HAS_ITERATOR_DEBUGGING
; 94   : 		if (this->_Mycont == 0
; 95   : 			|| _Myptr < ((_Myvec *)this->_Mycont)->_Myfirst
; 96   : 			|| ((_Myvec *)this->_Mycont)->_Mylast <= _Myptr)
; 97   : 			{
; 98   : 			_DEBUG_ERROR("vector iterator not dereferencable");
; 99   : 			_SCL_SECURE_OUT_OF_RANGE;
; 100  : 			}
; 101  :  #else
; 102  :  		_SCL_SECURE_VALIDATE(this->_Has_container());
; 103  : 		_SCL_SECURE_VALIDATE_RANGE(_Myptr < ((_Myvec *)(this->_Getmycont()))->_Mylast);
; 104  :  #endif /* _HAS_ITERATOR_DEBUGGING */
; 105  : 
; 106  : 		return (*_Myptr);

	mov	eax, DWORD PTR [ecx]

; 107  : 		}

	ret	0
??D?$_Vector_const_iterator@VCvString@@V?$allocator@VCvString@@@std@@@std@@QBEABVCvString@@XZ ENDP ; std::_Vector_const_iterator<CvString,std::allocator<CvString> >::operator*
_TEXT	ENDS
PUBLIC	??E?$_Vector_const_iterator@VCvString@@V?$allocator@VCvString@@@std@@@std@@QAEAAV01@XZ ; std::_Vector_const_iterator<CvString,std::allocator<CvString> >::operator++
; Function compile flags: /Ogtpy
;	COMDAT ??E?$_Vector_const_iterator@VCvString@@V?$allocator@VCvString@@@std@@@std@@QAEAAV01@XZ
_TEXT	SEGMENT
??E?$_Vector_const_iterator@VCvString@@V?$allocator@VCvString@@@std@@@std@@QAEAAV01@XZ PROC ; std::_Vector_const_iterator<CvString,std::allocator<CvString> >::operator++, COMDAT
; _this$ = ecx

; 115  : 		{	// preincrement

	mov	eax, ecx

; 116  : 		_SCL_SECURE_VALIDATE(this->_Has_container());
; 117  : 		_SCL_SECURE_VALIDATE_RANGE(_Myptr < ((_Myvec *)(this->_Getmycont()))->_Mylast);
; 118  : 
; 119  :  #if _HAS_ITERATOR_DEBUGGING
; 120  : 		if (this->_Mycont == 0
; 121  : 			|| ((_Myvec *)this->_Mycont)->_Mylast <= _Myptr)
; 122  : 			_DEBUG_ERROR("vector iterator not incrementable");
; 123  :  #endif /* _HAS_ITERATOR_DEBUGGING */
; 124  : 
; 125  : 		++_Myptr;

	add	DWORD PTR [eax], 28			; 0000001cH

; 126  : 		return (*this);
; 127  : 		}

	ret	0
??E?$_Vector_const_iterator@VCvString@@V?$allocator@VCvString@@@std@@@std@@QAEAAV01@XZ ENDP ; std::_Vector_const_iterator<CvString,std::allocator<CvString> >::operator++
_TEXT	ENDS
PUBLIC	??1CvString@@QAE@XZ				; CvString::~CvString
; Function compile flags: /Ogtpy
; File c:\users\enormousapplepie\documents\github\lekmod\lekmod_dll\cvgamecoredllutil\include\cvstring.h
;	COMDAT ??1CvString@@QAE@XZ
_TEXT	SEGMENT
??1CvString@@QAE@XZ PROC				; CvString::~CvString, COMDAT
; _this$ = ecx

; 28   : 	~CvString() {}

	jmp	DWORD PTR __imp_??1?$basic_string@DU?$char_traits@D@std@@V?$allocator@D@2@@std@@QAE@XZ
??1CvString@@QAE@XZ ENDP				; CvString::~CvString
_TEXT	ENDS
PUBLIC	??BCvString@@QBEPBDXZ				; CvString::operator char const *
; Function compile flags: /Ogtpy
;	COMDAT ??BCvString@@QBEPBDXZ
_TEXT	SEGMENT
??BCvString@@QBEPBDXZ PROC				; CvString::operator char const *, COMDAT
; _this$ = ecx

; 31   : 	operator const char*() const 	{ return c_str(); }												

	jmp	DWORD PTR __imp_?c_str@?$basic_string@DU?$char_traits@D@std@@V?$allocator@D@2@@std@@QBEPBDXZ
??BCvString@@QBEPBDXZ ENDP				; CvString::operator char const *
_TEXT	ENDS
PUBLIC	??8?$_Vector_const_iterator@VCvString@@V?$allocator@VCvString@@@std@@@std@@QBE_NABV01@@Z ; std::_Vector_const_iterator<CvString,std::allocator<CvString> >::operator==
; Function compile flags: /Ogtpy
; File c:\program files (x86)\microsoft visual studio 9.0\vc\include\vector
;	COMDAT ??8?$_Vector_const_iterator@VCvString@@V?$allocator@VCvString@@@std@@@std@@QBE_NABV01@@Z
_TEXT	SEGMENT
__Right$ = 8						; size = 4
??8?$_Vector_const_iterator@VCvString@@V?$allocator@VCvString@@@std@@@std@@QBE_NABV01@@Z PROC ; std::_Vector_const_iterator<CvString,std::allocator<CvString> >::operator==, COMDAT
; _this$ = ecx

; 204  : 
; 205  :  #if _HAS_ITERATOR_DEBUGGING
; 206  : 		_Compat(_Right);
; 207  :  #else
; 208  : 		_SCL_SECURE_VALIDATE(this->_Has_container() && this->_Same_container(_Right));
; 209  :  #endif /* _HAS_ITERATOR_DEBUGGING */
; 210  : 
; 211  : 		return (_Myptr == _Right._Myptr);

	mov	eax, DWORD PTR [ecx]
	mov	edx, DWORD PTR __Right$[esp-4]
	xor	ecx, ecx
	cmp	eax, DWORD PTR [edx]
	sete	cl
	mov	al, cl

; 212  : 		}

	ret	4
??8?$_Vector_const_iterator@VCvString@@V?$allocator@VCvString@@@std@@@std@@QBE_NABV01@@Z ENDP ; std::_Vector_const_iterator<CvString,std::allocator<CvString> >::operator==
_TEXT	ENDS
PUBLIC	??$_Iter_cat@V?$_Vector_iterator@UTRSortElement@@V?$allocator@UTRSortElement@@@std@@@std@@@std@@YA?AUrandom_access_iterator_tag@0@ABV?$_Vector_iterator@UTRSortElement@@V?$allocator@UTRSortElement@@@std@@@0@@Z ; std::_Iter_cat<std::_Vector_iterator<TRSortElement,std::allocator<TRSortElement> > >
; Function compile flags: /Ogtpy
; File c:\program files (x86)\microsoft visual studio 9.0\vc\include\xutility
;	COMDAT ??$_Iter_cat@V?$_Vector_iterator@UTRSortElement@@V?$allocator@UTRSortElement@@@std@@@std@@@std@@YA?AUrandom_access_iterator_tag@0@ABV?$_Vector_iterator@UTRSortElement@@V?$allocator@UTRSortElement@@@std@@@0@@Z
_TEXT	SEGMENT
___$ReturnUdt$ = 8					; size = 4
___formal$ = 12						; size = 4
??$_Iter_cat@V?$_Vector_iterator@UTRSortElement@@V?$allocator@UTRSortElement@@@std@@@std@@@std@@YA?AUrandom_access_iterator_tag@0@ABV?$_Vector_iterator@UTRSortElement@@V?$allocator@UTRSortElement@@@std@@@0@@Z PROC ; std::_Iter_cat<std::_Vector_iterator<TRSortElement,std::allocator<TRSortElement> > >, COMDAT

; 953  : 	typename iterator_traits<_Iter>::iterator_category _Cat;
; 954  : 	return (_Cat);

	mov	eax, DWORD PTR ___$ReturnUdt$[esp-4]

; 955  : 	}

	ret	0
??$_Iter_cat@V?$_Vector_iterator@UTRSortElement@@V?$allocator@UTRSortElement@@@std@@@std@@@std@@YA?AUrandom_access_iterator_tag@0@ABV?$_Vector_iterator@UTRSortElement@@V?$allocator@UTRSortElement@@@std@@@0@@Z ENDP ; std::_Iter_cat<std::_Vector_iterator<TRSortElement,std::allocator<TRSortElement> > >
_TEXT	ENDS
PUBLIC	??4CvString@@QAEAAV0@PBD@Z			; CvString::operator=
EXTRN	__imp_?clear@?$basic_string@DU?$char_traits@D@std@@V?$allocator@D@2@@std@@QAEXXZ:PROC
EXTRN	__imp_?assign@?$basic_string@DU?$char_traits@D@std@@V?$allocator@D@2@@std@@QAEAAV12@PBD@Z:PROC
; Function compile flags: /Ogtpy
; File c:\users\enormousapplepie\documents\github\lekmod\lekmod_dll\cvgamecoredllutil\include\cvstring.h
;	COMDAT ??4CvString@@QAEAAV0@PBD@Z
_TEXT	SEGMENT
_s$ = 8							; size = 4
??4CvString@@QAEAAV0@PBD@Z PROC				; CvString::operator=, COMDAT
; _this$ = ecx

; 37   : 	CvString& operator=( const char* s) { if (s) assign(s); else clear();	return *this; }	

	mov	eax, DWORD PTR _s$[esp-4]
	push	esi
	mov	esi, ecx
	test	eax, eax
	je	SHORT $LN2@operator
	push	eax
	call	DWORD PTR __imp_?assign@?$basic_string@DU?$char_traits@D@std@@V?$allocator@D@2@@std@@QAEAAV12@PBD@Z
	mov	eax, esi
	pop	esi
	ret	4
$LN2@operator:
	call	DWORD PTR __imp_?clear@?$basic_string@DU?$char_traits@D@std@@V?$allocator@D@2@@std@@QAEXXZ
	mov	eax, esi
	pop	esi
	ret	4
??4CvString@@QAEAAV0@PBD@Z ENDP				; CvString::operator=
_TEXT	ENDS
PUBLIC	??4CvString@@QAEAAV0@ABV?$basic_string@DU?$char_traits@D@std@@V?$allocator@D@2@@std@@@Z ; CvString::operator=
; Function compile flags: /Ogtpy
;	COMDAT ??4CvString@@QAEAAV0@ABV?$basic_string@DU?$char_traits@D@std@@V?$allocator@D@2@@std@@@Z
_TEXT	SEGMENT
_s$ = 8							; size = 4
??4CvString@@QAEAAV0@ABV?$basic_string@DU?$char_traits@D@std@@V?$allocator@D@2@@std@@@Z PROC ; CvString::operator=, COMDAT
; _this$ = ecx

; 38   : 	CvString& operator=( const std::string& s) { assign(s.c_str());	return *this; }	

	push	esi
	mov	esi, ecx
	mov	ecx, DWORD PTR _s$[esp]
	call	DWORD PTR __imp_?c_str@?$basic_string@DU?$char_traits@D@std@@V?$allocator@D@2@@std@@QBEPBDXZ
	push	eax
	mov	ecx, esi
	call	DWORD PTR __imp_?assign@?$basic_string@DU?$char_traits@D@std@@V?$allocator@D@2@@std@@QAEAAV12@PBD@Z
	mov	eax, esi
	pop	esi
	ret	4
??4CvString@@QAEAAV0@ABV?$basic_string@DU?$char_traits@D@std@@V?$allocator@D@2@@std@@@Z ENDP ; CvString::operator=
_TEXT	ENDS
PUBLIC	??$_Iter_cat@PAPAVCvCity@@@std@@YA?AUrandom_access_iterator_tag@0@ABQAPAVCvCity@@@Z ; std::_Iter_cat<CvCity * *>
; Function compile flags: /Ogtpy
; File c:\program files (x86)\microsoft visual studio 9.0\vc\include\xutility
;	COMDAT ??$_Iter_cat@PAPAVCvCity@@@std@@YA?AUrandom_access_iterator_tag@0@ABQAPAVCvCity@@@Z
_TEXT	SEGMENT
___$ReturnUdt$ = 8					; size = 4
___formal$ = 12						; size = 4
??$_Iter_cat@PAPAVCvCity@@@std@@YA?AUrandom_access_iterator_tag@0@ABQAPAVCvCity@@@Z PROC ; std::_Iter_cat<CvCity * *>, COMDAT

; 953  : 	typename iterator_traits<_Iter>::iterator_category _Cat;
; 954  : 	return (_Cat);

	mov	eax, DWORD PTR ___$ReturnUdt$[esp-4]

; 955  : 	}

	ret	0
??$_Iter_cat@PAPAVCvCity@@@std@@YA?AUrandom_access_iterator_tag@0@ABQAPAVCvCity@@@Z ENDP ; std::_Iter_cat<CvCity * *>
_TEXT	ENDS
PUBLIC	?formatv@CvString@@SA_NAAV?$basic_string@DU?$char_traits@D@std@@V?$allocator@D@2@@std@@PBDPAD@Z ; CvString::formatv
EXTRN	__imp_??4?$basic_string@DU?$char_traits@D@std@@V?$allocator@D@2@@std@@QAEAAV01@PBD@Z:PROC
EXTRN	??_U@YAPAXI@Z:PROC				; operator new[]
EXTRN	??_V@YAXPAX@Z:PROC				; operator delete[]
EXTRN	__imp___vsnprintf:PROC
; Function compile flags: /Ogtpy
; File c:\users\enormousapplepie\documents\github\lekmod\lekmod_dll\cvgamecoredllutil\include\cvstring.h
;	COMDAT ?formatv@CvString@@SA_NAAV?$basic_string@DU?$char_traits@D@std@@V?$allocator@D@2@@std@@PBDPAD@Z
_TEXT	SEGMENT
_buf$ = -2048						; size = 2048
_out$ = 8						; size = 4
_fmt$ = 12						; size = 4
_args$ = 16						; size = 4
?formatv@CvString@@SA_NAAV?$basic_string@DU?$char_traits@D@std@@V?$allocator@D@2@@std@@PBDPAD@Z PROC ; CvString::formatv, COMDAT

; 191  : {

	sub	esp, 2048				; 00000800H
	push	ebx
	push	ebp

; 192  : 	char buf[2048];
; 193  : 	char * pbuf = buf;

	mov	ebp, DWORD PTR _args$[esp+2052]
	push	esi
	push	edi
	lea	edi, DWORD PTR _buf$[esp+2064]
	mov	esi, 2047				; 000007ffH
	npad	6
$LL10@formatv:

; 194  : 	int len = 0;
; 195  : 	int attempts = 0;
; 196  : 	bool success = false;
; 197  : 	const int kMaxAttempts = 40;
; 198  : 
; 199  : 	do
; 200  : 	{
; 201  : 		int maxlen = 2047+2048*attempts;
; 202  : 		len = _vsnprintf(pbuf,maxlen,fmt,args);

	mov	eax, DWORD PTR _fmt$[esp+2060]
	push	ebp
	push	eax
	push	esi
	push	edi
	mov	ebx, esi
	call	DWORD PTR __imp___vsnprintf
	add	esp, 16					; 00000010H

; 203  : 		attempts++;

	add	esi, 2048				; 00000800H

; 204  : 		success = (len>=0 && len<=maxlen);

	test	eax, eax
	jl	SHORT $LN13@formatv
	cmp	eax, ebx
	jle	SHORT $LN18@formatv
$LN13@formatv:

; 205  : 		if (!success)
; 206  : 		{
; 207  : 			if (pbuf!=buf)

	lea	ecx, DWORD PTR _buf$[esp+2064]
	xor	bl, bl
	cmp	edi, ecx
	je	SHORT $LN6@formatv

; 208  : 				delete [] pbuf;

	push	edi
	call	??_V@YAXPAX@Z				; operator delete[]
	add	esp, 4
$LN6@formatv:

; 209  : 			pbuf = new char[2048+2048*attempts];

	lea	edx, DWORD PTR [esi+1]
	push	edx
	call	??_U@YAPAXI@Z				; operator new[]
	add	esp, 4

; 210  : 		}
; 211  : 	}
; 212  : 	while (!success && attempts<kMaxAttempts);

	cmp	esi, 83967				; 000147ffH
	mov	edi, eax
	jl	SHORT $LL10@formatv

; 222  : 		out = "";

	push	OFFSET ??_C@_00CNPNBAHC@?$AA@
$LN21@formatv:
	mov	ecx, DWORD PTR _out$[esp+2064]
	call	DWORD PTR __imp_??4?$basic_string@DU?$char_traits@D@std@@V?$allocator@D@2@@std@@QAEAAV01@PBD@Z

; 223  : 
; 224  : 	if (pbuf!=buf)

	lea	eax, DWORD PTR _buf$[esp+2064]
	cmp	edi, eax
	je	SHORT $LN20@formatv

; 225  : 		delete [] pbuf;

	push	edi
	call	??_V@YAXPAX@Z				; operator delete[]
	add	esp, 4
$LN20@formatv:
	pop	edi
	pop	esi
	pop	ebp

; 226  : 
; 227  : 	return success;

	mov	al, bl
	pop	ebx

; 228  : }

	add	esp, 2048				; 00000800H
	ret	0
$LN18@formatv:

; 204  : 		success = (len>=0 && len<=maxlen);

	mov	bl, 1

; 213  : 
; 214  : 	if ( attempts==kMaxAttempts )
; 215  : 	{
; 216  : 		// dxPrintNL( "CvString::formatv - Max reallocs occurred while formatting string. Result is likely truncated!", 0 );
; 217  : 	}
; 218  : 
; 219  : 	if (success)
; 220  : 		out = pbuf;

	push	edi

; 221  : 	else

	jmp	SHORT $LN21@formatv
?formatv@CvString@@SA_NAAV?$basic_string@DU?$char_traits@D@std@@V?$allocator@D@2@@std@@PBDPAD@Z ENDP ; CvString::formatv
_TEXT	ENDS
PUBLIC	??$_Construct@HH@std@@YAXPAHABH@Z		; std::_Construct<int,int>
; Function compile flags: /Ogtpy
; File c:\program files (x86)\microsoft visual studio 9.0\vc\include\xmemory
;	COMDAT ??$_Construct@HH@std@@YAXPAHABH@Z
_TEXT	SEGMENT
__Ptr$ = 8						; size = 4
__Val$ = 12						; size = 4
??$_Construct@HH@std@@YAXPAHABH@Z PROC			; std::_Construct<int,int>, COMDAT

; 51   : 	void _FARQ *_Vptr = _Ptr;
; 52   : 	::new (_Vptr) _T1(_Val);

	mov	eax, DWORD PTR __Ptr$[esp-4]
	test	eax, eax
	je	SHORT $LN3@Construct
	mov	ecx, DWORD PTR __Val$[esp-4]
	mov	edx, DWORD PTR [ecx]
	mov	DWORD PTR [eax], edx
$LN3@Construct:

; 53   : 	}

	ret	0
??$_Construct@HH@std@@YAXPAHABH@Z ENDP			; std::_Construct<int,int>
_TEXT	ENDS
PUBLIC	??$_Destroy@H@std@@YAXPAH@Z			; std::_Destroy<int>
; Function compile flags: /Ogtpy
;	COMDAT ??$_Destroy@H@std@@YAXPAH@Z
_TEXT	SEGMENT
__Ptr$ = 8						; size = 4
??$_Destroy@H@std@@YAXPAH@Z PROC			; std::_Destroy<int>, COMDAT

; 59   : 	_DESTRUCTOR(_Ty, _Ptr);
; 60   : 	}

	ret	0
??$_Destroy@H@std@@YAXPAH@Z ENDP			; std::_Destroy<int>
_TEXT	ENDS
PUBLIC	??$_Construct@PAVCvCity@@PAV1@@std@@YAXPAPAVCvCity@@ABQAV1@@Z ; std::_Construct<CvCity *,CvCity *>
; Function compile flags: /Ogtpy
;	COMDAT ??$_Construct@PAVCvCity@@PAV1@@std@@YAXPAPAVCvCity@@ABQAV1@@Z
_TEXT	SEGMENT
__Ptr$ = 8						; size = 4
__Val$ = 12						; size = 4
??$_Construct@PAVCvCity@@PAV1@@std@@YAXPAPAVCvCity@@ABQAV1@@Z PROC ; std::_Construct<CvCity *,CvCity *>, COMDAT

; 51   : 	void _FARQ *_Vptr = _Ptr;
; 52   : 	::new (_Vptr) _T1(_Val);

	mov	eax, DWORD PTR __Ptr$[esp-4]
	test	eax, eax
	je	SHORT $LN3@Construct@2
	mov	ecx, DWORD PTR __Val$[esp-4]
	mov	edx, DWORD PTR [ecx]
	mov	DWORD PTR [eax], edx
$LN3@Construct@2:

; 53   : 	}

	ret	0
??$_Construct@PAVCvCity@@PAV1@@std@@YAXPAPAVCvCity@@ABQAV1@@Z ENDP ; std::_Construct<CvCity *,CvCity *>
_TEXT	ENDS
PUBLIC	??$_Destroy@PAVCvCity@@@std@@YAXPAPAVCvCity@@@Z	; std::_Destroy<CvCity *>
; Function compile flags: /Ogtpy
;	COMDAT ??$_Destroy@PAVCvCity@@@std@@YAXPAPAVCvCity@@@Z
_TEXT	SEGMENT
__Ptr$ = 8						; size = 4
??$_Destroy@PAVCvCity@@@std@@YAXPAPAVCvCity@@@Z PROC	; std::_Destroy<CvCity *>, COMDAT

; 59   : 	_DESTRUCTOR(_Ty, _Ptr);
; 60   : 	}

	ret	0
??$_Destroy@PAVCvCity@@@std@@YAXPAPAVCvCity@@@Z ENDP	; std::_Destroy<CvCity *>
_TEXT	ENDS
PUBLIC	?Format@CvString@@QAAXPBDZZ			; CvString::Format
;	COMDAT xdata$x
; File c:\users\enormousapplepie\documents\github\lekmod\lekmod_dll\cvgamecoredllutil\include\cvstring.h
xdata$x	SEGMENT
__unwindtable$?Format@CvString@@QAAXPBDZZ DD 0ffffffffH
	DD	FLAT:__unwindfunclet$?Format@CvString@@QAAXPBDZZ$0
__ehfuncinfo$?Format@CvString@@QAAXPBDZZ DD 019930522H
	DD	01H
	DD	FLAT:__unwindtable$?Format@CvString@@QAAXPBDZZ
	DD	2 DUP(00H)
	DD	2 DUP(00H)
	DD	00H
	DD	01H
; Function compile flags: /Ogtpy
xdata$x	ENDS
;	COMDAT ?Format@CvString@@QAAXPBDZZ
_TEXT	SEGMENT
_result$ = -40						; size = 28
__$EHRec$ = -12						; size = 12
_this$ = 8						; size = 4
_lpszFormat$ = 12					; size = 4
?Format@CvString@@QAAXPBDZZ PROC			; CvString::Format, COMDAT

; 269  : {

	push	-1
	push	__ehhandler$?Format@CvString@@QAAXPBDZZ
	mov	eax, DWORD PTR fs:0
	push	eax
	mov	DWORD PTR fs:0, esp
	sub	esp, 28					; 0000001cH

; 270  : 	std::string result;

	lea	ecx, DWORD PTR _result$[esp+40]
	call	DWORD PTR __imp_??0?$basic_string@DU?$char_traits@D@std@@V?$allocator@D@2@@std@@QAE@XZ

; 271  : 	va_list args;
; 272  : 	va_start(args,lpszFormat);
; 273  : 	formatv(result,lpszFormat,args);

	mov	ecx, DWORD PTR _lpszFormat$[esp+36]
	lea	eax, DWORD PTR _lpszFormat$[esp+40]
	push	eax
	push	ecx
	lea	edx, DWORD PTR _result$[esp+48]
	push	edx
	mov	DWORD PTR __$EHRec$[esp+60], 0
	call	?formatv@CvString@@SA_NAAV?$basic_string@DU?$char_traits@D@std@@V?$allocator@D@2@@std@@PBDPAD@Z ; CvString::formatv
	add	esp, 12					; 0000000cH

; 274  : 	va_end(args);
; 275  : 	*this = result;

	lea	ecx, DWORD PTR _result$[esp+40]
	call	DWORD PTR __imp_?c_str@?$basic_string@DU?$char_traits@D@std@@V?$allocator@D@2@@std@@QBEPBDXZ
	mov	ecx, DWORD PTR _this$[esp+36]
	push	eax
	call	DWORD PTR __imp_?assign@?$basic_string@DU?$char_traits@D@std@@V?$allocator@D@2@@std@@QAEAAV12@PBD@Z

; 276  : }

	lea	ecx, DWORD PTR _result$[esp+40]
	mov	DWORD PTR __$EHRec$[esp+48], -1
	call	DWORD PTR __imp_??1?$basic_string@DU?$char_traits@D@std@@V?$allocator@D@2@@std@@QAE@XZ
	mov	ecx, DWORD PTR __$EHRec$[esp+40]
	mov	DWORD PTR fs:0, ecx
	add	esp, 40					; 00000028H
	ret	0
_TEXT	ENDS
;	COMDAT text$x
text$x	SEGMENT
__unwindfunclet$?Format@CvString@@QAAXPBDZZ$0:
	lea	ecx, DWORD PTR _result$[ebp]
	jmp	DWORD PTR __imp_??1?$basic_string@DU?$char_traits@D@std@@V?$allocator@D@2@@std@@QAE@XZ
__ehhandler$?Format@CvString@@QAAXPBDZZ:
	mov	eax, OFFSET __ehfuncinfo$?Format@CvString@@QAAXPBDZZ
	jmp	___CxxFrameHandler3
text$x	ENDS
?Format@CvString@@QAAXPBDZZ ENDP			; CvString::Format
PUBLIC	??G?$_Vector_iterator@UTRSortElement@@V?$allocator@UTRSortElement@@@std@@@std@@QBEHABV?$_Vector_const_iterator@UTRSortElement@@V?$allocator@UTRSortElement@@@std@@@1@@Z ; std::_Vector_iterator<TRSortElement,std::allocator<TRSortElement> >::operator-
; Function compile flags: /Ogtpy
; File c:\program files (x86)\microsoft visual studio 9.0\vc\include\vector
;	COMDAT ??G?$_Vector_iterator@UTRSortElement@@V?$allocator@UTRSortElement@@@std@@@std@@QBEHABV?$_Vector_const_iterator@UTRSortElement@@V?$allocator@UTRSortElement@@@std@@@1@@Z
_TEXT	SEGMENT
__Right$ = 8						; size = 4
??G?$_Vector_iterator@UTRSortElement@@V?$allocator@UTRSortElement@@@std@@@std@@QBEHABV?$_Vector_const_iterator@UTRSortElement@@V?$allocator@UTRSortElement@@@std@@@1@@Z PROC ; std::_Vector_iterator<TRSortElement,std::allocator<TRSortElement> >::operator-, COMDAT
; _this$ = ecx

; 398  : 		return (*(_Mybase *)this - _Right);

	mov	eax, DWORD PTR __Right$[esp-4]
	mov	ecx, DWORD PTR [ecx]
	sub	ecx, DWORD PTR [eax]
	mov	eax, -1840700269			; 92492493H
	imul	ecx
	add	edx, ecx
	sar	edx, 8
	mov	eax, edx
	shr	eax, 31					; 0000001fH
	add	eax, edx

; 399  : 		}

	ret	4
??G?$_Vector_iterator@UTRSortElement@@V?$allocator@UTRSortElement@@@std@@@std@@QBEHABV?$_Vector_const_iterator@UTRSortElement@@V?$allocator@UTRSortElement@@@std@@@1@@Z ENDP ; std::_Vector_iterator<TRSortElement,std::allocator<TRSortElement> >::operator-
_TEXT	ENDS
PUBLIC	?_Init@?$_Temp_iterator@UTRSortElement@@@std@@QAEAAV12@XZ ; std::_Temp_iterator<TRSortElement>::_Init
; Function compile flags: /Ogtpy
; File c:\program files (x86)\microsoft visual studio 9.0\vc\include\memory
;	COMDAT ?_Init@?$_Temp_iterator@UTRSortElement@@@std@@QAEAAV12@XZ
_TEXT	SEGMENT
?_Init@?$_Temp_iterator@UTRSortElement@@@std@@QAEAAV12@XZ PROC ; std::_Temp_iterator<TRSortElement>::_Init, COMDAT
; _this$ = ecx

; 591  : 		{	// set pointer at beginning of buffer

	mov	eax, ecx

; 592  : 		_Pbuf->_Current = _Pbuf->_Begin;

	mov	ecx, DWORD PTR [eax+16]
	mov	edx, DWORD PTR [ecx]
	mov	DWORD PTR [ecx+4], edx

; 593  : 		return (*this);
; 594  : 		}

	ret	0
?_Init@?$_Temp_iterator@UTRSortElement@@@std@@QAEAAV12@XZ ENDP ; std::_Temp_iterator<TRSortElement>::_Init
_TEXT	ENDS
PUBLIC	?_First@?$_Temp_iterator@UTRSortElement@@@std@@QBEPAUTRSortElement@@XZ ; std::_Temp_iterator<TRSortElement>::_First
; Function compile flags: /Ogtpy
;	COMDAT ?_First@?$_Temp_iterator@UTRSortElement@@@std@@QBEPAUTRSortElement@@XZ
_TEXT	SEGMENT
?_First@?$_Temp_iterator@UTRSortElement@@@std@@QBEPAUTRSortElement@@XZ PROC ; std::_Temp_iterator<TRSortElement>::_First, COMDAT
; _this$ = ecx

; 598  : 		return (_Pbuf->_Begin);

	mov	eax, DWORD PTR [ecx+16]
	mov	eax, DWORD PTR [eax]

; 599  : 		}

	ret	0
?_First@?$_Temp_iterator@UTRSortElement@@@std@@QBEPAUTRSortElement@@XZ ENDP ; std::_Temp_iterator<TRSortElement>::_First
_TEXT	ENDS
PUBLIC	?_Last@?$_Temp_iterator@UTRSortElement@@@std@@QBEPAUTRSortElement@@XZ ; std::_Temp_iterator<TRSortElement>::_Last
; Function compile flags: /Ogtpy
;	COMDAT ?_Last@?$_Temp_iterator@UTRSortElement@@@std@@QBEPAUTRSortElement@@XZ
_TEXT	SEGMENT
?_Last@?$_Temp_iterator@UTRSortElement@@@std@@QBEPAUTRSortElement@@XZ PROC ; std::_Temp_iterator<TRSortElement>::_Last, COMDAT
; _this$ = ecx

; 603  : 		return (_Pbuf->_Current);

	mov	eax, DWORD PTR [ecx+16]
	mov	eax, DWORD PTR [eax+4]

; 604  : 		}

	ret	0
?_Last@?$_Temp_iterator@UTRSortElement@@@std@@QBEPAUTRSortElement@@XZ ENDP ; std::_Temp_iterator<TRSortElement>::_Last
_TEXT	ENDS
PUBLIC	??0?$pair@PAUTRSortElement@@H@std@@QAE@ABQAUTRSortElement@@ABH@Z ; std::pair<TRSortElement *,int>::pair<TRSortElement *,int>
; Function compile flags: /Ogtpy
; File c:\program files (x86)\microsoft visual studio 9.0\vc\include\utility
;	COMDAT ??0?$pair@PAUTRSortElement@@H@std@@QAE@ABQAUTRSortElement@@ABH@Z
_TEXT	SEGMENT
__Val1$ = 8						; size = 4
__Val2$ = 12						; size = 4
??0?$pair@PAUTRSortElement@@H@std@@QAE@ABQAUTRSortElement@@ABH@Z PROC ; std::pair<TRSortElement *,int>::pair<TRSortElement *,int>, COMDAT
; _this$ = ecx

; 50   : 		{	// construct from specified values

	mov	eax, ecx
	mov	ecx, DWORD PTR __Val1$[esp-4]
	mov	edx, DWORD PTR [ecx]
	mov	ecx, DWORD PTR __Val2$[esp-4]
	mov	DWORD PTR [eax], edx
	mov	edx, DWORD PTR [ecx]
	mov	DWORD PTR [eax+4], edx

; 51   : 		}

	ret	8
??0?$pair@PAUTRSortElement@@H@std@@QAE@ABQAUTRSortElement@@ABH@Z ENDP ; std::pair<TRSortElement *,int>::pair<TRSortElement *,int>
_TEXT	ENDS
PUBLIC	??0?$_Vector_const_iterator@UTRSortElement@@V?$allocator@UTRSortElement@@@std@@@std@@QAE@XZ ; std::_Vector_const_iterator<TRSortElement,std::allocator<TRSortElement> >::_Vector_const_iterator<TRSortElement,std::allocator<TRSortElement> >
; Function compile flags: /Ogtpy
; File c:\program files (x86)\microsoft visual studio 9.0\vc\include\vector
;	COMDAT ??0?$_Vector_const_iterator@UTRSortElement@@V?$allocator@UTRSortElement@@@std@@@std@@QAE@XZ
_TEXT	SEGMENT
??0?$_Vector_const_iterator@UTRSortElement@@V?$allocator@UTRSortElement@@@std@@@std@@QAE@XZ PROC ; std::_Vector_const_iterator<TRSortElement,std::allocator<TRSortElement> >::_Vector_const_iterator<TRSortElement,std::allocator<TRSortElement> >, COMDAT
; _this$ = ecx

; 62   : 	_Vector_const_iterator()

	mov	eax, ecx

; 63   : 		{	// construct with null pointer
; 64   : 		_Myptr = 0;

	mov	DWORD PTR [eax], 0

; 65   : 		}

	ret	0
??0?$_Vector_const_iterator@UTRSortElement@@V?$allocator@UTRSortElement@@@std@@@std@@QAE@XZ ENDP ; std::_Vector_const_iterator<TRSortElement,std::allocator<TRSortElement> >::_Vector_const_iterator<TRSortElement,std::allocator<TRSortElement> >
_TEXT	ENDS
PUBLIC	??D?$_Vector_const_iterator@UTRSortElement@@V?$allocator@UTRSortElement@@@std@@@std@@QBEABUTRSortElement@@XZ ; std::_Vector_const_iterator<TRSortElement,std::allocator<TRSortElement> >::operator*
; Function compile flags: /Ogtpy
;	COMDAT ??D?$_Vector_const_iterator@UTRSortElement@@V?$allocator@UTRSortElement@@@std@@@std@@QBEABUTRSortElement@@XZ
_TEXT	SEGMENT
??D?$_Vector_const_iterator@UTRSortElement@@V?$allocator@UTRSortElement@@@std@@@std@@QBEABUTRSortElement@@XZ PROC ; std::_Vector_const_iterator<TRSortElement,std::allocator<TRSortElement> >::operator*, COMDAT
; _this$ = ecx

; 92   : 
; 93   :  #if _HAS_ITERATOR_DEBUGGING
; 94   : 		if (this->_Mycont == 0
; 95   : 			|| _Myptr < ((_Myvec *)this->_Mycont)->_Myfirst
; 96   : 			|| ((_Myvec *)this->_Mycont)->_Mylast <= _Myptr)
; 97   : 			{
; 98   : 			_DEBUG_ERROR("vector iterator not dereferencable");
; 99   : 			_SCL_SECURE_OUT_OF_RANGE;
; 100  : 			}
; 101  :  #else
; 102  :  		_SCL_SECURE_VALIDATE(this->_Has_container());
; 103  : 		_SCL_SECURE_VALIDATE_RANGE(_Myptr < ((_Myvec *)(this->_Getmycont()))->_Mylast);
; 104  :  #endif /* _HAS_ITERATOR_DEBUGGING */
; 105  : 
; 106  : 		return (*_Myptr);

	mov	eax, DWORD PTR [ecx]

; 107  : 		}

	ret	0
??D?$_Vector_const_iterator@UTRSortElement@@V?$allocator@UTRSortElement@@@std@@@std@@QBEABUTRSortElement@@XZ ENDP ; std::_Vector_const_iterator<TRSortElement,std::allocator<TRSortElement> >::operator*
_TEXT	ENDS
PUBLIC	??4?$_Temp_iterator@UTRSortElement@@@std@@QAEAAV01@ABV01@@Z ; std::_Temp_iterator<TRSortElement>::operator=
; Function compile flags: /Ogtpy
; File c:\program files (x86)\microsoft visual studio 9.0\vc\include\memory
;	COMDAT ??4?$_Temp_iterator@UTRSortElement@@@std@@QAEAAV01@ABV01@@Z
_TEXT	SEGMENT
__Right$ = 8						; size = 4
??4?$_Temp_iterator@UTRSortElement@@@std@@QAEAAV01@ABV01@@Z PROC ; std::_Temp_iterator<TRSortElement>::operator=, COMDAT
; _this$ = ecx

; 556  : 		{	// assign _Right (share active buffer)

	mov	eax, ecx

; 557  : 		_Pbuf = _Right._Pbuf;

	mov	ecx, DWORD PTR __Right$[esp-4]
	mov	edx, DWORD PTR [ecx+16]
	mov	DWORD PTR [eax+16], edx

; 558  : 		return (*this);
; 559  : 		}

	ret	4
??4?$_Temp_iterator@UTRSortElement@@@std@@QAEAAV01@ABV01@@Z ENDP ; std::_Temp_iterator<TRSortElement>::operator=
_TEXT	ENDS
PUBLIC	??$_Fill_n@PAPAVCvCity@@IPAV1@@std@@YAXPAPAVCvCity@@IABQAV1@U_Range_checked_iterator_tag@0@@Z ; std::_Fill_n<CvCity * *,unsigned int,CvCity *>
; Function compile flags: /Ogtpy
; File c:\program files (x86)\microsoft visual studio 9.0\vc\include\xutility
;	COMDAT ??$_Fill_n@PAPAVCvCity@@IPAV1@@std@@YAXPAPAVCvCity@@IABQAV1@U_Range_checked_iterator_tag@0@@Z
_TEXT	SEGMENT
__First$ = 8						; size = 4
__Count$ = 12						; size = 4
__Val$ = 16						; size = 4
___formal$ = 20						; size = 1
??$_Fill_n@PAPAVCvCity@@IPAV1@@std@@YAXPAPAVCvCity@@IABQAV1@U_Range_checked_iterator_tag@0@@Z PROC ; std::_Fill_n<CvCity * *,unsigned int,CvCity *>, COMDAT

; 3197 : 	for (; 0 < _Count; --_Count, ++_First)

	mov	eax, DWORD PTR __Count$[esp-4]
	test	eax, eax
	jbe	SHORT $LN1@Fill_n
	mov	edx, DWORD PTR __Val$[esp-4]
	mov	ecx, DWORD PTR __First$[esp-4]
	push	esi
$LL3@Fill_n:

; 3198 : 		*_First = _Val;

	mov	esi, DWORD PTR [edx]
	mov	DWORD PTR [ecx], esi
	dec	eax
	add	ecx, 4
	test	eax, eax
	ja	SHORT $LL3@Fill_n
	pop	esi
$LN1@Fill_n:

; 3199 : 	}

	ret	0
??$_Fill_n@PAPAVCvCity@@IPAV1@@std@@YAXPAPAVCvCity@@IABQAV1@U_Range_checked_iterator_tag@0@@Z ENDP ; std::_Fill_n<CvCity * *,unsigned int,CvCity *>
_TEXT	ENDS
PUBLIC	??$_Uninit_copy@PAPAVCvCity@@PAPAV1@V?$allocator@PAVCvCity@@@std@@@std@@YAPAPAVCvCity@@PAPAV1@00AAV?$allocator@PAVCvCity@@@0@U_Scalar_ptr_iterator_tag@0@U_Range_checked_iterator_tag@0@@Z ; std::_Uninit_copy<CvCity * *,CvCity * *,std::allocator<CvCity *> >
; Function compile flags: /Ogtpy
; File c:\program files (x86)\microsoft visual studio 9.0\vc\include\memory
;	COMDAT ??$_Uninit_copy@PAPAVCvCity@@PAPAV1@V?$allocator@PAVCvCity@@@std@@@std@@YAPAPAVCvCity@@PAPAV1@00AAV?$allocator@PAVCvCity@@@0@U_Scalar_ptr_iterator_tag@0@U_Range_checked_iterator_tag@0@@Z
_TEXT	SEGMENT
__First$ = 8						; size = 4
__Last$ = 12						; size = 4
__Dest$ = 16						; size = 4
___formal$ = 20						; size = 4
___formal$ = 24						; size = 1
___formal$ = 28						; size = 1
??$_Uninit_copy@PAPAVCvCity@@PAPAV1@V?$allocator@PAVCvCity@@@std@@@std@@YAPAPAVCvCity@@PAPAV1@00AAV?$allocator@PAVCvCity@@@0@U_Scalar_ptr_iterator_tag@0@U_Range_checked_iterator_tag@0@@Z PROC ; std::_Uninit_copy<CvCity * *,CvCity * *,std::allocator<CvCity *> >, COMDAT

; 146  : 	_DEBUG_RANGE(_First, _Last);
; 147  : 	_DEBUG_POINTER(_Dest);
; 148  : 	size_t _Count = (size_t)(_Last - _First);

	mov	eax, DWORD PTR __Last$[esp-4]
	mov	edx, DWORD PTR __First$[esp-4]
	sub	eax, edx
	push	esi
	sar	eax, 2
	push	edi

; 149  : 	_FwdIt _Result = _Dest + _Count;

	mov	edi, DWORD PTR __Dest$[esp+4]
	lea	ecx, DWORD PTR [eax*4]
	lea	esi, DWORD PTR [ecx+edi]

; 150  : 	if (_Count > 0)

	test	eax, eax
	jbe	SHORT $LN4@Uninit_cop

; 151  : 		_CRT_SECURE_MEMMOVE(&*_Dest, _Count * sizeof (*_First), &*_First, _Count * sizeof (*_First));	// NB: non-overlapping move

	push	ecx
	push	edx
	push	ecx
	push	edi
	call	DWORD PTR __imp__memmove_s
	add	esp, 16					; 00000010H
$LN4@Uninit_cop:
	pop	edi

; 152  : 	return (_Result);

	mov	eax, esi
	pop	esi

; 153  : 	}

	ret	0
??$_Uninit_copy@PAPAVCvCity@@PAPAV1@V?$allocator@PAVCvCity@@@std@@@std@@YAPAPAVCvCity@@PAPAV1@00AAV?$allocator@PAVCvCity@@@0@U_Scalar_ptr_iterator_tag@0@U_Range_checked_iterator_tag@0@@Z ENDP ; std::_Uninit_copy<CvCity * *,CvCity * *,std::allocator<CvCity *> >
_TEXT	ENDS
PUBLIC	??E?$_Vector_const_iterator@UTRSortElement@@V?$allocator@UTRSortElement@@@std@@@std@@QAEAAV01@XZ ; std::_Vector_const_iterator<TRSortElement,std::allocator<TRSortElement> >::operator++
; Function compile flags: /Ogtpy
; File c:\program files (x86)\microsoft visual studio 9.0\vc\include\vector
;	COMDAT ??E?$_Vector_const_iterator@UTRSortElement@@V?$allocator@UTRSortElement@@@std@@@std@@QAEAAV01@XZ
_TEXT	SEGMENT
??E?$_Vector_const_iterator@UTRSortElement@@V?$allocator@UTRSortElement@@@std@@@std@@QAEAAV01@XZ PROC ; std::_Vector_const_iterator<TRSortElement,std::allocator<TRSortElement> >::operator++, COMDAT
; _this$ = ecx

; 115  : 		{	// preincrement

	mov	eax, ecx

; 116  : 		_SCL_SECURE_VALIDATE(this->_Has_container());
; 117  : 		_SCL_SECURE_VALIDATE_RANGE(_Myptr < ((_Myvec *)(this->_Getmycont()))->_Mylast);
; 118  : 
; 119  :  #if _HAS_ITERATOR_DEBUGGING
; 120  : 		if (this->_Mycont == 0
; 121  : 			|| ((_Myvec *)this->_Mycont)->_Mylast <= _Myptr)
; 122  : 			_DEBUG_ERROR("vector iterator not incrementable");
; 123  :  #endif /* _HAS_ITERATOR_DEBUGGING */
; 124  : 
; 125  : 		++_Myptr;

	add	DWORD PTR [eax], 448			; 000001c0H

; 126  : 		return (*this);
; 127  : 		}

	ret	0
??E?$_Vector_const_iterator@UTRSortElement@@V?$allocator@UTRSortElement@@@std@@@std@@QAEAAV01@XZ ENDP ; std::_Vector_const_iterator<TRSortElement,std::allocator<TRSortElement> >::operator++
_TEXT	ENDS
PUBLIC	??F?$_Vector_const_iterator@UTRSortElement@@V?$allocator@UTRSortElement@@@std@@@std@@QAEAAV01@XZ ; std::_Vector_const_iterator<TRSortElement,std::allocator<TRSortElement> >::operator--
; Function compile flags: /Ogtpy
;	COMDAT ??F?$_Vector_const_iterator@UTRSortElement@@V?$allocator@UTRSortElement@@@std@@@std@@QAEAAV01@XZ
_TEXT	SEGMENT
??F?$_Vector_const_iterator@UTRSortElement@@V?$allocator@UTRSortElement@@@std@@@std@@QAEAAV01@XZ PROC ; std::_Vector_const_iterator<TRSortElement,std::allocator<TRSortElement> >::operator--, COMDAT
; _this$ = ecx

; 137  : 		{	// predecrement

	mov	eax, ecx

; 138  : 		_SCL_SECURE_VALIDATE(this->_Has_container());
; 139  : 		_SCL_SECURE_VALIDATE_RANGE(_Myptr > ((_Myvec *)(this->_Getmycont()))->_Myfirst);
; 140  : 
; 141  :  #if _HAS_ITERATOR_DEBUGGING
; 142  : 		if (this->_Mycont == 0
; 143  : 			|| _Myptr == ((_Myvec *)this->_Mycont)->_Myfirst)
; 144  : 			_DEBUG_ERROR("vector iterator not decrementable");
; 145  :  #endif /* _HAS_ITERATOR_DEBUGGING */
; 146  : 
; 147  : 		--_Myptr;

	add	DWORD PTR [eax], -448			; fffffe40H

; 148  : 		return (*this);
; 149  : 		}

	ret	0
??F?$_Vector_const_iterator@UTRSortElement@@V?$allocator@UTRSortElement@@@std@@@std@@QAEAAV01@XZ ENDP ; std::_Vector_const_iterator<TRSortElement,std::allocator<TRSortElement> >::operator--
_TEXT	ENDS
PUBLIC	??$_Iter_random@V?$_Vector_iterator@UTRSortElement@@V?$allocator@UTRSortElement@@@std@@@std@@V?$_Temp_iterator@UTRSortElement@@@2@@std@@YA?AUforward_iterator_tag@0@ABV?$_Vector_iterator@UTRSortElement@@V?$allocator@UTRSortElement@@@std@@@0@ABV?$_Temp_iterator@UTRSortElement@@@0@@Z ; std::_Iter_random<std::_Vector_iterator<TRSortElement,std::allocator<TRSortElement> >,std::_Temp_iterator<TRSortElement> >
; Function compile flags: /Ogtpy
; File c:\program files (x86)\microsoft visual studio 9.0\vc\include\xutility
;	COMDAT ??$_Iter_random@V?$_Vector_iterator@UTRSortElement@@V?$allocator@UTRSortElement@@@std@@@std@@V?$_Temp_iterator@UTRSortElement@@@2@@std@@YA?AUforward_iterator_tag@0@ABV?$_Vector_iterator@UTRSortElement@@V?$allocator@UTRSortElement@@@std@@@0@ABV?$_Temp_iterator@UTRSortElement@@@0@@Z
_TEXT	SEGMENT
___$ReturnUdt$ = 8					; size = 4
___formal$ = 12						; size = 4
___formal$ = 16						; size = 4
??$_Iter_random@V?$_Vector_iterator@UTRSortElement@@V?$allocator@UTRSortElement@@@std@@@std@@V?$_Temp_iterator@UTRSortElement@@@2@@std@@YA?AUforward_iterator_tag@0@ABV?$_Vector_iterator@UTRSortElement@@V?$allocator@UTRSortElement@@@std@@@0@ABV?$_Temp_iterator@UTRSortElement@@@0@@Z PROC ; std::_Iter_random<std::_Vector_iterator<TRSortElement,std::allocator<TRSortElement> >,std::_Temp_iterator<TRSortElement> >, COMDAT

; 994  : 	typename _Iter_random_helper<
; 995  : 		iterator_traits<_Iter1>::iterator_category, 
; 996  : 		iterator_traits<_Iter2>::iterator_category>::_Iter_random_cat _Cat;
; 997  : 	return (_Cat);

	mov	eax, DWORD PTR ___$ReturnUdt$[esp-4]

; 998  : 	}

	ret	0
??$_Iter_random@V?$_Vector_iterator@UTRSortElement@@V?$allocator@UTRSortElement@@@std@@@std@@V?$_Temp_iterator@UTRSortElement@@@2@@std@@YA?AUforward_iterator_tag@0@ABV?$_Vector_iterator@UTRSortElement@@V?$allocator@UTRSortElement@@@std@@@0@ABV?$_Temp_iterator@UTRSortElement@@@0@@Z ENDP ; std::_Iter_random<std::_Vector_iterator<TRSortElement,std::allocator<TRSortElement> >,std::_Temp_iterator<TRSortElement> >
_TEXT	ENDS
PUBLIC	??$_Ptr_cat@V?$_Vector_iterator@UTRSortElement@@V?$allocator@UTRSortElement@@@std@@@std@@V?$_Temp_iterator@UTRSortElement@@@2@@std@@YA?AU_Nonscalar_ptr_iterator_tag@0@AAV?$_Vector_iterator@UTRSortElement@@V?$allocator@UTRSortElement@@@std@@@0@AAV?$_Temp_iterator@UTRSortElement@@@0@@Z ; std::_Ptr_cat<std::_Vector_iterator<TRSortElement,std::allocator<TRSortElement> >,std::_Temp_iterator<TRSortElement> >
; Function compile flags: /Ogtpy
;	COMDAT ??$_Ptr_cat@V?$_Vector_iterator@UTRSortElement@@V?$allocator@UTRSortElement@@@std@@@std@@V?$_Temp_iterator@UTRSortElement@@@2@@std@@YA?AU_Nonscalar_ptr_iterator_tag@0@AAV?$_Vector_iterator@UTRSortElement@@V?$allocator@UTRSortElement@@@std@@@0@AAV?$_Temp_iterator@UTRSortElement@@@0@@Z
_TEXT	SEGMENT
__Cat$ = -1						; size = 1
___formal$ = 8						; size = 4
___formal$ = 12						; size = 4
??$_Ptr_cat@V?$_Vector_iterator@UTRSortElement@@V?$allocator@UTRSortElement@@@std@@@std@@V?$_Temp_iterator@UTRSortElement@@@2@@std@@YA?AU_Nonscalar_ptr_iterator_tag@0@AAV?$_Vector_iterator@UTRSortElement@@V?$allocator@UTRSortElement@@@std@@@0@AAV?$_Temp_iterator@UTRSortElement@@@0@@Z PROC ; std::_Ptr_cat<std::_Vector_iterator<TRSortElement,std::allocator<TRSortElement> >,std::_Temp_iterator<TRSortElement> >, COMDAT

; 1509 : 	{

	push	ecx

; 1510 : 	typename _Ptr_cat_helper<_T1, _T2>::_Ptr_cat _Cat;
; 1511 : 	return (_Cat);

	mov	al, BYTE PTR __Cat$[esp+4]

; 1512 : 	}

	pop	ecx
	ret	0
??$_Ptr_cat@V?$_Vector_iterator@UTRSortElement@@V?$allocator@UTRSortElement@@@std@@@std@@V?$_Temp_iterator@UTRSortElement@@@2@@std@@YA?AU_Nonscalar_ptr_iterator_tag@0@AAV?$_Vector_iterator@UTRSortElement@@V?$allocator@UTRSortElement@@@std@@@0@AAV?$_Temp_iterator@UTRSortElement@@@0@@Z ENDP ; std::_Ptr_cat<std::_Vector_iterator<TRSortElement,std::allocator<TRSortElement> >,std::_Temp_iterator<TRSortElement> >
_TEXT	ENDS
PUBLIC	??$_Iter_random@PAUTRSortElement@@V?$_Vector_iterator@UTRSortElement@@V?$allocator@UTRSortElement@@@std@@@std@@V23@@std@@YA?AUrandom_access_iterator_tag@0@ABQAUTRSortElement@@ABV?$_Vector_iterator@UTRSortElement@@V?$allocator@UTRSortElement@@@std@@@0@1@Z ; std::_Iter_random<TRSortElement *,std::_Vector_iterator<TRSortElement,std::allocator<TRSortElement> >,std::_Vector_iterator<TRSortElement,std::allocator<TRSortElement> > >
; Function compile flags: /Ogtpy
;	COMDAT ??$_Iter_random@PAUTRSortElement@@V?$_Vector_iterator@UTRSortElement@@V?$allocator@UTRSortElement@@@std@@@std@@V23@@std@@YA?AUrandom_access_iterator_tag@0@ABQAUTRSortElement@@ABV?$_Vector_iterator@UTRSortElement@@V?$allocator@UTRSortElement@@@std@@@0@1@Z
_TEXT	SEGMENT
___$ReturnUdt$ = 8					; size = 4
___formal$ = 12						; size = 4
___formal$ = 16						; size = 4
___formal$ = 20						; size = 4
??$_Iter_random@PAUTRSortElement@@V?$_Vector_iterator@UTRSortElement@@V?$allocator@UTRSortElement@@@std@@@std@@V23@@std@@YA?AUrandom_access_iterator_tag@0@ABQAUTRSortElement@@ABV?$_Vector_iterator@UTRSortElement@@V?$allocator@UTRSortElement@@@std@@@0@1@Z PROC ; std::_Iter_random<TRSortElement *,std::_Vector_iterator<TRSortElement,std::allocator<TRSortElement> >,std::_Vector_iterator<TRSortElement,std::allocator<TRSortElement> > >, COMDAT

; 1007 : 	typename _Iter_random_helper3<
; 1008 : 		iterator_traits<_Iter1>::iterator_category, 
; 1009 : 		iterator_traits<_Iter2>::iterator_category,
; 1010 : 		iterator_traits<_Iter3>::iterator_category>::_Iter_random_cat _Cat;
; 1011 : 	return (_Cat);

	mov	eax, DWORD PTR ___$ReturnUdt$[esp-4]

; 1012 : 	}

	ret	0
??$_Iter_random@PAUTRSortElement@@V?$_Vector_iterator@UTRSortElement@@V?$allocator@UTRSortElement@@@std@@@std@@V23@@std@@YA?AUrandom_access_iterator_tag@0@ABQAUTRSortElement@@ABV?$_Vector_iterator@UTRSortElement@@V?$allocator@UTRSortElement@@@std@@@0@1@Z ENDP ; std::_Iter_random<TRSortElement *,std::_Vector_iterator<TRSortElement,std::allocator<TRSortElement> >,std::_Vector_iterator<TRSortElement,std::allocator<TRSortElement> > >
_TEXT	ENDS
PUBLIC	??3ICvUnknown@@SGXPAX@Z				; ICvUnknown::operator delete
; Function compile flags: /Ogtpy
; File c:\users\enormousapplepie\documents\github\lekmod\lekmod_dll\cvgamecoredllutil\include\cvdllinterfaces.h
;	COMDAT ??3ICvUnknown@@SGXPAX@Z
_TEXT	SEGMENT
_p$ = 8							; size = 4
??3ICvUnknown@@SGXPAX@Z PROC				; ICvUnknown::operator delete, COMDAT

; 310  : 		if (p)

	mov	eax, DWORD PTR _p$[esp-4]
	test	eax, eax
	je	SHORT $LN1@operator@2

; 311  : 		{
; 312  : 			ICvUnknown* inst = (ICvUnknown*)(p);
; 313  : 			inst->Destroy();

	mov	ecx, DWORD PTR [eax]
	mov	edx, DWORD PTR [ecx+4]
	mov	DWORD PTR _p$[esp-4], eax
	jmp	edx
$LN1@operator@2:

; 314  : 		}
; 315  : 	}

	ret	4
??3ICvUnknown@@SGXPAX@Z ENDP				; ICvUnknown::operator delete
_TEXT	ENDS
PUBLIC	??D?$_Temp_iterator@UTRSortElement@@@std@@QAEAAV01@XZ ; std::_Temp_iterator<TRSortElement>::operator*
; Function compile flags: /Ogtpy
; File c:\program files (x86)\microsoft visual studio 9.0\vc\include\memory
;	COMDAT ??D?$_Temp_iterator@UTRSortElement@@@std@@QAEAAV01@XZ
_TEXT	SEGMENT
??D?$_Temp_iterator@UTRSortElement@@@std@@QAEAAV01@XZ PROC ; std::_Temp_iterator<TRSortElement>::operator*, COMDAT
; _this$ = ecx

; 576  : 		{	// pretend to return designated value

	mov	eax, ecx

; 577  : 		return (*this);
; 578  : 		}

	ret	0
??D?$_Temp_iterator@UTRSortElement@@@std@@QAEAAV01@XZ ENDP ; std::_Temp_iterator<TRSortElement>::operator*
_TEXT	ENDS
PUBLIC	??E?$_Temp_iterator@UTRSortElement@@@std@@QAEAAV01@XZ ; std::_Temp_iterator<TRSortElement>::operator++
; Function compile flags: /Ogtpy
;	COMDAT ??E?$_Temp_iterator@UTRSortElement@@@std@@QAEAAV01@XZ
_TEXT	SEGMENT
??E?$_Temp_iterator@UTRSortElement@@@std@@QAEAAV01@XZ PROC ; std::_Temp_iterator<TRSortElement>::operator++, COMDAT
; _this$ = ecx

; 581  : 		{	// pretend to preincrement

	mov	eax, ecx

; 582  : 		return (*this);
; 583  : 		}

	ret	0
??E?$_Temp_iterator@UTRSortElement@@@std@@QAEAAV01@XZ ENDP ; std::_Temp_iterator<TRSortElement>::operator++
_TEXT	ENDS
PUBLIC	??$_Iter_random@V?$_Vector_iterator@UTRSortElement@@V?$allocator@UTRSortElement@@@std@@@std@@V12@@std@@YA?AUrandom_access_iterator_tag@0@ABV?$_Vector_iterator@UTRSortElement@@V?$allocator@UTRSortElement@@@std@@@0@0@Z ; std::_Iter_random<std::_Vector_iterator<TRSortElement,std::allocator<TRSortElement> >,std::_Vector_iterator<TRSortElement,std::allocator<TRSortElement> > >
; Function compile flags: /Ogtpy
; File c:\program files (x86)\microsoft visual studio 9.0\vc\include\xutility
;	COMDAT ??$_Iter_random@V?$_Vector_iterator@UTRSortElement@@V?$allocator@UTRSortElement@@@std@@@std@@V12@@std@@YA?AUrandom_access_iterator_tag@0@ABV?$_Vector_iterator@UTRSortElement@@V?$allocator@UTRSortElement@@@std@@@0@0@Z
_TEXT	SEGMENT
___$ReturnUdt$ = 8					; size = 4
___formal$ = 12						; size = 4
___formal$ = 16						; size = 4
??$_Iter_random@V?$_Vector_iterator@UTRSortElement@@V?$allocator@UTRSortElement@@@std@@@std@@V12@@std@@YA?AUrandom_access_iterator_tag@0@ABV?$_Vector_iterator@UTRSortElement@@V?$allocator@UTRSortElement@@@std@@@0@0@Z PROC ; std::_Iter_random<std::_Vector_iterator<TRSortElement,std::allocator<TRSortElement> >,std::_Vector_iterator<TRSortElement,std::allocator<TRSortElement> > >, COMDAT

; 994  : 	typename _Iter_random_helper<
; 995  : 		iterator_traits<_Iter1>::iterator_category, 
; 996  : 		iterator_traits<_Iter2>::iterator_category>::_Iter_random_cat _Cat;
; 997  : 	return (_Cat);

	mov	eax, DWORD PTR ___$ReturnUdt$[esp-4]

; 998  : 	}

	ret	0
??$_Iter_random@V?$_Vector_iterator@UTRSortElement@@V?$allocator@UTRSortElement@@@std@@@std@@V12@@std@@YA?AUrandom_access_iterator_tag@0@ABV?$_Vector_iterator@UTRSortElement@@V?$allocator@UTRSortElement@@@std@@@0@0@Z ENDP ; std::_Iter_random<std::_Vector_iterator<TRSortElement,std::allocator<TRSortElement> >,std::_Vector_iterator<TRSortElement,std::allocator<TRSortElement> > >
_TEXT	ENDS
PUBLIC	??$_Ptr_cat@V?$_Vector_iterator@UTRSortElement@@V?$allocator@UTRSortElement@@@std@@@std@@V12@@std@@YA?AU_Nonscalar_ptr_iterator_tag@0@AAV?$_Vector_iterator@UTRSortElement@@V?$allocator@UTRSortElement@@@std@@@0@0@Z ; std::_Ptr_cat<std::_Vector_iterator<TRSortElement,std::allocator<TRSortElement> >,std::_Vector_iterator<TRSortElement,std::allocator<TRSortElement> > >
; Function compile flags: /Ogtpy
;	COMDAT ??$_Ptr_cat@V?$_Vector_iterator@UTRSortElement@@V?$allocator@UTRSortElement@@@std@@@std@@V12@@std@@YA?AU_Nonscalar_ptr_iterator_tag@0@AAV?$_Vector_iterator@UTRSortElement@@V?$allocator@UTRSortElement@@@std@@@0@0@Z
_TEXT	SEGMENT
__Cat$ = -1						; size = 1
___formal$ = 8						; size = 4
___formal$ = 12						; size = 4
??$_Ptr_cat@V?$_Vector_iterator@UTRSortElement@@V?$allocator@UTRSortElement@@@std@@@std@@V12@@std@@YA?AU_Nonscalar_ptr_iterator_tag@0@AAV?$_Vector_iterator@UTRSortElement@@V?$allocator@UTRSortElement@@@std@@@0@0@Z PROC ; std::_Ptr_cat<std::_Vector_iterator<TRSortElement,std::allocator<TRSortElement> >,std::_Vector_iterator<TRSortElement,std::allocator<TRSortElement> > >, COMDAT

; 1509 : 	{

	push	ecx

; 1510 : 	typename _Ptr_cat_helper<_T1, _T2>::_Ptr_cat _Cat;
; 1511 : 	return (_Cat);

	mov	al, BYTE PTR __Cat$[esp+4]

; 1512 : 	}

	pop	ecx
	ret	0
??$_Ptr_cat@V?$_Vector_iterator@UTRSortElement@@V?$allocator@UTRSortElement@@@std@@@std@@V12@@std@@YA?AU_Nonscalar_ptr_iterator_tag@0@AAV?$_Vector_iterator@UTRSortElement@@V?$allocator@UTRSortElement@@@std@@@0@0@Z ENDP ; std::_Ptr_cat<std::_Vector_iterator<TRSortElement,std::allocator<TRSortElement> >,std::_Vector_iterator<TRSortElement,std::allocator<TRSortElement> > >
_TEXT	ENDS
PUBLIC	??$_Iter_random@PAUTRSortElement@@V?$_Vector_iterator@UTRSortElement@@V?$allocator@UTRSortElement@@@std@@@std@@@std@@YA?AUrandom_access_iterator_tag@0@ABQAUTRSortElement@@ABV?$_Vector_iterator@UTRSortElement@@V?$allocator@UTRSortElement@@@std@@@0@@Z ; std::_Iter_random<TRSortElement *,std::_Vector_iterator<TRSortElement,std::allocator<TRSortElement> > >
; Function compile flags: /Ogtpy
;	COMDAT ??$_Iter_random@PAUTRSortElement@@V?$_Vector_iterator@UTRSortElement@@V?$allocator@UTRSortElement@@@std@@@std@@@std@@YA?AUrandom_access_iterator_tag@0@ABQAUTRSortElement@@ABV?$_Vector_iterator@UTRSortElement@@V?$allocator@UTRSortElement@@@std@@@0@@Z
_TEXT	SEGMENT
___$ReturnUdt$ = 8					; size = 4
___formal$ = 12						; size = 4
___formal$ = 16						; size = 4
??$_Iter_random@PAUTRSortElement@@V?$_Vector_iterator@UTRSortElement@@V?$allocator@UTRSortElement@@@std@@@std@@@std@@YA?AUrandom_access_iterator_tag@0@ABQAUTRSortElement@@ABV?$_Vector_iterator@UTRSortElement@@V?$allocator@UTRSortElement@@@std@@@0@@Z PROC ; std::_Iter_random<TRSortElement *,std::_Vector_iterator<TRSortElement,std::allocator<TRSortElement> > >, COMDAT

; 994  : 	typename _Iter_random_helper<
; 995  : 		iterator_traits<_Iter1>::iterator_category, 
; 996  : 		iterator_traits<_Iter2>::iterator_category>::_Iter_random_cat _Cat;
; 997  : 	return (_Cat);

	mov	eax, DWORD PTR ___$ReturnUdt$[esp-4]

; 998  : 	}

	ret	0
??$_Iter_random@PAUTRSortElement@@V?$_Vector_iterator@UTRSortElement@@V?$allocator@UTRSortElement@@@std@@@std@@@std@@YA?AUrandom_access_iterator_tag@0@ABQAUTRSortElement@@ABV?$_Vector_iterator@UTRSortElement@@V?$allocator@UTRSortElement@@@std@@@0@@Z ENDP ; std::_Iter_random<TRSortElement *,std::_Vector_iterator<TRSortElement,std::allocator<TRSortElement> > >
_TEXT	ENDS
PUBLIC	??$_Ptr_cat@PAUTRSortElement@@V?$_Vector_iterator@UTRSortElement@@V?$allocator@UTRSortElement@@@std@@@std@@@std@@YA?AU_Nonscalar_ptr_iterator_tag@0@AAPAUTRSortElement@@AAV?$_Vector_iterator@UTRSortElement@@V?$allocator@UTRSortElement@@@std@@@0@@Z ; std::_Ptr_cat<TRSortElement *,std::_Vector_iterator<TRSortElement,std::allocator<TRSortElement> > >
; Function compile flags: /Ogtpy
;	COMDAT ??$_Ptr_cat@PAUTRSortElement@@V?$_Vector_iterator@UTRSortElement@@V?$allocator@UTRSortElement@@@std@@@std@@@std@@YA?AU_Nonscalar_ptr_iterator_tag@0@AAPAUTRSortElement@@AAV?$_Vector_iterator@UTRSortElement@@V?$allocator@UTRSortElement@@@std@@@0@@Z
_TEXT	SEGMENT
__Cat$ = -1						; size = 1
___formal$ = 8						; size = 4
___formal$ = 12						; size = 4
??$_Ptr_cat@PAUTRSortElement@@V?$_Vector_iterator@UTRSortElement@@V?$allocator@UTRSortElement@@@std@@@std@@@std@@YA?AU_Nonscalar_ptr_iterator_tag@0@AAPAUTRSortElement@@AAV?$_Vector_iterator@UTRSortElement@@V?$allocator@UTRSortElement@@@std@@@0@@Z PROC ; std::_Ptr_cat<TRSortElement *,std::_Vector_iterator<TRSortElement,std::allocator<TRSortElement> > >, COMDAT

; 1509 : 	{

	push	ecx

; 1510 : 	typename _Ptr_cat_helper<_T1, _T2>::_Ptr_cat _Cat;
; 1511 : 	return (_Cat);

	mov	al, BYTE PTR __Cat$[esp+4]

; 1512 : 	}

	pop	ecx
	ret	0
??$_Ptr_cat@PAUTRSortElement@@V?$_Vector_iterator@UTRSortElement@@V?$allocator@UTRSortElement@@@std@@@std@@@std@@YA?AU_Nonscalar_ptr_iterator_tag@0@AAPAUTRSortElement@@AAV?$_Vector_iterator@UTRSortElement@@V?$allocator@UTRSortElement@@@std@@@0@@Z ENDP ; std::_Ptr_cat<TRSortElement *,std::_Vector_iterator<TRSortElement,std::allocator<TRSortElement> > >
_TEXT	ENDS
PUBLIC	??$_Iter_random@V?$_Vector_iterator@UTRSortElement@@V?$allocator@UTRSortElement@@@std@@@std@@V12@V?$_Temp_iterator@UTRSortElement@@@2@@std@@YA?AUforward_iterator_tag@0@ABV?$_Vector_iterator@UTRSortElement@@V?$allocator@UTRSortElement@@@std@@@0@0ABV?$_Temp_iterator@UTRSortElement@@@0@@Z ; std::_Iter_random<std::_Vector_iterator<TRSortElement,std::allocator<TRSortElement> >,std::_Vector_iterator<TRSortElement,std::allocator<TRSortElement> >,std::_Temp_iterator<TRSortElement> >
; Function compile flags: /Ogtpy
;	COMDAT ??$_Iter_random@V?$_Vector_iterator@UTRSortElement@@V?$allocator@UTRSortElement@@@std@@@std@@V12@V?$_Temp_iterator@UTRSortElement@@@2@@std@@YA?AUforward_iterator_tag@0@ABV?$_Vector_iterator@UTRSortElement@@V?$allocator@UTRSortElement@@@std@@@0@0ABV?$_Temp_iterator@UTRSortElement@@@0@@Z
_TEXT	SEGMENT
___$ReturnUdt$ = 8					; size = 4
___formal$ = 12						; size = 4
___formal$ = 16						; size = 4
___formal$ = 20						; size = 4
??$_Iter_random@V?$_Vector_iterator@UTRSortElement@@V?$allocator@UTRSortElement@@@std@@@std@@V12@V?$_Temp_iterator@UTRSortElement@@@2@@std@@YA?AUforward_iterator_tag@0@ABV?$_Vector_iterator@UTRSortElement@@V?$allocator@UTRSortElement@@@std@@@0@0ABV?$_Temp_iterator@UTRSortElement@@@0@@Z PROC ; std::_Iter_random<std::_Vector_iterator<TRSortElement,std::allocator<TRSortElement> >,std::_Vector_iterator<TRSortElement,std::allocator<TRSortElement> >,std::_Temp_iterator<TRSortElement> >, COMDAT

; 1007 : 	typename _Iter_random_helper3<
; 1008 : 		iterator_traits<_Iter1>::iterator_category, 
; 1009 : 		iterator_traits<_Iter2>::iterator_category,
; 1010 : 		iterator_traits<_Iter3>::iterator_category>::_Iter_random_cat _Cat;
; 1011 : 	return (_Cat);

	mov	eax, DWORD PTR ___$ReturnUdt$[esp-4]

; 1012 : 	}

	ret	0
??$_Iter_random@V?$_Vector_iterator@UTRSortElement@@V?$allocator@UTRSortElement@@@std@@@std@@V12@V?$_Temp_iterator@UTRSortElement@@@2@@std@@YA?AUforward_iterator_tag@0@ABV?$_Vector_iterator@UTRSortElement@@V?$allocator@UTRSortElement@@@std@@@0@0ABV?$_Temp_iterator@UTRSortElement@@@0@@Z ENDP ; std::_Iter_random<std::_Vector_iterator<TRSortElement,std::allocator<TRSortElement> >,std::_Vector_iterator<TRSortElement,std::allocator<TRSortElement> >,std::_Temp_iterator<TRSortElement> >
_TEXT	ENDS
PUBLIC	??$_Iter_cat@PAUTRSortElement@@@std@@YA?AUrandom_access_iterator_tag@0@ABQAUTRSortElement@@@Z ; std::_Iter_cat<TRSortElement *>
; Function compile flags: /Ogtpy
;	COMDAT ??$_Iter_cat@PAUTRSortElement@@@std@@YA?AUrandom_access_iterator_tag@0@ABQAUTRSortElement@@@Z
_TEXT	SEGMENT
___$ReturnUdt$ = 8					; size = 4
___formal$ = 12						; size = 4
??$_Iter_cat@PAUTRSortElement@@@std@@YA?AUrandom_access_iterator_tag@0@ABQAUTRSortElement@@@Z PROC ; std::_Iter_cat<TRSortElement *>, COMDAT

; 953  : 	typename iterator_traits<_Iter>::iterator_category _Cat;
; 954  : 	return (_Cat);

	mov	eax, DWORD PTR ___$ReturnUdt$[esp-4]

; 955  : 	}

	ret	0
??$_Iter_cat@PAUTRSortElement@@@std@@YA?AUrandom_access_iterator_tag@0@ABQAUTRSortElement@@@Z ENDP ; std::_Iter_cat<TRSortElement *>
_TEXT	ENDS
PUBLIC	??$_Advance@PAUTRSortElement@@H@std@@YAXAAPAUTRSortElement@@HUrandom_access_iterator_tag@0@@Z ; std::_Advance<TRSortElement *,int>
; Function compile flags: /Ogtpy
;	COMDAT ??$_Advance@PAUTRSortElement@@H@std@@YAXAAPAUTRSortElement@@HUrandom_access_iterator_tag@0@@Z
_TEXT	SEGMENT
__Where$ = 8						; size = 4
__Off$ = 12						; size = 4
___formal$ = 16						; size = 1
??$_Advance@PAUTRSortElement@@H@std@@YAXAAPAUTRSortElement@@HUrandom_access_iterator_tag@0@@Z PROC ; std::_Advance<TRSortElement *,int>, COMDAT

; 1822 : 	_Where += _Off;

	mov	ecx, DWORD PTR __Off$[esp-4]
	mov	eax, DWORD PTR __Where$[esp-4]
	imul	ecx, 448				; 000001c0H
	add	DWORD PTR [eax], ecx

; 1823 : 	}

	ret	0
??$_Advance@PAUTRSortElement@@H@std@@YAXAAPAUTRSortElement@@HUrandom_access_iterator_tag@0@@Z ENDP ; std::_Advance<TRSortElement *,int>
_TEXT	ENDS
PUBLIC	??$_Iter_random@PAUTRSortElement@@PAU1@V?$_Vector_iterator@UTRSortElement@@V?$allocator@UTRSortElement@@@std@@@std@@@std@@YA?AUrandom_access_iterator_tag@0@ABQAUTRSortElement@@0ABV?$_Vector_iterator@UTRSortElement@@V?$allocator@UTRSortElement@@@std@@@0@@Z ; std::_Iter_random<TRSortElement *,TRSortElement *,std::_Vector_iterator<TRSortElement,std::allocator<TRSortElement> > >
; Function compile flags: /Ogtpy
;	COMDAT ??$_Iter_random@PAUTRSortElement@@PAU1@V?$_Vector_iterator@UTRSortElement@@V?$allocator@UTRSortElement@@@std@@@std@@@std@@YA?AUrandom_access_iterator_tag@0@ABQAUTRSortElement@@0ABV?$_Vector_iterator@UTRSortElement@@V?$allocator@UTRSortElement@@@std@@@0@@Z
_TEXT	SEGMENT
___$ReturnUdt$ = 8					; size = 4
___formal$ = 12						; size = 4
___formal$ = 16						; size = 4
___formal$ = 20						; size = 4
??$_Iter_random@PAUTRSortElement@@PAU1@V?$_Vector_iterator@UTRSortElement@@V?$allocator@UTRSortElement@@@std@@@std@@@std@@YA?AUrandom_access_iterator_tag@0@ABQAUTRSortElement@@0ABV?$_Vector_iterator@UTRSortElement@@V?$allocator@UTRSortElement@@@std@@@0@@Z PROC ; std::_Iter_random<TRSortElement *,TRSortElement *,std::_Vector_iterator<TRSortElement,std::allocator<TRSortElement> > >, COMDAT

; 1007 : 	typename _Iter_random_helper3<
; 1008 : 		iterator_traits<_Iter1>::iterator_category, 
; 1009 : 		iterator_traits<_Iter2>::iterator_category,
; 1010 : 		iterator_traits<_Iter3>::iterator_category>::_Iter_random_cat _Cat;
; 1011 : 	return (_Cat);

	mov	eax, DWORD PTR ___$ReturnUdt$[esp-4]

; 1012 : 	}

	ret	0
??$_Iter_random@PAUTRSortElement@@PAU1@V?$_Vector_iterator@UTRSortElement@@V?$allocator@UTRSortElement@@@std@@@std@@@std@@YA?AUrandom_access_iterator_tag@0@ABQAUTRSortElement@@0ABV?$_Vector_iterator@UTRSortElement@@V?$allocator@UTRSortElement@@@std@@@0@@Z ENDP ; std::_Iter_random<TRSortElement *,TRSortElement *,std::_Vector_iterator<TRSortElement,std::allocator<TRSortElement> > >
_TEXT	ENDS
PUBLIC	?GetID@CvBaseInfo@@QBEHXZ			; CvBaseInfo::GetID
; Function compile flags: /Ogtpy
; File c:\users\enormousapplepie\documents\github\lekmod\lekmod_dll\cvgamecoredll_expansion2\cvinfos.h
;	COMDAT ?GetID@CvBaseInfo@@QBEHXZ
_TEXT	SEGMENT
?GetID@CvBaseInfo@@QBEHXZ PROC				; CvBaseInfo::GetID, COMDAT
; _this$ = ecx

; 54   : 		return m_iID;

	mov	eax, DWORD PTR [ecx+4]

; 55   : 	}

	ret	0
?GetID@CvBaseInfo@@QBEHXZ ENDP				; CvBaseInfo::GetID
_TEXT	ENDS
PUBLIC	?GetDescription@CvBaseInfo@@QBEPBDXZ		; CvBaseInfo::GetDescription
; Function compile flags: /Ogtpy
;	COMDAT ?GetDescription@CvBaseInfo@@QBEPBDXZ
_TEXT	SEGMENT
?GetDescription@CvBaseInfo@@QBEPBDXZ PROC		; CvBaseInfo::GetDescription, COMDAT
; _this$ = ecx

; 64   : 		return m_strDescription.c_str();

	add	ecx, 36					; 00000024H
	jmp	DWORD PTR __imp_?c_str@?$basic_string@DU?$char_traits@D@std@@V?$allocator@D@2@@std@@QBEPBDXZ
?GetDescription@CvBaseInfo@@QBEPBDXZ ENDP		; CvBaseInfo::GetDescription
_TEXT	ENDS
PUBLIC	?getMap@CvGlobals@@QAEAAVCvMap@@XZ		; CvGlobals::getMap
; Function compile flags: /Ogtpy
; File c:\users\enormousapplepie\documents\github\lekmod\lekmod_dll\cvgamecoredll_expansion2\cvglobals.h
;	COMDAT ?getMap@CvGlobals@@QAEAAVCvMap@@XZ
_TEXT	SEGMENT
?getMap@CvGlobals@@QAEAAVCvMap@@XZ PROC			; CvGlobals::getMap, COMDAT
; _this$ = ecx

; 175  : 		return *m_map;    // inlined for perf reasons, do not use outside of dll

	mov	eax, DWORD PTR [ecx+52]

; 176  : 	}

	ret	0
?getMap@CvGlobals@@QAEAAVCvMap@@XZ ENDP			; CvGlobals::getMap
_TEXT	ENDS
PUBLIC	?getGame@CvGlobals@@QAEAAVCvGame@@XZ		; CvGlobals::getGame
; Function compile flags: /Ogtpy
;	COMDAT ?getGame@CvGlobals@@QAEAAVCvGame@@XZ
_TEXT	SEGMENT
?getGame@CvGlobals@@QAEAAVCvGame@@XZ PROC		; CvGlobals::getGame, COMDAT
; _this$ = ecx

; 183  : 		return *m_game;    // inlined for perf reasons, do not use outside of dll

	mov	eax, DWORD PTR [ecx+48]

; 184  : 	}

	ret	0
?getGame@CvGlobals@@QAEAAVCvGame@@XZ ENDP		; CvGlobals::getGame
_TEXT	ENDS
PUBLIC	?getPlotDirectionX@CvGlobals@@QAEPAHXZ		; CvGlobals::getPlotDirectionX
; Function compile flags: /Ogtpy
;	COMDAT ?getPlotDirectionX@CvGlobals@@QAEPAHXZ
_TEXT	SEGMENT
?getPlotDirectionX@CvGlobals@@QAEPAHXZ PROC		; CvGlobals::getPlotDirectionX, COMDAT
; _this$ = ecx

; 191  : 		return m_aiPlotDirectionX;

	lea	eax, DWORD PTR [ecx+112]

; 192  : 	}

	ret	0
?getPlotDirectionX@CvGlobals@@QAEPAHXZ ENDP		; CvGlobals::getPlotDirectionX
_TEXT	ENDS
PUBLIC	?getPlotDirectionY@CvGlobals@@QAEPAHXZ		; CvGlobals::getPlotDirectionY
; Function compile flags: /Ogtpy
;	COMDAT ?getPlotDirectionY@CvGlobals@@QAEPAHXZ
_TEXT	SEGMENT
?getPlotDirectionY@CvGlobals@@QAEPAHXZ PROC		; CvGlobals::getPlotDirectionY, COMDAT
; _this$ = ecx

; 195  : 		return m_aiPlotDirectionY;

	lea	eax, DWORD PTR [ecx+136]

; 196  : 	}

	ret	0
?getPlotDirectionY@CvGlobals@@QAEPAHXZ ENDP		; CvGlobals::getPlotDirectionY
_TEXT	ENDS
PUBLIC	?getEVENT_MESSAGE_TIME@CvGlobals@@QAEHXZ	; CvGlobals::getEVENT_MESSAGE_TIME
; Function compile flags: /Ogtpy
;	COMDAT ?getEVENT_MESSAGE_TIME@CvGlobals@@QAEHXZ
_TEXT	SEGMENT
?getEVENT_MESSAGE_TIME@CvGlobals@@QAEHXZ PROC		; CvGlobals::getEVENT_MESSAGE_TIME, COMDAT
; _this$ = ecx

; 5252 : 		return m_iEVENT_MESSAGE_TIME;

	mov	eax, DWORD PTR [ecx+6176]

; 5253 : 	}

	ret	0
?getEVENT_MESSAGE_TIME@CvGlobals@@QAEHXZ ENDP		; CvGlobals::getEVENT_MESSAGE_TIME
_TEXT	ENDS
PUBLIC	?getRELIGION_MISSIONARY_PRESSURE_MULTIPLIER@CvGlobals@@QAEHXZ ; CvGlobals::getRELIGION_MISSIONARY_PRESSURE_MULTIPLIER
; Function compile flags: /Ogtpy
;	COMDAT ?getRELIGION_MISSIONARY_PRESSURE_MULTIPLIER@CvGlobals@@QAEHXZ
_TEXT	SEGMENT
?getRELIGION_MISSIONARY_PRESSURE_MULTIPLIER@CvGlobals@@QAEHXZ PROC ; CvGlobals::getRELIGION_MISSIONARY_PRESSURE_MULTIPLIER, COMDAT
; _this$ = ecx

; 7399 : 		return m_iRELIGION_MISSIONARY_PRESSURE_MULTIPLIER;

	mov	eax, DWORD PTR [ecx+7900]

; 7400 : 	}

	ret	0
?getRELIGION_MISSIONARY_PRESSURE_MULTIPLIER@CvGlobals@@QAEHXZ ENDP ; CvGlobals::getRELIGION_MISSIONARY_PRESSURE_MULTIPLIER
_TEXT	ENDS
PUBLIC	?getINTERNATIONAL_TRADE_BASE@CvGlobals@@QAEHXZ	; CvGlobals::getINTERNATIONAL_TRADE_BASE
; Function compile flags: /Ogtpy
;	COMDAT ?getINTERNATIONAL_TRADE_BASE@CvGlobals@@QAEHXZ
_TEXT	SEGMENT
?getINTERNATIONAL_TRADE_BASE@CvGlobals@@QAEHXZ PROC	; CvGlobals::getINTERNATIONAL_TRADE_BASE, COMDAT
; _this$ = ecx

; 7483 : 		return m_iINTERNATIONAL_TRADE_BASE;

	mov	eax, DWORD PTR [ecx+7956]

; 7484 : 	}

	ret	0
?getINTERNATIONAL_TRADE_BASE@CvGlobals@@QAEHXZ ENDP	; CvGlobals::getINTERNATIONAL_TRADE_BASE
_TEXT	ENDS
PUBLIC	?getINTERNATIONAL_TRADE_EXCLUSIVE_CONNECTION@CvGlobals@@QAEHXZ ; CvGlobals::getINTERNATIONAL_TRADE_EXCLUSIVE_CONNECTION
; Function compile flags: /Ogtpy
;	COMDAT ?getINTERNATIONAL_TRADE_EXCLUSIVE_CONNECTION@CvGlobals@@QAEHXZ
_TEXT	SEGMENT
?getINTERNATIONAL_TRADE_EXCLUSIVE_CONNECTION@CvGlobals@@QAEHXZ PROC ; CvGlobals::getINTERNATIONAL_TRADE_EXCLUSIVE_CONNECTION, COMDAT
; _this$ = ecx

; 7487 : 		return m_iINTERNATIONAL_TRADE_EXCLUSIVE_CONNECTION;

	mov	eax, DWORD PTR [ecx+7960]

; 7488 : 	}

	ret	0
?getINTERNATIONAL_TRADE_EXCLUSIVE_CONNECTION@CvGlobals@@QAEHXZ ENDP ; CvGlobals::getINTERNATIONAL_TRADE_EXCLUSIVE_CONNECTION
_TEXT	ENDS
PUBLIC	?getINTERNATIONAL_TRADE_CITY_GPT_DIVISOR@CvGlobals@@QAEHXZ ; CvGlobals::getINTERNATIONAL_TRADE_CITY_GPT_DIVISOR
; Function compile flags: /Ogtpy
;	COMDAT ?getINTERNATIONAL_TRADE_CITY_GPT_DIVISOR@CvGlobals@@QAEHXZ
_TEXT	SEGMENT
?getINTERNATIONAL_TRADE_CITY_GPT_DIVISOR@CvGlobals@@QAEHXZ PROC ; CvGlobals::getINTERNATIONAL_TRADE_CITY_GPT_DIVISOR, COMDAT
; _this$ = ecx

; 7491 : 		return m_iINTERNATIONAL_TRADE_CITY_GPT_DIVISOR;

	mov	eax, DWORD PTR [ecx+7964]

; 7492 : 	}

	ret	0
?getINTERNATIONAL_TRADE_CITY_GPT_DIVISOR@CvGlobals@@QAEHXZ ENDP ; CvGlobals::getINTERNATIONAL_TRADE_CITY_GPT_DIVISOR
_TEXT	ENDS
PUBLIC	?getPOLICY_BRANCH_FREEDOM@CvGlobals@@QAEHXZ	; CvGlobals::getPOLICY_BRANCH_FREEDOM
; Function compile flags: /Ogtpy
;	COMDAT ?getPOLICY_BRANCH_FREEDOM@CvGlobals@@QAEHXZ
_TEXT	SEGMENT
?getPOLICY_BRANCH_FREEDOM@CvGlobals@@QAEHXZ PROC	; CvGlobals::getPOLICY_BRANCH_FREEDOM, COMDAT
; _this$ = ecx

; 7599 : 		return m_iPOLICY_BRANCH_FREEDOM;

	mov	eax, DWORD PTR [ecx+8376]

; 7600 : 	}

	ret	0
?getPOLICY_BRANCH_FREEDOM@CvGlobals@@QAEHXZ ENDP	; CvGlobals::getPOLICY_BRANCH_FREEDOM
_TEXT	ENDS
PUBLIC	?getPOLICY_BRANCH_AUTOCRACY@CvGlobals@@QAEHXZ	; CvGlobals::getPOLICY_BRANCH_AUTOCRACY
; Function compile flags: /Ogtpy
;	COMDAT ?getPOLICY_BRANCH_AUTOCRACY@CvGlobals@@QAEHXZ
_TEXT	SEGMENT
?getPOLICY_BRANCH_AUTOCRACY@CvGlobals@@QAEHXZ PROC	; CvGlobals::getPOLICY_BRANCH_AUTOCRACY, COMDAT
; _this$ = ecx

; 7603 : 		return m_iPOLICY_BRANCH_AUTOCRACY;

	mov	eax, DWORD PTR [ecx+8380]

; 7604 : 	}

	ret	0
?getPOLICY_BRANCH_AUTOCRACY@CvGlobals@@QAEHXZ ENDP	; CvGlobals::getPOLICY_BRANCH_AUTOCRACY
_TEXT	ENDS
PUBLIC	?getPOLICY_BRANCH_ORDER@CvGlobals@@QAEHXZ	; CvGlobals::getPOLICY_BRANCH_ORDER
; Function compile flags: /Ogtpy
;	COMDAT ?getPOLICY_BRANCH_ORDER@CvGlobals@@QAEHXZ
_TEXT	SEGMENT
?getPOLICY_BRANCH_ORDER@CvGlobals@@QAEHXZ PROC		; CvGlobals::getPOLICY_BRANCH_ORDER, COMDAT
; _this$ = ecx

; 7607 : 		return m_iPOLICY_BRANCH_ORDER;

	mov	eax, DWORD PTR [ecx+8384]

; 7608 : 	}

	ret	0
?getPOLICY_BRANCH_ORDER@CvGlobals@@QAEHXZ ENDP		; CvGlobals::getPOLICY_BRANCH_ORDER
_TEXT	ENDS
PUBLIC	?getDLLIFace@CvGlobals@@QAEPAVICvEngineUtility4@@XZ ; CvGlobals::getDLLIFace
; Function compile flags: /Ogtpy
;	COMDAT ?getDLLIFace@CvGlobals@@QAEPAVICvEngineUtility4@@XZ
_TEXT	SEGMENT
?getDLLIFace@CvGlobals@@QAEPAVICvEngineUtility4@@XZ PROC ; CvGlobals::getDLLIFace, COMDAT
; _this$ = ecx

; 7738 : 		return m_pDLL;

	mov	eax, DWORD PTR [ecx+8596]

; 7739 : 	}

	ret	0
?getDLLIFace@CvGlobals@@QAEPAVICvEngineUtility4@@XZ ENDP ; CvGlobals::getDLLIFace
_TEXT	ENDS
PUBLIC	?GetEngineUserInterface@CvGlobals@@QAEPAVICvUserInterface2@@XZ ; CvGlobals::GetEngineUserInterface
; Function compile flags: /Ogtpy
;	COMDAT ?GetEngineUserInterface@CvGlobals@@QAEPAVICvUserInterface2@@XZ
_TEXT	SEGMENT
?GetEngineUserInterface@CvGlobals@@QAEPAVICvUserInterface2@@XZ PROC ; CvGlobals::GetEngineUserInterface, COMDAT
; _this$ = ecx

; 7748 : 		return m_pEngineUI;

	mov	eax, DWORD PTR [ecx+8600]

; 7749 : 	}

	ret	0
?GetEngineUserInterface@CvGlobals@@QAEPAVICvUserInterface2@@XZ ENDP ; CvGlobals::GetEngineUserInterface
_TEXT	ENDS
PUBLIC	??4CvString@@QAEAAV0@ABV0@@Z			; CvString::operator=
EXTRN	__imp_??4?$basic_string@DU?$char_traits@D@std@@V?$allocator@D@2@@std@@QAEAAV01@ABV01@@Z:PROC
; Function compile flags: /Ogtpy
;	COMDAT ??4CvString@@QAEAAV0@ABV0@@Z
_TEXT	SEGMENT
___that$ = 8						; size = 4
??4CvString@@QAEAAV0@ABV0@@Z PROC			; CvString::operator=, COMDAT
; _this$ = ecx
	mov	eax, DWORD PTR ___that$[esp-4]
	push	esi
	push	eax
	mov	esi, ecx
	call	DWORD PTR __imp_??4?$basic_string@DU?$char_traits@D@std@@V?$allocator@D@2@@std@@QAEAAV01@ABV01@@Z
	mov	eax, esi
	pop	esi
	ret	4
??4CvString@@QAEAAV0@ABV0@@Z ENDP			; CvString::operator=
_TEXT	ENDS
PUBLIC	?getPlayer@CvPlayerAI@@SAAAV1@W4PlayerTypes@@@Z	; CvPlayerAI::getPlayer
EXTRN	?m_aPlayers@CvPlayerAI@@1PAV1@A:DWORD		; CvPlayerAI::m_aPlayers
; Function compile flags: /Ogtpy
; File c:\users\enormousapplepie\documents\github\lekmod\lekmod_dll\cvgamecoredll_expansion2\cvplayerai.h
;	COMDAT ?getPlayer@CvPlayerAI@@SAAAV1@W4PlayerTypes@@@Z
_TEXT	SEGMENT
_ePlayer$ = 8						; size = 4
?getPlayer@CvPlayerAI@@SAAAV1@W4PlayerTypes@@@Z PROC	; CvPlayerAI::getPlayer, COMDAT

; 28   : 		CvAssertMsg(ePlayer != NO_PLAYER, "Player is not assigned a valid value");
; 29   : 		CvAssertMsg(ePlayer < MAX_PLAYERS, "Player is not assigned a valid value");
; 30   : 		return m_aPlayers[ePlayer];

	mov	eax, DWORD PTR _ePlayer$[esp-4]
	imul	eax, 63236				; 0000f704H
	add	eax, DWORD PTR ?m_aPlayers@CvPlayerAI@@1PAV1@A ; CvPlayerAI::m_aPlayers

; 31   : 	}

	ret	0
?getPlayer@CvPlayerAI@@SAAAV1@W4PlayerTypes@@@Z ENDP	; CvPlayerAI::getPlayer
_TEXT	ENDS
PUBLIC	?getX@CvPlot@@QBEHXZ				; CvPlot::getX
; Function compile flags: /Ogtpy
; File c:\users\enormousapplepie\documents\github\lekmod\lekmod_dll\cvgamecoredll_expansion2\cvplot.h
;	COMDAT ?getX@CvPlot@@QBEHXZ
_TEXT	SEGMENT
?getX@CvPlot@@QBEHXZ PROC				; CvPlot::getX, COMDAT
; _this$ = ecx

; 307  : 		return m_iX;

	movsx	eax, WORD PTR [ecx]

; 308  : 	}

	ret	0
?getX@CvPlot@@QBEHXZ ENDP				; CvPlot::getX
_TEXT	ENDS
PUBLIC	?getY@CvPlot@@QBEHXZ				; CvPlot::getY
; Function compile flags: /Ogtpy
;	COMDAT ?getY@CvPlot@@QBEHXZ
_TEXT	SEGMENT
?getY@CvPlot@@QBEHXZ PROC				; CvPlot::getY, COMDAT
; _this$ = ecx

; 312  : 		return m_iY;

	movsx	eax, WORD PTR [ecx+2]

; 313  : 	}

	ret	0
?getY@CvPlot@@QBEHXZ ENDP				; CvPlot::getY
_TEXT	ENDS
PUBLIC	?getOwner@CvPlot@@QBE?AW4PlayerTypes@@XZ	; CvPlot::getOwner
; Function compile flags: /Ogtpy
;	COMDAT ?getOwner@CvPlot@@QBE?AW4PlayerTypes@@XZ
_TEXT	SEGMENT
?getOwner@CvPlot@@QBE?AW4PlayerTypes@@XZ PROC		; CvPlot::getOwner, COMDAT
; _this$ = ecx

; 387  : 		return (PlayerTypes)m_eOwner;

	movsx	eax, BYTE PTR [ecx+4]

; 388  : 	}

	ret	0
?getOwner@CvPlot@@QBE?AW4PlayerTypes@@XZ ENDP		; CvPlot::getOwner
_TEXT	ENDS
PUBLIC	?isWater@CvPlot@@QBE_NXZ			; CvPlot::isWater
; Function compile flags: /Ogtpy
;	COMDAT ?isWater@CvPlot@@QBE_NXZ
_TEXT	SEGMENT
?isWater@CvPlot@@QBE_NXZ PROC				; CvPlot::isWater, COMDAT
; _this$ = ecx

; 409  : 		return (PlotTypes)m_ePlotType == PLOT_OCEAN;

	xor	eax, eax
	cmp	BYTE PTR [ecx+5], 3
	sete	al

; 410  : 	};

	ret	0
?isWater@CvPlot@@QBE_NXZ ENDP				; CvPlot::isWater
_TEXT	ENDS
PUBLIC	?isRiver@CvPlot@@QBE_NXZ			; CvPlot::isRiver
; Function compile flags: /Ogtpy
;	COMDAT ?isRiver@CvPlot@@QBE_NXZ
_TEXT	SEGMENT
?isRiver@CvPlot@@QBE_NXZ PROC				; CvPlot::isRiver, COMDAT
; _this$ = ecx

; 426  : 		return m_iRiverCrossingCount > 0;

	xor	eax, eax
	cmp	BYTE PTR [ecx+457], al
	setg	al

; 427  : 	}

	ret	0
?isRiver@CvPlot@@QBE_NXZ ENDP				; CvPlot::isRiver
_TEXT	ENDS
PUBLIC	?getPlotCity@CvPlot@@QBEPAVCvCity@@XZ		; CvPlot::getPlotCity
EXTRN	?getCity@CvPlayer@@QAEPAVCvCity@@H@Z:PROC	; CvPlayer::getCity
; Function compile flags: /Ogtpy
;	COMDAT ?getPlotCity@CvPlot@@QBEPAVCvCity@@XZ
_TEXT	SEGMENT
?getPlotCity@CvPlot@@QBEPAVCvCity@@XZ PROC		; CvPlot::getPlotCity, COMDAT
; _this$ = ecx

; 533  : 		if((m_plotCity.eOwner >= 0) && m_plotCity.eOwner < MAX_PLAYERS)

	mov	eax, DWORD PTR [ecx+104]
	test	eax, eax
	jl	SHORT $LN1@getPlotCit
	cmp	eax, 64					; 00000040H
	jge	SHORT $LN1@getPlotCit

; 534  : 			return (GET_PLAYER((PlayerTypes)m_plotCity.eOwner).getCity(m_plotCity.iID));

	mov	ecx, DWORD PTR [ecx+108]
	imul	eax, 63236				; 0000f704H
	add	eax, DWORD PTR ?m_aPlayers@CvPlayerAI@@1PAV1@A ; CvPlayerAI::m_aPlayers
	push	ecx
	mov	ecx, eax
	call	?getCity@CvPlayer@@QAEPAVCvCity@@H@Z	; CvPlayer::getCity

; 537  : 	}

	ret	0
$LN1@getPlotCit:

; 535  : 
; 536  : 		return NULL;

	xor	eax, eax

; 537  : 	}

	ret	0
?getPlotCity@CvPlot@@QBEPAVCvCity@@XZ ENDP		; CvPlot::getPlotCity
_TEXT	ENDS
PUBLIC	?getVisibilityCount@CvPlot@@QBEHW4TeamTypes@@@Z	; CvPlot::getVisibilityCount
; Function compile flags: /Ogtpy
;	COMDAT ?getVisibilityCount@CvPlot@@QBEHW4TeamTypes@@@Z
_TEXT	SEGMENT
_eTeam$ = 8						; size = 4
?getVisibilityCount@CvPlot@@QBEHW4TeamTypes@@@Z PROC	; CvPlot::getVisibilityCount, COMDAT
; _this$ = ecx

; 588  : 		CvAssertMsg(eTeam >= 0, "eTeam is expected to be non-negative (invalid Index)");
; 589  : 		CvAssertMsg(eTeam < MAX_TEAMS, "eTeam is expected to be within maximum bounds (invalid Index)");
; 590  : 
; 591  : 		return m_aiVisibilityCount[eTeam];

	mov	eax, DWORD PTR [ecx+156]
	mov	ecx, DWORD PTR _eTeam$[esp-4]
	movsx	eax, WORD PTR [eax+ecx*2]

; 592  : 	}

	ret	4
?getVisibilityCount@CvPlot@@QBEHW4TeamTypes@@@Z ENDP	; CvPlot::getVisibilityCount
_TEXT	ENDS
PUBLIC	?GetBit@PlotBoolField@CvPlot@@QBE_NI@Z		; CvPlot::PlotBoolField::GetBit
; Function compile flags: /Ogtpy
;	COMDAT ?GetBit@PlotBoolField@CvPlot@@QBE_NI@Z
_TEXT	SEGMENT
_uiEntry$ = 8						; size = 4
?GetBit@PlotBoolField@CvPlot@@QBE_NI@Z PROC		; CvPlot::PlotBoolField::GetBit, COMDAT
; _this$ = ecx

; 767  : 		{

	mov	edx, ecx

; 768  : 			const uint uiOffset = uiEntry/eSize;

	mov	ecx, DWORD PTR _uiEntry$[esp-4]
	push	esi
	mov	eax, ecx
	shr	eax, 5

; 769  : 			return m_dwBits[uiOffset] & 1<<(uiEntry-(eSize*uiOffset));

	mov	esi, eax
	shl	esi, 5
	sub	ecx, esi
	mov	esi, 1
	shl	esi, cl
	test	esi, DWORD PTR [edx+eax*4]
	pop	esi
	setne	al

; 770  : 		}

	ret	4
?GetBit@PlotBoolField@CvPlot@@QBE_NI@Z ENDP		; CvPlot::PlotBoolField::GetBit
_TEXT	ENDS
PUBLIC	?coordRange@@YAHHH_N@Z				; coordRange
; Function compile flags: /Ogtpy
; File c:\users\enormousapplepie\documents\github\lekmod\lekmod_dll\cvgamecoredll_expansion2\cvmap.h
;	COMDAT ?coordRange@@YAHHH_N@Z
_TEXT	SEGMENT
_iCoord$ = 8						; size = 4
_iRange$ = 12						; size = 4
_bWrap$ = 16						; size = 1
?coordRange@@YAHHH_N@Z PROC				; coordRange, COMDAT

; 88   : 	if(bWrap)

	cmp	BYTE PTR _bWrap$[esp-4], 0
	mov	eax, DWORD PTR _iCoord$[esp-4]
	je	SHORT $LN5@coordRange

; 89   : 	{
; 90   : 		if(iCoord < 0)
; 91   : 		{
; 92   : 			return (iRange + (iCoord % iRange));

	mov	ecx, DWORD PTR _iRange$[esp-4]
	test	eax, eax
	jge	SHORT $LN3@coordRange
	cdq
	idiv	ecx
	mov	eax, edx
	add	eax, ecx

; 97   : 		}
; 98   : 	}
; 99   : 
; 100  : 	return iCoord;
; 101  : }

	ret	0
$LN3@coordRange:

; 93   : 		}
; 94   : 		else if(iCoord >= iRange)

	cmp	eax, ecx
	jl	SHORT $LN5@coordRange

; 95   : 		{
; 96   : 			return (iCoord % iRange);

	cdq
	idiv	ecx
	mov	eax, edx
$LN5@coordRange:

; 97   : 		}
; 98   : 	}
; 99   : 
; 100  : 	return iCoord;
; 101  : }

	ret	0
?coordRange@@YAHHH_N@Z ENDP				; coordRange
_TEXT	ENDS
PUBLIC	?getGridWidth@CvMap@@QBEHXZ			; CvMap::getGridWidth
; Function compile flags: /Ogtpy
;	COMDAT ?getGridWidth@CvMap@@QBEHXZ
_TEXT	SEGMENT
?getGridWidth@CvMap@@QBEHXZ PROC			; CvMap::getGridWidth, COMDAT
; _this$ = ecx

; 198  : 		return m_iGridWidth;

	mov	eax, DWORD PTR [ecx+4020]

; 199  : 	}

	ret	0
?getGridWidth@CvMap@@QBEHXZ ENDP			; CvMap::getGridWidth
_TEXT	ENDS
PUBLIC	?getGridHeight@CvMap@@QBEHXZ			; CvMap::getGridHeight
; Function compile flags: /Ogtpy
;	COMDAT ?getGridHeight@CvMap@@QBEHXZ
_TEXT	SEGMENT
?getGridHeight@CvMap@@QBEHXZ PROC			; CvMap::getGridHeight, COMDAT
; _this$ = ecx

; 206  : 		return m_iGridHeight;

	mov	eax, DWORD PTR [ecx+4024]

; 207  : 	}

	ret	0
?getGridHeight@CvMap@@QBEHXZ ENDP			; CvMap::getGridHeight
_TEXT	ENDS
PUBLIC	?isWrapX@CvMap@@QBE_NXZ				; CvMap::isWrapX
; Function compile flags: /Ogtpy
;	COMDAT ?isWrapX@CvMap@@QBE_NXZ
_TEXT	SEGMENT
?isWrapX@CvMap@@QBE_NXZ PROC				; CvMap::isWrapX, COMDAT
; _this$ = ecx

; 228  : 		return m_bWrapX;

	mov	al, BYTE PTR [ecx+4056]

; 229  : 	}

	ret	0
?isWrapX@CvMap@@QBE_NXZ ENDP				; CvMap::isWrapX
_TEXT	ENDS
PUBLIC	?isWrapY@CvMap@@QBE_NXZ				; CvMap::isWrapY
; Function compile flags: /Ogtpy
;	COMDAT ?isWrapY@CvMap@@QBE_NXZ
_TEXT	SEGMENT
?isWrapY@CvMap@@QBE_NXZ PROC				; CvMap::isWrapY, COMDAT
; _this$ = ecx

; 233  : 		return m_bWrapY;

	mov	al, BYTE PTR [ecx+4057]

; 234  : 	}

	ret	0
?isWrapY@CvMap@@QBE_NXZ ENDP				; CvMap::isWrapY
_TEXT	ENDS
PUBLIC	?getTeam@CvTeam@@SAAAV1@W4TeamTypes@@@Z		; CvTeam::getTeam
EXTRN	?m_aTeams@CvTeam@@1PAV1@A:DWORD			; CvTeam::m_aTeams
; Function compile flags: /Ogtpy
; File c:\users\enormousapplepie\documents\github\lekmod\lekmod_dll\cvgamecoredll_expansion2\cvteam.h
;	COMDAT ?getTeam@CvTeam@@SAAAV1@W4TeamTypes@@@Z
_TEXT	SEGMENT
_eTeam$ = 8						; size = 4
?getTeam@CvTeam@@SAAAV1@W4TeamTypes@@@Z PROC		; CvTeam::getTeam, COMDAT

; 29   : 		CvAssertMsg(eTeam != NO_TEAM, "eTeam is not assigned a valid value");
; 30   : 		CvAssertMsg(eTeam < MAX_TEAMS, "eTeam is not assigned a valid value");
; 31   : 		return m_aTeams[eTeam];

	mov	eax, DWORD PTR _eTeam$[esp-4]
	imul	eax, 2984				; 00000ba8H
	add	eax, DWORD PTR ?m_aTeams@CvTeam@@1PAV1@A ; CvTeam::m_aTeams

; 32   : 	}

	ret	0
?getTeam@CvTeam@@SAAAV1@W4TeamTypes@@@Z ENDP		; CvTeam::getTeam
_TEXT	ENDS
PUBLIC	??0CvString@@QAE@ABV0@@Z			; CvString::CvString
; Function compile flags: /Ogtpy
;	COMDAT ??0CvString@@QAE@ABV0@@Z
_TEXT	SEGMENT
___that$ = 8						; size = 4
??0CvString@@QAE@ABV0@@Z PROC				; CvString::CvString, COMDAT
; _this$ = ecx
	mov	eax, DWORD PTR ___that$[esp-4]
	push	esi
	push	eax
	mov	esi, ecx
	call	DWORD PTR __imp_??0?$basic_string@DU?$char_traits@D@std@@V?$allocator@D@2@@std@@QAE@ABV01@@Z
	mov	eax, esi
	pop	esi
	ret	4
??0CvString@@QAE@ABV0@@Z ENDP				; CvString::CvString
_TEXT	ENDS
PUBLIC	?GetNumTradeRoutesModifier@CvPlayerTraits@@QBEHXZ ; CvPlayerTraits::GetNumTradeRoutesModifier
; Function compile flags: /Ogtpy
; File c:\users\enormousapplepie\documents\github\lekmod\lekmod_dll\cvgamecoredll_expansion2\cvtraitclasses.h
;	COMDAT ?GetNumTradeRoutesModifier@CvPlayerTraits@@QBEHXZ
_TEXT	SEGMENT
?GetNumTradeRoutesModifier@CvPlayerTraits@@QBEHXZ PROC	; CvPlayerTraits::GetNumTradeRoutesModifier, COMDAT
; _this$ = ecx

; 712  : 		return m_iNumTradeRoutesModifier;

	mov	eax, DWORD PTR [ecx+292]

; 713  : 	}

	ret	0
?GetNumTradeRoutesModifier@CvPlayerTraits@@QBEHXZ ENDP	; CvPlayerTraits::GetNumTradeRoutesModifier
_TEXT	ENDS
PUBLIC	?GetTradeRouteResourceModifier@CvPlayerTraits@@QBEHXZ ; CvPlayerTraits::GetTradeRouteResourceModifier
; Function compile flags: /Ogtpy
;	COMDAT ?GetTradeRouteResourceModifier@CvPlayerTraits@@QBEHXZ
_TEXT	SEGMENT
?GetTradeRouteResourceModifier@CvPlayerTraits@@QBEHXZ PROC ; CvPlayerTraits::GetTradeRouteResourceModifier, COMDAT
; _this$ = ecx

; 716  : 		return m_iTradeRouteResourceModifier;

	mov	eax, DWORD PTR [ecx+296]

; 717  : 	}

	ret	0
?GetTradeRouteResourceModifier@CvPlayerTraits@@QBEHXZ ENDP ; CvPlayerTraits::GetTradeRouteResourceModifier
_TEXT	ENDS
PUBLIC	?GetLandTradeRouteRangeBonus@CvPlayerTraits@@QBEHXZ ; CvPlayerTraits::GetLandTradeRouteRangeBonus
; Function compile flags: /Ogtpy
;	COMDAT ?GetLandTradeRouteRangeBonus@CvPlayerTraits@@QBEHXZ
_TEXT	SEGMENT
?GetLandTradeRouteRangeBonus@CvPlayerTraits@@QBEHXZ PROC ; CvPlayerTraits::GetLandTradeRouteRangeBonus, COMDAT
; _this$ = ecx

; 736  : 		return m_iLandTradeRouteRangeBonus;

	mov	eax, DWORD PTR [ecx+320]

; 737  : 	}

	ret	0
?GetLandTradeRouteRangeBonus@CvPlayerTraits@@QBEHXZ ENDP ; CvPlayerTraits::GetLandTradeRouteRangeBonus
_TEXT	ENDS
PUBLIC	?GetTradeBuildingModifier@CvPlayerTraits@@QBEHXZ ; CvPlayerTraits::GetTradeBuildingModifier
; Function compile flags: /Ogtpy
;	COMDAT ?GetTradeBuildingModifier@CvPlayerTraits@@QBEHXZ
_TEXT	SEGMENT
?GetTradeBuildingModifier@CvPlayerTraits@@QBEHXZ PROC	; CvPlayerTraits::GetTradeBuildingModifier, COMDAT
; _this$ = ecx

; 744  : 		return m_iTradeBuildingModifier;

	mov	eax, DWORD PTR [ecx+328]

; 745  : 	}

	ret	0
?GetTradeBuildingModifier@CvPlayerTraits@@QBEHXZ ENDP	; CvPlayerTraits::GetTradeBuildingModifier
_TEXT	ENDS
PUBLIC	?GetYieldChangeIncomingTradeRoute@CvPlayerTraits@@QBEHW4YieldTypes@@@Z ; CvPlayerTraits::GetYieldChangeIncomingTradeRoute
; Function compile flags: /Ogtpy
;	COMDAT ?GetYieldChangeIncomingTradeRoute@CvPlayerTraits@@QBEHW4YieldTypes@@@Z
_TEXT	SEGMENT
_eYield$ = 8						; size = 4
?GetYieldChangeIncomingTradeRoute@CvPlayerTraits@@QBEHW4YieldTypes@@@Z PROC ; CvPlayerTraits::GetYieldChangeIncomingTradeRoute, COMDAT
; _this$ = ecx

; 894  : 		return m_iYieldChangeIncomingTradeRoute[(int)eYield];

	mov	eax, DWORD PTR _eYield$[esp-4]
	mov	eax, DWORD PTR [ecx+eax*4+528]

; 895  : 	};

	ret	4
?GetYieldChangeIncomingTradeRoute@CvPlayerTraits@@QBEHW4YieldTypes@@@Z ENDP ; CvPlayerTraits::GetYieldChangeIncomingTradeRoute
_TEXT	ENDS
PUBLIC	?GetExtraTradeRoutes@CvReligionBeliefs@@QBEHXZ	; CvReligionBeliefs::GetExtraTradeRoutes
; Function compile flags: /Ogtpy
; File c:\users\enormousapplepie\documents\github\lekmod\lekmod_dll\cvgamecoredll_expansion2\cvbeliefclasses.h
;	COMDAT ?GetExtraTradeRoutes@CvReligionBeliefs@@QBEHXZ
_TEXT	SEGMENT
?GetExtraTradeRoutes@CvReligionBeliefs@@QBEHXZ PROC	; CvReligionBeliefs::GetExtraTradeRoutes, COMDAT
; _this$ = ecx

; 412  : 		return m_iExtraTradeRoutes;

	mov	eax, DWORD PTR [ecx+72]

; 413  : 	};

	ret	0
?GetExtraTradeRoutes@CvReligionBeliefs@@QBEHXZ ENDP	; CvReligionBeliefs::GetExtraTradeRoutes
_TEXT	ENDS
PUBLIC	?GetLastNode@CvAStar@@QAEPAVCvAStarNode@@XZ	; CvAStar::GetLastNode
; Function compile flags: /Ogtpy
; File c:\users\enormousapplepie\documents\github\lekmod\lekmod_dll\cvgamecoredll_expansion2\cvastar.h
;	COMDAT ?GetLastNode@CvAStar@@QAEPAVCvAStarNode@@XZ
_TEXT	SEGMENT
?GetLastNode@CvAStar@@QAEPAVCvAStarNode@@XZ PROC	; CvAStar::GetLastNode, COMDAT
; _this$ = ecx

; 98   : 		return m_pBest;

	mov	eax, DWORD PTR [ecx+96]

; 99   : 	}

	ret	0
?GetLastNode@CvAStar@@QAEPAVCvAStarNode@@XZ ENDP	; CvAStar::GetLastNode
_TEXT	ENDS
PUBLIC	?size@?$vector@HV?$allocator@H@std@@@std@@QBEIXZ ; std::vector<int,std::allocator<int> >::size
; Function compile flags: /Ogtpy
; File c:\program files (x86)\microsoft visual studio 9.0\vc\include\vector
;	COMDAT ?size@?$vector@HV?$allocator@H@std@@@std@@QBEIXZ
_TEXT	SEGMENT
?size@?$vector@HV?$allocator@H@std@@@std@@QBEIXZ PROC	; std::vector<int,std::allocator<int> >::size, COMDAT
; _this$ = ecx

; 726  : 		return (_Mylast - _Myfirst);

	mov	eax, DWORD PTR [ecx+8]
	sub	eax, DWORD PTR [ecx+4]
	sar	eax, 2

; 727  : 		}

	ret	0
?size@?$vector@HV?$allocator@H@std@@@std@@QBEIXZ ENDP	; std::vector<int,std::allocator<int> >::size
_TEXT	ENDS
PUBLIC	??A?$vector@W4TeamTypes@@V?$allocator@W4TeamTypes@@@std@@@std@@QBEABW4TeamTypes@@I@Z ; std::vector<enum TeamTypes,std::allocator<enum TeamTypes> >::operator[]
; Function compile flags: /Ogtpy
;	COMDAT ??A?$vector@W4TeamTypes@@V?$allocator@W4TeamTypes@@@std@@@std@@QBEABW4TeamTypes@@I@Z
_TEXT	SEGMENT
__Pos$ = 8						; size = 4
??A?$vector@W4TeamTypes@@V?$allocator@W4TeamTypes@@@std@@@std@@QBEABW4TeamTypes@@I@Z PROC ; std::vector<enum TeamTypes,std::allocator<enum TeamTypes> >::operator[], COMDAT
; _this$ = ecx

; 760  : 
; 761  :  #if _HAS_ITERATOR_DEBUGGING
; 762  : 		if (size() <= _Pos)
; 763  : 			{
; 764  : 			_DEBUG_ERROR("vector subscript out of range");
; 765  : 			_SCL_SECURE_OUT_OF_RANGE;
; 766  : 			}
; 767  :  #endif /* _HAS_ITERATOR_DEBUGGING */
; 768  : 		_SCL_SECURE_VALIDATE_RANGE(_Pos < size());
; 769  : 
; 770  : 		return (*(_Myfirst + _Pos));

	mov	eax, DWORD PTR [ecx+4]
	mov	ecx, DWORD PTR __Pos$[esp-4]
	lea	eax, DWORD PTR [eax+ecx*4]

; 771  : 		}

	ret	4
??A?$vector@W4TeamTypes@@V?$allocator@W4TeamTypes@@@std@@@std@@QBEABW4TeamTypes@@I@Z ENDP ; std::vector<enum TeamTypes,std::allocator<enum TeamTypes> >::operator[]
_TEXT	ENDS
PUBLIC	??1?$_Container_base_aux_alloc_empty@V?$allocator@H@std@@@std@@IAE@XZ ; std::_Container_base_aux_alloc_empty<std::allocator<int> >::~_Container_base_aux_alloc_empty<std::allocator<int> >
; Function compile flags: /Ogtpy
; File c:\program files (x86)\microsoft visual studio 9.0\vc\include\xutility
;	COMDAT ??1?$_Container_base_aux_alloc_empty@V?$allocator@H@std@@@std@@IAE@XZ
_TEXT	SEGMENT
??1?$_Container_base_aux_alloc_empty@V?$allocator@H@std@@@std@@IAE@XZ PROC ; std::_Container_base_aux_alloc_empty<std::allocator<int> >::~_Container_base_aux_alloc_empty<std::allocator<int> >, COMDAT
; _this$ = ecx

; 627  : 	~_Container_base_aux_alloc_empty() { }

	ret	0
??1?$_Container_base_aux_alloc_empty@V?$allocator@H@std@@@std@@IAE@XZ ENDP ; std::_Container_base_aux_alloc_empty<std::allocator<int> >::~_Container_base_aux_alloc_empty<std::allocator<int> >
_TEXT	ENDS
PUBLIC	??0?$allocator@H@std@@QAE@XZ			; std::allocator<int>::allocator<int>
; Function compile flags: /Ogtpy
; File c:\program files (x86)\microsoft visual studio 9.0\vc\include\xmemory
;	COMDAT ??0?$allocator@H@std@@QAE@XZ
_TEXT	SEGMENT
??0?$allocator@H@std@@QAE@XZ PROC			; std::allocator<int>::allocator<int>, COMDAT
; _this$ = ecx

; 119  : 	allocator() _THROW0()

	mov	eax, ecx

; 120  : 		{	// construct default allocator (do nothing)
; 121  : 		}

	ret	0
??0?$allocator@H@std@@QAE@XZ ENDP			; std::allocator<int>::allocator<int>
; Function compile flags: /Ogtpy
_TEXT	ENDS
;	COMDAT ??0length_error@std@@QAE@ABV01@@Z
_TEXT	SEGMENT
___that$ = 8						; size = 4
??0length_error@std@@QAE@ABV01@@Z PROC			; std::length_error::length_error, COMDAT
; _this$ = ecx
	mov	eax, DWORD PTR ___that$[esp-4]
	push	esi
	push	eax
	mov	esi, ecx
	call	??0logic_error@std@@QAE@ABV01@@Z
	mov	DWORD PTR [esi], OFFSET ??_7length_error@std@@6B@
	mov	eax, esi
	pop	esi
	ret	4
??0length_error@std@@QAE@ABV01@@Z ENDP			; std::length_error::length_error
_TEXT	ENDS
PUBLIC	?_Xlen@?$vector@HV?$allocator@H@std@@@std@@KAXXZ ; std::vector<int,std::allocator<int> >::_Xlen
;	COMDAT xdata$x
; File c:\program files (x86)\microsoft visual studio 9.0\vc\include\stdexcept
xdata$x	SEGMENT
__unwindtable$?_Xlen@?$vector@HV?$allocator@H@std@@@std@@KAXXZ DD 0ffffffffH
	DD	FLAT:__unwindfunclet$?_Xlen@?$vector@HV?$allocator@H@std@@@std@@KAXXZ$0
	DD	00H
	DD	FLAT:__unwindfunclet$?_Xlen@?$vector@HV?$allocator@H@std@@@std@@KAXXZ$2
__ehfuncinfo$?_Xlen@?$vector@HV?$allocator@H@std@@@std@@KAXXZ DD 019930522H
	DD	02H
	DD	FLAT:__unwindtable$?_Xlen@?$vector@HV?$allocator@H@std@@@std@@KAXXZ
	DD	2 DUP(00H)
	DD	2 DUP(00H)
	DD	00H
	DD	01H
; Function compile flags: /Ogtpy
; File c:\program files (x86)\microsoft visual studio 9.0\vc\include\vector
xdata$x	ENDS
;	COMDAT ?_Xlen@?$vector@HV?$allocator@H@std@@@std@@KAXXZ
_TEXT	SEGMENT
$T229339 = -80						; size = 28
$T229338 = -52						; size = 40
__$EHRec$ = -12						; size = 12
?_Xlen@?$vector@HV?$allocator@H@std@@@std@@KAXXZ PROC	; std::vector<int,std::allocator<int> >::_Xlen, COMDAT

; 1259 : 		{	// report a length_error

	push	-1
	push	__ehhandler$?_Xlen@?$vector@HV?$allocator@H@std@@@std@@KAXXZ
	mov	eax, DWORD PTR fs:0
	push	eax
	mov	DWORD PTR fs:0, esp
	sub	esp, 68					; 00000044H

; 1260 : 		_THROW(length_error, "vector<T> too long");

	push	OFFSET ??_C@_0BD@OLBABOEK@vector?$DMT?$DO?5too?5long?$AA@
	lea	ecx, DWORD PTR $T229339[esp+84]
	call	DWORD PTR __imp_??0?$basic_string@DU?$char_traits@D@std@@V?$allocator@D@2@@std@@QAE@PBD@Z
	lea	ecx, DWORD PTR $T229338[esp+80]
	mov	DWORD PTR __$EHRec$[esp+88], 0
	call	DWORD PTR __imp_??0exception@std@@QAE@XZ
	lea	eax, DWORD PTR $T229339[esp+80]
	push	eax
	lea	ecx, DWORD PTR $T229338[esp+96]
	mov	BYTE PTR __$EHRec$[esp+92], 1
	mov	DWORD PTR $T229338[esp+84], OFFSET ??_7logic_error@std@@6B@
	call	DWORD PTR __imp_??0?$basic_string@DU?$char_traits@D@std@@V?$allocator@D@2@@std@@QAE@ABV01@@Z
	push	OFFSET __TI3?AVlength_error@std@@
	lea	ecx, DWORD PTR $T229338[esp+84]
	push	ecx
	mov	BYTE PTR __$EHRec$[esp+96], 0
	mov	DWORD PTR $T229338[esp+88], OFFSET ??_7length_error@std@@6B@
	call	__CxxThrowException@8
$LN13@Xlen@4:
$LN12@Xlen@4:
	int	3
_TEXT	ENDS
;	COMDAT text$x
text$x	SEGMENT
__unwindfunclet$?_Xlen@?$vector@HV?$allocator@H@std@@@std@@KAXXZ$0:
	lea	ecx, DWORD PTR $T229339[ebp]
	jmp	DWORD PTR __imp_??1?$basic_string@DU?$char_traits@D@std@@V?$allocator@D@2@@std@@QAE@XZ
__unwindfunclet$?_Xlen@?$vector@HV?$allocator@H@std@@@std@@KAXXZ$2:
	lea	ecx, DWORD PTR $T229338[ebp]
	jmp	DWORD PTR __imp_??1exception@std@@UAE@XZ
__ehhandler$?_Xlen@?$vector@HV?$allocator@H@std@@@std@@KAXXZ:
	mov	eax, OFFSET __ehfuncinfo$?_Xlen@?$vector@HV?$allocator@H@std@@@std@@KAXXZ
	jmp	___CxxFrameHandler3
text$x	ENDS
?_Xlen@?$vector@HV?$allocator@H@std@@@std@@KAXXZ ENDP	; std::vector<int,std::allocator<int> >::_Xlen
PUBLIC	??0?$_Container_base_aux_alloc_empty@V?$allocator@H@std@@@std@@IAE@V?$allocator@H@1@@Z ; std::_Container_base_aux_alloc_empty<std::allocator<int> >::_Container_base_aux_alloc_empty<std::allocator<int> >
; Function compile flags: /Ogtpy
; File c:\program files (x86)\microsoft visual studio 9.0\vc\include\xutility
;	COMDAT ??0?$_Container_base_aux_alloc_empty@V?$allocator@H@std@@@std@@IAE@V?$allocator@H@1@@Z
_TEXT	SEGMENT
___formal$ = 8						; size = 1
??0?$_Container_base_aux_alloc_empty@V?$allocator@H@std@@@std@@IAE@V?$allocator@H@1@@Z PROC ; std::_Container_base_aux_alloc_empty<std::allocator<int> >::_Container_base_aux_alloc_empty<std::allocator<int> >, COMDAT
; _this$ = ecx

; 618  : 	explicit _Container_base_aux_alloc_empty(_Alloc) { }

	mov	eax, ecx
	ret	4
??0?$_Container_base_aux_alloc_empty@V?$allocator@H@std@@@std@@IAE@V?$allocator@H@1@@Z ENDP ; std::_Container_base_aux_alloc_empty<std::allocator<int> >::_Container_base_aux_alloc_empty<std::allocator<int> >
_TEXT	ENDS
PUBLIC	??0?$allocator@H@std@@QAE@ABV01@@Z		; std::allocator<int>::allocator<int>
; Function compile flags: /Ogtpy
; File c:\program files (x86)\microsoft visual studio 9.0\vc\include\xmemory
;	COMDAT ??0?$allocator@H@std@@QAE@ABV01@@Z
_TEXT	SEGMENT
___formal$ = 8						; size = 4
??0?$allocator@H@std@@QAE@ABV01@@Z PROC			; std::allocator<int>::allocator<int>, COMDAT
; _this$ = ecx

; 123  : 	allocator(const allocator<_Ty>&) _THROW0()

	mov	eax, ecx

; 124  : 		{	// construct by copying (do nothing)
; 125  : 		}

	ret	4
??0?$allocator@H@std@@QAE@ABV01@@Z ENDP			; std::allocator<int>::allocator<int>
_TEXT	ENDS
PUBLIC	?deallocate@?$allocator@H@std@@QAEXPAHI@Z	; std::allocator<int>::deallocate
; Function compile flags: /Ogtpy
;	COMDAT ?deallocate@?$allocator@H@std@@QAEXPAHI@Z
_TEXT	SEGMENT
__Ptr$ = 8						; size = 4
___formal$ = 12						; size = 4
?deallocate@?$allocator@H@std@@QAEXPAHI@Z PROC		; std::allocator<int>::deallocate, COMDAT
; _this$ = ecx

; 140  : 		::operator delete(_Ptr);

	mov	eax, DWORD PTR __Ptr$[esp-4]
	push	eax
	call	??3@YAXPAX@Z				; operator delete
	pop	ecx

; 141  : 		}

	ret	8
?deallocate@?$allocator@H@std@@QAEXPAHI@Z ENDP		; std::allocator<int>::deallocate
_TEXT	ENDS
PUBLIC	?max_size@?$allocator@H@std@@QBEIXZ		; std::allocator<int>::max_size
; Function compile flags: /Ogtpy
;	COMDAT ?max_size@?$allocator@H@std@@QBEIXZ
_TEXT	SEGMENT
?max_size@?$allocator@H@std@@QBEIXZ PROC		; std::allocator<int>::max_size, COMDAT
; _this$ = ecx

; 165  : 		_SIZT _Count = (_SIZT)(-1) / sizeof (_Ty);
; 166  : 		return (0 < _Count ? _Count : 1);

	mov	eax, 1073741823				; 3fffffffH

; 167  : 		}

	ret	0
?max_size@?$allocator@H@std@@QBEIXZ ENDP		; std::allocator<int>::max_size
_TEXT	ENDS
PUBLIC	?get@?$FAutoVariable@W4PlayerTypes@@VCvUnit@@@@QBEABW4PlayerTypes@@XZ ; FAutoVariable<enum PlayerTypes,CvUnit>::get
; Function compile flags: /Ogtpy
; File c:\users\enormousapplepie\documents\github\lekmod\lekmod_dll\fireplace\include\fireworks\fautovariable.h
;	COMDAT ?get@?$FAutoVariable@W4PlayerTypes@@VCvUnit@@@@QBEABW4PlayerTypes@@XZ
_TEXT	SEGMENT
?get@?$FAutoVariable@W4PlayerTypes@@VCvUnit@@@@QBEABW4PlayerTypes@@XZ PROC ; FAutoVariable<enum PlayerTypes,CvUnit>::get, COMDAT
; _this$ = ecx

; 177  : 	return m_value;

	lea	eax, DWORD PTR [ecx+4]

; 178  : }

	ret	0
?get@?$FAutoVariable@W4PlayerTypes@@VCvUnit@@@@QBEABW4PlayerTypes@@XZ ENDP ; FAutoVariable<enum PlayerTypes,CvUnit>::get
_TEXT	ENDS
PUBLIC	?get@?$FAutoVariable@HVCvUnit@@@@QBEABHXZ	; FAutoVariable<int,CvUnit>::get
; Function compile flags: /Ogtpy
;	COMDAT ?get@?$FAutoVariable@HVCvUnit@@@@QBEABHXZ
_TEXT	SEGMENT
?get@?$FAutoVariable@HVCvUnit@@@@QBEABHXZ PROC		; FAutoVariable<int,CvUnit>::get, COMDAT
; _this$ = ecx

; 177  : 	return m_value;

	lea	eax, DWORD PTR [ecx+4]

; 178  : }

	ret	0
?get@?$FAutoVariable@HVCvUnit@@@@QBEABHXZ ENDP		; FAutoVariable<int,CvUnit>::get
_TEXT	ENDS
PUBLIC	??B?$FAutoVariable@HVCvUnit@@@@QBEABHXZ		; FAutoVariable<int,CvUnit>::operator int const &
; Function compile flags: /Ogtpy
;	COMDAT ??B?$FAutoVariable@HVCvUnit@@@@QBEABHXZ
_TEXT	SEGMENT
??B?$FAutoVariable@HVCvUnit@@@@QBEABHXZ PROC		; FAutoVariable<int,CvUnit>::operator int const &, COMDAT
; _this$ = ecx

; 194  : 	return m_value;

	lea	eax, DWORD PTR [ecx+4]

; 195  : }

	ret	0
??B?$FAutoVariable@HVCvUnit@@@@QBEABHXZ ENDP		; FAutoVariable<int,CvUnit>::operator int const &
_TEXT	ENDS
PUBLIC	??$?6H@FDataStream@@QAEAAV0@ABH@Z		; FDataStream::operator<<<int>
EXTRN	?Write@FDataStream@@IAEXABH@Z:PROC		; FDataStream::Write
; Function compile flags: /Ogtpy
; File c:\users\enormousapplepie\documents\github\lekmod\lekmod_dll\fireplace\include\fireworks\fdatastream.h
;	COMDAT ??$?6H@FDataStream@@QAEAAV0@ABH@Z
_TEXT	SEGMENT
_kData$ = 8						; size = 4
??$?6H@FDataStream@@QAEAAV0@ABH@Z PROC			; FDataStream::operator<<<int>, COMDAT
; _this$ = ecx

; 246  : 	// If the compiler produces an error here complaining about 
; 247  : 	// YouMustImplementASerializeOperatorForThisTypeError then
; 248  : 	// it could not find a specialization for the type supplied
; 249  : 	// in scope. If a specialization exists, be sure to include
; 250  : 	// the header (FStlContainerSerialization.h, for example), 
; 251  : 	// if not, implement :
; 252  : 	// FDataStream & operator<<(FDataStream &, YourCustomType &)
; 253  : 	Write( kData );

	mov	eax, DWORD PTR _kData$[esp-4]
	push	esi
	push	eax
	mov	esi, ecx
	call	?Write@FDataStream@@IAEXABH@Z		; FDataStream::Write

; 254  : 	return ( *this );

	mov	eax, esi
	pop	esi

; 255  : }

	ret	4
??$?6H@FDataStream@@QAEAAV0@ABH@Z ENDP			; FDataStream::operator<<<int>
_TEXT	ENDS
PUBLIC	??$?5H@FDataStream@@QAEAAV0@AAH@Z		; FDataStream::operator>><int>
EXTRN	?Read@FDataStream@@IAEXAAH@Z:PROC		; FDataStream::Read
; Function compile flags: /Ogtpy
;	COMDAT ??$?5H@FDataStream@@QAEAAV0@AAH@Z
_TEXT	SEGMENT
_kData$ = 8						; size = 4
??$?5H@FDataStream@@QAEAAV0@AAH@Z PROC			; FDataStream::operator>><int>, COMDAT
; _this$ = ecx

; 260  : 	// If the compiler produces an error here complaining about 
; 261  : 	// YouMustImplementASerializeOperatorForThisTypeError then
; 262  : 	// it could not find a specialization for the type supplied
; 263  : 	// in scope. If a specialization exists, be sure to include
; 264  : 	// the header (FStlContainerSerialization.h, for example), 
; 265  : 	// if not, implement :
; 266  : 	// FDataStream & operator>>(FDataStream &, YourCustomType &)
; 267  : 	Read( kData );

	mov	eax, DWORD PTR _kData$[esp-4]
	push	esi
	push	eax
	mov	esi, ecx
	call	?Read@FDataStream@@IAEXAAH@Z		; FDataStream::Read

; 268  : 	return ( *this );

	mov	eax, esi
	pop	esi

; 269  : }

	ret	4
??$?5H@FDataStream@@QAEAAV0@AAH@Z ENDP			; FDataStream::operator>><int>
_TEXT	ENDS
PUBLIC	??B?$FAutoVariable@W4PlayerTypes@@VCvCity@@@@QBEABW4PlayerTypes@@XZ ; FAutoVariable<enum PlayerTypes,CvCity>::operator enum PlayerTypes const &
; Function compile flags: /Ogtpy
; File c:\users\enormousapplepie\documents\github\lekmod\lekmod_dll\fireplace\include\fireworks\fautovariable.h
;	COMDAT ??B?$FAutoVariable@W4PlayerTypes@@VCvCity@@@@QBEABW4PlayerTypes@@XZ
_TEXT	SEGMENT
??B?$FAutoVariable@W4PlayerTypes@@VCvCity@@@@QBEABW4PlayerTypes@@XZ PROC ; FAutoVariable<enum PlayerTypes,CvCity>::operator enum PlayerTypes const &, COMDAT
; _this$ = ecx

; 194  : 	return m_value;

	lea	eax, DWORD PTR [ecx+4]

; 195  : }

	ret	0
??B?$FAutoVariable@W4PlayerTypes@@VCvCity@@@@QBEABW4PlayerTypes@@XZ ENDP ; FAutoVariable<enum PlayerTypes,CvCity>::operator enum PlayerTypes const &
_TEXT	ENDS
PUBLIC	??B?$FAutoVariable@HVCvCity@@@@QBEABHXZ		; FAutoVariable<int,CvCity>::operator int const &
; Function compile flags: /Ogtpy
;	COMDAT ??B?$FAutoVariable@HVCvCity@@@@QBEABHXZ
_TEXT	SEGMENT
??B?$FAutoVariable@HVCvCity@@@@QBEABHXZ PROC		; FAutoVariable<int,CvCity>::operator int const &, COMDAT
; _this$ = ecx

; 194  : 	return m_value;

	lea	eax, DWORD PTR [ecx+4]

; 195  : }

	ret	0
??B?$FAutoVariable@HVCvCity@@@@QBEABHXZ ENDP		; FAutoVariable<int,CvCity>::operator int const &
_TEXT	ENDS
PUBLIC	??B?$FAutoVariable@W4PlayerTypes@@VCvPlayer@@@@QBEABW4PlayerTypes@@XZ ; FAutoVariable<enum PlayerTypes,CvPlayer>::operator enum PlayerTypes const &
; Function compile flags: /Ogtpy
;	COMDAT ??B?$FAutoVariable@W4PlayerTypes@@VCvPlayer@@@@QBEABW4PlayerTypes@@XZ
_TEXT	SEGMENT
??B?$FAutoVariable@W4PlayerTypes@@VCvPlayer@@@@QBEABW4PlayerTypes@@XZ PROC ; FAutoVariable<enum PlayerTypes,CvPlayer>::operator enum PlayerTypes const &, COMDAT
; _this$ = ecx

; 194  : 	return m_value;

	lea	eax, DWORD PTR [ecx+4]

; 195  : }

	ret	0
??B?$FAutoVariable@W4PlayerTypes@@VCvPlayer@@@@QBEABW4PlayerTypes@@XZ ENDP ; FAutoVariable<enum PlayerTypes,CvPlayer>::operator enum PlayerTypes const &
_TEXT	ENDS
PUBLIC	??B?$FAutoVariable@_NVCvPlayer@@@@QBEAB_NXZ	; FAutoVariable<bool,CvPlayer>::operator bool const &
; Function compile flags: /Ogtpy
;	COMDAT ??B?$FAutoVariable@_NVCvPlayer@@@@QBEAB_NXZ
_TEXT	SEGMENT
??B?$FAutoVariable@_NVCvPlayer@@@@QBEAB_NXZ PROC	; FAutoVariable<bool,CvPlayer>::operator bool const &, COMDAT
; _this$ = ecx

; 194  : 	return m_value;

	lea	eax, DWORD PTR [ecx+4]

; 195  : }

	ret	0
??B?$FAutoVariable@_NVCvPlayer@@@@QBEAB_NXZ ENDP	; FAutoVariable<bool,CvPlayer>::operator bool const &
_TEXT	ENDS
PUBLIC	??$_Allocate@H@std@@YAPAHIPAH@Z			; std::_Allocate<int>
; Function compile flags: /Ogtpy
; File c:\program files (x86)\microsoft visual studio 9.0\vc\include\xmemory
;	COMDAT ??$_Allocate@H@std@@YAPAHIPAH@Z
_TEXT	SEGMENT
$T229404 = -12						; size = 12
$T229408 = 8						; size = 4
__Count$ = 8						; size = 4
___formal$ = 12						; size = 4
??$_Allocate@H@std@@YAPAHIPAH@Z PROC			; std::_Allocate<int>, COMDAT

; 37   : 	if (_Count <= 0)

	mov	ecx, DWORD PTR __Count$[esp-4]
	sub	esp, 12					; 0000000cH
	test	ecx, ecx
	ja	SHORT $LN3@Allocate@4

; 38   : 		_Count = 0;

	xor	ecx, ecx
$LN1@Allocate@4:

; 41   : 
; 42   : 		// allocate storage for _Count elements of type _Ty
; 43   : 	return ((_Ty _FARQ *)::operator new(_Count * sizeof (_Ty)));

	lea	edx, DWORD PTR [ecx*4]
	push	edx
	call	??2@YAPAXI@Z				; operator new
	add	esp, 4

; 44   : 	}

	add	esp, 12					; 0000000cH
	ret	0
$LN3@Allocate@4:

; 39   : 	else if (((_SIZT)(-1) / _Count) < sizeof (_Ty))

	or	eax, -1
	xor	edx, edx
	div	ecx
	cmp	eax, 4
	jae	SHORT $LN1@Allocate@4

; 40   : 		_THROW_NCEE(std::bad_alloc, NULL);

	lea	eax, DWORD PTR $T229408[esp+8]
	push	eax
	lea	ecx, DWORD PTR $T229404[esp+16]
	mov	DWORD PTR $T229408[esp+12], 0
	call	DWORD PTR __imp_??0exception@std@@QAE@ABQBD@Z
	push	OFFSET __TI2?AVbad_alloc@std@@
	lea	ecx, DWORD PTR $T229404[esp+16]
	push	ecx
	mov	DWORD PTR $T229404[esp+20], OFFSET ??_7bad_alloc@std@@6B@
	call	__CxxThrowException@8
$LN9@Allocate@4:
$LN8@Allocate@4:
	int	3
??$_Allocate@H@std@@YAPAHIPAH@Z ENDP			; std::_Allocate<int>
; Function compile flags: /Ogtpy
_TEXT	ENDS
;	COMDAT ??0bad_alloc@std@@QAE@ABV01@@Z
_TEXT	SEGMENT
___that$ = 8						; size = 4
??0bad_alloc@std@@QAE@ABV01@@Z PROC			; std::bad_alloc::bad_alloc, COMDAT
; _this$ = ecx
	mov	eax, DWORD PTR ___that$[esp-4]
	push	esi
	push	eax
	mov	esi, ecx
	call	DWORD PTR __imp_??0exception@std@@QAE@ABV01@@Z
	mov	DWORD PTR [esi], OFFSET ??_7bad_alloc@std@@6B@
	mov	eax, esi
	pop	esi
	ret	4
??0bad_alloc@std@@QAE@ABV01@@Z ENDP			; std::bad_alloc::bad_alloc
_TEXT	ENDS
PUBLIC	??0?$_Container_base_aux_alloc_empty@V?$allocator@_N@std@@@std@@IAE@V?$allocator@_N@1@@Z ; std::_Container_base_aux_alloc_empty<std::allocator<bool> >::_Container_base_aux_alloc_empty<std::allocator<bool> >
; Function compile flags: /Ogtpy
; File c:\program files (x86)\microsoft visual studio 9.0\vc\include\xutility
;	COMDAT ??0?$_Container_base_aux_alloc_empty@V?$allocator@_N@std@@@std@@IAE@V?$allocator@_N@1@@Z
_TEXT	SEGMENT
___formal$ = 8						; size = 1
??0?$_Container_base_aux_alloc_empty@V?$allocator@_N@std@@@std@@IAE@V?$allocator@_N@1@@Z PROC ; std::_Container_base_aux_alloc_empty<std::allocator<bool> >::_Container_base_aux_alloc_empty<std::allocator<bool> >, COMDAT
; _this$ = ecx

; 618  : 	explicit _Container_base_aux_alloc_empty(_Alloc) { }

	mov	eax, ecx
	ret	4
??0?$_Container_base_aux_alloc_empty@V?$allocator@_N@std@@@std@@IAE@V?$allocator@_N@1@@Z ENDP ; std::_Container_base_aux_alloc_empty<std::allocator<bool> >::_Container_base_aux_alloc_empty<std::allocator<bool> >
_TEXT	ENDS
PUBLIC	??1?$_Container_base_aux_alloc_empty@V?$allocator@_N@std@@@std@@IAE@XZ ; std::_Container_base_aux_alloc_empty<std::allocator<bool> >::~_Container_base_aux_alloc_empty<std::allocator<bool> >
; Function compile flags: /Ogtpy
;	COMDAT ??1?$_Container_base_aux_alloc_empty@V?$allocator@_N@std@@@std@@IAE@XZ
_TEXT	SEGMENT
??1?$_Container_base_aux_alloc_empty@V?$allocator@_N@std@@@std@@IAE@XZ PROC ; std::_Container_base_aux_alloc_empty<std::allocator<bool> >::~_Container_base_aux_alloc_empty<std::allocator<bool> >, COMDAT
; _this$ = ecx

; 627  : 	~_Container_base_aux_alloc_empty() { }

	ret	0
??1?$_Container_base_aux_alloc_empty@V?$allocator@_N@std@@@std@@IAE@XZ ENDP ; std::_Container_base_aux_alloc_empty<std::allocator<bool> >::~_Container_base_aux_alloc_empty<std::allocator<bool> >
_TEXT	ENDS
PUBLIC	??0?$allocator@_N@std@@QAE@XZ			; std::allocator<bool>::allocator<bool>
; Function compile flags: /Ogtpy
; File c:\program files (x86)\microsoft visual studio 9.0\vc\include\xmemory
;	COMDAT ??0?$allocator@_N@std@@QAE@XZ
_TEXT	SEGMENT
??0?$allocator@_N@std@@QAE@XZ PROC			; std::allocator<bool>::allocator<bool>, COMDAT
; _this$ = ecx

; 119  : 	allocator() _THROW0()

	mov	eax, ecx

; 120  : 		{	// construct default allocator (do nothing)
; 121  : 		}

	ret	0
??0?$allocator@_N@std@@QAE@XZ ENDP			; std::allocator<bool>::allocator<bool>
_TEXT	ENDS
PUBLIC	??1?$_Container_base_aux_alloc_empty@V?$allocator@I@std@@@std@@IAE@XZ ; std::_Container_base_aux_alloc_empty<std::allocator<unsigned int> >::~_Container_base_aux_alloc_empty<std::allocator<unsigned int> >
; Function compile flags: /Ogtpy
; File c:\program files (x86)\microsoft visual studio 9.0\vc\include\xutility
;	COMDAT ??1?$_Container_base_aux_alloc_empty@V?$allocator@I@std@@@std@@IAE@XZ
_TEXT	SEGMENT
??1?$_Container_base_aux_alloc_empty@V?$allocator@I@std@@@std@@IAE@XZ PROC ; std::_Container_base_aux_alloc_empty<std::allocator<unsigned int> >::~_Container_base_aux_alloc_empty<std::allocator<unsigned int> >, COMDAT
; _this$ = ecx

; 627  : 	~_Container_base_aux_alloc_empty() { }

	ret	0
??1?$_Container_base_aux_alloc_empty@V?$allocator@I@std@@@std@@IAE@XZ ENDP ; std::_Container_base_aux_alloc_empty<std::allocator<unsigned int> >::~_Container_base_aux_alloc_empty<std::allocator<unsigned int> >
_TEXT	ENDS
PUBLIC	??0?$allocator@I@std@@QAE@XZ			; std::allocator<unsigned int>::allocator<unsigned int>
; Function compile flags: /Ogtpy
; File c:\program files (x86)\microsoft visual studio 9.0\vc\include\xmemory
;	COMDAT ??0?$allocator@I@std@@QAE@XZ
_TEXT	SEGMENT
??0?$allocator@I@std@@QAE@XZ PROC			; std::allocator<unsigned int>::allocator<unsigned int>, COMDAT
; _this$ = ecx

; 119  : 	allocator() _THROW0()

	mov	eax, ecx

; 120  : 		{	// construct default allocator (do nothing)
; 121  : 		}

	ret	0
??0?$allocator@I@std@@QAE@XZ ENDP			; std::allocator<unsigned int>::allocator<unsigned int>
_TEXT	ENDS
PUBLIC	?_Nw@?$vector@_NV?$allocator@_N@std@@@std@@KAII@Z ; std::vector<bool,std::allocator<bool> >::_Nw
; Function compile flags: /Ogtpy
; File c:\program files (x86)\microsoft visual studio 9.0\vc\include\vector
;	COMDAT ?_Nw@?$vector@_NV?$allocator@_N@std@@@std@@KAII@Z
_TEXT	SEGMENT
__Count$ = 8						; size = 4
?_Nw@?$vector@_NV?$allocator@_N@std@@@std@@KAII@Z PROC	; std::vector<bool,std::allocator<bool> >::_Nw, COMDAT

; 2331 : 		return ((_Count + _VBITS - 1) / _VBITS);

	mov	eax, DWORD PTR __Count$[esp-4]
	add	eax, 31					; 0000001fH
	shr	eax, 5

; 2332 : 		}

	ret	0
?_Nw@?$vector@_NV?$allocator@_N@std@@@std@@KAII@Z ENDP	; std::vector<bool,std::allocator<bool> >::_Nw
_TEXT	ENDS
PUBLIC	??_C@_0BG@EOMJEIFA@vector?$DMbool?$DO?5too?5long?$AA@ ; `string'
PUBLIC	?_Xlen@?$vector@_NV?$allocator@_N@std@@@std@@IBEXXZ ; std::vector<bool,std::allocator<bool> >::_Xlen
;	COMDAT ??_C@_0BG@EOMJEIFA@vector?$DMbool?$DO?5too?5long?$AA@
; File c:\program files (x86)\microsoft visual studio 9.0\vc\include\stdexcept
CONST	SEGMENT
??_C@_0BG@EOMJEIFA@vector?$DMbool?$DO?5too?5long?$AA@ DB 'vector<bool> to'
	DB	'o long', 00H				; `string'
CONST	ENDS
;	COMDAT xdata$x
xdata$x	SEGMENT
__unwindtable$?_Xlen@?$vector@_NV?$allocator@_N@std@@@std@@IBEXXZ DD 0ffffffffH
	DD	FLAT:__unwindfunclet$?_Xlen@?$vector@_NV?$allocator@_N@std@@@std@@IBEXXZ$0
	DD	00H
	DD	FLAT:__unwindfunclet$?_Xlen@?$vector@_NV?$allocator@_N@std@@@std@@IBEXXZ$2
__ehfuncinfo$?_Xlen@?$vector@_NV?$allocator@_N@std@@@std@@IBEXXZ DD 019930522H
	DD	02H
	DD	FLAT:__unwindtable$?_Xlen@?$vector@_NV?$allocator@_N@std@@@std@@IBEXXZ
	DD	2 DUP(00H)
	DD	2 DUP(00H)
	DD	00H
	DD	01H
; Function compile flags: /Ogtpy
; File c:\program files (x86)\microsoft visual studio 9.0\vc\include\vector
xdata$x	ENDS
;	COMDAT ?_Xlen@?$vector@_NV?$allocator@_N@std@@@std@@IBEXXZ
_TEXT	SEGMENT
$T229437 = -80						; size = 28
$T229436 = -52						; size = 40
__$EHRec$ = -12						; size = 12
?_Xlen@?$vector@_NV?$allocator@_N@std@@@std@@IBEXXZ PROC ; std::vector<bool,std::allocator<bool> >::_Xlen, COMDAT
; _this$ = ecx

; 2374 : 		{	// report a length_error

	push	-1
	push	__ehhandler$?_Xlen@?$vector@_NV?$allocator@_N@std@@@std@@IBEXXZ
	mov	eax, DWORD PTR fs:0
	push	eax
	mov	DWORD PTR fs:0, esp
	sub	esp, 68					; 00000044H

; 2375 : 		_THROW(length_error, "vector<bool> too long");

	push	OFFSET ??_C@_0BG@EOMJEIFA@vector?$DMbool?$DO?5too?5long?$AA@
	lea	ecx, DWORD PTR $T229437[esp+84]
	call	DWORD PTR __imp_??0?$basic_string@DU?$char_traits@D@std@@V?$allocator@D@2@@std@@QAE@PBD@Z
	lea	ecx, DWORD PTR $T229436[esp+80]
	mov	DWORD PTR __$EHRec$[esp+88], 0
	call	DWORD PTR __imp_??0exception@std@@QAE@XZ
	lea	eax, DWORD PTR $T229437[esp+80]
	push	eax
	lea	ecx, DWORD PTR $T229436[esp+96]
	mov	BYTE PTR __$EHRec$[esp+92], 1
	mov	DWORD PTR $T229436[esp+84], OFFSET ??_7logic_error@std@@6B@
	call	DWORD PTR __imp_??0?$basic_string@DU?$char_traits@D@std@@V?$allocator@D@2@@std@@QAE@ABV01@@Z
	push	OFFSET __TI3?AVlength_error@std@@
	lea	ecx, DWORD PTR $T229436[esp+84]
	push	ecx
	mov	BYTE PTR __$EHRec$[esp+96], 0
	mov	DWORD PTR $T229436[esp+88], OFFSET ??_7length_error@std@@6B@
	call	__CxxThrowException@8
$LN13@Xlen@5:
$LN12@Xlen@5:
	int	3
_TEXT	ENDS
;	COMDAT text$x
text$x	SEGMENT
__unwindfunclet$?_Xlen@?$vector@_NV?$allocator@_N@std@@@std@@IBEXXZ$0:
	lea	ecx, DWORD PTR $T229437[ebp]
	jmp	DWORD PTR __imp_??1?$basic_string@DU?$char_traits@D@std@@V?$allocator@D@2@@std@@QAE@XZ
__unwindfunclet$?_Xlen@?$vector@_NV?$allocator@_N@std@@@std@@IBEXXZ$2:
	lea	ecx, DWORD PTR $T229436[ebp]
	jmp	DWORD PTR __imp_??1exception@std@@UAE@XZ
__ehhandler$?_Xlen@?$vector@_NV?$allocator@_N@std@@@std@@IBEXXZ:
	mov	eax, OFFSET __ehfuncinfo$?_Xlen@?$vector@_NV?$allocator@_N@std@@@std@@IBEXXZ
	jmp	___CxxFrameHandler3
text$x	ENDS
?_Xlen@?$vector@_NV?$allocator@_N@std@@@std@@IBEXXZ ENDP ; std::vector<bool,std::allocator<bool> >::_Xlen
PUBLIC	?size@?$vector@IV?$allocator@I@std@@@std@@QBEIXZ ; std::vector<unsigned int,std::allocator<unsigned int> >::size
; Function compile flags: /Ogtpy
;	COMDAT ?size@?$vector@IV?$allocator@I@std@@@std@@QBEIXZ
_TEXT	SEGMENT
?size@?$vector@IV?$allocator@I@std@@@std@@QBEIXZ PROC	; std::vector<unsigned int,std::allocator<unsigned int> >::size, COMDAT
; _this$ = ecx

; 726  : 		return (_Mylast - _Myfirst);

	mov	eax, DWORD PTR [ecx+8]
	sub	eax, DWORD PTR [ecx+4]
	sar	eax, 2

; 727  : 		}

	ret	0
?size@?$vector@IV?$allocator@I@std@@@std@@QBEIXZ ENDP	; std::vector<unsigned int,std::allocator<unsigned int> >::size
_TEXT	ENDS
PUBLIC	??A?$vector@IV?$allocator@I@std@@@std@@QAEAAII@Z ; std::vector<unsigned int,std::allocator<unsigned int> >::operator[]
; Function compile flags: /Ogtpy
;	COMDAT ??A?$vector@IV?$allocator@I@std@@@std@@QAEAAII@Z
_TEXT	SEGMENT
__Pos$ = 8						; size = 4
??A?$vector@IV?$allocator@I@std@@@std@@QAEAAII@Z PROC	; std::vector<unsigned int,std::allocator<unsigned int> >::operator[], COMDAT
; _this$ = ecx

; 775  : 
; 776  :  #if _HAS_ITERATOR_DEBUGGING
; 777  : 		if (size() <= _Pos)
; 778  : 			{
; 779  : 			_DEBUG_ERROR("vector subscript out of range");
; 780  : 			_SCL_SECURE_OUT_OF_RANGE;
; 781  : 			}
; 782  :  #endif /* _HAS_ITERATOR_DEBUGGING */
; 783  : 		_SCL_SECURE_VALIDATE_RANGE(_Pos < size());
; 784  : 
; 785  : 		return (*(_Myfirst + _Pos));

	mov	eax, DWORD PTR [ecx+4]
	mov	ecx, DWORD PTR __Pos$[esp-4]
	lea	eax, DWORD PTR [eax+ecx*4]

; 786  : 		}

	ret	4
??A?$vector@IV?$allocator@I@std@@@std@@QAEAAII@Z ENDP	; std::vector<unsigned int,std::allocator<unsigned int> >::operator[]
_TEXT	ENDS
PUBLIC	?_Xlen@?$vector@IV?$allocator@I@std@@@std@@KAXXZ ; std::vector<unsigned int,std::allocator<unsigned int> >::_Xlen
;	COMDAT xdata$x
; File c:\program files (x86)\microsoft visual studio 9.0\vc\include\stdexcept
xdata$x	SEGMENT
__unwindtable$?_Xlen@?$vector@IV?$allocator@I@std@@@std@@KAXXZ DD 0ffffffffH
	DD	FLAT:__unwindfunclet$?_Xlen@?$vector@IV?$allocator@I@std@@@std@@KAXXZ$0
	DD	00H
	DD	FLAT:__unwindfunclet$?_Xlen@?$vector@IV?$allocator@I@std@@@std@@KAXXZ$2
__ehfuncinfo$?_Xlen@?$vector@IV?$allocator@I@std@@@std@@KAXXZ DD 019930522H
	DD	02H
	DD	FLAT:__unwindtable$?_Xlen@?$vector@IV?$allocator@I@std@@@std@@KAXXZ
	DD	2 DUP(00H)
	DD	2 DUP(00H)
	DD	00H
	DD	01H
; Function compile flags: /Ogtpy
; File c:\program files (x86)\microsoft visual studio 9.0\vc\include\vector
xdata$x	ENDS
;	COMDAT ?_Xlen@?$vector@IV?$allocator@I@std@@@std@@KAXXZ
_TEXT	SEGMENT
$T229468 = -80						; size = 28
$T229467 = -52						; size = 40
__$EHRec$ = -12						; size = 12
?_Xlen@?$vector@IV?$allocator@I@std@@@std@@KAXXZ PROC	; std::vector<unsigned int,std::allocator<unsigned int> >::_Xlen, COMDAT

; 1259 : 		{	// report a length_error

	push	-1
	push	__ehhandler$?_Xlen@?$vector@IV?$allocator@I@std@@@std@@KAXXZ
	mov	eax, DWORD PTR fs:0
	push	eax
	mov	DWORD PTR fs:0, esp
	sub	esp, 68					; 00000044H

; 1260 : 		_THROW(length_error, "vector<T> too long");

	push	OFFSET ??_C@_0BD@OLBABOEK@vector?$DMT?$DO?5too?5long?$AA@
	lea	ecx, DWORD PTR $T229468[esp+84]
	call	DWORD PTR __imp_??0?$basic_string@DU?$char_traits@D@std@@V?$allocator@D@2@@std@@QAE@PBD@Z
	lea	ecx, DWORD PTR $T229467[esp+80]
	mov	DWORD PTR __$EHRec$[esp+88], 0
	call	DWORD PTR __imp_??0exception@std@@QAE@XZ
	lea	eax, DWORD PTR $T229468[esp+80]
	push	eax
	lea	ecx, DWORD PTR $T229467[esp+96]
	mov	BYTE PTR __$EHRec$[esp+92], 1
	mov	DWORD PTR $T229467[esp+84], OFFSET ??_7logic_error@std@@6B@
	call	DWORD PTR __imp_??0?$basic_string@DU?$char_traits@D@std@@V?$allocator@D@2@@std@@QAE@ABV01@@Z
	push	OFFSET __TI3?AVlength_error@std@@
	lea	ecx, DWORD PTR $T229467[esp+84]
	push	ecx
	mov	BYTE PTR __$EHRec$[esp+96], 0
	mov	DWORD PTR $T229467[esp+88], OFFSET ??_7length_error@std@@6B@
	call	__CxxThrowException@8
$LN13@Xlen@6:
$LN12@Xlen@6:
	int	3
_TEXT	ENDS
;	COMDAT text$x
text$x	SEGMENT
__unwindfunclet$?_Xlen@?$vector@IV?$allocator@I@std@@@std@@KAXXZ$0:
	lea	ecx, DWORD PTR $T229468[ebp]
	jmp	DWORD PTR __imp_??1?$basic_string@DU?$char_traits@D@std@@V?$allocator@D@2@@std@@QAE@XZ
__unwindfunclet$?_Xlen@?$vector@IV?$allocator@I@std@@@std@@KAXXZ$2:
	lea	ecx, DWORD PTR $T229467[ebp]
	jmp	DWORD PTR __imp_??1exception@std@@UAE@XZ
__ehhandler$?_Xlen@?$vector@IV?$allocator@I@std@@@std@@KAXXZ:
	mov	eax, OFFSET __ehfuncinfo$?_Xlen@?$vector@IV?$allocator@I@std@@@std@@KAXXZ
	jmp	___CxxFrameHandler3
text$x	ENDS
?_Xlen@?$vector@IV?$allocator@I@std@@@std@@KAXXZ ENDP	; std::vector<unsigned int,std::allocator<unsigned int> >::_Xlen
PUBLIC	??0?$_Container_base_aux_alloc_empty@V?$allocator@I@std@@@std@@IAE@V?$allocator@I@1@@Z ; std::_Container_base_aux_alloc_empty<std::allocator<unsigned int> >::_Container_base_aux_alloc_empty<std::allocator<unsigned int> >
; Function compile flags: /Ogtpy
; File c:\program files (x86)\microsoft visual studio 9.0\vc\include\xutility
;	COMDAT ??0?$_Container_base_aux_alloc_empty@V?$allocator@I@std@@@std@@IAE@V?$allocator@I@1@@Z
_TEXT	SEGMENT
___formal$ = 8						; size = 1
??0?$_Container_base_aux_alloc_empty@V?$allocator@I@std@@@std@@IAE@V?$allocator@I@1@@Z PROC ; std::_Container_base_aux_alloc_empty<std::allocator<unsigned int> >::_Container_base_aux_alloc_empty<std::allocator<unsigned int> >, COMDAT
; _this$ = ecx

; 618  : 	explicit _Container_base_aux_alloc_empty(_Alloc) { }

	mov	eax, ecx
	ret	4
??0?$_Container_base_aux_alloc_empty@V?$allocator@I@std@@@std@@IAE@V?$allocator@I@1@@Z ENDP ; std::_Container_base_aux_alloc_empty<std::allocator<unsigned int> >::_Container_base_aux_alloc_empty<std::allocator<unsigned int> >
_TEXT	ENDS
PUBLIC	??0?$allocator@I@std@@QAE@ABV01@@Z		; std::allocator<unsigned int>::allocator<unsigned int>
; Function compile flags: /Ogtpy
; File c:\program files (x86)\microsoft visual studio 9.0\vc\include\xmemory
;	COMDAT ??0?$allocator@I@std@@QAE@ABV01@@Z
_TEXT	SEGMENT
___formal$ = 8						; size = 4
??0?$allocator@I@std@@QAE@ABV01@@Z PROC			; std::allocator<unsigned int>::allocator<unsigned int>, COMDAT
; _this$ = ecx

; 123  : 	allocator(const allocator<_Ty>&) _THROW0()

	mov	eax, ecx

; 124  : 		{	// construct by copying (do nothing)
; 125  : 		}

	ret	4
??0?$allocator@I@std@@QAE@ABV01@@Z ENDP			; std::allocator<unsigned int>::allocator<unsigned int>
_TEXT	ENDS
PUBLIC	?deallocate@?$allocator@I@std@@QAEXPAII@Z	; std::allocator<unsigned int>::deallocate
; Function compile flags: /Ogtpy
;	COMDAT ?deallocate@?$allocator@I@std@@QAEXPAII@Z
_TEXT	SEGMENT
__Ptr$ = 8						; size = 4
___formal$ = 12						; size = 4
?deallocate@?$allocator@I@std@@QAEXPAII@Z PROC		; std::allocator<unsigned int>::deallocate, COMDAT
; _this$ = ecx

; 140  : 		::operator delete(_Ptr);

	mov	eax, DWORD PTR __Ptr$[esp-4]
	push	eax
	call	??3@YAXPAX@Z				; operator delete
	pop	ecx

; 141  : 		}

	ret	8
?deallocate@?$allocator@I@std@@QAEXPAII@Z ENDP		; std::allocator<unsigned int>::deallocate
_TEXT	ENDS
PUBLIC	??0?$_Vector_const_iterator@HV?$allocator@H@std@@@std@@QAE@PAH@Z ; std::_Vector_const_iterator<int,std::allocator<int> >::_Vector_const_iterator<int,std::allocator<int> >
; Function compile flags: /Ogtpy
; File c:\program files (x86)\microsoft visual studio 9.0\vc\include\vector
;	COMDAT ??0?$_Vector_const_iterator@HV?$allocator@H@std@@@std@@QAE@PAH@Z
_TEXT	SEGMENT
__Ptr$ = 8						; size = 4
??0?$_Vector_const_iterator@HV?$allocator@H@std@@@std@@QAE@PAH@Z PROC ; std::_Vector_const_iterator<int,std::allocator<int> >::_Vector_const_iterator<int,std::allocator<int> >, COMDAT
; _this$ = ecx

; 84   : 	explicit _Vector_const_iterator(_Tptr _Ptr)

	mov	eax, ecx

; 85   : 		{	// construct with pointer _Ptr
; 86   : 		_Myptr = _Ptr;

	mov	ecx, DWORD PTR __Ptr$[esp-4]
	mov	DWORD PTR [eax], ecx

; 87   : 		}

	ret	4
??0?$_Vector_const_iterator@HV?$allocator@H@std@@@std@@QAE@PAH@Z ENDP ; std::_Vector_const_iterator<int,std::allocator<int> >::_Vector_const_iterator<int,std::allocator<int> >
_TEXT	ENDS
PUBLIC	??8?$_Vector_const_iterator@HV?$allocator@H@std@@@std@@QBE_NABV01@@Z ; std::_Vector_const_iterator<int,std::allocator<int> >::operator==
; Function compile flags: /Ogtpy
;	COMDAT ??8?$_Vector_const_iterator@HV?$allocator@H@std@@@std@@QBE_NABV01@@Z
_TEXT	SEGMENT
__Right$ = 8						; size = 4
??8?$_Vector_const_iterator@HV?$allocator@H@std@@@std@@QBE_NABV01@@Z PROC ; std::_Vector_const_iterator<int,std::allocator<int> >::operator==, COMDAT
; _this$ = ecx

; 204  : 
; 205  :  #if _HAS_ITERATOR_DEBUGGING
; 206  : 		_Compat(_Right);
; 207  :  #else
; 208  : 		_SCL_SECURE_VALIDATE(this->_Has_container() && this->_Same_container(_Right));
; 209  :  #endif /* _HAS_ITERATOR_DEBUGGING */
; 210  : 
; 211  : 		return (_Myptr == _Right._Myptr);

	mov	eax, DWORD PTR [ecx]
	mov	edx, DWORD PTR __Right$[esp-4]
	xor	ecx, ecx
	cmp	eax, DWORD PTR [edx]
	sete	cl
	mov	al, cl

; 212  : 		}

	ret	4
??8?$_Vector_const_iterator@HV?$allocator@H@std@@@std@@QBE_NABV01@@Z ENDP ; std::_Vector_const_iterator<int,std::allocator<int> >::operator==
_TEXT	ENDS
PUBLIC	??Y?$_Vb_const_iterator@IHV?$vector@_NV?$allocator@_N@std@@@std@@@std@@QAEAAV01@H@Z ; std::_Vb_const_iterator<unsigned int,int,std::vector<bool,std::allocator<bool> > >::operator+=
; Function compile flags: /Ogtpy
;	COMDAT ??Y?$_Vb_const_iterator@IHV?$vector@_NV?$allocator@_N@std@@@std@@@std@@QAEAAV01@H@Z
_TEXT	SEGMENT
__Off$ = 8						; size = 4
??Y?$_Vb_const_iterator@IHV?$vector@_NV?$allocator@_N@std@@@std@@@std@@QAEAAV01@H@Z PROC ; std::_Vb_const_iterator<unsigned int,int,std::vector<bool,std::allocator<bool> > >::operator+=, COMDAT
; _this$ = ecx

; 1602 : 		{	// increment by integer

	mov	eax, ecx

; 1603 : 		if (_Off == 0)

	mov	ecx, DWORD PTR __Off$[esp-4]
	test	ecx, ecx

; 1604 : 			return (*this); // early out

	je	SHORT $LN6@operator@3
	push	esi

; 1605 : 		_SCL_SECURE_VALIDATE(this->_Has_container() && this->_Myptr != NULL);
; 1606 : 		if (_Off < 0)
; 1607 : 			{
; 1608 : 			_SCL_SECURE_VALIDATE_RANGE(this->_My_actual_offset() >= ((size_type)-_Off));
; 1609 : 			}
; 1610 : 		else
; 1611 : 			{
; 1612 : 			_SCL_SECURE_VALIDATE_RANGE((this->_My_actual_offset() + _Off) <= ((_MycontTy *)this->_Getmycont())->_Mysize);
; 1613 : 			}
; 1614 : 		if (_Off < 0 && this->_Myoff < 0 - (size_type)_Off)

	jge	SHORT $LN2@operator@3
	mov	edx, DWORD PTR [eax+4]
	mov	esi, ecx
	neg	esi
	cmp	edx, esi
	jae	SHORT $LN2@operator@3

; 1615 : 			{	/* add negative increment */
