; Listing generated by Microsoft (R) Optimizing Compiler Version 15.00.30729.01 

	TITLE	c:\Users\EnormousApplePie\Documents\GitHub\Lekmod\LEKMOD_DLL\CvGameCoreDLL_Expansion2\CvWorldBuilderMapLoader.cpp
	.686P
	.XMM
	include listing.inc
	.model	flat

INCLUDELIB MSVCRT
INCLUDELIB OLDNAMES

PUBLIC	?NO_QUEST_DATA@CvMinorCivQuest@@2HB		; CvMinorCivQuest::NO_QUEST_DATA
PUBLIC	?NO_TURN@CvMinorCivQuest@@2HB			; CvMinorCivQuest::NO_TURN
PUBLIC	?FileVersion@CvWorldBuilderMap@@2IB		; CvWorldBuilderMap::FileVersion
PUBLIC	?MaxMapSize@CvWorldBuilderMap@@2IB		; CvWorldBuilderMap::MaxMapSize
PUBLIC	?MaxPlayers@CvWorldBuilderMap@@2IB		; CvWorldBuilderMap::MaxPlayers
PUBLIC	?MaxCityStates@CvWorldBuilderMap@@2IB		; CvWorldBuilderMap::MaxCityStates
PUBLIC	?MaxTeams@CvWorldBuilderMap@@2IB		; CvWorldBuilderMap::MaxTeams
PUBLIC	?BarbarianPlayer@CvWorldBuilderMap@@2IB		; CvWorldBuilderMap::BarbarianPlayer
PUBLIC	?InvalidResource@PlotMapData@CvWorldBuilderMap@@2EB ; CvWorldBuilderMap::PlotMapData::InvalidResource
PUBLIC	?InvalidFeature@PlotMapData@CvWorldBuilderMap@@2EB ; CvWorldBuilderMap::PlotMapData::InvalidFeature
PUBLIC	?InvalidNaturalWonder@PlotMapData@CvWorldBuilderMap@@2EB ; CvWorldBuilderMap::PlotMapData::InvalidNaturalWonder
PUBLIC	?InvalidUnitType@OldUnit@CvWorldBuilderMap@@2EB	; CvWorldBuilderMap::OldUnit::InvalidUnitType
PUBLIC	?MaxLength@UnitName@CvWorldBuilderMap@@2IB	; CvWorldBuilderMap::UnitName::MaxLength
PUBLIC	?InvalidUnitType@UnitV2@CvWorldBuilderMap@@2EB	; CvWorldBuilderMap::UnitV2::InvalidUnitType
PUBLIC	?MaxPromotionTypes@UnitV2@CvWorldBuilderMap@@2IB ; CvWorldBuilderMap::UnitV2::MaxPromotionTypes
PUBLIC	?MaxHealth@UnitV2@CvWorldBuilderMap@@2IB	; CvWorldBuilderMap::UnitV2::MaxHealth
PUBLIC	?InvalidUnitType@Unit@CvWorldBuilderMap@@2IB	; CvWorldBuilderMap::Unit::InvalidUnitType
PUBLIC	?MaxPromotionTypes@Unit@CvWorldBuilderMap@@2IB	; CvWorldBuilderMap::Unit::MaxPromotionTypes
PUBLIC	?MaxHealth@Unit@CvWorldBuilderMap@@2IB		; CvWorldBuilderMap::Unit::MaxHealth
PUBLIC	?MaxBuildingTypes@OldCity@CvWorldBuilderMap@@2IB ; CvWorldBuilderMap::OldCity::MaxBuildingTypes
PUBLIC	?MaxBuildingTypes@CityV2@CvWorldBuilderMap@@2IB	; CvWorldBuilderMap::CityV2::MaxBuildingTypes
PUBLIC	?MaxNameLength@CityV2@CvWorldBuilderMap@@2IB	; CvWorldBuilderMap::CityV2::MaxNameLength
PUBLIC	?MaxHealth@CityV2@CvWorldBuilderMap@@2IB	; CvWorldBuilderMap::CityV2::MaxHealth
PUBLIC	?MaxBuildingTypes@City@CvWorldBuilderMap@@2IB	; CvWorldBuilderMap::City::MaxBuildingTypes
PUBLIC	?MaxNameLength@City@CvWorldBuilderMap@@2IB	; CvWorldBuilderMap::City::MaxNameLength
PUBLIC	?MaxHealth@City@CvWorldBuilderMap@@2IB		; CvWorldBuilderMap::City::MaxHealth
PUBLIC	?InvalidCulture@PlotScenarioData@CvWorldBuilderMap@@2EB ; CvWorldBuilderMap::PlotScenarioData::InvalidCulture
PUBLIC	?InvalidImprovement@PlotScenarioData@CvWorldBuilderMap@@2EB ; CvWorldBuilderMap::PlotScenarioData::InvalidImprovement
PUBLIC	?InvalidRoute@PlotScenarioData@CvWorldBuilderMap@@2EB ; CvWorldBuilderMap::PlotScenarioData::InvalidRoute
PUBLIC	?MaxTechs@Team@CvWorldBuilderMap@@2IB		; CvWorldBuilderMap::Team::MaxTechs
PUBLIC	?MaxPolicies@OldPlayer@CvWorldBuilderMap@@2IB	; CvWorldBuilderMap::OldPlayer::MaxPolicies
PUBLIC	?InvalidTeam@OldPlayer@CvWorldBuilderMap@@2EB	; CvWorldBuilderMap::OldPlayer::InvalidTeam
PUBLIC	?MaxPolicies@Player@CvWorldBuilderMap@@2IB	; CvWorldBuilderMap::Player::MaxPolicies
PUBLIC	?InvalidTeam@Player@CvWorldBuilderMap@@2EB	; CvWorldBuilderMap::Player::InvalidTeam
PUBLIC	?BitCount@?$FRelationshipBitset@$0GA@$00@@0IB	; FRelationshipBitset<96,1>::BitCount
PUBLIC	?ByteCount@?$FRelationshipBitset@$0GA@$00@@0IB	; FRelationshipBitset<96,1>::ByteCount
PUBLIC	?BitCount@?$FRelationshipBitset@$0GA@$0A@@@0IB	; FRelationshipBitset<96,0>::BitCount
PUBLIC	?ByteCount@?$FRelationshipBitset@$0GA@$0A@@@0IB	; FRelationshipBitset<96,0>::ByteCount
PUBLIC	?ByteCount@?$SerializableBitset@$0DAAAAA@@CvWorldBuilderMap@@0IB ; CvWorldBuilderMap::SerializableBitset<3145728>::ByteCount
_BSS	SEGMENT
_sg_wszTempMapName DW 0104H DUP (?)
_BSS	ENDS
CONST	SEGMENT
$SG224580 DB	'Picking Random Unit Direction', 00H
$SG225086 DB	00H
$SG225163 DB	00H
$SG224727 DB	'Setting up players...', 0aH, 00H
$SG225165 DB	00H
$SG224937 DB	'Setting up map...', 0aH, 00H
$SG225194 DB	00H
$SG224971 DB	'Calculating Areas...', 0aH, 00H
$SG225196 DB	00H
$SG225437 DB	00H
$SG224972 DB	'Adding Scenario Elements...', 0aH, 00H
$SG225468 DB	00H
	ORG $+2
$SG225057 DB	'Map Load Success!', 0aH, 00H
	ORG $+1
$SG225131 DB	'MapModData', 00H
	ORG $+1
$SG225140 DB	'Globals', 00H
$SG225167 DB	'Globals', 00H
$SG225199 DB	'Plots', 00H
	ORG $+2
$SG225234 DB	'Plots', 00H
	ORG $+2
$SG225251 DB	'PostProcessMapScript', 00H
	ORG $+3
$SG225263 DB	'PostProcessMap', 00H
	ORG $+1
$SG225345 DB	'Select ID from Worlds where Type = ? LIMIT 1', 00H
	ORG $+3
$SG225353 DB	'Worlds', 00H
	ORG $+1
$SG225453 DB	'MapSize', 00H
$SG225454 DB	'Name', 00H
	ORG $+3
$SG225455 DB	'Description', 00H
$SG225456 DB	'PlayerCount', 00H
$SG225457 DB	'CityStateCount', 00H
	ORG $+1
$SG225458 DB	'MaxTurns', 00H
	ORG $+3
$SG225459 DB	'StartEra', 00H
	ORG $+3
$SG225460 DB	'DefaultSpeed', 00H
	ORG $+3
$SG225462 DB	'VictoryTypes', 00H
	ORG $+3
$SG225508 DB	'CivType', 00H
$SG225509 DB	'Playable', 00H
	ORG $+3
$SG225510 DB	'DefaultHandicap', 00H
$SG225523 DB	'WorldBuilderRandomItems.lua', 00H
$SG225528 DB	'AddGoodies', 00H
	ORG $+1
$SG225533 DB	'AddResourcesForWorldBuilderMap', 00H
	ORG $+1
$SG225544 DB	'WorldBuilderRandomItems.lua', 00H
$SG225546 DB	'AddResourcesForWorldBuilderMap', 00H
	ORG $+1
$SG225557 DB	'WorldBuilderRandomItems.lua', 00H
$SG225559 DB	'AddGoodies', 00H
CONST	ENDS
;	COMDAT ?ByteCount@?$SerializableBitset@$0DAAAAA@@CvWorldBuilderMap@@0IB
CONST	SEGMENT
?ByteCount@?$SerializableBitset@$0DAAAAA@@CvWorldBuilderMap@@0IB DD 060000H ; CvWorldBuilderMap::SerializableBitset<3145728>::ByteCount
CONST	ENDS
;	COMDAT ?ByteCount@?$FRelationshipBitset@$0GA@$0A@@@0IB
CONST	SEGMENT
?ByteCount@?$FRelationshipBitset@$0GA@$0A@@@0IB DD 023aH ; FRelationshipBitset<96,0>::ByteCount
CONST	ENDS
;	COMDAT ?BitCount@?$FRelationshipBitset@$0GA@$0A@@@0IB
CONST	SEGMENT
?BitCount@?$FRelationshipBitset@$0GA@$0A@@@0IB DD 011d0H ; FRelationshipBitset<96,0>::BitCount
CONST	ENDS
;	COMDAT ?ByteCount@?$FRelationshipBitset@$0GA@$00@@0IB
CONST	SEGMENT
?ByteCount@?$FRelationshipBitset@$0GA@$00@@0IB DD 023aH	; FRelationshipBitset<96,1>::ByteCount
CONST	ENDS
;	COMDAT ?BitCount@?$FRelationshipBitset@$0GA@$00@@0IB
CONST	SEGMENT
?BitCount@?$FRelationshipBitset@$0GA@$00@@0IB DD 011d0H	; FRelationshipBitset<96,1>::BitCount
CONST	ENDS
;	COMDAT ?InvalidTeam@Player@CvWorldBuilderMap@@2EB
CONST	SEGMENT
?InvalidTeam@Player@CvWorldBuilderMap@@2EB DB 0ffH	; CvWorldBuilderMap::Player::InvalidTeam
CONST	ENDS
;	COMDAT ?MaxPolicies@Player@CvWorldBuilderMap@@2IB
CONST	SEGMENT
?MaxPolicies@Player@CvWorldBuilderMap@@2IB DD 0100H	; CvWorldBuilderMap::Player::MaxPolicies
CONST	ENDS
;	COMDAT ?InvalidTeam@OldPlayer@CvWorldBuilderMap@@2EB
CONST	SEGMENT
?InvalidTeam@OldPlayer@CvWorldBuilderMap@@2EB DB 0ffH	; CvWorldBuilderMap::OldPlayer::InvalidTeam
CONST	ENDS
;	COMDAT ?MaxPolicies@OldPlayer@CvWorldBuilderMap@@2IB
CONST	SEGMENT
?MaxPolicies@OldPlayer@CvWorldBuilderMap@@2IB DD 0100H	; CvWorldBuilderMap::OldPlayer::MaxPolicies
CONST	ENDS
;	COMDAT ?MaxTechs@Team@CvWorldBuilderMap@@2IB
CONST	SEGMENT
?MaxTechs@Team@CvWorldBuilderMap@@2IB DD 0100H		; CvWorldBuilderMap::Team::MaxTechs
CONST	ENDS
;	COMDAT ?InvalidRoute@PlotScenarioData@CvWorldBuilderMap@@2EB
CONST	SEGMENT
?InvalidRoute@PlotScenarioData@CvWorldBuilderMap@@2EB DB 0ffH ; CvWorldBuilderMap::PlotScenarioData::InvalidRoute
CONST	ENDS
;	COMDAT ?InvalidImprovement@PlotScenarioData@CvWorldBuilderMap@@2EB
CONST	SEGMENT
?InvalidImprovement@PlotScenarioData@CvWorldBuilderMap@@2EB DB 0ffH ; CvWorldBuilderMap::PlotScenarioData::InvalidImprovement
CONST	ENDS
;	COMDAT ?InvalidCulture@PlotScenarioData@CvWorldBuilderMap@@2EB
CONST	SEGMENT
?InvalidCulture@PlotScenarioData@CvWorldBuilderMap@@2EB DB 0ffH ; CvWorldBuilderMap::PlotScenarioData::InvalidCulture
CONST	ENDS
;	COMDAT ?MaxHealth@City@CvWorldBuilderMap@@2IB
CONST	SEGMENT
?MaxHealth@City@CvWorldBuilderMap@@2IB DD 0186a0H	; CvWorldBuilderMap::City::MaxHealth
CONST	ENDS
;	COMDAT ?MaxNameLength@City@CvWorldBuilderMap@@2IB
CONST	SEGMENT
?MaxNameLength@City@CvWorldBuilderMap@@2IB DD 040H	; CvWorldBuilderMap::City::MaxNameLength
CONST	ENDS
;	COMDAT ?MaxBuildingTypes@City@CvWorldBuilderMap@@2IB
CONST	SEGMENT
?MaxBuildingTypes@City@CvWorldBuilderMap@@2IB DD 0200H	; CvWorldBuilderMap::City::MaxBuildingTypes
CONST	ENDS
;	COMDAT ?MaxHealth@CityV2@CvWorldBuilderMap@@2IB
CONST	SEGMENT
?MaxHealth@CityV2@CvWorldBuilderMap@@2IB DD 0186a0H	; CvWorldBuilderMap::CityV2::MaxHealth
CONST	ENDS
;	COMDAT ?MaxNameLength@CityV2@CvWorldBuilderMap@@2IB
CONST	SEGMENT
?MaxNameLength@CityV2@CvWorldBuilderMap@@2IB DD 040H	; CvWorldBuilderMap::CityV2::MaxNameLength
CONST	ENDS
;	COMDAT ?MaxBuildingTypes@CityV2@CvWorldBuilderMap@@2IB
CONST	SEGMENT
?MaxBuildingTypes@CityV2@CvWorldBuilderMap@@2IB DD 0100H ; CvWorldBuilderMap::CityV2::MaxBuildingTypes
CONST	ENDS
;	COMDAT ?MaxBuildingTypes@OldCity@CvWorldBuilderMap@@2IB
CONST	SEGMENT
?MaxBuildingTypes@OldCity@CvWorldBuilderMap@@2IB DD 0100H ; CvWorldBuilderMap::OldCity::MaxBuildingTypes
CONST	ENDS
;	COMDAT ?MaxHealth@Unit@CvWorldBuilderMap@@2IB
CONST	SEGMENT
?MaxHealth@Unit@CvWorldBuilderMap@@2IB DD 0186a0H	; CvWorldBuilderMap::Unit::MaxHealth
CONST	ENDS
;	COMDAT ?MaxPromotionTypes@Unit@CvWorldBuilderMap@@2IB
CONST	SEGMENT
?MaxPromotionTypes@Unit@CvWorldBuilderMap@@2IB DD 0200H	; CvWorldBuilderMap::Unit::MaxPromotionTypes
CONST	ENDS
;	COMDAT ?InvalidUnitType@Unit@CvWorldBuilderMap@@2IB
CONST	SEGMENT
?InvalidUnitType@Unit@CvWorldBuilderMap@@2IB DD 0ffffffffH ; CvWorldBuilderMap::Unit::InvalidUnitType
CONST	ENDS
;	COMDAT ?MaxHealth@UnitV2@CvWorldBuilderMap@@2IB
CONST	SEGMENT
?MaxHealth@UnitV2@CvWorldBuilderMap@@2IB DD 0186a0H	; CvWorldBuilderMap::UnitV2::MaxHealth
CONST	ENDS
;	COMDAT ?MaxPromotionTypes@UnitV2@CvWorldBuilderMap@@2IB
CONST	SEGMENT
?MaxPromotionTypes@UnitV2@CvWorldBuilderMap@@2IB DD 0100H ; CvWorldBuilderMap::UnitV2::MaxPromotionTypes
CONST	ENDS
;	COMDAT ?InvalidUnitType@UnitV2@CvWorldBuilderMap@@2EB
CONST	SEGMENT
?InvalidUnitType@UnitV2@CvWorldBuilderMap@@2EB DB 0ffH	; CvWorldBuilderMap::UnitV2::InvalidUnitType
CONST	ENDS
;	COMDAT ?MaxLength@UnitName@CvWorldBuilderMap@@2IB
CONST	SEGMENT
?MaxLength@UnitName@CvWorldBuilderMap@@2IB DD 040H	; CvWorldBuilderMap::UnitName::MaxLength
CONST	ENDS
;	COMDAT ?InvalidUnitType@OldUnit@CvWorldBuilderMap@@2EB
CONST	SEGMENT
?InvalidUnitType@OldUnit@CvWorldBuilderMap@@2EB DB 0ffH	; CvWorldBuilderMap::OldUnit::InvalidUnitType
CONST	ENDS
;	COMDAT ?InvalidNaturalWonder@PlotMapData@CvWorldBuilderMap@@2EB
CONST	SEGMENT
?InvalidNaturalWonder@PlotMapData@CvWorldBuilderMap@@2EB DB 0ffH ; CvWorldBuilderMap::PlotMapData::InvalidNaturalWonder
CONST	ENDS
;	COMDAT ?InvalidFeature@PlotMapData@CvWorldBuilderMap@@2EB
CONST	SEGMENT
?InvalidFeature@PlotMapData@CvWorldBuilderMap@@2EB DB 0ffH ; CvWorldBuilderMap::PlotMapData::InvalidFeature
CONST	ENDS
;	COMDAT ?InvalidResource@PlotMapData@CvWorldBuilderMap@@2EB
CONST	SEGMENT
?InvalidResource@PlotMapData@CvWorldBuilderMap@@2EB DB 0ffH ; CvWorldBuilderMap::PlotMapData::InvalidResource
CONST	ENDS
;	COMDAT ?BarbarianPlayer@CvWorldBuilderMap@@2IB
CONST	SEGMENT
?BarbarianPlayer@CvWorldBuilderMap@@2IB DD 060H		; CvWorldBuilderMap::BarbarianPlayer
CONST	ENDS
;	COMDAT ?MaxTeams@CvWorldBuilderMap@@2IB
CONST	SEGMENT
?MaxTeams@CvWorldBuilderMap@@2IB DD 060H		; CvWorldBuilderMap::MaxTeams
CONST	ENDS
;	COMDAT ?MaxCityStates@CvWorldBuilderMap@@2IB
CONST	SEGMENT
?MaxCityStates@CvWorldBuilderMap@@2IB DD 040H		; CvWorldBuilderMap::MaxCityStates
CONST	ENDS
;	COMDAT ?MaxPlayers@CvWorldBuilderMap@@2IB
CONST	SEGMENT
?MaxPlayers@CvWorldBuilderMap@@2IB DD 020H		; CvWorldBuilderMap::MaxPlayers
CONST	ENDS
;	COMDAT ?MaxMapSize@CvWorldBuilderMap@@2IB
CONST	SEGMENT
?MaxMapSize@CvWorldBuilderMap@@2IB DD 08000H		; CvWorldBuilderMap::MaxMapSize
CONST	ENDS
;	COMDAT ?FileVersion@CvWorldBuilderMap@@2IB
CONST	SEGMENT
?FileVersion@CvWorldBuilderMap@@2IB DD 0cH		; CvWorldBuilderMap::FileVersion
CONST	ENDS
;	COMDAT ?NO_TURN@CvMinorCivQuest@@2HB
CONST	SEGMENT
?NO_TURN@CvMinorCivQuest@@2HB DD 0ffffffffH		; CvMinorCivQuest::NO_TURN
CONST	ENDS
;	COMDAT ?NO_QUEST_DATA@CvMinorCivQuest@@2HB
CONST	SEGMENT
?NO_QUEST_DATA@CvMinorCivQuest@@2HB DD 0ffffffffH	; CvMinorCivQuest::NO_QUEST_DATA
CONST	ENDS
PUBLIC	?GetWidth@CvWorldBuilderMap@@QBEIXZ		; CvWorldBuilderMap::GetWidth
; Function compile flags: /Ogtpy
; File c:\users\enormousapplepie\documents\github\lekmod\lekmod_dll\cvworldbuildermap\include\cvworldbuildermap.h
;	COMDAT ?GetWidth@CvWorldBuilderMap@@QBEIXZ
_TEXT	SEGMENT
?GetWidth@CvWorldBuilderMap@@QBEIXZ PROC		; CvWorldBuilderMap::GetWidth, COMDAT
; _this$ = ecx

; 51   : 	inline uint GetWidth() const { return m_kMapDesc.uiWidth; }

	mov	eax, DWORD PTR [ecx+12228]
	ret	0
?GetWidth@CvWorldBuilderMap@@QBEIXZ ENDP		; CvWorldBuilderMap::GetWidth
_TEXT	ENDS
PUBLIC	?GetHeight@CvWorldBuilderMap@@QBEIXZ		; CvWorldBuilderMap::GetHeight
; Function compile flags: /Ogtpy
;	COMDAT ?GetHeight@CvWorldBuilderMap@@QBEIXZ
_TEXT	SEGMENT
?GetHeight@CvWorldBuilderMap@@QBEIXZ PROC		; CvWorldBuilderMap::GetHeight, COMDAT
; _this$ = ecx

; 52   : 	inline uint GetHeight() const { return m_kMapDesc.uiHeight; }

	mov	eax, DWORD PTR [ecx+12232]
	ret	0
?GetHeight@CvWorldBuilderMap@@QBEIXZ ENDP		; CvWorldBuilderMap::GetHeight
_TEXT	ENDS
PUBLIC	?GetPlotCount@CvWorldBuilderMap@@QBEIXZ		; CvWorldBuilderMap::GetPlotCount
; Function compile flags: /Ogtpy
;	COMDAT ?GetPlotCount@CvWorldBuilderMap@@QBEIXZ
_TEXT	SEGMENT
?GetPlotCount@CvWorldBuilderMap@@QBEIXZ PROC		; CvWorldBuilderMap::GetPlotCount, COMDAT
; _this$ = ecx

; 53   : 	inline uint GetPlotCount() const { return m_kMapDesc.uiWidth * m_kMapDesc.uiHeight; }

	mov	eax, DWORD PTR [ecx+12232]
	imul	eax, DWORD PTR [ecx+12228]
	ret	0
?GetPlotCount@CvWorldBuilderMap@@QBEIXZ ENDP		; CvWorldBuilderMap::GetPlotCount
_TEXT	ENDS
PUBLIC	?GetTerrainType@PlotMapData@CvWorldBuilderMap@@QBEEXZ ; CvWorldBuilderMap::PlotMapData::GetTerrainType
; Function compile flags: /Ogtpy
;	COMDAT ?GetTerrainType@PlotMapData@CvWorldBuilderMap@@QBEEXZ
_TEXT	SEGMENT
?GetTerrainType@PlotMapData@CvWorldBuilderMap@@QBEEXZ PROC ; CvWorldBuilderMap::PlotMapData::GetTerrainType, COMDAT
; _this$ = ecx

; 60   : 		__forceinline byte GetTerrainType() const { return m_byTerrainType; }

	mov	al, BYTE PTR [ecx]
	ret	0
?GetTerrainType@PlotMapData@CvWorldBuilderMap@@QBEEXZ ENDP ; CvWorldBuilderMap::PlotMapData::GetTerrainType
_TEXT	ENDS
PUBLIC	?SetTerrainType@PlotMapData@CvWorldBuilderMap@@QAEXE@Z ; CvWorldBuilderMap::PlotMapData::SetTerrainType
; Function compile flags: /Ogtpy
;	COMDAT ?SetTerrainType@PlotMapData@CvWorldBuilderMap@@QAEXE@Z
_TEXT	SEGMENT
_byType$ = 8						; size = 1
?SetTerrainType@PlotMapData@CvWorldBuilderMap@@QAEXE@Z PROC ; CvWorldBuilderMap::PlotMapData::SetTerrainType, COMDAT
; _this$ = ecx

; 61   : 		__forceinline void SetTerrainType(byte byType) { m_byTerrainType = byType; }

	mov	al, BYTE PTR _byType$[esp-4]
	mov	BYTE PTR [ecx], al
	ret	4
?SetTerrainType@PlotMapData@CvWorldBuilderMap@@QAEXE@Z ENDP ; CvWorldBuilderMap::PlotMapData::SetTerrainType
_TEXT	ENDS
PUBLIC	?GetContinentType@PlotMapData@CvWorldBuilderMap@@QBEEXZ ; CvWorldBuilderMap::PlotMapData::GetContinentType
; Function compile flags: /Ogtpy
;	COMDAT ?GetContinentType@PlotMapData@CvWorldBuilderMap@@QBEEXZ
_TEXT	SEGMENT
?GetContinentType@PlotMapData@CvWorldBuilderMap@@QBEEXZ PROC ; CvWorldBuilderMap::PlotMapData::GetContinentType, COMDAT
; _this$ = ecx

; 63   : 		__forceinline byte GetContinentType() const { return m_byContinentType; }

	mov	al, BYTE PTR [ecx+5]
	ret	0
?GetContinentType@PlotMapData@CvWorldBuilderMap@@QBEEXZ ENDP ; CvWorldBuilderMap::PlotMapData::GetContinentType
_TEXT	ENDS
PUBLIC	?SetContinentType@PlotMapData@CvWorldBuilderMap@@QAEXE@Z ; CvWorldBuilderMap::PlotMapData::SetContinentType
; Function compile flags: /Ogtpy
;	COMDAT ?SetContinentType@PlotMapData@CvWorldBuilderMap@@QAEXE@Z
_TEXT	SEGMENT
_byType$ = 8						; size = 1
?SetContinentType@PlotMapData@CvWorldBuilderMap@@QAEXE@Z PROC ; CvWorldBuilderMap::PlotMapData::SetContinentType, COMDAT
; _this$ = ecx

; 64   : 		__forceinline void SetContinentType(byte byType) { m_byContinentType = byType; }

	mov	al, BYTE PTR _byType$[esp-4]
	mov	BYTE PTR [ecx+5], al
	ret	4
?SetContinentType@PlotMapData@CvWorldBuilderMap@@QAEXE@Z ENDP ; CvWorldBuilderMap::PlotMapData::SetContinentType
_TEXT	ENDS
PUBLIC	?GetResourceType@PlotMapData@CvWorldBuilderMap@@QBEEXZ ; CvWorldBuilderMap::PlotMapData::GetResourceType
; Function compile flags: /Ogtpy
;	COMDAT ?GetResourceType@PlotMapData@CvWorldBuilderMap@@QBEEXZ
_TEXT	SEGMENT
?GetResourceType@PlotMapData@CvWorldBuilderMap@@QBEEXZ PROC ; CvWorldBuilderMap::PlotMapData::GetResourceType, COMDAT
; _this$ = ecx

; 67   : 		__forceinline byte GetResourceType() const { return m_byResourceType; }

	mov	al, BYTE PTR [ecx+1]
	ret	0
?GetResourceType@PlotMapData@CvWorldBuilderMap@@QBEEXZ ENDP ; CvWorldBuilderMap::PlotMapData::GetResourceType
_TEXT	ENDS
PUBLIC	?SetResourceType@PlotMapData@CvWorldBuilderMap@@QAEXE@Z ; CvWorldBuilderMap::PlotMapData::SetResourceType
; Function compile flags: /Ogtpy
;	COMDAT ?SetResourceType@PlotMapData@CvWorldBuilderMap@@QAEXE@Z
_TEXT	SEGMENT
_byType$ = 8						; size = 1
?SetResourceType@PlotMapData@CvWorldBuilderMap@@QAEXE@Z PROC ; CvWorldBuilderMap::PlotMapData::SetResourceType, COMDAT
; _this$ = ecx

; 68   : 		__forceinline void SetResourceType(byte byType) { m_byResourceType = byType; }

	mov	al, BYTE PTR _byType$[esp-4]
	mov	BYTE PTR [ecx+1], al
	ret	4
?SetResourceType@PlotMapData@CvWorldBuilderMap@@QAEXE@Z ENDP ; CvWorldBuilderMap::PlotMapData::SetResourceType
_TEXT	ENDS
PUBLIC	?GetResourceAmount@PlotMapData@CvWorldBuilderMap@@QBEEXZ ; CvWorldBuilderMap::PlotMapData::GetResourceAmount
; Function compile flags: /Ogtpy
;	COMDAT ?GetResourceAmount@PlotMapData@CvWorldBuilderMap@@QBEEXZ
_TEXT	SEGMENT
?GetResourceAmount@PlotMapData@CvWorldBuilderMap@@QBEEXZ PROC ; CvWorldBuilderMap::PlotMapData::GetResourceAmount, COMDAT
; _this$ = ecx

; 70   : 		__forceinline byte GetResourceAmount() const { return m_byResourceAmount; }

	mov	al, BYTE PTR [ecx+7]
	ret	0
?GetResourceAmount@PlotMapData@CvWorldBuilderMap@@QBEEXZ ENDP ; CvWorldBuilderMap::PlotMapData::GetResourceAmount
_TEXT	ENDS
PUBLIC	?SetResourceAmount@PlotMapData@CvWorldBuilderMap@@QAEXE@Z ; CvWorldBuilderMap::PlotMapData::SetResourceAmount
; Function compile flags: /Ogtpy
;	COMDAT ?SetResourceAmount@PlotMapData@CvWorldBuilderMap@@QAEXE@Z
_TEXT	SEGMENT
_byAmount$ = 8						; size = 1
?SetResourceAmount@PlotMapData@CvWorldBuilderMap@@QAEXE@Z PROC ; CvWorldBuilderMap::PlotMapData::SetResourceAmount, COMDAT
; _this$ = ecx

; 71   : 		__forceinline void SetResourceAmount(byte byAmount) { m_byResourceAmount = byAmount; }

	mov	al, BYTE PTR _byAmount$[esp-4]
	mov	BYTE PTR [ecx+7], al
	ret	4
?SetResourceAmount@PlotMapData@CvWorldBuilderMap@@QAEXE@Z ENDP ; CvWorldBuilderMap::PlotMapData::SetResourceAmount
_TEXT	ENDS
PUBLIC	?GetFeatureType@PlotMapData@CvWorldBuilderMap@@QBEEXZ ; CvWorldBuilderMap::PlotMapData::GetFeatureType
; Function compile flags: /Ogtpy
;	COMDAT ?GetFeatureType@PlotMapData@CvWorldBuilderMap@@QBEEXZ
_TEXT	SEGMENT
?GetFeatureType@PlotMapData@CvWorldBuilderMap@@QBEEXZ PROC ; CvWorldBuilderMap::PlotMapData::GetFeatureType, COMDAT
; _this$ = ecx

; 74   : 		__forceinline byte GetFeatureType() const { return m_byFeatureType; }

	mov	al, BYTE PTR [ecx+2]
	ret	0
?GetFeatureType@PlotMapData@CvWorldBuilderMap@@QBEEXZ ENDP ; CvWorldBuilderMap::PlotMapData::GetFeatureType
_TEXT	ENDS
PUBLIC	?SetFeatureType@PlotMapData@CvWorldBuilderMap@@QAEXE@Z ; CvWorldBuilderMap::PlotMapData::SetFeatureType
; Function compile flags: /Ogtpy
;	COMDAT ?SetFeatureType@PlotMapData@CvWorldBuilderMap@@QAEXE@Z
_TEXT	SEGMENT
_byType$ = 8						; size = 1
?SetFeatureType@PlotMapData@CvWorldBuilderMap@@QAEXE@Z PROC ; CvWorldBuilderMap::PlotMapData::SetFeatureType, COMDAT
; _this$ = ecx

; 75   : 		__forceinline void SetFeatureType(byte byType) { m_byFeatureType = byType; }

	mov	al, BYTE PTR _byType$[esp-4]
	mov	BYTE PTR [ecx+2], al
	ret	4
?SetFeatureType@PlotMapData@CvWorldBuilderMap@@QAEXE@Z ENDP ; CvWorldBuilderMap::PlotMapData::SetFeatureType
_TEXT	ENDS
PUBLIC	?GetNaturalWonderType@PlotMapData@CvWorldBuilderMap@@QBEEXZ ; CvWorldBuilderMap::PlotMapData::GetNaturalWonderType
; Function compile flags: /Ogtpy
;	COMDAT ?GetNaturalWonderType@PlotMapData@CvWorldBuilderMap@@QBEEXZ
_TEXT	SEGMENT
?GetNaturalWonderType@PlotMapData@CvWorldBuilderMap@@QBEEXZ PROC ; CvWorldBuilderMap::PlotMapData::GetNaturalWonderType, COMDAT
; _this$ = ecx

; 78   : 		__forceinline byte GetNaturalWonderType() const { return m_byNaturalWonderType; }

	mov	al, BYTE PTR [ecx+6]
	ret	0
?GetNaturalWonderType@PlotMapData@CvWorldBuilderMap@@QBEEXZ ENDP ; CvWorldBuilderMap::PlotMapData::GetNaturalWonderType
_TEXT	ENDS
PUBLIC	?SetNaturalWonderType@PlotMapData@CvWorldBuilderMap@@QAEXE@Z ; CvWorldBuilderMap::PlotMapData::SetNaturalWonderType
; Function compile flags: /Ogtpy
;	COMDAT ?SetNaturalWonderType@PlotMapData@CvWorldBuilderMap@@QAEXE@Z
_TEXT	SEGMENT
_byType$ = 8						; size = 1
?SetNaturalWonderType@PlotMapData@CvWorldBuilderMap@@QAEXE@Z PROC ; CvWorldBuilderMap::PlotMapData::SetNaturalWonderType, COMDAT
; _this$ = ecx

; 79   : 		__forceinline void SetNaturalWonderType(byte byType) { m_byNaturalWonderType = byType; }

	mov	al, BYTE PTR _byType$[esp-4]
	mov	BYTE PTR [ecx+6], al
	ret	4
?SetNaturalWonderType@PlotMapData@CvWorldBuilderMap@@QAEXE@Z ENDP ; CvWorldBuilderMap::PlotMapData::SetNaturalWonderType
_TEXT	ENDS
PUBLIC	?GetPlotHeight@PlotMapData@CvWorldBuilderMap@@QBE?AW4PlotHeight@12@XZ ; CvWorldBuilderMap::PlotMapData::GetPlotHeight
; Function compile flags: /Ogtpy
;	COMDAT ?GetPlotHeight@PlotMapData@CvWorldBuilderMap@@QBE?AW4PlotHeight@12@XZ
_TEXT	SEGMENT
?GetPlotHeight@PlotMapData@CvWorldBuilderMap@@QBE?AW4PlotHeight@12@XZ PROC ; CvWorldBuilderMap::PlotMapData::GetPlotHeight, COMDAT
; _this$ = ecx

; 88   : 		__forceinline PlotHeight GetPlotHeight() const { return (PlotHeight)m_byPlotHeight; }

	movzx	eax, BYTE PTR [ecx+4]
	ret	0
?GetPlotHeight@PlotMapData@CvWorldBuilderMap@@QBE?AW4PlotHeight@12@XZ ENDP ; CvWorldBuilderMap::PlotMapData::GetPlotHeight
_TEXT	ENDS
PUBLIC	?SetPlotHeight@PlotMapData@CvWorldBuilderMap@@QAEXW4PlotHeight@12@@Z ; CvWorldBuilderMap::PlotMapData::SetPlotHeight
; Function compile flags: /Ogtpy
;	COMDAT ?SetPlotHeight@PlotMapData@CvWorldBuilderMap@@QAEXW4PlotHeight@12@@Z
_TEXT	SEGMENT
_eHeight$ = 8						; size = 4
?SetPlotHeight@PlotMapData@CvWorldBuilderMap@@QAEXW4PlotHeight@12@@Z PROC ; CvWorldBuilderMap::PlotMapData::SetPlotHeight, COMDAT
; _this$ = ecx

; 89   : 		__forceinline void SetPlotHeight(PlotHeight eHeight) { m_byPlotHeight = (byte)eHeight; }

	mov	al, BYTE PTR _eHeight$[esp-4]
	mov	BYTE PTR [ecx+4], al
	ret	4
?SetPlotHeight@PlotMapData@CvWorldBuilderMap@@QAEXW4PlotHeight@12@@Z ENDP ; CvWorldBuilderMap::PlotMapData::SetPlotHeight
_TEXT	ENDS
PUBLIC	?GetFlag@PlotMapData@CvWorldBuilderMap@@QBE_NW4PlotFlags@12@@Z ; CvWorldBuilderMap::PlotMapData::GetFlag
; Function compile flags: /Ogtpy
;	COMDAT ?GetFlag@PlotMapData@CvWorldBuilderMap@@QBE_NW4PlotFlags@12@@Z
_TEXT	SEGMENT
_eFlag$ = 8						; size = 4
?GetFlag@PlotMapData@CvWorldBuilderMap@@QBE_NW4PlotFlags@12@@Z PROC ; CvWorldBuilderMap::PlotMapData::GetFlag, COMDAT
; _this$ = ecx

; 106  : 		__forceinline bool GetFlag(PlotFlags eFlag) const { return (m_byFlags & eFlag) != 0; }

	mov	al, BYTE PTR _eFlag$[esp-4]
	test	BYTE PTR [ecx+3], al
	mov	eax, 0
	setne	al
	ret	4
?GetFlag@PlotMapData@CvWorldBuilderMap@@QBE_NW4PlotFlags@12@@Z ENDP ; CvWorldBuilderMap::PlotMapData::GetFlag
_TEXT	ENDS
PUBLIC	?SetFlag@PlotMapData@CvWorldBuilderMap@@QAEXW4PlotFlags@12@@Z ; CvWorldBuilderMap::PlotMapData::SetFlag
; Function compile flags: /Ogtpy
;	COMDAT ?SetFlag@PlotMapData@CvWorldBuilderMap@@QAEXW4PlotFlags@12@@Z
_TEXT	SEGMENT
_eFlag$ = 8						; size = 4
?SetFlag@PlotMapData@CvWorldBuilderMap@@QAEXW4PlotFlags@12@@Z PROC ; CvWorldBuilderMap::PlotMapData::SetFlag, COMDAT
; _this$ = ecx

; 107  : 		__forceinline void SetFlag(PlotFlags eFlag) { m_byFlags |= eFlag; }

	mov	al, BYTE PTR _eFlag$[esp-4]
	or	BYTE PTR [ecx+3], al
	ret	4
?SetFlag@PlotMapData@CvWorldBuilderMap@@QAEXW4PlotFlags@12@@Z ENDP ; CvWorldBuilderMap::PlotMapData::SetFlag
_TEXT	ENDS
PUBLIC	?ClearFlag@PlotMapData@CvWorldBuilderMap@@QAEXW4PlotFlags@12@@Z ; CvWorldBuilderMap::PlotMapData::ClearFlag
; Function compile flags: /Ogtpy
;	COMDAT ?ClearFlag@PlotMapData@CvWorldBuilderMap@@QAEXW4PlotFlags@12@@Z
_TEXT	SEGMENT
_eFlag$ = 8						; size = 4
?ClearFlag@PlotMapData@CvWorldBuilderMap@@QAEXW4PlotFlags@12@@Z PROC ; CvWorldBuilderMap::PlotMapData::ClearFlag, COMDAT
; _this$ = ecx

; 108  : 		__forceinline void ClearFlag(PlotFlags eFlag) { m_byFlags &= ~eFlag; } 

	mov	al, BYTE PTR _eFlag$[esp-4]
	not	al
	and	BYTE PTR [ecx+3], al
	ret	4
?ClearFlag@PlotMapData@CvWorldBuilderMap@@QAEXW4PlotFlags@12@@Z ENDP ; CvWorldBuilderMap::PlotMapData::ClearFlag
_TEXT	ENDS
PUBLIC	__real@47c35000
PUBLIC	__real@4f800000
PUBLIC	?GetHealthAsFloat@Unit@CvWorldBuilderMap@@QBE?BMXZ ; CvWorldBuilderMap::Unit::GetHealthAsFloat
EXTRN	__fltused:DWORD
;	COMDAT __real@47c35000
CONST	SEGMENT
__real@47c35000 DD 047c35000r			; 100000
CONST	ENDS
;	COMDAT __real@4f800000
CONST	SEGMENT
__real@4f800000 DD 04f800000r			; 4.29497e+009
; Function compile flags: /Ogtpy
CONST	ENDS
;	COMDAT ?GetHealthAsFloat@Unit@CvWorldBuilderMap@@QBE?BMXZ
_TEXT	SEGMENT
tv131 = -4						; size = 4
tv129 = -4						; size = 4
?GetHealthAsFloat@Unit@CvWorldBuilderMap@@QBE?BMXZ PROC	; CvWorldBuilderMap::Unit::GetHealthAsFloat, COMDAT
; _this$ = ecx

; 263  : 		const float GetHealthAsFloat() const { return (float)m_uiHealth / (float)MaxHealth; }

	push	ecx
	mov	eax, DWORD PTR [ecx+8]
	fild	DWORD PTR [ecx+8]
	test	eax, eax
	jge	SHORT $LN3@GetHealthA
	fadd	DWORD PTR __real@4f800000
$LN3@GetHealthA:
	fdiv	DWORD PTR __real@47c35000
	fstp	DWORD PTR tv129[esp+4]
	fld	DWORD PTR tv129[esp+4]
	pop	ecx
	ret	0
?GetHealthAsFloat@Unit@CvWorldBuilderMap@@QBE?BMXZ ENDP	; CvWorldBuilderMap::Unit::GetHealthAsFloat
_TEXT	ENDS
PUBLIC	?GetFlag@Unit@CvWorldBuilderMap@@QBE_NW4Flags@12@@Z ; CvWorldBuilderMap::Unit::GetFlag
; Function compile flags: /Ogtpy
;	COMDAT ?GetFlag@Unit@CvWorldBuilderMap@@QBE_NW4Flags@12@@Z
_TEXT	SEGMENT
_eFlag$ = 8						; size = 4
?GetFlag@Unit@CvWorldBuilderMap@@QBE_NW4Flags@12@@Z PROC ; CvWorldBuilderMap::Unit::GetFlag, COMDAT
; _this$ = ecx

; 265  : 		__forceinline bool GetFlag(Flags eFlag) const { return (m_byFlags & eFlag) != 0; }

	mov	al, BYTE PTR _eFlag$[esp-4]
	test	BYTE PTR [ecx+18], al
	mov	eax, 0
	setne	al
	ret	4
?GetFlag@Unit@CvWorldBuilderMap@@QBE_NW4Flags@12@@Z ENDP ; CvWorldBuilderMap::Unit::GetFlag
_TEXT	ENDS
PUBLIC	?GetHealthAsFloat@City@CvWorldBuilderMap@@QBE?BMXZ ; CvWorldBuilderMap::City::GetHealthAsFloat
; Function compile flags: /Ogtpy
;	COMDAT ?GetHealthAsFloat@City@CvWorldBuilderMap@@QBE?BMXZ
_TEXT	SEGMENT
tv131 = -4						; size = 4
tv129 = -4						; size = 4
?GetHealthAsFloat@City@CvWorldBuilderMap@@QBE?BMXZ PROC	; CvWorldBuilderMap::City::GetHealthAsFloat, COMDAT
; _this$ = ecx

; 355  : 		const float GetHealthAsFloat() const { return (float)m_uiHealth / (float)MaxHealth; }

	push	ecx
	mov	eax, DWORD PTR [ecx+68]
	fild	DWORD PTR [ecx+68]
	test	eax, eax
	jge	SHORT $LN3@GetHealthA@2
	fadd	DWORD PTR __real@4f800000
$LN3@GetHealthA@2:
	fdiv	DWORD PTR __real@47c35000
	fstp	DWORD PTR tv129[esp+4]
	fld	DWORD PTR tv129[esp+4]
	pop	ecx
	ret	0
?GetHealthAsFloat@City@CvWorldBuilderMap@@QBE?BMXZ ENDP	; CvWorldBuilderMap::City::GetHealthAsFloat
_TEXT	ENDS
PUBLIC	?GetFlag@City@CvWorldBuilderMap@@QBE_NW4Flags@12@@Z ; CvWorldBuilderMap::City::GetFlag
; Function compile flags: /Ogtpy
;	COMDAT ?GetFlag@City@CvWorldBuilderMap@@QBE_NW4Flags@12@@Z
_TEXT	SEGMENT
_eFlag$ = 8						; size = 4
?GetFlag@City@CvWorldBuilderMap@@QBE_NW4Flags@12@@Z PROC ; CvWorldBuilderMap::City::GetFlag, COMDAT
; _this$ = ecx

; 357  : 		__forceinline bool GetFlag(Flags eFlag) const { return (m_byFlags & eFlag) != 0; }

	mov	al, BYTE PTR _eFlag$[esp-4]
	test	BYTE PTR [ecx+65], al
	mov	eax, 0
	setne	al
	ret	4
?GetFlag@City@CvWorldBuilderMap@@QBE_NW4Flags@12@@Z ENDP ; CvWorldBuilderMap::City::GetFlag
_TEXT	ENDS
PUBLIC	?GetPlotData@CvWorldBuilderMap@@QAEAAVPlotMapData@1@I@Z ; CvWorldBuilderMap::GetPlotData
EXTRN	?sm_kErrorPlotMapData@CvWorldBuilderMap@@0VPlotMapData@1@A:QWORD ; CvWorldBuilderMap::sm_kErrorPlotMapData
; Function compile flags: /Ogtpy
;	COMDAT ?GetPlotData@CvWorldBuilderMap@@QAEAAVPlotMapData@1@I@Z
_TEXT	SEGMENT
_uiIndex$ = 8						; size = 4
?GetPlotData@CvWorldBuilderMap@@QAEAAVPlotMapData@1@I@Z PROC ; CvWorldBuilderMap::GetPlotData, COMDAT
; _this$ = ecx

; 496  : 		if( uiIndex < m_kMapDesc.uiWidth * m_kMapDesc.uiHeight && uiIndex < MaxMapSize )

	mov	edx, DWORD PTR [ecx+12232]
	imul	edx, DWORD PTR [ecx+12228]
	mov	eax, DWORD PTR _uiIndex$[esp-4]
	cmp	eax, edx
	jae	SHORT $LN2@GetPlotDat
	cmp	eax, 32768				; 00008000H

; 497  : 		{
; 498  : 			return m_akMapData[uiIndex];

	lea	eax, DWORD PTR [ecx+eax*8+12320]
	jb	SHORT $LN1@GetPlotDat
$LN2@GetPlotDat:

; 499  : 		}
; 500  : 		else
; 501  : 		{
; 502  : 			FAssertMsg(false, "Invalid Position");
; 503  : 			return sm_kErrorPlotMapData;

	mov	eax, OFFSET ?sm_kErrorPlotMapData@CvWorldBuilderMap@@0VPlotMapData@1@A ; CvWorldBuilderMap::sm_kErrorPlotMapData
$LN1@GetPlotDat:

; 504  : 		}
; 505  : 	}

	ret	4
?GetPlotData@CvWorldBuilderMap@@QAEAAVPlotMapData@1@I@Z ENDP ; CvWorldBuilderMap::GetPlotData
_TEXT	ENDS
PUBLIC	?GetPlotScenarioData@CvWorldBuilderMap@@QAEAAUPlotScenarioData@1@I@Z ; CvWorldBuilderMap::GetPlotScenarioData
EXTRN	?sm_kErrorPlotScenarioData@CvWorldBuilderMap@@0UPlotScenarioData@1@A:QWORD ; CvWorldBuilderMap::sm_kErrorPlotScenarioData
; Function compile flags: /Ogtpy
;	COMDAT ?GetPlotScenarioData@CvWorldBuilderMap@@QAEAAUPlotScenarioData@1@I@Z
_TEXT	SEGMENT
_uiIndex$ = 8						; size = 4
?GetPlotScenarioData@CvWorldBuilderMap@@QAEAAUPlotScenarioData@1@I@Z PROC ; CvWorldBuilderMap::GetPlotScenarioData, COMDAT
; _this$ = ecx

; 548  : 		if( uiIndex < m_kMapDesc.uiWidth * m_kMapDesc.uiHeight && uiIndex < MaxMapSize )

	mov	edx, DWORD PTR [ecx+12232]
	imul	edx, DWORD PTR [ecx+12228]
	mov	eax, DWORD PTR _uiIndex$[esp-4]
	cmp	eax, edx
	jae	SHORT $LN2@GetPlotSce
	cmp	eax, 32768				; 00008000H

; 549  : 		{
; 550  : 			return m_akScenarioData[uiIndex];

	lea	eax, DWORD PTR [ecx+eax*8+274464]
	jb	SHORT $LN1@GetPlotSce
$LN2@GetPlotSce:

; 551  : 		}
; 552  : 		else
; 553  : 		{
; 554  : 			FAssertMsg(false, "Invalid Position");
; 555  : 			return sm_kErrorPlotScenarioData;

	mov	eax, OFFSET ?sm_kErrorPlotScenarioData@CvWorldBuilderMap@@0UPlotScenarioData@1@A ; CvWorldBuilderMap::sm_kErrorPlotScenarioData
$LN1@GetPlotSce:

; 556  : 		}
; 557  : 	}

	ret	4
?GetPlotScenarioData@CvWorldBuilderMap@@QAEAAUPlotScenarioData@1@I@Z ENDP ; CvWorldBuilderMap::GetPlotScenarioData
_TEXT	ENDS
PUBLIC	?GetPlayerCount@CvWorldBuilderMap@@QBE?BEXZ	; CvWorldBuilderMap::GetPlayerCount
; Function compile flags: /Ogtpy
;	COMDAT ?GetPlayerCount@CvWorldBuilderMap@@QBE?BEXZ
_TEXT	SEGMENT
?GetPlayerCount@CvWorldBuilderMap@@QBE?BEXZ PROC	; CvWorldBuilderMap::GetPlayerCount, COMDAT
; _this$ = ecx

; 559  : 	inline const byte GetPlayerCount() const { return m_kGameDesc.byPlayerCount; }

	mov	al, BYTE PTR [ecx+12316]
	ret	0
?GetPlayerCount@CvWorldBuilderMap@@QBE?BEXZ ENDP	; CvWorldBuilderMap::GetPlayerCount
_TEXT	ENDS
PUBLIC	?GetCityStateCount@CvWorldBuilderMap@@QBE?BEXZ	; CvWorldBuilderMap::GetCityStateCount
; Function compile flags: /Ogtpy
;	COMDAT ?GetCityStateCount@CvWorldBuilderMap@@QBE?BEXZ
_TEXT	SEGMENT
?GetCityStateCount@CvWorldBuilderMap@@QBE?BEXZ PROC	; CvWorldBuilderMap::GetCityStateCount, COMDAT
; _this$ = ecx

; 567  : 	inline const byte GetCityStateCount() const { return m_kGameDesc.byCityStateCount; }

	mov	al, BYTE PTR [ecx+12317]
	ret	0
?GetCityStateCount@CvWorldBuilderMap@@QBE?BEXZ ENDP	; CvWorldBuilderMap::GetCityStateCount
_TEXT	ENDS
PUBLIC	?GetTeamCount@CvWorldBuilderMap@@QBE?BEXZ	; CvWorldBuilderMap::GetTeamCount
; Function compile flags: /Ogtpy
;	COMDAT ?GetTeamCount@CvWorldBuilderMap@@QBE?BEXZ
_TEXT	SEGMENT
?GetTeamCount@CvWorldBuilderMap@@QBE?BEXZ PROC		; CvWorldBuilderMap::GetTeamCount, COMDAT
; _this$ = ecx

; 575  : 	inline const byte GetTeamCount() const { return m_kGameDesc.byTeamCount; }

	mov	al, BYTE PTR [ecx+12318]
	ret	0
?GetTeamCount@CvWorldBuilderMap@@QBE?BEXZ ENDP		; CvWorldBuilderMap::GetTeamCount
_TEXT	ENDS
PUBLIC	?GetPlayer@CvWorldBuilderMap@@QAEAAUPlayer@1@E@Z ; CvWorldBuilderMap::GetPlayer
EXTRN	?sm_kErrorPlayer@CvWorldBuilderMap@@0UPlayer@1@A:BYTE ; CvWorldBuilderMap::sm_kErrorPlayer
; Function compile flags: /Ogtpy
;	COMDAT ?GetPlayer@CvWorldBuilderMap@@QAEAAUPlayer@1@E@Z
_TEXT	SEGMENT
_byPlayer$ = 8						; size = 1
?GetPlayer@CvWorldBuilderMap@@QAEAAUPlayer@1@E@Z PROC	; CvWorldBuilderMap::GetPlayer, COMDAT
; _this$ = ecx

; 585  : 		if( byPlayer < m_kGameDesc.byPlayerCount && byPlayer < MaxPlayers )

	mov	al, BYTE PTR _byPlayer$[esp-4]
	cmp	al, BYTE PTR [ecx+12316]
	jae	SHORT $LN2@GetPlayer
	cmp	al, 32					; 00000020H
	jae	SHORT $LN2@GetPlayer

; 586  : 		{
; 587  : 			return m_akPlayers[byPlayer];

	movzx	eax, al
	imul	eax, 436				; 000001b4H
	lea	eax, DWORD PTR [eax+ecx+536608]

; 593  : 		}
; 594  : 	}

	ret	4
$LN2@GetPlayer:

; 588  : 		}
; 589  : 		else
; 590  : 		{
; 591  : 			FAssertMsg(false, "Invalid Player");
; 592  : 			return sm_kErrorPlayer;

	mov	eax, OFFSET ?sm_kErrorPlayer@CvWorldBuilderMap@@0UPlayer@1@A ; CvWorldBuilderMap::sm_kErrorPlayer

; 593  : 		}
; 594  : 	}

	ret	4
?GetPlayer@CvWorldBuilderMap@@QAEAAUPlayer@1@E@Z ENDP	; CvWorldBuilderMap::GetPlayer
_TEXT	ENDS
PUBLIC	?GetCityState@CvWorldBuilderMap@@QAEAAUPlayer@1@E@Z ; CvWorldBuilderMap::GetCityState
; Function compile flags: /Ogtpy
;	COMDAT ?GetCityState@CvWorldBuilderMap@@QAEAAUPlayer@1@E@Z
_TEXT	SEGMENT
_byPlayer$ = 8						; size = 1
?GetCityState@CvWorldBuilderMap@@QAEAAUPlayer@1@E@Z PROC ; CvWorldBuilderMap::GetCityState, COMDAT
; _this$ = ecx

; 611  : 		if( byPlayer < m_kGameDesc.byCityStateCount && byPlayer < MaxCityStates )

	mov	al, BYTE PTR _byPlayer$[esp-4]
	cmp	al, BYTE PTR [ecx+12317]
	jae	SHORT $LN2@GetCitySta
	cmp	al, 64					; 00000040H
	jae	SHORT $LN2@GetCitySta

; 612  : 		{
; 613  : 			return m_akCityStates[byPlayer];

	movzx	eax, al
	imul	eax, 436				; 000001b4H
	lea	eax, DWORD PTR [eax+ecx+550560]

; 619  : 		}
; 620  : 	}

	ret	4
$LN2@GetCitySta:

; 614  : 		}
; 615  : 		else
; 616  : 		{
; 617  : 			FAssertMsg(false, "Invalid City State");
; 618  : 			return sm_kErrorPlayer;

	mov	eax, OFFSET ?sm_kErrorPlayer@CvWorldBuilderMap@@0UPlayer@1@A ; CvWorldBuilderMap::sm_kErrorPlayer

; 619  : 		}
; 620  : 	}

	ret	4
?GetCityState@CvWorldBuilderMap@@QAEAAUPlayer@1@E@Z ENDP ; CvWorldBuilderMap::GetCityState
_TEXT	ENDS
PUBLIC	?GetTeam@CvWorldBuilderMap@@QAEAAUTeam@1@E@Z	; CvWorldBuilderMap::GetTeam
EXTRN	?sm_kErrorTeam@CvWorldBuilderMap@@0UTeam@1@A:BYTE ; CvWorldBuilderMap::sm_kErrorTeam
; Function compile flags: /Ogtpy
;	COMDAT ?GetTeam@CvWorldBuilderMap@@QAEAAUTeam@1@E@Z
_TEXT	SEGMENT
_byTeam$ = 8						; size = 1
?GetTeam@CvWorldBuilderMap@@QAEAAUTeam@1@E@Z PROC	; CvWorldBuilderMap::GetTeam, COMDAT
; _this$ = ecx

; 637  : 		if( byTeam < m_kGameDesc.byTeamCount && byTeam < MaxTeams )

	mov	al, BYTE PTR _byTeam$[esp-4]
	cmp	al, BYTE PTR [ecx+12318]
	jae	SHORT $LN2@GetTeam
	cmp	al, 96					; 00000060H
	jae	SHORT $LN2@GetTeam

; 638  : 		{
; 639  : 			return m_akTeams[byTeam];

	movzx	eax, al
	shl	eax, 6
	lea	eax, DWORD PTR [eax+ecx+578464]

; 645  : 		}
; 646  : 	}

	ret	4
$LN2@GetTeam:

; 640  : 		}
; 641  : 		else
; 642  : 		{
; 643  : 			FAssertMsg(false, "Invalid Team");
; 644  : 			return sm_kErrorTeam;

	mov	eax, OFFSET ?sm_kErrorTeam@CvWorldBuilderMap@@0UTeam@1@A ; CvWorldBuilderMap::sm_kErrorTeam

; 645  : 		}
; 646  : 	}

	ret	4
?GetTeam@CvWorldBuilderMap@@QAEAAUTeam@1@E@Z ENDP	; CvWorldBuilderMap::GetTeam
_TEXT	ENDS
PUBLIC	?GetDefaultGameSpeed@CvWorldBuilderMap@@QBEPBDXZ ; CvWorldBuilderMap::GetDefaultGameSpeed
; Function compile flags: /Ogtpy
;	COMDAT ?GetDefaultGameSpeed@CvWorldBuilderMap@@QBEPBDXZ
_TEXT	SEGMENT
?GetDefaultGameSpeed@CvWorldBuilderMap@@QBEPBDXZ PROC	; CvWorldBuilderMap::GetDefaultGameSpeed, COMDAT
; _this$ = ecx

; 681  : 	inline const char *GetDefaultGameSpeed() const { return m_kGameDesc.szDefaultSpeed; }

	lea	eax, DWORD PTR [ecx+12236]
	ret	0
?GetDefaultGameSpeed@CvWorldBuilderMap@@QBEPBDXZ ENDP	; CvWorldBuilderMap::GetDefaultGameSpeed
_TEXT	ENDS
PUBLIC	?GetWorldType@CvWorldBuilderMap@@QBEPBDXZ	; CvWorldBuilderMap::GetWorldType
; Function compile flags: /Ogtpy
;	COMDAT ?GetWorldType@CvWorldBuilderMap@@QBEPBDXZ
_TEXT	SEGMENT
?GetWorldType@CvWorldBuilderMap@@QBEPBDXZ PROC		; CvWorldBuilderMap::GetWorldType, COMDAT
; _this$ = ecx

; 684  : 	inline const char* GetWorldType() const {return m_szWorldType;}

	lea	eax, DWORD PTR [ecx+584608]
	ret	0
?GetWorldType@CvWorldBuilderMap@@QBEPBDXZ ENDP		; CvWorldBuilderMap::GetWorldType
_TEXT	ENDS
PUBLIC	?GetStartYear@CvWorldBuilderMap@@QBEHXZ		; CvWorldBuilderMap::GetStartYear
; Function compile flags: /Ogtpy
;	COMDAT ?GetStartYear@CvWorldBuilderMap@@QBEHXZ
_TEXT	SEGMENT
?GetStartYear@CvWorldBuilderMap@@QBEHXZ PROC		; CvWorldBuilderMap::GetStartYear, COMDAT
; _this$ = ecx

; 687  : 	inline int GetStartYear() const { return m_kGameDesc.iStartYear; }

	mov	eax, DWORD PTR [ecx+12312]
	ret	0
?GetStartYear@CvWorldBuilderMap@@QBEHXZ ENDP		; CvWorldBuilderMap::GetStartYear
_TEXT	ENDS
PUBLIC	?GetMaxTurns@CvWorldBuilderMap@@QBEIXZ		; CvWorldBuilderMap::GetMaxTurns
; Function compile flags: /Ogtpy
;	COMDAT ?GetMaxTurns@CvWorldBuilderMap@@QBEIXZ
_TEXT	SEGMENT
?GetMaxTurns@CvWorldBuilderMap@@QBEIXZ PROC		; CvWorldBuilderMap::GetMaxTurns, COMDAT
; _this$ = ecx

; 690  : 	inline uint GetMaxTurns() const { return m_kGameDesc.uiMaxTurns; }

	mov	eax, DWORD PTR [ecx+12304]
	ret	0
?GetMaxTurns@CvWorldBuilderMap@@QBEIXZ ENDP		; CvWorldBuilderMap::GetMaxTurns
_TEXT	ENDS
PUBLIC	?GetFlag@CvWorldBuilderMap@@QBE_NW4MapFlags@1@@Z ; CvWorldBuilderMap::GetFlag
; Function compile flags: /Ogtpy
;	COMDAT ?GetFlag@CvWorldBuilderMap@@QBE_NW4MapFlags@1@@Z
_TEXT	SEGMENT
_eFlag$ = 8						; size = 4
?GetFlag@CvWorldBuilderMap@@QBE_NW4MapFlags@1@@Z PROC	; CvWorldBuilderMap::GetFlag, COMDAT
; _this$ = ecx

; 726  : 	__forceinline bool GetFlag(MapFlags eFlag) const { return (m_uiFlags & eFlag) != 0; }

	mov	eax, DWORD PTR [ecx+12224]
	and	eax, DWORD PTR _eFlag$[esp-4]
	neg	eax
	sbb	eax, eax
	neg	eax
	ret	4
?GetFlag@CvWorldBuilderMap@@QBE_NW4MapFlags@1@@Z ENDP	; CvWorldBuilderMap::GetFlag
_TEXT	ENDS
PUBLIC	?SetFlag@CvWorldBuilderMap@@QAEXW4MapFlags@1@_N@Z ; CvWorldBuilderMap::SetFlag
; Function compile flags: /Ogtpy
;	COMDAT ?SetFlag@CvWorldBuilderMap@@QAEXW4MapFlags@1@_N@Z
_TEXT	SEGMENT
_eFlag$ = 8						; size = 4
_bValue$ = 12						; size = 1
?SetFlag@CvWorldBuilderMap@@QAEXW4MapFlags@1@_N@Z PROC	; CvWorldBuilderMap::SetFlag, COMDAT
; _this$ = ecx

; 731  : 		if( bValue ) m_uiFlags |= eFlag;

	cmp	BYTE PTR _bValue$[esp-4], 0
	je	SHORT $LN2@SetFlag
	mov	eax, DWORD PTR _eFlag$[esp-4]
	or	DWORD PTR [ecx+12224], eax

; 733  : 	}

	ret	8
$LN2@SetFlag:

; 732  : 		else m_uiFlags &= ~eFlag;

	mov	edx, DWORD PTR _eFlag$[esp-4]
	not	edx
	and	DWORD PTR [ecx+12224], edx

; 733  : 	}

	ret	8
?SetFlag@CvWorldBuilderMap@@QAEXW4MapFlags@1@_N@Z ENDP	; CvWorldBuilderMap::SetFlag
_TEXT	ENDS
PUBLIC	??2@YAPAXIPAX@Z					; operator new
; Function compile flags: /Ogtpy
; File c:\program files (x86)\microsoft visual studio 9.0\vc\include\new
;	COMDAT ??2@YAPAXIPAX@Z
_TEXT	SEGMENT
___formal$ = 8						; size = 4
__Where$ = 12						; size = 4
??2@YAPAXIPAX@Z PROC					; operator new, COMDAT

; 59   : 	return (_Where);

	mov	eax, DWORD PTR __Where$[esp-4]

; 60   : 	}

	ret	0
??2@YAPAXIPAX@Z ENDP					; operator new
_TEXT	ENDS
PUBLIC	??3@YAXPAX0@Z					; operator delete
; Function compile flags: /Ogtpy
;	COMDAT ??3@YAXPAX0@Z
_TEXT	SEGMENT
___formal$ = 8						; size = 4
___formal$ = 12						; size = 4
??3@YAXPAX0@Z PROC					; operator delete, COMDAT

; 64   : 	}

	ret	0
??3@YAXPAX0@Z ENDP					; operator delete
_TEXT	ENDS
PUBLIC	??_7logic_error@std@@6B@			; std::logic_error::`vftable'
PUBLIC	??0logic_error@std@@QAE@ABV?$basic_string@DU?$char_traits@D@std@@V?$allocator@D@2@@1@@Z ; std::logic_error::logic_error
PUBLIC	??_R4logic_error@std@@6B@			; std::logic_error::`RTTI Complete Object Locator'
PUBLIC	??_R0?AVlogic_error@std@@@8			; std::logic_error `RTTI Type Descriptor'
PUBLIC	??_R3logic_error@std@@8				; std::logic_error::`RTTI Class Hierarchy Descriptor'
PUBLIC	??_R2logic_error@std@@8				; std::logic_error::`RTTI Base Class Array'
PUBLIC	??_R1A@?0A@EA@logic_error@std@@8		; std::logic_error::`RTTI Base Class Descriptor at (0,-1,0,64)'
PUBLIC	??_R1A@?0A@EA@exception@std@@8			; std::exception::`RTTI Base Class Descriptor at (0,-1,0,64)'
PUBLIC	??_R0?AVexception@std@@@8			; std::exception `RTTI Type Descriptor'
PUBLIC	??_R3exception@std@@8				; std::exception::`RTTI Class Hierarchy Descriptor'
PUBLIC	??_R2exception@std@@8				; std::exception::`RTTI Base Class Array'
PUBLIC	?what@logic_error@std@@UBEPBDXZ			; std::logic_error::what
EXTRN	__imp_??1exception@std@@UAE@XZ:PROC
EXTRN	__imp_??0?$basic_string@DU?$char_traits@D@std@@V?$allocator@D@2@@std@@QAE@ABV01@@Z:PROC
EXTRN	__imp_??0exception@std@@QAE@XZ:PROC
EXTRN	___CxxFrameHandler3:PROC
EXTRN	??_7type_info@@6B@:QWORD			; type_info::`vftable'
EXTRN	??_Elogic_error@std@@UAEPAXI@Z:PROC		; std::logic_error::`vector deleting destructor'
;	COMDAT ??_R2exception@std@@8
; File c:\program files (x86)\microsoft visual studio 9.0\vc\include\stdexcept
rdata$r	SEGMENT
??_R2exception@std@@8 DD FLAT:??_R1A@?0A@EA@exception@std@@8 ; std::exception::`RTTI Base Class Array'
rdata$r	ENDS
;	COMDAT ??_R3exception@std@@8
rdata$r	SEGMENT
??_R3exception@std@@8 DD 00H				; std::exception::`RTTI Class Hierarchy Descriptor'
	DD	00H
	DD	01H
	DD	FLAT:??_R2exception@std@@8
rdata$r	ENDS
;	COMDAT ??_R0?AVexception@std@@@8
_DATA	SEGMENT
??_R0?AVexception@std@@@8 DD FLAT:??_7type_info@@6B@	; std::exception `RTTI Type Descriptor'
	DD	00H
	DB	'.?AVexception@std@@', 00H
_DATA	ENDS
;	COMDAT ??_R1A@?0A@EA@exception@std@@8
rdata$r	SEGMENT
??_R1A@?0A@EA@exception@std@@8 DD FLAT:??_R0?AVexception@std@@@8 ; std::exception::`RTTI Base Class Descriptor at (0,-1,0,64)'
	DD	00H
	DD	00H
	DD	0ffffffffH
	DD	00H
	DD	040H
	DD	FLAT:??_R3exception@std@@8
rdata$r	ENDS
;	COMDAT ??_R1A@?0A@EA@logic_error@std@@8
rdata$r	SEGMENT
??_R1A@?0A@EA@logic_error@std@@8 DD FLAT:??_R0?AVlogic_error@std@@@8 ; std::logic_error::`RTTI Base Class Descriptor at (0,-1,0,64)'
	DD	01H
	DD	00H
	DD	0ffffffffH
	DD	00H
	DD	040H
	DD	FLAT:??_R3logic_error@std@@8
rdata$r	ENDS
;	COMDAT ??_R2logic_error@std@@8
rdata$r	SEGMENT
??_R2logic_error@std@@8 DD FLAT:??_R1A@?0A@EA@logic_error@std@@8 ; std::logic_error::`RTTI Base Class Array'
	DD	FLAT:??_R1A@?0A@EA@exception@std@@8
rdata$r	ENDS
;	COMDAT ??_R3logic_error@std@@8
rdata$r	SEGMENT
??_R3logic_error@std@@8 DD 00H				; std::logic_error::`RTTI Class Hierarchy Descriptor'
	DD	00H
	DD	02H
	DD	FLAT:??_R2logic_error@std@@8
rdata$r	ENDS
;	COMDAT ??_R0?AVlogic_error@std@@@8
_DATA	SEGMENT
??_R0?AVlogic_error@std@@@8 DD FLAT:??_7type_info@@6B@	; std::logic_error `RTTI Type Descriptor'
	DD	00H
	DB	'.?AVlogic_error@std@@', 00H
_DATA	ENDS
;	COMDAT ??_R4logic_error@std@@6B@
rdata$r	SEGMENT
??_R4logic_error@std@@6B@ DD 00H			; std::logic_error::`RTTI Complete Object Locator'
	DD	00H
	DD	00H
	DD	FLAT:??_R0?AVlogic_error@std@@@8
	DD	FLAT:??_R3logic_error@std@@8
rdata$r	ENDS
;	COMDAT ??_7logic_error@std@@6B@
CONST	SEGMENT
??_7logic_error@std@@6B@ DD FLAT:??_R4logic_error@std@@6B@ ; std::logic_error::`vftable'
	DD	FLAT:??_Elogic_error@std@@UAEPAXI@Z
	DD	FLAT:?what@logic_error@std@@UBEPBDXZ
CONST	ENDS
;	COMDAT xdata$x
xdata$x	SEGMENT
__unwindtable$??0logic_error@std@@QAE@ABV?$basic_string@DU?$char_traits@D@std@@V?$allocator@D@2@@1@@Z DD 0ffffffffH
	DD	FLAT:__unwindfunclet$??0logic_error@std@@QAE@ABV?$basic_string@DU?$char_traits@D@std@@V?$allocator@D@2@@1@@Z$0
__ehfuncinfo$??0logic_error@std@@QAE@ABV?$basic_string@DU?$char_traits@D@std@@V?$allocator@D@2@@1@@Z DD 019930522H
	DD	01H
	DD	FLAT:__unwindtable$??0logic_error@std@@QAE@ABV?$basic_string@DU?$char_traits@D@std@@V?$allocator@D@2@@1@@Z
	DD	2 DUP(00H)
	DD	2 DUP(00H)
	DD	00H
	DD	01H
; Function compile flags: /Ogtpy
xdata$x	ENDS
;	COMDAT ??0logic_error@std@@QAE@ABV?$basic_string@DU?$char_traits@D@std@@V?$allocator@D@2@@1@@Z
_TEXT	SEGMENT
_this$ = -16						; size = 4
__$EHRec$ = -12						; size = 12
__Message$ = 8						; size = 4
??0logic_error@std@@QAE@ABV?$basic_string@DU?$char_traits@D@std@@V?$allocator@D@2@@1@@Z PROC ; std::logic_error::logic_error, COMDAT
; _this$ = ecx

; 26   : 		{	// construct from message string

	push	-1
	push	__ehhandler$??0logic_error@std@@QAE@ABV?$basic_string@DU?$char_traits@D@std@@V?$allocator@D@2@@1@@Z
	mov	eax, DWORD PTR fs:0
	push	eax
	mov	DWORD PTR fs:0, esp
	push	ecx
	push	esi
	mov	esi, ecx
	mov	DWORD PTR _this$[esp+20], esi
	call	DWORD PTR __imp_??0exception@std@@QAE@XZ
	mov	eax, DWORD PTR __Message$[esp+16]
	push	eax
	lea	ecx, DWORD PTR [esi+12]
	mov	DWORD PTR __$EHRec$[esp+32], 0
	mov	DWORD PTR [esi], OFFSET ??_7logic_error@std@@6B@
	call	DWORD PTR __imp_??0?$basic_string@DU?$char_traits@D@std@@V?$allocator@D@2@@std@@QAE@ABV01@@Z

; 27   : 		}

	mov	ecx, DWORD PTR __$EHRec$[esp+20]
	mov	eax, esi
	pop	esi
	mov	DWORD PTR fs:0, ecx
	add	esp, 16					; 00000010H
	ret	4
_TEXT	ENDS
;	COMDAT text$x
text$x	SEGMENT
__unwindfunclet$??0logic_error@std@@QAE@ABV?$basic_string@DU?$char_traits@D@std@@V?$allocator@D@2@@1@@Z$0:
	mov	ecx, DWORD PTR _this$[ebp]
	jmp	DWORD PTR __imp_??1exception@std@@UAE@XZ
__ehhandler$??0logic_error@std@@QAE@ABV?$basic_string@DU?$char_traits@D@std@@V?$allocator@D@2@@1@@Z:
	mov	eax, OFFSET __ehfuncinfo$??0logic_error@std@@QAE@ABV?$basic_string@DU?$char_traits@D@std@@V?$allocator@D@2@@1@@Z
	jmp	___CxxFrameHandler3
text$x	ENDS
??0logic_error@std@@QAE@ABV?$basic_string@DU?$char_traits@D@std@@V?$allocator@D@2@@1@@Z ENDP ; std::logic_error::logic_error
PUBLIC	?GetCurrentMapInfo@CvWorldBuilderMapLoader@@SAABUCvWorldBuilderMapLoaderMapInfo@@XZ ; CvWorldBuilderMapLoader::GetCurrentMapInfo
; Function compile flags: /Ogtpy
; File c:\users\enormousapplepie\documents\github\lekmod\lekmod_dll\cvgamecoredll_expansion2\cvworldbuildermaploader.cpp
;	COMDAT ?GetCurrentMapInfo@CvWorldBuilderMapLoader@@SAABUCvWorldBuilderMapLoaderMapInfo@@XZ
_TEXT	SEGMENT
?GetCurrentMapInfo@CvWorldBuilderMapLoader@@SAABUCvWorldBuilderMapLoaderMapInfo@@XZ PROC ; CvWorldBuilderMapLoader::GetCurrentMapInfo, COMDAT

; 177  : 	return sg_kMapInfo;

	mov	eax, OFFSET _sg_kMapInfo

; 178  : }

	ret	0
?GetCurrentMapInfo@CvWorldBuilderMapLoader@@SAABUCvWorldBuilderMapLoaderMapInfo@@XZ ENDP ; CvWorldBuilderMapLoader::GetCurrentMapInfo
_TEXT	ENDS
PUBLIC	??1logic_error@std@@UAE@XZ			; std::logic_error::~logic_error
EXTRN	__imp_??1?$basic_string@DU?$char_traits@D@std@@V?$allocator@D@2@@std@@QAE@XZ:PROC
; Function compile flags: /Ogtpy
; File c:\program files (x86)\microsoft visual studio 9.0\vc\include\stdexcept
;	COMDAT ??1logic_error@std@@UAE@XZ
_TEXT	SEGMENT
??1logic_error@std@@UAE@XZ PROC				; std::logic_error::~logic_error, COMDAT
; _this$ = ecx

; 30   : 		{	// destroy the object

	push	esi
	mov	esi, ecx

; 31   : 		}

	lea	ecx, DWORD PTR [esi+12]
	mov	DWORD PTR [esi], OFFSET ??_7logic_error@std@@6B@
	call	DWORD PTR __imp_??1?$basic_string@DU?$char_traits@D@std@@V?$allocator@D@2@@std@@QAE@XZ
	mov	ecx, esi
	pop	esi
	jmp	DWORD PTR __imp_??1exception@std@@UAE@XZ
??1logic_error@std@@UAE@XZ ENDP				; std::logic_error::~logic_error
_TEXT	ENDS
EXTRN	__imp_?c_str@?$basic_string@DU?$char_traits@D@std@@V?$allocator@D@2@@std@@QBEPBDXZ:PROC
; Function compile flags: /Ogtpy
;	COMDAT ?what@logic_error@std@@UBEPBDXZ
_TEXT	SEGMENT
?what@logic_error@std@@UBEPBDXZ PROC			; std::logic_error::what, COMDAT
; _this$ = ecx

; 35   : 		return (_Str.c_str());

	add	ecx, 12					; 0000000cH
	jmp	DWORD PTR __imp_?c_str@?$basic_string@DU?$char_traits@D@std@@V?$allocator@D@2@@std@@QBEPBDXZ
?what@logic_error@std@@UBEPBDXZ ENDP			; std::logic_error::what
_TEXT	ENDS
EXTRN	??3@YAXPAX@Z:PROC				; operator delete
; Function compile flags: /Ogtpy
;	COMDAT ??_Glogic_error@std@@UAEPAXI@Z
_TEXT	SEGMENT
___flags$ = 8						; size = 4
??_Glogic_error@std@@UAEPAXI@Z PROC			; std::logic_error::`scalar deleting destructor', COMDAT
; _this$ = ecx
	push	esi
	mov	esi, ecx
	lea	ecx, DWORD PTR [esi+12]
	mov	DWORD PTR [esi], OFFSET ??_7logic_error@std@@6B@
	call	DWORD PTR __imp_??1?$basic_string@DU?$char_traits@D@std@@V?$allocator@D@2@@std@@QAE@XZ
	mov	ecx, esi
	call	DWORD PTR __imp_??1exception@std@@UAE@XZ
	test	BYTE PTR ___flags$[esp], 1
	je	SHORT $LN6@scalar
	push	esi
	call	??3@YAXPAX@Z				; operator delete
	add	esp, 4
$LN6@scalar:
	mov	eax, esi
	pop	esi
	ret	4
??_Glogic_error@std@@UAEPAXI@Z ENDP			; std::logic_error::`scalar deleting destructor'
_TEXT	ENDS
PUBLIC	??_7out_of_range@std@@6B@			; std::out_of_range::`vftable'
PUBLIC	??0out_of_range@std@@QAE@ABV?$basic_string@DU?$char_traits@D@std@@V?$allocator@D@2@@1@@Z ; std::out_of_range::out_of_range
PUBLIC	??_R4out_of_range@std@@6B@			; std::out_of_range::`RTTI Complete Object Locator'
PUBLIC	??_R0?AVout_of_range@std@@@8			; std::out_of_range `RTTI Type Descriptor'
PUBLIC	??_R3out_of_range@std@@8			; std::out_of_range::`RTTI Class Hierarchy Descriptor'
PUBLIC	??_R2out_of_range@std@@8			; std::out_of_range::`RTTI Base Class Array'
PUBLIC	??_R1A@?0A@EA@out_of_range@std@@8		; std::out_of_range::`RTTI Base Class Descriptor at (0,-1,0,64)'
EXTRN	??_Eout_of_range@std@@UAEPAXI@Z:PROC		; std::out_of_range::`vector deleting destructor'
;	COMDAT ??_R1A@?0A@EA@out_of_range@std@@8
rdata$r	SEGMENT
??_R1A@?0A@EA@out_of_range@std@@8 DD FLAT:??_R0?AVout_of_range@std@@@8 ; std::out_of_range::`RTTI Base Class Descriptor at (0,-1,0,64)'
	DD	02H
	DD	00H
	DD	0ffffffffH
	DD	00H
	DD	040H
	DD	FLAT:??_R3out_of_range@std@@8
rdata$r	ENDS
;	COMDAT ??_R2out_of_range@std@@8
rdata$r	SEGMENT
??_R2out_of_range@std@@8 DD FLAT:??_R1A@?0A@EA@out_of_range@std@@8 ; std::out_of_range::`RTTI Base Class Array'
	DD	FLAT:??_R1A@?0A@EA@logic_error@std@@8
	DD	FLAT:??_R1A@?0A@EA@exception@std@@8
rdata$r	ENDS
;	COMDAT ??_R3out_of_range@std@@8
rdata$r	SEGMENT
??_R3out_of_range@std@@8 DD 00H				; std::out_of_range::`RTTI Class Hierarchy Descriptor'
	DD	00H
	DD	03H
	DD	FLAT:??_R2out_of_range@std@@8
rdata$r	ENDS
;	COMDAT ??_R0?AVout_of_range@std@@@8
_DATA	SEGMENT
??_R0?AVout_of_range@std@@@8 DD FLAT:??_7type_info@@6B@	; std::out_of_range `RTTI Type Descriptor'
	DD	00H
	DB	'.?AVout_of_range@std@@', 00H
_DATA	ENDS
;	COMDAT ??_R4out_of_range@std@@6B@
rdata$r	SEGMENT
??_R4out_of_range@std@@6B@ DD 00H			; std::out_of_range::`RTTI Complete Object Locator'
	DD	00H
	DD	00H
	DD	FLAT:??_R0?AVout_of_range@std@@@8
	DD	FLAT:??_R3out_of_range@std@@8
rdata$r	ENDS
;	COMDAT ??_7out_of_range@std@@6B@
CONST	SEGMENT
??_7out_of_range@std@@6B@ DD FLAT:??_R4out_of_range@std@@6B@ ; std::out_of_range::`vftable'
	DD	FLAT:??_Eout_of_range@std@@UAEPAXI@Z
	DD	FLAT:?what@logic_error@std@@UBEPBDXZ
; Function compile flags: /Ogtpy
CONST	ENDS
;	COMDAT ??0out_of_range@std@@QAE@ABV?$basic_string@DU?$char_traits@D@std@@V?$allocator@D@2@@1@@Z
_TEXT	SEGMENT
__Message$ = 8						; size = 4
??0out_of_range@std@@QAE@ABV?$basic_string@DU?$char_traits@D@std@@V?$allocator@D@2@@1@@Z PROC ; std::out_of_range::out_of_range, COMDAT
; _this$ = ecx

; 129  : 		{	// construct from message string

	mov	eax, DWORD PTR __Message$[esp-4]
	push	esi
	push	eax
	mov	esi, ecx
	call	??0logic_error@std@@QAE@ABV?$basic_string@DU?$char_traits@D@std@@V?$allocator@D@2@@1@@Z ; std::logic_error::logic_error
	mov	DWORD PTR [esi], OFFSET ??_7out_of_range@std@@6B@

; 130  : 		}

	mov	eax, esi
	pop	esi
	ret	4
??0out_of_range@std@@QAE@ABV?$basic_string@DU?$char_traits@D@std@@V?$allocator@D@2@@1@@Z ENDP ; std::out_of_range::out_of_range
_TEXT	ENDS
PUBLIC	??1out_of_range@std@@UAE@XZ			; std::out_of_range::~out_of_range
; Function compile flags: /Ogtpy
;	COMDAT ??1out_of_range@std@@UAE@XZ
_TEXT	SEGMENT
??1out_of_range@std@@UAE@XZ PROC			; std::out_of_range::~out_of_range, COMDAT
; _this$ = ecx

; 133  : 		{	// destroy the object

	push	esi
	mov	esi, ecx

; 134  : 		}

	lea	ecx, DWORD PTR [esi+12]
	mov	DWORD PTR [esi], OFFSET ??_7logic_error@std@@6B@
	call	DWORD PTR __imp_??1?$basic_string@DU?$char_traits@D@std@@V?$allocator@D@2@@std@@QAE@XZ
	mov	ecx, esi
	pop	esi
	jmp	DWORD PTR __imp_??1exception@std@@UAE@XZ
??1out_of_range@std@@UAE@XZ ENDP			; std::out_of_range::~out_of_range
; Function compile flags: /Ogtpy
_TEXT	ENDS
;	COMDAT ??_Gout_of_range@std@@UAEPAXI@Z
_TEXT	SEGMENT
___flags$ = 8						; size = 4
??_Gout_of_range@std@@UAEPAXI@Z PROC			; std::out_of_range::`scalar deleting destructor', COMDAT
; _this$ = ecx
	push	esi
	mov	esi, ecx
	lea	ecx, DWORD PTR [esi+12]
	mov	DWORD PTR [esi], OFFSET ??_7logic_error@std@@6B@
	call	DWORD PTR __imp_??1?$basic_string@DU?$char_traits@D@std@@V?$allocator@D@2@@std@@QAE@XZ
	mov	ecx, esi
	call	DWORD PTR __imp_??1exception@std@@UAE@XZ
	test	BYTE PTR ___flags$[esp], 1
	je	SHORT $LN8@scalar@2
	push	esi
	call	??3@YAXPAX@Z				; operator delete
	add	esp, 4
$LN8@scalar@2:
	mov	eax, esi
	pop	esi
	ret	4
??_Gout_of_range@std@@UAEPAXI@Z ENDP			; std::out_of_range::`scalar deleting destructor'
_TEXT	ENDS
PUBLIC	?GetPlayerType@@YA?AW4PlayerTypes@@E@Z		; GetPlayerType
; Function compile flags: /Ogtpy
; File c:\users\enormousapplepie\documents\github\lekmod\lekmod_dll\cvgamecoredll_expansion2\cvworldbuildermaploader.cpp
;	COMDAT ?GetPlayerType@@YA?AW4PlayerTypes@@E@Z
_TEXT	SEGMENT
_byCulture$ = 8						; size = 1
?GetPlayerType@@YA?AW4PlayerTypes@@E@Z PROC		; GetPlayerType, COMDAT

; 675  : 	if(byCulture < CvWorldBuilderMap::MaxPlayers)

	mov	al, BYTE PTR _byCulture$[esp-4]
	cmp	al, 32					; 00000020H
	jae	SHORT $LN10@GetPlayerT

; 676  : 	{
; 677  : 		if(byCulture < MAX_MAJOR_CIVS)

	cmp	al, 22					; 00000016H
	jae	SHORT $LN9@GetPlayerT

; 678  : 			return (PlayerTypes)byCulture;

	movzx	eax, al

; 691  : 	{
; 692  : 		return BARBARIAN_PLAYER;
; 693  : 	}
; 694  : 	else
; 695  : 	{
; 696  : 		return NO_PLAYER; // Completely invalid culture type
; 697  : 	}
; 698  : }

	ret	0
$LN9@GetPlayerT:

; 679  : 		else
; 680  : 			return NO_PLAYER; // Player out of range

	or	eax, -1

; 691  : 	{
; 692  : 		return BARBARIAN_PLAYER;
; 693  : 	}
; 694  : 	else
; 695  : 	{
; 696  : 		return NO_PLAYER; // Completely invalid culture type
; 697  : 	}
; 698  : }

	ret	0
$LN10@GetPlayerT:

; 681  : 	}
; 682  : 	else if(byCulture < CvWorldBuilderMap::MaxPlayers + CvWorldBuilderMap::MaxCityStates)

	cmp	al, 96					; 00000060H
	jae	SHORT $LN6@GetPlayerT

; 683  : 	{
; 684  : 		const uint uiCityState = byCulture - CvWorldBuilderMap::MaxPlayers;

	movzx	eax, al
	sub	eax, 32					; 00000020H

; 685  : 		if(uiCityState < MAX_MINOR_CIVS)

	cmp	eax, 41					; 00000029H
	jae	SHORT $LN9@GetPlayerT

; 686  : 			return (PlayerTypes)(uiCityState + MAX_MAJOR_CIVS);

	add	eax, 22					; 00000016H

; 691  : 	{
; 692  : 		return BARBARIAN_PLAYER;
; 693  : 	}
; 694  : 	else
; 695  : 	{
; 696  : 		return NO_PLAYER; // Completely invalid culture type
; 697  : 	}
; 698  : }

	ret	0
$LN6@GetPlayerT:

; 687  : 		else
; 688  : 			return NO_PLAYER; // City State out of range
; 689  : 	}
; 690  : 	else if(byCulture == CvWorldBuilderMap::MaxPlayers + CvWorldBuilderMap::MaxCityStates)

	xor	ecx, ecx
	cmp	al, 96					; 00000060H
	setne	cl
	dec	ecx
	and	ecx, 64					; 00000040H
	dec	ecx
	mov	eax, ecx

; 691  : 	{
; 692  : 		return BARBARIAN_PLAYER;
; 693  : 	}
; 694  : 	else
; 695  : 	{
; 696  : 		return NO_PLAYER; // Completely invalid culture type
; 697  : 	}
; 698  : }

	ret	0
?GetPlayerType@@YA?AW4PlayerTypes@@E@Z ENDP		; GetPlayerType
_TEXT	ENDS
PUBLIC	?LoadModData@CvWorldBuilderMapLoader@@SAHPAUlua_State@@@Z ; CvWorldBuilderMapLoader::LoadModData
EXTRN	_lua_rawseti:PROC
EXTRN	_lua_pushvalue:PROC
EXTRN	?IsFieldDefaultValue@ModDataEntry@@QBE_NI@Z:PROC ; ModDataEntry::IsFieldDefaultValue
EXTRN	?GetPlotDataEntry@CvWorldBuilderMapModData@@QAE?AVModDataEntry@@I@Z:PROC ; CvWorldBuilderMapModData::GetPlotDataEntry
EXTRN	?GetFieldDefaultAsInt@ModType@@QBEHI@Z:PROC	; ModType::GetFieldDefaultAsInt
EXTRN	?GetFieldDefaultAsString@ModType@@QBEPBDI@Z:PROC ; ModType::GetFieldDefaultAsString
EXTRN	?GetFieldDefaultAsFloat@ModType@@QBEMI@Z:PROC	; ModType::GetFieldDefaultAsFloat
EXTRN	?GetFieldDefaultAsBool@ModType@@QBE_NI@Z:PROC	; ModType::GetFieldDefaultAsBool
EXTRN	_lua_pushnil:PROC
EXTRN	_lua_rawset:PROC
EXTRN	?GetMember@ModEnum@@QBEPBDI@Z:PROC		; ModEnum::GetMember
EXTRN	?GetFieldAsInt@ModDataEntry@@QBEHI@Z:PROC	; ModDataEntry::GetFieldAsInt
EXTRN	?GetFieldEnumType@ModType@@QBEPBVModEnum@@I@Z:PROC ; ModType::GetFieldEnumType
EXTRN	?GetFieldAsString@ModDataEntry@@QBEPBDI@Z:PROC	; ModDataEntry::GetFieldAsString
EXTRN	_lua_pushnumber:PROC
EXTRN	?GetFieldAsFloat@ModDataEntry@@QBEMI@Z:PROC	; ModDataEntry::GetFieldAsFloat
EXTRN	_lua_pushboolean:PROC
EXTRN	?GetFieldAsBool@ModDataEntry@@QBE_NI@Z:PROC	; ModDataEntry::GetFieldAsBool
EXTRN	?GetFieldType@ModType@@QBE?AW4FieldType@1@I@Z:PROC ; ModType::GetFieldType
EXTRN	?GetFieldName@ModType@@QBEPBDI@Z:PROC		; ModType::GetFieldName
EXTRN	_lua_createtable:PROC
EXTRN	_lua_pushstring:PROC
EXTRN	?GetMapDataEntry@CvWorldBuilderMapModData@@QAE?AVModDataEntry@@XZ:PROC ; CvWorldBuilderMapModData::GetMapDataEntry
EXTRN	?GetFieldCount@ModType@@QBEIXZ:PROC		; ModType::GetFieldCount
EXTRN	_lua_settop:PROC
EXTRN	_lua_type:PROC
EXTRN	_lua_getfield:PROC
EXTRN	_lua_gettop:PROC
; Function compile flags: /Ogtpy
;	COMDAT ?LoadModData@CvWorldBuilderMapLoader@@SAHPAUlua_State@@@Z
_TEXT	SEGMENT
_bValue$225221 = -45					; size = 1
_uiFieldCount$ = -44					; size = 4
tv619 = -40						; size = 4
_x$225200 = -36						; size = 4
_uiGlobalsCount$ = -36					; size = 4
_iTop$ = -32						; size = 4
_y$225204 = -28						; size = 4
_uiMapHeight$225198 = -24				; size = 4
_uiMapWidth$225197 = -20				; size = 4
_fValue$225184 = -20					; size = 4
_fValue$225153 = -20					; size = 4
_iFieldStart$225171 = -16				; size = 4
_szMember$225230 = -12					; size = 4
_iValue$225227 = -12					; size = 4
_szField$225225 = -12					; size = 4
_fValue$225223 = -12					; size = 4
_kPlot$225208 = -8					; size = 8
_kEntry$225138 = -8					; size = 8
_L$ = 8							; size = 4
?LoadModData@CvWorldBuilderMapLoader@@SAHPAUlua_State@@@Z PROC ; CvWorldBuilderMapLoader::LoadModData, COMDAT

; 1522 : {

	push	ebp
	mov	ebp, esp
	and	esp, -64				; ffffffc0H
	sub	esp, 52					; 00000034H
	push	ebx
	push	esi

; 1523 : 	if(L == NULL)

	mov	esi, DWORD PTR _L$[ebp]
	push	edi
	test	esi, esi

; 1524 : 	{
; 1525 : 		FAssertMsg(L, "Seriously, you really need a lua state for this.");
; 1526 : 		return 0;

	je	$LN69@LoadModDat

; 1527 : 	}
; 1528 : 
; 1529 : 	const int iTop = lua_gettop(L);

	push	esi
	call	_lua_gettop

; 1530 : 
; 1531 : 	lua_getglobal(L, "MapModData");

	push	OFFSET $SG225131
	mov	edi, eax
	push	-10002					; ffffd8eeH
	push	esi
	mov	DWORD PTR _iTop$[esp+80], edi
	call	_lua_getfield

; 1532 : 	bool bFoundTable = lua_istable(L, -1);

	push	-1
	push	esi
	call	_lua_type
	add	esp, 24					; 00000018H
	cmp	eax, 5

; 1533 : 
; 1534 : 	FAssertMsg(bFoundTable, "Unable to find mod data table");
; 1535 : 	if(!bFoundTable)

	je	SHORT $LN48@LoadModDat

; 1536 : 	{
; 1537 : 		lua_settop(L, iTop);

	push	edi

; 1742 : 	}
; 1743 : 
; 1744 : 	lua_settop(L, iTop);

	push	esi
	call	_lua_settop
	add	esp, 8

; 1745 : 
; 1746 : 	return 0;

	xor	eax, eax

; 1747 : }

	pop	edi
	pop	esi
	pop	ebx
	mov	esp, ebp
	pop	ebp
	ret	0
$LN48@LoadModDat:

; 1538 : 		return 0;
; 1539 : 	}
; 1540 : 
; 1541 : 	const int iModDataTable = iTop + 1;
; 1542 : 
; 1543 : 	ModType& kGlobalsDataType = sg_kSave.m_kModData.m_kMapModData;
; 1544 : 	const uint uiGlobalsCount = kGlobalsDataType.GetFieldCount();

	mov	ecx, OFFSET _sg_kSave+2888
	inc	edi
	call	?GetFieldCount@ModType@@QBEIXZ		; ModType::GetFieldCount
	mov	ebx, eax
	mov	DWORD PTR _uiGlobalsCount$[esp+64], ebx

; 1545 : 	if(uiGlobalsCount > 0)

	test	ebx, ebx
	jbe	$LN47@LoadModDat

; 1546 : 	{
; 1547 : 		ModDataEntry kEntry = sg_kSave.m_kModData.GetMapDataEntry();

	lea	eax, DWORD PTR _kEntry$225138[esp+64]
	push	eax
	mov	ecx, OFFSET _sg_kSave+2888
	call	?GetMapDataEntry@CvWorldBuilderMapModData@@QAE?AVModDataEntry@@XZ ; CvWorldBuilderMapModData::GetMapDataEntry

; 1548 : 
; 1549 : 		lua_pushstring(L, "Globals");

	push	OFFSET $SG225140
	push	esi
	call	_lua_pushstring

; 1550 : 		lua_createtable(L, 0, uiGlobalsCount);

	push	ebx
	push	0
	push	esi
	call	_lua_createtable
	add	esp, 20					; 00000014H

; 1551 : 		for(uint uiField = 0; uiField < uiGlobalsCount; ++uiField)

	xor	edi, edi
	test	ebx, ebx
	jbe	$LN44@LoadModDat
	npad	1
$LL46@LoadModDat:

; 1552 : 		{
; 1553 : 			const char* szFieldName = kGlobalsDataType.GetFieldName(uiField);

	push	edi
	mov	ecx, OFFSET _sg_kSave+2888
	call	?GetFieldName@ModType@@QBEPBDI@Z	; ModType::GetFieldName

; 1554 : 			lua_pushstring(L, szFieldName);

	push	eax
	push	esi
	call	_lua_pushstring
	add	esp, 8

; 1555 : 
; 1556 : 			switch(kGlobalsDataType.GetFieldType(uiField))

	push	edi
	mov	ecx, OFFSET _sg_kSave+2888
	call	?GetFieldType@ModType@@QBE?AW4FieldType@1@I@Z ; ModType::GetFieldType
	cmp	eax, 3
	ja	$LN35@LoadModDat
	jmp	DWORD PTR $LN77@LoadModDat[eax*4]
$LN41@LoadModDat:

; 1557 : 			{
; 1558 : 			case ModType::TYPE_BOOL:
; 1559 : 			{
; 1560 : 				const bool bValue = kEntry.GetFieldAsBool(uiField);

	push	edi
	lea	ecx, DWORD PTR _kEntry$225138[esp+68]
	call	?GetFieldAsBool@ModDataEntry@@QBE_NI@Z	; ModDataEntry::GetFieldAsBool

; 1561 : 				lua_pushboolean(L, bValue);

	movzx	ecx, al
	push	ecx
	push	esi
	call	_lua_pushboolean

; 1562 : 			}
; 1563 : 			break;

	jmp	SHORT $LN71@LoadModDat
$LN40@LoadModDat:

; 1564 : 
; 1565 : 			case ModType::TYPE_FLOAT:
; 1566 : 			{
; 1567 : 				const float fValue = kEntry.GetFieldAsFloat(uiField);

	push	edi
	lea	ecx, DWORD PTR _kEntry$225138[esp+68]
	call	?GetFieldAsFloat@ModDataEntry@@QBEMI@Z	; ModDataEntry::GetFieldAsFloat
	fstp	DWORD PTR _fValue$225153[esp+64]

; 1568 : 				lua_pushnumber(L, fValue);

	fld	DWORD PTR _fValue$225153[esp+64]
	sub	esp, 8
	fstp	QWORD PTR [esp]
	push	esi
	call	_lua_pushnumber
	add	esp, 12					; 0000000cH

; 1569 : 			}
; 1570 : 			break;

	jmp	SHORT $LN35@LoadModDat
$LN39@LoadModDat:

; 1571 : 
; 1572 : 			case ModType::TYPE_STRING:
; 1573 : 			{
; 1574 : 				const char* szField = kEntry.GetFieldAsString(uiField);

	push	edi
	lea	ecx, DWORD PTR _kEntry$225138[esp+68]
	call	?GetFieldAsString@ModDataEntry@@QBEPBDI@Z ; ModDataEntry::GetFieldAsString

; 1575 : 				lua_pushstring(L, szField);

	push	eax
	push	esi
	call	_lua_pushstring

; 1576 : 			}
; 1577 : 			break;

	jmp	SHORT $LN71@LoadModDat
$LN38@LoadModDat:

; 1578 : 
; 1579 : 			case ModType::TYPE_ENUM:
; 1580 : 			{
; 1581 : 				const ModEnum* pkEnum = sg_kSave.m_kModData.m_kPlotModData.GetFieldEnumType(uiField);

	push	edi
	mov	ecx, OFFSET _sg_kSave+3436
	call	?GetFieldEnumType@ModType@@QBEPBVModEnum@@I@Z ; ModType::GetFieldEnumType
	mov	ebx, eax

; 1582 : 				if(pkEnum != NULL)

	test	ebx, ebx
	je	SHORT $LN37@LoadModDat

; 1583 : 				{
; 1584 : 					int iValue = kEntry.GetFieldAsInt(uiField);

	push	edi
	lea	ecx, DWORD PTR _kEntry$225138[esp+68]
	call	?GetFieldAsInt@ModDataEntry@@QBEHI@Z	; ModDataEntry::GetFieldAsInt

; 1585 : 					const char* szMember = pkEnum->GetMember((uint)iValue);

	push	eax
	mov	ecx, ebx
	call	?GetMember@ModEnum@@QBEPBDI@Z		; ModEnum::GetMember

; 1586 : 					if(szMember == NULL) szMember = "";

	test	eax, eax
	jne	SHORT $LN36@LoadModDat
	mov	eax, OFFSET $SG225163
$LN36@LoadModDat:

; 1587 : 					lua_pushstring(L, szMember);

	push	eax

; 1588 : 				}
; 1589 : 				else

	jmp	SHORT $LN72@LoadModDat
$LN37@LoadModDat:

; 1590 : 				{
; 1591 : 					lua_pushstring(L, "");

	push	OFFSET $SG225165
$LN72@LoadModDat:
	push	esi
	call	_lua_pushstring
	mov	ebx, DWORD PTR _uiGlobalsCount$[esp+72]
$LN71@LoadModDat:
	add	esp, 8
$LN35@LoadModDat:

; 1592 : 				}
; 1593 : 			}
; 1594 : 			}
; 1595 : 
; 1596 : 			lua_rawset(L, -3);

	push	-3					; fffffffdH
	push	esi
	call	_lua_rawset
	inc	edi
	add	esp, 8
	cmp	edi, ebx
	jb	$LL46@LoadModDat
$LN44@LoadModDat:

; 1597 : 		}
; 1598 : 
; 1599 : 		lua_rawset(L, iModDataTable);

	mov	edi, DWORD PTR _iTop$[esp+64]
	inc	edi
	push	edi
	push	esi
	call	_lua_rawset
	add	esp, 8

; 1600 : 	}
; 1601 : 	else

	jmp	SHORT $LN34@LoadModDat
$LN47@LoadModDat:

; 1602 : 	{
; 1603 : 		lua_pushstring(L, "Globals");

	push	OFFSET $SG225167
	push	esi
	call	_lua_pushstring

; 1604 : 		lua_pushnil(L);

	push	esi
	call	_lua_pushnil

; 1605 : 		lua_rawset(L, iModDataTable);

	push	edi
	push	esi
	call	_lua_rawset
	add	esp, 20					; 00000014H
$LN34@LoadModDat:

; 1606 : 	}
; 1607 : 
; 1608 : 	ModType& kPlotDataType = sg_kSave.m_kModData.m_kPlotModData;
; 1609 : 	const uint uiFieldCount = kPlotDataType.GetFieldCount();

	mov	ecx, OFFSET _sg_kSave+3436
	call	?GetFieldCount@ModType@@QBEIXZ		; ModType::GetFieldCount
	mov	ebx, eax
	mov	DWORD PTR _uiFieldCount$[esp+64], ebx

; 1610 : 	if(uiFieldCount > 0)

	test	ebx, ebx
	jbe	$LN33@LoadModDat

; 1611 : 	{
; 1612 : 		const int iFieldStart = lua_gettop(L) + 1;

	push	esi
	call	_lua_gettop
	inc	eax
	add	esp, 4

; 1613 : 		for(uint uiField = 0; uiField < uiFieldCount; ++uiField)

	xor	edi, edi
	mov	DWORD PTR _iFieldStart$225171[esp+64], eax
	test	ebx, ebx
	jbe	$LN30@LoadModDat
	npad	3
$LL32@LoadModDat:

; 1614 : 		{
; 1615 : 			const char* szFieldName = kPlotDataType.GetFieldName(uiField);

	push	edi
	mov	ecx, OFFSET _sg_kSave+3436
	call	?GetFieldName@ModType@@QBEPBDI@Z	; ModType::GetFieldName

; 1616 : 			lua_pushstring(L, szFieldName);

	push	eax
	push	esi
	call	_lua_pushstring
	add	esp, 8

; 1617 : 
; 1618 : 			switch(kPlotDataType.GetFieldType(uiField))

	push	edi
	mov	ecx, OFFSET _sg_kSave+3436
	call	?GetFieldType@ModType@@QBE?AW4FieldType@1@I@Z ; ModType::GetFieldType
	cmp	eax, 3
	ja	$LN31@LoadModDat
	jmp	DWORD PTR $LN78@LoadModDat[eax*4]
$LN27@LoadModDat:

; 1619 : 			{
; 1620 : 			case ModType::TYPE_BOOL:
; 1621 : 			{
; 1622 : 				const bool bValue = kPlotDataType.GetFieldDefaultAsBool(uiField);

	push	edi
	mov	ecx, OFFSET _sg_kSave+3436
	call	?GetFieldDefaultAsBool@ModType@@QBE_NI@Z ; ModType::GetFieldDefaultAsBool

; 1623 : 				lua_pushboolean(L, bValue);

	movzx	edx, al
	push	edx
	push	esi
	call	_lua_pushboolean

; 1624 : 			}
; 1625 : 			break;

	jmp	SHORT $LN73@LoadModDat
$LN26@LoadModDat:

; 1626 : 
; 1627 : 			case ModType::TYPE_FLOAT:
; 1628 : 			{
; 1629 : 				const float fValue = kPlotDataType.GetFieldDefaultAsFloat(uiField);

	push	edi
	mov	ecx, OFFSET _sg_kSave+3436
	call	?GetFieldDefaultAsFloat@ModType@@QBEMI@Z ; ModType::GetFieldDefaultAsFloat
	fstp	DWORD PTR _fValue$225184[esp+64]

; 1630 : 				lua_pushnumber(L, fValue);

	fld	DWORD PTR _fValue$225184[esp+64]
	sub	esp, 8
	fstp	QWORD PTR [esp]
	push	esi
	call	_lua_pushnumber
	add	esp, 12					; 0000000cH

; 1631 : 			}
; 1632 : 			break;

	jmp	SHORT $LN31@LoadModDat
$LN25@LoadModDat:

; 1633 : 
; 1634 : 			case ModType::TYPE_STRING:
; 1635 : 			{
; 1636 : 				const char* szField = kPlotDataType.GetFieldDefaultAsString(uiField);

	push	edi
	mov	ecx, OFFSET _sg_kSave+3436
	call	?GetFieldDefaultAsString@ModType@@QBEPBDI@Z ; ModType::GetFieldDefaultAsString

; 1637 : 				lua_pushstring(L, szField);

	push	eax

; 1638 : 			}
; 1639 : 			break;

	jmp	SHORT $LN74@LoadModDat
$LN24@LoadModDat:

; 1640 : 
; 1641 : 			case ModType::TYPE_ENUM:
; 1642 : 			{
; 1643 : 				int iValue = kPlotDataType.GetFieldDefaultAsInt(uiField);

	push	edi
	mov	ecx, OFFSET _sg_kSave+3436
	call	?GetFieldDefaultAsInt@ModType@@QBEHI@Z	; ModType::GetFieldDefaultAsInt

; 1644 : 				const ModEnum* pkEnum = sg_kSave.m_kModData.m_kPlotModData.GetFieldEnumType(uiField);

	push	edi
	mov	ecx, OFFSET _sg_kSave+3436
	mov	ebx, eax
	call	?GetFieldEnumType@ModType@@QBEPBVModEnum@@I@Z ; ModType::GetFieldEnumType

; 1645 : 				if(pkEnum != NULL)

	test	eax, eax
	je	SHORT $LN23@LoadModDat

; 1646 : 				{
; 1647 : 					const char* szMember = pkEnum->GetMember((uint)iValue);

	push	ebx
	mov	ecx, eax
	call	?GetMember@ModEnum@@QBEPBDI@Z		; ModEnum::GetMember

; 1648 : 					if(szMember == NULL) szMember = "";

	test	eax, eax
	jne	SHORT $LN22@LoadModDat
	mov	eax, OFFSET $SG225194
$LN22@LoadModDat:

; 1649 : 					lua_pushstring(L, szMember);

	push	eax

; 1650 : 				}
; 1651 : 				else

	jmp	SHORT $LN74@LoadModDat
$LN23@LoadModDat:

; 1652 : 				{
; 1653 : 					lua_pushstring(L, "");

	push	OFFSET $SG225196
$LN74@LoadModDat:
	push	esi
	call	_lua_pushstring
$LN73@LoadModDat:
	add	esp, 8
$LN31@LoadModDat:

; 1613 : 		for(uint uiField = 0; uiField < uiFieldCount; ++uiField)

	inc	edi
	cmp	edi, DWORD PTR _uiFieldCount$[esp+64]
	jb	$LL32@LoadModDat
$LN30@LoadModDat:

; 1654 : 				}
; 1655 : 			}
; 1656 : 			}
; 1657 : 		}
; 1658 : 
; 1659 : 		const uint uiMapWidth = sg_kSave.GetWidth();

	mov	ebx, DWORD PTR _sg_kSave+12228

; 1660 : 		const uint uiMapHeight = sg_kSave.GetHeight();

	mov	edi, DWORD PTR _sg_kSave+12232

; 1661 : 
; 1662 : 		lua_pushstring(L, "Plots");

	push	OFFSET $SG225199
	push	esi
	mov	DWORD PTR _uiMapWidth$225197[esp+72], ebx
	mov	DWORD PTR _uiMapHeight$225198[esp+72], edi
	call	_lua_pushstring

; 1663 : 		lua_createtable(L, uiMapWidth, 1);

	push	1
	push	ebx
	push	esi
	call	_lua_createtable
	add	esp, 20					; 00000014H

; 1664 : 		for(uint x = 0; x < uiMapWidth; ++x)

	mov	DWORD PTR _x$225200[esp+64], 0
	test	ebx, ebx
	jbe	$LN18@LoadModDat
$LN20@LoadModDat:

; 1665 : 		{
; 1666 : 			lua_createtable(L, uiMapHeight, 1);

	push	1
	push	edi
	push	esi
	call	_lua_createtable

; 1667 : 			for(uint y = 0; y < uiMapHeight; ++y)

	xor	ebx, ebx
	add	esp, 12					; 0000000cH
	mov	DWORD PTR _y$225204[esp+64], ebx
	test	edi, edi
	jbe	$LN15@LoadModDat
	mov	eax, DWORD PTR _x$225200[esp+64]
	mov	DWORD PTR tv619[esp+64], eax
$LN17@LoadModDat:

; 1668 : 			{
; 1669 : 				lua_createtable(L, 0, uiFieldCount);

	mov	ecx, DWORD PTR _uiFieldCount$[esp+64]
	push	ecx
	push	0
	push	esi
	call	_lua_createtable

; 1670 : 				ModDataEntry kPlot = sg_kSave.m_kModData.GetPlotDataEntry(x + y * uiMapWidth);

	mov	edx, DWORD PTR tv619[esp+76]
	add	esp, 12					; 0000000cH
	push	edx
	lea	eax, DWORD PTR _kPlot$225208[esp+68]
	push	eax
	mov	ecx, OFFSET _sg_kSave+2888
	call	?GetPlotDataEntry@CvWorldBuilderMapModData@@QAE?AVModDataEntry@@I@Z ; CvWorldBuilderMapModData::GetPlotDataEntry

; 1671 : 				for(uint uiField = 0; uiField < uiFieldCount; ++uiField)

	xor	edi, edi
	cmp	DWORD PTR _uiFieldCount$[esp+64], edi
	jbe	$LN12@LoadModDat

; 1668 : 			{
; 1669 : 				lua_createtable(L, 0, uiFieldCount);

	mov	ebx, DWORD PTR _iFieldStart$225171[esp+64]
$LL14@LoadModDat:

; 1672 : 				{
; 1673 : 					if(kPlot.IsFieldDefaultValue(uiField))

	push	edi
	lea	ecx, DWORD PTR _kPlot$225208[esp+68]
	call	?IsFieldDefaultValue@ModDataEntry@@QBE_NI@Z ; ModDataEntry::IsFieldDefaultValue
	test	al, al
	je	SHORT $LN11@LoadModDat

; 1674 : 					{
; 1675 : 						lua_pushvalue(L, iFieldStart + 2 * uiField);

	push	ebx
	push	esi
	call	_lua_pushvalue

; 1676 : 						lua_pushvalue(L, iFieldStart + 2 * uiField + 1);

	lea	ecx, DWORD PTR [ebx+1]
	push	ecx
	push	esi
	call	_lua_pushvalue

; 1677 : 						lua_rawset(L, -3);
; 1678 : 					}
; 1679 : 					else

	jmp	$LN75@LoadModDat
$LN11@LoadModDat:

; 1680 : 					{
; 1681 : 						switch(sg_kSave.m_kModData.m_kPlotModData.GetFieldType(uiField))

	push	edi
	mov	ecx, OFFSET _sg_kSave+3436
	call	?GetFieldType@ModType@@QBE?AW4FieldType@1@I@Z ; ModType::GetFieldType
	cmp	eax, 3
	ja	$LN13@LoadModDat
	jmp	DWORD PTR $LN79@LoadModDat[eax*4]
$LN7@LoadModDat:

; 1682 : 						{
; 1683 : 						case ModType::TYPE_BOOL:
; 1684 : 						{
; 1685 : 							const bool bValue = kPlot.GetFieldAsBool(uiField);

	push	edi
	lea	ecx, DWORD PTR _kPlot$225208[esp+68]
	call	?GetFieldAsBool@ModDataEntry@@QBE_NI@Z	; ModDataEntry::GetFieldAsBool

; 1686 : 							lua_pushvalue(L, iFieldStart + 2 * uiField);

	push	ebx
	push	esi
	mov	BYTE PTR _bValue$225221[esp+72], al
	call	_lua_pushvalue

; 1687 : 							lua_pushboolean(L, bValue);

	movzx	edx, BYTE PTR _bValue$225221[esp+72]
	push	edx
	push	esi
	call	_lua_pushboolean

; 1688 : 							lua_rawset(L, -3);
; 1689 : 						}
; 1690 : 						break;

	jmp	$LN75@LoadModDat
$LN6@LoadModDat:

; 1691 : 
; 1692 : 						case ModType::TYPE_FLOAT:
; 1693 : 						{
; 1694 : 							const float fValue = kPlot.GetFieldAsFloat(uiField);

	push	edi
	lea	ecx, DWORD PTR _kPlot$225208[esp+68]
	call	?GetFieldAsFloat@ModDataEntry@@QBEMI@Z	; ModDataEntry::GetFieldAsFloat
	fstp	DWORD PTR _fValue$225223[esp+64]

; 1695 : 							lua_pushvalue(L, iFieldStart + 2 * uiField);

	push	ebx
	push	esi
	call	_lua_pushvalue

; 1696 : 							lua_pushnumber(L, fValue);

	fld	DWORD PTR _fValue$225223[esp+72]
	fstp	QWORD PTR [esp]
	push	esi
	call	_lua_pushnumber

; 1697 : 							lua_rawset(L, -3);

	push	-3					; fffffffdH
	push	esi
	call	_lua_rawset
	add	esp, 20					; 00000014H

; 1698 : 						}
; 1699 : 						break;

	jmp	SHORT $LN13@LoadModDat
$LN5@LoadModDat:

; 1700 : 
; 1701 : 						case ModType::TYPE_STRING:
; 1702 : 						{
; 1703 : 							const char* szField = kPlot.GetFieldAsString(uiField);

	push	edi
	lea	ecx, DWORD PTR _kPlot$225208[esp+68]
	call	?GetFieldAsString@ModDataEntry@@QBEPBDI@Z ; ModDataEntry::GetFieldAsString

; 1704 : 							lua_pushvalue(L, iFieldStart + 2 * uiField);

	push	ebx
	push	esi
	mov	DWORD PTR _szField$225225[esp+72], eax
	call	_lua_pushvalue

; 1705 : 							lua_pushstring(L, szField);

	mov	eax, DWORD PTR _szField$225225[esp+72]
	push	eax

; 1706 : 							lua_rawset(L, -3);
; 1707 : 						}
; 1708 : 						break;

	jmp	SHORT $LN76@LoadModDat
$LN4@LoadModDat:

; 1709 : 
; 1710 : 						case ModType::TYPE_ENUM:
; 1711 : 						{
; 1712 : 							int iValue = kPlot.GetFieldAsInt(uiField);

	push	edi
	lea	ecx, DWORD PTR _kPlot$225208[esp+68]
	call	?GetFieldAsInt@ModDataEntry@@QBEHI@Z	; ModDataEntry::GetFieldAsInt

; 1713 : 							const ModEnum* pkEnum = kPlotDataType.GetFieldEnumType(uiField);

	push	edi
	mov	ecx, OFFSET _sg_kSave+3436
	mov	DWORD PTR _iValue$225227[esp+68], eax
	call	?GetFieldEnumType@ModType@@QBEPBVModEnum@@I@Z ; ModType::GetFieldEnumType

; 1714 : 							if(pkEnum != NULL)

	test	eax, eax
	je	SHORT $LN13@LoadModDat

; 1715 : 							{
; 1716 : 								const char* szMember = pkEnum->GetMember((uint)iValue);

	mov	ecx, DWORD PTR _iValue$225227[esp+64]
	push	ecx
	mov	ecx, eax
	call	?GetMember@ModEnum@@QBEPBDI@Z		; ModEnum::GetMember
	mov	DWORD PTR _szMember$225230[esp+64], eax

; 1717 : 								if(szMember != NULL)

	test	eax, eax
	je	SHORT $LN13@LoadModDat

; 1718 : 								{
; 1719 : 									lua_pushvalue(L, iFieldStart + 2 * uiField);

	push	ebx
	push	esi
	call	_lua_pushvalue

; 1720 : 									lua_pushstring(L, szMember);

	mov	edx, DWORD PTR _szMember$225230[esp+72]
	push	edx
$LN76@LoadModDat:
	push	esi
	call	_lua_pushstring
$LN75@LoadModDat:

; 1721 : 									lua_rawset(L, -3);

	push	-3					; fffffffdH
	push	esi
	call	_lua_rawset
	add	esp, 24					; 00000018H
$LN13@LoadModDat:
	inc	edi
	add	ebx, 2
	cmp	edi, DWORD PTR _uiFieldCount$[esp+64]
	jb	$LL14@LoadModDat

; 1671 : 				for(uint uiField = 0; uiField < uiFieldCount; ++uiField)

	mov	ebx, DWORD PTR _y$225204[esp+64]
$LN12@LoadModDat:

; 1722 : 								}
; 1723 : 							}
; 1724 : 						}
; 1725 : 						}
; 1726 : 					}
; 1727 : 				}
; 1728 : 
; 1729 : 				lua_rawseti(L, -2, y);

	push	ebx
	push	-2					; fffffffeH
	push	esi
	call	_lua_rawseti
	mov	eax, DWORD PTR _uiMapWidth$225197[esp+76]
	add	DWORD PTR tv619[esp+76], eax
	inc	ebx
	add	esp, 12					; 0000000cH
	mov	DWORD PTR _y$225204[esp+64], ebx
	cmp	ebx, DWORD PTR _uiMapHeight$225198[esp+64]
	jb	$LN17@LoadModDat

; 1667 : 			for(uint y = 0; y < uiMapHeight; ++y)

	mov	edi, DWORD PTR _uiMapHeight$225198[esp+64]
$LN15@LoadModDat:

; 1730 : 			}
; 1731 : 
; 1732 : 			lua_rawseti(L, -2, x);

	mov	ebx, DWORD PTR _x$225200[esp+64]
	push	ebx
	push	-2					; fffffffeH
	push	esi
	call	_lua_rawseti
	inc	ebx
	add	esp, 12					; 0000000cH
	mov	DWORD PTR _x$225200[esp+64], ebx
	cmp	ebx, DWORD PTR _uiMapWidth$225197[esp+64]
	jb	$LN20@LoadModDat
$LN18@LoadModDat:

; 1733 : 		}
; 1734 : 
; 1735 : 		lua_rawset(L, iModDataTable);

	mov	eax, DWORD PTR _iTop$[esp+64]
	inc	eax
	push	eax
	push	esi
	call	_lua_rawset
	add	esp, 8

; 1736 : 	}
; 1737 : 	else

	jmp	SHORT $LN1@LoadModDat
$LN33@LoadModDat:

; 1738 : 	{
; 1739 : 		lua_pushstring(L, "Plots");

	push	OFFSET $SG225234
	push	esi
	call	_lua_pushstring

; 1740 : 		lua_pushnil(L);

	push	esi
	call	_lua_pushnil

; 1741 : 		lua_rawset(L, iModDataTable);

	push	edi
	push	esi
	call	_lua_rawset
	add	esp, 20					; 00000014H
$LN1@LoadModDat:

; 1742 : 	}
; 1743 : 
; 1744 : 	lua_settop(L, iTop);

	mov	ecx, DWORD PTR _iTop$[esp+64]
	push	ecx
	push	esi
	call	_lua_settop
	add	esp, 8
$LN69@LoadModDat:

; 1747 : }

	pop	edi
	pop	esi
	xor	eax, eax
	pop	ebx
	mov	esp, ebp
	pop	ebp
	ret	0
$LN77@LoadModDat:
	DD	$LN41@LoadModDat
	DD	$LN40@LoadModDat
	DD	$LN39@LoadModDat
	DD	$LN38@LoadModDat
$LN78@LoadModDat:
	DD	$LN27@LoadModDat
	DD	$LN26@LoadModDat
	DD	$LN25@LoadModDat
	DD	$LN24@LoadModDat
$LN79@LoadModDat:
	DD	$LN7@LoadModDat
	DD	$LN6@LoadModDat
	DD	$LN5@LoadModDat
	DD	$LN4@LoadModDat
?LoadModData@CvWorldBuilderMapLoader@@SAHPAUlua_State@@@Z ENDP ; CvWorldBuilderMapLoader::LoadModData
_TEXT	ENDS
PUBLIC	?ClearResources@CvWorldBuilderMapLoader@@SAXXZ	; CvWorldBuilderMapLoader::ClearResources
; Function compile flags: /Ogtpy
;	COMDAT ?ClearResources@CvWorldBuilderMapLoader@@SAXXZ
_TEXT	SEGMENT
?ClearResources@CvWorldBuilderMapLoader@@SAXXZ PROC	; CvWorldBuilderMapLoader::ClearResources, COMDAT

; 1893 : 	const uint uiPlotCount = sg_kSave.GetPlotCount();

	mov	ecx, DWORD PTR _sg_kSave+12228
	mov	edx, ecx
	imul	edx, DWORD PTR _sg_kSave+12232

; 1894 : 	for(uint i = 0; i < uiPlotCount; ++i)

	xor	eax, eax
	test	edx, edx
	jbe	SHORT $LN1@ClearResou
	push	esi
	mov	esi, OFFSET _sg_kSave+12320
	jmp	SHORT $LN3@ClearResou
	npad	3
$LL16@ClearResou:

; 1893 : 	const uint uiPlotCount = sg_kSave.GetPlotCount();

	mov	ecx, DWORD PTR _sg_kSave+12228
$LN3@ClearResou:

; 1895 : 	{
; 1896 : 		CvWorldBuilderMap::PlotMapData& kPlot = sg_kSave.GetPlotData(i);

	imul	ecx, DWORD PTR _sg_kSave+12232
	cmp	eax, ecx
	jae	SHORT $LN9@ClearResou
	mov	ecx, esi
	cmp	eax, 32768				; 00008000H
	jb	SHORT $LN8@ClearResou
$LN9@ClearResou:
	mov	ecx, OFFSET ?sm_kErrorPlotMapData@CvWorldBuilderMap@@0VPlotMapData@1@A ; CvWorldBuilderMap::sm_kErrorPlotMapData
$LN8@ClearResou:
	inc	eax
	add	esi, 8

; 1897 : 		kPlot.SetResourceType(CvWorldBuilderMap::PlotMapData::InvalidResource);

	mov	BYTE PTR [ecx+1], 255			; 000000ffH
	cmp	eax, edx
	jb	SHORT $LL16@ClearResou
	pop	esi
$LN1@ClearResou:

; 1898 : 	}
; 1899 : }

	ret	0
?ClearResources@CvWorldBuilderMapLoader@@SAXXZ ENDP	; CvWorldBuilderMapLoader::ClearResources
_TEXT	ENDS
PUBLIC	?ClearGoodies@CvWorldBuilderMapLoader@@SAXXZ	; CvWorldBuilderMapLoader::ClearGoodies
EXTRN	?IsGoody@CvImprovementEntry@@QBE_NXZ:PROC	; CvImprovementEntry::IsGoody
EXTRN	?getImprovementInfo@CvGlobals@@QAEPAVCvImprovementEntry@@W4ImprovementTypes@@@Z:PROC ; CvGlobals::getImprovementInfo
EXTRN	?gGlobals@@3VCvGlobals@@A:BYTE			; gGlobals
; Function compile flags: /Ogtpy
;	COMDAT ?ClearGoodies@CvWorldBuilderMapLoader@@SAXXZ
_TEXT	SEGMENT
?ClearGoodies@CvWorldBuilderMapLoader@@SAXXZ PROC	; CvWorldBuilderMapLoader::ClearGoodies, COMDAT

; 1902 : {

	push	ebp

; 1903 : 	const uint uiPlotCount = sg_kSave.GetPlotCount();

	mov	ebp, DWORD PTR _sg_kSave+12228
	imul	ebp, DWORD PTR _sg_kSave+12232
	push	edi

; 1904 : 	for(uint i = 0; i < uiPlotCount; ++i)

	xor	edi, edi
	test	ebp, ebp
	jbe	SHORT $LN4@ClearGoodi
	push	ebx
	push	esi
	mov	ebx, OFFSET _sg_kSave+274464
	npad	4
$LL18@ClearGoodi:

; 1905 : 	{
; 1906 : 		CvWorldBuilderMap::PlotScenarioData& kPlot = sg_kSave.GetPlotScenarioData(i);

	mov	eax, DWORD PTR _sg_kSave+12228
	imul	eax, DWORD PTR _sg_kSave+12232
	cmp	edi, eax
	jae	SHORT $LN12@ClearGoodi
	mov	esi, ebx
	cmp	edi, 32768				; 00008000H
	jb	SHORT $LN11@ClearGoodi
$LN12@ClearGoodi:
	mov	esi, OFFSET ?sm_kErrorPlotScenarioData@CvWorldBuilderMap@@0UPlotScenarioData@1@A ; CvWorldBuilderMap::sm_kErrorPlotScenarioData
$LN11@ClearGoodi:

; 1907 : 		if(kPlot.m_byImprovement != CvWorldBuilderMap::PlotScenarioData::InvalidImprovement)

	mov	al, BYTE PTR [esi+5]
	cmp	al, 255					; 000000ffH
	je	SHORT $LN5@ClearGoodi

; 1908 : 		{
; 1909 : 			ImprovementTypes eType = (ImprovementTypes)kPlot.m_byImprovement;

	movzx	eax, al

; 1910 : 			const CvImprovementEntry* pkImprovement = GC.getImprovementInfo(eType);

	push	eax
	mov	ecx, OFFSET ?gGlobals@@3VCvGlobals@@A	; gGlobals
	call	?getImprovementInfo@CvGlobals@@QAEPAVCvImprovementEntry@@W4ImprovementTypes@@@Z ; CvGlobals::getImprovementInfo

; 1911 : 			if(pkImprovement == NULL || pkImprovement->IsGoody())

	test	eax, eax
	je	SHORT $LN1@ClearGoodi
	mov	ecx, eax
	call	?IsGoody@CvImprovementEntry@@QBE_NXZ	; CvImprovementEntry::IsGoody
	test	al, al
	je	SHORT $LN5@ClearGoodi
$LN1@ClearGoodi:

; 1912 : 				kPlot.m_byImprovement = CvWorldBuilderMap::PlotScenarioData::InvalidImprovement;

	mov	BYTE PTR [esi+5], 255			; 000000ffH
$LN5@ClearGoodi:

; 1904 : 	for(uint i = 0; i < uiPlotCount; ++i)

	inc	edi
	add	ebx, 8
	cmp	edi, ebp
	jb	SHORT $LL18@ClearGoodi
	pop	esi
	pop	ebx
$LN4@ClearGoodi:
	pop	edi
	pop	ebp

; 1913 : 		}
; 1914 : 	}
; 1915 : }

	ret	0
?ClearGoodies@CvWorldBuilderMapLoader@@SAXXZ ENDP	; CvWorldBuilderMapLoader::ClearGoodies
_TEXT	ENDS
PUBLIC	?ResetPlayerSlots@CvWorldBuilderMapLoader@@SAXXZ ; CvWorldBuilderMapLoader::ResetPlayerSlots
_BSS	SEGMENT
_sg_auiPlayerSlots DD 03fH DUP (?)
; Function compile flags: /Ogtpy
_BSS	ENDS
;	COMDAT ?ResetPlayerSlots@CvWorldBuilderMapLoader@@SAXXZ
_TEXT	SEGMENT
?ResetPlayerSlots@CvWorldBuilderMapLoader@@SAXXZ PROC	; CvWorldBuilderMapLoader::ResetPlayerSlots, COMDAT

; 1965 : 	for(uint i = 0; i < MAX_CIV_PLAYERS; ++i)

	xor	eax, eax
$LL3@ResetPlaye:

; 1966 : 		sg_auiPlayerSlots[i] = i;

	mov	DWORD PTR _sg_auiPlayerSlots[eax*4], eax
	inc	eax
	cmp	eax, 63					; 0000003fH
	jb	SHORT $LL3@ResetPlaye

; 1967 : }

	ret	0
?ResetPlayerSlots@CvWorldBuilderMapLoader@@SAXXZ ENDP	; CvWorldBuilderMapLoader::ResetPlayerSlots
_TEXT	ENDS
PUBLIC	?MapPlayerToSlot@CvWorldBuilderMapLoader@@SAXIW4PlayerTypes@@@Z ; CvWorldBuilderMapLoader::MapPlayerToSlot
; Function compile flags: /Ogtpy
;	COMDAT ?MapPlayerToSlot@CvWorldBuilderMapLoader@@SAXIW4PlayerTypes@@@Z
_TEXT	SEGMENT
_uiPlayer$ = 8						; size = 4
_ePlayerSlot$ = 12					; size = 4
?MapPlayerToSlot@CvWorldBuilderMapLoader@@SAXIW4PlayerTypes@@@Z PROC ; CvWorldBuilderMapLoader::MapPlayerToSlot, COMDAT

; 1971 : 	if(uiPlayer < MAX_CIV_PLAYERS && ePlayerSlot >= 0 && ePlayerSlot < MAX_CIV_PLAYERS)

	mov	ecx, DWORD PTR _uiPlayer$[esp-4]
	cmp	ecx, 63					; 0000003fH
	jae	SHORT $LN1@MapPlayerT
	push	esi
	mov	esi, DWORD PTR _ePlayerSlot$[esp]
	cmp	esi, 62					; 0000003eH
	ja	SHORT $LN13@MapPlayerT
	push	edi

; 1972 : 	{
; 1973 : 		const uint uiCurrent = sg_auiPlayerSlots[ePlayerSlot];

	mov	edi, DWORD PTR _sg_auiPlayerSlots[esi*4]

; 1974 : 		if(uiCurrent != uiPlayer)

	cmp	edi, ecx
	je	SHORT $LN14@MapPlayerT

; 1975 : 		{
; 1976 : 			PlayerTypes eOldSlot = NO_PLAYER;

	or	edx, -1

; 1977 : 			for(uint i = 0; i < MAX_CIV_PLAYERS; ++i)

	xor	eax, eax
$LL5@MapPlayerT:

; 1978 : 			{
; 1979 : 				if(sg_auiPlayerSlots[i] == uiPlayer)

	cmp	DWORD PTR _sg_auiPlayerSlots[eax*4], ecx
	je	SHORT $LN11@MapPlayerT
	inc	eax
	cmp	eax, 63					; 0000003fH
	jb	SHORT $LL5@MapPlayerT
	jmp	SHORT $LN3@MapPlayerT
$LN11@MapPlayerT:

; 1980 : 				{
; 1981 : 					eOldSlot = (PlayerTypes)i;

	mov	edx, eax
$LN3@MapPlayerT:

; 1982 : 					break;
; 1983 : 				}
; 1984 : 			}
; 1985 : 
; 1986 : 			sg_auiPlayerSlots[ePlayerSlot] = uiPlayer;

	mov	DWORD PTR _sg_auiPlayerSlots[esi*4], ecx

; 1987 : 
; 1988 : 			FAssertMsg(eOldSlot != NO_PLAYER, "Player list has holes in it!")
; 1989 : 			if(eOldSlot != NO_PLAYER)

	cmp	edx, -1
	je	SHORT $LN14@MapPlayerT

; 1990 : 				sg_auiPlayerSlots[eOldSlot] = uiCurrent;

	mov	DWORD PTR _sg_auiPlayerSlots[edx*4], edi
$LN14@MapPlayerT:
	pop	edi
$LN13@MapPlayerT:
	pop	esi
$LN1@MapPlayerT:

; 1991 : 		}
; 1992 : 	}
; 1993 : }

	ret	0
?MapPlayerToSlot@CvWorldBuilderMapLoader@@SAXIW4PlayerTypes@@@Z ENDP ; CvWorldBuilderMapLoader::MapPlayerToSlot
_TEXT	ENDS
PUBLIC	?GetMapPlayerSlot@CvWorldBuilderMapLoader@@SA?AW4PlayerTypes@@I@Z ; CvWorldBuilderMapLoader::GetMapPlayerSlot
; Function compile flags: /Ogtpy
;	COMDAT ?GetMapPlayerSlot@CvWorldBuilderMapLoader@@SA?AW4PlayerTypes@@I@Z
_TEXT	SEGMENT
_uiPlayer$ = 8						; size = 4
?GetMapPlayerSlot@CvWorldBuilderMapLoader@@SA?AW4PlayerTypes@@I@Z PROC ; CvWorldBuilderMapLoader::GetMapPlayerSlot, COMDAT

; 1997 : 	for(int i = 0; i < MAX_CIV_PLAYERS; ++i)

	mov	ecx, DWORD PTR _uiPlayer$[esp-4]
	xor	eax, eax
$LL4@GetMapPlay:

; 1998 : 	{
; 1999 : 		if(sg_auiPlayerSlots[i] == uiPlayer)

	cmp	DWORD PTR _sg_auiPlayerSlots[eax*4], ecx
	je	SHORT $LN5@GetMapPlay
	inc	eax
	cmp	eax, 63					; 0000003fH
	jl	SHORT $LL4@GetMapPlay

; 2000 : 			return static_cast<PlayerTypes>(i);
; 2001 : 	}
; 2002 : 
; 2003 : 	return NO_PLAYER;

	or	eax, -1
$LN5@GetMapPlay:

; 2004 : }

	ret	0
?GetMapPlayerSlot@CvWorldBuilderMapLoader@@SA?AW4PlayerTypes@@I@Z ENDP ; CvWorldBuilderMapLoader::GetMapPlayerSlot
_TEXT	ENDS
PUBLIC	?GetMapPlayerCount@CvWorldBuilderMapLoader@@SAHXZ ; CvWorldBuilderMapLoader::GetMapPlayerCount
; Function compile flags: /Ogtpy
;	COMDAT ?GetMapPlayerCount@CvWorldBuilderMapLoader@@SAHXZ
_TEXT	SEGMENT
?GetMapPlayerCount@CvWorldBuilderMapLoader@@SAHXZ PROC	; CvWorldBuilderMapLoader::GetMapPlayerCount, COMDAT

; 2008 : 	return MAX_CIV_PLAYERS;

	mov	eax, 63					; 0000003fH

; 2009 : }

	ret	0
?GetMapPlayerCount@CvWorldBuilderMapLoader@@SAHXZ ENDP	; CvWorldBuilderMapLoader::GetMapPlayerCount
_TEXT	ENDS
PUBLIC	?PreviewPlayableCivCount@CvWorldBuilderMapLoader@@SAIPB_W@Z ; CvWorldBuilderMapLoader::PreviewPlayableCivCount
EXTRN	?PreviewPlayableCivCount@CvWorldBuilderMap@@SAIPB_W@Z:PROC ; CvWorldBuilderMap::PreviewPlayableCivCount
; Function compile flags: /Ogtpy
;	COMDAT ?PreviewPlayableCivCount@CvWorldBuilderMapLoader@@SAIPB_W@Z
_TEXT	SEGMENT
_wszFilename$ = 8					; size = 4
?PreviewPlayableCivCount@CvWorldBuilderMapLoader@@SAIPB_W@Z PROC ; CvWorldBuilderMapLoader::PreviewPlayableCivCount, COMDAT

; 2017 : 	return CvWorldBuilderMap::PreviewPlayableCivCount(wszFilename);

	jmp	?PreviewPlayableCivCount@CvWorldBuilderMap@@SAIPB_W@Z ; CvWorldBuilderMap::PreviewPlayableCivCount
?PreviewPlayableCivCount@CvWorldBuilderMapLoader@@SAIPB_W@Z ENDP ; CvWorldBuilderMapLoader::PreviewPlayableCivCount
_TEXT	ENDS
PUBLIC	?CheckTempMap@@YA_NPB_W@Z			; CheckTempMap
; Function compile flags: /Ogtpy
;	COMDAT ?CheckTempMap@@YA_NPB_W@Z
_TEXT	SEGMENT
_wszFilename$ = 8					; size = 4
?CheckTempMap@@YA_NPB_W@Z PROC				; CheckTempMap, COMDAT

; 2025 : 	FAssert(wszFilename);
; 2026 : 
; 2027 : 	if(wszFilename && *wszFilename)

	mov	eax, DWORD PTR _wszFilename$[esp-4]
	test	eax, eax
	je	SHORT $LN1@CheckTempM
	cmp	WORD PTR [eax], 0
	je	SHORT $LN1@CheckTempM

; 2028 : 	{
; 2029 : 		return wcscmp(wszFilename, sg_wszTempMapName) == 0;

	mov	ecx, OFFSET _sg_wszTempMapName
$LL4@CheckTempM:
	mov	dx, WORD PTR [eax]
	cmp	dx, WORD PTR [ecx]
	jne	SHORT $LN5@CheckTempM
	test	dx, dx
	je	SHORT $LN6@CheckTempM
	mov	dx, WORD PTR [eax+2]
	cmp	dx, WORD PTR [ecx+2]
	jne	SHORT $LN5@CheckTempM
	add	eax, 4
	add	ecx, 4
	test	dx, dx
	jne	SHORT $LL4@CheckTempM
$LN6@CheckTempM:
	xor	eax, eax
	xor	ecx, ecx
	test	eax, eax
	sete	cl
	mov	al, cl

; 2033 : }

	ret	0
$LN5@CheckTempM:

; 2028 : 	{
; 2029 : 		return wcscmp(wszFilename, sg_wszTempMapName) == 0;

	sbb	eax, eax
	sbb	eax, -1
	xor	ecx, ecx
	test	eax, eax
	sete	cl
	mov	al, cl

; 2033 : }

	ret	0
$LN1@CheckTempM:

; 2030 : 	}
; 2031 : 
; 2032 : 	return false;

	xor	al, al

; 2033 : }

	ret	0
?CheckTempMap@@YA_NPB_W@Z ENDP				; CheckTempMap
_TEXT	ENDS
PUBLIC	?TempMapLoaded@@YAXPB_W@Z			; TempMapLoaded
EXTRN	__imp__wcscpy_s:PROC
; Function compile flags: /Ogtpy
;	COMDAT ?TempMapLoaded@@YAXPB_W@Z
_TEXT	SEGMENT
_wszFilename$ = 8					; size = 4
?TempMapLoaded@@YAXPB_W@Z PROC				; TempMapLoaded, COMDAT

; 2037 : 	wcscpy_s(sg_wszTempMapName, MAX_PATH, wszFilename);

	mov	eax, DWORD PTR _wszFilename$[esp-4]
	push	eax
	push	260					; 00000104H
	push	OFFSET _sg_wszTempMapName
	call	DWORD PTR __imp__wcscpy_s
	add	esp, 12					; 0000000cH

; 2038 : }

	ret	0
?TempMapLoaded@@YAXPB_W@Z ENDP				; TempMapLoaded
_TEXT	ENDS
PUBLIC	??A?$CvWorldBuilderMapElementAllocator@UUnitName@CvWorldBuilderMap@@$03@@QAEPAUUnitName@CvWorldBuilderMap@@VHandle@0@@Z ; CvWorldBuilderMapElementAllocator<CvWorldBuilderMap::UnitName,4>::operator[]
; Function compile flags: /Ogtpy
; File c:\users\enormousapplepie\documents\github\lekmod\lekmod_dll\cvworldbuildermap\include\cvworldbuildermapelementallocator.h
;	COMDAT ??A?$CvWorldBuilderMapElementAllocator@UUnitName@CvWorldBuilderMap@@$03@@QAEPAUUnitName@CvWorldBuilderMap@@VHandle@0@@Z
_TEXT	SEGMENT
_h$ = 8							; size = 2
??A?$CvWorldBuilderMapElementAllocator@UUnitName@CvWorldBuilderMap@@$03@@QAEPAUUnitName@CvWorldBuilderMap@@VHandle@0@@Z PROC ; CvWorldBuilderMapElementAllocator<CvWorldBuilderMap::UnitName,4>::operator[], COMDAT
; _this$ = ecx

; 118  : 		if( h.m_wIndex < m_uiSize ) return (T*)&(m_aData[h.m_wIndex]);

	movzx	eax, WORD PTR _h$[esp-4]
	cmp	eax, DWORD PTR [ecx+8]
	jae	SHORT $LN2@operator
	shl	eax, 6
	add	eax, DWORD PTR [ecx]

; 120  : 	}

	ret	4
$LN2@operator:

; 119  : 		else return NULL;

	xor	eax, eax

; 120  : 	}

	ret	4
??A?$CvWorldBuilderMapElementAllocator@UUnitName@CvWorldBuilderMap@@$03@@QAEPAUUnitName@CvWorldBuilderMap@@VHandle@0@@Z ENDP ; CvWorldBuilderMapElementAllocator<CvWorldBuilderMap::UnitName,4>::operator[]
_TEXT	ENDS
PUBLIC	?Valid@Handle@?$CvWorldBuilderMapElementAllocator@UUnitName@CvWorldBuilderMap@@$03@@QBE?B_NXZ ; CvWorldBuilderMapElementAllocator<CvWorldBuilderMap::UnitName,4>::Handle::Valid
; Function compile flags: /Ogtpy
;	COMDAT ?Valid@Handle@?$CvWorldBuilderMapElementAllocator@UUnitName@CvWorldBuilderMap@@$03@@QBE?B_NXZ
_TEXT	SEGMENT
?Valid@Handle@?$CvWorldBuilderMapElementAllocator@UUnitName@CvWorldBuilderMap@@$03@@QBE?B_NXZ PROC ; CvWorldBuilderMapElementAllocator<CvWorldBuilderMap::UnitName,4>::Handle::Valid, COMDAT
; _this$ = ecx

; 45   : 		inline const bool Valid() const { return m_wIndex != word(-1); }

	mov	eax, 65535				; 0000ffffH
	cmp	WORD PTR [ecx], ax
	setne	al
	ret	0
?Valid@Handle@?$CvWorldBuilderMapElementAllocator@UUnitName@CvWorldBuilderMap@@$03@@QBE?B_NXZ ENDP ; CvWorldBuilderMapElementAllocator<CvWorldBuilderMap::UnitName,4>::Handle::Valid
_TEXT	ENDS
PUBLIC	??A?$CvWorldBuilderMapElementAllocator@UUnit@CvWorldBuilderMap@@$0BA@@@QAEPAUUnit@CvWorldBuilderMap@@VHandle@0@@Z ; CvWorldBuilderMapElementAllocator<CvWorldBuilderMap::Unit,16>::operator[]
; Function compile flags: /Ogtpy
;	COMDAT ??A?$CvWorldBuilderMapElementAllocator@UUnit@CvWorldBuilderMap@@$0BA@@@QAEPAUUnit@CvWorldBuilderMap@@VHandle@0@@Z
_TEXT	SEGMENT
_h$ = 8							; size = 2
??A?$CvWorldBuilderMapElementAllocator@UUnit@CvWorldBuilderMap@@$0BA@@@QAEPAUUnit@CvWorldBuilderMap@@VHandle@0@@Z PROC ; CvWorldBuilderMapElementAllocator<CvWorldBuilderMap::Unit,16>::operator[], COMDAT
; _this$ = ecx

; 118  : 		if( h.m_wIndex < m_uiSize ) return (T*)&(m_aData[h.m_wIndex]);

	movzx	eax, WORD PTR _h$[esp-4]
	cmp	eax, DWORD PTR [ecx+8]
	jae	SHORT $LN2@operator@2
	imul	eax, 84					; 00000054H
	add	eax, DWORD PTR [ecx]

; 120  : 	}

	ret	4
$LN2@operator@2:

; 119  : 		else return NULL;

	xor	eax, eax

; 120  : 	}

	ret	4
??A?$CvWorldBuilderMapElementAllocator@UUnit@CvWorldBuilderMap@@$0BA@@@QAEPAUUnit@CvWorldBuilderMap@@VHandle@0@@Z ENDP ; CvWorldBuilderMapElementAllocator<CvWorldBuilderMap::Unit,16>::operator[]
_TEXT	ENDS
PUBLIC	??A?$CvWorldBuilderMapElementAllocator@UCity@CvWorldBuilderMap@@$07@@QAEPAUCity@CvWorldBuilderMap@@VHandle@0@@Z ; CvWorldBuilderMapElementAllocator<CvWorldBuilderMap::City,8>::operator[]
; Function compile flags: /Ogtpy
;	COMDAT ??A?$CvWorldBuilderMapElementAllocator@UCity@CvWorldBuilderMap@@$07@@QAEPAUCity@CvWorldBuilderMap@@VHandle@0@@Z
_TEXT	SEGMENT
_h$ = 8							; size = 2
??A?$CvWorldBuilderMapElementAllocator@UCity@CvWorldBuilderMap@@$07@@QAEPAUCity@CvWorldBuilderMap@@VHandle@0@@Z PROC ; CvWorldBuilderMapElementAllocator<CvWorldBuilderMap::City,8>::operator[], COMDAT
; _this$ = ecx

; 118  : 		if( h.m_wIndex < m_uiSize ) return (T*)&(m_aData[h.m_wIndex]);

	movzx	eax, WORD PTR _h$[esp-4]
	cmp	eax, DWORD PTR [ecx+8]
	jae	SHORT $LN2@operator@3
	imul	eax, 136				; 00000088H
	add	eax, DWORD PTR [ecx]

; 120  : 	}

	ret	4
$LN2@operator@3:

; 119  : 		else return NULL;

	xor	eax, eax

; 120  : 	}

	ret	4
??A?$CvWorldBuilderMapElementAllocator@UCity@CvWorldBuilderMap@@$07@@QAEPAUCity@CvWorldBuilderMap@@VHandle@0@@Z ENDP ; CvWorldBuilderMapElementAllocator<CvWorldBuilderMap::City,8>::operator[]
_TEXT	ENDS
PUBLIC	?Get@?$SerializableBitset@$0DAAAAA@@CvWorldBuilderMap@@QBE?B_NI@Z ; CvWorldBuilderMap::SerializableBitset<3145728>::Get
; Function compile flags: /Ogtpy
; File c:\users\enormousapplepie\documents\github\lekmod\lekmod_dll\cvworldbuildermap\include\cvworldbuildermap.h
;	COMDAT ?Get@?$SerializableBitset@$0DAAAAA@@CvWorldBuilderMap@@QBE?B_NI@Z
_TEXT	SEGMENT
_uiBitIndex$ = 8					; size = 4
?Get@?$SerializableBitset@$0DAAAAA@@CvWorldBuilderMap@@QBE?B_NI@Z PROC ; CvWorldBuilderMap::SerializableBitset<3145728>::Get, COMDAT
; _this$ = ecx

; 806  : 		{

	push	esi
	mov	esi, ecx

; 807  : 			FAssertMsg(uiBitIndex < TBits, "Out of range");
; 808  : 			const uint uiByte = uiBitIndex / 8;

	mov	ecx, DWORD PTR _uiBitIndex$[esp]
	mov	eax, ecx
	shr	eax, 3

; 809  : 			const uint uiBit = uiBitIndex % 8;
; 810  : 			const byte byMask = (1 << uiBit);
; 811  : 
; 812  : 			if( uiByte < ByteCount )

	cmp	eax, 393216				; 00060000H
	jae	SHORT $LN2@Get
	and	ecx, 7
	mov	dl, 1
	shl	dl, cl

; 813  : 				return (m_Mem[uiByte] & byMask) != 0;

	test	dl, BYTE PTR [eax+esi]
	pop	esi
	setne	al

; 816  : 		}

	ret	4
$LN2@Get:

; 814  : 			else
; 815  : 				return false;

	xor	al, al
	pop	esi

; 816  : 		}

	ret	4
?Get@?$SerializableBitset@$0DAAAAA@@CvWorldBuilderMap@@QBE?B_NI@Z ENDP ; CvWorldBuilderMap::SerializableBitset<3145728>::Get
_TEXT	ENDS
PUBLIC	??A?$BaseVector@PAVCvPlayer@@$0A@@@QAEAAPAVCvPlayer@@I@Z ; BaseVector<CvPlayer *,0>::operator[]
; Function compile flags: /Ogtpy
; File c:\users\enormousapplepie\documents\github\lekmod\lekmod_dll\fireplace\include\fireworks\ffastvector.h
;	COMDAT ??A?$BaseVector@PAVCvPlayer@@$0A@@@QAEAAPAVCvPlayer@@I@Z
_TEXT	SEGMENT
_ui$ = 8						; size = 4
??A?$BaseVector@PAVCvPlayer@@$0A@@@QAEAAPAVCvPlayer@@I@Z PROC ; BaseVector<CvPlayer *,0>::operator[], COMDAT
; _this$ = ecx

; 129  : 		FAssert(ui < m_uiCurrSize);
; 130  : 		return m_pData[ui];

	mov	eax, DWORD PTR [ecx]
	mov	ecx, DWORD PTR _ui$[esp-4]
	lea	eax, DWORD PTR [eax+ecx*4]

; 131  : 	};

	ret	4
??A?$BaseVector@PAVCvPlayer@@$0A@@@QAEAAPAVCvPlayer@@I@Z ENDP ; BaseVector<CvPlayer *,0>::operator[]
_TEXT	ENDS
PUBLIC	?size@?$BaseVector@PAVCvPlayer@@$0A@@@QBEIXZ	; BaseVector<CvPlayer *,0>::size
; Function compile flags: /Ogtpy
;	COMDAT ?size@?$BaseVector@PAVCvPlayer@@$0A@@@QBEIXZ
_TEXT	SEGMENT
?size@?$BaseVector@PAVCvPlayer@@$0A@@@QBEIXZ PROC	; BaseVector<CvPlayer *,0>::size, COMDAT
; _this$ = ecx

; 169  : 		return m_uiCurrSize;

	mov	eax, DWORD PTR [ecx+4]

; 170  : 	};

	ret	0
?size@?$BaseVector@PAVCvPlayer@@$0A@@@QBEIXZ ENDP	; BaseVector<CvPlayer *,0>::size
_TEXT	ENDS
PUBLIC	??1?$_Container_base_aux_alloc_empty@V?$allocator@VString@CvWorldBuilderMapTypeDesc@@@std@@@std@@IAE@XZ ; std::_Container_base_aux_alloc_empty<std::allocator<CvWorldBuilderMapTypeDesc::String> >::~_Container_base_aux_alloc_empty<std::allocator<CvWorldBuilderMapTypeDesc::String> >
; Function compile flags: /Ogtpy
; File c:\program files (x86)\microsoft visual studio 9.0\vc\include\xutility
;	COMDAT ??1?$_Container_base_aux_alloc_empty@V?$allocator@VString@CvWorldBuilderMapTypeDesc@@@std@@@std@@IAE@XZ
_TEXT	SEGMENT
??1?$_Container_base_aux_alloc_empty@V?$allocator@VString@CvWorldBuilderMapTypeDesc@@@std@@@std@@IAE@XZ PROC ; std::_Container_base_aux_alloc_empty<std::allocator<CvWorldBuilderMapTypeDesc::String> >::~_Container_base_aux_alloc_empty<std::allocator<CvWorldBuilderMapTypeDesc::String> >, COMDAT
; _this$ = ecx

; 627  : 	~_Container_base_aux_alloc_empty() { }

	ret	0
??1?$_Container_base_aux_alloc_empty@V?$allocator@VString@CvWorldBuilderMapTypeDesc@@@std@@@std@@IAE@XZ ENDP ; std::_Container_base_aux_alloc_empty<std::allocator<CvWorldBuilderMapTypeDesc::String> >::~_Container_base_aux_alloc_empty<std::allocator<CvWorldBuilderMapTypeDesc::String> >
_TEXT	ENDS
PUBLIC	?deallocate@?$allocator@VString@CvWorldBuilderMapTypeDesc@@@std@@QAEXPAVString@CvWorldBuilderMapTypeDesc@@I@Z ; std::allocator<CvWorldBuilderMapTypeDesc::String>::deallocate
; Function compile flags: /Ogtpy
; File c:\program files (x86)\microsoft visual studio 9.0\vc\include\xmemory
;	COMDAT ?deallocate@?$allocator@VString@CvWorldBuilderMapTypeDesc@@@std@@QAEXPAVString@CvWorldBuilderMapTypeDesc@@I@Z
_TEXT	SEGMENT
__Ptr$ = 8						; size = 4
___formal$ = 12						; size = 4
?deallocate@?$allocator@VString@CvWorldBuilderMapTypeDesc@@@std@@QAEXPAVString@CvWorldBuilderMapTypeDesc@@I@Z PROC ; std::allocator<CvWorldBuilderMapTypeDesc::String>::deallocate, COMDAT
; _this$ = ecx

; 140  : 		::operator delete(_Ptr);

	mov	eax, DWORD PTR __Ptr$[esp-4]
	push	eax
	call	??3@YAXPAX@Z				; operator delete
	pop	ecx

; 141  : 		}

	ret	8
?deallocate@?$allocator@VString@CvWorldBuilderMapTypeDesc@@@std@@QAEXPAVString@CvWorldBuilderMapTypeDesc@@I@Z ENDP ; std::allocator<CvWorldBuilderMapTypeDesc::String>::deallocate
_TEXT	ENDS
PUBLIC	??1?$BaseVector@PAVCvPlayer@@$0A@@@QAE@XZ	; BaseVector<CvPlayer *,0>::~BaseVector<CvPlayer *,0>
; Function compile flags: /Ogtpy
; File c:\users\enormousapplepie\documents\github\lekmod\lekmod_dll\fireplace\include\fireworks\ffastvector.h
;	COMDAT ??1?$BaseVector@PAVCvPlayer@@$0A@@@QAE@XZ
_TEXT	SEGMENT
??1?$BaseVector@PAVCvPlayer@@$0A@@@QAE@XZ PROC		; BaseVector<CvPlayer *,0>::~BaseVector<CvPlayer *,0>, COMDAT
; _this$ = ecx

; 111  : 	~BaseVector(){};

	ret	0
??1?$BaseVector@PAVCvPlayer@@$0A@@@QAE@XZ ENDP		; BaseVector<CvPlayer *,0>::~BaseVector<CvPlayer *,0>
_TEXT	ENDS
PUBLIC	??0?$BaseVector@PAVCvPlayer@@$0A@@@IAE@XZ	; BaseVector<CvPlayer *,0>::BaseVector<CvPlayer *,0>
; Function compile flags: /Ogtpy
;	COMDAT ??0?$BaseVector@PAVCvPlayer@@$0A@@@IAE@XZ
_TEXT	SEGMENT
??0?$BaseVector@PAVCvPlayer@@$0A@@@IAE@XZ PROC		; BaseVector<CvPlayer *,0>::BaseVector<CvPlayer *,0>, COMDAT
; _this$ = ecx

; 216  : 	BaseVector() : m_uiCurrSize(0), m_uiCurrMaxSize(0), m_pData(NULL) {};

	mov	eax, ecx
	xor	ecx, ecx
	mov	DWORD PTR [eax], ecx
	mov	DWORD PTR [eax+4], ecx
	mov	DWORD PTR [eax+8], ecx
	ret	0
??0?$BaseVector@PAVCvPlayer@@$0A@@@IAE@XZ ENDP		; BaseVector<CvPlayer *,0>::BaseVector<CvPlayer *,0>
_TEXT	ENDS
PUBLIC	__TI3?AVout_of_range@std@@
PUBLIC	??_C@_0BL@HMFHJKFH@invalid?5bitset?$DMN?$DO?5position?$AA@ ; `string'
PUBLIC	?_Xran@?$bitset@$0BAA@@std@@ABEXXZ		; std::bitset<256>::_Xran
PUBLIC	__CTA3?AVout_of_range@std@@
PUBLIC	__CT??_R0?AVout_of_range@std@@@8??0out_of_range@std@@QAE@ABV01@@Z40
PUBLIC	??0out_of_range@std@@QAE@ABV01@@Z		; std::out_of_range::out_of_range
PUBLIC	__CT??_R0?AVlogic_error@std@@@8??0logic_error@std@@QAE@ABV01@@Z40
PUBLIC	??0logic_error@std@@QAE@ABV01@@Z		; std::logic_error::logic_error
PUBLIC	__CT??_R0?AVexception@std@@@8??0exception@std@@QAE@ABV01@@Z12
EXTRN	__imp_??0?$basic_string@DU?$char_traits@D@std@@V?$allocator@D@2@@std@@QAE@PBD@Z:PROC
EXTRN	__CxxThrowException@8:PROC
EXTRN	??0exception@std@@QAE@ABV01@@Z:PROC		; std::exception::exception
;	COMDAT __CT??_R0?AVexception@std@@@8??0exception@std@@QAE@ABV01@@Z12
; File c:\program files (x86)\microsoft visual studio 9.0\vc\include\stdexcept
xdata$x	SEGMENT
__CT??_R0?AVexception@std@@@8??0exception@std@@QAE@ABV01@@Z12 DD 00H
	DD	FLAT:??_R0?AVexception@std@@@8
	DD	00H
	DD	0ffffffffH
	ORG $+4
	DD	0cH
	DD	FLAT:??0exception@std@@QAE@ABV01@@Z
xdata$x	ENDS
;	COMDAT __CT??_R0?AVlogic_error@std@@@8??0logic_error@std@@QAE@ABV01@@Z40
xdata$x	SEGMENT
__CT??_R0?AVlogic_error@std@@@8??0logic_error@std@@QAE@ABV01@@Z40 DD 00H
	DD	FLAT:??_R0?AVlogic_error@std@@@8
	DD	00H
	DD	0ffffffffH
	ORG $+4
	DD	028H
	DD	FLAT:??0logic_error@std@@QAE@ABV01@@Z
xdata$x	ENDS
;	COMDAT __CT??_R0?AVout_of_range@std@@@8??0out_of_range@std@@QAE@ABV01@@Z40
xdata$x	SEGMENT
__CT??_R0?AVout_of_range@std@@@8??0out_of_range@std@@QAE@ABV01@@Z40 DD 00H
	DD	FLAT:??_R0?AVout_of_range@std@@@8
	DD	00H
	DD	0ffffffffH
	ORG $+4
	DD	028H
	DD	FLAT:??0out_of_range@std@@QAE@ABV01@@Z
xdata$x	ENDS
;	COMDAT __CTA3?AVout_of_range@std@@
xdata$x	SEGMENT
__CTA3?AVout_of_range@std@@ DD 03H
	DD	FLAT:__CT??_R0?AVout_of_range@std@@@8??0out_of_range@std@@QAE@ABV01@@Z40
	DD	FLAT:__CT??_R0?AVlogic_error@std@@@8??0logic_error@std@@QAE@ABV01@@Z40
	DD	FLAT:__CT??_R0?AVexception@std@@@8??0exception@std@@QAE@ABV01@@Z12
xdata$x	ENDS
;	COMDAT __TI3?AVout_of_range@std@@
xdata$x	SEGMENT
__TI3?AVout_of_range@std@@ DD 00H
	DD	FLAT:??1out_of_range@std@@UAE@XZ
	DD	00H
	DD	FLAT:__CTA3?AVout_of_range@std@@
xdata$x	ENDS
;	COMDAT ??_C@_0BL@HMFHJKFH@invalid?5bitset?$DMN?$DO?5position?$AA@
CONST	SEGMENT
??_C@_0BL@HMFHJKFH@invalid?5bitset?$DMN?$DO?5position?$AA@ DB 'invalid bi'
	DB	'tset<N> position', 00H			; `string'
CONST	ENDS
;	COMDAT xdata$x
xdata$x	SEGMENT
__unwindtable$?_Xran@?$bitset@$0BAA@@std@@ABEXXZ DD 0ffffffffH
	DD	FLAT:__unwindfunclet$?_Xran@?$bitset@$0BAA@@std@@ABEXXZ$0
	DD	00H
	DD	FLAT:__unwindfunclet$?_Xran@?$bitset@$0BAA@@std@@ABEXXZ$2
__ehfuncinfo$?_Xran@?$bitset@$0BAA@@std@@ABEXXZ DD 019930522H
	DD	02H
	DD	FLAT:__unwindtable$?_Xran@?$bitset@$0BAA@@std@@ABEXXZ
	DD	2 DUP(00H)
	DD	2 DUP(00H)
	DD	00H
	DD	01H
; Function compile flags: /Ogtpy
; File c:\program files (x86)\microsoft visual studio 9.0\vc\include\bitset
xdata$x	ENDS
;	COMDAT ?_Xran@?$bitset@$0BAA@@std@@ABEXXZ
_TEXT	SEGMENT
$T227283 = -80						; size = 28
$T227282 = -52						; size = 40
__$EHRec$ = -12						; size = 12
?_Xran@?$bitset@$0BAA@@std@@ABEXXZ PROC			; std::bitset<256>::_Xran, COMDAT
; _this$ = ecx

; 420  : 		{	// report bit index out of range

	push	-1
	push	__ehhandler$?_Xran@?$bitset@$0BAA@@std@@ABEXXZ
	mov	eax, DWORD PTR fs:0
	push	eax
	mov	DWORD PTR fs:0, esp
	sub	esp, 68					; 00000044H

; 421  : 		_THROW(out_of_range, "invalid bitset<N> position");

	push	OFFSET ??_C@_0BL@HMFHJKFH@invalid?5bitset?$DMN?$DO?5position?$AA@
	lea	ecx, DWORD PTR $T227283[esp+84]
	call	DWORD PTR __imp_??0?$basic_string@DU?$char_traits@D@std@@V?$allocator@D@2@@std@@QAE@PBD@Z
	lea	ecx, DWORD PTR $T227282[esp+80]
	mov	DWORD PTR __$EHRec$[esp+88], 0
	call	DWORD PTR __imp_??0exception@std@@QAE@XZ
	lea	eax, DWORD PTR $T227283[esp+80]
	push	eax
	lea	ecx, DWORD PTR $T227282[esp+96]
	mov	BYTE PTR __$EHRec$[esp+92], 1
	mov	DWORD PTR $T227282[esp+84], OFFSET ??_7logic_error@std@@6B@
	call	DWORD PTR __imp_??0?$basic_string@DU?$char_traits@D@std@@V?$allocator@D@2@@std@@QAE@ABV01@@Z
	push	OFFSET __TI3?AVout_of_range@std@@
	lea	ecx, DWORD PTR $T227282[esp+84]
	push	ecx
	mov	BYTE PTR __$EHRec$[esp+96], 0
	mov	DWORD PTR $T227282[esp+88], OFFSET ??_7out_of_range@std@@6B@
	call	__CxxThrowException@8
$LN13@Xran:
$LN12@Xran:
	int	3
_TEXT	ENDS
;	COMDAT text$x
text$x	SEGMENT
__unwindfunclet$?_Xran@?$bitset@$0BAA@@std@@ABEXXZ$0:
	lea	ecx, DWORD PTR $T227283[ebp]
	jmp	DWORD PTR __imp_??1?$basic_string@DU?$char_traits@D@std@@V?$allocator@D@2@@std@@QAE@XZ
__unwindfunclet$?_Xran@?$bitset@$0BAA@@std@@ABEXXZ$2:
	lea	ecx, DWORD PTR $T227282[ebp]
	jmp	DWORD PTR __imp_??1exception@std@@UAE@XZ
__ehhandler$?_Xran@?$bitset@$0BAA@@std@@ABEXXZ:
	mov	eax, OFFSET __ehfuncinfo$?_Xran@?$bitset@$0BAA@@std@@ABEXXZ
	jmp	___CxxFrameHandler3
text$x	ENDS
?_Xran@?$bitset@$0BAA@@std@@ABEXXZ ENDP			; std::bitset<256>::_Xran
PUBLIC	?_Xran@?$bitset@$0CAA@@std@@ABEXXZ		; std::bitset<512>::_Xran
;	COMDAT xdata$x
; File c:\program files (x86)\microsoft visual studio 9.0\vc\include\stdexcept
xdata$x	SEGMENT
__unwindtable$?_Xran@?$bitset@$0CAA@@std@@ABEXXZ DD 0ffffffffH
	DD	FLAT:__unwindfunclet$?_Xran@?$bitset@$0CAA@@std@@ABEXXZ$0
	DD	00H
	DD	FLAT:__unwindfunclet$?_Xran@?$bitset@$0CAA@@std@@ABEXXZ$2
__ehfuncinfo$?_Xran@?$bitset@$0CAA@@std@@ABEXXZ DD 019930522H
	DD	02H
	DD	FLAT:__unwindtable$?_Xran@?$bitset@$0CAA@@std@@ABEXXZ
	DD	2 DUP(00H)
	DD	2 DUP(00H)
	DD	00H
	DD	01H
; Function compile flags: /Ogtpy
; File c:\program files (x86)\microsoft visual studio 9.0\vc\include\bitset
xdata$x	ENDS
;	COMDAT ?_Xran@?$bitset@$0CAA@@std@@ABEXXZ
_TEXT	SEGMENT
$T227309 = -80						; size = 28
$T227308 = -52						; size = 40
__$EHRec$ = -12						; size = 12
?_Xran@?$bitset@$0CAA@@std@@ABEXXZ PROC			; std::bitset<512>::_Xran, COMDAT
; _this$ = ecx

; 420  : 		{	// report bit index out of range

	push	-1
	push	__ehhandler$?_Xran@?$bitset@$0CAA@@std@@ABEXXZ
	mov	eax, DWORD PTR fs:0
	push	eax
	mov	DWORD PTR fs:0, esp
	sub	esp, 68					; 00000044H

; 421  : 		_THROW(out_of_range, "invalid bitset<N> position");

	push	OFFSET ??_C@_0BL@HMFHJKFH@invalid?5bitset?$DMN?$DO?5position?$AA@
	lea	ecx, DWORD PTR $T227309[esp+84]
	call	DWORD PTR __imp_??0?$basic_string@DU?$char_traits@D@std@@V?$allocator@D@2@@std@@QAE@PBD@Z
	lea	ecx, DWORD PTR $T227308[esp+80]
	mov	DWORD PTR __$EHRec$[esp+88], 0
	call	DWORD PTR __imp_??0exception@std@@QAE@XZ
	lea	eax, DWORD PTR $T227309[esp+80]
	push	eax
	lea	ecx, DWORD PTR $T227308[esp+96]
	mov	BYTE PTR __$EHRec$[esp+92], 1
	mov	DWORD PTR $T227308[esp+84], OFFSET ??_7logic_error@std@@6B@
	call	DWORD PTR __imp_??0?$basic_string@DU?$char_traits@D@std@@V?$allocator@D@2@@std@@QAE@ABV01@@Z
	push	OFFSET __TI3?AVout_of_range@std@@
	lea	ecx, DWORD PTR $T227308[esp+84]
	push	ecx
	mov	BYTE PTR __$EHRec$[esp+96], 0
	mov	DWORD PTR $T227308[esp+88], OFFSET ??_7out_of_range@std@@6B@
	call	__CxxThrowException@8
$LN13@Xran@2:
$LN12@Xran@2:
	int	3
_TEXT	ENDS
;	COMDAT text$x
text$x	SEGMENT
__unwindfunclet$?_Xran@?$bitset@$0CAA@@std@@ABEXXZ$0:
	lea	ecx, DWORD PTR $T227309[ebp]
	jmp	DWORD PTR __imp_??1?$basic_string@DU?$char_traits@D@std@@V?$allocator@D@2@@std@@QAE@XZ
__unwindfunclet$?_Xran@?$bitset@$0CAA@@std@@ABEXXZ$2:
	lea	ecx, DWORD PTR $T227308[ebp]
	jmp	DWORD PTR __imp_??1exception@std@@UAE@XZ
__ehhandler$?_Xran@?$bitset@$0CAA@@std@@ABEXXZ:
	mov	eax, OFFSET __ehfuncinfo$?_Xran@?$bitset@$0CAA@@std@@ABEXXZ
	jmp	___CxxFrameHandler3
text$x	ENDS
?_Xran@?$bitset@$0CAA@@std@@ABEXXZ ENDP			; std::bitset<512>::_Xran
PUBLIC	?GetTotalBitCount@?$FRelationshipBitset@$0GA@$00@@CA?BII@Z ; FRelationshipBitset<96,1>::GetTotalBitCount
; Function compile flags: /Ogtpy
; File c:\users\enormousapplepie\documents\github\lekmod\lekmod_dll\cvworldbuildermap\include\frelationshipbitset.h
;	COMDAT ?GetTotalBitCount@?$FRelationshipBitset@$0GA@$00@@CA?BII@Z
_TEXT	SEGMENT
_uiElementCount$ = 8					; size = 4
?GetTotalBitCount@?$FRelationshipBitset@$0GA@$00@@CA?BII@Z PROC ; FRelationshipBitset<96,1>::GetTotalBitCount, COMDAT

; 92   : 		// BitCount = ((n - 1) / 2) * n where n is the team count
; 93   : 		return ((uiElementCount - 1) * uiElementCount) / 2;

	mov	ecx, DWORD PTR _uiElementCount$[esp-4]
	lea	eax, DWORD PTR [ecx-1]
	imul	eax, ecx
	shr	eax, 1

; 94   : 	}

	ret	0
?GetTotalBitCount@?$FRelationshipBitset@$0GA@$00@@CA?BII@Z ENDP ; FRelationshipBitset<96,1>::GetTotalBitCount
_TEXT	ENDS
PUBLIC	?GetTotalBitCount@?$FRelationshipBitset@$0GA@$0A@@@CA?BII@Z ; FRelationshipBitset<96,0>::GetTotalBitCount
; Function compile flags: /Ogtpy
;	COMDAT ?GetTotalBitCount@?$FRelationshipBitset@$0GA@$0A@@@CA?BII@Z
_TEXT	SEGMENT
_uiElementCount$ = 8					; size = 4
?GetTotalBitCount@?$FRelationshipBitset@$0GA@$0A@@@CA?BII@Z PROC ; FRelationshipBitset<96,0>::GetTotalBitCount, COMDAT

; 92   : 		// BitCount = ((n - 1) / 2) * n where n is the team count
; 93   : 		return ((uiElementCount - 1) * uiElementCount) / 2;

	mov	ecx, DWORD PTR _uiElementCount$[esp-4]
	lea	eax, DWORD PTR [ecx-1]
	imul	eax, ecx
	shr	eax, 1

; 94   : 	}

	ret	0
?GetTotalBitCount@?$FRelationshipBitset@$0GA@$0A@@@CA?BII@Z ENDP ; FRelationshipBitset<96,0>::GetTotalBitCount
_TEXT	ENDS
PUBLIC	?Destroy@?$BaseVector@PAVCvPlayer@@$0A@@@IAEXPAPAVCvPlayer@@I@Z ; BaseVector<CvPlayer *,0>::Destroy
; Function compile flags: /Ogtpy
; File c:\users\enormousapplepie\documents\github\lekmod\lekmod_dll\fireplace\include\fireworks\ffastvector.h
;	COMDAT ?Destroy@?$BaseVector@PAVCvPlayer@@$0A@@@IAEXPAPAVCvPlayer@@I@Z
_TEXT	SEGMENT
_pVal$ = 8						; size = 4
_uiNumElements$ = 12					; size = 4
?Destroy@?$BaseVector@PAVCvPlayer@@$0A@@@IAEXPAPAVCvPlayer@@I@Z PROC ; BaseVector<CvPlayer *,0>::Destroy, COMDAT
; _this$ = ecx

; 221  : 		if( !bPODType){
; 222  : 			for(unsigned int i = 0; i < uiNumElements; ++i){
; 223  : 				pVal[i].~T();
; 224  : 			}
; 225  : 		}
; 226  : 	};

	ret	8
?Destroy@?$BaseVector@PAVCvPlayer@@$0A@@@IAEXPAPAVCvPlayer@@I@Z ENDP ; BaseVector<CvPlayer *,0>::Destroy
_TEXT	ENDS
PUBLIC	??_C@_0GH@ECFAPJEJ@c?3?2users?2enormousapplepie?2docume@ ; `string'
PUBLIC	?AllocAligned@FDefaultFastVectorAllocator@?$BaseVector@PAVCvPlayer@@$0A@@@SAPAXIIII@Z ; BaseVector<CvPlayer *,0>::FDefaultFastVectorAllocator::AllocAligned
EXTRN	?FireMallocAlignedNoTracking@@YAPAXIIPBDH@Z:PROC ; FireMallocAlignedNoTracking
;	COMDAT ??_C@_0GH@ECFAPJEJ@c?3?2users?2enormousapplepie?2docume@
CONST	SEGMENT
??_C@_0GH@ECFAPJEJ@c?3?2users?2enormousapplepie?2docume@ DB 'c:\users\eno'
	DB	'rmousapplepie\documents\github\lekmod\lekmod_dll\fireplace\in'
	DB	'clude\fireworks\FFastVector.h', 00H		; `string'
; Function compile flags: /Ogtpy
CONST	ENDS
;	COMDAT ?AllocAligned@FDefaultFastVectorAllocator@?$BaseVector@PAVCvPlayer@@$0A@@@SAPAXIIII@Z
_TEXT	SEGMENT
_nBytes$ = 8						; size = 4
_nAlign$ = 12						; size = 4
_nAllocPool$ = 16					; size = 4
_nAllocSubID$ = 20					; size = 4
?AllocAligned@FDefaultFastVectorAllocator@?$BaseVector@PAVCvPlayer@@$0A@@@SAPAXIIII@Z PROC ; BaseVector<CvPlayer *,0>::FDefaultFastVectorAllocator::AllocAligned, COMDAT

; 85   : 			return FMALLOCALIGNED( nBytes, nAlign, nAllocPool, nAllocSubID );

	mov	DWORD PTR _nAllocSubID$[esp-4], 85	; 00000055H
	mov	DWORD PTR _nAllocPool$[esp-4], OFFSET ??_C@_0GH@ECFAPJEJ@c?3?2users?2enormousapplepie?2docume@
	jmp	?FireMallocAlignedNoTracking@@YAPAXIIPBDH@Z ; FireMallocAlignedNoTracking
?AllocAligned@FDefaultFastVectorAllocator@?$BaseVector@PAVCvPlayer@@$0A@@@SAPAXIIII@Z ENDP ; BaseVector<CvPlayer *,0>::FDefaultFastVectorAllocator::AllocAligned
_TEXT	ENDS
PUBLIC	?FreeAligned@FDefaultFastVectorAllocator@?$BaseVector@PAVCvPlayer@@$0A@@@SAXPAX@Z ; BaseVector<CvPlayer *,0>::FDefaultFastVectorAllocator::FreeAligned
EXTRN	?FireFreeAlignedNoTracking@@YAXPAX@Z:PROC	; FireFreeAlignedNoTracking
; Function compile flags: /Ogtpy
;	COMDAT ?FreeAligned@FDefaultFastVectorAllocator@?$BaseVector@PAVCvPlayer@@$0A@@@SAXPAX@Z
_TEXT	SEGMENT
_pBlock$ = 8						; size = 4
?FreeAligned@FDefaultFastVectorAllocator@?$BaseVector@PAVCvPlayer@@$0A@@@SAXPAX@Z PROC ; BaseVector<CvPlayer *,0>::FDefaultFastVectorAllocator::FreeAligned, COMDAT

; 90   : 			FFREEALIGNED( pBlock );

	jmp	?FireFreeAlignedNoTracking@@YAXPAX@Z	; FireFreeAlignedNoTracking
?FreeAligned@FDefaultFastVectorAllocator@?$BaseVector@PAVCvPlayer@@$0A@@@SAXPAX@Z ENDP ; BaseVector<CvPlayer *,0>::FDefaultFastVectorAllocator::FreeAligned
_TEXT	ENDS
PUBLIC	??0?$_Vector_const_iterator@VString@CvWorldBuilderMapTypeDesc@@V?$allocator@VString@CvWorldBuilderMapTypeDesc@@@std@@@std@@QAE@PAVString@CvWorldBuilderMapTypeDesc@@@Z ; std::_Vector_const_iterator<CvWorldBuilderMapTypeDesc::String,std::allocator<CvWorldBuilderMapTypeDesc::String> >::_Vector_const_iterator<CvWorldBuilderMapTypeDesc::String,std::allocator<CvWorldBuilderMapTypeDesc::String> >
; Function compile flags: /Ogtpy
; File c:\program files (x86)\microsoft visual studio 9.0\vc\include\vector
;	COMDAT ??0?$_Vector_const_iterator@VString@CvWorldBuilderMapTypeDesc@@V?$allocator@VString@CvWorldBuilderMapTypeDesc@@@std@@@std@@QAE@PAVString@CvWorldBuilderMapTypeDesc@@@Z
_TEXT	SEGMENT
__Ptr$ = 8						; size = 4
??0?$_Vector_const_iterator@VString@CvWorldBuilderMapTypeDesc@@V?$allocator@VString@CvWorldBuilderMapTypeDesc@@@std@@@std@@QAE@PAVString@CvWorldBuilderMapTypeDesc@@@Z PROC ; std::_Vector_const_iterator<CvWorldBuilderMapTypeDesc::String,std::allocator<CvWorldBuilderMapTypeDesc::String> >::_Vector_const_iterator<CvWorldBuilderMapTypeDesc::String,std::allocator<CvWorldBuilderMapTypeDesc::String> >, COMDAT
; _this$ = ecx

; 84   : 	explicit _Vector_const_iterator(_Tptr _Ptr)

	mov	eax, ecx

; 85   : 		{	// construct with pointer _Ptr
; 86   : 		_Myptr = _Ptr;

	mov	ecx, DWORD PTR __Ptr$[esp-4]
	mov	DWORD PTR [eax], ecx

; 87   : 		}

	ret	4
??0?$_Vector_const_iterator@VString@CvWorldBuilderMapTypeDesc@@V?$allocator@VString@CvWorldBuilderMapTypeDesc@@@std@@@std@@QAE@PAVString@CvWorldBuilderMapTypeDesc@@@Z ENDP ; std::_Vector_const_iterator<CvWorldBuilderMapTypeDesc::String,std::allocator<CvWorldBuilderMapTypeDesc::String> >::_Vector_const_iterator<CvWorldBuilderMapTypeDesc::String,std::allocator<CvWorldBuilderMapTypeDesc::String> >
_TEXT	ENDS
PUBLIC	??8?$_Vector_const_iterator@VString@CvWorldBuilderMapTypeDesc@@V?$allocator@VString@CvWorldBuilderMapTypeDesc@@@std@@@std@@QBE_NABV01@@Z ; std::_Vector_const_iterator<CvWorldBuilderMapTypeDesc::String,std::allocator<CvWorldBuilderMapTypeDesc::String> >::operator==
; Function compile flags: /Ogtpy
;	COMDAT ??8?$_Vector_const_iterator@VString@CvWorldBuilderMapTypeDesc@@V?$allocator@VString@CvWorldBuilderMapTypeDesc@@@std@@@std@@QBE_NABV01@@Z
_TEXT	SEGMENT
__Right$ = 8						; size = 4
??8?$_Vector_const_iterator@VString@CvWorldBuilderMapTypeDesc@@V?$allocator@VString@CvWorldBuilderMapTypeDesc@@@std@@@std@@QBE_NABV01@@Z PROC ; std::_Vector_const_iterator<CvWorldBuilderMapTypeDesc::String,std::allocator<CvWorldBuilderMapTypeDesc::String> >::operator==, COMDAT
; _this$ = ecx

; 204  : 
; 205  :  #if _HAS_ITERATOR_DEBUGGING
; 206  : 		_Compat(_Right);
; 207  :  #else
; 208  : 		_SCL_SECURE_VALIDATE(this->_Has_container() && this->_Same_container(_Right));
; 209  :  #endif /* _HAS_ITERATOR_DEBUGGING */
; 210  : 
; 211  : 		return (_Myptr == _Right._Myptr);

	mov	eax, DWORD PTR [ecx]
	mov	edx, DWORD PTR __Right$[esp-4]
	xor	ecx, ecx
	cmp	eax, DWORD PTR [edx]
	sete	cl
	mov	al, cl

; 212  : 		}

	ret	4
??8?$_Vector_const_iterator@VString@CvWorldBuilderMapTypeDesc@@V?$allocator@VString@CvWorldBuilderMapTypeDesc@@@std@@@std@@QBE_NABV01@@Z ENDP ; std::_Vector_const_iterator<CvWorldBuilderMapTypeDesc::String,std::allocator<CvWorldBuilderMapTypeDesc::String> >::operator==
_TEXT	ENDS
PUBLIC	??$min@E@std@@YAABEABE0@Z			; std::min<unsigned char>
; Function compile flags: /Ogtpy
; File c:\program files (x86)\microsoft visual studio 9.0\vc\include\xutility
;	COMDAT ??$min@E@std@@YAABEABE0@Z
_TEXT	SEGMENT
__Left$ = 8						; size = 4
__Right$ = 12						; size = 4
??$min@E@std@@YAABEABE0@Z PROC				; std::min<unsigned char>, COMDAT

; 3399 : 	return (_DEBUG_LT(_Right, _Left) ? _Right : _Left);

	mov	eax, DWORD PTR __Right$[esp-4]
	mov	dl, BYTE PTR [eax]
	mov	ecx, DWORD PTR __Left$[esp-4]
	cmp	dl, BYTE PTR [ecx]
	jb	SHORT $LN4@min
	mov	eax, ecx
$LN4@min:

; 3400 : 	}

	ret	0
??$min@E@std@@YAABEABE0@Z ENDP				; std::min<unsigned char>
_TEXT	ENDS
PUBLIC	??$_Iter_random@PAVString@CvWorldBuilderMapTypeDesc@@PAV12@@std@@YA?AUrandom_access_iterator_tag@0@ABQAVString@CvWorldBuilderMapTypeDesc@@0@Z ; std::_Iter_random<CvWorldBuilderMapTypeDesc::String *,CvWorldBuilderMapTypeDesc::String *>
; Function compile flags: /Ogtpy
;	COMDAT ??$_Iter_random@PAVString@CvWorldBuilderMapTypeDesc@@PAV12@@std@@YA?AUrandom_access_iterator_tag@0@ABQAVString@CvWorldBuilderMapTypeDesc@@0@Z
_TEXT	SEGMENT
___$ReturnUdt$ = 8					; size = 4
___formal$ = 12						; size = 4
___formal$ = 16						; size = 4
??$_Iter_random@PAVString@CvWorldBuilderMapTypeDesc@@PAV12@@std@@YA?AUrandom_access_iterator_tag@0@ABQAVString@CvWorldBuilderMapTypeDesc@@0@Z PROC ; std::_Iter_random<CvWorldBuilderMapTypeDesc::String *,CvWorldBuilderMapTypeDesc::String *>, COMDAT

; 994  : 	typename _Iter_random_helper<
; 995  : 		iterator_traits<_Iter1>::iterator_category, 
; 996  : 		iterator_traits<_Iter2>::iterator_category>::_Iter_random_cat _Cat;
; 997  : 	return (_Cat);

	mov	eax, DWORD PTR ___$ReturnUdt$[esp-4]

; 998  : 	}

	ret	0
??$_Iter_random@PAVString@CvWorldBuilderMapTypeDesc@@PAV12@@std@@YA?AUrandom_access_iterator_tag@0@ABQAVString@CvWorldBuilderMapTypeDesc@@0@Z ENDP ; std::_Iter_random<CvWorldBuilderMapTypeDesc::String *,CvWorldBuilderMapTypeDesc::String *>
_TEXT	ENDS
PUBLIC	??$_Ptr_cat@PAVString@CvWorldBuilderMapTypeDesc@@PAV12@@std@@YA?AU_Nonscalar_ptr_iterator_tag@0@AAPAVString@CvWorldBuilderMapTypeDesc@@0@Z ; std::_Ptr_cat<CvWorldBuilderMapTypeDesc::String *,CvWorldBuilderMapTypeDesc::String *>
; Function compile flags: /Ogtpy
;	COMDAT ??$_Ptr_cat@PAVString@CvWorldBuilderMapTypeDesc@@PAV12@@std@@YA?AU_Nonscalar_ptr_iterator_tag@0@AAPAVString@CvWorldBuilderMapTypeDesc@@0@Z
_TEXT	SEGMENT
__Cat$ = -1						; size = 1
___formal$ = 8						; size = 4
___formal$ = 12						; size = 4
??$_Ptr_cat@PAVString@CvWorldBuilderMapTypeDesc@@PAV12@@std@@YA?AU_Nonscalar_ptr_iterator_tag@0@AAPAVString@CvWorldBuilderMapTypeDesc@@0@Z PROC ; std::_Ptr_cat<CvWorldBuilderMapTypeDesc::String *,CvWorldBuilderMapTypeDesc::String *>, COMDAT

; 1509 : 	{

	push	ecx

; 1510 : 	typename _Ptr_cat_helper<_T1, _T2>::_Ptr_cat _Cat;
; 1511 : 	return (_Cat);

	mov	al, BYTE PTR __Cat$[esp+4]

; 1512 : 	}

	pop	ecx
	ret	0
??$_Ptr_cat@PAVString@CvWorldBuilderMapTypeDesc@@PAV12@@std@@YA?AU_Nonscalar_ptr_iterator_tag@0@AAPAVString@CvWorldBuilderMapTypeDesc@@0@Z ENDP ; std::_Ptr_cat<CvWorldBuilderMapTypeDesc::String *,CvWorldBuilderMapTypeDesc::String *>
_TEXT	ENDS
PUBLIC	??$_Copy_opt@PAVString@CvWorldBuilderMapTypeDesc@@PAV12@Urandom_access_iterator_tag@std@@@std@@YAPAVString@CvWorldBuilderMapTypeDesc@@PAV12@00Urandom_access_iterator_tag@0@U_Nonscalar_ptr_iterator_tag@0@U_Range_checked_iterator_tag@0@@Z ; std::_Copy_opt<CvWorldBuilderMapTypeDesc::String *,CvWorldBuilderMapTypeDesc::String *,std::random_access_iterator_tag>
; Function compile flags: /Ogtpy
;	COMDAT ??$_Copy_opt@PAVString@CvWorldBuilderMapTypeDesc@@PAV12@Urandom_access_iterator_tag@std@@@std@@YAPAVString@CvWorldBuilderMapTypeDesc@@PAV12@00Urandom_access_iterator_tag@0@U_Nonscalar_ptr_iterator_tag@0@U_Range_checked_iterator_tag@0@@Z
_TEXT	SEGMENT
__First$ = 8						; size = 4
__Last$ = 12						; size = 4
__Dest$ = 16						; size = 4
___formal$ = 20						; size = 1
___formal$ = 24						; size = 1
___formal$ = 28						; size = 1
??$_Copy_opt@PAVString@CvWorldBuilderMapTypeDesc@@PAV12@Urandom_access_iterator_tag@std@@@std@@YAPAVString@CvWorldBuilderMapTypeDesc@@PAV12@00Urandom_access_iterator_tag@0@U_Nonscalar_ptr_iterator_tag@0@U_Range_checked_iterator_tag@0@@Z PROC ; std::_Copy_opt<CvWorldBuilderMapTypeDesc::String *,CvWorldBuilderMapTypeDesc::String *,std::random_access_iterator_tag>, COMDAT

; 2470 : 	_DEBUG_RANGE(_First, _Last);
; 2471 : 	for (; _First != _Last; ++_Dest, ++_First)

	mov	ecx, DWORD PTR __First$[esp-4]
	mov	edx, DWORD PTR __Last$[esp-4]
	mov	eax, DWORD PTR __Dest$[esp-4]
	cmp	ecx, edx
	je	SHORT $LN1@Copy_opt
	push	esi
$LL3@Copy_opt:

; 2472 : 		*_Dest = *_First;

	mov	esi, DWORD PTR [ecx]
	mov	DWORD PTR [eax], esi
	add	ecx, 4
	add	eax, 4
	cmp	ecx, edx
	jne	SHORT $LL3@Copy_opt
	pop	esi
$LN1@Copy_opt:

; 2473 : 	return (_Dest);
; 2474 : 	}

	ret	0
??$_Copy_opt@PAVString@CvWorldBuilderMapTypeDesc@@PAV12@Urandom_access_iterator_tag@std@@@std@@YAPAVString@CvWorldBuilderMapTypeDesc@@PAV12@00Urandom_access_iterator_tag@0@U_Nonscalar_ptr_iterator_tag@0@U_Range_checked_iterator_tag@0@@Z ENDP ; std::_Copy_opt<CvWorldBuilderMapTypeDesc::String *,CvWorldBuilderMapTypeDesc::String *,std::random_access_iterator_tag>
_TEXT	ENDS
PUBLIC	??$_Destroy@VString@CvWorldBuilderMapTypeDesc@@@std@@YAXPAVString@CvWorldBuilderMapTypeDesc@@@Z ; std::_Destroy<CvWorldBuilderMapTypeDesc::String>
; Function compile flags: /Ogtpy
; File c:\program files (x86)\microsoft visual studio 9.0\vc\include\xmemory
;	COMDAT ??$_Destroy@VString@CvWorldBuilderMapTypeDesc@@@std@@YAXPAVString@CvWorldBuilderMapTypeDesc@@@Z
_TEXT	SEGMENT
__Ptr$ = 8						; size = 4
??$_Destroy@VString@CvWorldBuilderMapTypeDesc@@@std@@YAXPAVString@CvWorldBuilderMapTypeDesc@@@Z PROC ; std::_Destroy<CvWorldBuilderMapTypeDesc::String>, COMDAT

; 59   : 	_DESTRUCTOR(_Ty, _Ptr);
; 60   : 	}

	ret	0
??$_Destroy@VString@CvWorldBuilderMapTypeDesc@@@std@@YAXPAVString@CvWorldBuilderMapTypeDesc@@@Z ENDP ; std::_Destroy<CvWorldBuilderMapTypeDesc::String>
_TEXT	ENDS
PUBLIC	?SafeStrlen@FStringW@@SAHPB_W@Z			; FStringW::SafeStrlen
; Function compile flags: /Ogtpy
; File c:\users\enormousapplepie\documents\github\lekmod\lekmod_dll\fireplace\include\fireworks\fstringw.inl
;	COMDAT ?SafeStrlen@FStringW@@SAHPB_W@Z
_TEXT	SEGMENT
_lpsz$ = 8						; size = 4
?SafeStrlen@FStringW@@SAHPB_W@Z PROC			; FStringW::SafeStrlen, COMDAT

; 941  : 	return ( lpsz ? ( int )wcslen( lpsz ) : 0 );

	mov	eax, DWORD PTR _lpsz$[esp-4]
	test	eax, eax
	je	SHORT $LN3@SafeStrlen
	lea	edx, DWORD PTR [eax+2]
	npad	5
$LL5@SafeStrlen:
	mov	cx, WORD PTR [eax]
	add	eax, 2
	test	cx, cx
	jne	SHORT $LL5@SafeStrlen
	sub	eax, edx
	sar	eax, 1

; 942  : }

	ret	0
$LN3@SafeStrlen:

; 941  : 	return ( lpsz ? ( int )wcslen( lpsz ) : 0 );

	xor	eax, eax

; 942  : }

	ret	0
?SafeStrlen@FStringW@@SAHPB_W@Z ENDP			; FStringW::SafeStrlen
_TEXT	ENDS
PUBLIC	?StringData@FStringWData@FStringW@@QAEPA_WXZ	; FStringW::FStringWData::StringData
; Function compile flags: /Ogtpy
;	COMDAT ?StringData@FStringWData@FStringW@@QAEPA_WXZ
_TEXT	SEGMENT
?StringData@FStringWData@FStringW@@QAEPA_WXZ PROC	; FStringW::FStringWData::StringData, COMDAT
; _this$ = ecx

; 979  : 	return ( ( LPWSTR )( this + 1 ) );

	lea	eax, DWORD PTR [ecx+12]

; 980  : }

	ret	0
?StringData@FStringWData@FStringW@@QAEPA_WXZ ENDP	; FStringW::FStringWData::StringData
_TEXT	ENDS
PUBLIC	?GetData@FStringW@@IBEPAUFStringWData@1@XZ	; FStringW::GetData
; Function compile flags: /Ogtpy
;	COMDAT ?GetData@FStringW@@IBEPAUFStringWData@1@XZ
_TEXT	SEGMENT
?GetData@FStringW@@IBEPAUFStringWData@1@XZ PROC		; FStringW::GetData, COMDAT
; _this$ = ecx

; 989  : 	assert( m_pszString != NULL );
; 990  : 
; 991  : 	return ( ( ( FStringWData* )m_pszString ) - 1 );

	mov	eax, DWORD PTR [ecx]
	sub	eax, 12					; 0000000cH

; 992  : }

	ret	0
?GetData@FStringW@@IBEPAUFStringWData@1@XZ ENDP		; FStringW::GetData
_TEXT	ENDS
PUBLIC	?Init@FStringW@@IAEXXZ				; FStringW::Init
EXTRN	?FStringW_GetStringInitData@@YAPAUFStringWData@FStringW@@XZ:PROC ; FStringW_GetStringInitData
; Function compile flags: /Ogtpy
;	COMDAT ?Init@FStringW@@IAEXXZ
_TEXT	SEGMENT
?Init@FStringW@@IAEXXZ PROC				; FStringW::Init, COMDAT
; _this$ = ecx

; 996  : {

	push	esi
	mov	esi, ecx

; 997  : #ifdef		_NDS
; 998  : 	static int strEmpty[] = { FIXED, 0 };	// Empty string
; 999  : 
; 1000 : 	m_pszString = (LPWSTR)&strEmpty[1];
; 1001 : #else	//	_NDS
; 1002 : 	m_pszString = FStringW_GetStringInitData()->StringData();

	call	?FStringW_GetStringInitData@@YAPAUFStringWData@FStringW@@XZ ; FStringW_GetStringInitData
	add	eax, 12					; 0000000cH
	mov	DWORD PTR [esi], eax
	pop	esi

; 1003 : #endif	//	_NDS
; 1004 : }

	ret	0
?Init@FStringW@@IAEXXZ ENDP				; FStringW::Init
_TEXT	ENDS
PUBLIC	?Release@FStringW@@IAEXPAUFStringWData@1@@Z	; FStringW::Release
EXTRN	??_V@YAXPAX@Z:PROC				; operator delete[]
; Function compile flags: /Ogtpy
;	COMDAT ?Release@FStringW@@IAEXPAUFStringWData@1@@Z
_TEXT	SEGMENT
_pkData$ = 8						; size = 4
?Release@FStringW@@IAEXPAUFStringWData@1@@Z PROC	; FStringW::Release, COMDAT
; _this$ = ecx

; 1016 : {

	push	esi

; 1017 : 	FSTRING_CHECK_BUFFER;
; 1018 : 	if ( pkData && ( pkData != FStringW_GetStringInitData() ) && !pkData->m_bFixed )

	mov	esi, DWORD PTR _pkData$[esp]
	test	esi, esi
	je	SHORT $LN1@Release
	call	?FStringW_GetStringInitData@@YAPAUFStringWData@FStringW@@XZ ; FStringW_GetStringInitData
	cmp	esi, eax
	je	SHORT $LN1@Release
	cmp	WORD PTR [esi+10], 0
	jne	SHORT $LN1@Release

; 1019 : 	{
; 1020 : #ifdef		ENABLE_FSTRING_STATS
; 1021 : 		extern uint g_uiFStringBytesCurrent;
; 1022 : 		g_uiFStringBytesCurrent -= sizeof ( FStringWData ) + ( sizeof ( char ) * pkData->m_iAllocLength + 1 );
; 1023 : #endif	//	ENABLE_FSTRING_STATS
; 1024 : 
; 1025 : 		// Free any memory associated with the string
; 1026 : 		delete [] ( byte* )pkData;

	push	esi
	call	??_V@YAXPAX@Z				; operator delete[]
	add	esp, 4
$LN1@Release:
	pop	esi

; 1027 : 	}
; 1028 : }

	ret	4
?Release@FStringW@@IAEXPAUFStringWData@1@@Z ENDP	; FStringW::Release
_TEXT	ENDS
PUBLIC	?GetCString@FStringA@@QBEPBDXZ			; FStringA::GetCString
; Function compile flags: /Ogtpy
; File c:\users\enormousapplepie\documents\github\lekmod\lekmod_dll\fireplace\include\fireworks\fstringa.inl
;	COMDAT ?GetCString@FStringA@@QBEPBDXZ
_TEXT	SEGMENT
?GetCString@FStringA@@QBEPBDXZ PROC			; FStringA::GetCString, COMDAT
; _this$ = ecx

; 1015 : 	FSTRING_CHECK_BUFFER;
; 1016 : 	return ( m_pszString );

	mov	eax, DWORD PTR [ecx]

; 1017 : }

	ret	0
?GetCString@FStringA@@QBEPBDXZ ENDP			; FStringA::GetCString
_TEXT	ENDS
PUBLIC	?SafeStrlen@FStringA@@SAHPBD@Z			; FStringA::SafeStrlen
; Function compile flags: /Ogtpy
;	COMDAT ?SafeStrlen@FStringA@@SAHPBD@Z
_TEXT	SEGMENT
_lpsz$ = 8						; size = 4
?SafeStrlen@FStringA@@SAHPBD@Z PROC			; FStringA::SafeStrlen, COMDAT

; 1030 : 	return ( lpsz ? ( int )strlen( lpsz ) : 0 );

	mov	eax, DWORD PTR _lpsz$[esp-4]
	test	eax, eax
	je	SHORT $LN3@SafeStrlen@2
	lea	edx, DWORD PTR [eax+1]
	npad	5
$LL5@SafeStrlen@2:
	mov	cl, BYTE PTR [eax]
	inc	eax
	test	cl, cl
	jne	SHORT $LL5@SafeStrlen@2
	sub	eax, edx

; 1031 : }

	ret	0
$LN3@SafeStrlen@2:

; 1030 : 	return ( lpsz ? ( int )strlen( lpsz ) : 0 );

	xor	eax, eax

; 1031 : }

	ret	0
?SafeStrlen@FStringA@@SAHPBD@Z ENDP			; FStringA::SafeStrlen
_TEXT	ENDS
EXTRN	__imp_??0exception@std@@QAE@ABV01@@Z:PROC
;	COMDAT xdata$x
xdata$x	SEGMENT
__unwindtable$??0logic_error@std@@QAE@ABV01@@Z DD 0ffffffffH
	DD	FLAT:__unwindfunclet$??0logic_error@std@@QAE@ABV01@@Z$0
__ehfuncinfo$??0logic_error@std@@QAE@ABV01@@Z DD 019930522H
	DD	01H
	DD	FLAT:__unwindtable$??0logic_error@std@@QAE@ABV01@@Z
	DD	2 DUP(00H)
	DD	2 DUP(00H)
	DD	00H
	DD	01H
; Function compile flags: /Ogtpy
xdata$x	ENDS
;	COMDAT ??0logic_error@std@@QAE@ABV01@@Z
_TEXT	SEGMENT
_this$ = -16						; size = 4
__$EHRec$ = -12						; size = 12
___that$ = 8						; size = 4
??0logic_error@std@@QAE@ABV01@@Z PROC			; std::logic_error::logic_error, COMDAT
; _this$ = ecx
	push	-1
	push	__ehhandler$??0logic_error@std@@QAE@ABV01@@Z
	mov	eax, DWORD PTR fs:0
	push	eax
	mov	DWORD PTR fs:0, esp
	push	ecx
	push	esi
	push	edi
	mov	edi, DWORD PTR ___that$[esp+20]
	mov	esi, ecx
	push	edi
	mov	DWORD PTR _this$[esp+28], esi
	call	DWORD PTR __imp_??0exception@std@@QAE@ABV01@@Z
	add	edi, 12					; 0000000cH
	push	edi
	lea	ecx, DWORD PTR [esi+12]
	mov	DWORD PTR __$EHRec$[esp+36], 0
	mov	DWORD PTR [esi], OFFSET ??_7logic_error@std@@6B@
	call	DWORD PTR __imp_??0?$basic_string@DU?$char_traits@D@std@@V?$allocator@D@2@@std@@QAE@ABV01@@Z
	mov	ecx, DWORD PTR __$EHRec$[esp+24]
	pop	edi
	mov	eax, esi
	pop	esi
	mov	DWORD PTR fs:0, ecx
	add	esp, 16					; 00000010H
	ret	4
_TEXT	ENDS
;	COMDAT text$x
text$x	SEGMENT
__unwindfunclet$??0logic_error@std@@QAE@ABV01@@Z$0:
	mov	ecx, DWORD PTR _this$[ebp]
	jmp	DWORD PTR __imp_??1exception@std@@UAE@XZ
__ehhandler$??0logic_error@std@@QAE@ABV01@@Z:
	mov	eax, OFFSET __ehfuncinfo$??0logic_error@std@@QAE@ABV01@@Z
	jmp	___CxxFrameHandler3
text$x	ENDS
??0logic_error@std@@QAE@ABV01@@Z ENDP			; std::logic_error::logic_error
PUBLIC	??_C@_00CNPNBAHC@?$AA@				; `string'
PUBLIC	??0CvString@@QAE@PBD@Z				; CvString::CvString
;	COMDAT ??_C@_00CNPNBAHC@?$AA@
; File c:\users\enormousapplepie\documents\github\lekmod\lekmod_dll\cvgamecoredllutil\include\cvstring.h
CONST	SEGMENT
??_C@_00CNPNBAHC@?$AA@ DB 00H				; `string'
; Function compile flags: /Ogtpy
CONST	ENDS
;	COMDAT ??0CvString@@QAE@PBD@Z
_TEXT	SEGMENT
_s$ = 8							; size = 4
??0CvString@@QAE@PBD@Z PROC				; CvString::CvString, COMDAT
; _this$ = ecx

; 25   : 	CvString(const char* s) : std::string(s ? s : "") {CvAssertMsg(s != NULL, "Passing NULL to std::string; possible heap corruption!");}

	mov	eax, DWORD PTR _s$[esp-4]
	push	esi
	mov	esi, ecx
	test	eax, eax
	jne	SHORT $LN4@CvString
	mov	eax, OFFSET ??_C@_00CNPNBAHC@?$AA@
$LN4@CvString:
	push	eax
	call	DWORD PTR __imp_??0?$basic_string@DU?$char_traits@D@std@@V?$allocator@D@2@@std@@QAE@PBD@Z
	mov	eax, esi
	pop	esi
	ret	4
??0CvString@@QAE@PBD@Z ENDP				; CvString::CvString
_TEXT	ENDS
PUBLIC	??1CvString@@QAE@XZ				; CvString::~CvString
; Function compile flags: /Ogtpy
;	COMDAT ??1CvString@@QAE@XZ
_TEXT	SEGMENT
??1CvString@@QAE@XZ PROC				; CvString::~CvString, COMDAT
; _this$ = ecx

; 28   : 	~CvString() {}

	jmp	DWORD PTR __imp_??1?$basic_string@DU?$char_traits@D@std@@V?$allocator@D@2@@std@@QAE@XZ
??1CvString@@QAE@XZ ENDP				; CvString::~CvString
_TEXT	ENDS
PUBLIC	??0CvWorldBuilderMapLoaderMapInfo@@QAE@XZ	; CvWorldBuilderMapLoaderMapInfo::CvWorldBuilderMapLoaderMapInfo
; Function compile flags: /Ogtpy
; File c:\users\enormousapplepie\documents\github\lekmod\lekmod_dll\cvgamecoredllutil\include\cvstructs.h
;	COMDAT ??0CvWorldBuilderMapLoaderMapInfo@@QAE@XZ
_TEXT	SEGMENT
??0CvWorldBuilderMapLoaderMapInfo@@QAE@XZ PROC		; CvWorldBuilderMapLoaderMapInfo::CvWorldBuilderMapLoaderMapInfo, COMDAT
; _this$ = ecx

; 170  : 	{

	mov	eax, ecx
	xor	ecx, ecx
	mov	DWORD PTR [eax], ecx
	mov	DWORD PTR [eax+4], ecx
	mov	DWORD PTR [eax+8], ecx
	mov	DWORD PTR [eax+12], ecx
	mov	DWORD PTR [eax+16], ecx
	mov	DWORD PTR [eax+20], ecx
	mov	BYTE PTR [eax+24], cl
	mov	BYTE PTR [eax+25], cl

; 171  : 
; 172  : 	}

	ret	0
??0CvWorldBuilderMapLoaderMapInfo@@QAE@XZ ENDP		; CvWorldBuilderMapLoaderMapInfo::CvWorldBuilderMapLoaderMapInfo
_TEXT	ENDS
PUBLIC	?GetID@CvBaseInfo@@QBEHXZ			; CvBaseInfo::GetID
; Function compile flags: /Ogtpy
; File c:\users\enormousapplepie\documents\github\lekmod\lekmod_dll\cvgamecoredll_expansion2\cvinfos.h
;	COMDAT ?GetID@CvBaseInfo@@QBEHXZ
_TEXT	SEGMENT
?GetID@CvBaseInfo@@QBEHXZ PROC				; CvBaseInfo::GetID, COMDAT
; _this$ = ecx

; 54   : 		return m_iID;

	mov	eax, DWORD PTR [ecx+4]

; 55   : 	}

	ret	0
?GetID@CvBaseInfo@@QBEHXZ ENDP				; CvBaseInfo::GetID
_TEXT	ENDS
PUBLIC	?GetType@CvBaseInfo@@QBEPBDXZ			; CvBaseInfo::GetType
; Function compile flags: /Ogtpy
;	COMDAT ?GetType@CvBaseInfo@@QBEPBDXZ
_TEXT	SEGMENT
?GetType@CvBaseInfo@@QBEPBDXZ PROC			; CvBaseInfo::GetType, COMDAT
; _this$ = ecx

; 92   : 		return m_strType.c_str();

	add	ecx, 176				; 000000b0H
	jmp	DWORD PTR __imp_?c_str@?$basic_string@DU?$char_traits@D@std@@V?$allocator@D@2@@std@@QBEPBDXZ
?GetType@CvBaseInfo@@QBEPBDXZ ENDP			; CvBaseInfo::GetType
_TEXT	ENDS
PUBLIC	?getMap@CvGlobals@@QAEAAVCvMap@@XZ		; CvGlobals::getMap
; Function compile flags: /Ogtpy
; File c:\users\enormousapplepie\documents\github\lekmod\lekmod_dll\cvgamecoredll_expansion2\cvglobals.h
;	COMDAT ?getMap@CvGlobals@@QAEAAVCvMap@@XZ
_TEXT	SEGMENT
?getMap@CvGlobals@@QAEAAVCvMap@@XZ PROC			; CvGlobals::getMap, COMDAT
; _this$ = ecx

; 175  : 		return *m_map;    // inlined for perf reasons, do not use outside of dll

	mov	eax, DWORD PTR [ecx+52]

; 176  : 	}

	ret	0
?getMap@CvGlobals@@QAEAAVCvMap@@XZ ENDP			; CvGlobals::getMap
_TEXT	ENDS
PUBLIC	?getGame@CvGlobals@@QAEAAVCvGame@@XZ		; CvGlobals::getGame
; Function compile flags: /Ogtpy
;	COMDAT ?getGame@CvGlobals@@QAEAAVCvGame@@XZ
_TEXT	SEGMENT
?getGame@CvGlobals@@QAEAAVCvGame@@XZ PROC		; CvGlobals::getGame, COMDAT
; _this$ = ecx

; 183  : 		return *m_game;    // inlined for perf reasons, do not use outside of dll

	mov	eax, DWORD PTR [ecx+48]

; 184  : 	}

	ret	0
?getGame@CvGlobals@@QAEAAVCvGame@@XZ ENDP		; CvGlobals::getGame
_TEXT	ENDS
PUBLIC	?getSHALLOW_WATER_TERRAIN@CvGlobals@@QAEHXZ	; CvGlobals::getSHALLOW_WATER_TERRAIN
; Function compile flags: /Ogtpy
;	COMDAT ?getSHALLOW_WATER_TERRAIN@CvGlobals@@QAEHXZ
_TEXT	SEGMENT
?getSHALLOW_WATER_TERRAIN@CvGlobals@@QAEHXZ PROC	; CvGlobals::getSHALLOW_WATER_TERRAIN, COMDAT
; _this$ = ecx

; 7179 : 		return m_iSHALLOW_WATER_TERRAIN;

	mov	eax, DWORD PTR [ecx+8396]

; 7180 : 	}

	ret	0
?getSHALLOW_WATER_TERRAIN@CvGlobals@@QAEHXZ ENDP	; CvGlobals::getSHALLOW_WATER_TERRAIN
_TEXT	ENDS
PUBLIC	?getSTANDARD_HANDICAP@CvGlobals@@QAEHXZ		; CvGlobals::getSTANDARD_HANDICAP
; Function compile flags: /Ogtpy
;	COMDAT ?getSTANDARD_HANDICAP@CvGlobals@@QAEHXZ
_TEXT	SEGMENT
?getSTANDARD_HANDICAP@CvGlobals@@QAEHXZ PROC		; CvGlobals::getSTANDARD_HANDICAP, COMDAT
; _this$ = ecx

; 7235 : 		return m_iSTANDARD_HANDICAP;

	mov	eax, DWORD PTR [ecx+8452]

; 7236 : 	}

	ret	0
?getSTANDARD_HANDICAP@CvGlobals@@QAEHXZ ENDP		; CvGlobals::getSTANDARD_HANDICAP
_TEXT	ENDS
PUBLIC	?getSTANDARD_GAMESPEED@CvGlobals@@QAEHXZ	; CvGlobals::getSTANDARD_GAMESPEED
; Function compile flags: /Ogtpy
;	COMDAT ?getSTANDARD_GAMESPEED@CvGlobals@@QAEHXZ
_TEXT	SEGMENT
?getSTANDARD_GAMESPEED@CvGlobals@@QAEHXZ PROC		; CvGlobals::getSTANDARD_GAMESPEED, COMDAT
; _this$ = ecx

; 7247 : 		return m_iSTANDARD_GAMESPEED;

	mov	eax, DWORD PTR [ecx+8464]

; 7248 : 	}

	ret	0
?getSTANDARD_GAMESPEED@CvGlobals@@QAEHXZ ENDP		; CvGlobals::getSTANDARD_GAMESPEED
_TEXT	ENDS
PUBLIC	?getDLLIFace@CvGlobals@@QAEPAVICvEngineUtility4@@XZ ; CvGlobals::getDLLIFace
; Function compile flags: /Ogtpy
;	COMDAT ?getDLLIFace@CvGlobals@@QAEPAVICvEngineUtility4@@XZ
_TEXT	SEGMENT
?getDLLIFace@CvGlobals@@QAEPAVICvEngineUtility4@@XZ PROC ; CvGlobals::getDLLIFace, COMDAT
; _this$ = ecx

; 7703 : 		return m_pDLL;

	mov	eax, DWORD PTR [ecx+8564]

; 7704 : 	}

	ret	0
?getDLLIFace@CvGlobals@@QAEPAVICvEngineUtility4@@XZ ENDP ; CvGlobals::getDLLIFace
_TEXT	ENDS
PUBLIC	?GetGameDatabase@CvGlobals@@QAEPAVConnection@Database@@XZ ; CvGlobals::GetGameDatabase
; Function compile flags: /Ogtpy
;	COMDAT ?GetGameDatabase@CvGlobals@@QAEPAVConnection@Database@@XZ
_TEXT	SEGMENT
?GetGameDatabase@CvGlobals@@QAEPAVConnection@Database@@XZ PROC ; CvGlobals::GetGameDatabase, COMDAT
; _this$ = ecx

; 9745 : 	return m_pGameDatabase;

	mov	eax, DWORD PTR [ecx+912]

; 9746 : }

	ret	0
?GetGameDatabase@CvGlobals@@QAEPAVConnection@Database@@XZ ENDP ; CvGlobals::GetGameDatabase
_TEXT	ENDS
PUBLIC	?getPlayer@CvPlayerAI@@SAAAV1@W4PlayerTypes@@@Z	; CvPlayerAI::getPlayer
EXTRN	?m_aPlayers@CvPlayerAI@@1PAV1@A:DWORD		; CvPlayerAI::m_aPlayers
; Function compile flags: /Ogtpy
; File c:\users\enormousapplepie\documents\github\lekmod\lekmod_dll\cvgamecoredll_expansion2\cvplayerai.h
;	COMDAT ?getPlayer@CvPlayerAI@@SAAAV1@W4PlayerTypes@@@Z
_TEXT	SEGMENT
_ePlayer$ = 8						; size = 4
?getPlayer@CvPlayerAI@@SAAAV1@W4PlayerTypes@@@Z PROC	; CvPlayerAI::getPlayer, COMDAT

; 28   : 		CvAssertMsg(ePlayer != NO_PLAYER, "Player is not assigned a valid value");
; 29   : 		CvAssertMsg(ePlayer < MAX_PLAYERS, "Player is not assigned a valid value");
; 30   : 		return m_aPlayers[ePlayer];

	mov	eax, DWORD PTR _ePlayer$[esp-4]
	imul	eax, 63236				; 0000f704H
	add	eax, DWORD PTR ?m_aPlayers@CvPlayerAI@@1PAV1@A ; CvPlayerAI::m_aPlayers

; 31   : 	}

	ret	0
?getPlayer@CvPlayerAI@@SAAAV1@W4PlayerTypes@@@Z ENDP	; CvPlayerAI::getPlayer
_TEXT	ENDS
PUBLIC	?getX@CvPlot@@QBEHXZ				; CvPlot::getX
; Function compile flags: /Ogtpy
; File c:\users\enormousapplepie\documents\github\lekmod\lekmod_dll\cvgamecoredll_expansion2\cvplot.h
;	COMDAT ?getX@CvPlot@@QBEHXZ
_TEXT	SEGMENT
?getX@CvPlot@@QBEHXZ PROC				; CvPlot::getX, COMDAT
; _this$ = ecx

; 307  : 		return m_iX;

	movsx	eax, WORD PTR [ecx]

; 308  : 	}

	ret	0
?getX@CvPlot@@QBEHXZ ENDP				; CvPlot::getX
_TEXT	ENDS
PUBLIC	?getY@CvPlot@@QBEHXZ				; CvPlot::getY
; Function compile flags: /Ogtpy
;	COMDAT ?getY@CvPlot@@QBEHXZ
_TEXT	SEGMENT
?getY@CvPlot@@QBEHXZ PROC				; CvPlot::getY, COMDAT
; _this$ = ecx

; 312  : 		return m_iY;

	movsx	eax, WORD PTR [ecx+2]

; 313  : 	}

	ret	0
?getY@CvPlot@@QBEHXZ ENDP				; CvPlot::getY
_TEXT	ENDS
PUBLIC	?getPlotType@CvPlot@@QBE?AW4PlotTypes@@XZ	; CvPlot::getPlotType
; Function compile flags: /Ogtpy
;	COMDAT ?getPlotType@CvPlot@@QBE?AW4PlotTypes@@XZ
_TEXT	SEGMENT
?getPlotType@CvPlot@@QBE?AW4PlotTypes@@XZ PROC		; CvPlot::getPlotType, COMDAT
; _this$ = ecx

; 405  : 		return (PlotTypes)m_ePlotType;

	movsx	eax, BYTE PTR [ecx+5]

; 406  : 	}

	ret	0
?getPlotType@CvPlot@@QBE?AW4PlotTypes@@XZ ENDP		; CvPlot::getPlotType
_TEXT	ENDS
PUBLIC	?getTerrainType@CvPlot@@QBE?AW4TerrainTypes@@XZ	; CvPlot::getTerrainType
; Function compile flags: /Ogtpy
;	COMDAT ?getTerrainType@CvPlot@@QBE?AW4TerrainTypes@@XZ
_TEXT	SEGMENT
?getTerrainType@CvPlot@@QBE?AW4TerrainTypes@@XZ PROC	; CvPlot::getTerrainType, COMDAT
; _this$ = ecx

; 431  : 		return (TerrainTypes)m_eTerrainType;

	movsx	eax, BYTE PTR [ecx+6]

; 432  : 	}

	ret	0
?getTerrainType@CvPlot@@QBE?AW4TerrainTypes@@XZ ENDP	; CvPlot::getTerrainType
_TEXT	ENDS
PUBLIC	?getPlotCity@CvPlot@@QBEPAVCvCity@@XZ		; CvPlot::getPlotCity
EXTRN	?getCity@CvPlayer@@QAEPAVCvCity@@H@Z:PROC	; CvPlayer::getCity
; Function compile flags: /Ogtpy
;	COMDAT ?getPlotCity@CvPlot@@QBEPAVCvCity@@XZ
_TEXT	SEGMENT
?getPlotCity@CvPlot@@QBEPAVCvCity@@XZ PROC		; CvPlot::getPlotCity, COMDAT
; _this$ = ecx

; 533  : 		if((m_plotCity.eOwner >= 0) && m_plotCity.eOwner < MAX_PLAYERS)

	mov	eax, DWORD PTR [ecx+104]
	test	eax, eax
	jl	SHORT $LN1@getPlotCit
	cmp	eax, 64					; 00000040H
	jge	SHORT $LN1@getPlotCit

; 534  : 			return (GET_PLAYER((PlayerTypes)m_plotCity.eOwner).getCity(m_plotCity.iID));

	mov	ecx, DWORD PTR [ecx+108]
	imul	eax, 63236				; 0000f704H
	add	eax, DWORD PTR ?m_aPlayers@CvPlayerAI@@1PAV1@A ; CvPlayerAI::m_aPlayers
	push	ecx
	mov	ecx, eax
	call	?getCity@CvPlayer@@QAEPAVCvCity@@H@Z	; CvPlayer::getCity

; 537  : 	}

	ret	0
$LN1@getPlotCit:

; 535  : 
; 536  : 		return NULL;

	xor	eax, eax

; 537  : 	}

	ret	0
?getPlotCity@CvPlot@@QBEPAVCvCity@@XZ ENDP		; CvPlot::getPlotCity
_TEXT	ENDS
PUBLIC	?coordRange@@YAHHH_N@Z				; coordRange
; Function compile flags: /Ogtpy
; File c:\users\enormousapplepie\documents\github\lekmod\lekmod_dll\cvgamecoredll_expansion2\cvmap.h
;	COMDAT ?coordRange@@YAHHH_N@Z
_TEXT	SEGMENT
_iCoord$ = 8						; size = 4
_iRange$ = 12						; size = 4
_bWrap$ = 16						; size = 1
?coordRange@@YAHHH_N@Z PROC				; coordRange, COMDAT

; 88   : 	if(bWrap)

	cmp	BYTE PTR _bWrap$[esp-4], 0
	mov	eax, DWORD PTR _iCoord$[esp-4]
	je	SHORT $LN5@coordRange

; 89   : 	{
; 90   : 		if(iCoord < 0)
; 91   : 		{
; 92   : 			return (iRange + (iCoord % iRange));

	mov	ecx, DWORD PTR _iRange$[esp-4]
	test	eax, eax
	jge	SHORT $LN3@coordRange
	cdq
	idiv	ecx
	mov	eax, edx
	add	eax, ecx

; 97   : 		}
; 98   : 	}
; 99   : 
; 100  : 	return iCoord;
; 101  : }

	ret	0
$LN3@coordRange:

; 93   : 		}
; 94   : 		else if(iCoord >= iRange)

	cmp	eax, ecx
	jl	SHORT $LN5@coordRange

; 95   : 		{
; 96   : 			return (iCoord % iRange);

	cdq
	idiv	ecx
	mov	eax, edx
$LN5@coordRange:

; 97   : 		}
; 98   : 	}
; 99   : 
; 100  : 	return iCoord;
; 101  : }

	ret	0
?coordRange@@YAHHH_N@Z ENDP				; coordRange
_TEXT	ENDS
PUBLIC	?numPlots@CvMap@@QBEHXZ				; CvMap::numPlots
; Function compile flags: /Ogtpy
;	COMDAT ?numPlots@CvMap@@QBEHXZ
_TEXT	SEGMENT
?numPlots@CvMap@@QBEHXZ PROC				; CvMap::numPlots, COMDAT
; _this$ = ecx

; 170  : 		return m_iGridSize;

	mov	eax, DWORD PTR [ecx+4028]

; 171  : 	}

	ret	0
?numPlots@CvMap@@QBEHXZ ENDP				; CvMap::numPlots
_TEXT	ENDS
PUBLIC	?getGridWidth@CvMap@@QBEHXZ			; CvMap::getGridWidth
; Function compile flags: /Ogtpy
;	COMDAT ?getGridWidth@CvMap@@QBEHXZ
_TEXT	SEGMENT
?getGridWidth@CvMap@@QBEHXZ PROC			; CvMap::getGridWidth, COMDAT
; _this$ = ecx

; 198  : 		return m_iGridWidth;

	mov	eax, DWORD PTR [ecx+4020]

; 199  : 	}

	ret	0
?getGridWidth@CvMap@@QBEHXZ ENDP			; CvMap::getGridWidth
_TEXT	ENDS
PUBLIC	?getGridHeight@CvMap@@QBEHXZ			; CvMap::getGridHeight
; Function compile flags: /Ogtpy
;	COMDAT ?getGridHeight@CvMap@@QBEHXZ
_TEXT	SEGMENT
?getGridHeight@CvMap@@QBEHXZ PROC			; CvMap::getGridHeight, COMDAT
; _this$ = ecx

; 206  : 		return m_iGridHeight;

	mov	eax, DWORD PTR [ecx+4024]

; 207  : 	}

	ret	0
?getGridHeight@CvMap@@QBEHXZ ENDP			; CvMap::getGridHeight
_TEXT	ENDS
PUBLIC	?isWrapX@CvMap@@QBE_NXZ				; CvMap::isWrapX
; Function compile flags: /Ogtpy
;	COMDAT ?isWrapX@CvMap@@QBE_NXZ
_TEXT	SEGMENT
?isWrapX@CvMap@@QBE_NXZ PROC				; CvMap::isWrapX, COMDAT
; _this$ = ecx

; 228  : 		return m_bWrapX;

	mov	al, BYTE PTR [ecx+4056]

; 229  : 	}

	ret	0
?isWrapX@CvMap@@QBE_NXZ ENDP				; CvMap::isWrapX
_TEXT	ENDS
PUBLIC	?isWrapY@CvMap@@QBE_NXZ				; CvMap::isWrapY
; Function compile flags: /Ogtpy
;	COMDAT ?isWrapY@CvMap@@QBE_NXZ
_TEXT	SEGMENT
?isWrapY@CvMap@@QBE_NXZ PROC				; CvMap::isWrapY, COMDAT
; _this$ = ecx

; 233  : 		return m_bWrapY;

	mov	al, BYTE PTR [ecx+4057]

; 234  : 	}

	ret	0
?isWrapY@CvMap@@QBE_NXZ ENDP				; CvMap::isWrapY
_TEXT	ENDS
PUBLIC	?plotByIndex@CvMap@@QBEPAVCvPlot@@H@Z		; CvMap::plotByIndex
; Function compile flags: /Ogtpy
;	COMDAT ?plotByIndex@CvMap@@QBEPAVCvPlot@@H@Z
_TEXT	SEGMENT
_iIndex$ = 8						; size = 4
?plotByIndex@CvMap@@QBEPAVCvPlot@@H@Z PROC		; CvMap::plotByIndex, COMDAT
; _this$ = ecx

; 263  : 		return (((iIndex >= 0) && (iIndex < (numPlots()))) ? &(m_pMapPlots[iIndex]) : NULL);

	mov	eax, DWORD PTR _iIndex$[esp-4]
	test	eax, eax
	jl	SHORT $LN3@plotByInde
	cmp	eax, DWORD PTR [ecx+4028]
	jge	SHORT $LN3@plotByInde
	imul	eax, 484				; 000001e4H
	add	eax, DWORD PTR [ecx+4068]

; 264  : 	}

	ret	4
$LN3@plotByInde:

; 263  : 		return (((iIndex >= 0) && (iIndex < (numPlots()))) ? &(m_pMapPlots[iIndex]) : NULL);

	xor	eax, eax

; 264  : 	}

	ret	4
?plotByIndex@CvMap@@QBEPAVCvPlot@@H@Z ENDP		; CvMap::plotByIndex
_TEXT	ENDS
PUBLIC	?getTeam@CvTeam@@SAAAV1@W4TeamTypes@@@Z		; CvTeam::getTeam
EXTRN	?m_aTeams@CvTeam@@1PAV1@A:DWORD			; CvTeam::m_aTeams
; Function compile flags: /Ogtpy
; File c:\users\enormousapplepie\documents\github\lekmod\lekmod_dll\cvgamecoredll_expansion2\cvteam.h
;	COMDAT ?getTeam@CvTeam@@SAAAV1@W4TeamTypes@@@Z
_TEXT	SEGMENT
_eTeam$ = 8						; size = 4
?getTeam@CvTeam@@SAAAV1@W4TeamTypes@@@Z PROC		; CvTeam::getTeam, COMDAT

; 29   : 		CvAssertMsg(eTeam != NO_TEAM, "eTeam is not assigned a valid value");
; 30   : 		CvAssertMsg(eTeam < MAX_TEAMS, "eTeam is not assigned a valid value");
; 31   : 		return m_aTeams[eTeam];

	mov	eax, DWORD PTR _eTeam$[esp-4]
	imul	eax, 2980				; 00000ba4H
	add	eax, DWORD PTR ?m_aTeams@CvTeam@@1PAV1@A ; CvTeam::m_aTeams

; 32   : 	}

	ret	0
?getTeam@CvTeam@@SAAAV1@W4TeamTypes@@@Z ENDP		; CvTeam::getTeam
_TEXT	ENDS
PUBLIC	??A?$vector@W4TeamTypes@@V?$allocator@W4TeamTypes@@@std@@@std@@QBEABW4TeamTypes@@I@Z ; std::vector<enum TeamTypes,std::allocator<enum TeamTypes> >::operator[]
; Function compile flags: /Ogtpy
; File c:\program files (x86)\microsoft visual studio 9.0\vc\include\vector
;	COMDAT ??A?$vector@W4TeamTypes@@V?$allocator@W4TeamTypes@@@std@@@std@@QBEABW4TeamTypes@@I@Z
_TEXT	SEGMENT
__Pos$ = 8						; size = 4
??A?$vector@W4TeamTypes@@V?$allocator@W4TeamTypes@@@std@@@std@@QBEABW4TeamTypes@@I@Z PROC ; std::vector<enum TeamTypes,std::allocator<enum TeamTypes> >::operator[], COMDAT
; _this$ = ecx

; 760  : 
; 761  :  #if _HAS_ITERATOR_DEBUGGING
; 762  : 		if (size() <= _Pos)
; 763  : 			{
; 764  : 			_DEBUG_ERROR("vector subscript out of range");
; 765  : 			_SCL_SECURE_OUT_OF_RANGE;
; 766  : 			}
; 767  :  #endif /* _HAS_ITERATOR_DEBUGGING */
; 768  : 		_SCL_SECURE_VALIDATE_RANGE(_Pos < size());
; 769  : 
; 770  : 		return (*(_Myfirst + _Pos));

	mov	eax, DWORD PTR [ecx+4]
	mov	ecx, DWORD PTR __Pos$[esp-4]
	lea	eax, DWORD PTR [eax+ecx*4]

; 771  : 		}

	ret	4
??A?$vector@W4TeamTypes@@V?$allocator@W4TeamTypes@@@std@@@std@@QBEABW4TeamTypes@@I@Z ENDP ; std::vector<enum TeamTypes,std::allocator<enum TeamTypes> >::operator[]
_TEXT	ENDS
PUBLIC	??B?$FAutoVariable@HVCvUnit@@@@QBEABHXZ		; FAutoVariable<int,CvUnit>::operator int const &
; Function compile flags: /Ogtpy
; File c:\users\enormousapplepie\documents\github\lekmod\lekmod_dll\fireplace\include\fireworks\fautovariable.h
;	COMDAT ??B?$FAutoVariable@HVCvUnit@@@@QBEABHXZ
_TEXT	SEGMENT
??B?$FAutoVariable@HVCvUnit@@@@QBEABHXZ PROC		; FAutoVariable<int,CvUnit>::operator int const &, COMDAT
; _this$ = ecx

; 194  : 	return m_value;

	lea	eax, DWORD PTR [ecx+4]

; 195  : }

	ret	0
??B?$FAutoVariable@HVCvUnit@@@@QBEABHXZ ENDP		; FAutoVariable<int,CvUnit>::operator int const &
_TEXT	ENDS
PUBLIC	??B?$FAutoVariable@W4PlayerTypes@@VCvCity@@@@QBEABW4PlayerTypes@@XZ ; FAutoVariable<enum PlayerTypes,CvCity>::operator enum PlayerTypes const &
; Function compile flags: /Ogtpy
;	COMDAT ??B?$FAutoVariable@W4PlayerTypes@@VCvCity@@@@QBEABW4PlayerTypes@@XZ
_TEXT	SEGMENT
??B?$FAutoVariable@W4PlayerTypes@@VCvCity@@@@QBEABW4PlayerTypes@@XZ PROC ; FAutoVariable<enum PlayerTypes,CvCity>::operator enum PlayerTypes const &, COMDAT
; _this$ = ecx

; 194  : 	return m_value;

	lea	eax, DWORD PTR [ecx+4]

; 195  : }

	ret	0
??B?$FAutoVariable@W4PlayerTypes@@VCvCity@@@@QBEABW4PlayerTypes@@XZ ENDP ; FAutoVariable<enum PlayerTypes,CvCity>::operator enum PlayerTypes const &
_TEXT	ENDS
PUBLIC	??B?$FAutoVariable@HVCvCity@@@@QBEABHXZ		; FAutoVariable<int,CvCity>::operator int const &
; Function compile flags: /Ogtpy
;	COMDAT ??B?$FAutoVariable@HVCvCity@@@@QBEABHXZ
_TEXT	SEGMENT
??B?$FAutoVariable@HVCvCity@@@@QBEABHXZ PROC		; FAutoVariable<int,CvCity>::operator int const &, COMDAT
; _this$ = ecx

; 194  : 	return m_value;

	lea	eax, DWORD PTR [ecx+4]

; 195  : }

	ret	0
??B?$FAutoVariable@HVCvCity@@@@QBEABHXZ ENDP		; FAutoVariable<int,CvCity>::operator int const &
_TEXT	ENDS
PUBLIC	??B?$FAutoVariable@W4PlayerTypes@@VCvPlayer@@@@QBEABW4PlayerTypes@@XZ ; FAutoVariable<enum PlayerTypes,CvPlayer>::operator enum PlayerTypes const &
; Function compile flags: /Ogtpy
;	COMDAT ??B?$FAutoVariable@W4PlayerTypes@@VCvPlayer@@@@QBEABW4PlayerTypes@@XZ
_TEXT	SEGMENT
??B?$FAutoVariable@W4PlayerTypes@@VCvPlayer@@@@QBEABW4PlayerTypes@@XZ PROC ; FAutoVariable<enum PlayerTypes,CvPlayer>::operator enum PlayerTypes const &, COMDAT
; _this$ = ecx

; 194  : 	return m_value;

	lea	eax, DWORD PTR [ecx+4]

; 195  : }

	ret	0
??B?$FAutoVariable@W4PlayerTypes@@VCvPlayer@@@@QBEABW4PlayerTypes@@XZ ENDP ; FAutoVariable<enum PlayerTypes,CvPlayer>::operator enum PlayerTypes const &
_TEXT	ENDS
PUBLIC	??B?$FAutoVariable@_NVCvPlayer@@@@QBEAB_NXZ	; FAutoVariable<bool,CvPlayer>::operator bool const &
; Function compile flags: /Ogtpy
;	COMDAT ??B?$FAutoVariable@_NVCvPlayer@@@@QBEAB_NXZ
_TEXT	SEGMENT
??B?$FAutoVariable@_NVCvPlayer@@@@QBEAB_NXZ PROC	; FAutoVariable<bool,CvPlayer>::operator bool const &, COMDAT
; _this$ = ecx

; 194  : 	return m_value;

	lea	eax, DWORD PTR [ecx+4]

; 195  : }

	ret	0
??B?$FAutoVariable@_NVCvPlayer@@@@QBEAB_NXZ ENDP	; FAutoVariable<bool,CvPlayer>::operator bool const &
_TEXT	ENDS
PUBLIC	??B?$FAutoVariable@DVCvPlot@@@@QBEABDXZ		; FAutoVariable<char,CvPlot>::operator char const &
; Function compile flags: /Ogtpy
;	COMDAT ??B?$FAutoVariable@DVCvPlot@@@@QBEABDXZ
_TEXT	SEGMENT
??B?$FAutoVariable@DVCvPlot@@@@QBEABDXZ PROC		; FAutoVariable<char,CvPlot>::operator char const &, COMDAT
; _this$ = ecx

; 194  : 	return m_value;

	lea	eax, DWORD PTR [ecx+4]

; 195  : }

	ret	0
??B?$FAutoVariable@DVCvPlot@@@@QBEABDXZ ENDP		; FAutoVariable<char,CvPlot>::operator char const &
_TEXT	ENDS
PUBLIC	?GetVisibility@CvWorldBuilderMap@@QBE?B_NIII@Z	; CvWorldBuilderMap::GetVisibility
; Function compile flags: /Ogtpy
; File c:\users\enormousapplepie\documents\github\lekmod\lekmod_dll\cvworldbuildermap\include\cvworldbuildermap.h
;	COMDAT ?GetVisibility@CvWorldBuilderMap@@QBE?B_NIII@Z
_TEXT	SEGMENT
_uiX$ = 8						; size = 4
_uiY$ = 12						; size = 4
_uiTeam$ = 16						; size = 4
?GetVisibility@CvWorldBuilderMap@@QBE?B_NIII@Z PROC	; CvWorldBuilderMap::GetVisibility, COMDAT
; _this$ = ecx

; 665  : 	{

	push	esi
	mov	esi, ecx

; 666  : 		FAssertMsg(uiX < m_kMapDesc.uiWidth && uiY < m_kMapDesc.uiHeight, "Invalid Position");
; 667  : 		FAssertMsg(uiTeam < m_kGameDesc.byTeamCount, "Invalid Team");
; 668  : 		const uint uiMapSize = m_kMapDesc.uiWidth * m_kMapDesc.uiHeight;
; 669  : 		return m_kVisibility.Get(uiX + uiY * m_kMapDesc.uiWidth + uiTeam * uiMapSize);

	mov	ecx, DWORD PTR [esi+12232]
	imul	ecx, DWORD PTR _uiTeam$[esp]
	add	ecx, DWORD PTR _uiY$[esp]
	imul	ecx, DWORD PTR [esi+12228]
	add	ecx, DWORD PTR _uiX$[esp]
	mov	eax, ecx
	shr	eax, 3
	cmp	eax, 393216				; 00060000H
	jae	SHORT $LN4@GetVisibil
	and	ecx, 7
	mov	dl, 1
	shl	dl, cl
	test	dl, BYTE PTR [eax+esi+584672]
	pop	esi
	setne	al

; 670  : 	}

	ret	12					; 0000000cH

; 666  : 		FAssertMsg(uiX < m_kMapDesc.uiWidth && uiY < m_kMapDesc.uiHeight, "Invalid Position");
; 667  : 		FAssertMsg(uiTeam < m_kGameDesc.byTeamCount, "Invalid Team");
; 668  : 		const uint uiMapSize = m_kMapDesc.uiWidth * m_kMapDesc.uiHeight;
; 669  : 		return m_kVisibility.Get(uiX + uiY * m_kMapDesc.uiWidth + uiTeam * uiMapSize);

$LN4@GetVisibil:
	xor	al, al
	pop	esi

; 670  : 	}

	ret	12					; 0000000cH
?GetVisibility@CvWorldBuilderMap@@QBE?B_NIII@Z ENDP	; CvWorldBuilderMap::GetVisibility
_TEXT	ENDS
PUBLIC	?SetupGameOptions@CvWorldBuilderMapLoader@@SAXXZ ; CvWorldBuilderMapLoader::SetupGameOptions
EXTRN	?setGameSpeed@CvPreGame@@YAXABVCvString@@@Z:PROC ; CvPreGame::setGameSpeed
EXTRN	?setStartYear@CvGame@@QAEXH@Z:PROC		; CvGame::setStartYear
EXTRN	?setMaxTurns@CvPreGame@@YAXH@Z:PROC		; CvPreGame::setMaxTurns
EXTRN	?setVictoryValid@CvGame@@QAEXW4VictoryTypes@@_N@Z:PROC ; CvGame::setVictoryValid
EXTRN	?getVictoryInfo@CvGlobals@@QAEPAVCvVictoryInfo@@W4VictoryTypes@@@Z:PROC ; CvGlobals::getVictoryInfo
EXTRN	?getNumVictoryInfos@CvGlobals@@QAEHXZ:PROC	; CvGlobals::getNumVictoryInfos
EXTRN	?setOption@CvGame@@QAEXPBD_N@Z:PROC		; CvGame::setOption
EXTRN	?Contains@CvWorldBuilderMapTypeGroup@@QBE_NPBD@Z:PROC ; CvWorldBuilderMapTypeGroup::Contains
EXTRN	?getGameOptionInfo@CvGlobals@@QAEPAVCvGameOptionInfo@@W4GameOptionTypes@@@Z:PROC ; CvGlobals::getGameOptionInfo
EXTRN	?getNumGameOptionInfos@CvGlobals@@QAEHXZ:PROC	; CvGlobals::getNumGameOptionInfos
;	COMDAT xdata$x
; File c:\users\enormousapplepie\documents\github\lekmod\lekmod_dll\cvgamecoredllutil\include\cvstring.h
xdata$x	SEGMENT
__unwindtable$?SetupGameOptions@CvWorldBuilderMapLoader@@SAXXZ DD 0ffffffffH
	DD	FLAT:__unwindfunclet$?SetupGameOptions@CvWorldBuilderMapLoader@@SAXXZ$0
__ehfuncinfo$?SetupGameOptions@CvWorldBuilderMapLoader@@SAXXZ DD 019930522H
	DD	01H
	DD	FLAT:__unwindtable$?SetupGameOptions@CvWorldBuilderMapLoader@@SAXXZ
	DD	2 DUP(00H)
	DD	2 DUP(00H)
	DD	00H
	DD	01H
; Function compile flags: /Ogtpy
; File c:\users\enormousapplepie\documents\github\lekmod\lekmod_dll\cvgamecoredll_expansion2\cvworldbuildermaploader.cpp
xdata$x	ENDS
;	COMDAT ?SetupGameOptions@CvWorldBuilderMapLoader@@SAXXZ
_TEXT	SEGMENT
_bValid$224285 = -44					; size = 1
_bEnabled$224274 = -44					; size = 1
$T227550 = -40						; size = 28
__$EHRec$ = -12						; size = 12
?SetupGameOptions@CvWorldBuilderMapLoader@@SAXXZ PROC	; CvWorldBuilderMapLoader::SetupGameOptions, COMDAT

; 275  : {

	mov	eax, DWORD PTR fs:0
	push	-1
	push	__ehhandler$?SetupGameOptions@CvWorldBuilderMapLoader@@SAXXZ
	push	eax
	mov	DWORD PTR fs:0, esp
	sub	esp, 32					; 00000020H
	push	ebx
	push	esi
	push	edi

; 276  : 	const int iGameOptionCount = GC.getNumGameOptionInfos();

	mov	ecx, OFFSET ?gGlobals@@3VCvGlobals@@A	; gGlobals
	call	?getNumGameOptionInfos@CvGlobals@@QAEHXZ ; CvGlobals::getNumGameOptionInfos
	mov	ebx, eax

; 277  : 	for(int i = 0; i < iGameOptionCount; ++i)

	xor	esi, esi
	test	ebx, ebx
	jle	SHORT $LN6@SetupGameO
	npad	3
$LL8@SetupGameO:

; 278  : 	{
; 279  : 		const GameOptionTypes eOption = (GameOptionTypes)i;
; 280  : 		const CvGameOptionInfo* pkOption = GC.getGameOptionInfo(eOption);

	push	esi
	mov	ecx, OFFSET ?gGlobals@@3VCvGlobals@@A	; gGlobals
	call	?getGameOptionInfo@CvGlobals@@QAEPAVCvGameOptionInfo@@W4GameOptionTypes@@@Z ; CvGlobals::getGameOptionInfo

; 281  : 		if(pkOption != NULL)

	test	eax, eax
	je	SHORT $LN7@SetupGameO

; 282  : 		{
; 283  : 			const char* szOption = pkOption->GetType();

	lea	ecx, DWORD PTR [eax+176]
	call	DWORD PTR __imp_?c_str@?$basic_string@DU?$char_traits@D@std@@V?$allocator@D@2@@std@@QBEPBDXZ
	mov	edi, eax

; 284  : 			const bool bEnabled = sg_kSave.m_kGameOptions.Contains(szOption);

	push	edi
	mov	ecx, OFFSET _sg_kSave+4024
	call	?Contains@CvWorldBuilderMapTypeGroup@@QBE_NPBD@Z ; CvWorldBuilderMapTypeGroup::Contains

; 285  : 			GC.getGame().setOption(szOption, bEnabled);

	mov	ecx, DWORD PTR ?gGlobals@@3VCvGlobals@@A+48
	mov	BYTE PTR _bEnabled$224274[esp+56], al
	mov	eax, DWORD PTR _bEnabled$224274[esp+56]
	push	eax
	push	edi
	call	?setOption@CvGame@@QAEXPBD_N@Z		; CvGame::setOption
$LN7@SetupGameO:
	inc	esi
	cmp	esi, ebx
	jl	SHORT $LL8@SetupGameO
$LN6@SetupGameO:

; 286  : 		}
; 287  : 	}
; 288  : 
; 289  : 	const int iVictoryTypeCount = GC.getNumVictoryInfos();

	mov	ecx, OFFSET ?gGlobals@@3VCvGlobals@@A	; gGlobals
	call	?getNumVictoryInfos@CvGlobals@@QAEHXZ	; CvGlobals::getNumVictoryInfos
	mov	edi, eax

; 290  : 	for(int i = 0; i < iVictoryTypeCount; ++i)

	xor	esi, esi
	test	edi, edi
	jle	SHORT $LN2@SetupGameO
$LL4@SetupGameO:

; 291  : 	{
; 292  : 		const VictoryTypes eVictoryType = (VictoryTypes)i;
; 293  : 		const CvVictoryInfo* pkVictoryType = GC.getVictoryInfo(eVictoryType);

	push	esi
	mov	ecx, OFFSET ?gGlobals@@3VCvGlobals@@A	; gGlobals
	call	?getVictoryInfo@CvGlobals@@QAEPAVCvVictoryInfo@@W4VictoryTypes@@@Z ; CvGlobals::getVictoryInfo

; 294  : 		if(pkVictoryType != NULL)

	test	eax, eax
	je	SHORT $LN3@SetupGameO

; 295  : 		{
; 296  : 			const char* szVictoryType = pkVictoryType->GetType();

	lea	ecx, DWORD PTR [eax+176]
	call	DWORD PTR __imp_?c_str@?$basic_string@DU?$char_traits@D@std@@V?$allocator@D@2@@std@@QBEPBDXZ

; 297  : 			const bool bValid = sg_kSave.m_kVictoryTypes.Contains(szVictoryType);

	push	eax
	mov	ecx, OFFSET _sg_kSave+4016
	call	?Contains@CvWorldBuilderMapTypeGroup@@QBE_NPBD@Z ; CvWorldBuilderMapTypeGroup::Contains
	mov	BYTE PTR _bValid$224285[esp+56], al

; 298  : 			GC.getGame().setVictoryValid(eVictoryType, bValid);

	mov	ecx, DWORD PTR _bValid$224285[esp+56]
	push	ecx
	mov	ecx, DWORD PTR ?gGlobals@@3VCvGlobals@@A+48
	push	esi
	call	?setVictoryValid@CvGame@@QAEXW4VictoryTypes@@_N@Z ; CvGame::setVictoryValid
$LN3@SetupGameO:
	inc	esi
	cmp	esi, edi
	jl	SHORT $LL4@SetupGameO
$LN2@SetupGameO:

; 299  : 		}
; 300  : 	}
; 301  : 
; 302  : 	CvPreGame::setMaxTurns(sg_kSave.GetMaxTurns());

	mov	edx, DWORD PTR _sg_kSave+12304
	push	edx
	call	?setMaxTurns@CvPreGame@@YAXH@Z		; CvPreGame::setMaxTurns

; 303  : 
; 304  : 	GC.getGame().setStartYear(sg_kSave.GetStartYear());

	mov	eax, DWORD PTR _sg_kSave+12312
	mov	ecx, DWORD PTR ?gGlobals@@3VCvGlobals@@A+48
	add	esp, 4
	push	eax
	call	?setStartYear@CvGame@@QAEXH@Z		; CvGame::setStartYear

; 305  : 	CvPreGame::setGameSpeed(sg_kSave.GetDefaultGameSpeed());

	push	OFFSET _sg_kSave+12236
	lea	ecx, DWORD PTR $T227550[esp+60]
	call	DWORD PTR __imp_??0?$basic_string@DU?$char_traits@D@std@@V?$allocator@D@2@@std@@QAE@PBD@Z
	lea	ecx, DWORD PTR $T227550[esp+56]
	push	ecx
	mov	DWORD PTR __$EHRec$[esp+68], 0
	call	?setGameSpeed@CvPreGame@@YAXABVCvString@@@Z ; CvPreGame::setGameSpeed
	add	esp, 4
	lea	ecx, DWORD PTR $T227550[esp+56]
	mov	DWORD PTR __$EHRec$[esp+64], -1
	call	DWORD PTR __imp_??1?$basic_string@DU?$char_traits@D@std@@V?$allocator@D@2@@std@@QAE@XZ

; 306  : }

	mov	ecx, DWORD PTR __$EHRec$[esp+56]
	pop	edi
	pop	esi
	pop	ebx
	mov	DWORD PTR fs:0, ecx
	add	esp, 44					; 0000002cH
	ret	0
_TEXT	ENDS
;	COMDAT text$x
text$x	SEGMENT
__unwindfunclet$?SetupGameOptions@CvWorldBuilderMapLoader@@SAXXZ$0:
	lea	ecx, DWORD PTR $T227550[ebp]
	jmp	??1CvString@@QAE@XZ			; CvString::~CvString
__ehhandler$?SetupGameOptions@CvWorldBuilderMapLoader@@SAXXZ:
	mov	eax, OFFSET __ehfuncinfo$?SetupGameOptions@CvWorldBuilderMapLoader@@SAXXZ
	jmp	___CxxFrameHandler3
text$x	ENDS
?SetupGameOptions@CvWorldBuilderMapLoader@@SAXXZ ENDP	; CvWorldBuilderMapLoader::SetupGameOptions
PUBLIC	?SetupPlayers@CvWorldBuilderMapLoader@@SAXXZ	; CvWorldBuilderMapLoader::SetupPlayers
EXTRN	?setMinorCivType@CvPreGame@@YAXW4PlayerTypes@@W4MinorCivTypes@@@Z:PROC ; CvPreGame::setMinorCivType
EXTRN	?getMinorCivInfo@CvGlobals@@QAEPAVCvMinorCivInfo@@W4MinorCivTypes@@@Z:PROC ; CvGlobals::getMinorCivInfo
EXTRN	?getNumMinorCivInfos@CvGlobals@@QAEHXZ:PROC	; CvGlobals::getNumMinorCivInfos
EXTRN	?setNumMinorCivs@CvPreGame@@YAXH@Z:PROC		; CvPreGame::setNumMinorCivs
EXTRN	?mapNoPlayers@CvPreGame@@YA_NXZ:PROC		; CvPreGame::mapNoPlayers
EXTRN	?resetPlayer@CvPreGame@@YAXW4PlayerTypes@@@Z:PROC ; CvPreGame::resetPlayer
EXTRN	?setCivilizationDescription@CvPreGame@@YAXW4PlayerTypes@@ABVCvString@@@Z:PROC ; CvPreGame::setCivilizationDescription
EXTRN	?setCivilizationShortDescription@CvPreGame@@YAXW4PlayerTypes@@ABVCvString@@@Z:PROC ; CvPreGame::setCivilizationShortDescription
EXTRN	?setLeaderName@CvPreGame@@YAXW4PlayerTypes@@ABVCvString@@@Z:PROC ; CvPreGame::setLeaderName
EXTRN	?setMinorCiv@CvPreGame@@YAXW4PlayerTypes@@_N@Z:PROC ; CvPreGame::setMinorCiv
EXTRN	?setTeamType@CvPreGame@@YAXW4PlayerTypes@@W4TeamTypes@@@Z:PROC ; CvPreGame::setTeamType
EXTRN	?setHandicap@CvPreGame@@YAXW4PlayerTypes@@W4HandicapTypes@@@Z:PROC ; CvPreGame::setHandicap
EXTRN	?getHandicapInfo@CvGlobals@@QAEPAVCvHandicapInfo@@W4HandicapTypes@@@Z:PROC ; CvGlobals::getHandicapInfo
EXTRN	?getNumHandicapInfos@CvGlobals@@QAEHXZ:PROC	; CvGlobals::getNumHandicapInfos
EXTRN	?overrideScenarioHandicap@CvPreGame@@YA_NXZ:PROC ; CvPreGame::overrideScenarioHandicap
EXTRN	?setPlayerColor@CvPreGame@@YAXW4PlayerTypes@@W4PlayerColorTypes@@@Z:PROC ; CvPreGame::setPlayerColor
EXTRN	?GetPlayerColorInfo@CvGlobals@@QAEPAVCvPlayerColorInfo@@W4PlayerColorTypes@@@Z:PROC ; CvGlobals::GetPlayerColorInfo
EXTRN	?GetNumPlayerColorInfos@CvGlobals@@QAEHXZ:PROC	; CvGlobals::GetNumPlayerColorInfos
EXTRN	?setCivilization@CvPreGame@@YAXW4PlayerTypes@@W4CivilizationTypes@@@Z:PROC ; CvPreGame::setCivilization
EXTRN	?getCivilizationInfo@CvGlobals@@QAEPAVCvCivilizationInfo@@W4CivilizationTypes@@@Z:PROC ; CvGlobals::getCivilizationInfo
EXTRN	?getNumCivilizationInfos@CvGlobals@@QAEHXZ:PROC	; CvGlobals::getNumCivilizationInfos
EXTRN	?setSlotStatus@CvPreGame@@YAXW4PlayerTypes@@W4SlotStatus@@@Z:PROC ; CvPreGame::setSlotStatus
EXTRN	?slotStatus@CvPreGame@@YA?AW4SlotStatus@@W4PlayerTypes@@@Z:PROC ; CvPreGame::slotStatus
;	COMDAT xdata$x
; File c:\users\enormousapplepie\documents\github\lekmod\lekmod_dll\cvgamecoredll_expansion2\cvinfos.h
xdata$x	SEGMENT
__unwindtable$?SetupPlayers@CvWorldBuilderMapLoader@@SAXXZ DD 0ffffffffH
	DD	FLAT:__unwindfunclet$?SetupPlayers@CvWorldBuilderMapLoader@@SAXXZ$0
	DD	0ffffffffH
	DD	FLAT:__unwindfunclet$?SetupPlayers@CvWorldBuilderMapLoader@@SAXXZ$1
	DD	0ffffffffH
	DD	FLAT:__unwindfunclet$?SetupPlayers@CvWorldBuilderMapLoader@@SAXXZ$2
__ehfuncinfo$?SetupPlayers@CvWorldBuilderMapLoader@@SAXXZ DD 019930522H
	DD	03H
	DD	FLAT:__unwindtable$?SetupPlayers@CvWorldBuilderMapLoader@@SAXXZ
	DD	2 DUP(00H)
	DD	2 DUP(00H)
	DD	00H
	DD	01H
; Function compile flags: /Ogtpy
; File c:\users\enormousapplepie\documents\github\lekmod\lekmod_dll\cvgamecoredll_expansion2\cvworldbuildermaploader.cpp
xdata$x	ENDS
;	COMDAT ?SetupPlayers@CvWorldBuilderMapLoader@@SAXXZ
_TEXT	SEGMENT
$T227613 = -50						; size = 1
$T227607 = -50						; size = 1
$T227612 = -49						; size = 1
$T227608 = -49						; size = 1
tv204 = -48						; size = 4
tv192 = -48						; size = 4
_i$224361 = -48						; size = 4
_i$224298 = -48						; size = 4
_uiCityStateCount$ = -44				; size = 4
_uiPlayerCount$ = -44					; size = 4
$T227611 = -40						; size = 28
$T227610 = -40						; size = 28
$T227609 = -40						; size = 28
__$EHRec$ = -12						; size = 12
?SetupPlayers@CvWorldBuilderMapLoader@@SAXXZ PROC	; CvWorldBuilderMapLoader::SetupPlayers, COMDAT

; 309  : {

	push	-1
	push	__ehhandler$?SetupPlayers@CvWorldBuilderMapLoader@@SAXXZ
	mov	eax, DWORD PTR fs:0
	push	eax
	mov	DWORD PTR fs:0, esp
	sub	esp, 40					; 00000028H

; 310  : #ifdef AUI_WARNING_FIXES
; 311  : 	const byte uiPlayerCount = MIN(sg_kSave.GetPlayerCount(), (byte)MAX_CIV_PLAYERS);
; 312  : 	for (byte i = 0; i < uiPlayerCount; ++i)
; 313  : #else
; 314  : 	const uint uiPlayerCount = std::min(sg_kSave.GetPlayerCount(), (byte)MAX_CIV_PLAYERS);

	mov	al, BYTE PTR _sg_kSave+12316
	mov	BYTE PTR $T227608[esp+52], al
	cmp	al, 63					; 0000003fH
	mov	BYTE PTR $T227607[esp+52], 63		; 0000003fH
	lea	eax, DWORD PTR $T227607[esp+52]
	ja	SHORT $LN56@SetupPlaye
	lea	eax, DWORD PTR $T227608[esp+52]
$LN56@SetupPlaye:
	movzx	eax, BYTE PTR [eax]
	push	ebx
	push	ebp
	push	esi
	push	edi
	mov	DWORD PTR _uiPlayerCount$[esp+68], eax

; 315  : 	for(uint i = 0; i < uiPlayerCount; ++i)

	mov	DWORD PTR _i$224298[esp+68], 0
	test	eax, eax
	jbe	$LN43@SetupPlaye
	npad	3
$LL157@SetupPlaye:

; 316  : #endif
; 317  : 	{
; 318  : 		const PlayerTypes ePlayer = (PlayerTypes)i;
; 319  : 		const SlotStatus eStatus = CvPreGame::slotStatus(ePlayer);

	mov	eax, DWORD PTR _i$224298[esp+68]
	push	eax
	call	?slotStatus@CvPreGame@@YA?AW4SlotStatus@@W4PlayerTypes@@@Z ; CvPreGame::slotStatus
	mov	ebx, eax
	add	esp, 4

; 320  : 		if(eStatus != SS_TAKEN && eStatus != SS_COMPUTER)

	cmp	ebx, 3
	je	SHORT $LN42@SetupPlaye
	cmp	ebx, 1
	je	SHORT $LN42@SetupPlaye

; 321  : 			CvPreGame::setSlotStatus(ePlayer, SS_COMPUTER);

	mov	ecx, DWORD PTR _i$224298[esp+68]
	push	1
	push	ecx
	call	?setSlotStatus@CvPreGame@@YAXW4PlayerTypes@@W4SlotStatus@@@Z ; CvPreGame::setSlotStatus
	add	esp, 8
$LN42@SetupPlaye:

; 322  : 
; 323  : 		const CvWorldBuilderMap::Player& kPlayer = sg_kSave.GetPlayer(i);

	mov	al, BYTE PTR _i$224298[esp+68]
	cmp	al, BYTE PTR _sg_kSave+12316
	jae	SHORT $LN58@SetupPlaye
	cmp	al, 32					; 00000020H
	jae	SHORT $LN58@SetupPlaye
	movzx	ebp, al
	imul	ebp, 436				; 000001b4H
	add	ebp, OFFSET _sg_kSave+536608
	jmp	SHORT $LN57@SetupPlaye
$LN58@SetupPlaye:
	mov	ebp, OFFSET ?sm_kErrorPlayer@CvWorldBuilderMap@@0UPlayer@1@A ; CvWorldBuilderMap::sm_kErrorPlayer
$LN57@SetupPlaye:

; 324  : 
; 325  : 		CivilizationTypes eCivType = NO_CIVILIZATION;
; 326  : #ifdef AUI_WARNING_FIXES
; 327  : 		for (uint iCiv = 0; iCiv < GC.getNumCivilizationInfos(); ++iCiv)
; 328  : #else
; 329  : 		for(int iCiv = 0; iCiv < GC.getNumCivilizationInfos(); ++iCiv)

	mov	ecx, OFFSET ?gGlobals@@3VCvGlobals@@A	; gGlobals
	or	edi, -1
	xor	esi, esi
	call	?getNumCivilizationInfos@CvGlobals@@QAEHXZ ; CvGlobals::getNumCivilizationInfos
	test	eax, eax
	jle	SHORT $LN39@SetupPlaye
$LL41@SetupPlaye:

; 330  : #endif
; 331  : 		{
; 332  : 			CvCivilizationInfo* pkCivilization = GC.getCivilizationInfo((CivilizationTypes)iCiv);

	push	esi
	mov	ecx, OFFSET ?gGlobals@@3VCvGlobals@@A	; gGlobals
	call	?getCivilizationInfo@CvGlobals@@QAEPAVCvCivilizationInfo@@W4CivilizationTypes@@@Z ; CvGlobals::getCivilizationInfo

; 333  : 			if(pkCivilization != NULL && strcmp(kPlayer.m_szCivType, pkCivilization->GetType()) == 0)

	test	eax, eax
	je	SHORT $LN40@SetupPlaye
	lea	ecx, DWORD PTR [eax+176]
	call	DWORD PTR __imp_?c_str@?$basic_string@DU?$char_traits@D@std@@V?$allocator@D@2@@std@@QBEPBDXZ
	lea	ecx, DWORD PTR [ebp+160]
$LL131@SetupPlaye:
	mov	dl, BYTE PTR [ecx]
	cmp	dl, BYTE PTR [eax]
	jne	SHORT $LN132@SetupPlaye
	test	dl, dl
	je	SHORT $LN133@SetupPlaye
	mov	dl, BYTE PTR [ecx+1]
	cmp	dl, BYTE PTR [eax+1]
	jne	SHORT $LN132@SetupPlaye
	add	ecx, 2
	add	eax, 2
	test	dl, dl
	jne	SHORT $LL131@SetupPlaye
$LN133@SetupPlaye:
	xor	eax, eax
	jmp	SHORT $LN134@SetupPlaye
$LN132@SetupPlaye:
	sbb	eax, eax
	sbb	eax, -1
$LN134@SetupPlaye:
	test	eax, eax
	je	SHORT $LN116@SetupPlaye
$LN40@SetupPlaye:

; 324  : 
; 325  : 		CivilizationTypes eCivType = NO_CIVILIZATION;
; 326  : #ifdef AUI_WARNING_FIXES
; 327  : 		for (uint iCiv = 0; iCiv < GC.getNumCivilizationInfos(); ++iCiv)
; 328  : #else
; 329  : 		for(int iCiv = 0; iCiv < GC.getNumCivilizationInfos(); ++iCiv)

	mov	ecx, OFFSET ?gGlobals@@3VCvGlobals@@A	; gGlobals
	inc	esi
	call	?getNumCivilizationInfos@CvGlobals@@QAEHXZ ; CvGlobals::getNumCivilizationInfos
	cmp	esi, eax
	jl	SHORT $LL41@SetupPlaye

; 478  : 			if(pkHandicap != NULL && strcmp(kPlayer.m_szHandicap, pkHandicap->GetType()) == 0)

	jmp	SHORT $LN39@SetupPlaye
$LN116@SetupPlaye:

; 334  : 			{
; 335  : 				eCivType = (CivilizationTypes)iCiv;

	mov	edi, esi
$LN39@SetupPlaye:

; 336  : 				break;
; 337  : 			}
; 338  : 		}
; 339  : 
; 340  : 		CvPreGame::setCivilization(ePlayer, eCivType);

	mov	edx, DWORD PTR _i$224298[esp+68]
	push	edi
	push	edx
	call	?setCivilization@CvPreGame@@YAXW4PlayerTypes@@W4CivilizationTypes@@@Z ; CvPreGame::setCivilization
	add	esp, 8

; 341  : 
; 342  : 		PlayerColorTypes eColorType = NO_PLAYERCOLOR;
; 343  : #ifdef AUI_WARNING_FIXES
; 344  : 		for (uint iColor = 0; iColor < GC.GetNumPlayerColorInfos(); ++iColor)
; 345  : #else
; 346  : 		for(int iColor = 0; iColor < GC.GetNumPlayerColorInfos(); ++iColor)

	mov	ecx, OFFSET ?gGlobals@@3VCvGlobals@@A	; gGlobals
	or	edi, -1
	xor	esi, esi
	call	?GetNumPlayerColorInfos@CvGlobals@@QAEHXZ ; CvGlobals::GetNumPlayerColorInfos
	test	eax, eax
	jle	SHORT $LN35@SetupPlaye
	npad	1
$LL37@SetupPlaye:

; 347  : #endif
; 348  : 		{
; 349  : 			CvPlayerColorInfo* pkColor = GC.GetPlayerColorInfo((PlayerColorTypes)iColor);

	push	esi
	mov	ecx, OFFSET ?gGlobals@@3VCvGlobals@@A	; gGlobals
	call	?GetPlayerColorInfo@CvGlobals@@QAEPAVCvPlayerColorInfo@@W4PlayerColorTypes@@@Z ; CvGlobals::GetPlayerColorInfo

; 350  : 			if(pkColor != NULL && strcmp(kPlayer.m_szTeamColor, pkColor->GetType()) == 0)

	test	eax, eax
	je	SHORT $LN36@SetupPlaye
	lea	ecx, DWORD PTR [eax+176]
	call	DWORD PTR __imp_?c_str@?$basic_string@DU?$char_traits@D@std@@V?$allocator@D@2@@std@@QBEPBDXZ
	lea	ecx, DWORD PTR [ebp+224]
$LL135@SetupPlaye:
	mov	dl, BYTE PTR [ecx]
	cmp	dl, BYTE PTR [eax]
	jne	SHORT $LN136@SetupPlaye
	test	dl, dl
	je	SHORT $LN137@SetupPlaye
	mov	dl, BYTE PTR [ecx+1]
	cmp	dl, BYTE PTR [eax+1]
	jne	SHORT $LN136@SetupPlaye
	add	ecx, 2
	add	eax, 2
	test	dl, dl
	jne	SHORT $LL135@SetupPlaye
$LN137@SetupPlaye:
	xor	eax, eax
	jmp	SHORT $LN138@SetupPlaye
$LN136@SetupPlaye:
	sbb	eax, eax
	sbb	eax, -1
$LN138@SetupPlaye:
	test	eax, eax
	je	SHORT $LN117@SetupPlaye
$LN36@SetupPlaye:

; 341  : 
; 342  : 		PlayerColorTypes eColorType = NO_PLAYERCOLOR;
; 343  : #ifdef AUI_WARNING_FIXES
; 344  : 		for (uint iColor = 0; iColor < GC.GetNumPlayerColorInfos(); ++iColor)
; 345  : #else
; 346  : 		for(int iColor = 0; iColor < GC.GetNumPlayerColorInfos(); ++iColor)

	mov	ecx, OFFSET ?gGlobals@@3VCvGlobals@@A	; gGlobals
	inc	esi
	call	?GetNumPlayerColorInfos@CvGlobals@@QAEHXZ ; CvGlobals::GetNumPlayerColorInfos
	cmp	esi, eax
	jl	SHORT $LL37@SetupPlaye

; 478  : 			if(pkHandicap != NULL && strcmp(kPlayer.m_szHandicap, pkHandicap->GetType()) == 0)

	jmp	SHORT $LN35@SetupPlaye
$LN117@SetupPlaye:

; 351  : 			{
; 352  : 				eColorType = (PlayerColorTypes)iColor;

	mov	edi, esi
$LN35@SetupPlaye:

; 353  : 				break;
; 354  : 			}
; 355  : 		}
; 356  : 
; 357  : 		CvPreGame::setPlayerColor(ePlayer, eColorType);

	mov	eax, DWORD PTR _i$224298[esp+68]
	push	edi
	push	eax
	call	?setPlayerColor@CvPreGame@@YAXW4PlayerTypes@@W4PlayerColorTypes@@@Z ; CvPreGame::setPlayerColor
	add	esp, 8

; 358  : 
; 359  : 		if(!(eStatus == SS_TAKEN && CvPreGame::overrideScenarioHandicap()))

	cmp	ebx, 3
	jne	SHORT $LN32@SetupPlaye
	call	?overrideScenarioHandicap@CvPreGame@@YA_NXZ ; CvPreGame::overrideScenarioHandicap
	test	al, al
	jne	$LN159@SetupPlaye
$LN32@SetupPlaye:

; 360  : 		{
; 361  : 			HandicapTypes eHandicap = NO_HANDICAP;

	or	ebx, -1

; 362  : #ifdef AUI_WARNING_FIXES
; 363  : 			for (uint iHandicap = 0; iHandicap < GC.getNumHandicapInfos(); ++iHandicap)
; 364  : #else
; 365  : 			for(int iHandicap = 0; iHandicap < GC.getNumHandicapInfos(); ++iHandicap)

	mov	ecx, OFFSET ?gGlobals@@3VCvGlobals@@A	; gGlobals
	mov	edi, ebx
	xor	esi, esi
	call	?getNumHandicapInfos@CvGlobals@@QAEHXZ	; CvGlobals::getNumHandicapInfos
	test	eax, eax
	jle	SHORT $LN158@SetupPlaye
$LL31@SetupPlaye:

; 366  : #endif
; 367  : 			{
; 368  : 				CvHandicapInfo* pkHandicap = GC.getHandicapInfo((HandicapTypes)iHandicap);

	push	esi
	mov	ecx, OFFSET ?gGlobals@@3VCvGlobals@@A	; gGlobals
	call	?getHandicapInfo@CvGlobals@@QAEPAVCvHandicapInfo@@W4HandicapTypes@@@Z ; CvGlobals::getHandicapInfo

; 369  : 				if(pkHandicap != NULL && strcmp(kPlayer.m_szHandicap, pkHandicap->GetType()) == 0)

	test	eax, eax
	je	SHORT $LN30@SetupPlaye
	lea	ecx, DWORD PTR [eax+176]
	call	DWORD PTR __imp_?c_str@?$basic_string@DU?$char_traits@D@std@@V?$allocator@D@2@@std@@QBEPBDXZ
	lea	ecx, DWORD PTR [ebp+352]
$LL139@SetupPlaye:
	mov	dl, BYTE PTR [ecx]
	cmp	dl, BYTE PTR [eax]
	jne	SHORT $LN140@SetupPlaye
	test	dl, dl
	je	SHORT $LN141@SetupPlaye
	mov	dl, BYTE PTR [ecx+1]
	cmp	dl, BYTE PTR [eax+1]
	jne	SHORT $LN140@SetupPlaye
	add	ecx, 2
	add	eax, 2
	test	dl, dl
	jne	SHORT $LL139@SetupPlaye
$LN141@SetupPlaye:
	xor	eax, eax
	jmp	SHORT $LN142@SetupPlaye
$LN140@SetupPlaye:
	sbb	eax, eax
	sbb	eax, ebx
$LN142@SetupPlaye:
	test	eax, eax
	je	SHORT $LN118@SetupPlaye
$LN30@SetupPlaye:

; 362  : #ifdef AUI_WARNING_FIXES
; 363  : 			for (uint iHandicap = 0; iHandicap < GC.getNumHandicapInfos(); ++iHandicap)
; 364  : #else
; 365  : 			for(int iHandicap = 0; iHandicap < GC.getNumHandicapInfos(); ++iHandicap)

	mov	ecx, OFFSET ?gGlobals@@3VCvGlobals@@A	; gGlobals
	inc	esi
	call	?getNumHandicapInfos@CvGlobals@@QAEHXZ	; CvGlobals::getNumHandicapInfos
	cmp	esi, eax
	jl	SHORT $LL31@SetupPlaye

; 372  : 					break;
; 373  : 				}
; 374  : 			}
; 375  : 
; 376  : 			CvPreGame::setHandicap(ePlayer, eHandicap);

	push	edi
	mov	edi, DWORD PTR _i$224298[esp+72]
	push	edi
	call	?setHandicap@CvPreGame@@YAXW4PlayerTypes@@W4HandicapTypes@@@Z ; CvPreGame::setHandicap
	add	esp, 8
	jmp	SHORT $LN33@SetupPlaye
$LN118@SetupPlaye:

; 370  : 				{
; 371  : 					eHandicap = (HandicapTypes)iHandicap;

	mov	edi, esi
$LN158@SetupPlaye:

; 372  : 					break;
; 373  : 				}
; 374  : 			}
; 375  : 
; 376  : 			CvPreGame::setHandicap(ePlayer, eHandicap);

	push	edi
	mov	edi, DWORD PTR _i$224298[esp+72]
	push	edi
	call	?setHandicap@CvPreGame@@YAXW4PlayerTypes@@W4HandicapTypes@@@Z ; CvPreGame::setHandicap
	add	esp, 8
	jmp	SHORT $LN33@SetupPlaye
$LN159@SetupPlaye:
	mov	edi, DWORD PTR _i$224298[esp+68]
	or	ebx, -1
$LN33@SetupPlaye:

; 377  : 		}
; 378  : 
; 379  : 		CvPreGame::setTeamType(ePlayer, (TeamTypes)kPlayer.m_byTeam);

	movzx	ecx, BYTE PTR [ebp+432]
	push	ecx
	push	edi
	call	?setTeamType@CvPreGame@@YAXW4PlayerTypes@@W4TeamTypes@@@Z ; CvPreGame::setTeamType

; 380  : 		CvPreGame::setMinorCiv(ePlayer, false);

	push	0
	push	edi
	call	?setMinorCiv@CvPreGame@@YAXW4PlayerTypes@@_N@Z ; CvPreGame::setMinorCiv

; 381  : 
; 382  : #ifdef AUI_WARNING_FIXES
; 383  : 		if (kPlayer.m_szLeaderName[0] != '\0')
; 384  : #else
; 385  : 		if(strlen(kPlayer.m_szLeaderName) > 0)

	lea	edx, DWORD PTR [ebp+32]
	mov	eax, edx
	add	esp, 16					; 00000010H
	lea	esi, DWORD PTR [eax+1]
$LL143@SetupPlaye:
	mov	cl, BYTE PTR [eax]
	inc	eax
	test	cl, cl
	jne	SHORT $LL143@SetupPlaye
	sub	eax, esi
	je	SHORT $LN160@SetupPlaye

; 386  : #endif
; 387  : 			CvPreGame::setLeaderName(ePlayer, kPlayer.m_szLeaderName);

	test	edx, edx
	jne	SHORT $LN70@SetupPlaye
	mov	edx, OFFSET ??_C@_00CNPNBAHC@?$AA@
$LN70@SetupPlaye:
	push	edx
	lea	ecx, DWORD PTR $T227609[esp+72]
	call	DWORD PTR __imp_??0?$basic_string@DU?$char_traits@D@std@@V?$allocator@D@2@@std@@QAE@PBD@Z
	lea	edx, DWORD PTR $T227609[esp+68]
	push	edx
	push	edi
	mov	DWORD PTR __$EHRec$[esp+84], 0
	call	?setLeaderName@CvPreGame@@YAXW4PlayerTypes@@ABVCvString@@@Z ; CvPreGame::setLeaderName
	add	esp, 8
	lea	ecx, DWORD PTR $T227609[esp+68]
	mov	DWORD PTR __$EHRec$[esp+76], ebx
	call	DWORD PTR __imp_??1?$basic_string@DU?$char_traits@D@std@@V?$allocator@D@2@@std@@QAE@XZ
$LN160@SetupPlaye:

; 388  : 
; 389  : #ifdef AUI_WARNING_FIXES
; 390  : 		if (kPlayer.m_szCivName[0] != '\0')
; 391  : #else
; 392  : 		if(strlen(kPlayer.m_szCivName) > 0)

	lea	esi, DWORD PTR [ebp+96]
	mov	eax, esi
	lea	edx, DWORD PTR [eax+1]
	npad	1
$LL144@SetupPlaye:
	mov	cl, BYTE PTR [eax]
	inc	eax
	test	cl, cl
	jne	SHORT $LL144@SetupPlaye
	sub	eax, edx
	je	SHORT $LN44@SetupPlaye

; 393  : #endif
; 394  : 		{
; 395  : 			CvPreGame::setCivilizationShortDescription(ePlayer, kPlayer.m_szCivName);

	mov	eax, esi
	test	esi, esi
	jne	SHORT $LN78@SetupPlaye
	mov	eax, OFFSET ??_C@_00CNPNBAHC@?$AA@
$LN78@SetupPlaye:
	push	eax
	lea	ecx, DWORD PTR $T227610[esp+72]
	call	DWORD PTR __imp_??0?$basic_string@DU?$char_traits@D@std@@V?$allocator@D@2@@std@@QAE@PBD@Z
	lea	eax, DWORD PTR $T227610[esp+68]
	push	eax
	push	edi
	mov	DWORD PTR __$EHRec$[esp+84], 1
	call	?setCivilizationShortDescription@CvPreGame@@YAXW4PlayerTypes@@ABVCvString@@@Z ; CvPreGame::setCivilizationShortDescription
	add	esp, 8
	lea	ecx, DWORD PTR $T227610[esp+68]
	mov	DWORD PTR __$EHRec$[esp+76], ebx
	call	DWORD PTR __imp_??1?$basic_string@DU?$char_traits@D@std@@V?$allocator@D@2@@std@@QAE@XZ

; 396  : 			CvPreGame::setCivilizationDescription(ePlayer, kPlayer.m_szCivName);

	test	esi, esi
	jne	SHORT $LN86@SetupPlaye
	mov	esi, OFFSET ??_C@_00CNPNBAHC@?$AA@
$LN86@SetupPlaye:
	push	esi
	lea	ecx, DWORD PTR $T227611[esp+72]
	call	DWORD PTR __imp_??0?$basic_string@DU?$char_traits@D@std@@V?$allocator@D@2@@std@@QAE@PBD@Z
	lea	ecx, DWORD PTR $T227611[esp+68]
	push	ecx
	push	edi
	mov	DWORD PTR __$EHRec$[esp+84], 2
	call	?setCivilizationDescription@CvPreGame@@YAXW4PlayerTypes@@ABVCvString@@@Z ; CvPreGame::setCivilizationDescription
	add	esp, 8
	lea	ecx, DWORD PTR $T227611[esp+68]
	mov	DWORD PTR __$EHRec$[esp+76], ebx
	call	DWORD PTR __imp_??1?$basic_string@DU?$char_traits@D@std@@V?$allocator@D@2@@std@@QAE@XZ
$LN44@SetupPlaye:
	inc	edi
	mov	DWORD PTR _i$224298[esp+68], edi
	cmp	edi, DWORD PTR _uiPlayerCount$[esp+68]
	jb	$LL157@SetupPlaye
$LN43@SetupPlaye:

; 397  : 		}
; 398  : 	}
; 399  : 
; 400  : 	// If this is a map with defined player slots then close any slots out of this defined range
; 401  : 	// that are being filled by computer players.  Hopefully there aren't any human players there.
; 402  : 	const uint uiPlayerSlotCount = sg_kMapInfo.uiMajorCivStartingPositions + sg_kMapInfo.uiPlayers;

	mov	edx, DWORD PTR _sg_kMapInfo+16
	mov	eax, DWORD PTR _sg_kMapInfo+8
	lea	esi, DWORD PTR [eax+edx]

; 403  : 	if(uiPlayerSlotCount > 0)

	test	esi, esi
	jbe	SHORT $LN161@SetupPlaye

; 404  : 	{
; 405  : 		for(uint i = uiPlayerSlotCount; i < MAX_MAJOR_CIVS; ++i)

	cmp	esi, 22					; 00000016H
	jae	SHORT $LN161@SetupPlaye
$LL24@SetupPlaye:

; 406  : 		{
; 407  : 			const PlayerTypes ePlayer = (PlayerTypes)i;
; 408  : 			const SlotStatus eStatus = CvPreGame::slotStatus(ePlayer);

	push	esi
	call	?slotStatus@CvPreGame@@YA?AW4SlotStatus@@W4PlayerTypes@@@Z ; CvPreGame::slotStatus
	add	esp, 4

; 409  : 			if(eStatus == SS_COMPUTER)

	cmp	eax, 1
	jne	SHORT $LN23@SetupPlaye

; 410  : 				CvPreGame::resetPlayer(ePlayer);	// Do a full reset, which will also close the slot.  A reset is better so that the player data does not get initialized later.

	push	esi
	call	?resetPlayer@CvPreGame@@YAXW4PlayerTypes@@@Z ; CvPreGame::resetPlayer
	add	esp, 4
$LN23@SetupPlaye:
	inc	esi
	cmp	esi, 22					; 00000016H
	jb	SHORT $LL24@SetupPlaye
$LN161@SetupPlaye:

; 411  : 		}
; 412  : 	}
; 413  : 
; 414  : #ifdef AUI_WARNING_FIXES
; 415  : 	const byte uiCityStateCount = MIN(sg_kSave.GetCityStateCount(), (byte)MAX_MINOR_CIVS);
; 416  : #else
; 417  : 	const uint uiCityStateCount = std::min(sg_kSave.GetCityStateCount(), (byte)MAX_MINOR_CIVS);

	mov	al, BYTE PTR _sg_kSave+12317
	mov	BYTE PTR $T227613[esp+68], al
	cmp	al, 41					; 00000029H
	mov	BYTE PTR $T227612[esp+68], 41		; 00000029H
	lea	eax, DWORD PTR $T227612[esp+68]
	ja	SHORT $LN96@SetupPlaye
	lea	eax, DWORD PTR $T227613[esp+68]
$LN96@SetupPlaye:
	movzx	esi, BYTE PTR [eax]
	mov	DWORD PTR _uiCityStateCount$[esp+68], esi

; 418  : #endif
; 419  : 
; 420  : 	if(uiCityStateCount > 0)

	test	esi, esi
	jbe	SHORT $LN20@SetupPlaye

; 421  : 		CvPreGame::setNumMinorCivs(uiCityStateCount);

	push	esi
	jmp	SHORT $LN165@SetupPlaye
$LN20@SetupPlaye:

; 422  : 	else if(sg_kMapInfo.uiMinorCivStartingPositions > 0)

	mov	eax, DWORD PTR _sg_kMapInfo+20
	test	eax, eax
	jbe	SHORT $LN18@SetupPlaye

; 423  : 		CvPreGame::setNumMinorCivs(sg_kMapInfo.uiMinorCivStartingPositions);

	push	eax
	jmp	SHORT $LN165@SetupPlaye
$LN18@SetupPlaye:

; 424  : 	else if(!CvPreGame::mapNoPlayers())

	call	?mapNoPlayers@CvPreGame@@YA_NXZ		; CvPreGame::mapNoPlayers
	test	al, al
	jne	SHORT $LN16@SetupPlaye

; 425  : 		CvPreGame::setNumMinorCivs(0);

	push	0
$LN165@SetupPlaye:
	call	?setNumMinorCivs@CvPreGame@@YAXH@Z	; CvPreGame::setNumMinorCivs
	add	esp, 4
$LN16@SetupPlaye:

; 426  : 
; 427  : #ifdef AUI_WARNING_FIXES
; 428  : 	for (byte i = 0; i < uiCityStateCount; ++i)
; 429  : #else
; 430  : 	for(uint i = 0; i < uiCityStateCount; ++i)

	xor	eax, eax
	mov	DWORD PTR _i$224361[esp+68], eax
	test	esi, esi
	jbe	$LN13@SetupPlaye
	jmp	SHORT $LN15@SetupPlaye
	npad	9
$LL163@SetupPlaye:
	mov	eax, DWORD PTR _i$224361[esp+68]
$LN15@SetupPlaye:

; 431  : #endif
; 432  : 	{
; 433  : 		const PlayerTypes ePlayer = (PlayerTypes)(i + MAX_MAJOR_CIVS);

	lea	ebx, DWORD PTR [eax+22]

; 434  : 		const CvWorldBuilderMap::Player& kPlayer = sg_kSave.GetCityState(i);

	cmp	al, BYTE PTR _sg_kSave+12317
	jae	SHORT $LN98@SetupPlaye
	cmp	al, 64					; 00000040H
	jae	SHORT $LN98@SetupPlaye
	movzx	ebp, al
	imul	ebp, 436				; 000001b4H
	add	ebp, OFFSET _sg_kSave+550560
	jmp	SHORT $LN97@SetupPlaye
$LN98@SetupPlaye:
	mov	ebp, OFFSET ?sm_kErrorPlayer@CvWorldBuilderMap@@0UPlayer@1@A ; CvWorldBuilderMap::sm_kErrorPlayer
$LN97@SetupPlaye:

; 435  : 
; 436  : 		MinorCivTypes eCivType = NO_MINORCIV;
; 437  : #ifdef AUI_WARNING_FIXES
; 438  : 		for (uint iCiv = 0; iCiv < GC.getNumMinorCivInfos(); ++iCiv)
; 439  : #else
; 440  : 		for(int iCiv = 0; iCiv < GC.getNumMinorCivInfos(); ++iCiv)

	mov	ecx, OFFSET ?gGlobals@@3VCvGlobals@@A	; gGlobals
	or	edi, -1
	xor	esi, esi
	call	?getNumMinorCivInfos@CvGlobals@@QAEHXZ	; CvGlobals::getNumMinorCivInfos
	test	eax, eax
	jle	SHORT $LN10@SetupPlaye
	npad	4
$LL12@SetupPlaye:

; 441  : #endif
; 442  : 		{
; 443  : 			CvMinorCivInfo* pkCivilization = GC.getMinorCivInfo((MinorCivTypes)iCiv);

	push	esi
	mov	ecx, OFFSET ?gGlobals@@3VCvGlobals@@A	; gGlobals
	call	?getMinorCivInfo@CvGlobals@@QAEPAVCvMinorCivInfo@@W4MinorCivTypes@@@Z ; CvGlobals::getMinorCivInfo

; 444  : 			if(pkCivilization != NULL && strcmp(kPlayer.m_szCivType, pkCivilization->GetType()) == 0)

	test	eax, eax
	je	SHORT $LN11@SetupPlaye
	lea	ecx, DWORD PTR [eax+176]
	call	DWORD PTR __imp_?c_str@?$basic_string@DU?$char_traits@D@std@@V?$allocator@D@2@@std@@QBEPBDXZ
	lea	ecx, DWORD PTR [ebp+160]
$LL145@SetupPlaye:
	mov	dl, BYTE PTR [ecx]
	cmp	dl, BYTE PTR [eax]
	jne	SHORT $LN146@SetupPlaye
	test	dl, dl
	je	SHORT $LN147@SetupPlaye
	mov	dl, BYTE PTR [ecx+1]
	cmp	dl, BYTE PTR [eax+1]
	jne	SHORT $LN146@SetupPlaye
	add	ecx, 2
	add	eax, 2
	test	dl, dl
	jne	SHORT $LL145@SetupPlaye
$LN147@SetupPlaye:
	xor	eax, eax
	jmp	SHORT $LN148@SetupPlaye
$LN146@SetupPlaye:
	sbb	eax, eax
	sbb	eax, -1
$LN148@SetupPlaye:
	test	eax, eax
	je	SHORT $LN119@SetupPlaye
$LN11@SetupPlaye:

; 435  : 
; 436  : 		MinorCivTypes eCivType = NO_MINORCIV;
; 437  : #ifdef AUI_WARNING_FIXES
; 438  : 		for (uint iCiv = 0; iCiv < GC.getNumMinorCivInfos(); ++iCiv)
; 439  : #else
; 440  : 		for(int iCiv = 0; iCiv < GC.getNumMinorCivInfos(); ++iCiv)

	mov	ecx, OFFSET ?gGlobals@@3VCvGlobals@@A	; gGlobals
	inc	esi
	call	?getNumMinorCivInfos@CvGlobals@@QAEHXZ	; CvGlobals::getNumMinorCivInfos
	cmp	esi, eax
	jl	SHORT $LL12@SetupPlaye

; 478  : 			if(pkHandicap != NULL && strcmp(kPlayer.m_szHandicap, pkHandicap->GetType()) == 0)

	jmp	SHORT $LN10@SetupPlaye
$LN119@SetupPlaye:

; 445  : 			{
; 446  : 				eCivType = (MinorCivTypes)iCiv;

	mov	edi, esi
$LN10@SetupPlaye:

; 447  : 				break;
; 448  : 			}
; 449  : 		}
; 450  : 
; 451  : 		CvPreGame::setMinorCivType(ePlayer, eCivType);

	push	edi
	push	ebx
	call	?setMinorCivType@CvPreGame@@YAXW4PlayerTypes@@W4MinorCivTypes@@@Z ; CvPreGame::setMinorCivType
	add	esp, 8

; 452  : 
; 453  : 		PlayerColorTypes eColorType = NO_PLAYERCOLOR;
; 454  : #ifdef AUI_WARNING_FIXES
; 455  : 		for (uint iColor = 0; iColor < GC.GetNumPlayerColorInfos(); ++iColor)
; 456  : #else
; 457  : 		for(int iColor = 0; iColor < GC.GetNumPlayerColorInfos(); ++iColor)

	mov	ecx, OFFSET ?gGlobals@@3VCvGlobals@@A	; gGlobals
	or	edi, -1
	xor	esi, esi
	call	?GetNumPlayerColorInfos@CvGlobals@@QAEHXZ ; CvGlobals::GetNumPlayerColorInfos
	test	eax, eax
	jle	SHORT $LN6@SetupPlaye
	npad	6
$LL8@SetupPlaye:

; 458  : #endif
; 459  : 		{
; 460  : 			CvPlayerColorInfo* pkColor = GC.GetPlayerColorInfo((PlayerColorTypes)iColor);

	push	esi
	mov	ecx, OFFSET ?gGlobals@@3VCvGlobals@@A	; gGlobals
	call	?GetPlayerColorInfo@CvGlobals@@QAEPAVCvPlayerColorInfo@@W4PlayerColorTypes@@@Z ; CvGlobals::GetPlayerColorInfo

; 461  : 			if(pkColor != NULL && strcmp(kPlayer.m_szTeamColor, pkColor->GetType()) == 0)

	test	eax, eax
	je	SHORT $LN7@SetupPlaye
	lea	ecx, DWORD PTR [eax+176]
	call	DWORD PTR __imp_?c_str@?$basic_string@DU?$char_traits@D@std@@V?$allocator@D@2@@std@@QBEPBDXZ
	lea	ecx, DWORD PTR [ebp+224]
$LL149@SetupPlaye:
	mov	dl, BYTE PTR [ecx]
	cmp	dl, BYTE PTR [eax]
	jne	SHORT $LN150@SetupPlaye
	test	dl, dl
	je	SHORT $LN151@SetupPlaye
	mov	dl, BYTE PTR [ecx+1]
	cmp	dl, BYTE PTR [eax+1]
	jne	SHORT $LN150@SetupPlaye
	add	ecx, 2
	add	eax, 2
	test	dl, dl
	jne	SHORT $LL149@SetupPlaye
$LN151@SetupPlaye:
	xor	eax, eax
	jmp	SHORT $LN152@SetupPlaye
$LN150@SetupPlaye:
	sbb	eax, eax
	sbb	eax, -1
$LN152@SetupPlaye:
	test	eax, eax
	je	SHORT $LN120@SetupPlaye
$LN7@SetupPlaye:

; 452  : 
; 453  : 		PlayerColorTypes eColorType = NO_PLAYERCOLOR;
; 454  : #ifdef AUI_WARNING_FIXES
; 455  : 		for (uint iColor = 0; iColor < GC.GetNumPlayerColorInfos(); ++iColor)
; 456  : #else
; 457  : 		for(int iColor = 0; iColor < GC.GetNumPlayerColorInfos(); ++iColor)

	mov	ecx, OFFSET ?gGlobals@@3VCvGlobals@@A	; gGlobals
	inc	esi
	call	?GetNumPlayerColorInfos@CvGlobals@@QAEHXZ ; CvGlobals::GetNumPlayerColorInfos
	cmp	esi, eax
	jl	SHORT $LL8@SetupPlaye

; 478  : 			if(pkHandicap != NULL && strcmp(kPlayer.m_szHandicap, pkHandicap->GetType()) == 0)

	jmp	SHORT $LN6@SetupPlaye
$LN120@SetupPlaye:

; 462  : 			{
; 463  : 				eColorType = (PlayerColorTypes)iColor;

	mov	edi, esi
$LN6@SetupPlaye:

; 464  : 				break;
; 465  : 			}
; 466  : 		}
; 467  : 
; 468  : 		CvPreGame::setPlayerColor(ePlayer, eColorType);

	push	edi
	push	ebx
	call	?setPlayerColor@CvPreGame@@YAXW4PlayerTypes@@W4PlayerColorTypes@@@Z ; CvPreGame::setPlayerColor
	add	esp, 8

; 469  : 
; 470  : 		HandicapTypes eHandicap = NO_HANDICAP;
; 471  : #ifdef AUI_WARNING_FIXES
; 472  : 		for (uint iHandicap = 0; iHandicap < GC.getNumHandicapInfos(); ++iHandicap)
; 473  : #else
; 474  : 		for(int iHandicap = 0; iHandicap < GC.getNumHandicapInfos(); ++iHandicap)

	mov	ecx, OFFSET ?gGlobals@@3VCvGlobals@@A	; gGlobals
	or	edi, -1
	xor	esi, esi
	call	?getNumHandicapInfos@CvGlobals@@QAEHXZ	; CvGlobals::getNumHandicapInfos
	test	eax, eax
	jle	SHORT $LN2@SetupPlaye
	npad	6
$LL4@SetupPlaye:

; 475  : #endif
; 476  : 		{
; 477  : 			CvHandicapInfo* pkHandicap = GC.getHandicapInfo((HandicapTypes)iHandicap);

	push	esi
	mov	ecx, OFFSET ?gGlobals@@3VCvGlobals@@A	; gGlobals
	call	?getHandicapInfo@CvGlobals@@QAEPAVCvHandicapInfo@@W4HandicapTypes@@@Z ; CvGlobals::getHandicapInfo

; 478  : 			if(pkHandicap != NULL && strcmp(kPlayer.m_szHandicap, pkHandicap->GetType()) == 0)

	test	eax, eax
	je	SHORT $LN3@SetupPlaye
	lea	ecx, DWORD PTR [eax+176]
	call	DWORD PTR __imp_?c_str@?$basic_string@DU?$char_traits@D@std@@V?$allocator@D@2@@std@@QBEPBDXZ
	lea	ecx, DWORD PTR [ebp+352]
$LL153@SetupPlaye:
	mov	dl, BYTE PTR [ecx]
	cmp	dl, BYTE PTR [eax]
	jne	SHORT $LN154@SetupPlaye
	test	dl, dl
	je	SHORT $LN155@SetupPlaye
	mov	dl, BYTE PTR [ecx+1]
	cmp	dl, BYTE PTR [eax+1]
	jne	SHORT $LN154@SetupPlaye
	add	ecx, 2
	add	eax, 2
	test	dl, dl
	jne	SHORT $LL153@SetupPlaye
$LN155@SetupPlaye:
	xor	eax, eax
	jmp	SHORT $LN156@SetupPlaye
$LN154@SetupPlaye:
	sbb	eax, eax
	sbb	eax, -1
$LN156@SetupPlaye:
	test	eax, eax
	je	SHORT $LN121@SetupPlaye
$LN3@SetupPlaye:

; 469  : 
; 470  : 		HandicapTypes eHandicap = NO_HANDICAP;
; 471  : #ifdef AUI_WARNING_FIXES
; 472  : 		for (uint iHandicap = 0; iHandicap < GC.getNumHandicapInfos(); ++iHandicap)
; 473  : #else
; 474  : 		for(int iHandicap = 0; iHandicap < GC.getNumHandicapInfos(); ++iHandicap)

	mov	ecx, OFFSET ?gGlobals@@3VCvGlobals@@A	; gGlobals
	inc	esi
	call	?getNumHandicapInfos@CvGlobals@@QAEHXZ	; CvGlobals::getNumHandicapInfos
	cmp	esi, eax
	jl	SHORT $LL4@SetupPlaye

; 478  : 			if(pkHandicap != NULL && strcmp(kPlayer.m_szHandicap, pkHandicap->GetType()) == 0)

	jmp	SHORT $LN2@SetupPlaye
$LN121@SetupPlaye:

; 479  : 			{
; 480  : 				eHandicap = (HandicapTypes)iHandicap;

	mov	edi, esi
$LN2@SetupPlaye:

; 481  : 				break;
; 482  : 			}
; 483  : 		}
; 484  : 
; 485  : 		CvPreGame::setHandicap(ePlayer, eHandicap);

	push	edi
	push	ebx
	call	?setHandicap@CvPreGame@@YAXW4PlayerTypes@@W4HandicapTypes@@@Z ; CvPreGame::setHandicap

; 486  : 
; 487  : 		CvPreGame::setSlotStatus(ePlayer, SS_COMPUTER);

	push	1
	push	ebx
	call	?setSlotStatus@CvPreGame@@YAXW4PlayerTypes@@W4SlotStatus@@@Z ; CvPreGame::setSlotStatus

; 488  : 		CvPreGame::setTeamType(ePlayer, (TeamTypes)kPlayer.m_byTeam);

	movzx	ecx, BYTE PTR [ebp+432]
	push	ecx
	push	ebx
	call	?setTeamType@CvPreGame@@YAXW4PlayerTypes@@W4TeamTypes@@@Z ; CvPreGame::setTeamType

; 489  : 		CvPreGame::setMinorCiv(ePlayer, true);

	push	1
	push	ebx
	call	?setMinorCiv@CvPreGame@@YAXW4PlayerTypes@@_N@Z ; CvPreGame::setMinorCiv
	mov	eax, DWORD PTR _i$224361[esp+100]
	inc	eax
	add	esp, 32					; 00000020H
	mov	DWORD PTR _i$224361[esp+68], eax
	cmp	eax, DWORD PTR _uiCityStateCount$[esp+68]
	jb	$LL163@SetupPlaye
$LN13@SetupPlaye:

; 490  : 	}
; 491  : }

	mov	ecx, DWORD PTR __$EHRec$[esp+68]
	pop	edi
	pop	esi
	pop	ebp
	pop	ebx
	mov	DWORD PTR fs:0, ecx
	add	esp, 52					; 00000034H
	ret	0
_TEXT	ENDS
;	COMDAT text$x
text$x	SEGMENT
__unwindfunclet$?SetupPlayers@CvWorldBuilderMapLoader@@SAXXZ$0:
	lea	ecx, DWORD PTR $T227609[ebp]
	jmp	??1CvString@@QAE@XZ			; CvString::~CvString
__unwindfunclet$?SetupPlayers@CvWorldBuilderMapLoader@@SAXXZ$1:
	lea	ecx, DWORD PTR $T227610[ebp]
	jmp	??1CvString@@QAE@XZ			; CvString::~CvString
__unwindfunclet$?SetupPlayers@CvWorldBuilderMapLoader@@SAXXZ$2:
	lea	ecx, DWORD PTR $T227611[ebp]
	jmp	??1CvString@@QAE@XZ			; CvString::~CvString
__ehhandler$?SetupPlayers@CvWorldBuilderMapLoader@@SAXXZ:
	mov	eax, OFFSET __ehfuncinfo$?SetupPlayers@CvWorldBuilderMapLoader@@SAXXZ
	jmp	___CxxFrameHandler3
text$x	ENDS
?SetupPlayers@CvWorldBuilderMapLoader@@SAXXZ ENDP	; CvWorldBuilderMapLoader::SetupPlayers
PUBLIC	?RunPostProcessScript@CvWorldBuilderMapLoader@@SAHPAUlua_State@@@Z ; CvWorldBuilderMapLoader::RunPostProcessScript
EXTRN	_memset:PROC
; Function compile flags: /Ogtpy
;	COMDAT ?RunPostProcessScript@CvWorldBuilderMapLoader@@SAHPAUlua_State@@@Z
_TEXT	SEGMENT
_uiGlobalsCount$ = -1060				; size = 4
_iTop$ = -1056						; size = 4
tv93 = -1052						; size = 4
_kEntry$225243 = -1048					; size = 8
_szMapScriptPath$225258 = -1040				; size = 1040
_L$ = 8							; size = 4
?RunPostProcessScript@CvWorldBuilderMapLoader@@SAHPAUlua_State@@@Z PROC ; CvWorldBuilderMapLoader::RunPostProcessScript, COMDAT

; 1752 : {

	sub	esp, 1060				; 00000424H
	push	ebp

; 1753 : 	if(L == NULL)

	mov	ebp, DWORD PTR _L$[esp+1060]
	test	ebp, ebp

; 1754 : 	{
; 1755 : 		FAssertMsg(L, "Seriously, you really need a lua state for this.");
; 1756 : 		return 0;

	je	$LN32@RunPostPro
	push	esi

; 1757 : 	}
; 1758 : 
; 1759 : 	const int iTop = lua_gettop(L);

	push	ebp
	call	_lua_gettop
	add	esp, 4

; 1760 : 
; 1761 : 	ModType& kGlobalsDataType = sg_kSave.m_kModData.m_kMapModData;
; 1762 : 	const uint uiGlobalsCount = kGlobalsDataType.GetFieldCount();

	mov	ecx, OFFSET _sg_kSave+2888
	mov	DWORD PTR _iTop$[esp+1068], eax
	call	?GetFieldCount@ModType@@QBEIXZ		; ModType::GetFieldCount
	mov	esi, eax
	mov	DWORD PTR _uiGlobalsCount$[esp+1068], esi

; 1763 : 	if(uiGlobalsCount > 0)

	test	esi, esi
	jbe	$LN10@RunPostPro
	push	ebx

; 1764 : 	{
; 1765 : 		ModDataEntry kEntry = sg_kSave.m_kModData.GetMapDataEntry();

	lea	eax, DWORD PTR _kEntry$225243[esp+1072]
	push	eax
	mov	ecx, OFFSET _sg_kSave+2888
	call	?GetMapDataEntry@CvWorldBuilderMapModData@@QAE?AVModDataEntry@@XZ ; CvWorldBuilderMapModData::GetMapDataEntry

; 1766 : 		for(uint uiField = 0; uiField < uiGlobalsCount; ++uiField)

	xor	ebx, ebx
	test	esi, esi
	jbe	$LN30@RunPostPro
	push	edi
	npad	9
$LL29@RunPostPro:

; 1767 : 		{
; 1768 : 			const char* szFieldName = kGlobalsDataType.GetFieldName(uiField);

	push	ebx
	mov	ecx, OFFSET _sg_kSave+2888
	call	?GetFieldName@ModType@@QBEPBDI@Z	; ModType::GetFieldName

; 1769 : 			if(szFieldName != NULL && strcmp(szFieldName, "PostProcessMapScript") == 0)

	test	eax, eax
	je	$LN11@RunPostPro
	mov	ecx, OFFSET $SG225251
$LL23@RunPostPro:
	mov	dl, BYTE PTR [eax]
	cmp	dl, BYTE PTR [ecx]
	jne	SHORT $LN24@RunPostPro
	test	dl, dl
	je	SHORT $LN25@RunPostPro
	mov	dl, BYTE PTR [eax+1]
	cmp	dl, BYTE PTR [ecx+1]
	jne	SHORT $LN24@RunPostPro
	add	eax, 2
	add	ecx, 2
	test	dl, dl
	jne	SHORT $LL23@RunPostPro
$LN25@RunPostPro:
	xor	eax, eax
	jmp	SHORT $LN26@RunPostPro
$LN24@RunPostPro:
	sbb	eax, eax
	sbb	eax, -1
$LN26@RunPostPro:
	test	eax, eax
	jne	$LN11@RunPostPro

; 1770 : 			{
; 1771 : 				if(kGlobalsDataType.GetFieldType(uiField) == ModType::TYPE_STRING)

	push	ebx
	mov	ecx, OFFSET _sg_kSave+2888
	call	?GetFieldType@ModType@@QBE?AW4FieldType@1@I@Z ; ModType::GetFieldType
	cmp	eax, 2
	jne	$LN11@RunPostPro

; 1772 : 				{
; 1773 : 					const char* szLua = kEntry.GetFieldAsString(uiField);

	push	ebx
	lea	ecx, DWORD PTR _kEntry$225243[esp+1080]
	call	?GetFieldAsString@ModDataEntry@@QBEPBDI@Z ; ModDataEntry::GetFieldAsString
	mov	edi, eax

; 1774 : #ifdef AUI_WARNING_FIXES
; 1775 : 					if (szLua == NULL || szLua[0] == '\0')
; 1776 : #else
; 1777 : 					if(szLua == NULL || strlen(szLua) == 0)

	test	edi, edi
	je	SHORT $LN6@RunPostPro
	lea	edx, DWORD PTR [eax+1]
	npad	4
$LL27@RunPostPro:
	mov	cl, BYTE PTR [eax]
	inc	eax
	test	cl, cl
	jne	SHORT $LL27@RunPostPro
	sub	eax, edx
	jne	SHORT $LN7@RunPostPro
$LN6@RunPostPro:

; 1778 : #endif
; 1779 : 					{
; 1780 : 						szLua = kGlobalsDataType.GetFieldDefaultAsString(uiField);

	push	ebx
	mov	ecx, OFFSET _sg_kSave+2888
	call	?GetFieldDefaultAsString@ModType@@QBEPBDI@Z ; ModType::GetFieldDefaultAsString
	mov	edi, eax
$LN7@RunPostPro:

; 1781 : 					}
; 1782 : 					
; 1783 : 					ICvEngineScriptSystem1* pkScriptSystem = gDLL->GetScriptSystem();

	mov	ecx, DWORD PTR ?gGlobals@@3VCvGlobals@@A+8564
	mov	edx, DWORD PTR [ecx]
	mov	eax, DWORD PTR [edx+12]
	call	eax
	mov	esi, eax

; 1784 : 					if(pkScriptSystem != NULL)

	test	esi, esi
	je	SHORT $LN11@RunPostPro

; 1785 : 					{
; 1786 : 						//1040 == _MAX_PATH * 4
; 1787 : 						char szMapScriptPath[1040] = {0};

	push	1039					; 0000040fH
	lea	ecx, DWORD PTR _szMapScriptPath$225258[esp+1081]
	push	0
	push	ecx
	mov	BYTE PTR _szMapScriptPath$225258[esp+1088], 0
	call	_memset

; 1788 : 						const bool bResult = gDLL->GetEvaluatedMapScriptPath(szLua, szMapScriptPath, 1040);

	mov	eax, DWORD PTR ?gGlobals@@3VCvGlobals@@A+8564
	mov	edx, DWORD PTR [eax]
	mov	edx, DWORD PTR [edx+1036]
	add	esp, 12					; 0000000cH
	push	1040					; 00000410H
	lea	ecx, DWORD PTR _szMapScriptPath$225258[esp+1080]
	push	ecx
	push	edi
	push	eax
	call	edx

; 1789 : 						if(!bResult)
; 1790 : 						{
; 1791 : 							FAssertMsg(0, "Failed to find \"PostProcessMap\" in Post Process Map Script.");
; 1792 : 						}
; 1793 : 
; 1794 : 						const bool bLoadedMapGenerator = pkScriptSystem->LoadFile(L, szMapScriptPath);

	mov	eax, DWORD PTR [esi]
	mov	edx, DWORD PTR [eax+8]
	lea	ecx, DWORD PTR _szMapScriptPath$225258[esp+1076]
	push	ecx
	push	ebp
	mov	ecx, esi
	call	edx

; 1795 : 						FAssertMsg(bLoadedMapGenerator, "Failed to load Post Process Map Script.");
; 1796 : 						if(bLoadedMapGenerator)

	test	al, al
	je	SHORT $LN11@RunPostPro

; 1797 : 						{
; 1798 : 							lua_getglobal(L, "PostProcessMap");

	push	OFFSET $SG225263
	push	-10002					; ffffd8eeH
	push	ebp
	call	_lua_getfield

; 1799 : 							if(lua_isfunction(L, -1))

	push	-1
	push	ebp
	call	_lua_type
	add	esp, 20					; 00000014H
	cmp	eax, 6
	jne	SHORT $LN11@RunPostPro

; 1800 : 								pkScriptSystem->CallFunction(L, 0, 0);

	mov	eax, DWORD PTR [esi]
	mov	edx, DWORD PTR [eax+28]
	push	0
	push	0
	push	ebp
	mov	ecx, esi
	call	edx
$LN11@RunPostPro:
	inc	ebx
	cmp	ebx, DWORD PTR _uiGlobalsCount$[esp+1076]
	jb	$LL29@RunPostPro
	pop	edi
$LN30@RunPostPro:
	pop	ebx
$LN10@RunPostPro:

; 1801 : 							else
; 1802 : 								FAssertMsg(0, "Failed to find \"PostProcessMap\" in Post Process Map Script.");
; 1803 : 						}
; 1804 : 					}
; 1805 : 				}
; 1806 : 			}
; 1807 : 		}
; 1808 : 	}
; 1809 : 
; 1810 : 	lua_settop(L, iTop);

	mov	eax, DWORD PTR _iTop$[esp+1068]
	push	eax
	push	ebp
	call	_lua_settop
	add	esp, 8
	pop	esi
$LN32@RunPostPro:

; 1811 : 
; 1812 : 	return 0;

	xor	eax, eax
	pop	ebp

; 1813 : }

	add	esp, 1060				; 00000424H
	ret	0
?RunPostProcessScript@CvWorldBuilderMapLoader@@SAHPAUlua_State@@@Z ENDP ; CvWorldBuilderMapLoader::RunPostProcessScript
_TEXT	ENDS
PUBLIC	?ValidateTerrain@CvWorldBuilderMapLoader@@SAXXZ	; CvWorldBuilderMapLoader::ValidateTerrain
EXTRN	?setTerrainType@CvPlot@@QAEXW4TerrainTypes@@_N1@Z:PROC ; CvPlot::setTerrainType
EXTRN	?getTerrainInfo@CvGlobals@@QAEPAVCvTerrainInfo@@W4TerrainTypes@@@Z:PROC ; CvGlobals::getTerrainInfo
EXTRN	?getNumTerrainInfos@CvGlobals@@QAEHXZ:PROC	; CvGlobals::getNumTerrainInfos
; Function compile flags: /Ogtpy
;	COMDAT ?ValidateTerrain@CvWorldBuilderMapLoader@@SAXXZ
_TEXT	SEGMENT
_eValidTerrain$ = -12					; size = 4
_kMap$ = -8						; size = 4
_iNumTerrainTypes$ = -4					; size = 4
?ValidateTerrain@CvWorldBuilderMapLoader@@SAXXZ PROC	; CvWorldBuilderMapLoader::ValidateTerrain, COMDAT

; 1817 : {

	sub	esp, 12					; 0000000cH
	push	ebx
	push	ebp

; 1818 : 	CvMap& kMap = GC.getMap();

	mov	ebp, DWORD PTR ?gGlobals@@3VCvGlobals@@A+52
	push	esi
	push	edi

; 1819 : 
; 1820 : 	TerrainTypes eValidTerrain = NO_TERRAIN;
; 1821 : 	const int iNumTerrainTypes = GC.getNumTerrainInfos();

	mov	ecx, OFFSET ?gGlobals@@3VCvGlobals@@A	; gGlobals
	mov	DWORD PTR _kMap$[esp+28], ebp
	mov	DWORD PTR _eValidTerrain$[esp+28], -1
	call	?getNumTerrainInfos@CvGlobals@@QAEHXZ	; CvGlobals::getNumTerrainInfos
	mov	edi, eax

; 1822 : 	for(int i = 0; i < iNumTerrainTypes; ++i)

	xor	esi, esi
	mov	DWORD PTR _iNumTerrainTypes$[esp+28], edi
	test	edi, edi
	jle	SHORT $LN10@ValidateTe
	npad	1
$LL12@ValidateTe:

; 1823 : 	{
; 1824 : 		const TerrainTypes eTerrain = (TerrainTypes)i;
; 1825 : 		const CvTerrainInfo* pkTerrain = GC.getTerrainInfo(eTerrain);

	push	esi
	mov	ecx, OFFSET ?gGlobals@@3VCvGlobals@@A	; gGlobals
	call	?getTerrainInfo@CvGlobals@@QAEPAVCvTerrainInfo@@W4TerrainTypes@@@Z ; CvGlobals::getTerrainInfo

; 1826 : 		if(pkTerrain != NULL)

	test	eax, eax
	jne	SHORT $LN31@ValidateTe
	inc	esi
	cmp	esi, edi
	jl	SHORT $LL12@ValidateTe
	jmp	SHORT $LN10@ValidateTe
$LN31@ValidateTe:

; 1827 : 		{
; 1828 : 			eValidTerrain = eTerrain;

	mov	DWORD PTR _eValidTerrain$[esp+28], esi
$LN10@ValidateTe:

; 1829 : 			break;
; 1830 : 		}
; 1831 : 	}
; 1832 : 
; 1833 : 	FAssertMsg(eValidTerrain != NO_TERRAIN, "Could not find ANY valid terrain types!");
; 1834 : 
; 1835 : 	const int iPlotCount = kMap.getGridWidth() * kMap.getGridHeight();

	mov	ebx, DWORD PTR [ebp+4024]
	imul	ebx, DWORD PTR [ebp+4020]

; 1836 : 	for(int i = 0; i < iPlotCount; ++i)

	xor	edi, edi
	test	ebx, ebx
	jle	SHORT $LN6@ValidateTe

; 1829 : 			break;
; 1830 : 		}
; 1831 : 	}
; 1832 : 
; 1833 : 	FAssertMsg(eValidTerrain != NO_TERRAIN, "Could not find ANY valid terrain types!");
; 1834 : 
; 1835 : 	const int iPlotCount = kMap.getGridWidth() * kMap.getGridHeight();

	xor	ebp, ebp
	npad	1
$LL8@ValidateTe:

; 1837 : 	{
; 1838 : 		CvPlot* pkPlot = kMap.plotByIndex(i);

	test	edi, edi
	jl	SHORT $LN7@ValidateTe
	mov	eax, DWORD PTR _kMap$[esp+28]
	cmp	edi, DWORD PTR [eax+4028]
	jge	SHORT $LN7@ValidateTe
	mov	esi, DWORD PTR [eax+4068]
	add	esi, ebp

; 1839 : 		if(pkPlot != NULL)

	je	SHORT $LN7@ValidateTe

; 1840 : 		{
; 1841 : 			const TerrainTypes eTerrainType = pkPlot->getTerrainType();

	movsx	eax, BYTE PTR [esi+6]

; 1842 : 			if(eTerrainType < 0 || eTerrainType >= iNumTerrainTypes)

	test	eax, eax
	jl	SHORT $LN3@ValidateTe
	cmp	eax, DWORD PTR _iNumTerrainTypes$[esp+28]
	jge	SHORT $LN3@ValidateTe

; 1845 : 			}
; 1846 : 			else
; 1847 : 			{
; 1848 : 				const CvTerrainInfo* pkTerrain = GC.getTerrainInfo(eTerrainType);

	push	eax
	mov	ecx, OFFSET ?gGlobals@@3VCvGlobals@@A	; gGlobals
	call	?getTerrainInfo@CvGlobals@@QAEPAVCvTerrainInfo@@W4TerrainTypes@@@Z ; CvGlobals::getTerrainInfo

; 1849 : 				if(pkTerrain == NULL)

	test	eax, eax
	jne	SHORT $LN7@ValidateTe

; 1850 : 					pkPlot->setTerrainType(eValidTerrain);

	mov	eax, DWORD PTR _eValidTerrain$[esp+28]
	push	1
	push	1
	push	eax
	jmp	SHORT $LN34@ValidateTe
$LN3@ValidateTe:

; 1843 : 			{
; 1844 : 				pkPlot->setTerrainType(eValidTerrain);

	mov	ecx, DWORD PTR _eValidTerrain$[esp+28]
	push	1
	push	1
	push	ecx
$LN34@ValidateTe:
	mov	ecx, esi
	call	?setTerrainType@CvPlot@@QAEXW4TerrainTypes@@_N1@Z ; CvPlot::setTerrainType
$LN7@ValidateTe:
	inc	edi
	add	ebp, 484				; 000001e4H
	cmp	edi, ebx
	jl	SHORT $LL8@ValidateTe
$LN6@ValidateTe:
	pop	edi
	pop	esi
	pop	ebp
	pop	ebx

; 1851 : 			}
; 1852 : 		}
; 1853 : 	}
; 1854 : }

	add	esp, 12					; 0000000cH
	ret	0
?ValidateTerrain@CvWorldBuilderMapLoader@@SAXXZ ENDP	; CvWorldBuilderMapLoader::ValidateTerrain
_TEXT	ENDS
PUBLIC	??1CvBaseInfo@@QAE@XZ				; CvBaseInfo::~CvBaseInfo
;	COMDAT xdata$x
xdata$x	SEGMENT
__ehfuncinfo$??1CvBaseInfo@@QAE@XZ DD 019930522H
	DD	08H
	DD	FLAT:__unwindtable$??1CvBaseInfo@@QAE@XZ
	DD	2 DUP(00H)
	DD	2 DUP(00H)
	DD	00H
	DD	01H
__unwindtable$??1CvBaseInfo@@QAE@XZ DD 0ffffffffH
	DD	FLAT:__unwindfunclet$??1CvBaseInfo@@QAE@XZ$0
	DD	00H
	DD	FLAT:__unwindfunclet$??1CvBaseInfo@@QAE@XZ$1
	DD	01H
	DD	FLAT:__unwindfunclet$??1CvBaseInfo@@QAE@XZ$2
	DD	02H
	DD	FLAT:__unwindfunclet$??1CvBaseInfo@@QAE@XZ$3
	DD	03H
	DD	FLAT:__unwindfunclet$??1CvBaseInfo@@QAE@XZ$4
	DD	04H
	DD	FLAT:__unwindfunclet$??1CvBaseInfo@@QAE@XZ$5
	DD	05H
	DD	FLAT:__unwindfunclet$??1CvBaseInfo@@QAE@XZ$6
	DD	06H
	DD	FLAT:__unwindfunclet$??1CvBaseInfo@@QAE@XZ$7
; Function compile flags: /Ogtpy
xdata$x	ENDS
;	COMDAT ??1CvBaseInfo@@QAE@XZ
_TEXT	SEGMENT
_this$ = -16						; size = 4
__$EHRec$ = -12						; size = 12
??1CvBaseInfo@@QAE@XZ PROC				; CvBaseInfo::~CvBaseInfo, COMDAT
; _this$ = ecx
	push	-1
	push	__ehhandler$??1CvBaseInfo@@QAE@XZ
	mov	eax, DWORD PTR fs:0
	push	eax
	mov	DWORD PTR fs:0, esp
	push	ecx
	push	esi
	mov	esi, ecx
	mov	DWORD PTR _this$[esp+20], esi
	lea	ecx, DWORD PTR [esi+232]
	mov	DWORD PTR __$EHRec$[esp+28], 7
	call	DWORD PTR __imp_??1?$basic_string@DU?$char_traits@D@std@@V?$allocator@D@2@@std@@QAE@XZ
	lea	ecx, DWORD PTR [esi+204]
	mov	BYTE PTR __$EHRec$[esp+28], 6
	call	DWORD PTR __imp_??1?$basic_string@DU?$char_traits@D@std@@V?$allocator@D@2@@std@@QAE@XZ
	lea	ecx, DWORD PTR [esi+176]
	mov	BYTE PTR __$EHRec$[esp+28], 5
	call	DWORD PTR __imp_??1?$basic_string@DU?$char_traits@D@std@@V?$allocator@D@2@@std@@QAE@XZ
	lea	ecx, DWORD PTR [esi+148]
	mov	BYTE PTR __$EHRec$[esp+28], 4
	call	DWORD PTR __imp_??1?$basic_string@DU?$char_traits@D@std@@V?$allocator@D@2@@std@@QAE@XZ
	lea	ecx, DWORD PTR [esi+120]
	mov	BYTE PTR __$EHRec$[esp+28], 3
	call	DWORD PTR __imp_??1?$basic_string@DU?$char_traits@D@std@@V?$allocator@D@2@@std@@QAE@XZ
	lea	ecx, DWORD PTR [esi+92]
	mov	BYTE PTR __$EHRec$[esp+28], 2
	call	DWORD PTR __imp_??1?$basic_string@DU?$char_traits@D@std@@V?$allocator@D@2@@std@@QAE@XZ
	lea	ecx, DWORD PTR [esi+64]
	mov	BYTE PTR __$EHRec$[esp+28], 1
	call	DWORD PTR __imp_??1?$basic_string@DU?$char_traits@D@std@@V?$allocator@D@2@@std@@QAE@XZ
	lea	ecx, DWORD PTR [esi+36]
	mov	BYTE PTR __$EHRec$[esp+28], 0
	call	DWORD PTR __imp_??1?$basic_string@DU?$char_traits@D@std@@V?$allocator@D@2@@std@@QAE@XZ
	lea	ecx, DWORD PTR [esi+8]
	mov	DWORD PTR __$EHRec$[esp+28], -1
	call	DWORD PTR __imp_??1?$basic_string@DU?$char_traits@D@std@@V?$allocator@D@2@@std@@QAE@XZ
	mov	ecx, DWORD PTR __$EHRec$[esp+20]
	pop	esi
	mov	DWORD PTR fs:0, ecx
	add	esp, 16					; 00000010H
	ret	0
_TEXT	ENDS
;	COMDAT text$x
text$x	SEGMENT
__unwindfunclet$??1CvBaseInfo@@QAE@XZ$0:
	mov	ecx, DWORD PTR _this$[ebp]
	add	ecx, 8
	jmp	??1CvString@@QAE@XZ			; CvString::~CvString
__unwindfunclet$??1CvBaseInfo@@QAE@XZ$1:
	mov	ecx, DWORD PTR _this$[ebp]
	add	ecx, 36					; 00000024H
	jmp	??1CvString@@QAE@XZ			; CvString::~CvString
__unwindfunclet$??1CvBaseInfo@@QAE@XZ$2:
	mov	ecx, DWORD PTR _this$[ebp]
	add	ecx, 64					; 00000040H
	jmp	??1CvString@@QAE@XZ			; CvString::~CvString
__unwindfunclet$??1CvBaseInfo@@QAE@XZ$3:
	mov	ecx, DWORD PTR _this$[ebp]
	add	ecx, 92					; 0000005cH
	jmp	??1CvString@@QAE@XZ			; CvString::~CvString
__unwindfunclet$??1CvBaseInfo@@QAE@XZ$4:
	mov	ecx, DWORD PTR _this$[ebp]
	add	ecx, 120				; 00000078H
	jmp	??1CvString@@QAE@XZ			; CvString::~CvString
__unwindfunclet$??1CvBaseInfo@@QAE@XZ$5:
	mov	ecx, DWORD PTR _this$[ebp]
	add	ecx, 148				; 00000094H
	jmp	??1CvString@@QAE@XZ			; CvString::~CvString
__unwindfunclet$??1CvBaseInfo@@QAE@XZ$6:
	mov	ecx, DWORD PTR _this$[ebp]
	add	ecx, 176				; 000000b0H
	jmp	??1CvString@@QAE@XZ			; CvString::~CvString
__unwindfunclet$??1CvBaseInfo@@QAE@XZ$7:
	mov	ecx, DWORD PTR _this$[ebp]
	add	ecx, 204				; 000000ccH
	jmp	??1CvString@@QAE@XZ			; CvString::~CvString
__ehhandler$??1CvBaseInfo@@QAE@XZ:
	mov	eax, OFFSET __ehfuncinfo$??1CvBaseInfo@@QAE@XZ
	jmp	___CxxFrameHandler3
text$x	ENDS
??1CvBaseInfo@@QAE@XZ ENDP				; CvBaseInfo::~CvBaseInfo
PUBLIC	?GetMapPlayers@CvWorldBuilderMapLoader@@SAHPAUlua_State@@@Z ; CvWorldBuilderMapLoader::GetMapPlayers
EXTRN	_lua_pushinteger:PROC
EXTRN	?Load@CvWorldBuilderMap@@QAE_NPB_WABVCvWorldBuilderMapTypeDesc@@_N@Z:PROC ; CvWorldBuilderMap::Load
EXTRN	__imp__MultiByteToWideChar@24:PROC
EXTRN	_luaL_checklstring:PROC
; Function compile flags: /Ogtpy
;	COMDAT ?GetMapPlayers@CvWorldBuilderMapLoader@@SAHPAUlua_State@@@Z
_TEXT	SEGMENT
_kPlayer$225488 = -544					; size = 4
_uiPlayer$225484 = -540					; size = 4
_iHandicapCount$225483 = -536				; size = 4
_eCivType$225489 = -532					; size = 4
_iCivCount$225482 = -528				; size = 4
_uiPlayerCount$225481 = -524				; size = 4
_wszMapFile$ = -520					; size = 520
_L$ = 8							; size = 4
?GetMapPlayers@CvWorldBuilderMapLoader@@SAHPAUlua_State@@@Z PROC ; CvWorldBuilderMapLoader::GetMapPlayers, COMDAT

; 2166 : {

	sub	esp, 544				; 00000220H
	push	esi

; 2167 : 	if(L == NULL)

	mov	esi, DWORD PTR _L$[esp+544]
	test	esi, esi
	jne	SHORT $LN15@GetMapPlay@2

; 2168 : 	{
; 2169 : 		FAssertMsg(L, "Seriously, you really need a lua state for this.");
; 2170 : 		return 0;

	xor	eax, eax
	pop	esi

; 2246 : }

	add	esp, 544				; 00000220H
	ret	0
$LN15@GetMapPlay@2:
	push	edi

; 2171 : 	}
; 2172 : 
; 2173 : 	const char* szUTF8MapFile = luaL_checkstring(L, 1);

	push	0
	push	1
	push	esi
	call	_luaL_checklstring
	mov	edi, eax

; 2174 : 
; 2175 : 	wchar_t wszMapFile[MAX_PATH] = {0};

	xor	eax, eax
	push	518					; 00000206H
	push	eax
	lea	ecx, DWORD PTR _wszMapFile$[esp+574]
	push	ecx
	mov	WORD PTR _wszMapFile$[esp+576], ax
	call	_memset
	add	esp, 24					; 00000018H

; 2176 : 	MultiByteToWideChar(CP_UTF8, 0, szUTF8MapFile, -1, wszMapFile, MAX_PATH);

	push	260					; 00000104H
	lea	edx, DWORD PTR _wszMapFile$[esp+556]
	push	edx
	push	-1
	push	edi
	push	0
	push	65001					; 0000fde9H
	call	DWORD PTR __imp__MultiByteToWideChar@24

; 2177 : 
; 2178 : 	if(CheckTempMap(wszMapFile) || sg_kTempMap.Load(wszMapFile, sg_kMapTypeDesc))

	lea	eax, DWORD PTR _wszMapFile$[esp+552]
	push	eax
	call	?CheckTempMap@@YA_NPB_W@Z		; CheckTempMap
	add	esp, 4
	test	al, al
	jne	SHORT $LN13@GetMapPlay@2
	push	1
	push	OFFSET _sg_kMapTypeDesc
	lea	ecx, DWORD PTR _wszMapFile$[esp+560]
	push	ecx
	mov	ecx, OFFSET _sg_kTempMap
	call	?Load@CvWorldBuilderMap@@QAE_NPB_WABVCvWorldBuilderMapTypeDesc@@_N@Z ; CvWorldBuilderMap::Load
	test	al, al
	jne	SHORT $LN13@GetMapPlay@2

; 2238 : 		}
; 2239 : 	}
; 2240 : 	else
; 2241 : 	{
; 2242 : 		lua_pushnil(L);

	push	esi
	call	_lua_pushnil
	add	esp, 4
	pop	edi

; 2243 : 	}
; 2244 : 
; 2245 : 	return 1;

	mov	eax, 1
	pop	esi

; 2246 : }

	add	esp, 544				; 00000220H
	ret	0
$LN13@GetMapPlay@2:

; 2179 : 	{
; 2180 : 		TempMapLoaded(wszMapFile);

	lea	edx, DWORD PTR _wszMapFile$[esp+552]
	push	edx
	push	260					; 00000104H
	push	OFFSET _sg_wszTempMapName
	call	DWORD PTR __imp__wcscpy_s

; 2181 : 
; 2182 : #ifdef AUI_WARNING_FIXES
; 2183 : 		const byte uiPlayerCount = sg_kTempMap.GetPlayerCount();
; 2184 : #else
; 2185 : 		const uint uiPlayerCount = sg_kTempMap.GetPlayerCount();

	movzx	edi, BYTE PTR _sg_kTempMap+12316
	add	esp, 12					; 0000000cH

; 2186 : #endif
; 2187 : 		const int iCivCount = GC.getNumCivilizationInfos();

	mov	ecx, OFFSET ?gGlobals@@3VCvGlobals@@A	; gGlobals
	mov	DWORD PTR _uiPlayerCount$225481[esp+552], edi
	call	?getNumCivilizationInfos@CvGlobals@@QAEHXZ ; CvGlobals::getNumCivilizationInfos

; 2188 : 		const int iHandicapCount = GC.getNumHandicapInfos();

	mov	ecx, OFFSET ?gGlobals@@3VCvGlobals@@A	; gGlobals
	mov	DWORD PTR _iCivCount$225482[esp+552], eax
	call	?getNumHandicapInfos@CvGlobals@@QAEHXZ	; CvGlobals::getNumHandicapInfos

; 2189 : 
; 2190 : 		lua_createtable(L, uiPlayerCount, 0);

	push	0
	push	edi
	push	esi
	mov	DWORD PTR _iHandicapCount$225483[esp+564], eax
	call	_lua_createtable

; 2191 : #ifdef AUI_WARNING_FIXES
; 2192 : 		for (byte uiPlayer = 0; uiPlayer < uiPlayerCount; ++uiPlayer)
; 2193 : #else
; 2194 : 		for(uint uiPlayer = 0; uiPlayer < uiPlayerCount; ++uiPlayer)

	xor	eax, eax
	add	esp, 12					; 0000000cH
	mov	DWORD PTR _uiPlayer$225484[esp+552], eax
	test	edi, edi
	jbe	$LN10@GetMapPlay@2
	push	ebx
	push	ebp
	jmp	SHORT $LN12@GetMapPlay@2
	npad	4
$LL48@GetMapPlay@2:
	mov	eax, DWORD PTR _uiPlayer$225484[esp+560]
$LN12@GetMapPlay@2:

; 2195 : #endif
; 2196 : 		{
; 2197 : 			const CvWorldBuilderMap::Player& kPlayer = sg_kTempMap.GetPlayer(uiPlayer);

	cmp	al, BYTE PTR _sg_kTempMap+12316
	jae	SHORT $LN23@GetMapPlay@2
	cmp	al, 32					; 00000020H
	jae	SHORT $LN23@GetMapPlay@2
	movzx	edi, al
	imul	edi, 436				; 000001b4H
	add	edi, OFFSET _sg_kTempMap+536608
	mov	DWORD PTR _kPlayer$225488[esp+560], edi
	jmp	SHORT $LN22@GetMapPlay@2
$LN23@GetMapPlay@2:
	mov	DWORD PTR _kPlayer$225488[esp+560], OFFSET ?sm_kErrorPlayer@CvWorldBuilderMap@@0UPlayer@1@A ; CvWorldBuilderMap::sm_kErrorPlayer
	mov	edi, DWORD PTR _kPlayer$225488[esp+560]
$LN22@GetMapPlay@2:

; 2198 : 
; 2199 : 			CivilizationTypes eCivType = NO_CIVILIZATION;
; 2200 : 			for(int iCiv = 0; iCiv < iCivCount; ++iCiv)

	xor	ebp, ebp
	cmp	DWORD PTR _iCivCount$225482[esp+560], ebp
	mov	DWORD PTR _eCivType$225489[esp+560], -1
	jle	SHORT $LN7@GetMapPlay@2
$LL9@GetMapPlay@2:

; 2201 : 			{
; 2202 : 				const CivilizationTypes eCurrentCiv = (CivilizationTypes)iCiv;
; 2203 : 				const CvCivilizationInfo* pkCiv = GC.getCivilizationInfo(eCurrentCiv);

	push	ebp
	mov	ecx, OFFSET ?gGlobals@@3VCvGlobals@@A	; gGlobals
	call	?getCivilizationInfo@CvGlobals@@QAEPAVCvCivilizationInfo@@W4CivilizationTypes@@@Z ; CvGlobals::getCivilizationInfo

; 2204 : 				if(pkCiv != NULL && strcmp(pkCiv->GetType(), kPlayer.m_szCivType) == 0)

	test	eax, eax
	je	SHORT $LN8@GetMapPlay@2
	lea	ecx, DWORD PTR [eax+176]
	add	edi, 160				; 000000a0H
	call	DWORD PTR __imp_?c_str@?$basic_string@DU?$char_traits@D@std@@V?$allocator@D@2@@std@@QBEPBDXZ
$LL40@GetMapPlay@2:
	mov	cl, BYTE PTR [eax]
	cmp	cl, BYTE PTR [edi]
	jne	SHORT $LN41@GetMapPlay@2
	test	cl, cl
	je	SHORT $LN42@GetMapPlay@2
	mov	cl, BYTE PTR [eax+1]
	cmp	cl, BYTE PTR [edi+1]
	jne	SHORT $LN41@GetMapPlay@2
	add	eax, 2
	add	edi, 2
	test	cl, cl
	jne	SHORT $LL40@GetMapPlay@2
$LN42@GetMapPlay@2:
	xor	eax, eax
	jmp	SHORT $LN43@GetMapPlay@2
$LN41@GetMapPlay@2:
	sbb	eax, eax
	sbb	eax, -1
$LN43@GetMapPlay@2:
	mov	edi, DWORD PTR _kPlayer$225488[esp+560]
	test	eax, eax
	je	SHORT $LN35@GetMapPlay@2
$LN8@GetMapPlay@2:

; 2198 : 
; 2199 : 			CivilizationTypes eCivType = NO_CIVILIZATION;
; 2200 : 			for(int iCiv = 0; iCiv < iCivCount; ++iCiv)

	inc	ebp
	cmp	ebp, DWORD PTR _iCivCount$225482[esp+560]
	jl	SHORT $LL9@GetMapPlay@2

; 2216 : 				if(pkHandicap != NULL && strcmp(pkHandicap->GetType(), kPlayer.m_szHandicap) == 0)

	jmp	SHORT $LN7@GetMapPlay@2
$LN35@GetMapPlay@2:

; 2205 : 				{
; 2206 : 					eCivType = eCurrentCiv;

	mov	DWORD PTR _eCivType$225489[esp+560], ebp
$LN7@GetMapPlay@2:

; 2207 : 					break;
; 2208 : 				}
; 2209 : 			}
; 2210 : 
; 2211 : 			HandicapTypes eHandicapType = (HandicapTypes)GC.getSTANDARD_HANDICAP();

	mov	ebx, DWORD PTR ?gGlobals@@3VCvGlobals@@A+8452

; 2212 : 			for(int iHandicap = 0; iHandicap < iHandicapCount; ++iHandicap)

	xor	ebp, ebp
	cmp	DWORD PTR _iHandicapCount$225483[esp+560], ebp
	jle	SHORT $LN3@GetMapPlay@2
	npad	6
$LL5@GetMapPlay@2:

; 2213 : 			{
; 2214 : 				const HandicapTypes eCurrentHandicap = (HandicapTypes)iHandicap;
; 2215 : 				const CvHandicapInfo* pkHandicap = GC.getHandicapInfo(eCurrentHandicap);

	push	ebp
	mov	ecx, OFFSET ?gGlobals@@3VCvGlobals@@A	; gGlobals
	call	?getHandicapInfo@CvGlobals@@QAEPAVCvHandicapInfo@@W4HandicapTypes@@@Z ; CvGlobals::getHandicapInfo

; 2216 : 				if(pkHandicap != NULL && strcmp(pkHandicap->GetType(), kPlayer.m_szHandicap) == 0)

	test	eax, eax
	je	SHORT $LN4@GetMapPlay@2
	lea	ecx, DWORD PTR [eax+176]
	add	edi, 352				; 00000160H
	call	DWORD PTR __imp_?c_str@?$basic_string@DU?$char_traits@D@std@@V?$allocator@D@2@@std@@QBEPBDXZ
$LL44@GetMapPlay@2:
	mov	cl, BYTE PTR [eax]
	cmp	cl, BYTE PTR [edi]
	jne	SHORT $LN45@GetMapPlay@2
	test	cl, cl
	je	SHORT $LN46@GetMapPlay@2
	mov	cl, BYTE PTR [eax+1]
	cmp	cl, BYTE PTR [edi+1]
	jne	SHORT $LN45@GetMapPlay@2
	add	eax, 2
	add	edi, 2
	test	cl, cl
	jne	SHORT $LL44@GetMapPlay@2
$LN46@GetMapPlay@2:
	xor	eax, eax
	jmp	SHORT $LN47@GetMapPlay@2
$LN45@GetMapPlay@2:
	sbb	eax, eax
	sbb	eax, -1
$LN47@GetMapPlay@2:
	mov	edi, DWORD PTR _kPlayer$225488[esp+560]
	test	eax, eax
	je	SHORT $LN36@GetMapPlay@2
$LN4@GetMapPlay@2:

; 2212 : 			for(int iHandicap = 0; iHandicap < iHandicapCount; ++iHandicap)

	inc	ebp
	cmp	ebp, DWORD PTR _iHandicapCount$225483[esp+560]
	jl	SHORT $LL5@GetMapPlay@2

; 2216 : 				if(pkHandicap != NULL && strcmp(pkHandicap->GetType(), kPlayer.m_szHandicap) == 0)

	jmp	SHORT $LN3@GetMapPlay@2
$LN36@GetMapPlay@2:

; 2217 : 				{
; 2218 : 					eHandicapType = eCurrentHandicap;

	mov	ebx, ebp
$LN3@GetMapPlay@2:

; 2219 : 					break;
; 2220 : 				}
; 2221 : 			}
; 2222 : 
; 2223 : 			lua_createtable(L, 0, 2);

	push	2
	push	0
	push	esi
	call	_lua_createtable

; 2224 : 
; 2225 : 			lua_pushstring(L, "CivType");

	push	OFFSET $SG225508
	push	esi
	call	_lua_pushstring

; 2226 : 			lua_pushinteger(L, eCivType);

	mov	eax, DWORD PTR _eCivType$225489[esp+580]
	push	eax
	push	esi
	call	_lua_pushinteger

; 2227 : 			lua_rawset(L, -3);

	push	-3					; fffffffdH
	push	esi
	call	_lua_rawset

; 2228 : 
; 2229 : 			lua_pushstring(L, "Playable");

	push	OFFSET $SG225509
	push	esi
	call	_lua_pushstring

; 2230 : 			lua_pushboolean(L, kPlayer.m_bPlayable);

	movzx	ecx, BYTE PTR [edi+433]
	push	ecx
	push	esi
	call	_lua_pushboolean

; 2231 : 			lua_rawset(L, -3);

	push	-3					; fffffffdH
	push	esi
	call	_lua_rawset

; 2232 : 
; 2233 : 			lua_pushstring(L, "DefaultHandicap");

	push	OFFSET $SG225510
	push	esi
	call	_lua_pushstring
	add	esp, 68					; 00000044H

; 2234 : 			lua_pushinteger(L, eHandicapType);

	push	ebx
	push	esi
	call	_lua_pushinteger

; 2235 : 			lua_rawset(L, -3);

	push	-3					; fffffffdH
	push	esi
	call	_lua_rawset

; 2236 : 
; 2237 : 			lua_rawseti(L, -2, uiPlayer + 1);

	mov	edi, DWORD PTR _uiPlayer$225484[esp+576]
	inc	edi
	push	edi
	push	-2					; fffffffeH
	push	esi
	call	_lua_rawseti
	add	esp, 28					; 0000001cH
	mov	DWORD PTR _uiPlayer$225484[esp+560], edi
	cmp	edi, DWORD PTR _uiPlayerCount$225481[esp+560]
	jb	$LL48@GetMapPlay@2
	pop	ebp
	pop	ebx
$LN10@GetMapPlay@2:
	pop	edi

; 2243 : 	}
; 2244 : 
; 2245 : 	return 1;

	mov	eax, 1
	pop	esi

; 2246 : }

	add	esp, 544				; 00000220H
	ret	0
?GetMapPlayers@CvWorldBuilderMapLoader@@SAHPAUlua_State@@@Z ENDP ; CvWorldBuilderMapLoader::GetMapPlayers
_TEXT	ENDS
PUBLIC	?AddRandomItems@CvWorldBuilderMapLoader@@SAHPAUlua_State@@@Z ; CvWorldBuilderMapLoader::AddRandomItems
EXTRN	?loadWBScenario@CvPreGame@@YA_NXZ:PROC		; CvPreGame::loadWBScenario
; Function compile flags: /Ogtpy
;	COMDAT ?AddRandomItems@CvWorldBuilderMapLoader@@SAHPAUlua_State@@@Z
_TEXT	SEGMENT
_bRandomGoodies$ = 8					; size = 1
_L$ = 8							; size = 4
?AddRandomItems@CvWorldBuilderMapLoader@@SAHPAUlua_State@@@Z PROC ; CvWorldBuilderMapLoader::AddRandomItems, COMDAT

; 2249 : {

	push	esi

; 2250 : 	if(L == NULL)

	mov	esi, DWORD PTR _L$[esp]
	test	esi, esi

; 2251 : 	{
; 2252 : 		FAssertMsg(L, "Seriously, you really need a lua state for this.");
; 2253 : 		return 0;

	je	$LN25@AddRandomI
	push	ebx
	push	ebp
	push	edi

; 2254 : 	}
; 2255 : 
; 2256 : 	const int iTop = lua_gettop(L);

	push	esi
	call	_lua_gettop
	mov	ebp, eax

; 2257 : 
; 2258 : 	const bool bRandomGoodies =
; 2259 : 	    sg_kSave.GetFlag(CvWorldBuilderMap::FLAG_RANDOM_GOODIES) ||
; 2260 : 	    (sg_kSave.GetFlag(CvWorldBuilderMap::FLAG_OLD_GOODIE_RULES) && !CvPreGame::loadWBScenario());

	mov	eax, DWORD PTR _sg_kSave+12224
	mov	ecx, eax
	shr	ecx, 2
	add	esp, 4
	test	cl, 1
	jne	SHORT $LN24@AddRandomI
	shr	eax, 3
	test	al, 1
	je	SHORT $LN13@AddRandomI
	call	?loadWBScenario@CvPreGame@@YA_NXZ	; CvPreGame::loadWBScenario
	test	al, al
	je	SHORT $LN24@AddRandomI
$LN13@AddRandomI:
	mov	BYTE PTR _bRandomGoodies$[esp+12], 0
	jmp	SHORT $LN15@AddRandomI
$LN24@AddRandomI:
	mov	BYTE PTR _bRandomGoodies$[esp+12], 1
$LN15@AddRandomI:

; 2261 : 
; 2262 : 	const bool bRandomResources = sg_kSave.GetFlag(CvWorldBuilderMap::FLAG_RANDOM_RECOURCES);
; 2263 : 
; 2264 : 	ICvEngineScriptSystem1* pkScriptSystem = gDLL->GetScriptSystem();

	mov	ecx, DWORD PTR ?gGlobals@@3VCvGlobals@@A+8564
	mov	ebx, DWORD PTR _sg_kSave+12224
	mov	edx, DWORD PTR [ecx]
	mov	eax, DWORD PTR [edx+12]
	shr	ebx, 1
	and	bl, 1
	call	eax
	mov	edi, eax

; 2265 : 	if(pkScriptSystem != NULL && (bRandomResources || bRandomGoodies))

	test	edi, edi
	je	$LN2@AddRandomI
	test	bl, bl
	jne	SHORT $LN8@AddRandomI
	cmp	BYTE PTR _bRandomGoodies$[esp+12], bl
	je	SHORT $LN2@AddRandomI
$LN8@AddRandomI:

; 2266 : 	{
; 2267 : 		const char* szLuaFile = "WorldBuilderRandomItems.lua";
; 2268 : 		const bool bLoadedMapGenerator = pkScriptSystem->LoadFile(L, szLuaFile);

	mov	edx, DWORD PTR [edi]
	mov	eax, DWORD PTR [edx+8]
	push	OFFSET $SG225523
	push	esi
	mov	ecx, edi
	call	eax

; 2269 : 		FAssertMsg1(bLoadedMapGenerator, "Failed to load %s", szLuaFile);
; 2270 : 		if(bLoadedMapGenerator)

	test	al, al
	je	SHORT $LN2@AddRandomI

; 2271 : 		{
; 2272 : 			if(bRandomGoodies)

	cmp	BYTE PTR _bRandomGoodies$[esp+12], 0
	je	SHORT $LN5@AddRandomI

; 2273 : 			{
; 2274 : 				const char* szGoodiesFunction = "AddGoodies";
; 2275 : 				lua_getglobal(L, szGoodiesFunction);

	push	OFFSET $SG225528
	push	-10002					; ffffd8eeH
	push	esi
	call	_lua_getfield

; 2276 : 				if(lua_isfunction(L, -1))

	push	-1
	push	esi
	call	_lua_type
	add	esp, 20					; 00000014H
	cmp	eax, 6
	jne	SHORT $LN5@AddRandomI

; 2277 : 					pkScriptSystem->CallFunction(L, 0, 0);

	mov	edx, DWORD PTR [edi]
	mov	eax, DWORD PTR [edx+28]
	push	0
	push	0
	push	esi
	mov	ecx, edi
	call	eax
$LN5@AddRandomI:

; 2278 : 				else
; 2279 : 					FAssertMsg2(0, "Failed to find \"%s\" in %s", szGoodiesFunction, szLuaFile);
; 2280 : 			}
; 2281 : 
; 2282 : 			if(bRandomResources)

	test	bl, bl
	je	SHORT $LN2@AddRandomI

; 2283 : 			{
; 2284 : 				const char* szResourcesFunction = "AddResourcesForWorldBuilderMap";
; 2285 : 				lua_getglobal(L, szResourcesFunction);

	push	OFFSET $SG225533
	push	-10002					; ffffd8eeH
	push	esi
	call	_lua_getfield

; 2286 : 				if(lua_isfunction(L, -1))

	push	-1
	push	esi
	call	_lua_type
	add	esp, 20					; 00000014H
	cmp	eax, 6
	jne	SHORT $LN2@AddRandomI

; 2287 : 					pkScriptSystem->CallFunction(L, 0, 0);

	mov	edx, DWORD PTR [edi]
	mov	eax, DWORD PTR [edx+28]
	push	0
	push	0
	push	esi
	mov	ecx, edi
	call	eax
$LN2@AddRandomI:

; 2288 : 				else
; 2289 : 					FAssertMsg2(0, "Failed to find \"%s\" in %s", szResourcesFunction, szLuaFile);
; 2290 : 			}
; 2291 : 		}
; 2292 : 	}
; 2293 : 
; 2294 : 	lua_settop(L, iTop);

	push	ebp
	push	esi
	call	_lua_settop
	add	esp, 8
	pop	edi
	pop	ebp
	pop	ebx
$LN25@AddRandomI:

; 2295 : 
; 2296 : 	return 0;

	xor	eax, eax
	pop	esi

; 2297 : }

	ret	0
?AddRandomItems@CvWorldBuilderMapLoader@@SAHPAUlua_State@@@Z ENDP ; CvWorldBuilderMapLoader::AddRandomItems
_TEXT	ENDS
PUBLIC	?ScatterResources@CvWorldBuilderMapLoader@@SAHPAUlua_State@@@Z ; CvWorldBuilderMapLoader::ScatterResources
; Function compile flags: /Ogtpy
;	COMDAT ?ScatterResources@CvWorldBuilderMapLoader@@SAHPAUlua_State@@@Z
_TEXT	SEGMENT
_L$ = 8							; size = 4
?ScatterResources@CvWorldBuilderMapLoader@@SAHPAUlua_State@@@Z PROC ; CvWorldBuilderMapLoader::ScatterResources, COMDAT

; 2300 : {

	push	edi

; 2301 : 	if(L == NULL)

	mov	edi, DWORD PTR _L$[esp]
	test	edi, edi

; 2302 : 	{
; 2303 : 		FAssertMsg(L, "Seriously, you really need a lua state for this.");
; 2304 : 		return 0;

	je	SHORT $LN10@ScatterRes
	push	ebx
	push	esi

; 2305 : 	}
; 2306 : 
; 2307 : 	const int iTop = lua_gettop(L);

	push	edi
	call	_lua_gettop

; 2308 : 
; 2309 : 	ICvEngineScriptSystem1* pkScriptSystem = gDLL->GetScriptSystem();

	mov	ecx, DWORD PTR ?gGlobals@@3VCvGlobals@@A+8564
	mov	ebx, eax
	mov	eax, DWORD PTR [ecx]
	mov	edx, DWORD PTR [eax+12]
	add	esp, 4
	call	edx
	mov	esi, eax

; 2310 : 	if(pkScriptSystem != NULL)

	test	esi, esi
	je	SHORT $LN2@ScatterRes

; 2311 : 	{
; 2312 : 		const bool bLoadedMapGenerator = pkScriptSystem->LoadFile(L, "WorldBuilderRandomItems.lua");

	mov	eax, DWORD PTR [esi]
	mov	edx, DWORD PTR [eax+8]
	push	OFFSET $SG225544
	push	edi
	mov	ecx, esi
	call	edx

; 2313 : 		FAssertMsg(bLoadedMapGenerator, "Failed to load WorldBuilderRandomItems.lua");
; 2314 : 		if(bLoadedMapGenerator)

	test	al, al
	je	SHORT $LN2@ScatterRes

; 2315 : 		{
; 2316 : 			lua_getglobal(L, "AddResourcesForWorldBuilderMap");

	push	OFFSET $SG225546
	push	-10002					; ffffd8eeH
	push	edi
	call	_lua_getfield

; 2317 : 			if(lua_isfunction(L, -1))

	push	-1
	push	edi
	call	_lua_type
	add	esp, 20					; 00000014H
	cmp	eax, 6
	jne	SHORT $LN2@ScatterRes

; 2318 : 				pkScriptSystem->CallFunction(L, 0, 0);

	mov	eax, DWORD PTR [esi]
	mov	edx, DWORD PTR [eax+28]
	push	0
	push	0
	push	edi
	mov	ecx, esi
	call	edx
$LN2@ScatterRes:

; 2319 : 			else
; 2320 : 				FAssertMsg(0, "Failed to find \"AddResourcesForWorldBuilderMap\" in WorldBuilderRandomItems.lua");
; 2321 : 		}
; 2322 : 	}
; 2323 : 
; 2324 : 	lua_settop(L, iTop);

	push	ebx
	push	edi
	call	_lua_settop
	add	esp, 8
	pop	esi
	pop	ebx
$LN10@ScatterRes:

; 2325 : 
; 2326 : 	return 0;

	xor	eax, eax
	pop	edi

; 2327 : }

	ret	0
?ScatterResources@CvWorldBuilderMapLoader@@SAHPAUlua_State@@@Z ENDP ; CvWorldBuilderMapLoader::ScatterResources
_TEXT	ENDS
PUBLIC	?ScatterGoodies@CvWorldBuilderMapLoader@@SAHPAUlua_State@@@Z ; CvWorldBuilderMapLoader::ScatterGoodies
; Function compile flags: /Ogtpy
;	COMDAT ?ScatterGoodies@CvWorldBuilderMapLoader@@SAHPAUlua_State@@@Z
_TEXT	SEGMENT
_L$ = 8							; size = 4
?ScatterGoodies@CvWorldBuilderMapLoader@@SAHPAUlua_State@@@Z PROC ; CvWorldBuilderMapLoader::ScatterGoodies, COMDAT

; 2330 : {

	push	edi

; 2331 : 	if(L == NULL)

	mov	edi, DWORD PTR _L$[esp]
	test	edi, edi

; 2332 : 	{
; 2333 : 		FAssertMsg(L, "Seriously, you really need a lua state for this.");
; 2334 : 		return 0;

	je	SHORT $LN10@ScatterGoo
	push	ebx
	push	esi

; 2335 : 	}
; 2336 : 
; 2337 : 	const int iTop = lua_gettop(L);

	push	edi
	call	_lua_gettop

; 2338 : 
; 2339 : 	ICvEngineScriptSystem1* pkScriptSystem = gDLL->GetScriptSystem();

	mov	ecx, DWORD PTR ?gGlobals@@3VCvGlobals@@A+8564
	mov	ebx, eax
	mov	eax, DWORD PTR [ecx]
	mov	edx, DWORD PTR [eax+12]
	add	esp, 4
	call	edx
	mov	esi, eax

; 2340 : 	if(pkScriptSystem != NULL)

	test	esi, esi
	je	SHORT $LN2@ScatterGoo

; 2341 : 	{
; 2342 : 		const bool bLoadedMapGenerator = pkScriptSystem->LoadFile(L, "WorldBuilderRandomItems.lua");

	mov	eax, DWORD PTR [esi]
	mov	edx, DWORD PTR [eax+8]
	push	OFFSET $SG225557
	push	edi
	mov	ecx, esi
	call	edx

; 2343 : 		FAssertMsg(bLoadedMapGenerator, "Failed to load WorldBuilderRandomItems.lua");
; 2344 : 		if(bLoadedMapGenerator)

	test	al, al
	je	SHORT $LN2@ScatterGoo

; 2345 : 		{
; 2346 : 			lua_getglobal(L, "AddGoodies");

	push	OFFSET $SG225559
	push	-10002					; ffffd8eeH
	push	edi
	call	_lua_getfield

; 2347 : 			if(lua_isfunction(L, -1))

	push	-1
	push	edi
	call	_lua_type
	add	esp, 20					; 00000014H
	cmp	eax, 6
	jne	SHORT $LN2@ScatterGoo

; 2348 : 				pkScriptSystem->CallFunction(L, 0, 0);

	mov	eax, DWORD PTR [esi]
	mov	edx, DWORD PTR [eax+28]
	push	0
	push	0
	push	edi
	mov	ecx, esi
	call	edx
$LN2@ScatterGoo:

; 2349 : 			else
; 2350 : 				FAssertMsg(0, "Failed to find \"AddGoodies\" in WorldBuilderRandomItems.lua");
; 2351 : 		}
; 2352 : 	}
; 2353 : 
; 2354 : 	lua_settop(L, iTop);

	push	ebx
	push	edi
	call	_lua_settop
	add	esp, 8
	pop	esi
	pop	ebx
$LN10@ScatterGoo:

; 2355 : 
; 2356 : 	return 0;

	xor	eax, eax
	pop	edi

; 2357 : }

	ret	0
?ScatterGoodies@CvWorldBuilderMapLoader@@SAHPAUlua_State@@@Z ENDP ; CvWorldBuilderMapLoader::ScatterGoodies
_TEXT	ENDS
PUBLIC	??1?$_Vector_val@VString@CvWorldBuilderMapTypeDesc@@V?$allocator@VString@CvWorldBuilderMapTypeDesc@@@std@@@std@@QAE@XZ ; std::_Vector_val<CvWorldBuilderMapTypeDesc::String,std::allocator<CvWorldBuilderMapTypeDesc::String> >::~_Vector_val<CvWorldBuilderMapTypeDesc::String,std::allocator<CvWorldBuilderMapTypeDesc::String> >
; Function compile flags: /Ogtpy
;	COMDAT ??1?$_Vector_val@VString@CvWorldBuilderMapTypeDesc@@V?$allocator@VString@CvWorldBuilderMapTypeDesc@@@std@@@std@@QAE@XZ
_TEXT	SEGMENT
??1?$_Vector_val@VString@CvWorldBuilderMapTypeDesc@@V?$allocator@VString@CvWorldBuilderMapTypeDesc@@@std@@@std@@QAE@XZ PROC ; std::_Vector_val<CvWorldBuilderMapTypeDesc::String,std::allocator<CvWorldBuilderMapTypeDesc::String> >::~_Vector_val<CvWorldBuilderMapTypeDesc::String,std::allocator<CvWorldBuilderMapTypeDesc::String> >, COMDAT
; _this$ = ecx
	ret	0
??1?$_Vector_val@VString@CvWorldBuilderMapTypeDesc@@V?$allocator@VString@CvWorldBuilderMapTypeDesc@@@std@@@std@@QAE@XZ ENDP ; std::_Vector_val<CvWorldBuilderMapTypeDesc::String,std::allocator<CvWorldBuilderMapTypeDesc::String> >::~_Vector_val<CvWorldBuilderMapTypeDesc::String,std::allocator<CvWorldBuilderMapTypeDesc::String> >
_TEXT	ENDS
PUBLIC	?test@?$bitset@$0BAA@@std@@QBE_NI@Z		; std::bitset<256>::test
; Function compile flags: /Ogtpy
; File c:\program files (x86)\microsoft visual studio 9.0\vc\include\bitset
;	COMDAT ?test@?$bitset@$0BAA@@std@@QBE_NI@Z
_TEXT	SEGMENT
__Pos$ = 8						; size = 4
?test@?$bitset@$0BAA@@std@@QBE_NI@Z PROC		; std::bitset<256>::test, COMDAT
; _this$ = ecx

; 354  : 		if (_Bits <= _Pos)

	mov	edx, DWORD PTR __Pos$[esp-4]
	push	esi
	mov	esi, ecx
	cmp	edx, 256				; 00000100H
	jb	SHORT $LN1@test

; 355  : 			_Xran();	// _Pos off end

	call	?_Xran@?$bitset@$0BAA@@std@@ABEXXZ	; std::bitset<256>::_Xran
$LN5@test:
$LN1@test:

; 356  : 		return ((_Array[_Pos / _Bitsperword]
; 357  : 			& ((_Ty)1 << _Pos % _Bitsperword)) != 0);

	mov	ecx, edx
	and	ecx, 31					; 0000001fH
	mov	eax, 1
	shl	eax, cl
	shr	edx, 5
	and	eax, DWORD PTR [esi+edx*4]
	pop	esi
	neg	eax
	sbb	eax, eax
	neg	eax

; 358  : 		}

	ret	4
$LN4@test:
?test@?$bitset@$0BAA@@std@@QBE_NI@Z ENDP		; std::bitset<256>::test
_TEXT	ENDS
PUBLIC	??0FStringW@@QAE@XZ				; FStringW::FStringW
; Function compile flags: /Ogtpy
; File c:\users\enormousapplepie\documents\github\lekmod\lekmod_dll\fireplace\include\fireworks\fstringw.inl
;	COMDAT ??0FStringW@@QAE@XZ
_TEXT	SEGMENT
??0FStringW@@QAE@XZ PROC				; FStringW::FStringW, COMDAT
; _this$ = ecx

; 85   : {

	push	esi
	mov	esi, ecx

; 86   : 	Init();

	call	?FStringW_GetStringInitData@@YAPAUFStringWData@FStringW@@XZ ; FStringW_GetStringInitData
	add	eax, 12					; 0000000cH
	mov	DWORD PTR [esi], eax

; 87   : }

	mov	eax, esi
	pop	esi
	ret	0
??0FStringW@@QAE@XZ ENDP				; FStringW::FStringW
_TEXT	ENDS
PUBLIC	?test@?$bitset@$0CAA@@std@@QBE_NI@Z		; std::bitset<512>::test
; Function compile flags: /Ogtpy
; File c:\program files (x86)\microsoft visual studio 9.0\vc\include\bitset
;	COMDAT ?test@?$bitset@$0CAA@@std@@QBE_NI@Z
_TEXT	SEGMENT
__Pos$ = 8						; size = 4
?test@?$bitset@$0CAA@@std@@QBE_NI@Z PROC		; std::bitset<512>::test, COMDAT
; _this$ = ecx

; 354  : 		if (_Bits <= _Pos)

	mov	edx, DWORD PTR __Pos$[esp-4]
	push	esi
	mov	esi, ecx
	cmp	edx, 512				; 00000200H
	jb	SHORT $LN1@test@2

; 355  : 			_Xran();	// _Pos off end

	call	?_Xran@?$bitset@$0CAA@@std@@ABEXXZ	; std::bitset<512>::_Xran
$LN5@test@2:
$LN1@test@2:

; 356  : 		return ((_Array[_Pos / _Bitsperword]
; 357  : 			& ((_Ty)1 << _Pos % _Bitsperword)) != 0);

	mov	ecx, edx
	and	ecx, 31					; 0000001fH
	mov	eax, 1
	shl	eax, cl
	shr	edx, 5
	and	eax, DWORD PTR [esi+edx*4]
	pop	esi
	neg	eax
	sbb	eax, eax
	neg	eax

; 358  : 		}

	ret	4
$LN4@test@2:
?test@?$bitset@$0CAA@@std@@QBE_NI@Z ENDP		; std::bitset<512>::test
_TEXT	ENDS
PUBLIC	?GetBitIndex@?$FRelationshipBitset@$0GA@$00@@CA?BIII@Z ; FRelationshipBitset<96,1>::GetBitIndex
; Function compile flags: /Ogtpy
; File c:\users\enormousapplepie\documents\github\lekmod\lekmod_dll\cvworldbuildermap\include\frelationshipbitset.h
;	COMDAT ?GetBitIndex@?$FRelationshipBitset@$0GA@$00@@CA?BIII@Z
_TEXT	SEGMENT
_uiFirst$ = 8						; size = 4
_uiSecond$ = 12						; size = 4
?GetBitIndex@?$FRelationshipBitset@$0GA@$00@@CA?BIII@Z PROC ; FRelationshipBitset<96,1>::GetBitIndex, COMDAT

; 98   : 		FAssertMsg(uiFirst != uiSecond, "There are no self relations in this bitset");
; 99   : 
; 100  : 		uint uiLarge, uiSmall;
; 101  : 		if( uiFirst > uiSecond )

	mov	eax, DWORD PTR _uiFirst$[esp-4]
	mov	edx, DWORD PTR _uiSecond$[esp-4]
	cmp	eax, edx
	jbe	SHORT $LN2@GetBitInde

; 102  : 		{
; 103  : 			uiLarge = uiFirst;

	mov	ecx, eax

; 110  : 		}
; 111  : 
; 112  : 		FAssertMsg(uiLarge < TElementCount, "Out of range!");
; 113  : 
; 114  : 		// uiStart represents the start of the bitfield for the large index
; 115  : 		const uint uiStart = GetTotalBitCount(uiLarge); // Get the bitcount leading up to this

	lea	eax, DWORD PTR [ecx-1]
	imul	eax, ecx
	shr	eax, 1

; 116  : 		return uiStart + uiSmall;

	add	eax, edx

; 117  : 	}

	ret	0
$LN2@GetBitInde:

; 104  : 			uiSmall = uiSecond;
; 105  : 		}
; 106  : 		else
; 107  : 		{
; 108  : 			uiLarge = uiSecond;

	mov	ecx, edx

; 109  : 			uiSmall = uiFirst;

	mov	edx, eax

; 110  : 		}
; 111  : 
; 112  : 		FAssertMsg(uiLarge < TElementCount, "Out of range!");
; 113  : 
; 114  : 		// uiStart represents the start of the bitfield for the large index
; 115  : 		const uint uiStart = GetTotalBitCount(uiLarge); // Get the bitcount leading up to this

	lea	eax, DWORD PTR [ecx-1]
	imul	eax, ecx
	shr	eax, 1

; 116  : 		return uiStart + uiSmall;

	add	eax, edx

; 117  : 	}

	ret	0
?GetBitIndex@?$FRelationshipBitset@$0GA@$00@@CA?BIII@Z ENDP ; FRelationshipBitset<96,1>::GetBitIndex
_TEXT	ENDS
PUBLIC	?GetBitIndex@?$FRelationshipBitset@$0GA@$0A@@@CA?BIII@Z ; FRelationshipBitset<96,0>::GetBitIndex
; Function compile flags: /Ogtpy
;	COMDAT ?GetBitIndex@?$FRelationshipBitset@$0GA@$0A@@@CA?BIII@Z
_TEXT	SEGMENT
_uiFirst$ = 8						; size = 4
_uiSecond$ = 12						; size = 4
?GetBitIndex@?$FRelationshipBitset@$0GA@$0A@@@CA?BIII@Z PROC ; FRelationshipBitset<96,0>::GetBitIndex, COMDAT

; 98   : 		FAssertMsg(uiFirst != uiSecond, "There are no self relations in this bitset");
; 99   : 
; 100  : 		uint uiLarge, uiSmall;
; 101  : 		if( uiFirst > uiSecond )

	mov	eax, DWORD PTR _uiFirst$[esp-4]
	mov	edx, DWORD PTR _uiSecond$[esp-4]
	cmp	eax, edx
	jbe	SHORT $LN2@GetBitInde@2

; 102  : 		{
; 103  : 			uiLarge = uiFirst;

	mov	ecx, eax

; 110  : 		}
; 111  : 
; 112  : 		FAssertMsg(uiLarge < TElementCount, "Out of range!");
; 113  : 
; 114  : 		// uiStart represents the start of the bitfield for the large index
; 115  : 		const uint uiStart = GetTotalBitCount(uiLarge); // Get the bitcount leading up to this

	lea	eax, DWORD PTR [ecx-1]
	imul	eax, ecx
	shr	eax, 1

; 116  : 		return uiStart + uiSmall;

	add	eax, edx

; 117  : 	}

	ret	0
$LN2@GetBitInde@2:

; 104  : 			uiSmall = uiSecond;
; 105  : 		}
; 106  : 		else
; 107  : 		{
; 108  : 			uiLarge = uiSecond;

	mov	ecx, edx

; 109  : 			uiSmall = uiFirst;

	mov	edx, eax

; 110  : 		}
; 111  : 
; 112  : 		FAssertMsg(uiLarge < TElementCount, "Out of range!");
; 113  : 
; 114  : 		// uiStart represents the start of the bitfield for the large index
; 115  : 		const uint uiStart = GetTotalBitCount(uiLarge); // Get the bitcount leading up to this

	lea	eax, DWORD PTR [ecx-1]
	imul	eax, ecx
	shr	eax, 1

; 116  : 		return uiStart + uiSmall;

	add	eax, edx

; 117  : 	}

	ret	0
?GetBitIndex@?$FRelationshipBitset@$0GA@$0A@@@CA?BIII@Z ENDP ; FRelationshipBitset<96,0>::GetBitIndex
_TEXT	ENDS
PUBLIC	??4FStringW@@QAEABV0@PB_W@Z			; FStringW::operator=
EXTRN	?Copy@FStringW@@QAEXHPB_WH@Z:PROC		; FStringW::Copy
; Function compile flags: /Ogtpy
; File c:\users\enormousapplepie\documents\github\lekmod\lekmod_dll\fireplace\include\fireworks\fstringw.inl
;	COMDAT ??4FStringW@@QAEABV0@PB_W@Z
_TEXT	SEGMENT
_lpszSource$ = 8					; size = 4
??4FStringW@@QAEABV0@PB_W@Z PROC			; FStringW::operator=, COMDAT
; _this$ = ecx

; 174  : 	Copy( SafeStrlen( lpszSource ), lpszSource );

	mov	edx, DWORD PTR _lpszSource$[esp-4]
	push	esi
	mov	esi, ecx
	test	edx, edx
	je	SHORT $LN5@operator@4
	mov	eax, edx
	push	edi
	lea	edi, DWORD PTR [eax+2]
$LL7@operator@4:
	mov	cx, WORD PTR [eax]
	add	eax, 2
	test	cx, cx
	jne	SHORT $LL7@operator@4
	sub	eax, edi
	pop	edi
	push	0
	sar	eax, 1
	push	edx
	push	eax
	mov	ecx, esi
	call	?Copy@FStringW@@QAEXHPB_WH@Z		; FStringW::Copy

; 175  : 
; 176  : 	return ( *this );

	mov	eax, esi
	pop	esi

; 177  : }

	ret	4

; 174  : 	Copy( SafeStrlen( lpszSource ), lpszSource );

$LN5@operator@4:
	xor	eax, eax
	push	eax
	push	edx
	push	eax
	mov	ecx, esi
	call	?Copy@FStringW@@QAEXHPB_WH@Z		; FStringW::Copy

; 175  : 
; 176  : 	return ( *this );

	mov	eax, esi
	pop	esi

; 177  : }

	ret	4
??4FStringW@@QAEABV0@PB_W@Z ENDP			; FStringW::operator=
_TEXT	ENDS
PUBLIC	?Alloc@?$FFastVector@PAVCvPlayer@@$0A@$0A@$0A@UFDefaultFastVectorAllocator@?$BaseVector@PAVCvPlayer@@$0A@@@@@IAEPAPAVCvPlayer@@I@Z ; FFastVector<CvPlayer *,0,0,0,BaseVector<CvPlayer *,0>::FDefaultFastVectorAllocator>::Alloc
; Function compile flags: /Ogtpy
; File c:\users\enormousapplepie\documents\github\lekmod\lekmod_dll\fireplace\include\fireworks\ffastvector.h
;	COMDAT ?Alloc@?$FFastVector@PAVCvPlayer@@$0A@$0A@$0A@UFDefaultFastVectorAllocator@?$BaseVector@PAVCvPlayer@@$0A@@@@@IAEPAPAVCvPlayer@@I@Z
_TEXT	SEGMENT
_uiSize$ = 8						; size = 4
?Alloc@?$FFastVector@PAVCvPlayer@@$0A@$0A@$0A@UFDefaultFastVectorAllocator@?$BaseVector@PAVCvPlayer@@$0A@@@@@IAEPAPAVCvPlayer@@I@Z PROC ; FFastVector<CvPlayer *,0,0,0,BaseVector<CvPlayer *,0>::FDefaultFastVectorAllocator>::Alloc, COMDAT
; _this$ = ecx

; 503  : 	T* Alloc( unsigned int uiSize ){

	push	esi

; 504  : 		if( uiSize > 0 ){

	mov	esi, DWORD PTR _uiSize$[esp]
	push	edi
	mov	edi, ecx
	test	esi, esi
	jbe	SHORT $LN1@Alloc

; 505  :             
; 506  :             T* pRet = (T*)FAST_VEC_ALLOC::AllocAligned( uiSize*sizeof(T), __alignof(T), AllocPool, nSubID );

	push	85					; 00000055H
	push	OFFSET ??_C@_0GH@ECFAPJEJ@c?3?2users?2enormousapplepie?2docume@
	lea	eax, DWORD PTR [esi*4]
	push	4
	push	eax
	call	?FireMallocAlignedNoTracking@@YAPAXIIPBDH@Z ; FireMallocAlignedNoTracking
	add	esp, 16					; 00000010H

; 507  : 			m_uiCurrMaxSize = uiSize;

	mov	DWORD PTR [edi+8], esi
	pop	edi
	pop	esi

; 511  : 	};

	ret	4
$LN1@Alloc:
	pop	edi

; 508  : 			return pRet;
; 509  : 		}
; 510  : 		return NULL;

	xor	eax, eax
	pop	esi

; 511  : 	};

	ret	4
?Alloc@?$FFastVector@PAVCvPlayer@@$0A@$0A@$0A@UFDefaultFastVectorAllocator@?$BaseVector@PAVCvPlayer@@$0A@@@@@IAEPAPAVCvPlayer@@I@Z ENDP ; FFastVector<CvPlayer *,0,0,0,BaseVector<CvPlayer *,0>::FDefaultFastVectorAllocator>::Alloc
_TEXT	ENDS
PUBLIC	?Free@?$FFastVector@PAVCvPlayer@@$0A@$0A@$0A@UFDefaultFastVectorAllocator@?$BaseVector@PAVCvPlayer@@$0A@@@@@IAEXPAPAVCvPlayer@@I@Z ; FFastVector<CvPlayer *,0,0,0,BaseVector<CvPlayer *,0>::FDefaultFastVectorAllocator>::Free
; Function compile flags: /Ogtpy
;	COMDAT ?Free@?$FFastVector@PAVCvPlayer@@$0A@$0A@$0A@UFDefaultFastVectorAllocator@?$BaseVector@PAVCvPlayer@@$0A@@@@@IAEXPAPAVCvPlayer@@I@Z
_TEXT	SEGMENT
_pVal$ = 8						; size = 4
_uiNumElements$ = 12					; size = 4
?Free@?$FFastVector@PAVCvPlayer@@$0A@$0A@$0A@UFDefaultFastVectorAllocator@?$BaseVector@PAVCvPlayer@@$0A@@@@@IAEXPAPAVCvPlayer@@I@Z PROC ; FFastVector<CvPlayer *,0,0,0,BaseVector<CvPlayer *,0>::FDefaultFastVectorAllocator>::Free, COMDAT
; _this$ = ecx

; 516  : 		if( !bPODType) 
; 517  :             Destroy(pVal, uiNumElements);
; 518  : 
; 519  : 		FAST_VEC_ALLOC::FreeAligned( (void*)pVal );

	mov	eax, DWORD PTR _pVal$[esp-4]
	push	eax
	call	?FireFreeAlignedNoTracking@@YAXPAX@Z	; FireFreeAlignedNoTracking
	pop	ecx

; 520  : 	};

	ret	8
?Free@?$FFastVector@PAVCvPlayer@@$0A@$0A@$0A@UFDefaultFastVectorAllocator@?$BaseVector@PAVCvPlayer@@$0A@@@@@IAEXPAPAVCvPlayer@@I@Z ENDP ; FFastVector<CvPlayer *,0,0,0,BaseVector<CvPlayer *,0>::FDefaultFastVectorAllocator>::Free
_TEXT	ENDS
PUBLIC	??0?$_Vector_iterator@VString@CvWorldBuilderMapTypeDesc@@V?$allocator@VString@CvWorldBuilderMapTypeDesc@@@std@@@std@@QAE@PAVString@CvWorldBuilderMapTypeDesc@@@Z ; std::_Vector_iterator<CvWorldBuilderMapTypeDesc::String,std::allocator<CvWorldBuilderMapTypeDesc::String> >::_Vector_iterator<CvWorldBuilderMapTypeDesc::String,std::allocator<CvWorldBuilderMapTypeDesc::String> >
; Function compile flags: /Ogtpy
; File c:\program files (x86)\microsoft visual studio 9.0\vc\include\vector
;	COMDAT ??0?$_Vector_iterator@VString@CvWorldBuilderMapTypeDesc@@V?$allocator@VString@CvWorldBuilderMapTypeDesc@@@std@@@std@@QAE@PAVString@CvWorldBuilderMapTypeDesc@@@Z
_TEXT	SEGMENT
__Ptr$ = 8						; size = 4
??0?$_Vector_iterator@VString@CvWorldBuilderMapTypeDesc@@V?$allocator@VString@CvWorldBuilderMapTypeDesc@@@std@@@std@@QAE@PAVString@CvWorldBuilderMapTypeDesc@@@Z PROC ; std::_Vector_iterator<CvWorldBuilderMapTypeDesc::String,std::allocator<CvWorldBuilderMapTypeDesc::String> >::_Vector_iterator<CvWorldBuilderMapTypeDesc::String,std::allocator<CvWorldBuilderMapTypeDesc::String> >, COMDAT
; _this$ = ecx

; 333  : 		{	// construct with pointer _Ptr

	mov	eax, ecx
	mov	ecx, DWORD PTR __Ptr$[esp-4]
	mov	DWORD PTR [eax], ecx

; 334  : 		}

	ret	4
??0?$_Vector_iterator@VString@CvWorldBuilderMapTypeDesc@@V?$allocator@VString@CvWorldBuilderMapTypeDesc@@@std@@@std@@QAE@PAVString@CvWorldBuilderMapTypeDesc@@@Z ENDP ; std::_Vector_iterator<CvWorldBuilderMapTypeDesc::String,std::allocator<CvWorldBuilderMapTypeDesc::String> >::_Vector_iterator<CvWorldBuilderMapTypeDesc::String,std::allocator<CvWorldBuilderMapTypeDesc::String> >
_TEXT	ENDS
PUBLIC	??9?$_Vector_const_iterator@VString@CvWorldBuilderMapTypeDesc@@V?$allocator@VString@CvWorldBuilderMapTypeDesc@@@std@@@std@@QBE_NABV01@@Z ; std::_Vector_const_iterator<CvWorldBuilderMapTypeDesc::String,std::allocator<CvWorldBuilderMapTypeDesc::String> >::operator!=
; Function compile flags: /Ogtpy
;	COMDAT ??9?$_Vector_const_iterator@VString@CvWorldBuilderMapTypeDesc@@V?$allocator@VString@CvWorldBuilderMapTypeDesc@@@std@@@std@@QBE_NABV01@@Z
_TEXT	SEGMENT
__Right$ = 8						; size = 4
??9?$_Vector_const_iterator@VString@CvWorldBuilderMapTypeDesc@@V?$allocator@VString@CvWorldBuilderMapTypeDesc@@@std@@@std@@QBE_NABV01@@Z PROC ; std::_Vector_const_iterator<CvWorldBuilderMapTypeDesc::String,std::allocator<CvWorldBuilderMapTypeDesc::String> >::operator!=, COMDAT
; _this$ = ecx

; 216  : 		return (!(*this == _Right));

	mov	eax, DWORD PTR [ecx]
	mov	edx, DWORD PTR __Right$[esp-4]
	xor	ecx, ecx
	cmp	eax, DWORD PTR [edx]
	setne	cl
	mov	al, cl

; 217  : 		}

	ret	4
??9?$_Vector_const_iterator@VString@CvWorldBuilderMapTypeDesc@@V?$allocator@VString@CvWorldBuilderMapTypeDesc@@@std@@@std@@QBE_NABV01@@Z ENDP ; std::_Vector_const_iterator<CvWorldBuilderMapTypeDesc::String,std::allocator<CvWorldBuilderMapTypeDesc::String> >::operator!=
_TEXT	ENDS
PUBLIC	??$unchecked_copy@PAVString@CvWorldBuilderMapTypeDesc@@PAV12@@stdext@@YAPAVString@CvWorldBuilderMapTypeDesc@@PAV12@00@Z ; stdext::unchecked_copy<CvWorldBuilderMapTypeDesc::String *,CvWorldBuilderMapTypeDesc::String *>
; Function compile flags: /Ogtpy
; File c:\program files (x86)\microsoft visual studio 9.0\vc\include\xutility
;	COMDAT ??$unchecked_copy@PAVString@CvWorldBuilderMapTypeDesc@@PAV12@@stdext@@YAPAVString@CvWorldBuilderMapTypeDesc@@PAV12@00@Z
_TEXT	SEGMENT
__First$ = 8						; size = 4
__Last$ = 12						; size = 4
__Dest$ = 16						; size = 4
??$unchecked_copy@PAVString@CvWorldBuilderMapTypeDesc@@PAV12@@stdext@@YAPAVString@CvWorldBuilderMapTypeDesc@@PAV12@00@Z PROC ; stdext::unchecked_copy<CvWorldBuilderMapTypeDesc::String *,CvWorldBuilderMapTypeDesc::String *>, COMDAT

; 3605 : 		return (_STD _Copy_opt(_CHECKED_BASE(_First), _CHECKED_BASE(_Last), _Dest,
; 3606 : 			_STD _Iter_random(_First, _Dest), _STD _Ptr_cat(_First, _Dest), _STD _Range_checked_iterator_tag()));

	mov	ecx, DWORD PTR __First$[esp-4]
	mov	edx, DWORD PTR __Last$[esp-4]
	mov	eax, DWORD PTR __Dest$[esp-4]
	cmp	ecx, edx
	je	SHORT $LN7@unchecked_
	push	esi
$LL9@unchecked_:
	mov	esi, DWORD PTR [ecx]
	mov	DWORD PTR [eax], esi
	add	ecx, 4
	add	eax, 4
	cmp	ecx, edx
	jne	SHORT $LL9@unchecked_
	pop	esi
$LN7@unchecked_:

; 3607 : 	}

	ret	0
??$unchecked_copy@PAVString@CvWorldBuilderMapTypeDesc@@PAV12@@stdext@@YAPAVString@CvWorldBuilderMapTypeDesc@@PAV12@00@Z ENDP ; stdext::unchecked_copy<CvWorldBuilderMapTypeDesc::String *,CvWorldBuilderMapTypeDesc::String *>
_TEXT	ENDS
PUBLIC	?destroy@?$allocator@VString@CvWorldBuilderMapTypeDesc@@@std@@QAEXPAVString@CvWorldBuilderMapTypeDesc@@@Z ; std::allocator<CvWorldBuilderMapTypeDesc::String>::destroy
; Function compile flags: /Ogtpy
; File c:\program files (x86)\microsoft visual studio 9.0\vc\include\xmemory
;	COMDAT ?destroy@?$allocator@VString@CvWorldBuilderMapTypeDesc@@@std@@QAEXPAVString@CvWorldBuilderMapTypeDesc@@@Z
_TEXT	SEGMENT
__Ptr$ = 8						; size = 4
?destroy@?$allocator@VString@CvWorldBuilderMapTypeDesc@@@std@@QAEXPAVString@CvWorldBuilderMapTypeDesc@@@Z PROC ; std::allocator<CvWorldBuilderMapTypeDesc::String>::destroy, COMDAT
; _this$ = ecx

; 160  : 		_Destroy(_Ptr);
; 161  : 		}

	ret	4
?destroy@?$allocator@VString@CvWorldBuilderMapTypeDesc@@@std@@QAEXPAVString@CvWorldBuilderMapTypeDesc@@@Z ENDP ; std::allocator<CvWorldBuilderMapTypeDesc::String>::destroy
_TEXT	ENDS
PUBLIC	?Release@FStringW@@QAEXXZ			; FStringW::Release
; Function compile flags: /Ogtpy
; File c:\users\enormousapplepie\documents\github\lekmod\lekmod_dll\fireplace\include\fireworks\fstringw.inl
;	COMDAT ?Release@FStringW@@QAEXXZ
_TEXT	SEGMENT
?Release@FStringW@@QAEXXZ PROC				; FStringW::Release, COMDAT
; _this$ = ecx

; 1008 : {

	push	esi
	push	edi
	mov	edi, ecx

; 1009 : 	Release( GetData() );

	mov	esi, DWORD PTR [edi]
	sub	esi, 12					; 0000000cH
	je	SHORT $LN5@Release@2
	call	?FStringW_GetStringInitData@@YAPAUFStringWData@FStringW@@XZ ; FStringW_GetStringInitData
	cmp	esi, eax
	je	SHORT $LN5@Release@2
	cmp	WORD PTR [esi+10], 0
	jne	SHORT $LN5@Release@2
	push	esi
	call	??_V@YAXPAX@Z				; operator delete[]
	add	esp, 4
$LN5@Release@2:

; 1010 : 	Init();

	call	?FStringW_GetStringInitData@@YAPAUFStringWData@FStringW@@XZ ; FStringW_GetStringInitData
	add	eax, 12					; 0000000cH
	mov	DWORD PTR [edi], eax
	pop	edi
	pop	esi

; 1011 : }

	ret	0
?Release@FStringW@@QAEXXZ ENDP				; FStringW::Release
_TEXT	ENDS
PUBLIC	?SetFixedBuffer@FStringW@@QAEXPAUFStringWData@1@@Z ; FStringW::SetFixedBuffer
; Function compile flags: /Ogtpy
;	COMDAT ?SetFixedBuffer@FStringW@@QAEXPAUFStringWData@1@@Z
_TEXT	SEGMENT
_pkData$ = 8						; size = 4
?SetFixedBuffer@FStringW@@QAEXPAUFStringWData@1@@Z PROC	; FStringW::SetFixedBuffer, COMDAT
; _this$ = ecx

; 1033 : {

	push	ebx

; 1034 : 	assert( pkData != NULL );
; 1035 : 	if(!pkData) return;

	mov	ebx, DWORD PTR _pkData$[esp]
	push	edi
	mov	edi, ecx
	test	ebx, ebx
	je	SHORT $LN2@SetFixedBu
	push	esi

; 1036 : 	assert( pkData->m_bFixed == 1 );
; 1037 : 	assert( pkData->m_iAllocLength > 0 );
; 1038 : 	Release();

	mov	esi, DWORD PTR [edi]
	sub	esi, 12					; 0000000cH
	je	SHORT $LN8@SetFixedBu
	call	?FStringW_GetStringInitData@@YAPAUFStringWData@FStringW@@XZ ; FStringW_GetStringInitData
	cmp	esi, eax
	je	SHORT $LN8@SetFixedBu
	cmp	WORD PTR [esi+10], 0
	jne	SHORT $LN8@SetFixedBu
	push	esi
	call	??_V@YAXPAX@Z				; operator delete[]
	add	esp, 4
$LN8@SetFixedBu:
	call	?FStringW_GetStringInitData@@YAPAUFStringWData@FStringW@@XZ ; FStringW_GetStringInitData

; 1039 : 	m_pszString = pkData->StringData();

	add	ebx, 12					; 0000000cH
	mov	DWORD PTR [edi], ebx
	pop	esi
$LN2@SetFixedBu:
	pop	edi
	pop	ebx

; 1040 : }

	ret	4
?SetFixedBuffer@FStringW@@QAEXPAUFStringWData@1@@Z ENDP	; FStringW::SetFixedBuffer
_TEXT	ENDS
PUBLIC	??4FStringA@@QAEABV0@PBD@Z			; FStringA::operator=
EXTRN	?Copy@FStringA@@QAEXHPBDH@Z:PROC		; FStringA::Copy
; Function compile flags: /Ogtpy
; File c:\users\enormousapplepie\documents\github\lekmod\lekmod_dll\fireplace\include\fireworks\fstringa.inl
;	COMDAT ??4FStringA@@QAEABV0@PBD@Z
_TEXT	SEGMENT
_lpszSource$ = 8					; size = 4
??4FStringA@@QAEABV0@PBD@Z PROC				; FStringA::operator=, COMDAT
; _this$ = ecx

; 181  : 	Copy( SafeStrlen( lpszSource ), lpszSource );

	mov	edx, DWORD PTR _lpszSource$[esp-4]
	push	esi
	mov	esi, ecx
	test	edx, edx
	je	SHORT $LN5@operator@5
	mov	eax, edx
	push	edi
	lea	edi, DWORD PTR [eax+1]
$LL7@operator@5:
	mov	cl, BYTE PTR [eax]
	inc	eax
	test	cl, cl
	jne	SHORT $LL7@operator@5
	sub	eax, edi
	pop	edi
	push	0
	push	edx
	push	eax
	mov	ecx, esi
	call	?Copy@FStringA@@QAEXHPBDH@Z		; FStringA::Copy

; 182  : 
; 183  : 	return ( *this );

	mov	eax, esi
	pop	esi

; 184  : }

	ret	4

; 181  : 	Copy( SafeStrlen( lpszSource ), lpszSource );

$LN5@operator@5:
	xor	eax, eax
	push	eax
	push	edx
	push	eax
	mov	ecx, esi
	call	?Copy@FStringA@@QAEXHPBDH@Z		; FStringA::Copy

; 182  : 
; 183  : 	return ( *this );

	mov	eax, esi
	pop	esi

; 184  : }

	ret	4
??4FStringA@@QAEABV0@PBD@Z ENDP				; FStringA::operator=
_TEXT	ENDS
PUBLIC	??BFStringA@@QBEPBDXZ				; FStringA::operator char const *
; Function compile flags: /Ogtpy
;	COMDAT ??BFStringA@@QBEPBDXZ
_TEXT	SEGMENT
??BFStringA@@QBEPBDXZ PROC				; FStringA::operator char const *, COMDAT
; _this$ = ecx

; 570  : 	return ( GetCString() );

	mov	eax, DWORD PTR [ecx]

; 571  : }

	ret	0
??BFStringA@@QBEPBDXZ ENDP				; FStringA::operator char const *
; Function compile flags: /Ogtpy
_TEXT	ENDS
;	COMDAT ??0out_of_range@std@@QAE@ABV01@@Z
_TEXT	SEGMENT
___that$ = 8						; size = 4
??0out_of_range@std@@QAE@ABV01@@Z PROC			; std::out_of_range::out_of_range, COMDAT
; _this$ = ecx
	mov	eax, DWORD PTR ___that$[esp-4]
	push	esi
	push	eax
	mov	esi, ecx
	call	??0logic_error@std@@QAE@ABV01@@Z
	mov	DWORD PTR [esi], OFFSET ??_7out_of_range@std@@6B@
	mov	eax, esi
	pop	esi
	ret	4
??0out_of_range@std@@QAE@ABV01@@Z ENDP			; std::out_of_range::out_of_range
_TEXT	ENDS
PUBLIC	?GetID@CvUnit@@QBEHXZ				; CvUnit::GetID
; Function compile flags: /Ogtpy
; File c:\users\enormousapplepie\documents\github\lekmod\lekmod_dll\cvgamecoredll_expansion2\cvunit.h
;	COMDAT ?GetID@CvUnit@@QBEHXZ
_TEXT	SEGMENT
?GetID@CvUnit@@QBEHXZ PROC				; CvUnit::GetID, COMDAT
; _this$ = ecx

; 662  : 		return m_iID;

	mov	eax, DWORD PTR [ecx+100]

; 663  : 	}

	ret	0
?GetID@CvUnit@@QBEHXZ ENDP				; CvUnit::GetID
_TEXT	ENDS
EXTRN	?sr_TeamTypes@CvPreGame@@3ABV?$vector@W4TeamTypes@@V?$allocator@W4TeamTypes@@@std@@@std@@B:DWORD ; CvPreGame::sr_TeamTypes
; Function compile flags: /Ogtpy
; File c:\users\enormousapplepie\documents\github\lekmod\lekmod_dll\cvgamecoredll_expansion2\cvpregame.h
;	COMDAT ?teamType@CvPreGame@@YA?AW4TeamTypes@@W4PlayerTypes@@@Z
_TEXT	SEGMENT
?teamType@CvPreGame@@YA?AW4TeamTypes@@W4PlayerTypes@@@Z PROC ; CvPreGame::teamType, COMDAT
; _p$ = eax

; 299  : 	if(p >= 0 && p < MAX_PLAYERS)

	cmp	eax, 63					; 0000003fH
	ja	SHORT $LN1@teamType

; 300  : 		return sr_TeamTypes[p];

	mov	ecx, DWORD PTR ?sr_TeamTypes@CvPreGame@@3ABV?$vector@W4TeamTypes@@V?$allocator@W4TeamTypes@@@std@@@std@@B ; CvPreGame::sr_TeamTypes
	mov	edx, DWORD PTR [ecx+4]
	mov	eax, DWORD PTR [edx+eax*4]

; 302  : }

	ret	0
$LN1@teamType:

; 301  : 	return NO_TEAM;

	or	eax, -1

; 302  : }

	ret	0
?teamType@CvPreGame@@YA?AW4TeamTypes@@W4PlayerTypes@@@Z ENDP ; CvPreGame::teamType
_TEXT	ENDS
PUBLIC	?GetID@CvCity@@QBEHXZ				; CvCity::GetID
; Function compile flags: /Ogtpy
; File c:\users\enormousapplepie\documents\github\lekmod\lekmod_dll\cvgamecoredll_expansion2\cvcity.h
;	COMDAT ?GetID@CvCity@@QBEHXZ
_TEXT	SEGMENT
?GetID@CvCity@@QBEHXZ PROC				; CvCity::GetID, COMDAT
; _this$ = ecx

; 331  : 		return m_iID;

	mov	eax, DWORD PTR [ecx+120]

; 332  : 	}

	ret	0
?GetID@CvCity@@QBEHXZ ENDP				; CvCity::GetID
_TEXT	ENDS
PUBLIC	?getOwner@CvCity@@QBE?AW4PlayerTypes@@XZ	; CvCity::getOwner
; Function compile flags: /Ogtpy
;	COMDAT ?getOwner@CvCity@@QBE?AW4PlayerTypes@@XZ
_TEXT	SEGMENT
?getOwner@CvCity@@QBE?AW4PlayerTypes@@XZ PROC		; CvCity::getOwner, COMDAT
; _this$ = ecx

; 604  : 		return m_eOwner;

	mov	eax, DWORD PTR [ecx+84]

; 605  : 	}

	ret	0
?getOwner@CvCity@@QBE?AW4PlayerTypes@@XZ ENDP		; CvCity::getOwner
_TEXT	ENDS
PUBLIC	?isAlive@CvPlayer@@QBE_NXZ			; CvPlayer::isAlive
; Function compile flags: /Ogtpy
; File c:\users\enormousapplepie\documents\github\lekmod\lekmod_dll\cvgamecoredll_expansion2\cvplayer.h
;	COMDAT ?isAlive@CvPlayer@@QBE_NXZ
_TEXT	SEGMENT
?isAlive@CvPlayer@@QBE_NXZ PROC				; CvPlayer::isAlive, COMDAT
; _this$ = ecx

; 1092 : 		return m_bAlive;

	mov	al, BYTE PTR [ecx+2256]

; 1093 : 	}

	ret	0
?isAlive@CvPlayer@@QBE_NXZ ENDP				; CvPlayer::isAlive
_TEXT	ENDS
PUBLIC	?GetID@CvPlayer@@QBE?AW4PlayerTypes@@XZ		; CvPlayer::GetID
; Function compile flags: /Ogtpy
;	COMDAT ?GetID@CvPlayer@@QBE?AW4PlayerTypes@@XZ
_TEXT	SEGMENT
?GetID@CvPlayer@@QBE?AW4PlayerTypes@@XZ PROC		; CvPlayer::GetID, COMDAT
; _this$ = ecx

; 1168 : 		return m_eID;

	mov	eax, DWORD PTR [ecx+44]

; 1169 : 	}

	ret	0
?GetID@CvPlayer@@QBE?AW4PlayerTypes@@XZ ENDP		; CvPlayer::GetID
_TEXT	ENDS
PUBLIC	?getTeam@CvPlayer@@QBE?AW4TeamTypes@@XZ		; CvPlayer::getTeam
; Function compile flags: /Ogtpy
;	COMDAT ?getTeam@CvPlayer@@QBE?AW4TeamTypes@@XZ
_TEXT	SEGMENT
?getTeam@CvPlayer@@QBE?AW4TeamTypes@@XZ PROC		; CvPlayer::getTeam, COMDAT
; _this$ = ecx

; 1178 : 		return CvPreGame::teamType(m_eID);

	mov	eax, DWORD PTR [ecx+44]
	cmp	eax, 63					; 0000003fH
	ja	SHORT $LN5@getTeam
	mov	ecx, DWORD PTR ?sr_TeamTypes@CvPreGame@@3ABV?$vector@W4TeamTypes@@V?$allocator@W4TeamTypes@@@std@@@std@@B ; CvPreGame::sr_TeamTypes
	mov	edx, DWORD PTR [ecx+4]
	mov	eax, DWORD PTR [edx+eax*4]

; 1179 : 	}

	ret	0

; 1178 : 		return CvPreGame::teamType(m_eID);

$LN5@getTeam:
	or	eax, -1

; 1179 : 	}

	ret	0
?getTeam@CvPlayer@@QBE?AW4TeamTypes@@XZ ENDP		; CvPlayer::getTeam
_TEXT	ENDS
PUBLIC	?getFeatureType@CvPlot@@QBE?AW4FeatureTypes@@XZ	; CvPlot::getFeatureType
; Function compile flags: /Ogtpy
; File c:\users\enormousapplepie\documents\github\lekmod\lekmod_dll\cvgamecoredll_expansion2\cvplot.h
;	COMDAT ?getFeatureType@CvPlot@@QBE?AW4FeatureTypes@@XZ
_TEXT	SEGMENT
?getFeatureType@CvPlot@@QBE?AW4FeatureTypes@@XZ PROC	; CvPlot::getFeatureType, COMDAT
; _this$ = ecx

; 435  : #ifdef AUI_WARNING_FIXES
; 436  : 		int f = m_eFeatureType;
; 437  : #else
; 438  : 		char f = m_eFeatureType;
; 439  : #endif
; 440  : 		return (FeatureTypes)f;

	movsx	eax, BYTE PTR [ecx+432]

; 441  : 	}

	ret	0
?getFeatureType@CvPlot@@QBE?AW4FeatureTypes@@XZ ENDP	; CvPlot::getFeatureType
_TEXT	ENDS
PUBLIC	?isPlot@CvMap@@QBEHHH@Z				; CvMap::isPlot
; Function compile flags: /Ogtpy
; File c:\users\enormousapplepie\documents\github\lekmod\lekmod_dll\cvgamecoredll_expansion2\cvmap.h
;	COMDAT ?isPlot@CvMap@@QBEHHH@Z
_TEXT	SEGMENT
_iX$ = 8						; size = 4
_iY$ = 12						; size = 4
?isPlot@CvMap@@QBEHHH@Z PROC				; CvMap::isPlot, COMDAT
; _this$ = ecx

; 157  : #ifdef AUI_WARNING_FIXES
; 158  : 		return ((iX >= 0) && (uint(iX) < getGridWidth()) && (iY >= 0) && (uint(iY) < getGridHeight()));
; 159  : #else
; 160  : 		return ((iX >= 0) && (iX < getGridWidth()) && (iY >= 0) && (iY < getGridHeight()));

	mov	eax, DWORD PTR _iX$[esp-4]
	test	eax, eax
	jl	SHORT $LN3@isPlot
	cmp	eax, DWORD PTR [ecx+4020]
	jge	SHORT $LN3@isPlot
	mov	eax, DWORD PTR _iY$[esp-4]
	test	eax, eax
	jl	SHORT $LN3@isPlot
	cmp	eax, DWORD PTR [ecx+4024]
	jge	SHORT $LN3@isPlot
	mov	eax, 1

; 161  : #endif
; 162  : 	}

	ret	8
$LN3@isPlot:

; 157  : #ifdef AUI_WARNING_FIXES
; 158  : 		return ((iX >= 0) && (uint(iX) < getGridWidth()) && (iY >= 0) && (uint(iY) < getGridHeight()));
; 159  : #else
; 160  : 		return ((iX >= 0) && (iX < getGridWidth()) && (iY >= 0) && (iY < getGridHeight()));

	xor	eax, eax

; 161  : #endif
; 162  : 	}

	ret	8
?isPlot@CvMap@@QBEHHH@Z ENDP				; CvMap::isPlot
_TEXT	ENDS
PUBLIC	?plotNum@CvMap@@QBEHHH@Z			; CvMap::plotNum
; Function compile flags: /Ogtpy
;	COMDAT ?plotNum@CvMap@@QBEHHH@Z
_TEXT	SEGMENT
_iX$ = 8						; size = 4
_iY$ = 12						; size = 4
?plotNum@CvMap@@QBEHHH@Z PROC				; CvMap::plotNum, COMDAT
; _this$ = ecx

; 183  : 		return ((iY * getGridWidth()) + iX);

	mov	eax, DWORD PTR [ecx+4020]
	imul	eax, DWORD PTR _iY$[esp-4]
	add	eax, DWORD PTR _iX$[esp-4]

; 184  : #endif
; 185  : 	}

	ret	8
?plotNum@CvMap@@QBEHHH@Z ENDP				; CvMap::plotNum
_TEXT	ENDS
PUBLIC	?plot@CvMap@@QBEPAVCvPlot@@HH@Z			; CvMap::plot
; Function compile flags: /Ogtpy
;	COMDAT ?plot@CvMap@@QBEPAVCvPlot@@HH@Z
_TEXT	SEGMENT
_iX$ = 8						; size = 4
_iY$ = 12						; size = 4
?plot@CvMap@@QBEPAVCvPlot@@HH@Z PROC			; CvMap::plot, COMDAT
; _this$ = ecx

; 273  : 		if((iX == INVALID_PLOT_COORD) || (iY == INVALID_PLOT_COORD))

	mov	eax, DWORD PTR _iX$[esp-4]
	push	ebp
	cmp	eax, -2147483647			; 80000001H
	je	$LN1@plot
	mov	ebp, DWORD PTR _iY$[esp]
