; Listing generated by Microsoft (R) Optimizing Compiler Version 15.00.30729.01 

	TITLE	c:\Users\EnormousApplePie\Desktop\Lekmod DLL versions\v31\LEKMOD_DLL\CvGameCoreDLL_Expansion2\CvBuildingClasses.cpp
	.686P
	.XMM
	include listing.inc
	.model	flat

INCLUDELIB MSVCRT
INCLUDELIB OLDNAMES

CONST	SEGMENT
$SG218166 DB	'GoldMaintenance', 00H
$SG218167 DB	'MutuallyExclusiveGroup', 00H
	ORG $+1
$SG218168 DB	'TeamShare', 00H
	ORG $+2
$SG218169 DB	'Water', 00H
	ORG $+2
$SG218170 DB	'River', 00H
	ORG $+2
$SG218171 DB	'FreshWater', 00H
	ORG $+1
$SG218172 DB	'Mountain', 00H
	ORG $+3
$SG218173 DB	'Hill', 00H
	ORG $+3
$SG218174 DB	'Flat', 00H
	ORG $+3
$SG218175 DB	'FoundsReligion', 00H
	ORG $+1
$SG218176 DB	'IsReligious', 00H
$SG218177 DB	'BorderObstacle', 00H
	ORG $+1
$SG218178 DB	'PlayerBorderObstacle', 00H
	ORG $+3
$SG218179 DB	'Capital', 00H
$SG218180 DB	'GoldenAge', 00H
	ORG $+2
$SG218181 DB	'GrantsFreeCulturalGreatPersonWithTrait', 00H
	ORG $+1
$SG218182 DB	'MapCentering', 00H
	ORG $+3
$SG218183 DB	'NeverCapture', 00H
	ORG $+3
$SG218184 DB	'NukeImmune', 00H
	ORG $+1
$SG218185 DB	'CityWall', 00H
	ORG $+3
$SG218186 DB	'ExtraLuxuries', 00H
	ORG $+2
$SG218187 DB	'DiplomaticVoting', 00H
	ORG $+3
$SG218188 DB	'AllowsWaterRoutes', 00H
	ORG $+2
$SG218189 DB	'Cost', 00H
	ORG $+3
$SG218190 DB	'FaithCost', 00H
	ORG $+2
$SG218191 DB	'LeagueCost', 00H
	ORG $+1
$SG218192 DB	'UnlockedByBelief', 00H
	ORG $+3
$SG218193 DB	'UnlockedByLeague', 00H
	ORG $+3
$SG218194 DB	'HolyCity', 00H
	ORG $+3
$SG218195 DB	'AffectSpiesNow', 00H
	ORG $+1
$SG218196 DB	'Espionage', 00H
	ORG $+2
$SG218197 DB	'MaliTreasury', 00H
	ORG $+3
$SG218198 DB	'AllowsFoodTradeRoutes', 00H
	ORG $+2
$SG218199 DB	'AllowsProductionTradeRoutes', 00H
$SG218200 DB	'NullifyInfluenceModifier', 00H
	ORG $+3
$SG218201 DB	'NumCityCostMod', 00H
	ORG $+1
$SG218202 DB	'HurryCostModifier', 00H
	ORG $+2
$SG218203 DB	'MinAreaSize', 00H
$SG218204 DB	'ConquestProb', 00H
	ORG $+3
$SG218205 DB	'CitiesPrereq', 00H
	ORG $+3
$SG218206 DB	'LevelPrereq', 00H
$SG218207 DB	'CultureRateModifier', 00H
$SG218208 DB	'GlobalCultureRateModifier', 00H
	ORG $+2
$SG218209 DB	'GreatPeopleRateModifier', 00H
$SG218210 DB	'GlobalGreatPeopleRateModifier', 00H
	ORG $+2
$SG218211 DB	'GreatGeneralRateModifier', 00H
	ORG $+3
$SG218212 DB	'GreatPersonExpendGold', 00H
	ORG $+2
$SG218213 DB	'UnitUpgradeCostMod', 00H
	ORG $+1
$SG218214 DB	'GoldenAgeModifier', 00H
	ORG $+2
$SG218215 DB	'Experience', 00H
	ORG $+1
$SG218216 DB	'GlobalExperience', 00H
	ORG $+3
$SG218217 DB	'FoodKept', 00H
	ORG $+3
$SG218218 DB	'Airlift', 00H
$SG218219 DB	'AirModifier', 00H
$SG218220 DB	'NukeModifier', 00H
	ORG $+3
$SG218221 DB	'NukeExplosionRand', 00H
	ORG $+2
$SG218222 DB	'HealRateChange', 00H
	ORG $+1
$SG218223 DB	'Happiness', 00H
	ORG $+2
$SG218224 DB	'UnmoddedHappiness', 00H
	ORG $+2
$SG218225 DB	'UnhappinessModifier', 00H
$SG218226 DB	'HappinessPerCity', 00H
	ORG $+3
$SG218227 DB	'HappinessPerXPolicies', 00H
	ORG $+2
$SG218228 DB	'CityCountUnhappinessMod', 00H
$SG218229 DB	'NoOccupiedUnhappiness', 00H
	ORG $+2
$SG218230 DB	'WorkerSpeedModifier', 00H
$SG218231 DB	'MilitaryProductionModifier', 00H
	ORG $+1
$SG218232 DB	'SpaceProductionModifier', 00H
$SG218233 DB	'GlobalSpaceProductionModifier', 00H
	ORG $+2
$SG218234 DB	'BuildingProductionModifier', 00H
	ORG $+1
$SG218235 DB	'WonderProductionModifier', 00H
	ORG $+3
$SG218236 DB	'CityConnectionTradeRouteModifier', 00H
	ORG $+3
$SG218237 DB	'CapturePlunderModifier', 00H
	ORG $+1
$SG218238 DB	'PolicyCostModifier', 00H
	ORG $+1
$SG218239 DB	'PlotCultureCostModifier', 00H
$SG218240 DB	'GlobalPlotCultureCostModifier', 00H
	ORG $+2
$SG218241 DB	'PlotBuyCostModifier', 00H
$SG218242 DB	'GlobalPlotBuyCostModifier', 00H
	ORG $+2
$SG218243 DB	'GlobalPopulationChange', 00H
	ORG $+1
$SG218244 DB	'LocalPopulationChange', 00H
	ORG $+2
$SG218245 DB	'TechShare', 00H
	ORG $+2
$SG218246 DB	'FreeTechs', 00H
	ORG $+2
$SG218247 DB	'FreePolicies', 00H
	ORG $+3
$SG218248 DB	'FreeFlatFaith', 00H
	ORG $+2
$SG218249 DB	'MountainScienceYield', 00H
	ORG $+3
$SG218250 DB	'FreeGreatPeople', 00H
$SG218251 DB	'MedianTechPercentChange', 00H
$SG218252 DB	'Gold', 00H
	ORG $+3
$SG218253 DB	'NearbyMountainRequired', 00H
	ORG $+1
$SG218254 DB	'AllowsRangeStrike', 00H
	ORG $+2
$SG218255 DB	'Defense', 00H
$SG218256 DB	'DefensePerCitizen', 00H
	ORG $+2
$SG218257 DB	'GlobalDefenseMod', 00H
	ORG $+3
$SG218258 DB	'ExtraCityHitPoints', 00H
	ORG $+1
$SG218259 DB	'MinorFriendshipChange', 00H
	ORG $+2
$SG218260 DB	'VictoryPoints', 00H
	ORG $+2
$SG218261 DB	'ExtraMissionarySpreads', 00H
	ORG $+1
$SG218262 DB	'ReligiousPressureModifier', 00H
	ORG $+2
$SG218263 DB	'EspionageModifier', 00H
	ORG $+2
$SG218264 DB	'GlobalEspionageModifier', 00H
$SG218265 DB	'ExtraSpies', 00H
	ORG $+1
$SG218266 DB	'SpyRankChange', 00H
	ORG $+2
$SG218267 DB	'TradeRouteRecipientBonus', 00H
	ORG $+3
$SG218268 DB	'TradeRouteTargetBonus', 00H
	ORG $+2
$SG218269 DB	'NumTradeRouteBonus', 00H
	ORG $+1
$SG218270 DB	'TradeRouteSeaDistanceModifier', 00H
	ORG $+2
$SG218271 DB	'TradeRouteSeaGoldBonus', 00H
	ORG $+1
$SG218272 DB	'TradeRouteLandDistanceModifier', 00H
	ORG $+1
$SG218273 DB	'TradeRouteLandGoldBonus', 00H
$SG218274 DB	'CityStateTradeRouteProductionModifier', 00H
	ORG $+2
$SG218275 DB	'CityStateTradeRouteGoldModifier', 00H
$SG218276 DB	'InstantSpyRankChange', 00H
	ORG $+3
$SG218277 DB	'LandmarksTourismPercent', 00H
$SG218278 DB	'InstantMilitaryIncrease', 00H
$SG218279 DB	'GreatWorksTourismModifier', 00H
	ORG $+2
$SG218280 DB	'XBuiltTriggersIdeologyChoice', 00H
	ORG $+3
$SG218281 DB	'GreatScientistBeakerModifier', 00H
	ORG $+3
$SG218282 DB	'ExtraLeagueVotes', 00H
	ORG $+3
$SG218283 DB	'DisplayPosition', 00H
$SG218284 DB	'PortraitIndex', 00H
	ORG $+2
$SG218285 DB	'ArtInfoCulturalVariation', 00H
	ORG $+3
$SG218286 DB	'ArtInfoEraVariation', 00H
$SG218287 DB	'ArtInfoRandomVariation', 00H
	ORG $+1
$SG218289 DB	'BuildingClass', 00H
	ORG $+2
$SG218291 DB	'ArtDefineTag', 00H
	ORG $+3
$SG218292 DB	'WonderSplashAudio', 00H
	ORG $+2
$SG218293 DB	'ThemingBonusHelp', 00H
	ORG $+3
$SG218294 DB	'NearbyTerrainRequired', 00H
	ORG $+2
$SG218295 DB	'ProhibitedCityTerrain', 00H
	ORG $+2
$SG218296 DB	'VictoryPrereq', 00H
	ORG $+2
$SG218297 DB	'FreeStartEra', 00H
	ORG $+3
$SG218298 DB	'MaxStartEra', 00H
$SG218299 DB	'ObsoleteTech', 00H
	ORG $+3
$SG218300 DB	'EnhancedYieldTech', 00H
	ORG $+2
$SG218301 DB	'TechEnhancedTourism', 00H
$SG218302 DB	'FreeBuilding', 00H
	ORG $+3
$SG218303 DB	'FreeBuildingThisCity', 00H
	ORG $+3
$SG218304 DB	'FreePromotion', 00H
	ORG $+2
$SG218305 DB	'TrainedFreePromotion', 00H
	ORG $+3
$SG218306 DB	'FreePromotionRemoved', 00H
	ORG $+3
$SG218307 DB	'ReplacementBuildingClass', 00H
	ORG $+3
$SG218308 DB	'PrereqTech', 00H
	ORG $+1
$SG218309 DB	'PolicyBranchType', 00H
	ORG $+3
$SG218310 DB	'SpecialistType', 00H
	ORG $+1
$SG218311 DB	'SpecialistCount', 00H
$SG218312 DB	'SpecialistExtraCulture', 00H
	ORG $+1
$SG218313 DB	'GreatPeopleRateChange', 00H
	ORG $+2
$SG218314 DB	'GreatWorkSlotType', 00H
	ORG $+2
$SG218316 DB	'GreatWorkCount', 00H
	ORG $+1
$SG218317 DB	'FreeGreatWork', 00H
	ORG $+2
$SG218320 DB	'BuildingType', 00H
	ORG $+3
$SG218321 DB	'Building_Flavors', 00H
	ORG $+3
$SG218322 DB	'BuildingType', 00H
	ORG $+3
$SG218323 DB	'Building_SeaPlotYieldChanges', 00H
	ORG $+3
$SG218324 DB	'BuildingType', 00H
	ORG $+3
$SG218325 DB	'Building_RiverPlotYieldChanges', 00H
	ORG $+1
$SG218326 DB	'BuildingType', 00H
	ORG $+3
$SG218327 DB	'Building_LakePlotYieldChanges', 00H
	ORG $+2
$SG218328 DB	'BuildingType', 00H
	ORG $+3
$SG218329 DB	'Building_SeaResourceYieldChanges', 00H
	ORG $+3
$SG218330 DB	'BuildingType', 00H
	ORG $+3
$SG218331 DB	'Building_YieldChanges', 00H
	ORG $+2
$SG218332 DB	'BuildingType', 00H
	ORG $+3
$SG218333 DB	'Building_YieldChangesPerPop', 00H
$SG218334 DB	'BuildingType', 00H
	ORG $+3
$SG218335 DB	'Building_YieldChangesPerReligion', 00H
	ORG $+3
$SG218336 DB	'BuildingType', 00H
	ORG $+3
$SG218337 DB	'Building_YieldModifiers', 00H
$SG218338 DB	'BuildingType', 00H
	ORG $+3
$SG218339 DB	'Building_AreaYieldModifiers', 00H
$SG218340 DB	'BuildingType', 00H
	ORG $+3
$SG218341 DB	'Building_GlobalYieldModifiers', 00H
	ORG $+2
$SG218342 DB	'BuildingType', 00H
	ORG $+3
$SG218343 DB	'Building_TechEnhancedYieldChanges', 00H
	ORG $+2
$SG218344 DB	'Cost', 00H
	ORG $+3
$SG218345 DB	'BuildingType', 00H
	ORG $+3
$SG218346 DB	'ResourceType', 00H
	ORG $+3
$SG218347 DB	'Building_ResourceQuantityRequirements', 00H
	ORG $+2
$SG218348 DB	'Resources', 00H
	ORG $+2
$SG218349 DB	'Quantity', 00H
	ORG $+3
$SG218350 DB	'BuildingType', 00H
	ORG $+3
$SG218351 DB	'ResourceType', 00H
	ORG $+3
$SG218352 DB	'Building_ResourceQuantity', 00H
	ORG $+2
$SG218353 DB	'Resources', 00H
	ORG $+2
$SG218354 DB	'CultureChange', 00H
	ORG $+2
$SG218355 DB	'BuildingType', 00H
	ORG $+3
$SG218356 DB	'ResourceType', 00H
	ORG $+3
$SG218357 DB	'Building_ResourceCultureChanges', 00H
$SG218358 DB	'Resources', 00H
	ORG $+2
$SG218359 DB	'FaithChange', 00H
$SG218360 DB	'BuildingType', 00H
	ORG $+3
$SG218361 DB	'ResourceType', 00H
	ORG $+3
$SG218362 DB	'Building_ResourceFaithChanges', 00H
	ORG $+2
$SG218363 DB	'Resources', 00H
	ORG $+2
$SG218364 DB	'HurryCostModifier', 00H
	ORG $+2
$SG218365 DB	'BuildingType', 00H
	ORG $+3
$SG218366 DB	'HurryType', 00H
	ORG $+2
$SG218367 DB	'Building_HurryModifiers', 00H
$SG218368 DB	'HurryInfos', 00H
	ORG $+1
$SG218369 DB	'Experience', 00H
	ORG $+1
$SG218370 DB	'BuildingType', 00H
	ORG $+3
$SG218371 DB	'UnitCombatType', 00H
	ORG $+1
$SG218372 DB	'Building_UnitCombatFreeExperiences', 00H
	ORG $+1
$SG218373 DB	'UnitCombatInfos', 00H
$SG218374 DB	'Modifier', 00H
	ORG $+3
$SG218375 DB	'BuildingType', 00H
	ORG $+3
$SG218376 DB	'UnitCombatType', 00H
	ORG $+1
$SG218377 DB	'Building_UnitCombatProductionModifiers', 00H
	ORG $+1
$SG218378 DB	'UnitCombatInfos', 00H
$SG218379 DB	'Experience', 00H
	ORG $+1
$SG218380 DB	'BuildingType', 00H
	ORG $+3
$SG218381 DB	'DomainType', 00H
	ORG $+1
$SG218382 DB	'Building_DomainFreeExperiences', 00H
	ORG $+1
$SG218383 DB	'Domains', 00H
$SG218384 DB	'Experience', 00H
	ORG $+1
$SG218385 DB	'BuildingType', 00H
	ORG $+3
$SG218386 DB	'DomainType', 00H
	ORG $+1
$SG218387 DB	'Building_DomainFreeExperiencePerGreatWork', 00H
	ORG $+2
$SG218388 DB	'Domains', 00H
$SG218389 DB	'Modifier', 00H
	ORG $+3
$SG218390 DB	'BuildingType', 00H
	ORG $+3
$SG218391 DB	'DomainType', 00H
	ORG $+1
$SG218392 DB	'Building_DomainProductionModifiers', 00H
	ORG $+1
$SG218393 DB	'Domains', 00H
$SG218394 DB	'NumBuildingNeeded', 00H
	ORG $+2
$SG218395 DB	'BuildingType', 00H
	ORG $+3
$SG218396 DB	'BuildingClassType', 00H
	ORG $+2
$SG218397 DB	'Building_PrereqBuildingClasses', 00H
	ORG $+1
$SG218398 DB	'BuildingClasses', 00H
$SG218399 DB	'BuildingType', 00H
	ORG $+3
$SG218400 DB	'BuildingClassType', 00H
	ORG $+2
$SG218401 DB	'Building_ClassesNeededInCity', 00H
	ORG $+3
$SG218402 DB	'BuildingClasses', 00H
$SG218403 DB	'NumUnits', 00H
	ORG $+3
$SG218404 DB	'BuildingType', 00H
	ORG $+3
$SG218405 DB	'UnitType', 00H
	ORG $+3
$SG218406 DB	'Building_FreeUnits', 00H
	ORG $+1
$SG218407 DB	'Units', 00H
	ORG $+2
$SG218408 DB	'Happiness', 00H
	ORG $+2
$SG218409 DB	'BuildingType', 00H
	ORG $+3
$SG218410 DB	'BuildingClassType', 00H
	ORG $+2
$SG218411 DB	'Building_BuildingClassHappiness', 00H
$SG218412 DB	'BuildingClasses', 00H
$SG218413 DB	'BuildingType', 00H
	ORG $+3
$SG218414 DB	'BuildingClassType', 00H
	ORG $+2
$SG218415 DB	'Building_LockedBuildingClasses', 00H
	ORG $+1
$SG218416 DB	'BuildingClasses', 00H
$SG218417 DB	'BuildingType', 00H
	ORG $+3
$SG218418 DB	'TechType', 00H
	ORG $+3
$SG218419 DB	'Building_TechAndPrereqs', 00H
$SG218420 DB	'Technologies', 00H
	ORG $+3
$SG218421 DB	'BuildingType', 00H
	ORG $+3
$SG218422 DB	'ResourceType', 00H
	ORG $+3
$SG218423 DB	'Building_LocalResourceAnds', 00H
	ORG $+1
$SG218424 DB	'Resources', 00H
	ORG $+2
$SG218425 DB	'BuildingType', 00H
	ORG $+3
$SG218426 DB	'ResourceType', 00H
	ORG $+3
$SG218427 DB	'Building_LocalResourceOrs', 00H
	ORG $+2
$SG218428 DB	'Resources', 00H
	ORG $+2
$SG218429 DB	'Yields', 00H
	ORG $+1
$SG218430 DB	'Resources', 00H
	ORG $+2
$SG218432 DB	'Building_ResourceYieldChanges', 00H
	ORG $+2
$SG218435 DB	'select Resources.ID as ResourceID, Yields.ID as YieldID,'
	DB	' Yield from Building_ResourceYieldChanges inner join Resource'
	DB	's on Resources.Type = ResourceType inner join Yields on Yield'
	DB	's.Type = YieldType where BuildingType = ?', 00H
$SG218443 DB	'Building_ResourceYieldChangesGlobal', 00H
$SG218446 DB	'select Resources.ID as ResourceID, Yields.ID as YieldID,'
	DB	' Yield from Building_ResourceYieldChangesGlobal inner join Re'
	DB	'sources on Resources.Type = ResourceType inner join Yields on'
	DB	' Yields.Type = YieldType where BuildingType = ?', 00H
	ORG $+2
$SG218964 DB	'Yields', 00H
	ORG $+1
$SG218965 DB	'Features', 00H
	ORG $+3
$SG218967 DB	'Building_FeatureYieldChanges', 00H
	ORG $+3
$SG218970 DB	'select Features.ID as FeatureID, Yields.ID as YieldID, Y'
	DB	'ield from Building_FeatureYieldChanges inner join Features on'
	DB	' Features.Type = FeatureType inner join Yields on Yields.Type'
	DB	' = YieldType where BuildingType = ?', 00H
	ORG $+2
$SG218977 DB	'Yields', 00H
	ORG $+1
$SG218978 DB	'Improvements', 00H
	ORG $+3
$SG218980 DB	'Building_ImprovementYieldChanges', 00H
	ORG $+7
$SG218983 DB	'select Improvements.ID as ImprovementID, Yields.ID as Yi'
	DB	'eldID, Yield from Building_ImprovementYieldChanges inner join'
	DB	' Improvements on Improvements.Type = ImprovementType inner jo'
	DB	'in Yields on Yields.Type = YieldType where BuildingType = ?', 00H
	ORG $+2
$SG218990 DB	'Yields', 00H
	ORG $+1
$SG218991 DB	'Improvements', 00H
	ORG $+3
$SG218993 DB	'Building_ImprovementYieldChangesGlobal', 00H
	ORG $+1
$SG218996 DB	'select Improvements.ID as ImprovementID, Yields.ID as Yi'
	DB	'eldID, Yield from Building_ImprovementYieldChangesGlobal inne'
	DB	'r join Improvements on Improvements.Type = ImprovementType in'
	DB	'ner join Yields on Yields.Type = YieldType where BuildingType'
	DB	' = ?', 00H
$SG219003 DB	'Yields', 00H
	ORG $+1
$SG219004 DB	'Terrains', 00H
	ORG $+3
$SG219006 DB	'Building_TerrainYieldChanges', 00H
	ORG $+3
$SG219009 DB	'select Terrains.ID as TerrainID, Yields.ID as YieldID, Y'
	DB	'ield from Building_TerrainYieldChanges inner join Terrains on'
	DB	' Terrains.Type = TerrainType inner join Yields on Yields.Type'
	DB	' = YieldType where BuildingType = ?', 00H
	ORG $+2
$SG219016 DB	'Yields', 00H
	ORG $+1
$SG219017 DB	'Specialists', 00H
$SG219019 DB	'Building_SpecialistYieldChanges', 00H
$SG219030 DB	'Resources', 00H
	ORG $+2
$SG219022 DB	'select Specialists.ID as SpecialistID, Yields.ID as Yiel'
	DB	'dID, Yield from Building_SpecialistYieldChanges inner join Sp'
	DB	'ecialists on Specialists.Type = SpecialistType inner join Yie'
	DB	'lds on Yields.Type = YieldType where BuildingType = ?', 00H
$SG219029 DB	'Yields', 00H
	ORG $+1
$SG219032 DB	'Building_ResourceYieldModifiers', 00H
$SG219035 DB	'select Resources.ID as ResourceID, Yields.ID as YieldID,'
	DB	' Yield from Building_ResourceYieldModifiers inner join Resour'
	DB	'ces on Resources.Type = ResourceType inner join Yields on Yie'
	DB	'lds.Type = YieldType where BuildingType = ?', 00H
	ORG $+2
$SG219042 DB	'Yields', 00H
	ORG $+1
$SG219043 DB	'BuildingClasses', 00H
$SG219045 DB	'Building_BuildingClassYieldChanges', 00H
	ORG $+5
$SG219048 DB	'select BuildingClasses.ID as BuildingClassID, Yields.ID '
	DB	'as YieldID, YieldChange from Building_BuildingClassYieldChang'
	DB	'es inner join BuildingClasses on BuildingClasses.Type = Build'
	DB	'ingClassType inner join Yields on Yields.Type = YieldType whe'
	DB	're BuildingType = ?', 00H
	ORG $+1
$SG219064 DB	'Building_ThemingBonuses', 00H
$SG219074 DB	'Description', 00H
$SG219067 DB	'select Bonus, Description, SameEra, UniqueEras, MustBeAr'
	DB	't, MustBeArtifact, MustBeEqualArtArtifact, RequiresOwner, Req'
	DB	'uiresAnyButOwner, RequiresSamePlayer, RequiresUniquePlayers, '
	DB	'AIPriority from Building_ThemingBonuses where BuildingType = '
	DB	'?', 00H
	ORG $+3
$SG219073 DB	'Bonus', 00H
	ORG $+2
$SG219075 DB	'SameEra', 00H
$SG219076 DB	'UniqueEras', 00H
	ORG $+1
$SG219077 DB	'MustBeArt', 00H
	ORG $+2
$SG219078 DB	'MustBeArtifact', 00H
	ORG $+1
$SG219079 DB	'MustBeEqualArtArtifact', 00H
	ORG $+1
$SG219080 DB	'RequiresOwner', 00H
	ORG $+2
$SG219081 DB	'RequiresAnyButOwner', 00H
$SG219082 DB	'RequiresSamePlayer', 00H
	ORG $+1
$SG219083 DB	'RequiresUniquePlayers', 00H
	ORG $+2
$SG219084 DB	'AIPriority', 00H
	ORG $+1
$SG219105 DB	'ERROR: Building does not contain valid BuildingClass typ'
	DB	'e!!', 00H
$SG220502 DB	'BUILDINGCLASS_SHRINE', 00H
	ORG $+3
$SG220514 DB	'CityBuildingsIsBuildingSellable', 00H
$SG220713 DB	'BUILDING_TEMPLE', 00H
$SG220811 DB	'TXT_KEY_MISC_COMPLETES_WONDER', 00H
	ORG $+2
$SG220826 DB	'TXT_KEY_MISC_WONDER_COMPLETED', 00H
	ORG $+2
$SG220847 DB	'TXT_KEY_MISC_WONDER_COMPLETED', 00H
	ORG $+2
$SG220854 DB	'TXT_KEY_MISC_WONDER_COMPLETED_UNKNOWN', 00H
	ORG $+2
$SG220857 DB	'BUILDING_GREAT_FIREWALL', 00H
$SG221578 DB	'BUILDINGCLASS_HEROIC_EPIC', 00H
	ORG $+2
$SG221581 DB	'BUILDINGCLASS_NATIONAL_COLLEGE', 00H
	ORG $+1
$SG221584 DB	'BUILDINGCLASS_NATIONAL_EPIC', 00H
$SG221587 DB	'BUILDINGCLASS_IRONWORKS', 00H
$SG221590 DB	'BUILDINGCLASS_OXFORD_UNIVERSITY', 00H
$SG221593 DB	'BUILDINGCLASS_HERMITAGE', 00H
$SG221596 DB	'BUILDINGCLASS_GREAT_LIGHTHOUSE', 00H
	ORG $+1
$SG221599 DB	'BUILDINGCLASS_STONEHENGE', 00H
	ORG $+3
$SG221602 DB	'BUILDINGCLASS_GREAT_LIBRARY', 00H
$SG221605 DB	'BUILDINGCLASS_PYRAMID', 00H
	ORG $+2
$SG221608 DB	'BUILDINGCLASS_COLOSSUS', 00H
	ORG $+1
$SG221611 DB	'BUILDINGCLASS_ORACLE', 00H
	ORG $+3
$SG221614 DB	'BUILDINGCLASS_HANGING_GARDEN', 00H
	ORG $+3
$SG221617 DB	'BUILDINGCLASS_GREAT_WALL', 00H
	ORG $+3
$SG221620 DB	'BUILDINGCLASS_ANGKOR_WAT', 00H
	ORG $+3
$SG221623 DB	'BUILDINGCLASS_HAGIA_SOPHIA', 00H
	ORG $+1
$SG221626 DB	'BUILDINGCLASS_CHICHEN_ITZA', 00H
	ORG $+1
$SG221629 DB	'BUILDINGCLASS_MACHU_PICHU', 00H
	ORG $+2
$SG221632 DB	'BUILDINGCLASS_NOTRE_DAME', 00H
	ORG $+3
$SG221635 DB	'BUILDINGCLASS_PORCELAIN_TOWER', 00H
	ORG $+2
$SG221638 DB	'BUILDINGCLASS_HIMEJI_CASTLE', 00H
$SG221641 DB	'BUILDINGCLASS_SISTINE_CHAPEL', 00H
	ORG $+3
$SG221644 DB	'BUILDINGCLASS_KREMLIN', 00H
	ORG $+2
$SG221647 DB	'BUILDINGCLASS_FORBIDDEN_PALACE', 00H
	ORG $+1
$SG221650 DB	'BUILDINGCLASS_TAJ_MAHAL', 00H
$SG221653 DB	'BUILDINGCLASS_BIG_BEN', 00H
	ORG $+2
$SG221656 DB	'BUILDINGCLASS_LOUVRE', 00H
	ORG $+3
$SG221659 DB	'BUILDINGCLASS_BRANDENBURG_GATE', 00H
	ORG $+1
$SG221662 DB	'BUILDINGCLASS_STATUE_OF_LIBERTY', 00H
$SG221665 DB	'BUILDINGCLASS_CRISTO_REDENTOR', 00H
	ORG $+2
$SG221668 DB	'BUILDINGCLASS_EIFFEL_TOWER', 00H
	ORG $+1
$SG221671 DB	'BUILDINGCLASS_PENTAGON', 00H
	ORG $+1
$SG221674 DB	'BUILDINGCLASS_UNITED_NATIONS', 00H
	ORG $+3
$SG221677 DB	'BUILDINGCLASS_SYDNEY_OPERA_HOUSE', 00H
	ORG $+3
$SG221680 DB	'BUILDINGCLASS_STATUE_ZEUS', 00H
	ORG $+2
$SG221683 DB	'BUILDINGCLASS_TEMPLE_ARTEMIS', 00H
	ORG $+3
$SG221686 DB	'BUILDINGCLASS_MAUSOLEUM_HALICARNASSUS', 00H
	ORG $+2
$SG221739 DB	'LOAD ERROR: Building Type not found', 00H
$SG92486 DB	'2968ab37-29a3-4de7-8b84-ece688231e40', 00H
	ORG $+3
_CIV5_DLC_06_SCENARIO_MODID DD FLAT:$SG92486
$SG92494 DB	'BBB0D085-A0B1-4475-B007-3E549CF3ADC3', 00H
	ORG $+3
_CIV5_DLC_06_PACKAGEID DD FLAT:$SG92494
CONST	ENDS
PUBLIC	?_Swap_aux@_Container_base@std@@QAEXAAV12@@Z	; std::_Container_base::_Swap_aux
; Function compile flags: /Ogtpy
; File c:\program files (x86)\microsoft visual studio 9.0\vc\include\xutility
;	COMDAT ?_Swap_aux@_Container_base@std@@QAEXAAV12@@Z
_TEXT	SEGMENT
___formal$ = 8						; size = 4
?_Swap_aux@_Container_base@std@@QAEXAAV12@@Z PROC	; std::_Container_base::_Swap_aux, COMDAT
; _this$ = ecx

; 602  : 		// Do nothing: we don't have an aux object.
; 603  : 		}

	ret	4
?_Swap_aux@_Container_base@std@@QAEXAAV12@@Z ENDP	; std::_Container_base::_Swap_aux
_TEXT	ENDS
PUBLIC	??_7bad_alloc@std@@6B@				; std::bad_alloc::`vftable'
PUBLIC	??0bad_alloc@std@@QAE@PBD@Z			; std::bad_alloc::bad_alloc
PUBLIC	??_R4bad_alloc@std@@6B@				; std::bad_alloc::`RTTI Complete Object Locator'
PUBLIC	??_R0?AVbad_alloc@std@@@8			; std::bad_alloc `RTTI Type Descriptor'
PUBLIC	??_R3bad_alloc@std@@8				; std::bad_alloc::`RTTI Class Hierarchy Descriptor'
PUBLIC	??_R2bad_alloc@std@@8				; std::bad_alloc::`RTTI Base Class Array'
PUBLIC	??_R1A@?0A@EA@bad_alloc@std@@8			; std::bad_alloc::`RTTI Base Class Descriptor at (0,-1,0,64)'
PUBLIC	??_R1A@?0A@EA@exception@std@@8			; std::exception::`RTTI Base Class Descriptor at (0,-1,0,64)'
PUBLIC	??_R0?AVexception@std@@@8			; std::exception `RTTI Type Descriptor'
PUBLIC	??_R3exception@std@@8				; std::exception::`RTTI Class Hierarchy Descriptor'
PUBLIC	??_R2exception@std@@8				; std::exception::`RTTI Base Class Array'
EXTRN	__imp_??0exception@std@@QAE@ABQBD@Z:PROC
EXTRN	??_7type_info@@6B@:QWORD			; type_info::`vftable'
EXTRN	??_Ebad_alloc@std@@UAEPAXI@Z:PROC		; std::bad_alloc::`vector deleting destructor'
EXTRN	?what@exception@std@@UBEPBDXZ:PROC		; std::exception::what
;	COMDAT ??_R2exception@std@@8
; File c:\program files (x86)\microsoft visual studio 9.0\vc\include\exception
rdata$r	SEGMENT
??_R2exception@std@@8 DD FLAT:??_R1A@?0A@EA@exception@std@@8 ; std::exception::`RTTI Base Class Array'
rdata$r	ENDS
;	COMDAT ??_R3exception@std@@8
rdata$r	SEGMENT
??_R3exception@std@@8 DD 00H				; std::exception::`RTTI Class Hierarchy Descriptor'
	DD	00H
	DD	01H
	DD	FLAT:??_R2exception@std@@8
rdata$r	ENDS
;	COMDAT ??_R0?AVexception@std@@@8
_DATA	SEGMENT
??_R0?AVexception@std@@@8 DD FLAT:??_7type_info@@6B@	; std::exception `RTTI Type Descriptor'
	DD	00H
	DB	'.?AVexception@std@@', 00H
_DATA	ENDS
;	COMDAT ??_R1A@?0A@EA@exception@std@@8
rdata$r	SEGMENT
??_R1A@?0A@EA@exception@std@@8 DD FLAT:??_R0?AVexception@std@@@8 ; std::exception::`RTTI Base Class Descriptor at (0,-1,0,64)'
	DD	00H
	DD	00H
	DD	0ffffffffH
	DD	00H
	DD	040H
	DD	FLAT:??_R3exception@std@@8
rdata$r	ENDS
;	COMDAT ??_R1A@?0A@EA@bad_alloc@std@@8
rdata$r	SEGMENT
??_R1A@?0A@EA@bad_alloc@std@@8 DD FLAT:??_R0?AVbad_alloc@std@@@8 ; std::bad_alloc::`RTTI Base Class Descriptor at (0,-1,0,64)'
	DD	01H
	DD	00H
	DD	0ffffffffH
	DD	00H
	DD	040H
	DD	FLAT:??_R3bad_alloc@std@@8
rdata$r	ENDS
;	COMDAT ??_R2bad_alloc@std@@8
rdata$r	SEGMENT
??_R2bad_alloc@std@@8 DD FLAT:??_R1A@?0A@EA@bad_alloc@std@@8 ; std::bad_alloc::`RTTI Base Class Array'
	DD	FLAT:??_R1A@?0A@EA@exception@std@@8
rdata$r	ENDS
;	COMDAT ??_R3bad_alloc@std@@8
rdata$r	SEGMENT
??_R3bad_alloc@std@@8 DD 00H				; std::bad_alloc::`RTTI Class Hierarchy Descriptor'
	DD	00H
	DD	02H
	DD	FLAT:??_R2bad_alloc@std@@8
rdata$r	ENDS
;	COMDAT ??_R0?AVbad_alloc@std@@@8
_DATA	SEGMENT
??_R0?AVbad_alloc@std@@@8 DD FLAT:??_7type_info@@6B@	; std::bad_alloc `RTTI Type Descriptor'
	DD	00H
	DB	'.?AVbad_alloc@std@@', 00H
_DATA	ENDS
;	COMDAT ??_R4bad_alloc@std@@6B@
rdata$r	SEGMENT
??_R4bad_alloc@std@@6B@ DD 00H				; std::bad_alloc::`RTTI Complete Object Locator'
	DD	00H
	DD	00H
	DD	FLAT:??_R0?AVbad_alloc@std@@@8
	DD	FLAT:??_R3bad_alloc@std@@8
rdata$r	ENDS
;	COMDAT ??_7bad_alloc@std@@6B@
CONST	SEGMENT
??_7bad_alloc@std@@6B@ DD FLAT:??_R4bad_alloc@std@@6B@	; std::bad_alloc::`vftable'
	DD	FLAT:??_Ebad_alloc@std@@UAEPAXI@Z
	DD	FLAT:?what@exception@std@@UBEPBDXZ
; Function compile flags: /Ogtpy
CONST	ENDS
;	COMDAT ??0bad_alloc@std@@QAE@PBD@Z
_TEXT	SEGMENT
__Message$ = 8						; size = 4
??0bad_alloc@std@@QAE@PBD@Z PROC			; std::bad_alloc::bad_alloc, COMDAT
; _this$ = ecx

; 371  : 		{	// construct from message string

	push	esi
	lea	eax, DWORD PTR __Message$[esp]
	push	eax
	mov	esi, ecx
	call	DWORD PTR __imp_??0exception@std@@QAE@ABQBD@Z
	mov	DWORD PTR [esi], OFFSET ??_7bad_alloc@std@@6B@

; 372  : 		}

	mov	eax, esi
	pop	esi
	ret	4
??0bad_alloc@std@@QAE@PBD@Z ENDP			; std::bad_alloc::bad_alloc
_TEXT	ENDS
PUBLIC	??1bad_alloc@std@@UAE@XZ			; std::bad_alloc::~bad_alloc
EXTRN	__imp_??1exception@std@@UAE@XZ:PROC
; Function compile flags: /Ogtpy
;	COMDAT ??1bad_alloc@std@@UAE@XZ
_TEXT	SEGMENT
??1bad_alloc@std@@UAE@XZ PROC				; std::bad_alloc::~bad_alloc, COMDAT
; _this$ = ecx

; 380  : 		{	// destroy the object

	mov	DWORD PTR [ecx], OFFSET ??_7bad_alloc@std@@6B@

; 381  : 		}

	jmp	DWORD PTR __imp_??1exception@std@@UAE@XZ
??1bad_alloc@std@@UAE@XZ ENDP				; std::bad_alloc::~bad_alloc
_TEXT	ENDS
EXTRN	??3@YAXPAX@Z:PROC				; operator delete
; Function compile flags: /Ogtpy
;	COMDAT ??_Gbad_alloc@std@@UAEPAXI@Z
_TEXT	SEGMENT
___flags$ = 8						; size = 4
??_Gbad_alloc@std@@UAEPAXI@Z PROC			; std::bad_alloc::`scalar deleting destructor', COMDAT
; _this$ = ecx
	push	esi
	mov	esi, ecx
	mov	DWORD PTR [esi], OFFSET ??_7bad_alloc@std@@6B@
	call	DWORD PTR __imp_??1exception@std@@UAE@XZ
	test	BYTE PTR ___flags$[esp], 1
	je	SHORT $LN6@scalar
	push	esi
	call	??3@YAXPAX@Z				; operator delete
	add	esp, 4
$LN6@scalar:
	mov	eax, esi
	pop	esi
	ret	4
??_Gbad_alloc@std@@UAEPAXI@Z ENDP			; std::bad_alloc::`scalar deleting destructor'
_TEXT	ENDS
PUBLIC	??2@YAPAXIPAX@Z					; operator new
; Function compile flags: /Ogtpy
; File c:\program files (x86)\microsoft visual studio 9.0\vc\include\new
;	COMDAT ??2@YAPAXIPAX@Z
_TEXT	SEGMENT
___formal$ = 8						; size = 4
__Where$ = 12						; size = 4
??2@YAPAXIPAX@Z PROC					; operator new, COMDAT

; 59   : 	return (_Where);

	mov	eax, DWORD PTR __Where$[esp-4]

; 60   : 	}

	ret	0
??2@YAPAXIPAX@Z ENDP					; operator new
_TEXT	ENDS
PUBLIC	??3@YAXPAX0@Z					; operator delete
; Function compile flags: /Ogtpy
;	COMDAT ??3@YAXPAX0@Z
_TEXT	SEGMENT
___formal$ = 8						; size = 4
___formal$ = 12						; size = 4
??3@YAXPAX0@Z PROC					; operator delete, COMDAT

; 64   : 	}

	ret	0
??3@YAXPAX0@Z ENDP					; operator delete
_TEXT	ENDS
PUBLIC	??_7logic_error@std@@6B@			; std::logic_error::`vftable'
PUBLIC	??0logic_error@std@@QAE@ABV?$basic_string@DU?$char_traits@D@std@@V?$allocator@D@2@@1@@Z ; std::logic_error::logic_error
PUBLIC	??_R4logic_error@std@@6B@			; std::logic_error::`RTTI Complete Object Locator'
PUBLIC	??_R0?AVlogic_error@std@@@8			; std::logic_error `RTTI Type Descriptor'
PUBLIC	??_R3logic_error@std@@8				; std::logic_error::`RTTI Class Hierarchy Descriptor'
PUBLIC	??_R2logic_error@std@@8				; std::logic_error::`RTTI Base Class Array'
PUBLIC	??_R1A@?0A@EA@logic_error@std@@8		; std::logic_error::`RTTI Base Class Descriptor at (0,-1,0,64)'
PUBLIC	?what@logic_error@std@@UBEPBDXZ			; std::logic_error::what
EXTRN	__imp_??0?$basic_string@DU?$char_traits@D@std@@V?$allocator@D@2@@std@@QAE@ABV01@@Z:PROC
EXTRN	__imp_??0exception@std@@QAE@XZ:PROC
EXTRN	___CxxFrameHandler3:PROC
EXTRN	??_Elogic_error@std@@UAEPAXI@Z:PROC		; std::logic_error::`vector deleting destructor'
;	COMDAT ??_R1A@?0A@EA@logic_error@std@@8
; File c:\program files (x86)\microsoft visual studio 9.0\vc\include\stdexcept
rdata$r	SEGMENT
??_R1A@?0A@EA@logic_error@std@@8 DD FLAT:??_R0?AVlogic_error@std@@@8 ; std::logic_error::`RTTI Base Class Descriptor at (0,-1,0,64)'
	DD	01H
	DD	00H
	DD	0ffffffffH
	DD	00H
	DD	040H
	DD	FLAT:??_R3logic_error@std@@8
rdata$r	ENDS
;	COMDAT ??_R2logic_error@std@@8
rdata$r	SEGMENT
??_R2logic_error@std@@8 DD FLAT:??_R1A@?0A@EA@logic_error@std@@8 ; std::logic_error::`RTTI Base Class Array'
	DD	FLAT:??_R1A@?0A@EA@exception@std@@8
rdata$r	ENDS
;	COMDAT ??_R3logic_error@std@@8
rdata$r	SEGMENT
??_R3logic_error@std@@8 DD 00H				; std::logic_error::`RTTI Class Hierarchy Descriptor'
	DD	00H
	DD	02H
	DD	FLAT:??_R2logic_error@std@@8
rdata$r	ENDS
;	COMDAT ??_R0?AVlogic_error@std@@@8
_DATA	SEGMENT
??_R0?AVlogic_error@std@@@8 DD FLAT:??_7type_info@@6B@	; std::logic_error `RTTI Type Descriptor'
	DD	00H
	DB	'.?AVlogic_error@std@@', 00H
_DATA	ENDS
;	COMDAT ??_R4logic_error@std@@6B@
rdata$r	SEGMENT
??_R4logic_error@std@@6B@ DD 00H			; std::logic_error::`RTTI Complete Object Locator'
	DD	00H
	DD	00H
	DD	FLAT:??_R0?AVlogic_error@std@@@8
	DD	FLAT:??_R3logic_error@std@@8
rdata$r	ENDS
;	COMDAT ??_7logic_error@std@@6B@
CONST	SEGMENT
??_7logic_error@std@@6B@ DD FLAT:??_R4logic_error@std@@6B@ ; std::logic_error::`vftable'
	DD	FLAT:??_Elogic_error@std@@UAEPAXI@Z
	DD	FLAT:?what@logic_error@std@@UBEPBDXZ
CONST	ENDS
;	COMDAT xdata$x
xdata$x	SEGMENT
__unwindtable$??0logic_error@std@@QAE@ABV?$basic_string@DU?$char_traits@D@std@@V?$allocator@D@2@@1@@Z DD 0ffffffffH
	DD	FLAT:__unwindfunclet$??0logic_error@std@@QAE@ABV?$basic_string@DU?$char_traits@D@std@@V?$allocator@D@2@@1@@Z$0
__ehfuncinfo$??0logic_error@std@@QAE@ABV?$basic_string@DU?$char_traits@D@std@@V?$allocator@D@2@@1@@Z DD 019930522H
	DD	01H
	DD	FLAT:__unwindtable$??0logic_error@std@@QAE@ABV?$basic_string@DU?$char_traits@D@std@@V?$allocator@D@2@@1@@Z
	DD	2 DUP(00H)
	DD	2 DUP(00H)
	DD	00H
	DD	01H
; Function compile flags: /Ogtpy
xdata$x	ENDS
;	COMDAT ??0logic_error@std@@QAE@ABV?$basic_string@DU?$char_traits@D@std@@V?$allocator@D@2@@1@@Z
_TEXT	SEGMENT
_this$ = -16						; size = 4
__$EHRec$ = -12						; size = 12
__Message$ = 8						; size = 4
??0logic_error@std@@QAE@ABV?$basic_string@DU?$char_traits@D@std@@V?$allocator@D@2@@1@@Z PROC ; std::logic_error::logic_error, COMDAT
; _this$ = ecx

; 26   : 		{	// construct from message string

	push	-1
	push	__ehhandler$??0logic_error@std@@QAE@ABV?$basic_string@DU?$char_traits@D@std@@V?$allocator@D@2@@1@@Z
	mov	eax, DWORD PTR fs:0
	push	eax
	mov	DWORD PTR fs:0, esp
	push	ecx
	push	esi
	mov	esi, ecx
	mov	DWORD PTR _this$[esp+20], esi
	call	DWORD PTR __imp_??0exception@std@@QAE@XZ
	mov	eax, DWORD PTR __Message$[esp+16]
	push	eax
	lea	ecx, DWORD PTR [esi+12]
	mov	DWORD PTR __$EHRec$[esp+32], 0
	mov	DWORD PTR [esi], OFFSET ??_7logic_error@std@@6B@
	call	DWORD PTR __imp_??0?$basic_string@DU?$char_traits@D@std@@V?$allocator@D@2@@std@@QAE@ABV01@@Z

; 27   : 		}

	mov	ecx, DWORD PTR __$EHRec$[esp+20]
	mov	eax, esi
	pop	esi
	mov	DWORD PTR fs:0, ecx
	add	esp, 16					; 00000010H
	ret	4
_TEXT	ENDS
;	COMDAT text$x
text$x	SEGMENT
__unwindfunclet$??0logic_error@std@@QAE@ABV?$basic_string@DU?$char_traits@D@std@@V?$allocator@D@2@@1@@Z$0:
	mov	ecx, DWORD PTR _this$[ebp]
	jmp	DWORD PTR __imp_??1exception@std@@UAE@XZ
__ehhandler$??0logic_error@std@@QAE@ABV?$basic_string@DU?$char_traits@D@std@@V?$allocator@D@2@@1@@Z:
	mov	eax, OFFSET __ehfuncinfo$??0logic_error@std@@QAE@ABV?$basic_string@DU?$char_traits@D@std@@V?$allocator@D@2@@1@@Z
	jmp	___CxxFrameHandler3
text$x	ENDS
??0logic_error@std@@QAE@ABV?$basic_string@DU?$char_traits@D@std@@V?$allocator@D@2@@1@@Z ENDP ; std::logic_error::logic_error
PUBLIC	??1logic_error@std@@UAE@XZ			; std::logic_error::~logic_error
EXTRN	__imp_??1?$basic_string@DU?$char_traits@D@std@@V?$allocator@D@2@@std@@QAE@XZ:PROC
; Function compile flags: /Ogtpy
;	COMDAT ??1logic_error@std@@UAE@XZ
_TEXT	SEGMENT
??1logic_error@std@@UAE@XZ PROC				; std::logic_error::~logic_error, COMDAT
; _this$ = ecx

; 30   : 		{	// destroy the object

	push	esi
	mov	esi, ecx

; 31   : 		}

	lea	ecx, DWORD PTR [esi+12]
	mov	DWORD PTR [esi], OFFSET ??_7logic_error@std@@6B@
	call	DWORD PTR __imp_??1?$basic_string@DU?$char_traits@D@std@@V?$allocator@D@2@@std@@QAE@XZ
	mov	ecx, esi
	pop	esi
	jmp	DWORD PTR __imp_??1exception@std@@UAE@XZ
??1logic_error@std@@UAE@XZ ENDP				; std::logic_error::~logic_error
_TEXT	ENDS
EXTRN	__imp_?c_str@?$basic_string@DU?$char_traits@D@std@@V?$allocator@D@2@@std@@QBEPBDXZ:PROC
; Function compile flags: /Ogtpy
;	COMDAT ?what@logic_error@std@@UBEPBDXZ
_TEXT	SEGMENT
?what@logic_error@std@@UBEPBDXZ PROC			; std::logic_error::what, COMDAT
; _this$ = ecx

; 35   : 		return (_Str.c_str());

	add	ecx, 12					; 0000000cH
	jmp	DWORD PTR __imp_?c_str@?$basic_string@DU?$char_traits@D@std@@V?$allocator@D@2@@std@@QBEPBDXZ
?what@logic_error@std@@UBEPBDXZ ENDP			; std::logic_error::what
; Function compile flags: /Ogtpy
_TEXT	ENDS
;	COMDAT ??_Glogic_error@std@@UAEPAXI@Z
_TEXT	SEGMENT
___flags$ = 8						; size = 4
??_Glogic_error@std@@UAEPAXI@Z PROC			; std::logic_error::`scalar deleting destructor', COMDAT
; _this$ = ecx
	push	esi
	mov	esi, ecx
	lea	ecx, DWORD PTR [esi+12]
	mov	DWORD PTR [esi], OFFSET ??_7logic_error@std@@6B@
	call	DWORD PTR __imp_??1?$basic_string@DU?$char_traits@D@std@@V?$allocator@D@2@@std@@QAE@XZ
	mov	ecx, esi
	call	DWORD PTR __imp_??1exception@std@@UAE@XZ
	test	BYTE PTR ___flags$[esp], 1
	je	SHORT $LN6@scalar@2
	push	esi
	call	??3@YAXPAX@Z				; operator delete
	add	esp, 4
$LN6@scalar@2:
	mov	eax, esi
	pop	esi
	ret	4
??_Glogic_error@std@@UAEPAXI@Z ENDP			; std::logic_error::`scalar deleting destructor'
_TEXT	ENDS
PUBLIC	??_7length_error@std@@6B@			; std::length_error::`vftable'
PUBLIC	??0length_error@std@@QAE@ABV?$basic_string@DU?$char_traits@D@std@@V?$allocator@D@2@@1@@Z ; std::length_error::length_error
PUBLIC	??_R4length_error@std@@6B@			; std::length_error::`RTTI Complete Object Locator'
PUBLIC	??_R0?AVlength_error@std@@@8			; std::length_error `RTTI Type Descriptor'
PUBLIC	??_R3length_error@std@@8			; std::length_error::`RTTI Class Hierarchy Descriptor'
PUBLIC	??_R2length_error@std@@8			; std::length_error::`RTTI Base Class Array'
PUBLIC	??_R1A@?0A@EA@length_error@std@@8		; std::length_error::`RTTI Base Class Descriptor at (0,-1,0,64)'
EXTRN	??_Elength_error@std@@UAEPAXI@Z:PROC		; std::length_error::`vector deleting destructor'
;	COMDAT ??_R1A@?0A@EA@length_error@std@@8
rdata$r	SEGMENT
??_R1A@?0A@EA@length_error@std@@8 DD FLAT:??_R0?AVlength_error@std@@@8 ; std::length_error::`RTTI Base Class Descriptor at (0,-1,0,64)'
	DD	02H
	DD	00H
	DD	0ffffffffH
	DD	00H
	DD	040H
	DD	FLAT:??_R3length_error@std@@8
rdata$r	ENDS
;	COMDAT ??_R2length_error@std@@8
rdata$r	SEGMENT
??_R2length_error@std@@8 DD FLAT:??_R1A@?0A@EA@length_error@std@@8 ; std::length_error::`RTTI Base Class Array'
	DD	FLAT:??_R1A@?0A@EA@logic_error@std@@8
	DD	FLAT:??_R1A@?0A@EA@exception@std@@8
rdata$r	ENDS
;	COMDAT ??_R3length_error@std@@8
rdata$r	SEGMENT
??_R3length_error@std@@8 DD 00H				; std::length_error::`RTTI Class Hierarchy Descriptor'
	DD	00H
	DD	03H
	DD	FLAT:??_R2length_error@std@@8
rdata$r	ENDS
;	COMDAT ??_R0?AVlength_error@std@@@8
_DATA	SEGMENT
??_R0?AVlength_error@std@@@8 DD FLAT:??_7type_info@@6B@	; std::length_error `RTTI Type Descriptor'
	DD	00H
	DB	'.?AVlength_error@std@@', 00H
_DATA	ENDS
;	COMDAT ??_R4length_error@std@@6B@
rdata$r	SEGMENT
??_R4length_error@std@@6B@ DD 00H			; std::length_error::`RTTI Complete Object Locator'
	DD	00H
	DD	00H
	DD	FLAT:??_R0?AVlength_error@std@@@8
	DD	FLAT:??_R3length_error@std@@8
rdata$r	ENDS
;	COMDAT ??_7length_error@std@@6B@
CONST	SEGMENT
??_7length_error@std@@6B@ DD FLAT:??_R4length_error@std@@6B@ ; std::length_error::`vftable'
	DD	FLAT:??_Elength_error@std@@UAEPAXI@Z
	DD	FLAT:?what@logic_error@std@@UBEPBDXZ
; Function compile flags: /Ogtpy
CONST	ENDS
;	COMDAT ??0length_error@std@@QAE@ABV?$basic_string@DU?$char_traits@D@std@@V?$allocator@D@2@@1@@Z
_TEXT	SEGMENT
__Message$ = 8						; size = 4
??0length_error@std@@QAE@ABV?$basic_string@DU?$char_traits@D@std@@V?$allocator@D@2@@1@@Z PROC ; std::length_error::length_error, COMDAT
; _this$ = ecx

; 105  : 		{	// construct from message string

	mov	eax, DWORD PTR __Message$[esp-4]
	push	esi
	push	eax
	mov	esi, ecx
	call	??0logic_error@std@@QAE@ABV?$basic_string@DU?$char_traits@D@std@@V?$allocator@D@2@@1@@Z ; std::logic_error::logic_error
	mov	DWORD PTR [esi], OFFSET ??_7length_error@std@@6B@

; 106  : 		}

	mov	eax, esi
	pop	esi
	ret	4
??0length_error@std@@QAE@ABV?$basic_string@DU?$char_traits@D@std@@V?$allocator@D@2@@1@@Z ENDP ; std::length_error::length_error
_TEXT	ENDS
PUBLIC	??1length_error@std@@UAE@XZ			; std::length_error::~length_error
; Function compile flags: /Ogtpy
;	COMDAT ??1length_error@std@@UAE@XZ
_TEXT	SEGMENT
??1length_error@std@@UAE@XZ PROC			; std::length_error::~length_error, COMDAT
; _this$ = ecx

; 109  : 		{	// destroy the object

	push	esi
	mov	esi, ecx

; 110  : 		}

	lea	ecx, DWORD PTR [esi+12]
	mov	DWORD PTR [esi], OFFSET ??_7logic_error@std@@6B@
	call	DWORD PTR __imp_??1?$basic_string@DU?$char_traits@D@std@@V?$allocator@D@2@@std@@QAE@XZ
	mov	ecx, esi
	pop	esi
	jmp	DWORD PTR __imp_??1exception@std@@UAE@XZ
??1length_error@std@@UAE@XZ ENDP			; std::length_error::~length_error
; Function compile flags: /Ogtpy
_TEXT	ENDS
;	COMDAT ??_Glength_error@std@@UAEPAXI@Z
_TEXT	SEGMENT
___flags$ = 8						; size = 4
??_Glength_error@std@@UAEPAXI@Z PROC			; std::length_error::`scalar deleting destructor', COMDAT
; _this$ = ecx
	push	esi
	mov	esi, ecx
	lea	ecx, DWORD PTR [esi+12]
	mov	DWORD PTR [esi], OFFSET ??_7logic_error@std@@6B@
	call	DWORD PTR __imp_??1?$basic_string@DU?$char_traits@D@std@@V?$allocator@D@2@@std@@QAE@XZ
	mov	ecx, esi
	call	DWORD PTR __imp_??1exception@std@@UAE@XZ
	test	BYTE PTR ___flags$[esp], 1
	je	SHORT $LN8@scalar@3
	push	esi
	call	??3@YAXPAX@Z				; operator delete
	add	esp, 4
$LN8@scalar@3:
	mov	eax, esi
	pop	esi
	ret	4
??_Glength_error@std@@UAEPAXI@Z ENDP			; std::length_error::`scalar deleting destructor'
_TEXT	ENDS
PUBLIC	??_7out_of_range@std@@6B@			; std::out_of_range::`vftable'
PUBLIC	??0out_of_range@std@@QAE@ABV?$basic_string@DU?$char_traits@D@std@@V?$allocator@D@2@@1@@Z ; std::out_of_range::out_of_range
PUBLIC	??_R4out_of_range@std@@6B@			; std::out_of_range::`RTTI Complete Object Locator'
PUBLIC	??_R0?AVout_of_range@std@@@8			; std::out_of_range `RTTI Type Descriptor'
PUBLIC	??_R3out_of_range@std@@8			; std::out_of_range::`RTTI Class Hierarchy Descriptor'
PUBLIC	??_R2out_of_range@std@@8			; std::out_of_range::`RTTI Base Class Array'
PUBLIC	??_R1A@?0A@EA@out_of_range@std@@8		; std::out_of_range::`RTTI Base Class Descriptor at (0,-1,0,64)'
EXTRN	??_Eout_of_range@std@@UAEPAXI@Z:PROC		; std::out_of_range::`vector deleting destructor'
;	COMDAT ??_R1A@?0A@EA@out_of_range@std@@8
rdata$r	SEGMENT
??_R1A@?0A@EA@out_of_range@std@@8 DD FLAT:??_R0?AVout_of_range@std@@@8 ; std::out_of_range::`RTTI Base Class Descriptor at (0,-1,0,64)'
	DD	02H
	DD	00H
	DD	0ffffffffH
	DD	00H
	DD	040H
	DD	FLAT:??_R3out_of_range@std@@8
rdata$r	ENDS
;	COMDAT ??_R2out_of_range@std@@8
rdata$r	SEGMENT
??_R2out_of_range@std@@8 DD FLAT:??_R1A@?0A@EA@out_of_range@std@@8 ; std::out_of_range::`RTTI Base Class Array'
	DD	FLAT:??_R1A@?0A@EA@logic_error@std@@8
	DD	FLAT:??_R1A@?0A@EA@exception@std@@8
rdata$r	ENDS
;	COMDAT ??_R3out_of_range@std@@8
rdata$r	SEGMENT
??_R3out_of_range@std@@8 DD 00H				; std::out_of_range::`RTTI Class Hierarchy Descriptor'
	DD	00H
	DD	03H
	DD	FLAT:??_R2out_of_range@std@@8
rdata$r	ENDS
;	COMDAT ??_R0?AVout_of_range@std@@@8
_DATA	SEGMENT
??_R0?AVout_of_range@std@@@8 DD FLAT:??_7type_info@@6B@	; std::out_of_range `RTTI Type Descriptor'
	DD	00H
	DB	'.?AVout_of_range@std@@', 00H
_DATA	ENDS
;	COMDAT ??_R4out_of_range@std@@6B@
rdata$r	SEGMENT
??_R4out_of_range@std@@6B@ DD 00H			; std::out_of_range::`RTTI Complete Object Locator'
	DD	00H
	DD	00H
	DD	FLAT:??_R0?AVout_of_range@std@@@8
	DD	FLAT:??_R3out_of_range@std@@8
rdata$r	ENDS
;	COMDAT ??_7out_of_range@std@@6B@
CONST	SEGMENT
??_7out_of_range@std@@6B@ DD FLAT:??_R4out_of_range@std@@6B@ ; std::out_of_range::`vftable'
	DD	FLAT:??_Eout_of_range@std@@UAEPAXI@Z
	DD	FLAT:?what@logic_error@std@@UBEPBDXZ
; Function compile flags: /Ogtpy
CONST	ENDS
;	COMDAT ??0out_of_range@std@@QAE@ABV?$basic_string@DU?$char_traits@D@std@@V?$allocator@D@2@@1@@Z
_TEXT	SEGMENT
__Message$ = 8						; size = 4
??0out_of_range@std@@QAE@ABV?$basic_string@DU?$char_traits@D@std@@V?$allocator@D@2@@1@@Z PROC ; std::out_of_range::out_of_range, COMDAT
; _this$ = ecx

; 129  : 		{	// construct from message string

	mov	eax, DWORD PTR __Message$[esp-4]
	push	esi
	push	eax
	mov	esi, ecx
	call	??0logic_error@std@@QAE@ABV?$basic_string@DU?$char_traits@D@std@@V?$allocator@D@2@@1@@Z ; std::logic_error::logic_error
	mov	DWORD PTR [esi], OFFSET ??_7out_of_range@std@@6B@

; 130  : 		}

	mov	eax, esi
	pop	esi
	ret	4
??0out_of_range@std@@QAE@ABV?$basic_string@DU?$char_traits@D@std@@V?$allocator@D@2@@1@@Z ENDP ; std::out_of_range::out_of_range
_TEXT	ENDS
PUBLIC	??1out_of_range@std@@UAE@XZ			; std::out_of_range::~out_of_range
; Function compile flags: /Ogtpy
;	COMDAT ??1out_of_range@std@@UAE@XZ
_TEXT	SEGMENT
??1out_of_range@std@@UAE@XZ PROC			; std::out_of_range::~out_of_range, COMDAT
; _this$ = ecx

; 133  : 		{	// destroy the object

	push	esi
	mov	esi, ecx

; 134  : 		}

	lea	ecx, DWORD PTR [esi+12]
	mov	DWORD PTR [esi], OFFSET ??_7logic_error@std@@6B@
	call	DWORD PTR __imp_??1?$basic_string@DU?$char_traits@D@std@@V?$allocator@D@2@@std@@QAE@XZ
	mov	ecx, esi
	pop	esi
	jmp	DWORD PTR __imp_??1exception@std@@UAE@XZ
??1out_of_range@std@@UAE@XZ ENDP			; std::out_of_range::~out_of_range
; Function compile flags: /Ogtpy
_TEXT	ENDS
;	COMDAT ??_Gout_of_range@std@@UAEPAXI@Z
_TEXT	SEGMENT
___flags$ = 8						; size = 4
??_Gout_of_range@std@@UAEPAXI@Z PROC			; std::out_of_range::`scalar deleting destructor', COMDAT
; _this$ = ecx
	push	esi
	mov	esi, ecx
	lea	ecx, DWORD PTR [esi+12]
	mov	DWORD PTR [esi], OFFSET ??_7logic_error@std@@6B@
	call	DWORD PTR __imp_??1?$basic_string@DU?$char_traits@D@std@@V?$allocator@D@2@@std@@QAE@XZ
	mov	ecx, esi
	call	DWORD PTR __imp_??1exception@std@@UAE@XZ
	test	BYTE PTR ___flags$[esp], 1
	je	SHORT $LN8@scalar@4
	push	esi
	call	??3@YAXPAX@Z				; operator delete
	add	esp, 4
$LN8@scalar@4:
	mov	eax, esi
	pop	esi
	ret	4
??_Gout_of_range@std@@UAEPAXI@Z ENDP			; std::out_of_range::`scalar deleting destructor'
_TEXT	ENDS
PUBLIC	?GetBuildingClassType@CvBuildingEntry@@QBEHXZ	; CvBuildingEntry::GetBuildingClassType
; Function compile flags: /Ogtpy
; File c:\users\enormousapplepie\desktop\lekmod dll versions\v31\lekmod_dll\cvgamecoredll_expansion2\cvbuildingclasses.cpp
;	COMDAT ?GetBuildingClassType@CvBuildingEntry@@QBEHXZ
_TEXT	SEGMENT
?GetBuildingClassType@CvBuildingEntry@@QBEHXZ PROC	; CvBuildingEntry::GetBuildingClassType, COMDAT
; _this$ = ecx

; 855  : 	return m_iBuildingClassType;

	mov	eax, DWORD PTR [ecx+260]

; 856  : }

	ret	0
?GetBuildingClassType@CvBuildingEntry@@QBEHXZ ENDP	; CvBuildingEntry::GetBuildingClassType
_TEXT	ENDS
PUBLIC	?GetBuildingClassInfo@CvBuildingEntry@@QBEABVCvBuildingClassInfo@@XZ ; CvBuildingEntry::GetBuildingClassInfo
EXTRN	?LogMessage@CvGlobals@@QAEXPBD@Z:PROC		; CvGlobals::LogMessage
EXTRN	?gGlobals@@3VCvGlobals@@A:BYTE			; gGlobals
; Function compile flags: /Ogtpy
;	COMDAT ?GetBuildingClassInfo@CvBuildingEntry@@QBEABVCvBuildingClassInfo@@XZ
_TEXT	SEGMENT
?GetBuildingClassInfo@CvBuildingEntry@@QBEABVCvBuildingClassInfo@@XZ PROC ; CvBuildingEntry::GetBuildingClassInfo, COMDAT
; _this$ = ecx

; 859  : {

	push	esi
	mov	esi, ecx

; 860  : 	if(m_pkBuildingClassInfo == NULL)

	cmp	DWORD PTR [esi+264], 0
	jne	SHORT $LN4@GetBuildin

; 861  : 	{
; 862  : 		const char* szError = "ERROR: Building does not contain valid BuildingClass type!!";
; 863  : 		GC.LogMessage(szError);

	push	OFFSET $SG219105
	mov	ecx, OFFSET ?gGlobals@@3VCvGlobals@@A	; gGlobals
	call	?LogMessage@CvGlobals@@QAEXPBD@Z	; CvGlobals::LogMessage
$LN4@GetBuildin:

; 864  : 		CvAssertMsg(false, szError);
; 865  : 	}
; 866  : 
; 867  : #pragma warning ( push )
; 868  : #pragma warning ( disable : 6011 ) // Dereferencing NULL pointer
; 869  : 	return *m_pkBuildingClassInfo;

	mov	eax, DWORD PTR [esi+264]
	pop	esi

; 870  : #pragma warning ( pop )
; 871  : }

	ret	0
?GetBuildingClassInfo@CvBuildingEntry@@QBEABVCvBuildingClassInfo@@XZ ENDP ; CvBuildingEntry::GetBuildingClassInfo
_TEXT	ENDS
PUBLIC	?GetNearbyTerrainRequired@CvBuildingEntry@@QBEHXZ ; CvBuildingEntry::GetNearbyTerrainRequired
; Function compile flags: /Ogtpy
;	COMDAT ?GetNearbyTerrainRequired@CvBuildingEntry@@QBEHXZ
_TEXT	SEGMENT
?GetNearbyTerrainRequired@CvBuildingEntry@@QBEHXZ PROC	; CvBuildingEntry::GetNearbyTerrainRequired, COMDAT
; _this$ = ecx

; 876  : 	return m_iNearbyTerrainRequired;

	mov	eax, DWORD PTR [ecx+268]

; 877  : }

	ret	0
?GetNearbyTerrainRequired@CvBuildingEntry@@QBEHXZ ENDP	; CvBuildingEntry::GetNearbyTerrainRequired
_TEXT	ENDS
PUBLIC	?GetProhibitedCityTerrain@CvBuildingEntry@@QBEHXZ ; CvBuildingEntry::GetProhibitedCityTerrain
; Function compile flags: /Ogtpy
;	COMDAT ?GetProhibitedCityTerrain@CvBuildingEntry@@QBEHXZ
_TEXT	SEGMENT
?GetProhibitedCityTerrain@CvBuildingEntry@@QBEHXZ PROC	; CvBuildingEntry::GetProhibitedCityTerrain, COMDAT
; _this$ = ecx

; 882  : 	return m_iProhibitedCityTerrain;

	mov	eax, DWORD PTR [ecx+272]

; 883  : }

	ret	0
?GetProhibitedCityTerrain@CvBuildingEntry@@QBEHXZ ENDP	; CvBuildingEntry::GetProhibitedCityTerrain
_TEXT	ENDS
PUBLIC	?GetVictoryPrereq@CvBuildingEntry@@QBEHXZ	; CvBuildingEntry::GetVictoryPrereq
; Function compile flags: /Ogtpy
;	COMDAT ?GetVictoryPrereq@CvBuildingEntry@@QBEHXZ
_TEXT	SEGMENT
?GetVictoryPrereq@CvBuildingEntry@@QBEHXZ PROC		; CvBuildingEntry::GetVictoryPrereq, COMDAT
; _this$ = ecx

; 888  : 	return m_iVictoryPrereq;

	mov	eax, DWORD PTR [ecx+276]

; 889  : }

	ret	0
?GetVictoryPrereq@CvBuildingEntry@@QBEHXZ ENDP		; CvBuildingEntry::GetVictoryPrereq
_TEXT	ENDS
PUBLIC	?GetFreeStartEra@CvBuildingEntry@@QBEHXZ	; CvBuildingEntry::GetFreeStartEra
; Function compile flags: /Ogtpy
;	COMDAT ?GetFreeStartEra@CvBuildingEntry@@QBEHXZ
_TEXT	SEGMENT
?GetFreeStartEra@CvBuildingEntry@@QBEHXZ PROC		; CvBuildingEntry::GetFreeStartEra, COMDAT
; _this$ = ecx

; 894  : 	return m_iFreeStartEra;

	mov	eax, DWORD PTR [ecx+280]

; 895  : }

	ret	0
?GetFreeStartEra@CvBuildingEntry@@QBEHXZ ENDP		; CvBuildingEntry::GetFreeStartEra
_TEXT	ENDS
PUBLIC	?GetMaxStartEra@CvBuildingEntry@@QBEHXZ		; CvBuildingEntry::GetMaxStartEra
; Function compile flags: /Ogtpy
;	COMDAT ?GetMaxStartEra@CvBuildingEntry@@QBEHXZ
_TEXT	SEGMENT
?GetMaxStartEra@CvBuildingEntry@@QBEHXZ PROC		; CvBuildingEntry::GetMaxStartEra, COMDAT
; _this$ = ecx

; 900  : 	return m_iMaxStartEra;

	mov	eax, DWORD PTR [ecx+284]

; 901  : }

	ret	0
?GetMaxStartEra@CvBuildingEntry@@QBEHXZ ENDP		; CvBuildingEntry::GetMaxStartEra
_TEXT	ENDS
PUBLIC	?GetObsoleteTech@CvBuildingEntry@@QBEHXZ	; CvBuildingEntry::GetObsoleteTech
; Function compile flags: /Ogtpy
;	COMDAT ?GetObsoleteTech@CvBuildingEntry@@QBEHXZ
_TEXT	SEGMENT
?GetObsoleteTech@CvBuildingEntry@@QBEHXZ PROC		; CvBuildingEntry::GetObsoleteTech, COMDAT
; _this$ = ecx

; 906  : 	return m_iObsoleteTech;

	mov	eax, DWORD PTR [ecx+288]

; 907  : }

	ret	0
?GetObsoleteTech@CvBuildingEntry@@QBEHXZ ENDP		; CvBuildingEntry::GetObsoleteTech
_TEXT	ENDS
PUBLIC	?GetEnhancedYieldTech@CvBuildingEntry@@QBEHXZ	; CvBuildingEntry::GetEnhancedYieldTech
; Function compile flags: /Ogtpy
;	COMDAT ?GetEnhancedYieldTech@CvBuildingEntry@@QBEHXZ
_TEXT	SEGMENT
?GetEnhancedYieldTech@CvBuildingEntry@@QBEHXZ PROC	; CvBuildingEntry::GetEnhancedYieldTech, COMDAT
; _this$ = ecx

; 912  : 	return m_iEnhancedYieldTech;

	mov	eax, DWORD PTR [ecx+292]

; 913  : }

	ret	0
?GetEnhancedYieldTech@CvBuildingEntry@@QBEHXZ ENDP	; CvBuildingEntry::GetEnhancedYieldTech
_TEXT	ENDS
PUBLIC	?GetTechEnhancedTourism@CvBuildingEntry@@QBEHXZ	; CvBuildingEntry::GetTechEnhancedTourism
; Function compile flags: /Ogtpy
;	COMDAT ?GetTechEnhancedTourism@CvBuildingEntry@@QBEHXZ
_TEXT	SEGMENT
?GetTechEnhancedTourism@CvBuildingEntry@@QBEHXZ PROC	; CvBuildingEntry::GetTechEnhancedTourism, COMDAT
; _this$ = ecx

; 918  : 	return m_iTechEnhancedTourism;

	mov	eax, DWORD PTR [ecx+296]

; 919  : }

	ret	0
?GetTechEnhancedTourism@CvBuildingEntry@@QBEHXZ ENDP	; CvBuildingEntry::GetTechEnhancedTourism
_TEXT	ENDS
PUBLIC	?GetGoldMaintenance@CvBuildingEntry@@QBEHXZ	; CvBuildingEntry::GetGoldMaintenance
; Function compile flags: /Ogtpy
;	COMDAT ?GetGoldMaintenance@CvBuildingEntry@@QBEHXZ
_TEXT	SEGMENT
?GetGoldMaintenance@CvBuildingEntry@@QBEHXZ PROC	; CvBuildingEntry::GetGoldMaintenance, COMDAT
; _this$ = ecx

; 924  : 	return m_iGoldMaintenance;

	mov	eax, DWORD PTR [ecx+300]

; 925  : }

	ret	0
?GetGoldMaintenance@CvBuildingEntry@@QBEHXZ ENDP	; CvBuildingEntry::GetGoldMaintenance
_TEXT	ENDS
PUBLIC	?GetMutuallyExclusiveGroup@CvBuildingEntry@@QBEHXZ ; CvBuildingEntry::GetMutuallyExclusiveGroup
; Function compile flags: /Ogtpy
;	COMDAT ?GetMutuallyExclusiveGroup@CvBuildingEntry@@QBEHXZ
_TEXT	SEGMENT
?GetMutuallyExclusiveGroup@CvBuildingEntry@@QBEHXZ PROC	; CvBuildingEntry::GetMutuallyExclusiveGroup, COMDAT
; _this$ = ecx

; 930  : 	return m_iMutuallyExclusiveGroup;

	mov	eax, DWORD PTR [ecx+304]

; 931  : }

	ret	0
?GetMutuallyExclusiveGroup@CvBuildingEntry@@QBEHXZ ENDP	; CvBuildingEntry::GetMutuallyExclusiveGroup
_TEXT	ENDS
PUBLIC	?GetReplacementBuildingClass@CvBuildingEntry@@QBEHXZ ; CvBuildingEntry::GetReplacementBuildingClass
; Function compile flags: /Ogtpy
;	COMDAT ?GetReplacementBuildingClass@CvBuildingEntry@@QBEHXZ
_TEXT	SEGMENT
?GetReplacementBuildingClass@CvBuildingEntry@@QBEHXZ PROC ; CvBuildingEntry::GetReplacementBuildingClass, COMDAT
; _this$ = ecx

; 936  : 	return m_iReplacementBuildingClass;

	mov	eax, DWORD PTR [ecx+308]

; 937  : }

	ret	0
?GetReplacementBuildingClass@CvBuildingEntry@@QBEHXZ ENDP ; CvBuildingEntry::GetReplacementBuildingClass
_TEXT	ENDS
PUBLIC	?GetPrereqAndTech@CvBuildingEntry@@QBEHXZ	; CvBuildingEntry::GetPrereqAndTech
; Function compile flags: /Ogtpy
;	COMDAT ?GetPrereqAndTech@CvBuildingEntry@@QBEHXZ
_TEXT	SEGMENT
?GetPrereqAndTech@CvBuildingEntry@@QBEHXZ PROC		; CvBuildingEntry::GetPrereqAndTech, COMDAT
; _this$ = ecx

; 956  : 	return m_iPrereqAndTech;

	mov	eax, DWORD PTR [ecx+312]

; 957  : }

	ret	0
?GetPrereqAndTech@CvBuildingEntry@@QBEHXZ ENDP		; CvBuildingEntry::GetPrereqAndTech
_TEXT	ENDS
PUBLIC	?GetPolicyBranchType@CvBuildingEntry@@QBEHXZ	; CvBuildingEntry::GetPolicyBranchType
; Function compile flags: /Ogtpy
;	COMDAT ?GetPolicyBranchType@CvBuildingEntry@@QBEHXZ
_TEXT	SEGMENT
?GetPolicyBranchType@CvBuildingEntry@@QBEHXZ PROC	; CvBuildingEntry::GetPolicyBranchType, COMDAT
; _this$ = ecx

; 962  : 	return m_iPolicyBranchType;

	mov	eax, DWORD PTR [ecx+316]

; 963  : }

	ret	0
?GetPolicyBranchType@CvBuildingEntry@@QBEHXZ ENDP	; CvBuildingEntry::GetPolicyBranchType
_TEXT	ENDS
PUBLIC	?GetSpecialistType@CvBuildingEntry@@QBEHXZ	; CvBuildingEntry::GetSpecialistType
; Function compile flags: /Ogtpy
;	COMDAT ?GetSpecialistType@CvBuildingEntry@@QBEHXZ
_TEXT	SEGMENT
?GetSpecialistType@CvBuildingEntry@@QBEHXZ PROC		; CvBuildingEntry::GetSpecialistType, COMDAT
; _this$ = ecx

; 968  : 	return m_iSpecialistType;

	mov	eax, DWORD PTR [ecx+320]

; 969  : }

	ret	0
?GetSpecialistType@CvBuildingEntry@@QBEHXZ ENDP		; CvBuildingEntry::GetSpecialistType
_TEXT	ENDS
PUBLIC	?GetSpecialistCount@CvBuildingEntry@@QBEHXZ	; CvBuildingEntry::GetSpecialistCount
; Function compile flags: /Ogtpy
;	COMDAT ?GetSpecialistCount@CvBuildingEntry@@QBEHXZ
_TEXT	SEGMENT
?GetSpecialistCount@CvBuildingEntry@@QBEHXZ PROC	; CvBuildingEntry::GetSpecialistCount, COMDAT
; _this$ = ecx

; 974  : 	return m_iSpecialistCount;

	mov	eax, DWORD PTR [ecx+324]

; 975  : }

	ret	0
?GetSpecialistCount@CvBuildingEntry@@QBEHXZ ENDP	; CvBuildingEntry::GetSpecialistCount
_TEXT	ENDS
PUBLIC	?GetSpecialistExtraCulture@CvBuildingEntry@@QBEHXZ ; CvBuildingEntry::GetSpecialistExtraCulture
; Function compile flags: /Ogtpy
;	COMDAT ?GetSpecialistExtraCulture@CvBuildingEntry@@QBEHXZ
_TEXT	SEGMENT
?GetSpecialistExtraCulture@CvBuildingEntry@@QBEHXZ PROC	; CvBuildingEntry::GetSpecialistExtraCulture, COMDAT
; _this$ = ecx

; 980  : 	return m_iSpecialistExtraCulture;

	mov	eax, DWORD PTR [ecx+328]

; 981  : }

	ret	0
?GetSpecialistExtraCulture@CvBuildingEntry@@QBEHXZ ENDP	; CvBuildingEntry::GetSpecialistExtraCulture
_TEXT	ENDS
PUBLIC	?GetGreatPeopleRateChange@CvBuildingEntry@@QBEHXZ ; CvBuildingEntry::GetGreatPeopleRateChange
; Function compile flags: /Ogtpy
;	COMDAT ?GetGreatPeopleRateChange@CvBuildingEntry@@QBEHXZ
_TEXT	SEGMENT
?GetGreatPeopleRateChange@CvBuildingEntry@@QBEHXZ PROC	; CvBuildingEntry::GetGreatPeopleRateChange, COMDAT
; _this$ = ecx

; 986  : 	return m_iGreatPeopleRateChange;

	mov	eax, DWORD PTR [ecx+332]

; 987  : }

	ret	0
?GetGreatPeopleRateChange@CvBuildingEntry@@QBEHXZ ENDP	; CvBuildingEntry::GetGreatPeopleRateChange
_TEXT	ENDS
PUBLIC	?GetGreatWorkSlotType@CvBuildingEntry@@QBE?AW4GreatWorkSlotType@@XZ ; CvBuildingEntry::GetGreatWorkSlotType
; Function compile flags: /Ogtpy
;	COMDAT ?GetGreatWorkSlotType@CvBuildingEntry@@QBE?AW4GreatWorkSlotType@@XZ
_TEXT	SEGMENT
?GetGreatWorkSlotType@CvBuildingEntry@@QBE?AW4GreatWorkSlotType@@XZ PROC ; CvBuildingEntry::GetGreatWorkSlotType, COMDAT
; _this$ = ecx

; 992  : 	return m_eGreatWorkSlotType;

	mov	eax, DWORD PTR [ecx+336]

; 993  : }

	ret	0
?GetGreatWorkSlotType@CvBuildingEntry@@QBE?AW4GreatWorkSlotType@@XZ ENDP ; CvBuildingEntry::GetGreatWorkSlotType
_TEXT	ENDS
PUBLIC	?GetGreatWorkCount@CvBuildingEntry@@QBEHXZ	; CvBuildingEntry::GetGreatWorkCount
; Function compile flags: /Ogtpy
;	COMDAT ?GetGreatWorkCount@CvBuildingEntry@@QBEHXZ
_TEXT	SEGMENT
?GetGreatWorkCount@CvBuildingEntry@@QBEHXZ PROC		; CvBuildingEntry::GetGreatWorkCount, COMDAT
; _this$ = ecx

; 1002 : 	return m_iGreatWorkCount;

	mov	eax, DWORD PTR [ecx+340]

; 1003 : }

	ret	0
?GetGreatWorkCount@CvBuildingEntry@@QBEHXZ ENDP		; CvBuildingEntry::GetGreatWorkCount
_TEXT	ENDS
PUBLIC	?GetFreeGreatWork@CvBuildingEntry@@QBE?AW4GreatWorkType@@XZ ; CvBuildingEntry::GetFreeGreatWork
; Function compile flags: /Ogtpy
;	COMDAT ?GetFreeGreatWork@CvBuildingEntry@@QBE?AW4GreatWorkType@@XZ
_TEXT	SEGMENT
?GetFreeGreatWork@CvBuildingEntry@@QBE?AW4GreatWorkType@@XZ PROC ; CvBuildingEntry::GetFreeGreatWork, COMDAT
; _this$ = ecx

; 1008 : 	return m_eFreeGreatWork;

	mov	eax, DWORD PTR [ecx+344]

; 1009 : }

	ret	0
?GetFreeGreatWork@CvBuildingEntry@@QBE?AW4GreatWorkType@@XZ ENDP ; CvBuildingEntry::GetFreeGreatWork
_TEXT	ENDS
PUBLIC	?GetFreeBuildingClass@CvBuildingEntry@@QBEHXZ	; CvBuildingEntry::GetFreeBuildingClass
; Function compile flags: /Ogtpy
;	COMDAT ?GetFreeBuildingClass@CvBuildingEntry@@QBEHXZ
_TEXT	SEGMENT
?GetFreeBuildingClass@CvBuildingEntry@@QBEHXZ PROC	; CvBuildingEntry::GetFreeBuildingClass, COMDAT
; _this$ = ecx

; 1014 : 	return m_iFreeBuildingClass;

	mov	eax, DWORD PTR [ecx+348]

; 1015 : }

	ret	0
?GetFreeBuildingClass@CvBuildingEntry@@QBEHXZ ENDP	; CvBuildingEntry::GetFreeBuildingClass
_TEXT	ENDS
PUBLIC	?GetFreeBuildingThisCity@CvBuildingEntry@@QBEHXZ ; CvBuildingEntry::GetFreeBuildingThisCity
; Function compile flags: /Ogtpy
;	COMDAT ?GetFreeBuildingThisCity@CvBuildingEntry@@QBEHXZ
_TEXT	SEGMENT
?GetFreeBuildingThisCity@CvBuildingEntry@@QBEHXZ PROC	; CvBuildingEntry::GetFreeBuildingThisCity, COMDAT
; _this$ = ecx

; 1020 : 	return m_iFreeBuildingThisCity;

	mov	eax, DWORD PTR [ecx+352]

; 1021 : }

	ret	0
?GetFreeBuildingThisCity@CvBuildingEntry@@QBEHXZ ENDP	; CvBuildingEntry::GetFreeBuildingThisCity
_TEXT	ENDS
PUBLIC	?GetFreePromotion@CvBuildingEntry@@QBEHXZ	; CvBuildingEntry::GetFreePromotion
; Function compile flags: /Ogtpy
;	COMDAT ?GetFreePromotion@CvBuildingEntry@@QBEHXZ
_TEXT	SEGMENT
?GetFreePromotion@CvBuildingEntry@@QBEHXZ PROC		; CvBuildingEntry::GetFreePromotion, COMDAT
; _this$ = ecx

; 1026 : 	return m_iFreePromotion;

	mov	eax, DWORD PTR [ecx+356]

; 1027 : }

	ret	0
?GetFreePromotion@CvBuildingEntry@@QBEHXZ ENDP		; CvBuildingEntry::GetFreePromotion
_TEXT	ENDS
PUBLIC	?GetTrainedFreePromotion@CvBuildingEntry@@QBEHXZ ; CvBuildingEntry::GetTrainedFreePromotion
; Function compile flags: /Ogtpy
;	COMDAT ?GetTrainedFreePromotion@CvBuildingEntry@@QBEHXZ
_TEXT	SEGMENT
?GetTrainedFreePromotion@CvBuildingEntry@@QBEHXZ PROC	; CvBuildingEntry::GetTrainedFreePromotion, COMDAT
; _this$ = ecx

; 1032 : 	return m_iTrainedFreePromotion;

	mov	eax, DWORD PTR [ecx+360]

; 1033 : }

	ret	0
?GetTrainedFreePromotion@CvBuildingEntry@@QBEHXZ ENDP	; CvBuildingEntry::GetTrainedFreePromotion
_TEXT	ENDS
PUBLIC	?GetFreePromotionRemoved@CvBuildingEntry@@QBEHXZ ; CvBuildingEntry::GetFreePromotionRemoved
; Function compile flags: /Ogtpy
;	COMDAT ?GetFreePromotionRemoved@CvBuildingEntry@@QBEHXZ
_TEXT	SEGMENT
?GetFreePromotionRemoved@CvBuildingEntry@@QBEHXZ PROC	; CvBuildingEntry::GetFreePromotionRemoved, COMDAT
; _this$ = ecx

; 1038 : 	return m_iFreePromotionRemoved;

	mov	eax, DWORD PTR [ecx+364]

; 1039 : }

	ret	0
?GetFreePromotionRemoved@CvBuildingEntry@@QBEHXZ ENDP	; CvBuildingEntry::GetFreePromotionRemoved
_TEXT	ENDS
PUBLIC	?GetProductionCost@CvBuildingEntry@@QBEHXZ	; CvBuildingEntry::GetProductionCost
; Function compile flags: /Ogtpy
;	COMDAT ?GetProductionCost@CvBuildingEntry@@QBEHXZ
_TEXT	SEGMENT
?GetProductionCost@CvBuildingEntry@@QBEHXZ PROC		; CvBuildingEntry::GetProductionCost, COMDAT
; _this$ = ecx

; 1044 : 	return m_iProductionCost;

	mov	eax, DWORD PTR [ecx+368]

; 1045 : }

	ret	0
?GetProductionCost@CvBuildingEntry@@QBEHXZ ENDP		; CvBuildingEntry::GetProductionCost
_TEXT	ENDS
PUBLIC	?GetFaithCost@CvBuildingEntry@@QBEHXZ		; CvBuildingEntry::GetFaithCost
; Function compile flags: /Ogtpy
;	COMDAT ?GetFaithCost@CvBuildingEntry@@QBEHXZ
_TEXT	SEGMENT
?GetFaithCost@CvBuildingEntry@@QBEHXZ PROC		; CvBuildingEntry::GetFaithCost, COMDAT
; _this$ = ecx

; 1050 : 	return m_iFaithCost;

	mov	eax, DWORD PTR [ecx+372]

; 1051 : }

	ret	0
?GetFaithCost@CvBuildingEntry@@QBEHXZ ENDP		; CvBuildingEntry::GetFaithCost
_TEXT	ENDS
PUBLIC	?GetLeagueCost@CvBuildingEntry@@QBEHXZ		; CvBuildingEntry::GetLeagueCost
; Function compile flags: /Ogtpy
;	COMDAT ?GetLeagueCost@CvBuildingEntry@@QBEHXZ
_TEXT	SEGMENT
?GetLeagueCost@CvBuildingEntry@@QBEHXZ PROC		; CvBuildingEntry::GetLeagueCost, COMDAT
; _this$ = ecx

; 1056 : 	return m_iLeagueCost;

	mov	eax, DWORD PTR [ecx+376]

; 1057 : }

	ret	0
?GetLeagueCost@CvBuildingEntry@@QBEHXZ ENDP		; CvBuildingEntry::GetLeagueCost
_TEXT	ENDS
PUBLIC	?GetNumCityCostMod@CvBuildingEntry@@QBEHXZ	; CvBuildingEntry::GetNumCityCostMod
; Function compile flags: /Ogtpy
;	COMDAT ?GetNumCityCostMod@CvBuildingEntry@@QBEHXZ
_TEXT	SEGMENT
?GetNumCityCostMod@CvBuildingEntry@@QBEHXZ PROC		; CvBuildingEntry::GetNumCityCostMod, COMDAT
; _this$ = ecx

; 1062 : 	return m_iNumCityCostMod;

	mov	eax, DWORD PTR [ecx+380]

; 1063 : }

	ret	0
?GetNumCityCostMod@CvBuildingEntry@@QBEHXZ ENDP		; CvBuildingEntry::GetNumCityCostMod
_TEXT	ENDS
PUBLIC	?GetHurryCostModifier@CvBuildingEntry@@QBEHXZ	; CvBuildingEntry::GetHurryCostModifier
; Function compile flags: /Ogtpy
;	COMDAT ?GetHurryCostModifier@CvBuildingEntry@@QBEHXZ
_TEXT	SEGMENT
?GetHurryCostModifier@CvBuildingEntry@@QBEHXZ PROC	; CvBuildingEntry::GetHurryCostModifier, COMDAT
; _this$ = ecx

; 1068 : 	return m_iHurryCostModifier;

	mov	eax, DWORD PTR [ecx+384]

; 1069 : }

	ret	0
?GetHurryCostModifier@CvBuildingEntry@@QBEHXZ ENDP	; CvBuildingEntry::GetHurryCostModifier
_TEXT	ENDS
PUBLIC	?GetNumCitiesPrereq@CvBuildingEntry@@QBEHXZ	; CvBuildingEntry::GetNumCitiesPrereq
; Function compile flags: /Ogtpy
;	COMDAT ?GetNumCitiesPrereq@CvBuildingEntry@@QBEHXZ
_TEXT	SEGMENT
?GetNumCitiesPrereq@CvBuildingEntry@@QBEHXZ PROC	; CvBuildingEntry::GetNumCitiesPrereq, COMDAT
; _this$ = ecx

; 1074 : 	return m_iNumCitiesPrereq;

	mov	eax, DWORD PTR [ecx+388]

; 1075 : }

	ret	0
?GetNumCitiesPrereq@CvBuildingEntry@@QBEHXZ ENDP	; CvBuildingEntry::GetNumCitiesPrereq
_TEXT	ENDS
PUBLIC	?GetUnitLevelPrereq@CvBuildingEntry@@QBEHXZ	; CvBuildingEntry::GetUnitLevelPrereq
; Function compile flags: /Ogtpy
;	COMDAT ?GetUnitLevelPrereq@CvBuildingEntry@@QBEHXZ
_TEXT	SEGMENT
?GetUnitLevelPrereq@CvBuildingEntry@@QBEHXZ PROC	; CvBuildingEntry::GetUnitLevelPrereq, COMDAT
; _this$ = ecx

; 1080 : 	return m_iUnitLevelPrereq;

	mov	eax, DWORD PTR [ecx+392]

; 1081 : }

	ret	0
?GetUnitLevelPrereq@CvBuildingEntry@@QBEHXZ ENDP	; CvBuildingEntry::GetUnitLevelPrereq
_TEXT	ENDS
PUBLIC	?GetCultureRateModifier@CvBuildingEntry@@QBEHXZ	; CvBuildingEntry::GetCultureRateModifier
; Function compile flags: /Ogtpy
;	COMDAT ?GetCultureRateModifier@CvBuildingEntry@@QBEHXZ
_TEXT	SEGMENT
?GetCultureRateModifier@CvBuildingEntry@@QBEHXZ PROC	; CvBuildingEntry::GetCultureRateModifier, COMDAT
; _this$ = ecx

; 1086 : 	return m_iCultureRateModifier;

	mov	eax, DWORD PTR [ecx+396]

; 1087 : }

	ret	0
?GetCultureRateModifier@CvBuildingEntry@@QBEHXZ ENDP	; CvBuildingEntry::GetCultureRateModifier
_TEXT	ENDS
PUBLIC	?GetGlobalCultureRateModifier@CvBuildingEntry@@QBEHXZ ; CvBuildingEntry::GetGlobalCultureRateModifier
; Function compile flags: /Ogtpy
;	COMDAT ?GetGlobalCultureRateModifier@CvBuildingEntry@@QBEHXZ
_TEXT	SEGMENT
?GetGlobalCultureRateModifier@CvBuildingEntry@@QBEHXZ PROC ; CvBuildingEntry::GetGlobalCultureRateModifier, COMDAT
; _this$ = ecx

; 1092 : 	return m_iGlobalCultureRateModifier;

	mov	eax, DWORD PTR [ecx+400]

; 1093 : }

	ret	0
?GetGlobalCultureRateModifier@CvBuildingEntry@@QBEHXZ ENDP ; CvBuildingEntry::GetGlobalCultureRateModifier
_TEXT	ENDS
PUBLIC	?GetGreatPeopleRateModifier@CvBuildingEntry@@QBEHXZ ; CvBuildingEntry::GetGreatPeopleRateModifier
; Function compile flags: /Ogtpy
;	COMDAT ?GetGreatPeopleRateModifier@CvBuildingEntry@@QBEHXZ
_TEXT	SEGMENT
?GetGreatPeopleRateModifier@CvBuildingEntry@@QBEHXZ PROC ; CvBuildingEntry::GetGreatPeopleRateModifier, COMDAT
; _this$ = ecx

; 1098 : 	return m_iGreatPeopleRateModifier;

	mov	eax, DWORD PTR [ecx+404]

; 1099 : }

	ret	0
?GetGreatPeopleRateModifier@CvBuildingEntry@@QBEHXZ ENDP ; CvBuildingEntry::GetGreatPeopleRateModifier
_TEXT	ENDS
PUBLIC	?GetGlobalGreatPeopleRateModifier@CvBuildingEntry@@QBEHXZ ; CvBuildingEntry::GetGlobalGreatPeopleRateModifier
; Function compile flags: /Ogtpy
;	COMDAT ?GetGlobalGreatPeopleRateModifier@CvBuildingEntry@@QBEHXZ
_TEXT	SEGMENT
?GetGlobalGreatPeopleRateModifier@CvBuildingEntry@@QBEHXZ PROC ; CvBuildingEntry::GetGlobalGreatPeopleRateModifier, COMDAT
; _this$ = ecx

; 1104 : 	return m_iGlobalGreatPeopleRateModifier;

	mov	eax, DWORD PTR [ecx+408]

; 1105 : }

	ret	0
?GetGlobalGreatPeopleRateModifier@CvBuildingEntry@@QBEHXZ ENDP ; CvBuildingEntry::GetGlobalGreatPeopleRateModifier
_TEXT	ENDS
PUBLIC	?GetGreatGeneralRateModifier@CvBuildingEntry@@QBEHXZ ; CvBuildingEntry::GetGreatGeneralRateModifier
; Function compile flags: /Ogtpy
;	COMDAT ?GetGreatGeneralRateModifier@CvBuildingEntry@@QBEHXZ
_TEXT	SEGMENT
?GetGreatGeneralRateModifier@CvBuildingEntry@@QBEHXZ PROC ; CvBuildingEntry::GetGreatGeneralRateModifier, COMDAT
; _this$ = ecx

; 1110 : 	return m_iGreatGeneralRateModifier;

	mov	eax, DWORD PTR [ecx+412]

; 1111 : }

	ret	0
?GetGreatGeneralRateModifier@CvBuildingEntry@@QBEHXZ ENDP ; CvBuildingEntry::GetGreatGeneralRateModifier
_TEXT	ENDS
PUBLIC	?GetGreatPersonExpendGold@CvBuildingEntry@@QBEHXZ ; CvBuildingEntry::GetGreatPersonExpendGold
; Function compile flags: /Ogtpy
;	COMDAT ?GetGreatPersonExpendGold@CvBuildingEntry@@QBEHXZ
_TEXT	SEGMENT
?GetGreatPersonExpendGold@CvBuildingEntry@@QBEHXZ PROC	; CvBuildingEntry::GetGreatPersonExpendGold, COMDAT
; _this$ = ecx

; 1116 : 	return m_iGreatPersonExpendGold;

	mov	eax, DWORD PTR [ecx+416]

; 1117 : }

	ret	0
?GetGreatPersonExpendGold@CvBuildingEntry@@QBEHXZ ENDP	; CvBuildingEntry::GetGreatPersonExpendGold
_TEXT	ENDS
PUBLIC	?GetUnitUpgradeCostMod@CvBuildingEntry@@QBEHXZ	; CvBuildingEntry::GetUnitUpgradeCostMod
; Function compile flags: /Ogtpy
;	COMDAT ?GetUnitUpgradeCostMod@CvBuildingEntry@@QBEHXZ
_TEXT	SEGMENT
?GetUnitUpgradeCostMod@CvBuildingEntry@@QBEHXZ PROC	; CvBuildingEntry::GetUnitUpgradeCostMod, COMDAT
; _this$ = ecx

; 1122 : 	return m_iUnitUpgradeCostMod;

	mov	eax, DWORD PTR [ecx+420]

; 1123 : }

	ret	0
?GetUnitUpgradeCostMod@CvBuildingEntry@@QBEHXZ ENDP	; CvBuildingEntry::GetUnitUpgradeCostMod
_TEXT	ENDS
PUBLIC	?GetGoldenAgeModifier@CvBuildingEntry@@QBEHXZ	; CvBuildingEntry::GetGoldenAgeModifier
; Function compile flags: /Ogtpy
;	COMDAT ?GetGoldenAgeModifier@CvBuildingEntry@@QBEHXZ
_TEXT	SEGMENT
?GetGoldenAgeModifier@CvBuildingEntry@@QBEHXZ PROC	; CvBuildingEntry::GetGoldenAgeModifier, COMDAT
; _this$ = ecx

; 1128 : 	return m_iGoldenAgeModifier;

	mov	eax, DWORD PTR [ecx+424]

; 1129 : }

	ret	0
?GetGoldenAgeModifier@CvBuildingEntry@@QBEHXZ ENDP	; CvBuildingEntry::GetGoldenAgeModifier
_TEXT	ENDS
PUBLIC	?GetFreeExperience@CvBuildingEntry@@QBEHXZ	; CvBuildingEntry::GetFreeExperience
; Function compile flags: /Ogtpy
;	COMDAT ?GetFreeExperience@CvBuildingEntry@@QBEHXZ
_TEXT	SEGMENT
?GetFreeExperience@CvBuildingEntry@@QBEHXZ PROC		; CvBuildingEntry::GetFreeExperience, COMDAT
; _this$ = ecx

; 1134 : 	return m_iFreeExperience;

	mov	eax, DWORD PTR [ecx+428]

; 1135 : }

	ret	0
?GetFreeExperience@CvBuildingEntry@@QBEHXZ ENDP		; CvBuildingEntry::GetFreeExperience
_TEXT	ENDS
PUBLIC	?GetGlobalFreeExperience@CvBuildingEntry@@QBEHXZ ; CvBuildingEntry::GetGlobalFreeExperience
; Function compile flags: /Ogtpy
;	COMDAT ?GetGlobalFreeExperience@CvBuildingEntry@@QBEHXZ
_TEXT	SEGMENT
?GetGlobalFreeExperience@CvBuildingEntry@@QBEHXZ PROC	; CvBuildingEntry::GetGlobalFreeExperience, COMDAT
; _this$ = ecx

; 1140 : 	return m_iGlobalFreeExperience;

	mov	eax, DWORD PTR [ecx+432]

; 1141 : }

	ret	0
?GetGlobalFreeExperience@CvBuildingEntry@@QBEHXZ ENDP	; CvBuildingEntry::GetGlobalFreeExperience
_TEXT	ENDS
PUBLIC	?GetFoodKept@CvBuildingEntry@@QBEHXZ		; CvBuildingEntry::GetFoodKept
; Function compile flags: /Ogtpy
;	COMDAT ?GetFoodKept@CvBuildingEntry@@QBEHXZ
_TEXT	SEGMENT
?GetFoodKept@CvBuildingEntry@@QBEHXZ PROC		; CvBuildingEntry::GetFoodKept, COMDAT
; _this$ = ecx

; 1146 : 	return m_iFoodKept;

	mov	eax, DWORD PTR [ecx+436]

; 1147 : }

	ret	0
?GetFoodKept@CvBuildingEntry@@QBEHXZ ENDP		; CvBuildingEntry::GetFoodKept
_TEXT	ENDS
PUBLIC	?IsAirlift@CvBuildingEntry@@QBE_NXZ		; CvBuildingEntry::IsAirlift
; Function compile flags: /Ogtpy
;	COMDAT ?IsAirlift@CvBuildingEntry@@QBE_NXZ
_TEXT	SEGMENT
?IsAirlift@CvBuildingEntry@@QBE_NXZ PROC		; CvBuildingEntry::IsAirlift, COMDAT
; _this$ = ecx

; 1152 : 	return m_bAirlift;

	mov	al, BYTE PTR [ecx+440]

; 1153 : }

	ret	0
?IsAirlift@CvBuildingEntry@@QBE_NXZ ENDP		; CvBuildingEntry::IsAirlift
_TEXT	ENDS
PUBLIC	?GetAirModifier@CvBuildingEntry@@QBEHXZ		; CvBuildingEntry::GetAirModifier
; Function compile flags: /Ogtpy
;	COMDAT ?GetAirModifier@CvBuildingEntry@@QBEHXZ
_TEXT	SEGMENT
?GetAirModifier@CvBuildingEntry@@QBEHXZ PROC		; CvBuildingEntry::GetAirModifier, COMDAT
; _this$ = ecx

; 1158 : 	return m_iAirModifier;

	mov	eax, DWORD PTR [ecx+444]

; 1159 : }

	ret	0
?GetAirModifier@CvBuildingEntry@@QBEHXZ ENDP		; CvBuildingEntry::GetAirModifier
_TEXT	ENDS
PUBLIC	?GetNukeModifier@CvBuildingEntry@@QBEHXZ	; CvBuildingEntry::GetNukeModifier
; Function compile flags: /Ogtpy
;	COMDAT ?GetNukeModifier@CvBuildingEntry@@QBEHXZ
_TEXT	SEGMENT
?GetNukeModifier@CvBuildingEntry@@QBEHXZ PROC		; CvBuildingEntry::GetNukeModifier, COMDAT
; _this$ = ecx

; 1164 : 	return m_iNukeModifier;

	mov	eax, DWORD PTR [ecx+448]

; 1165 : }

	ret	0
?GetNukeModifier@CvBuildingEntry@@QBEHXZ ENDP		; CvBuildingEntry::GetNukeModifier
_TEXT	ENDS
PUBLIC	?GetNukeExplosionRand@CvBuildingEntry@@QBEHXZ	; CvBuildingEntry::GetNukeExplosionRand
; Function compile flags: /Ogtpy
;	COMDAT ?GetNukeExplosionRand@CvBuildingEntry@@QBEHXZ
_TEXT	SEGMENT
?GetNukeExplosionRand@CvBuildingEntry@@QBEHXZ PROC	; CvBuildingEntry::GetNukeExplosionRand, COMDAT
; _this$ = ecx

; 1170 : 	return m_iNukeExplosionRand;

	mov	eax, DWORD PTR [ecx+452]

; 1171 : }

	ret	0
?GetNukeExplosionRand@CvBuildingEntry@@QBEHXZ ENDP	; CvBuildingEntry::GetNukeExplosionRand
_TEXT	ENDS
PUBLIC	?GetWorkerSpeedModifier@CvBuildingEntry@@QBEHXZ	; CvBuildingEntry::GetWorkerSpeedModifier
; Function compile flags: /Ogtpy
;	COMDAT ?GetWorkerSpeedModifier@CvBuildingEntry@@QBEHXZ
_TEXT	SEGMENT
?GetWorkerSpeedModifier@CvBuildingEntry@@QBEHXZ PROC	; CvBuildingEntry::GetWorkerSpeedModifier, COMDAT
; _this$ = ecx

; 1176 : 	return m_iWorkerSpeedModifier;

	mov	eax, DWORD PTR [ecx+456]

; 1177 : }

	ret	0
?GetWorkerSpeedModifier@CvBuildingEntry@@QBEHXZ ENDP	; CvBuildingEntry::GetWorkerSpeedModifier
_TEXT	ENDS
PUBLIC	?GetMilitaryProductionModifier@CvBuildingEntry@@QBEHXZ ; CvBuildingEntry::GetMilitaryProductionModifier
; Function compile flags: /Ogtpy
;	COMDAT ?GetMilitaryProductionModifier@CvBuildingEntry@@QBEHXZ
_TEXT	SEGMENT
?GetMilitaryProductionModifier@CvBuildingEntry@@QBEHXZ PROC ; CvBuildingEntry::GetMilitaryProductionModifier, COMDAT
; _this$ = ecx

; 1182 : 	return m_iMilitaryProductionModifier;

	mov	eax, DWORD PTR [ecx+460]

; 1183 : }

	ret	0
?GetMilitaryProductionModifier@CvBuildingEntry@@QBEHXZ ENDP ; CvBuildingEntry::GetMilitaryProductionModifier
_TEXT	ENDS
PUBLIC	?GetSpaceProductionModifier@CvBuildingEntry@@QBEHXZ ; CvBuildingEntry::GetSpaceProductionModifier
; Function compile flags: /Ogtpy
;	COMDAT ?GetSpaceProductionModifier@CvBuildingEntry@@QBEHXZ
_TEXT	SEGMENT
?GetSpaceProductionModifier@CvBuildingEntry@@QBEHXZ PROC ; CvBuildingEntry::GetSpaceProductionModifier, COMDAT
; _this$ = ecx

; 1188 : 	return m_iSpaceProductionModifier;

	mov	eax, DWORD PTR [ecx+464]

; 1189 : }

	ret	0
?GetSpaceProductionModifier@CvBuildingEntry@@QBEHXZ ENDP ; CvBuildingEntry::GetSpaceProductionModifier
_TEXT	ENDS
PUBLIC	?GetGlobalSpaceProductionModifier@CvBuildingEntry@@QBEHXZ ; CvBuildingEntry::GetGlobalSpaceProductionModifier
; Function compile flags: /Ogtpy
;	COMDAT ?GetGlobalSpaceProductionModifier@CvBuildingEntry@@QBEHXZ
_TEXT	SEGMENT
?GetGlobalSpaceProductionModifier@CvBuildingEntry@@QBEHXZ PROC ; CvBuildingEntry::GetGlobalSpaceProductionModifier, COMDAT
; _this$ = ecx

; 1194 : 	return m_iGlobalSpaceProductionModifier;

	mov	eax, DWORD PTR [ecx+468]

; 1195 : }

	ret	0
?GetGlobalSpaceProductionModifier@CvBuildingEntry@@QBEHXZ ENDP ; CvBuildingEntry::GetGlobalSpaceProductionModifier
_TEXT	ENDS
PUBLIC	?GetBuildingProductionModifier@CvBuildingEntry@@QBEHXZ ; CvBuildingEntry::GetBuildingProductionModifier
; Function compile flags: /Ogtpy
;	COMDAT ?GetBuildingProductionModifier@CvBuildingEntry@@QBEHXZ
_TEXT	SEGMENT
?GetBuildingProductionModifier@CvBuildingEntry@@QBEHXZ PROC ; CvBuildingEntry::GetBuildingProductionModifier, COMDAT
; _this$ = ecx

; 1200 : 	return m_iBuildingProductionModifier;

	mov	eax, DWORD PTR [ecx+472]

; 1201 : }

	ret	0
?GetBuildingProductionModifier@CvBuildingEntry@@QBEHXZ ENDP ; CvBuildingEntry::GetBuildingProductionModifier
_TEXT	ENDS
PUBLIC	?GetWonderProductionModifier@CvBuildingEntry@@QBEHXZ ; CvBuildingEntry::GetWonderProductionModifier
; Function compile flags: /Ogtpy
;	COMDAT ?GetWonderProductionModifier@CvBuildingEntry@@QBEHXZ
_TEXT	SEGMENT
?GetWonderProductionModifier@CvBuildingEntry@@QBEHXZ PROC ; CvBuildingEntry::GetWonderProductionModifier, COMDAT
; _this$ = ecx

; 1206 : 	return m_iWonderProductionModifier;

	mov	eax, DWORD PTR [ecx+476]

; 1207 : }

	ret	0
?GetWonderProductionModifier@CvBuildingEntry@@QBEHXZ ENDP ; CvBuildingEntry::GetWonderProductionModifier
_TEXT	ENDS
PUBLIC	?GetCityConnectionTradeRouteModifier@CvBuildingEntry@@QBEHXZ ; CvBuildingEntry::GetCityConnectionTradeRouteModifier
; Function compile flags: /Ogtpy
;	COMDAT ?GetCityConnectionTradeRouteModifier@CvBuildingEntry@@QBEHXZ
_TEXT	SEGMENT
?GetCityConnectionTradeRouteModifier@CvBuildingEntry@@QBEHXZ PROC ; CvBuildingEntry::GetCityConnectionTradeRouteModifier, COMDAT
; _this$ = ecx

; 1212 : 	return m_iCityConnectionTradeRouteModifier;

	mov	eax, DWORD PTR [ecx+480]

; 1213 : }

	ret	0
?GetCityConnectionTradeRouteModifier@CvBuildingEntry@@QBEHXZ ENDP ; CvBuildingEntry::GetCityConnectionTradeRouteModifier
_TEXT	ENDS
PUBLIC	?GetCapturePlunderModifier@CvBuildingEntry@@QBEHXZ ; CvBuildingEntry::GetCapturePlunderModifier
; Function compile flags: /Ogtpy
;	COMDAT ?GetCapturePlunderModifier@CvBuildingEntry@@QBEHXZ
_TEXT	SEGMENT
?GetCapturePlunderModifier@CvBuildingEntry@@QBEHXZ PROC	; CvBuildingEntry::GetCapturePlunderModifier, COMDAT
; _this$ = ecx

; 1218 : 	return m_iCapturePlunderModifier;

	mov	eax, DWORD PTR [ecx+484]

; 1219 : }

	ret	0
?GetCapturePlunderModifier@CvBuildingEntry@@QBEHXZ ENDP	; CvBuildingEntry::GetCapturePlunderModifier
_TEXT	ENDS
PUBLIC	?GetPolicyCostModifier@CvBuildingEntry@@QBEHXZ	; CvBuildingEntry::GetPolicyCostModifier
; Function compile flags: /Ogtpy
;	COMDAT ?GetPolicyCostModifier@CvBuildingEntry@@QBEHXZ
_TEXT	SEGMENT
?GetPolicyCostModifier@CvBuildingEntry@@QBEHXZ PROC	; CvBuildingEntry::GetPolicyCostModifier, COMDAT
; _this$ = ecx

; 1224 : 	return m_iPolicyCostModifier;

	mov	eax, DWORD PTR [ecx+488]

; 1225 : }

	ret	0
?GetPolicyCostModifier@CvBuildingEntry@@QBEHXZ ENDP	; CvBuildingEntry::GetPolicyCostModifier
_TEXT	ENDS
PUBLIC	?GetPlotCultureCostModifier@CvBuildingEntry@@QBEHXZ ; CvBuildingEntry::GetPlotCultureCostModifier
; Function compile flags: /Ogtpy
;	COMDAT ?GetPlotCultureCostModifier@CvBuildingEntry@@QBEHXZ
_TEXT	SEGMENT
?GetPlotCultureCostModifier@CvBuildingEntry@@QBEHXZ PROC ; CvBuildingEntry::GetPlotCultureCostModifier, COMDAT
; _this$ = ecx

; 1230 : 	return m_iPlotCultureCostModifier;

	mov	eax, DWORD PTR [ecx+496]

; 1231 : }

	ret	0
?GetPlotCultureCostModifier@CvBuildingEntry@@QBEHXZ ENDP ; CvBuildingEntry::GetPlotCultureCostModifier
_TEXT	ENDS
PUBLIC	?GetGlobalPlotCultureCostModifier@CvBuildingEntry@@QBEHXZ ; CvBuildingEntry::GetGlobalPlotCultureCostModifier
; Function compile flags: /Ogtpy
;	COMDAT ?GetGlobalPlotCultureCostModifier@CvBuildingEntry@@QBEHXZ
_TEXT	SEGMENT
?GetGlobalPlotCultureCostModifier@CvBuildingEntry@@QBEHXZ PROC ; CvBuildingEntry::GetGlobalPlotCultureCostModifier, COMDAT
; _this$ = ecx

; 1236 : 	return m_iGlobalPlotCultureCostModifier;

	mov	eax, DWORD PTR [ecx+492]

; 1237 : }

	ret	0
?GetGlobalPlotCultureCostModifier@CvBuildingEntry@@QBEHXZ ENDP ; CvBuildingEntry::GetGlobalPlotCultureCostModifier
_TEXT	ENDS
PUBLIC	?GetPlotBuyCostModifier@CvBuildingEntry@@QBEHXZ	; CvBuildingEntry::GetPlotBuyCostModifier
; Function compile flags: /Ogtpy
;	COMDAT ?GetPlotBuyCostModifier@CvBuildingEntry@@QBEHXZ
_TEXT	SEGMENT
?GetPlotBuyCostModifier@CvBuildingEntry@@QBEHXZ PROC	; CvBuildingEntry::GetPlotBuyCostModifier, COMDAT
; _this$ = ecx

; 1242 : 	return m_iPlotBuyCostModifier;

	mov	eax, DWORD PTR [ecx+504]

; 1243 : }

	ret	0
?GetPlotBuyCostModifier@CvBuildingEntry@@QBEHXZ ENDP	; CvBuildingEntry::GetPlotBuyCostModifier
_TEXT	ENDS
PUBLIC	?GetGlobalPlotBuyCostModifier@CvBuildingEntry@@QBEHXZ ; CvBuildingEntry::GetGlobalPlotBuyCostModifier
; Function compile flags: /Ogtpy
;	COMDAT ?GetGlobalPlotBuyCostModifier@CvBuildingEntry@@QBEHXZ
_TEXT	SEGMENT
?GetGlobalPlotBuyCostModifier@CvBuildingEntry@@QBEHXZ PROC ; CvBuildingEntry::GetGlobalPlotBuyCostModifier, COMDAT
; _this$ = ecx

; 1248 : 	return m_iGlobalPlotBuyCostModifier;

	mov	eax, DWORD PTR [ecx+500]

; 1249 : }

	ret	0
?GetGlobalPlotBuyCostModifier@CvBuildingEntry@@QBEHXZ ENDP ; CvBuildingEntry::GetGlobalPlotBuyCostModifier
_TEXT	ENDS
PUBLIC	?GetMinAreaSize@CvBuildingEntry@@QBEHXZ		; CvBuildingEntry::GetMinAreaSize
; Function compile flags: /Ogtpy
;	COMDAT ?GetMinAreaSize@CvBuildingEntry@@QBEHXZ
_TEXT	SEGMENT
?GetMinAreaSize@CvBuildingEntry@@QBEHXZ PROC		; CvBuildingEntry::GetMinAreaSize, COMDAT
; _this$ = ecx

; 1254 : 	return m_iMinAreaSize;

	mov	eax, DWORD PTR [ecx+508]

; 1255 : }

	ret	0
?GetMinAreaSize@CvBuildingEntry@@QBEHXZ ENDP		; CvBuildingEntry::GetMinAreaSize
_TEXT	ENDS
PUBLIC	?GetConquestProbability@CvBuildingEntry@@QBEHXZ	; CvBuildingEntry::GetConquestProbability
; Function compile flags: /Ogtpy
;	COMDAT ?GetConquestProbability@CvBuildingEntry@@QBEHXZ
_TEXT	SEGMENT
?GetConquestProbability@CvBuildingEntry@@QBEHXZ PROC	; CvBuildingEntry::GetConquestProbability, COMDAT
; _this$ = ecx

; 1260 : 	return m_iConquestProbability;

	mov	eax, DWORD PTR [ecx+512]

; 1261 : }

	ret	0
?GetConquestProbability@CvBuildingEntry@@QBEHXZ ENDP	; CvBuildingEntry::GetConquestProbability
_TEXT	ENDS
PUBLIC	?GetHealRateChange@CvBuildingEntry@@QBEHXZ	; CvBuildingEntry::GetHealRateChange
; Function compile flags: /Ogtpy
;	COMDAT ?GetHealRateChange@CvBuildingEntry@@QBEHXZ
_TEXT	SEGMENT
?GetHealRateChange@CvBuildingEntry@@QBEHXZ PROC		; CvBuildingEntry::GetHealRateChange, COMDAT
; _this$ = ecx

; 1266 : 	return m_iHealRateChange;

	mov	eax, DWORD PTR [ecx+516]

; 1267 : }

	ret	0
?GetHealRateChange@CvBuildingEntry@@QBEHXZ ENDP		; CvBuildingEntry::GetHealRateChange
_TEXT	ENDS
PUBLIC	?GetHappiness@CvBuildingEntry@@QBEHXZ		; CvBuildingEntry::GetHappiness
; Function compile flags: /Ogtpy
;	COMDAT ?GetHappiness@CvBuildingEntry@@QBEHXZ
_TEXT	SEGMENT
?GetHappiness@CvBuildingEntry@@QBEHXZ PROC		; CvBuildingEntry::GetHappiness, COMDAT
; _this$ = ecx

; 1272 : 	return m_iHappiness;

	mov	eax, DWORD PTR [ecx+520]

; 1273 : }

	ret	0
?GetHappiness@CvBuildingEntry@@QBEHXZ ENDP		; CvBuildingEntry::GetHappiness
_TEXT	ENDS
PUBLIC	?GetUnmoddedHappiness@CvBuildingEntry@@QBEHXZ	; CvBuildingEntry::GetUnmoddedHappiness
; Function compile flags: /Ogtpy
;	COMDAT ?GetUnmoddedHappiness@CvBuildingEntry@@QBEHXZ
_TEXT	SEGMENT
?GetUnmoddedHappiness@CvBuildingEntry@@QBEHXZ PROC	; CvBuildingEntry::GetUnmoddedHappiness, COMDAT
; _this$ = ecx

; 1278 : 	return m_iUnmoddedHappiness;

	mov	eax, DWORD PTR [ecx+524]

; 1279 : }

	ret	0
?GetUnmoddedHappiness@CvBuildingEntry@@QBEHXZ ENDP	; CvBuildingEntry::GetUnmoddedHappiness
_TEXT	ENDS
PUBLIC	?GetUnhappinessModifier@CvBuildingEntry@@QBEHXZ	; CvBuildingEntry::GetUnhappinessModifier
; Function compile flags: /Ogtpy
;	COMDAT ?GetUnhappinessModifier@CvBuildingEntry@@QBEHXZ
_TEXT	SEGMENT
?GetUnhappinessModifier@CvBuildingEntry@@QBEHXZ PROC	; CvBuildingEntry::GetUnhappinessModifier, COMDAT
; _this$ = ecx

; 1284 : 	return m_iUnhappinessModifier;

	mov	eax, DWORD PTR [ecx+528]

; 1285 : }

	ret	0
?GetUnhappinessModifier@CvBuildingEntry@@QBEHXZ ENDP	; CvBuildingEntry::GetUnhappinessModifier
_TEXT	ENDS
PUBLIC	?GetHappinessPerCity@CvBuildingEntry@@QBEHXZ	; CvBuildingEntry::GetHappinessPerCity
; Function compile flags: /Ogtpy
;	COMDAT ?GetHappinessPerCity@CvBuildingEntry@@QBEHXZ
_TEXT	SEGMENT
?GetHappinessPerCity@CvBuildingEntry@@QBEHXZ PROC	; CvBuildingEntry::GetHappinessPerCity, COMDAT
; _this$ = ecx

; 1290 : 	return m_iHappinessPerCity;

	mov	eax, DWORD PTR [ecx+532]

; 1291 : }

	ret	0
?GetHappinessPerCity@CvBuildingEntry@@QBEHXZ ENDP	; CvBuildingEntry::GetHappinessPerCity
_TEXT	ENDS
PUBLIC	?GetHappinessPerXPolicies@CvBuildingEntry@@QBEHXZ ; CvBuildingEntry::GetHappinessPerXPolicies
; Function compile flags: /Ogtpy
;	COMDAT ?GetHappinessPerXPolicies@CvBuildingEntry@@QBEHXZ
_TEXT	SEGMENT
?GetHappinessPerXPolicies@CvBuildingEntry@@QBEHXZ PROC	; CvBuildingEntry::GetHappinessPerXPolicies, COMDAT
; _this$ = ecx

; 1296 : 	return m_iHappinessPerXPolicies;

	mov	eax, DWORD PTR [ecx+536]

; 1297 : }

	ret	0
?GetHappinessPerXPolicies@CvBuildingEntry@@QBEHXZ ENDP	; CvBuildingEntry::GetHappinessPerXPolicies
_TEXT	ENDS
PUBLIC	?GetCityCountUnhappinessMod@CvBuildingEntry@@QBEHXZ ; CvBuildingEntry::GetCityCountUnhappinessMod
; Function compile flags: /Ogtpy
;	COMDAT ?GetCityCountUnhappinessMod@CvBuildingEntry@@QBEHXZ
_TEXT	SEGMENT
?GetCityCountUnhappinessMod@CvBuildingEntry@@QBEHXZ PROC ; CvBuildingEntry::GetCityCountUnhappinessMod, COMDAT
; _this$ = ecx

; 1302 : 	return m_iCityCountUnhappinessMod;

	mov	eax, DWORD PTR [ecx+540]

; 1303 : }

	ret	0
?GetCityCountUnhappinessMod@CvBuildingEntry@@QBEHXZ ENDP ; CvBuildingEntry::GetCityCountUnhappinessMod
_TEXT	ENDS
PUBLIC	?IsNoOccupiedUnhappiness@CvBuildingEntry@@QBE_NXZ ; CvBuildingEntry::IsNoOccupiedUnhappiness
; Function compile flags: /Ogtpy
;	COMDAT ?IsNoOccupiedUnhappiness@CvBuildingEntry@@QBE_NXZ
_TEXT	SEGMENT
?IsNoOccupiedUnhappiness@CvBuildingEntry@@QBE_NXZ PROC	; CvBuildingEntry::IsNoOccupiedUnhappiness, COMDAT
; _this$ = ecx

; 1308 : 	return m_bNoOccupiedUnhappiness;

	mov	al, BYTE PTR [ecx+544]

; 1309 : }

	ret	0
?IsNoOccupiedUnhappiness@CvBuildingEntry@@QBE_NXZ ENDP	; CvBuildingEntry::IsNoOccupiedUnhappiness
_TEXT	ENDS
PUBLIC	?GetGlobalPopulationChange@CvBuildingEntry@@QBEHXZ ; CvBuildingEntry::GetGlobalPopulationChange
; Function compile flags: /Ogtpy
;	COMDAT ?GetGlobalPopulationChange@CvBuildingEntry@@QBEHXZ
_TEXT	SEGMENT
?GetGlobalPopulationChange@CvBuildingEntry@@QBEHXZ PROC	; CvBuildingEntry::GetGlobalPopulationChange, COMDAT
; _this$ = ecx

; 1314 : 	return m_iGlobalPopulationChange;

	mov	eax, DWORD PTR [ecx+548]

; 1315 : }

	ret	0
?GetGlobalPopulationChange@CvBuildingEntry@@QBEHXZ ENDP	; CvBuildingEntry::GetGlobalPopulationChange
_TEXT	ENDS
PUBLIC	?GetLocalPopulationChange@CvBuildingEntry@@QBEHXZ ; CvBuildingEntry::GetLocalPopulationChange
; Function compile flags: /Ogtpy
;	COMDAT ?GetLocalPopulationChange@CvBuildingEntry@@QBEHXZ
_TEXT	SEGMENT
?GetLocalPopulationChange@CvBuildingEntry@@QBEHXZ PROC	; CvBuildingEntry::GetLocalPopulationChange, COMDAT
; _this$ = ecx

; 1321 : 	return m_iLocalPopulationChange;

	mov	eax, DWORD PTR [ecx+552]

; 1322 : }

	ret	0
?GetLocalPopulationChange@CvBuildingEntry@@QBEHXZ ENDP	; CvBuildingEntry::GetLocalPopulationChange
_TEXT	ENDS
PUBLIC	?GetTechShare@CvBuildingEntry@@QBEHXZ		; CvBuildingEntry::GetTechShare
; Function compile flags: /Ogtpy
;	COMDAT ?GetTechShare@CvBuildingEntry@@QBEHXZ
_TEXT	SEGMENT
?GetTechShare@CvBuildingEntry@@QBEHXZ PROC		; CvBuildingEntry::GetTechShare, COMDAT
; _this$ = ecx

; 1328 : 	return m_iTechShare;

	mov	eax, DWORD PTR [ecx+556]

; 1329 : }

	ret	0
?GetTechShare@CvBuildingEntry@@QBEHXZ ENDP		; CvBuildingEntry::GetTechShare
_TEXT	ENDS
PUBLIC	?GetFreeTechs@CvBuildingEntry@@QBEHXZ		; CvBuildingEntry::GetFreeTechs
; Function compile flags: /Ogtpy
;	COMDAT ?GetFreeTechs@CvBuildingEntry@@QBEHXZ
_TEXT	SEGMENT
?GetFreeTechs@CvBuildingEntry@@QBEHXZ PROC		; CvBuildingEntry::GetFreeTechs, COMDAT
; _this$ = ecx

; 1334 : 	return m_iFreeTechs;

	mov	eax, DWORD PTR [ecx+560]

; 1335 : }

	ret	0
?GetFreeTechs@CvBuildingEntry@@QBEHXZ ENDP		; CvBuildingEntry::GetFreeTechs
_TEXT	ENDS
PUBLIC	?GetFreePolicies@CvBuildingEntry@@QBEHXZ	; CvBuildingEntry::GetFreePolicies
; Function compile flags: /Ogtpy
;	COMDAT ?GetFreePolicies@CvBuildingEntry@@QBEHXZ
_TEXT	SEGMENT
?GetFreePolicies@CvBuildingEntry@@QBEHXZ PROC		; CvBuildingEntry::GetFreePolicies, COMDAT
; _this$ = ecx

; 1340 : 	return m_iFreePolicies;

	mov	eax, DWORD PTR [ecx+564]

; 1341 : }

	ret	0
?GetFreePolicies@CvBuildingEntry@@QBEHXZ ENDP		; CvBuildingEntry::GetFreePolicies
_TEXT	ENDS
PUBLIC	?GetFreeFlatFaith@CvBuildingEntry@@QBEHXZ	; CvBuildingEntry::GetFreeFlatFaith
; Function compile flags: /Ogtpy
;	COMDAT ?GetFreeFlatFaith@CvBuildingEntry@@QBEHXZ
_TEXT	SEGMENT
?GetFreeFlatFaith@CvBuildingEntry@@QBEHXZ PROC		; CvBuildingEntry::GetFreeFlatFaith, COMDAT
; _this$ = ecx

; 1347 : 	return m_iFreeFlatFaith;

	mov	eax, DWORD PTR [ecx+568]

; 1348 : }

	ret	0
?GetFreeFlatFaith@CvBuildingEntry@@QBEHXZ ENDP		; CvBuildingEntry::GetFreeFlatFaith
_TEXT	ENDS
PUBLIC	?GetMountainScienceYield@CvBuildingEntry@@QBEHXZ ; CvBuildingEntry::GetMountainScienceYield
; Function compile flags: /Ogtpy
;	COMDAT ?GetMountainScienceYield@CvBuildingEntry@@QBEHXZ
_TEXT	SEGMENT
?GetMountainScienceYield@CvBuildingEntry@@QBEHXZ PROC	; CvBuildingEntry::GetMountainScienceYield, COMDAT
; _this$ = ecx

; 1355 : 	return m_iMountainScienceYield;

	mov	eax, DWORD PTR [ecx+572]

; 1356 : }

	ret	0
?GetMountainScienceYield@CvBuildingEntry@@QBEHXZ ENDP	; CvBuildingEntry::GetMountainScienceYield
_TEXT	ENDS
PUBLIC	?GetFreeGreatPeople@CvBuildingEntry@@QBEHXZ	; CvBuildingEntry::GetFreeGreatPeople
; Function compile flags: /Ogtpy
;	COMDAT ?GetFreeGreatPeople@CvBuildingEntry@@QBEHXZ
_TEXT	SEGMENT
?GetFreeGreatPeople@CvBuildingEntry@@QBEHXZ PROC	; CvBuildingEntry::GetFreeGreatPeople, COMDAT
; _this$ = ecx

; 1362 : 	return m_iFreeGreatPeople;

	mov	eax, DWORD PTR [ecx+576]

; 1363 : }

	ret	0
?GetFreeGreatPeople@CvBuildingEntry@@QBEHXZ ENDP	; CvBuildingEntry::GetFreeGreatPeople
_TEXT	ENDS
PUBLIC	?GetMedianTechPercentChange@CvBuildingEntry@@QBEHXZ ; CvBuildingEntry::GetMedianTechPercentChange
; Function compile flags: /Ogtpy
;	COMDAT ?GetMedianTechPercentChange@CvBuildingEntry@@QBEHXZ
_TEXT	SEGMENT
?GetMedianTechPercentChange@CvBuildingEntry@@QBEHXZ PROC ; CvBuildingEntry::GetMedianTechPercentChange, COMDAT
; _this$ = ecx

; 1368 : 	return m_iMedianTechPercentChange;

	mov	eax, DWORD PTR [ecx+580]

; 1369 : }

	ret	0
?GetMedianTechPercentChange@CvBuildingEntry@@QBEHXZ ENDP ; CvBuildingEntry::GetMedianTechPercentChange
_TEXT	ENDS
PUBLIC	?GetGold@CvBuildingEntry@@QBEHXZ		; CvBuildingEntry::GetGold
; Function compile flags: /Ogtpy
;	COMDAT ?GetGold@CvBuildingEntry@@QBEHXZ
_TEXT	SEGMENT
?GetGold@CvBuildingEntry@@QBEHXZ PROC			; CvBuildingEntry::GetGold, COMDAT
; _this$ = ecx

; 1374 : 	return m_iGold;

	mov	eax, DWORD PTR [ecx+584]

; 1375 : }

	ret	0
?GetGold@CvBuildingEntry@@QBEHXZ ENDP			; CvBuildingEntry::GetGold
_TEXT	ENDS
PUBLIC	?IsNearbyMountainRequired@CvBuildingEntry@@QBE_NXZ ; CvBuildingEntry::IsNearbyMountainRequired
; Function compile flags: /Ogtpy
;	COMDAT ?IsNearbyMountainRequired@CvBuildingEntry@@QBE_NXZ
_TEXT	SEGMENT
?IsNearbyMountainRequired@CvBuildingEntry@@QBE_NXZ PROC	; CvBuildingEntry::IsNearbyMountainRequired, COMDAT
; _this$ = ecx

; 1380 : 	return m_bNearbyMountainRequired;

	mov	al, BYTE PTR [ecx+588]

; 1381 : }

	ret	0
?IsNearbyMountainRequired@CvBuildingEntry@@QBE_NXZ ENDP	; CvBuildingEntry::IsNearbyMountainRequired
_TEXT	ENDS
PUBLIC	?IsAllowsRangeStrike@CvBuildingEntry@@QBE_NXZ	; CvBuildingEntry::IsAllowsRangeStrike
; Function compile flags: /Ogtpy
;	COMDAT ?IsAllowsRangeStrike@CvBuildingEntry@@QBE_NXZ
_TEXT	SEGMENT
?IsAllowsRangeStrike@CvBuildingEntry@@QBE_NXZ PROC	; CvBuildingEntry::IsAllowsRangeStrike, COMDAT
; _this$ = ecx

; 1386 : 	return m_bAllowsRangeStrike;

	mov	al, BYTE PTR [ecx+589]

; 1387 : }

	ret	0
?IsAllowsRangeStrike@CvBuildingEntry@@QBE_NXZ ENDP	; CvBuildingEntry::IsAllowsRangeStrike
_TEXT	ENDS
PUBLIC	?GetDefenseModifier@CvBuildingEntry@@QBEHXZ	; CvBuildingEntry::GetDefenseModifier
; Function compile flags: /Ogtpy
;	COMDAT ?GetDefenseModifier@CvBuildingEntry@@QBEHXZ
_TEXT	SEGMENT
?GetDefenseModifier@CvBuildingEntry@@QBEHXZ PROC	; CvBuildingEntry::GetDefenseModifier, COMDAT
; _this$ = ecx

; 1392 : 	return m_iDefenseModifier;

	mov	eax, DWORD PTR [ecx+592]

; 1393 : }

	ret	0
?GetDefenseModifier@CvBuildingEntry@@QBEHXZ ENDP	; CvBuildingEntry::GetDefenseModifier
_TEXT	ENDS
PUBLIC	?GetDefensePerCitizen@CvBuildingEntry@@QBEHXZ	; CvBuildingEntry::GetDefensePerCitizen
; Function compile flags: /Ogtpy
;	COMDAT ?GetDefensePerCitizen@CvBuildingEntry@@QBEHXZ
_TEXT	SEGMENT
?GetDefensePerCitizen@CvBuildingEntry@@QBEHXZ PROC	; CvBuildingEntry::GetDefensePerCitizen, COMDAT
; _this$ = ecx

; 1399 : 	return m_iDefensePerCitizen;

	mov	eax, DWORD PTR [ecx+596]

; 1400 : }

	ret	0
?GetDefensePerCitizen@CvBuildingEntry@@QBEHXZ ENDP	; CvBuildingEntry::GetDefensePerCitizen
_TEXT	ENDS
PUBLIC	?GetGlobalDefenseModifier@CvBuildingEntry@@QBEHXZ ; CvBuildingEntry::GetGlobalDefenseModifier
; Function compile flags: /Ogtpy
;	COMDAT ?GetGlobalDefenseModifier@CvBuildingEntry@@QBEHXZ
_TEXT	SEGMENT
?GetGlobalDefenseModifier@CvBuildingEntry@@QBEHXZ PROC	; CvBuildingEntry::GetGlobalDefenseModifier, COMDAT
; _this$ = ecx

; 1407 : 	return m_iGlobalDefenseModifier;

	mov	eax, DWORD PTR [ecx+600]

; 1408 : }

	ret	0
?GetGlobalDefenseModifier@CvBuildingEntry@@QBEHXZ ENDP	; CvBuildingEntry::GetGlobalDefenseModifier
_TEXT	ENDS
PUBLIC	?GetExtraCityHitPoints@CvBuildingEntry@@QBEHXZ	; CvBuildingEntry::GetExtraCityHitPoints
; Function compile flags: /Ogtpy
;	COMDAT ?GetExtraCityHitPoints@CvBuildingEntry@@QBEHXZ
_TEXT	SEGMENT
?GetExtraCityHitPoints@CvBuildingEntry@@QBEHXZ PROC	; CvBuildingEntry::GetExtraCityHitPoints, COMDAT
; _this$ = ecx

; 1413 : 	return m_iExtraCityHitPoints;

	mov	eax, DWORD PTR [ecx+604]

; 1414 : }

	ret	0
?GetExtraCityHitPoints@CvBuildingEntry@@QBEHXZ ENDP	; CvBuildingEntry::GetExtraCityHitPoints
_TEXT	ENDS
PUBLIC	?GetMinorFriendshipChange@CvBuildingEntry@@QBEHXZ ; CvBuildingEntry::GetMinorFriendshipChange
; Function compile flags: /Ogtpy
;	COMDAT ?GetMinorFriendshipChange@CvBuildingEntry@@QBEHXZ
_TEXT	SEGMENT
?GetMinorFriendshipChange@CvBuildingEntry@@QBEHXZ PROC	; CvBuildingEntry::GetMinorFriendshipChange, COMDAT
; _this$ = ecx

; 1419 : 	return m_iMinorFriendshipChange;

	mov	eax, DWORD PTR [ecx+612]

; 1420 : }

	ret	0
?GetMinorFriendshipChange@CvBuildingEntry@@QBEHXZ ENDP	; CvBuildingEntry::GetMinorFriendshipChange
_TEXT	ENDS
PUBLIC	?GetVictoryPoints@CvBuildingEntry@@QBEHXZ	; CvBuildingEntry::GetVictoryPoints
; Function compile flags: /Ogtpy
;	COMDAT ?GetVictoryPoints@CvBuildingEntry@@QBEHXZ
_TEXT	SEGMENT
?GetVictoryPoints@CvBuildingEntry@@QBEHXZ PROC		; CvBuildingEntry::GetVictoryPoints, COMDAT
; _this$ = ecx

; 1425 : 	return m_iVictoryPoints;

	mov	eax, DWORD PTR [ecx+616]

; 1426 : }

	ret	0
?GetVictoryPoints@CvBuildingEntry@@QBEHXZ ENDP		; CvBuildingEntry::GetVictoryPoints
_TEXT	ENDS
PUBLIC	?GetExtraMissionarySpreads@CvBuildingEntry@@QBEHXZ ; CvBuildingEntry::GetExtraMissionarySpreads
; Function compile flags: /Ogtpy
;	COMDAT ?GetExtraMissionarySpreads@CvBuildingEntry@@QBEHXZ
_TEXT	SEGMENT
?GetExtraMissionarySpreads@CvBuildingEntry@@QBEHXZ PROC	; CvBuildingEntry::GetExtraMissionarySpreads, COMDAT
; _this$ = ecx

; 1431 : 	return m_iExtraMissionarySpreads;

	mov	eax, DWORD PTR [ecx+620]

; 1432 : }

	ret	0
?GetExtraMissionarySpreads@CvBuildingEntry@@QBEHXZ ENDP	; CvBuildingEntry::GetExtraMissionarySpreads
_TEXT	ENDS
PUBLIC	?GetReligiousPressureModifier@CvBuildingEntry@@QBEHXZ ; CvBuildingEntry::GetReligiousPressureModifier
; Function compile flags: /Ogtpy
;	COMDAT ?GetReligiousPressureModifier@CvBuildingEntry@@QBEHXZ
_TEXT	SEGMENT
?GetReligiousPressureModifier@CvBuildingEntry@@QBEHXZ PROC ; CvBuildingEntry::GetReligiousPressureModifier, COMDAT
; _this$ = ecx

; 1437 : 	return m_iReligiousPressureModifier;

	mov	eax, DWORD PTR [ecx+624]

; 1438 : }

	ret	0
?GetReligiousPressureModifier@CvBuildingEntry@@QBEHXZ ENDP ; CvBuildingEntry::GetReligiousPressureModifier
_TEXT	ENDS
PUBLIC	?GetEspionageModifier@CvBuildingEntry@@QBEHXZ	; CvBuildingEntry::GetEspionageModifier
; Function compile flags: /Ogtpy
;	COMDAT ?GetEspionageModifier@CvBuildingEntry@@QBEHXZ
_TEXT	SEGMENT
?GetEspionageModifier@CvBuildingEntry@@QBEHXZ PROC	; CvBuildingEntry::GetEspionageModifier, COMDAT
; _this$ = ecx

; 1443 : 	return m_iEspionageModifier;

	mov	eax, DWORD PTR [ecx+628]

; 1444 : }

	ret	0
?GetEspionageModifier@CvBuildingEntry@@QBEHXZ ENDP	; CvBuildingEntry::GetEspionageModifier
_TEXT	ENDS
PUBLIC	?GetGlobalEspionageModifier@CvBuildingEntry@@QBEHXZ ; CvBuildingEntry::GetGlobalEspionageModifier
; Function compile flags: /Ogtpy
;	COMDAT ?GetGlobalEspionageModifier@CvBuildingEntry@@QBEHXZ
_TEXT	SEGMENT
?GetGlobalEspionageModifier@CvBuildingEntry@@QBEHXZ PROC ; CvBuildingEntry::GetGlobalEspionageModifier, COMDAT
; _this$ = ecx

; 1449 : 	return m_iGlobalEspionageModifier;

	mov	eax, DWORD PTR [ecx+632]

; 1450 : }

	ret	0
?GetGlobalEspionageModifier@CvBuildingEntry@@QBEHXZ ENDP ; CvBuildingEntry::GetGlobalEspionageModifier
_TEXT	ENDS
PUBLIC	?GetExtraSpies@CvBuildingEntry@@QBEHXZ		; CvBuildingEntry::GetExtraSpies
; Function compile flags: /Ogtpy
;	COMDAT ?GetExtraSpies@CvBuildingEntry@@QBEHXZ
_TEXT	SEGMENT
?GetExtraSpies@CvBuildingEntry@@QBEHXZ PROC		; CvBuildingEntry::GetExtraSpies, COMDAT
; _this$ = ecx

; 1455 : 	return m_iExtraSpies;

	mov	eax, DWORD PTR [ecx+636]

; 1456 : }

	ret	0
?GetExtraSpies@CvBuildingEntry@@QBEHXZ ENDP		; CvBuildingEntry::GetExtraSpies
_TEXT	ENDS
PUBLIC	?GetSpyRankChange@CvBuildingEntry@@QBEHXZ	; CvBuildingEntry::GetSpyRankChange
; Function compile flags: /Ogtpy
;	COMDAT ?GetSpyRankChange@CvBuildingEntry@@QBEHXZ
_TEXT	SEGMENT
?GetSpyRankChange@CvBuildingEntry@@QBEHXZ PROC		; CvBuildingEntry::GetSpyRankChange, COMDAT
; _this$ = ecx

; 1461 : 	return m_iSpyRankChange;

	mov	eax, DWORD PTR [ecx+640]

; 1462 : }

	ret	0
?GetSpyRankChange@CvBuildingEntry@@QBEHXZ ENDP		; CvBuildingEntry::GetSpyRankChange
_TEXT	ENDS
PUBLIC	?GetTradeRouteRecipientBonus@CvBuildingEntry@@QBEHXZ ; CvBuildingEntry::GetTradeRouteRecipientBonus
; Function compile flags: /Ogtpy
;	COMDAT ?GetTradeRouteRecipientBonus@CvBuildingEntry@@QBEHXZ
_TEXT	SEGMENT
?GetTradeRouteRecipientBonus@CvBuildingEntry@@QBEHXZ PROC ; CvBuildingEntry::GetTradeRouteRecipientBonus, COMDAT
; _this$ = ecx

; 1467 : 	return m_iTradeRouteRecipientBonus;

	mov	eax, DWORD PTR [ecx+664]

; 1468 : }

	ret	0
?GetTradeRouteRecipientBonus@CvBuildingEntry@@QBEHXZ ENDP ; CvBuildingEntry::GetTradeRouteRecipientBonus
_TEXT	ENDS
PUBLIC	?GetTradeRouteTargetBonus@CvBuildingEntry@@QBEHXZ ; CvBuildingEntry::GetTradeRouteTargetBonus
; Function compile flags: /Ogtpy
;	COMDAT ?GetTradeRouteTargetBonus@CvBuildingEntry@@QBEHXZ
_TEXT	SEGMENT
?GetTradeRouteTargetBonus@CvBuildingEntry@@QBEHXZ PROC	; CvBuildingEntry::GetTradeRouteTargetBonus, COMDAT
; _this$ = ecx

; 1473 : 	return m_iTradeRouteTargetBonus;

	mov	eax, DWORD PTR [ecx+668]

; 1474 : }

	ret	0
?GetTradeRouteTargetBonus@CvBuildingEntry@@QBEHXZ ENDP	; CvBuildingEntry::GetTradeRouteTargetBonus
_TEXT	ENDS
PUBLIC	?GetNumTradeRouteBonus@CvBuildingEntry@@QBEHXZ	; CvBuildingEntry::GetNumTradeRouteBonus
; Function compile flags: /Ogtpy
;	COMDAT ?GetNumTradeRouteBonus@CvBuildingEntry@@QBEHXZ
_TEXT	SEGMENT
?GetNumTradeRouteBonus@CvBuildingEntry@@QBEHXZ PROC	; CvBuildingEntry::GetNumTradeRouteBonus, COMDAT
; _this$ = ecx

; 1478 : 	return m_iNumTradeRouteBonus;

	mov	eax, DWORD PTR [ecx+672]

; 1479 : }

	ret	0
?GetNumTradeRouteBonus@CvBuildingEntry@@QBEHXZ ENDP	; CvBuildingEntry::GetNumTradeRouteBonus
_TEXT	ENDS
PUBLIC	?GetTradeRouteSeaDistanceModifier@CvBuildingEntry@@QBEHXZ ; CvBuildingEntry::GetTradeRouteSeaDistanceModifier
; Function compile flags: /Ogtpy
;	COMDAT ?GetTradeRouteSeaDistanceModifier@CvBuildingEntry@@QBEHXZ
_TEXT	SEGMENT
?GetTradeRouteSeaDistanceModifier@CvBuildingEntry@@QBEHXZ PROC ; CvBuildingEntry::GetTradeRouteSeaDistanceModifier, COMDAT
; _this$ = ecx

; 1483 : 	return m_iTradeRouteSeaDistanceModifier;

	mov	eax, DWORD PTR [ecx+676]

; 1484 : }

	ret	0
?GetTradeRouteSeaDistanceModifier@CvBuildingEntry@@QBEHXZ ENDP ; CvBuildingEntry::GetTradeRouteSeaDistanceModifier
_TEXT	ENDS
PUBLIC	?GetTradeRouteSeaGoldBonus@CvBuildingEntry@@QBEHXZ ; CvBuildingEntry::GetTradeRouteSeaGoldBonus
; Function compile flags: /Ogtpy
;	COMDAT ?GetTradeRouteSeaGoldBonus@CvBuildingEntry@@QBEHXZ
_TEXT	SEGMENT
?GetTradeRouteSeaGoldBonus@CvBuildingEntry@@QBEHXZ PROC	; CvBuildingEntry::GetTradeRouteSeaGoldBonus, COMDAT
; _this$ = ecx

; 1488 : 	return m_iTradeRouteSeaGoldBonus;

	mov	eax, DWORD PTR [ecx+680]

; 1489 : }

	ret	0
?GetTradeRouteSeaGoldBonus@CvBuildingEntry@@QBEHXZ ENDP	; CvBuildingEntry::GetTradeRouteSeaGoldBonus
_TEXT	ENDS
PUBLIC	?GetTradeRouteLandDistanceModifier@CvBuildingEntry@@QBEHXZ ; CvBuildingEntry::GetTradeRouteLandDistanceModifier
; Function compile flags: /Ogtpy
;	COMDAT ?GetTradeRouteLandDistanceModifier@CvBuildingEntry@@QBEHXZ
_TEXT	SEGMENT
?GetTradeRouteLandDistanceModifier@CvBuildingEntry@@QBEHXZ PROC ; CvBuildingEntry::GetTradeRouteLandDistanceModifier, COMDAT
; _this$ = ecx

; 1493 : 	return m_iTradeRouteLandDistanceModifier;

	mov	eax, DWORD PTR [ecx+684]

; 1494 : }

	ret	0
?GetTradeRouteLandDistanceModifier@CvBuildingEntry@@QBEHXZ ENDP ; CvBuildingEntry::GetTradeRouteLandDistanceModifier
_TEXT	ENDS
PUBLIC	?GetTradeRouteLandGoldBonus@CvBuildingEntry@@QBEHXZ ; CvBuildingEntry::GetTradeRouteLandGoldBonus
; Function compile flags: /Ogtpy
;	COMDAT ?GetTradeRouteLandGoldBonus@CvBuildingEntry@@QBEHXZ
_TEXT	SEGMENT
?GetTradeRouteLandGoldBonus@CvBuildingEntry@@QBEHXZ PROC ; CvBuildingEntry::GetTradeRouteLandGoldBonus, COMDAT
; _this$ = ecx

; 1498 : 	return m_iTradeRouteLandGoldBonus;

	mov	eax, DWORD PTR [ecx+688]

; 1499 : }

	ret	0
?GetTradeRouteLandGoldBonus@CvBuildingEntry@@QBEHXZ ENDP ; CvBuildingEntry::GetTradeRouteLandGoldBonus
_TEXT	ENDS
PUBLIC	?GetCityStateTradeRouteProductionModifier@CvBuildingEntry@@QBEHXZ ; CvBuildingEntry::GetCityStateTradeRouteProductionModifier
; Function compile flags: /Ogtpy
;	COMDAT ?GetCityStateTradeRouteProductionModifier@CvBuildingEntry@@QBEHXZ
_TEXT	SEGMENT
?GetCityStateTradeRouteProductionModifier@CvBuildingEntry@@QBEHXZ PROC ; CvBuildingEntry::GetCityStateTradeRouteProductionModifier, COMDAT
; _this$ = ecx

; 1503 : 	return m_iCityStateTradeRouteProductionModifier;

	mov	eax, DWORD PTR [ecx+692]

; 1504 : }

	ret	0
?GetCityStateTradeRouteProductionModifier@CvBuildingEntry@@QBEHXZ ENDP ; CvBuildingEntry::GetCityStateTradeRouteProductionModifier
_TEXT	ENDS
PUBLIC	?GetCityStateTradeRouteGoldModifier@CvBuildingEntry@@QBEHXZ ; CvBuildingEntry::GetCityStateTradeRouteGoldModifier
; Function compile flags: /Ogtpy
;	COMDAT ?GetCityStateTradeRouteGoldModifier@CvBuildingEntry@@QBEHXZ
_TEXT	SEGMENT
?GetCityStateTradeRouteGoldModifier@CvBuildingEntry@@QBEHXZ PROC ; CvBuildingEntry::GetCityStateTradeRouteGoldModifier, COMDAT
; _this$ = ecx

; 1509 : 	return m_iCityStateTradeRouteGoldModifier;

	mov	eax, DWORD PTR [ecx+696]

; 1510 : }

	ret	0
?GetCityStateTradeRouteGoldModifier@CvBuildingEntry@@QBEHXZ ENDP ; CvBuildingEntry::GetCityStateTradeRouteGoldModifier
_TEXT	ENDS
PUBLIC	?GetGreatScientistBeakerModifier@CvBuildingEntry@@QBEHXZ ; CvBuildingEntry::GetGreatScientistBeakerModifier
; Function compile flags: /Ogtpy
;	COMDAT ?GetGreatScientistBeakerModifier@CvBuildingEntry@@QBEHXZ
_TEXT	SEGMENT
?GetGreatScientistBeakerModifier@CvBuildingEntry@@QBEHXZ PROC ; CvBuildingEntry::GetGreatScientistBeakerModifier, COMDAT
; _this$ = ecx

; 1515 : 	return m_iGreatScientistBeakerModifier;

	mov	eax, DWORD PTR [ecx+700]

; 1516 : }

	ret	0
?GetGreatScientistBeakerModifier@CvBuildingEntry@@QBEHXZ ENDP ; CvBuildingEntry::GetGreatScientistBeakerModifier
_TEXT	ENDS
PUBLIC	?GetInstantSpyRankChange@CvBuildingEntry@@QBEHXZ ; CvBuildingEntry::GetInstantSpyRankChange
; Function compile flags: /Ogtpy
;	COMDAT ?GetInstantSpyRankChange@CvBuildingEntry@@QBEHXZ
_TEXT	SEGMENT
?GetInstantSpyRankChange@CvBuildingEntry@@QBEHXZ PROC	; CvBuildingEntry::GetInstantSpyRankChange, COMDAT
; _this$ = ecx

; 1521 : 	return m_iInstantSpyRankChange;

	mov	eax, DWORD PTR [ecx+644]

; 1522 : }

	ret	0
?GetInstantSpyRankChange@CvBuildingEntry@@QBEHXZ ENDP	; CvBuildingEntry::GetInstantSpyRankChange
_TEXT	ENDS
PUBLIC	?GetLandmarksTourismPercent@CvBuildingEntry@@QBEHXZ ; CvBuildingEntry::GetLandmarksTourismPercent
; Function compile flags: /Ogtpy
;	COMDAT ?GetLandmarksTourismPercent@CvBuildingEntry@@QBEHXZ
_TEXT	SEGMENT
?GetLandmarksTourismPercent@CvBuildingEntry@@QBEHXZ PROC ; CvBuildingEntry::GetLandmarksTourismPercent, COMDAT
; _this$ = ecx

; 1527 : 	return m_iLandmarksTourismPercent;

	mov	eax, DWORD PTR [ecx+648]

; 1528 : }

	ret	0
?GetLandmarksTourismPercent@CvBuildingEntry@@QBEHXZ ENDP ; CvBuildingEntry::GetLandmarksTourismPercent
_TEXT	ENDS
PUBLIC	?GetInstantMilitaryIncrease@CvBuildingEntry@@QBEHXZ ; CvBuildingEntry::GetInstantMilitaryIncrease
; Function compile flags: /Ogtpy
;	COMDAT ?GetInstantMilitaryIncrease@CvBuildingEntry@@QBEHXZ
_TEXT	SEGMENT
?GetInstantMilitaryIncrease@CvBuildingEntry@@QBEHXZ PROC ; CvBuildingEntry::GetInstantMilitaryIncrease, COMDAT
; _this$ = ecx

; 1533 : 	return m_iInstantMilitaryIncrease;

	mov	eax, DWORD PTR [ecx+652]

; 1534 : }

	ret	0
?GetInstantMilitaryIncrease@CvBuildingEntry@@QBEHXZ ENDP ; CvBuildingEntry::GetInstantMilitaryIncrease
_TEXT	ENDS
PUBLIC	?GetGreatWorksTourismModifier@CvBuildingEntry@@QBEHXZ ; CvBuildingEntry::GetGreatWorksTourismModifier
; Function compile flags: /Ogtpy
;	COMDAT ?GetGreatWorksTourismModifier@CvBuildingEntry@@QBEHXZ
_TEXT	SEGMENT
?GetGreatWorksTourismModifier@CvBuildingEntry@@QBEHXZ PROC ; CvBuildingEntry::GetGreatWorksTourismModifier, COMDAT
; _this$ = ecx

; 1539 : 	return m_iGreatWorksTourismModifier;

	mov	eax, DWORD PTR [ecx+656]

; 1540 : }

	ret	0
?GetGreatWorksTourismModifier@CvBuildingEntry@@QBEHXZ ENDP ; CvBuildingEntry::GetGreatWorksTourismModifier
_TEXT	ENDS
PUBLIC	?GetXBuiltTriggersIdeologyChoice@CvBuildingEntry@@QBEHXZ ; CvBuildingEntry::GetXBuiltTriggersIdeologyChoice
; Function compile flags: /Ogtpy
;	COMDAT ?GetXBuiltTriggersIdeologyChoice@CvBuildingEntry@@QBEHXZ
_TEXT	SEGMENT
?GetXBuiltTriggersIdeologyChoice@CvBuildingEntry@@QBEHXZ PROC ; CvBuildingEntry::GetXBuiltTriggersIdeologyChoice, COMDAT
; _this$ = ecx

; 1545 : 	return m_iXBuiltTriggersIdeologyChoice;

	mov	eax, DWORD PTR [ecx+660]

; 1546 : }

	ret	0
?GetXBuiltTriggersIdeologyChoice@CvBuildingEntry@@QBEHXZ ENDP ; CvBuildingEntry::GetXBuiltTriggersIdeologyChoice
_TEXT	ENDS
PUBLIC	?GetExtraLeagueVotes@CvBuildingEntry@@QBEHXZ	; CvBuildingEntry::GetExtraLeagueVotes
; Function compile flags: /Ogtpy
;	COMDAT ?GetExtraLeagueVotes@CvBuildingEntry@@QBEHXZ
_TEXT	SEGMENT
?GetExtraLeagueVotes@CvBuildingEntry@@QBEHXZ PROC	; CvBuildingEntry::GetExtraLeagueVotes, COMDAT
; _this$ = ecx

; 1551 : 	return m_iExtraLeagueVotes;

	mov	eax, DWORD PTR [ecx+704]

; 1552 : }

	ret	0
?GetExtraLeagueVotes@CvBuildingEntry@@QBEHXZ ENDP	; CvBuildingEntry::GetExtraLeagueVotes
_TEXT	ENDS
PUBLIC	?GetPreferredDisplayPosition@CvBuildingEntry@@QBEHXZ ; CvBuildingEntry::GetPreferredDisplayPosition
; Function compile flags: /Ogtpy
;	COMDAT ?GetPreferredDisplayPosition@CvBuildingEntry@@QBEHXZ
_TEXT	SEGMENT
?GetPreferredDisplayPosition@CvBuildingEntry@@QBEHXZ PROC ; CvBuildingEntry::GetPreferredDisplayPosition, COMDAT
; _this$ = ecx

; 1557 : 	return m_iPreferredDisplayPosition;

	mov	eax, DWORD PTR [ecx+708]

; 1558 : }

	ret	0
?GetPreferredDisplayPosition@CvBuildingEntry@@QBEHXZ ENDP ; CvBuildingEntry::GetPreferredDisplayPosition
_TEXT	ENDS
PUBLIC	?GetPortraitIndex@CvBuildingEntry@@QBEHXZ	; CvBuildingEntry::GetPortraitIndex
; Function compile flags: /Ogtpy
;	COMDAT ?GetPortraitIndex@CvBuildingEntry@@QBEHXZ
_TEXT	SEGMENT
?GetPortraitIndex@CvBuildingEntry@@QBEHXZ PROC		; CvBuildingEntry::GetPortraitIndex, COMDAT
; _this$ = ecx

; 1563 : 	return m_iPortraitIndex;

	mov	eax, DWORD PTR [ecx+712]

; 1564 : }

	ret	0
?GetPortraitIndex@CvBuildingEntry@@QBEHXZ ENDP		; CvBuildingEntry::GetPortraitIndex
_TEXT	ENDS
PUBLIC	?IsTeamShare@CvBuildingEntry@@QBE_NXZ		; CvBuildingEntry::IsTeamShare
; Function compile flags: /Ogtpy
;	COMDAT ?IsTeamShare@CvBuildingEntry@@QBE_NXZ
_TEXT	SEGMENT
?IsTeamShare@CvBuildingEntry@@QBE_NXZ PROC		; CvBuildingEntry::IsTeamShare, COMDAT
; _this$ = ecx

; 1569 : 	return m_bTeamShare;

	mov	al, BYTE PTR [ecx+716]

; 1570 : }

	ret	0
?IsTeamShare@CvBuildingEntry@@QBE_NXZ ENDP		; CvBuildingEntry::IsTeamShare
_TEXT	ENDS
PUBLIC	?IsWater@CvBuildingEntry@@QBE_NXZ		; CvBuildingEntry::IsWater
; Function compile flags: /Ogtpy
;	COMDAT ?IsWater@CvBuildingEntry@@QBE_NXZ
_TEXT	SEGMENT
?IsWater@CvBuildingEntry@@QBE_NXZ PROC			; CvBuildingEntry::IsWater, COMDAT
; _this$ = ecx

; 1575 : 	return m_bWater;

	mov	al, BYTE PTR [ecx+717]

; 1576 : }

	ret	0
?IsWater@CvBuildingEntry@@QBE_NXZ ENDP			; CvBuildingEntry::IsWater
_TEXT	ENDS
PUBLIC	?IsRiver@CvBuildingEntry@@QBE_NXZ		; CvBuildingEntry::IsRiver
; Function compile flags: /Ogtpy
;	COMDAT ?IsRiver@CvBuildingEntry@@QBE_NXZ
_TEXT	SEGMENT
?IsRiver@CvBuildingEntry@@QBE_NXZ PROC			; CvBuildingEntry::IsRiver, COMDAT
; _this$ = ecx

; 1581 : 	return m_bRiver;

	mov	al, BYTE PTR [ecx+718]

; 1582 : }

	ret	0
?IsRiver@CvBuildingEntry@@QBE_NXZ ENDP			; CvBuildingEntry::IsRiver
_TEXT	ENDS
PUBLIC	?IsFreshWater@CvBuildingEntry@@QBE_NXZ		; CvBuildingEntry::IsFreshWater
; Function compile flags: /Ogtpy
;	COMDAT ?IsFreshWater@CvBuildingEntry@@QBE_NXZ
_TEXT	SEGMENT
?IsFreshWater@CvBuildingEntry@@QBE_NXZ PROC		; CvBuildingEntry::IsFreshWater, COMDAT
; _this$ = ecx

; 1587 : 	return m_bFreshWater;

	mov	al, BYTE PTR [ecx+719]

; 1588 : }

	ret	0
?IsFreshWater@CvBuildingEntry@@QBE_NXZ ENDP		; CvBuildingEntry::IsFreshWater
_TEXT	ENDS
PUBLIC	?IsMountain@CvBuildingEntry@@QBE_NXZ		; CvBuildingEntry::IsMountain
; Function compile flags: /Ogtpy
;	COMDAT ?IsMountain@CvBuildingEntry@@QBE_NXZ
_TEXT	SEGMENT
?IsMountain@CvBuildingEntry@@QBE_NXZ PROC		; CvBuildingEntry::IsMountain, COMDAT
; _this$ = ecx

; 1593 : 	return m_bMountain;

	mov	al, BYTE PTR [ecx+720]

; 1594 : }

	ret	0
?IsMountain@CvBuildingEntry@@QBE_NXZ ENDP		; CvBuildingEntry::IsMountain
_TEXT	ENDS
PUBLIC	?IsHill@CvBuildingEntry@@QBE_NXZ		; CvBuildingEntry::IsHill
; Function compile flags: /Ogtpy
;	COMDAT ?IsHill@CvBuildingEntry@@QBE_NXZ
_TEXT	SEGMENT
?IsHill@CvBuildingEntry@@QBE_NXZ PROC			; CvBuildingEntry::IsHill, COMDAT
; _this$ = ecx

; 1599 : 	return m_bHill;

	mov	al, BYTE PTR [ecx+721]

; 1600 : }

	ret	0
?IsHill@CvBuildingEntry@@QBE_NXZ ENDP			; CvBuildingEntry::IsHill
_TEXT	ENDS
PUBLIC	?IsFlat@CvBuildingEntry@@QBE_NXZ		; CvBuildingEntry::IsFlat
; Function compile flags: /Ogtpy
;	COMDAT ?IsFlat@CvBuildingEntry@@QBE_NXZ
_TEXT	SEGMENT
?IsFlat@CvBuildingEntry@@QBE_NXZ PROC			; CvBuildingEntry::IsFlat, COMDAT
; _this$ = ecx

; 1605 : 	return m_bFlat;

	mov	al, BYTE PTR [ecx+722]

; 1606 : }

	ret	0
?IsFlat@CvBuildingEntry@@QBE_NXZ ENDP			; CvBuildingEntry::IsFlat
_TEXT	ENDS
PUBLIC	?IsFoundsReligion@CvBuildingEntry@@QBE_NXZ	; CvBuildingEntry::IsFoundsReligion
; Function compile flags: /Ogtpy
;	COMDAT ?IsFoundsReligion@CvBuildingEntry@@QBE_NXZ
_TEXT	SEGMENT
?IsFoundsReligion@CvBuildingEntry@@QBE_NXZ PROC		; CvBuildingEntry::IsFoundsReligion, COMDAT
; _this$ = ecx

; 1611 : 	return m_bFoundsReligion;

	mov	al, BYTE PTR [ecx+723]

; 1612 : }

	ret	0
?IsFoundsReligion@CvBuildingEntry@@QBE_NXZ ENDP		; CvBuildingEntry::IsFoundsReligion
_TEXT	ENDS
PUBLIC	?IsReligious@CvBuildingEntry@@QBE_NXZ		; CvBuildingEntry::IsReligious
; Function compile flags: /Ogtpy
;	COMDAT ?IsReligious@CvBuildingEntry@@QBE_NXZ
_TEXT	SEGMENT
?IsReligious@CvBuildingEntry@@QBE_NXZ PROC		; CvBuildingEntry::IsReligious, COMDAT
; _this$ = ecx

; 1617 : 	return m_bIsReligious;

	mov	al, BYTE PTR [ecx+724]

; 1618 : }

	ret	0
?IsReligious@CvBuildingEntry@@QBE_NXZ ENDP		; CvBuildingEntry::IsReligious
_TEXT	ENDS
PUBLIC	?IsBorderObstacle@CvBuildingEntry@@QBE_NXZ	; CvBuildingEntry::IsBorderObstacle
; Function compile flags: /Ogtpy
;	COMDAT ?IsBorderObstacle@CvBuildingEntry@@QBE_NXZ
_TEXT	SEGMENT
?IsBorderObstacle@CvBuildingEntry@@QBE_NXZ PROC		; CvBuildingEntry::IsBorderObstacle, COMDAT
; _this$ = ecx

; 1623 : 	return m_bBorderObstacle;

	mov	al, BYTE PTR [ecx+725]

; 1624 : }

	ret	0
?IsBorderObstacle@CvBuildingEntry@@QBE_NXZ ENDP		; CvBuildingEntry::IsBorderObstacle
_TEXT	ENDS
PUBLIC	?IsPlayerBorderObstacle@CvBuildingEntry@@QBE_NXZ ; CvBuildingEntry::IsPlayerBorderObstacle
; Function compile flags: /Ogtpy
;	COMDAT ?IsPlayerBorderObstacle@CvBuildingEntry@@QBE_NXZ
_TEXT	SEGMENT
?IsPlayerBorderObstacle@CvBuildingEntry@@QBE_NXZ PROC	; CvBuildingEntry::IsPlayerBorderObstacle, COMDAT
; _this$ = ecx

; 1629 : 	return m_bPlayerBorderObstacle;

	mov	al, BYTE PTR [ecx+726]

; 1630 : }

	ret	0
?IsPlayerBorderObstacle@CvBuildingEntry@@QBE_NXZ ENDP	; CvBuildingEntry::IsPlayerBorderObstacle
_TEXT	ENDS
PUBLIC	?IsCityWall@CvBuildingEntry@@QBE_NXZ		; CvBuildingEntry::IsCityWall
; Function compile flags: /Ogtpy
;	COMDAT ?IsCityWall@CvBuildingEntry@@QBE_NXZ
_TEXT	SEGMENT
?IsCityWall@CvBuildingEntry@@QBE_NXZ PROC		; CvBuildingEntry::IsCityWall, COMDAT
; _this$ = ecx

; 1635 : 	return m_bCityWall;

	mov	al, BYTE PTR [ecx+736]

; 1636 : }

	ret	0
?IsCityWall@CvBuildingEntry@@QBE_NXZ ENDP		; CvBuildingEntry::IsCityWall
_TEXT	ENDS
PUBLIC	?IsUnlockedByBelief@CvBuildingEntry@@QBE_NXZ	; CvBuildingEntry::IsUnlockedByBelief
; Function compile flags: /Ogtpy
;	COMDAT ?IsUnlockedByBelief@CvBuildingEntry@@QBE_NXZ
_TEXT	SEGMENT
?IsUnlockedByBelief@CvBuildingEntry@@QBE_NXZ PROC	; CvBuildingEntry::IsUnlockedByBelief, COMDAT
; _this$ = ecx

; 1641 : 	return m_bUnlockedByBelief;

	mov	al, BYTE PTR [ecx+737]

; 1642 : }

	ret	0
?IsUnlockedByBelief@CvBuildingEntry@@QBE_NXZ ENDP	; CvBuildingEntry::IsUnlockedByBelief
_TEXT	ENDS
PUBLIC	?IsUnlockedByLeague@CvBuildingEntry@@QBE_NXZ	; CvBuildingEntry::IsUnlockedByLeague
; Function compile flags: /Ogtpy
;	COMDAT ?IsUnlockedByLeague@CvBuildingEntry@@QBE_NXZ
_TEXT	SEGMENT
?IsUnlockedByLeague@CvBuildingEntry@@QBE_NXZ PROC	; CvBuildingEntry::IsUnlockedByLeague, COMDAT
; _this$ = ecx

; 1647 : 	return m_bUnlockedByLeague;

	mov	al, BYTE PTR [ecx+738]

; 1648 : }

	ret	0
?IsUnlockedByLeague@CvBuildingEntry@@QBE_NXZ ENDP	; CvBuildingEntry::IsUnlockedByLeague
_TEXT	ENDS
PUBLIC	?IsRequiresHolyCity@CvBuildingEntry@@QBE_NXZ	; CvBuildingEntry::IsRequiresHolyCity
; Function compile flags: /Ogtpy
;	COMDAT ?IsRequiresHolyCity@CvBuildingEntry@@QBE_NXZ
_TEXT	SEGMENT
?IsRequiresHolyCity@CvBuildingEntry@@QBE_NXZ PROC	; CvBuildingEntry::IsRequiresHolyCity, COMDAT
; _this$ = ecx

; 1653 : 	return m_bRequiresHolyCity;

	mov	al, BYTE PTR [ecx+739]

; 1654 : }

	ret	0
?IsRequiresHolyCity@CvBuildingEntry@@QBE_NXZ ENDP	; CvBuildingEntry::IsRequiresHolyCity
_TEXT	ENDS
PUBLIC	?AffectSpiesNow@CvBuildingEntry@@QBE_NXZ	; CvBuildingEntry::AffectSpiesNow
; Function compile flags: /Ogtpy
;	COMDAT ?AffectSpiesNow@CvBuildingEntry@@QBE_NXZ
_TEXT	SEGMENT
?AffectSpiesNow@CvBuildingEntry@@QBE_NXZ PROC		; CvBuildingEntry::AffectSpiesNow, COMDAT
; _this$ = ecx

; 1659 : 	return m_bAffectSpiesNow;

	mov	al, BYTE PTR [ecx+740]

; 1660 : }

	ret	0
?AffectSpiesNow@CvBuildingEntry@@QBE_NXZ ENDP		; CvBuildingEntry::AffectSpiesNow
_TEXT	ENDS
PUBLIC	?IsEspionage@CvBuildingEntry@@QBE_NXZ		; CvBuildingEntry::IsEspionage
; Function compile flags: /Ogtpy
;	COMDAT ?IsEspionage@CvBuildingEntry@@QBE_NXZ
_TEXT	SEGMENT
?IsEspionage@CvBuildingEntry@@QBE_NXZ PROC		; CvBuildingEntry::IsEspionage, COMDAT
; _this$ = ecx

; 1665 : 	return m_bEspionage;

	mov	al, BYTE PTR [ecx+741]

; 1666 : }

	ret	0
?IsEspionage@CvBuildingEntry@@QBE_NXZ ENDP		; CvBuildingEntry::IsEspionage
_TEXT	ENDS
PUBLIC	?IsMalianTreasury@CvBuildingEntry@@QBE_NXZ	; CvBuildingEntry::IsMalianTreasury
; Function compile flags: /Ogtpy
;	COMDAT ?IsMalianTreasury@CvBuildingEntry@@QBE_NXZ
_TEXT	SEGMENT
?IsMalianTreasury@CvBuildingEntry@@QBE_NXZ PROC		; CvBuildingEntry::IsMalianTreasury, COMDAT
; _this$ = ecx

; 1672 : 	return m_bMalianTreasury;

	mov	al, BYTE PTR [ecx+742]

; 1673 : }

	ret	0
?IsMalianTreasury@CvBuildingEntry@@QBE_NXZ ENDP		; CvBuildingEntry::IsMalianTreasury
_TEXT	ENDS
PUBLIC	?AllowsFoodTradeRoutes@CvBuildingEntry@@QBE_NXZ	; CvBuildingEntry::AllowsFoodTradeRoutes
; Function compile flags: /Ogtpy
;	COMDAT ?AllowsFoodTradeRoutes@CvBuildingEntry@@QBE_NXZ
_TEXT	SEGMENT
?AllowsFoodTradeRoutes@CvBuildingEntry@@QBE_NXZ PROC	; CvBuildingEntry::AllowsFoodTradeRoutes, COMDAT
; _this$ = ecx

; 1678 : 	return m_bAllowsFoodTradeRoutes;

	mov	al, BYTE PTR [ecx+743]

; 1679 : }

	ret	0
?AllowsFoodTradeRoutes@CvBuildingEntry@@QBE_NXZ ENDP	; CvBuildingEntry::AllowsFoodTradeRoutes
_TEXT	ENDS
PUBLIC	?AllowsProductionTradeRoutes@CvBuildingEntry@@QBE_NXZ ; CvBuildingEntry::AllowsProductionTradeRoutes
; Function compile flags: /Ogtpy
;	COMDAT ?AllowsProductionTradeRoutes@CvBuildingEntry@@QBE_NXZ
_TEXT	SEGMENT
?AllowsProductionTradeRoutes@CvBuildingEntry@@QBE_NXZ PROC ; CvBuildingEntry::AllowsProductionTradeRoutes, COMDAT
; _this$ = ecx

; 1683 : 	return m_bAllowsProductionTradeRoutes;

	mov	al, BYTE PTR [ecx+744]

; 1684 : }

	ret	0
?AllowsProductionTradeRoutes@CvBuildingEntry@@QBE_NXZ ENDP ; CvBuildingEntry::AllowsProductionTradeRoutes
_TEXT	ENDS
PUBLIC	?NullifyInfluenceModifier@CvBuildingEntry@@QBE_NXZ ; CvBuildingEntry::NullifyInfluenceModifier
; Function compile flags: /Ogtpy
;	COMDAT ?NullifyInfluenceModifier@CvBuildingEntry@@QBE_NXZ
_TEXT	SEGMENT
?NullifyInfluenceModifier@CvBuildingEntry@@QBE_NXZ PROC	; CvBuildingEntry::NullifyInfluenceModifier, COMDAT
; _this$ = ecx

; 1688 : 	return m_bNullifyInfluenceModifier;

	mov	al, BYTE PTR [ecx+745]

; 1689 : }

	ret	0
?NullifyInfluenceModifier@CvBuildingEntry@@QBE_NXZ ENDP	; CvBuildingEntry::NullifyInfluenceModifier
_TEXT	ENDS
PUBLIC	?IsCapital@CvBuildingEntry@@QBE_NXZ		; CvBuildingEntry::IsCapital
; Function compile flags: /Ogtpy
;	COMDAT ?IsCapital@CvBuildingEntry@@QBE_NXZ
_TEXT	SEGMENT
?IsCapital@CvBuildingEntry@@QBE_NXZ PROC		; CvBuildingEntry::IsCapital, COMDAT
; _this$ = ecx

; 1694 : 	return m_bCapital;

	mov	al, BYTE PTR [ecx+727]

; 1695 : }

	ret	0
?IsCapital@CvBuildingEntry@@QBE_NXZ ENDP		; CvBuildingEntry::IsCapital
_TEXT	ENDS
PUBLIC	?IsGoldenAge@CvBuildingEntry@@QBE_NXZ		; CvBuildingEntry::IsGoldenAge
; Function compile flags: /Ogtpy
;	COMDAT ?IsGoldenAge@CvBuildingEntry@@QBE_NXZ
_TEXT	SEGMENT
?IsGoldenAge@CvBuildingEntry@@QBE_NXZ PROC		; CvBuildingEntry::IsGoldenAge, COMDAT
; _this$ = ecx

; 1700 : 	return m_bGoldenAge;

	mov	al, BYTE PTR [ecx+728]

; 1701 : }

	ret	0
?IsGoldenAge@CvBuildingEntry@@QBE_NXZ ENDP		; CvBuildingEntry::IsGoldenAge
_TEXT	ENDS
PUBLIC	?IsGrantsFreeCulturalGreatPersonWithTrait@CvBuildingEntry@@QBE_NXZ ; CvBuildingEntry::IsGrantsFreeCulturalGreatPersonWithTrait
; Function compile flags: /Ogtpy
;	COMDAT ?IsGrantsFreeCulturalGreatPersonWithTrait@CvBuildingEntry@@QBE_NXZ
_TEXT	SEGMENT
?IsGrantsFreeCulturalGreatPersonWithTrait@CvBuildingEntry@@QBE_NXZ PROC ; CvBuildingEntry::IsGrantsFreeCulturalGreatPersonWithTrait, COMDAT
; _this$ = ecx

; 1707 : 	return m_bGrantsFreeCulturalGreatPersonWithTrait;

	mov	al, BYTE PTR [ecx+729]

; 1708 : }

	ret	0
?IsGrantsFreeCulturalGreatPersonWithTrait@CvBuildingEntry@@QBE_NXZ ENDP ; CvBuildingEntry::IsGrantsFreeCulturalGreatPersonWithTrait
_TEXT	ENDS
PUBLIC	?IsMapCentering@CvBuildingEntry@@QBE_NXZ	; CvBuildingEntry::IsMapCentering
; Function compile flags: /Ogtpy
;	COMDAT ?IsMapCentering@CvBuildingEntry@@QBE_NXZ
_TEXT	SEGMENT
?IsMapCentering@CvBuildingEntry@@QBE_NXZ PROC		; CvBuildingEntry::IsMapCentering, COMDAT
; _this$ = ecx

; 1714 : 	return m_bMapCentering;

	mov	al, BYTE PTR [ecx+730]

; 1715 : }

	ret	0
?IsMapCentering@CvBuildingEntry@@QBE_NXZ ENDP		; CvBuildingEntry::IsMapCentering
_TEXT	ENDS
PUBLIC	?IsNeverCapture@CvBuildingEntry@@QBE_NXZ	; CvBuildingEntry::IsNeverCapture
; Function compile flags: /Ogtpy
;	COMDAT ?IsNeverCapture@CvBuildingEntry@@QBE_NXZ
_TEXT	SEGMENT
?IsNeverCapture@CvBuildingEntry@@QBE_NXZ PROC		; CvBuildingEntry::IsNeverCapture, COMDAT
; _this$ = ecx

; 1720 : 	return m_bNeverCapture;

	mov	al, BYTE PTR [ecx+731]

; 1721 : }

	ret	0
?IsNeverCapture@CvBuildingEntry@@QBE_NXZ ENDP		; CvBuildingEntry::IsNeverCapture
_TEXT	ENDS
PUBLIC	?IsNukeImmune@CvBuildingEntry@@QBE_NXZ		; CvBuildingEntry::IsNukeImmune
; Function compile flags: /Ogtpy
;	COMDAT ?IsNukeImmune@CvBuildingEntry@@QBE_NXZ
_TEXT	SEGMENT
?IsNukeImmune@CvBuildingEntry@@QBE_NXZ PROC		; CvBuildingEntry::IsNukeImmune, COMDAT
; _this$ = ecx

; 1726 : 	return m_bNukeImmune;

	mov	al, BYTE PTR [ecx+732]

; 1727 : }

	ret	0
?IsNukeImmune@CvBuildingEntry@@QBE_NXZ ENDP		; CvBuildingEntry::IsNukeImmune
_TEXT	ENDS
PUBLIC	?IsExtraLuxuries@CvBuildingEntry@@QBE_NXZ	; CvBuildingEntry::IsExtraLuxuries
; Function compile flags: /Ogtpy
;	COMDAT ?IsExtraLuxuries@CvBuildingEntry@@QBE_NXZ
_TEXT	SEGMENT
?IsExtraLuxuries@CvBuildingEntry@@QBE_NXZ PROC		; CvBuildingEntry::IsExtraLuxuries, COMDAT
; _this$ = ecx

; 1732 : 	return m_bExtraLuxuries;

	mov	al, BYTE PTR [ecx+733]

; 1733 : }

	ret	0
?IsExtraLuxuries@CvBuildingEntry@@QBE_NXZ ENDP		; CvBuildingEntry::IsExtraLuxuries
_TEXT	ENDS
PUBLIC	?IsDiplomaticVoting@CvBuildingEntry@@QBE_NXZ	; CvBuildingEntry::IsDiplomaticVoting
; Function compile flags: /Ogtpy
;	COMDAT ?IsDiplomaticVoting@CvBuildingEntry@@QBE_NXZ
_TEXT	SEGMENT
?IsDiplomaticVoting@CvBuildingEntry@@QBE_NXZ PROC	; CvBuildingEntry::IsDiplomaticVoting, COMDAT
; _this$ = ecx

; 1738 : 	return m_bDiplomaticVoting;

	mov	al, BYTE PTR [ecx+734]

; 1739 : }

	ret	0
?IsDiplomaticVoting@CvBuildingEntry@@QBE_NXZ ENDP	; CvBuildingEntry::IsDiplomaticVoting
_TEXT	ENDS
PUBLIC	?AllowsWaterRoutes@CvBuildingEntry@@QBE_NXZ	; CvBuildingEntry::AllowsWaterRoutes
; Function compile flags: /Ogtpy
;	COMDAT ?AllowsWaterRoutes@CvBuildingEntry@@QBE_NXZ
_TEXT	SEGMENT
?AllowsWaterRoutes@CvBuildingEntry@@QBE_NXZ PROC	; CvBuildingEntry::AllowsWaterRoutes, COMDAT
; _this$ = ecx

; 1744 : 	return m_bAllowsWaterRoutes;

	mov	al, BYTE PTR [ecx+735]

; 1745 : }

	ret	0
?AllowsWaterRoutes@CvBuildingEntry@@QBE_NXZ ENDP	; CvBuildingEntry::AllowsWaterRoutes
_TEXT	ENDS
PUBLIC	?GetArtDefineTag@CvBuildingEntry@@QBEPBDXZ	; CvBuildingEntry::GetArtDefineTag
; Function compile flags: /Ogtpy
;	COMDAT ?GetArtDefineTag@CvBuildingEntry@@QBEPBDXZ
_TEXT	SEGMENT
?GetArtDefineTag@CvBuildingEntry@@QBEPBDXZ PROC		; CvBuildingEntry::GetArtDefineTag, COMDAT
; _this$ = ecx

; 1783 : 	return m_strArtDefineTag.c_str();

	add	ecx, 752				; 000002f0H
	jmp	DWORD PTR __imp_?c_str@?$basic_string@DU?$char_traits@D@std@@V?$allocator@D@2@@std@@QBEPBDXZ
?GetArtDefineTag@CvBuildingEntry@@QBEPBDXZ ENDP		; CvBuildingEntry::GetArtDefineTag
_TEXT	ENDS
PUBLIC	?GetArtInfoCulturalVariation@CvBuildingEntry@@QBE?B_NXZ ; CvBuildingEntry::GetArtInfoCulturalVariation
; Function compile flags: /Ogtpy
;	COMDAT ?GetArtInfoCulturalVariation@CvBuildingEntry@@QBE?B_NXZ
_TEXT	SEGMENT
?GetArtInfoCulturalVariation@CvBuildingEntry@@QBE?B_NXZ PROC ; CvBuildingEntry::GetArtInfoCulturalVariation, COMDAT
; _this$ = ecx

; 1795 : 	return m_bArtInfoCulturalVariation;

	mov	al, BYTE PTR [ecx+746]

; 1796 : }

	ret	0
?GetArtInfoCulturalVariation@CvBuildingEntry@@QBE?B_NXZ ENDP ; CvBuildingEntry::GetArtInfoCulturalVariation
_TEXT	ENDS
PUBLIC	?GetArtInfoEraVariation@CvBuildingEntry@@QBE?B_NXZ ; CvBuildingEntry::GetArtInfoEraVariation
; Function compile flags: /Ogtpy
;	COMDAT ?GetArtInfoEraVariation@CvBuildingEntry@@QBE?B_NXZ
_TEXT	SEGMENT
?GetArtInfoEraVariation@CvBuildingEntry@@QBE?B_NXZ PROC	; CvBuildingEntry::GetArtInfoEraVariation, COMDAT
; _this$ = ecx

; 1801 : 	return m_bArtInfoEraVariation;

	mov	al, BYTE PTR [ecx+747]

; 1802 : }

	ret	0
?GetArtInfoEraVariation@CvBuildingEntry@@QBE?B_NXZ ENDP	; CvBuildingEntry::GetArtInfoEraVariation
_TEXT	ENDS
PUBLIC	?GetArtInfoRandomVariation@CvBuildingEntry@@QBE?B_NXZ ; CvBuildingEntry::GetArtInfoRandomVariation
; Function compile flags: /Ogtpy
;	COMDAT ?GetArtInfoRandomVariation@CvBuildingEntry@@QBE?B_NXZ
_TEXT	SEGMENT
?GetArtInfoRandomVariation@CvBuildingEntry@@QBE?B_NXZ PROC ; CvBuildingEntry::GetArtInfoRandomVariation, COMDAT
; _this$ = ecx

; 1807 : 	return m_bArtInfoRandomVariation;

	mov	al, BYTE PTR [ecx+748]

; 1808 : }

	ret	0
?GetArtInfoRandomVariation@CvBuildingEntry@@QBE?B_NXZ ENDP ; CvBuildingEntry::GetArtInfoRandomVariation
_TEXT	ENDS
PUBLIC	?GetWonderSplashAudio@CvBuildingEntry@@QBEPBDXZ	; CvBuildingEntry::GetWonderSplashAudio
; Function compile flags: /Ogtpy
;	COMDAT ?GetWonderSplashAudio@CvBuildingEntry@@QBEPBDXZ
_TEXT	SEGMENT
?GetWonderSplashAudio@CvBuildingEntry@@QBEPBDXZ PROC	; CvBuildingEntry::GetWonderSplashAudio, COMDAT
; _this$ = ecx

; 1812 : 	return m_strWonderSplashAudio.c_str();

	add	ecx, 780				; 0000030cH
	jmp	DWORD PTR __imp_?c_str@?$basic_string@DU?$char_traits@D@std@@V?$allocator@D@2@@std@@QBEPBDXZ
?GetWonderSplashAudio@CvBuildingEntry@@QBEPBDXZ ENDP	; CvBuildingEntry::GetWonderSplashAudio
_TEXT	ENDS
PUBLIC	?GetYieldChange@CvBuildingEntry@@QBEHH@Z	; CvBuildingEntry::GetYieldChange
; Function compile flags: /Ogtpy
;	COMDAT ?GetYieldChange@CvBuildingEntry@@QBEHH@Z
_TEXT	SEGMENT
_i$ = 8							; size = 4
?GetYieldChange@CvBuildingEntry@@QBEHH@Z PROC		; CvBuildingEntry::GetYieldChange, COMDAT
; _this$ = ecx

; 1825 : 	CvAssertMsg(i < NUM_YIELD_TYPES, "Index out of bounds");
; 1826 : 	CvAssertMsg(i > -1, "Index out of bounds");
; 1827 : 	return m_piYieldChange ? m_piYieldChange[i] : -1;

	mov	eax, DWORD PTR [ecx+880]
	test	eax, eax
	je	SHORT $LN3@GetYieldCh
	mov	ecx, DWORD PTR _i$[esp-4]
	mov	eax, DWORD PTR [eax+ecx*4]

; 1828 : }

	ret	4
$LN3@GetYieldCh:

; 1825 : 	CvAssertMsg(i < NUM_YIELD_TYPES, "Index out of bounds");
; 1826 : 	CvAssertMsg(i > -1, "Index out of bounds");
; 1827 : 	return m_piYieldChange ? m_piYieldChange[i] : -1;

	or	eax, -1

; 1828 : }

	ret	4
?GetYieldChange@CvBuildingEntry@@QBEHH@Z ENDP		; CvBuildingEntry::GetYieldChange
_TEXT	ENDS
PUBLIC	?GetYieldChangeArray@CvBuildingEntry@@QBEPAHXZ	; CvBuildingEntry::GetYieldChangeArray
; Function compile flags: /Ogtpy
;	COMDAT ?GetYieldChangeArray@CvBuildingEntry@@QBEPAHXZ
_TEXT	SEGMENT
?GetYieldChangeArray@CvBuildingEntry@@QBEPAHXZ PROC	; CvBuildingEntry::GetYieldChangeArray, COMDAT
; _this$ = ecx

; 1833 : 	return m_piYieldChange;

	mov	eax, DWORD PTR [ecx+880]

; 1834 : }

	ret	0
?GetYieldChangeArray@CvBuildingEntry@@QBEPAHXZ ENDP	; CvBuildingEntry::GetYieldChangeArray
_TEXT	ENDS
PUBLIC	?GetYieldChangePerPop@CvBuildingEntry@@QBEHH@Z	; CvBuildingEntry::GetYieldChangePerPop
; Function compile flags: /Ogtpy
;	COMDAT ?GetYieldChangePerPop@CvBuildingEntry@@QBEHH@Z
_TEXT	SEGMENT
_i$ = 8							; size = 4
?GetYieldChangePerPop@CvBuildingEntry@@QBEHH@Z PROC	; CvBuildingEntry::GetYieldChangePerPop, COMDAT
; _this$ = ecx

; 1839 : 	CvAssertMsg(i < NUM_YIELD_TYPES, "Index out of bounds");
; 1840 : 	CvAssertMsg(i > -1, "Index out of bounds");
; 1841 : 	return m_piYieldChangePerPop ? m_piYieldChangePerPop[i] : -1;

	mov	eax, DWORD PTR [ecx+884]
	test	eax, eax
	je	SHORT $LN3@GetYieldCh@2
	mov	ecx, DWORD PTR _i$[esp-4]
	mov	eax, DWORD PTR [eax+ecx*4]

; 1842 : }

	ret	4
$LN3@GetYieldCh@2:

; 1839 : 	CvAssertMsg(i < NUM_YIELD_TYPES, "Index out of bounds");
; 1840 : 	CvAssertMsg(i > -1, "Index out of bounds");
; 1841 : 	return m_piYieldChangePerPop ? m_piYieldChangePerPop[i] : -1;

	or	eax, -1

; 1842 : }

	ret	4
?GetYieldChangePerPop@CvBuildingEntry@@QBEHH@Z ENDP	; CvBuildingEntry::GetYieldChangePerPop
_TEXT	ENDS
PUBLIC	?GetYieldChangePerPopArray@CvBuildingEntry@@QBEPAHXZ ; CvBuildingEntry::GetYieldChangePerPopArray
; Function compile flags: /Ogtpy
;	COMDAT ?GetYieldChangePerPopArray@CvBuildingEntry@@QBEPAHXZ
_TEXT	SEGMENT
?GetYieldChangePerPopArray@CvBuildingEntry@@QBEPAHXZ PROC ; CvBuildingEntry::GetYieldChangePerPopArray, COMDAT
; _this$ = ecx

; 1847 : 	return m_piYieldChangePerPop;

	mov	eax, DWORD PTR [ecx+884]

; 1848 : }

	ret	0
?GetYieldChangePerPopArray@CvBuildingEntry@@QBEPAHXZ ENDP ; CvBuildingEntry::GetYieldChangePerPopArray
_TEXT	ENDS
PUBLIC	?GetYieldChangePerReligion@CvBuildingEntry@@QBEHH@Z ; CvBuildingEntry::GetYieldChangePerReligion
; Function compile flags: /Ogtpy
;	COMDAT ?GetYieldChangePerReligion@CvBuildingEntry@@QBEHH@Z
_TEXT	SEGMENT
_i$ = 8							; size = 4
?GetYieldChangePerReligion@CvBuildingEntry@@QBEHH@Z PROC ; CvBuildingEntry::GetYieldChangePerReligion, COMDAT
; _this$ = ecx

; 1853 : 	CvAssertMsg(i < NUM_YIELD_TYPES, "Index out of bounds");
; 1854 : 	CvAssertMsg(i > -1, "Index out of bounds");
; 1855 : 	return m_piYieldChangePerReligion ? m_piYieldChangePerReligion[i] : -1;

	mov	eax, DWORD PTR [ecx+888]
	test	eax, eax
	je	SHORT $LN3@GetYieldCh@3
	mov	ecx, DWORD PTR _i$[esp-4]
	mov	eax, DWORD PTR [eax+ecx*4]

; 1856 : }

	ret	4
$LN3@GetYieldCh@3:

; 1853 : 	CvAssertMsg(i < NUM_YIELD_TYPES, "Index out of bounds");
; 1854 : 	CvAssertMsg(i > -1, "Index out of bounds");
; 1855 : 	return m_piYieldChangePerReligion ? m_piYieldChangePerReligion[i] : -1;

	or	eax, -1

; 1856 : }

	ret	4
?GetYieldChangePerReligion@CvBuildingEntry@@QBEHH@Z ENDP ; CvBuildingEntry::GetYieldChangePerReligion
_TEXT	ENDS
PUBLIC	?GetYieldChangePerReligionArray@CvBuildingEntry@@QBEPAHXZ ; CvBuildingEntry::GetYieldChangePerReligionArray
; Function compile flags: /Ogtpy
;	COMDAT ?GetYieldChangePerReligionArray@CvBuildingEntry@@QBEPAHXZ
_TEXT	SEGMENT
?GetYieldChangePerReligionArray@CvBuildingEntry@@QBEPAHXZ PROC ; CvBuildingEntry::GetYieldChangePerReligionArray, COMDAT
; _this$ = ecx

; 1861 : 	return m_piYieldChangePerReligion;

	mov	eax, DWORD PTR [ecx+888]

; 1862 : }

	ret	0
?GetYieldChangePerReligionArray@CvBuildingEntry@@QBEPAHXZ ENDP ; CvBuildingEntry::GetYieldChangePerReligionArray
_TEXT	ENDS
PUBLIC	?GetYieldModifier@CvBuildingEntry@@QBEHH@Z	; CvBuildingEntry::GetYieldModifier
; Function compile flags: /Ogtpy
;	COMDAT ?GetYieldModifier@CvBuildingEntry@@QBEHH@Z
_TEXT	SEGMENT
_i$ = 8							; size = 4
?GetYieldModifier@CvBuildingEntry@@QBEHH@Z PROC		; CvBuildingEntry::GetYieldModifier, COMDAT
; _this$ = ecx

; 1867 : 	CvAssertMsg(i < NUM_YIELD_TYPES, "Index out of bounds");
; 1868 : 	CvAssertMsg(i > -1, "Index out of bounds");
; 1869 : 	return m_piYieldModifier ? m_piYieldModifier[i] : -1;

	mov	eax, DWORD PTR [ecx+892]
	test	eax, eax
	je	SHORT $LN3@GetYieldMo
	mov	ecx, DWORD PTR _i$[esp-4]
	mov	eax, DWORD PTR [eax+ecx*4]

; 1870 : }

	ret	4
$LN3@GetYieldMo:

; 1867 : 	CvAssertMsg(i < NUM_YIELD_TYPES, "Index out of bounds");
; 1868 : 	CvAssertMsg(i > -1, "Index out of bounds");
; 1869 : 	return m_piYieldModifier ? m_piYieldModifier[i] : -1;

	or	eax, -1

; 1870 : }

	ret	4
?GetYieldModifier@CvBuildingEntry@@QBEHH@Z ENDP		; CvBuildingEntry::GetYieldModifier
_TEXT	ENDS
PUBLIC	?GetYieldModifierArray@CvBuildingEntry@@QBEPAHXZ ; CvBuildingEntry::GetYieldModifierArray
; Function compile flags: /Ogtpy
;	COMDAT ?GetYieldModifierArray@CvBuildingEntry@@QBEPAHXZ
_TEXT	SEGMENT
?GetYieldModifierArray@CvBuildingEntry@@QBEPAHXZ PROC	; CvBuildingEntry::GetYieldModifierArray, COMDAT
; _this$ = ecx

; 1875 : 	return m_piYieldModifier;

	mov	eax, DWORD PTR [ecx+892]

; 1876 : }

	ret	0
?GetYieldModifierArray@CvBuildingEntry@@QBEPAHXZ ENDP	; CvBuildingEntry::GetYieldModifierArray
_TEXT	ENDS
PUBLIC	?GetAreaYieldModifier@CvBuildingEntry@@QBEHH@Z	; CvBuildingEntry::GetAreaYieldModifier
; Function compile flags: /Ogtpy
;	COMDAT ?GetAreaYieldModifier@CvBuildingEntry@@QBEHH@Z
_TEXT	SEGMENT
_i$ = 8							; size = 4
?GetAreaYieldModifier@CvBuildingEntry@@QBEHH@Z PROC	; CvBuildingEntry::GetAreaYieldModifier, COMDAT
; _this$ = ecx

; 1881 : 	CvAssertMsg(i < NUM_YIELD_TYPES, "Index out of bounds");
; 1882 : 	CvAssertMsg(i > -1, "Index out of bounds");
; 1883 : 	return m_piAreaYieldModifier ? m_piAreaYieldModifier[i] : -1;

	mov	eax, DWORD PTR [ecx+896]
	test	eax, eax
	je	SHORT $LN3@GetAreaYie
	mov	ecx, DWORD PTR _i$[esp-4]
	mov	eax, DWORD PTR [eax+ecx*4]

; 1884 : }

	ret	4
$LN3@GetAreaYie:

; 1881 : 	CvAssertMsg(i < NUM_YIELD_TYPES, "Index out of bounds");
; 1882 : 	CvAssertMsg(i > -1, "Index out of bounds");
; 1883 : 	return m_piAreaYieldModifier ? m_piAreaYieldModifier[i] : -1;

	or	eax, -1

; 1884 : }

	ret	4
?GetAreaYieldModifier@CvBuildingEntry@@QBEHH@Z ENDP	; CvBuildingEntry::GetAreaYieldModifier
_TEXT	ENDS
PUBLIC	?GetAreaYieldModifierArray@CvBuildingEntry@@QBEPAHXZ ; CvBuildingEntry::GetAreaYieldModifierArray
; Function compile flags: /Ogtpy
;	COMDAT ?GetAreaYieldModifierArray@CvBuildingEntry@@QBEPAHXZ
_TEXT	SEGMENT
?GetAreaYieldModifierArray@CvBuildingEntry@@QBEPAHXZ PROC ; CvBuildingEntry::GetAreaYieldModifierArray, COMDAT
; _this$ = ecx

; 1889 : 	return m_piAreaYieldModifier;

	mov	eax, DWORD PTR [ecx+896]

; 1890 : }

	ret	0
?GetAreaYieldModifierArray@CvBuildingEntry@@QBEPAHXZ ENDP ; CvBuildingEntry::GetAreaYieldModifierArray
_TEXT	ENDS
PUBLIC	?GetGlobalYieldModifier@CvBuildingEntry@@QBEHH@Z ; CvBuildingEntry::GetGlobalYieldModifier
; Function compile flags: /Ogtpy
;	COMDAT ?GetGlobalYieldModifier@CvBuildingEntry@@QBEHH@Z
_TEXT	SEGMENT
_i$ = 8							; size = 4
?GetGlobalYieldModifier@CvBuildingEntry@@QBEHH@Z PROC	; CvBuildingEntry::GetGlobalYieldModifier, COMDAT
; _this$ = ecx

; 1895 : 	CvAssertMsg(i < NUM_YIELD_TYPES, "Index out of bounds");
; 1896 : 	CvAssertMsg(i > -1, "Index out of bounds");
; 1897 : 	return m_piGlobalYieldModifier ? m_piGlobalYieldModifier[i] : -1;

	mov	eax, DWORD PTR [ecx+900]
	test	eax, eax
	je	SHORT $LN3@GetGlobalY
	mov	ecx, DWORD PTR _i$[esp-4]
	mov	eax, DWORD PTR [eax+ecx*4]

; 1898 : }

	ret	4
$LN3@GetGlobalY:

; 1895 : 	CvAssertMsg(i < NUM_YIELD_TYPES, "Index out of bounds");
; 1896 : 	CvAssertMsg(i > -1, "Index out of bounds");
; 1897 : 	return m_piGlobalYieldModifier ? m_piGlobalYieldModifier[i] : -1;

	or	eax, -1

; 1898 : }

	ret	4
?GetGlobalYieldModifier@CvBuildingEntry@@QBEHH@Z ENDP	; CvBuildingEntry::GetGlobalYieldModifier
_TEXT	ENDS
PUBLIC	?GetGlobalYieldModifierArray@CvBuildingEntry@@QBEPAHXZ ; CvBuildingEntry::GetGlobalYieldModifierArray
; Function compile flags: /Ogtpy
;	COMDAT ?GetGlobalYieldModifierArray@CvBuildingEntry@@QBEPAHXZ
_TEXT	SEGMENT
?GetGlobalYieldModifierArray@CvBuildingEntry@@QBEPAHXZ PROC ; CvBuildingEntry::GetGlobalYieldModifierArray, COMDAT
; _this$ = ecx

; 1903 : 	return m_piGlobalYieldModifier;

	mov	eax, DWORD PTR [ecx+900]

; 1904 : }

	ret	0
?GetGlobalYieldModifierArray@CvBuildingEntry@@QBEPAHXZ ENDP ; CvBuildingEntry::GetGlobalYieldModifierArray
_TEXT	ENDS
PUBLIC	?GetTechEnhancedYieldChange@CvBuildingEntry@@QBEHH@Z ; CvBuildingEntry::GetTechEnhancedYieldChange
; Function compile flags: /Ogtpy
;	COMDAT ?GetTechEnhancedYieldChange@CvBuildingEntry@@QBEHH@Z
_TEXT	SEGMENT
_i$ = 8							; size = 4
?GetTechEnhancedYieldChange@CvBuildingEntry@@QBEHH@Z PROC ; CvBuildingEntry::GetTechEnhancedYieldChange, COMDAT
; _this$ = ecx

; 1909 : 	CvAssertMsg(i < NUM_YIELD_TYPES, "Index out of bounds");
; 1910 : 	CvAssertMsg(i > -1, "Index out of bounds");
; 1911 : 	return m_piTechEnhancedYieldChange ? m_piTechEnhancedYieldChange[i] : -1;

	mov	eax, DWORD PTR [ecx+904]
	test	eax, eax
	je	SHORT $LN3@GetTechEnh
	mov	ecx, DWORD PTR _i$[esp-4]
	mov	eax, DWORD PTR [eax+ecx*4]

; 1912 : }

	ret	4
$LN3@GetTechEnh:

; 1909 : 	CvAssertMsg(i < NUM_YIELD_TYPES, "Index out of bounds");
; 1910 : 	CvAssertMsg(i > -1, "Index out of bounds");
; 1911 : 	return m_piTechEnhancedYieldChange ? m_piTechEnhancedYieldChange[i] : -1;

	or	eax, -1

; 1912 : }

	ret	4
?GetTechEnhancedYieldChange@CvBuildingEntry@@QBEHH@Z ENDP ; CvBuildingEntry::GetTechEnhancedYieldChange
_TEXT	ENDS
PUBLIC	?GetTechEnhancedYieldChangeArray@CvBuildingEntry@@QBEPAHXZ ; CvBuildingEntry::GetTechEnhancedYieldChangeArray
; Function compile flags: /Ogtpy
;	COMDAT ?GetTechEnhancedYieldChangeArray@CvBuildingEntry@@QBEPAHXZ
_TEXT	SEGMENT
?GetTechEnhancedYieldChangeArray@CvBuildingEntry@@QBEPAHXZ PROC ; CvBuildingEntry::GetTechEnhancedYieldChangeArray, COMDAT
; _this$ = ecx

; 1917 : 	return m_piTechEnhancedYieldChange;

	mov	eax, DWORD PTR [ecx+904]

; 1918 : }

	ret	0
?GetTechEnhancedYieldChangeArray@CvBuildingEntry@@QBEPAHXZ ENDP ; CvBuildingEntry::GetTechEnhancedYieldChangeArray
_TEXT	ENDS
PUBLIC	?GetSeaPlotYieldChange@CvBuildingEntry@@QBEHH@Z	; CvBuildingEntry::GetSeaPlotYieldChange
; Function compile flags: /Ogtpy
;	COMDAT ?GetSeaPlotYieldChange@CvBuildingEntry@@QBEHH@Z
_TEXT	SEGMENT
_i$ = 8							; size = 4
?GetSeaPlotYieldChange@CvBuildingEntry@@QBEHH@Z PROC	; CvBuildingEntry::GetSeaPlotYieldChange, COMDAT
; _this$ = ecx

; 1923 : 	CvAssertMsg(i < NUM_YIELD_TYPES, "Index out of bounds");
; 1924 : 	CvAssertMsg(i > -1, "Index out of bounds");
; 1925 : 	return m_piSeaPlotYieldChange ? m_piSeaPlotYieldChange[i] : -1;

	mov	eax, DWORD PTR [ecx+864]
	test	eax, eax
	je	SHORT $LN3@GetSeaPlot
	mov	ecx, DWORD PTR _i$[esp-4]
	mov	eax, DWORD PTR [eax+ecx*4]

; 1926 : }

	ret	4
$LN3@GetSeaPlot:

; 1923 : 	CvAssertMsg(i < NUM_YIELD_TYPES, "Index out of bounds");
; 1924 : 	CvAssertMsg(i > -1, "Index out of bounds");
; 1925 : 	return m_piSeaPlotYieldChange ? m_piSeaPlotYieldChange[i] : -1;

	or	eax, -1

; 1926 : }

	ret	4
?GetSeaPlotYieldChange@CvBuildingEntry@@QBEHH@Z ENDP	; CvBuildingEntry::GetSeaPlotYieldChange
_TEXT	ENDS
PUBLIC	?GetSeaPlotYieldChangeArray@CvBuildingEntry@@QBEPAHXZ ; CvBuildingEntry::GetSeaPlotYieldChangeArray
; Function compile flags: /Ogtpy
;	COMDAT ?GetSeaPlotYieldChangeArray@CvBuildingEntry@@QBEPAHXZ
_TEXT	SEGMENT
?GetSeaPlotYieldChangeArray@CvBuildingEntry@@QBEPAHXZ PROC ; CvBuildingEntry::GetSeaPlotYieldChangeArray, COMDAT
; _this$ = ecx

; 1931 : 	return m_piSeaPlotYieldChange;

	mov	eax, DWORD PTR [ecx+864]

; 1932 : }

	ret	0
?GetSeaPlotYieldChangeArray@CvBuildingEntry@@QBEPAHXZ ENDP ; CvBuildingEntry::GetSeaPlotYieldChangeArray
_TEXT	ENDS
PUBLIC	?GetRiverPlotYieldChange@CvBuildingEntry@@QBEHH@Z ; CvBuildingEntry::GetRiverPlotYieldChange
; Function compile flags: /Ogtpy
;	COMDAT ?GetRiverPlotYieldChange@CvBuildingEntry@@QBEHH@Z
_TEXT	SEGMENT
_i$ = 8							; size = 4
?GetRiverPlotYieldChange@CvBuildingEntry@@QBEHH@Z PROC	; CvBuildingEntry::GetRiverPlotYieldChange, COMDAT
; _this$ = ecx

; 1937 : 	CvAssertMsg(i < NUM_YIELD_TYPES, "Index out of bounds");
; 1938 : 	CvAssertMsg(i > -1, "Index out of bounds");
; 1939 : 	return m_piRiverPlotYieldChange ? m_piRiverPlotYieldChange[i] : -1;

	mov	eax, DWORD PTR [ecx+868]
	test	eax, eax
	je	SHORT $LN3@GetRiverPl
	mov	ecx, DWORD PTR _i$[esp-4]
	mov	eax, DWORD PTR [eax+ecx*4]

; 1940 : }

	ret	4
$LN3@GetRiverPl:

; 1937 : 	CvAssertMsg(i < NUM_YIELD_TYPES, "Index out of bounds");
; 1938 : 	CvAssertMsg(i > -1, "Index out of bounds");
; 1939 : 	return m_piRiverPlotYieldChange ? m_piRiverPlotYieldChange[i] : -1;

	or	eax, -1

; 1940 : }

	ret	4
?GetRiverPlotYieldChange@CvBuildingEntry@@QBEHH@Z ENDP	; CvBuildingEntry::GetRiverPlotYieldChange
_TEXT	ENDS
PUBLIC	?GetRiverPlotYieldChangeArray@CvBuildingEntry@@QBEPAHXZ ; CvBuildingEntry::GetRiverPlotYieldChangeArray
; Function compile flags: /Ogtpy
;	COMDAT ?GetRiverPlotYieldChangeArray@CvBuildingEntry@@QBEPAHXZ
_TEXT	SEGMENT
?GetRiverPlotYieldChangeArray@CvBuildingEntry@@QBEPAHXZ PROC ; CvBuildingEntry::GetRiverPlotYieldChangeArray, COMDAT
; _this$ = ecx

; 1945 : 	return m_piRiverPlotYieldChange;

	mov	eax, DWORD PTR [ecx+868]

; 1946 : }

	ret	0
?GetRiverPlotYieldChangeArray@CvBuildingEntry@@QBEPAHXZ ENDP ; CvBuildingEntry::GetRiverPlotYieldChangeArray
_TEXT	ENDS
PUBLIC	?GetLakePlotYieldChange@CvBuildingEntry@@QBEHH@Z ; CvBuildingEntry::GetLakePlotYieldChange
; Function compile flags: /Ogtpy
;	COMDAT ?GetLakePlotYieldChange@CvBuildingEntry@@QBEHH@Z
_TEXT	SEGMENT
_i$ = 8							; size = 4
?GetLakePlotYieldChange@CvBuildingEntry@@QBEHH@Z PROC	; CvBuildingEntry::GetLakePlotYieldChange, COMDAT
; _this$ = ecx

; 1951 : 	CvAssertMsg(i < NUM_YIELD_TYPES, "Index out of bounds");
; 1952 : 	CvAssertMsg(i > -1, "Index out of bounds");
; 1953 : 	return m_piLakePlotYieldChange ? m_piLakePlotYieldChange[i] : -1;

	mov	eax, DWORD PTR [ecx+872]
	test	eax, eax
	je	SHORT $LN3@GetLakePlo
	mov	ecx, DWORD PTR _i$[esp-4]
	mov	eax, DWORD PTR [eax+ecx*4]

; 1954 : }

	ret	4
$LN3@GetLakePlo:

; 1951 : 	CvAssertMsg(i < NUM_YIELD_TYPES, "Index out of bounds");
; 1952 : 	CvAssertMsg(i > -1, "Index out of bounds");
; 1953 : 	return m_piLakePlotYieldChange ? m_piLakePlotYieldChange[i] : -1;

	or	eax, -1

; 1954 : }

	ret	4
?GetLakePlotYieldChange@CvBuildingEntry@@QBEHH@Z ENDP	; CvBuildingEntry::GetLakePlotYieldChange
_TEXT	ENDS
PUBLIC	?GetLakePlotYieldChangeArray@CvBuildingEntry@@QBEPAHXZ ; CvBuildingEntry::GetLakePlotYieldChangeArray
; Function compile flags: /Ogtpy
;	COMDAT ?GetLakePlotYieldChangeArray@CvBuildingEntry@@QBEPAHXZ
_TEXT	SEGMENT
?GetLakePlotYieldChangeArray@CvBuildingEntry@@QBEPAHXZ PROC ; CvBuildingEntry::GetLakePlotYieldChangeArray, COMDAT
; _this$ = ecx

; 1959 : 	return m_piLakePlotYieldChange;

	mov	eax, DWORD PTR [ecx+872]

; 1960 : }

	ret	0
?GetLakePlotYieldChangeArray@CvBuildingEntry@@QBEPAHXZ ENDP ; CvBuildingEntry::GetLakePlotYieldChangeArray
_TEXT	ENDS
PUBLIC	?GetSeaResourceYieldChange@CvBuildingEntry@@QBEHH@Z ; CvBuildingEntry::GetSeaResourceYieldChange
; Function compile flags: /Ogtpy
;	COMDAT ?GetSeaResourceYieldChange@CvBuildingEntry@@QBEHH@Z
_TEXT	SEGMENT
_i$ = 8							; size = 4
?GetSeaResourceYieldChange@CvBuildingEntry@@QBEHH@Z PROC ; CvBuildingEntry::GetSeaResourceYieldChange, COMDAT
; _this$ = ecx

; 1965 : 	CvAssertMsg(i < NUM_YIELD_TYPES, "Index out of bounds");
; 1966 : 	CvAssertMsg(i > -1, "Index out of bounds");
; 1967 : 	return m_piSeaResourceYieldChange ? m_piSeaResourceYieldChange[i] : -1;

	mov	eax, DWORD PTR [ecx+876]
	test	eax, eax
	je	SHORT $LN3@GetSeaReso
	mov	ecx, DWORD PTR _i$[esp-4]
	mov	eax, DWORD PTR [eax+ecx*4]

; 1968 : }

	ret	4
$LN3@GetSeaReso:

; 1965 : 	CvAssertMsg(i < NUM_YIELD_TYPES, "Index out of bounds");
; 1966 : 	CvAssertMsg(i > -1, "Index out of bounds");
; 1967 : 	return m_piSeaResourceYieldChange ? m_piSeaResourceYieldChange[i] : -1;

	or	eax, -1

; 1968 : }

	ret	4
?GetSeaResourceYieldChange@CvBuildingEntry@@QBEHH@Z ENDP ; CvBuildingEntry::GetSeaResourceYieldChange
_TEXT	ENDS
PUBLIC	?GetSeaResourceYieldChangeArray@CvBuildingEntry@@QBEPAHXZ ; CvBuildingEntry::GetSeaResourceYieldChangeArray
; Function compile flags: /Ogtpy
;	COMDAT ?GetSeaResourceYieldChangeArray@CvBuildingEntry@@QBEPAHXZ
_TEXT	SEGMENT
?GetSeaResourceYieldChangeArray@CvBuildingEntry@@QBEPAHXZ PROC ; CvBuildingEntry::GetSeaResourceYieldChangeArray, COMDAT
; _this$ = ecx

; 1973 : 	return m_piSeaResourceYieldChange;

	mov	eax, DWORD PTR [ecx+876]

; 1974 : }

	ret	0
?GetSeaResourceYieldChangeArray@CvBuildingEntry@@QBEPAHXZ ENDP ; CvBuildingEntry::GetSeaResourceYieldChangeArray
_TEXT	ENDS
PUBLIC	?GetUnitCombatFreeExperience@CvBuildingEntry@@QBEHH@Z ; CvBuildingEntry::GetUnitCombatFreeExperience
; Function compile flags: /Ogtpy
;	COMDAT ?GetUnitCombatFreeExperience@CvBuildingEntry@@QBEHH@Z
_TEXT	SEGMENT
_i$ = 8							; size = 4
?GetUnitCombatFreeExperience@CvBuildingEntry@@QBEHH@Z PROC ; CvBuildingEntry::GetUnitCombatFreeExperience, COMDAT
; _this$ = ecx

; 1979 : 	CvAssertMsg(i < GC.getNumUnitCombatClassInfos(), "Index out of bounds");
; 1980 : 	CvAssertMsg(i > -1, "Index out of bounds");
; 1981 : 	return m_piUnitCombatFreeExperience ? m_piUnitCombatFreeExperience[i] : -1;

	mov	eax, DWORD PTR [ecx+908]
	test	eax, eax
	je	SHORT $LN3@GetUnitCom
	mov	ecx, DWORD PTR _i$[esp-4]
	mov	eax, DWORD PTR [eax+ecx*4]

; 1982 : }

	ret	4
$LN3@GetUnitCom:

; 1979 : 	CvAssertMsg(i < GC.getNumUnitCombatClassInfos(), "Index out of bounds");
; 1980 : 	CvAssertMsg(i > -1, "Index out of bounds");
; 1981 : 	return m_piUnitCombatFreeExperience ? m_piUnitCombatFreeExperience[i] : -1;

	or	eax, -1

; 1982 : }

	ret	4
?GetUnitCombatFreeExperience@CvBuildingEntry@@QBEHH@Z ENDP ; CvBuildingEntry::GetUnitCombatFreeExperience
_TEXT	ENDS
PUBLIC	?GetUnitCombatProductionModifier@CvBuildingEntry@@QBEHH@Z ; CvBuildingEntry::GetUnitCombatProductionModifier
; Function compile flags: /Ogtpy
;	COMDAT ?GetUnitCombatProductionModifier@CvBuildingEntry@@QBEHH@Z
_TEXT	SEGMENT
_i$ = 8							; size = 4
?GetUnitCombatProductionModifier@CvBuildingEntry@@QBEHH@Z PROC ; CvBuildingEntry::GetUnitCombatProductionModifier, COMDAT
; _this$ = ecx

; 1987 : 	CvAssertMsg(i < GC.getNumUnitCombatClassInfos(), "Index out of bounds");
; 1988 : 	CvAssertMsg(i > -1, "Index out of bounds");
; 1989 : 	return m_piUnitCombatProductionModifiers ? m_piUnitCombatProductionModifiers[i] : -1;

	mov	eax, DWORD PTR [ecx+912]
	test	eax, eax
	je	SHORT $LN3@GetUnitCom@2
	mov	ecx, DWORD PTR _i$[esp-4]
	mov	eax, DWORD PTR [eax+ecx*4]

; 1990 : }

	ret	4
$LN3@GetUnitCom@2:

; 1987 : 	CvAssertMsg(i < GC.getNumUnitCombatClassInfos(), "Index out of bounds");
; 1988 : 	CvAssertMsg(i > -1, "Index out of bounds");
; 1989 : 	return m_piUnitCombatProductionModifiers ? m_piUnitCombatProductionModifiers[i] : -1;

	or	eax, -1

; 1990 : }

	ret	4
?GetUnitCombatProductionModifier@CvBuildingEntry@@QBEHH@Z ENDP ; CvBuildingEntry::GetUnitCombatProductionModifier
_TEXT	ENDS
PUBLIC	?GetDomainFreeExperience@CvBuildingEntry@@QBEHH@Z ; CvBuildingEntry::GetDomainFreeExperience
; Function compile flags: /Ogtpy
;	COMDAT ?GetDomainFreeExperience@CvBuildingEntry@@QBEHH@Z
_TEXT	SEGMENT
_i$ = 8							; size = 4
?GetDomainFreeExperience@CvBuildingEntry@@QBEHH@Z PROC	; CvBuildingEntry::GetDomainFreeExperience, COMDAT
; _this$ = ecx

; 1995 : 	CvAssertMsg(i < NUM_DOMAIN_TYPES, "Index out of bounds");
; 1996 : 	CvAssertMsg(i > -1, "Index out of bounds");
; 1997 : 	return m_piDomainFreeExperience ? m_piDomainFreeExperience[i] : -1;

	mov	eax, DWORD PTR [ecx+916]
	test	eax, eax
	je	SHORT $LN3@GetDomainF
	mov	ecx, DWORD PTR _i$[esp-4]
	mov	eax, DWORD PTR [eax+ecx*4]

; 1998 : }

	ret	4
$LN3@GetDomainF:

; 1995 : 	CvAssertMsg(i < NUM_DOMAIN_TYPES, "Index out of bounds");
; 1996 : 	CvAssertMsg(i > -1, "Index out of bounds");
; 1997 : 	return m_piDomainFreeExperience ? m_piDomainFreeExperience[i] : -1;

	or	eax, -1

; 1998 : }

	ret	4
?GetDomainFreeExperience@CvBuildingEntry@@QBEHH@Z ENDP	; CvBuildingEntry::GetDomainFreeExperience
_TEXT	ENDS
PUBLIC	?GetDomainFreeExperiencePerGreatWork@CvBuildingEntry@@QBEHH@Z ; CvBuildingEntry::GetDomainFreeExperiencePerGreatWork
; Function compile flags: /Ogtpy
;	COMDAT ?GetDomainFreeExperiencePerGreatWork@CvBuildingEntry@@QBEHH@Z
_TEXT	SEGMENT
_i$ = 8							; size = 4
?GetDomainFreeExperiencePerGreatWork@CvBuildingEntry@@QBEHH@Z PROC ; CvBuildingEntry::GetDomainFreeExperiencePerGreatWork, COMDAT
; _this$ = ecx

; 2003 : 	CvAssertMsg(i < NUM_DOMAIN_TYPES, "Index out of bounds");
; 2004 : 	CvAssertMsg(i > -1, "Index out of bounds");
; 2005 : 	return m_piDomainFreeExperiencePerGreatWork ? m_piDomainFreeExperiencePerGreatWork[i] : -1;

	mov	eax, DWORD PTR [ecx+920]
	test	eax, eax
	je	SHORT $LN3@GetDomainF@2
	mov	ecx, DWORD PTR _i$[esp-4]
	mov	eax, DWORD PTR [eax+ecx*4]

; 2006 : }

	ret	4
$LN3@GetDomainF@2:

; 2003 : 	CvAssertMsg(i < NUM_DOMAIN_TYPES, "Index out of bounds");
; 2004 : 	CvAssertMsg(i > -1, "Index out of bounds");
; 2005 : 	return m_piDomainFreeExperiencePerGreatWork ? m_piDomainFreeExperiencePerGreatWork[i] : -1;

	or	eax, -1

; 2006 : }

	ret	4
?GetDomainFreeExperiencePerGreatWork@CvBuildingEntry@@QBEHH@Z ENDP ; CvBuildingEntry::GetDomainFreeExperiencePerGreatWork
_TEXT	ENDS
PUBLIC	?GetDomainProductionModifier@CvBuildingEntry@@QBEHH@Z ; CvBuildingEntry::GetDomainProductionModifier
; Function compile flags: /Ogtpy
;	COMDAT ?GetDomainProductionModifier@CvBuildingEntry@@QBEHH@Z
_TEXT	SEGMENT
_i$ = 8							; size = 4
?GetDomainProductionModifier@CvBuildingEntry@@QBEHH@Z PROC ; CvBuildingEntry::GetDomainProductionModifier, COMDAT
; _this$ = ecx

; 2011 : 	CvAssertMsg(i < NUM_DOMAIN_TYPES, "Index out of bounds");
; 2012 : 	CvAssertMsg(i > -1, "Index out of bounds");
; 2013 : 	return m_piDomainProductionModifier ? m_piDomainProductionModifier[i] : -1;

	mov	eax, DWORD PTR [ecx+924]
	test	eax, eax
	je	SHORT $LN3@GetDomainP
	mov	ecx, DWORD PTR _i$[esp-4]
	mov	eax, DWORD PTR [eax+ecx*4]

; 2014 : }

	ret	4
$LN3@GetDomainP:

; 2011 : 	CvAssertMsg(i < NUM_DOMAIN_TYPES, "Index out of bounds");
; 2012 : 	CvAssertMsg(i > -1, "Index out of bounds");
; 2013 : 	return m_piDomainProductionModifier ? m_piDomainProductionModifier[i] : -1;

	or	eax, -1

; 2014 : }

	ret	4
?GetDomainProductionModifier@CvBuildingEntry@@QBEHH@Z ENDP ; CvBuildingEntry::GetDomainProductionModifier
_TEXT	ENDS
PUBLIC	?GetLockedBuildingClasses@CvBuildingEntry@@QBEHH@Z ; CvBuildingEntry::GetLockedBuildingClasses
; Function compile flags: /Ogtpy
;	COMDAT ?GetLockedBuildingClasses@CvBuildingEntry@@QBEHH@Z
_TEXT	SEGMENT
_i$ = 8							; size = 4
?GetLockedBuildingClasses@CvBuildingEntry@@QBEHH@Z PROC	; CvBuildingEntry::GetLockedBuildingClasses, COMDAT
; _this$ = ecx

; 2019 : 	CvAssertMsg(i < GC.getNumBuildingClassInfos(), "Index out of bounds");
; 2020 : 	CvAssertMsg(i > -1, "Index out of bounds");
; 2021 : 	return m_piLockedBuildingClasses ? m_piLockedBuildingClasses[i] : -1;

	mov	eax, DWORD PTR [ecx+836]
	test	eax, eax
	je	SHORT $LN3@GetLockedB
	mov	ecx, DWORD PTR _i$[esp-4]
	mov	eax, DWORD PTR [eax+ecx*4]

; 2022 : }

	ret	4
$LN3@GetLockedB:

; 2019 : 	CvAssertMsg(i < GC.getNumBuildingClassInfos(), "Index out of bounds");
; 2020 : 	CvAssertMsg(i > -1, "Index out of bounds");
; 2021 : 	return m_piLockedBuildingClasses ? m_piLockedBuildingClasses[i] : -1;

	or	eax, -1

; 2022 : }

	ret	4
?GetLockedBuildingClasses@CvBuildingEntry@@QBEHH@Z ENDP	; CvBuildingEntry::GetLockedBuildingClasses
_TEXT	ENDS
PUBLIC	?GetPrereqAndTechs@CvBuildingEntry@@QBEHH@Z	; CvBuildingEntry::GetPrereqAndTechs
; Function compile flags: /Ogtpy
;	COMDAT ?GetPrereqAndTechs@CvBuildingEntry@@QBEHH@Z
_TEXT	SEGMENT
_i$ = 8							; size = 4
?GetPrereqAndTechs@CvBuildingEntry@@QBEHH@Z PROC	; CvBuildingEntry::GetPrereqAndTechs, COMDAT
; _this$ = ecx

; 2027 : 	CvAssertMsg(i < GC.getNUM_BUILDING_AND_TECH_PREREQS(), "Index out of bounds");
; 2028 : 	CvAssertMsg(i > -1, "Index out of bounds");
; 2029 : 	return m_piPrereqAndTechs ? m_piPrereqAndTechs[i] : -1;

	mov	eax, DWORD PTR [ecx+840]
	test	eax, eax
	je	SHORT $LN3@GetPrereqA
	mov	ecx, DWORD PTR _i$[esp-4]
	mov	eax, DWORD PTR [eax+ecx*4]

; 2030 : }

	ret	4
$LN3@GetPrereqA:

; 2027 : 	CvAssertMsg(i < GC.getNUM_BUILDING_AND_TECH_PREREQS(), "Index out of bounds");
; 2028 : 	CvAssertMsg(i > -1, "Index out of bounds");
; 2029 : 	return m_piPrereqAndTechs ? m_piPrereqAndTechs[i] : -1;

	or	eax, -1

; 2030 : }

	ret	4
?GetPrereqAndTechs@CvBuildingEntry@@QBEHH@Z ENDP	; CvBuildingEntry::GetPrereqAndTechs
_TEXT	ENDS
PUBLIC	?GetResourceQuantityRequirement@CvBuildingEntry@@QBEHH@Z ; CvBuildingEntry::GetResourceQuantityRequirement
; Function compile flags: /Ogtpy
;	COMDAT ?GetResourceQuantityRequirement@CvBuildingEntry@@QBEHH@Z
_TEXT	SEGMENT
_i$ = 8							; size = 4
?GetResourceQuantityRequirement@CvBuildingEntry@@QBEHH@Z PROC ; CvBuildingEntry::GetResourceQuantityRequirement, COMDAT
; _this$ = ecx

; 2035 : 	CvAssertMsg(i < GC.getNumResourceInfos(), "Index out of bounds");
; 2036 : 	CvAssertMsg(i > -1, "Index out of bounds");
; 2037 : 	return m_piResourceQuantityRequirements ? m_piResourceQuantityRequirements[i] : -1;

	mov	eax, DWORD PTR [ecx+844]
	test	eax, eax
	je	SHORT $LN3@GetResourc
	mov	ecx, DWORD PTR _i$[esp-4]
	mov	eax, DWORD PTR [eax+ecx*4]

; 2038 : }

	ret	4
$LN3@GetResourc:

; 2035 : 	CvAssertMsg(i < GC.getNumResourceInfos(), "Index out of bounds");
; 2036 : 	CvAssertMsg(i > -1, "Index out of bounds");
; 2037 : 	return m_piResourceQuantityRequirements ? m_piResourceQuantityRequirements[i] : -1;

	or	eax, -1

; 2038 : }

	ret	4
?GetResourceQuantityRequirement@CvBuildingEntry@@QBEHH@Z ENDP ; CvBuildingEntry::GetResourceQuantityRequirement
_TEXT	ENDS
PUBLIC	?GetResourceQuantity@CvBuildingEntry@@QBEHH@Z	; CvBuildingEntry::GetResourceQuantity
; Function compile flags: /Ogtpy
;	COMDAT ?GetResourceQuantity@CvBuildingEntry@@QBEHH@Z
_TEXT	SEGMENT
_i$ = 8							; size = 4
?GetResourceQuantity@CvBuildingEntry@@QBEHH@Z PROC	; CvBuildingEntry::GetResourceQuantity, COMDAT
; _this$ = ecx

; 2043 : 	CvAssertMsg(i < GC.getNumResourceInfos(), "Index out of bounds");
; 2044 : 	CvAssertMsg(i > -1, "Index out of bounds");
; 2045 : 	return m_piResourceQuantity ? m_piResourceQuantity[i] : -1;

	mov	eax, DWORD PTR [ecx+848]
	test	eax, eax
	je	SHORT $LN3@GetResourc@2
	mov	ecx, DWORD PTR _i$[esp-4]
	mov	eax, DWORD PTR [eax+ecx*4]

; 2046 : }

	ret	4
$LN3@GetResourc@2:

; 2043 : 	CvAssertMsg(i < GC.getNumResourceInfos(), "Index out of bounds");
; 2044 : 	CvAssertMsg(i > -1, "Index out of bounds");
; 2045 : 	return m_piResourceQuantity ? m_piResourceQuantity[i] : -1;

	or	eax, -1

; 2046 : }

	ret	4
?GetResourceQuantity@CvBuildingEntry@@QBEHH@Z ENDP	; CvBuildingEntry::GetResourceQuantity
_TEXT	ENDS
PUBLIC	?GetResourceCultureChange@CvBuildingEntry@@QBEHH@Z ; CvBuildingEntry::GetResourceCultureChange
; Function compile flags: /Ogtpy
;	COMDAT ?GetResourceCultureChange@CvBuildingEntry@@QBEHH@Z
_TEXT	SEGMENT
_i$ = 8							; size = 4
?GetResourceCultureChange@CvBuildingEntry@@QBEHH@Z PROC	; CvBuildingEntry::GetResourceCultureChange, COMDAT
; _this$ = ecx

; 2051 : 	CvAssertMsg(i < GC.getNumResourceInfos(), "Index out of bounds");
; 2052 : 	CvAssertMsg(i > -1, "Index out of bounds");
; 2053 : 	return m_piResourceCultureChanges ? m_piResourceCultureChanges[i] : -1;

	mov	eax, DWORD PTR [ecx+852]
	test	eax, eax
	je	SHORT $LN3@GetResourc@3
	mov	ecx, DWORD PTR _i$[esp-4]
	mov	eax, DWORD PTR [eax+ecx*4]

; 2054 : }

	ret	4
$LN3@GetResourc@3:

; 2051 : 	CvAssertMsg(i < GC.getNumResourceInfos(), "Index out of bounds");
; 2052 : 	CvAssertMsg(i > -1, "Index out of bounds");
; 2053 : 	return m_piResourceCultureChanges ? m_piResourceCultureChanges[i] : -1;

	or	eax, -1

; 2054 : }

	ret	4
?GetResourceCultureChange@CvBuildingEntry@@QBEHH@Z ENDP	; CvBuildingEntry::GetResourceCultureChange
_TEXT	ENDS
PUBLIC	?GetResourceFaithChange@CvBuildingEntry@@QBEHH@Z ; CvBuildingEntry::GetResourceFaithChange
; Function compile flags: /Ogtpy
;	COMDAT ?GetResourceFaithChange@CvBuildingEntry@@QBEHH@Z
_TEXT	SEGMENT
_i$ = 8							; size = 4
?GetResourceFaithChange@CvBuildingEntry@@QBEHH@Z PROC	; CvBuildingEntry::GetResourceFaithChange, COMDAT
; _this$ = ecx

; 2059 : 	CvAssertMsg(i < GC.getNumResourceInfos(), "Index out of bounds");
; 2060 : 	CvAssertMsg(i > -1, "Index out of bounds");
; 2061 : 	return m_piResourceFaithChanges ? m_piResourceFaithChanges[i] : -1;

	mov	eax, DWORD PTR [ecx+856]
	test	eax, eax
	je	SHORT $LN3@GetResourc@4
	mov	ecx, DWORD PTR _i$[esp-4]
	mov	eax, DWORD PTR [eax+ecx*4]

; 2062 : }

	ret	4
$LN3@GetResourc@4:

; 2059 : 	CvAssertMsg(i < GC.getNumResourceInfos(), "Index out of bounds");
; 2060 : 	CvAssertMsg(i > -1, "Index out of bounds");
; 2061 : 	return m_piResourceFaithChanges ? m_piResourceFaithChanges[i] : -1;

	or	eax, -1

; 2062 : }

	ret	4
?GetResourceFaithChange@CvBuildingEntry@@QBEHH@Z ENDP	; CvBuildingEntry::GetResourceFaithChange
_TEXT	ENDS
PUBLIC	?GetProductionTraits@CvBuildingEntry@@QBEHH@Z	; CvBuildingEntry::GetProductionTraits
; Function compile flags: /Ogtpy
;	COMDAT ?GetProductionTraits@CvBuildingEntry@@QBEHH@Z
_TEXT	SEGMENT
_i$ = 8							; size = 4
?GetProductionTraits@CvBuildingEntry@@QBEHH@Z PROC	; CvBuildingEntry::GetProductionTraits, COMDAT
; _this$ = ecx

; 2067 : 	CvAssertMsg(i < GC.getNumTraitInfos(), "Index out of bounds");
; 2068 : 	CvAssertMsg(i > -1, "Index out of bounds");
; 2069 : 	return m_piProductionTraits ? m_piProductionTraits[i] : 0;

	mov	eax, DWORD PTR [ecx+860]
	test	eax, eax
	je	SHORT $LN3@GetProduct
	mov	ecx, DWORD PTR _i$[esp-4]
	mov	eax, DWORD PTR [eax+ecx*4]

; 2070 : }

	ret	4
$LN3@GetProduct:

; 2067 : 	CvAssertMsg(i < GC.getNumTraitInfos(), "Index out of bounds");
; 2068 : 	CvAssertMsg(i > -1, "Index out of bounds");
; 2069 : 	return m_piProductionTraits ? m_piProductionTraits[i] : 0;

	xor	eax, eax

; 2070 : }

	ret	4
?GetProductionTraits@CvBuildingEntry@@QBEHH@Z ENDP	; CvBuildingEntry::GetProductionTraits
_TEXT	ENDS
PUBLIC	?GetPrereqNumOfBuildingClass@CvBuildingEntry@@QBEHH@Z ; CvBuildingEntry::GetPrereqNumOfBuildingClass
; Function compile flags: /Ogtpy
;	COMDAT ?GetPrereqNumOfBuildingClass@CvBuildingEntry@@QBEHH@Z
_TEXT	SEGMENT
_i$ = 8							; size = 4
?GetPrereqNumOfBuildingClass@CvBuildingEntry@@QBEHH@Z PROC ; CvBuildingEntry::GetPrereqNumOfBuildingClass, COMDAT
; _this$ = ecx

; 2075 : 	CvAssertMsg(i < GC.getNumBuildingClassInfos(), "Index out of bounds");
; 2076 : 	CvAssertMsg(i > -1, "Index out of bounds");
; 2077 : 	return m_piPrereqNumOfBuildingClass ? m_piPrereqNumOfBuildingClass[i] : -1;

	mov	eax, DWORD PTR [ecx+928]
	test	eax, eax
	je	SHORT $LN3@GetPrereqN
	mov	ecx, DWORD PTR _i$[esp-4]
	mov	eax, DWORD PTR [eax+ecx*4]

; 2078 : }

	ret	4
$LN3@GetPrereqN:

; 2075 : 	CvAssertMsg(i < GC.getNumBuildingClassInfos(), "Index out of bounds");
; 2076 : 	CvAssertMsg(i > -1, "Index out of bounds");
; 2077 : 	return m_piPrereqNumOfBuildingClass ? m_piPrereqNumOfBuildingClass[i] : -1;

	or	eax, -1

; 2078 : }

	ret	4
?GetPrereqNumOfBuildingClass@CvBuildingEntry@@QBEHH@Z ENDP ; CvBuildingEntry::GetPrereqNumOfBuildingClass
_TEXT	ENDS
PUBLIC	?GetFlavorValue@CvBuildingEntry@@QBEHH@Z	; CvBuildingEntry::GetFlavorValue
; Function compile flags: /Ogtpy
;	COMDAT ?GetFlavorValue@CvBuildingEntry@@QBEHH@Z
_TEXT	SEGMENT
_i$ = 8							; size = 4
?GetFlavorValue@CvBuildingEntry@@QBEHH@Z PROC		; CvBuildingEntry::GetFlavorValue, COMDAT
; _this$ = ecx

; 2083 : 	CvAssertMsg(i < GC.getNumFlavorTypes(), "Index out of bounds");
; 2084 : 	CvAssertMsg(i > -1, "Index out of bounds");
; 2085 : 	return m_piFlavorValue ? m_piFlavorValue[i] : 0;

	mov	eax, DWORD PTR [ecx+932]
	test	eax, eax
	je	SHORT $LN3@GetFlavorV
	mov	ecx, DWORD PTR _i$[esp-4]
	mov	eax, DWORD PTR [eax+ecx*4]

; 2086 : }

	ret	4
$LN3@GetFlavorV:

; 2083 : 	CvAssertMsg(i < GC.getNumFlavorTypes(), "Index out of bounds");
; 2084 : 	CvAssertMsg(i > -1, "Index out of bounds");
; 2085 : 	return m_piFlavorValue ? m_piFlavorValue[i] : 0;

	xor	eax, eax

; 2086 : }

	ret	4
?GetFlavorValue@CvBuildingEntry@@QBEHH@Z ENDP		; CvBuildingEntry::GetFlavorValue
_TEXT	ENDS
PUBLIC	?GetLocalResourceAnd@CvBuildingEntry@@QBEHH@Z	; CvBuildingEntry::GetLocalResourceAnd
; Function compile flags: /Ogtpy
;	COMDAT ?GetLocalResourceAnd@CvBuildingEntry@@QBEHH@Z
_TEXT	SEGMENT
_i$ = 8							; size = 4
?GetLocalResourceAnd@CvBuildingEntry@@QBEHH@Z PROC	; CvBuildingEntry::GetLocalResourceAnd, COMDAT
; _this$ = ecx

; 2091 : 	CvAssertMsg(i < GC.getNUM_BUILDING_RESOURCE_PREREQS(), "Index out of bounds");
; 2092 : 	CvAssertMsg(i > -1, "Index out of bounds");
; 2093 : 	return m_piLocalResourceAnds ? m_piLocalResourceAnds[i] : -1;

	mov	eax, DWORD PTR [ecx+936]
	test	eax, eax
	je	SHORT $LN3@GetLocalRe
	mov	ecx, DWORD PTR _i$[esp-4]
	mov	eax, DWORD PTR [eax+ecx*4]

; 2094 : }

	ret	4
$LN3@GetLocalRe:

; 2091 : 	CvAssertMsg(i < GC.getNUM_BUILDING_RESOURCE_PREREQS(), "Index out of bounds");
; 2092 : 	CvAssertMsg(i > -1, "Index out of bounds");
; 2093 : 	return m_piLocalResourceAnds ? m_piLocalResourceAnds[i] : -1;

	or	eax, -1

; 2094 : }

	ret	4
?GetLocalResourceAnd@CvBuildingEntry@@QBEHH@Z ENDP	; CvBuildingEntry::GetLocalResourceAnd
_TEXT	ENDS
PUBLIC	?GetLocalResourceOr@CvBuildingEntry@@QBEHH@Z	; CvBuildingEntry::GetLocalResourceOr
; Function compile flags: /Ogtpy
;	COMDAT ?GetLocalResourceOr@CvBuildingEntry@@QBEHH@Z
_TEXT	SEGMENT
_i$ = 8							; size = 4
?GetLocalResourceOr@CvBuildingEntry@@QBEHH@Z PROC	; CvBuildingEntry::GetLocalResourceOr, COMDAT
; _this$ = ecx

; 2099 : 	CvAssertMsg(i < GC.getNUM_BUILDING_RESOURCE_PREREQS(), "Index out of bounds");
; 2100 : 	CvAssertMsg(i > -1, "Index out of bounds");
; 2101 : 	return m_piLocalResourceOrs ? m_piLocalResourceOrs[i] : -1;

	mov	eax, DWORD PTR [ecx+940]
	test	eax, eax
	je	SHORT $LN3@GetLocalRe@2
	mov	ecx, DWORD PTR _i$[esp-4]
	mov	eax, DWORD PTR [eax+ecx*4]

; 2102 : }

	ret	4
$LN3@GetLocalRe@2:

; 2099 : 	CvAssertMsg(i < GC.getNUM_BUILDING_RESOURCE_PREREQS(), "Index out of bounds");
; 2100 : 	CvAssertMsg(i > -1, "Index out of bounds");
; 2101 : 	return m_piLocalResourceOrs ? m_piLocalResourceOrs[i] : -1;

	or	eax, -1

; 2102 : }

	ret	4
?GetLocalResourceOr@CvBuildingEntry@@QBEHH@Z ENDP	; CvBuildingEntry::GetLocalResourceOr
_TEXT	ENDS
PUBLIC	?GetHurryModifier@CvBuildingEntry@@QBEHH@Z	; CvBuildingEntry::GetHurryModifier
; Function compile flags: /Ogtpy
;	COMDAT ?GetHurryModifier@CvBuildingEntry@@QBEHH@Z
_TEXT	SEGMENT
_i$ = 8							; size = 4
?GetHurryModifier@CvBuildingEntry@@QBEHH@Z PROC		; CvBuildingEntry::GetHurryModifier, COMDAT
; _this$ = ecx

; 2107 : 	CvAssertMsg(i < GC.getNumHurryInfos(), "Index out of bounds");
; 2108 : 	CvAssertMsg(i > -1, "Index out of bounds");
; 2109 : 	return m_paiHurryModifier ? m_paiHurryModifier[i] : -1;

	mov	eax, DWORD PTR [ecx+944]
	test	eax, eax
	je	SHORT $LN3@GetHurryMo
	mov	ecx, DWORD PTR _i$[esp-4]
	mov	eax, DWORD PTR [eax+ecx*4]

; 2110 : }

	ret	4
$LN3@GetHurryMo:

; 2107 : 	CvAssertMsg(i < GC.getNumHurryInfos(), "Index out of bounds");
; 2108 : 	CvAssertMsg(i > -1, "Index out of bounds");
; 2109 : 	return m_paiHurryModifier ? m_paiHurryModifier[i] : -1;

	or	eax, -1

; 2110 : }

	ret	4
?GetHurryModifier@CvBuildingEntry@@QBEHH@Z ENDP		; CvBuildingEntry::GetHurryModifier
_TEXT	ENDS
PUBLIC	?IsBuildingClassNeededInCity@CvBuildingEntry@@QBE_NH@Z ; CvBuildingEntry::IsBuildingClassNeededInCity
; Function compile flags: /Ogtpy
;	COMDAT ?IsBuildingClassNeededInCity@CvBuildingEntry@@QBE_NH@Z
_TEXT	SEGMENT
_i$ = 8							; size = 4
?IsBuildingClassNeededInCity@CvBuildingEntry@@QBE_NH@Z PROC ; CvBuildingEntry::IsBuildingClassNeededInCity, COMDAT
; _this$ = ecx

; 2115 : 	CvAssertMsg(i < GC.getNumBuildingClassInfos(), "Index out of bounds");
; 2116 : 	CvAssertMsg(i > -1, "Index out of bounds");
; 2117 : 	return m_pbBuildingClassNeededInCity ? m_pbBuildingClassNeededInCity[i] : false;

	mov	eax, DWORD PTR [ecx+948]
	test	eax, eax
	je	SHORT $LN3@IsBuilding
	mov	ecx, DWORD PTR _i$[esp-4]
	mov	al, BYTE PTR [eax+ecx]

; 2118 : }

	ret	4
$LN3@IsBuilding:

; 2115 : 	CvAssertMsg(i < GC.getNumBuildingClassInfos(), "Index out of bounds");
; 2116 : 	CvAssertMsg(i > -1, "Index out of bounds");
; 2117 : 	return m_pbBuildingClassNeededInCity ? m_pbBuildingClassNeededInCity[i] : false;

	xor	al, al

; 2118 : }

	ret	4
?IsBuildingClassNeededInCity@CvBuildingEntry@@QBE_NH@Z ENDP ; CvBuildingEntry::IsBuildingClassNeededInCity
_TEXT	ENDS
PUBLIC	?GetNumFreeUnits@CvBuildingEntry@@QBEHH@Z	; CvBuildingEntry::GetNumFreeUnits
; Function compile flags: /Ogtpy
;	COMDAT ?GetNumFreeUnits@CvBuildingEntry@@QBEHH@Z
_TEXT	SEGMENT
_i$ = 8							; size = 4
?GetNumFreeUnits@CvBuildingEntry@@QBEHH@Z PROC		; CvBuildingEntry::GetNumFreeUnits, COMDAT
; _this$ = ecx

; 2123 : 	CvAssertMsg(i < GC.getNumUnitInfos(), "Index out of bounds");
; 2124 : 	CvAssertMsg(i > -1, "Index out of bounds");
; 2125 : 	return m_piNumFreeUnits ? m_piNumFreeUnits[i] : -1;

	mov	eax, DWORD PTR [ecx+952]
	test	eax, eax
	je	SHORT $LN3@GetNumFree
	mov	ecx, DWORD PTR _i$[esp-4]
	mov	eax, DWORD PTR [eax+ecx*4]

; 2126 : }

	ret	4
$LN3@GetNumFree:

; 2123 : 	CvAssertMsg(i < GC.getNumUnitInfos(), "Index out of bounds");
; 2124 : 	CvAssertMsg(i > -1, "Index out of bounds");
; 2125 : 	return m_piNumFreeUnits ? m_piNumFreeUnits[i] : -1;

	or	eax, -1

; 2126 : }

	ret	4
?GetNumFreeUnits@CvBuildingEntry@@QBEHH@Z ENDP		; CvBuildingEntry::GetNumFreeUnits
_TEXT	ENDS
PUBLIC	?GetResourceYieldChange@CvBuildingEntry@@QBEHHH@Z ; CvBuildingEntry::GetResourceYieldChange
; Function compile flags: /Ogtpy
;	COMDAT ?GetResourceYieldChange@CvBuildingEntry@@QBEHHH@Z
_TEXT	SEGMENT
_i$ = 8							; size = 4
_j$ = 12						; size = 4
?GetResourceYieldChange@CvBuildingEntry@@QBEHHH@Z PROC	; CvBuildingEntry::GetResourceYieldChange, COMDAT
; _this$ = ecx

; 2131 : 	CvAssertMsg(i < GC.getNumResourceInfos(), "Index out of bounds");
; 2132 : 	CvAssertMsg(i > -1, "Index out of bounds");
; 2133 : 	CvAssertMsg(j < NUM_YIELD_TYPES, "Index out of bounds");
; 2134 : 	CvAssertMsg(j > -1, "Index out of bounds");
; 2135 : #ifdef AUI_DATABASE_UTILITY_PROPER_2D_ALLOCATION_AND_DESTRUCTION
; 2136 : 	return m_ppaiResourceYieldChange.first ? (m_ppaiResourceYieldChange.first)[i][j] : -1;
; 2137 : #else
; 2138 : 	return m_ppaiResourceYieldChange ? m_ppaiResourceYieldChange[i][j] : -1;

	mov	eax, DWORD PTR [ecx+956]
	test	eax, eax
	je	SHORT $LN3@GetResourc@5
	mov	ecx, DWORD PTR _i$[esp-4]
	mov	edx, DWORD PTR [eax+ecx*4]
	mov	eax, DWORD PTR _j$[esp-4]
	mov	eax, DWORD PTR [edx+eax*4]

; 2139 : #endif
; 2140 : }

	ret	8
$LN3@GetResourc@5:

; 2131 : 	CvAssertMsg(i < GC.getNumResourceInfos(), "Index out of bounds");
; 2132 : 	CvAssertMsg(i > -1, "Index out of bounds");
; 2133 : 	CvAssertMsg(j < NUM_YIELD_TYPES, "Index out of bounds");
; 2134 : 	CvAssertMsg(j > -1, "Index out of bounds");
; 2135 : #ifdef AUI_DATABASE_UTILITY_PROPER_2D_ALLOCATION_AND_DESTRUCTION
; 2136 : 	return m_ppaiResourceYieldChange.first ? (m_ppaiResourceYieldChange.first)[i][j] : -1;
; 2137 : #else
; 2138 : 	return m_ppaiResourceYieldChange ? m_ppaiResourceYieldChange[i][j] : -1;

	or	eax, -1

; 2139 : #endif
; 2140 : }

	ret	8
?GetResourceYieldChange@CvBuildingEntry@@QBEHHH@Z ENDP	; CvBuildingEntry::GetResourceYieldChange
_TEXT	ENDS
PUBLIC	?GetResourceYieldChangeArray@CvBuildingEntry@@QBEPAHH@Z ; CvBuildingEntry::GetResourceYieldChangeArray
; Function compile flags: /Ogtpy
;	COMDAT ?GetResourceYieldChangeArray@CvBuildingEntry@@QBEPAHH@Z
_TEXT	SEGMENT
_i$ = 8							; size = 4
?GetResourceYieldChangeArray@CvBuildingEntry@@QBEPAHH@Z PROC ; CvBuildingEntry::GetResourceYieldChangeArray, COMDAT
; _this$ = ecx

; 2145 : 	CvAssertMsg(i < GC.getNumResourceInfos(), "Index out of bounds");
; 2146 : 	CvAssertMsg(i > -1, "Index out of bounds");
; 2147 : #ifdef AUI_DATABASE_UTILITY_PROPER_2D_ALLOCATION_AND_DESTRUCTION
; 2148 : 	return m_ppaiResourceYieldChange.first ? m_ppaiResourceYieldChange.first[i] : NULL;
; 2149 : #else
; 2150 : 	return m_ppaiResourceYieldChange[i];

	mov	eax, DWORD PTR [ecx+956]
	mov	ecx, DWORD PTR _i$[esp-4]
	mov	eax, DWORD PTR [eax+ecx*4]

; 2151 : #endif
; 2152 : }

	ret	4
?GetResourceYieldChangeArray@CvBuildingEntry@@QBEPAHH@Z ENDP ; CvBuildingEntry::GetResourceYieldChangeArray
_TEXT	ENDS
PUBLIC	?GetFeatureYieldChange@CvBuildingEntry@@QBEHHH@Z ; CvBuildingEntry::GetFeatureYieldChange
; Function compile flags: /Ogtpy
;	COMDAT ?GetFeatureYieldChange@CvBuildingEntry@@QBEHHH@Z
_TEXT	SEGMENT
_i$ = 8							; size = 4
_j$ = 12						; size = 4
?GetFeatureYieldChange@CvBuildingEntry@@QBEHHH@Z PROC	; CvBuildingEntry::GetFeatureYieldChange, COMDAT
; _this$ = ecx

; 2175 : 	CvAssertMsg(i < GC.getNumFeatureInfos(), "Index out of bounds");
; 2176 : 	CvAssertMsg(i > -1, "Index out of bounds");
; 2177 : 	CvAssertMsg(j < NUM_YIELD_TYPES, "Index out of bounds");
; 2178 : 	CvAssertMsg(j > -1, "Index out of bounds");
; 2179 : #ifdef AUI_DATABASE_UTILITY_PROPER_2D_ALLOCATION_AND_DESTRUCTION
; 2180 : 	return m_ppaiFeatureYieldChange.first ? (m_ppaiFeatureYieldChange.first)[i][j] : -1;
; 2181 : #else
; 2182 : 	return m_ppaiFeatureYieldChange ? m_ppaiFeatureYieldChange[i][j] : -1;

	mov	eax, DWORD PTR [ecx+960]
	test	eax, eax
	je	SHORT $LN3@GetFeature
	mov	ecx, DWORD PTR _i$[esp-4]
	mov	edx, DWORD PTR [eax+ecx*4]
	mov	eax, DWORD PTR _j$[esp-4]
	mov	eax, DWORD PTR [edx+eax*4]

; 2183 : #endif
; 2184 : }

	ret	8
$LN3@GetFeature:

; 2175 : 	CvAssertMsg(i < GC.getNumFeatureInfos(), "Index out of bounds");
; 2176 : 	CvAssertMsg(i > -1, "Index out of bounds");
; 2177 : 	CvAssertMsg(j < NUM_YIELD_TYPES, "Index out of bounds");
; 2178 : 	CvAssertMsg(j > -1, "Index out of bounds");
; 2179 : #ifdef AUI_DATABASE_UTILITY_PROPER_2D_ALLOCATION_AND_DESTRUCTION
; 2180 : 	return m_ppaiFeatureYieldChange.first ? (m_ppaiFeatureYieldChange.first)[i][j] : -1;
; 2181 : #else
; 2182 : 	return m_ppaiFeatureYieldChange ? m_ppaiFeatureYieldChange[i][j] : -1;

	or	eax, -1

; 2183 : #endif
; 2184 : }

	ret	8
?GetFeatureYieldChange@CvBuildingEntry@@QBEHHH@Z ENDP	; CvBuildingEntry::GetFeatureYieldChange
_TEXT	ENDS
PUBLIC	?GetFeatureYieldChangeArray@CvBuildingEntry@@QBEPAHH@Z ; CvBuildingEntry::GetFeatureYieldChangeArray
; Function compile flags: /Ogtpy
;	COMDAT ?GetFeatureYieldChangeArray@CvBuildingEntry@@QBEPAHH@Z
_TEXT	SEGMENT
_i$ = 8							; size = 4
?GetFeatureYieldChangeArray@CvBuildingEntry@@QBEPAHH@Z PROC ; CvBuildingEntry::GetFeatureYieldChangeArray, COMDAT
; _this$ = ecx

; 2189 : 	CvAssertMsg(i < GC.getNumFeatureInfos(), "Index out of bounds");
; 2190 : 	CvAssertMsg(i > -1, "Index out of bounds");
; 2191 : #ifdef AUI_DATABASE_UTILITY_PROPER_2D_ALLOCATION_AND_DESTRUCTION
; 2192 : 	return m_ppaiFeatureYieldChange.first ? m_ppaiFeatureYieldChange.first[i] : NULL;
; 2193 : #else
; 2194 : 	return m_ppaiFeatureYieldChange[i];

	mov	eax, DWORD PTR [ecx+960]
	mov	ecx, DWORD PTR _i$[esp-4]
	mov	eax, DWORD PTR [eax+ecx*4]

; 2195 : #endif
; 2196 : }

	ret	4
?GetFeatureYieldChangeArray@CvBuildingEntry@@QBEPAHH@Z ENDP ; CvBuildingEntry::GetFeatureYieldChangeArray
_TEXT	ENDS
PUBLIC	?GetImprovementYieldChange@CvBuildingEntry@@QBEHHH@Z ; CvBuildingEntry::GetImprovementYieldChange
; Function compile flags: /Ogtpy
;	COMDAT ?GetImprovementYieldChange@CvBuildingEntry@@QBEHHH@Z
_TEXT	SEGMENT
_i$ = 8							; size = 4
_j$ = 12						; size = 4
?GetImprovementYieldChange@CvBuildingEntry@@QBEHHH@Z PROC ; CvBuildingEntry::GetImprovementYieldChange, COMDAT
; _this$ = ecx

; 2200 : 	CvAssertMsg(i < GC.getNumImprovementInfos(), "Index out of bounds");
; 2201 : 	CvAssertMsg(i > -1, "Index out of bounds");
; 2202 : 	CvAssertMsg(j < NUM_YIELD_TYPES, "Index out of bounds");
; 2203 : 	CvAssertMsg(j > -1, "Index out of bounds");
; 2204 : 	return m_ppaiImprovementYieldChange ? m_ppaiImprovementYieldChange[i][j] : -1;

	mov	eax, DWORD PTR [ecx+976]
	test	eax, eax
	je	SHORT $LN3@GetImprove
	mov	ecx, DWORD PTR _i$[esp-4]
	mov	edx, DWORD PTR [eax+ecx*4]
	mov	eax, DWORD PTR _j$[esp-4]
	mov	eax, DWORD PTR [edx+eax*4]

; 2205 : }

	ret	8
$LN3@GetImprove:

; 2200 : 	CvAssertMsg(i < GC.getNumImprovementInfos(), "Index out of bounds");
; 2201 : 	CvAssertMsg(i > -1, "Index out of bounds");
; 2202 : 	CvAssertMsg(j < NUM_YIELD_TYPES, "Index out of bounds");
; 2203 : 	CvAssertMsg(j > -1, "Index out of bounds");
; 2204 : 	return m_ppaiImprovementYieldChange ? m_ppaiImprovementYieldChange[i][j] : -1;

	or	eax, -1

; 2205 : }

	ret	8
?GetImprovementYieldChange@CvBuildingEntry@@QBEHHH@Z ENDP ; CvBuildingEntry::GetImprovementYieldChange
_TEXT	ENDS
PUBLIC	?GetImprovementYieldChangeArray@CvBuildingEntry@@QBEPAHH@Z ; CvBuildingEntry::GetImprovementYieldChangeArray
; Function compile flags: /Ogtpy
;	COMDAT ?GetImprovementYieldChangeArray@CvBuildingEntry@@QBEPAHH@Z
_TEXT	SEGMENT
_i$ = 8							; size = 4
?GetImprovementYieldChangeArray@CvBuildingEntry@@QBEPAHH@Z PROC ; CvBuildingEntry::GetImprovementYieldChangeArray, COMDAT
; _this$ = ecx

; 2210 : 	CvAssertMsg(i < GC.getNumImprovementInfos(), "Index out of bounds");
; 2211 : 	CvAssertMsg(i > -1, "Index out of bounds");
; 2212 : 	return m_ppaiImprovementYieldChange[i];

	mov	eax, DWORD PTR [ecx+976]
	mov	ecx, DWORD PTR _i$[esp-4]
	mov	eax, DWORD PTR [eax+ecx*4]

; 2213 : }

	ret	4
?GetImprovementYieldChangeArray@CvBuildingEntry@@QBEPAHH@Z ENDP ; CvBuildingEntry::GetImprovementYieldChangeArray
_TEXT	ENDS
PUBLIC	?GetImprovementYieldChangeGlobal@CvBuildingEntry@@QBEHHH@Z ; CvBuildingEntry::GetImprovementYieldChangeGlobal
; Function compile flags: /Ogtpy
;	COMDAT ?GetImprovementYieldChangeGlobal@CvBuildingEntry@@QBEHHH@Z
_TEXT	SEGMENT
_i$ = 8							; size = 4
_j$ = 12						; size = 4
?GetImprovementYieldChangeGlobal@CvBuildingEntry@@QBEHHH@Z PROC ; CvBuildingEntry::GetImprovementYieldChangeGlobal, COMDAT
; _this$ = ecx

; 2217 : 	CvAssertMsg(i < GC.getNumImprovementInfos(), "Index out of bounds");
; 2218 : 	CvAssertMsg(i > -1, "Index out of bounds");
; 2219 : 	CvAssertMsg(j < NUM_YIELD_TYPES, "Index out of bounds");
; 2220 : 	CvAssertMsg(j > -1, "Index out of bounds");
; 2221 : 	return m_ppaiImprovementYieldChangeGlobal ? m_ppaiImprovementYieldChangeGlobal[i][j] : -1;

	mov	eax, DWORD PTR [ecx+980]
	test	eax, eax
	je	SHORT $LN3@GetImprove@2
	mov	ecx, DWORD PTR _i$[esp-4]
	mov	edx, DWORD PTR [eax+ecx*4]
	mov	eax, DWORD PTR _j$[esp-4]
	mov	eax, DWORD PTR [edx+eax*4]

; 2222 : }

	ret	8
$LN3@GetImprove@2:

; 2217 : 	CvAssertMsg(i < GC.getNumImprovementInfos(), "Index out of bounds");
; 2218 : 	CvAssertMsg(i > -1, "Index out of bounds");
; 2219 : 	CvAssertMsg(j < NUM_YIELD_TYPES, "Index out of bounds");
; 2220 : 	CvAssertMsg(j > -1, "Index out of bounds");
; 2221 : 	return m_ppaiImprovementYieldChangeGlobal ? m_ppaiImprovementYieldChangeGlobal[i][j] : -1;

	or	eax, -1

; 2222 : }

	ret	8
?GetImprovementYieldChangeGlobal@CvBuildingEntry@@QBEHHH@Z ENDP ; CvBuildingEntry::GetImprovementYieldChangeGlobal
_TEXT	ENDS
PUBLIC	?GetImprovementYieldChangeGlobalArray@CvBuildingEntry@@QBEPAHH@Z ; CvBuildingEntry::GetImprovementYieldChangeGlobalArray
; Function compile flags: /Ogtpy
;	COMDAT ?GetImprovementYieldChangeGlobalArray@CvBuildingEntry@@QBEPAHH@Z
_TEXT	SEGMENT
_i$ = 8							; size = 4
?GetImprovementYieldChangeGlobalArray@CvBuildingEntry@@QBEPAHH@Z PROC ; CvBuildingEntry::GetImprovementYieldChangeGlobalArray, COMDAT
; _this$ = ecx

; 2227 : 	CvAssertMsg(i < GC.getNumFeatureInfos(), "Index out of bounds");
; 2228 : 	CvAssertMsg(i > -1, "Index out of bounds");
; 2229 : 	return m_ppaiImprovementYieldChangeGlobal[i];

	mov	eax, DWORD PTR [ecx+980]
	mov	ecx, DWORD PTR _i$[esp-4]
	mov	eax, DWORD PTR [eax+ecx*4]

; 2230 : }

	ret	4
?GetImprovementYieldChangeGlobalArray@CvBuildingEntry@@QBEPAHH@Z ENDP ; CvBuildingEntry::GetImprovementYieldChangeGlobalArray
_TEXT	ENDS
PUBLIC	?GetSpecialistYieldChange@CvBuildingEntry@@QBEHHH@Z ; CvBuildingEntry::GetSpecialistYieldChange
; Function compile flags: /Ogtpy
;	COMDAT ?GetSpecialistYieldChange@CvBuildingEntry@@QBEHHH@Z
_TEXT	SEGMENT
_i$ = 8							; size = 4
_j$ = 12						; size = 4
?GetSpecialistYieldChange@CvBuildingEntry@@QBEHHH@Z PROC ; CvBuildingEntry::GetSpecialistYieldChange, COMDAT
; _this$ = ecx

; 2239 : 	CvAssertMsg(i < GC.getNumSpecialistInfos(), "Index out of bounds");
; 2240 : #ifndef AUI_WARNING_FIXES
; 2241 : 	CvAssertMsg(i > -1, "Index out of bounds");
; 2242 : #endif
; 2243 : 	CvAssertMsg(j < NUM_YIELD_TYPES, "Index out of bounds");
; 2244 : 	CvAssertMsg(j > -1, "Index out of bounds");
; 2245 : #ifdef AUI_DATABASE_UTILITY_PROPER_2D_ALLOCATION_AND_DESTRUCTION
; 2246 : 	return m_ppaiSpecialistYieldChange.first ? (m_ppaiSpecialistYieldChange.first)[i][j] : -1;
; 2247 : #else
; 2248 : 	return m_ppaiSpecialistYieldChange ? m_ppaiSpecialistYieldChange[i][j] : -1;

	mov	eax, DWORD PTR [ecx+984]
	test	eax, eax
	je	SHORT $LN3@GetSpecial
	mov	ecx, DWORD PTR _i$[esp-4]
	mov	edx, DWORD PTR [eax+ecx*4]
	mov	eax, DWORD PTR _j$[esp-4]
	mov	eax, DWORD PTR [edx+eax*4]

; 2249 : #endif
; 2250 : }

	ret	8
$LN3@GetSpecial:

; 2239 : 	CvAssertMsg(i < GC.getNumSpecialistInfos(), "Index out of bounds");
; 2240 : #ifndef AUI_WARNING_FIXES
; 2241 : 	CvAssertMsg(i > -1, "Index out of bounds");
; 2242 : #endif
; 2243 : 	CvAssertMsg(j < NUM_YIELD_TYPES, "Index out of bounds");
; 2244 : 	CvAssertMsg(j > -1, "Index out of bounds");
; 2245 : #ifdef AUI_DATABASE_UTILITY_PROPER_2D_ALLOCATION_AND_DESTRUCTION
; 2246 : 	return m_ppaiSpecialistYieldChange.first ? (m_ppaiSpecialistYieldChange.first)[i][j] : -1;
; 2247 : #else
; 2248 : 	return m_ppaiSpecialistYieldChange ? m_ppaiSpecialistYieldChange[i][j] : -1;

	or	eax, -1

; 2249 : #endif
; 2250 : }

	ret	8
?GetSpecialistYieldChange@CvBuildingEntry@@QBEHHH@Z ENDP ; CvBuildingEntry::GetSpecialistYieldChange
_TEXT	ENDS
PUBLIC	?GetSpecialistYieldChangeArray@CvBuildingEntry@@QBEPAHH@Z ; CvBuildingEntry::GetSpecialistYieldChangeArray
; Function compile flags: /Ogtpy
;	COMDAT ?GetSpecialistYieldChangeArray@CvBuildingEntry@@QBEPAHH@Z
_TEXT	SEGMENT
_i$ = 8							; size = 4
?GetSpecialistYieldChangeArray@CvBuildingEntry@@QBEPAHH@Z PROC ; CvBuildingEntry::GetSpecialistYieldChangeArray, COMDAT
; _this$ = ecx

; 2255 : 	CvAssertMsg(i < GC.getNumSpecialistInfos(), "Index out of bounds");
; 2256 : 	CvAssertMsg(i > -1, "Index out of bounds");
; 2257 : #ifdef AUI_DATABASE_UTILITY_PROPER_2D_ALLOCATION_AND_DESTRUCTION
; 2258 : 	return m_ppaiSpecialistYieldChange.first ? m_ppaiSpecialistYieldChange.first[i] : NULL;
; 2259 : #else
; 2260 : 	return m_ppaiSpecialistYieldChange[i];

	mov	eax, DWORD PTR [ecx+984]
	mov	ecx, DWORD PTR _i$[esp-4]
	mov	eax, DWORD PTR [eax+ecx*4]

; 2261 : #endif
; 2262 : }

	ret	4
?GetSpecialistYieldChangeArray@CvBuildingEntry@@QBEPAHH@Z ENDP ; CvBuildingEntry::GetSpecialistYieldChangeArray
_TEXT	ENDS
PUBLIC	?GetResourceYieldModifier@CvBuildingEntry@@QBEHHH@Z ; CvBuildingEntry::GetResourceYieldModifier
; Function compile flags: /Ogtpy
;	COMDAT ?GetResourceYieldModifier@CvBuildingEntry@@QBEHHH@Z
_TEXT	SEGMENT
_i$ = 8							; size = 4
_j$ = 12						; size = 4
?GetResourceYieldModifier@CvBuildingEntry@@QBEHHH@Z PROC ; CvBuildingEntry::GetResourceYieldModifier, COMDAT
; _this$ = ecx

; 2267 : 	CvAssertMsg(i < GC.getNumResourceInfos(), "Index out of bounds");
; 2268 : 	CvAssertMsg(i > -1, "Index out of bounds");
; 2269 : 	CvAssertMsg(j < NUM_YIELD_TYPES, "Index out of bounds");
; 2270 : 	CvAssertMsg(j > -1, "Index out of bounds");
; 2271 : #ifdef AUI_DATABASE_UTILITY_PROPER_2D_ALLOCATION_AND_DESTRUCTION
; 2272 : 	return m_ppaiResourceYieldModifier.first ? (m_ppaiResourceYieldModifier.first)[i][j] : -1;
; 2273 : #else
; 2274 : 	return m_ppaiResourceYieldModifier ? m_ppaiResourceYieldModifier[i][j] : -1;

	mov	eax, DWORD PTR [ecx+988]
	test	eax, eax
	je	SHORT $LN3@GetResourc@6
	mov	ecx, DWORD PTR _i$[esp-4]
	mov	edx, DWORD PTR [eax+ecx*4]
	mov	eax, DWORD PTR _j$[esp-4]
	mov	eax, DWORD PTR [edx+eax*4]

; 2275 : #endif
; 2276 : }

	ret	8
$LN3@GetResourc@6:

; 2267 : 	CvAssertMsg(i < GC.getNumResourceInfos(), "Index out of bounds");
; 2268 : 	CvAssertMsg(i > -1, "Index out of bounds");
; 2269 : 	CvAssertMsg(j < NUM_YIELD_TYPES, "Index out of bounds");
; 2270 : 	CvAssertMsg(j > -1, "Index out of bounds");
; 2271 : #ifdef AUI_DATABASE_UTILITY_PROPER_2D_ALLOCATION_AND_DESTRUCTION
; 2272 : 	return m_ppaiResourceYieldModifier.first ? (m_ppaiResourceYieldModifier.first)[i][j] : -1;
; 2273 : #else
; 2274 : 	return m_ppaiResourceYieldModifier ? m_ppaiResourceYieldModifier[i][j] : -1;

	or	eax, -1

; 2275 : #endif
; 2276 : }

	ret	8
?GetResourceYieldModifier@CvBuildingEntry@@QBEHHH@Z ENDP ; CvBuildingEntry::GetResourceYieldModifier
_TEXT	ENDS
PUBLIC	?GetResourceYieldModifierArray@CvBuildingEntry@@QBEPAHH@Z ; CvBuildingEntry::GetResourceYieldModifierArray
; Function compile flags: /Ogtpy
;	COMDAT ?GetResourceYieldModifierArray@CvBuildingEntry@@QBEPAHH@Z
_TEXT	SEGMENT
_i$ = 8							; size = 4
?GetResourceYieldModifierArray@CvBuildingEntry@@QBEPAHH@Z PROC ; CvBuildingEntry::GetResourceYieldModifierArray, COMDAT
; _this$ = ecx

; 2281 : 	CvAssertMsg(i < GC.getNumResourceInfos(), "Index out of bounds");
; 2282 : 	CvAssertMsg(i > -1, "Index out of bounds");
; 2283 : #ifdef AUI_DATABASE_UTILITY_PROPER_2D_ALLOCATION_AND_DESTRUCTION
; 2284 : 	return m_ppaiResourceYieldModifier.first ? m_ppaiResourceYieldModifier.first[i] : NULL;
; 2285 : #else
; 2286 : 	return m_ppaiResourceYieldModifier[i];

	mov	eax, DWORD PTR [ecx+988]
	mov	ecx, DWORD PTR _i$[esp-4]
	mov	eax, DWORD PTR [eax+ecx*4]

; 2287 : #endif
; 2288 : }

	ret	4
?GetResourceYieldModifierArray@CvBuildingEntry@@QBEPAHH@Z ENDP ; CvBuildingEntry::GetResourceYieldModifierArray
_TEXT	ENDS
PUBLIC	?GetTerrainYieldChange@CvBuildingEntry@@QBEHHH@Z ; CvBuildingEntry::GetTerrainYieldChange
; Function compile flags: /Ogtpy
;	COMDAT ?GetTerrainYieldChange@CvBuildingEntry@@QBEHHH@Z
_TEXT	SEGMENT
_i$ = 8							; size = 4
_j$ = 12						; size = 4
?GetTerrainYieldChange@CvBuildingEntry@@QBEHHH@Z PROC	; CvBuildingEntry::GetTerrainYieldChange, COMDAT
; _this$ = ecx

; 2293 : 	CvAssertMsg(i < GC.getNumTerrainInfos(), "Index out of bounds");
; 2294 : 	CvAssertMsg(i > -1, "Index out of bounds");
; 2295 : 	CvAssertMsg(j < NUM_YIELD_TYPES, "Index out of bounds");
; 2296 : 	CvAssertMsg(j > -1, "Index out of bounds");
; 2297 : #ifdef AUI_DATABASE_UTILITY_PROPER_2D_ALLOCATION_AND_DESTRUCTION
; 2298 : 	return m_ppaiTerrainYieldChange.first ? (m_ppaiTerrainYieldChange.first)[i][j] : -1;
; 2299 : #else
; 2300 : 	return m_ppaiTerrainYieldChange ? m_ppaiTerrainYieldChange[i][j] : -1;

	mov	eax, DWORD PTR [ecx+992]
	test	eax, eax
	je	SHORT $LN3@GetTerrain
	mov	ecx, DWORD PTR _i$[esp-4]
	mov	edx, DWORD PTR [eax+ecx*4]
	mov	eax, DWORD PTR _j$[esp-4]
	mov	eax, DWORD PTR [edx+eax*4]

; 2301 : #endif
; 2302 : }

	ret	8
$LN3@GetTerrain:

; 2293 : 	CvAssertMsg(i < GC.getNumTerrainInfos(), "Index out of bounds");
; 2294 : 	CvAssertMsg(i > -1, "Index out of bounds");
; 2295 : 	CvAssertMsg(j < NUM_YIELD_TYPES, "Index out of bounds");
; 2296 : 	CvAssertMsg(j > -1, "Index out of bounds");
; 2297 : #ifdef AUI_DATABASE_UTILITY_PROPER_2D_ALLOCATION_AND_DESTRUCTION
; 2298 : 	return m_ppaiTerrainYieldChange.first ? (m_ppaiTerrainYieldChange.first)[i][j] : -1;
; 2299 : #else
; 2300 : 	return m_ppaiTerrainYieldChange ? m_ppaiTerrainYieldChange[i][j] : -1;

	or	eax, -1

; 2301 : #endif
; 2302 : }

	ret	8
?GetTerrainYieldChange@CvBuildingEntry@@QBEHHH@Z ENDP	; CvBuildingEntry::GetTerrainYieldChange
_TEXT	ENDS
PUBLIC	?GetTerrainYieldChangeArray@CvBuildingEntry@@QBEPAHH@Z ; CvBuildingEntry::GetTerrainYieldChangeArray
; Function compile flags: /Ogtpy
;	COMDAT ?GetTerrainYieldChangeArray@CvBuildingEntry@@QBEPAHH@Z
_TEXT	SEGMENT
_i$ = 8							; size = 4
?GetTerrainYieldChangeArray@CvBuildingEntry@@QBEPAHH@Z PROC ; CvBuildingEntry::GetTerrainYieldChangeArray, COMDAT
; _this$ = ecx

; 2307 : 	CvAssertMsg(i < GC.getNumTerrainInfos(), "Index out of bounds");
; 2308 : 	CvAssertMsg(i > -1, "Index out of bounds");
; 2309 : #ifdef AUI_DATABASE_UTILITY_PROPER_2D_ALLOCATION_AND_DESTRUCTION
; 2310 : 	return m_ppaiTerrainYieldChange.first ? m_ppaiTerrainYieldChange.first[i] : NULL;
; 2311 : #else
; 2312 : 	return m_ppaiTerrainYieldChange[i];

	mov	eax, DWORD PTR [ecx+992]
	mov	ecx, DWORD PTR _i$[esp-4]
	mov	eax, DWORD PTR [eax+ecx*4]

; 2313 : #endif
; 2314 : }

	ret	4
?GetTerrainYieldChangeArray@CvBuildingEntry@@QBEPAHH@Z ENDP ; CvBuildingEntry::GetTerrainYieldChangeArray
_TEXT	ENDS
PUBLIC	?GetBuildingClassYieldChange@CvBuildingEntry@@QBEHHH@Z ; CvBuildingEntry::GetBuildingClassYieldChange
; Function compile flags: /Ogtpy
;	COMDAT ?GetBuildingClassYieldChange@CvBuildingEntry@@QBEHHH@Z
_TEXT	SEGMENT
_i$ = 8							; size = 4
_j$ = 12						; size = 4
?GetBuildingClassYieldChange@CvBuildingEntry@@QBEHHH@Z PROC ; CvBuildingEntry::GetBuildingClassYieldChange, COMDAT
; _this$ = ecx

; 2319 : 	CvAssertMsg(i < GC.getNumBuildingClassInfos(), "Index out of bounds");
; 2320 : 	CvAssertMsg(i > -1, "Index out of bounds");
; 2321 : 	CvAssertMsg(j < NUM_YIELD_TYPES, "Index out of bounds");
; 2322 : 	CvAssertMsg(j > -1, "Index out of bounds");
; 2323 : #ifdef AUI_DATABASE_UTILITY_PROPER_2D_ALLOCATION_AND_DESTRUCTION
; 2324 : 	return m_ppiBuildingClassYieldChanges.first ? (m_ppiBuildingClassYieldChanges.first)[i][j] : -1;
; 2325 : #else
; 2326 : 	return m_ppiBuildingClassYieldChanges[i][j];

	mov	eax, DWORD PTR [ecx+996]
	mov	ecx, DWORD PTR _i$[esp-4]
	mov	edx, DWORD PTR [eax+ecx*4]
	mov	eax, DWORD PTR _j$[esp-4]
	mov	eax, DWORD PTR [edx+eax*4]

; 2327 : #endif
; 2328 : }

	ret	8
?GetBuildingClassYieldChange@CvBuildingEntry@@QBEHHH@Z ENDP ; CvBuildingEntry::GetBuildingClassYieldChange
_TEXT	ENDS
PUBLIC	?GetBuildingClassHappiness@CvBuildingEntry@@QBEHH@Z ; CvBuildingEntry::GetBuildingClassHappiness
; Function compile flags: /Ogtpy
;	COMDAT ?GetBuildingClassHappiness@CvBuildingEntry@@QBEHH@Z
_TEXT	SEGMENT
_i$ = 8							; size = 4
?GetBuildingClassHappiness@CvBuildingEntry@@QBEHH@Z PROC ; CvBuildingEntry::GetBuildingClassHappiness, COMDAT
; _this$ = ecx

; 2333 : 	CvAssertMsg(i < GC.getNumBuildingClassInfos(), "Index out of bounds");
; 2334 : 	CvAssertMsg(i > -1, "Index out of bounds");
; 2335 : 	return m_paiBuildingClassHappiness ? m_paiBuildingClassHappiness[i] : -1;

	mov	eax, DWORD PTR [ecx+1000]
	test	eax, eax
	je	SHORT $LN3@GetBuildin@2
	mov	ecx, DWORD PTR _i$[esp-4]
	mov	eax, DWORD PTR [eax+ecx*4]

; 2336 : }

	ret	4
$LN3@GetBuildin@2:

; 2333 : 	CvAssertMsg(i < GC.getNumBuildingClassInfos(), "Index out of bounds");
; 2334 : 	CvAssertMsg(i > -1, "Index out of bounds");
; 2335 : 	return m_paiBuildingClassHappiness ? m_paiBuildingClassHappiness[i] : -1;

	or	eax, -1

; 2336 : }

	ret	4
?GetBuildingClassHappiness@CvBuildingEntry@@QBEHH@Z ENDP ; CvBuildingEntry::GetBuildingClassHappiness
_TEXT	ENDS
PUBLIC	?GetThemingBonusInfo@CvBuildingEntry@@QBEPAVCvThemingBonusInfo@@H@Z ; CvBuildingEntry::GetThemingBonusInfo
; Function compile flags: /Ogtpy
;	COMDAT ?GetThemingBonusInfo@CvBuildingEntry@@QBEPAVCvThemingBonusInfo@@H@Z
_TEXT	SEGMENT
_i$ = 8							; size = 4
?GetThemingBonusInfo@CvBuildingEntry@@QBEPAVCvThemingBonusInfo@@H@Z PROC ; CvBuildingEntry::GetThemingBonusInfo, COMDAT
; _this$ = ecx

; 2340 : 	CvAssertMsg(i < MAX_THEMING_BONUSES, "Index out of bounds");
; 2341 : 	CvAssertMsg(i > -1, "Index out of bounds");
; 2342 : 
; 2343 : 	if (m_paThemingBonusInfo[0].m_iBonus == 0)

	mov	ecx, DWORD PTR [ecx+1004]
	cmp	DWORD PTR [ecx], 0
	jne	SHORT $LN2@GetTheming

; 2344 : 	{
; 2345 : 		return NULL;

	xor	eax, eax

; 2350 : 	}
; 2351 : }

	ret	4
$LN2@GetTheming:

; 2346 : 	}
; 2347 : 	else
; 2348 : 	{
; 2349 : 		return &m_paThemingBonusInfo[i];

	mov	eax, DWORD PTR _i$[esp-4]
	lea	eax, DWORD PTR [eax+eax*2]
	shl	eax, 4
	add	eax, ecx

; 2350 : 	}
; 2351 : }

	ret	4
?GetThemingBonusInfo@CvBuildingEntry@@QBEPAVCvThemingBonusInfo@@H@Z ENDP ; CvBuildingEntry::GetThemingBonusInfo
_TEXT	ENDS
PUBLIC	?GetBuildingEntries@CvBuildingXMLEntries@@QAEAAV?$vector@PAVCvBuildingEntry@@V?$allocator@PAVCvBuildingEntry@@@std@@@std@@XZ ; CvBuildingXMLEntries::GetBuildingEntries
; Function compile flags: /Ogtpy
;	COMDAT ?GetBuildingEntries@CvBuildingXMLEntries@@QAEAAV?$vector@PAVCvBuildingEntry@@V?$allocator@PAVCvBuildingEntry@@@std@@@std@@XZ
_TEXT	SEGMENT
?GetBuildingEntries@CvBuildingXMLEntries@@QAEAAV?$vector@PAVCvBuildingEntry@@V?$allocator@PAVCvBuildingEntry@@@std@@@std@@XZ PROC ; CvBuildingXMLEntries::GetBuildingEntries, COMDAT
; _this$ = ecx

; 2370 : {

	mov	eax, ecx

; 2371 : 	return m_paBuildingEntries;
; 2372 : }

	ret	0
?GetBuildingEntries@CvBuildingXMLEntries@@QAEAAV?$vector@PAVCvBuildingEntry@@V?$allocator@PAVCvBuildingEntry@@@std@@@std@@XZ ENDP ; CvBuildingXMLEntries::GetBuildingEntries
_TEXT	ENDS
PUBLIC	?GetBuildings@CvCityBuildings@@QBEPAVCvBuildingXMLEntries@@XZ ; CvCityBuildings::GetBuildings
; Function compile flags: /Ogtpy
;	COMDAT ?GetBuildings@CvCityBuildings@@QBEPAVCvBuildingXMLEntries@@XZ
_TEXT	SEGMENT
?GetBuildings@CvCityBuildings@@QBEPAVCvBuildingXMLEntries@@XZ PROC ; CvCityBuildings::GetBuildings, COMDAT
; _this$ = ecx

; 2607 : 	return m_pBuildings;

	mov	eax, DWORD PTR [ecx+108]

; 2608 : }

	ret	0
?GetBuildings@CvCityBuildings@@QBEPAVCvBuildingXMLEntries@@XZ ENDP ; CvCityBuildings::GetBuildings
_TEXT	ENDS
PUBLIC	?GetNumBuildings@CvCityBuildings@@QBEHXZ	; CvCityBuildings::GetNumBuildings
; Function compile flags: /Ogtpy
;	COMDAT ?GetNumBuildings@CvCityBuildings@@QBEHXZ
_TEXT	SEGMENT
?GetNumBuildings@CvCityBuildings@@QBEHXZ PROC		; CvCityBuildings::GetNumBuildings, COMDAT
; _this$ = ecx

; 2613 : 	return m_iNumBuildings;

	mov	eax, DWORD PTR [ecx]

; 2614 : }

	ret	0
?GetNumBuildings@CvCityBuildings@@QBEHXZ ENDP		; CvCityBuildings::GetNumBuildings
_TEXT	ENDS
PUBLIC	?ChangeNumBuildings@CvCityBuildings@@QAEXH@Z	; CvCityBuildings::ChangeNumBuildings
; Function compile flags: /Ogtpy
;	COMDAT ?ChangeNumBuildings@CvCityBuildings@@QAEXH@Z
_TEXT	SEGMENT
_iChange$ = 8						; size = 4
?ChangeNumBuildings@CvCityBuildings@@QAEXH@Z PROC	; CvCityBuildings::ChangeNumBuildings, COMDAT
; _this$ = ecx

; 2619 : 	m_iNumBuildings = (m_iNumBuildings + iChange);

	mov	eax, DWORD PTR _iChange$[esp-4]
	add	DWORD PTR [ecx], eax

; 2620 : 	CvAssert(GetNumBuildings() >= 0);
; 2621 : 
; 2622 : //	GET_PLAYER(m_pCity->getOwner()).updateNumResourceUsed();
; 2623 : }

	ret	4
?ChangeNumBuildings@CvCityBuildings@@QAEXH@Z ENDP	; CvCityBuildings::ChangeNumBuildings
_TEXT	ENDS
PUBLIC	?IsSoldBuildingThisTurn@CvCityBuildings@@QBE_NXZ ; CvCityBuildings::IsSoldBuildingThisTurn
; Function compile flags: /Ogtpy
;	COMDAT ?IsSoldBuildingThisTurn@CvCityBuildings@@QBE_NXZ
_TEXT	SEGMENT
?IsSoldBuildingThisTurn@CvCityBuildings@@QBE_NXZ PROC	; CvCityBuildings::IsSoldBuildingThisTurn, COMDAT
; _this$ = ecx

; 2765 : 	return m_bSoldBuildingThisTurn;

	mov	al, BYTE PTR [ecx+32]

; 2766 : }

	ret	0
?IsSoldBuildingThisTurn@CvCityBuildings@@QBE_NXZ ENDP	; CvCityBuildings::IsSoldBuildingThisTurn
_TEXT	ENDS
PUBLIC	?SetSoldBuildingThisTurn@CvCityBuildings@@QAEX_N@Z ; CvCityBuildings::SetSoldBuildingThisTurn
; Function compile flags: /Ogtpy
;	COMDAT ?SetSoldBuildingThisTurn@CvCityBuildings@@QAEX_N@Z
_TEXT	SEGMENT
_bValue$ = 8						; size = 1
?SetSoldBuildingThisTurn@CvCityBuildings@@QAEX_N@Z PROC	; CvCityBuildings::SetSoldBuildingThisTurn, COMDAT
; _this$ = ecx

; 2771 : 	if(IsSoldBuildingThisTurn() != bValue)

	mov	al, BYTE PTR _bValue$[esp-4]
	cmp	BYTE PTR [ecx+32], al
	je	SHORT $LN1@SetSoldBui

; 2772 : 		m_bSoldBuildingThisTurn = bValue;

	mov	BYTE PTR [ecx+32], al
$LN1@SetSoldBui:

; 2773 : }

	ret	4
?SetSoldBuildingThisTurn@CvCityBuildings@@QAEX_N@Z ENDP	; CvCityBuildings::SetSoldBuildingThisTurn
_TEXT	ENDS
PUBLIC	?GetBuildingProduction@CvCityBuildings@@QBEHW4BuildingTypes@@@Z ; CvCityBuildings::GetBuildingProduction
; Function compile flags: /Ogtpy
;	COMDAT ?GetBuildingProduction@CvCityBuildings@@QBEHW4BuildingTypes@@@Z
_TEXT	SEGMENT
_eIndex$ = 8						; size = 4
?GetBuildingProduction@CvCityBuildings@@QBEHW4BuildingTypes@@@Z PROC ; CvCityBuildings::GetBuildingProduction, COMDAT
; _this$ = ecx

; 2802 : 	CvAssertMsg(eIndex >= 0, "eIndex expected to be >= 0");
; 2803 : 	CvAssertMsg(eIndex < m_pBuildings->GetNumBuildings(), "eIndex expected to be < m_pBuildings->GetNumBuildings()");
; 2804 : 	return m_paiBuildingProduction[eIndex] / 100;

	mov	eax, DWORD PTR [ecx+36]
	mov	ecx, DWORD PTR _eIndex$[esp-4]
	mov	ecx, DWORD PTR [eax+ecx*4]
	mov	eax, 1374389535				; 51eb851fH
	imul	ecx
	sar	edx, 5
	mov	eax, edx
	shr	eax, 31					; 0000001fH
	add	eax, edx

; 2805 : }

	ret	4
?GetBuildingProduction@CvCityBuildings@@QBEHW4BuildingTypes@@@Z ENDP ; CvCityBuildings::GetBuildingProduction
_TEXT	ENDS
PUBLIC	?GetBuildingProductionTimes100@CvCityBuildings@@QBEHW4BuildingTypes@@@Z ; CvCityBuildings::GetBuildingProductionTimes100
; Function compile flags: /Ogtpy
;	COMDAT ?GetBuildingProductionTimes100@CvCityBuildings@@QBEHW4BuildingTypes@@@Z
_TEXT	SEGMENT
_eIndex$ = 8						; size = 4
?GetBuildingProductionTimes100@CvCityBuildings@@QBEHW4BuildingTypes@@@Z PROC ; CvCityBuildings::GetBuildingProductionTimes100, COMDAT
; _this$ = ecx

; 2810 : 	CvAssertMsg(eIndex >= 0, "eIndex expected to be >= 0");
; 2811 : 	CvAssertMsg(eIndex < m_pBuildings->GetNumBuildings(), "eIndex expected to be < m_pBuildings->GetNumBuildings()");
; 2812 : 	return m_paiBuildingProduction[eIndex];

	mov	eax, DWORD PTR [ecx+36]
	mov	ecx, DWORD PTR _eIndex$[esp-4]
	mov	eax, DWORD PTR [eax+ecx*4]

; 2813 : }

	ret	4
?GetBuildingProductionTimes100@CvCityBuildings@@QBEHW4BuildingTypes@@@Z ENDP ; CvCityBuildings::GetBuildingProductionTimes100
_TEXT	ENDS
PUBLIC	?GetBuildingProductionTime@CvCityBuildings@@QBEHW4BuildingTypes@@@Z ; CvCityBuildings::GetBuildingProductionTime
; Function compile flags: /Ogtpy
;	COMDAT ?GetBuildingProductionTime@CvCityBuildings@@QBEHW4BuildingTypes@@@Z
_TEXT	SEGMENT
_eIndex$ = 8						; size = 4
?GetBuildingProductionTime@CvCityBuildings@@QBEHW4BuildingTypes@@@Z PROC ; CvCityBuildings::GetBuildingProductionTime, COMDAT
; _this$ = ecx

; 2863 : 	CvAssertMsg(eIndex >= 0, "eIndex expected to be >= 0");
; 2864 : 	CvAssertMsg(eIndex < m_pBuildings->GetNumBuildings(), "eIndex expected to be < m_pBuildings->GetNumBuildings()");
; 2865 : 	return m_paiBuildingProductionTime[eIndex];

	mov	eax, DWORD PTR [ecx+40]
	mov	ecx, DWORD PTR _eIndex$[esp-4]
	mov	eax, DWORD PTR [eax+ecx*4]

; 2866 : }

	ret	4
?GetBuildingProductionTime@CvCityBuildings@@QBEHW4BuildingTypes@@@Z ENDP ; CvCityBuildings::GetBuildingProductionTime
_TEXT	ENDS
PUBLIC	?SetBuildingProductionTime@CvCityBuildings@@QAEXW4BuildingTypes@@H@Z ; CvCityBuildings::SetBuildingProductionTime
; Function compile flags: /Ogtpy
;	COMDAT ?SetBuildingProductionTime@CvCityBuildings@@QAEXW4BuildingTypes@@H@Z
_TEXT	SEGMENT
_eIndex$ = 8						; size = 4
_iNewValue$ = 12					; size = 4
?SetBuildingProductionTime@CvCityBuildings@@QAEXW4BuildingTypes@@H@Z PROC ; CvCityBuildings::SetBuildingProductionTime, COMDAT
; _this$ = ecx

; 2871 : 	CvAssertMsg(eIndex >= 0, "eIndex expected to be >= 0");
; 2872 : 	CvAssertMsg(eIndex < m_pBuildings->GetNumBuildings(), "eIndex expected to be < m_pBuildings->GetNumBuildings()");
; 2873 : 	m_paiBuildingProductionTime[eIndex] = iNewValue;

	mov	eax, DWORD PTR [ecx+40]
	mov	ecx, DWORD PTR _iNewValue$[esp-4]
	mov	edx, DWORD PTR _eIndex$[esp-4]
	mov	DWORD PTR [eax+edx*4], ecx

; 2874 : 	CvAssert(GetBuildingProductionTime(eIndex) >= 0);
; 2875 : }

	ret	8
?SetBuildingProductionTime@CvCityBuildings@@QAEXW4BuildingTypes@@H@Z ENDP ; CvCityBuildings::SetBuildingProductionTime
_TEXT	ENDS
PUBLIC	?ChangeBuildingProductionTime@CvCityBuildings@@QAEXW4BuildingTypes@@H@Z ; CvCityBuildings::ChangeBuildingProductionTime
; Function compile flags: /Ogtpy
;	COMDAT ?ChangeBuildingProductionTime@CvCityBuildings@@QAEXW4BuildingTypes@@H@Z
_TEXT	SEGMENT
_eIndex$ = 8						; size = 4
_iChange$ = 12						; size = 4
?ChangeBuildingProductionTime@CvCityBuildings@@QAEXW4BuildingTypes@@H@Z PROC ; CvCityBuildings::ChangeBuildingProductionTime, COMDAT
; _this$ = ecx

; 2880 : 	SetBuildingProductionTime(eIndex, (GetBuildingProductionTime(eIndex) + iChange));

	mov	eax, DWORD PTR [ecx+40]
	mov	ecx, DWORD PTR _eIndex$[esp-4]
	mov	edx, DWORD PTR _iChange$[esp-4]
	add	DWORD PTR [eax+ecx*4], edx
	lea	eax, DWORD PTR [eax+ecx*4]

; 2881 : }

	ret	8
?ChangeBuildingProductionTime@CvCityBuildings@@QAEXW4BuildingTypes@@H@Z ENDP ; CvCityBuildings::ChangeBuildingProductionTime
_TEXT	ENDS
PUBLIC	?GetBuildingOriginalOwner@CvCityBuildings@@QBEHW4BuildingTypes@@@Z ; CvCityBuildings::GetBuildingOriginalOwner
; Function compile flags: /Ogtpy
;	COMDAT ?GetBuildingOriginalOwner@CvCityBuildings@@QBEHW4BuildingTypes@@@Z
_TEXT	SEGMENT
_eIndex$ = 8						; size = 4
?GetBuildingOriginalOwner@CvCityBuildings@@QBEHW4BuildingTypes@@@Z PROC ; CvCityBuildings::GetBuildingOriginalOwner, COMDAT
; _this$ = ecx

; 2886 : 	CvAssertMsg(eIndex >= 0, "eIndex expected to be >= 0");
; 2887 : 	CvAssertMsg(eIndex < m_pBuildings->GetNumBuildings(), "eIndex expected to be < m_pBuildings->GetNumBuildings()");
; 2888 : 	return m_paiBuildingOriginalOwner[eIndex];

	mov	eax, DWORD PTR [ecx+44]
	mov	ecx, DWORD PTR _eIndex$[esp-4]
	mov	eax, DWORD PTR [eax+ecx*4]

; 2889 : }

	ret	4
?GetBuildingOriginalOwner@CvCityBuildings@@QBEHW4BuildingTypes@@@Z ENDP ; CvCityBuildings::GetBuildingOriginalOwner
_TEXT	ENDS
PUBLIC	?SetBuildingOriginalOwner@CvCityBuildings@@QAEXW4BuildingTypes@@H@Z ; CvCityBuildings::SetBuildingOriginalOwner
; Function compile flags: /Ogtpy
;	COMDAT ?SetBuildingOriginalOwner@CvCityBuildings@@QAEXW4BuildingTypes@@H@Z
_TEXT	SEGMENT
_eIndex$ = 8						; size = 4
_iNewValue$ = 12					; size = 4
?SetBuildingOriginalOwner@CvCityBuildings@@QAEXW4BuildingTypes@@H@Z PROC ; CvCityBuildings::SetBuildingOriginalOwner, COMDAT
; _this$ = ecx

; 2894 : 	CvAssertMsg(eIndex >= 0, "eIndex expected to be >= 0");
; 2895 : 	CvAssertMsg(eIndex < m_pBuildings->GetNumBuildings(), "eIndex expected to be < m_pBuildings->GetNumBuildings()");
; 2896 : 	m_paiBuildingOriginalOwner[eIndex] = iNewValue;

	mov	eax, DWORD PTR [ecx+44]
	mov	ecx, DWORD PTR _iNewValue$[esp-4]
	mov	edx, DWORD PTR _eIndex$[esp-4]
	mov	DWORD PTR [eax+edx*4], ecx

; 2897 : }

	ret	8
?SetBuildingOriginalOwner@CvCityBuildings@@QAEXW4BuildingTypes@@H@Z ENDP ; CvCityBuildings::SetBuildingOriginalOwner
_TEXT	ENDS
PUBLIC	?GetBuildingOriginalTime@CvCityBuildings@@QBEHW4BuildingTypes@@@Z ; CvCityBuildings::GetBuildingOriginalTime
; Function compile flags: /Ogtpy
;	COMDAT ?GetBuildingOriginalTime@CvCityBuildings@@QBEHW4BuildingTypes@@@Z
_TEXT	SEGMENT
_eIndex$ = 8						; size = 4
?GetBuildingOriginalTime@CvCityBuildings@@QBEHW4BuildingTypes@@@Z PROC ; CvCityBuildings::GetBuildingOriginalTime, COMDAT
; _this$ = ecx

; 2902 : 	CvAssertMsg(eIndex >= 0, "eIndex expected to be >= 0");
; 2903 : 	CvAssertMsg(eIndex < m_pBuildings->GetNumBuildings(), "eIndex expected to be < m_pBuildings->GetNumBuildings()");
; 2904 : 	return m_paiBuildingOriginalTime[eIndex];

	mov	eax, DWORD PTR [ecx+48]
	mov	ecx, DWORD PTR _eIndex$[esp-4]
	mov	eax, DWORD PTR [eax+ecx*4]

; 2905 : }

	ret	4
?GetBuildingOriginalTime@CvCityBuildings@@QBEHW4BuildingTypes@@@Z ENDP ; CvCityBuildings::GetBuildingOriginalTime
_TEXT	ENDS
PUBLIC	?SetBuildingOriginalTime@CvCityBuildings@@QAEXW4BuildingTypes@@H@Z ; CvCityBuildings::SetBuildingOriginalTime
; Function compile flags: /Ogtpy
;	COMDAT ?SetBuildingOriginalTime@CvCityBuildings@@QAEXW4BuildingTypes@@H@Z
_TEXT	SEGMENT
_eIndex$ = 8						; size = 4
_iNewValue$ = 12					; size = 4
?SetBuildingOriginalTime@CvCityBuildings@@QAEXW4BuildingTypes@@H@Z PROC ; CvCityBuildings::SetBuildingOriginalTime, COMDAT
; _this$ = ecx

; 2910 : 	CvAssertMsg(eIndex >= 0, "eIndex expected to be >= 0");
; 2911 : 	CvAssertMsg(eIndex < m_pBuildings->GetNumBuildings(), "eIndex expected to be < m_pBuildings->GetNumBuildings()");
; 2912 : 	m_paiBuildingOriginalTime[eIndex] = iNewValue;

	mov	eax, DWORD PTR [ecx+48]
	mov	ecx, DWORD PTR _iNewValue$[esp-4]
	mov	edx, DWORD PTR _eIndex$[esp-4]
	mov	DWORD PTR [eax+edx*4], ecx

; 2913 : }

	ret	8
?SetBuildingOriginalTime@CvCityBuildings@@QAEXW4BuildingTypes@@H@Z ENDP ; CvCityBuildings::SetBuildingOriginalTime
_TEXT	ENDS
PUBLIC	?GetNumRealBuilding@CvCityBuildings@@QBEHW4BuildingTypes@@@Z ; CvCityBuildings::GetNumRealBuilding
; Function compile flags: /Ogtpy
;	COMDAT ?GetNumRealBuilding@CvCityBuildings@@QBEHW4BuildingTypes@@@Z
_TEXT	SEGMENT
_eIndex$ = 8						; size = 4
?GetNumRealBuilding@CvCityBuildings@@QBEHW4BuildingTypes@@@Z PROC ; CvCityBuildings::GetNumRealBuilding, COMDAT
; _this$ = ecx

; 2918 : 	CvAssertMsg(eIndex >= 0, "eIndex expected to be >= 0");
; 2919 : 	CvAssertMsg(eIndex < m_pBuildings->GetNumBuildings(), "eIndex expected to be < m_pBuildings->GetNumBuildings()");
; 2920 : 	return m_paiNumRealBuilding[eIndex];

	mov	eax, DWORD PTR [ecx+52]
	mov	ecx, DWORD PTR _eIndex$[esp-4]
	mov	eax, DWORD PTR [eax+ecx*4]

; 2921 : }

	ret	4
?GetNumRealBuilding@CvCityBuildings@@QBEHW4BuildingTypes@@@Z ENDP ; CvCityBuildings::GetNumRealBuilding
_TEXT	ENDS
PUBLIC	?GetNumFreeBuilding@CvCityBuildings@@QBEHW4BuildingTypes@@@Z ; CvCityBuildings::GetNumFreeBuilding
; Function compile flags: /Ogtpy
;	COMDAT ?GetNumFreeBuilding@CvCityBuildings@@QBEHW4BuildingTypes@@@Z
_TEXT	SEGMENT
_eIndex$ = 8						; size = 4
?GetNumFreeBuilding@CvCityBuildings@@QBEHW4BuildingTypes@@@Z PROC ; CvCityBuildings::GetNumFreeBuilding, COMDAT
; _this$ = ecx

; 3160 : 	CvAssertMsg(eIndex >= 0, "eIndex expected to be >= 0");
; 3161 : 	CvAssertMsg(eIndex < m_pBuildings->GetNumBuildings(), "eIndex expected to be < m_pBuildings->GetNumBuildings()");
; 3162 : 	return m_paiNumFreeBuilding[eIndex];

	mov	eax, DWORD PTR [ecx+56]
	mov	ecx, DWORD PTR _eIndex$[esp-4]
	mov	eax, DWORD PTR [eax+ecx*4]

; 3163 : }

	ret	4
?GetNumFreeBuilding@CvCityBuildings@@QBEHW4BuildingTypes@@@Z ENDP ; CvCityBuildings::GetNumFreeBuilding
_TEXT	ENDS
PUBLIC	?GetLandmarksTourismPercent@CvCityBuildings@@QBEHXZ ; CvCityBuildings::GetLandmarksTourismPercent
; Function compile flags: /Ogtpy
;	COMDAT ?GetLandmarksTourismPercent@CvCityBuildings@@QBEHXZ
_TEXT	SEGMENT
?GetLandmarksTourismPercent@CvCityBuildings@@QBEHXZ PROC ; CvCityBuildings::GetLandmarksTourismPercent, COMDAT
; _this$ = ecx

; 3682 : 	return m_iLandmarksTourismPercent;

	mov	eax, DWORD PTR [ecx+24]

; 3683 : }

	ret	0
?GetLandmarksTourismPercent@CvCityBuildings@@QBEHXZ ENDP ; CvCityBuildings::GetLandmarksTourismPercent
_TEXT	ENDS
PUBLIC	?ChangeLandmarksTourismPercent@CvCityBuildings@@QAEXH@Z ; CvCityBuildings::ChangeLandmarksTourismPercent
; Function compile flags: /Ogtpy
;	COMDAT ?ChangeLandmarksTourismPercent@CvCityBuildings@@QAEXH@Z
_TEXT	SEGMENT
_iChange$ = 8						; size = 4
?ChangeLandmarksTourismPercent@CvCityBuildings@@QAEXH@Z PROC ; CvCityBuildings::ChangeLandmarksTourismPercent, COMDAT
; _this$ = ecx

; 3688 : 	if(iChange != 0)

	mov	eax, DWORD PTR _iChange$[esp-4]
	test	eax, eax
	je	SHORT $LN1@ChangeLand

; 3689 : 	{
; 3690 : 		m_iLandmarksTourismPercent = (m_iLandmarksTourismPercent + iChange);

	add	DWORD PTR [ecx+24], eax
$LN1@ChangeLand:

; 3691 : 		CvAssert(m_iLandmarksTourismPercent >= 0);
; 3692 : 	}
; 3693 : }

	ret	4
?ChangeLandmarksTourismPercent@CvCityBuildings@@QAEXH@Z ENDP ; CvCityBuildings::ChangeLandmarksTourismPercent
_TEXT	ENDS
PUBLIC	?GetGreatWorksTourismModifier@CvCityBuildings@@QBEHXZ ; CvCityBuildings::GetGreatWorksTourismModifier
; Function compile flags: /Ogtpy
;	COMDAT ?GetGreatWorksTourismModifier@CvCityBuildings@@QBEHXZ
_TEXT	SEGMENT
?GetGreatWorksTourismModifier@CvCityBuildings@@QBEHXZ PROC ; CvCityBuildings::GetGreatWorksTourismModifier, COMDAT
; _this$ = ecx

; 3698 : 	return m_iGreatWorksTourismModifier;

	mov	eax, DWORD PTR [ecx+28]

; 3699 : }

	ret	0
?GetGreatWorksTourismModifier@CvCityBuildings@@QBEHXZ ENDP ; CvCityBuildings::GetGreatWorksTourismModifier
_TEXT	ENDS
PUBLIC	?ChangeGreatWorksTourismModifier@CvCityBuildings@@QAEXH@Z ; CvCityBuildings::ChangeGreatWorksTourismModifier
; Function compile flags: /Ogtpy
;	COMDAT ?ChangeGreatWorksTourismModifier@CvCityBuildings@@QAEXH@Z
_TEXT	SEGMENT
_iChange$ = 8						; size = 4
?ChangeGreatWorksTourismModifier@CvCityBuildings@@QAEXH@Z PROC ; CvCityBuildings::ChangeGreatWorksTourismModifier, COMDAT
; _this$ = ecx

; 3704 : 	if(iChange != 0)

	mov	eax, DWORD PTR _iChange$[esp-4]
	test	eax, eax
	je	SHORT $LN1@ChangeGrea

; 3705 : 	{
; 3706 : 		m_iGreatWorksTourismModifier = (m_iGreatWorksTourismModifier + iChange);

	add	DWORD PTR [ecx+28], eax
$LN1@ChangeGrea:

; 3707 : 		CvAssert(m_iGreatWorksTourismModifier >= 0);
; 3708 : 	}
; 3709 : }

	ret	4
?ChangeGreatWorksTourismModifier@CvCityBuildings@@QAEXH@Z ENDP ; CvCityBuildings::ChangeGreatWorksTourismModifier
_TEXT	ENDS
PUBLIC	?GetBuildingProductionModifier@CvCityBuildings@@QBEHXZ ; CvCityBuildings::GetBuildingProductionModifier
; Function compile flags: /Ogtpy
;	COMDAT ?GetBuildingProductionModifier@CvCityBuildings@@QBEHXZ
_TEXT	SEGMENT
?GetBuildingProductionModifier@CvCityBuildings@@QBEHXZ PROC ; CvCityBuildings::GetBuildingProductionModifier, COMDAT
; _this$ = ecx

; 3854 : 	return m_iBuildingProductionModifier;

	mov	eax, DWORD PTR [ecx+4]

; 3855 : }

	ret	0
?GetBuildingProductionModifier@CvCityBuildings@@QBEHXZ ENDP ; CvCityBuildings::GetBuildingProductionModifier
_TEXT	ENDS
PUBLIC	?ChangeBuildingProductionModifier@CvCityBuildings@@QAEXH@Z ; CvCityBuildings::ChangeBuildingProductionModifier
; Function compile flags: /Ogtpy
;	COMDAT ?ChangeBuildingProductionModifier@CvCityBuildings@@QAEXH@Z
_TEXT	SEGMENT
_iChange$ = 8						; size = 4
?ChangeBuildingProductionModifier@CvCityBuildings@@QAEXH@Z PROC ; CvCityBuildings::ChangeBuildingProductionModifier, COMDAT
; _this$ = ecx

; 3860 : 	m_iBuildingProductionModifier = (m_iBuildingProductionModifier + iChange);

	mov	eax, DWORD PTR _iChange$[esp-4]
	add	DWORD PTR [ecx+4], eax

; 3861 : 	CvAssert(GetBuildingProductionModifier() >= 0);
; 3862 : }

	ret	4
?ChangeBuildingProductionModifier@CvCityBuildings@@QAEXH@Z ENDP ; CvCityBuildings::ChangeBuildingProductionModifier
_TEXT	ENDS
PUBLIC	?GetBuildingDefense@CvCityBuildings@@QBEHXZ	; CvCityBuildings::GetBuildingDefense
; Function compile flags: /Ogtpy
;	COMDAT ?GetBuildingDefense@CvCityBuildings@@QBEHXZ
_TEXT	SEGMENT
?GetBuildingDefense@CvCityBuildings@@QBEHXZ PROC	; CvCityBuildings::GetBuildingDefense, COMDAT
; _this$ = ecx

; 3867 : 	return m_iBuildingDefense;

	mov	eax, DWORD PTR [ecx+8]

; 3868 : }

	ret	0
?GetBuildingDefense@CvCityBuildings@@QBEHXZ ENDP	; CvCityBuildings::GetBuildingDefense
_TEXT	ENDS
PUBLIC	?ChangeBuildingDefense@CvCityBuildings@@QAEXH@Z	; CvCityBuildings::ChangeBuildingDefense
EXTRN	?plotAction@CvPlot@@QAEXP6A_NPAVCvUnit@@HH@ZHHW4PlayerTypes@@W4TeamTypes@@@Z:PROC ; CvPlot::plotAction
EXTRN	?plot@CvCity@@QBEPAVCvPlot@@XZ:PROC		; CvCity::plot
EXTRN	?PUF_makeInfoBarDirty@@YA_NPAVCvUnit@@HH@Z:PROC	; PUF_makeInfoBarDirty
; Function compile flags: /Ogtpy
;	COMDAT ?ChangeBuildingDefense@CvCityBuildings@@QAEXH@Z
_TEXT	SEGMENT
_iChange$ = 8						; size = 4
?ChangeBuildingDefense@CvCityBuildings@@QAEXH@Z PROC	; CvCityBuildings::ChangeBuildingDefense, COMDAT
; _this$ = ecx

; 3873 : 	if(iChange != 0)

	mov	eax, DWORD PTR _iChange$[esp-4]
	test	eax, eax
	je	SHORT $LN1@ChangeBuil

; 3874 : 	{
; 3875 : 		m_iBuildingDefense = (m_iBuildingDefense + iChange);

	add	DWORD PTR [ecx+8], eax

; 3876 : 		CvAssert(GetBuildingDefense() >= 0);
; 3877 : 
; 3878 : 		m_pCity->plot()->plotAction(PUF_makeInfoBarDirty);

	mov	ecx, DWORD PTR [ecx+112]
	push	-1
	push	-1
	push	-1
	push	-1
	push	OFFSET ?PUF_makeInfoBarDirty@@YA_NPAVCvUnit@@HH@Z ; PUF_makeInfoBarDirty
	call	?plot@CvCity@@QBEPAVCvPlot@@XZ		; CvCity::plot
	mov	ecx, eax
	call	?plotAction@CvPlot@@QAEXP6A_NPAVCvUnit@@HH@ZHHW4PlayerTypes@@W4TeamTypes@@@Z ; CvPlot::plotAction
$LN1@ChangeBuil:

; 3879 : 	}
; 3880 : }

	ret	4
?ChangeBuildingDefense@CvCityBuildings@@QAEXH@Z ENDP	; CvCityBuildings::ChangeBuildingDefense
_TEXT	ENDS
PUBLIC	?GetBuildingDefensePerCitizen@CvCityBuildings@@QBEHXZ ; CvCityBuildings::GetBuildingDefensePerCitizen
; Function compile flags: /Ogtpy
;	COMDAT ?GetBuildingDefensePerCitizen@CvCityBuildings@@QBEHXZ
_TEXT	SEGMENT
?GetBuildingDefensePerCitizen@CvCityBuildings@@QBEHXZ PROC ; CvCityBuildings::GetBuildingDefensePerCitizen, COMDAT
; _this$ = ecx

; 3886 : 	return m_iBuildingDefensePerCitizen;

	mov	eax, DWORD PTR [ecx+12]

; 3887 : }

	ret	0
?GetBuildingDefensePerCitizen@CvCityBuildings@@QBEHXZ ENDP ; CvCityBuildings::GetBuildingDefensePerCitizen
_TEXT	ENDS
PUBLIC	?ChangeBuildingDefensePerCitizen@CvCityBuildings@@QAEXH@Z ; CvCityBuildings::ChangeBuildingDefensePerCitizen
; Function compile flags: /Ogtpy
;	COMDAT ?ChangeBuildingDefensePerCitizen@CvCityBuildings@@QAEXH@Z
_TEXT	SEGMENT
_iChange$ = 8						; size = 4
?ChangeBuildingDefensePerCitizen@CvCityBuildings@@QAEXH@Z PROC ; CvCityBuildings::ChangeBuildingDefensePerCitizen, COMDAT
; _this$ = ecx

; 3892 : 	if(iChange != 0)

	mov	eax, DWORD PTR _iChange$[esp-4]
	test	eax, eax
	je	SHORT $LN1@ChangeBuil@2

; 3893 : 	{
; 3894 : 		m_iBuildingDefensePerCitizen = (m_iBuildingDefensePerCitizen + iChange);

	add	DWORD PTR [ecx+12], eax

; 3895 : 		CvAssert(GetBuildingDefensePerCitizen() >= 0);
; 3896 : 
; 3897 : 		m_pCity->plot()->plotAction(PUF_makeInfoBarDirty);

	mov	ecx, DWORD PTR [ecx+112]
	push	-1
	push	-1
	push	-1
	push	-1
	push	OFFSET ?PUF_makeInfoBarDirty@@YA_NPAVCvUnit@@HH@Z ; PUF_makeInfoBarDirty
	call	?plot@CvCity@@QBEPAVCvPlot@@XZ		; CvCity::plot
	mov	ecx, eax
	call	?plotAction@CvPlot@@QAEXP6A_NPAVCvUnit@@HH@ZHHW4PlayerTypes@@W4TeamTypes@@@Z ; CvPlot::plotAction
$LN1@ChangeBuil@2:

; 3898 : 	}
; 3899 : }

	ret	4
?ChangeBuildingDefensePerCitizen@CvCityBuildings@@QAEXH@Z ENDP ; CvCityBuildings::ChangeBuildingDefensePerCitizen
_TEXT	ENDS
PUBLIC	?GetBuildingDefenseMod@CvCityBuildings@@QBEHXZ	; CvCityBuildings::GetBuildingDefenseMod
; Function compile flags: /Ogtpy
;	COMDAT ?GetBuildingDefenseMod@CvCityBuildings@@QBEHXZ
_TEXT	SEGMENT
?GetBuildingDefenseMod@CvCityBuildings@@QBEHXZ PROC	; CvCityBuildings::GetBuildingDefenseMod, COMDAT
; _this$ = ecx

; 3906 : 	return m_iBuildingDefenseMod;

	mov	eax, DWORD PTR [ecx+16]

; 3907 : }

	ret	0
?GetBuildingDefenseMod@CvCityBuildings@@QBEHXZ ENDP	; CvCityBuildings::GetBuildingDefenseMod
_TEXT	ENDS
PUBLIC	?ChangeBuildingDefenseMod@CvCityBuildings@@QAEXH@Z ; CvCityBuildings::ChangeBuildingDefenseMod
; Function compile flags: /Ogtpy
;	COMDAT ?ChangeBuildingDefenseMod@CvCityBuildings@@QAEXH@Z
_TEXT	SEGMENT
_iChange$ = 8						; size = 4
?ChangeBuildingDefenseMod@CvCityBuildings@@QAEXH@Z PROC	; CvCityBuildings::ChangeBuildingDefenseMod, COMDAT
; _this$ = ecx

; 3912 : 	if(iChange != 0)

	mov	eax, DWORD PTR _iChange$[esp-4]
	test	eax, eax
	je	SHORT $LN1@ChangeBuil@3

; 3913 : 	{
; 3914 : 		m_iBuildingDefenseMod = (m_iBuildingDefenseMod + iChange);

	add	DWORD PTR [ecx+16], eax

; 3915 : 		CvAssert(m_iBuildingDefenseMod >= 0);
; 3916 : 
; 3917 : 		m_pCity->plot()->plotAction(PUF_makeInfoBarDirty);

	mov	ecx, DWORD PTR [ecx+112]
	push	-1
	push	-1
	push	-1
	push	-1
	push	OFFSET ?PUF_makeInfoBarDirty@@YA_NPAVCvUnit@@HH@Z ; PUF_makeInfoBarDirty
	call	?plot@CvCity@@QBEPAVCvPlot@@XZ		; CvCity::plot
	mov	ecx, eax
	call	?plotAction@CvPlot@@QAEXP6A_NPAVCvUnit@@HH@ZHHW4PlayerTypes@@W4TeamTypes@@@Z ; CvPlot::plotAction
$LN1@ChangeBuil@3:

; 3918 : 	}
; 3919 : }

	ret	4
?ChangeBuildingDefenseMod@CvCityBuildings@@QAEXH@Z ENDP	; CvCityBuildings::ChangeBuildingDefenseMod
_TEXT	ENDS
PUBLIC	?GetMissionaryExtraSpreads@CvCityBuildings@@QBEHXZ ; CvCityBuildings::GetMissionaryExtraSpreads
; Function compile flags: /Ogtpy
;	COMDAT ?GetMissionaryExtraSpreads@CvCityBuildings@@QBEHXZ
_TEXT	SEGMENT
?GetMissionaryExtraSpreads@CvCityBuildings@@QBEHXZ PROC	; CvCityBuildings::GetMissionaryExtraSpreads, COMDAT
; _this$ = ecx

; 3924 : 	return m_iMissionaryExtraSpreads;

	mov	eax, DWORD PTR [ecx+20]

; 3925 : }

	ret	0
?GetMissionaryExtraSpreads@CvCityBuildings@@QBEHXZ ENDP	; CvCityBuildings::GetMissionaryExtraSpreads
_TEXT	ENDS
PUBLIC	?ChangeMissionaryExtraSpreads@CvCityBuildings@@QAEXH@Z ; CvCityBuildings::ChangeMissionaryExtraSpreads
; Function compile flags: /Ogtpy
;	COMDAT ?ChangeMissionaryExtraSpreads@CvCityBuildings@@QAEXH@Z
_TEXT	SEGMENT
_iChange$ = 8						; size = 4
?ChangeMissionaryExtraSpreads@CvCityBuildings@@QAEXH@Z PROC ; CvCityBuildings::ChangeMissionaryExtraSpreads, COMDAT
; _this$ = ecx

; 3930 : 	if(iChange != 0)

	mov	eax, DWORD PTR _iChange$[esp-4]
	test	eax, eax
	je	SHORT $LN1@ChangeMiss

; 3931 : 	{
; 3932 : 		m_iMissionaryExtraSpreads = (m_iMissionaryExtraSpreads + iChange);

	add	DWORD PTR [ecx+20], eax
$LN1@ChangeMiss:

; 3933 : 		CvAssert(m_iMissionaryExtraSpreads >= 0);
; 3934 : 	}
; 3935 : }

	ret	4
?ChangeMissionaryExtraSpreads@CvCityBuildings@@QAEXH@Z ENDP ; CvCityBuildings::ChangeMissionaryExtraSpreads
_TEXT	ENDS
PUBLIC	?NotifyNewBuildingStarted@CvCityBuildings@@AAEXW4BuildingTypes@@@Z ; CvCityBuildings::NotifyNewBuildingStarted
; Function compile flags: /Ogtpy
;	COMDAT ?NotifyNewBuildingStarted@CvCityBuildings@@AAEXW4BuildingTypes@@@Z
_TEXT	SEGMENT
___formal$ = 8						; size = 4
?NotifyNewBuildingStarted@CvCityBuildings@@AAEXW4BuildingTypes@@@Z PROC ; CvCityBuildings::NotifyNewBuildingStarted, COMDAT
; _this$ = ecx

; 4178 : 	// JON: Disabling this notification
; 4179 : 	return;
; 4180 : 
; 4181 : 	// is this city starting a wonder? If so, send a notification
; 4182 : 	//CvBuildingEntry* buildingEntry = GC.getBuildingInfo(eIndex);
; 4183 : 	//if (isLimitedWonderClass((BuildingClassTypes)(buildingEntry->GetBuildingClassType())) && GetBuildingProductionTimes100(eIndex) == 0)
; 4184 : 	//{
; 4185 : 	//	Localization::String locString;
; 4186 : 	//	Localization::String locSummaryString;
; 4187 : 
; 4188 : 	//	for (uint ui = 0; ui < MAX_MAJOR_CIVS; ui++)
; 4189 : 	//	{
; 4190 : 	//		PlayerTypes ePlayer = (PlayerTypes)ui;
; 4191 : 
; 4192 : 	//		if (ePlayer == m_pCity->getOwner() || !GET_PLAYER(ePlayer).isAlive())
; 4193 : 	//		{
; 4194 : 	//			continue;
; 4195 : 	//		}
; 4196 : 
; 4197 : 	//		int iX = -1;
; 4198 : 	//		int iY = -1;
; 4199 : 	//		int iPlayerID = -1;
; 4200 : 
; 4201 : 	//		if (GET_TEAM(m_pCity->getTeam()).isHasMet(GET_PLAYER(ePlayer).getTeam()))
; 4202 : 	//		{
; 4203 : 	//			if (m_pCity->isRevealed(GET_PLAYER(ePlayer).getTeam(), false))
; 4204 : 	//			{
; 4205 : 	//				locString = Localization::Lookup("TXT_KEY_NOTIFICATION_WONDER_STARTED");
; 4206 : 	//				locString << GET_PLAYER(m_pCity->getOwner()).getNameKey() << buildingEntry->GetTextKey() << m_pCity->getNameKey();
; 4207 : 	//			}
; 4208 : 	//			else
; 4209 : 	//			{
; 4210 : 	//				locString = Localization::Lookup("TXT_KEY_NOTIFICATION_WONDER_STARTED_UNKNOWN_LOCATION");
; 4211 : 	//				locString << GET_PLAYER(m_pCity->getOwner()).getNameKey() << buildingEntry->GetTextKey();
; 4212 : 	//			}
; 4213 : 
; 4214 : 
; 4215 : 	//			locSummaryString = Localization::Lookup("TXT_KEY_NOTIFICATION_SUMMARY_WONDER_STARTED");
; 4216 : 	//			locSummaryString << GET_PLAYER(m_pCity->getOwner()).getNameKey() << buildingEntry->GetTextKey();
; 4217 : 
; 4218 : 	//		}
; 4219 : 	//		else
; 4220 : 	//		{
; 4221 : 	//			locString = Localization::Lookup("TXT_KEY_NOTIFICATION_WONDER_STARTED_UNMET");
; 4222 : 	//			locString << buildingEntry->GetTextKey();
; 4223 : 	//			locSummaryString = Localization::Lookup("TXT_KEY_NOTIFICATION_SUMMARY_WONDER_STARTED_UNKNOWN");
; 4224 : 	//			locSummaryString << buildingEntry->GetTextKey();
; 4225 : 	//		}
; 4226 : 
; 4227 : 	//		CvNotifications* pNotifications = GET_PLAYER(ePlayer).GetNotifications();
; 4228 : 	//		if (pNotifications)
; 4229 : 	//		{
; 4230 : 	//			pNotifications->Add(NOTIFICATION_WONDER_STARTED, locString.toUTF8(), locSummaryString.toUTF8(), iX, iY, eIndex);
; 4231 : 	//		}
; 4232 : 	//	}
; 4233 : 	//}
; 4234 : }

	ret	4
?NotifyNewBuildingStarted@CvCityBuildings@@AAEXW4BuildingTypes@@@Z ENDP ; CvCityBuildings::NotifyNewBuildingStarted
_TEXT	ENDS
PUBLIC	?size@?$vector@PAVCvBuildingEntry@@V?$allocator@PAVCvBuildingEntry@@@std@@@std@@QBEIXZ ; std::vector<CvBuildingEntry *,std::allocator<CvBuildingEntry *> >::size
; Function compile flags: /Ogtpy
; File c:\program files (x86)\microsoft visual studio 9.0\vc\include\vector
;	COMDAT ?size@?$vector@PAVCvBuildingEntry@@V?$allocator@PAVCvBuildingEntry@@@std@@@std@@QBEIXZ
_TEXT	SEGMENT
?size@?$vector@PAVCvBuildingEntry@@V?$allocator@PAVCvBuildingEntry@@@std@@@std@@QBEIXZ PROC ; std::vector<CvBuildingEntry *,std::allocator<CvBuildingEntry *> >::size, COMDAT
; _this$ = ecx

; 726  : 		return (_Mylast - _Myfirst);

	mov	eax, DWORD PTR [ecx+8]
	sub	eax, DWORD PTR [ecx+4]
	sar	eax, 2

; 727  : 		}

	ret	0
?size@?$vector@PAVCvBuildingEntry@@V?$allocator@PAVCvBuildingEntry@@@std@@@std@@QBEIXZ ENDP ; std::vector<CvBuildingEntry *,std::allocator<CvBuildingEntry *> >::size
_TEXT	ENDS
PUBLIC	??A?$vector@PAVCvBuildingEntry@@V?$allocator@PAVCvBuildingEntry@@@std@@@std@@QAEAAPAVCvBuildingEntry@@I@Z ; std::vector<CvBuildingEntry *,std::allocator<CvBuildingEntry *> >::operator[]
; Function compile flags: /Ogtpy
;	COMDAT ??A?$vector@PAVCvBuildingEntry@@V?$allocator@PAVCvBuildingEntry@@@std@@@std@@QAEAAPAVCvBuildingEntry@@I@Z
_TEXT	SEGMENT
__Pos$ = 8						; size = 4
??A?$vector@PAVCvBuildingEntry@@V?$allocator@PAVCvBuildingEntry@@@std@@@std@@QAEAAPAVCvBuildingEntry@@I@Z PROC ; std::vector<CvBuildingEntry *,std::allocator<CvBuildingEntry *> >::operator[], COMDAT
; _this$ = ecx

; 775  : 
; 776  :  #if _HAS_ITERATOR_DEBUGGING
; 777  : 		if (size() <= _Pos)
; 778  : 			{
; 779  : 			_DEBUG_ERROR("vector subscript out of range");
; 780  : 			_SCL_SECURE_OUT_OF_RANGE;
; 781  : 			}
; 782  :  #endif /* _HAS_ITERATOR_DEBUGGING */
; 783  : 		_SCL_SECURE_VALIDATE_RANGE(_Pos < size());
; 784  : 
; 785  : 		return (*(_Myfirst + _Pos));

	mov	eax, DWORD PTR [ecx+4]
	mov	ecx, DWORD PTR __Pos$[esp-4]
	lea	eax, DWORD PTR [eax+ecx*4]

; 786  : 		}

	ret	4
??A?$vector@PAVCvBuildingEntry@@V?$allocator@PAVCvBuildingEntry@@@std@@@std@@QAEAAPAVCvBuildingEntry@@I@Z ENDP ; std::vector<CvBuildingEntry *,std::allocator<CvBuildingEntry *> >::operator[]
_TEXT	ENDS
PUBLIC	?size@?$vector@UBuildingGreatWork@@V?$allocator@UBuildingGreatWork@@@std@@@std@@QBEIXZ ; std::vector<BuildingGreatWork,std::allocator<BuildingGreatWork> >::size
; Function compile flags: /Ogtpy
;	COMDAT ?size@?$vector@UBuildingGreatWork@@V?$allocator@UBuildingGreatWork@@@std@@@std@@QBEIXZ
_TEXT	SEGMENT
?size@?$vector@UBuildingGreatWork@@V?$allocator@UBuildingGreatWork@@@std@@@std@@QBEIXZ PROC ; std::vector<BuildingGreatWork,std::allocator<BuildingGreatWork> >::size, COMDAT
; _this$ = ecx

; 726  : 		return (_Mylast - _Myfirst);

	mov	edx, DWORD PTR [ecx+8]
	sub	edx, DWORD PTR [ecx+4]
	mov	eax, 715827883				; 2aaaaaabH
	imul	edx
	sar	edx, 1
	mov	eax, edx
	shr	eax, 31					; 0000001fH
	add	eax, edx

; 727  : 		}

	ret	0
?size@?$vector@UBuildingGreatWork@@V?$allocator@UBuildingGreatWork@@@std@@@std@@QBEIXZ ENDP ; std::vector<BuildingGreatWork,std::allocator<BuildingGreatWork> >::size
_TEXT	ENDS
PUBLIC	??D?$_Vector_const_iterator@W4BuildingTypes@@V?$allocator@W4BuildingTypes@@@std@@@std@@QBEABW4BuildingTypes@@XZ ; std::_Vector_const_iterator<enum BuildingTypes,std::allocator<enum BuildingTypes> >::operator*
; Function compile flags: /Ogtpy
;	COMDAT ??D?$_Vector_const_iterator@W4BuildingTypes@@V?$allocator@W4BuildingTypes@@@std@@@std@@QBEABW4BuildingTypes@@XZ
_TEXT	SEGMENT
??D?$_Vector_const_iterator@W4BuildingTypes@@V?$allocator@W4BuildingTypes@@@std@@@std@@QBEABW4BuildingTypes@@XZ PROC ; std::_Vector_const_iterator<enum BuildingTypes,std::allocator<enum BuildingTypes> >::operator*, COMDAT
; _this$ = ecx

; 92   : 
; 93   :  #if _HAS_ITERATOR_DEBUGGING
; 94   : 		if (this->_Mycont == 0
; 95   : 			|| _Myptr < ((_Myvec *)this->_Mycont)->_Myfirst
; 96   : 			|| ((_Myvec *)this->_Mycont)->_Mylast <= _Myptr)
; 97   : 			{
; 98   : 			_DEBUG_ERROR("vector iterator not dereferencable");
; 99   : 			_SCL_SECURE_OUT_OF_RANGE;
; 100  : 			}
; 101  :  #else
; 102  :  		_SCL_SECURE_VALIDATE(this->_Has_container());
; 103  : 		_SCL_SECURE_VALIDATE_RANGE(_Myptr < ((_Myvec *)(this->_Getmycont()))->_Mylast);
; 104  :  #endif /* _HAS_ITERATOR_DEBUGGING */
; 105  : 
; 106  : 		return (*_Myptr);

	mov	eax, DWORD PTR [ecx]

; 107  : 		}

	ret	0
??D?$_Vector_const_iterator@W4BuildingTypes@@V?$allocator@W4BuildingTypes@@@std@@@std@@QBEABW4BuildingTypes@@XZ ENDP ; std::_Vector_const_iterator<enum BuildingTypes,std::allocator<enum BuildingTypes> >::operator*
_TEXT	ENDS
PUBLIC	??E?$_Vector_const_iterator@W4BuildingTypes@@V?$allocator@W4BuildingTypes@@@std@@@std@@QAEAAV01@XZ ; std::_Vector_const_iterator<enum BuildingTypes,std::allocator<enum BuildingTypes> >::operator++
; Function compile flags: /Ogtpy
;	COMDAT ??E?$_Vector_const_iterator@W4BuildingTypes@@V?$allocator@W4BuildingTypes@@@std@@@std@@QAEAAV01@XZ
_TEXT	SEGMENT
??E?$_Vector_const_iterator@W4BuildingTypes@@V?$allocator@W4BuildingTypes@@@std@@@std@@QAEAAV01@XZ PROC ; std::_Vector_const_iterator<enum BuildingTypes,std::allocator<enum BuildingTypes> >::operator++, COMDAT
; _this$ = ecx

; 115  : 		{	// preincrement

	mov	eax, ecx

; 116  : 		_SCL_SECURE_VALIDATE(this->_Has_container());
; 117  : 		_SCL_SECURE_VALIDATE_RANGE(_Myptr < ((_Myvec *)(this->_Getmycont()))->_Mylast);
; 118  : 
; 119  :  #if _HAS_ITERATOR_DEBUGGING
; 120  : 		if (this->_Mycont == 0
; 121  : 			|| ((_Myvec *)this->_Mycont)->_Mylast <= _Myptr)
; 122  : 			_DEBUG_ERROR("vector iterator not incrementable");
; 123  :  #endif /* _HAS_ITERATOR_DEBUGGING */
; 124  : 
; 125  : 		++_Myptr;

	add	DWORD PTR [eax], 4

; 126  : 		return (*this);
; 127  : 		}

	ret	0
??E?$_Vector_const_iterator@W4BuildingTypes@@V?$allocator@W4BuildingTypes@@@std@@@std@@QAEAAV01@XZ ENDP ; std::_Vector_const_iterator<enum BuildingTypes,std::allocator<enum BuildingTypes> >::operator++
_TEXT	ENDS
PUBLIC	??0?$auto_ptr@VICvCity1@@@std@@QAE@PAVICvCity1@@@Z ; std::auto_ptr<ICvCity1>::auto_ptr<ICvCity1>
; Function compile flags: /Ogtpy
; File c:\program files (x86)\microsoft visual studio 9.0\vc\include\memory
;	COMDAT ??0?$auto_ptr@VICvCity1@@@std@@QAE@PAVICvCity1@@@Z
_TEXT	SEGMENT
__Ptr$ = 8						; size = 4
??0?$auto_ptr@VICvCity1@@@std@@QAE@PAVICvCity1@@@Z PROC	; std::auto_ptr<ICvCity1>::auto_ptr<ICvCity1>, COMDAT
; _this$ = ecx

; 661  : 		{	// construct from object pointer

	mov	eax, ecx
	mov	ecx, DWORD PTR __Ptr$[esp-4]
	mov	DWORD PTR [eax], ecx

; 662  : 		}

	ret	4
??0?$auto_ptr@VICvCity1@@@std@@QAE@PAVICvCity1@@@Z ENDP	; std::auto_ptr<ICvCity1>::auto_ptr<ICvCity1>
_TEXT	ENDS
PUBLIC	??0?$auto_ptr@VICvCity1@@@std@@QAE@U?$auto_ptr_ref@VICvCity1@@@1@@Z ; std::auto_ptr<ICvCity1>::auto_ptr<ICvCity1>
; Function compile flags: /Ogtpy
;	COMDAT ??0?$auto_ptr@VICvCity1@@@std@@QAE@U?$auto_ptr_ref@VICvCity1@@@1@@Z
_TEXT	SEGMENT
__Right$ = 8						; size = 4
??0?$auto_ptr@VICvCity1@@@std@@QAE@U?$auto_ptr_ref@VICvCity1@@@1@@Z PROC ; std::auto_ptr<ICvCity1>::auto_ptr<ICvCity1>, COMDAT
; _this$ = ecx

; 669  : 	auto_ptr(auto_ptr_ref<_Ty> _Right) _THROW0()

	mov	eax, ecx

; 670  : 		{	// construct by assuming pointer from _Right auto_ptr_ref
; 671  : 		_Ty *_Ptr = _Right._Ref;
; 672  : 		_Right._Ref = 0;	// release old
; 673  : 		_Myptr = _Ptr;	// reset this

	mov	ecx, DWORD PTR __Right$[esp-4]
	mov	DWORD PTR [eax], ecx

; 674  : 		}

	ret	4
??0?$auto_ptr@VICvCity1@@@std@@QAE@U?$auto_ptr_ref@VICvCity1@@@1@@Z ENDP ; std::auto_ptr<ICvCity1>::auto_ptr<ICvCity1>
_TEXT	ENDS
PUBLIC	?get@?$auto_ptr@VICvCity1@@@std@@QBEPAVICvCity1@@XZ ; std::auto_ptr<ICvCity1>::get
; Function compile flags: /Ogtpy
;	COMDAT ?get@?$auto_ptr@VICvCity1@@@std@@QBEPAVICvCity1@@XZ
_TEXT	SEGMENT
?get@?$auto_ptr@VICvCity1@@@std@@QBEPAVICvCity1@@XZ PROC ; std::auto_ptr<ICvCity1>::get, COMDAT
; _this$ = ecx

; 750  : 		return (_Myptr);

	mov	eax, DWORD PTR [ecx]

; 751  : 		}

	ret	0
?get@?$auto_ptr@VICvCity1@@@std@@QBEPAVICvCity1@@XZ ENDP ; std::auto_ptr<ICvCity1>::get
_TEXT	ENDS
PUBLIC	??0?$auto_ptr@VICvPlot1@@@std@@QAE@PAVICvPlot1@@@Z ; std::auto_ptr<ICvPlot1>::auto_ptr<ICvPlot1>
; Function compile flags: /Ogtpy
;	COMDAT ??0?$auto_ptr@VICvPlot1@@@std@@QAE@PAVICvPlot1@@@Z
_TEXT	SEGMENT
__Ptr$ = 8						; size = 4
??0?$auto_ptr@VICvPlot1@@@std@@QAE@PAVICvPlot1@@@Z PROC	; std::auto_ptr<ICvPlot1>::auto_ptr<ICvPlot1>, COMDAT
; _this$ = ecx

; 661  : 		{	// construct from object pointer

	mov	eax, ecx
	mov	ecx, DWORD PTR __Ptr$[esp-4]
	mov	DWORD PTR [eax], ecx

; 662  : 		}

	ret	4
??0?$auto_ptr@VICvPlot1@@@std@@QAE@PAVICvPlot1@@@Z ENDP	; std::auto_ptr<ICvPlot1>::auto_ptr<ICvPlot1>
_TEXT	ENDS
PUBLIC	?get@?$auto_ptr@VICvPlot1@@@std@@QBEPAVICvPlot1@@XZ ; std::auto_ptr<ICvPlot1>::get
; Function compile flags: /Ogtpy
;	COMDAT ?get@?$auto_ptr@VICvPlot1@@@std@@QBEPAVICvPlot1@@XZ
_TEXT	SEGMENT
?get@?$auto_ptr@VICvPlot1@@@std@@QBEPAVICvPlot1@@XZ PROC ; std::auto_ptr<ICvPlot1>::get, COMDAT
; _this$ = ecx

; 750  : 		return (_Myptr);

	mov	eax, DWORD PTR [ecx]

; 751  : 		}

	ret	0
?get@?$auto_ptr@VICvPlot1@@@std@@QBEPAVICvPlot1@@XZ ENDP ; std::auto_ptr<ICvPlot1>::get
_TEXT	ENDS
PUBLIC	??D?$_Vector_const_iterator@UBuildingYieldChange@@V?$allocator@UBuildingYieldChange@@@std@@@std@@QBEABUBuildingYieldChange@@XZ ; std::_Vector_const_iterator<BuildingYieldChange,std::allocator<BuildingYieldChange> >::operator*
; Function compile flags: /Ogtpy
; File c:\program files (x86)\microsoft visual studio 9.0\vc\include\vector
;	COMDAT ??D?$_Vector_const_iterator@UBuildingYieldChange@@V?$allocator@UBuildingYieldChange@@@std@@@std@@QBEABUBuildingYieldChange@@XZ
_TEXT	SEGMENT
??D?$_Vector_const_iterator@UBuildingYieldChange@@V?$allocator@UBuildingYieldChange@@@std@@@std@@QBEABUBuildingYieldChange@@XZ PROC ; std::_Vector_const_iterator<BuildingYieldChange,std::allocator<BuildingYieldChange> >::operator*, COMDAT
; _this$ = ecx

; 92   : 
; 93   :  #if _HAS_ITERATOR_DEBUGGING
; 94   : 		if (this->_Mycont == 0
; 95   : 			|| _Myptr < ((_Myvec *)this->_Mycont)->_Myfirst
; 96   : 			|| ((_Myvec *)this->_Mycont)->_Mylast <= _Myptr)
; 97   : 			{
; 98   : 			_DEBUG_ERROR("vector iterator not dereferencable");
; 99   : 			_SCL_SECURE_OUT_OF_RANGE;
; 100  : 			}
; 101  :  #else
; 102  :  		_SCL_SECURE_VALIDATE(this->_Has_container());
; 103  : 		_SCL_SECURE_VALIDATE_RANGE(_Myptr < ((_Myvec *)(this->_Getmycont()))->_Mylast);
; 104  :  #endif /* _HAS_ITERATOR_DEBUGGING */
; 105  : 
; 106  : 		return (*_Myptr);

	mov	eax, DWORD PTR [ecx]

; 107  : 		}

	ret	0
??D?$_Vector_const_iterator@UBuildingYieldChange@@V?$allocator@UBuildingYieldChange@@@std@@@std@@QBEABUBuildingYieldChange@@XZ ENDP ; std::_Vector_const_iterator<BuildingYieldChange,std::allocator<BuildingYieldChange> >::operator*
_TEXT	ENDS
PUBLIC	??E?$_Vector_const_iterator@UBuildingYieldChange@@V?$allocator@UBuildingYieldChange@@@std@@@std@@QAEAAV01@XZ ; std::_Vector_const_iterator<BuildingYieldChange,std::allocator<BuildingYieldChange> >::operator++
; Function compile flags: /Ogtpy
;	COMDAT ??E?$_Vector_const_iterator@UBuildingYieldChange@@V?$allocator@UBuildingYieldChange@@@std@@@std@@QAEAAV01@XZ
_TEXT	SEGMENT
??E?$_Vector_const_iterator@UBuildingYieldChange@@V?$allocator@UBuildingYieldChange@@@std@@@std@@QAEAAV01@XZ PROC ; std::_Vector_const_iterator<BuildingYieldChange,std::allocator<BuildingYieldChange> >::operator++, COMDAT
; _this$ = ecx

; 115  : 		{	// preincrement

	mov	eax, ecx

; 116  : 		_SCL_SECURE_VALIDATE(this->_Has_container());
; 117  : 		_SCL_SECURE_VALIDATE_RANGE(_Myptr < ((_Myvec *)(this->_Getmycont()))->_Mylast);
; 118  : 
; 119  :  #if _HAS_ITERATOR_DEBUGGING
; 120  : 		if (this->_Mycont == 0
; 121  : 			|| ((_Myvec *)this->_Mycont)->_Mylast <= _Myptr)
; 122  : 			_DEBUG_ERROR("vector iterator not incrementable");
; 123  :  #endif /* _HAS_ITERATOR_DEBUGGING */
; 124  : 
; 125  : 		++_Myptr;

	add	DWORD PTR [eax], 12			; 0000000cH

; 126  : 		return (*this);
; 127  : 		}

	ret	0
??E?$_Vector_const_iterator@UBuildingYieldChange@@V?$allocator@UBuildingYieldChange@@@std@@@std@@QAEAAV01@XZ ENDP ; std::_Vector_const_iterator<BuildingYieldChange,std::allocator<BuildingYieldChange> >::operator++
_TEXT	ENDS
PUBLIC	??D?$_Vector_iterator@UBuildingYieldChange@@V?$allocator@UBuildingYieldChange@@@std@@@std@@QBEAAUBuildingYieldChange@@XZ ; std::_Vector_iterator<BuildingYieldChange,std::allocator<BuildingYieldChange> >::operator*
; Function compile flags: /Ogtpy
;	COMDAT ??D?$_Vector_iterator@UBuildingYieldChange@@V?$allocator@UBuildingYieldChange@@@std@@@std@@QBEAAUBuildingYieldChange@@XZ
_TEXT	SEGMENT
??D?$_Vector_iterator@UBuildingYieldChange@@V?$allocator@UBuildingYieldChange@@@std@@@std@@QBEAAUBuildingYieldChange@@XZ PROC ; std::_Vector_iterator<BuildingYieldChange,std::allocator<BuildingYieldChange> >::operator*, COMDAT
; _this$ = ecx

; 339  : 		return ((reference)**(_Mybase *)this);

	mov	eax, DWORD PTR [ecx]

; 340  : 		}

	ret	0
??D?$_Vector_iterator@UBuildingYieldChange@@V?$allocator@UBuildingYieldChange@@@std@@@std@@QBEAAUBuildingYieldChange@@XZ ENDP ; std::_Vector_iterator<BuildingYieldChange,std::allocator<BuildingYieldChange> >::operator*
_TEXT	ENDS
PUBLIC	??E?$_Vector_iterator@UBuildingYieldChange@@V?$allocator@UBuildingYieldChange@@@std@@@std@@QAEAAV01@XZ ; std::_Vector_iterator<BuildingYieldChange,std::allocator<BuildingYieldChange> >::operator++
; Function compile flags: /Ogtpy
;	COMDAT ??E?$_Vector_iterator@UBuildingYieldChange@@V?$allocator@UBuildingYieldChange@@@std@@@std@@QAEAAV01@XZ
_TEXT	SEGMENT
??E?$_Vector_iterator@UBuildingYieldChange@@V?$allocator@UBuildingYieldChange@@@std@@@std@@QAEAAV01@XZ PROC ; std::_Vector_iterator<BuildingYieldChange,std::allocator<BuildingYieldChange> >::operator++, COMDAT
; _this$ = ecx

; 348  : 		{	// preincrement

	mov	eax, ecx

; 349  : 		++(*(_Mybase *)this);

	add	DWORD PTR [eax], 12			; 0000000cH

; 350  : 		return (*this);
; 351  : 		}

	ret	0
??E?$_Vector_iterator@UBuildingYieldChange@@V?$allocator@UBuildingYieldChange@@@std@@@std@@QAEAAV01@XZ ENDP ; std::_Vector_iterator<BuildingYieldChange,std::allocator<BuildingYieldChange> >::operator++
_TEXT	ENDS
PUBLIC	??D?$_Vector_const_iterator@UBuildingGreatWork@@V?$allocator@UBuildingGreatWork@@@std@@@std@@QBEABUBuildingGreatWork@@XZ ; std::_Vector_const_iterator<BuildingGreatWork,std::allocator<BuildingGreatWork> >::operator*
; Function compile flags: /Ogtpy
;	COMDAT ??D?$_Vector_const_iterator@UBuildingGreatWork@@V?$allocator@UBuildingGreatWork@@@std@@@std@@QBEABUBuildingGreatWork@@XZ
_TEXT	SEGMENT
??D?$_Vector_const_iterator@UBuildingGreatWork@@V?$allocator@UBuildingGreatWork@@@std@@@std@@QBEABUBuildingGreatWork@@XZ PROC ; std::_Vector_const_iterator<BuildingGreatWork,std::allocator<BuildingGreatWork> >::operator*, COMDAT
; _this$ = ecx

; 92   : 
; 93   :  #if _HAS_ITERATOR_DEBUGGING
; 94   : 		if (this->_Mycont == 0
; 95   : 			|| _Myptr < ((_Myvec *)this->_Mycont)->_Myfirst
; 96   : 			|| ((_Myvec *)this->_Mycont)->_Mylast <= _Myptr)
; 97   : 			{
; 98   : 			_DEBUG_ERROR("vector iterator not dereferencable");
; 99   : 			_SCL_SECURE_OUT_OF_RANGE;
; 100  : 			}
; 101  :  #else
; 102  :  		_SCL_SECURE_VALIDATE(this->_Has_container());
; 103  : 		_SCL_SECURE_VALIDATE_RANGE(_Myptr < ((_Myvec *)(this->_Getmycont()))->_Mylast);
; 104  :  #endif /* _HAS_ITERATOR_DEBUGGING */
; 105  : 
; 106  : 		return (*_Myptr);

	mov	eax, DWORD PTR [ecx]

; 107  : 		}

	ret	0
??D?$_Vector_const_iterator@UBuildingGreatWork@@V?$allocator@UBuildingGreatWork@@@std@@@std@@QBEABUBuildingGreatWork@@XZ ENDP ; std::_Vector_const_iterator<BuildingGreatWork,std::allocator<BuildingGreatWork> >::operator*
_TEXT	ENDS
PUBLIC	??E?$_Vector_const_iterator@UBuildingGreatWork@@V?$allocator@UBuildingGreatWork@@@std@@@std@@QAEAAV01@XZ ; std::_Vector_const_iterator<BuildingGreatWork,std::allocator<BuildingGreatWork> >::operator++
; Function compile flags: /Ogtpy
;	COMDAT ??E?$_Vector_const_iterator@UBuildingGreatWork@@V?$allocator@UBuildingGreatWork@@@std@@@std@@QAEAAV01@XZ
_TEXT	SEGMENT
??E?$_Vector_const_iterator@UBuildingGreatWork@@V?$allocator@UBuildingGreatWork@@@std@@@std@@QAEAAV01@XZ PROC ; std::_Vector_const_iterator<BuildingGreatWork,std::allocator<BuildingGreatWork> >::operator++, COMDAT
; _this$ = ecx

; 115  : 		{	// preincrement

	mov	eax, ecx

; 116  : 		_SCL_SECURE_VALIDATE(this->_Has_container());
; 117  : 		_SCL_SECURE_VALIDATE_RANGE(_Myptr < ((_Myvec *)(this->_Getmycont()))->_Mylast);
; 118  : 
; 119  :  #if _HAS_ITERATOR_DEBUGGING
; 120  : 		if (this->_Mycont == 0
; 121  : 			|| ((_Myvec *)this->_Mycont)->_Mylast <= _Myptr)
; 122  : 			_DEBUG_ERROR("vector iterator not incrementable");
; 123  :  #endif /* _HAS_ITERATOR_DEBUGGING */
; 124  : 
; 125  : 		++_Myptr;

	add	DWORD PTR [eax], 12			; 0000000cH

; 126  : 		return (*this);
; 127  : 		}

	ret	0
??E?$_Vector_const_iterator@UBuildingGreatWork@@V?$allocator@UBuildingGreatWork@@@std@@@std@@QAEAAV01@XZ ENDP ; std::_Vector_const_iterator<BuildingGreatWork,std::allocator<BuildingGreatWork> >::operator++
_TEXT	ENDS
PUBLIC	??D?$_Vector_iterator@UBuildingGreatWork@@V?$allocator@UBuildingGreatWork@@@std@@@std@@QBEAAUBuildingGreatWork@@XZ ; std::_Vector_iterator<BuildingGreatWork,std::allocator<BuildingGreatWork> >::operator*
; Function compile flags: /Ogtpy
;	COMDAT ??D?$_Vector_iterator@UBuildingGreatWork@@V?$allocator@UBuildingGreatWork@@@std@@@std@@QBEAAUBuildingGreatWork@@XZ
_TEXT	SEGMENT
??D?$_Vector_iterator@UBuildingGreatWork@@V?$allocator@UBuildingGreatWork@@@std@@@std@@QBEAAUBuildingGreatWork@@XZ PROC ; std::_Vector_iterator<BuildingGreatWork,std::allocator<BuildingGreatWork> >::operator*, COMDAT
; _this$ = ecx

; 339  : 		return ((reference)**(_Mybase *)this);

	mov	eax, DWORD PTR [ecx]

; 340  : 		}

	ret	0
??D?$_Vector_iterator@UBuildingGreatWork@@V?$allocator@UBuildingGreatWork@@@std@@@std@@QBEAAUBuildingGreatWork@@XZ ENDP ; std::_Vector_iterator<BuildingGreatWork,std::allocator<BuildingGreatWork> >::operator*
_TEXT	ENDS
PUBLIC	??E?$_Vector_iterator@UBuildingGreatWork@@V?$allocator@UBuildingGreatWork@@@std@@@std@@QAEAAV01@XZ ; std::_Vector_iterator<BuildingGreatWork,std::allocator<BuildingGreatWork> >::operator++
; Function compile flags: /Ogtpy
;	COMDAT ??E?$_Vector_iterator@UBuildingGreatWork@@V?$allocator@UBuildingGreatWork@@@std@@@std@@QAEAAV01@XZ
_TEXT	SEGMENT
??E?$_Vector_iterator@UBuildingGreatWork@@V?$allocator@UBuildingGreatWork@@@std@@@std@@QAEAAV01@XZ PROC ; std::_Vector_iterator<BuildingGreatWork,std::allocator<BuildingGreatWork> >::operator++, COMDAT
; _this$ = ecx

; 348  : 		{	// preincrement

	mov	eax, ecx

; 349  : 		++(*(_Mybase *)this);

	add	DWORD PTR [eax], 12			; 0000000cH

; 350  : 		return (*this);
; 351  : 		}

	ret	0
??E?$_Vector_iterator@UBuildingGreatWork@@V?$allocator@UBuildingGreatWork@@@std@@@std@@QAEAAV01@XZ ENDP ; std::_Vector_iterator<BuildingGreatWork,std::allocator<BuildingGreatWork> >::operator++
_TEXT	ENDS
PUBLIC	??R?$less@H@std@@QBE_NABH0@Z			; std::less<int>::operator()
; Function compile flags: /Ogtpy
; File c:\program files (x86)\microsoft visual studio 9.0\vc\include\functional
;	COMDAT ??R?$less@H@std@@QBE_NABH0@Z
_TEXT	SEGMENT
__Left$ = 8						; size = 4
__Right$ = 12						; size = 4
??R?$less@H@std@@QBE_NABH0@Z PROC			; std::less<int>::operator(), COMDAT
; _this$ = ecx

; 143  : 		return (_Left < _Right);

	mov	eax, DWORD PTR __Left$[esp-4]
	mov	ecx, DWORD PTR [eax]
	mov	edx, DWORD PTR __Right$[esp-4]
	xor	eax, eax
	cmp	ecx, DWORD PTR [edx]
	setl	al

; 144  : 		}

	ret	8
??R?$less@H@std@@QBE_NABH0@Z ENDP			; std::less<int>::operator()
_TEXT	ENDS
PUBLIC	?key_comp@?$_Tree@V?$_Tmap_traits@HV?$map@HHU?$less@H@std@@V?$allocator@U?$pair@$$CBHH@std@@@2@@std@@U?$less@H@2@V?$allocator@U?$pair@$$CBHV?$map@HHU?$less@H@std@@V?$allocator@U?$pair@$$CBHH@std@@@2@@std@@@std@@@2@$0A@@std@@@std@@QBE?AU?$less@H@2@XZ ; std::_Tree<std::_Tmap_traits<int,std::map<int,int,std::less<int>,std::allocator<std::pair<int const ,int> > >,std::less<int>,std::allocator<std::pair<int const ,std::map<int,int,std::less<int>,std::allocator<std::pair<int const ,int> > > > >,0> >::key_comp
; Function compile flags: /Ogtpy
; File c:\program files (x86)\microsoft visual studio 9.0\vc\include\xtree
;	COMDAT ?key_comp@?$_Tree@V?$_Tmap_traits@HV?$map@HHU?$less@H@std@@V?$allocator@U?$pair@$$CBHH@std@@@2@@std@@U?$less@H@2@V?$allocator@U?$pair@$$CBHV?$map@HHU?$less@H@std@@V?$allocator@U?$pair@$$CBHH@std@@@2@@std@@@std@@@2@$0A@@std@@@std@@QBE?AU?$less@H@2@XZ
_TEXT	SEGMENT
___$ReturnUdt$ = 8					; size = 4
?key_comp@?$_Tree@V?$_Tmap_traits@HV?$map@HHU?$less@H@std@@V?$allocator@U?$pair@$$CBHH@std@@@2@@std@@U?$less@H@2@V?$allocator@U?$pair@$$CBHV?$map@HHU?$less@H@std@@V?$allocator@U?$pair@$$CBHH@std@@@2@@std@@@std@@@2@$0A@@std@@@std@@QBE?AU?$less@H@2@XZ PROC ; std::_Tree<std::_Tmap_traits<int,std::map<int,int,std::less<int>,std::allocator<std::pair<int const ,int> > >,std::less<int>,std::allocator<std::pair<int const ,std::map<int,int,std::less<int>,std::allocator<std::pair<int const ,int> > > > >,0> >::key_comp, COMDAT
; _this$ = ecx

; 621  : 		return (this->comp);

	mov	eax, DWORD PTR ___$ReturnUdt$[esp-4]

; 622  : 		}

	ret	4
?key_comp@?$_Tree@V?$_Tmap_traits@HV?$map@HHU?$less@H@std@@V?$allocator@U?$pair@$$CBHH@std@@@2@@std@@U?$less@H@2@V?$allocator@U?$pair@$$CBHV?$map@HHU?$less@H@std@@V?$allocator@U?$pair@$$CBHH@std@@@2@@std@@@std@@@2@$0A@@std@@@std@@QBE?AU?$less@H@2@XZ ENDP ; std::_Tree<std::_Tmap_traits<int,std::map<int,int,std::less<int>,std::allocator<std::pair<int const ,int> > >,std::less<int>,std::allocator<std::pair<int const ,std::map<int,int,std::less<int>,std::allocator<std::pair<int const ,int> > > > >,0> >::key_comp
_TEXT	ENDS
PUBLIC	??1?$_Container_base_aux_alloc_empty@V?$allocator@U?$pair@$$CBHV?$map@HHU?$less@H@std@@V?$allocator@U?$pair@$$CBHH@std@@@2@@std@@@std@@@std@@@std@@IAE@XZ ; std::_Container_base_aux_alloc_empty<std::allocator<std::pair<int const ,std::map<int,int,std::less<int>,std::allocator<std::pair<int const ,int> > > > > >::~_Container_base_aux_alloc_empty<std::allocator<std::pair<int const ,std::map<int,int,std::less<int>,std::allocator<std::pair<int const ,int> > > > > >
; Function compile flags: /Ogtpy
; File c:\program files (x86)\microsoft visual studio 9.0\vc\include\xutility
;	COMDAT ??1?$_Container_base_aux_alloc_empty@V?$allocator@U?$pair@$$CBHV?$map@HHU?$less@H@std@@V?$allocator@U?$pair@$$CBHH@std@@@2@@std@@@std@@@std@@@std@@IAE@XZ
_TEXT	SEGMENT
??1?$_Container_base_aux_alloc_empty@V?$allocator@U?$pair@$$CBHV?$map@HHU?$less@H@std@@V?$allocator@U?$pair@$$CBHH@std@@@2@@std@@@std@@@std@@@std@@IAE@XZ PROC ; std::_Container_base_aux_alloc_empty<std::allocator<std::pair<int const ,std::map<int,int,std::less<int>,std::allocator<std::pair<int const ,int> > > > > >::~_Container_base_aux_alloc_empty<std::allocator<std::pair<int const ,std::map<int,int,std::less<int>,std::allocator<std::pair<int const ,int> > > > > >, COMDAT
; _this$ = ecx

; 627  : 	~_Container_base_aux_alloc_empty() { }

	ret	0
??1?$_Container_base_aux_alloc_empty@V?$allocator@U?$pair@$$CBHV?$map@HHU?$less@H@std@@V?$allocator@U?$pair@$$CBHH@std@@@2@@std@@@std@@@std@@@std@@IAE@XZ ENDP ; std::_Container_base_aux_alloc_empty<std::allocator<std::pair<int const ,std::map<int,int,std::less<int>,std::allocator<std::pair<int const ,int> > > > > >::~_Container_base_aux_alloc_empty<std::allocator<std::pair<int const ,std::map<int,int,std::less<int>,std::allocator<std::pair<int const ,int> > > > > >
_TEXT	ENDS
PUBLIC	??0?$allocator@U?$pair@$$CBHV?$map@HHU?$less@H@std@@V?$allocator@U?$pair@$$CBHH@std@@@2@@std@@@std@@@std@@QAE@XZ ; std::allocator<std::pair<int const ,std::map<int,int,std::less<int>,std::allocator<std::pair<int const ,int> > > > >::allocator<std::pair<int const ,std::map<int,int,std::less<int>,std::allocator<std::pair<int const ,int> > > > >
; Function compile flags: /Ogtpy
; File c:\program files (x86)\microsoft visual studio 9.0\vc\include\xmemory
;	COMDAT ??0?$allocator@U?$pair@$$CBHV?$map@HHU?$less@H@std@@V?$allocator@U?$pair@$$CBHH@std@@@2@@std@@@std@@@std@@QAE@XZ
_TEXT	SEGMENT
??0?$allocator@U?$pair@$$CBHV?$map@HHU?$less@H@std@@V?$allocator@U?$pair@$$CBHH@std@@@2@@std@@@std@@@std@@QAE@XZ PROC ; std::allocator<std::pair<int const ,std::map<int,int,std::less<int>,std::allocator<std::pair<int const ,int> > > > >::allocator<std::pair<int const ,std::map<int,int,std::less<int>,std::allocator<std::pair<int const ,int> > > > >, COMDAT
; _this$ = ecx

; 119  : 	allocator() _THROW0()

	mov	eax, ecx

; 120  : 		{	// construct default allocator (do nothing)
; 121  : 		}

	ret	0
??0?$allocator@U?$pair@$$CBHV?$map@HHU?$less@H@std@@V?$allocator@U?$pair@$$CBHH@std@@@2@@std@@@std@@@std@@QAE@XZ ENDP ; std::allocator<std::pair<int const ,std::map<int,int,std::less<int>,std::allocator<std::pair<int const ,int> > > > >::allocator<std::pair<int const ,std::map<int,int,std::less<int>,std::allocator<std::pair<int const ,int> > > > >
_TEXT	ENDS
PUBLIC	??1?$_Container_base_aux_alloc_empty@V?$allocator@PAVCvBuildingEntry@@@std@@@std@@IAE@XZ ; std::_Container_base_aux_alloc_empty<std::allocator<CvBuildingEntry *> >::~_Container_base_aux_alloc_empty<std::allocator<CvBuildingEntry *> >
; Function compile flags: /Ogtpy
; File c:\program files (x86)\microsoft visual studio 9.0\vc\include\xutility
;	COMDAT ??1?$_Container_base_aux_alloc_empty@V?$allocator@PAVCvBuildingEntry@@@std@@@std@@IAE@XZ
_TEXT	SEGMENT
??1?$_Container_base_aux_alloc_empty@V?$allocator@PAVCvBuildingEntry@@@std@@@std@@IAE@XZ PROC ; std::_Container_base_aux_alloc_empty<std::allocator<CvBuildingEntry *> >::~_Container_base_aux_alloc_empty<std::allocator<CvBuildingEntry *> >, COMDAT
; _this$ = ecx

; 627  : 	~_Container_base_aux_alloc_empty() { }

	ret	0
??1?$_Container_base_aux_alloc_empty@V?$allocator@PAVCvBuildingEntry@@@std@@@std@@IAE@XZ ENDP ; std::_Container_base_aux_alloc_empty<std::allocator<CvBuildingEntry *> >::~_Container_base_aux_alloc_empty<std::allocator<CvBuildingEntry *> >
_TEXT	ENDS
PUBLIC	??0?$allocator@PAVCvBuildingEntry@@@std@@QAE@XZ	; std::allocator<CvBuildingEntry *>::allocator<CvBuildingEntry *>
; Function compile flags: /Ogtpy
; File c:\program files (x86)\microsoft visual studio 9.0\vc\include\xmemory
;	COMDAT ??0?$allocator@PAVCvBuildingEntry@@@std@@QAE@XZ
_TEXT	SEGMENT
??0?$allocator@PAVCvBuildingEntry@@@std@@QAE@XZ PROC	; std::allocator<CvBuildingEntry *>::allocator<CvBuildingEntry *>, COMDAT
; _this$ = ecx

; 119  : 	allocator() _THROW0()

	mov	eax, ecx

; 120  : 		{	// construct default allocator (do nothing)
; 121  : 		}

	ret	0
??0?$allocator@PAVCvBuildingEntry@@@std@@QAE@XZ ENDP	; std::allocator<CvBuildingEntry *>::allocator<CvBuildingEntry *>
_TEXT	ENDS
PUBLIC	??1?$_Container_base_aux_alloc_empty@V?$allocator@W4BuildingTypes@@@std@@@std@@IAE@XZ ; std::_Container_base_aux_alloc_empty<std::allocator<enum BuildingTypes> >::~_Container_base_aux_alloc_empty<std::allocator<enum BuildingTypes> >
; Function compile flags: /Ogtpy
; File c:\program files (x86)\microsoft visual studio 9.0\vc\include\xutility
;	COMDAT ??1?$_Container_base_aux_alloc_empty@V?$allocator@W4BuildingTypes@@@std@@@std@@IAE@XZ
_TEXT	SEGMENT
??1?$_Container_base_aux_alloc_empty@V?$allocator@W4BuildingTypes@@@std@@@std@@IAE@XZ PROC ; std::_Container_base_aux_alloc_empty<std::allocator<enum BuildingTypes> >::~_Container_base_aux_alloc_empty<std::allocator<enum BuildingTypes> >, COMDAT
; _this$ = ecx

; 627  : 	~_Container_base_aux_alloc_empty() { }

	ret	0
??1?$_Container_base_aux_alloc_empty@V?$allocator@W4BuildingTypes@@@std@@@std@@IAE@XZ ENDP ; std::_Container_base_aux_alloc_empty<std::allocator<enum BuildingTypes> >::~_Container_base_aux_alloc_empty<std::allocator<enum BuildingTypes> >
_TEXT	ENDS
PUBLIC	??0?$allocator@W4BuildingTypes@@@std@@QAE@XZ	; std::allocator<enum BuildingTypes>::allocator<enum BuildingTypes>
; Function compile flags: /Ogtpy
; File c:\program files (x86)\microsoft visual studio 9.0\vc\include\xmemory
;	COMDAT ??0?$allocator@W4BuildingTypes@@@std@@QAE@XZ
_TEXT	SEGMENT
??0?$allocator@W4BuildingTypes@@@std@@QAE@XZ PROC	; std::allocator<enum BuildingTypes>::allocator<enum BuildingTypes>, COMDAT
; _this$ = ecx

; 119  : 	allocator() _THROW0()

	mov	eax, ecx

; 120  : 		{	// construct default allocator (do nothing)
; 121  : 		}

	ret	0
??0?$allocator@W4BuildingTypes@@@std@@QAE@XZ ENDP	; std::allocator<enum BuildingTypes>::allocator<enum BuildingTypes>
_TEXT	ENDS
PUBLIC	?capacity@?$vector@UBuildingYieldChange@@V?$allocator@UBuildingYieldChange@@@std@@@std@@QBEIXZ ; std::vector<BuildingYieldChange,std::allocator<BuildingYieldChange> >::capacity
; Function compile flags: /Ogtpy
; File c:\program files (x86)\microsoft visual studio 9.0\vc\include\vector
;	COMDAT ?capacity@?$vector@UBuildingYieldChange@@V?$allocator@UBuildingYieldChange@@@std@@@std@@QBEIXZ
_TEXT	SEGMENT
?capacity@?$vector@UBuildingYieldChange@@V?$allocator@UBuildingYieldChange@@@std@@@std@@QBEIXZ PROC ; std::vector<BuildingYieldChange,std::allocator<BuildingYieldChange> >::capacity, COMDAT
; _this$ = ecx

; 635  : 		return (_Myfirst == 0 ? 0 : _Myend - _Myfirst);

	mov	eax, DWORD PTR [ecx+4]
	test	eax, eax
	jne	SHORT $LN3@capacity

; 636  : 		}

	ret	0
$LN3@capacity:

; 635  : 		return (_Myfirst == 0 ? 0 : _Myend - _Myfirst);

	mov	ecx, DWORD PTR [ecx+12]
	sub	ecx, eax
	mov	eax, 715827883				; 2aaaaaabH
	imul	ecx
	sar	edx, 1
	mov	eax, edx
	shr	eax, 31					; 0000001fH
	add	eax, edx

; 636  : 		}

	ret	0
?capacity@?$vector@UBuildingYieldChange@@V?$allocator@UBuildingYieldChange@@@std@@@std@@QBEIXZ ENDP ; std::vector<BuildingYieldChange,std::allocator<BuildingYieldChange> >::capacity
_TEXT	ENDS
PUBLIC	?size@?$vector@UBuildingYieldChange@@V?$allocator@UBuildingYieldChange@@@std@@@std@@QBEIXZ ; std::vector<BuildingYieldChange,std::allocator<BuildingYieldChange> >::size
; Function compile flags: /Ogtpy
;	COMDAT ?size@?$vector@UBuildingYieldChange@@V?$allocator@UBuildingYieldChange@@@std@@@std@@QBEIXZ
_TEXT	SEGMENT
?size@?$vector@UBuildingYieldChange@@V?$allocator@UBuildingYieldChange@@@std@@@std@@QBEIXZ PROC ; std::vector<BuildingYieldChange,std::allocator<BuildingYieldChange> >::size, COMDAT
; _this$ = ecx

; 726  : 		return (_Mylast - _Myfirst);

	mov	edx, DWORD PTR [ecx+8]
	sub	edx, DWORD PTR [ecx+4]
	mov	eax, 715827883				; 2aaaaaabH
	imul	edx
	sar	edx, 1
	mov	eax, edx
	shr	eax, 31					; 0000001fH
	add	eax, edx

; 727  : 		}

	ret	0
?size@?$vector@UBuildingYieldChange@@V?$allocator@UBuildingYieldChange@@@std@@@std@@QBEIXZ ENDP ; std::vector<BuildingYieldChange,std::allocator<BuildingYieldChange> >::size
_TEXT	ENDS
PUBLIC	??1?$_Container_base_aux_alloc_empty@V?$allocator@UBuildingYieldChange@@@std@@@std@@IAE@XZ ; std::_Container_base_aux_alloc_empty<std::allocator<BuildingYieldChange> >::~_Container_base_aux_alloc_empty<std::allocator<BuildingYieldChange> >
; Function compile flags: /Ogtpy
; File c:\program files (x86)\microsoft visual studio 9.0\vc\include\xutility
;	COMDAT ??1?$_Container_base_aux_alloc_empty@V?$allocator@UBuildingYieldChange@@@std@@@std@@IAE@XZ
_TEXT	SEGMENT
??1?$_Container_base_aux_alloc_empty@V?$allocator@UBuildingYieldChange@@@std@@@std@@IAE@XZ PROC ; std::_Container_base_aux_alloc_empty<std::allocator<BuildingYieldChange> >::~_Container_base_aux_alloc_empty<std::allocator<BuildingYieldChange> >, COMDAT
; _this$ = ecx

; 627  : 	~_Container_base_aux_alloc_empty() { }

	ret	0
??1?$_Container_base_aux_alloc_empty@V?$allocator@UBuildingYieldChange@@@std@@@std@@IAE@XZ ENDP ; std::_Container_base_aux_alloc_empty<std::allocator<BuildingYieldChange> >::~_Container_base_aux_alloc_empty<std::allocator<BuildingYieldChange> >
_TEXT	ENDS
PUBLIC	??0?$allocator@UBuildingYieldChange@@@std@@QAE@XZ ; std::allocator<BuildingYieldChange>::allocator<BuildingYieldChange>
; Function compile flags: /Ogtpy
; File c:\program files (x86)\microsoft visual studio 9.0\vc\include\xmemory
;	COMDAT ??0?$allocator@UBuildingYieldChange@@@std@@QAE@XZ
_TEXT	SEGMENT
??0?$allocator@UBuildingYieldChange@@@std@@QAE@XZ PROC	; std::allocator<BuildingYieldChange>::allocator<BuildingYieldChange>, COMDAT
; _this$ = ecx

; 119  : 	allocator() _THROW0()

	mov	eax, ecx

; 120  : 		{	// construct default allocator (do nothing)
; 121  : 		}

	ret	0
??0?$allocator@UBuildingYieldChange@@@std@@QAE@XZ ENDP	; std::allocator<BuildingYieldChange>::allocator<BuildingYieldChange>
_TEXT	ENDS
PUBLIC	?capacity@?$vector@UBuildingGreatWork@@V?$allocator@UBuildingGreatWork@@@std@@@std@@QBEIXZ ; std::vector<BuildingGreatWork,std::allocator<BuildingGreatWork> >::capacity
; Function compile flags: /Ogtpy
; File c:\program files (x86)\microsoft visual studio 9.0\vc\include\vector
;	COMDAT ?capacity@?$vector@UBuildingGreatWork@@V?$allocator@UBuildingGreatWork@@@std@@@std@@QBEIXZ
_TEXT	SEGMENT
?capacity@?$vector@UBuildingGreatWork@@V?$allocator@UBuildingGreatWork@@@std@@@std@@QBEIXZ PROC ; std::vector<BuildingGreatWork,std::allocator<BuildingGreatWork> >::capacity, COMDAT
; _this$ = ecx

; 635  : 		return (_Myfirst == 0 ? 0 : _Myend - _Myfirst);

	mov	eax, DWORD PTR [ecx+4]
	test	eax, eax
	jne	SHORT $LN3@capacity@2

; 636  : 		}

	ret	0
$LN3@capacity@2:

; 635  : 		return (_Myfirst == 0 ? 0 : _Myend - _Myfirst);

	mov	ecx, DWORD PTR [ecx+12]
	sub	ecx, eax
	mov	eax, 715827883				; 2aaaaaabH
	imul	ecx
	sar	edx, 1
	mov	eax, edx
	shr	eax, 31					; 0000001fH
	add	eax, edx

; 636  : 		}

	ret	0
?capacity@?$vector@UBuildingGreatWork@@V?$allocator@UBuildingGreatWork@@@std@@@std@@QBEIXZ ENDP ; std::vector<BuildingGreatWork,std::allocator<BuildingGreatWork> >::capacity
_TEXT	ENDS
PUBLIC	??1?$_Container_base_aux_alloc_empty@V?$allocator@UBuildingGreatWork@@@std@@@std@@IAE@XZ ; std::_Container_base_aux_alloc_empty<std::allocator<BuildingGreatWork> >::~_Container_base_aux_alloc_empty<std::allocator<BuildingGreatWork> >
; Function compile flags: /Ogtpy
; File c:\program files (x86)\microsoft visual studio 9.0\vc\include\xutility
;	COMDAT ??1?$_Container_base_aux_alloc_empty@V?$allocator@UBuildingGreatWork@@@std@@@std@@IAE@XZ
_TEXT	SEGMENT
??1?$_Container_base_aux_alloc_empty@V?$allocator@UBuildingGreatWork@@@std@@@std@@IAE@XZ PROC ; std::_Container_base_aux_alloc_empty<std::allocator<BuildingGreatWork> >::~_Container_base_aux_alloc_empty<std::allocator<BuildingGreatWork> >, COMDAT
; _this$ = ecx

; 627  : 	~_Container_base_aux_alloc_empty() { }

	ret	0
??1?$_Container_base_aux_alloc_empty@V?$allocator@UBuildingGreatWork@@@std@@@std@@IAE@XZ ENDP ; std::_Container_base_aux_alloc_empty<std::allocator<BuildingGreatWork> >::~_Container_base_aux_alloc_empty<std::allocator<BuildingGreatWork> >
_TEXT	ENDS
PUBLIC	??0?$allocator@UBuildingGreatWork@@@std@@QAE@XZ	; std::allocator<BuildingGreatWork>::allocator<BuildingGreatWork>
; Function compile flags: /Ogtpy
; File c:\program files (x86)\microsoft visual studio 9.0\vc\include\xmemory
;	COMDAT ??0?$allocator@UBuildingGreatWork@@@std@@QAE@XZ
_TEXT	SEGMENT
??0?$allocator@UBuildingGreatWork@@@std@@QAE@XZ PROC	; std::allocator<BuildingGreatWork>::allocator<BuildingGreatWork>, COMDAT
; _this$ = ecx

; 119  : 	allocator() _THROW0()

	mov	eax, ecx

; 120  : 		{	// construct default allocator (do nothing)
; 121  : 		}

	ret	0
??0?$allocator@UBuildingGreatWork@@@std@@QAE@XZ ENDP	; std::allocator<BuildingGreatWork>::allocator<BuildingGreatWork>
_TEXT	ENDS
PUBLIC	??0const_iterator@?$_Tree@V?$_Tmap_traits@HV?$map@HHU?$less@H@std@@V?$allocator@U?$pair@$$CBHH@std@@@2@@std@@U?$less@H@2@V?$allocator@U?$pair@$$CBHV?$map@HHU?$less@H@std@@V?$allocator@U?$pair@$$CBHH@std@@@2@@std@@@std@@@2@$0A@@std@@@std@@QAE@PAU_Node@?$_Tree_nod@V?$_Tmap_traits@HV?$map@HHU?$less@H@std@@V?$allocator@U?$pair@$$CBHH@std@@@2@@std@@U?$less@H@2@V?$allocator@U?$pair@$$CBHV?$map@HHU?$less@H@std@@V?$allocator@U?$pair@$$CBHH@std@@@2@@std@@@std@@@2@$0A@@std@@@2@@Z ; std::_Tree<std::_Tmap_traits<int,std::map<int,int,std::less<int>,std::allocator<std::pair<int const ,int> > >,std::less<int>,std::allocator<std::pair<int const ,std::map<int,int,std::less<int>,std::allocator<std::pair<int const ,int> > > > >,0> >::const_iterator::const_iterator
; Function compile flags: /Ogtpy
; File c:\program files (x86)\microsoft visual studio 9.0\vc\include\xtree
;	COMDAT ??0const_iterator@?$_Tree@V?$_Tmap_traits@HV?$map@HHU?$less@H@std@@V?$allocator@U?$pair@$$CBHH@std@@@2@@std@@U?$less@H@2@V?$allocator@U?$pair@$$CBHV?$map@HHU?$less@H@std@@V?$allocator@U?$pair@$$CBHH@std@@@2@@std@@@std@@@2@$0A@@std@@@std@@QAE@PAU_Node@?$_Tree_nod@V?$_Tmap_traits@HV?$map@HHU?$less@H@std@@V?$allocator@U?$pair@$$CBHH@std@@@2@@std@@U?$less@H@2@V?$allocator@U?$pair@$$CBHV?$map@HHU?$less@H@std@@V?$allocator@U?$pair@$$CBHH@std@@@2@@std@@@std@@@2@$0A@@std@@@2@@Z
_TEXT	SEGMENT
__Pnode$ = 8						; size = 4
??0const_iterator@?$_Tree@V?$_Tmap_traits@HV?$map@HHU?$less@H@std@@V?$allocator@U?$pair@$$CBHH@std@@@2@@std@@U?$less@H@2@V?$allocator@U?$pair@$$CBHV?$map@HHU?$less@H@std@@V?$allocator@U?$pair@$$CBHH@std@@@2@@std@@@std@@@2@$0A@@std@@@std@@QAE@PAU_Node@?$_Tree_nod@V?$_Tmap_traits@HV?$map@HHU?$less@H@std@@V?$allocator@U?$pair@$$CBHH@std@@@2@@std@@U?$less@H@2@V?$allocator@U?$pair@$$CBHV?$map@HHU?$less@H@std@@V?$allocator@U?$pair@$$CBHH@std@@@2@@std@@@std@@@2@$0A@@std@@@2@@Z PROC ; std::_Tree<std::_Tmap_traits<int,std::map<int,int,std::less<int>,std::allocator<std::pair<int const ,int> > >,std::less<int>,std::allocator<std::pair<int const ,std::map<int,int,std::less<int>,std::allocator<std::pair<int const ,int> > > > >,0> >::const_iterator::const_iterator, COMDAT
; _this$ = ecx

; 244  : 			{	// construct with node pointer _Pnode

	mov	eax, ecx
	mov	ecx, DWORD PTR __Pnode$[esp-4]
	mov	DWORD PTR [eax], ecx

; 245  : 			}

	ret	4
??0const_iterator@?$_Tree@V?$_Tmap_traits@HV?$map@HHU?$less@H@std@@V?$allocator@U?$pair@$$CBHH@std@@@2@@std@@U?$less@H@2@V?$allocator@U?$pair@$$CBHV?$map@HHU?$less@H@std@@V?$allocator@U?$pair@$$CBHH@std@@@2@@std@@@std@@@2@$0A@@std@@@std@@QAE@PAU_Node@?$_Tree_nod@V?$_Tmap_traits@HV?$map@HHU?$less@H@std@@V?$allocator@U?$pair@$$CBHH@std@@@2@@std@@U?$less@H@2@V?$allocator@U?$pair@$$CBHV?$map@HHU?$less@H@std@@V?$allocator@U?$pair@$$CBHH@std@@@2@@std@@@std@@@2@$0A@@std@@@2@@Z ENDP ; std::_Tree<std::_Tmap_traits<int,std::map<int,int,std::less<int>,std::allocator<std::pair<int const ,int> > >,std::less<int>,std::allocator<std::pair<int const ,std::map<int,int,std::less<int>,std::allocator<std::pair<int const ,int> > > > >,0> >::const_iterator::const_iterator
_TEXT	ENDS
PUBLIC	??8const_iterator@?$_Tree@V?$_Tmap_traits@HV?$map@HHU?$less@H@std@@V?$allocator@U?$pair@$$CBHH@std@@@2@@std@@U?$less@H@2@V?$allocator@U?$pair@$$CBHV?$map@HHU?$less@H@std@@V?$allocator@U?$pair@$$CBHH@std@@@2@@std@@@std@@@2@$0A@@std@@@std@@QBE_NABV012@@Z ; std::_Tree<std::_Tmap_traits<int,std::map<int,int,std::less<int>,std::allocator<std::pair<int const ,int> > >,std::less<int>,std::allocator<std::pair<int const ,std::map<int,int,std::less<int>,std::allocator<std::pair<int const ,int> > > > >,0> >::const_iterator::operator==
; Function compile flags: /Ogtpy
;	COMDAT ??8const_iterator@?$_Tree@V?$_Tmap_traits@HV?$map@HHU?$less@H@std@@V?$allocator@U?$pair@$$CBHH@std@@@2@@std@@U?$less@H@2@V?$allocator@U?$pair@$$CBHV?$map@HHU?$less@H@std@@V?$allocator@U?$pair@$$CBHH@std@@@2@@std@@@std@@@2@$0A@@std@@@std@@QBE_NABV012@@Z
_TEXT	SEGMENT
__Right$ = 8						; size = 4
??8const_iterator@?$_Tree@V?$_Tmap_traits@HV?$map@HHU?$less@H@std@@V?$allocator@U?$pair@$$CBHH@std@@@2@@std@@U?$less@H@2@V?$allocator@U?$pair@$$CBHV?$map@HHU?$less@H@std@@V?$allocator@U?$pair@$$CBHH@std@@@2@@std@@@std@@@2@$0A@@std@@@std@@QBE_NABV012@@Z PROC ; std::_Tree<std::_Tmap_traits<int,std::map<int,int,std::less<int>,std::allocator<std::pair<int const ,int> > >,std::less<int>,std::allocator<std::pair<int const ,std::map<int,int,std::less<int>,std::allocator<std::pair<int const ,int> > > > >,0> >::const_iterator::operator==, COMDAT
; _this$ = ecx

; 300  : 
; 301  :  #if _HAS_ITERATOR_DEBUGGING
; 302  : 			if (this->_Mycont == 0 || this->_Mycont != _Right._Mycont)
; 303  : 				{
; 304  : 				_DEBUG_ERROR("map/set iterators incompatible");
; 305  : 				_SCL_SECURE_INVALID_ARGUMENT;
; 306  : 				}
; 307  :  #else
; 308  : 			_SCL_SECURE_VALIDATE(this->_Has_container() && this->_Same_container(_Right));
; 309  :  #endif /* _HAS_ITERATOR_DEBUGGING */
; 310  : 
; 311  : 			return (_Ptr == _Right._Ptr);

	mov	eax, DWORD PTR [ecx]
	mov	edx, DWORD PTR __Right$[esp-4]
	xor	ecx, ecx
	cmp	eax, DWORD PTR [edx]
	sete	cl
	mov	al, cl

; 312  : 			}

	ret	4
??8const_iterator@?$_Tree@V?$_Tmap_traits@HV?$map@HHU?$less@H@std@@V?$allocator@U?$pair@$$CBHH@std@@@2@@std@@U?$less@H@2@V?$allocator@U?$pair@$$CBHV?$map@HHU?$less@H@std@@V?$allocator@U?$pair@$$CBHH@std@@@2@@std@@@std@@@2@$0A@@std@@@std@@QBE_NABV012@@Z ENDP ; std::_Tree<std::_Tmap_traits<int,std::map<int,int,std::less<int>,std::allocator<std::pair<int const ,int> > >,std::less<int>,std::allocator<std::pair<int const ,std::map<int,int,std::less<int>,std::allocator<std::pair<int const ,int> > > > >,0> >::const_iterator::operator==
_TEXT	ENDS
PUBLIC	?_Mynode@const_iterator@?$_Tree@V?$_Tmap_traits@HV?$map@HHU?$less@H@std@@V?$allocator@U?$pair@$$CBHH@std@@@2@@std@@U?$less@H@2@V?$allocator@U?$pair@$$CBHV?$map@HHU?$less@H@std@@V?$allocator@U?$pair@$$CBHH@std@@@2@@std@@@std@@@2@$0A@@std@@@std@@QBEPAU_Node@?$_Tree_nod@V?$_Tmap_traits@HV?$map@HHU?$less@H@std@@V?$allocator@U?$pair@$$CBHH@std@@@2@@std@@U?$less@H@2@V?$allocator@U?$pair@$$CBHV?$map@HHU?$less@H@std@@V?$allocator@U?$pair@$$CBHH@std@@@2@@std@@@std@@@2@$0A@@std@@@3@XZ ; std::_Tree<std::_Tmap_traits<int,std::map<int,int,std::less<int>,std::allocator<std::pair<int const ,int> > >,std::less<int>,std::allocator<std::pair<int const ,std::map<int,int,std::less<int>,std::allocator<std::pair<int const ,int> > > > >,0> >::const_iterator::_Mynode
; Function compile flags: /Ogtpy
;	COMDAT ?_Mynode@const_iterator@?$_Tree@V?$_Tmap_traits@HV?$map@HHU?$less@H@std@@V?$allocator@U?$pair@$$CBHH@std@@@2@@std@@U?$less@H@2@V?$allocator@U?$pair@$$CBHV?$map@HHU?$less@H@std@@V?$allocator@U?$pair@$$CBHH@std@@@2@@std@@@std@@@2@$0A@@std@@@std@@QBEPAU_Node@?$_Tree_nod@V?$_Tmap_traits@HV?$map@HHU?$less@H@std@@V?$allocator@U?$pair@$$CBHH@std@@@2@@std@@U?$less@H@2@V?$allocator@U?$pair@$$CBHV?$map@HHU?$less@H@std@@V?$allocator@U?$pair@$$CBHH@std@@@2@@std@@@std@@@2@$0A@@std@@@3@XZ
_TEXT	SEGMENT
?_Mynode@const_iterator@?$_Tree@V?$_Tmap_traits@HV?$map@HHU?$less@H@std@@V?$allocator@U?$pair@$$CBHH@std@@@2@@std@@U?$less@H@2@V?$allocator@U?$pair@$$CBHV?$map@HHU?$less@H@std@@V?$allocator@U?$pair@$$CBHH@std@@@2@@std@@@std@@@2@$0A@@std@@@std@@QBEPAU_Node@?$_Tree_nod@V?$_Tmap_traits@HV?$map@HHU?$less@H@std@@V?$allocator@U?$pair@$$CBHH@std@@@2@@std@@U?$less@H@2@V?$allocator@U?$pair@$$CBHV?$map@HHU?$less@H@std@@V?$allocator@U?$pair@$$CBHH@std@@@2@@std@@@std@@@2@$0A@@std@@@3@XZ PROC ; std::_Tree<std::_Tmap_traits<int,std::map<int,int,std::less<int>,std::allocator<std::pair<int const ,int> > >,std::less<int>,std::allocator<std::pair<int const ,std::map<int,int,std::less<int>,std::allocator<std::pair<int const ,int> > > > >,0> >::const_iterator::_Mynode, COMDAT
; _this$ = ecx

; 410  : 			return (_Ptr);

	mov	eax, DWORD PTR [ecx]

; 411  : 			}

	ret	0
