; Listing generated by Microsoft (R) Optimizing Compiler Version 15.00.30729.01 

	TITLE	c:\Users\EnormousApplePie\Desktop\Lekmod DLL versions\v31\LEKMOD_DLL\CvGameCoreDLL_Expansion2\CvDealClasses.cpp
	.686P
	.XMM
	include listing.inc
	.model	flat

INCLUDELIB MSVCRT
INCLUDELIB OLDNAMES

PUBLIC	?NO_QUEST_DATA@CvMinorCivQuest@@2HB		; CvMinorCivQuest::NO_QUEST_DATA
PUBLIC	?NO_TURN@CvMinorCivQuest@@2HB			; CvMinorCivQuest::NO_TURN
CONST	SEGMENT
$SG221530 DB	'IsAbleToMakePeace', 00H
$SG223147 DB	00H
	ORG $+1
$SG222823 DB	'LEADER_HARUN_AL_RASHID', 00H
	ORG $+1
$SG222835 DB	'BUILDING_BAZAAR', 00H
$SG222885 DB	'TXT_KEY_MISC_MADE_PEACE_WITH_MINOR_ALLIES', 00H
	ORG $+2
$SG222888 DB	'TXT_KEY_MISC_MADE_PEACE_WITH_MINOR_ALLIES_SUMMARY', 00H
	ORG $+2
$SG222909 DB	'[NEWLINE]', 00H
	ORG $+2
$SG223132 DB	'TXT_KEY_NOTIFICATION_DEAL_EXPIRED_GPT_FROM_US', 00H
	ORG $+2
$SG223134 DB	'TXT_KEY_NOTIFICATION_SUMMARY_DEAL_EXPIRED_GPT_FROM_US', 00H
	ORG $+2
$SG223137 DB	'TXT_KEY_NOTIFICATION_DEAL_EXPIRED_GPT_TO_US', 00H
$SG223139 DB	'TXT_KEY_NOTIFICATION_SUMMARY_DEAL_EXPIRED_GPT_TO_US', 00H
$SG223158 DB	'TXT_KEY_NOTIFICATION_DEAL_EXPIRED_RESOURCE_FROM_US', 00H
	ORG $+1
$SG223161 DB	'TXT_KEY_NOTIFICATION_SUMMARY_DEAL_EXPIRED_RESOURCE_FROM_'
	DB	'US', 00H
	ORG $+1
$SG223165 DB	'TXT_KEY_NOTIFICATION_DEAL_EXPIRED_RESOURCE_TO_US', 00H
	ORG $+3
$SG223168 DB	'TXT_KEY_NOTIFICATION_SUMMARY_DEAL_EXPIRED_RESOURCE_TO_US'
	DB	00H
	ORG $+3
$SG223173 DB	'TXT_KEY_NOTIFICATION_DEAL_EXPIRED_OPEN_BORDERS_FROM_US', 00H
	ORG $+1
$SG223175 DB	'TXT_KEY_NOTIFICATION_SUMMARY_DEAL_EXPIRED_OPEN_BORDERS_F'
	DB	'ROM_US', 00H
	ORG $+1
$SG223178 DB	'TXT_KEY_NOTIFICATION_DEAL_EXPIRED_OPEN_BORDERS_TO_US', 00H
	ORG $+3
$SG223180 DB	'TXT_KEY_NOTIFICATION_SUMMARY_DEAL_EXPIRED_OPEN_BORDERS_T'
	DB	'O_US', 00H
	ORG $+3
$SG223185 DB	'TXT_KEY_NOTIFICATION_DEAL_EXPIRED_DEFENSIVE_PACT_FROM_US'
	DB	00H
	ORG $+7
$SG223187 DB	'TXT_KEY_NOTIFICATION_SUMMARY_DEAL_EXPIRED_DEFENSIVE_PACT'
	DB	'_FROM_US', 00H
	ORG $+3
$SG223190 DB	'TXT_KEY_NOTIFICATION_DEAL_EXPIRED_DEFENSIVE_PACT_TO_US', 00H
	ORG $+1
$SG223192 DB	'TXT_KEY_NOTIFICATION_SUMMARY_DEAL_EXPIRED_DEFENSIVE_PACT'
	DB	'_TO_US', 00H
	ORG $+1
$SG223210 DB	'TXT_KEY_NTFN_RA_FREE_TECH', 00H
	ORG $+2
$SG223212 DB	'TXT_KEY_NTFN_RA_FREE_TECH_S', 00H
$SG223217 DB	'TXT_KEY_NTFN_RA_FREE_TECH_WAR_CANCEL', 00H
	ORG $+3
$SG223219 DB	'TXT_KEY_NTFN_RA_FREE_TECH_WAR_CANCEL_S', 00H
	ORG $+1
$SG223222 DB	'TXT_KEY_NTFN_RA_FREE_TECH_CANCEL', 00H
	ORG $+3
$SG223224 DB	'TXT_KEY_NTFN_RA_FREE_TECH_CANCEL_S', 00H
	ORG $+1
$SG223229 DB	'TXT_KEY_NOTIFICATION_DEAL_EXPIRED_TRADE_AGREEMENT_FROM_U'
	DB	'S', 00H
	ORG $+2
$SG223231 DB	'TXT_KEY_NOTIFICATION_SUMMARY_DEAL_EXPIRED_TRADE_AGREEMEN'
	DB	'T_FROM_US', 00H
	ORG $+2
$SG223234 DB	'TXT_KEY_NOTIFICATION_DEAL_EXPIRED_TRADE_AGREEMENT_TO_US', 00H
$SG223332 DB	'DiplomacyAI_Messages_Log_', 00H
	ORG $+2
$SG223236 DB	'TXT_KEY_NOTIFICATION_SUMMARY_DEAL_EXPIRED_TRADE_AGREEMEN'
	DB	'T_TO_US', 00H
$SG223241 DB	'TXT_KEY_NOTIFICATION_DEAL_EXPIRED_PEACE', 00H
$SG223243 DB	'TXT_KEY_NOTIFICATION_SUMMARY_DEAL_EXPIRED_PEACE', 00H
$SG223252 DB	'TXT_KEY_NOTIFICATION_DEAL_EXPIRED_PEACE', 00H
$SG223254 DB	'TXT_KEY_NOTIFICATION_SUMMARY_DEAL_EXPIRED_PEACE', 00H
$SG223257 DB	'TXT_KEY_NOTIFICATION_DEAL_EXPIRED_PEACE', 00H
$SG223259 DB	'TXT_KEY_NOTIFICATION_SUMMARY_DEAL_EXPIRED_PEACE', 00H
$SG223331 DB	'.csv', 00H
	ORG $+3
$SG223334 DB	'DiplomacyAI_Messages_Log.csv', 00H
	ORG $+3
$SG223345 DB	'%03d, ', 00H
	ORG $+1
$SG223347 DB	', ', 00H
	ORG $+1
$SG223349 DB	', , ', 00H
	ORG $+3
$SG223356 DB	'***** WHITE PEACE *****', 00H
$SG223358 DB	'***** ARMISTICE *****', 00H
	ORG $+2
$SG223360 DB	'***** SETTLEMENT *****', 00H
	ORG $+1
$SG223362 DB	'***** BACKDOWN *****', 00H
	ORG $+3
$SG223364 DB	'***** SUBMISSION *****', 00H
	ORG $+1
$SG223366 DB	'***** SURRENDER *****', 00H
	ORG $+2
$SG223368 DB	'***** CESSION *****', 00H
$SG223370 DB	'***** CAPITULATION *****', 00H
	ORG $+3
$SG223372 DB	'***** UNCONDITIONAL SURRENDER *****', 00H
$SG223374 DB	'XXX NO VALID PEACE TREATY!!!', 00H
	ORG $+3
$SG223376 DB	', ', 00H
	ORG $+1
$SG223380 DB	' is giving up!', 00H
	ORG $+1
$SG223381 DB	', ', 00H
	ORG $+1
$SG223384 DB	', White Peace!', 00H
	ORG $+1
$SG223388 DB	' has made a demand!', 00H
$SG223389 DB	', ', 00H
	ORG $+1
$SG223393 DB	' has made a request!', 00H
	ORG $+3
$SG223394 DB	', ', 00H
	ORG $+1
$SG223400 DB	'***** Gold Trade: %d *****', 00H
	ORG $+1
$SG223402 DB	'***** GPT Trade: %d *****', 00H
	ORG $+2
$SG223404 DB	'***** Resource Trade: ID %d *****', 00H
	ORG $+2
$SG223406 DB	'***** City Trade: ID %d %d *****', 00H
	ORG $+3
$SG223408 DB	'Open Borders Trade', 00H
	ORG $+1
$SG223410 DB	'***** Defensive Pact Trade *****', 00H
	ORG $+3
$SG223412 DB	'Research Agreement Trade', 00H
	ORG $+3
$SG223414 DB	'***** Peace Treaty Trade *****', 00H
	ORG $+1
$SG223416 DB	'***** Third Party Peace Trade *****', 00H
$SG223418 DB	'***** Third Party War Trade *****', 00H
	ORG $+2
$SG223420 DB	'***** Vote Commitment: ID %d, Choice %d *****', 00H
	ORG $+2
$SG223422 DB	'***** UNKNOWN TRADE!!! *****', 00H
	ORG $+3
$SG223424 DB	', ', 00H
CONST	ENDS
;	COMDAT ?NO_TURN@CvMinorCivQuest@@2HB
CONST	SEGMENT
?NO_TURN@CvMinorCivQuest@@2HB DD 0ffffffffH		; CvMinorCivQuest::NO_TURN
CONST	ENDS
;	COMDAT ?NO_QUEST_DATA@CvMinorCivQuest@@2HB
CONST	SEGMENT
?NO_QUEST_DATA@CvMinorCivQuest@@2HB DD 0ffffffffH	; CvMinorCivQuest::NO_QUEST_DATA
CONST	ENDS
PUBLIC	??0CvTradedItem@@QAE@XZ				; CvTradedItem::CvTradedItem
; Function compile flags: /Ogtpy
; File c:\users\enormousapplepie\desktop\lekmod dll versions\v31\lekmod_dll\cvgamecoredll_expansion2\cvdealclasses.cpp
;	COMDAT ??0CvTradedItem@@QAE@XZ
_TEXT	SEGMENT
??0CvTradedItem@@QAE@XZ PROC				; CvTradedItem::CvTradedItem, COMDAT
; _this$ = ecx

; 44   : {

	mov	eax, ecx

; 45   : 	m_eItemType = TRADE_ITEM_NONE;
; 46   : 	m_iDuration = 0;

	xor	ecx, ecx
	mov	DWORD PTR [eax], -1
	mov	DWORD PTR [eax+4], ecx

; 47   : #ifdef AUI_YIELDS_APPLIED_AFTER_TURN_NOT_BEFORE
; 48   : 	m_iTurnsRemaining = -1;
; 49   : #else
; 50   : 	m_iFinalTurn = 0;

	mov	DWORD PTR [eax+8], ecx

; 51   : #endif
; 52   : 	m_iData1 = 0;

	mov	DWORD PTR [eax+12], ecx

; 53   : 	m_iData2 = 0;

	mov	DWORD PTR [eax+16], ecx

; 54   : 	m_iData3 = 0;

	mov	DWORD PTR [eax+20], ecx

; 55   : 	m_bFlag1 = false;

	mov	BYTE PTR [eax+24], cl

; 56   : 	m_eFromPlayer = NO_PLAYER;

	mov	DWORD PTR [eax+28], -1

; 57   : 	m_bFromRenewed = false;

	mov	BYTE PTR [eax+32], cl

; 58   : 	m_bToRenewed = false;

	mov	BYTE PTR [eax+33], cl

; 59   : }

	ret	0
??0CvTradedItem@@QAE@XZ ENDP				; CvTradedItem::CvTradedItem
_TEXT	ENDS
PUBLIC	??8CvTradedItem@@QBE_NABU0@@Z			; CvTradedItem::operator==
; Function compile flags: /Ogtpy
;	COMDAT ??8CvTradedItem@@QBE_NABU0@@Z
_TEXT	SEGMENT
_rhs$ = 8						; size = 4
??8CvTradedItem@@QBE_NABU0@@Z PROC			; CvTradedItem::operator==, COMDAT
; _this$ = ecx

; 64   : 	return (m_eItemType == rhs.m_eItemType &&
; 65   : 	        m_iData1 == rhs.m_iData1 &&
; 66   : 	        m_iData2 == rhs.m_iData2 &&
; 67   : 			m_iData3 == rhs.m_iData3 &&
; 68   : 			m_bFlag1 == rhs.m_bFlag1 &&
; 69   : 	        m_eFromPlayer == rhs.m_eFromPlayer &&
; 70   : 	        m_iDuration == rhs.m_iDuration &&
; 71   : #ifdef AUI_YIELDS_APPLIED_AFTER_TURN_NOT_BEFORE
; 72   : 			m_iTurnsRemaining == rhs.m_iTurnsRemaining);
; 73   : #else
; 74   : 	        m_iFinalTurn == rhs.m_iFinalTurn);

	mov	edx, DWORD PTR [ecx]
	mov	eax, DWORD PTR _rhs$[esp-4]
	cmp	edx, DWORD PTR [eax]
	jne	SHORT $LN3@operator
	mov	edx, DWORD PTR [ecx+12]
	cmp	edx, DWORD PTR [eax+12]
	jne	SHORT $LN3@operator
	mov	edx, DWORD PTR [ecx+16]
	cmp	edx, DWORD PTR [eax+16]
	jne	SHORT $LN3@operator
	mov	edx, DWORD PTR [ecx+20]
	cmp	edx, DWORD PTR [eax+20]
	jne	SHORT $LN3@operator
	mov	dl, BYTE PTR [ecx+24]
	cmp	dl, BYTE PTR [eax+24]
	jne	SHORT $LN3@operator
	mov	edx, DWORD PTR [ecx+28]
	cmp	edx, DWORD PTR [eax+28]
	jne	SHORT $LN3@operator
	mov	edx, DWORD PTR [ecx+4]
	cmp	edx, DWORD PTR [eax+4]
	jne	SHORT $LN3@operator
	mov	ecx, DWORD PTR [ecx+8]
	cmp	ecx, DWORD PTR [eax+8]
	jne	SHORT $LN3@operator
	mov	eax, 1

; 75   : #endif
; 76   : }

	ret	4
$LN3@operator:

; 64   : 	return (m_eItemType == rhs.m_eItemType &&
; 65   : 	        m_iData1 == rhs.m_iData1 &&
; 66   : 	        m_iData2 == rhs.m_iData2 &&
; 67   : 			m_iData3 == rhs.m_iData3 &&
; 68   : 			m_bFlag1 == rhs.m_bFlag1 &&
; 69   : 	        m_eFromPlayer == rhs.m_eFromPlayer &&
; 70   : 	        m_iDuration == rhs.m_iDuration &&
; 71   : #ifdef AUI_YIELDS_APPLIED_AFTER_TURN_NOT_BEFORE
; 72   : 			m_iTurnsRemaining == rhs.m_iTurnsRemaining);
; 73   : #else
; 74   : 	        m_iFinalTurn == rhs.m_iFinalTurn);

	xor	eax, eax

; 75   : #endif
; 76   : }

	ret	4
??8CvTradedItem@@QBE_NABU0@@Z ENDP			; CvTradedItem::operator==
_TEXT	ENDS
PUBLIC	?SetFromPlayer@CvDeal@@QAEXW4PlayerTypes@@@Z	; CvDeal::SetFromPlayer
; Function compile flags: /Ogtpy
;	COMDAT ?SetFromPlayer@CvDeal@@QAEXW4PlayerTypes@@@Z
_TEXT	SEGMENT
_ePlayer$ = 8						; size = 4
?SetFromPlayer@CvDeal@@QAEXW4PlayerTypes@@@Z PROC	; CvDeal::SetFromPlayer, COMDAT
; _this$ = ecx

; 265  : 	CvAssertMsg(ePlayer >= 0, "DEAL: Invalid Player Index.  Please send Jon this with your last 5 autosaves and what changelist # you're playing.");
; 266  : 	CvAssertMsg(ePlayer < MAX_CIV_PLAYERS, "DEAL: Invalid Player Index.  Please send Jon this with your last 5 autosaves and what changelist # you're playing.");
; 267  : 
; 268  : 	m_eFromPlayer = ePlayer;

	mov	eax, DWORD PTR _ePlayer$[esp-4]
	mov	DWORD PTR [ecx+4], eax

; 269  : }

	ret	4
?SetFromPlayer@CvDeal@@QAEXW4PlayerTypes@@@Z ENDP	; CvDeal::SetFromPlayer
_TEXT	ENDS
PUBLIC	?SetToPlayer@CvDeal@@QAEXW4PlayerTypes@@@Z	; CvDeal::SetToPlayer
; Function compile flags: /Ogtpy
;	COMDAT ?SetToPlayer@CvDeal@@QAEXW4PlayerTypes@@@Z
_TEXT	SEGMENT
_ePlayer$ = 8						; size = 4
?SetToPlayer@CvDeal@@QAEXW4PlayerTypes@@@Z PROC		; CvDeal::SetToPlayer, COMDAT
; _this$ = ecx

; 274  : 	CvAssertMsg(ePlayer >= 0, "DEAL: Invalid Player Index.  Please send Jon this with your last 5 autosaves and what changelist # you're playing.");
; 275  : 	CvAssertMsg(ePlayer < MAX_CIV_PLAYERS, "DEAL: Invalid Player Index.  Please send Jon this with your last 5 autosaves and what changelist # you're playing.");
; 276  : 
; 277  : 	m_eToPlayer = ePlayer;

	mov	eax, DWORD PTR _ePlayer$[esp-4]
	mov	DWORD PTR [ecx+8], eax

; 278  : }

	ret	4
?SetToPlayer@CvDeal@@QAEXW4PlayerTypes@@@Z ENDP		; CvDeal::SetToPlayer
_TEXT	ENDS
PUBLIC	?GetOtherPlayer@CvDeal@@QBE?AW4PlayerTypes@@W42@@Z ; CvDeal::GetOtherPlayer
; Function compile flags: /Ogtpy
;	COMDAT ?GetOtherPlayer@CvDeal@@QBE?AW4PlayerTypes@@W42@@Z
_TEXT	SEGMENT
_eFromPlayer$ = 8					; size = 4
?GetOtherPlayer@CvDeal@@QBE?AW4PlayerTypes@@W42@@Z PROC	; CvDeal::GetOtherPlayer, COMDAT
; _this$ = ecx

; 283  : 	CvAssertMsg(eFromPlayer >= 0, "DEAL: Invalid Player Index.  Please send Jon this with your last 5 autosaves and what changelist # you're playing.");
; 284  : 	CvAssertMsg(eFromPlayer < MAX_CIV_PLAYERS, "DEAL: Invalid Player Index.  Please send Jon this with your last 5 autosaves and what changelist # you're playing.");
; 285  : 
; 286  : 	if(m_eFromPlayer != eFromPlayer)

	mov	eax, DWORD PTR [ecx+4]
	cmp	eax, DWORD PTR _eFromPlayer$[esp-4]

; 287  : 	{
; 288  : 		return m_eFromPlayer;

	jne	SHORT $LN1@GetOtherPl

; 289  : 	}
; 290  : 	else
; 291  : 	{
; 292  : 		return m_eToPlayer;

	mov	eax, DWORD PTR [ecx+8]
$LN1@GetOtherPl:

; 293  : 	}
; 294  : }

	ret	4
?GetOtherPlayer@CvDeal@@QBE?AW4PlayerTypes@@W42@@Z ENDP	; CvDeal::GetOtherPlayer
_TEXT	ENDS
PUBLIC	??_7bad_alloc@std@@6B@				; std::bad_alloc::`vftable'
PUBLIC	??0bad_alloc@std@@QAE@PBD@Z			; std::bad_alloc::bad_alloc
PUBLIC	??_R4bad_alloc@std@@6B@				; std::bad_alloc::`RTTI Complete Object Locator'
PUBLIC	??_R0?AVbad_alloc@std@@@8			; std::bad_alloc `RTTI Type Descriptor'
PUBLIC	??_R3bad_alloc@std@@8				; std::bad_alloc::`RTTI Class Hierarchy Descriptor'
PUBLIC	??_R2bad_alloc@std@@8				; std::bad_alloc::`RTTI Base Class Array'
PUBLIC	??_R1A@?0A@EA@bad_alloc@std@@8			; std::bad_alloc::`RTTI Base Class Descriptor at (0,-1,0,64)'
PUBLIC	??_R1A@?0A@EA@exception@std@@8			; std::exception::`RTTI Base Class Descriptor at (0,-1,0,64)'
PUBLIC	??_R0?AVexception@std@@@8			; std::exception `RTTI Type Descriptor'
PUBLIC	??_R3exception@std@@8				; std::exception::`RTTI Class Hierarchy Descriptor'
PUBLIC	??_R2exception@std@@8				; std::exception::`RTTI Base Class Array'
EXTRN	__imp_??0exception@std@@QAE@ABQBD@Z:PROC
EXTRN	??_7type_info@@6B@:QWORD			; type_info::`vftable'
EXTRN	??_Ebad_alloc@std@@UAEPAXI@Z:PROC		; std::bad_alloc::`vector deleting destructor'
EXTRN	?what@exception@std@@UBEPBDXZ:PROC		; std::exception::what
;	COMDAT ??_R2exception@std@@8
; File c:\program files (x86)\microsoft visual studio 9.0\vc\include\exception
rdata$r	SEGMENT
??_R2exception@std@@8 DD FLAT:??_R1A@?0A@EA@exception@std@@8 ; std::exception::`RTTI Base Class Array'
rdata$r	ENDS
;	COMDAT ??_R3exception@std@@8
rdata$r	SEGMENT
??_R3exception@std@@8 DD 00H				; std::exception::`RTTI Class Hierarchy Descriptor'
	DD	00H
	DD	01H
	DD	FLAT:??_R2exception@std@@8
rdata$r	ENDS
;	COMDAT ??_R0?AVexception@std@@@8
_DATA	SEGMENT
??_R0?AVexception@std@@@8 DD FLAT:??_7type_info@@6B@	; std::exception `RTTI Type Descriptor'
	DD	00H
	DB	'.?AVexception@std@@', 00H
_DATA	ENDS
;	COMDAT ??_R1A@?0A@EA@exception@std@@8
rdata$r	SEGMENT
??_R1A@?0A@EA@exception@std@@8 DD FLAT:??_R0?AVexception@std@@@8 ; std::exception::`RTTI Base Class Descriptor at (0,-1,0,64)'
	DD	00H
	DD	00H
	DD	0ffffffffH
	DD	00H
	DD	040H
	DD	FLAT:??_R3exception@std@@8
rdata$r	ENDS
;	COMDAT ??_R1A@?0A@EA@bad_alloc@std@@8
rdata$r	SEGMENT
??_R1A@?0A@EA@bad_alloc@std@@8 DD FLAT:??_R0?AVbad_alloc@std@@@8 ; std::bad_alloc::`RTTI Base Class Descriptor at (0,-1,0,64)'
	DD	01H
	DD	00H
	DD	0ffffffffH
	DD	00H
	DD	040H
	DD	FLAT:??_R3bad_alloc@std@@8
rdata$r	ENDS
;	COMDAT ??_R2bad_alloc@std@@8
rdata$r	SEGMENT
??_R2bad_alloc@std@@8 DD FLAT:??_R1A@?0A@EA@bad_alloc@std@@8 ; std::bad_alloc::`RTTI Base Class Array'
	DD	FLAT:??_R1A@?0A@EA@exception@std@@8
rdata$r	ENDS
;	COMDAT ??_R3bad_alloc@std@@8
rdata$r	SEGMENT
??_R3bad_alloc@std@@8 DD 00H				; std::bad_alloc::`RTTI Class Hierarchy Descriptor'
	DD	00H
	DD	02H
	DD	FLAT:??_R2bad_alloc@std@@8
rdata$r	ENDS
;	COMDAT ??_R0?AVbad_alloc@std@@@8
_DATA	SEGMENT
??_R0?AVbad_alloc@std@@@8 DD FLAT:??_7type_info@@6B@	; std::bad_alloc `RTTI Type Descriptor'
	DD	00H
	DB	'.?AVbad_alloc@std@@', 00H
_DATA	ENDS
;	COMDAT ??_R4bad_alloc@std@@6B@
rdata$r	SEGMENT
??_R4bad_alloc@std@@6B@ DD 00H				; std::bad_alloc::`RTTI Complete Object Locator'
	DD	00H
	DD	00H
	DD	FLAT:??_R0?AVbad_alloc@std@@@8
	DD	FLAT:??_R3bad_alloc@std@@8
rdata$r	ENDS
;	COMDAT ??_7bad_alloc@std@@6B@
CONST	SEGMENT
??_7bad_alloc@std@@6B@ DD FLAT:??_R4bad_alloc@std@@6B@	; std::bad_alloc::`vftable'
	DD	FLAT:??_Ebad_alloc@std@@UAEPAXI@Z
	DD	FLAT:?what@exception@std@@UBEPBDXZ
; Function compile flags: /Ogtpy
CONST	ENDS
;	COMDAT ??0bad_alloc@std@@QAE@PBD@Z
_TEXT	SEGMENT
__Message$ = 8						; size = 4
??0bad_alloc@std@@QAE@PBD@Z PROC			; std::bad_alloc::bad_alloc, COMDAT
; _this$ = ecx

; 371  : 		{	// construct from message string

	push	esi
	lea	eax, DWORD PTR __Message$[esp]
	push	eax
	mov	esi, ecx
	call	DWORD PTR __imp_??0exception@std@@QAE@ABQBD@Z
	mov	DWORD PTR [esi], OFFSET ??_7bad_alloc@std@@6B@

; 372  : 		}

	mov	eax, esi
	pop	esi
	ret	4
??0bad_alloc@std@@QAE@PBD@Z ENDP			; std::bad_alloc::bad_alloc
_TEXT	ENDS
PUBLIC	??1bad_alloc@std@@UAE@XZ			; std::bad_alloc::~bad_alloc
EXTRN	__imp_??1exception@std@@UAE@XZ:PROC
; Function compile flags: /Ogtpy
;	COMDAT ??1bad_alloc@std@@UAE@XZ
_TEXT	SEGMENT
??1bad_alloc@std@@UAE@XZ PROC				; std::bad_alloc::~bad_alloc, COMDAT
; _this$ = ecx

; 380  : 		{	// destroy the object

	mov	DWORD PTR [ecx], OFFSET ??_7bad_alloc@std@@6B@

; 381  : 		}

	jmp	DWORD PTR __imp_??1exception@std@@UAE@XZ
??1bad_alloc@std@@UAE@XZ ENDP				; std::bad_alloc::~bad_alloc
_TEXT	ENDS
EXTRN	??3@YAXPAX@Z:PROC				; operator delete
; Function compile flags: /Ogtpy
;	COMDAT ??_Gbad_alloc@std@@UAEPAXI@Z
_TEXT	SEGMENT
___flags$ = 8						; size = 4
??_Gbad_alloc@std@@UAEPAXI@Z PROC			; std::bad_alloc::`scalar deleting destructor', COMDAT
; _this$ = ecx
	push	esi
	mov	esi, ecx
	mov	DWORD PTR [esi], OFFSET ??_7bad_alloc@std@@6B@
	call	DWORD PTR __imp_??1exception@std@@UAE@XZ
	test	BYTE PTR ___flags$[esp], 1
	je	SHORT $LN6@scalar
	push	esi
	call	??3@YAXPAX@Z				; operator delete
	add	esp, 4
$LN6@scalar:
	mov	eax, esi
	pop	esi
	ret	4
??_Gbad_alloc@std@@UAEPAXI@Z ENDP			; std::bad_alloc::`scalar deleting destructor'
_TEXT	ENDS
PUBLIC	??2@YAPAXIPAX@Z					; operator new
; Function compile flags: /Ogtpy
; File c:\program files (x86)\microsoft visual studio 9.0\vc\include\new
;	COMDAT ??2@YAPAXIPAX@Z
_TEXT	SEGMENT
___formal$ = 8						; size = 4
__Where$ = 12						; size = 4
??2@YAPAXIPAX@Z PROC					; operator new, COMDAT

; 59   : 	return (_Where);

	mov	eax, DWORD PTR __Where$[esp-4]

; 60   : 	}

	ret	0
??2@YAPAXIPAX@Z ENDP					; operator new
_TEXT	ENDS
PUBLIC	??3@YAXPAX0@Z					; operator delete
; Function compile flags: /Ogtpy
;	COMDAT ??3@YAXPAX0@Z
_TEXT	SEGMENT
___formal$ = 8						; size = 4
___formal$ = 12						; size = 4
??3@YAXPAX0@Z PROC					; operator delete, COMDAT

; 64   : 	}

	ret	0
??3@YAXPAX0@Z ENDP					; operator delete
_TEXT	ENDS
PUBLIC	??_7logic_error@std@@6B@			; std::logic_error::`vftable'
PUBLIC	??0logic_error@std@@QAE@ABV?$basic_string@DU?$char_traits@D@std@@V?$allocator@D@2@@1@@Z ; std::logic_error::logic_error
PUBLIC	??_R4logic_error@std@@6B@			; std::logic_error::`RTTI Complete Object Locator'
PUBLIC	??_R0?AVlogic_error@std@@@8			; std::logic_error `RTTI Type Descriptor'
PUBLIC	??_R3logic_error@std@@8				; std::logic_error::`RTTI Class Hierarchy Descriptor'
PUBLIC	??_R2logic_error@std@@8				; std::logic_error::`RTTI Base Class Array'
PUBLIC	??_R1A@?0A@EA@logic_error@std@@8		; std::logic_error::`RTTI Base Class Descriptor at (0,-1,0,64)'
PUBLIC	?what@logic_error@std@@UBEPBDXZ			; std::logic_error::what
EXTRN	__imp_??0?$basic_string@DU?$char_traits@D@std@@V?$allocator@D@2@@std@@QAE@ABV01@@Z:PROC
EXTRN	__imp_??0exception@std@@QAE@XZ:PROC
EXTRN	___CxxFrameHandler3:PROC
EXTRN	??_Elogic_error@std@@UAEPAXI@Z:PROC		; std::logic_error::`vector deleting destructor'
;	COMDAT ??_R1A@?0A@EA@logic_error@std@@8
; File c:\program files (x86)\microsoft visual studio 9.0\vc\include\stdexcept
rdata$r	SEGMENT
??_R1A@?0A@EA@logic_error@std@@8 DD FLAT:??_R0?AVlogic_error@std@@@8 ; std::logic_error::`RTTI Base Class Descriptor at (0,-1,0,64)'
	DD	01H
	DD	00H
	DD	0ffffffffH
	DD	00H
	DD	040H
	DD	FLAT:??_R3logic_error@std@@8
rdata$r	ENDS
;	COMDAT ??_R2logic_error@std@@8
rdata$r	SEGMENT
??_R2logic_error@std@@8 DD FLAT:??_R1A@?0A@EA@logic_error@std@@8 ; std::logic_error::`RTTI Base Class Array'
	DD	FLAT:??_R1A@?0A@EA@exception@std@@8
rdata$r	ENDS
;	COMDAT ??_R3logic_error@std@@8
rdata$r	SEGMENT
??_R3logic_error@std@@8 DD 00H				; std::logic_error::`RTTI Class Hierarchy Descriptor'
	DD	00H
	DD	02H
	DD	FLAT:??_R2logic_error@std@@8
rdata$r	ENDS
;	COMDAT ??_R0?AVlogic_error@std@@@8
_DATA	SEGMENT
??_R0?AVlogic_error@std@@@8 DD FLAT:??_7type_info@@6B@	; std::logic_error `RTTI Type Descriptor'
	DD	00H
	DB	'.?AVlogic_error@std@@', 00H
_DATA	ENDS
;	COMDAT ??_R4logic_error@std@@6B@
rdata$r	SEGMENT
??_R4logic_error@std@@6B@ DD 00H			; std::logic_error::`RTTI Complete Object Locator'
	DD	00H
	DD	00H
	DD	FLAT:??_R0?AVlogic_error@std@@@8
	DD	FLAT:??_R3logic_error@std@@8
rdata$r	ENDS
;	COMDAT ??_7logic_error@std@@6B@
CONST	SEGMENT
??_7logic_error@std@@6B@ DD FLAT:??_R4logic_error@std@@6B@ ; std::logic_error::`vftable'
	DD	FLAT:??_Elogic_error@std@@UAEPAXI@Z
	DD	FLAT:?what@logic_error@std@@UBEPBDXZ
CONST	ENDS
;	COMDAT xdata$x
xdata$x	SEGMENT
__unwindtable$??0logic_error@std@@QAE@ABV?$basic_string@DU?$char_traits@D@std@@V?$allocator@D@2@@1@@Z DD 0ffffffffH
	DD	FLAT:__unwindfunclet$??0logic_error@std@@QAE@ABV?$basic_string@DU?$char_traits@D@std@@V?$allocator@D@2@@1@@Z$0
__ehfuncinfo$??0logic_error@std@@QAE@ABV?$basic_string@DU?$char_traits@D@std@@V?$allocator@D@2@@1@@Z DD 019930522H
	DD	01H
	DD	FLAT:__unwindtable$??0logic_error@std@@QAE@ABV?$basic_string@DU?$char_traits@D@std@@V?$allocator@D@2@@1@@Z
	DD	2 DUP(00H)
	DD	2 DUP(00H)
	DD	00H
	DD	01H
; Function compile flags: /Ogtpy
xdata$x	ENDS
;	COMDAT ??0logic_error@std@@QAE@ABV?$basic_string@DU?$char_traits@D@std@@V?$allocator@D@2@@1@@Z
_TEXT	SEGMENT
_this$ = -16						; size = 4
__$EHRec$ = -12						; size = 12
__Message$ = 8						; size = 4
??0logic_error@std@@QAE@ABV?$basic_string@DU?$char_traits@D@std@@V?$allocator@D@2@@1@@Z PROC ; std::logic_error::logic_error, COMDAT
; _this$ = ecx

; 26   : 		{	// construct from message string

	push	-1
	push	__ehhandler$??0logic_error@std@@QAE@ABV?$basic_string@DU?$char_traits@D@std@@V?$allocator@D@2@@1@@Z
	mov	eax, DWORD PTR fs:0
	push	eax
	mov	DWORD PTR fs:0, esp
	push	ecx
	push	esi
	mov	esi, ecx
	mov	DWORD PTR _this$[esp+20], esi
	call	DWORD PTR __imp_??0exception@std@@QAE@XZ
	mov	eax, DWORD PTR __Message$[esp+16]
	push	eax
	lea	ecx, DWORD PTR [esi+12]
	mov	DWORD PTR __$EHRec$[esp+32], 0
	mov	DWORD PTR [esi], OFFSET ??_7logic_error@std@@6B@
	call	DWORD PTR __imp_??0?$basic_string@DU?$char_traits@D@std@@V?$allocator@D@2@@std@@QAE@ABV01@@Z

; 27   : 		}

	mov	ecx, DWORD PTR __$EHRec$[esp+20]
	mov	eax, esi
	pop	esi
	mov	DWORD PTR fs:0, ecx
	add	esp, 16					; 00000010H
	ret	4
_TEXT	ENDS
;	COMDAT text$x
text$x	SEGMENT
__unwindfunclet$??0logic_error@std@@QAE@ABV?$basic_string@DU?$char_traits@D@std@@V?$allocator@D@2@@1@@Z$0:
	mov	ecx, DWORD PTR _this$[ebp]
	jmp	DWORD PTR __imp_??1exception@std@@UAE@XZ
__ehhandler$??0logic_error@std@@QAE@ABV?$basic_string@DU?$char_traits@D@std@@V?$allocator@D@2@@1@@Z:
	mov	eax, OFFSET __ehfuncinfo$??0logic_error@std@@QAE@ABV?$basic_string@DU?$char_traits@D@std@@V?$allocator@D@2@@1@@Z
	jmp	___CxxFrameHandler3
text$x	ENDS
??0logic_error@std@@QAE@ABV?$basic_string@DU?$char_traits@D@std@@V?$allocator@D@2@@1@@Z ENDP ; std::logic_error::logic_error
PUBLIC	??1logic_error@std@@UAE@XZ			; std::logic_error::~logic_error
EXTRN	__imp_??1?$basic_string@DU?$char_traits@D@std@@V?$allocator@D@2@@std@@QAE@XZ:PROC
; Function compile flags: /Ogtpy
;	COMDAT ??1logic_error@std@@UAE@XZ
_TEXT	SEGMENT
??1logic_error@std@@UAE@XZ PROC				; std::logic_error::~logic_error, COMDAT
; _this$ = ecx

; 30   : 		{	// destroy the object

	push	esi
	mov	esi, ecx

; 31   : 		}

	lea	ecx, DWORD PTR [esi+12]
	mov	DWORD PTR [esi], OFFSET ??_7logic_error@std@@6B@
	call	DWORD PTR __imp_??1?$basic_string@DU?$char_traits@D@std@@V?$allocator@D@2@@std@@QAE@XZ
	mov	ecx, esi
	pop	esi
	jmp	DWORD PTR __imp_??1exception@std@@UAE@XZ
??1logic_error@std@@UAE@XZ ENDP				; std::logic_error::~logic_error
_TEXT	ENDS
EXTRN	__imp_?c_str@?$basic_string@DU?$char_traits@D@std@@V?$allocator@D@2@@std@@QBEPBDXZ:PROC
; Function compile flags: /Ogtpy
;	COMDAT ?what@logic_error@std@@UBEPBDXZ
_TEXT	SEGMENT
?what@logic_error@std@@UBEPBDXZ PROC			; std::logic_error::what, COMDAT
; _this$ = ecx

; 35   : 		return (_Str.c_str());

	add	ecx, 12					; 0000000cH
	jmp	DWORD PTR __imp_?c_str@?$basic_string@DU?$char_traits@D@std@@V?$allocator@D@2@@std@@QBEPBDXZ
?what@logic_error@std@@UBEPBDXZ ENDP			; std::logic_error::what
; Function compile flags: /Ogtpy
_TEXT	ENDS
;	COMDAT ??_Glogic_error@std@@UAEPAXI@Z
_TEXT	SEGMENT
___flags$ = 8						; size = 4
??_Glogic_error@std@@UAEPAXI@Z PROC			; std::logic_error::`scalar deleting destructor', COMDAT
; _this$ = ecx
	push	esi
	mov	esi, ecx
	lea	ecx, DWORD PTR [esi+12]
	mov	DWORD PTR [esi], OFFSET ??_7logic_error@std@@6B@
	call	DWORD PTR __imp_??1?$basic_string@DU?$char_traits@D@std@@V?$allocator@D@2@@std@@QAE@XZ
	mov	ecx, esi
	call	DWORD PTR __imp_??1exception@std@@UAE@XZ
	test	BYTE PTR ___flags$[esp], 1
	je	SHORT $LN6@scalar@2
	push	esi
	call	??3@YAXPAX@Z				; operator delete
	add	esp, 4
$LN6@scalar@2:
	mov	eax, esi
	pop	esi
	ret	4
??_Glogic_error@std@@UAEPAXI@Z ENDP			; std::logic_error::`scalar deleting destructor'
_TEXT	ENDS
PUBLIC	??_7length_error@std@@6B@			; std::length_error::`vftable'
PUBLIC	??0length_error@std@@QAE@ABV?$basic_string@DU?$char_traits@D@std@@V?$allocator@D@2@@1@@Z ; std::length_error::length_error
PUBLIC	??_R4length_error@std@@6B@			; std::length_error::`RTTI Complete Object Locator'
PUBLIC	??_R0?AVlength_error@std@@@8			; std::length_error `RTTI Type Descriptor'
PUBLIC	??_R3length_error@std@@8			; std::length_error::`RTTI Class Hierarchy Descriptor'
PUBLIC	??_R2length_error@std@@8			; std::length_error::`RTTI Base Class Array'
PUBLIC	??_R1A@?0A@EA@length_error@std@@8		; std::length_error::`RTTI Base Class Descriptor at (0,-1,0,64)'
EXTRN	??_Elength_error@std@@UAEPAXI@Z:PROC		; std::length_error::`vector deleting destructor'
;	COMDAT ??_R1A@?0A@EA@length_error@std@@8
rdata$r	SEGMENT
??_R1A@?0A@EA@length_error@std@@8 DD FLAT:??_R0?AVlength_error@std@@@8 ; std::length_error::`RTTI Base Class Descriptor at (0,-1,0,64)'
	DD	02H
	DD	00H
	DD	0ffffffffH
	DD	00H
	DD	040H
	DD	FLAT:??_R3length_error@std@@8
rdata$r	ENDS
;	COMDAT ??_R2length_error@std@@8
rdata$r	SEGMENT
??_R2length_error@std@@8 DD FLAT:??_R1A@?0A@EA@length_error@std@@8 ; std::length_error::`RTTI Base Class Array'
	DD	FLAT:??_R1A@?0A@EA@logic_error@std@@8
	DD	FLAT:??_R1A@?0A@EA@exception@std@@8
rdata$r	ENDS
;	COMDAT ??_R3length_error@std@@8
rdata$r	SEGMENT
??_R3length_error@std@@8 DD 00H				; std::length_error::`RTTI Class Hierarchy Descriptor'
	DD	00H
	DD	03H
	DD	FLAT:??_R2length_error@std@@8
rdata$r	ENDS
;	COMDAT ??_R0?AVlength_error@std@@@8
_DATA	SEGMENT
??_R0?AVlength_error@std@@@8 DD FLAT:??_7type_info@@6B@	; std::length_error `RTTI Type Descriptor'
	DD	00H
	DB	'.?AVlength_error@std@@', 00H
_DATA	ENDS
;	COMDAT ??_R4length_error@std@@6B@
rdata$r	SEGMENT
??_R4length_error@std@@6B@ DD 00H			; std::length_error::`RTTI Complete Object Locator'
	DD	00H
	DD	00H
	DD	FLAT:??_R0?AVlength_error@std@@@8
	DD	FLAT:??_R3length_error@std@@8
rdata$r	ENDS
;	COMDAT ??_7length_error@std@@6B@
CONST	SEGMENT
??_7length_error@std@@6B@ DD FLAT:??_R4length_error@std@@6B@ ; std::length_error::`vftable'
	DD	FLAT:??_Elength_error@std@@UAEPAXI@Z
	DD	FLAT:?what@logic_error@std@@UBEPBDXZ
; Function compile flags: /Ogtpy
CONST	ENDS
;	COMDAT ??0length_error@std@@QAE@ABV?$basic_string@DU?$char_traits@D@std@@V?$allocator@D@2@@1@@Z
_TEXT	SEGMENT
__Message$ = 8						; size = 4
??0length_error@std@@QAE@ABV?$basic_string@DU?$char_traits@D@std@@V?$allocator@D@2@@1@@Z PROC ; std::length_error::length_error, COMDAT
; _this$ = ecx

; 105  : 		{	// construct from message string

	mov	eax, DWORD PTR __Message$[esp-4]
	push	esi
	push	eax
	mov	esi, ecx
	call	??0logic_error@std@@QAE@ABV?$basic_string@DU?$char_traits@D@std@@V?$allocator@D@2@@1@@Z ; std::logic_error::logic_error
	mov	DWORD PTR [esi], OFFSET ??_7length_error@std@@6B@

; 106  : 		}

	mov	eax, esi
	pop	esi
	ret	4
??0length_error@std@@QAE@ABV?$basic_string@DU?$char_traits@D@std@@V?$allocator@D@2@@1@@Z ENDP ; std::length_error::length_error
_TEXT	ENDS
PUBLIC	??1length_error@std@@UAE@XZ			; std::length_error::~length_error
; Function compile flags: /Ogtpy
;	COMDAT ??1length_error@std@@UAE@XZ
_TEXT	SEGMENT
??1length_error@std@@UAE@XZ PROC			; std::length_error::~length_error, COMDAT
; _this$ = ecx

; 109  : 		{	// destroy the object

	push	esi
	mov	esi, ecx

; 110  : 		}

	lea	ecx, DWORD PTR [esi+12]
	mov	DWORD PTR [esi], OFFSET ??_7logic_error@std@@6B@
	call	DWORD PTR __imp_??1?$basic_string@DU?$char_traits@D@std@@V?$allocator@D@2@@std@@QAE@XZ
	mov	ecx, esi
	pop	esi
	jmp	DWORD PTR __imp_??1exception@std@@UAE@XZ
??1length_error@std@@UAE@XZ ENDP			; std::length_error::~length_error
; Function compile flags: /Ogtpy
_TEXT	ENDS
;	COMDAT ??_Glength_error@std@@UAEPAXI@Z
_TEXT	SEGMENT
___flags$ = 8						; size = 4
??_Glength_error@std@@UAEPAXI@Z PROC			; std::length_error::`scalar deleting destructor', COMDAT
; _this$ = ecx
	push	esi
	mov	esi, ecx
	lea	ecx, DWORD PTR [esi+12]
	mov	DWORD PTR [esi], OFFSET ??_7logic_error@std@@6B@
	call	DWORD PTR __imp_??1?$basic_string@DU?$char_traits@D@std@@V?$allocator@D@2@@std@@QAE@XZ
	mov	ecx, esi
	call	DWORD PTR __imp_??1exception@std@@UAE@XZ
	test	BYTE PTR ___flags$[esp], 1
	je	SHORT $LN8@scalar@3
	push	esi
	call	??3@YAXPAX@Z				; operator delete
	add	esp, 4
$LN8@scalar@3:
	mov	eax, esi
	pop	esi
	ret	4
??_Glength_error@std@@UAEPAXI@Z ENDP			; std::length_error::`scalar deleting destructor'
_TEXT	ENDS
PUBLIC	?GetPeaceTreatyType@CvDeal@@QBE?AW4PeaceTreatyTypes@@XZ ; CvDeal::GetPeaceTreatyType
; Function compile flags: /Ogtpy
; File c:\users\enormousapplepie\desktop\lekmod dll versions\v31\lekmod_dll\cvgamecoredll_expansion2\cvdealclasses.cpp
;	COMDAT ?GetPeaceTreatyType@CvDeal@@QBE?AW4PeaceTreatyTypes@@XZ
_TEXT	SEGMENT
?GetPeaceTreatyType@CvDeal@@QBE?AW4PeaceTreatyTypes@@XZ PROC ; CvDeal::GetPeaceTreatyType, COMDAT
; _this$ = ecx

; 1058 : 	return m_ePeaceTreatyType;

	mov	eax, DWORD PTR [ecx+24]

; 1059 : }

	ret	0
?GetPeaceTreatyType@CvDeal@@QBE?AW4PeaceTreatyTypes@@XZ ENDP ; CvDeal::GetPeaceTreatyType
_TEXT	ENDS
PUBLIC	?SetPeaceTreatyType@CvDeal@@QAEXW4PeaceTreatyTypes@@@Z ; CvDeal::SetPeaceTreatyType
; Function compile flags: /Ogtpy
;	COMDAT ?SetPeaceTreatyType@CvDeal@@QAEXW4PeaceTreatyTypes@@@Z
_TEXT	SEGMENT
_eTreaty$ = 8						; size = 4
?SetPeaceTreatyType@CvDeal@@QAEXW4PeaceTreatyTypes@@@Z PROC ; CvDeal::SetPeaceTreatyType, COMDAT
; _this$ = ecx

; 1064 : 	CvAssertMsg(eTreaty >= NO_PEACE_TREATY_TYPE, "DEAL: Invalid PeaceTreatyType index.  Please send Jon this with your last 5 autosaves and what changelist # you're playing.");	// NO_PEACE_TREATY_TYPE is valid because we could be clearing the deal out for other uses
; 1065 : 	CvAssertMsg(eTreaty < NUM_PEACE_TREATY_TYPES, "DEAL: Invalid PeaceTreatyType index.  Please send Jon this with your last 5 autosaves and what changelist # you're playing.");
; 1066 : 
; 1067 : 	m_ePeaceTreatyType = eTreaty;

	mov	eax, DWORD PTR _eTreaty$[esp-4]
	mov	DWORD PTR [ecx+24], eax

; 1068 : }

	ret	4
?SetPeaceTreatyType@CvDeal@@QAEXW4PeaceTreatyTypes@@@Z ENDP ; CvDeal::SetPeaceTreatyType
_TEXT	ENDS
PUBLIC	?GetSurrenderingPlayer@CvDeal@@QBE?AW4PlayerTypes@@XZ ; CvDeal::GetSurrenderingPlayer
; Function compile flags: /Ogtpy
;	COMDAT ?GetSurrenderingPlayer@CvDeal@@QBE?AW4PlayerTypes@@XZ
_TEXT	SEGMENT
?GetSurrenderingPlayer@CvDeal@@QBE?AW4PlayerTypes@@XZ PROC ; CvDeal::GetSurrenderingPlayer, COMDAT
; _this$ = ecx

; 1073 : 	return m_eSurrenderingPlayer;

	mov	eax, DWORD PTR [ecx+28]

; 1074 : }

	ret	0
?GetSurrenderingPlayer@CvDeal@@QBE?AW4PlayerTypes@@XZ ENDP ; CvDeal::GetSurrenderingPlayer
_TEXT	ENDS
PUBLIC	?SetSurrenderingPlayer@CvDeal@@QAEXW4PlayerTypes@@@Z ; CvDeal::SetSurrenderingPlayer
; Function compile flags: /Ogtpy
;	COMDAT ?SetSurrenderingPlayer@CvDeal@@QAEXW4PlayerTypes@@@Z
_TEXT	SEGMENT
_ePlayer$ = 8						; size = 4
?SetSurrenderingPlayer@CvDeal@@QAEXW4PlayerTypes@@@Z PROC ; CvDeal::SetSurrenderingPlayer, COMDAT
; _this$ = ecx

; 1079 : 	CvAssertMsg(ePlayer >= NO_PLAYER, "DEAL: Invalid Player Index.  Please send Jon this with your last 5 autosaves and what changelist # you're playing.");	// NO_PLAYER is valid because we could be clearing the deal out for other uses
; 1080 : 	CvAssertMsg(ePlayer < MAX_CIV_PLAYERS, "DEAL: Invalid Player Index.  Please send Jon this with your last 5 autosaves and what changelist # you're playing.");
; 1081 : 
; 1082 : 	m_eSurrenderingPlayer = ePlayer;

	mov	eax, DWORD PTR _ePlayer$[esp-4]
	mov	DWORD PTR [ecx+28], eax

; 1083 : }

	ret	4
?SetSurrenderingPlayer@CvDeal@@QAEXW4PlayerTypes@@@Z ENDP ; CvDeal::SetSurrenderingPlayer
_TEXT	ENDS
PUBLIC	?GetDemandingPlayer@CvDeal@@QBE?AW4PlayerTypes@@XZ ; CvDeal::GetDemandingPlayer
; Function compile flags: /Ogtpy
;	COMDAT ?GetDemandingPlayer@CvDeal@@QBE?AW4PlayerTypes@@XZ
_TEXT	SEGMENT
?GetDemandingPlayer@CvDeal@@QBE?AW4PlayerTypes@@XZ PROC	; CvDeal::GetDemandingPlayer, COMDAT
; _this$ = ecx

; 1088 : 	return m_eDemandingPlayer;

	mov	eax, DWORD PTR [ecx+32]

; 1089 : }

	ret	0
?GetDemandingPlayer@CvDeal@@QBE?AW4PlayerTypes@@XZ ENDP	; CvDeal::GetDemandingPlayer
_TEXT	ENDS
PUBLIC	?SetDemandingPlayer@CvDeal@@QAEXW4PlayerTypes@@@Z ; CvDeal::SetDemandingPlayer
; Function compile flags: /Ogtpy
;	COMDAT ?SetDemandingPlayer@CvDeal@@QAEXW4PlayerTypes@@@Z
_TEXT	SEGMENT
_ePlayer$ = 8						; size = 4
?SetDemandingPlayer@CvDeal@@QAEXW4PlayerTypes@@@Z PROC	; CvDeal::SetDemandingPlayer, COMDAT
; _this$ = ecx

; 1094 : 	CvAssertMsg(ePlayer >= NO_PLAYER, "DEAL: Invalid Player Index.  Please send Jon this with your last 5 autosaves and what changelist # you're playing.");	// NO_PLAYER is valid because we could be clearing the deal out for other uses
; 1095 : 	CvAssertMsg(ePlayer < MAX_CIV_PLAYERS, "DEAL: Invalid Player Index.  Please send Jon this with your last 5 autosaves and what changelist # you're playing.");
; 1096 : 
; 1097 : 	m_eDemandingPlayer = ePlayer;

	mov	eax, DWORD PTR _ePlayer$[esp-4]
	mov	DWORD PTR [ecx+32], eax

; 1098 : }

	ret	4
?SetDemandingPlayer@CvDeal@@QAEXW4PlayerTypes@@@Z ENDP	; CvDeal::SetDemandingPlayer
_TEXT	ENDS
PUBLIC	?GetRequestingPlayer@CvDeal@@QBE?AW4PlayerTypes@@XZ ; CvDeal::GetRequestingPlayer
; Function compile flags: /Ogtpy
;	COMDAT ?GetRequestingPlayer@CvDeal@@QBE?AW4PlayerTypes@@XZ
_TEXT	SEGMENT
?GetRequestingPlayer@CvDeal@@QBE?AW4PlayerTypes@@XZ PROC ; CvDeal::GetRequestingPlayer, COMDAT
; _this$ = ecx

; 1103 : 	return m_eRequestingPlayer;

	mov	eax, DWORD PTR [ecx+36]

; 1104 : }

	ret	0
?GetRequestingPlayer@CvDeal@@QBE?AW4PlayerTypes@@XZ ENDP ; CvDeal::GetRequestingPlayer
_TEXT	ENDS
PUBLIC	?SetRequestingPlayer@CvDeal@@QAEXW4PlayerTypes@@@Z ; CvDeal::SetRequestingPlayer
; Function compile flags: /Ogtpy
;	COMDAT ?SetRequestingPlayer@CvDeal@@QAEXW4PlayerTypes@@@Z
_TEXT	SEGMENT
_ePlayer$ = 8						; size = 4
?SetRequestingPlayer@CvDeal@@QAEXW4PlayerTypes@@@Z PROC	; CvDeal::SetRequestingPlayer, COMDAT
; _this$ = ecx

; 1109 : 	CvAssertMsg(ePlayer >= NO_PLAYER, "DEAL: Invalid Player Index.  Please send Jon this with your last 5 autosaves and what changelist # you're playing.");	// NO_PLAYER is valid because we could be clearing the deal out for other uses
; 1110 : 	CvAssertMsg(ePlayer < MAX_CIV_PLAYERS, "DEAL: Invalid Player Index.  Please send Jon this with your last 5 autosaves and what changelist # you're playing.");
; 1111 : 
; 1112 : 	m_eRequestingPlayer = ePlayer;

	mov	eax, DWORD PTR _ePlayer$[esp-4]
	mov	DWORD PTR [ecx+36], eax

; 1113 : }

	ret	4
?SetRequestingPlayer@CvDeal@@QAEXW4PlayerTypes@@@Z ENDP	; CvDeal::SetRequestingPlayer
_TEXT	ENDS
PUBLIC	?GetItemTradeableState@CvDeal@@SA?AW4DealRenewStatus@1@W4TradeableItems@@@Z ; CvDeal::GetItemTradeableState
; Function compile flags: /Ogtpy
;	COMDAT ?GetItemTradeableState@CvDeal@@SA?AW4DealRenewStatus@1@W4TradeableItems@@@Z
_TEXT	SEGMENT
_eTradeItem$ = 8					; size = 4
?GetItemTradeableState@CvDeal@@SA?AW4DealRenewStatus@1@W4TradeableItems@@@Z PROC ; CvDeal::GetItemTradeableState, COMDAT

; 1879 : 	switch(eTradeItem)

	mov	eax, DWORD PTR _eTradeItem$[esp-4]
	cmp	eax, 19					; 00000013H
	ja	SHORT $LN4@GetItemTra
	movzx	eax, BYTE PTR $LN8@GetItemTra[eax]
	jmp	DWORD PTR $LN9@GetItemTra[eax*4]
$LN2@GetItemTra:

; 1880 : 	{
; 1881 : 		// not renewable
; 1882 : 	case TRADE_ITEM_ALLOW_EMBASSY:
; 1883 : 	case TRADE_ITEM_CITIES:
; 1884 : 	case TRADE_ITEM_UNITS:
; 1885 : 	case TRADE_ITEM_SURRENDER:
; 1886 : 	case TRADE_ITEM_TRUCE:
; 1887 : 	case TRADE_ITEM_PEACE_TREATY:
; 1888 : 	case TRADE_ITEM_PERMANENT_ALLIANCE:
; 1889 : 	case TRADE_ITEM_THIRD_PARTY_PEACE:
; 1890 : 	case TRADE_ITEM_THIRD_PARTY_WAR:
; 1891 : 	case TRADE_ITEM_VOTE_COMMITMENT:
; 1892 : 		return DEAL_NONRENEWABLE;
; 1893 : 		break;
; 1894 : 
; 1895 : 		// renewable
; 1896 : 	case TRADE_ITEM_GOLD_PER_TURN:
; 1897 : 	case TRADE_ITEM_RESOURCES:
; 1898 : 	case TRADE_ITEM_OPEN_BORDERS:
; 1899 : 	case TRADE_ITEM_DEFENSIVE_PACT:
; 1900 : 	case TRADE_ITEM_THIRD_PARTY_EMBARGO: // dead!
; 1901 : 		return DEAL_RENEWABLE;

	xor	eax, eax

; 1915 : }

	ret	0
$LN1@GetItemTra:

; 1902 : 		break;
; 1903 : 
; 1904 : 		// doesn't matter
; 1905 : 	case TRADE_ITEM_TRADE_AGREEMENT:
; 1906 : 	case TRADE_ITEM_GOLD:
; 1907 : 	case TRADE_ITEM_MAPS:
; 1908 : 	case TRADE_ITEM_RESEARCH_AGREEMENT:
; 1909 : 		return DEAL_SUPPLEMENTAL;

	mov	eax, 2

; 1915 : }

	ret	0
$LN4@GetItemTra:

; 1910 : 		break;
; 1911 : 	}
; 1912 : 
; 1913 : 	CvAssertMsg(false, "unknown eTradeItem passed in");
; 1914 : 	return DEAL_NONRENEWABLE;

	mov	eax, 1

; 1915 : }

	ret	0
	npad	2
$LN9@GetItemTra:
	DD	$LN1@GetItemTra
	DD	$LN2@GetItemTra
	DD	$LN4@GetItemTra
	DD	$LN4@GetItemTra
$LN8@GetItemTra:
	DB	0
	DB	1
	DB	0
	DB	1
	DB	2
	DB	2
	DB	1
	DB	1
	DB	0
	DB	0
	DB	2
	DB	2
	DB	2
	DB	2
	DB	2
	DB	2
	DB	1
	DB	2
	DB	3
	DB	2
?GetItemTradeableState@CvDeal@@SA?AW4DealRenewStatus@1@W4TradeableItems@@@Z ENDP ; CvDeal::GetItemTradeableState
_TEXT	ENDS
PUBLIC	??4FDataStream@@QAEAAV0@ABV0@@Z			; FDataStream::operator=
; Function compile flags: /Ogtpy
;	COMDAT ??4FDataStream@@QAEAAV0@ABV0@@Z
_TEXT	SEGMENT
___that$ = 8						; size = 4
??4FDataStream@@QAEAAV0@ABV0@@Z PROC			; FDataStream::operator=, COMDAT
; _this$ = ecx
	mov	eax, ecx
	mov	ecx, DWORD PTR ___that$[esp-4]
	mov	dl, BYTE PTR [ecx+4]
	mov	BYTE PTR [eax+4], dl
	mov	edx, DWORD PTR [ecx+8]
	mov	DWORD PTR [eax+8], edx
	mov	edx, DWORD PTR [ecx+12]
	mov	DWORD PTR [eax+12], edx
	mov	ecx, DWORD PTR [ecx+16]
	mov	DWORD PTR [eax+16], ecx
	ret	4
??4FDataStream@@QAEAAV0@ABV0@@Z ENDP			; FDataStream::operator=
_TEXT	ENDS
PUBLIC	?GetTempDeal@CvGameDeals@@QAEPAVCvDeal@@XZ	; CvGameDeals::GetTempDeal
; Function compile flags: /Ogtpy
;	COMDAT ?GetTempDeal@CvGameDeals@@QAEPAVCvDeal@@XZ
_TEXT	SEGMENT
?GetTempDeal@CvGameDeals@@QAEPAVCvDeal@@XZ PROC		; CvGameDeals::GetTempDeal, COMDAT
; _this$ = ecx

; 2650 : 	return &m_TempDeal;

	lea	eax, DWORD PTR [ecx+4612]

; 2651 : }

	ret	0
?GetTempDeal@CvGameDeals@@QAEPAVCvDeal@@XZ ENDP		; CvGameDeals::GetTempDeal
_TEXT	ENDS
PUBLIC	?size@?$BaseVector@VCvDeal@@$0A@@@QBEIXZ	; BaseVector<CvDeal,0>::size
; Function compile flags: /Ogtpy
; File c:\users\enormousapplepie\desktop\lekmod dll versions\v31\lekmod_dll\fireplace\include\fireworks\ffastvector.h
;	COMDAT ?size@?$BaseVector@VCvDeal@@$0A@@@QBEIXZ
_TEXT	SEGMENT
?size@?$BaseVector@VCvDeal@@$0A@@@QBEIXZ PROC		; BaseVector<CvDeal,0>::size, COMDAT
; _this$ = ecx

; 169  : 		return m_uiCurrSize;

	mov	eax, DWORD PTR [ecx+4]

; 170  : 	};

	ret	0
?size@?$BaseVector@VCvDeal@@$0A@@@QBEIXZ ENDP		; BaseVector<CvDeal,0>::size
_TEXT	ENDS
PUBLIC	?begin@?$BaseVector@VCvDeal@@$0A@@@QAEPAVCvDeal@@XZ ; BaseVector<CvDeal,0>::begin
; Function compile flags: /Ogtpy
;	COMDAT ?begin@?$BaseVector@VCvDeal@@$0A@@@QAEPAVCvDeal@@XZ
_TEXT	SEGMENT
?begin@?$BaseVector@VCvDeal@@$0A@@@QAEPAVCvDeal@@XZ PROC ; BaseVector<CvDeal,0>::begin, COMDAT
; _this$ = ecx

; 194  :         return m_pData; 

	mov	eax, DWORD PTR [ecx]

; 195  :     };

	ret	0
?begin@?$BaseVector@VCvDeal@@$0A@@@QAEPAVCvDeal@@XZ ENDP ; BaseVector<CvDeal,0>::begin
_TEXT	ENDS
PUBLIC	?end@?$BaseVector@VCvDeal@@$0A@@@QAEPAVCvDeal@@XZ ; BaseVector<CvDeal,0>::end
; Function compile flags: /Ogtpy
;	COMDAT ?end@?$BaseVector@VCvDeal@@$0A@@@QAEPAVCvDeal@@XZ
_TEXT	SEGMENT
?end@?$BaseVector@VCvDeal@@$0A@@@QAEPAVCvDeal@@XZ PROC	; BaseVector<CvDeal,0>::end, COMDAT
; _this$ = ecx

; 197  :         return m_pData+m_uiCurrSize; 

	mov	eax, DWORD PTR [ecx+4]
	imul	eax, 76					; 0000004cH
	add	eax, DWORD PTR [ecx]

; 198  :     };

	ret	0
?end@?$BaseVector@VCvDeal@@$0A@@@QAEPAVCvDeal@@XZ ENDP	; BaseVector<CvDeal,0>::end
_TEXT	ENDS
PUBLIC	?begin@?$BaseVector@VCvDeal@@$0A@@@QBEPBVCvDeal@@XZ ; BaseVector<CvDeal,0>::begin
; Function compile flags: /Ogtpy
;	COMDAT ?begin@?$BaseVector@VCvDeal@@$0A@@@QBEPBVCvDeal@@XZ
_TEXT	SEGMENT
?begin@?$BaseVector@VCvDeal@@$0A@@@QBEPBVCvDeal@@XZ PROC ; BaseVector<CvDeal,0>::begin, COMDAT
; _this$ = ecx

; 201  :         return m_pData; 

	mov	eax, DWORD PTR [ecx]

; 202  :     };

	ret	0
?begin@?$BaseVector@VCvDeal@@$0A@@@QBEPBVCvDeal@@XZ ENDP ; BaseVector<CvDeal,0>::begin
_TEXT	ENDS
PUBLIC	?end@?$BaseVector@VCvDeal@@$0A@@@QBEPBVCvDeal@@XZ ; BaseVector<CvDeal,0>::end
; Function compile flags: /Ogtpy
;	COMDAT ?end@?$BaseVector@VCvDeal@@$0A@@@QBEPBVCvDeal@@XZ
_TEXT	SEGMENT
?end@?$BaseVector@VCvDeal@@$0A@@@QBEPBVCvDeal@@XZ PROC	; BaseVector<CvDeal,0>::end, COMDAT
; _this$ = ecx

; 204  :         return m_pData+m_uiCurrSize; 

	mov	eax, DWORD PTR [ecx+4]
	imul	eax, 76					; 0000004cH
	add	eax, DWORD PTR [ecx]

; 205  :     };

	ret	0
?end@?$BaseVector@VCvDeal@@$0A@@@QBEPBVCvDeal@@XZ ENDP	; BaseVector<CvDeal,0>::end
_TEXT	ENDS
PUBLIC	??9?$base_iterator@Vbase_iterator_tail_const@?$FCustomList_Core@U?$MultiListNodePolicy@UCvTradedItem@@@@V?$FFastAllocator@U?$MultiListNodePolicy@UCvTradedItem@@@@$0A@$0BF@$0A@UFDefaultFastVectorAllocator@?$BaseVector@U?$MultiListNodePolicy@UCvTradedItem@@@@$0A@@@@@V?$FCustomList_Tail_Member@V?$FFastAllocator@U?$MultiListNodePolicy@UCvTradedItem@@@@$0A@$0BF@$0A@UFDefaultFastVectorAllocator@?$BaseVector@U?$MultiListNodePolicy@UCvTradedItem@@@@$0A@@@@@@@@@@?$FCustomList_Core@U?$MultiListNodePolicy@UCvTradedItem@@@@V?$FFastAllocator@U?$MultiListNodePolicy@UCvTradedItem@@@@$0A@$0BF@$0A@UFDefaultFastVectorAllocator@?$BaseVector@U?$MultiListNodePolicy@UCvTradedItem@@@@$0A@@@@@V?$FCustomList_Tail_Member@V?$FFastAllocator@U?$MultiListNodePolicy@UCvTradedItem@@@@$0A@$0BF@$0A@UFDefaultFastVectorAllocator@?$BaseVector@U?$MultiListNodePolicy@UCvTradedItem@@@@$0A@@@@@@@@@QBE_NABV01@@Z ; FCustomList_Core<MultiListNodePolicy<CvTradedItem>,FFastAllocator<MultiListNodePolicy<CvTradedItem>,0,21,0,BaseVector<MultiListNodePolicy<CvTradedItem>,0>::FDefaultFastVectorAllocator>,FCustomList_Tail_Member<FFastAllocator<MultiListNodePolicy<CvTradedItem>,0,21,0,BaseVector<MultiListNodePolicy<CvTradedItem>,0>::FDefaultFastVectorAllocator> > >::base_iterator<FCustomList_Core<MultiListNodePolicy<CvTradedItem>,FFastAllocator<MultiListNodePolicy<CvTradedItem>,0,21,0,BaseVector<MultiListNodePolicy<CvTradedItem>,0>::FDefaultFastVectorAllocator>,FCustomList_Tail_Member<FFastAllocator<MultiListNodePolicy<CvTradedItem>,0,21,0,BaseVector<MultiListNodePolicy<CvTradedItem>,0>::FDefaultFastVectorAllocator> > >::base_iterator_tail_const>::operator!=
; Function compile flags: /Ogtpy
; File c:\users\enormousapplepie\desktop\lekmod dll versions\v31\lekmod_dll\fireplace\include\fireworks\ffastlist.h
;	COMDAT ??9?$base_iterator@Vbase_iterator_tail_const@?$FCustomList_Core@U?$MultiListNodePolicy@UCvTradedItem@@@@V?$FFastAllocator@U?$MultiListNodePolicy@UCvTradedItem@@@@$0A@$0BF@$0A@UFDefaultFastVectorAllocator@?$BaseVector@U?$MultiListNodePolicy@UCvTradedItem@@@@$0A@@@@@V?$FCustomList_Tail_Member@V?$FFastAllocator@U?$MultiListNodePolicy@UCvTradedItem@@@@$0A@$0BF@$0A@UFDefaultFastVectorAllocator@?$BaseVector@U?$MultiListNodePolicy@UCvTradedItem@@@@$0A@@@@@@@@@@?$FCustomList_Core@U?$MultiListNodePolicy@UCvTradedItem@@@@V?$FFastAllocator@U?$MultiListNodePolicy@UCvTradedItem@@@@$0A@$0BF@$0A@UFDefaultFastVectorAllocator@?$BaseVector@U?$MultiListNodePolicy@UCvTradedItem@@@@$0A@@@@@V?$FCustomList_Tail_Member@V?$FFastAllocator@U?$MultiListNodePolicy@UCvTradedItem@@@@$0A@$0BF@$0A@UFDefaultFastVectorAllocator@?$BaseVector@U?$MultiListNodePolicy@UCvTradedItem@@@@$0A@@@@@@@@@QBE_NABV01@@Z
_TEXT	SEGMENT
_rhs$ = 8						; size = 4
??9?$base_iterator@Vbase_iterator_tail_const@?$FCustomList_Core@U?$MultiListNodePolicy@UCvTradedItem@@@@V?$FFastAllocator@U?$MultiListNodePolicy@UCvTradedItem@@@@$0A@$0BF@$0A@UFDefaultFastVectorAllocator@?$BaseVector@U?$MultiListNodePolicy@UCvTradedItem@@@@$0A@@@@@V?$FCustomList_Tail_Member@V?$FFastAllocator@U?$MultiListNodePolicy@UCvTradedItem@@@@$0A@$0BF@$0A@UFDefaultFastVectorAllocator@?$BaseVector@U?$MultiListNodePolicy@UCvTradedItem@@@@$0A@@@@@@@@@@?$FCustomList_Core@U?$MultiListNodePolicy@UCvTradedItem@@@@V?$FFastAllocator@U?$MultiListNodePolicy@UCvTradedItem@@@@$0A@$0BF@$0A@UFDefaultFastVectorAllocator@?$BaseVector@U?$MultiListNodePolicy@UCvTradedItem@@@@$0A@@@@@V?$FCustomList_Tail_Member@V?$FFastAllocator@U?$MultiListNodePolicy@UCvTradedItem@@@@$0A@$0BF@$0A@UFDefaultFastVectorAllocator@?$BaseVector@U?$MultiListNodePolicy@UCvTradedItem@@@@$0A@@@@@@@@@QBE_NABV01@@Z PROC ; FCustomList_Core<MultiListNodePolicy<CvTradedItem>,FFastAllocator<MultiListNodePolicy<CvTradedItem>,0,21,0,BaseVector<MultiListNodePolicy<CvTradedItem>,0>::FDefaultFastVectorAllocator>,FCustomList_Tail_Member<FFastAllocator<MultiListNodePolicy<CvTradedItem>,0,21,0,BaseVector<MultiListNodePolicy<CvTradedItem>,0>::FDefaultFastVectorAllocator> > >::base_iterator<FCustomList_Core<MultiListNodePolicy<CvTradedItem>,FFastAllocator<MultiListNodePolicy<CvTradedItem>,0,21,0,BaseVector<MultiListNodePolicy<CvTradedItem>,0>::FDefaultFastVectorAllocator>,FCustomList_Tail_Member<FFastAllocator<MultiListNodePolicy<CvTradedItem>,0,21,0,BaseVector<MultiListNodePolicy<CvTradedItem>,0>::FDefaultFastVectorAllocator> > >::base_iterator_tail_const>::operator!=, COMDAT
; _this$ = ecx

; 353  : 			return m_uiCurrPos != rhs.m_uiCurrPos;

	mov	eax, DWORD PTR [ecx+4]
	mov	edx, DWORD PTR _rhs$[esp-4]
	xor	ecx, ecx
	cmp	eax, DWORD PTR [edx+4]
	setne	cl
	mov	al, cl

; 354  : 		};

	ret	4
??9?$base_iterator@Vbase_iterator_tail_const@?$FCustomList_Core@U?$MultiListNodePolicy@UCvTradedItem@@@@V?$FFastAllocator@U?$MultiListNodePolicy@UCvTradedItem@@@@$0A@$0BF@$0A@UFDefaultFastVectorAllocator@?$BaseVector@U?$MultiListNodePolicy@UCvTradedItem@@@@$0A@@@@@V?$FCustomList_Tail_Member@V?$FFastAllocator@U?$MultiListNodePolicy@UCvTradedItem@@@@$0A@$0BF@$0A@UFDefaultFastVectorAllocator@?$BaseVector@U?$MultiListNodePolicy@UCvTradedItem@@@@$0A@@@@@@@@@@?$FCustomList_Core@U?$MultiListNodePolicy@UCvTradedItem@@@@V?$FFastAllocator@U?$MultiListNodePolicy@UCvTradedItem@@@@$0A@$0BF@$0A@UFDefaultFastVectorAllocator@?$BaseVector@U?$MultiListNodePolicy@UCvTradedItem@@@@$0A@@@@@V?$FCustomList_Tail_Member@V?$FFastAllocator@U?$MultiListNodePolicy@UCvTradedItem@@@@$0A@$0BF@$0A@UFDefaultFastVectorAllocator@?$BaseVector@U?$MultiListNodePolicy@UCvTradedItem@@@@$0A@@@@@@@@@QBE_NABV01@@Z ENDP ; FCustomList_Core<MultiListNodePolicy<CvTradedItem>,FFastAllocator<MultiListNodePolicy<CvTradedItem>,0,21,0,BaseVector<MultiListNodePolicy<CvTradedItem>,0>::FDefaultFastVectorAllocator>,FCustomList_Tail_Member<FFastAllocator<MultiListNodePolicy<CvTradedItem>,0,21,0,BaseVector<MultiListNodePolicy<CvTradedItem>,0>::FDefaultFastVectorAllocator> > >::base_iterator<FCustomList_Core<MultiListNodePolicy<CvTradedItem>,FFastAllocator<MultiListNodePolicy<CvTradedItem>,0,21,0,BaseVector<MultiListNodePolicy<CvTradedItem>,0>::FDefaultFastVectorAllocator>,FCustomList_Tail_Member<FFastAllocator<MultiListNodePolicy<CvTradedItem>,0,21,0,BaseVector<MultiListNodePolicy<CvTradedItem>,0>::FDefaultFastVectorAllocator> > >::base_iterator_tail_const>::operator!=
_TEXT	ENDS
PUBLIC	??9?$base_iterator@Vbase_iterator_tail@?$FCustomList_Core@U?$MultiListNodePolicy@UCvTradedItem@@@@V?$FFastAllocator@U?$MultiListNodePolicy@UCvTradedItem@@@@$0A@$0BF@$0A@UFDefaultFastVectorAllocator@?$BaseVector@U?$MultiListNodePolicy@UCvTradedItem@@@@$0A@@@@@V?$FCustomList_Tail_Member@V?$FFastAllocator@U?$MultiListNodePolicy@UCvTradedItem@@@@$0A@$0BF@$0A@UFDefaultFastVectorAllocator@?$BaseVector@U?$MultiListNodePolicy@UCvTradedItem@@@@$0A@@@@@@@@@@?$FCustomList_Core@U?$MultiListNodePolicy@UCvTradedItem@@@@V?$FFastAllocator@U?$MultiListNodePolicy@UCvTradedItem@@@@$0A@$0BF@$0A@UFDefaultFastVectorAllocator@?$BaseVector@U?$MultiListNodePolicy@UCvTradedItem@@@@$0A@@@@@V?$FCustomList_Tail_Member@V?$FFastAllocator@U?$MultiListNodePolicy@UCvTradedItem@@@@$0A@$0BF@$0A@UFDefaultFastVectorAllocator@?$BaseVector@U?$MultiListNodePolicy@UCvTradedItem@@@@$0A@@@@@@@@@QBE_NABV01@@Z ; FCustomList_Core<MultiListNodePolicy<CvTradedItem>,FFastAllocator<MultiListNodePolicy<CvTradedItem>,0,21,0,BaseVector<MultiListNodePolicy<CvTradedItem>,0>::FDefaultFastVectorAllocator>,FCustomList_Tail_Member<FFastAllocator<MultiListNodePolicy<CvTradedItem>,0,21,0,BaseVector<MultiListNodePolicy<CvTradedItem>,0>::FDefaultFastVectorAllocator> > >::base_iterator<FCustomList_Core<MultiListNodePolicy<CvTradedItem>,FFastAllocator<MultiListNodePolicy<CvTradedItem>,0,21,0,BaseVector<MultiListNodePolicy<CvTradedItem>,0>::FDefaultFastVectorAllocator>,FCustomList_Tail_Member<FFastAllocator<MultiListNodePolicy<CvTradedItem>,0,21,0,BaseVector<MultiListNodePolicy<CvTradedItem>,0>::FDefaultFastVectorAllocator> > >::base_iterator_tail>::operator!=
; Function compile flags: /Ogtpy
;	COMDAT ??9?$base_iterator@Vbase_iterator_tail@?$FCustomList_Core@U?$MultiListNodePolicy@UCvTradedItem@@@@V?$FFastAllocator@U?$MultiListNodePolicy@UCvTradedItem@@@@$0A@$0BF@$0A@UFDefaultFastVectorAllocator@?$BaseVector@U?$MultiListNodePolicy@UCvTradedItem@@@@$0A@@@@@V?$FCustomList_Tail_Member@V?$FFastAllocator@U?$MultiListNodePolicy@UCvTradedItem@@@@$0A@$0BF@$0A@UFDefaultFastVectorAllocator@?$BaseVector@U?$MultiListNodePolicy@UCvTradedItem@@@@$0A@@@@@@@@@@?$FCustomList_Core@U?$MultiListNodePolicy@UCvTradedItem@@@@V?$FFastAllocator@U?$MultiListNodePolicy@UCvTradedItem@@@@$0A@$0BF@$0A@UFDefaultFastVectorAllocator@?$BaseVector@U?$MultiListNodePolicy@UCvTradedItem@@@@$0A@@@@@V?$FCustomList_Tail_Member@V?$FFastAllocator@U?$MultiListNodePolicy@UCvTradedItem@@@@$0A@$0BF@$0A@UFDefaultFastVectorAllocator@?$BaseVector@U?$MultiListNodePolicy@UCvTradedItem@@@@$0A@@@@@@@@@QBE_NABV01@@Z
_TEXT	SEGMENT
_rhs$ = 8						; size = 4
??9?$base_iterator@Vbase_iterator_tail@?$FCustomList_Core@U?$MultiListNodePolicy@UCvTradedItem@@@@V?$FFastAllocator@U?$MultiListNodePolicy@UCvTradedItem@@@@$0A@$0BF@$0A@UFDefaultFastVectorAllocator@?$BaseVector@U?$MultiListNodePolicy@UCvTradedItem@@@@$0A@@@@@V?$FCustomList_Tail_Member@V?$FFastAllocator@U?$MultiListNodePolicy@UCvTradedItem@@@@$0A@$0BF@$0A@UFDefaultFastVectorAllocator@?$BaseVector@U?$MultiListNodePolicy@UCvTradedItem@@@@$0A@@@@@@@@@@?$FCustomList_Core@U?$MultiListNodePolicy@UCvTradedItem@@@@V?$FFastAllocator@U?$MultiListNodePolicy@UCvTradedItem@@@@$0A@$0BF@$0A@UFDefaultFastVectorAllocator@?$BaseVector@U?$MultiListNodePolicy@UCvTradedItem@@@@$0A@@@@@V?$FCustomList_Tail_Member@V?$FFastAllocator@U?$MultiListNodePolicy@UCvTradedItem@@@@$0A@$0BF@$0A@UFDefaultFastVectorAllocator@?$BaseVector@U?$MultiListNodePolicy@UCvTradedItem@@@@$0A@@@@@@@@@QBE_NABV01@@Z PROC ; FCustomList_Core<MultiListNodePolicy<CvTradedItem>,FFastAllocator<MultiListNodePolicy<CvTradedItem>,0,21,0,BaseVector<MultiListNodePolicy<CvTradedItem>,0>::FDefaultFastVectorAllocator>,FCustomList_Tail_Member<FFastAllocator<MultiListNodePolicy<CvTradedItem>,0,21,0,BaseVector<MultiListNodePolicy<CvTradedItem>,0>::FDefaultFastVectorAllocator> > >::base_iterator<FCustomList_Core<MultiListNodePolicy<CvTradedItem>,FFastAllocator<MultiListNodePolicy<CvTradedItem>,0,21,0,BaseVector<MultiListNodePolicy<CvTradedItem>,0>::FDefaultFastVectorAllocator>,FCustomList_Tail_Member<FFastAllocator<MultiListNodePolicy<CvTradedItem>,0,21,0,BaseVector<MultiListNodePolicy<CvTradedItem>,0>::FDefaultFastVectorAllocator> > >::base_iterator_tail>::operator!=, COMDAT
; _this$ = ecx

; 353  : 			return m_uiCurrPos != rhs.m_uiCurrPos;

	mov	eax, DWORD PTR [ecx+4]
	mov	edx, DWORD PTR _rhs$[esp-4]
	xor	ecx, ecx
	cmp	eax, DWORD PTR [edx+4]
	setne	cl
	mov	al, cl

; 354  : 		};

	ret	4
??9?$base_iterator@Vbase_iterator_tail@?$FCustomList_Core@U?$MultiListNodePolicy@UCvTradedItem@@@@V?$FFastAllocator@U?$MultiListNodePolicy@UCvTradedItem@@@@$0A@$0BF@$0A@UFDefaultFastVectorAllocator@?$BaseVector@U?$MultiListNodePolicy@UCvTradedItem@@@@$0A@@@@@V?$FCustomList_Tail_Member@V?$FFastAllocator@U?$MultiListNodePolicy@UCvTradedItem@@@@$0A@$0BF@$0A@UFDefaultFastVectorAllocator@?$BaseVector@U?$MultiListNodePolicy@UCvTradedItem@@@@$0A@@@@@@@@@@?$FCustomList_Core@U?$MultiListNodePolicy@UCvTradedItem@@@@V?$FFastAllocator@U?$MultiListNodePolicy@UCvTradedItem@@@@$0A@$0BF@$0A@UFDefaultFastVectorAllocator@?$BaseVector@U?$MultiListNodePolicy@UCvTradedItem@@@@$0A@@@@@V?$FCustomList_Tail_Member@V?$FFastAllocator@U?$MultiListNodePolicy@UCvTradedItem@@@@$0A@$0BF@$0A@UFDefaultFastVectorAllocator@?$BaseVector@U?$MultiListNodePolicy@UCvTradedItem@@@@$0A@@@@@@@@@QBE_NABV01@@Z ENDP ; FCustomList_Core<MultiListNodePolicy<CvTradedItem>,FFastAllocator<MultiListNodePolicy<CvTradedItem>,0,21,0,BaseVector<MultiListNodePolicy<CvTradedItem>,0>::FDefaultFastVectorAllocator>,FCustomList_Tail_Member<FFastAllocator<MultiListNodePolicy<CvTradedItem>,0,21,0,BaseVector<MultiListNodePolicy<CvTradedItem>,0>::FDefaultFastVectorAllocator> > >::base_iterator<FCustomList_Core<MultiListNodePolicy<CvTradedItem>,FFastAllocator<MultiListNodePolicy<CvTradedItem>,0,21,0,BaseVector<MultiListNodePolicy<CvTradedItem>,0>::FDefaultFastVectorAllocator>,FCustomList_Tail_Member<FFastAllocator<MultiListNodePolicy<CvTradedItem>,0,21,0,BaseVector<MultiListNodePolicy<CvTradedItem>,0>::FDefaultFastVectorAllocator> > >::base_iterator_tail>::operator!=
_TEXT	ENDS
PUBLIC	??0?$pair@IPAVCvDeal@@@std@@QAE@ABIABQAVCvDeal@@@Z ; std::pair<unsigned int,CvDeal *>::pair<unsigned int,CvDeal *>
; Function compile flags: /Ogtpy
; File c:\program files (x86)\microsoft visual studio 9.0\vc\include\utility
;	COMDAT ??0?$pair@IPAVCvDeal@@@std@@QAE@ABIABQAVCvDeal@@@Z
_TEXT	SEGMENT
__Val1$ = 8						; size = 4
__Val2$ = 12						; size = 4
??0?$pair@IPAVCvDeal@@@std@@QAE@ABIABQAVCvDeal@@@Z PROC	; std::pair<unsigned int,CvDeal *>::pair<unsigned int,CvDeal *>, COMDAT
; _this$ = ecx

; 50   : 		{	// construct from specified values

	mov	eax, ecx
	mov	ecx, DWORD PTR __Val1$[esp-4]
	mov	edx, DWORD PTR [ecx]
	mov	ecx, DWORD PTR __Val2$[esp-4]
	mov	DWORD PTR [eax], edx
	mov	edx, DWORD PTR [ecx]
	mov	DWORD PTR [eax+4], edx

; 51   : 		}

	ret	8
??0?$pair@IPAVCvDeal@@@std@@QAE@ABIABQAVCvDeal@@@Z ENDP	; std::pair<unsigned int,CvDeal *>::pair<unsigned int,CvDeal *>
_TEXT	ENDS
PUBLIC	?size@?$FCustomList_Core@U?$MultiListNodePolicy@UCvTradedItem@@@@V?$FFastAllocator@U?$MultiListNodePolicy@UCvTradedItem@@@@$0A@$0BF@$0A@UFDefaultFastVectorAllocator@?$BaseVector@U?$MultiListNodePolicy@UCvTradedItem@@@@$0A@@@@@V?$FCustomList_Tail_Member@V?$FFastAllocator@U?$MultiListNodePolicy@UCvTradedItem@@@@$0A@$0BF@$0A@UFDefaultFastVectorAllocator@?$BaseVector@U?$MultiListNodePolicy@UCvTradedItem@@@@$0A@@@@@@@@@QBEIXZ ; FCustomList_Core<MultiListNodePolicy<CvTradedItem>,FFastAllocator<MultiListNodePolicy<CvTradedItem>,0,21,0,BaseVector<MultiListNodePolicy<CvTradedItem>,0>::FDefaultFastVectorAllocator>,FCustomList_Tail_Member<FFastAllocator<MultiListNodePolicy<CvTradedItem>,0,21,0,BaseVector<MultiListNodePolicy<CvTradedItem>,0>::FDefaultFastVectorAllocator> > >::size
; Function compile flags: /Ogtpy
; File c:\users\enormousapplepie\desktop\lekmod dll versions\v31\lekmod_dll\fireplace\include\fireworks\ffastlist.h
;	COMDAT ?size@?$FCustomList_Core@U?$MultiListNodePolicy@UCvTradedItem@@@@V?$FFastAllocator@U?$MultiListNodePolicy@UCvTradedItem@@@@$0A@$0BF@$0A@UFDefaultFastVectorAllocator@?$BaseVector@U?$MultiListNodePolicy@UCvTradedItem@@@@$0A@@@@@V?$FCustomList_Tail_Member@V?$FFastAllocator@U?$MultiListNodePolicy@UCvTradedItem@@@@$0A@$0BF@$0A@UFDefaultFastVectorAllocator@?$BaseVector@U?$MultiListNodePolicy@UCvTradedItem@@@@$0A@@@@@@@@@QBEIXZ
_TEXT	SEGMENT
?size@?$FCustomList_Core@U?$MultiListNodePolicy@UCvTradedItem@@@@V?$FFastAllocator@U?$MultiListNodePolicy@UCvTradedItem@@@@$0A@$0BF@$0A@UFDefaultFastVectorAllocator@?$BaseVector@U?$MultiListNodePolicy@UCvTradedItem@@@@$0A@@@@@V?$FCustomList_Tail_Member@V?$FFastAllocator@U?$MultiListNodePolicy@UCvTradedItem@@@@$0A@$0BF@$0A@UFDefaultFastVectorAllocator@?$BaseVector@U?$MultiListNodePolicy@UCvTradedItem@@@@$0A@@@@@@@@@QBEIXZ PROC ; FCustomList_Core<MultiListNodePolicy<CvTradedItem>,FFastAllocator<MultiListNodePolicy<CvTradedItem>,0,21,0,BaseVector<MultiListNodePolicy<CvTradedItem>,0>::FDefaultFastVectorAllocator>,FCustomList_Tail_Member<FFastAllocator<MultiListNodePolicy<CvTradedItem>,0,21,0,BaseVector<MultiListNodePolicy<CvTradedItem>,0>::FDefaultFastVectorAllocator> > >::size, COMDAT
; _this$ = ecx

; 522  : 		return m_uiSize;

	mov	eax, DWORD PTR [ecx+20]

; 523  : 	};

	ret	0
?size@?$FCustomList_Core@U?$MultiListNodePolicy@UCvTradedItem@@@@V?$FFastAllocator@U?$MultiListNodePolicy@UCvTradedItem@@@@$0A@$0BF@$0A@UFDefaultFastVectorAllocator@?$BaseVector@U?$MultiListNodePolicy@UCvTradedItem@@@@$0A@@@@@V?$FCustomList_Tail_Member@V?$FFastAllocator@U?$MultiListNodePolicy@UCvTradedItem@@@@$0A@$0BF@$0A@UFDefaultFastVectorAllocator@?$BaseVector@U?$MultiListNodePolicy@UCvTradedItem@@@@$0A@@@@@@@@@QBEIXZ ENDP ; FCustomList_Core<MultiListNodePolicy<CvTradedItem>,FFastAllocator<MultiListNodePolicy<CvTradedItem>,0,21,0,BaseVector<MultiListNodePolicy<CvTradedItem>,0>::FDefaultFastVectorAllocator>,FCustomList_Tail_Member<FFastAllocator<MultiListNodePolicy<CvTradedItem>,0,21,0,BaseVector<MultiListNodePolicy<CvTradedItem>,0>::FDefaultFastVectorAllocator> > >::size
_TEXT	ENDS
PUBLIC	?get_allocator@?$FCustomList_Tail_Member@V?$FFastAllocator@U?$MultiListNodePolicy@UCvTradedItem@@@@$0A@$0BF@$0A@UFDefaultFastVectorAllocator@?$BaseVector@U?$MultiListNodePolicy@UCvTradedItem@@@@$0A@@@@@@@QBEABV?$FFastAllocator@U?$MultiListNodePolicy@UCvTradedItem@@@@$0A@$0BF@$0A@UFDefaultFastVectorAllocator@?$BaseVector@U?$MultiListNodePolicy@UCvTradedItem@@@@$0A@@@@@XZ ; FCustomList_Tail_Member<FFastAllocator<MultiListNodePolicy<CvTradedItem>,0,21,0,BaseVector<MultiListNodePolicy<CvTradedItem>,0>::FDefaultFastVectorAllocator> >::get_allocator
; Function compile flags: /Ogtpy
;	COMDAT ?get_allocator@?$FCustomList_Tail_Member@V?$FFastAllocator@U?$MultiListNodePolicy@UCvTradedItem@@@@$0A@$0BF@$0A@UFDefaultFastVectorAllocator@?$BaseVector@U?$MultiListNodePolicy@UCvTradedItem@@@@$0A@@@@@@@QBEABV?$FFastAllocator@U?$MultiListNodePolicy@UCvTradedItem@@@@$0A@$0BF@$0A@UFDefaultFastVectorAllocator@?$BaseVector@U?$MultiListNodePolicy@UCvTradedItem@@@@$0A@@@@@XZ
_TEXT	SEGMENT
?get_allocator@?$FCustomList_Tail_Member@V?$FFastAllocator@U?$MultiListNodePolicy@UCvTradedItem@@@@$0A@$0BF@$0A@UFDefaultFastVectorAllocator@?$BaseVector@U?$MultiListNodePolicy@UCvTradedItem@@@@$0A@@@@@@@QBEABV?$FFastAllocator@U?$MultiListNodePolicy@UCvTradedItem@@@@$0A@$0BF@$0A@UFDefaultFastVectorAllocator@?$BaseVector@U?$MultiListNodePolicy@UCvTradedItem@@@@$0A@@@@@XZ PROC ; FCustomList_Tail_Member<FFastAllocator<MultiListNodePolicy<CvTradedItem>,0,21,0,BaseVector<MultiListNodePolicy<CvTradedItem>,0>::FDefaultFastVectorAllocator> >::get_allocator, COMDAT
; _this$ = ecx

; 710  : 	const T_ALLOCATOR& get_allocator() const{ return m_kAllocator; };

	mov	eax, ecx
	ret	0
?get_allocator@?$FCustomList_Tail_Member@V?$FFastAllocator@U?$MultiListNodePolicy@UCvTradedItem@@@@$0A@$0BF@$0A@UFDefaultFastVectorAllocator@?$BaseVector@U?$MultiListNodePolicy@UCvTradedItem@@@@$0A@@@@@@@QBEABV?$FFastAllocator@U?$MultiListNodePolicy@UCvTradedItem@@@@$0A@$0BF@$0A@UFDefaultFastVectorAllocator@?$BaseVector@U?$MultiListNodePolicy@UCvTradedItem@@@@$0A@@@@@XZ ENDP ; FCustomList_Tail_Member<FFastAllocator<MultiListNodePolicy<CvTradedItem>,0,21,0,BaseVector<MultiListNodePolicy<CvTradedItem>,0>::FDefaultFastVectorAllocator> >::get_allocator
_TEXT	ENDS
PUBLIC	?get_allocator@?$FCustomList_Tail_Member@V?$FFastAllocator@U?$MultiListNodePolicy@UCvTradedItem@@@@$0A@$0BF@$0A@UFDefaultFastVectorAllocator@?$BaseVector@U?$MultiListNodePolicy@UCvTradedItem@@@@$0A@@@@@@@QAEAAV?$FFastAllocator@U?$MultiListNodePolicy@UCvTradedItem@@@@$0A@$0BF@$0A@UFDefaultFastVectorAllocator@?$BaseVector@U?$MultiListNodePolicy@UCvTradedItem@@@@$0A@@@@@XZ ; FCustomList_Tail_Member<FFastAllocator<MultiListNodePolicy<CvTradedItem>,0,21,0,BaseVector<MultiListNodePolicy<CvTradedItem>,0>::FDefaultFastVectorAllocator> >::get_allocator
; Function compile flags: /Ogtpy
;	COMDAT ?get_allocator@?$FCustomList_Tail_Member@V?$FFastAllocator@U?$MultiListNodePolicy@UCvTradedItem@@@@$0A@$0BF@$0A@UFDefaultFastVectorAllocator@?$BaseVector@U?$MultiListNodePolicy@UCvTradedItem@@@@$0A@@@@@@@QAEAAV?$FFastAllocator@U?$MultiListNodePolicy@UCvTradedItem@@@@$0A@$0BF@$0A@UFDefaultFastVectorAllocator@?$BaseVector@U?$MultiListNodePolicy@UCvTradedItem@@@@$0A@@@@@XZ
_TEXT	SEGMENT
?get_allocator@?$FCustomList_Tail_Member@V?$FFastAllocator@U?$MultiListNodePolicy@UCvTradedItem@@@@$0A@$0BF@$0A@UFDefaultFastVectorAllocator@?$BaseVector@U?$MultiListNodePolicy@UCvTradedItem@@@@$0A@@@@@@@QAEAAV?$FFastAllocator@U?$MultiListNodePolicy@UCvTradedItem@@@@$0A@$0BF@$0A@UFDefaultFastVectorAllocator@?$BaseVector@U?$MultiListNodePolicy@UCvTradedItem@@@@$0A@@@@@XZ PROC ; FCustomList_Tail_Member<FFastAllocator<MultiListNodePolicy<CvTradedItem>,0,21,0,BaseVector<MultiListNodePolicy<CvTradedItem>,0>::FDefaultFastVectorAllocator> >::get_allocator, COMDAT
; _this$ = ecx

; 711  : 	T_ALLOCATOR& get_allocator(){ return m_kAllocator; };

	mov	eax, ecx
	ret	0
?get_allocator@?$FCustomList_Tail_Member@V?$FFastAllocator@U?$MultiListNodePolicy@UCvTradedItem@@@@$0A@$0BF@$0A@UFDefaultFastVectorAllocator@?$BaseVector@U?$MultiListNodePolicy@UCvTradedItem@@@@$0A@@@@@@@QAEAAV?$FFastAllocator@U?$MultiListNodePolicy@UCvTradedItem@@@@$0A@$0BF@$0A@UFDefaultFastVectorAllocator@?$BaseVector@U?$MultiListNodePolicy@UCvTradedItem@@@@$0A@@@@@XZ ENDP ; FCustomList_Tail_Member<FFastAllocator<MultiListNodePolicy<CvTradedItem>,0,21,0,BaseVector<MultiListNodePolicy<CvTradedItem>,0>::FDefaultFastVectorAllocator> >::get_allocator
_TEXT	ENDS
PUBLIC	??_C@_0GP@KFAPCGLJ@c?3?2users?2enormousapplepie?2deskto@ ; `string'
PUBLIC	?Alloc@?$FStaticVector@VCvDeal@@$0BE@$0A@$0BCJ@$0A@@@IAEPAVCvDeal@@I@Z ; FStaticVector<CvDeal,20,0,297,0>::Alloc
EXTRN	?FireMallocAlignedNoTracking@@YAPAXIIPBDH@Z:PROC ; FireMallocAlignedNoTracking
;	COMDAT ??_C@_0GP@KFAPCGLJ@c?3?2users?2enormousapplepie?2deskto@
; File c:\users\enormousapplepie\desktop\lekmod dll versions\v31\lekmod_dll\fireplace\include\fireworks\ffastvector.h
CONST	SEGMENT
??_C@_0GP@KFAPCGLJ@c?3?2users?2enormousapplepie?2deskto@ DB 'c:\users\eno'
	DB	'rmousapplepie\desktop\lekmod dll versions\v31\lekmod_dll\fire'
	DB	'place\include\fireworks\FFastVector.h', 00H	; `string'
; Function compile flags: /Ogtpy
CONST	ENDS
;	COMDAT ?Alloc@?$FStaticVector@VCvDeal@@$0BE@$0A@$0BCJ@$0A@@@IAEPAVCvDeal@@I@Z
_TEXT	SEGMENT
_uiSize$ = 8						; size = 4
?Alloc@?$FStaticVector@VCvDeal@@$0BE@$0A@$0BCJ@$0A@@@IAEPAVCvDeal@@I@Z PROC ; FStaticVector<CvDeal,20,0,297,0>::Alloc, COMDAT
; _this$ = ecx

; 795  : 	T* Alloc(unsigned int uiSize){

	push	esi
	push	edi

; 796  : 		T* pRet;
; 797  : 		if( uiSize > L ){

	mov	edi, DWORD PTR _uiSize$[esp+4]
	mov	esi, ecx
	cmp	edi, 20					; 00000014H
	jbe	SHORT $LN2@Alloc

; 798  : 			pRet = (T*)FMALLOCALIGNED( uiSize*sizeof(T), __alignof(T), AllocPool, nSubID );

	mov	eax, edi
	imul	eax, 76					; 0000004cH
	push	798					; 0000031eH
	push	OFFSET ??_C@_0GP@KFAPCGLJ@c?3?2users?2enormousapplepie?2deskto@
	push	4
	push	eax
	call	?FireMallocAlignedNoTracking@@YAPAXIIPBDH@Z ; FireMallocAlignedNoTracking
	add	esp, 16					; 00000010H

; 799  : 			m_uiCurrMaxSize = uiSize;

	mov	DWORD PTR [esi+8], edi
	pop	edi
	pop	esi

; 803  : 		}
; 804  : 		return pRet;
; 805  : 	};

	ret	4
$LN2@Alloc:
	pop	edi

; 800  : 		}else{
; 801  : 			pRet = (T*)m_aData;

	lea	eax, DWORD PTR [esi+12]

; 802  : 			m_uiCurrMaxSize = L;

	mov	DWORD PTR [esi+8], 20			; 00000014H
	pop	esi

; 803  : 		}
; 804  : 		return pRet;
; 805  : 	};

	ret	4
?Alloc@?$FStaticVector@VCvDeal@@$0BE@$0A@$0BCJ@$0A@@@IAEPAVCvDeal@@I@Z ENDP ; FStaticVector<CvDeal,20,0,297,0>::Alloc
_TEXT	ENDS
PUBLIC	??1?$BaseVector@VCvDeal@@$0A@@@QAE@XZ		; BaseVector<CvDeal,0>::~BaseVector<CvDeal,0>
; Function compile flags: /Ogtpy
;	COMDAT ??1?$BaseVector@VCvDeal@@$0A@@@QAE@XZ
_TEXT	SEGMENT
??1?$BaseVector@VCvDeal@@$0A@@@QAE@XZ PROC		; BaseVector<CvDeal,0>::~BaseVector<CvDeal,0>, COMDAT
; _this$ = ecx

; 111  : 	~BaseVector(){};

	ret	0
??1?$BaseVector@VCvDeal@@$0A@@@QAE@XZ ENDP		; BaseVector<CvDeal,0>::~BaseVector<CvDeal,0>
_TEXT	ENDS
PUBLIC	??0?$BaseVector@VCvDeal@@$0A@@@IAE@XZ		; BaseVector<CvDeal,0>::BaseVector<CvDeal,0>
; Function compile flags: /Ogtpy
;	COMDAT ??0?$BaseVector@VCvDeal@@$0A@@@IAE@XZ
_TEXT	SEGMENT
??0?$BaseVector@VCvDeal@@$0A@@@IAE@XZ PROC		; BaseVector<CvDeal,0>::BaseVector<CvDeal,0>, COMDAT
; _this$ = ecx

; 216  : 	BaseVector() : m_uiCurrSize(0), m_uiCurrMaxSize(0), m_pData(NULL) {};

	mov	eax, ecx
	xor	ecx, ecx
	mov	DWORD PTR [eax], ecx
	mov	DWORD PTR [eax+4], ecx
	mov	DWORD PTR [eax+8], ecx
	ret	0
??0?$BaseVector@VCvDeal@@$0A@@@IAE@XZ ENDP		; BaseVector<CvDeal,0>::BaseVector<CvDeal,0>
_TEXT	ENDS
PUBLIC	?Destroy@?$BaseVector@VCvDeal@@$0A@@@IAEXPAVCvDeal@@I@Z ; BaseVector<CvDeal,0>::Destroy
; Function compile flags: /Ogtpy
;	COMDAT ?Destroy@?$BaseVector@VCvDeal@@$0A@@@IAEXPAVCvDeal@@I@Z
_TEXT	SEGMENT
_pVal$ = 8						; size = 4
_uiNumElements$ = 12					; size = 4
?Destroy@?$BaseVector@VCvDeal@@$0A@@@IAEXPAVCvDeal@@I@Z PROC ; BaseVector<CvDeal,0>::Destroy, COMDAT
; _this$ = ecx

; 220  : 	{

	push	edi

; 221  : 		if( !bPODType){
; 222  : 			for(unsigned int i = 0; i < uiNumElements; ++i){

	mov	edi, DWORD PTR _uiNumElements$[esp]
	test	edi, edi
	jbe	SHORT $LN1@Destroy
	push	esi
	mov	esi, DWORD PTR _pVal$[esp+4]
	npad	2
$LL3@Destroy:

; 223  : 				pVal[i].~T();

	mov	eax, DWORD PTR [esi]
	mov	edx, DWORD PTR [eax]
	push	0
	mov	ecx, esi
	call	edx
	add	esi, 76					; 0000004cH
	sub	edi, 1
	jne	SHORT $LL3@Destroy
	pop	esi
$LN1@Destroy:
	pop	edi

; 224  : 			}
; 225  : 		}
; 226  : 	};

	ret	8
?Destroy@?$BaseVector@VCvDeal@@$0A@@@IAEXPAVCvDeal@@I@Z ENDP ; BaseVector<CvDeal,0>::Destroy
_TEXT	ENDS
PUBLIC	?capacity@?$vector@U?$pair@IPAVCvDeal@@@std@@V?$allocator@U?$pair@IPAVCvDeal@@@std@@@2@@std@@QBEIXZ ; std::vector<std::pair<unsigned int,CvDeal *>,std::allocator<std::pair<unsigned int,CvDeal *> > >::capacity
; Function compile flags: /Ogtpy
; File c:\program files (x86)\microsoft visual studio 9.0\vc\include\vector
;	COMDAT ?capacity@?$vector@U?$pair@IPAVCvDeal@@@std@@V?$allocator@U?$pair@IPAVCvDeal@@@std@@@2@@std@@QBEIXZ
_TEXT	SEGMENT
?capacity@?$vector@U?$pair@IPAVCvDeal@@@std@@V?$allocator@U?$pair@IPAVCvDeal@@@std@@@2@@std@@QBEIXZ PROC ; std::vector<std::pair<unsigned int,CvDeal *>,std::allocator<std::pair<unsigned int,CvDeal *> > >::capacity, COMDAT
; _this$ = ecx

; 635  : 		return (_Myfirst == 0 ? 0 : _Myend - _Myfirst);

	mov	edx, DWORD PTR [ecx+4]
	test	edx, edx
	jne	SHORT $LN3@capacity
	xor	eax, eax

; 636  : 		}

	ret	0
$LN3@capacity:

; 635  : 		return (_Myfirst == 0 ? 0 : _Myend - _Myfirst);

	mov	eax, DWORD PTR [ecx+12]
	sub	eax, edx
	sar	eax, 3

; 636  : 		}

	ret	0
?capacity@?$vector@U?$pair@IPAVCvDeal@@@std@@V?$allocator@U?$pair@IPAVCvDeal@@@std@@@2@@std@@QBEIXZ ENDP ; std::vector<std::pair<unsigned int,CvDeal *>,std::allocator<std::pair<unsigned int,CvDeal *> > >::capacity
_TEXT	ENDS
PUBLIC	?size@?$vector@U?$pair@IPAVCvDeal@@@std@@V?$allocator@U?$pair@IPAVCvDeal@@@std@@@2@@std@@QBEIXZ ; std::vector<std::pair<unsigned int,CvDeal *>,std::allocator<std::pair<unsigned int,CvDeal *> > >::size
; Function compile flags: /Ogtpy
;	COMDAT ?size@?$vector@U?$pair@IPAVCvDeal@@@std@@V?$allocator@U?$pair@IPAVCvDeal@@@std@@@2@@std@@QBEIXZ
_TEXT	SEGMENT
?size@?$vector@U?$pair@IPAVCvDeal@@@std@@V?$allocator@U?$pair@IPAVCvDeal@@@std@@@2@@std@@QBEIXZ PROC ; std::vector<std::pair<unsigned int,CvDeal *>,std::allocator<std::pair<unsigned int,CvDeal *> > >::size, COMDAT
; _this$ = ecx

; 726  : 		return (_Mylast - _Myfirst);

	mov	eax, DWORD PTR [ecx+8]
	sub	eax, DWORD PTR [ecx+4]
	sar	eax, 3

; 727  : 		}

	ret	0
?size@?$vector@U?$pair@IPAVCvDeal@@@std@@V?$allocator@U?$pair@IPAVCvDeal@@@std@@@2@@std@@QBEIXZ ENDP ; std::vector<std::pair<unsigned int,CvDeal *>,std::allocator<std::pair<unsigned int,CvDeal *> > >::size
_TEXT	ENDS
PUBLIC	??1?$_Container_base_aux_alloc_empty@V?$allocator@U?$pair@IPAVCvDeal@@@std@@@std@@@std@@IAE@XZ ; std::_Container_base_aux_alloc_empty<std::allocator<std::pair<unsigned int,CvDeal *> > >::~_Container_base_aux_alloc_empty<std::allocator<std::pair<unsigned int,CvDeal *> > >
; Function compile flags: /Ogtpy
; File c:\program files (x86)\microsoft visual studio 9.0\vc\include\xutility
;	COMDAT ??1?$_Container_base_aux_alloc_empty@V?$allocator@U?$pair@IPAVCvDeal@@@std@@@std@@@std@@IAE@XZ
_TEXT	SEGMENT
??1?$_Container_base_aux_alloc_empty@V?$allocator@U?$pair@IPAVCvDeal@@@std@@@std@@@std@@IAE@XZ PROC ; std::_Container_base_aux_alloc_empty<std::allocator<std::pair<unsigned int,CvDeal *> > >::~_Container_base_aux_alloc_empty<std::allocator<std::pair<unsigned int,CvDeal *> > >, COMDAT
; _this$ = ecx

; 627  : 	~_Container_base_aux_alloc_empty() { }

	ret	0
??1?$_Container_base_aux_alloc_empty@V?$allocator@U?$pair@IPAVCvDeal@@@std@@@std@@@std@@IAE@XZ ENDP ; std::_Container_base_aux_alloc_empty<std::allocator<std::pair<unsigned int,CvDeal *> > >::~_Container_base_aux_alloc_empty<std::allocator<std::pair<unsigned int,CvDeal *> > >
_TEXT	ENDS
PUBLIC	??0?$allocator@U?$pair@IPAVCvDeal@@@std@@@std@@QAE@XZ ; std::allocator<std::pair<unsigned int,CvDeal *> >::allocator<std::pair<unsigned int,CvDeal *> >
; Function compile flags: /Ogtpy
; File c:\program files (x86)\microsoft visual studio 9.0\vc\include\xmemory
;	COMDAT ??0?$allocator@U?$pair@IPAVCvDeal@@@std@@@std@@QAE@XZ
_TEXT	SEGMENT
??0?$allocator@U?$pair@IPAVCvDeal@@@std@@@std@@QAE@XZ PROC ; std::allocator<std::pair<unsigned int,CvDeal *> >::allocator<std::pair<unsigned int,CvDeal *> >, COMDAT
; _this$ = ecx

; 119  : 	allocator() _THROW0()

	mov	eax, ecx

; 120  : 		{	// construct default allocator (do nothing)
; 121  : 		}

	ret	0
??0?$allocator@U?$pair@IPAVCvDeal@@@std@@@std@@QAE@XZ ENDP ; std::allocator<std::pair<unsigned int,CvDeal *> >::allocator<std::pair<unsigned int,CvDeal *> >
_TEXT	ENDS
PUBLIC	?get_index@?$base_iterator@Vbase_iterator_tail@?$FCustomList_Core@U?$MultiListNodePolicy@UCvTradedItem@@@@V?$FFastAllocator@U?$MultiListNodePolicy@UCvTradedItem@@@@$0A@$0BF@$0A@UFDefaultFastVectorAllocator@?$BaseVector@U?$MultiListNodePolicy@UCvTradedItem@@@@$0A@@@@@V?$FCustomList_Tail_Member@V?$FFastAllocator@U?$MultiListNodePolicy@UCvTradedItem@@@@$0A@$0BF@$0A@UFDefaultFastVectorAllocator@?$BaseVector@U?$MultiListNodePolicy@UCvTradedItem@@@@$0A@@@@@@@@@@?$FCustomList_Core@U?$MultiListNodePolicy@UCvTradedItem@@@@V?$FFastAllocator@U?$MultiListNodePolicy@UCvTradedItem@@@@$0A@$0BF@$0A@UFDefaultFastVectorAllocator@?$BaseVector@U?$MultiListNodePolicy@UCvTradedItem@@@@$0A@@@@@V?$FCustomList_Tail_Member@V?$FFastAllocator@U?$MultiListNodePolicy@UCvTradedItem@@@@$0A@$0BF@$0A@UFDefaultFastVectorAllocator@?$BaseVector@U?$MultiListNodePolicy@UCvTradedItem@@@@$0A@@@@@@@@@QBEIXZ ; FCustomList_Core<MultiListNodePolicy<CvTradedItem>,FFastAllocator<MultiListNodePolicy<CvTradedItem>,0,21,0,BaseVector<MultiListNodePolicy<CvTradedItem>,0>::FDefaultFastVectorAllocator>,FCustomList_Tail_Member<FFastAllocator<MultiListNodePolicy<CvTradedItem>,0,21,0,BaseVector<MultiListNodePolicy<CvTradedItem>,0>::FDefaultFastVectorAllocator> > >::base_iterator<FCustomList_Core<MultiListNodePolicy<CvTradedItem>,FFastAllocator<MultiListNodePolicy<CvTradedItem>,0,21,0,BaseVector<MultiListNodePolicy<CvTradedItem>,0>::FDefaultFastVectorAllocator>,FCustomList_Tail_Member<FFastAllocator<MultiListNodePolicy<CvTradedItem>,0,21,0,BaseVector<MultiListNodePolicy<CvTradedItem>,0>::FDefaultFastVectorAllocator> > >::base_iterator_tail>::get_index
; Function compile flags: /Ogtpy
; File c:\users\enormousapplepie\desktop\lekmod dll versions\v31\lekmod_dll\fireplace\include\fireworks\ffastlist.h
;	COMDAT ?get_index@?$base_iterator@Vbase_iterator_tail@?$FCustomList_Core@U?$MultiListNodePolicy@UCvTradedItem@@@@V?$FFastAllocator@U?$MultiListNodePolicy@UCvTradedItem@@@@$0A@$0BF@$0A@UFDefaultFastVectorAllocator@?$BaseVector@U?$MultiListNodePolicy@UCvTradedItem@@@@$0A@@@@@V?$FCustomList_Tail_Member@V?$FFastAllocator@U?$MultiListNodePolicy@UCvTradedItem@@@@$0A@$0BF@$0A@UFDefaultFastVectorAllocator@?$BaseVector@U?$MultiListNodePolicy@UCvTradedItem@@@@$0A@@@@@@@@@@?$FCustomList_Core@U?$MultiListNodePolicy@UCvTradedItem@@@@V?$FFastAllocator@U?$MultiListNodePolicy@UCvTradedItem@@@@$0A@$0BF@$0A@UFDefaultFastVectorAllocator@?$BaseVector@U?$MultiListNodePolicy@UCvTradedItem@@@@$0A@@@@@V?$FCustomList_Tail_Member@V?$FFastAllocator@U?$MultiListNodePolicy@UCvTradedItem@@@@$0A@$0BF@$0A@UFDefaultFastVectorAllocator@?$BaseVector@U?$MultiListNodePolicy@UCvTradedItem@@@@$0A@@@@@@@@@QBEIXZ
_TEXT	SEGMENT
?get_index@?$base_iterator@Vbase_iterator_tail@?$FCustomList_Core@U?$MultiListNodePolicy@UCvTradedItem@@@@V?$FFastAllocator@U?$MultiListNodePolicy@UCvTradedItem@@@@$0A@$0BF@$0A@UFDefaultFastVectorAllocator@?$BaseVector@U?$MultiListNodePolicy@UCvTradedItem@@@@$0A@@@@@V?$FCustomList_Tail_Member@V?$FFastAllocator@U?$MultiListNodePolicy@UCvTradedItem@@@@$0A@$0BF@$0A@UFDefaultFastVectorAllocator@?$BaseVector@U?$MultiListNodePolicy@UCvTradedItem@@@@$0A@@@@@@@@@@?$FCustomList_Core@U?$MultiListNodePolicy@UCvTradedItem@@@@V?$FFastAllocator@U?$MultiListNodePolicy@UCvTradedItem@@@@$0A@$0BF@$0A@UFDefaultFastVectorAllocator@?$BaseVector@U?$MultiListNodePolicy@UCvTradedItem@@@@$0A@@@@@V?$FCustomList_Tail_Member@V?$FFastAllocator@U?$MultiListNodePolicy@UCvTradedItem@@@@$0A@$0BF@$0A@UFDefaultFastVectorAllocator@?$BaseVector@U?$MultiListNodePolicy@UCvTradedItem@@@@$0A@@@@@@@@@QBEIXZ PROC ; FCustomList_Core<MultiListNodePolicy<CvTradedItem>,FFastAllocator<MultiListNodePolicy<CvTradedItem>,0,21,0,BaseVector<MultiListNodePolicy<CvTradedItem>,0>::FDefaultFastVectorAllocator>,FCustomList_Tail_Member<FFastAllocator<MultiListNodePolicy<CvTradedItem>,0,21,0,BaseVector<MultiListNodePolicy<CvTradedItem>,0>::FDefaultFastVectorAllocator> > >::base_iterator<FCustomList_Core<MultiListNodePolicy<CvTradedItem>,FFastAllocator<MultiListNodePolicy<CvTradedItem>,0,21,0,BaseVector<MultiListNodePolicy<CvTradedItem>,0>::FDefaultFastVectorAllocator>,FCustomList_Tail_Member<FFastAllocator<MultiListNodePolicy<CvTradedItem>,0,21,0,BaseVector<MultiListNodePolicy<CvTradedItem>,0>::FDefaultFastVectorAllocator> > >::base_iterator_tail>::get_index, COMDAT
; _this$ = ecx

; 363  : 			return m_uiCurrPos;

	mov	eax, DWORD PTR [ecx+4]

; 364  : 		};

	ret	0
?get_index@?$base_iterator@Vbase_iterator_tail@?$FCustomList_Core@U?$MultiListNodePolicy@UCvTradedItem@@@@V?$FFastAllocator@U?$MultiListNodePolicy@UCvTradedItem@@@@$0A@$0BF@$0A@UFDefaultFastVectorAllocator@?$BaseVector@U?$MultiListNodePolicy@UCvTradedItem@@@@$0A@@@@@V?$FCustomList_Tail_Member@V?$FFastAllocator@U?$MultiListNodePolicy@UCvTradedItem@@@@$0A@$0BF@$0A@UFDefaultFastVectorAllocator@?$BaseVector@U?$MultiListNodePolicy@UCvTradedItem@@@@$0A@@@@@@@@@@?$FCustomList_Core@U?$MultiListNodePolicy@UCvTradedItem@@@@V?$FFastAllocator@U?$MultiListNodePolicy@UCvTradedItem@@@@$0A@$0BF@$0A@UFDefaultFastVectorAllocator@?$BaseVector@U?$MultiListNodePolicy@UCvTradedItem@@@@$0A@@@@@V?$FCustomList_Tail_Member@V?$FFastAllocator@U?$MultiListNodePolicy@UCvTradedItem@@@@$0A@$0BF@$0A@UFDefaultFastVectorAllocator@?$BaseVector@U?$MultiListNodePolicy@UCvTradedItem@@@@$0A@@@@@@@@@QBEIXZ ENDP ; FCustomList_Core<MultiListNodePolicy<CvTradedItem>,FFastAllocator<MultiListNodePolicy<CvTradedItem>,0,21,0,BaseVector<MultiListNodePolicy<CvTradedItem>,0>::FDefaultFastVectorAllocator>,FCustomList_Tail_Member<FFastAllocator<MultiListNodePolicy<CvTradedItem>,0,21,0,BaseVector<MultiListNodePolicy<CvTradedItem>,0>::FDefaultFastVectorAllocator> > >::base_iterator<FCustomList_Core<MultiListNodePolicy<CvTradedItem>,FFastAllocator<MultiListNodePolicy<CvTradedItem>,0,21,0,BaseVector<MultiListNodePolicy<CvTradedItem>,0>::FDefaultFastVectorAllocator>,FCustomList_Tail_Member<FFastAllocator<MultiListNodePolicy<CvTradedItem>,0,21,0,BaseVector<MultiListNodePolicy<CvTradedItem>,0>::FDefaultFastVectorAllocator> > >::base_iterator_tail>::get_index
_TEXT	ENDS
PUBLIC	??D?$_Vector_const_iterator@U?$pair@IPAVCvDeal@@@std@@V?$allocator@U?$pair@IPAVCvDeal@@@std@@@2@@std@@QBEABU?$pair@IPAVCvDeal@@@1@XZ ; std::_Vector_const_iterator<std::pair<unsigned int,CvDeal *>,std::allocator<std::pair<unsigned int,CvDeal *> > >::operator*
; Function compile flags: /Ogtpy
; File c:\program files (x86)\microsoft visual studio 9.0\vc\include\vector
;	COMDAT ??D?$_Vector_const_iterator@U?$pair@IPAVCvDeal@@@std@@V?$allocator@U?$pair@IPAVCvDeal@@@std@@@2@@std@@QBEABU?$pair@IPAVCvDeal@@@1@XZ
_TEXT	SEGMENT
??D?$_Vector_const_iterator@U?$pair@IPAVCvDeal@@@std@@V?$allocator@U?$pair@IPAVCvDeal@@@std@@@2@@std@@QBEABU?$pair@IPAVCvDeal@@@1@XZ PROC ; std::_Vector_const_iterator<std::pair<unsigned int,CvDeal *>,std::allocator<std::pair<unsigned int,CvDeal *> > >::operator*, COMDAT
; _this$ = ecx

; 92   : 
; 93   :  #if _HAS_ITERATOR_DEBUGGING
; 94   : 		if (this->_Mycont == 0
; 95   : 			|| _Myptr < ((_Myvec *)this->_Mycont)->_Myfirst
; 96   : 			|| ((_Myvec *)this->_Mycont)->_Mylast <= _Myptr)
; 97   : 			{
; 98   : 			_DEBUG_ERROR("vector iterator not dereferencable");
; 99   : 			_SCL_SECURE_OUT_OF_RANGE;
; 100  : 			}
; 101  :  #else
; 102  :  		_SCL_SECURE_VALIDATE(this->_Has_container());
; 103  : 		_SCL_SECURE_VALIDATE_RANGE(_Myptr < ((_Myvec *)(this->_Getmycont()))->_Mylast);
; 104  :  #endif /* _HAS_ITERATOR_DEBUGGING */
; 105  : 
; 106  : 		return (*_Myptr);

	mov	eax, DWORD PTR [ecx]

; 107  : 		}

	ret	0
??D?$_Vector_const_iterator@U?$pair@IPAVCvDeal@@@std@@V?$allocator@U?$pair@IPAVCvDeal@@@std@@@2@@std@@QBEABU?$pair@IPAVCvDeal@@@1@XZ ENDP ; std::_Vector_const_iterator<std::pair<unsigned int,CvDeal *>,std::allocator<std::pair<unsigned int,CvDeal *> > >::operator*
_TEXT	ENDS
PUBLIC	??E?$_Vector_const_iterator@U?$pair@IPAVCvDeal@@@std@@V?$allocator@U?$pair@IPAVCvDeal@@@std@@@2@@std@@QAEAAV01@XZ ; std::_Vector_const_iterator<std::pair<unsigned int,CvDeal *>,std::allocator<std::pair<unsigned int,CvDeal *> > >::operator++
; Function compile flags: /Ogtpy
;	COMDAT ??E?$_Vector_const_iterator@U?$pair@IPAVCvDeal@@@std@@V?$allocator@U?$pair@IPAVCvDeal@@@std@@@2@@std@@QAEAAV01@XZ
_TEXT	SEGMENT
??E?$_Vector_const_iterator@U?$pair@IPAVCvDeal@@@std@@V?$allocator@U?$pair@IPAVCvDeal@@@std@@@2@@std@@QAEAAV01@XZ PROC ; std::_Vector_const_iterator<std::pair<unsigned int,CvDeal *>,std::allocator<std::pair<unsigned int,CvDeal *> > >::operator++, COMDAT
; _this$ = ecx

; 115  : 		{	// preincrement

	mov	eax, ecx

; 116  : 		_SCL_SECURE_VALIDATE(this->_Has_container());
; 117  : 		_SCL_SECURE_VALIDATE_RANGE(_Myptr < ((_Myvec *)(this->_Getmycont()))->_Mylast);
; 118  : 
; 119  :  #if _HAS_ITERATOR_DEBUGGING
; 120  : 		if (this->_Mycont == 0
; 121  : 			|| ((_Myvec *)this->_Mycont)->_Mylast <= _Myptr)
; 122  : 			_DEBUG_ERROR("vector iterator not incrementable");
; 123  :  #endif /* _HAS_ITERATOR_DEBUGGING */
; 124  : 
; 125  : 		++_Myptr;

	add	DWORD PTR [eax], 8

; 126  : 		return (*this);
; 127  : 		}

	ret	0
??E?$_Vector_const_iterator@U?$pair@IPAVCvDeal@@@std@@V?$allocator@U?$pair@IPAVCvDeal@@@std@@@2@@std@@QAEAAV01@XZ ENDP ; std::_Vector_const_iterator<std::pair<unsigned int,CvDeal *>,std::allocator<std::pair<unsigned int,CvDeal *> > >::operator++
_TEXT	ENDS
PUBLIC	??8?$_Vector_const_iterator@U?$pair@IPAVCvDeal@@@std@@V?$allocator@U?$pair@IPAVCvDeal@@@std@@@2@@std@@QBE_NABV01@@Z ; std::_Vector_const_iterator<std::pair<unsigned int,CvDeal *>,std::allocator<std::pair<unsigned int,CvDeal *> > >::operator==
; Function compile flags: /Ogtpy
;	COMDAT ??8?$_Vector_const_iterator@U?$pair@IPAVCvDeal@@@std@@V?$allocator@U?$pair@IPAVCvDeal@@@std@@@2@@std@@QBE_NABV01@@Z
_TEXT	SEGMENT
__Right$ = 8						; size = 4
??8?$_Vector_const_iterator@U?$pair@IPAVCvDeal@@@std@@V?$allocator@U?$pair@IPAVCvDeal@@@std@@@2@@std@@QBE_NABV01@@Z PROC ; std::_Vector_const_iterator<std::pair<unsigned int,CvDeal *>,std::allocator<std::pair<unsigned int,CvDeal *> > >::operator==, COMDAT
; _this$ = ecx

; 204  : 
; 205  :  #if _HAS_ITERATOR_DEBUGGING
; 206  : 		_Compat(_Right);
; 207  :  #else
; 208  : 		_SCL_SECURE_VALIDATE(this->_Has_container() && this->_Same_container(_Right));
; 209  :  #endif /* _HAS_ITERATOR_DEBUGGING */
; 210  : 
; 211  : 		return (_Myptr == _Right._Myptr);

	mov	eax, DWORD PTR [ecx]
	mov	edx, DWORD PTR __Right$[esp-4]
	xor	ecx, ecx
	cmp	eax, DWORD PTR [edx]
	sete	cl
	mov	al, cl

; 212  : 		}

	ret	4
??8?$_Vector_const_iterator@U?$pair@IPAVCvDeal@@@std@@V?$allocator@U?$pair@IPAVCvDeal@@@std@@@2@@std@@QBE_NABV01@@Z ENDP ; std::_Vector_const_iterator<std::pair<unsigned int,CvDeal *>,std::allocator<std::pair<unsigned int,CvDeal *> > >::operator==
_TEXT	ENDS
PUBLIC	??A?$BaseVector@UWeightedElement@?$CvWeightedVector@W4TeamTypes@@$0DP@$00@@$00@@QBEABUWeightedElement@?$CvWeightedVector@W4TeamTypes@@$0DP@$00@@I@Z ; BaseVector<CvWeightedVector<enum TeamTypes,63,1>::WeightedElement,1>::operator[]
; Function compile flags: /Ogtpy
; File c:\users\enormousapplepie\desktop\lekmod dll versions\v31\lekmod_dll\fireplace\include\fireworks\ffastvector.h
;	COMDAT ??A?$BaseVector@UWeightedElement@?$CvWeightedVector@W4TeamTypes@@$0DP@$00@@$00@@QBEABUWeightedElement@?$CvWeightedVector@W4TeamTypes@@$0DP@$00@@I@Z
_TEXT	SEGMENT
_ui$ = 8						; size = 4
??A?$BaseVector@UWeightedElement@?$CvWeightedVector@W4TeamTypes@@$0DP@$00@@$00@@QBEABUWeightedElement@?$CvWeightedVector@W4TeamTypes@@$0DP@$00@@I@Z PROC ; BaseVector<CvWeightedVector<enum TeamTypes,63,1>::WeightedElement,1>::operator[], COMDAT
; _this$ = ecx

; 135  : 		FAssert(ui < m_uiCurrSize);
; 136  : 		return m_pData[ui];

	mov	eax, DWORD PTR [ecx]
	mov	ecx, DWORD PTR _ui$[esp-4]
	lea	eax, DWORD PTR [eax+ecx*8]

; 137  : 	};

	ret	4
??A?$BaseVector@UWeightedElement@?$CvWeightedVector@W4TeamTypes@@$0DP@$00@@$00@@QBEABUWeightedElement@?$CvWeightedVector@W4TeamTypes@@$0DP@$00@@I@Z ENDP ; BaseVector<CvWeightedVector<enum TeamTypes,63,1>::WeightedElement,1>::operator[]
_TEXT	ENDS
PUBLIC	?size@?$BaseVector@UWeightedElement@?$CvWeightedVector@W4TeamTypes@@$0DP@$00@@$00@@QBEIXZ ; BaseVector<CvWeightedVector<enum TeamTypes,63,1>::WeightedElement,1>::size
; Function compile flags: /Ogtpy
;	COMDAT ?size@?$BaseVector@UWeightedElement@?$CvWeightedVector@W4TeamTypes@@$0DP@$00@@$00@@QBEIXZ
_TEXT	SEGMENT
?size@?$BaseVector@UWeightedElement@?$CvWeightedVector@W4TeamTypes@@$0DP@$00@@$00@@QBEIXZ PROC ; BaseVector<CvWeightedVector<enum TeamTypes,63,1>::WeightedElement,1>::size, COMDAT
; _this$ = ecx

; 169  : 		return m_uiCurrSize;

	mov	eax, DWORD PTR [ecx+4]

; 170  : 	};

	ret	0
?size@?$BaseVector@UWeightedElement@?$CvWeightedVector@W4TeamTypes@@$0DP@$00@@$00@@QBEIXZ ENDP ; BaseVector<CvWeightedVector<enum TeamTypes,63,1>::WeightedElement,1>::size
_TEXT	ENDS
PUBLIC	??0WeightedElement@?$CvWeightedVector@W4TeamTypes@@$0DP@$00@@QAE@XZ ; CvWeightedVector<enum TeamTypes,63,1>::WeightedElement::WeightedElement
; Function compile flags: /Ogtpy
; File c:\users\enormousapplepie\desktop\lekmod dll versions\v31\lekmod_dll\cvgamecoredllutil\include\cvweightedvector.h
;	COMDAT ??0WeightedElement@?$CvWeightedVector@W4TeamTypes@@$0DP@$00@@QAE@XZ
_TEXT	SEGMENT
??0WeightedElement@?$CvWeightedVector@W4TeamTypes@@$0DP@$00@@QAE@XZ PROC ; CvWeightedVector<enum TeamTypes,63,1>::WeightedElement::WeightedElement, COMDAT
; _this$ = ecx

; 31   : 		{

	mov	eax, ecx
	mov	DWORD PTR [eax], 0
	mov	DWORD PTR [eax+4], 0

; 32   : 		}

	ret	0
??0WeightedElement@?$CvWeightedVector@W4TeamTypes@@$0DP@$00@@QAE@XZ ENDP ; CvWeightedVector<enum TeamTypes,63,1>::WeightedElement::WeightedElement
_TEXT	ENDS
PUBLIC	??0?$MultiListNodePolicy@UCvTradedItem@@@@QAE@ABUCvTradedItem@@@Z ; MultiListNodePolicy<CvTradedItem>::MultiListNodePolicy<CvTradedItem>
; Function compile flags: /Ogtpy
; File c:\users\enormousapplepie\desktop\lekmod dll versions\v31\lekmod_dll\fireplace\include\fireworks\ffastlist.h
;	COMDAT ??0?$MultiListNodePolicy@UCvTradedItem@@@@QAE@ABUCvTradedItem@@@Z
_TEXT	SEGMENT
_x$ = 8							; size = 4
??0?$MultiListNodePolicy@UCvTradedItem@@@@QAE@ABUCvTradedItem@@@Z PROC ; MultiListNodePolicy<CvTradedItem>::MultiListNodePolicy<CvTradedItem>, COMDAT
; _this$ = ecx

; 78   : 	MultiListNodePolicy( const T& x ) : data( x ){};

	push	esi
	mov	esi, DWORD PTR _x$[esp]
	push	edi
	mov	eax, ecx
	lea	edi, DWORD PTR [eax+8]
	mov	ecx, 9
	rep movsd
	pop	edi
	pop	esi
	ret	4
??0?$MultiListNodePolicy@UCvTradedItem@@@@QAE@ABUCvTradedItem@@@Z ENDP ; MultiListNodePolicy<CvTradedItem>::MultiListNodePolicy<CvTradedItem>
_TEXT	ENDS
PUBLIC	??A?$BaseVector@U?$MultiListNodePolicy@UCvTradedItem@@@@$0A@@@QAEAAU?$MultiListNodePolicy@UCvTradedItem@@@@I@Z ; BaseVector<MultiListNodePolicy<CvTradedItem>,0>::operator[]
; Function compile flags: /Ogtpy
; File c:\users\enormousapplepie\desktop\lekmod dll versions\v31\lekmod_dll\fireplace\include\fireworks\ffastvector.h
;	COMDAT ??A?$BaseVector@U?$MultiListNodePolicy@UCvTradedItem@@@@$0A@@@QAEAAU?$MultiListNodePolicy@UCvTradedItem@@@@I@Z
_TEXT	SEGMENT
_ui$ = 8						; size = 4
??A?$BaseVector@U?$MultiListNodePolicy@UCvTradedItem@@@@$0A@@@QAEAAU?$MultiListNodePolicy@UCvTradedItem@@@@I@Z PROC ; BaseVector<MultiListNodePolicy<CvTradedItem>,0>::operator[], COMDAT
; _this$ = ecx

; 129  : 		FAssert(ui < m_uiCurrSize);
; 130  : 		return m_pData[ui];

	mov	eax, DWORD PTR _ui$[esp-4]
	imul	eax, 44					; 0000002cH
	add	eax, DWORD PTR [ecx]

; 131  : 	};

	ret	4
??A?$BaseVector@U?$MultiListNodePolicy@UCvTradedItem@@@@$0A@@@QAEAAU?$MultiListNodePolicy@UCvTradedItem@@@@I@Z ENDP ; BaseVector<MultiListNodePolicy<CvTradedItem>,0>::operator[]
_TEXT	ENDS
PUBLIC	??A?$BaseVector@U?$MultiListNodePolicy@UCvTradedItem@@@@$0A@@@QBEABU?$MultiListNodePolicy@UCvTradedItem@@@@I@Z ; BaseVector<MultiListNodePolicy<CvTradedItem>,0>::operator[]
; Function compile flags: /Ogtpy
;	COMDAT ??A?$BaseVector@U?$MultiListNodePolicy@UCvTradedItem@@@@$0A@@@QBEABU?$MultiListNodePolicy@UCvTradedItem@@@@I@Z
_TEXT	SEGMENT
_ui$ = 8						; size = 4
??A?$BaseVector@U?$MultiListNodePolicy@UCvTradedItem@@@@$0A@@@QBEABU?$MultiListNodePolicy@UCvTradedItem@@@@I@Z PROC ; BaseVector<MultiListNodePolicy<CvTradedItem>,0>::operator[], COMDAT
; _this$ = ecx

; 135  : 		FAssert(ui < m_uiCurrSize);
; 136  : 		return m_pData[ui];

	mov	eax, DWORD PTR _ui$[esp-4]
	imul	eax, 44					; 0000002cH
	add	eax, DWORD PTR [ecx]

; 137  : 	};

	ret	4
??A?$BaseVector@U?$MultiListNodePolicy@UCvTradedItem@@@@$0A@@@QBEABU?$MultiListNodePolicy@UCvTradedItem@@@@I@Z ENDP ; BaseVector<MultiListNodePolicy<CvTradedItem>,0>::operator[]
_TEXT	ENDS
PUBLIC	?LIST_GetNext@NullMultiListNodePolicy@@QBEIXZ	; NullMultiListNodePolicy::LIST_GetNext
; Function compile flags: /Ogtpy
; File c:\users\enormousapplepie\desktop\lekmod dll versions\v31\lekmod_dll\fireplace\include\fireworks\ffastlist.h
;	COMDAT ?LIST_GetNext@NullMultiListNodePolicy@@QBEIXZ
_TEXT	SEGMENT
?LIST_GetNext@NullMultiListNodePolicy@@QBEIXZ PROC	; NullMultiListNodePolicy::LIST_GetNext, COMDAT
; _this$ = ecx

; 62   : 	unsigned int LIST_GetNext() const{ return node.uiNext; };

	mov	eax, DWORD PTR [ecx]
	ret	0
?LIST_GetNext@NullMultiListNodePolicy@@QBEIXZ ENDP	; NullMultiListNodePolicy::LIST_GetNext
_TEXT	ENDS
PUBLIC	?LIST_GetPrev@NullMultiListNodePolicy@@QBEIXZ	; NullMultiListNodePolicy::LIST_GetPrev
; Function compile flags: /Ogtpy
;	COMDAT ?LIST_GetPrev@NullMultiListNodePolicy@@QBEIXZ
_TEXT	SEGMENT
?LIST_GetPrev@NullMultiListNodePolicy@@QBEIXZ PROC	; NullMultiListNodePolicy::LIST_GetPrev, COMDAT
; _this$ = ecx

; 63   : 	unsigned int LIST_GetPrev() const{ return node.uiPrev; };

	mov	eax, DWORD PTR [ecx+4]
	and	eax, 2147483647				; 7fffffffH
	ret	0
?LIST_GetPrev@NullMultiListNodePolicy@@QBEIXZ ENDP	; NullMultiListNodePolicy::LIST_GetPrev
_TEXT	ENDS
PUBLIC	?LIST_SetNext@NullMultiListNodePolicy@@QAEXI@Z	; NullMultiListNodePolicy::LIST_SetNext
; Function compile flags: /Ogtpy
;	COMDAT ?LIST_SetNext@NullMultiListNodePolicy@@QAEXI@Z
_TEXT	SEGMENT
_uiNodeIndex$ = 8					; size = 4
?LIST_SetNext@NullMultiListNodePolicy@@QAEXI@Z PROC	; NullMultiListNodePolicy::LIST_SetNext, COMDAT
; _this$ = ecx

; 64   : 	void LIST_SetNext(unsigned int uiNodeIndex){ node.uiNext = uiNodeIndex; };

	mov	eax, DWORD PTR _uiNodeIndex$[esp-4]
	mov	DWORD PTR [ecx], eax
	ret	4
?LIST_SetNext@NullMultiListNodePolicy@@QAEXI@Z ENDP	; NullMultiListNodePolicy::LIST_SetNext
_TEXT	ENDS
PUBLIC	?LIST_SetPrev@NullMultiListNodePolicy@@QAEXI@Z	; NullMultiListNodePolicy::LIST_SetPrev
; Function compile flags: /Ogtpy
;	COMDAT ?LIST_SetPrev@NullMultiListNodePolicy@@QAEXI@Z
_TEXT	SEGMENT
_uiNodeIndex$ = 8					; size = 4
?LIST_SetPrev@NullMultiListNodePolicy@@QAEXI@Z PROC	; NullMultiListNodePolicy::LIST_SetPrev, COMDAT
; _this$ = ecx

; 65   : 	void LIST_SetPrev(unsigned int uiNodeIndex){ node.uiPrev = uiNodeIndex; };

	mov	eax, DWORD PTR [ecx+4]
	xor	eax, DWORD PTR _uiNodeIndex$[esp-4]
	and	eax, 2147483647				; 7fffffffH
	xor	DWORD PTR [ecx+4], eax
	ret	4
?LIST_SetPrev@NullMultiListNodePolicy@@QAEXI@Z ENDP	; NullMultiListNodePolicy::LIST_SetPrev
_TEXT	ENDS
PUBLIC	__TI3?AVlength_error@std@@
PUBLIC	??_C@_0BD@OLBABOEK@vector?$DMT?$DO?5too?5long?$AA@ ; `string'
PUBLIC	?_Xlen@?$vector@U?$pair@IPAVCvDeal@@@std@@V?$allocator@U?$pair@IPAVCvDeal@@@std@@@2@@std@@KAXXZ ; std::vector<std::pair<unsigned int,CvDeal *>,std::allocator<std::pair<unsigned int,CvDeal *> > >::_Xlen
PUBLIC	__CTA3?AVlength_error@std@@
PUBLIC	__CT??_R0?AVlength_error@std@@@8??0length_error@std@@QAE@ABV01@@Z40
PUBLIC	??0length_error@std@@QAE@ABV01@@Z		; std::length_error::length_error
PUBLIC	__CT??_R0?AVlogic_error@std@@@8??0logic_error@std@@QAE@ABV01@@Z40
PUBLIC	??0logic_error@std@@QAE@ABV01@@Z		; std::logic_error::logic_error
PUBLIC	__CT??_R0?AVexception@std@@@8??0exception@std@@QAE@ABV01@@Z12
EXTRN	__imp_??0?$basic_string@DU?$char_traits@D@std@@V?$allocator@D@2@@std@@QAE@PBD@Z:PROC
EXTRN	__CxxThrowException@8:PROC
EXTRN	??0exception@std@@QAE@ABV01@@Z:PROC		; std::exception::exception
;	COMDAT __CT??_R0?AVexception@std@@@8??0exception@std@@QAE@ABV01@@Z12
; File c:\program files (x86)\microsoft visual studio 9.0\vc\include\stdexcept
xdata$x	SEGMENT
__CT??_R0?AVexception@std@@@8??0exception@std@@QAE@ABV01@@Z12 DD 00H
	DD	FLAT:??_R0?AVexception@std@@@8
	DD	00H
	DD	0ffffffffH
	ORG $+4
	DD	0cH
	DD	FLAT:??0exception@std@@QAE@ABV01@@Z
xdata$x	ENDS
;	COMDAT __CT??_R0?AVlogic_error@std@@@8??0logic_error@std@@QAE@ABV01@@Z40
xdata$x	SEGMENT
__CT??_R0?AVlogic_error@std@@@8??0logic_error@std@@QAE@ABV01@@Z40 DD 00H
	DD	FLAT:??_R0?AVlogic_error@std@@@8
	DD	00H
	DD	0ffffffffH
	ORG $+4
	DD	028H
	DD	FLAT:??0logic_error@std@@QAE@ABV01@@Z
xdata$x	ENDS
;	COMDAT __CT??_R0?AVlength_error@std@@@8??0length_error@std@@QAE@ABV01@@Z40
xdata$x	SEGMENT
__CT??_R0?AVlength_error@std@@@8??0length_error@std@@QAE@ABV01@@Z40 DD 00H
	DD	FLAT:??_R0?AVlength_error@std@@@8
	DD	00H
	DD	0ffffffffH
	ORG $+4
	DD	028H
	DD	FLAT:??0length_error@std@@QAE@ABV01@@Z
xdata$x	ENDS
;	COMDAT __CTA3?AVlength_error@std@@
xdata$x	SEGMENT
__CTA3?AVlength_error@std@@ DD 03H
	DD	FLAT:__CT??_R0?AVlength_error@std@@@8??0length_error@std@@QAE@ABV01@@Z40
	DD	FLAT:__CT??_R0?AVlogic_error@std@@@8??0logic_error@std@@QAE@ABV01@@Z40
	DD	FLAT:__CT??_R0?AVexception@std@@@8??0exception@std@@QAE@ABV01@@Z12
xdata$x	ENDS
;	COMDAT __TI3?AVlength_error@std@@
xdata$x	SEGMENT
__TI3?AVlength_error@std@@ DD 00H
	DD	FLAT:??1length_error@std@@UAE@XZ
	DD	00H
	DD	FLAT:__CTA3?AVlength_error@std@@
xdata$x	ENDS
;	COMDAT ??_C@_0BD@OLBABOEK@vector?$DMT?$DO?5too?5long?$AA@
CONST	SEGMENT
??_C@_0BD@OLBABOEK@vector?$DMT?$DO?5too?5long?$AA@ DB 'vector<T> too long'
	DB	00H						; `string'
CONST	ENDS
;	COMDAT xdata$x
xdata$x	SEGMENT
__unwindtable$?_Xlen@?$vector@U?$pair@IPAVCvDeal@@@std@@V?$allocator@U?$pair@IPAVCvDeal@@@std@@@2@@std@@KAXXZ DD 0ffffffffH
	DD	FLAT:__unwindfunclet$?_Xlen@?$vector@U?$pair@IPAVCvDeal@@@std@@V?$allocator@U?$pair@IPAVCvDeal@@@std@@@2@@std@@KAXXZ$0
	DD	00H
	DD	FLAT:__unwindfunclet$?_Xlen@?$vector@U?$pair@IPAVCvDeal@@@std@@V?$allocator@U?$pair@IPAVCvDeal@@@std@@@2@@std@@KAXXZ$2
__ehfuncinfo$?_Xlen@?$vector@U?$pair@IPAVCvDeal@@@std@@V?$allocator@U?$pair@IPAVCvDeal@@@std@@@2@@std@@KAXXZ DD 019930522H
	DD	02H
	DD	FLAT:__unwindtable$?_Xlen@?$vector@U?$pair@IPAVCvDeal@@@std@@V?$allocator@U?$pair@IPAVCvDeal@@@std@@@2@@std@@KAXXZ
	DD	2 DUP(00H)
	DD	2 DUP(00H)
	DD	00H
	DD	01H
; Function compile flags: /Ogtpy
; File c:\program files (x86)\microsoft visual studio 9.0\vc\include\vector
xdata$x	ENDS
;	COMDAT ?_Xlen@?$vector@U?$pair@IPAVCvDeal@@@std@@V?$allocator@U?$pair@IPAVCvDeal@@@std@@@2@@std@@KAXXZ
_TEXT	SEGMENT
$T225462 = -80						; size = 28
$T225461 = -52						; size = 40
__$EHRec$ = -12						; size = 12
?_Xlen@?$vector@U?$pair@IPAVCvDeal@@@std@@V?$allocator@U?$pair@IPAVCvDeal@@@std@@@2@@std@@KAXXZ PROC ; std::vector<std::pair<unsigned int,CvDeal *>,std::allocator<std::pair<unsigned int,CvDeal *> > >::_Xlen, COMDAT

; 1259 : 		{	// report a length_error

	push	-1
	push	__ehhandler$?_Xlen@?$vector@U?$pair@IPAVCvDeal@@@std@@V?$allocator@U?$pair@IPAVCvDeal@@@std@@@2@@std@@KAXXZ
	mov	eax, DWORD PTR fs:0
	push	eax
	mov	DWORD PTR fs:0, esp
	sub	esp, 68					; 00000044H

; 1260 : 		_THROW(length_error, "vector<T> too long");

	push	OFFSET ??_C@_0BD@OLBABOEK@vector?$DMT?$DO?5too?5long?$AA@
	lea	ecx, DWORD PTR $T225462[esp+84]
	call	DWORD PTR __imp_??0?$basic_string@DU?$char_traits@D@std@@V?$allocator@D@2@@std@@QAE@PBD@Z
	lea	ecx, DWORD PTR $T225461[esp+80]
	mov	DWORD PTR __$EHRec$[esp+88], 0
	call	DWORD PTR __imp_??0exception@std@@QAE@XZ
	lea	eax, DWORD PTR $T225462[esp+80]
	push	eax
	lea	ecx, DWORD PTR $T225461[esp+96]
	mov	BYTE PTR __$EHRec$[esp+92], 1
	mov	DWORD PTR $T225461[esp+84], OFFSET ??_7logic_error@std@@6B@
	call	DWORD PTR __imp_??0?$basic_string@DU?$char_traits@D@std@@V?$allocator@D@2@@std@@QAE@ABV01@@Z
	push	OFFSET __TI3?AVlength_error@std@@
	lea	ecx, DWORD PTR $T225461[esp+84]
	push	ecx
	mov	BYTE PTR __$EHRec$[esp+96], 0
	mov	DWORD PTR $T225461[esp+88], OFFSET ??_7length_error@std@@6B@
	call	__CxxThrowException@8
$LN13@Xlen:
$LN12@Xlen:
	int	3
_TEXT	ENDS
;	COMDAT text$x
text$x	SEGMENT
__unwindfunclet$?_Xlen@?$vector@U?$pair@IPAVCvDeal@@@std@@V?$allocator@U?$pair@IPAVCvDeal@@@std@@@2@@std@@KAXXZ$0:
	lea	ecx, DWORD PTR $T225462[ebp]
	jmp	DWORD PTR __imp_??1?$basic_string@DU?$char_traits@D@std@@V?$allocator@D@2@@std@@QAE@XZ
__unwindfunclet$?_Xlen@?$vector@U?$pair@IPAVCvDeal@@@std@@V?$allocator@U?$pair@IPAVCvDeal@@@std@@@2@@std@@KAXXZ$2:
	lea	ecx, DWORD PTR $T225461[ebp]
	jmp	DWORD PTR __imp_??1exception@std@@UAE@XZ
__ehhandler$?_Xlen@?$vector@U?$pair@IPAVCvDeal@@@std@@V?$allocator@U?$pair@IPAVCvDeal@@@std@@@2@@std@@KAXXZ:
	mov	eax, OFFSET __ehfuncinfo$?_Xlen@?$vector@U?$pair@IPAVCvDeal@@@std@@V?$allocator@U?$pair@IPAVCvDeal@@@std@@@2@@std@@KAXXZ
	jmp	___CxxFrameHandler3
text$x	ENDS
?_Xlen@?$vector@U?$pair@IPAVCvDeal@@@std@@V?$allocator@U?$pair@IPAVCvDeal@@@std@@@2@@std@@KAXXZ ENDP ; std::vector<std::pair<unsigned int,CvDeal *>,std::allocator<std::pair<unsigned int,CvDeal *> > >::_Xlen
PUBLIC	?LIST_GetDeleted@NullMultiListNodePolicy@@QBE_NXZ ; NullMultiListNodePolicy::LIST_GetDeleted
; Function compile flags: /Ogtpy
; File c:\users\enormousapplepie\desktop\lekmod dll versions\v31\lekmod_dll\fireplace\include\fireworks\ffastlist.h
;	COMDAT ?LIST_GetDeleted@NullMultiListNodePolicy@@QBE_NXZ
_TEXT	SEGMENT
?LIST_GetDeleted@NullMultiListNodePolicy@@QBE_NXZ PROC	; NullMultiListNodePolicy::LIST_GetDeleted, COMDAT
; _this$ = ecx

; 66   : 	bool LIST_GetDeleted() const{ return !node.bValid; };

	mov	eax, DWORD PTR [ecx+4]
	shr	eax, 31					; 0000001fH
	not	eax
	and	eax, 1
	ret	0
?LIST_GetDeleted@NullMultiListNodePolicy@@QBE_NXZ ENDP	; NullMultiListNodePolicy::LIST_GetDeleted
_TEXT	ENDS
PUBLIC	?LIST_SetDeleted@NullMultiListNodePolicy@@QAEX_N@Z ; NullMultiListNodePolicy::LIST_SetDeleted
; Function compile flags: /Ogtpy
;	COMDAT ?LIST_SetDeleted@NullMultiListNodePolicy@@QAEX_N@Z
_TEXT	SEGMENT
_bDeleted$ = 8						; size = 1
?LIST_SetDeleted@NullMultiListNodePolicy@@QAEX_N@Z PROC	; NullMultiListNodePolicy::LIST_SetDeleted, COMDAT
; _this$ = ecx

; 67   : 	void LIST_SetDeleted(bool bDeleted){ node.bValid = !bDeleted; };

	mov	edx, DWORD PTR [ecx+4]
	xor	eax, eax
	cmp	BYTE PTR _bDeleted$[esp-4], al
	sete	al
	and	edx, 2147483647				; 7fffffffH
	shl	eax, 31					; 0000001fH
	or	eax, edx
	mov	DWORD PTR [ecx+4], eax
	ret	4
?LIST_SetDeleted@NullMultiListNodePolicy@@QAEX_N@Z ENDP	; NullMultiListNodePolicy::LIST_SetDeleted
_TEXT	ENDS
PUBLIC	??0?$_Container_base_aux_alloc_empty@V?$allocator@U?$pair@IPAVCvDeal@@@std@@@std@@@std@@IAE@V?$allocator@U?$pair@IPAVCvDeal@@@std@@@1@@Z ; std::_Container_base_aux_alloc_empty<std::allocator<std::pair<unsigned int,CvDeal *> > >::_Container_base_aux_alloc_empty<std::allocator<std::pair<unsigned int,CvDeal *> > >
; Function compile flags: /Ogtpy
; File c:\program files (x86)\microsoft visual studio 9.0\vc\include\xutility
;	COMDAT ??0?$_Container_base_aux_alloc_empty@V?$allocator@U?$pair@IPAVCvDeal@@@std@@@std@@@std@@IAE@V?$allocator@U?$pair@IPAVCvDeal@@@std@@@1@@Z
_TEXT	SEGMENT
___formal$ = 8						; size = 1
??0?$_Container_base_aux_alloc_empty@V?$allocator@U?$pair@IPAVCvDeal@@@std@@@std@@@std@@IAE@V?$allocator@U?$pair@IPAVCvDeal@@@std@@@1@@Z PROC ; std::_Container_base_aux_alloc_empty<std::allocator<std::pair<unsigned int,CvDeal *> > >::_Container_base_aux_alloc_empty<std::allocator<std::pair<unsigned int,CvDeal *> > >, COMDAT
; _this$ = ecx

; 618  : 	explicit _Container_base_aux_alloc_empty(_Alloc) { }

	mov	eax, ecx
	ret	4
??0?$_Container_base_aux_alloc_empty@V?$allocator@U?$pair@IPAVCvDeal@@@std@@@std@@@std@@IAE@V?$allocator@U?$pair@IPAVCvDeal@@@std@@@1@@Z ENDP ; std::_Container_base_aux_alloc_empty<std::allocator<std::pair<unsigned int,CvDeal *> > >::_Container_base_aux_alloc_empty<std::allocator<std::pair<unsigned int,CvDeal *> > >
_TEXT	ENDS
PUBLIC	?ALLOC_GetNext@NullMultiListNodePolicy@@QBEIXZ	; NullMultiListNodePolicy::ALLOC_GetNext
; Function compile flags: /Ogtpy
; File c:\users\enormousapplepie\desktop\lekmod dll versions\v31\lekmod_dll\fireplace\include\fireworks\ffastlist.h
;	COMDAT ?ALLOC_GetNext@NullMultiListNodePolicy@@QBEIXZ
_TEXT	SEGMENT
?ALLOC_GetNext@NullMultiListNodePolicy@@QBEIXZ PROC	; NullMultiListNodePolicy::ALLOC_GetNext, COMDAT
; _this$ = ecx

; 70   : 	unsigned int ALLOC_GetNext() const{ return node.uiNext; };

	mov	eax, DWORD PTR [ecx]
	ret	0
?ALLOC_GetNext@NullMultiListNodePolicy@@QBEIXZ ENDP	; NullMultiListNodePolicy::ALLOC_GetNext
_TEXT	ENDS
PUBLIC	??0?$allocator@U?$pair@IPAVCvDeal@@@std@@@std@@QAE@ABV01@@Z ; std::allocator<std::pair<unsigned int,CvDeal *> >::allocator<std::pair<unsigned int,CvDeal *> >
; Function compile flags: /Ogtpy
; File c:\program files (x86)\microsoft visual studio 9.0\vc\include\xmemory
;	COMDAT ??0?$allocator@U?$pair@IPAVCvDeal@@@std@@@std@@QAE@ABV01@@Z
_TEXT	SEGMENT
___formal$ = 8						; size = 4
??0?$allocator@U?$pair@IPAVCvDeal@@@std@@@std@@QAE@ABV01@@Z PROC ; std::allocator<std::pair<unsigned int,CvDeal *> >::allocator<std::pair<unsigned int,CvDeal *> >, COMDAT
; _this$ = ecx

; 123  : 	allocator(const allocator<_Ty>&) _THROW0()

	mov	eax, ecx

; 124  : 		{	// construct by copying (do nothing)
; 125  : 		}

	ret	4
??0?$allocator@U?$pair@IPAVCvDeal@@@std@@@std@@QAE@ABV01@@Z ENDP ; std::allocator<std::pair<unsigned int,CvDeal *> >::allocator<std::pair<unsigned int,CvDeal *> >
_TEXT	ENDS
PUBLIC	?ALLOC_SetNext@NullMultiListNodePolicy@@QAEXI@Z	; NullMultiListNodePolicy::ALLOC_SetNext
; Function compile flags: /Ogtpy
; File c:\users\enormousapplepie\desktop\lekmod dll versions\v31\lekmod_dll\fireplace\include\fireworks\ffastlist.h
;	COMDAT ?ALLOC_SetNext@NullMultiListNodePolicy@@QAEXI@Z
_TEXT	SEGMENT
_uiNodeIndex$ = 8					; size = 4
?ALLOC_SetNext@NullMultiListNodePolicy@@QAEXI@Z PROC	; NullMultiListNodePolicy::ALLOC_SetNext, COMDAT
; _this$ = ecx

; 71   : 	void ALLOC_SetNext(unsigned int uiNodeIndex){ node.uiNext = uiNodeIndex; };

	mov	eax, DWORD PTR _uiNodeIndex$[esp-4]
	mov	DWORD PTR [ecx], eax
	ret	4
?ALLOC_SetNext@NullMultiListNodePolicy@@QAEXI@Z ENDP	; NullMultiListNodePolicy::ALLOC_SetNext
_TEXT	ENDS
PUBLIC	?deallocate@?$allocator@U?$pair@IPAVCvDeal@@@std@@@std@@QAEXPAU?$pair@IPAVCvDeal@@@2@I@Z ; std::allocator<std::pair<unsigned int,CvDeal *> >::deallocate
; Function compile flags: /Ogtpy
; File c:\program files (x86)\microsoft visual studio 9.0\vc\include\xmemory
;	COMDAT ?deallocate@?$allocator@U?$pair@IPAVCvDeal@@@std@@@std@@QAEXPAU?$pair@IPAVCvDeal@@@2@I@Z
_TEXT	SEGMENT
__Ptr$ = 8						; size = 4
___formal$ = 12						; size = 4
?deallocate@?$allocator@U?$pair@IPAVCvDeal@@@std@@@std@@QAEXPAU?$pair@IPAVCvDeal@@@2@I@Z PROC ; std::allocator<std::pair<unsigned int,CvDeal *> >::deallocate, COMDAT
; _this$ = ecx

; 140  : 		::operator delete(_Ptr);

	mov	eax, DWORD PTR __Ptr$[esp-4]
	push	eax
	call	??3@YAXPAX@Z				; operator delete
	pop	ecx

; 141  : 		}

	ret	8
?deallocate@?$allocator@U?$pair@IPAVCvDeal@@@std@@@std@@QAEXPAU?$pair@IPAVCvDeal@@@2@I@Z ENDP ; std::allocator<std::pair<unsigned int,CvDeal *> >::deallocate
_TEXT	ENDS
PUBLIC	?ALLOC_GetDeleted@NullMultiListNodePolicy@@QBE_NXZ ; NullMultiListNodePolicy::ALLOC_GetDeleted
; Function compile flags: /Ogtpy
; File c:\users\enormousapplepie\desktop\lekmod dll versions\v31\lekmod_dll\fireplace\include\fireworks\ffastlist.h
;	COMDAT ?ALLOC_GetDeleted@NullMultiListNodePolicy@@QBE_NXZ
_TEXT	SEGMENT
?ALLOC_GetDeleted@NullMultiListNodePolicy@@QBE_NXZ PROC	; NullMultiListNodePolicy::ALLOC_GetDeleted, COMDAT
; _this$ = ecx

; 72   : 	bool ALLOC_GetDeleted() const{ return LIST_GetDeleted(); };

	mov	eax, DWORD PTR [ecx+4]
	shr	eax, 31					; 0000001fH
	not	eax
	and	eax, 1
	ret	0
?ALLOC_GetDeleted@NullMultiListNodePolicy@@QBE_NXZ ENDP	; NullMultiListNodePolicy::ALLOC_GetDeleted
_TEXT	ENDS
PUBLIC	?ALLOC_SetDeleted@NullMultiListNodePolicy@@QAEX_N@Z ; NullMultiListNodePolicy::ALLOC_SetDeleted
; Function compile flags: /Ogtpy
;	COMDAT ?ALLOC_SetDeleted@NullMultiListNodePolicy@@QAEX_N@Z
_TEXT	SEGMENT
_bDeleted$ = 8						; size = 1
?ALLOC_SetDeleted@NullMultiListNodePolicy@@QAEX_N@Z PROC ; NullMultiListNodePolicy::ALLOC_SetDeleted, COMDAT
; _this$ = ecx

; 73   : 	void ALLOC_SetDeleted(bool bDeleted){ LIST_SetDeleted( bDeleted ); };

	mov	edx, DWORD PTR [ecx+4]
	xor	eax, eax
	cmp	BYTE PTR _bDeleted$[esp-4], al
	sete	al
	and	edx, 2147483647				; 7fffffffH
	shl	eax, 31					; 0000001fH
	or	eax, edx
	mov	DWORD PTR [ecx+4], eax
	ret	4
?ALLOC_SetDeleted@NullMultiListNodePolicy@@QAEX_N@Z ENDP ; NullMultiListNodePolicy::ALLOC_SetDeleted
_TEXT	ENDS
PUBLIC	??1?$base_iterator@Vbase_iterator_tail_const@?$FCustomList_Core@U?$MultiListNodePolicy@UCvTradedItem@@@@V?$FFastAllocator@U?$MultiListNodePolicy@UCvTradedItem@@@@$0A@$0BF@$0A@UFDefaultFastVectorAllocator@?$BaseVector@U?$MultiListNodePolicy@UCvTradedItem@@@@$0A@@@@@V?$FCustomList_Tail_Member@V?$FFastAllocator@U?$MultiListNodePolicy@UCvTradedItem@@@@$0A@$0BF@$0A@UFDefaultFastVectorAllocator@?$BaseVector@U?$MultiListNodePolicy@UCvTradedItem@@@@$0A@@@@@@@@@@?$FCustomList_Core@U?$MultiListNodePolicy@UCvTradedItem@@@@V?$FFastAllocator@U?$MultiListNodePolicy@UCvTradedItem@@@@$0A@$0BF@$0A@UFDefaultFastVectorAllocator@?$BaseVector@U?$MultiListNodePolicy@UCvTradedItem@@@@$0A@@@@@V?$FCustomList_Tail_Member@V?$FFastAllocator@U?$MultiListNodePolicy@UCvTradedItem@@@@$0A@$0BF@$0A@UFDefaultFastVectorAllocator@?$BaseVector@U?$MultiListNodePolicy@UCvTradedItem@@@@$0A@@@@@@@@@QAE@XZ ; FCustomList_Core<MultiListNodePolicy<CvTradedItem>,FFastAllocator<MultiListNodePolicy<CvTradedItem>,0,21,0,BaseVector<MultiListNodePolicy<CvTradedItem>,0>::FDefaultFastVectorAllocator>,FCustomList_Tail_Member<FFastAllocator<MultiListNodePolicy<CvTradedItem>,0,21,0,BaseVector<MultiListNodePolicy<CvTradedItem>,0>::FDefaultFastVectorAllocator> > >::base_iterator<FCustomList_Core<MultiListNodePolicy<CvTradedItem>,FFastAllocator<MultiListNodePolicy<CvTradedItem>,0,21,0,BaseVector<MultiListNodePolicy<CvTradedItem>,0>::FDefaultFastVectorAllocator>,FCustomList_Tail_Member<FFastAllocator<MultiListNodePolicy<CvTradedItem>,0,21,0,BaseVector<MultiListNodePolicy<CvTradedItem>,0>::FDefaultFastVectorAllocator> > >::base_iterator_tail_const>::~base_iterator<FCustomList_Core<MultiListNodePolicy<CvTradedItem>,FFastAllocator<MultiListNodePolicy<CvTradedItem>,0,21,0,BaseVector<MultiListNodePolicy<CvTradedItem>,0>::FDefaultFastVectorAllocator>,FCustomList_Tail_Member<FFastAllocator<MultiListNodePolicy<CvTradedItem>,0,21,0,BaseVector<MultiListNodePolicy<CvTradedItem>,0>::FDefaultFastVectorAllocator> > >::base_iterator_tail_const>
; Function compile flags: /Ogtpy
;	COMDAT ??1?$base_iterator@Vbase_iterator_tail_const@?$FCustomList_Core@U?$MultiListNodePolicy@UCvTradedItem@@@@V?$FFastAllocator@U?$MultiListNodePolicy@UCvTradedItem@@@@$0A@$0BF@$0A@UFDefaultFastVectorAllocator@?$BaseVector@U?$MultiListNodePolicy@UCvTradedItem@@@@$0A@@@@@V?$FCustomList_Tail_Member@V?$FFastAllocator@U?$MultiListNodePolicy@UCvTradedItem@@@@$0A@$0BF@$0A@UFDefaultFastVectorAllocator@?$BaseVector@U?$MultiListNodePolicy@UCvTradedItem@@@@$0A@@@@@@@@@@?$FCustomList_Core@U?$MultiListNodePolicy@UCvTradedItem@@@@V?$FFastAllocator@U?$MultiListNodePolicy@UCvTradedItem@@@@$0A@$0BF@$0A@UFDefaultFastVectorAllocator@?$BaseVector@U?$MultiListNodePolicy@UCvTradedItem@@@@$0A@@@@@V?$FCustomList_Tail_Member@V?$FFastAllocator@U?$MultiListNodePolicy@UCvTradedItem@@@@$0A@$0BF@$0A@UFDefaultFastVectorAllocator@?$BaseVector@U?$MultiListNodePolicy@UCvTradedItem@@@@$0A@@@@@@@@@QAE@XZ
_TEXT	SEGMENT
??1?$base_iterator@Vbase_iterator_tail_const@?$FCustomList_Core@U?$MultiListNodePolicy@UCvTradedItem@@@@V?$FFastAllocator@U?$MultiListNodePolicy@UCvTradedItem@@@@$0A@$0BF@$0A@UFDefaultFastVectorAllocator@?$BaseVector@U?$MultiListNodePolicy@UCvTradedItem@@@@$0A@@@@@V?$FCustomList_Tail_Member@V?$FFastAllocator@U?$MultiListNodePolicy@UCvTradedItem@@@@$0A@$0BF@$0A@UFDefaultFastVectorAllocator@?$BaseVector@U?$MultiListNodePolicy@UCvTradedItem@@@@$0A@@@@@@@@@@?$FCustomList_Core@U?$MultiListNodePolicy@UCvTradedItem@@@@V?$FFastAllocator@U?$MultiListNodePolicy@UCvTradedItem@@@@$0A@$0BF@$0A@UFDefaultFastVectorAllocator@?$BaseVector@U?$MultiListNodePolicy@UCvTradedItem@@@@$0A@@@@@V?$FCustomList_Tail_Member@V?$FFastAllocator@U?$MultiListNodePolicy@UCvTradedItem@@@@$0A@$0BF@$0A@UFDefaultFastVectorAllocator@?$BaseVector@U?$MultiListNodePolicy@UCvTradedItem@@@@$0A@@@@@@@@@QAE@XZ PROC ; FCustomList_Core<MultiListNodePolicy<CvTradedItem>,FFastAllocator<MultiListNodePolicy<CvTradedItem>,0,21,0,BaseVector<MultiListNodePolicy<CvTradedItem>,0>::FDefaultFastVectorAllocator>,FCustomList_Tail_Member<FFastAllocator<MultiListNodePolicy<CvTradedItem>,0,21,0,BaseVector<MultiListNodePolicy<CvTradedItem>,0>::FDefaultFastVectorAllocator> > >::base_iterator<FCustomList_Core<MultiListNodePolicy<CvTradedItem>,FFastAllocator<MultiListNodePolicy<CvTradedItem>,0,21,0,BaseVector<MultiListNodePolicy<CvTradedItem>,0>::FDefaultFastVectorAllocator>,FCustomList_Tail_Member<FFastAllocator<MultiListNodePolicy<CvTradedItem>,0,21,0,BaseVector<MultiListNodePolicy<CvTradedItem>,0>::FDefaultFastVectorAllocator> > >::base_iterator_tail_const>::~base_iterator<FCustomList_Core<MultiListNodePolicy<CvTradedItem>,FFastAllocator<MultiListNodePolicy<CvTradedItem>,0,21,0,BaseVector<MultiListNodePolicy<CvTradedItem>,0>::FDefaultFastVectorAllocator>,FCustomList_Tail_Member<FFastAllocator<MultiListNodePolicy<CvTradedItem>,0,21,0,BaseVector<MultiListNodePolicy<CvTradedItem>,0>::FDefaultFastVectorAllocator> > >::base_iterator_tail_const>, COMDAT
; _this$ = ecx

; 299  : 		~base_iterator(){};

	ret	0
??1?$base_iterator@Vbase_iterator_tail_const@?$FCustomList_Core@U?$MultiListNodePolicy@UCvTradedItem@@@@V?$FFastAllocator@U?$MultiListNodePolicy@UCvTradedItem@@@@$0A@$0BF@$0A@UFDefaultFastVectorAllocator@?$BaseVector@U?$MultiListNodePolicy@UCvTradedItem@@@@$0A@@@@@V?$FCustomList_Tail_Member@V?$FFastAllocator@U?$MultiListNodePolicy@UCvTradedItem@@@@$0A@$0BF@$0A@UFDefaultFastVectorAllocator@?$BaseVector@U?$MultiListNodePolicy@UCvTradedItem@@@@$0A@@@@@@@@@@?$FCustomList_Core@U?$MultiListNodePolicy@UCvTradedItem@@@@V?$FFastAllocator@U?$MultiListNodePolicy@UCvTradedItem@@@@$0A@$0BF@$0A@UFDefaultFastVectorAllocator@?$BaseVector@U?$MultiListNodePolicy@UCvTradedItem@@@@$0A@@@@@V?$FCustomList_Tail_Member@V?$FFastAllocator@U?$MultiListNodePolicy@UCvTradedItem@@@@$0A@$0BF@$0A@UFDefaultFastVectorAllocator@?$BaseVector@U?$MultiListNodePolicy@UCvTradedItem@@@@$0A@@@@@@@@@QAE@XZ ENDP ; FCustomList_Core<MultiListNodePolicy<CvTradedItem>,FFastAllocator<MultiListNodePolicy<CvTradedItem>,0,21,0,BaseVector<MultiListNodePolicy<CvTradedItem>,0>::FDefaultFastVectorAllocator>,FCustomList_Tail_Member<FFastAllocator<MultiListNodePolicy<CvTradedItem>,0,21,0,BaseVector<MultiListNodePolicy<CvTradedItem>,0>::FDefaultFastVectorAllocator> > >::base_iterator<FCustomList_Core<MultiListNodePolicy<CvTradedItem>,FFastAllocator<MultiListNodePolicy<CvTradedItem>,0,21,0,BaseVector<MultiListNodePolicy<CvTradedItem>,0>::FDefaultFastVectorAllocator>,FCustomList_Tail_Member<FFastAllocator<MultiListNodePolicy<CvTradedItem>,0,21,0,BaseVector<MultiListNodePolicy<CvTradedItem>,0>::FDefaultFastVectorAllocator> > >::base_iterator_tail_const>::~base_iterator<FCustomList_Core<MultiListNodePolicy<CvTradedItem>,FFastAllocator<MultiListNodePolicy<CvTradedItem>,0,21,0,BaseVector<MultiListNodePolicy<CvTradedItem>,0>::FDefaultFastVectorAllocator>,FCustomList_Tail_Member<FFastAllocator<MultiListNodePolicy<CvTradedItem>,0,21,0,BaseVector<MultiListNodePolicy<CvTradedItem>,0>::FDefaultFastVectorAllocator> > >::base_iterator_tail_const>
_TEXT	ENDS
PUBLIC	??1?$base_iterator@Vbase_iterator_tail@?$FCustomList_Core@U?$MultiListNodePolicy@UCvTradedItem@@@@V?$FFastAllocator@U?$MultiListNodePolicy@UCvTradedItem@@@@$0A@$0BF@$0A@UFDefaultFastVectorAllocator@?$BaseVector@U?$MultiListNodePolicy@UCvTradedItem@@@@$0A@@@@@V?$FCustomList_Tail_Member@V?$FFastAllocator@U?$MultiListNodePolicy@UCvTradedItem@@@@$0A@$0BF@$0A@UFDefaultFastVectorAllocator@?$BaseVector@U?$MultiListNodePolicy@UCvTradedItem@@@@$0A@@@@@@@@@@?$FCustomList_Core@U?$MultiListNodePolicy@UCvTradedItem@@@@V?$FFastAllocator@U?$MultiListNodePolicy@UCvTradedItem@@@@$0A@$0BF@$0A@UFDefaultFastVectorAllocator@?$BaseVector@U?$MultiListNodePolicy@UCvTradedItem@@@@$0A@@@@@V?$FCustomList_Tail_Member@V?$FFastAllocator@U?$MultiListNodePolicy@UCvTradedItem@@@@$0A@$0BF@$0A@UFDefaultFastVectorAllocator@?$BaseVector@U?$MultiListNodePolicy@UCvTradedItem@@@@$0A@@@@@@@@@QAE@XZ ; FCustomList_Core<MultiListNodePolicy<CvTradedItem>,FFastAllocator<MultiListNodePolicy<CvTradedItem>,0,21,0,BaseVector<MultiListNodePolicy<CvTradedItem>,0>::FDefaultFastVectorAllocator>,FCustomList_Tail_Member<FFastAllocator<MultiListNodePolicy<CvTradedItem>,0,21,0,BaseVector<MultiListNodePolicy<CvTradedItem>,0>::FDefaultFastVectorAllocator> > >::base_iterator<FCustomList_Core<MultiListNodePolicy<CvTradedItem>,FFastAllocator<MultiListNodePolicy<CvTradedItem>,0,21,0,BaseVector<MultiListNodePolicy<CvTradedItem>,0>::FDefaultFastVectorAllocator>,FCustomList_Tail_Member<FFastAllocator<MultiListNodePolicy<CvTradedItem>,0,21,0,BaseVector<MultiListNodePolicy<CvTradedItem>,0>::FDefaultFastVectorAllocator> > >::base_iterator_tail>::~base_iterator<FCustomList_Core<MultiListNodePolicy<CvTradedItem>,FFastAllocator<MultiListNodePolicy<CvTradedItem>,0,21,0,BaseVector<MultiListNodePolicy<CvTradedItem>,0>::FDefaultFastVectorAllocator>,FCustomList_Tail_Member<FFastAllocator<MultiListNodePolicy<CvTradedItem>,0,21,0,BaseVector<MultiListNodePolicy<CvTradedItem>,0>::FDefaultFastVectorAllocator> > >::base_iterator_tail>
; Function compile flags: /Ogtpy
;	COMDAT ??1?$base_iterator@Vbase_iterator_tail@?$FCustomList_Core@U?$MultiListNodePolicy@UCvTradedItem@@@@V?$FFastAllocator@U?$MultiListNodePolicy@UCvTradedItem@@@@$0A@$0BF@$0A@UFDefaultFastVectorAllocator@?$BaseVector@U?$MultiListNodePolicy@UCvTradedItem@@@@$0A@@@@@V?$FCustomList_Tail_Member@V?$FFastAllocator@U?$MultiListNodePolicy@UCvTradedItem@@@@$0A@$0BF@$0A@UFDefaultFastVectorAllocator@?$BaseVector@U?$MultiListNodePolicy@UCvTradedItem@@@@$0A@@@@@@@@@@?$FCustomList_Core@U?$MultiListNodePolicy@UCvTradedItem@@@@V?$FFastAllocator@U?$MultiListNodePolicy@UCvTradedItem@@@@$0A@$0BF@$0A@UFDefaultFastVectorAllocator@?$BaseVector@U?$MultiListNodePolicy@UCvTradedItem@@@@$0A@@@@@V?$FCustomList_Tail_Member@V?$FFastAllocator@U?$MultiListNodePolicy@UCvTradedItem@@@@$0A@$0BF@$0A@UFDefaultFastVectorAllocator@?$BaseVector@U?$MultiListNodePolicy@UCvTradedItem@@@@$0A@@@@@@@@@QAE@XZ
_TEXT	SEGMENT
??1?$base_iterator@Vbase_iterator_tail@?$FCustomList_Core@U?$MultiListNodePolicy@UCvTradedItem@@@@V?$FFastAllocator@U?$MultiListNodePolicy@UCvTradedItem@@@@$0A@$0BF@$0A@UFDefaultFastVectorAllocator@?$BaseVector@U?$MultiListNodePolicy@UCvTradedItem@@@@$0A@@@@@V?$FCustomList_Tail_Member@V?$FFastAllocator@U?$MultiListNodePolicy@UCvTradedItem@@@@$0A@$0BF@$0A@UFDefaultFastVectorAllocator@?$BaseVector@U?$MultiListNodePolicy@UCvTradedItem@@@@$0A@@@@@@@@@@?$FCustomList_Core@U?$MultiListNodePolicy@UCvTradedItem@@@@V?$FFastAllocator@U?$MultiListNodePolicy@UCvTradedItem@@@@$0A@$0BF@$0A@UFDefaultFastVectorAllocator@?$BaseVector@U?$MultiListNodePolicy@UCvTradedItem@@@@$0A@@@@@V?$FCustomList_Tail_Member@V?$FFastAllocator@U?$MultiListNodePolicy@UCvTradedItem@@@@$0A@$0BF@$0A@UFDefaultFastVectorAllocator@?$BaseVector@U?$MultiListNodePolicy@UCvTradedItem@@@@$0A@@@@@@@@@QAE@XZ PROC ; FCustomList_Core<MultiListNodePolicy<CvTradedItem>,FFastAllocator<MultiListNodePolicy<CvTradedItem>,0,21,0,BaseVector<MultiListNodePolicy<CvTradedItem>,0>::FDefaultFastVectorAllocator>,FCustomList_Tail_Member<FFastAllocator<MultiListNodePolicy<CvTradedItem>,0,21,0,BaseVector<MultiListNodePolicy<CvTradedItem>,0>::FDefaultFastVectorAllocator> > >::base_iterator<FCustomList_Core<MultiListNodePolicy<CvTradedItem>,FFastAllocator<MultiListNodePolicy<CvTradedItem>,0,21,0,BaseVector<MultiListNodePolicy<CvTradedItem>,0>::FDefaultFastVectorAllocator>,FCustomList_Tail_Member<FFastAllocator<MultiListNodePolicy<CvTradedItem>,0,21,0,BaseVector<MultiListNodePolicy<CvTradedItem>,0>::FDefaultFastVectorAllocator> > >::base_iterator_tail>::~base_iterator<FCustomList_Core<MultiListNodePolicy<CvTradedItem>,FFastAllocator<MultiListNodePolicy<CvTradedItem>,0,21,0,BaseVector<MultiListNodePolicy<CvTradedItem>,0>::FDefaultFastVectorAllocator>,FCustomList_Tail_Member<FFastAllocator<MultiListNodePolicy<CvTradedItem>,0,21,0,BaseVector<MultiListNodePolicy<CvTradedItem>,0>::FDefaultFastVectorAllocator> > >::base_iterator_tail>, COMDAT
; _this$ = ecx

; 299  : 		~base_iterator(){};

	ret	0
??1?$base_iterator@Vbase_iterator_tail@?$FCustomList_Core@U?$MultiListNodePolicy@UCvTradedItem@@@@V?$FFastAllocator@U?$MultiListNodePolicy@UCvTradedItem@@@@$0A@$0BF@$0A@UFDefaultFastVectorAllocator@?$BaseVector@U?$MultiListNodePolicy@UCvTradedItem@@@@$0A@@@@@V?$FCustomList_Tail_Member@V?$FFastAllocator@U?$MultiListNodePolicy@UCvTradedItem@@@@$0A@$0BF@$0A@UFDefaultFastVectorAllocator@?$BaseVector@U?$MultiListNodePolicy@UCvTradedItem@@@@$0A@@@@@@@@@@?$FCustomList_Core@U?$MultiListNodePolicy@UCvTradedItem@@@@V?$FFastAllocator@U?$MultiListNodePolicy@UCvTradedItem@@@@$0A@$0BF@$0A@UFDefaultFastVectorAllocator@?$BaseVector@U?$MultiListNodePolicy@UCvTradedItem@@@@$0A@@@@@V?$FCustomList_Tail_Member@V?$FFastAllocator@U?$MultiListNodePolicy@UCvTradedItem@@@@$0A@$0BF@$0A@UFDefaultFastVectorAllocator@?$BaseVector@U?$MultiListNodePolicy@UCvTradedItem@@@@$0A@@@@@@@@@QAE@XZ ENDP ; FCustomList_Core<MultiListNodePolicy<CvTradedItem>,FFastAllocator<MultiListNodePolicy<CvTradedItem>,0,21,0,BaseVector<MultiListNodePolicy<CvTradedItem>,0>::FDefaultFastVectorAllocator>,FCustomList_Tail_Member<FFastAllocator<MultiListNodePolicy<CvTradedItem>,0,21,0,BaseVector<MultiListNodePolicy<CvTradedItem>,0>::FDefaultFastVectorAllocator> > >::base_iterator<FCustomList_Core<MultiListNodePolicy<CvTradedItem>,FFastAllocator<MultiListNodePolicy<CvTradedItem>,0,21,0,BaseVector<MultiListNodePolicy<CvTradedItem>,0>::FDefaultFastVectorAllocator>,FCustomList_Tail_Member<FFastAllocator<MultiListNodePolicy<CvTradedItem>,0,21,0,BaseVector<MultiListNodePolicy<CvTradedItem>,0>::FDefaultFastVectorAllocator> > >::base_iterator_tail>::~base_iterator<FCustomList_Core<MultiListNodePolicy<CvTradedItem>,FFastAllocator<MultiListNodePolicy<CvTradedItem>,0,21,0,BaseVector<MultiListNodePolicy<CvTradedItem>,0>::FDefaultFastVectorAllocator>,FCustomList_Tail_Member<FFastAllocator<MultiListNodePolicy<CvTradedItem>,0,21,0,BaseVector<MultiListNodePolicy<CvTradedItem>,0>::FDefaultFastVectorAllocator> > >::base_iterator_tail>
_TEXT	ENDS
PUBLIC	??0?$_Vector_const_iterator@U?$pair@IPAVCvDeal@@@std@@V?$allocator@U?$pair@IPAVCvDeal@@@std@@@2@@std@@QAE@PAU?$pair@IPAVCvDeal@@@1@@Z ; std::_Vector_const_iterator<std::pair<unsigned int,CvDeal *>,std::allocator<std::pair<unsigned int,CvDeal *> > >::_Vector_const_iterator<std::pair<unsigned int,CvDeal *>,std::allocator<std::pair<unsigned int,CvDeal *> > >
; Function compile flags: /Ogtpy
; File c:\program files (x86)\microsoft visual studio 9.0\vc\include\vector
;	COMDAT ??0?$_Vector_const_iterator@U?$pair@IPAVCvDeal@@@std@@V?$allocator@U?$pair@IPAVCvDeal@@@std@@@2@@std@@QAE@PAU?$pair@IPAVCvDeal@@@1@@Z
_TEXT	SEGMENT
__Ptr$ = 8						; size = 4
??0?$_Vector_const_iterator@U?$pair@IPAVCvDeal@@@std@@V?$allocator@U?$pair@IPAVCvDeal@@@std@@@2@@std@@QAE@PAU?$pair@IPAVCvDeal@@@1@@Z PROC ; std::_Vector_const_iterator<std::pair<unsigned int,CvDeal *>,std::allocator<std::pair<unsigned int,CvDeal *> > >::_Vector_const_iterator<std::pair<unsigned int,CvDeal *>,std::allocator<std::pair<unsigned int,CvDeal *> > >, COMDAT
; _this$ = ecx

; 84   : 	explicit _Vector_const_iterator(_Tptr _Ptr)

	mov	eax, ecx

; 85   : 		{	// construct with pointer _Ptr
; 86   : 		_Myptr = _Ptr;

	mov	ecx, DWORD PTR __Ptr$[esp-4]
	mov	DWORD PTR [eax], ecx

; 87   : 		}

	ret	4
??0?$_Vector_const_iterator@U?$pair@IPAVCvDeal@@@std@@V?$allocator@U?$pair@IPAVCvDeal@@@std@@@2@@std@@QAE@PAU?$pair@IPAVCvDeal@@@1@@Z ENDP ; std::_Vector_const_iterator<std::pair<unsigned int,CvDeal *>,std::allocator<std::pair<unsigned int,CvDeal *> > >::_Vector_const_iterator<std::pair<unsigned int,CvDeal *>,std::allocator<std::pair<unsigned int,CvDeal *> > >
_TEXT	ENDS
PUBLIC	??G?$_Vector_const_iterator@U?$pair@IPAVCvDeal@@@std@@V?$allocator@U?$pair@IPAVCvDeal@@@std@@@2@@std@@QBEHABV01@@Z ; std::_Vector_const_iterator<std::pair<unsigned int,CvDeal *>,std::allocator<std::pair<unsigned int,CvDeal *> > >::operator-
; Function compile flags: /Ogtpy
;	COMDAT ??G?$_Vector_const_iterator@U?$pair@IPAVCvDeal@@@std@@V?$allocator@U?$pair@IPAVCvDeal@@@std@@@2@@std@@QBEHABV01@@Z
_TEXT	SEGMENT
__Right$ = 8						; size = 4
??G?$_Vector_const_iterator@U?$pair@IPAVCvDeal@@@std@@V?$allocator@U?$pair@IPAVCvDeal@@@std@@@2@@std@@QBEHABV01@@Z PROC ; std::_Vector_const_iterator<std::pair<unsigned int,CvDeal *>,std::allocator<std::pair<unsigned int,CvDeal *> > >::operator-, COMDAT
; _this$ = ecx

; 187  : 
; 188  :  #if _HAS_ITERATOR_DEBUGGING
; 189  : 		_Compat(_Right);
; 190  :  #else
; 191  : 		_SCL_SECURE_VALIDATE(this->_Has_container() && this->_Same_container(_Right));
; 192  :  #endif /* _HAS_ITERATOR_DEBUGGING */
; 193  : 
; 194  : 		return (_Myptr - _Right._Myptr);

	mov	eax, DWORD PTR [ecx]
	mov	ecx, DWORD PTR __Right$[esp-4]
	sub	eax, DWORD PTR [ecx]
	sar	eax, 3

; 195  : 		}

	ret	4
??G?$_Vector_const_iterator@U?$pair@IPAVCvDeal@@@std@@V?$allocator@U?$pair@IPAVCvDeal@@@std@@@2@@std@@QBEHABV01@@Z ENDP ; std::_Vector_const_iterator<std::pair<unsigned int,CvDeal *>,std::allocator<std::pair<unsigned int,CvDeal *> > >::operator-
_TEXT	ENDS
PUBLIC	?Alloc@?$FStaticVector@UWeightedElement@?$CvWeightedVector@W4TeamTypes@@$0DP@$00@@$0DP@$00$0A@$0A@@@IAEPAUWeightedElement@?$CvWeightedVector@W4TeamTypes@@$0DP@$00@@I@Z ; FStaticVector<CvWeightedVector<enum TeamTypes,63,1>::WeightedElement,63,1,0,0>::Alloc
; Function compile flags: /Ogtpy
; File c:\users\enormousapplepie\desktop\lekmod dll versions\v31\lekmod_dll\fireplace\include\fireworks\ffastvector.h
;	COMDAT ?Alloc@?$FStaticVector@UWeightedElement@?$CvWeightedVector@W4TeamTypes@@$0DP@$00@@$0DP@$00$0A@$0A@@@IAEPAUWeightedElement@?$CvWeightedVector@W4TeamTypes@@$0DP@$00@@I@Z
_TEXT	SEGMENT
_uiSize$ = 8						; size = 4
?Alloc@?$FStaticVector@UWeightedElement@?$CvWeightedVector@W4TeamTypes@@$0DP@$00@@$0DP@$00$0A@$0A@@@IAEPAUWeightedElement@?$CvWeightedVector@W4TeamTypes@@$0DP@$00@@I@Z PROC ; FStaticVector<CvWeightedVector<enum TeamTypes,63,1>::WeightedElement,63,1,0,0>::Alloc, COMDAT
; _this$ = ecx

; 795  : 	T* Alloc(unsigned int uiSize){

	push	esi
	push	edi

; 796  : 		T* pRet;
; 797  : 		if( uiSize > L ){

	mov	edi, DWORD PTR _uiSize$[esp+4]
	mov	esi, ecx
	cmp	edi, 63					; 0000003fH
	jbe	SHORT $LN2@Alloc@2

; 798  : 			pRet = (T*)FMALLOCALIGNED( uiSize*sizeof(T), __alignof(T), AllocPool, nSubID );

	push	798					; 0000031eH
	push	OFFSET ??_C@_0GP@KFAPCGLJ@c?3?2users?2enormousapplepie?2deskto@
	lea	eax, DWORD PTR [edi*8]
	push	4
	push	eax
	call	?FireMallocAlignedNoTracking@@YAPAXIIPBDH@Z ; FireMallocAlignedNoTracking
	add	esp, 16					; 00000010H

; 799  : 			m_uiCurrMaxSize = uiSize;

	mov	DWORD PTR [esi+8], edi
	pop	edi
	pop	esi

; 803  : 		}
; 804  : 		return pRet;
; 805  : 	};

	ret	4
$LN2@Alloc@2:
	pop	edi

; 800  : 		}else{
; 801  : 			pRet = (T*)m_aData;

	lea	eax, DWORD PTR [esi+12]

; 802  : 			m_uiCurrMaxSize = L;

	mov	DWORD PTR [esi+8], 63			; 0000003fH
	pop	esi

; 803  : 		}
; 804  : 		return pRet;
; 805  : 	};

	ret	4
?Alloc@?$FStaticVector@UWeightedElement@?$CvWeightedVector@W4TeamTypes@@$0DP@$00@@$0DP@$00$0A@$0A@@@IAEPAUWeightedElement@?$CvWeightedVector@W4TeamTypes@@$0DP@$00@@I@Z ENDP ; FStaticVector<CvWeightedVector<enum TeamTypes,63,1>::WeightedElement,63,1,0,0>::Alloc
_TEXT	ENDS
PUBLIC	??1?$BaseVector@UWeightedElement@?$CvWeightedVector@W4TeamTypes@@$0DP@$00@@$00@@QAE@XZ ; BaseVector<CvWeightedVector<enum TeamTypes,63,1>::WeightedElement,1>::~BaseVector<CvWeightedVector<enum TeamTypes,63,1>::WeightedElement,1>
; Function compile flags: /Ogtpy
;	COMDAT ??1?$BaseVector@UWeightedElement@?$CvWeightedVector@W4TeamTypes@@$0DP@$00@@$00@@QAE@XZ
_TEXT	SEGMENT
??1?$BaseVector@UWeightedElement@?$CvWeightedVector@W4TeamTypes@@$0DP@$00@@$00@@QAE@XZ PROC ; BaseVector<CvWeightedVector<enum TeamTypes,63,1>::WeightedElement,1>::~BaseVector<CvWeightedVector<enum TeamTypes,63,1>::WeightedElement,1>, COMDAT
; _this$ = ecx

; 111  : 	~BaseVector(){};

	ret	0
??1?$BaseVector@UWeightedElement@?$CvWeightedVector@W4TeamTypes@@$0DP@$00@@$00@@QAE@XZ ENDP ; BaseVector<CvWeightedVector<enum TeamTypes,63,1>::WeightedElement,1>::~BaseVector<CvWeightedVector<enum TeamTypes,63,1>::WeightedElement,1>
_TEXT	ENDS
PUBLIC	??0?$BaseVector@UWeightedElement@?$CvWeightedVector@W4TeamTypes@@$0DP@$00@@$00@@IAE@XZ ; BaseVector<CvWeightedVector<enum TeamTypes,63,1>::WeightedElement,1>::BaseVector<CvWeightedVector<enum TeamTypes,63,1>::WeightedElement,1>
; Function compile flags: /Ogtpy
;	COMDAT ??0?$BaseVector@UWeightedElement@?$CvWeightedVector@W4TeamTypes@@$0DP@$00@@$00@@IAE@XZ
_TEXT	SEGMENT
??0?$BaseVector@UWeightedElement@?$CvWeightedVector@W4TeamTypes@@$0DP@$00@@$00@@IAE@XZ PROC ; BaseVector<CvWeightedVector<enum TeamTypes,63,1>::WeightedElement,1>::BaseVector<CvWeightedVector<enum TeamTypes,63,1>::WeightedElement,1>, COMDAT
; _this$ = ecx

; 216  : 	BaseVector() : m_uiCurrSize(0), m_uiCurrMaxSize(0), m_pData(NULL) {};

	mov	eax, ecx
	xor	ecx, ecx
	mov	DWORD PTR [eax], ecx
	mov	DWORD PTR [eax+4], ecx
	mov	DWORD PTR [eax+8], ecx
	ret	0
??0?$BaseVector@UWeightedElement@?$CvWeightedVector@W4TeamTypes@@$0DP@$00@@$00@@IAE@XZ ENDP ; BaseVector<CvWeightedVector<enum TeamTypes,63,1>::WeightedElement,1>::BaseVector<CvWeightedVector<enum TeamTypes,63,1>::WeightedElement,1>
_TEXT	ENDS
PUBLIC	??0WeightedElement@?$CvWeightedVector@W4TeamTypes@@$0DP@$00@@QAE@ABU01@@Z ; CvWeightedVector<enum TeamTypes,63,1>::WeightedElement::WeightedElement
; Function compile flags: /Ogtpy
; File c:\users\enormousapplepie\desktop\lekmod dll versions\v31\lekmod_dll\cvgamecoredllutil\include\cvweightedvector.h
;	COMDAT ??0WeightedElement@?$CvWeightedVector@W4TeamTypes@@$0DP@$00@@QAE@ABU01@@Z
_TEXT	SEGMENT
_source$ = 8						; size = 4
??0WeightedElement@?$CvWeightedVector@W4TeamTypes@@$0DP@$00@@QAE@ABU01@@Z PROC ; CvWeightedVector<enum TeamTypes,63,1>::WeightedElement::WeightedElement, COMDAT
; _this$ = ecx

; 37   : 		{

	mov	eax, ecx
	mov	ecx, DWORD PTR _source$[esp-4]
	mov	edx, DWORD PTR [ecx]
	mov	DWORD PTR [eax], edx
	mov	ecx, DWORD PTR [ecx+4]
	mov	DWORD PTR [eax+4], ecx

; 38   : 		}

	ret	4
??0WeightedElement@?$CvWeightedVector@W4TeamTypes@@$0DP@$00@@QAE@ABU01@@Z ENDP ; CvWeightedVector<enum TeamTypes,63,1>::WeightedElement::WeightedElement
_TEXT	ENDS
PUBLIC	??1?$BaseVector@U?$MultiListNodePolicy@UCvTradedItem@@@@$0A@@@QAE@XZ ; BaseVector<MultiListNodePolicy<CvTradedItem>,0>::~BaseVector<MultiListNodePolicy<CvTradedItem>,0>
; Function compile flags: /Ogtpy
; File c:\users\enormousapplepie\desktop\lekmod dll versions\v31\lekmod_dll\fireplace\include\fireworks\ffastvector.h
;	COMDAT ??1?$BaseVector@U?$MultiListNodePolicy@UCvTradedItem@@@@$0A@@@QAE@XZ
_TEXT	SEGMENT
??1?$BaseVector@U?$MultiListNodePolicy@UCvTradedItem@@@@$0A@@@QAE@XZ PROC ; BaseVector<MultiListNodePolicy<CvTradedItem>,0>::~BaseVector<MultiListNodePolicy<CvTradedItem>,0>, COMDAT
; _this$ = ecx

; 111  : 	~BaseVector(){};

	ret	0
??1?$BaseVector@U?$MultiListNodePolicy@UCvTradedItem@@@@$0A@@@QAE@XZ ENDP ; BaseVector<MultiListNodePolicy<CvTradedItem>,0>::~BaseVector<MultiListNodePolicy<CvTradedItem>,0>
_TEXT	ENDS
PUBLIC	?size@?$BaseVector@U?$MultiListNodePolicy@UCvTradedItem@@@@$0A@@@QBEIXZ ; BaseVector<MultiListNodePolicy<CvTradedItem>,0>::size
; Function compile flags: /Ogtpy
;	COMDAT ?size@?$BaseVector@U?$MultiListNodePolicy@UCvTradedItem@@@@$0A@@@QBEIXZ
_TEXT	SEGMENT
?size@?$BaseVector@U?$MultiListNodePolicy@UCvTradedItem@@@@$0A@@@QBEIXZ PROC ; BaseVector<MultiListNodePolicy<CvTradedItem>,0>::size, COMDAT
; _this$ = ecx

; 169  : 		return m_uiCurrSize;

	mov	eax, DWORD PTR [ecx+4]

; 170  : 	};

	ret	0
?size@?$BaseVector@U?$MultiListNodePolicy@UCvTradedItem@@@@$0A@@@QBEIXZ ENDP ; BaseVector<MultiListNodePolicy<CvTradedItem>,0>::size
_TEXT	ENDS
PUBLIC	?Destroy@?$BaseVector@U?$MultiListNodePolicy@UCvTradedItem@@@@$0A@@@IAEXPAU?$MultiListNodePolicy@UCvTradedItem@@@@I@Z ; BaseVector<MultiListNodePolicy<CvTradedItem>,0>::Destroy
; Function compile flags: /Ogtpy
;	COMDAT ?Destroy@?$BaseVector@U?$MultiListNodePolicy@UCvTradedItem@@@@$0A@@@IAEXPAU?$MultiListNodePolicy@UCvTradedItem@@@@I@Z
_TEXT	SEGMENT
_pVal$ = 8						; size = 4
_uiNumElements$ = 12					; size = 4
?Destroy@?$BaseVector@U?$MultiListNodePolicy@UCvTradedItem@@@@$0A@@@IAEXPAU?$MultiListNodePolicy@UCvTradedItem@@@@I@Z PROC ; BaseVector<MultiListNodePolicy<CvTradedItem>,0>::Destroy, COMDAT
; _this$ = ecx

; 221  : 		if( !bPODType){
; 222  : 			for(unsigned int i = 0; i < uiNumElements; ++i){
; 223  : 				pVal[i].~T();
; 224  : 			}
; 225  : 		}
; 226  : 	};

	ret	8
?Destroy@?$BaseVector@U?$MultiListNodePolicy@UCvTradedItem@@@@$0A@@@IAEXPAU?$MultiListNodePolicy@UCvTradedItem@@@@I@Z ENDP ; BaseVector<MultiListNodePolicy<CvTradedItem>,0>::Destroy
_TEXT	ENDS
PUBLIC	?FreeIfDeleted@?$FFastAllocator@U?$MultiListNodePolicy@UCvTradedItem@@@@$0A@$0BF@$0A@UFDefaultFastVectorAllocator@?$BaseVector@U?$MultiListNodePolicy@UCvTradedItem@@@@$0A@@@@@QAE_NI@Z ; FFastAllocator<MultiListNodePolicy<CvTradedItem>,0,21,0,BaseVector<MultiListNodePolicy<CvTradedItem>,0>::FDefaultFastVectorAllocator>::FreeIfDeleted
; Function compile flags: /Ogtpy
; File c:\users\enormousapplepie\desktop\lekmod dll versions\v31\lekmod_dll\fireplace\include\fireworks\ffastallocator.h
;	COMDAT ?FreeIfDeleted@?$FFastAllocator@U?$MultiListNodePolicy@UCvTradedItem@@@@$0A@$0BF@$0A@UFDefaultFastVectorAllocator@?$BaseVector@U?$MultiListNodePolicy@UCvTradedItem@@@@$0A@@@@@QAE_NI@Z
_TEXT	SEGMENT
_uiIndex$ = 8						; size = 4
?FreeIfDeleted@?$FFastAllocator@U?$MultiListNodePolicy@UCvTradedItem@@@@$0A@$0BF@$0A@UFDefaultFastVectorAllocator@?$BaseVector@U?$MultiListNodePolicy@UCvTradedItem@@@@$0A@@@@@QAE_NI@Z PROC ; FFastAllocator<MultiListNodePolicy<CvTradedItem>,0,21,0,BaseVector<MultiListNodePolicy<CvTradedItem>,0>::FDefaultFastVectorAllocator>::FreeIfDeleted, COMDAT
; _this$ = ecx

; 238  : 	{

	push	esi

; 239  : 		T& element = m_vec[uiIndex];

	mov	esi, DWORD PTR _uiIndex$[esp]
	mov	eax, esi
	imul	eax, 44					; 0000002cH
	push	edi
	mov	edi, DWORD PTR [ecx+8]

; 240  : 		if( !element.ALLOC_GetDeleted() ){

	mov	edx, DWORD PTR [eax+edi+4]
	add	eax, edi
	shr	edx, 31					; 0000001fH
	not	dl
	test	dl, 1
	jne	SHORT $LN3@FreeIfDele
	pop	edi

; 241  : 			return false;

	xor	al, al
	pop	esi

; 256  : 	};

	ret	4
$LN3@FreeIfDele:

; 242  : 		}
; 243  : 
; 244  : 		if( uiIndex < m_uiFirstEmpty){

	mov	edx, DWORD PTR [ecx]
	cmp	esi, edx
	jae	SHORT $LN2@FreeIfDele

; 245  : 			element.ALLOC_SetNext(m_uiFirstEmpty);

	mov	DWORD PTR [eax], edx

; 252  : 		}
; 253  : 		m_uiSize--;

	dec	DWORD PTR [ecx+4]
	pop	edi
	mov	DWORD PTR [ecx], esi

; 254  : 
; 255  : 		return true;

	mov	al, 1
	pop	esi

; 256  : 	};

	ret	4
$LN2@FreeIfDele:

; 246  : 
; 247  : 			m_uiFirstEmpty = uiIndex;
; 248  : 		}else{
; 249  : 			T* pRoot = &m_vec[m_uiFirstEmpty];

	imul	edx, 44					; 0000002cH
	add	edx, edi

; 250  : 			element.ALLOC_SetNext( pRoot->ALLOC_GetNext() );

	mov	edi, DWORD PTR [edx]
	mov	DWORD PTR [eax], edi

; 251  : 			pRoot->ALLOC_SetNext(uiIndex);

	mov	DWORD PTR [edx], esi

; 252  : 		}
; 253  : 		m_uiSize--;

	dec	DWORD PTR [ecx+4]
	pop	edi

; 254  : 
; 255  : 		return true;

	mov	al, 1
	pop	esi

; 256  : 	};

	ret	4
?FreeIfDeleted@?$FFastAllocator@U?$MultiListNodePolicy@UCvTradedItem@@@@$0A@$0BF@$0A@UFDefaultFastVectorAllocator@?$BaseVector@U?$MultiListNodePolicy@UCvTradedItem@@@@$0A@@@@@QAE_NI@Z ENDP ; FFastAllocator<MultiListNodePolicy<CvTradedItem>,0,21,0,BaseVector<MultiListNodePolicy<CvTradedItem>,0>::FDefaultFastVectorAllocator>::FreeIfDeleted
_TEXT	ENDS
PUBLIC	?max_size@?$allocator@U?$pair@IPAVCvDeal@@@std@@@std@@QBEIXZ ; std::allocator<std::pair<unsigned int,CvDeal *> >::max_size
; Function compile flags: /Ogtpy
; File c:\program files (x86)\microsoft visual studio 9.0\vc\include\xmemory
;	COMDAT ?max_size@?$allocator@U?$pair@IPAVCvDeal@@@std@@@std@@QBEIXZ
_TEXT	SEGMENT
?max_size@?$allocator@U?$pair@IPAVCvDeal@@@std@@@std@@QBEIXZ PROC ; std::allocator<std::pair<unsigned int,CvDeal *> >::max_size, COMDAT
; _this$ = ecx

; 165  : 		_SIZT _Count = (_SIZT)(-1) / sizeof (_Ty);
; 166  : 		return (0 < _Count ? _Count : 1);

	mov	eax, 536870911				; 1fffffffH

; 167  : 		}

	ret	0
?max_size@?$allocator@U?$pair@IPAVCvDeal@@@std@@@std@@QBEIXZ ENDP ; std::allocator<std::pair<unsigned int,CvDeal *> >::max_size
_TEXT	ENDS
PUBLIC	??0base_iterator_tail_const@?$FCustomList_Core@U?$MultiListNodePolicy@UCvTradedItem@@@@V?$FFastAllocator@U?$MultiListNodePolicy@UCvTradedItem@@@@$0A@$0BF@$0A@UFDefaultFastVectorAllocator@?$BaseVector@U?$MultiListNodePolicy@UCvTradedItem@@@@$0A@@@@@V?$FCustomList_Tail_Member@V?$FFastAllocator@U?$MultiListNodePolicy@UCvTradedItem@@@@$0A@$0BF@$0A@UFDefaultFastVectorAllocator@?$BaseVector@U?$MultiListNodePolicy@UCvTradedItem@@@@$0A@@@@@@@@@QAE@PBV1@@Z ; FCustomList_Core<MultiListNodePolicy<CvTradedItem>,FFastAllocator<MultiListNodePolicy<CvTradedItem>,0,21,0,BaseVector<MultiListNodePolicy<CvTradedItem>,0>::FDefaultFastVectorAllocator>,FCustomList_Tail_Member<FFastAllocator<MultiListNodePolicy<CvTradedItem>,0,21,0,BaseVector<MultiListNodePolicy<CvTradedItem>,0>::FDefaultFastVectorAllocator> > >::base_iterator_tail_const::base_iterator_tail_const
; Function compile flags: /Ogtpy
; File c:\users\enormousapplepie\desktop\lekmod dll versions\v31\lekmod_dll\fireplace\include\fireworks\ffastlist.h
;	COMDAT ??0base_iterator_tail_const@?$FCustomList_Core@U?$MultiListNodePolicy@UCvTradedItem@@@@V?$FFastAllocator@U?$MultiListNodePolicy@UCvTradedItem@@@@$0A@$0BF@$0A@UFDefaultFastVectorAllocator@?$BaseVector@U?$MultiListNodePolicy@UCvTradedItem@@@@$0A@@@@@V?$FCustomList_Tail_Member@V?$FFastAllocator@U?$MultiListNodePolicy@UCvTradedItem@@@@$0A@$0BF@$0A@UFDefaultFastVectorAllocator@?$BaseVector@U?$MultiListNodePolicy@UCvTradedItem@@@@$0A@@@@@@@@@QAE@PBV1@@Z
_TEXT	SEGMENT
_pFastList$ = 8						; size = 4
??0base_iterator_tail_const@?$FCustomList_Core@U?$MultiListNodePolicy@UCvTradedItem@@@@V?$FFastAllocator@U?$MultiListNodePolicy@UCvTradedItem@@@@$0A@$0BF@$0A@UFDefaultFastVectorAllocator@?$BaseVector@U?$MultiListNodePolicy@UCvTradedItem@@@@$0A@@@@@V?$FCustomList_Tail_Member@V?$FFastAllocator@U?$MultiListNodePolicy@UCvTradedItem@@@@$0A@$0BF@$0A@UFDefaultFastVectorAllocator@?$BaseVector@U?$MultiListNodePolicy@UCvTradedItem@@@@$0A@@@@@@@@@QAE@PBV1@@Z PROC ; FCustomList_Core<MultiListNodePolicy<CvTradedItem>,FFastAllocator<MultiListNodePolicy<CvTradedItem>,0,21,0,BaseVector<MultiListNodePolicy<CvTradedItem>,0>::FDefaultFastVectorAllocator>,FCustomList_Tail_Member<FFastAllocator<MultiListNodePolicy<CvTradedItem>,0,21,0,BaseVector<MultiListNodePolicy<CvTradedItem>,0>::FDefaultFastVectorAllocator> > >::base_iterator_tail_const::base_iterator_tail_const, COMDAT
; _this$ = ecx

; 273  : 		base_iterator_tail_const( const TYPE* pFastList ) : m_pFastList( pFastList ) {};

	mov	eax, ecx
	mov	ecx, DWORD PTR _pFastList$[esp-4]
	mov	DWORD PTR [eax], ecx
	ret	4
??0base_iterator_tail_const@?$FCustomList_Core@U?$MultiListNodePolicy@UCvTradedItem@@@@V?$FFastAllocator@U?$MultiListNodePolicy@UCvTradedItem@@@@$0A@$0BF@$0A@UFDefaultFastVectorAllocator@?$BaseVector@U?$MultiListNodePolicy@UCvTradedItem@@@@$0A@@@@@V?$FCustomList_Tail_Member@V?$FFastAllocator@U?$MultiListNodePolicy@UCvTradedItem@@@@$0A@$0BF@$0A@UFDefaultFastVectorAllocator@?$BaseVector@U?$MultiListNodePolicy@UCvTradedItem@@@@$0A@@@@@@@@@QAE@PBV1@@Z ENDP ; FCustomList_Core<MultiListNodePolicy<CvTradedItem>,FFastAllocator<MultiListNodePolicy<CvTradedItem>,0,21,0,BaseVector<MultiListNodePolicy<CvTradedItem>,0>::FDefaultFastVectorAllocator>,FCustomList_Tail_Member<FFastAllocator<MultiListNodePolicy<CvTradedItem>,0,21,0,BaseVector<MultiListNodePolicy<CvTradedItem>,0>::FDefaultFastVectorAllocator> > >::base_iterator_tail_const::base_iterator_tail_const
_TEXT	ENDS
PUBLIC	??0base_iterator_tail@?$FCustomList_Core@U?$MultiListNodePolicy@UCvTradedItem@@@@V?$FFastAllocator@U?$MultiListNodePolicy@UCvTradedItem@@@@$0A@$0BF@$0A@UFDefaultFastVectorAllocator@?$BaseVector@U?$MultiListNodePolicy@UCvTradedItem@@@@$0A@@@@@V?$FCustomList_Tail_Member@V?$FFastAllocator@U?$MultiListNodePolicy@UCvTradedItem@@@@$0A@$0BF@$0A@UFDefaultFastVectorAllocator@?$BaseVector@U?$MultiListNodePolicy@UCvTradedItem@@@@$0A@@@@@@@@@QAE@PAV1@@Z ; FCustomList_Core<MultiListNodePolicy<CvTradedItem>,FFastAllocator<MultiListNodePolicy<CvTradedItem>,0,21,0,BaseVector<MultiListNodePolicy<CvTradedItem>,0>::FDefaultFastVectorAllocator>,FCustomList_Tail_Member<FFastAllocator<MultiListNodePolicy<CvTradedItem>,0,21,0,BaseVector<MultiListNodePolicy<CvTradedItem>,0>::FDefaultFastVectorAllocator> > >::base_iterator_tail::base_iterator_tail
; Function compile flags: /Ogtpy
;	COMDAT ??0base_iterator_tail@?$FCustomList_Core@U?$MultiListNodePolicy@UCvTradedItem@@@@V?$FFastAllocator@U?$MultiListNodePolicy@UCvTradedItem@@@@$0A@$0BF@$0A@UFDefaultFastVectorAllocator@?$BaseVector@U?$MultiListNodePolicy@UCvTradedItem@@@@$0A@@@@@V?$FCustomList_Tail_Member@V?$FFastAllocator@U?$MultiListNodePolicy@UCvTradedItem@@@@$0A@$0BF@$0A@UFDefaultFastVectorAllocator@?$BaseVector@U?$MultiListNodePolicy@UCvTradedItem@@@@$0A@@@@@@@@@QAE@PAV1@@Z
_TEXT	SEGMENT
_pFastList$ = 8						; size = 4
??0base_iterator_tail@?$FCustomList_Core@U?$MultiListNodePolicy@UCvTradedItem@@@@V?$FFastAllocator@U?$MultiListNodePolicy@UCvTradedItem@@@@$0A@$0BF@$0A@UFDefaultFastVectorAllocator@?$BaseVector@U?$MultiListNodePolicy@UCvTradedItem@@@@$0A@@@@@V?$FCustomList_Tail_Member@V?$FFastAllocator@U?$MultiListNodePolicy@UCvTradedItem@@@@$0A@$0BF@$0A@UFDefaultFastVectorAllocator@?$BaseVector@U?$MultiListNodePolicy@UCvTradedItem@@@@$0A@@@@@@@@@QAE@PAV1@@Z PROC ; FCustomList_Core<MultiListNodePolicy<CvTradedItem>,FFastAllocator<MultiListNodePolicy<CvTradedItem>,0,21,0,BaseVector<MultiListNodePolicy<CvTradedItem>,0>::FDefaultFastVectorAllocator>,FCustomList_Tail_Member<FFastAllocator<MultiListNodePolicy<CvTradedItem>,0,21,0,BaseVector<MultiListNodePolicy<CvTradedItem>,0>::FDefaultFastVectorAllocator> > >::base_iterator_tail::base_iterator_tail, COMDAT
; _this$ = ecx

; 278  : 		base_iterator_tail( TYPE* pFastList ) : m_pFastList( pFastList ) {};

	mov	eax, ecx
	mov	ecx, DWORD PTR _pFastList$[esp-4]
	mov	DWORD PTR [eax], ecx
	ret	4
??0base_iterator_tail@?$FCustomList_Core@U?$MultiListNodePolicy@UCvTradedItem@@@@V?$FFastAllocator@U?$MultiListNodePolicy@UCvTradedItem@@@@$0A@$0BF@$0A@UFDefaultFastVectorAllocator@?$BaseVector@U?$MultiListNodePolicy@UCvTradedItem@@@@$0A@@@@@V?$FCustomList_Tail_Member@V?$FFastAllocator@U?$MultiListNodePolicy@UCvTradedItem@@@@$0A@$0BF@$0A@UFDefaultFastVectorAllocator@?$BaseVector@U?$MultiListNodePolicy@UCvTradedItem@@@@$0A@@@@@@@@@QAE@PAV1@@Z ENDP ; FCustomList_Core<MultiListNodePolicy<CvTradedItem>,FFastAllocator<MultiListNodePolicy<CvTradedItem>,0,21,0,BaseVector<MultiListNodePolicy<CvTradedItem>,0>::FDefaultFastVectorAllocator>,FCustomList_Tail_Member<FFastAllocator<MultiListNodePolicy<CvTradedItem>,0,21,0,BaseVector<MultiListNodePolicy<CvTradedItem>,0>::FDefaultFastVectorAllocator> > >::base_iterator_tail::base_iterator_tail
_TEXT	ENDS
PUBLIC	?Destroy@?$BaseVector@UWeightedElement@?$CvWeightedVector@W4TeamTypes@@$0DP@$00@@$00@@IAEXPAUWeightedElement@?$CvWeightedVector@W4TeamTypes@@$0DP@$00@@I@Z ; BaseVector<CvWeightedVector<enum TeamTypes,63,1>::WeightedElement,1>::Destroy
; Function compile flags: /Ogtpy
; File c:\users\enormousapplepie\desktop\lekmod dll versions\v31\lekmod_dll\fireplace\include\fireworks\ffastvector.h
;	COMDAT ?Destroy@?$BaseVector@UWeightedElement@?$CvWeightedVector@W4TeamTypes@@$0DP@$00@@$00@@IAEXPAUWeightedElement@?$CvWeightedVector@W4TeamTypes@@$0DP@$00@@I@Z
_TEXT	SEGMENT
_pVal$ = 8						; size = 4
_uiNumElements$ = 12					; size = 4
?Destroy@?$BaseVector@UWeightedElement@?$CvWeightedVector@W4TeamTypes@@$0DP@$00@@$00@@IAEXPAUWeightedElement@?$CvWeightedVector@W4TeamTypes@@$0DP@$00@@I@Z PROC ; BaseVector<CvWeightedVector<enum TeamTypes,63,1>::WeightedElement,1>::Destroy, COMDAT
; _this$ = ecx

; 221  : 		if( !bPODType){
; 222  : 			for(unsigned int i = 0; i < uiNumElements; ++i){
; 223  : 				pVal[i].~T();
; 224  : 			}
; 225  : 		}
; 226  : 	};

	ret	8
?Destroy@?$BaseVector@UWeightedElement@?$CvWeightedVector@W4TeamTypes@@$0DP@$00@@$00@@IAEXPAUWeightedElement@?$CvWeightedVector@W4TeamTypes@@$0DP@$00@@I@Z ENDP ; BaseVector<CvWeightedVector<enum TeamTypes,63,1>::WeightedElement,1>::Destroy
_TEXT	ENDS
PUBLIC	??Y?$_Vector_const_iterator@U?$pair@IPAVCvDeal@@@std@@V?$allocator@U?$pair@IPAVCvDeal@@@std@@@2@@std@@QAEAAV01@H@Z ; std::_Vector_const_iterator<std::pair<unsigned int,CvDeal *>,std::allocator<std::pair<unsigned int,CvDeal *> > >::operator+=
; Function compile flags: /Ogtpy
; File c:\program files (x86)\microsoft visual studio 9.0\vc\include\vector
;	COMDAT ??Y?$_Vector_const_iterator@U?$pair@IPAVCvDeal@@@std@@V?$allocator@U?$pair@IPAVCvDeal@@@std@@@2@@std@@QAEAAV01@H@Z
_TEXT	SEGMENT
__Off$ = 8						; size = 4
??Y?$_Vector_const_iterator@U?$pair@IPAVCvDeal@@@std@@V?$allocator@U?$pair@IPAVCvDeal@@@std@@@2@@std@@QAEAAV01@H@Z PROC ; std::_Vector_const_iterator<std::pair<unsigned int,CvDeal *>,std::allocator<std::pair<unsigned int,CvDeal *> > >::operator+=, COMDAT
; _this$ = ecx

; 159  : 		{	// increment by integer

	mov	eax, ecx

; 160  : 		_SCL_SECURE_VALIDATE(this->_Has_container());
; 161  : 		_SCL_SECURE_VALIDATE_RANGE(
; 162  : 			_Myptr + _Off <= ((_Myvec *)(this->_Getmycont()))->_Mylast &&
; 163  : 			_Myptr + _Off >= ((_Myvec *)(this->_Getmycont()))->_Myfirst);
; 164  : 		_Myptr += _Off;

	mov	ecx, DWORD PTR __Off$[esp-4]
	lea	edx, DWORD PTR [ecx*8]
	add	DWORD PTR [eax], edx

; 165  : 		return (*this);
; 166  : 		}

	ret	4
??Y?$_Vector_const_iterator@U?$pair@IPAVCvDeal@@@std@@V?$allocator@U?$pair@IPAVCvDeal@@@std@@@2@@std@@QAEAAV01@H@Z ENDP ; std::_Vector_const_iterator<std::pair<unsigned int,CvDeal *>,std::allocator<std::pair<unsigned int,CvDeal *> > >::operator+=
_TEXT	ENDS
PUBLIC	?FreeAligned@FDefaultFastVectorAllocator@?$BaseVector@U?$MultiListNodePolicy@UCvTradedItem@@@@$0A@@@SAXPAX@Z ; BaseVector<MultiListNodePolicy<CvTradedItem>,0>::FDefaultFastVectorAllocator::FreeAligned
EXTRN	?FireFreeAlignedNoTracking@@YAXPAX@Z:PROC	; FireFreeAlignedNoTracking
; Function compile flags: /Ogtpy
; File c:\users\enormousapplepie\desktop\lekmod dll versions\v31\lekmod_dll\fireplace\include\fireworks\ffastvector.h
;	COMDAT ?FreeAligned@FDefaultFastVectorAllocator@?$BaseVector@U?$MultiListNodePolicy@UCvTradedItem@@@@$0A@@@SAXPAX@Z
_TEXT	SEGMENT
_pBlock$ = 8						; size = 4
?FreeAligned@FDefaultFastVectorAllocator@?$BaseVector@U?$MultiListNodePolicy@UCvTradedItem@@@@$0A@@@SAXPAX@Z PROC ; BaseVector<MultiListNodePolicy<CvTradedItem>,0>::FDefaultFastVectorAllocator::FreeAligned, COMDAT

; 90   : 			FFREEALIGNED( pBlock );

	jmp	?FireFreeAlignedNoTracking@@YAXPAX@Z	; FireFreeAlignedNoTracking
?FreeAligned@FDefaultFastVectorAllocator@?$BaseVector@U?$MultiListNodePolicy@UCvTradedItem@@@@$0A@@@SAXPAX@Z ENDP ; BaseVector<MultiListNodePolicy<CvTradedItem>,0>::FDefaultFastVectorAllocator::FreeAligned
_TEXT	ENDS
PUBLIC	??0?$BaseVector@U?$MultiListNodePolicy@UCvTradedItem@@@@$0A@@@IAE@XZ ; BaseVector<MultiListNodePolicy<CvTradedItem>,0>::BaseVector<MultiListNodePolicy<CvTradedItem>,0>
; Function compile flags: /Ogtpy
;	COMDAT ??0?$BaseVector@U?$MultiListNodePolicy@UCvTradedItem@@@@$0A@@@IAE@XZ
_TEXT	SEGMENT
??0?$BaseVector@U?$MultiListNodePolicy@UCvTradedItem@@@@$0A@@@IAE@XZ PROC ; BaseVector<MultiListNodePolicy<CvTradedItem>,0>::BaseVector<MultiListNodePolicy<CvTradedItem>,0>, COMDAT
; _this$ = ecx

; 216  : 	BaseVector() : m_uiCurrSize(0), m_uiCurrMaxSize(0), m_pData(NULL) {};

	mov	eax, ecx
	xor	ecx, ecx
	mov	DWORD PTR [eax], ecx
	mov	DWORD PTR [eax+4], ecx
	mov	DWORD PTR [eax+8], ecx
	ret	0
??0?$BaseVector@U?$MultiListNodePolicy@UCvTradedItem@@@@$0A@@@IAE@XZ ENDP ; BaseVector<MultiListNodePolicy<CvTradedItem>,0>::BaseVector<MultiListNodePolicy<CvTradedItem>,0>
_TEXT	ENDS
PUBLIC	?AllocAligned@FDefaultFastVectorAllocator@?$BaseVector@U?$MultiListNodePolicy@UCvTradedItem@@@@$0A@@@SAPAXIIII@Z ; BaseVector<MultiListNodePolicy<CvTradedItem>,0>::FDefaultFastVectorAllocator::AllocAligned
; Function compile flags: /Ogtpy
;	COMDAT ?AllocAligned@FDefaultFastVectorAllocator@?$BaseVector@U?$MultiListNodePolicy@UCvTradedItem@@@@$0A@@@SAPAXIIII@Z
_TEXT	SEGMENT
_nBytes$ = 8						; size = 4
_nAlign$ = 12						; size = 4
_nAllocPool$ = 16					; size = 4
_nAllocSubID$ = 20					; size = 4
?AllocAligned@FDefaultFastVectorAllocator@?$BaseVector@U?$MultiListNodePolicy@UCvTradedItem@@@@$0A@@@SAPAXIIII@Z PROC ; BaseVector<MultiListNodePolicy<CvTradedItem>,0>::FDefaultFastVectorAllocator::AllocAligned, COMDAT

; 85   : 			return FMALLOCALIGNED( nBytes, nAlign, nAllocPool, nAllocSubID );

	mov	DWORD PTR _nAllocSubID$[esp-4], 85	; 00000055H
	mov	DWORD PTR _nAllocPool$[esp-4], OFFSET ??_C@_0GP@KFAPCGLJ@c?3?2users?2enormousapplepie?2deskto@
	jmp	?FireMallocAlignedNoTracking@@YAPAXIIPBDH@Z ; FireMallocAlignedNoTracking
?AllocAligned@FDefaultFastVectorAllocator@?$BaseVector@U?$MultiListNodePolicy@UCvTradedItem@@@@$0A@@@SAPAXIIII@Z ENDP ; BaseVector<MultiListNodePolicy<CvTradedItem>,0>::FDefaultFastVectorAllocator::AllocAligned
_TEXT	ENDS
PUBLIC	??$max@H@std@@YAABHABH0@Z			; std::max<int>
; Function compile flags: /Ogtpy
; File c:\program files (x86)\microsoft visual studio 9.0\vc\include\xutility
;	COMDAT ??$max@H@std@@YAABHABH0@Z
_TEXT	SEGMENT
__Left$ = 8						; size = 4
__Right$ = 12						; size = 4
??$max@H@std@@YAABHABH0@Z PROC				; std::max<int>, COMDAT

; 3384 : 	return (_DEBUG_LT(_Left, _Right) ? _Right : _Left);

	mov	eax, DWORD PTR __Left$[esp-4]
	mov	edx, DWORD PTR [eax]
	mov	ecx, DWORD PTR __Right$[esp-4]
	cmp	edx, DWORD PTR [ecx]
	jge	SHORT $LN4@max
	mov	eax, ecx
$LN4@max:

; 3385 : 	}

	ret	0
??$max@H@std@@YAABHABH0@Z ENDP				; std::max<int>
_TEXT	ENDS
PUBLIC	??$?6PBD@@YAAAVString@Localization@@AAV01@ABQBD@Z ; operator<<<char const *>
EXTRN	__imp_?PushArgument@String@Localization@@QAE_NPBD@Z:PROC
; Function compile flags: /Ogtpy
; File c:\users\enormousapplepie\desktop\lekmod dll versions\v31\lekmod_dll\cvlocalization\include\cvlocalization.h
;	COMDAT ??$?6PBD@@YAAAVString@Localization@@AAV01@ABQBD@Z
_TEXT	SEGMENT
_s$ = 8							; size = 4
_val$ = 12						; size = 4
??$?6PBD@@YAAAVString@Localization@@AAV01@ABQBD@Z PROC	; operator<<<char const *>, COMDAT

; 491  : 	s.PushArgument(val);

	mov	eax, DWORD PTR _val$[esp-4]
	mov	ecx, DWORD PTR [eax]
	push	esi
	mov	esi, DWORD PTR _s$[esp]
	push	ecx
	mov	ecx, esi
	call	DWORD PTR __imp_?PushArgument@String@Localization@@QAE_NPBD@Z

; 492  : 	return s;

	mov	eax, esi
	pop	esi

; 493  : }

	ret	0
??$?6PBD@@YAAAVString@Localization@@AAV01@ABQBD@Z ENDP	; operator<<<char const *>
_TEXT	ENDS
PUBLIC	??$min@H@std@@YAABHABH0@Z			; std::min<int>
; Function compile flags: /Ogtpy
; File c:\program files (x86)\microsoft visual studio 9.0\vc\include\xutility
;	COMDAT ??$min@H@std@@YAABHABH0@Z
_TEXT	SEGMENT
__Left$ = 8						; size = 4
__Right$ = 12						; size = 4
??$min@H@std@@YAABHABH0@Z PROC				; std::min<int>, COMDAT

; 3399 : 	return (_DEBUG_LT(_Right, _Left) ? _Right : _Left);

	mov	eax, DWORD PTR __Right$[esp-4]
	mov	edx, DWORD PTR [eax]
	mov	ecx, DWORD PTR __Left$[esp-4]
	cmp	edx, DWORD PTR [ecx]
	jl	SHORT $LN4@min
	mov	eax, ecx
$LN4@min:

; 3400 : 	}

	ret	0
??$min@H@std@@YAABHABH0@Z ENDP				; std::min<int>
_TEXT	ENDS
PUBLIC	__TI2?AVbad_alloc@std@@
PUBLIC	??$_Allocate@U?$pair@IPAVCvDeal@@@std@@@std@@YAPAU?$pair@IPAVCvDeal@@@0@IPAU10@@Z ; std::_Allocate<std::pair<unsigned int,CvDeal *> >
PUBLIC	__CTA2?AVbad_alloc@std@@
PUBLIC	__CT??_R0?AVbad_alloc@std@@@8??0bad_alloc@std@@QAE@ABV01@@Z12
PUBLIC	??0bad_alloc@std@@QAE@ABV01@@Z			; std::bad_alloc::bad_alloc
EXTRN	??2@YAPAXI@Z:PROC				; operator new
;	COMDAT __CT??_R0?AVbad_alloc@std@@@8??0bad_alloc@std@@QAE@ABV01@@Z12
; File c:\program files (x86)\microsoft visual studio 9.0\vc\include\exception
xdata$x	SEGMENT
__CT??_R0?AVbad_alloc@std@@@8??0bad_alloc@std@@QAE@ABV01@@Z12 DD 00H
	DD	FLAT:??_R0?AVbad_alloc@std@@@8
	DD	00H
	DD	0ffffffffH
	ORG $+4
	DD	0cH
	DD	FLAT:??0bad_alloc@std@@QAE@ABV01@@Z
xdata$x	ENDS
;	COMDAT __CTA2?AVbad_alloc@std@@
xdata$x	SEGMENT
__CTA2?AVbad_alloc@std@@ DD 02H
	DD	FLAT:__CT??_R0?AVbad_alloc@std@@@8??0bad_alloc@std@@QAE@ABV01@@Z12
	DD	FLAT:__CT??_R0?AVexception@std@@@8??0exception@std@@QAE@ABV01@@Z12
xdata$x	ENDS
;	COMDAT __TI2?AVbad_alloc@std@@
xdata$x	SEGMENT
__TI2?AVbad_alloc@std@@ DD 00H
	DD	FLAT:??1bad_alloc@std@@UAE@XZ
	DD	00H
	DD	FLAT:__CTA2?AVbad_alloc@std@@
; Function compile flags: /Ogtpy
; File c:\program files (x86)\microsoft visual studio 9.0\vc\include\xmemory
xdata$x	ENDS
;	COMDAT ??$_Allocate@U?$pair@IPAVCvDeal@@@std@@@std@@YAPAU?$pair@IPAVCvDeal@@@0@IPAU10@@Z
_TEXT	SEGMENT
$T225630 = -12						; size = 12
$T225634 = 8						; size = 4
__Count$ = 8						; size = 4
___formal$ = 12						; size = 4
??$_Allocate@U?$pair@IPAVCvDeal@@@std@@@std@@YAPAU?$pair@IPAVCvDeal@@@0@IPAU10@@Z PROC ; std::_Allocate<std::pair<unsigned int,CvDeal *> >, COMDAT

; 37   : 	if (_Count <= 0)

	mov	ecx, DWORD PTR __Count$[esp-4]
	sub	esp, 12					; 0000000cH
	test	ecx, ecx
	ja	SHORT $LN3@Allocate

; 38   : 		_Count = 0;

	xor	ecx, ecx
$LN1@Allocate:

; 41   : 
; 42   : 		// allocate storage for _Count elements of type _Ty
; 43   : 	return ((_Ty _FARQ *)::operator new(_Count * sizeof (_Ty)));

	lea	edx, DWORD PTR [ecx*8]
	push	edx
	call	??2@YAPAXI@Z				; operator new
	add	esp, 4

; 44   : 	}

	add	esp, 12					; 0000000cH
	ret	0
$LN3@Allocate:

; 39   : 	else if (((_SIZT)(-1) / _Count) < sizeof (_Ty))

	or	eax, -1
	xor	edx, edx
	div	ecx
	cmp	eax, 8
	jae	SHORT $LN1@Allocate

; 40   : 		_THROW_NCEE(std::bad_alloc, NULL);

	lea	eax, DWORD PTR $T225634[esp+8]
	push	eax
	lea	ecx, DWORD PTR $T225630[esp+16]
	mov	DWORD PTR $T225634[esp+12], 0
	call	DWORD PTR __imp_??0exception@std@@QAE@ABQBD@Z
	push	OFFSET __TI2?AVbad_alloc@std@@
	lea	ecx, DWORD PTR $T225630[esp+16]
	push	ecx
	mov	DWORD PTR $T225630[esp+20], OFFSET ??_7bad_alloc@std@@6B@
	call	__CxxThrowException@8
$LN9@Allocate:
$LN8@Allocate:
	int	3
??$_Allocate@U?$pair@IPAVCvDeal@@@std@@@std@@YAPAU?$pair@IPAVCvDeal@@@0@IPAU10@@Z ENDP ; std::_Allocate<std::pair<unsigned int,CvDeal *> >
_TEXT	ENDS
PUBLIC	??$_Iter_random@PAU?$pair@IPAVCvDeal@@@std@@PAU12@@std@@YA?AUrandom_access_iterator_tag@0@ABQAU?$pair@IPAVCvDeal@@@0@0@Z ; std::_Iter_random<std::pair<unsigned int,CvDeal *> *,std::pair<unsigned int,CvDeal *> *>
; Function compile flags: /Ogtpy
; File c:\program files (x86)\microsoft visual studio 9.0\vc\include\xutility
;	COMDAT ??$_Iter_random@PAU?$pair@IPAVCvDeal@@@std@@PAU12@@std@@YA?AUrandom_access_iterator_tag@0@ABQAU?$pair@IPAVCvDeal@@@0@0@Z
_TEXT	SEGMENT
___$ReturnUdt$ = 8					; size = 4
___formal$ = 12						; size = 4
___formal$ = 16						; size = 4
??$_Iter_random@PAU?$pair@IPAVCvDeal@@@std@@PAU12@@std@@YA?AUrandom_access_iterator_tag@0@ABQAU?$pair@IPAVCvDeal@@@0@0@Z PROC ; std::_Iter_random<std::pair<unsigned int,CvDeal *> *,std::pair<unsigned int,CvDeal *> *>, COMDAT

; 994  : 	typename _Iter_random_helper<
; 995  : 		iterator_traits<_Iter1>::iterator_category, 
; 996  : 		iterator_traits<_Iter2>::iterator_category>::_Iter_random_cat _Cat;
; 997  : 	return (_Cat);

	mov	eax, DWORD PTR ___$ReturnUdt$[esp-4]

; 998  : 	}

	ret	0
??$_Iter_random@PAU?$pair@IPAVCvDeal@@@std@@PAU12@@std@@YA?AUrandom_access_iterator_tag@0@ABQAU?$pair@IPAVCvDeal@@@0@0@Z ENDP ; std::_Iter_random<std::pair<unsigned int,CvDeal *> *,std::pair<unsigned int,CvDeal *> *>
_TEXT	ENDS
PUBLIC	??$_Ptr_cat@PAU?$pair@IPAVCvDeal@@@std@@PAU12@@std@@YA?AU_Nonscalar_ptr_iterator_tag@0@AAPAU?$pair@IPAVCvDeal@@@0@0@Z ; std::_Ptr_cat<std::pair<unsigned int,CvDeal *> *,std::pair<unsigned int,CvDeal *> *>
; Function compile flags: /Ogtpy
;	COMDAT ??$_Ptr_cat@PAU?$pair@IPAVCvDeal@@@std@@PAU12@@std@@YA?AU_Nonscalar_ptr_iterator_tag@0@AAPAU?$pair@IPAVCvDeal@@@0@0@Z
_TEXT	SEGMENT
__Cat$ = -1						; size = 1
___formal$ = 8						; size = 4
___formal$ = 12						; size = 4
??$_Ptr_cat@PAU?$pair@IPAVCvDeal@@@std@@PAU12@@std@@YA?AU_Nonscalar_ptr_iterator_tag@0@AAPAU?$pair@IPAVCvDeal@@@0@0@Z PROC ; std::_Ptr_cat<std::pair<unsigned int,CvDeal *> *,std::pair<unsigned int,CvDeal *> *>, COMDAT

; 1509 : 	{

	push	ecx

; 1510 : 	typename _Ptr_cat_helper<_T1, _T2>::_Ptr_cat _Cat;
; 1511 : 	return (_Cat);

	mov	al, BYTE PTR __Cat$[esp+4]

; 1512 : 	}

	pop	ecx
	ret	0
??$_Ptr_cat@PAU?$pair@IPAVCvDeal@@@std@@PAU12@@std@@YA?AU_Nonscalar_ptr_iterator_tag@0@AAPAU?$pair@IPAVCvDeal@@@0@0@Z ENDP ; std::_Ptr_cat<std::pair<unsigned int,CvDeal *> *,std::pair<unsigned int,CvDeal *> *>
_TEXT	ENDS
PUBLIC	??$_Copy_opt@PAU?$pair@IPAVCvDeal@@@std@@PAU12@Urandom_access_iterator_tag@2@@std@@YAPAU?$pair@IPAVCvDeal@@@0@PAU10@00Urandom_access_iterator_tag@0@U_Nonscalar_ptr_iterator_tag@0@U_Range_checked_iterator_tag@0@@Z ; std::_Copy_opt<std::pair<unsigned int,CvDeal *> *,std::pair<unsigned int,CvDeal *> *,std::random_access_iterator_tag>
; Function compile flags: /Ogtpy
;	COMDAT ??$_Copy_opt@PAU?$pair@IPAVCvDeal@@@std@@PAU12@Urandom_access_iterator_tag@2@@std@@YAPAU?$pair@IPAVCvDeal@@@0@PAU10@00Urandom_access_iterator_tag@0@U_Nonscalar_ptr_iterator_tag@0@U_Range_checked_iterator_tag@0@@Z
_TEXT	SEGMENT
__First$ = 8						; size = 4
__Last$ = 12						; size = 4
__Dest$ = 16						; size = 4
___formal$ = 20						; size = 1
___formal$ = 24						; size = 1
___formal$ = 28						; size = 1
??$_Copy_opt@PAU?$pair@IPAVCvDeal@@@std@@PAU12@Urandom_access_iterator_tag@2@@std@@YAPAU?$pair@IPAVCvDeal@@@0@PAU10@00Urandom_access_iterator_tag@0@U_Nonscalar_ptr_iterator_tag@0@U_Range_checked_iterator_tag@0@@Z PROC ; std::_Copy_opt<std::pair<unsigned int,CvDeal *> *,std::pair<unsigned int,CvDeal *> *,std::random_access_iterator_tag>, COMDAT

; 2470 : 	_DEBUG_RANGE(_First, _Last);
; 2471 : 	for (; _First != _Last; ++_Dest, ++_First)

	mov	ecx, DWORD PTR __First$[esp-4]
	mov	edx, DWORD PTR __Last$[esp-4]
	mov	eax, DWORD PTR __Dest$[esp-4]
	cmp	ecx, edx
	je	SHORT $LN1@Copy_opt
	push	esi
$LL3@Copy_opt:

; 2472 : 		*_Dest = *_First;

	mov	esi, DWORD PTR [ecx]
	mov	DWORD PTR [eax], esi
	mov	esi, DWORD PTR [ecx+4]
	mov	DWORD PTR [eax+4], esi
	add	ecx, 8
	add	eax, 8
	cmp	ecx, edx
	jne	SHORT $LL3@Copy_opt
	pop	esi
$LN1@Copy_opt:

; 2473 : 	return (_Dest);
; 2474 : 	}

	ret	0
??$_Copy_opt@PAU?$pair@IPAVCvDeal@@@std@@PAU12@Urandom_access_iterator_tag@2@@std@@YAPAU?$pair@IPAVCvDeal@@@0@PAU10@00Urandom_access_iterator_tag@0@U_Nonscalar_ptr_iterator_tag@0@U_Range_checked_iterator_tag@0@@Z ENDP ; std::_Copy_opt<std::pair<unsigned int,CvDeal *> *,std::pair<unsigned int,CvDeal *> *,std::random_access_iterator_tag>
_TEXT	ENDS
PUBLIC	??$_Fill@PAU?$pair@IPAVCvDeal@@@std@@U12@@std@@YAXPAU?$pair@IPAVCvDeal@@@0@0ABU10@@Z ; std::_Fill<std::pair<unsigned int,CvDeal *> *,std::pair<unsigned int,CvDeal *> >
; Function compile flags: /Ogtpy
;	COMDAT ??$_Fill@PAU?$pair@IPAVCvDeal@@@std@@U12@@std@@YAXPAU?$pair@IPAVCvDeal@@@0@0ABU10@@Z
_TEXT	SEGMENT
__First$ = 8						; size = 4
__Last$ = 12						; size = 4
__Val$ = 16						; size = 4
??$_Fill@PAU?$pair@IPAVCvDeal@@@std@@U12@@std@@YAXPAU?$pair@IPAVCvDeal@@@0@0ABU10@@Z PROC ; std::_Fill<std::pair<unsigned int,CvDeal *> *,std::pair<unsigned int,CvDeal *> >, COMDAT

; 3157 : 	_DEBUG_RANGE(_First, _Last);
; 3158 : 	for (; _First != _Last; ++_First)

	mov	eax, DWORD PTR __First$[esp-4]
	mov	edx, DWORD PTR __Last$[esp-4]
	cmp	eax, edx
	je	SHORT $LN1@Fill
	mov	ecx, DWORD PTR __Val$[esp-4]
	push	esi
$LL3@Fill:

; 3159 : 		*_First = _Val;

	mov	esi, DWORD PTR [ecx]
	mov	DWORD PTR [eax], esi
	mov	esi, DWORD PTR [ecx+4]
	mov	DWORD PTR [eax+4], esi
	add	eax, 8
	cmp	eax, edx
	jne	SHORT $LL3@Fill
	pop	esi
$LN1@Fill:

; 3160 : 	}

	ret	0
??$_Fill@PAU?$pair@IPAVCvDeal@@@std@@U12@@std@@YAXPAU?$pair@IPAVCvDeal@@@0@0ABU10@@Z ENDP ; std::_Fill<std::pair<unsigned int,CvDeal *> *,std::pair<unsigned int,CvDeal *> >
_TEXT	ENDS
PUBLIC	??$_Move_cat@PAU?$pair@IPAVCvDeal@@@std@@@std@@YA?AU_Undefined_move_tag@0@ABQAU?$pair@IPAVCvDeal@@@0@@Z ; std::_Move_cat<std::pair<unsigned int,CvDeal *> *>
; Function compile flags: /Ogtpy
;	COMDAT ??$_Move_cat@PAU?$pair@IPAVCvDeal@@@std@@@std@@YA?AU_Undefined_move_tag@0@ABQAU?$pair@IPAVCvDeal@@@0@@Z
_TEXT	SEGMENT
__Cat$ = -1						; size = 1
___formal$ = 8						; size = 4
??$_Move_cat@PAU?$pair@IPAVCvDeal@@@std@@@std@@YA?AU_Undefined_move_tag@0@ABQAU?$pair@IPAVCvDeal@@@0@@Z PROC ; std::_Move_cat<std::pair<unsigned int,CvDeal *> *>, COMDAT

; 1200 : 	{

	push	ecx

; 1201 : 		typename _Move_operation_category<typename iterator_traits<_Iter>::value_type>::_Move_cat _Cat;
; 1202 : 		return (_Cat);

	mov	al, BYTE PTR __Cat$[esp+4]

; 1203 : 	}

	pop	ecx
	ret	0
??$_Move_cat@PAU?$pair@IPAVCvDeal@@@std@@@std@@YA?AU_Undefined_move_tag@0@ABQAU?$pair@IPAVCvDeal@@@0@@Z ENDP ; std::_Move_cat<std::pair<unsigned int,CvDeal *> *>
_TEXT	ENDS
PUBLIC	??$_Copy_backward_opt@PAU?$pair@IPAVCvDeal@@@std@@PAU12@Urandom_access_iterator_tag@2@@std@@YAPAU?$pair@IPAVCvDeal@@@0@PAU10@00Urandom_access_iterator_tag@0@U_Nonscalar_ptr_iterator_tag@0@U_Range_checked_iterator_tag@0@@Z ; std::_Copy_backward_opt<std::pair<unsigned int,CvDeal *> *,std::pair<unsigned int,CvDeal *> *,std::random_access_iterator_tag>
; Function compile flags: /Ogtpy
;	COMDAT ??$_Copy_backward_opt@PAU?$pair@IPAVCvDeal@@@std@@PAU12@Urandom_access_iterator_tag@2@@std@@YAPAU?$pair@IPAVCvDeal@@@0@PAU10@00Urandom_access_iterator_tag@0@U_Nonscalar_ptr_iterator_tag@0@U_Range_checked_iterator_tag@0@@Z
_TEXT	SEGMENT
__First$ = 8						; size = 4
__Last$ = 12						; size = 4
__Dest$ = 16						; size = 4
___formal$ = 20						; size = 1
___formal$ = 24						; size = 1
___formal$ = 28						; size = 1
??$_Copy_backward_opt@PAU?$pair@IPAVCvDeal@@@std@@PAU12@Urandom_access_iterator_tag@2@@std@@YAPAU?$pair@IPAVCvDeal@@@0@PAU10@00Urandom_access_iterator_tag@0@U_Nonscalar_ptr_iterator_tag@0@U_Range_checked_iterator_tag@0@@Z PROC ; std::_Copy_backward_opt<std::pair<unsigned int,CvDeal *> *,std::pair<unsigned int,CvDeal *> *,std::random_access_iterator_tag>, COMDAT

; 2674 : 	_DEBUG_RANGE(_First, _Last);
; 2675 : 	while (_First != _Last)

	mov	edx, DWORD PTR __First$[esp-4]
	mov	ecx, DWORD PTR __Last$[esp-4]
	mov	eax, DWORD PTR __Dest$[esp-4]
	cmp	edx, ecx
	je	SHORT $LN1@Copy_backw
	push	esi
$LL2@Copy_backw:

; 2676 : 		*--_Dest = *--_Last;

	mov	esi, DWORD PTR [ecx-8]
	sub	ecx, 8
	sub	eax, 8
	mov	DWORD PTR [eax], esi
	mov	esi, DWORD PTR [ecx+4]
	mov	DWORD PTR [eax+4], esi
	cmp	ecx, edx
	jne	SHORT $LL2@Copy_backw
	pop	esi
$LN1@Copy_backw:

; 2677 : 	return (_Dest);
; 2678 : 	}

	ret	0
??$_Copy_backward_opt@PAU?$pair@IPAVCvDeal@@@std@@PAU12@Urandom_access_iterator_tag@2@@std@@YAPAU?$pair@IPAVCvDeal@@@0@PAU10@00Urandom_access_iterator_tag@0@U_Nonscalar_ptr_iterator_tag@0@U_Range_checked_iterator_tag@0@@Z ENDP ; std::_Copy_backward_opt<std::pair<unsigned int,CvDeal *> *,std::pair<unsigned int,CvDeal *> *,std::random_access_iterator_tag>
_TEXT	ENDS
PUBLIC	??$_Construct@U?$pair@IPAVCvDeal@@@std@@U12@@std@@YAXPAU?$pair@IPAVCvDeal@@@0@ABU10@@Z ; std::_Construct<std::pair<unsigned int,CvDeal *>,std::pair<unsigned int,CvDeal *> >
; Function compile flags: /Ogtpy
; File c:\program files (x86)\microsoft visual studio 9.0\vc\include\xmemory
;	COMDAT ??$_Construct@U?$pair@IPAVCvDeal@@@std@@U12@@std@@YAXPAU?$pair@IPAVCvDeal@@@0@ABU10@@Z
_TEXT	SEGMENT
__Ptr$ = 8						; size = 4
__Val$ = 12						; size = 4
??$_Construct@U?$pair@IPAVCvDeal@@@std@@U12@@std@@YAXPAU?$pair@IPAVCvDeal@@@0@ABU10@@Z PROC ; std::_Construct<std::pair<unsigned int,CvDeal *>,std::pair<unsigned int,CvDeal *> >, COMDAT

; 51   : 	void _FARQ *_Vptr = _Ptr;
; 52   : 	::new (_Vptr) _T1(_Val);

	mov	eax, DWORD PTR __Ptr$[esp-4]
	test	eax, eax
	je	SHORT $LN3@Construct
	mov	ecx, DWORD PTR __Val$[esp-4]
	mov	edx, DWORD PTR [ecx]
	mov	DWORD PTR [eax], edx
	mov	ecx, DWORD PTR [ecx+4]
	mov	DWORD PTR [eax+4], ecx
$LN3@Construct:

; 53   : 	}

	ret	0
??$_Construct@U?$pair@IPAVCvDeal@@@std@@U12@@std@@YAXPAU?$pair@IPAVCvDeal@@@0@ABU10@@Z ENDP ; std::_Construct<std::pair<unsigned int,CvDeal *>,std::pair<unsigned int,CvDeal *> >
_TEXT	ENDS
PUBLIC	??$_Destroy@U?$pair@IPAVCvDeal@@@std@@@std@@YAXPAU?$pair@IPAVCvDeal@@@0@@Z ; std::_Destroy<std::pair<unsigned int,CvDeal *> >
; Function compile flags: /Ogtpy
;	COMDAT ??$_Destroy@U?$pair@IPAVCvDeal@@@std@@@std@@YAXPAU?$pair@IPAVCvDeal@@@0@@Z
_TEXT	SEGMENT
__Ptr$ = 8						; size = 4
??$_Destroy@U?$pair@IPAVCvDeal@@@std@@@std@@YAXPAU?$pair@IPAVCvDeal@@@0@@Z PROC ; std::_Destroy<std::pair<unsigned int,CvDeal *> >, COMDAT

; 59   : 	_DESTRUCTOR(_Ty, _Ptr);
; 60   : 	}

	ret	0
??$_Destroy@U?$pair@IPAVCvDeal@@@std@@@std@@YAXPAU?$pair@IPAVCvDeal@@@0@@Z ENDP ; std::_Destroy<std::pair<unsigned int,CvDeal *> >
_TEXT	ENDS
EXTRN	__imp_??0exception@std@@QAE@ABV01@@Z:PROC
;	COMDAT xdata$x
xdata$x	SEGMENT
__unwindtable$??0logic_error@std@@QAE@ABV01@@Z DD 0ffffffffH
	DD	FLAT:__unwindfunclet$??0logic_error@std@@QAE@ABV01@@Z$0
__ehfuncinfo$??0logic_error@std@@QAE@ABV01@@Z DD 019930522H
	DD	01H
	DD	FLAT:__unwindtable$??0logic_error@std@@QAE@ABV01@@Z
	DD	2 DUP(00H)
	DD	2 DUP(00H)
	DD	00H
	DD	01H
; Function compile flags: /Ogtpy
xdata$x	ENDS
;	COMDAT ??0logic_error@std@@QAE@ABV01@@Z
_TEXT	SEGMENT
_this$ = -16						; size = 4
__$EHRec$ = -12						; size = 12
___that$ = 8						; size = 4
??0logic_error@std@@QAE@ABV01@@Z PROC			; std::logic_error::logic_error, COMDAT
; _this$ = ecx
	push	-1
	push	__ehhandler$??0logic_error@std@@QAE@ABV01@@Z
	mov	eax, DWORD PTR fs:0
	push	eax
	mov	DWORD PTR fs:0, esp
	push	ecx
	push	esi
	push	edi
	mov	edi, DWORD PTR ___that$[esp+20]
	mov	esi, ecx
	push	edi
	mov	DWORD PTR _this$[esp+28], esi
	call	DWORD PTR __imp_??0exception@std@@QAE@ABV01@@Z
	add	edi, 12					; 0000000cH
	push	edi
	lea	ecx, DWORD PTR [esi+12]
	mov	DWORD PTR __$EHRec$[esp+36], 0
	mov	DWORD PTR [esi], OFFSET ??_7logic_error@std@@6B@
	call	DWORD PTR __imp_??0?$basic_string@DU?$char_traits@D@std@@V?$allocator@D@2@@std@@QAE@ABV01@@Z
	mov	ecx, DWORD PTR __$EHRec$[esp+24]
	pop	edi
	mov	eax, esi
	pop	esi
	mov	DWORD PTR fs:0, ecx
	add	esp, 16					; 00000010H
	ret	4
_TEXT	ENDS
;	COMDAT text$x
text$x	SEGMENT
__unwindfunclet$??0logic_error@std@@QAE@ABV01@@Z$0:
	mov	ecx, DWORD PTR _this$[ebp]
	jmp	DWORD PTR __imp_??1exception@std@@UAE@XZ
__ehhandler$??0logic_error@std@@QAE@ABV01@@Z:
	mov	eax, OFFSET __ehfuncinfo$??0logic_error@std@@QAE@ABV01@@Z
	jmp	___CxxFrameHandler3
text$x	ENDS
??0logic_error@std@@QAE@ABV01@@Z ENDP			; std::logic_error::logic_error
PUBLIC	??0CvString@@QAE@XZ				; CvString::CvString
EXTRN	__imp_??0?$basic_string@DU?$char_traits@D@std@@V?$allocator@D@2@@std@@QAE@XZ:PROC
; Function compile flags: /Ogtpy
; File c:\users\enormousapplepie\desktop\lekmod dll versions\v31\lekmod_dll\cvgamecoredllutil\include\cvstring.h
;	COMDAT ??0CvString@@QAE@XZ
_TEXT	SEGMENT
??0CvString@@QAE@XZ PROC				; CvString::CvString, COMDAT
; _this$ = ecx

; 23   : 	CvString() {}

	push	esi
	mov	esi, ecx
	call	DWORD PTR __imp_??0?$basic_string@DU?$char_traits@D@std@@V?$allocator@D@2@@std@@QAE@XZ
	mov	eax, esi
	pop	esi
	ret	0
??0CvString@@QAE@XZ ENDP				; CvString::CvString
_TEXT	ENDS
PUBLIC	??_C@_00CNPNBAHC@?$AA@				; `string'
PUBLIC	??0CvString@@QAE@PBD@Z				; CvString::CvString
;	COMDAT ??_C@_00CNPNBAHC@?$AA@
CONST	SEGMENT
??_C@_00CNPNBAHC@?$AA@ DB 00H				; `string'
; Function compile flags: /Ogtpy
CONST	ENDS
;	COMDAT ??0CvString@@QAE@PBD@Z
_TEXT	SEGMENT
_s$ = 8							; size = 4
??0CvString@@QAE@PBD@Z PROC				; CvString::CvString, COMDAT
; _this$ = ecx

; 25   : 	CvString(const char* s) : std::string(s ? s : "") {CvAssertMsg(s != NULL, "Passing NULL to std::string; possible heap corruption!");}

	mov	eax, DWORD PTR _s$[esp-4]
	push	esi
	mov	esi, ecx
	test	eax, eax
	jne	SHORT $LN4@CvString
	mov	eax, OFFSET ??_C@_00CNPNBAHC@?$AA@
$LN4@CvString:
	push	eax
	call	DWORD PTR __imp_??0?$basic_string@DU?$char_traits@D@std@@V?$allocator@D@2@@std@@QAE@PBD@Z
	mov	eax, esi
	pop	esi
	ret	4
??0CvString@@QAE@PBD@Z ENDP				; CvString::CvString
_TEXT	ENDS
PUBLIC	??1CvString@@QAE@XZ				; CvString::~CvString
; Function compile flags: /Ogtpy
;	COMDAT ??1CvString@@QAE@XZ
_TEXT	SEGMENT
??1CvString@@QAE@XZ PROC				; CvString::~CvString, COMDAT
; _this$ = ecx

; 28   : 	~CvString() {}

	jmp	DWORD PTR __imp_??1?$basic_string@DU?$char_traits@D@std@@V?$allocator@D@2@@std@@QAE@XZ
??1CvString@@QAE@XZ ENDP				; CvString::~CvString
_TEXT	ENDS
PUBLIC	??BCvString@@QBEPBDXZ				; CvString::operator char const *
; Function compile flags: /Ogtpy
;	COMDAT ??BCvString@@QBEPBDXZ
_TEXT	SEGMENT
??BCvString@@QBEPBDXZ PROC				; CvString::operator char const *, COMDAT
; _this$ = ecx

; 31   : 	operator const char*() const 	{ return c_str(); }												

	jmp	DWORD PTR __imp_?c_str@?$basic_string@DU?$char_traits@D@std@@V?$allocator@D@2@@std@@QBEPBDXZ
??BCvString@@QBEPBDXZ ENDP				; CvString::operator char const *
_TEXT	ENDS
PUBLIC	??4CvString@@QAEAAV0@PBD@Z			; CvString::operator=
EXTRN	__imp_?clear@?$basic_string@DU?$char_traits@D@std@@V?$allocator@D@2@@std@@QAEXXZ:PROC
EXTRN	__imp_?assign@?$basic_string@DU?$char_traits@D@std@@V?$allocator@D@2@@std@@QAEAAV12@PBD@Z:PROC
; Function compile flags: /Ogtpy
;	COMDAT ??4CvString@@QAEAAV0@PBD@Z
_TEXT	SEGMENT
_s$ = 8							; size = 4
??4CvString@@QAEAAV0@PBD@Z PROC				; CvString::operator=, COMDAT
; _this$ = ecx

; 37   : 	CvString& operator=( const char* s) { if (s) assign(s); else clear();	return *this; }	

	mov	eax, DWORD PTR _s$[esp-4]
	push	esi
	mov	esi, ecx
	test	eax, eax
	je	SHORT $LN2@operator@2
	push	eax
	call	DWORD PTR __imp_?assign@?$basic_string@DU?$char_traits@D@std@@V?$allocator@D@2@@std@@QAEAAV12@PBD@Z
	mov	eax, esi
	pop	esi
	ret	4
$LN2@operator@2:
	call	DWORD PTR __imp_?clear@?$basic_string@DU?$char_traits@D@std@@V?$allocator@D@2@@std@@QAEXXZ
	mov	eax, esi
	pop	esi
	ret	4
??4CvString@@QAEAAV0@PBD@Z ENDP				; CvString::operator=
_TEXT	ENDS
PUBLIC	??4CvString@@QAEAAV0@ABV?$basic_string@DU?$char_traits@D@std@@V?$allocator@D@2@@std@@@Z ; CvString::operator=
; Function compile flags: /Ogtpy
;	COMDAT ??4CvString@@QAEAAV0@ABV?$basic_string@DU?$char_traits@D@std@@V?$allocator@D@2@@std@@@Z
_TEXT	SEGMENT
_s$ = 8							; size = 4
??4CvString@@QAEAAV0@ABV?$basic_string@DU?$char_traits@D@std@@V?$allocator@D@2@@std@@@Z PROC ; CvString::operator=, COMDAT
; _this$ = ecx

; 38   : 	CvString& operator=( const std::string& s) { assign(s.c_str());	return *this; }	

	push	esi
	mov	esi, ecx
	mov	ecx, DWORD PTR _s$[esp]
	call	DWORD PTR __imp_?c_str@?$basic_string@DU?$char_traits@D@std@@V?$allocator@D@2@@std@@QBEPBDXZ
	push	eax
	mov	ecx, esi
	call	DWORD PTR __imp_?assign@?$basic_string@DU?$char_traits@D@std@@V?$allocator@D@2@@std@@QAEAAV12@PBD@Z
	mov	eax, esi
	pop	esi
	ret	4
??4CvString@@QAEAAV0@ABV?$basic_string@DU?$char_traits@D@std@@V?$allocator@D@2@@std@@@Z ENDP ; CvString::operator=
_TEXT	ENDS
PUBLIC	?GetCString@CvString@@QBEPBDXZ			; CvString::GetCString
; Function compile flags: /Ogtpy
;	COMDAT ?GetCString@CvString@@QBEPBDXZ
_TEXT	SEGMENT
?GetCString@CvString@@QBEPBDXZ PROC			; CvString::GetCString, COMDAT
; _this$ = ecx

; 42   : 	const char* GetCString() const 	{ return c_str(); }

	jmp	DWORD PTR __imp_?c_str@?$basic_string@DU?$char_traits@D@std@@V?$allocator@D@2@@std@@QBEPBDXZ
?GetCString@CvString@@QBEPBDXZ ENDP			; CvString::GetCString
_TEXT	ENDS
PUBLIC	?formatv@CvString@@SA_NAAV?$basic_string@DU?$char_traits@D@std@@V?$allocator@D@2@@std@@PBDPAD@Z ; CvString::formatv
EXTRN	__imp_??4?$basic_string@DU?$char_traits@D@std@@V?$allocator@D@2@@std@@QAEAAV01@PBD@Z:PROC
EXTRN	??_U@YAPAXI@Z:PROC				; operator new[]
EXTRN	??_V@YAXPAX@Z:PROC				; operator delete[]
EXTRN	__imp___vsnprintf:PROC
; Function compile flags: /Ogtpy
;	COMDAT ?formatv@CvString@@SA_NAAV?$basic_string@DU?$char_traits@D@std@@V?$allocator@D@2@@std@@PBDPAD@Z
_TEXT	SEGMENT
_buf$ = -2048						; size = 2048
_out$ = 8						; size = 4
_fmt$ = 12						; size = 4
_args$ = 16						; size = 4
?formatv@CvString@@SA_NAAV?$basic_string@DU?$char_traits@D@std@@V?$allocator@D@2@@std@@PBDPAD@Z PROC ; CvString::formatv, COMDAT

; 191  : {

	sub	esp, 2048				; 00000800H
	push	ebx
	push	ebp

; 192  : 	char buf[2048];
; 193  : 	char * pbuf = buf;

	mov	ebp, DWORD PTR _args$[esp+2052]
	push	esi
	push	edi
	lea	edi, DWORD PTR _buf$[esp+2064]
	mov	esi, 2047				; 000007ffH
	npad	6
$LL10@formatv:

; 194  : 	int len = 0;
; 195  : 	int attempts = 0;
; 196  : 	bool success = false;
; 197  : 	const int kMaxAttempts = 40;
; 198  : 
; 199  : 	do
; 200  : 	{
; 201  : 		int maxlen = 2047+2048*attempts;
; 202  : 		len = _vsnprintf(pbuf,maxlen,fmt,args);

	mov	eax, DWORD PTR _fmt$[esp+2060]
	push	ebp
	push	eax
	push	esi
	push	edi
	mov	ebx, esi
	call	DWORD PTR __imp___vsnprintf
	add	esp, 16					; 00000010H

; 203  : 		attempts++;

	add	esi, 2048				; 00000800H

; 204  : 		success = (len>=0 && len<=maxlen);

	test	eax, eax
	jl	SHORT $LN13@formatv
	cmp	eax, ebx
	jle	SHORT $LN18@formatv
$LN13@formatv:

; 205  : 		if (!success)
; 206  : 		{
; 207  : 			if (pbuf!=buf)

	lea	ecx, DWORD PTR _buf$[esp+2064]
	xor	bl, bl
	cmp	edi, ecx
	je	SHORT $LN6@formatv

; 208  : 				delete [] pbuf;

	push	edi
	call	??_V@YAXPAX@Z				; operator delete[]
	add	esp, 4
$LN6@formatv:

; 209  : 			pbuf = new char[2048+2048*attempts];

	lea	edx, DWORD PTR [esi+1]
	push	edx
	call	??_U@YAPAXI@Z				; operator new[]
	add	esp, 4

; 210  : 		}
; 211  : 	}
; 212  : 	while (!success && attempts<kMaxAttempts);

	cmp	esi, 83967				; 000147ffH
	mov	edi, eax
	jl	SHORT $LL10@formatv

; 222  : 		out = "";

	push	OFFSET ??_C@_00CNPNBAHC@?$AA@
$LN21@formatv:
	mov	ecx, DWORD PTR _out$[esp+2064]
	call	DWORD PTR __imp_??4?$basic_string@DU?$char_traits@D@std@@V?$allocator@D@2@@std@@QAEAAV01@PBD@Z

; 223  : 
; 224  : 	if (pbuf!=buf)

	lea	eax, DWORD PTR _buf$[esp+2064]
	cmp	edi, eax
	je	SHORT $LN20@formatv

; 225  : 		delete [] pbuf;

	push	edi
	call	??_V@YAXPAX@Z				; operator delete[]
	add	esp, 4
$LN20@formatv:
	pop	edi
	pop	esi
	pop	ebp

; 226  : 
; 227  : 	return success;

	mov	al, bl
	pop	ebx

; 228  : }

	add	esp, 2048				; 00000800H
	ret	0
$LN18@formatv:

; 204  : 		success = (len>=0 && len<=maxlen);

	mov	bl, 1

; 213  : 
; 214  : 	if ( attempts==kMaxAttempts )
; 215  : 	{
; 216  : 		// dxPrintNL( "CvString::formatv - Max reallocs occurred while formatting string. Result is likely truncated!", 0 );
; 217  : 	}
; 218  : 
; 219  : 	if (success)
; 220  : 		out = pbuf;

	push	edi

; 221  : 	else

	jmp	SHORT $LN21@formatv
?formatv@CvString@@SA_NAAV?$basic_string@DU?$char_traits@D@std@@V?$allocator@D@2@@std@@PBDPAD@Z ENDP ; CvString::formatv
_TEXT	ENDS
PUBLIC	?Format@CvString@@QAAXPBDZZ			; CvString::Format
;	COMDAT xdata$x
xdata$x	SEGMENT
__unwindtable$?Format@CvString@@QAAXPBDZZ DD 0ffffffffH
	DD	FLAT:__unwindfunclet$?Format@CvString@@QAAXPBDZZ$0
__ehfuncinfo$?Format@CvString@@QAAXPBDZZ DD 019930522H
	DD	01H
	DD	FLAT:__unwindtable$?Format@CvString@@QAAXPBDZZ
	DD	2 DUP(00H)
	DD	2 DUP(00H)
	DD	00H
	DD	01H
; Function compile flags: /Ogtpy
xdata$x	ENDS
;	COMDAT ?Format@CvString@@QAAXPBDZZ
_TEXT	SEGMENT
_result$ = -40						; size = 28
__$EHRec$ = -12						; size = 12
_this$ = 8						; size = 4
_lpszFormat$ = 12					; size = 4
?Format@CvString@@QAAXPBDZZ PROC			; CvString::Format, COMDAT

; 269  : {

	push	-1
	push	__ehhandler$?Format@CvString@@QAAXPBDZZ
	mov	eax, DWORD PTR fs:0
	push	eax
	mov	DWORD PTR fs:0, esp
	sub	esp, 28					; 0000001cH

; 270  : 	std::string result;

	lea	ecx, DWORD PTR _result$[esp+40]
	call	DWORD PTR __imp_??0?$basic_string@DU?$char_traits@D@std@@V?$allocator@D@2@@std@@QAE@XZ

; 271  : 	va_list args;
; 272  : 	va_start(args,lpszFormat);
; 273  : 	formatv(result,lpszFormat,args);

	mov	ecx, DWORD PTR _lpszFormat$[esp+36]
	lea	eax, DWORD PTR _lpszFormat$[esp+40]
	push	eax
	push	ecx
	lea	edx, DWORD PTR _result$[esp+48]
	push	edx
	mov	DWORD PTR __$EHRec$[esp+60], 0
	call	?formatv@CvString@@SA_NAAV?$basic_string@DU?$char_traits@D@std@@V?$allocator@D@2@@std@@PBDPAD@Z ; CvString::formatv
	add	esp, 12					; 0000000cH

; 274  : 	va_end(args);
; 275  : 	*this = result;

	lea	ecx, DWORD PTR _result$[esp+40]
	call	DWORD PTR __imp_?c_str@?$basic_string@DU?$char_traits@D@std@@V?$allocator@D@2@@std@@QBEPBDXZ
	mov	ecx, DWORD PTR _this$[esp+36]
	push	eax
	call	DWORD PTR __imp_?assign@?$basic_string@DU?$char_traits@D@std@@V?$allocator@D@2@@std@@QAEAAV12@PBD@Z

; 276  : }

	lea	ecx, DWORD PTR _result$[esp+40]
	mov	DWORD PTR __$EHRec$[esp+48], -1
	call	DWORD PTR __imp_??1?$basic_string@DU?$char_traits@D@std@@V?$allocator@D@2@@std@@QAE@XZ
	mov	ecx, DWORD PTR __$EHRec$[esp+40]
	mov	DWORD PTR fs:0, ecx
	add	esp, 40					; 00000028H
	ret	0
_TEXT	ENDS
;	COMDAT text$x
text$x	SEGMENT
__unwindfunclet$?Format@CvString@@QAAXPBDZZ$0:
	lea	ecx, DWORD PTR _result$[ebp]
	jmp	DWORD PTR __imp_??1?$basic_string@DU?$char_traits@D@std@@V?$allocator@D@2@@std@@QAE@XZ
__ehhandler$?Format@CvString@@QAAXPBDZZ:
	mov	eax, OFFSET __ehfuncinfo$?Format@CvString@@QAAXPBDZZ
	jmp	___CxxFrameHandler3
text$x	ENDS
?Format@CvString@@QAAXPBDZZ ENDP			; CvString::Format
PUBLIC	??CCvLuaArgsHandle@@QBEPAVICvEngineScriptSystemArgs1@@XZ ; CvLuaArgsHandle::operator->
; Function compile flags: /Ogtpy
; File c:\users\enormousapplepie\desktop\lekmod dll versions\v31\lekmod_dll\cvgamecoredll_expansion2\lua\cvluaargshandle.h
;	COMDAT ??CCvLuaArgsHandle@@QBEPAVICvEngineScriptSystemArgs1@@XZ
_TEXT	SEGMENT
??CCvLuaArgsHandle@@QBEPAVICvEngineScriptSystemArgs1@@XZ PROC ; CvLuaArgsHandle::operator->, COMDAT
; _this$ = ecx

; 40   : 	return m_Ptr;

	mov	eax, DWORD PTR [ecx]

; 41   : }

	ret	0
??CCvLuaArgsHandle@@QBEPAVICvEngineScriptSystemArgs1@@XZ ENDP ; CvLuaArgsHandle::operator->
_TEXT	ENDS
PUBLIC	?get@CvLuaArgsHandle@@QBEPAVICvEngineScriptSystemArgs1@@XZ ; CvLuaArgsHandle::get
; Function compile flags: /Ogtpy
;	COMDAT ?get@CvLuaArgsHandle@@QBEPAVICvEngineScriptSystemArgs1@@XZ
_TEXT	SEGMENT
?get@CvLuaArgsHandle@@QBEPAVICvEngineScriptSystemArgs1@@XZ PROC ; CvLuaArgsHandle::get, COMDAT
; _this$ = ecx

; 45   : 	return m_Ptr;

	mov	eax, DWORD PTR [ecx]

; 46   : }

	ret	0
?get@CvLuaArgsHandle@@QBEPAVICvEngineScriptSystemArgs1@@XZ ENDP ; CvLuaArgsHandle::get
_TEXT	ENDS
PUBLIC	?GetDescriptionKey@CvBaseInfo@@QBEPBDXZ		; CvBaseInfo::GetDescriptionKey
; Function compile flags: /Ogtpy
; File c:\users\enormousapplepie\desktop\lekmod dll versions\v31\lekmod_dll\cvgamecoredll_expansion2\cvinfos.h
;	COMDAT ?GetDescriptionKey@CvBaseInfo@@QBEPBDXZ
_TEXT	SEGMENT
?GetDescriptionKey@CvBaseInfo@@QBEPBDXZ PROC		; CvBaseInfo::GetDescriptionKey, COMDAT
; _this$ = ecx

; 69   : 		return m_strDescriptionKey.c_str();

	add	ecx, 64					; 00000040H
	jmp	DWORD PTR __imp_?c_str@?$basic_string@DU?$char_traits@D@std@@V?$allocator@D@2@@std@@QBEPBDXZ
?GetDescriptionKey@CvBaseInfo@@QBEPBDXZ ENDP		; CvBaseInfo::GetDescriptionKey
_TEXT	ENDS
PUBLIC	?GetType@CvBaseInfo@@QBEPBDXZ			; CvBaseInfo::GetType
; Function compile flags: /Ogtpy
;	COMDAT ?GetType@CvBaseInfo@@QBEPBDXZ
_TEXT	SEGMENT
?GetType@CvBaseInfo@@QBEPBDXZ PROC			; CvBaseInfo::GetType, COMDAT
; _this$ = ecx

; 92   : 		return m_strType.c_str();

	add	ecx, 176				; 000000b0H
	jmp	DWORD PTR __imp_?c_str@?$basic_string@DU?$char_traits@D@std@@V?$allocator@D@2@@std@@QBEPBDXZ
?GetType@CvBaseInfo@@QBEPBDXZ ENDP			; CvBaseInfo::GetType
_TEXT	ENDS
PUBLIC	?getMap@CvGlobals@@QAEAAVCvMap@@XZ		; CvGlobals::getMap
; Function compile flags: /Ogtpy
; File c:\users\enormousapplepie\desktop\lekmod dll versions\v31\lekmod_dll\cvgamecoredll_expansion2\cvglobals.h
;	COMDAT ?getMap@CvGlobals@@QAEAAVCvMap@@XZ
_TEXT	SEGMENT
?getMap@CvGlobals@@QAEAAVCvMap@@XZ PROC			; CvGlobals::getMap, COMDAT
; _this$ = ecx

; 175  : 		return *m_map;    // inlined for perf reasons, do not use outside of dll

	mov	eax, DWORD PTR [ecx+52]

; 176  : 	}

	ret	0
?getMap@CvGlobals@@QAEAAVCvMap@@XZ ENDP			; CvGlobals::getMap
_TEXT	ENDS
PUBLIC	?getGame@CvGlobals@@QAEAAVCvGame@@XZ		; CvGlobals::getGame
; Function compile flags: /Ogtpy
;	COMDAT ?getGame@CvGlobals@@QAEAAVCvGame@@XZ
_TEXT	SEGMENT
?getGame@CvGlobals@@QAEAAVCvGame@@XZ PROC		; CvGlobals::getGame, COMDAT
; _this$ = ecx

; 183  : 		return *m_game;    // inlined for perf reasons, do not use outside of dll

	mov	eax, DWORD PTR [ecx+48]

; 184  : 	}

	ret	0
?getGame@CvGlobals@@QAEAAVCvGame@@XZ ENDP		; CvGlobals::getGame
_TEXT	ENDS
PUBLIC	?getCOOP_WAR_LOCKED_LENGTH@CvGlobals@@QAEHXZ	; CvGlobals::getCOOP_WAR_LOCKED_LENGTH
; Function compile flags: /Ogtpy
;	COMDAT ?getCOOP_WAR_LOCKED_LENGTH@CvGlobals@@QAEHXZ
_TEXT	SEGMENT
?getCOOP_WAR_LOCKED_LENGTH@CvGlobals@@QAEHXZ PROC	; CvGlobals::getCOOP_WAR_LOCKED_LENGTH, COMDAT
; _this$ = ecx

; 5768 : 		return m_iCOOP_WAR_LOCKED_LENGTH;

	mov	eax, DWORD PTR [ecx+6692]

; 5769 : 	}

	ret	0
?getCOOP_WAR_LOCKED_LENGTH@CvGlobals@@QAEHXZ ENDP	; CvGlobals::getCOOP_WAR_LOCKED_LENGTH
_TEXT	ENDS
PUBLIC	?getRESEARCH_AGREEMENT_BOOST_DIVISOR@CvGlobals@@QAEHXZ ; CvGlobals::getRESEARCH_AGREEMENT_BOOST_DIVISOR
; Function compile flags: /Ogtpy
;	COMDAT ?getRESEARCH_AGREEMENT_BOOST_DIVISOR@CvGlobals@@QAEHXZ
_TEXT	SEGMENT
?getRESEARCH_AGREEMENT_BOOST_DIVISOR@CvGlobals@@QAEHXZ PROC ; CvGlobals::getRESEARCH_AGREEMENT_BOOST_DIVISOR, COMDAT
; _this$ = ecx

; 5900 : 		return m_iRESEARCH_AGREEMENT_BOOST_DIVISOR;

	mov	eax, DWORD PTR [ecx+6824]

; 5901 : 	}

	ret	0
?getRESEARCH_AGREEMENT_BOOST_DIVISOR@CvGlobals@@QAEHXZ ENDP ; CvGlobals::getRESEARCH_AGREEMENT_BOOST_DIVISOR
_TEXT	ENDS
PUBLIC	?getDLLIFace@CvGlobals@@QAEPAVICvEngineUtility4@@XZ ; CvGlobals::getDLLIFace
; Function compile flags: /Ogtpy
;	COMDAT ?getDLLIFace@CvGlobals@@QAEPAVICvEngineUtility4@@XZ
_TEXT	SEGMENT
?getDLLIFace@CvGlobals@@QAEPAVICvEngineUtility4@@XZ PROC ; CvGlobals::getDLLIFace, COMDAT
; _this$ = ecx

; 7703 : 		return m_pDLL;

	mov	eax, DWORD PTR [ecx+8564]

; 7704 : 	}

	ret	0
?getDLLIFace@CvGlobals@@QAEPAVICvEngineUtility4@@XZ ENDP ; CvGlobals::getDLLIFace
_TEXT	ENDS
PUBLIC	?GetEngineUserInterface@CvGlobals@@QAEPAVICvUserInterface2@@XZ ; CvGlobals::GetEngineUserInterface
; Function compile flags: /Ogtpy
;	COMDAT ?GetEngineUserInterface@CvGlobals@@QAEPAVICvUserInterface2@@XZ
_TEXT	SEGMENT
?GetEngineUserInterface@CvGlobals@@QAEPAVICvUserInterface2@@XZ PROC ; CvGlobals::GetEngineUserInterface, COMDAT
; _this$ = ecx

; 7713 : 		return m_pEngineUI;

	mov	eax, DWORD PTR [ecx+8568]

; 7714 : 	}

	ret	0
?GetEngineUserInterface@CvGlobals@@QAEPAVICvUserInterface2@@XZ ENDP ; CvGlobals::GetEngineUserInterface
_TEXT	ENDS
PUBLIC	??4CvString@@QAEAAV0@ABV0@@Z			; CvString::operator=
EXTRN	__imp_??4?$basic_string@DU?$char_traits@D@std@@V?$allocator@D@2@@std@@QAEAAV01@ABV01@@Z:PROC
; Function compile flags: /Ogtpy
;	COMDAT ??4CvString@@QAEAAV0@ABV0@@Z
_TEXT	SEGMENT
___that$ = 8						; size = 4
??4CvString@@QAEAAV0@ABV0@@Z PROC			; CvString::operator=, COMDAT
; _this$ = ecx
	mov	eax, DWORD PTR ___that$[esp-4]
	push	esi
	push	eax
	mov	esi, ecx
	call	DWORD PTR __imp_??4?$basic_string@DU?$char_traits@D@std@@V?$allocator@D@2@@std@@QAEAAV01@ABV01@@Z
	mov	eax, esi
	pop	esi
	ret	4
??4CvString@@QAEAAV0@ABV0@@Z ENDP			; CvString::operator=
_TEXT	ENDS
PUBLIC	?getPlayer@CvPlayerAI@@SAAAV1@W4PlayerTypes@@@Z	; CvPlayerAI::getPlayer
EXTRN	?m_aPlayers@CvPlayerAI@@1PAV1@A:DWORD		; CvPlayerAI::m_aPlayers
; Function compile flags: /Ogtpy
; File c:\users\enormousapplepie\desktop\lekmod dll versions\v31\lekmod_dll\cvgamecoredll_expansion2\cvplayerai.h
;	COMDAT ?getPlayer@CvPlayerAI@@SAAAV1@W4PlayerTypes@@@Z
_TEXT	SEGMENT
_ePlayer$ = 8						; size = 4
?getPlayer@CvPlayerAI@@SAAAV1@W4PlayerTypes@@@Z PROC	; CvPlayerAI::getPlayer, COMDAT

; 28   : 		CvAssertMsg(ePlayer != NO_PLAYER, "Player is not assigned a valid value");
; 29   : 		CvAssertMsg(ePlayer < MAX_PLAYERS, "Player is not assigned a valid value");
; 30   : 		return m_aPlayers[ePlayer];

	mov	eax, DWORD PTR _ePlayer$[esp-4]
	imul	eax, 63236				; 0000f704H
	add	eax, DWORD PTR ?m_aPlayers@CvPlayerAI@@1PAV1@A ; CvPlayerAI::m_aPlayers

; 31   : 	}

	ret	0
?getPlayer@CvPlayerAI@@SAAAV1@W4PlayerTypes@@@Z ENDP	; CvPlayerAI::getPlayer
_TEXT	ENDS
PUBLIC	?getPlotCity@CvPlot@@QBEPAVCvCity@@XZ		; CvPlot::getPlotCity
EXTRN	?getCity@CvPlayer@@QAEPAVCvCity@@H@Z:PROC	; CvPlayer::getCity
; Function compile flags: /Ogtpy
; File c:\users\enormousapplepie\desktop\lekmod dll versions\v31\lekmod_dll\cvgamecoredll_expansion2\cvplot.h
;	COMDAT ?getPlotCity@CvPlot@@QBEPAVCvCity@@XZ
_TEXT	SEGMENT
?getPlotCity@CvPlot@@QBEPAVCvCity@@XZ PROC		; CvPlot::getPlotCity, COMDAT
; _this$ = ecx

; 533  : 		if((m_plotCity.eOwner >= 0) && m_plotCity.eOwner < MAX_PLAYERS)

	mov	eax, DWORD PTR [ecx+104]
	test	eax, eax
	jl	SHORT $LN1@getPlotCit
	cmp	eax, 64					; 00000040H
	jge	SHORT $LN1@getPlotCit

; 534  : 			return (GET_PLAYER((PlayerTypes)m_plotCity.eOwner).getCity(m_plotCity.iID));

	mov	ecx, DWORD PTR [ecx+108]
	imul	eax, 63236				; 0000f704H
	add	eax, DWORD PTR ?m_aPlayers@CvPlayerAI@@1PAV1@A ; CvPlayerAI::m_aPlayers
	push	ecx
	mov	ecx, eax
	call	?getCity@CvPlayer@@QAEPAVCvCity@@H@Z	; CvPlayer::getCity

; 537  : 	}

	ret	0
$LN1@getPlotCit:

; 535  : 
; 536  : 		return NULL;

	xor	eax, eax

; 537  : 	}

	ret	0
?getPlotCity@CvPlot@@QBEPAVCvCity@@XZ ENDP		; CvPlot::getPlotCity
_TEXT	ENDS
PUBLIC	?coordRange@@YAHHH_N@Z				; coordRange
; Function compile flags: /Ogtpy
; File c:\users\enormousapplepie\desktop\lekmod dll versions\v31\lekmod_dll\cvgamecoredll_expansion2\cvmap.h
;	COMDAT ?coordRange@@YAHHH_N@Z
_TEXT	SEGMENT
_iCoord$ = 8						; size = 4
_iRange$ = 12						; size = 4
_bWrap$ = 16						; size = 1
?coordRange@@YAHHH_N@Z PROC				; coordRange, COMDAT

; 88   : 	if(bWrap)

	cmp	BYTE PTR _bWrap$[esp-4], 0
	mov	eax, DWORD PTR _iCoord$[esp-4]
	je	SHORT $LN5@coordRange

; 89   : 	{
; 90   : 		if(iCoord < 0)
; 91   : 		{
; 92   : 			return (iRange + (iCoord % iRange));

	mov	ecx, DWORD PTR _iRange$[esp-4]
	test	eax, eax
	jge	SHORT $LN3@coordRange
	cdq
	idiv	ecx
	mov	eax, edx
	add	eax, ecx

; 97   : 		}
; 98   : 	}
; 99   : 
; 100  : 	return iCoord;
; 101  : }

	ret	0
$LN3@coordRange:

; 93   : 		}
; 94   : 		else if(iCoord >= iRange)

	cmp	eax, ecx
	jl	SHORT $LN5@coordRange

; 95   : 		{
; 96   : 			return (iCoord % iRange);

	cdq
	idiv	ecx
	mov	eax, edx
$LN5@coordRange:

; 97   : 		}
; 98   : 	}
; 99   : 
; 100  : 	return iCoord;
; 101  : }

	ret	0
?coordRange@@YAHHH_N@Z ENDP				; coordRange
_TEXT	ENDS
PUBLIC	?getGridWidth@CvMap@@QBEHXZ			; CvMap::getGridWidth
; Function compile flags: /Ogtpy
;	COMDAT ?getGridWidth@CvMap@@QBEHXZ
_TEXT	SEGMENT
?getGridWidth@CvMap@@QBEHXZ PROC			; CvMap::getGridWidth, COMDAT
; _this$ = ecx

; 198  : 		return m_iGridWidth;

	mov	eax, DWORD PTR [ecx+4020]

; 199  : 	}

	ret	0
?getGridWidth@CvMap@@QBEHXZ ENDP			; CvMap::getGridWidth
_TEXT	ENDS
PUBLIC	?getGridHeight@CvMap@@QBEHXZ			; CvMap::getGridHeight
; Function compile flags: /Ogtpy
;	COMDAT ?getGridHeight@CvMap@@QBEHXZ
_TEXT	SEGMENT
?getGridHeight@CvMap@@QBEHXZ PROC			; CvMap::getGridHeight, COMDAT
; _this$ = ecx

; 206  : 		return m_iGridHeight;

	mov	eax, DWORD PTR [ecx+4024]

; 207  : 	}

	ret	0
?getGridHeight@CvMap@@QBEHXZ ENDP			; CvMap::getGridHeight
_TEXT	ENDS
PUBLIC	?isWrapX@CvMap@@QBE_NXZ				; CvMap::isWrapX
; Function compile flags: /Ogtpy
;	COMDAT ?isWrapX@CvMap@@QBE_NXZ
_TEXT	SEGMENT
?isWrapX@CvMap@@QBE_NXZ PROC				; CvMap::isWrapX, COMDAT
; _this$ = ecx

; 228  : 		return m_bWrapX;

	mov	al, BYTE PTR [ecx+4056]

; 229  : 	}

	ret	0
?isWrapX@CvMap@@QBE_NXZ ENDP				; CvMap::isWrapX
_TEXT	ENDS
PUBLIC	?isWrapY@CvMap@@QBE_NXZ				; CvMap::isWrapY
; Function compile flags: /Ogtpy
;	COMDAT ?isWrapY@CvMap@@QBE_NXZ
_TEXT	SEGMENT
?isWrapY@CvMap@@QBE_NXZ PROC				; CvMap::isWrapY, COMDAT
; _this$ = ecx

; 233  : 		return m_bWrapY;

	mov	al, BYTE PTR [ecx+4057]

; 234  : 	}

	ret	0
?isWrapY@CvMap@@QBE_NXZ ENDP				; CvMap::isWrapY
_TEXT	ENDS
PUBLIC	?getTeam@CvTeam@@SAAAV1@W4TeamTypes@@@Z		; CvTeam::getTeam
EXTRN	?m_aTeams@CvTeam@@1PAV1@A:DWORD			; CvTeam::m_aTeams
; Function compile flags: /Ogtpy
; File c:\users\enormousapplepie\desktop\lekmod dll versions\v31\lekmod_dll\cvgamecoredll_expansion2\cvteam.h
;	COMDAT ?getTeam@CvTeam@@SAAAV1@W4TeamTypes@@@Z
_TEXT	SEGMENT
_eTeam$ = 8						; size = 4
?getTeam@CvTeam@@SAAAV1@W4TeamTypes@@@Z PROC		; CvTeam::getTeam, COMDAT

; 29   : 		CvAssertMsg(eTeam != NO_TEAM, "eTeam is not assigned a valid value");
; 30   : 		CvAssertMsg(eTeam < MAX_TEAMS, "eTeam is not assigned a valid value");
; 31   : 		return m_aTeams[eTeam];

	mov	eax, DWORD PTR _eTeam$[esp-4]
	imul	eax, 2980				; 00000ba4H
	add	eax, DWORD PTR ?m_aTeams@CvTeam@@1PAV1@A ; CvTeam::m_aTeams

; 32   : 	}

	ret	0
?getTeam@CvTeam@@SAAAV1@W4TeamTypes@@@Z ENDP		; CvTeam::getTeam
_TEXT	ENDS
PUBLIC	?isAlive@CvTeam@@QBE_NXZ			; CvTeam::isAlive
; Function compile flags: /Ogtpy
;	COMDAT ?isAlive@CvTeam@@QBE_NXZ
_TEXT	SEGMENT
?isAlive@CvTeam@@QBE_NXZ PROC				; CvTeam::isAlive, COMDAT
; _this$ = ecx

; 131  : 		return m_iAliveCount > 0;

	xor	eax, eax
	cmp	DWORD PTR [ecx+12], eax
	setg	al

; 132  : 	}

	ret	0
?isAlive@CvTeam@@QBE_NXZ ENDP				; CvTeam::isAlive
_TEXT	ENDS
PUBLIC	??0CvString@@QAE@ABV0@@Z			; CvString::CvString
; Function compile flags: /Ogtpy
;	COMDAT ??0CvString@@QAE@ABV0@@Z
_TEXT	SEGMENT
___that$ = 8						; size = 4
??0CvString@@QAE@ABV0@@Z PROC				; CvString::CvString, COMDAT
; _this$ = ecx
	mov	eax, DWORD PTR ___that$[esp-4]
	push	esi
	push	eax
	mov	esi, ecx
	call	DWORD PTR __imp_??0?$basic_string@DU?$char_traits@D@std@@V?$allocator@D@2@@std@@QAE@ABV01@@Z
	mov	eax, esi
	pop	esi
	ret	4
??0CvString@@QAE@ABV0@@Z ENDP				; CvString::CvString
_TEXT	ENDS
PUBLIC	??A?$vector@W4TeamTypes@@V?$allocator@W4TeamTypes@@@std@@@std@@QBEABW4TeamTypes@@I@Z ; std::vector<enum TeamTypes,std::allocator<enum TeamTypes> >::operator[]
; Function compile flags: /Ogtpy
; File c:\program files (x86)\microsoft visual studio 9.0\vc\include\vector
;	COMDAT ??A?$vector@W4TeamTypes@@V?$allocator@W4TeamTypes@@@std@@@std@@QBEABW4TeamTypes@@I@Z
_TEXT	SEGMENT
__Pos$ = 8						; size = 4
??A?$vector@W4TeamTypes@@V?$allocator@W4TeamTypes@@@std@@@std@@QBEABW4TeamTypes@@I@Z PROC ; std::vector<enum TeamTypes,std::allocator<enum TeamTypes> >::operator[], COMDAT
; _this$ = ecx

; 760  : 
; 761  :  #if _HAS_ITERATOR_DEBUGGING
; 762  : 		if (size() <= _Pos)
; 763  : 			{
; 764  : 			_DEBUG_ERROR("vector subscript out of range");
; 765  : 			_SCL_SECURE_OUT_OF_RANGE;
; 766  : 			}
; 767  :  #endif /* _HAS_ITERATOR_DEBUGGING */
; 768  : 		_SCL_SECURE_VALIDATE_RANGE(_Pos < size());
; 769  : 
; 770  : 		return (*(_Myfirst + _Pos));

	mov	eax, DWORD PTR [ecx+4]
	mov	ecx, DWORD PTR __Pos$[esp-4]
	lea	eax, DWORD PTR [eax+ecx*4]

; 771  : 		}

	ret	4
??A?$vector@W4TeamTypes@@V?$allocator@W4TeamTypes@@@std@@@std@@QBEABW4TeamTypes@@I@Z ENDP ; std::vector<enum TeamTypes,std::allocator<enum TeamTypes> >::operator[]
; Function compile flags: /Ogtpy
_TEXT	ENDS
;	COMDAT ??0length_error@std@@QAE@ABV01@@Z
_TEXT	SEGMENT
___that$ = 8						; size = 4
??0length_error@std@@QAE@ABV01@@Z PROC			; std::length_error::length_error, COMDAT
; _this$ = ecx
	mov	eax, DWORD PTR ___that$[esp-4]
	push	esi
	push	eax
	mov	esi, ecx
	call	??0logic_error@std@@QAE@ABV01@@Z
	mov	DWORD PTR [esi], OFFSET ??_7length_error@std@@6B@
	mov	eax, esi
	pop	esi
	ret	4
??0length_error@std@@QAE@ABV01@@Z ENDP			; std::length_error::length_error
_TEXT	ENDS
PUBLIC	??$?6H@FDataStream@@QAEAAV0@ABH@Z		; FDataStream::operator<<<int>
EXTRN	?Write@FDataStream@@IAEXABH@Z:PROC		; FDataStream::Write
; Function compile flags: /Ogtpy
; File c:\users\enormousapplepie\desktop\lekmod dll versions\v31\lekmod_dll\fireplace\include\fireworks\fdatastream.h
;	COMDAT ??$?6H@FDataStream@@QAEAAV0@ABH@Z
_TEXT	SEGMENT
_kData$ = 8						; size = 4
??$?6H@FDataStream@@QAEAAV0@ABH@Z PROC			; FDataStream::operator<<<int>, COMDAT
; _this$ = ecx

; 246  : 	// If the compiler produces an error here complaining about 
; 247  : 	// YouMustImplementASerializeOperatorForThisTypeError then
; 248  : 	// it could not find a specialization for the type supplied
; 249  : 	// in scope. If a specialization exists, be sure to include
; 250  : 	// the header (FStlContainerSerialization.h, for example), 
; 251  : 	// if not, implement :
; 252  : 	// FDataStream & operator<<(FDataStream &, YourCustomType &)
; 253  : 	Write( kData );

	mov	eax, DWORD PTR _kData$[esp-4]
	push	esi
	push	eax
	mov	esi, ecx
	call	?Write@FDataStream@@IAEXABH@Z		; FDataStream::Write

; 254  : 	return ( *this );

	mov	eax, esi
	pop	esi

; 255  : }

	ret	4
??$?6H@FDataStream@@QAEAAV0@ABH@Z ENDP			; FDataStream::operator<<<int>
_TEXT	ENDS
PUBLIC	??$?5H@FDataStream@@QAEAAV0@AAH@Z		; FDataStream::operator>><int>
EXTRN	?Read@FDataStream@@IAEXAAH@Z:PROC		; FDataStream::Read
; Function compile flags: /Ogtpy
;	COMDAT ??$?5H@FDataStream@@QAEAAV0@AAH@Z
_TEXT	SEGMENT
_kData$ = 8						; size = 4
??$?5H@FDataStream@@QAEAAV0@AAH@Z PROC			; FDataStream::operator>><int>, COMDAT
; _this$ = ecx

; 260  : 	// If the compiler produces an error here complaining about 
; 261  : 	// YouMustImplementASerializeOperatorForThisTypeError then
; 262  : 	// it could not find a specialization for the type supplied
; 263  : 	// in scope. If a specialization exists, be sure to include
; 264  : 	// the header (FStlContainerSerialization.h, for example), 
; 265  : 	// if not, implement :
; 266  : 	// FDataStream & operator>>(FDataStream &, YourCustomType &)
; 267  : 	Read( kData );

	mov	eax, DWORD PTR _kData$[esp-4]
	push	esi
	push	eax
	mov	esi, ecx
	call	?Read@FDataStream@@IAEXAAH@Z		; FDataStream::Read

; 268  : 	return ( *this );

	mov	eax, esi
	pop	esi

; 269  : }

	ret	4
??$?5H@FDataStream@@QAEAAV0@AAH@Z ENDP			; FDataStream::operator>><int>
_TEXT	ENDS
PUBLIC	??B?$FAutoVariable@W4PlayerTypes@@VCvCity@@@@QBEABW4PlayerTypes@@XZ ; FAutoVariable<enum PlayerTypes,CvCity>::operator enum PlayerTypes const &
; Function compile flags: /Ogtpy
; File c:\users\enormousapplepie\desktop\lekmod dll versions\v31\lekmod_dll\fireplace\include\fireworks\fautovariable.h
;	COMDAT ??B?$FAutoVariable@W4PlayerTypes@@VCvCity@@@@QBEABW4PlayerTypes@@XZ
_TEXT	SEGMENT
??B?$FAutoVariable@W4PlayerTypes@@VCvCity@@@@QBEABW4PlayerTypes@@XZ PROC ; FAutoVariable<enum PlayerTypes,CvCity>::operator enum PlayerTypes const &, COMDAT
; _this$ = ecx

; 194  : 	return m_value;

	lea	eax, DWORD PTR [ecx+4]

; 195  : }

	ret	0
??B?$FAutoVariable@W4PlayerTypes@@VCvCity@@@@QBEABW4PlayerTypes@@XZ ENDP ; FAutoVariable<enum PlayerTypes,CvCity>::operator enum PlayerTypes const &
_TEXT	ENDS
PUBLIC	??B?$FAutoVariable@HVCvCity@@@@QBEABHXZ		; FAutoVariable<int,CvCity>::operator int const &
; Function compile flags: /Ogtpy
;	COMDAT ??B?$FAutoVariable@HVCvCity@@@@QBEABHXZ
_TEXT	SEGMENT
??B?$FAutoVariable@HVCvCity@@@@QBEABHXZ PROC		; FAutoVariable<int,CvCity>::operator int const &, COMDAT
; _this$ = ecx

; 194  : 	return m_value;

	lea	eax, DWORD PTR [ecx+4]

; 195  : }

	ret	0
??B?$FAutoVariable@HVCvCity@@@@QBEABHXZ ENDP		; FAutoVariable<int,CvCity>::operator int const &
_TEXT	ENDS
PUBLIC	??B?$FAutoVariable@W4PlayerTypes@@VCvPlayer@@@@QBEABW4PlayerTypes@@XZ ; FAutoVariable<enum PlayerTypes,CvPlayer>::operator enum PlayerTypes const &
; Function compile flags: /Ogtpy
;	COMDAT ??B?$FAutoVariable@W4PlayerTypes@@VCvPlayer@@@@QBEABW4PlayerTypes@@XZ
_TEXT	SEGMENT
??B?$FAutoVariable@W4PlayerTypes@@VCvPlayer@@@@QBEABW4PlayerTypes@@XZ PROC ; FAutoVariable<enum PlayerTypes,CvPlayer>::operator enum PlayerTypes const &, COMDAT
; _this$ = ecx

; 194  : 	return m_value;

	lea	eax, DWORD PTR [ecx+4]

; 195  : }

	ret	0
??B?$FAutoVariable@W4PlayerTypes@@VCvPlayer@@@@QBEABW4PlayerTypes@@XZ ENDP ; FAutoVariable<enum PlayerTypes,CvPlayer>::operator enum PlayerTypes const &
_TEXT	ENDS
PUBLIC	??B?$FAutoVariable@_NVCvPlayer@@@@QBEAB_NXZ	; FAutoVariable<bool,CvPlayer>::operator bool const &
; Function compile flags: /Ogtpy
;	COMDAT ??B?$FAutoVariable@_NVCvPlayer@@@@QBEAB_NXZ
_TEXT	SEGMENT
??B?$FAutoVariable@_NVCvPlayer@@@@QBEAB_NXZ PROC	; FAutoVariable<bool,CvPlayer>::operator bool const &, COMDAT
; _this$ = ecx

; 194  : 	return m_value;

	lea	eax, DWORD PTR [ecx+4]

; 195  : }

	ret	0
??B?$FAutoVariable@_NVCvPlayer@@@@QBEAB_NXZ ENDP	; FAutoVariable<bool,CvPlayer>::operator bool const &
; Function compile flags: /Ogtpy
_TEXT	ENDS
;	COMDAT ??0bad_alloc@std@@QAE@ABV01@@Z
_TEXT	SEGMENT
___that$ = 8						; size = 4
??0bad_alloc@std@@QAE@ABV01@@Z PROC			; std::bad_alloc::bad_alloc, COMDAT
; _this$ = ecx
	mov	eax, DWORD PTR ___that$[esp-4]
	push	esi
	push	eax
	mov	esi, ecx
	call	DWORD PTR __imp_??0exception@std@@QAE@ABV01@@Z
	mov	DWORD PTR [esi], OFFSET ??_7bad_alloc@std@@6B@
	mov	eax, esi
	pop	esi
	ret	4
??0bad_alloc@std@@QAE@ABV01@@Z ENDP			; std::bad_alloc::bad_alloc
_TEXT	ENDS
PUBLIC	??$?5_N@FDataStream@@QAEAAV0@AA_N@Z		; FDataStream::operator>><bool>
EXTRN	?Read@FDataStream@@IAEXAA_N@Z:PROC		; FDataStream::Read
; Function compile flags: /Ogtpy
; File c:\users\enormousapplepie\desktop\lekmod dll versions\v31\lekmod_dll\fireplace\include\fireworks\fdatastream.h
;	COMDAT ??$?5_N@FDataStream@@QAEAAV0@AA_N@Z
_TEXT	SEGMENT
_kData$ = 8						; size = 4
??$?5_N@FDataStream@@QAEAAV0@AA_N@Z PROC		; FDataStream::operator>><bool>, COMDAT
; _this$ = ecx

; 260  : 	// If the compiler produces an error here complaining about 
; 261  : 	// YouMustImplementASerializeOperatorForThisTypeError then
; 262  : 	// it could not find a specialization for the type supplied
; 263  : 	// in scope. If a specialization exists, be sure to include
; 264  : 	// the header (FStlContainerSerialization.h, for example), 
; 265  : 	// if not, implement :
; 266  : 	// FDataStream & operator>>(FDataStream &, YourCustomType &)
; 267  : 	Read( kData );

	mov	eax, DWORD PTR _kData$[esp-4]
	push	esi
	push	eax
	mov	esi, ecx
	call	?Read@FDataStream@@IAEXAA_N@Z		; FDataStream::Read

; 268  : 	return ( *this );

	mov	eax, esi
	pop	esi

; 269  : }

	ret	4
??$?5_N@FDataStream@@QAEAAV0@AA_N@Z ENDP		; FDataStream::operator>><bool>
_TEXT	ENDS
PUBLIC	??$?6_N@FDataStream@@QAEAAV0@AB_N@Z		; FDataStream::operator<<<bool>
EXTRN	?Write@FDataStream@@IAEXAB_N@Z:PROC		; FDataStream::Write
; Function compile flags: /Ogtpy
;	COMDAT ??$?6_N@FDataStream@@QAEAAV0@AB_N@Z
_TEXT	SEGMENT
_kData$ = 8						; size = 4
??$?6_N@FDataStream@@QAEAAV0@AB_N@Z PROC		; FDataStream::operator<<<bool>, COMDAT
; _this$ = ecx

; 246  : 	// If the compiler produces an error here complaining about 
; 247  : 	// YouMustImplementASerializeOperatorForThisTypeError then
; 248  : 	// it could not find a specialization for the type supplied
; 249  : 	// in scope. If a specialization exists, be sure to include
; 250  : 	// the header (FStlContainerSerialization.h, for example), 
; 251  : 	// if not, implement :
; 252  : 	// FDataStream & operator<<(FDataStream &, YourCustomType &)
; 253  : 	Write( kData );

	mov	eax, DWORD PTR _kData$[esp-4]
	push	esi
	push	eax
	mov	esi, ecx
	call	?Write@FDataStream@@IAEXAB_N@Z		; FDataStream::Write

; 254  : 	return ( *this );

	mov	eax, esi
	pop	esi

; 255  : }

	ret	4
??$?6_N@FDataStream@@QAEAAV0@AB_N@Z ENDP		; FDataStream::operator<<<bool>
_TEXT	ENDS
PUBLIC	??$?5I@FDataStream@@QAEAAV0@AAI@Z		; FDataStream::operator>><unsigned int>
EXTRN	?Read@FDataStream@@IAEXAAI@Z:PROC		; FDataStream::Read
; Function compile flags: /Ogtpy
;	COMDAT ??$?5I@FDataStream@@QAEAAV0@AAI@Z
_TEXT	SEGMENT
_kData$ = 8						; size = 4
??$?5I@FDataStream@@QAEAAV0@AAI@Z PROC			; FDataStream::operator>><unsigned int>, COMDAT
; _this$ = ecx

; 260  : 	// If the compiler produces an error here complaining about 
; 261  : 	// YouMustImplementASerializeOperatorForThisTypeError then
; 262  : 	// it could not find a specialization for the type supplied
; 263  : 	// in scope. If a specialization exists, be sure to include
; 264  : 	// the header (FStlContainerSerialization.h, for example), 
; 265  : 	// if not, implement :
; 266  : 	// FDataStream & operator>>(FDataStream &, YourCustomType &)
; 267  : 	Read( kData );

	mov	eax, DWORD PTR _kData$[esp-4]
	push	esi
	push	eax
	mov	esi, ecx
	call	?Read@FDataStream@@IAEXAAI@Z		; FDataStream::Read

; 268  : 	return ( *this );

	mov	eax, esi
	pop	esi

; 269  : }

	ret	4
??$?5I@FDataStream@@QAEAAV0@AAI@Z ENDP			; FDataStream::operator>><unsigned int>
_TEXT	ENDS
PUBLIC	??$?6I@FDataStream@@QAEAAV0@ABI@Z		; FDataStream::operator<<<unsigned int>
EXTRN	?Write@FDataStream@@IAEXABI@Z:PROC		; FDataStream::Write
; Function compile flags: /Ogtpy
;	COMDAT ??$?6I@FDataStream@@QAEAAV0@ABI@Z
_TEXT	SEGMENT
_kData$ = 8						; size = 4
??$?6I@FDataStream@@QAEAAV0@ABI@Z PROC			; FDataStream::operator<<<unsigned int>, COMDAT
; _this$ = ecx

; 246  : 	// If the compiler produces an error here complaining about 
; 247  : 	// YouMustImplementASerializeOperatorForThisTypeError then
; 248  : 	// it could not find a specialization for the type supplied
; 249  : 	// in scope. If a specialization exists, be sure to include
; 250  : 	// the header (FStlContainerSerialization.h, for example), 
; 251  : 	// if not, implement :
; 252  : 	// FDataStream & operator<<(FDataStream &, YourCustomType &)
; 253  : 	Write( kData );

	mov	eax, DWORD PTR _kData$[esp-4]
	push	esi
	push	eax
	mov	esi, ecx
	call	?Write@FDataStream@@IAEXABI@Z		; FDataStream::Write

; 254  : 	return ( *this );

	mov	eax, esi
	pop	esi

; 255  : }

	ret	4
??$?6I@FDataStream@@QAEAAV0@ABI@Z ENDP			; FDataStream::operator<<<unsigned int>
_TEXT	ENDS
PUBLIC	?GetLocalizedText@@YA?AVCvString@@PBD@Z		; GetLocalizedText
EXTRN	__imp_??1String@Localization@@UAE@XZ:PROC
EXTRN	__imp_?assign@?$basic_string@DU?$char_traits@D@std@@V?$allocator@D@2@@std@@QAEAAV12@PBDI@Z:PROC
EXTRN	__imp_?toUTF8@String@Localization@@QAEPBDAAIH@Z:PROC
EXTRN	__imp_?Lookup@Localization@@YA?AVString@1@PBD@Z:PROC
;	COMDAT xdata$x
; File c:\users\enormousapplepie\desktop\lekmod dll versions\v31\lekmod_dll\cvgamecoredllutil\include\cvstring.h
xdata$x	SEGMENT
__unwindtable$?GetLocalizedText@@YA?AVCvString@@PBD@Z DD 0ffffffffH
	DD	FLAT:__unwindfunclet$?GetLocalizedText@@YA?AVCvString@@PBD@Z$1
	DD	00H
	DD	FLAT:__unwindfunclet$?GetLocalizedText@@YA?AVCvString@@PBD@Z$0
__ehfuncinfo$?GetLocalizedText@@YA?AVCvString@@PBD@Z DD 019930522H
	DD	02H
	DD	FLAT:__unwindtable$?GetLocalizedText@@YA?AVCvString@@PBD@Z
	DD	2 DUP(00H)
	DD	2 DUP(00H)
	DD	00H
	DD	01H
; Function compile flags: /Ogtpy
; File c:\users\enormousapplepie\desktop\lekmod dll versions\v31\lekmod_dll\cvgamecoredll_expansion2\cvgamecoreutils.h
xdata$x	ENDS
;	COMDAT ?GetLocalizedText@@YA?AVCvString@@PBD@Z
_TEXT	SEGMENT
_bytes$ = -100						; size = 4
$T225859 = -96						; size = 4
_text$ = -92						; size = 80
__$EHRec$ = -12						; size = 12
___$ReturnUdt$ = 8					; size = 4
_szString$ = 12						; size = 4
?GetLocalizedText@@YA?AVCvString@@PBD@Z PROC		; GetLocalizedText, COMDAT

; 489  : {

	push	-1
	push	__ehhandler$?GetLocalizedText@@YA?AVCvString@@PBD@Z
	mov	eax, DWORD PTR fs:0
	push	eax
	mov	DWORD PTR fs:0, esp
	sub	esp, 88					; 00000058H

; 490  : 	Localization::String text = Localization::Lookup(szString);

	mov	eax, DWORD PTR _szString$[esp+96]
	push	ebx
	push	esi
	push	edi
	push	eax
	lea	ecx, DWORD PTR _text$[esp+116]
	xor	ebx, ebx
	push	ecx
	mov	DWORD PTR __$EHRec$[esp+128], ebx
	mov	DWORD PTR $T225859[esp+120], ebx
	call	DWORD PTR __imp_?Lookup@Localization@@YA?AVString@1@PBD@Z
	add	esp, 8

; 491  : 
; 492  : 	size_t bytes = 0;
; 493  : 	const char* szComposedString = text.toUTF8(bytes);

	push	1
	lea	edx, DWORD PTR _bytes$[esp+116]
	push	edx
	lea	ecx, DWORD PTR _text$[esp+120]
	mov	DWORD PTR __$EHRec$[esp+128], 1
	mov	DWORD PTR _bytes$[esp+120], ebx
	call	DWORD PTR __imp_?toUTF8@String@Localization@@QAEPBDAAIH@Z

; 494  : 	CvString str;

	mov	esi, DWORD PTR ___$ReturnUdt$[esp+108]
	mov	ecx, esi
	mov	edi, eax
	call	DWORD PTR __imp_??0?$basic_string@DU?$char_traits@D@std@@V?$allocator@D@2@@std@@QAE@XZ

; 495  : 	str.assign(szComposedString, bytes);
; 496  : 	return str;

	mov	eax, DWORD PTR _bytes$[esp+112]
	push	eax
	push	edi
	mov	ecx, esi
	mov	DWORD PTR $T225859[esp+120], 1
	call	DWORD PTR __imp_?assign@?$basic_string@DU?$char_traits@D@std@@V?$allocator@D@2@@std@@QAEAAV12@PBDI@Z
	lea	ecx, DWORD PTR _text$[esp+112]
	mov	BYTE PTR __$EHRec$[esp+120], bl
	call	DWORD PTR __imp_??1String@Localization@@UAE@XZ

; 497  : }

	mov	ecx, DWORD PTR __$EHRec$[esp+112]
	pop	edi
	mov	eax, esi
	pop	esi
	pop	ebx
	mov	DWORD PTR fs:0, ecx
	add	esp, 100				; 00000064H
	ret	0
_TEXT	ENDS
;	COMDAT text$x
text$x	SEGMENT
__unwindfunclet$?GetLocalizedText@@YA?AVCvString@@PBD@Z$0:
	lea	ecx, DWORD PTR _text$[ebp]
	jmp	DWORD PTR __imp_??1String@Localization@@UAE@XZ
__unwindfunclet$?GetLocalizedText@@YA?AVCvString@@PBD@Z$1:
	mov	eax, DWORD PTR $T225859[ebp]
	and	eax, 1
	je	$LN5@GetLocaliz
	and	DWORD PTR $T225859[ebp], -2		; fffffffeH
	mov	ecx, DWORD PTR ___$ReturnUdt$[ebp-4]
	jmp	??1CvString@@QAE@XZ			; CvString::~CvString
$LN5@GetLocaliz:
	ret	0
__ehhandler$?GetLocalizedText@@YA?AVCvString@@PBD@Z:
	mov	eax, OFFSET __ehfuncinfo$?GetLocalizedText@@YA?AVCvString@@PBD@Z
	jmp	___CxxFrameHandler3
text$x	ENDS
?GetLocalizedText@@YA?AVCvString@@PBD@Z ENDP		; GetLocalizedText
PUBLIC	??5@YAAAVFDataStream@@AAV0@AAW4TradeableItems@@@Z ; operator>>
; Function compile flags: /Ogtpy
; File c:\users\enormousapplepie\desktop\lekmod dll versions\v31\lekmod_dll\cvgamecoredll_expansion2\cvdealclasses.cpp
;	COMDAT ??5@YAAAVFDataStream@@AAV0@AAW4TradeableItems@@@Z
_TEXT	SEGMENT
_v$ = 8							; size = 4
_loadFrom$ = 8						; size = 4
_writeTo$ = 12						; size = 4
??5@YAAAVFDataStream@@AAV0@AAW4TradeableItems@@@Z PROC	; operator>>, COMDAT

; 24   : {

	push	esi

; 25   : 	int v;
; 26   : 	loadFrom >> v;

	mov	esi, DWORD PTR _loadFrom$[esp]
	lea	eax, DWORD PTR _v$[esp]
	push	eax
	mov	ecx, esi
	call	?Read@FDataStream@@IAEXAAH@Z		; FDataStream::Read

; 27   : 	writeTo = static_cast<TradeableItems>(v);

	mov	ecx, DWORD PTR _writeTo$[esp]
	mov	edx, DWORD PTR _v$[esp]

; 28   : 	return loadFrom;

	mov	eax, esi
	mov	DWORD PTR [ecx], edx
	pop	esi

; 29   : }

	ret	0
??5@YAAAVFDataStream@@AAV0@AAW4TradeableItems@@@Z ENDP	; operator>>
_TEXT	ENDS
PUBLIC	??6@YAAAVFDataStream@@AAV0@ABW4TradeableItems@@@Z ; operator<<
; Function compile flags: /Ogtpy
;	COMDAT ??6@YAAAVFDataStream@@AAV0@ABW4TradeableItems@@@Z
_TEXT	SEGMENT
_saveTo$ = 8						; size = 4
$T225880 = 12						; size = 4
_readFrom$ = 12						; size = 4
??6@YAAAVFDataStream@@AAV0@ABW4TradeableItems@@@Z PROC	; operator<<, COMDAT

; 34   : 	saveTo << static_cast<int>(readFrom);

	mov	eax, DWORD PTR _readFrom$[esp-4]
	mov	ecx, DWORD PTR [eax]
	push	esi
	mov	esi, DWORD PTR _saveTo$[esp]
	lea	edx, DWORD PTR $T225880[esp]
	mov	DWORD PTR $T225880[esp], ecx
	push	edx
	mov	ecx, esi
	call	?Write@FDataStream@@IAEXABH@Z		; FDataStream::Write

; 35   : 	return saveTo;

	mov	eax, esi
	pop	esi

; 36   : }

	ret	0
??6@YAAAVFDataStream@@AAV0@ABW4TradeableItems@@@Z ENDP	; operator<<
_TEXT	ENDS
PUBLIC	?OldLoad@@YAAAVFDataStream@@AAV1@AAUCvTradedItem@@@Z ; OldLoad
EXTRN	??5@YAAAVFDataStream@@AAV0@AAW4PlayerTypes@@@Z:PROC ; operator>>
; Function compile flags: /Ogtpy
;	COMDAT ?OldLoad@@YAAAVFDataStream@@AAV1@AAUCvTradedItem@@@Z
_TEXT	SEGMENT
_v$225895 = 8						; size = 4
_loadFrom$ = 8						; size = 4
_writeTo$ = 12						; size = 4
?OldLoad@@YAAAVFDataStream@@AAV1@AAUCvTradedItem@@@Z PROC ; OldLoad, COMDAT

; 79   : {

	push	esi
	push	edi

; 80   : 	loadFrom >> writeTo.m_eItemType;

	mov	edi, DWORD PTR _loadFrom$[esp+4]
	lea	eax, DWORD PTR _v$225895[esp+4]
	push	eax
	mov	ecx, edi
	call	?Read@FDataStream@@IAEXAAH@Z		; FDataStream::Read
	mov	esi, DWORD PTR _writeTo$[esp+4]
	mov	ecx, DWORD PTR _v$225895[esp+4]

; 81   : 	loadFrom >> writeTo.m_iDuration;

	lea	edx, DWORD PTR [esi+4]
	mov	DWORD PTR [esi], ecx
	push	edx
	mov	ecx, edi
	call	?Read@FDataStream@@IAEXAAH@Z		; FDataStream::Read

; 82   : #ifdef AUI_YIELDS_APPLIED_AFTER_TURN_NOT_BEFORE
; 83   : 	loadFrom >> writeTo.m_iTurnsRemaining;
; 84   : #else
; 85   : 	loadFrom >> writeTo.m_iFinalTurn;

	lea	eax, DWORD PTR [esi+8]
	push	eax
	mov	ecx, edi
	call	?Read@FDataStream@@IAEXAAH@Z		; FDataStream::Read

; 86   : #endif
; 87   : 	loadFrom >> writeTo.m_iData1;

	lea	ecx, DWORD PTR [esi+12]
	push	ecx
	mov	ecx, edi
	call	?Read@FDataStream@@IAEXAAH@Z		; FDataStream::Read

; 88   : 	loadFrom >> writeTo.m_iData2;

	lea	edx, DWORD PTR [esi+16]
	push	edx
	mov	ecx, edi
	call	?Read@FDataStream@@IAEXAAH@Z		; FDataStream::Read

; 89   : 	loadFrom >> writeTo.m_eFromPlayer;

	lea	eax, DWORD PTR [esi+28]
	push	eax
	push	edi
	call	??5@YAAAVFDataStream@@AAV0@AAW4PlayerTypes@@@Z ; operator>>

; 90   : 	writeTo.m_bFromRenewed = false;

	xor	al, al
	add	esp, 8
	mov	BYTE PTR [esi+32], al

; 91   : 	writeTo.m_bToRenewed = false;

	mov	BYTE PTR [esi+33], al

; 92   : 	return loadFrom;

	mov	eax, edi
	pop	edi
	pop	esi

; 93   : }

	ret	0
?OldLoad@@YAAAVFDataStream@@AAV1@AAUCvTradedItem@@@Z ENDP ; OldLoad
_TEXT	ENDS
PUBLIC	??5@YAAAVFDataStream@@AAV0@AAUCvTradedItem@@@Z	; operator>>
; Function compile flags: /Ogtpy
;	COMDAT ??5@YAAAVFDataStream@@AAV0@AAUCvTradedItem@@@Z
_TEXT	SEGMENT
_uiVersion$ = -4					; size = 4
_v$225922 = 8						; size = 4
_loadFrom$ = 8						; size = 4
_writeTo$ = 12						; size = 4
??5@YAAAVFDataStream@@AAV0@AAUCvTradedItem@@@Z PROC	; operator>>, COMDAT

; 97   : {

	push	ecx
	push	esi
	push	edi

; 98   : 	uint uiVersion;
; 99   : 	loadFrom >> uiVersion;

	mov	edi, DWORD PTR _loadFrom$[esp+8]
	lea	eax, DWORD PTR _uiVersion$[esp+12]
	push	eax
	mov	ecx, edi
	call	?Read@FDataStream@@IAEXAAI@Z		; FDataStream::Read

; 100  : 	loadFrom >> writeTo.m_eItemType;

	lea	ecx, DWORD PTR _v$225922[esp+8]
	push	ecx
	mov	ecx, edi
	call	?Read@FDataStream@@IAEXAAH@Z		; FDataStream::Read
	mov	esi, DWORD PTR _writeTo$[esp+8]
	mov	edx, DWORD PTR _v$225922[esp+8]

; 101  : 	loadFrom >> writeTo.m_iDuration;

	lea	eax, DWORD PTR [esi+4]
	push	eax
	mov	ecx, edi
	mov	DWORD PTR [esi], edx
	call	?Read@FDataStream@@IAEXAAH@Z		; FDataStream::Read

; 102  : #ifdef AUI_YIELDS_APPLIED_AFTER_TURN_NOT_BEFORE
; 103  : 	loadFrom >> writeTo.m_iTurnsRemaining;
; 104  : #else
; 105  : 	loadFrom >> writeTo.m_iFinalTurn;

	lea	ecx, DWORD PTR [esi+8]
	push	ecx
	mov	ecx, edi
	call	?Read@FDataStream@@IAEXAAH@Z		; FDataStream::Read

; 106  : #endif
; 107  : 	loadFrom >> writeTo.m_iData1;

	lea	edx, DWORD PTR [esi+12]
	push	edx
	mov	ecx, edi
	call	?Read@FDataStream@@IAEXAAH@Z		; FDataStream::Read

; 108  : 	loadFrom >> writeTo.m_iData2;

	lea	eax, DWORD PTR [esi+16]
	push	eax
	mov	ecx, edi
	call	?Read@FDataStream@@IAEXAAH@Z		; FDataStream::Read

; 109  : 	if (uiVersion >= 2)

	cmp	DWORD PTR _uiVersion$[esp+12], 2
	jb	SHORT $LN2@operator@3

; 110  : 	{
; 111  : 		loadFrom >> writeTo.m_iData3;

	lea	ecx, DWORD PTR [esi+20]
	push	ecx
	mov	ecx, edi
	call	?Read@FDataStream@@IAEXAAH@Z		; FDataStream::Read

; 112  : 		loadFrom >> writeTo.m_bFlag1;

	lea	edx, DWORD PTR [esi+24]
	push	edx
	mov	ecx, edi
	call	?Read@FDataStream@@IAEXAA_N@Z		; FDataStream::Read

; 113  : 	}
; 114  : 	else

	jmp	SHORT $LN1@operator@3
$LN2@operator@3:

; 115  : 	{
; 116  : 		writeTo.m_iData3 = 0;

	xor	eax, eax
	mov	DWORD PTR [esi+20], eax

; 117  : 		writeTo.m_bFlag1 = false;

	mov	BYTE PTR [esi+24], al
$LN1@operator@3:

; 118  : 	}
; 119  : 	loadFrom >> writeTo.m_eFromPlayer;

	lea	eax, DWORD PTR [esi+28]
	push	eax
	push	edi
	call	??5@YAAAVFDataStream@@AAV0@AAW4PlayerTypes@@@Z ; operator>>
	add	esp, 8

; 120  : 	loadFrom >> writeTo.m_bFromRenewed;

	lea	ecx, DWORD PTR [esi+32]
	push	ecx
	mov	ecx, edi
	call	?Read@FDataStream@@IAEXAA_N@Z		; FDataStream::Read

; 121  : 	loadFrom >> writeTo.m_bToRenewed;

	add	esi, 33					; 00000021H
	push	esi
	mov	ecx, edi
	call	?Read@FDataStream@@IAEXAA_N@Z		; FDataStream::Read

; 122  : 	return loadFrom;

	mov	eax, edi
	pop	edi
	pop	esi

; 123  : }

	pop	ecx
	ret	0
??5@YAAAVFDataStream@@AAV0@AAUCvTradedItem@@@Z ENDP	; operator>>
_TEXT	ENDS
PUBLIC	??6@YAAAVFDataStream@@AAV0@ABUCvTradedItem@@@Z	; operator<<
EXTRN	??6@YAAAVFDataStream@@AAV0@ABW4PlayerTypes@@@Z:PROC ; operator<<
; Function compile flags: /Ogtpy
;	COMDAT ??6@YAAAVFDataStream@@AAV0@ABUCvTradedItem@@@Z
_TEXT	SEGMENT
_uiVersion$ = -4					; size = 4
$T225959 = 8						; size = 4
_saveTo$ = 8						; size = 4
_readFrom$ = 12						; size = 4
??6@YAAAVFDataStream@@AAV0@ABUCvTradedItem@@@Z PROC	; operator<<, COMDAT

; 127  : {

	push	ecx
	push	esi

; 128  : 	uint uiVersion = 2;
; 129  : 	saveTo << uiVersion;

	mov	esi, DWORD PTR _saveTo$[esp+4]
	push	edi
	lea	eax, DWORD PTR _uiVersion$[esp+12]
	push	eax
	mov	ecx, esi
	mov	DWORD PTR _uiVersion$[esp+16], 2
	call	?Write@FDataStream@@IAEXABI@Z		; FDataStream::Write

; 130  : 	saveTo << readFrom.m_eItemType;

	mov	edi, DWORD PTR _readFrom$[esp+8]
	mov	ecx, DWORD PTR [edi]
	lea	edx, DWORD PTR $T225959[esp+8]
	mov	DWORD PTR $T225959[esp+8], ecx
	push	edx
	mov	ecx, esi
	call	?Write@FDataStream@@IAEXABH@Z		; FDataStream::Write

; 131  : 	saveTo << readFrom.m_iDuration;

	lea	eax, DWORD PTR [edi+4]
	push	eax
	mov	ecx, esi
	call	?Write@FDataStream@@IAEXABH@Z		; FDataStream::Write

; 132  : #ifdef AUI_YIELDS_APPLIED_AFTER_TURN_NOT_BEFORE
; 133  : 	saveTo << readFrom.m_iTurnsRemaining;
; 134  : #else
; 135  : 	saveTo << readFrom.m_iFinalTurn;

	lea	ecx, DWORD PTR [edi+8]
	push	ecx
	mov	ecx, esi
	call	?Write@FDataStream@@IAEXABH@Z		; FDataStream::Write

; 136  : #endif
; 137  : 	saveTo << readFrom.m_iData1;

	lea	edx, DWORD PTR [edi+12]
	push	edx
	mov	ecx, esi
	call	?Write@FDataStream@@IAEXABH@Z		; FDataStream::Write

; 138  : 	saveTo << readFrom.m_iData2;

	lea	eax, DWORD PTR [edi+16]
	push	eax
	mov	ecx, esi
	call	?Write@FDataStream@@IAEXABH@Z		; FDataStream::Write

; 139  : 	saveTo << readFrom.m_iData3;

	lea	ecx, DWORD PTR [edi+20]
	push	ecx
	mov	ecx, esi
	call	?Write@FDataStream@@IAEXABH@Z		; FDataStream::Write

; 140  : 	saveTo << readFrom.m_bFlag1;

	lea	edx, DWORD PTR [edi+24]
	push	edx
	mov	ecx, esi
	call	?Write@FDataStream@@IAEXAB_N@Z		; FDataStream::Write

; 141  : 	saveTo << readFrom.m_eFromPlayer;

	lea	eax, DWORD PTR [edi+28]
	push	eax
	push	esi
	call	??6@YAAAVFDataStream@@AAV0@ABW4PlayerTypes@@@Z ; operator<<
	add	esp, 8

; 142  : 	saveTo << readFrom.m_bFromRenewed;

	lea	ecx, DWORD PTR [edi+32]
	push	ecx
	mov	ecx, esi
	call	?Write@FDataStream@@IAEXAB_N@Z		; FDataStream::Write

; 143  : 	saveTo << readFrom.m_bToRenewed;

	add	edi, 33					; 00000021H
	push	edi
	mov	ecx, esi
	call	?Write@FDataStream@@IAEXAB_N@Z		; FDataStream::Write
	pop	edi

; 144  : 	return saveTo;

	mov	eax, esi
	pop	esi

; 145  : }

	pop	ecx
	ret	0
??6@YAAAVFDataStream@@AAV0@ABUCvTradedItem@@@Z ENDP	; operator<<
_TEXT	ENDS
PUBLIC	?HasMadeProposal@CvGameDeals@@QAE?AW4PlayerTypes@@W42@@Z ; CvGameDeals::HasMadeProposal
; Function compile flags: /Ogtpy
;	COMDAT ?HasMadeProposal@CvGameDeals@@QAE?AW4PlayerTypes@@W42@@Z
_TEXT	SEGMENT
_ePlayer$ = 8						; size = 4
?HasMadeProposal@CvGameDeals@@QAE?AW4PlayerTypes@@W42@@Z PROC ; CvGameDeals::HasMadeProposal, COMDAT
; _this$ = ecx

; 2924 : 	if(m_ProposedDeals.size() > 0)

	cmp	DWORD PTR [ecx+8], 0
	jbe	SHORT $LN2@HasMadePro

; 2925 : 	{
; 2926 : 		DealList::iterator iter;
; 2927 : 		for(iter = m_ProposedDeals.begin(); iter != m_ProposedDeals.end(); ++iter)

	mov	edx, DWORD PTR [ecx+8]
	mov	eax, DWORD PTR [ecx+4]
	imul	edx, 76					; 0000004cH
	add	edx, eax
	cmp	eax, edx
	je	SHORT $LN2@HasMadePro
	mov	edx, DWORD PTR [ecx+8]
	imul	edx, 76					; 0000004cH

; 2928 : 			if(iter->m_eFromPlayer == ePlayer)

	mov	ecx, eax
	add	ecx, edx
	mov	edx, DWORD PTR _ePlayer$[esp-4]
$LL4@HasMadePro:
	cmp	DWORD PTR [eax+4], edx
	je	SHORT $LN15@HasMadePro
	add	eax, 76					; 0000004cH
	cmp	eax, ecx
	jne	SHORT $LL4@HasMadePro
$LN2@HasMadePro:

; 2930 : 	}
; 2931 : 
; 2932 : 	return NO_PLAYER;

	or	eax, -1

; 2933 : }

	ret	4
$LN15@HasMadePro:

; 2929 : 				return iter->m_eToPlayer;

	mov	eax, DWORD PTR [eax+8]

; 2933 : }

	ret	4
?HasMadeProposal@CvGameDeals@@QAE?AW4PlayerTypes@@W42@@Z ENDP ; CvGameDeals::HasMadeProposal
_TEXT	ENDS
PUBLIC	?ProposedDealExists@CvGameDeals@@QAE_NW4PlayerTypes@@0@Z ; CvGameDeals::ProposedDealExists
; Function compile flags: /Ogtpy
;	COMDAT ?ProposedDealExists@CvGameDeals@@QAE_NW4PlayerTypes@@0@Z
_TEXT	SEGMENT
_eFromPlayer$ = 8					; size = 4
_eToPlayer$ = 12					; size = 4
?ProposedDealExists@CvGameDeals@@QAE_NW4PlayerTypes@@0@Z PROC ; CvGameDeals::ProposedDealExists, COMDAT
; _this$ = ecx

; 2937 : 	if(m_ProposedDeals.size() > 0)

	cmp	DWORD PTR [ecx+8], 0
	push	esi
	jbe	SHORT $LN2@ProposedDe

; 2938 : 	{
; 2939 : 		DealList::iterator iter;
; 2940 : 		for(iter = m_ProposedDeals.begin(); iter != m_ProposedDeals.end(); ++iter)

	mov	edx, DWORD PTR [ecx+8]
	mov	eax, DWORD PTR [ecx+4]
	imul	edx, 76					; 0000004cH
	add	edx, eax
	cmp	eax, edx
	je	SHORT $LN2@ProposedDe
	mov	edx, DWORD PTR [ecx+8]

; 2941 : 		{
; 2942 : 			if(iter->m_eFromPlayer == eFromPlayer && iter->m_eToPlayer == eToPlayer)

	mov	esi, DWORD PTR _eFromPlayer$[esp]
	imul	edx, 76					; 0000004cH
	mov	ecx, eax
	add	ecx, edx
	mov	edx, DWORD PTR _eToPlayer$[esp]
$LL4@ProposedDe:
	cmp	DWORD PTR [eax+4], esi
	jne	SHORT $LN3@ProposedDe
	cmp	DWORD PTR [eax+8], edx
	je	SHORT $LN15@ProposedDe
$LN3@ProposedDe:

; 2938 : 	{
; 2939 : 		DealList::iterator iter;
; 2940 : 		for(iter = m_ProposedDeals.begin(); iter != m_ProposedDeals.end(); ++iter)

	add	eax, 76					; 0000004cH
	cmp	eax, ecx
	jne	SHORT $LL4@ProposedDe
$LN2@ProposedDe:

; 2944 : 		}
; 2945 : 	}
; 2946 : 
; 2947 : 	return false;

	xor	al, al
	pop	esi

; 2948 : }

	ret	8
$LN15@ProposedDe:

; 2943 : 				return true;

	mov	al, 1
	pop	esi

; 2948 : }

	ret	8
?ProposedDealExists@CvGameDeals@@QAE_NW4PlayerTypes@@0@Z ENDP ; CvGameDeals::ProposedDealExists
_TEXT	ENDS
PUBLIC	?GetProposedDeal@CvGameDeals@@QAEPAVCvDeal@@W4PlayerTypes@@0@Z ; CvGameDeals::GetProposedDeal
; Function compile flags: /Ogtpy
;	COMDAT ?GetProposedDeal@CvGameDeals@@QAEPAVCvDeal@@W4PlayerTypes@@0@Z
_TEXT	SEGMENT
_eFromPlayer$ = 8					; size = 4
_eToPlayer$ = 12					; size = 4
?GetProposedDeal@CvGameDeals@@QAEPAVCvDeal@@W4PlayerTypes@@0@Z PROC ; CvGameDeals::GetProposedDeal, COMDAT
; _this$ = ecx

; 2952 : 	if(m_ProposedDeals.size() > 0)

	cmp	DWORD PTR [ecx+8], 0
	push	esi
	jbe	SHORT $LN2@GetPropose

; 2953 : 	{
; 2954 : 		DealList::iterator iter;
; 2955 : 		for(iter = m_ProposedDeals.begin(); iter != m_ProposedDeals.end(); ++iter)

	mov	edx, DWORD PTR [ecx+8]
	mov	eax, DWORD PTR [ecx+4]
	imul	edx, 76					; 0000004cH
	add	edx, eax
	cmp	eax, edx
	je	SHORT $LN2@GetPropose
	mov	edx, DWORD PTR [ecx+8]

; 2956 : 			if(iter->m_eFromPlayer == eFromPlayer && iter->m_eToPlayer == eToPlayer)

	mov	esi, DWORD PTR _eFromPlayer$[esp]
	imul	edx, 76					; 0000004cH
	mov	ecx, eax
	add	ecx, edx
	mov	edx, DWORD PTR _eToPlayer$[esp]
$LL4@GetPropose:
	cmp	DWORD PTR [eax+4], esi
	jne	SHORT $LN3@GetPropose
	cmp	DWORD PTR [eax+8], edx
	je	SHORT $LN6@GetPropose
$LN3@GetPropose:

; 2953 : 	{
; 2954 : 		DealList::iterator iter;
; 2955 : 		for(iter = m_ProposedDeals.begin(); iter != m_ProposedDeals.end(); ++iter)

	add	eax, 76					; 0000004cH
	cmp	eax, ecx
	jne	SHORT $LL4@GetPropose
$LN2@GetPropose:

; 2957 : 				return &(*iter);
; 2958 : 	}
; 2959 : 
; 2960 : 	return NULL;

	xor	eax, eax
$LN6@GetPropose:
	pop	esi

; 2961 : }

	ret	8
?GetProposedDeal@CvGameDeals@@QAEPAVCvDeal@@W4PlayerTypes@@0@Z ENDP ; CvGameDeals::GetProposedDeal
_TEXT	ENDS
PUBLIC	?GetTradeItemGoldCost@CvGameDeals@@QBEHW4TradeableItems@@W4PlayerTypes@@1@Z ; CvGameDeals::GetTradeItemGoldCost
EXTRN	?GetResearchAgreementCost@CvGame@@QAEHW4PlayerTypes@@0@Z:PROC ; CvGame::GetResearchAgreementCost
EXTRN	?gGlobals@@3VCvGlobals@@A:BYTE			; gGlobals
; Function compile flags: /Ogtpy
;	COMDAT ?GetTradeItemGoldCost@CvGameDeals@@QBEHW4TradeableItems@@W4PlayerTypes@@1@Z
_TEXT	SEGMENT
_eItem$ = 8						; size = 4
_ePlayer1$ = 12						; size = 4
_ePlayer2$ = 16						; size = 4
?GetTradeItemGoldCost@CvGameDeals@@QBEHW4TradeableItems@@W4PlayerTypes@@1@Z PROC ; CvGameDeals::GetTradeItemGoldCost, COMDAT
; _this$ = ecx

; 3447 : 	int iGoldCost = 0;
; 3448 : 
; 3449 : 	switch(eItem)

	mov	ecx, DWORD PTR _eItem$[esp-4]
	xor	eax, eax
	sub	ecx, 8
	je	SHORT $LN2@GetTradeIt
	sub	ecx, 1
	jne	SHORT $LN3@GetTradeIt

; 3454 : 		break;
; 3455 : 	}
; 3456 : 	case TRADE_ITEM_TRADE_AGREEMENT:
; 3457 : 		iGoldCost = 250;

	mov	eax, 250				; 000000faH

; 3458 : 		break;
; 3459 : 	}
; 3460 : 
; 3461 : 	return iGoldCost;
; 3462 : }

	ret	12					; 0000000cH
$LN2@GetTradeIt:

; 3450 : 	{
; 3451 : 	case TRADE_ITEM_RESEARCH_AGREEMENT:
; 3452 : 	{
; 3453 : 		iGoldCost = GC.getGame().GetResearchAgreementCost(ePlayer1, ePlayer2);

	mov	eax, DWORD PTR _ePlayer2$[esp-4]
	mov	ecx, DWORD PTR _ePlayer1$[esp-4]
	push	eax
	push	ecx
	mov	ecx, DWORD PTR ?gGlobals@@3VCvGlobals@@A+48
	call	?GetResearchAgreementCost@CvGame@@QAEHW4PlayerTypes@@0@Z ; CvGame::GetResearchAgreementCost
$LN3@GetTradeIt:

; 3458 : 		break;
; 3459 : 	}
; 3460 : 
; 3461 : 	return iGoldCost;
; 3462 : }

	ret	12					; 0000000cH
?GetTradeItemGoldCost@CvGameDeals@@QBEHW4TradeableItems@@W4PlayerTypes@@1@Z ENDP ; CvGameDeals::GetTradeItemGoldCost
_TEXT	ENDS
PUBLIC	?GetCurrentDeal@CvGameDeals@@QAEPAVCvDeal@@W4PlayerTypes@@I@Z ; CvGameDeals::GetCurrentDeal
; Function compile flags: /Ogtpy
;	COMDAT ?GetCurrentDeal@CvGameDeals@@QAEPAVCvDeal@@W4PlayerTypes@@I@Z
_TEXT	SEGMENT
_ePlayer$ = 8						; size = 4
_index$ = 12						; size = 4
?GetCurrentDeal@CvGameDeals@@QAEPAVCvDeal@@W4PlayerTypes@@I@Z PROC ; CvGameDeals::GetCurrentDeal, COMDAT
; _this$ = ecx

; 3742 : 	DealList::iterator iter;
; 3743 : 	DealList::iterator end = m_CurrentDeals.end();

	mov	edx, DWORD PTR [ecx+1544]

; 3744 : 
; 3745 : 	uint iCount = 0;
; 3746 : 	for(iter = m_CurrentDeals.begin(); iter != end; ++iter)

	mov	eax, DWORD PTR [ecx+1540]
	imul	edx, 76					; 0000004cH
	add	edx, DWORD PTR [ecx+1540]
	push	ebx
	push	esi
	xor	esi, esi
	push	edi
	cmp	eax, edx
	je	SHORT $LN3@GetCurrent
	mov	edi, DWORD PTR _index$[esp+8]
	mov	ecx, DWORD PTR _ePlayer$[esp+8]
$LL5@GetCurrent:

; 3747 : 	{
; 3748 : 		if((iter->m_eToPlayer == ePlayer ||
; 3749 : 		        iter->m_eFromPlayer == ePlayer) &&
; 3750 : 		        (iCount++ == index))

	cmp	DWORD PTR [eax+8], ecx
	je	SHORT $LN1@GetCurrent
	cmp	DWORD PTR [eax+4], ecx
	jne	SHORT $LN4@GetCurrent
$LN1@GetCurrent:
	mov	ebx, esi
	inc	esi
	cmp	ebx, edi
	je	SHORT $LN6@GetCurrent
$LN4@GetCurrent:

; 3744 : 
; 3745 : 	uint iCount = 0;
; 3746 : 	for(iter = m_CurrentDeals.begin(); iter != end; ++iter)

	add	eax, 76					; 0000004cH
	cmp	eax, edx
	jne	SHORT $LL5@GetCurrent
$LN3@GetCurrent:

; 3751 : 		{
; 3752 : 			return &(*iter);
; 3753 : 		}
; 3754 : 	}
; 3755 : 
; 3756 : 	return NULL;

	xor	eax, eax
$LN6@GetCurrent:
	pop	edi
	pop	esi
	pop	ebx

; 3757 : }

	ret	8
?GetCurrentDeal@CvGameDeals@@QAEPAVCvDeal@@W4PlayerTypes@@I@Z ENDP ; CvGameDeals::GetCurrentDeal
_TEXT	ENDS
PUBLIC	?GetHistoricDeal@CvGameDeals@@QAEPAVCvDeal@@W4PlayerTypes@@I@Z ; CvGameDeals::GetHistoricDeal
; Function compile flags: /Ogtpy
;	COMDAT ?GetHistoricDeal@CvGameDeals@@QAEPAVCvDeal@@W4PlayerTypes@@I@Z
_TEXT	SEGMENT
_ePlayer$ = 8						; size = 4
_index$ = 12						; size = 4
?GetHistoricDeal@CvGameDeals@@QAEPAVCvDeal@@W4PlayerTypes@@I@Z PROC ; CvGameDeals::GetHistoricDeal, COMDAT
; _this$ = ecx

; 3764 : 	DealList::iterator iter;
; 3765 : 	DealList::iterator end = m_HistoricalDeals.end();

	mov	edx, DWORD PTR [ecx+3080]

; 3766 : 
; 3767 : 	uint iCount = 0;
; 3768 : 	for(iter = m_HistoricalDeals.begin(); iter != end; ++iter)

	mov	eax, DWORD PTR [ecx+3076]
	imul	edx, 76					; 0000004cH
	add	edx, DWORD PTR [ecx+3076]
	push	ebx
	push	esi
	xor	esi, esi
	push	edi
	cmp	eax, edx
	je	SHORT $LN3@GetHistori
	mov	edi, DWORD PTR _index$[esp+8]
	mov	ecx, DWORD PTR _ePlayer$[esp+8]
$LL5@GetHistori:

; 3769 : 	{
; 3770 : 		if((iter->m_eToPlayer == ePlayer ||
; 3771 : 		        iter->m_eFromPlayer == ePlayer) &&
; 3772 : 		        (iCount++ == index))

	cmp	DWORD PTR [eax+8], ecx
	je	SHORT $LN1@GetHistori
	cmp	DWORD PTR [eax+4], ecx
	jne	SHORT $LN4@GetHistori
$LN1@GetHistori:
	mov	ebx, esi
	inc	esi
	cmp	ebx, edi
	je	SHORT $LN6@GetHistori
$LN4@GetHistori:

; 3766 : 
; 3767 : 	uint iCount = 0;
; 3768 : 	for(iter = m_HistoricalDeals.begin(); iter != end; ++iter)

	add	eax, 76					; 0000004cH
	cmp	eax, edx
	jne	SHORT $LL5@GetHistori
$LN3@GetHistori:

; 3773 : 		{
; 3774 : 			return &(*iter);
; 3775 : 		}
; 3776 : 	}
; 3777 : 
; 3778 : 	return NULL;

	xor	eax, eax
$LN6@GetHistori:
	pop	edi
	pop	esi
	pop	ebx

; 3779 : }

	ret	8
?GetHistoricDeal@CvGameDeals@@QAEPAVCvDeal@@W4PlayerTypes@@I@Z ENDP ; CvGameDeals::GetHistoricDeal
_TEXT	ENDS
PUBLIC	?GetNumCurrentDeals@CvGameDeals@@QAEIW4PlayerTypes@@@Z ; CvGameDeals::GetNumCurrentDeals
; Function compile flags: /Ogtpy
;	COMDAT ?GetNumCurrentDeals@CvGameDeals@@QAEIW4PlayerTypes@@@Z
_TEXT	SEGMENT
_ePlayer$ = 8						; size = 4
?GetNumCurrentDeals@CvGameDeals@@QAEIW4PlayerTypes@@@Z PROC ; CvGameDeals::GetNumCurrentDeals, COMDAT
; _this$ = ecx

; 3786 : 	DealList::iterator iter;
; 3787 : 	DealList::iterator end = m_CurrentDeals.end();

	mov	edx, DWORD PTR [ecx+1544]
	imul	edx, 76					; 0000004cH
	add	edx, DWORD PTR [ecx+1540]

; 3788 : 
; 3789 : 	uint iCount = 0;
; 3790 : 	for(iter = m_CurrentDeals.begin(); iter != end; ++iter)

	mov	ecx, DWORD PTR [ecx+1540]
	xor	eax, eax
	cmp	ecx, edx
	je	SHORT $LN3@GetNumCurr
	push	esi
	mov	esi, DWORD PTR _ePlayer$[esp]
$LL5@GetNumCurr:

; 3791 : 	{
; 3792 : 		if(iter->m_eToPlayer == ePlayer ||
; 3793 : 		        iter->m_eFromPlayer == ePlayer)

	cmp	DWORD PTR [ecx+8], esi
	je	SHORT $LN1@GetNumCurr
	cmp	DWORD PTR [ecx+4], esi
	jne	SHORT $LN4@GetNumCurr
$LN1@GetNumCurr:

; 3794 : 		{
; 3795 : 			++iCount;

	inc	eax
$LN4@GetNumCurr:

; 3788 : 
; 3789 : 	uint iCount = 0;
; 3790 : 	for(iter = m_CurrentDeals.begin(); iter != end; ++iter)

	add	ecx, 76					; 0000004cH
	cmp	ecx, edx
	jne	SHORT $LL5@GetNumCurr
	pop	esi
$LN3@GetNumCurr:

; 3796 : 		}
; 3797 : 	}
; 3798 : 
; 3799 : 	return iCount;
; 3800 : }

	ret	4
?GetNumCurrentDeals@CvGameDeals@@QAEIW4PlayerTypes@@@Z ENDP ; CvGameDeals::GetNumCurrentDeals
_TEXT	ENDS
PUBLIC	?GetNumHistoricDeals@CvGameDeals@@QAEIW4PlayerTypes@@@Z ; CvGameDeals::GetNumHistoricDeals
; Function compile flags: /Ogtpy
;	COMDAT ?GetNumHistoricDeals@CvGameDeals@@QAEIW4PlayerTypes@@@Z
_TEXT	SEGMENT
_ePlayer$ = 8						; size = 4
?GetNumHistoricDeals@CvGameDeals@@QAEIW4PlayerTypes@@@Z PROC ; CvGameDeals::GetNumHistoricDeals, COMDAT
; _this$ = ecx

; 3808 : 	DealList::iterator iter;
; 3809 : 	DealList::iterator end = m_HistoricalDeals.end();

	mov	edx, DWORD PTR [ecx+3080]
	imul	edx, 76					; 0000004cH
	add	edx, DWORD PTR [ecx+3076]

; 3810 : 
; 3811 : 	uint iCount = 0;
; 3812 : 	for(iter = m_HistoricalDeals.begin(); iter != end; ++iter)

	mov	ecx, DWORD PTR [ecx+3076]
	xor	eax, eax
	cmp	ecx, edx
	je	SHORT $LN3@GetNumHist
	push	esi
	mov	esi, DWORD PTR _ePlayer$[esp]
$LL5@GetNumHist:

; 3813 : 	{
; 3814 : 		if(iter->m_eToPlayer == ePlayer ||
; 3815 : 		        iter->m_eFromPlayer == ePlayer)

	cmp	DWORD PTR [ecx+8], esi
	je	SHORT $LN1@GetNumHist
	cmp	DWORD PTR [ecx+4], esi
	jne	SHORT $LN4@GetNumHist
$LN1@GetNumHist:

; 3816 : 		{
; 3817 : 			++iCount;

	inc	eax
$LN4@GetNumHist:

; 3810 : 
; 3811 : 	uint iCount = 0;
; 3812 : 	for(iter = m_HistoricalDeals.begin(); iter != end; ++iter)

	add	ecx, 76					; 0000004cH
	cmp	ecx, edx
	jne	SHORT $LL5@GetNumHist
	pop	esi
$LN3@GetNumHist:

; 3818 : 		}
; 3819 : 	}
; 3820 : 
; 3821 : 	return iCount;
; 3822 : }

	ret	4
?GetNumHistoricDeals@CvGameDeals@@QAEIW4PlayerTypes@@@Z ENDP ; CvGameDeals::GetNumHistoricDeals
_TEXT	ENDS
PUBLIC	?size@?$FFastList@UCvTradedItem@@$0BF@$0A@@@QBEIXZ ; FFastList<CvTradedItem,21,0>::size
; Function compile flags: /Ogtpy
; File c:\users\enormousapplepie\desktop\lekmod dll versions\v31\lekmod_dll\fireplace\include\fireworks\ffastlist.h
;	COMDAT ?size@?$FFastList@UCvTradedItem@@$0BF@$0A@@@QBEIXZ
_TEXT	SEGMENT
?size@?$FFastList@UCvTradedItem@@$0BF@$0A@@@QBEIXZ PROC	; FFastList<CvTradedItem,21,0>::size, COMDAT
; _this$ = ecx

; 189  : 	unsigned int size() const{ return BASE_TYPE::size(); };

	mov	eax, DWORD PTR [ecx+20]
	ret	0
?size@?$FFastList@UCvTradedItem@@$0BF@$0A@@@QBEIXZ ENDP	; FFastList<CvTradedItem,21,0>::size
_TEXT	ENDS
PUBLIC	??0?$FStaticVector@VCvDeal@@$0BE@$0A@$0BCJ@$0A@@@QAE@XZ ; FStaticVector<CvDeal,20,0,297,0>::FStaticVector<CvDeal,20,0,297,0>
; Function compile flags: /Ogtpy
; File c:\users\enormousapplepie\desktop\lekmod dll versions\v31\lekmod_dll\fireplace\include\fireworks\ffastvector.h
;	COMDAT ??0?$FStaticVector@VCvDeal@@$0BE@$0A@$0BCJ@$0A@@@QAE@XZ
_TEXT	SEGMENT
??0?$FStaticVector@VCvDeal@@$0BE@$0A@$0BCJ@$0A@@@QAE@XZ PROC ; FStaticVector<CvDeal,20,0,297,0>::FStaticVector<CvDeal,20,0,297,0>, COMDAT
; _this$ = ecx

; 601  : 	FStaticVector()

	mov	eax, ecx

; 602  :     {
; 603  : 		m_uiCurrMaxSize = L;
; 604  : 		m_pData = Alloc(m_uiCurrMaxSize);

	lea	ecx, DWORD PTR [eax+12]
	mov	DWORD PTR [eax+4], 0
	mov	DWORD PTR [eax+8], 20			; 00000014H
	mov	DWORD PTR [eax], ecx

; 605  : #ifdef BREAK_ON_STATIC_RESIZE
; 606  : 		m_iNumResized = 0;
; 607  : #endif
; 608  :     };

	ret	0
??0?$FStaticVector@VCvDeal@@$0BE@$0A@$0BCJ@$0A@@@QAE@XZ ENDP ; FStaticVector<CvDeal,20,0,297,0>::FStaticVector<CvDeal,20,0,297,0>
_TEXT	ENDS
PUBLIC	?clear@?$BaseVector@VCvDeal@@$0A@@@QAEXXZ	; BaseVector<CvDeal,0>::clear
; Function compile flags: /Ogtpy
;	COMDAT ?clear@?$BaseVector@VCvDeal@@$0A@@@QAEXXZ
_TEXT	SEGMENT
?clear@?$BaseVector@VCvDeal@@$0A@@@QAEXXZ PROC		; BaseVector<CvDeal,0>::clear, COMDAT
; _this$ = ecx

; 120  : 	void clear(){

	push	ebx
	push	esi
	mov	ebx, ecx

; 121  : 		Destroy(m_pData, m_uiCurrSize);

	mov	esi, DWORD PTR [ebx]
	push	edi
	mov	edi, DWORD PTR [ebx+4]
	test	edi, edi
	jbe	SHORT $LN11@clear
	npad	2
$LL5@clear:
	mov	eax, DWORD PTR [esi]
	mov	edx, DWORD PTR [eax]
	push	0
	mov	ecx, esi
	call	edx
	add	esi, 76					; 0000004cH
	sub	edi, 1
	jne	SHORT $LL5@clear
$LN11@clear:
	pop	edi
	pop	esi

; 122  : 		m_uiCurrSize = 0;

	mov	DWORD PTR [ebx+4], 0
	pop	ebx

; 123  : 	};

	ret	0
?clear@?$BaseVector@VCvDeal@@$0A@@@QAEXXZ ENDP		; BaseVector<CvDeal,0>::clear
_TEXT	ENDS
PUBLIC	??D?$_Vector_iterator@U?$pair@IPAVCvDeal@@@std@@V?$allocator@U?$pair@IPAVCvDeal@@@std@@@2@@std@@QBEAAU?$pair@IPAVCvDeal@@@1@XZ ; std::_Vector_iterator<std::pair<unsigned int,CvDeal *>,std::allocator<std::pair<unsigned int,CvDeal *> > >::operator*
; Function compile flags: /Ogtpy
; File c:\program files (x86)\microsoft visual studio 9.0\vc\include\vector
;	COMDAT ??D?$_Vector_iterator@U?$pair@IPAVCvDeal@@@std@@V?$allocator@U?$pair@IPAVCvDeal@@@std@@@2@@std@@QBEAAU?$pair@IPAVCvDeal@@@1@XZ
_TEXT	SEGMENT
??D?$_Vector_iterator@U?$pair@IPAVCvDeal@@@std@@V?$allocator@U?$pair@IPAVCvDeal@@@std@@@2@@std@@QBEAAU?$pair@IPAVCvDeal@@@1@XZ PROC ; std::_Vector_iterator<std::pair<unsigned int,CvDeal *>,std::allocator<std::pair<unsigned int,CvDeal *> > >::operator*, COMDAT
; _this$ = ecx

; 339  : 		return ((reference)**(_Mybase *)this);

	mov	eax, DWORD PTR [ecx]

; 340  : 		}

	ret	0
??D?$_Vector_iterator@U?$pair@IPAVCvDeal@@@std@@V?$allocator@U?$pair@IPAVCvDeal@@@std@@@2@@std@@QBEAAU?$pair@IPAVCvDeal@@@1@XZ ENDP ; std::_Vector_iterator<std::pair<unsigned int,CvDeal *>,std::allocator<std::pair<unsigned int,CvDeal *> > >::operator*
_TEXT	ENDS
PUBLIC	??C?$_Vector_iterator@U?$pair@IPAVCvDeal@@@std@@V?$allocator@U?$pair@IPAVCvDeal@@@std@@@2@@std@@QBEPAU?$pair@IPAVCvDeal@@@1@XZ ; std::_Vector_iterator<std::pair<unsigned int,CvDeal *>,std::allocator<std::pair<unsigned int,CvDeal *> > >::operator->
; Function compile flags: /Ogtpy
;	COMDAT ??C?$_Vector_iterator@U?$pair@IPAVCvDeal@@@std@@V?$allocator@U?$pair@IPAVCvDeal@@@std@@@2@@std@@QBEPAU?$pair@IPAVCvDeal@@@1@XZ
_TEXT	SEGMENT
??C?$_Vector_iterator@U?$pair@IPAVCvDeal@@@std@@V?$allocator@U?$pair@IPAVCvDeal@@@std@@@2@@std@@QBEPAU?$pair@IPAVCvDeal@@@1@XZ PROC ; std::_Vector_iterator<std::pair<unsigned int,CvDeal *>,std::allocator<std::pair<unsigned int,CvDeal *> > >::operator->, COMDAT
; _this$ = ecx

; 344  : 		return (&**this);

	mov	eax, DWORD PTR [ecx]

; 345  : 		}

	ret	0
??C?$_Vector_iterator@U?$pair@IPAVCvDeal@@@std@@V?$allocator@U?$pair@IPAVCvDeal@@@std@@@2@@std@@QBEPAU?$pair@IPAVCvDeal@@@1@XZ ENDP ; std::_Vector_iterator<std::pair<unsigned int,CvDeal *>,std::allocator<std::pair<unsigned int,CvDeal *> > >::operator->
_TEXT	ENDS
PUBLIC	??E?$_Vector_iterator@U?$pair@IPAVCvDeal@@@std@@V?$allocator@U?$pair@IPAVCvDeal@@@std@@@2@@std@@QAEAAV01@XZ ; std::_Vector_iterator<std::pair<unsigned int,CvDeal *>,std::allocator<std::pair<unsigned int,CvDeal *> > >::operator++
; Function compile flags: /Ogtpy
;	COMDAT ??E?$_Vector_iterator@U?$pair@IPAVCvDeal@@@std@@V?$allocator@U?$pair@IPAVCvDeal@@@std@@@2@@std@@QAEAAV01@XZ
_TEXT	SEGMENT
??E?$_Vector_iterator@U?$pair@IPAVCvDeal@@@std@@V?$allocator@U?$pair@IPAVCvDeal@@@std@@@2@@std@@QAEAAV01@XZ PROC ; std::_Vector_iterator<std::pair<unsigned int,CvDeal *>,std::allocator<std::pair<unsigned int,CvDeal *> > >::operator++, COMDAT
; _this$ = ecx

; 348  : 		{	// preincrement

	mov	eax, ecx

; 349  : 		++(*(_Mybase *)this);

	add	DWORD PTR [eax], 8

; 350  : 		return (*this);
; 351  : 		}

	ret	0
??E?$_Vector_iterator@U?$pair@IPAVCvDeal@@@std@@V?$allocator@U?$pair@IPAVCvDeal@@@std@@@2@@std@@QAEAAV01@XZ ENDP ; std::_Vector_iterator<std::pair<unsigned int,CvDeal *>,std::allocator<std::pair<unsigned int,CvDeal *> > >::operator++
_TEXT	ENDS
PUBLIC	??9?$_Vector_const_iterator@U?$pair@IPAVCvDeal@@@std@@V?$allocator@U?$pair@IPAVCvDeal@@@std@@@2@@std@@QBE_NABV01@@Z ; std::_Vector_const_iterator<std::pair<unsigned int,CvDeal *>,std::allocator<std::pair<unsigned int,CvDeal *> > >::operator!=
; Function compile flags: /Ogtpy
;	COMDAT ??9?$_Vector_const_iterator@U?$pair@IPAVCvDeal@@@std@@V?$allocator@U?$pair@IPAVCvDeal@@@std@@@2@@std@@QBE_NABV01@@Z
_TEXT	SEGMENT
__Right$ = 8						; size = 4
??9?$_Vector_const_iterator@U?$pair@IPAVCvDeal@@@std@@V?$allocator@U?$pair@IPAVCvDeal@@@std@@@2@@std@@QBE_NABV01@@Z PROC ; std::_Vector_const_iterator<std::pair<unsigned int,CvDeal *>,std::allocator<std::pair<unsigned int,CvDeal *> > >::operator!=, COMDAT
; _this$ = ecx

; 216  : 		return (!(*this == _Right));

	mov	eax, DWORD PTR [ecx]
	mov	edx, DWORD PTR __Right$[esp-4]
	xor	ecx, ecx
	cmp	eax, DWORD PTR [edx]
	setne	cl
	mov	al, cl

; 217  : 		}

	ret	4
??9?$_Vector_const_iterator@U?$pair@IPAVCvDeal@@@std@@V?$allocator@U?$pair@IPAVCvDeal@@@std@@@2@@std@@QBE_NABV01@@Z ENDP ; std::_Vector_const_iterator<std::pair<unsigned int,CvDeal *>,std::allocator<std::pair<unsigned int,CvDeal *> > >::operator!=
_TEXT	ENDS
PUBLIC	?GetElement@?$CvWeightedVector@W4TeamTypes@@$0DP@$00@@QBEABW4TeamTypes@@I@Z ; CvWeightedVector<enum TeamTypes,63,1>::GetElement
; Function compile flags: /Ogtpy
; File c:\users\enormousapplepie\desktop\lekmod dll versions\v31\lekmod_dll\cvgamecoredllutil\include\cvweightedvector.h
;	COMDAT ?GetElement@?$CvWeightedVector@W4TeamTypes@@$0DP@$00@@QBEABW4TeamTypes@@I@Z
_TEXT	SEGMENT
_iIndex$ = 8						; size = 4
?GetElement@?$CvWeightedVector@W4TeamTypes@@$0DP@$00@@QBEABW4TeamTypes@@I@Z PROC ; CvWeightedVector<enum TeamTypes,63,1>::GetElement, COMDAT
; _this$ = ecx

; 64   : 		assert(iIndex < m_pItems.size());
; 65   : 		return m_pItems[iIndex].m_Element;

	mov	eax, DWORD PTR [ecx]
	mov	ecx, DWORD PTR _iIndex$[esp-4]
	lea	eax, DWORD PTR [eax+ecx*8]

; 66   : 	};

	ret	4
?GetElement@?$CvWeightedVector@W4TeamTypes@@$0DP@$00@@QBEABW4TeamTypes@@I@Z ENDP ; CvWeightedVector<enum TeamTypes,63,1>::GetElement
_TEXT	ENDS
PUBLIC	?GetWeight@?$CvWeightedVector@W4TeamTypes@@$0DP@$00@@QBEHI@Z ; CvWeightedVector<enum TeamTypes,63,1>::GetWeight
; Function compile flags: /Ogtpy
;	COMDAT ?GetWeight@?$CvWeightedVector@W4TeamTypes@@$0DP@$00@@QBEHI@Z
_TEXT	SEGMENT
_elem$ = -8						; size = 8
_iIndex$ = 8						; size = 4
?GetWeight@?$CvWeightedVector@W4TeamTypes@@$0DP@$00@@QBEHI@Z PROC ; CvWeightedVector<enum TeamTypes,63,1>::GetWeight, COMDAT
; _this$ = ecx

; 70   : 	{

	sub	esp, 8

; 71   : 		WeightedElement elem;
; 72   : 		assert(iIndex < m_pItems.size());
; 73   : 		elem = m_pItems[iIndex];

	mov	eax, DWORD PTR [ecx]
	mov	ecx, DWORD PTR _iIndex$[esp+4]
	mov	edx, DWORD PTR [eax+ecx*8]

; 74   : 		return elem.m_iWeight;

	mov	eax, DWORD PTR [eax+ecx*8+4]
	mov	DWORD PTR _elem$[esp+8], edx

; 75   : 	}

	add	esp, 8
	ret	4
?GetWeight@?$CvWeightedVector@W4TeamTypes@@$0DP@$00@@QBEHI@Z ENDP ; CvWeightedVector<enum TeamTypes,63,1>::GetWeight
_TEXT	ENDS
PUBLIC	?size@?$CvWeightedVector@W4TeamTypes@@$0DP@$00@@QAEHXZ ; CvWeightedVector<enum TeamTypes,63,1>::size
; Function compile flags: /Ogtpy
;	COMDAT ?size@?$CvWeightedVector@W4TeamTypes@@$0DP@$00@@QAEHXZ
_TEXT	SEGMENT
?size@?$CvWeightedVector@W4TeamTypes@@$0DP@$00@@QAEHXZ PROC ; CvWeightedVector<enum TeamTypes,63,1>::size, COMDAT
; _this$ = ecx

; 134  : 		return m_pItems.size();

	mov	eax, DWORD PTR [ecx+4]

; 135  : 	};

	ret	0
?size@?$CvWeightedVector@W4TeamTypes@@$0DP@$00@@QAEHXZ ENDP ; CvWeightedVector<enum TeamTypes,63,1>::size
_TEXT	ENDS
PUBLIC	??1?$_Vector_val@U?$pair@IPAVCvDeal@@@std@@V?$allocator@U?$pair@IPAVCvDeal@@@std@@@2@@std@@QAE@XZ ; std::_Vector_val<std::pair<unsigned int,CvDeal *>,std::allocator<std::pair<unsigned int,CvDeal *> > >::~_Vector_val<std::pair<unsigned int,CvDeal *>,std::allocator<std::pair<unsigned int,CvDeal *> > >
; Function compile flags: /Ogtpy
;	COMDAT ??1?$_Vector_val@U?$pair@IPAVCvDeal@@@std@@V?$allocator@U?$pair@IPAVCvDeal@@@std@@@2@@std@@QAE@XZ
_TEXT	SEGMENT
??1?$_Vector_val@U?$pair@IPAVCvDeal@@@std@@V?$allocator@U?$pair@IPAVCvDeal@@@std@@@2@@std@@QAE@XZ PROC ; std::_Vector_val<std::pair<unsigned int,CvDeal *>,std::allocator<std::pair<unsigned int,CvDeal *> > >::~_Vector_val<std::pair<unsigned int,CvDeal *>,std::allocator<std::pair<unsigned int,CvDeal *> > >, COMDAT
; _this$ = ecx
	ret	0
??1?$_Vector_val@U?$pair@IPAVCvDeal@@@std@@V?$allocator@U?$pair@IPAVCvDeal@@@std@@@2@@std@@QAE@XZ ENDP ; std::_Vector_val<std::pair<unsigned int,CvDeal *>,std::allocator<std::pair<unsigned int,CvDeal *> > >::~_Vector_val<std::pair<unsigned int,CvDeal *>,std::allocator<std::pair<unsigned int,CvDeal *> > >
_TEXT	ENDS
PUBLIC	??A?$FFastAllocator@U?$MultiListNodePolicy@UCvTradedItem@@@@$0A@$0BF@$0A@UFDefaultFastVectorAllocator@?$BaseVector@U?$MultiListNodePolicy@UCvTradedItem@@@@$0A@@@@@QAEAAU?$MultiListNodePolicy@UCvTradedItem@@@@I@Z ; FFastAllocator<MultiListNodePolicy<CvTradedItem>,0,21,0,BaseVector<MultiListNodePolicy<CvTradedItem>,0>::FDefaultFastVectorAllocator>::operator[]
; Function compile flags: /Ogtpy
; File c:\users\enormousapplepie\desktop\lekmod dll versions\v31\lekmod_dll\fireplace\include\fireworks\ffastallocator.h
;	COMDAT ??A?$FFastAllocator@U?$MultiListNodePolicy@UCvTradedItem@@@@$0A@$0BF@$0A@UFDefaultFastVectorAllocator@?$BaseVector@U?$MultiListNodePolicy@UCvTradedItem@@@@$0A@@@@@QAEAAU?$MultiListNodePolicy@UCvTradedItem@@@@I@Z
_TEXT	SEGMENT
_ui$ = 8						; size = 4
??A?$FFastAllocator@U?$MultiListNodePolicy@UCvTradedItem@@@@$0A@$0BF@$0A@UFDefaultFastVectorAllocator@?$BaseVector@U?$MultiListNodePolicy@UCvTradedItem@@@@$0A@@@@@QAEAAU?$MultiListNodePolicy@UCvTradedItem@@@@I@Z PROC ; FFastAllocator<MultiListNodePolicy<CvTradedItem>,0,21,0,BaseVector<MultiListNodePolicy<CvTradedItem>,0>::FDefaultFastVectorAllocator>::operator[], COMDAT
; _this$ = ecx

; 269  : 		return m_vec[ui];

	mov	eax, DWORD PTR _ui$[esp-4]
	imul	eax, 44					; 0000002cH
	add	eax, DWORD PTR [ecx+8]

; 270  : 	}

	ret	4
??A?$FFastAllocator@U?$MultiListNodePolicy@UCvTradedItem@@@@$0A@$0BF@$0A@UFDefaultFastVectorAllocator@?$BaseVector@U?$MultiListNodePolicy@UCvTradedItem@@@@$0A@@@@@QAEAAU?$MultiListNodePolicy@UCvTradedItem@@@@I@Z ENDP ; FFastAllocator<MultiListNodePolicy<CvTradedItem>,0,21,0,BaseVector<MultiListNodePolicy<CvTradedItem>,0>::FDefaultFastVectorAllocator>::operator[]
_TEXT	ENDS
PUBLIC	??A?$FFastAllocator@U?$MultiListNodePolicy@UCvTradedItem@@@@$0A@$0BF@$0A@UFDefaultFastVectorAllocator@?$BaseVector@U?$MultiListNodePolicy@UCvTradedItem@@@@$0A@@@@@QBEABU?$MultiListNodePolicy@UCvTradedItem@@@@I@Z ; FFastAllocator<MultiListNodePolicy<CvTradedItem>,0,21,0,BaseVector<MultiListNodePolicy<CvTradedItem>,0>::FDefaultFastVectorAllocator>::operator[]
; Function compile flags: /Ogtpy
;	COMDAT ??A?$FFastAllocator@U?$MultiListNodePolicy@UCvTradedItem@@@@$0A@$0BF@$0A@UFDefaultFastVectorAllocator@?$BaseVector@U?$MultiListNodePolicy@UCvTradedItem@@@@$0A@@@@@QBEABU?$MultiListNodePolicy@UCvTradedItem@@@@I@Z
_TEXT	SEGMENT
_ui$ = 8						; size = 4
??A?$FFastAllocator@U?$MultiListNodePolicy@UCvTradedItem@@@@$0A@$0BF@$0A@UFDefaultFastVectorAllocator@?$BaseVector@U?$MultiListNodePolicy@UCvTradedItem@@@@$0A@@@@@QBEABU?$MultiListNodePolicy@UCvTradedItem@@@@I@Z PROC ; FFastAllocator<MultiListNodePolicy<CvTradedItem>,0,21,0,BaseVector<MultiListNodePolicy<CvTradedItem>,0>::FDefaultFastVectorAllocator>::operator[], COMDAT
; _this$ = ecx

; 274  : 		return m_vec[ui];

	mov	eax, DWORD PTR _ui$[esp-4]
	imul	eax, 44					; 0000002cH
	add	eax, DWORD PTR [ecx+8]

; 275  : 
; 276  : 	}

	ret	4
??A?$FFastAllocator@U?$MultiListNodePolicy@UCvTradedItem@@@@$0A@$0BF@$0A@UFDefaultFastVectorAllocator@?$BaseVector@U?$MultiListNodePolicy@UCvTradedItem@@@@$0A@@@@@QBEABU?$MultiListNodePolicy@UCvTradedItem@@@@I@Z ENDP ; FFastAllocator<MultiListNodePolicy<CvTradedItem>,0,21,0,BaseVector<MultiListNodePolicy<CvTradedItem>,0>::FDefaultFastVectorAllocator>::operator[]
_TEXT	ENDS
PUBLIC	?Free@?$FStaticVector@VCvDeal@@$0BE@$0A@$0BCJ@$0A@@@IAEXPAVCvDeal@@I@Z ; FStaticVector<CvDeal,20,0,297,0>::Free
; Function compile flags: /Ogtpy
; File c:\users\enormousapplepie\desktop\lekmod dll versions\v31\lekmod_dll\fireplace\include\fireworks\ffastvector.h
;	COMDAT ?Free@?$FStaticVector@VCvDeal@@$0BE@$0A@$0BCJ@$0A@@@IAEXPAVCvDeal@@I@Z
_TEXT	SEGMENT
_pVal$ = 8						; size = 4
_uiNumElements$ = 12					; size = 4
?Free@?$FStaticVector@VCvDeal@@$0BE@$0A@$0BCJ@$0A@@@IAEXPAVCvDeal@@I@Z PROC ; FStaticVector<CvDeal,20,0,297,0>::Free, COMDAT
; _this$ = ecx

; 809  : 	{

	push	ebx

; 810  : 		if( !bPODType) Destroy(pVal, uiNumElements);

	mov	ebx, DWORD PTR _pVal$[esp]
	push	ebp
	push	edi
	mov	edi, DWORD PTR _uiNumElements$[esp+8]
	mov	ebp, ecx
	test	edi, edi
	jbe	SHORT $LN5@Free
	push	esi
	mov	esi, ebx
$LL13@Free:
	mov	eax, DWORD PTR [esi]
	mov	edx, DWORD PTR [eax]
	push	0
	mov	ecx, esi
	call	edx
	add	esi, 76					; 0000004cH
	sub	edi, 1
	jne	SHORT $LL13@Free
	pop	esi
$LN5@Free:

; 811  : 		if( pVal != (T*)m_aData )

	add	ebp, 12					; 0000000cH
	cmp	ebx, ebp
	je	SHORT $LN1@Free

; 812  : 			FFREEALIGNED( (unsigned char*)pVal );

	push	ebx
	call	?FireFreeAlignedNoTracking@@YAXPAX@Z	; FireFreeAlignedNoTracking
	add	esp, 4
$LN1@Free:
	pop	edi
	pop	ebp
	pop	ebx

; 813  : 	};

	ret	8
?Free@?$FStaticVector@VCvDeal@@$0BE@$0A@$0BCJ@$0A@@@IAEXPAVCvDeal@@I@Z ENDP ; FStaticVector<CvDeal,20,0,297,0>::Free
_TEXT	ENDS
PUBLIC	??0?$_Vector_val@U?$pair@IPAVCvDeal@@@std@@V?$allocator@U?$pair@IPAVCvDeal@@@std@@@2@@std@@IAE@V?$allocator@U?$pair@IPAVCvDeal@@@std@@@1@@Z ; std::_Vector_val<std::pair<unsigned int,CvDeal *>,std::allocator<std::pair<unsigned int,CvDeal *> > >::_Vector_val<std::pair<unsigned int,CvDeal *>,std::allocator<std::pair<unsigned int,CvDeal *> > >
; Function compile flags: /Ogtpy
; File c:\program files (x86)\microsoft visual studio 9.0\vc\include\vector
;	COMDAT ??0?$_Vector_val@U?$pair@IPAVCvDeal@@@std@@V?$allocator@U?$pair@IPAVCvDeal@@@std@@@2@@std@@IAE@V?$allocator@U?$pair@IPAVCvDeal@@@std@@@1@@Z
_TEXT	SEGMENT
__Al$ = 8						; size = 1
??0?$_Vector_val@U?$pair@IPAVCvDeal@@@std@@V?$allocator@U?$pair@IPAVCvDeal@@@std@@@2@@std@@IAE@V?$allocator@U?$pair@IPAVCvDeal@@@std@@@1@@Z PROC ; std::_Vector_val<std::pair<unsigned int,CvDeal *>,std::allocator<std::pair<unsigned int,CvDeal *> > >::_Vector_val<std::pair<unsigned int,CvDeal *>,std::allocator<std::pair<unsigned int,CvDeal *> > >, COMDAT
; _this$ = ecx

; 425  : 		{	// construct allocator from _Al

	mov	eax, ecx

; 426  : 		}

	ret	4
??0?$_Vector_val@U?$pair@IPAVCvDeal@@@std@@V?$allocator@U?$pair@IPAVCvDeal@@@std@@@2@@std@@IAE@V?$allocator@U?$pair@IPAVCvDeal@@@std@@@1@@Z ENDP ; std::_Vector_val<std::pair<unsigned int,CvDeal *>,std::allocator<std::pair<unsigned int,CvDeal *> > >::_Vector_val<std::pair<unsigned int,CvDeal *>,std::allocator<std::pair<unsigned int,CvDeal *> > >
_TEXT	ENDS
PUBLIC	??1const_iterator@?$FCustomList_Core@U?$MultiListNodePolicy@UCvTradedItem@@@@V?$FFastAllocator@U?$MultiListNodePolicy@UCvTradedItem@@@@$0A@$0BF@$0A@UFDefaultFastVectorAllocator@?$BaseVector@U?$MultiListNodePolicy@UCvTradedItem@@@@$0A@@@@@V?$FCustomList_Tail_Member@V?$FFastAllocator@U?$MultiListNodePolicy@UCvTradedItem@@@@$0A@$0BF@$0A@UFDefaultFastVectorAllocator@?$BaseVector@U?$MultiListNodePolicy@UCvTradedItem@@@@$0A@@@@@@@@@QAE@XZ ; FCustomList_Core<MultiListNodePolicy<CvTradedItem>,FFastAllocator<MultiListNodePolicy<CvTradedItem>,0,21,0,BaseVector<MultiListNodePolicy<CvTradedItem>,0>::FDefaultFastVectorAllocator>,FCustomList_Tail_Member<FFastAllocator<MultiListNodePolicy<CvTradedItem>,0,21,0,BaseVector<MultiListNodePolicy<CvTradedItem>,0>::FDefaultFastVectorAllocator> > >::const_iterator::~const_iterator
; Function compile flags: /Ogtpy
; File c:\users\enormousapplepie\desktop\lekmod dll versions\v31\lekmod_dll\fireplace\include\fireworks\ffastlist.h
;	COMDAT ??1const_iterator@?$FCustomList_Core@U?$MultiListNodePolicy@UCvTradedItem@@@@V?$FFastAllocator@U?$MultiListNodePolicy@UCvTradedItem@@@@$0A@$0BF@$0A@UFDefaultFastVectorAllocator@?$BaseVector@U?$MultiListNodePolicy@UCvTradedItem@@@@$0A@@@@@V?$FCustomList_Tail_Member@V?$FFastAllocator@U?$MultiListNodePolicy@UCvTradedItem@@@@$0A@$0BF@$0A@UFDefaultFastVectorAllocator@?$BaseVector@U?$MultiListNodePolicy@UCvTradedItem@@@@$0A@@@@@@@@@QAE@XZ
_TEXT	SEGMENT
??1const_iterator@?$FCustomList_Core@U?$MultiListNodePolicy@UCvTradedItem@@@@V?$FFastAllocator@U?$MultiListNodePolicy@UCvTradedItem@@@@$0A@$0BF@$0A@UFDefaultFastVectorAllocator@?$BaseVector@U?$MultiListNodePolicy@UCvTradedItem@@@@$0A@@@@@V?$FCustomList_Tail_Member@V?$FFastAllocator@U?$MultiListNodePolicy@UCvTradedItem@@@@$0A@$0BF@$0A@UFDefaultFastVectorAllocator@?$BaseVector@U?$MultiListNodePolicy@UCvTradedItem@@@@$0A@@@@@@@@@QAE@XZ PROC ; FCustomList_Core<MultiListNodePolicy<CvTradedItem>,FFastAllocator<MultiListNodePolicy<CvTradedItem>,0,21,0,BaseVector<MultiListNodePolicy<CvTradedItem>,0>::FDefaultFastVectorAllocator>,FCustomList_Tail_Member<FFastAllocator<MultiListNodePolicy<CvTradedItem>,0,21,0,BaseVector<MultiListNodePolicy<CvTradedItem>,0>::FDefaultFastVectorAllocator> > >::const_iterator::~const_iterator, COMDAT
; _this$ = ecx

; 401  : 		~const_iterator(){};

	ret	0
??1const_iterator@?$FCustomList_Core@U?$MultiListNodePolicy@UCvTradedItem@@@@V?$FFastAllocator@U?$MultiListNodePolicy@UCvTradedItem@@@@$0A@$0BF@$0A@UFDefaultFastVectorAllocator@?$BaseVector@U?$MultiListNodePolicy@UCvTradedItem@@@@$0A@@@@@V?$FCustomList_Tail_Member@V?$FFastAllocator@U?$MultiListNodePolicy@UCvTradedItem@@@@$0A@$0BF@$0A@UFDefaultFastVectorAllocator@?$BaseVector@U?$MultiListNodePolicy@UCvTradedItem@@@@$0A@@@@@@@@@QAE@XZ ENDP ; FCustomList_Core<MultiListNodePolicy<CvTradedItem>,FFastAllocator<MultiListNodePolicy<CvTradedItem>,0,21,0,BaseVector<MultiListNodePolicy<CvTradedItem>,0>::FDefaultFastVectorAllocator>,FCustomList_Tail_Member<FFastAllocator<MultiListNodePolicy<CvTradedItem>,0,21,0,BaseVector<MultiListNodePolicy<CvTradedItem>,0>::FDefaultFastVectorAllocator> > >::const_iterator::~const_iterator
_TEXT	ENDS
PUBLIC	??Dconst_iterator@?$FCustomList_Core@U?$MultiListNodePolicy@UCvTradedItem@@@@V?$FFastAllocator@U?$MultiListNodePolicy@UCvTradedItem@@@@$0A@$0BF@$0A@UFDefaultFastVectorAllocator@?$BaseVector@U?$MultiListNodePolicy@UCvTradedItem@@@@$0A@@@@@V?$FCustomList_Tail_Member@V?$FFastAllocator@U?$MultiListNodePolicy@UCvTradedItem@@@@$0A@$0BF@$0A@UFDefaultFastVectorAllocator@?$BaseVector@U?$MultiListNodePolicy@UCvTradedItem@@@@$0A@@@@@@@@@QBEABU?$MultiListNodePolicy@UCvTradedItem@@@@XZ ; FCustomList_Core<MultiListNodePolicy<CvTradedItem>,FFastAllocator<MultiListNodePolicy<CvTradedItem>,0,21,0,BaseVector<MultiListNodePolicy<CvTradedItem>,0>::FDefaultFastVectorAllocator>,FCustomList_Tail_Member<FFastAllocator<MultiListNodePolicy<CvTradedItem>,0,21,0,BaseVector<MultiListNodePolicy<CvTradedItem>,0>::FDefaultFastVectorAllocator> > >::const_iterator::operator*
; Function compile flags: /Ogtpy
;	COMDAT ??Dconst_iterator@?$FCustomList_Core@U?$MultiListNodePolicy@UCvTradedItem@@@@V?$FFastAllocator@U?$MultiListNodePolicy@UCvTradedItem@@@@$0A@$0BF@$0A@UFDefaultFastVectorAllocator@?$BaseVector@U?$MultiListNodePolicy@UCvTradedItem@@@@$0A@@@@@V?$FCustomList_Tail_Member@V?$FFastAllocator@U?$MultiListNodePolicy@UCvTradedItem@@@@$0A@$0BF@$0A@UFDefaultFastVectorAllocator@?$BaseVector@U?$MultiListNodePolicy@UCvTradedItem@@@@$0A@@@@@@@@@QBEABU?$MultiListNodePolicy@UCvTradedItem@@@@XZ
_TEXT	SEGMENT
??Dconst_iterator@?$FCustomList_Core@U?$MultiListNodePolicy@UCvTradedItem@@@@V?$FFastAllocator@U?$MultiListNodePolicy@UCvTradedItem@@@@$0A@$0BF@$0A@UFDefaultFastVectorAllocator@?$BaseVector@U?$MultiListNodePolicy@UCvTradedItem@@@@$0A@@@@@V?$FCustomList_Tail_Member@V?$FFastAllocator@U?$MultiListNodePolicy@UCvTradedItem@@@@$0A@$0BF@$0A@UFDefaultFastVectorAllocator@?$BaseVector@U?$MultiListNodePolicy@UCvTradedItem@@@@$0A@@@@@@@@@QBEABU?$MultiListNodePolicy@UCvTradedItem@@@@XZ PROC ; FCustomList_Core<MultiListNodePolicy<CvTradedItem>,FFastAllocator<MultiListNodePolicy<CvTradedItem>,0,21,0,BaseVector<MultiListNodePolicy<CvTradedItem>,0>::FDefaultFastVectorAllocator>,FCustomList_Tail_Member<FFastAllocator<MultiListNodePolicy<CvTradedItem>,0,21,0,BaseVector<MultiListNodePolicy<CvTradedItem>,0>::FDefaultFastVectorAllocator> > >::const_iterator::operator*, COMDAT
; _this$ = ecx

; 404  : 			return m_pFastList->get_allocator()[ m_uiCurrPos ];

	mov	eax, DWORD PTR [ecx+4]
	mov	ecx, DWORD PTR [ecx]
	imul	eax, 44					; 0000002cH
	add	eax, DWORD PTR [ecx+8]

; 405  : 		};

	ret	0
??Dconst_iterator@?$FCustomList_Core@U?$MultiListNodePolicy@UCvTradedItem@@@@V?$FFastAllocator@U?$MultiListNodePolicy@UCvTradedItem@@@@$0A@$0BF@$0A@UFDefaultFastVectorAllocator@?$BaseVector@U?$MultiListNodePolicy@UCvTradedItem@@@@$0A@@@@@V?$FCustomList_Tail_Member@V?$FFastAllocator@U?$MultiListNodePolicy@UCvTradedItem@@@@$0A@$0BF@$0A@UFDefaultFastVectorAllocator@?$BaseVector@U?$MultiListNodePolicy@UCvTradedItem@@@@$0A@@@@@@@@@QBEABU?$MultiListNodePolicy@UCvTradedItem@@@@XZ ENDP ; FCustomList_Core<MultiListNodePolicy<CvTradedItem>,FFastAllocator<MultiListNodePolicy<CvTradedItem>,0,21,0,BaseVector<MultiListNodePolicy<CvTradedItem>,0>::FDefaultFastVectorAllocator>,FCustomList_Tail_Member<FFastAllocator<MultiListNodePolicy<CvTradedItem>,0,21,0,BaseVector<MultiListNodePolicy<CvTradedItem>,0>::FDefaultFastVectorAllocator> > >::const_iterator::operator*
_TEXT	ENDS
PUBLIC	??1iterator@?$FCustomList_Core@U?$MultiListNodePolicy@UCvTradedItem@@@@V?$FFastAllocator@U?$MultiListNodePolicy@UCvTradedItem@@@@$0A@$0BF@$0A@UFDefaultFastVectorAllocator@?$BaseVector@U?$MultiListNodePolicy@UCvTradedItem@@@@$0A@@@@@V?$FCustomList_Tail_Member@V?$FFastAllocator@U?$MultiListNodePolicy@UCvTradedItem@@@@$0A@$0BF@$0A@UFDefaultFastVectorAllocator@?$BaseVector@U?$MultiListNodePolicy@UCvTradedItem@@@@$0A@@@@@@@@@QAE@XZ ; FCustomList_Core<MultiListNodePolicy<CvTradedItem>,FFastAllocator<MultiListNodePolicy<CvTradedItem>,0,21,0,BaseVector<MultiListNodePolicy<CvTradedItem>,0>::FDefaultFastVectorAllocator>,FCustomList_Tail_Member<FFastAllocator<MultiListNodePolicy<CvTradedItem>,0,21,0,BaseVector<MultiListNodePolicy<CvTradedItem>,0>::FDefaultFastVectorAllocator> > >::iterator::~iterator
; Function compile flags: /Ogtpy
;	COMDAT ??1iterator@?$FCustomList_Core@U?$MultiListNodePolicy@UCvTradedItem@@@@V?$FFastAllocator@U?$MultiListNodePolicy@UCvTradedItem@@@@$0A@$0BF@$0A@UFDefaultFastVectorAllocator@?$BaseVector@U?$MultiListNodePolicy@UCvTradedItem@@@@$0A@@@@@V?$FCustomList_Tail_Member@V?$FFastAllocator@U?$MultiListNodePolicy@UCvTradedItem@@@@$0A@$0BF@$0A@UFDefaultFastVectorAllocator@?$BaseVector@U?$MultiListNodePolicy@UCvTradedItem@@@@$0A@@@@@@@@@QAE@XZ
_TEXT	SEGMENT
??1iterator@?$FCustomList_Core@U?$MultiListNodePolicy@UCvTradedItem@@@@V?$FFastAllocator@U?$MultiListNodePolicy@UCvTradedItem@@@@$0A@$0BF@$0A@UFDefaultFastVectorAllocator@?$BaseVector@U?$MultiListNodePolicy@UCvTradedItem@@@@$0A@@@@@V?$FCustomList_Tail_Member@V?$FFastAllocator@U?$MultiListNodePolicy@UCvTradedItem@@@@$0A@$0BF@$0A@UFDefaultFastVectorAllocator@?$BaseVector@U?$MultiListNodePolicy@UCvTradedItem@@@@$0A@@@@@@@@@QAE@XZ PROC ; FCustomList_Core<MultiListNodePolicy<CvTradedItem>,FFastAllocator<MultiListNodePolicy<CvTradedItem>,0,21,0,BaseVector<MultiListNodePolicy<CvTradedItem>,0>::FDefaultFastVectorAllocator>,FCustomList_Tail_Member<FFastAllocator<MultiListNodePolicy<CvTradedItem>,0,21,0,BaseVector<MultiListNodePolicy<CvTradedItem>,0>::FDefaultFastVectorAllocator> > >::iterator::~iterator, COMDAT
; _this$ = ecx

; 381  : 		~iterator(){};

	ret	0
??1iterator@?$FCustomList_Core@U?$MultiListNodePolicy@UCvTradedItem@@@@V?$FFastAllocator@U?$MultiListNodePolicy@UCvTradedItem@@@@$0A@$0BF@$0A@UFDefaultFastVectorAllocator@?$BaseVector@U?$MultiListNodePolicy@UCvTradedItem@@@@$0A@@@@@V?$FCustomList_Tail_Member@V?$FFastAllocator@U?$MultiListNodePolicy@UCvTradedItem@@@@$0A@$0BF@$0A@UFDefaultFastVectorAllocator@?$BaseVector@U?$MultiListNodePolicy@UCvTradedItem@@@@$0A@@@@@@@@@QAE@XZ ENDP ; FCustomList_Core<MultiListNodePolicy<CvTradedItem>,FFastAllocator<MultiListNodePolicy<CvTradedItem>,0,21,0,BaseVector<MultiListNodePolicy<CvTradedItem>,0>::FDefaultFastVectorAllocator>,FCustomList_Tail_Member<FFastAllocator<MultiListNodePolicy<CvTradedItem>,0,21,0,BaseVector<MultiListNodePolicy<CvTradedItem>,0>::FDefaultFastVectorAllocator> > >::iterator::~iterator
_TEXT	ENDS
PUBLIC	??Diterator@?$FCustomList_Core@U?$MultiListNodePolicy@UCvTradedItem@@@@V?$FFastAllocator@U?$MultiListNodePolicy@UCvTradedItem@@@@$0A@$0BF@$0A@UFDefaultFastVectorAllocator@?$BaseVector@U?$MultiListNodePolicy@UCvTradedItem@@@@$0A@@@@@V?$FCustomList_Tail_Member@V?$FFastAllocator@U?$MultiListNodePolicy@UCvTradedItem@@@@$0A@$0BF@$0A@UFDefaultFastVectorAllocator@?$BaseVector@U?$MultiListNodePolicy@UCvTradedItem@@@@$0A@@@@@@@@@QAEAAU?$MultiListNodePolicy@UCvTradedItem@@@@XZ ; FCustomList_Core<MultiListNodePolicy<CvTradedItem>,FFastAllocator<MultiListNodePolicy<CvTradedItem>,0,21,0,BaseVector<MultiListNodePolicy<CvTradedItem>,0>::FDefaultFastVectorAllocator>,FCustomList_Tail_Member<FFastAllocator<MultiListNodePolicy<CvTradedItem>,0,21,0,BaseVector<MultiListNodePolicy<CvTradedItem>,0>::FDefaultFastVectorAllocator> > >::iterator::operator*
; Function compile flags: /Ogtpy
;	COMDAT ??Diterator@?$FCustomList_Core@U?$MultiListNodePolicy@UCvTradedItem@@@@V?$FFastAllocator@U?$MultiListNodePolicy@UCvTradedItem@@@@$0A@$0BF@$0A@UFDefaultFastVectorAllocator@?$BaseVector@U?$MultiListNodePolicy@UCvTradedItem@@@@$0A@@@@@V?$FCustomList_Tail_Member@V?$FFastAllocator@U?$MultiListNodePolicy@UCvTradedItem@@@@$0A@$0BF@$0A@UFDefaultFastVectorAllocator@?$BaseVector@U?$MultiListNodePolicy@UCvTradedItem@@@@$0A@@@@@@@@@QAEAAU?$MultiListNodePolicy@UCvTradedItem@@@@XZ
_TEXT	SEGMENT
??Diterator@?$FCustomList_Core@U?$MultiListNodePolicy@UCvTradedItem@@@@V?$FFastAllocator@U?$MultiListNodePolicy@UCvTradedItem@@@@$0A@$0BF@$0A@UFDefaultFastVectorAllocator@?$BaseVector@U?$MultiListNodePolicy@UCvTradedItem@@@@$0A@@@@@V?$FCustomList_Tail_Member@V?$FFastAllocator@U?$MultiListNodePolicy@UCvTradedItem@@@@$0A@$0BF@$0A@UFDefaultFastVectorAllocator@?$BaseVector@U?$MultiListNodePolicy@UCvTradedItem@@@@$0A@@@@@@@@@QAEAAU?$MultiListNodePolicy@UCvTradedItem@@@@XZ PROC ; FCustomList_Core<MultiListNodePolicy<CvTradedItem>,FFastAllocator<MultiListNodePolicy<CvTradedItem>,0,21,0,BaseVector<MultiListNodePolicy<CvTradedItem>,0>::FDefaultFastVectorAllocator>,FCustomList_Tail_Member<FFastAllocator<MultiListNodePolicy<CvTradedItem>,0,21,0,BaseVector<MultiListNodePolicy<CvTradedItem>,0>::FDefaultFastVectorAllocator> > >::iterator::operator*, COMDAT
; _this$ = ecx

; 384  : 			return m_pFastList->get_allocator()[ m_uiCurrPos ];

	mov	eax, DWORD PTR [ecx+4]
	mov	ecx, DWORD PTR [ecx]
	imul	eax, 44					; 0000002cH
	add	eax, DWORD PTR [ecx+8]

; 385  : 		};

	ret	0
??Diterator@?$FCustomList_Core@U?$MultiListNodePolicy@UCvTradedItem@@@@V?$FFastAllocator@U?$MultiListNodePolicy@UCvTradedItem@@@@$0A@$0BF@$0A@UFDefaultFastVectorAllocator@?$BaseVector@U?$MultiListNodePolicy@UCvTradedItem@@@@$0A@@@@@V?$FCustomList_Tail_Member@V?$FFastAllocator@U?$MultiListNodePolicy@UCvTradedItem@@@@$0A@$0BF@$0A@UFDefaultFastVectorAllocator@?$BaseVector@U?$MultiListNodePolicy@UCvTradedItem@@@@$0A@@@@@@@@@QAEAAU?$MultiListNodePolicy@UCvTradedItem@@@@XZ ENDP ; FCustomList_Core<MultiListNodePolicy<CvTradedItem>,FFastAllocator<MultiListNodePolicy<CvTradedItem>,0,21,0,BaseVector<MultiListNodePolicy<CvTradedItem>,0>::FDefaultFastVectorAllocator>,FCustomList_Tail_Member<FFastAllocator<MultiListNodePolicy<CvTradedItem>,0,21,0,BaseVector<MultiListNodePolicy<CvTradedItem>,0>::FDefaultFastVectorAllocator> > >::iterator::operator*
_TEXT	ENDS
