; Listing generated by Microsoft (R) Optimizing Compiler Version 15.00.30729.01 

	TITLE	c:\Users\EnormousApplePie\Desktop\Lekmod DLL versions\v31\LEKMOD_DLL\CvGameCoreDLL_Expansion2\CvDllPlayer.cpp
	.686P
	.XMM
	include listing.inc
	.model	flat

INCLUDELIB MSVCRT
INCLUDELIB OLDNAMES

PUBLIC	?NO_QUEST_DATA@CvMinorCivQuest@@2HB		; CvMinorCivQuest::NO_QUEST_DATA
PUBLIC	?NO_TURN@CvMinorCivQuest@@2HB			; CvMinorCivQuest::NO_TURN
;	COMDAT ?NO_TURN@CvMinorCivQuest@@2HB
CONST	SEGMENT
?NO_TURN@CvMinorCivQuest@@2HB DD 0ffffffffH		; CvMinorCivQuest::NO_TURN
CONST	ENDS
;	COMDAT ?NO_QUEST_DATA@CvMinorCivQuest@@2HB
CONST	SEGMENT
?NO_QUEST_DATA@CvMinorCivQuest@@2HB DD 0ffffffffH	; CvMinorCivQuest::NO_QUEST_DATA
CONST	ENDS
_DATA	SEGMENT
_CIV5_XP2_DLL_VERSION DD FLAT:$SG217253
_DATA	ENDS
CONST	SEGMENT
$SG217253 DB	'1.0.0', 00H
	ORG $+2
_guidICvUnknown DD 0d89ba82fH
	DW	09fa3H
	DW	04696H
	DB	0b3H
	DB	0f4H
	DB	052H
	DB	0bdH
	DB	0b1H
	DB	01H
	DB	0cfH
	DB	0b2H
_guidICvPlayer1 DD 0ae4c09ebH
	DW	0a092H
	DW	045ebH
	DB	09cH
	DB	0a7H
	DB	0f4H
	DB	0a5H
	DB	0d2H
	DB	0f8H
	DB	086H
	DB	02H
_guidICvPlayer2 DD 075075151H
	DW	0ef9H
	DW	04b8bH
	DB	0adH
	DB	0fbH
	DB	08H
	DB	060H
	DB	0c1H
	DB	0baH
	DB	02fH
	DB	0dfH
_guidICvPlayer3 DD 0f5016d0dH
	DW	0684eH
	DW	0497fH
	DB	0a6H
	DB	04dH
	DB	046H
	DB	051H
	DB	0aeH
	DB	071H
	DB	032H
	DB	085H
CONST	ENDS
PUBLIC	??_7ICvUnknown@@6B@				; ICvUnknown::`vftable'
PUBLIC	??0ICvUnknown@@QAE@XZ				; ICvUnknown::ICvUnknown
PUBLIC	??_R4ICvUnknown@@6B@				; ICvUnknown::`RTTI Complete Object Locator'
PUBLIC	??_R0?AVICvUnknown@@@8				; ICvUnknown `RTTI Type Descriptor'
PUBLIC	??_R3ICvUnknown@@8				; ICvUnknown::`RTTI Class Hierarchy Descriptor'
PUBLIC	??_R2ICvUnknown@@8				; ICvUnknown::`RTTI Base Class Array'
PUBLIC	??_R1A@?0A@EA@ICvUnknown@@8			; ICvUnknown::`RTTI Base Class Descriptor at (0,-1,0,64)'
EXTRN	??_7type_info@@6B@:QWORD			; type_info::`vftable'
EXTRN	__purecall:PROC
;	COMDAT ??_R1A@?0A@EA@ICvUnknown@@8
rdata$r	SEGMENT
??_R1A@?0A@EA@ICvUnknown@@8 DD FLAT:??_R0?AVICvUnknown@@@8 ; ICvUnknown::`RTTI Base Class Descriptor at (0,-1,0,64)'
	DD	00H
	DD	00H
	DD	0ffffffffH
	DD	00H
	DD	040H
	DD	FLAT:??_R3ICvUnknown@@8
rdata$r	ENDS
;	COMDAT ??_R2ICvUnknown@@8
rdata$r	SEGMENT
??_R2ICvUnknown@@8 DD FLAT:??_R1A@?0A@EA@ICvUnknown@@8	; ICvUnknown::`RTTI Base Class Array'
rdata$r	ENDS
;	COMDAT ??_R3ICvUnknown@@8
rdata$r	SEGMENT
??_R3ICvUnknown@@8 DD 00H				; ICvUnknown::`RTTI Class Hierarchy Descriptor'
	DD	00H
	DD	01H
	DD	FLAT:??_R2ICvUnknown@@8
rdata$r	ENDS
;	COMDAT ??_R0?AVICvUnknown@@@8
_DATA	SEGMENT
??_R0?AVICvUnknown@@@8 DD FLAT:??_7type_info@@6B@	; ICvUnknown `RTTI Type Descriptor'
	DD	00H
	DB	'.?AVICvUnknown@@', 00H
_DATA	ENDS
;	COMDAT ??_R4ICvUnknown@@6B@
rdata$r	SEGMENT
??_R4ICvUnknown@@6B@ DD 00H				; ICvUnknown::`RTTI Complete Object Locator'
	DD	00H
	DD	00H
	DD	FLAT:??_R0?AVICvUnknown@@@8
	DD	FLAT:??_R3ICvUnknown@@8
rdata$r	ENDS
;	COMDAT ??_7ICvUnknown@@6B@
CONST	SEGMENT
??_7ICvUnknown@@6B@ DD FLAT:??_R4ICvUnknown@@6B@	; ICvUnknown::`vftable'
	DD	FLAT:__purecall
	DD	FLAT:__purecall
; Function compile flags: /Ogtpy
CONST	ENDS
;	COMDAT ??0ICvUnknown@@QAE@XZ
_TEXT	SEGMENT
??0ICvUnknown@@QAE@XZ PROC				; ICvUnknown::ICvUnknown, COMDAT
; _this$ = ecx
	mov	eax, ecx
	mov	DWORD PTR [eax], OFFSET ??_7ICvUnknown@@6B@
	ret	0
??0ICvUnknown@@QAE@XZ ENDP				; ICvUnknown::ICvUnknown
_TEXT	ENDS
PUBLIC	?IncrementReference@CvDllPlayer@@QAEIXZ		; CvDllPlayer::IncrementReference
; Function compile flags: /Ogtpy
; File c:\users\enormousapplepie\desktop\lekmod dll versions\v31\lekmod_dll\cvgamecoredll_expansion2\cvdllplayer.cpp
;	COMDAT ?IncrementReference@CvDllPlayer@@QAEIXZ
_TEXT	SEGMENT
?IncrementReference@CvDllPlayer@@QAEIXZ PROC		; CvDllPlayer::IncrementReference, COMDAT
; _this$ = ecx

; 55   : 	++m_uiRefCount;

	inc	DWORD PTR [ecx+4]

; 56   : 	return m_uiRefCount;

	mov	eax, DWORD PTR [ecx+4]

; 57   : }

	ret	0
?IncrementReference@CvDllPlayer@@QAEIXZ ENDP		; CvDllPlayer::IncrementReference
_TEXT	ENDS
PUBLIC	?GetReferenceCount@CvDllPlayer@@QAEIXZ		; CvDllPlayer::GetReferenceCount
; Function compile flags: /Ogtpy
;	COMDAT ?GetReferenceCount@CvDllPlayer@@QAEIXZ
_TEXT	SEGMENT
?GetReferenceCount@CvDllPlayer@@QAEIXZ PROC		; CvDllPlayer::GetReferenceCount, COMDAT
; _this$ = ecx

; 75   : 	return m_uiRefCount;

	mov	eax, DWORD PTR [ecx+4]

; 76   : }

	ret	0
?GetReferenceCount@CvDllPlayer@@QAEIXZ ENDP		; CvDllPlayer::GetReferenceCount
_TEXT	ENDS
PUBLIC	??3CvDllPlayer@@SAXPAX@Z			; CvDllPlayer::operator delete
EXTRN	?Free@CvDllGameContext@@SAXPAX@Z:PROC		; CvDllGameContext::Free
; Function compile flags: /Ogtpy
;	COMDAT ??3CvDllPlayer@@SAXPAX@Z
_TEXT	SEGMENT
_p$ = 8							; size = 4
??3CvDllPlayer@@SAXPAX@Z PROC				; CvDllPlayer::operator delete, COMDAT

; 85   : 	CvDllGameContext::Free(p);

	jmp	?Free@CvDllGameContext@@SAXPAX@Z	; CvDllGameContext::Free
??3CvDllPlayer@@SAXPAX@Z ENDP				; CvDllPlayer::operator delete
_TEXT	ENDS
PUBLIC	??2CvDllPlayer@@SAPAXI@Z			; CvDllPlayer::operator new
EXTRN	?Allocate@CvDllGameContext@@SAPAXI@Z:PROC	; CvDllGameContext::Allocate
; Function compile flags: /Ogtpy
;	COMDAT ??2CvDllPlayer@@SAPAXI@Z
_TEXT	SEGMENT
_bytes$ = 8						; size = 4
??2CvDllPlayer@@SAPAXI@Z PROC				; CvDllPlayer::operator new, COMDAT

; 90   : 	return CvDllGameContext::Allocate(bytes);

	jmp	?Allocate@CvDllGameContext@@SAPAXI@Z	; CvDllGameContext::Allocate
??2CvDllPlayer@@SAPAXI@Z ENDP				; CvDllPlayer::operator new
_TEXT	ENDS
PUBLIC	?GetInstance@CvDllPlayer@@QAEPAVCvPlayerAI@@XZ	; CvDllPlayer::GetInstance
; Function compile flags: /Ogtpy
;	COMDAT ?GetInstance@CvDllPlayer@@QAEPAVCvPlayerAI@@XZ
_TEXT	SEGMENT
?GetInstance@CvDllPlayer@@QAEPAVCvPlayerAI@@XZ PROC	; CvDllPlayer::GetInstance, COMDAT
; _this$ = ecx

; 95   : 	return m_pPlayer;

	mov	eax, DWORD PTR [ecx+8]

; 96   : }

	ret	0
?GetInstance@CvDllPlayer@@QAEPAVCvPlayerAI@@XZ ENDP	; CvDllPlayer::GetInstance
_TEXT	ENDS
PUBLIC	?Init@CvDllPlayer@@UAGXW4PlayerTypes@@@Z	; CvDllPlayer::Init
EXTRN	?init@CvPlayer@@QAEXW4PlayerTypes@@@Z:PROC	; CvPlayer::init
; Function compile flags: /Ogtpy
;	COMDAT ?Init@CvDllPlayer@@UAGXW4PlayerTypes@@@Z
_TEXT	SEGMENT
_this$ = 8						; size = 4
_eID$ = 12						; size = 4
?Init@CvDllPlayer@@UAGXW4PlayerTypes@@@Z PROC		; CvDllPlayer::Init, COMDAT

; 100  : 	m_pPlayer->init(eID);

	mov	eax, DWORD PTR _eID$[esp-4]
	mov	ecx, DWORD PTR _this$[esp-4]
	mov	ecx, DWORD PTR [ecx+8]
	push	eax
	call	?init@CvPlayer@@QAEXW4PlayerTypes@@@Z	; CvPlayer::init

; 101  : }

	ret	8
?Init@CvDllPlayer@@UAGXW4PlayerTypes@@@Z ENDP		; CvDllPlayer::Init
_TEXT	ENDS
PUBLIC	?SetupGraphical@CvDllPlayer@@UAGXXZ		; CvDllPlayer::SetupGraphical
EXTRN	?setupGraphical@CvPlayer@@QAEXXZ:PROC		; CvPlayer::setupGraphical
; Function compile flags: /Ogtpy
;	COMDAT ?SetupGraphical@CvDllPlayer@@UAGXXZ
_TEXT	SEGMENT
_this$ = 8						; size = 4
?SetupGraphical@CvDllPlayer@@UAGXXZ PROC		; CvDllPlayer::SetupGraphical, COMDAT

; 105  : 	m_pPlayer->setupGraphical();

	mov	eax, DWORD PTR _this$[esp-4]
	mov	ecx, DWORD PTR [eax+8]
	call	?setupGraphical@CvPlayer@@QAEXXZ	; CvPlayer::setupGraphical

; 106  : }

	ret	4
?SetupGraphical@CvDllPlayer@@UAGXXZ ENDP		; CvDllPlayer::SetupGraphical
_TEXT	ENDS
PUBLIC	?LaterInit@CvDllPlayer@@UAGXXZ			; CvDllPlayer::LaterInit
EXTRN	?gameStartInit@CvPlayer@@QAEXXZ:PROC		; CvPlayer::gameStartInit
; Function compile flags: /Ogtpy
;	COMDAT ?LaterInit@CvDllPlayer@@UAGXXZ
_TEXT	SEGMENT
_this$ = 8						; size = 4
?LaterInit@CvDllPlayer@@UAGXXZ PROC			; CvDllPlayer::LaterInit, COMDAT

; 110  : 	m_pPlayer->gameStartInit();

	mov	eax, DWORD PTR _this$[esp-4]
	mov	ecx, DWORD PTR [eax+8]
	call	?gameStartInit@CvPlayer@@QAEXXZ		; CvPlayer::gameStartInit

; 111  : }

	ret	4
?LaterInit@CvDllPlayer@@UAGXXZ ENDP			; CvDllPlayer::LaterInit
_TEXT	ENDS
PUBLIC	?Uninit@CvDllPlayer@@UAGXXZ			; CvDllPlayer::Uninit
EXTRN	?uninit@CvPlayer@@QAEXXZ:PROC			; CvPlayer::uninit
; Function compile flags: /Ogtpy
;	COMDAT ?Uninit@CvDllPlayer@@UAGXXZ
_TEXT	SEGMENT
_this$ = 8						; size = 4
?Uninit@CvDllPlayer@@UAGXXZ PROC			; CvDllPlayer::Uninit, COMDAT

; 115  : 	m_pPlayer->uninit();

	mov	eax, DWORD PTR _this$[esp-4]
	mov	ecx, DWORD PTR [eax+8]
	call	?uninit@CvPlayer@@QAEXXZ		; CvPlayer::uninit

; 116  : }

	ret	4
?Uninit@CvDllPlayer@@UAGXXZ ENDP			; CvDllPlayer::Uninit
_TEXT	ENDS
PUBLIC	?IsHuman@CvDllPlayer@@UBG_NXZ			; CvDllPlayer::IsHuman
EXTRN	?isHuman@CvPlayer@@QBE_NXZ:PROC			; CvPlayer::isHuman
; Function compile flags: /Ogtpy
;	COMDAT ?IsHuman@CvDllPlayer@@UBG_NXZ
_TEXT	SEGMENT
_this$ = 8						; size = 4
?IsHuman@CvDllPlayer@@UBG_NXZ PROC			; CvDllPlayer::IsHuman, COMDAT

; 120  : 	return m_pPlayer->isHuman();

	mov	eax, DWORD PTR _this$[esp-4]
	mov	ecx, DWORD PTR [eax+8]
	call	?isHuman@CvPlayer@@QBE_NXZ		; CvPlayer::isHuman

; 121  : }

	ret	4
?IsHuman@CvDllPlayer@@UBG_NXZ ENDP			; CvDllPlayer::IsHuman
_TEXT	ENDS
PUBLIC	?IsBarbarian@CvDllPlayer@@UBG_NXZ		; CvDllPlayer::IsBarbarian
EXTRN	?isBarbarian@CvPlayer@@QBE_NXZ:PROC		; CvPlayer::isBarbarian
; Function compile flags: /Ogtpy
;	COMDAT ?IsBarbarian@CvDllPlayer@@UBG_NXZ
_TEXT	SEGMENT
_this$ = 8						; size = 4
?IsBarbarian@CvDllPlayer@@UBG_NXZ PROC			; CvDllPlayer::IsBarbarian, COMDAT

; 125  : 	return m_pPlayer->isBarbarian();

	mov	eax, DWORD PTR _this$[esp-4]
	mov	ecx, DWORD PTR [eax+8]
	call	?isBarbarian@CvPlayer@@QBE_NXZ		; CvPlayer::isBarbarian

; 126  : }

	ret	4
?IsBarbarian@CvDllPlayer@@UBG_NXZ ENDP			; CvDllPlayer::IsBarbarian
_TEXT	ENDS
PUBLIC	?GetName@CvDllPlayer@@UBGPBDXZ			; CvDllPlayer::GetName
EXTRN	?getName@CvPlayer@@QBEPBDXZ:PROC		; CvPlayer::getName
; Function compile flags: /Ogtpy
;	COMDAT ?GetName@CvDllPlayer@@UBGPBDXZ
_TEXT	SEGMENT
_this$ = 8						; size = 4
?GetName@CvDllPlayer@@UBGPBDXZ PROC			; CvDllPlayer::GetName, COMDAT

; 130  : 	return m_pPlayer->getName();

	mov	eax, DWORD PTR _this$[esp-4]
	mov	ecx, DWORD PTR [eax+8]
	call	?getName@CvPlayer@@QBEPBDXZ		; CvPlayer::getName

; 131  : }

	ret	4
?GetName@CvDllPlayer@@UBGPBDXZ ENDP			; CvDllPlayer::GetName
_TEXT	ENDS
PUBLIC	?GetNickName@CvDllPlayer@@UBGQBDXZ		; CvDllPlayer::GetNickName
EXTRN	?getNickName@CvPlayer@@QBEQBDXZ:PROC		; CvPlayer::getNickName
; Function compile flags: /Ogtpy
;	COMDAT ?GetNickName@CvDllPlayer@@UBGQBDXZ
_TEXT	SEGMENT
_this$ = 8						; size = 4
?GetNickName@CvDllPlayer@@UBGQBDXZ PROC			; CvDllPlayer::GetNickName, COMDAT

; 135  : 	return m_pPlayer->getNickName();

	mov	eax, DWORD PTR _this$[esp-4]
	mov	ecx, DWORD PTR [eax+8]
	call	?getNickName@CvPlayer@@QBEQBDXZ		; CvPlayer::getNickName

; 136  : }

	ret	4
?GetNickName@CvDllPlayer@@UBGQBDXZ ENDP			; CvDllPlayer::GetNickName
_TEXT	ENDS
PUBLIC	?GetArtStyleType@CvDllPlayer@@UBG?AW4ArtStyleTypes@@XZ ; CvDllPlayer::GetArtStyleType
EXTRN	?getArtStyleType@CvPlayer@@QBE?AW4ArtStyleTypes@@XZ:PROC ; CvPlayer::getArtStyleType
; Function compile flags: /Ogtpy
;	COMDAT ?GetArtStyleType@CvDllPlayer@@UBG?AW4ArtStyleTypes@@XZ
_TEXT	SEGMENT
_this$ = 8						; size = 4
?GetArtStyleType@CvDllPlayer@@UBG?AW4ArtStyleTypes@@XZ PROC ; CvDllPlayer::GetArtStyleType, COMDAT

; 140  : 	return m_pPlayer->getArtStyleType();

	mov	eax, DWORD PTR _this$[esp-4]
	mov	ecx, DWORD PTR [eax+8]
	call	?getArtStyleType@CvPlayer@@QBE?AW4ArtStyleTypes@@XZ ; CvPlayer::getArtStyleType

; 141  : }

	ret	4
?GetArtStyleType@CvDllPlayer@@UBG?AW4ArtStyleTypes@@XZ ENDP ; CvDllPlayer::GetArtStyleType
_TEXT	ENDS
PUBLIC	?GetFirstReadyUnit@CvDllPlayer@@UAGPAVICvUnit1@@XZ ; CvDllPlayer::GetFirstReadyUnit
EXTRN	??3CvDllUnit@@SAXPAX@Z:PROC			; CvDllUnit::operator delete
EXTRN	??0CvDllUnit@@QAE@PAVCvUnit@@@Z:PROC		; CvDllUnit::CvDllUnit
EXTRN	??2CvDllUnit@@SAPAXI@Z:PROC			; CvDllUnit::operator new
EXTRN	?GetFirstReadyUnit@CvPlayer@@QBEPBVCvUnit@@XZ:PROC ; CvPlayer::GetFirstReadyUnit
EXTRN	___CxxFrameHandler3:PROC
;	COMDAT xdata$x
xdata$x	SEGMENT
__unwindtable$?GetFirstReadyUnit@CvDllPlayer@@UAGPAVICvUnit1@@XZ DD 0ffffffffH
	DD	FLAT:__unwindfunclet$?GetFirstReadyUnit@CvDllPlayer@@UAGPAVICvUnit1@@XZ$0
__ehfuncinfo$?GetFirstReadyUnit@CvDllPlayer@@UAGPAVICvUnit1@@XZ DD 019930522H
	DD	01H
	DD	FLAT:__unwindtable$?GetFirstReadyUnit@CvDllPlayer@@UAGPAVICvUnit1@@XZ
	DD	2 DUP(00H)
	DD	2 DUP(00H)
	DD	00H
	DD	01H
; Function compile flags: /Ogtpy
xdata$x	ENDS
;	COMDAT ?GetFirstReadyUnit@CvDllPlayer@@UAGPAVICvUnit1@@XZ
_TEXT	SEGMENT
__$EHRec$ = -12						; size = 12
$T221077 = 8						; size = 4
_this$ = 8						; size = 4
?GetFirstReadyUnit@CvDllPlayer@@UAGPAVICvUnit1@@XZ PROC	; CvDllPlayer::GetFirstReadyUnit, COMDAT

; 144  : {

	mov	eax, DWORD PTR fs:0
	push	-1
	push	__ehhandler$?GetFirstReadyUnit@CvDllPlayer@@UAGPAVICvUnit1@@XZ
	push	eax
	mov	DWORD PTR fs:0, esp

; 145  : 	//HACK! This should return an immutable CvUnit interface.
; 146  : 	const CvUnit* pkUnit = m_pPlayer->GetFirstReadyUnit();

	mov	eax, DWORD PTR _this$[esp+8]
	mov	ecx, DWORD PTR [eax+8]
	push	esi
	call	?GetFirstReadyUnit@CvPlayer@@QBEPBVCvUnit@@XZ ; CvPlayer::GetFirstReadyUnit
	mov	esi, eax

; 147  : 	return (NULL != pkUnit)? new CvDllUnit(const_cast<CvUnit*>(pkUnit)) : NULL;

	test	esi, esi
	je	SHORT $LN5@GetFirstRe
	push	12					; 0000000cH
	call	??2CvDllUnit@@SAPAXI@Z			; CvDllUnit::operator new
	add	esp, 4
	mov	DWORD PTR $T221077[esp+12], eax
	mov	DWORD PTR __$EHRec$[esp+24], 0
	test	eax, eax
	je	SHORT $LN5@GetFirstRe
	push	esi
	mov	ecx, eax
	call	??0CvDllUnit@@QAE@PAVCvUnit@@@Z		; CvDllUnit::CvDllUnit

; 148  : }

	mov	ecx, DWORD PTR __$EHRec$[esp+16]
	mov	DWORD PTR fs:0, ecx
	pop	esi
	add	esp, 12					; 0000000cH
	ret	4
$LN5@GetFirstRe:
	mov	ecx, DWORD PTR __$EHRec$[esp+16]
	xor	eax, eax
	mov	DWORD PTR fs:0, ecx
	pop	esi
	add	esp, 12					; 0000000cH
	ret	4
_TEXT	ENDS
;	COMDAT text$x
text$x	SEGMENT
__unwindfunclet$?GetFirstReadyUnit@CvDllPlayer@@UAGPAVICvUnit1@@XZ$0:
	mov	eax, DWORD PTR $T221077[ebp-4]
	push	eax
	call	??3CvDllUnit@@SAXPAX@Z			; CvDllUnit::operator delete
	pop	ecx
	ret	0
__ehhandler$?GetFirstReadyUnit@CvDllPlayer@@UAGPAVICvUnit1@@XZ:
	mov	eax, OFFSET __ehfuncinfo$?GetFirstReadyUnit@CvDllPlayer@@UAGPAVICvUnit1@@XZ
	jmp	___CxxFrameHandler3
text$x	ENDS
?GetFirstReadyUnit@CvDllPlayer@@UAGPAVICvUnit1@@XZ ENDP	; CvDllPlayer::GetFirstReadyUnit
PUBLIC	_IsEqualGUID
; Function compile flags: /Ogtpy
; File c:\program files\microsoft sdks\windows\v6.0a\include\guiddef.h
;	COMDAT _IsEqualGUID
_TEXT	SEGMENT
_rguid1$ = 8						; size = 4
_rguid2$ = 12						; size = 4
_IsEqualGUID PROC					; COMDAT

; 161  :     return !memcmp(&rguid1, &rguid2, sizeof(GUID));

	mov	ecx, DWORD PTR _rguid2$[esp-4]
	mov	edx, DWORD PTR _rguid1$[esp-4]
	mov	eax, 16					; 00000010H
	push	esi
	npad	2
$LL4@IsEqualGUI:
	mov	esi, DWORD PTR [edx]
	cmp	esi, DWORD PTR [ecx]
	jne	SHORT $LN5@IsEqualGUI
	sub	eax, 4
	add	ecx, 4
	add	edx, 4
	cmp	eax, 4
	jae	SHORT $LL4@IsEqualGUI
	xor	eax, eax
	xor	edx, edx
	test	eax, eax
	sete	dl
	pop	esi
	mov	eax, edx

; 162  : }

	ret	0
$LN5@IsEqualGUI:

; 161  :     return !memcmp(&rguid1, &rguid2, sizeof(GUID));

	movzx	eax, BYTE PTR [edx]
	movzx	esi, BYTE PTR [ecx]
	sub	eax, esi
	jne	SHORT $LN7@IsEqualGUI
	movzx	eax, BYTE PTR [edx+1]
	movzx	esi, BYTE PTR [ecx+1]
	sub	eax, esi
	jne	SHORT $LN7@IsEqualGUI
	movzx	eax, BYTE PTR [edx+2]
	movzx	esi, BYTE PTR [ecx+2]
	sub	eax, esi
	jne	SHORT $LN7@IsEqualGUI
	movzx	eax, BYTE PTR [edx+3]
	movzx	ecx, BYTE PTR [ecx+3]
	sub	eax, ecx
$LN7@IsEqualGUI:
	sar	eax, 31					; 0000001fH
	or	eax, 1
	xor	edx, edx
	test	eax, eax
	sete	dl
	pop	esi
	mov	eax, edx

; 162  : }

	ret	0
_IsEqualGUID ENDP
_TEXT	ENDS
PUBLIC	_==
; Function compile flags: /Ogtpy
;	COMDAT _==
_TEXT	SEGMENT
_guidOne$ = 8						; size = 4
_guidOther$ = 12					; size = 4
_==	PROC						; COMDAT

; 194  :     return IsEqualGUID(guidOne,guidOther);

	jmp	_IsEqualGUID
_==	ENDP
_TEXT	ENDS
PUBLIC	?HasBusyUnit@CvDllPlayer@@UBG_NXZ		; CvDllPlayer::HasBusyUnit
EXTRN	?hasBusyUnit@CvPlayer@@QBE_NXZ:PROC		; CvPlayer::hasBusyUnit
; Function compile flags: /Ogtpy
; File c:\users\enormousapplepie\desktop\lekmod dll versions\v31\lekmod_dll\cvgamecoredll_expansion2\cvdllplayer.cpp
;	COMDAT ?HasBusyUnit@CvDllPlayer@@UBG_NXZ
_TEXT	SEGMENT
_this$ = 8						; size = 4
?HasBusyUnit@CvDllPlayer@@UBG_NXZ PROC			; CvDllPlayer::HasBusyUnit, COMDAT

; 152  : 	return m_pPlayer->hasBusyUnit();

	mov	eax, DWORD PTR _this$[esp-4]
	mov	ecx, DWORD PTR [eax+8]
	call	?hasBusyUnit@CvPlayer@@QBE_NXZ		; CvPlayer::hasBusyUnit

; 153  : }

	ret	4
?HasBusyUnit@CvDllPlayer@@UBG_NXZ ENDP			; CvDllPlayer::HasBusyUnit
_TEXT	ENDS
PUBLIC	?HasBusyUnitOrCity@CvDllPlayer@@UBG_NXZ		; CvDllPlayer::HasBusyUnitOrCity
EXTRN	?hasBusyUnitOrCity@CvPlayer@@QBE_NXZ:PROC	; CvPlayer::hasBusyUnitOrCity
; Function compile flags: /Ogtpy
;	COMDAT ?HasBusyUnitOrCity@CvDllPlayer@@UBG_NXZ
_TEXT	SEGMENT
_this$ = 8						; size = 4
?HasBusyUnitOrCity@CvDllPlayer@@UBG_NXZ PROC		; CvDllPlayer::HasBusyUnitOrCity, COMDAT

; 157  : 	return m_pPlayer->hasBusyUnitOrCity();

	mov	eax, DWORD PTR _this$[esp-4]
	mov	ecx, DWORD PTR [eax+8]
	call	?hasBusyUnitOrCity@CvPlayer@@QBE_NXZ	; CvPlayer::hasBusyUnitOrCity

; 158  : }

	ret	4
?HasBusyUnitOrCity@CvDllPlayer@@UBG_NXZ ENDP		; CvDllPlayer::HasBusyUnitOrCity
_TEXT	ENDS
PUBLIC	?GetScore@CvDllPlayer@@UBGH_N0@Z		; CvDllPlayer::GetScore
EXTRN	?GetScore@CvPlayer@@QBEH_N0@Z:PROC		; CvPlayer::GetScore
; Function compile flags: /Ogtpy
;	COMDAT ?GetScore@CvDllPlayer@@UBGH_N0@Z
_TEXT	SEGMENT
_this$ = 8						; size = 4
_bFinal$ = 12						; size = 1
_bVictory$ = 16						; size = 1
?GetScore@CvDllPlayer@@UBGH_N0@Z PROC			; CvDllPlayer::GetScore, COMDAT

; 162  : 	return m_pPlayer->GetScore(bFinal, bVictory);

	mov	eax, DWORD PTR _bVictory$[esp-4]
	mov	ecx, DWORD PTR _bFinal$[esp-4]
	mov	edx, DWORD PTR _this$[esp-4]
	push	eax
	push	ecx
	mov	ecx, DWORD PTR [edx+8]
	call	?GetScore@CvPlayer@@QBEH_N0@Z		; CvPlayer::GetScore

; 163  : }

	ret	12					; 0000000cH
?GetScore@CvDllPlayer@@UBGH_N0@Z ENDP			; CvDllPlayer::GetScore
_TEXT	ENDS
PUBLIC	?GetStartingPlot@CvDllPlayer@@UBGPAVICvPlot1@@XZ ; CvDllPlayer::GetStartingPlot
EXTRN	??3CvDllPlot@@SAXPAX@Z:PROC			; CvDllPlot::operator delete
EXTRN	??0CvDllPlot@@QAE@PAVCvPlot@@@Z:PROC		; CvDllPlot::CvDllPlot
EXTRN	??2CvDllPlot@@SAPAXI@Z:PROC			; CvDllPlot::operator new
EXTRN	?getStartingPlot@CvPlayer@@QBEPAVCvPlot@@XZ:PROC ; CvPlayer::getStartingPlot
;	COMDAT xdata$x
xdata$x	SEGMENT
__unwindtable$?GetStartingPlot@CvDllPlayer@@UBGPAVICvPlot1@@XZ DD 0ffffffffH
	DD	FLAT:__unwindfunclet$?GetStartingPlot@CvDllPlayer@@UBGPAVICvPlot1@@XZ$0
__ehfuncinfo$?GetStartingPlot@CvDllPlayer@@UBGPAVICvPlot1@@XZ DD 019930522H
	DD	01H
	DD	FLAT:__unwindtable$?GetStartingPlot@CvDllPlayer@@UBGPAVICvPlot1@@XZ
	DD	2 DUP(00H)
	DD	2 DUP(00H)
	DD	00H
	DD	01H
; Function compile flags: /Ogtpy
xdata$x	ENDS
;	COMDAT ?GetStartingPlot@CvDllPlayer@@UBGPAVICvPlot1@@XZ
_TEXT	SEGMENT
__$EHRec$ = -12						; size = 12
$T221123 = 8						; size = 4
_this$ = 8						; size = 4
?GetStartingPlot@CvDllPlayer@@UBGPAVICvPlot1@@XZ PROC	; CvDllPlayer::GetStartingPlot, COMDAT

; 166  : {

	mov	eax, DWORD PTR fs:0
	push	-1
	push	__ehhandler$?GetStartingPlot@CvDllPlayer@@UBGPAVICvPlot1@@XZ
	push	eax
	mov	DWORD PTR fs:0, esp

; 167  : 	CvPlot* pkPlot = m_pPlayer->getStartingPlot();

	mov	eax, DWORD PTR _this$[esp+8]
	mov	ecx, DWORD PTR [eax+8]
	push	esi
	call	?getStartingPlot@CvPlayer@@QBEPAVCvPlot@@XZ ; CvPlayer::getStartingPlot
	mov	esi, eax

; 168  : 	return (NULL != pkPlot)? new CvDllPlot(pkPlot) : NULL;

	test	esi, esi
	je	SHORT $LN5@GetStartin
	push	12					; 0000000cH
	call	??2CvDllPlot@@SAPAXI@Z			; CvDllPlot::operator new
	add	esp, 4
	mov	DWORD PTR $T221123[esp+12], eax
	mov	DWORD PTR __$EHRec$[esp+24], 0
	test	eax, eax
	je	SHORT $LN5@GetStartin
	push	esi
	mov	ecx, eax
	call	??0CvDllPlot@@QAE@PAVCvPlot@@@Z		; CvDllPlot::CvDllPlot

; 169  : }

	mov	ecx, DWORD PTR __$EHRec$[esp+16]
	mov	DWORD PTR fs:0, ecx
	pop	esi
	add	esp, 12					; 0000000cH
	ret	4
$LN5@GetStartin:
	mov	ecx, DWORD PTR __$EHRec$[esp+16]
	xor	eax, eax
	mov	DWORD PTR fs:0, ecx
	pop	esi
	add	esp, 12					; 0000000cH
	ret	4
_TEXT	ENDS
;	COMDAT text$x
text$x	SEGMENT
__unwindfunclet$?GetStartingPlot@CvDllPlayer@@UBGPAVICvPlot1@@XZ$0:
	mov	eax, DWORD PTR $T221123[ebp-4]
	push	eax
	call	??3CvDllPlot@@SAXPAX@Z			; CvDllPlot::operator delete
	pop	ecx
	ret	0
__ehhandler$?GetStartingPlot@CvDllPlayer@@UBGPAVICvPlot1@@XZ:
	mov	eax, OFFSET __ehfuncinfo$?GetStartingPlot@CvDllPlayer@@UBGPAVICvPlot1@@XZ
	jmp	___CxxFrameHandler3
text$x	ENDS
?GetStartingPlot@CvDllPlayer@@UBGPAVICvPlot1@@XZ ENDP	; CvDllPlayer::GetStartingPlot
PUBLIC	?GetCapitalCity@CvDllPlayer@@UAGPAVICvCity1@@XZ	; CvDllPlayer::GetCapitalCity
EXTRN	??3CvDllCity@@SAXPAX@Z:PROC			; CvDllCity::operator delete
EXTRN	??0CvDllCity@@QAE@PAVCvCity@@@Z:PROC		; CvDllCity::CvDllCity
EXTRN	??2CvDllCity@@SAPAXI@Z:PROC			; CvDllCity::operator new
EXTRN	?getCapitalCity@CvPlayer@@QAEPAVCvCity@@XZ:PROC	; CvPlayer::getCapitalCity
;	COMDAT xdata$x
xdata$x	SEGMENT
__unwindtable$?GetCapitalCity@CvDllPlayer@@UAGPAVICvCity1@@XZ DD 0ffffffffH
	DD	FLAT:__unwindfunclet$?GetCapitalCity@CvDllPlayer@@UAGPAVICvCity1@@XZ$0
__ehfuncinfo$?GetCapitalCity@CvDllPlayer@@UAGPAVICvCity1@@XZ DD 019930522H
	DD	01H
	DD	FLAT:__unwindtable$?GetCapitalCity@CvDllPlayer@@UAGPAVICvCity1@@XZ
	DD	2 DUP(00H)
	DD	2 DUP(00H)
	DD	00H
	DD	01H
; Function compile flags: /Ogtpy
xdata$x	ENDS
;	COMDAT ?GetCapitalCity@CvDllPlayer@@UAGPAVICvCity1@@XZ
_TEXT	SEGMENT
__$EHRec$ = -12						; size = 12
$T221139 = 8						; size = 4
_this$ = 8						; size = 4
?GetCapitalCity@CvDllPlayer@@UAGPAVICvCity1@@XZ PROC	; CvDllPlayer::GetCapitalCity, COMDAT

; 172  : {

	mov	eax, DWORD PTR fs:0
	push	-1
	push	__ehhandler$?GetCapitalCity@CvDllPlayer@@UAGPAVICvCity1@@XZ
	push	eax
	mov	DWORD PTR fs:0, esp

; 173  : 	CvCity* pkCity = m_pPlayer->getCapitalCity();

	mov	eax, DWORD PTR _this$[esp+8]
	mov	ecx, DWORD PTR [eax+8]
	push	esi
	call	?getCapitalCity@CvPlayer@@QAEPAVCvCity@@XZ ; CvPlayer::getCapitalCity
	mov	esi, eax

; 174  : 	return (NULL != pkCity)? new CvDllCity(pkCity) : NULL;

	test	esi, esi
	je	SHORT $LN5@GetCapital
	push	12					; 0000000cH
	call	??2CvDllCity@@SAPAXI@Z			; CvDllCity::operator new
	add	esp, 4
	mov	DWORD PTR $T221139[esp+12], eax
	mov	DWORD PTR __$EHRec$[esp+24], 0
	test	eax, eax
	je	SHORT $LN5@GetCapital
	push	esi
	mov	ecx, eax
	call	??0CvDllCity@@QAE@PAVCvCity@@@Z		; CvDllCity::CvDllCity

; 175  : }

	mov	ecx, DWORD PTR __$EHRec$[esp+16]
	mov	DWORD PTR fs:0, ecx
	pop	esi
	add	esp, 12					; 0000000cH
	ret	4
$LN5@GetCapital:
	mov	ecx, DWORD PTR __$EHRec$[esp+16]
	xor	eax, eax
	mov	DWORD PTR fs:0, ecx
	pop	esi
	add	esp, 12					; 0000000cH
	ret	4
_TEXT	ENDS
;	COMDAT text$x
text$x	SEGMENT
__unwindfunclet$?GetCapitalCity@CvDllPlayer@@UAGPAVICvCity1@@XZ$0:
	mov	eax, DWORD PTR $T221139[ebp-4]
	push	eax
	call	??3CvDllCity@@SAXPAX@Z			; CvDllCity::operator delete
	pop	ecx
	ret	0
__ehhandler$?GetCapitalCity@CvDllPlayer@@UAGPAVICvCity1@@XZ:
	mov	eax, OFFSET __ehfuncinfo$?GetCapitalCity@CvDllPlayer@@UAGPAVICvCity1@@XZ
	jmp	___CxxFrameHandler3
text$x	ENDS
?GetCapitalCity@CvDllPlayer@@UAGPAVICvCity1@@XZ ENDP	; CvDllPlayer::GetCapitalCity
PUBLIC	?IsHasLostCapital@CvDllPlayer@@UBG_NXZ		; CvDllPlayer::IsHasLostCapital
EXTRN	?IsHasLostCapital@CvPlayer@@QBE_NXZ:PROC	; CvPlayer::IsHasLostCapital
; Function compile flags: /Ogtpy
;	COMDAT ?IsHasLostCapital@CvDllPlayer@@UBG_NXZ
_TEXT	SEGMENT
_this$ = 8						; size = 4
?IsHasLostCapital@CvDllPlayer@@UBG_NXZ PROC		; CvDllPlayer::IsHasLostCapital, COMDAT

; 179  : 	return m_pPlayer->IsHasLostCapital();

	mov	eax, DWORD PTR _this$[esp-4]
	mov	ecx, DWORD PTR [eax+8]
	call	?IsHasLostCapital@CvPlayer@@QBE_NXZ	; CvPlayer::IsHasLostCapital

; 180  : }

	ret	4
?IsHasLostCapital@CvDllPlayer@@UBG_NXZ ENDP		; CvDllPlayer::IsHasLostCapital
_TEXT	ENDS
PUBLIC	?SetStartTime@CvDllPlayer@@UAGXI@Z		; CvDllPlayer::SetStartTime
EXTRN	?setStartTime@CvPlayer@@QAEXI@Z:PROC		; CvPlayer::setStartTime
; Function compile flags: /Ogtpy
;	COMDAT ?SetStartTime@CvDllPlayer@@UAGXI@Z
_TEXT	SEGMENT
_this$ = 8						; size = 4
_uiStartTime$ = 12					; size = 4
?SetStartTime@CvDllPlayer@@UAGXI@Z PROC			; CvDllPlayer::SetStartTime, COMDAT

; 184  : 	m_pPlayer->setStartTime(uiStartTime);

	mov	eax, DWORD PTR _uiStartTime$[esp-4]
	mov	ecx, DWORD PTR _this$[esp-4]
	mov	ecx, DWORD PTR [ecx+8]
	push	eax
	call	?setStartTime@CvPlayer@@QAEXI@Z		; CvPlayer::setStartTime

; 185  : }

	ret	8
?SetStartTime@CvDllPlayer@@UAGXI@Z ENDP			; CvDllPlayer::SetStartTime
_TEXT	ENDS
PUBLIC	?IsMinorCiv@CvDllPlayer@@UBG_NXZ		; CvDllPlayer::IsMinorCiv
EXTRN	?isMinorCiv@CvPlayer@@QBE_NXZ:PROC		; CvPlayer::isMinorCiv
; Function compile flags: /Ogtpy
;	COMDAT ?IsMinorCiv@CvDllPlayer@@UBG_NXZ
_TEXT	SEGMENT
_this$ = 8						; size = 4
?IsMinorCiv@CvDllPlayer@@UBG_NXZ PROC			; CvDllPlayer::IsMinorCiv, COMDAT

; 189  : 	return m_pPlayer->isMinorCiv();

	mov	eax, DWORD PTR _this$[esp-4]
	mov	ecx, DWORD PTR [eax+8]
	call	?isMinorCiv@CvPlayer@@QBE_NXZ		; CvPlayer::isMinorCiv

; 190  : }

	ret	4
?IsMinorCiv@CvDllPlayer@@UBG_NXZ ENDP			; CvDllPlayer::IsMinorCiv
_TEXT	ENDS
PUBLIC	?IsTurnActive@CvDllPlayer@@UBG_NXZ		; CvDllPlayer::IsTurnActive
EXTRN	?isTurnActive@CvPlayer@@QBE_NXZ:PROC		; CvPlayer::isTurnActive
; Function compile flags: /Ogtpy
;	COMDAT ?IsTurnActive@CvDllPlayer@@UBG_NXZ
_TEXT	SEGMENT
_this$ = 8						; size = 4
?IsTurnActive@CvDllPlayer@@UBG_NXZ PROC			; CvDllPlayer::IsTurnActive, COMDAT

; 204  : 	return m_pPlayer->isTurnActive();

	mov	eax, DWORD PTR _this$[esp-4]
	mov	ecx, DWORD PTR [eax+8]
	call	?isTurnActive@CvPlayer@@QBE_NXZ		; CvPlayer::isTurnActive

; 205  : }

	ret	4
?IsTurnActive@CvDllPlayer@@UBG_NXZ ENDP			; CvDllPlayer::IsTurnActive
_TEXT	ENDS
PUBLIC	?SetTurnActive@CvDllPlayer@@UAGX_N0@Z		; CvDllPlayer::SetTurnActive
EXTRN	?setTurnActive@CvPlayer@@QAEX_N0@Z:PROC		; CvPlayer::setTurnActive
; Function compile flags: /Ogtpy
;	COMDAT ?SetTurnActive@CvDllPlayer@@UAGX_N0@Z
_TEXT	SEGMENT
_this$ = 8						; size = 4
_bNewValue$ = 12					; size = 1
_bDoTurn$ = 16						; size = 1
?SetTurnActive@CvDllPlayer@@UAGX_N0@Z PROC		; CvDllPlayer::SetTurnActive, COMDAT

; 209  : 	m_pPlayer->setTurnActive(bNewValue, bDoTurn);

	mov	eax, DWORD PTR _bDoTurn$[esp-4]
	mov	ecx, DWORD PTR _bNewValue$[esp-4]
	mov	edx, DWORD PTR _this$[esp-4]
	push	eax
	push	ecx
	mov	ecx, DWORD PTR [edx+8]
	call	?setTurnActive@CvPlayer@@QAEX_N0@Z	; CvPlayer::setTurnActive

; 210  : }

	ret	12					; 0000000cH
?SetTurnActive@CvDllPlayer@@UAGX_N0@Z ENDP		; CvDllPlayer::SetTurnActive
_TEXT	ENDS
PUBLIC	?IsSimultaneousTurns@CvDllPlayer@@UBG_NXZ	; CvDllPlayer::IsSimultaneousTurns
EXTRN	?isSimultaneousTurns@CvPlayer@@QBE_NXZ:PROC	; CvPlayer::isSimultaneousTurns
; Function compile flags: /Ogtpy
;	COMDAT ?IsSimultaneousTurns@CvDllPlayer@@UBG_NXZ
_TEXT	SEGMENT
_this$ = 8						; size = 4
?IsSimultaneousTurns@CvDllPlayer@@UBG_NXZ PROC		; CvDllPlayer::IsSimultaneousTurns, COMDAT

; 214  : 	return m_pPlayer->isSimultaneousTurns();

	mov	eax, DWORD PTR _this$[esp-4]
	mov	ecx, DWORD PTR [eax+8]
	call	?isSimultaneousTurns@CvPlayer@@QBE_NXZ	; CvPlayer::isSimultaneousTurns

; 215  : }

	ret	4
?IsSimultaneousTurns@CvDllPlayer@@UBG_NXZ ENDP		; CvDllPlayer::IsSimultaneousTurns
_TEXT	ENDS
PUBLIC	?GetHandicapType@CvDllPlayer@@UBG?AW4HandicapTypes@@XZ ; CvDllPlayer::GetHandicapType
EXTRN	?getHandicapType@CvPlayer@@QBE?AW4HandicapTypes@@XZ:PROC ; CvPlayer::getHandicapType
; Function compile flags: /Ogtpy
;	COMDAT ?GetHandicapType@CvDllPlayer@@UBG?AW4HandicapTypes@@XZ
_TEXT	SEGMENT
_this$ = 8						; size = 4
?GetHandicapType@CvDllPlayer@@UBG?AW4HandicapTypes@@XZ PROC ; CvDllPlayer::GetHandicapType, COMDAT

; 224  : 	return m_pPlayer->getHandicapType();

	mov	eax, DWORD PTR _this$[esp-4]
	mov	ecx, DWORD PTR [eax+8]
	call	?getHandicapType@CvPlayer@@QBE?AW4HandicapTypes@@XZ ; CvPlayer::getHandicapType

; 225  : }

	ret	4
?GetHandicapType@CvDllPlayer@@UBG?AW4HandicapTypes@@XZ ENDP ; CvDllPlayer::GetHandicapType
_TEXT	ENDS
PUBLIC	?GetCivilizationType@CvDllPlayer@@UBG?AW4CivilizationTypes@@XZ ; CvDllPlayer::GetCivilizationType
EXTRN	?getCivilizationType@CvPlayer@@QBE?AW4CivilizationTypes@@XZ:PROC ; CvPlayer::getCivilizationType
; Function compile flags: /Ogtpy
;	COMDAT ?GetCivilizationType@CvDllPlayer@@UBG?AW4CivilizationTypes@@XZ
_TEXT	SEGMENT
_this$ = 8						; size = 4
?GetCivilizationType@CvDllPlayer@@UBG?AW4CivilizationTypes@@XZ PROC ; CvDllPlayer::GetCivilizationType, COMDAT

; 229  : 	return m_pPlayer->getCivilizationType();

	mov	eax, DWORD PTR _this$[esp-4]
	mov	ecx, DWORD PTR [eax+8]
	call	?getCivilizationType@CvPlayer@@QBE?AW4CivilizationTypes@@XZ ; CvPlayer::getCivilizationType

; 230  : }

	ret	4
?GetCivilizationType@CvDllPlayer@@UBG?AW4CivilizationTypes@@XZ ENDP ; CvDllPlayer::GetCivilizationType
_TEXT	ENDS
PUBLIC	?GetLeaderType@CvDllPlayer@@UBG?AW4LeaderHeadTypes@@XZ ; CvDllPlayer::GetLeaderType
EXTRN	?getLeaderType@CvPlayer@@QBE?AW4LeaderHeadTypes@@XZ:PROC ; CvPlayer::getLeaderType
; Function compile flags: /Ogtpy
;	COMDAT ?GetLeaderType@CvDllPlayer@@UBG?AW4LeaderHeadTypes@@XZ
_TEXT	SEGMENT
_this$ = 8						; size = 4
?GetLeaderType@CvDllPlayer@@UBG?AW4LeaderHeadTypes@@XZ PROC ; CvDllPlayer::GetLeaderType, COMDAT

; 234  : 	return m_pPlayer->getLeaderType();

	mov	eax, DWORD PTR _this$[esp-4]
	mov	ecx, DWORD PTR [eax+8]
	call	?getLeaderType@CvPlayer@@QBE?AW4LeaderHeadTypes@@XZ ; CvPlayer::getLeaderType

; 235  : }

	ret	4
?GetLeaderType@CvDllPlayer@@UBG?AW4LeaderHeadTypes@@XZ ENDP ; CvDllPlayer::GetLeaderType
_TEXT	ENDS
PUBLIC	?GetLeaderTypeKey@CvDllPlayer@@UBGPBDXZ		; CvDllPlayer::GetLeaderTypeKey
EXTRN	?getLeaderTypeKey@CvPlayer@@QBEPBDXZ:PROC	; CvPlayer::getLeaderTypeKey
; Function compile flags: /Ogtpy
;	COMDAT ?GetLeaderTypeKey@CvDllPlayer@@UBGPBDXZ
_TEXT	SEGMENT
_this$ = 8						; size = 4
?GetLeaderTypeKey@CvDllPlayer@@UBGPBDXZ PROC		; CvDllPlayer::GetLeaderTypeKey, COMDAT

; 239  : 	return m_pPlayer->getLeaderTypeKey();

	mov	eax, DWORD PTR _this$[esp-4]
	mov	ecx, DWORD PTR [eax+8]
	call	?getLeaderTypeKey@CvPlayer@@QBEPBDXZ	; CvPlayer::getLeaderTypeKey

; 240  : }

	ret	4
?GetLeaderTypeKey@CvDllPlayer@@UBGPBDXZ ENDP		; CvDllPlayer::GetLeaderTypeKey
_TEXT	ENDS
PUBLIC	?GetCurrentEra@CvDllPlayer@@UBG?AW4EraTypes@@XZ	; CvDllPlayer::GetCurrentEra
EXTRN	?GetCurrentEra@CvPlayer@@QBE?AW4EraTypes@@XZ:PROC ; CvPlayer::GetCurrentEra
; Function compile flags: /Ogtpy
;	COMDAT ?GetCurrentEra@CvDllPlayer@@UBG?AW4EraTypes@@XZ
_TEXT	SEGMENT
_this$ = 8						; size = 4
?GetCurrentEra@CvDllPlayer@@UBG?AW4EraTypes@@XZ PROC	; CvDllPlayer::GetCurrentEra, COMDAT

; 244  : 	return m_pPlayer->GetCurrentEra();

	mov	eax, DWORD PTR _this$[esp-4]
	mov	ecx, DWORD PTR [eax+8]
	call	?GetCurrentEra@CvPlayer@@QBE?AW4EraTypes@@XZ ; CvPlayer::GetCurrentEra

; 245  : }

	ret	4
?GetCurrentEra@CvDllPlayer@@UBG?AW4EraTypes@@XZ ENDP	; CvDllPlayer::GetCurrentEra
_TEXT	ENDS
PUBLIC	?GetPlayerColor@CvDllPlayer@@UBG?AW4PlayerColorTypes@@XZ ; CvDllPlayer::GetPlayerColor
EXTRN	?getPlayerColor@CvPlayer@@QBE?AW4PlayerColorTypes@@XZ:PROC ; CvPlayer::getPlayerColor
; Function compile flags: /Ogtpy
;	COMDAT ?GetPlayerColor@CvDllPlayer@@UBG?AW4PlayerColorTypes@@XZ
_TEXT	SEGMENT
_this$ = 8						; size = 4
?GetPlayerColor@CvDllPlayer@@UBG?AW4PlayerColorTypes@@XZ PROC ; CvDllPlayer::GetPlayerColor, COMDAT

; 254  : 	return m_pPlayer->getPlayerColor();

	mov	eax, DWORD PTR _this$[esp-4]
	mov	ecx, DWORD PTR [eax+8]
	call	?getPlayerColor@CvPlayer@@QBE?AW4PlayerColorTypes@@XZ ; CvPlayer::getPlayerColor

; 255  : }

	ret	4
?GetPlayerColor@CvDllPlayer@@UBG?AW4PlayerColorTypes@@XZ ENDP ; CvDllPlayer::GetPlayerColor
_TEXT	ENDS
PUBLIC	?IsOption@CvDllPlayer@@UBG_NW4PlayerOptionTypes@@@Z ; CvDllPlayer::IsOption
EXTRN	?isOption@CvPlayer@@QBE_NW4PlayerOptionTypes@@@Z:PROC ; CvPlayer::isOption
; Function compile flags: /Ogtpy
;	COMDAT ?IsOption@CvDllPlayer@@UBG_NW4PlayerOptionTypes@@@Z
_TEXT	SEGMENT
_this$ = 8						; size = 4
_eIndex$ = 12						; size = 4
?IsOption@CvDllPlayer@@UBG_NW4PlayerOptionTypes@@@Z PROC ; CvDllPlayer::IsOption, COMDAT

; 259  : 	return m_pPlayer->isOption(eIndex);

	mov	eax, DWORD PTR _eIndex$[esp-4]
	mov	ecx, DWORD PTR _this$[esp-4]
	mov	ecx, DWORD PTR [ecx+8]
	push	eax
	call	?isOption@CvPlayer@@QBE_NW4PlayerOptionTypes@@@Z ; CvPlayer::isOption

; 260  : }

	ret	8
?IsOption@CvDllPlayer@@UBG_NW4PlayerOptionTypes@@@Z ENDP ; CvDllPlayer::IsOption
_TEXT	ENDS
PUBLIC	?IsOptionKey@CvDllPlayer@@UBG_NW4PlayerOptionTypes@@@Z ; CvDllPlayer::IsOptionKey
; Function compile flags: /Ogtpy
;	COMDAT ?IsOptionKey@CvDllPlayer@@UBG_NW4PlayerOptionTypes@@@Z
_TEXT	SEGMENT
_this$ = 8						; size = 4
_eOptionID$ = 12					; size = 4
?IsOptionKey@CvDllPlayer@@UBG_NW4PlayerOptionTypes@@@Z PROC ; CvDllPlayer::IsOptionKey, COMDAT

; 264  : 	return m_pPlayer->isOption(eOptionID);		// Firaxis DLLs have been updated to handle an ID, rather than an index

	mov	eax, DWORD PTR _eOptionID$[esp-4]
	mov	ecx, DWORD PTR _this$[esp-4]
	mov	ecx, DWORD PTR [ecx+8]
	push	eax
	call	?isOption@CvPlayer@@QBE_NW4PlayerOptionTypes@@@Z ; CvPlayer::isOption

; 265  : }

	ret	8
?IsOptionKey@CvDllPlayer@@UBG_NW4PlayerOptionTypes@@@Z ENDP ; CvDllPlayer::IsOptionKey
_TEXT	ENDS
PUBLIC	?FirstCity@CvDllPlayer@@UAGPAVICvCity1@@PAH_N@Z	; CvDllPlayer::FirstCity
EXTRN	?firstCity@CvPlayer@@QAEPAVCvCity@@PAH_N@Z:PROC	; CvPlayer::firstCity
;	COMDAT xdata$x
xdata$x	SEGMENT
__unwindtable$?FirstCity@CvDllPlayer@@UAGPAVICvCity1@@PAH_N@Z DD 0ffffffffH
	DD	FLAT:__unwindfunclet$?FirstCity@CvDllPlayer@@UAGPAVICvCity1@@PAH_N@Z$0
__ehfuncinfo$?FirstCity@CvDllPlayer@@UAGPAVICvCity1@@PAH_N@Z DD 019930522H
	DD	01H
	DD	FLAT:__unwindtable$?FirstCity@CvDllPlayer@@UAGPAVICvCity1@@PAH_N@Z
	DD	2 DUP(00H)
	DD	2 DUP(00H)
	DD	00H
	DD	01H
; Function compile flags: /Ogtpy
xdata$x	ENDS
;	COMDAT ?FirstCity@CvDllPlayer@@UAGPAVICvCity1@@PAH_N@Z
_TEXT	SEGMENT
__$EHRec$ = -12						; size = 12
_this$ = 8						; size = 4
_pIterIdx$ = 12						; size = 4
_bRev$ = 16						; size = 1
$T221197 = 16						; size = 4
?FirstCity@CvDllPlayer@@UAGPAVICvCity1@@PAH_N@Z PROC	; CvDllPlayer::FirstCity, COMDAT

; 268  : {

	mov	eax, DWORD PTR fs:0

; 269  : 	CvCity* pkCity = m_pPlayer->firstCity(pIterIdx, bRev);

	mov	ecx, DWORD PTR _pIterIdx$[esp-4]
	mov	edx, DWORD PTR _this$[esp-4]
	push	-1
	push	__ehhandler$?FirstCity@CvDllPlayer@@UAGPAVICvCity1@@PAH_N@Z
	push	eax
	mov	DWORD PTR fs:0, esp
	mov	eax, DWORD PTR _bRev$[esp+8]
	push	esi
	push	eax
	push	ecx
	mov	ecx, DWORD PTR [edx+8]
	call	?firstCity@CvPlayer@@QAEPAVCvCity@@PAH_N@Z ; CvPlayer::firstCity
	mov	esi, eax

; 270  : 	return (NULL != pkCity)? new CvDllCity(pkCity) : NULL;

	test	esi, esi
	je	SHORT $LN5@FirstCity
	push	12					; 0000000cH
	call	??2CvDllCity@@SAPAXI@Z			; CvDllCity::operator new
	add	esp, 4
	mov	DWORD PTR $T221197[esp+12], eax
	mov	DWORD PTR __$EHRec$[esp+24], 0
	test	eax, eax
	je	SHORT $LN5@FirstCity
	push	esi
	mov	ecx, eax
	call	??0CvDllCity@@QAE@PAVCvCity@@@Z		; CvDllCity::CvDllCity

; 271  : }

	mov	ecx, DWORD PTR __$EHRec$[esp+16]
	mov	DWORD PTR fs:0, ecx
	pop	esi
	add	esp, 12					; 0000000cH
	ret	12					; 0000000cH
$LN5@FirstCity:
	mov	ecx, DWORD PTR __$EHRec$[esp+16]
	xor	eax, eax
	mov	DWORD PTR fs:0, ecx
	pop	esi
	add	esp, 12					; 0000000cH
	ret	12					; 0000000cH
_TEXT	ENDS
;	COMDAT text$x
text$x	SEGMENT
__unwindfunclet$?FirstCity@CvDllPlayer@@UAGPAVICvCity1@@PAH_N@Z$0:
	mov	eax, DWORD PTR $T221197[ebp-4]
	push	eax
	call	??3CvDllCity@@SAXPAX@Z			; CvDllCity::operator delete
	pop	ecx
	ret	0
__ehhandler$?FirstCity@CvDllPlayer@@UAGPAVICvCity1@@PAH_N@Z:
	mov	eax, OFFSET __ehfuncinfo$?FirstCity@CvDllPlayer@@UAGPAVICvCity1@@PAH_N@Z
	jmp	___CxxFrameHandler3
text$x	ENDS
?FirstCity@CvDllPlayer@@UAGPAVICvCity1@@PAH_N@Z ENDP	; CvDllPlayer::FirstCity
PUBLIC	?NextCity@CvDllPlayer@@UAGPAVICvCity1@@PAH_N@Z	; CvDllPlayer::NextCity
EXTRN	?nextCity@CvPlayer@@QAEPAVCvCity@@PAH_N@Z:PROC	; CvPlayer::nextCity
;	COMDAT xdata$x
xdata$x	SEGMENT
__unwindtable$?NextCity@CvDllPlayer@@UAGPAVICvCity1@@PAH_N@Z DD 0ffffffffH
	DD	FLAT:__unwindfunclet$?NextCity@CvDllPlayer@@UAGPAVICvCity1@@PAH_N@Z$0
__ehfuncinfo$?NextCity@CvDllPlayer@@UAGPAVICvCity1@@PAH_N@Z DD 019930522H
	DD	01H
	DD	FLAT:__unwindtable$?NextCity@CvDllPlayer@@UAGPAVICvCity1@@PAH_N@Z
	DD	2 DUP(00H)
	DD	2 DUP(00H)
	DD	00H
	DD	01H
; Function compile flags: /Ogtpy
xdata$x	ENDS
;	COMDAT ?NextCity@CvDllPlayer@@UAGPAVICvCity1@@PAH_N@Z
_TEXT	SEGMENT
__$EHRec$ = -12						; size = 12
_this$ = 8						; size = 4
_pIterIdx$ = 12						; size = 4
_bRev$ = 16						; size = 1
$T221213 = 16						; size = 4
?NextCity@CvDllPlayer@@UAGPAVICvCity1@@PAH_N@Z PROC	; CvDllPlayer::NextCity, COMDAT

; 274  : {

	mov	eax, DWORD PTR fs:0

; 275  : 	CvCity* pkCity = m_pPlayer->nextCity(pIterIdx, bRev);

	mov	ecx, DWORD PTR _pIterIdx$[esp-4]
	mov	edx, DWORD PTR _this$[esp-4]
	push	-1
	push	__ehhandler$?NextCity@CvDllPlayer@@UAGPAVICvCity1@@PAH_N@Z
	push	eax
	mov	DWORD PTR fs:0, esp
	mov	eax, DWORD PTR _bRev$[esp+8]
	push	esi
	push	eax
	push	ecx
	mov	ecx, DWORD PTR [edx+8]
	call	?nextCity@CvPlayer@@QAEPAVCvCity@@PAH_N@Z ; CvPlayer::nextCity
	mov	esi, eax

; 276  : 	return (NULL != pkCity)? new CvDllCity(pkCity) : NULL;

	test	esi, esi
	je	SHORT $LN5@NextCity
	push	12					; 0000000cH
	call	??2CvDllCity@@SAPAXI@Z			; CvDllCity::operator new
	add	esp, 4
	mov	DWORD PTR $T221213[esp+12], eax
	mov	DWORD PTR __$EHRec$[esp+24], 0
	test	eax, eax
	je	SHORT $LN5@NextCity
	push	esi
	mov	ecx, eax
	call	??0CvDllCity@@QAE@PAVCvCity@@@Z		; CvDllCity::CvDllCity

; 277  : }

	mov	ecx, DWORD PTR __$EHRec$[esp+16]
	mov	DWORD PTR fs:0, ecx
	pop	esi
	add	esp, 12					; 0000000cH
	ret	12					; 0000000cH
$LN5@NextCity:
	mov	ecx, DWORD PTR __$EHRec$[esp+16]
	xor	eax, eax
	mov	DWORD PTR fs:0, ecx
	pop	esi
	add	esp, 12					; 0000000cH
	ret	12					; 0000000cH
_TEXT	ENDS
;	COMDAT text$x
text$x	SEGMENT
__unwindfunclet$?NextCity@CvDllPlayer@@UAGPAVICvCity1@@PAH_N@Z$0:
	mov	eax, DWORD PTR $T221213[ebp-4]
	push	eax
	call	??3CvDllCity@@SAXPAX@Z			; CvDllCity::operator delete
	pop	ecx
	ret	0
__ehhandler$?NextCity@CvDllPlayer@@UAGPAVICvCity1@@PAH_N@Z:
	mov	eax, OFFSET __ehfuncinfo$?NextCity@CvDllPlayer@@UAGPAVICvCity1@@PAH_N@Z
	jmp	___CxxFrameHandler3
text$x	ENDS
?NextCity@CvDllPlayer@@UAGPAVICvCity1@@PAH_N@Z ENDP	; CvDllPlayer::NextCity
PUBLIC	?GetNumCities@CvDllPlayer@@UBGHXZ		; CvDllPlayer::GetNumCities
EXTRN	?getNumCities@CvPlayer@@QBEHXZ:PROC		; CvPlayer::getNumCities
; Function compile flags: /Ogtpy
;	COMDAT ?GetNumCities@CvDllPlayer@@UBGHXZ
_TEXT	SEGMENT
_this$ = 8						; size = 4
?GetNumCities@CvDllPlayer@@UBGHXZ PROC			; CvDllPlayer::GetNumCities, COMDAT

; 281  : 	return m_pPlayer->getNumCities();

	mov	eax, DWORD PTR _this$[esp-4]
	mov	ecx, DWORD PTR [eax+8]
	call	?getNumCities@CvPlayer@@QBEHXZ		; CvPlayer::getNumCities

; 282  : }

	ret	4
?GetNumCities@CvDllPlayer@@UBGHXZ ENDP			; CvDllPlayer::GetNumCities
_TEXT	ENDS
PUBLIC	?GetCity@CvDllPlayer@@UAGPAVICvCity1@@H@Z	; CvDllPlayer::GetCity
EXTRN	?getCity@CvPlayer@@QAEPAVCvCity@@H@Z:PROC	; CvPlayer::getCity
;	COMDAT xdata$x
xdata$x	SEGMENT
__unwindtable$?GetCity@CvDllPlayer@@UAGPAVICvCity1@@H@Z DD 0ffffffffH
	DD	FLAT:__unwindfunclet$?GetCity@CvDllPlayer@@UAGPAVICvCity1@@H@Z$0
__ehfuncinfo$?GetCity@CvDllPlayer@@UAGPAVICvCity1@@H@Z DD 019930522H
	DD	01H
	DD	FLAT:__unwindtable$?GetCity@CvDllPlayer@@UAGPAVICvCity1@@H@Z
	DD	2 DUP(00H)
	DD	2 DUP(00H)
	DD	00H
	DD	01H
; Function compile flags: /Ogtpy
xdata$x	ENDS
;	COMDAT ?GetCity@CvDllPlayer@@UAGPAVICvCity1@@H@Z
_TEXT	SEGMENT
__$EHRec$ = -12						; size = 12
_this$ = 8						; size = 4
$T221232 = 12						; size = 4
_iID$ = 12						; size = 4
?GetCity@CvDllPlayer@@UAGPAVICvCity1@@H@Z PROC		; CvDllPlayer::GetCity, COMDAT

; 285  : {

	mov	eax, DWORD PTR fs:0

; 286  : 	CvCity* pkCity = m_pPlayer->getCity(iID);

	mov	ecx, DWORD PTR _this$[esp-4]
	push	-1
	push	__ehhandler$?GetCity@CvDllPlayer@@UAGPAVICvCity1@@H@Z
	push	eax
	mov	DWORD PTR fs:0, esp
	mov	eax, DWORD PTR _iID$[esp+8]
	mov	ecx, DWORD PTR [ecx+8]
	push	esi
	push	eax
	call	?getCity@CvPlayer@@QAEPAVCvCity@@H@Z	; CvPlayer::getCity
	mov	esi, eax

; 287  : 	return (NULL != pkCity)? new CvDllCity(pkCity) : NULL;

	test	esi, esi
	je	SHORT $LN5@GetCity
	push	12					; 0000000cH
	call	??2CvDllCity@@SAPAXI@Z			; CvDllCity::operator new
	add	esp, 4
	mov	DWORD PTR $T221232[esp+12], eax
	mov	DWORD PTR __$EHRec$[esp+24], 0
	test	eax, eax
	je	SHORT $LN5@GetCity
	push	esi
	mov	ecx, eax
	call	??0CvDllCity@@QAE@PAVCvCity@@@Z		; CvDllCity::CvDllCity

; 288  : }

	mov	ecx, DWORD PTR __$EHRec$[esp+16]
	mov	DWORD PTR fs:0, ecx
	pop	esi
	add	esp, 12					; 0000000cH
	ret	8
$LN5@GetCity:
	mov	ecx, DWORD PTR __$EHRec$[esp+16]
	xor	eax, eax
	mov	DWORD PTR fs:0, ecx
	pop	esi
	add	esp, 12					; 0000000cH
	ret	8
_TEXT	ENDS
;	COMDAT text$x
text$x	SEGMENT
__unwindfunclet$?GetCity@CvDllPlayer@@UAGPAVICvCity1@@H@Z$0:
	mov	eax, DWORD PTR $T221232[ebp-4]
	push	eax
	call	??3CvDllCity@@SAXPAX@Z			; CvDllCity::operator delete
	pop	ecx
	ret	0
__ehhandler$?GetCity@CvDllPlayer@@UAGPAVICvCity1@@H@Z:
	mov	eax, OFFSET __ehfuncinfo$?GetCity@CvDllPlayer@@UAGPAVICvCity1@@H@Z
	jmp	___CxxFrameHandler3
text$x	ENDS
?GetCity@CvDllPlayer@@UAGPAVICvCity1@@H@Z ENDP		; CvDllPlayer::GetCity
PUBLIC	?GetUnit@CvDllPlayer@@UAGPAVICvUnit1@@H@Z	; CvDllPlayer::GetUnit
EXTRN	?getUnit@CvPlayer@@QAEPAVCvUnit@@H@Z:PROC	; CvPlayer::getUnit
;	COMDAT xdata$x
xdata$x	SEGMENT
__unwindtable$?GetUnit@CvDllPlayer@@UAGPAVICvUnit1@@H@Z DD 0ffffffffH
	DD	FLAT:__unwindfunclet$?GetUnit@CvDllPlayer@@UAGPAVICvUnit1@@H@Z$0
__ehfuncinfo$?GetUnit@CvDllPlayer@@UAGPAVICvUnit1@@H@Z DD 019930522H
	DD	01H
	DD	FLAT:__unwindtable$?GetUnit@CvDllPlayer@@UAGPAVICvUnit1@@H@Z
	DD	2 DUP(00H)
	DD	2 DUP(00H)
	DD	00H
	DD	01H
; Function compile flags: /Ogtpy
xdata$x	ENDS
;	COMDAT ?GetUnit@CvDllPlayer@@UAGPAVICvUnit1@@H@Z
_TEXT	SEGMENT
__$EHRec$ = -12						; size = 12
_this$ = 8						; size = 4
$T221248 = 12						; size = 4
_iID$ = 12						; size = 4
?GetUnit@CvDllPlayer@@UAGPAVICvUnit1@@H@Z PROC		; CvDllPlayer::GetUnit, COMDAT

; 291  : {

	mov	eax, DWORD PTR fs:0

; 292  : 	CvUnit* pkUnit = m_pPlayer->getUnit(iID);

	mov	ecx, DWORD PTR _this$[esp-4]
	push	-1
	push	__ehhandler$?GetUnit@CvDllPlayer@@UAGPAVICvUnit1@@H@Z
	push	eax
	mov	DWORD PTR fs:0, esp
	mov	eax, DWORD PTR _iID$[esp+8]
	mov	ecx, DWORD PTR [ecx+8]
	push	esi
	push	eax
	call	?getUnit@CvPlayer@@QAEPAVCvUnit@@H@Z	; CvPlayer::getUnit
	mov	esi, eax

; 293  : 	if(pkUnit)

	test	esi, esi
	je	SHORT $LN1@GetUnit

; 294  : 	{
; 295  : 		return new CvDllUnit(pkUnit);

	push	12					; 0000000cH
	call	??2CvDllUnit@@SAPAXI@Z			; CvDllUnit::operator new
	add	esp, 4
	mov	DWORD PTR $T221248[esp+12], eax
	mov	DWORD PTR __$EHRec$[esp+24], 0
	test	eax, eax
	je	SHORT $LN1@GetUnit
	push	esi
	mov	ecx, eax
	call	??0CvDllUnit@@QAE@PAVCvUnit@@@Z		; CvDllUnit::CvDllUnit

; 296  : 	}
; 297  : 
; 298  : 	return NULL;
; 299  : }

	mov	ecx, DWORD PTR __$EHRec$[esp+16]
	mov	DWORD PTR fs:0, ecx
	pop	esi
	add	esp, 12					; 0000000cH
	ret	8
$LN1@GetUnit:
	mov	ecx, DWORD PTR __$EHRec$[esp+16]
	xor	eax, eax
	mov	DWORD PTR fs:0, ecx
	pop	esi
	add	esp, 12					; 0000000cH
	ret	8
_TEXT	ENDS
;	COMDAT text$x
text$x	SEGMENT
__unwindfunclet$?GetUnit@CvDllPlayer@@UAGPAVICvUnit1@@H@Z$0:
	mov	eax, DWORD PTR $T221248[ebp-4]
	push	eax
	call	??3CvDllUnit@@SAXPAX@Z			; CvDllUnit::operator delete
	pop	ecx
	ret	0
__ehhandler$?GetUnit@CvDllPlayer@@UAGPAVICvUnit1@@H@Z:
	mov	eax, OFFSET __ehfuncinfo$?GetUnit@CvDllPlayer@@UAGPAVICvUnit1@@H@Z
	jmp	___CxxFrameHandler3
text$x	ENDS
?GetUnit@CvDllPlayer@@UAGPAVICvUnit1@@H@Z ENDP		; CvDllPlayer::GetUnit
PUBLIC	?FirstUnit@CvDllPlayer@@UAGPAVICvUnit1@@PAH_N@Z	; CvDllPlayer::FirstUnit
EXTRN	?firstUnit@CvPlayer@@QAEPAVCvUnit@@PAH_N@Z:PROC	; CvPlayer::firstUnit
;	COMDAT xdata$x
xdata$x	SEGMENT
__unwindtable$?FirstUnit@CvDllPlayer@@UAGPAVICvUnit1@@PAH_N@Z DD 0ffffffffH
	DD	FLAT:__unwindfunclet$?FirstUnit@CvDllPlayer@@UAGPAVICvUnit1@@PAH_N@Z$0
__ehfuncinfo$?FirstUnit@CvDllPlayer@@UAGPAVICvUnit1@@PAH_N@Z DD 019930522H
	DD	01H
	DD	FLAT:__unwindtable$?FirstUnit@CvDllPlayer@@UAGPAVICvUnit1@@PAH_N@Z
	DD	2 DUP(00H)
	DD	2 DUP(00H)
	DD	00H
	DD	01H
; Function compile flags: /Ogtpy
xdata$x	ENDS
;	COMDAT ?FirstUnit@CvDllPlayer@@UAGPAVICvUnit1@@PAH_N@Z
_TEXT	SEGMENT
__$EHRec$ = -12						; size = 12
_this$ = 8						; size = 4
_pIterIdx$ = 12						; size = 4
_bRev$ = 16						; size = 1
$T221262 = 16						; size = 4
?FirstUnit@CvDllPlayer@@UAGPAVICvUnit1@@PAH_N@Z PROC	; CvDllPlayer::FirstUnit, COMDAT

; 302  : {

	mov	eax, DWORD PTR fs:0

; 303  : 	CvUnit* pkUnit = m_pPlayer->firstUnit(pIterIdx, bRev);

	mov	ecx, DWORD PTR _pIterIdx$[esp-4]
	mov	edx, DWORD PTR _this$[esp-4]
	push	-1
	push	__ehhandler$?FirstUnit@CvDllPlayer@@UAGPAVICvUnit1@@PAH_N@Z
	push	eax
	mov	DWORD PTR fs:0, esp
	mov	eax, DWORD PTR _bRev$[esp+8]
	push	esi
	push	eax
	push	ecx
	mov	ecx, DWORD PTR [edx+8]
	call	?firstUnit@CvPlayer@@QAEPAVCvUnit@@PAH_N@Z ; CvPlayer::firstUnit
	mov	esi, eax

; 304  : 	return (NULL != pkUnit)? new CvDllUnit(pkUnit) : NULL;

	test	esi, esi
	je	SHORT $LN5@FirstUnit
	push	12					; 0000000cH
	call	??2CvDllUnit@@SAPAXI@Z			; CvDllUnit::operator new
	add	esp, 4
	mov	DWORD PTR $T221262[esp+12], eax
	mov	DWORD PTR __$EHRec$[esp+24], 0
	test	eax, eax
	je	SHORT $LN5@FirstUnit
	push	esi
	mov	ecx, eax
	call	??0CvDllUnit@@QAE@PAVCvUnit@@@Z		; CvDllUnit::CvDllUnit

; 305  : }

	mov	ecx, DWORD PTR __$EHRec$[esp+16]
	mov	DWORD PTR fs:0, ecx
	pop	esi
	add	esp, 12					; 0000000cH
	ret	12					; 0000000cH
$LN5@FirstUnit:
	mov	ecx, DWORD PTR __$EHRec$[esp+16]
	xor	eax, eax
	mov	DWORD PTR fs:0, ecx
	pop	esi
	add	esp, 12					; 0000000cH
	ret	12					; 0000000cH
_TEXT	ENDS
;	COMDAT text$x
text$x	SEGMENT
__unwindfunclet$?FirstUnit@CvDllPlayer@@UAGPAVICvUnit1@@PAH_N@Z$0:
	mov	eax, DWORD PTR $T221262[ebp-4]
	push	eax
	call	??3CvDllUnit@@SAXPAX@Z			; CvDllUnit::operator delete
	pop	ecx
	ret	0
__ehhandler$?FirstUnit@CvDllPlayer@@UAGPAVICvUnit1@@PAH_N@Z:
	mov	eax, OFFSET __ehfuncinfo$?FirstUnit@CvDllPlayer@@UAGPAVICvUnit1@@PAH_N@Z
	jmp	___CxxFrameHandler3
text$x	ENDS
?FirstUnit@CvDllPlayer@@UAGPAVICvUnit1@@PAH_N@Z ENDP	; CvDllPlayer::FirstUnit
PUBLIC	?NextUnit@CvDllPlayer@@UAGPAVICvUnit1@@PAH_N@Z	; CvDllPlayer::NextUnit
EXTRN	?nextUnit@CvPlayer@@QAEPAVCvUnit@@PAH_N@Z:PROC	; CvPlayer::nextUnit
;	COMDAT xdata$x
xdata$x	SEGMENT
__unwindtable$?NextUnit@CvDllPlayer@@UAGPAVICvUnit1@@PAH_N@Z DD 0ffffffffH
	DD	FLAT:__unwindfunclet$?NextUnit@CvDllPlayer@@UAGPAVICvUnit1@@PAH_N@Z$0
__ehfuncinfo$?NextUnit@CvDllPlayer@@UAGPAVICvUnit1@@PAH_N@Z DD 019930522H
	DD	01H
	DD	FLAT:__unwindtable$?NextUnit@CvDllPlayer@@UAGPAVICvUnit1@@PAH_N@Z
	DD	2 DUP(00H)
	DD	2 DUP(00H)
	DD	00H
	DD	01H
; Function compile flags: /Ogtpy
xdata$x	ENDS
;	COMDAT ?NextUnit@CvDllPlayer@@UAGPAVICvUnit1@@PAH_N@Z
_TEXT	SEGMENT
__$EHRec$ = -12						; size = 12
_this$ = 8						; size = 4
_pIterIdx$ = 12						; size = 4
_bRev$ = 16						; size = 1
$T221278 = 16						; size = 4
?NextUnit@CvDllPlayer@@UAGPAVICvUnit1@@PAH_N@Z PROC	; CvDllPlayer::NextUnit, COMDAT

; 308  : {

	mov	eax, DWORD PTR fs:0

; 309  : 	CvUnit* pkUnit = m_pPlayer->nextUnit(pIterIdx, bRev);

	mov	ecx, DWORD PTR _pIterIdx$[esp-4]
	mov	edx, DWORD PTR _this$[esp-4]
	push	-1
	push	__ehhandler$?NextUnit@CvDllPlayer@@UAGPAVICvUnit1@@PAH_N@Z
	push	eax
	mov	DWORD PTR fs:0, esp
	mov	eax, DWORD PTR _bRev$[esp+8]
	push	esi
	push	eax
	push	ecx
	mov	ecx, DWORD PTR [edx+8]
	call	?nextUnit@CvPlayer@@QAEPAVCvUnit@@PAH_N@Z ; CvPlayer::nextUnit
	mov	esi, eax

; 310  : 	return (NULL != pkUnit)? new CvDllUnit(pkUnit) : NULL;

	test	esi, esi
	je	SHORT $LN5@NextUnit
	push	12					; 0000000cH
	call	??2CvDllUnit@@SAPAXI@Z			; CvDllUnit::operator new
	add	esp, 4
	mov	DWORD PTR $T221278[esp+12], eax
	mov	DWORD PTR __$EHRec$[esp+24], 0
	test	eax, eax
	je	SHORT $LN5@NextUnit
	push	esi
	mov	ecx, eax
	call	??0CvDllUnit@@QAE@PAVCvUnit@@@Z		; CvDllUnit::CvDllUnit

; 311  : }

	mov	ecx, DWORD PTR __$EHRec$[esp+16]
	mov	DWORD PTR fs:0, ecx
	pop	esi
	add	esp, 12					; 0000000cH
	ret	12					; 0000000cH
$LN5@NextUnit:
	mov	ecx, DWORD PTR __$EHRec$[esp+16]
	xor	eax, eax
	mov	DWORD PTR fs:0, ecx
	pop	esi
	add	esp, 12					; 0000000cH
	ret	12					; 0000000cH
_TEXT	ENDS
;	COMDAT text$x
text$x	SEGMENT
__unwindfunclet$?NextUnit@CvDllPlayer@@UAGPAVICvUnit1@@PAH_N@Z$0:
	mov	eax, DWORD PTR $T221278[ebp-4]
	push	eax
	call	??3CvDllUnit@@SAXPAX@Z			; CvDllUnit::operator delete
	pop	ecx
	ret	0
__ehhandler$?NextUnit@CvDllPlayer@@UAGPAVICvUnit1@@PAH_N@Z:
	mov	eax, OFFSET __ehfuncinfo$?NextUnit@CvDllPlayer@@UAGPAVICvUnit1@@PAH_N@Z
	jmp	___CxxFrameHandler3
text$x	ENDS
?NextUnit@CvDllPlayer@@UAGPAVICvUnit1@@PAH_N@Z ENDP	; CvDllPlayer::NextUnit
PUBLIC	?GetPlotDanger@CvDllPlayer@@UBGHPAVICvPlot1@@@Z	; CvDllPlayer::GetPlotDanger
EXTRN	?GetPlotDanger@CvPlayer@@QBEHAAVCvPlot@@@Z:PROC	; CvPlayer::GetPlotDanger
EXTRN	?GetInstance@CvDllPlot@@QAEPAVCvPlot@@XZ:PROC	; CvDllPlot::GetInstance
; Function compile flags: /Ogtpy
;	COMDAT ?GetPlotDanger@CvDllPlayer@@UBGHPAVICvPlot1@@@Z
_TEXT	SEGMENT
_this$ = 8						; size = 4
_pPlot$ = 12						; size = 4
?GetPlotDanger@CvDllPlayer@@UBGHPAVICvPlot1@@@Z PROC	; CvDllPlayer::GetPlotDanger, COMDAT

; 315  : 	CvDllPlot* pDllPlot = static_cast<CvDllPlot*>(pPlot);
; 316  : 	CvPlot& kPlot = (*pDllPlot->GetInstance());

	mov	ecx, DWORD PTR _pPlot$[esp-4]
	call	?GetInstance@CvDllPlot@@QAEPAVCvPlot@@XZ ; CvDllPlot::GetInstance

; 317  : 	return m_pPlayer->GetPlotDanger(kPlot);

	push	eax
	mov	eax, DWORD PTR _this$[esp]
	mov	ecx, DWORD PTR [eax+8]
	call	?GetPlotDanger@CvPlayer@@QBEHAAVCvPlot@@@Z ; CvPlayer::GetPlotDanger

; 318  : }

	ret	8
?GetPlotDanger@CvDllPlayer@@UBGHPAVICvPlot1@@@Z ENDP	; CvDllPlayer::GetPlotDanger
_TEXT	ENDS
PUBLIC	?GetCityDistanceHighwaterMark@CvDllPlayer@@UBGHXZ ; CvDllPlayer::GetCityDistanceHighwaterMark
EXTRN	?GetCityDistanceHighwaterMark@CvPlayer@@QBEHXZ:PROC ; CvPlayer::GetCityDistanceHighwaterMark
; Function compile flags: /Ogtpy
;	COMDAT ?GetCityDistanceHighwaterMark@CvDllPlayer@@UBGHXZ
_TEXT	SEGMENT
_this$ = 8						; size = 4
?GetCityDistanceHighwaterMark@CvDllPlayer@@UBGHXZ PROC	; CvDllPlayer::GetCityDistanceHighwaterMark, COMDAT

; 322  : 	return m_pPlayer->GetCityDistanceHighwaterMark();

	mov	eax, DWORD PTR _this$[esp-4]
	mov	ecx, DWORD PTR [eax+8]
	call	?GetCityDistanceHighwaterMark@CvPlayer@@QBEHXZ ; CvPlayer::GetCityDistanceHighwaterMark

; 323  : }

	ret	4
?GetCityDistanceHighwaterMark@CvDllPlayer@@UBGHXZ ENDP	; CvDllPlayer::GetCityDistanceHighwaterMark
_TEXT	ENDS
PUBLIC	?Disconnected@CvDllPlayer@@UAGXXZ		; CvDllPlayer::Disconnected
EXTRN	?disconnected@CvPlayer@@QAEXXZ:PROC		; CvPlayer::disconnected
; Function compile flags: /Ogtpy
;	COMDAT ?Disconnected@CvDllPlayer@@UAGXXZ
_TEXT	SEGMENT
_this$ = 8						; size = 4
?Disconnected@CvDllPlayer@@UAGXXZ PROC			; CvDllPlayer::Disconnected, COMDAT

; 327  : 	m_pPlayer->disconnected();

	mov	eax, DWORD PTR _this$[esp-4]
	mov	ecx, DWORD PTR [eax+8]
	call	?disconnected@CvPlayer@@QAEXXZ		; CvPlayer::disconnected

; 328  : }

	ret	4
?Disconnected@CvDllPlayer@@UAGXXZ ENDP			; CvDllPlayer::Disconnected
_TEXT	ENDS
PUBLIC	?Reconnected@CvDllPlayer@@UAGXXZ		; CvDllPlayer::Reconnected
EXTRN	?reconnected@CvPlayer@@QAEXXZ:PROC		; CvPlayer::reconnected
; Function compile flags: /Ogtpy
;	COMDAT ?Reconnected@CvDllPlayer@@UAGXXZ
_TEXT	SEGMENT
_this$ = 8						; size = 4
?Reconnected@CvDllPlayer@@UAGXXZ PROC			; CvDllPlayer::Reconnected, COMDAT

; 332  : 	m_pPlayer->reconnected();

	mov	eax, DWORD PTR _this$[esp-4]
	mov	ecx, DWORD PTR [eax+8]
	call	?reconnected@CvPlayer@@QAEXXZ		; CvPlayer::reconnected

; 333  : }

	ret	4
?Reconnected@CvDllPlayer@@UAGXXZ ENDP			; CvDllPlayer::Reconnected
_TEXT	ENDS
PUBLIC	?SetBusyUnitUpdatesRemaining@CvDllPlayer@@UAGXH@Z ; CvDllPlayer::SetBusyUnitUpdatesRemaining
EXTRN	?setBusyUnitUpdatesRemaining@CvPlayer@@QAEXH@Z:PROC ; CvPlayer::setBusyUnitUpdatesRemaining
; Function compile flags: /Ogtpy
;	COMDAT ?SetBusyUnitUpdatesRemaining@CvDllPlayer@@UAGXH@Z
_TEXT	SEGMENT
_this$ = 8						; size = 4
_iUpdateCount$ = 12					; size = 4
?SetBusyUnitUpdatesRemaining@CvDllPlayer@@UAGXH@Z PROC	; CvDllPlayer::SetBusyUnitUpdatesRemaining, COMDAT

; 337  : 	m_pPlayer->setBusyUnitUpdatesRemaining(iUpdateCount);

	mov	eax, DWORD PTR _iUpdateCount$[esp-4]
	mov	ecx, DWORD PTR _this$[esp-4]
	mov	ecx, DWORD PTR [ecx+8]
	push	eax
	call	?setBusyUnitUpdatesRemaining@CvPlayer@@QAEXH@Z ; CvPlayer::setBusyUnitUpdatesRemaining

; 338  : }

	ret	8
?SetBusyUnitUpdatesRemaining@CvDllPlayer@@UAGXH@Z ENDP	; CvDllPlayer::SetBusyUnitUpdatesRemaining
_TEXT	ENDS
PUBLIC	?HasUnitsThatNeedAIUpdate@CvDllPlayer@@UBG_NXZ	; CvDllPlayer::HasUnitsThatNeedAIUpdate
EXTRN	?hasUnitsThatNeedAIUpdate@CvPlayer@@QBE_NXZ:PROC ; CvPlayer::hasUnitsThatNeedAIUpdate
; Function compile flags: /Ogtpy
;	COMDAT ?HasUnitsThatNeedAIUpdate@CvDllPlayer@@UBG_NXZ
_TEXT	SEGMENT
_this$ = 8						; size = 4
?HasUnitsThatNeedAIUpdate@CvDllPlayer@@UBG_NXZ PROC	; CvDllPlayer::HasUnitsThatNeedAIUpdate, COMDAT

; 342  : 	return m_pPlayer->hasUnitsThatNeedAIUpdate();

	mov	eax, DWORD PTR _this$[esp-4]
	mov	ecx, DWORD PTR [eax+8]
	call	?hasUnitsThatNeedAIUpdate@CvPlayer@@QBE_NXZ ; CvPlayer::hasUnitsThatNeedAIUpdate

; 343  : }

	ret	4
?HasUnitsThatNeedAIUpdate@CvDllPlayer@@UBG_NXZ ENDP	; CvDllPlayer::HasUnitsThatNeedAIUpdate
_TEXT	ENDS
PUBLIC	?GetNumPolicyBranchesFinished@CvDllPlayer@@UBGHXZ ; CvDllPlayer::GetNumPolicyBranchesFinished
EXTRN	?GetNumPolicyBranchesFinished@CvPlayerPolicies@@QBEHXZ:PROC ; CvPlayerPolicies::GetNumPolicyBranchesFinished
EXTRN	?GetPlayerPolicies@CvPlayer@@QBEPAVCvPlayerPolicies@@XZ:PROC ; CvPlayer::GetPlayerPolicies
; Function compile flags: /Ogtpy
;	COMDAT ?GetNumPolicyBranchesFinished@CvDllPlayer@@UBGHXZ
_TEXT	SEGMENT
_this$ = 8						; size = 4
?GetNumPolicyBranchesFinished@CvDllPlayer@@UBGHXZ PROC	; CvDllPlayer::GetNumPolicyBranchesFinished, COMDAT

; 347  : 	return m_pPlayer->GetPlayerPolicies()->GetNumPolicyBranchesFinished();

	mov	eax, DWORD PTR _this$[esp-4]
	mov	ecx, DWORD PTR [eax+8]
	call	?GetPlayerPolicies@CvPlayer@@QBEPAVCvPlayerPolicies@@XZ ; CvPlayer::GetPlayerPolicies
	mov	ecx, eax
	call	?GetNumPolicyBranchesFinished@CvPlayerPolicies@@QBEHXZ ; CvPlayerPolicies::GetNumPolicyBranchesFinished

; 348  : }

	ret	4
?GetNumPolicyBranchesFinished@CvDllPlayer@@UBGHXZ ENDP	; CvDllPlayer::GetNumPolicyBranchesFinished
_TEXT	ENDS
PUBLIC	?Read@CvDllPlayer@@UAGXAAVFDataStream@@@Z	; CvDllPlayer::Read
; Function compile flags: /Ogtpy
;	COMDAT ?Read@CvDllPlayer@@UAGXAAVFDataStream@@@Z
_TEXT	SEGMENT
_this$ = 8						; size = 4
_kStream$ = 12						; size = 4
?Read@CvDllPlayer@@UAGXAAVFDataStream@@@Z PROC		; CvDllPlayer::Read, COMDAT

; 352  : 	m_pPlayer->Read(kStream);

	mov	eax, DWORD PTR _this$[esp-4]
	mov	ecx, DWORD PTR [eax+8]
	mov	edx, DWORD PTR [ecx]
	mov	eax, DWORD PTR _kStream$[esp-4]
	mov	edx, DWORD PTR [edx+4]
	push	eax
	call	edx

; 353  : }

	ret	8
?Read@CvDllPlayer@@UAGXAAVFDataStream@@@Z ENDP		; CvDllPlayer::Read
_TEXT	ENDS
PUBLIC	?Write@CvDllPlayer@@UBGXAAVFDataStream@@@Z	; CvDllPlayer::Write
; Function compile flags: /Ogtpy
;	COMDAT ?Write@CvDllPlayer@@UBGXAAVFDataStream@@@Z
_TEXT	SEGMENT
_this$ = 8						; size = 4
_kStream$ = 12						; size = 4
?Write@CvDllPlayer@@UBGXAAVFDataStream@@@Z PROC		; CvDllPlayer::Write, COMDAT

; 357  : 	m_pPlayer->Write(kStream);

	mov	eax, DWORD PTR _this$[esp-4]
	mov	ecx, DWORD PTR [eax+8]
	mov	edx, DWORD PTR [ecx]
	mov	eax, DWORD PTR _kStream$[esp-4]
	mov	edx, DWORD PTR [edx+8]
	push	eax
	call	edx

; 358  : }

	ret	8
?Write@CvDllPlayer@@UBGXAAVFDataStream@@@Z ENDP		; CvDllPlayer::Write
_TEXT	ENDS
PUBLIC	?GetSyncArchive@CvDllPlayer@@UAGAAVFAutoArchive@@XZ ; CvDllPlayer::GetSyncArchive
EXTRN	?getSyncArchive@CvPlayer@@QAEAAVFAutoArchive@@XZ:PROC ; CvPlayer::getSyncArchive
; Function compile flags: /Ogtpy
;	COMDAT ?GetSyncArchive@CvDllPlayer@@UAGAAVFAutoArchive@@XZ
_TEXT	SEGMENT
_this$ = 8						; size = 4
?GetSyncArchive@CvDllPlayer@@UAGAAVFAutoArchive@@XZ PROC ; CvDllPlayer::GetSyncArchive, COMDAT

; 362  : 	return m_pPlayer->getSyncArchive();

	mov	eax, DWORD PTR _this$[esp-4]
	mov	ecx, DWORD PTR [eax+8]
	call	?getSyncArchive@CvPlayer@@QAEAAVFAutoArchive@@XZ ; CvPlayer::getSyncArchive

; 363  : }

	ret	4
?GetSyncArchive@CvDllPlayer@@UAGAAVFAutoArchive@@XZ ENDP ; CvDllPlayer::GetSyncArchive
_TEXT	ENDS
PUBLIC	?GetGold@CvDllPlayer@@UBGHXZ			; CvDllPlayer::GetGold
EXTRN	?GetGold@CvTreasury@@QBEHXZ:PROC		; CvTreasury::GetGold
EXTRN	?GetTreasury@CvPlayer@@QBEPAVCvTreasury@@XZ:PROC ; CvPlayer::GetTreasury
; Function compile flags: /Ogtpy
;	COMDAT ?GetGold@CvDllPlayer@@UBGHXZ
_TEXT	SEGMENT
_this$ = 8						; size = 4
?GetGold@CvDllPlayer@@UBGHXZ PROC			; CvDllPlayer::GetGold, COMDAT

; 367  : 	return m_pPlayer->GetTreasury()->GetGold();

	mov	eax, DWORD PTR _this$[esp-4]
	mov	ecx, DWORD PTR [eax+8]
	call	?GetTreasury@CvPlayer@@QBEPAVCvTreasury@@XZ ; CvPlayer::GetTreasury
	mov	ecx, eax
	call	?GetGold@CvTreasury@@QBEHXZ		; CvTreasury::GetGold

; 368  : }

	ret	4
?GetGold@CvDllPlayer@@UBGHXZ ENDP			; CvDllPlayer::GetGold
_TEXT	ENDS
PUBLIC	?CalculateBaseNetGold@CvDllPlayer@@UAGHXZ	; CvDllPlayer::CalculateBaseNetGold
EXTRN	?CalculateBaseNetGold@CvTreasury@@QAEHXZ:PROC	; CvTreasury::CalculateBaseNetGold
; Function compile flags: /Ogtpy
;	COMDAT ?CalculateBaseNetGold@CvDllPlayer@@UAGHXZ
_TEXT	SEGMENT
_this$ = 8						; size = 4
?CalculateBaseNetGold@CvDllPlayer@@UAGHXZ PROC		; CvDllPlayer::CalculateBaseNetGold, COMDAT

; 372  : 	return m_pPlayer->GetTreasury()->CalculateBaseNetGold();

	mov	eax, DWORD PTR _this$[esp-4]
	mov	ecx, DWORD PTR [eax+8]
	call	?GetTreasury@CvPlayer@@QBEPAVCvTreasury@@XZ ; CvPlayer::GetTreasury
	mov	ecx, eax
	call	?CalculateBaseNetGold@CvTreasury@@QAEHXZ ; CvTreasury::CalculateBaseNetGold

; 373  : }

	ret	4
?CalculateBaseNetGold@CvDllPlayer@@UAGHXZ ENDP		; CvDllPlayer::CalculateBaseNetGold
_TEXT	ENDS
PUBLIC	?GetMinorCivType@CvDllPlayer@@UBG?AW4MinorCivTypes@@XZ ; CvDllPlayer::GetMinorCivType
EXTRN	?GetMinorCivType@CvMinorCivAI@@QBE?AW4MinorCivTypes@@XZ:PROC ; CvMinorCivAI::GetMinorCivType
EXTRN	?GetMinorCivAI@CvPlayer@@QBEPAVCvMinorCivAI@@XZ:PROC ; CvPlayer::GetMinorCivAI
; Function compile flags: /Ogtpy
;	COMDAT ?GetMinorCivType@CvDllPlayer@@UBG?AW4MinorCivTypes@@XZ
_TEXT	SEGMENT
_this$ = 8						; size = 4
?GetMinorCivType@CvDllPlayer@@UBG?AW4MinorCivTypes@@XZ PROC ; CvDllPlayer::GetMinorCivType, COMDAT

; 382  : 	MinorCivTypes eType = NO_MINORCIV;
; 383  : 	CvMinorCivAI* pAI = m_pPlayer->GetMinorCivAI();

	mov	eax, DWORD PTR _this$[esp-4]
	mov	ecx, DWORD PTR [eax+8]
	push	esi
	or	esi, -1
	call	?GetMinorCivAI@CvPlayer@@QBEPAVCvMinorCivAI@@XZ ; CvPlayer::GetMinorCivAI

; 384  : 	if(pAI != NULL)

	test	eax, eax
	je	SHORT $LN4@GetMinorCi

; 385  : 	{
; 386  : 		eType = pAI->GetMinorCivType();

	mov	ecx, eax
	call	?GetMinorCivType@CvMinorCivAI@@QBE?AW4MinorCivTypes@@XZ ; CvMinorCivAI::GetMinorCivType
	pop	esi

; 390  : }

	ret	4
$LN4@GetMinorCi:

; 387  : 	}
; 388  : 
; 389  : 	return eType;

	mov	eax, esi
	pop	esi

; 390  : }

	ret	4
?GetMinorCivType@CvDllPlayer@@UBG?AW4MinorCivTypes@@XZ ENDP ; CvDllPlayer::GetMinorCivType
_TEXT	ENDS
PUBLIC	?GetDiplomacyAI@CvDllPlayer@@UAGPAVICvDiplomacyAI1@@XZ ; CvDllPlayer::GetDiplomacyAI
EXTRN	??3CvDllDiplomacyAI@@SAXPAX@Z:PROC		; CvDllDiplomacyAI::operator delete
EXTRN	??0CvDllDiplomacyAI@@QAE@PAVCvDiplomacyAI@@@Z:PROC ; CvDllDiplomacyAI::CvDllDiplomacyAI
EXTRN	??2CvDllDiplomacyAI@@SAPAXI@Z:PROC		; CvDllDiplomacyAI::operator new
EXTRN	?GetDiplomacyAI@CvPlayer@@QBEPAVCvDiplomacyAI@@XZ:PROC ; CvPlayer::GetDiplomacyAI
;	COMDAT xdata$x
xdata$x	SEGMENT
__unwindtable$?GetDiplomacyAI@CvDllPlayer@@UAGPAVICvDiplomacyAI1@@XZ DD 0ffffffffH
	DD	FLAT:__unwindfunclet$?GetDiplomacyAI@CvDllPlayer@@UAGPAVICvDiplomacyAI1@@XZ$0
__ehfuncinfo$?GetDiplomacyAI@CvDllPlayer@@UAGPAVICvDiplomacyAI1@@XZ DD 019930522H
	DD	01H
	DD	FLAT:__unwindtable$?GetDiplomacyAI@CvDllPlayer@@UAGPAVICvDiplomacyAI1@@XZ
	DD	2 DUP(00H)
	DD	2 DUP(00H)
	DD	00H
	DD	01H
; Function compile flags: /Ogtpy
xdata$x	ENDS
;	COMDAT ?GetDiplomacyAI@CvDllPlayer@@UAGPAVICvDiplomacyAI1@@XZ
_TEXT	SEGMENT
__$EHRec$ = -12						; size = 12
$T221334 = 8						; size = 4
_this$ = 8						; size = 4
?GetDiplomacyAI@CvDllPlayer@@UAGPAVICvDiplomacyAI1@@XZ PROC ; CvDllPlayer::GetDiplomacyAI, COMDAT

; 393  : {

	mov	eax, DWORD PTR fs:0
	push	-1
	push	__ehhandler$?GetDiplomacyAI@CvDllPlayer@@UAGPAVICvDiplomacyAI1@@XZ
	push	eax
	mov	DWORD PTR fs:0, esp

; 394  : 	CvDiplomacyAI* pAI = m_pPlayer->GetDiplomacyAI();

	mov	eax, DWORD PTR _this$[esp+8]
	mov	ecx, DWORD PTR [eax+8]
	push	esi
	call	?GetDiplomacyAI@CvPlayer@@QBEPAVCvDiplomacyAI@@XZ ; CvPlayer::GetDiplomacyAI
	mov	esi, eax

; 395  : 	return (NULL != pAI)? new CvDllDiplomacyAI(pAI) : NULL;

	test	esi, esi
	je	SHORT $LN5@GetDiploma
	push	12					; 0000000cH
	call	??2CvDllDiplomacyAI@@SAPAXI@Z		; CvDllDiplomacyAI::operator new
	add	esp, 4
	mov	DWORD PTR $T221334[esp+12], eax
	mov	DWORD PTR __$EHRec$[esp+24], 0
	test	eax, eax
	je	SHORT $LN5@GetDiploma
	push	esi
	mov	ecx, eax
	call	??0CvDllDiplomacyAI@@QAE@PAVCvDiplomacyAI@@@Z ; CvDllDiplomacyAI::CvDllDiplomacyAI

; 396  : }

	mov	ecx, DWORD PTR __$EHRec$[esp+16]
	mov	DWORD PTR fs:0, ecx
	pop	esi
	add	esp, 12					; 0000000cH
	ret	4
$LN5@GetDiploma:
	mov	ecx, DWORD PTR __$EHRec$[esp+16]
	xor	eax, eax
	mov	DWORD PTR fs:0, ecx
	pop	esi
	add	esp, 12					; 0000000cH
	ret	4
_TEXT	ENDS
;	COMDAT text$x
text$x	SEGMENT
__unwindfunclet$?GetDiplomacyAI@CvDllPlayer@@UAGPAVICvDiplomacyAI1@@XZ$0:
	mov	eax, DWORD PTR $T221334[ebp-4]
	push	eax
	call	??3CvDllDiplomacyAI@@SAXPAX@Z		; CvDllDiplomacyAI::operator delete
	pop	ecx
	ret	0
__ehhandler$?GetDiplomacyAI@CvDllPlayer@@UAGPAVICvDiplomacyAI1@@XZ:
	mov	eax, OFFSET __ehfuncinfo$?GetDiplomacyAI@CvDllPlayer@@UAGPAVICvDiplomacyAI1@@XZ
	jmp	___CxxFrameHandler3
text$x	ENDS
?GetDiplomacyAI@CvDllPlayer@@UAGPAVICvDiplomacyAI1@@XZ ENDP ; CvDllPlayer::GetDiplomacyAI
PUBLIC	?GetDealAI@CvDllPlayer@@UAGPAVICvDealAI1@@XZ	; CvDllPlayer::GetDealAI
EXTRN	??3CvDllDealAI@@SAXPAX@Z:PROC			; CvDllDealAI::operator delete
EXTRN	??0CvDllDealAI@@QAE@PAVCvDealAI@@@Z:PROC	; CvDllDealAI::CvDllDealAI
EXTRN	??2CvDllDealAI@@SAPAXI@Z:PROC			; CvDllDealAI::operator new
EXTRN	?GetDealAI@CvPlayer@@QBEPAVCvDealAI@@XZ:PROC	; CvPlayer::GetDealAI
;	COMDAT xdata$x
xdata$x	SEGMENT
__unwindtable$?GetDealAI@CvDllPlayer@@UAGPAVICvDealAI1@@XZ DD 0ffffffffH
	DD	FLAT:__unwindfunclet$?GetDealAI@CvDllPlayer@@UAGPAVICvDealAI1@@XZ$0
__ehfuncinfo$?GetDealAI@CvDllPlayer@@UAGPAVICvDealAI1@@XZ DD 019930522H
	DD	01H
	DD	FLAT:__unwindtable$?GetDealAI@CvDllPlayer@@UAGPAVICvDealAI1@@XZ
	DD	2 DUP(00H)
	DD	2 DUP(00H)
	DD	00H
	DD	01H
; Function compile flags: /Ogtpy
xdata$x	ENDS
;	COMDAT ?GetDealAI@CvDllPlayer@@UAGPAVICvDealAI1@@XZ
_TEXT	SEGMENT
__$EHRec$ = -12						; size = 12
$T221350 = 8						; size = 4
_this$ = 8						; size = 4
?GetDealAI@CvDllPlayer@@UAGPAVICvDealAI1@@XZ PROC	; CvDllPlayer::GetDealAI, COMDAT

; 399  : {

	mov	eax, DWORD PTR fs:0
	push	-1
	push	__ehhandler$?GetDealAI@CvDllPlayer@@UAGPAVICvDealAI1@@XZ
	push	eax
	mov	DWORD PTR fs:0, esp

; 400  : 	CvDealAI* pAI = m_pPlayer->GetDealAI();

	mov	eax, DWORD PTR _this$[esp+8]
	mov	ecx, DWORD PTR [eax+8]
	push	esi
	call	?GetDealAI@CvPlayer@@QBEPAVCvDealAI@@XZ	; CvPlayer::GetDealAI
	mov	esi, eax

; 401  : 	return (NULL != pAI)? new CvDllDealAI(pAI) : NULL;

	test	esi, esi
	je	SHORT $LN5@GetDealAI
	push	12					; 0000000cH
	call	??2CvDllDealAI@@SAPAXI@Z		; CvDllDealAI::operator new
	add	esp, 4
	mov	DWORD PTR $T221350[esp+12], eax
	mov	DWORD PTR __$EHRec$[esp+24], 0
	test	eax, eax
	je	SHORT $LN5@GetDealAI
	push	esi
	mov	ecx, eax
	call	??0CvDllDealAI@@QAE@PAVCvDealAI@@@Z	; CvDllDealAI::CvDllDealAI

; 402  : }

	mov	ecx, DWORD PTR __$EHRec$[esp+16]
	mov	DWORD PTR fs:0, ecx
	pop	esi
	add	esp, 12					; 0000000cH
	ret	4
$LN5@GetDealAI:
	mov	ecx, DWORD PTR __$EHRec$[esp+16]
	xor	eax, eax
	mov	DWORD PTR fs:0, ecx
	pop	esi
	add	esp, 12					; 0000000cH
	ret	4
_TEXT	ENDS
;	COMDAT text$x
text$x	SEGMENT
__unwindfunclet$?GetDealAI@CvDllPlayer@@UAGPAVICvDealAI1@@XZ$0:
	mov	eax, DWORD PTR $T221350[ebp-4]
	push	eax
	call	??3CvDllDealAI@@SAXPAX@Z		; CvDllDealAI::operator delete
	pop	ecx
	ret	0
__ehhandler$?GetDealAI@CvDllPlayer@@UAGPAVICvDealAI1@@XZ:
	mov	eax, OFFSET __ehfuncinfo$?GetDealAI@CvDllPlayer@@UAGPAVICvDealAI1@@XZ
	jmp	___CxxFrameHandler3
text$x	ENDS
?GetDealAI@CvDllPlayer@@UAGPAVICvDealAI1@@XZ ENDP	; CvDllPlayer::GetDealAI
PUBLIC	?AddDiplomacyRequest@CvDllPlayer@@UAG_NW4PlayerTypes@@W4DiploUIStateTypes@@PBDW4LeaderheadAnimationTypes@@H@Z ; CvDllPlayer::AddDiplomacyRequest
EXTRN	?Add@CvDiplomacyRequests@@QAE_NW4PlayerTypes@@W4DiploUIStateTypes@@PBDW4LeaderheadAnimationTypes@@H@Z:PROC ; CvDiplomacyRequests::Add
EXTRN	?GetDiplomacyRequests@CvPlayer@@QBEPAVCvDiplomacyRequests@@XZ:PROC ; CvPlayer::GetDiplomacyRequests
; Function compile flags: /Ogtpy
;	COMDAT ?AddDiplomacyRequest@CvDllPlayer@@UAG_NW4PlayerTypes@@W4DiploUIStateTypes@@PBDW4LeaderheadAnimationTypes@@H@Z
_TEXT	SEGMENT
_this$ = 8						; size = 4
_ePlayerID$ = 12					; size = 4
_eDiploType$ = 16					; size = 4
_pszMessage$ = 20					; size = 4
_eAnimationType$ = 24					; size = 4
_iExtraGameData$ = 28					; size = 4
?AddDiplomacyRequest@CvDllPlayer@@UAG_NW4PlayerTypes@@W4DiploUIStateTypes@@PBDW4LeaderheadAnimationTypes@@H@Z PROC ; CvDllPlayer::AddDiplomacyRequest, COMDAT

; 412  : 	return m_pPlayer->GetDiplomacyRequests()->Add(ePlayerID, eDiploType, pszMessage, eAnimationType, iExtraGameData);

	mov	eax, DWORD PTR _iExtraGameData$[esp-4]
	mov	ecx, DWORD PTR _eAnimationType$[esp-4]
	mov	edx, DWORD PTR _pszMessage$[esp-4]
	push	eax
	mov	eax, DWORD PTR _eDiploType$[esp]
	push	ecx
	mov	ecx, DWORD PTR _ePlayerID$[esp+4]
	push	edx
	mov	edx, DWORD PTR _this$[esp+8]
	push	eax
	push	ecx
	mov	ecx, DWORD PTR [edx+8]
	call	?GetDiplomacyRequests@CvPlayer@@QBEPAVCvDiplomacyRequests@@XZ ; CvPlayer::GetDiplomacyRequests
	mov	ecx, eax
	call	?Add@CvDiplomacyRequests@@QAE_NW4PlayerTypes@@W4DiploUIStateTypes@@PBDW4LeaderheadAnimationTypes@@H@Z ; CvDiplomacyRequests::Add

; 413  : }

	ret	24					; 00000018H
?AddDiplomacyRequest@CvDllPlayer@@UAG_NW4PlayerTypes@@W4DiploUIStateTypes@@PBDW4LeaderheadAnimationTypes@@H@Z ENDP ; CvDllPlayer::AddDiplomacyRequest
_TEXT	ENDS
PUBLIC	?ActiveDiplomacyRequestComplete@CvDllPlayer@@UAGXXZ ; CvDllPlayer::ActiveDiplomacyRequestComplete
EXTRN	?ActiveRequestComplete@CvDiplomacyRequests@@QAEXXZ:PROC ; CvDiplomacyRequests::ActiveRequestComplete
; Function compile flags: /Ogtpy
;	COMDAT ?ActiveDiplomacyRequestComplete@CvDllPlayer@@UAGXXZ
_TEXT	SEGMENT
_this$ = 8						; size = 4
?ActiveDiplomacyRequestComplete@CvDllPlayer@@UAGXXZ PROC ; CvDllPlayer::ActiveDiplomacyRequestComplete, COMDAT

; 417  : 	m_pPlayer->GetDiplomacyRequests()->ActiveRequestComplete();

	mov	eax, DWORD PTR _this$[esp-4]
	mov	ecx, DWORD PTR [eax+8]
	call	?GetDiplomacyRequests@CvPlayer@@QBEPAVCvDiplomacyRequests@@XZ ; CvPlayer::GetDiplomacyRequests
	mov	ecx, eax
	call	?ActiveRequestComplete@CvDiplomacyRequests@@QAEXXZ ; CvDiplomacyRequests::ActiveRequestComplete

; 418  : }

	ret	4
?ActiveDiplomacyRequestComplete@CvDllPlayer@@UAGXXZ ENDP ; CvDllPlayer::ActiveDiplomacyRequestComplete
_TEXT	ENDS
PUBLIC	?AddNotification@CvDllPlayer@@UAGHW4NotificationTypes@@PBD1HHHH@Z ; CvDllPlayer::AddNotification
EXTRN	?Add@CvNotifications@@QAEHW4NotificationTypes@@PBD1HHHH@Z:PROC ; CvNotifications::Add
EXTRN	?GetNotifications@CvPlayer@@QBEPAVCvNotifications@@XZ:PROC ; CvPlayer::GetNotifications
; Function compile flags: /Ogtpy
;	COMDAT ?AddNotification@CvDllPlayer@@UAGHW4NotificationTypes@@PBD1HHHH@Z
_TEXT	SEGMENT
_this$ = 8						; size = 4
_eNotificationType$ = 12				; size = 4
_strMessage$ = 16					; size = 4
_strSummary$ = 20					; size = 4
_iX$ = 24						; size = 4
_iY$ = 28						; size = 4
_iGameDataIndex$ = 32					; size = 4
_iExtraGameData$ = 36					; size = 4
?AddNotification@CvDllPlayer@@UAGHW4NotificationTypes@@PBD1HHHH@Z PROC ; CvDllPlayer::AddNotification, COMDAT

; 422  : 	return m_pPlayer->GetNotifications()->Add(eNotificationType, strMessage, strSummary, iX, iY, iGameDataIndex, iExtraGameData);

	mov	eax, DWORD PTR _iExtraGameData$[esp-4]
	mov	ecx, DWORD PTR _iGameDataIndex$[esp-4]
	mov	edx, DWORD PTR _iY$[esp-4]
	push	eax
	mov	eax, DWORD PTR _iX$[esp]
	push	ecx
	mov	ecx, DWORD PTR _strSummary$[esp+4]
	push	edx
	mov	edx, DWORD PTR _strMessage$[esp+8]
	push	eax
	mov	eax, DWORD PTR _eNotificationType$[esp+12]
	push	ecx
	mov	ecx, DWORD PTR _this$[esp+16]
	mov	ecx, DWORD PTR [ecx+8]
	push	edx
	push	eax
	call	?GetNotifications@CvPlayer@@QBEPAVCvNotifications@@XZ ; CvPlayer::GetNotifications
	mov	ecx, eax
	call	?Add@CvNotifications@@QAEHW4NotificationTypes@@PBD1HHHH@Z ; CvNotifications::Add

; 423  : }

	ret	32					; 00000020H
?AddNotification@CvDllPlayer@@UAGHW4NotificationTypes@@PBD1HHHH@Z ENDP ; CvDllPlayer::AddNotification
_TEXT	ENDS
PUBLIC	?ActivateNotification@CvDllPlayer@@UAGXH@Z	; CvDllPlayer::ActivateNotification
EXTRN	?Activate@CvNotifications@@QAEXH@Z:PROC		; CvNotifications::Activate
; Function compile flags: /Ogtpy
;	COMDAT ?ActivateNotification@CvDllPlayer@@UAGXH@Z
_TEXT	SEGMENT
_this$ = 8						; size = 4
_iLookupIndex$ = 12					; size = 4
?ActivateNotification@CvDllPlayer@@UAGXH@Z PROC		; CvDllPlayer::ActivateNotification, COMDAT

; 427  : 	m_pPlayer->GetNotifications()->Activate(iLookupIndex);

	mov	eax, DWORD PTR _iLookupIndex$[esp-4]
	mov	ecx, DWORD PTR _this$[esp-4]
	mov	ecx, DWORD PTR [ecx+8]
	push	eax
	call	?GetNotifications@CvPlayer@@QBEPAVCvNotifications@@XZ ; CvPlayer::GetNotifications
	mov	ecx, eax
	call	?Activate@CvNotifications@@QAEXH@Z	; CvNotifications::Activate

; 428  : }

	ret	8
?ActivateNotification@CvDllPlayer@@UAGXH@Z ENDP		; CvDllPlayer::ActivateNotification
_TEXT	ENDS
PUBLIC	?DismissNotification@CvDllPlayer@@UAGXH_N@Z	; CvDllPlayer::DismissNotification
EXTRN	?Dismiss@CvNotifications@@QAEXH_N@Z:PROC	; CvNotifications::Dismiss
; Function compile flags: /Ogtpy
;	COMDAT ?DismissNotification@CvDllPlayer@@UAGXH_N@Z
_TEXT	SEGMENT
_this$ = 8						; size = 4
_iLookupIndex$ = 12					; size = 4
_bUserInvoked$ = 16					; size = 1
?DismissNotification@CvDllPlayer@@UAGXH_N@Z PROC	; CvDllPlayer::DismissNotification, COMDAT

; 432  : 	m_pPlayer->GetNotifications()->Dismiss(iLookupIndex, bUserInvoked);

	mov	eax, DWORD PTR _bUserInvoked$[esp-4]
	mov	ecx, DWORD PTR _iLookupIndex$[esp-4]
	mov	edx, DWORD PTR _this$[esp-4]
	push	eax
	push	ecx
	mov	ecx, DWORD PTR [edx+8]
	call	?GetNotifications@CvPlayer@@QBEPAVCvNotifications@@XZ ; CvPlayer::GetNotifications
	mov	ecx, eax
	call	?Dismiss@CvNotifications@@QAEXH_N@Z	; CvNotifications::Dismiss

; 433  : }

	ret	12					; 0000000cH
?DismissNotification@CvDllPlayer@@UAGXH_N@Z ENDP	; CvDllPlayer::DismissNotification
_TEXT	ENDS
PUBLIC	?MayUserDismissNotification@CvDllPlayer@@UAG_NH@Z ; CvDllPlayer::MayUserDismissNotification
EXTRN	?MayUserDismiss@CvNotifications@@QAE_NH@Z:PROC	; CvNotifications::MayUserDismiss
; Function compile flags: /Ogtpy
;	COMDAT ?MayUserDismissNotification@CvDllPlayer@@UAG_NH@Z
_TEXT	SEGMENT
_this$ = 8						; size = 4
_iLookupIndex$ = 12					; size = 4
?MayUserDismissNotification@CvDllPlayer@@UAG_NH@Z PROC	; CvDllPlayer::MayUserDismissNotification, COMDAT

; 437  : 	return m_pPlayer->GetNotifications()->MayUserDismiss(iLookupIndex);

	mov	eax, DWORD PTR _iLookupIndex$[esp-4]
	mov	ecx, DWORD PTR _this$[esp-4]
	mov	ecx, DWORD PTR [ecx+8]
	push	eax
	call	?GetNotifications@CvPlayer@@QBEPAVCvNotifications@@XZ ; CvPlayer::GetNotifications
	mov	ecx, eax
	call	?MayUserDismiss@CvNotifications@@QAE_NH@Z ; CvNotifications::MayUserDismiss

; 438  : }

	ret	8
?MayUserDismissNotification@CvDllPlayer@@UAG_NH@Z ENDP	; CvDllPlayer::MayUserDismissNotification
_TEXT	ENDS
PUBLIC	?RebroadcastNotifications@CvDllPlayer@@UAGXXZ	; CvDllPlayer::RebroadcastNotifications
EXTRN	?Rebroadcast@CvNotifications@@QAEXXZ:PROC	; CvNotifications::Rebroadcast
; Function compile flags: /Ogtpy
;	COMDAT ?RebroadcastNotifications@CvDllPlayer@@UAGXXZ
_TEXT	SEGMENT
_this$ = 8						; size = 4
?RebroadcastNotifications@CvDllPlayer@@UAGXXZ PROC	; CvDllPlayer::RebroadcastNotifications, COMDAT

; 442  : 	m_pPlayer->GetNotifications()->Rebroadcast();

	mov	eax, DWORD PTR _this$[esp-4]
	mov	ecx, DWORD PTR [eax+8]
	call	?GetNotifications@CvPlayer@@QBEPAVCvNotifications@@XZ ; CvPlayer::GetNotifications
	mov	ecx, eax
	call	?Rebroadcast@CvNotifications@@QAEXXZ	; CvNotifications::Rebroadcast

; 443  : }

	ret	4
?RebroadcastNotifications@CvDllPlayer@@UAGXXZ ENDP	; CvDllPlayer::RebroadcastNotifications
_TEXT	ENDS
PUBLIC	?GetCurrentResearchTech@CvDllPlayer@@UBG_NPAW4TechTypes@@PAH@Z ; CvDllPlayer::GetCurrentResearchTech
EXTRN	?GetResearchTurnsLeft@CvPlayerTechs@@QBEHW4TechTypes@@_N@Z:PROC ; CvPlayerTechs::GetResearchTurnsLeft
EXTRN	?GetCurrentResearch@CvPlayerTechs@@QBE?AW4TechTypes@@XZ:PROC ; CvPlayerTechs::GetCurrentResearch
EXTRN	?GetPlayerTechs@CvPlayer@@QBEPAVCvPlayerTechs@@XZ:PROC ; CvPlayer::GetPlayerTechs
; Function compile flags: /Ogtpy
;	COMDAT ?GetCurrentResearchTech@CvDllPlayer@@UBG_NPAW4TechTypes@@PAH@Z
_TEXT	SEGMENT
_this$ = 8						; size = 4
_pkTech$ = 12						; size = 4
_pkTurnsLeft$ = 16					; size = 4
?GetCurrentResearchTech@CvDllPlayer@@UBG_NPAW4TechTypes@@PAH@Z PROC ; CvDllPlayer::GetCurrentResearchTech, COMDAT

; 447  : 	CvPlayerTechs* pkTechs = m_pPlayer->GetPlayerTechs();

	mov	eax, DWORD PTR _this$[esp-4]
	mov	ecx, DWORD PTR [eax+8]
	push	esi
	call	?GetPlayerTechs@CvPlayer@@QBEPAVCvPlayerTechs@@XZ ; CvPlayer::GetPlayerTechs
	mov	esi, eax

; 448  : 	if (pkTechs)

	test	esi, esi
	je	SHORT $LN3@GetCurrent
	push	edi

; 449  : 	{
; 450  : 		if (pkTech)

	mov	edi, DWORD PTR _pkTech$[esp+4]
	test	edi, edi
	je	SHORT $LN2@GetCurrent

; 451  : 			*pkTech = pkTechs->GetCurrentResearch();

	mov	ecx, esi
	call	?GetCurrentResearch@CvPlayerTechs@@QBE?AW4TechTypes@@XZ ; CvPlayerTechs::GetCurrentResearch
	mov	DWORD PTR [edi], eax
$LN2@GetCurrent:

; 452  : 		if (pkTurnsLeft)

	mov	edi, DWORD PTR _pkTurnsLeft$[esp+4]
	test	edi, edi
	je	SHORT $LN1@GetCurrent

; 453  : 			*pkTurnsLeft = pkTechs->GetResearchTurnsLeft(pkTechs->GetCurrentResearch(), false);

	push	0
	mov	ecx, esi
	call	?GetCurrentResearch@CvPlayerTechs@@QBE?AW4TechTypes@@XZ ; CvPlayerTechs::GetCurrentResearch
	push	eax
	mov	ecx, esi
	call	?GetResearchTurnsLeft@CvPlayerTechs@@QBEHW4TechTypes@@_N@Z ; CvPlayerTechs::GetResearchTurnsLeft
	mov	DWORD PTR [edi], eax
$LN1@GetCurrent:
	pop	edi

; 454  : 		return true;

	mov	al, 1
	pop	esi

; 457  : }

	ret	12					; 0000000cH
$LN3@GetCurrent:

; 455  : 	}
; 456  : 	return false;

	xor	al, al
	pop	esi

; 457  : }

	ret	12					; 0000000cH
?GetCurrentResearchTech@CvDllPlayer@@UBG_NPAW4TechTypes@@PAH@Z ENDP ; CvDllPlayer::GetCurrentResearchTech
_TEXT	ENDS
PUBLIC	?HasTurnTimerExpired@CvDllPlayer@@UAG_NXZ	; CvDllPlayer::HasTurnTimerExpired
EXTRN	?hasTurnTimerExpired@CvPlayer@@QAE_NXZ:PROC	; CvPlayer::hasTurnTimerExpired
; Function compile flags: /Ogtpy
;	COMDAT ?HasTurnTimerExpired@CvDllPlayer@@UAG_NXZ
_TEXT	SEGMENT
_this$ = 8						; size = 4
?HasTurnTimerExpired@CvDllPlayer@@UAG_NXZ PROC		; CvDllPlayer::HasTurnTimerExpired, COMDAT

; 462  : 	return m_pPlayer->hasTurnTimerExpired();

	mov	eax, DWORD PTR _this$[esp-4]
	mov	ecx, DWORD PTR [eax+8]
	call	?hasTurnTimerExpired@CvPlayer@@QAE_NXZ	; CvPlayer::hasTurnTimerExpired

; 463  : }

	ret	4
?HasTurnTimerExpired@CvDllPlayer@@UAG_NXZ ENDP		; CvDllPlayer::HasTurnTimerExpired
_TEXT	ENDS
PUBLIC	??BCvString@@QBEPBDXZ				; CvString::operator char const *
EXTRN	__imp_?c_str@?$basic_string@DU?$char_traits@D@std@@V?$allocator@D@2@@std@@QBEPBDXZ:PROC
; Function compile flags: /Ogtpy
; File c:\users\enormousapplepie\desktop\lekmod dll versions\v31\lekmod_dll\cvgamecoredllutil\include\cvstring.h
;	COMDAT ??BCvString@@QBEPBDXZ
_TEXT	SEGMENT
??BCvString@@QBEPBDXZ PROC				; CvString::operator char const *, COMDAT
; _this$ = ecx

; 31   : 	operator const char*() const 	{ return c_str(); }												

	jmp	DWORD PTR __imp_?c_str@?$basic_string@DU?$char_traits@D@std@@V?$allocator@D@2@@std@@QBEPBDXZ
??BCvString@@QBEPBDXZ ENDP				; CvString::operator char const *
_TEXT	ENDS
PUBLIC	?GetInterfaceId@ICvUnknown@@SG?AU_GUID@@XZ	; ICvUnknown::GetInterfaceId
; Function compile flags: /Ogtpy
; File c:\users\enormousapplepie\desktop\lekmod dll versions\v31\lekmod_dll\cvgamecoredllutil\include\cvdllinterfaces.h
;	COMDAT ?GetInterfaceId@ICvUnknown@@SG?AU_GUID@@XZ
_TEXT	SEGMENT
$T221396 = 8						; size = 4
?GetInterfaceId@ICvUnknown@@SG?AU_GUID@@XZ PROC		; ICvUnknown::GetInterfaceId, COMDAT

; 306  : 	static GUID DLLCALL GetInterfaceId(){ return guidICvUnknown; }

	mov	eax, DWORD PTR $T221396[esp-4]
	mov	ecx, DWORD PTR _guidICvUnknown
	mov	edx, DWORD PTR _guidICvUnknown+4
	mov	DWORD PTR [eax], ecx
	mov	ecx, DWORD PTR _guidICvUnknown+8
	mov	DWORD PTR [eax+4], edx
	mov	edx, DWORD PTR _guidICvUnknown+12
	mov	DWORD PTR [eax+8], ecx
	mov	DWORD PTR [eax+12], edx
	ret	4
?GetInterfaceId@ICvUnknown@@SG?AU_GUID@@XZ ENDP		; ICvUnknown::GetInterfaceId
_TEXT	ENDS
PUBLIC	?GetInterfaceId@ICvPlayer1@@SG?AU_GUID@@XZ	; ICvPlayer1::GetInterfaceId
; Function compile flags: /Ogtpy
;	COMDAT ?GetInterfaceId@ICvPlayer1@@SG?AU_GUID@@XZ
_TEXT	SEGMENT
$T221400 = 8						; size = 4
?GetInterfaceId@ICvPlayer1@@SG?AU_GUID@@XZ PROC		; ICvPlayer1::GetInterfaceId, COMDAT

; 1271 : 	static GUID DLLCALL GetInterfaceId() { return guidICvPlayer1; }

	mov	eax, DWORD PTR $T221400[esp-4]
	mov	ecx, DWORD PTR _guidICvPlayer1
	mov	edx, DWORD PTR _guidICvPlayer1+4
	mov	DWORD PTR [eax], ecx
	mov	ecx, DWORD PTR _guidICvPlayer1+8
	mov	DWORD PTR [eax+4], edx
	mov	edx, DWORD PTR _guidICvPlayer1+12
	mov	DWORD PTR [eax+8], ecx
	mov	DWORD PTR [eax+12], edx
	ret	4
?GetInterfaceId@ICvPlayer1@@SG?AU_GUID@@XZ ENDP		; ICvPlayer1::GetInterfaceId
_TEXT	ENDS
PUBLIC	?GetInterfaceId@ICvPlayer2@@SG?AU_GUID@@XZ	; ICvPlayer2::GetInterfaceId
; Function compile flags: /Ogtpy
; File c:\users\enormousapplepie\desktop\lekmod dll versions\v31\lekmod_dll\cvgamecoredllutil\include\cvdllinterfaces2.h
;	COMDAT ?GetInterfaceId@ICvPlayer2@@SG?AU_GUID@@XZ
_TEXT	SEGMENT
$T221404 = 8						; size = 4
?GetInterfaceId@ICvPlayer2@@SG?AU_GUID@@XZ PROC		; ICvPlayer2::GetInterfaceId, COMDAT

; 114  : 	static GUID DLLCALL GetInterfaceId() { return guidICvPlayer2; }

	mov	eax, DWORD PTR $T221404[esp-4]
	mov	ecx, DWORD PTR _guidICvPlayer2
	mov	edx, DWORD PTR _guidICvPlayer2+4
	mov	DWORD PTR [eax], ecx
	mov	ecx, DWORD PTR _guidICvPlayer2+8
	mov	DWORD PTR [eax+4], edx
	mov	edx, DWORD PTR _guidICvPlayer2+12
	mov	DWORD PTR [eax+8], ecx
	mov	DWORD PTR [eax+12], edx
	ret	4
?GetInterfaceId@ICvPlayer2@@SG?AU_GUID@@XZ ENDP		; ICvPlayer2::GetInterfaceId
_TEXT	ENDS
PUBLIC	?GetInterfaceId@ICvPlayer3@@SG?AU_GUID@@XZ	; ICvPlayer3::GetInterfaceId
; Function compile flags: /Ogtpy
;	COMDAT ?GetInterfaceId@ICvPlayer3@@SG?AU_GUID@@XZ
_TEXT	SEGMENT
$T221408 = 8						; size = 4
?GetInterfaceId@ICvPlayer3@@SG?AU_GUID@@XZ PROC		; ICvPlayer3::GetInterfaceId, COMDAT

; 124  : 	static GUID DLLCALL GetInterfaceId() { return guidICvPlayer3; }

	mov	eax, DWORD PTR $T221408[esp-4]
	mov	ecx, DWORD PTR _guidICvPlayer3
	mov	edx, DWORD PTR _guidICvPlayer3+4
	mov	DWORD PTR [eax], ecx
	mov	ecx, DWORD PTR _guidICvPlayer3+8
	mov	DWORD PTR [eax+4], edx
	mov	edx, DWORD PTR _guidICvPlayer3+12
	mov	DWORD PTR [eax+8], ecx
	mov	DWORD PTR [eax+12], edx
	ret	4
?GetInterfaceId@ICvPlayer3@@SG?AU_GUID@@XZ ENDP		; ICvPlayer3::GetInterfaceId
_TEXT	ENDS
PUBLIC	?getDLLIFace@CvGlobals@@QAEPAVICvEngineUtility4@@XZ ; CvGlobals::getDLLIFace
; Function compile flags: /Ogtpy
; File c:\users\enormousapplepie\desktop\lekmod dll versions\v31\lekmod_dll\cvgamecoredll_expansion2\cvglobals.h
;	COMDAT ?getDLLIFace@CvGlobals@@QAEPAVICvEngineUtility4@@XZ
_TEXT	SEGMENT
?getDLLIFace@CvGlobals@@QAEPAVICvEngineUtility4@@XZ PROC ; CvGlobals::getDLLIFace, COMDAT
; _this$ = ecx

; 7703 : 		return m_pDLL;

	mov	eax, DWORD PTR [ecx+8564]

; 7704 : 	}

	ret	0
?getDLLIFace@CvGlobals@@QAEPAVICvEngineUtility4@@XZ ENDP ; CvGlobals::getDLLIFace
_TEXT	ENDS
PUBLIC	?GetEmbarkedGraphicOverride@CvPlayer@@QBEABVCvString@@XZ ; CvPlayer::GetEmbarkedGraphicOverride
; Function compile flags: /Ogtpy
; File c:\users\enormousapplepie\desktop\lekmod dll versions\v31\lekmod_dll\cvgamecoredll_expansion2\cvplayer.h
;	COMDAT ?GetEmbarkedGraphicOverride@CvPlayer@@QBEABVCvString@@XZ
_TEXT	SEGMENT
?GetEmbarkedGraphicOverride@CvPlayer@@QBEABVCvString@@XZ PROC ; CvPlayer::GetEmbarkedGraphicOverride, COMDAT
; _this$ = ecx

; 1669 : 		return m_strEmbarkedGraphicOverride;

	lea	eax, DWORD PTR [ecx+3132]

; 1670 : 	};

	ret	0
?GetEmbarkedGraphicOverride@CvPlayer@@QBEABVCvString@@XZ ENDP ; CvPlayer::GetEmbarkedGraphicOverride
_TEXT	ENDS
PUBLIC	?IsNoAnnexing@CvPlayerTraits@@QBE_NXZ		; CvPlayerTraits::IsNoAnnexing
; Function compile flags: /Ogtpy
; File c:\users\enormousapplepie\desktop\lekmod dll versions\v31\lekmod_dll\cvgamecoredll_expansion2\cvtraitclasses.h
;	COMDAT ?IsNoAnnexing@CvPlayerTraits@@QBE_NXZ
_TEXT	SEGMENT
?IsNoAnnexing@CvPlayerTraits@@QBE_NXZ PROC		; CvPlayerTraits::IsNoAnnexing, COMDAT
; _this$ = ecx

; 804  : 		return m_bNoAnnexing;

	mov	al, BYTE PTR [ecx+343]

; 805  : 	};

	ret	0
?IsNoAnnexing@CvPlayerTraits@@QBE_NXZ ENDP		; CvPlayerTraits::IsNoAnnexing
_TEXT	ENDS
PUBLIC	??A?$vector@W4TeamTypes@@V?$allocator@W4TeamTypes@@@std@@@std@@QBEABW4TeamTypes@@I@Z ; std::vector<enum TeamTypes,std::allocator<enum TeamTypes> >::operator[]
; Function compile flags: /Ogtpy
; File c:\program files (x86)\microsoft visual studio 9.0\vc\include\vector
;	COMDAT ??A?$vector@W4TeamTypes@@V?$allocator@W4TeamTypes@@@std@@@std@@QBEABW4TeamTypes@@I@Z
_TEXT	SEGMENT
__Pos$ = 8						; size = 4
??A?$vector@W4TeamTypes@@V?$allocator@W4TeamTypes@@@std@@@std@@QBEABW4TeamTypes@@I@Z PROC ; std::vector<enum TeamTypes,std::allocator<enum TeamTypes> >::operator[], COMDAT
; _this$ = ecx

; 760  : 
; 761  :  #if _HAS_ITERATOR_DEBUGGING
; 762  : 		if (size() <= _Pos)
; 763  : 			{
; 764  : 			_DEBUG_ERROR("vector subscript out of range");
; 765  : 			_SCL_SECURE_OUT_OF_RANGE;
; 766  : 			}
; 767  :  #endif /* _HAS_ITERATOR_DEBUGGING */
; 768  : 		_SCL_SECURE_VALIDATE_RANGE(_Pos < size());
; 769  : 
; 770  : 		return (*(_Myfirst + _Pos));

	mov	eax, DWORD PTR [ecx+4]
	mov	ecx, DWORD PTR __Pos$[esp-4]
	lea	eax, DWORD PTR [eax+ecx*4]

; 771  : 		}

	ret	4
??A?$vector@W4TeamTypes@@V?$allocator@W4TeamTypes@@@std@@@std@@QBEABW4TeamTypes@@I@Z ENDP ; std::vector<enum TeamTypes,std::allocator<enum TeamTypes> >::operator[]
_TEXT	ENDS
PUBLIC	??B?$FAutoVariable@W4PlayerTypes@@VCvPlayer@@@@QBEABW4PlayerTypes@@XZ ; FAutoVariable<enum PlayerTypes,CvPlayer>::operator enum PlayerTypes const &
; Function compile flags: /Ogtpy
; File c:\users\enormousapplepie\desktop\lekmod dll versions\v31\lekmod_dll\fireplace\include\fireworks\fautovariable.h
;	COMDAT ??B?$FAutoVariable@W4PlayerTypes@@VCvPlayer@@@@QBEABW4PlayerTypes@@XZ
_TEXT	SEGMENT
??B?$FAutoVariable@W4PlayerTypes@@VCvPlayer@@@@QBEABW4PlayerTypes@@XZ PROC ; FAutoVariable<enum PlayerTypes,CvPlayer>::operator enum PlayerTypes const &, COMDAT
; _this$ = ecx

; 194  : 	return m_value;

	lea	eax, DWORD PTR [ecx+4]

; 195  : }

	ret	0
??B?$FAutoVariable@W4PlayerTypes@@VCvPlayer@@@@QBEABW4PlayerTypes@@XZ ENDP ; FAutoVariable<enum PlayerTypes,CvPlayer>::operator enum PlayerTypes const &
_TEXT	ENDS
PUBLIC	??B?$FAutoVariable@_NVCvPlayer@@@@QBEAB_NXZ	; FAutoVariable<bool,CvPlayer>::operator bool const &
; Function compile flags: /Ogtpy
;	COMDAT ??B?$FAutoVariable@_NVCvPlayer@@@@QBEAB_NXZ
_TEXT	SEGMENT
??B?$FAutoVariable@_NVCvPlayer@@@@QBEAB_NXZ PROC	; FAutoVariable<bool,CvPlayer>::operator bool const &, COMDAT
; _this$ = ecx

; 194  : 	return m_value;

	lea	eax, DWORD PTR [ecx+4]

; 195  : }

	ret	0
??B?$FAutoVariable@_NVCvPlayer@@@@QBEAB_NXZ ENDP	; FAutoVariable<bool,CvPlayer>::operator bool const &
_TEXT	ENDS
PUBLIC	??_7ICvPlayer1@@6B@				; ICvPlayer1::`vftable'
PUBLIC	??0ICvPlayer1@@QAE@XZ				; ICvPlayer1::ICvPlayer1
PUBLIC	??_R4ICvPlayer1@@6B@				; ICvPlayer1::`RTTI Complete Object Locator'
PUBLIC	??_R0?AVICvPlayer1@@@8				; ICvPlayer1 `RTTI Type Descriptor'
PUBLIC	??_R3ICvPlayer1@@8				; ICvPlayer1::`RTTI Class Hierarchy Descriptor'
PUBLIC	??_R2ICvPlayer1@@8				; ICvPlayer1::`RTTI Base Class Array'
PUBLIC	??_R1A@?0A@EA@ICvPlayer1@@8			; ICvPlayer1::`RTTI Base Class Descriptor at (0,-1,0,64)'
;	COMDAT ??_R1A@?0A@EA@ICvPlayer1@@8
rdata$r	SEGMENT
??_R1A@?0A@EA@ICvPlayer1@@8 DD FLAT:??_R0?AVICvPlayer1@@@8 ; ICvPlayer1::`RTTI Base Class Descriptor at (0,-1,0,64)'
	DD	01H
	DD	00H
	DD	0ffffffffH
	DD	00H
	DD	040H
	DD	FLAT:??_R3ICvPlayer1@@8
rdata$r	ENDS
;	COMDAT ??_R2ICvPlayer1@@8
rdata$r	SEGMENT
??_R2ICvPlayer1@@8 DD FLAT:??_R1A@?0A@EA@ICvPlayer1@@8	; ICvPlayer1::`RTTI Base Class Array'
	DD	FLAT:??_R1A@?0A@EA@ICvUnknown@@8
rdata$r	ENDS
;	COMDAT ??_R3ICvPlayer1@@8
rdata$r	SEGMENT
??_R3ICvPlayer1@@8 DD 00H				; ICvPlayer1::`RTTI Class Hierarchy Descriptor'
	DD	00H
	DD	02H
	DD	FLAT:??_R2ICvPlayer1@@8
rdata$r	ENDS
;	COMDAT ??_R0?AVICvPlayer1@@@8
_DATA	SEGMENT
??_R0?AVICvPlayer1@@@8 DD FLAT:??_7type_info@@6B@	; ICvPlayer1 `RTTI Type Descriptor'
	DD	00H
	DB	'.?AVICvPlayer1@@', 00H
_DATA	ENDS
;	COMDAT ??_R4ICvPlayer1@@6B@
rdata$r	SEGMENT
??_R4ICvPlayer1@@6B@ DD 00H				; ICvPlayer1::`RTTI Complete Object Locator'
	DD	00H
	DD	00H
	DD	FLAT:??_R0?AVICvPlayer1@@@8
	DD	FLAT:??_R3ICvPlayer1@@8
rdata$r	ENDS
;	COMDAT ??_7ICvPlayer1@@6B@
CONST	SEGMENT
??_7ICvPlayer1@@6B@ DD FLAT:??_R4ICvPlayer1@@6B@	; ICvPlayer1::`vftable'
	DD	FLAT:__purecall
	DD	FLAT:__purecall
	DD	FLAT:__purecall
	DD	FLAT:__purecall
	DD	FLAT:__purecall
	DD	FLAT:__purecall
	DD	FLAT:__purecall
	DD	FLAT:__purecall
	DD	FLAT:__purecall
	DD	FLAT:__purecall
	DD	FLAT:__purecall
	DD	FLAT:__purecall
	DD	FLAT:__purecall
	DD	FLAT:__purecall
	DD	FLAT:__purecall
	DD	FLAT:__purecall
	DD	FLAT:__purecall
	DD	FLAT:__purecall
	DD	FLAT:__purecall
	DD	FLAT:__purecall
	DD	FLAT:__purecall
	DD	FLAT:__purecall
	DD	FLAT:__purecall
	DD	FLAT:__purecall
	DD	FLAT:__purecall
	DD	FLAT:__purecall
	DD	FLAT:__purecall
	DD	FLAT:__purecall
	DD	FLAT:__purecall
	DD	FLAT:__purecall
	DD	FLAT:__purecall
	DD	FLAT:__purecall
	DD	FLAT:__purecall
	DD	FLAT:__purecall
	DD	FLAT:__purecall
	DD	FLAT:__purecall
	DD	FLAT:__purecall
	DD	FLAT:__purecall
	DD	FLAT:__purecall
	DD	FLAT:__purecall
	DD	FLAT:__purecall
	DD	FLAT:__purecall
	DD	FLAT:__purecall
	DD	FLAT:__purecall
	DD	FLAT:__purecall
	DD	FLAT:__purecall
	DD	FLAT:__purecall
	DD	FLAT:__purecall
	DD	FLAT:__purecall
	DD	FLAT:__purecall
	DD	FLAT:__purecall
	DD	FLAT:__purecall
	DD	FLAT:__purecall
	DD	FLAT:__purecall
	DD	FLAT:__purecall
	DD	FLAT:__purecall
	DD	FLAT:__purecall
	DD	FLAT:__purecall
	DD	FLAT:__purecall
	DD	FLAT:__purecall
	DD	FLAT:__purecall
	DD	FLAT:__purecall
	DD	FLAT:__purecall
	DD	FLAT:__purecall
; Function compile flags: /Ogtpy
CONST	ENDS
;	COMDAT ??0ICvPlayer1@@QAE@XZ
_TEXT	SEGMENT
??0ICvPlayer1@@QAE@XZ PROC				; ICvPlayer1::ICvPlayer1, COMDAT
; _this$ = ecx
	mov	eax, ecx
	mov	DWORD PTR [eax], OFFSET ??_7ICvPlayer1@@6B@
	ret	0
??0ICvPlayer1@@QAE@XZ ENDP				; ICvPlayer1::ICvPlayer1
_TEXT	ENDS
PUBLIC	??_7CvDllPlayer@@6B@				; CvDllPlayer::`vftable'
PUBLIC	??1CvDllPlayer@@QAE@XZ				; CvDllPlayer::~CvDllPlayer
PUBLIC	??_R4CvDllPlayer@@6B@				; CvDllPlayer::`RTTI Complete Object Locator'
PUBLIC	??_R0?AVCvDllPlayer@@@8				; CvDllPlayer `RTTI Type Descriptor'
PUBLIC	??_R3CvDllPlayer@@8				; CvDllPlayer::`RTTI Class Hierarchy Descriptor'
PUBLIC	??_R2CvDllPlayer@@8				; CvDllPlayer::`RTTI Base Class Array'
PUBLIC	??_R1A@?0A@EA@CvDllPlayer@@8			; CvDllPlayer::`RTTI Base Class Descriptor at (0,-1,0,64)'
PUBLIC	??_R1A@?0A@EA@ICvPlayer3@@8			; ICvPlayer3::`RTTI Base Class Descriptor at (0,-1,0,64)'
PUBLIC	??_R0?AVICvPlayer3@@@8				; ICvPlayer3 `RTTI Type Descriptor'
PUBLIC	??_R3ICvPlayer3@@8				; ICvPlayer3::`RTTI Class Hierarchy Descriptor'
PUBLIC	??_R2ICvPlayer3@@8				; ICvPlayer3::`RTTI Base Class Array'
PUBLIC	??_R1A@?0A@EA@ICvPlayer2@@8			; ICvPlayer2::`RTTI Base Class Descriptor at (0,-1,0,64)'
PUBLIC	??_R0?AVICvPlayer2@@@8				; ICvPlayer2 `RTTI Type Descriptor'
PUBLIC	??_R3ICvPlayer2@@8				; ICvPlayer2::`RTTI Class Hierarchy Descriptor'
PUBLIC	??_R2ICvPlayer2@@8				; ICvPlayer2::`RTTI Base Class Array'
PUBLIC	?QueryInterface@CvDllPlayer@@UAGPAXU_GUID@@@Z	; CvDllPlayer::QueryInterface
PUBLIC	?Destroy@CvDllPlayer@@EAGXXZ			; CvDllPlayer::Destroy
PUBLIC	?IsAlive@CvDllPlayer@@UBG_NXZ			; CvDllPlayer::IsAlive
PUBLIC	?IsEverAlive@CvDllPlayer@@UBG_NXZ		; CvDllPlayer::IsEverAlive
PUBLIC	?GetID@CvDllPlayer@@UBG?AW4PlayerTypes@@XZ	; CvDllPlayer::GetID
PUBLIC	?GetTeam@CvDllPlayer@@UBG?AW4TeamTypes@@XZ	; CvDllPlayer::GetTeam
PUBLIC	?GetEmbarkedGraphicOverride@CvDllPlayer@@UAGPBDXZ ; CvDllPlayer::GetEmbarkedGraphicOverride
PUBLIC	?MayNotAnnex@CvDllPlayer@@UAG_NXZ		; CvDllPlayer::MayNotAnnex
EXTRN	?gGlobals@@3VCvGlobals@@A:BYTE			; gGlobals
;	COMDAT ??_R2ICvPlayer2@@8
; File c:\users\enormousapplepie\desktop\lekmod dll versions\v31\lekmod_dll\cvgamecoredll_expansion2\cvglobals.h
rdata$r	SEGMENT
??_R2ICvPlayer2@@8 DD FLAT:??_R1A@?0A@EA@ICvPlayer2@@8	; ICvPlayer2::`RTTI Base Class Array'
	DD	FLAT:??_R1A@?0A@EA@ICvPlayer1@@8
	DD	FLAT:??_R1A@?0A@EA@ICvUnknown@@8
rdata$r	ENDS
;	COMDAT ??_R3ICvPlayer2@@8
rdata$r	SEGMENT
??_R3ICvPlayer2@@8 DD 00H				; ICvPlayer2::`RTTI Class Hierarchy Descriptor'
	DD	00H
	DD	03H
	DD	FLAT:??_R2ICvPlayer2@@8
rdata$r	ENDS
;	COMDAT ??_R0?AVICvPlayer2@@@8
_DATA	SEGMENT
??_R0?AVICvPlayer2@@@8 DD FLAT:??_7type_info@@6B@	; ICvPlayer2 `RTTI Type Descriptor'
	DD	00H
	DB	'.?AVICvPlayer2@@', 00H
_DATA	ENDS
;	COMDAT ??_R1A@?0A@EA@ICvPlayer2@@8
rdata$r	SEGMENT
??_R1A@?0A@EA@ICvPlayer2@@8 DD FLAT:??_R0?AVICvPlayer2@@@8 ; ICvPlayer2::`RTTI Base Class Descriptor at (0,-1,0,64)'
	DD	02H
	DD	00H
	DD	0ffffffffH
	DD	00H
	DD	040H
	DD	FLAT:??_R3ICvPlayer2@@8
rdata$r	ENDS
;	COMDAT ??_R2ICvPlayer3@@8
rdata$r	SEGMENT
??_R2ICvPlayer3@@8 DD FLAT:??_R1A@?0A@EA@ICvPlayer3@@8	; ICvPlayer3::`RTTI Base Class Array'
	DD	FLAT:??_R1A@?0A@EA@ICvPlayer2@@8
	DD	FLAT:??_R1A@?0A@EA@ICvPlayer1@@8
	DD	FLAT:??_R1A@?0A@EA@ICvUnknown@@8
rdata$r	ENDS
;	COMDAT ??_R3ICvPlayer3@@8
rdata$r	SEGMENT
??_R3ICvPlayer3@@8 DD 00H				; ICvPlayer3::`RTTI Class Hierarchy Descriptor'
	DD	00H
	DD	04H
	DD	FLAT:??_R2ICvPlayer3@@8
rdata$r	ENDS
;	COMDAT ??_R0?AVICvPlayer3@@@8
_DATA	SEGMENT
??_R0?AVICvPlayer3@@@8 DD FLAT:??_7type_info@@6B@	; ICvPlayer3 `RTTI Type Descriptor'
	DD	00H
	DB	'.?AVICvPlayer3@@', 00H
_DATA	ENDS
;	COMDAT ??_R1A@?0A@EA@ICvPlayer3@@8
rdata$r	SEGMENT
??_R1A@?0A@EA@ICvPlayer3@@8 DD FLAT:??_R0?AVICvPlayer3@@@8 ; ICvPlayer3::`RTTI Base Class Descriptor at (0,-1,0,64)'
	DD	03H
	DD	00H
	DD	0ffffffffH
	DD	00H
	DD	040H
	DD	FLAT:??_R3ICvPlayer3@@8
rdata$r	ENDS
;	COMDAT ??_R1A@?0A@EA@CvDllPlayer@@8
rdata$r	SEGMENT
??_R1A@?0A@EA@CvDllPlayer@@8 DD FLAT:??_R0?AVCvDllPlayer@@@8 ; CvDllPlayer::`RTTI Base Class Descriptor at (0,-1,0,64)'
	DD	04H
	DD	00H
	DD	0ffffffffH
	DD	00H
	DD	040H
	DD	FLAT:??_R3CvDllPlayer@@8
rdata$r	ENDS
;	COMDAT ??_R2CvDllPlayer@@8
rdata$r	SEGMENT
??_R2CvDllPlayer@@8 DD FLAT:??_R1A@?0A@EA@CvDllPlayer@@8 ; CvDllPlayer::`RTTI Base Class Array'
	DD	FLAT:??_R1A@?0A@EA@ICvPlayer3@@8
	DD	FLAT:??_R1A@?0A@EA@ICvPlayer2@@8
	DD	FLAT:??_R1A@?0A@EA@ICvPlayer1@@8
	DD	FLAT:??_R1A@?0A@EA@ICvUnknown@@8
rdata$r	ENDS
;	COMDAT ??_R3CvDllPlayer@@8
rdata$r	SEGMENT
??_R3CvDllPlayer@@8 DD 00H				; CvDllPlayer::`RTTI Class Hierarchy Descriptor'
	DD	00H
	DD	05H
	DD	FLAT:??_R2CvDllPlayer@@8
rdata$r	ENDS
;	COMDAT ??_R0?AVCvDllPlayer@@@8
_DATA	SEGMENT
??_R0?AVCvDllPlayer@@@8 DD FLAT:??_7type_info@@6B@	; CvDllPlayer `RTTI Type Descriptor'
	DD	00H
	DB	'.?AVCvDllPlayer@@', 00H
_DATA	ENDS
;	COMDAT ??_R4CvDllPlayer@@6B@
rdata$r	SEGMENT
??_R4CvDllPlayer@@6B@ DD 00H				; CvDllPlayer::`RTTI Complete Object Locator'
	DD	00H
	DD	00H
	DD	FLAT:??_R0?AVCvDllPlayer@@@8
	DD	FLAT:??_R3CvDllPlayer@@8
rdata$r	ENDS
;	COMDAT ??_7CvDllPlayer@@6B@
CONST	SEGMENT
??_7CvDllPlayer@@6B@ DD FLAT:??_R4CvDllPlayer@@6B@	; CvDllPlayer::`vftable'
	DD	FLAT:?QueryInterface@CvDllPlayer@@UAGPAXU_GUID@@@Z
	DD	FLAT:?Destroy@CvDllPlayer@@EAGXXZ
	DD	FLAT:?Init@CvDllPlayer@@UAGXW4PlayerTypes@@@Z
	DD	FLAT:?SetupGraphical@CvDllPlayer@@UAGXXZ
	DD	FLAT:?LaterInit@CvDllPlayer@@UAGXXZ
	DD	FLAT:?Uninit@CvDllPlayer@@UAGXXZ
	DD	FLAT:?IsHuman@CvDllPlayer@@UBG_NXZ
	DD	FLAT:?IsBarbarian@CvDllPlayer@@UBG_NXZ
	DD	FLAT:?GetName@CvDllPlayer@@UBGPBDXZ
	DD	FLAT:?GetNickName@CvDllPlayer@@UBGQBDXZ
	DD	FLAT:?GetArtStyleType@CvDllPlayer@@UBG?AW4ArtStyleTypes@@XZ
	DD	FLAT:?GetFirstReadyUnit@CvDllPlayer@@UAGPAVICvUnit1@@XZ
	DD	FLAT:?HasBusyUnit@CvDllPlayer@@UBG_NXZ
	DD	FLAT:?HasBusyUnitOrCity@CvDllPlayer@@UBG_NXZ
	DD	FLAT:?GetScore@CvDllPlayer@@UBGH_N0@Z
	DD	FLAT:?GetStartingPlot@CvDllPlayer@@UBGPAVICvPlot1@@XZ
	DD	FLAT:?GetCapitalCity@CvDllPlayer@@UAGPAVICvCity1@@XZ
	DD	FLAT:?IsHasLostCapital@CvDllPlayer@@UBG_NXZ
	DD	FLAT:?SetStartTime@CvDllPlayer@@UAGXI@Z
	DD	FLAT:?IsMinorCiv@CvDllPlayer@@UBG_NXZ
	DD	FLAT:?IsAlive@CvDllPlayer@@UBG_NXZ
	DD	FLAT:?IsEverAlive@CvDllPlayer@@UBG_NXZ
	DD	FLAT:?IsTurnActive@CvDllPlayer@@UBG_NXZ
	DD	FLAT:?SetTurnActive@CvDllPlayer@@UAGX_N0@Z
	DD	FLAT:?GetID@CvDllPlayer@@UBG?AW4PlayerTypes@@XZ
	DD	FLAT:?GetHandicapType@CvDllPlayer@@UBG?AW4HandicapTypes@@XZ
	DD	FLAT:?GetCivilizationType@CvDllPlayer@@UBG?AW4CivilizationTypes@@XZ
	DD	FLAT:?GetLeaderType@CvDllPlayer@@UBG?AW4LeaderHeadTypes@@XZ
	DD	FLAT:?GetLeaderTypeKey@CvDllPlayer@@UBGPBDXZ
	DD	FLAT:?GetCurrentEra@CvDllPlayer@@UBG?AW4EraTypes@@XZ
	DD	FLAT:?GetTeam@CvDllPlayer@@UBG?AW4TeamTypes@@XZ
	DD	FLAT:?GetPlayerColor@CvDllPlayer@@UBG?AW4PlayerColorTypes@@XZ
	DD	FLAT:?IsOption@CvDllPlayer@@UBG_NW4PlayerOptionTypes@@@Z
	DD	FLAT:?FirstCity@CvDllPlayer@@UAGPAVICvCity1@@PAH_N@Z
	DD	FLAT:?NextCity@CvDllPlayer@@UAGPAVICvCity1@@PAH_N@Z
	DD	FLAT:?GetNumCities@CvDllPlayer@@UBGHXZ
	DD	FLAT:?GetCity@CvDllPlayer@@UAGPAVICvCity1@@H@Z
	DD	FLAT:?FirstUnit@CvDllPlayer@@UAGPAVICvUnit1@@PAH_N@Z
	DD	FLAT:?NextUnit@CvDllPlayer@@UAGPAVICvUnit1@@PAH_N@Z
	DD	FLAT:?GetUnit@CvDllPlayer@@UAGPAVICvUnit1@@H@Z
	DD	FLAT:?GetPlotDanger@CvDllPlayer@@UBGHPAVICvPlot1@@@Z
	DD	FLAT:?GetCityDistanceHighwaterMark@CvDllPlayer@@UBGHXZ
	DD	FLAT:?Disconnected@CvDllPlayer@@UAGXXZ
	DD	FLAT:?Reconnected@CvDllPlayer@@UAGXXZ
	DD	FLAT:?SetBusyUnitUpdatesRemaining@CvDllPlayer@@UAGXH@Z
	DD	FLAT:?HasUnitsThatNeedAIUpdate@CvDllPlayer@@UBG_NXZ
	DD	FLAT:?GetNumPolicyBranchesFinished@CvDllPlayer@@UBGHXZ
	DD	FLAT:?Read@CvDllPlayer@@UAGXAAVFDataStream@@@Z
	DD	FLAT:?Write@CvDllPlayer@@UBGXAAVFDataStream@@@Z
	DD	FLAT:?GetGold@CvDllPlayer@@UBGHXZ
	DD	FLAT:?CalculateBaseNetGold@CvDllPlayer@@UAGHXZ
	DD	FLAT:?GetEmbarkedGraphicOverride@CvDllPlayer@@UAGPBDXZ
	DD	FLAT:?GetSyncArchive@CvDllPlayer@@UAGAAVFAutoArchive@@XZ
	DD	FLAT:?GetMinorCivType@CvDllPlayer@@UBG?AW4MinorCivTypes@@XZ
	DD	FLAT:?GetDiplomacyAI@CvDllPlayer@@UAGPAVICvDiplomacyAI1@@XZ
	DD	FLAT:?GetDealAI@CvDllPlayer@@UAGPAVICvDealAI1@@XZ
	DD	FLAT:?AddDiplomacyRequest@CvDllPlayer@@UAG_NW4PlayerTypes@@W4DiploUIStateTypes@@PBDW4LeaderheadAnimationTypes@@H@Z
	DD	FLAT:?ActiveDiplomacyRequestComplete@CvDllPlayer@@UAGXXZ
	DD	FLAT:?AddNotification@CvDllPlayer@@UAGHW4NotificationTypes@@PBD1HHHH@Z
	DD	FLAT:?ActivateNotification@CvDllPlayer@@UAGXH@Z
	DD	FLAT:?DismissNotification@CvDllPlayer@@UAGXH_N@Z
	DD	FLAT:?MayUserDismissNotification@CvDllPlayer@@UAG_NH@Z
	DD	FLAT:?RebroadcastNotifications@CvDllPlayer@@UAGXXZ
	DD	FLAT:?GetCurrentResearchTech@CvDllPlayer@@UBG_NPAW4TechTypes@@PAH@Z
	DD	FLAT:?IsSimultaneousTurns@CvDllPlayer@@UBG_NXZ
	DD	FLAT:?HasTurnTimerExpired@CvDllPlayer@@UAG_NXZ
	DD	FLAT:?IsOptionKey@CvDllPlayer@@UBG_NW4PlayerOptionTypes@@@Z
	DD	FLAT:?MayNotAnnex@CvDllPlayer@@UAG_NXZ
; Function compile flags: /Ogtpy
; File c:\users\enormousapplepie\desktop\lekmod dll versions\v31\lekmod_dll\cvgamecoredll_expansion2\cvdllplayer.cpp
CONST	ENDS
;	COMDAT ??1CvDllPlayer@@QAE@XZ
_TEXT	SEGMENT
??1CvDllPlayer@@QAE@XZ PROC				; CvDllPlayer::~CvDllPlayer, COMDAT
; _this$ = ecx

; 34   : {

	mov	DWORD PTR [ecx], OFFSET ??_7CvDllPlayer@@6B@

; 35   : 	if(gDLL)

	mov	ecx, DWORD PTR ?gGlobals@@3VCvGlobals@@A+8564
	test	ecx, ecx
	je	SHORT $LN1@CvDllPlaye

; 36   : 		gDLL->ReleaseGameCoreLock();

	mov	eax, DWORD PTR [ecx]
	mov	edx, DWORD PTR [eax+916]
	jmp	edx
$LN1@CvDllPlaye:

; 37   : }

	ret	0
??1CvDllPlayer@@QAE@XZ ENDP				; CvDllPlayer::~CvDllPlayer
; Function compile flags: /Ogtpy
_TEXT	ENDS
;	COMDAT ?QueryInterface@CvDllPlayer@@UAGPAXU_GUID@@@Z
_TEXT	SEGMENT
$T221453 = -16						; size = 16
$T221451 = -16						; size = 16
$T221449 = -16						; size = 16
$T221447 = -16						; size = 16
_this$ = 8						; size = 4
_guidInterface$ = 12					; size = 16
?QueryInterface@CvDllPlayer@@UAGPAXU_GUID@@@Z PROC	; CvDllPlayer::QueryInterface, COMDAT

; 40   : {

	sub	esp, 16					; 00000010H

; 41   : 	if(	guidInterface == ICvUnknown::GetInterfaceId() ||
; 42   : 		guidInterface == ICvPlayer1::GetInterfaceId() ||
; 43   : 		guidInterface == ICvPlayer2::GetInterfaceId() ||
; 44   : 		guidInterface == ICvPlayer3::GetInterfaceId())

	mov	ecx, DWORD PTR _guidICvUnknown+4
	mov	edx, DWORD PTR _guidICvUnknown+8
	mov	eax, DWORD PTR _guidICvUnknown
	mov	DWORD PTR $T221447[esp+20], ecx
	lea	ecx, DWORD PTR $T221447[esp+16]
	mov	DWORD PTR $T221447[esp+24], edx
	mov	DWORD PTR $T221447[esp+16], eax
	mov	eax, DWORD PTR _guidICvUnknown+12
	push	ecx
	lea	edx, DWORD PTR _guidInterface$[esp+16]
	push	edx
	mov	DWORD PTR $T221447[esp+36], eax
	call	_IsEqualGUID
	add	esp, 8
	test	eax, eax
	jne	$LN1@QueryInter
	mov	ecx, DWORD PTR _guidICvPlayer1+4
	mov	edx, DWORD PTR _guidICvPlayer1+8
	mov	eax, DWORD PTR _guidICvPlayer1
	mov	DWORD PTR $T221449[esp+20], ecx
	lea	ecx, DWORD PTR $T221449[esp+16]
	mov	DWORD PTR $T221449[esp+24], edx
	mov	DWORD PTR $T221449[esp+16], eax
	mov	eax, DWORD PTR _guidICvPlayer1+12
	push	ecx
	lea	edx, DWORD PTR _guidInterface$[esp+16]
	push	edx
	mov	DWORD PTR $T221449[esp+36], eax
	call	_IsEqualGUID
	add	esp, 8
	test	eax, eax
	jne	SHORT $LN1@QueryInter
	mov	ecx, DWORD PTR _guidICvPlayer2+4
	mov	edx, DWORD PTR _guidICvPlayer2+8
	mov	eax, DWORD PTR _guidICvPlayer2
	mov	DWORD PTR $T221451[esp+20], ecx
	lea	ecx, DWORD PTR $T221451[esp+16]
	mov	DWORD PTR $T221451[esp+24], edx
	mov	DWORD PTR $T221451[esp+16], eax
	mov	eax, DWORD PTR _guidICvPlayer2+12
	push	ecx
	lea	edx, DWORD PTR _guidInterface$[esp+16]
	push	edx
	mov	DWORD PTR $T221451[esp+36], eax
	call	_IsEqualGUID
	add	esp, 8
	test	eax, eax
	jne	SHORT $LN1@QueryInter
	mov	ecx, DWORD PTR _guidICvPlayer3+4
	mov	edx, DWORD PTR _guidICvPlayer3+8
	mov	eax, DWORD PTR _guidICvPlayer3
	mov	DWORD PTR $T221453[esp+20], ecx
	lea	ecx, DWORD PTR $T221453[esp+16]
	mov	DWORD PTR $T221453[esp+24], edx
	mov	DWORD PTR $T221453[esp+16], eax
	mov	eax, DWORD PTR _guidICvPlayer3+12
	push	ecx
	lea	edx, DWORD PTR _guidInterface$[esp+16]
	push	edx
	mov	DWORD PTR $T221453[esp+36], eax
	call	_IsEqualGUID
	add	esp, 8
	test	eax, eax
	jne	SHORT $LN1@QueryInter

; 47   : 		return this;
; 48   : 	}
; 49   : 
; 50   : 	return NULL;
; 51   : }

	add	esp, 16					; 00000010H
	ret	20					; 00000014H
$LN1@QueryInter:

; 45   : 	{
; 46   : 		IncrementReference();

	mov	eax, DWORD PTR _this$[esp+12]
	inc	DWORD PTR [eax+4]

; 47   : 		return this;
; 48   : 	}
; 49   : 
; 50   : 	return NULL;
; 51   : }

	add	esp, 16					; 00000010H
	ret	20					; 00000014H
?QueryInterface@CvDllPlayer@@UAGPAXU_GUID@@@Z ENDP	; CvDllPlayer::QueryInterface
_TEXT	ENDS
PUBLIC	??_GCvDllPlayer@@QAEPAXI@Z			; CvDllPlayer::`scalar deleting destructor'
; Function compile flags: /Ogtpy
;	COMDAT ??_GCvDllPlayer@@QAEPAXI@Z
_TEXT	SEGMENT
___flags$ = 8						; size = 4
??_GCvDllPlayer@@QAEPAXI@Z PROC				; CvDllPlayer::`scalar deleting destructor', COMDAT
; _this$ = ecx
	push	esi
	mov	esi, ecx
	mov	DWORD PTR [esi], OFFSET ??_7CvDllPlayer@@6B@
	mov	ecx, DWORD PTR ?gGlobals@@3VCvGlobals@@A+8564
	test	ecx, ecx
	je	SHORT $LN4@scalar
	mov	eax, DWORD PTR [ecx]
	mov	edx, DWORD PTR [eax+916]
	call	edx
$LN4@scalar:
	test	BYTE PTR ___flags$[esp], 1
	je	SHORT $LN13@scalar
	push	esi
	call	?Free@CvDllGameContext@@SAXPAX@Z	; CvDllGameContext::Free
	add	esp, 4
$LN13@scalar:
	mov	eax, esi
	pop	esi
	ret	4
??_GCvDllPlayer@@QAEPAXI@Z ENDP				; CvDllPlayer::`scalar deleting destructor'
; Function compile flags: /Ogtpy
_TEXT	ENDS
;	COMDAT ?GetEmbarkedGraphicOverride@CvDllPlayer@@UAGPBDXZ
_TEXT	SEGMENT
_this$ = 8						; size = 4
?GetEmbarkedGraphicOverride@CvDllPlayer@@UAGPBDXZ PROC	; CvDllPlayer::GetEmbarkedGraphicOverride, COMDAT

; 377  : 	return m_pPlayer->GetEmbarkedGraphicOverride();

	mov	eax, DWORD PTR _this$[esp-4]
	mov	ecx, DWORD PTR [eax+8]
	add	ecx, 3132				; 00000c3cH
	call	DWORD PTR __imp_?c_str@?$basic_string@DU?$char_traits@D@std@@V?$allocator@D@2@@std@@QBEPBDXZ

; 378  : }

	ret	4
?GetEmbarkedGraphicOverride@CvDllPlayer@@UAGPBDXZ ENDP	; CvDllPlayer::GetEmbarkedGraphicOverride
_TEXT	ENDS
EXTRN	?GetPlayerTraits@CvPlayer@@QBEPAVCvPlayerTraits@@XZ:PROC ; CvPlayer::GetPlayerTraits
; Function compile flags: /Ogtpy
;	COMDAT ?MayNotAnnex@CvDllPlayer@@UAG_NXZ
_TEXT	SEGMENT
_this$ = 8						; size = 4
?MayNotAnnex@CvDllPlayer@@UAG_NXZ PROC			; CvDllPlayer::MayNotAnnex, COMDAT

; 406  : 	return m_pPlayer->GetPlayerTraits()->IsNoAnnexing();

	mov	eax, DWORD PTR _this$[esp-4]
	mov	ecx, DWORD PTR [eax+8]
	call	?GetPlayerTraits@CvPlayer@@QBEPAVCvPlayerTraits@@XZ ; CvPlayer::GetPlayerTraits
	mov	al, BYTE PTR [eax+343]

; 407  : }

	ret	4
?MayNotAnnex@CvDllPlayer@@UAG_NXZ ENDP			; CvDllPlayer::MayNotAnnex
_TEXT	ENDS
EXTRN	?sr_TeamTypes@CvPreGame@@3ABV?$vector@W4TeamTypes@@V?$allocator@W4TeamTypes@@@std@@@std@@B:DWORD ; CvPreGame::sr_TeamTypes
; Function compile flags: /Ogtpy
; File c:\users\enormousapplepie\desktop\lekmod dll versions\v31\lekmod_dll\cvgamecoredll_expansion2\cvpregame.h
;	COMDAT ?teamType@CvPreGame@@YA?AW4TeamTypes@@W4PlayerTypes@@@Z
_TEXT	SEGMENT
?teamType@CvPreGame@@YA?AW4TeamTypes@@W4PlayerTypes@@@Z PROC ; CvPreGame::teamType, COMDAT
; _p$ = eax

; 299  : 	if(p >= 0 && p < MAX_PLAYERS)

	cmp	eax, 63					; 0000003fH
	ja	SHORT $LN1@teamType

; 300  : 		return sr_TeamTypes[p];

	mov	ecx, DWORD PTR ?sr_TeamTypes@CvPreGame@@3ABV?$vector@W4TeamTypes@@V?$allocator@W4TeamTypes@@@std@@@std@@B ; CvPreGame::sr_TeamTypes
	mov	edx, DWORD PTR [ecx+4]
	mov	eax, DWORD PTR [edx+eax*4]

; 302  : }

	ret	0
$LN1@teamType:

; 301  : 	return NO_TEAM;

	or	eax, -1

; 302  : }

	ret	0
?teamType@CvPreGame@@YA?AW4TeamTypes@@W4PlayerTypes@@@Z ENDP ; CvPreGame::teamType
_TEXT	ENDS
PUBLIC	?isAlive@CvPlayer@@QBE_NXZ			; CvPlayer::isAlive
; Function compile flags: /Ogtpy
; File c:\users\enormousapplepie\desktop\lekmod dll versions\v31\lekmod_dll\cvgamecoredll_expansion2\cvplayer.h
;	COMDAT ?isAlive@CvPlayer@@QBE_NXZ
_TEXT	SEGMENT
?isAlive@CvPlayer@@QBE_NXZ PROC				; CvPlayer::isAlive, COMDAT
; _this$ = ecx

; 1092 : 		return m_bAlive;

	mov	al, BYTE PTR [ecx+2256]

; 1093 : 	}

	ret	0
?isAlive@CvPlayer@@QBE_NXZ ENDP				; CvPlayer::isAlive
_TEXT	ENDS
PUBLIC	?isEverAlive@CvPlayer@@QBE_NXZ			; CvPlayer::isEverAlive
; Function compile flags: /Ogtpy
;	COMDAT ?isEverAlive@CvPlayer@@QBE_NXZ
_TEXT	SEGMENT
?isEverAlive@CvPlayer@@QBE_NXZ PROC			; CvPlayer::isEverAlive, COMDAT
; _this$ = ecx

; 1097 : 		return m_bEverAlive;

	mov	al, BYTE PTR [ecx+2268]

; 1098 : 	}

	ret	0
?isEverAlive@CvPlayer@@QBE_NXZ ENDP			; CvPlayer::isEverAlive
_TEXT	ENDS
PUBLIC	?GetID@CvPlayer@@QBE?AW4PlayerTypes@@XZ		; CvPlayer::GetID
; Function compile flags: /Ogtpy
;	COMDAT ?GetID@CvPlayer@@QBE?AW4PlayerTypes@@XZ
_TEXT	SEGMENT
?GetID@CvPlayer@@QBE?AW4PlayerTypes@@XZ PROC		; CvPlayer::GetID, COMDAT
; _this$ = ecx

; 1168 : 		return m_eID;

	mov	eax, DWORD PTR [ecx+44]

; 1169 : 	}

	ret	0
?GetID@CvPlayer@@QBE?AW4PlayerTypes@@XZ ENDP		; CvPlayer::GetID
_TEXT	ENDS
PUBLIC	?getTeam@CvPlayer@@QBE?AW4TeamTypes@@XZ		; CvPlayer::getTeam
; Function compile flags: /Ogtpy
;	COMDAT ?getTeam@CvPlayer@@QBE?AW4TeamTypes@@XZ
_TEXT	SEGMENT
?getTeam@CvPlayer@@QBE?AW4TeamTypes@@XZ PROC		; CvPlayer::getTeam, COMDAT
; _this$ = ecx

; 1178 : 		return CvPreGame::teamType(m_eID);

	mov	eax, DWORD PTR [ecx+44]
	cmp	eax, 63					; 0000003fH
	ja	SHORT $LN5@getTeam
	mov	ecx, DWORD PTR ?sr_TeamTypes@CvPreGame@@3ABV?$vector@W4TeamTypes@@V?$allocator@W4TeamTypes@@@std@@@std@@B ; CvPreGame::sr_TeamTypes
	mov	edx, DWORD PTR [ecx+4]
	mov	eax, DWORD PTR [edx+eax*4]

; 1179 : 	}

	ret	0

; 1178 : 		return CvPreGame::teamType(m_eID);

$LN5@getTeam:
	or	eax, -1

; 1179 : 	}

	ret	0
?getTeam@CvPlayer@@QBE?AW4TeamTypes@@XZ ENDP		; CvPlayer::getTeam
_TEXT	ENDS
PUBLIC	??_7ICvPlayer2@@6B@				; ICvPlayer2::`vftable'
PUBLIC	??0ICvPlayer2@@QAE@XZ				; ICvPlayer2::ICvPlayer2
PUBLIC	??_R4ICvPlayer2@@6B@				; ICvPlayer2::`RTTI Complete Object Locator'
;	COMDAT ??_R4ICvPlayer2@@6B@
rdata$r	SEGMENT
??_R4ICvPlayer2@@6B@ DD 00H				; ICvPlayer2::`RTTI Complete Object Locator'
	DD	00H
	DD	00H
	DD	FLAT:??_R0?AVICvPlayer2@@@8
	DD	FLAT:??_R3ICvPlayer2@@8
rdata$r	ENDS
;	COMDAT ??_7ICvPlayer2@@6B@
CONST	SEGMENT
??_7ICvPlayer2@@6B@ DD FLAT:??_R4ICvPlayer2@@6B@	; ICvPlayer2::`vftable'
	DD	FLAT:__purecall
	DD	FLAT:__purecall
	DD	FLAT:__purecall
	DD	FLAT:__purecall
	DD	FLAT:__purecall
	DD	FLAT:__purecall
	DD	FLAT:__purecall
	DD	FLAT:__purecall
	DD	FLAT:__purecall
	DD	FLAT:__purecall
	DD	FLAT:__purecall
	DD	FLAT:__purecall
	DD	FLAT:__purecall
	DD	FLAT:__purecall
	DD	FLAT:__purecall
	DD	FLAT:__purecall
	DD	FLAT:__purecall
	DD	FLAT:__purecall
	DD	FLAT:__purecall
	DD	FLAT:__purecall
	DD	FLAT:__purecall
	DD	FLAT:__purecall
	DD	FLAT:__purecall
	DD	FLAT:__purecall
	DD	FLAT:__purecall
	DD	FLAT:__purecall
	DD	FLAT:__purecall
	DD	FLAT:__purecall
	DD	FLAT:__purecall
	DD	FLAT:__purecall
	DD	FLAT:__purecall
	DD	FLAT:__purecall
	DD	FLAT:__purecall
	DD	FLAT:__purecall
	DD	FLAT:__purecall
	DD	FLAT:__purecall
	DD	FLAT:__purecall
	DD	FLAT:__purecall
	DD	FLAT:__purecall
	DD	FLAT:__purecall
	DD	FLAT:__purecall
	DD	FLAT:__purecall
	DD	FLAT:__purecall
	DD	FLAT:__purecall
	DD	FLAT:__purecall
	DD	FLAT:__purecall
	DD	FLAT:__purecall
	DD	FLAT:__purecall
	DD	FLAT:__purecall
	DD	FLAT:__purecall
	DD	FLAT:__purecall
	DD	FLAT:__purecall
	DD	FLAT:__purecall
	DD	FLAT:__purecall
	DD	FLAT:__purecall
	DD	FLAT:__purecall
	DD	FLAT:__purecall
	DD	FLAT:__purecall
	DD	FLAT:__purecall
	DD	FLAT:__purecall
	DD	FLAT:__purecall
	DD	FLAT:__purecall
	DD	FLAT:__purecall
	DD	FLAT:__purecall
	DD	FLAT:__purecall
	DD	FLAT:__purecall
	DD	FLAT:__purecall
; Function compile flags: /Ogtpy
CONST	ENDS
;	COMDAT ??0ICvPlayer2@@QAE@XZ
_TEXT	SEGMENT
??0ICvPlayer2@@QAE@XZ PROC				; ICvPlayer2::ICvPlayer2, COMDAT
; _this$ = ecx
	mov	eax, ecx
	mov	DWORD PTR [eax], OFFSET ??_7ICvPlayer2@@6B@
	ret	0
??0ICvPlayer2@@QAE@XZ ENDP				; ICvPlayer2::ICvPlayer2
_TEXT	ENDS
PUBLIC	?DecrementReference@CvDllPlayer@@QAEIXZ		; CvDllPlayer::DecrementReference
; Function compile flags: /Ogtpy
; File c:\users\enormousapplepie\desktop\lekmod dll versions\v31\lekmod_dll\cvgamecoredll_expansion2\cvdllplayer.cpp
;	COMDAT ?DecrementReference@CvDllPlayer@@QAEIXZ
_TEXT	SEGMENT
?DecrementReference@CvDllPlayer@@QAEIXZ PROC		; CvDllPlayer::DecrementReference, COMDAT
; _this$ = ecx

; 60   : {

	push	esi
	mov	esi, ecx

; 61   : 	if(m_uiRefCount == 1)

	mov	eax, DWORD PTR [esi+4]
	cmp	eax, 1
	jne	SHORT $LN2@DecrementR

; 62   : 	{
; 63   : 		delete this;

	mov	DWORD PTR [esi], OFFSET ??_7CvDllPlayer@@6B@
	mov	ecx, DWORD PTR ?gGlobals@@3VCvGlobals@@A+8564
	test	ecx, ecx
	je	SHORT $LN10@DecrementR
	mov	eax, DWORD PTR [ecx]
	mov	edx, DWORD PTR [eax+916]
	call	edx
$LN10@DecrementR:
	push	esi
	call	?Free@CvDllGameContext@@SAXPAX@Z	; CvDllGameContext::Free
	add	esp, 4

; 64   : 		return 0;

	xor	eax, eax
	pop	esi

; 69   : 		return m_uiRefCount;
; 70   : 	}
; 71   : }

	ret	0
$LN2@DecrementR:

; 65   : 	}
; 66   : 	else
; 67   : 	{
; 68   : 		--m_uiRefCount;

	dec	eax
	mov	DWORD PTR [esi+4], eax
	pop	esi

; 69   : 		return m_uiRefCount;
; 70   : 	}
; 71   : }

	ret	0
?DecrementReference@CvDllPlayer@@QAEIXZ ENDP		; CvDllPlayer::DecrementReference
; Function compile flags: /Ogtpy
_TEXT	ENDS
;	COMDAT ?Destroy@CvDllPlayer@@EAGXXZ
_TEXT	SEGMENT
_this$ = 8						; size = 4
?Destroy@CvDllPlayer@@EAGXXZ PROC			; CvDllPlayer::Destroy, COMDAT

; 79   : {

	push	esi

; 80   : 	DecrementReference();

	mov	esi, DWORD PTR _this$[esp]
	mov	eax, DWORD PTR [esi+4]
	cmp	eax, 1
	jne	SHORT $LN4@Destroy
	mov	DWORD PTR [esi], OFFSET ??_7CvDllPlayer@@6B@
	mov	ecx, DWORD PTR ?gGlobals@@3VCvGlobals@@A+8564
	test	ecx, ecx
	je	SHORT $LN12@Destroy
	mov	eax, DWORD PTR [ecx]
	mov	edx, DWORD PTR [eax+916]
	call	edx
$LN12@Destroy:
	push	esi
	call	?Free@CvDllGameContext@@SAXPAX@Z	; CvDllGameContext::Free
	add	esp, 4
	pop	esi

; 81   : }

	ret	4

; 80   : 	DecrementReference();

$LN4@Destroy:
	dec	eax
	mov	DWORD PTR [esi+4], eax
	pop	esi

; 81   : }

	ret	4
?Destroy@CvDllPlayer@@EAGXXZ ENDP			; CvDllPlayer::Destroy
; Function compile flags: /Ogtpy
_TEXT	ENDS
;	COMDAT ?IsAlive@CvDllPlayer@@UBG_NXZ
_TEXT	SEGMENT
_this$ = 8						; size = 4
?IsAlive@CvDllPlayer@@UBG_NXZ PROC			; CvDllPlayer::IsAlive, COMDAT

; 194  : 	return m_pPlayer->isAlive();

	mov	eax, DWORD PTR _this$[esp-4]
	mov	ecx, DWORD PTR [eax+8]
	mov	al, BYTE PTR [ecx+2256]

; 195  : }

	ret	4
?IsAlive@CvDllPlayer@@UBG_NXZ ENDP			; CvDllPlayer::IsAlive
; Function compile flags: /Ogtpy
_TEXT	ENDS
;	COMDAT ?IsEverAlive@CvDllPlayer@@UBG_NXZ
_TEXT	SEGMENT
_this$ = 8						; size = 4
?IsEverAlive@CvDllPlayer@@UBG_NXZ PROC			; CvDllPlayer::IsEverAlive, COMDAT

; 199  : 	return m_pPlayer->isEverAlive();

	mov	eax, DWORD PTR _this$[esp-4]
	mov	ecx, DWORD PTR [eax+8]
	mov	al, BYTE PTR [ecx+2268]

; 200  : }

	ret	4
?IsEverAlive@CvDllPlayer@@UBG_NXZ ENDP			; CvDllPlayer::IsEverAlive
; Function compile flags: /Ogtpy
_TEXT	ENDS
;	COMDAT ?GetID@CvDllPlayer@@UBG?AW4PlayerTypes@@XZ
_TEXT	SEGMENT
_this$ = 8						; size = 4
?GetID@CvDllPlayer@@UBG?AW4PlayerTypes@@XZ PROC		; CvDllPlayer::GetID, COMDAT

; 219  : 	return m_pPlayer->GetID();

	mov	eax, DWORD PTR _this$[esp-4]
	mov	ecx, DWORD PTR [eax+8]
	mov	eax, DWORD PTR [ecx+44]

; 220  : }

	ret	4
?GetID@CvDllPlayer@@UBG?AW4PlayerTypes@@XZ ENDP		; CvDllPlayer::GetID
; Function compile flags: /Ogtpy
_TEXT	ENDS
;	COMDAT ?GetTeam@CvDllPlayer@@UBG?AW4TeamTypes@@XZ
_TEXT	SEGMENT
_this$ = 8						; size = 4
?GetTeam@CvDllPlayer@@UBG?AW4TeamTypes@@XZ PROC		; CvDllPlayer::GetTeam, COMDAT

; 249  : 	return m_pPlayer->getTeam();

	mov	eax, DWORD PTR _this$[esp-4]
	mov	ecx, DWORD PTR [eax+8]
	mov	eax, DWORD PTR [ecx+44]
	cmp	eax, 63					; 0000003fH
	ja	SHORT $LN7@GetTeam
	mov	edx, DWORD PTR ?sr_TeamTypes@CvPreGame@@3ABV?$vector@W4TeamTypes@@V?$allocator@W4TeamTypes@@@std@@@std@@B ; CvPreGame::sr_TeamTypes
	mov	ecx, DWORD PTR [edx+4]
	mov	eax, DWORD PTR [ecx+eax*4]

; 250  : }

	ret	4

; 249  : 	return m_pPlayer->getTeam();

$LN7@GetTeam:
	or	eax, -1

; 250  : }

	ret	4
?GetTeam@CvDllPlayer@@UBG?AW4TeamTypes@@XZ ENDP		; CvDllPlayer::GetTeam
_TEXT	ENDS
PUBLIC	??_7ICvPlayer3@@6B@				; ICvPlayer3::`vftable'
PUBLIC	??0ICvPlayer3@@QAE@XZ				; ICvPlayer3::ICvPlayer3
PUBLIC	??_R4ICvPlayer3@@6B@				; ICvPlayer3::`RTTI Complete Object Locator'
;	COMDAT ??_R4ICvPlayer3@@6B@
rdata$r	SEGMENT
??_R4ICvPlayer3@@6B@ DD 00H				; ICvPlayer3::`RTTI Complete Object Locator'
	DD	00H
	DD	00H
	DD	FLAT:??_R0?AVICvPlayer3@@@8
	DD	FLAT:??_R3ICvPlayer3@@8
rdata$r	ENDS
;	COMDAT ??_7ICvPlayer3@@6B@
CONST	SEGMENT
??_7ICvPlayer3@@6B@ DD FLAT:??_R4ICvPlayer3@@6B@	; ICvPlayer3::`vftable'
	DD	FLAT:__purecall
	DD	FLAT:__purecall
	DD	FLAT:__purecall
	DD	FLAT:__purecall
	DD	FLAT:__purecall
	DD	FLAT:__purecall
	DD	FLAT:__purecall
	DD	FLAT:__purecall
	DD	FLAT:__purecall
	DD	FLAT:__purecall
	DD	FLAT:__purecall
	DD	FLAT:__purecall
	DD	FLAT:__purecall
	DD	FLAT:__purecall
	DD	FLAT:__purecall
	DD	FLAT:__purecall
	DD	FLAT:__purecall
	DD	FLAT:__purecall
	DD	FLAT:__purecall
	DD	FLAT:__purecall
	DD	FLAT:__purecall
	DD	FLAT:__purecall
	DD	FLAT:__purecall
	DD	FLAT:__purecall
	DD	FLAT:__purecall
	DD	FLAT:__purecall
	DD	FLAT:__purecall
	DD	FLAT:__purecall
	DD	FLAT:__purecall
	DD	FLAT:__purecall
	DD	FLAT:__purecall
	DD	FLAT:__purecall
	DD	FLAT:__purecall
	DD	FLAT:__purecall
	DD	FLAT:__purecall
	DD	FLAT:__purecall
	DD	FLAT:__purecall
	DD	FLAT:__purecall
	DD	FLAT:__purecall
	DD	FLAT:__purecall
	DD	FLAT:__purecall
	DD	FLAT:__purecall
	DD	FLAT:__purecall
	DD	FLAT:__purecall
	DD	FLAT:__purecall
	DD	FLAT:__purecall
	DD	FLAT:__purecall
	DD	FLAT:__purecall
	DD	FLAT:__purecall
	DD	FLAT:__purecall
	DD	FLAT:__purecall
	DD	FLAT:__purecall
	DD	FLAT:__purecall
	DD	FLAT:__purecall
	DD	FLAT:__purecall
	DD	FLAT:__purecall
	DD	FLAT:__purecall
	DD	FLAT:__purecall
	DD	FLAT:__purecall
	DD	FLAT:__purecall
	DD	FLAT:__purecall
	DD	FLAT:__purecall
	DD	FLAT:__purecall
	DD	FLAT:__purecall
	DD	FLAT:__purecall
	DD	FLAT:__purecall
	DD	FLAT:__purecall
	DD	FLAT:__purecall
; Function compile flags: /Ogtpy
CONST	ENDS
;	COMDAT ??0ICvPlayer3@@QAE@XZ
_TEXT	SEGMENT
??0ICvPlayer3@@QAE@XZ PROC				; ICvPlayer3::ICvPlayer3, COMDAT
; _this$ = ecx
	mov	eax, ecx
	mov	DWORD PTR [eax], OFFSET ??_7ICvPlayer3@@6B@
	ret	0
??0ICvPlayer3@@QAE@XZ ENDP				; ICvPlayer3::ICvPlayer3
_TEXT	ENDS
PUBLIC	??0CvDllPlayer@@QAE@PAVCvPlayerAI@@@Z		; CvDllPlayer::CvDllPlayer
; Function compile flags: /Ogtpy
;	COMDAT ??0CvDllPlayer@@QAE@PAVCvPlayerAI@@@Z
_TEXT	SEGMENT
_pPlayer$ = 8						; size = 4
??0CvDllPlayer@@QAE@PAVCvPlayerAI@@@Z PROC		; CvDllPlayer::CvDllPlayer, COMDAT
; _this$ = ecx

; 28   : {

	mov	eax, DWORD PTR _pPlayer$[esp-4]
	push	esi
	mov	esi, ecx
	mov	DWORD PTR [esi], OFFSET ??_7CvDllPlayer@@6B@
	mov	DWORD PTR [esi+4], 1
	mov	DWORD PTR [esi+8], eax

; 29   : 	if(gDLL)

	mov	ecx, DWORD PTR ?gGlobals@@3VCvGlobals@@A+8564
	test	ecx, ecx
	je	SHORT $LN16@CvDllPlaye@2

; 30   : 		gDLL->GetGameCoreLock();

	mov	edx, DWORD PTR [ecx]
	mov	eax, DWORD PTR [edx+912]
	call	eax
$LN16@CvDllPlaye@2:

; 31   : }

	mov	eax, esi
	pop	esi
	ret	4
??0CvDllPlayer@@QAE@PAVCvPlayerAI@@@Z ENDP		; CvDllPlayer::CvDllPlayer
_TEXT	ENDS
END
