; Listing generated by Microsoft (R) Optimizing Compiler Version 15.00.30729.01 

	TITLE	c:\Users\EnormousApplePie\Desktop\Lekmod DLL versions\v31\LEKMOD_DLL\CvGameCoreDLL_Expansion2\CvDllEraInfo.cpp
	.686P
	.XMM
	include listing.inc
	.model	flat

INCLUDELIB MSVCRT
INCLUDELIB OLDNAMES

_DATA	SEGMENT
_CIV5_XP2_DLL_VERSION DD FLAT:$SG217152
_DATA	ENDS
CONST	SEGMENT
$SG217152 DB	'1.0.0', 00H
	ORG $+2
_guidICvUnknown DD 0d89ba82fH
	DW	09fa3H
	DW	04696H
	DB	0b3H
	DB	0f4H
	DB	052H
	DB	0bdH
	DB	0b1H
	DB	01H
	DB	0cfH
	DB	0b2H
_guidICvEraInfo1 DD 0fda260ceH
	DW	0a5d3H
	DW	04191H
	DB	083H
	DB	05fH
	DB	01bH
	DB	099H
	DB	0b3H
	DB	060H
	DB	029H
	DB	01dH
CONST	ENDS
PUBLIC	??_7ICvUnknown@@6B@				; ICvUnknown::`vftable'
PUBLIC	??0ICvUnknown@@QAE@XZ				; ICvUnknown::ICvUnknown
PUBLIC	??_R4ICvUnknown@@6B@				; ICvUnknown::`RTTI Complete Object Locator'
PUBLIC	??_R0?AVICvUnknown@@@8				; ICvUnknown `RTTI Type Descriptor'
PUBLIC	??_R3ICvUnknown@@8				; ICvUnknown::`RTTI Class Hierarchy Descriptor'
PUBLIC	??_R2ICvUnknown@@8				; ICvUnknown::`RTTI Base Class Array'
PUBLIC	??_R1A@?0A@EA@ICvUnknown@@8			; ICvUnknown::`RTTI Base Class Descriptor at (0,-1,0,64)'
EXTRN	??_7type_info@@6B@:QWORD			; type_info::`vftable'
EXTRN	__purecall:PROC
;	COMDAT ??_R1A@?0A@EA@ICvUnknown@@8
rdata$r	SEGMENT
??_R1A@?0A@EA@ICvUnknown@@8 DD FLAT:??_R0?AVICvUnknown@@@8 ; ICvUnknown::`RTTI Base Class Descriptor at (0,-1,0,64)'
	DD	00H
	DD	00H
	DD	0ffffffffH
	DD	00H
	DD	040H
	DD	FLAT:??_R3ICvUnknown@@8
rdata$r	ENDS
;	COMDAT ??_R2ICvUnknown@@8
rdata$r	SEGMENT
??_R2ICvUnknown@@8 DD FLAT:??_R1A@?0A@EA@ICvUnknown@@8	; ICvUnknown::`RTTI Base Class Array'
rdata$r	ENDS
;	COMDAT ??_R3ICvUnknown@@8
rdata$r	SEGMENT
??_R3ICvUnknown@@8 DD 00H				; ICvUnknown::`RTTI Class Hierarchy Descriptor'
	DD	00H
	DD	01H
	DD	FLAT:??_R2ICvUnknown@@8
rdata$r	ENDS
;	COMDAT ??_R0?AVICvUnknown@@@8
_DATA	SEGMENT
??_R0?AVICvUnknown@@@8 DD FLAT:??_7type_info@@6B@	; ICvUnknown `RTTI Type Descriptor'
	DD	00H
	DB	'.?AVICvUnknown@@', 00H
_DATA	ENDS
;	COMDAT ??_R4ICvUnknown@@6B@
rdata$r	SEGMENT
??_R4ICvUnknown@@6B@ DD 00H				; ICvUnknown::`RTTI Complete Object Locator'
	DD	00H
	DD	00H
	DD	FLAT:??_R0?AVICvUnknown@@@8
	DD	FLAT:??_R3ICvUnknown@@8
rdata$r	ENDS
;	COMDAT ??_7ICvUnknown@@6B@
CONST	SEGMENT
??_7ICvUnknown@@6B@ DD FLAT:??_R4ICvUnknown@@6B@	; ICvUnknown::`vftable'
	DD	FLAT:__purecall
	DD	FLAT:__purecall
; Function compile flags: /Ogtpy
CONST	ENDS
;	COMDAT ??0ICvUnknown@@QAE@XZ
_TEXT	SEGMENT
??0ICvUnknown@@QAE@XZ PROC				; ICvUnknown::ICvUnknown, COMDAT
; _this$ = ecx
	mov	eax, ecx
	mov	DWORD PTR [eax], OFFSET ??_7ICvUnknown@@6B@
	ret	0
??0ICvUnknown@@QAE@XZ ENDP				; ICvUnknown::ICvUnknown
_TEXT	ENDS
PUBLIC	??_7CvDllEraInfo@@6B@				; CvDllEraInfo::`vftable'
PUBLIC	??1CvDllEraInfo@@QAE@XZ				; CvDllEraInfo::~CvDllEraInfo
PUBLIC	??_R4CvDllEraInfo@@6B@				; CvDllEraInfo::`RTTI Complete Object Locator'
PUBLIC	??_R0?AVCvDllEraInfo@@@8			; CvDllEraInfo `RTTI Type Descriptor'
PUBLIC	??_R3CvDllEraInfo@@8				; CvDllEraInfo::`RTTI Class Hierarchy Descriptor'
PUBLIC	??_R2CvDllEraInfo@@8				; CvDllEraInfo::`RTTI Base Class Array'
PUBLIC	??_R1A@?0A@EA@CvDllEraInfo@@8			; CvDllEraInfo::`RTTI Base Class Descriptor at (0,-1,0,64)'
PUBLIC	??_R1A@?0A@EA@ICvEraInfo1@@8			; ICvEraInfo1::`RTTI Base Class Descriptor at (0,-1,0,64)'
PUBLIC	??_R0?AVICvEraInfo1@@@8				; ICvEraInfo1 `RTTI Type Descriptor'
PUBLIC	??_R3ICvEraInfo1@@8				; ICvEraInfo1::`RTTI Class Hierarchy Descriptor'
PUBLIC	??_R2ICvEraInfo1@@8				; ICvEraInfo1::`RTTI Base Class Array'
PUBLIC	?QueryInterface@CvDllEraInfo@@UAGPAXU_GUID@@@Z	; CvDllEraInfo::QueryInterface
PUBLIC	?Destroy@CvDllEraInfo@@EAGXXZ			; CvDllEraInfo::Destroy
PUBLIC	?GetType@CvDllEraInfo@@UAGPBDXZ			; CvDllEraInfo::GetType
PUBLIC	?GetDescription@CvDllEraInfo@@UAGPBDXZ		; CvDllEraInfo::GetDescription
PUBLIC	?GetNumEraVOs@CvDllEraInfo@@UAGHXZ		; CvDllEraInfo::GetNumEraVOs
PUBLIC	?GetEraVO@CvDllEraInfo@@UAGPBDH@Z		; CvDllEraInfo::GetEraVO
PUBLIC	?GetArtPrefix@CvDllEraInfo@@UAGPBDXZ		; CvDllEraInfo::GetArtPrefix
;	COMDAT ??_R2ICvEraInfo1@@8
; File c:\users\enormousapplepie\desktop\lekmod dll versions\v31\lekmod_dll\cvgamecoredll_expansion2\cvdllerainfo.cpp
rdata$r	SEGMENT
??_R2ICvEraInfo1@@8 DD FLAT:??_R1A@?0A@EA@ICvEraInfo1@@8 ; ICvEraInfo1::`RTTI Base Class Array'
	DD	FLAT:??_R1A@?0A@EA@ICvUnknown@@8
rdata$r	ENDS
;	COMDAT ??_R3ICvEraInfo1@@8
rdata$r	SEGMENT
??_R3ICvEraInfo1@@8 DD 00H				; ICvEraInfo1::`RTTI Class Hierarchy Descriptor'
	DD	00H
	DD	02H
	DD	FLAT:??_R2ICvEraInfo1@@8
rdata$r	ENDS
;	COMDAT ??_R0?AVICvEraInfo1@@@8
_DATA	SEGMENT
??_R0?AVICvEraInfo1@@@8 DD FLAT:??_7type_info@@6B@	; ICvEraInfo1 `RTTI Type Descriptor'
	DD	00H
	DB	'.?AVICvEraInfo1@@', 00H
_DATA	ENDS
;	COMDAT ??_R1A@?0A@EA@ICvEraInfo1@@8
rdata$r	SEGMENT
??_R1A@?0A@EA@ICvEraInfo1@@8 DD FLAT:??_R0?AVICvEraInfo1@@@8 ; ICvEraInfo1::`RTTI Base Class Descriptor at (0,-1,0,64)'
	DD	01H
	DD	00H
	DD	0ffffffffH
	DD	00H
	DD	040H
	DD	FLAT:??_R3ICvEraInfo1@@8
rdata$r	ENDS
;	COMDAT ??_R1A@?0A@EA@CvDllEraInfo@@8
rdata$r	SEGMENT
??_R1A@?0A@EA@CvDllEraInfo@@8 DD FLAT:??_R0?AVCvDllEraInfo@@@8 ; CvDllEraInfo::`RTTI Base Class Descriptor at (0,-1,0,64)'
	DD	02H
	DD	00H
	DD	0ffffffffH
	DD	00H
	DD	040H
	DD	FLAT:??_R3CvDllEraInfo@@8
rdata$r	ENDS
;	COMDAT ??_R2CvDllEraInfo@@8
rdata$r	SEGMENT
??_R2CvDllEraInfo@@8 DD FLAT:??_R1A@?0A@EA@CvDllEraInfo@@8 ; CvDllEraInfo::`RTTI Base Class Array'
	DD	FLAT:??_R1A@?0A@EA@ICvEraInfo1@@8
	DD	FLAT:??_R1A@?0A@EA@ICvUnknown@@8
rdata$r	ENDS
;	COMDAT ??_R3CvDllEraInfo@@8
rdata$r	SEGMENT
??_R3CvDllEraInfo@@8 DD 00H				; CvDllEraInfo::`RTTI Class Hierarchy Descriptor'
	DD	00H
	DD	03H
	DD	FLAT:??_R2CvDllEraInfo@@8
rdata$r	ENDS
;	COMDAT ??_R0?AVCvDllEraInfo@@@8
_DATA	SEGMENT
??_R0?AVCvDllEraInfo@@@8 DD FLAT:??_7type_info@@6B@	; CvDllEraInfo `RTTI Type Descriptor'
	DD	00H
	DB	'.?AVCvDllEraInfo@@', 00H
_DATA	ENDS
;	COMDAT ??_R4CvDllEraInfo@@6B@
rdata$r	SEGMENT
??_R4CvDllEraInfo@@6B@ DD 00H				; CvDllEraInfo::`RTTI Complete Object Locator'
	DD	00H
	DD	00H
	DD	FLAT:??_R0?AVCvDllEraInfo@@@8
	DD	FLAT:??_R3CvDllEraInfo@@8
rdata$r	ENDS
;	COMDAT ??_7CvDllEraInfo@@6B@
CONST	SEGMENT
??_7CvDllEraInfo@@6B@ DD FLAT:??_R4CvDllEraInfo@@6B@	; CvDllEraInfo::`vftable'
	DD	FLAT:?QueryInterface@CvDllEraInfo@@UAGPAXU_GUID@@@Z
	DD	FLAT:?Destroy@CvDllEraInfo@@EAGXXZ
	DD	FLAT:?GetType@CvDllEraInfo@@UAGPBDXZ
	DD	FLAT:?GetDescription@CvDllEraInfo@@UAGPBDXZ
	DD	FLAT:?GetNumEraVOs@CvDllEraInfo@@UAGHXZ
	DD	FLAT:?GetEraVO@CvDllEraInfo@@UAGPBDH@Z
	DD	FLAT:?GetArtPrefix@CvDllEraInfo@@UAGPBDXZ
; Function compile flags: /Ogtpy
CONST	ENDS
;	COMDAT ??1CvDllEraInfo@@QAE@XZ
_TEXT	SEGMENT
??1CvDllEraInfo@@QAE@XZ PROC				; CvDllEraInfo::~CvDllEraInfo, COMDAT
; _this$ = ecx

; 24   : {

	mov	DWORD PTR [ecx], OFFSET ??_7CvDllEraInfo@@6B@

; 25   : }

	ret	0
??1CvDllEraInfo@@QAE@XZ ENDP				; CvDllEraInfo::~CvDllEraInfo
_TEXT	ENDS
PUBLIC	?IncrementReference@CvDllEraInfo@@QAEIXZ	; CvDllEraInfo::IncrementReference
; Function compile flags: /Ogtpy
;	COMDAT ?IncrementReference@CvDllEraInfo@@QAEIXZ
_TEXT	SEGMENT
?IncrementReference@CvDllEraInfo@@QAEIXZ PROC		; CvDllEraInfo::IncrementReference, COMDAT
; _this$ = ecx

; 41   : 	++m_uiRefCount;

	inc	DWORD PTR [ecx+4]

; 42   : 	return m_uiRefCount;

	mov	eax, DWORD PTR [ecx+4]

; 43   : }

	ret	0
?IncrementReference@CvDllEraInfo@@QAEIXZ ENDP		; CvDllEraInfo::IncrementReference
_TEXT	ENDS
PUBLIC	?GetReferenceCount@CvDllEraInfo@@QAEIXZ		; CvDllEraInfo::GetReferenceCount
; Function compile flags: /Ogtpy
;	COMDAT ?GetReferenceCount@CvDllEraInfo@@QAEIXZ
_TEXT	SEGMENT
?GetReferenceCount@CvDllEraInfo@@QAEIXZ PROC		; CvDllEraInfo::GetReferenceCount, COMDAT
; _this$ = ecx

; 61   : 	return m_uiRefCount;

	mov	eax, DWORD PTR [ecx+4]

; 62   : }

	ret	0
?GetReferenceCount@CvDllEraInfo@@QAEIXZ ENDP		; CvDllEraInfo::GetReferenceCount
_TEXT	ENDS
PUBLIC	??3CvDllEraInfo@@SAXPAX@Z			; CvDllEraInfo::operator delete
EXTRN	?Free@CvDllGameContext@@SAXPAX@Z:PROC		; CvDllGameContext::Free
; Function compile flags: /Ogtpy
;	COMDAT ??3CvDllEraInfo@@SAXPAX@Z
_TEXT	SEGMENT
_p$ = 8							; size = 4
??3CvDllEraInfo@@SAXPAX@Z PROC				; CvDllEraInfo::operator delete, COMDAT

; 71   : 	CvDllGameContext::Free(p);

	jmp	?Free@CvDllGameContext@@SAXPAX@Z	; CvDllGameContext::Free
??3CvDllEraInfo@@SAXPAX@Z ENDP				; CvDllEraInfo::operator delete
_TEXT	ENDS
PUBLIC	??2CvDllEraInfo@@SAPAXI@Z			; CvDllEraInfo::operator new
EXTRN	?Allocate@CvDllGameContext@@SAPAXI@Z:PROC	; CvDllGameContext::Allocate
; Function compile flags: /Ogtpy
;	COMDAT ??2CvDllEraInfo@@SAPAXI@Z
_TEXT	SEGMENT
_bytes$ = 8						; size = 4
??2CvDllEraInfo@@SAPAXI@Z PROC				; CvDllEraInfo::operator new, COMDAT

; 76   : 	return CvDllGameContext::Allocate(bytes);

	jmp	?Allocate@CvDllGameContext@@SAPAXI@Z	; CvDllGameContext::Allocate
??2CvDllEraInfo@@SAPAXI@Z ENDP				; CvDllEraInfo::operator new
_TEXT	ENDS
PUBLIC	?GetInstance@CvDllEraInfo@@QAEPAVCvEraInfo@@XZ	; CvDllEraInfo::GetInstance
; Function compile flags: /Ogtpy
;	COMDAT ?GetInstance@CvDllEraInfo@@QAEPAVCvEraInfo@@XZ
_TEXT	SEGMENT
?GetInstance@CvDllEraInfo@@QAEPAVCvEraInfo@@XZ PROC	; CvDllEraInfo::GetInstance, COMDAT
; _this$ = ecx

; 81   : 	return m_pEraInfo;

	mov	eax, DWORD PTR [ecx+8]

; 82   : }

	ret	0
?GetInstance@CvDllEraInfo@@QAEPAVCvEraInfo@@XZ ENDP	; CvDllEraInfo::GetInstance
_TEXT	ENDS
EXTRN	?GetNumEraVOs@CvEraInfo@@QBEHXZ:PROC		; CvEraInfo::GetNumEraVOs
; Function compile flags: /Ogtpy
;	COMDAT ?GetNumEraVOs@CvDllEraInfo@@UAGHXZ
_TEXT	SEGMENT
_this$ = 8						; size = 4
?GetNumEraVOs@CvDllEraInfo@@UAGHXZ PROC			; CvDllEraInfo::GetNumEraVOs, COMDAT

; 96   : 	return m_pEraInfo->GetNumEraVOs();

	mov	eax, DWORD PTR _this$[esp-4]
	mov	ecx, DWORD PTR [eax+8]
	call	?GetNumEraVOs@CvEraInfo@@QBEHXZ		; CvEraInfo::GetNumEraVOs

; 97   : }

	ret	4
?GetNumEraVOs@CvDllEraInfo@@UAGHXZ ENDP			; CvDllEraInfo::GetNumEraVOs
_TEXT	ENDS
EXTRN	?GetEraVO@CvEraInfo@@QAEPBDH@Z:PROC		; CvEraInfo::GetEraVO
; Function compile flags: /Ogtpy
;	COMDAT ?GetEraVO@CvDllEraInfo@@UAGPBDH@Z
_TEXT	SEGMENT
_this$ = 8						; size = 4
_iIndex$ = 12						; size = 4
?GetEraVO@CvDllEraInfo@@UAGPBDH@Z PROC			; CvDllEraInfo::GetEraVO, COMDAT

; 101  : 	return m_pEraInfo->GetEraVO(iIndex);

	mov	eax, DWORD PTR _iIndex$[esp-4]
	mov	ecx, DWORD PTR _this$[esp-4]
	mov	ecx, DWORD PTR [ecx+8]
	push	eax
	call	?GetEraVO@CvEraInfo@@QAEPBDH@Z		; CvEraInfo::GetEraVO

; 102  : }

	ret	8
?GetEraVO@CvDllEraInfo@@UAGPBDH@Z ENDP			; CvDllEraInfo::GetEraVO
_TEXT	ENDS
EXTRN	?getArtPrefix@CvEraInfo@@QBEPBDXZ:PROC		; CvEraInfo::getArtPrefix
; Function compile flags: /Ogtpy
;	COMDAT ?GetArtPrefix@CvDllEraInfo@@UAGPBDXZ
_TEXT	SEGMENT
_this$ = 8						; size = 4
?GetArtPrefix@CvDllEraInfo@@UAGPBDXZ PROC		; CvDllEraInfo::GetArtPrefix, COMDAT

; 106  : 	return m_pEraInfo->getArtPrefix();

	mov	eax, DWORD PTR _this$[esp-4]
	mov	ecx, DWORD PTR [eax+8]
	call	?getArtPrefix@CvEraInfo@@QBEPBDXZ	; CvEraInfo::getArtPrefix

; 107  : }

	ret	4
?GetArtPrefix@CvDllEraInfo@@UAGPBDXZ ENDP		; CvDllEraInfo::GetArtPrefix
_TEXT	ENDS
PUBLIC	_IsEqualGUID
; Function compile flags: /Ogtpy
; File c:\program files\microsoft sdks\windows\v6.0a\include\guiddef.h
;	COMDAT _IsEqualGUID
_TEXT	SEGMENT
_rguid1$ = 8						; size = 4
_rguid2$ = 12						; size = 4
_IsEqualGUID PROC					; COMDAT

; 161  :     return !memcmp(&rguid1, &rguid2, sizeof(GUID));

	mov	ecx, DWORD PTR _rguid2$[esp-4]
	mov	edx, DWORD PTR _rguid1$[esp-4]
	mov	eax, 16					; 00000010H
	push	esi
	npad	2
$LL4@IsEqualGUI:
	mov	esi, DWORD PTR [edx]
	cmp	esi, DWORD PTR [ecx]
	jne	SHORT $LN5@IsEqualGUI
	sub	eax, 4
	add	ecx, 4
	add	edx, 4
	cmp	eax, 4
	jae	SHORT $LL4@IsEqualGUI
	xor	eax, eax
	xor	edx, edx
	test	eax, eax
	sete	dl
	pop	esi
	mov	eax, edx

; 162  : }

	ret	0
$LN5@IsEqualGUI:

; 161  :     return !memcmp(&rguid1, &rguid2, sizeof(GUID));

	movzx	eax, BYTE PTR [edx]
	movzx	esi, BYTE PTR [ecx]
	sub	eax, esi
	jne	SHORT $LN7@IsEqualGUI
	movzx	eax, BYTE PTR [edx+1]
	movzx	esi, BYTE PTR [ecx+1]
	sub	eax, esi
	jne	SHORT $LN7@IsEqualGUI
	movzx	eax, BYTE PTR [edx+2]
	movzx	esi, BYTE PTR [ecx+2]
	sub	eax, esi
	jne	SHORT $LN7@IsEqualGUI
	movzx	eax, BYTE PTR [edx+3]
	movzx	ecx, BYTE PTR [ecx+3]
	sub	eax, ecx
$LN7@IsEqualGUI:
	sar	eax, 31					; 0000001fH
	or	eax, 1
	xor	edx, edx
	test	eax, eax
	sete	dl
	pop	esi
	mov	eax, edx

; 162  : }

	ret	0
_IsEqualGUID ENDP
_TEXT	ENDS
PUBLIC	_==
; Function compile flags: /Ogtpy
;	COMDAT _==
_TEXT	SEGMENT
_guidOne$ = 8						; size = 4
_guidOther$ = 12					; size = 4
_==	PROC						; COMDAT

; 194  :     return IsEqualGUID(guidOne,guidOther);

	jmp	_IsEqualGUID
_==	ENDP
_TEXT	ENDS
PUBLIC	?GetInterfaceId@ICvUnknown@@SG?AU_GUID@@XZ	; ICvUnknown::GetInterfaceId
; Function compile flags: /Ogtpy
; File c:\users\enormousapplepie\desktop\lekmod dll versions\v31\lekmod_dll\cvgamecoredllutil\include\cvdllinterfaces.h
;	COMDAT ?GetInterfaceId@ICvUnknown@@SG?AU_GUID@@XZ
_TEXT	SEGMENT
$T218504 = 8						; size = 4
?GetInterfaceId@ICvUnknown@@SG?AU_GUID@@XZ PROC		; ICvUnknown::GetInterfaceId, COMDAT

; 306  : 	static GUID DLLCALL GetInterfaceId(){ return guidICvUnknown; }

	mov	eax, DWORD PTR $T218504[esp-4]
	mov	ecx, DWORD PTR _guidICvUnknown
	mov	edx, DWORD PTR _guidICvUnknown+4
	mov	DWORD PTR [eax], ecx
	mov	ecx, DWORD PTR _guidICvUnknown+8
	mov	DWORD PTR [eax+4], edx
	mov	edx, DWORD PTR _guidICvUnknown+12
	mov	DWORD PTR [eax+8], ecx
	mov	DWORD PTR [eax+12], edx
	ret	4
?GetInterfaceId@ICvUnknown@@SG?AU_GUID@@XZ ENDP		; ICvUnknown::GetInterfaceId
_TEXT	ENDS
PUBLIC	?GetInterfaceId@ICvEraInfo1@@SG?AU_GUID@@XZ	; ICvEraInfo1::GetInterfaceId
; Function compile flags: /Ogtpy
;	COMDAT ?GetInterfaceId@ICvEraInfo1@@SG?AU_GUID@@XZ
_TEXT	SEGMENT
$T218508 = 8						; size = 4
?GetInterfaceId@ICvEraInfo1@@SG?AU_GUID@@XZ PROC	; ICvEraInfo1::GetInterfaceId, COMDAT

; 392  : 	static GUID DLLCALL GetInterfaceId() { return guidICvEraInfo1; }

	mov	eax, DWORD PTR $T218508[esp-4]
	mov	ecx, DWORD PTR _guidICvEraInfo1
	mov	edx, DWORD PTR _guidICvEraInfo1+4
	mov	DWORD PTR [eax], ecx
	mov	ecx, DWORD PTR _guidICvEraInfo1+8
	mov	DWORD PTR [eax+4], edx
	mov	edx, DWORD PTR _guidICvEraInfo1+12
	mov	DWORD PTR [eax+8], ecx
	mov	DWORD PTR [eax+12], edx
	ret	4
?GetInterfaceId@ICvEraInfo1@@SG?AU_GUID@@XZ ENDP	; ICvEraInfo1::GetInterfaceId
_TEXT	ENDS
PUBLIC	?GetDescription@CvBaseInfo@@QBEPBDXZ		; CvBaseInfo::GetDescription
EXTRN	__imp_?c_str@?$basic_string@DU?$char_traits@D@std@@V?$allocator@D@2@@std@@QBEPBDXZ:PROC
; Function compile flags: /Ogtpy
; File c:\users\enormousapplepie\desktop\lekmod dll versions\v31\lekmod_dll\cvgamecoredll_expansion2\cvinfos.h
;	COMDAT ?GetDescription@CvBaseInfo@@QBEPBDXZ
_TEXT	SEGMENT
?GetDescription@CvBaseInfo@@QBEPBDXZ PROC		; CvBaseInfo::GetDescription, COMDAT
; _this$ = ecx

; 64   : 		return m_strDescription.c_str();

	add	ecx, 36					; 00000024H
	jmp	DWORD PTR __imp_?c_str@?$basic_string@DU?$char_traits@D@std@@V?$allocator@D@2@@std@@QBEPBDXZ
?GetDescription@CvBaseInfo@@QBEPBDXZ ENDP		; CvBaseInfo::GetDescription
_TEXT	ENDS
PUBLIC	?GetType@CvBaseInfo@@QBEPBDXZ			; CvBaseInfo::GetType
; Function compile flags: /Ogtpy
;	COMDAT ?GetType@CvBaseInfo@@QBEPBDXZ
_TEXT	SEGMENT
?GetType@CvBaseInfo@@QBEPBDXZ PROC			; CvBaseInfo::GetType, COMDAT
; _this$ = ecx

; 92   : 		return m_strType.c_str();

	add	ecx, 176				; 000000b0H
	jmp	DWORD PTR __imp_?c_str@?$basic_string@DU?$char_traits@D@std@@V?$allocator@D@2@@std@@QBEPBDXZ
?GetType@CvBaseInfo@@QBEPBDXZ ENDP			; CvBaseInfo::GetType
_TEXT	ENDS
PUBLIC	??_7ICvEraInfo1@@6B@				; ICvEraInfo1::`vftable'
PUBLIC	??0ICvEraInfo1@@QAE@XZ				; ICvEraInfo1::ICvEraInfo1
PUBLIC	??_R4ICvEraInfo1@@6B@				; ICvEraInfo1::`RTTI Complete Object Locator'
;	COMDAT ??_R4ICvEraInfo1@@6B@
rdata$r	SEGMENT
??_R4ICvEraInfo1@@6B@ DD 00H				; ICvEraInfo1::`RTTI Complete Object Locator'
	DD	00H
	DD	00H
	DD	FLAT:??_R0?AVICvEraInfo1@@@8
	DD	FLAT:??_R3ICvEraInfo1@@8
rdata$r	ENDS
;	COMDAT ??_7ICvEraInfo1@@6B@
CONST	SEGMENT
??_7ICvEraInfo1@@6B@ DD FLAT:??_R4ICvEraInfo1@@6B@	; ICvEraInfo1::`vftable'
	DD	FLAT:__purecall
	DD	FLAT:__purecall
	DD	FLAT:__purecall
	DD	FLAT:__purecall
	DD	FLAT:__purecall
	DD	FLAT:__purecall
	DD	FLAT:__purecall
; Function compile flags: /Ogtpy
CONST	ENDS
;	COMDAT ??0ICvEraInfo1@@QAE@XZ
_TEXT	SEGMENT
??0ICvEraInfo1@@QAE@XZ PROC				; ICvEraInfo1::ICvEraInfo1, COMDAT
; _this$ = ecx
	mov	eax, ecx
	mov	DWORD PTR [eax], OFFSET ??_7ICvEraInfo1@@6B@
	ret	0
??0ICvEraInfo1@@QAE@XZ ENDP				; ICvEraInfo1::ICvEraInfo1
; Function compile flags: /Ogtpy
; File c:\users\enormousapplepie\desktop\lekmod dll versions\v31\lekmod_dll\cvgamecoredll_expansion2\cvdllerainfo.cpp
_TEXT	ENDS
;	COMDAT ?QueryInterface@CvDllEraInfo@@UAGPAXU_GUID@@@Z
_TEXT	SEGMENT
$T218528 = -16						; size = 16
$T218526 = -16						; size = 16
_this$ = 8						; size = 4
_guidInterface$ = 12					; size = 16
?QueryInterface@CvDllEraInfo@@UAGPAXU_GUID@@@Z PROC	; CvDllEraInfo::QueryInterface, COMDAT

; 28   : {

	sub	esp, 16					; 00000010H

; 29   : 	if(guidInterface == ICvUnknown::GetInterfaceId() ||
; 30   : 	        guidInterface == ICvEraInfo1::GetInterfaceId())

	mov	ecx, DWORD PTR _guidICvUnknown+4
	mov	edx, DWORD PTR _guidICvUnknown+8
	mov	eax, DWORD PTR _guidICvUnknown
	mov	DWORD PTR $T218526[esp+20], ecx
	lea	ecx, DWORD PTR $T218526[esp+16]
	mov	DWORD PTR $T218526[esp+24], edx
	mov	DWORD PTR $T218526[esp+16], eax
	mov	eax, DWORD PTR _guidICvUnknown+12
	push	ecx
	lea	edx, DWORD PTR _guidInterface$[esp+16]
	push	edx
	mov	DWORD PTR $T218526[esp+36], eax
	call	_IsEqualGUID
	add	esp, 8
	test	eax, eax
	jne	SHORT $LN1@QueryInter
	mov	ecx, DWORD PTR _guidICvEraInfo1+4
	mov	edx, DWORD PTR _guidICvEraInfo1+8
	mov	eax, DWORD PTR _guidICvEraInfo1
	mov	DWORD PTR $T218528[esp+20], ecx
	lea	ecx, DWORD PTR $T218528[esp+16]
	mov	DWORD PTR $T218528[esp+24], edx
	mov	DWORD PTR $T218528[esp+16], eax
	mov	eax, DWORD PTR _guidICvEraInfo1+12
	push	ecx
	lea	edx, DWORD PTR _guidInterface$[esp+16]
	push	edx
	mov	DWORD PTR $T218528[esp+36], eax
	call	_IsEqualGUID
	add	esp, 8
	test	eax, eax
	jne	SHORT $LN1@QueryInter

; 33   : 		return this;
; 34   : 	}
; 35   : 
; 36   : 	return NULL;
; 37   : }

	add	esp, 16					; 00000010H
	ret	20					; 00000014H
$LN1@QueryInter:

; 31   : 	{
; 32   : 		IncrementReference();

	mov	eax, DWORD PTR _this$[esp+12]
	inc	DWORD PTR [eax+4]

; 33   : 		return this;
; 34   : 	}
; 35   : 
; 36   : 	return NULL;
; 37   : }

	add	esp, 16					; 00000010H
	ret	20					; 00000014H
?QueryInterface@CvDllEraInfo@@UAGPAXU_GUID@@@Z ENDP	; CvDllEraInfo::QueryInterface
_TEXT	ENDS
PUBLIC	??_GCvDllEraInfo@@QAEPAXI@Z			; CvDllEraInfo::`scalar deleting destructor'
; Function compile flags: /Ogtpy
;	COMDAT ??_GCvDllEraInfo@@QAEPAXI@Z
_TEXT	SEGMENT
___flags$ = 8						; size = 4
??_GCvDllEraInfo@@QAEPAXI@Z PROC			; CvDllEraInfo::`scalar deleting destructor', COMDAT
; _this$ = ecx
	test	BYTE PTR ___flags$[esp-4], 1
	push	esi
	mov	esi, ecx
	mov	DWORD PTR [esi], OFFSET ??_7CvDllEraInfo@@6B@
	je	SHORT $LN8@scalar
	push	esi
	call	?Free@CvDllGameContext@@SAXPAX@Z	; CvDllGameContext::Free
	add	esp, 4
$LN8@scalar:
	mov	eax, esi
	pop	esi
	ret	4
??_GCvDllEraInfo@@QAEPAXI@Z ENDP			; CvDllEraInfo::`scalar deleting destructor'
; Function compile flags: /Ogtpy
_TEXT	ENDS
;	COMDAT ?GetType@CvDllEraInfo@@UAGPBDXZ
_TEXT	SEGMENT
_this$ = 8						; size = 4
?GetType@CvDllEraInfo@@UAGPBDXZ PROC			; CvDllEraInfo::GetType, COMDAT

; 86   : 	return m_pEraInfo->GetType();

	mov	eax, DWORD PTR _this$[esp-4]
	mov	eax, DWORD PTR [eax+8]
	lea	ecx, DWORD PTR [eax+176]
	call	DWORD PTR __imp_?c_str@?$basic_string@DU?$char_traits@D@std@@V?$allocator@D@2@@std@@QBEPBDXZ

; 87   : }

	ret	4
?GetType@CvDllEraInfo@@UAGPBDXZ ENDP			; CvDllEraInfo::GetType
; Function compile flags: /Ogtpy
_TEXT	ENDS
;	COMDAT ?GetDescription@CvDllEraInfo@@UAGPBDXZ
_TEXT	SEGMENT
_this$ = 8						; size = 4
?GetDescription@CvDllEraInfo@@UAGPBDXZ PROC		; CvDllEraInfo::GetDescription, COMDAT

; 91   : 	return m_pEraInfo->GetDescription();

	mov	eax, DWORD PTR _this$[esp-4]
	mov	eax, DWORD PTR [eax+8]
	lea	ecx, DWORD PTR [eax+36]
	call	DWORD PTR __imp_?c_str@?$basic_string@DU?$char_traits@D@std@@V?$allocator@D@2@@std@@QBEPBDXZ

; 92   : }

	ret	4
?GetDescription@CvDllEraInfo@@UAGPBDXZ ENDP		; CvDllEraInfo::GetDescription
_TEXT	ENDS
PUBLIC	??0CvDllEraInfo@@QAE@PAVCvEraInfo@@@Z		; CvDllEraInfo::CvDllEraInfo
; Function compile flags: /Ogtpy
;	COMDAT ??0CvDllEraInfo@@QAE@PAVCvEraInfo@@@Z
_TEXT	SEGMENT
_pEraInfo$ = 8						; size = 4
??0CvDllEraInfo@@QAE@PAVCvEraInfo@@@Z PROC		; CvDllEraInfo::CvDllEraInfo, COMDAT
; _this$ = ecx

; 19   : {

	mov	eax, ecx
	mov	ecx, DWORD PTR _pEraInfo$[esp-4]
	mov	DWORD PTR [eax], OFFSET ??_7CvDllEraInfo@@6B@
	mov	DWORD PTR [eax+4], 1
	mov	DWORD PTR [eax+8], ecx

; 20   : 	FAssertMsg(pEraInfo != NULL, "SHOULD NOT HAPPEN");
; 21   : }

	ret	4
??0CvDllEraInfo@@QAE@PAVCvEraInfo@@@Z ENDP		; CvDllEraInfo::CvDllEraInfo
_TEXT	ENDS
PUBLIC	?DecrementReference@CvDllEraInfo@@QAEIXZ	; CvDllEraInfo::DecrementReference
; Function compile flags: /Ogtpy
;	COMDAT ?DecrementReference@CvDllEraInfo@@QAEIXZ
_TEXT	SEGMENT
?DecrementReference@CvDllEraInfo@@QAEIXZ PROC		; CvDllEraInfo::DecrementReference, COMDAT
; _this$ = ecx

; 47   : 	if(m_uiRefCount == 1)

	mov	eax, DWORD PTR [ecx+4]
	cmp	eax, 1
	jne	SHORT $LN2@DecrementR

; 48   : 	{
; 49   : 		delete this;

	push	ecx
	mov	DWORD PTR [ecx], OFFSET ??_7CvDllEraInfo@@6B@
	call	?Free@CvDllGameContext@@SAXPAX@Z	; CvDllGameContext::Free
	add	esp, 4

; 50   : 		return 0;

	xor	eax, eax

; 55   : 		return m_uiRefCount;
; 56   : 	}
; 57   : }

	ret	0
$LN2@DecrementR:

; 51   : 	}
; 52   : 	else
; 53   : 	{
; 54   : 		--m_uiRefCount;

	dec	eax
	mov	DWORD PTR [ecx+4], eax

; 55   : 		return m_uiRefCount;
; 56   : 	}
; 57   : }

	ret	0
?DecrementReference@CvDllEraInfo@@QAEIXZ ENDP		; CvDllEraInfo::DecrementReference
; Function compile flags: /Ogtpy
_TEXT	ENDS
;	COMDAT ?Destroy@CvDllEraInfo@@EAGXXZ
_TEXT	SEGMENT
_this$ = 8						; size = 4
?Destroy@CvDllEraInfo@@EAGXXZ PROC			; CvDllEraInfo::Destroy, COMDAT

; 66   : 	DecrementReference();

	mov	eax, DWORD PTR _this$[esp-4]
	mov	ecx, DWORD PTR [eax+4]
	cmp	ecx, 1
	jne	SHORT $LN4@Destroy
	push	eax
	mov	DWORD PTR [eax], OFFSET ??_7CvDllEraInfo@@6B@
	call	?Free@CvDllGameContext@@SAXPAX@Z	; CvDllGameContext::Free
	add	esp, 4

; 67   : }

	ret	4

; 66   : 	DecrementReference();

$LN4@Destroy:
	dec	ecx
	mov	DWORD PTR [eax+4], ecx

; 67   : }

	ret	4
?Destroy@CvDllEraInfo@@EAGXXZ ENDP			; CvDllEraInfo::Destroy
_TEXT	ENDS
END
