; Listing generated by Microsoft (R) Optimizing Compiler Version 15.00.30729.01 

	TITLE	c:\Users\EnormousApplePie\Desktop\Lekmod DLL versions\v31\LEKMOD_DLL\CvGameCoreDLL_Expansion2\CvReplayInfo.cpp
	.686P
	.XMM
	include listing.inc
	.model	flat

INCLUDELIB MSVCRT
INCLUDELIB OLDNAMES

PUBLIC	?REPLAY_VERSION@CvReplayInfo@@1HA		; CvReplayInfo::REPLAY_VERSION
_DATA	SEGMENT
?REPLAY_VERSION@CvReplayInfo@@1HA DD 01H		; CvReplayInfo::REPLAY_VERSION
_DATA	ENDS
PUBLIC	?isValidTurn@CvReplayInfo@@IBE_NH@Z		; CvReplayInfo::isValidTurn
; Function compile flags: /Ogtpy
; File c:\users\enormousapplepie\desktop\lekmod dll versions\v31\lekmod_dll\cvgamecoredll_expansion2\cvreplayinfo.cpp
;	COMDAT ?isValidTurn@CvReplayInfo@@IBE_NH@Z
_TEXT	SEGMENT
_i$ = 8							; size = 4
?isValidTurn@CvReplayInfo@@IBE_NH@Z PROC		; CvReplayInfo::isValidTurn, COMDAT
; _this$ = ecx

; 261  : 	return (i >= m_iInitialTurn && i <= m_iFinalTurn);

	mov	eax, DWORD PTR _i$[esp-4]
	cmp	eax, DWORD PTR [ecx+96]
	jl	SHORT $LN3@isValidTur
	cmp	eax, DWORD PTR [ecx+100]
	jg	SHORT $LN3@isValidTur
	mov	eax, 1

; 262  : }

	ret	4
$LN3@isValidTur:

; 261  : 	return (i >= m_iInitialTurn && i <= m_iFinalTurn);

	xor	eax, eax

; 262  : }

	ret	4
?isValidTurn@CvReplayInfo@@IBE_NH@Z ENDP		; CvReplayInfo::isValidTurn
_TEXT	ENDS
PUBLIC	?getActivePlayer@CvReplayInfo@@QBEHXZ		; CvReplayInfo::getActivePlayer
; Function compile flags: /Ogtpy
;	COMDAT ?getActivePlayer@CvReplayInfo@@QBEHXZ
_TEXT	SEGMENT
?getActivePlayer@CvReplayInfo@@QBEHXZ PROC		; CvReplayInfo::getActivePlayer, COMDAT
; _this$ = ecx

; 266  : 	return m_iActivePlayer;

	mov	eax, DWORD PTR [ecx+4]

; 267  : }

	ret	0
?getActivePlayer@CvReplayInfo@@QBEHXZ ENDP		; CvReplayInfo::getActivePlayer
_TEXT	ENDS
PUBLIC	?_Swap_aux@_Container_base@std@@QAEXAAV12@@Z	; std::_Container_base::_Swap_aux
; Function compile flags: /Ogtpy
; File c:\program files (x86)\microsoft visual studio 9.0\vc\include\xutility
;	COMDAT ?_Swap_aux@_Container_base@std@@QAEXAAV12@@Z
_TEXT	SEGMENT
___formal$ = 8						; size = 4
?_Swap_aux@_Container_base@std@@QAEXAAV12@@Z PROC	; std::_Container_base::_Swap_aux, COMDAT
; _this$ = ecx

; 602  : 		// Do nothing: we don't have an aux object.
; 603  : 		}

	ret	4
?_Swap_aux@_Container_base@std@@QAEXAAV12@@Z ENDP	; std::_Container_base::_Swap_aux
_TEXT	ENDS
PUBLIC	?getMapScriptName@CvReplayInfo@@QBEABVCvString@@XZ ; CvReplayInfo::getMapScriptName
; Function compile flags: /Ogtpy
; File c:\users\enormousapplepie\desktop\lekmod dll versions\v31\lekmod_dll\cvgamecoredll_expansion2\cvreplayinfo.cpp
;	COMDAT ?getMapScriptName@CvReplayInfo@@QBEABVCvString@@XZ
_TEXT	SEGMENT
?getMapScriptName@CvReplayInfo@@QBEABVCvString@@XZ PROC	; CvReplayInfo::getMapScriptName, COMDAT
; _this$ = ecx

; 351  : 	return m_strMapScriptName;

	lea	eax, DWORD PTR [ecx+8]

; 352  : }

	ret	0
?getMapScriptName@CvReplayInfo@@QBEABVCvString@@XZ ENDP	; CvReplayInfo::getMapScriptName
_TEXT	ENDS
PUBLIC	?getWorldSize@CvReplayInfo@@QBE?AW4WorldSizeTypes@@XZ ; CvReplayInfo::getWorldSize
; Function compile flags: /Ogtpy
;	COMDAT ?getWorldSize@CvReplayInfo@@QBE?AW4WorldSizeTypes@@XZ
_TEXT	SEGMENT
?getWorldSize@CvReplayInfo@@QBE?AW4WorldSizeTypes@@XZ PROC ; CvReplayInfo::getWorldSize, COMDAT
; _this$ = ecx

; 356  : 	return m_eWorldSize;

	mov	eax, DWORD PTR [ecx+36]

; 357  : }

	ret	0
?getWorldSize@CvReplayInfo@@QBE?AW4WorldSizeTypes@@XZ ENDP ; CvReplayInfo::getWorldSize
_TEXT	ENDS
PUBLIC	?getClimate@CvReplayInfo@@QBE?AW4ClimateTypes@@XZ ; CvReplayInfo::getClimate
; Function compile flags: /Ogtpy
;	COMDAT ?getClimate@CvReplayInfo@@QBE?AW4ClimateTypes@@XZ
_TEXT	SEGMENT
?getClimate@CvReplayInfo@@QBE?AW4ClimateTypes@@XZ PROC	; CvReplayInfo::getClimate, COMDAT
; _this$ = ecx

; 361  : 	return m_eClimate;

	mov	eax, DWORD PTR [ecx+40]

; 362  : }

	ret	0
?getClimate@CvReplayInfo@@QBE?AW4ClimateTypes@@XZ ENDP	; CvReplayInfo::getClimate
_TEXT	ENDS
PUBLIC	?getSeaLevel@CvReplayInfo@@QBE?AW4SeaLevelTypes@@XZ ; CvReplayInfo::getSeaLevel
; Function compile flags: /Ogtpy
;	COMDAT ?getSeaLevel@CvReplayInfo@@QBE?AW4SeaLevelTypes@@XZ
_TEXT	SEGMENT
?getSeaLevel@CvReplayInfo@@QBE?AW4SeaLevelTypes@@XZ PROC ; CvReplayInfo::getSeaLevel, COMDAT
; _this$ = ecx

; 366  : 	return m_eSeaLevel;

	mov	eax, DWORD PTR [ecx+44]

; 367  : }

	ret	0
?getSeaLevel@CvReplayInfo@@QBE?AW4SeaLevelTypes@@XZ ENDP ; CvReplayInfo::getSeaLevel
_TEXT	ENDS
PUBLIC	?getEra@CvReplayInfo@@QBE?AW4EraTypes@@XZ	; CvReplayInfo::getEra
; Function compile flags: /Ogtpy
;	COMDAT ?getEra@CvReplayInfo@@QBE?AW4EraTypes@@XZ
_TEXT	SEGMENT
?getEra@CvReplayInfo@@QBE?AW4EraTypes@@XZ PROC		; CvReplayInfo::getEra, COMDAT
; _this$ = ecx

; 371  : 	return m_eEra;

	mov	eax, DWORD PTR [ecx+48]

; 372  : }

	ret	0
?getEra@CvReplayInfo@@QBE?AW4EraTypes@@XZ ENDP		; CvReplayInfo::getEra
_TEXT	ENDS
PUBLIC	?getGameSpeed@CvReplayInfo@@QBE?AW4GameSpeedTypes@@XZ ; CvReplayInfo::getGameSpeed
; Function compile flags: /Ogtpy
;	COMDAT ?getGameSpeed@CvReplayInfo@@QBE?AW4GameSpeedTypes@@XZ
_TEXT	SEGMENT
?getGameSpeed@CvReplayInfo@@QBE?AW4GameSpeedTypes@@XZ PROC ; CvReplayInfo::getGameSpeed, COMDAT
; _this$ = ecx

; 376  : 	return m_eGameSpeed;

	mov	eax, DWORD PTR [ecx+52]

; 377  : }

	ret	0
?getGameSpeed@CvReplayInfo@@QBE?AW4GameSpeedTypes@@XZ ENDP ; CvReplayInfo::getGameSpeed
_TEXT	ENDS
PUBLIC	?getVictoryType@CvReplayInfo@@QBE?AW4VictoryTypes@@XZ ; CvReplayInfo::getVictoryType
; Function compile flags: /Ogtpy
;	COMDAT ?getVictoryType@CvReplayInfo@@QBE?AW4VictoryTypes@@XZ
_TEXT	SEGMENT
?getVictoryType@CvReplayInfo@@QBE?AW4VictoryTypes@@XZ PROC ; CvReplayInfo::getVictoryType, COMDAT
; _this$ = ecx

; 405  : 	return m_eVictoryType;

	mov	eax, DWORD PTR [ecx+88]

; 406  : }

	ret	0
?getVictoryType@CvReplayInfo@@QBE?AW4VictoryTypes@@XZ ENDP ; CvReplayInfo::getVictoryType
_TEXT	ENDS
PUBLIC	?getGameType@CvReplayInfo@@QBE?AW4GameTypes@@XZ	; CvReplayInfo::getGameType
; Function compile flags: /Ogtpy
;	COMDAT ?getGameType@CvReplayInfo@@QBE?AW4GameTypes@@XZ
_TEXT	SEGMENT
?getGameType@CvReplayInfo@@QBE?AW4GameTypes@@XZ PROC	; CvReplayInfo::getGameType, COMDAT
; _this$ = ecx

; 410  : 	return m_eGameType;

	mov	eax, DWORD PTR [ecx+92]

; 411  : }

	ret	0
?getGameType@CvReplayInfo@@QBE?AW4GameTypes@@XZ ENDP	; CvReplayInfo::getGameType
_TEXT	ENDS
PUBLIC	??_7bad_alloc@std@@6B@				; std::bad_alloc::`vftable'
PUBLIC	??0bad_alloc@std@@QAE@PBD@Z			; std::bad_alloc::bad_alloc
PUBLIC	??_R4bad_alloc@std@@6B@				; std::bad_alloc::`RTTI Complete Object Locator'
PUBLIC	??_R0?AVbad_alloc@std@@@8			; std::bad_alloc `RTTI Type Descriptor'
PUBLIC	??_R3bad_alloc@std@@8				; std::bad_alloc::`RTTI Class Hierarchy Descriptor'
PUBLIC	??_R2bad_alloc@std@@8				; std::bad_alloc::`RTTI Base Class Array'
PUBLIC	??_R1A@?0A@EA@bad_alloc@std@@8			; std::bad_alloc::`RTTI Base Class Descriptor at (0,-1,0,64)'
PUBLIC	??_R1A@?0A@EA@exception@std@@8			; std::exception::`RTTI Base Class Descriptor at (0,-1,0,64)'
PUBLIC	??_R0?AVexception@std@@@8			; std::exception `RTTI Type Descriptor'
PUBLIC	??_R3exception@std@@8				; std::exception::`RTTI Class Hierarchy Descriptor'
PUBLIC	??_R2exception@std@@8				; std::exception::`RTTI Base Class Array'
EXTRN	__imp_??0exception@std@@QAE@ABQBD@Z:PROC
EXTRN	??_7type_info@@6B@:QWORD			; type_info::`vftable'
EXTRN	??_Ebad_alloc@std@@UAEPAXI@Z:PROC		; std::bad_alloc::`vector deleting destructor'
EXTRN	?what@exception@std@@UBEPBDXZ:PROC		; std::exception::what
;	COMDAT ??_R2exception@std@@8
; File c:\program files (x86)\microsoft visual studio 9.0\vc\include\exception
rdata$r	SEGMENT
??_R2exception@std@@8 DD FLAT:??_R1A@?0A@EA@exception@std@@8 ; std::exception::`RTTI Base Class Array'
rdata$r	ENDS
;	COMDAT ??_R3exception@std@@8
rdata$r	SEGMENT
??_R3exception@std@@8 DD 00H				; std::exception::`RTTI Class Hierarchy Descriptor'
	DD	00H
	DD	01H
	DD	FLAT:??_R2exception@std@@8
rdata$r	ENDS
;	COMDAT ??_R0?AVexception@std@@@8
_DATA	SEGMENT
??_R0?AVexception@std@@@8 DD FLAT:??_7type_info@@6B@	; std::exception `RTTI Type Descriptor'
	DD	00H
	DB	'.?AVexception@std@@', 00H
_DATA	ENDS
;	COMDAT ??_R1A@?0A@EA@exception@std@@8
rdata$r	SEGMENT
??_R1A@?0A@EA@exception@std@@8 DD FLAT:??_R0?AVexception@std@@@8 ; std::exception::`RTTI Base Class Descriptor at (0,-1,0,64)'
	DD	00H
	DD	00H
	DD	0ffffffffH
	DD	00H
	DD	040H
	DD	FLAT:??_R3exception@std@@8
rdata$r	ENDS
;	COMDAT ??_R1A@?0A@EA@bad_alloc@std@@8
rdata$r	SEGMENT
??_R1A@?0A@EA@bad_alloc@std@@8 DD FLAT:??_R0?AVbad_alloc@std@@@8 ; std::bad_alloc::`RTTI Base Class Descriptor at (0,-1,0,64)'
	DD	01H
	DD	00H
	DD	0ffffffffH
	DD	00H
	DD	040H
	DD	FLAT:??_R3bad_alloc@std@@8
rdata$r	ENDS
;	COMDAT ??_R2bad_alloc@std@@8
rdata$r	SEGMENT
??_R2bad_alloc@std@@8 DD FLAT:??_R1A@?0A@EA@bad_alloc@std@@8 ; std::bad_alloc::`RTTI Base Class Array'
	DD	FLAT:??_R1A@?0A@EA@exception@std@@8
rdata$r	ENDS
;	COMDAT ??_R3bad_alloc@std@@8
rdata$r	SEGMENT
??_R3bad_alloc@std@@8 DD 00H				; std::bad_alloc::`RTTI Class Hierarchy Descriptor'
	DD	00H
	DD	02H
	DD	FLAT:??_R2bad_alloc@std@@8
rdata$r	ENDS
;	COMDAT ??_R0?AVbad_alloc@std@@@8
_DATA	SEGMENT
??_R0?AVbad_alloc@std@@@8 DD FLAT:??_7type_info@@6B@	; std::bad_alloc `RTTI Type Descriptor'
	DD	00H
	DB	'.?AVbad_alloc@std@@', 00H
_DATA	ENDS
;	COMDAT ??_R4bad_alloc@std@@6B@
rdata$r	SEGMENT
??_R4bad_alloc@std@@6B@ DD 00H				; std::bad_alloc::`RTTI Complete Object Locator'
	DD	00H
	DD	00H
	DD	FLAT:??_R0?AVbad_alloc@std@@@8
	DD	FLAT:??_R3bad_alloc@std@@8
rdata$r	ENDS
;	COMDAT ??_7bad_alloc@std@@6B@
CONST	SEGMENT
??_7bad_alloc@std@@6B@ DD FLAT:??_R4bad_alloc@std@@6B@	; std::bad_alloc::`vftable'
	DD	FLAT:??_Ebad_alloc@std@@UAEPAXI@Z
	DD	FLAT:?what@exception@std@@UBEPBDXZ
; Function compile flags: /Ogtpy
CONST	ENDS
;	COMDAT ??0bad_alloc@std@@QAE@PBD@Z
_TEXT	SEGMENT
__Message$ = 8						; size = 4
??0bad_alloc@std@@QAE@PBD@Z PROC			; std::bad_alloc::bad_alloc, COMDAT
; _this$ = ecx

; 371  : 		{	// construct from message string

	push	esi
	lea	eax, DWORD PTR __Message$[esp]
	push	eax
	mov	esi, ecx
	call	DWORD PTR __imp_??0exception@std@@QAE@ABQBD@Z
	mov	DWORD PTR [esi], OFFSET ??_7bad_alloc@std@@6B@

; 372  : 		}

	mov	eax, esi
	pop	esi
	ret	4
??0bad_alloc@std@@QAE@PBD@Z ENDP			; std::bad_alloc::bad_alloc
_TEXT	ENDS
PUBLIC	?getInitialTurn@CvReplayInfo@@QBEHXZ		; CvReplayInfo::getInitialTurn
; Function compile flags: /Ogtpy
; File c:\users\enormousapplepie\desktop\lekmod dll versions\v31\lekmod_dll\cvgamecoredll_expansion2\cvreplayinfo.cpp
;	COMDAT ?getInitialTurn@CvReplayInfo@@QBEHXZ
_TEXT	SEGMENT
?getInitialTurn@CvReplayInfo@@QBEHXZ PROC		; CvReplayInfo::getInitialTurn, COMDAT
; _this$ = ecx

; 440  : 	return m_iInitialTurn;

	mov	eax, DWORD PTR [ecx+96]

; 441  : }

	ret	0
?getInitialTurn@CvReplayInfo@@QBEHXZ ENDP		; CvReplayInfo::getInitialTurn
_TEXT	ENDS
PUBLIC	?getStartYear@CvReplayInfo@@QBEHXZ		; CvReplayInfo::getStartYear
; Function compile flags: /Ogtpy
;	COMDAT ?getStartYear@CvReplayInfo@@QBEHXZ
_TEXT	SEGMENT
?getStartYear@CvReplayInfo@@QBEHXZ PROC			; CvReplayInfo::getStartYear, COMDAT
; _this$ = ecx

; 445  : 	return m_iStartYear;

	mov	eax, DWORD PTR [ecx+104]

; 446  : }

	ret	0
?getStartYear@CvReplayInfo@@QBEHXZ ENDP			; CvReplayInfo::getStartYear
_TEXT	ENDS
PUBLIC	?getFinalTurn@CvReplayInfo@@QBEHXZ		; CvReplayInfo::getFinalTurn
; Function compile flags: /Ogtpy
;	COMDAT ?getFinalTurn@CvReplayInfo@@QBEHXZ
_TEXT	SEGMENT
?getFinalTurn@CvReplayInfo@@QBEHXZ PROC			; CvReplayInfo::getFinalTurn, COMDAT
; _this$ = ecx

; 450  : 	return m_iFinalTurn;

	mov	eax, DWORD PTR [ecx+100]

; 451  : }

	ret	0
?getFinalTurn@CvReplayInfo@@QBEHXZ ENDP			; CvReplayInfo::getFinalTurn
_TEXT	ENDS
PUBLIC	??1bad_alloc@std@@UAE@XZ			; std::bad_alloc::~bad_alloc
EXTRN	__imp_??1exception@std@@UAE@XZ:PROC
; Function compile flags: /Ogtpy
; File c:\program files (x86)\microsoft visual studio 9.0\vc\include\exception
;	COMDAT ??1bad_alloc@std@@UAE@XZ
_TEXT	SEGMENT
??1bad_alloc@std@@UAE@XZ PROC				; std::bad_alloc::~bad_alloc, COMDAT
; _this$ = ecx

; 380  : 		{	// destroy the object

	mov	DWORD PTR [ecx], OFFSET ??_7bad_alloc@std@@6B@

; 381  : 		}

	jmp	DWORD PTR __imp_??1exception@std@@UAE@XZ
??1bad_alloc@std@@UAE@XZ ENDP				; std::bad_alloc::~bad_alloc
_TEXT	ENDS
EXTRN	??3@YAXPAX@Z:PROC				; operator delete
; Function compile flags: /Ogtpy
;	COMDAT ??_Gbad_alloc@std@@UAEPAXI@Z
_TEXT	SEGMENT
___flags$ = 8						; size = 4
??_Gbad_alloc@std@@UAEPAXI@Z PROC			; std::bad_alloc::`scalar deleting destructor', COMDAT
; _this$ = ecx
	push	esi
	mov	esi, ecx
	mov	DWORD PTR [esi], OFFSET ??_7bad_alloc@std@@6B@
	call	DWORD PTR __imp_??1exception@std@@UAE@XZ
	test	BYTE PTR ___flags$[esp], 1
	je	SHORT $LN6@scalar
	push	esi
	call	??3@YAXPAX@Z				; operator delete
	add	esp, 4
$LN6@scalar:
	mov	eax, esi
	pop	esi
	ret	4
??_Gbad_alloc@std@@UAEPAXI@Z ENDP			; std::bad_alloc::`scalar deleting destructor'
_TEXT	ENDS
PUBLIC	?getCalendar@CvReplayInfo@@QBE?AW4CalendarTypes@@XZ ; CvReplayInfo::getCalendar
; Function compile flags: /Ogtpy
; File c:\users\enormousapplepie\desktop\lekmod dll versions\v31\lekmod_dll\cvgamecoredll_expansion2\cvreplayinfo.cpp
;	COMDAT ?getCalendar@CvReplayInfo@@QBE?AW4CalendarTypes@@XZ
_TEXT	SEGMENT
?getCalendar@CvReplayInfo@@QBE?AW4CalendarTypes@@XZ PROC ; CvReplayInfo::getCalendar, COMDAT
; _this$ = ecx

; 460  : 	return m_eCalendar;

	mov	eax, DWORD PTR [ecx+136]

; 461  : }

	ret	0
?getCalendar@CvReplayInfo@@QBE?AW4CalendarTypes@@XZ ENDP ; CvReplayInfo::getCalendar
_TEXT	ENDS
PUBLIC	??2@YAPAXIPAX@Z					; operator new
; Function compile flags: /Ogtpy
; File c:\program files (x86)\microsoft visual studio 9.0\vc\include\new
;	COMDAT ??2@YAPAXIPAX@Z
_TEXT	SEGMENT
___formal$ = 8						; size = 4
__Where$ = 12						; size = 4
??2@YAPAXIPAX@Z PROC					; operator new, COMDAT

; 59   : 	return (_Where);

	mov	eax, DWORD PTR __Where$[esp-4]

; 60   : 	}

	ret	0
??2@YAPAXIPAX@Z ENDP					; operator new
_TEXT	ENDS
PUBLIC	??3@YAXPAX0@Z					; operator delete
; Function compile flags: /Ogtpy
;	COMDAT ??3@YAXPAX0@Z
_TEXT	SEGMENT
___formal$ = 8						; size = 4
___formal$ = 12						; size = 4
??3@YAXPAX0@Z PROC					; operator delete, COMDAT

; 64   : 	}

	ret	0
??3@YAXPAX0@Z ENDP					; operator delete
_TEXT	ENDS
PUBLIC	?getNormalizedScore@CvReplayInfo@@QBEHXZ	; CvReplayInfo::getNormalizedScore
; Function compile flags: /Ogtpy
; File c:\users\enormousapplepie\desktop\lekmod dll versions\v31\lekmod_dll\cvgamecoredll_expansion2\cvreplayinfo.cpp
;	COMDAT ?getNormalizedScore@CvReplayInfo@@QBEHXZ
_TEXT	SEGMENT
?getNormalizedScore@CvReplayInfo@@QBEHXZ PROC		; CvReplayInfo::getNormalizedScore, COMDAT
; _this$ = ecx

; 497  : 	return m_iNormalizedScore;

	mov	eax, DWORD PTR [ecx+140]

; 498  : }

	ret	0
?getNormalizedScore@CvReplayInfo@@QBEHXZ ENDP		; CvReplayInfo::getNormalizedScore
_TEXT	ENDS
PUBLIC	?getMapHeight@CvReplayInfo@@QBEHXZ		; CvReplayInfo::getMapHeight
; Function compile flags: /Ogtpy
;	COMDAT ?getMapHeight@CvReplayInfo@@QBEHXZ
_TEXT	SEGMENT
?getMapHeight@CvReplayInfo@@QBEHXZ PROC			; CvReplayInfo::getMapHeight, COMDAT
; _this$ = ecx

; 502  : 	return m_iMapHeight;

	mov	eax, DWORD PTR [ecx+208]

; 503  : }

	ret	0
?getMapHeight@CvReplayInfo@@QBEHXZ ENDP			; CvReplayInfo::getMapHeight
_TEXT	ENDS
PUBLIC	?getMapWidth@CvReplayInfo@@QBEHXZ		; CvReplayInfo::getMapWidth
; Function compile flags: /Ogtpy
;	COMDAT ?getMapWidth@CvReplayInfo@@QBEHXZ
_TEXT	SEGMENT
?getMapWidth@CvReplayInfo@@QBEHXZ PROC			; CvReplayInfo::getMapWidth, COMDAT
; _this$ = ecx

; 507  : 	return m_iMapWidth;

	mov	eax, DWORD PTR [ecx+212]

; 508  : }

	ret	0
?getMapWidth@CvReplayInfo@@QBEHXZ ENDP			; CvReplayInfo::getMapWidth
_TEXT	ENDS
PUBLIC	??_7logic_error@std@@6B@			; std::logic_error::`vftable'
PUBLIC	??0logic_error@std@@QAE@ABV?$basic_string@DU?$char_traits@D@std@@V?$allocator@D@2@@1@@Z ; std::logic_error::logic_error
PUBLIC	??_R4logic_error@std@@6B@			; std::logic_error::`RTTI Complete Object Locator'
PUBLIC	??_R0?AVlogic_error@std@@@8			; std::logic_error `RTTI Type Descriptor'
PUBLIC	??_R3logic_error@std@@8				; std::logic_error::`RTTI Class Hierarchy Descriptor'
PUBLIC	??_R2logic_error@std@@8				; std::logic_error::`RTTI Base Class Array'
PUBLIC	??_R1A@?0A@EA@logic_error@std@@8		; std::logic_error::`RTTI Base Class Descriptor at (0,-1,0,64)'
PUBLIC	?what@logic_error@std@@UBEPBDXZ			; std::logic_error::what
EXTRN	__imp_??0?$basic_string@DU?$char_traits@D@std@@V?$allocator@D@2@@std@@QAE@ABV01@@Z:PROC
EXTRN	__imp_??0exception@std@@QAE@XZ:PROC
EXTRN	___CxxFrameHandler3:PROC
EXTRN	??_Elogic_error@std@@UAEPAXI@Z:PROC		; std::logic_error::`vector deleting destructor'
;	COMDAT ??_R1A@?0A@EA@logic_error@std@@8
; File c:\program files (x86)\microsoft visual studio 9.0\vc\include\stdexcept
rdata$r	SEGMENT
??_R1A@?0A@EA@logic_error@std@@8 DD FLAT:??_R0?AVlogic_error@std@@@8 ; std::logic_error::`RTTI Base Class Descriptor at (0,-1,0,64)'
	DD	01H
	DD	00H
	DD	0ffffffffH
	DD	00H
	DD	040H
	DD	FLAT:??_R3logic_error@std@@8
rdata$r	ENDS
;	COMDAT ??_R2logic_error@std@@8
rdata$r	SEGMENT
??_R2logic_error@std@@8 DD FLAT:??_R1A@?0A@EA@logic_error@std@@8 ; std::logic_error::`RTTI Base Class Array'
	DD	FLAT:??_R1A@?0A@EA@exception@std@@8
rdata$r	ENDS
;	COMDAT ??_R3logic_error@std@@8
rdata$r	SEGMENT
??_R3logic_error@std@@8 DD 00H				; std::logic_error::`RTTI Class Hierarchy Descriptor'
	DD	00H
	DD	02H
	DD	FLAT:??_R2logic_error@std@@8
rdata$r	ENDS
;	COMDAT ??_R0?AVlogic_error@std@@@8
_DATA	SEGMENT
??_R0?AVlogic_error@std@@@8 DD FLAT:??_7type_info@@6B@	; std::logic_error `RTTI Type Descriptor'
	DD	00H
	DB	'.?AVlogic_error@std@@', 00H
_DATA	ENDS
;	COMDAT ??_R4logic_error@std@@6B@
rdata$r	SEGMENT
??_R4logic_error@std@@6B@ DD 00H			; std::logic_error::`RTTI Complete Object Locator'
	DD	00H
	DD	00H
	DD	FLAT:??_R0?AVlogic_error@std@@@8
	DD	FLAT:??_R3logic_error@std@@8
rdata$r	ENDS
;	COMDAT ??_7logic_error@std@@6B@
CONST	SEGMENT
??_7logic_error@std@@6B@ DD FLAT:??_R4logic_error@std@@6B@ ; std::logic_error::`vftable'
	DD	FLAT:??_Elogic_error@std@@UAEPAXI@Z
	DD	FLAT:?what@logic_error@std@@UBEPBDXZ
CONST	ENDS
;	COMDAT xdata$x
xdata$x	SEGMENT
__unwindtable$??0logic_error@std@@QAE@ABV?$basic_string@DU?$char_traits@D@std@@V?$allocator@D@2@@1@@Z DD 0ffffffffH
	DD	FLAT:__unwindfunclet$??0logic_error@std@@QAE@ABV?$basic_string@DU?$char_traits@D@std@@V?$allocator@D@2@@1@@Z$0
__ehfuncinfo$??0logic_error@std@@QAE@ABV?$basic_string@DU?$char_traits@D@std@@V?$allocator@D@2@@1@@Z DD 019930522H
	DD	01H
	DD	FLAT:__unwindtable$??0logic_error@std@@QAE@ABV?$basic_string@DU?$char_traits@D@std@@V?$allocator@D@2@@1@@Z
	DD	2 DUP(00H)
	DD	2 DUP(00H)
	DD	00H
	DD	01H
; Function compile flags: /Ogtpy
xdata$x	ENDS
;	COMDAT ??0logic_error@std@@QAE@ABV?$basic_string@DU?$char_traits@D@std@@V?$allocator@D@2@@1@@Z
_TEXT	SEGMENT
_this$ = -16						; size = 4
__$EHRec$ = -12						; size = 12
__Message$ = 8						; size = 4
??0logic_error@std@@QAE@ABV?$basic_string@DU?$char_traits@D@std@@V?$allocator@D@2@@1@@Z PROC ; std::logic_error::logic_error, COMDAT
; _this$ = ecx

; 26   : 		{	// construct from message string

	push	-1
	push	__ehhandler$??0logic_error@std@@QAE@ABV?$basic_string@DU?$char_traits@D@std@@V?$allocator@D@2@@1@@Z
	mov	eax, DWORD PTR fs:0
	push	eax
	mov	DWORD PTR fs:0, esp
	push	ecx
	push	esi
	mov	esi, ecx
	mov	DWORD PTR _this$[esp+20], esi
	call	DWORD PTR __imp_??0exception@std@@QAE@XZ
	mov	eax, DWORD PTR __Message$[esp+16]
	push	eax
	lea	ecx, DWORD PTR [esi+12]
	mov	DWORD PTR __$EHRec$[esp+32], 0
	mov	DWORD PTR [esi], OFFSET ??_7logic_error@std@@6B@
	call	DWORD PTR __imp_??0?$basic_string@DU?$char_traits@D@std@@V?$allocator@D@2@@std@@QAE@ABV01@@Z

; 27   : 		}

	mov	ecx, DWORD PTR __$EHRec$[esp+20]
	mov	eax, esi
	pop	esi
	mov	DWORD PTR fs:0, ecx
	add	esp, 16					; 00000010H
	ret	4
_TEXT	ENDS
;	COMDAT text$x
text$x	SEGMENT
__unwindfunclet$??0logic_error@std@@QAE@ABV?$basic_string@DU?$char_traits@D@std@@V?$allocator@D@2@@1@@Z$0:
	mov	ecx, DWORD PTR _this$[ebp]
	jmp	DWORD PTR __imp_??1exception@std@@UAE@XZ
__ehhandler$??0logic_error@std@@QAE@ABV?$basic_string@DU?$char_traits@D@std@@V?$allocator@D@2@@1@@Z:
	mov	eax, OFFSET __ehfuncinfo$??0logic_error@std@@QAE@ABV?$basic_string@DU?$char_traits@D@std@@V?$allocator@D@2@@1@@Z
	jmp	___CxxFrameHandler3
text$x	ENDS
??0logic_error@std@@QAE@ABV?$basic_string@DU?$char_traits@D@std@@V?$allocator@D@2@@1@@Z ENDP ; std::logic_error::logic_error
PUBLIC	??1logic_error@std@@UAE@XZ			; std::logic_error::~logic_error
EXTRN	__imp_??1?$basic_string@DU?$char_traits@D@std@@V?$allocator@D@2@@std@@QAE@XZ:PROC
; Function compile flags: /Ogtpy
;	COMDAT ??1logic_error@std@@UAE@XZ
_TEXT	SEGMENT
??1logic_error@std@@UAE@XZ PROC				; std::logic_error::~logic_error, COMDAT
; _this$ = ecx

; 30   : 		{	// destroy the object

	push	esi
	mov	esi, ecx

; 31   : 		}

	lea	ecx, DWORD PTR [esi+12]
	mov	DWORD PTR [esi], OFFSET ??_7logic_error@std@@6B@
	call	DWORD PTR __imp_??1?$basic_string@DU?$char_traits@D@std@@V?$allocator@D@2@@std@@QAE@XZ
	mov	ecx, esi
	pop	esi
	jmp	DWORD PTR __imp_??1exception@std@@UAE@XZ
??1logic_error@std@@UAE@XZ ENDP				; std::logic_error::~logic_error
_TEXT	ENDS
EXTRN	__imp_?c_str@?$basic_string@DU?$char_traits@D@std@@V?$allocator@D@2@@std@@QBEPBDXZ:PROC
; Function compile flags: /Ogtpy
;	COMDAT ?what@logic_error@std@@UBEPBDXZ
_TEXT	SEGMENT
?what@logic_error@std@@UBEPBDXZ PROC			; std::logic_error::what, COMDAT
; _this$ = ecx

; 35   : 		return (_Str.c_str());

	add	ecx, 12					; 0000000cH
	jmp	DWORD PTR __imp_?c_str@?$basic_string@DU?$char_traits@D@std@@V?$allocator@D@2@@std@@QBEPBDXZ
?what@logic_error@std@@UBEPBDXZ ENDP			; std::logic_error::what
; Function compile flags: /Ogtpy
_TEXT	ENDS
;	COMDAT ??_Glogic_error@std@@UAEPAXI@Z
_TEXT	SEGMENT
___flags$ = 8						; size = 4
??_Glogic_error@std@@UAEPAXI@Z PROC			; std::logic_error::`scalar deleting destructor', COMDAT
; _this$ = ecx
	push	esi
	mov	esi, ecx
	lea	ecx, DWORD PTR [esi+12]
	mov	DWORD PTR [esi], OFFSET ??_7logic_error@std@@6B@
	call	DWORD PTR __imp_??1?$basic_string@DU?$char_traits@D@std@@V?$allocator@D@2@@std@@QAE@XZ
	mov	ecx, esi
	call	DWORD PTR __imp_??1exception@std@@UAE@XZ
	test	BYTE PTR ___flags$[esp], 1
	je	SHORT $LN6@scalar@2
	push	esi
	call	??3@YAXPAX@Z				; operator delete
	add	esp, 4
$LN6@scalar@2:
	mov	eax, esi
	pop	esi
	ret	4
??_Glogic_error@std@@UAEPAXI@Z ENDP			; std::logic_error::`scalar deleting destructor'
_TEXT	ENDS
PUBLIC	??_7length_error@std@@6B@			; std::length_error::`vftable'
PUBLIC	??0length_error@std@@QAE@ABV?$basic_string@DU?$char_traits@D@std@@V?$allocator@D@2@@1@@Z ; std::length_error::length_error
PUBLIC	??_R4length_error@std@@6B@			; std::length_error::`RTTI Complete Object Locator'
PUBLIC	??_R0?AVlength_error@std@@@8			; std::length_error `RTTI Type Descriptor'
PUBLIC	??_R3length_error@std@@8			; std::length_error::`RTTI Class Hierarchy Descriptor'
PUBLIC	??_R2length_error@std@@8			; std::length_error::`RTTI Base Class Array'
PUBLIC	??_R1A@?0A@EA@length_error@std@@8		; std::length_error::`RTTI Base Class Descriptor at (0,-1,0,64)'
EXTRN	??_Elength_error@std@@UAEPAXI@Z:PROC		; std::length_error::`vector deleting destructor'
;	COMDAT ??_R1A@?0A@EA@length_error@std@@8
rdata$r	SEGMENT
??_R1A@?0A@EA@length_error@std@@8 DD FLAT:??_R0?AVlength_error@std@@@8 ; std::length_error::`RTTI Base Class Descriptor at (0,-1,0,64)'
	DD	02H
	DD	00H
	DD	0ffffffffH
	DD	00H
	DD	040H
	DD	FLAT:??_R3length_error@std@@8
rdata$r	ENDS
;	COMDAT ??_R2length_error@std@@8
rdata$r	SEGMENT
??_R2length_error@std@@8 DD FLAT:??_R1A@?0A@EA@length_error@std@@8 ; std::length_error::`RTTI Base Class Array'
	DD	FLAT:??_R1A@?0A@EA@logic_error@std@@8
	DD	FLAT:??_R1A@?0A@EA@exception@std@@8
rdata$r	ENDS
;	COMDAT ??_R3length_error@std@@8
rdata$r	SEGMENT
??_R3length_error@std@@8 DD 00H				; std::length_error::`RTTI Class Hierarchy Descriptor'
	DD	00H
	DD	03H
	DD	FLAT:??_R2length_error@std@@8
rdata$r	ENDS
;	COMDAT ??_R0?AVlength_error@std@@@8
_DATA	SEGMENT
??_R0?AVlength_error@std@@@8 DD FLAT:??_7type_info@@6B@	; std::length_error `RTTI Type Descriptor'
	DD	00H
	DB	'.?AVlength_error@std@@', 00H
_DATA	ENDS
;	COMDAT ??_R4length_error@std@@6B@
rdata$r	SEGMENT
??_R4length_error@std@@6B@ DD 00H			; std::length_error::`RTTI Complete Object Locator'
	DD	00H
	DD	00H
	DD	FLAT:??_R0?AVlength_error@std@@@8
	DD	FLAT:??_R3length_error@std@@8
rdata$r	ENDS
;	COMDAT ??_7length_error@std@@6B@
CONST	SEGMENT
??_7length_error@std@@6B@ DD FLAT:??_R4length_error@std@@6B@ ; std::length_error::`vftable'
	DD	FLAT:??_Elength_error@std@@UAEPAXI@Z
	DD	FLAT:?what@logic_error@std@@UBEPBDXZ
; Function compile flags: /Ogtpy
CONST	ENDS
;	COMDAT ??0length_error@std@@QAE@ABV?$basic_string@DU?$char_traits@D@std@@V?$allocator@D@2@@1@@Z
_TEXT	SEGMENT
__Message$ = 8						; size = 4
??0length_error@std@@QAE@ABV?$basic_string@DU?$char_traits@D@std@@V?$allocator@D@2@@1@@Z PROC ; std::length_error::length_error, COMDAT
; _this$ = ecx

; 105  : 		{	// construct from message string

	mov	eax, DWORD PTR __Message$[esp-4]
	push	esi
	push	eax
	mov	esi, ecx
	call	??0logic_error@std@@QAE@ABV?$basic_string@DU?$char_traits@D@std@@V?$allocator@D@2@@1@@Z ; std::logic_error::logic_error
	mov	DWORD PTR [esi], OFFSET ??_7length_error@std@@6B@

; 106  : 		}

	mov	eax, esi
	pop	esi
	ret	4
??0length_error@std@@QAE@ABV?$basic_string@DU?$char_traits@D@std@@V?$allocator@D@2@@1@@Z ENDP ; std::length_error::length_error
_TEXT	ENDS
PUBLIC	??1length_error@std@@UAE@XZ			; std::length_error::~length_error
; Function compile flags: /Ogtpy
;	COMDAT ??1length_error@std@@UAE@XZ
_TEXT	SEGMENT
??1length_error@std@@UAE@XZ PROC			; std::length_error::~length_error, COMDAT
; _this$ = ecx

; 109  : 		{	// destroy the object

	push	esi
	mov	esi, ecx

; 110  : 		}

	lea	ecx, DWORD PTR [esi+12]
	mov	DWORD PTR [esi], OFFSET ??_7logic_error@std@@6B@
	call	DWORD PTR __imp_??1?$basic_string@DU?$char_traits@D@std@@V?$allocator@D@2@@std@@QAE@XZ
	mov	ecx, esi
	pop	esi
	jmp	DWORD PTR __imp_??1exception@std@@UAE@XZ
??1length_error@std@@UAE@XZ ENDP			; std::length_error::~length_error
; Function compile flags: /Ogtpy
_TEXT	ENDS
;	COMDAT ??_Glength_error@std@@UAEPAXI@Z
_TEXT	SEGMENT
___flags$ = 8						; size = 4
??_Glength_error@std@@UAEPAXI@Z PROC			; std::length_error::`scalar deleting destructor', COMDAT
; _this$ = ecx
	push	esi
	mov	esi, ecx
	lea	ecx, DWORD PTR [esi+12]
	mov	DWORD PTR [esi], OFFSET ??_7logic_error@std@@6B@
	call	DWORD PTR __imp_??1?$basic_string@DU?$char_traits@D@std@@V?$allocator@D@2@@std@@QAE@XZ
	mov	ecx, esi
	call	DWORD PTR __imp_??1exception@std@@UAE@XZ
	test	BYTE PTR ___flags$[esp], 1
	je	SHORT $LN8@scalar@3
	push	esi
	call	??3@YAXPAX@Z				; operator delete
	add	esp, 4
$LN8@scalar@3:
	mov	eax, esi
	pop	esi
	ret	4
??_Glength_error@std@@UAEPAXI@Z ENDP			; std::length_error::`scalar deleting destructor'
_TEXT	ENDS
PUBLIC	??_7out_of_range@std@@6B@			; std::out_of_range::`vftable'
PUBLIC	??0out_of_range@std@@QAE@ABV?$basic_string@DU?$char_traits@D@std@@V?$allocator@D@2@@1@@Z ; std::out_of_range::out_of_range
PUBLIC	??_R4out_of_range@std@@6B@			; std::out_of_range::`RTTI Complete Object Locator'
PUBLIC	??_R0?AVout_of_range@std@@@8			; std::out_of_range `RTTI Type Descriptor'
PUBLIC	??_R3out_of_range@std@@8			; std::out_of_range::`RTTI Class Hierarchy Descriptor'
PUBLIC	??_R2out_of_range@std@@8			; std::out_of_range::`RTTI Base Class Array'
PUBLIC	??_R1A@?0A@EA@out_of_range@std@@8		; std::out_of_range::`RTTI Base Class Descriptor at (0,-1,0,64)'
EXTRN	??_Eout_of_range@std@@UAEPAXI@Z:PROC		; std::out_of_range::`vector deleting destructor'
;	COMDAT ??_R1A@?0A@EA@out_of_range@std@@8
rdata$r	SEGMENT
??_R1A@?0A@EA@out_of_range@std@@8 DD FLAT:??_R0?AVout_of_range@std@@@8 ; std::out_of_range::`RTTI Base Class Descriptor at (0,-1,0,64)'
	DD	02H
	DD	00H
	DD	0ffffffffH
	DD	00H
	DD	040H
	DD	FLAT:??_R3out_of_range@std@@8
rdata$r	ENDS
;	COMDAT ??_R2out_of_range@std@@8
rdata$r	SEGMENT
??_R2out_of_range@std@@8 DD FLAT:??_R1A@?0A@EA@out_of_range@std@@8 ; std::out_of_range::`RTTI Base Class Array'
	DD	FLAT:??_R1A@?0A@EA@logic_error@std@@8
	DD	FLAT:??_R1A@?0A@EA@exception@std@@8
rdata$r	ENDS
;	COMDAT ??_R3out_of_range@std@@8
rdata$r	SEGMENT
??_R3out_of_range@std@@8 DD 00H				; std::out_of_range::`RTTI Class Hierarchy Descriptor'
	DD	00H
	DD	03H
	DD	FLAT:??_R2out_of_range@std@@8
rdata$r	ENDS
;	COMDAT ??_R0?AVout_of_range@std@@@8
_DATA	SEGMENT
??_R0?AVout_of_range@std@@@8 DD FLAT:??_7type_info@@6B@	; std::out_of_range `RTTI Type Descriptor'
	DD	00H
	DB	'.?AVout_of_range@std@@', 00H
_DATA	ENDS
;	COMDAT ??_R4out_of_range@std@@6B@
rdata$r	SEGMENT
??_R4out_of_range@std@@6B@ DD 00H			; std::out_of_range::`RTTI Complete Object Locator'
	DD	00H
	DD	00H
	DD	FLAT:??_R0?AVout_of_range@std@@@8
	DD	FLAT:??_R3out_of_range@std@@8
rdata$r	ENDS
;	COMDAT ??_7out_of_range@std@@6B@
CONST	SEGMENT
??_7out_of_range@std@@6B@ DD FLAT:??_R4out_of_range@std@@6B@ ; std::out_of_range::`vftable'
	DD	FLAT:??_Eout_of_range@std@@UAEPAXI@Z
	DD	FLAT:?what@logic_error@std@@UBEPBDXZ
; Function compile flags: /Ogtpy
CONST	ENDS
;	COMDAT ??0out_of_range@std@@QAE@ABV?$basic_string@DU?$char_traits@D@std@@V?$allocator@D@2@@1@@Z
_TEXT	SEGMENT
__Message$ = 8						; size = 4
??0out_of_range@std@@QAE@ABV?$basic_string@DU?$char_traits@D@std@@V?$allocator@D@2@@1@@Z PROC ; std::out_of_range::out_of_range, COMDAT
; _this$ = ecx

; 129  : 		{	// construct from message string

	mov	eax, DWORD PTR __Message$[esp-4]
	push	esi
	push	eax
	mov	esi, ecx
	call	??0logic_error@std@@QAE@ABV?$basic_string@DU?$char_traits@D@std@@V?$allocator@D@2@@1@@Z ; std::logic_error::logic_error
	mov	DWORD PTR [esi], OFFSET ??_7out_of_range@std@@6B@

; 130  : 		}

	mov	eax, esi
	pop	esi
	ret	4
??0out_of_range@std@@QAE@ABV?$basic_string@DU?$char_traits@D@std@@V?$allocator@D@2@@1@@Z ENDP ; std::out_of_range::out_of_range
_TEXT	ENDS
PUBLIC	??1out_of_range@std@@UAE@XZ			; std::out_of_range::~out_of_range
; Function compile flags: /Ogtpy
;	COMDAT ??1out_of_range@std@@UAE@XZ
_TEXT	SEGMENT
??1out_of_range@std@@UAE@XZ PROC			; std::out_of_range::~out_of_range, COMDAT
; _this$ = ecx

; 133  : 		{	// destroy the object

	push	esi
	mov	esi, ecx

; 134  : 		}

	lea	ecx, DWORD PTR [esi+12]
	mov	DWORD PTR [esi], OFFSET ??_7logic_error@std@@6B@
	call	DWORD PTR __imp_??1?$basic_string@DU?$char_traits@D@std@@V?$allocator@D@2@@std@@QAE@XZ
	mov	ecx, esi
	pop	esi
	jmp	DWORD PTR __imp_??1exception@std@@UAE@XZ
??1out_of_range@std@@UAE@XZ ENDP			; std::out_of_range::~out_of_range
; Function compile flags: /Ogtpy
_TEXT	ENDS
;	COMDAT ??_Gout_of_range@std@@UAEPAXI@Z
_TEXT	SEGMENT
___flags$ = 8						; size = 4
??_Gout_of_range@std@@UAEPAXI@Z PROC			; std::out_of_range::`scalar deleting destructor', COMDAT
; _this$ = ecx
	push	esi
	mov	esi, ecx
	lea	ecx, DWORD PTR [esi+12]
	mov	DWORD PTR [esi], OFFSET ??_7logic_error@std@@6B@
	call	DWORD PTR __imp_??1?$basic_string@DU?$char_traits@D@std@@V?$allocator@D@2@@std@@QAE@XZ
	mov	ecx, esi
	call	DWORD PTR __imp_??1exception@std@@UAE@XZ
	test	BYTE PTR ___flags$[esp], 1
	je	SHORT $LN8@scalar@4
	push	esi
	call	??3@YAXPAX@Z				; operator delete
	add	esp, 4
$LN8@scalar@4:
	mov	eax, esi
	pop	esi
	ret	4
??_Gout_of_range@std@@UAEPAXI@Z ENDP			; std::out_of_range::`scalar deleting destructor'
_TEXT	ENDS
PUBLIC	?size@?$_Tree@V?$_Tmap_traits@IHU?$less@I@std@@V?$allocator@U?$pair@$$CBIH@std@@@2@$0A@@std@@@std@@QBEIXZ ; std::_Tree<std::_Tmap_traits<unsigned int,int,std::less<unsigned int>,std::allocator<std::pair<unsigned int const ,int> >,0> >::size
; Function compile flags: /Ogtpy
; File c:\program files (x86)\microsoft visual studio 9.0\vc\include\xtree
;	COMDAT ?size@?$_Tree@V?$_Tmap_traits@IHU?$less@I@std@@V?$allocator@U?$pair@$$CBIH@std@@@2@$0A@@std@@@std@@QBEIXZ
_TEXT	SEGMENT
?size@?$_Tree@V?$_Tmap_traits@IHU?$less@I@std@@V?$allocator@U?$pair@$$CBIH@std@@@2@$0A@@std@@@std@@QBEIXZ PROC ; std::_Tree<std::_Tmap_traits<unsigned int,int,std::less<unsigned int>,std::allocator<std::pair<unsigned int const ,int> >,0> >::size, COMDAT
; _this$ = ecx

; 601  : 		return (_Mysize);

	mov	eax, DWORD PTR [ecx+8]

; 602  : 		}

	ret	0
?size@?$_Tree@V?$_Tmap_traits@IHU?$less@I@std@@V?$allocator@U?$pair@$$CBIH@std@@@2@$0A@@std@@@std@@QBEIXZ ENDP ; std::_Tree<std::_Tmap_traits<unsigned int,int,std::less<unsigned int>,std::allocator<std::pair<unsigned int const ,int> >,0> >::size
_TEXT	ENDS
PUBLIC	?size@?$vector@V?$basic_string@DU?$char_traits@D@std@@V?$allocator@D@2@@std@@V?$allocator@V?$basic_string@DU?$char_traits@D@std@@V?$allocator@D@2@@std@@@2@@std@@QBEIXZ ; std::vector<std::basic_string<char,std::char_traits<char>,std::allocator<char> >,std::allocator<std::basic_string<char,std::char_traits<char>,std::allocator<char> > > >::size
; Function compile flags: /Ogtpy
; File c:\program files (x86)\microsoft visual studio 9.0\vc\include\vector
;	COMDAT ?size@?$vector@V?$basic_string@DU?$char_traits@D@std@@V?$allocator@D@2@@std@@V?$allocator@V?$basic_string@DU?$char_traits@D@std@@V?$allocator@D@2@@std@@@2@@std@@QBEIXZ
_TEXT	SEGMENT
?size@?$vector@V?$basic_string@DU?$char_traits@D@std@@V?$allocator@D@2@@std@@V?$allocator@V?$basic_string@DU?$char_traits@D@std@@V?$allocator@D@2@@std@@@2@@std@@QBEIXZ PROC ; std::vector<std::basic_string<char,std::char_traits<char>,std::allocator<char> >,std::allocator<std::basic_string<char,std::char_traits<char>,std::allocator<char> > > >::size, COMDAT
; _this$ = ecx

; 725  : 		{	// return length of sequence

	push	esi

; 726  : 		return (_Mylast - _Myfirst);

	mov	esi, DWORD PTR [ecx+8]
	sub	esi, DWORD PTR [ecx+4]
	mov	eax, -1840700269			; 92492493H
	imul	esi
	add	edx, esi
	sar	edx, 4
	mov	eax, edx
	shr	eax, 31					; 0000001fH
	add	eax, edx
	pop	esi

; 727  : 		}

	ret	0
?size@?$vector@V?$basic_string@DU?$char_traits@D@std@@V?$allocator@D@2@@std@@V?$allocator@V?$basic_string@DU?$char_traits@D@std@@V?$allocator@D@2@@std@@@2@@std@@QBEIXZ ENDP ; std::vector<std::basic_string<char,std::char_traits<char>,std::allocator<char> >,std::allocator<std::basic_string<char,std::char_traits<char>,std::allocator<char> > > >::size
_TEXT	ENDS
PUBLIC	??A?$vector@V?$basic_string@DU?$char_traits@D@std@@V?$allocator@D@2@@std@@V?$allocator@V?$basic_string@DU?$char_traits@D@std@@V?$allocator@D@2@@std@@@2@@std@@QBEABV?$basic_string@DU?$char_traits@D@std@@V?$allocator@D@2@@1@I@Z ; std::vector<std::basic_string<char,std::char_traits<char>,std::allocator<char> >,std::allocator<std::basic_string<char,std::char_traits<char>,std::allocator<char> > > >::operator[]
; Function compile flags: /Ogtpy
;	COMDAT ??A?$vector@V?$basic_string@DU?$char_traits@D@std@@V?$allocator@D@2@@std@@V?$allocator@V?$basic_string@DU?$char_traits@D@std@@V?$allocator@D@2@@std@@@2@@std@@QBEABV?$basic_string@DU?$char_traits@D@std@@V?$allocator@D@2@@1@I@Z
_TEXT	SEGMENT
__Pos$ = 8						; size = 4
??A?$vector@V?$basic_string@DU?$char_traits@D@std@@V?$allocator@D@2@@std@@V?$allocator@V?$basic_string@DU?$char_traits@D@std@@V?$allocator@D@2@@std@@@2@@std@@QBEABV?$basic_string@DU?$char_traits@D@std@@V?$allocator@D@2@@1@I@Z PROC ; std::vector<std::basic_string<char,std::char_traits<char>,std::allocator<char> >,std::allocator<std::basic_string<char,std::char_traits<char>,std::allocator<char> > > >::operator[], COMDAT
; _this$ = ecx

; 760  : 
; 761  :  #if _HAS_ITERATOR_DEBUGGING
; 762  : 		if (size() <= _Pos)
; 763  : 			{
; 764  : 			_DEBUG_ERROR("vector subscript out of range");
; 765  : 			_SCL_SECURE_OUT_OF_RANGE;
; 766  : 			}
; 767  :  #endif /* _HAS_ITERATOR_DEBUGGING */
; 768  : 		_SCL_SECURE_VALIDATE_RANGE(_Pos < size());
; 769  : 
; 770  : 		return (*(_Myfirst + _Pos));

	mov	eax, DWORD PTR __Pos$[esp-4]
	lea	edx, DWORD PTR [eax*8]
	sub	edx, eax
	mov	eax, DWORD PTR [ecx+4]
	lea	eax, DWORD PTR [eax+edx*4]

; 771  : 		}

	ret	4
??A?$vector@V?$basic_string@DU?$char_traits@D@std@@V?$allocator@D@2@@std@@V?$allocator@V?$basic_string@DU?$char_traits@D@std@@V?$allocator@D@2@@std@@@2@@std@@QBEABV?$basic_string@DU?$char_traits@D@std@@V?$allocator@D@2@@1@I@Z ENDP ; std::vector<std::basic_string<char,std::char_traits<char>,std::allocator<char> >,std::allocator<std::basic_string<char,std::char_traits<char>,std::allocator<char> > > >::operator[]
_TEXT	ENDS
PUBLIC	??A?$vector@V?$basic_string@DU?$char_traits@D@std@@V?$allocator@D@2@@std@@V?$allocator@V?$basic_string@DU?$char_traits@D@std@@V?$allocator@D@2@@std@@@2@@std@@QAEAAV?$basic_string@DU?$char_traits@D@std@@V?$allocator@D@2@@1@I@Z ; std::vector<std::basic_string<char,std::char_traits<char>,std::allocator<char> >,std::allocator<std::basic_string<char,std::char_traits<char>,std::allocator<char> > > >::operator[]
; Function compile flags: /Ogtpy
;	COMDAT ??A?$vector@V?$basic_string@DU?$char_traits@D@std@@V?$allocator@D@2@@std@@V?$allocator@V?$basic_string@DU?$char_traits@D@std@@V?$allocator@D@2@@std@@@2@@std@@QAEAAV?$basic_string@DU?$char_traits@D@std@@V?$allocator@D@2@@1@I@Z
_TEXT	SEGMENT
__Pos$ = 8						; size = 4
??A?$vector@V?$basic_string@DU?$char_traits@D@std@@V?$allocator@D@2@@std@@V?$allocator@V?$basic_string@DU?$char_traits@D@std@@V?$allocator@D@2@@std@@@2@@std@@QAEAAV?$basic_string@DU?$char_traits@D@std@@V?$allocator@D@2@@1@I@Z PROC ; std::vector<std::basic_string<char,std::char_traits<char>,std::allocator<char> >,std::allocator<std::basic_string<char,std::char_traits<char>,std::allocator<char> > > >::operator[], COMDAT
; _this$ = ecx

; 775  : 
; 776  :  #if _HAS_ITERATOR_DEBUGGING
; 777  : 		if (size() <= _Pos)
; 778  : 			{
; 779  : 			_DEBUG_ERROR("vector subscript out of range");
; 780  : 			_SCL_SECURE_OUT_OF_RANGE;
; 781  : 			}
; 782  :  #endif /* _HAS_ITERATOR_DEBUGGING */
; 783  : 		_SCL_SECURE_VALIDATE_RANGE(_Pos < size());
; 784  : 
; 785  : 		return (*(_Myfirst + _Pos));

	mov	eax, DWORD PTR __Pos$[esp-4]
	lea	edx, DWORD PTR [eax*8]
	sub	edx, eax
	mov	eax, DWORD PTR [ecx+4]
	lea	eax, DWORD PTR [eax+edx*4]

; 786  : 		}

	ret	4
??A?$vector@V?$basic_string@DU?$char_traits@D@std@@V?$allocator@D@2@@std@@V?$allocator@V?$basic_string@DU?$char_traits@D@std@@V?$allocator@D@2@@std@@@2@@std@@QAEAAV?$basic_string@DU?$char_traits@D@std@@V?$allocator@D@2@@1@I@Z ENDP ; std::vector<std::basic_string<char,std::char_traits<char>,std::allocator<char> >,std::allocator<std::basic_string<char,std::char_traits<char>,std::allocator<char> > > >::operator[]
_TEXT	ENDS
PUBLIC	?size@?$vector@VCvReplayMessage@@V?$allocator@VCvReplayMessage@@@std@@@std@@QBEIXZ ; std::vector<CvReplayMessage,std::allocator<CvReplayMessage> >::size
; Function compile flags: /Ogtpy
;	COMDAT ?size@?$vector@VCvReplayMessage@@V?$allocator@VCvReplayMessage@@@std@@@std@@QBEIXZ
_TEXT	SEGMENT
?size@?$vector@VCvReplayMessage@@V?$allocator@VCvReplayMessage@@@std@@@std@@QBEIXZ PROC ; std::vector<CvReplayMessage,std::allocator<CvReplayMessage> >::size, COMDAT
; _this$ = ecx

; 725  : 		{	// return length of sequence

	push	esi

; 726  : 		return (_Mylast - _Myfirst);

	mov	esi, DWORD PTR [ecx+8]
	sub	esi, DWORD PTR [ecx+4]
	mov	eax, -2004318071			; 88888889H
	imul	esi
	add	edx, esi
	sar	edx, 5
	mov	eax, edx
	shr	eax, 31					; 0000001fH
	add	eax, edx
	pop	esi

; 727  : 		}

	ret	0
?size@?$vector@VCvReplayMessage@@V?$allocator@VCvReplayMessage@@@std@@@std@@QBEIXZ ENDP ; std::vector<CvReplayMessage,std::allocator<CvReplayMessage> >::size
_TEXT	ENDS
PUBLIC	??A?$vector@VCvReplayMessage@@V?$allocator@VCvReplayMessage@@@std@@@std@@QBEABVCvReplayMessage@@I@Z ; std::vector<CvReplayMessage,std::allocator<CvReplayMessage> >::operator[]
; Function compile flags: /Ogtpy
;	COMDAT ??A?$vector@VCvReplayMessage@@V?$allocator@VCvReplayMessage@@@std@@@std@@QBEABVCvReplayMessage@@I@Z
_TEXT	SEGMENT
__Pos$ = 8						; size = 4
??A?$vector@VCvReplayMessage@@V?$allocator@VCvReplayMessage@@@std@@@std@@QBEABVCvReplayMessage@@I@Z PROC ; std::vector<CvReplayMessage,std::allocator<CvReplayMessage> >::operator[], COMDAT
; _this$ = ecx

; 760  : 
; 761  :  #if _HAS_ITERATOR_DEBUGGING
; 762  : 		if (size() <= _Pos)
; 763  : 			{
; 764  : 			_DEBUG_ERROR("vector subscript out of range");
; 765  : 			_SCL_SECURE_OUT_OF_RANGE;
; 766  : 			}
; 767  :  #endif /* _HAS_ITERATOR_DEBUGGING */
; 768  : 		_SCL_SECURE_VALIDATE_RANGE(_Pos < size());
; 769  : 
; 770  : 		return (*(_Myfirst + _Pos));

	mov	eax, DWORD PTR __Pos$[esp-4]
	mov	edx, eax
	shl	edx, 4
	sub	edx, eax
	mov	eax, DWORD PTR [ecx+4]
	lea	eax, DWORD PTR [eax+edx*4]

; 771  : 		}

	ret	4
??A?$vector@VCvReplayMessage@@V?$allocator@VCvReplayMessage@@@std@@@std@@QBEABVCvReplayMessage@@I@Z ENDP ; std::vector<CvReplayMessage,std::allocator<CvReplayMessage> >::operator[]
_TEXT	ENDS
PUBLIC	??A?$vector@V?$map@IHU?$less@I@std@@V?$allocator@U?$pair@$$CBIH@std@@@2@@std@@V?$allocator@V?$map@IHU?$less@I@std@@V?$allocator@U?$pair@$$CBIH@std@@@2@@std@@@2@@std@@QBEABV?$map@IHU?$less@I@std@@V?$allocator@U?$pair@$$CBIH@std@@@2@@1@I@Z ; std::vector<std::map<unsigned int,int,std::less<unsigned int>,std::allocator<std::pair<unsigned int const ,int> > >,std::allocator<std::map<unsigned int,int,std::less<unsigned int>,std::allocator<std::pair<unsigned int const ,int> > > > >::operator[]
; Function compile flags: /Ogtpy
;	COMDAT ??A?$vector@V?$map@IHU?$less@I@std@@V?$allocator@U?$pair@$$CBIH@std@@@2@@std@@V?$allocator@V?$map@IHU?$less@I@std@@V?$allocator@U?$pair@$$CBIH@std@@@2@@std@@@2@@std@@QBEABV?$map@IHU?$less@I@std@@V?$allocator@U?$pair@$$CBIH@std@@@2@@1@I@Z
_TEXT	SEGMENT
__Pos$ = 8						; size = 4
??A?$vector@V?$map@IHU?$less@I@std@@V?$allocator@U?$pair@$$CBIH@std@@@2@@std@@V?$allocator@V?$map@IHU?$less@I@std@@V?$allocator@U?$pair@$$CBIH@std@@@2@@std@@@2@@std@@QBEABV?$map@IHU?$less@I@std@@V?$allocator@U?$pair@$$CBIH@std@@@2@@1@I@Z PROC ; std::vector<std::map<unsigned int,int,std::less<unsigned int>,std::allocator<std::pair<unsigned int const ,int> > >,std::allocator<std::map<unsigned int,int,std::less<unsigned int>,std::allocator<std::pair<unsigned int const ,int> > > > >::operator[], COMDAT
; _this$ = ecx

; 760  : 
; 761  :  #if _HAS_ITERATOR_DEBUGGING
; 762  : 		if (size() <= _Pos)
; 763  : 			{
; 764  : 			_DEBUG_ERROR("vector subscript out of range");
; 765  : 			_SCL_SECURE_OUT_OF_RANGE;
; 766  : 			}
; 767  :  #endif /* _HAS_ITERATOR_DEBUGGING */
; 768  : 		_SCL_SECURE_VALIDATE_RANGE(_Pos < size());
; 769  : 
; 770  : 		return (*(_Myfirst + _Pos));

	mov	eax, DWORD PTR __Pos$[esp-4]
	mov	ecx, DWORD PTR [ecx+4]
	lea	eax, DWORD PTR [eax+eax*2]
	lea	eax, DWORD PTR [ecx+eax*4]

; 771  : 		}

	ret	4
??A?$vector@V?$map@IHU?$less@I@std@@V?$allocator@U?$pair@$$CBIH@std@@@2@@std@@V?$allocator@V?$map@IHU?$less@I@std@@V?$allocator@U?$pair@$$CBIH@std@@@2@@std@@@2@@std@@QBEABV?$map@IHU?$less@I@std@@V?$allocator@U?$pair@$$CBIH@std@@@2@@1@I@Z ENDP ; std::vector<std::map<unsigned int,int,std::less<unsigned int>,std::allocator<std::pair<unsigned int const ,int> > >,std::allocator<std::map<unsigned int,int,std::less<unsigned int>,std::allocator<std::pair<unsigned int const ,int> > > > >::operator[]
_TEXT	ENDS
PUBLIC	??A?$vector@V?$map@IHU?$less@I@std@@V?$allocator@U?$pair@$$CBIH@std@@@2@@std@@V?$allocator@V?$map@IHU?$less@I@std@@V?$allocator@U?$pair@$$CBIH@std@@@2@@std@@@2@@std@@QAEAAV?$map@IHU?$less@I@std@@V?$allocator@U?$pair@$$CBIH@std@@@2@@1@I@Z ; std::vector<std::map<unsigned int,int,std::less<unsigned int>,std::allocator<std::pair<unsigned int const ,int> > >,std::allocator<std::map<unsigned int,int,std::less<unsigned int>,std::allocator<std::pair<unsigned int const ,int> > > > >::operator[]
; Function compile flags: /Ogtpy
;	COMDAT ??A?$vector@V?$map@IHU?$less@I@std@@V?$allocator@U?$pair@$$CBIH@std@@@2@@std@@V?$allocator@V?$map@IHU?$less@I@std@@V?$allocator@U?$pair@$$CBIH@std@@@2@@std@@@2@@std@@QAEAAV?$map@IHU?$less@I@std@@V?$allocator@U?$pair@$$CBIH@std@@@2@@1@I@Z
_TEXT	SEGMENT
__Pos$ = 8						; size = 4
??A?$vector@V?$map@IHU?$less@I@std@@V?$allocator@U?$pair@$$CBIH@std@@@2@@std@@V?$allocator@V?$map@IHU?$less@I@std@@V?$allocator@U?$pair@$$CBIH@std@@@2@@std@@@2@@std@@QAEAAV?$map@IHU?$less@I@std@@V?$allocator@U?$pair@$$CBIH@std@@@2@@1@I@Z PROC ; std::vector<std::map<unsigned int,int,std::less<unsigned int>,std::allocator<std::pair<unsigned int const ,int> > >,std::allocator<std::map<unsigned int,int,std::less<unsigned int>,std::allocator<std::pair<unsigned int const ,int> > > > >::operator[], COMDAT
; _this$ = ecx

; 775  : 
; 776  :  #if _HAS_ITERATOR_DEBUGGING
; 777  : 		if (size() <= _Pos)
; 778  : 			{
; 779  : 			_DEBUG_ERROR("vector subscript out of range");
; 780  : 			_SCL_SECURE_OUT_OF_RANGE;
; 781  : 			}
; 782  :  #endif /* _HAS_ITERATOR_DEBUGGING */
; 783  : 		_SCL_SECURE_VALIDATE_RANGE(_Pos < size());
; 784  : 
; 785  : 		return (*(_Myfirst + _Pos));

	mov	eax, DWORD PTR __Pos$[esp-4]
	mov	ecx, DWORD PTR [ecx+4]
	lea	eax, DWORD PTR [eax+eax*2]
	lea	eax, DWORD PTR [ecx+eax*4]

; 786  : 		}

	ret	4
??A?$vector@V?$map@IHU?$less@I@std@@V?$allocator@U?$pair@$$CBIH@std@@@2@@std@@V?$allocator@V?$map@IHU?$less@I@std@@V?$allocator@U?$pair@$$CBIH@std@@@2@@std@@@2@@std@@QAEAAV?$map@IHU?$less@I@std@@V?$allocator@U?$pair@$$CBIH@std@@@2@@1@I@Z ENDP ; std::vector<std::map<unsigned int,int,std::less<unsigned int>,std::allocator<std::pair<unsigned int const ,int> > >,std::allocator<std::map<unsigned int,int,std::less<unsigned int>,std::allocator<std::pair<unsigned int const ,int> > > > >::operator[]
_TEXT	ENDS
PUBLIC	?size@?$vector@W4GameOptionTypes@@V?$allocator@W4GameOptionTypes@@@std@@@std@@QBEIXZ ; std::vector<enum GameOptionTypes,std::allocator<enum GameOptionTypes> >::size
; Function compile flags: /Ogtpy
;	COMDAT ?size@?$vector@W4GameOptionTypes@@V?$allocator@W4GameOptionTypes@@@std@@@std@@QBEIXZ
_TEXT	SEGMENT
?size@?$vector@W4GameOptionTypes@@V?$allocator@W4GameOptionTypes@@@std@@@std@@QBEIXZ PROC ; std::vector<enum GameOptionTypes,std::allocator<enum GameOptionTypes> >::size, COMDAT
; _this$ = ecx

; 726  : 		return (_Mylast - _Myfirst);

	mov	eax, DWORD PTR [ecx+8]
	sub	eax, DWORD PTR [ecx+4]
	sar	eax, 2

; 727  : 		}

	ret	0
?size@?$vector@W4GameOptionTypes@@V?$allocator@W4GameOptionTypes@@@std@@@std@@QBEIXZ ENDP ; std::vector<enum GameOptionTypes,std::allocator<enum GameOptionTypes> >::size
_TEXT	ENDS
PUBLIC	??A?$vector@W4GameOptionTypes@@V?$allocator@W4GameOptionTypes@@@std@@@std@@QBEABW4GameOptionTypes@@I@Z ; std::vector<enum GameOptionTypes,std::allocator<enum GameOptionTypes> >::operator[]
; Function compile flags: /Ogtpy
;	COMDAT ??A?$vector@W4GameOptionTypes@@V?$allocator@W4GameOptionTypes@@@std@@@std@@QBEABW4GameOptionTypes@@I@Z
_TEXT	SEGMENT
__Pos$ = 8						; size = 4
??A?$vector@W4GameOptionTypes@@V?$allocator@W4GameOptionTypes@@@std@@@std@@QBEABW4GameOptionTypes@@I@Z PROC ; std::vector<enum GameOptionTypes,std::allocator<enum GameOptionTypes> >::operator[], COMDAT
; _this$ = ecx

; 760  : 
; 761  :  #if _HAS_ITERATOR_DEBUGGING
; 762  : 		if (size() <= _Pos)
; 763  : 			{
; 764  : 			_DEBUG_ERROR("vector subscript out of range");
; 765  : 			_SCL_SECURE_OUT_OF_RANGE;
; 766  : 			}
; 767  :  #endif /* _HAS_ITERATOR_DEBUGGING */
; 768  : 		_SCL_SECURE_VALIDATE_RANGE(_Pos < size());
; 769  : 
; 770  : 		return (*(_Myfirst + _Pos));

	mov	eax, DWORD PTR [ecx+4]
	mov	ecx, DWORD PTR __Pos$[esp-4]
	lea	eax, DWORD PTR [eax+ecx*4]

; 771  : 		}

	ret	4
??A?$vector@W4GameOptionTypes@@V?$allocator@W4GameOptionTypes@@@std@@@std@@QBEABW4GameOptionTypes@@I@Z ENDP ; std::vector<enum GameOptionTypes,std::allocator<enum GameOptionTypes> >::operator[]
_TEXT	ENDS
PUBLIC	?size@?$vector@W4VictoryTypes@@V?$allocator@W4VictoryTypes@@@std@@@std@@QBEIXZ ; std::vector<enum VictoryTypes,std::allocator<enum VictoryTypes> >::size
; Function compile flags: /Ogtpy
;	COMDAT ?size@?$vector@W4VictoryTypes@@V?$allocator@W4VictoryTypes@@@std@@@std@@QBEIXZ
_TEXT	SEGMENT
?size@?$vector@W4VictoryTypes@@V?$allocator@W4VictoryTypes@@@std@@@std@@QBEIXZ PROC ; std::vector<enum VictoryTypes,std::allocator<enum VictoryTypes> >::size, COMDAT
; _this$ = ecx

; 726  : 		return (_Mylast - _Myfirst);

	mov	eax, DWORD PTR [ecx+8]
	sub	eax, DWORD PTR [ecx+4]
	sar	eax, 2

; 727  : 		}

	ret	0
?size@?$vector@W4VictoryTypes@@V?$allocator@W4VictoryTypes@@@std@@@std@@QBEIXZ ENDP ; std::vector<enum VictoryTypes,std::allocator<enum VictoryTypes> >::size
_TEXT	ENDS
PUBLIC	??A?$vector@W4VictoryTypes@@V?$allocator@W4VictoryTypes@@@std@@@std@@QBEABW4VictoryTypes@@I@Z ; std::vector<enum VictoryTypes,std::allocator<enum VictoryTypes> >::operator[]
; Function compile flags: /Ogtpy
;	COMDAT ??A?$vector@W4VictoryTypes@@V?$allocator@W4VictoryTypes@@@std@@@std@@QBEABW4VictoryTypes@@I@Z
_TEXT	SEGMENT
__Pos$ = 8						; size = 4
??A?$vector@W4VictoryTypes@@V?$allocator@W4VictoryTypes@@@std@@@std@@QBEABW4VictoryTypes@@I@Z PROC ; std::vector<enum VictoryTypes,std::allocator<enum VictoryTypes> >::operator[], COMDAT
; _this$ = ecx

; 760  : 
; 761  :  #if _HAS_ITERATOR_DEBUGGING
; 762  : 		if (size() <= _Pos)
; 763  : 			{
; 764  : 			_DEBUG_ERROR("vector subscript out of range");
; 765  : 			_SCL_SECURE_OUT_OF_RANGE;
; 766  : 			}
; 767  :  #endif /* _HAS_ITERATOR_DEBUGGING */
; 768  : 		_SCL_SECURE_VALIDATE_RANGE(_Pos < size());
; 769  : 
; 770  : 		return (*(_Myfirst + _Pos));

	mov	eax, DWORD PTR [ecx+4]
	mov	ecx, DWORD PTR __Pos$[esp-4]
	lea	eax, DWORD PTR [eax+ecx*4]

; 771  : 		}

	ret	4
??A?$vector@W4VictoryTypes@@V?$allocator@W4VictoryTypes@@@std@@@std@@QBEABW4VictoryTypes@@I@Z ENDP ; std::vector<enum VictoryTypes,std::allocator<enum VictoryTypes> >::operator[]
_TEXT	ENDS
PUBLIC	?size@?$vector@UPlayerInfo@CvReplayInfo@@V?$allocator@UPlayerInfo@CvReplayInfo@@@std@@@std@@QBEIXZ ; std::vector<CvReplayInfo::PlayerInfo,std::allocator<CvReplayInfo::PlayerInfo> >::size
; Function compile flags: /Ogtpy
;	COMDAT ?size@?$vector@UPlayerInfo@CvReplayInfo@@V?$allocator@UPlayerInfo@CvReplayInfo@@@std@@@std@@QBEIXZ
_TEXT	SEGMENT
?size@?$vector@UPlayerInfo@CvReplayInfo@@V?$allocator@UPlayerInfo@CvReplayInfo@@@std@@@std@@QBEIXZ PROC ; std::vector<CvReplayInfo::PlayerInfo,std::allocator<CvReplayInfo::PlayerInfo> >::size, COMDAT
; _this$ = ecx

; 726  : 		return (_Mylast - _Myfirst);

	mov	eax, DWORD PTR [ecx+8]
	sub	eax, DWORD PTR [ecx+4]
	sar	eax, 7

; 727  : 		}

	ret	0
?size@?$vector@UPlayerInfo@CvReplayInfo@@V?$allocator@UPlayerInfo@CvReplayInfo@@@std@@@std@@QBEIXZ ENDP ; std::vector<CvReplayInfo::PlayerInfo,std::allocator<CvReplayInfo::PlayerInfo> >::size
_TEXT	ENDS
PUBLIC	??A?$vector@UPlayerInfo@CvReplayInfo@@V?$allocator@UPlayerInfo@CvReplayInfo@@@std@@@std@@QBEABUPlayerInfo@CvReplayInfo@@I@Z ; std::vector<CvReplayInfo::PlayerInfo,std::allocator<CvReplayInfo::PlayerInfo> >::operator[]
; Function compile flags: /Ogtpy
;	COMDAT ??A?$vector@UPlayerInfo@CvReplayInfo@@V?$allocator@UPlayerInfo@CvReplayInfo@@@std@@@std@@QBEABUPlayerInfo@CvReplayInfo@@I@Z
_TEXT	SEGMENT
__Pos$ = 8						; size = 4
??A?$vector@UPlayerInfo@CvReplayInfo@@V?$allocator@UPlayerInfo@CvReplayInfo@@@std@@@std@@QBEABUPlayerInfo@CvReplayInfo@@I@Z PROC ; std::vector<CvReplayInfo::PlayerInfo,std::allocator<CvReplayInfo::PlayerInfo> >::operator[], COMDAT
; _this$ = ecx

; 760  : 
; 761  :  #if _HAS_ITERATOR_DEBUGGING
; 762  : 		if (size() <= _Pos)
; 763  : 			{
; 764  : 			_DEBUG_ERROR("vector subscript out of range");
; 765  : 			_SCL_SECURE_OUT_OF_RANGE;
; 766  : 			}
; 767  :  #endif /* _HAS_ITERATOR_DEBUGGING */
; 768  : 		_SCL_SECURE_VALIDATE_RANGE(_Pos < size());
; 769  : 
; 770  : 		return (*(_Myfirst + _Pos));

	mov	eax, DWORD PTR __Pos$[esp-4]
	shl	eax, 7
	add	eax, DWORD PTR [ecx+4]

; 771  : 		}

	ret	4
??A?$vector@UPlayerInfo@CvReplayInfo@@V?$allocator@UPlayerInfo@CvReplayInfo@@@std@@@std@@QBEABUPlayerInfo@CvReplayInfo@@I@Z ENDP ; std::vector<CvReplayInfo::PlayerInfo,std::allocator<CvReplayInfo::PlayerInfo> >::operator[]
_TEXT	ENDS
PUBLIC	??A?$vector@V?$vector@V?$map@IHU?$less@I@std@@V?$allocator@U?$pair@$$CBIH@std@@@2@@std@@V?$allocator@V?$map@IHU?$less@I@std@@V?$allocator@U?$pair@$$CBIH@std@@@2@@std@@@2@@std@@V?$allocator@V?$vector@V?$map@IHU?$less@I@std@@V?$allocator@U?$pair@$$CBIH@std@@@2@@std@@V?$allocator@V?$map@IHU?$less@I@std@@V?$allocator@U?$pair@$$CBIH@std@@@2@@std@@@2@@std@@@2@@std@@QBEABV?$vector@V?$map@IHU?$less@I@std@@V?$allocator@U?$pair@$$CBIH@std@@@2@@std@@V?$allocator@V?$map@IHU?$less@I@std@@V?$allocator@U?$pair@$$CBIH@std@@@2@@std@@@2@@1@I@Z ; std::vector<std::vector<std::map<unsigned int,int,std::less<unsigned int>,std::allocator<std::pair<unsigned int const ,int> > >,std::allocator<std::map<unsigned int,int,std::less<unsigned int>,std::allocator<std::pair<unsigned int const ,int> > > > >,std::allocator<std::vector<std::map<unsigned int,int,std::less<unsigned int>,std::allocator<std::pair<unsigned int const ,int> > >,std::allocator<std::map<unsigned int,int,std::less<unsigned int>,std::allocator<std::pair<unsigned int const ,int> > > > > > >::operator[]
; Function compile flags: /Ogtpy
;	COMDAT ??A?$vector@V?$vector@V?$map@IHU?$less@I@std@@V?$allocator@U?$pair@$$CBIH@std@@@2@@std@@V?$allocator@V?$map@IHU?$less@I@std@@V?$allocator@U?$pair@$$CBIH@std@@@2@@std@@@2@@std@@V?$allocator@V?$vector@V?$map@IHU?$less@I@std@@V?$allocator@U?$pair@$$CBIH@std@@@2@@std@@V?$allocator@V?$map@IHU?$less@I@std@@V?$allocator@U?$pair@$$CBIH@std@@@2@@std@@@2@@std@@@2@@std@@QBEABV?$vector@V?$map@IHU?$less@I@std@@V?$allocator@U?$pair@$$CBIH@std@@@2@@std@@V?$allocator@V?$map@IHU?$less@I@std@@V?$allocator@U?$pair@$$CBIH@std@@@2@@std@@@2@@1@I@Z
_TEXT	SEGMENT
__Pos$ = 8						; size = 4
??A?$vector@V?$vector@V?$map@IHU?$less@I@std@@V?$allocator@U?$pair@$$CBIH@std@@@2@@std@@V?$allocator@V?$map@IHU?$less@I@std@@V?$allocator@U?$pair@$$CBIH@std@@@2@@std@@@2@@std@@V?$allocator@V?$vector@V?$map@IHU?$less@I@std@@V?$allocator@U?$pair@$$CBIH@std@@@2@@std@@V?$allocator@V?$map@IHU?$less@I@std@@V?$allocator@U?$pair@$$CBIH@std@@@2@@std@@@2@@std@@@2@@std@@QBEABV?$vector@V?$map@IHU?$less@I@std@@V?$allocator@U?$pair@$$CBIH@std@@@2@@std@@V?$allocator@V?$map@IHU?$less@I@std@@V?$allocator@U?$pair@$$CBIH@std@@@2@@std@@@2@@1@I@Z PROC ; std::vector<std::vector<std::map<unsigned int,int,std::less<unsigned int>,std::allocator<std::pair<unsigned int const ,int> > >,std::allocator<std::map<unsigned int,int,std::less<unsigned int>,std::allocator<std::pair<unsigned int const ,int> > > > >,std::allocator<std::vector<std::map<unsigned int,int,std::less<unsigned int>,std::allocator<std::pair<unsigned int const ,int> > >,std::allocator<std::map<unsigned int,int,std::less<unsigned int>,std::allocator<std::pair<unsigned int const ,int> > > > > > >::operator[], COMDAT
; _this$ = ecx

; 760  : 
; 761  :  #if _HAS_ITERATOR_DEBUGGING
; 762  : 		if (size() <= _Pos)
; 763  : 			{
; 764  : 			_DEBUG_ERROR("vector subscript out of range");
; 765  : 			_SCL_SECURE_OUT_OF_RANGE;
; 766  : 			}
; 767  :  #endif /* _HAS_ITERATOR_DEBUGGING */
; 768  : 		_SCL_SECURE_VALIDATE_RANGE(_Pos < size());
; 769  : 
; 770  : 		return (*(_Myfirst + _Pos));

	mov	eax, DWORD PTR __Pos$[esp-4]
	shl	eax, 4
	add	eax, DWORD PTR [ecx+4]

; 771  : 		}

	ret	4
??A?$vector@V?$vector@V?$map@IHU?$less@I@std@@V?$allocator@U?$pair@$$CBIH@std@@@2@@std@@V?$allocator@V?$map@IHU?$less@I@std@@V?$allocator@U?$pair@$$CBIH@std@@@2@@std@@@2@@std@@V?$allocator@V?$vector@V?$map@IHU?$less@I@std@@V?$allocator@U?$pair@$$CBIH@std@@@2@@std@@V?$allocator@V?$map@IHU?$less@I@std@@V?$allocator@U?$pair@$$CBIH@std@@@2@@std@@@2@@std@@@2@@std@@QBEABV?$vector@V?$map@IHU?$less@I@std@@V?$allocator@U?$pair@$$CBIH@std@@@2@@std@@V?$allocator@V?$map@IHU?$less@I@std@@V?$allocator@U?$pair@$$CBIH@std@@@2@@std@@@2@@1@I@Z ENDP ; std::vector<std::vector<std::map<unsigned int,int,std::less<unsigned int>,std::allocator<std::pair<unsigned int const ,int> > >,std::allocator<std::map<unsigned int,int,std::less<unsigned int>,std::allocator<std::pair<unsigned int const ,int> > > > >,std::allocator<std::vector<std::map<unsigned int,int,std::less<unsigned int>,std::allocator<std::pair<unsigned int const ,int> > >,std::allocator<std::map<unsigned int,int,std::less<unsigned int>,std::allocator<std::pair<unsigned int const ,int> > > > > > >::operator[]
_TEXT	ENDS
PUBLIC	?size@?$vector@V?$map@IUPlotState@CvReplayInfo@@U?$less@I@std@@V?$allocator@U?$pair@$$CBIUPlotState@CvReplayInfo@@@std@@@4@@std@@V?$allocator@V?$map@IUPlotState@CvReplayInfo@@U?$less@I@std@@V?$allocator@U?$pair@$$CBIUPlotState@CvReplayInfo@@@std@@@4@@std@@@2@@std@@QBEIXZ ; std::vector<std::map<unsigned int,CvReplayInfo::PlotState,std::less<unsigned int>,std::allocator<std::pair<unsigned int const ,CvReplayInfo::PlotState> > >,std::allocator<std::map<unsigned int,CvReplayInfo::PlotState,std::less<unsigned int>,std::allocator<std::pair<unsigned int const ,CvReplayInfo::PlotState> > > > >::size
; Function compile flags: /Ogtpy
;	COMDAT ?size@?$vector@V?$map@IUPlotState@CvReplayInfo@@U?$less@I@std@@V?$allocator@U?$pair@$$CBIUPlotState@CvReplayInfo@@@std@@@4@@std@@V?$allocator@V?$map@IUPlotState@CvReplayInfo@@U?$less@I@std@@V?$allocator@U?$pair@$$CBIUPlotState@CvReplayInfo@@@std@@@4@@std@@@2@@std@@QBEIXZ
_TEXT	SEGMENT
?size@?$vector@V?$map@IUPlotState@CvReplayInfo@@U?$less@I@std@@V?$allocator@U?$pair@$$CBIUPlotState@CvReplayInfo@@@std@@@4@@std@@V?$allocator@V?$map@IUPlotState@CvReplayInfo@@U?$less@I@std@@V?$allocator@U?$pair@$$CBIUPlotState@CvReplayInfo@@@std@@@4@@std@@@2@@std@@QBEIXZ PROC ; std::vector<std::map<unsigned int,CvReplayInfo::PlotState,std::less<unsigned int>,std::allocator<std::pair<unsigned int const ,CvReplayInfo::PlotState> > >,std::allocator<std::map<unsigned int,CvReplayInfo::PlotState,std::less<unsigned int>,std::allocator<std::pair<unsigned int const ,CvReplayInfo::PlotState> > > > >::size, COMDAT
; _this$ = ecx

; 726  : 		return (_Mylast - _Myfirst);

	mov	edx, DWORD PTR [ecx+8]
	sub	edx, DWORD PTR [ecx+4]
	mov	eax, 715827883				; 2aaaaaabH
	imul	edx
	sar	edx, 1
	mov	eax, edx
	shr	eax, 31					; 0000001fH
	add	eax, edx

; 727  : 		}

	ret	0
?size@?$vector@V?$map@IUPlotState@CvReplayInfo@@U?$less@I@std@@V?$allocator@U?$pair@$$CBIUPlotState@CvReplayInfo@@@std@@@4@@std@@V?$allocator@V?$map@IUPlotState@CvReplayInfo@@U?$less@I@std@@V?$allocator@U?$pair@$$CBIUPlotState@CvReplayInfo@@@std@@@4@@std@@@2@@std@@QBEIXZ ENDP ; std::vector<std::map<unsigned int,CvReplayInfo::PlotState,std::less<unsigned int>,std::allocator<std::pair<unsigned int const ,CvReplayInfo::PlotState> > >,std::allocator<std::map<unsigned int,CvReplayInfo::PlotState,std::less<unsigned int>,std::allocator<std::pair<unsigned int const ,CvReplayInfo::PlotState> > > > >::size
_TEXT	ENDS
PUBLIC	??A?$vector@V?$map@IUPlotState@CvReplayInfo@@U?$less@I@std@@V?$allocator@U?$pair@$$CBIUPlotState@CvReplayInfo@@@std@@@4@@std@@V?$allocator@V?$map@IUPlotState@CvReplayInfo@@U?$less@I@std@@V?$allocator@U?$pair@$$CBIUPlotState@CvReplayInfo@@@std@@@4@@std@@@2@@std@@QBEABV?$map@IUPlotState@CvReplayInfo@@U?$less@I@std@@V?$allocator@U?$pair@$$CBIUPlotState@CvReplayInfo@@@std@@@4@@1@I@Z ; std::vector<std::map<unsigned int,CvReplayInfo::PlotState,std::less<unsigned int>,std::allocator<std::pair<unsigned int const ,CvReplayInfo::PlotState> > >,std::allocator<std::map<unsigned int,CvReplayInfo::PlotState,std::less<unsigned int>,std::allocator<std::pair<unsigned int const ,CvReplayInfo::PlotState> > > > >::operator[]
; Function compile flags: /Ogtpy
;	COMDAT ??A?$vector@V?$map@IUPlotState@CvReplayInfo@@U?$less@I@std@@V?$allocator@U?$pair@$$CBIUPlotState@CvReplayInfo@@@std@@@4@@std@@V?$allocator@V?$map@IUPlotState@CvReplayInfo@@U?$less@I@std@@V?$allocator@U?$pair@$$CBIUPlotState@CvReplayInfo@@@std@@@4@@std@@@2@@std@@QBEABV?$map@IUPlotState@CvReplayInfo@@U?$less@I@std@@V?$allocator@U?$pair@$$CBIUPlotState@CvReplayInfo@@@std@@@4@@1@I@Z
_TEXT	SEGMENT
__Pos$ = 8						; size = 4
??A?$vector@V?$map@IUPlotState@CvReplayInfo@@U?$less@I@std@@V?$allocator@U?$pair@$$CBIUPlotState@CvReplayInfo@@@std@@@4@@std@@V?$allocator@V?$map@IUPlotState@CvReplayInfo@@U?$less@I@std@@V?$allocator@U?$pair@$$CBIUPlotState@CvReplayInfo@@@std@@@4@@std@@@2@@std@@QBEABV?$map@IUPlotState@CvReplayInfo@@U?$less@I@std@@V?$allocator@U?$pair@$$CBIUPlotState@CvReplayInfo@@@std@@@4@@1@I@Z PROC ; std::vector<std::map<unsigned int,CvReplayInfo::PlotState,std::less<unsigned int>,std::allocator<std::pair<unsigned int const ,CvReplayInfo::PlotState> > >,std::allocator<std::map<unsigned int,CvReplayInfo::PlotState,std::less<unsigned int>,std::allocator<std::pair<unsigned int const ,CvReplayInfo::PlotState> > > > >::operator[], COMDAT
; _this$ = ecx

; 760  : 
; 761  :  #if _HAS_ITERATOR_DEBUGGING
; 762  : 		if (size() <= _Pos)
; 763  : 			{
; 764  : 			_DEBUG_ERROR("vector subscript out of range");
; 765  : 			_SCL_SECURE_OUT_OF_RANGE;
; 766  : 			}
; 767  :  #endif /* _HAS_ITERATOR_DEBUGGING */
; 768  : 		_SCL_SECURE_VALIDATE_RANGE(_Pos < size());
; 769  : 
; 770  : 		return (*(_Myfirst + _Pos));

	mov	eax, DWORD PTR __Pos$[esp-4]
	mov	ecx, DWORD PTR [ecx+4]
	lea	eax, DWORD PTR [eax+eax*2]
	lea	eax, DWORD PTR [ecx+eax*4]

; 771  : 		}

	ret	4
??A?$vector@V?$map@IUPlotState@CvReplayInfo@@U?$less@I@std@@V?$allocator@U?$pair@$$CBIUPlotState@CvReplayInfo@@@std@@@4@@std@@V?$allocator@V?$map@IUPlotState@CvReplayInfo@@U?$less@I@std@@V?$allocator@U?$pair@$$CBIUPlotState@CvReplayInfo@@@std@@@4@@std@@@2@@std@@QBEABV?$map@IUPlotState@CvReplayInfo@@U?$less@I@std@@V?$allocator@U?$pair@$$CBIUPlotState@CvReplayInfo@@@std@@@4@@1@I@Z ENDP ; std::vector<std::map<unsigned int,CvReplayInfo::PlotState,std::less<unsigned int>,std::allocator<std::pair<unsigned int const ,CvReplayInfo::PlotState> > >,std::allocator<std::map<unsigned int,CvReplayInfo::PlotState,std::less<unsigned int>,std::allocator<std::pair<unsigned int const ,CvReplayInfo::PlotState> > > > >::operator[]
_TEXT	ENDS
PUBLIC	??D?$_Vector_const_iterator@VCvReplayMessage@@V?$allocator@VCvReplayMessage@@@std@@@std@@QBEABVCvReplayMessage@@XZ ; std::_Vector_const_iterator<CvReplayMessage,std::allocator<CvReplayMessage> >::operator*
; Function compile flags: /Ogtpy
;	COMDAT ??D?$_Vector_const_iterator@VCvReplayMessage@@V?$allocator@VCvReplayMessage@@@std@@@std@@QBEABVCvReplayMessage@@XZ
_TEXT	SEGMENT
??D?$_Vector_const_iterator@VCvReplayMessage@@V?$allocator@VCvReplayMessage@@@std@@@std@@QBEABVCvReplayMessage@@XZ PROC ; std::_Vector_const_iterator<CvReplayMessage,std::allocator<CvReplayMessage> >::operator*, COMDAT
; _this$ = ecx

; 92   : 
; 93   :  #if _HAS_ITERATOR_DEBUGGING
; 94   : 		if (this->_Mycont == 0
; 95   : 			|| _Myptr < ((_Myvec *)this->_Mycont)->_Myfirst
; 96   : 			|| ((_Myvec *)this->_Mycont)->_Mylast <= _Myptr)
; 97   : 			{
; 98   : 			_DEBUG_ERROR("vector iterator not dereferencable");
; 99   : 			_SCL_SECURE_OUT_OF_RANGE;
; 100  : 			}
; 101  :  #else
; 102  :  		_SCL_SECURE_VALIDATE(this->_Has_container());
; 103  : 		_SCL_SECURE_VALIDATE_RANGE(_Myptr < ((_Myvec *)(this->_Getmycont()))->_Mylast);
; 104  :  #endif /* _HAS_ITERATOR_DEBUGGING */
; 105  : 
; 106  : 		return (*_Myptr);

	mov	eax, DWORD PTR [ecx]

; 107  : 		}

	ret	0
??D?$_Vector_const_iterator@VCvReplayMessage@@V?$allocator@VCvReplayMessage@@@std@@@std@@QBEABVCvReplayMessage@@XZ ENDP ; std::_Vector_const_iterator<CvReplayMessage,std::allocator<CvReplayMessage> >::operator*
_TEXT	ENDS
PUBLIC	??E?$_Vector_const_iterator@VCvReplayMessage@@V?$allocator@VCvReplayMessage@@@std@@@std@@QAEAAV01@XZ ; std::_Vector_const_iterator<CvReplayMessage,std::allocator<CvReplayMessage> >::operator++
; Function compile flags: /Ogtpy
;	COMDAT ??E?$_Vector_const_iterator@VCvReplayMessage@@V?$allocator@VCvReplayMessage@@@std@@@std@@QAEAAV01@XZ
_TEXT	SEGMENT
??E?$_Vector_const_iterator@VCvReplayMessage@@V?$allocator@VCvReplayMessage@@@std@@@std@@QAEAAV01@XZ PROC ; std::_Vector_const_iterator<CvReplayMessage,std::allocator<CvReplayMessage> >::operator++, COMDAT
; _this$ = ecx

; 115  : 		{	// preincrement

	mov	eax, ecx

; 116  : 		_SCL_SECURE_VALIDATE(this->_Has_container());
; 117  : 		_SCL_SECURE_VALIDATE_RANGE(_Myptr < ((_Myvec *)(this->_Getmycont()))->_Mylast);
; 118  : 
; 119  :  #if _HAS_ITERATOR_DEBUGGING
; 120  : 		if (this->_Mycont == 0
; 121  : 			|| ((_Myvec *)this->_Mycont)->_Mylast <= _Myptr)
; 122  : 			_DEBUG_ERROR("vector iterator not incrementable");
; 123  :  #endif /* _HAS_ITERATOR_DEBUGGING */
; 124  : 
; 125  : 		++_Myptr;

	add	DWORD PTR [eax], 60			; 0000003cH

; 126  : 		return (*this);
; 127  : 		}

	ret	0
??E?$_Vector_const_iterator@VCvReplayMessage@@V?$allocator@VCvReplayMessage@@@std@@@std@@QAEAAV01@XZ ENDP ; std::_Vector_const_iterator<CvReplayMessage,std::allocator<CvReplayMessage> >::operator++
_TEXT	ENDS
PUBLIC	??1?$_Container_base_aux_alloc_empty@V?$allocator@V?$basic_string@DU?$char_traits@D@std@@V?$allocator@D@2@@std@@@std@@@std@@IAE@XZ ; std::_Container_base_aux_alloc_empty<std::allocator<std::basic_string<char,std::char_traits<char>,std::allocator<char> > > >::~_Container_base_aux_alloc_empty<std::allocator<std::basic_string<char,std::char_traits<char>,std::allocator<char> > > >
; Function compile flags: /Ogtpy
; File c:\program files (x86)\microsoft visual studio 9.0\vc\include\xutility
;	COMDAT ??1?$_Container_base_aux_alloc_empty@V?$allocator@V?$basic_string@DU?$char_traits@D@std@@V?$allocator@D@2@@std@@@std@@@std@@IAE@XZ
_TEXT	SEGMENT
??1?$_Container_base_aux_alloc_empty@V?$allocator@V?$basic_string@DU?$char_traits@D@std@@V?$allocator@D@2@@std@@@std@@@std@@IAE@XZ PROC ; std::_Container_base_aux_alloc_empty<std::allocator<std::basic_string<char,std::char_traits<char>,std::allocator<char> > > >::~_Container_base_aux_alloc_empty<std::allocator<std::basic_string<char,std::char_traits<char>,std::allocator<char> > > >, COMDAT
; _this$ = ecx

; 627  : 	~_Container_base_aux_alloc_empty() { }

	ret	0
??1?$_Container_base_aux_alloc_empty@V?$allocator@V?$basic_string@DU?$char_traits@D@std@@V?$allocator@D@2@@std@@@std@@@std@@IAE@XZ ENDP ; std::_Container_base_aux_alloc_empty<std::allocator<std::basic_string<char,std::char_traits<char>,std::allocator<char> > > >::~_Container_base_aux_alloc_empty<std::allocator<std::basic_string<char,std::char_traits<char>,std::allocator<char> > > >
_TEXT	ENDS
PUBLIC	??0?$allocator@V?$basic_string@DU?$char_traits@D@std@@V?$allocator@D@2@@std@@@std@@QAE@XZ ; std::allocator<std::basic_string<char,std::char_traits<char>,std::allocator<char> > >::allocator<std::basic_string<char,std::char_traits<char>,std::allocator<char> > >
; Function compile flags: /Ogtpy
; File c:\program files (x86)\microsoft visual studio 9.0\vc\include\xmemory
;	COMDAT ??0?$allocator@V?$basic_string@DU?$char_traits@D@std@@V?$allocator@D@2@@std@@@std@@QAE@XZ
_TEXT	SEGMENT
??0?$allocator@V?$basic_string@DU?$char_traits@D@std@@V?$allocator@D@2@@std@@@std@@QAE@XZ PROC ; std::allocator<std::basic_string<char,std::char_traits<char>,std::allocator<char> > >::allocator<std::basic_string<char,std::char_traits<char>,std::allocator<char> > >, COMDAT
; _this$ = ecx

; 119  : 	allocator() _THROW0()

	mov	eax, ecx

; 120  : 		{	// construct default allocator (do nothing)
; 121  : 		}

	ret	0
??0?$allocator@V?$basic_string@DU?$char_traits@D@std@@V?$allocator@D@2@@std@@@std@@QAE@XZ ENDP ; std::allocator<std::basic_string<char,std::char_traits<char>,std::allocator<char> > >::allocator<std::basic_string<char,std::char_traits<char>,std::allocator<char> > >
_TEXT	ENDS
PUBLIC	??R?$less@H@std@@QBE_NABH0@Z			; std::less<int>::operator()
; Function compile flags: /Ogtpy
; File c:\program files (x86)\microsoft visual studio 9.0\vc\include\functional
;	COMDAT ??R?$less@H@std@@QBE_NABH0@Z
_TEXT	SEGMENT
__Left$ = 8						; size = 4
__Right$ = 12						; size = 4
??R?$less@H@std@@QBE_NABH0@Z PROC			; std::less<int>::operator(), COMDAT
; _this$ = ecx

; 143  : 		return (_Left < _Right);

	mov	eax, DWORD PTR __Left$[esp-4]
	mov	ecx, DWORD PTR [eax]
	mov	edx, DWORD PTR __Right$[esp-4]
	xor	eax, eax
	cmp	ecx, DWORD PTR [edx]
	setl	al

; 144  : 		}

	ret	8
??R?$less@H@std@@QBE_NABH0@Z ENDP			; std::less<int>::operator()
_TEXT	ENDS
PUBLIC	?_Myval@?$_Tree@V?$_Tmap_traits@IHU?$less@I@std@@V?$allocator@U?$pair@$$CBIH@std@@@2@$0A@@std@@@std@@KAAAU?$pair@$$CBIH@2@PAU_Node@?$_Tree_nod@V?$_Tmap_traits@IHU?$less@I@std@@V?$allocator@U?$pair@$$CBIH@std@@@2@$0A@@std@@@2@@Z ; std::_Tree<std::_Tmap_traits<unsigned int,int,std::less<unsigned int>,std::allocator<std::pair<unsigned int const ,int> >,0> >::_Myval
; Function compile flags: /Ogtpy
; File c:\program files (x86)\microsoft visual studio 9.0\vc\include\xtree
;	COMDAT ?_Myval@?$_Tree@V?$_Tmap_traits@IHU?$less@I@std@@V?$allocator@U?$pair@$$CBIH@std@@@2@$0A@@std@@@std@@KAAAU?$pair@$$CBIH@2@PAU_Node@?$_Tree_nod@V?$_Tmap_traits@IHU?$less@I@std@@V?$allocator@U?$pair@$$CBIH@std@@@2@$0A@@std@@@2@@Z
_TEXT	SEGMENT
__Pnode$ = 8						; size = 4
?_Myval@?$_Tree@V?$_Tmap_traits@IHU?$less@I@std@@V?$allocator@U?$pair@$$CBIH@std@@@2@$0A@@std@@@std@@KAAAU?$pair@$$CBIH@2@PAU_Node@?$_Tree_nod@V?$_Tmap_traits@IHU?$less@I@std@@V?$allocator@U?$pair@$$CBIH@std@@@2@$0A@@std@@@2@@Z PROC ; std::_Tree<std::_Tmap_traits<unsigned int,int,std::less<unsigned int>,std::allocator<std::pair<unsigned int const ,int> >,0> >::_Myval, COMDAT

; 182  : 		return ((_Vref)(*_Pnode)._Myval);

	mov	eax, DWORD PTR __Pnode$[esp-4]
	add	eax, 12					; 0000000cH

; 183  : 		}

	ret	0
?_Myval@?$_Tree@V?$_Tmap_traits@IHU?$less@I@std@@V?$allocator@U?$pair@$$CBIH@std@@@2@$0A@@std@@@std@@KAAAU?$pair@$$CBIH@2@PAU_Node@?$_Tree_nod@V?$_Tmap_traits@IHU?$less@I@std@@V?$allocator@U?$pair@$$CBIH@std@@@2@$0A@@std@@@2@@Z ENDP ; std::_Tree<std::_Tmap_traits<unsigned int,int,std::less<unsigned int>,std::allocator<std::pair<unsigned int const ,int> >,0> >::_Myval
_TEXT	ENDS
PUBLIC	??1?$_Container_base_aux_alloc_empty@V?$allocator@U?$pair@$$CBIH@std@@@std@@@std@@IAE@XZ ; std::_Container_base_aux_alloc_empty<std::allocator<std::pair<unsigned int const ,int> > >::~_Container_base_aux_alloc_empty<std::allocator<std::pair<unsigned int const ,int> > >
; Function compile flags: /Ogtpy
; File c:\program files (x86)\microsoft visual studio 9.0\vc\include\xutility
;	COMDAT ??1?$_Container_base_aux_alloc_empty@V?$allocator@U?$pair@$$CBIH@std@@@std@@@std@@IAE@XZ
_TEXT	SEGMENT
??1?$_Container_base_aux_alloc_empty@V?$allocator@U?$pair@$$CBIH@std@@@std@@@std@@IAE@XZ PROC ; std::_Container_base_aux_alloc_empty<std::allocator<std::pair<unsigned int const ,int> > >::~_Container_base_aux_alloc_empty<std::allocator<std::pair<unsigned int const ,int> > >, COMDAT
; _this$ = ecx

; 627  : 	~_Container_base_aux_alloc_empty() { }

	ret	0
??1?$_Container_base_aux_alloc_empty@V?$allocator@U?$pair@$$CBIH@std@@@std@@@std@@IAE@XZ ENDP ; std::_Container_base_aux_alloc_empty<std::allocator<std::pair<unsigned int const ,int> > >::~_Container_base_aux_alloc_empty<std::allocator<std::pair<unsigned int const ,int> > >
_TEXT	ENDS
PUBLIC	??0?$allocator@U?$pair@$$CBIH@std@@@std@@QAE@XZ	; std::allocator<std::pair<unsigned int const ,int> >::allocator<std::pair<unsigned int const ,int> >
; Function compile flags: /Ogtpy
; File c:\program files (x86)\microsoft visual studio 9.0\vc\include\xmemory
;	COMDAT ??0?$allocator@U?$pair@$$CBIH@std@@@std@@QAE@XZ
_TEXT	SEGMENT
??0?$allocator@U?$pair@$$CBIH@std@@@std@@QAE@XZ PROC	; std::allocator<std::pair<unsigned int const ,int> >::allocator<std::pair<unsigned int const ,int> >, COMDAT
; _this$ = ecx

; 119  : 	allocator() _THROW0()

	mov	eax, ecx

; 120  : 		{	// construct default allocator (do nothing)
; 121  : 		}

	ret	0
??0?$allocator@U?$pair@$$CBIH@std@@@std@@QAE@XZ ENDP	; std::allocator<std::pair<unsigned int const ,int> >::allocator<std::pair<unsigned int const ,int> >
_TEXT	ENDS
PUBLIC	?capacity@?$vector@V?$basic_string@DU?$char_traits@D@std@@V?$allocator@D@2@@std@@V?$allocator@V?$basic_string@DU?$char_traits@D@std@@V?$allocator@D@2@@std@@@2@@std@@QBEIXZ ; std::vector<std::basic_string<char,std::char_traits<char>,std::allocator<char> >,std::allocator<std::basic_string<char,std::char_traits<char>,std::allocator<char> > > >::capacity
; Function compile flags: /Ogtpy
; File c:\program files (x86)\microsoft visual studio 9.0\vc\include\vector
;	COMDAT ?capacity@?$vector@V?$basic_string@DU?$char_traits@D@std@@V?$allocator@D@2@@std@@V?$allocator@V?$basic_string@DU?$char_traits@D@std@@V?$allocator@D@2@@std@@@2@@std@@QBEIXZ
_TEXT	SEGMENT
?capacity@?$vector@V?$basic_string@DU?$char_traits@D@std@@V?$allocator@D@2@@std@@V?$allocator@V?$basic_string@DU?$char_traits@D@std@@V?$allocator@D@2@@std@@@2@@std@@QBEIXZ PROC ; std::vector<std::basic_string<char,std::char_traits<char>,std::allocator<char> >,std::allocator<std::basic_string<char,std::char_traits<char>,std::allocator<char> > > >::capacity, COMDAT
; _this$ = ecx

; 635  : 		return (_Myfirst == 0 ? 0 : _Myend - _Myfirst);

	mov	eax, DWORD PTR [ecx+4]
	test	eax, eax
	jne	SHORT $LN3@capacity

; 636  : 		}

	ret	0
$LN3@capacity:

; 635  : 		return (_Myfirst == 0 ? 0 : _Myend - _Myfirst);

	mov	ecx, DWORD PTR [ecx+12]
	sub	ecx, eax
	mov	eax, -1840700269			; 92492493H
	imul	ecx
	add	edx, ecx
	sar	edx, 4
	mov	eax, edx
	shr	eax, 31					; 0000001fH
	add	eax, edx

; 636  : 		}

	ret	0
?capacity@?$vector@V?$basic_string@DU?$char_traits@D@std@@V?$allocator@D@2@@std@@V?$allocator@V?$basic_string@DU?$char_traits@D@std@@V?$allocator@D@2@@std@@@2@@std@@QBEIXZ ENDP ; std::vector<std::basic_string<char,std::char_traits<char>,std::allocator<char> >,std::allocator<std::basic_string<char,std::char_traits<char>,std::allocator<char> > > >::capacity
_TEXT	ENDS
PUBLIC	?capacity@?$vector@VCvReplayMessage@@V?$allocator@VCvReplayMessage@@@std@@@std@@QBEIXZ ; std::vector<CvReplayMessage,std::allocator<CvReplayMessage> >::capacity
; Function compile flags: /Ogtpy
;	COMDAT ?capacity@?$vector@VCvReplayMessage@@V?$allocator@VCvReplayMessage@@@std@@@std@@QBEIXZ
_TEXT	SEGMENT
?capacity@?$vector@VCvReplayMessage@@V?$allocator@VCvReplayMessage@@@std@@@std@@QBEIXZ PROC ; std::vector<CvReplayMessage,std::allocator<CvReplayMessage> >::capacity, COMDAT
; _this$ = ecx

; 635  : 		return (_Myfirst == 0 ? 0 : _Myend - _Myfirst);

	mov	eax, DWORD PTR [ecx+4]
	test	eax, eax
	jne	SHORT $LN3@capacity@2

; 636  : 		}

	ret	0
$LN3@capacity@2:

; 635  : 		return (_Myfirst == 0 ? 0 : _Myend - _Myfirst);

	mov	ecx, DWORD PTR [ecx+12]
	sub	ecx, eax
	mov	eax, -2004318071			; 88888889H
	imul	ecx
	add	edx, ecx
	sar	edx, 5
	mov	eax, edx
	shr	eax, 31					; 0000001fH
	add	eax, edx

; 636  : 		}

	ret	0
?capacity@?$vector@VCvReplayMessage@@V?$allocator@VCvReplayMessage@@@std@@@std@@QBEIXZ ENDP ; std::vector<CvReplayMessage,std::allocator<CvReplayMessage> >::capacity
_TEXT	ENDS
PUBLIC	__TI3?AVlength_error@std@@
PUBLIC	??_C@_0BD@OLBABOEK@vector?$DMT?$DO?5too?5long?$AA@ ; `string'
PUBLIC	?_Xlen@?$vector@VCvReplayMessage@@V?$allocator@VCvReplayMessage@@@std@@@std@@KAXXZ ; std::vector<CvReplayMessage,std::allocator<CvReplayMessage> >::_Xlen
PUBLIC	__CTA3?AVlength_error@std@@
PUBLIC	__CT??_R0?AVlength_error@std@@@8??0length_error@std@@QAE@ABV01@@Z40
PUBLIC	??0length_error@std@@QAE@ABV01@@Z		; std::length_error::length_error
PUBLIC	__CT??_R0?AVlogic_error@std@@@8??0logic_error@std@@QAE@ABV01@@Z40
PUBLIC	??0logic_error@std@@QAE@ABV01@@Z		; std::logic_error::logic_error
PUBLIC	__CT??_R0?AVexception@std@@@8??0exception@std@@QAE@ABV01@@Z12
EXTRN	__imp_??0?$basic_string@DU?$char_traits@D@std@@V?$allocator@D@2@@std@@QAE@PBD@Z:PROC
EXTRN	__CxxThrowException@8:PROC
EXTRN	??0exception@std@@QAE@ABV01@@Z:PROC		; std::exception::exception
;	COMDAT __CT??_R0?AVexception@std@@@8??0exception@std@@QAE@ABV01@@Z12
; File c:\program files (x86)\microsoft visual studio 9.0\vc\include\stdexcept
xdata$x	SEGMENT
__CT??_R0?AVexception@std@@@8??0exception@std@@QAE@ABV01@@Z12 DD 00H
	DD	FLAT:??_R0?AVexception@std@@@8
	DD	00H
	DD	0ffffffffH
	ORG $+4
	DD	0cH
	DD	FLAT:??0exception@std@@QAE@ABV01@@Z
xdata$x	ENDS
;	COMDAT __CT??_R0?AVlogic_error@std@@@8??0logic_error@std@@QAE@ABV01@@Z40
xdata$x	SEGMENT
__CT??_R0?AVlogic_error@std@@@8??0logic_error@std@@QAE@ABV01@@Z40 DD 00H
	DD	FLAT:??_R0?AVlogic_error@std@@@8
	DD	00H
	DD	0ffffffffH
	ORG $+4
	DD	028H
	DD	FLAT:??0logic_error@std@@QAE@ABV01@@Z
xdata$x	ENDS
;	COMDAT __CT??_R0?AVlength_error@std@@@8??0length_error@std@@QAE@ABV01@@Z40
xdata$x	SEGMENT
__CT??_R0?AVlength_error@std@@@8??0length_error@std@@QAE@ABV01@@Z40 DD 00H
	DD	FLAT:??_R0?AVlength_error@std@@@8
	DD	00H
	DD	0ffffffffH
	ORG $+4
	DD	028H
	DD	FLAT:??0length_error@std@@QAE@ABV01@@Z
xdata$x	ENDS
;	COMDAT __CTA3?AVlength_error@std@@
xdata$x	SEGMENT
__CTA3?AVlength_error@std@@ DD 03H
	DD	FLAT:__CT??_R0?AVlength_error@std@@@8??0length_error@std@@QAE@ABV01@@Z40
	DD	FLAT:__CT??_R0?AVlogic_error@std@@@8??0logic_error@std@@QAE@ABV01@@Z40
	DD	FLAT:__CT??_R0?AVexception@std@@@8??0exception@std@@QAE@ABV01@@Z12
xdata$x	ENDS
;	COMDAT __TI3?AVlength_error@std@@
xdata$x	SEGMENT
__TI3?AVlength_error@std@@ DD 00H
	DD	FLAT:??1length_error@std@@UAE@XZ
	DD	00H
	DD	FLAT:__CTA3?AVlength_error@std@@
xdata$x	ENDS
;	COMDAT ??_C@_0BD@OLBABOEK@vector?$DMT?$DO?5too?5long?$AA@
CONST	SEGMENT
??_C@_0BD@OLBABOEK@vector?$DMT?$DO?5too?5long?$AA@ DB 'vector<T> too long'
	DB	00H						; `string'
CONST	ENDS
;	COMDAT xdata$x
xdata$x	SEGMENT
__unwindtable$?_Xlen@?$vector@VCvReplayMessage@@V?$allocator@VCvReplayMessage@@@std@@@std@@KAXXZ DD 0ffffffffH
	DD	FLAT:__unwindfunclet$?_Xlen@?$vector@VCvReplayMessage@@V?$allocator@VCvReplayMessage@@@std@@@std@@KAXXZ$0
	DD	00H
	DD	FLAT:__unwindfunclet$?_Xlen@?$vector@VCvReplayMessage@@V?$allocator@VCvReplayMessage@@@std@@@std@@KAXXZ$2
__ehfuncinfo$?_Xlen@?$vector@VCvReplayMessage@@V?$allocator@VCvReplayMessage@@@std@@@std@@KAXXZ DD 019930522H
	DD	02H
	DD	FLAT:__unwindtable$?_Xlen@?$vector@VCvReplayMessage@@V?$allocator@VCvReplayMessage@@@std@@@std@@KAXXZ
	DD	2 DUP(00H)
	DD	2 DUP(00H)
	DD	00H
	DD	01H
; Function compile flags: /Ogtpy
; File c:\program files (x86)\microsoft visual studio 9.0\vc\include\vector
xdata$x	ENDS
;	COMDAT ?_Xlen@?$vector@VCvReplayMessage@@V?$allocator@VCvReplayMessage@@@std@@@std@@KAXXZ
_TEXT	SEGMENT
$T232669 = -80						; size = 28
$T232668 = -52						; size = 40
__$EHRec$ = -12						; size = 12
?_Xlen@?$vector@VCvReplayMessage@@V?$allocator@VCvReplayMessage@@@std@@@std@@KAXXZ PROC ; std::vector<CvReplayMessage,std::allocator<CvReplayMessage> >::_Xlen, COMDAT

; 1259 : 		{	// report a length_error

	push	-1
	push	__ehhandler$?_Xlen@?$vector@VCvReplayMessage@@V?$allocator@VCvReplayMessage@@@std@@@std@@KAXXZ
	mov	eax, DWORD PTR fs:0
	push	eax
	mov	DWORD PTR fs:0, esp
	sub	esp, 68					; 00000044H

; 1260 : 		_THROW(length_error, "vector<T> too long");

	push	OFFSET ??_C@_0BD@OLBABOEK@vector?$DMT?$DO?5too?5long?$AA@
	lea	ecx, DWORD PTR $T232669[esp+84]
	call	DWORD PTR __imp_??0?$basic_string@DU?$char_traits@D@std@@V?$allocator@D@2@@std@@QAE@PBD@Z
	lea	ecx, DWORD PTR $T232668[esp+80]
	mov	DWORD PTR __$EHRec$[esp+88], 0
	call	DWORD PTR __imp_??0exception@std@@QAE@XZ
	lea	eax, DWORD PTR $T232669[esp+80]
	push	eax
	lea	ecx, DWORD PTR $T232668[esp+96]
	mov	BYTE PTR __$EHRec$[esp+92], 1
	mov	DWORD PTR $T232668[esp+84], OFFSET ??_7logic_error@std@@6B@
	call	DWORD PTR __imp_??0?$basic_string@DU?$char_traits@D@std@@V?$allocator@D@2@@std@@QAE@ABV01@@Z
	push	OFFSET __TI3?AVlength_error@std@@
	lea	ecx, DWORD PTR $T232668[esp+84]
	push	ecx
	mov	BYTE PTR __$EHRec$[esp+96], 0
	mov	DWORD PTR $T232668[esp+88], OFFSET ??_7length_error@std@@6B@
	call	__CxxThrowException@8
$LN13@Xlen:
$LN12@Xlen:
	int	3
_TEXT	ENDS
;	COMDAT text$x
text$x	SEGMENT
__unwindfunclet$?_Xlen@?$vector@VCvReplayMessage@@V?$allocator@VCvReplayMessage@@@std@@@std@@KAXXZ$0:
	lea	ecx, DWORD PTR $T232669[ebp]
	jmp	DWORD PTR __imp_??1?$basic_string@DU?$char_traits@D@std@@V?$allocator@D@2@@std@@QAE@XZ
__unwindfunclet$?_Xlen@?$vector@VCvReplayMessage@@V?$allocator@VCvReplayMessage@@@std@@@std@@KAXXZ$2:
	lea	ecx, DWORD PTR $T232668[ebp]
	jmp	DWORD PTR __imp_??1exception@std@@UAE@XZ
__ehhandler$?_Xlen@?$vector@VCvReplayMessage@@V?$allocator@VCvReplayMessage@@@std@@@std@@KAXXZ:
	mov	eax, OFFSET __ehfuncinfo$?_Xlen@?$vector@VCvReplayMessage@@V?$allocator@VCvReplayMessage@@@std@@@std@@KAXXZ
	jmp	___CxxFrameHandler3
text$x	ENDS
?_Xlen@?$vector@VCvReplayMessage@@V?$allocator@VCvReplayMessage@@@std@@@std@@KAXXZ ENDP ; std::vector<CvReplayMessage,std::allocator<CvReplayMessage> >::_Xlen
PUBLIC	??1?$_Container_base_aux_alloc_empty@V?$allocator@VCvReplayMessage@@@std@@@std@@IAE@XZ ; std::_Container_base_aux_alloc_empty<std::allocator<CvReplayMessage> >::~_Container_base_aux_alloc_empty<std::allocator<CvReplayMessage> >
; Function compile flags: /Ogtpy
; File c:\program files (x86)\microsoft visual studio 9.0\vc\include\xutility
;	COMDAT ??1?$_Container_base_aux_alloc_empty@V?$allocator@VCvReplayMessage@@@std@@@std@@IAE@XZ
_TEXT	SEGMENT
??1?$_Container_base_aux_alloc_empty@V?$allocator@VCvReplayMessage@@@std@@@std@@IAE@XZ PROC ; std::_Container_base_aux_alloc_empty<std::allocator<CvReplayMessage> >::~_Container_base_aux_alloc_empty<std::allocator<CvReplayMessage> >, COMDAT
; _this$ = ecx

; 627  : 	~_Container_base_aux_alloc_empty() { }

	ret	0
??1?$_Container_base_aux_alloc_empty@V?$allocator@VCvReplayMessage@@@std@@@std@@IAE@XZ ENDP ; std::_Container_base_aux_alloc_empty<std::allocator<CvReplayMessage> >::~_Container_base_aux_alloc_empty<std::allocator<CvReplayMessage> >
_TEXT	ENDS
PUBLIC	??0?$allocator@VCvReplayMessage@@@std@@QAE@XZ	; std::allocator<CvReplayMessage>::allocator<CvReplayMessage>
; Function compile flags: /Ogtpy
; File c:\program files (x86)\microsoft visual studio 9.0\vc\include\xmemory
;	COMDAT ??0?$allocator@VCvReplayMessage@@@std@@QAE@XZ
_TEXT	SEGMENT
??0?$allocator@VCvReplayMessage@@@std@@QAE@XZ PROC	; std::allocator<CvReplayMessage>::allocator<CvReplayMessage>, COMDAT
; _this$ = ecx

; 119  : 	allocator() _THROW0()

	mov	eax, ecx

; 120  : 		{	// construct default allocator (do nothing)
; 121  : 		}

	ret	0
??0?$allocator@VCvReplayMessage@@@std@@QAE@XZ ENDP	; std::allocator<CvReplayMessage>::allocator<CvReplayMessage>
_TEXT	ENDS
PUBLIC	?deallocate@?$allocator@VCvReplayMessage@@@std@@QAEXPAVCvReplayMessage@@I@Z ; std::allocator<CvReplayMessage>::deallocate
; Function compile flags: /Ogtpy
;	COMDAT ?deallocate@?$allocator@VCvReplayMessage@@@std@@QAEXPAVCvReplayMessage@@I@Z
_TEXT	SEGMENT
__Ptr$ = 8						; size = 4
___formal$ = 12						; size = 4
?deallocate@?$allocator@VCvReplayMessage@@@std@@QAEXPAVCvReplayMessage@@I@Z PROC ; std::allocator<CvReplayMessage>::deallocate, COMDAT
; _this$ = ecx

; 140  : 		::operator delete(_Ptr);

	mov	eax, DWORD PTR __Ptr$[esp-4]
	push	eax
	call	??3@YAXPAX@Z				; operator delete
	pop	ecx

; 141  : 		}

	ret	8
?deallocate@?$allocator@VCvReplayMessage@@@std@@QAEXPAVCvReplayMessage@@I@Z ENDP ; std::allocator<CvReplayMessage>::deallocate
_TEXT	ENDS
PUBLIC	?capacity@?$vector@V?$map@IHU?$less@I@std@@V?$allocator@U?$pair@$$CBIH@std@@@2@@std@@V?$allocator@V?$map@IHU?$less@I@std@@V?$allocator@U?$pair@$$CBIH@std@@@2@@std@@@2@@std@@QBEIXZ ; std::vector<std::map<unsigned int,int,std::less<unsigned int>,std::allocator<std::pair<unsigned int const ,int> > >,std::allocator<std::map<unsigned int,int,std::less<unsigned int>,std::allocator<std::pair<unsigned int const ,int> > > > >::capacity
; Function compile flags: /Ogtpy
; File c:\program files (x86)\microsoft visual studio 9.0\vc\include\vector
;	COMDAT ?capacity@?$vector@V?$map@IHU?$less@I@std@@V?$allocator@U?$pair@$$CBIH@std@@@2@@std@@V?$allocator@V?$map@IHU?$less@I@std@@V?$allocator@U?$pair@$$CBIH@std@@@2@@std@@@2@@std@@QBEIXZ
_TEXT	SEGMENT
?capacity@?$vector@V?$map@IHU?$less@I@std@@V?$allocator@U?$pair@$$CBIH@std@@@2@@std@@V?$allocator@V?$map@IHU?$less@I@std@@V?$allocator@U?$pair@$$CBIH@std@@@2@@std@@@2@@std@@QBEIXZ PROC ; std::vector<std::map<unsigned int,int,std::less<unsigned int>,std::allocator<std::pair<unsigned int const ,int> > >,std::allocator<std::map<unsigned int,int,std::less<unsigned int>,std::allocator<std::pair<unsigned int const ,int> > > > >::capacity, COMDAT
; _this$ = ecx

; 635  : 		return (_Myfirst == 0 ? 0 : _Myend - _Myfirst);

	mov	eax, DWORD PTR [ecx+4]
	test	eax, eax
	jne	SHORT $LN3@capacity@3

; 636  : 		}

	ret	0
$LN3@capacity@3:

; 635  : 		return (_Myfirst == 0 ? 0 : _Myend - _Myfirst);

	mov	ecx, DWORD PTR [ecx+12]
	sub	ecx, eax
	mov	eax, 715827883				; 2aaaaaabH
	imul	ecx
	sar	edx, 1
	mov	eax, edx
	shr	eax, 31					; 0000001fH
	add	eax, edx

; 636  : 		}

	ret	0
?capacity@?$vector@V?$map@IHU?$less@I@std@@V?$allocator@U?$pair@$$CBIH@std@@@2@@std@@V?$allocator@V?$map@IHU?$less@I@std@@V?$allocator@U?$pair@$$CBIH@std@@@2@@std@@@2@@std@@QBEIXZ ENDP ; std::vector<std::map<unsigned int,int,std::less<unsigned int>,std::allocator<std::pair<unsigned int const ,int> > >,std::allocator<std::map<unsigned int,int,std::less<unsigned int>,std::allocator<std::pair<unsigned int const ,int> > > > >::capacity
_TEXT	ENDS
PUBLIC	?size@?$vector@V?$map@IHU?$less@I@std@@V?$allocator@U?$pair@$$CBIH@std@@@2@@std@@V?$allocator@V?$map@IHU?$less@I@std@@V?$allocator@U?$pair@$$CBIH@std@@@2@@std@@@2@@std@@QBEIXZ ; std::vector<std::map<unsigned int,int,std::less<unsigned int>,std::allocator<std::pair<unsigned int const ,int> > >,std::allocator<std::map<unsigned int,int,std::less<unsigned int>,std::allocator<std::pair<unsigned int const ,int> > > > >::size
; Function compile flags: /Ogtpy
;	COMDAT ?size@?$vector@V?$map@IHU?$less@I@std@@V?$allocator@U?$pair@$$CBIH@std@@@2@@std@@V?$allocator@V?$map@IHU?$less@I@std@@V?$allocator@U?$pair@$$CBIH@std@@@2@@std@@@2@@std@@QBEIXZ
_TEXT	SEGMENT
?size@?$vector@V?$map@IHU?$less@I@std@@V?$allocator@U?$pair@$$CBIH@std@@@2@@std@@V?$allocator@V?$map@IHU?$less@I@std@@V?$allocator@U?$pair@$$CBIH@std@@@2@@std@@@2@@std@@QBEIXZ PROC ; std::vector<std::map<unsigned int,int,std::less<unsigned int>,std::allocator<std::pair<unsigned int const ,int> > >,std::allocator<std::map<unsigned int,int,std::less<unsigned int>,std::allocator<std::pair<unsigned int const ,int> > > > >::size, COMDAT
; _this$ = ecx

; 726  : 		return (_Mylast - _Myfirst);

	mov	edx, DWORD PTR [ecx+8]
	sub	edx, DWORD PTR [ecx+4]
	mov	eax, 715827883				; 2aaaaaabH
	imul	edx
	sar	edx, 1
	mov	eax, edx
	shr	eax, 31					; 0000001fH
	add	eax, edx

; 727  : 		}

	ret	0
?size@?$vector@V?$map@IHU?$less@I@std@@V?$allocator@U?$pair@$$CBIH@std@@@2@@std@@V?$allocator@V?$map@IHU?$less@I@std@@V?$allocator@U?$pair@$$CBIH@std@@@2@@std@@@2@@std@@QBEIXZ ENDP ; std::vector<std::map<unsigned int,int,std::less<unsigned int>,std::allocator<std::pair<unsigned int const ,int> > >,std::allocator<std::map<unsigned int,int,std::less<unsigned int>,std::allocator<std::pair<unsigned int const ,int> > > > >::size
_TEXT	ENDS
PUBLIC	??1?$_Container_base_aux_alloc_empty@V?$allocator@V?$map@IHU?$less@I@std@@V?$allocator@U?$pair@$$CBIH@std@@@2@@std@@@std@@@std@@IAE@XZ ; std::_Container_base_aux_alloc_empty<std::allocator<std::map<unsigned int,int,std::less<unsigned int>,std::allocator<std::pair<unsigned int const ,int> > > > >::~_Container_base_aux_alloc_empty<std::allocator<std::map<unsigned int,int,std::less<unsigned int>,std::allocator<std::pair<unsigned int const ,int> > > > >
; Function compile flags: /Ogtpy
; File c:\program files (x86)\microsoft visual studio 9.0\vc\include\xutility
;	COMDAT ??1?$_Container_base_aux_alloc_empty@V?$allocator@V?$map@IHU?$less@I@std@@V?$allocator@U?$pair@$$CBIH@std@@@2@@std@@@std@@@std@@IAE@XZ
_TEXT	SEGMENT
??1?$_Container_base_aux_alloc_empty@V?$allocator@V?$map@IHU?$less@I@std@@V?$allocator@U?$pair@$$CBIH@std@@@2@@std@@@std@@@std@@IAE@XZ PROC ; std::_Container_base_aux_alloc_empty<std::allocator<std::map<unsigned int,int,std::less<unsigned int>,std::allocator<std::pair<unsigned int const ,int> > > > >::~_Container_base_aux_alloc_empty<std::allocator<std::map<unsigned int,int,std::less<unsigned int>,std::allocator<std::pair<unsigned int const ,int> > > > >, COMDAT
; _this$ = ecx

; 627  : 	~_Container_base_aux_alloc_empty() { }

	ret	0
??1?$_Container_base_aux_alloc_empty@V?$allocator@V?$map@IHU?$less@I@std@@V?$allocator@U?$pair@$$CBIH@std@@@2@@std@@@std@@@std@@IAE@XZ ENDP ; std::_Container_base_aux_alloc_empty<std::allocator<std::map<unsigned int,int,std::less<unsigned int>,std::allocator<std::pair<unsigned int const ,int> > > > >::~_Container_base_aux_alloc_empty<std::allocator<std::map<unsigned int,int,std::less<unsigned int>,std::allocator<std::pair<unsigned int const ,int> > > > >
_TEXT	ENDS
PUBLIC	??0?$allocator@V?$map@IHU?$less@I@std@@V?$allocator@U?$pair@$$CBIH@std@@@2@@std@@@std@@QAE@XZ ; std::allocator<std::map<unsigned int,int,std::less<unsigned int>,std::allocator<std::pair<unsigned int const ,int> > > >::allocator<std::map<unsigned int,int,std::less<unsigned int>,std::allocator<std::pair<unsigned int const ,int> > > >
; Function compile flags: /Ogtpy
; File c:\program files (x86)\microsoft visual studio 9.0\vc\include\xmemory
;	COMDAT ??0?$allocator@V?$map@IHU?$less@I@std@@V?$allocator@U?$pair@$$CBIH@std@@@2@@std@@@std@@QAE@XZ
_TEXT	SEGMENT
??0?$allocator@V?$map@IHU?$less@I@std@@V?$allocator@U?$pair@$$CBIH@std@@@2@@std@@@std@@QAE@XZ PROC ; std::allocator<std::map<unsigned int,int,std::less<unsigned int>,std::allocator<std::pair<unsigned int const ,int> > > >::allocator<std::map<unsigned int,int,std::less<unsigned int>,std::allocator<std::pair<unsigned int const ,int> > > >, COMDAT
; _this$ = ecx

; 119  : 	allocator() _THROW0()

	mov	eax, ecx

; 120  : 		{	// construct default allocator (do nothing)
; 121  : 		}

	ret	0
??0?$allocator@V?$map@IHU?$less@I@std@@V?$allocator@U?$pair@$$CBIH@std@@@2@@std@@@std@@QAE@XZ ENDP ; std::allocator<std::map<unsigned int,int,std::less<unsigned int>,std::allocator<std::pair<unsigned int const ,int> > > >::allocator<std::map<unsigned int,int,std::less<unsigned int>,std::allocator<std::pair<unsigned int const ,int> > > >
_TEXT	ENDS
PUBLIC	??1?$_Container_base_aux_alloc_empty@V?$allocator@U?$pair@$$CBHH@std@@@std@@@std@@IAE@XZ ; std::_Container_base_aux_alloc_empty<std::allocator<std::pair<int const ,int> > >::~_Container_base_aux_alloc_empty<std::allocator<std::pair<int const ,int> > >
; Function compile flags: /Ogtpy
; File c:\program files (x86)\microsoft visual studio 9.0\vc\include\xutility
;	COMDAT ??1?$_Container_base_aux_alloc_empty@V?$allocator@U?$pair@$$CBHH@std@@@std@@@std@@IAE@XZ
_TEXT	SEGMENT
??1?$_Container_base_aux_alloc_empty@V?$allocator@U?$pair@$$CBHH@std@@@std@@@std@@IAE@XZ PROC ; std::_Container_base_aux_alloc_empty<std::allocator<std::pair<int const ,int> > >::~_Container_base_aux_alloc_empty<std::allocator<std::pair<int const ,int> > >, COMDAT
; _this$ = ecx

; 627  : 	~_Container_base_aux_alloc_empty() { }

	ret	0
??1?$_Container_base_aux_alloc_empty@V?$allocator@U?$pair@$$CBHH@std@@@std@@@std@@IAE@XZ ENDP ; std::_Container_base_aux_alloc_empty<std::allocator<std::pair<int const ,int> > >::~_Container_base_aux_alloc_empty<std::allocator<std::pair<int const ,int> > >
_TEXT	ENDS
PUBLIC	??0?$allocator@U?$pair@$$CBHH@std@@@std@@QAE@XZ	; std::allocator<std::pair<int const ,int> >::allocator<std::pair<int const ,int> >
; Function compile flags: /Ogtpy
; File c:\program files (x86)\microsoft visual studio 9.0\vc\include\xmemory
;	COMDAT ??0?$allocator@U?$pair@$$CBHH@std@@@std@@QAE@XZ
_TEXT	SEGMENT
??0?$allocator@U?$pair@$$CBHH@std@@@std@@QAE@XZ PROC	; std::allocator<std::pair<int const ,int> >::allocator<std::pair<int const ,int> >, COMDAT
; _this$ = ecx

; 119  : 	allocator() _THROW0()

	mov	eax, ecx

; 120  : 		{	// construct default allocator (do nothing)
; 121  : 		}

	ret	0
??0?$allocator@U?$pair@$$CBHH@std@@@std@@QAE@XZ ENDP	; std::allocator<std::pair<int const ,int> >::allocator<std::pair<int const ,int> >
_TEXT	ENDS
PUBLIC	?capacity@?$vector@W4GameOptionTypes@@V?$allocator@W4GameOptionTypes@@@std@@@std@@QBEIXZ ; std::vector<enum GameOptionTypes,std::allocator<enum GameOptionTypes> >::capacity
; Function compile flags: /Ogtpy
; File c:\program files (x86)\microsoft visual studio 9.0\vc\include\vector
;	COMDAT ?capacity@?$vector@W4GameOptionTypes@@V?$allocator@W4GameOptionTypes@@@std@@@std@@QBEIXZ
_TEXT	SEGMENT
?capacity@?$vector@W4GameOptionTypes@@V?$allocator@W4GameOptionTypes@@@std@@@std@@QBEIXZ PROC ; std::vector<enum GameOptionTypes,std::allocator<enum GameOptionTypes> >::capacity, COMDAT
; _this$ = ecx

; 635  : 		return (_Myfirst == 0 ? 0 : _Myend - _Myfirst);

	mov	edx, DWORD PTR [ecx+4]
	test	edx, edx
	jne	SHORT $LN3@capacity@4
	xor	eax, eax

; 636  : 		}

	ret	0
$LN3@capacity@4:

; 635  : 		return (_Myfirst == 0 ? 0 : _Myend - _Myfirst);

	mov	eax, DWORD PTR [ecx+12]
	sub	eax, edx
	sar	eax, 2

; 636  : 		}

	ret	0
?capacity@?$vector@W4GameOptionTypes@@V?$allocator@W4GameOptionTypes@@@std@@@std@@QBEIXZ ENDP ; std::vector<enum GameOptionTypes,std::allocator<enum GameOptionTypes> >::capacity
_TEXT	ENDS
PUBLIC	??1?$_Container_base_aux_alloc_empty@V?$allocator@W4GameOptionTypes@@@std@@@std@@IAE@XZ ; std::_Container_base_aux_alloc_empty<std::allocator<enum GameOptionTypes> >::~_Container_base_aux_alloc_empty<std::allocator<enum GameOptionTypes> >
; Function compile flags: /Ogtpy
; File c:\program files (x86)\microsoft visual studio 9.0\vc\include\xutility
;	COMDAT ??1?$_Container_base_aux_alloc_empty@V?$allocator@W4GameOptionTypes@@@std@@@std@@IAE@XZ
_TEXT	SEGMENT
??1?$_Container_base_aux_alloc_empty@V?$allocator@W4GameOptionTypes@@@std@@@std@@IAE@XZ PROC ; std::_Container_base_aux_alloc_empty<std::allocator<enum GameOptionTypes> >::~_Container_base_aux_alloc_empty<std::allocator<enum GameOptionTypes> >, COMDAT
; _this$ = ecx

; 627  : 	~_Container_base_aux_alloc_empty() { }

	ret	0
??1?$_Container_base_aux_alloc_empty@V?$allocator@W4GameOptionTypes@@@std@@@std@@IAE@XZ ENDP ; std::_Container_base_aux_alloc_empty<std::allocator<enum GameOptionTypes> >::~_Container_base_aux_alloc_empty<std::allocator<enum GameOptionTypes> >
_TEXT	ENDS
PUBLIC	??0?$allocator@W4GameOptionTypes@@@std@@QAE@XZ	; std::allocator<enum GameOptionTypes>::allocator<enum GameOptionTypes>
; Function compile flags: /Ogtpy
; File c:\program files (x86)\microsoft visual studio 9.0\vc\include\xmemory
;	COMDAT ??0?$allocator@W4GameOptionTypes@@@std@@QAE@XZ
_TEXT	SEGMENT
??0?$allocator@W4GameOptionTypes@@@std@@QAE@XZ PROC	; std::allocator<enum GameOptionTypes>::allocator<enum GameOptionTypes>, COMDAT
; _this$ = ecx

; 119  : 	allocator() _THROW0()

	mov	eax, ecx

; 120  : 		{	// construct default allocator (do nothing)
; 121  : 		}

	ret	0
??0?$allocator@W4GameOptionTypes@@@std@@QAE@XZ ENDP	; std::allocator<enum GameOptionTypes>::allocator<enum GameOptionTypes>
_TEXT	ENDS
PUBLIC	?capacity@?$vector@W4VictoryTypes@@V?$allocator@W4VictoryTypes@@@std@@@std@@QBEIXZ ; std::vector<enum VictoryTypes,std::allocator<enum VictoryTypes> >::capacity
; Function compile flags: /Ogtpy
; File c:\program files (x86)\microsoft visual studio 9.0\vc\include\vector
;	COMDAT ?capacity@?$vector@W4VictoryTypes@@V?$allocator@W4VictoryTypes@@@std@@@std@@QBEIXZ
_TEXT	SEGMENT
?capacity@?$vector@W4VictoryTypes@@V?$allocator@W4VictoryTypes@@@std@@@std@@QBEIXZ PROC ; std::vector<enum VictoryTypes,std::allocator<enum VictoryTypes> >::capacity, COMDAT
; _this$ = ecx

; 635  : 		return (_Myfirst == 0 ? 0 : _Myend - _Myfirst);

	mov	edx, DWORD PTR [ecx+4]
	test	edx, edx
	jne	SHORT $LN3@capacity@5
	xor	eax, eax

; 636  : 		}

	ret	0
$LN3@capacity@5:

; 635  : 		return (_Myfirst == 0 ? 0 : _Myend - _Myfirst);

	mov	eax, DWORD PTR [ecx+12]
	sub	eax, edx
	sar	eax, 2

; 636  : 		}

	ret	0
?capacity@?$vector@W4VictoryTypes@@V?$allocator@W4VictoryTypes@@@std@@@std@@QBEIXZ ENDP ; std::vector<enum VictoryTypes,std::allocator<enum VictoryTypes> >::capacity
_TEXT	ENDS
PUBLIC	??1?$_Container_base_aux_alloc_empty@V?$allocator@W4VictoryTypes@@@std@@@std@@IAE@XZ ; std::_Container_base_aux_alloc_empty<std::allocator<enum VictoryTypes> >::~_Container_base_aux_alloc_empty<std::allocator<enum VictoryTypes> >
; Function compile flags: /Ogtpy
; File c:\program files (x86)\microsoft visual studio 9.0\vc\include\xutility
;	COMDAT ??1?$_Container_base_aux_alloc_empty@V?$allocator@W4VictoryTypes@@@std@@@std@@IAE@XZ
_TEXT	SEGMENT
??1?$_Container_base_aux_alloc_empty@V?$allocator@W4VictoryTypes@@@std@@@std@@IAE@XZ PROC ; std::_Container_base_aux_alloc_empty<std::allocator<enum VictoryTypes> >::~_Container_base_aux_alloc_empty<std::allocator<enum VictoryTypes> >, COMDAT
; _this$ = ecx

; 627  : 	~_Container_base_aux_alloc_empty() { }

	ret	0
??1?$_Container_base_aux_alloc_empty@V?$allocator@W4VictoryTypes@@@std@@@std@@IAE@XZ ENDP ; std::_Container_base_aux_alloc_empty<std::allocator<enum VictoryTypes> >::~_Container_base_aux_alloc_empty<std::allocator<enum VictoryTypes> >
_TEXT	ENDS
PUBLIC	??0?$allocator@W4VictoryTypes@@@std@@QAE@XZ	; std::allocator<enum VictoryTypes>::allocator<enum VictoryTypes>
; Function compile flags: /Ogtpy
; File c:\program files (x86)\microsoft visual studio 9.0\vc\include\xmemory
;	COMDAT ??0?$allocator@W4VictoryTypes@@@std@@QAE@XZ
_TEXT	SEGMENT
??0?$allocator@W4VictoryTypes@@@std@@QAE@XZ PROC	; std::allocator<enum VictoryTypes>::allocator<enum VictoryTypes>, COMDAT
; _this$ = ecx

; 119  : 	allocator() _THROW0()

	mov	eax, ecx

; 120  : 		{	// construct default allocator (do nothing)
; 121  : 		}

	ret	0
??0?$allocator@W4VictoryTypes@@@std@@QAE@XZ ENDP	; std::allocator<enum VictoryTypes>::allocator<enum VictoryTypes>
_TEXT	ENDS
PUBLIC	?capacity@?$vector@UPlayerInfo@CvReplayInfo@@V?$allocator@UPlayerInfo@CvReplayInfo@@@std@@@std@@QBEIXZ ; std::vector<CvReplayInfo::PlayerInfo,std::allocator<CvReplayInfo::PlayerInfo> >::capacity
; Function compile flags: /Ogtpy
; File c:\program files (x86)\microsoft visual studio 9.0\vc\include\vector
;	COMDAT ?capacity@?$vector@UPlayerInfo@CvReplayInfo@@V?$allocator@UPlayerInfo@CvReplayInfo@@@std@@@std@@QBEIXZ
_TEXT	SEGMENT
?capacity@?$vector@UPlayerInfo@CvReplayInfo@@V?$allocator@UPlayerInfo@CvReplayInfo@@@std@@@std@@QBEIXZ PROC ; std::vector<CvReplayInfo::PlayerInfo,std::allocator<CvReplayInfo::PlayerInfo> >::capacity, COMDAT
; _this$ = ecx

; 635  : 		return (_Myfirst == 0 ? 0 : _Myend - _Myfirst);

	mov	edx, DWORD PTR [ecx+4]
	test	edx, edx
	jne	SHORT $LN3@capacity@6
	xor	eax, eax

; 636  : 		}

	ret	0
$LN3@capacity@6:

; 635  : 		return (_Myfirst == 0 ? 0 : _Myend - _Myfirst);

	mov	eax, DWORD PTR [ecx+12]
	sub	eax, edx
	sar	eax, 7

; 636  : 		}

	ret	0
?capacity@?$vector@UPlayerInfo@CvReplayInfo@@V?$allocator@UPlayerInfo@CvReplayInfo@@@std@@@std@@QBEIXZ ENDP ; std::vector<CvReplayInfo::PlayerInfo,std::allocator<CvReplayInfo::PlayerInfo> >::capacity
_TEXT	ENDS
PUBLIC	??1?$_Container_base_aux_alloc_empty@V?$allocator@UPlayerInfo@CvReplayInfo@@@std@@@std@@IAE@XZ ; std::_Container_base_aux_alloc_empty<std::allocator<CvReplayInfo::PlayerInfo> >::~_Container_base_aux_alloc_empty<std::allocator<CvReplayInfo::PlayerInfo> >
; Function compile flags: /Ogtpy
; File c:\program files (x86)\microsoft visual studio 9.0\vc\include\xutility
;	COMDAT ??1?$_Container_base_aux_alloc_empty@V?$allocator@UPlayerInfo@CvReplayInfo@@@std@@@std@@IAE@XZ
_TEXT	SEGMENT
??1?$_Container_base_aux_alloc_empty@V?$allocator@UPlayerInfo@CvReplayInfo@@@std@@@std@@IAE@XZ PROC ; std::_Container_base_aux_alloc_empty<std::allocator<CvReplayInfo::PlayerInfo> >::~_Container_base_aux_alloc_empty<std::allocator<CvReplayInfo::PlayerInfo> >, COMDAT
; _this$ = ecx

; 627  : 	~_Container_base_aux_alloc_empty() { }

	ret	0
??1?$_Container_base_aux_alloc_empty@V?$allocator@UPlayerInfo@CvReplayInfo@@@std@@@std@@IAE@XZ ENDP ; std::_Container_base_aux_alloc_empty<std::allocator<CvReplayInfo::PlayerInfo> >::~_Container_base_aux_alloc_empty<std::allocator<CvReplayInfo::PlayerInfo> >
_TEXT	ENDS
PUBLIC	??0?$allocator@UPlayerInfo@CvReplayInfo@@@std@@QAE@XZ ; std::allocator<CvReplayInfo::PlayerInfo>::allocator<CvReplayInfo::PlayerInfo>
; Function compile flags: /Ogtpy
; File c:\program files (x86)\microsoft visual studio 9.0\vc\include\xmemory
;	COMDAT ??0?$allocator@UPlayerInfo@CvReplayInfo@@@std@@QAE@XZ
_TEXT	SEGMENT
??0?$allocator@UPlayerInfo@CvReplayInfo@@@std@@QAE@XZ PROC ; std::allocator<CvReplayInfo::PlayerInfo>::allocator<CvReplayInfo::PlayerInfo>, COMDAT
; _this$ = ecx

; 119  : 	allocator() _THROW0()

	mov	eax, ecx

; 120  : 		{	// construct default allocator (do nothing)
; 121  : 		}

	ret	0
??0?$allocator@UPlayerInfo@CvReplayInfo@@@std@@QAE@XZ ENDP ; std::allocator<CvReplayInfo::PlayerInfo>::allocator<CvReplayInfo::PlayerInfo>
_TEXT	ENDS
PUBLIC	?capacity@?$vector@V?$vector@V?$map@IHU?$less@I@std@@V?$allocator@U?$pair@$$CBIH@std@@@2@@std@@V?$allocator@V?$map@IHU?$less@I@std@@V?$allocator@U?$pair@$$CBIH@std@@@2@@std@@@2@@std@@V?$allocator@V?$vector@V?$map@IHU?$less@I@std@@V?$allocator@U?$pair@$$CBIH@std@@@2@@std@@V?$allocator@V?$map@IHU?$less@I@std@@V?$allocator@U?$pair@$$CBIH@std@@@2@@std@@@2@@std@@@2@@std@@QBEIXZ ; std::vector<std::vector<std::map<unsigned int,int,std::less<unsigned int>,std::allocator<std::pair<unsigned int const ,int> > >,std::allocator<std::map<unsigned int,int,std::less<unsigned int>,std::allocator<std::pair<unsigned int const ,int> > > > >,std::allocator<std::vector<std::map<unsigned int,int,std::less<unsigned int>,std::allocator<std::pair<unsigned int const ,int> > >,std::allocator<std::map<unsigned int,int,std::less<unsigned int>,std::allocator<std::pair<unsigned int const ,int> > > > > > >::capacity
; Function compile flags: /Ogtpy
; File c:\program files (x86)\microsoft visual studio 9.0\vc\include\vector
;	COMDAT ?capacity@?$vector@V?$vector@V?$map@IHU?$less@I@std@@V?$allocator@U?$pair@$$CBIH@std@@@2@@std@@V?$allocator@V?$map@IHU?$less@I@std@@V?$allocator@U?$pair@$$CBIH@std@@@2@@std@@@2@@std@@V?$allocator@V?$vector@V?$map@IHU?$less@I@std@@V?$allocator@U?$pair@$$CBIH@std@@@2@@std@@V?$allocator@V?$map@IHU?$less@I@std@@V?$allocator@U?$pair@$$CBIH@std@@@2@@std@@@2@@std@@@2@@std@@QBEIXZ
_TEXT	SEGMENT
?capacity@?$vector@V?$vector@V?$map@IHU?$less@I@std@@V?$allocator@U?$pair@$$CBIH@std@@@2@@std@@V?$allocator@V?$map@IHU?$less@I@std@@V?$allocator@U?$pair@$$CBIH@std@@@2@@std@@@2@@std@@V?$allocator@V?$vector@V?$map@IHU?$less@I@std@@V?$allocator@U?$pair@$$CBIH@std@@@2@@std@@V?$allocator@V?$map@IHU?$less@I@std@@V?$allocator@U?$pair@$$CBIH@std@@@2@@std@@@2@@std@@@2@@std@@QBEIXZ PROC ; std::vector<std::vector<std::map<unsigned int,int,std::less<unsigned int>,std::allocator<std::pair<unsigned int const ,int> > >,std::allocator<std::map<unsigned int,int,std::less<unsigned int>,std::allocator<std::pair<unsigned int const ,int> > > > >,std::allocator<std::vector<std::map<unsigned int,int,std::less<unsigned int>,std::allocator<std::pair<unsigned int const ,int> > >,std::allocator<std::map<unsigned int,int,std::less<unsigned int>,std::allocator<std::pair<unsigned int const ,int> > > > > > >::capacity, COMDAT
; _this$ = ecx

; 635  : 		return (_Myfirst == 0 ? 0 : _Myend - _Myfirst);

	mov	edx, DWORD PTR [ecx+4]
	test	edx, edx
	jne	SHORT $LN3@capacity@7
	xor	eax, eax

; 636  : 		}

	ret	0
$LN3@capacity@7:

; 635  : 		return (_Myfirst == 0 ? 0 : _Myend - _Myfirst);

	mov	eax, DWORD PTR [ecx+12]
	sub	eax, edx
	sar	eax, 4

; 636  : 		}

	ret	0
?capacity@?$vector@V?$vector@V?$map@IHU?$less@I@std@@V?$allocator@U?$pair@$$CBIH@std@@@2@@std@@V?$allocator@V?$map@IHU?$less@I@std@@V?$allocator@U?$pair@$$CBIH@std@@@2@@std@@@2@@std@@V?$allocator@V?$vector@V?$map@IHU?$less@I@std@@V?$allocator@U?$pair@$$CBIH@std@@@2@@std@@V?$allocator@V?$map@IHU?$less@I@std@@V?$allocator@U?$pair@$$CBIH@std@@@2@@std@@@2@@std@@@2@@std@@QBEIXZ ENDP ; std::vector<std::vector<std::map<unsigned int,int,std::less<unsigned int>,std::allocator<std::pair<unsigned int const ,int> > >,std::allocator<std::map<unsigned int,int,std::less<unsigned int>,std::allocator<std::pair<unsigned int const ,int> > > > >,std::allocator<std::vector<std::map<unsigned int,int,std::less<unsigned int>,std::allocator<std::pair<unsigned int const ,int> > >,std::allocator<std::map<unsigned int,int,std::less<unsigned int>,std::allocator<std::pair<unsigned int const ,int> > > > > > >::capacity
_TEXT	ENDS
PUBLIC	?size@?$vector@V?$vector@V?$map@IHU?$less@I@std@@V?$allocator@U?$pair@$$CBIH@std@@@2@@std@@V?$allocator@V?$map@IHU?$less@I@std@@V?$allocator@U?$pair@$$CBIH@std@@@2@@std@@@2@@std@@V?$allocator@V?$vector@V?$map@IHU?$less@I@std@@V?$allocator@U?$pair@$$CBIH@std@@@2@@std@@V?$allocator@V?$map@IHU?$less@I@std@@V?$allocator@U?$pair@$$CBIH@std@@@2@@std@@@2@@std@@@2@@std@@QBEIXZ ; std::vector<std::vector<std::map<unsigned int,int,std::less<unsigned int>,std::allocator<std::pair<unsigned int const ,int> > >,std::allocator<std::map<unsigned int,int,std::less<unsigned int>,std::allocator<std::pair<unsigned int const ,int> > > > >,std::allocator<std::vector<std::map<unsigned int,int,std::less<unsigned int>,std::allocator<std::pair<unsigned int const ,int> > >,std::allocator<std::map<unsigned int,int,std::less<unsigned int>,std::allocator<std::pair<unsigned int const ,int> > > > > > >::size
; Function compile flags: /Ogtpy
;	COMDAT ?size@?$vector@V?$vector@V?$map@IHU?$less@I@std@@V?$allocator@U?$pair@$$CBIH@std@@@2@@std@@V?$allocator@V?$map@IHU?$less@I@std@@V?$allocator@U?$pair@$$CBIH@std@@@2@@std@@@2@@std@@V?$allocator@V?$vector@V?$map@IHU?$less@I@std@@V?$allocator@U?$pair@$$CBIH@std@@@2@@std@@V?$allocator@V?$map@IHU?$less@I@std@@V?$allocator@U?$pair@$$CBIH@std@@@2@@std@@@2@@std@@@2@@std@@QBEIXZ
_TEXT	SEGMENT
?size@?$vector@V?$vector@V?$map@IHU?$less@I@std@@V?$allocator@U?$pair@$$CBIH@std@@@2@@std@@V?$allocator@V?$map@IHU?$less@I@std@@V?$allocator@U?$pair@$$CBIH@std@@@2@@std@@@2@@std@@V?$allocator@V?$vector@V?$map@IHU?$less@I@std@@V?$allocator@U?$pair@$$CBIH@std@@@2@@std@@V?$allocator@V?$map@IHU?$less@I@std@@V?$allocator@U?$pair@$$CBIH@std@@@2@@std@@@2@@std@@@2@@std@@QBEIXZ PROC ; std::vector<std::vector<std::map<unsigned int,int,std::less<unsigned int>,std::allocator<std::pair<unsigned int const ,int> > >,std::allocator<std::map<unsigned int,int,std::less<unsigned int>,std::allocator<std::pair<unsigned int const ,int> > > > >,std::allocator<std::vector<std::map<unsigned int,int,std::less<unsigned int>,std::allocator<std::pair<unsigned int const ,int> > >,std::allocator<std::map<unsigned int,int,std::less<unsigned int>,std::allocator<std::pair<unsigned int const ,int> > > > > > >::size, COMDAT
; _this$ = ecx

; 726  : 		return (_Mylast - _Myfirst);

	mov	eax, DWORD PTR [ecx+8]
	sub	eax, DWORD PTR [ecx+4]
	sar	eax, 4

; 727  : 		}

	ret	0
?size@?$vector@V?$vector@V?$map@IHU?$less@I@std@@V?$allocator@U?$pair@$$CBIH@std@@@2@@std@@V?$allocator@V?$map@IHU?$less@I@std@@V?$allocator@U?$pair@$$CBIH@std@@@2@@std@@@2@@std@@V?$allocator@V?$vector@V?$map@IHU?$less@I@std@@V?$allocator@U?$pair@$$CBIH@std@@@2@@std@@V?$allocator@V?$map@IHU?$less@I@std@@V?$allocator@U?$pair@$$CBIH@std@@@2@@std@@@2@@std@@@2@@std@@QBEIXZ ENDP ; std::vector<std::vector<std::map<unsigned int,int,std::less<unsigned int>,std::allocator<std::pair<unsigned int const ,int> > >,std::allocator<std::map<unsigned int,int,std::less<unsigned int>,std::allocator<std::pair<unsigned int const ,int> > > > >,std::allocator<std::vector<std::map<unsigned int,int,std::less<unsigned int>,std::allocator<std::pair<unsigned int const ,int> > >,std::allocator<std::map<unsigned int,int,std::less<unsigned int>,std::allocator<std::pair<unsigned int const ,int> > > > > > >::size
_TEXT	ENDS
PUBLIC	??1?$_Container_base_aux_alloc_empty@V?$allocator@V?$vector@V?$map@IHU?$less@I@std@@V?$allocator@U?$pair@$$CBIH@std@@@2@@std@@V?$allocator@V?$map@IHU?$less@I@std@@V?$allocator@U?$pair@$$CBIH@std@@@2@@std@@@2@@std@@@std@@@std@@IAE@XZ ; std::_Container_base_aux_alloc_empty<std::allocator<std::vector<std::map<unsigned int,int,std::less<unsigned int>,std::allocator<std::pair<unsigned int const ,int> > >,std::allocator<std::map<unsigned int,int,std::less<unsigned int>,std::allocator<std::pair<unsigned int const ,int> > > > > > >::~_Container_base_aux_alloc_empty<std::allocator<std::vector<std::map<unsigned int,int,std::less<unsigned int>,std::allocator<std::pair<unsigned int const ,int> > >,std::allocator<std::map<unsigned int,int,std::less<unsigned int>,std::allocator<std::pair<unsigned int const ,int> > > > > > >
; Function compile flags: /Ogtpy
; File c:\program files (x86)\microsoft visual studio 9.0\vc\include\xutility
;	COMDAT ??1?$_Container_base_aux_alloc_empty@V?$allocator@V?$vector@V?$map@IHU?$less@I@std@@V?$allocator@U?$pair@$$CBIH@std@@@2@@std@@V?$allocator@V?$map@IHU?$less@I@std@@V?$allocator@U?$pair@$$CBIH@std@@@2@@std@@@2@@std@@@std@@@std@@IAE@XZ
_TEXT	SEGMENT
??1?$_Container_base_aux_alloc_empty@V?$allocator@V?$vector@V?$map@IHU?$less@I@std@@V?$allocator@U?$pair@$$CBIH@std@@@2@@std@@V?$allocator@V?$map@IHU?$less@I@std@@V?$allocator@U?$pair@$$CBIH@std@@@2@@std@@@2@@std@@@std@@@std@@IAE@XZ PROC ; std::_Container_base_aux_alloc_empty<std::allocator<std::vector<std::map<unsigned int,int,std::less<unsigned int>,std::allocator<std::pair<unsigned int const ,int> > >,std::allocator<std::map<unsigned int,int,std::less<unsigned int>,std::allocator<std::pair<unsigned int const ,int> > > > > > >::~_Container_base_aux_alloc_empty<std::allocator<std::vector<std::map<unsigned int,int,std::less<unsigned int>,std::allocator<std::pair<unsigned int const ,int> > >,std::allocator<std::map<unsigned int,int,std::less<unsigned int>,std::allocator<std::pair<unsigned int const ,int> > > > > > >, COMDAT
; _this$ = ecx

; 627  : 	~_Container_base_aux_alloc_empty() { }

	ret	0
??1?$_Container_base_aux_alloc_empty@V?$allocator@V?$vector@V?$map@IHU?$less@I@std@@V?$allocator@U?$pair@$$CBIH@std@@@2@@std@@V?$allocator@V?$map@IHU?$less@I@std@@V?$allocator@U?$pair@$$CBIH@std@@@2@@std@@@2@@std@@@std@@@std@@IAE@XZ ENDP ; std::_Container_base_aux_alloc_empty<std::allocator<std::vector<std::map<unsigned int,int,std::less<unsigned int>,std::allocator<std::pair<unsigned int const ,int> > >,std::allocator<std::map<unsigned int,int,std::less<unsigned int>,std::allocator<std::pair<unsigned int const ,int> > > > > > >::~_Container_base_aux_alloc_empty<std::allocator<std::vector<std::map<unsigned int,int,std::less<unsigned int>,std::allocator<std::pair<unsigned int const ,int> > >,std::allocator<std::map<unsigned int,int,std::less<unsigned int>,std::allocator<std::pair<unsigned int const ,int> > > > > > >
_TEXT	ENDS
PUBLIC	??0?$allocator@V?$vector@V?$map@IHU?$less@I@std@@V?$allocator@U?$pair@$$CBIH@std@@@2@@std@@V?$allocator@V?$map@IHU?$less@I@std@@V?$allocator@U?$pair@$$CBIH@std@@@2@@std@@@2@@std@@@std@@QAE@XZ ; std::allocator<std::vector<std::map<unsigned int,int,std::less<unsigned int>,std::allocator<std::pair<unsigned int const ,int> > >,std::allocator<std::map<unsigned int,int,std::less<unsigned int>,std::allocator<std::pair<unsigned int const ,int> > > > > >::allocator<std::vector<std::map<unsigned int,int,std::less<unsigned int>,std::allocator<std::pair<unsigned int const ,int> > >,std::allocator<std::map<unsigned int,int,std::less<unsigned int>,std::allocator<std::pair<unsigned int const ,int> > > > > >
; Function compile flags: /Ogtpy
; File c:\program files (x86)\microsoft visual studio 9.0\vc\include\xmemory
;	COMDAT ??0?$allocator@V?$vector@V?$map@IHU?$less@I@std@@V?$allocator@U?$pair@$$CBIH@std@@@2@@std@@V?$allocator@V?$map@IHU?$less@I@std@@V?$allocator@U?$pair@$$CBIH@std@@@2@@std@@@2@@std@@@std@@QAE@XZ
_TEXT	SEGMENT
??0?$allocator@V?$vector@V?$map@IHU?$less@I@std@@V?$allocator@U?$pair@$$CBIH@std@@@2@@std@@V?$allocator@V?$map@IHU?$less@I@std@@V?$allocator@U?$pair@$$CBIH@std@@@2@@std@@@2@@std@@@std@@QAE@XZ PROC ; std::allocator<std::vector<std::map<unsigned int,int,std::less<unsigned int>,std::allocator<std::pair<unsigned int const ,int> > >,std::allocator<std::map<unsigned int,int,std::less<unsigned int>,std::allocator<std::pair<unsigned int const ,int> > > > > >::allocator<std::vector<std::map<unsigned int,int,std::less<unsigned int>,std::allocator<std::pair<unsigned int const ,int> > >,std::allocator<std::map<unsigned int,int,std::less<unsigned int>,std::allocator<std::pair<unsigned int const ,int> > > > > >, COMDAT
; _this$ = ecx

; 119  : 	allocator() _THROW0()

	mov	eax, ecx

; 120  : 		{	// construct default allocator (do nothing)
; 121  : 		}

	ret	0
??0?$allocator@V?$vector@V?$map@IHU?$less@I@std@@V?$allocator@U?$pair@$$CBIH@std@@@2@@std@@V?$allocator@V?$map@IHU?$less@I@std@@V?$allocator@U?$pair@$$CBIH@std@@@2@@std@@@2@@std@@@std@@QAE@XZ ENDP ; std::allocator<std::vector<std::map<unsigned int,int,std::less<unsigned int>,std::allocator<std::pair<unsigned int const ,int> > >,std::allocator<std::map<unsigned int,int,std::less<unsigned int>,std::allocator<std::pair<unsigned int const ,int> > > > > >::allocator<std::vector<std::map<unsigned int,int,std::less<unsigned int>,std::allocator<std::pair<unsigned int const ,int> > >,std::allocator<std::map<unsigned int,int,std::less<unsigned int>,std::allocator<std::pair<unsigned int const ,int> > > > > >
_TEXT	ENDS
PUBLIC	?capacity@?$vector@V?$map@IUPlotState@CvReplayInfo@@U?$less@I@std@@V?$allocator@U?$pair@$$CBIUPlotState@CvReplayInfo@@@std@@@4@@std@@V?$allocator@V?$map@IUPlotState@CvReplayInfo@@U?$less@I@std@@V?$allocator@U?$pair@$$CBIUPlotState@CvReplayInfo@@@std@@@4@@std@@@2@@std@@QBEIXZ ; std::vector<std::map<unsigned int,CvReplayInfo::PlotState,std::less<unsigned int>,std::allocator<std::pair<unsigned int const ,CvReplayInfo::PlotState> > >,std::allocator<std::map<unsigned int,CvReplayInfo::PlotState,std::less<unsigned int>,std::allocator<std::pair<unsigned int const ,CvReplayInfo::PlotState> > > > >::capacity
; Function compile flags: /Ogtpy
; File c:\program files (x86)\microsoft visual studio 9.0\vc\include\vector
;	COMDAT ?capacity@?$vector@V?$map@IUPlotState@CvReplayInfo@@U?$less@I@std@@V?$allocator@U?$pair@$$CBIUPlotState@CvReplayInfo@@@std@@@4@@std@@V?$allocator@V?$map@IUPlotState@CvReplayInfo@@U?$less@I@std@@V?$allocator@U?$pair@$$CBIUPlotState@CvReplayInfo@@@std@@@4@@std@@@2@@std@@QBEIXZ
_TEXT	SEGMENT
?capacity@?$vector@V?$map@IUPlotState@CvReplayInfo@@U?$less@I@std@@V?$allocator@U?$pair@$$CBIUPlotState@CvReplayInfo@@@std@@@4@@std@@V?$allocator@V?$map@IUPlotState@CvReplayInfo@@U?$less@I@std@@V?$allocator@U?$pair@$$CBIUPlotState@CvReplayInfo@@@std@@@4@@std@@@2@@std@@QBEIXZ PROC ; std::vector<std::map<unsigned int,CvReplayInfo::PlotState,std::less<unsigned int>,std::allocator<std::pair<unsigned int const ,CvReplayInfo::PlotState> > >,std::allocator<std::map<unsigned int,CvReplayInfo::PlotState,std::less<unsigned int>,std::allocator<std::pair<unsigned int const ,CvReplayInfo::PlotState> > > > >::capacity, COMDAT
; _this$ = ecx

; 635  : 		return (_Myfirst == 0 ? 0 : _Myend - _Myfirst);

	mov	eax, DWORD PTR [ecx+4]
	test	eax, eax
	jne	SHORT $LN3@capacity@8

; 636  : 		}

	ret	0
$LN3@capacity@8:

; 635  : 		return (_Myfirst == 0 ? 0 : _Myend - _Myfirst);

	mov	ecx, DWORD PTR [ecx+12]
	sub	ecx, eax
	mov	eax, 715827883				; 2aaaaaabH
	imul	ecx
	sar	edx, 1
	mov	eax, edx
	shr	eax, 31					; 0000001fH
	add	eax, edx

; 636  : 		}

	ret	0
?capacity@?$vector@V?$map@IUPlotState@CvReplayInfo@@U?$less@I@std@@V?$allocator@U?$pair@$$CBIUPlotState@CvReplayInfo@@@std@@@4@@std@@V?$allocator@V?$map@IUPlotState@CvReplayInfo@@U?$less@I@std@@V?$allocator@U?$pair@$$CBIUPlotState@CvReplayInfo@@@std@@@4@@std@@@2@@std@@QBEIXZ ENDP ; std::vector<std::map<unsigned int,CvReplayInfo::PlotState,std::less<unsigned int>,std::allocator<std::pair<unsigned int const ,CvReplayInfo::PlotState> > >,std::allocator<std::map<unsigned int,CvReplayInfo::PlotState,std::less<unsigned int>,std::allocator<std::pair<unsigned int const ,CvReplayInfo::PlotState> > > > >::capacity
_TEXT	ENDS
PUBLIC	?_Xlen@?$vector@V?$map@IUPlotState@CvReplayInfo@@U?$less@I@std@@V?$allocator@U?$pair@$$CBIUPlotState@CvReplayInfo@@@std@@@4@@std@@V?$allocator@V?$map@IUPlotState@CvReplayInfo@@U?$less@I@std@@V?$allocator@U?$pair@$$CBIUPlotState@CvReplayInfo@@@std@@@4@@std@@@2@@std@@KAXXZ ; std::vector<std::map<unsigned int,CvReplayInfo::PlotState,std::less<unsigned int>,std::allocator<std::pair<unsigned int const ,CvReplayInfo::PlotState> > >,std::allocator<std::map<unsigned int,CvReplayInfo::PlotState,std::less<unsigned int>,std::allocator<std::pair<unsigned int const ,CvReplayInfo::PlotState> > > > >::_Xlen
;	COMDAT xdata$x
; File c:\program files (x86)\microsoft visual studio 9.0\vc\include\stdexcept
xdata$x	SEGMENT
__unwindtable$?_Xlen@?$vector@V?$map@IUPlotState@CvReplayInfo@@U?$less@I@std@@V?$allocator@U?$pair@$$CBIUPlotState@CvReplayInfo@@@std@@@4@@std@@V?$allocator@V?$map@IUPlotState@CvReplayInfo@@U?$less@I@std@@V?$allocator@U?$pair@$$CBIUPlotState@CvReplayInfo@@@std@@@4@@std@@@2@@std@@KAXXZ DD 0ffffffffH
	DD	FLAT:__unwindfunclet$?_Xlen@?$vector@V?$map@IUPlotState@CvReplayInfo@@U?$less@I@std@@V?$allocator@U?$pair@$$CBIUPlotState@CvReplayInfo@@@std@@@4@@std@@V?$allocator@V?$map@IUPlotState@CvReplayInfo@@U?$less@I@std@@V?$allocator@U?$pair@$$CBIUPlotState@CvReplayInfo@@@std@@@4@@std@@@2@@std@@KAXXZ$0
	DD	00H
	DD	FLAT:__unwindfunclet$?_Xlen@?$vector@V?$map@IUPlotState@CvReplayInfo@@U?$less@I@std@@V?$allocator@U?$pair@$$CBIUPlotState@CvReplayInfo@@@std@@@4@@std@@V?$allocator@V?$map@IUPlotState@CvReplayInfo@@U?$less@I@std@@V?$allocator@U?$pair@$$CBIUPlotState@CvReplayInfo@@@std@@@4@@std@@@2@@std@@KAXXZ$2
__ehfuncinfo$?_Xlen@?$vector@V?$map@IUPlotState@CvReplayInfo@@U?$less@I@std@@V?$allocator@U?$pair@$$CBIUPlotState@CvReplayInfo@@@std@@@4@@std@@V?$allocator@V?$map@IUPlotState@CvReplayInfo@@U?$less@I@std@@V?$allocator@U?$pair@$$CBIUPlotState@CvReplayInfo@@@std@@@4@@std@@@2@@std@@KAXXZ DD 019930522H
	DD	02H
	DD	FLAT:__unwindtable$?_Xlen@?$vector@V?$map@IUPlotState@CvReplayInfo@@U?$less@I@std@@V?$allocator@U?$pair@$$CBIUPlotState@CvReplayInfo@@@std@@@4@@std@@V?$allocator@V?$map@IUPlotState@CvReplayInfo@@U?$less@I@std@@V?$allocator@U?$pair@$$CBIUPlotState@CvReplayInfo@@@std@@@4@@std@@@2@@std@@KAXXZ
	DD	2 DUP(00H)
	DD	2 DUP(00H)
	DD	00H
	DD	01H
; Function compile flags: /Ogtpy
; File c:\program files (x86)\microsoft visual studio 9.0\vc\include\vector
xdata$x	ENDS
;	COMDAT ?_Xlen@?$vector@V?$map@IUPlotState@CvReplayInfo@@U?$less@I@std@@V?$allocator@U?$pair@$$CBIUPlotState@CvReplayInfo@@@std@@@4@@std@@V?$allocator@V?$map@IUPlotState@CvReplayInfo@@U?$less@I@std@@V?$allocator@U?$pair@$$CBIUPlotState@CvReplayInfo@@@std@@@4@@std@@@2@@std@@KAXXZ
_TEXT	SEGMENT
$T232776 = -80						; size = 28
$T232775 = -52						; size = 40
__$EHRec$ = -12						; size = 12
?_Xlen@?$vector@V?$map@IUPlotState@CvReplayInfo@@U?$less@I@std@@V?$allocator@U?$pair@$$CBIUPlotState@CvReplayInfo@@@std@@@4@@std@@V?$allocator@V?$map@IUPlotState@CvReplayInfo@@U?$less@I@std@@V?$allocator@U?$pair@$$CBIUPlotState@CvReplayInfo@@@std@@@4@@std@@@2@@std@@KAXXZ PROC ; std::vector<std::map<unsigned int,CvReplayInfo::PlotState,std::less<unsigned int>,std::allocator<std::pair<unsigned int const ,CvReplayInfo::PlotState> > >,std::allocator<std::map<unsigned int,CvReplayInfo::PlotState,std::less<unsigned int>,std::allocator<std::pair<unsigned int const ,CvReplayInfo::PlotState> > > > >::_Xlen, COMDAT

; 1259 : 		{	// report a length_error

	push	-1
	push	__ehhandler$?_Xlen@?$vector@V?$map@IUPlotState@CvReplayInfo@@U?$less@I@std@@V?$allocator@U?$pair@$$CBIUPlotState@CvReplayInfo@@@std@@@4@@std@@V?$allocator@V?$map@IUPlotState@CvReplayInfo@@U?$less@I@std@@V?$allocator@U?$pair@$$CBIUPlotState@CvReplayInfo@@@std@@@4@@std@@@2@@std@@KAXXZ
	mov	eax, DWORD PTR fs:0
	push	eax
	mov	DWORD PTR fs:0, esp
	sub	esp, 68					; 00000044H

; 1260 : 		_THROW(length_error, "vector<T> too long");

	push	OFFSET ??_C@_0BD@OLBABOEK@vector?$DMT?$DO?5too?5long?$AA@
	lea	ecx, DWORD PTR $T232776[esp+84]
	call	DWORD PTR __imp_??0?$basic_string@DU?$char_traits@D@std@@V?$allocator@D@2@@std@@QAE@PBD@Z
	lea	ecx, DWORD PTR $T232775[esp+80]
	mov	DWORD PTR __$EHRec$[esp+88], 0
	call	DWORD PTR __imp_??0exception@std@@QAE@XZ
	lea	eax, DWORD PTR $T232776[esp+80]
	push	eax
	lea	ecx, DWORD PTR $T232775[esp+96]
	mov	BYTE PTR __$EHRec$[esp+92], 1
	mov	DWORD PTR $T232775[esp+84], OFFSET ??_7logic_error@std@@6B@
	call	DWORD PTR __imp_??0?$basic_string@DU?$char_traits@D@std@@V?$allocator@D@2@@std@@QAE@ABV01@@Z
	push	OFFSET __TI3?AVlength_error@std@@
	lea	ecx, DWORD PTR $T232775[esp+84]
	push	ecx
	mov	BYTE PTR __$EHRec$[esp+96], 0
	mov	DWORD PTR $T232775[esp+88], OFFSET ??_7length_error@std@@6B@
	call	__CxxThrowException@8
$LN13@Xlen@2:
$LN12@Xlen@2:
	int	3
_TEXT	ENDS
;	COMDAT text$x
text$x	SEGMENT
__unwindfunclet$?_Xlen@?$vector@V?$map@IUPlotState@CvReplayInfo@@U?$less@I@std@@V?$allocator@U?$pair@$$CBIUPlotState@CvReplayInfo@@@std@@@4@@std@@V?$allocator@V?$map@IUPlotState@CvReplayInfo@@U?$less@I@std@@V?$allocator@U?$pair@$$CBIUPlotState@CvReplayInfo@@@std@@@4@@std@@@2@@std@@KAXXZ$0:
	lea	ecx, DWORD PTR $T232776[ebp]
	jmp	DWORD PTR __imp_??1?$basic_string@DU?$char_traits@D@std@@V?$allocator@D@2@@std@@QAE@XZ
__unwindfunclet$?_Xlen@?$vector@V?$map@IUPlotState@CvReplayInfo@@U?$less@I@std@@V?$allocator@U?$pair@$$CBIUPlotState@CvReplayInfo@@@std@@@4@@std@@V?$allocator@V?$map@IUPlotState@CvReplayInfo@@U?$less@I@std@@V?$allocator@U?$pair@$$CBIUPlotState@CvReplayInfo@@@std@@@4@@std@@@2@@std@@KAXXZ$2:
	lea	ecx, DWORD PTR $T232775[ebp]
	jmp	DWORD PTR __imp_??1exception@std@@UAE@XZ
__ehhandler$?_Xlen@?$vector@V?$map@IUPlotState@CvReplayInfo@@U?$less@I@std@@V?$allocator@U?$pair@$$CBIUPlotState@CvReplayInfo@@@std@@@4@@std@@V?$allocator@V?$map@IUPlotState@CvReplayInfo@@U?$less@I@std@@V?$allocator@U?$pair@$$CBIUPlotState@CvReplayInfo@@@std@@@4@@std@@@2@@std@@KAXXZ:
	mov	eax, OFFSET __ehfuncinfo$?_Xlen@?$vector@V?$map@IUPlotState@CvReplayInfo@@U?$less@I@std@@V?$allocator@U?$pair@$$CBIUPlotState@CvReplayInfo@@@std@@@4@@std@@V?$allocator@V?$map@IUPlotState@CvReplayInfo@@U?$less@I@std@@V?$allocator@U?$pair@$$CBIUPlotState@CvReplayInfo@@@std@@@4@@std@@@2@@std@@KAXXZ
	jmp	___CxxFrameHandler3
text$x	ENDS
?_Xlen@?$vector@V?$map@IUPlotState@CvReplayInfo@@U?$less@I@std@@V?$allocator@U?$pair@$$CBIUPlotState@CvReplayInfo@@@std@@@4@@std@@V?$allocator@V?$map@IUPlotState@CvReplayInfo@@U?$less@I@std@@V?$allocator@U?$pair@$$CBIUPlotState@CvReplayInfo@@@std@@@4@@std@@@2@@std@@KAXXZ ENDP ; std::vector<std::map<unsigned int,CvReplayInfo::PlotState,std::less<unsigned int>,std::allocator<std::pair<unsigned int const ,CvReplayInfo::PlotState> > >,std::allocator<std::map<unsigned int,CvReplayInfo::PlotState,std::less<unsigned int>,std::allocator<std::pair<unsigned int const ,CvReplayInfo::PlotState> > > > >::_Xlen
PUBLIC	??1?$_Container_base_aux_alloc_empty@V?$allocator@V?$map@IUPlotState@CvReplayInfo@@U?$less@I@std@@V?$allocator@U?$pair@$$CBIUPlotState@CvReplayInfo@@@std@@@4@@std@@@std@@@std@@IAE@XZ ; std::_Container_base_aux_alloc_empty<std::allocator<std::map<unsigned int,CvReplayInfo::PlotState,std::less<unsigned int>,std::allocator<std::pair<unsigned int const ,CvReplayInfo::PlotState> > > > >::~_Container_base_aux_alloc_empty<std::allocator<std::map<unsigned int,CvReplayInfo::PlotState,std::less<unsigned int>,std::allocator<std::pair<unsigned int const ,CvReplayInfo::PlotState> > > > >
; Function compile flags: /Ogtpy
; File c:\program files (x86)\microsoft visual studio 9.0\vc\include\xutility
;	COMDAT ??1?$_Container_base_aux_alloc_empty@V?$allocator@V?$map@IUPlotState@CvReplayInfo@@U?$less@I@std@@V?$allocator@U?$pair@$$CBIUPlotState@CvReplayInfo@@@std@@@4@@std@@@std@@@std@@IAE@XZ
_TEXT	SEGMENT
??1?$_Container_base_aux_alloc_empty@V?$allocator@V?$map@IUPlotState@CvReplayInfo@@U?$less@I@std@@V?$allocator@U?$pair@$$CBIUPlotState@CvReplayInfo@@@std@@@4@@std@@@std@@@std@@IAE@XZ PROC ; std::_Container_base_aux_alloc_empty<std::allocator<std::map<unsigned int,CvReplayInfo::PlotState,std::less<unsigned int>,std::allocator<std::pair<unsigned int const ,CvReplayInfo::PlotState> > > > >::~_Container_base_aux_alloc_empty<std::allocator<std::map<unsigned int,CvReplayInfo::PlotState,std::less<unsigned int>,std::allocator<std::pair<unsigned int const ,CvReplayInfo::PlotState> > > > >, COMDAT
; _this$ = ecx

; 627  : 	~_Container_base_aux_alloc_empty() { }

	ret	0
??1?$_Container_base_aux_alloc_empty@V?$allocator@V?$map@IUPlotState@CvReplayInfo@@U?$less@I@std@@V?$allocator@U?$pair@$$CBIUPlotState@CvReplayInfo@@@std@@@4@@std@@@std@@@std@@IAE@XZ ENDP ; std::_Container_base_aux_alloc_empty<std::allocator<std::map<unsigned int,CvReplayInfo::PlotState,std::less<unsigned int>,std::allocator<std::pair<unsigned int const ,CvReplayInfo::PlotState> > > > >::~_Container_base_aux_alloc_empty<std::allocator<std::map<unsigned int,CvReplayInfo::PlotState,std::less<unsigned int>,std::allocator<std::pair<unsigned int const ,CvReplayInfo::PlotState> > > > >
_TEXT	ENDS
PUBLIC	??0?$allocator@V?$map@IUPlotState@CvReplayInfo@@U?$less@I@std@@V?$allocator@U?$pair@$$CBIUPlotState@CvReplayInfo@@@std@@@4@@std@@@std@@QAE@XZ ; std::allocator<std::map<unsigned int,CvReplayInfo::PlotState,std::less<unsigned int>,std::allocator<std::pair<unsigned int const ,CvReplayInfo::PlotState> > > >::allocator<std::map<unsigned int,CvReplayInfo::PlotState,std::less<unsigned int>,std::allocator<std::pair<unsigned int const ,CvReplayInfo::PlotState> > > >
; Function compile flags: /Ogtpy
; File c:\program files (x86)\microsoft visual studio 9.0\vc\include\xmemory
;	COMDAT ??0?$allocator@V?$map@IUPlotState@CvReplayInfo@@U?$less@I@std@@V?$allocator@U?$pair@$$CBIUPlotState@CvReplayInfo@@@std@@@4@@std@@@std@@QAE@XZ
_TEXT	SEGMENT
??0?$allocator@V?$map@IUPlotState@CvReplayInfo@@U?$less@I@std@@V?$allocator@U?$pair@$$CBIUPlotState@CvReplayInfo@@@std@@@4@@std@@@std@@QAE@XZ PROC ; std::allocator<std::map<unsigned int,CvReplayInfo::PlotState,std::less<unsigned int>,std::allocator<std::pair<unsigned int const ,CvReplayInfo::PlotState> > > >::allocator<std::map<unsigned int,CvReplayInfo::PlotState,std::less<unsigned int>,std::allocator<std::pair<unsigned int const ,CvReplayInfo::PlotState> > > >, COMDAT
; _this$ = ecx

; 119  : 	allocator() _THROW0()

	mov	eax, ecx

; 120  : 		{	// construct default allocator (do nothing)
; 121  : 		}

	ret	0
??0?$allocator@V?$map@IUPlotState@CvReplayInfo@@U?$less@I@std@@V?$allocator@U?$pair@$$CBIUPlotState@CvReplayInfo@@@std@@@4@@std@@@std@@QAE@XZ ENDP ; std::allocator<std::map<unsigned int,CvReplayInfo::PlotState,std::less<unsigned int>,std::allocator<std::pair<unsigned int const ,CvReplayInfo::PlotState> > > >::allocator<std::map<unsigned int,CvReplayInfo::PlotState,std::less<unsigned int>,std::allocator<std::pair<unsigned int const ,CvReplayInfo::PlotState> > > >
_TEXT	ENDS
PUBLIC	?deallocate@?$allocator@V?$map@IUPlotState@CvReplayInfo@@U?$less@I@std@@V?$allocator@U?$pair@$$CBIUPlotState@CvReplayInfo@@@std@@@4@@std@@@std@@QAEXPAV?$map@IUPlotState@CvReplayInfo@@U?$less@I@std@@V?$allocator@U?$pair@$$CBIUPlotState@CvReplayInfo@@@std@@@4@@2@I@Z ; std::allocator<std::map<unsigned int,CvReplayInfo::PlotState,std::less<unsigned int>,std::allocator<std::pair<unsigned int const ,CvReplayInfo::PlotState> > > >::deallocate
; Function compile flags: /Ogtpy
;	COMDAT ?deallocate@?$allocator@V?$map@IUPlotState@CvReplayInfo@@U?$less@I@std@@V?$allocator@U?$pair@$$CBIUPlotState@CvReplayInfo@@@std@@@4@@std@@@std@@QAEXPAV?$map@IUPlotState@CvReplayInfo@@U?$less@I@std@@V?$allocator@U?$pair@$$CBIUPlotState@CvReplayInfo@@@std@@@4@@2@I@Z
_TEXT	SEGMENT
__Ptr$ = 8						; size = 4
___formal$ = 12						; size = 4
?deallocate@?$allocator@V?$map@IUPlotState@CvReplayInfo@@U?$less@I@std@@V?$allocator@U?$pair@$$CBIUPlotState@CvReplayInfo@@@std@@@4@@std@@@std@@QAEXPAV?$map@IUPlotState@CvReplayInfo@@U?$less@I@std@@V?$allocator@U?$pair@$$CBIUPlotState@CvReplayInfo@@@std@@@4@@2@I@Z PROC ; std::allocator<std::map<unsigned int,CvReplayInfo::PlotState,std::less<unsigned int>,std::allocator<std::pair<unsigned int const ,CvReplayInfo::PlotState> > > >::deallocate, COMDAT
; _this$ = ecx

; 140  : 		::operator delete(_Ptr);

	mov	eax, DWORD PTR __Ptr$[esp-4]
	push	eax
	call	??3@YAXPAX@Z				; operator delete
	pop	ecx

; 141  : 		}

	ret	8
?deallocate@?$allocator@V?$map@IUPlotState@CvReplayInfo@@U?$less@I@std@@V?$allocator@U?$pair@$$CBIUPlotState@CvReplayInfo@@@std@@@4@@std@@@std@@QAEXPAV?$map@IUPlotState@CvReplayInfo@@U?$less@I@std@@V?$allocator@U?$pair@$$CBIUPlotState@CvReplayInfo@@@std@@@4@@2@I@Z ENDP ; std::allocator<std::map<unsigned int,CvReplayInfo::PlotState,std::less<unsigned int>,std::allocator<std::pair<unsigned int const ,CvReplayInfo::PlotState> > > >::deallocate
_TEXT	ENDS
PUBLIC	?size@?$vector@U?$pair@FF@std@@V?$allocator@U?$pair@FF@std@@@2@@std@@QBEIXZ ; std::vector<std::pair<short,short>,std::allocator<std::pair<short,short> > >::size
; Function compile flags: /Ogtpy
; File c:\program files (x86)\microsoft visual studio 9.0\vc\include\vector
;	COMDAT ?size@?$vector@U?$pair@FF@std@@V?$allocator@U?$pair@FF@std@@@2@@std@@QBEIXZ
_TEXT	SEGMENT
?size@?$vector@U?$pair@FF@std@@V?$allocator@U?$pair@FF@std@@@2@@std@@QBEIXZ PROC ; std::vector<std::pair<short,short>,std::allocator<std::pair<short,short> > >::size, COMDAT
; _this$ = ecx

; 726  : 		return (_Mylast - _Myfirst);

	mov	eax, DWORD PTR [ecx+8]
	sub	eax, DWORD PTR [ecx+4]
	sar	eax, 2

; 727  : 		}

	ret	0
?size@?$vector@U?$pair@FF@std@@V?$allocator@U?$pair@FF@std@@@2@@std@@QBEIXZ ENDP ; std::vector<std::pair<short,short>,std::allocator<std::pair<short,short> > >::size
_TEXT	ENDS
PUBLIC	??1?$_Container_base_aux_alloc_empty@V?$allocator@U?$pair@FF@std@@@std@@@std@@IAE@XZ ; std::_Container_base_aux_alloc_empty<std::allocator<std::pair<short,short> > >::~_Container_base_aux_alloc_empty<std::allocator<std::pair<short,short> > >
; Function compile flags: /Ogtpy
; File c:\program files (x86)\microsoft visual studio 9.0\vc\include\xutility
;	COMDAT ??1?$_Container_base_aux_alloc_empty@V?$allocator@U?$pair@FF@std@@@std@@@std@@IAE@XZ
_TEXT	SEGMENT
??1?$_Container_base_aux_alloc_empty@V?$allocator@U?$pair@FF@std@@@std@@@std@@IAE@XZ PROC ; std::_Container_base_aux_alloc_empty<std::allocator<std::pair<short,short> > >::~_Container_base_aux_alloc_empty<std::allocator<std::pair<short,short> > >, COMDAT
; _this$ = ecx

; 627  : 	~_Container_base_aux_alloc_empty() { }

	ret	0
??1?$_Container_base_aux_alloc_empty@V?$allocator@U?$pair@FF@std@@@std@@@std@@IAE@XZ ENDP ; std::_Container_base_aux_alloc_empty<std::allocator<std::pair<short,short> > >::~_Container_base_aux_alloc_empty<std::allocator<std::pair<short,short> > >
_TEXT	ENDS
PUBLIC	??0?$allocator@U?$pair@FF@std@@@std@@QAE@ABV01@@Z ; std::allocator<std::pair<short,short> >::allocator<std::pair<short,short> >
; Function compile flags: /Ogtpy
; File c:\program files (x86)\microsoft visual studio 9.0\vc\include\xmemory
;	COMDAT ??0?$allocator@U?$pair@FF@std@@@std@@QAE@ABV01@@Z
_TEXT	SEGMENT
___formal$ = 8						; size = 4
??0?$allocator@U?$pair@FF@std@@@std@@QAE@ABV01@@Z PROC	; std::allocator<std::pair<short,short> >::allocator<std::pair<short,short> >, COMDAT
; _this$ = ecx

; 123  : 	allocator(const allocator<_Ty>&) _THROW0()

	mov	eax, ecx

; 124  : 		{	// construct by copying (do nothing)
; 125  : 		}

	ret	4
??0?$allocator@U?$pair@FF@std@@@std@@QAE@ABV01@@Z ENDP	; std::allocator<std::pair<short,short> >::allocator<std::pair<short,short> >
_TEXT	ENDS
PUBLIC	??0const_iterator@?$_Tree@V?$_Tmap_traits@IHU?$less@I@std@@V?$allocator@U?$pair@$$CBIH@std@@@2@$0A@@std@@@std@@QAE@PAU_Node@?$_Tree_nod@V?$_Tmap_traits@IHU?$less@I@std@@V?$allocator@U?$pair@$$CBIH@std@@@2@$0A@@std@@@2@@Z ; std::_Tree<std::_Tmap_traits<unsigned int,int,std::less<unsigned int>,std::allocator<std::pair<unsigned int const ,int> >,0> >::const_iterator::const_iterator
; Function compile flags: /Ogtpy
; File c:\program files (x86)\microsoft visual studio 9.0\vc\include\xtree
;	COMDAT ??0const_iterator@?$_Tree@V?$_Tmap_traits@IHU?$less@I@std@@V?$allocator@U?$pair@$$CBIH@std@@@2@$0A@@std@@@std@@QAE@PAU_Node@?$_Tree_nod@V?$_Tmap_traits@IHU?$less@I@std@@V?$allocator@U?$pair@$$CBIH@std@@@2@$0A@@std@@@2@@Z
_TEXT	SEGMENT
__Pnode$ = 8						; size = 4
??0const_iterator@?$_Tree@V?$_Tmap_traits@IHU?$less@I@std@@V?$allocator@U?$pair@$$CBIH@std@@@2@$0A@@std@@@std@@QAE@PAU_Node@?$_Tree_nod@V?$_Tmap_traits@IHU?$less@I@std@@V?$allocator@U?$pair@$$CBIH@std@@@2@$0A@@std@@@2@@Z PROC ; std::_Tree<std::_Tmap_traits<unsigned int,int,std::less<unsigned int>,std::allocator<std::pair<unsigned int const ,int> >,0> >::const_iterator::const_iterator, COMDAT
; _this$ = ecx

; 244  : 			{	// construct with node pointer _Pnode

	mov	eax, ecx
	mov	ecx, DWORD PTR __Pnode$[esp-4]
	mov	DWORD PTR [eax], ecx

; 245  : 			}

	ret	4
??0const_iterator@?$_Tree@V?$_Tmap_traits@IHU?$less@I@std@@V?$allocator@U?$pair@$$CBIH@std@@@2@$0A@@std@@@std@@QAE@PAU_Node@?$_Tree_nod@V?$_Tmap_traits@IHU?$less@I@std@@V?$allocator@U?$pair@$$CBIH@std@@@2@$0A@@std@@@2@@Z ENDP ; std::_Tree<std::_Tmap_traits<unsigned int,int,std::less<unsigned int>,std::allocator<std::pair<unsigned int const ,int> >,0> >::const_iterator::const_iterator
_TEXT	ENDS
PUBLIC	??8const_iterator@?$_Tree@V?$_Tmap_traits@IHU?$less@I@std@@V?$allocator@U?$pair@$$CBIH@std@@@2@$0A@@std@@@std@@QBE_NABV012@@Z ; std::_Tree<std::_Tmap_traits<unsigned int,int,std::less<unsigned int>,std::allocator<std::pair<unsigned int const ,int> >,0> >::const_iterator::operator==
; Function compile flags: /Ogtpy
;	COMDAT ??8const_iterator@?$_Tree@V?$_Tmap_traits@IHU?$less@I@std@@V?$allocator@U?$pair@$$CBIH@std@@@2@$0A@@std@@@std@@QBE_NABV012@@Z
_TEXT	SEGMENT
__Right$ = 8						; size = 4
??8const_iterator@?$_Tree@V?$_Tmap_traits@IHU?$less@I@std@@V?$allocator@U?$pair@$$CBIH@std@@@2@$0A@@std@@@std@@QBE_NABV012@@Z PROC ; std::_Tree<std::_Tmap_traits<unsigned int,int,std::less<unsigned int>,std::allocator<std::pair<unsigned int const ,int> >,0> >::const_iterator::operator==, COMDAT
; _this$ = ecx

; 300  : 
; 301  :  #if _HAS_ITERATOR_DEBUGGING
; 302  : 			if (this->_Mycont == 0 || this->_Mycont != _Right._Mycont)
; 303  : 				{
; 304  : 				_DEBUG_ERROR("map/set iterators incompatible");
; 305  : 				_SCL_SECURE_INVALID_ARGUMENT;
; 306  : 				}
; 307  :  #else
; 308  : 			_SCL_SECURE_VALIDATE(this->_Has_container() && this->_Same_container(_Right));
; 309  :  #endif /* _HAS_ITERATOR_DEBUGGING */
; 310  : 
; 311  : 			return (_Ptr == _Right._Ptr);

	mov	eax, DWORD PTR [ecx]
	mov	edx, DWORD PTR __Right$[esp-4]
	xor	ecx, ecx
	cmp	eax, DWORD PTR [edx]
	sete	cl
	mov	al, cl

; 312  : 			}

	ret	4
??8const_iterator@?$_Tree@V?$_Tmap_traits@IHU?$less@I@std@@V?$allocator@U?$pair@$$CBIH@std@@@2@$0A@@std@@@std@@QBE_NABV012@@Z ENDP ; std::_Tree<std::_Tmap_traits<unsigned int,int,std::less<unsigned int>,std::allocator<std::pair<unsigned int const ,int> >,0> >::const_iterator::operator==
_TEXT	ENDS
PUBLIC	?_Mynode@const_iterator@?$_Tree@V?$_Tmap_traits@IHU?$less@I@std@@V?$allocator@U?$pair@$$CBIH@std@@@2@$0A@@std@@@std@@QBEPAU_Node@?$_Tree_nod@V?$_Tmap_traits@IHU?$less@I@std@@V?$allocator@U?$pair@$$CBIH@std@@@2@$0A@@std@@@3@XZ ; std::_Tree<std::_Tmap_traits<unsigned int,int,std::less<unsigned int>,std::allocator<std::pair<unsigned int const ,int> >,0> >::const_iterator::_Mynode
; Function compile flags: /Ogtpy
;	COMDAT ?_Mynode@const_iterator@?$_Tree@V?$_Tmap_traits@IHU?$less@I@std@@V?$allocator@U?$pair@$$CBIH@std@@@2@$0A@@std@@@std@@QBEPAU_Node@?$_Tree_nod@V?$_Tmap_traits@IHU?$less@I@std@@V?$allocator@U?$pair@$$CBIH@std@@@2@$0A@@std@@@3@XZ
_TEXT	SEGMENT
?_Mynode@const_iterator@?$_Tree@V?$_Tmap_traits@IHU?$less@I@std@@V?$allocator@U?$pair@$$CBIH@std@@@2@$0A@@std@@@std@@QBEPAU_Node@?$_Tree_nod@V?$_Tmap_traits@IHU?$less@I@std@@V?$allocator@U?$pair@$$CBIH@std@@@2@$0A@@std@@@3@XZ PROC ; std::_Tree<std::_Tmap_traits<unsigned int,int,std::less<unsigned int>,std::allocator<std::pair<unsigned int const ,int> >,0> >::const_iterator::_Mynode, COMDAT
; _this$ = ecx

; 410  : 			return (_Ptr);

	mov	eax, DWORD PTR [ecx]

; 411  : 			}

	ret	0
?_Mynode@const_iterator@?$_Tree@V?$_Tmap_traits@IHU?$less@I@std@@V?$allocator@U?$pair@$$CBIH@std@@@2@$0A@@std@@@std@@QBEPAU_Node@?$_Tree_nod@V?$_Tmap_traits@IHU?$less@I@std@@V?$allocator@U?$pair@$$CBIH@std@@@2@$0A@@std@@@3@XZ ENDP ; std::_Tree<std::_Tmap_traits<unsigned int,int,std::less<unsigned int>,std::allocator<std::pair<unsigned int const ,int> >,0> >::const_iterator::_Mynode
_TEXT	ENDS
PUBLIC	??0?$pair@$$CBIH@std@@QAE@ABIABH@Z		; std::pair<unsigned int const ,int>::pair<unsigned int const ,int>
; Function compile flags: /Ogtpy
; File c:\program files (x86)\microsoft visual studio 9.0\vc\include\utility
;	COMDAT ??0?$pair@$$CBIH@std@@QAE@ABIABH@Z
_TEXT	SEGMENT
__Val1$ = 8						; size = 4
__Val2$ = 12						; size = 4
??0?$pair@$$CBIH@std@@QAE@ABIABH@Z PROC			; std::pair<unsigned int const ,int>::pair<unsigned int const ,int>, COMDAT
; _this$ = ecx

; 50   : 		{	// construct from specified values

	mov	eax, ecx
	mov	ecx, DWORD PTR __Val1$[esp-4]
	mov	edx, DWORD PTR [ecx]
	mov	ecx, DWORD PTR __Val2$[esp-4]
	mov	DWORD PTR [eax], edx
	mov	edx, DWORD PTR [ecx]
	mov	DWORD PTR [eax+4], edx

; 51   : 		}

	ret	8
??0?$pair@$$CBIH@std@@QAE@ABIABH@Z ENDP			; std::pair<unsigned int const ,int>::pair<unsigned int const ,int>
_TEXT	ENDS
PUBLIC	?_Myval@?$_Tree@V?$_Tmap_traits@IUPlotState@CvReplayInfo@@U?$less@I@std@@V?$allocator@U?$pair@$$CBIUPlotState@CvReplayInfo@@@std@@@4@$0A@@std@@@std@@KAAAU?$pair@$$CBIUPlotState@CvReplayInfo@@@2@PAU_Node@?$_Tree_nod@V?$_Tmap_traits@IUPlotState@CvReplayInfo@@U?$less@I@std@@V?$allocator@U?$pair@$$CBIUPlotState@CvReplayInfo@@@std@@@4@$0A@@std@@@2@@Z ; std::_Tree<std::_Tmap_traits<unsigned int,CvReplayInfo::PlotState,std::less<unsigned int>,std::allocator<std::pair<unsigned int const ,CvReplayInfo::PlotState> >,0> >::_Myval
; Function compile flags: /Ogtpy
; File c:\program files (x86)\microsoft visual studio 9.0\vc\include\xtree
;	COMDAT ?_Myval@?$_Tree@V?$_Tmap_traits@IUPlotState@CvReplayInfo@@U?$less@I@std@@V?$allocator@U?$pair@$$CBIUPlotState@CvReplayInfo@@@std@@@4@$0A@@std@@@std@@KAAAU?$pair@$$CBIUPlotState@CvReplayInfo@@@2@PAU_Node@?$_Tree_nod@V?$_Tmap_traits@IUPlotState@CvReplayInfo@@U?$less@I@std@@V?$allocator@U?$pair@$$CBIUPlotState@CvReplayInfo@@@std@@@4@$0A@@std@@@2@@Z
_TEXT	SEGMENT
__Pnode$ = 8						; size = 4
?_Myval@?$_Tree@V?$_Tmap_traits@IUPlotState@CvReplayInfo@@U?$less@I@std@@V?$allocator@U?$pair@$$CBIUPlotState@CvReplayInfo@@@std@@@4@$0A@@std@@@std@@KAAAU?$pair@$$CBIUPlotState@CvReplayInfo@@@2@PAU_Node@?$_Tree_nod@V?$_Tmap_traits@IUPlotState@CvReplayInfo@@U?$less@I@std@@V?$allocator@U?$pair@$$CBIUPlotState@CvReplayInfo@@@std@@@4@$0A@@std@@@2@@Z PROC ; std::_Tree<std::_Tmap_traits<unsigned int,CvReplayInfo::PlotState,std::less<unsigned int>,std::allocator<std::pair<unsigned int const ,CvReplayInfo::PlotState> >,0> >::_Myval, COMDAT

; 182  : 		return ((_Vref)(*_Pnode)._Myval);

	mov	eax, DWORD PTR __Pnode$[esp-4]
	add	eax, 12					; 0000000cH

; 183  : 		}

	ret	0
?_Myval@?$_Tree@V?$_Tmap_traits@IUPlotState@CvReplayInfo@@U?$less@I@std@@V?$allocator@U?$pair@$$CBIUPlotState@CvReplayInfo@@@std@@@4@$0A@@std@@@std@@KAAAU?$pair@$$CBIUPlotState@CvReplayInfo@@@2@PAU_Node@?$_Tree_nod@V?$_Tmap_traits@IUPlotState@CvReplayInfo@@U?$less@I@std@@V?$allocator@U?$pair@$$CBIUPlotState@CvReplayInfo@@@std@@@4@$0A@@std@@@2@@Z ENDP ; std::_Tree<std::_Tmap_traits<unsigned int,CvReplayInfo::PlotState,std::less<unsigned int>,std::allocator<std::pair<unsigned int const ,CvReplayInfo::PlotState> >,0> >::_Myval
_TEXT	ENDS
PUBLIC	??1?$_Container_base_aux_alloc_empty@V?$allocator@U?$pair@$$CBIUPlotState@CvReplayInfo@@@std@@@std@@@std@@IAE@XZ ; std::_Container_base_aux_alloc_empty<std::allocator<std::pair<unsigned int const ,CvReplayInfo::PlotState> > >::~_Container_base_aux_alloc_empty<std::allocator<std::pair<unsigned int const ,CvReplayInfo::PlotState> > >
; Function compile flags: /Ogtpy
; File c:\program files (x86)\microsoft visual studio 9.0\vc\include\xutility
;	COMDAT ??1?$_Container_base_aux_alloc_empty@V?$allocator@U?$pair@$$CBIUPlotState@CvReplayInfo@@@std@@@std@@@std@@IAE@XZ
_TEXT	SEGMENT
??1?$_Container_base_aux_alloc_empty@V?$allocator@U?$pair@$$CBIUPlotState@CvReplayInfo@@@std@@@std@@@std@@IAE@XZ PROC ; std::_Container_base_aux_alloc_empty<std::allocator<std::pair<unsigned int const ,CvReplayInfo::PlotState> > >::~_Container_base_aux_alloc_empty<std::allocator<std::pair<unsigned int const ,CvReplayInfo::PlotState> > >, COMDAT
; _this$ = ecx

; 627  : 	~_Container_base_aux_alloc_empty() { }

	ret	0
??1?$_Container_base_aux_alloc_empty@V?$allocator@U?$pair@$$CBIUPlotState@CvReplayInfo@@@std@@@std@@@std@@IAE@XZ ENDP ; std::_Container_base_aux_alloc_empty<std::allocator<std::pair<unsigned int const ,CvReplayInfo::PlotState> > >::~_Container_base_aux_alloc_empty<std::allocator<std::pair<unsigned int const ,CvReplayInfo::PlotState> > >
_TEXT	ENDS
PUBLIC	??0?$allocator@U?$pair@$$CBIUPlotState@CvReplayInfo@@@std@@@std@@QAE@XZ ; std::allocator<std::pair<unsigned int const ,CvReplayInfo::PlotState> >::allocator<std::pair<unsigned int const ,CvReplayInfo::PlotState> >
; Function compile flags: /Ogtpy
; File c:\program files (x86)\microsoft visual studio 9.0\vc\include\xmemory
;	COMDAT ??0?$allocator@U?$pair@$$CBIUPlotState@CvReplayInfo@@@std@@@std@@QAE@XZ
_TEXT	SEGMENT
??0?$allocator@U?$pair@$$CBIUPlotState@CvReplayInfo@@@std@@@std@@QAE@XZ PROC ; std::allocator<std::pair<unsigned int const ,CvReplayInfo::PlotState> >::allocator<std::pair<unsigned int const ,CvReplayInfo::PlotState> >, COMDAT
; _this$ = ecx

; 119  : 	allocator() _THROW0()

	mov	eax, ecx

; 120  : 		{	// construct default allocator (do nothing)
; 121  : 		}

	ret	0
??0?$allocator@U?$pair@$$CBIUPlotState@CvReplayInfo@@@std@@@std@@QAE@XZ ENDP ; std::allocator<std::pair<unsigned int const ,CvReplayInfo::PlotState> >::allocator<std::pair<unsigned int const ,CvReplayInfo::PlotState> >
_TEXT	ENDS
PUBLIC	??0const_iterator@?$_Tree@V?$_Tmap_traits@IUPlotState@CvReplayInfo@@U?$less@I@std@@V?$allocator@U?$pair@$$CBIUPlotState@CvReplayInfo@@@std@@@4@$0A@@std@@@std@@QAE@PAU_Node@?$_Tree_nod@V?$_Tmap_traits@IUPlotState@CvReplayInfo@@U?$less@I@std@@V?$allocator@U?$pair@$$CBIUPlotState@CvReplayInfo@@@std@@@4@$0A@@std@@@2@@Z ; std::_Tree<std::_Tmap_traits<unsigned int,CvReplayInfo::PlotState,std::less<unsigned int>,std::allocator<std::pair<unsigned int const ,CvReplayInfo::PlotState> >,0> >::const_iterator::const_iterator
; Function compile flags: /Ogtpy
; File c:\program files (x86)\microsoft visual studio 9.0\vc\include\xtree
;	COMDAT ??0const_iterator@?$_Tree@V?$_Tmap_traits@IUPlotState@CvReplayInfo@@U?$less@I@std@@V?$allocator@U?$pair@$$CBIUPlotState@CvReplayInfo@@@std@@@4@$0A@@std@@@std@@QAE@PAU_Node@?$_Tree_nod@V?$_Tmap_traits@IUPlotState@CvReplayInfo@@U?$less@I@std@@V?$allocator@U?$pair@$$CBIUPlotState@CvReplayInfo@@@std@@@4@$0A@@std@@@2@@Z
_TEXT	SEGMENT
__Pnode$ = 8						; size = 4
??0const_iterator@?$_Tree@V?$_Tmap_traits@IUPlotState@CvReplayInfo@@U?$less@I@std@@V?$allocator@U?$pair@$$CBIUPlotState@CvReplayInfo@@@std@@@4@$0A@@std@@@std@@QAE@PAU_Node@?$_Tree_nod@V?$_Tmap_traits@IUPlotState@CvReplayInfo@@U?$less@I@std@@V?$allocator@U?$pair@$$CBIUPlotState@CvReplayInfo@@@std@@@4@$0A@@std@@@2@@Z PROC ; std::_Tree<std::_Tmap_traits<unsigned int,CvReplayInfo::PlotState,std::less<unsigned int>,std::allocator<std::pair<unsigned int const ,CvReplayInfo::PlotState> >,0> >::const_iterator::const_iterator, COMDAT
; _this$ = ecx

; 244  : 			{	// construct with node pointer _Pnode

	mov	eax, ecx
	mov	ecx, DWORD PTR __Pnode$[esp-4]
	mov	DWORD PTR [eax], ecx

; 245  : 			}

	ret	4
??0const_iterator@?$_Tree@V?$_Tmap_traits@IUPlotState@CvReplayInfo@@U?$less@I@std@@V?$allocator@U?$pair@$$CBIUPlotState@CvReplayInfo@@@std@@@4@$0A@@std@@@std@@QAE@PAU_Node@?$_Tree_nod@V?$_Tmap_traits@IUPlotState@CvReplayInfo@@U?$less@I@std@@V?$allocator@U?$pair@$$CBIUPlotState@CvReplayInfo@@@std@@@4@$0A@@std@@@2@@Z ENDP ; std::_Tree<std::_Tmap_traits<unsigned int,CvReplayInfo::PlotState,std::less<unsigned int>,std::allocator<std::pair<unsigned int const ,CvReplayInfo::PlotState> >,0> >::const_iterator::const_iterator
_TEXT	ENDS
PUBLIC	??8const_iterator@?$_Tree@V?$_Tmap_traits@IUPlotState@CvReplayInfo@@U?$less@I@std@@V?$allocator@U?$pair@$$CBIUPlotState@CvReplayInfo@@@std@@@4@$0A@@std@@@std@@QBE_NABV012@@Z ; std::_Tree<std::_Tmap_traits<unsigned int,CvReplayInfo::PlotState,std::less<unsigned int>,std::allocator<std::pair<unsigned int const ,CvReplayInfo::PlotState> >,0> >::const_iterator::operator==
; Function compile flags: /Ogtpy
;	COMDAT ??8const_iterator@?$_Tree@V?$_Tmap_traits@IUPlotState@CvReplayInfo@@U?$less@I@std@@V?$allocator@U?$pair@$$CBIUPlotState@CvReplayInfo@@@std@@@4@$0A@@std@@@std@@QBE_NABV012@@Z
_TEXT	SEGMENT
__Right$ = 8						; size = 4
??8const_iterator@?$_Tree@V?$_Tmap_traits@IUPlotState@CvReplayInfo@@U?$less@I@std@@V?$allocator@U?$pair@$$CBIUPlotState@CvReplayInfo@@@std@@@4@$0A@@std@@@std@@QBE_NABV012@@Z PROC ; std::_Tree<std::_Tmap_traits<unsigned int,CvReplayInfo::PlotState,std::less<unsigned int>,std::allocator<std::pair<unsigned int const ,CvReplayInfo::PlotState> >,0> >::const_iterator::operator==, COMDAT
; _this$ = ecx

; 300  : 
; 301  :  #if _HAS_ITERATOR_DEBUGGING
; 302  : 			if (this->_Mycont == 0 || this->_Mycont != _Right._Mycont)
; 303  : 				{
; 304  : 				_DEBUG_ERROR("map/set iterators incompatible");
; 305  : 				_SCL_SECURE_INVALID_ARGUMENT;
; 306  : 				}
; 307  :  #else
; 308  : 			_SCL_SECURE_VALIDATE(this->_Has_container() && this->_Same_container(_Right));
; 309  :  #endif /* _HAS_ITERATOR_DEBUGGING */
; 310  : 
; 311  : 			return (_Ptr == _Right._Ptr);

	mov	eax, DWORD PTR [ecx]
	mov	edx, DWORD PTR __Right$[esp-4]
	xor	ecx, ecx
	cmp	eax, DWORD PTR [edx]
	sete	cl
	mov	al, cl

; 312  : 			}

	ret	4
??8const_iterator@?$_Tree@V?$_Tmap_traits@IUPlotState@CvReplayInfo@@U?$less@I@std@@V?$allocator@U?$pair@$$CBIUPlotState@CvReplayInfo@@@std@@@4@$0A@@std@@@std@@QBE_NABV012@@Z ENDP ; std::_Tree<std::_Tmap_traits<unsigned int,CvReplayInfo::PlotState,std::less<unsigned int>,std::allocator<std::pair<unsigned int const ,CvReplayInfo::PlotState> >,0> >::const_iterator::operator==
_TEXT	ENDS
PUBLIC	?_Mynode@const_iterator@?$_Tree@V?$_Tmap_traits@IUPlotState@CvReplayInfo@@U?$less@I@std@@V?$allocator@U?$pair@$$CBIUPlotState@CvReplayInfo@@@std@@@4@$0A@@std@@@std@@QBEPAU_Node@?$_Tree_nod@V?$_Tmap_traits@IUPlotState@CvReplayInfo@@U?$less@I@std@@V?$allocator@U?$pair@$$CBIUPlotState@CvReplayInfo@@@std@@@4@$0A@@std@@@3@XZ ; std::_Tree<std::_Tmap_traits<unsigned int,CvReplayInfo::PlotState,std::less<unsigned int>,std::allocator<std::pair<unsigned int const ,CvReplayInfo::PlotState> >,0> >::const_iterator::_Mynode
; Function compile flags: /Ogtpy
;	COMDAT ?_Mynode@const_iterator@?$_Tree@V?$_Tmap_traits@IUPlotState@CvReplayInfo@@U?$less@I@std@@V?$allocator@U?$pair@$$CBIUPlotState@CvReplayInfo@@@std@@@4@$0A@@std@@@std@@QBEPAU_Node@?$_Tree_nod@V?$_Tmap_traits@IUPlotState@CvReplayInfo@@U?$less@I@std@@V?$allocator@U?$pair@$$CBIUPlotState@CvReplayInfo@@@std@@@4@$0A@@std@@@3@XZ
_TEXT	SEGMENT
?_Mynode@const_iterator@?$_Tree@V?$_Tmap_traits@IUPlotState@CvReplayInfo@@U?$less@I@std@@V?$allocator@U?$pair@$$CBIUPlotState@CvReplayInfo@@@std@@@4@$0A@@std@@@std@@QBEPAU_Node@?$_Tree_nod@V?$_Tmap_traits@IUPlotState@CvReplayInfo@@U?$less@I@std@@V?$allocator@U?$pair@$$CBIUPlotState@CvReplayInfo@@@std@@@4@$0A@@std@@@3@XZ PROC ; std::_Tree<std::_Tmap_traits<unsigned int,CvReplayInfo::PlotState,std::less<unsigned int>,std::allocator<std::pair<unsigned int const ,CvReplayInfo::PlotState> >,0> >::const_iterator::_Mynode, COMDAT
; _this$ = ecx

; 410  : 			return (_Ptr);

	mov	eax, DWORD PTR [ecx]

; 411  : 			}

	ret	0
?_Mynode@const_iterator@?$_Tree@V?$_Tmap_traits@IUPlotState@CvReplayInfo@@U?$less@I@std@@V?$allocator@U?$pair@$$CBIUPlotState@CvReplayInfo@@@std@@@4@$0A@@std@@@std@@QBEPAU_Node@?$_Tree_nod@V?$_Tmap_traits@IUPlotState@CvReplayInfo@@U?$less@I@std@@V?$allocator@U?$pair@$$CBIUPlotState@CvReplayInfo@@@std@@@4@$0A@@std@@@3@XZ ENDP ; std::_Tree<std::_Tmap_traits<unsigned int,CvReplayInfo::PlotState,std::less<unsigned int>,std::allocator<std::pair<unsigned int const ,CvReplayInfo::PlotState> >,0> >::const_iterator::_Mynode
_TEXT	ENDS
PUBLIC	??0?$pair@$$CBIUPlotState@CvReplayInfo@@@std@@QAE@ABIABUPlotState@CvReplayInfo@@@Z ; std::pair<unsigned int const ,CvReplayInfo::PlotState>::pair<unsigned int const ,CvReplayInfo::PlotState>
; Function compile flags: /Ogtpy
; File c:\program files (x86)\microsoft visual studio 9.0\vc\include\utility
;	COMDAT ??0?$pair@$$CBIUPlotState@CvReplayInfo@@@std@@QAE@ABIABUPlotState@CvReplayInfo@@@Z
_TEXT	SEGMENT
__Val1$ = 8						; size = 4
__Val2$ = 12						; size = 4
??0?$pair@$$CBIUPlotState@CvReplayInfo@@@std@@QAE@ABIABUPlotState@CvReplayInfo@@@Z PROC ; std::pair<unsigned int const ,CvReplayInfo::PlotState>::pair<unsigned int const ,CvReplayInfo::PlotState>, COMDAT
; _this$ = ecx

; 50   : 		{	// construct from specified values

	mov	eax, ecx
	mov	ecx, DWORD PTR __Val1$[esp-4]
	mov	edx, DWORD PTR [ecx]
	mov	ecx, DWORD PTR __Val2$[esp-4]
	mov	DWORD PTR [eax], edx
	mov	edx, DWORD PTR [ecx]
	mov	DWORD PTR [eax+4], edx
	mov	edx, DWORD PTR [ecx+4]
	mov	DWORD PTR [eax+8], edx
	mov	edx, DWORD PTR [ecx+8]
	mov	DWORD PTR [eax+12], edx
	mov	ecx, DWORD PTR [ecx+12]
	mov	DWORD PTR [eax+16], ecx

; 51   : 		}

	ret	8
??0?$pair@$$CBIUPlotState@CvReplayInfo@@@std@@QAE@ABIABUPlotState@CvReplayInfo@@@Z ENDP ; std::pair<unsigned int const ,CvReplayInfo::PlotState>::pair<unsigned int const ,CvReplayInfo::PlotState>
_TEXT	ENDS
PUBLIC	??0?$_Vector_const_iterator@VCvReplayMessage@@V?$allocator@VCvReplayMessage@@@std@@@std@@QAE@PAVCvReplayMessage@@@Z ; std::_Vector_const_iterator<CvReplayMessage,std::allocator<CvReplayMessage> >::_Vector_const_iterator<CvReplayMessage,std::allocator<CvReplayMessage> >
; Function compile flags: /Ogtpy
; File c:\program files (x86)\microsoft visual studio 9.0\vc\include\vector
;	COMDAT ??0?$_Vector_const_iterator@VCvReplayMessage@@V?$allocator@VCvReplayMessage@@@std@@@std@@QAE@PAVCvReplayMessage@@@Z
_TEXT	SEGMENT
__Ptr$ = 8						; size = 4
??0?$_Vector_const_iterator@VCvReplayMessage@@V?$allocator@VCvReplayMessage@@@std@@@std@@QAE@PAVCvReplayMessage@@@Z PROC ; std::_Vector_const_iterator<CvReplayMessage,std::allocator<CvReplayMessage> >::_Vector_const_iterator<CvReplayMessage,std::allocator<CvReplayMessage> >, COMDAT
; _this$ = ecx

; 84   : 	explicit _Vector_const_iterator(_Tptr _Ptr)

	mov	eax, ecx

; 85   : 		{	// construct with pointer _Ptr
; 86   : 		_Myptr = _Ptr;

	mov	ecx, DWORD PTR __Ptr$[esp-4]
	mov	DWORD PTR [eax], ecx

; 87   : 		}

	ret	4
??0?$_Vector_const_iterator@VCvReplayMessage@@V?$allocator@VCvReplayMessage@@@std@@@std@@QAE@PAVCvReplayMessage@@@Z ENDP ; std::_Vector_const_iterator<CvReplayMessage,std::allocator<CvReplayMessage> >::_Vector_const_iterator<CvReplayMessage,std::allocator<CvReplayMessage> >
_TEXT	ENDS
PUBLIC	??8?$_Vector_const_iterator@VCvReplayMessage@@V?$allocator@VCvReplayMessage@@@std@@@std@@QBE_NABV01@@Z ; std::_Vector_const_iterator<CvReplayMessage,std::allocator<CvReplayMessage> >::operator==
; Function compile flags: /Ogtpy
;	COMDAT ??8?$_Vector_const_iterator@VCvReplayMessage@@V?$allocator@VCvReplayMessage@@@std@@@std@@QBE_NABV01@@Z
_TEXT	SEGMENT
__Right$ = 8						; size = 4
??8?$_Vector_const_iterator@VCvReplayMessage@@V?$allocator@VCvReplayMessage@@@std@@@std@@QBE_NABV01@@Z PROC ; std::_Vector_const_iterator<CvReplayMessage,std::allocator<CvReplayMessage> >::operator==, COMDAT
; _this$ = ecx

; 204  : 
; 205  :  #if _HAS_ITERATOR_DEBUGGING
; 206  : 		_Compat(_Right);
; 207  :  #else
; 208  : 		_SCL_SECURE_VALIDATE(this->_Has_container() && this->_Same_container(_Right));
; 209  :  #endif /* _HAS_ITERATOR_DEBUGGING */
; 210  : 
; 211  : 		return (_Myptr == _Right._Myptr);

	mov	eax, DWORD PTR [ecx]
	mov	edx, DWORD PTR __Right$[esp-4]
	xor	ecx, ecx
	cmp	eax, DWORD PTR [edx]
	sete	cl
	mov	al, cl

; 212  : 		}

	ret	4
??8?$_Vector_const_iterator@VCvReplayMessage@@V?$allocator@VCvReplayMessage@@@std@@@std@@QBE_NABV01@@Z ENDP ; std::_Vector_const_iterator<CvReplayMessage,std::allocator<CvReplayMessage> >::operator==
_TEXT	ENDS
PUBLIC	??8const_iterator@?$_Tree@V?$_Tmap_traits@HHU?$less@H@std@@V?$allocator@U?$pair@$$CBHH@std@@@2@$0A@@std@@@std@@QBE_NABV012@@Z ; std::_Tree<std::_Tmap_traits<int,int,std::less<int>,std::allocator<std::pair<int const ,int> >,0> >::const_iterator::operator==
; Function compile flags: /Ogtpy
; File c:\program files (x86)\microsoft visual studio 9.0\vc\include\xtree
;	COMDAT ??8const_iterator@?$_Tree@V?$_Tmap_traits@HHU?$less@H@std@@V?$allocator@U?$pair@$$CBHH@std@@@2@$0A@@std@@@std@@QBE_NABV012@@Z
_TEXT	SEGMENT
__Right$ = 8						; size = 4
??8const_iterator@?$_Tree@V?$_Tmap_traits@HHU?$less@H@std@@V?$allocator@U?$pair@$$CBHH@std@@@2@$0A@@std@@@std@@QBE_NABV012@@Z PROC ; std::_Tree<std::_Tmap_traits<int,int,std::less<int>,std::allocator<std::pair<int const ,int> >,0> >::const_iterator::operator==, COMDAT
; _this$ = ecx

; 300  : 
; 301  :  #if _HAS_ITERATOR_DEBUGGING
; 302  : 			if (this->_Mycont == 0 || this->_Mycont != _Right._Mycont)
; 303  : 				{
; 304  : 				_DEBUG_ERROR("map/set iterators incompatible");
; 305  : 				_SCL_SECURE_INVALID_ARGUMENT;
; 306  : 				}
; 307  :  #else
; 308  : 			_SCL_SECURE_VALIDATE(this->_Has_container() && this->_Same_container(_Right));
; 309  :  #endif /* _HAS_ITERATOR_DEBUGGING */
; 310  : 
; 311  : 			return (_Ptr == _Right._Ptr);

	mov	eax, DWORD PTR [ecx]
	mov	edx, DWORD PTR __Right$[esp-4]
	xor	ecx, ecx
	cmp	eax, DWORD PTR [edx]
	sete	cl
	mov	al, cl

; 312  : 			}

	ret	4
??8const_iterator@?$_Tree@V?$_Tmap_traits@HHU?$less@H@std@@V?$allocator@U?$pair@$$CBHH@std@@@2@$0A@@std@@@std@@QBE_NABV012@@Z ENDP ; std::_Tree<std::_Tmap_traits<int,int,std::less<int>,std::allocator<std::pair<int const ,int> >,0> >::const_iterator::operator==
_TEXT	ENDS
PUBLIC	?_Mynode@const_iterator@?$_Tree@V?$_Tmap_traits@HHU?$less@H@std@@V?$allocator@U?$pair@$$CBHH@std@@@2@$0A@@std@@@std@@QBEPAU_Node@?$_Tree_nod@V?$_Tmap_traits@HHU?$less@H@std@@V?$allocator@U?$pair@$$CBHH@std@@@2@$0A@@std@@@3@XZ ; std::_Tree<std::_Tmap_traits<int,int,std::less<int>,std::allocator<std::pair<int const ,int> >,0> >::const_iterator::_Mynode
; Function compile flags: /Ogtpy
;	COMDAT ?_Mynode@const_iterator@?$_Tree@V?$_Tmap_traits@HHU?$less@H@std@@V?$allocator@U?$pair@$$CBHH@std@@@2@$0A@@std@@@std@@QBEPAU_Node@?$_Tree_nod@V?$_Tmap_traits@HHU?$less@H@std@@V?$allocator@U?$pair@$$CBHH@std@@@2@$0A@@std@@@3@XZ
_TEXT	SEGMENT
?_Mynode@const_iterator@?$_Tree@V?$_Tmap_traits@HHU?$less@H@std@@V?$allocator@U?$pair@$$CBHH@std@@@2@$0A@@std@@@std@@QBEPAU_Node@?$_Tree_nod@V?$_Tmap_traits@HHU?$less@H@std@@V?$allocator@U?$pair@$$CBHH@std@@@2@$0A@@std@@@3@XZ PROC ; std::_Tree<std::_Tmap_traits<int,int,std::less<int>,std::allocator<std::pair<int const ,int> >,0> >::const_iterator::_Mynode, COMDAT
; _this$ = ecx

; 410  : 			return (_Ptr);

	mov	eax, DWORD PTR [ecx]

; 411  : 			}

	ret	0
?_Mynode@const_iterator@?$_Tree@V?$_Tmap_traits@HHU?$less@H@std@@V?$allocator@U?$pair@$$CBHH@std@@@2@$0A@@std@@@std@@QBEPAU_Node@?$_Tree_nod@V?$_Tmap_traits@HHU?$less@H@std@@V?$allocator@U?$pair@$$CBHH@std@@@2@$0A@@std@@@3@XZ ENDP ; std::_Tree<std::_Tmap_traits<int,int,std::less<int>,std::allocator<std::pair<int const ,int> >,0> >::const_iterator::_Mynode
_TEXT	ENDS
PUBLIC	??0?$pair@$$CBHH@std@@QAE@ABH0@Z		; std::pair<int const ,int>::pair<int const ,int>
; Function compile flags: /Ogtpy
; File c:\program files (x86)\microsoft visual studio 9.0\vc\include\utility
;	COMDAT ??0?$pair@$$CBHH@std@@QAE@ABH0@Z
_TEXT	SEGMENT
__Val1$ = 8						; size = 4
__Val2$ = 12						; size = 4
??0?$pair@$$CBHH@std@@QAE@ABH0@Z PROC			; std::pair<int const ,int>::pair<int const ,int>, COMDAT
; _this$ = ecx

; 50   : 		{	// construct from specified values

	mov	eax, ecx
	mov	ecx, DWORD PTR __Val1$[esp-4]
	mov	edx, DWORD PTR [ecx]
	mov	ecx, DWORD PTR __Val2$[esp-4]
	mov	DWORD PTR [eax], edx
	mov	edx, DWORD PTR [ecx]
	mov	DWORD PTR [eax+4], edx

; 51   : 		}

	ret	8
??0?$pair@$$CBHH@std@@QAE@ABH0@Z ENDP			; std::pair<int const ,int>::pair<int const ,int>
_TEXT	ENDS
PUBLIC	??0?$_Container_base_aux_alloc_empty@V?$allocator@V?$basic_string@DU?$char_traits@D@std@@V?$allocator@D@2@@std@@@std@@@std@@IAE@V?$allocator@V?$basic_string@DU?$char_traits@D@std@@V?$allocator@D@2@@std@@@1@@Z ; std::_Container_base_aux_alloc_empty<std::allocator<std::basic_string<char,std::char_traits<char>,std::allocator<char> > > >::_Container_base_aux_alloc_empty<std::allocator<std::basic_string<char,std::char_traits<char>,std::allocator<char> > > >
; Function compile flags: /Ogtpy
; File c:\program files (x86)\microsoft visual studio 9.0\vc\include\xutility
;	COMDAT ??0?$_Container_base_aux_alloc_empty@V?$allocator@V?$basic_string@DU?$char_traits@D@std@@V?$allocator@D@2@@std@@@std@@@std@@IAE@V?$allocator@V?$basic_string@DU?$char_traits@D@std@@V?$allocator@D@2@@std@@@1@@Z
_TEXT	SEGMENT
___formal$ = 8						; size = 1
??0?$_Container_base_aux_alloc_empty@V?$allocator@V?$basic_string@DU?$char_traits@D@std@@V?$allocator@D@2@@std@@@std@@@std@@IAE@V?$allocator@V?$basic_string@DU?$char_traits@D@std@@V?$allocator@D@2@@std@@@1@@Z PROC ; std::_Container_base_aux_alloc_empty<std::allocator<std::basic_string<char,std::char_traits<char>,std::allocator<char> > > >::_Container_base_aux_alloc_empty<std::allocator<std::basic_string<char,std::char_traits<char>,std::allocator<char> > > >, COMDAT
; _this$ = ecx

; 618  : 	explicit _Container_base_aux_alloc_empty(_Alloc) { }

	mov	eax, ecx
	ret	4
??0?$_Container_base_aux_alloc_empty@V?$allocator@V?$basic_string@DU?$char_traits@D@std@@V?$allocator@D@2@@std@@@std@@@std@@IAE@V?$allocator@V?$basic_string@DU?$char_traits@D@std@@V?$allocator@D@2@@std@@@1@@Z ENDP ; std::_Container_base_aux_alloc_empty<std::allocator<std::basic_string<char,std::char_traits<char>,std::allocator<char> > > >::_Container_base_aux_alloc_empty<std::allocator<std::basic_string<char,std::char_traits<char>,std::allocator<char> > > >
_TEXT	ENDS
PUBLIC	??0?$allocator@V?$basic_string@DU?$char_traits@D@std@@V?$allocator@D@2@@std@@@std@@QAE@ABV01@@Z ; std::allocator<std::basic_string<char,std::char_traits<char>,std::allocator<char> > >::allocator<std::basic_string<char,std::char_traits<char>,std::allocator<char> > >
; Function compile flags: /Ogtpy
; File c:\program files (x86)\microsoft visual studio 9.0\vc\include\xmemory
;	COMDAT ??0?$allocator@V?$basic_string@DU?$char_traits@D@std@@V?$allocator@D@2@@std@@@std@@QAE@ABV01@@Z
_TEXT	SEGMENT
___formal$ = 8						; size = 4
??0?$allocator@V?$basic_string@DU?$char_traits@D@std@@V?$allocator@D@2@@std@@@std@@QAE@ABV01@@Z PROC ; std::allocator<std::basic_string<char,std::char_traits<char>,std::allocator<char> > >::allocator<std::basic_string<char,std::char_traits<char>,std::allocator<char> > >, COMDAT
; _this$ = ecx

; 123  : 	allocator(const allocator<_Ty>&) _THROW0()

	mov	eax, ecx

; 124  : 		{	// construct by copying (do nothing)
; 125  : 		}

	ret	4
??0?$allocator@V?$basic_string@DU?$char_traits@D@std@@V?$allocator@D@2@@std@@@std@@QAE@ABV01@@Z ENDP ; std::allocator<std::basic_string<char,std::char_traits<char>,std::allocator<char> > >::allocator<std::basic_string<char,std::char_traits<char>,std::allocator<char> > >
_TEXT	ENDS
PUBLIC	?deallocate@?$allocator@V?$basic_string@DU?$char_traits@D@std@@V?$allocator@D@2@@std@@@std@@QAEXPAV?$basic_string@DU?$char_traits@D@std@@V?$allocator@D@2@@2@I@Z ; std::allocator<std::basic_string<char,std::char_traits<char>,std::allocator<char> > >::deallocate
; Function compile flags: /Ogtpy
;	COMDAT ?deallocate@?$allocator@V?$basic_string@DU?$char_traits@D@std@@V?$allocator@D@2@@std@@@std@@QAEXPAV?$basic_string@DU?$char_traits@D@std@@V?$allocator@D@2@@2@I@Z
_TEXT	SEGMENT
__Ptr$ = 8						; size = 4
___formal$ = 12						; size = 4
?deallocate@?$allocator@V?$basic_string@DU?$char_traits@D@std@@V?$allocator@D@2@@std@@@std@@QAEXPAV?$basic_string@DU?$char_traits@D@std@@V?$allocator@D@2@@2@I@Z PROC ; std::allocator<std::basic_string<char,std::char_traits<char>,std::allocator<char> > >::deallocate, COMDAT
; _this$ = ecx

; 140  : 		::operator delete(_Ptr);

	mov	eax, DWORD PTR __Ptr$[esp-4]
	push	eax
	call	??3@YAXPAX@Z				; operator delete
	pop	ecx

; 141  : 		}

	ret	8
?deallocate@?$allocator@V?$basic_string@DU?$char_traits@D@std@@V?$allocator@D@2@@std@@@std@@QAEXPAV?$basic_string@DU?$char_traits@D@std@@V?$allocator@D@2@@2@I@Z ENDP ; std::allocator<std::basic_string<char,std::char_traits<char>,std::allocator<char> > >::deallocate
_TEXT	ENDS
PUBLIC	?_Isnil@?$_Tree@V?$_Tmap_traits@IHU?$less@I@std@@V?$allocator@U?$pair@$$CBIH@std@@@2@$0A@@std@@@std@@KAAADPAU_Node@?$_Tree_nod@V?$_Tmap_traits@IHU?$less@I@std@@V?$allocator@U?$pair@$$CBIH@std@@@2@$0A@@std@@@2@@Z ; std::_Tree<std::_Tmap_traits<unsigned int,int,std::less<unsigned int>,std::allocator<std::pair<unsigned int const ,int> >,0> >::_Isnil
; Function compile flags: /Ogtpy
; File c:\program files (x86)\microsoft visual studio 9.0\vc\include\xtree
;	COMDAT ?_Isnil@?$_Tree@V?$_Tmap_traits@IHU?$less@I@std@@V?$allocator@U?$pair@$$CBIH@std@@@2@$0A@@std@@@std@@KAAADPAU_Node@?$_Tree_nod@V?$_Tmap_traits@IHU?$less@I@std@@V?$allocator@U?$pair@$$CBIH@std@@@2@$0A@@std@@@2@@Z
_TEXT	SEGMENT
__Pnode$ = 8						; size = 4
?_Isnil@?$_Tree@V?$_Tmap_traits@IHU?$less@I@std@@V?$allocator@U?$pair@$$CBIH@std@@@2@$0A@@std@@@std@@KAAADPAU_Node@?$_Tree_nod@V?$_Tmap_traits@IHU?$less@I@std@@V?$allocator@U?$pair@$$CBIH@std@@@2@$0A@@std@@@2@@Z PROC ; std::_Tree<std::_Tmap_traits<unsigned int,int,std::less<unsigned int>,std::allocator<std::pair<unsigned int const ,int> >,0> >::_Isnil, COMDAT

; 157  : 		return ((_Charref)(*_Pnode)._Isnil);

	mov	eax, DWORD PTR __Pnode$[esp-4]
	add	eax, 21					; 00000015H

; 158  : 		}

	ret	0
?_Isnil@?$_Tree@V?$_Tmap_traits@IHU?$less@I@std@@V?$allocator@U?$pair@$$CBIH@std@@@2@$0A@@std@@@std@@KAAADPAU_Node@?$_Tree_nod@V?$_Tmap_traits@IHU?$less@I@std@@V?$allocator@U?$pair@$$CBIH@std@@@2@$0A@@std@@@2@@Z ENDP ; std::_Tree<std::_Tmap_traits<unsigned int,int,std::less<unsigned int>,std::allocator<std::pair<unsigned int const ,int> >,0> >::_Isnil
_TEXT	ENDS
PUBLIC	?_Left@?$_Tree@V?$_Tmap_traits@IHU?$less@I@std@@V?$allocator@U?$pair@$$CBIH@std@@@2@$0A@@std@@@std@@KAAAPAU_Node@?$_Tree_nod@V?$_Tmap_traits@IHU?$less@I@std@@V?$allocator@U?$pair@$$CBIH@std@@@2@$0A@@std@@@2@PAU342@@Z ; std::_Tree<std::_Tmap_traits<unsigned int,int,std::less<unsigned int>,std::allocator<std::pair<unsigned int const ,int> >,0> >::_Left
; Function compile flags: /Ogtpy
;	COMDAT ?_Left@?$_Tree@V?$_Tmap_traits@IHU?$less@I@std@@V?$allocator@U?$pair@$$CBIH@std@@@2@$0A@@std@@@std@@KAAAPAU_Node@?$_Tree_nod@V?$_Tmap_traits@IHU?$less@I@std@@V?$allocator@U?$pair@$$CBIH@std@@@2@$0A@@std@@@2@PAU342@@Z
_TEXT	SEGMENT
__Pnode$ = 8						; size = 4
?_Left@?$_Tree@V?$_Tmap_traits@IHU?$less@I@std@@V?$allocator@U?$pair@$$CBIH@std@@@2@$0A@@std@@@std@@KAAAPAU_Node@?$_Tree_nod@V?$_Tmap_traits@IHU?$less@I@std@@V?$allocator@U?$pair@$$CBIH@std@@@2@$0A@@std@@@2@PAU342@@Z PROC ; std::_Tree<std::_Tmap_traits<unsigned int,int,std::less<unsigned int>,std::allocator<std::pair<unsigned int const ,int> >,0> >::_Left, COMDAT

; 167  : 		return ((_Nodepref)(*_Pnode)._Left);

	mov	eax, DWORD PTR __Pnode$[esp-4]

; 168  : 		}

	ret	0
?_Left@?$_Tree@V?$_Tmap_traits@IHU?$less@I@std@@V?$allocator@U?$pair@$$CBIH@std@@@2@$0A@@std@@@std@@KAAAPAU_Node@?$_Tree_nod@V?$_Tmap_traits@IHU?$less@I@std@@V?$allocator@U?$pair@$$CBIH@std@@@2@$0A@@std@@@2@PAU342@@Z ENDP ; std::_Tree<std::_Tmap_traits<unsigned int,int,std::less<unsigned int>,std::allocator<std::pair<unsigned int const ,int> >,0> >::_Left
_TEXT	ENDS
PUBLIC	?_Parent@?$_Tree@V?$_Tmap_traits@IHU?$less@I@std@@V?$allocator@U?$pair@$$CBIH@std@@@2@$0A@@std@@@std@@KAAAPAU_Node@?$_Tree_nod@V?$_Tmap_traits@IHU?$less@I@std@@V?$allocator@U?$pair@$$CBIH@std@@@2@$0A@@std@@@2@PAU342@@Z ; std::_Tree<std::_Tmap_traits<unsigned int,int,std::less<unsigned int>,std::allocator<std::pair<unsigned int const ,int> >,0> >::_Parent
; Function compile flags: /Ogtpy
;	COMDAT ?_Parent@?$_Tree@V?$_Tmap_traits@IHU?$less@I@std@@V?$allocator@U?$pair@$$CBIH@std@@@2@$0A@@std@@@std@@KAAAPAU_Node@?$_Tree_nod@V?$_Tmap_traits@IHU?$less@I@std@@V?$allocator@U?$pair@$$CBIH@std@@@2@$0A@@std@@@2@PAU342@@Z
_TEXT	SEGMENT
__Pnode$ = 8						; size = 4
?_Parent@?$_Tree@V?$_Tmap_traits@IHU?$less@I@std@@V?$allocator@U?$pair@$$CBIH@std@@@2@$0A@@std@@@std@@KAAAPAU_Node@?$_Tree_nod@V?$_Tmap_traits@IHU?$less@I@std@@V?$allocator@U?$pair@$$CBIH@std@@@2@$0A@@std@@@2@PAU342@@Z PROC ; std::_Tree<std::_Tmap_traits<unsigned int,int,std::less<unsigned int>,std::allocator<std::pair<unsigned int const ,int> >,0> >::_Parent, COMDAT

; 172  : 		return ((_Nodepref)(*_Pnode)._Parent);

	mov	eax, DWORD PTR __Pnode$[esp-4]
	add	eax, 4

; 173  : 		}

	ret	0
?_Parent@?$_Tree@V?$_Tmap_traits@IHU?$less@I@std@@V?$allocator@U?$pair@$$CBIH@std@@@2@$0A@@std@@@std@@KAAAPAU_Node@?$_Tree_nod@V?$_Tmap_traits@IHU?$less@I@std@@V?$allocator@U?$pair@$$CBIH@std@@@2@$0A@@std@@@2@PAU342@@Z ENDP ; std::_Tree<std::_Tmap_traits<unsigned int,int,std::less<unsigned int>,std::allocator<std::pair<unsigned int const ,int> >,0> >::_Parent
_TEXT	ENDS
PUBLIC	?_Right@?$_Tree@V?$_Tmap_traits@IHU?$less@I@std@@V?$allocator@U?$pair@$$CBIH@std@@@2@$0A@@std@@@std@@KAAAPAU_Node@?$_Tree_nod@V?$_Tmap_traits@IHU?$less@I@std@@V?$allocator@U?$pair@$$CBIH@std@@@2@$0A@@std@@@2@PAU342@@Z ; std::_Tree<std::_Tmap_traits<unsigned int,int,std::less<unsigned int>,std::allocator<std::pair<unsigned int const ,int> >,0> >::_Right
; Function compile flags: /Ogtpy
;	COMDAT ?_Right@?$_Tree@V?$_Tmap_traits@IHU?$less@I@std@@V?$allocator@U?$pair@$$CBIH@std@@@2@$0A@@std@@@std@@KAAAPAU_Node@?$_Tree_nod@V?$_Tmap_traits@IHU?$less@I@std@@V?$allocator@U?$pair@$$CBIH@std@@@2@$0A@@std@@@2@PAU342@@Z
_TEXT	SEGMENT
__Pnode$ = 8						; size = 4
?_Right@?$_Tree@V?$_Tmap_traits@IHU?$less@I@std@@V?$allocator@U?$pair@$$CBIH@std@@@2@$0A@@std@@@std@@KAAAPAU_Node@?$_Tree_nod@V?$_Tmap_traits@IHU?$less@I@std@@V?$allocator@U?$pair@$$CBIH@std@@@2@$0A@@std@@@2@PAU342@@Z PROC ; std::_Tree<std::_Tmap_traits<unsigned int,int,std::less<unsigned int>,std::allocator<std::pair<unsigned int const ,int> >,0> >::_Right, COMDAT

; 177  : 		return ((_Nodepref)(*_Pnode)._Right);

	mov	eax, DWORD PTR __Pnode$[esp-4]
	add	eax, 8

; 178  : 		}

	ret	0
?_Right@?$_Tree@V?$_Tmap_traits@IHU?$less@I@std@@V?$allocator@U?$pair@$$CBIH@std@@@2@$0A@@std@@@std@@KAAAPAU_Node@?$_Tree_nod@V?$_Tmap_traits@IHU?$less@I@std@@V?$allocator@U?$pair@$$CBIH@std@@@2@$0A@@std@@@2@PAU342@@Z ENDP ; std::_Tree<std::_Tmap_traits<unsigned int,int,std::less<unsigned int>,std::allocator<std::pair<unsigned int const ,int> >,0> >::_Right
_TEXT	ENDS
PUBLIC	?_Max@?$_Tree@V?$_Tmap_traits@IHU?$less@I@std@@V?$allocator@U?$pair@$$CBIH@std@@@2@$0A@@std@@@std@@KAPAU_Node@?$_Tree_nod@V?$_Tmap_traits@IHU?$less@I@std@@V?$allocator@U?$pair@$$CBIH@std@@@2@$0A@@std@@@2@PAU342@@Z ; std::_Tree<std::_Tmap_traits<unsigned int,int,std::less<unsigned int>,std::allocator<std::pair<unsigned int const ,int> >,0> >::_Max
; Function compile flags: /Ogtpy
;	COMDAT ?_Max@?$_Tree@V?$_Tmap_traits@IHU?$less@I@std@@V?$allocator@U?$pair@$$CBIH@std@@@2@$0A@@std@@@std@@KAPAU_Node@?$_Tree_nod@V?$_Tmap_traits@IHU?$less@I@std@@V?$allocator@U?$pair@$$CBIH@std@@@2@$0A@@std@@@2@PAU342@@Z
_TEXT	SEGMENT
__Pnode$ = 8						; size = 4
?_Max@?$_Tree@V?$_Tmap_traits@IHU?$less@I@std@@V?$allocator@U?$pair@$$CBIH@std@@@2@$0A@@std@@@std@@KAPAU_Node@?$_Tree_nod@V?$_Tmap_traits@IHU?$less@I@std@@V?$allocator@U?$pair@$$CBIH@std@@@2@$0A@@std@@@2@PAU342@@Z PROC ; std::_Tree<std::_Tmap_traits<unsigned int,int,std::less<unsigned int>,std::allocator<std::pair<unsigned int const ,int> >,0> >::_Max, COMDAT

; 1306 : 		while (!_Isnil(_Right(_Pnode)))

	mov	eax, DWORD PTR __Pnode$[esp-4]
	mov	ecx, DWORD PTR [eax+8]
	cmp	BYTE PTR [ecx+21], 0
	jne	SHORT $LN1@Max
	npad	3
$LL2@Max:

; 1307 : 			_Pnode = _Right(_Pnode);

	mov	eax, ecx
	mov	ecx, DWORD PTR [eax+8]
	cmp	BYTE PTR [ecx+21], 0
	je	SHORT $LL2@Max
$LN1@Max:

; 1308 : 		return (_Pnode);
; 1309 : 		}

	ret	0
?_Max@?$_Tree@V?$_Tmap_traits@IHU?$less@I@std@@V?$allocator@U?$pair@$$CBIH@std@@@2@$0A@@std@@@std@@KAPAU_Node@?$_Tree_nod@V?$_Tmap_traits@IHU?$less@I@std@@V?$allocator@U?$pair@$$CBIH@std@@@2@$0A@@std@@@2@PAU342@@Z ENDP ; std::_Tree<std::_Tmap_traits<unsigned int,int,std::less<unsigned int>,std::allocator<std::pair<unsigned int const ,int> >,0> >::_Max
_TEXT	ENDS
PUBLIC	?_Min@?$_Tree@V?$_Tmap_traits@IHU?$less@I@std@@V?$allocator@U?$pair@$$CBIH@std@@@2@$0A@@std@@@std@@KAPAU_Node@?$_Tree_nod@V?$_Tmap_traits@IHU?$less@I@std@@V?$allocator@U?$pair@$$CBIH@std@@@2@$0A@@std@@@2@PAU342@@Z ; std::_Tree<std::_Tmap_traits<unsigned int,int,std::less<unsigned int>,std::allocator<std::pair<unsigned int const ,int> >,0> >::_Min
; Function compile flags: /Ogtpy
;	COMDAT ?_Min@?$_Tree@V?$_Tmap_traits@IHU?$less@I@std@@V?$allocator@U?$pair@$$CBIH@std@@@2@$0A@@std@@@std@@KAPAU_Node@?$_Tree_nod@V?$_Tmap_traits@IHU?$less@I@std@@V?$allocator@U?$pair@$$CBIH@std@@@2@$0A@@std@@@2@PAU342@@Z
_TEXT	SEGMENT
__Pnode$ = 8						; size = 4
?_Min@?$_Tree@V?$_Tmap_traits@IHU?$less@I@std@@V?$allocator@U?$pair@$$CBIH@std@@@2@$0A@@std@@@std@@KAPAU_Node@?$_Tree_nod@V?$_Tmap_traits@IHU?$less@I@std@@V?$allocator@U?$pair@$$CBIH@std@@@2@$0A@@std@@@2@PAU342@@Z PROC ; std::_Tree<std::_Tmap_traits<unsigned int,int,std::less<unsigned int>,std::allocator<std::pair<unsigned int const ,int> >,0> >::_Min, COMDAT

; 1313 : 		while (!_Isnil(_Left(_Pnode)))

	mov	eax, DWORD PTR __Pnode$[esp-4]
	mov	ecx, DWORD PTR [eax]
	cmp	BYTE PTR [ecx+21], 0
	jne	SHORT $LN1@Min
	npad	4
$LL2@Min:

; 1314 : 			_Pnode = _Left(_Pnode);

	mov	eax, ecx
	mov	ecx, DWORD PTR [eax]
	cmp	BYTE PTR [ecx+21], 0
	je	SHORT $LL2@Min
$LN1@Min:

; 1315 : 		return (_Pnode);
; 1316 : 		}

	ret	0
?_Min@?$_Tree@V?$_Tmap_traits@IHU?$less@I@std@@V?$allocator@U?$pair@$$CBIH@std@@@2@$0A@@std@@@std@@KAPAU_Node@?$_Tree_nod@V?$_Tmap_traits@IHU?$less@I@std@@V?$allocator@U?$pair@$$CBIH@std@@@2@$0A@@std@@@2@PAU342@@Z ENDP ; std::_Tree<std::_Tmap_traits<unsigned int,int,std::less<unsigned int>,std::allocator<std::pair<unsigned int const ,int> >,0> >::_Min
_TEXT	ENDS
PUBLIC	?_Rmost@?$_Tree@V?$_Tmap_traits@IHU?$less@I@std@@V?$allocator@U?$pair@$$CBIH@std@@@2@$0A@@std@@@std@@IBEAAPAU_Node@?$_Tree_nod@V?$_Tmap_traits@IHU?$less@I@std@@V?$allocator@U?$pair@$$CBIH@std@@@2@$0A@@std@@@2@XZ ; std::_Tree<std::_Tmap_traits<unsigned int,int,std::less<unsigned int>,std::allocator<std::pair<unsigned int const ,int> >,0> >::_Rmost
; Function compile flags: /Ogtpy
;	COMDAT ?_Rmost@?$_Tree@V?$_Tmap_traits@IHU?$less@I@std@@V?$allocator@U?$pair@$$CBIH@std@@@2@$0A@@std@@@std@@IBEAAPAU_Node@?$_Tree_nod@V?$_Tmap_traits@IHU?$less@I@std@@V?$allocator@U?$pair@$$CBIH@std@@@2@$0A@@std@@@2@XZ
_TEXT	SEGMENT
?_Rmost@?$_Tree@V?$_Tmap_traits@IHU?$less@I@std@@V?$allocator@U?$pair@$$CBIH@std@@@2@$0A@@std@@@std@@IBEAAPAU_Node@?$_Tree_nod@V?$_Tmap_traits@IHU?$less@I@std@@V?$allocator@U?$pair@$$CBIH@std@@@2@$0A@@std@@@2@XZ PROC ; std::_Tree<std::_Tmap_traits<unsigned int,int,std::less<unsigned int>,std::allocator<std::pair<unsigned int const ,int> >,0> >::_Rmost, COMDAT
; _this$ = ecx

; 1320 : 		return (_Right(_Myhead));

	mov	eax, DWORD PTR [ecx+4]
	add	eax, 8

; 1321 : 		}

	ret	0
?_Rmost@?$_Tree@V?$_Tmap_traits@IHU?$less@I@std@@V?$allocator@U?$pair@$$CBIH@std@@@2@$0A@@std@@@std@@IBEAAPAU_Node@?$_Tree_nod@V?$_Tmap_traits@IHU?$less@I@std@@V?$allocator@U?$pair@$$CBIH@std@@@2@$0A@@std@@@2@XZ ENDP ; std::_Tree<std::_Tmap_traits<unsigned int,int,std::less<unsigned int>,std::allocator<std::pair<unsigned int const ,int> >,0> >::_Rmost
_TEXT	ENDS
PUBLIC	?_Root@?$_Tree@V?$_Tmap_traits@IHU?$less@I@std@@V?$allocator@U?$pair@$$CBIH@std@@@2@$0A@@std@@@std@@IBEAAPAU_Node@?$_Tree_nod@V?$_Tmap_traits@IHU?$less@I@std@@V?$allocator@U?$pair@$$CBIH@std@@@2@$0A@@std@@@2@XZ ; std::_Tree<std::_Tmap_traits<unsigned int,int,std::less<unsigned int>,std::allocator<std::pair<unsigned int const ,int> >,0> >::_Root
; Function compile flags: /Ogtpy
;	COMDAT ?_Root@?$_Tree@V?$_Tmap_traits@IHU?$less@I@std@@V?$allocator@U?$pair@$$CBIH@std@@@2@$0A@@std@@@std@@IBEAAPAU_Node@?$_Tree_nod@V?$_Tmap_traits@IHU?$less@I@std@@V?$allocator@U?$pair@$$CBIH@std@@@2@$0A@@std@@@2@XZ
_TEXT	SEGMENT
?_Root@?$_Tree@V?$_Tmap_traits@IHU?$less@I@std@@V?$allocator@U?$pair@$$CBIH@std@@@2@$0A@@std@@@std@@IBEAAPAU_Node@?$_Tree_nod@V?$_Tmap_traits@IHU?$less@I@std@@V?$allocator@U?$pair@$$CBIH@std@@@2@$0A@@std@@@2@XZ PROC ; std::_Tree<std::_Tmap_traits<unsigned int,int,std::less<unsigned int>,std::allocator<std::pair<unsigned int const ,int> >,0> >::_Root, COMDAT
; _this$ = ecx

; 1325 : 		return (_Parent(_Myhead));

	mov	eax, DWORD PTR [ecx+4]
	add	eax, 4

; 1326 : 		}

	ret	0
?_Root@?$_Tree@V?$_Tmap_traits@IHU?$less@I@std@@V?$allocator@U?$pair@$$CBIH@std@@@2@$0A@@std@@@std@@IBEAAPAU_Node@?$_Tree_nod@V?$_Tmap_traits@IHU?$less@I@std@@V?$allocator@U?$pair@$$CBIH@std@@@2@$0A@@std@@@2@XZ ENDP ; std::_Tree<std::_Tmap_traits<unsigned int,int,std::less<unsigned int>,std::allocator<std::pair<unsigned int const ,int> >,0> >::_Root
_TEXT	ENDS
PUBLIC	?_Kfn@?$_Tmap_traits@IHU?$less@I@std@@V?$allocator@U?$pair@$$CBIH@std@@@2@$0A@@std@@SAABIABU?$pair@$$CBIH@2@@Z ; std::_Tmap_traits<unsigned int,int,std::less<unsigned int>,std::allocator<std::pair<unsigned int const ,int> >,0>::_Kfn
; Function compile flags: /Ogtpy
; File c:\program files (x86)\microsoft visual studio 9.0\vc\include\map
;	COMDAT ?_Kfn@?$_Tmap_traits@IHU?$less@I@std@@V?$allocator@U?$pair@$$CBIH@std@@@2@$0A@@std@@SAABIABU?$pair@$$CBIH@2@@Z
_TEXT	SEGMENT
__Val$ = 8						; size = 4
?_Kfn@?$_Tmap_traits@IHU?$less@I@std@@V?$allocator@U?$pair@$$CBIH@std@@@2@$0A@@std@@SAABIABU?$pair@$$CBIH@2@@Z PROC ; std::_Tmap_traits<unsigned int,int,std::less<unsigned int>,std::allocator<std::pair<unsigned int const ,int> >,0>::_Kfn, COMDAT

; 65   : 		return (_Val.first);

	mov	eax, DWORD PTR __Val$[esp-4]

; 66   : 		}

	ret	0
?_Kfn@?$_Tmap_traits@IHU?$less@I@std@@V?$allocator@U?$pair@$$CBIH@std@@@2@$0A@@std@@SAABIABU?$pair@$$CBIH@2@@Z ENDP ; std::_Tmap_traits<unsigned int,int,std::less<unsigned int>,std::allocator<std::pair<unsigned int const ,int> >,0>::_Kfn
_TEXT	ENDS
PUBLIC	??0?$allocator@U?$pair@$$CBIH@std@@@std@@QAE@ABV01@@Z ; std::allocator<std::pair<unsigned int const ,int> >::allocator<std::pair<unsigned int const ,int> >
; Function compile flags: /Ogtpy
; File c:\program files (x86)\microsoft visual studio 9.0\vc\include\xmemory
;	COMDAT ??0?$allocator@U?$pair@$$CBIH@std@@@std@@QAE@ABV01@@Z
_TEXT	SEGMENT
___formal$ = 8						; size = 4
??0?$allocator@U?$pair@$$CBIH@std@@@std@@QAE@ABV01@@Z PROC ; std::allocator<std::pair<unsigned int const ,int> >::allocator<std::pair<unsigned int const ,int> >, COMDAT
; _this$ = ecx

; 123  : 	allocator(const allocator<_Ty>&) _THROW0()

	mov	eax, ecx

; 124  : 		{	// construct by copying (do nothing)
; 125  : 		}

	ret	4
??0?$allocator@U?$pair@$$CBIH@std@@@std@@QAE@ABV01@@Z ENDP ; std::allocator<std::pair<unsigned int const ,int> >::allocator<std::pair<unsigned int const ,int> >
_TEXT	ENDS
PUBLIC	?deallocate@?$allocator@U_Node@?$_Tree_nod@V?$_Tmap_traits@IHU?$less@I@std@@V?$allocator@U?$pair@$$CBIH@std@@@2@$0A@@std@@@std@@@std@@QAEXPAU_Node@?$_Tree_nod@V?$_Tmap_traits@IHU?$less@I@std@@V?$allocator@U?$pair@$$CBIH@std@@@2@$0A@@std@@@2@I@Z ; std::allocator<std::_Tree_nod<std::_Tmap_traits<unsigned int,int,std::less<unsigned int>,std::allocator<std::pair<unsigned int const ,int> >,0> >::_Node>::deallocate
; Function compile flags: /Ogtpy
;	COMDAT ?deallocate@?$allocator@U_Node@?$_Tree_nod@V?$_Tmap_traits@IHU?$less@I@std@@V?$allocator@U?$pair@$$CBIH@std@@@2@$0A@@std@@@std@@@std@@QAEXPAU_Node@?$_Tree_nod@V?$_Tmap_traits@IHU?$less@I@std@@V?$allocator@U?$pair@$$CBIH@std@@@2@$0A@@std@@@2@I@Z
_TEXT	SEGMENT
__Ptr$ = 8						; size = 4
___formal$ = 12						; size = 4
?deallocate@?$allocator@U_Node@?$_Tree_nod@V?$_Tmap_traits@IHU?$less@I@std@@V?$allocator@U?$pair@$$CBIH@std@@@2@$0A@@std@@@std@@@std@@QAEXPAU_Node@?$_Tree_nod@V?$_Tmap_traits@IHU?$less@I@std@@V?$allocator@U?$pair@$$CBIH@std@@@2@$0A@@std@@@2@I@Z PROC ; std::allocator<std::_Tree_nod<std::_Tmap_traits<unsigned int,int,std::less<unsigned int>,std::allocator<std::pair<unsigned int const ,int> >,0> >::_Node>::deallocate, COMDAT
; _this$ = ecx

; 140  : 		::operator delete(_Ptr);

	mov	eax, DWORD PTR __Ptr$[esp-4]
	push	eax
	call	??3@YAXPAX@Z				; operator delete
	pop	ecx

; 141  : 		}

	ret	8
?deallocate@?$allocator@U_Node@?$_Tree_nod@V?$_Tmap_traits@IHU?$less@I@std@@V?$allocator@U?$pair@$$CBIH@std@@@2@$0A@@std@@@std@@@std@@QAEXPAU_Node@?$_Tree_nod@V?$_Tmap_traits@IHU?$less@I@std@@V?$allocator@U?$pair@$$CBIH@std@@@2@$0A@@std@@@2@I@Z ENDP ; std::allocator<std::_Tree_nod<std::_Tmap_traits<unsigned int,int,std::less<unsigned int>,std::allocator<std::pair<unsigned int const ,int> >,0> >::_Node>::deallocate
_TEXT	ENDS
PUBLIC	?_Xlen@?$vector@V?$basic_string@DU?$char_traits@D@std@@V?$allocator@D@2@@std@@V?$allocator@V?$basic_string@DU?$char_traits@D@std@@V?$allocator@D@2@@std@@@2@@std@@KAXXZ ; std::vector<std::basic_string<char,std::char_traits<char>,std::allocator<char> >,std::allocator<std::basic_string<char,std::char_traits<char>,std::allocator<char> > > >::_Xlen
;	COMDAT xdata$x
; File c:\program files (x86)\microsoft visual studio 9.0\vc\include\stdexcept
xdata$x	SEGMENT
__unwindtable$?_Xlen@?$vector@V?$basic_string@DU?$char_traits@D@std@@V?$allocator@D@2@@std@@V?$allocator@V?$basic_string@DU?$char_traits@D@std@@V?$allocator@D@2@@std@@@2@@std@@KAXXZ DD 0ffffffffH
	DD	FLAT:__unwindfunclet$?_Xlen@?$vector@V?$basic_string@DU?$char_traits@D@std@@V?$allocator@D@2@@std@@V?$allocator@V?$basic_string@DU?$char_traits@D@std@@V?$allocator@D@2@@std@@@2@@std@@KAXXZ$0
	DD	00H
	DD	FLAT:__unwindfunclet$?_Xlen@?$vector@V?$basic_string@DU?$char_traits@D@std@@V?$allocator@D@2@@std@@V?$allocator@V?$basic_string@DU?$char_traits@D@std@@V?$allocator@D@2@@std@@@2@@std@@KAXXZ$2
__ehfuncinfo$?_Xlen@?$vector@V?$basic_string@DU?$char_traits@D@std@@V?$allocator@D@2@@std@@V?$allocator@V?$basic_string@DU?$char_traits@D@std@@V?$allocator@D@2@@std@@@2@@std@@KAXXZ DD 019930522H
	DD	02H
	DD	FLAT:__unwindtable$?_Xlen@?$vector@V?$basic_string@DU?$char_traits@D@std@@V?$allocator@D@2@@std@@V?$allocator@V?$basic_string@DU?$char_traits@D@std@@V?$allocator@D@2@@std@@@2@@std@@KAXXZ
	DD	2 DUP(00H)
	DD	2 DUP(00H)
	DD	00H
	DD	01H
; Function compile flags: /Ogtpy
; File c:\program files (x86)\microsoft visual studio 9.0\vc\include\vector
xdata$x	ENDS
;	COMDAT ?_Xlen@?$vector@V?$basic_string@DU?$char_traits@D@std@@V?$allocator@D@2@@std@@V?$allocator@V?$basic_string@DU?$char_traits@D@std@@V?$allocator@D@2@@std@@@2@@std@@KAXXZ
_TEXT	SEGMENT
$T232939 = -80						; size = 28
$T232938 = -52						; size = 40
__$EHRec$ = -12						; size = 12
?_Xlen@?$vector@V?$basic_string@DU?$char_traits@D@std@@V?$allocator@D@2@@std@@V?$allocator@V?$basic_string@DU?$char_traits@D@std@@V?$allocator@D@2@@std@@@2@@std@@KAXXZ PROC ; std::vector<std::basic_string<char,std::char_traits<char>,std::allocator<char> >,std::allocator<std::basic_string<char,std::char_traits<char>,std::allocator<char> > > >::_Xlen, COMDAT

; 1259 : 		{	// report a length_error

	push	-1
	push	__ehhandler$?_Xlen@?$vector@V?$basic_string@DU?$char_traits@D@std@@V?$allocator@D@2@@std@@V?$allocator@V?$basic_string@DU?$char_traits@D@std@@V?$allocator@D@2@@std@@@2@@std@@KAXXZ
	mov	eax, DWORD PTR fs:0
	push	eax
	mov	DWORD PTR fs:0, esp
	sub	esp, 68					; 00000044H

; 1260 : 		_THROW(length_error, "vector<T> too long");

	push	OFFSET ??_C@_0BD@OLBABOEK@vector?$DMT?$DO?5too?5long?$AA@
	lea	ecx, DWORD PTR $T232939[esp+84]
	call	DWORD PTR __imp_??0?$basic_string@DU?$char_traits@D@std@@V?$allocator@D@2@@std@@QAE@PBD@Z
	lea	ecx, DWORD PTR $T232938[esp+80]
	mov	DWORD PTR __$EHRec$[esp+88], 0
	call	DWORD PTR __imp_??0exception@std@@QAE@XZ
	lea	eax, DWORD PTR $T232939[esp+80]
	push	eax
	lea	ecx, DWORD PTR $T232938[esp+96]
	mov	BYTE PTR __$EHRec$[esp+92], 1
	mov	DWORD PTR $T232938[esp+84], OFFSET ??_7logic_error@std@@6B@
	call	DWORD PTR __imp_??0?$basic_string@DU?$char_traits@D@std@@V?$allocator@D@2@@std@@QAE@ABV01@@Z
	push	OFFSET __TI3?AVlength_error@std@@
	lea	ecx, DWORD PTR $T232938[esp+84]
	push	ecx
	mov	BYTE PTR __$EHRec$[esp+96], 0
	mov	DWORD PTR $T232938[esp+88], OFFSET ??_7length_error@std@@6B@
	call	__CxxThrowException@8
$LN13@Xlen@3:
$LN12@Xlen@3:
	int	3
_TEXT	ENDS
;	COMDAT text$x
text$x	SEGMENT
__unwindfunclet$?_Xlen@?$vector@V?$basic_string@DU?$char_traits@D@std@@V?$allocator@D@2@@std@@V?$allocator@V?$basic_string@DU?$char_traits@D@std@@V?$allocator@D@2@@std@@@2@@std@@KAXXZ$0:
	lea	ecx, DWORD PTR $T232939[ebp]
	jmp	DWORD PTR __imp_??1?$basic_string@DU?$char_traits@D@std@@V?$allocator@D@2@@std@@QAE@XZ
__unwindfunclet$?_Xlen@?$vector@V?$basic_string@DU?$char_traits@D@std@@V?$allocator@D@2@@std@@V?$allocator@V?$basic_string@DU?$char_traits@D@std@@V?$allocator@D@2@@std@@@2@@std@@KAXXZ$2:
	lea	ecx, DWORD PTR $T232938[ebp]
	jmp	DWORD PTR __imp_??1exception@std@@UAE@XZ
__ehhandler$?_Xlen@?$vector@V?$basic_string@DU?$char_traits@D@std@@V?$allocator@D@2@@std@@V?$allocator@V?$basic_string@DU?$char_traits@D@std@@V?$allocator@D@2@@std@@@2@@std@@KAXXZ:
	mov	eax, OFFSET __ehfuncinfo$?_Xlen@?$vector@V?$basic_string@DU?$char_traits@D@std@@V?$allocator@D@2@@std@@V?$allocator@V?$basic_string@DU?$char_traits@D@std@@V?$allocator@D@2@@std@@@2@@std@@KAXXZ
	jmp	___CxxFrameHandler3
text$x	ENDS
?_Xlen@?$vector@V?$basic_string@DU?$char_traits@D@std@@V?$allocator@D@2@@std@@V?$allocator@V?$basic_string@DU?$char_traits@D@std@@V?$allocator@D@2@@std@@@2@@std@@KAXXZ ENDP ; std::vector<std::basic_string<char,std::char_traits<char>,std::allocator<char> >,std::allocator<std::basic_string<char,std::char_traits<char>,std::allocator<char> > > >::_Xlen
PUBLIC	??0?$_Container_base_aux_alloc_empty@V?$allocator@VCvReplayMessage@@@std@@@std@@IAE@V?$allocator@VCvReplayMessage@@@1@@Z ; std::_Container_base_aux_alloc_empty<std::allocator<CvReplayMessage> >::_Container_base_aux_alloc_empty<std::allocator<CvReplayMessage> >
; Function compile flags: /Ogtpy
; File c:\program files (x86)\microsoft visual studio 9.0\vc\include\xutility
;	COMDAT ??0?$_Container_base_aux_alloc_empty@V?$allocator@VCvReplayMessage@@@std@@@std@@IAE@V?$allocator@VCvReplayMessage@@@1@@Z
_TEXT	SEGMENT
___formal$ = 8						; size = 1
??0?$_Container_base_aux_alloc_empty@V?$allocator@VCvReplayMessage@@@std@@@std@@IAE@V?$allocator@VCvReplayMessage@@@1@@Z PROC ; std::_Container_base_aux_alloc_empty<std::allocator<CvReplayMessage> >::_Container_base_aux_alloc_empty<std::allocator<CvReplayMessage> >, COMDAT
; _this$ = ecx

; 618  : 	explicit _Container_base_aux_alloc_empty(_Alloc) { }

	mov	eax, ecx
	ret	4
??0?$_Container_base_aux_alloc_empty@V?$allocator@VCvReplayMessage@@@std@@@std@@IAE@V?$allocator@VCvReplayMessage@@@1@@Z ENDP ; std::_Container_base_aux_alloc_empty<std::allocator<CvReplayMessage> >::_Container_base_aux_alloc_empty<std::allocator<CvReplayMessage> >
_TEXT	ENDS
PUBLIC	??0?$allocator@VCvReplayMessage@@@std@@QAE@ABV01@@Z ; std::allocator<CvReplayMessage>::allocator<CvReplayMessage>
; Function compile flags: /Ogtpy
; File c:\program files (x86)\microsoft visual studio 9.0\vc\include\xmemory
;	COMDAT ??0?$allocator@VCvReplayMessage@@@std@@QAE@ABV01@@Z
_TEXT	SEGMENT
___formal$ = 8						; size = 4
??0?$allocator@VCvReplayMessage@@@std@@QAE@ABV01@@Z PROC ; std::allocator<CvReplayMessage>::allocator<CvReplayMessage>, COMDAT
; _this$ = ecx

; 123  : 	allocator(const allocator<_Ty>&) _THROW0()

	mov	eax, ecx

; 124  : 		{	// construct by copying (do nothing)
; 125  : 		}

	ret	4
??0?$allocator@VCvReplayMessage@@@std@@QAE@ABV01@@Z ENDP ; std::allocator<CvReplayMessage>::allocator<CvReplayMessage>
_TEXT	ENDS
PUBLIC	?max_size@?$allocator@VCvReplayMessage@@@std@@QBEIXZ ; std::allocator<CvReplayMessage>::max_size
; Function compile flags: /Ogtpy
;	COMDAT ?max_size@?$allocator@VCvReplayMessage@@@std@@QBEIXZ
_TEXT	SEGMENT
?max_size@?$allocator@VCvReplayMessage@@@std@@QBEIXZ PROC ; std::allocator<CvReplayMessage>::max_size, COMDAT
; _this$ = ecx

; 165  : 		_SIZT _Count = (_SIZT)(-1) / sizeof (_Ty);
; 166  : 		return (0 < _Count ? _Count : 1);

	mov	eax, 71582788				; 04444444H

; 167  : 		}

	ret	0
?max_size@?$allocator@VCvReplayMessage@@@std@@QBEIXZ ENDP ; std::allocator<CvReplayMessage>::max_size
_TEXT	ENDS
PUBLIC	??0?$_Container_base_aux_alloc_empty@V?$allocator@V?$map@IHU?$less@I@std@@V?$allocator@U?$pair@$$CBIH@std@@@2@@std@@@std@@@std@@IAE@V?$allocator@V?$map@IHU?$less@I@std@@V?$allocator@U?$pair@$$CBIH@std@@@2@@std@@@1@@Z ; std::_Container_base_aux_alloc_empty<std::allocator<std::map<unsigned int,int,std::less<unsigned int>,std::allocator<std::pair<unsigned int const ,int> > > > >::_Container_base_aux_alloc_empty<std::allocator<std::map<unsigned int,int,std::less<unsigned int>,std::allocator<std::pair<unsigned int const ,int> > > > >
; Function compile flags: /Ogtpy
; File c:\program files (x86)\microsoft visual studio 9.0\vc\include\xutility
;	COMDAT ??0?$_Container_base_aux_alloc_empty@V?$allocator@V?$map@IHU?$less@I@std@@V?$allocator@U?$pair@$$CBIH@std@@@2@@std@@@std@@@std@@IAE@V?$allocator@V?$map@IHU?$less@I@std@@V?$allocator@U?$pair@$$CBIH@std@@@2@@std@@@1@@Z
_TEXT	SEGMENT
___formal$ = 8						; size = 1
??0?$_Container_base_aux_alloc_empty@V?$allocator@V?$map@IHU?$less@I@std@@V?$allocator@U?$pair@$$CBIH@std@@@2@@std@@@std@@@std@@IAE@V?$allocator@V?$map@IHU?$less@I@std@@V?$allocator@U?$pair@$$CBIH@std@@@2@@std@@@1@@Z PROC ; std::_Container_base_aux_alloc_empty<std::allocator<std::map<unsigned int,int,std::less<unsigned int>,std::allocator<std::pair<unsigned int const ,int> > > > >::_Container_base_aux_alloc_empty<std::allocator<std::map<unsigned int,int,std::less<unsigned int>,std::allocator<std::pair<unsigned int const ,int> > > > >, COMDAT
; _this$ = ecx

; 618  : 	explicit _Container_base_aux_alloc_empty(_Alloc) { }

	mov	eax, ecx
	ret	4
??0?$_Container_base_aux_alloc_empty@V?$allocator@V?$map@IHU?$less@I@std@@V?$allocator@U?$pair@$$CBIH@std@@@2@@std@@@std@@@std@@IAE@V?$allocator@V?$map@IHU?$less@I@std@@V?$allocator@U?$pair@$$CBIH@std@@@2@@std@@@1@@Z ENDP ; std::_Container_base_aux_alloc_empty<std::allocator<std::map<unsigned int,int,std::less<unsigned int>,std::allocator<std::pair<unsigned int const ,int> > > > >::_Container_base_aux_alloc_empty<std::allocator<std::map<unsigned int,int,std::less<unsigned int>,std::allocator<std::pair<unsigned int const ,int> > > > >
_TEXT	ENDS
PUBLIC	??0?$allocator@V?$map@IHU?$less@I@std@@V?$allocator@U?$pair@$$CBIH@std@@@2@@std@@@std@@QAE@ABV01@@Z ; std::allocator<std::map<unsigned int,int,std::less<unsigned int>,std::allocator<std::pair<unsigned int const ,int> > > >::allocator<std::map<unsigned int,int,std::less<unsigned int>,std::allocator<std::pair<unsigned int const ,int> > > >
; Function compile flags: /Ogtpy
; File c:\program files (x86)\microsoft visual studio 9.0\vc\include\xmemory
;	COMDAT ??0?$allocator@V?$map@IHU?$less@I@std@@V?$allocator@U?$pair@$$CBIH@std@@@2@@std@@@std@@QAE@ABV01@@Z
_TEXT	SEGMENT
___formal$ = 8						; size = 4
??0?$allocator@V?$map@IHU?$less@I@std@@V?$allocator@U?$pair@$$CBIH@std@@@2@@std@@@std@@QAE@ABV01@@Z PROC ; std::allocator<std::map<unsigned int,int,std::less<unsigned int>,std::allocator<std::pair<unsigned int const ,int> > > >::allocator<std::map<unsigned int,int,std::less<unsigned int>,std::allocator<std::pair<unsigned int const ,int> > > >, COMDAT
; _this$ = ecx

; 123  : 	allocator(const allocator<_Ty>&) _THROW0()

	mov	eax, ecx

; 124  : 		{	// construct by copying (do nothing)
; 125  : 		}

	ret	4
??0?$allocator@V?$map@IHU?$less@I@std@@V?$allocator@U?$pair@$$CBIH@std@@@2@@std@@@std@@QAE@ABV01@@Z ENDP ; std::allocator<std::map<unsigned int,int,std::less<unsigned int>,std::allocator<std::pair<unsigned int const ,int> > > >::allocator<std::map<unsigned int,int,std::less<unsigned int>,std::allocator<std::pair<unsigned int const ,int> > > >
_TEXT	ENDS
PUBLIC	?deallocate@?$allocator@V?$map@IHU?$less@I@std@@V?$allocator@U?$pair@$$CBIH@std@@@2@@std@@@std@@QAEXPAV?$map@IHU?$less@I@std@@V?$allocator@U?$pair@$$CBIH@std@@@2@@2@I@Z ; std::allocator<std::map<unsigned int,int,std::less<unsigned int>,std::allocator<std::pair<unsigned int const ,int> > > >::deallocate
; Function compile flags: /Ogtpy
;	COMDAT ?deallocate@?$allocator@V?$map@IHU?$less@I@std@@V?$allocator@U?$pair@$$CBIH@std@@@2@@std@@@std@@QAEXPAV?$map@IHU?$less@I@std@@V?$allocator@U?$pair@$$CBIH@std@@@2@@2@I@Z
_TEXT	SEGMENT
__Ptr$ = 8						; size = 4
___formal$ = 12						; size = 4
?deallocate@?$allocator@V?$map@IHU?$less@I@std@@V?$allocator@U?$pair@$$CBIH@std@@@2@@std@@@std@@QAEXPAV?$map@IHU?$less@I@std@@V?$allocator@U?$pair@$$CBIH@std@@@2@@2@I@Z PROC ; std::allocator<std::map<unsigned int,int,std::less<unsigned int>,std::allocator<std::pair<unsigned int const ,int> > > >::deallocate, COMDAT
; _this$ = ecx

; 140  : 		::operator delete(_Ptr);

	mov	eax, DWORD PTR __Ptr$[esp-4]
	push	eax
	call	??3@YAXPAX@Z				; operator delete
	pop	ecx

; 141  : 		}

	ret	8
?deallocate@?$allocator@V?$map@IHU?$less@I@std@@V?$allocator@U?$pair@$$CBIH@std@@@2@@std@@@std@@QAEXPAV?$map@IHU?$less@I@std@@V?$allocator@U?$pair@$$CBIH@std@@@2@@2@I@Z ENDP ; std::allocator<std::map<unsigned int,int,std::less<unsigned int>,std::allocator<std::pair<unsigned int const ,int> > > >::deallocate
_TEXT	ENDS
PUBLIC	??0?$allocator@U?$pair@$$CBHH@std@@@std@@QAE@ABV01@@Z ; std::allocator<std::pair<int const ,int> >::allocator<std::pair<int const ,int> >
; Function compile flags: /Ogtpy
;	COMDAT ??0?$allocator@U?$pair@$$CBHH@std@@@std@@QAE@ABV01@@Z
_TEXT	SEGMENT
___formal$ = 8						; size = 4
??0?$allocator@U?$pair@$$CBHH@std@@@std@@QAE@ABV01@@Z PROC ; std::allocator<std::pair<int const ,int> >::allocator<std::pair<int const ,int> >, COMDAT
; _this$ = ecx

; 123  : 	allocator(const allocator<_Ty>&) _THROW0()

	mov	eax, ecx

; 124  : 		{	// construct by copying (do nothing)
; 125  : 		}

	ret	4
??0?$allocator@U?$pair@$$CBHH@std@@@std@@QAE@ABV01@@Z ENDP ; std::allocator<std::pair<int const ,int> >::allocator<std::pair<int const ,int> >
_TEXT	ENDS
PUBLIC	?_Xlen@?$vector@W4GameOptionTypes@@V?$allocator@W4GameOptionTypes@@@std@@@std@@KAXXZ ; std::vector<enum GameOptionTypes,std::allocator<enum GameOptionTypes> >::_Xlen
;	COMDAT xdata$x
; File c:\program files (x86)\microsoft visual studio 9.0\vc\include\stdexcept
xdata$x	SEGMENT
__unwindtable$?_Xlen@?$vector@W4GameOptionTypes@@V?$allocator@W4GameOptionTypes@@@std@@@std@@KAXXZ DD 0ffffffffH
	DD	FLAT:__unwindfunclet$?_Xlen@?$vector@W4GameOptionTypes@@V?$allocator@W4GameOptionTypes@@@std@@@std@@KAXXZ$0
	DD	00H
	DD	FLAT:__unwindfunclet$?_Xlen@?$vector@W4GameOptionTypes@@V?$allocator@W4GameOptionTypes@@@std@@@std@@KAXXZ$2
__ehfuncinfo$?_Xlen@?$vector@W4GameOptionTypes@@V?$allocator@W4GameOptionTypes@@@std@@@std@@KAXXZ DD 019930522H
	DD	02H
	DD	FLAT:__unwindtable$?_Xlen@?$vector@W4GameOptionTypes@@V?$allocator@W4GameOptionTypes@@@std@@@std@@KAXXZ
	DD	2 DUP(00H)
	DD	2 DUP(00H)
	DD	00H
	DD	01H
; Function compile flags: /Ogtpy
; File c:\program files (x86)\microsoft visual studio 9.0\vc\include\vector
xdata$x	ENDS
;	COMDAT ?_Xlen@?$vector@W4GameOptionTypes@@V?$allocator@W4GameOptionTypes@@@std@@@std@@KAXXZ
_TEXT	SEGMENT
$T232987 = -80						; size = 28
$T232986 = -52						; size = 40
__$EHRec$ = -12						; size = 12
?_Xlen@?$vector@W4GameOptionTypes@@V?$allocator@W4GameOptionTypes@@@std@@@std@@KAXXZ PROC ; std::vector<enum GameOptionTypes,std::allocator<enum GameOptionTypes> >::_Xlen, COMDAT

; 1259 : 		{	// report a length_error

	push	-1
	push	__ehhandler$?_Xlen@?$vector@W4GameOptionTypes@@V?$allocator@W4GameOptionTypes@@@std@@@std@@KAXXZ
	mov	eax, DWORD PTR fs:0
	push	eax
	mov	DWORD PTR fs:0, esp
	sub	esp, 68					; 00000044H

; 1260 : 		_THROW(length_error, "vector<T> too long");

	push	OFFSET ??_C@_0BD@OLBABOEK@vector?$DMT?$DO?5too?5long?$AA@
	lea	ecx, DWORD PTR $T232987[esp+84]
	call	DWORD PTR __imp_??0?$basic_string@DU?$char_traits@D@std@@V?$allocator@D@2@@std@@QAE@PBD@Z
	lea	ecx, DWORD PTR $T232986[esp+80]
	mov	DWORD PTR __$EHRec$[esp+88], 0
	call	DWORD PTR __imp_??0exception@std@@QAE@XZ
	lea	eax, DWORD PTR $T232987[esp+80]
	push	eax
	lea	ecx, DWORD PTR $T232986[esp+96]
	mov	BYTE PTR __$EHRec$[esp+92], 1
	mov	DWORD PTR $T232986[esp+84], OFFSET ??_7logic_error@std@@6B@
	call	DWORD PTR __imp_??0?$basic_string@DU?$char_traits@D@std@@V?$allocator@D@2@@std@@QAE@ABV01@@Z
	push	OFFSET __TI3?AVlength_error@std@@
	lea	ecx, DWORD PTR $T232986[esp+84]
	push	ecx
	mov	BYTE PTR __$EHRec$[esp+96], 0
	mov	DWORD PTR $T232986[esp+88], OFFSET ??_7length_error@std@@6B@
	call	__CxxThrowException@8
$LN13@Xlen@4:
$LN12@Xlen@4:
	int	3
_TEXT	ENDS
;	COMDAT text$x
text$x	SEGMENT
__unwindfunclet$?_Xlen@?$vector@W4GameOptionTypes@@V?$allocator@W4GameOptionTypes@@@std@@@std@@KAXXZ$0:
	lea	ecx, DWORD PTR $T232987[ebp]
	jmp	DWORD PTR __imp_??1?$basic_string@DU?$char_traits@D@std@@V?$allocator@D@2@@std@@QAE@XZ
__unwindfunclet$?_Xlen@?$vector@W4GameOptionTypes@@V?$allocator@W4GameOptionTypes@@@std@@@std@@KAXXZ$2:
	lea	ecx, DWORD PTR $T232986[ebp]
	jmp	DWORD PTR __imp_??1exception@std@@UAE@XZ
__ehhandler$?_Xlen@?$vector@W4GameOptionTypes@@V?$allocator@W4GameOptionTypes@@@std@@@std@@KAXXZ:
	mov	eax, OFFSET __ehfuncinfo$?_Xlen@?$vector@W4GameOptionTypes@@V?$allocator@W4GameOptionTypes@@@std@@@std@@KAXXZ
	jmp	___CxxFrameHandler3
text$x	ENDS
?_Xlen@?$vector@W4GameOptionTypes@@V?$allocator@W4GameOptionTypes@@@std@@@std@@KAXXZ ENDP ; std::vector<enum GameOptionTypes,std::allocator<enum GameOptionTypes> >::_Xlen
PUBLIC	??0?$_Container_base_aux_alloc_empty@V?$allocator@W4GameOptionTypes@@@std@@@std@@IAE@V?$allocator@W4GameOptionTypes@@@1@@Z ; std::_Container_base_aux_alloc_empty<std::allocator<enum GameOptionTypes> >::_Container_base_aux_alloc_empty<std::allocator<enum GameOptionTypes> >
; Function compile flags: /Ogtpy
; File c:\program files (x86)\microsoft visual studio 9.0\vc\include\xutility
;	COMDAT ??0?$_Container_base_aux_alloc_empty@V?$allocator@W4GameOptionTypes@@@std@@@std@@IAE@V?$allocator@W4GameOptionTypes@@@1@@Z
_TEXT	SEGMENT
___formal$ = 8						; size = 1
??0?$_Container_base_aux_alloc_empty@V?$allocator@W4GameOptionTypes@@@std@@@std@@IAE@V?$allocator@W4GameOptionTypes@@@1@@Z PROC ; std::_Container_base_aux_alloc_empty<std::allocator<enum GameOptionTypes> >::_Container_base_aux_alloc_empty<std::allocator<enum GameOptionTypes> >, COMDAT
; _this$ = ecx

; 618  : 	explicit _Container_base_aux_alloc_empty(_Alloc) { }

	mov	eax, ecx
	ret	4
??0?$_Container_base_aux_alloc_empty@V?$allocator@W4GameOptionTypes@@@std@@@std@@IAE@V?$allocator@W4GameOptionTypes@@@1@@Z ENDP ; std::_Container_base_aux_alloc_empty<std::allocator<enum GameOptionTypes> >::_Container_base_aux_alloc_empty<std::allocator<enum GameOptionTypes> >
_TEXT	ENDS
PUBLIC	??0?$allocator@W4GameOptionTypes@@@std@@QAE@ABV01@@Z ; std::allocator<enum GameOptionTypes>::allocator<enum GameOptionTypes>
; Function compile flags: /Ogtpy
; File c:\program files (x86)\microsoft visual studio 9.0\vc\include\xmemory
;	COMDAT ??0?$allocator@W4GameOptionTypes@@@std@@QAE@ABV01@@Z
_TEXT	SEGMENT
___formal$ = 8						; size = 4
??0?$allocator@W4GameOptionTypes@@@std@@QAE@ABV01@@Z PROC ; std::allocator<enum GameOptionTypes>::allocator<enum GameOptionTypes>, COMDAT
; _this$ = ecx

; 123  : 	allocator(const allocator<_Ty>&) _THROW0()

	mov	eax, ecx

; 124  : 		{	// construct by copying (do nothing)
; 125  : 		}

	ret	4
??0?$allocator@W4GameOptionTypes@@@std@@QAE@ABV01@@Z ENDP ; std::allocator<enum GameOptionTypes>::allocator<enum GameOptionTypes>
_TEXT	ENDS
PUBLIC	?deallocate@?$allocator@W4GameOptionTypes@@@std@@QAEXPAW4GameOptionTypes@@I@Z ; std::allocator<enum GameOptionTypes>::deallocate
; Function compile flags: /Ogtpy
;	COMDAT ?deallocate@?$allocator@W4GameOptionTypes@@@std@@QAEXPAW4GameOptionTypes@@I@Z
_TEXT	SEGMENT
__Ptr$ = 8						; size = 4
___formal$ = 12						; size = 4
?deallocate@?$allocator@W4GameOptionTypes@@@std@@QAEXPAW4GameOptionTypes@@I@Z PROC ; std::allocator<enum GameOptionTypes>::deallocate, COMDAT
; _this$ = ecx

; 140  : 		::operator delete(_Ptr);

	mov	eax, DWORD PTR __Ptr$[esp-4]
	push	eax
	call	??3@YAXPAX@Z				; operator delete
	pop	ecx

; 141  : 		}

	ret	8
?deallocate@?$allocator@W4GameOptionTypes@@@std@@QAEXPAW4GameOptionTypes@@I@Z ENDP ; std::allocator<enum GameOptionTypes>::deallocate
_TEXT	ENDS
PUBLIC	?_Xlen@?$vector@W4VictoryTypes@@V?$allocator@W4VictoryTypes@@@std@@@std@@KAXXZ ; std::vector<enum VictoryTypes,std::allocator<enum VictoryTypes> >::_Xlen
;	COMDAT xdata$x
; File c:\program files (x86)\microsoft visual studio 9.0\vc\include\stdexcept
xdata$x	SEGMENT
__unwindtable$?_Xlen@?$vector@W4VictoryTypes@@V?$allocator@W4VictoryTypes@@@std@@@std@@KAXXZ DD 0ffffffffH
	DD	FLAT:__unwindfunclet$?_Xlen@?$vector@W4VictoryTypes@@V?$allocator@W4VictoryTypes@@@std@@@std@@KAXXZ$0
	DD	00H
	DD	FLAT:__unwindfunclet$?_Xlen@?$vector@W4VictoryTypes@@V?$allocator@W4VictoryTypes@@@std@@@std@@KAXXZ$2
__ehfuncinfo$?_Xlen@?$vector@W4VictoryTypes@@V?$allocator@W4VictoryTypes@@@std@@@std@@KAXXZ DD 019930522H
	DD	02H
	DD	FLAT:__unwindtable$?_Xlen@?$vector@W4VictoryTypes@@V?$allocator@W4VictoryTypes@@@std@@@std@@KAXXZ
	DD	2 DUP(00H)
	DD	2 DUP(00H)
	DD	00H
	DD	01H
; Function compile flags: /Ogtpy
; File c:\program files (x86)\microsoft visual studio 9.0\vc\include\vector
xdata$x	ENDS
;	COMDAT ?_Xlen@?$vector@W4VictoryTypes@@V?$allocator@W4VictoryTypes@@@std@@@std@@KAXXZ
_TEXT	SEGMENT
$T233021 = -80						; size = 28
$T233020 = -52						; size = 40
__$EHRec$ = -12						; size = 12
?_Xlen@?$vector@W4VictoryTypes@@V?$allocator@W4VictoryTypes@@@std@@@std@@KAXXZ PROC ; std::vector<enum VictoryTypes,std::allocator<enum VictoryTypes> >::_Xlen, COMDAT

; 1259 : 		{	// report a length_error

	push	-1
	push	__ehhandler$?_Xlen@?$vector@W4VictoryTypes@@V?$allocator@W4VictoryTypes@@@std@@@std@@KAXXZ
	mov	eax, DWORD PTR fs:0
	push	eax
	mov	DWORD PTR fs:0, esp
	sub	esp, 68					; 00000044H

; 1260 : 		_THROW(length_error, "vector<T> too long");

	push	OFFSET ??_C@_0BD@OLBABOEK@vector?$DMT?$DO?5too?5long?$AA@
	lea	ecx, DWORD PTR $T233021[esp+84]
	call	DWORD PTR __imp_??0?$basic_string@DU?$char_traits@D@std@@V?$allocator@D@2@@std@@QAE@PBD@Z
	lea	ecx, DWORD PTR $T233020[esp+80]
	mov	DWORD PTR __$EHRec$[esp+88], 0
	call	DWORD PTR __imp_??0exception@std@@QAE@XZ
	lea	eax, DWORD PTR $T233021[esp+80]
	push	eax
	lea	ecx, DWORD PTR $T233020[esp+96]
	mov	BYTE PTR __$EHRec$[esp+92], 1
	mov	DWORD PTR $T233020[esp+84], OFFSET ??_7logic_error@std@@6B@
	call	DWORD PTR __imp_??0?$basic_string@DU?$char_traits@D@std@@V?$allocator@D@2@@std@@QAE@ABV01@@Z
	push	OFFSET __TI3?AVlength_error@std@@
	lea	ecx, DWORD PTR $T233020[esp+84]
	push	ecx
	mov	BYTE PTR __$EHRec$[esp+96], 0
	mov	DWORD PTR $T233020[esp+88], OFFSET ??_7length_error@std@@6B@
	call	__CxxThrowException@8
$LN13@Xlen@5:
$LN12@Xlen@5:
	int	3
_TEXT	ENDS
;	COMDAT text$x
text$x	SEGMENT
__unwindfunclet$?_Xlen@?$vector@W4VictoryTypes@@V?$allocator@W4VictoryTypes@@@std@@@std@@KAXXZ$0:
	lea	ecx, DWORD PTR $T233021[ebp]
	jmp	DWORD PTR __imp_??1?$basic_string@DU?$char_traits@D@std@@V?$allocator@D@2@@std@@QAE@XZ
__unwindfunclet$?_Xlen@?$vector@W4VictoryTypes@@V?$allocator@W4VictoryTypes@@@std@@@std@@KAXXZ$2:
	lea	ecx, DWORD PTR $T233020[ebp]
	jmp	DWORD PTR __imp_??1exception@std@@UAE@XZ
__ehhandler$?_Xlen@?$vector@W4VictoryTypes@@V?$allocator@W4VictoryTypes@@@std@@@std@@KAXXZ:
	mov	eax, OFFSET __ehfuncinfo$?_Xlen@?$vector@W4VictoryTypes@@V?$allocator@W4VictoryTypes@@@std@@@std@@KAXXZ
	jmp	___CxxFrameHandler3
text$x	ENDS
?_Xlen@?$vector@W4VictoryTypes@@V?$allocator@W4VictoryTypes@@@std@@@std@@KAXXZ ENDP ; std::vector<enum VictoryTypes,std::allocator<enum VictoryTypes> >::_Xlen
PUBLIC	??0?$_Container_base_aux_alloc_empty@V?$allocator@W4VictoryTypes@@@std@@@std@@IAE@V?$allocator@W4VictoryTypes@@@1@@Z ; std::_Container_base_aux_alloc_empty<std::allocator<enum VictoryTypes> >::_Container_base_aux_alloc_empty<std::allocator<enum VictoryTypes> >
; Function compile flags: /Ogtpy
; File c:\program files (x86)\microsoft visual studio 9.0\vc\include\xutility
;	COMDAT ??0?$_Container_base_aux_alloc_empty@V?$allocator@W4VictoryTypes@@@std@@@std@@IAE@V?$allocator@W4VictoryTypes@@@1@@Z
_TEXT	SEGMENT
___formal$ = 8						; size = 1
??0?$_Container_base_aux_alloc_empty@V?$allocator@W4VictoryTypes@@@std@@@std@@IAE@V?$allocator@W4VictoryTypes@@@1@@Z PROC ; std::_Container_base_aux_alloc_empty<std::allocator<enum VictoryTypes> >::_Container_base_aux_alloc_empty<std::allocator<enum VictoryTypes> >, COMDAT
; _this$ = ecx

; 618  : 	explicit _Container_base_aux_alloc_empty(_Alloc) { }

	mov	eax, ecx
	ret	4
??0?$_Container_base_aux_alloc_empty@V?$allocator@W4VictoryTypes@@@std@@@std@@IAE@V?$allocator@W4VictoryTypes@@@1@@Z ENDP ; std::_Container_base_aux_alloc_empty<std::allocator<enum VictoryTypes> >::_Container_base_aux_alloc_empty<std::allocator<enum VictoryTypes> >
_TEXT	ENDS
PUBLIC	??0?$allocator@W4VictoryTypes@@@std@@QAE@ABV01@@Z ; std::allocator<enum VictoryTypes>::allocator<enum VictoryTypes>
; Function compile flags: /Ogtpy
; File c:\program files (x86)\microsoft visual studio 9.0\vc\include\xmemory
;	COMDAT ??0?$allocator@W4VictoryTypes@@@std@@QAE@ABV01@@Z
_TEXT	SEGMENT
___formal$ = 8						; size = 4
??0?$allocator@W4VictoryTypes@@@std@@QAE@ABV01@@Z PROC	; std::allocator<enum VictoryTypes>::allocator<enum VictoryTypes>, COMDAT
; _this$ = ecx

; 123  : 	allocator(const allocator<_Ty>&) _THROW0()

	mov	eax, ecx

; 124  : 		{	// construct by copying (do nothing)
; 125  : 		}

	ret	4
??0?$allocator@W4VictoryTypes@@@std@@QAE@ABV01@@Z ENDP	; std::allocator<enum VictoryTypes>::allocator<enum VictoryTypes>
_TEXT	ENDS
PUBLIC	?deallocate@?$allocator@W4VictoryTypes@@@std@@QAEXPAW4VictoryTypes@@I@Z ; std::allocator<enum VictoryTypes>::deallocate
; Function compile flags: /Ogtpy
;	COMDAT ?deallocate@?$allocator@W4VictoryTypes@@@std@@QAEXPAW4VictoryTypes@@I@Z
_TEXT	SEGMENT
__Ptr$ = 8						; size = 4
___formal$ = 12						; size = 4
?deallocate@?$allocator@W4VictoryTypes@@@std@@QAEXPAW4VictoryTypes@@I@Z PROC ; std::allocator<enum VictoryTypes>::deallocate, COMDAT
; _this$ = ecx

; 140  : 		::operator delete(_Ptr);

	mov	eax, DWORD PTR __Ptr$[esp-4]
	push	eax
	call	??3@YAXPAX@Z				; operator delete
	pop	ecx

; 141  : 		}

	ret	8
?deallocate@?$allocator@W4VictoryTypes@@@std@@QAEXPAW4VictoryTypes@@I@Z ENDP ; std::allocator<enum VictoryTypes>::deallocate
_TEXT	ENDS
PUBLIC	?_Xlen@?$vector@UPlayerInfo@CvReplayInfo@@V?$allocator@UPlayerInfo@CvReplayInfo@@@std@@@std@@KAXXZ ; std::vector<CvReplayInfo::PlayerInfo,std::allocator<CvReplayInfo::PlayerInfo> >::_Xlen
;	COMDAT xdata$x
; File c:\program files (x86)\microsoft visual studio 9.0\vc\include\stdexcept
xdata$x	SEGMENT
__unwindtable$?_Xlen@?$vector@UPlayerInfo@CvReplayInfo@@V?$allocator@UPlayerInfo@CvReplayInfo@@@std@@@std@@KAXXZ DD 0ffffffffH
	DD	FLAT:__unwindfunclet$?_Xlen@?$vector@UPlayerInfo@CvReplayInfo@@V?$allocator@UPlayerInfo@CvReplayInfo@@@std@@@std@@KAXXZ$0
	DD	00H
	DD	FLAT:__unwindfunclet$?_Xlen@?$vector@UPlayerInfo@CvReplayInfo@@V?$allocator@UPlayerInfo@CvReplayInfo@@@std@@@std@@KAXXZ$2
__ehfuncinfo$?_Xlen@?$vector@UPlayerInfo@CvReplayInfo@@V?$allocator@UPlayerInfo@CvReplayInfo@@@std@@@std@@KAXXZ DD 019930522H
	DD	02H
	DD	FLAT:__unwindtable$?_Xlen@?$vector@UPlayerInfo@CvReplayInfo@@V?$allocator@UPlayerInfo@CvReplayInfo@@@std@@@std@@KAXXZ
	DD	2 DUP(00H)
	DD	2 DUP(00H)
	DD	00H
	DD	01H
; Function compile flags: /Ogtpy
; File c:\program files (x86)\microsoft visual studio 9.0\vc\include\vector
xdata$x	ENDS
;	COMDAT ?_Xlen@?$vector@UPlayerInfo@CvReplayInfo@@V?$allocator@UPlayerInfo@CvReplayInfo@@@std@@@std@@KAXXZ
_TEXT	SEGMENT
$T233055 = -80						; size = 28
$T233054 = -52						; size = 40
__$EHRec$ = -12						; size = 12
?_Xlen@?$vector@UPlayerInfo@CvReplayInfo@@V?$allocator@UPlayerInfo@CvReplayInfo@@@std@@@std@@KAXXZ PROC ; std::vector<CvReplayInfo::PlayerInfo,std::allocator<CvReplayInfo::PlayerInfo> >::_Xlen, COMDAT

; 1259 : 		{	// report a length_error

	push	-1
	push	__ehhandler$?_Xlen@?$vector@UPlayerInfo@CvReplayInfo@@V?$allocator@UPlayerInfo@CvReplayInfo@@@std@@@std@@KAXXZ
	mov	eax, DWORD PTR fs:0
	push	eax
	mov	DWORD PTR fs:0, esp
	sub	esp, 68					; 00000044H

; 1260 : 		_THROW(length_error, "vector<T> too long");

	push	OFFSET ??_C@_0BD@OLBABOEK@vector?$DMT?$DO?5too?5long?$AA@
	lea	ecx, DWORD PTR $T233055[esp+84]
	call	DWORD PTR __imp_??0?$basic_string@DU?$char_traits@D@std@@V?$allocator@D@2@@std@@QAE@PBD@Z
	lea	ecx, DWORD PTR $T233054[esp+80]
	mov	DWORD PTR __$EHRec$[esp+88], 0
	call	DWORD PTR __imp_??0exception@std@@QAE@XZ
	lea	eax, DWORD PTR $T233055[esp+80]
	push	eax
	lea	ecx, DWORD PTR $T233054[esp+96]
	mov	BYTE PTR __$EHRec$[esp+92], 1
	mov	DWORD PTR $T233054[esp+84], OFFSET ??_7logic_error@std@@6B@
	call	DWORD PTR __imp_??0?$basic_string@DU?$char_traits@D@std@@V?$allocator@D@2@@std@@QAE@ABV01@@Z
	push	OFFSET __TI3?AVlength_error@std@@
	lea	ecx, DWORD PTR $T233054[esp+84]
	push	ecx
	mov	BYTE PTR __$EHRec$[esp+96], 0
	mov	DWORD PTR $T233054[esp+88], OFFSET ??_7length_error@std@@6B@
	call	__CxxThrowException@8
$LN13@Xlen@6:
$LN12@Xlen@6:
	int	3
_TEXT	ENDS
;	COMDAT text$x
text$x	SEGMENT
__unwindfunclet$?_Xlen@?$vector@UPlayerInfo@CvReplayInfo@@V?$allocator@UPlayerInfo@CvReplayInfo@@@std@@@std@@KAXXZ$0:
	lea	ecx, DWORD PTR $T233055[ebp]
	jmp	DWORD PTR __imp_??1?$basic_string@DU?$char_traits@D@std@@V?$allocator@D@2@@std@@QAE@XZ
__unwindfunclet$?_Xlen@?$vector@UPlayerInfo@CvReplayInfo@@V?$allocator@UPlayerInfo@CvReplayInfo@@@std@@@std@@KAXXZ$2:
	lea	ecx, DWORD PTR $T233054[ebp]
	jmp	DWORD PTR __imp_??1exception@std@@UAE@XZ
__ehhandler$?_Xlen@?$vector@UPlayerInfo@CvReplayInfo@@V?$allocator@UPlayerInfo@CvReplayInfo@@@std@@@std@@KAXXZ:
	mov	eax, OFFSET __ehfuncinfo$?_Xlen@?$vector@UPlayerInfo@CvReplayInfo@@V?$allocator@UPlayerInfo@CvReplayInfo@@@std@@@std@@KAXXZ
	jmp	___CxxFrameHandler3
text$x	ENDS
?_Xlen@?$vector@UPlayerInfo@CvReplayInfo@@V?$allocator@UPlayerInfo@CvReplayInfo@@@std@@@std@@KAXXZ ENDP ; std::vector<CvReplayInfo::PlayerInfo,std::allocator<CvReplayInfo::PlayerInfo> >::_Xlen
PUBLIC	??0?$_Container_base_aux_alloc_empty@V?$allocator@UPlayerInfo@CvReplayInfo@@@std@@@std@@IAE@V?$allocator@UPlayerInfo@CvReplayInfo@@@1@@Z ; std::_Container_base_aux_alloc_empty<std::allocator<CvReplayInfo::PlayerInfo> >::_Container_base_aux_alloc_empty<std::allocator<CvReplayInfo::PlayerInfo> >
; Function compile flags: /Ogtpy
; File c:\program files (x86)\microsoft visual studio 9.0\vc\include\xutility
;	COMDAT ??0?$_Container_base_aux_alloc_empty@V?$allocator@UPlayerInfo@CvReplayInfo@@@std@@@std@@IAE@V?$allocator@UPlayerInfo@CvReplayInfo@@@1@@Z
_TEXT	SEGMENT
___formal$ = 8						; size = 1
??0?$_Container_base_aux_alloc_empty@V?$allocator@UPlayerInfo@CvReplayInfo@@@std@@@std@@IAE@V?$allocator@UPlayerInfo@CvReplayInfo@@@1@@Z PROC ; std::_Container_base_aux_alloc_empty<std::allocator<CvReplayInfo::PlayerInfo> >::_Container_base_aux_alloc_empty<std::allocator<CvReplayInfo::PlayerInfo> >, COMDAT
; _this$ = ecx

; 618  : 	explicit _Container_base_aux_alloc_empty(_Alloc) { }

	mov	eax, ecx
	ret	4
??0?$_Container_base_aux_alloc_empty@V?$allocator@UPlayerInfo@CvReplayInfo@@@std@@@std@@IAE@V?$allocator@UPlayerInfo@CvReplayInfo@@@1@@Z ENDP ; std::_Container_base_aux_alloc_empty<std::allocator<CvReplayInfo::PlayerInfo> >::_Container_base_aux_alloc_empty<std::allocator<CvReplayInfo::PlayerInfo> >
_TEXT	ENDS
PUBLIC	??0?$allocator@UPlayerInfo@CvReplayInfo@@@std@@QAE@ABV01@@Z ; std::allocator<CvReplayInfo::PlayerInfo>::allocator<CvReplayInfo::PlayerInfo>
; Function compile flags: /Ogtpy
; File c:\program files (x86)\microsoft visual studio 9.0\vc\include\xmemory
;	COMDAT ??0?$allocator@UPlayerInfo@CvReplayInfo@@@std@@QAE@ABV01@@Z
_TEXT	SEGMENT
___formal$ = 8						; size = 4
??0?$allocator@UPlayerInfo@CvReplayInfo@@@std@@QAE@ABV01@@Z PROC ; std::allocator<CvReplayInfo::PlayerInfo>::allocator<CvReplayInfo::PlayerInfo>, COMDAT
; _this$ = ecx

; 123  : 	allocator(const allocator<_Ty>&) _THROW0()

	mov	eax, ecx

; 124  : 		{	// construct by copying (do nothing)
; 125  : 		}

	ret	4
??0?$allocator@UPlayerInfo@CvReplayInfo@@@std@@QAE@ABV01@@Z ENDP ; std::allocator<CvReplayInfo::PlayerInfo>::allocator<CvReplayInfo::PlayerInfo>
_TEXT	ENDS
PUBLIC	?deallocate@?$allocator@UPlayerInfo@CvReplayInfo@@@std@@QAEXPAUPlayerInfo@CvReplayInfo@@I@Z ; std::allocator<CvReplayInfo::PlayerInfo>::deallocate
; Function compile flags: /Ogtpy
;	COMDAT ?deallocate@?$allocator@UPlayerInfo@CvReplayInfo@@@std@@QAEXPAUPlayerInfo@CvReplayInfo@@I@Z
_TEXT	SEGMENT
__Ptr$ = 8						; size = 4
___formal$ = 12						; size = 4
?deallocate@?$allocator@UPlayerInfo@CvReplayInfo@@@std@@QAEXPAUPlayerInfo@CvReplayInfo@@I@Z PROC ; std::allocator<CvReplayInfo::PlayerInfo>::deallocate, COMDAT
; _this$ = ecx

; 140  : 		::operator delete(_Ptr);

	mov	eax, DWORD PTR __Ptr$[esp-4]
	push	eax
	call	??3@YAXPAX@Z				; operator delete
	pop	ecx

; 141  : 		}

	ret	8
?deallocate@?$allocator@UPlayerInfo@CvReplayInfo@@@std@@QAEXPAUPlayerInfo@CvReplayInfo@@I@Z ENDP ; std::allocator<CvReplayInfo::PlayerInfo>::deallocate
_TEXT	ENDS
PUBLIC	?_Xlen@?$vector@V?$vector@V?$map@IHU?$less@I@std@@V?$allocator@U?$pair@$$CBIH@std@@@2@@std@@V?$allocator@V?$map@IHU?$less@I@std@@V?$allocator@U?$pair@$$CBIH@std@@@2@@std@@@2@@std@@V?$allocator@V?$vector@V?$map@IHU?$less@I@std@@V?$allocator@U?$pair@$$CBIH@std@@@2@@std@@V?$allocator@V?$map@IHU?$less@I@std@@V?$allocator@U?$pair@$$CBIH@std@@@2@@std@@@2@@std@@@2@@std@@KAXXZ ; std::vector<std::vector<std::map<unsigned int,int,std::less<unsigned int>,std::allocator<std::pair<unsigned int const ,int> > >,std::allocator<std::map<unsigned int,int,std::less<unsigned int>,std::allocator<std::pair<unsigned int const ,int> > > > >,std::allocator<std::vector<std::map<unsigned int,int,std::less<unsigned int>,std::allocator<std::pair<unsigned int const ,int> > >,std::allocator<std::map<unsigned int,int,std::less<unsigned int>,std::allocator<std::pair<unsigned int const ,int> > > > > > >::_Xlen
;	COMDAT xdata$x
; File c:\program files (x86)\microsoft visual studio 9.0\vc\include\stdexcept
xdata$x	SEGMENT
__unwindtable$?_Xlen@?$vector@V?$vector@V?$map@IHU?$less@I@std@@V?$allocator@U?$pair@$$CBIH@std@@@2@@std@@V?$allocator@V?$map@IHU?$less@I@std@@V?$allocator@U?$pair@$$CBIH@std@@@2@@std@@@2@@std@@V?$allocator@V?$vector@V?$map@IHU?$less@I@std@@V?$allocator@U?$pair@$$CBIH@std@@@2@@std@@V?$allocator@V?$map@IHU?$less@I@std@@V?$allocator@U?$pair@$$CBIH@std@@@2@@std@@@2@@std@@@2@@std@@KAXXZ DD 0ffffffffH
	DD	FLAT:__unwindfunclet$?_Xlen@?$vector@V?$vector@V?$map@IHU?$less@I@std@@V?$allocator@U?$pair@$$CBIH@std@@@2@@std@@V?$allocator@V?$map@IHU?$less@I@std@@V?$allocator@U?$pair@$$CBIH@std@@@2@@std@@@2@@std@@V?$allocator@V?$vector@V?$map@IHU?$less@I@std@@V?$allocator@U?$pair@$$CBIH@std@@@2@@std@@V?$allocator@V?$map@IHU?$less@I@std@@V?$allocator@U?$pair@$$CBIH@std@@@2@@std@@@2@@std@@@2@@std@@KAXXZ$0
	DD	00H
	DD	FLAT:__unwindfunclet$?_Xlen@?$vector@V?$vector@V?$map@IHU?$less@I@std@@V?$allocator@U?$pair@$$CBIH@std@@@2@@std@@V?$allocator@V?$map@IHU?$less@I@std@@V?$allocator@U?$pair@$$CBIH@std@@@2@@std@@@2@@std@@V?$allocator@V?$vector@V?$map@IHU?$less@I@std@@V?$allocator@U?$pair@$$CBIH@std@@@2@@std@@V?$allocator@V?$map@IHU?$less@I@std@@V?$allocator@U?$pair@$$CBIH@std@@@2@@std@@@2@@std@@@2@@std@@KAXXZ$2
__ehfuncinfo$?_Xlen@?$vector@V?$vector@V?$map@IHU?$less@I@std@@V?$allocator@U?$pair@$$CBIH@std@@@2@@std@@V?$allocator@V?$map@IHU?$less@I@std@@V?$allocator@U?$pair@$$CBIH@std@@@2@@std@@@2@@std@@V?$allocator@V?$vector@V?$map@IHU?$less@I@std@@V?$allocator@U?$pair@$$CBIH@std@@@2@@std@@V?$allocator@V?$map@IHU?$less@I@std@@V?$allocator@U?$pair@$$CBIH@std@@@2@@std@@@2@@std@@@2@@std@@KAXXZ DD 019930522H
	DD	02H
	DD	FLAT:__unwindtable$?_Xlen@?$vector@V?$vector@V?$map@IHU?$less@I@std@@V?$allocator@U?$pair@$$CBIH@std@@@2@@std@@V?$allocator@V?$map@IHU?$less@I@std@@V?$allocator@U?$pair@$$CBIH@std@@@2@@std@@@2@@std@@V?$allocator@V?$vector@V?$map@IHU?$less@I@std@@V?$allocator@U?$pair@$$CBIH@std@@@2@@std@@V?$allocator@V?$map@IHU?$less@I@std@@V?$allocator@U?$pair@$$CBIH@std@@@2@@std@@@2@@std@@@2@@std@@KAXXZ
	DD	2 DUP(00H)
	DD	2 DUP(00H)
	DD	00H
	DD	01H
; Function compile flags: /Ogtpy
; File c:\program files (x86)\microsoft visual studio 9.0\vc\include\vector
xdata$x	ENDS
;	COMDAT ?_Xlen@?$vector@V?$vector@V?$map@IHU?$less@I@std@@V?$allocator@U?$pair@$$CBIH@std@@@2@@std@@V?$allocator@V?$map@IHU?$less@I@std@@V?$allocator@U?$pair@$$CBIH@std@@@2@@std@@@2@@std@@V?$allocator@V?$vector@V?$map@IHU?$less@I@std@@V?$allocator@U?$pair@$$CBIH@std@@@2@@std@@V?$allocator@V?$map@IHU?$less@I@std@@V?$allocator@U?$pair@$$CBIH@std@@@2@@std@@@2@@std@@@2@@std@@KAXXZ
_TEXT	SEGMENT
$T233089 = -80						; size = 28
$T233088 = -52						; size = 40
__$EHRec$ = -12						; size = 12
?_Xlen@?$vector@V?$vector@V?$map@IHU?$less@I@std@@V?$allocator@U?$pair@$$CBIH@std@@@2@@std@@V?$allocator@V?$map@IHU?$less@I@std@@V?$allocator@U?$pair@$$CBIH@std@@@2@@std@@@2@@std@@V?$allocator@V?$vector@V?$map@IHU?$less@I@std@@V?$allocator@U?$pair@$$CBIH@std@@@2@@std@@V?$allocator@V?$map@IHU?$less@I@std@@V?$allocator@U?$pair@$$CBIH@std@@@2@@std@@@2@@std@@@2@@std@@KAXXZ PROC ; std::vector<std::vector<std::map<unsigned int,int,std::less<unsigned int>,std::allocator<std::pair<unsigned int const ,int> > >,std::allocator<std::map<unsigned int,int,std::less<unsigned int>,std::allocator<std::pair<unsigned int const ,int> > > > >,std::allocator<std::vector<std::map<unsigned int,int,std::less<unsigned int>,std::allocator<std::pair<unsigned int const ,int> > >,std::allocator<std::map<unsigned int,int,std::less<unsigned int>,std::allocator<std::pair<unsigned int const ,int> > > > > > >::_Xlen, COMDAT

; 1259 : 		{	// report a length_error

	push	-1
	push	__ehhandler$?_Xlen@?$vector@V?$vector@V?$map@IHU?$less@I@std@@V?$allocator@U?$pair@$$CBIH@std@@@2@@std@@V?$allocator@V?$map@IHU?$less@I@std@@V?$allocator@U?$pair@$$CBIH@std@@@2@@std@@@2@@std@@V?$allocator@V?$vector@V?$map@IHU?$less@I@std@@V?$allocator@U?$pair@$$CBIH@std@@@2@@std@@V?$allocator@V?$map@IHU?$less@I@std@@V?$allocator@U?$pair@$$CBIH@std@@@2@@std@@@2@@std@@@2@@std@@KAXXZ
	mov	eax, DWORD PTR fs:0
	push	eax
	mov	DWORD PTR fs:0, esp
	sub	esp, 68					; 00000044H

; 1260 : 		_THROW(length_error, "vector<T> too long");

	push	OFFSET ??_C@_0BD@OLBABOEK@vector?$DMT?$DO?5too?5long?$AA@
	lea	ecx, DWORD PTR $T233089[esp+84]
	call	DWORD PTR __imp_??0?$basic_string@DU?$char_traits@D@std@@V?$allocator@D@2@@std@@QAE@PBD@Z
	lea	ecx, DWORD PTR $T233088[esp+80]
	mov	DWORD PTR __$EHRec$[esp+88], 0
	call	DWORD PTR __imp_??0exception@std@@QAE@XZ
	lea	eax, DWORD PTR $T233089[esp+80]
	push	eax
	lea	ecx, DWORD PTR $T233088[esp+96]
	mov	BYTE PTR __$EHRec$[esp+92], 1
	mov	DWORD PTR $T233088[esp+84], OFFSET ??_7logic_error@std@@6B@
	call	DWORD PTR __imp_??0?$basic_string@DU?$char_traits@D@std@@V?$allocator@D@2@@std@@QAE@ABV01@@Z
	push	OFFSET __TI3?AVlength_error@std@@
	lea	ecx, DWORD PTR $T233088[esp+84]
	push	ecx
	mov	BYTE PTR __$EHRec$[esp+96], 0
	mov	DWORD PTR $T233088[esp+88], OFFSET ??_7length_error@std@@6B@
	call	__CxxThrowException@8
$LN13@Xlen@7:
$LN12@Xlen@7:
	int	3
_TEXT	ENDS
;	COMDAT text$x
text$x	SEGMENT
__unwindfunclet$?_Xlen@?$vector@V?$vector@V?$map@IHU?$less@I@std@@V?$allocator@U?$pair@$$CBIH@std@@@2@@std@@V?$allocator@V?$map@IHU?$less@I@std@@V?$allocator@U?$pair@$$CBIH@std@@@2@@std@@@2@@std@@V?$allocator@V?$vector@V?$map@IHU?$less@I@std@@V?$allocator@U?$pair@$$CBIH@std@@@2@@std@@V?$allocator@V?$map@IHU?$less@I@std@@V?$allocator@U?$pair@$$CBIH@std@@@2@@std@@@2@@std@@@2@@std@@KAXXZ$0:
	lea	ecx, DWORD PTR $T233089[ebp]
	jmp	DWORD PTR __imp_??1?$basic_string@DU?$char_traits@D@std@@V?$allocator@D@2@@std@@QAE@XZ
__unwindfunclet$?_Xlen@?$vector@V?$vector@V?$map@IHU?$less@I@std@@V?$allocator@U?$pair@$$CBIH@std@@@2@@std@@V?$allocator@V?$map@IHU?$less@I@std@@V?$allocator@U?$pair@$$CBIH@std@@@2@@std@@@2@@std@@V?$allocator@V?$vector@V?$map@IHU?$less@I@std@@V?$allocator@U?$pair@$$CBIH@std@@@2@@std@@V?$allocator@V?$map@IHU?$less@I@std@@V?$allocator@U?$pair@$$CBIH@std@@@2@@std@@@2@@std@@@2@@std@@KAXXZ$2:
	lea	ecx, DWORD PTR $T233088[ebp]
	jmp	DWORD PTR __imp_??1exception@std@@UAE@XZ
__ehhandler$?_Xlen@?$vector@V?$vector@V?$map@IHU?$less@I@std@@V?$allocator@U?$pair@$$CBIH@std@@@2@@std@@V?$allocator@V?$map@IHU?$less@I@std@@V?$allocator@U?$pair@$$CBIH@std@@@2@@std@@@2@@std@@V?$allocator@V?$vector@V?$map@IHU?$less@I@std@@V?$allocator@U?$pair@$$CBIH@std@@@2@@std@@V?$allocator@V?$map@IHU?$less@I@std@@V?$allocator@U?$pair@$$CBIH@std@@@2@@std@@@2@@std@@@2@@std@@KAXXZ:
	mov	eax, OFFSET __ehfuncinfo$?_Xlen@?$vector@V?$vector@V?$map@IHU?$less@I@std@@V?$allocator@U?$pair@$$CBIH@std@@@2@@std@@V?$allocator@V?$map@IHU?$less@I@std@@V?$allocator@U?$pair@$$CBIH@std@@@2@@std@@@2@@std@@V?$allocator@V?$vector@V?$map@IHU?$less@I@std@@V?$allocator@U?$pair@$$CBIH@std@@@2@@std@@V?$allocator@V?$map@IHU?$less@I@std@@V?$allocator@U?$pair@$$CBIH@std@@@2@@std@@@2@@std@@@2@@std@@KAXXZ
	jmp	___CxxFrameHandler3
text$x	ENDS
?_Xlen@?$vector@V?$vector@V?$map@IHU?$less@I@std@@V?$allocator@U?$pair@$$CBIH@std@@@2@@std@@V?$allocator@V?$map@IHU?$less@I@std@@V?$allocator@U?$pair@$$CBIH@std@@@2@@std@@@2@@std@@V?$allocator@V?$vector@V?$map@IHU?$less@I@std@@V?$allocator@U?$pair@$$CBIH@std@@@2@@std@@V?$allocator@V?$map@IHU?$less@I@std@@V?$allocator@U?$pair@$$CBIH@std@@@2@@std@@@2@@std@@@2@@std@@KAXXZ ENDP ; std::vector<std::vector<std::map<unsigned int,int,std::less<unsigned int>,std::allocator<std::pair<unsigned int const ,int> > >,std::allocator<std::map<unsigned int,int,std::less<unsigned int>,std::allocator<std::pair<unsigned int const ,int> > > > >,std::allocator<std::vector<std::map<unsigned int,int,std::less<unsigned int>,std::allocator<std::pair<unsigned int const ,int> > >,std::allocator<std::map<unsigned int,int,std::less<unsigned int>,std::allocator<std::pair<unsigned int const ,int> > > > > > >::_Xlen
PUBLIC	??0?$_Container_base_aux_alloc_empty@V?$allocator@V?$vector@V?$map@IHU?$less@I@std@@V?$allocator@U?$pair@$$CBIH@std@@@2@@std@@V?$allocator@V?$map@IHU?$less@I@std@@V?$allocator@U?$pair@$$CBIH@std@@@2@@std@@@2@@std@@@std@@@std@@IAE@V?$allocator@V?$vector@V?$map@IHU?$less@I@std@@V?$allocator@U?$pair@$$CBIH@std@@@2@@std@@V?$allocator@V?$map@IHU?$less@I@std@@V?$allocator@U?$pair@$$CBIH@std@@@2@@std@@@2@@std@@@1@@Z ; std::_Container_base_aux_alloc_empty<std::allocator<std::vector<std::map<unsigned int,int,std::less<unsigned int>,std::allocator<std::pair<unsigned int const ,int> > >,std::allocator<std::map<unsigned int,int,std::less<unsigned int>,std::allocator<std::pair<unsigned int const ,int> > > > > > >::_Container_base_aux_alloc_empty<std::allocator<std::vector<std::map<unsigned int,int,std::less<unsigned int>,std::allocator<std::pair<unsigned int const ,int> > >,std::allocator<std::map<unsigned int,int,std::less<unsigned int>,std::allocator<std::pair<unsigned int const ,int> > > > > > >
; Function compile flags: /Ogtpy
; File c:\program files (x86)\microsoft visual studio 9.0\vc\include\xutility
;	COMDAT ??0?$_Container_base_aux_alloc_empty@V?$allocator@V?$vector@V?$map@IHU?$less@I@std@@V?$allocator@U?$pair@$$CBIH@std@@@2@@std@@V?$allocator@V?$map@IHU?$less@I@std@@V?$allocator@U?$pair@$$CBIH@std@@@2@@std@@@2@@std@@@std@@@std@@IAE@V?$allocator@V?$vector@V?$map@IHU?$less@I@std@@V?$allocator@U?$pair@$$CBIH@std@@@2@@std@@V?$allocator@V?$map@IHU?$less@I@std@@V?$allocator@U?$pair@$$CBIH@std@@@2@@std@@@2@@std@@@1@@Z
_TEXT	SEGMENT
___formal$ = 8						; size = 1
??0?$_Container_base_aux_alloc_empty@V?$allocator@V?$vector@V?$map@IHU?$less@I@std@@V?$allocator@U?$pair@$$CBIH@std@@@2@@std@@V?$allocator@V?$map@IHU?$less@I@std@@V?$allocator@U?$pair@$$CBIH@std@@@2@@std@@@2@@std@@@std@@@std@@IAE@V?$allocator@V?$vector@V?$map@IHU?$less@I@std@@V?$allocator@U?$pair@$$CBIH@std@@@2@@std@@V?$allocator@V?$map@IHU?$less@I@std@@V?$allocator@U?$pair@$$CBIH@std@@@2@@std@@@2@@std@@@1@@Z PROC ; std::_Container_base_aux_alloc_empty<std::allocator<std::vector<std::map<unsigned int,int,std::less<unsigned int>,std::allocator<std::pair<unsigned int const ,int> > >,std::allocator<std::map<unsigned int,int,std::less<unsigned int>,std::allocator<std::pair<unsigned int const ,int> > > > > > >::_Container_base_aux_alloc_empty<std::allocator<std::vector<std::map<unsigned int,int,std::less<unsigned int>,std::allocator<std::pair<unsigned int const ,int> > >,std::allocator<std::map<unsigned int,int,std::less<unsigned int>,std::allocator<std::pair<unsigned int const ,int> > > > > > >, COMDAT
; _this$ = ecx

; 618  : 	explicit _Container_base_aux_alloc_empty(_Alloc) { }

	mov	eax, ecx
	ret	4
??0?$_Container_base_aux_alloc_empty@V?$allocator@V?$vector@V?$map@IHU?$less@I@std@@V?$allocator@U?$pair@$$CBIH@std@@@2@@std@@V?$allocator@V?$map@IHU?$less@I@std@@V?$allocator@U?$pair@$$CBIH@std@@@2@@std@@@2@@std@@@std@@@std@@IAE@V?$allocator@V?$vector@V?$map@IHU?$less@I@std@@V?$allocator@U?$pair@$$CBIH@std@@@2@@std@@V?$allocator@V?$map@IHU?$less@I@std@@V?$allocator@U?$pair@$$CBIH@std@@@2@@std@@@2@@std@@@1@@Z ENDP ; std::_Container_base_aux_alloc_empty<std::allocator<std::vector<std::map<unsigned int,int,std::less<unsigned int>,std::allocator<std::pair<unsigned int const ,int> > >,std::allocator<std::map<unsigned int,int,std::less<unsigned int>,std::allocator<std::pair<unsigned int const ,int> > > > > > >::_Container_base_aux_alloc_empty<std::allocator<std::vector<std::map<unsigned int,int,std::less<unsigned int>,std::allocator<std::pair<unsigned int const ,int> > >,std::allocator<std::map<unsigned int,int,std::less<unsigned int>,std::allocator<std::pair<unsigned int const ,int> > > > > > >
_TEXT	ENDS
PUBLIC	??0?$allocator@V?$vector@V?$map@IHU?$less@I@std@@V?$allocator@U?$pair@$$CBIH@std@@@2@@std@@V?$allocator@V?$map@IHU?$less@I@std@@V?$allocator@U?$pair@$$CBIH@std@@@2@@std@@@2@@std@@@std@@QAE@ABV01@@Z ; std::allocator<std::vector<std::map<unsigned int,int,std::less<unsigned int>,std::allocator<std::pair<unsigned int const ,int> > >,std::allocator<std::map<unsigned int,int,std::less<unsigned int>,std::allocator<std::pair<unsigned int const ,int> > > > > >::allocator<std::vector<std::map<unsigned int,int,std::less<unsigned int>,std::allocator<std::pair<unsigned int const ,int> > >,std::allocator<std::map<unsigned int,int,std::less<unsigned int>,std::allocator<std::pair<unsigned int const ,int> > > > > >
; Function compile flags: /Ogtpy
; File c:\program files (x86)\microsoft visual studio 9.0\vc\include\xmemory
;	COMDAT ??0?$allocator@V?$vector@V?$map@IHU?$less@I@std@@V?$allocator@U?$pair@$$CBIH@std@@@2@@std@@V?$allocator@V?$map@IHU?$less@I@std@@V?$allocator@U?$pair@$$CBIH@std@@@2@@std@@@2@@std@@@std@@QAE@ABV01@@Z
_TEXT	SEGMENT
___formal$ = 8						; size = 4
??0?$allocator@V?$vector@V?$map@IHU?$less@I@std@@V?$allocator@U?$pair@$$CBIH@std@@@2@@std@@V?$allocator@V?$map@IHU?$less@I@std@@V?$allocator@U?$pair@$$CBIH@std@@@2@@std@@@2@@std@@@std@@QAE@ABV01@@Z PROC ; std::allocator<std::vector<std::map<unsigned int,int,std::less<unsigned int>,std::allocator<std::pair<unsigned int const ,int> > >,std::allocator<std::map<unsigned int,int,std::less<unsigned int>,std::allocator<std::pair<unsigned int const ,int> > > > > >::allocator<std::vector<std::map<unsigned int,int,std::less<unsigned int>,std::allocator<std::pair<unsigned int const ,int> > >,std::allocator<std::map<unsigned int,int,std::less<unsigned int>,std::allocator<std::pair<unsigned int const ,int> > > > > >, COMDAT
; _this$ = ecx

; 123  : 	allocator(const allocator<_Ty>&) _THROW0()

	mov	eax, ecx

; 124  : 		{	// construct by copying (do nothing)
; 125  : 		}

	ret	4
??0?$allocator@V?$vector@V?$map@IHU?$less@I@std@@V?$allocator@U?$pair@$$CBIH@std@@@2@@std@@V?$allocator@V?$map@IHU?$less@I@std@@V?$allocator@U?$pair@$$CBIH@std@@@2@@std@@@2@@std@@@std@@QAE@ABV01@@Z ENDP ; std::allocator<std::vector<std::map<unsigned int,int,std::less<unsigned int>,std::allocator<std::pair<unsigned int const ,int> > >,std::allocator<std::map<unsigned int,int,std::less<unsigned int>,std::allocator<std::pair<unsigned int const ,int> > > > > >::allocator<std::vector<std::map<unsigned int,int,std::less<unsigned int>,std::allocator<std::pair<unsigned int const ,int> > >,std::allocator<std::map<unsigned int,int,std::less<unsigned int>,std::allocator<std::pair<unsigned int const ,int> > > > > >
_TEXT	ENDS
PUBLIC	?deallocate@?$allocator@V?$vector@V?$map@IHU?$less@I@std@@V?$allocator@U?$pair@$$CBIH@std@@@2@@std@@V?$allocator@V?$map@IHU?$less@I@std@@V?$allocator@U?$pair@$$CBIH@std@@@2@@std@@@2@@std@@@std@@QAEXPAV?$vector@V?$map@IHU?$less@I@std@@V?$allocator@U?$pair@$$CBIH@std@@@2@@std@@V?$allocator@V?$map@IHU?$less@I@std@@V?$allocator@U?$pair@$$CBIH@std@@@2@@std@@@2@@2@I@Z ; std::allocator<std::vector<std::map<unsigned int,int,std::less<unsigned int>,std::allocator<std::pair<unsigned int const ,int> > >,std::allocator<std::map<unsigned int,int,std::less<unsigned int>,std::allocator<std::pair<unsigned int const ,int> > > > > >::deallocate
; Function compile flags: /Ogtpy
;	COMDAT ?deallocate@?$allocator@V?$vector@V?$map@IHU?$less@I@std@@V?$allocator@U?$pair@$$CBIH@std@@@2@@std@@V?$allocator@V?$map@IHU?$less@I@std@@V?$allocator@U?$pair@$$CBIH@std@@@2@@std@@@2@@std@@@std@@QAEXPAV?$vector@V?$map@IHU?$less@I@std@@V?$allocator@U?$pair@$$CBIH@std@@@2@@std@@V?$allocator@V?$map@IHU?$less@I@std@@V?$allocator@U?$pair@$$CBIH@std@@@2@@std@@@2@@2@I@Z
_TEXT	SEGMENT
__Ptr$ = 8						; size = 4
___formal$ = 12						; size = 4
?deallocate@?$allocator@V?$vector@V?$map@IHU?$less@I@std@@V?$allocator@U?$pair@$$CBIH@std@@@2@@std@@V?$allocator@V?$map@IHU?$less@I@std@@V?$allocator@U?$pair@$$CBIH@std@@@2@@std@@@2@@std@@@std@@QAEXPAV?$vector@V?$map@IHU?$less@I@std@@V?$allocator@U?$pair@$$CBIH@std@@@2@@std@@V?$allocator@V?$map@IHU?$less@I@std@@V?$allocator@U?$pair@$$CBIH@std@@@2@@std@@@2@@2@I@Z PROC ; std::allocator<std::vector<std::map<unsigned int,int,std::less<unsigned int>,std::allocator<std::pair<unsigned int const ,int> > >,std::allocator<std::map<unsigned int,int,std::less<unsigned int>,std::allocator<std::pair<unsigned int const ,int> > > > > >::deallocate, COMDAT
; _this$ = ecx

; 140  : 		::operator delete(_Ptr);

	mov	eax, DWORD PTR __Ptr$[esp-4]
	push	eax
	call	??3@YAXPAX@Z				; operator delete
	pop	ecx

; 141  : 		}

	ret	8
?deallocate@?$allocator@V?$vector@V?$map@IHU?$less@I@std@@V?$allocator@U?$pair@$$CBIH@std@@@2@@std@@V?$allocator@V?$map@IHU?$less@I@std@@V?$allocator@U?$pair@$$CBIH@std@@@2@@std@@@2@@std@@@std@@QAEXPAV?$vector@V?$map@IHU?$less@I@std@@V?$allocator@U?$pair@$$CBIH@std@@@2@@std@@V?$allocator@V?$map@IHU?$less@I@std@@V?$allocator@U?$pair@$$CBIH@std@@@2@@std@@@2@@2@I@Z ENDP ; std::allocator<std::vector<std::map<unsigned int,int,std::less<unsigned int>,std::allocator<std::pair<unsigned int const ,int> > >,std::allocator<std::map<unsigned int,int,std::less<unsigned int>,std::allocator<std::pair<unsigned int const ,int> > > > > >::deallocate
_TEXT	ENDS
PUBLIC	??0?$_Container_base_aux_alloc_empty@V?$allocator@V?$map@IUPlotState@CvReplayInfo@@U?$less@I@std@@V?$allocator@U?$pair@$$CBIUPlotState@CvReplayInfo@@@std@@@4@@std@@@std@@@std@@IAE@V?$allocator@V?$map@IUPlotState@CvReplayInfo@@U?$less@I@std@@V?$allocator@U?$pair@$$CBIUPlotState@CvReplayInfo@@@std@@@4@@std@@@1@@Z ; std::_Container_base_aux_alloc_empty<std::allocator<std::map<unsigned int,CvReplayInfo::PlotState,std::less<unsigned int>,std::allocator<std::pair<unsigned int const ,CvReplayInfo::PlotState> > > > >::_Container_base_aux_alloc_empty<std::allocator<std::map<unsigned int,CvReplayInfo::PlotState,std::less<unsigned int>,std::allocator<std::pair<unsigned int const ,CvReplayInfo::PlotState> > > > >
; Function compile flags: /Ogtpy
; File c:\program files (x86)\microsoft visual studio 9.0\vc\include\xutility
;	COMDAT ??0?$_Container_base_aux_alloc_empty@V?$allocator@V?$map@IUPlotState@CvReplayInfo@@U?$less@I@std@@V?$allocator@U?$pair@$$CBIUPlotState@CvReplayInfo@@@std@@@4@@std@@@std@@@std@@IAE@V?$allocator@V?$map@IUPlotState@CvReplayInfo@@U?$less@I@std@@V?$allocator@U?$pair@$$CBIUPlotState@CvReplayInfo@@@std@@@4@@std@@@1@@Z
_TEXT	SEGMENT
___formal$ = 8						; size = 1
??0?$_Container_base_aux_alloc_empty@V?$allocator@V?$map@IUPlotState@CvReplayInfo@@U?$less@I@std@@V?$allocator@U?$pair@$$CBIUPlotState@CvReplayInfo@@@std@@@4@@std@@@std@@@std@@IAE@V?$allocator@V?$map@IUPlotState@CvReplayInfo@@U?$less@I@std@@V?$allocator@U?$pair@$$CBIUPlotState@CvReplayInfo@@@std@@@4@@std@@@1@@Z PROC ; std::_Container_base_aux_alloc_empty<std::allocator<std::map<unsigned int,CvReplayInfo::PlotState,std::less<unsigned int>,std::allocator<std::pair<unsigned int const ,CvReplayInfo::PlotState> > > > >::_Container_base_aux_alloc_empty<std::allocator<std::map<unsigned int,CvReplayInfo::PlotState,std::less<unsigned int>,std::allocator<std::pair<unsigned int const ,CvReplayInfo::PlotState> > > > >, COMDAT
; _this$ = ecx

; 618  : 	explicit _Container_base_aux_alloc_empty(_Alloc) { }

	mov	eax, ecx
	ret	4
??0?$_Container_base_aux_alloc_empty@V?$allocator@V?$map@IUPlotState@CvReplayInfo@@U?$less@I@std@@V?$allocator@U?$pair@$$CBIUPlotState@CvReplayInfo@@@std@@@4@@std@@@std@@@std@@IAE@V?$allocator@V?$map@IUPlotState@CvReplayInfo@@U?$less@I@std@@V?$allocator@U?$pair@$$CBIUPlotState@CvReplayInfo@@@std@@@4@@std@@@1@@Z ENDP ; std::_Container_base_aux_alloc_empty<std::allocator<std::map<unsigned int,CvReplayInfo::PlotState,std::less<unsigned int>,std::allocator<std::pair<unsigned int const ,CvReplayInfo::PlotState> > > > >::_Container_base_aux_alloc_empty<std::allocator<std::map<unsigned int,CvReplayInfo::PlotState,std::less<unsigned int>,std::allocator<std::pair<unsigned int const ,CvReplayInfo::PlotState> > > > >
_TEXT	ENDS
PUBLIC	??0?$allocator@V?$map@IUPlotState@CvReplayInfo@@U?$less@I@std@@V?$allocator@U?$pair@$$CBIUPlotState@CvReplayInfo@@@std@@@4@@std@@@std@@QAE@ABV01@@Z ; std::allocator<std::map<unsigned int,CvReplayInfo::PlotState,std::less<unsigned int>,std::allocator<std::pair<unsigned int const ,CvReplayInfo::PlotState> > > >::allocator<std::map<unsigned int,CvReplayInfo::PlotState,std::less<unsigned int>,std::allocator<std::pair<unsigned int const ,CvReplayInfo::PlotState> > > >
; Function compile flags: /Ogtpy
; File c:\program files (x86)\microsoft visual studio 9.0\vc\include\xmemory
;	COMDAT ??0?$allocator@V?$map@IUPlotState@CvReplayInfo@@U?$less@I@std@@V?$allocator@U?$pair@$$CBIUPlotState@CvReplayInfo@@@std@@@4@@std@@@std@@QAE@ABV01@@Z
_TEXT	SEGMENT
___formal$ = 8						; size = 4
??0?$allocator@V?$map@IUPlotState@CvReplayInfo@@U?$less@I@std@@V?$allocator@U?$pair@$$CBIUPlotState@CvReplayInfo@@@std@@@4@@std@@@std@@QAE@ABV01@@Z PROC ; std::allocator<std::map<unsigned int,CvReplayInfo::PlotState,std::less<unsigned int>,std::allocator<std::pair<unsigned int const ,CvReplayInfo::PlotState> > > >::allocator<std::map<unsigned int,CvReplayInfo::PlotState,std::less<unsigned int>,std::allocator<std::pair<unsigned int const ,CvReplayInfo::PlotState> > > >, COMDAT
; _this$ = ecx

; 123  : 	allocator(const allocator<_Ty>&) _THROW0()

	mov	eax, ecx

; 124  : 		{	// construct by copying (do nothing)
; 125  : 		}

	ret	4
??0?$allocator@V?$map@IUPlotState@CvReplayInfo@@U?$less@I@std@@V?$allocator@U?$pair@$$CBIUPlotState@CvReplayInfo@@@std@@@4@@std@@@std@@QAE@ABV01@@Z ENDP ; std::allocator<std::map<unsigned int,CvReplayInfo::PlotState,std::less<unsigned int>,std::allocator<std::pair<unsigned int const ,CvReplayInfo::PlotState> > > >::allocator<std::map<unsigned int,CvReplayInfo::PlotState,std::less<unsigned int>,std::allocator<std::pair<unsigned int const ,CvReplayInfo::PlotState> > > >
_TEXT	ENDS
PUBLIC	?max_size@?$allocator@V?$map@IUPlotState@CvReplayInfo@@U?$less@I@std@@V?$allocator@U?$pair@$$CBIUPlotState@CvReplayInfo@@@std@@@4@@std@@@std@@QBEIXZ ; std::allocator<std::map<unsigned int,CvReplayInfo::PlotState,std::less<unsigned int>,std::allocator<std::pair<unsigned int const ,CvReplayInfo::PlotState> > > >::max_size
; Function compile flags: /Ogtpy
;	COMDAT ?max_size@?$allocator@V?$map@IUPlotState@CvReplayInfo@@U?$less@I@std@@V?$allocator@U?$pair@$$CBIUPlotState@CvReplayInfo@@@std@@@4@@std@@@std@@QBEIXZ
_TEXT	SEGMENT
?max_size@?$allocator@V?$map@IUPlotState@CvReplayInfo@@U?$less@I@std@@V?$allocator@U?$pair@$$CBIUPlotState@CvReplayInfo@@@std@@@4@@std@@@std@@QBEIXZ PROC ; std::allocator<std::map<unsigned int,CvReplayInfo::PlotState,std::less<unsigned int>,std::allocator<std::pair<unsigned int const ,CvReplayInfo::PlotState> > > >::max_size, COMDAT
; _this$ = ecx

; 165  : 		_SIZT _Count = (_SIZT)(-1) / sizeof (_Ty);
; 166  : 		return (0 < _Count ? _Count : 1);

	mov	eax, 357913941				; 15555555H

; 167  : 		}

	ret	0
?max_size@?$allocator@V?$map@IUPlotState@CvReplayInfo@@U?$less@I@std@@V?$allocator@U?$pair@$$CBIUPlotState@CvReplayInfo@@@std@@@4@@std@@@std@@QBEIXZ ENDP ; std::allocator<std::map<unsigned int,CvReplayInfo::PlotState,std::less<unsigned int>,std::allocator<std::pair<unsigned int const ,CvReplayInfo::PlotState> > > >::max_size
_TEXT	ENDS
PUBLIC	?_Xlen@?$vector@U?$pair@FF@std@@V?$allocator@U?$pair@FF@std@@@2@@std@@KAXXZ ; std::vector<std::pair<short,short>,std::allocator<std::pair<short,short> > >::_Xlen
;	COMDAT xdata$x
; File c:\program files (x86)\microsoft visual studio 9.0\vc\include\stdexcept
xdata$x	SEGMENT
__unwindtable$?_Xlen@?$vector@U?$pair@FF@std@@V?$allocator@U?$pair@FF@std@@@2@@std@@KAXXZ DD 0ffffffffH
	DD	FLAT:__unwindfunclet$?_Xlen@?$vector@U?$pair@FF@std@@V?$allocator@U?$pair@FF@std@@@2@@std@@KAXXZ$0
	DD	00H
	DD	FLAT:__unwindfunclet$?_Xlen@?$vector@U?$pair@FF@std@@V?$allocator@U?$pair@FF@std@@@2@@std@@KAXXZ$2
__ehfuncinfo$?_Xlen@?$vector@U?$pair@FF@std@@V?$allocator@U?$pair@FF@std@@@2@@std@@KAXXZ DD 019930522H
	DD	02H
	DD	FLAT:__unwindtable$?_Xlen@?$vector@U?$pair@FF@std@@V?$allocator@U?$pair@FF@std@@@2@@std@@KAXXZ
	DD	2 DUP(00H)
	DD	2 DUP(00H)
	DD	00H
	DD	01H
; Function compile flags: /Ogtpy
; File c:\program files (x86)\microsoft visual studio 9.0\vc\include\vector
xdata$x	ENDS
;	COMDAT ?_Xlen@?$vector@U?$pair@FF@std@@V?$allocator@U?$pair@FF@std@@@2@@std@@KAXXZ
_TEXT	SEGMENT
$T233134 = -80						; size = 28
$T233133 = -52						; size = 40
__$EHRec$ = -12						; size = 12
?_Xlen@?$vector@U?$pair@FF@std@@V?$allocator@U?$pair@FF@std@@@2@@std@@KAXXZ PROC ; std::vector<std::pair<short,short>,std::allocator<std::pair<short,short> > >::_Xlen, COMDAT

; 1259 : 		{	// report a length_error

	push	-1
	push	__ehhandler$?_Xlen@?$vector@U?$pair@FF@std@@V?$allocator@U?$pair@FF@std@@@2@@std@@KAXXZ
	mov	eax, DWORD PTR fs:0
	push	eax
	mov	DWORD PTR fs:0, esp
	sub	esp, 68					; 00000044H

; 1260 : 		_THROW(length_error, "vector<T> too long");

	push	OFFSET ??_C@_0BD@OLBABOEK@vector?$DMT?$DO?5too?5long?$AA@
	lea	ecx, DWORD PTR $T233134[esp+84]
	call	DWORD PTR __imp_??0?$basic_string@DU?$char_traits@D@std@@V?$allocator@D@2@@std@@QAE@PBD@Z
	lea	ecx, DWORD PTR $T233133[esp+80]
	mov	DWORD PTR __$EHRec$[esp+88], 0
	call	DWORD PTR __imp_??0exception@std@@QAE@XZ
	lea	eax, DWORD PTR $T233134[esp+80]
	push	eax
	lea	ecx, DWORD PTR $T233133[esp+96]
	mov	BYTE PTR __$EHRec$[esp+92], 1
	mov	DWORD PTR $T233133[esp+84], OFFSET ??_7logic_error@std@@6B@
	call	DWORD PTR __imp_??0?$basic_string@DU?$char_traits@D@std@@V?$allocator@D@2@@std@@QAE@ABV01@@Z
	push	OFFSET __TI3?AVlength_error@std@@
	lea	ecx, DWORD PTR $T233133[esp+84]
	push	ecx
	mov	BYTE PTR __$EHRec$[esp+96], 0
	mov	DWORD PTR $T233133[esp+88], OFFSET ??_7length_error@std@@6B@
	call	__CxxThrowException@8
$LN13@Xlen@8:
$LN12@Xlen@8:
	int	3
_TEXT	ENDS
;	COMDAT text$x
text$x	SEGMENT
__unwindfunclet$?_Xlen@?$vector@U?$pair@FF@std@@V?$allocator@U?$pair@FF@std@@@2@@std@@KAXXZ$0:
	lea	ecx, DWORD PTR $T233134[ebp]
	jmp	DWORD PTR __imp_??1?$basic_string@DU?$char_traits@D@std@@V?$allocator@D@2@@std@@QAE@XZ
__unwindfunclet$?_Xlen@?$vector@U?$pair@FF@std@@V?$allocator@U?$pair@FF@std@@@2@@std@@KAXXZ$2:
	lea	ecx, DWORD PTR $T233133[ebp]
	jmp	DWORD PTR __imp_??1exception@std@@UAE@XZ
__ehhandler$?_Xlen@?$vector@U?$pair@FF@std@@V?$allocator@U?$pair@FF@std@@@2@@std@@KAXXZ:
	mov	eax, OFFSET __ehfuncinfo$?_Xlen@?$vector@U?$pair@FF@std@@V?$allocator@U?$pair@FF@std@@@2@@std@@KAXXZ
	jmp	___CxxFrameHandler3
text$x	ENDS
?_Xlen@?$vector@U?$pair@FF@std@@V?$allocator@U?$pair@FF@std@@@2@@std@@KAXXZ ENDP ; std::vector<std::pair<short,short>,std::allocator<std::pair<short,short> > >::_Xlen
PUBLIC	??0?$_Container_base_aux_alloc_empty@V?$allocator@U?$pair@FF@std@@@std@@@std@@IAE@V?$allocator@U?$pair@FF@std@@@1@@Z ; std::_Container_base_aux_alloc_empty<std::allocator<std::pair<short,short> > >::_Container_base_aux_alloc_empty<std::allocator<std::pair<short,short> > >
; Function compile flags: /Ogtpy
; File c:\program files (x86)\microsoft visual studio 9.0\vc\include\xutility
;	COMDAT ??0?$_Container_base_aux_alloc_empty@V?$allocator@U?$pair@FF@std@@@std@@@std@@IAE@V?$allocator@U?$pair@FF@std@@@1@@Z
_TEXT	SEGMENT
___formal$ = 8						; size = 1
??0?$_Container_base_aux_alloc_empty@V?$allocator@U?$pair@FF@std@@@std@@@std@@IAE@V?$allocator@U?$pair@FF@std@@@1@@Z PROC ; std::_Container_base_aux_alloc_empty<std::allocator<std::pair<short,short> > >::_Container_base_aux_alloc_empty<std::allocator<std::pair<short,short> > >, COMDAT
; _this$ = ecx

; 618  : 	explicit _Container_base_aux_alloc_empty(_Alloc) { }

	mov	eax, ecx
	ret	4
??0?$_Container_base_aux_alloc_empty@V?$allocator@U?$pair@FF@std@@@std@@@std@@IAE@V?$allocator@U?$pair@FF@std@@@1@@Z ENDP ; std::_Container_base_aux_alloc_empty<std::allocator<std::pair<short,short> > >::_Container_base_aux_alloc_empty<std::allocator<std::pair<short,short> > >
_TEXT	ENDS
PUBLIC	?deallocate@?$allocator@U?$pair@FF@std@@@std@@QAEXPAU?$pair@FF@2@I@Z ; std::allocator<std::pair<short,short> >::deallocate
; Function compile flags: /Ogtpy
; File c:\program files (x86)\microsoft visual studio 9.0\vc\include\xmemory
;	COMDAT ?deallocate@?$allocator@U?$pair@FF@std@@@std@@QAEXPAU?$pair@FF@2@I@Z
_TEXT	SEGMENT
__Ptr$ = 8						; size = 4
___formal$ = 12						; size = 4
?deallocate@?$allocator@U?$pair@FF@std@@@std@@QAEXPAU?$pair@FF@2@I@Z PROC ; std::allocator<std::pair<short,short> >::deallocate, COMDAT
; _this$ = ecx

; 140  : 		::operator delete(_Ptr);

	mov	eax, DWORD PTR __Ptr$[esp-4]
	push	eax
	call	??3@YAXPAX@Z				; operator delete
	pop	ecx

; 141  : 		}

	ret	8
?deallocate@?$allocator@U?$pair@FF@std@@@std@@QAEXPAU?$pair@FF@2@I@Z ENDP ; std::allocator<std::pair<short,short> >::deallocate
_TEXT	ENDS
PUBLIC	?_Isnil@?$_Tree@V?$_Tmap_traits@HHU?$less@H@std@@V?$allocator@U?$pair@$$CBHH@std@@@2@$0A@@std@@@std@@KAAADPAU_Node@?$_Tree_nod@V?$_Tmap_traits@HHU?$less@H@std@@V?$allocator@U?$pair@$$CBHH@std@@@2@$0A@@std@@@2@@Z ; std::_Tree<std::_Tmap_traits<int,int,std::less<int>,std::allocator<std::pair<int const ,int> >,0> >::_Isnil
; Function compile flags: /Ogtpy
; File c:\program files (x86)\microsoft visual studio 9.0\vc\include\xtree
;	COMDAT ?_Isnil@?$_Tree@V?$_Tmap_traits@HHU?$less@H@std@@V?$allocator@U?$pair@$$CBHH@std@@@2@$0A@@std@@@std@@KAAADPAU_Node@?$_Tree_nod@V?$_Tmap_traits@HHU?$less@H@std@@V?$allocator@U?$pair@$$CBHH@std@@@2@$0A@@std@@@2@@Z
_TEXT	SEGMENT
__Pnode$ = 8						; size = 4
?_Isnil@?$_Tree@V?$_Tmap_traits@HHU?$less@H@std@@V?$allocator@U?$pair@$$CBHH@std@@@2@$0A@@std@@@std@@KAAADPAU_Node@?$_Tree_nod@V?$_Tmap_traits@HHU?$less@H@std@@V?$allocator@U?$pair@$$CBHH@std@@@2@$0A@@std@@@2@@Z PROC ; std::_Tree<std::_Tmap_traits<int,int,std::less<int>,std::allocator<std::pair<int const ,int> >,0> >::_Isnil, COMDAT

; 157  : 		return ((_Charref)(*_Pnode)._Isnil);

	mov	eax, DWORD PTR __Pnode$[esp-4]
	add	eax, 21					; 00000015H

; 158  : 		}

	ret	0
?_Isnil@?$_Tree@V?$_Tmap_traits@HHU?$less@H@std@@V?$allocator@U?$pair@$$CBHH@std@@@2@$0A@@std@@@std@@KAAADPAU_Node@?$_Tree_nod@V?$_Tmap_traits@HHU?$less@H@std@@V?$allocator@U?$pair@$$CBHH@std@@@2@$0A@@std@@@2@@Z ENDP ; std::_Tree<std::_Tmap_traits<int,int,std::less<int>,std::allocator<std::pair<int const ,int> >,0> >::_Isnil
_TEXT	ENDS
PUBLIC	?_Left@?$_Tree@V?$_Tmap_traits@HHU?$less@H@std@@V?$allocator@U?$pair@$$CBHH@std@@@2@$0A@@std@@@std@@KAAAPAU_Node@?$_Tree_nod@V?$_Tmap_traits@HHU?$less@H@std@@V?$allocator@U?$pair@$$CBHH@std@@@2@$0A@@std@@@2@PAU342@@Z ; std::_Tree<std::_Tmap_traits<int,int,std::less<int>,std::allocator<std::pair<int const ,int> >,0> >::_Left
; Function compile flags: /Ogtpy
;	COMDAT ?_Left@?$_Tree@V?$_Tmap_traits@HHU?$less@H@std@@V?$allocator@U?$pair@$$CBHH@std@@@2@$0A@@std@@@std@@KAAAPAU_Node@?$_Tree_nod@V?$_Tmap_traits@HHU?$less@H@std@@V?$allocator@U?$pair@$$CBHH@std@@@2@$0A@@std@@@2@PAU342@@Z
_TEXT	SEGMENT
__Pnode$ = 8						; size = 4
?_Left@?$_Tree@V?$_Tmap_traits@HHU?$less@H@std@@V?$allocator@U?$pair@$$CBHH@std@@@2@$0A@@std@@@std@@KAAAPAU_Node@?$_Tree_nod@V?$_Tmap_traits@HHU?$less@H@std@@V?$allocator@U?$pair@$$CBHH@std@@@2@$0A@@std@@@2@PAU342@@Z PROC ; std::_Tree<std::_Tmap_traits<int,int,std::less<int>,std::allocator<std::pair<int const ,int> >,0> >::_Left, COMDAT

; 167  : 		return ((_Nodepref)(*_Pnode)._Left);

	mov	eax, DWORD PTR __Pnode$[esp-4]

; 168  : 		}

	ret	0
?_Left@?$_Tree@V?$_Tmap_traits@HHU?$less@H@std@@V?$allocator@U?$pair@$$CBHH@std@@@2@$0A@@std@@@std@@KAAAPAU_Node@?$_Tree_nod@V?$_Tmap_traits@HHU?$less@H@std@@V?$allocator@U?$pair@$$CBHH@std@@@2@$0A@@std@@@2@PAU342@@Z ENDP ; std::_Tree<std::_Tmap_traits<int,int,std::less<int>,std::allocator<std::pair<int const ,int> >,0> >::_Left
_TEXT	ENDS
PUBLIC	?_Parent@?$_Tree@V?$_Tmap_traits@HHU?$less@H@std@@V?$allocator@U?$pair@$$CBHH@std@@@2@$0A@@std@@@std@@KAAAPAU_Node@?$_Tree_nod@V?$_Tmap_traits@HHU?$less@H@std@@V?$allocator@U?$pair@$$CBHH@std@@@2@$0A@@std@@@2@PAU342@@Z ; std::_Tree<std::_Tmap_traits<int,int,std::less<int>,std::allocator<std::pair<int const ,int> >,0> >::_Parent
; Function compile flags: /Ogtpy
;	COMDAT ?_Parent@?$_Tree@V?$_Tmap_traits@HHU?$less@H@std@@V?$allocator@U?$pair@$$CBHH@std@@@2@$0A@@std@@@std@@KAAAPAU_Node@?$_Tree_nod@V?$_Tmap_traits@HHU?$less@H@std@@V?$allocator@U?$pair@$$CBHH@std@@@2@$0A@@std@@@2@PAU342@@Z
_TEXT	SEGMENT
__Pnode$ = 8						; size = 4
?_Parent@?$_Tree@V?$_Tmap_traits@HHU?$less@H@std@@V?$allocator@U?$pair@$$CBHH@std@@@2@$0A@@std@@@std@@KAAAPAU_Node@?$_Tree_nod@V?$_Tmap_traits@HHU?$less@H@std@@V?$allocator@U?$pair@$$CBHH@std@@@2@$0A@@std@@@2@PAU342@@Z PROC ; std::_Tree<std::_Tmap_traits<int,int,std::less<int>,std::allocator<std::pair<int const ,int> >,0> >::_Parent, COMDAT

; 172  : 		return ((_Nodepref)(*_Pnode)._Parent);

	mov	eax, DWORD PTR __Pnode$[esp-4]
	add	eax, 4

; 173  : 		}

	ret	0
?_Parent@?$_Tree@V?$_Tmap_traits@HHU?$less@H@std@@V?$allocator@U?$pair@$$CBHH@std@@@2@$0A@@std@@@std@@KAAAPAU_Node@?$_Tree_nod@V?$_Tmap_traits@HHU?$less@H@std@@V?$allocator@U?$pair@$$CBHH@std@@@2@$0A@@std@@@2@PAU342@@Z ENDP ; std::_Tree<std::_Tmap_traits<int,int,std::less<int>,std::allocator<std::pair<int const ,int> >,0> >::_Parent
_TEXT	ENDS
PUBLIC	?_Right@?$_Tree@V?$_Tmap_traits@HHU?$less@H@std@@V?$allocator@U?$pair@$$CBHH@std@@@2@$0A@@std@@@std@@KAAAPAU_Node@?$_Tree_nod@V?$_Tmap_traits@HHU?$less@H@std@@V?$allocator@U?$pair@$$CBHH@std@@@2@$0A@@std@@@2@PAU342@@Z ; std::_Tree<std::_Tmap_traits<int,int,std::less<int>,std::allocator<std::pair<int const ,int> >,0> >::_Right
; Function compile flags: /Ogtpy
;	COMDAT ?_Right@?$_Tree@V?$_Tmap_traits@HHU?$less@H@std@@V?$allocator@U?$pair@$$CBHH@std@@@2@$0A@@std@@@std@@KAAAPAU_Node@?$_Tree_nod@V?$_Tmap_traits@HHU?$less@H@std@@V?$allocator@U?$pair@$$CBHH@std@@@2@$0A@@std@@@2@PAU342@@Z
_TEXT	SEGMENT
__Pnode$ = 8						; size = 4
?_Right@?$_Tree@V?$_Tmap_traits@HHU?$less@H@std@@V?$allocator@U?$pair@$$CBHH@std@@@2@$0A@@std@@@std@@KAAAPAU_Node@?$_Tree_nod@V?$_Tmap_traits@HHU?$less@H@std@@V?$allocator@U?$pair@$$CBHH@std@@@2@$0A@@std@@@2@PAU342@@Z PROC ; std::_Tree<std::_Tmap_traits<int,int,std::less<int>,std::allocator<std::pair<int const ,int> >,0> >::_Right, COMDAT

; 177  : 		return ((_Nodepref)(*_Pnode)._Right);

	mov	eax, DWORD PTR __Pnode$[esp-4]
	add	eax, 8

; 178  : 		}

	ret	0
?_Right@?$_Tree@V?$_Tmap_traits@HHU?$less@H@std@@V?$allocator@U?$pair@$$CBHH@std@@@2@$0A@@std@@@std@@KAAAPAU_Node@?$_Tree_nod@V?$_Tmap_traits@HHU?$less@H@std@@V?$allocator@U?$pair@$$CBHH@std@@@2@$0A@@std@@@2@PAU342@@Z ENDP ; std::_Tree<std::_Tmap_traits<int,int,std::less<int>,std::allocator<std::pair<int const ,int> >,0> >::_Right
_TEXT	ENDS
PUBLIC	?_Myval@?$_Tree@V?$_Tmap_traits@HHU?$less@H@std@@V?$allocator@U?$pair@$$CBHH@std@@@2@$0A@@std@@@std@@KAAAU?$pair@$$CBHH@2@PAU_Node@?$_Tree_nod@V?$_Tmap_traits@HHU?$less@H@std@@V?$allocator@U?$pair@$$CBHH@std@@@2@$0A@@std@@@2@@Z ; std::_Tree<std::_Tmap_traits<int,int,std::less<int>,std::allocator<std::pair<int const ,int> >,0> >::_Myval
; Function compile flags: /Ogtpy
;	COMDAT ?_Myval@?$_Tree@V?$_Tmap_traits@HHU?$less@H@std@@V?$allocator@U?$pair@$$CBHH@std@@@2@$0A@@std@@@std@@KAAAU?$pair@$$CBHH@2@PAU_Node@?$_Tree_nod@V?$_Tmap_traits@HHU?$less@H@std@@V?$allocator@U?$pair@$$CBHH@std@@@2@$0A@@std@@@2@@Z
_TEXT	SEGMENT
__Pnode$ = 8						; size = 4
?_Myval@?$_Tree@V?$_Tmap_traits@HHU?$less@H@std@@V?$allocator@U?$pair@$$CBHH@std@@@2@$0A@@std@@@std@@KAAAU?$pair@$$CBHH@2@PAU_Node@?$_Tree_nod@V?$_Tmap_traits@HHU?$less@H@std@@V?$allocator@U?$pair@$$CBHH@std@@@2@$0A@@std@@@2@@Z PROC ; std::_Tree<std::_Tmap_traits<int,int,std::less<int>,std::allocator<std::pair<int const ,int> >,0> >::_Myval, COMDAT

; 182  : 		return ((_Vref)(*_Pnode)._Myval);

	mov	eax, DWORD PTR __Pnode$[esp-4]
	add	eax, 12					; 0000000cH

; 183  : 		}

	ret	0
?_Myval@?$_Tree@V?$_Tmap_traits@HHU?$less@H@std@@V?$allocator@U?$pair@$$CBHH@std@@@2@$0A@@std@@@std@@KAAAU?$pair@$$CBHH@2@PAU_Node@?$_Tree_nod@V?$_Tmap_traits@HHU?$less@H@std@@V?$allocator@U?$pair@$$CBHH@std@@@2@$0A@@std@@@2@@Z ENDP ; std::_Tree<std::_Tmap_traits<int,int,std::less<int>,std::allocator<std::pair<int const ,int> >,0> >::_Myval
_TEXT	ENDS
PUBLIC	?size@?$_Tree@V?$_Tmap_traits@HHU?$less@H@std@@V?$allocator@U?$pair@$$CBHH@std@@@2@$0A@@std@@@std@@QBEIXZ ; std::_Tree<std::_Tmap_traits<int,int,std::less<int>,std::allocator<std::pair<int const ,int> >,0> >::size
; Function compile flags: /Ogtpy
;	COMDAT ?size@?$_Tree@V?$_Tmap_traits@HHU?$less@H@std@@V?$allocator@U?$pair@$$CBHH@std@@@2@$0A@@std@@@std@@QBEIXZ
_TEXT	SEGMENT
?size@?$_Tree@V?$_Tmap_traits@HHU?$less@H@std@@V?$allocator@U?$pair@$$CBHH@std@@@2@$0A@@std@@@std@@QBEIXZ PROC ; std::_Tree<std::_Tmap_traits<int,int,std::less<int>,std::allocator<std::pair<int const ,int> >,0> >::size, COMDAT
; _this$ = ecx

; 601  : 		return (_Mysize);

	mov	eax, DWORD PTR [ecx+8]

; 602  : 		}

	ret	0
?size@?$_Tree@V?$_Tmap_traits@HHU?$less@H@std@@V?$allocator@U?$pair@$$CBHH@std@@@2@$0A@@std@@@std@@QBEIXZ ENDP ; std::_Tree<std::_Tmap_traits<int,int,std::less<int>,std::allocator<std::pair<int const ,int> >,0> >::size
_TEXT	ENDS
PUBLIC	?_Rmost@?$_Tree@V?$_Tmap_traits@HHU?$less@H@std@@V?$allocator@U?$pair@$$CBHH@std@@@2@$0A@@std@@@std@@IBEAAPAU_Node@?$_Tree_nod@V?$_Tmap_traits@HHU?$less@H@std@@V?$allocator@U?$pair@$$CBHH@std@@@2@$0A@@std@@@2@XZ ; std::_Tree<std::_Tmap_traits<int,int,std::less<int>,std::allocator<std::pair<int const ,int> >,0> >::_Rmost
; Function compile flags: /Ogtpy
;	COMDAT ?_Rmost@?$_Tree@V?$_Tmap_traits@HHU?$less@H@std@@V?$allocator@U?$pair@$$CBHH@std@@@2@$0A@@std@@@std@@IBEAAPAU_Node@?$_Tree_nod@V?$_Tmap_traits@HHU?$less@H@std@@V?$allocator@U?$pair@$$CBHH@std@@@2@$0A@@std@@@2@XZ
_TEXT	SEGMENT
?_Rmost@?$_Tree@V?$_Tmap_traits@HHU?$less@H@std@@V?$allocator@U?$pair@$$CBHH@std@@@2@$0A@@std@@@std@@IBEAAPAU_Node@?$_Tree_nod@V?$_Tmap_traits@HHU?$less@H@std@@V?$allocator@U?$pair@$$CBHH@std@@@2@$0A@@std@@@2@XZ PROC ; std::_Tree<std::_Tmap_traits<int,int,std::less<int>,std::allocator<std::pair<int const ,int> >,0> >::_Rmost, COMDAT
; _this$ = ecx

; 1320 : 		return (_Right(_Myhead));

	mov	eax, DWORD PTR [ecx+4]
	add	eax, 8

; 1321 : 		}

	ret	0
?_Rmost@?$_Tree@V?$_Tmap_traits@HHU?$less@H@std@@V?$allocator@U?$pair@$$CBHH@std@@@2@$0A@@std@@@std@@IBEAAPAU_Node@?$_Tree_nod@V?$_Tmap_traits@HHU?$less@H@std@@V?$allocator@U?$pair@$$CBHH@std@@@2@$0A@@std@@@2@XZ ENDP ; std::_Tree<std::_Tmap_traits<int,int,std::less<int>,std::allocator<std::pair<int const ,int> >,0> >::_Rmost
_TEXT	ENDS
PUBLIC	?_Kfn@?$_Tmap_traits@HHU?$less@H@std@@V?$allocator@U?$pair@$$CBHH@std@@@2@$0A@@std@@SAABHABU?$pair@$$CBHH@2@@Z ; std::_Tmap_traits<int,int,std::less<int>,std::allocator<std::pair<int const ,int> >,0>::_Kfn
; Function compile flags: /Ogtpy
; File c:\program files (x86)\microsoft visual studio 9.0\vc\include\map
;	COMDAT ?_Kfn@?$_Tmap_traits@HHU?$less@H@std@@V?$allocator@U?$pair@$$CBHH@std@@@2@$0A@@std@@SAABHABU?$pair@$$CBHH@2@@Z
_TEXT	SEGMENT
__Val$ = 8						; size = 4
?_Kfn@?$_Tmap_traits@HHU?$less@H@std@@V?$allocator@U?$pair@$$CBHH@std@@@2@$0A@@std@@SAABHABU?$pair@$$CBHH@2@@Z PROC ; std::_Tmap_traits<int,int,std::less<int>,std::allocator<std::pair<int const ,int> >,0>::_Kfn, COMDAT

; 65   : 		return (_Val.first);

	mov	eax, DWORD PTR __Val$[esp-4]

; 66   : 		}

	ret	0
?_Kfn@?$_Tmap_traits@HHU?$less@H@std@@V?$allocator@U?$pair@$$CBHH@std@@@2@$0A@@std@@SAABHABU?$pair@$$CBHH@2@@Z ENDP ; std::_Tmap_traits<int,int,std::less<int>,std::allocator<std::pair<int const ,int> >,0>::_Kfn
_TEXT	ENDS
PUBLIC	?deallocate@?$allocator@U_Node@?$_Tree_nod@V?$_Tmap_traits@HHU?$less@H@std@@V?$allocator@U?$pair@$$CBHH@std@@@2@$0A@@std@@@std@@@std@@QAEXPAU_Node@?$_Tree_nod@V?$_Tmap_traits@HHU?$less@H@std@@V?$allocator@U?$pair@$$CBHH@std@@@2@$0A@@std@@@2@I@Z ; std::allocator<std::_Tree_nod<std::_Tmap_traits<int,int,std::less<int>,std::allocator<std::pair<int const ,int> >,0> >::_Node>::deallocate
; Function compile flags: /Ogtpy
; File c:\program files (x86)\microsoft visual studio 9.0\vc\include\xmemory
;	COMDAT ?deallocate@?$allocator@U_Node@?$_Tree_nod@V?$_Tmap_traits@HHU?$less@H@std@@V?$allocator@U?$pair@$$CBHH@std@@@2@$0A@@std@@@std@@@std@@QAEXPAU_Node@?$_Tree_nod@V?$_Tmap_traits@HHU?$less@H@std@@V?$allocator@U?$pair@$$CBHH@std@@@2@$0A@@std@@@2@I@Z
_TEXT	SEGMENT
__Ptr$ = 8						; size = 4
___formal$ = 12						; size = 4
?deallocate@?$allocator@U_Node@?$_Tree_nod@V?$_Tmap_traits@HHU?$less@H@std@@V?$allocator@U?$pair@$$CBHH@std@@@2@$0A@@std@@@std@@@std@@QAEXPAU_Node@?$_Tree_nod@V?$_Tmap_traits@HHU?$less@H@std@@V?$allocator@U?$pair@$$CBHH@std@@@2@$0A@@std@@@2@I@Z PROC ; std::allocator<std::_Tree_nod<std::_Tmap_traits<int,int,std::less<int>,std::allocator<std::pair<int const ,int> >,0> >::_Node>::deallocate, COMDAT
; _this$ = ecx

; 140  : 		::operator delete(_Ptr);

	mov	eax, DWORD PTR __Ptr$[esp-4]
	push	eax
	call	??3@YAXPAX@Z				; operator delete
	pop	ecx

; 141  : 		}

	ret	8
?deallocate@?$allocator@U_Node@?$_Tree_nod@V?$_Tmap_traits@HHU?$less@H@std@@V?$allocator@U?$pair@$$CBHH@std@@@2@$0A@@std@@@std@@@std@@QAEXPAU_Node@?$_Tree_nod@V?$_Tmap_traits@HHU?$less@H@std@@V?$allocator@U?$pair@$$CBHH@std@@@2@$0A@@std@@@2@I@Z ENDP ; std::allocator<std::_Tree_nod<std::_Tmap_traits<int,int,std::less<int>,std::allocator<std::pair<int const ,int> >,0> >::_Node>::deallocate
_TEXT	ENDS
PUBLIC	??0const_iterator@?$_Tree@V?$_Tmap_traits@IHU?$less@I@std@@V?$allocator@U?$pair@$$CBIH@std@@@2@$0A@@std@@@std@@QAE@XZ ; std::_Tree<std::_Tmap_traits<unsigned int,int,std::less<unsigned int>,std::allocator<std::pair<unsigned int const ,int> >,0> >::const_iterator::const_iterator
; Function compile flags: /Ogtpy
; File c:\program files (x86)\microsoft visual studio 9.0\vc\include\xtree
;	COMDAT ??0const_iterator@?$_Tree@V?$_Tmap_traits@IHU?$less@I@std@@V?$allocator@U?$pair@$$CBIH@std@@@2@$0A@@std@@@std@@QAE@XZ
_TEXT	SEGMENT
